
c906bbbcdc39baeff580b76874f39a8c433dfabd37fae1dd1b0b46f18f4c0ef2.exe:     file format pei-i386


Disassembly of section .text:

00402000 <.text>:
  402000:	adc    BYTE PTR [edi+0x0],cl
  402003:	add    BYTE PTR [eax],al
  402005:	add    BYTE PTR [eax],al
  402007:	add    BYTE PTR [eax+0x0],cl
  40200a:	add    BYTE PTR [eax],al
  40200c:	add    al,BYTE PTR [eax]
  40200e:	add    eax,0x259c00
  402013:	add    BYTE PTR [eax],cl
  402015:	sub    BYTE PTR [eax],al
  402017:	add    BYTE PTR [ebx],al
  402019:	add    BYTE PTR [edx],al
  40201b:	add    BYTE PTR [ecx],al
  40201d:	add    BYTE PTR [eax],al
  40201f:	push   es
	...
  402050:	adc    esi,DWORD PTR [eax]
  402052:	add    al,0x0
  402054:	push   ecx
  402055:	add    DWORD PTR [eax],eax
  402057:	add    BYTE PTR [ecx],al
  402059:	add    BYTE PTR [eax],al
  40205b:	adc    DWORD PTR [edx+ecx*1],edx
  40205e:	adc    al,0xb
  402060:	adc    al,0xc
  402062:	pop    ss
  402063:	or     eax,0x2041316
  402068:	mov    gs,WORD PTR [ecx+0x2d]
  40206b:	adc    al,0x72
  40206d:	add    DWORD PTR [eax],eax
  40206f:	add    BYTE PTR [eax+0x28],dh
  402072:	adc    al,0x0
  402074:	add    BYTE PTR [edx],cl
  402076:	sub    BYTE PTR [edx],al
  402078:	add    BYTE PTR [eax],al
  40207a:	push   es
  40207b:	cmp    BYTE PTR [ecx+eax*1],cl
  40207e:	add    BYTE PTR [eax],al
  402080:	add    cl,BYTE PTR [esi+0x27331769]
  402086:	add    dl,BYTE PTR [esi]
  402088:	call   0x2870:0x2772
  40208f:	adc    eax,0x2c0a0000
  402094:	or     ch,BYTE PTR [eax]
  402096:	add    al,BYTE PTR [eax]
  402098:	add    BYTE PTR [esi],al
  40209a:	cmp    ch,ch
  40209c:	add    BYTE PTR [eax],al
  40209e:	add    BYTE PTR [edx],al
  4020a0:	push   ss
  4020a1:	call   0x2606:0x528
  4020a8:	cmp    bh,bl
  4020aa:	add    BYTE PTR [eax],al
  4020ac:	add    BYTE PTR [esi],dl
  4020ae:	adc    eax,DWORD PTR ds:0xcd38
  4020b4:	add    BYTE PTR [edx],al
  4020b6:	adc    DWORD PTR ds:0x613259a,eax
  4020bc:	cmp    DWORD PTR [ebx+0x11000000],edi
  4020c2:	push   es
  4020c3:	jb     0x4020f0
  4020c5:	add    BYTE PTR [eax],al
  4020c7:	jo     0x4020f1
  4020c9:	adc    eax,0x2d0a0000
  4020ce:	cmp    dl,BYTE PTR [ecx]
  4020d0:	push   es
  4020d1:	jb     0x402104
  4020d3:	add    BYTE PTR [eax],al
  4020d5:	jo     0x4020ff
  4020d7:	adc    eax,0x2d0a0000
  4020dc:	push   eax
  4020dd:	adc    DWORD PTR [esi],eax
  4020df:	jb     0x402118
  4020e1:	add    BYTE PTR [eax],al
  4020e3:	jo     0x40210d
  4020e5:	adc    eax,0x2d0a0000
  4020ea:	adc    WORD PTR [esi],ax
  4020ed:	jb     0x40212c
  4020ef:	add    BYTE PTR [eax],al
  4020f1:	jo     0x40211b
  4020f3:	adc    eax,0x2d0a0000
  4020f8:	jl     0x40210b
  4020fa:	push   es
  4020fb:	jb     0x402140
  4020fd:	add    BYTE PTR [eax],al
  4020ff:	jo     0x402129
  402101:	adc    eax,0x2d0a0000
  402106:	jb     0x402133
  402108:	jae    0x40211b
  40210a:	add    eax,0x8e025817
  40210f:	imul   ebp,DWORD PTR [edi],0x5110209
  402115:	pop    ss
  402116:	pop    eax
  402117:	call   0x49:0x72612b0b
  40211e:	add    BYTE PTR [eax+0x28],dh
  402121:	adc    al,0x0
  402123:	add    BYTE PTR [edx],cl
  402125:	adc    eax,0x1628
  40212a:	or     ch,BYTE PTR [ebx]
  40212c:	dec    edi
  40212d:	adc    DWORD PTR ds:0x8e025817,eax
  402133:	imul   ebp,DWORD PTR [edi],0x5110209
  402139:	pop    ss
  40213a:	pop    eax
  40213b:	call   0xcc:0x723d2b0a
  402142:	add    BYTE PTR [eax+0x28],dh
  402145:	adc    al,0x0
  402147:	add    BYTE PTR [edx],cl
  402149:	adc    eax,0x1628
  40214e:	or     ch,BYTE PTR [ebx]
  402150:	sub    edx,DWORD PTR [ecx]
  402152:	add    eax,0x8e025817
  402157:	imul   ebp,DWORD PTR [edi],0x5110209
  40215d:	pop    ss
  40215e:	pop    eax
  40215f:	call   0x155:0x72192b0c
  402166:	add    BYTE PTR [eax+0x28],dh
  402169:	adc    al,0x0
  40216b:	add    BYTE PTR [edx],cl
  40216d:	adc    eax,0x1628
  402172:	or     ch,BYTE PTR [ebx]
  402174:	pop    es
  402175:	push   ss
  402176:	or     eax,0x1317032b
  40217b:	add    al,0x11
  40217d:	add    eax,0x5135817
  402182:	adc    DWORD PTR ds:0x3f698e02,eax
  402188:	sub    edi,edi
  40218a:	(bad)  
  40218b:	jmp    FWORD PTR [eax]
  40218d:	add    eax,DWORD PTR [eax]
  40218f:	add    BYTE PTR [esi],al
  402191:	es push es
  402193:	pop    es
  402194:	or     BYTE PTR [ecx],cl
  402196:	sub    BYTE PTR [edi],al
  402198:	add    BYTE PTR [eax],al
  40219a:	push   es
  40219b:	sub    ecx,DWORD PTR es:[edx]
  40219e:	and    ah,dh
  4021a0:	add    DWORD PTR [eax],eax
  4021a2:	add    BYTE PTR [eax],ch
  4021a4:	pop    ss
  4021a5:	add    BYTE PTR [eax],al
  4021a7:	or     dl,BYTE PTR [ecx]
  4021a9:	add    al,0x2d
  4021ab:	repnz sub al,BYTE PTR [eax]
  4021ae:	add    BYTE PTR [eax],al
  4021b0:	adc    esi,DWORD PTR [eax]
  4021b2:	add    DWORD PTR [eax],eax
  4021b4:	or     eax,0x2000000
  4021b9:	add    BYTE PTR [eax],al
  4021bb:	adc    DWORD PTR [edx-0x31],esi
  4021be:	add    DWORD PTR [eax],eax
  4021c0:	jo     0x4021cc
  4021c2:	push   es
  4021c3:	sub    BYTE PTR [eax+eax*1],dl
  4021c6:	add    BYTE PTR [edx],cl
  4021c8:	sub    al,BYTE PTR [eax]
  4021ca:	add    BYTE PTR [eax],al
  4021cc:	adc    esi,DWORD PTR [eax]
  4021ce:	add    al,BYTE PTR [eax]
  4021d0:	and    al,0x0
  4021d2:	add    BYTE PTR [eax],al
  4021d4:	add    al,BYTE PTR [eax]
  4021d6:	add    BYTE PTR [ecx],dl
  4021d8:	pop    ds
  4021d9:	sbb    ch,BYTE PTR [eax]
  4021db:	sbb    BYTE PTR [eax],al
  4021dd:	add    BYTE PTR [edx],cl
  4021df:	jb     0x402195
  4021e1:	or     BYTE PTR [eax],al
  4021e3:	jo     0x40220d
  4021e5:	sbb    DWORD PTR [eax],eax
  4021e7:	add    BYTE PTR [edx],cl
  4021e9:	or     al,BYTE PTR [esi]
  4021eb:	sub    BYTE PTR [edx],bl
  4021ed:	add    BYTE PTR [eax],al
  4021ef:	or     ch,BYTE PTR ds:0x4280608
  4021f5:	add    BYTE PTR [eax],al
  4021f7:	push   es
  4021f8:	pop    ss
  4021f9:	sub    dl,BYTE PTR [esi]
  4021fb:	sub    bl,BYTE PTR [ebx]
  4021fd:	xor    BYTE PTR [ebx],al
  4021ff:	add    BYTE PTR [eax+eax*1+0x30000],cl
  402206:	add    BYTE PTR [ecx],dl
  402208:	sub    BYTE PTR [ebx],bl
  40220a:	add    BYTE PTR [eax],al
  40220c:	or     ch,BYTE PTR [edi+0x1c]
  40220f:	add    BYTE PTR [eax],al
  402211:	or     ch,BYTE PTR [edi+0x1d]
  402214:	add    BYTE PTR [eax],al
  402216:	or     cl,BYTE PTR [edx]
  402218:	jae    0x402243
  40221a:	add    BYTE PTR [eax],al
  40221c:	push   es
  40221d:	je     0x402224
  40221f:	add    BYTE PTR [eax],al
  402221:	add    cl,BYTE PTR [ebx]
  402223:	pop    es
  402224:	push   es
  402225:	outs   dx,DWORD PTR ds:[esi]
  402226:	push   ds
  402227:	add    BYTE PTR [eax],al
  402229:	push   es
  40222a:	sub    BYTE PTR [edx],ch
  40222c:	add    BYTE PTR [eax],al
  40222e:	push   es
  40222f:	pop    es
  402230:	jb     0x402248
  402232:	or     DWORD PTR [eax],eax
  402234:	jo     0x4022a5
  402236:	adc    eax,0x28060000
  40223b:	sub    al,BYTE PTR [eax]
  40223d:	add    BYTE PTR [esi],al
  40223f:	pop    es
  402240:	je     0x402249
  402242:	add    BYTE PTR [eax],al
  402244:	add    cl,BYTE PTR [edx+esi*2]
  402247:	sbb    BYTE PTR [ecx],cl
  402249:	add    BYTE PTR [eax+0x73],dh
  40224c:	push   ds
  40224d:	add    BYTE PTR [eax],al
  40224f:	or     cl,BYTE PTR ds:0x1f2808
  402255:	add    BYTE PTR [edx],cl
  402257:	adc    eax,DWORD PTR ds:0x6f090512
  40225d:	daa    
  40225e:	add    BYTE PTR [eax],al
  402260:	push   es
  402261:	sub    BYTE PTR [edx],ch
  402263:	add    BYTE PTR [eax],al
  402265:	push   es
  402266:	or     BYTE PTR [edi+0x28],ch
  402269:	add    BYTE PTR [eax],al
  40226b:	push   es
  40226c:	sub    BYTE PTR [edx],ch
  40226e:	add    BYTE PTR [eax],al
  402270:	push   es
  402271:	fimul  WORD PTR [edx]
  402273:	or     DWORD PTR [esi+eax*1],ebp
  402276:	or     DWORD PTR [edi+0x20],ebp
  402279:	add    BYTE PTR [eax],al
  40227b:	or     bl,ah
  40227d:	pop    es
  40227e:	je     0x402286
  402280:	add    BYTE PTR [eax],al
  402282:	add    dl,BYTE PTR [ebx]
  402284:	add    al,0x11
  402286:	add    al,0x2
  402288:	pop    ss
  402289:	outs   dx,DWORD PTR ds:[esi]
  40228a:	and    al,BYTE PTR [eax]
  40228c:	add    BYTE PTR [esi],al
  40228e:	sub    BYTE PTR [edx],ch
  402290:	add    BYTE PTR [eax],al
  402292:	push   es
  402293:	sub    al,BYTE PTR [ecx]
  402295:	adc    BYTE PTR [eax],al
  402297:	add    BYTE PTR [edx],al
  402299:	add    BYTE PTR [ecx+0x0],cl
  40229c:	and    ch,BYTE PTR [ebx+0x0]
  40229f:	or     al,BYTE PTR [eax]
  4022a1:	add    BYTE PTR [eax],al
  4022a3:	add    BYTE PTR [edx],ch
  4022a5:	adc    al,0x2
  4022a7:	adc    al,0x17
  4022a9:	sub    BYTE PTR [edi],al
  4022ab:	add    BYTE PTR [eax],al
  4022ad:	push   es
  4022ae:	sub    ch,BYTE PTR [edx]
  4022b0:	add    al,BYTE PTR [ebx]
  4022b2:	adc    al,0x17
  4022b4:	sub    BYTE PTR [edi],al
  4022b6:	add    BYTE PTR [eax],al
  4022b8:	push   es
  4022b9:	sub    al,BYTE PTR [eax]
  4022bb:	add    BYTE PTR [ebx],dl
  4022bd:	xor    BYTE PTR [eax+eax*1],al
  4022c0:	mov    dl,0x1
  4022c2:	add    BYTE PTR [eax],al
  4022c4:	add    al,0x0
  4022c6:	add    BYTE PTR [ecx],dl
  4022c8:	add    ebp,DWORD PTR ds:0x42a1402
  4022ce:	cmp    DWORD PTR [edi+0x19000000],edx
  4022d4:	sub    BYTE PTR [ecx],ah
  4022d6:	add    BYTE PTR [eax],al
  4022d8:	or     cl,BYTE PTR [edx]
  4022da:	push   es
  4022db:	jb     0x40230f
  4022dd:	or     DWORD PTR [eax],eax
  4022df:	jo     0x402350
  4022e1:	and    al,BYTE PTR [eax]
  4022e3:	add    BYTE PTR [edx],cl
  4022e5:	or     eax,DWORD PTR [edi]
  4022e7:	push   ss
  4022e8:	outs   dx,DWORD PTR ds:[esi]
  4022e9:	and    eax,DWORD PTR [eax]
  4022eb:	add    BYTE PTR [edx],cl
  4022ed:	outs   dx,DWORD PTR ds:[esi]
  4022ee:	and    al,0x0
  4022f0:	add    BYTE PTR [edx],cl
  4022f2:	jb     0x402332
  4022f4:	or     DWORD PTR [eax],eax
  4022f6:	jo     0x402367
  4022f8:	and    eax,0x720a0000
  4022fd:	inc    esi
  4022fe:	or     DWORD PTR [eax],eax
  402300:	jo     0x402306
  402302:	sub    BYTE PTR [ecx],bl
  402304:	add    BYTE PTR [eax],al
  402306:	or     ch,BYTE PTR [edi+0x26]
  402309:	add    BYTE PTR [eax],al
  40230b:	or     al,BYTE PTR [edx]
  40230d:	sub    al,0x39
  40230f:	push   es
  402310:	jb     0x40236a
  402312:	or     DWORD PTR [eax],eax
  402314:	jo     0x402385
  402316:	and    al,BYTE PTR [eax]
  402318:	add    BYTE PTR [edx],cl
  40231a:	or     al,0x8
  40231c:	push   ss
  40231d:	outs   dx,DWORD PTR ds:[esi]
  40231e:	and    eax,DWORD PTR [eax]
  402320:	add    BYTE PTR [edx],cl
  402322:	push   es
  402323:	add    ch,BYTE PTR [edi+0x27]
  402326:	add    BYTE PTR [eax],al
  402328:	or     ch,BYTE PTR [edi+0x28]
  40232b:	add    BYTE PTR [eax],al
  40232d:	or     ah,BYTE PTR [esi]
  40232f:	or     BYTE PTR [edi],dl
  402331:	outs   dx,DWORD PTR ds:[esi]
  402332:	and    eax,DWORD PTR [eax]
  402334:	add    BYTE PTR [edx],cl
  402336:	push   es
  402337:	add    ebp,DWORD PTR [edi+0x27]
  40233a:	add    BYTE PTR [eax],al
  40233c:	or     ch,BYTE PTR [edi+0x28]
  40233f:	add    BYTE PTR [eax],al
  402341:	or     ah,BYTE PTR [esi]
  402343:	cmp    BYTE PTR [esi+0x6000000],cl
  402349:	jb     0x4023a3
  40234b:	or     DWORD PTR [eax],eax
  40234d:	jo     0x4023be
  40234f:	and    al,BYTE PTR [eax]
  402351:	add    BYTE PTR [edx],cl
  402353:	or     eax,0x236f1609
  402358:	add    BYTE PTR [eax],al
  40235a:	or     al,BYTE PTR [esi]
  40235c:	add    ebp,DWORD PTR [edi+0x27]
  40235f:	add    BYTE PTR [eax],al
  402361:	or     ch,BYTE PTR [edi+0x28]
  402364:	add    BYTE PTR [eax],al
  402366:	or     ah,BYTE PTR [esi]
  402368:	sub    ebp,DWORD PTR [edx+eax*1+0x2c]
  40236c:	inc    eax
  40236d:	sbb    ebp,DWORD PTR [eax]
  40236f:	and    DWORD PTR [eax],eax
  402371:	add    BYTE PTR [edx],cl
  402373:	or     al,BYTE PTR [esi]
  402375:	jb     0x4023cf
  402377:	or     DWORD PTR [eax],eax
  402379:	jo     0x4023ea
  40237b:	and    al,BYTE PTR [eax]
  40237d:	add    BYTE PTR [edx],cl
  40237f:	adc    eax,DWORD PTR [ecx+edx*1]
  402382:	add    al,0x16
  402384:	outs   dx,DWORD PTR ds:[esi]
  402385:	and    eax,DWORD PTR [eax]
  402387:	add    BYTE PTR [edx],cl
  402389:	push   es
  40238a:	add    ch,BYTE PTR [edi+0x27]
  40238d:	add    BYTE PTR [eax],al
  40238f:	or     ch,BYTE PTR [edi+0x28]
  402392:	add    BYTE PTR [eax],al
  402394:	or     ah,BYTE PTR [esi]
  402396:	adc    DWORD PTR [edi+edx*1],eax
  402399:	outs   dx,DWORD PTR ds:[esi]
  40239a:	and    eax,DWORD PTR [eax]
  40239c:	add    BYTE PTR [edx],cl
  40239e:	push   es
  40239f:	add    ebp,DWORD PTR [edi+0x27]
  4023a2:	add    BYTE PTR [eax],al
  4023a4:	or     ch,BYTE PTR [edi+0x28]
  4023a7:	add    BYTE PTR [eax],al
  4023a9:	or     ah,BYTE PTR [esi]
  4023ab:	sub    ebp,DWORD PTR [ecx]
  4023ad:	sbb    ch,BYTE PTR [eax]
  4023af:	and    DWORD PTR [eax],eax
  4023b1:	add    BYTE PTR [edx],cl
  4023b3:	or     al,BYTE PTR [esi]
  4023b5:	jb     0x40240f
  4023b7:	or     DWORD PTR [eax],eax
  4023b9:	jo     0x40242a
  4023bb:	and    al,BYTE PTR [eax]
  4023bd:	add    BYTE PTR [edx],cl
  4023bf:	adc    eax,DWORD PTR ds:0x6f160511
  4023c5:	and    eax,DWORD PTR [eax]
  4023c7:	add    BYTE PTR [edx],cl
  4023c9:	push   es
  4023ca:	add    ebp,DWORD PTR [edi+0x27]
  4023cd:	add    BYTE PTR [eax],al
  4023cf:	or     ch,BYTE PTR [edi+0x28]
  4023d2:	add    BYTE PTR [eax],al
  4023d4:	or     ah,BYTE PTR [esi]
  4023d6:	add    eax,0x82806
  4023db:	add    BYTE PTR [esi],al
  4023dd:	push   es
  4023de:	jae    0x402409
  4023e0:	add    BYTE PTR [eax],al
  4023e2:	or     dl,BYTE PTR [ebx]
  4023e4:	push   es
  4023e5:	adc    DWORD PTR [esi],eax
  4023e7:	inc    BYTE PTR [esi]
  4023e9:	sub    al,BYTE PTR [eax]
  4023eb:	add    BYTE PTR [edx],cl
  4023ed:	jae    0x40241a
  4023ef:	add    BYTE PTR [eax],al
  4023f1:	or     dl,BYTE PTR [ecx]
  4023f3:	push   es
  4023f4:	inc    BYTE PTR [esi]
  4023f6:	sub    al,0x0
  4023f8:	add    BYTE PTR [edx],cl
  4023fa:	jae    0x402429
  4023fc:	add    BYTE PTR [eax],al
  4023fe:	or     dl,BYTE PTR [esi+edi*8]
  402401:	push   es
  402402:	or     DWORD PTR [eax],eax
  402404:	add    BYTE PTR [esi],al
  402406:	jae    0x402436
  402408:	add    BYTE PTR [eax],al
  40240a:	or     ch,BYTE PTR [eax]
  40240c:	add    DWORD PTR [eax],eax
  40240e:	add    BYTE PTR [ebx],ch
  402410:	adc    DWORD PTR [esi],eax
  402412:	inc    BYTE PTR [esi]
  402414:	xor    BYTE PTR [eax],al
  402416:	add    BYTE PTR [edx],cl
  402418:	jae    0x40244b
  40241a:	add    BYTE PTR [eax],al
  40241c:	or     dl,BYTE PTR [ecx]
  40241e:	push   es
  40241f:	inc    BYTE PTR [esi]
  402421:	xor    al,BYTE PTR [eax]
  402423:	add    BYTE PTR [edx],cl
  402425:	jae    0x402454
  402427:	add    BYTE PTR [eax],al
  402429:	or     dl,BYTE PTR [esi+edi*8]
  40242c:	push   es
  40242d:	or     al,BYTE PTR [eax]
  40242f:	add    BYTE PTR [esi],al
  402431:	jae    0x402466
  402433:	add    BYTE PTR [eax],al
  402435:	or     ch,BYTE PTR [eax]
  402437:	add    al,BYTE PTR [eax]
  402439:	add    BYTE PTR [ebx],ch
  40243b:	adc    DWORD PTR [esi],eax
  40243d:	inc    BYTE PTR [esi]
  40243f:	xor    al,0x0
  402441:	add    BYTE PTR [edx],cl
  402443:	jae    0x40247a
  402445:	add    BYTE PTR [eax],al
  402447:	or     dl,BYTE PTR [ecx]
  402449:	push   es
  40244a:	inc    BYTE PTR [esi]
  40244c:	add    BYTE PTR ss:[eax],al
  40244f:	or     dh,BYTE PTR [ebx+0x2d]
  402452:	add    BYTE PTR [eax],al
  402454:	or     dl,BYTE PTR [esi+edi*8]
  402457:	push   es
  402458:	or     eax,DWORD PTR [eax]
  40245a:	add    BYTE PTR [esi],al
  40245c:	jae    0x402495
  40245e:	add    BYTE PTR [eax],al
  402460:	or     ch,BYTE PTR [eax]
  402462:	add    eax,DWORD PTR [eax]
  402464:	add    BYTE PTR [ebx],ch
  402466:	jb     0x402480
  402468:	or     DWORD PTR [eax],eax
  40246a:	jo     0x402494
  40246c:	cmp    BYTE PTR [eax],al
  40246e:	add    BYTE PTR [edx],cl
  402470:	adc    DWORD PTR [esi],eax
  402472:	outs   dx,DWORD PTR ds:[esi]
  402473:	cmp    DWORD PTR [eax],eax
  402475:	add    BYTE PTR [edx],cl
  402477:	adc    DWORD PTR [esi],eax
  402479:	sub    al,BYTE PTR [eax]
  40247b:	add    BYTE PTR [ebx],dl
  40247d:	xor    BYTE PTR [ebx],al
  40247f:	add    BYTE PTR [ebp+0x0],ch
  402482:	add    BYTE PTR [eax],al
  402484:	add    eax,0x3110000
  402489:	jb     0x4024ed
  40248b:	or     DWORD PTR [eax],eax
  40248d:	jo     0x4024fe
  40248f:	and    al,BYTE PTR [eax]
  402491:	add    BYTE PTR [edx],cl
  402493:	sub    BYTE PTR [eax+eax*1],al
  402496:	add    BYTE PTR [ebx],ch
  402498:	or     al,BYTE PTR [esi]
  40249a:	sub    eax,0x62720328
  40249f:	or     DWORD PTR [eax],eax
  4024a1:	jo     0x402512
  4024a3:	cmp    eax,DWORD PTR [eax]
  4024a5:	add    BYTE PTR [edx],cl
  4024a7:	or     al,BYTE PTR [ebx]
  4024a9:	jb     0x402519
  4024ab:	or     DWORD PTR [eax],eax
  4024ad:	jo     0x40251e
  4024af:	cmp    al,0x0
  4024b1:	add    BYTE PTR [edx],cl
  4024b3:	je     0x4024ef
  4024b5:	add    BYTE PTR [eax],al
  4024b7:	add    DWORD PTR [ebx],ecx
  4024b9:	pop    es
  4024ba:	sub    al,0x8
  4024bc:	pop    es
  4024bd:	push   es
  4024be:	outs   dx,DWORD PTR ds:[esi]
  4024bf:	cmp    eax,0x260a0000
  4024c4:	add    esi,DWORD PTR [edx+0x7c]
  4024c7:	or     DWORD PTR [eax],eax
  4024c9:	jo     0x40253a
  4024cb:	add    BYTE PTR ds:[eax],al
  4024ce:	or     cl,BYTE PTR [eax+ecx*1]
  4024d1:	add    dl,BYTE PTR [esi]
  4024d3:	inc    BYTE PTR [ecx]
  4024d5:	or     eax,0x3f280312
  4024da:	add    BYTE PTR [eax],al
  4024dc:	or     ch,BYTE PTR [edi+0x40]
  4024df:	add    BYTE PTR [eax],al
  4024e1:	or     ch,BYTE PTR [edi+0x41]
  4024e4:	add    BYTE PTR [eax],al
  4024e6:	or     al,BYTE PTR [esi]
  4024e8:	outs   dx,DWORD PTR ds:[esi]
  4024e9:	and    al,0x0
  4024eb:	add    BYTE PTR [edx],cl
  4024ed:	or     BYTE PTR [edi+0x42],ch
  4024f0:	add    BYTE PTR [eax],al
  4024f2:	or     ah,BYTE PTR [esi]
  4024f4:	sub    al,BYTE PTR [esi+0x72]
  4024f7:	mov    cl,BYTE PTR [ecx]
  4024f9:	add    BYTE PTR [eax+0x28],dh
  4024fc:	adc    al,0x0
  4024fe:	add    BYTE PTR [edx],cl
  402500:	push   ss
  402501:	sub    BYTE PTR [esi],dl
  402503:	add    BYTE PTR [eax],al
  402505:	or     ch,BYTE PTR [edx]
  402507:	add    BYTE PTR [ebx],dl
  402509:	xor    BYTE PTR [ecx],al
  40250b:	add    BYTE PTR [eax+eax*1+0x0],cl
  40250f:	add    BYTE PTR [esi],al
  402511:	add    BYTE PTR [eax],al
  402513:	adc    DWORD PTR [edx+0x16],esi
  402516:	or     DWORD PTR [eax],eax
  402518:	jo     0x402524
  40251a:	adc    eax,0x436f030b
  40251f:	add    BYTE PTR [eax],al
  402521:	or     cl,BYTE PTR [eax+ecx*1]
  402524:	inc    ebp
  402525:	add    eax,DWORD PTR [eax]
  402527:	add    BYTE PTR [eax],al
  402529:	or     al,0x0
  40252b:	add    BYTE PTR [eax],al
  40252d:	add    al,BYTE PTR [eax]
  40252f:	add    BYTE PTR [eax],al
  402531:	push   ss
  402532:	add    BYTE PTR [eax],al
  402534:	add    BYTE PTR [ebx],ch
  402536:	sbb    al,0x72
  402538:	sahf   
  402539:	or     DWORD PTR [eax],eax
  40253b:	jo     0x402547
  40253d:	pop    ss
  40253e:	or     ebp,DWORD PTR [ebx]
  402540:	adc    dh,BYTE PTR [edx-0x54]
  402543:	or     DWORD PTR [eax],eax
  402545:	jo     0x402551
  402547:	sbb    BYTE PTR [ebx],cl
  402549:	sub    ecx,DWORD PTR [eax]
  40254b:	jb     0x40250d
  40254d:	or     DWORD PTR [eax],eax
  40254f:	jo     0x40255b
  402551:	sbb    DWORD PTR [ebx],ecx
  402553:	push   es
  402554:	sub    BYTE PTR [eax+eax*1],dl
  402557:	add    BYTE PTR [edx],cl
  402559:	pop    es
  40255a:	sub    BYTE PTR [esi],dl
  40255c:	add    BYTE PTR [eax],al
  40255e:	or     ch,BYTE PTR [edx]
  402560:	inc    esi
  402561:	jb     0x402533
  402563:	or     DWORD PTR [eax],eax
  402565:	jo     0x40258f
  402567:	adc    al,0x0
  402569:	add    BYTE PTR [edx],cl
  40256b:	adc    eax,0x1628
  402570:	or     ch,BYTE PTR [edx]
  402572:	push   ds
  402573:	add    ch,BYTE PTR [eax]
  402575:	inc    esp
  402576:	add    BYTE PTR [eax],al
  402578:	or     ch,BYTE PTR [edx]
  40257a:	xchg   BYTE PTR [edx],al
  40257c:	pop    ss
  40257d:	ss sbb al,0x72
  402580:	fimul  WORD PTR [ecx]
  402582:	add    BYTE PTR [eax+0xf],dh
  402585:	add    BYTE PTR [edx+0xa],dh
  402588:	or     al,BYTE PTR [eax]
  40258a:	jo     0x4025b4
  40258c:	dec    eax
  40258d:	add    BYTE PTR [eax],al
  40258f:	or     ch,BYTE PTR [eax]
  402591:	sbb    DWORD PTR [eax],eax
  402593:	add    BYTE PTR [edx],cl
  402595:	jae    0x4025e0
  402597:	add    BYTE PTR [eax],al
  402599:	or     bh,BYTE PTR [edx+0x2a]
  40259c:	inc    edx
  40259d:	push   ebx
  40259e:	dec    edx
  40259f:	inc    edx
  4025a0:	add    DWORD PTR [eax],eax
  4025a2:	add    DWORD PTR [eax],eax
  4025a4:	add    BYTE PTR [eax],al
  4025a6:	add    BYTE PTR [eax],al
  4025a8:	or     al,0x0
  4025aa:	add    BYTE PTR [eax],al
  4025ac:	jbe    0x4025e2
  4025ae:	xor    BYTE PTR cs:[esi],ch
  4025b1:	xor    esi,DWORD PTR [eax]
  4025b3:	xor    esi,DWORD PTR [ecx]
  4025b5:	cmp    DWORD PTR [eax],eax
  4025b7:	add    BYTE PTR [eax],al
  4025b9:	add    BYTE PTR ds:0x6c00,al
  4025bf:	add    BYTE PTR [eax+0x2300000a],al
  4025c5:	jle    0x4025c7
  4025c7:	add    ah,ch
  4025c9:	or     al,BYTE PTR [eax]
  4025cb:	add    ah,cl
  4025cd:	or     al,0x0
  4025cf:	add    BYTE PTR [ebx],ah
  4025d1:	push   ebx
  4025d2:	je     0x402646
  4025d4:	imul   ebp,DWORD PTR [esi+0x67],0x73
  4025db:	add    BYTE PTR [eax+0x10000017],bh
  4025e1:	or     al,BYTE PTR [eax]
  4025e3:	add    BYTE PTR [ebx],ah
  4025e5:	push   ebp
  4025e6:	push   ebx
  4025e7:	add    al,cl
  4025e9:	and    DWORD PTR [eax],eax
  4025eb:	add    BYTE PTR [eax],dl
  4025ed:	add    BYTE PTR [eax],al
  4025ef:	add    BYTE PTR [ebx],ah
  4025f1:	inc    edi
  4025f2:	push   ebp
  4025f3:	dec    ecx
  4025f4:	inc    esp
  4025f5:	add    BYTE PTR [eax],al
  4025f7:	add    al,bl
  4025f9:	and    DWORD PTR [eax],eax
  4025fb:	add    BYTE PTR [eax],dh
  4025fd:	push   es
  4025fe:	add    BYTE PTR [eax],al
  402600:	and    eax,DWORD PTR [edx+0x6c]
  402603:	outs   dx,DWORD PTR ds:[esi]
  402604:	bound  eax,QWORD PTR [eax]
  402606:	add    BYTE PTR [eax],al
  402608:	add    BYTE PTR [eax],al
  40260a:	add    BYTE PTR [eax],al
  40260c:	add    al,BYTE PTR [eax]
  40260e:	add    BYTE PTR [ecx],al
  402610:	push   edi
  402611:	cmp    eax,0x8090802
  402616:	add    BYTE PTR [eax],al
  402618:	add    dl,bh
  40261a:	and    eax,0x160033
  40261f:	add    BYTE PTR [ecx],al
  402621:	add    BYTE PTR [eax],al
  402623:	add    BYTE PTR [eax+eax*1+0x0],al
  402627:	add    BYTE PTR [ecx],cl
  402629:	add    BYTE PTR [eax],al
  40262b:	add    BYTE PTR [eax],bl
  40262d:	add    BYTE PTR [eax],al
  40262f:	add    BYTE PTR [edx],ch
  402631:	add    BYTE PTR [eax],al
  402633:	add    BYTE PTR [eax+eax*1],bh
  402636:	add    BYTE PTR [eax],al
  402638:	dec    ecx
  402639:	add    BYTE PTR [eax],al
  40263b:	add    BYTE PTR [eax],bl
  40263d:	add    BYTE PTR [eax],al
  40263f:	add    BYTE PTR [esi],dl
  402641:	add    BYTE PTR [eax],al
  402643:	add    BYTE PTR [eax],dl
  402645:	add    BYTE PTR [eax],al
  402647:	add    BYTE PTR [esi],al
  402649:	add    BYTE PTR [eax],al
  40264b:	add    BYTE PTR [eax],cl
  40264d:	add    BYTE PTR [eax],al
  40264f:	add    BYTE PTR [ecx],al
  402651:	add    BYTE PTR [eax],al
  402653:	add    BYTE PTR [esi],al
  402655:	add    BYTE PTR [eax],al
  402657:	add    BYTE PTR [eax+eax*1],al
  40265a:	add    BYTE PTR [eax],al
  40265c:	add    BYTE PTR [eax],al
  40265e:	or     al,BYTE PTR [eax]
  402660:	add    DWORD PTR [eax],eax
  402662:	add    BYTE PTR [eax],al
  402664:	add    BYTE PTR [eax],al
  402666:	push   es
  402667:	add    BYTE PTR [eax+0x6008900],dl
  40266d:	add    BYTE PTR [edi+0xa008900],dl
  402673:	add    ch,bh
  402675:	add    ah,ah
  402677:	add    BYTE PTR [edx],cl
  402679:	add    BYTE PTR [esi],ch
  40267b:	add    DWORD PTR [ecx],ebx
  40267d:	add    DWORD PTR [edx],ecx
  40267f:	add    BYTE PTR [ebx+0x1],dl
  402682:	in     al,0x0
  402684:	or     al,BYTE PTR [eax]
  402686:	jp     0x402689
  402688:	in     al,0x0
  40268a:	push   es
  40268b:	add    bl,dl
  40268d:	add    al,bh
  40268f:	add    cl,BYTE PTR [esi]
  402691:	add    BYTE PTR [edx+0x4],cl
  402694:	sbb    BYTE PTR [esi+ecx*1],al
  402697:	add    BYTE PTR [ebx+0x4],bh
  40269a:	pop    esp
  40269b:	add    al,0x6
  40269d:	add    BYTE PTR [ecx],ah
  40269f:	add    eax,0x60502
  4026a4:	cs add eax,0x60502
  4026aa:	inc    ecx
  4026ab:	add    eax,0x60502
  4026b0:	adc    eax,0x6050206
  4026b5:	add    BYTE PTR [edx+0x6],cl
  4026b8:	xor    BYTE PTR [esi],al
  4026ba:	push   es
  4026bb:	add    BYTE PTR [ebp+0x6],dh
  4026be:	arpl   WORD PTR [esi],ax
  4026c0:	push   es
  4026c1:	add    BYTE PTR [esi+eax*1+0x60663],cl
  4026c8:	test   eax,0x6066306
  4026cd:	add    al,cl
  4026cf:	push   es
  4026d0:	arpl   WORD PTR [esi],ax
  4026d2:	push   es
  4026d3:	add    cl,ah
  4026d5:	push   es
  4026d6:	arpl   WORD PTR [esi],ax
  4026d8:	push   es
  4026d9:	add    dl,bh
  4026db:	push   es
  4026dc:	arpl   WORD PTR [esi],ax
  4026de:	push   es
  4026df:	add    BYTE PTR ds:0x6066307,dl
  4026e5:	add    BYTE PTR [eax],dh
  4026e7:	pop    es
  4026e8:	arpl   WORD PTR [esi],ax
  4026ea:	push   es
  4026eb:	add    BYTE PTR [ecx+0x7],cl
  4026ee:	add    al,BYTE PTR ds:0x75d0006
  4026f4:	add    al,BYTE PTR ds:0x76b0006
  4026fa:	arpl   WORD PTR [esi],ax
  4026fc:	push   es
  4026fd:	add    BYTE PTR [edi+eax*1+0x60663],al
  402704:	mov    ah,0x7
  402706:	mov    eax,ds:0xc8006f07
  40270b:	pop    es
  40270c:	add    BYTE PTR [eax],al
  40270e:	push   es
  40270f:	add    bh,dh
  402711:	pop    es
  402712:	xlat   BYTE PTR ds:[ebx]
  402713:	pop    es
  402714:	push   es
  402715:	add    BYTE PTR [edi],dl
  402717:	or     bh,dl
  402719:	pop    es
  40271a:	push   es
  40271b:	add    BYTE PTR ds:0x6008908,dh
  402721:	add    BYTE PTR [edi+0x8],al
  402724:	mov    DWORD PTR [eax],eax
  402726:	push   es
  402727:	add    BYTE PTR [edx+0x8],bl
  40272a:	mov    DWORD PTR [eax],eax
  40272c:	push   es
  40272d:	add    BYTE PTR [eax+ecx*1+0x6b],bh
  402731:	or     BYTE PTR [edi+0x88900],al
  402737:	add    BYTE PTR [esi],al
  402739:	add    BYTE PTR [esi+0x1208ac08],dh
  40273f:	add    dl,al
  402741:	or     BYTE PTR [ecx-0x23ffedf9],ah
  402747:	or     BYTE PTR [ecx+0x29001607],ah
  40274d:	or     DWORD PTR [eax],ebx
  40274f:	add    al,0x9f
  402751:	add    BYTE PTR [ecx-0x5d000000],cl
  402757:	add    BYTE PTR [edx],bh
  402759:	or     DWORD PTR [eax],eax
  40275b:	add    BYTE PTR [esi],al
  40275d:	add    BYTE PTR [esi+0x9],cl
  402760:	mov    DWORD PTR [eax],eax
  402762:	or     al,BYTE PTR [eax]
  402764:	bound  ecx,QWORD PTR [ecx]
  402766:	in     al,0x0
  402768:	or     al,BYTE PTR [eax]
  40276a:	jnp    0x402775
  40276c:	in     al,0x0
  40276e:	or     al,BYTE PTR [eax]
  402770:	mov    al,ds:0x6011909
  402775:	add    ah,bl
  402777:	or     ecx,eax
  402779:	or     DWORD PTR [edx],ecx
  40277b:	add    ah,ch
  40277d:	or     DWORD PTR [ecx],ebx
  40277f:	add    DWORD PTR [edx],ecx
  402781:	add    dh,bh
  402783:	or     DWORD PTR [ecx],ebx
  402785:	add    DWORD PTR [edx],ecx
  402787:	add    BYTE PTR [eax],bh
  402789:	or     bl,BYTE PTR [ecx]
  40278b:	add    DWORD PTR [esi],eax
  40278d:	add    BYTE PTR [ecx+0xa0a5b0a],cl
  402793:	add    BYTE PTR [ebx+0x60aa00a],dh
  402799:	add    ch,dl
  40279b:	or     cl,BYTE PTR [ecx-0x12fffa00]
  4027a1:	or     cl,BYTE PTR [ecx-0x9fffa00]
  4027a7:	or     bl,BYTE PTR [ebx+0xa]
  4027aa:	or     al,BYTE PTR [eax]
  4027ac:	push   esp
  4027ad:	or     esp,esp
  4027af:	add    BYTE PTR [edx],bl
  4027b1:	add    BYTE PTR [ebx+0x60b870b],dl
  4027b7:	add    BYTE PTR [esi+0xa09c10b],bl
  4027bd:	add    BYTE PTR [ebx+0xa01190b],bh
  4027c3:	add    ch,ah
  4027c5:	or     ebx,DWORD PTR [ecx]
  4027c7:	add    DWORD PTR [esi],eax
  4027c9:	add    BYTE PTR [edx],al
  4027cb:	or     al,0x89
  4027cd:	add    BYTE PTR [edx],cl
  4027cf:	add    BYTE PTR [edx],dh
  4027d1:	or     al,0xe4
  4027d3:	add    BYTE PTR [esi],al
  4027d5:	add    BYTE PTR [edx+0xc],dl
  4027d8:	add    al,BYTE PTR ds:0xc650006
  4027de:	add    al,BYTE PTR ds:0xc7c0006
  4027e4:	add    al,BYTE PTR ds:0xc8d0006
  4027ea:	add    al,BYTE PTR ds:0xca50006
  4027f0:	add    al,BYTE PTR ds:0xcb80006
  4027f6:	mov    DWORD PTR [eax],eax
  4027f8:	push   es
  4027f9:	add    BYTE PTR [edi+0x890c],bh
  4027ff:	add    BYTE PTR [eax],al
  402801:	add    BYTE PTR [ecx],al
  402803:	add    BYTE PTR [eax],al
  402805:	add    BYTE PTR [eax],al
  402807:	add    BYTE PTR [ecx],al
  402809:	add    BYTE PTR [ecx],al
  40280b:	add    BYTE PTR [eax],al
  40280d:	add    BYTE PTR [eax],dl
  40280f:	add    BYTE PTR [eax+eax*1],dl
  402812:	sbb    al,0x0
  402814:	add    eax,0x1000100
  402819:	add    BYTE PTR [eax],al
  40281b:	add    DWORD PTR [eax],eax
  40281d:	add    BYTE PTR [edx],ah
  40281f:	add    BYTE PTR [edi],ah
  402821:	add    BYTE PTR [ecx],cl
  402823:	add    BYTE PTR [edx],al
  402825:	add    BYTE PTR ds:0x10018000,cl
  40282b:	add    BYTE PTR [eax+eax*1],dh
  40282e:	daa    
  40282f:	add    BYTE PTR ds:0xd001500,al
  402835:	add    BYTE PTR [eax+0x41000010],ah
  40283b:	add    BYTE PTR [edi],ah
  40283d:	add    BYTE PTR [eax],al
  40283f:	add    BYTE PTR [ecx],bl
  402841:	add    BYTE PTR ds:0x10a000,cl
  402847:	add    BYTE PTR [ebp+0x0],cl
  40284a:	daa    
  40284b:	add    BYTE PTR [eax],al
  40284d:	add    BYTE PTR [ecx],bl
  40284f:	add    BYTE PTR [edi],bl
  402851:	add    BYTE PTR [eax+0x5a000010],ah
  402857:	add    BYTE PTR [edi],ah
  402859:	add    BYTE PTR [eax],al
  40285b:	add    BYTE PTR [ecx],bl
  40285d:	add    BYTE PTR [eax+eax*1],ah
  402860:	add    BYTE PTR [eax],dl
  402862:	adc    BYTE PTR [eax],al
  402864:	imul   eax,DWORD PTR [eax],0x50027
  40286a:	sbb    DWORD PTR [eax],eax
  40286c:	sub    DWORD PTR [eax],eax
  40286e:	add    DWORD PTR [ecx],0x740010
  402874:	daa    
  402875:	add    BYTE PTR ds:0x2a001900,al
  40287b:	add    BYTE PTR [ecx-0x80],dl
  40287e:	pushf  
  40287f:	add    BYTE PTR [edx],cl
  402881:	add    BYTE PTR [esi],al
  402883:	push   es
  402884:	mov    eax,ds:0x56007101
  402889:	sub    BYTE PTR [ecx+0x56007401],0x80
  402890:	mov    bl,0x1
  402892:	je     0x402894
  402894:	push   esi
  402895:	cmp    BYTE PTR [esi+0x56007401],0x80
  40289c:	int    0x1
  40289e:	je     0x4028a0
  4028a0:	push   esi
  4028a1:	and    dl,0x1
  4028a4:	je     0x4028a6
  4028a6:	push   esi
  4028a7:	xor    bh,0x1
  4028aa:	je     0x4028ac
  4028ac:	push   esi
  4028ad:	or     BYTE PTR ds:0x56007402,0x80
  4028b4:	and    al,BYTE PTR [edx]
  4028b6:	je     0x4028b8
  4028b8:	push   esi
  4028b9:	xor    BYTE PTR [eax],0x2
  4028bc:	je     0x4028be
  4028be:	push   esi
  4028bf:	cmp    BYTE PTR [edx+eax*1],0x74
  4028c3:	add    BYTE PTR [esi-0x80],dl
  4028c6:	dec    ecx
  4028c7:	add    dh,BYTE PTR [eax+eax*1+0x56]
  4028cb:	sbb    BYTE PTR [edx+0x2],0x74
  4028cf:	add    BYTE PTR [esi-0x80],dl
  4028d2:	data16 add dh,BYTE PTR [eax+eax*1+0x56]
  4028d7:	xor    BYTE PTR [esi+0x2],0x74
  4028db:	add    BYTE PTR [esi-0x80],dl
  4028de:	test   DWORD PTR [edx],eax
  4028e0:	je     0x4028e2
  4028e2:	push   esi
  4028e3:	adc    BYTE PTR [ebp+0x56007402],0x80
  4028ea:	mov    eax,ds:0x56007402
  4028ef:	xor    BYTE PTR [edx+0x53007402],0x80
  4028f6:	inc    ecx
  4028f7:	add    BYTE PTR [edx],cl
  4028f9:	add    BYTE PTR [ebx-0x80],dl
  4028fc:	imul   eax,DWORD PTR [eax],0x8053000a
  402902:	dec    ebp
  402903:	add    BYTE PTR [edx],cl
  402905:	add    BYTE PTR [ebx-0x80],dl
  402908:	pop    edx
  402909:	add    BYTE PTR [edx],cl
  40290b:	add    BYTE PTR [eax+0x20],dl
  40290e:	add    BYTE PTR [eax],al
  402910:	add    BYTE PTR [eax],al
  402912:	xchg   ecx,eax
  402913:	add    BYTE PTR [ebx+0x1002600],ah
  402919:	add    BYTE PTR [eax+0x21],dh
  40291f:	add    BYTE PTR [ecx+0x2c00a800],dl
  402925:	add    BYTE PTR [edx],al
  402927:	add    ah,cl
  402929:	and    DWORD PTR [eax],eax
  40292b:	add    BYTE PTR [eax],al
  40292d:	add    BYTE PTR [ecx+0x3000ba00],dl
  402933:	add    BYTE PTR [edx],al
  402935:	add    ah,bh
  402937:	and    DWORD PTR [eax],eax
  402939:	add    BYTE PTR [eax],al
  40293b:	add    BYTE PTR [ecx+0x3400cc00],dl
  402941:	add    BYTE PTR [edx],al
  402943:	add    BYTE PTR [edx+eiz*1+0x0],ah
  40294a:	xchg   ecx,eax
  40294b:	add    BYTE PTR [edi],cl
  40294d:	add    DWORD PTR [ecx],edi
  40294f:	add    BYTE PTR [ebx],al
  402951:	add    BYTE PTR [edi+0x22],ch
  402957:	add    BYTE PTR [ecx+0x3f010f00],dl
  40295d:	add    BYTE PTR [eax+eax*1],al
  402960:	mov    esp,0x22
  402965:	add    BYTE PTR [ecx+0x46010f00],dl
  40296b:	add    BYTE PTR [esi],al
  40296d:	add    BYTE PTR [esp+0x0],bh
  402971:	add    BYTE PTR [eax],al
  402973:	add    BYTE PTR [ecx+0x4f013a00],dl
  402979:	add    BYTE PTR [edx],cl
  40297b:	add    ch,dh
  40297d:	and    al,0x0
  40297f:	add    BYTE PTR [eax],al
  402981:	add    BYTE PTR [ecx+0x56014400],dl
  402987:	add    BYTE PTR [eax+eax*1],cl
  40298a:	or     BYTE PTR ds:0x0,ah
  402990:	xchg   ecx,eax
  402991:	add    BYTE PTR [ebx+0x1],ch
  402994:	pop    ebp
  402995:	add    BYTE PTR [esi],cl
  402997:	add    BYTE PTR [eax+0x25],ah
  40299a:	add    BYTE PTR [eax],al
  40299c:	add    BYTE PTR [eax],al
  40299e:	xchg   ecx,eax
  40299f:	add    BYTE PTR [edi+0x10006501],cl
  4029a5:	add    BYTE PTR [edx+0x25],dh
  4029a8:	add    BYTE PTR [eax],al
  4029aa:	add    BYTE PTR [eax],al
  4029ac:	xchg   BYTE PTR [eax],bl
  4029ae:	fwait
  4029af:	add    DWORD PTR [ebp+0x0],ebp
  4029b2:	adc    al,BYTE PTR [eax]
  4029b4:	add    BYTE PTR [eax],al
  4029b6:	add    BYTE PTR [eax],al
  4029b8:	add    BYTE PTR [eax],al
  4029ba:	mov    BYTE PTR ds:0x22c02e1,0x12
  4029c1:	add    BYTE PTR [eax],al
  4029c3:	add    BYTE PTR [eax],al
  4029c5:	add    BYTE PTR [eax],al
  4029c7:	add    dh,al
  4029c9:	add    eax,0x23502e9
  4029ce:	push   ss
  4029cf:	add    BYTE PTR [eax],al
  4029d1:	add    BYTE PTR [eax],al
  4029d3:	add    BYTE PTR [eax],al
  4029d5:	add    dh,al
  4029d7:	add    eax,0x23b02f3
  4029dc:	pop    ss
  4029dd:	add    BYTE PTR [eax],al
  4029df:	add    BYTE PTR [eax],al
  4029e1:	add    BYTE PTR [eax],al
  4029e3:	add    dh,al
  4029e5:	add    eax,0x24002fd
  4029ea:	sbb    BYTE PTR [eax],al
  4029ec:	add    BYTE PTR [eax],al
  4029ee:	add    BYTE PTR [eax],al
  4029f0:	add    BYTE PTR [eax],al
  4029f2:	mov    BYTE PTR ds:0x247030c,0x1a
  4029f9:	add    BYTE PTR [eax],al
  4029fb:	add    BYTE PTR [eax],al
  4029fd:	add    BYTE PTR [eax],al
  4029ff:	add    dh,al
  402a01:	add    eax,0x240031b
  402a06:	sbb    eax,DWORD PTR [eax]
  402a08:	add    BYTE PTR [eax],al
  402a0a:	add    BYTE PTR [eax],al
  402a0c:	add    BYTE PTR [eax],al
  402a0e:	mov    BYTE PTR ds:0x247032f,0x1d
  402a15:	add    BYTE PTR [eax],al
  402a17:	add    BYTE PTR [eax],al
  402a19:	add    BYTE PTR [eax],al
  402a1b:	add    dh,al
  402a1d:	add    eax,0x2400343
  402a22:	push   ds
  402a23:	add    BYTE PTR [eax],al
  402a25:	add    BYTE PTR [eax],al
  402a27:	add    BYTE PTR [eax],al
  402a29:	add    dh,al
  402a2b:	add    eax,0x2470350
  402a30:	and    BYTE PTR [eax],al
  402a32:	add    BYTE PTR [eax],al
  402a34:	add    BYTE PTR [eax],al
  402a36:	add    BYTE PTR [eax],al
  402a38:	mov    BYTE PTR ds:0x24c035d,0x21
  402a3f:	add    BYTE PTR [eax],al
  402a41:	add    BYTE PTR [eax],al
  402a43:	add    BYTE PTR [eax],al
  402a45:	add    dh,al
  402a47:	add    eax,0x2520367
  402a4c:	and    al,BYTE PTR [eax]
  402a4e:	add    BYTE PTR [eax],al
  402a50:	add    BYTE PTR [eax],al
  402a52:	add    BYTE PTR [eax],al
  402a54:	mov    BYTE PTR ds:0x2570371,0x23
  402a5b:	add    BYTE PTR [eax],al
  402a5d:	add    BYTE PTR [eax],al
  402a5f:	add    BYTE PTR [eax],al
  402a61:	add    dh,al
  402a63:	add    eax,0x25d037c
  402a68:	and    al,0x0
  402a6a:	add    BYTE PTR [eax],al
  402a6c:	add    BYTE PTR [eax],al
  402a6e:	add    BYTE PTR [eax],al
  402a70:	mov    BYTE PTR ds:0x2620387,0x25
  402a77:	add    BYTE PTR [eax],al
  402a79:	add    BYTE PTR [eax],al
  402a7b:	add    BYTE PTR [eax],al
  402a7d:	add    dh,al
  402a7f:	add    eax,0x26c0397
  402a84:	sub    BYTE PTR [eax],al
  402a86:	add    BYTE PTR [eax],al
  402a88:	add    BYTE PTR [eax],al
  402a8a:	add    BYTE PTR [eax],al
  402a8c:	mov    BYTE PTR ds:0x27203a7,0x2a
  402a93:	add    BYTE PTR [eax],al
  402a95:	add    BYTE PTR [eax],al
  402a97:	add    BYTE PTR [eax],al
  402a99:	add    dh,al
  402a9b:	add    eax,0x27803b7
  402aa0:	sub    al,0x0
  402aa2:	add    BYTE PTR [eax],al
  402aa4:	add    BYTE PTR [eax],al
  402aa6:	add    BYTE PTR [eax],al
  402aa8:	mov    BYTE PTR ds:0x24703bf,0x2e
  402aaf:	add    BYTE PTR [eax],al
  402ab1:	add    BYTE PTR [eax],al
  402ab3:	add    BYTE PTR [eax],al
  402ab5:	add    dh,al
  402ab7:	add    eax,0x27e03c7
  402abc:	das    
  402abd:	add    BYTE PTR [eax],al
  402abf:	add    BYTE PTR [eax],al
  402ac1:	add    BYTE PTR [eax],al
  402ac3:	add    dh,al
  402ac5:	add    eax,0x28403d2
  402aca:	xor    BYTE PTR [eax],al
  402acc:	add    BYTE PTR [eax],al
  402ace:	add    BYTE PTR [eax],al
  402ad0:	add    BYTE PTR [eax],al
  402ad2:	mov    BYTE PTR ds:0x28803da,0x30
  402ad9:	add    BYTE PTR [eax],al
  402adb:	add    BYTE PTR [eax],al
  402add:	add    BYTE PTR [eax],al
  402adf:	add    dh,al
  402ae1:	add    eax,0x28f03df
  402ae6:	xor    al,BYTE PTR [eax]
  402ae8:	add    BYTE PTR [eax],al
  402aea:	add    BYTE PTR [eax],al
  402aec:	add    BYTE PTR [eax],al
  402aee:	mov    BYTE PTR ds:0x24703e4,0x34
  402af5:	add    BYTE PTR [eax],al
  402af7:	add    BYTE PTR [eax],al
  402af9:	add    BYTE PTR [eax],al
  402afb:	add    dh,al
  402afd:	add    eax,0x25703f2
  402b02:	xor    eax,0x0
  402b07:	add    BYTE PTR [eax],al
  402b09:	add    dh,al
  402b0b:	add    eax,0x2950456
  402b10:	add    BYTE PTR ss:[eax],al
  402b13:	add    BYTE PTR [eax],al
  402b15:	add    BYTE PTR [eax],al
  402b17:	add    dh,al
  402b19:	add    eax,0x29d0487
  402b1e:	cmp    BYTE PTR [eax],al
  402b20:	add    BYTE PTR [eax],al
  402b22:	add    BYTE PTR [eax],al
  402b24:	add    BYTE PTR [eax],al
  402b26:	mov    BYTE PTR ds:0x29d0490,0x3a
  402b2d:	add    BYTE PTR [eax],al
  402b2f:	add    BYTE PTR [eax],al
  402b31:	add    BYTE PTR [eax],al
  402b33:	add    dh,al
  402b35:	add    eax,0x2840499
  402b3a:	cmp    al,0x0
  402b3c:	add    BYTE PTR [eax],al
  402b3e:	add    BYTE PTR [eax],al
  402b40:	add    edx,DWORD PTR [eax]
  402b42:	xchg   BYTE PTR [eax],bl
  402b44:	fwait
  402b45:	add    DWORD PTR [ebp+0x0],ebp
  402b48:	cmp    al,0x0
  402b4a:	jp     0x402b71
  402b4c:	add    BYTE PTR [eax],al
  402b4e:	add    BYTE PTR [eax],al
  402b50:	xchg   esi,eax
  402b51:	add    BYTE PTR [eax+0x3c02a604],ah
  402b57:	add    BYTE PTR [eax],al
  402b59:	add    BYTE PTR [ecx],al
  402b5b:	add    BYTE PTR [eax+0x1000004],dh
  402b61:	add    BYTE PTR [ebp+0x1000004],dh
  402b67:	add    dl,al
  402b69:	add    al,0x0
  402b6b:	add    BYTE PTR [ecx],al
  402b6d:	add    dl,cl
  402b6f:	add    al,0x0
  402b71:	add    BYTE PTR [edx],al
  402b73:	add    dl,al
  402b75:	add    al,0x0
  402b77:	add    BYTE PTR [ecx],al
  402b79:	add    dl,cl
  402b7b:	add    al,0x0
  402b7d:	add    BYTE PTR [edx],al
  402b7f:	add    dl,al
  402b81:	add    al,0x0
  402b83:	add    BYTE PTR [ebx],al
  402b85:	add    al,dl
  402b87:	add    al,0x10
  402b89:	adc    BYTE PTR [eax+eax*1],al
  402b8c:	fld    DWORD PTR [eax+eax*1]
  402b8f:	add    BYTE PTR [ecx],al
  402b91:	add    bh,bl
  402b93:	add    al,0x0
  402b95:	add    BYTE PTR [edx],al
  402b97:	add    al,ch
  402b99:	add    al,0x0
  402b9b:	add    BYTE PTR [ecx],al
  402b9d:	add    cl,dh
  402b9f:	add    al,0x0
  402ba1:	add    BYTE PTR [edx],al
  402ba3:	add    al,bh
  402ba5:	add    al,0x0
  402ba7:	add    BYTE PTR [ecx],al
  402ba9:	add    cl,dh
  402bab:	add    al,0x0
  402bad:	add    BYTE PTR [edx],al
  402baf:	add    al,bh
  402bb1:	add    al,0x0
  402bb3:	add    BYTE PTR [ecx],al
  402bb5:	add    cl,dh
  402bb7:	add    al,0x0
  402bb9:	add    BYTE PTR [edx],al
  402bbb:	add    al,bh
  402bbd:	add    al,0x2
  402bbf:	and    BYTE PTR [ecx],al
  402bc1:	add    dl,bh
  402bc3:	add    al,0x0
  402bc5:	add    BYTE PTR [edx],al
  402bc7:	add    BYTE PTR [edi+0x5],cl
  402bca:	add    BYTE PTR [eax],al
  402bcc:	add    eax,DWORD PTR [eax]
  402bce:	pop    edx
  402bcf:	add    eax,0x40000
  402bd4:	pop    esi
  402bd5:	add    eax,0x10002
  402bda:	gs add eax,0x10000
  402be0:	imul   eax,DWORD PTR ds:0x12002,0xfffffffa
  402be7:	add    al,0x0
  402be9:	add    BYTE PTR [edx],al
  402beb:	add    BYTE PTR [eax+0x5],dh
  402bee:	add    BYTE PTR [eax],ah
  402bf0:	add    DWORD PTR [eax],eax
  402bf2:	jnp    0x402bf9
  402bf4:	add    ah,BYTE PTR [eax]
  402bf6:	add    DWORD PTR [eax],eax
  402bf8:	add    DWORD PTR ds:0x20000,0x4f
  402bff:	add    eax,0x12000
  402c04:	add    DWORD PTR ds:0x12002,0xffffff8a
  402c0b:	add    eax,0x20000
  402c10:	dec    edi
  402c11:	add    eax,0x12000
  402c16:	mov    al,BYTE PTR ds:0x10002
  402c1c:	xchg   edx,eax
  402c1d:	add    eax,0x10000
  402c22:	xchg   edx,eax
  402c23:	add    eax,0x10002
  402c28:	call   0x9a00:0x1000005
  402c2f:	add    eax,0x12002
  402c34:	mov    ds:0x2000005,eax
  402c39:	add    BYTE PTR [edi+0x3000205],ch
  402c3f:	add    BYTE PTR [ebx+0x1200005],bh
  402c45:	add    BYTE PTR [ebx+0x2000005],ah
  402c4b:	add    BYTE PTR [ebx+0x1200005],bh
  402c51:	add    cl,al
  402c53:	add    eax,0x20000
  402c58:	int3   
  402c59:	add    eax,0x10000
  402c5e:	xlat   BYTE PTR ds:[ebx]
  402c5f:	add    eax,0x20000
  402c64:	pop    esi
  402c65:	add    eax,0x12000
  402c6a:	cli    
  402c6b:	add    al,0x2
  402c6d:	and    BYTE PTR [ecx],al
  402c6f:	add    dl,bh
  402c71:	add    al,0x0
  402c73:	and    BYTE PTR [ecx],al
  402c75:	add    ah,bl
  402c77:	add    eax,0x22000
  402c7c:	call   0x1602c86
  402c81:	add    ah,bl
  402c83:	add    eax,0x20000
  402c88:	out    dx,eax
  402c89:	add    eax,0x12000
  402c8e:	fadd   QWORD PTR ds:0x10002
  402c94:	stc    
  402c95:	add    eax,0x10001
  402c9a:	pop    es
  402c9b:	push   es
  402c9c:	add    al,BYTE PTR [eax]
  402c9e:	add    al,BYTE PTR [eax]
  402ca0:	and    DWORD PTR [esi],eax
  402ca2:	add    DWORD PTR [eax],eax
  402ca4:	add    DWORD PTR [eax],eax
  402ca6:	and    DWORD PTR [esi],eax
  402ca8:	add    al,BYTE PTR [eax]
  402caa:	add    al,BYTE PTR [eax]
  402cac:	and    eax,0x1000106
  402cb1:	add    BYTE PTR [ecx],ah
  402cb3:	push   es
  402cb4:	add    DWORD PTR [eax],eax
  402cb6:	add    al,BYTE PTR [eax]
  402cb8:	and    eax,0x1000006
  402cbd:	add    BYTE PTR [eax],ch
  402cbf:	push   es
  402cc0:	push   ecx
  402cc1:	add    BYTE PTR [ebx+0x59006d01],bl
  402cc7:	add    BYTE PTR [ebx+0x6902ad01],bl
  402ccd:	add    BYTE PTR [ebx+0x71006d01],bl
  402cd3:	add    BYTE PTR [ebx+0x7902b701],bl
  402cd9:	add    BYTE PTR [ebx-0x7efd48ff],bl
  402cdf:	add    BYTE PTR [ebx-0x76fd48ff],bl
  402ce5:	add    BYTE PTR [ebx-0x6efd48ff],bl
  402ceb:	add    BYTE PTR [ebx-0x66fd48ff],bl
  402cf1:	add    BYTE PTR [ebx-0x5efd48ff],bl
  402cf7:	add    BYTE PTR [ebx-0x56fd48ff],bl
  402cfd:	add    BYTE PTR [ebx-0x4efd48ff],bl
  402d03:	add    BYTE PTR [ebx-0x46fd48ff],bl
  402d09:	add    BYTE PTR [ebx-0x3efd43ff],bl
  402d0f:	add    BYTE PTR [ebx-0x36fd48ff],bl
  402d15:	add    BYTE PTR [ebx-0x2efd48ff],bl
  402d1b:	add    BYTE PTR [ebx-0x26fd48ff],bl
  402d21:	add    BYTE PTR [ebx-0x16fd3eff],bl
  402d27:	add    BYTE PTR [ebx-0xefd38ff],bl
  402d2d:	add    BYTE PTR [ebx-0x6ff92ff],bl
  402d33:	add    BYTE PTR ds:0x1003408,bh
  402d39:	add    DWORD PTR [esi+0x8],ecx
  402d3c:	int3   
  402d3d:	add    cl,BYTE PTR [ecx]
  402d3f:	add    DWORD PTR [esi+0x8],esp
  402d42:	rol    BYTE PTR [edx],cl
  402d44:	adc    DWORD PTR [ecx],eax
  402d46:	or     DWORD PTR [eax],0xffffffd2
  402d49:	add    cl,BYTE PTR [ecx]
  402d4b:	add    DWORD PTR [edi+0x102e508],edx
  402d51:	add    DWORD PTR [ebp+0x2102ec08],esp
  402d57:	add    DWORD PTR [ebx+0x2902f208],edi
  402d5d:	add    edx,ecx
  402d5f:	or     bh,dh
  402d61:	add    ch,BYTE PTR [ecx]
  402d63:	add    edx,ebp
  402d65:	or     ch,bh
  402d67:	add    dh,BYTE PTR [ecx]
  402d69:	add    ecx,edi
  402d6b:	or     BYTE PTR [ebx],al
  402d6d:	add    ecx,DWORD PTR [ecx+0x0]
  402d70:	fwait
  402d71:	add    DWORD PTR [edi+0x47014902],esi
  402d77:	or     DWORD PTR [edi],eax
  402d79:	add    edx,DWORD PTR [ecx+0x1]
  402d7c:	pop    edx
  402d7d:	or     DWORD PTR [ebp+0x0],ebp
  402d80:	pop    ecx
  402d81:	add    DWORD PTR [ebp+0x21031a09],ecx
  402d87:	add    BYTE PTR [ecx+ecx*1+0xc0322],ch
  402d8e:	cmc    
  402d8f:	or     DWORD PTR [edx],esi
  402d91:	add    edi,DWORD PTR [ecx+0x1]
  402d94:	push   cs
  402d95:	or     bh,BYTE PTR [eax]
  402d97:	add    eax,DWORD PTR [ecx+0x3e0a1d01]
  402d9d:	add    edi,DWORD PTR [ecx+0x1]
  402da0:	sub    cl,BYTE PTR [edx]
  402da2:	inc    ebp
  402da3:	add    esp,DWORD PTR [ecx]
  402da5:	add    BYTE PTR [eax+0xa],al
  402da8:	dec    edx
  402da9:	add    edi,DWORD PTR [ecx+0x1]
  402dac:	dec    edi
  402dad:	or     dl,BYTE PTR [ecx+0x3]
  402db0:	sbb    DWORD PTR [eax],eax
  402db2:	fwait
  402db3:	add    DWORD PTR [edx+0x3],ebx
  402db6:	sbb    DWORD PTR [eax],eax
  402db8:	(bad)  
  402db9:	or     ah,BYTE PTR [eax+0x3]
  402dbc:	adc    al,0x0
  402dbe:	fwait
  402dbf:	add    DWORD PTR [edi+0x3],edi
  402dc2:	sbb    DWORD PTR [eax],eax
  402dc4:	fmul   QWORD PTR [edx]
  402dc6:	test   DWORD PTR [ebx],eax
  402dc8:	sbb    al,0x0
  402dca:	fwait
  402dcb:	add    DWORD PTR [edi+0x3],edi
  402dce:	and    al,0x0
  402dd0:	fwait
  402dd1:	add    DWORD PTR [edi+0x3],edi
  402dd4:	mov    cl,0x1
  402dd6:	or     al,0xb
  402dd8:	sahf   
  402dd9:	add    ebx,DWORD PTR [ecx]
  402ddb:	add    BYTE PTR [ebx+ecx*1],bl
  402dde:	ret    0x2c03
  402de1:	add    BYTE PTR [ebx+0x19037f01],bl
  402de7:	add    BYTE PTR [edx],ch
  402de9:	or     eax,DWORD PTR [ebp-0x64ffcbfd]
  402def:	add    DWORD PTR [edi+0x3],edi
  402df2:	sbb    DWORD PTR [eax],eax
  402df4:	cmp    ecx,DWORD PTR [ebx]
  402df6:	stc    
  402df7:	add    edi,DWORD PTR [eax+eax*1]
  402dfa:	fwait
  402dfb:	add    DWORD PTR [edi+0x3],edi
  402dfe:	sbb    DWORD PTR [eax],eax
  402e00:	inc    esi
  402e01:	or     eax,DWORD PTR [ebp-0x64ffbbfd]
  402e07:	add    DWORD PTR [edi+0x3],edi
  402e0a:	pop    ecx
  402e0b:	add    DWORD PTR [edx+0xb],esp
  402e0e:	xor    BYTE PTR [ecx+edi*4],al
  402e11:	add    DWORD PTR [esi+0xb],esi
  402e14:	aaa    
  402e15:	add    al,0xc1
  402e17:	add    DWORD PTR [ebx+ecx*1+0x210453],ebp
  402e1e:	(bad)  
  402e1f:	or     esp,DWORD PTR [esi+0x4]
  402e22:	and    DWORD PTR [eax],eax
  402e24:	aam    0xb
  402e26:	ds add edx,ecx
  402e29:	add    DWORD PTR [edi+0xa],ecx
  402e2c:	push   ecx
  402e2d:	add    esp,DWORD PTR [ecx]
  402e2f:	add    dl,dh
  402e31:	or     ebp,DWORD PTR [ebp+0x4]
  402e34:	loope  0x402e37
  402e36:	or     cl,BYTE PTR [ebx+eax*1]
  402e39:	add    eax,DWORD PTR [ecx]
  402e3b:	add    DWORD PTR [ebx],edx
  402e3d:	or     al,0x3
  402e3f:	add    ebx,ecx
  402e41:	add    DWORD PTR [ebx],ebx
  402e43:	or     al,0xb7
  402e45:	add    al,BYTE PTR [ecx+0x510c2501]
  402e4b:	add    ebp,DWORD PTR [ecx]
  402e4d:	add    BYTE PTR [edi+0xc],al
  402e50:	add    DWORD PTR [ecx+ecx*1],0x6d019b00
  402e57:	add    cl,dh
  402e59:	add    DWORD PTR [ebx-0x6ff92ff],ebx
  402e5f:	add    DWORD PTR [ebx+0x904b901],ebx
  402e65:	add    bl,BYTE PTR [ebx+0x19054701]
  402e6b:	add    cl,BYTE PTR [edx]
  402e6d:	or     al,0x4e
  402e6f:	add    eax,0x19b0221
  402e74:	mov    bh,0x2
  402e76:	push   cs
  402e77:	add    BYTE PTR [eax+eax*1],al
  402e7a:	or     eax,0xc000a00
  402e7f:	add    BYTE PTR [eax+0x0],bh
  402e82:	or     al,BYTE PTR [eax]
  402e84:	adc    BYTE PTR [eax],al
  402e86:	add    DWORD PTR [eax],0x14000a
  402e8c:	mov    al,BYTE PTR [eax]
  402e8e:	or     al,BYTE PTR [eax]
  402e90:	sbb    BYTE PTR [eax],al
  402e92:	xchg   ebx,eax
  402e93:	add    BYTE PTR [edx],cl
  402e95:	add    BYTE PTR [eax+eax*1],bl
  402e98:	pushf  
  402e99:	add    BYTE PTR [edx],cl
  402e9b:	add    BYTE PTR [eax],ah
  402e9d:	add    BYTE PTR [ebp+0x24000a00],ah
  402ea3:	add    BYTE PTR [esi+0x25000200],ch
  402ea9:	add    BYTE PTR [ebx+0x28000a02],ch
  402eaf:	add    BYTE PTR [edi+0x2c000a00],dh
  402eb5:	add    al,al
  402eb7:	add    BYTE PTR [edx],cl
  402eb9:	add    BYTE PTR [eax],dh
  402ebb:	add    cl,cl
  402ebd:	add    BYTE PTR [edx],cl
  402ebf:	add    BYTE PTR [eax+eax*1],dh
  402ec2:	js     0x402ec4
  402ec4:	or     al,BYTE PTR [eax]
  402ec6:	cmp    BYTE PTR [eax],al
  402ec8:	js     0x402eca
  402eca:	or     al,BYTE PTR [eax]
  402ecc:	cmp    al,0x0
  402ece:	rol    BYTE PTR [eax],cl
  402ed0:	or     al,BYTE PTR [eax]
  402ed2:	inc    eax
  402ed3:	add    bl,bl
  402ed5:	add    BYTE PTR [edx],cl
  402ed7:	add    BYTE PTR [eax+eax*1-0x1c],al
  402edb:	add    BYTE PTR [edx],cl
  402edd:	add    BYTE PTR [eax+0x0],cl
  402ee0:	in     eax,dx
  402ee1:	add    BYTE PTR [edx],cl
  402ee3:	add    BYTE PTR [eax+eax*1-0xa],cl
  402ee7:	add    BYTE PTR [edx],cl
  402ee9:	add    BYTE PTR [eax+0x0],dl
  402eec:	inc    DWORD PTR [eax]
  402eee:	push   cs
  402eef:	add    BYTE PTR [eax+eax*1+0x8],dl
  402ef3:	add    DWORD PTR [esi],ecx
  402ef5:	add    BYTE PTR [eax+0x0],bl
  402ef8:	push   ecx
  402ef9:	add    DWORD PTR [esi],ecx
  402efb:	add    BYTE PTR [eax+eax*1-0x66],bl
  402eff:	add    DWORD PTR [esi],ecx
  402f01:	add    BYTE PTR [eax+0x0],ah
  402f04:	jecxz  0x402f07
  402f06:	add    BYTE PTR cs:[ebx],dh
  402f09:	add    BYTE PTR [eax+0x3b002e05],ch
  402f0f:	add    BYTE PTR [eax-0x64ffd1fb],ch
  402f15:	add    BYTE PTR [edi],cl
  402f17:	push   es
  402f18:	add    BYTE PTR cs:[ebx],ah
  402f1b:	add    BYTE PTR [ebx+0x5],dl
  402f1e:	add    BYTE PTR cs:[ebx],ch
  402f21:	add    BYTE PTR [ebp+0x43002e05],bl
  402f27:	add    BYTE PTR [eax+0x4b002e05],ch
  402f2d:	add    BYTE PTR [ebp+0x53002e05],bl
  402f33:	add    BYTE PTR [esi+0x5b002e05],ch
  402f39:	add    BYTE PTR [eax+0x6b002e05],ch
  402f3f:	add    BYTE PTR [eax+0x73002e05],ch
  402f45:	add    dh,al
  402f47:	add    eax,0x83002e
  402f4c:	lock add eax,0x8b002e
  402f52:	std    
  402f53:	add    eax,0x93002e
  402f58:	push   es
  402f59:	push   es
  402f5a:	mov    ds:0xc0023300,eax
  402f5f:	add    al,0xa3
  402f61:	add    BYTE PTR [ebx+0x0],dh
  402f64:	pop    DWORD PTR [ebx+eax*8]
  402f67:	add    BYTE PTR [ebx],dh
  402f69:	add    al,al
  402f6b:	add    al,0xc3
  402f6d:	add    BYTE PTR [ebx+0x0],dh
  402f70:	leave  
  402f71:	add    al,0xe3
  402f73:	add    BYTE PTR [ebx+0x0],dh
  402f76:	repz add al,0xe3
  402f79:	add    BYTE PTR [ebx],dh
  402f7b:	add    al,al
  402f7d:	add    al,0x3
  402f7f:	add    DWORD PTR [ebx+0x0],esi
  402f82:	sbb    eax,0x3b010305
  402f87:	add    al,BYTE PTR [ecx-0x4cffdb00]
  402f8d:	add    dh,BYTE PTR [ecx]
  402f8f:	add    BYTE PTR [ebx-0x4cffcafe],dh
  402f95:	add    dh,BYTE PTR [edi]
  402f97:	add    BYTE PTR [ebx-0x4cffc4fe],dh
  402f9d:	add    bh,BYTE PTR ds:0x4102b300
  402fa3:	add    BYTE PTR [ebx-0x4cffb4fe],dh
  402fa9:	add    dl,BYTE PTR [ecx+0x0]
  402fac:	mov    bl,0x2
  402fae:	push   ebp
  402faf:	add    BYTE PTR [ebx-0x4cffa2fe],dh
  402fb5:	add    bl,BYTE PTR [edi+0x0]
  402fb8:	mov    bl,0x2
  402fba:	popa   
  402fbb:	add    BYTE PTR [ebx-0x4aff9cfe],dh
  402fc1:	add    ah,BYTE PTR [ebp+0x0]
  402fc4:	mov    bl,0x2
  402fc6:	imul   eax,DWORD PTR [eax],0x2d702b3
  402fcc:	loope  0x402fd0
  402fce:	or     al,0x3
  402fd0:	cmp    eax,0x87047404
  402fd5:	add    al,0x29
  402fd7:	add    ebp,DWORD PTR [esi+0x3]
  402fda:	mov    WORD PTR [ebx],es
  402fdc:	xchg   ebp,eax
  402fdd:	add    edx,ecx
  402fdf:	add    esp,ebx
  402fe1:	add    ecx,DWORD PTR [eax]
  402fe3:	add    al,0x1a
  402fe5:	add    al,0x4
  402fe7:	add    BYTE PTR [eax],0x0
  402fea:	add    DWORD PTR [eax],eax
	...
  402ff8:	sbb    al,0x0
  402ffa:	add    BYTE PTR [eax],al
  402ffc:	add    al,0x0
	...
  403006:	add    BYTE PTR [eax],al
  403008:	add    DWORD PTR [eax],eax
  40300a:	add    BYTE PTR [eax],0x0
  40300d:	add    BYTE PTR [eax],al
  40300f:	add    bh,bh
  403011:	add    bh,bh
  403013:	add    bh,bh
  403015:	add    bh,bh
  403017:	add    BYTE PTR [eax],al
  403019:	add    al,BYTE PTR [eax]
  40301b:	add    BYTE PTR [eax],al
  40301d:	add    ah,bl
  40301f:	add    BYTE PTR [eax],al
  403021:	add    BYTE PTR [eax],al
  403023:	add    BYTE PTR [ecx],al
  403025:	add    BYTE PTR [ecx],al
	...
  40302f:	add    BYTE PTR [eax],al
  403031:	add    bl,bh
  403033:	add    eax,DWORD PTR [eax]
  403035:	add    BYTE PTR [eax],al
  403037:	add    BYTE PTR [eax+eax*1],al
	...
  403042:	add    BYTE PTR [eax],al
  403044:	add    DWORD PTR [eax],eax
  403046:	mov    DWORD PTR [eax],eax
  403048:	add    BYTE PTR [eax],al
  40304a:	add    BYTE PTR [eax],al
  40304c:	add    DWORD PTR [eax],eax
  40304e:	add    DWORD PTR [eax],eax
	...
  403058:	add    BYTE PTR [eax],al
  40305a:	push   es
  40305b:	or     DWORD PTR [eax],eax
  40305d:	add    BYTE PTR [eax],al
  40305f:	add    BYTE PTR [eax+eax*1],al
	...
  40306a:	add    BYTE PTR [eax],al
  40306c:	add    DWORD PTR [eax],eax
  40306e:	jnp    0x40307b
  403070:	add    BYTE PTR [eax],al
  403072:	add    BYTE PTR [eax],al
  403074:	pop    edi
  403075:	add    BYTE PTR [edi-0x12ffa0fd],dh
  40307b:	add    ebx,DWORD PTR [edi+0x0]
  40307e:	and    al,0x4
  403080:	jne    0x403082
  403082:	pusha  
  403083:	add    al,0x0
  403085:	add    BYTE PTR [eax],al
  403087:	add    BYTE PTR [eax],al
  403089:	cmp    al,0x4d
  40308b:	outs   dx,DWORD PTR ds:[esi]
  40308c:	fs jne 0x4030fb
  40308f:	gs add BYTE PTR ds:[edi+ebp*2+0x61],dh
  403095:	jae    0x40310b
  403097:	cs gs js 0x403100
  40309b:	add    BYTE PTR [eax+0x72],dl
  40309e:	outs   dx,DWORD PTR ds:[esi]
  40309f:	addr16 jb 0x403103
  4030a2:	ins    DWORD PTR es:[edi],dx
  4030a3:	add    BYTE PTR [edi+ebp*2+0x61],dh
  4030a7:	jae    0x40311d
  4030a9:	add    BYTE PTR [ebx+0x54],dl
  4030ac:	inc    edi
  4030ad:	dec    ebp
  4030ae:	add    BYTE PTR [ebx+0x68],dl
  4030b1:	gs ins BYTE PTR es:[edi],dx
  4030b3:	ins    BYTE PTR es:[edi],dx
  4030b4:	dec    eax
  4030b5:	gs ins BYTE PTR es:[edi],dx
  4030b7:	jo     0x40311e
  4030b9:	jb     0x40312e
  4030bb:	add    BYTE PTR [ebx+0x68],dl
  4030be:	gs ins BYTE PTR es:[edi],dx
  4030c0:	ins    BYTE PTR es:[edi],dx
  4030c1:	dec    ecx
  4030c2:	dec    ecx
  4030c3:	inc    esp
  4030c4:	inc    edi
  4030c5:	jne    0x403130
  4030c7:	add    BYTE PTR fs:[ecx+0x53],cl
  4030cb:	push   0x4c6c6c65
  4030d0:	imul   ebp,DWORD PTR [esi+0x6b],0x50490057
  4030d7:	gs jb  0x40314d
  4030da:	imul   esi,DWORD PTR [ebx+0x74],0x656c6946
  4030e1:	add    BYTE PTR [ecx+0x50],cl
  4030e4:	jb     0x403155
  4030e6:	jo     0x40314d
  4030e8:	jb     0x40315e
  4030ea:	jns    0x40313f
  4030ec:	je     0x40315d
  4030ee:	jb     0x403155
  4030f0:	add    BYTE PTR [ebx+0x53],al
  4030f3:	push   0x4c6c6c65
  4030f8:	imul   ebp,DWORD PTR [esi+0x6b],0x72724500
  4030ff:	outs   dx,DWORD PTR ds:[esi]
  403100:	jb     0x40314a
  403102:	gs ins BYTE PTR es:[edi],dx
  403104:	jo     0x40316b
  403106:	jb     0x403108
  403108:	ins    DWORD PTR es:[edi],dx
  403109:	jae    0x40316e
  40310b:	outs   dx,DWORD PTR ds:[esi]
  40310c:	jb     0x40317a
  40310e:	imul   esp,DWORD PTR [edx+0x0],0x74737953
  403115:	gs ins DWORD PTR es:[edi],dx
  403117:	add    BYTE PTR [edi+0x62],cl
  40311a:	push   0x65
  40311c:	arpl   WORD PTR [eax+eax*1+0x45],si
  403120:	outs   dx,BYTE PTR ds:[esi]
  403121:	jne    0x403190
  403123:	add    BYTE PTR [ecx+0x50],al
  403126:	push   eax
  403127:	pop    edi
  403128:	dec    ecx
  403129:	inc    esp
  40312a:	add    BYTE PTR [ebp+0x61],cl
  40312d:	imul   ebp,DWORD PTR [esi+0x0],0x6e697250
  403134:	je     0x40317f
  403136:	outs   dx,BYTE PTR ds:[esi]
  403137:	jae    0x4031ad
  403139:	jb     0x4031b0
  40313b:	arpl   WORD PTR [ecx+ebp*2+0x6f],si
  40313f:	outs   dx,BYTE PTR ds:[esi]
  403140:	jae    0x403142
  403142:	push   esp
  403143:	jb     0x4031be
  403145:	inc    ebx
  403146:	jb     0x4031ad
  403148:	popa   
  403149:	je     0x4031b0
  40314b:	push   ebx
  40314c:	push   0x6374726f
  403151:	jne    0x4031c7
  403153:	add    BYTE PTR [ecx+0x6e],cl
  403156:	jae    0x4031cc
  403158:	popa   
  403159:	ins    BYTE PTR es:[edi],dx
  40315a:	ins    BYTE PTR es:[edi],dx
  40315b:	push   ebx
  40315c:	push   0x6374726f
  403161:	jne    0x4031d7
  403163:	add    BYTE PTR [edi+0x69],dl
  403166:	outs   dx,BYTE PTR ds:[esi]
  403167:	outs   dx,DWORD PTR fs:[esi]
  403169:	ja     0x4031de
  40316b:	add    BYTE PTR [edi+0x69],dl
  40316e:	outs   dx,BYTE PTR ds:[esi]
  40316f:	outs   dx,DWORD PTR fs:[esi]
  403171:	ja     0x4031e6
  403173:	cs push ebp
  403175:	dec    ecx
  403176:	cs dec esi
  403178:	outs   dx,DWORD PTR ds:[esi]
  403179:	je     0x4031e4
  40317b:	imul   sp,WORD PTR [ebx+0x61],0x6974
  403181:	outs   dx,DWORD PTR ds:[esi]
  403182:	outs   dx,BYTE PTR ds:[esi]
  403183:	jae    0x403185
  403185:	push   esp
  403186:	outs   dx,DWORD PTR ds:[esi]
  403187:	popa   
  403188:	jae    0x4031fe
  40318a:	dec    esi
  40318b:	outs   dx,DWORD PTR ds:[esi]
  40318c:	je     0x4031f7
  40318e:	imul   sp,WORD PTR [ebx+0x61],0x6974
  403194:	outs   dx,DWORD PTR ds:[esi]
  403195:	outs   dx,BYTE PTR ds:[esi]
  403196:	add    BYTE PTR [ebx+0x68],dl
  403199:	outs   dx,DWORD PTR ds:[esi]
  40319a:	ja     0x4031f0
  40319c:	outs   dx,DWORD PTR ds:[esi]
  40319d:	popa   
  40319e:	jae    0x403214
  4031a0:	add    BYTE PTR [edi+0x69],dl
  4031a3:	outs   dx,BYTE PTR ds:[esi]
  4031a4:	outs   dx,DWORD PTR fs:[esi]
  4031a6:	ja     0x40321b
  4031a8:	cs inc esp
  4031aa:	popa   
  4031ab:	je     0x40320e
  4031ad:	cs pop eax
  4031af:	ins    DWORD PTR es:[edi],dx
  4031b0:	ins    BYTE PTR es:[edi],dx
  4031b1:	cs inc esp
  4031b3:	outs   dx,DWORD PTR ds:[esi]
  4031b4:	ins    DWORD PTR es:[edi],dx
  4031b5:	add    BYTE PTR [eax+0x6d],bl
  4031b8:	ins    BYTE PTR es:[edi],dx
  4031b9:	inc    esp
  4031ba:	outs   dx,DWORD PTR ds:[esi]
  4031bb:	arpl   WORD PTR [ebp+0x6d],si
  4031be:	outs   dx,BYTE PTR gs:[esi]
  4031c0:	je     0x4031c2
  4031c2:	push   ebx
  4031c3:	gs je  0x403219
  4031c6:	imul   ebp,DWORD PTR [ebp+eiz*2+0x6e],0x6f540074
  4031ce:	popa   
  4031cf:	jae    0x403245
  4031d1:	inc    ecx
  4031d2:	arpl   WORD PTR [ecx+ebp*2+0x76],si
  4031d6:	popa   
  4031d7:	je     0x40323e
  4031d9:	add    BYTE PTR fs:[edi+ebp*2+0x61],dl
  4031de:	jae    0x403254
  4031e0:	inc    esp
  4031e1:	imul   esi,DWORD PTR [ebx+0x6d],0x65737369
  4031e8:	fs inc ebp
  4031ea:	jbe    0x403251
  4031ec:	outs   dx,BYTE PTR ds:[esi]
  4031ed:	je     0x403230
  4031ef:	jb     0x403258
  4031f1:	jae    0x4031f3
  4031f3:	push   esp
  4031f4:	outs   dx,DWORD PTR ds:[esi]
  4031f5:	popa   
  4031f6:	jae    0x40326c
  4031f8:	inc    esp
  4031f9:	imul   esi,DWORD PTR [ebx+0x6d],0x65737369
  403200:	add    BYTE PTR fs:[edi+ebp*2+0x61],dl
  403205:	jae    0x40327b
  403207:	inc    esi
  403208:	popa   
  403209:	imul   ebp,DWORD PTR [ebp+eiz*2+0x64],0x6e657645
  403211:	je     0x403254
  403213:	jb     0x40327c
  403215:	jae    0x403217
  403217:	push   esp
  403218:	outs   dx,DWORD PTR ds:[esi]
  403219:	popa   
  40321a:	jae    0x403290
  40321c:	inc    esi
  40321d:	popa   
  40321e:	imul   ebp,DWORD PTR [ebp+eiz*2+0x64],0x74632e00
  403226:	outs   dx,DWORD PTR ds:[esi]
  403227:	jb     0x403229
  403229:	jbe    0x40328c
  40322b:	ins    BYTE PTR es:[edi],dx
  40322c:	jne    0x403293
  40322e:	pop    edi
  40322f:	pop    edi
  403230:	add    BYTE PTR [ebx+0x54],dl
  403233:	inc    edi
  403234:	dec    ebp
  403235:	pop    edi
  403236:	push   edx
  403237:	inc    ebp
  403238:	inc    ecx
  403239:	inc    esp
  40323a:	add    BYTE PTR [ebx+0x54],dl
  40323d:	inc    edi
  40323e:	dec    ebp
  40323f:	pop    edi
  403240:	push   edi
  403241:	push   edx
  403242:	dec    ecx
  403243:	push   esp
  403244:	inc    ebp
  403245:	add    BYTE PTR [ebx+0x54],dl
  403248:	inc    edi
  403249:	dec    ebp
  40324a:	pop    edi
  40324b:	push   edx
  40324c:	inc    ebp
  40324d:	inc    ecx
  40324e:	inc    esp
  40324f:	push   edi
  403250:	push   edx
  403251:	dec    ecx
  403252:	push   esp
  403253:	inc    ebp
  403254:	add    BYTE PTR [ebx+0x54],dl
  403257:	inc    edi
  403258:	dec    ebp
  403259:	pop    edi
  40325a:	push   ebx
  40325b:	dec    eax
  40325c:	inc    ecx
  40325d:	push   edx
  40325e:	inc    ebp
  40325f:	pop    edi
  403260:	inc    esp
  403261:	inc    ebp
  403262:	dec    esi
  403263:	pop    ecx
  403264:	pop    edi
  403265:	dec    esi
  403266:	dec    edi
  403267:	dec    esi
  403268:	inc    ebp
  403269:	add    BYTE PTR [ebx+0x54],dl
  40326c:	inc    edi
  40326d:	dec    ebp
  40326e:	pop    edi
  40326f:	push   ebx
  403270:	dec    eax
  403271:	inc    ecx
  403272:	push   edx
  403273:	inc    ebp
  403274:	pop    edi
  403275:	inc    esp
  403276:	inc    ebp
  403277:	dec    esi
  403278:	pop    ecx
  403279:	pop    edi
  40327a:	push   edx
  40327b:	inc    ebp
  40327c:	inc    ecx
  40327d:	inc    esp
  40327e:	add    BYTE PTR [ebx+0x54],dl
  403281:	inc    edi
  403282:	dec    ebp
  403283:	pop    edi
  403284:	push   ebx
  403285:	dec    eax
  403286:	inc    ecx
  403287:	push   edx
  403288:	inc    ebp
  403289:	pop    edi
  40328a:	inc    esp
  40328b:	inc    ebp
  40328c:	dec    esi
  40328d:	pop    ecx
  40328e:	pop    edi
  40328f:	push   edi
  403290:	push   edx
  403291:	dec    ecx
  403292:	push   esp
  403293:	inc    ebp
  403294:	add    BYTE PTR [ebx+0x54],dl
  403297:	inc    edi
  403298:	dec    ebp
  403299:	pop    edi
  40329a:	push   ebx
  40329b:	dec    eax
  40329c:	inc    ecx
  40329d:	push   edx
  40329e:	inc    ebp
  40329f:	pop    edi
  4032a0:	inc    ebp
  4032a1:	pop    eax
  4032a2:	inc    ebx
  4032a3:	dec    esp
  4032a4:	push   ebp
  4032a5:	push   ebx
  4032a6:	dec    ecx
  4032a7:	push   esi
  4032a8:	inc    ebp
  4032a9:	add    BYTE PTR [ebx+0x54],dl
  4032ac:	inc    edi
  4032ad:	dec    ebp
  4032ae:	pop    edi
  4032af:	push   eax
  4032b0:	push   edx
  4032b1:	dec    ecx
  4032b2:	dec    edi
  4032b3:	push   edx
  4032b4:	dec    ecx
  4032b5:	push   esp
  4032b6:	pop    ecx
  4032b7:	add    BYTE PTR [ebx+0x54],dl
  4032ba:	inc    edi
  4032bb:	dec    ebp
  4032bc:	pop    edi
  4032bd:	inc    ebx
  4032be:	push   edx
  4032bf:	inc    ebp
  4032c0:	inc    ecx
  4032c1:	push   esp
  4032c2:	inc    ebp
  4032c3:	add    BYTE PTR [ebx+0x54],dl
  4032c6:	inc    edi
  4032c7:	dec    ebp
  4032c8:	pop    edi
  4032c9:	inc    ebx
  4032ca:	dec    edi
  4032cb:	dec    esi
  4032cc:	push   esi
  4032cd:	inc    ebp
  4032ce:	push   edx
  4032cf:	push   esp
  4032d0:	add    BYTE PTR [ebx+0x54],dl
  4032d3:	inc    edi
  4032d4:	dec    ebp
  4032d5:	pop    edi
  4032d6:	inc    esi
  4032d7:	inc    ecx
  4032d8:	dec    ecx
  4032d9:	dec    esp
  4032da:	dec    ecx
  4032db:	inc    esi
  4032dc:	push   esp
  4032dd:	dec    eax
  4032de:	inc    ebp
  4032df:	push   edx
  4032e0:	inc    ebp
  4032e1:	add    BYTE PTR [ebx+0x54],dl
  4032e4:	inc    edi
  4032e5:	dec    ebp
  4032e6:	pop    edi
  4032e7:	inc    esp
  4032e8:	dec    ecx
  4032e9:	push   edx
  4032ea:	inc    ebp
  4032eb:	inc    ebx
  4032ec:	push   esp
  4032ed:	add    BYTE PTR [ebx+0x54],dl
  4032f0:	inc    edi
  4032f1:	dec    ebp
  4032f2:	pop    edi
  4032f3:	push   esp
  4032f4:	push   edx
  4032f5:	inc    ecx
  4032f6:	dec    esi
  4032f7:	push   ebx
  4032f8:	inc    ecx
  4032f9:	inc    ebx
  4032fa:	push   esp
  4032fb:	inc    ebp
  4032fc:	inc    esp
  4032fd:	add    BYTE PTR [ebx+0x54],dl
  403300:	inc    edi
  403301:	dec    ebp
  403302:	pop    edi
  403303:	dec    esi
  403304:	dec    edi
  403305:	push   ebx
  403306:	inc    ebx
  403307:	push   edx
  403308:	inc    ecx
  403309:	push   esp
  40330a:	inc    ebx
  40330b:	dec    eax
  40330c:	add    BYTE PTR [ebx+0x54],dl
  40330f:	inc    edi
  403310:	dec    ebp
  403311:	pop    edi
  403312:	dec    esi
  403313:	dec    edi
  403314:	push   ebx
  403315:	dec    esi
  403316:	inc    ecx
  403317:	push   eax
  403318:	push   ebx
  403319:	dec    eax
  40331a:	dec    edi
  40331b:	push   esp
  40331c:	add    BYTE PTR [ebx+0x54],dl
  40331f:	inc    edi
  403320:	dec    ebp
  403321:	pop    edi
  403322:	push   ebx
  403323:	dec    ecx
  403324:	dec    ebp
  403325:	push   eax
  403326:	dec    esp
  403327:	inc    ebp
  403328:	add    BYTE PTR [ebx+0x54],dl
  40332b:	inc    edi
  40332c:	dec    ebp
  40332d:	pop    edi
  40332e:	inc    esp
  40332f:	dec    ecx
  403330:	push   edx
  403331:	inc    ebp
  403332:	inc    ebx
  403333:	push   esp
  403334:	pop    edi
  403335:	push   ebx
  403336:	push   edi
  403337:	dec    ebp
  403338:	push   edx
  403339:	add    BYTE PTR [ebx+0x54],dl
  40333c:	inc    edi
  40333d:	dec    ebp
  40333e:	pop    edi
  40333f:	inc    esp
  403340:	inc    ebp
  403341:	dec    esp
  403342:	inc    ebp
  403343:	push   esp
  403344:	inc    ebp
  403345:	dec    edi
  403346:	dec    esi
  403347:	push   edx
  403348:	inc    ebp
  403349:	dec    esp
  40334a:	inc    ebp
  40334b:	inc    ecx
  40334c:	push   ebx
  40334d:	inc    ebp
  40334e:	add    BYTE PTR [ebx+0x79],dl
  403351:	jae    0x4033c7
  403353:	gs ins DWORD PTR es:[edi],dx
  403355:	cs push esp
  403357:	gs js  0x4033ce
  40335a:	add    BYTE PTR [ebx+0x74],dl
  40335d:	jb     0x4033c8
  40335f:	outs   dx,BYTE PTR ds:[esi]
  403360:	addr16 inc edx
  403362:	jne    0x4033cd
  403364:	ins    BYTE PTR es:[edi],dx
  403365:	fs gs jb 0x403369
  403369:	inc    edi
  40336a:	gs je  0x4033bd
  40336d:	popa   
  40336e:	je     0x4033d8
  403370:	add    BYTE PTR [edi+0x65],al
  403373:	je     0x4033be
  403375:	inc    esp
  403376:	dec    esp
  403377:	imul   esi,DWORD PTR [ebx+0x74],0x74655300
  40337e:	dec    ecx
  40337f:	inc    esp
  403380:	dec    esp
  403381:	imul   esi,DWORD PTR [ebx+0x74],0x74654700
  403388:	inc    esp
  403389:	gs jae 0x4033ef
  40338c:	jb     0x4033f7
  40338e:	jo     0x403404
  403390:	imul   ebp,DWORD PTR [edi+0x6e],0x74655300
  403397:	inc    esp
  403398:	gs jae 0x4033fe
  40339b:	jb     0x403406
  40339d:	jo     0x403413
  40339f:	imul   ebp,DWORD PTR [edi+0x6e],0x74654700
  4033a6:	push   edi
  4033a7:	outs   dx,DWORD PTR ds:[esi]
  4033a8:	jb     0x403415
  4033aa:	imul   ebp,DWORD PTR [esi+0x67],0x65726944
  4033b1:	arpl   WORD PTR [edi+ebp*2+0x72],si
  4033b5:	jns    0x4033b7
  4033b7:	push   ebx
  4033b8:	gs je  0x403412
  4033bb:	outs   dx,DWORD PTR ds:[esi]
  4033bc:	jb     0x403429
  4033be:	imul   ebp,DWORD PTR [esi+0x67],0x65726944
  4033c5:	arpl   WORD PTR [edi+ebp*2+0x72],si
  4033c9:	jns    0x4033cb
  4033cb:	inc    edi
  4033cc:	gs je  0x403410
  4033cf:	jb     0x403438
  4033d1:	jne    0x403440
  4033d3:	outs   dx,BYTE PTR gs:[esi]
  4033d5:	je     0x40344a
  4033d7:	add    BYTE PTR [ebx+0x65],dl
  4033da:	je     0x40341d
  4033dc:	jb     0x403445
  4033de:	jne    0x40344d
  4033e0:	outs   dx,BYTE PTR gs:[esi]
  4033e2:	je     0x403457
  4033e4:	add    BYTE PTR [edi+0x65],al
  4033e7:	je     0x403431
  4033e9:	outs   dx,DWORD PTR ds:[esi]
  4033ea:	je     0x403437
  4033ec:	gs jns 0x4033ef
  4033ef:	push   ebx
  4033f0:	gs je  0x40343b
  4033f3:	outs   dx,DWORD PTR ds:[esi]
  4033f4:	je     0x403441
  4033f6:	gs jns 0x4033f9
  4033f9:	inc    edi
  4033fa:	gs je  0x403450
  4033fd:	push   0x6d43776f
  403402:	add    BYTE PTR fs:[ebx+0x65],dl
  403406:	je     0x40345b
  403408:	push   0x6d43776f
  40340d:	add    BYTE PTR fs:[edi+0x65],al
  403411:	je     0x40345c
  403413:	arpl   WORD PTR [edi+0x6e],bp
  403416:	dec    esp
  403417:	outs   dx,DWORD PTR ds:[esi]
  403418:	arpl   WORD PTR [ecx+0x74],sp
  40341b:	imul   ebp,DWORD PTR [edi+0x6e],0x74655300
  403422:	dec    ecx
  403423:	arpl   WORD PTR [edi+0x6e],bp
  403426:	dec    esp
  403427:	outs   dx,DWORD PTR ds:[esi]
  403428:	arpl   WORD PTR [ecx+0x74],sp
  40342b:	imul   ebp,DWORD PTR [edi+0x6e],0x74655300
  403432:	push   edx
  403433:	gs ins BYTE PTR es:[edi],dx
  403435:	popa   
  403436:	je     0x4034a1
  403438:	jbe    0x40349f
  40343a:	push   eax
  40343b:	popa   
  40343c:	je     0x4034a6
  40343e:	add    BYTE PTR [edx+0x65],dl
  403441:	jae    0x4034b2
  403443:	ins    BYTE PTR es:[edi],dx
  403444:	jbe    0x4034ab
  403446:	add    BYTE PTR [ebx+0x65],dl
  403449:	je     0x40349b
  40344b:	popa   
  40344c:	je     0x4034b6
  40344e:	add    BYTE PTR [edi+0x65],al
  403451:	je     0x403496
  403453:	jne    0x4034c7
  403455:	inc    esi
  403456:	imul   ebp,DWORD PTR [ebp+eiz*2+0x0],0x69447349
  40345e:	jb     0x4034d4
  403460:	jns    0x403462
  403462:	dec    esp
  403463:	outs   dx,DWORD PTR ds:[esi]
  403464:	popa   
  403465:	add    BYTE PTR fs:[ebx+0x61],dl
  403469:	jbe    0x4034d0
  40346b:	add    BYTE PTR [ebx+0x61],dl
  40346e:	jbe    0x4034d5
  403470:	inc    ebx
  403471:	outs   dx,DWORD PTR ds:[esi]
  403472:	ins    DWORD PTR es:[edi],dx
  403473:	jo     0x4034e1
  403475:	gs je  0x4034dd
  403478:	add    BYTE PTR fs:[edi+0x65],al
  40347c:	je     0x4034c1
  40347e:	outs   dx,DWORD PTR ds:[esi]
  40347f:	jne    0x4034ef
  403481:	je     0x403483
  403483:	dec    ebp
  403484:	imul   esp,DWORD PTR [ebx+0x72],0x666f736f
  40348b:	je     0x4034bb
  40348d:	push   edi
  40348e:	imul   ebp,DWORD PTR [esi+0x64],0x4173776f
  403495:	push   eax
  403496:	dec    ecx
  403497:	inc    ebx
  403498:	outs   dx,DWORD PTR ds:[esi]
  403499:	fs gs push eax
  40349c:	popa   
  40349d:	arpl   WORD PTR [ebx+0x0],bp
  4034a0:	dec    ebp
  4034a1:	imul   esp,DWORD PTR [ebx+0x72],0x666f736f
  4034a8:	je     0x4034d8
  4034aa:	push   edi
  4034ab:	imul   ebp,DWORD PTR [esi+0x64],0x4173776f
  4034b2:	push   eax
  4034b3:	dec    ecx
  4034b4:	inc    ebx
  4034b5:	outs   dx,DWORD PTR ds:[esi]
  4034b6:	fs gs push eax
  4034b9:	popa   
  4034ba:	arpl   WORD PTR [ebx+0x2e],bp
  4034bd:	push   ebx
  4034be:	push   0x2e6c6c65
  4034c3:	push   eax
  4034c4:	jb     0x403535
  4034c6:	jo     0x40352d
  4034c8:	jb     0x40353e
  4034ca:	jns    0x40351f
  4034cc:	jns    0x403541
  4034ce:	je     0x403535
  4034d0:	ins    DWORD PTR es:[edi],dx
  4034d1:	add    BYTE PTR [eax+0x72],dl
  4034d4:	outs   dx,DWORD PTR ds:[esi]
  4034d5:	jo     0x40353c
  4034d7:	jb     0x40354d
  4034d9:	jns    0x403526
  4034db:	gs jns 0x4034de
  4034de:	inc    edi
  4034df:	gs je  0x403523
  4034e2:	je     0x4034e4
  4034e4:	dec    ebp
  4034e5:	push   ebx
  4034e6:	cs push edi
  4034e8:	imul   ebp,DWORD PTR [esi+0x64],0x4173776f
  4034ef:	push   eax
  4034f0:	dec    ecx
  4034f1:	inc    ebx
  4034f2:	outs   dx,DWORD PTR ds:[esi]
  4034f3:	fs gs push eax
  4034f6:	popa   
  4034f7:	arpl   WORD PTR [ebx+0x2e],bp
  4034fa:	dec    ecx
  4034fb:	outs   dx,BYTE PTR ds:[esi]
  4034fc:	je     0x403563
  4034fe:	jb     0x40356e
  403500:	popa   
  403501:	ins    BYTE PTR es:[edi],dx
  403502:	add    BYTE PTR [eax+0x72],dl
  403505:	outs   dx,DWORD PTR ds:[esi]
  403506:	jo     0x40355e
  403508:	popa   
  403509:	jb     0x403574
  40350b:	popa   
  40350c:	outs   dx,BYTE PTR ds:[esi]
  40350d:	je     0x40350f
  40350f:	inc    edi
  403510:	gs je  0x403569
  403513:	popa   
  403514:	ins    BYTE PTR es:[edi],dx
  403515:	jne    0x40357c
  403517:	add    BYTE PTR [ebx+0x65],dl
  40351a:	je     0x403572
  40351c:	popa   
  40351d:	ins    BYTE PTR es:[edi],dx
  40351e:	jne    0x403585
  403520:	add    BYTE PTR [ebx+0x6f],al
  403523:	ins    DWORD PTR es:[edi],dx
  403524:	ins    DWORD PTR es:[edi],dx
  403525:	imul   esi,DWORD PTR [eax+eax*1+0x56],0x66697265
  40352d:	jns    0x403582
  40352f:	jne    0x403594
  403531:	arpl   WORD PTR [ebp+0x65],sp
  403534:	fs gs add BYTE PTR fs:[ecx+0x72],ah
  40353a:	addr16 jae 0x40353d
  40353d:	jae    0x4035a7
  40353f:	outs   dx,DWORD PTR ds:[esi]
  403540:	jb     0x4035b6
  403542:	arpl   WORD PTR [ebp+0x74],si
  403545:	push   eax
  403546:	popa   
  403547:	je     0x4035b1
  403549:	add    BYTE PTR [ebp+0x65],ch
  40354c:	jae    0x4035c1
  40354e:	popa   
  40354f:	add    BYTE PTR gs:[si+0x69],dh
  403554:	je     0x4035c2
  403556:	add    BYTE PTR gs:[ecx+0x6d],ch
  40355a:	popa   
  40355b:	addr16 gs push ebp
  40355e:	push   edx
  40355f:	dec    ecx
  403560:	add    BYTE PTR [ebx+0x6f],dh
  403563:	jne    0x4035d3
  403565:	add    BYTE PTR fs:[ebp+0x73],dh
  403569:	gs push ebx
  40356b:	outs   dx,DWORD PTR ds:[esi]
  40356c:	jne    0x4035dc
  40356e:	add    BYTE PTR fs:[edi+ebp*2+0x61],dh
  403573:	jae    0x4035e9
  403575:	pop    eax
  403576:	ins    DWORD PTR es:[edi],dx
  403577:	ins    BYTE PTR es:[edi],dx
  403578:	add    BYTE PTR [ebx+0x65],dh
  40357b:	outs   dx,BYTE PTR ds:[esi]
  40357c:	fs gs jb 0x403580
  403580:	add    BYTE PTR gs:[eax+0x73],dh
  403584:	jp     0x4035cc
  403586:	imul   ebp,DWORD PTR [ebp+eiz*2+0x0],0x74737953
  40358e:	gs ins DWORD PTR es:[edi],dx
  403590:	cs push edx
  403592:	jne    0x403602
  403594:	je     0x4035ff
  403596:	ins    DWORD PTR es:[edi],dx
  403597:	gs cs dec ecx
  40359a:	outs   dx,BYTE PTR ds:[esi]
  40359b:	je     0x403602
  40359d:	jb     0x40360e
  40359f:	jo     0x4035f4
  4035a1:	gs jb  0x40361a
  4035a4:	imul   esp,DWORD PTR [ebx+0x65],0x754f0073
  4035ab:	je     0x4035ee
  4035ad:	je     0x403623
  4035af:	jb     0x40361a
  4035b1:	bound  esi,QWORD PTR [ebp+0x74]
  4035b4:	add    BYTE PTR gs:[ebp+0x61],cl
  4035b8:	jb     0x40362d
  4035ba:	push   0x73416c61
  4035bf:	inc    ecx
  4035c0:	je     0x403636
  4035c2:	jb     0x40362d
  4035c4:	bound  esi,QWORD PTR [ebp+0x74]
  4035c7:	add    BYTE PTR gs:[ebp+0x6e],dl
  4035cb:	ins    DWORD PTR es:[edi],dx
  4035cc:	popa   
  4035cd:	outs   dx,BYTE PTR ds:[esi]
  4035ce:	popa   
  4035cf:	addr16 gs fs push esp
  4035d3:	jns    0x403645
  4035d5:	add    BYTE PTR gs:[ebx+0x63],ah
  4035d9:	push   0x5078614d
  4035de:	popa   
  4035df:	je     0x403649
  4035e1:	add    BYTE PTR [eax+0x66],dh
  4035e4:	add    BYTE PTR fs:[esi+0x46],ah
  4035e8:	ins    BYTE PTR es:[edi],dx
  4035e9:	popa   
  4035ea:	addr16 jae 0x4035ed
  4035ed:	jo     0x40365f
  4035ef:	imul   esp,DWORD PTR [esp+ebp*2+0x0],0x6c646970
  4035f7:	add    BYTE PTR [ebx+0x63],ah
  4035fa:	push   0x4e78614d
  4035ff:	popa   
  403600:	ins    DWORD PTR es:[edi],dx
  403601:	add    BYTE PTR gs:[eax+0x73],dh
  403605:	jp     0x403655
  403607:	popa   
  403608:	ins    DWORD PTR es:[edi],dx
  403609:	add    BYTE PTR gs:[eax+0x73],dh
  40360d:	jp     0x403653
  40360f:	imul   esi,DWORD PTR [edx+0x0],0x417a7370
  403616:	jb     0x40367f
  403618:	jae    0x40361a
  40361a:	ja     0x403664
  40361c:	outs   dx,DWORD PTR ds:[esi]
  40361d:	je     0x40366a
  40361f:	gs jns 0x403622
  403622:	imul   edx,DWORD PTR [ebx+0x68],0x6d43776f
  403629:	add    BYTE PTR fs:[eax+0x73],dh
  40362d:	jp     0x403678
  40362f:	arpl   WORD PTR [edi+0x6e],bp
  403632:	push   eax
  403633:	popa   
  403634:	je     0x40369e
  403636:	add    BYTE PTR [ebx+0x63],ah
  403639:	push   0x6e6f6349
  40363e:	push   eax
  40363f:	popa   
  403640:	je     0x4036aa
  403642:	add    BYTE PTR [ecx+0x49],ch
  403645:	arpl   WORD PTR [edi+0x6e],bp
  403648:	add    BYTE PTR [eax+0x73],dh
  40364b:	jp     0x40369d
  40364d:	popa   
  40364e:	je     0x4036b8
  403650:	push   edx
  403651:	gs ins BYTE PTR es:[edi],dx
  403653:	add    BYTE PTR [edi+esi*2+0x52],ah
  403657:	gs jae 0x4036bf
  40365a:	jb     0x4036d2
  40365c:	gs add BYTE PTR fs:[eax+0x77],ch
  403661:	outs   dx,BYTE PTR ds:[esi]
  403662:	add    BYTE PTR fs:[eax+0x73],dh
  403666:	jp     0x4036ae
  403668:	imul   ebp,DWORD PTR [ebp+eiz*2+0x4e],0x656d61
  403670:	fs ja  0x4036c0
  403673:	outs   dx,DWORD PTR ds:[esi]
  403674:	fs add BYTE PTR gs:[esi+0x52],ah
  403679:	gs ins DWORD PTR es:[edi],dx
  40367b:	gs ins DWORD PTR es:[edi],dx
  40367d:	bound  esp,QWORD PTR [ebp+0x72]
  403680:	add    BYTE PTR [eax+0x72],dh
  403683:	outs   dx,DWORD PTR ds:[esi]
  403684:	jo     0x4036eb
  403686:	jb     0x4036fc
  403688:	jns    0x4036cd
  40368a:	outs   dx,DWORD PTR ds:[esi]
  40368b:	jne    0x4036fb
  40368d:	je     0x40368f
  40368f:	jo     0x403703
  403691:	outs   dx,DWORD PTR ds:[esi]
  403692:	jo     0x4036f9
  403694:	jb     0x40370a
  403696:	jns    0x4036e1
  403698:	outs   dx,BYTE PTR ds:[esi]
  403699:	fs gs js 0x40369d
  40369d:	dec    ecx
  40369e:	outs   dx,BYTE PTR ds:[esi]
  40369f:	inc    ecx
  4036a0:	je     0x403716
  4036a2:	jb     0x40370d
  4036a4:	bound  esi,QWORD PTR [ebp+0x74]
  4036a7:	add    BYTE PTR gs:[ebx+0x65],ch
  4036ab:	jns    0x4036ad
  4036ad:	jo     0x403725
  4036af:	add    BYTE PTR [eax+0x72],ch
  4036b2:	gs jae 0x40372a
  4036b5:	ins    BYTE PTR es:[edi],dx
  4036b6:	je     0x4036b8
  4036b8:	push   ebx
  4036b9:	jns    0x40372e
  4036bb:	je     0x403722
  4036bd:	ins    DWORD PTR es:[edi],dx
  4036be:	cs push edx
  4036c0:	jne    0x403730
  4036c2:	je     0x40372d
  4036c4:	ins    DWORD PTR es:[edi],dx
  4036c5:	gs cs push esi
  4036c8:	gs jb  0x40373e
  4036cb:	imul   ebp,DWORD PTR [edi+0x6e],0x676e69
  4036d2:	push   esp
  4036d3:	popa   
  4036d4:	jb     0x40373d
  4036d6:	gs je  0x40371f
  4036d9:	jb     0x40373c
  4036db:	ins    DWORD PTR es:[edi],dx
  4036dc:	gs ja  0x40374e
  4036df:	jb     0x40374c
  4036e1:	inc    ecx
  4036e2:	je     0x403758
  4036e4:	jb     0x40374f
  4036e6:	bound  esi,QWORD PTR [ebp+0x74]
  4036e9:	add    BYTE PTR gs:[ebx+0x79],dl
  4036ed:	jae    0x403763
  4036ef:	gs ins DWORD PTR es:[edi],dx
  4036f1:	cs push edx
  4036f3:	gs data16 ins BYTE PTR es:[edi],dx
  4036f6:	arpl   WORD PTR gs:[ecx+ebp*2+0x6f],si
  4036fb:	outs   dx,BYTE PTR ds:[esi]
  4036fc:	add    BYTE PTR [ecx+0x73],al
  4036ff:	jae    0x403766
  403701:	ins    DWORD PTR es:[edi],dx
  403702:	bound  ebp,QWORD PTR [ecx+edi*2+0x54]
  403706:	imul   esi,DWORD PTR [esp+ebp*2+0x65],0x72747441
  40370e:	imul   esp,DWORD PTR [edx+0x75],0x41006574
  403715:	jae    0x40378a
  403717:	gs ins DWORD PTR es:[edi],dx
  403719:	bound  ebp,QWORD PTR [ecx+edi*2+0x44]
  40371d:	gs jae 0x403783
  403720:	jb     0x40378b
  403722:	jo     0x403798
  403724:	imul   ebp,DWORD PTR [edi+0x6e],0x72747441
  40372b:	imul   esp,DWORD PTR [edx+0x75],0x41006574
  403732:	jae    0x4037a7
  403734:	gs ins DWORD PTR es:[edi],dx
  403736:	bound  ebp,QWORD PTR [ecx+edi*2+0x43]
  40373a:	outs   dx,DWORD PTR ds:[esi]
  40373b:	outs   dx,BYTE PTR ds:[esi]
  40373c:	imul   sp,WORD PTR [edi+0x75],0x6172
  403742:	je     0x4037ad
  403744:	outs   dx,DWORD PTR ds:[esi]
  403745:	outs   dx,BYTE PTR ds:[esi]
  403746:	inc    ecx
  403747:	je     0x4037bd
  403749:	jb     0x4037b4
  40374b:	bound  esi,QWORD PTR [ebp+0x74]
  40374e:	add    BYTE PTR gs:[ecx+0x73],al
  403752:	jae    0x4037b9
  403754:	ins    DWORD PTR es:[edi],dx
  403755:	bound  ebp,QWORD PTR [ecx+edi*2+0x43]
  403759:	outs   dx,DWORD PTR ds:[esi]
  40375a:	ins    DWORD PTR es:[edi],dx
  40375b:	jo     0x4037be
  40375d:	outs   dx,BYTE PTR ds:[esi]
  40375e:	jns    0x4037a1
  403760:	je     0x4037d6
  403762:	jb     0x4037cd
  403764:	bound  esi,QWORD PTR [ebp+0x74]
  403767:	add    BYTE PTR gs:[ecx+0x73],al
  40376b:	jae    0x4037d2
  40376d:	ins    DWORD PTR es:[edi],dx
  40376e:	bound  ebp,QWORD PTR [ecx+edi*2+0x50]
  403772:	jb     0x4037e3
  403774:	fs jne 0x4037da
  403777:	je     0x4037ba
  403779:	je     0x4037ef
  40377b:	jb     0x4037e6
  40377d:	bound  esi,QWORD PTR [ebp+0x74]
  403780:	add    BYTE PTR gs:[ecx+0x73],al
  403784:	jae    0x4037eb
  403786:	ins    DWORD PTR es:[edi],dx
  403787:	bound  ebp,QWORD PTR [ecx+edi*2+0x43]
  40378b:	outs   dx,DWORD PTR ds:[esi]
  40378c:	jo     0x403807
  40378e:	jb     0x4037f9
  403790:	addr16 push 0x74744174
  403796:	jb     0x403801
  403798:	bound  esi,QWORD PTR [ebp+0x74]
  40379b:	add    BYTE PTR gs:[ecx+0x73],al
  40379f:	jae    0x403806
  4037a1:	ins    DWORD PTR es:[edi],dx
  4037a2:	bound  ebp,QWORD PTR [ecx+edi*2+0x54]
  4037a6:	jb     0x403809
  4037a8:	fs gs ins DWORD PTR es:[edi],dx
  4037ab:	popa   
  4037ac:	jb     0x403819
  4037ae:	inc    ecx
  4037af:	je     0x403825
  4037b1:	jb     0x40381c
  4037b3:	bound  esi,QWORD PTR [ebp+0x74]
  4037b6:	add    BYTE PTR gs:[ecx+0x73],al
  4037ba:	jae    0x403821
  4037bc:	ins    DWORD PTR es:[edi],dx
  4037bd:	bound  ebp,QWORD PTR [ecx+edi*2+0x43]
  4037c1:	jne    0x40382f
  4037c3:	je     0x40383a
  4037c5:	jb     0x40382c
  4037c7:	inc    ecx
  4037c8:	je     0x40383e
  4037ca:	jb     0x403835
  4037cc:	bound  esi,QWORD PTR [ebp+0x74]
  4037cf:	add    BYTE PTR gs:[ebx+0x6f],al
  4037d3:	ins    DWORD PTR es:[edi],dx
  4037d4:	push   esi
  4037d5:	imul   esi,DWORD PTR [ebx+0x69],0x41656c62
  4037dc:	je     0x403852
  4037de:	jb     0x403849
  4037e0:	bound  esi,QWORD PTR [ebp+0x74]
  4037e3:	add    BYTE PTR gs:[edi+0x75],al
  4037e7:	imul   esp,DWORD PTR [ecx+eax*2+0x74],0x62697274
  4037ef:	jne    0x403865
  4037f1:	add    BYTE PTR gs:[ecx+0x73],al
  4037f5:	jae    0x40385c
  4037f7:	ins    DWORD PTR es:[edi],dx
  4037f8:	bound  ebp,QWORD PTR [ecx+edi*2+0x56]
  4037fc:	gs jb  0x403872
  4037ff:	imul   ebp,DWORD PTR [edi+0x6e],0x72747441
  403806:	imul   esp,DWORD PTR [edx+0x75],0x41006574
  40380d:	jae    0x403882
  40380f:	gs ins DWORD PTR es:[edi],dx
  403811:	bound  ebp,QWORD PTR [ecx+edi*2+0x46]
  403815:	imul   ebp,DWORD PTR [ebp+eiz*2+0x56],0x69737265
  40381d:	outs   dx,DWORD PTR ds:[esi]
  40381e:	outs   dx,BYTE PTR ds:[esi]
  40381f:	inc    ecx
  403820:	je     0x403896
  403822:	jb     0x40388d
  403824:	bound  esi,QWORD PTR [ebp+0x74]
  403827:	add    BYTE PTR gs:[ebx+0x79],dl
  40382b:	jae    0x4038a1
  40382d:	gs ins DWORD PTR es:[edi],dx
  40382f:	cs inc esp
  403831:	imul   esp,DWORD PTR [ecx+0x67],0x74736f6e
  403838:	imul   esp,DWORD PTR [ebx+0x73],0x62654400
  40383f:	jne    0x4038a8
  403841:	addr16 popa 
  403843:	bound  ebp,QWORD PTR [ebp+eiz*2+0x41]
  403847:	je     0x4038bd
  403849:	jb     0x4038b4
  40384b:	bound  esi,QWORD PTR [ebp+0x74]
  40384e:	add    BYTE PTR gs:[ebp+eiz*2+0x62],al
  403853:	jne    0x4038bc
  403855:	imul   ebp,DWORD PTR [bp+0x67],0x65646f4d
  40385d:	jae    0x40385f
  40385f:	push   ebx
  403860:	jns    0x4038d5
  403862:	je     0x4038c9
  403864:	ins    DWORD PTR es:[edi],dx
  403865:	cs push edx
  403867:	jne    0x4038d7
  403869:	je     0x4038d4
  40386b:	ins    DWORD PTR es:[edi],dx
  40386c:	gs cs inc ebx
  40386f:	outs   dx,DWORD PTR ds:[esi]
  403870:	ins    DWORD PTR es:[edi],dx
  403871:	jo     0x4038dc
  403873:	ins    BYTE PTR es:[edi],dx
  403874:	gs jb  0x4038ca
  403877:	gs jb  0x4038f0
  40387a:	imul   esp,DWORD PTR [ebx+0x65],0x6f430073
  403881:	ins    DWORD PTR es:[edi],dx
  403882:	jo     0x4038ed
  403884:	ins    BYTE PTR es:[edi],dx
  403885:	popa   
  403886:	je     0x4038f1
  403888:	outs   dx,DWORD PTR ds:[esi]
  403889:	outs   dx,BYTE PTR ds:[esi]
  40388a:	push   edx
  40388b:	gs ins BYTE PTR es:[edi],dx
  40388d:	popa   
  40388e:	js     0x4038f1
  403890:	je     0x4038fb
  403892:	outs   dx,DWORD PTR ds:[esi]
  403893:	outs   dx,BYTE PTR ds:[esi]
  403894:	jae    0x4038d7
  403896:	je     0x40390c
  403898:	jb     0x403903
  40389a:	bound  esi,QWORD PTR [ebp+0x74]
  40389d:	add    BYTE PTR gs:[edx+0x75],dl
  4038a1:	outs   dx,BYTE PTR ds:[esi]
  4038a2:	je     0x40390d
  4038a4:	ins    DWORD PTR es:[edi],dx
  4038a5:	gs inc ebx
  4038a7:	outs   dx,DWORD PTR ds:[esi]
  4038a8:	ins    DWORD PTR es:[edi],dx
  4038a9:	jo     0x40390c
  4038ab:	je     0x403916
  4038ad:	bound  ebp,QWORD PTR [ecx+0x6c]
  4038b0:	imul   esi,DWORD PTR [ecx+edi*2+0x41],0x69727474
  4038b8:	bound  esi,QWORD PTR [ebp+0x74]
  4038bb:	add    BYTE PTR gs:[ebx+0x6f],al
  4038bf:	outs   dx,BYTE PTR ds:[esi]
  4038c0:	jae    0x403931
  4038c2:	ins    BYTE PTR es:[edi],dx
  4038c3:	add    BYTE PTR gs:[edi+0x72],dl
  4038c7:	imul   esi,DWORD PTR [ebp+eiz*2+0x4c],0x656e69
  4038cf:	push   ebx
  4038d0:	je     0x403944
  4038d2:	imul   ebp,DWORD PTR [esi+0x67],0x5f706f00
  4038d9:	inc    ebp
  4038da:	jno    0x403951
  4038dc:	popa   
  4038dd:	ins    BYTE PTR es:[edi],dx
  4038de:	imul   esi,DWORD PTR [ecx+edi*2+0x0],0x69766e45
  4038e6:	jb     0x403957
  4038e8:	outs   dx,BYTE PTR ds:[esi]
  4038e9:	ins    DWORD PTR es:[edi],dx
  4038ea:	outs   dx,BYTE PTR gs:[esi]
  4038ec:	je     0x4038ee
  4038ee:	inc    ebp
  4038ef:	js     0x40395a
  4038f1:	je     0x4038f3
  4038f3:	push   ebx
  4038f4:	jns    0x403969
  4038f6:	je     0x40395d
  4038f8:	ins    DWORD PTR es:[edi],dx
  4038f9:	cs push esp
  4038fb:	push   0x64616572
  403900:	imul   ebp,DWORD PTR [esi+0x67],0x72685400
  403907:	gs popa 
  403909:	add    BYTE PTR fs:[ebx+0x6c],dl
  40390d:	gs gs jo 0x403911
  403911:	push   ebx
  403912:	jo     0x403979
  403914:	arpl   WORD PTR [ecx+0x61],bp
  403917:	ins    BYTE PTR es:[edi],dx
  403918:	inc    esi
  403919:	outs   dx,DWORD PTR ds:[esi]
  40391a:	ins    BYTE PTR es:[edi],dx
  40391b:	fs gs jb 0x40391f
  40391f:	inc    edi
  403920:	gs je  0x403969
  403923:	outs   dx,DWORD PTR ds:[esi]
  403924:	ins    BYTE PTR es:[edi],dx
  403925:	fs gs jb 0x403979
  403929:	popa   
  40392a:	je     0x403994
  40392c:	add    BYTE PTR [ebx+0x6f],al
  40392f:	outs   dx,BYTE PTR ds:[esi]
  403930:	arpl   WORD PTR [ecx+0x74],sp
  403933:	add    BYTE PTR [ebx+0x79],dl
  403936:	jae    0x4039ac
  403938:	gs ins DWORD PTR es:[edi],dx
  40393a:	cs dec ecx
  40393c:	dec    edi
  40393d:	add    BYTE PTR [esi+0x69],al
  403940:	ins    BYTE PTR es:[edi],dx
  403941:	add    BYTE PTR gs:[ebp+0x78],al
  403945:	imul   esi,DWORD PTR [ebx+0x74],0x72500073
  40394c:	outs   dx,DWORD PTR ds:[esi]
  40394d:	arpl   WORD PTR [ebp+0x73],sp
  403950:	jae    0x403952
  403952:	inc    edi
  403953:	gs je  0x403999
  403956:	jne    0x4039ca
  403958:	jb     0x4039bf
  40395a:	outs   dx,BYTE PTR ds:[esi]
  40395b:	je     0x4039ad
  40395d:	jb     0x4039ce
  40395f:	arpl   WORD PTR [ebp+0x73],sp
  403962:	jae    0x403964
  403964:	push   eax
  403965:	jb     0x4039d6
  403967:	arpl   WORD PTR [ebp+0x73],sp
  40396a:	jae    0x4039b9
  40396c:	outs   dx,DWORD PTR ds:[esi]
  40396d:	fs jne 0x4039dc
  403970:	add    BYTE PTR gs:[edi+0x65],ah
  403974:	je     0x4039d5
  403976:	dec    ebp
  403977:	popa   
  403978:	imul   ebp,DWORD PTR [esi+0x4d],0x6c75646f
  40397f:	add    BYTE PTR gs:[edi+0x65],ah
  403983:	je     0x4039e4
  403985:	inc    esi
  403986:	imul   ebp,DWORD PTR [ebp+eiz*2+0x4e],0x656d61
  40398e:	dec    ebp
  40398f:	imul   esp,DWORD PTR [ebx+0x72],0x666f736f
  403996:	je     0x4039c6
  403998:	push   edi
  403999:	imul   ebp,DWORD PTR [esi+0x64],0x4173776f
  4039a0:	push   eax
  4039a1:	dec    ecx
  4039a2:	inc    ebx
  4039a3:	outs   dx,DWORD PTR ds:[esi]
  4039a4:	fs gs push eax
  4039a7:	popa   
  4039a8:	arpl   WORD PTR [ebx+0x2e],bp
  4039ab:	push   ebx
  4039ac:	push   0x6c6c65
  4039b1:	push   ebx
  4039b2:	jns    0x403a27
  4039b4:	je     0x403a1b
  4039b6:	ins    DWORD PTR es:[edi],dx
  4039b7:	push   eax
  4039b8:	jb     0x403a29
  4039ba:	jo     0x403a21
  4039bc:	jb     0x403a32
  4039be:	imul   esp,DWORD PTR [ebp+0x73],0x70704100
  4039c5:	push   ebp
  4039c6:	jae    0x403a2d
  4039c8:	jb     0x403a17
  4039ca:	outs   dx,DWORD PTR ds:[esi]
  4039cb:	fs gs ins BYTE PTR es:[edi],dx
  4039ce:	add    BYTE PTR [edi+0x65],ah
  4039d1:	je     0x403a32
  4039d3:	dec    ecx
  4039d4:	inc    esp
  4039d5:	add    BYTE PTR [ecx+0x44],cl
  4039d8:	imul   esi,DWORD PTR [ebx+0x70],0x6261736f
  4039df:	ins    BYTE PTR es:[edi],dx
  4039e0:	add    BYTE PTR gs:[ecx+ebp*2+0x73],al
  4039e5:	jo     0x403a56
  4039e7:	jae    0x403a4e
  4039e9:	add    BYTE PTR [edi+ebp*2+0x61],dl
  4039ed:	jae    0x403a63
  4039ef:	dec    esi
  4039f0:	outs   dx,DWORD PTR ds:[esi]
  4039f1:	je     0x403a5c
  4039f3:	imul   sp,WORD PTR [ebx+0x61],0x6974
  4039f9:	outs   dx,DWORD PTR ds:[esi]
  4039fa:	outs   dx,BYTE PTR ds:[esi]
  4039fb:	dec    ebp
  4039fc:	popa   
  4039fd:	outs   dx,BYTE PTR ds:[esi]
  4039fe:	popa   
  4039ff:	addr16 gs jb 0x403a03
  403a03:	push   esp
  403a04:	outs   dx,DWORD PTR ds:[esi]
  403a05:	popa   
  403a06:	jae    0x403a7c
  403a08:	push   esp
  403a09:	gs ins DWORD PTR es:[edi],dx
  403a0b:	jo     0x403a79
  403a0d:	popa   
  403a0e:	je     0x403a75
  403a10:	push   esp
  403a11:	jns    0x403a83
  403a13:	add    BYTE PTR gs:[edi+0x65],al
  403a17:	je     0x403a6d
  403a19:	gs ins DWORD PTR es:[edi],dx
  403a1b:	jo     0x403a89
  403a1d:	popa   
  403a1e:	je     0x403a85
  403a20:	inc    ebx
  403a21:	outs   dx,DWORD PTR ds:[esi]
  403a22:	outs   dx,BYTE PTR ds:[esi]
  403a23:	je     0x403a8a
  403a25:	outs   dx,BYTE PTR ds:[esi]
  403a26:	je     0x403a28
  403a28:	pop    eax
  403a29:	ins    DWORD PTR es:[edi],dx
  403a2a:	ins    BYTE PTR es:[edi],dx
  403a2b:	dec    esi
  403a2c:	outs   dx,DWORD PTR ds:[esi]
  403a2d:	fs gs dec esp
  403a30:	imul   esi,DWORD PTR [ebx+0x74],0x74654700
  403a37:	inc    ebp
  403a38:	ins    BYTE PTR es:[edi],dx
  403a39:	gs ins DWORD PTR es:[edi],dx
  403a3b:	outs   dx,BYTE PTR gs:[esi]
  403a3d:	je     0x403ab2
  403a3f:	inc    edx
  403a40:	jns    0x403a96
  403a42:	popa   
  403a43:	addr16 dec esi
  403a45:	popa   
  403a46:	ins    DWORD PTR es:[edi],dx
  403a47:	add    BYTE PTR gs:[ebx+0x79],dl
  403a4b:	jae    0x403ac1
  403a4d:	gs ins DWORD PTR es:[edi],dx
  403a4f:	cs inc ebx
  403a51:	outs   dx,DWORD PTR ds:[esi]
  403a52:	ins    BYTE PTR es:[edi],dx
  403a53:	ins    BYTE PTR es:[edi],dx
  403a54:	arpl   WORD PTR gs:[ecx+ebp*2+0x6f],si
  403a59:	outs   dx,BYTE PTR ds:[esi]
  403a5a:	jae    0x403a8a
  403a5c:	inc    edi
  403a5d:	outs   dx,BYTE PTR gs:[esi]
  403a5f:	gs jb  0x403acb
  403a62:	arpl   WORD PTR [eax],ax
  403a64:	dec    ecx
  403a65:	push   edx
  403a66:	gs popa 
  403a68:	fs dec edi
  403a6a:	outs   dx,BYTE PTR ds:[esi]
  403a6b:	ins    BYTE PTR es:[edi],dx
  403a6c:	jns    0x403aba
  403a6e:	imul   esi,DWORD PTR [ebx+0x74],0x49003160
  403a75:	pop    eax
  403a76:	ins    DWORD PTR es:[edi],dx
  403a77:	ins    BYTE PTR es:[edi],dx
  403a78:	dec    esi
  403a79:	outs   dx,DWORD PTR ds:[esi]
  403a7a:	fs add BYTE PTR gs:[edi+0x65],ah
  403a7f:	je     0x403ae0
  403a81:	dec    ecx
  403a82:	je     0x403ae9
  403a84:	ins    DWORD PTR es:[edi],dx
  403a85:	add    BYTE PTR [eax+0x6d],bl
  403a88:	ins    BYTE PTR es:[edi],dx
  403a89:	dec    esi
  403a8a:	popa   
  403a8b:	ins    DWORD PTR es:[edi],dx
  403a8c:	gs fs dec esi
  403a8f:	outs   dx,DWORD PTR ds:[esi]
  403a90:	fs gs dec ebp
  403a93:	popa   
  403a94:	jo     0x403a96
  403a96:	addr16 gs je 0x403af9
  403a9a:	inc    ecx
  403a9b:	je     0x403b11
  403a9d:	jb     0x403b08
  403a9f:	bound  esi,QWORD PTR [ebp+0x74]
  403aa2:	gs jae 0x403aa5
  403aa5:	inc    edi
  403aa6:	gs je  0x403af7
  403aa9:	popa   
  403aaa:	ins    DWORD PTR es:[edi],dx
  403aab:	gs fs dec ecx
  403aae:	je     0x403b15
  403ab0:	ins    DWORD PTR es:[edi],dx
  403ab1:	add    BYTE PTR [eax+0x75],dh
  403ab4:	je     0x403b15
  403ab6:	dec    esi
  403ab7:	outs   dx,DWORD PTR ds:[esi]
  403ab8:	fs gs push esi
  403abb:	popa   
  403abc:	ins    BYTE PTR es:[edi],dx
  403abd:	jne    0x403b24
  403abf:	add    BYTE PTR [eax+0x6d],bl
  403ac2:	ins    BYTE PTR es:[edi],dx
  403ac3:	push   esp
  403ac4:	gs js  0x403b3b
  403ac7:	add    BYTE PTR [ebx+0x72],al
  403aca:	gs popa 
  403acc:	je     0x403b33
  403ace:	push   esp
  403acf:	gs js  0x403b46
  403ad2:	dec    esi
  403ad3:	outs   dx,DWORD PTR ds:[esi]
  403ad4:	fs add BYTE PTR gs:[ecx+0x70],al
  403ad9:	jo     0x403b40
  403adb:	outs   dx,BYTE PTR ds:[esi]
  403adc:	fs inc ebx
  403ade:	push   0x646c69
  403ae3:	push   ebx
  403ae4:	jns    0x403b59
  403ae6:	je     0x403b4d
  403ae8:	ins    DWORD PTR es:[edi],dx
  403ae9:	cs push edx
  403aeb:	jne    0x403b5b
  403aed:	je     0x403b58
  403aef:	ins    DWORD PTR es:[edi],dx
  403af0:	gs cs dec ecx
  403af3:	outs   dx,BYTE PTR ds:[esi]
  403af4:	je     0x403b5b
  403af6:	jb     0x403b67
  403af8:	jo     0x403b4d
  403afa:	gs jb  0x403b73
  403afd:	imul   esp,DWORD PTR [ebx+0x65],0x69572e73
  403b04:	outs   dx,BYTE PTR ds:[esi]
  403b05:	outs   dx,DWORD PTR fs:[esi]
  403b07:	ja     0x403b7c
  403b09:	push   edx
  403b0a:	jne    0x403b7a
  403b0c:	je     0x403b77
  403b0e:	ins    DWORD PTR es:[edi],dx
  403b0f:	add    BYTE PTR gs:[ebp+0x76],al
  403b13:	outs   dx,BYTE PTR gs:[esi]
  403b15:	je     0x403b69
  403b17:	imul   esi,DWORD PTR gs:[bp+di+0x74],0x69746172
  403b20:	outs   dx,DWORD PTR ds:[esi]
  403b21:	outs   dx,BYTE PTR ds:[esi]
  403b22:	push   esp
  403b23:	outs   dx,DWORD PTR ds:[esi]
  403b24:	imul   esp,DWORD PTR [ebp+0x6e],0x0
  403b28:	push   edi
  403b29:	imul   ebp,DWORD PTR [esi+0x64],0x2e73776f
  403b30:	inc    esi
  403b31:	outs   dx,DWORD PTR ds:[esi]
  403b32:	jne    0x403ba2
  403b34:	fs popa 
  403b36:	je     0x403ba1
  403b38:	outs   dx,DWORD PTR ds:[esi]
  403b39:	outs   dx,BYTE PTR ds:[esi]
  403b3a:	add    BYTE PTR [ecx+edi*2+0x70],dl
  403b3e:	gs fs inc ebp
  403b41:	jbe    0x403ba8
  403b43:	outs   dx,BYTE PTR ds:[esi]
  403b44:	je     0x403b8e
  403b46:	popa   
  403b47:	outs   dx,BYTE PTR ds:[esi]
  403b48:	fs ins BYTE PTR es:[edi],dx
  403b4a:	gs jb  0x403bad
  403b4d:	xor    al,BYTE PTR [eax]
  403b4f:	popa   
  403b50:	fs fs pop edi
  403b53:	inc    ecx
  403b54:	arpl   WORD PTR [ecx+ebp*2+0x76],si
  403b58:	popa   
  403b59:	je     0x403bc0
  403b5b:	add    BYTE PTR fs:[esi+0x75],al
  403b5f:	outs   dx,BYTE PTR ds:[esi]
  403b60:	arpl   WORD PTR [eax+0x32],sp
  403b63:	add    BYTE PTR [edx+0x65],dh
  403b66:	ins    DWORD PTR es:[edi],dx
  403b67:	outs   dx,DWORD PTR ds:[esi]
  403b68:	jbe    0x403bcf
  403b6a:	pop    edi
  403b6b:	inc    ecx
  403b6c:	arpl   WORD PTR [ecx+ebp*2+0x76],si
  403b70:	popa   
  403b71:	je     0x403bd8
  403b73:	add    BYTE PTR fs:[ecx+0x63],al
  403b77:	je     0x403be2
  403b79:	outs   dx,DWORD PTR ds:[esi]
  403b7a:	outs   dx,BYTE PTR ds:[esi]
  403b7b:	pusha  
  403b7c:	xor    DWORD PTR [eax],eax
  403b7e:	push   edi
  403b7f:	imul   ebp,DWORD PTR [esi+0x64],0x5273776f
  403b86:	jne    0x403bf6
  403b88:	je     0x403bf3
  403b8a:	ins    DWORD PTR es:[edi],dx
  403b8b:	gs dec ebp
  403b8d:	popa   
  403b8e:	jb     0x403c03
  403b90:	push   0x41006c61
  403b95:	fs fs inc ebp
  403b98:	jbe    0x403bff
  403b9a:	outs   dx,BYTE PTR ds:[esi]
  403b9b:	je     0x403be5
  403b9d:	popa   
  403b9e:	outs   dx,BYTE PTR ds:[esi]
  403b9f:	fs ins BYTE PTR es:[edi],dx
  403ba1:	gs jb  0x403ba4
  403ba4:	popa   
  403ba5:	fs fs pop edi
  403ba8:	inc    esp
  403ba9:	imul   esi,DWORD PTR [ebx+0x6d],0x65737369
  403bb0:	add    BYTE PTR fs:[edx+0x65],dh
  403bb4:	ins    DWORD PTR es:[edi],dx
  403bb5:	outs   dx,DWORD PTR ds:[esi]
  403bb6:	jbe    0x403c1d
  403bb8:	pop    edi
  403bb9:	inc    esp
  403bba:	imul   esi,DWORD PTR [ebx+0x6d],0x65737369
  403bc1:	add    BYTE PTR fs:[ecx+0x64],ah
  403bc5:	fs pop edi
  403bc7:	inc    esi
  403bc8:	popa   
  403bc9:	imul   ebp,DWORD PTR [ebp+eiz*2+0x64],0x6d657200
  403bd1:	outs   dx,DWORD PTR ds:[esi]
  403bd2:	jbe    0x403c39
  403bd4:	pop    edi
  403bd5:	inc    esi
  403bd6:	popa   
  403bd7:	imul   ebp,DWORD PTR [ebp+eiz*2+0x64],0x616f5400
  403bdf:	jae    0x403c55
  403be1:	dec    esi
  403be2:	outs   dx,DWORD PTR ds:[esi]
  403be3:	je     0x403c4e
  403be5:	imul   sp,WORD PTR [ebp+0x72],0x4300
  403beb:	jb     0x403c52
  403bed:	popa   
  403bee:	je     0x403c55
  403bf0:	push   esp
  403bf1:	outs   dx,DWORD PTR ds:[esi]
  403bf2:	popa   
  403bf3:	jae    0x403c69
  403bf5:	dec    esi
  403bf6:	outs   dx,DWORD PTR ds:[esi]
  403bf7:	je     0x403c62
  403bf9:	imul   sp,WORD PTR [ebp+0x72],0x5300
  403bff:	push   0x5300776f
  403c04:	jns    0x403c79
  403c06:	je     0x403c6d
  403c08:	ins    DWORD PTR es:[edi],dx
  403c09:	cs inc ebx
  403c0b:	outs   dx,DWORD PTR ds:[esi]
  403c0c:	jb     0x403c73
  403c0e:	add    BYTE PTR [ebx+0x79],dl
  403c11:	jae    0x403c87
  403c13:	gs ins DWORD PTR es:[edi],dx
  403c15:	cs dec esp
  403c17:	imul   ebp,DWORD PTR [esi+0x71],0x756e4500
  403c1e:	ins    DWORD PTR es:[edi],dx
  403c1f:	gs jb  0x403c83
  403c22:	bound  ebp,QWORD PTR [ebp+eiz*2+0x0]
  403c26:	dec    ecx
  403c27:	inc    ebp
  403c28:	outs   dx,BYTE PTR ds:[esi]
  403c29:	jne    0x403c98
  403c2b:	gs jb  0x403c8f
  403c2e:	bound  ebp,QWORD PTR [ebp+eiz*2+0x60]
  403c32:	xor    DWORD PTR [eax],eax
  403c34:	inc    esi
  403c35:	imul   esi,DWORD PTR [edx+0x73],0x44724f74
  403c3c:	gs popaw 
  403c3f:	jne    0x403cad
  403c41:	je     0x403c43
  403c43:	pop    eax
  403c44:	ins    DWORD PTR es:[edi],dx
  403c45:	ins    BYTE PTR es:[edi],dx
  403c46:	inc    ebp
  403c47:	ins    BYTE PTR es:[edi],dx
  403c48:	gs ins DWORD PTR es:[edi],dx
  403c4a:	outs   dx,BYTE PTR gs:[esi]
  403c4c:	je     0x403c4e
  403c4e:	inc    ebx
  403c4f:	jb     0x403cb6
  403c51:	popa   
  403c52:	je     0x403cb9
  403c54:	inc    ebp
  403c55:	ins    BYTE PTR es:[edi],dx
  403c56:	gs ins DWORD PTR es:[edi],dx
  403c58:	outs   dx,BYTE PTR gs:[esi]
  403c5a:	je     0x403c5c
  403c5c:	push   ebx
  403c5d:	gs ins BYTE PTR es:[edi],dx
  403c5f:	arpl   WORD PTR gs:[ebx+edx*2+0x69],si
  403c64:	outs   dx,BYTE PTR ds:[esi]
  403c65:	ins    BYTE PTR es:[di],dx
  403c67:	gs dec esi
  403c69:	outs   dx,DWORD PTR ds:[esi]
  403c6a:	fs add BYTE PTR gs:[eax+0x6d],bl
  403c6f:	ins    BYTE PTR es:[edi],dx
  403c70:	inc    ecx
  403c71:	je     0x403ce7
  403c73:	jb     0x403cde
  403c75:	bound  esi,QWORD PTR [ebp+0x74]
  403c78:	add    BYTE PTR gs:[ebx+0x72],al
  403c7c:	gs popa 
  403c7e:	je     0x403ce5
  403c80:	inc    ecx
  403c81:	je     0x403cf7
  403c83:	jb     0x403cee
  403c85:	bound  esi,QWORD PTR [ebp+0x74]
  403c88:	add    BYTE PTR gs:[edx+0x6f],al
  403c8c:	outs   dx,DWORD PTR ds:[esi]
  403c8d:	ins    BYTE PTR es:[edi],dx
  403c8e:	gs popa 
  403c90:	outs   dx,BYTE PTR ds:[esi]
  403c91:	add    BYTE PTR [edi+ebp*2+0x53],dl
  403c95:	je     0x403d09
  403c97:	imul   ebp,DWORD PTR [esi+0x67],0x4c6f5400
  403c9e:	outs   dx,DWORD PTR ds:[esi]
  403c9f:	ja     0x403d06
  403ca1:	jb     0x403ca3
  403ca3:	jo     0x403d1a
  403ca5:	je     0x403d06
  403ca7:	push   esi
  403ca8:	popa   
  403ca9:	ins    BYTE PTR es:[edi],dx
  403caa:	jne    0x403d11
  403cac:	add    BYTE PTR [ebx+0x65],dl
  403caf:	je     0x403cff
  403cb1:	popa   
  403cb2:	ins    DWORD PTR es:[edi],dx
  403cb3:	gs fs dec ecx
  403cb6:	je     0x403d1d
  403cb8:	ins    DWORD PTR es:[edi],dx
  403cb9:	add    BYTE PTR [edi+ebp*2+0x61],dl
  403cbd:	jae    0x403d33
  403cbf:	inc    esp
  403cc0:	imul   esi,DWORD PTR [ebx+0x6d],0x61737369
  403cc7:	ins    BYTE PTR es:[edi],dx
  403cc8:	push   edx
  403cc9:	gs popa 
  403ccb:	jae    0x403d3c
  403ccd:	outs   dx,BYTE PTR ds:[esi]
  403cce:	add    BYTE PTR [edi+0x65],ah
  403cd1:	je     0x403d32
  403cd3:	push   edx
  403cd4:	gs popa 
  403cd6:	jae    0x403d47
  403cd8:	outs   dx,BYTE PTR ds:[esi]
  403cd9:	add    BYTE PTR [ebx+0x6f],al
  403cdc:	ins    DWORD PTR es:[edi],dx
  403cdd:	dec    ecx
  403cde:	ins    DWORD PTR es:[edi],dx
  403cdf:	jo     0x403d50
  403ce1:	jb     0x403d57
  403ce3:	inc    ecx
  403ce4:	je     0x403d5a
  403ce6:	jb     0x403d51
  403ce8:	bound  esi,QWORD PTR [ebp+0x74]
  403ceb:	add    BYTE PTR gs:[ecx+0x6e],cl
  403cef:	je     0x403d56
  403cf1:	jb     0x403d59
  403cf3:	popa   
  403cf4:	arpl   WORD PTR [ebp+0x54],sp
  403cf7:	jns    0x403d69
  403cf9:	gs inc ecx
  403cfb:	je     0x403d71
  403cfd:	jb     0x403d68
  403cff:	bound  esi,QWORD PTR [ebp+0x74]
  403d02:	add    BYTE PTR gs:[ebx+0x6f],al
  403d06:	ins    DWORD PTR es:[edi],dx
  403d07:	dec    ecx
  403d08:	outs   dx,BYTE PTR ds:[esi]
  403d09:	je     0x403d70
  403d0b:	jb     0x403d73
  403d0d:	popa   
  403d0e:	arpl   WORD PTR [ebp+0x54],sp
  403d11:	jns    0x403d83
  403d13:	add    BYTE PTR gs:[ebx+0x6c],al
  403d17:	popa   
  403d18:	jae    0x403d8d
  403d1a:	dec    ecx
  403d1b:	outs   dx,BYTE PTR ds:[esi]
  403d1c:	je     0x403d83
  403d1e:	jb     0x403d86
  403d20:	popa   
  403d21:	arpl   WORD PTR [ebp+0x41],sp
  403d24:	je     0x403d9a
  403d26:	jb     0x403d91
  403d28:	bound  esi,QWORD PTR [ebp+0x74]
  403d2b:	add    BYTE PTR gs:[ebx+0x6c],al
  403d2f:	popa   
  403d30:	jae    0x403da5
  403d32:	dec    ecx
  403d33:	outs   dx,BYTE PTR ds:[esi]
  403d34:	je     0x403d9b
  403d36:	jb     0x403d9e
  403d38:	popa   
  403d39:	arpl   WORD PTR [ebp+0x54],sp
  403d3c:	jns    0x403dae
  403d3e:	add    BYTE PTR gs:[ebp+0x49],dl
  403d42:	outs   dx,BYTE PTR ds:[esi]
  403d43:	je     0x403d78
  403d45:	xor    al,BYTE PTR [eax]
  403d47:	inc    ebp
  403d48:	js     0x403dad
  403d4a:	gs jo  0x403dc1
  403d4d:	imul   ebp,DWORD PTR [edi+0x6e],0x0
  403d54:	add    BYTE PTR ds:0x6f004e,ah
  403d5a:	and    BYTE PTR [eax],al
  403d5c:	popa   
  403d5d:	add    BYTE PTR [edx+0x0],dh
  403d60:	add    BYTE PTR [bp+di+0x0],dh
  403d64:	and    BYTE PTR [eax],al
  403d66:	jo     0x403d68
  403d68:	jb     0x403d6a
  403d6a:	outs   dx,DWORD PTR ds:[esi]
  403d6b:	add    BYTE PTR [esi+0x0],dh
  403d6e:	imul   eax,DWORD PTR [eax],0x650064
  403d74:	add    BYTE PTR fs:[esi],ch
  403d77:	add    BYTE PTR [edx],cl
  403d79:	add    BYTE PTR [eax],al
  403d7b:	add    edi,DWORD PTR [edi]
  403d7d:	add    BYTE PTR [eax],al
  403d7f:	add    eax,0x6d002d
  403d84:	add    DWORD PTR ds:0x74002d,eax
  403d8a:	add    DWORD PTR ds:0x70002d,eax
  403d90:	add    DWORD PTR ds:0x71002d,eax
  403d96:	add    DWORD PTR ds:0x77002d,eax
  403d9c:	add    DWORD PTR [eax+0x69004d81],eax
  403da2:	add    BYTE PTR [ebx+0x0],dh
  403da5:	jae    0x403da7
  403da7:	imul   eax,DWORD PTR [eax],0x67006e
  403dad:	and    BYTE PTR [eax],al
  403daf:	popa   
  403db0:	add    BYTE PTR [edx+0x0],dh
  403db3:	add    BYTE PTR [di+0x0],dh
  403db7:	ins    DWORD PTR es:[edi],dx
  403db8:	add    BYTE PTR [ebp+0x0],ah
  403dbb:	outs   dx,BYTE PTR ds:[esi]
  403dbc:	add    BYTE PTR [eax+eax*1+0x20],dh
  403dc0:	add    BYTE PTR [eax+eax*1+0x6f],dh
  403dc4:	add    BYTE PTR [eax],ah
  403dc6:	add    BYTE PTR ds:0x2e006d00,ch
  403dcc:	add    BYTE PTR [edx],cl
  403dce:	add    BYTE PTR [eax],ah
  403dd0:	add    BYTE PTR [ebx+0x0],dl
  403dd3:	jne    0x403dd5
  403dd5:	jo     0x403dd7
  403dd7:	jo     0x403dd9
  403dd9:	ins    BYTE PTR es:[edi],dx
  403dda:	add    BYTE PTR [ecx+0x0],bh
  403ddd:	and    BYTE PTR [eax],al
  403ddf:	popa   
  403de0:	add    BYTE PTR [edx+0x0],dh
  403de3:	add    BYTE PTR [di+0x0],dh
  403de7:	ins    DWORD PTR es:[edi],dx
  403de8:	add    BYTE PTR [ebp+0x0],ah
  403deb:	outs   dx,BYTE PTR ds:[esi]
  403dec:	add    BYTE PTR [eax+eax*1+0x20],dh
  403df0:	add    BYTE PTR [ecx+0x0],ah
  403df3:	jae    0x403df5
  403df5:	and    BYTE PTR [eax],al
  403df7:	sub    eax,0x20006d00
  403dfc:	add    BYTE PTR [edx],ah
  403dfe:	add    BYTE PTR [ebp+0x0],ch
  403e01:	add    BYTE PTR gs:[ebx+0x0],dh
  403e05:	jae    0x403e07
  403e07:	popa   
  403e08:	add    BYTE PTR [edi+0x0],ah
  403e0b:	add    BYTE PTR gs:[eax],ah
  403e0e:	add    BYTE PTR [ebx+0x0],dh
  403e11:	je     0x403e13
  403e13:	jb     0x403e15
  403e15:	imul   eax,DWORD PTR [eax],0x67006e
  403e1b:	and    al,BYTE PTR [eax]
  403e1d:	or     al,BYTE PTR [eax]
  403e1f:	add    DWORD PTR [eax+0x69004d87],eax
  403e25:	add    BYTE PTR [ebx+0x0],dh
  403e28:	jae    0x403e2a
  403e2a:	imul   eax,DWORD PTR [eax],0x67006e
  403e30:	and    BYTE PTR [eax],al
  403e32:	popa   
  403e33:	add    BYTE PTR [edx+0x0],dh
  403e36:	add    BYTE PTR [di+0x0],dh
  403e3a:	ins    DWORD PTR es:[edi],dx
  403e3b:	add    BYTE PTR [ebp+0x0],ah
  403e3e:	outs   dx,BYTE PTR ds:[esi]
  403e3f:	add    BYTE PTR [eax+eax*1+0x20],dh
  403e43:	add    BYTE PTR [eax+eax*1+0x6f],dh
  403e47:	add    BYTE PTR [eax],ah
  403e49:	add    BYTE PTR ds:0x2e007400,ch
  403e4f:	add    BYTE PTR [edx],cl
  403e51:	add    BYTE PTR [eax],ah
  403e53:	add    BYTE PTR [ebx+0x0],dl
  403e56:	jne    0x403e58
  403e58:	jo     0x403e5a
  403e5a:	jo     0x403e5c
  403e5c:	ins    BYTE PTR es:[edi],dx
  403e5d:	add    BYTE PTR [ecx+0x0],bh
  403e60:	and    BYTE PTR [eax],al
  403e62:	popa   
  403e63:	add    BYTE PTR [edx+0x0],dh
  403e66:	add    BYTE PTR [di+0x0],dh
  403e6a:	ins    DWORD PTR es:[edi],dx
  403e6b:	add    BYTE PTR [ebp+0x0],ah
  403e6e:	outs   dx,BYTE PTR ds:[esi]
  403e6f:	add    BYTE PTR [eax+eax*1+0x20],dh
  403e73:	add    BYTE PTR [ecx+0x0],ah
  403e76:	jae    0x403e78
  403e78:	and    BYTE PTR [eax],al
  403e7a:	sub    eax,0x20007400
  403e7f:	add    BYTE PTR [edx],ah
  403e81:	add    BYTE PTR [edx+0x0],ah
  403e84:	outs   dx,DWORD PTR ds:[esi]
  403e85:	add    BYTE PTR [eax+eax*1+0x64],ch
  403e89:	add    BYTE PTR [eax],ah
  403e8b:	add    BYTE PTR [eax+eax*1+0x69],dh
  403e8f:	add    BYTE PTR [eax+eax*1+0x6c],dh
  403e93:	add    BYTE PTR [ebp+0x0],ah
  403e96:	and    BYTE PTR [eax],al
  403e98:	jae    0x403e9a
  403e9a:	je     0x403e9c
  403e9c:	jb     0x403e9e
  403e9e:	imul   eax,DWORD PTR [eax],0x67006e
  403ea4:	and    al,BYTE PTR [eax]
  403ea6:	or     al,BYTE PTR [eax]
  403ea8:	add    DWORD PTR [ecx+0x4d],edi
  403eab:	add    BYTE PTR [ecx+0x0],ch
  403eae:	jae    0x403eb0
  403eb0:	jae    0x403eb2
  403eb2:	imul   eax,DWORD PTR [eax],0x67006e
  403eb8:	and    BYTE PTR [eax],al
  403eba:	popa   
  403ebb:	add    BYTE PTR [edx+0x0],dh
  403ebe:	add    BYTE PTR [di+0x0],dh
  403ec2:	ins    DWORD PTR es:[edi],dx
  403ec3:	add    BYTE PTR [ebp+0x0],ah
  403ec6:	outs   dx,BYTE PTR ds:[esi]
  403ec7:	add    BYTE PTR [eax+eax*1+0x20],dh
  403ecb:	add    BYTE PTR [eax+eax*1+0x6f],dh
  403ecf:	add    BYTE PTR [eax],ah
  403ed1:	add    BYTE PTR ds:0x2e007000,ch
  403ed7:	add    BYTE PTR [edx],cl
  403ed9:	add    BYTE PTR [eax],ah
  403edb:	add    BYTE PTR [ebx+0x0],dl
  403ede:	jne    0x403ee0
  403ee0:	jo     0x403ee2
  403ee2:	jo     0x403ee4
  403ee4:	ins    BYTE PTR es:[edi],dx
  403ee5:	add    BYTE PTR [ecx+0x0],bh
  403ee8:	and    BYTE PTR [eax],al
  403eea:	popa   
  403eeb:	add    BYTE PTR [edx+0x0],dh
  403eee:	add    BYTE PTR [di+0x0],dh
  403ef2:	ins    DWORD PTR es:[edi],dx
  403ef3:	add    BYTE PTR [ebp+0x0],ah
  403ef6:	outs   dx,BYTE PTR ds:[esi]
  403ef7:	add    BYTE PTR [eax+eax*1+0x20],dh
  403efb:	add    BYTE PTR [ecx+0x0],ah
  403efe:	jae    0x403f00
  403f00:	and    BYTE PTR [eax],al
  403f02:	sub    eax,0x20007000
  403f07:	add    BYTE PTR [edx],ah
  403f09:	add    BYTE PTR [ecx+0x0],ch
  403f0c:	ins    DWORD PTR es:[edi],dx
  403f0d:	add    BYTE PTR [ecx+0x0],ah
  403f10:	add    BYTE PTR [di+0x0],ah
  403f14:	and    BYTE PTR [eax],al
  403f16:	jo     0x403f18
  403f18:	popa   
  403f19:	add    BYTE PTR [eax+eax*1+0x68],dh
  403f1d:	add    BYTE PTR [edx],ah
  403f1f:	add    BYTE PTR [edx],cl
  403f21:	add    BYTE PTR [ecx],al
  403f23:	xchg   bl,ah
  403f25:	push   edi
  403f26:	add    BYTE PTR [ebp+0x0],ah
  403f29:	ins    BYTE PTR es:[edi],dx
  403f2a:	add    BYTE PTR [ebx+0x0],ah
  403f2d:	outs   dx,DWORD PTR ds:[esi]
  403f2e:	add    BYTE PTR [ebp+0x0],ch
  403f31:	add    BYTE PTR gs:[eax],ah
  403f34:	add    BYTE PTR [eax+eax*1+0x6f],dh
  403f38:	add    BYTE PTR [eax],ah
  403f3a:	add    BYTE PTR [eax+eax*1+0x6f],dh
  403f3e:	add    BYTE PTR [ecx+0x0],ah
  403f41:	jae    0x403f43
  403f43:	je     0x403f45
  403f45:	add    BYTE PTR cs:[edx],cl
  403f48:	add    BYTE PTR [eax+0x0],dl
  403f4b:	jb     0x403f4d
  403f4d:	outs   dx,DWORD PTR ds:[esi]
  403f4e:	add    BYTE PTR [esi+0x0],dh
  403f51:	imul   eax,DWORD PTR [eax],0x650064
  403f57:	and    BYTE PTR [eax],al
  403f59:	je     0x403f5b
  403f5b:	outs   dx,DWORD PTR ds:[esi]
  403f5c:	add    BYTE PTR [ecx+0x0],ah
  403f5f:	jae    0x403f61
  403f61:	je     0x403f63
  403f63:	and    BYTE PTR [eax],al
  403f65:	ja     0x403f67
  403f67:	imul   eax,DWORD PTR [eax],0x680074
  403f6d:	and    BYTE PTR [eax],al
  403f6f:	popa   
  403f70:	add    BYTE PTR [eax],ah
  403f72:	add    BYTE PTR [ebp+0x0],ch
  403f75:	add    BYTE PTR gs:[ebx+0x0],dh
  403f79:	jae    0x403f7b
  403f7b:	popa   
  403f7c:	add    BYTE PTR [edi+0x0],ah
  403f7f:	add    BYTE PTR gs:[eax],ah
  403f82:	add    BYTE PTR [ecx+0x0],ah
  403f85:	outs   dx,BYTE PTR ds:[esi]
  403f86:	add    BYTE PTR [eax+eax*1+0x20],ah
  403f8a:	add    BYTE PTR [eax+eax*1+0x69],ah
  403f8e:	add    BYTE PTR [ebx+0x0],dh
  403f91:	jo     0x403f93
  403f93:	ins    BYTE PTR es:[edi],dx
  403f94:	add    BYTE PTR [ecx+0x0],ah
  403f97:	jns    0x403f99
  403f99:	and    BYTE PTR [eax],al
  403f9b:	imul   eax,DWORD PTR [eax],0x2d0074
  403fa1:	or     al,BYTE PTR [eax]
  403fa3:	jbe    0x403fa5
  403fa5:	imul   eax,DWORD PTR [eax],0x200061
  403fab:	je     0x403fad
  403fad:	push   0x20006500
  403fb2:	add    BYTE PTR [edi+0x0],ah
  403fb5:	jb     0x403fb7
  403fb7:	popa   
  403fb8:	add    BYTE PTR [eax+0x0],dh
  403fbb:	push   0x63006900
  403fc0:	add    BYTE PTR [ecx+0x0],ah
  403fc3:	ins    BYTE PTR es:[edi],dx
  403fc4:	add    BYTE PTR [eax],ah
  403fc6:	add    BYTE PTR [esi+0x0],ch
  403fc9:	outs   dx,DWORD PTR ds:[esi]
  403fca:	add    BYTE PTR [eax+eax*1+0x69],dh
  403fce:	add    BYTE PTR [esi+0x0],ah
  403fd1:	imul   eax,DWORD PTR [eax],0x610063
  403fd7:	je     0x403fd9
  403fd9:	imul   eax,DWORD PTR [eax],0x6e006f
  403fdf:	and    BYTE PTR [eax],al
  403fe1:	jae    0x403fe3
  403fe3:	jns    0x403fe5
  403fe5:	jae    0x403fe7
  403fe7:	je     0x403fe9
  403fe9:	add    BYTE PTR gs:[ebp+0x0],ch
  403fed:	add    BYTE PTR cs:[edx],cl
  403ff0:	add    BYTE PTR ds:0x65004e00,ch
  403ff6:	add    BYTE PTR [eax+eax*1+0x73],ch
  403ffa:	add    BYTE PTR [edx],cl
  403ffc:	add    BYTE PTR [edx],cl
  403ffe:	add    BYTE PTR ds:0x2d002d00,ch
  404004:	add    BYTE PTR ds:0x55002000,ch
  40400a:	add    BYTE PTR [ebx+0x0],dh
  40400d:	popa   
  40400e:	add    BYTE PTR [edi+0x0],ah
  404011:	add    BYTE PTR gs:[eax],ah
  404014:	add    BYTE PTR ds:0x2d002d00,ch
  40401a:	add    BYTE PTR ds:0x74000a00,ch
  404020:	add    BYTE PTR [edi+0x0],ch
  404023:	popa   
  404024:	add    BYTE PTR [ebx+0x0],dh
  404027:	je     0x404029
  404029:	and    BYTE PTR [eax],al
  40402b:	cmp    al,0x0
  40402d:	jae    0x40402f
  40402f:	je     0x404031
  404031:	jb     0x404033
  404033:	imul   eax,DWORD PTR [eax],0x67006e
  404039:	add    BYTE PTR ds:[eax+eax*1+0x5b],bh
  40403e:	add    BYTE PTR ds:0x20007400,ch
  404044:	add    BYTE PTR [eax+eax*1],bh
  404047:	jae    0x404049
  404049:	je     0x40404b
  40404b:	jb     0x40404d
  40404d:	imul   eax,DWORD PTR [eax],0x67006e
  404053:	add    BYTE PTR ds:[ebp+0x0],bl
  404057:	pop    ebx
  404058:	add    BYTE PTR ds:0x20006d00,ch
  40405e:	add    BYTE PTR [eax+eax*1],bh
  404061:	jae    0x404063
  404063:	je     0x404065
  404065:	jb     0x404067
  404067:	imul   eax,DWORD PTR [eax],0x67006e
  40406d:	add    BYTE PTR ds:[ebp+0x0],bl
  404071:	pop    ebx
  404072:	add    BYTE PTR ds:0x20007000,ch
  404078:	add    BYTE PTR [eax+eax*1],bh
  40407b:	jae    0x40407d
  40407d:	je     0x40407f
  40407f:	jb     0x404081
  404081:	imul   eax,DWORD PTR [eax],0x67006e
  404087:	add    BYTE PTR ds:[ebp+0x0],bl
  40408b:	or     al,BYTE PTR [eax]
  40408d:	or     al,BYTE PTR [eax]
  40408f:	sub    eax,0x2d002d00
  404094:	add    BYTE PTR ds:0x41002000,ch
  40409a:	add    BYTE PTR [edx+0x0],dh
  40409d:	add    BYTE PTR [bp+di+0x0],dh
  4040a1:	and    BYTE PTR [eax],al
  4040a3:	sub    eax,0x2d002d00
  4040a8:	add    BYTE PTR ds:0x3c000a00,ch
  4040ae:	add    BYTE PTR [ebx+0x0],dh
  4040b1:	je     0x4040b3
  4040b3:	jb     0x4040b5
  4040b5:	imul   eax,DWORD PTR [eax],0x67006e
  4040bb:	add    BYTE PTR ds:[ecx],cl
  4040be:	add    BYTE PTR [ecx],cl
  4040c0:	add    BYTE PTR [eax+eax*1+0x20],bh
  4040c4:	add    BYTE PTR [eax+eax*1+0x6f],dl
  4040c8:	add    BYTE PTR [ecx+0x0],ah
  4040cb:	jae    0x4040cd
  4040cd:	je     0x4040cf
  4040cf:	and    BYTE PTR [eax],al
  4040d1:	cmp    al,0x0
  4040d3:	jae    0x4040d5
  4040d5:	je     0x4040d7
  4040d7:	jb     0x4040d9
  4040d9:	imul   eax,DWORD PTR [eax],0x67006e
  4040df:	add    BYTE PTR ds:[eax+eax*1],ch
  4040e3:	and    BYTE PTR [eax],al
  4040e5:	outs   dx,BYTE PTR ds:[esi]
  4040e6:	add    BYTE PTR [edi+0x0],ch
  4040e9:	and    BYTE PTR [eax],al
  4040eb:	popa   
  4040ec:	add    BYTE PTR [eax+eax*1+0x64],ah
  4040f0:	add    BYTE PTR [esi],ch
  4040f2:	add    BYTE PTR [eax],ah
  4040f4:	add    BYTE PTR [ecx+0x0],ah
  4040f7:	jb     0x4040f9
  4040f9:	add    BYTE PTR [bp+di+0x0],dh
  4040fd:	and    BYTE PTR [eax],al
  4040ff:	ja     0x404101
  404101:	imul   eax,DWORD PTR [eax],0x6c006c
  404107:	and    BYTE PTR [eax],al
  404109:	bound  eax,QWORD PTR [eax]
  40410b:	add    BYTE PTR gs:[eax],ah
  40410e:	add    BYTE PTR [edx+0x0],dh
  404111:	add    BYTE PTR gs:[ecx+0x0],ah
  404115:	add    BYTE PTR fs:[esi],ch
  404118:	add    BYTE PTR [edx],cl
  40411a:	add    BYTE PTR [ebx+0x0],bl
  40411d:	sub    eax,0x5d007400
  404122:	add    BYTE PTR [eax],ah
  404124:	add    BYTE PTR [eax+eax*1],bh
  404127:	je     0x404129
  404129:	imul   eax,DWORD PTR [eax],0x6c0074
  40412f:	add    BYTE PTR gs:[eax],ah
  404132:	add    BYTE PTR [ebx+0x0],dh
  404135:	je     0x404137
  404137:	jb     0x404139
  404139:	imul   eax,DWORD PTR [eax],0x67006e
  40413f:	add    BYTE PTR ds:[ecx],cl
  404142:	add    BYTE PTR [eax+eax*1+0x20],bh
  404146:	add    BYTE PTR [eax+eax*1+0x69],al
  40414a:	add    BYTE PTR [ebx+0x0],dh
  40414d:	jo     0x40414f
  40414f:	ins    BYTE PTR es:[edi],dx
  404150:	add    BYTE PTR [ecx+0x0],ah
  404153:	jns    0x404155
  404155:	add    BYTE PTR gs:[eax+eax*1+0x20],ah
  40415a:	add    BYTE PTR [edi+0x0],ch
  40415d:	outs   dx,BYTE PTR ds:[esi]
  40415e:	add    BYTE PTR [eax],ah
  404160:	add    BYTE PTR [eax+eax*1+0x68],dh
  404164:	add    BYTE PTR [ebp+0x0],ah
  404167:	and    BYTE PTR [eax],al
  404169:	data16 add BYTE PTR [ecx+0x0],ch
  40416d:	jb     0x40416f
  40416f:	jae    0x404171
  404171:	je     0x404173
  404173:	and    BYTE PTR [eax],al
  404175:	ins    BYTE PTR es:[edi],dx
  404176:	add    BYTE PTR [ecx+0x0],ch
  404179:	outs   dx,BYTE PTR ds:[esi]
  40417a:	add    BYTE PTR [ebp+0x0],ah
  40417d:	and    BYTE PTR [eax],al
  40417f:	outs   dx,DWORD PTR ds:[esi]
  404180:	add    BYTE PTR [esi+0x0],ah
  404183:	and    BYTE PTR [eax],al
  404185:	je     0x404187
  404187:	push   0x20006500
  40418c:	add    BYTE PTR [eax+eax*1+0x6f],dh
  404190:	add    BYTE PTR [ecx+0x0],ah
  404193:	jae    0x404195
  404195:	je     0x404197
  404197:	add    BYTE PTR cs:[edx],cl
  40419a:	add    BYTE PTR [ebx+0x0],bl
  40419d:	sub    eax,0x5d006d00
  4041a2:	add    BYTE PTR [eax],ah
  4041a4:	add    BYTE PTR [eax+eax*1],bh
  4041a7:	ins    DWORD PTR es:[edi],dx
  4041a8:	add    BYTE PTR [ebp+0x0],ah
  4041ab:	jae    0x4041ad
  4041ad:	jae    0x4041af
  4041af:	popa   
  4041b0:	add    BYTE PTR [edi+0x0],ah
  4041b3:	add    BYTE PTR gs:[eax],ah
  4041b6:	add    BYTE PTR [ebx+0x0],dh
  4041b9:	je     0x4041bb
  4041bb:	jb     0x4041bd
  4041bd:	imul   eax,DWORD PTR [eax],0x67006e
  4041c3:	add    BYTE PTR ds:[ecx],cl
  4041c6:	add    BYTE PTR [eax+eax*1+0x20],bh
  4041ca:	add    BYTE PTR [eax+eax*1+0x69],al
  4041ce:	add    BYTE PTR [ebx+0x0],dh
  4041d1:	jo     0x4041d3
  4041d3:	ins    BYTE PTR es:[edi],dx
  4041d4:	add    BYTE PTR [ecx+0x0],ah
  4041d7:	jns    0x4041d9
  4041d9:	add    BYTE PTR gs:[eax+eax*1+0x20],ah
  4041de:	add    BYTE PTR [edi+0x0],ch
  4041e1:	outs   dx,BYTE PTR ds:[esi]
  4041e2:	add    BYTE PTR [eax],ah
  4041e4:	add    BYTE PTR [eax+eax*1+0x68],dh
  4041e8:	add    BYTE PTR [ebp+0x0],ah
  4041eb:	and    BYTE PTR [eax],al
  4041ed:	jb     0x4041ef
  4041ef:	add    BYTE PTR gs:[ebp+0x0],ch
  4041f3:	popa   
  4041f4:	add    BYTE PTR [ecx+0x0],ch
  4041f7:	outs   dx,BYTE PTR ds:[esi]
  4041f8:	add    BYTE PTR [ecx+0x0],ch
  4041fb:	outs   dx,BYTE PTR ds:[esi]
  4041fc:	add    BYTE PTR [edi+0x0],ah
  4041ff:	and    BYTE PTR [eax],al
  404201:	ins    BYTE PTR es:[edi],dx
  404202:	add    BYTE PTR [ecx+0x0],ch
  404205:	outs   dx,BYTE PTR ds:[esi]
  404206:	add    BYTE PTR [ebp+0x0],ah
  404209:	jae    0x40420b
  40420b:	sub    al,0x0
  40420d:	and    BYTE PTR [eax],al
  40420f:	ja     0x404211
  404211:	jb     0x404213
  404213:	popa   
  404214:	add    BYTE PTR [eax+0x0],dh
  404217:	jo     0x404219
  404219:	add    BYTE PTR gs:[eax+eax*1+0x2e],ah
  40421e:	add    BYTE PTR [edx],cl
  404220:	add    BYTE PTR [ebx+0x0],bl
  404223:	sub    eax,0x5d007000
  404228:	add    BYTE PTR [eax],ah
  40422a:	add    BYTE PTR [eax+eax*1],bh
  40422d:	imul   eax,DWORD PTR [eax],0x61006d
  404233:	add    BYTE PTR [di+0x0],ah
  404237:	and    BYTE PTR [eax],al
  404239:	push   ebp
  40423a:	add    BYTE PTR [edx+0x0],dl
  40423d:	dec    ecx
  40423e:	add    BYTE PTR [esi],bh
  404240:	add    BYTE PTR [ecx],cl
  404242:	add    BYTE PTR [eax+eax*1+0x20],bh
  404246:	add    BYTE PTR [eax+eax*1+0x69],al
  40424a:	add    BYTE PTR [ebx+0x0],dh
  40424d:	jo     0x40424f
  40424f:	ins    BYTE PTR es:[edi],dx
  404250:	add    BYTE PTR [ecx+0x0],ah
  404253:	jns    0x404255
  404255:	and    BYTE PTR [eax],al
  404257:	je     0x404259
  404259:	outs   dx,DWORD PTR ds:[esi]
  40425a:	add    BYTE PTR [ecx+0x0],ah
  40425d:	jae    0x40425f
  40425f:	je     0x404261
  404261:	and    BYTE PTR [eax],al
  404263:	ja     0x404265
  404265:	imul   eax,DWORD PTR [eax],0x680074
  40426b:	and    BYTE PTR [eax],al
  40426d:	popa   
  40426e:	add    BYTE PTR [esi+0x0],ch
  404271:	and    BYTE PTR [eax],al
  404273:	imul   eax,DWORD PTR [eax],0x61006d
  404279:	add    BYTE PTR [di+0x0],ah
  40427d:	or     al,BYTE PTR [eax]
  40427f:	pop    ebx
  404280:	add    BYTE PTR ds:0x5d007100,ch
  404286:	add    BYTE PTR [eax],ah
  404288:	add    BYTE PTR [ecx],cl
  40428a:	add    BYTE PTR [ecx],cl
  40428c:	add    BYTE PTR [ecx],cl
  40428e:	add    BYTE PTR [eax+eax*1+0x20],bh
  404292:	add    BYTE PTR [eax+eax*1+0x65],al
  404296:	add    BYTE PTR [ecx+0x0],ah
  404299:	arpl   WORD PTR [eax],ax
  40429b:	je     0x40429d
  40429d:	imul   eax,DWORD PTR [eax],0x610076
  4042a3:	je     0x4042a5
  4042a5:	add    BYTE PTR gs:[eax],ah
  4042a8:	add    BYTE PTR [ebx+0x0],dh
  4042ab:	outs   dx,DWORD PTR ds:[esi]
  4042ac:	add    BYTE PTR [ebp+0x0],dh
  4042af:	outs   dx,BYTE PTR ds:[esi]
  4042b0:	add    BYTE PTR [eax+eax*1+0x20],ah
  4042b4:	add    BYTE PTR [eax],ch
  4042b6:	add    BYTE PTR [ecx+0x0],dh
  4042b9:	jne    0x4042bb
  4042bb:	imul   eax,DWORD PTR [eax],0x740065
  4042c1:	sub    DWORD PTR [eax],eax
  4042c3:	add    BYTE PTR cs:[edx],cl
  4042c6:	add    BYTE PTR [ebx+0x0],bl
  4042c9:	sub    eax,0x5d007700
  4042ce:	add    BYTE PTR [eax],ah
  4042d0:	add    BYTE PTR [ecx],cl
  4042d2:	add    BYTE PTR [ecx],cl
  4042d4:	add    BYTE PTR [ecx],cl
  4042d6:	add    BYTE PTR [eax+eax*1+0x20],bh
  4042da:	add    BYTE PTR [edi+0x0],dl
  4042dd:	popa   
  4042de:	add    BYTE PTR [ecx+0x0],ch
  4042e1:	je     0x4042e3
  4042e3:	and    BYTE PTR [eax],al
  4042e5:	data16 add BYTE PTR [edi+0x0],ch
  4042e9:	jb     0x4042eb
  4042eb:	and    BYTE PTR [eax],al
  4042ed:	je     0x4042ef
  4042ef:	outs   dx,DWORD PTR ds:[esi]
  4042f0:	add    BYTE PTR [ecx+0x0],ah
  4042f3:	jae    0x4042f5
  4042f5:	je     0x4042f7
  4042f7:	and    BYTE PTR [eax],al
  4042f9:	je     0x4042fb
  4042fb:	outs   dx,DWORD PTR ds:[esi]
  4042fc:	add    BYTE PTR [eax],ah
  4042fe:	add    BYTE PTR [ebp+0x0],ah
  404301:	js     0x404303
  404303:	jo     0x404305
  404305:	imul   eax,DWORD PTR [eax],0x650072
  40430b:	and    BYTE PTR [eax],al
  40430d:	outs   dx,DWORD PTR ds:[esi]
  40430e:	add    BYTE PTR [edx+0x0],dh
  404311:	and    BYTE PTR [eax],al
  404313:	popa   
  404314:	add    BYTE PTR [ebx+0x0],ah
  404317:	je     0x404319
  404319:	imul   eax,DWORD PTR [eax],0x610076
  40431f:	je     0x404321
  404321:	add    BYTE PTR gs:[esi],ch
  404324:	add    BYTE PTR [edx],cl
  404326:	add    BYTE PTR [edi],bh
  404328:	add    BYTE PTR [ecx],cl
  40432a:	add    BYTE PTR [ecx],cl
  40432c:	add    BYTE PTR [ecx],cl
  40432e:	add    BYTE PTR [eax+eax*1+0x20],bh
  404332:	add    BYTE PTR [eax+0x0],dl
  404335:	jb     0x404337
  404337:	imul   eax,DWORD PTR [eax],0x74006e
  40433d:	and    BYTE PTR [eax],al
  40433f:	je     0x404341
  404341:	push   0x73006500
  404346:	add    BYTE PTR [ebp+0x0],ah
  404349:	and    BYTE PTR [eax],al
  40434b:	imul   eax,DWORD PTR [eax],0x74006e
  404351:	jb     0x404353
  404353:	jne    0x404355
  404355:	arpl   WORD PTR [eax],ax
  404357:	je     0x404359
  404359:	imul   eax,DWORD PTR [eax],0x6e006f
  40435f:	jae    0x404361
  404361:	add    BYTE PTR cs:[eax],ah
  404364:	add    BYTE PTR [ebx+0x0],dl
  404367:	popa   
  404368:	add    BYTE PTR [ebp+0x0],ch
  40436b:	add    BYTE PTR gs:[eax],ah
  40436e:	add    BYTE PTR [ecx+0x0],ah
  404371:	jae    0x404373
  404373:	and    BYTE PTR [eax],al
  404375:	outs   dx,BYTE PTR ds:[esi]
  404376:	add    BYTE PTR [edi+0x0],ch
  404379:	and    BYTE PTR [eax],al
  40437b:	popa   
  40437c:	add    BYTE PTR [edx+0x0],dh
  40437f:	add    BYTE PTR [bp+di+0x0],dh
  404383:	add    BYTE PTR cs:[edx],cl
  404386:	add    BYTE PTR [ebp+0x0],al
  404389:	js     0x40438b
  40438b:	imul   eax,DWORD PTR [eax],0x200074
  404391:	push   ebx
  404392:	add    BYTE PTR [eax+eax*1+0x61],dh
  404396:	add    BYTE PTR [eax+eax*1+0x75],dh
  40439a:	add    BYTE PTR [ebx+0x0],dh
  40439d:	or     DWORD PTR [eax],eax
  40439f:	cmp    al,BYTE PTR [eax]
  4043a1:	and    BYTE PTR [eax],al
  4043a3:	and    BYTE PTR [eax],al
  4043a5:	inc    ebp
  4043a6:	add    BYTE PTR [eax+0x0],bh
  4043a9:	imul   eax,DWORD PTR [eax],0x200074
  4043af:	inc    ebx
  4043b0:	add    BYTE PTR [edi+0x0],ch
  4043b3:	add    BYTE PTR fs:[ebp+0x0],ah
  4043b7:	or     al,BYTE PTR [eax]
  4043b9:	inc    esi
  4043ba:	add    BYTE PTR [ecx+0x0],ah
  4043bd:	imul   eax,DWORD PTR [eax],0x65006c
  4043c3:	add    BYTE PTR fs:[ecx],cl
  4043c6:	add    BYTE PTR [ecx],cl
  4043c8:	add    BYTE PTR [edx],bh
  4043ca:	add    BYTE PTR [eax],ah
  4043cc:	add    BYTE PTR ds:0xa003100,ch
  4043d2:	add    BYTE PTR [ebx+0x0],dl
  4043d5:	jne    0x4043d7
  4043d7:	arpl   WORD PTR [eax],ax
  4043d9:	arpl   WORD PTR [eax],ax
  4043db:	add    BYTE PTR gs:[ebx+0x0],dh
  4043df:	jae    0x4043e1
  4043e1:	or     DWORD PTR [eax],eax
  4043e3:	or     DWORD PTR [eax],eax
  4043e5:	cmp    al,BYTE PTR [eax]
  4043e7:	and    BYTE PTR [eax],al
  4043e9:	and    BYTE PTR [eax],al
  4043eb:	xor    BYTE PTR [eax],al
  4043ed:	or     al,BYTE PTR [eax]
  4043ef:	dec    eax
  4043f0:	add    BYTE PTR [ecx+0x0],ch
  4043f3:	add    BYTE PTR fs:[eax+eax*1+0x65],ah
  4043f8:	add    BYTE PTR [esi+0x0],ch
  4043fb:	or     DWORD PTR [eax],eax
  4043fd:	or     DWORD PTR [eax],eax
  4043ff:	cmp    al,BYTE PTR [eax]
  404401:	and    BYTE PTR [eax],al
  404403:	and    BYTE PTR [eax],al
  404405:	xor    DWORD PTR [eax],eax
  404407:	or     al,BYTE PTR [eax]
  404409:	inc    esp
  40440a:	add    BYTE PTR [ecx+0x0],ch
  40440d:	jae    0x40440f
  40440f:	ins    DWORD PTR es:[edi],dx
  404410:	add    BYTE PTR [ecx+0x0],ch
  404413:	jae    0x404415
  404415:	jae    0x404417
  404417:	add    BYTE PTR gs:[eax+eax*1+0x9],ah
  40441c:	add    BYTE PTR [edx],bh
  40441e:	add    BYTE PTR [eax],ah
  404420:	add    BYTE PTR [eax],ah
  404422:	add    BYTE PTR [edx],dh
  404424:	add    BYTE PTR [edx],cl
  404426:	add    BYTE PTR [eax+eax*1+0x69],dl
  40442a:	add    BYTE PTR [ebp+0x0],ch
  40442d:	add    BYTE PTR gs:[edi+0x0],ch
  404431:	jne    0x404433
  404433:	je     0x404435
  404435:	or     DWORD PTR [eax],eax
  404437:	or     DWORD PTR [eax],eax
  404439:	cmp    al,BYTE PTR [eax]
  40443b:	and    BYTE PTR [eax],al
  40443d:	and    BYTE PTR [eax],al
  40443f:	xor    eax,DWORD PTR [eax]
  404441:	or     al,BYTE PTR [eax]
  404443:	or     al,BYTE PTR [eax]
  404445:	sub    eax,0x2d002d00
  40444a:	add    BYTE PTR ds:0x49002000,ch
  404450:	add    BYTE PTR [ebp+0x0],ch
  404453:	popa   
  404454:	add    BYTE PTR [edi+0x0],ah
  404457:	add    BYTE PTR gs:[eax],ah
  40445a:	add    BYTE PTR [esi+0x0],cl
  40445d:	outs   dx,DWORD PTR ds:[esi]
  40445e:	add    BYTE PTR [eax+eax*1+0x65],dh
  404462:	add    BYTE PTR [ebx+0x0],dh
  404465:	and    BYTE PTR [eax],al
  404467:	sub    eax,0x2d002d00
  40446c:	add    BYTE PTR ds:0x49000a00,ch
  404472:	add    BYTE PTR [ebp+0x0],ch
  404475:	popa   
  404476:	add    BYTE PTR [edi+0x0],ah
  404479:	add    BYTE PTR gs:[ebx+0x0],dh
  40447d:	and    BYTE PTR [eax],al
  40447f:	ins    DWORD PTR es:[edi],dx
  404480:	add    BYTE PTR [ebp+0x0],dh
  404483:	jae    0x404485
  404485:	je     0x404487
  404487:	and    BYTE PTR [eax],al
  404489:	bound  eax,QWORD PTR [eax]
  40448b:	add    BYTE PTR gs:[eax],ah
  40448e:	add    BYTE PTR [esi],ch
  404490:	add    BYTE PTR [eax+0x0],dh
  404493:	outs   dx,BYTE PTR ds:[esi]
  404494:	add    BYTE PTR [edi+0x0],ah
  404497:	and    BYTE PTR [eax],al
  404499:	ja     0x40449b
  40449b:	imul   eax,DWORD PTR [eax],0x680074
  4044a1:	cmp    al,BYTE PTR [eax]
  4044a3:	or     al,BYTE PTR [eax]
  4044a5:	or     DWORD PTR [eax],eax
  4044a7:	ins    DWORD PTR es:[edi],dx
  4044a8:	add    BYTE PTR [ecx+0x0],ah
  4044ab:	js     0x4044ad
  4044ad:	imul   eax,DWORD PTR [eax],0x75006d
  4044b3:	ins    DWORD PTR es:[edi],dx
  4044b4:	add    BYTE PTR [eax],ah
  4044b6:	add    BYTE PTR [eax+eax*1+0x69],ah
  4044ba:	add    BYTE PTR [ebp+0x0],ch
  4044bd:	add    BYTE PTR gs:[esi+0x0],ch
  4044c1:	jae    0x4044c3
  4044c3:	imul   eax,DWORD PTR [eax],0x6e006f
  4044c9:	jae    0x4044cb
  4044cb:	and    BYTE PTR [eax],al
  4044cd:	outs   dx,DWORD PTR ds:[esi]
  4044ce:	add    BYTE PTR [esi+0x0],ah
  4044d1:	and    BYTE PTR [eax],al
  4044d3:	xor    DWORD PTR [eax],eax
  4044d5:	xor    BYTE PTR [eax],al
  4044d7:	xor    al,BYTE PTR [eax]
  4044d9:	xor    al,0x0
  4044db:	js     0x4044dd
  4044dd:	xor    DWORD PTR [eax],eax
  4044df:	xor    BYTE PTR [eax],al
  4044e1:	xor    al,BYTE PTR [eax]
  4044e3:	xor    al,0x0
  4044e5:	or     al,BYTE PTR [eax]
  4044e7:	or     DWORD PTR [eax],eax
  4044e9:	jae    0x4044eb
  4044eb:	imul   eax,DWORD PTR [eax],0x65007a
  4044f1:	and    BYTE PTR [eax],al
  4044f3:	cmp    al,0x0
  4044f5:	cmp    eax,0x32002000
  4044fa:	add    BYTE PTR [eax],dh
  4044fc:	add    BYTE PTR [eax],dh
  4044fe:	add    BYTE PTR [ebx+0x0],ch
  404501:	bound  eax,QWORD PTR [eax]
  404503:	or     al,BYTE PTR [eax]
  404505:	push   esp
  404506:	add    BYTE PTR [eax+0x0],ch
  404509:	add    BYTE PTR gs:[ebx+0x0],dh
  40450d:	add    BYTE PTR gs:[eax],ah
  404510:	add    BYTE PTR [eax+eax*1+0x69],ch
  404514:	add    BYTE PTR [ebp+0x0],ch
  404517:	imul   eax,DWORD PTR [eax],0x610074
  40451d:	je     0x40451f
  40451f:	imul   eax,DWORD PTR [eax],0x6e006f
  404525:	jae    0x404527
  404527:	and    BYTE PTR [eax],al
  404529:	popa   
  40452a:	add    BYTE PTR [edx+0x0],dh
  40452d:	add    BYTE PTR gs:[eax],ah
  404530:	add    BYTE PTR [eax+eax*1+0x75],ah
  404534:	add    BYTE PTR [ebp+0x0],ah
  404537:	and    BYTE PTR [eax],al
  404539:	je     0x40453b
  40453b:	outs   dx,DWORD PTR ds:[esi]
  40453c:	add    BYTE PTR [eax],ah
  40453e:	add    BYTE PTR [eax+eax*1+0x68],dh
  404542:	add    BYTE PTR [ebp+0x0],ah
  404545:	and    BYTE PTR [eax],al
  404547:	push   esp
  404548:	add    BYTE PTR [edi+0x0],ch
  40454b:	popa   
  40454c:	add    BYTE PTR [ebx+0x0],dh
  40454f:	je     0x404551
  404551:	and    BYTE PTR [eax],al
  404553:	outs   dx,BYTE PTR ds:[esi]
  404554:	add    BYTE PTR [edi+0x0],ch
  404557:	je     0x404559
  404559:	imul   eax,DWORD PTR [eax],0x690066
  40455f:	arpl   WORD PTR [eax],ax
  404561:	popa   
  404562:	add    BYTE PTR [eax+eax*1+0x69],dh
  404566:	add    BYTE PTR [edi+0x0],ch
  404569:	outs   dx,BYTE PTR ds:[esi]
  40456a:	add    BYTE PTR [eax],ah
  40456c:	add    BYTE PTR [ebx+0x0],dh
  40456f:	jns    0x404571
  404571:	jae    0x404573
  404573:	je     0x404575
  404575:	add    BYTE PTR gs:[ebp+0x0],ch
  404579:	add    BYTE PTR cs:[edx],cl
  40457c:	add    BYTE PTR [eax+eax*1+0x68],dl
  404580:	add    BYTE PTR [ecx+0x0],ch
  404583:	jae    0x404585
  404585:	and    BYTE PTR [eax],al
  404587:	jae    0x404589
  404589:	push   0x75006f00
  40458e:	add    BYTE PTR [eax+eax*1+0x64],ch
  404592:	add    BYTE PTR [eax],ah
  404594:	add    BYTE PTR [edi+0x0],ah
  404597:	outs   dx,DWORD PTR ds:[esi]
  404598:	add    BYTE PTR [eax],ah
  40459a:	add    BYTE PTR [edi+0x0],dh
  40459d:	imul   eax,DWORD PTR [eax],0x680074
  4045a3:	outs   dx,DWORD PTR ds:[esi]
  4045a4:	add    BYTE PTR [ebp+0x0],dh
  4045a7:	je     0x4045a9
  4045a9:	and    BYTE PTR [eax],al
  4045ab:	jae    0x4045ad
  4045ad:	popa   
  4045ae:	add    BYTE PTR [ecx+0x0],bh
  4045b1:	imul   eax,DWORD PTR [eax],0x67006e
  4045b7:	sub    al,0x0
  4045b9:	and    BYTE PTR [eax],al
  4045bb:	bound  eax,QWORD PTR [eax]
  4045bd:	jne    0x4045bf
  4045bf:	je     0x4045c1
  4045c1:	and    BYTE PTR [eax],al
  4045c3:	ja     0x4045c5
  4045c5:	imul   eax,DWORD PTR [eax],0x64006e
  4045cb:	outs   dx,DWORD PTR ds:[esi]
  4045cc:	add    BYTE PTR [edi+0x0],dh
  4045cf:	jae    0x4045d1
  4045d1:	and    BYTE PTR [eax],al
  4045d3:	jae    0x4045d5
  4045d5:	je     0x4045d7
  4045d7:	jns    0x4045d9
  4045d9:	ins    BYTE PTR es:[edi],dx
  4045da:	add    BYTE PTR [ebp+0x0],ah
  4045dd:	and    BYTE PTR [eax],al
  4045df:	jo     0x4045e1
  4045e1:	popa   
  4045e2:	add    BYTE PTR [eax+eax*1+0x68],dh
  4045e6:	add    BYTE PTR [ebx+0x0],dh
  4045e9:	and    BYTE PTR [eax],al
  4045eb:	popa   
  4045ec:	add    BYTE PTR [edx+0x0],dh
  4045ef:	add    BYTE PTR gs:[eax],ah
  4045f2:	add    BYTE PTR [edx+0x0],dh
  4045f5:	add    BYTE PTR gs:[ecx+0x0],dh
  4045f9:	jne    0x4045fb
  4045fb:	imul   eax,DWORD PTR [eax],0x650072
  404601:	add    BYTE PTR fs:[esi],ch
  404604:	add    BYTE PTR [edx],cl
  404606:	add    BYTE PTR [ecx],al
  404608:	popa   
  404609:	pop    esp
  40460a:	add    BYTE PTR [ebp+0x0],cl
  40460d:	imul   eax,DWORD PTR [eax],0x720063
  404613:	outs   dx,DWORD PTR ds:[esi]
  404614:	add    BYTE PTR [ebx+0x0],dh
  404617:	outs   dx,DWORD PTR ds:[esi]
  404618:	add    BYTE PTR [esi+0x0],ah
  40461b:	je     0x40461d
  40461d:	pop    esp
  40461e:	add    BYTE PTR [edi+0x0],dl
  404621:	imul   eax,DWORD PTR [eax],0x64006e
  404627:	outs   dx,DWORD PTR ds:[esi]
  404628:	add    BYTE PTR [edi+0x0],dh
  40462b:	jae    0x40462d
  40462d:	pop    esp
  40462e:	add    BYTE PTR [ebx+0x0],dl
  404631:	je     0x404633
  404633:	popa   
  404634:	add    BYTE PTR [edx+0x0],dh
  404637:	je     0x404639
  404639:	and    BYTE PTR [eax],al
  40463b:	dec    ebp
  40463c:	add    BYTE PTR [ebp+0x0],ah
  40463f:	outs   dx,BYTE PTR ds:[esi]
  404640:	add    BYTE PTR [ebp+0x0],dh
  404643:	pop    esp
  404644:	add    BYTE PTR [eax+0x0],dl
  404647:	jb     0x404649
  404649:	outs   dx,DWORD PTR ds:[esi]
  40464a:	add    BYTE PTR [edi+0x0],ah
  40464d:	jb     0x40464f
  40464f:	popa   
  404650:	add    BYTE PTR [ebp+0x0],ch
  404653:	jae    0x404655
  404655:	pop    esp
  404656:	add    BYTE PTR [eax+eax*1+0x6f],dh
  40465a:	add    BYTE PTR [ecx+0x0],ah
  40465d:	jae    0x40465f
  40465f:	je     0x404661
  404661:	add    BYTE PTR cs:[eax+eax*1+0x6e],ch
  404666:	add    BYTE PTR [ebx+0x0],ch
  404669:	add    BYTE PTR [ecx],al
  40466b:	add    BYTE PTR [ecx],bl
  40466d:	dec    esi
  40466e:	add    BYTE PTR [ebp+0x0],ah
  404671:	ins    BYTE PTR es:[edi],dx
  404672:	add    BYTE PTR [ebx+0x0],dh
  404675:	add    BYTE PTR cs:[eax+eax*1+0x6f],dl
  40467a:	add    BYTE PTR [ecx+0x0],ah
  40467d:	jae    0x40467f
  40467f:	je     0x404681
  404681:	add    BYTE PTR gs:[edx+0x0],dh
  404685:	add    BYTE PTR [ebx],cl
  404687:	imul   eax,DWORD PTR [eax],0x61006d
  40468d:	add    BYTE PTR [di+0x0],ah
  404691:	add    BYTE PTR [edi],al
  404693:	jae    0x404695
  404695:	jb     0x404697
  404697:	arpl   WORD PTR [eax],ax
  404699:	add    BYTE PTR [ecx],dl
  40469b:	data16 add BYTE PTR [ecx+0x0],ch
  40469f:	ins    BYTE PTR es:[edi],dx
  4046a0:	add    BYTE PTR [ebp+0x0],ah
  4046a3:	cmp    al,BYTE PTR [eax]
  4046a5:	das    
  4046a6:	add    BYTE PTR [edi],ch
  4046a8:	add    BYTE PTR [edi],ch
  4046aa:	add    BYTE PTR [eax],al
  4046ac:	or     DWORD PTR [eax+eax*1+0x65],esi
  4046b0:	add    BYTE PTR [eax+0x0],bh
  4046b3:	je     0x4046b5
  4046b5:	add    BYTE PTR [ebx],cl
  4046b7:	popa   
  4046b8:	add    BYTE PTR [ebp+0x0],dh
  4046bb:	add    BYTE PTR fs:[ecx+0x0],ch
  4046bf:	outs   dx,DWORD PTR ds:[esi]
  4046c0:	add    BYTE PTR [eax],al
  4046c2:	or     eax,0x74002f
  4046c7:	outs   dx,DWORD PTR ds:[esi]
  4046c8:	add    BYTE PTR [ecx+0x0],ah
  4046cb:	jae    0x4046cd
  4046cd:	je     0x4046cf
  4046cf:	add    BYTE PTR ds:0x690073,cl
  4046d5:	ins    BYTE PTR es:[edi],dx
  4046d6:	add    BYTE PTR [ebp+0x0],ah
  4046d9:	outs   dx,BYTE PTR ds:[esi]
  4046da:	add    BYTE PTR [eax+eax*1+0x0],dh
  4046de:	adc    eax,DWORD PTR [ecx+0x0]
  4046e1:	arpl   WORD PTR [eax],ax
  4046e3:	je     0x4046e5
  4046e5:	imul   eax,DWORD PTR [eax],0x610076
  4046eb:	je     0x4046ed
  4046ed:	add    BYTE PTR gs:[eax+eax*1+0x0],ah
  4046f2:	or     eax,0x690048
  4046f7:	add    BYTE PTR fs:[eax+eax*1+0x65],ah
  4046fc:	add    BYTE PTR [esi+0x0],ch
  4046ff:	add    BYTE PTR [ebx],dl
  404701:	inc    esp
  404702:	add    BYTE PTR [ecx+0x0],ch
  404705:	jae    0x404707
  404707:	ins    DWORD PTR es:[edi],dx
  404708:	add    BYTE PTR [ecx+0x0],ch
  40470b:	jae    0x40470d
  40470d:	jae    0x40470f
  40470f:	add    BYTE PTR gs:[eax+eax*1+0x0],ah
  404714:	andps  xmm0,XMMWORD PTR [eax]
  404717:	imul   eax,DWORD PTR [eax],0x65006d
  40471d:	outs   dx,DWORD PTR ds:[esi]
  40471e:	add    BYTE PTR [ebp+0x0],dh
  404721:	je     0x404723
  404723:	add    BYTE PTR ds:0x720045,cl
  404729:	jb     0x40472b
  40472b:	outs   dx,DWORD PTR ds:[esi]
  40472c:	add    BYTE PTR [edx+0x0],dh
  40472f:	add    BYTE PTR cs:[eax],al
  404732:	sub    eax,DWORD PTR [esi+0x0]
  404735:	popa   
  404736:	add    BYTE PTR [ecx+0x0],ch
  404739:	ins    BYTE PTR es:[edi],dx
  40473a:	add    BYTE PTR [ebp+0x0],ah
  40473d:	add    BYTE PTR fs:[eax],ah
  404740:	add    BYTE PTR [edi+0x0],dh
  404743:	imul   eax,DWORD PTR [eax],0x680074
  404749:	and    BYTE PTR [eax],al
  40474b:	dec    eax
  40474c:	add    BYTE PTR [edx+0x0],dl
  40474f:	inc    ebp
  404750:	add    BYTE PTR [ebx+0x0],dl
  404753:	push   ebp
  404754:	add    BYTE PTR [eax+eax*1+0x54],cl
  404758:	add    BYTE PTR [edx],bh
  40475a:	add    BYTE PTR [eax],ah
  40475c:	add    BYTE PTR [eax],al
  40475e:	add    ebx,DWORD PTR [eax+0x0]
  404761:	add    BYTE PTR [eax],al
  404763:	add    BYTE PTR [edi],bl
  404765:	mov    esi,0x21a7201b
  40476a:	call   0x431ed2bc
  40476f:	ficom  DWORD PTR [edi+0x27]
  404772:	dec    edx
  404773:	aas    
  404774:	add    BYTE PTR [eax],cl
  404776:	mov    bh,0x7a
  404778:	pop    esp
  404779:	push   esi
  40477a:	sbb    DWORD PTR [eax+eiz*8],esi
  40477d:	mov    DWORD PTR [edx],eax
  40477f:	push   es
  404780:	push   cs
  404781:	sbb    BYTE PTR [esi+0x0],cl
  404784:	add    BYTE PTR gs:[eax+eax*1+0x73],ch
  404789:	add    BYTE PTR [esi],ch
  40478b:	add    BYTE PTR [eax+eax*1+0x6f],dl
  40478f:	add    BYTE PTR [ecx+0x0],ah
  404792:	jae    0x404794
  404794:	je     0x404796
  404796:	add    BYTE PTR gs:[edx+0x0],dh
  40479a:	add    eax,0x1d010100
  40479f:	push   cs
  4047a0:	add    eax,DWORD PTR [eax]
  4047a2:	add    BYTE PTR [ecx],al
  4047a4:	add    eax,DWORD PTR [eax]
  4047a6:	add    BYTE PTR [edx],al
  4047a8:	add    al,0x0
  4047aa:	add    DWORD PTR [ecx],eax
  4047ac:	push   cs
  4047ad:	add    eax,0xd120100
  4047b2:	push   cs
  4047b3:	push   es
  4047b4:	add    BYTE PTR [edx],al
  4047b6:	adc    cl,BYTE PTR ds:0x80e0e
  4047bc:	add    al,0x12
  4047be:	or     eax,0x20e0e0e
  4047c3:	push   es
  4047c4:	add    BYTE PTR [edx],al
  4047c6:	add    DWORD PTR [edx],eax
  4047c8:	adc    dl,BYTE PTR [ecx]
  4047ca:	push   es
  4047cb:	add    BYTE PTR [edx],al
  4047cd:	add    DWORD PTR [edx],edx
  4047cf:	or     eax,0x200071c
  4047d4:	add    DWORD PTR [edx],edx
  4047d6:	or     eax,0x71512
  4047db:	add    al,BYTE PTR [ecx]
  4047dd:	adc    cl,BYTE PTR ds:0x20031912
  4047e3:	add    BYTE PTR [ecx],al
  4047e5:	add    al,BYTE PTR [esi]
  4047e7:	or     al,BYTE PTR [ebx]
  4047e9:	push   es
  4047ea:	adc    DWORD PTR [eax+ecx*1],ecx
	...
  4047f5:	or     BYTE PTR [ecx],al
  4047f7:	add    BYTE PTR [eax],al
  4047f9:	add    BYTE PTR [eax],al
  4047fb:	add    BYTE PTR [eax],al
  4047fd:	add    BYTE PTR [eax],cl
  4047ff:	add    al,BYTE PTR [eax]
  404801:	add    BYTE PTR [eax],al
  404803:	add    BYTE PTR [eax],al
  404805:	add    BYTE PTR [eax],al
  404807:	or     BYTE PTR [eax+0x0],al
  40480a:	add    BYTE PTR [eax],al
  40480c:	add    BYTE PTR [eax],al
  40480e:	add    BYTE PTR [eax],al
  404810:	or     BYTE PTR [eax],dh
  404812:	add    BYTE PTR [eax],al
  404814:	add    BYTE PTR [eax],al
  404816:	add    BYTE PTR [eax],al
  404818:	add    BYTE PTR [eax],cl
  40481a:	and    BYTE PTR [eax],al
  40481c:	add    BYTE PTR [eax],al
  40481e:	add    BYTE PTR [eax],al
  404820:	add    BYTE PTR [eax],al
  404822:	or     BYTE PTR [eax],dl
  404824:	add    BYTE PTR [eax],al
  404826:	add    BYTE PTR [eax],al
  404828:	add    BYTE PTR [eax],al
  40482a:	add    BYTE PTR [eax],cl
  40482c:	add    BYTE PTR [eax],al
  40482e:	add    al,0x0
  404830:	add    BYTE PTR [eax],al
  404832:	add    BYTE PTR [eax],al
  404834:	or     BYTE PTR [eax],al
  404836:	adc    BYTE PTR [eax],al
  404838:	add    BYTE PTR [eax],al
  40483a:	add    BYTE PTR [eax],al
  40483c:	add    BYTE PTR [eax],cl
  40483e:	add    BYTE PTR [eax],al
  404840:	add    al,BYTE PTR [eax]
  404842:	add    BYTE PTR [eax],al
  404844:	add    BYTE PTR [eax],al
  404846:	or     BYTE PTR [eax],al
  404848:	add    BYTE PTR [ecx],al
  40484a:	add    BYTE PTR [eax],al
  40484c:	add    BYTE PTR [eax],al
  40484e:	add    BYTE PTR [eax],cl
  404850:	add    BYTE PTR [eax],al
  404852:	adc    BYTE PTR [eax],al
  404854:	add    BYTE PTR [eax],al
  404856:	add    BYTE PTR [eax],al
  404858:	or     BYTE PTR [eax],al
  40485a:	add    BYTE PTR [eax],ah
  40485c:	add    BYTE PTR [eax],al
  40485e:	add    BYTE PTR [eax],al
  404860:	add    BYTE PTR [eax],cl
  404862:	add    BYTE PTR [eax],al
  404864:	add    BYTE PTR [eax],cl
  404866:	add    BYTE PTR [eax],al
  404868:	add    BYTE PTR [eax],al
  40486a:	or     BYTE PTR [eax],al
  40486c:	add    BYTE PTR [eax+0x0],al
  40486f:	add    BYTE PTR [eax],al
  404871:	add    BYTE PTR [eax],al
  404873:	or     BYTE PTR [eax],al
  404875:	add    BYTE PTR [eax],al
  404877:	add    al,0x0
  404879:	add    BYTE PTR [eax],al
  40487b:	add    BYTE PTR [eax+0x30],cl
  40487e:	add    BYTE PTR [eax],dh
  404880:	add    BYTE PTR [eax],dh
  404882:	add    BYTE PTR [edx],dh
  404884:	add    BYTE PTR [ecx],dh
  404886:	add    BYTE PTR [eax+eax*1],dh
  404889:	inc    esi
  40488a:	add    BYTE PTR [ecx],bh
  40488c:	add    BYTE PTR ds:0x30003000,ch
  404892:	add    BYTE PTR [eax],dh
  404894:	add    BYTE PTR [eax],dh
  404896:	add    BYTE PTR ds:0x30003000,ch
  40489c:	add    BYTE PTR [eax],dh
  40489e:	add    BYTE PTR [eax],dh
  4048a0:	add    BYTE PTR ds:0x30004300,ch
  4048a6:	add    BYTE PTR [eax],dh
  4048a8:	add    BYTE PTR [eax],dh
  4048aa:	add    BYTE PTR ds:0x30003000,ch
  4048b0:	add    BYTE PTR [eax],dh
  4048b2:	add    BYTE PTR [eax],dh
  4048b4:	add    BYTE PTR [eax],dh
  4048b6:	add    BYTE PTR [eax],dh
  4048b8:	add    BYTE PTR [eax],dh
  4048ba:	add    BYTE PTR [eax],dh
  4048bc:	add    BYTE PTR [eax],dh
  4048be:	add    BYTE PTR [eax],dh
  4048c0:	add    BYTE PTR [eax+eax*1],dh
  4048c3:	add    BYTE PTR ss:[eax+0x30],cl
  4048c7:	add    BYTE PTR [eax],dh
  4048c9:	add    BYTE PTR [eax],dh
  4048cb:	add    BYTE PTR [edx],dh
  4048cd:	add    BYTE PTR [ecx],dh
  4048cf:	add    BYTE PTR [eax+eax*1],dh
  4048d2:	xor    BYTE PTR [eax],al
  4048d4:	xor    DWORD PTR [eax],eax
  4048d6:	sub    eax,0x30003000
  4048db:	add    BYTE PTR [eax],dh
  4048dd:	add    BYTE PTR [eax],dh
  4048df:	add    BYTE PTR ds:0x30003000,ch
  4048e5:	add    BYTE PTR [eax],dh
  4048e7:	add    BYTE PTR [eax],dh
  4048e9:	add    BYTE PTR ds:0x30004300,ch
  4048ef:	add    BYTE PTR [eax],dh
  4048f1:	add    BYTE PTR [eax],dh
  4048f3:	add    BYTE PTR ds:0x30003000,ch
  4048f9:	add    BYTE PTR [eax],dh
  4048fb:	add    BYTE PTR [eax],dh
  4048fd:	add    BYTE PTR [eax],dh
  4048ff:	add    BYTE PTR [eax],dh
  404901:	add    BYTE PTR [eax],dh
  404903:	add    BYTE PTR [eax],dh
  404905:	add    BYTE PTR [eax],dh
  404907:	add    BYTE PTR [eax],dh
  404909:	add    BYTE PTR [eax+eax*1],dh
  40490c:	add    BYTE PTR ss:[eax+0x30],cl
  404910:	add    BYTE PTR [eax],dh
  404912:	add    BYTE PTR [eax],dh
  404914:	add    BYTE PTR [eax],dh
  404916:	add    BYTE PTR [eax],dh
  404918:	add    BYTE PTR [ecx],dh
  40491a:	add    BYTE PTR [eax],dh
  40491c:	add    BYTE PTR [edx+0x0],ah
  40491f:	sub    eax,0x30003000
  404924:	add    BYTE PTR [eax],dh
  404926:	add    BYTE PTR [eax],dh
  404928:	add    BYTE PTR ds:0x30003000,ch
  40492e:	add    BYTE PTR [eax],dh
  404930:	add    BYTE PTR [eax],dh
  404932:	add    BYTE PTR ds:0x30004300,ch
  404938:	add    BYTE PTR [eax],dh
  40493a:	add    BYTE PTR [eax],dh
  40493c:	add    BYTE PTR ds:0x30003000,ch
  404942:	add    BYTE PTR [eax],dh
  404944:	add    BYTE PTR [eax],dh
  404946:	add    BYTE PTR [eax],dh
  404948:	add    BYTE PTR [eax],dh
  40494a:	add    BYTE PTR [eax],dh
  40494c:	add    BYTE PTR [eax],dh
  40494e:	add    BYTE PTR [eax],dh
  404950:	add    BYTE PTR [eax],dh
  404952:	add    BYTE PTR [eax+eax*1],dh
  404955:	add    BYTE PTR ss:[eax+0x38],cl
  404959:	add    BYTE PTR [eax],bh
  40495b:	add    BYTE PTR [esi],dh
  40495d:	add    BYTE PTR [eax+eax*1+0x38],al
  404961:	add    BYTE PTR [ebp+0x0],al
  404964:	inc    ebp
  404965:	add    BYTE PTR [edx+0x0],al
  404968:	sub    eax,0x43003800
  40496d:	add    BYTE PTR [esi+0x0],al
  404970:	xor    al,BYTE PTR [eax]
  404972:	sub    eax,0x34003400
  404977:	add    BYTE PTR [eax+eax*1],dh
  40497a:	add    BYTE PTR ss:0x44003800,ch
  404981:	add    BYTE PTR [eax],dh
  404983:	add    BYTE PTR [edx],dh
  404985:	add    BYTE PTR ds:0x44004300,ch
  40498b:	add    BYTE PTR [edx+0x0],al
  40498e:	inc    ecx
  40498f:	add    BYTE PTR [ecx],dh
  404991:	add    BYTE PTR [eax+eax*1+0x42],al
  404995:	add    BYTE PTR [eax+eax*1+0x43],al
  404999:	add    BYTE PTR [esi+0x0],al
  40499c:	cmp    DWORD PTR [eax],eax
  40499e:	cmp    DWORD PTR [eax],eax
  4049a0:	or     BYTE PTR [eax],ah
  4049a2:	add    al,0x9
  4049a4:	adc    bl,BYTE PTR ds:0x5091808
  4049aa:	and    BYTE PTR [ecx],al
  4049ac:	or     DWORD PTR [eax],edx
  4049ae:	sbb    BYTE PTR [eax+eiz*1],al
  4049b1:	add    DWORD PTR [ecx],ecx
  4049b3:	sbb    BYTE PTR [esi],al
  4049b5:	and    BYTE PTR [edx],al
  4049b7:	or     DWORD PTR [edx],edx
  4049b9:	sbb    eax,0x1200408
  4049be:	or     DWORD PTR [esi],ecx
  4049c0:	add    eax,0x10090120
  4049c5:	push   es
  4049c6:	add    al,0x20
  4049c8:	add    DWORD PTR [ecx],ecx
  4049ca:	push   es
  4049cb:	add    eax,0x10090120
  4049d0:	or     DWORD PTR [eax+eiz*1],eax
  4049d3:	add    DWORD PTR [ecx],ecx
  4049d5:	or     DWORD PTR [ecx],ecx
  4049d7:	and    BYTE PTR [ebx],al
  4049d9:	or     DWORD PTR [eax],edx
  4049db:	adc    bl,BYTE PTR ds:0x5081008
  4049e1:	and    BYTE PTR [edx],al
  4049e3:	or     DWORD PTR [esi],ecx
  4049e5:	or     BYTE PTR ds:0xe090220,al
  4049eb:	or     DWORD PTR ds:0x18090220,eax
  4049f1:	or     DWORD PTR ds:0x12090120,eax
  4049f7:	sbb    eax,0x9002003
  4049fc:	push   es
  4049fd:	and    BYTE PTR [edx],al
  4049ff:	or     DWORD PTR [esi],ecx
  404a01:	adc    DWORD PTR [eax*1+0xe090220],ecx
  404a08:	add    al,BYTE PTR [edi]
  404a0a:	and    BYTE PTR [edx],al
  404a0c:	or     DWORD PTR [ecx],ecx
  404a0e:	adc    BYTE PTR [ecx],dl
  404a10:	and    DWORD PTR [eax],ecx
  404a12:	and    BYTE PTR [edx],al
  404a14:	or     DWORD PTR [eax],edx
  404a16:	adc    DWORD PTR [ecx],esp
  404a18:	adc    ah,BYTE PTR ds:0x1010004
  404a1e:	or     DWORD PTR [ecx],eax
  404a20:	add    DWORD PTR ds:0x11010120,eax
  404a26:	xor    DWORD PTR [ecx],eax
  404a28:	adc    eax,0x20040801
  404a2d:	add    DWORD PTR [ecx],eax
  404a2f:	push   cs
  404a30:	add    al,0x20
  404a32:	add    DWORD PTR [ecx],eax
  404a34:	add    al,BYTE PTR ds:0x11010120
  404a3a:	jno    0x404a40
  404a3c:	and    BYTE PTR [ecx],al
  404a3e:	add    DWORD PTR [eax],ecx
  404a40:	add    eax,0xe020200
  404a45:	push   cs
  404a46:	add    al,0x0
  404a48:	add    DWORD PTR [ecx],eax
  404a4a:	or     BYTE PTR [ecx],cl
  404a4c:	pop    es
  404a4d:	pop    es
  404a4e:	push   cs
  404a4f:	push   cs
  404a50:	push   cs
  404a51:	add    al,BYTE PTR [edx]
  404a53:	or     BYTE PTR [esi],cl
  404a55:	add    eax,DWORD PTR [edi]
  404a57:	add    DWORD PTR [esi],ecx
  404a59:	push   es
  404a5a:	add    BYTE PTR [ecx],al
  404a5c:	push   cs
  404a5d:	adc    DWORD PTR [eax+0x200058d],eax
  404a63:	push   cs
  404a64:	push   cs
  404a65:	push   cs
  404a66:	add    al,0x0
  404a68:	add    DWORD PTR [edx],eax
  404a6a:	push   cs
  404a6b:	add    eax,0x80120000
  404a70:	xchg   ebp,eax
  404a71:	add    eax,0x80120020
  404a76:	cdq    
  404a77:	add    esp,DWORD PTR [eax]
  404a79:	add    BYTE PTR [esi],cl
  404a7b:	add    al,0x0
  404a7d:	add    BYTE PTR [ecx],dl
  404a7f:	and    DWORD PTR ds:0x120e0607,ecx
  404a85:	adc    al,0x12
  404a87:	sbb    al,0x12
  404a89:	and    eax,0x21111812
  404a8e:	pop    es
  404a8f:	add    BYTE PTR [ecx],al
  404a91:	adc    dl,BYTE PTR [ecx]
  404a93:	adc    DWORD PTR [eax+0x12006b1],eax
  404a99:	adc    al,BYTE PTR [eax+0x15080eb5]
  404a9f:	adc    al,BYTE PTR [eax-0x7fedfe47]
  404aa5:	mov    ebp,0x13012005
  404aaa:	add    BYTE PTR [eax],cl
  404aac:	add    eax,0x80120020
  404ab1:	rol    DWORD PTR [esi],0x20
  404ab4:	add    DWORD PTR [edx],edx
  404ab6:	cmp    BYTE PTR [ebp+0x120040e],0x1
  404abd:	sbb    al,0x6
  404abf:	and    BYTE PTR [ecx],al
  404ac1:	adc    al,BYTE PTR [eax+0x20080ec5]
  404ac7:	add    DWORD PTR [edx],edx
  404ac9:	cmp    BYTE PTR [ebp+0x5bd8012],0x20
  404ad0:	add    DWORD PTR [ecx],eax
  404ad2:	adc    dl,BYTE PTR [ecx]
  404ad4:	or     eax,0x80110120
  404ad9:	leave  
  404ada:	adc    eax,0x2cd8012
  404adf:	adc    cl,BYTE PTR ds:0x1215101c
  404ae5:	adc    cl,0x2
  404ae8:	adc    eax,0x2cd8012
  404aed:	adc    cl,BYTE PTR ds:0xc980111c
  404af3:	add    eax,0x1c010220
  404af8:	sbb    BYTE PTR [esi],al
  404afa:	and    BYTE PTR [ecx],al
  404afc:	add    DWORD PTR [ecx],edx
  404afe:	or     cl,0x8
  404b01:	adc    eax,0x1d58012
  404b06:	adc    DWORD PTR [eax+0x121508c9],eax
  404b0c:	or     ch,0x2
  404b0f:	adc    cl,BYTE PTR ds:0x110181c
  404b15:	add    eax,DWORD PTR [ecx]
  404b17:	adc    eax,0x2d18012
  404b1c:	push   ds
  404b1d:	add    BYTE PTR [ecx],dl
  404b1f:	or     cl,0x15
  404b22:	adc    al,BYTE PTR [eax-0x7feefe2b]
  404b28:	leave  
  404b29:	push   ds
  404b2a:	add    BYTE PTR [edx],cl
  404b2c:	or     al,BYTE PTR [ecx]
  404b2e:	adc    eax,0x2cd8012
  404b33:	adc    cl,BYTE PTR ds:0x1200e1c
  404b39:	adc    DWORD PTR [eax-0x7fedea37],eax
  404b3f:	int    0x2
  404b41:	adc    cl,BYTE PTR ds:0x15111512
  404b47:	adc    al,BYTE PTR [eax+0x121502d1]
  404b4d:	or     ch,0x2
  404b50:	adc    cl,BYTE PTR ds:0x80111512
  404b56:	leave  
  404b57:	or     DWORD PTR ds:0x2cd8012,edx
  404b5d:	adc    cl,BYTE PTR ds:0xa0b1512
  404b63:	add    DWORD PTR ds:0x2cd8012,edx
  404b69:	adc    cl,BYTE PTR ds:0x200e1512
  404b6f:	add    DWORD PTR [ecx],edx
  404b71:	or     cl,0x15
  404b74:	adc    al,BYTE PTR [eax+0xd1202cd]
  404b7a:	adc    bl,BYTE PTR [ecx]
  404b7c:	adc    DWORD PTR ds:0x2d18012,edx
  404b82:	adc    eax,0x2cd8012
  404b87:	adc    cl,BYTE PTR ds:0x80111912
  404b8d:	leave  
  404b8e:	or     DWORD PTR ds:0x2cd8012,edx
  404b94:	adc    cl,BYTE PTR ds:0xa0b1912
  404b9a:	add    DWORD PTR ds:0x2cd8012,edx
  404ba0:	adc    cl,BYTE PTR ds:0x61912
  404ba6:	add    DWORD PTR [edx],edx
  404ba8:	sbb    ch,0xe
  404bab:	add    eax,0x12010120
  404bb0:	or     eax,0x12070715
  404bb5:	adc    DWORD PTR [edx],edx
  404bb7:	xor    BYTE PTR [ebp+0x12b58012],0x80
  404bbe:	mov    ch,0x12
  404bc0:	xor    BYTE PTR [ebp+0x12b58012],0xd
  404bc7:	or     al,0x10
  404bc9:	add    DWORD PTR [ecx],eax
  404bcb:	push   ds
  404bcc:	add    BYTE PTR ds:0x1e58012,dl
  404bd2:	push   ds
  404bd3:	add    BYTE PTR ds:0x8012010a,al
  404bd9:	mov    ebp,0x12012006
  404bde:	sub    cl,0xe
  404be1:	push   es
  404be2:	and    BYTE PTR [ecx],al
  404be4:	adc    al,BYTE PTR [eax+0x70c0eed]
  404bea:	add    al,0x12
  404bec:	cmp    BYTE PTR [ebp+0x12e98012],0x80
  404bf3:	in     eax,dx
  404bf4:	add    al,BYTE PTR ds:0x80110020
  404bfa:	cmc    
  404bfb:	pop    es
  404bfc:	pop    es
  404bfd:	add    ecx,DWORD PTR [esi]
  404bff:	or     BYTE PTR [ecx],dl
  404c01:	xor    ch,0x29
  404c04:	add    DWORD PTR [eax],eax
  404c06:	and    al,0x30
  404c08:	xor    BYTE PTR [eax],dh
  404c0a:	xor    dh,BYTE PTR [ecx]
  404c0c:	xor    al,0x46
  404c0e:	cmp    DWORD PTR ds:0x30303030,ebp
  404c14:	sub    eax,0x30303030
  404c19:	sub    eax,0x30303043
  404c1e:	sub    eax,0x30303030
  404c23:	xor    BYTE PTR [eax],dh
  404c25:	xor    BYTE PTR [eax],dh
  404c27:	xor    BYTE PTR [eax],dh
  404c29:	xor    al,0x36
  404c2b:	add    BYTE PTR [eax],al
  404c2d:	push   es
  404c2e:	and    BYTE PTR [ecx],al
  404c30:	add    DWORD PTR [ecx],edx
  404c32:	add    DWORD PTR [ecx],0x1000108
  404c38:	add    BYTE PTR [eax],al
  404c3a:	add    BYTE PTR [eax],al
  404c3c:	add    BYTE PTR [ecx],ch
  404c3e:	add    DWORD PTR [eax],eax
  404c40:	and    al,0x30
  404c42:	xor    BYTE PTR [eax],dh
  404c44:	xor    BYTE PTR [eax],dh
  404c46:	xor    DWORD PTR [eax],esi
  404c48:	bound  ebp,QWORD PTR ds:0x30303030
  404c4e:	sub    eax,0x30303030
  404c53:	sub    eax,0x30303043
  404c58:	sub    eax,0x30303030
  404c5d:	xor    BYTE PTR [eax],dh
  404c5f:	xor    BYTE PTR [eax],dh
  404c61:	xor    BYTE PTR [eax],dh
  404c63:	xor    al,0x36
  404c65:	add    BYTE PTR [eax],al
  404c67:	sub    DWORD PTR [ecx],eax
  404c69:	add    BYTE PTR [eax+edi*1],ah
  404c6c:	cmp    BYTE PTR [esi],dh
  404c6e:	inc    esp
  404c6f:	cmp    BYTE PTR [ebp+0x45],al
  404c72:	inc    edx
  404c73:	sub    eax,0x32464338
  404c78:	sub    eax,0x36343434
  404c7d:	sub    eax,0x32304438
  404c82:	sub    eax,0x41424443
  404c87:	xor    DWORD PTR [edx+eax*2+0x44],eax
  404c8b:	inc    ebx
  404c8c:	inc    esi
  404c8d:	cmp    DWORD PTR [ecx],edi
  404c8f:	add    BYTE PTR [eax],al
  404c91:	sub    DWORD PTR [ecx],eax
  404c93:	add    BYTE PTR [eax+esi*1],ah
  404c96:	xor    BYTE PTR [eax],dh
  404c98:	xor    dh,BYTE PTR [ecx]
  404c9a:	xor    al,0x30
  404c9c:	xor    DWORD PTR ds:0x30303030,ebp
  404ca2:	sub    eax,0x30303030
  404ca7:	sub    eax,0x30303043
  404cac:	sub    eax,0x30303030
  404cb1:	xor    BYTE PTR [eax],dh
  404cb3:	xor    BYTE PTR [eax],dh
  404cb5:	xor    BYTE PTR [eax],dh
  404cb7:	xor    al,0x36
  404cb9:	add    BYTE PTR [eax],al
  404cbb:	push   es
  404cbc:	and    BYTE PTR [ecx],al
  404cbe:	add    DWORD PTR [ecx],edx
  404cc0:	or     DWORD PTR [ecx],0xe012004
  404cc6:	push   cs
  404cc7:	dec    ecx
  404cc8:	add    DWORD PTR [eax],eax
  404cca:	sbb    ch,BYTE PTR [esi]
  404ccc:	dec    esi
  404ccd:	inc    ebp
  404cce:	push   esp
  404ccf:	inc    esi
  404cd0:	jb     0x404d33
  404cd2:	ins    DWORD PTR es:[edi],dx
  404cd3:	gs ja  0x404d45
  404cd6:	jb     0x404d43
  404cd8:	sub    al,0x56
  404cda:	gs jb  0x404d50
  404cdd:	imul   ebp,DWORD PTR [edi+0x6e],0x2e34763d
  404ce4:	xor    eax,0xe540001
  404ce9:	adc    al,0x46
  404ceb:	jb     0x404d4e
  404ced:	ins    DWORD PTR es:[edi],dx
  404cee:	gs ja  0x404d60
  404cf1:	jb     0x404d5e
  404cf3:	inc    esp
  404cf4:	imul   esi,DWORD PTR [ebx+0x70],0x4e79616c
  404cfb:	popa   
  404cfc:	ins    DWORD PTR es:[edi],dx
  404cfd:	adc    ch,BYTE PTR gs:[esi]
  404d00:	dec    esi
  404d01:	inc    ebp
  404d02:	push   esp
  404d03:	and    BYTE PTR [esi+0x72],al
  404d06:	popa   
  404d07:	ins    DWORD PTR es:[edi],dx
  404d08:	gs ja  0x404d7a
  404d0b:	jb     0x404d78
  404d0d:	and    BYTE PTR [esi+ebp*1],dh
  404d10:	xor    eax,0x500010a
  404d15:	je     0x404d86
  404d17:	popa   
  404d18:	jae    0x404d8e
  404d1a:	add    BYTE PTR [eax],al
  404d1c:	add    eax,0x1
  404d21:	add    BYTE PTR [edi],dl
  404d23:	add    DWORD PTR [eax],eax
  404d25:	adc    al,BYTE PTR [ebx+0x6f]
  404d28:	jo     0x404da3
  404d2a:	jb     0x404d95
  404d2c:	addr16 push 0xa9c22074
  404d32:	and    BYTE PTR [eax],ah
  404d34:	xor    dh,BYTE PTR [eax]
  404d36:	xor    DWORD PTR [ebx],esi
  404d38:	add    BYTE PTR [eax],al
  404d3a:	sub    DWORD PTR [ecx],eax
  404d3c:	add    BYTE PTR [esi+eiz*2],ah
  404d3f:	xor    DWORD PTR [ecx+0x32],esp
  404d42:	ss data16 xor BYTE PTR fs:0x66376436,ch
  404d4b:	sub    eax,0x39363834
  404d50:	sub    eax,0x63373962
  404d55:	sub    eax,0x31383462
  404d5a:	data16 xor ah,BYTE PTR [ebp+0x61]
  404d5e:	xor    BYTE PTR [esi+0x33],ah
  404d61:	xor    al,0x0
  404d63:	add    BYTE PTR [ecx+eax*1],cl
  404d66:	add    BYTE PTR [edi],al
  404d68:	xor    DWORD PTR [esi],ebp
  404d6a:	xor    BYTE PTR [esi],ch
  404d6c:	xor    BYTE PTR [esi],ch
  404d6e:	xor    BYTE PTR [eax],al
  404d70:	add    BYTE PTR [eax],cl
  404d72:	add    DWORD PTR [eax],eax
  404d74:	add    al,BYTE PTR [eax]
  404d76:	add    BYTE PTR [eax],al
  404d78:	add    BYTE PTR [eax],al
  404d7a:	or     BYTE PTR [ecx],al
  404d7c:	add    BYTE PTR [eax],cl
  404d7e:	add    BYTE PTR [eax],al
  404d80:	add    BYTE PTR [eax],al
  404d82:	add    BYTE PTR [esi],bl
  404d84:	add    DWORD PTR [eax],eax
  404d86:	add    DWORD PTR [eax],eax
  404d88:	push   esp
  404d89:	add    dl,BYTE PTR [esi]
  404d8b:	push   edi
  404d8c:	jb     0x404def
  404d8e:	jo     0x404dde
  404d90:	outs   dx,DWORD PTR ds:[esi]
  404d91:	outs   dx,BYTE PTR ds:[esi]
  404d92:	inc    ebp
  404d93:	js     0x404df8
  404d95:	gs jo  0x404e0c
  404d98:	imul   ebp,DWORD PTR [edi+0x6e],0x6f726854
  404d9f:	ja     0x404e14
  404da1:	add    DWORD PTR [eax],eax
  404da3:	add    BYTE PTR [eax],al
  404da5:	add    BYTE PTR [eax],al
  404da7:	add    BYTE PTR [edi+0x1a],ch
  404daa:	sub    eax,0x54
  404daf:	add    BYTE PTR [edx],al
  404db1:	add    BYTE PTR [eax],al
  404db3:	add    BYTE PTR [ecx+eax*1],bl
  404db6:	add    BYTE PTR [eax],al
  404db8:	ror    BYTE PTR [ebp+0x0],0x0
  404dbc:	shr    BYTE PTR [edi],0x0
  404dbf:	add    BYTE PTR [edx+0x53],dl
  404dc2:	inc    esp
  404dc3:	push   ebx
  404dc4:	jbe    0x404e00
  404dc6:	test   al,0x7a
  404dc8:	push   esp
  404dc9:	cld    
  404dca:	ret    
  404dcb:	inc    ecx
  404dcc:	mov    cl,0x26
  404dce:	aam    0x4
  404dd0:	ret    
  404dd1:	mov    cl,0x4f
  404dd3:	push   0x1
  404dd5:	add    BYTE PTR [eax],al
  404dd7:	add    BYTE PTR [ebx+0x3a],ah
  404dda:	pop    esp
  404ddb:	push   eax
  404ddc:	jb     0x404e4d
  404dde:	push   0x65
  404de0:	arpl   WORD PTR [ebx+esi*2+0x5c],si
  404de4:	je     0x404e55
  404de6:	popa   
  404de7:	jae    0x404e5d
  404de9:	gs jb  0x404e48
  404dec:	je     0x404e5d
  404dee:	popa   
  404def:	jae    0x404e65
  404df1:	pop    esp
  404df2:	outs   dx,DWORD PTR ds:[esi]
  404df3:	bound  ebp,QWORD PTR [edx+0x5c]
  404df6:	push   edx
  404df7:	gs ins BYTE PTR es:[edi],dx
  404df9:	gs popa 
  404dfb:	jae    0x404e62
  404dfd:	pop    esp
  404dfe:	je     0x404e6f
  404e00:	popa   
  404e01:	jae    0x404e77
  404e03:	cs jo  0x404e6a
  404e06:	bound  eax,QWORD PTR [eax]
	...
  404edc:	add    al,0x4f
	...
  404ee6:	add    BYTE PTR [eax],al
  404ee8:	push   ds
  404ee9:	dec    edi
  404eea:	add    BYTE PTR [eax],al
  404eec:	add    BYTE PTR [eax],ah
	...
  404f02:	add    BYTE PTR [eax],al
  404f04:	adc    BYTE PTR [edi+0x0],cl
	...
  404f0f:	add    BYTE PTR [eax],al
  404f11:	add    BYTE PTR [edi+0x43],bl
  404f14:	outs   dx,DWORD PTR ds:[esi]
  404f15:	jb     0x404f5c
  404f17:	js     0x404f7e
  404f19:	dec    ebp
  404f1a:	popa   
  404f1b:	imul   ebp,DWORD PTR [esi+0x0],0x6f63736d
  404f22:	jb     0x404f89
  404f24:	gs cs fs ins BYTE PTR es:[edi],dx
  404f28:	ins    BYTE PTR es:[edi],dx
  404f29:	add    BYTE PTR [eax],al
  404f2b:	add    BYTE PTR [eax],al
  404f2d:	add    bh,bh
  404f2f:	and    eax,0x402000

Disassembly of section .rsrc:

00406000 <.rsrc>:
	...
  40600c:	add    BYTE PTR [eax],al
  40600e:	add    al,BYTE PTR [eax]
  406010:	adc    BYTE PTR [eax],al
  406012:	add    BYTE PTR [eax],al
  406014:	and    BYTE PTR [eax],al
  406016:	add    BYTE PTR [eax+0x18],al
  40601c:	cmp    BYTE PTR [eax],al
  40601e:	add    BYTE PTR [eax+0x0],al
	...
  40602c:	add    BYTE PTR [eax],al
  40602e:	add    DWORD PTR [eax],eax
  406030:	add    DWORD PTR [eax],eax
  406032:	add    BYTE PTR [eax],al
  406034:	push   eax
  406035:	add    BYTE PTR [eax],al
  406037:	add    BYTE PTR [eax],0x0
	...
  406046:	add    DWORD PTR [eax],eax
  406048:	add    DWORD PTR [eax],eax
  40604a:	add    BYTE PTR [eax],al
  40604c:	push   0x800000
	...
  40605d:	add    BYTE PTR [ecx],al
  40605f:	add    BYTE PTR [eax],al
  406061:	add    BYTE PTR [eax],al
  406063:	add    BYTE PTR [eax+0x0],al
	...
  406075:	add    BYTE PTR [ecx],al
  406077:	add    BYTE PTR [eax],al
  406079:	add    BYTE PTR [eax],al
  40607b:	add    BYTE PTR [eax-0x60000000],dl
  406081:	pusha  
  406082:	add    BYTE PTR [eax],al
  406084:	nop
  406085:	add    al,BYTE PTR [eax]
	...
  40608f:	add    BYTE PTR [eax],dh
  406091:	arpl   WORD PTR [eax],ax
  406093:	add    dl,ch
  406095:	add    DWORD PTR [eax],eax
	...
  40609f:	add    BYTE PTR [eax+0x3402],dl
  4060a5:	add    BYTE PTR [esi+0x0],dl
  4060a8:	push   ebx
  4060a9:	add    BYTE PTR [edi+0x0],bl
  4060ac:	push   esi
  4060ad:	add    BYTE PTR [ebp+0x0],al
  4060b0:	push   edx
  4060b1:	add    BYTE PTR [ebx+0x0],dl
  4060b4:	dec    ecx
  4060b5:	add    BYTE PTR [edi+0x0],cl
  4060b8:	dec    esi
  4060b9:	add    BYTE PTR [edi+0x0],bl
  4060bc:	dec    ecx
  4060bd:	add    BYTE PTR [esi+0x0],cl
  4060c0:	inc    esi
  4060c1:	add    BYTE PTR [edi+0x0],cl
  4060c4:	add    BYTE PTR [eax],al
  4060c6:	add    BYTE PTR [eax],al
  4060c8:	mov    ebp,0xfeef04
  4060cd:	add    BYTE PTR [ecx],al
  4060cf:	add    BYTE PTR [eax],al
  4060d1:	add    BYTE PTR [ecx],al
  4060d3:	add    BYTE PTR [eax],al
  4060d5:	add    BYTE PTR [eax],al
  4060d7:	add    BYTE PTR [eax],al
  4060d9:	add    BYTE PTR [ecx],al
  4060db:	add    BYTE PTR [eax],al
  4060dd:	add    BYTE PTR [eax],al
  4060df:	add    BYTE PTR [edi],bh
  4060e1:	add    BYTE PTR [eax],al
  4060e3:	add    BYTE PTR [eax],al
  4060e5:	add    BYTE PTR [eax],al
  4060e7:	add    BYTE PTR [eax+eax*1],al
  4060ea:	add    BYTE PTR [eax],al
  4060ec:	add    DWORD PTR [eax],eax
	...
  4060fa:	add    BYTE PTR [eax],al
  4060fc:	inc    esp
  4060fd:	add    BYTE PTR [eax],al
  4060ff:	add    BYTE PTR [ecx],al
  406101:	add    BYTE PTR [esi+0x0],dl
  406104:	popa   
  406105:	add    BYTE PTR [edx+0x0],dh
  406108:	inc    esi
  406109:	add    BYTE PTR [ecx+0x0],ch
  40610c:	ins    BYTE PTR es:[edi],dx
  40610d:	add    BYTE PTR [ebp+0x0],ah
  406110:	dec    ecx
  406111:	add    BYTE PTR [esi+0x0],ch
  406114:	data16 add BYTE PTR [edi+0x0],ch
  406118:	add    BYTE PTR [eax],al
  40611a:	add    BYTE PTR [eax],al
  40611c:	and    al,0x0
  40611e:	add    al,0x0
  406120:	add    BYTE PTR [eax],al
  406122:	push   esp
  406123:	add    BYTE PTR [edx+0x0],dh
  406126:	popa   
  406127:	add    BYTE PTR [esi+0x0],ch
  40612a:	jae    0x40612c
  40612c:	ins    BYTE PTR es:[edi],dx
  40612d:	add    BYTE PTR [ecx+0x0],ah
  406130:	je     0x406132
  406132:	imul   eax,DWORD PTR [eax],0x6e006f
  406138:	add    BYTE PTR [eax],al
  40613a:	add    BYTE PTR [eax],al
  40613c:	add    BYTE PTR [eax],al
  40613e:	mov    al,0x4
  406140:	lock add DWORD PTR [eax],eax
  406143:	add    BYTE PTR [ecx],al
  406145:	add    BYTE PTR [ebx+0x0],dl
  406148:	je     0x40614a
  40614a:	jb     0x40614c
  40614c:	imul   eax,DWORD PTR [eax],0x67006e
  406152:	inc    esi
  406153:	add    BYTE PTR [ecx+0x0],ch
  406156:	ins    BYTE PTR es:[edi],dx
  406157:	add    BYTE PTR [ebp+0x0],ah
  40615a:	dec    ecx
  40615b:	add    BYTE PTR [esi+0x0],ch
  40615e:	data16 add BYTE PTR [edi+0x0],ch
  406162:	add    BYTE PTR [eax],al
  406164:	int3   
  406165:	add    DWORD PTR [eax],eax
  406167:	add    BYTE PTR [ecx],al
  406169:	add    BYTE PTR [eax],dh
  40616b:	add    BYTE PTR [eax],dh
  40616d:	add    BYTE PTR [eax],dh
  40616f:	add    BYTE PTR [eax],dh
  406171:	add    BYTE PTR [eax],dh
  406173:	add    BYTE PTR [eax+eax*1],dh
  406176:	bound  eax,QWORD PTR [eax]
  406178:	xor    BYTE PTR [eax],al
  40617a:	add    BYTE PTR [eax],al
  40617c:	xor    al,0x0
  40617e:	push   es
  40617f:	add    BYTE PTR [ecx],al
  406181:	add    BYTE PTR [esi+0x0],al
  406184:	imul   eax,DWORD PTR [eax],0x65006c
  40618a:	inc    esp
  40618b:	add    BYTE PTR [ebp+0x0],ah
  40618e:	jae    0x406190
  406190:	arpl   WORD PTR [eax],ax
  406192:	jb     0x406194
  406194:	imul   eax,DWORD PTR [eax],0x740070
  40619a:	imul   eax,DWORD PTR [eax],0x6e006f
  4061a0:	add    BYTE PTR [eax],al
  4061a2:	add    BYTE PTR [eax],al
  4061a4:	je     0x4061a6
  4061a6:	outs   dx,DWORD PTR ds:[esi]
  4061a7:	add    BYTE PTR [ecx+0x0],ah
  4061aa:	jae    0x4061ac
  4061ac:	je     0x4061ae
  4061ae:	add    BYTE PTR [eax],al
  4061b0:	xor    BYTE PTR [eax],al
  4061b2:	or     BYTE PTR [eax],al
  4061b4:	add    DWORD PTR [eax],eax
  4061b6:	inc    esi
  4061b7:	add    BYTE PTR [ecx+0x0],ch
  4061ba:	ins    BYTE PTR es:[edi],dx
  4061bb:	add    BYTE PTR [ebp+0x0],ah
  4061be:	push   esi
  4061bf:	add    BYTE PTR [ebp+0x0],ah
  4061c2:	jb     0x4061c4
  4061c4:	jae    0x4061c6
  4061c6:	imul   eax,DWORD PTR [eax],0x6e006f
  4061cc:	add    BYTE PTR [eax],al
  4061ce:	add    BYTE PTR [eax],al
  4061d0:	xor    DWORD PTR [eax],eax
  4061d2:	add    BYTE PTR cs:[eax],dh
  4061d5:	add    BYTE PTR [esi],ch
  4061d7:	add    BYTE PTR [eax],dh
  4061d9:	add    BYTE PTR [esi],ch
  4061db:	add    BYTE PTR [eax],dh
  4061dd:	add    BYTE PTR [eax],al
  4061df:	add    BYTE PTR [eax+eax*1],dh
  4061e2:	or     al,BYTE PTR [eax]
  4061e4:	add    DWORD PTR [eax],eax
  4061e6:	dec    ecx
  4061e7:	add    BYTE PTR [esi+0x0],ch
  4061ea:	je     0x4061ec
  4061ec:	add    BYTE PTR gs:[edx+0x0],dh
  4061f0:	outs   dx,BYTE PTR ds:[esi]
  4061f1:	add    BYTE PTR [ecx+0x0],ah
  4061f4:	ins    BYTE PTR es:[edi],dx
  4061f5:	add    BYTE PTR [esi+0x0],cl
  4061f8:	popa   
  4061f9:	add    BYTE PTR [ebp+0x0],ch
  4061fc:	add    BYTE PTR gs:[eax],al
  4061ff:	add    BYTE PTR [eax+eax*1+0x6f],dh
  406203:	add    BYTE PTR [ecx+0x0],ah
  406206:	jae    0x406208
  406208:	je     0x40620a
  40620a:	add    BYTE PTR cs:[ebp+0x0],ah
  40620e:	js     0x406210
  406210:	add    BYTE PTR gs:[eax],al
  406213:	add    BYTE PTR [eax+0x0],cl
  406216:	adc    al,BYTE PTR [eax]
  406218:	add    DWORD PTR [eax],eax
  40621a:	dec    esp
  40621b:	add    BYTE PTR [ebp+0x0],ah
  40621e:	add    BYTE PTR [bx+di+0x0],ah
  406222:	ins    BYTE PTR es:[edi],dx
  406223:	add    BYTE PTR [ebx+0x0],al
  406226:	outs   dx,DWORD PTR ds:[esi]
  406227:	add    BYTE PTR [eax+0x0],dh
  40622a:	jns    0x40622c
  40622c:	jb     0x40622e
  40622e:	imul   eax,DWORD PTR [eax],0x680067
  406234:	je     0x406236
  406236:	add    BYTE PTR [eax],al
  406238:	inc    ebx
  406239:	add    BYTE PTR [edi+0x0],ch
  40623c:	jo     0x40623e
  40623e:	jns    0x406240
  406240:	jb     0x406242
  406242:	imul   eax,DWORD PTR [eax],0x680067
  406248:	je     0x40624a
  40624a:	and    BYTE PTR [eax],al
  40624c:	test   eax,0x20002000
  406251:	add    BYTE PTR [edx],dh
  406253:	add    BYTE PTR [eax],dh
  406255:	add    BYTE PTR [ecx],dh
  406257:	add    BYTE PTR [ebx],dh
  406259:	add    BYTE PTR [eax],al
  40625b:	add    BYTE PTR [eax+eax*1],bh
  40625e:	or     al,BYTE PTR [eax]
  406260:	add    DWORD PTR [eax],eax
  406262:	dec    edi
  406263:	add    BYTE PTR [edx+0x0],dh
  406266:	imul   eax,DWORD PTR [eax],0x690067
  40626c:	outs   dx,BYTE PTR ds:[esi]
  40626d:	add    BYTE PTR [ecx+0x0],ah
  406270:	ins    BYTE PTR es:[edi],dx
  406271:	add    BYTE PTR [esi+0x0],al
  406274:	imul   eax,DWORD PTR [eax],0x65006c
  40627a:	outs   dx,BYTE PTR ds:[esi]
  40627b:	add    BYTE PTR [ecx+0x0],ah
  40627e:	ins    DWORD PTR es:[edi],dx
  40627f:	add    BYTE PTR [ebp+0x0],ah
  406282:	add    BYTE PTR [eax],al
  406284:	je     0x406286
  406286:	outs   dx,DWORD PTR ds:[esi]
  406287:	add    BYTE PTR [ecx+0x0],ah
  40628a:	jae    0x40628c
  40628c:	je     0x40628e
  40628e:	add    BYTE PTR cs:[ebp+0x0],ah
  406292:	js     0x406294
  406294:	add    BYTE PTR gs:[eax],al
  406297:	add    BYTE PTR [eax+eax*1],ch
  40629a:	push   es
  40629b:	add    BYTE PTR [ecx],al
  40629d:	add    BYTE PTR [eax+0x0],dl
  4062a0:	jb     0x4062a2
  4062a2:	outs   dx,DWORD PTR ds:[esi]
  4062a3:	add    BYTE PTR [eax+eax*1+0x75],ah
  4062a7:	add    BYTE PTR [ebx+0x0],ah
  4062aa:	je     0x4062ac
  4062ac:	dec    esi
  4062ad:	add    BYTE PTR [ecx+0x0],ah
  4062b0:	ins    DWORD PTR es:[edi],dx
  4062b1:	add    BYTE PTR [ebp+0x0],ah
  4062b4:	add    BYTE PTR [eax],al
  4062b6:	add    BYTE PTR [eax],al
  4062b8:	je     0x4062ba
  4062ba:	outs   dx,DWORD PTR ds:[esi]
  4062bb:	add    BYTE PTR [ecx+0x0],ah
  4062be:	jae    0x4062c0
  4062c0:	je     0x4062c2
  4062c2:	add    BYTE PTR [eax],al
  4062c4:	xor    al,0x0
  4062c6:	or     BYTE PTR [eax],al
  4062c8:	add    DWORD PTR [eax],eax
  4062ca:	push   eax
  4062cb:	add    BYTE PTR [edx+0x0],dh
  4062ce:	outs   dx,DWORD PTR ds:[esi]
  4062cf:	add    BYTE PTR [eax+eax*1+0x75],ah
  4062d3:	add    BYTE PTR [ebx+0x0],ah
  4062d6:	je     0x4062d8
  4062d8:	push   esi
  4062d9:	add    BYTE PTR [ebp+0x0],ah
  4062dc:	jb     0x4062de
  4062de:	jae    0x4062e0
  4062e0:	imul   eax,DWORD PTR [eax],0x6e006f
  4062e6:	add    BYTE PTR [eax],al
  4062e8:	xor    DWORD PTR [eax],eax
  4062ea:	add    BYTE PTR cs:[eax],dh
  4062ed:	add    BYTE PTR [esi],ch
  4062ef:	add    BYTE PTR [eax],dh
  4062f1:	add    BYTE PTR [esi],ch
  4062f3:	add    BYTE PTR [eax],dh
  4062f5:	add    BYTE PTR [eax],al
  4062f7:	add    BYTE PTR [eax],bh
  4062f9:	add    BYTE PTR [eax],cl
  4062fb:	add    BYTE PTR [ecx],al
  4062fd:	add    BYTE PTR [ecx+0x0],al
  406300:	jae    0x406302
  406302:	jae    0x406304
  406304:	add    BYTE PTR gs:[ebp+0x0],ch
  406308:	bound  eax,QWORD PTR [eax]
  40630a:	ins    BYTE PTR es:[edi],dx
  40630b:	add    BYTE PTR [ecx+0x0],bh
  40630e:	and    BYTE PTR [eax],al
  406310:	push   esi
  406311:	add    BYTE PTR [ebp+0x0],ah
  406314:	jb     0x406316
  406316:	jae    0x406318
  406318:	imul   eax,DWORD PTR [eax],0x6e006f
  40631e:	add    BYTE PTR [eax],al
  406320:	xor    DWORD PTR [eax],eax
  406322:	add    BYTE PTR cs:[eax],dh
  406325:	add    BYTE PTR [esi],ch
  406327:	add    BYTE PTR [eax],dh
  406329:	add    BYTE PTR [esi],ch
  40632b:	add    BYTE PTR [eax],dh
  40632d:	add    BYTE PTR [eax],al
  40632f:	add    bh,ch
  406331:	mov    ebx,0x783f3cbf
  406336:	ins    DWORD PTR es:[edi],dx
  406337:	ins    BYTE PTR es:[edi],dx
  406338:	and    BYTE PTR [esi+0x65],dh
  40633b:	jb     0x4063b0
  40633d:	imul   ebp,DWORD PTR [edi+0x6e],0x2e31223d
  406344:	xor    BYTE PTR [edx],ah
  406346:	and    BYTE PTR [ebp+0x6e],ah
  406349:	arpl   WORD PTR [edi+0x64],bp
  40634c:	imul   ebp,DWORD PTR [esi+0x67],0x5455223d
  406353:	inc    esi
  406354:	sub    eax,0x73202238
  406359:	je     0x4063bc
  40635b:	outs   dx,BYTE PTR ds:[esi]
  40635c:	fs popa 
  40635e:	ins    BYTE PTR es:[edi],dx
  40635f:	outs   dx,DWORD PTR ds:[esi]
  406360:	outs   dx,BYTE PTR ds:[esi]
  406361:	gs cmp eax,0x73657922
  406367:	and    bh,BYTE PTR [edi]
  406369:	ds or  eax,0x73613c0a
  40636f:	jae    0x4063d6
  406371:	ins    DWORD PTR es:[edi],dx
  406372:	bound  ebp,QWORD PTR [ecx+edi*2+0x20]
  406376:	js     0x4063e5
  406378:	ins    BYTE PTR es:[edi],dx
  406379:	outs   dx,BYTE PTR ds:[esi]
  40637a:	jae    0x4063b9
  40637c:	and    dh,BYTE PTR [ebp+0x72]
  40637f:	outs   dx,BYTE PTR ds:[esi]
  406380:	cmp    dh,BYTE PTR [ebx+0x63]
  406383:	push   0x73616d65
  406388:	sub    eax,0x7263696d
  40638d:	outs   dx,DWORD PTR ds:[esi]
  40638e:	jae    0x4063ff
  406390:	data16 je 0x4063c0
  406393:	arpl   WORD PTR [edi+0x6d],bp
  406396:	cmp    ah,BYTE PTR [ecx+0x73]
  406399:	ins    DWORD PTR es:[edi],dx
  40639a:	cs jbe 0x4063ce
  40639d:	and    ah,BYTE PTR [eax]
  40639f:	ins    DWORD PTR es:[edi],dx
  4063a0:	popa   
  4063a1:	outs   dx,BYTE PTR ds:[esi]
  4063a2:	imul   esp,DWORD PTR [esi+0x65],0x65567473
  4063a9:	jb     0x40641e
  4063ab:	imul   ebp,DWORD PTR [edi+0x6e],0x2e31223d
  4063b2:	xor    BYTE PTR [edx],ah
  4063b4:	ds or  eax,0x3c20200a
  4063ba:	popa   
  4063bb:	jae    0x406430
  4063bd:	gs ins DWORD PTR es:[edi],dx
  4063bf:	bound  ebp,QWORD PTR [ecx+edi*2+0x49]
  4063c3:	fs outs dx,BYTE PTR gs:[esi]
  4063c6:	je     0x406431
  4063c8:	je     0x406443
  4063ca:	and    BYTE PTR [esi+0x65],dh
  4063cd:	jb     0x406442
  4063cf:	imul   ebp,DWORD PTR [edi+0x6e],0x2e31223d
  4063d6:	xor    BYTE PTR [esi],ch
  4063d8:	xor    BYTE PTR [esi],ch
  4063da:	xor    BYTE PTR [edx],ah
  4063dc:	and    BYTE PTR [esi+0x61],ch
  4063df:	ins    DWORD PTR es:[edi],dx
  4063e0:	gs cmp eax,0x41794d22
  4063e6:	jo     0x406458
  4063e8:	ins    BYTE PTR es:[edi],dx
  4063e9:	imul   esp,DWORD PTR [ebx+0x61],0x6e6f6974
  4063f0:	cs popa 
  4063f2:	jo     0x406464
  4063f4:	and    ch,BYTE PTR [edi]
  4063f6:	ds or  eax,0x3c20200a
  4063fc:	je     0x406470
  4063fe:	jne    0x406473
  406400:	je     0x40644b
  406402:	outs   dx,BYTE PTR ds:[esi]
  406403:	outs   dx,WORD PTR ds:[esi]
  406405:	and    BYTE PTR [eax+0x6d],bh
  406408:	ins    BYTE PTR es:[edi],dx
  406409:	outs   dx,BYTE PTR ds:[esi]
  40640a:	jae    0x406449
  40640c:	and    dh,BYTE PTR [ebp+0x72]
  40640f:	outs   dx,BYTE PTR ds:[esi]
  406410:	cmp    dh,BYTE PTR [ebx+0x63]
  406413:	push   0x73616d65
  406418:	sub    eax,0x7263696d
  40641d:	outs   dx,DWORD PTR ds:[esi]
  40641e:	jae    0x40648f
  406420:	data16 je 0x406450
  406423:	arpl   WORD PTR [edi+0x6d],bp
  406426:	cmp    ah,BYTE PTR [ecx+0x73]
  406429:	ins    DWORD PTR es:[edi],dx
  40642a:	cs jbe 0x40645f
  40642d:	and    bh,BYTE PTR [esi]
  40642f:	or     eax,0x2020200a
  406434:	and    BYTE PTR [ebx+esi*2],bh
  406437:	arpl   WORD PTR gs:[ebp+0x72],si
  40643b:	imul   esi,DWORD PTR [ecx+edi*2+0x3e],0x20200a0d
  406443:	and    BYTE PTR [eax],ah
  406445:	and    BYTE PTR [eax],ah
  406447:	cmp    al,0x72
  406449:	gs jno 0x4064c1
  40644c:	gs jae 0x4064c3
  40644f:	gs fs push eax
  406452:	jb     0x4064bd
  406454:	jbe    0x4064bf
  406456:	ins    BYTE PTR es:[edi],dx
  406457:	gs addr16 gs jae 0x40647c
  40645c:	js     0x4064cb
  40645e:	ins    BYTE PTR es:[edi],dx
  40645f:	outs   dx,BYTE PTR ds:[esi]
  406460:	jae    0x40649f
  406462:	and    dh,BYTE PTR [ebp+0x72]
  406465:	outs   dx,BYTE PTR ds:[esi]
  406466:	cmp    dh,BYTE PTR [ebx+0x63]
  406469:	push   0x73616d65
  40646e:	sub    eax,0x7263696d
  406473:	outs   dx,DWORD PTR ds:[esi]
  406474:	jae    0x4064e5
  406476:	data16 je 0x4064a6
  406479:	arpl   WORD PTR [edi+0x6d],bp
  40647c:	cmp    ah,BYTE PTR [ecx+0x73]
  40647f:	ins    DWORD PTR es:[edi],dx
  406480:	cs jbe 0x4064b6
  406483:	and    bh,BYTE PTR [esi]
  406485:	or     eax,0x2020200a
  40648a:	and    BYTE PTR [eax],ah
  40648c:	and    BYTE PTR [eax],ah
  40648e:	and    BYTE PTR [edx+esi*2],bh
  406491:	gs jno 0x406509
  406494:	gs jae 0x40650b
  406497:	gs fs inc ebp
  40649a:	js     0x406501
  40649c:	arpl   WORD PTR [ebp+0x74],si
  40649f:	imul   ebp,DWORD PTR [edi+0x6e],0x6576654c
  4064a6:	ins    BYTE PTR es:[edi],dx
  4064a7:	and    BYTE PTR [ebp+eiz*2+0x76],ch
  4064ab:	gs ins BYTE PTR es:[edi],dx
  4064ad:	cmp    eax,0x49736122
  4064b2:	outs   dx,BYTE PTR ds:[esi]
  4064b3:	jbe    0x406524
  4064b5:	imul   esp,DWORD PTR [ebp+0x72],0x22
  4064b9:	and    BYTE PTR [ebp+0x69],dh
  4064bc:	inc    ecx
  4064bd:	arpl   WORD PTR [ebx+0x65],sp
  4064c0:	jae    0x406535
  4064c2:	cmp    eax,0x6c616622
  4064c7:	jae    0x40652e
  4064c9:	and    ch,BYTE PTR [edi]
  4064cb:	ds or  eax,0x2020200a
  4064d1:	and    BYTE PTR [eax],ah
  4064d3:	and    BYTE PTR [edi+ebp*1],bh
  4064d6:	jb     0x40653d
  4064d8:	jno    0x40654f
  4064da:	gs jae 0x406551
  4064dd:	gs fs push eax
  4064e0:	jb     0x40654b
  4064e2:	jbe    0x40654d
  4064e4:	ins    BYTE PTR es:[edi],dx
  4064e5:	gs addr16 gs jae 0x406528
  4064ea:	or     eax,0x2020200a
  4064ef:	and    BYTE PTR [edi+ebp*1],bh
  4064f2:	jae    0x406559
  4064f4:	arpl   WORD PTR [ebp+0x72],si
  4064f7:	imul   esi,DWORD PTR [ecx+edi*2+0x3e],0x20200a0d
  4064ff:	cmp    al,0x2f
  406501:	je     0x406575
  406503:	jne    0x406578
  406505:	je     0x406550
  406507:	outs   dx,BYTE PTR ds:[esi]
  406508:	outs   dx,WORD PTR ds:[esi]
  40650a:	ds or  eax,0x612f3c0a
  406510:	jae    0x406585
  406512:	gs ins DWORD PTR es:[edi],dx
  406514:	bound  ebp,QWORD PTR [ecx+edi*2+0x3e]
  406518:	or     eax,0xa
  40651d:	add    BYTE PTR [eax],al
	...

Disassembly of section .reloc:

00408000 <.reloc>:
  408000:	add    BYTE PTR [eax+0x0],al
  408003:	add    BYTE PTR [eax+eax*1],cl
  408006:	add    BYTE PTR [eax],al
  408008:	xor    BYTE PTR [edi],bh
	...
