
d1c425e24d4c83685ca1587f2f2b1cced11b73e1387738a84b39ecb6f621ece2.exe:     file format pei-i386


Disassembly of section .text:

00402000 <.text>:
  402000:	add    BYTE PTR [eax+eax*1+0x0],al
  402004:	add    BYTE PTR [eax],al
  402006:	add    BYTE PTR [eax],al
  402008:	dec    eax
  402009:	add    BYTE PTR [eax],al
  40200b:	add    BYTE PTR [edx],al
  40200d:	add    BYTE PTR ds:0x253400,al
  402013:	add    BYTE PTR [eax+0x1d],bl
  402016:	add    BYTE PTR [eax],al
  402018:	or     eax,DWORD PTR [eax]
  40201a:	add    BYTE PTR [eax],al
  40201c:	or     BYTE PTR [eax],al
  40201e:	add    BYTE PTR [esi],al
	...
  402028:	push   eax
  402029:	and    BYTE PTR [eax],al
  40202b:	add    BYTE PTR [eax],al
  40202d:	add    DWORD PTR [eax],eax
	...
  40204f:	add    BYTE PTR [edi+0x5d],dh
  402052:	retf   0x972d
  402055:	cld    
  402056:	mov    dl,0x3b
  402058:	cmp    BYTE PTR [edx],ch
  40205a:	int3   
  40205b:	std    
  40205c:	mov    bl,BYTE PTR [ebp+eiz*1+0x1f7f7ac5]
  402063:	mov    bl,0xda
  402065:	push   0xbfd35f70
  40206a:	xchg   edi,eax
  40206b:	xchg   edi,eax
  40206c:	imul   edi,DWORD PTR [esi-0x4e],0x4275b007
  402073:	out    0xa4,eax
  402075:	mov    al,ds:0xf0dd2a69
  40207a:	lock cmp BYTE PTR [esi],bl
  40207d:	mov    dl,0xe3
  40207f:	clc    
  402080:	iret   
  402081:	sub    DWORD PTR [edx+0x133d0006],ebp
  402087:	(bad)  
  402088:	add    eax,0x3325a9f9
  40208d:	sbb    eax,0x3cd36f9d
  402092:	call   0x5188f9a8
  402097:	(bad)
  40209b:	(bad)  
  40209c:	jmp    0x1ef0:0x6c3f3688
  4020a3:	in     eax,0xa0
  4020a5:	sahf   
  4020a6:	xchg   DWORD PTR [ebp-0x6fbcdb91],edi
  4020ac:	mov    esp,0xc005c8fe
  4020b1:	sub    DWORD PTR [ebp+0x4ddfa6d0],esi
  4020b7:	xor    eax,0x9ec83b53
  4020bc:	cmp    eax,0x90a098cd
  4020c1:	mov    ebx,0xd13f2cdb
  4020c6:	add    DWORD PTR ds:0x837082e0,eax
  4020cc:	test   DWORD PTR [edi+0x15bc3fe9],0x26441711
  4020d6:	test   DWORD PTR [edx+0x3],ebp
  4020d9:	push   edx
  4020da:	sbb    DWORD PTR [esi],0xfffffffc
  4020dd:	xchg   BYTE PTR [ebx],bl
  4020df:	nop
  4020e0:	jmp    0xa5fafabb
  4020e5:	ss dec eax
  4020e7:	repnz test al,0xde
  4020ea:	push   ebx
  4020eb:	or     ecx,esi
  4020ed:	mov    esi,0xb6fe2a4d
  4020f2:	test   edi,0x6b567357
  4020f8:	jne    0x402162
  4020fa:	std    
  4020fb:	jp     0x40216c
  4020fd:	adc    esi,DWORD PTR [ecx]
  4020ff:	add    BYTE PTR [ebx],cl
  402101:	fwait
  402102:	mov    DWORD PTR [ecx+0x199c6b5e],eax
  402108:	nop
  402109:	(bad)  
  40210a:	bound  eax,QWORD PTR [edi]
  40210c:	pop    ss
  40210d:	jecxz  0x402141
  40210f:	push   0xb723f473
  402114:	pop    ds
  402115:	xchg   edx,eax
  402116:	sbb    eax,0x59c53781
  40211b:	dec    ebp
  40211c:	ds dec ecx
  40211e:	pop    ds
  40211f:	in     al,0x53
  402121:	sbb    al,BYTE PTR [ebx-0x72]
  402124:	mov    esi,0x9c5c8cdc
  402129:	push   ebx
  40212a:	lahf   
  40212b:	(bad)  
  40212d:	(bad)  
  40212e:	dec    ecx
  40212f:	mov    ds:0xfcd596dc,al
  402134:	adc    BYTE PTR [ecx-0x1a],bh
  402137:	lds    ebp,FWORD PTR [edi+0x45]
  40213a:	(bad)  
  40213b:	push   0x1e
  40213d:	in     al,dx
  40213e:	repnz lods eax,DWORD PTR ds:[esi]
  402140:	xchg   DWORD PTR [eax+0x2d],ecx
  402143:	xchg   esi,eax
  402144:	inc    ecx
  402145:	dec    edi
  402146:	iret   
  402147:	pop    edi
  402148:	(bad)  [edi]
  40214a:	cmp    DWORD PTR [esp+eax*1],esp
  40214d:	mov    esp,0x30133017
  402152:	add    al,BYTE PTR [eax]
  402154:	sbb    eax,0x1000000
  402159:	add    BYTE PTR [eax],al
  40215b:	adc    DWORD PTR [ebx+0x16],esi
  40215e:	add    BYTE PTR [eax],al
  402160:	or     cl,BYTE PTR [edx]
  402162:	push   es
  402163:	outs   dx,DWORD PTR ds:[esi]
  402164:	pop    ss
  402165:	add    BYTE PTR [eax],al
  402167:	or     dh,BYTE PTR [ebx+0x18]
  40216a:	add    BYTE PTR [eax],al
  40216c:	or     ch,BYTE PTR [edi+0x19]
  40216f:	add    BYTE PTR [eax],al
  402171:	or     al,BYTE PTR [esi]
  402173:	sub    BYTE PTR [edx],bl
  402175:	add    BYTE PTR [eax],al
  402177:	or     ch,BYTE PTR [edx]
  402179:	push   0x4
  40217b:	adc    al,0x51
  40217d:	add    edx,DWORD PTR ds:0x51140554
  402183:	push   cs
  402184:	add    al,0x14
  402186:	push   ecx
  402187:	push   cs
  402188:	add    eax,0x23
  40218d:	add    BYTE PTR [eax],al
  40218f:	add    BYTE PTR [eax],al
  402191:	add    BYTE PTR [edi+0x2a],dl
  402194:	push   es
  402195:	sub    al,BYTE PTR [esi]
  402197:	sub    al,BYTE PTR [esi]
  402199:	sub    bl,BYTE PTR [edx]
  40219b:	jb     0x40219e
  40219d:	add    BYTE PTR [eax],al
  40219f:	jo     0x4021cb
  4021a1:	push   ds
  4021a2:	add    ch,BYTE PTR [eax]
  4021a4:	sbb    eax,DWORD PTR [eax]
  4021a6:	add    BYTE PTR [edx],cl
  4021a8:	sub    al,BYTE PTR [eax]
  4021aa:	add    BYTE PTR [eax],al
  4021ac:	sbb    esi,DWORD PTR [eax]
  4021ae:	add    al,0x0
  4021b0:	in     eax,0x0
  4021b2:	add    BYTE PTR [eax],al
  4021b4:	add    al,BYTE PTR [eax]
  4021b6:	add    BYTE PTR [ecx],dl
  4021b8:	adc    al,0x72
  4021ba:	or     eax,0x28700000
  4021bf:	sbb    eax,0x260a0000
  4021c4:	jb     0x4021f9
  4021c6:	add    BYTE PTR [eax],al
  4021c8:	jo     0x4021e1
  4021ca:	lea    eax,[ecx]
  4021cc:	add    BYTE PTR [eax],al
  4021ce:	add    DWORD PTR [ebx],edx
  4021d0:	push   es
  4021d1:	adc    DWORD PTR [esi],eax
  4021d3:	push   ss
  4021d4:	sub    BYTE PTR [esi],bl
  4021d6:	add    BYTE PTR [eax],al
  4021d8:	or     ah,BYTE PTR [edx+0x1f280611]
  4021de:	add    BYTE PTR [eax],al
  4021e0:	or     ch,BYTE PTR [eax]
  4021e2:	or     eax,0xa060000
  4021e7:	push   es
  4021e8:	sub    BYTE PTR [eax],ah
  4021ea:	add    BYTE PTR [eax],al
  4021ec:	or     ch,BYTE PTR ds:0x1a1f060d
  4021f2:	jae    0x402215
  4021f4:	add    BYTE PTR [eax],al
  4021f6:	or     ch,BYTE PTR [eax]
  4021f8:	and    al,BYTE PTR [eax]
  4021fa:	add    BYTE PTR [edx],cl
  4021fc:	adc    al,0xb
  4021fe:	adc    al,0xc
  402200:	jb     0x402183
  402202:	add    BYTE PTR [eax],al
  402204:	jo     0x402226
  402206:	call   0x6a40220e
  40220b:	jae    0x402230
  40220d:	add    BYTE PTR [eax],al
  40220f:	or     dl,BYTE PTR [ebx]
  402211:	pop    es
  402212:	jae    0x402238
  402214:	add    BYTE PTR [eax],al
  402216:	or     dl,BYTE PTR [ebx]
  402218:	or     BYTE PTR [edx],al
  40221a:	sub    BYTE PTR [ecx],cl
  40221c:	add    BYTE PTR [eax],al
  40221e:	push   es
  40221f:	jle    0x402224
  402221:	add    BYTE PTR [eax],al
  402223:	add    al,0x2c
  402225:	and    al,0x7e
  402227:	add    eax,DWORD PTR [eax]
  402229:	add    BYTE PTR [eax+ebp*1],al
  40222c:	and    eax,0xd0a0000
  402231:	or     DWORD PTR [edi],edx
  402233:	outs   dx,DWORD PTR ds:[esi]
  402234:	add    BYTE PTR es:[eax],al
  402237:	or     cl,BYTE PTR [ecx]
  402239:	adc    al,0xfe
  40223b:	push   es
  40223c:	or     al,0x0
  40223e:	add    BYTE PTR [esi],al
  402240:	jae    0x402269
  402242:	add    BYTE PTR [eax],al
  402244:	or     ch,BYTE PTR [edi+0x28]
  402247:	add    BYTE PTR [eax],al
  402249:	or     dl,BYTE PTR [esi]
  40224b:	sub    BYTE PTR [ecx],ch
  40224d:	add    BYTE PTR [eax],al
  40224f:	or     dl,BYTE PTR [ebx]
  402251:	add    al,0x28
  402253:	or     al,BYTE PTR [eax]
  402255:	add    BYTE PTR [esi],al
  402257:	adc    eax,DWORD PTR ds:0x2a73
  40225d:	or     cl,BYTE PTR [ebx]
  40225f:	adc    DWORD PTR ds:0x37e0411,eax
  402265:	add    BYTE PTR [eax],al
  402267:	add    al,0x73
  402269:	sub    eax,DWORD PTR [eax]
  40226b:	add    BYTE PTR [edx],cl
  40226d:	or     al,0xde
  40226f:	or     al,0x11
  402271:	or     BYTE PTR [edi+eax*1],ch
  402274:	adc    DWORD PTR [eax],ecx
  402276:	outs   dx,DWORD PTR ds:[esi]
  402277:	sub    al,0x0
  402279:	add    BYTE PTR [edx],cl
  40227b:	(bad)  
  40227d:	or     al,0x11
  40227f:	pop    es
  402280:	sub    al,0x7
  402282:	adc    DWORD PTR [edi],eax
  402284:	outs   dx,DWORD PTR ds:[esi]
  402285:	sub    al,0x0
  402287:	add    BYTE PTR [edx],cl
  402289:	fsubr  QWORD PTR [eax]
  40228b:	sub    eax,0x70a0000
  402290:	or     BYTE PTR [edi+0x2e],ch
  402293:	add    BYTE PTR [eax],al
  402295:	or     ah,BYTE PTR [esi]
  402297:	sub    BYTE PTR [edi],ch
  402299:	add    BYTE PTR [eax],al
  40229b:	or     ch,BYTE PTR [edx]
  40229d:	add    BYTE PTR [eax],al
  40229f:	add    BYTE PTR [ecx],al
  4022a1:	sbb    al,0x0
  4022a3:	add    BYTE PTR [edx],al
  4022a5:	add    BYTE PTR [ecx+0x0],ah
  4022a8:	push   edi
  4022a9:	mov    eax,0xc00
  4022ae:	add    BYTE PTR [eax],al
  4022b0:	add    al,BYTE PTR [eax]
  4022b2:	pop    edx
  4022b3:	add    BYTE PTR [esi+eax*8+0x0],ch
  4022b7:	or     al,0x0
  4022b9:	add    BYTE PTR [eax],al
  4022bb:	add    BYTE PTR [ebx],dl
  4022bd:	xor    BYTE PTR [eax+eax*1],al
  4022c0:	mov    bl,0x0
  4022c2:	add    BYTE PTR [eax],al
  4022c4:	add    eax,DWORD PTR [eax]
  4022c6:	add    BYTE PTR [ecx],dl
  4022c8:	push   ss
  4022c9:	or     al,BYTE PTR [edx]
  4022cb:	or     al,0x16
  4022cd:	or     eax,0x8238
  4022d2:	add    BYTE PTR [eax],cl
  4022d4:	or     DWORD PTR [edx-0x428df8f5],ebx
  4022da:	add    BYTE PTR [eax],al
  4022dc:	jo     0x4022f9
  4022de:	outs   dx,DWORD PTR ds:[esi]
  4022df:	xor    BYTE PTR [eax],al
  4022e1:	add    BYTE PTR [edx],cl
  4022e3:	sub    al,0x1b
  4022e5:	pop    es
  4022e6:	pop    es
  4022e7:	jb     0x4022b4
  4022e9:	add    BYTE PTR [eax],al
  4022eb:	jo     0x402307
  4022ed:	outs   dx,DWORD PTR ds:[esi]
  4022ee:	xor    DWORD PTR [eax],eax
  4022f0:	add    BYTE PTR [edx],cl
  4022f2:	pop    ss
  4022f3:	pop    eax
  4022f4:	outs   dx,DWORD PTR ds:[esi]
  4022f5:	xor    al,BYTE PTR [eax]
  4022f7:	add    BYTE PTR [edx],cl
  4022f9:	add    BYTE PTR [edx],0x0
  4022fc:	add    BYTE PTR [ebx+ebp*1],al
  4022ff:	push   ecx
  402300:	pop    es
  402301:	jb     0x4022d2
  402303:	add    BYTE PTR [eax],al
  402305:	jo     0x402322
  402307:	outs   dx,DWORD PTR ds:[esi]
  402308:	xor    BYTE PTR [eax],al
  40230a:	add    BYTE PTR [edx],cl
  40230c:	sub    al,0x2b
  40230e:	pop    es
  40230f:	pop    es
  402310:	jb     0x4022dd
  402312:	add    BYTE PTR [eax],al
  402314:	jo     0x402330
  402316:	outs   dx,DWORD PTR ds:[esi]
  402317:	xor    DWORD PTR [eax],eax
  402319:	add    BYTE PTR [edx],cl
  40231b:	pop    ss
  40231c:	pop    eax
  40231d:	outs   dx,DWORD PTR ds:[esi]
  40231e:	xor    al,BYTE PTR [eax]
  402320:	add    BYTE PTR [edx],cl
  402322:	jg     0x402327
  402324:	add    BYTE PTR [eax],al
  402326:	add    al,0x28
  402328:	xor    eax,DWORD PTR [eax]
  40232a:	add    BYTE PTR [edx],cl
  40232c:	sub    eax,0xe77223
  402331:	add    BYTE PTR [eax+0x73],dh
  402334:	xor    al,0x0
  402336:	add    BYTE PTR [edx],cl
  402338:	jp     0x402341
  40233a:	jb     0x402337
  40233c:	add    BYTE PTR [eax],al
  40233e:	jo     0x40235b
  402340:	sub    BYTE PTR ds:0x2c0a0000,dh
  402346:	add    al,0x17
  402348:	or     ch,BYTE PTR [ebx]
  40234a:	push   es
  40234b:	adc    eax,0x3628
  402350:	or     cl,BYTE PTR [ecx]
  402352:	pop    ss
  402353:	pop    eax
  402354:	or     eax,0x698e0809
  402359:	aas    
  40235a:	jne    0x40235b
  40235c:	(bad)  
  40235d:	(bad)  
  40235e:	jle    0x402362
  402360:	add    BYTE PTR [eax],al
  402362:	add    al,0x28
  402364:	and    BYTE PTR [eax],al
  402366:	add    BYTE PTR [edx],cl
  402368:	sub    eax,0x37e07
  40236d:	add    BYTE PTR [ebp*1+0x62d0609],al
  402374:	adc    eax,0x3628
  402379:	or     ch,BYTE PTR [edx]
  40237b:	add    BYTE PTR [ebx],dl
  40237d:	xor    BYTE PTR [ecx],al
  40237f:	add    BYTE PTR [edx],bl
  402381:	add    BYTE PTR [eax],al
  402383:	add    BYTE PTR [eax+eax*1],al
  402386:	add    BYTE PTR [ecx],dl
  402388:	jae    0x402391
  40238a:	add    BYTE PTR [eax],al
  40238c:	push   es
  40238d:	or     bh,BYTE PTR [esi+0x2]
  402390:	add    BYTE PTR [eax],al
  402392:	add    al,0x28
  402394:	and    BYTE PTR [eax],al
  402396:	add    BYTE PTR [edx],cl
  402398:	sub    eax,0xb2806
  40239d:	add    BYTE PTR [esi],al
  40239f:	or     al,BYTE PTR [esi]
  4023a1:	sub    al,BYTE PTR [eax]
  4023a3:	add    BYTE PTR [ebx],dl
  4023a5:	xor    BYTE PTR [edi],al
  4023a7:	add    al,al
  4023a9:	add    BYTE PTR [eax],al
  4023ab:	add    BYTE PTR ds:0x73110000,al
  4023b1:	aaa    
  4023b2:	add    BYTE PTR [eax],al
  4023b4:	or     cl,BYTE PTR [edx]
  4023b6:	jae    0x4023f0
  4023b8:	add    BYTE PTR [eax],al
  4023ba:	or     cl,BYTE PTR [ebx]
  4023bc:	pop    es
  4023bd:	sbb    DWORD PTR [edi+0x39],ebp
  4023c0:	add    BYTE PTR [eax],al
  4023c2:	or     dh,BYTE PTR [ebx+0x3a]
  4023c5:	add    BYTE PTR [eax],al
  4023c7:	or     cl,BYTE PTR [eax+ecx*1]
  4023ca:	jb     0x4023df
  4023cc:	add    DWORD PTR [eax],eax
  4023ce:	jo     0x4023f8
  4023d0:	cmp    eax,DWORD PTR [eax]
  4023d2:	add    BYTE PTR [edx],cl
  4023d4:	jb     0x4023f3
  4023d6:	add    DWORD PTR [eax],eax
  4023d8:	jo     0x4023f1
  4023da:	lea    eax,[ecx]
  4023dc:	add    BYTE PTR [eax],al
  4023de:	add    DWORD PTR [ebx],edx
  4023e0:	push   es
  4023e1:	adc    DWORD PTR [esi],eax
  4023e3:	push   ss
  4023e4:	jle    0x4023e8
  4023e6:	add    BYTE PTR [eax],al
  4023e8:	add    al,0xa2
  4023ea:	adc    DWORD PTR [esi],eax
  4023ec:	sub    BYTE PTR [eax+eax*1],bh
  4023ef:	add    BYTE PTR [edx],cl
  4023f1:	outs   dx,DWORD PTR ds:[esi]
  4023f2:	cmp    eax,0x80a0000
  4023f7:	jb     0x40242a
  4023f9:	add    DWORD PTR [eax],eax
  4023fb:	jo     0x402405
  4023fd:	jb     0x402412
  4023ff:	add    DWORD PTR [eax],eax
  402401:	jo     0x402472
  402403:	add    BYTE PTR ds:[eax],al
  402406:	or     ch,BYTE PTR [edi+0x3d]
  402409:	add    BYTE PTR [eax],al
  40240b:	or     cl,BYTE PTR [eax]
  40240d:	jb     0x402452
  40240f:	add    DWORD PTR [eax],eax
  402411:	jo     0x40243b
  402413:	aas    
  402414:	add    BYTE PTR [eax],al
  402416:	or     ch,BYTE PTR [edi+0x40]
  402419:	add    BYTE PTR [eax],al
  40241b:	or     ch,BYTE PTR [edi+0x3d]
  40241e:	add    BYTE PTR [eax],al
  402420:	or     cl,BYTE PTR [eax]
  402422:	push   es
  402423:	pop    es
  402424:	jae    0x402467
  402426:	add    BYTE PTR [eax],al
  402428:	or     cl,BYTE PTR ds:0x42281609
  40242e:	add    BYTE PTR [eax],al
  402430:	or     ch,BYTE PTR [eax]
  402432:	cmp    eax,DWORD PTR [eax]
  402434:	add    BYTE PTR [edx],cl
  402436:	jb     0x40249b
  402438:	add    DWORD PTR [eax],eax
  40243a:	jo     0x402453
  40243c:	lea    eax,[ecx]
  40243e:	add    BYTE PTR [eax],al
  402440:	add    DWORD PTR [ebx],edx
  402442:	pop    es
  402443:	adc    DWORD PTR [edi],eax
  402445:	push   ss
  402446:	jle    0x40244a
  402448:	add    BYTE PTR [eax],al
  40244a:	add    al,0xa2
  40244c:	adc    DWORD PTR [edi],eax
  40244e:	sub    BYTE PTR [eax+eax*1],bh
  402451:	add    BYTE PTR [edx],cl
  402453:	adc    eax,DWORD PTR [eax+edx*8]
  402456:	add    al,BYTE PTR [eax]
  402458:	add    BYTE PTR [ecx],al
  40245a:	sub    BYTE PTR [ebx+0x0],al
  40245d:	add    BYTE PTR [edx],cl
  40245f:	adc    DWORD PTR [eax+ebp*1],eax
  402462:	inc    esp
  402463:	add    BYTE PTR [eax],al
  402465:	or     dh,BYTE PTR [edx+eax*1+0x0]
  402469:	add    BYTE PTR [ecx],al
  40246b:	adc    eax,DWORD PTR ds:0x1e2a0511
  402471:	adc    eax,0x3628
  402476:	or     ch,BYTE PTR [edx]
  402478:	sbb    esi,DWORD PTR [eax]
  40247a:	add    eax,0xa000
  40247f:	add    BYTE PTR [esi],al
  402481:	add    BYTE PTR [eax],al
  402483:	adc    DWORD PTR [edi],ebx
  402485:	sbb    al,0x28
  402487:	inc    ebp
  402488:	add    BYTE PTR [eax],al
  40248a:	or     cl,BYTE PTR [edx]
  40248c:	sub    BYTE PTR [esi+0x0],al
  40248f:	add    BYTE PTR [edx],cl
  402491:	outs   dx,DWORD PTR ds:[esi]
  402492:	inc    edi
  402493:	add    BYTE PTR [eax],al
  402495:	or     ch,BYTE PTR [edi+0x48]
  402498:	add    BYTE PTR [eax],al
  40249a:	or     cl,BYTE PTR [ebx]
  40249c:	sub    BYTE PTR [ebx],bh
  40249e:	add    BYTE PTR [eax],al
  4024a0:	or     dh,BYTE PTR [edx-0x71]
  4024a3:	add    DWORD PTR [eax],eax
  4024a5:	jo     0x4024bf
  4024a7:	lea    eax,[ecx]
  4024a9:	add    BYTE PTR [eax],al
  4024ab:	add    DWORD PTR [ebx],edx
  4024ad:	pop    es
  4024ae:	adc    DWORD PTR [edi],eax
  4024b0:	push   ss
  4024b1:	pop    es
  4024b2:	outs   dx,DWORD PTR ds:[esi]
  4024b3:	dec    ecx
  4024b4:	add    BYTE PTR [eax],al
  4024b6:	or     cl,BYTE PTR [ebp+esi*1-0x5dff0000]
  4024bd:	adc    DWORD PTR [edi],eax
  4024bf:	pop    ss
  4024c0:	pop    es
  4024c1:	outs   dx,DWORD PTR ds:[esi]
  4024c2:	dec    edx
  4024c3:	add    BYTE PTR [eax],al
  4024c5:	or     cl,BYTE PTR [ebp+esi*1-0x5dff0000]
  4024cc:	adc    DWORD PTR [edi],eax
  4024ce:	sub    BYTE PTR [eax+eax*1],bh
  4024d1:	add    BYTE PTR [edx],cl
  4024d3:	or     al,0x72
  4024d5:	mov    eax,ds:0x72700001
  4024da:	mov    ch,0x1
  4024dc:	add    BYTE PTR [eax+0x28],dh
  4024df:	dec    ebx
  4024e0:	add    BYTE PTR [eax],al
  4024e2:	or     cl,BYTE PTR [eax]
  4024e4:	sub    BYTE PTR [ebx+0x0],cl
  4024e7:	add    BYTE PTR [edx],cl
  4024e9:	or     eax,0x4b280906
  4024ee:	add    BYTE PTR [eax],al
  4024f0:	or     dl,BYTE PTR [ebx]
  4024f2:	add    al,0x11
  4024f4:	add    al,0x28
  4024f6:	dec    esp
  4024f7:	add    BYTE PTR [eax],al
  4024f9:	or     ch,BYTE PTR ds:0x28041108
  4024ff:	dec    ebp
  402500:	add    BYTE PTR [eax],al
  402502:	or     ah,BYTE PTR [esi]
  402504:	ficomp WORD PTR [eax]
  402506:	adc    eax,DWORD PTR ds:0x1c772
  40250c:	jo     0x402536
  40250e:	dec    esi
  40250f:	add    BYTE PTR [eax],al
  402511:	or     dl,BYTE PTR [ecx]
  402513:	add    eax,0x4f28
  402518:	or     dl,BYTE PTR [ebx+edx*1]
  40251b:	push   es
  40251c:	fiadd  WORD PTR [ebx]
  40251e:	adc    DWORD PTR [edx+ebp*1],eax
  402521:	adc    DWORD PTR [esi],eax
  402523:	sub    al,BYTE PTR [ecx]
  402525:	adc    BYTE PTR [eax],al
  402527:	add    BYTE PTR [eax],al
  402529:	add    BYTE PTR [edi+0x0],ch
  40252c:	adc    eax,DWORD PTR [edx+0x501800]
  402532:	add    BYTE PTR [ecx],al
  402534:	inc    edx
  402535:	push   ebx
  402536:	dec    edx
  402537:	inc    edx
  402538:	add    DWORD PTR [eax],eax
  40253a:	add    DWORD PTR [eax],eax
  40253c:	add    BYTE PTR [eax],al
  40253e:	add    BYTE PTR [eax],al
  402540:	or     al,0x0
  402542:	add    BYTE PTR [eax],al
  402544:	jbe    0x40257a
  402546:	xor    BYTE PTR cs:[esi],ch
  402549:	xor    esi,DWORD PTR [eax]
  40254b:	xor    esi,DWORD PTR [ecx]
  40254d:	cmp    DWORD PTR [eax],eax
  40254f:	add    BYTE PTR [eax],al
  402551:	add    BYTE PTR ds:0x6c00,al
  402557:	add    BYTE PTR [eax+0x23000006],bh
  40255d:	jle    0x40255f
  40255f:	add    BYTE PTR [edi+eax*1],ah
  402562:	add    BYTE PTR [eax],al
  402564:	ror    BYTE PTR [eax+eax*1],1
  402567:	add    BYTE PTR [ebx],ah
  402569:	push   ebx
  40256a:	je     0x4025de
  40256c:	imul   ebp,DWORD PTR [esi+0x67],0x73
  402573:	add    ah,dh
  402575:	adc    eax,DWORD PTR [eax]
  402577:	add    BYTE PTR [edx+eax*1],bl
  40257a:	add    BYTE PTR [eax],al
  40257c:	and    edx,DWORD PTR [ebp+0x53]
  40257f:	add    BYTE PTR [eax],dl
  402581:	push   ss
  402582:	add    BYTE PTR [eax],al
  402584:	adc    BYTE PTR [eax],al
  402586:	add    BYTE PTR [eax],al
  402588:	and    eax,DWORD PTR [edi+0x55]
  40258b:	dec    ecx
  40258c:	inc    esp
  40258d:	add    BYTE PTR [eax],al
  40258f:	add    BYTE PTR [eax],ah
  402591:	push   ss
  402592:	add    BYTE PTR [eax],al
  402594:	cmp    BYTE PTR [edi],al
  402596:	add    BYTE PTR [eax],al
  402598:	and    eax,DWORD PTR [edx+0x6c]
  40259b:	outs   dx,DWORD PTR ds:[esi]
  40259c:	bound  eax,QWORD PTR [eax]
  40259e:	add    BYTE PTR [eax],al
  4025a0:	add    BYTE PTR [eax],al
  4025a2:	add    BYTE PTR [eax],al
  4025a4:	add    al,BYTE PTR [eax]
  4025a6:	add    BYTE PTR [ecx],al
  4025a8:	push   edi
  4025a9:	pop    ds
  4025aa:	add    cl,BYTE PTR [eax]
  4025ac:	or     DWORD PTR [eax],eax
  4025ae:	add    BYTE PTR [eax],al
  4025b0:	add    dl,bh
  4025b2:	and    eax,0x160033
  4025b7:	add    BYTE PTR [ecx],al
  4025b9:	add    BYTE PTR [eax],al
  4025bb:	add    BYTE PTR [eax+0x0],dl
  4025be:	add    BYTE PTR [eax],al
  4025c0:	add    eax,DWORD PTR [eax]
  4025c2:	add    BYTE PTR [eax],al
  4025c4:	add    eax,DWORD PTR [eax]
  4025c6:	add    BYTE PTR [eax],al
  4025c8:	or     eax,0xb000000
  4025cd:	add    BYTE PTR [eax],al
  4025cf:	add    BYTE PTR [ecx],al
  4025d1:	add    BYTE PTR [eax],al
  4025d3:	add    BYTE PTR [edi+0x0],cl
  4025d6:	add    BYTE PTR [eax],al
  4025d8:	add    DWORD PTR [eax],eax
  4025da:	add    BYTE PTR [eax],al
  4025dc:	adc    al,0x0
  4025de:	add    BYTE PTR [eax],al
  4025e0:	push   es
  4025e1:	add    BYTE PTR [eax],al
  4025e3:	add    BYTE PTR [ecx],al
  4025e5:	add    BYTE PTR [eax],al
  4025e7:	add    BYTE PTR [ecx],al
  4025e9:	add    BYTE PTR [eax],al
  4025eb:	add    BYTE PTR [edx],cl
  4025ed:	add    BYTE PTR [eax],al
  4025ef:	add    BYTE PTR [eax],al
  4025f1:	add    BYTE PTR [edx],cl
  4025f3:	add    BYTE PTR [ecx],al
  4025f5:	add    BYTE PTR [eax],al
  4025f7:	add    BYTE PTR [eax],al
  4025f9:	add    BYTE PTR [esi],al
  4025fb:	add    BYTE PTR [edx+0xa009300],bl
  402601:	add    BYTE PTR ds:0x600da01,al
  402607:	add    BYTE PTR ds:0x6012201,bh
  40260d:	add    bh,dl
  40260f:	add    DWORD PTR [ebx+0x41000600],edx
  402615:	add    ah,BYTE PTR [edx]
  402617:	add    al,BYTE PTR [esi]
  402619:	add    BYTE PTR [edi+0x6029502],ch
  40261f:	add    al,cl
  402621:	add    ah,BYTE PTR [edx]
  402623:	add    al,BYTE PTR [esi]
  402625:	add    ah,bl
  402627:	add    dl,BYTE PTR [ebx+0x4000600]
  40262d:	add    esi,edx
  40262f:	add    al,BYTE PTR [esi]
  402631:	add    BYTE PTR [ebx],bl
  402633:	add    esi,edx
  402635:	add    al,BYTE PTR [esi]
  402637:	add    BYTE PTR [eax],bh
  402639:	add    esi,edx
  40263b:	add    al,BYTE PTR [esi]
  40263d:	add    BYTE PTR [esi+0x3],dl
  402640:	repnz add al,BYTE PTR [esi]
  402643:	add    BYTE PTR [edi+0x3],ch
  402646:	repnz add al,BYTE PTR [esi]
  402649:	add    BYTE PTR [eax+0x602f203],cl
  40264f:	add    BYTE PTR [ebx+0x602f203],ah
  402655:	add    BYTE PTR [ebx+eax*1+0x602f2],bh
  40265c:	fld    DWORD PTR [ebx]
  40265e:	repnz add al,BYTE PTR [esi]
  402661:	add    BYTE PTR [eax],dl
  402663:	add    al,0xff
  402665:	add    eax,DWORD PTR [esi]
  402667:	add    BYTE PTR [edx],dh
  402669:	add    al,0xff
  40266b:	add    eax,DWORD PTR [esi]
  40266d:	add    BYTE PTR [esp+eax*1-0xe],dl
  402671:	add    al,BYTE PTR [esi]
  402673:	add    BYTE PTR [edi+0x4],ch
  402676:	repnz add al,BYTE PTR [esi]
  402679:	add    BYTE PTR [eax+0x602f204],cl
  40267f:	add    dh,al
  402681:	add    al,0xa6
  402683:	add    al,0x6
  402685:	add    bh,dh
  402687:	add    al,0xe4
  402689:	add    al,0x63
  40268b:	add    BYTE PTR [ebx],cl
  40268d:	add    eax,0x60000
  402692:	sbb    al,BYTE PTR ds:0xe04a6
  402698:	jl     0x40269f
  40269a:	dec    ebp
  40269b:	add    eax,0x5a20006
  4026a0:	add    DWORD PTR ds:0x5e4000e,0xffffffaf
  4026a7:	add    eax,0x5f7000a
  4026ac:	fiadd  DWORD PTR [eax]
  4026ae:	push   es
  4026af:	add    BYTE PTR [eax],ah
  4026b1:	push   es
  4026b2:	xchg   ebx,eax
  4026b3:	add    BYTE PTR [edx],dl
  4026b5:	add    BYTE PTR [ebp+0x6],ah
  4026b8:	xor    eax,DWORD PTR [esi]
  4026ba:	push   ss
  4026bb:	add    BYTE PTR [eax+0x6],bh
  4026be:	in     al,0x4
  4026c0:	push   es
  4026c1:	add    BYTE PTR [ebp+0x12009306],bl
  4026c7:	add    BYTE PTR [ecx+0x6063306],bh
  4026cd:	add    bh,al
  4026cf:	push   es
  4026d0:	xchg   ebx,eax
  4026d1:	add    BYTE PTR [edx],bl
  4026d3:	add    BYTE PTR [ecx],dh
  4026d5:	pop    es
  4026d6:	add    al,0x7
  4026d8:	sbb    al,BYTE PTR [eax]
  4026da:	inc    eax
  4026db:	pop    es
  4026dc:	add    al,0x7
  4026de:	sbb    al,BYTE PTR [eax]
  4026e0:	dec    ecx
  4026e1:	pop    es
  4026e2:	add    al,0x7
  4026e4:	adc    al,BYTE PTR [eax]
  4026e6:	pop    ebp
  4026e7:	pop    es
  4026e8:	xor    eax,DWORD PTR [esi]
  4026ea:	or     al,BYTE PTR [eax]
  4026ec:	imul   eax,DWORD PTR [edi],0x1600da
  4026f2:	js     0x4026fb
  4026f4:	in     al,0x4
  4026f6:	push   es
  4026f7:	add    BYTE PTR [edi+0x1e009307],ah
  4026fd:	add    ah,dl
  4026ff:	pop    es
  402700:	mov    edi,0xe9001e07
  402705:	pop    es
  402706:	mov    edi,0xf7001e07
  40270b:	pop    es
  40270c:	mov    edi,0x48002207
  402711:	or     BYTE PTR [ecx],bh
  402713:	or     BYTE PTR [esi],ah
  402715:	add    dh,dl
  402717:	or     BYTE PTR [ebp-0x1bfff9f8],cl
  40271d:	or     BYTE PTR [ebx-0x7ffee00],dl
  402723:	or     BYTE PTR [ebx],dh
  402725:	push   es
  402726:	and    al,BYTE PTR [eax]
  402728:	push   es
  402729:	or     DWORD PTR [ecx],edi
  40272b:	or     BYTE PTR [esi],al
  40272d:	add    BYTE PTR [ecx],bl
  40272f:	or     DWORD PTR [ebx+0x47000600],edx
  402735:	or     DWORD PTR [ebx+0x56000600],edx
  40273b:	or     DWORD PTR [ebx-0x52ffd600],edx
  402741:	or     DWORD PTR [ecx+ecx*1+0x9cf002a],ecx
  402748:	mov    WORD PTR [ecx],cs
  40274a:	push   es
  40274b:	add    BYTE PTR [ecx],bl
  40274d:	or     dh,cl
  40274f:	or     DWORD PTR [esi],eax
  402751:	add    BYTE PTR [eax+0xa],dl
  402754:	cmp    eax,0x6f00060a
  402759:	or     bl,BYTE PTR [edx+0xa]
  40275c:	push   es
  40275d:	add    BYTE PTR [eax+0x600930a],dl
  402763:	add    bl,dl
  402765:	or     bh,BYTE PTR [ecx+0x500060a]
  40276b:	or     ebp,esi
  40276d:	or     ch,BYTE PTR [edx]
  40276f:	add    BYTE PTR [edx+0xb],al
  402772:	sbb    eax,0x4d00060b
  402777:	or     edi,DWORD PTR ds:0x5900060a
  40277d:	or     ecx,DWORD PTR [ecx+ecx*1+0xb740006]
  402784:	mov    WORD PTR [ecx],cs
  402786:	push   es
  402787:	add    BYTE PTR [edi+0x6098c0b],cl
  40278d:	add    BYTE PTR [edi+0x6098c0b],bl
  402793:	add    BYTE PTR [eax+0x600930b],bh
  402799:	add    BYTE PTR [ebp+0x600930b],bh
  40279f:	add    cl,ah
  4027a1:	or     edx,DWORD PTR [ebx-0xaff7500]
  4027a7:	or     eax,DWORD PTR [eax]
  4027a9:	add    BYTE PTR [esi],al
  4027ab:	add    BYTE PTR [ecx],dl
  4027ad:	or     al,0xf2
  4027af:	add    al,BYTE PTR [esi]
  4027b1:	add    BYTE PTR [edi],ch
  4027b3:	or     al,0xf2
  4027b5:	add    al,BYTE PTR [esi]
  4027b7:	add    BYTE PTR [esp+ecx*1-0x6d],al
  4027bb:	add    BYTE PTR [esi],al
  4027bd:	add    BYTE PTR [esi+0xc],dh
  4027c0:	ins    BYTE PTR es:[edi],dx
  4027c1:	or     al,0x6
  4027c3:	add    BYTE PTR [ebx+0x60c6c0c],al
  4027c9:	add    BYTE PTR [esp+ecx*1+0x60c6c],dl
  4027d0:	mov    eax,0x600930c
  4027d5:	add    dl,al
  4027d7:	or     al,0x6c
  4027d9:	or     al,0x0
  4027db:	add    BYTE PTR [eax],al
  4027dd:	add    BYTE PTR [ecx],al
  4027df:	add    BYTE PTR [eax],al
  4027e1:	add    BYTE PTR [eax],al
  4027e3:	add    BYTE PTR [ecx],al
  4027e5:	add    BYTE PTR [ecx],al
  4027e7:	add    BYTE PTR [eax],al
  4027e9:	add    BYTE PTR [eax],dl
  4027eb:	add    BYTE PTR [ecx],ah
  4027ed:	add    BYTE PTR [ebx],bh
  4027ef:	add    BYTE PTR ds:0x1000100,al
  4027f5:	add    BYTE PTR [ecx-0x7dffefff],al
  4027fb:	add    BYTE PTR [ebx],bh
  4027fd:	add    BYTE PTR ds:0x8000100,al
  402803:	add    BYTE PTR [ecx-0x80],dl
  402806:	nop
  402807:	add    DWORD PTR [eax+eax*1],esi
  40280a:	adc    DWORD PTR [eax],eax
  40280c:	or     BYTE PTR [edx],al
  40280e:	push   edx
  40280f:	add    BYTE PTR [ecx],dl
  402811:	add    BYTE PTR [ecx],dl
  402813:	add    dl,BYTE PTR [ebp+0x0]
  402816:	push   eax
  402817:	and    DWORD PTR [eax],eax
  402819:	add    BYTE PTR [eax],al
  40281b:	add    dh,ah
  40281d:	add    DWORD PTR [ecx],ebx
  40281f:	add    DWORD PTR [ebx],edx
  402821:	add    BYTE PTR [ecx],al
  402823:	add    BYTE PTR [ecx+0x21],bh
  402826:	add    BYTE PTR [eax],al
  402828:	add    BYTE PTR [eax],al
  40282a:	out    0x1,al
  40282c:	dec    edx
  40282d:	add    DWORD PTR [edi],edx
  40282f:	add    BYTE PTR [ecx],al
  402831:	add    BYTE PTR [ecx+eiz*1+0x0],dl
  402838:	out    0x1,al
  40283a:	pop    edx
  40283b:	add    DWORD PTR [ebx],ebp
  40283d:	add    BYTE PTR [esi],al
  40283f:	add    BYTE PTR [esi+0x21],dl
  402845:	add    dh,ah
  402847:	add    DWORD PTR [ebp+0x1],esp
  40284a:	sub    eax,DWORD PTR [eax]
  40284c:	pop    es
  40284d:	add    BYTE PTR [eax+0x21],bl
  402853:	add    dh,ah
  402855:	add    DWORD PTR [edi+0x1],ebp
  402858:	xor    BYTE PTR [eax],al
  40285a:	or     BYTE PTR [eax],al
  40285c:	call   0xe600:0x21
  402863:	add    DWORD PTR [eax+0x1],edi
  402866:	adc    eax,DWORD PTR [eax]
  402868:	or     BYTE PTR [eax],al
  40286a:	mov    eax,ds:0x21
  40286f:	add    BYTE PTR [esi+0x30018a18],al
  402875:	add    BYTE PTR [eax],cl
  402877:	add    BYTE PTR [ecx+eiz*1+0x0],ch
  40287e:	xchg   esi,eax
  40287f:	add    BYTE PTR [ecx+0x8003c01],bl
  402885:	add    BYTE PTR [edx+eiz*1+0x0],bh
  40288c:	xchg   ecx,eax
  40288d:	add    BYTE PTR [esi+0x9003c01],bl
  402893:	add    BYTE PTR [ebx+eiz*1+0x0],bh
  402897:	add    BYTE PTR [eax],al
  402899:	add    BYTE PTR [ecx+0x4201ac00],dl
  40289f:	add    BYTE PTR [edx],cl
  4028a1:	add    BYTE PTR [ebx+eiz*1+0x0],ah
  4028a8:	xchg   ecx,eax
  4028a9:	add    dl,al
  4028ab:	add    DWORD PTR [edx+0x0],eax
  4028ae:	or     al,BYTE PTR [eax]
  4028b0:	jo     0x4028d6
  4028b2:	add    BYTE PTR [eax],al
  4028b4:	add    BYTE PTR [eax],al
  4028b6:	xchg   ecx,eax
  4028b7:	add    cl,ah
  4028b9:	add    DWORD PTR [edi+0x0],eax
  4028bc:	or     al,BYTE PTR [eax]
  4028be:	js     0x4028e4
  4028c0:	add    BYTE PTR [eax],al
  4028c2:	add    BYTE PTR [eax],al
  4028c4:	xchg   ecx,eax
  4028c5:	add    ch,dh
  4028c7:	add    DWORD PTR [esi+0x0],ecx
  4028ca:	or     al,0x0
  4028cc:	add    al,BYTE PTR [eax]
  4028ce:	add    DWORD PTR [eax],eax
  4028d0:	sbb    eax,DWORD PTR [edx]
  4028d2:	add    al,BYTE PTR [eax]
  4028d4:	add    al,BYTE PTR [eax]
  4028d6:	dec    esi
  4028d7:	add    al,BYTE PTR [edx]
  4028d9:	add    BYTE PTR [ebx],al
  4028db:	add    BYTE PTR [ebp+0x2],dl
  4028de:	add    al,BYTE PTR [eax]
  4028e0:	add    al,0x0
  4028e2:	pop    ebp
  4028e3:	add    al,BYTE PTR [edx]
  4028e5:	add    BYTE PTR ds:0x26d00,al
  4028eb:	add    BYTE PTR [ecx],al
  4028ed:	add    BYTE PTR [esi+0x2],dh
  4028f0:	add    BYTE PTR [eax],al
  4028f2:	add    DWORD PTR [eax],eax
  4028f4:	jle    0x4028f8
  4028f6:	add    BYTE PTR [eax],al
  4028f8:	add    DWORD PTR [eax],eax
  4028fa:	test   DWORD PTR [edx],eax
  4028fc:	add    BYTE PTR [eax],al
  4028fe:	add    DWORD PTR [eax],eax
  402900:	test   DWORD PTR [edx],eax
  402902:	add    BYTE PTR [eax],al
  402904:	add    DWORD PTR [eax],eax
  402906:	mov    al,BYTE PTR [edx]
  402908:	add    BYTE PTR [eax],al
  40290a:	add    al,BYTE PTR [eax]
  40290c:	xchg   ecx,eax
  40290d:	add    al,BYTE PTR [edx]
  40290f:	add    BYTE PTR [ecx],cl
  402911:	add    BYTE PTR [ecx],ch
  402913:	add    BYTE PTR [edx+0x31003001],cl
  402919:	add    BYTE PTR [edx+0x39002b01],cl
  40291f:	add    BYTE PTR [edx+0x41005801],cl
  402925:	add    BYTE PTR [edx+0x49005801],cl
  40292b:	add    BYTE PTR [edx+0x51002b01],cl
  402931:	add    BYTE PTR [edx+0x59002b01],cl
  402937:	add    BYTE PTR [edx+0x61002b01],cl
  40293d:	add    BYTE PTR [edx+0x69002b01],cl
  402943:	add    BYTE PTR [edx+0x71002b01],cl
  402949:	add    BYTE PTR [edx+0x79002b01],cl
  40294f:	add    BYTE PTR [edx-0x7effd4ff],cl
  402955:	add    BYTE PTR [edx-0x76ffd4ff],cl
  40295b:	add    BYTE PTR [edx-0x6effd4ff],cl
  402961:	add    BYTE PTR [edx-0x66ffd4ff],cl
  402967:	add    BYTE PTR [edx-0x5effd4ff],cl
  40296d:	add    BYTE PTR [edx-0x56ffa7ff],cl
  402973:	add    BYTE PTR [edx-0x4effd4ff],cl
  402979:	add    BYTE PTR [edx-0x46ffa2ff],cl
  40297f:	add    BYTE PTR [edx-0x3effcfff],cl
  402985:	add    BYTE PTR [edx-0x2eff9cff],cl
  40298b:	add    BYTE PTR [edx-0x26ff96ff],cl
  402991:	add    BYTE PTR [edx-0x26ffcfff],cl
  402997:	add    dl,ch
  402999:	add    eax,0xe90110
  40299e:	mov    al,BYTE PTR [ecx]
  4029a0:	xor    BYTE PTR [eax],al
  4029a2:	or     al,0x0
  4029a4:	repz add eax,0xf10120
  4029aa:	adc    DWORD PTR [esi],eax
  4029ac:	add    DWORD PTR es:[ecx],ecx
  4029af:	add    BYTE PTR [edx-0x6ffcfff],cl
  4029b5:	add    BYTE PTR [edx+0x1003001],cl
  4029bb:	add    DWORD PTR [eax+0x11013606],edx
  4029c1:	add    DWORD PTR [ecx+0x19004e06],ebp
  4029c7:	add    edx,eax
  4029c9:	push   es
  4029ca:	add    DWORD PTR ds:[ecx],esp
  4029cd:	add    esi,ecx
  4029cf:	push   es
  4029d0:	inc    ebp
  4029d1:	add    DWORD PTR [ecx],ebp
  4029d3:	add    DWORD PTR [edx+0x31014a01],ecx
  4029d9:	add    DWORD PTR [edx+0x7],edx
  4029dc:	push   eax
  4029dd:	add    DWORD PTR [ecx+0x1],eax
  4029e0:	mov    al,BYTE PTR [ecx]
  4029e2:	push   edi
  4029e3:	add    DWORD PTR [ecx+0x1],ecx
  4029e6:	mov    al,BYTE PTR [ecx]
  4029e8:	xor    BYTE PTR [eax],al
  4029ea:	push   ecx
  4029eb:	add    DWORD PTR [eax+0x51015d07],eax
  4029f1:	add    DWORD PTR [edi+0x59005807],ecx
  4029f7:	add    DWORD PTR [edx+0x51016401],ecx
  4029fd:	add    DWORD PTR [edi+eax*1+0x161016a],esi
  402a04:	push   cs
  402a05:	or     BYTE PTR [ecx+0x1],dh
  402a08:	jns    0x402a0b
  402a0a:	mov    al,BYTE PTR [ecx]
  402a0c:	xor    BYTE PTR [eax],al
  402a0e:	add    DWORD PTR [ecx],0x183018a
  402a14:	mov    DWORD PTR [ecx],eax
  402a16:	lock or BYTE PTR [eax],dh
  402a19:	add    BYTE PTR [ecx-0x72f8adff],dl
  402a1f:	add    DWORD PTR [ecx+0x1],edi
  402a22:	or     eax,0x31019109
  402a27:	add    DWORD PTR [ecx],edx
  402a29:	or     DWORD PTR [ebp+0x2a012101],ecx
  402a2f:	or     DWORD PTR [edx+0x35012101],esi
  402a35:	or     DWORD PTR [edx+0x3d012101],edi
  402a3b:	or     edx,eax
  402a3d:	add    DWORD PTR [ecx-0x38f6b2ff],ebp
  402a43:	add    DWORD PTR [ecx+0x2b018a01],esi
  402a49:	add    BYTE PTR [ecx],ah
  402a4b:	add    DWORD PTR [eax+0x9],ebp
  402a4e:	into   
  402a4f:	add    DWORD PTR [ecx],edx
  402a51:	add    DWORD PTR [edi+0x9],ebp
  402a54:	xlat   BYTE PTR ds:[ebx]
  402a55:	add    DWORD PTR [ecx+0x30018a01],edi
  402a5b:	add    cl,al
  402a5d:	add    DWORD PTR [edx-0x3effcfff],ecx
  402a63:	add    DWORD PTR [ecx],ebp
  402a65:	or     ch,cl
  402a67:	add    ecx,edx
  402a69:	add    DWORD PTR [edx-0x26ffcfff],ecx
  402a6f:	add    DWORD PTR [ebx+0xa],edi
  402a72:	lock add DWORD PTR [ecx],esp
  402a75:	add    DWORD PTR [eax-0x2efe09f6],esp
  402a7b:	add    DWORD PTR [edi-0x2efdfff6],esp
  402a81:	add    DWORD PTR [eax-0x16fdf9f6],esi
  402a87:	add    ebx,esp
  402a89:	or     cl,BYTE PTR [ebx]
  402a8b:	add    dh,cl
  402a8d:	add    DWORD PTR [ebx+ecx*1],edx
  402a90:	adc    eax,DWORD PTR [eax]
  402a92:	stc    
  402a93:	add    DWORD PTR [edx+0x19021101],ecx
  402a99:	add    ch,BYTE PTR [eax+0x29021e0b]
  402a9f:	add    cl,bh
  402aa1:	or     esp,DWORD PTR [esi]
  402aa3:	add    bh,BYTE PTR [ecx]
  402aa5:	add    ch,bl
  402aa7:	or     ebp,DWORD PTR [edi]
  402aa9:	add    dl,BYTE PTR [ecx]
  402aab:	add    DWORD PTR [ebx],eax
  402aad:	or     al,0x4d
  402aaf:	add    cl,BYTE PTR [ecx+0x2]
  402ab2:	sbb    cl,BYTE PTR [esp+edx*2]
  402ab5:	add    cl,BYTE PTR [ecx+0x2]
  402ab8:	cmp    al,0xc
  402aba:	pop    edx
  402abb:	add    dl,BYTE PTR [ecx+0x2]
  402abe:	dec    esp
  402abf:	or     al,0x60
  402ac1:	add    bl,BYTE PTR [ecx+0x2]
  402ac4:	pop    eax
  402ac5:	or     al,0x66
  402ac7:	add    bl,BYTE PTR [ecx+0x2]
  402aca:	bound  ecx,QWORD PTR [esi+eiz*2]
  402acd:	add    ah,BYTE PTR [ecx+0x2]
  402ad0:	jnp    0x402ade
  402ad2:	push   0x2
  402ad4:	imul   eax,DWORD PTR [edx],0x1450c8d
  402ada:	imul   eax,DWORD PTR [edx],0x2700ca2
  402ae0:	sbb    DWORD PTR [ecx],eax
  402ae2:	mov    dl,0xc
  402ae4:	ja     0x402ae8
  402ae6:	sbb    DWORD PTR [ecx],eax
  402ae8:	mov    dl,0xc
  402aea:	jl     0x402aee
  402aec:	or     DWORD PTR [eax],eax
  402aee:	add    al,0x0
  402af0:	aaa    
  402af1:	add    BYTE PTR [esi],ch
  402af3:	add    BYTE PTR [ebx+0x0],dl
  402af6:	xor    eax,DWORD PTR [ebx]
  402af8:	add    BYTE PTR cs:[ebx],dl
  402afb:	add    BYTE PTR [ebx+0x1b002e02],dl
  402b01:	add    bl,cl
  402b03:	add    ch,BYTE PTR [esi]
  402b05:	add    BYTE PTR [ebx],ah
  402b07:	add    cl,dl
  402b09:	add    ch,BYTE PTR [esi]
  402b0b:	add    BYTE PTR [ebx],ch
  402b0d:	add    bh,dl
  402b0f:	add    ch,BYTE PTR [esi]
  402b11:	add    BYTE PTR [ebx],dh
  402b13:	add    bh,dl
  402b15:	add    ch,BYTE PTR [esi]
  402b17:	add    BYTE PTR [ebx],bh
  402b19:	add    bh,dl
  402b1b:	add    ch,BYTE PTR [esi]
  402b1d:	add    BYTE PTR [ebx+0x0],al
  402b20:	repnz add ch,BYTE PTR [esi]
  402b23:	add    BYTE PTR [ebx+0x0],cl
  402b26:	or     eax,0x83002e03
  402b2b:	add    cl,dl
  402b2d:	add    ch,BYTE PTR [esi]
  402b2f:	add    BYTE PTR [ebx+0x2e072f00],ch
  402b35:	add    BYTE PTR [ebx+0x0],ch
  402b38:	add    ebp,DWORD PTR ds:0x7300
  402b3d:	add    BYTE PTR [ecx+0x3],bh
  402b40:	add    BYTE PTR cs:[ebx+0x0],bh
  402b44:	xchg   DWORD PTR [ebx],eax
  402b46:	add    BYTE PTR cs:[ebx+0x0],ah
  402b4a:	add    ebp,DWORD PTR ds:0x8b00
  402b4f:	add    BYTE PTR [edx-0x6cffd1fd],dl
  402b55:	add    BYTE PTR [ebp-0x64ffd1fd],bh
  402b5b:	add    BYTE PTR [edi],al
  402b5d:	pop    es
  402b5e:	add    BYTE PTR cs:[ebx+0x72600],ah
  402b65:	add    ebx,esp
  402b67:	add    BYTE PTR [ecx],dh
  402b69:	add    DWORD PTR [ecx+eax*1],ebp
  402b6c:	cwde   
  402b6d:	add    esp,ebx
  402b6f:	add    esp,esp
  402b71:	add    DWORD PTR [edi],esi
  402b73:	add    al,BYTE PTR [ebx+0x4011902]
  402b79:	add    BYTE PTR [eax],0x0
  402b7c:	or     eax,DWORD PTR [eax]
  402b7e:	add    BYTE PTR [eax],al
  402b80:	add    BYTE PTR [eax],al
  402b82:	add    BYTE PTR [eax],al
  402b84:	add    DWORD PTR [eax],eax
  402b86:	add    BYTE PTR [eax],al
  402b88:	outs   dx,BYTE PTR ds:[esi]
  402b89:	add    BYTE PTR [edx],bh
  402b8b:	add    eax,0x40000
	...
  402b98:	add    BYTE PTR [eax],al
  402b9a:	add    DWORD PTR [eax],eax
  402b9c:	mov    al,BYTE PTR [eax]
  402b9e:	add    BYTE PTR [eax],al
  402ba0:	add    BYTE PTR [eax],al
  402ba2:	or     eax,DWORD PTR [eax]
	...
  402bac:	add    BYTE PTR [eax],al
  402bae:	or     al,BYTE PTR [eax]
  402bb0:	mov    eax,ds:0x0
  402bb5:	add    BYTE PTR [ebx],cl
	...
  402bbf:	add    BYTE PTR [eax],al
  402bc1:	add    BYTE PTR [edx],cl
  402bc3:	add    BYTE PTR [ebp+0x5],cl
  402bc6:	add    BYTE PTR [eax],al
  402bc8:	add    BYTE PTR [eax],al
  402bca:	or     eax,DWORD PTR [eax]
	...
  402bd4:	add    BYTE PTR [eax],al
  402bd6:	or     al,BYTE PTR [eax]
  402bd8:	xor    eax,DWORD PTR [esi]
  402bda:	add    BYTE PTR [eax],al
  402bdc:	add    BYTE PTR [eax],al
  402bde:	add    al,0x0
	...
  402be8:	add    BYTE PTR [eax],al
  402bea:	add    DWORD PTR [eax],eax
  402bec:	xchg   ebx,eax
  402bed:	add    BYTE PTR [eax],al
  402bef:	add    BYTE PTR [eax],al
  402bf1:	add    BYTE PTR [ebx],cl
	...
  402bfb:	add    BYTE PTR [eax],al
  402bfd:	add    BYTE PTR [edx],cl
  402bff:	add    ah,bl
  402c01:	push   es
  402c02:	add    BYTE PTR [eax],al
  402c04:	add    BYTE PTR [eax],al
  402c06:	add    al,0x0
	...
  402c10:	add    BYTE PTR [eax],al
  402c12:	or     al,BYTE PTR [eax]
  402c14:	mov    edi,0x7
  402c19:	add    BYTE PTR [eax+eax*1],al
	...
  402c24:	add    BYTE PTR [eax],al
  402c26:	jp     0x402c29
  402c28:	and    ecx,DWORD PTR [eax]
  402c2a:	add    BYTE PTR [eax],al
  402c2c:	add    BYTE PTR [eax],al
  402c2e:	or     eax,DWORD PTR [eax]
	...
  402c38:	add    BYTE PTR [eax],al
  402c3a:	or     al,BYTE PTR [eax]
  402c3c:	push   esp
  402c3d:	or     BYTE PTR [eax],al
  402c3f:	add    BYTE PTR [eax],al
  402c41:	add    BYTE PTR [eax+eax*1],al
	...
  402c4c:	add    BYTE PTR [eax],al
  402c4e:	add    DWORD PTR [eax],eax
  402c50:	je     0x402c5b
  402c52:	add    BYTE PTR [eax],al
  402c54:	add    BYTE PTR [eax],al
  402c56:	add    BYTE PTR [eax],al
  402c58:	add    BYTE PTR [ecx*2+0x6c75646f],bh
  402c5f:	gs add BYTE PTR ds:[ebx+0x6f],al
  402c64:	fs gs fs push ebp
  402c68:	dec    ecx
  402c69:	push   esp
  402c6a:	gs jae 0x402ce1
  402c6d:	inc    edx
  402c6e:	jne    0x402cd9
  402c70:	ins    BYTE PTR es:[edi],dx
  402c71:	fs gs jb 0x402ca3
  402c75:	gs js  0x402cdd
  402c78:	add    BYTE PTR [ebp+eiz*2+0x66],al
  402c7c:	popa   
  402c7d:	jne    0x402ceb
  402c7f:	je     0x402cc4
  402c81:	outs   dx,DWORD PTR ds:[esi]
  402c82:	fs gs fs push ebp
  402c86:	dec    ecx
  402c87:	push   esp
  402c88:	gs jae 0x402cff
  402c8b:	push   ebx
  402c8c:	gs jb  0x402d05
  402c8f:	imul   esp,DWORD PTR [ebx+0x65],0x63694d00
  402c96:	jb     0x402d07
  402c98:	jae    0x402d09
  402c9a:	data16 je 0x402ccb
  402c9d:	push   esi
  402c9e:	imul   esi,DWORD PTR [ebx+0x75],0x74536c61
  402ca5:	jne    0x402d0b
  402ca7:	imul   ebp,DWORD PTR [edi+0x2e],0x74736554
  402cae:	push   esp
  402caf:	outs   dx,DWORD PTR ds:[esi]
  402cb0:	outs   dx,DWORD PTR ds:[esi]
  402cb1:	ins    BYTE PTR es:[edi],dx
  402cb2:	jae    0x402ce2
  402cb4:	push   ebp
  402cb5:	dec    ecx
  402cb6:	push   esp
  402cb7:	gs jae 0x402d2e
  402cba:	cs inc ebx
  402cbc:	outs   dx,DWORD PTR ds:[esi]
  402cbd:	fs gs fs push ebp
  402cc1:	dec    ecx
  402cc2:	push   esp
  402cc3:	gs jae 0x402d3a
  402cc6:	cs inc ebx
  402cc8:	outs   dx,DWORD PTR ds:[esi]
  402cc9:	fs gs fs push ebp
  402ccd:	dec    ecx
  402cce:	push   esp
  402ccf:	gs jae 0x402d46
  402cd2:	inc    edx
  402cd3:	jne    0x402d3e
  402cd5:	ins    BYTE PTR es:[edi],dx
  402cd6:	fs gs jb 0x402cda
  402cda:	push   eax
  402cdb:	jb     0x402d4c
  402cdd:	addr16 jb 0x402d41
  402ce0:	ins    DWORD PTR es:[edi],dx
  402ce1:	add    BYTE PTR [ebp+0x73],ch
  402ce4:	arpl   WORD PTR [edi+0x72],bp
  402ce7:	ins    BYTE PTR es:[edi],dx
  402ce8:	imul   esp,DWORD PTR [edx+0x0],0x74737953
  402cef:	gs ins DWORD PTR es:[edi],dx
  402cf1:	add    BYTE PTR [edi+0x62],cl
  402cf4:	push   0x65
  402cf6:	arpl   WORD PTR [eax+eax*1+0x4d],si
  402cfa:	imul   esp,DWORD PTR [ebx+0x72],0x666f736f
  402d01:	je     0x402d31
  402d03:	push   esi
  402d04:	imul   esi,DWORD PTR [ebx+0x75],0x74536c61
  402d0b:	jne    0x402d71
  402d0d:	imul   ebp,DWORD PTR [edi+0x2e],0x6c617551
  402d14:	imul   esi,DWORD PTR [ecx+edi*2+0x54],0x736c6f6f
  402d1c:	cs inc ebx
  402d1e:	outs   dx,DWORD PTR ds:[esi]
  402d1f:	fs gs fs push ebp
  402d23:	dec    ecx
  402d24:	push   esp
  402d25:	gs jae 0x402d9c
  402d28:	inc    esi
  402d29:	jb     0x402d8c
  402d2b:	ins    DWORD PTR es:[edi],dx
  402d2c:	gs ja  0x402d9e
  402d2f:	jb     0x402d9c
  402d31:	add    BYTE PTR [ebp+0x69],cl
  402d34:	arpl   WORD PTR [edx+0x6f],si
  402d37:	jae    0x402da8
  402d39:	data16 je 0x402d6a
  402d3c:	push   esi
  402d3d:	imul   esi,DWORD PTR [ebx+0x75],0x74536c61
  402d44:	jne    0x402daa
  402d46:	imul   ebp,DWORD PTR [edi+0x2e],0x74736554
  402d4d:	push   esp
  402d4e:	outs   dx,DWORD PTR ds:[esi]
  402d4f:	outs   dx,DWORD PTR ds:[esi]
  402d50:	ins    BYTE PTR es:[edi],dx
  402d51:	jae    0x402d81
  402d53:	push   ebp
  402d54:	dec    ecx
  402d55:	push   esp
  402d56:	gs jae 0x402dcd
  402d59:	imul   ebp,DWORD PTR [esi+0x67],0x6f434900
  402d60:	fs gs fs push ebp
  402d64:	dec    ecx
  402d65:	push   esp
  402d66:	gs jae 0x402ddd
  402d69:	push   ebx
  402d6a:	gs jb  0x402de3
  402d6d:	imul   esp,DWORD PTR [ebx+0x65],0x74654700
  402d74:	push   ebp
  402d75:	dec    ecx
  402d76:	dec    ebp
  402d77:	popa   
  402d78:	jo     0x402d7a
  402d7a:	push   ebx
  402d7b:	jns    0x402df0
  402d7d:	je     0x402de4
  402d7f:	ins    DWORD PTR es:[edi],dx
  402d80:	cs inc ebx
  402d82:	outs   dx,DWORD PTR ds:[esi]
  402d83:	ins    BYTE PTR es:[edi],dx
  402d84:	ins    BYTE PTR es:[edi],dx
  402d85:	arpl   WORD PTR gs:[ecx+ebp*2+0x6f],si
  402d8a:	outs   dx,BYTE PTR ds:[esi]
  402d8b:	jae    0x402dbb
  402d8d:	inc    edi
  402d8e:	outs   dx,BYTE PTR gs:[esi]
  402d90:	gs jb  0x402dfc
  402d93:	arpl   WORD PTR [eax],ax
  402d95:	inc    esp
  402d96:	imul   esp,DWORD PTR [ebx+0x74],0x616e6f69
  402d9d:	jb     0x402e18
  402d9f:	pusha  
  402da0:	xor    al,BYTE PTR [eax]
  402da2:	inc    edi
  402da3:	gs je  0x402dfc
  402da6:	push   ebx
  402da7:	push   ebp
  402da8:	dec    ecx
  402da9:	push   ebx
  402daa:	gs je  0x402e21
  402dad:	imul   ebp,DWORD PTR [esi+0x67],0x68530073
  402db4:	outs   dx,DWORD PTR ds:[esi]
  402db5:	ja     0x402dfd
  402db7:	xor    DWORD PTR [eax+0x65],ecx
  402dba:	ins    BYTE PTR es:[edi],dx
  402dbb:	jo     0x402dbd
  402dbd:	push   ebx
  402dbe:	popa   
  402dbf:	jbe    0x402e26
  402dc1:	push   ebp
  402dc2:	dec    ecx
  402dc3:	dec    ebp
  402dc4:	popa   
  402dc5:	jo     0x402dc7
  402dc7:	push   ebp
  402dc8:	dec    ecx
  402dc9:	inc    ebx
  402dca:	ins    BYTE PTR es:[edi],dx
  402dcb:	outs   dx,DWORD PTR ds:[esi]
  402dcc:	jae    0x402e33
  402dce:	add    BYTE PTR fs:[edi+0x65],al
  402dd2:	je     0x402e29
  402dd4:	dec    ecx
  402dd5:	push   esp
  402dd6:	gs jae 0x402e4d
  402dd9:	inc    esi
  402dda:	imul   ebp,DWORD PTR [ebp+eiz*2+0x4e],0x656d61
  402de2:	arpl   WORD PTR cs:[edi+ebp*2+0x72],si
  402de7:	add    BYTE PTR [ebx+0x71],dh
  402dea:	ins    DWORD PTR es:[edi],dx
  402deb:	inc    ecx
  402dec:	jo     0x402e5e
  402dee:	dec    ecx
  402def:	add    BYTE PTR fs:[ebp+0x61],cl
  402df3:	imul   ebp,DWORD PTR [esi+0x0],0x73726150
  402dfa:	gs inc ecx
  402dfc:	jb     0x402e65
  402dfe:	jne    0x402e6d
  402e00:	outs   dx,BYTE PTR gs:[esi]
  402e02:	je     0x402e04
  402e04:	inc    edi
  402e05:	gs je  0x402e4b
  402e08:	outs   dx,DWORD PTR ds:[esi]
  402e09:	fs gs fs push ebp
  402e0d:	dec    ecx
  402e0e:	push   esp
  402e0f:	gs jae 0x402e86
  402e12:	push   ebx
  402e13:	gs jb  0x402e8c
  402e16:	imul   esp,DWORD PTR [ebx+0x65],0x74654700
  402e1d:	dec    ecx
  402e1e:	jo     0x402e83
  402e20:	inc    ebx
  402e21:	outs   dx,DWORD PTR ds:[esi]
  402e22:	fs gs fs push ebp
  402e26:	dec    ecx
  402e27:	push   ebx
  402e28:	gs jb  0x402ea1
  402e2b:	imul   esp,DWORD PTR [ebx+0x65],0x65764500
  402e32:	outs   dx,BYTE PTR ds:[esi]
  402e33:	je     0x402e76
  402e35:	jb     0x402e9e
  402e37:	jae    0x402e39
  402e39:	jbe    0x402ea4
  402e3b:	jae    0x402eb2
  402e3d:	popa   
  402e3e:	ins    BYTE PTR es:[edi],dx
  402e3f:	push   ebx
  402e40:	je     0x402eb7
  402e42:	imul   ebp,DWORD PTR fs:[edi+0x5f],0x74697845
  402e4a:	gs add BYTE PTR fs:[edi+0x65],al
  402e4f:	je     0x402ea4
  402e51:	jno    0x402ec0
  402e53:	dec    esp
  402e54:	outs   dx,DWORD PTR ds:[esi]
  402e55:	addr16 inc esp
  402e57:	imul   esi,DWORD PTR [edx+0x65],0x726f7463
  402e5e:	jns    0x402e60
  402e60:	jo     0x402ecb
  402e62:	jo     0x402ec9
  402e64:	dec    esi
  402e65:	popa   
  402e66:	ins    DWORD PTR es:[edi],dx
  402e67:	add    BYTE PTR gs:[eax+0x61],dh
  402e6b:	jb     0x402ed2
  402e6d:	outs   dx,BYTE PTR ds:[esi]
  402e6e:	je     0x402ec0
  402e70:	imul   esp,DWORD PTR [eax+eax*1+0x6c],0x6c61636f
  402e78:	add    BYTE PTR gs:[ebx+0x79],dl
  402e7c:	jae    0x402ef2
  402e7e:	gs ins DWORD PTR es:[edi],dx
  402e80:	cs push edx
  402e82:	jne    0x402ef2
  402e84:	je     0x402eef
  402e86:	ins    DWORD PTR es:[edi],dx
  402e87:	gs cs dec ecx
  402e8a:	outs   dx,BYTE PTR ds:[esi]
  402e8b:	je     0x402ef2
  402e8d:	jb     0x402efe
  402e8f:	jo     0x402ee4
  402e91:	gs jb  0x402f0a
  402e94:	imul   esp,DWORD PTR [ebx+0x65],0x754f0073
  402e9b:	je     0x402ede
  402e9d:	je     0x402f13
  402e9f:	jb     0x402f0a
  402ea1:	bound  esi,QWORD PTR [ebp+0x74]
  402ea4:	add    BYTE PTR gs:[esi+0x73],dh
  402ea8:	dec    ecx
  402ea9:	arpl   WORD PTR [edi+0x6e],bp
  402eac:	add    BYTE PTR [edx+0x72],ah
  402eaf:	jne    0x402f24
  402eb1:	push   0x65007365
  402eb6:	outs   dx,BYTE PTR ds:[esi]
  402eb7:	jbe    0x402f22
  402eb9:	jb     0x402f2a
  402ebb:	outs   dx,BYTE PTR ds:[esi]
  402ebc:	ins    DWORD PTR es:[edi],dx
  402ebd:	outs   dx,BYTE PTR gs:[esi]
  402ebf:	je     0x402f07
  402ec1:	outs   dx,DWORD PTR ds:[esi]
  402ec2:	outs   dx,BYTE PTR ds:[esi]
  402ec3:	je     0x402ec5
  402ec5:	outs   dx,WORD PTR ds:[esi]
  402ec7:	outs   dx,BYTE PTR ds:[esi]
  402ec8:	je     0x402f1d
  402eca:	imul   edi,DWORD PTR [edx+0x65],0x6e6f6300
  402ed1:	je     0x402f38
  402ed3:	js     0x402f49
  402ed5:	add    BYTE PTR [ebp+0x69],dh
  402ed8:	push   esp
  402ed9:	gs jae 0x402f50
  402edc:	add    BYTE PTR [ecx+0x72],ah
  402edf:	addr16 jae 0x402ee2
  402ee2:	jae    0x402f49
  402ee4:	outs   dx,BYTE PTR ds:[esi]
  402ee5:	fs gs jb 0x402ee9
  402ee9:	popa   
  402eea:	jb     0x402f53
  402eec:	add    BYTE PTR [ebx+0x79],dl
  402eef:	jae    0x402f65
  402ef1:	gs ins DWORD PTR es:[edi],dx
  402ef3:	cs push edx
  402ef5:	jne    0x402f65
  402ef7:	je     0x402f62
  402ef9:	ins    DWORD PTR es:[edi],dx
  402efa:	gs cs push esi
  402efd:	gs jb  0x402f73
  402f00:	imul   ebp,DWORD PTR [edi+0x6e],0x676e69
  402f07:	push   esp
  402f08:	popa   
  402f09:	jb     0x402f72
  402f0b:	gs je  0x402f54
  402f0e:	jb     0x402f71
  402f10:	ins    DWORD PTR es:[edi],dx
  402f11:	gs ja  0x402f83
  402f14:	jb     0x402f81
  402f16:	inc    ecx
  402f17:	je     0x402f8d
  402f19:	jb     0x402f84
  402f1b:	bound  esi,QWORD PTR [ebp+0x74]
  402f1e:	add    BYTE PTR gs:[ebx+0x6f],al
  402f22:	ins    DWORD PTR es:[edi],dx
  402f23:	push   esi
  402f24:	imul   esi,DWORD PTR [ebx+0x69],0x41656c62
  402f2b:	je     0x402fa1
  402f2d:	jb     0x402f98
  402f2f:	bound  esi,QWORD PTR [ebp+0x74]
  402f32:	add    BYTE PTR gs:[ebx+0x4c],al
  402f36:	push   ebx
  402f37:	inc    ebx
  402f38:	outs   dx,DWORD PTR ds:[esi]
  402f39:	ins    DWORD PTR es:[edi],dx
  402f3a:	jo     0x402fa8
  402f3c:	imul   esp,DWORD PTR [ecx+0x6e],0x74744174
  402f43:	jb     0x402fae
  402f45:	bound  esi,QWORD PTR [ebp+0x74]
  402f48:	add    BYTE PTR gs:[ebx+0x79],dl
  402f4c:	jae    0x402fc2
  402f4e:	gs ins DWORD PTR es:[edi],dx
  402f50:	cs push edx
  402f52:	gs data16 ins BYTE PTR es:[edi],dx
  402f55:	arpl   WORD PTR gs:[ecx+ebp*2+0x6f],si
  402f5a:	outs   dx,BYTE PTR ds:[esi]
  402f5b:	add    BYTE PTR [ecx+0x73],al
  402f5e:	jae    0x402fc5
  402f60:	ins    DWORD PTR es:[edi],dx
  402f61:	bound  ebp,QWORD PTR [ecx+edi*2+0x54]
  402f65:	imul   esi,DWORD PTR [esp+ebp*2+0x65],0x72747441
  402f6d:	imul   esp,DWORD PTR [edx+0x75],0x41006574
  402f74:	jae    0x402fe9
  402f76:	gs ins DWORD PTR es:[edi],dx
  402f78:	bound  ebp,QWORD PTR [ecx+edi*2+0x44]
  402f7c:	gs jae 0x402fe2
  402f7f:	jb     0x402fea
  402f81:	jo     0x402ff7
  402f83:	imul   ebp,DWORD PTR [edi+0x6e],0x72747441
  402f8a:	imul   esp,DWORD PTR [edx+0x75],0x41006574
  402f91:	jae    0x403006
  402f93:	gs ins DWORD PTR es:[edi],dx
  402f95:	bound  ebp,QWORD PTR [ecx+edi*2+0x44]
  402f99:	gs popaw 
  402f9c:	jne    0x40300a
  402f9e:	je     0x402fe1
  402fa0:	ins    BYTE PTR es:[edi],dx
  402fa1:	imul   esp,DWORD PTR [ecx+0x73],0x72747441
  402fa8:	imul   esp,DWORD PTR [edx+0x75],0x41006574
  402faf:	jae    0x403024
  402fb1:	gs ins DWORD PTR es:[edi],dx
  402fb3:	bound  ebp,QWORD PTR [ecx+edi*2+0x43]
  402fb7:	outs   dx,DWORD PTR ds:[esi]
  402fb8:	ins    DWORD PTR es:[edi],dx
  402fb9:	jo     0x40301c
  402fbb:	outs   dx,BYTE PTR ds:[esi]
  402fbc:	jns    0x402fff
  402fbe:	je     0x403034
  402fc0:	jb     0x40302b
  402fc2:	bound  esi,QWORD PTR [ebp+0x74]
  402fc5:	add    BYTE PTR gs:[ecx+0x73],al
  402fc9:	jae    0x403030
  402fcb:	ins    DWORD PTR es:[edi],dx
  402fcc:	bound  ebp,QWORD PTR [ecx+edi*2+0x50]
  402fd0:	jb     0x403041
  402fd2:	fs jne 0x403038
  402fd5:	je     0x403018
  402fd7:	je     0x40304d
  402fd9:	jb     0x403044
  402fdb:	bound  esi,QWORD PTR [ebp+0x74]
  402fde:	add    BYTE PTR gs:[ecx+0x73],al
  402fe2:	jae    0x403049
  402fe4:	ins    DWORD PTR es:[edi],dx
  402fe5:	bound  ebp,QWORD PTR [ecx+edi*2+0x43]
  402fe9:	outs   dx,DWORD PTR ds:[esi]
  402fea:	jo     0x403065
  402fec:	jb     0x403057
  402fee:	addr16 push 0x74744174
  402ff4:	jb     0x40305f
  402ff6:	bound  esi,QWORD PTR [ebp+0x74]
  402ff9:	add    BYTE PTR gs:[ecx+0x73],al
  402ffd:	jae    0x403064
  402fff:	ins    DWORD PTR es:[edi],dx
  403000:	bound  ebp,QWORD PTR [ecx+edi*2+0x56]
  403004:	gs jb  0x40307a
  403007:	imul   ebp,DWORD PTR [edi+0x6e],0x72747441
  40300e:	imul   esp,DWORD PTR [edx+0x75],0x41006574
  403015:	jae    0x40308a
  403017:	gs ins DWORD PTR es:[edi],dx
  403019:	bound  ebp,QWORD PTR [ecx+edi*2+0x46]
  40301d:	imul   ebp,DWORD PTR [ebp+eiz*2+0x56],0x69737265
  403025:	outs   dx,DWORD PTR ds:[esi]
  403026:	outs   dx,BYTE PTR ds:[esi]
  403027:	inc    ecx
  403028:	je     0x40309e
  40302a:	jb     0x403095
  40302c:	bound  esi,QWORD PTR [ebp+0x74]
  40302f:	add    BYTE PTR gs:[ecx+0x73],al
  403033:	jae    0x40309a
  403035:	ins    DWORD PTR es:[edi],dx
  403036:	bound  ebp,QWORD PTR [ecx+edi*2+0x49]
  40303a:	outs   dx,BYTE PTR ds:[esi]
  40303b:	outs   dx,WORD PTR ds:[esi]
  40303d:	jb     0x4030ac
  40303f:	popa   
  403040:	je     0x4030ab
  403042:	outs   dx,DWORD PTR ds:[esi]
  403043:	outs   dx,BYTE PTR ds:[esi]
  403044:	popa   
  403045:	ins    BYTE PTR es:[edi],dx
  403046:	push   esi
  403047:	gs jb  0x4030bd
  40304a:	imul   ebp,DWORD PTR [edi+0x6e],0x72747441
  403051:	imul   esp,DWORD PTR [edx+0x75],0x53006574
  403058:	jns    0x4030cd
  40305a:	je     0x4030c1
  40305c:	ins    DWORD PTR es:[edi],dx
  40305d:	cs push edx
  40305f:	gs jae 0x4030d1
  403062:	jne    0x4030d6
  403064:	arpl   WORD PTR [ebp+0x73],sp
  403067:	add    BYTE PTR [ebx+0x61],dl
  40306a:	je     0x4030d1
  40306c:	ins    BYTE PTR es:[edi],dx
  40306d:	ins    BYTE PTR es:[edi],dx
  40306e:	imul   esi,DWORD PTR [ebp+eiz*2+0x43],0x72746e6f
  403076:	popa   
  403077:	arpl   WORD PTR [esi+edx*2+0x65],si
  40307b:	jb     0x4030f0
  40307d:	imul   ebp,DWORD PTR [edi+0x6e],0x72747441
  403084:	imul   esp,DWORD PTR [edx+0x75],0x4e006574
  40308b:	gs jne 0x403102
  40308e:	jb     0x4030f1
  403090:	ins    BYTE PTR es:[edi],dx
  403091:	push   edx
  403092:	gs jae 0x403104
  403095:	jne    0x403109
  403097:	arpl   WORD PTR [ebp+0x73],sp
  40309a:	dec    esp
  40309b:	popa   
  40309c:	outs   dx,BYTE PTR ds:[esi]
  40309d:	addr16 jne 0x403101
  4030a0:	addr16 gs inc ecx
  4030a3:	je     0x403119
  4030a5:	jb     0x403110
  4030a7:	bound  esi,QWORD PTR [ebp+0x74]
  4030aa:	add    BYTE PTR gs:[ecx+0x73],al
  4030ae:	jae    0x403115
  4030b0:	ins    DWORD PTR es:[edi],dx
  4030b1:	bound  ebp,QWORD PTR [ecx+edi*2+0x44]
  4030b5:	gs ins BYTE PTR es:[edi],dx
  4030b7:	popa   
  4030b8:	jns    0x40310d
  4030ba:	imul   esp,DWORD PTR [edi+0x6e],0x72747441
  4030c1:	imul   esp,DWORD PTR [edx+0x75],0x41006574
  4030c8:	jae    0x40313d
  4030ca:	gs ins DWORD PTR es:[edi],dx
  4030cc:	bound  ebp,QWORD PTR [ecx+edi*2+0x4b]
  4030d0:	gs jns 0x403119
  4030d3:	imul   ebp,DWORD PTR [ebp+eiz*2+0x41],0x69727474
  4030db:	bound  esi,QWORD PTR [ebp+0x74]
  4030de:	add    BYTE PTR gs:[ecx+0x73],al
  4030e2:	jae    0x403149
  4030e4:	ins    DWORD PTR es:[edi],dx
  4030e5:	bound  ebp,QWORD PTR [ecx+edi*2+0x53]
  4030e9:	imul   esp,DWORD PTR [edi+0x6e],0x72757461
  4030f0:	gs dec ebx
  4030f2:	gs jns 0x403136
  4030f5:	je     0x40316b
  4030f7:	jb     0x403162
  4030f9:	bound  esi,QWORD PTR [ebp+0x74]
  4030fc:	add    BYTE PTR gs:[ebx+0x79],dl
  403100:	jae    0x403176
  403102:	gs ins DWORD PTR es:[edi],dx
  403104:	cs push edx
  403106:	jne    0x403176
  403108:	je     0x403173
  40310a:	ins    DWORD PTR es:[edi],dx
  40310b:	gs cs inc ebx
  40310e:	outs   dx,DWORD PTR ds:[esi]
  40310f:	ins    DWORD PTR es:[edi],dx
  403110:	jo     0x40317b
  403112:	ins    BYTE PTR es:[edi],dx
  403113:	gs jb  0x403169
  403116:	gs jb  0x40318f
  403119:	imul   esp,DWORD PTR [ebx+0x65],0x75520073
  403120:	outs   dx,BYTE PTR ds:[esi]
  403121:	je     0x40318c
  403123:	ins    DWORD PTR es:[edi],dx
  403124:	gs inc ebx
  403126:	outs   dx,DWORD PTR ds:[esi]
  403127:	ins    DWORD PTR es:[edi],dx
  403128:	jo     0x40318b
  40312a:	je     0x403195
  40312c:	bound  ebp,QWORD PTR [ecx+0x6c]
  40312f:	imul   esi,DWORD PTR [ecx+edi*2+0x41],0x69727474
  403137:	bound  esi,QWORD PTR [ebp+0x74]
  40313a:	add    BYTE PTR gs:[ebx+0x79],dl
  40313e:	jae    0x4031b4
  403140:	gs ins DWORD PTR es:[edi],dx
  403142:	cs inc esp
  403144:	imul   esp,DWORD PTR [ecx+0x67],0x74736f6e
  40314b:	imul   esp,DWORD PTR [ebx+0x73],0x62654400
  403152:	jne    0x4031bb
  403154:	addr16 popa 
  403156:	bound  ebp,QWORD PTR [ebp+eiz*2+0x41]
  40315a:	je     0x4031d0
  40315c:	jb     0x4031c7
  40315e:	bound  esi,QWORD PTR [ebp+0x74]
  403161:	add    BYTE PTR gs:[ebp+eiz*2+0x62],al
  403166:	jne    0x4031cf
  403168:	imul   ebp,DWORD PTR [bp+0x67],0x65646f4d
  403170:	jae    0x403172
  403172:	inc    ebx
  403173:	outs   dx,DWORD PTR ds:[esi]
  403174:	ins    DWORD PTR es:[edi],dx
  403175:	jo     0x4031e0
  403177:	ins    BYTE PTR es:[edi],dx
  403178:	popa   
  403179:	je     0x4031e4
  40317b:	outs   dx,DWORD PTR ds:[esi]
  40317c:	outs   dx,BYTE PTR ds:[esi]
  40317d:	push   edx
  40317e:	gs ins BYTE PTR es:[edi],dx
  403180:	popa   
  403181:	js     0x4031e4
  403183:	je     0x4031ee
  403185:	outs   dx,DWORD PTR ds:[esi]
  403186:	outs   dx,BYTE PTR ds:[esi]
  403187:	jae    0x4031ca
  403189:	je     0x4031ff
  40318b:	jb     0x4031f6
  40318d:	bound  esi,QWORD PTR [ebp+0x74]
  403190:	add    BYTE PTR gs:[ebx+0x6f],al
  403194:	fs gs fs push ebp
  403198:	dec    ecx
  403199:	push   esp
  40319a:	gs jae 0x403211
  40319d:	inc    edx
  40319e:	jne    0x403209
  4031a0:	ins    BYTE PTR es:[edi],dx
  4031a1:	fs gs jb 0x4031a5
  4031a5:	dec    ebp
  4031a6:	imul   esp,DWORD PTR [ebx+0x72],0x666f736f
  4031ad:	je     0x4031dd
  4031af:	push   esi
  4031b0:	imul   esi,DWORD PTR [ebx+0x75],0x74536c61
  4031b7:	jne    0x40321d
  4031b9:	imul   ebp,DWORD PTR [edi+0x2e],0x74736554
  4031c0:	push   esp
  4031c1:	outs   dx,DWORD PTR ds:[esi]
  4031c2:	outs   dx,DWORD PTR ds:[esi]
  4031c3:	ins    BYTE PTR es:[edi],dx
  4031c4:	jae    0x4031f4
  4031c6:	push   ebp
  4031c7:	dec    ecx
  4031c8:	push   esp
  4031c9:	gs jae 0x403240
  4031cc:	cs inc ebx
  4031ce:	outs   dx,DWORD PTR ds:[esi]
  4031cf:	ins    DWORD PTR es:[edi],dx
  4031d0:	ins    DWORD PTR es:[edi],dx
  4031d1:	outs   dx,DWORD PTR ds:[esi]
  4031d2:	outs   dx,BYTE PTR ds:[esi]
  4031d3:	add    BYTE PTR [ebp+0x49],dl
  4031d6:	push   esp
  4031d7:	gs jae 0x40324e
  4031da:	add    BYTE PTR [ebx+0x79],dl
  4031dd:	jae    0x403253
  4031df:	gs ins DWORD PTR es:[edi],dx
  4031e1:	cs inc ebx
  4031e3:	outs   dx,DWORD PTR ds:[esi]
  4031e4:	ins    BYTE PTR es:[edi],dx
  4031e5:	ins    BYTE PTR es:[edi],dx
  4031e6:	arpl   WORD PTR gs:[ecx+ebp*2+0x6f],si
  4031eb:	outs   dx,BYTE PTR ds:[esi]
  4031ec:	jae    0x40321c
  4031ee:	dec    edi
  4031ef:	bound  ebp,QWORD PTR [edx+0x65]
  4031f2:	arpl   WORD PTR [ebp+ecx*2+0x6f],si
  4031f6:	fs gs ins BYTE PTR es:[edi],dx
  4031f9:	add    BYTE PTR [ebx+0x6f],al
  4031fc:	ins    BYTE PTR es:[edi],dx
  4031fd:	ins    BYTE PTR es:[edi],dx
  4031fe:	arpl   WORD PTR gs:[ecx+ebp*2+0x6f],si
  403203:	outs   dx,BYTE PTR ds:[esi]
  403204:	pusha  
  403205:	xor    DWORD PTR [eax],eax
  403207:	dec    ebp
  403208:	imul   esp,DWORD PTR [ebx+0x72],0x666f736f
  40320f:	je     0x40323f
  403211:	push   esi
  403212:	imul   esi,DWORD PTR [ebx+0x75],0x74536c61
  403219:	jne    0x40327f
  40321b:	imul   ebp,DWORD PTR [edi+0x2e],0x74736554
  403222:	push   esp
  403223:	outs   dx,DWORD PTR ds:[esi]
  403224:	outs   dx,DWORD PTR ds:[esi]
  403225:	ins    BYTE PTR es:[edi],dx
  403226:	jae    0x403256
  403228:	push   ebp
  403229:	dec    ecx
  40322a:	push   esp
  40322b:	gs jae 0x4032a2
  40322e:	cs inc ebx
  403230:	outs   dx,DWORD PTR ds:[esi]
  403231:	ins    DWORD PTR es:[edi],dx
  403232:	ins    DWORD PTR es:[edi],dx
  403233:	outs   dx,DWORD PTR ds:[esi]
  403234:	outs   dx,BYTE PTR ds:[esi]
  403235:	cs push ebp
  403237:	dec    ecx
  403238:	dec    ebp
  403239:	popa   
  40323a:	jo     0x40323c
  40323c:	push   ebp
  40323d:	dec    ecx
  40323e:	dec    ebp
  40323f:	popa   
  403240:	jo     0x403242
  403242:	addr16 gs je 0x4032a5
  403246:	dec    ebp
  403247:	popa   
  403248:	jo     0x4032bd
  40324a:	add    BYTE PTR [ecx+0x64],al
  40324d:	add    BYTE PTR fs:[ebx+0x6f],al
  403251:	fs gs fs push ebp
  403255:	dec    ecx
  403256:	push   esp
  403257:	gs jae 0x4032ce
  40325a:	push   ebx
  40325b:	gs jb  0x4032d4
  40325e:	imul   esp,DWORD PTR [ebx+0x65],0x6c697455
  403265:	imul   esi,DWORD PTR [ecx+edi*2+0x0],0x58746547
  40326d:	dec    ebp
  40326e:	dec    esp
  40326f:	dec    edi
  403270:	push   bp
  403272:	dec    ecx
  403273:	push   esp
  403274:	gs jae 0x4032eb
  403277:	add    BYTE PTR [ebx+0x54],dl
  40327a:	inc    ecx
  40327b:	push   esp
  40327c:	push   0x64616572
  403281:	inc    ecx
  403282:	je     0x4032f8
  403284:	jb     0x4032ef
  403286:	bound  esi,QWORD PTR [ebp+0x74]
  403289:	add    BYTE PTR gs:[ebp+0x69],cl
  40328d:	arpl   WORD PTR [edx+0x6f],si
  403290:	jae    0x403301
  403292:	data16 je 0x4032c3
  403295:	push   esi
  403296:	imul   esi,DWORD PTR [ebx+0x75],0x74536c61
  40329d:	jne    0x403303
  40329f:	imul   ebp,DWORD PTR [edi+0x2e],0x74736554
  4032a6:	push   esp
  4032a7:	outs   dx,DWORD PTR ds:[esi]
  4032a8:	outs   dx,DWORD PTR ds:[esi]
  4032a9:	ins    BYTE PTR es:[edi],dx
  4032aa:	jae    0x4032da
  4032ac:	push   ebp
  4032ad:	dec    ecx
  4032ae:	push   esp
  4032af:	gs jae 0x403326
  4032b2:	cs inc ebp
  4032b4:	js     0x40332a
  4032b6:	outs   dx,BYTE PTR gs:[esi]
  4032b8:	jae    0x403323
  4032ba:	outs   dx,DWORD PTR ds:[esi]
  4032bb:	outs   dx,BYTE PTR ds:[esi]
  4032bc:	add    BYTE PTR [ebp+0x49],dl
  4032bf:	push   esp
  4032c0:	gs jae 0x403337
  4032c3:	push   esp
  4032c4:	jb     0x403327
  4032c6:	arpl   WORD PTR [ebp+0x55],sp
  4032c9:	je     0x403334
  4032cb:	ins    BYTE PTR es:[edi],dx
  4032cc:	imul   esi,DWORD PTR [ecx+edi*2+0x0],0x74786554
  4032d4:	push   edi
  4032d5:	jb     0x403340
  4032d7:	je     0x40333e
  4032d9:	jb     0x40332f
  4032db:	jb     0x40333e
  4032dd:	arpl   WORD PTR [ebp+0x4c],sp
  4032e0:	imul   esi,DWORD PTR [ebx+0x74],0x72656e65
  4032e7:	add    BYTE PTR [ebx+0x74],dl
  4032ea:	popa   
  4032eb:	jb     0x403361
  4032ed:	push   esp
  4032ee:	jb     0x403351
  4032f0:	arpl   WORD PTR [ecx+0x6e],bp
  4032f3:	add    BYTE PTR [di+0x6e],al
  4032f7:	jbe    0x403362
  4032f9:	jb     0x40336a
  4032fb:	outs   dx,BYTE PTR ds:[esi]
  4032fc:	ins    DWORD PTR es:[edi],dx
  4032fd:	outs   dx,BYTE PTR gs:[esi]
  4032ff:	je     0x403301
  403301:	addr16 gs je 0x403364
  403305:	inc    ebx
  403306:	outs   dx,DWORD PTR ds:[esi]
  403307:	ins    DWORD PTR es:[edi],dx
  403308:	ins    DWORD PTR es:[edi],dx
  403309:	popa   
  40330a:	outs   dx,BYTE PTR ds:[esi]
  40330b:	fs dec esp
  40330d:	imul   ebp,DWORD PTR [esi+0x65],0x74714500
  403314:	push   esp
  403315:	jb     0x403378
  403317:	arpl   WORD PTR [ebp+0x0],sp
  40331a:	dec    ecx
  40331b:	outs   dx,BYTE PTR ds:[esi]
  40331c:	outs   dx,WORD PTR ds:[esi]
  40331e:	add    BYTE PTR [ebx+0x74],dl
  403321:	jb     0x40338c
  403323:	outs   dx,BYTE PTR ds:[esi]
  403324:	add    BYTE PTR [bx+di+0x73],cl
  403328:	dec    esi
  403329:	jne    0x403397
  40332b:	ins    BYTE PTR es:[edi],dx
  40332c:	dec    edi
  40332d:	jb     0x403374
  40332f:	ins    DWORD PTR es:[edi],dx
  403330:	jo     0x4033a6
  403332:	jns    0x403334
  403334:	dec    ebp
  403335:	imul   esp,DWORD PTR [ebx+0x72],0x666f736f
  40333c:	je     0x40336c
  40333e:	push   esi
  40333f:	imul   esi,DWORD PTR [ebx+0x75],0x74536c61
  403346:	jne    0x4033ac
  403348:	imul   ebp,DWORD PTR [edi+0x2e],0x6c617551
  40334f:	imul   esi,DWORD PTR [ecx+edi*2+0x54],0x736c6f6f
  403357:	cs push ebx
  403359:	jno    0x4033c8
  40335b:	add    BYTE PTR [ebp+0x69],cl
  40335e:	arpl   WORD PTR [edx+0x6f],si
  403361:	jae    0x4033d2
  403363:	data16 je 0x403394
  403366:	push   esi
  403367:	imul   esi,DWORD PTR [ebx+0x75],0x74536c61
  40336e:	jne    0x4033d4
  403370:	imul   ebp,DWORD PTR [edi+0x2e],0x74736554
  403377:	push   esp
  403378:	outs   dx,DWORD PTR ds:[esi]
  403379:	outs   dx,DWORD PTR ds:[esi]
  40337a:	ins    BYTE PTR es:[edi],dx
  40337b:	jae    0x4033ab
  40337d:	inc    esp
  40337e:	imul   esp,DWORD PTR [ecx+0x67],0x74736f6e
  403385:	imul   esp,DWORD PTR [ebx+0x73],0x6e6f4e00
  40338c:	push   esi
  40338d:	push   ebx
  40338e:	push   ebx
  40338f:	jno    0x4033fe
  403391:	inc    ebx
  403392:	ins    BYTE PTR es:[edi],dx
  403393:	imul   esp,DWORD PTR [ebp+0x6e],0x71530074
  40339a:	ins    DWORD PTR es:[edi],dx
  40339b:	push   esp
  40339c:	jb     0x4033ff
  40339e:	arpl   WORD PTR [ebp+0x0],sp
  4033a1:	dec    ecx
  4033a2:	push   esi
  4033a3:	jae    0x403419
  4033a5:	je     0x4033fa
  4033a7:	jno    0x403416
  4033a9:	add    BYTE PTR [ecx+0x6e],cl
  4033ac:	imul   esi,DWORD PTR [ecx+ebp*2+0x61],0x657a696c
  4033b4:	add    BYTE PTR [ebx+0x69],dl
  4033b7:	ins    DWORD PTR es:[edi],dx
  4033b8:	jo     0x403426
  4033ba:	gs push esp
  4033bc:	imul   ebp,DWORD PTR [ebp+0x65],0x75410072
  4033c3:	je     0x403434
  4033c5:	push   edi
  4033c6:	popa   
  4033c7:	imul   esi,DWORD PTR [ebx+eax*2+0x75],0x726f7372
  4033cf:	add    BYTE PTR [eax+0x72],dl
  4033d2:	outs   dx,DWORD PTR ds:[esi]
  4033d3:	arpl   WORD PTR [ebp+0x73],sp
  4033d6:	jae    0x4033d8
  4033d8:	inc    edi
  4033d9:	gs je  0x40342c
  4033dc:	jb     0x40344d
  4033de:	arpl   WORD PTR [ebp+0x73],sp
  4033e1:	jae    0x403425
  4033e3:	jns    0x40342e
  4033e5:	add    BYTE PTR fs:[ebx+0x65],dh
  4033e9:	je     0x40344a
  4033eb:	inc    ebp
  4033ec:	outs   dx,BYTE PTR ds:[esi]
  4033ed:	popa   
  4033ee:	bound  ebp,QWORD PTR [ebp+eiz*2+0x52]
  4033f2:	popa   
  4033f3:	imul   esi,DWORD PTR [ebx+0x69],0x7645676e
  4033fa:	outs   dx,BYTE PTR gs:[esi]
  4033fc:	je     0x403471
  4033fe:	add    BYTE PTR [ebp+0x76],al
  403401:	outs   dx,BYTE PTR gs:[esi]
  403403:	je     0x40344d
  403405:	popa   
  403406:	outs   dx,BYTE PTR ds:[esi]
  403407:	fs ins BYTE PTR es:[edi],dx
  403409:	gs jb  0x40340c
  40340c:	popa   
  40340d:	fs fs pop edi
  403410:	inc    ebp
  403411:	js     0x40347c
  403413:	je     0x40347a
  403415:	add    BYTE PTR fs:[ebx+0x79],dl
  403419:	jae    0x40348f
  40341b:	gs ins DWORD PTR es:[edi],dx
  40341d:	cs inc ebx
  40341f:	outs   dx,DWORD PTR ds:[esi]
  403420:	outs   dx,BYTE PTR ds:[esi]
  403421:	imul   sp,WORD PTR [edi+0x75],0x6172
  403427:	je     0x403492
  403429:	outs   dx,DWORD PTR ds:[esi]
  40342a:	outs   dx,BYTE PTR ds:[esi]
  40342b:	add    BYTE PTR [ebx+0x6f],al
  40342e:	outs   dx,BYTE PTR ds:[esi]
  40342f:	imul   sp,WORD PTR [edi+0x75],0x6172
  403435:	je     0x4034a0
  403437:	outs   dx,DWORD PTR ds:[esi]
  403438:	outs   dx,BYTE PTR ds:[esi]
  403439:	dec    ebp
  40343a:	popa   
  40343b:	outs   dx,BYTE PTR ds:[esi]
  40343c:	popa   
  40343d:	addr16 gs jb 0x403441
  403441:	inc    ebx
  403442:	outs   dx,DWORD PTR ds:[esi]
  403443:	outs   dx,BYTE PTR ds:[esi]
  403444:	imul   sp,WORD PTR [edi+0x75],0x6172
  40344a:	je     0x4034b5
  40344c:	outs   dx,DWORD PTR ds:[esi]
  40344d:	outs   dx,BYTE PTR ds:[esi]
  40344e:	add    BYTE PTR [ebx+0x6f],al
  403451:	outs   dx,BYTE PTR ds:[esi]
  403452:	imul   sp,WORD PTR [edi+0x75],0x6172
  403458:	je     0x4034c3
  40345a:	outs   dx,DWORD PTR ds:[esi]
  40345b:	outs   dx,BYTE PTR ds:[esi]
  40345c:	push   ebp
  40345d:	jae    0x4034c4
  40345f:	jb     0x4034ad
  403461:	gs jbe 0x4034c9
  403464:	ins    BYTE PTR es:[edi],dx
  403465:	add    BYTE PTR [edi+0x70],cl
  403468:	outs   dx,BYTE PTR gs:[esi]
  40346a:	inc    ebp
  40346b:	js     0x4034d2
  40346d:	inc    ebx
  40346e:	outs   dx,DWORD PTR ds:[esi]
  40346f:	outs   dx,BYTE PTR ds:[esi]
  403470:	imul   sp,WORD PTR [edi+0x75],0x6172
  403476:	je     0x4034e1
  403478:	outs   dx,DWORD PTR ds:[esi]
  403479:	outs   dx,BYTE PTR ds:[esi]
  40347a:	add    BYTE PTR [eax+0x72],dl
  40347d:	gs jae 0x4034e5
  403480:	outs   dx,BYTE PTR ds:[esi]
  403481:	je     0x4034e4
  403483:	je     0x4034ee
  403485:	outs   dx,DWORD PTR ds:[esi]
  403486:	outs   dx,BYTE PTR ds:[esi]
  403487:	inc    esi
  403488:	jb     0x4034eb
  40348a:	ins    DWORD PTR es:[edi],dx
  40348b:	gs ja  0x4034fd
  40348e:	jb     0x4034fb
  403490:	add    BYTE PTR [ebx+0x79],dl
  403493:	jae    0x403509
  403495:	gs ins DWORD PTR es:[edi],dx
  403497:	cs push edi
  403499:	imul   ebp,DWORD PTR [esi+0x64],0x73776f
  4034a0:	inc    ecx
  4034a1:	jo     0x403513
  4034a3:	ins    BYTE PTR es:[edi],dx
  4034a4:	imul   esp,DWORD PTR [ebx+0x61],0x6e6f6974
  4034ab:	add    BYTE PTR [ebp+0x69],cl
  4034ae:	arpl   WORD PTR [edx+0x6f],si
  4034b1:	jae    0x403522
  4034b3:	data16 je 0x4034e4
  4034b6:	push   esi
  4034b7:	imul   esi,DWORD PTR [ebx+0x75],0x74536c61
  4034be:	jne    0x403524
  4034c0:	imul   ebp,DWORD PTR [edi+0x2e],0x6c617551
  4034c7:	imul   esi,DWORD PTR [ecx+edi*2+0x54],0x736c6f6f
  4034cf:	cs inc ebx
  4034d1:	outs   dx,DWORD PTR ds:[esi]
  4034d2:	fs gs fs push ebp
  4034d6:	dec    ecx
  4034d7:	push   esp
  4034d8:	gs jae 0x40354f
  4034db:	cs inc ebx
  4034dd:	outs   dx,DWORD PTR ds:[esi]
  4034de:	outs   dx,BYTE PTR ds:[esi]
  4034df:	je     0x403553
  4034e1:	outs   dx,DWORD PTR ds:[esi]
  4034e2:	ins    BYTE PTR es:[edi],dx
  4034e3:	jae    0x4034e5
  4034e5:	dec    ebp
  4034e6:	imul   esp,DWORD PTR [ebx+0x72],0x666f736f
  4034ed:	je     0x40351d
  4034ef:	push   esi
  4034f0:	imul   esi,DWORD PTR [ebx+0x75],0x74536c61
  4034f7:	jne    0x40355d
  4034f9:	imul   ebp,DWORD PTR [edi+0x2e],0x74736554
  403500:	push   esp
  403501:	outs   dx,DWORD PTR ds:[esi]
  403502:	outs   dx,DWORD PTR ds:[esi]
  403503:	ins    BYTE PTR es:[edi],dx
  403504:	jae    0x403534
  403506:	inc    ebx
  403507:	outs   dx,DWORD PTR ds:[esi]
  403508:	fs gs fs push ebp
  40350c:	dec    ecx
  40350d:	push   esp
  40350e:	gs jae 0x403585
  403511:	cs inc ebx
  403513:	outs   dx,DWORD PTR ds:[esi]
  403514:	outs   dx,BYTE PTR ds:[esi]
  403515:	je     0x403589
  403517:	outs   dx,DWORD PTR ds:[esi]
  403518:	ins    BYTE PTR es:[edi],dx
  403519:	jae    0x403549
  40351b:	inc    ebx
  40351c:	outs   dx,DWORD PTR ds:[esi]
  40351d:	fs gs fs push ebp
  403521:	dec    ecx
  403522:	push   esp
  403523:	gs jae 0x40359a
  403526:	inc    edx
  403527:	jne    0x403592
  403529:	ins    BYTE PTR es:[edi],dx
  40352a:	fs gs jb 0x40352e
  40352e:	push   ebp
  40352f:	dec    ecx
  403530:	push   esp
  403531:	gs jae 0x4035a8
  403534:	inc    edx
  403535:	jne    0x4035a0
  403537:	ins    BYTE PTR es:[edi],dx
  403538:	fs gs jb 0x40353c
  40353c:	dec    ecx
  40353d:	inc    esp
  40353e:	imul   esi,DWORD PTR [ebx+0x70],0x6261736f
  403545:	ins    BYTE PTR es:[edi],dx
  403546:	add    BYTE PTR gs:[ecx+ebp*2+0x73],al
  40354b:	jo     0x4035bc
  40354d:	jae    0x4035b4
  40354f:	add    BYTE PTR [edi+0x72],cl
  403552:	fs gs jb 0x4035a5
  403556:	dec    cx
  403558:	outs   dx,BYTE PTR ds:[esi]
  403559:	jbe    0x4035ca
  40355b:	imul   esp,DWORD PTR [ebp+0x0],0x57
  40355f:	imul   ebp,DWORD PTR [esi+0x64],0x5200776f
  403566:	jne    0x4035d6
  403568:	add    BYTE PTR [ebx+0x6c],al
  40356b:	gs popa 
  40356d:	outs   dx,BYTE PTR ds:[esi]
  40356e:	jne    0x4035e0
  403570:	add    BYTE PTR [ebx+0x74],dl
  403573:	jb     0x4035de
  403575:	outs   dx,BYTE PTR ds:[esi]
  403576:	addr16 inc ebx
  403578:	outs   dx,DWORD PTR ds:[esi]
  403579:	ins    DWORD PTR es:[edi],dx
  40357a:	jo     0x4035dd
  40357c:	jb     0x4035e7
  40357e:	jae    0x4035ef
  403580:	outs   dx,BYTE PTR ds:[esi]
  403581:	add    BYTE PTR [ebx+0x74],dl
  403584:	popa   
  403585:	jb     0x4035fb
  403587:	jae    0x4035e0
  403589:	imul   esi,DWORD PTR [eax+ebp*2+0x0],0x65646e49
  403591:	js     0x4035e2
  403593:	data16 add BYTE PTR [ebx+0x75],dl
  403597:	bound  esi,QWORD PTR [ebx+0x74]
  40359a:	jb     0x403605
  40359c:	outs   dx,BYTE PTR ds:[esi]
  40359d:	add    BYTE PTR [bx+di+0x6e],cl
  4035a1:	je     0x4035d6
  4035a3:	xor    al,BYTE PTR [eax]
  4035a5:	push   esp
  4035a6:	jb     0x403621
  4035a8:	push   eax
  4035a9:	popa   
  4035aa:	jb     0x40361f
  4035ac:	add    BYTE PTR gs:[ecx+0x72],al
  4035b0:	addr16 jne 0x403620
  4035b3:	outs   dx,BYTE PTR gs:[esi]
  4035b5:	je     0x4035fc
  4035b7:	js     0x40361c
  4035b9:	gs jo  0x403630
  4035bc:	imul   ebp,DWORD PTR [edi+0x6e],0x75714500
  4035c3:	popa   
  4035c4:	ins    BYTE PTR es:[edi],dx
  4035c5:	jae    0x4035c7
  4035c7:	inc    ebp
  4035c8:	js     0x403633
  4035ca:	je     0x4035cc
  4035cc:	push   ebx
  4035cd:	jns    0x403642
  4035cf:	je     0x403636
  4035d1:	ins    DWORD PTR es:[edi],dx
  4035d2:	cs push edx
  4035d4:	jne    0x403644
  4035d6:	je     0x403641
  4035d8:	ins    DWORD PTR es:[edi],dx
  4035d9:	gs cs push edx
  4035dc:	gs ins DWORD PTR es:[edi],dx
  4035de:	outs   dx,DWORD PTR ds:[esi]
  4035df:	je     0x40364a
  4035e1:	outs   dx,BYTE PTR ds:[esi]
  4035e2:	add    BYTE PTR [bp+di+0x79],dl
  4035e6:	jae    0x40365c
  4035e8:	gs ins DWORD PTR es:[edi],dx
  4035ea:	cs push edx
  4035ec:	jne    0x40365c
  4035ee:	je     0x403659
  4035f0:	ins    DWORD PTR es:[edi],dx
  4035f1:	gs cs push edx
  4035f4:	gs ins DWORD PTR es:[edi],dx
  4035f6:	outs   dx,DWORD PTR ds:[esi]
  4035f7:	je     0x403662
  4035f9:	outs   dx,BYTE PTR ds:[esi]
  4035fa:	addr16 cs inc ebx
  4035fd:	push   0x656e6e61
  403602:	ins    BYTE PTR es:[edi],dx
  403603:	jae    0x403605
  403605:	inc    edx
  403606:	imul   ebp,DWORD PTR [esi+0x61],0x6c437972
  40360d:	imul   esp,DWORD PTR [ebp+0x6e],0x726f4674
  403614:	ins    DWORD PTR es:[edi],dx
  403615:	popa   
  403616:	je     0x40368c
  403618:	gs jb  0x40366e
  40361b:	imul   ebp,DWORD PTR [esi+0x6b],0x766f7250
  403622:	imul   esp,DWORD PTR [ebp+eiz*2+0x72],0x6e694200
  40362a:	popa   
  40362b:	jb     0x4036a6
  40362d:	push   ebx
  40362e:	gs jb  0x4036a7
  403631:	gs jb  0x40367a
  403634:	outs   dx,DWORD PTR ds:[esi]
  403635:	jb     0x4036a4
  403637:	popa   
  403638:	je     0x4036ae
  40363a:	gs jb  0x403690
  40363d:	imul   ebp,DWORD PTR [esi+0x6b],0x766f7250
  403644:	imul   esp,DWORD PTR [ebp+eiz*2+0x72],0x73795300
  40364c:	je     0x4036b3
  40364e:	ins    DWORD PTR es:[edi],dx
  40364f:	cs push edx
  403651:	jne    0x4036c1
  403653:	je     0x4036be
  403655:	ins    DWORD PTR es:[edi],dx
  403656:	gs cs push ebx
  403659:	gs jb  0x4036c5
  40365c:	popa   
  40365d:	ins    BYTE PTR es:[edi],dx
  40365e:	imul   edi,DWORD PTR [edx+0x61],0x6e6f6974
  403665:	cs inc esi
  403667:	outs   dx,DWORD PTR ds:[esi]
  403668:	jb     0x4036d7
  40366a:	popa   
  40366b:	je     0x4036e1
  40366d:	gs jb  0x4036e3
  403670:	add    BYTE PTR [ecx+edi*2+0x70],dl
  403674:	gs inc esi
  403676:	imul   ebp,DWORD PTR [esp+esi*2+0x65],0x76654c72
  40367e:	gs ins BYTE PTR es:[edi],dx
  403680:	add    BYTE PTR [ebx+0x65],dh
  403683:	je     0x4036e4
  403685:	push   esp
  403686:	jns    0x4036f8
  403688:	gs inc esi
  40368a:	imul   ebp,DWORD PTR [esp+esi*2+0x65],0x76654c72
  403692:	gs ins BYTE PTR es:[edi],dx
  403694:	add    BYTE PTR [ebx+0x79],dl
  403697:	jae    0x40370d
  403699:	gs ins DWORD PTR es:[edi],dx
  40369b:	cs inc ebx
  40369d:	outs   dx,DWORD PTR ds:[esi]
  40369e:	ins    BYTE PTR es:[edi],dx
  40369f:	ins    BYTE PTR es:[edi],dx
  4036a0:	arpl   WORD PTR gs:[ecx+ebp*2+0x6f],si
  4036a5:	outs   dx,BYTE PTR ds:[esi]
  4036a6:	jae    0x4036a8
  4036a8:	dec    eax
  4036a9:	popa   
  4036aa:	jae    0x403714
  4036ac:	je     0x40370f
  4036ae:	bound  ebp,QWORD PTR [ebp+eiz*2+0x0]
  4036b2:	push   ebx
  4036b3:	jns    0x403728
  4036b5:	je     0x40371c
  4036b7:	ins    DWORD PTR es:[edi],dx
  4036b8:	cs inc edi
  4036ba:	ins    BYTE PTR es:[edi],dx
  4036bb:	outs   dx,DWORD PTR ds:[esi]
  4036bc:	bound  esp,QWORD PTR [ecx+0x6c]
  4036bf:	imul   edi,DWORD PTR [edx+0x61],0x6e6f6974
  4036c6:	add    BYTE PTR [ebx+0x75],al
  4036c9:	ins    BYTE PTR es:[edi],dx
  4036ca:	je     0x403741
  4036cc:	jb     0x403733
  4036ce:	dec    ecx
  4036cf:	outs   dx,BYTE PTR ds:[esi]
  4036d0:	outs   dx,WORD PTR ds:[esi]
  4036d2:	add    BYTE PTR [edi+0x65],ah
  4036d5:	je     0x403736
  4036d7:	dec    ecx
  4036d8:	outs   dx,BYTE PTR ds:[esi]
  4036d9:	jbe    0x40373c
  4036db:	jb     0x403746
  4036dd:	popa   
  4036de:	outs   dx,BYTE PTR ds:[esi]
  4036df:	je     0x403724
  4036e1:	jne    0x40374f
  4036e3:	je     0x40375a
  4036e5:	jb     0x40374c
  4036e7:	add    BYTE PTR [ecx+0x46],cl
  4036ea:	outs   dx,DWORD PTR ds:[esi]
  4036eb:	jb     0x40375a
  4036ed:	popa   
  4036ee:	je     0x403740
  4036f0:	jb     0x403761
  4036f2:	jbe    0x40375d
  4036f4:	fs gs jb 0x4036f8
  4036f8:	inc    esi
  4036f9:	outs   dx,DWORD PTR ds:[esi]
  4036fa:	jb     0x403769
  4036fc:	popa   
  4036fd:	je     0x4036ff
  4036ff:	jae    0x403766
  403701:	je     0x403762
  403703:	dec    ecx
  403704:	je     0x40376b
  403706:	ins    DWORD PTR es:[edi],dx
  403707:	add    BYTE PTR [edi+0x65],ah
  40370a:	je     0x40376b
  40370c:	dec    ecx
  40370d:	je     0x403774
  40370f:	ins    DWORD PTR es:[edi],dx
  403710:	add    BYTE PTR [ebx+0x79],dl
  403713:	jae    0x403789
  403715:	gs ins DWORD PTR es:[edi],dx
  403717:	cs push ebx
  403719:	arpl   WORD PTR gs:[ebp+0x72],si
  40371d:	imul   esi,DWORD PTR [ecx+edi*2+0x2e],0x6e697250
  403725:	arpl   WORD PTR [ecx+0x70],bp
  403728:	popa   
  403729:	ins    BYTE PTR es:[edi],dx
  40372a:	add    BYTE PTR [edi+0x69],dl
  40372d:	outs   dx,BYTE PTR ds:[esi]
  40372e:	outs   dx,DWORD PTR fs:[esi]
  403730:	ja     0x4037a5
  403732:	dec    ecx
  403733:	fs outs dx,BYTE PTR gs:[esi]
  403736:	je     0x4037a1
  403738:	je     0x4037b3
  40373a:	add    BYTE PTR [edi+0x65],al
  40373d:	je     0x403782
  40373f:	jne    0x4037b3
  403741:	jb     0x4037a8
  403743:	outs   dx,BYTE PTR ds:[esi]
  403744:	je     0x403746
  403746:	push   ebx
  403747:	jns    0x4037bc
  403749:	je     0x4037b0
  40374b:	ins    DWORD PTR es:[edi],dx
  40374c:	cs push ebx
  40374e:	arpl   WORD PTR gs:[ebp+0x72],si
  403752:	imul   esi,DWORD PTR [ecx+edi*2+0x2e],0x69616c43
  40375a:	ins    DWORD PTR es:[edi],dx
  40375b:	jae    0x40375d
  40375d:	inc    ebx
  40375e:	ins    BYTE PTR es:[edi],dx
  40375f:	popa   
  403760:	imul   ebp,DWORD PTR [ebp+0x73],0x6e656449
  403767:	je     0x4037d2
  403769:	je     0x4037e4
  40376b:	add    BYTE PTR [edi+0x65],ah
  40376e:	je     0x4037cf
  403770:	dec    esi
  403771:	popa   
  403772:	ins    DWORD PTR es:[edi],dx
  403773:	add    BYTE PTR gs:[ebx+0x79],dl
  403777:	jae    0x4037ed
  403779:	gs ins DWORD PTR es:[edi],dx
  40377b:	cs push edx
  40377d:	jne    0x4037ed
  40377f:	je     0x4037ea
  403781:	ins    DWORD PTR es:[edi],dx
  403782:	gs cs push edx
  403785:	gs ins DWORD PTR es:[edi],dx
  403787:	outs   dx,DWORD PTR ds:[esi]
  403788:	je     0x4037f3
  40378a:	outs   dx,BYTE PTR ds:[esi]
  40378b:	addr16 cs inc ebx
  40378e:	push   0x656e6e61
  403793:	ins    BYTE PTR es:[edi],dx
  403794:	jae    0x4037c4
  403796:	dec    ecx
  403797:	jo     0x4037fc
  403799:	add    BYTE PTR [ecx+0x70],cl
  40379c:	arpl   WORD PTR [ebx+0x68],ax
  40379f:	popa   
  4037a0:	outs   dx,BYTE PTR ds:[esi]
  4037a1:	outs   dx,BYTE PTR ds:[esi]
  4037a2:	gs ins BYTE PTR es:[edi],dx
  4037a4:	add    BYTE PTR [ecx+0x44],cl
  4037a7:	imul   esp,DWORD PTR [ebx+0x74],0x616e6f69
  4037ae:	jb     0x403829
  4037b0:	add    BYTE PTR [ecx+0x43],cl
  4037b3:	ins    BYTE PTR es:[edi],dx
  4037b4:	imul   esp,DWORD PTR [ebp+0x6e],0x61684374
  4037bb:	outs   dx,BYTE PTR ds:[esi]
  4037bc:	outs   dx,BYTE PTR ds:[esi]
  4037bd:	gs ins BYTE PTR es:[edi],dx
  4037bf:	push   ebx
  4037c0:	imul   ebp,DWORD PTR [esi+0x6b],0x766f7250
  4037c7:	imul   esp,DWORD PTR [ebp+eiz*2+0x72],0x65534900
  4037cf:	jb     0x403847
  4037d1:	gs jb  0x403817
  4037d4:	push   0x656e6e61
  4037d9:	ins    BYTE PTR es:[edi],dx
  4037da:	push   ebx
  4037db:	imul   ebp,DWORD PTR [esi+0x6b],0x766f7250
  4037e2:	imul   esp,DWORD PTR [ebp+eiz*2+0x72],0x61684300
  4037ea:	outs   dx,BYTE PTR ds:[esi]
  4037eb:	outs   dx,BYTE PTR ds:[esi]
  4037ec:	gs ins BYTE PTR es:[edi],dx
  4037ee:	push   ebx
  4037ef:	gs jb  0x403868
  4037f2:	imul   esp,DWORD PTR [ebx+0x65],0x43490073
  4037f9:	push   0x656e6e61
  4037fe:	ins    BYTE PTR es:[edi],dx
  4037ff:	add    BYTE PTR [edx+0x65],dl
  403802:	imul   esi,DWORD PTR [bp+di+0x74],0x68437265
  40380a:	popa   
  40380b:	outs   dx,BYTE PTR ds:[esi]
  40380c:	outs   dx,BYTE PTR ds:[esi]
  40380d:	gs ins BYTE PTR es:[edi],dx
  40380f:	add    BYTE PTR [ecx+edi*2+0x70],dl
  403813:	add    BYTE PTR gs:[edx+0x75],dl
  403817:	outs   dx,BYTE PTR ds:[esi]
  403818:	je     0x403883
  40381a:	ins    DWORD PTR es:[edi],dx
  40381b:	gs push esp
  40381d:	jns    0x40388f
  40381f:	gs dec eax
  403821:	popa   
  403822:	outs   dx,BYTE PTR ds:[esi]
  403823:	fs ins BYTE PTR es:[edi],dx
  403825:	add    BYTE PTR gs:[edi+0x65],al
  403829:	je     0x40387f
  40382b:	jns    0x40389d
  40382d:	gs inc esi
  40382f:	jb     0x4038a0
  403831:	ins    DWORD PTR es:[edi],dx
  403832:	dec    eax
  403833:	popa   
  403834:	outs   dx,BYTE PTR ds:[esi]
  403835:	fs ins BYTE PTR es:[edi],dx
  403837:	add    BYTE PTR gs:[ecx+0x63],al
  40383b:	je     0x4038a6
  40383d:	jbe    0x4038a0
  40383f:	je     0x4038b0
  403841:	jb     0x403843
  403843:	inc    edi
  403844:	gs je  0x403896
  403847:	bound  ebp,QWORD PTR [edx+0x65]
  40384a:	arpl   WORD PTR [eax+eax*1+0x53],si
  40384e:	jo     0x4038b5
  403850:	arpl   WORD PTR [ecx+0x61],bp
  403853:	ins    BYTE PTR es:[edi],dx
  403854:	inc    esi
  403855:	outs   dx,DWORD PTR ds:[esi]
  403856:	ins    BYTE PTR es:[edi],dx
  403857:	fs gs jb 0x40385b
  40385b:	inc    edi
  40385c:	gs je  0x4038a5
  40385f:	outs   dx,DWORD PTR ds:[esi]
  403860:	ins    BYTE PTR es:[edi],dx
  403861:	fs gs jb 0x4038b5
  403865:	popa   
  403866:	je     0x4038d0
  403868:	add    BYTE PTR [ecx+0x73],al
  40386b:	jae    0x4038d2
  40386d:	ins    DWORD PTR es:[edi],dx
  40386e:	bound  ebp,QWORD PTR [ecx+edi*2+0x0]
  403872:	inc    edi
  403873:	gs je  0x4038bb
  403876:	js     0x4038dd
  403878:	arpl   WORD PTR [ebp+0x74],si
  40387b:	imul   ebp,DWORD PTR [esi+0x67],0x65737341
  403882:	ins    DWORD PTR es:[edi],dx
  403883:	bound  ebp,QWORD PTR [ecx+edi*2+0x0]
  403887:	inc    ecx
  403888:	jae    0x4038fd
  40388a:	gs ins DWORD PTR es:[edi],dx
  40388c:	bound  ebp,QWORD PTR [ecx+edi*2+0x4e]
  403890:	popa   
  403891:	ins    DWORD PTR es:[edi],dx
  403892:	add    BYTE PTR gs:[edi+0x65],al
  403896:	je     0x4038e6
  403898:	popa   
  403899:	ins    DWORD PTR es:[edi],dx
  40389a:	add    BYTE PTR gs:[esi+0x65],dl
  40389e:	jb     0x403913
  4038a0:	imul   ebp,DWORD PTR [edi+0x6e],0x74656700
  4038a7:	pop    edi
  4038a8:	push   esi
  4038a9:	gs jb  0x40391f
  4038ac:	imul   ebp,DWORD PTR [edi+0x6e],0x74656700
  4038b3:	pop    edi
  4038b4:	dec    ebp
  4038b5:	popa   
  4038b6:	push   0x6f
  4038b8:	jb     0x4038ba
  4038ba:	addr16 gs je 0x40391d
  4038be:	dec    ebp
  4038bf:	imul   ebp,DWORD PTR [esi+0x6f],0x79530072
  4038c6:	jae    0x40393c
  4038c8:	gs ins DWORD PTR es:[edi],dx
  4038ca:	cs dec ecx
  4038cc:	dec    edi
  4038cd:	add    BYTE PTR [eax+0x61],dl
  4038d0:	je     0x40393a
  4038d2:	add    BYTE PTR [ebx+0x6f],al
  4038d5:	ins    DWORD PTR es:[edi],dx
  4038d6:	bound  ebp,QWORD PTR [ecx+0x6e]
  4038d9:	add    BYTE PTR gs:[ecx+ebp*2+0x72],al
  4038de:	arpl   WORD PTR gs:[edi+ebp*2+0x72],si
  4038e3:	jns    0x4038e5
  4038e5:	inc    ebp
  4038e6:	js     0x403951
  4038e8:	jae    0x40395e
  4038ea:	jae    0x4038ec
  4038ec:	inc    esp
  4038ed:	imul   esi,DWORD PTR [edx+0x65],0x726f7463
  4038f4:	jns    0x40393f
  4038f6:	outs   dx,BYTE PTR ds:[esi]
  4038f7:	outs   dx,WORD PTR ds:[esi]
  4038f9:	add    BYTE PTR [ebx+0x72],al
  4038fc:	gs popa 
  4038fe:	je     0x403965
  403900:	inc    esp
  403901:	imul   esi,DWORD PTR [edx+0x65],0x726f7463
  403908:	jns    0x40390a
  40390a:	inc    ebp
  40390b:	jb     0x40397f
  40390d:	outs   dx,DWORD PTR ds:[esi]
  40390e:	jb     0x403910
  403910:	inc    ebp
  403911:	js     0x403976
  403913:	gs jo  0x40398a
  403916:	imul   ebp,DWORD PTR [edi+0x6e],0x454f4900
  40391d:	js     0x403982
  40391f:	gs jo  0x403996
  403922:	imul   ebp,DWORD PTR [edi+0x6e],0x0
  403929:	or     edx,DWORD PTR [ebp+0x0]
  40392c:	dec    ecx
  40392d:	add    BYTE PTR [ebp+0x0],cl
  403930:	popa   
  403931:	add    BYTE PTR [eax+0x0],dh
  403934:	add    BYTE PTR ds:0x6f0043,ah
  40393a:	add    BYTE PTR fs:[ebp+0x0],ah
  40393e:	add    BYTE PTR fs:[ebp+0x0],dl
  403942:	dec    ecx
  403943:	add    BYTE PTR [eax+eax*1+0x65],dl
  403947:	add    BYTE PTR [ebx+0x0],dh
  40394a:	je     0x40394c
  40394c:	inc    edx
  40394d:	add    BYTE PTR [ebp+0x0],dh
  403950:	imul   eax,DWORD PTR [eax],0x64006c
  403956:	add    BYTE PTR gs:[edx+0x0],dh
  40395a:	add    BYTE PTR [ebp+0x43],cl
  40395d:	add    BYTE PTR [edi+0x0],ch
  403960:	add    BYTE PTR fs:[ebp+0x0],ah
  403964:	add    BYTE PTR fs:[ebp+0x0],dl
  403968:	dec    ecx
  403969:	add    BYTE PTR [eax+eax*1+0x65],dl
  40396d:	add    BYTE PTR [ebx+0x0],dh
  403970:	je     0x403972
  403972:	inc    edx
  403973:	add    BYTE PTR [ebp+0x0],dh
  403976:	imul   eax,DWORD PTR [eax],0x64006c
  40397c:	add    BYTE PTR gs:[edx+0x0],dh
  403980:	add    BYTE PTR cs:[ebp+0x0],ah
  403984:	js     0x403986
  403986:	add    BYTE PTR gs:[eax],ah
  403989:	add    BYTE PTR [ebx+0x0],ah
  40398c:	popa   
  40398d:	add    BYTE PTR [eax+eax*1+0x6c],ch
  403991:	add    BYTE PTR [ebp+0x0],ah
  403994:	add    BYTE PTR fs:[eax],ah
  403997:	add    BYTE PTR [edi+0x0],dh
  40399a:	imul   eax,DWORD PTR [eax],0x680074
  4039a0:	and    BYTE PTR [eax],al
  4039a2:	jnp    0x4039a4
  4039a4:	xor    BYTE PTR [eax],al
  4039a6:	jge    0x4039a8
  4039a8:	add    BYTE PTR [ebx],bh
  4039aa:	inc    ebx
  4039ab:	add    BYTE PTR [edi+0x0],ch
  4039ae:	add    BYTE PTR fs:[ebp+0x0],ah
  4039b2:	add    BYTE PTR fs:[ebp+0x0],dl
  4039b6:	dec    ecx
  4039b7:	add    BYTE PTR [eax+eax*1+0x65],dl
  4039bb:	add    BYTE PTR [ebx+0x0],dh
  4039be:	je     0x4039c0
  4039c0:	inc    edx
  4039c1:	add    BYTE PTR [ebp+0x0],dh
  4039c4:	imul   eax,DWORD PTR [eax],0x64006c
  4039ca:	add    BYTE PTR gs:[edx+0x0],dh
  4039ce:	add    BYTE PTR cs:[ecx+0x0],cl
  4039d2:	outs   dx,BYTE PTR ds:[esi]
  4039d3:	add    BYTE PTR [ecx+0x0],ch
  4039d6:	je     0x4039d8
  4039d8:	imul   eax,DWORD PTR [eax],0x6c0061
  4039de:	imul   eax,DWORD PTR [eax],0x65007a
  4039e4:	add    BYTE PTR ds:0x70002f,cl
  4039ea:	imul   eax,DWORD PTR [eax],0x650070
  4039f0:	cmp    al,BYTE PTR [eax]
  4039f2:	add    BYTE PTR [ebx],al
  4039f4:	cmp    al,BYTE PTR [eax]
  4039f6:	add    BYTE PTR [edi],dl
  4039f8:	das    
  4039f9:	add    BYTE PTR [eax+0x0],dh
  4039fc:	popa   
  4039fd:	add    BYTE PTR [edx+0x0],dh
  403a00:	add    BYTE PTR gs:[esi+0x0],ch
  403a04:	je     0x403a06
  403a06:	push   eax
  403a07:	add    BYTE PTR [ecx+0x0],ch
  403a0a:	add    BYTE PTR fs:[edx],bh
  403a0d:	add    BYTE PTR [eax],al
  403a0f:	adc    esi,DWORD PTR [eax+0x0]
  403a12:	popa   
  403a13:	add    BYTE PTR [edx+0x0],dh
  403a16:	add    BYTE PTR gs:[esi+0x0],ch
  403a1a:	je     0x403a1c
  403a1c:	push   eax
  403a1d:	add    BYTE PTR [ecx+0x0],ch
  403a20:	add    BYTE PTR fs:[eax],al
  403a23:	pop    ss
  403a24:	das    
  403a25:	add    BYTE PTR [ebx+0x0],dh
  403a28:	je     0x403a2a
  403a2a:	popa   
  403a2b:	add    BYTE PTR [esi+0x0],ch
  403a2e:	add    BYTE PTR fs:[ecx+0x0],al
  403a32:	ins    BYTE PTR es:[edi],dx
  403a33:	add    BYTE PTR [edi+0x0],ch
  403a36:	outs   dx,BYTE PTR ds:[esi]
  403a37:	add    BYTE PTR [ebp+0x0],ah
  403a3a:	add    BYTE PTR [ecx],cl
  403a3c:	outs   dx,BYTE PTR ds:[esi]
  403a3d:	add    BYTE PTR [ecx+0x0],ah
  403a40:	ins    DWORD PTR es:[edi],dx
  403a41:	add    BYTE PTR [ebp+0x0],ah
  403a44:	add    BYTE PTR [ebx],dl
  403a46:	arpl   WORD PTR [eax],ax
  403a48:	ins    BYTE PTR es:[edi],dx
  403a49:	add    BYTE PTR [ecx+0x0],ch
  403a4c:	add    BYTE PTR gs:[esi+0x0],ch
  403a50:	je     0x403a52
  403a52:	jnp    0x403a54
  403a54:	xor    BYTE PTR [eax],al
  403a56:	jge    0x403a58
  403a58:	add    BYTE PTR [ecx],dl
  403a5a:	jo     0x403a5c
  403a5c:	outs   dx,DWORD PTR ds:[esi]
  403a5d:	add    BYTE PTR [edx+0x0],dh
  403a60:	je     0x403a62
  403a62:	dec    esi
  403a63:	add    BYTE PTR [ecx+0x0],ah
  403a66:	ins    DWORD PTR es:[edi],dx
  403a67:	add    BYTE PTR [ebp+0x0],ah
  403a6a:	add    BYTE PTR [edi],bl
  403a6c:	popa   
  403a6d:	add    BYTE PTR [ebp+0x0],dh
  403a70:	je     0x403a72
  403a72:	push   0x72006f00
  403a77:	add    BYTE PTR [ecx+0x0],ch
  403a7a:	jp     0x403a7c
  403a7c:	add    BYTE PTR gs:[eax+eax*1+0x47],ah
  403a81:	add    BYTE PTR [edx+0x0],dh
  403a84:	outs   dx,DWORD PTR ds:[esi]
  403a85:	add    BYTE PTR [ebp+0x0],dh
  403a88:	jo     0x403a8a
  403a8a:	add    BYTE PTR [ebx],ch
  403a8c:	imul   eax,DWORD PTR [eax],0x630070
  403a92:	cmp    al,BYTE PTR [eax]
  403a94:	das    
  403a95:	add    BYTE PTR [edi],ch
  403a97:	add    BYTE PTR [ebx+0x0],bh
  403a9a:	xor    BYTE PTR [eax],al
  403a9c:	jge    0x403a9e
  403a9e:	das    
  403a9f:	add    BYTE PTR [ebx+0x0],al
  403aa2:	outs   dx,DWORD PTR ds:[esi]
  403aa3:	add    BYTE PTR [eax+eax*1+0x65],ah
  403aa7:	add    BYTE PTR [eax+eax*1+0x55],ah
  403aab:	add    BYTE PTR [ecx+0x0],cl
  403aae:	push   esp
  403aaf:	add    BYTE PTR [ebp+0x0],ah
  403ab2:	jae    0x403ab4
  403ab4:	je     0x403ab6
  403ab6:	add    BYTE PTR [ecx],dl
  403ab8:	jbe    0x403aba
  403aba:	jnp    0x403abc
  403abc:	xor    BYTE PTR [eax],al
  403abe:	jge    0x403ac0
  403ac0:	add    BYTE PTR cs:[ebx+0x0],bh
  403ac4:	xor    DWORD PTR [eax],eax
  403ac6:	jge    0x403ac8
  403ac8:	add    BYTE PTR [ebx],dl
  403aca:	dec    ebp
  403acb:	add    BYTE PTR [ecx+0x0],ch
  403ace:	arpl   WORD PTR [eax],ax
  403ad0:	jb     0x403ad2
  403ad2:	outs   dx,DWORD PTR ds:[esi]
  403ad3:	add    BYTE PTR [ebx+0x0],dh
  403ad6:	outs   dx,DWORD PTR ds:[esi]
  403ad7:	add    BYTE PTR [esi+0x0],ah
  403ada:	je     0x403adc
  403adc:	add    BYTE PTR [ecx],dl
  403ade:	push   esp
  403adf:	add    BYTE PTR [ebp+0x0],ah
  403ae2:	popa   
  403ae3:	add    BYTE PTR [ebp+0x0],ch
  403ae6:	push   esp
  403ae7:	add    BYTE PTR [ebp+0x0],ah
  403aea:	jae    0x403aec
  403aec:	je     0x403aee
  403aee:	add    BYTE PTR [ecx+0x55],dl
  403af1:	add    BYTE PTR [esi+0x0],ch
  403af4:	popa   
  403af5:	add    BYTE PTR [edx+0x0],ah
  403af8:	ins    BYTE PTR es:[edi],dx
  403af9:	add    BYTE PTR [ebp+0x0],ah
  403afc:	and    BYTE PTR [eax],al
  403afe:	je     0x403b00
  403b00:	outs   dx,DWORD PTR ds:[esi]
  403b01:	add    BYTE PTR [eax],ah
  403b03:	add    BYTE PTR [ebx+0x0],ah
  403b06:	jb     0x403b08
  403b08:	add    BYTE PTR gs:[ecx+0x0],ah
  403b0c:	je     0x403b0e
  403b0e:	add    BYTE PTR gs:[eax],ah
  403b11:	add    BYTE PTR [eax+eax*1+0x69],ah
  403b15:	add    BYTE PTR [edx+0x0],dh
  403b18:	add    BYTE PTR gs:[ebx+0x0],ah
  403b1c:	je     0x403b1e
  403b1e:	outs   dx,DWORD PTR ds:[esi]
  403b1f:	add    BYTE PTR [edx+0x0],dh
  403b22:	jns    0x403b24
  403b24:	and    BYTE PTR [eax],al
  403b26:	data16 add BYTE PTR [edi+0x0],ch
  403b2a:	jb     0x403b2c
  403b2c:	and    BYTE PTR [eax],al
  403b2e:	push   ebx
  403b2f:	add    BYTE PTR [ecx+0x0],dl
  403b32:	dec    ebp
  403b33:	add    BYTE PTR [eax],ah
  403b35:	add    BYTE PTR [eax+eax*1+0x72],dh
  403b39:	add    BYTE PTR [ecx+0x0],ah
  403b3c:	arpl   WORD PTR [eax],ax
  403b3e:	add    BYTE PTR gs:[eax],al
  403b41:	add    BYTE PTR [eax],al
  403b43:	add    al,dl
  403b45:	adc    DWORD PTR [ecx+0x7e],ecx
  403b48:	loop   0x403b3a
  403b4a:	fimul  DWORD PTR [eax-0x48]
  403b4d:	daa    
  403b4e:	or     cl,ah
  403b50:	xchg   edi,eax
  403b51:	mov    bl,0x7e
  403b53:	das    
  403b54:	add    BYTE PTR [eax],cl
  403b56:	mov    bh,0x7a
  403b58:	pop    esp
  403b59:	push   esi
  403b5a:	sbb    DWORD PTR [eax+eiz*8],esi
  403b5d:	mov    DWORD PTR [eax],ecx
  403b5f:	mov    al,0x3f
  403b61:	pop    edi
  403b62:	jg     0x403b75
  403b64:	aad    0xa
  403b66:	cmp    al,BYTE PTR [ebx]
  403b68:	and    BYTE PTR [eax],al
  403b6a:	push   cs
  403b6b:	adc    esp,DWORD PTR [eax]
  403b6d:	add    eax,0x10081001
  403b72:	sbb    eax,0x12151005
  403b77:	or     eax,0x100e0e02
  403b7c:	push   cs
  403b7d:	adc    BYTE PTR ds:0x1012004,cl
  403b83:	push   cs
  403b84:	add    esp,DWORD PTR [eax]
  403b86:	add    BYTE PTR [ecx],al
  403b88:	add    al,BYTE PTR [esi]
  403b8a:	or     DWORD PTR [edx+ebx*1],eax
  403b8d:	add    BYTE PTR [eax],al
  403b8f:	add    BYTE PTR ds:0x1d010100,al
  403b95:	push   cs
  403b96:	add    al,0x0
  403b98:	add    BYTE PTR [edx],dl
  403b9a:	or     DWORD PTR [esi],eax
  403b9c:	add    BYTE PTR [edx],al
  403b9e:	add    DWORD PTR [edx+edx*1],ebx
  403ba1:	adc    DWORD PTR [ebx],eax
  403ba3:	add    BYTE PTR [eax],al
  403ba5:	push   cs
  403ba6:	add    al,BYTE PTR [esi]
  403ba8:	push   cs
  403ba9:	add    al,BYTE PTR [esi]
  403bab:	or     BYTE PTR [eax+eiz*1],al
  403bae:	add    DWORD PTR [ecx],eax
  403bb0:	add    al,BYTE PTR ds:0xe010220
  403bb6:	push   cs
  403bb7:	add    eax,0x11010120
  403bbc:	gs add al,0x20
  403bbf:	add    DWORD PTR [ecx],eax
  403bc1:	or     BYTE PTR [eax+0x2400a0],al
  403bc7:	add    BYTE PTR [eax+eax*4],al
  403bca:	add    BYTE PTR [eax],al
  403bcc:	xchg   esp,eax
  403bcd:	add    BYTE PTR [eax],al
  403bcf:	add    BYTE PTR [esi],al
  403bd1:	add    al,BYTE PTR [eax]
  403bd3:	add    BYTE PTR [eax],al
  403bd5:	and    al,0x0
  403bd7:	add    BYTE PTR [edx+0x53],dl
  403bda:	inc    ecx
  403bdb:	xor    DWORD PTR [eax],eax
  403bdd:	add    al,0x0
  403bdf:	add    BYTE PTR [ecx],al
  403be1:	add    BYTE PTR [ecx],al
  403be3:	add    BYTE PTR [edi],al
  403be5:	sar    edx,1
  403be7:	push   edi
  403be8:	les    ebp,FWORD PTR [esi+0x2ea3f0d9]
  403bee:	test   BYTE PTR [edx+0xdfdae0f],ch
  403bf4:	jmp    0xecab39e1
  403bf9:	pop    DWORD PTR [edi+0x6c7603fb]
  403bff:	or     DWORD PTR [ecx+ebx*4-0x6e],0x1e
  403c04:	mov    dl,0x3b
  403c06:	out    0x9a,eax
  403c08:	(bad)  
  403c0a:	fadd   st(1),st
  403c0c:	fstp   QWORD PTR [edx+0x211336d2]
  403c12:	add    dl,BYTE PTR [eax-0x6c38df5]
  403c18:	adc    BYTE PTR [ebp+0x77e1c47f],0x10
  403c1f:	pop    esi
  403c21:	pop    es
  403c22:	ja     0x403c73
  403c24:	sub    eax,ebp
  403c26:	xor    cl,BYTE PTR [esi]
  403c28:	xchg   edx,eax
  403c29:	jmp    0xc021:0xe8e4ec05
  403c30:	movs   DWORD PTR es:[edi],DWORD PTR ds:[esi]
  403c31:	out    dx,eax
  403c32:	call   0x4c9ca128
  403c37:	or     al,0x93
  403c39:	shr    DWORD PTR [ebx+0x625d2899],0x2c
  403c40:	stos   BYTE PTR es:[edi],al
  403c41:	gs sub al,0x1d
  403c44:	cli    
  403c45:	(bad)  
  403c46:	cmp    eax,0x2d6f5d74
  403c4b:	in     eax,0xf1
  403c4d:	jle    0x403cad
  403c4f:	scas   eax,DWORD PTR es:[edi]
  403c50:	pinsrw mm2,WORD PTR [esi-0x75e3d9c3],0x12
  403c58:	inc    ebx
  403c59:	sbb    BYTE PTR gs:[eax],ah
  403c5c:	ins    DWORD PTR es:[edi],dx
  403c5d:	rcl    BYTE PTR [ebx-0x2da5b2cc],0x93
  403c64:	or     BYTE PTR [eax],ah
  403c66:	add    BYTE PTR ds:0x12017112,dl
  403c6c:	jne    0x403c74
  403c6e:	adc    eax,0x12017112
  403c73:	jne    0x403c7a
  403c75:	and    BYTE PTR [ecx],al
  403c77:	add    DWORD PTR [ebx],edx
  403c79:	add    BYTE PTR ds:0x120e0100,al
  403c7f:	ins    DWORD PTR es:[edi],dx
  403c80:	add    al,0x7
  403c82:	add    DWORD PTR [edx],edx
  403c84:	ins    DWORD PTR es:[edi],dx
  403c85:	add    al,0x1
  403c87:	add    BYTE PTR [eax],al
  403c89:	add    BYTE PTR [edi],al
  403c8b:	add    BYTE PTR [edx],al
  403c8d:	adc    al,BYTE PTR [eax+0x60e0e85]
  403c93:	add    BYTE PTR [edx],al
  403c95:	add    DWORD PTR [esi],ecx
  403c97:	sbb    eax,0x100041c
  403c9c:	add    cl,BYTE PTR [esi]
  403c9e:	add    eax,0xe010220
  403ca3:	or     DWORD PTR [esi],eax
  403ca5:	add    BYTE PTR [ecx],al
  403ca7:	add    DWORD PTR [edx],edx
  403ca9:	sbb    BYTE PTR [ebp+0x1022005],0xe
  403cb0:	or     al,BYTE PTR [esi]
  403cb2:	add    BYTE PTR [ecx],al
  403cb4:	adc    al,BYTE PTR [eax+0x200508a9]
  403cba:	add    al,BYTE PTR [ecx]
  403cbc:	sbb    al,0x18
  403cbe:	push   es
  403cbf:	and    BYTE PTR [ecx],al
  403cc1:	add    DWORD PTR [edx],edx
  403cc3:	sub    BYTE PTR [ebp+0x12010008],0x80
  403cca:	mov    ch,0x11
  403ccc:	cmp    BYTE PTR [ecx+0x38bf3108],0x56
  403cd3:	lods   eax,DWORD PTR ds:[esi]
  403cd4:	ss dec esi
  403cd6:	xor    eax,0x1032009
  403cdb:	adc    cl,BYTE PTR [ecx]
  403cdd:	adc    al,BYTE PTR [eax+0x308b5]
  403ce3:	add    BYTE PTR [ecx],al
  403ce5:	push   es
  403ce6:	and    BYTE PTR [ecx],al
  403ce8:	or     BYTE PTR [edx],dl
  403cea:	or     ch,0x19
  403ced:	pop    es
  403cee:	or     DWORD PTR [esi],ecx
  403cf0:	adc    al,BYTE PTR [eax-0x3e7fed43]
  403cf6:	adc    al,BYTE PTR [eax-0x4a7fed57]
  403cfc:	adc    cl,BYTE PTR [ecx]
  403cfe:	sbb    eax,0xa180121c
  403d03:	adc    al,BYTE PTR [eax+0x22007a5]
  403d09:	add    cl,BYTE PTR [esi]
  403d0b:	adc    DWORD PTR [eax+0x22007d1],eax
  403d11:	or     BYTE PTR [esi],cl
  403d13:	adc    DWORD PTR [eax+0x12004d1],eax
  403d19:	push   cs
  403d1a:	or     BYTE PTR [esi],al
  403d1c:	add    BYTE PTR [edx],al
  403d1e:	add    cl,BYTE PTR [esi]
  403d20:	adc    BYTE PTR [eax],cl
  403d22:	or     BYTE PTR [eax],al
  403d24:	add    eax,DWORD PTR [edx]
  403d26:	push   cs
  403d27:	push   cs
  403d28:	adc    DWORD PTR [eax+0x10004d1],eax
  403d2e:	add    DWORD PTR [eax],ecx
  403d30:	pop    es
  403d31:	pop    es
  403d32:	add    al,0x2
  403d34:	push   cs
  403d35:	sbb    eax,0x704080e
  403d3a:	add    DWORD PTR [edx],edx
  403d3c:	or     DWORD PTR [esi],eax
  403d3e:	and    BYTE PTR [ecx],al
  403d40:	add    DWORD PTR [ecx],edx
  403d42:	and    ch,0x5
  403d45:	add    BYTE PTR [eax],al
  403d47:	adc    al,BYTE PTR [eax+0x30009ed]
  403d4d:	push   cs
  403d4e:	adc    al,BYTE PTR [eax+0x1c1d0ef1]
  403d54:	add    eax,0x1c010220
  403d59:	sbb    al,0x4
  403d5b:	and    BYTE PTR [ecx],al
  403d5d:	sbb    al,0x1c
  403d5f:	add    eax,0x80120000
  403d64:	cmc    
  403d65:	or     al,0x20
  403d67:	add    eax,DWORD PTR [ecx]
  403d69:	adc    al,BYTE PTR [ecx+0x5811201]
  403d6f:	adc    al,BYTE PTR [ecx+0x2000709]
  403d75:	add    DWORD PTR [edx],edx
  403d77:	adc    DWORD PTR [ecx],0x1000802
  403d7d:	adc    al,BYTE PTR [ecx+0x19811115]
  403d83:	pop    es
  403d84:	add    BYTE PTR [edx],al
  403d86:	sbb    al,0x12
  403d88:	adc    DWORD PTR ds:0x807150e,0x12dd8012
  403d92:	and    cl,0x12
  403d95:	sub    cl,0x12
  403d98:	adc    DWORD PTR [ecx],0x1d09120e
  403d9e:	sbb    al,0x1d
  403da0:	sbb    al,0x6
  403da2:	add    BYTE PTR [ecx],al
  403da4:	push   cs
  403da5:	adc    DWORD PTR [ecx+0x521],eax
  403dab:	adc    al,BYTE PTR [ecx+0x200525]
  403db1:	adc    al,BYTE PTR [ecx+0x200529]
  403db7:	adc    al,BYTE PTR [ecx+0x20032d]
  403dbd:	or     BYTE PTR ds:0xe0e0200,al
  403dc3:	push   cs
  403dc4:	push   es
  403dc5:	add    BYTE PTR [ecx],al
  403dc7:	adc    al,BYTE PTR [ecx+0x40e39]
  403dcd:	add    DWORD PTR [ecx],eax
  403dcf:	push   cs
  403dd0:	push   es
  403dd1:	add    BYTE PTR [ecx],al
  403dd3:	add    DWORD PTR [edx],edx
  403dd5:	cmp    DWORD PTR ds:0xe08070f,0xe2d8112
  403ddf:	push   cs
  403de0:	push   cs
  403de1:	adc    al,BYTE PTR [ecx+0x1c1d0e41]
  403de7:	aaa    
  403de8:	add    DWORD PTR [eax],eax
  403dea:	sbb    ch,BYTE PTR [esi]
  403dec:	dec    esi
  403ded:	inc    ebp
  403dee:	push   esp
  403def:	inc    esi
  403df0:	jb     0x403e53
  403df2:	ins    DWORD PTR es:[edi],dx
  403df3:	gs ja  0x403e65
  403df6:	jb     0x403e63
  403df8:	sub    al,0x56
  403dfa:	gs jb  0x403e70
  403dfd:	imul   ebp,DWORD PTR [edi+0x6e],0x2e34763d
  403e04:	xor    eax,0xe540001
  403e09:	adc    al,0x46
  403e0b:	jb     0x403e6e
  403e0d:	ins    DWORD PTR es:[edi],dx
  403e0e:	gs ja  0x403e80
  403e11:	jb     0x403e7e
  403e13:	inc    esp
  403e14:	imul   esi,DWORD PTR [ebx+0x70],0x4e79616c
  403e1b:	popa   
  403e1c:	ins    DWORD PTR es:[edi],dx
  403e1d:	add    BYTE PTR gs:0x1,al
  403e24:	add    BYTE PTR ds:0x10001,al
  403e2a:	add    BYTE PTR [edx],bl
  403e2c:	add    DWORD PTR [eax],eax
  403e2e:	adc    eax,0x65646f43
  403e33:	and    BYTE PTR fs:[ebp+0x49],dl
  403e37:	and    BYTE PTR [ebp+eiz*2+0x73],dl
  403e3b:	je     0x403e5d
  403e3d:	inc    edx
  403e3e:	jne    0x403ea9
  403e40:	ins    BYTE PTR es:[edi],dx
  403e41:	fs gs jb 0x403e45
  403e45:	add    BYTE PTR [edx],bl
  403e47:	add    DWORD PTR [eax],eax
  403e49:	adc    eax,0x7263694d
  403e4e:	outs   dx,DWORD PTR ds:[esi]
  403e4f:	jae    0x403ec0
  403e51:	data16 je 0x403e74
  403e54:	inc    ebx
  403e55:	outs   dx,DWORD PTR ds:[esi]
  403e56:	jb     0x403ec8
  403e58:	outs   dx,DWORD PTR ds:[esi]
  403e59:	jb     0x403ebc
  403e5b:	je     0x403ec6
  403e5d:	outs   dx,DWORD PTR ds:[esi]
  403e5e:	outs   dx,BYTE PTR ds:[esi]
  403e5f:	add    BYTE PTR [eax],al
  403e61:	and    eax,0x4d200001
  403e66:	imul   esp,DWORD PTR [ebx+0x72],0x666f736f
  403e6d:	je     0x403e31
  403e6f:	scas   al,BYTE PTR es:[edi]
  403e70:	and    BYTE PTR [esi+0x69],dl
  403e73:	jae    0x403eea
  403e75:	popa   
  403e76:	ins    BYTE PTR es:[edi],dx
  403e77:	and    BYTE PTR [ebx+0x74],dl
  403e7a:	jne    0x403ee0
  403e7c:	imul   ebp,DWORD PTR [edi-0x3e],0x303220ae
  403e83:	xor    DWORD PTR [edx],esi
  403e85:	add    BYTE PTR [eax],al
  403e87:	xor    eax,DWORD PTR [ecx]
  403e89:	add    BYTE PTR [esi],ch
  403e8b:	ret    0x20a9
  403e8e:	dec    ebp
  403e8f:	imul   esp,DWORD PTR [ebx+0x72],0x666f736f
  403e96:	je     0x403eb8
  403e98:	inc    ebx
  403e99:	outs   dx,DWORD PTR ds:[esi]
  403e9a:	jb     0x403f0c
  403e9c:	outs   dx,DWORD PTR ds:[esi]
  403e9d:	jb     0x403f00
  403e9f:	je     0x403f0a
  403ea1:	outs   dx,DWORD PTR ds:[esi]
  403ea2:	outs   dx,BYTE PTR ds:[esi]
  403ea3:	and    BYTE PTR cs:[ecx+0x6c],al
  403ea7:	ins    BYTE PTR es:[edi],dx
  403ea8:	and    BYTE PTR [edx+0x69],dh
  403eab:	addr16 push 0x72207374
  403eb1:	gs jae 0x403f19
  403eb4:	jb     0x403f2c
  403eb6:	gs fs add BYTE PTR cs:[eax],al
  403ebb:	adc    DWORD PTR [ecx],eax
  403ebd:	add    BYTE PTR [ecx+esi*1],cl
  403ec0:	xor    DWORD PTR [esi],ebp
  403ec2:	xor    BYTE PTR [esi],ch
  403ec4:	xor    eax,0x37323730
  403ec9:	xor    DWORD PTR cs:[eax],eax
  403ecc:	add    BYTE PTR ds:0x31080001,cl
  403ed2:	xor    DWORD PTR [esi],ebp
  403ed4:	xor    BYTE PTR [esi],ch
  403ed6:	xor    BYTE PTR [esi],ch
  403ed8:	xor    BYTE PTR [eax],al
  403eda:	add    BYTE PTR [edx],cl
  403edc:	add    DWORD PTR [eax],eax
  403ede:	add    eax,0x552d6e65
  403ee3:	push   ebx
  403ee4:	add    BYTE PTR [eax],al
  403ee6:	sub    al,BYTE PTR [ecx]
  403ee8:	add    BYTE PTR ds:0x645c3a46,ah
  403eee:	fs pop esp
  403ef0:	je     0x403f61
  403ef2:	outs   dx,DWORD PTR ds:[esi]
  403ef3:	ins    BYTE PTR es:[edi],dx
  403ef4:	jae    0x403f52
  403ef6:	fs gs jbe 0x403f5e
  403efa:	imul   esi,DWORD PTR [esi+0x5c],0x616e6946
  403f01:	ins    BYTE PTR es:[edi],dx
  403f02:	push   eax
  403f03:	jne    0x403f67
  403f05:	ins    BYTE PTR es:[edi],dx
  403f06:	imul   esp,DWORD PTR [ebx+0x4b],0x732e7965
  403f0d:	outs   dx,BYTE PTR ds:[esi]
  403f0e:	imul   eax,DWORD PTR [eax],0x0
  403f11:	or     DWORD PTR [eax+0x1],0x0
  403f15:	add    BYTE PTR [eax+0x30],0x30
  403f19:	xor    dh,BYTE PTR [eax+esi*1]
  403f1c:	xor    BYTE PTR [eax],dh
  403f1e:	xor    BYTE PTR [eax],dh
  403f20:	arpl   WORD PTR [eax],di
  403f22:	xor    BYTE PTR [eax],dh
  403f24:	xor    BYTE PTR [eax],dh
  403f26:	xor    BYTE PTR [ecx],dh
  403f28:	xor    al,0x30
  403f2a:	xor    DWORD PTR [eax],esi
  403f2c:	xor    BYTE PTR [eax],dh
  403f2e:	xor    BYTE PTR [eax],dh
  403f30:	xor    BYTE PTR ss:[edx],dh
  403f33:	xor    BYTE PTR [eax],dh
  403f35:	xor    BYTE PTR [eax],dh
  403f37:	xor    BYTE PTR [eax],dh
  403f39:	xor    dh,BYTE PTR [eax+esi*1]
  403f3c:	xor    BYTE PTR [eax],dh
  403f3e:	xor    BYTE PTR ds:0x34333532,dh
  403f44:	xor    DWORD PTR [ebx],esi
  403f46:	xor    DWORD PTR [eax],esi
  403f48:	xor    BYTE PTR [eax],dh
  403f4a:	cmp    BYTE PTR [eax],dh
  403f4c:	xor    BYTE PTR [eax],dh
  403f4e:	xor    BYTE PTR [eax],dh
  403f50:	xor    DWORD PTR [eax],esi
  403f52:	xor    BYTE PTR [eax],dh
  403f54:	xor    DWORD PTR [eax],esi
  403f56:	xor    BYTE PTR [esi],dh
  403f58:	xor    DWORD PTR [ebx],esi
  403f5a:	xor    edi,DWORD PTR [ecx]
  403f5c:	cmp    DWORD PTR [ecx+0x66],esp
  403f5f:	xor    WORD PTR [eax],di
  403f62:	xor    WORD PTR gs:[ecx+0x32],sp
  403f67:	arpl   WORD PTR [edx],si
  403f69:	xor    eax,0x32613431
  403f6e:	aaa    
  403f6f:	xor    esp,DWORD PTR [ecx+0x34]
  403f72:	xor    ah,BYTE PTR [ecx+edi*1+0x30]
  403f76:	xor    al,0x32
  403f78:	bound  esi,QWORD PTR [edi]
  403f7a:	xor    dh,BYTE PTR [ebx]
  403f7c:	xor    dh,BYTE PTR [ecx]
  403f7e:	xor    WORD PTR [edi],si
  403f81:	xor    eax,0x32303137
  403f86:	cmp    WORD PTR fs:[ebp+0x62],sp
  403f8b:	popa   
  403f8c:	fs popa 
  403f8e:	cmp    DWORD PTR ss:[ecx],edi
  403f91:	xor    dh,BYTE PTR [ebx]
  403f93:	xor    dh,BYTE PTR gs:[edi]
  403f96:	xor    edi,DWORD PTR [eax]
  403f98:	xor    al,0x30
  403f9a:	arpl   WORD PTR ss:[edx],si
  403f9d:	xor    DWORD PTR [ebp+0x35],esp
  403fa0:	bound  edi,QWORD PTR [eax]
  403fa2:	xor    BYTE PTR [ecx],dh
  403fa4:	xor    eax,0x62613235
  403fa9:	cmp    BYTE PTR [edx+esi*1+0x30],ah
  403fad:	xor    BYTE PTR [ecx+0x36],ah
  403fb0:	xor    eax,0x35333261
  403fb5:	xor    BYTE PTR gs:[eax],dh
  403fb8:	xor    DWORD PTR [ecx+0x63],esp
  403fbb:	cmp    DWORD PTR [ecx+0x64],esp
  403fbe:	arpl   WORD PTR [edx],si
  403fc0:	xor    eax,0x38643266
  403fc5:	xor    DWORD PTR [ecx],esi
  403fc7:	bound  esi,QWORD PTR gs:[eax]
  403fca:	cmp    DWORD PTR [ecx+edi*1],esi
  403fcd:	ss popa 
  403fcf:	xor    al,0x63
  403fd1:	ss popa 
  403fd3:	xor    eax,0x36346439
  403fd8:	xor    DWORD PTR [ecx],edi
  403fda:	xor    eax,0x36633938
  403fdf:	cmp    DWORD PTR [esi+0x35],esp
  403fe2:	bound  esp,QWORD PTR [ecx+0x66]
  403fe5:	xor    BYTE PTR [ebx+0x34],ah
  403fe8:	xor    DWORD PTR [edi],esi
  403fea:	cmp    DWORD PTR [ecx+0x34],esp
  403fed:	aaa    
  403fee:	xor    esi,DWORD PTR [ecx]
  403ff0:	xor    DWORD PTR [ecx+edi*1+0x32],esp
  403ff4:	xor    eax,0x64633535
  403ff9:	xor    BYTE PTR [eax],dh
  403ffb:	ss popa 
  403ffd:	arpl   WORD PTR [ebx+0x38],sp
  404000:	bound  esi,QWORD PTR ds:0x66393539
  404006:	xor    ah,BYTE PTR [edx+0x64]
  404009:	ss xor DWORD PTR gs:[eax],esi
  40400d:	xor    esi,DWORD PTR gs:[esi]
  404010:	xor    BYTE PTR [ebx+0x33],ah
  404013:	xor    al,0x35
  404015:	xor    esi,DWORD PTR [edi]
  404017:	popa   
  404018:	xor    DWORD PTR [edx+esi*1+0x36],esp
  40401c:	ss fs popa 
  40401f:	cmp    BYTE PTR [eax],dh
  404021:	cmp    BYTE PTR ds:0x35363538,dh
  404027:	cmp    BYTE PTR [ebx],dh
  404029:	arpl   WORD PTR [eax],di
  40402b:	xor    eax,0x64313864
  404030:	popa   
  404031:	aaa    
  404032:	xor    sp,WORD PTR [ebp+0x63]
  404036:	xor    BYTE PTR [ecx],dh
  404038:	gs cmp DWORD PTR fs:0x35633436,esi
  404040:	cmp    BYTE PTR [ecx+edi*1+0x33],ah
  404044:	fs aaa 
  404046:	xor    DWORD PTR [ebx],esi
  404048:	arpl   WORD PTR [eax+esi*1+0x31],sp
  40404c:	aaa    
  40404d:	xor    ah,BYTE PTR [ebx+0x38]
  404050:	xor    dh,BYTE PTR gs:[ebx]
  404053:	popa   
  404054:	xor    DWORD PTR [eax],esi
  404056:	data16 xor BYTE PTR [edx],dh
  404059:	xor    edi,DWORD PTR [ecx]
  40405b:	bound  edi,QWORD PTR [eax]
  40405d:	xor    BYTE PTR [ebx+0x39],ah
  404060:	bound  esi,QWORD PTR ss:[eax]
  404063:	aaa    
  404064:	aaa    
  404065:	xor    esi,DWORD PTR [esi]
  404067:	xor    ax,0x3864
  40406b:	bound  esi,QWORD PTR [eax]
  40406d:	xor    dh,BYTE PTR [edx]
  40406f:	xor    eax,0x34613234
  404074:	gs aaa 
  404076:	xor    al,0x32
  404078:	xor    eax,0x66356131
  40407d:	xor    al,0x33
  40407f:	xor    bh,BYTE PTR [eax]
  404081:	xor    dh,BYTE PTR [ebx+esi*1]
  404084:	xor    DWORD PTR [eax],edi
  404086:	bound  esi,QWORD PTR [ebx]
  404088:	xor    eax,0x35613933
  40408d:	popa   
  40408e:	xor    BYTE PTR [eax],bh
  404090:	aaa    
  404091:	data16 cmp BYTE PTR [ebp+0x35],ah
  404095:	xor    esp,DWORD PTR [edx+esi*1+0x66]
  404099:	xor    DWORD PTR [ebx],esi
  40409b:	xor    eax,0x61633966
  4040a0:	xor    al,0x37
  4040a2:	xor    sp,WORD PTR [edx+0x62]
  4040a6:	xor    ah,BYTE PTR [ebp+0x31]
  4040a9:	xor    BYTE PTR [ecx+0x66],ah
  4040ac:	data16 xor BYTE PTR [ecx+0x66],ah
  4040b0:	xor    BYTE PTR [eax],bh
  4040b2:	xor    al,0x39
  4040b4:	xor    eax,0x62663430
  4040b9:	aaa    
  4040ba:	arpl   WORD PTR [ebp+0x61],sp
  4040bd:	xor    esp,DWORD PTR [esi+0x66]
  4040c0:	xor    DWORD PTR [ecx],edi
  4040c2:	xor    ah,BYTE PTR [ebx+eiz*2+0x38]
  4040c6:	fs xor BYTE PTR gs:[ebp+0x64],ah
  4040cb:	popa   
  4040cc:	fs ss xor al,0x63
  4040d0:	cmp    BYTE PTR ss:[ebp+0x66],ah
  4040d4:	fs xor esi,DWORD PTR gs:[ebx+eiz*2]
  4040d9:	xor    eax,0x30336436
  4040de:	xor    ah,BYTE PTR [ecx+0x64]
  4040e1:	xor    eax,0x36646635
  4040e6:	cmp    BYTE PTR gs:[eax],dh
  4040e9:	xor    si,WORD PTR [eax]
  4040ec:	xor    ah,BYTE PTR [ebp+esi*1+0x65]
  4040f0:	data16 arpl WORD PTR [ebp+eiz*2+0x61],sp
  4040f5:	cmp    DWORD PTR gs:0x38353633,esi
  4040fc:	xor    esi,DWORD PTR fs:[esi*1+0x31363532]
  404104:	bound  esi,QWORD PTR ds:0x63363366
  40410a:	xor    eax,0x66653234
  40410f:	bound  esp,QWORD PTR fs:[esp+eiz*2+0x39]
  404114:	data16 cmp BYTE PTR [eax],bh
  404117:	cmp    BYTE PTR ds:0x33643833,dh
  40411d:	aaa    
  40411e:	xor    al,0x63
  404120:	xor    WORD PTR gs:[eax],si
  404124:	ss popa 
  404126:	arpl   WORD PTR [esi+0x37],sp
  404129:	cmp    DWORD PTR fs:[ebx],esi
  40412c:	popa   
  40412d:	xor    al,0x34
  40412f:	xor    al,0x35
  404131:	arpl   WORD PTR [ebx],si
  404133:	arpl   WORD PTR [edi],si
  404135:	xor    esp,DWORD PTR [ebx+0x64]
  404138:	cmp    DWORD PTR [ecx],esi
  40413a:	xor    DWORD PTR [esi+0x30],esp
  40413d:	xor    eax,0x61613137
  404142:	xor    sp,WORD PTR [ebp+esi*1+0x34]
  404147:	fs popa 
  404149:	xor    DWORD PTR [edx],esi
  40414b:	bound  esi,QWORD PTR [ecx]
  40414d:	xor    DWORD PTR [esp+eiz*2+0x65],esp
  404151:	arpl   WORD PTR [ebx],si
  404153:	aaa    
  404154:	xor    eax,0x813362
  404159:	popa   
  40415a:	xor    eax,0x36363861
  40415f:	xor    DWORD PTR gs:[ebp+0x65],esp
  404163:	xor    DWORD PTR [eax],edi
  404165:	data16 cmp BYTE PTR ss:[eax],dh
  404169:	aaa    
  40416a:	ss cmp BYTE PTR ss:[edx],dh
  40416e:	xor    BYTE PTR [ecx],bh
  404170:	xor    sp,WORD PTR [edx+0x31]
  404174:	xor    DWORD PTR [edx],esi
  404176:	xor    esi,DWORD PTR [esi]
  404178:	popa   
  404179:	arpl   WORD PTR [ebp+0x35],sp
  40417c:	xor    dh,BYTE PTR gs:[ecx]
  40417f:	xor    WORD PTR [ecx],si
  404182:	aaa    
  404183:	cmp    BYTE PTR [eax],dh
  404185:	xor    esp,DWORD PTR [ecx+0x33]
  404188:	xor    DWORD PTR [ebx+esi*1],esi
  40418b:	popa   
  40418c:	bound  esp,QWORD PTR [edx+0x31]
  40418f:	xor    dh,BYTE PTR [esi]
  404191:	fs xor BYTE PTR fs:[ebx],dh
  404195:	xor    eax,0x32643764
  40419a:	data16 cmp BYTE PTR [edi],dh
  40419d:	bound  esi,QWORD PTR ss:[esi]
  4041a0:	cmp    DWORD PTR [ebx],esi
  4041a2:	cmp    BYTE PTR [ecx+0x61],ah
  4041a5:	data16 xor ah,BYTE PTR [ebp+0x65]
  4041a9:	xor    esi,DWORD PTR [ecx+esi*1]
  4041ac:	xor    al,0x64
  4041ae:	xor    eax,0x64303234
  4041b3:	aaa    
  4041b4:	xor    eax,0x31323633
  4041b9:	xor    al,0x30
  4041bb:	xor    BYTE PTR [edx+eiz*2+0x34],ah
  4041bf:	xor    al,0x61
  4041c1:	xor    al,0x39
  4041c3:	arpl   WORD PTR [eax+edi*1],si
  4041c6:	arpl   WORD PTR ss:[ebp+0x31],sp
  4041ca:	xor    esi,DWORD PTR [ebx+esi*1]
  4041cd:	xor    BYTE PTR [eax],dh
  4041cf:	popa   
  4041d0:	xor    dh,BYTE PTR [ecx]
  4041d2:	xor    BYTE PTR [esi],dh
  4041d4:	popa   
  4041d5:	bound  esi,QWORD PTR fs:[esi]
  4041d8:	bound  esp,QWORD PTR [edx+eiz*2+0x34]
  4041dc:	xor    esi,DWORD PTR [ebx]
  4041de:	xor    eax,0x65663039
  4041e3:	data16 cmp BYTE PTR [ecx+0x64],ah
  4041e7:	xor    eax,0x63333463
  4041ec:	bound  esp,QWORD PTR [ecx+0x38]
  4041ef:	xor    dh,BYTE PTR [edx]
  4041f1:	cmp    DWORD PTR [eax],esi
  4041f3:	arpl   WORD PTR fs:[ecx+edi*1],si
  4041f7:	xor    eax,0x66653033
  4041fc:	data16 cmp BYTE PTR fs:[esi],dh
  404200:	xor    eax,0x39643332
  404205:	xor    al,0x38
  404207:	xor    esp,DWORD PTR [ebx+0x30]
  40420a:	xor    BYTE PTR [esi+0x34],ah
  40420d:	xor    eax,0x34666138
  404212:	cmp    BYTE PTR ss:[ecx],bh
  404215:	xor    BYTE PTR [eax],dh
  404217:	xor    esi,DWORD PTR [esi]
  404219:	bound  esi,QWORD PTR [eax]
  40421b:	xor    ah,BYTE PTR gs:[ebx+0x36]
  40421f:	xor    DWORD PTR [eax+esi*1+0x37],esp
  404223:	aaa    
  404224:	fs aaa 
  404226:	bound  sp,DWORD PTR [ecx+0x63]
  40422a:	xor    al,0x36
  40422c:	aaa    
  40422d:	popa   
  40422e:	xor    eax,0x62653630
  404233:	popa   
  404234:	xor    bh,BYTE PTR [ecx]
  404236:	gs xor al,0x36
  404239:	aaa    
  40423a:	popa   
  40423b:	cmp    BYTE PTR [edi],dh
  40423d:	xor    DWORD PTR [ecx],edi
  40423f:	cmp    BYTE PTR [edx+0x30],ah
  404242:	xor    eax,0x34376333
  404247:	cmp    DWORD PTR [ecx+0x61],esp
  40424a:	xor    ah,BYTE PTR [ecx+0x34]
  40424d:	xor    bh,BYTE PTR fs:[eax]
  404250:	xor    al,0x30
  404252:	arpl   WORD PTR [edi],si
  404254:	cmp    BYTE PTR [eiz*2+0x6436],dh
  40425b:	push   ds
  40425c:	add    DWORD PTR [eax],eax
  40425e:	add    DWORD PTR [eax],eax
  404260:	push   esp
  404261:	add    dl,BYTE PTR [esi]
  404263:	push   edi
  404264:	jb     0x4042c7
  404266:	jo     0x4042b6
  404268:	outs   dx,DWORD PTR ds:[esi]
  404269:	outs   dx,BYTE PTR ds:[esi]
  40426a:	inc    ebp
  40426b:	js     0x4042d0
  40426d:	gs jo  0x4042e4
  404270:	imul   ebp,DWORD PTR [edi+0x6e],0x6f726854
  404277:	ja     0x4042ec
  404279:	add    DWORD PTR [eax],ecx
  40427b:	add    DWORD PTR [eax],eax
  40427d:	add    al,BYTE PTR [eax]
  40427f:	add    BYTE PTR [eax],al
  404281:	add    BYTE PTR [eax],al
  404283:	or     BYTE PTR [ecx],al
  404285:	add    BYTE PTR [eax],cl
	...
  40428f:	add    BYTE PTR [eax],dl
  404291:	in     al,0x11
  404293:	push   eax
  404294:	add    BYTE PTR [eax],al
  404296:	add    BYTE PTR [eax],al
  404298:	add    al,BYTE PTR [eax]
  40429a:	add    BYTE PTR [eax],al
  40429c:	sbb    al,0x1
  40429e:	add    BYTE PTR [eax],al
  4042a0:	test   al,0x42
  4042a2:	add    BYTE PTR [eax],al
  4042a4:	test   al,0x24
  4042a6:	add    BYTE PTR [eax],al
  4042a8:	push   edx
  4042a9:	push   ebx
  4042aa:	inc    esp
  4042ab:	push   ebx
  4042ac:	idiv   BYTE PTR [edx]
  4042ae:	xchg   ebx,eax
  4042af:	call   0x16bd:0x4287e70b
  4042b6:	adc    eax,0x1b3f3519
  4042bb:	xor    eax,0x1
  4042c0:	data16 cmp bl,BYTE PTR [edx+eiz*2+0x69]
  4042c5:	outs   dx,BYTE PTR ds:[esi]
  4042c6:	popa   
  4042c7:	jb     0x404332
  4042c9:	gs jae 0x404328
  4042cc:	dec    ecx
  4042cd:	outs   dx,BYTE PTR ds:[esi]
  4042ce:	je     0x404335
  4042d0:	jb     0x40433f
  4042d2:	gs imul esp,DWORD PTR fs:[ecx+0x74],0x73765c65
  4042db:	gs je  0x40433a
  4042de:	arpl   WORD PTR [edi+0x64],bp
  4042e1:	gs fs jne 0x40434e
  4042e5:	je     0x40434c
  4042e7:	jae    0x40435d
  4042e9:	bound  esi,QWORD PTR [ebp+0x69]
  4042ec:	ins    BYTE PTR es:[edi],dx
  4042ed:	fs gs jb 0x40431f
  4042f1:	arpl   WORD PTR [ebx+0x70],si
  4042f4:	jb     0x404365
  4042f6:	push   0x5f
  4042f8:	pop    edi
  4042f9:	aaa    
  4042fa:	xor    eax,0x34313734
  4042ff:	xor    BYTE PTR [eax],dh
  404301:	ss pop esp
  404303:	outs   dx,DWORD PTR ds:[esi]
  404304:	bound  ebp,QWORD PTR [edx+0x72]
  404307:	pop    esp
  404308:	js     0x404342
  40430a:	ss pop esp
  40430c:	inc    ebx
  40430d:	outs   dx,DWORD PTR ds:[esi]
  40430e:	fs gs fs push ebp
  404312:	dec    ecx
  404313:	push   esp
  404314:	gs jae 0x40438b
  404317:	inc    edx
  404318:	jne    0x404383
  40431a:	ins    BYTE PTR es:[edi],dx
  40431b:	fs gs jb 0x40434d
  40431f:	jo     0x404385
  404321:	bound  eax,QWORD PTR [eax]
	...
  4043c3:	add    ah,ch
  4043c5:	inc    ebx
	...
  4043ce:	add    BYTE PTR [eax],al
  4043d0:	push   cs
  4043d1:	inc    esp
  4043d2:	add    BYTE PTR [eax],al
  4043d4:	add    BYTE PTR [eax],ah
	...
  4043ea:	add    BYTE PTR [eax],al
  4043ec:	add    BYTE PTR [eax+eax*1+0x0],al
	...
  404400:	add    BYTE PTR [eax],al
  404402:	pop    edi
  404403:	inc    ebx
  404404:	outs   dx,DWORD PTR ds:[esi]
  404405:	jb     0x40444c
  404407:	js     0x40446e
  404409:	dec    ebp
  40440a:	popa   
  40440b:	imul   ebp,DWORD PTR [esi+0x0],0x6f63736d
  404412:	jb     0x404479
  404414:	gs cs fs ins BYTE PTR es:[edi],dx
  404418:	ins    BYTE PTR es:[edi],dx
  404419:	add    BYTE PTR [eax],al
  40441b:	add    BYTE PTR [eax],al
  40441d:	add    bh,bh
  40441f:	and    eax,0x402000
