
e9bc3322525acfe84afd7cfc27f07f6d18bd0a07ccff726d8fd5a4800c188f75.exe:     file format pei-i386


Disassembly of section .text:

00401000 <.text>:
  401000:	push   0x8
  401002:	call   0x4106b2
  401007:	mov    ecx,DWORD PTR ds:0x411c94
  40100d:	mov    ds:0x430194,eax
  401012:	push   0x410a40
  401017:	mov    DWORD PTR [eax],ecx
  401019:	mov    eax,ds:0x430194
  40101e:	mov    cl,BYTE PTR ds:0x411c98
  401024:	mov    BYTE PTR [eax+0x4],cl
  401027:	call   0x40e9e6
  40102c:	add    esp,0x8
  40102f:	ret    
  401030:	push   0x8
  401032:	call   0x4106b2
  401037:	mov    ecx,DWORD PTR ds:0x411c9c
  40103d:	mov    ds:0x430110,eax
  401042:	push   0x410a50
  401047:	mov    DWORD PTR [eax],ecx
  401049:	mov    eax,ds:0x430110
  40104e:	mov    cl,BYTE PTR ds:0x411ca0
  401054:	mov    BYTE PTR [eax+0x4],cl
  401057:	call   0x40e9e6
  40105c:	add    esp,0x8
  40105f:	ret    
  401060:	push   0x8
  401062:	call   0x4106b2
  401067:	mov    ecx,DWORD PTR ds:0x411ca4
  40106d:	mov    ds:0x430140,eax
  401072:	push   0x410a60
  401077:	mov    DWORD PTR [eax],ecx
  401079:	mov    eax,ds:0x430140
  40107e:	mov    cx,WORD PTR ds:0x411ca8
  401085:	mov    WORD PTR [eax+0x4],cx
  401089:	call   0x40e9e6
  40108e:	add    esp,0x8
  401091:	ret    
  401092:	int3   
  401093:	int3   
  401094:	int3   
  401095:	int3   
  401096:	int3   
  401097:	int3   
  401098:	int3   
  401099:	int3   
  40109a:	int3   
  40109b:	int3   
  40109c:	int3   
  40109d:	int3   
  40109e:	int3   
  40109f:	int3   
  4010a0:	push   0x8
  4010a2:	call   0x4106b2
  4010a7:	mov    ecx,DWORD PTR ds:0x411cac
  4010ad:	mov    ds:0x430134,eax
  4010b2:	push   0x410a70
  4010b7:	mov    DWORD PTR [eax],ecx
  4010b9:	mov    eax,ds:0x430134
  4010be:	mov    cx,WORD PTR ds:0x411cb0
  4010c5:	mov    WORD PTR [eax+0x4],cx
  4010c9:	call   0x40e9e6
  4010ce:	add    esp,0x8
  4010d1:	ret    
  4010d2:	int3   
  4010d3:	int3   
  4010d4:	int3   
  4010d5:	int3   
  4010d6:	int3   
  4010d7:	int3   
  4010d8:	int3   
  4010d9:	int3   
  4010da:	int3   
  4010db:	int3   
  4010dc:	int3   
  4010dd:	int3   
  4010de:	int3   
  4010df:	int3   
  4010e0:	push   0x8
  4010e2:	call   0x4106b2
  4010e7:	mov    ecx,DWORD PTR ds:0x411cb4
  4010ed:	mov    ds:0x430158,eax
  4010f2:	push   0x410a80
  4010f7:	mov    DWORD PTR [eax],ecx
  4010f9:	mov    eax,ds:0x430158
  4010fe:	mov    cx,WORD PTR ds:0x411cb8
  401105:	mov    WORD PTR [eax+0x4],cx
  401109:	call   0x40e9e6
  40110e:	add    esp,0x8
  401111:	ret    
  401112:	int3   
  401113:	int3   
  401114:	int3   
  401115:	int3   
  401116:	int3   
  401117:	int3   
  401118:	int3   
  401119:	int3   
  40111a:	int3   
  40111b:	int3   
  40111c:	int3   
  40111d:	int3   
  40111e:	int3   
  40111f:	int3   
  401120:	push   0x8
  401122:	call   0x4106b2
  401127:	mov    ecx,DWORD PTR ds:0x411cbc
  40112d:	mov    ds:0x4300f8,eax
  401132:	push   0x410a90
  401137:	mov    DWORD PTR [eax],ecx
  401139:	mov    eax,ds:0x4300f8
  40113e:	mov    cx,WORD PTR ds:0x411cc0
  401145:	mov    WORD PTR [eax+0x4],cx
  401149:	call   0x40e9e6
  40114e:	add    esp,0x8
  401151:	ret    
  401152:	int3   
  401153:	int3   
  401154:	int3   
  401155:	int3   
  401156:	int3   
  401157:	int3   
  401158:	int3   
  401159:	int3   
  40115a:	int3   
  40115b:	int3   
  40115c:	int3   
  40115d:	int3   
  40115e:	int3   
  40115f:	int3   
  401160:	push   0x8
  401162:	call   0x4106b2
  401167:	mov    ecx,DWORD PTR ds:0x411cc4
  40116d:	mov    ds:0x4301b8,eax
  401172:	push   0x410aa0
  401177:	mov    DWORD PTR [eax],ecx
  401179:	mov    eax,ds:0x4301b8
  40117e:	mov    cx,WORD PTR ds:0x411cc8
  401185:	mov    WORD PTR [eax+0x4],cx
  401189:	mov    eax,ds:0x4301b8
  40118e:	mov    cl,BYTE PTR ds:0x411cca
  401194:	mov    BYTE PTR [eax+0x6],cl
  401197:	call   0x40e9e6
  40119c:	add    esp,0x8
  40119f:	ret    
  4011a0:	push   0x8
  4011a2:	call   0x4106b2
  4011a7:	mov    ecx,DWORD PTR ds:0x411ccc
  4011ad:	mov    ds:0x430128,eax
  4011b2:	push   0x410ab0
  4011b7:	mov    DWORD PTR [eax],ecx
  4011b9:	mov    eax,ds:0x430128
  4011be:	mov    cx,WORD PTR ds:0x411cd0
  4011c5:	mov    WORD PTR [eax+0x4],cx
  4011c9:	mov    eax,ds:0x430128
  4011ce:	mov    cl,BYTE PTR ds:0x411cd2
  4011d4:	mov    BYTE PTR [eax+0x6],cl
  4011d7:	call   0x40e9e6
  4011dc:	add    esp,0x8
  4011df:	ret    
  4011e0:	push   0x8
  4011e2:	call   0x4106b2
  4011e7:	mov    ecx,DWORD PTR ds:0x411cd4
  4011ed:	mov    ds:0x4301a0,eax
  4011f2:	push   0x410ac0
  4011f7:	mov    DWORD PTR [eax],ecx
  4011f9:	mov    eax,ds:0x4301a0
  4011fe:	mov    cx,WORD PTR ds:0x411cd8
  401205:	mov    WORD PTR [eax+0x4],cx
  401209:	mov    eax,ds:0x4301a0
  40120e:	mov    cl,BYTE PTR ds:0x411cda
  401214:	mov    BYTE PTR [eax+0x6],cl
  401217:	call   0x40e9e6
  40121c:	add    esp,0x8
  40121f:	ret    
  401220:	push   0x8
  401222:	call   0x4106b2
  401227:	movq   xmm0,QWORD PTR ds:0x411cdc
  40122f:	mov    ds:0x43014c,eax
  401234:	push   0x410ad0
  401239:	movq   QWORD PTR [eax],xmm0
  40123d:	call   0x40e9e6
  401242:	add    esp,0x8
  401245:	ret    
  401246:	int3   
  401247:	int3   
  401248:	int3   
  401249:	int3   
  40124a:	int3   
  40124b:	int3   
  40124c:	int3   
  40124d:	int3   
  40124e:	int3   
  40124f:	int3   
  401250:	push   0x8
  401252:	call   0x4106b2
  401257:	movq   xmm0,QWORD PTR ds:0x411ce4
  40125f:	mov    ds:0x43017c,eax
  401264:	push   0x410ae0
  401269:	movq   QWORD PTR [eax],xmm0
  40126d:	call   0x40e9e6
  401272:	add    esp,0x8
  401275:	ret    
  401276:	int3   
  401277:	int3   
  401278:	int3   
  401279:	int3   
  40127a:	int3   
  40127b:	int3   
  40127c:	int3   
  40127d:	int3   
  40127e:	int3   
  40127f:	int3   
  401280:	push   0x8
  401282:	call   0x4106b2
  401287:	mov    ecx,DWORD PTR ds:0x411cec
  40128d:	mov    ds:0x43011c,eax
  401292:	push   0x410af0
  401297:	mov    DWORD PTR [eax],ecx
  401299:	mov    eax,ds:0x43011c
  40129e:	mov    cl,BYTE PTR ds:0x411cf0
  4012a4:	mov    BYTE PTR [eax+0x4],cl
  4012a7:	call   0x40e9e6
  4012ac:	add    esp,0x8
  4012af:	ret    
  4012b0:	push   0x8
  4012b2:	call   0x4106b2
  4012b7:	mov    ecx,DWORD PTR ds:0x411cf4
  4012bd:	mov    ds:0x430164,eax
  4012c2:	push   0x410b00
  4012c7:	mov    DWORD PTR [eax],ecx
  4012c9:	mov    eax,ds:0x430164
  4012ce:	mov    cx,WORD PTR ds:0x411cf8
  4012d5:	mov    WORD PTR [eax+0x4],cx
  4012d9:	mov    eax,ds:0x430164
  4012de:	mov    cl,BYTE PTR ds:0x411cfa
  4012e4:	mov    BYTE PTR [eax+0x6],cl
  4012e7:	call   0x40e9e6
  4012ec:	add    esp,0x8
  4012ef:	ret    
  4012f0:	push   0x8
  4012f2:	call   0x4106b2
  4012f7:	movq   xmm0,QWORD PTR ds:0x411cfc
  4012ff:	mov    ds:0x430104,eax
  401304:	push   0x410b10
  401309:	movq   QWORD PTR [eax],xmm0
  40130d:	call   0x40e9e6
  401312:	add    esp,0x8
  401315:	ret    
  401316:	int3   
  401317:	int3   
  401318:	int3   
  401319:	int3   
  40131a:	int3   
  40131b:	int3   
  40131c:	int3   
  40131d:	int3   
  40131e:	int3   
  40131f:	int3   
  401320:	push   0xa
  401322:	call   0x4106b2
  401327:	movq   xmm0,QWORD PTR ds:0x411d04
  40132f:	mov    ds:0x4301ac,eax
  401334:	push   0x410b20
  401339:	movq   QWORD PTR [eax],xmm0
  40133d:	mov    eax,ds:0x4301ac
  401342:	mov    cx,WORD PTR ds:0x411d0c
  401349:	mov    WORD PTR [eax+0x8],cx
  40134d:	call   0x40e9e6
  401352:	add    esp,0x8
  401355:	ret    
  401356:	int3   
  401357:	int3   
  401358:	int3   
  401359:	int3   
  40135a:	int3   
  40135b:	int3   
  40135c:	int3   
  40135d:	int3   
  40135e:	int3   
  40135f:	int3   
  401360:	push   0x9
  401362:	call   0x4106b2
  401367:	movq   xmm0,QWORD PTR ds:0x411d10
  40136f:	mov    ds:0x4301d0,eax
  401374:	push   0x410b30
  401379:	movq   QWORD PTR [eax],xmm0
  40137d:	mov    eax,ds:0x4301d0
  401382:	mov    cl,BYTE PTR ds:0x411d18
  401388:	mov    BYTE PTR [eax+0x8],cl
  40138b:	call   0x40e9e6
  401390:	add    esp,0x8
  401393:	ret    
  401394:	int3   
  401395:	int3   
  401396:	int3   
  401397:	int3   
  401398:	int3   
  401399:	int3   
  40139a:	int3   
  40139b:	int3   
  40139c:	int3   
  40139d:	int3   
  40139e:	int3   
  40139f:	int3   
  4013a0:	push   0x8
  4013a2:	call   0x4106b2
  4013a7:	mov    ecx,DWORD PTR ds:0x411d1c
  4013ad:	mov    ds:0x430170,eax
  4013b2:	push   0x410b40
  4013b7:	mov    DWORD PTR [eax],ecx
  4013b9:	call   0x40e9e6
  4013be:	add    esp,0x8
  4013c1:	ret    
  4013c2:	int3   
  4013c3:	int3   
  4013c4:	int3   
  4013c5:	int3   
  4013c6:	int3   
  4013c7:	int3   
  4013c8:	int3   
  4013c9:	int3   
  4013ca:	int3   
  4013cb:	int3   
  4013cc:	int3   
  4013cd:	int3   
  4013ce:	int3   
  4013cf:	int3   
  4013d0:	push   0x8
  4013d2:	call   0x4106b2
  4013d7:	mov    ecx,DWORD PTR ds:0x411cf4
  4013dd:	mov    ds:0x430188,eax
  4013e2:	push   0x410b50
  4013e7:	mov    DWORD PTR [eax],ecx
  4013e9:	mov    eax,ds:0x430188
  4013ee:	mov    cx,WORD PTR ds:0x411cf8
  4013f5:	mov    WORD PTR [eax+0x4],cx
  4013f9:	mov    eax,ds:0x430188
  4013fe:	mov    cl,BYTE PTR ds:0x411cfa
  401404:	mov    BYTE PTR [eax+0x6],cl
  401407:	call   0x40e9e6
  40140c:	add    esp,0x8
  40140f:	ret    
  401410:	push   0x8
  401412:	call   0x4106b2
  401417:	movq   xmm0,QWORD PTR ds:0x411cfc
  40141f:	mov    ds:0x4301c4,eax
  401424:	push   0x410b60
  401429:	movq   QWORD PTR [eax],xmm0
  40142d:	call   0x40e9e6
  401432:	add    esp,0x8
  401435:	ret    
  401436:	int3   
  401437:	int3   
  401438:	int3   
  401439:	int3   
  40143a:	int3   
  40143b:	int3   
  40143c:	int3   
  40143d:	int3   
  40143e:	int3   
  40143f:	int3   
  401440:	push   0x8
  401442:	call   0x4106b2
  401447:	mov    cl,BYTE PTR ds:0x411d43
  40144d:	mov    ds:0x4300ec,eax
  401452:	push   0x410b70
  401457:	mov    BYTE PTR [eax],cl
  401459:	call   0x40e9e6
  40145e:	add    esp,0x8
  401461:	ret    
  401462:	int3   
  401463:	int3   
  401464:	int3   
  401465:	int3   
  401466:	int3   
  401467:	int3   
  401468:	int3   
  401469:	int3   
  40146a:	int3   
  40146b:	int3   
  40146c:	int3   
  40146d:	int3   
  40146e:	int3   
  40146f:	int3   
  401470:	mov    eax,ds:0x430894
  401475:	mov    DWORD PTR ds:0x4308a0,0xffffd8f0
  40147f:	sub    eax,0x2
  401482:	jne    0x40148e
  401484:	mov    DWORD PTR ds:0x4308a0,0xfff0b9d8
  40148e:	ret    
  40148f:	int3   
  401490:	jmp    0x403650
  401495:	int3   
  401496:	int3   
  401497:	int3   
  401498:	add    esi,DWORD PTR [eax]
  40149a:	add    DWORD PTR [eax],eax
  40149c:	pop    es
  40149d:	add    BYTE PTR [eax],al
  40149f:	add    BYTE PTR [eax],al
  4014a1:	add    BYTE PTR [eax],al
  4014a3:	add    BYTE PTR [esi],dl
  4014a5:	sub    ah,0x0
  4014a8:	add    BYTE PTR [edx+ebp*1],al
  4014ab:	int3   
  4014ac:	add    esi,DWORD PTR [eax]
  4014ae:	add    DWORD PTR [eax],eax
  4014b0:	pop    es
  4014b1:	add    BYTE PTR [eax],al
  4014b3:	add    BYTE PTR [eax],al
  4014b5:	add    BYTE PTR [eax],al
  4014b7:	add    BYTE PTR [esi],dl
  4014b9:	and    dh,0x0
  4014bc:	add    BYTE PTR [edx+ebp*1],al
  4014bf:	int3   
  4014c0:	add    esi,DWORD PTR [eax]
  4014c2:	add    DWORD PTR [eax],eax
  4014c4:	pop    es
  4014c5:	add    BYTE PTR [eax],al
  4014c7:	add    BYTE PTR [eax],al
  4014c9:	add    BYTE PTR [eax],al
  4014cb:	add    BYTE PTR [esi],dl
  4014cd:	sub    bh,0x0
  4014d0:	add    BYTE PTR [edx+ebp*1],al
  4014d3:	int3   
  4014d4:	add    esi,DWORD PTR [eax]
  4014d6:	add    DWORD PTR [eax],eax
  4014d8:	pop    es
  4014d9:	add    BYTE PTR [eax],al
  4014db:	add    BYTE PTR [eax],al
  4014dd:	add    BYTE PTR [eax],al
  4014df:	add    BYTE PTR [esi],dl
  4014e1:	xor    al,0x0
  4014e4:	add    BYTE PTR [edx+ebp*1],al
  4014e7:	int3   
  4014e8:	add    esi,DWORD PTR [eax]
  4014ea:	add    DWORD PTR [eax],eax
  4014ec:	pop    es
  4014ed:	add    BYTE PTR [eax],al
  4014ef:	add    BYTE PTR [eax],al
  4014f1:	add    BYTE PTR [eax],al
  4014f3:	add    BYTE PTR [esi],dl
  4014f5:	sub    ch,0x0
  4014f8:	add    BYTE PTR [edx+ebp*1],al
  4014fb:	int3   
  4014fc:	add    esi,DWORD PTR [eax]
  4014fe:	add    DWORD PTR [eax],eax
  401500:	pop    es
  401501:	add    BYTE PTR [eax],al
  401503:	add    BYTE PTR [eax],al
  401505:	add    BYTE PTR [eax],al
  401507:	add    BYTE PTR [esi],dl
  401509:	and    cl,0x0
  40150c:	add    BYTE PTR [edx+ebp*1],al
  40150f:	int3   
  401510:	add    esi,DWORD PTR [eax]
  401512:	add    DWORD PTR [eax],eax
  401514:	pop    es
  401515:	add    BYTE PTR [eax],al
  401517:	add    BYTE PTR [eax],al
  401519:	add    BYTE PTR [eax],al
  40151b:	add    BYTE PTR [esi],dl
  40151d:	and    bh,0x0
  401520:	add    BYTE PTR [edx+ebp*1],al
  401523:	push   0x410b7d
  401528:	call   0x40e9e6
  40152d:	pop    ecx
  40152e:	ret    
  40152f:	int3   
  401530:	push   esi
  401531:	mov    esi,DWORD PTR [esp+0x8]
  401535:	push   edi
  401536:	mov    edi,ecx
  401538:	cmp    DWORD PTR [esi+0x14],0x10
  40153c:	jae    0x401554
  40153e:	mov    eax,DWORD PTR [esi+0x10]
  401541:	add    eax,0x1
  401544:	je     0x401562
  401546:	push   eax
  401547:	push   esi
  401548:	push   edi
  401549:	call   DWORD PTR ds:0x4112b0
  40154f:	add    esp,0xc
  401552:	jmp    0x401562
  401554:	test   edi,edi
  401556:	je     0x40155c
  401558:	mov    eax,DWORD PTR [esi]
  40155a:	mov    DWORD PTR [edi],eax
  40155c:	mov    DWORD PTR [esi],0x0
  401562:	mov    eax,DWORD PTR [esi+0x10]
  401565:	mov    DWORD PTR [edi+0x10],eax
  401568:	mov    eax,DWORD PTR [esi+0x14]
  40156b:	mov    DWORD PTR [edi+0x14],eax
  40156e:	mov    DWORD PTR [esi+0x14],0xf
  401575:	cmp    DWORD PTR [esi+0x14],0x10
  401579:	mov    DWORD PTR [esi+0x10],0x0
  401580:	jb     0x40158c
  401582:	mov    eax,DWORD PTR [esi]
  401584:	pop    edi
  401585:	pop    esi
  401586:	mov    BYTE PTR [eax],0x0
  401589:	ret    0x4
  40158c:	pop    edi
  40158d:	mov    BYTE PTR [esi],0x0
  401590:	pop    esi
  401591:	ret    0x4
  401594:	int3   
  401595:	int3   
  401596:	int3   
  401597:	int3   
  401598:	int3   
  401599:	int3   
  40159a:	int3   
  40159b:	int3   
  40159c:	int3   
  40159d:	int3   
  40159e:	int3   
  40159f:	int3   
  4015a0:	mov    ecx,DWORD PTR [ecx+0x4]
  4015a3:	mov    eax,0x411c58
  4015a8:	test   ecx,ecx
  4015aa:	cmovne eax,ecx
  4015ad:	ret    
  4015ae:	int3   
  4015af:	int3   
  4015b0:	push   esi
  4015b1:	mov    esi,ecx
  4015b3:	xorps  xmm0,xmm0
  4015b6:	lea    eax,[esi+0x4]
  4015b9:	push   eax
  4015ba:	mov    DWORD PTR [esi],0x430004
  4015c0:	movq   QWORD PTR [eax],xmm0
  4015c4:	mov    eax,DWORD PTR [esp+0xc]
  4015c8:	add    eax,0x4
  4015cb:	push   eax
  4015cc:	call   DWORD PTR ds:0x411290
  4015d2:	add    esp,0x8
  4015d5:	mov    eax,esi
  4015d7:	pop    esi
  4015d8:	ret    0x4
  4015db:	int3   
  4015dc:	int3   
  4015dd:	int3   
  4015de:	int3   
  4015df:	int3   
  4015e0:	push   ebx
  4015e1:	mov    ebx,DWORD PTR [esp+0x8]
  4015e5:	push   esi
  4015e6:	mov    esi,ecx
  4015e8:	test   ebx,ebx
  4015ea:	je     0x401643
  4015ec:	mov    ecx,DWORD PTR [esi+0x14]
  4015ef:	cmp    ecx,0x10
  4015f2:	jb     0x4015f8
  4015f4:	mov    eax,DWORD PTR [esi]
  4015f6:	jmp    0x4015fa
  4015f8:	mov    eax,esi
  4015fa:	cmp    ebx,eax
  4015fc:	jb     0x401643
  4015fe:	cmp    ecx,0x10
  401601:	jb     0x401607
  401603:	mov    edx,DWORD PTR [esi]
  401605:	jmp    0x401609
  401607:	mov    edx,esi
  401609:	mov    eax,DWORD PTR [esi+0x10]
  40160c:	add    eax,edx
  40160e:	cmp    eax,ebx
  401610:	jbe    0x401643
  401612:	cmp    ecx,0x10
  401615:	jb     0x40162d
  401617:	push   DWORD PTR [esp+0x10]
  40161b:	mov    eax,DWORD PTR [esi]
  40161d:	mov    ecx,esi
  40161f:	sub    ebx,eax
  401621:	push   ebx
  401622:	push   esi
  401623:	call   0x4019d0
  401628:	pop    esi
  401629:	pop    ebx
  40162a:	ret    0x8
  40162d:	push   DWORD PTR [esp+0x10]
  401631:	mov    eax,esi
  401633:	mov    ecx,esi
  401635:	sub    ebx,eax
  401637:	push   ebx
  401638:	push   esi
  401639:	call   0x4019d0
  40163e:	pop    esi
  40163f:	pop    ebx
  401640:	ret    0x8
  401643:	push   edi
  401644:	mov    edi,DWORD PTR [esp+0x14]
  401648:	cmp    edi,0xfffffffe
  40164b:	jbe    0x401658
  40164d:	push   0x411c84
  401652:	call   DWORD PTR ds:0x411258
  401658:	cmp    DWORD PTR [esi+0x14],edi
  40165b:	jae    0x401676
  40165d:	push   DWORD PTR [esi+0x10]
  401660:	mov    ecx,esi
  401662:	push   edi
  401663:	call   0x401820
  401668:	test   edi,edi
  40166a:	je     0x4016c9
  40166c:	cmp    DWORD PTR [esi+0x14],0x10
  401670:	jb     0x40169b
  401672:	mov    eax,DWORD PTR [esi]
  401674:	jmp    0x40169d
  401676:	test   edi,edi
  401678:	jne    0x40166c
  40167a:	cmp    DWORD PTR [esi+0x14],0x10
  40167e:	mov    DWORD PTR [esi+0x10],edi
  401681:	jb     0x401690
  401683:	mov    eax,DWORD PTR [esi]
  401685:	pop    edi
  401686:	mov    BYTE PTR [eax],0x0
  401689:	mov    eax,esi
  40168b:	pop    esi
  40168c:	pop    ebx
  40168d:	ret    0x8
  401690:	mov    eax,esi
  401692:	pop    edi
  401693:	pop    esi
  401694:	pop    ebx
  401695:	mov    BYTE PTR [eax],0x0
  401698:	ret    0x8
  40169b:	mov    eax,esi
  40169d:	test   edi,edi
  40169f:	je     0x4016ac
  4016a1:	push   edi
  4016a2:	push   ebx
  4016a3:	push   eax
  4016a4:	call   0x410952
  4016a9:	add    esp,0xc
  4016ac:	cmp    DWORD PTR [esi+0x14],0x10
  4016b0:	mov    DWORD PTR [esi+0x10],edi
  4016b3:	jb     0x4016c3
  4016b5:	mov    eax,DWORD PTR [esi]
  4016b7:	mov    BYTE PTR [eax+edi*1],0x0
  4016bb:	mov    eax,esi
  4016bd:	pop    edi
  4016be:	pop    esi
  4016bf:	pop    ebx
  4016c0:	ret    0x8
  4016c3:	mov    eax,esi
  4016c5:	mov    BYTE PTR [eax+edi*1],0x0
  4016c9:	pop    edi
  4016ca:	mov    eax,esi
  4016cc:	pop    esi
  4016cd:	pop    ebx
  4016ce:	ret    0x8
  4016d1:	int3   
  4016d2:	int3   
  4016d3:	int3   
  4016d4:	int3   
  4016d5:	int3   
  4016d6:	int3   
  4016d7:	int3   
  4016d8:	int3   
  4016d9:	int3   
  4016da:	int3   
  4016db:	int3   
  4016dc:	int3   
  4016dd:	int3   
  4016de:	int3   
  4016df:	int3   
  4016e0:	mov    eax,0x430830
  4016e5:	ret    
  4016e6:	int3   
  4016e7:	int3   
  4016e8:	int3   
  4016e9:	int3   
  4016ea:	int3   
  4016eb:	int3   
  4016ec:	int3   
  4016ed:	int3   
  4016ee:	int3   
  4016ef:	int3   
  4016f0:	lea    eax,[esp+0xc]
  4016f4:	push   eax
  4016f5:	push   0x0
  4016f7:	push   DWORD PTR [esp+0x10]
  4016fb:	push   0xffffffff
  4016fd:	push   DWORD PTR [esp+0x14]
  401701:	call   0x4016e0
  401706:	mov    ecx,DWORD PTR [eax]
  401708:	push   DWORD PTR [eax+0x4]
  40170b:	or     ecx,0x1
  40170e:	push   ecx
  40170f:	call   DWORD PTR ds:0x41133c
  401715:	or     ecx,0xffffffff
  401718:	add    esp,0x1c
  40171b:	test   eax,eax
  40171d:	cmovs  eax,ecx
  401720:	ret    
  401721:	int3   
  401722:	int3   
  401723:	int3   
  401724:	int3   
  401725:	int3   
  401726:	int3   
  401727:	int3   
  401728:	int3   
  401729:	int3   
  40172a:	int3   
  40172b:	int3   
  40172c:	int3   
  40172d:	int3   
  40172e:	int3   
  40172f:	int3   
  401730:	push   esi
  401731:	mov    esi,ecx
  401733:	mov    ecx,DWORD PTR [esp+0x8]
  401737:	push   edi
  401738:	mov    edi,DWORD PTR [esi+0x10]
  40173b:	cmp    edi,ecx
  40173d:	jae    0x40174a
  40173f:	push   0x411c6c
  401744:	call   DWORD PTR ds:0x41125c
  40174a:	mov    edx,DWORD PTR [esp+0x10]
  40174e:	mov    eax,edi
  401750:	sub    eax,ecx
  401752:	cmp    eax,edx
  401754:	ja     0x401777
  401756:	mov    DWORD PTR [esi+0x10],ecx
  401759:	cmp    DWORD PTR [esi+0x14],0x10
  40175d:	jb     0x40176c
  40175f:	mov    eax,DWORD PTR [esi]
  401761:	pop    edi
  401762:	mov    BYTE PTR [eax+ecx*1],0x0
  401766:	mov    eax,esi
  401768:	pop    esi
  401769:	ret    0x8
  40176c:	mov    eax,esi
  40176e:	pop    edi
  40176f:	pop    esi
  401770:	mov    BYTE PTR [eax+ecx*1],0x0
  401774:	ret    0x8
  401777:	test   edx,edx
  401779:	je     0x4017bf
  40177b:	cmp    DWORD PTR [esi+0x14],0x10
  40177f:	jb     0x401785
  401781:	mov    eax,DWORD PTR [esi]
  401783:	jmp    0x401787
  401785:	mov    eax,esi
  401787:	sub    edi,edx
  401789:	push   ebx
  40178a:	lea    ebx,[eax+ecx*1]
  40178d:	mov    eax,edi
  40178f:	sub    eax,ecx
  401791:	je     0x4017a2
  401793:	push   eax
  401794:	lea    eax,[ebx+edx*1]
  401797:	push   eax
  401798:	push   ebx
  401799:	call   DWORD PTR ds:0x4112b0
  40179f:	add    esp,0xc
  4017a2:	cmp    DWORD PTR [esi+0x14],0x10
  4017a6:	mov    DWORD PTR [esi+0x10],edi
  4017a9:	pop    ebx
  4017aa:	jb     0x4017b9
  4017ac:	mov    eax,DWORD PTR [esi]
  4017ae:	mov    BYTE PTR [eax+edi*1],0x0
  4017b2:	mov    eax,esi
  4017b4:	pop    edi
  4017b5:	pop    esi
  4017b6:	ret    0x8
  4017b9:	mov    eax,esi
  4017bb:	mov    BYTE PTR [eax+edi*1],0x0
  4017bf:	pop    edi
  4017c0:	mov    eax,esi
  4017c2:	pop    esi
  4017c3:	ret    0x8
  4017c6:	int3   
  4017c7:	int3   
  4017c8:	int3   
  4017c9:	int3   
  4017ca:	int3   
  4017cb:	int3   
  4017cc:	int3   
  4017cd:	int3   
  4017ce:	int3   
  4017cf:	int3   
  4017d0:	mov    eax,DWORD PTR [esp+0x4]
  4017d4:	test   eax,eax
  4017d6:	jne    0x4017df
  4017d8:	xor    ecx,ecx
  4017da:	mov    eax,ecx
  4017dc:	ret    0x4
  4017df:	cmp    eax,0x1000
  4017e4:	jb     0x40180a
  4017e6:	lea    ecx,[eax+0x23]
  4017e9:	cmp    ecx,eax
  4017eb:	ja     0x4017f3
  4017ed:	call   DWORD PTR ds:0x411254
  4017f3:	push   ecx
  4017f4:	call   0x40e6cf
  4017f9:	add    esp,0x4
  4017fc:	lea    ecx,[eax+0x23]
  4017ff:	and    ecx,0xffffffe0
  401802:	mov    DWORD PTR [ecx-0x4],eax
  401805:	mov    eax,ecx
  401807:	ret    0x4
  40180a:	push   eax
  40180b:	call   0x40e6cf
  401810:	add    esp,0x4
  401813:	mov    ecx,eax
  401815:	ret    0x4
  401818:	int3   
  401819:	int3   
  40181a:	int3   
  40181b:	int3   
  40181c:	int3   
  40181d:	int3   
  40181e:	int3   
  40181f:	int3   
  401820:	push   ebp
  401821:	mov    ebp,esp
  401823:	push   0xffffffff
  401825:	push   0x410970
  40182a:	mov    eax,fs:0x0
  401830:	push   eax
  401831:	mov    DWORD PTR fs:0x0,esp
  401838:	sub    esp,0xc
  40183b:	mov    eax,DWORD PTR [ebp+0x8]
  40183e:	push   ebx
  40183f:	push   esi
  401840:	push   edi
  401841:	mov    edi,eax
  401843:	mov    DWORD PTR [ebp-0x10],esp
  401846:	or     edi,0xf
  401849:	mov    esi,ecx
  40184b:	mov    DWORD PTR [ebp-0x14],esi
  40184e:	cmp    edi,0xfffffffe
  401851:	jbe    0x401857
  401853:	mov    edi,eax
  401855:	jmp    0x40187e
  401857:	mov    ebx,DWORD PTR [esi+0x14]
  40185a:	mov    eax,0xaaaaaaab
  40185f:	mul    edi
  401861:	mov    ecx,ebx
  401863:	shr    ecx,1
  401865:	shr    edx,1
  401867:	cmp    ecx,edx
  401869:	jbe    0x40187e
  40186b:	mov    eax,0xfffffffe
  401870:	lea    edi,[ecx+ebx*1]
  401873:	sub    eax,ecx
  401875:	cmp    ebx,eax
  401877:	jbe    0x40187e
  401879:	mov    edi,0xfffffffe
  40187e:	lea    eax,[edi+0x1]
  401881:	mov    DWORD PTR [ebp-0x4],0x0
  401888:	test   eax,eax
  40188a:	jne    0x401890
  40188c:	xor    ebx,ebx
  40188e:	jmp    0x4018eb
  401890:	cmp    eax,0x1000
  401895:	jb     0x4018b8
  401897:	lea    ecx,[eax+0x23]
  40189a:	cmp    ecx,eax
  40189c:	ja     0x4018a4
  40189e:	call   DWORD PTR ds:0x411254
  4018a4:	push   ecx
  4018a5:	call   0x40e6cf
  4018aa:	add    esp,0x4
  4018ad:	lea    ebx,[eax+0x23]
  4018b0:	and    ebx,0xffffffe0
  4018b3:	mov    DWORD PTR [ebx-0x4],eax
  4018b6:	jmp    0x4018eb
  4018b8:	push   eax
  4018b9:	call   0x40e6cf
  4018be:	add    esp,0x4
  4018c1:	mov    ebx,eax
  4018c3:	jmp    0x4018eb
  4018c5:	mov    eax,DWORD PTR [ebp+0x8]
  4018c8:	mov    DWORD PTR [ebp+0x8],eax
  4018cb:	inc    eax
  4018cc:	mov    DWORD PTR [ebp-0x10],esp
  4018cf:	push   eax
  4018d0:	mov    BYTE PTR [ebp-0x4],0x2
  4018d4:	call   0x4017d0
  4018d9:	mov    DWORD PTR [ebp-0x18],eax
  4018dc:	mov    eax,0x4018e2
  4018e1:	ret    
  4018e2:	mov    esi,DWORD PTR [ebp-0x14]
  4018e5:	mov    edi,DWORD PTR [ebp+0x8]
  4018e8:	mov    ebx,DWORD PTR [ebp-0x18]
  4018eb:	mov    eax,DWORD PTR [ebp+0xc]
  4018ee:	test   eax,eax
  4018f0:	je     0x40190d
  4018f2:	cmp    DWORD PTR [esi+0x14],0x10
  4018f6:	jb     0x4018fc
  4018f8:	mov    ecx,DWORD PTR [esi]
  4018fa:	jmp    0x4018fe
  4018fc:	mov    ecx,esi
  4018fe:	test   eax,eax
  401900:	je     0x40190d
  401902:	push   eax
  401903:	push   ecx
  401904:	push   ebx
  401905:	call   0x410952
  40190a:	add    esp,0xc
  40190d:	mov    eax,DWORD PTR [esi+0x14]
  401910:	cmp    eax,0x10
  401913:	jb     0x40195a
  401915:	mov    ecx,DWORD PTR [esi]
  401917:	inc    eax
  401918:	cmp    eax,0x1000
  40191d:	jb     0x401951
  40191f:	test   cl,0x1f
  401922:	je     0x40192a
  401924:	call   DWORD PTR ds:0x41130c
  40192a:	mov    eax,DWORD PTR [ecx-0x4]
  40192d:	cmp    eax,ecx
  40192f:	jb     0x401937
  401931:	call   DWORD PTR ds:0x41130c
  401937:	sub    ecx,eax
  401939:	cmp    ecx,0x4
  40193c:	jae    0x401944
  40193e:	call   DWORD PTR ds:0x41130c
  401944:	cmp    ecx,0x23
  401947:	jbe    0x40194f
  401949:	call   DWORD PTR ds:0x41130c
  40194f:	mov    ecx,eax
  401951:	push   ecx
  401952:	call   0x40e6ca
  401957:	add    esp,0x4
  40195a:	mov    DWORD PTR [esi+0x14],0xf
  401961:	cmp    DWORD PTR [esi+0x14],0x10
  401965:	mov    DWORD PTR [esi+0x10],0x0
  40196c:	jb     0x401972
  40196e:	mov    eax,DWORD PTR [esi]
  401970:	jmp    0x401974
  401972:	mov    eax,esi
  401974:	mov    BYTE PTR [eax],0x0
  401977:	mov    eax,DWORD PTR [ebp+0xc]
  40197a:	mov    DWORD PTR [esi],ebx
  40197c:	mov    DWORD PTR [esi+0x14],edi
  40197f:	cmp    DWORD PTR [esi+0x14],0x10
  401983:	mov    DWORD PTR [esi+0x10],eax
  401986:	jb     0x40198a
  401988:	mov    esi,ebx
  40198a:	mov    ecx,DWORD PTR [ebp-0xc]
  40198d:	pop    edi
  40198e:	mov    BYTE PTR [esi+eax*1],0x0
  401992:	pop    esi
  401993:	mov    DWORD PTR fs:0x0,ecx
  40199a:	pop    ebx
  40199b:	mov    esp,ebp
  40199d:	pop    ebp
  40199e:	ret    0x8
  4019a1:	mov    ecx,DWORD PTR [ebp-0x14]
  4019a4:	push   0x0
  4019a6:	push   0x1
  4019a8:	call   0x401b40
  4019ad:	push   0x0
  4019af:	push   0x0
  4019b1:	call   0x41036c
  4019b6:	int3   
  4019b7:	int3   
  4019b8:	int3   
  4019b9:	int3   
  4019ba:	int3   
  4019bb:	int3   
  4019bc:	int3   
  4019bd:	int3   
  4019be:	int3   
  4019bf:	int3   
  4019c0:	cmp    DWORD PTR [ecx+0x14],0x10
  4019c4:	jb     0x4019c9
  4019c6:	mov    eax,DWORD PTR [ecx]
  4019c8:	ret    
  4019c9:	mov    eax,ecx
  4019cb:	ret    
  4019cc:	int3   
  4019cd:	int3   
  4019ce:	int3   
  4019cf:	int3   
  4019d0:	push   ebx
  4019d1:	mov    ebx,DWORD PTR [esp+0x8]
  4019d5:	push   ebp
  4019d6:	mov    ebp,DWORD PTR [esp+0x10]
  4019da:	push   esi
  4019db:	mov    eax,DWORD PTR [ebx+0x10]
  4019de:	mov    esi,ecx
  4019e0:	cmp    eax,ebp
  4019e2:	jae    0x4019ef
  4019e4:	push   0x411c6c
  4019e9:	call   DWORD PTR ds:0x41125c
  4019ef:	sub    eax,ebp
  4019f1:	push   edi
  4019f2:	mov    edi,DWORD PTR [esp+0x1c]
  4019f6:	cmp    edi,eax
  4019f8:	cmova  edi,eax
  4019fb:	cmp    esi,ebx
  4019fd:	jne    0x401a34
  4019ff:	lea    eax,[edi+ebp*1]
  401a02:	cmp    DWORD PTR [esi+0x10],eax
  401a05:	jae    0x401a12
  401a07:	push   0x411c6c
  401a0c:	call   DWORD PTR ds:0x41125c
  401a12:	mov    DWORD PTR [esi+0x10],eax
  401a15:	cmp    DWORD PTR [esi+0x14],0x10
  401a19:	jb     0x401a1d
  401a1b:	mov    ecx,DWORD PTR [esi]
  401a1d:	push   ebp
  401a1e:	mov    BYTE PTR [ecx+eax*1],0x0
  401a22:	mov    ecx,esi
  401a24:	push   0x0
  401a26:	call   0x401730
  401a2b:	pop    edi
  401a2c:	mov    eax,esi
  401a2e:	pop    esi
  401a2f:	pop    ebp
  401a30:	pop    ebx
  401a31:	ret    0xc
  401a34:	cmp    edi,0xfffffffe
  401a37:	jbe    0x401a44
  401a39:	push   0x411c84
  401a3e:	call   DWORD PTR ds:0x411258
  401a44:	cmp    DWORD PTR [esi+0x14],edi
  401a47:	jae    0x401a68
  401a49:	push   DWORD PTR [esi+0x10]
  401a4c:	push   edi
  401a4d:	call   0x401820
  401a52:	test   edi,edi
  401a54:	je     0x401ac1
  401a56:	cmp    DWORD PTR [ebx+0x14],0x10
  401a5a:	jb     0x401a5e
  401a5c:	mov    ebx,DWORD PTR [ebx]
  401a5e:	cmp    DWORD PTR [esi+0x14],0x10
  401a62:	jb     0x401a8f
  401a64:	mov    ecx,DWORD PTR [esi]
  401a66:	jmp    0x401a91
  401a68:	test   edi,edi
  401a6a:	jne    0x401a56
  401a6c:	cmp    DWORD PTR [esi+0x14],0x10
  401a70:	mov    DWORD PTR [esi+0x10],edi
  401a73:	jb     0x401a83
  401a75:	mov    eax,DWORD PTR [esi]
  401a77:	pop    edi
  401a78:	mov    BYTE PTR [eax],0x0
  401a7b:	mov    eax,esi
  401a7d:	pop    esi
  401a7e:	pop    ebp
  401a7f:	pop    ebx
  401a80:	ret    0xc
  401a83:	pop    edi
  401a84:	mov    eax,esi
  401a86:	pop    esi
  401a87:	pop    ebp
  401a88:	pop    ebx
  401a89:	mov    BYTE PTR [eax],0x0
  401a8c:	ret    0xc
  401a8f:	mov    ecx,esi
  401a91:	test   edi,edi
  401a93:	je     0x401aa3
  401a95:	push   edi
  401a96:	lea    eax,[ebx+ebp*1]
  401a99:	push   eax
  401a9a:	push   ecx
  401a9b:	call   0x410952
  401aa0:	add    esp,0xc
  401aa3:	cmp    DWORD PTR [esi+0x14],0x10
  401aa7:	mov    DWORD PTR [esi+0x10],edi
  401aaa:	jb     0x401abb
  401aac:	mov    eax,DWORD PTR [esi]
  401aae:	mov    BYTE PTR [eax+edi*1],0x0
  401ab2:	mov    eax,esi
  401ab4:	pop    edi
  401ab5:	pop    esi
  401ab6:	pop    ebp
  401ab7:	pop    ebx
  401ab8:	ret    0xc
  401abb:	mov    eax,esi
  401abd:	mov    BYTE PTR [eax+edi*1],0x0
  401ac1:	pop    edi
  401ac2:	mov    eax,esi
  401ac4:	pop    esi
  401ac5:	pop    ebp
  401ac6:	pop    ebx
  401ac7:	ret    0xc
  401aca:	int3   
  401acb:	int3   
  401acc:	int3   
  401acd:	int3   
  401ace:	int3   
  401acf:	int3   
  401ad0:	push   esi
  401ad1:	mov    esi,ecx
  401ad3:	mov    eax,DWORD PTR [esi+0x14]
  401ad6:	cmp    eax,0x10
  401ad9:	jb     0x401b20
  401adb:	mov    ecx,DWORD PTR [esi]
  401add:	inc    eax
  401ade:	cmp    eax,0x1000
  401ae3:	jb     0x401b17
  401ae5:	test   cl,0x1f
  401ae8:	je     0x401af0
  401aea:	call   DWORD PTR ds:0x41130c
  401af0:	mov    eax,DWORD PTR [ecx-0x4]
  401af3:	cmp    eax,ecx
  401af5:	jb     0x401afd
  401af7:	call   DWORD PTR ds:0x41130c
  401afd:	sub    ecx,eax
  401aff:	cmp    ecx,0x4
  401b02:	jae    0x401b0a
  401b04:	call   DWORD PTR ds:0x41130c
  401b0a:	cmp    ecx,0x23
  401b0d:	jbe    0x401b15
  401b0f:	call   DWORD PTR ds:0x41130c
  401b15:	mov    ecx,eax
  401b17:	push   ecx
  401b18:	call   0x40e6ca
  401b1d:	add    esp,0x4
  401b20:	mov    DWORD PTR [esi+0x14],0xf
  401b27:	cmp    DWORD PTR [esi+0x14],0x10
  401b2b:	mov    DWORD PTR [esi+0x10],0x0
  401b32:	jb     0x401b36
  401b34:	mov    esi,DWORD PTR [esi]
  401b36:	mov    BYTE PTR [esi],0x0
  401b39:	pop    esi
  401b3a:	ret    
  401b3b:	int3   
  401b3c:	int3   
  401b3d:	int3   
  401b3e:	int3   
  401b3f:	int3   
  401b40:	cmp    BYTE PTR [esp+0x4],0x0
  401b45:	push   ebx
  401b46:	push   esi
  401b47:	push   edi
  401b48:	mov    edi,DWORD PTR [esp+0x14]
  401b4c:	mov    esi,ecx
  401b4e:	je     0x401bad
  401b50:	cmp    DWORD PTR [esi+0x14],0x10
  401b54:	jb     0x401bad
  401b56:	mov    ebx,DWORD PTR [esi]
  401b58:	test   edi,edi
  401b5a:	je     0x401b67
  401b5c:	push   edi
  401b5d:	push   ebx
  401b5e:	push   esi
  401b5f:	call   0x410952
  401b64:	add    esp,0xc
  401b67:	mov    eax,DWORD PTR [esi+0x14]
  401b6a:	inc    eax
  401b6b:	cmp    eax,0x1000
  401b70:	jb     0x401ba4
  401b72:	test   bl,0x1f
  401b75:	je     0x401b7d
  401b77:	call   DWORD PTR ds:0x41130c
  401b7d:	mov    eax,DWORD PTR [ebx-0x4]
  401b80:	cmp    eax,ebx
  401b82:	jb     0x401b8a
  401b84:	call   DWORD PTR ds:0x41130c
  401b8a:	sub    ebx,eax
  401b8c:	cmp    ebx,0x4
  401b8f:	jae    0x401b97
  401b91:	call   DWORD PTR ds:0x41130c
  401b97:	cmp    ebx,0x23
  401b9a:	jbe    0x401ba2
  401b9c:	call   DWORD PTR ds:0x41130c
  401ba2:	mov    ebx,eax
  401ba4:	push   ebx
  401ba5:	call   0x40e6ca
  401baa:	add    esp,0x4
  401bad:	mov    DWORD PTR [esi+0x14],0xf
  401bb4:	cmp    DWORD PTR [esi+0x14],0x10
  401bb8:	mov    DWORD PTR [esi+0x10],edi
  401bbb:	jb     0x401bbf
  401bbd:	mov    esi,DWORD PTR [esi]
  401bbf:	mov    BYTE PTR [esi+edi*1],0x0
  401bc3:	pop    edi
  401bc4:	pop    esi
  401bc5:	pop    ebx
  401bc6:	ret    0x8
  401bc9:	int3   
  401bca:	int3   
  401bcb:	int3   
  401bcc:	int3   
  401bcd:	int3   
  401bce:	int3   
  401bcf:	int3   
  401bd0:	movss  xmm0,DWORD PTR [esp+0x4]
  401bd6:	call   0x41095e
  401bdb:	movss  DWORD PTR [esp+0x4],xmm0
  401be1:	fld    DWORD PTR [esp+0x4]
  401be5:	ret    
  401be6:	int3   
  401be7:	int3   
  401be8:	int3   
  401be9:	int3   
  401bea:	int3   
  401beb:	int3   
  401bec:	int3   
  401bed:	int3   
  401bee:	int3   
  401bef:	int3   
  401bf0:	movss  xmm0,DWORD PTR [esp+0x4]
  401bf6:	call   0x410958
  401bfb:	movss  DWORD PTR [esp+0x4],xmm0
  401c01:	fld    DWORD PTR [esp+0x4]
  401c05:	ret    
  401c06:	int3   
  401c07:	int3   
  401c08:	int3   
  401c09:	int3   
  401c0a:	int3   
  401c0b:	int3   
  401c0c:	int3   
  401c0d:	int3   
  401c0e:	int3   
  401c0f:	int3   
  401c10:	fld    DWORD PTR [esp+0x4]
  401c14:	fmul   DWORD PTR ds:0x411d5c
  401c1a:	ret    
  401c1b:	int3   
  401c1c:	int3   
  401c1d:	int3   
  401c1e:	int3   
  401c1f:	int3   
  401c20:	mov    eax,ecx
  401c22:	ret    
  401c23:	int3   
  401c24:	int3   
  401c25:	int3   
  401c26:	int3   
  401c27:	int3   
  401c28:	int3   
  401c29:	int3   
  401c2a:	int3   
  401c2b:	int3   
  401c2c:	int3   
  401c2d:	int3   
  401c2e:	int3   
  401c2f:	int3   
  401c30:	mov    eax,fs:0x2c
  401c36:	sub    esp,0xc
  401c39:	mov    ecx,DWORD PTR [eax]
  401c3b:	mov    eax,ds:0x4308d0
  401c40:	cmp    eax,DWORD PTR [ecx+0x4]
  401c46:	jg     0x401c51
  401c48:	mov    eax,0x4301dc
  401c4d:	add    esp,0xc
  401c50:	ret    
  401c51:	push   0x4308d0
  401c56:	call   0x4107f3
  401c5b:	add    esp,0x4
  401c5e:	cmp    DWORD PTR ds:0x4308d0,0xffffffff
  401c65:	jne    0x401c48
  401c67:	xorps  xmm0,xmm0
  401c6a:	mov    DWORD PTR [esp+0x8],0x0
  401c72:	mov    eax,DWORD PTR [esp+0x8]
  401c76:	unpcklps xmm0,xmm0
  401c79:	push   0x4308d0
  401c7e:	movq   QWORD PTR ds:0x430200,xmm0
  401c86:	mov    ds:0x430208,eax
  401c8b:	call   0x4107b4
  401c90:	add    esp,0x4
  401c93:	jmp    0x401c48
  401c95:	int3   
  401c96:	int3   
  401c97:	int3   
  401c98:	int3   
  401c99:	int3   
  401c9a:	int3   
  401c9b:	int3   
  401c9c:	int3   
  401c9d:	int3   
  401c9e:	int3   
  401c9f:	int3   
  401ca0:	sub    esp,0x18
  401ca3:	mov    edx,DWORD PTR [esp+0x1c]
  401ca7:	mov    eax,DWORD PTR [esp+0x24]
  401cab:	push   esi
  401cac:	mov    esi,DWORD PTR [esp+0x24]
  401cb0:	movss  xmm2,DWORD PTR [eax]
  401cb4:	movss  xmm1,DWORD PTR [eax+0x4]
  401cb9:	subss  xmm2,DWORD PTR [esi]
  401cbd:	subss  xmm1,DWORD PTR [esi+0x4]
  401cc2:	movss  xmm0,DWORD PTR [eax+0x8]
  401cc7:	subss  xmm0,DWORD PTR [esi+0x8]
  401ccc:	unpcklps xmm2,xmm1
  401ccf:	movq   QWORD PTR [edx+0x18],xmm2
  401cd4:	movss  DWORD PTR [esp+0xc],xmm0
  401cda:	mov    eax,DWORD PTR [esp+0xc]
  401cde:	mov    DWORD PTR [edx+0x20],eax
  401ce1:	mov    eax,DWORD PTR [esp+0x2c]
  401ce5:	movss  xmm4,DWORD PTR [edx+0x18]
  401cea:	movss  xmm2,DWORD PTR [eax+0x4]
  401cef:	mulss  xmm2,DWORD PTR [edx+0x20]
  401cf4:	movss  xmm0,DWORD PTR [eax+0x8]
  401cf9:	mulss  xmm0,DWORD PTR [edx+0x1c]
  401cfe:	movss  xmm3,DWORD PTR [eax]
  401d02:	subss  xmm2,xmm0
  401d06:	movaps xmm0,xmm3
  401d09:	mulss  xmm0,DWORD PTR [edx+0x20]
  401d0e:	mulss  xmm3,DWORD PTR [edx+0x1c]
  401d13:	movq   QWORD PTR [esp+0x4],xmm2
  401d19:	movaps xmm2,xmm4
  401d1c:	mulss  xmm2,DWORD PTR [eax+0x8]
  401d21:	mulss  xmm4,DWORD PTR [eax+0x4]
  401d26:	subss  xmm2,xmm0
  401d2a:	movq   xmm0,QWORD PTR [esp+0x4]
  401d30:	subss  xmm3,xmm4
  401d34:	unpcklps xmm0,xmm2
  401d37:	movq   QWORD PTR [edx],xmm0
  401d3b:	movss  DWORD PTR [esp+0x18],xmm3
  401d41:	mov    eax,DWORD PTR [esp+0x18]
  401d45:	mov    DWORD PTR [edx+0x8],eax
  401d48:	movss  xmm7,DWORD PTR [edx+0x4]
  401d4d:	movss  xmm5,DWORD PTR [edx+0x8]
  401d52:	movaps xmm0,xmm7
  401d55:	mulss  xmm0,DWORD PTR [edx+0x20]
  401d5a:	mulss  xmm5,DWORD PTR [edx+0x1c]
  401d5f:	movss  xmm6,DWORD PTR [edx]
  401d63:	movss  xmm1,DWORD PTR [edx+0x18]
  401d68:	movaps xmm2,xmm6
  401d6b:	movss  xmm3,DWORD PTR [edx+0x8]
  401d70:	subss  xmm5,xmm0
  401d74:	mulss  xmm2,DWORD PTR [edx+0x20]
  401d79:	movaps xmm0,xmm1
  401d7c:	mulss  xmm0,xmm3
  401d80:	mulss  xmm1,xmm7
  401d84:	subss  xmm2,xmm0
  401d88:	movaps xmm0,xmm6
  401d8b:	mulss  xmm0,DWORD PTR [edx+0x1c]
  401d90:	subss  xmm1,xmm0
  401d94:	unpcklps xmm5,xmm2
  401d97:	movaps xmm0,xmm7
  401d9a:	movq   QWORD PTR [edx+0xc],xmm5
  401d9f:	mulss  xmm0,xmm7
  401da3:	movss  xmm5,DWORD PTR ds:0x411d60
  401dab:	movss  DWORD PTR [esp+0x18],xmm1
  401db1:	movaps xmm1,xmm6
  401db4:	mulss  xmm1,xmm6
  401db8:	mov    eax,DWORD PTR [esp+0x18]
  401dbc:	mov    DWORD PTR [edx+0x14],eax
  401dbf:	addss  xmm1,xmm0
  401dc3:	movaps xmm0,xmm3
  401dc6:	mulss  xmm0,xmm3
  401dca:	addss  xmm1,xmm0
  401dce:	xorps  xmm0,xmm0
  401dd1:	sqrtss xmm0,xmm1
  401dd5:	movaps xmm1,xmm5
  401dd8:	divss  xmm1,xmm0
  401ddc:	mulss  xmm6,xmm1
  401de0:	mulss  xmm7,xmm1
  401de4:	mulss  xmm3,xmm1
  401de8:	unpcklps xmm6,xmm7
  401deb:	movq   QWORD PTR [edx],xmm6
  401def:	movss  DWORD PTR [esp+0x18],xmm3
  401df5:	mov    eax,DWORD PTR [esp+0x18]
  401df9:	mov    DWORD PTR [edx+0x8],eax
  401dfc:	movss  xmm4,DWORD PTR [edx+0xc]
  401e01:	movss  xmm3,DWORD PTR [edx+0x10]
  401e06:	movaps xmm1,xmm4
  401e09:	movss  xmm2,DWORD PTR [edx+0x14]
  401e0e:	movaps xmm0,xmm3
  401e11:	mulss  xmm0,xmm3
  401e15:	mulss  xmm1,xmm4
  401e19:	addss  xmm1,xmm0
  401e1d:	movaps xmm0,xmm2
  401e20:	mulss  xmm0,xmm2
  401e24:	addss  xmm1,xmm0
  401e28:	xorps  xmm0,xmm0
  401e2b:	sqrtss xmm0,xmm1
  401e2f:	movaps xmm1,xmm5
  401e32:	divss  xmm1,xmm0
  401e36:	mulss  xmm4,xmm1
  401e3a:	mulss  xmm3,xmm1
  401e3e:	mulss  xmm2,xmm1
  401e42:	unpcklps xmm4,xmm3
  401e45:	movq   QWORD PTR [edx+0xc],xmm4
  401e4a:	movss  DWORD PTR [esp+0x18],xmm2
  401e50:	mov    eax,DWORD PTR [esp+0x18]
  401e54:	mov    DWORD PTR [edx+0x14],eax
  401e57:	mov    eax,edx
  401e59:	movss  xmm4,DWORD PTR [edx+0x18]
  401e5e:	movss  xmm3,DWORD PTR [edx+0x1c]
  401e63:	movaps xmm1,xmm4
  401e66:	movss  xmm2,DWORD PTR [edx+0x20]
  401e6b:	movaps xmm0,xmm3
  401e6e:	mulss  xmm0,xmm3
  401e72:	mulss  xmm1,xmm4
  401e76:	addss  xmm1,xmm0
  401e7a:	movaps xmm0,xmm2
  401e7d:	mulss  xmm0,xmm2
  401e81:	addss  xmm1,xmm0
  401e85:	xorps  xmm0,xmm0
  401e88:	sqrtss xmm0,xmm1
  401e8c:	divss  xmm5,xmm0
  401e90:	mulss  xmm4,xmm5
  401e94:	mulss  xmm3,xmm5
  401e98:	mulss  xmm2,xmm5
  401e9c:	unpcklps xmm4,xmm3
  401e9f:	movq   QWORD PTR [edx+0x18],xmm4
  401ea4:	movss  DWORD PTR [esp+0x18],xmm2
  401eaa:	mov    ecx,DWORD PTR [esp+0x18]
  401eae:	mov    DWORD PTR [edx+0x20],ecx
  401eb1:	movq   xmm0,QWORD PTR [esi]
  401eb5:	movq   QWORD PTR [edx+0x24],xmm0
  401eba:	mov    ecx,DWORD PTR [esi+0x8]
  401ebd:	mov    DWORD PTR [edx+0x2c],ecx
  401ec0:	pop    esi
  401ec1:	add    esp,0x18
  401ec4:	ret    
  401ec5:	int3   
  401ec6:	int3   
  401ec7:	int3   
  401ec8:	int3   
  401ec9:	int3   
  401eca:	int3   
  401ecb:	int3   
  401ecc:	int3   
  401ecd:	int3   
  401ece:	int3   
  401ecf:	int3   
  401ed0:	sub    esp,0xc
  401ed3:	mov    eax,DWORD PTR [esp+0x18]
  401ed7:	mov    edx,DWORD PTR [esp+0x10]
  401edb:	movss  xmm4,DWORD PTR [eax]
  401edf:	movss  xmm3,DWORD PTR [eax+0x4]
  401ee4:	movaps xmm1,xmm4
  401ee7:	movss  xmm2,DWORD PTR [eax+0x8]
  401eec:	movaps xmm0,xmm3
  401eef:	mulss  xmm0,xmm3
  401ef3:	mulss  xmm1,xmm4
  401ef7:	addss  xmm1,xmm0
  401efb:	movaps xmm0,xmm2
  401efe:	mulss  xmm0,xmm2
  401f02:	addss  xmm1,xmm0
  401f06:	xorps  xmm0,xmm0
  401f09:	sqrtss xmm0,xmm1
  401f0d:	movss  xmm1,DWORD PTR ds:0x411d60
  401f15:	divss  xmm1,xmm0
  401f19:	mulss  xmm2,xmm1
  401f1d:	mulss  xmm4,xmm1
  401f21:	mulss  xmm3,xmm1
  401f25:	movss  DWORD PTR [esp+0x8],xmm2
  401f2b:	mov    eax,DWORD PTR [esp+0x8]
  401f2f:	unpcklps xmm4,xmm3
  401f32:	movq   QWORD PTR [edx+0x18],xmm4
  401f37:	mov    DWORD PTR [edx+0x20],eax
  401f3a:	mov    eax,DWORD PTR [esp+0x1c]
  401f3e:	movss  xmm2,DWORD PTR [eax+0x4]
  401f43:	mulss  xmm2,DWORD PTR [edx+0x20]
  401f48:	movss  xmm0,DWORD PTR [eax+0x8]
  401f4d:	mulss  xmm0,DWORD PTR [edx+0x1c]
  401f52:	movss  xmm6,DWORD PTR [eax]
  401f56:	subss  xmm2,xmm0
  401f5a:	movaps xmm0,xmm6
  401f5d:	mulss  xmm0,DWORD PTR [edx+0x20]
  401f62:	mulss  xmm6,DWORD PTR [edx+0x1c]
  401f67:	movq   QWORD PTR [esp],xmm2
  401f6c:	movss  xmm2,DWORD PTR [edx+0x18]
  401f71:	movaps xmm7,xmm2
  401f74:	mulss  xmm2,DWORD PTR [eax+0x4]
  401f79:	mulss  xmm7,DWORD PTR [eax+0x8]
  401f7e:	subss  xmm6,xmm2
  401f82:	movq   xmm2,QWORD PTR [esp]
  401f87:	subss  xmm7,xmm0
  401f8b:	movaps xmm0,xmm2
  401f8e:	mulss  xmm0,xmm2
  401f92:	movaps xmm1,xmm7
  401f95:	mulss  xmm1,xmm7
  401f99:	addss  xmm1,xmm0
  401f9d:	movaps xmm0,xmm6
  401fa0:	mulss  xmm0,xmm6
  401fa4:	addss  xmm1,xmm0
  401fa8:	xorps  xmm0,xmm0
  401fab:	sqrtss xmm0,xmm1
  401faf:	movss  xmm1,DWORD PTR ds:0x411d60
  401fb7:	divss  xmm1,xmm0
  401fbb:	mulss  xmm7,xmm1
  401fbf:	mulss  xmm6,xmm1
  401fc3:	mulss  xmm2,xmm1
  401fc7:	movss  DWORD PTR [esp+0x8],xmm6
  401fcd:	mov    eax,DWORD PTR [esp+0x8]
  401fd1:	unpcklps xmm2,xmm7
  401fd4:	movq   QWORD PTR [edx],xmm2
  401fd8:	mov    DWORD PTR [edx+0x8],eax
  401fdb:	movss  xmm1,DWORD PTR [edx+0x8]
  401fe0:	mulss  xmm1,DWORD PTR [edx+0x1c]
  401fe5:	movss  xmm0,DWORD PTR [edx+0x4]
  401fea:	mulss  xmm0,DWORD PTR [edx+0x20]
  401fef:	movss  xmm6,DWORD PTR [edx+0x18]
  401ff4:	subss  xmm1,xmm0
  401ff8:	movaps xmm0,xmm6
  401ffb:	mulss  xmm0,DWORD PTR [edx+0x8]
  402000:	mulss  xmm6,DWORD PTR [edx+0x4]
  402005:	movq   QWORD PTR [esp],xmm1
  40200a:	movss  xmm1,DWORD PTR [edx]
  40200e:	movaps xmm7,xmm1
  402011:	mulss  xmm1,DWORD PTR [edx+0x1c]
  402016:	mulss  xmm7,DWORD PTR [edx+0x20]
  40201b:	subss  xmm6,xmm1
  40201f:	subss  xmm7,xmm0
  402023:	movaps xmm1,xmm7
  402026:	mulss  xmm1,xmm7
  40202a:	movq   xmm2,QWORD PTR [esp]
  40202f:	mov    eax,edx
  402031:	movaps xmm0,xmm2
  402034:	mulss  xmm0,xmm2
  402038:	addss  xmm1,xmm0
  40203c:	movaps xmm0,xmm6
  40203f:	mulss  xmm0,xmm6
  402043:	addss  xmm1,xmm0
  402047:	xorps  xmm0,xmm0
  40204a:	sqrtss xmm0,xmm1
  40204e:	movss  xmm1,DWORD PTR ds:0x411d60
  402056:	divss  xmm1,xmm0
  40205a:	mulss  xmm2,xmm1
  40205e:	mulss  xmm7,xmm1
  402062:	mulss  xmm6,xmm1
  402066:	unpcklps xmm2,xmm7
  402069:	movq   QWORD PTR [edx+0xc],xmm2
  40206e:	movss  DWORD PTR [esp+0x8],xmm6
  402074:	mov    ecx,DWORD PTR [esp+0x8]
  402078:	mov    DWORD PTR [edx+0x14],ecx
  40207b:	mov    ecx,DWORD PTR [esp+0x14]
  40207f:	movq   xmm0,QWORD PTR [ecx]
  402083:	movq   QWORD PTR [edx+0x24],xmm0
  402088:	mov    ecx,DWORD PTR [ecx+0x8]
  40208b:	mov    DWORD PTR [edx+0x2c],ecx
  40208e:	add    esp,0xc
  402091:	ret    
  402092:	int3   
  402093:	int3   
  402094:	int3   
  402095:	int3   
  402096:	int3   
  402097:	int3   
  402098:	int3   
  402099:	int3   
  40209a:	int3   
  40209b:	int3   
  40209c:	int3   
  40209d:	int3   
  40209e:	int3   
  40209f:	int3   
  4020a0:	movss  xmm4,DWORD PTR [ecx+0x4]
  4020a5:	movss  xmm2,DWORD PTR [ecx]
  4020a9:	movaps xmm0,xmm4
  4020ac:	movss  xmm3,DWORD PTR [ecx+0x8]
  4020b1:	movaps xmm1,xmm2
  4020b4:	mulss  xmm0,xmm4
  4020b8:	mov    eax,DWORD PTR [esp+0x4]
  4020bc:	mulss  xmm1,xmm2
  4020c0:	addss  xmm1,xmm0
  4020c4:	movaps xmm0,xmm3
  4020c7:	mulss  xmm0,xmm3
  4020cb:	addss  xmm1,xmm0
  4020cf:	xorps  xmm0,xmm0
  4020d2:	sqrtss xmm0,xmm1
  4020d6:	movss  xmm1,DWORD PTR ds:0x411d60
  4020de:	divss  xmm1,xmm0
  4020e2:	mulss  xmm2,xmm1
  4020e6:	mulss  xmm4,xmm1
  4020ea:	mulss  xmm3,xmm1
  4020ee:	movss  DWORD PTR [eax],xmm2
  4020f2:	movss  DWORD PTR [eax+0x4],xmm4
  4020f7:	movss  DWORD PTR [eax+0x8],xmm3
  4020fc:	ret    0x4
  4020ff:	int3   
  402100:	mov    eax,0x4308c8
  402105:	ret    
  402106:	int3   
  402107:	int3   
  402108:	int3   
  402109:	int3   
  40210a:	int3   
  40210b:	int3   
  40210c:	int3   
  40210d:	int3   
  40210e:	int3   
  40210f:	int3   
  402110:	sub    esp,0xc
  402113:	mov    edx,ecx
  402115:	mov    ecx,DWORD PTR [esp+0x10]
  402119:	movss  xmm3,DWORD PTR [edx+0xc]
  40211e:	movss  xmm4,DWORD PTR [edx+0x10]
  402123:	movss  xmm5,DWORD PTR [edx+0x14]
  402128:	movss  xmm2,DWORD PTR [edx]
  40212c:	movss  xmm1,DWORD PTR [edx+0x4]
  402131:	subss  xmm2,xmm3
  402135:	movss  xmm0,DWORD PTR [edx+0x8]
  40213a:	subss  xmm1,xmm4
  40213e:	subss  xmm0,xmm5
  402142:	unpcklps xmm2,xmm1
  402145:	movq   QWORD PTR [ecx],xmm2
  402149:	movss  DWORD PTR [esp+0x8],xmm0
  40214f:	mov    eax,DWORD PTR [esp+0x8]
  402153:	mov    DWORD PTR [ecx+0x8],eax
  402156:	movss  xmm2,DWORD PTR [edx]
  40215a:	movss  xmm1,DWORD PTR [edx+0x4]
  40215f:	addss  xmm2,xmm3
  402163:	movss  xmm0,DWORD PTR [edx+0x8]
  402168:	subss  xmm1,xmm4
  40216c:	subss  xmm0,xmm5
  402170:	unpcklps xmm2,xmm1
  402173:	movq   QWORD PTR [ecx+0xc],xmm2
  402178:	movss  DWORD PTR [esp+0x8],xmm0
  40217e:	movaps xmm0,xmm5
  402181:	mov    eax,DWORD PTR [esp+0x8]
  402185:	mov    DWORD PTR [ecx+0x14],eax
  402188:	addss  xmm0,DWORD PTR [edx+0x8]
  40218d:	movss  xmm2,DWORD PTR [edx]
  402191:	movss  xmm1,DWORD PTR [edx+0x4]
  402196:	addss  xmm2,xmm3
  40219a:	subss  xmm1,xmm4
  40219e:	movss  DWORD PTR [esp+0x8],xmm0
  4021a4:	movaps xmm0,xmm5
  4021a7:	mov    eax,DWORD PTR [esp+0x8]
  4021ab:	unpcklps xmm2,xmm1
  4021ae:	movq   QWORD PTR [ecx+0x18],xmm2
  4021b3:	mov    DWORD PTR [ecx+0x20],eax
  4021b6:	addss  xmm0,DWORD PTR [edx+0x8]
  4021bb:	movss  xmm2,DWORD PTR [edx]
  4021bf:	movss  xmm1,DWORD PTR [edx+0x4]
  4021c4:	subss  xmm2,xmm3
  4021c8:	subss  xmm1,xmm4
  4021cc:	movss  DWORD PTR [esp+0x8],xmm0
  4021d2:	mov    eax,DWORD PTR [esp+0x8]
  4021d6:	unpcklps xmm2,xmm1
  4021d9:	movq   QWORD PTR [ecx+0x24],xmm2
  4021de:	mov    DWORD PTR [ecx+0x2c],eax
  4021e1:	movss  xmm2,DWORD PTR [edx]
  4021e5:	movss  xmm1,DWORD PTR [edx+0x4]
  4021ea:	subss  xmm2,xmm3
  4021ee:	movss  xmm0,DWORD PTR [edx+0x8]
  4021f3:	addss  xmm1,xmm4
  4021f7:	subss  xmm0,xmm5
  4021fb:	unpcklps xmm2,xmm1
  4021fe:	movq   QWORD PTR [ecx+0x30],xmm2
  402203:	movss  DWORD PTR [esp+0x8],xmm0
  402209:	mov    eax,DWORD PTR [esp+0x8]
  40220d:	mov    DWORD PTR [ecx+0x38],eax
  402210:	movss  xmm2,DWORD PTR [edx]
  402214:	movss  xmm1,DWORD PTR [edx+0x4]
  402219:	addss  xmm2,xmm3
  40221d:	movss  xmm0,DWORD PTR [edx+0x8]
  402222:	addss  xmm1,xmm4
  402226:	subss  xmm0,xmm5
  40222a:	unpcklps xmm2,xmm1
  40222d:	movq   QWORD PTR [ecx+0x3c],xmm2
  402232:	movss  DWORD PTR [esp+0x8],xmm0
  402238:	movaps xmm0,xmm5
  40223b:	mov    eax,DWORD PTR [esp+0x8]
  40223f:	mov    DWORD PTR [ecx+0x44],eax
  402242:	movss  xmm2,DWORD PTR [edx]
  402246:	movss  xmm1,DWORD PTR [edx+0x4]
  40224b:	addss  xmm2,xmm3
  40224f:	addss  xmm0,DWORD PTR [edx+0x8]
  402254:	addss  xmm1,xmm4
  402258:	movss  DWORD PTR [esp+0x8],xmm0
  40225e:	mov    eax,DWORD PTR [esp+0x8]
  402262:	unpcklps xmm2,xmm1
  402265:	movq   QWORD PTR [ecx+0x48],xmm2
  40226a:	mov    DWORD PTR [ecx+0x50],eax
  40226d:	movss  xmm1,DWORD PTR [edx]
  402271:	movss  xmm0,DWORD PTR [edx+0x4]
  402276:	subss  xmm1,xmm3
  40227a:	addss  xmm5,DWORD PTR [edx+0x8]
  40227f:	addss  xmm0,xmm4
  402283:	movss  DWORD PTR [esp+0x8],xmm5
  402289:	mov    eax,DWORD PTR [esp+0x8]
  40228d:	unpcklps xmm1,xmm0
  402290:	movq   QWORD PTR [ecx+0x54],xmm1
  402295:	mov    DWORD PTR [ecx+0x5c],eax
  402298:	add    esp,0xc
  40229b:	ret    0x4
  40229e:	int3   
  40229f:	int3   
  4022a0:	push   esi
  4022a1:	mov    esi,ecx
  4022a3:	mov    ecx,DWORD PTR [esi]
  4022a5:	test   ecx,ecx
  4022a7:	je     0x4022d9
  4022a9:	mov    edx,DWORD PTR [esi+0x8]
  4022ac:	mov    eax,0x2aaaaaab
  4022b1:	sub    edx,ecx
  4022b3:	imul   edx
  4022b5:	sar    edx,1
  4022b7:	mov    eax,edx
  4022b9:	shr    eax,0x1f
  4022bc:	add    eax,edx
  4022be:	push   eax
  4022bf:	push   ecx
  4022c0:	call   0x4024e0
  4022c5:	mov    DWORD PTR [esi],0x0
  4022cb:	mov    DWORD PTR [esi+0x4],0x0
  4022d2:	mov    DWORD PTR [esi+0x8],0x0
  4022d9:	pop    esi
  4022da:	ret    
  4022db:	int3   
  4022dc:	int3   
  4022dd:	int3   
  4022de:	int3   
  4022df:	int3   
  4022e0:	push   esi
  4022e1:	mov    esi,ecx
  4022e3:	mov    edx,DWORD PTR [esi]
  4022e5:	test   edx,edx
  4022e7:	jne    0x4022ef
  4022e9:	xor    al,al
  4022eb:	pop    esi
  4022ec:	ret    0x4
  4022ef:	xor    ecx,ecx
  4022f1:	test   edx,edx
  4022f3:	je     0x40234b
  4022f5:	mov    eax,DWORD PTR [esp+0x8]
  4022f9:	xorps  xmm6,xmm6
  4022fc:	movss  xmm2,DWORD PTR ds:0x411d68
  402304:	movss  xmm3,DWORD PTR [eax+0x4]
  402309:	movss  xmm4,DWORD PTR [eax]
  40230d:	movss  xmm5,DWORD PTR [eax+0x8]
  402312:	lea    eax,[esi+0xc]
  402315:	movaps xmm0,xmm3
  402318:	movaps xmm1,xmm4
  40231b:	mulss  xmm1,DWORD PTR [eax-0x8]
  402320:	mulss  xmm0,DWORD PTR [eax-0x4]
  402325:	addss  xmm1,xmm0
  402329:	movaps xmm0,xmm5
  40232c:	mulss  xmm0,DWORD PTR [eax]
  402330:	addss  xmm1,xmm0
  402334:	addss  xmm1,DWORD PTR [eax+0x4]
  402339:	comiss xmm1,xmm6
  40233c:	ja     0x402343
  40233e:	comiss xmm2,xmm1
  402341:	ja     0x4022e9
  402343:	inc    ecx
  402344:	add    eax,0x10
  402347:	cmp    ecx,edx
  402349:	jb     0x402315
  40234b:	mov    al,0x1
  40234d:	pop    esi
  40234e:	ret    0x4
  402351:	int3   
  402352:	int3   
  402353:	int3   
  402354:	int3   
  402355:	int3   
  402356:	int3   
  402357:	int3   
  402358:	int3   
  402359:	int3   
  40235a:	int3   
  40235b:	int3   
  40235c:	int3   
  40235d:	int3   
  40235e:	int3   
  40235f:	int3   
  402360:	push   ecx
  402361:	push   ebx
  402362:	push   esi
  402363:	push   edi
  402364:	mov    edi,ecx
  402366:	mov    eax,0x2aaaaaab
  40236b:	mov    ebx,DWORD PTR [edi+0x4]
  40236e:	mov    esi,ebx
  402370:	sub    esi,DWORD PTR [edi]
  402372:	imul   esi
  402374:	sar    edx,1
  402376:	mov    ecx,edx
  402378:	shr    ecx,0x1f
  40237b:	add    ecx,edx
  40237d:	cmp    ecx,0x4
  402380:	jbe    0x4023a9
  402382:	mov    eax,0x2aaaaaab
  402387:	imul   esi
  402389:	mov    eax,0x4
  40238e:	sar    edx,1
  402390:	mov    ecx,edx
  402392:	shr    ecx,0x1f
  402395:	add    ecx,edx
  402397:	sub    eax,ecx
  402399:	lea    eax,[eax+eax*2]
  40239c:	lea    eax,[ebx+eax*4]
  40239f:	mov    DWORD PTR [edi+0x4],eax
  4023a2:	pop    edi
  4023a3:	pop    esi
  4023a4:	pop    ebx
  4023a5:	pop    ecx
  4023a6:	ret    0x4
  4023a9:	jae    0x4023e9
  4023ab:	mov    esi,0x4
  4023b0:	mov    eax,esi
  4023b2:	sub    eax,ecx
  4023b4:	mov    ecx,edi
  4023b6:	push   eax
  4023b7:	call   0x4023f0
  4023bc:	push   DWORD PTR [esp+0xc]
  4023c0:	push   ecx
  4023c1:	call   0x402670
  4023c6:	mov    ecx,DWORD PTR [edi+0x4]
  4023c9:	mov    eax,0x2aaaaaab
  4023ce:	sub    ecx,DWORD PTR [edi]
  4023d0:	add    esp,0x8
  4023d3:	imul   ecx
  4023d5:	sar    edx,1
  4023d7:	mov    eax,edx
  4023d9:	shr    eax,0x1f
  4023dc:	add    eax,edx
  4023de:	sub    esi,eax
  4023e0:	lea    eax,[esi+esi*2]
  4023e3:	shl    eax,0x2
  4023e6:	add    DWORD PTR [edi+0x4],eax
  4023e9:	pop    edi
  4023ea:	pop    esi
  4023eb:	pop    ebx
  4023ec:	pop    ecx
  4023ed:	ret    0x4
  4023f0:	push   ebx
  4023f1:	mov    ebx,ecx
  4023f3:	mov    eax,0x2aaaaaab
  4023f8:	push   ebp
  4023f9:	push   esi
  4023fa:	push   edi
  4023fb:	mov    ebp,DWORD PTR [ebx+0x8]
  4023fe:	mov    edx,ebp
  402400:	mov    esi,DWORD PTR [ebx+0x4]
  402403:	sub    edx,esi
  402405:	mov    edi,DWORD PTR [esp+0x14]
  402409:	imul   edx
  40240b:	sar    edx,1
  40240d:	mov    eax,edx
  40240f:	shr    eax,0x1f
  402412:	add    eax,edx
  402414:	cmp    eax,edi
  402416:	jae    0x402475
  402418:	sub    esi,DWORD PTR [ebx]
  40241a:	mov    eax,0x2aaaaaab
  40241f:	imul   esi
  402421:	mov    eax,0x15555555
  402426:	sar    edx,1
  402428:	mov    ecx,edx
  40242a:	shr    ecx,0x1f
  40242d:	add    ecx,edx
  40242f:	sub    eax,ecx
  402431:	cmp    eax,edi
  402433:	jae    0x402440
  402435:	push   0x411c44
  40243a:	call   DWORD PTR ds:0x411258
  402440:	sub    ebp,DWORD PTR [ebx]
  402442:	mov    eax,0x2aaaaaab
  402447:	imul   ebp
  402449:	add    edi,ecx
  40244b:	xor    ecx,ecx
  40244d:	sar    edx,1
  40244f:	mov    esi,edx
  402451:	shr    esi,0x1f
  402454:	add    esi,edx
  402456:	mov    edx,0x15555555
  40245b:	mov    eax,esi
  40245d:	shr    eax,1
  40245f:	sub    edx,eax
  402461:	add    eax,esi
  402463:	cmp    edx,esi
  402465:	cmovae ecx,eax
  402468:	cmp    ecx,edi
  40246a:	cmovae edi,ecx
  40246d:	mov    ecx,ebx
  40246f:	push   edi
  402470:	call   0x4025a0
  402475:	pop    edi
  402476:	pop    esi
  402477:	pop    ebp
  402478:	pop    ebx
  402479:	ret    0x4
  40247c:	int3   
  40247d:	int3   
  40247e:	int3   
  40247f:	int3   
  402480:	push   esi
  402481:	mov    esi,ecx
  402483:	push   edi
  402484:	mov    edi,DWORD PTR [esp+0xc]
  402488:	mov    DWORD PTR [esi],0x0
  40248e:	mov    DWORD PTR [esi+0x4],0x0
  402495:	mov    DWORD PTR [esi+0x8],0x0
  40249c:	test   edi,edi
  40249e:	jne    0x4024a7
  4024a0:	pop    edi
  4024a1:	xor    al,al
  4024a3:	pop    esi
  4024a4:	ret    0x4
  4024a7:	cmp    edi,0x15555555
  4024ad:	jbe    0x4024ba
  4024af:	push   0x411c44
  4024b4:	call   DWORD PTR ds:0x411258
  4024ba:	push   edi
  4024bb:	call   0x402540
  4024c0:	mov    DWORD PTR [esi],eax
  4024c2:	lea    ecx,[edi+edi*2]
  4024c5:	mov    DWORD PTR [esi+0x4],eax
  4024c8:	mov    eax,DWORD PTR [esi]
  4024ca:	pop    edi
  4024cb:	lea    eax,[eax+ecx*4]
  4024ce:	mov    DWORD PTR [esi+0x8],eax
  4024d1:	mov    al,0x1
  4024d3:	pop    esi
  4024d4:	ret    0x4
  4024d7:	int3   
  4024d8:	int3   
  4024d9:	int3   
  4024da:	int3   
  4024db:	int3   
  4024dc:	int3   
  4024dd:	int3   
  4024de:	int3   
  4024df:	int3   
  4024e0:	mov    eax,DWORD PTR [esp+0x8]
  4024e4:	mov    ecx,DWORD PTR [esp+0x4]
  4024e8:	cmp    eax,0x15555555
  4024ed:	jbe    0x4024f5
  4024ef:	call   DWORD PTR ds:0x41130c
  4024f5:	lea    eax,[eax+eax*2]
  4024f8:	shl    eax,0x2
  4024fb:	cmp    eax,0x1000
  402500:	jb     0x402534
  402502:	test   cl,0x1f
  402505:	je     0x40250d
  402507:	call   DWORD PTR ds:0x41130c
  40250d:	mov    eax,DWORD PTR [ecx-0x4]
  402510:	cmp    eax,ecx
  402512:	jb     0x40251a
  402514:	call   DWORD PTR ds:0x41130c
  40251a:	sub    ecx,eax
  40251c:	cmp    ecx,0x4
  40251f:	jae    0x402527
  402521:	call   DWORD PTR ds:0x41130c
  402527:	cmp    ecx,0x23
  40252a:	jbe    0x402532
  40252c:	call   DWORD PTR ds:0x41130c
  402532:	mov    ecx,eax
  402534:	push   ecx
  402535:	call   0x40e6ca
  40253a:	pop    ecx
  40253b:	ret    0x8
  40253e:	int3   
  40253f:	int3   
  402540:	mov    eax,DWORD PTR [esp+0x4]
  402544:	test   eax,eax
  402546:	jne    0x40254f
  402548:	xor    ecx,ecx
  40254a:	mov    eax,ecx
  40254c:	ret    0x4
  40254f:	cmp    eax,0x15555555
  402554:	jbe    0x40255c
  402556:	call   DWORD PTR ds:0x411254
  40255c:	lea    eax,[eax+eax*2]
  40255f:	shl    eax,0x2
  402562:	cmp    eax,0x1000
  402567:	jb     0x40258d
  402569:	lea    ecx,[eax+0x23]
  40256c:	cmp    ecx,eax
  40256e:	ja     0x402576
  402570:	call   DWORD PTR ds:0x411254
  402576:	push   ecx
  402577:	call   0x40e6cf
  40257c:	add    esp,0x4
  40257f:	lea    ecx,[eax+0x23]
  402582:	and    ecx,0xffffffe0
  402585:	mov    DWORD PTR [ecx-0x4],eax
  402588:	mov    eax,ecx
  40258a:	ret    0x4
  40258d:	push   eax
  40258e:	call   0x40e6cf
  402593:	add    esp,0x4
  402596:	mov    ecx,eax
  402598:	ret    0x4
  40259b:	int3   
  40259c:	int3   
  40259d:	int3   
  40259e:	int3   
  40259f:	int3   
  4025a0:	push   ebx
  4025a1:	push   ebp
  4025a2:	push   esi
  4025a3:	push   edi
  4025a4:	mov    edi,DWORD PTR [esp+0x14]
  4025a8:	mov    ebx,ecx
  4025aa:	test   edi,edi
  4025ac:	jne    0x4025b2
  4025ae:	xor    esi,esi
  4025b0:	jmp    0x4025f9
  4025b2:	cmp    edi,0x15555555
  4025b8:	jbe    0x4025c0
  4025ba:	call   DWORD PTR ds:0x411254
  4025c0:	lea    eax,[edi+edi*2]
  4025c3:	shl    eax,0x2
  4025c6:	cmp    eax,0x1000
  4025cb:	jb     0x4025ee
  4025cd:	lea    ecx,[eax+0x23]
  4025d0:	cmp    ecx,eax
  4025d2:	ja     0x4025da
  4025d4:	call   DWORD PTR ds:0x411254
  4025da:	push   ecx
  4025db:	call   0x40e6cf
  4025e0:	add    esp,0x4
  4025e3:	lea    esi,[eax+0x23]
  4025e6:	and    esi,0xffffffe0
  4025e9:	mov    DWORD PTR [esi-0x4],eax
  4025ec:	jmp    0x4025f9
  4025ee:	push   eax
  4025ef:	call   0x40e6cf
  4025f4:	add    esp,0x4
  4025f7:	mov    esi,eax
  4025f9:	mov    edx,DWORD PTR [ebx+0x4]
  4025fc:	push   ecx
  4025fd:	push   DWORD PTR [esp+0x18]
  402601:	push   ecx
  402602:	mov    ecx,DWORD PTR [ebx]
  402604:	push   esi
  402605:	call   0x402680
  40260a:	mov    ecx,DWORD PTR [ebx+0x4]
  40260d:	mov    eax,0x2aaaaaab
  402612:	sub    ecx,DWORD PTR [ebx]
  402614:	add    esp,0x10
  402617:	imul   ecx
  402619:	mov    eax,DWORD PTR [ebx]
  40261b:	sar    edx,1
  40261d:	mov    ebp,edx
  40261f:	shr    ebp,0x1f
  402622:	add    ebp,edx
  402624:	test   eax,eax
  402626:	je     0x402645
  402628:	mov    ecx,DWORD PTR [ebx+0x8]
  40262b:	sub    ecx,eax
  40262d:	mov    eax,0x2aaaaaab
  402632:	imul   ecx
  402634:	sar    edx,1
  402636:	mov    eax,edx
  402638:	shr    eax,0x1f
  40263b:	add    eax,edx
  40263d:	push   eax
  40263e:	push   DWORD PTR [ebx]
  402640:	call   0x4024e0
  402645:	lea    eax,[edi+edi*2]
  402648:	lea    eax,[esi+eax*4]
  40264b:	mov    DWORD PTR [ebx+0x8],eax
  40264e:	lea    eax,[ebp*2+0x0]
  402655:	add    eax,ebp
  402657:	pop    edi
  402658:	lea    eax,[esi+eax*4]
  40265b:	mov    DWORD PTR [ebx+0x4],eax
  40265e:	mov    DWORD PTR [ebx],esi
  402660:	pop    esi
  402661:	pop    ebp
  402662:	pop    ebx
  402663:	ret    0x4
  402666:	int3   
  402667:	int3   
  402668:	int3   
  402669:	int3   
  40266a:	int3   
  40266b:	int3   
  40266c:	int3   
  40266d:	int3   
  40266e:	int3   
  40266f:	int3   
  402670:	ret    
  402671:	int3   
  402672:	int3   
  402673:	int3   
  402674:	int3   
  402675:	int3   
  402676:	int3   
  402677:	int3   
  402678:	int3   
  402679:	int3   
  40267a:	int3   
  40267b:	int3   
  40267c:	int3   
  40267d:	int3   
  40267e:	int3   
  40267f:	int3   
  402680:	mov    eax,DWORD PTR [esp+0x4]
  402684:	push   esi
  402685:	mov    esi,ecx
  402687:	cmp    esi,edx
  402689:	je     0x4026ac
  40268b:	nop    DWORD PTR [eax+eax*1+0x0]
  402690:	test   eax,eax
  402692:	je     0x4026a2
  402694:	movq   xmm0,QWORD PTR [esi]
  402698:	movq   QWORD PTR [eax],xmm0
  40269c:	mov    ecx,DWORD PTR [esi+0x8]
  40269f:	mov    DWORD PTR [eax+0x8],ecx
  4026a2:	add    esi,0xc
  4026a5:	add    eax,0xc
  4026a8:	cmp    esi,edx
  4026aa:	jne    0x402690
  4026ac:	pop    esi
  4026ad:	ret    
  4026ae:	int3   
  4026af:	int3   
  4026b0:	push   ecx
  4026b1:	push   esi
  4026b2:	mov    esi,ecx
  4026b4:	push   edi
  4026b5:	lea    edi,[esi+0x1c]
  4026b8:	mov    DWORD PTR [esp+0x8],esi
  4026bc:	push   0x8
  4026be:	mov    DWORD PTR [esi],0x411d44
  4026c4:	mov    DWORD PTR [esp+0xc],edi
  4026c8:	mov    DWORD PTR [edi],0x0
  4026ce:	mov    DWORD PTR [edi+0x4],0x0
  4026d5:	mov    DWORD PTR [edi+0x8],0x0
  4026dc:	mov    DWORD PTR [edi+0xc],0x0
  4026e3:	mov    DWORD PTR [edi+0x10],0x0
  4026ea:	call   0x40e6cf
  4026ef:	add    esp,0x4
  4026f2:	mov    DWORD PTR [edi],eax
  4026f4:	test   eax,eax
  4026f6:	je     0x402705
  4026f8:	mov    DWORD PTR [eax],0x0
  4026fe:	mov    DWORD PTR [eax+0x4],0x0
  402705:	mov    eax,DWORD PTR [edi]
  402707:	mov    DWORD PTR [eax],edi
  402709:	mov    eax,DWORD PTR [esp+0x10]
  40270d:	push   eax
  40270e:	mov    DWORD PTR [esi+0x10],0x0
  402715:	mov    DWORD PTR [esi+0x14],0x0
  40271c:	mov    DWORD PTR [esi+0x18],eax
  40271f:	call   DWORD PTR ds:0x4112c8
  402725:	add    esp,0x4
  402728:	mov    DWORD PTR [esi+0x8],eax
  40272b:	mov    BYTE PTR [esi+0xc],0x1
  40272f:	mov    eax,esi
  402731:	mov    DWORD PTR [esi+0x4],0x0
  402738:	pop    edi
  402739:	pop    esi
  40273a:	pop    ecx
  40273b:	ret    0x4
  40273e:	int3   
  40273f:	int3   
  402740:	push   edi
  402741:	mov    edi,ecx
  402743:	cmp    BYTE PTR [edi+0xc],0x0
  402747:	mov    DWORD PTR [edi],0x411d44
  40274d:	je     0x40275b
  40274f:	push   DWORD PTR [edi+0x8]
  402752:	call   DWORD PTR ds:0x4112bc
  402758:	add    esp,0x4
  40275b:	mov    eax,DWORD PTR [edi+0x4]
  40275e:	test   eax,eax
  402760:	je     0x40276c
  402762:	push   eax
  402763:	call   DWORD PTR ds:0x411354
  402769:	add    esp,0x4
  40276c:	push   esi
  40276d:	lea    ecx,[edi+0x1c]
  402770:	call   0x402a00
  402775:	push   DWORD PTR [edi+0x1c]
  402778:	call   0x40e6ca
  40277d:	add    esp,0x4
  402780:	mov    DWORD PTR [edi+0x1c],0x0
  402787:	test   BYTE PTR [esp+0xc],0x1
  40278c:	pop    esi
  40278d:	je     0x40279a
  40278f:	push   0x30
  402791:	push   edi
  402792:	call   0x40e48c
  402797:	add    esp,0x8
  40279a:	mov    eax,edi
  40279c:	pop    edi
  40279d:	ret    0x4
  4027a0:	push   esi
  4027a1:	mov    esi,ecx
  4027a3:	cmp    BYTE PTR [esi+0xc],0x0
  4027a7:	mov    DWORD PTR [esi],0x411d44
  4027ad:	je     0x4027bb
  4027af:	push   DWORD PTR [esi+0x8]
  4027b2:	call   DWORD PTR ds:0x4112bc
  4027b8:	add    esp,0x4
  4027bb:	mov    eax,DWORD PTR [esi+0x4]
  4027be:	test   eax,eax
  4027c0:	je     0x4027cc
  4027c2:	push   eax
  4027c3:	call   DWORD PTR ds:0x411354
  4027c9:	add    esp,0x4
  4027cc:	lea    ecx,[esi+0x1c]
  4027cf:	call   0x402a00
  4027d4:	push   DWORD PTR [esi+0x1c]
  4027d7:	call   0x40e6ca
  4027dc:	add    esp,0x4
  4027df:	mov    DWORD PTR [esi+0x1c],0x0
  4027e6:	pop    esi
  4027e7:	ret    
  4027e8:	int3   
  4027e9:	int3   
  4027ea:	int3   
  4027eb:	int3   
  4027ec:	int3   
  4027ed:	int3   
  4027ee:	int3   
  4027ef:	int3   
  4027f0:	push   esi
  4027f1:	mov    esi,ecx
  4027f3:	mov    eax,DWORD PTR [esi+0x4]
  4027f6:	test   eax,eax
  4027f8:	je     0x402811
  4027fa:	push   eax
  4027fb:	push   0x1
  4027fd:	lea    eax,[esp+0x10]
  402801:	push   0x4
  402803:	push   eax
  402804:	call   DWORD PTR ds:0x41135c
  40280a:	add    esp,0x10
  40280d:	pop    esi
  40280e:	ret    0x4
  402811:	cmp    DWORD PTR [esi+0x8],0x0
  402815:	je     0x40282f
  402817:	push   0x4
  402819:	call   0x402930
  40281e:	mov    edx,DWORD PTR [esi+0x10]
  402821:	mov    ecx,DWORD PTR [esi+0x8]
  402824:	mov    eax,DWORD PTR [esp+0x8]
  402828:	mov    DWORD PTR [edx+ecx*1],eax
  40282b:	add    DWORD PTR [esi+0x10],0x4
  40282f:	pop    esi
  402830:	ret    0x4
  402833:	int3   
  402834:	int3   
  402835:	int3   
  402836:	int3   
  402837:	int3   
  402838:	int3   
  402839:	int3   
  40283a:	int3   
  40283b:	int3   
  40283c:	int3   
  40283d:	int3   
  40283e:	int3   
  40283f:	int3   
  402840:	push   esi
  402841:	mov    esi,ecx
  402843:	mov    eax,DWORD PTR [esi+0x4]
  402846:	test   eax,eax
  402848:	je     0x402861
  40284a:	push   eax
  40284b:	push   0x1
  40284d:	lea    eax,[esp+0x10]
  402851:	push   0x4
  402853:	push   eax
  402854:	call   DWORD PTR ds:0x41135c
  40285a:	add    esp,0x10
  40285d:	pop    esi
  40285e:	ret    0x4
  402861:	cmp    DWORD PTR [esi+0x8],0x0
  402865:	je     0x402883
  402867:	push   0x4
  402869:	call   0x402930
  40286e:	mov    ecx,DWORD PTR [esi+0x10]
  402871:	mov    eax,DWORD PTR [esi+0x8]
  402874:	movss  xmm0,DWORD PTR [esp+0x8]
  40287a:	movss  DWORD PTR [ecx+eax*1],xmm0
  40287f:	add    DWORD PTR [esi+0x10],0x4
  402883:	pop    esi
  402884:	ret    0x4
  402887:	int3   
  402888:	int3   
  402889:	int3   
  40288a:	int3   
  40288b:	int3   
  40288c:	int3   
  40288d:	int3   
  40288e:	int3   
  40288f:	int3   
  402890:	xor    eax,eax
  402892:	cmp    BYTE PTR [esp+0x4],al
  402896:	push   esi
  402897:	mov    esi,ecx
  402899:	setne  al
  40289c:	mov    DWORD PTR [esp+0x8],eax
  4028a0:	mov    eax,DWORD PTR [esi+0x4]
  4028a3:	test   eax,eax
  4028a5:	je     0x4028be
  4028a7:	push   eax
  4028a8:	push   0x1
  4028aa:	lea    eax,[esp+0x10]
  4028ae:	push   0x4
  4028b0:	push   eax
  4028b1:	call   DWORD PTR ds:0x41135c
  4028b7:	add    esp,0x10
  4028ba:	pop    esi
  4028bb:	ret    0x4
  4028be:	cmp    DWORD PTR [esi+0x8],0x0
  4028c2:	je     0x4028dc
  4028c4:	push   0x4
  4028c6:	call   0x402930
  4028cb:	mov    edx,DWORD PTR [esi+0x10]
  4028ce:	mov    ecx,DWORD PTR [esi+0x8]
  4028d1:	mov    eax,DWORD PTR [esp+0x8]
  4028d5:	mov    DWORD PTR [edx+ecx*1],eax
  4028d8:	add    DWORD PTR [esi+0x10],0x4
  4028dc:	pop    esi
  4028dd:	ret    0x4
  4028e0:	push   edi
  4028e1:	mov    edi,ecx
  4028e3:	mov    eax,DWORD PTR [edi+0x4]
  4028e6:	test   eax,eax
  4028e8:	je     0x402902
  4028ea:	push   eax
  4028eb:	push   0x1
  4028ed:	push   DWORD PTR [esp+0x14]
  4028f1:	push   DWORD PTR [esp+0x14]
  4028f5:	call   DWORD PTR ds:0x41135c
  4028fb:	add    esp,0x10
  4028fe:	pop    edi
  4028ff:	ret    0x8
  402902:	cmp    DWORD PTR [edi+0x8],0x0
  402906:	je     0x40292b
  402908:	push   esi
  402909:	mov    esi,DWORD PTR [esp+0x10]
  40290d:	push   esi
  40290e:	call   0x402930
  402913:	mov    eax,DWORD PTR [edi+0x10]
  402916:	add    eax,DWORD PTR [edi+0x8]
  402919:	push   esi
  40291a:	push   DWORD PTR [esp+0x10]
  40291e:	push   eax
  40291f:	call   0x410952
  402924:	add    esp,0xc
  402927:	add    DWORD PTR [edi+0x10],esi
  40292a:	pop    esi
  40292b:	pop    edi
  40292c:	ret    0x8
  40292f:	int3   
  402930:	sub    esp,0x400
  402936:	push   esi
  402937:	mov    esi,ecx
  402939:	mov    ecx,DWORD PTR [esp+0x408]
  402940:	mov    eax,DWORD PTR [esi+0x10]
  402943:	add    eax,ecx
  402945:	cmp    eax,DWORD PTR [esi+0x14]
  402948:	jb     0x40298a
  40294a:	mov    edx,DWORD PTR [esi+0x18]
  40294d:	mov    DWORD PTR [esi+0x14],eax
  402950:	cmp    eax,edx
  402952:	jbe    0x40298a
  402954:	lea    eax,[ecx+ecx*4]
  402957:	lea    eax,[edx+eax*2]
  40295a:	push   eax
  40295b:	push   DWORD PTR [esi+0x8]
  40295e:	mov    DWORD PTR [esi+0x18],eax
  402961:	call   DWORD PTR ds:0x4112cc
  402967:	add    esp,0x8
  40296a:	mov    DWORD PTR [esi+0x8],eax
  40296d:	test   eax,eax
  40296f:	jne    0x40298a
  402971:	mov    eax,DWORD PTR [esi+0x18]
  402974:	shr    eax,0xa
  402977:	push   eax
  402978:	lea    eax,[esp+0x8]
  40297c:	push   0x411b80
  402981:	push   eax
  402982:	call   0x4016f0
  402987:	add    esp,0xc
  40298a:	pop    esi
  40298b:	add    esp,0x400
  402991:	ret    0x4
  402994:	int3   
  402995:	int3   
  402996:	int3   
  402997:	int3   
  402998:	int3   
  402999:	int3   
  40299a:	int3   
  40299b:	int3   
  40299c:	int3   
  40299d:	int3   
  40299e:	int3   
  40299f:	int3   
  4029a0:	mov    eax,DWORD PTR [ecx+0x14]
  4029a3:	ret    
  4029a4:	int3   
  4029a5:	int3   
  4029a6:	int3   
  4029a7:	int3   
  4029a8:	int3   
  4029a9:	int3   
  4029aa:	int3   
  4029ab:	int3   
  4029ac:	int3   
  4029ad:	int3   
  4029ae:	int3   
  4029af:	int3   
  4029b0:	mov    eax,DWORD PTR [ecx+0x8]
  4029b3:	ret    
  4029b4:	int3   
  4029b5:	int3   
  4029b6:	int3   
  4029b7:	int3   
  4029b8:	int3   
  4029b9:	int3   
  4029ba:	int3   
  4029bb:	int3   
  4029bc:	int3   
  4029bd:	int3   
  4029be:	int3   
  4029bf:	int3   
  4029c0:	push   ecx
  4029c1:	push   esi
  4029c2:	push   DWORD PTR [esp+0x14]
  4029c6:	mov    esi,DWORD PTR [esp+0x10]
  4029ca:	push   DWORD PTR [esp+0x14]
  4029ce:	mov    DWORD PTR [esp+0xc],0x0
  4029d6:	push   ecx
  4029d7:	mov    DWORD PTR [esi+0x14],0xf
  4029de:	mov    ecx,esi
  4029e0:	mov    DWORD PTR [esi+0x10],0x0
  4029e7:	mov    BYTE PTR [esi],0x0
  4029ea:	call   0x4019d0
  4029ef:	mov    eax,esi
  4029f1:	pop    esi
  4029f2:	pop    ecx
  4029f3:	ret    0xc
  4029f6:	int3   
  4029f7:	int3   
  4029f8:	int3   
  4029f9:	int3   
  4029fa:	int3   
  4029fb:	int3   
  4029fc:	int3   
  4029fd:	int3   
  4029fe:	int3   
  4029ff:	int3   
  402a00:	push   esi
  402a01:	mov    esi,ecx
  402a03:	cmp    DWORD PTR [esi+0x10],0x0
  402a07:	je     0x402a23
  402a09:	nop    DWORD PTR [eax+0x0]
  402a10:	add    DWORD PTR [esi+0x10],0xffffffff
  402a14:	jne    0x402a1d
  402a16:	mov    DWORD PTR [esi+0xc],0x0
  402a1d:	cmp    DWORD PTR [esi+0x10],0x0
  402a21:	jne    0x402a10
  402a23:	push   edi
  402a24:	mov    edi,DWORD PTR [esi+0x8]
  402a27:	test   edi,edi
  402a29:	je     0x402a48
  402a2b:	nop    DWORD PTR [eax+eax*1+0x0]
  402a30:	mov    eax,DWORD PTR [esi+0x4]
  402a33:	dec    edi
  402a34:	mov    eax,DWORD PTR [eax+edi*4]
  402a37:	test   eax,eax
  402a39:	je     0x402a44
  402a3b:	push   eax
  402a3c:	call   0x40e6ca
  402a41:	add    esp,0x4
  402a44:	test   edi,edi
  402a46:	jne    0x402a30
  402a48:	mov    ecx,DWORD PTR [esi+0x4]
  402a4b:	pop    edi
  402a4c:	test   ecx,ecx
  402a4e:	je     0x402aa5
  402a50:	mov    eax,DWORD PTR [esi+0x8]
  402a53:	cmp    eax,0x3fffffff
  402a58:	jbe    0x402a60
  402a5a:	call   DWORD PTR ds:0x41130c
  402a60:	shl    eax,0x2
  402a63:	cmp    eax,0x1000
  402a68:	jb     0x402a9c
  402a6a:	test   cl,0x1f
  402a6d:	je     0x402a75
  402a6f:	call   DWORD PTR ds:0x41130c
  402a75:	mov    eax,DWORD PTR [ecx-0x4]
  402a78:	cmp    eax,ecx
  402a7a:	jb     0x402a82
  402a7c:	call   DWORD PTR ds:0x41130c
  402a82:	sub    ecx,eax
  402a84:	cmp    ecx,0x4
  402a87:	jae    0x402a8f
  402a89:	call   DWORD PTR ds:0x41130c
  402a8f:	cmp    ecx,0x23
  402a92:	jbe    0x402a9a
  402a94:	call   DWORD PTR ds:0x41130c
  402a9a:	mov    ecx,eax
  402a9c:	push   ecx
  402a9d:	call   0x40e6ca
  402aa2:	add    esp,0x4
  402aa5:	mov    DWORD PTR [esi+0x8],0x0
  402aac:	mov    DWORD PTR [esi+0x4],0x0
  402ab3:	pop    esi
  402ab4:	ret    
  402ab5:	int3   
  402ab6:	int3   
  402ab7:	int3   
  402ab8:	int3   
  402ab9:	int3   
  402aba:	int3   
  402abb:	int3   
  402abc:	int3   
  402abd:	int3   
  402abe:	int3   
  402abf:	int3   
  402ac0:	mov    eax,DWORD PTR [esp+0x8]
  402ac4:	mov    edx,DWORD PTR [esp+0x4]
  402ac8:	mov    DWORD PTR [ecx+0x8],eax
  402acb:	mov    al,BYTE PTR [esp+0xc]
  402acf:	mov    BYTE PTR [ecx+0xc],al
  402ad2:	mov    eax,ecx
  402ad4:	mov    DWORD PTR [ecx],edx
  402ad6:	mov    DWORD PTR [ecx+0x4],edx
  402ad9:	ret    0xc
  402adc:	int3   
  402add:	int3   
  402ade:	int3   
  402adf:	int3   
  402ae0:	cmp    BYTE PTR [ecx+0xc],0x0
  402ae4:	je     0x402aee
  402ae6:	push   DWORD PTR [ecx]
  402ae8:	call   0x40e78e
  402aed:	pop    ecx
  402aee:	ret    
  402aef:	int3   
  402af0:	push   esi
  402af1:	mov    esi,DWORD PTR [ecx+0x8]
  402af4:	test   esi,esi
  402af6:	je     0x402b4d
  402af8:	push   edi
  402af9:	mov    edi,DWORD PTR [esp+0xc]
  402afd:	cmp    esi,edi
  402aff:	je     0x402b43
  402b01:	mov    ecx,DWORD PTR [edi+0x4]
  402b04:	mov    eax,DWORD PTR [esi+0x4]
  402b07:	mov    dl,BYTE PTR [eax]
  402b09:	cmp    dl,BYTE PTR [ecx]
  402b0b:	jne    0x402b27
  402b0d:	test   dl,dl
  402b0f:	je     0x402b23
  402b11:	mov    dl,BYTE PTR [eax+0x1]
  402b14:	cmp    dl,BYTE PTR [ecx+0x1]
  402b17:	jne    0x402b27
  402b19:	add    eax,0x2
  402b1c:	add    ecx,0x2
  402b1f:	test   dl,dl
  402b21:	jne    0x402b07
  402b23:	xor    eax,eax
  402b25:	jmp    0x402b2c
  402b27:	sbb    eax,eax
  402b29:	or     eax,0x1
  402b2c:	test   eax,eax
  402b2e:	je     0x402b43
  402b30:	push   edi
  402b31:	mov    ecx,esi
  402b33:	call   0x402af0
  402b38:	test   al,al
  402b3a:	jne    0x402b43
  402b3c:	pop    edi
  402b3d:	xor    eax,eax
  402b3f:	pop    esi
  402b40:	ret    0x4
  402b43:	pop    edi
  402b44:	mov    eax,0x1
  402b49:	pop    esi
  402b4a:	ret    0x4
  402b4d:	xor    al,al
  402b4f:	pop    esi
  402b50:	ret    0x4
  402b53:	int3   
  402b54:	int3   
  402b55:	int3   
  402b56:	int3   
  402b57:	int3   
  402b58:	int3   
  402b59:	int3   
  402b5a:	int3   
  402b5b:	int3   
  402b5c:	int3   
  402b5d:	int3   
  402b5e:	int3   
  402b5f:	int3   
  402b60:	push   esi
  402b61:	push   edi
  402b62:	mov    edi,DWORD PTR [esp+0xc]
  402b66:	mov    esi,ecx
  402b68:	cmp    esi,edi
  402b6a:	je     0x402bac
  402b6c:	mov    eax,DWORD PTR [edi+0x4]
  402b6f:	mov    edx,DWORD PTR [esi+0x4]
  402b72:	mov    cl,BYTE PTR [edx]
  402b74:	cmp    cl,BYTE PTR [eax]
  402b76:	jne    0x402b92
  402b78:	test   cl,cl
  402b7a:	je     0x402b8e
  402b7c:	mov    cl,BYTE PTR [edx+0x1]
  402b7f:	cmp    cl,BYTE PTR [eax+0x1]
  402b82:	jne    0x402b92
  402b84:	add    edx,0x2
  402b87:	add    eax,0x2
  402b8a:	test   cl,cl
  402b8c:	jne    0x402b72
  402b8e:	xor    eax,eax
  402b90:	jmp    0x402b97
  402b92:	sbb    eax,eax
  402b94:	or     eax,0x1
  402b97:	test   eax,eax
  402b99:	je     0x402bac
  402b9b:	push   edi
  402b9c:	mov    ecx,esi
  402b9e:	call   0x402af0
  402ba3:	test   al,al
  402ba5:	jne    0x402bac
  402ba7:	pop    edi
  402ba8:	pop    esi
  402ba9:	ret    0x4
  402bac:	pop    edi
  402bad:	mov    al,0x1
  402baf:	pop    esi
  402bb0:	ret    0x4
  402bb3:	int3   
  402bb4:	int3   
  402bb5:	int3   
  402bb6:	int3   
  402bb7:	int3   
  402bb8:	int3   
  402bb9:	int3   
  402bba:	int3   
  402bbb:	int3   
  402bbc:	int3   
  402bbd:	int3   
  402bbe:	int3   
  402bbf:	int3   
  402bc0:	mov    eax,DWORD PTR [esp+0x4]
  402bc4:	mov    DWORD PTR [ecx],eax
  402bc6:	mov    eax,DWORD PTR [esp+0x8]
  402bca:	mov    DWORD PTR [ecx+0x4],eax
  402bcd:	mov    eax,DWORD PTR [esp+0xc]
  402bd1:	mov    DWORD PTR [ecx+0x8],eax
  402bd4:	mov    eax,ecx
  402bd6:	ret    0xc
  402bd9:	int3   
  402bda:	int3   
  402bdb:	int3   
  402bdc:	int3   
  402bdd:	int3   
  402bde:	int3   
  402bdf:	int3   
  402be0:	push   ebp
  402be1:	mov    ebp,esp
  402be3:	push   0xffffffff
  402be5:	push   0x410999
  402bea:	mov    eax,fs:0x0
  402bf0:	push   eax
  402bf1:	mov    DWORD PTR fs:0x0,esp
  402bf8:	sub    esp,0x1c
  402bfb:	mov    DWORD PTR [ebp-0x4],0x0
  402c02:	mov    DWORD PTR [ebp-0x10],0x0
  402c09:	push   esi
  402c0a:	mov    esi,DWORD PTR [ebp+0x8]
  402c0d:	mov    DWORD PTR [esi+0x10],0x0
  402c14:	mov    DWORD PTR [esi+0x14],0x0
  402c1b:	mov    DWORD PTR [esi+0x14],0xf
  402c22:	cmp    DWORD PTR [esi+0x14],0x10
  402c26:	mov    DWORD PTR [esi+0x10],0x0
  402c2d:	jb     0x402c33
  402c2f:	mov    eax,DWORD PTR [esi]
  402c31:	jmp    0x402c35
  402c33:	mov    eax,esi
  402c35:	push   edi
  402c36:	push   0xffffffff
  402c38:	push   0x0
  402c3a:	push   DWORD PTR [ebp+0xc]
  402c3d:	mov    ecx,esi
  402c3f:	mov    BYTE PTR [eax],0x0
  402c42:	call   0x4019d0
  402c47:	mov    DWORD PTR [ebp-0x4],0x0
  402c4e:	mov    eax,DWORD PTR [esi+0x10]
  402c51:	mov    DWORD PTR [ebp-0x10],0x1
  402c58:	mov    BYTE PTR [ebp+0xc],0x2f
  402c5c:	cmp    eax,0x1
  402c5f:	jb     0x402cb0
  402c61:	mov    edi,DWORD PTR [esi+0x14]
  402c64:	lea    ecx,[eax-0x1]
  402c67:	cmp    edi,0x10
  402c6a:	jb     0x402c70
  402c6c:	mov    eax,DWORD PTR [esi]
  402c6e:	jmp    0x402c72
  402c70:	mov    eax,esi
  402c72:	lea    edx,[eax+ecx*1]
  402c75:	cmp    BYTE PTR [edx],0x2f
  402c78:	jne    0x402c83
  402c7a:	mov    al,BYTE PTR [edx]
  402c7c:	lea    ecx,[ebp+0xc]
  402c7f:	cmp    al,BYTE PTR [ecx]
  402c81:	je     0x402c91
  402c83:	mov    ecx,esi
  402c85:	call   0x4019c0
  402c8a:	cmp    edx,eax
  402c8c:	je     0x402cb0
  402c8e:	dec    edx
  402c8f:	jmp    0x402c75
  402c91:	cmp    edi,0x10
  402c94:	jb     0x402c9a
  402c96:	mov    eax,DWORD PTR [esi]
  402c98:	jmp    0x402c9c
  402c9a:	mov    eax,esi
  402c9c:	sub    edx,eax
  402c9e:	cmp    edx,0xffffffff
  402ca1:	je     0x402cb0
  402ca3:	lea    eax,[edx+0x1]
  402ca6:	mov    ecx,esi
  402ca8:	push   eax
  402ca9:	push   0x0
  402cab:	call   0x401730
  402cb0:	mov    eax,DWORD PTR [esi+0x10]
  402cb3:	mov    BYTE PTR [ebp+0xc],0x5c
  402cb7:	cmp    eax,0x1
  402cba:	jb     0x402d0b
  402cbc:	mov    edi,DWORD PTR [esi+0x14]
  402cbf:	lea    ecx,[eax-0x1]
  402cc2:	cmp    edi,0x10
  402cc5:	jb     0x402ccb
  402cc7:	mov    eax,DWORD PTR [esi]
  402cc9:	jmp    0x402ccd
  402ccb:	mov    eax,esi
  402ccd:	lea    edx,[eax+ecx*1]
  402cd0:	cmp    BYTE PTR [edx],0x5c
  402cd3:	jne    0x402cde
  402cd5:	mov    al,BYTE PTR [edx]
  402cd7:	lea    ecx,[ebp+0xc]
  402cda:	cmp    al,BYTE PTR [ecx]
  402cdc:	je     0x402cec
  402cde:	mov    ecx,esi
  402ce0:	call   0x4019c0
  402ce5:	cmp    edx,eax
  402ce7:	je     0x402d0b
  402ce9:	dec    edx
  402cea:	jmp    0x402cd0
  402cec:	cmp    edi,0x10
  402cef:	jb     0x402cf5
  402cf1:	mov    eax,DWORD PTR [esi]
  402cf3:	jmp    0x402cf7
  402cf5:	mov    eax,esi
  402cf7:	sub    edx,eax
  402cf9:	cmp    edx,0xffffffff
  402cfc:	je     0x402d0b
  402cfe:	lea    eax,[edx+0x1]
  402d01:	mov    ecx,esi
  402d03:	push   eax
  402d04:	push   0x0
  402d06:	call   0x401730
  402d0b:	cmp    BYTE PTR [ebp+0x10],0x0
  402d0f:	pop    edi
  402d10:	je     0x402d3f
  402d12:	push   ecx
  402d13:	push   0x2e
  402d15:	mov    ecx,esi
  402d17:	call   0x402d50
  402d1c:	cmp    eax,0xffffffff
  402d1f:	je     0x402d3f
  402d21:	push   eax
  402d22:	push   0x0
  402d24:	lea    eax,[ebp-0x28]
  402d27:	mov    ecx,esi
  402d29:	push   eax
  402d2a:	call   0x4029c0
  402d2f:	push   eax
  402d30:	mov    ecx,esi
  402d32:	call   0x402db0
  402d37:	lea    ecx,[ebp-0x28]
  402d3a:	call   0x401ad0
  402d3f:	mov    ecx,DWORD PTR [ebp-0xc]
  402d42:	mov    eax,esi
  402d44:	pop    esi
  402d45:	mov    DWORD PTR fs:0x0,ecx
  402d4c:	mov    esp,ebp
  402d4e:	pop    ebp
  402d4f:	ret    
  402d50:	mov    eax,DWORD PTR [ecx+0x10]
  402d53:	push   ebx
  402d54:	push   edi
  402d55:	cmp    eax,0x1
  402d58:	jb     0x402d9b
  402d5a:	cmp    DWORD PTR [ecx+0x14],0x10
  402d5e:	lea    edx,[eax-0x1]
  402d61:	jb     0x402d67
  402d63:	mov    eax,DWORD PTR [ecx]
  402d65:	jmp    0x402d69
  402d67:	mov    eax,ecx
  402d69:	mov    bl,BYTE PTR [esp+0xc]
  402d6d:	add    edx,eax
  402d6f:	nop
  402d70:	cmp    BYTE PTR [edx],bl
  402d72:	jne    0x402d7e
  402d74:	mov    al,BYTE PTR [edx]
  402d76:	lea    edi,[esp+0xc]
  402d7a:	cmp    al,BYTE PTR [edi]
  402d7c:	je     0x402d8a
  402d7e:	call   0x4019c0
  402d83:	cmp    edx,eax
  402d85:	je     0x402d9b
  402d87:	dec    edx
  402d88:	jmp    0x402d70
  402d8a:	cmp    DWORD PTR [ecx+0x14],0x10
  402d8e:	jb     0x402d92
  402d90:	mov    ecx,DWORD PTR [ecx]
  402d92:	sub    edx,ecx
  402d94:	pop    edi
  402d95:	mov    eax,edx
  402d97:	pop    ebx
  402d98:	ret    0x8
  402d9b:	pop    edi
  402d9c:	or     eax,0xffffffff
  402d9f:	pop    ebx
  402da0:	ret    0x8
  402da3:	int3   
  402da4:	int3   
  402da5:	int3   
  402da6:	int3   
  402da7:	int3   
  402da8:	int3   
  402da9:	int3   
  402daa:	int3   
  402dab:	int3   
  402dac:	int3   
  402dad:	int3   
  402dae:	int3   
  402daf:	int3   
  402db0:	push   ebp
  402db1:	mov    ebp,esp
  402db3:	mov    eax,fs:0x0
  402db9:	push   0xffffffff
  402dbb:	push   0x4109b0
  402dc0:	push   eax
  402dc1:	mov    DWORD PTR fs:0x0,esp
  402dc8:	push   esi
  402dc9:	mov    esi,ecx
  402dcb:	cmp    esi,DWORD PTR [ebp+0x8]
  402dce:	je     0x402e44
  402dd0:	mov    eax,DWORD PTR [esi+0x14]
  402dd3:	cmp    eax,0x10
  402dd6:	jb     0x402e1d
  402dd8:	mov    ecx,DWORD PTR [esi]
  402dda:	inc    eax
  402ddb:	cmp    eax,0x1000
  402de0:	jb     0x402e14
  402de2:	test   cl,0x1f
  402de5:	je     0x402ded
  402de7:	call   DWORD PTR ds:0x41130c
  402ded:	mov    eax,DWORD PTR [ecx-0x4]
  402df0:	cmp    eax,ecx
  402df2:	jb     0x402dfa
  402df4:	call   DWORD PTR ds:0x41130c
  402dfa:	sub    ecx,eax
  402dfc:	cmp    ecx,0x4
  402dff:	jae    0x402e07
  402e01:	call   DWORD PTR ds:0x41130c
  402e07:	cmp    ecx,0x23
  402e0a:	jbe    0x402e12
  402e0c:	call   DWORD PTR ds:0x41130c
  402e12:	mov    ecx,eax
  402e14:	push   ecx
  402e15:	call   0x40e6ca
  402e1a:	add    esp,0x4
  402e1d:	mov    DWORD PTR [esi+0x14],0xf
  402e24:	cmp    DWORD PTR [esi+0x14],0x10
  402e28:	mov    DWORD PTR [esi+0x10],0x0
  402e2f:	jb     0x402e35
  402e31:	mov    eax,DWORD PTR [esi]
  402e33:	jmp    0x402e37
  402e35:	mov    eax,esi
  402e37:	push   DWORD PTR [ebp+0x8]
  402e3a:	mov    ecx,esi
  402e3c:	mov    BYTE PTR [eax],0x0
  402e3f:	call   0x401530
  402e44:	mov    ecx,DWORD PTR [ebp-0xc]
  402e47:	mov    eax,esi
  402e49:	mov    DWORD PTR fs:0x0,ecx
  402e50:	pop    esi
  402e51:	mov    esp,ebp
  402e53:	pop    ebp
  402e54:	ret    0x4
  402e57:	int3   
  402e58:	int3   
  402e59:	int3   
  402e5a:	int3   
  402e5b:	int3   
  402e5c:	int3   
  402e5d:	int3   
  402e5e:	int3   
  402e5f:	int3   
  402e60:	push   esi
  402e61:	mov    esi,ecx
  402e63:	mov    ecx,DWORD PTR [esi+0x10]
  402e66:	mov    eax,ecx
  402e68:	not    eax
  402e6a:	cmp    eax,0x1
  402e6d:	ja     0x402e7a
  402e6f:	push   0x411c84
  402e74:	call   DWORD PTR ds:0x411258
  402e7a:	push   edi
  402e7b:	lea    edi,[ecx+0x1]
  402e7e:	cmp    edi,0xfffffffe
  402e81:	jbe    0x402e8e
  402e83:	push   0x411c84
  402e88:	call   DWORD PTR ds:0x411258
  402e8e:	cmp    DWORD PTR [esi+0x14],edi
  402e91:	jae    0x402ead
  402e93:	push   ecx
  402e94:	push   edi
  402e95:	mov    ecx,esi
  402e97:	call   0x401820
  402e9c:	test   edi,edi
  402e9e:	je     0x402ef2
  402ea0:	cmp    DWORD PTR [esi+0x14],0x10
  402ea4:	mov    ecx,DWORD PTR [esi+0x10]
  402ea7:	jb     0x402ed0
  402ea9:	mov    eax,DWORD PTR [esi]
  402eab:	jmp    0x402ed2
  402ead:	test   edi,edi
  402eaf:	jne    0x402ea0
  402eb1:	mov    DWORD PTR [esi+0x10],edi
  402eb4:	cmp    DWORD PTR [esi+0x14],0x10
  402eb8:	jb     0x402ec6
  402eba:	mov    eax,DWORD PTR [esi]
  402ebc:	pop    edi
  402ebd:	mov    BYTE PTR [eax],0x0
  402ec0:	mov    eax,esi
  402ec2:	pop    esi
  402ec3:	ret    0x4
  402ec6:	mov    eax,esi
  402ec8:	pop    edi
  402ec9:	pop    esi
  402eca:	mov    BYTE PTR [eax],0x0
  402ecd:	ret    0x4
  402ed0:	mov    eax,esi
  402ed2:	mov    BYTE PTR [eax+ecx*1],0x5c
  402ed6:	cmp    DWORD PTR [esi+0x14],0x10
  402eda:	mov    DWORD PTR [esi+0x10],edi
  402edd:	jb     0x402eec
  402edf:	mov    eax,DWORD PTR [esi]
  402ee1:	mov    BYTE PTR [eax+edi*1],0x0
  402ee5:	mov    eax,esi
  402ee7:	pop    edi
  402ee8:	pop    esi
  402ee9:	ret    0x4
  402eec:	mov    eax,esi
  402eee:	mov    BYTE PTR [eax+edi*1],0x0
  402ef2:	pop    edi
  402ef3:	mov    eax,esi
  402ef5:	pop    esi
  402ef6:	ret    0x4
  402ef9:	int3   
  402efa:	int3   
  402efb:	int3   
  402efc:	int3   
  402efd:	int3   
  402efe:	int3   
  402eff:	int3   
  402f00:	sub    esp,0x10c
  402f06:	push   esi
  402f07:	mov    esi,DWORD PTR ds:0x411264
  402f0d:	lea    eax,[esp+0xc]
  402f11:	push   0x0
  402f13:	push   0x5
  402f15:	push   eax
  402f16:	push   0x0
  402f18:	mov    DWORD PTR [esp+0x14],0x0
  402f20:	call   esi
  402f22:	test   eax,eax
  402f24:	je     0x402f3b
  402f26:	lea    ecx,[esp+0xc]
  402f2a:	lea    edx,[ecx+0x1]
  402f2d:	nop    DWORD PTR [eax]
  402f30:	mov    al,BYTE PTR [ecx]
  402f32:	inc    ecx
  402f33:	test   al,al
  402f35:	jne    0x402f30
  402f37:	sub    ecx,edx
  402f39:	jne    0x402f48
  402f3b:	push   0x0
  402f3d:	push   0x5
  402f3f:	lea    eax,[esp+0x14]
  402f43:	push   eax
  402f44:	push   0x0
  402f46:	call   esi
  402f48:	mov    esi,DWORD PTR [esp+0x114]
  402f4f:	mov    DWORD PTR [esi+0x14],0xf
  402f56:	mov    DWORD PTR [esi+0x10],0x0
  402f5d:	mov    BYTE PTR [esi],0x0
  402f60:	cmp    BYTE PTR [esp+0xc],0x0
  402f65:	jne    0x402f6b
  402f67:	xor    ecx,ecx
  402f69:	jmp    0x402f7b
  402f6b:	lea    ecx,[esp+0xc]
  402f6f:	lea    edx,[ecx+0x1]
  402f72:	mov    al,BYTE PTR [ecx]
  402f74:	inc    ecx
  402f75:	test   al,al
  402f77:	jne    0x402f72
  402f79:	sub    ecx,edx
  402f7b:	push   ecx
  402f7c:	lea    eax,[esp+0x10]
  402f80:	mov    ecx,esi
  402f82:	push   eax
  402f83:	call   0x4015e0
  402f88:	xor    eax,eax
  402f8a:	cmp    DWORD PTR [esi+0x10],eax
  402f8d:	jbe    0x402fb9
  402f8f:	nop
  402f90:	mov    ecx,DWORD PTR [esi+0x14]
  402f93:	cmp    ecx,0x10
  402f96:	jb     0x402f9c
  402f98:	mov    edx,DWORD PTR [esi]
  402f9a:	jmp    0x402f9e
  402f9c:	mov    edx,esi
  402f9e:	cmp    BYTE PTR [edx+eax*1],0x2f
  402fa2:	jne    0x402fb3
  402fa4:	cmp    ecx,0x10
  402fa7:	jb     0x402fad
  402fa9:	mov    ecx,DWORD PTR [esi]
  402fab:	jmp    0x402faf
  402fad:	mov    ecx,esi
  402faf:	mov    BYTE PTR [ecx+eax*1],0x5c
  402fb3:	inc    eax
  402fb4:	cmp    eax,DWORD PTR [esi+0x10]
  402fb7:	jb     0x402f90
  402fb9:	mov    eax,esi
  402fbb:	pop    esi
  402fbc:	add    esp,0x10c
  402fc2:	ret    
  402fc3:	int3   
  402fc4:	int3   
  402fc5:	int3   
  402fc6:	int3   
  402fc7:	int3   
  402fc8:	int3   
  402fc9:	int3   
  402fca:	int3   
  402fcb:	int3   
  402fcc:	int3   
  402fcd:	int3   
  402fce:	int3   
  402fcf:	int3   
  402fd0:	push   ebp
  402fd1:	mov    ebp,esp
  402fd3:	push   0xffffffff
  402fd5:	push   0x410999
  402fda:	mov    eax,fs:0x0
  402fe0:	push   eax
  402fe1:	mov    DWORD PTR fs:0x0,esp
  402fe8:	push   ecx
  402fe9:	mov    DWORD PTR [ebp-0x4],0x0
  402ff0:	mov    DWORD PTR [ebp-0x10],0x0
  402ff7:	push   esi
  402ff8:	mov    esi,DWORD PTR [ebp+0x8]
  402ffb:	mov    DWORD PTR [esi+0x10],0x0
  403002:	mov    DWORD PTR [esi+0x14],0x0
  403009:	mov    DWORD PTR [esi+0x14],0xf
  403010:	cmp    DWORD PTR [esi+0x14],0x10
  403014:	mov    DWORD PTR [esi+0x10],0x0
  40301b:	jb     0x403021
  40301d:	mov    eax,DWORD PTR [esi]
  40301f:	jmp    0x403023
  403021:	mov    eax,esi
  403023:	mov    edx,DWORD PTR [ebp+0xc]
  403026:	mov    BYTE PTR [eax],0x0
  403029:	cmp    BYTE PTR [edx],0x0
  40302c:	jne    0x403032
  40302e:	xor    ecx,ecx
  403030:	jmp    0x403042
  403032:	mov    ecx,edx
  403034:	push   edi
  403035:	lea    edi,[ecx+0x1]
  403038:	mov    al,BYTE PTR [ecx]
  40303a:	inc    ecx
  40303b:	test   al,al
  40303d:	jne    0x403038
  40303f:	sub    ecx,edi
  403041:	pop    edi
  403042:	push   ecx
  403043:	push   edx
  403044:	mov    ecx,esi
  403046:	call   0x4015e0
  40304b:	mov    DWORD PTR [ebp-0x4],0x0
  403052:	mov    ecx,DWORD PTR [esi+0x10]
  403055:	mov    DWORD PTR [ebp-0x10],0x1
  40305c:	cmp    ecx,0x1
  40305f:	jbe    0x403090
  403061:	mov    edx,DWORD PTR [esi+0x14]
  403064:	cmp    edx,0x10
  403067:	jb     0x40306d
  403069:	mov    eax,DWORD PTR [esi]
  40306b:	jmp    0x40306f
  40306d:	mov    eax,esi
  40306f:	cmp    BYTE PTR [eax+ecx*1-0x1],0x5c
  403074:	je     0x403090
  403076:	cmp    edx,0x10
  403079:	jb     0x40307f
  40307b:	mov    eax,DWORD PTR [esi]
  40307d:	jmp    0x403081
  40307f:	mov    eax,esi
  403081:	cmp    BYTE PTR [eax+ecx*1-0x1],0x2f
  403086:	je     0x403090
  403088:	push   ecx
  403089:	mov    ecx,esi
  40308b:	call   0x402e60
  403090:	mov    ecx,DWORD PTR [ebp-0xc]
  403093:	mov    eax,esi
  403095:	pop    esi
  403096:	mov    DWORD PTR fs:0x0,ecx
  40309d:	mov    esp,ebp
  40309f:	pop    ebp
  4030a0:	ret    
  4030a1:	int3   
  4030a2:	int3   
  4030a3:	int3   
  4030a4:	int3   
  4030a5:	int3   
  4030a6:	int3   
  4030a7:	int3   
  4030a8:	int3   
  4030a9:	int3   
  4030aa:	int3   
  4030ab:	int3   
  4030ac:	int3   
  4030ad:	int3   
  4030ae:	int3   
  4030af:	int3   
  4030b0:	push   ebp
  4030b1:	mov    ebp,esp
  4030b3:	push   0xffffffff
  4030b5:	push   0x4109d8
  4030ba:	mov    eax,fs:0x0
  4030c0:	push   eax
  4030c1:	mov    DWORD PTR fs:0x0,esp
  4030c8:	sub    esp,0x50
  4030cb:	push   ebx
  4030cc:	push   esi
  4030cd:	xor    ebx,ebx
  4030cf:	mov    BYTE PTR [ebp-0x10],0x3b
  4030d3:	push   edi
  4030d4:	mov    DWORD PTR [ebp-0x14],ebx
  4030d7:	mov    edx,DWORD PTR [ebp+0x8]
  4030da:	mov    esi,DWORD PTR [edx+0x10]
  4030dd:	cmp    ebx,esi
  4030df:	jae    0x403138
  4030e1:	sub    esi,ebx
  4030e3:	cmp    esi,0x1
  4030e6:	jb     0x403138
  4030e8:	cmp    DWORD PTR [edx+0x14],0x10
  4030ec:	jb     0x4030f2
  4030ee:	mov    eax,DWORD PTR [edx]
  4030f0:	jmp    0x4030f4
  4030f2:	mov    eax,edx
  4030f4:	add    ebx,eax
  4030f6:	test   esi,esi
  4030f8:	je     0x403135
  4030fa:	push   esi
  4030fb:	push   0x3b
  4030fd:	push   ebx
  4030fe:	call   DWORD PTR ds:0x4112a8
  403104:	mov    edi,eax
  403106:	add    esp,0xc
  403109:	test   edi,edi
  40310b:	je     0x403135
  40310d:	mov    cl,BYTE PTR [edi]
  40310f:	lea    eax,[ebp-0x10]
  403112:	cmp    cl,BYTE PTR [eax]
  403114:	je     0x403120
  403116:	sub    ebx,edi
  403118:	dec    ebx
  403119:	add    esi,ebx
  40311b:	lea    ebx,[edi+0x1]
  40311e:	jmp    0x4030f6
  403120:	mov    edx,DWORD PTR [ebp+0x8]
  403123:	cmp    DWORD PTR [edx+0x14],0x10
  403127:	jb     0x40312f
  403129:	mov    eax,DWORD PTR [edx]
  40312b:	sub    edi,eax
  40312d:	jmp    0x40313b
  40312f:	mov    eax,edx
  403131:	sub    edi,eax
  403133:	jmp    0x40313b
  403135:	mov    edx,DWORD PTR [ebp+0x8]
  403138:	or     edi,0xffffffff
  40313b:	mov    ecx,DWORD PTR [ebp-0x14]
  40313e:	or     eax,0xffffffff
  403141:	cmp    edi,0xffffffff
  403144:	jae    0x40314a
  403146:	mov    eax,edi
  403148:	sub    eax,ecx
  40314a:	push   eax
  40314b:	push   ecx
  40314c:	lea    eax,[ebp-0x44]
  40314f:	mov    ecx,edx
  403151:	push   eax
  403152:	call   0x4029c0
  403157:	mov    DWORD PTR [ebp-0x4],0x0
  40315e:	cmp    DWORD PTR [ebp-0x34],0x0
  403162:	je     0x40331a
  403168:	cmp    DWORD PTR [ebp-0x30],0x10
  40316c:	lea    eax,[ebp-0x44]
  40316f:	cmovae eax,DWORD PTR [ebp-0x44]
  403173:	push   eax
  403174:	lea    eax,[ebp-0x5c]
  403177:	push   eax
  403178:	call   0x402fd0
  40317d:	add    esp,0x8
  403180:	mov    edx,eax
  403182:	mov    BYTE PTR [ebp-0x4],0x1
  403186:	cmp    DWORD PTR [edx+0x14],0x10
  40318a:	jb     0x40318e
  40318c:	mov    edx,DWORD PTR [edx]
  40318e:	mov    DWORD PTR [ebp-0x18],0xf
  403195:	mov    DWORD PTR [ebp-0x1c],0x0
  40319c:	mov    BYTE PTR [ebp-0x2c],0x0
  4031a0:	cmp    BYTE PTR [edx],0x0
  4031a3:	jne    0x4031a9
  4031a5:	xor    ecx,ecx
  4031a7:	jmp    0x4031b9
  4031a9:	mov    ecx,edx
  4031ab:	lea    esi,[ecx+0x1]
  4031ae:	xchg   ax,ax
  4031b0:	mov    al,BYTE PTR [ecx]
  4031b2:	inc    ecx
  4031b3:	test   al,al
  4031b5:	jne    0x4031b0
  4031b7:	sub    ecx,esi
  4031b9:	push   ecx
  4031ba:	push   edx
  4031bb:	lea    ecx,[ebp-0x2c]
  4031be:	call   0x4015e0
  4031c3:	mov    ebx,DWORD PTR [ebp+0xc]
  4031c6:	lea    ecx,[ebp-0x2c]
  4031c9:	mov    BYTE PTR [ebp-0x4],0x2
  4031cd:	mov    eax,DWORD PTR [ebx+0x4]
  4031d0:	cmp    ecx,eax
  4031d2:	jae    0x403288
  4031d8:	mov    edx,DWORD PTR [ebx]
  4031da:	cmp    edx,ecx
  4031dc:	ja     0x403288
  4031e2:	sub    ecx,edx
  4031e4:	mov    eax,0x2aaaaaab
  4031e9:	imul   ecx
  4031eb:	mov    eax,DWORD PTR [ebx+0x4]
  4031ee:	sar    edx,0x2
  4031f1:	mov    esi,edx
  4031f3:	shr    esi,0x1f
  4031f6:	add    esi,edx
  4031f8:	cmp    eax,DWORD PTR [ebx+0x8]
  4031fb:	jne    0x403205
  4031fd:	push   ecx
  4031fe:	mov    ecx,ebx
  403200:	call   0x403350
  403205:	mov    eax,DWORD PTR [ebx]
  403207:	lea    ecx,[esi+esi*2]
  40320a:	mov    ebx,DWORD PTR [ebx+0x4]
  40320d:	lea    esi,[eax+ecx*8]
  403210:	test   ebx,ebx
  403212:	je     0x40327c
  403214:	mov    DWORD PTR [ebx+0x14],0xf
  40321b:	mov    DWORD PTR [ebx+0x10],0x0
  403222:	cmp    DWORD PTR [ebx+0x14],0x10
  403226:	jb     0x40322c
  403228:	mov    eax,DWORD PTR [ebx]
  40322a:	jmp    0x40322e
  40322c:	mov    eax,ebx
  40322e:	mov    BYTE PTR [eax],0x0
  403231:	cmp    DWORD PTR [esi+0x14],0x10
  403235:	jae    0x40324d
  403237:	mov    eax,DWORD PTR [esi+0x10]
  40323a:	add    eax,0x1
  40323d:	je     0x403257
  40323f:	push   eax
  403240:	push   esi
  403241:	push   ebx
  403242:	call   DWORD PTR ds:0x4112b0
  403248:	add    esp,0xc
  40324b:	jmp    0x403257
  40324d:	mov    eax,DWORD PTR [esi]
  40324f:	mov    DWORD PTR [ebx],eax
  403251:	mov    DWORD PTR [esi],0x0
  403257:	mov    eax,DWORD PTR [esi+0x10]
  40325a:	mov    DWORD PTR [ebx+0x10],eax
  40325d:	mov    eax,DWORD PTR [esi+0x14]
  403260:	mov    DWORD PTR [ebx+0x14],eax
  403263:	mov    DWORD PTR [esi+0x14],0xf
  40326a:	cmp    DWORD PTR [esi+0x14],0x10
  40326e:	mov    DWORD PTR [esi+0x10],0x0
  403275:	jb     0x403279
  403277:	mov    esi,DWORD PTR [esi]
  403279:	mov    BYTE PTR [esi],0x0
  40327c:	mov    eax,DWORD PTR [ebp+0xc]
  40327f:	add    DWORD PTR [eax+0x4],0x18
  403283:	jmp    0x403306
  403288:	cmp    eax,DWORD PTR [ebx+0x8]
  40328b:	jne    0x403295
  40328d:	push   ecx
  40328e:	mov    ecx,ebx
  403290:	call   0x403350
  403295:	mov    esi,DWORD PTR [ebx+0x4]
  403298:	test   esi,esi
  40329a:	je     0x403302
  40329c:	mov    DWORD PTR [esi+0x14],0xf
  4032a3:	mov    DWORD PTR [esi+0x10],0x0
  4032aa:	cmp    DWORD PTR [esi+0x14],0x10
  4032ae:	jb     0x4032b4
  4032b0:	mov    eax,DWORD PTR [esi]
  4032b2:	jmp    0x4032b6
  4032b4:	mov    eax,esi
  4032b6:	mov    BYTE PTR [eax],0x0
  4032b9:	cmp    DWORD PTR [ebp-0x18],0x10
  4032bd:	jae    0x4032d8
  4032bf:	mov    eax,DWORD PTR [ebp-0x1c]
  4032c2:	add    eax,0x1
  4032c5:	je     0x4032e4
  4032c7:	push   eax
  4032c8:	lea    eax,[ebp-0x2c]
  4032cb:	push   eax
  4032cc:	push   esi
  4032cd:	call   DWORD PTR ds:0x4112b0
  4032d3:	add    esp,0xc
  4032d6:	jmp    0x4032e4
  4032d8:	mov    eax,DWORD PTR [ebp-0x2c]
  4032db:	mov    DWORD PTR [esi],eax
  4032dd:	mov    DWORD PTR [ebp-0x2c],0x0
  4032e4:	mov    eax,DWORD PTR [ebp-0x1c]
  4032e7:	mov    DWORD PTR [esi+0x10],eax
  4032ea:	mov    eax,DWORD PTR [ebp-0x18]
  4032ed:	mov    DWORD PTR [esi+0x14],eax
  4032f0:	mov    DWORD PTR [ebp-0x18],0xf
  4032f7:	mov    DWORD PTR [ebp-0x1c],0x0
  4032fe:	mov    BYTE PTR [ebp-0x2c],0x0
  403302:	add    DWORD PTR [ebx+0x4],0x18
  403306:	lea    ecx,[ebp-0x2c]
  403309:	call   0x401ad0
  40330e:	lea    ecx,[ebp-0x5c]
  403311:	mov    BYTE PTR [ebp-0x4],0x0
  403315:	call   0x401ad0
  40331a:	lea    ecx,[ebp-0x44]
  40331d:	cmp    edi,0xffffffff
  403320:	jae    0x403339
  403322:	lea    ebx,[edi+0x1]
  403325:	mov    DWORD PTR [ebp-0x4],0xffffffff
  40332c:	mov    DWORD PTR [ebp-0x14],ebx
  40332f:	call   0x401ad0
  403334:	jmp    0x4030d7
  403339:	call   0x401ad0
  40333e:	mov    ecx,DWORD PTR [ebp-0xc]
  403341:	pop    edi
  403342:	pop    esi
  403343:	pop    ebx
  403344:	mov    DWORD PTR fs:0x0,ecx
  40334b:	mov    esp,ebp
  40334d:	pop    ebp
  40334e:	ret    
  40334f:	int3   
  403350:	push   ebx
  403351:	mov    ebx,ecx
  403353:	mov    eax,0x2aaaaaab
  403358:	push   esi
  403359:	mov    ecx,DWORD PTR [ebx+0x8]
  40335c:	mov    edx,ecx
  40335e:	mov    esi,DWORD PTR [ebx+0x4]
  403361:	sub    edx,esi
  403363:	imul   edx
  403365:	sar    edx,0x2
  403368:	mov    eax,edx
  40336a:	shr    eax,0x1f
  40336d:	add    eax,edx
  40336f:	cmp    eax,0x1
  403372:	jae    0x4033d4
  403374:	sub    esi,DWORD PTR [ebx]
  403376:	mov    eax,0x2aaaaaab
  40337b:	imul   esi
  40337d:	push   ebp
  40337e:	sar    edx,0x2
  403381:	mov    ebp,0xaaaaaaa
  403386:	push   edi
  403387:	mov    edi,edx
  403389:	mov    eax,ebp
  40338b:	shr    edi,0x1f
  40338e:	add    edi,edx
  403390:	sub    eax,edi
  403392:	cmp    eax,0x1
  403395:	jae    0x4033a2
  403397:	push   0x411c44
  40339c:	call   DWORD PTR ds:0x411258
  4033a2:	sub    ecx,DWORD PTR [ebx]
  4033a4:	mov    eax,0x2aaaaaab
  4033a9:	imul   ecx
  4033ab:	xor    ecx,ecx
  4033ad:	inc    edi
  4033ae:	sar    edx,0x2
  4033b1:	mov    esi,edx
  4033b3:	shr    esi,0x1f
  4033b6:	add    esi,edx
  4033b8:	mov    eax,esi
  4033ba:	shr    eax,1
  4033bc:	sub    ebp,eax
  4033be:	add    eax,esi
  4033c0:	cmp    ebp,esi
  4033c2:	cmovae ecx,eax
  4033c5:	cmp    ecx,edi
  4033c7:	cmovae edi,ecx
  4033ca:	mov    ecx,ebx
  4033cc:	push   edi
  4033cd:	call   0x4033e0
  4033d2:	pop    edi
  4033d3:	pop    ebp
  4033d4:	pop    esi
  4033d5:	pop    ebx
  4033d6:	ret    0x4
  4033d9:	int3   
  4033da:	int3   
  4033db:	int3   
  4033dc:	int3   
  4033dd:	int3   
  4033de:	int3   
  4033df:	int3   
  4033e0:	push   ecx
  4033e1:	push   ebx
  4033e2:	mov    ebx,DWORD PTR [esp+0xc]
  4033e6:	push   ebp
  4033e7:	mov    ebp,ecx
  4033e9:	push   esi
  4033ea:	push   edi
  4033eb:	test   ebx,ebx
  4033ed:	jne    0x4033f3
  4033ef:	xor    edi,edi
  4033f1:	jmp    0x40343a
  4033f3:	cmp    ebx,0xaaaaaaa
  4033f9:	jbe    0x403401
  4033fb:	call   DWORD PTR ds:0x411254
  403401:	lea    eax,[ebx+ebx*2]
  403404:	shl    eax,0x3
  403407:	cmp    eax,0x1000
  40340c:	jb     0x40342f
  40340e:	lea    ecx,[eax+0x23]
  403411:	cmp    ecx,eax
  403413:	ja     0x40341b
  403415:	call   DWORD PTR ds:0x411254
  40341b:	push   ecx
  40341c:	call   0x40e6cf
  403421:	add    esp,0x4
  403424:	lea    edi,[eax+0x23]
  403427:	and    edi,0xffffffe0
  40342a:	mov    DWORD PTR [edi-0x4],eax
  40342d:	jmp    0x40343a
  40342f:	push   eax
  403430:	call   0x40e6cf
  403435:	add    esp,0x4
  403438:	mov    edi,eax
  40343a:	mov    edx,DWORD PTR [ebp+0x4]
  40343d:	push   ecx
  40343e:	mov    BYTE PTR [esp+0x1c],0x0
  403443:	push   DWORD PTR [esp+0x1c]
  403447:	push   ecx
  403448:	mov    ecx,DWORD PTR [ebp+0x0]
  40344b:	push   edi
  40344c:	call   0x4035b0
  403451:	mov    esi,DWORD PTR [ebp+0x0]
  403454:	mov    eax,0x2aaaaaab
  403459:	mov    ecx,DWORD PTR [ebp+0x4]
  40345c:	add    esp,0x10
  40345f:	sub    ecx,esi
  403461:	imul   ecx
  403463:	sar    edx,0x2
  403466:	mov    ecx,edx
  403468:	shr    ecx,0x1f
  40346b:	add    ecx,edx
  40346d:	mov    DWORD PTR [esp+0x18],ecx
  403471:	test   esi,esi
  403473:	je     0x4034ab
  403475:	push   DWORD PTR [esp+0x18]
  403479:	mov    edx,DWORD PTR [ebp+0x4]
  40347c:	push   ecx
  40347d:	mov    ecx,esi
  40347f:	call   0x403530
  403484:	mov    esi,DWORD PTR [ebp+0x0]
  403487:	mov    eax,0x2aaaaaab
  40348c:	mov    ecx,DWORD PTR [ebp+0x8]
  40348f:	add    esp,0x8
  403492:	sub    ecx,esi
  403494:	imul   ecx
  403496:	sar    edx,0x2
  403499:	mov    eax,edx
  40349b:	shr    eax,0x1f
  40349e:	add    eax,edx
  4034a0:	push   eax
  4034a1:	push   esi
  4034a2:	call   0x4034d0
  4034a7:	mov    ecx,DWORD PTR [esp+0x18]
  4034ab:	lea    eax,[ebx+ebx*2]
  4034ae:	lea    eax,[edi+eax*8]
  4034b1:	mov    DWORD PTR [ebp+0x8],eax
  4034b4:	lea    eax,[ecx+ecx*2]
  4034b7:	lea    eax,[edi+eax*8]
  4034ba:	mov    DWORD PTR [ebp+0x4],eax
  4034bd:	mov    DWORD PTR [ebp+0x0],edi
  4034c0:	pop    edi
  4034c1:	pop    esi
  4034c2:	pop    ebp
  4034c3:	pop    ebx
  4034c4:	pop    ecx
  4034c5:	ret    0x4
  4034c8:	int3   
  4034c9:	int3   
  4034ca:	int3   
  4034cb:	int3   
  4034cc:	int3   
  4034cd:	int3   
  4034ce:	int3   
  4034cf:	int3   
  4034d0:	mov    eax,DWORD PTR [esp+0x8]
  4034d4:	mov    ecx,DWORD PTR [esp+0x4]
  4034d8:	cmp    eax,0xaaaaaaa
  4034dd:	jbe    0x4034e5
  4034df:	call   DWORD PTR ds:0x41130c
  4034e5:	lea    eax,[eax+eax*2]
  4034e8:	shl    eax,0x3
  4034eb:	cmp    eax,0x1000
  4034f0:	jb     0x403524
  4034f2:	test   cl,0x1f
  4034f5:	je     0x4034fd
  4034f7:	call   DWORD PTR ds:0x41130c
  4034fd:	mov    eax,DWORD PTR [ecx-0x4]
  403500:	cmp    eax,ecx
  403502:	jb     0x40350a
  403504:	call   DWORD PTR ds:0x41130c
  40350a:	sub    ecx,eax
  40350c:	cmp    ecx,0x4
  40350f:	jae    0x403517
  403511:	call   DWORD PTR ds:0x41130c
  403517:	cmp    ecx,0x23
  40351a:	jbe    0x403522
  40351c:	call   DWORD PTR ds:0x41130c
  403522:	mov    ecx,eax
  403524:	push   ecx
  403525:	call   0x40e6ca
  40352a:	pop    ecx
  40352b:	ret    0x8
  40352e:	int3   
  40352f:	int3   
  403530:	push   edi
  403531:	mov    edi,edx
  403533:	cmp    ecx,edi
  403535:	je     0x40359d
  403537:	push   esi
  403538:	lea    esi,[ecx+0x14]
  40353b:	nop    DWORD PTR [eax+eax*1+0x0]
  403540:	mov    eax,DWORD PTR [esi]
  403542:	cmp    eax,0x10
  403545:	jb     0x403575
  403547:	mov    ecx,DWORD PTR [esi-0x14]
  40354a:	inc    eax
  40354b:	cmp    eax,0x1000
  403550:	jb     0x40356c
  403552:	test   cl,0x1f
  403555:	jne    0x40359f
  403557:	mov    eax,DWORD PTR [ecx-0x4]
  40355a:	cmp    eax,ecx
  40355c:	jae    0x40359f
  40355e:	sub    ecx,eax
  403560:	cmp    ecx,0x4
  403563:	jb     0x40359f
  403565:	cmp    ecx,0x23
  403568:	ja     0x40359f
  40356a:	mov    ecx,eax
  40356c:	push   ecx
  40356d:	call   0x40e6ca
  403572:	add    esp,0x4
  403575:	mov    DWORD PTR [esi],0xf
  40357b:	cmp    DWORD PTR [esi],0x10
  40357e:	mov    DWORD PTR [esi-0x4],0x0
  403585:	jb     0x40358c
  403587:	mov    eax,DWORD PTR [esi-0x14]
  40358a:	jmp    0x40358f
  40358c:	lea    eax,[esi-0x14]
  40358f:	add    esi,0x18
  403592:	mov    BYTE PTR [eax],0x0
  403595:	lea    eax,[esi-0x14]
  403598:	cmp    eax,edi
  40359a:	jne    0x403540
  40359c:	pop    esi
  40359d:	pop    edi
  40359e:	ret    
  40359f:	call   DWORD PTR ds:0x41130c
  4035a5:	int3   
  4035a6:	int3   
  4035a7:	int3   
  4035a8:	int3   
  4035a9:	int3   
  4035aa:	int3   
  4035ab:	int3   
  4035ac:	int3   
  4035ad:	int3   
  4035ae:	int3   
  4035af:	int3   
  4035b0:	push   ebx
  4035b1:	mov    ebx,edx
  4035b3:	cmp    ecx,ebx
  4035b5:	je     0x403647
  4035bb:	push   ebp
  4035bc:	mov    ebp,DWORD PTR ds:0x4112b0
  4035c2:	push   esi
  4035c3:	push   edi
  4035c4:	mov    edi,DWORD PTR [esp+0x14]
  4035c8:	lea    esi,[ecx+0x14]
  4035cb:	nop    DWORD PTR [eax+eax*1+0x0]
  4035d0:	test   edi,edi
  4035d2:	je     0x403633
  4035d4:	mov    DWORD PTR [edi+0x14],0xf
  4035db:	mov    DWORD PTR [edi+0x10],0x0
  4035e2:	mov    BYTE PTR [edi],0x0
  4035e5:	cmp    DWORD PTR [esi],0x10
  4035e8:	jae    0x4035ff
  4035ea:	mov    eax,DWORD PTR [esi-0x4]
  4035ed:	add    eax,0x1
  4035f0:	je     0x40360b
  4035f2:	push   eax
  4035f3:	lea    eax,[esi-0x14]
  4035f6:	push   eax
  4035f7:	push   edi
  4035f8:	call   ebp
  4035fa:	add    esp,0xc
  4035fd:	jmp    0x40360b
  4035ff:	mov    eax,DWORD PTR [esi-0x14]
  403602:	mov    DWORD PTR [edi],eax
  403604:	mov    DWORD PTR [esi-0x14],0x0
  40360b:	mov    eax,DWORD PTR [esi-0x4]
  40360e:	mov    DWORD PTR [edi+0x10],eax
  403611:	mov    eax,DWORD PTR [esi]
  403613:	mov    DWORD PTR [edi+0x14],eax
  403616:	mov    DWORD PTR [esi],0xf
  40361c:	cmp    DWORD PTR [esi],0x10
  40361f:	mov    DWORD PTR [esi-0x4],0x0
  403626:	jb     0x40362d
  403628:	mov    eax,DWORD PTR [esi-0x14]
  40362b:	jmp    0x403630
  40362d:	lea    eax,[esi-0x14]
  403630:	mov    BYTE PTR [eax],0x0
  403633:	add    esi,0x18
  403636:	add    edi,0x18
  403639:	lea    ecx,[esi-0x14]
  40363c:	cmp    ecx,ebx
  40363e:	jne    0x4035d0
  403640:	mov    eax,edi
  403642:	pop    edi
  403643:	pop    esi
  403644:	pop    ebp
  403645:	pop    ebx
  403646:	ret    
  403647:	mov    eax,DWORD PTR [esp+0x8]
  40364b:	pop    ebx
  40364c:	ret    
  40364d:	int3   
  40364e:	int3   
  40364f:	int3   
  403650:	push   ebp
  403651:	mov    ebp,esp
  403653:	push   0xffffffff
  403655:	push   0x4109f8
  40365a:	mov    eax,fs:0x0
  403660:	push   eax
  403661:	mov    DWORD PTR fs:0x0,esp
  403668:	sub    esp,0x28
  40366b:	movaps xmm0,XMMWORD PTR ds:0x411d80
  403672:	push   esi
  403673:	movups XMMWORD PTR [ebp-0x34],xmm0
  403677:	mov    DWORD PTR [ebp-0x18],0x0
  40367e:	mov    DWORD PTR [ebp-0x14],0x0
  403685:	mov    DWORD PTR [ebp-0x10],0x0
  40368c:	push   ecx
  40368d:	lea    ecx,[ebp-0x18]
  403690:	mov    DWORD PTR [ebp-0x4],0x0
  403697:	call   0x402360
  40369c:	mov    ecx,DWORD PTR [ebp-0x18]
  40369f:	xorps  xmm2,xmm2
  4036a2:	movss  xmm3,DWORD PTR ds:0x411d60
  4036aa:	movss  xmm0,DWORD PTR ds:0x411d70
  4036b2:	movss  xmm1,DWORD PTR ds:0x411d6c
  4036ba:	unpcklps xmm0,xmm3
  4036bd:	movq   QWORD PTR [ecx],xmm0
  4036c1:	movss  xmm0,DWORD PTR ds:0x411d64
  4036c9:	unpcklps xmm0,xmm3
  4036cc:	mov    DWORD PTR [ebp-0x1c],0x0
  4036d3:	mov    eax,DWORD PTR [ebp-0x1c]
  4036d6:	mov    DWORD PTR [ecx+0x8],eax
  4036d9:	movq   QWORD PTR [ecx+0xc],xmm0
  4036de:	movaps xmm0,xmm1
  4036e1:	mov    DWORD PTR [ebp-0x1c],0x0
  4036e8:	mov    eax,DWORD PTR [ebp-0x1c]
  4036eb:	mov    DWORD PTR [ecx+0x14],eax
  4036ee:	unpcklps xmm0,xmm2
  4036f1:	movq   QWORD PTR [ecx+0x18],xmm0
  4036f6:	mov    DWORD PTR [ebp-0x1c],0x0
  4036fd:	mov    eax,DWORD PTR [ebp-0x1c]
  403700:	mov    DWORD PTR [ecx+0x20],eax
  403703:	unpcklps xmm3,xmm1
  403706:	movq   QWORD PTR [ecx+0x24],xmm3
  40370b:	mov    DWORD PTR [ebp-0x1c],0x0
  403712:	mov    eax,DWORD PTR [ebp-0x1c]
  403715:	mov    DWORD PTR [ecx+0x2c],eax
  403718:	lea    eax,[ebp-0x34]
  40371b:	push   eax
  40371c:	lea    ecx,[ebp-0x18]
  40371f:	call   0x403760
  403724:	mov    esi,DWORD PTR [ebp-0x18]
  403727:	test   esi,esi
  403729:	je     0x403747
  40372b:	mov    ecx,DWORD PTR [ebp-0x10]
  40372e:	mov    eax,0x2aaaaaab
  403733:	sub    ecx,esi
  403735:	imul   ecx
  403737:	sar    edx,1
  403739:	mov    eax,edx
  40373b:	shr    eax,0x1f
  40373e:	add    eax,edx
  403740:	push   eax
  403741:	push   esi
  403742:	call   0x4024e0
  403747:	mov    ecx,DWORD PTR [ebp-0xc]
  40374a:	mov    eax,0x4308b8
  40374f:	pop    esi
  403750:	mov    DWORD PTR fs:0x0,ecx
  403757:	mov    esp,ebp
  403759:	pop    ebp
  40375a:	ret    
  40375b:	int3   
  40375c:	int3   
  40375d:	int3   
  40375e:	int3   
  40375f:	int3   
  403760:	push   ebp
  403761:	mov    ebp,esp
  403763:	push   0xffffffff
  403765:	push   0x410a18
  40376a:	mov    eax,fs:0x0
  403770:	push   eax
  403771:	mov    DWORD PTR fs:0x0,esp
  403778:	sub    esp,0x38
  40377b:	mov    eax,ecx
  40377d:	mov    ecx,DWORD PTR [ebp+0x8]
  403780:	push   esi
  403781:	xor    esi,esi
  403783:	mov    DWORD PTR [ebp-0x10],eax
  403786:	push   edi
  403787:	movss  xmm0,DWORD PTR [ecx]
  40378b:	movss  DWORD PTR [ebp-0x20],xmm0
  403790:	movss  xmm0,DWORD PTR [ecx+0x4]
  403795:	movss  DWORD PTR [ebp-0x24],xmm0
  40379a:	movss  xmm0,DWORD PTR [ecx+0x8]
  40379f:	movss  DWORD PTR [ebp-0x28],xmm0
  4037a4:	mov    DWORD PTR [ebp-0x14],esi
  4037a7:	mov    DWORD PTR [ebp-0x38],esi
  4037aa:	mov    DWORD PTR [ebp-0x34],esi
  4037ad:	mov    DWORD PTR [ebp-0x30],esi
  4037b0:	mov    DWORD PTR [ebp-0x4],esi
  4037b3:	mov    edi,DWORD PTR [eax+0x4]
  4037b6:	mov    ecx,edi
  4037b8:	sub    ecx,DWORD PTR [eax]
  4037ba:	mov    eax,0x2aaaaaab
  4037bf:	imul   ecx
  4037c1:	sar    edx,1
  4037c3:	mov    eax,edx
  4037c5:	shr    eax,0x1f
  4037c8:	add    eax,edx
  4037ca:	je     0x4039ee
  4037d0:	mov    DWORD PTR [ebp-0x18],esi
  4037d3:	xorps  xmm7,xmm7
  4037d6:	data16 nop WORD PTR [eax+eax*1+0x0]
  4037e0:	mov    eax,DWORD PTR [ebp-0x10]
  4037e3:	inc    esi
  4037e4:	movss  xmm3,DWORD PTR ds:0x411d68
  4037ec:	mov    DWORD PTR [ebp-0x2c],esi
  4037ef:	mov    eax,DWORD PTR [eax]
  4037f1:	sub    edi,eax
  4037f3:	mov    DWORD PTR [ebp-0x1c],eax
  4037f6:	mov    eax,0x2aaaaaab
  4037fb:	imul   edi
  4037fd:	mov    eax,esi
  4037ff:	mov    edi,DWORD PTR [ebp-0x18]
  403802:	sar    edx,1
  403804:	mov    ecx,edx
  403806:	shr    ecx,0x1f
  403809:	add    ecx,edx
  40380b:	xor    edx,edx
  40380d:	div    ecx
  40380f:	mov    ecx,DWORD PTR [ebp-0x1c]
  403812:	movss  xmm0,DWORD PTR [ecx+edi*1+0x4]
  403818:	lea    eax,[edx+edx*2]
  40381b:	mov    edx,DWORD PTR [ebp+0x8]
  40381e:	lea    esi,[ecx+eax*4]
  403821:	movss  xmm2,DWORD PTR [ecx+edi*1]
  403826:	movss  xmm1,DWORD PTR [edx]
  40382a:	movss  xmm5,DWORD PTR [edx+0x4]
  40382f:	movss  xmm6,DWORD PTR [edx+0x8]
  403834:	movss  xmm4,DWORD PTR [edx+0xc]
  403839:	mulss  xmm2,xmm1
  40383d:	mulss  xmm0,xmm5
  403841:	addss  xmm2,xmm0
  403845:	movss  xmm0,DWORD PTR [ecx+edi*1+0x8]
  40384b:	mulss  xmm0,xmm6
  40384f:	addss  xmm2,xmm0
  403853:	addss  xmm2,xmm4
  403857:	comiss xmm2,xmm7
  40385a:	jbe    0x403863
  40385c:	mov    ecx,0x1
  403861:	jmp    0x40386c
  403863:	xor    ecx,ecx
  403865:	comiss xmm3,xmm2
  403868:	setbe  cl
  40386b:	dec    ecx
  40386c:	movss  xmm0,DWORD PTR [esi+0x4]
  403871:	mulss  xmm1,DWORD PTR [esi]
  403875:	mov    DWORD PTR [ebp-0x18],ecx
  403878:	mulss  xmm0,xmm5
  40387c:	addss  xmm1,xmm0
  403880:	movss  xmm0,DWORD PTR [esi+0x8]
  403885:	mulss  xmm0,xmm6
  403889:	addss  xmm1,xmm0
  40388d:	addss  xmm1,xmm4
  403891:	comiss xmm1,xmm7
  403894:	jbe    0x40389d
  403896:	mov    eax,0x1
  40389b:	jmp    0x4038a6
  40389d:	xor    eax,eax
  40389f:	comiss xmm3,xmm1
  4038a2:	setbe  al
  4038a5:	dec    eax
  4038a6:	mov    DWORD PTR [ebp-0x14],eax
  4038a9:	test   ecx,ecx
  4038ab:	js     0x4038c0
  4038ad:	test   eax,eax
  4038af:	js     0x4038c0
  4038b1:	push   esi
  4038b2:	lea    ecx,[ebp-0x38]
  4038b5:	call   0x403ab0
  4038ba:	mov    ecx,DWORD PTR [ebp-0x18]
  4038bd:	mov    edx,DWORD PTR [ebp+0x8]
  4038c0:	cmp    ecx,DWORD PTR [ebp-0x14]
  4038c3:	je     0x4039b5
  4038c9:	mov    eax,DWORD PTR [ebp-0x1c]
  4038cc:	movss  xmm3,DWORD PTR [esi]
  4038d0:	movss  xmm2,DWORD PTR [esi+0x4]
  4038d5:	movss  xmm1,DWORD PTR [esi+0x8]
  4038da:	movss  xmm7,DWORD PTR [eax+edi*1]
  4038df:	movss  xmm6,DWORD PTR [eax+edi*1+0x4]
  4038e5:	movaps xmm0,xmm7
  4038e8:	mulss  xmm0,DWORD PTR [ebp-0x20]
  4038ed:	movaps xmm4,xmm6
  4038f0:	mulss  xmm4,DWORD PTR [ebp-0x24]
  4038f5:	subss  xmm3,xmm7
  4038f9:	movss  xmm5,DWORD PTR [eax+edi*1+0x8]
  4038ff:	subss  xmm2,xmm6
  403903:	mov    eax,DWORD PTR [ebp-0x14]
  403906:	subss  xmm1,xmm5
  40390a:	addss  xmm4,xmm0
  40390e:	movaps xmm0,xmm5
  403911:	mulss  xmm0,DWORD PTR [ebp-0x28]
  403916:	mulss  xmm3,DWORD PTR [ebp-0x20]
  40391b:	mulss  xmm1,DWORD PTR [ebp-0x28]
  403920:	addss  xmm4,xmm0
  403924:	mulss  xmm2,DWORD PTR [ebp-0x24]
  403929:	movss  xmm0,DWORD PTR ds:0x411d60
  403931:	addss  xmm4,DWORD PTR [edx+0xc]
  403936:	addss  xmm3,xmm2
  40393a:	addss  xmm3,xmm1
  40393e:	movss  xmm1,DWORD PTR [esi]
  403942:	divss  xmm4,xmm3
  403946:	xorps  xmm4,XMMWORD PTR ds:0x411d90
  40394d:	mulss  xmm1,xmm4
  403951:	subss  xmm0,xmm4
  403955:	mulss  xmm7,xmm0
  403959:	mulss  xmm6,xmm0
  40395d:	mulss  xmm5,xmm0
  403961:	addss  xmm1,xmm7
  403965:	movss  DWORD PTR [ebp-0x44],xmm1
  40396a:	movss  xmm1,DWORD PTR [esi+0x4]
  40396f:	mulss  xmm1,xmm4
  403973:	addss  xmm1,xmm6
  403977:	movss  DWORD PTR [ebp-0x40],xmm1
  40397c:	movss  xmm1,DWORD PTR [esi+0x8]
  403981:	mulss  xmm1,xmm4
  403985:	addss  xmm1,xmm5
  403989:	movss  DWORD PTR [ebp-0x3c],xmm1
  40398e:	test   ecx,ecx
  403990:	js     0x40399c
  403992:	test   eax,eax
  403994:	jns    0x4039b5
  403996:	lea    eax,[ebp-0x44]
  403999:	push   eax
  40399a:	jmp    0x4039ad
  40399c:	test   eax,eax
  40399e:	js     0x4039b5
  4039a0:	lea    eax,[ebp-0x44]
  4039a3:	push   eax
  4039a4:	lea    ecx,[ebp-0x38]
  4039a7:	call   0x403ab0
  4039ac:	push   esi
  4039ad:	lea    ecx,[ebp-0x38]
  4039b0:	call   0x403ab0
  4039b5:	mov    eax,DWORD PTR [ebp-0x10]
  4039b8:	add    edi,0xc
  4039bb:	mov    esi,DWORD PTR [ebp-0x2c]
  4039be:	xorps  xmm7,xmm7
  4039c1:	mov    DWORD PTR [ebp-0x18],edi
  4039c4:	mov    edi,DWORD PTR [eax+0x4]
  4039c7:	mov    ecx,edi
  4039c9:	sub    ecx,DWORD PTR [eax]
  4039cb:	mov    eax,0x2aaaaaab
  4039d0:	imul   ecx
  4039d2:	sar    edx,1
  4039d4:	mov    eax,edx
  4039d6:	shr    eax,0x1f
  4039d9:	add    eax,edx
  4039db:	cmp    esi,eax
  4039dd:	jb     0x4037e0
  4039e3:	mov    esi,DWORD PTR [ebp-0x38]
  4039e6:	mov    ecx,DWORD PTR [ebp-0x34]
  4039e9:	mov    DWORD PTR [ebp-0x14],esi
  4039ec:	jmp    0x4039f0
  4039ee:	xor    ecx,ecx
  4039f0:	sub    ecx,esi
  4039f2:	mov    eax,0x2aaaaaab
  4039f7:	imul   ecx
  4039f9:	sar    edx,1
  4039fb:	mov    eax,edx
  4039fd:	shr    eax,0x1f
  403a00:	add    eax,edx
  403a02:	cmp    eax,0x3
  403a05:	jb     0x403a1b
  403a07:	mov    ecx,DWORD PTR [ebp-0x10]
  403a0a:	lea    eax,[ebp-0x38]
  403a0d:	push   eax
  403a0e:	call   0x403b40
  403a13:	mov    esi,DWORD PTR [ebp-0x38]
  403a16:	mov    DWORD PTR [ebp-0x14],esi
  403a19:	jmp    0x403a23
  403a1b:	mov    eax,DWORD PTR [ebp-0x10]
  403a1e:	mov    ecx,DWORD PTR [eax]
  403a20:	mov    DWORD PTR [eax+0x4],ecx
  403a23:	test   esi,esi
  403a25:	je     0x403a91
  403a27:	mov    ecx,DWORD PTR [ebp-0x30]
  403a2a:	mov    eax,0x2aaaaaab
  403a2f:	sub    ecx,esi
  403a31:	imul   ecx
  403a33:	sar    edx,1
  403a35:	mov    eax,edx
  403a37:	shr    eax,0x1f
  403a3a:	add    eax,edx
  403a3c:	cmp    eax,0x15555555
  403a41:	jbe    0x403a49
  403a43:	call   DWORD PTR ds:0x41130c
  403a49:	lea    eax,[eax+eax*2]
  403a4c:	shl    eax,0x2
  403a4f:	cmp    eax,0x1000
  403a54:	jb     0x403a88
  403a56:	mov    eax,DWORD PTR [ebp-0x14]
  403a59:	test   al,0x1f
  403a5b:	je     0x403a63
  403a5d:	call   DWORD PTR ds:0x41130c
  403a63:	mov    esi,DWORD PTR [eax-0x4]
  403a66:	cmp    esi,eax
  403a68:	jb     0x403a70
  403a6a:	call   DWORD PTR ds:0x41130c
  403a70:	sub    eax,esi
  403a72:	cmp    eax,0x4
  403a75:	jae    0x403a7d
  403a77:	call   DWORD PTR ds:0x41130c
  403a7d:	cmp    eax,0x23
  403a80:	jbe    0x403a88
  403a82:	call   DWORD PTR ds:0x41130c
  403a88:	push   esi
  403a89:	call   0x40e6ca
  403a8e:	add    esp,0x4
  403a91:	mov    ecx,DWORD PTR [ebp-0xc]
  403a94:	pop    edi
  403a95:	pop    esi
  403a96:	mov    DWORD PTR fs:0x0,ecx
  403a9d:	mov    esp,ebp
  403a9f:	pop    ebp
  403aa0:	ret    0x4
  403aa3:	int3   
  403aa4:	int3   
  403aa5:	int3   
  403aa6:	int3   
  403aa7:	int3   
  403aa8:	int3   
  403aa9:	int3   
  403aaa:	int3   
  403aab:	int3   
  403aac:	int3   
  403aad:	int3   
  403aae:	int3   
  403aaf:	int3   
  403ab0:	push   esi
  403ab1:	mov    esi,ecx
  403ab3:	push   edi
  403ab4:	mov    edi,DWORD PTR [esp+0xc]
  403ab8:	mov    ecx,DWORD PTR [esi+0x4]
  403abb:	cmp    edi,ecx
  403abd:	jae    0x403b0a
  403abf:	mov    eax,DWORD PTR [esi]
  403ac1:	cmp    eax,edi
  403ac3:	ja     0x403b0a
  403ac5:	sub    edi,eax
  403ac7:	mov    eax,0x2aaaaaab
  403acc:	imul   edi
  403ace:	sar    edx,1
  403ad0:	mov    edi,edx
  403ad2:	shr    edi,0x1f
  403ad5:	add    edi,edx
  403ad7:	cmp    ecx,DWORD PTR [esi+0x8]
  403ada:	jne    0x403ae5
  403adc:	push   0x1
  403ade:	mov    ecx,esi
  403ae0:	call   0x4023f0
  403ae5:	mov    edx,DWORD PTR [esi+0x4]
  403ae8:	test   edx,edx
  403aea:	je     0x403b2d
  403aec:	mov    eax,DWORD PTR [esi]
  403aee:	lea    ecx,[edi+edi*2]
  403af1:	pop    edi
  403af2:	movq   xmm0,QWORD PTR [eax+ecx*4]
  403af7:	movq   QWORD PTR [edx],xmm0
  403afb:	mov    eax,DWORD PTR [eax+ecx*4+0x8]
  403aff:	mov    DWORD PTR [edx+0x8],eax
  403b02:	add    DWORD PTR [esi+0x4],0xc
  403b06:	pop    esi
  403b07:	ret    0x4
  403b0a:	cmp    ecx,DWORD PTR [esi+0x8]
  403b0d:	jne    0x403b18
  403b0f:	push   0x1
  403b11:	mov    ecx,esi
  403b13:	call   0x4023f0
  403b18:	mov    ecx,DWORD PTR [esi+0x4]
  403b1b:	test   ecx,ecx
  403b1d:	je     0x403b2d
  403b1f:	movq   xmm0,QWORD PTR [edi]
  403b23:	movq   QWORD PTR [ecx],xmm0
  403b27:	mov    eax,DWORD PTR [edi+0x8]
  403b2a:	mov    DWORD PTR [ecx+0x8],eax
  403b2d:	add    DWORD PTR [esi+0x4],0xc
  403b31:	pop    edi
  403b32:	pop    esi
  403b33:	ret    0x4
  403b36:	int3   
  403b37:	int3   
  403b38:	int3   
  403b39:	int3   
  403b3a:	int3   
  403b3b:	int3   
  403b3c:	int3   
  403b3d:	int3   
  403b3e:	int3   
  403b3f:	int3   
  403b40:	push   ecx
  403b41:	push   ebx
  403b42:	mov    ebx,DWORD PTR [esp+0xc]
  403b46:	push   ebp
  403b47:	push   esi
  403b48:	push   edi
  403b49:	mov    edi,ecx
  403b4b:	cmp    edi,ebx
  403b4d:	je     0x403c6b
  403b53:	mov    ebp,DWORD PTR [ebx]
  403b55:	mov    eax,DWORD PTR [ebx+0x4]
  403b58:	cmp    ebp,eax
  403b5a:	jne    0x403b6b
  403b5c:	mov    eax,DWORD PTR [edi]
  403b5e:	mov    DWORD PTR [edi+0x4],eax
  403b61:	mov    eax,edi
  403b63:	pop    edi
  403b64:	pop    esi
  403b65:	pop    ebp
  403b66:	pop    ebx
  403b67:	pop    ecx
  403b68:	ret    0x4
  403b6b:	mov    esi,DWORD PTR [edi]
  403b6d:	mov    ecx,eax
  403b6f:	sub    ecx,ebp
  403b71:	mov    eax,0x2aaaaaab
  403b76:	imul   ecx
  403b78:	mov    ecx,DWORD PTR [edi+0x4]
  403b7b:	sar    edx,1
  403b7d:	sub    ecx,esi
  403b7f:	mov    eax,edx
  403b81:	shr    eax,0x1f
  403b84:	add    eax,edx
  403b86:	mov    DWORD PTR [esp+0x18],eax
  403b8a:	mov    eax,0x2aaaaaab
  403b8f:	imul   ecx
  403b91:	sar    edx,1
  403b93:	mov    eax,edx
  403b95:	shr    eax,0x1f
  403b98:	add    eax,edx
  403b9a:	mov    DWORD PTR [esp+0x10],eax
  403b9e:	cmp    DWORD PTR [esp+0x18],eax
  403ba2:	ja     0x403bdf
  403ba4:	mov    ecx,DWORD PTR [ebx+0x4]
  403ba7:	sub    ecx,ebp
  403ba9:	push   ecx
  403baa:	push   ebp
  403bab:	push   esi
  403bac:	call   DWORD PTR ds:0x4112b0
  403bb2:	mov    ecx,DWORD PTR [ebx+0x4]
  403bb5:	mov    eax,0x2aaaaaab
  403bba:	sub    ecx,DWORD PTR [ebx]
  403bbc:	add    esp,0xc
  403bbf:	imul   ecx
  403bc1:	sar    edx,1
  403bc3:	mov    eax,edx
  403bc5:	shr    eax,0x1f
  403bc8:	add    eax,edx
  403bca:	lea    ecx,[eax+eax*2]
  403bcd:	mov    eax,DWORD PTR [edi]
  403bcf:	lea    eax,[eax+ecx*4]
  403bd2:	mov    DWORD PTR [edi+0x4],eax
  403bd5:	mov    eax,edi
  403bd7:	pop    edi
  403bd8:	pop    esi
  403bd9:	pop    ebp
  403bda:	pop    ebx
  403bdb:	pop    ecx
  403bdc:	ret    0x4
  403bdf:	mov    ecx,DWORD PTR [edi+0x8]
  403be2:	mov    eax,0x2aaaaaab
  403be7:	sub    ecx,esi
  403be9:	imul   ecx
  403beb:	sar    edx,1
  403bed:	mov    eax,edx
  403bef:	shr    eax,0x1f
  403bf2:	add    eax,edx
  403bf4:	cmp    DWORD PTR [esp+0x18],eax
  403bf8:	ja     0x403c27
  403bfa:	mov    eax,DWORD PTR [esp+0x10]
  403bfe:	lea    eax,[eax+eax*2]
  403c01:	lea    esi,[eax*4+0x0]
  403c08:	add    esi,ebp
  403c0a:	mov    eax,esi
  403c0c:	sub    eax,ebp
  403c0e:	push   eax
  403c0f:	push   ebp
  403c10:	push   DWORD PTR [edi]
  403c12:	call   DWORD PTR ds:0x4112b0
  403c18:	add    esp,0x8
  403c1b:	push   DWORD PTR [esp+0x1c]
  403c1f:	push   ecx
  403c20:	push   DWORD PTR [edi+0x4]
  403c23:	mov    ecx,esi
  403c25:	jmp    0x403c5d
  403c27:	test   esi,esi
  403c29:	je     0x403c32
  403c2b:	push   eax
  403c2c:	push   esi
  403c2d:	call   0x4024e0
  403c32:	mov    ecx,DWORD PTR [ebx+0x4]
  403c35:	mov    eax,0x2aaaaaab
  403c3a:	sub    ecx,DWORD PTR [ebx]
  403c3c:	imul   ecx
  403c3e:	mov    ecx,edi
  403c40:	sar    edx,1
  403c42:	mov    eax,edx
  403c44:	shr    eax,0x1f
  403c47:	add    eax,edx
  403c49:	push   eax
  403c4a:	call   0x402480
  403c4f:	test   al,al
  403c51:	je     0x403c6b
  403c53:	push   ecx
  403c54:	push   DWORD PTR [esp+0x1c]
  403c58:	push   ecx
  403c59:	push   DWORD PTR [edi]
  403c5b:	mov    ecx,DWORD PTR [ebx]
  403c5d:	mov    edx,DWORD PTR [ebx+0x4]
  403c60:	call   0x402680
  403c65:	add    esp,0x10
  403c68:	mov    DWORD PTR [edi+0x4],eax
  403c6b:	mov    eax,edi
  403c6d:	pop    edi
  403c6e:	pop    esi
  403c6f:	pop    ebp
  403c70:	pop    ebx
  403c71:	pop    ecx
  403c72:	ret    0x4
  403c75:	int3   
  403c76:	int3   
  403c77:	int3   
  403c78:	add    esi,DWORD PTR [eax]
  403c7a:	add    al,BYTE PTR [eax]
  403c7c:	adc    BYTE PTR [eax],al
  403c7e:	add    BYTE PTR [eax],al
  403c80:	add    BYTE PTR [eax],al
  403c82:	add    BYTE PTR [eax],al
  403c84:	add    bh,BYTE PTR [edi+0x58]
  403c87:	add    BYTE PTR [eax],al
  403c89:	add    al,0x54
  403c8b:	add    bl,BYTE PTR [edx]
  403c8d:	pop    eax
  403c8e:	sub    BYTE PTR [ecx+eax*1+0x0],dh
  403c92:	push   es
  403c93:	sub    al,BYTE PTR [ebx]
  403c95:	xor    BYTE PTR [eax],al
  403c97:	add    BYTE PTR [ecx],al
  403c99:	add    BYTE PTR [eax],al
  403c9b:	add    BYTE PTR [eax],al
  403c9d:	add    BYTE PTR [eax],al
  403c9f:	add    BYTE PTR [edx],ch
  403ca1:	int3   
  403ca2:	int3   
  403ca3:	int3   
  403ca4:	add    esi,DWORD PTR [eax]
  403ca6:	add    al,BYTE PTR [eax]
  403ca8:	pop    esp
  403ca9:	add    BYTE PTR [eax],al
  403cab:	add    BYTE PTR ds:0x2110000,dl
  403cb1:	sub    eax,0x152a1602
  403cb6:	add    ebx,DWORD PTR [edx+eax*1+0x34]
  403cba:	add    eax,0x17028
  403cbf:	push   es
  403cc0:	add    al,BYTE PTR [ebx]
  403cc2:	pop    edx
  403cc3:	or     eax,DWORD PTR [esp+ebp*1]
  403cc6:	xor    al,0x20
  403cc8:	add    BYTE PTR [eax],dl
  403cca:	add    BYTE PTR [eax],al
  403ccc:	pop    es
  403ccd:	xor    eax,0x231f072c
  403cd2:	pop    eax
  403cd3:	or     eax,0x5350709
  403cd8:	sub    BYTE PTR [eax+0x1],dh
  403cdb:	add    BYTE PTR [esi],al
  403cdd:	or     DWORD PTR [eax],ebp
  403cdf:	outs   dx,DWORD PTR ds:[esi]
  403ce0:	add    DWORD PTR [eax],eax
  403ce2:	push   es
  403ce3:	or     al,0x8
  403ce5:	sub    eax,0x16e2805
  403cea:	add    BYTE PTR [esi],al
  403cec:	or     BYTE PTR [edi],bl
  403cee:	and    ebx,DWORD PTR [eax+0x1f]
  403cf1:	loopne 0x403d52
  403cf3:	or     al,BYTE PTR [esi]
  403cf5:	sbb    bl,BYTE PTR [ecx+0x8]
  403cf8:	push   esp
  403cf9:	sub    ecx,DWORD PTR [edi]
  403cfb:	pop    es
  403cfc:	sub    BYTE PTR [edi+0x1],ch
  403cff:	add    BYTE PTR [esi],al
  403d01:	or     al,BYTE PTR [esi]
  403d03:	sub    eax,0x16e2805
  403d08:	add    BYTE PTR [esi],al
  403d0a:	push   es
  403d0b:	sub    al,BYTE PTR [ebx]
  403d0d:	xor    BYTE PTR [ebx],al
  403d0f:	add    BYTE PTR [edi+0x0],cl
  403d12:	add    BYTE PTR [eax],al
  403d14:	push   ss
  403d15:	add    BYTE PTR [eax],al
  403d17:	adc    DWORD PTR [ebx],eax
  403d19:	adc    eax,0x5365c04
  403d1e:	sub    BYTE PTR [esi+0x1],ch
  403d21:	add    BYTE PTR [esi],al
  403d23:	and    BYTE PTR [eax],al
  403d25:	adc    BYTE PTR [eax],al
  403d27:	add    BYTE PTR [ebx],al
  403d29:	add    al,0x5a
  403d2b:	xor    eax,0x1f1f0233
  403d30:	pop    edi
  403d31:	sub    al,0x5
  403d33:	sub    BYTE PTR [esi+0x1],ch
  403d36:	add    BYTE PTR [esi],al
  403d38:	add    bl,BYTE PTR [edx]
  403d3a:	pop    ecx
  403d3b:	dec    edx
  403d3c:	or     al,BYTE PTR [esi]
  403d3e:	add    dh,BYTE PTR [edi]
  403d40:	add    eax,0x16e28
  403d45:	push   es
  403d46:	add    al,BYTE PTR [esi]
  403d48:	pop    ecx
  403d49:	or     ebx,DWORD PTR [edx]
  403d4b:	pop    es
  403d4c:	ss add eax,0x16e28
  403d52:	push   es
  403d53:	pop    es
  403d54:	pop    ds
  403d55:	and    esi,DWORD PTR [esi]
  403d57:	add    eax,0x16e28
  403d5c:	push   es
  403d5d:	push   es
  403d5e:	adc    BYTE PTR [eax],al
  403d60:	add    ch,BYTE PTR [eax]
  403d62:	jae    0x403d65
  403d64:	add    BYTE PTR [esi],al
  403d66:	sub    cl,ah
  403d68:	add    esi,DWORD PTR [eax]
  403d6a:	add    al,0x0
  403d6c:	sub    al,0x0
  403d6e:	add    BYTE PTR [eax],al
  403d70:	add    BYTE PTR [eax],al
  403d72:	add    BYTE PTR [eax],al
  403d74:	add    al,BYTE PTR [ebx]
  403d76:	dec    esi
  403d77:	ins    BYTE PTR es:[edi],dx
  403d78:	add    al,0x4e
  403d7a:	ins    BYTE PTR es:[edi],dx
  403d7b:	pop    eax
  403d7c:	imul   edx,DWORD PTR [esi+0x2],0x1a
  403d80:	pop    eax
  403d81:	add    ebx,DWORD PTR [edx]
  403d83:	pop    eax
  403d84:	dec    esi
  403d85:	ins    BYTE PTR es:[edi],dx
  403d86:	add    al,0x1a
  403d88:	pop    eax
  403d89:	dec    esi
  403d8a:	ins    BYTE PTR es:[edi],dx
  403d8b:	pop    eax
  403d8c:	imul   edx,DWORD PTR [esi+0x2],0x1e
  403d90:	pop    eax
  403d91:	add    ebx,DWORD PTR [esi]
  403d93:	pop    eax
  403d94:	dec    esi
  403d95:	ins    BYTE PTR es:[edi],dx
  403d96:	add    al,0x1e
  403d98:	pop    eax
  403d99:	dec    esi
  403d9a:	ins    BYTE PTR es:[edi],dx
  403d9b:	pop    eax
  403d9c:	imul   edx,DWORD PTR [esi+0x2],0x2a
  403da0:	add    esi,DWORD PTR [eax]
  403da2:	add    eax,DWORD PTR [eax]
  403da4:	and    eax,0x0
  403da9:	add    BYTE PTR [eax],al
  403dab:	add    BYTE PTR [edx],al
  403dad:	add    ecx,DWORD PTR [esi+0x6c]
  403db0:	add    al,0x6c
  403db2:	pop    edx
  403db3:	imul   edx,DWORD PTR [esi+0x2],0x1a
  403db7:	pop    eax
  403db8:	add    ebx,DWORD PTR [edx]
  403dba:	pop    eax
  403dbb:	dec    esi
  403dbc:	ins    BYTE PTR es:[edi],dx
  403dbd:	add    al,0x6c
  403dbf:	pop    edx
  403dc0:	imul   edx,DWORD PTR [esi+0x2],0x1e
  403dc4:	pop    eax
  403dc5:	add    ebx,DWORD PTR [esi]
  403dc7:	pop    eax
  403dc8:	dec    esi
  403dc9:	ins    BYTE PTR es:[edi],dx
  403dca:	add    al,0x6c
  403dcc:	pop    edx
  403dcd:	imul   edx,DWORD PTR [esi+0x2],0x2a
  403dd1:	int3   
  403dd2:	int3   
  403dd3:	int3   
  403dd4:	add    esi,DWORD PTR [eax]
  403dd6:	add    eax,DWORD PTR [eax]
  403dd8:	and    BYTE PTR [eax],al
  403dda:	add    BYTE PTR [eax],al
  403ddc:	add    BYTE PTR [eax],al
  403dde:	add    BYTE PTR [eax],al
  403de0:	add    al,BYTE PTR [ebx]
  403de2:	dec    esi
  403de3:	push   esi
  403de4:	add    bl,BYTE PTR [edx]
  403de6:	pop    eax
  403de7:	add    ebx,DWORD PTR [edx]
  403de9:	pop    eax
  403dea:	dec    esi
  403deb:	push   esi
  403dec:	add    bl,BYTE PTR [esi]
  403dee:	pop    eax
  403def:	add    ebx,DWORD PTR [esi]
  403df1:	pop    eax
  403df2:	dec    esi
  403df3:	push   esi
  403df4:	add    bl,BYTE PTR [edi]
  403df6:	or     al,0x58
  403df8:	add    ebx,DWORD PTR [edi]
  403dfa:	or     al,0x58
  403dfc:	dec    esi
  403dfd:	push   esi
  403dfe:	add    ch,BYTE PTR [edx]
  403e00:	add    esi,DWORD PTR [eax]
  403e02:	add    eax,DWORD PTR [eax]
  403e04:	aas    
  403e05:	add    BYTE PTR [eax],al
  403e07:	add    BYTE PTR [edi],bl
  403e09:	add    BYTE PTR [eax],al
  403e0b:	adc    DWORD PTR [edx],eax
  403e0d:	pop    ds
  403e0e:	pop    esp
  403e0f:	sub    BYTE PTR [ebx+0x1],bl
  403e12:	add    BYTE PTR [esi],al
  403e14:	or     eax,0x282f1f02
  403e19:	pop    ebx
  403e1a:	add    DWORD PTR [eax],eax
  403e1c:	push   es
  403e1d:	or     al,0x9
  403e1f:	or     BYTE PTR ds:0x12b0803,dh
  403e25:	or     DWORD PTR [ebx],ecx
  403e27:	pop    es
  403e28:	sub    al,0x14
  403e2a:	pop    es
  403e2b:	add    bl,BYTE PTR [ecx+0xa]
  403e2e:	add    eax,DWORD PTR [edx]
  403e30:	push   es
  403e31:	sub    BYTE PTR [edx+0x1],bl
  403e34:	add    BYTE PTR [esi],al
  403e36:	es push es
  403e38:	add    ebx,DWORD PTR [eax+0x16]
  403e3b:	push   edx
  403e3c:	sub    ecx,DWORD PTR [ebx+eax*1]
  403e3f:	jg     0x403e5d
  403e41:	add    BYTE PTR [eax],al
  403e43:	add    al,0x17
  403e45:	(bad)  
  403e46:	adc    al,BYTE PTR [ecx]
  403e48:	(bad)  
  403e49:	pop    ss
  403e4a:	sub    cl,ah
  403e4c:	add    esi,DWORD PTR [eax]
  403e4e:	add    al,BYTE PTR [eax]
  403e50:	or     al,BYTE PTR [eax]
  403e52:	add    BYTE PTR [eax],al
  403e54:	add    BYTE PTR [eax],al
  403e56:	add    BYTE PTR [eax],al
  403e58:	add    ah,BYTE PTR [eax]
  403e5a:	mov    WORD PTR [eax],es
  403e5c:	add    BYTE PTR [eax],al
  403e5e:	pop    eax
  403e5f:	add    edx,DWORD PTR [edx+ebp*1-0x34]
  403e63:	int3   
  403e64:	add    esi,DWORD PTR [eax]
  403e66:	add    al,BYTE PTR [eax]
  403e68:	or     al,BYTE PTR [eax]
  403e6a:	add    BYTE PTR [eax],al
  403e6c:	add    BYTE PTR [eax],al
  403e6e:	add    BYTE PTR [eax],al
  403e70:	add    ah,BYTE PTR [eax]
  403e72:	nop
  403e73:	add    BYTE PTR [eax],al
  403e75:	add    BYTE PTR [eax+0x3],bl
  403e78:	push   esp
  403e79:	sub    cl,ah
  403e7b:	int3   
  403e7c:	add    esi,DWORD PTR [eax]
  403e7e:	add    al,BYTE PTR [eax]
  403e80:	push   es
  403e81:	add    BYTE PTR [eax],al
  403e83:	add    BYTE PTR [eax],al
  403e85:	add    BYTE PTR [eax],al
  403e87:	add    BYTE PTR [edx],al
  403e89:	pop    ds
  403e8a:	sbb    al,0x58
  403e8c:	dec    edx
  403e8d:	sub    cl,ah
  403e8f:	int3   
  403e90:	add    esi,DWORD PTR [eax]
  403e92:	add    eax,DWORD PTR [eax]
  403e94:	cmp    al,BYTE PTR [eax]
  403e96:	add    BYTE PTR [eax],al
  403e98:	add    BYTE PTR [eax],al
  403e9a:	add    BYTE PTR [eax],al
  403e9c:	add    ah,BYTE PTR [eax]
  403e9e:	in     al,0x0
  403ea0:	add    BYTE PTR [eax],al
  403ea2:	pop    eax
  403ea3:	pop    ss
  403ea4:	push   edx
  403ea5:	add    ah,BYTE PTR [eax]
  403ea7:	fadd   QWORD PTR [eax]
  403ea9:	add    BYTE PTR [eax],al
  403eab:	pop    eax
  403eac:	add    ah,BYTE PTR [eax]
  403eae:	rol    BYTE PTR [eax],1
  403eb0:	add    BYTE PTR [eax],al
  403eb2:	pop    eax
  403eb3:	dec    esi
  403eb4:	push   esi
  403eb5:	add    ah,BYTE PTR [eax]
  403eb7:	fadd   DWORD PTR [eax]
  403eb9:	add    BYTE PTR [eax],al
  403ebb:	pop    eax
  403ebc:	add    ah,BYTE PTR [eax]
  403ebe:	int3   
  403ebf:	add    BYTE PTR [eax],al
  403ec1:	add    BYTE PTR [eax+0x4e],bl
  403ec4:	push   esi
  403ec5:	add    ah,BYTE PTR [eax]
  403ec7:	loopne 0x403ec9
  403ec9:	add    BYTE PTR [eax],al
  403ecb:	pop    eax
  403ecc:	add    ah,BYTE PTR [eax]
  403ece:	aam    0x0
  403ed0:	add    BYTE PTR [eax],al
  403ed2:	pop    eax
  403ed3:	dec    esi
  403ed4:	push   esi
  403ed5:	sub    cl,ah
  403ed7:	int3   
  403ed8:	add    esi,DWORD PTR [eax]
  403eda:	add    eax,DWORD PTR [eax]
  403edc:	cmp    eax,DWORD PTR [eax]
  403ede:	add    BYTE PTR [eax],al
  403ee0:	add    BYTE PTR [eax],al
  403ee2:	add    BYTE PTR [eax],al
  403ee4:	add    ah,BYTE PTR [eax]
  403ee6:	in     al,0x0
  403ee8:	add    BYTE PTR [eax],al
  403eea:	pop    eax
  403eeb:	inc    edi
  403eec:	sub    al,0x30
  403eee:	add    ah,BYTE PTR [eax]
  403ef0:	rol    BYTE PTR [eax],1
  403ef2:	add    BYTE PTR [eax],al
  403ef4:	pop    eax
  403ef5:	add    ah,BYTE PTR [eax]
  403ef7:	fadd   QWORD PTR [eax]
  403ef9:	add    BYTE PTR [eax],al
  403efb:	pop    eax
  403efc:	dec    esi
  403efd:	push   esi
  403efe:	add    ah,BYTE PTR [eax]
  403f00:	int3   
  403f01:	add    BYTE PTR [eax],al
  403f03:	add    BYTE PTR [eax+0x2],bl
  403f06:	and    al,bl
  403f08:	add    BYTE PTR [eax],al
  403f0a:	add    BYTE PTR [eax+0x4e],bl
  403f0d:	push   esi
  403f0e:	add    ah,BYTE PTR [eax]
  403f10:	aam    0x0
  403f12:	add    BYTE PTR [eax],al
  403f14:	pop    eax
  403f15:	add    ah,BYTE PTR [eax]
  403f17:	loopne 0x403f19
  403f19:	add    BYTE PTR [eax],al
  403f1b:	pop    eax
  403f1c:	dec    esi
  403f1d:	push   esi
  403f1e:	sub    cl,ah
  403f20:	add    esi,DWORD PTR [eax]
  403f22:	push   es
  403f23:	add    BYTE PTR [ebx],bl
  403f25:	add    BYTE PTR [eax],al
  403f27:	add    BYTE PTR [eax],al
  403f29:	add    BYTE PTR [eax],al
  403f2b:	add    BYTE PTR [edx],al
  403f2d:	pop    ds
  403f2e:	push   0xec200258
  403f33:	add    BYTE PTR [eax],al
  403f35:	add    BYTE PTR [eax+0x2],bl
  403f38:	and    BYTE PTR [eax+0x1],bl
  403f3b:	add    BYTE PTR [eax],al
  403f3d:	pop    eax
  403f3e:	add    eax,DWORD PTR [eax*1+0xaa28]
  403f45:	push   es
  403f46:	sub    cl,ah
  403f48:	add    esi,DWORD PTR [eax]
  403f4a:	pop    es
  403f4b:	add    al,ch
  403f4d:	add    BYTE PTR [eax],al
  403f4f:	add    BYTE PTR ds:0x2110000,ah
  403f55:	and    al,dl
  403f57:	add    BYTE PTR [eax],al
  403f59:	add    BYTE PTR [eax+0x4e],bl
  403f5c:	sub    BYTE PTR [ebx+0x1],ah
  403f5f:	add    BYTE PTR [esi],al
  403f61:	ins    BYTE PTR es:[edi],dx
  403f62:	adc    eax,DWORD PTR [edx+edx*1]
  403f65:	push   cs
  403f66:	add    ah,BYTE PTR [eax]
  403f68:	int3   
  403f69:	add    BYTE PTR [eax],al
  403f6b:	add    BYTE PTR [eax+0x4e],bl
  403f6e:	sub    BYTE PTR [ecx+eax*1+0x0],ah
  403f72:	push   es
  403f73:	ins    BYTE PTR es:[edi],dx
  403f74:	adc    DWORD PTR [edx+ebx*2],eax
  403f77:	imul   edx,DWORD PTR [esi+0x12],0xe
  403f7b:	sbb    bl,BYTE PTR [eax+0x2]
  403f7e:	and    al,dl
  403f80:	add    BYTE PTR [eax],al
  403f82:	add    BYTE PTR [eax+0x4e],bl
  403f85:	sub    BYTE PTR [ecx+eax*1+0x0],ah
  403f89:	push   es
  403f8a:	push   esi
  403f8b:	add    ah,BYTE PTR [eax]
  403f8d:	rol    BYTE PTR [eax],1
  403f8f:	add    BYTE PTR [eax],al
  403f91:	pop    eax
  403f92:	dec    esi
  403f93:	sub    BYTE PTR [ebx+0x1],ah
  403f96:	add    BYTE PTR [esi],al
  403f98:	ins    BYTE PTR es:[edi],dx
  403f99:	or     eax,0x581e0e12
  403f9e:	add    ah,BYTE PTR [eax]
  403fa0:	int3   
  403fa1:	add    BYTE PTR [eax],al
  403fa3:	add    BYTE PTR [eax+0x4e],bl
  403fa6:	sub    BYTE PTR [ebx+0x1],ah
  403fa9:	add    BYTE PTR [esi],al
  403fab:	ins    BYTE PTR es:[edi],dx
  403fac:	or     DWORD PTR [edx+0x6b],ebx
  403faf:	push   esi
  403fb0:	adc    cl,BYTE PTR ds:0x22
  403fb6:	add    BYTE PTR [esi+0x12],dl
  403fb9:	or     eax,0x22581a
  403fbe:	add    BYTE PTR [eax+0xd12563f],al
  403fc4:	push   ds
  403fc5:	pop    eax
  403fc6:	and    al,BYTE PTR [eax]
  403fc8:	add    BYTE PTR [eax],al
  403fca:	add    BYTE PTR [esi+0x2],dl
  403fcd:	and    BYTE PTR [eax+0x1],ch
  403fd0:	add    BYTE PTR [eax],al
  403fd2:	pop    eax
  403fd3:	or     edx,DWORD PTR [edx]
  403fd5:	or     al,0x12
  403fd7:	or     eax,DWORD PTR [edi]
  403fd9:	adc    cl,BYTE PTR [edx]
  403fdb:	adc    cl,BYTE PTR [esi]
  403fdd:	add    ah,BYTE PTR [eax]
  403fdf:	aam    0x0
  403fe1:	add    BYTE PTR [eax],al
  403fe3:	pop    eax
  403fe4:	dec    esi
  403fe5:	sub    BYTE PTR [edi],al
  403fe7:	add    BYTE PTR [eax],al
  403fe9:	push   es
  403fea:	sub    BYTE PTR [esi],al
  403fec:	add    BYTE PTR [eax],al
  403fee:	push   es
  403fef:	pop    es
  403ff0:	adc    cl,BYTE PTR ds:0x13928
  403ff6:	push   es
  403ff7:	add    ah,BYTE PTR es:[eax]
  403ffa:	je     0x403ffd
  403ffc:	add    BYTE PTR [eax],al
  403ffe:	pop    eax
  403fff:	or     dl,BYTE PTR [edx]
  404001:	or     DWORD PTR [esi],eax
  404003:	adc    cl,BYTE PTR [eax]
  404005:	adc    al,BYTE PTR [edi]
  404007:	adc    al,BYTE PTR [esi]
  404009:	adc    cl,BYTE PTR [edx+edx*1]
  40400c:	add    eax,0x16128
  404011:	push   es
  404012:	add    ebp,DWORD PTR [eax]
  404014:	pop    es
  404015:	add    BYTE PTR [eax],al
  404017:	push   es
  404018:	and    ch,BYTE PTR [edi+0x12]
  40401b:	cmp    DWORD PTR [edx],0x28
  40401e:	pop    es
  40401f:	add    BYTE PTR [eax],al
  404021:	push   es
  404022:	add    ah,BYTE PTR [eax]
  404024:	aam    0x0
  404026:	add    BYTE PTR [eax],al
  404028:	pop    eax
  404029:	dec    esi
  40402a:	sub    BYTE PTR [edi],al
  40402c:	add    BYTE PTR [eax],al
  40402e:	push   es
  40402f:	sub    BYTE PTR [esi],al
  404031:	add    BYTE PTR [eax],al
  404033:	push   es
  404034:	or     al,0x6
  404036:	or     BYTE PTR [edi],bl
  404038:	or     al,0xfe
  40403a:	pop    ss
  40403b:	sub    al,BYTE PTR [ebx]
  40403d:	xor    BYTE PTR [edi],al
  40403f:	add    bl,ch
  404041:	add    BYTE PTR [eax],al
  404043:	add    BYTE PTR ds:0x2110000,ah
  404049:	and    al,dl
  40404b:	add    BYTE PTR [eax],al
  40404d:	add    BYTE PTR [eax+0x4e],bl
  404050:	sub    BYTE PTR [ebx+0x1],ah
  404053:	add    BYTE PTR [esi],al
  404055:	ins    BYTE PTR es:[edi],dx
  404056:	adc    eax,DWORD PTR [edx+edx*1]
  404059:	push   cs
  40405a:	add    ah,BYTE PTR [eax]
  40405c:	int3   
  40405d:	add    BYTE PTR [eax],al
  40405f:	add    BYTE PTR [eax+0x4e],bl
  404062:	sub    BYTE PTR [ecx+eax*1+0x0],ah
  404066:	push   es
  404067:	ins    BYTE PTR es:[edi],dx
  404068:	adc    DWORD PTR [edx+ebx*2],eax
  40406b:	imul   edx,DWORD PTR [esi+0x12],0xe
  40406f:	sbb    bl,BYTE PTR [eax+0x2]
  404072:	and    al,dl
  404074:	add    BYTE PTR [eax],al
  404076:	add    BYTE PTR [eax+0x4e],bl
  404079:	sub    BYTE PTR [ecx+eax*1+0x0],ah
  40407d:	push   es
  40407e:	push   esi
  40407f:	add    ah,BYTE PTR [eax]
  404081:	rol    BYTE PTR [eax],1
  404083:	add    BYTE PTR [eax],al
  404085:	pop    eax
  404086:	dec    esi
  404087:	sub    BYTE PTR [ebx+0x1],ah
  40408a:	add    BYTE PTR [esi],al
  40408c:	ins    BYTE PTR es:[edi],dx
  40408d:	or     eax,0x581e0e12
  404092:	add    ah,BYTE PTR [eax]
  404094:	int3   
  404095:	add    BYTE PTR [eax],al
  404097:	add    BYTE PTR [eax+0x4e],bl
  40409a:	sub    BYTE PTR [ebx+0x1],ah
  40409d:	add    BYTE PTR [esi],al
  40409f:	ins    BYTE PTR es:[edi],dx
  4040a0:	or     DWORD PTR [edx+0x6b],ebx
  4040a3:	push   esi
  4040a4:	adc    cl,BYTE PTR ds:0x22
  4040aa:	add    BYTE PTR [esi+0x12],dl
  4040ad:	or     eax,0x22581a
  4040b2:	add    BYTE PTR [eax+0xd12563f],al
  4040b8:	push   ds
  4040b9:	pop    eax
  4040ba:	and    al,BYTE PTR [eax]
  4040bc:	add    BYTE PTR [eax],al
  4040be:	add    BYTE PTR [esi+0x2],dl
  4040c1:	and    BYTE PTR [eax+0x1],ch
  4040c4:	add    BYTE PTR [eax],al
  4040c6:	pop    eax
  4040c7:	or     edx,DWORD PTR [edx]
  4040c9:	or     al,0x12
  4040cb:	or     eax,DWORD PTR [edi]
  4040cd:	adc    cl,BYTE PTR [edx]
  4040cf:	adc    cl,BYTE PTR [esi]
  4040d1:	add    ah,BYTE PTR [eax]
  4040d3:	aam    0x0
  4040d5:	add    BYTE PTR [eax],al
  4040d7:	pop    eax
  4040d8:	dec    esi
  4040d9:	sub    BYTE PTR [edi],al
  4040db:	add    BYTE PTR [eax],al
  4040dd:	push   es
  4040de:	sub    BYTE PTR [esi],al
  4040e0:	add    BYTE PTR [eax],al
  4040e2:	push   es
  4040e3:	pop    es
  4040e4:	adc    cl,BYTE PTR ds:0x13928
  4040ea:	push   es
  4040eb:	add    ah,BYTE PTR es:[eax]
  4040ee:	je     0x4040f1
  4040f0:	add    BYTE PTR [eax],al
  4040f2:	pop    eax
  4040f3:	or     dl,BYTE PTR [edx]
  4040f5:	or     DWORD PTR [esi],eax
  4040f7:	adc    cl,BYTE PTR [eax]
  4040f9:	adc    al,BYTE PTR [edi]
  4040fb:	adc    al,BYTE PTR [esi]
  4040fd:	adc    cl,BYTE PTR [edi+ebx*1]
  404100:	or     al,0x58
  404102:	adc    al,BYTE PTR ds:0x16128
  404108:	push   es
  404109:	add    ebp,DWORD PTR [eax]
  40410b:	pop    es
  40410c:	add    BYTE PTR [eax],al
  40410e:	push   es
  40410f:	and    ch,BYTE PTR [edi+0x12]
  404112:	cmp    DWORD PTR [edx],0x28
  404115:	pop    es
  404116:	add    BYTE PTR [eax],al
  404118:	push   es
  404119:	add    ah,BYTE PTR [eax]
  40411b:	aam    0x0
  40411d:	add    BYTE PTR [eax],al
  40411f:	pop    eax
  404120:	dec    esi
  404121:	sub    BYTE PTR [edi],al
  404123:	add    BYTE PTR [eax],al
  404125:	push   es
  404126:	sub    BYTE PTR [esi],al
  404128:	add    BYTE PTR [eax],al
  40412a:	push   es
  40412b:	or     al,0x6
  40412d:	or     BYTE PTR [edi],bl
  40412f:	or     al,0xfe
  404131:	pop    ss
  404132:	sub    cl,ah
  404134:	add    esi,DWORD PTR [eax]
  404136:	add    al,BYTE PTR [eax]
  404138:	or     al,BYTE PTR [eax]
  40413a:	add    BYTE PTR [eax],al
  40413c:	add    BYTE PTR [eax],al
  40413e:	add    BYTE PTR [eax],al
  404140:	add    ah,BYTE PTR [eax]
  404142:	int3   
  404143:	add    BYTE PTR [eax],al
  404145:	add    BYTE PTR [eax+0x3],bl
  404148:	push   esi
  404149:	sub    cl,ah
  40414b:	int3   
  40414c:	add    esi,DWORD PTR [eax]
  40414e:	add    al,BYTE PTR [eax]
  404150:	or     DWORD PTR [eax],eax
  404152:	add    BYTE PTR [eax],al
  404154:	add    BYTE PTR [eax],al
  404156:	add    BYTE PTR [eax],al
  404158:	add    ah,BYTE PTR [eax]
  40415a:	int3   
  40415b:	add    BYTE PTR [eax],al
  40415d:	add    BYTE PTR [eax+0x4e],bl
  404160:	sub    cl,ah
  404162:	int3   
  404163:	int3   
  404164:	add    esi,DWORD PTR [eax]
  404166:	add    al,BYTE PTR [eax]
  404168:	or     DWORD PTR [eax],eax
  40416a:	add    BYTE PTR [eax],al
  40416c:	add    BYTE PTR [eax],al
  40416e:	add    BYTE PTR [eax],al
  404170:	add    ah,BYTE PTR [eax]
  404172:	rol    BYTE PTR [eax],1
  404174:	add    BYTE PTR [eax],al
  404176:	pop    eax
  404177:	dec    esi
  404178:	sub    cl,ah
  40417a:	int3   
  40417b:	int3   
  40417c:	add    esi,DWORD PTR [eax]
  40417e:	add    al,BYTE PTR [eax]
  404180:	or     DWORD PTR [eax],eax
  404182:	add    BYTE PTR [eax],al
  404184:	add    BYTE PTR [eax],al
  404186:	add    BYTE PTR [eax],al
  404188:	add    ah,BYTE PTR [eax]
  40418a:	aam    0x0
  40418c:	add    BYTE PTR [eax],al
  40418e:	pop    eax
  40418f:	dec    esi
  404190:	sub    cl,ah
  404192:	int3   
  404193:	int3   
  404194:	add    esi,DWORD PTR [eax]
  404196:	add    al,BYTE PTR [eax]
  404198:	or     BYTE PTR [eax],al
  40419a:	add    BYTE PTR [eax],al
  40419c:	add    BYTE PTR [eax],al
  40419e:	add    BYTE PTR [eax],al
  4041a0:	add    ah,BYTE PTR [eax]
  4041a2:	in     al,dx
  4041a3:	add    BYTE PTR [eax],al
  4041a5:	add    BYTE PTR [eax+0x2a],bl
  4041a8:	add    esi,DWORD PTR [eax]
  4041aa:	add    eax,DWORD PTR [eax]
  4041ac:	or     eax,0x0
  4041b1:	add    BYTE PTR [eax],al
  4041b3:	add    BYTE PTR [edx],al
  4041b5:	and    BYTE PTR [eax+eax*1+0x3580000],bh
  4041bc:	pop    ds
  4041bd:	adc    dh,bh
  4041bf:	pop    ss
  4041c0:	sub    cl,ah
  4041c2:	int3   
  4041c3:	int3   
  4041c4:	add    esi,DWORD PTR [eax]
  4041c6:	add    al,BYTE PTR [eax]
  4041c8:	or     al,BYTE PTR [eax]
  4041ca:	add    BYTE PTR [eax],al
  4041cc:	add    BYTE PTR [eax],al
  4041ce:	add    BYTE PTR [eax],al
  4041d0:	add    ah,BYTE PTR [eax]
  4041d2:	mov    al,0x0
  4041d4:	add    BYTE PTR [eax],al
  4041d6:	pop    eax
  4041d7:	add    edx,DWORD PTR [edx+ebp*1-0x34]
  4041db:	int3   
  4041dc:	add    esi,DWORD PTR [eax]
  4041de:	add    al,BYTE PTR [eax]
  4041e0:	or     al,BYTE PTR [eax]
  4041e2:	add    BYTE PTR [eax],al
  4041e4:	add    BYTE PTR [eax],al
  4041e6:	add    BYTE PTR [eax],al
  4041e8:	add    ah,BYTE PTR [eax]
  4041ea:	mov    ah,0x0
  4041ec:	add    BYTE PTR [eax],al
  4041ee:	pop    eax
  4041ef:	add    edx,DWORD PTR [edx+ebp*1-0x34]
  4041f3:	int3   
  4041f4:	add    esi,DWORD PTR [eax]
  4041f6:	add    al,BYTE PTR [eax]
  4041f8:	adc    eax,0x26000000
  4041fd:	add    BYTE PTR [eax],al
  4041ff:	adc    DWORD PTR [edx],eax
  404201:	and    BYTE PTR [eax+0x58000000],bh
  404207:	dec    edx
  404208:	or     al,BYTE PTR [esi]
  40420a:	sub    al,0x8
  40420c:	push   es
  40420d:	pop    ds
  40420e:	sub    BYTE PTR fs:[ecx+eax*1+0x0],bl
  404213:	push   es
  404214:	sub    bh,bh
  404216:	and    eax,0x43000c
  40421b:	int3   
  40421c:	add    esi,DWORD PTR [eax]
  40421e:	add    al,BYTE PTR [eax]
  404220:	add    eax,0x0
  404225:	add    BYTE PTR [eax],al
  404227:	add    BYTE PTR [edx],al
  404229:	push   ds
  40422a:	pop    eax
  40422b:	dec    edx
  40422c:	sub    cl,ah
  40422e:	int3   
  40422f:	int3   
  404230:	add    esi,DWORD PTR [eax]
  404232:	add    al,BYTE PTR [eax]
  404234:	push   es
  404235:	add    BYTE PTR [eax],al
  404237:	add    BYTE PTR [eax],al
  404239:	add    BYTE PTR [eax],al
  40423b:	add    BYTE PTR [edx],al
  40423d:	pop    ds
  40423e:	or     al,0x58
  404240:	dec    edx
  404241:	sub    cl,ah
  404243:	int3   
  404244:	add    esi,DWORD PTR [eax]
  404246:	add    eax,DWORD PTR [eax]
  404248:	das    
  404249:	add    DWORD PTR [eax],eax
  40424b:	add    BYTE PTR [eax],ch
  40424d:	add    BYTE PTR [eax],al
  40424f:	adc    DWORD PTR [esi],edx
  404251:	adc    eax,DWORD PTR [esi]
  404253:	and    al,BYTE PTR [eax]
  404255:	add    BYTE PTR [eax],al
  404257:	add    BYTE PTR [ebx],dl
  404259:	add    eax,0x22
  40425e:	add    BYTE PTR [ebx],dl
  404260:	add    al,0x22
  404262:	add    BYTE PTR [eax],al
  404264:	add    BYTE PTR [eax],al
  404266:	or     eax,0xbc2002
  40426b:	add    BYTE PTR [eax],al
  40426d:	pop    eax
  40426e:	dec    esi
  40426f:	ins    BYTE PTR es:[edi],dx
  404270:	and    eax,DWORD PTR [eax]
  404272:	add    BYTE PTR [eax],al
  404274:	add    BYTE PTR [eax],al
  404276:	loopne 0x4042e7
  404278:	inc    eax
  404279:	pop    edx
  40427a:	imul   edx,DWORD PTR [ebx],0xc020020b
  404280:	add    BYTE PTR [eax],al
  404282:	add    BYTE PTR [eax+0x4e],bl
  404285:	ins    BYTE PTR es:[edi],dx
  404286:	and    eax,DWORD PTR [eax]
  404288:	add    BYTE PTR [eax],al
  40428a:	add    BYTE PTR [eax],al
  40428c:	loopne 0x4042fd
  40428e:	inc    eax
  40428f:	pop    edx
  404290:	imul   edx,DWORD PTR [ebx],0xc420020a
  404296:	add    BYTE PTR [eax],al
  404298:	add    BYTE PTR [eax+0x4e],bl
  40429b:	ins    BYTE PTR es:[edi],dx
  40429c:	and    eax,DWORD PTR [eax]
  40429e:	add    BYTE PTR [eax],al
  4042a0:	add    BYTE PTR [eax],al
  4042a2:	loopne 0x404313
  4042a4:	inc    eax
  4042a5:	pop    edx
  4042a6:	imul   edx,DWORD PTR [ebx],0x58180409
  4042ac:	or     bl,BYTE PTR [edi]
  4042ae:	adc    BYTE PTR [esi+eax*1],cl
  4042b1:	sbb    BYTE PTR [ecx+0x47],bl
  4042b4:	adc    eax,DWORD PTR [edi]
  4042b6:	adc    DWORD PTR [edi],eax
  4042b8:	adc    DWORD PTR [ebx],ecx
  4042ba:	xor    ecx,DWORD PTR [esi]
  4042bc:	push   es
  4042bd:	pop    ss
  4042be:	pop    ecx
  4042bf:	inc    edi
  4042c0:	adc    DWORD PTR [edx],ecx
  4042c2:	xor    eax,DWORD PTR [esi]
  4042c4:	push   es
  4042c5:	inc    edi
  4042c6:	adc    DWORD PTR [ecx],ecx
  4042c8:	cs inc ebp
  4042ca:	adc    DWORD PTR [edi],eax
  4042cc:	jbe    0x40433a
  4042ce:	and    eax,DWORD PTR [eax]
  4042d0:	add    BYTE PTR [eax],al
  4042d2:	add    BYTE PTR [eax],al
  4042d4:	loopne 0x404345
  4042d6:	inc    eax
  4042d7:	pop    ebx
  4042d8:	adc    DWORD PTR ds:0x136b586c,eax
  4042de:	add    eax,0x47591706
  4042e3:	jbe    0x404351
  4042e5:	and    eax,DWORD PTR [eax]
  4042e7:	add    BYTE PTR [eax],al
  4042e9:	add    BYTE PTR [eax],al
  4042eb:	loopne 0x40435c
  4042ed:	inc    eax
  4042ee:	pop    ebx
  4042ef:	adc    DWORD PTR [esp+ebp*2],eax
  4042f2:	pop    eax
  4042f3:	imul   edx,DWORD PTR [ebx],0x4
  4042f6:	push   es
  4042f7:	inc    edi
  4042f8:	jbe    0x404366
  4042fa:	and    eax,DWORD PTR [eax]
  4042fc:	add    BYTE PTR [eax],al
  4042fe:	add    BYTE PTR [eax],al
  404300:	loopne 0x404371
  404302:	inc    eax
  404303:	pop    ebx
  404304:	or     DWORD PTR [eax+ebx*2+0x6b],ebp
  404308:	or     eax,0x58170611
  40430d:	adc    eax,DWORD PTR [esi]
  40430f:	push   es
  404310:	sbb    bl,BYTE PTR [eax+0xa]
  404313:	or     BYTE PTR [edi],dl
  404315:	pop    ecx
  404316:	or     al,0x8
  404318:	push   ss
  404319:	xor    eax,0x6b061195
  40431e:	or     eax,DWORD PTR [edi]
  404320:	and    al,BYTE PTR [eax]
  404322:	add    BYTE PTR [eax+0x136b5a3d],al
  404328:	or     BYTE PTR [ebx],al
  40432a:	adc    DWORD PTR ds:0x5b6c076c,eax
  404330:	imul   ebp,DWORD PTR [ebx+eiz*1+0x0],0x0
  404335:	add    BYTE PTR [eax],al
  404337:	add    al,ah
  404339:	outs   dx,DWORD PTR ds:[esi]
  40433a:	inc    eax
  40433b:	pop    edx
  40433c:	imul   edx,DWORD PTR [edx+0x3],0x4115817
  404343:	ins    BYTE PTR es:[edi],dx
  404344:	pop    es
  404345:	ins    BYTE PTR es:[edi],dx
  404346:	pop    ebx
  404347:	imul   ebp,DWORD PTR [ebx+eiz*1+0x0],0x0
  40434c:	add    BYTE PTR [eax],al
  40434e:	add    al,ah
  404350:	outs   dx,DWORD PTR ds:[esi]
  404351:	inc    eax
  404352:	pop    edx
  404353:	imul   edx,DWORD PTR [edx+0x3],0x6c095818
  40435a:	pop    es
  40435b:	ins    BYTE PTR es:[edi],dx
  40435c:	pop    ebx
  40435d:	imul   ebp,DWORD PTR [ebx+eiz*1+0x0],0x0
  404362:	add    BYTE PTR [eax],al
  404364:	add    al,ah
  404366:	outs   dx,DWORD PTR ds:[esi]
  404367:	inc    eax
  404368:	pop    edx
  404369:	imul   edx,DWORD PTR [edx+0x3],0x8115819
  404370:	ins    BYTE PTR es:[edi],dx
  404371:	and    eax,DWORD PTR [eax]
  404373:	add    BYTE PTR [eax],al
  404375:	add    BYTE PTR [eax],al
  404377:	loopne 0x4043e8
  404379:	inc    eax
  40437a:	pop    edx
  40437b:	imul   edx,DWORD PTR [edx+0x3],0x3003cc2a
  404382:	add    eax,DWORD PTR [eax]
  404384:	call   0x2c404389
  404389:	add    BYTE PTR [eax],al
  40438b:	adc    DWORD PTR [esi],edx
  40438d:	or     al,0x16
  40438f:	add    eax,0xde3c
  404394:	add    BYTE PTR [edx],bl
  404396:	add    al,0x59
  404398:	adc    edx,DWORD PTR [eax]
  40439a:	push   ss
  40439b:	push   cs
  40439c:	add    al,0x3c
  40439e:	mov    BYTE PTR [eax],0x0
  4043a1:	add    BYTE PTR [eax+ecx*1],al
  4043a4:	sbb    bl,BYTE PTR [edx+0x58]
  4043a7:	adc    ecx,DWORD PTR [ecx+edx*1]
  4043aa:	or     al,0x11
  4043ac:	adc    BYTE PTR [eax+0x13],bl
  4043af:	or     edx,DWORD PTR [esi]
  4043b1:	or     al,BYTE PTR ds:0xf135a1a
  4043b7:	adc    DWORD PTR [ebx+edx*1],ecx
  4043ba:	or     DWORD PTR [esi],edx
  4043bc:	adc    ecx,DWORD PTR [eax]
  4043be:	add    eax,0x135a101f
  4043c3:	or     dl,BYTE PTR [ecx]
  4043c5:	or     dl,BYTE PTR [ebx]
  4043c7:	push   cs
  4043c8:	push   cs
  4043c9:	add    al,0x13
  4043cb:	pop    es
  4043cc:	push   ss
  4043cd:	adc    eax,DWORD PTR [esi]
  4043cf:	or     BYTE PTR [edx],bl
  4043d1:	pop    edx
  4043d2:	or     eax,DWORD PTR [edi]
  4043d4:	adc    DWORD PTR [ebx],ecx
  4043d6:	das    
  4043d7:	dec    ebp
  4043d8:	push   es
  4043d9:	and    eax,0x3e2f581a
  4043de:	adc    DWORD PTR [esi],eax
  4043e0:	sbb    bl,BYTE PTR [edx+0x12]
  4043e3:	adc    al,0x58
  4043e5:	adc    eax,DWORD PTR ds:0x58070811
  4043eb:	sbb    bl,BYTE PTR [edx+0x3]
  4043ee:	pop    eax
  4043ef:	adc    eax,DWORD PTR [esi+eax*1]
  4043f2:	sbb    bl,BYTE PTR [eax+0x6]
  4043f5:	pop    ecx
  4043f6:	or     eax,0x58061109
  4043fb:	adc    eax,DWORD PTR [esi]
  4043fd:	adc    DWORD PTR ds:0xfe1a0411,eax
  404403:	adc    al,BYTE PTR [ecx]
  404405:	(bad)  
  404406:	pop    ss
  404407:	adc    DWORD PTR ds:0x513581a,eax
  40440d:	adc    DWORD PTR [edx],ecx
  40440f:	adc    DWORD PTR [eax+ebx*2],eax
  404412:	adc    eax,DWORD PTR [ecx+ecx*1]
  404415:	pop    ss
  404416:	pop    ecx
  404417:	or     eax,0xe1351609
  40441c:	pop    es
  40441d:	pop    ss
  40441e:	pop    eax
  40441f:	or     eax,DWORD PTR [edi]
  404421:	adc    DWORD PTR [ebx],ecx
  404423:	xor    dh,BYTE PTR [ebx+0x12131202]
  404429:	adc    al,0x28
  40442b:	sub    DWORD PTR [eax],eax
  40442d:	add    BYTE PTR [esi],al
  40442f:	adc    ecx,DWORD PTR ds:0xd111212
  404435:	sbb    bh,dh
  404437:	adc    al,BYTE PTR [ecx]
  404439:	(bad)  
  40443a:	pop    ss
  40443b:	adc    DWORD PTR [ecx],ecx
  40443d:	adc    dl,BYTE PTR [edx]
  40443f:	sbb    bh,dh
  404441:	adc    al,BYTE PTR [ecx]
  404443:	(bad)  
  404444:	pop    ss
  404445:	push   es
  404446:	sbb    bl,BYTE PTR [eax+0xa]
  404449:	push   es
  40444a:	adc    edx,DWORD PTR [ecx]
  40444c:	adc    DWORD PTR [esi],ecx
  40444e:	adc    DWORD PTR [eax],ecx
  404450:	pop    eax
  404451:	adc    ecx,DWORD PTR [eax]
  404453:	adc    DWORD PTR [edi],ecx
  404455:	adc    DWORD PTR [ecx],ecx
  404457:	pop    eax
  404458:	adc    ecx,DWORD PTR [ecx]
  40445a:	adc    DWORD PTR [edi],eax
  40445c:	pop    ss
  40445d:	pop    ecx
  40445e:	adc    eax,DWORD PTR [edi]
  404460:	adc    DWORD PTR [edi],eax
  404462:	push   ss
  404463:	inc    edx
  404464:	fs (bad) 
  404466:	(bad)  
  404467:	dec    DWORD PTR [eax]
  404469:	pop    ss
  40446a:	pop    eax
  40446b:	or     al,0x8
  40446d:	add    eax,0xffff273f
  404472:	jmp    FWORD PTR [edx]
  404474:	add    esi,DWORD PTR [eax]
  404476:	push   es
  404477:	add    BYTE PTR [eax+eax*1+0x2f0000],al
  40447e:	add    BYTE PTR [ecx],dl
  404480:	jle    0x40448c
  404482:	add    DWORD PTR [eax],eax
  404484:	add    al,0x4a
  404486:	or     eax,DWORD PTR [edi]
  404488:	cmp    DWORD PTR [esi+0x0],esi
  40448b:	add    BYTE PTR [eax],al
  40448d:	pop    es
  40448e:	sub    BYTE PTR [esi+0x1],bl
  404491:	add    BYTE PTR [esi],al
  404493:	sub    BYTE PTR [ebp+0x1],bl
  404496:	add    BYTE PTR [esi],al
  404498:	or     al,BYTE PTR [edx]
  40449a:	and    BYTE PTR [eax+eax*1+0x4a580000],ch
  4044a1:	sub    al,0x13
  4044a3:	push   es
  4044a4:	add    ah,BYTE PTR [eax]
  4044a6:	lods   al,BYTE PTR ds:[esi]
  4044a7:	add    BYTE PTR [eax],al
  4044a9:	add    BYTE PTR [eax+0x6],bl
  4044ac:	dec    edx
  4044ad:	pop    ds
  4044ae:	and    al,0x58
  4044b0:	dec    edx
  4044b1:	sub    DWORD PTR ds:0x12110000,eax
  4044b7:	add    bl,BYTE PTR [edx]
  4044b9:	pop    eax
  4044ba:	add    edx,DWORD PTR [edx+edx*1+0x2]
  4044be:	push   ds
  4044bf:	pop    eax
  4044c0:	add    al,0x54
  4044c2:	adc    al,BYTE PTR [edx]
  4044c4:	pop    ds
  4044c5:	or     al,0x58
  4044c7:	sbb    BYTE PTR [edx+edx*1+0x2],dl
  4044cb:	pop    ds
  4044cc:	adc    BYTE PTR [eax+0x1e],bl
  4044cf:	push   esp
  4044d0:	adc    al,BYTE PTR [edx]
  4044d2:	pop    ds
  4044d3:	adc    al,0x58
  4044d5:	push   ss
  4044d6:	push   esp
  4044d7:	adc    al,BYTE PTR [edx]
  4044d9:	pop    ds
  4044da:	sbb    BYTE PTR [eax+0x16],bl
  4044dd:	push   esp
  4044de:	adc    al,BYTE PTR [edx]
  4044e0:	pop    ds
  4044e1:	sbb    al,0x58
  4044e3:	push   ss
  4044e4:	push   esp
  4044e5:	add    ah,BYTE PTR [eax]
  4044e7:	lods   al,BYTE PTR ds:[esi]
  4044e8:	add    BYTE PTR [eax],al
  4044ea:	add    BYTE PTR [eax+0x6],bl
  4044ed:	add    ah,BYTE PTR [eax]
  4044ef:	mov    ah,0x0
  4044f1:	add    BYTE PTR [eax],al
  4044f3:	pop    eax
  4044f4:	dec    edx
  4044f5:	adc    al,BYTE PTR [edx]
  4044f7:	push   es
  4044f8:	dec    edx
  4044f9:	pop    ds
  4044fa:	sbb    BYTE PTR [eax+0x4a],bl
  4044fd:	sub    DWORD PTR [eax+eax*1],eax
  404500:	add    BYTE PTR [ecx],dl
  404502:	push   esp
  404503:	sub    al,BYTE PTR [ebx]
  404505:	xor    BYTE PTR [eax],cl
  404507:	add    BYTE PTR [edx+0x0],al
  40450a:	add    BYTE PTR [eax],al
  40450c:	xor    BYTE PTR [eax],al
  40450e:	add    BYTE PTR [ecx],dl
  404510:	jle    0x40451c
  404512:	add    DWORD PTR [eax],eax
  404514:	add    al,0x4a
  404516:	or     al,0x8
  404518:	sub    al,0x37
  40451a:	or     BYTE PTR [eax],ch
  40451c:	pop    esi
  40451d:	add    DWORD PTR [eax],eax
  40451f:	push   es
  404520:	sub    BYTE PTR [ebp+0x1],bl
  404523:	add    BYTE PTR [esi],al
  404525:	or     al,BYTE PTR [edx]
  404527:	and    BYTE PTR [eax+eax*1+0xb580000],ah
  40452e:	pop    es
  40452f:	dec    edx
  404530:	sub    al,0xd
  404532:	push   es
  404533:	pop    es
  404534:	push   es
  404535:	dec    edx
  404536:	pop    ds
  404537:	and    al,0x58
  404539:	dec    edx
  40453a:	sub    DWORD PTR ds:0x7110000,eax
  404540:	push   es
  404541:	add    eax,DWORD PTR [eax+ebx*1]
  404544:	push   ds
  404545:	push   es
  404546:	dec    edx
  404547:	pop    ds
  404548:	and    BYTE PTR [eax+0x4a],bl
  40454b:	sub    DWORD PTR [ebx],eax
  40454d:	add    BYTE PTR [eax],al
  40454f:	adc    DWORD PTR [edx+ebp*1-0x34],edx
  404553:	int3   
  404554:	add    esi,DWORD PTR [eax]
  404556:	push   es
  404557:	add    BYTE PTR [eax+eax*1+0x2f0000],al
  40455e:	add    BYTE PTR [ecx],dl
  404560:	jle    0x40456c
  404562:	add    DWORD PTR [eax],eax
  404564:	add    al,0x4a
  404566:	or     eax,DWORD PTR [edi]
  404568:	cmp    DWORD PTR [esi+0x0],esi
  40456b:	add    BYTE PTR [eax],al
  40456d:	pop    es
  40456e:	sub    BYTE PTR [esi+0x1],bl
  404571:	add    BYTE PTR [esi],al
  404573:	sub    BYTE PTR [ebp+0x1],bl
  404576:	add    BYTE PTR [esi],al
  404578:	or     al,BYTE PTR [edx]
  40457a:	and    BYTE PTR [eax+0x58000000],ch
  404580:	dec    edx
  404581:	sub    al,0x13
  404583:	push   es
  404584:	add    ah,BYTE PTR [eax]
  404586:	test   al,0x0
  404588:	add    BYTE PTR [eax],al
  40458a:	pop    eax
  40458b:	push   es
  40458c:	dec    edx
  40458d:	pop    ds
  40458e:	and    al,0x58
  404590:	dec    edx
  404591:	sub    DWORD PTR ds:0x12110000,eax
  404597:	add    bl,BYTE PTR [edx]
  404599:	pop    eax
  40459a:	add    edx,DWORD PTR [edx+edx*1+0x2]
  40459e:	push   ds
  40459f:	pop    eax
  4045a0:	add    al,0x54
  4045a2:	adc    al,BYTE PTR [edx]
  4045a4:	pop    ds
  4045a5:	or     al,0x58
  4045a7:	sbb    BYTE PTR [edx+edx*1+0x2],dl
  4045ab:	pop    ds
  4045ac:	adc    BYTE PTR [eax+0x1e],bl
  4045af:	push   esp
  4045b0:	adc    al,BYTE PTR [edx]
  4045b2:	pop    ds
  4045b3:	adc    al,0x58
  4045b5:	push   ss
  4045b6:	push   esp
  4045b7:	adc    al,BYTE PTR [edx]
  4045b9:	pop    ds
  4045ba:	sbb    BYTE PTR [eax+0x16],bl
  4045bd:	push   esp
  4045be:	adc    al,BYTE PTR [edx]
  4045c0:	pop    ds
  4045c1:	sbb    al,0x58
  4045c3:	push   ss
  4045c4:	push   esp
  4045c5:	add    ah,BYTE PTR [eax]
  4045c7:	test   al,0x0
  4045c9:	add    BYTE PTR [eax],al
  4045cb:	pop    eax
  4045cc:	push   es
  4045cd:	add    ah,BYTE PTR [eax]
  4045cf:	mov    al,0x0
  4045d1:	add    BYTE PTR [eax],al
  4045d3:	pop    eax
  4045d4:	dec    edx
  4045d5:	adc    al,BYTE PTR [edx]
  4045d7:	push   es
  4045d8:	dec    edx
  4045d9:	pop    ds
  4045da:	sbb    BYTE PTR [eax+0x4a],bl
  4045dd:	sub    DWORD PTR [eax+eax*1],eax
  4045e0:	add    BYTE PTR [ecx],dl
  4045e2:	push   esp
  4045e3:	sub    al,BYTE PTR [ebx]
  4045e5:	xor    BYTE PTR [ebx],al
  4045e7:	add    BYTE PTR [ecx+0x0],cl
  4045ea:	add    BYTE PTR [eax],al
  4045ec:	xor    al,0x0
  4045ee:	add    BYTE PTR [ecx],dl
  4045f0:	add    ah,BYTE PTR [eax]
  4045f2:	mov    eax,0x58000000
  4045f7:	dec    edx
  4045f8:	sub    BYTE PTR [ecx+eax*1],al
  4045fb:	add    BYTE PTR [esi],al
  4045fd:	sub    BYTE PTR [ecx+0x1],al
  404600:	add    BYTE PTR [esi],al
  404602:	sub    BYTE PTR [eax+0x1],al
  404605:	add    BYTE PTR [esi],al
  404607:	or     al,0x12
  404609:	add    al,0x8
  40460b:	pop    ds
  40460c:	sbb    dh,bh
  40460e:	pop    ss
  40460f:	adc    al,BYTE PTR [edx+edx*1]
  404612:	add    ebp,DWORD PTR [eax]
  404614:	pop    edi
  404615:	add    DWORD PTR [eax],eax
  404617:	push   es
  404618:	push   ss
  404619:	or     edx,DWORD PTR [edx]
  40461b:	add    ecx,DWORD PTR [edx]
  40461d:	add    eax,DWORD PTR [esi]
  40461f:	sub    BYTE PTR [edx],ch
  404621:	add    DWORD PTR [eax],eax
  404623:	push   es
  404624:	sub    al,0xf
  404626:	pop    es
  404627:	pop    ss
  404628:	pop    eax
  404629:	or     eax,DWORD PTR [esi]
  40462b:	pop    ds
  40462c:	or     al,0x58
  40462e:	or     al,BYTE PTR [edi]
  404630:	push   ds
  404631:	xor    ch,dl
  404633:	sub    eax,DWORD PTR [edx]
  404635:	push   ss
  404636:	sub    dl,BYTE PTR [edi]
  404638:	sub    cl,ah
  40463a:	int3   
  40463b:	int3   
  40463c:	add    esi,DWORD PTR [eax]
  40463e:	or     BYTE PTR [eax],al
  404640:	cmp    eax,DWORD PTR [ecx]
  404642:	add    BYTE PTR [eax],al
  404644:	aaa    
  404645:	add    BYTE PTR [eax],al
  404647:	adc    DWORD PTR [edx],eax
  404649:	and    BYTE PTR [eax+eax*1+0x4a580000],ch
  404650:	cmp    DWORD PTR ds:0x7e000001,ebp
  404656:	or     al,BYTE PTR [ecx]
  404658:	add    BYTE PTR [edx+ecx*2],al
  40465b:	sub    BYTE PTR [esi+0x1],bl
  40465e:	add    BYTE PTR [esi],al
  404660:	sub    BYTE PTR [eax],ch
  404662:	add    DWORD PTR [eax],eax
  404664:	push   es
  404665:	or     al,BYTE PTR [esi]
  404667:	add    ah,BYTE PTR [eax]
  404669:	lods   al,BYTE PTR ds:[esi]
  40466a:	add    BYTE PTR [eax],al
  40466c:	add    BYTE PTR [eax+0x4a],bl
  40466f:	sub    BYTE PTR ds:0x6060001,ah
  404675:	sub    BYTE PTR [ecx+eax*1],ah
  404678:	add    BYTE PTR [esi],al
  40467a:	adc    cl,BYTE PTR es:[edx]
  40467d:	and    al,BYTE PTR [eax]
  40467f:	add    BYTE PTR [eax],al
  404681:	add    BYTE PTR [esi+0x12],dl
  404684:	or     bl,BYTE PTR [edx]
  404686:	pop    eax
  404687:	and    al,BYTE PTR [eax]
  404689:	add    BYTE PTR [eax],al
  40468b:	add    BYTE PTR [esi+0x12],dl
  40468e:	or     bl,BYTE PTR [esi]
  404690:	pop    eax
  404691:	and    al,BYTE PTR [eax]
  404693:	add    BYTE PTR [eax],al
  404695:	add    BYTE PTR [esi+0x12],dl
  404698:	or     bl,BYTE PTR [edi]
  40469a:	or     al,0x58
  40469c:	and    al,BYTE PTR [eax]
  40469e:	add    BYTE PTR [eax+0x1206563f],al
  4046a4:	or     ch,BYTE PTR [eax]
  4046a6:	and    eax,DWORD PTR [ecx]
  4046a8:	add    BYTE PTR [esi],al
  4046aa:	push   es
  4046ab:	pop    ds
  4046ac:	and    DWORD PTR [edx],esp
  4046ae:	add    BYTE PTR [eax],al
  4046b0:	cmp    BYTE PTR [edi],0x28
  4046b3:	and    al,BYTE PTR [ecx]
  4046b5:	add    BYTE PTR [esi],al
  4046b7:	push   es
  4046b8:	sub    BYTE PTR [ecx],bl
  4046ba:	add    DWORD PTR [eax],eax
  4046bc:	push   es
  4046bd:	or     al,0x12
  4046bf:	or     DWORD PTR [eax],ecx
  4046c1:	pop    ds
  4046c2:	adc    dh,bh
  4046c4:	pop    ss
  4046c5:	push   es
  4046c6:	adc    cl,BYTE PTR [eax]
  4046c8:	push   ss
  4046c9:	push   ss
  4046ca:	add    ah,BYTE PTR [eax]
  4046cc:	xchg   esp,eax
  4046cd:	add    BYTE PTR [eax],al
  4046cf:	add    BYTE PTR [eax+0x4a],bl
  4046d2:	adc    al,BYTE PTR [edi]
  4046d4:	sub    BYTE PTR [eax],bl
  4046d6:	add    DWORD PTR [eax],eax
  4046d8:	push   es
  4046d9:	push   ds
  4046da:	pop    eax
  4046db:	dec    esi
  4046dc:	ins    BYTE PTR es:[edi],dx
  4046dd:	imul   eax,DWORD PTR [edx],0x9420
  4046e3:	add    BYTE PTR [eax+0x4a],bl
  4046e6:	adc    al,BYTE PTR [esi]
  4046e8:	sub    BYTE PTR [eax],bl
  4046ea:	add    DWORD PTR [eax],eax
  4046ec:	push   es
  4046ed:	pop    ds
  4046ee:	or     al,0x58
  4046f0:	dec    esi
  4046f1:	ins    BYTE PTR es:[edi],dx
  4046f2:	imul   ebp,DWORD PTR [eax],0x6000156
  4046f8:	sub    BYTE PTR [edi],ah
  4046fa:	add    DWORD PTR [eax],eax
  4046fc:	push   es
  4046fd:	add    ah,BYTE PTR [eax]
  4046ff:	xchg   esp,eax
  404700:	add    BYTE PTR [eax],al
  404702:	add    BYTE PTR [eax+0x4a],bl
  404705:	or     eax,DWORD PTR [edi]
  404707:	sub    al,0x56
  404709:	adc    al,BYTE PTR ds:0x80000022
  40470f:	aas    
  404710:	push   esi
  404711:	adc    al,BYTE PTR ds:0x22581a
  404717:	add    BYTE PTR [eax+0x512563f],al
  40471d:	push   ds
  40471e:	pop    eax
  40471f:	and    al,BYTE PTR [eax]
  404721:	add    BYTE PTR [eax+0x512563f],al
  404727:	pop    ds
  404728:	or     al,0x58
  40472a:	and    al,BYTE PTR [eax]
  40472c:	add    BYTE PTR [eax+0x206563f],al
  404732:	and    BYTE PTR [eax+eax*1+0x4a580000],dl
  404739:	adc    al,BYTE PTR [eax+ebp*1]
  40473c:	sbb    BYTE PTR [ecx],al
  40473e:	add    BYTE PTR [esi],al
  404740:	add    ah,BYTE PTR [eax]
  404742:	xchg   esp,eax
  404743:	add    BYTE PTR [eax],al
  404745:	add    BYTE PTR [eax+0x4a],bl
  404748:	adc    al,BYTE PTR [ebx]
  40474a:	sub    BYTE PTR [eax],bl
  40474c:	add    DWORD PTR [eax],eax
  40474e:	push   es
  40474f:	pop    es
  404750:	sub    BYTE PTR [esi],dl
  404752:	add    DWORD PTR [eax],eax
  404754:	push   es
  404755:	push   ss
  404756:	pop    ss
  404757:	adc    al,BYTE PTR ds:0x1172816
  40475d:	add    BYTE PTR [esi],al
  40475f:	push   es
  404760:	sub    BYTE PTR [edx],bl
  404762:	add    DWORD PTR [eax],eax
  404764:	push   es
  404765:	push   es
  404766:	add    ah,BYTE PTR [eax]
  404768:	lods   al,BYTE PTR ds:[esi]
  404769:	add    BYTE PTR [eax],al
  40476b:	add    BYTE PTR [eax+0x4a],bl
  40476e:	sub    BYTE PTR ds:0x6060001,dl
  404774:	push   ss
  404775:	sub    BYTE PTR ds:0x6060001,ah
  40477b:	adc    cl,BYTE PTR [ecx]
  40477d:	sub    BYTE PTR [edi],ah
  40477f:	add    DWORD PTR [eax],eax
  404781:	push   es
  404782:	sub    cl,ah
  404784:	add    esi,DWORD PTR [eax]
  404786:	add    al,BYTE PTR [eax]
  404788:	or     al,BYTE PTR [eax]
  40478a:	add    BYTE PTR [eax],al
  40478c:	add    BYTE PTR [eax],al
  40478e:	add    BYTE PTR [eax],al
  404790:	add    bl,BYTE PTR [edi]
  404792:	push   0xae2858
  404797:	add    BYTE PTR [esi],al
  404799:	sub    cl,ah
  40479b:	int3   
  40479c:	add    esi,DWORD PTR [eax]
  40479e:	add    al,BYTE PTR [eax]
  4047a0:	or     al,BYTE PTR [eax]
  4047a2:	add    BYTE PTR [eax],al
  4047a4:	add    BYTE PTR [eax],al
  4047a6:	add    BYTE PTR [eax],al
  4047a8:	add    bl,BYTE PTR [edi]
  4047aa:	push   0xaf2858
  4047af:	add    BYTE PTR [esi],al
  4047b1:	sub    cl,ah
  4047b3:	int3   
  4047b4:	add    esi,DWORD PTR [eax]
  4047b6:	add    al,BYTE PTR [eax]
  4047b8:	push   es
  4047b9:	add    BYTE PTR [eax],al
  4047bb:	add    BYTE PTR [eax],al
  4047bd:	add    BYTE PTR [eax],al
  4047bf:	add    BYTE PTR [edx],al
  4047c1:	pop    ds
  4047c2:	fs pop eax
  4047c4:	inc    edi
  4047c5:	sub    cl,ah
  4047c7:	int3   
  4047c8:	add    esi,DWORD PTR [eax]
  4047ca:	add    al,BYTE PTR [eax]
  4047cc:	push   es
  4047cd:	add    BYTE PTR [eax],al
  4047cf:	add    BYTE PTR [eax],al
  4047d1:	add    BYTE PTR [eax],al
  4047d3:	add    BYTE PTR [edx],al
  4047d5:	pop    ds
  4047d6:	gs pop eax
  4047d8:	inc    edi
  4047d9:	sub    cl,ah
  4047db:	int3   
  4047dc:	add    esi,DWORD PTR [eax]
  4047de:	add    al,BYTE PTR [eax]
  4047e0:	adc    DWORD PTR [eax],eax
  4047e2:	add    BYTE PTR [eax],al
  4047e4:	add    BYTE PTR [eax],al
  4047e6:	add    BYTE PTR [eax],al
  4047e8:	add    bl,BYTE PTR [edi]
  4047ea:	push   0xa7280358
  4047ef:	add    BYTE PTR [eax],al
  4047f1:	push   es
  4047f2:	add    bl,BYTE PTR [edi]
  4047f4:	fs pop eax
  4047f6:	add    edx,DWORD PTR [edx+0x2a]
  4047f9:	int3   
  4047fa:	int3   
  4047fb:	int3   
  4047fc:	add    esi,DWORD PTR [eax]
  4047fe:	add    al,BYTE PTR [eax]
  404800:	pop    es
  404801:	add    BYTE PTR [eax],al
  404803:	add    BYTE PTR [eax],al
  404805:	add    BYTE PTR [eax],al
  404807:	add    BYTE PTR [edx],al
  404809:	pop    ds
  40480a:	gs pop eax
  40480c:	add    edx,DWORD PTR [edx+0x2a]
  40480f:	int3   
  404810:	add    esi,DWORD PTR [eax]
  404812:	add    eax,DWORD PTR [eax]
  404814:	add    BYTE PTR cs:[eax],al
  404817:	add    BYTE PTR [ecx],bh
  404819:	add    BYTE PTR [eax],al
  40481b:	adc    DWORD PTR [edx],edx
  40481d:	add    BYTE PTR [ebx],al
  40481f:	dec    esi
  404820:	push   esi
  404821:	adc    al,BYTE PTR [eax]
  404823:	sbb    bl,BYTE PTR [eax+0x3]
  404826:	sbb    bl,BYTE PTR [eax+0x4e]
  404829:	push   esi
  40482a:	adc    al,BYTE PTR [eax]
  40482c:	push   ds
  40482d:	pop    eax
  40482e:	add    ebx,DWORD PTR [esi]
  404830:	pop    eax
  404831:	dec    esi
  404832:	push   esi
  404833:	adc    al,BYTE PTR [eax]
  404835:	pop    ds
  404836:	or     al,0x58
  404838:	add    ebx,DWORD PTR [edi]
  40483a:	or     al,0x58
  40483c:	dec    esi
  40483d:	push   esi
  40483e:	add    bl,BYTE PTR [edi]
  404840:	push   0x28001258
  404845:	test   eax,0x2a060000
  40484a:	int3   
  40484b:	int3   
  40484c:	add    esi,DWORD PTR [eax]
  40484e:	add    eax,DWORD PTR [eax]
  404850:	pop    ds
  404851:	add    BYTE PTR [eax],al
  404853:	add    BYTE PTR [eax],al
  404855:	add    BYTE PTR [eax],al
  404857:	add    BYTE PTR [edx],al
  404859:	add    ecx,DWORD PTR [esi+0x56]
  40485c:	add    bl,BYTE PTR [edx]
  40485e:	pop    eax
  40485f:	add    ebx,DWORD PTR [edx]
  404861:	pop    eax
  404862:	dec    esi
  404863:	push   esi
  404864:	add    bl,BYTE PTR [esi]
  404866:	pop    eax
  404867:	add    ebx,DWORD PTR [esi]
  404869:	pop    eax
  40486a:	dec    esi
  40486b:	push   esi
  40486c:	add    bl,BYTE PTR [edi]
  40486e:	or     al,0x58
  404870:	add    ebx,DWORD PTR [edi]
  404872:	or     al,0x58
  404874:	dec    esi
  404875:	push   esi
  404876:	sub    cl,ah
  404878:	add    esi,DWORD PTR [eax]
  40487a:	or     BYTE PTR [eax],al
  40487c:	cmp    DWORD PTR [ecx],eax
  40487e:	add    BYTE PTR [eax],al
  404880:	cmp    al,BYTE PTR [eax]
  404882:	add    BYTE PTR [ecx],dl
  404884:	adc    dl,BYTE PTR [eax]
  404886:	add    ah,BYTE PTR [eax]
  404888:	add    BYTE PTR [ecx],0x0
  40488b:	add    BYTE PTR [eax+0x2],bl
  40488e:	and    BYTE PTR [ecx+eax*1+0x0],dh
  404892:	add    BYTE PTR [eax+0x28],bl
  404895:	push   es
  404896:	add    BYTE PTR [eax],al
  404898:	push   es
  404899:	add    ah,BYTE PTR es:[eax]
  40489c:	rol    BYTE PTR [eax],1
  40489e:	add    BYTE PTR [eax],al
  4048a0:	pop    eax
  4048a1:	dec    esi
  4048a2:	sub    BYTE PTR [ebx+0x1],ah
  4048a5:	add    BYTE PTR [esi],al
  4048a7:	ins    BYTE PTR es:[edi],dx
  4048a8:	or     eax,0x20020f12
  4048ad:	int3   
  4048ae:	add    BYTE PTR [eax],al
  4048b0:	add    BYTE PTR [eax+0x4e],bl
  4048b3:	sub    BYTE PTR [ecx+eax*1+0x0],ah
  4048b7:	push   es
  4048b8:	ins    BYTE PTR es:[edi],dx
  4048b9:	or     DWORD PTR [edx+0x6b],ebx
  4048bc:	push   esi
  4048bd:	adc    cl,BYTE PTR [edi]
  4048bf:	sbb    bl,BYTE PTR [eax+0x2]
  4048c2:	and    al,dl
  4048c4:	add    BYTE PTR [eax],al
  4048c6:	add    BYTE PTR [eax+0x4e],bl
  4048c9:	sub    BYTE PTR [ecx+eax*1+0x0],ah
  4048cd:	push   es
  4048ce:	push   esi
  4048cf:	add    ah,BYTE PTR [eax]
  4048d1:	rol    BYTE PTR [eax],1
  4048d3:	add    BYTE PTR [eax],al
  4048d5:	pop    eax
  4048d6:	dec    esi
  4048d7:	sub    BYTE PTR [ebx+0x1],ah
  4048da:	add    BYTE PTR [esi],al
  4048dc:	ins    BYTE PTR es:[edi],dx
  4048dd:	or     al,0x12
  4048df:	nop    DWORD PTR [eax+0x2]
  4048e3:	and    ah,cl
  4048e5:	add    BYTE PTR [eax],al
  4048e7:	add    BYTE PTR [eax+0x4e],bl
  4048ea:	sub    BYTE PTR [ebx+0x1],ah
  4048ed:	add    BYTE PTR [esi],al
  4048ef:	ins    BYTE PTR es:[edi],dx
  4048f0:	or     BYTE PTR [edx+0x6b],bl
  4048f3:	push   esi
  4048f4:	adc    cl,BYTE PTR [esi]
  4048f6:	sub    BYTE PTR [edx+0x1],ah
  4048f9:	add    BYTE PTR [esi],al
  4048fb:	add    ebp,DWORD PTR es:[edx+ebx*2]
  4048ff:	adc    cl,BYTE PTR ds:0x22
  404905:	add    BYTE PTR [esi+0x12],dl
  404908:	or     eax,0x22581a
  40490d:	add    BYTE PTR [eax+0xd12563f],al
  404913:	push   ds
  404914:	pop    eax
  404915:	and    al,BYTE PTR [eax]
  404917:	add    BYTE PTR [eax],al
  404919:	add    BYTE PTR [esi+0x12],dl
  40491c:	or     al,0x12
  40491e:	or     edx,DWORD PTR [edx]
  404920:	adc    BYTE PTR [edx],dl
  404922:	or     dl,BYTE PTR [edx]
  404924:	or     DWORD PTR [edx],edx
  404926:	lar    esp,WORD PTR [eax]
  404929:	aam    0x0
  40492b:	add    BYTE PTR [eax],al
  40492d:	pop    eax
  40492e:	dec    esi
  40492f:	sub    BYTE PTR [edi],al
  404931:	add    BYTE PTR [eax],al
  404933:	push   es
  404934:	add    ah,BYTE PTR [eax]
  404936:	call   0x5840493b
  40493b:	dec    esi
  40493c:	sub    BYTE PTR [edi],al
  40493e:	add    BYTE PTR [eax],al
  404940:	push   es
  404941:	sub    BYTE PTR [esi],al
  404943:	add    BYTE PTR [eax],al
  404945:	push   es
  404946:	adc    dl,BYTE PTR [eax]
  404948:	adc    cl,BYTE PTR ds:0x13928
  40494e:	push   es
  40494f:	or     edx,DWORD PTR [edx]
  404951:	push   cs
  404952:	pop    es
  404953:	pop    ds
  404954:	xor    dh,bh
  404956:	pop    ss
  404957:	sub    edx,DWORD PTR [ebp+0x12]
  40495a:	or     BYTE PTR [edx],ah
  40495c:	add    BYTE PTR [eax],al
  40495e:	add    BYTE PTR [eax],al
  404960:	push   esi
  404961:	adc    cl,BYTE PTR [eax]
  404963:	sbb    bl,BYTE PTR [eax+0x22]
  404966:	add    BYTE PTR [eax],al
  404968:	cmp    BYTE PTR [edi],0x56
  40496b:	adc    cl,BYTE PTR [eax]
  40496d:	push   ds
  40496e:	pop    eax
  40496f:	and    al,BYTE PTR [eax]
  404971:	add    BYTE PTR [eax],al
  404973:	add    BYTE PTR [esi+0x12],dl
  404976:	pop    es
  404977:	adc    al,BYTE PTR [esi]
  404979:	adc    dl,BYTE PTR [eax]
  40497b:	adc    al,BYTE PTR ds:0xf120412
  404981:	add    ah,BYTE PTR [eax]
  404983:	aam    0x0
  404985:	add    BYTE PTR [eax],al
  404987:	pop    eax
  404988:	dec    esi
  404989:	sub    BYTE PTR [edi],al
  40498b:	add    BYTE PTR [eax],al
  40498d:	push   es
  40498e:	and    al,BYTE PTR [eax]
  404990:	add    BYTE PTR [eax],al
  404992:	inc    eax
  404993:	sub    BYTE PTR [edi],al
  404995:	add    BYTE PTR [eax],al
  404997:	push   es
  404998:	sub    BYTE PTR [esi],al
  40499a:	add    BYTE PTR [eax],al
  40499c:	push   es
  40499d:	adc    dl,BYTE PTR [eax]
  40499f:	adc    cl,BYTE PTR [eax]
  4049a1:	sub    BYTE PTR [ecx],bh
  4049a3:	add    DWORD PTR [eax],eax
  4049a5:	push   es
  4049a6:	or     dl,BYTE PTR [edx]
  4049a8:	push   cs
  4049a9:	push   es
  4049aa:	pop    ds
  4049ab:	xor    dh,bh
  4049ad:	pop    ss
  4049ae:	add    ah,BYTE PTR [eax]
  4049b0:	in     al,dx
  4049b1:	add    BYTE PTR [eax],al
  4049b3:	add    BYTE PTR [eax+0x12],bl
  4049b6:	push   cs
  4049b7:	sub    BYTE PTR [ecx],dl
  4049b9:	add    DWORD PTR [eax],eax
  4049bb:	push   es
  4049bc:	sub    cl,ah
  4049be:	int3   
  4049bf:	int3   
  4049c0:	add    esi,DWORD PTR [eax]
  4049c2:	add    al,0x0
  4049c4:	and    eax,0x3b000000
  4049c9:	add    BYTE PTR [eax],al
  4049cb:	adc    DWORD PTR [edx],edx
  4049cd:	add    BYTE PTR [ebx],al
  4049cf:	push   esi
  4049d0:	adc    al,BYTE PTR [eax]
  4049d2:	sbb    bl,BYTE PTR [eax+0x4]
  4049d5:	push   esi
  4049d6:	add    bl,BYTE PTR [edi]
  4049d8:	push   0xec200258
  4049dd:	add    BYTE PTR [eax],al
  4049df:	add    BYTE PTR [eax+0x2],bl
  4049e2:	and    BYTE PTR [eax+0x1],bl
  4049e5:	add    BYTE PTR [eax],al
  4049e7:	pop    eax
  4049e8:	adc    al,BYTE PTR [eax]
  4049ea:	sub    BYTE PTR [ebx+0x26060000],ch
  4049f0:	sub    cl,ah
  4049f2:	int3   
  4049f3:	int3   
  4049f4:	add    esi,DWORD PTR [eax]
  4049f6:	add    al,BYTE PTR [eax]
  4049f8:	or     DWORD PTR [eax],eax
  4049fa:	add    BYTE PTR [eax],al
  4049fc:	add    BYTE PTR [eax],al
  4049fe:	add    BYTE PTR [eax],al
  404a00:	add    ah,BYTE PTR [eax]
  404a02:	mov    al,ds:0x58000000
  404a07:	dec    edx
  404a08:	sub    cl,ah
  404a0a:	int3   
  404a0b:	int3   
  404a0c:	add    esi,DWORD PTR [eax]
  404a0e:	add    eax,DWORD PTR [eax]
  404a10:	adc    al,BYTE PTR [eax]
  404a12:	add    BYTE PTR [eax],al
  404a14:	add    BYTE PTR [eax],al
  404a16:	add    BYTE PTR [eax],al
  404a18:	add    ah,BYTE PTR [eax]
  404a1a:	cwde   
  404a1b:	add    BYTE PTR [eax],al
  404a1d:	add    BYTE PTR [eax+0x4a],bl
  404a20:	add    ah,BYTE PTR [eax]
  404a22:	mov    al,ds:0x58000000
  404a27:	dec    edx
  404a28:	pop    ebx
  404a29:	sub    cl,ah
  404a2b:	int3   
  404a2c:	add    esi,DWORD PTR [eax]
  404a2e:	add    eax,DWORD PTR [eax]
  404a30:	adc    al,BYTE PTR [eax]
  404a32:	add    BYTE PTR [eax],al
  404a34:	add    BYTE PTR [eax],al
  404a36:	add    BYTE PTR [eax],al
  404a38:	add    ah,BYTE PTR [eax]
  404a3a:	pushf  
  404a3b:	add    BYTE PTR [eax],al
  404a3d:	add    BYTE PTR [eax+0x4a],bl
  404a40:	add    ah,BYTE PTR [eax]
  404a42:	mov    al,ds:0x58000000
  404a47:	dec    edx
  404a48:	pop    ebx
  404a49:	sub    cl,ah
  404a4b:	int3   
  404a4c:	add    esi,DWORD PTR [eax]
  404a4e:	add    BYTE PTR [eax],al
  404a50:	add    DWORD PTR [eax],eax
  404a52:	add    BYTE PTR [eax],al
  404a54:	add    BYTE PTR [eax],al
  404a56:	add    BYTE PTR [eax],al
  404a58:	sub    cl,ah
  404a5a:	int3   
  404a5b:	int3   
  404a5c:	add    esi,DWORD PTR [eax]
  404a5e:	add    al,BYTE PTR [eax]
  404a60:	aas    
  404a61:	add    BYTE PTR [eax],al
  404a63:	add    BYTE PTR [eax+0x0],cl
  404a66:	add    BYTE PTR [ecx],dl
  404a68:	jle    0x404a76
  404a6a:	add    DWORD PTR [eax],eax
  404a6c:	add    al,0x6c
  404a6e:	and    eax,DWORD PTR [eax]
  404a70:	add    BYTE PTR [eax],al
  404a72:	add    BYTE PTR [eax],al
  404a74:	add    al,ah
  404a76:	aas    
  404a77:	pop    edx
  404a78:	jle    0x404a85
  404a7a:	add    DWORD PTR [eax],eax
  404a7c:	add    al,0x6c
  404a7e:	pop    ecx
  404a7f:	imul   ecx,DWORD PTR [ebx],0x7
  404a82:	imul   ecx,DWORD PTR gs:0x6c096c03,0x36
  404a8a:	add    al,0x3
  404a8c:	or     ch,BYTE PTR [ebx]
  404a8e:	add    cl,BYTE PTR [ecx]
  404a90:	or     al,BYTE PTR [esi]
  404a92:	ins    BYTE PTR es:[edi],dx
  404a93:	pop    es
  404a94:	ins    BYTE PTR es:[edi],dx
  404a95:	xor    al,0x4
  404a97:	push   es
  404a98:	or     al,0x2b
  404a9a:	add    al,BYTE PTR [edi]
  404a9c:	or     al,0x2
  404a9e:	and    al,dl
  404aa0:	add    BYTE PTR [eax],al
  404aa2:	add    BYTE PTR [eax+0x8],bl
  404aa5:	push   esi
  404aa6:	sub    cl,ah
  404aa8:	add    esi,DWORD PTR [eax]
  404aaa:	add    al,BYTE PTR [eax]
  404aac:	cmp    BYTE PTR [eax],al
  404aae:	add    BYTE PTR [eax],al
  404ab0:	dec    ecx
  404ab1:	add    BYTE PTR [eax],al
  404ab3:	adc    DWORD PTR [ebx],eax
  404ab5:	ins    BYTE PTR es:[edi],dx
  404ab6:	and    eax,DWORD PTR [eax]
  404ab8:	add    BYTE PTR [eax],al
  404aba:	mov    al,ds:0x3fb99999
  404abf:	ss add al,0x3
  404ac2:	or     ch,BYTE PTR [ebx]
  404ac4:	push   es
  404ac5:	and    cl,ch
  404ac7:	int3   
  404ac8:	int3   
  404ac9:	cmp    eax,0x236c060a
  404ace:	add    BYTE PTR [eax],al
  404ad0:	add    BYTE PTR [eax],al
  404ad2:	add    BYTE PTR [eax],al
  404ad4:	dec    ecx
  404ad5:	inc    eax
  404ad6:	xor    al,0x4
  404ad8:	push   es
  404ad9:	or     ebp,DWORD PTR [ebx]
  404adb:	push   es
  404adc:	and    al,BYTE PTR [eax]
  404ade:	add    BYTE PTR [eax+0x42],cl
  404ae1:	or     eax,DWORD PTR [edx]
  404ae3:	and    ah,dl
  404ae5:	add    BYTE PTR [eax],al
  404ae7:	add    BYTE PTR [eax+0x7],bl
  404aea:	push   esi
  404aeb:	sub    al,BYTE PTR [ebx]
  404aed:	xor    BYTE PTR [ebx],al
  404aef:	add    BYTE PTR [eax+eax*1+0x0],ch
  404af3:	add    BYTE PTR [edx+0x0],cl
  404af6:	add    BYTE PTR [ecx],dl
  404af8:	add    ah,BYTE PTR [eax]
  404afa:	xchg   esp,eax
  404afb:	add    BYTE PTR [eax],al
  404afd:	add    BYTE PTR [eax+0x4a],bl
  404b00:	adc    eax,DWORD PTR [ecx+edx*1]
  404b03:	add    al,0x2c
  404b05:	and    eax,DWORD PTR [edx]
  404b07:	push   ds
  404b08:	pop    eax
  404b09:	or     eax,DWORD PTR [edi]
  404b0b:	adc    DWORD PTR [eax+ebp*1],eax
  404b0e:	cmp    BYTE PTR [ecx],al
  404b10:	add    BYTE PTR [esi],al
  404b12:	push   esp
  404b13:	add    bl,BYTE PTR [edi]
  404b15:	or     al,0x58
  404b17:	or     al,BYTE PTR [esi]
  404b19:	add    ah,BYTE PTR [eax]
  404b1b:	xchg   esp,eax
  404b1c:	add    BYTE PTR [eax],al
  404b1e:	add    BYTE PTR [eax+0x4a],bl
  404b21:	sub    BYTE PTR [edi],dh
  404b23:	add    DWORD PTR [eax],eax
  404b25:	push   es
  404b26:	push   esp
  404b27:	sub    ecx,DWORD PTR [edi]
  404b29:	add    bl,BYTE PTR [esi]
  404b2b:	pop    eax
  404b2c:	or     eax,DWORD PTR [edi]
  404b2e:	push   ss
  404b2f:	push   esp
  404b30:	add    bl,BYTE PTR [edi]
  404b32:	or     al,0x58
  404b34:	or     al,BYTE PTR [esi]
  404b36:	push   ss
  404b37:	push   esp
  404b38:	pop    es
  404b39:	dec    edx
  404b3a:	or     al,0x2
  404b3c:	pop    ds
  404b3d:	adc    BYTE PTR [eax+0x4a],bl
  404b40:	or     BYTE PTR [ebx],dh
  404b42:	or     DWORD PTR [edx],eax
  404b44:	pop    ds
  404b45:	adc    al,0x58
  404b47:	dec    edx
  404b48:	push   es
  404b49:	dec    edx
  404b4a:	cs pop ss
  404b4c:	add    bl,BYTE PTR [edi]
  404b4e:	adc    BYTE PTR [eax+0x8],bl
  404b51:	push   esp
  404b52:	push   es
  404b53:	dec    edx
  404b54:	or     eax,0x58141f02
  404b59:	or     DWORD PTR [edx+eax*1+0x8],edx
  404b5d:	or     DWORD PTR [eax],ebp
  404b5f:	sub    eax,0x2a060000
  404b64:	add    esi,DWORD PTR [eax]
  404b66:	add    eax,0x5e00
  404b6b:	add    BYTE PTR [ebx+0x0],cl
  404b6e:	add    BYTE PTR [ecx],dl
  404b70:	adc    al,BYTE PTR [ecx]
  404b72:	push   ss
  404b73:	push   ss
  404b74:	add    eax,DWORD PTR [eax+ebp*1]
  404b77:	push   esi
  404b78:	add    DWORD PTR [eax],eax
  404b7a:	push   es
  404b7b:	or     al,BYTE PTR [edx]
  404b7d:	and    BYTE PTR [eax],bh
  404b7f:	add    DWORD PTR [eax],eax
  404b81:	add    BYTE PTR [eax+0x6],bl
  404b84:	pop    ds
  404b85:	adc    dh,bh
  404b87:	pop    ss
  404b88:	add    eax,DWORD PTR [edx]
  404b8a:	and    BYTE PTR [eax+0x58000000],bl
  404b90:	dec    edx
  404b91:	xor    ecx,DWORD PTR [ebx]
  404b93:	add    al,0x2
  404b95:	and    BYTE PTR [eax+eax*1+0x4a580000],bl
  404b9c:	or     BYTE PTR cs:[edx],al
  404b9f:	add    eax,DWORD PTR [eax+ebp*1]
  404ba2:	das    
  404ba3:	add    BYTE PTR [eax],al
  404ba5:	push   es
  404ba6:	add    ah,BYTE PTR [eax]
  404ba8:	mov    al,ds:0x58000000
  404bad:	add    eax,0xe8200254
  404bb2:	add    BYTE PTR [eax],al
  404bb4:	add    BYTE PTR [eax+0x4],bl
  404bb7:	add    eax,0x2566b5b
  404bbc:	and    BYTE PTR [eax+0x58000000],bl
  404bc2:	add    edx,DWORD PTR [edx+eax*1+0x20]
  404bc6:	pushf  
  404bc7:	add    BYTE PTR [eax],al
  404bc9:	add    BYTE PTR [eax+0x4],bl
  404bcc:	push   esp
  404bcd:	sub    cl,ah
  404bcf:	int3   
  404bd0:	add    esi,DWORD PTR [eax]
  404bd2:	add    eax,DWORD PTR [eax]
  404bd4:	popf   
  404bd5:	add    BYTE PTR [eax],al
  404bd7:	add    BYTE PTR [ebp+0x0],cl
  404bda:	add    BYTE PTR [ecx],dl
  404bdc:	adc    al,BYTE PTR ds:0x22
  404be2:	add    BYTE PTR [esi+0x12],dl
  404be5:	add    eax,0x22581a
  404bea:	add    BYTE PTR [eax],al
  404bec:	add    BYTE PTR [esi+0x12],dl
  404bef:	add    eax,0x22581e
  404bf4:	add    BYTE PTR [eax],al
  404bf6:	add    BYTE PTR [esi+0x2],dl
  404bf9:	and    BYTE PTR [ecx+eax*1+0x0],dh
  404bfd:	add    BYTE PTR [eax+0x12],bl
  404c00:	add    eax,0x17fe0c1f
  404c05:	add    ah,BYTE PTR [eax]
  404c07:	aam    0x0
  404c09:	add    BYTE PTR [eax],al
  404c0b:	pop    eax
  404c0c:	and    al,BYTE PTR [eax]
  404c0e:	add    BYTE PTR [eax],ah
  404c10:	inc    ecx
  404c11:	push   esi
  404c12:	add    dl,BYTE PTR [edi]
  404c14:	sub    BYTE PTR [edx+0x0],al
  404c17:	add    BYTE PTR [esi],al
  404c19:	add    ah,BYTE PTR [eax]
  404c1b:	cmp    BYTE PTR [ecx],al
  404c1d:	add    BYTE PTR [eax],al
  404c1f:	pop    eax
  404c20:	or     eax,DWORD PTR [edx]
  404c22:	and    ah,ch
  404c24:	add    BYTE PTR [eax],al
  404c26:	add    BYTE PTR [eax+0xa],bl
  404c29:	push   es
  404c2a:	adc    al,BYTE PTR [edi+eax*1]
  404c2d:	sub    BYTE PTR [ecx],ch
  404c2f:	add    DWORD PTR [eax],eax
  404c31:	push   es
  404c32:	add    dl,BYTE PTR es:[edx]
  404c35:	add    al,0x28
  404c37:	xor    BYTE PTR [eax],al
  404c39:	add    BYTE PTR [esi],al
  404c3b:	sub    al,0x3b
  404c3d:	push   es
  404c3e:	adc    al,BYTE PTR [ebx]
  404c40:	pop    es
  404c41:	sub    BYTE PTR [ecx],ch
  404c43:	add    DWORD PTR [eax],eax
  404c45:	push   es
  404c46:	or     al,0x12
  404c48:	add    al,0x8
  404c4a:	and    BYTE PTR [esp+eax*1],al
  404c4d:	add    BYTE PTR [eax],al
  404c4f:	(bad)  
  404c50:	pop    ss
  404c51:	add    ah,BYTE PTR [eax]
  404c53:	aam    0x0
  404c55:	add    BYTE PTR [eax],al
  404c57:	pop    eax
  404c58:	add    ah,BYTE PTR [eax]
  404c5a:	aam    0x0
  404c5c:	add    BYTE PTR [eax],al
  404c5e:	pop    eax
  404c5f:	dec    esi
  404c60:	and    cl,BYTE PTR [edx]
  404c62:	xlat   BYTE PTR ds:[ebx]
  404c63:	and    edi,DWORD PTR [ecx+ebx*2]
  404c66:	push   esi
  404c67:	add    dl,BYTE PTR [edi]
  404c69:	sub    BYTE PTR [edx+0x0],al
  404c6c:	add    BYTE PTR [esi],al
  404c6e:	add    dl,BYTE PTR [edx]
  404c70:	add    al,0x28
  404c72:	xor    BYTE PTR [eax],al
  404c74:	add    BYTE PTR [esi],al
  404c76:	sub    eax,0xcccc2ac5
  404c7b:	int3   
  404c7c:	add    esi,DWORD PTR [eax]
  404c7e:	add    al,BYTE PTR [eax]
  404c80:	push   es
  404c81:	add    BYTE PTR [eax],al
  404c83:	add    BYTE PTR [eax],al
  404c85:	add    BYTE PTR [eax],al
  404c87:	add    BYTE PTR [ebx],al
  404c89:	add    cl,BYTE PTR [edx+0x54]
  404c8c:	add    ebp,DWORD PTR [edx]
  404c8e:	int3   
  404c8f:	int3   
  404c90:	add    esi,DWORD PTR [eax]
  404c92:	add    eax,DWORD PTR [eax]
  404c94:	jns    0x404c96
  404c96:	add    BYTE PTR [eax],al
  404c98:	push   esi
  404c99:	add    BYTE PTR [eax],al
  404c9b:	adc    DWORD PTR [edx],eax
  404c9d:	pop    ds
  404c9e:	adc    BYTE PTR [eax+0x4a],bl
  404ca1:	or     eax,DWORD PTR [edi]
  404ca3:	add    esi,DWORD PTR [edx+ecx*1]
  404ca6:	jg     0x404cd6
  404ca8:	add    BYTE PTR [eax],al
  404caa:	add    al,0x28
  404cac:	add    DWORD PTR gs:[eax],eax
  404caf:	push   es
  404cb0:	pop    es
  404cb1:	add    ebx,DWORD PTR [ecx+0x4]
  404cb4:	xor    eax,0x101f021a
  404cb9:	pop    eax
  404cba:	add    edx,DWORD PTR [edi+ebx*1+0x10]
  404cbe:	add    bl,BYTE PTR [edi]
  404cc0:	adc    al,0x58
  404cc2:	dec    edx
  404cc3:	xor    eax,0x2b4a0204
  404cc8:	add    DWORD PTR [edx],eax
  404cca:	add    ebx,DWORD PTR [eax+0x16]
  404ccd:	push   edx
  404cce:	sub    eax,DWORD PTR [ebx+0x16]
  404cd1:	add    al,0x34
  404cd3:	aas    
  404cd4:	pop    ds
  404cd5:	adc    BYTE PTR [edx],al
  404cd7:	pop    ds
  404cd8:	adc    al,0x58
  404cda:	dec    edx
  404cdb:	xor    eax,0x2b4a0204
  404ce0:	add    DWORD PTR [edx],eax
  404ce2:	add    ebx,DWORD PTR [eax+0xd]
  404ce5:	pop    es
  404ce6:	add    al,0x59
  404ce8:	or     al,BYTE PTR [esi]
  404cea:	add    ebx,DWORD PTR [ecx+0xc]
  404ced:	or     BYTE PTR [ebx+ecx*1],ch
  404cf0:	or     DWORD PTR ds:0x28085804,esp
  404cf6:	jno    0x404cf9
  404cf8:	add    BYTE PTR [esi],al
  404cfa:	add    bl,BYTE PTR es:[edi]
  404cfd:	adc    BYTE PTR [eax+0x6],bl
  404d00:	push   esp
  404d01:	pop    ds
  404d02:	adc    BYTE PTR [edx],al
  404d04:	pop    ds
  404d05:	adc    al,0x58
  404d07:	dec    edx
  404d08:	xor    eax,0x2b4a0204
  404d0d:	add    DWORD PTR [edx],eax
  404d0f:	push   es
  404d10:	pop    eax
  404d11:	push   ss
  404d12:	push   edx
  404d13:	add    ch,BYTE PTR [edx]
  404d15:	int3   
  404d16:	int3   
  404d17:	int3   
  404d18:	add    esi,DWORD PTR [eax]
  404d1a:	add    eax,DWORD PTR [eax]
  404d1c:	sub    al,0x0
  404d1e:	add    BYTE PTR [eax],al
  404d20:	add    BYTE PTR [eax],al
  404d22:	add    BYTE PTR [eax],al
  404d24:	add    bl,BYTE PTR [edi]
  404d26:	adc    BYTE PTR [eax+0x4a],bl
  404d29:	add    esi,DWORD PTR [edx+ecx*1]
  404d2c:	jg     0x404d5c
  404d2e:	add    BYTE PTR [eax],al
  404d30:	add    al,0x28
  404d32:	add    DWORD PTR gs:[eax],eax
  404d35:	push   es
  404d36:	add    bl,BYTE PTR [edi]
  404d38:	adc    BYTE PTR [eax+0x3],bl
  404d3b:	push   esp
  404d3c:	pop    ds
  404d3d:	adc    BYTE PTR [edx],al
  404d3f:	pop    ds
  404d40:	adc    al,0x58
  404d42:	dec    edx
  404d43:	xor    eax,0x2b4a0204
  404d48:	add    DWORD PTR [edx],eax
  404d4a:	add    ebx,DWORD PTR [eax+0x16]
  404d4d:	push   edx
  404d4e:	add    ch,BYTE PTR [edx]
  404d50:	or     esi,DWORD PTR [eax]
  404d52:	add    al,BYTE PTR [eax]
  404d54:	sbb    eax,0x0
  404d59:	add    BYTE PTR [eax],al
  404d5b:	add    BYTE PTR [edx],al
  404d5d:	pop    ds
  404d5e:	adc    BYTE PTR [eax+0x16],bl
  404d61:	push   esp
  404d62:	add    bl,BYTE PTR [edi]
  404d64:	adc    al,0x58
  404d66:	push   ss
  404d67:	push   esp
  404d68:	fimul  WORD PTR ds:0x6406fe
  404d6e:	add    BYTE PTR [esi],al
  404d70:	add    ch,BYTE PTR [eax]
  404d72:	jmp    0x2a02:0xdc060000
  404d79:	add    BYTE PTR [eax],al
  404d7b:	add    BYTE PTR [ecx+0x1c],al
  404d7e:	add    BYTE PTR [eax],al
  404d80:	add    al,0x0
  404d82:	add    BYTE PTR [eax],al
  404d84:	add    BYTE PTR [eax],al
  404d86:	add    BYTE PTR [eax],al
  404d88:	push   cs
  404d89:	add    BYTE PTR [eax],al
  404d8b:	add    BYTE PTR [esi],cl
  404d8d:	add    BYTE PTR [eax],al
  404d8f:	add    BYTE PTR ds:0x27000000,cl
  404d95:	add    BYTE PTR [eax],al
  404d97:	add    DWORD PTR [ebx],eax
  404d99:	xor    BYTE PTR [edx],al
  404d9b:	add    BYTE PTR [edi],al
  404d9d:	add    BYTE PTR [eax],al
  404d9f:	add    BYTE PTR [eax],al
  404da1:	add    BYTE PTR [eax],al
  404da3:	add    BYTE PTR [ebx],al
  404da5:	add    cl,BYTE PTR [edx+0x4a]
  404da8:	push   esp
  404da9:	add    ebp,DWORD PTR [edx]
  404dab:	int3   
  404dac:	add    esi,DWORD PTR [eax]
  404dae:	add    eax,DWORD PTR [eax]
  404db0:	or     BYTE PTR [eax],al
  404db2:	add    BYTE PTR [eax],al
  404db4:	add    BYTE PTR [eax],al
  404db6:	add    BYTE PTR [eax],al
  404db8:	add    eax,DWORD PTR [edx]
  404dba:	sbb    bl,BYTE PTR [eax+0x4a]
  404dbd:	push   esp
  404dbe:	add    ebp,DWORD PTR [edx]
  404dc0:	add    esi,DWORD PTR [eax]
  404dc2:	add    al,BYTE PTR [eax]
  404dc4:	push   es
  404dc5:	add    BYTE PTR [eax],al
  404dc7:	add    BYTE PTR [eax],al
  404dc9:	add    BYTE PTR [eax],al
  404dcb:	add    BYTE PTR [ebx],al
  404dcd:	add    cl,BYTE PTR [edx+0x54]
  404dd0:	add    ebp,DWORD PTR [edx]
  404dd2:	int3   
  404dd3:	int3   
  404dd4:	add    esi,DWORD PTR [eax]
  404dd6:	add    BYTE PTR [eax],al
  404dd8:	add    DWORD PTR [eax],eax
  404dda:	add    BYTE PTR [eax],al
  404ddc:	add    BYTE PTR [eax],al
  404dde:	add    BYTE PTR [eax],al
  404de0:	sub    al,BYTE PTR [eax]
  404de2:	add    BYTE PTR [eax],al
  404de4:	add    esi,DWORD PTR [eax]
  404de6:	add    eax,DWORD PTR [eax]
  404de8:	and    eax,0x26000000
  404ded:	add    BYTE PTR [eax],al
  404def:	adc    DWORD PTR [edx],eax
  404df1:	dec    edx
  404df2:	or     al,BYTE PTR [esi]
  404df4:	sub    al,0x1e
  404df6:	push   es
  404df7:	add    bl,BYTE PTR [esi]
  404df9:	pop    eax
  404dfa:	dec    edx
  404dfb:	push   es
  404dfc:	pop    ecx
  404dfd:	pop    ds
  404dfe:	and    al,0x5b
  404e00:	pop    ds
  404e01:	and    al,0x28
  404e03:	add    eax,0x2060000
  404e08:	push   ss
  404e09:	push   esp
  404e0a:	add    bl,BYTE PTR [edx]
  404e0c:	pop    eax
  404e0d:	push   ss
  404e0e:	push   esp
  404e0f:	add    bl,BYTE PTR [esi]
  404e11:	pop    eax
  404e12:	push   ss
  404e13:	push   esp
  404e14:	sub    cl,ah
  404e16:	int3   
  404e17:	int3   
  404e18:	add    esi,DWORD PTR [eax]
  404e1a:	add    eax,DWORD PTR [eax]
  404e1c:	and    eax,DWORD PTR [eax]
  404e1e:	add    BYTE PTR [eax],al
  404e20:	add    BYTE PTR es:[eax],al
  404e23:	adc    DWORD PTR [edx],eax
  404e25:	dec    edx
  404e26:	or     al,BYTE PTR [esi]
  404e28:	sub    al,0x1c
  404e2a:	push   es
  404e2b:	add    bl,BYTE PTR [esi]
  404e2d:	pop    eax
  404e2e:	dec    edx
  404e2f:	push   es
  404e30:	pop    ecx
  404e31:	sbb    BYTE PTR [ebx+0x1a],ah
  404e34:	sub    BYTE PTR ds:0x2060000,al
  404e3a:	push   ss
  404e3b:	push   esp
  404e3c:	add    bl,BYTE PTR [edx]
  404e3e:	pop    eax
  404e3f:	push   ss
  404e40:	push   esp
  404e41:	add    bl,BYTE PTR [esi]
  404e43:	pop    eax
  404e44:	push   ss
  404e45:	push   esp
  404e46:	sub    cl,ah
  404e48:	add    esi,DWORD PTR [eax]
  404e4a:	add    eax,DWORD PTR [eax]
  404e4c:	cmp    DWORD PTR [eax],eax
  404e4e:	add    BYTE PTR [eax],al
  404e50:	adc    al,BYTE PTR [eax]
  404e52:	add    BYTE PTR [ecx],dl
  404e54:	add    ebp,DWORD PTR [ebx+eiz*1]
  404e57:	pop    ds
  404e58:	adc    BYTE PTR [edx],al
  404e5a:	pop    ds
  404e5b:	adc    al,0x58
  404e5d:	dec    edx
  404e5e:	xor    eax,0xa4a021a
  404e63:	push   ss
  404e64:	add    al,0x34
  404e66:	add    eax,0xfe040602
  404e6b:	pop    ss
  404e6c:	push   es
  404e6d:	add    bl,BYTE PTR [edi]
  404e6f:	adc    al,0x58
  404e71:	dec    edx
  404e72:	pop    ss
  404e73:	pop    eax
  404e74:	pop    ss
  404e75:	sub    BYTE PTR ds:0x2060000,al
  404e7b:	pop    ds
  404e7c:	adc    al,0x58
  404e7e:	pop    ds
  404e7f:	andps  xmm0,XMMWORD PTR [edx]
  404e82:	pop    ds
  404e83:	adc    BYTE PTR [eax+0x4],bl
  404e86:	push   esp
  404e87:	add    al,0x2
  404e89:	pop    eax
  404e8a:	push   ss
  404e8b:	push   edx
  404e8c:	sub    cl,ah
  404e8e:	int3   
  404e8f:	int3   
  404e90:	add    esi,DWORD PTR [eax]
  404e92:	add    eax,DWORD PTR [eax]
  404e94:	inc    esi
  404e95:	add    BYTE PTR [eax],al
  404e97:	add    BYTE PTR [esi],ah
  404e99:	add    BYTE PTR [eax],al
  404e9b:	adc    DWORD PTR [ebx],eax
  404e9d:	pop    ds
  404e9e:	adc    al,0x58
  404ea0:	dec    edx
  404ea1:	pop    ds
  404ea2:	adc    BYTE PTR [esi+edx*1],dh
  404ea5:	add    ebx,DWORD PTR [edi]
  404ea7:	adc    BYTE PTR [eax+0x4a],bl
  404eaa:	pop    ss
  404eab:	pop    eax
  404eac:	or     al,BYTE PTR [esi]
  404eae:	sub    al,0x15
  404eb0:	add    al,BYTE PTR [ebx]
  404eb2:	push   es
  404eb3:	sub    BYTE PTR [ecx+0x1],dh
  404eb6:	add    BYTE PTR [esi],al
  404eb8:	sub    ecx,DWORD PTR es:[edx]
  404ebb:	add    ch,BYTE PTR [esp+eax*1]
  404ebe:	add    al,BYTE PTR [ebx]
  404ec0:	dec    edx
  404ec1:	push   esp
  404ec2:	add    edx,DWORD PTR [esi]
  404ec4:	push   esp
  404ec5:	add    bl,BYTE PTR [edi]
  404ec7:	adc    BYTE PTR [eax+0x3],bl
  404eca:	pop    ds
  404ecb:	adc    BYTE PTR [eax+0x4a],bl
  404ece:	push   esp
  404ecf:	add    bl,BYTE PTR [edi]
  404ed1:	adc    al,0x58
  404ed3:	add    ebx,DWORD PTR [edi]
  404ed5:	adc    al,0x58
  404ed7:	dec    edx
  404ed8:	push   esp
  404ed9:	add    edx,DWORD PTR [esi]
  404edb:	push   ss
  404edc:	sub    BYTE PTR [ebp+0x0],ah
  404edf:	add    BYTE PTR [esi],al
  404ee1:	sub    cl,ah
  404ee3:	int3   
  404ee4:	or     esi,DWORD PTR [eax]
  404ee6:	add    al,0x0
  404ee8:	mov    eax,ds:0x59000000
  404eed:	add    BYTE PTR [eax],al
  404eef:	adc    DWORD PTR [eax],ebp
  404ef1:	push   0xfe060001
  404ef6:	prefetchwt1 BYTE PTR [edi]
  404ef9:	pop    ds
  404efa:	and    BYTE PTR [edi],dl
  404efc:	sub    BYTE PTR [eax+eax*1],al
  404eff:	add    BYTE PTR [esi],al
  404f01:	or     al,BYTE PTR [ebx]
  404f03:	sub    eax,0x1100606
  404f08:	push   es
  404f09:	adc    BYTE PTR [edx],al
  404f0b:	add    BYTE PTR [esi],al
  404f0d:	adc    ecx,DWORD PTR [eax]
  404f0f:	push   es
  404f10:	sub    al,0x8
  404f12:	push   es
  404f13:	add    edx,DWORD PTR [esi+eax*1+0x13]
  404f17:	add    eax,0x1316032b
  404f1c:	add    eax,0xc581a06
  404f21:	or     BYTE PTR [ebx],dl
  404f23:	pop    es
  404f24:	or     BYTE PTR [eax+ecx*1],ch
  404f27:	or     BYTE PTR [esp+edx*2],al
  404f2a:	or     BYTE PTR [ebx],dl
  404f2c:	add    al,0x2b
  404f2e:	add    edx,DWORD PTR [esi]
  404f30:	adc    eax,DWORD PTR [esi+ebx*8]
  404f33:	pop    ebx
  404f34:	sub    BYTE PTR es:[edx],dl
  404f37:	add    BYTE PTR [eax],al
  404f39:	or     dl,BYTE PTR [ebx]
  404f3b:	push   es
  404f3c:	sub    BYTE PTR [ecx],dl
  404f3e:	add    BYTE PTR [eax],al
  404f40:	or     dl,BYTE PTR [esi]
  404f42:	push   ss
  404f43:	push   ss
  404f44:	sub    BYTE PTR [ebx+0x1],ch
  404f47:	add    BYTE PTR [esi],al
  404f49:	(bad)  
  404f4a:	adc    DWORD PTR [esi],esp
  404f4c:	push   ss
  404f4d:	or     ebp,DWORD PTR [eax]
  404f4f:	adc    DWORD PTR [eax],eax
  404f51:	add    BYTE PTR [edx],cl
  404f53:	or     DWORD PTR [eax],ebp
  404f55:	push   0x1
  404f57:	add    BYTE PTR [esi],al
  404f59:	es push es
  404f5b:	pop    ss
  404f5c:	pop    ds
  404f5d:	and    BYTE PTR [eax],ch
  404f5f:	add    eax,0x16060000
  404f64:	push   ss
  404f65:	sub    BYTE PTR [ecx+eax*1+0x0],ch
  404f69:	push   es
  404f6a:	ficom  WORD PTR [edx]
  404f6c:	sub    BYTE PTR es:[ecx],dl
  404f6f:	add    BYTE PTR [eax],al
  404f71:	or     ch,BYTE PTR [eax]
  404f73:	imul   eax,DWORD PTR [ecx],0x70b0600
  404f79:	(bad)  
  404f7a:	adc    DWORD PTR [esi],esp
  404f7c:	fiadd  WORD PTR [eax]
  404f7e:	pop    es
  404f7f:	sub    al,0x2
  404f81:	(bad)  
  404f82:	sbb    bl,dh
  404f84:	or     BYTE PTR [ecx],cl
  404f86:	pop    es
  404f87:	sub    BYTE PTR [edi+0x1],ah
  404f8a:	add    BYTE PTR [esi],al
  404f8c:	(bad)  
  404f8e:	add    BYTE PTR [esi],al
  404f90:	sub    al,BYTE PTR [eax]
  404f92:	add    BYTE PTR [eax],al
  404f94:	inc    ecx
  404f95:	dec    esp
  404f96:	add    BYTE PTR [eax],al
  404f98:	add    DWORD PTR [eax],eax
  404f9a:	add    BYTE PTR [eax],al
  404f9c:	push   0x0
  404f9e:	add    BYTE PTR [eax],al
  404fa0:	adc    al,BYTE PTR [eax]
  404fa2:	add    BYTE PTR [eax],al
  404fa4:	mov    eax,DWORD PTR [eax]
  404fa6:	add    BYTE PTR [eax],al
  404fa8:	add    eax,DWORD PTR [eax]
  404faa:	add    BYTE PTR [eax],al
  404fac:	jl     0x404fae
  404fae:	add    BYTE PTR [eax],al
  404fb0:	add    al,BYTE PTR [eax]
  404fb2:	add    BYTE PTR [eax],al
  404fb4:	push   0x0
  404fb6:	add    BYTE PTR [eax],al
  404fb8:	sub    eax,DWORD PTR [eax]
  404fba:	add    BYTE PTR [eax],al
  404fbc:	xchg   ebp,eax
  404fbd:	add    BYTE PTR [eax],al
  404fbf:	add    BYTE PTR [eax],cl
  404fc1:	add    BYTE PTR [eax],al
  404fc3:	add    BYTE PTR [edi],ah
  404fc5:	add    BYTE PTR [eax],al
  404fc7:	add    DWORD PTR [ecx],eax
  404fc9:	add    BYTE PTR [eax],al
  404fcb:	add    BYTE PTR [eax+eax*1],bl
  404fce:	add    BYTE PTR [eax],al
  404fd0:	sub    BYTE PTR [eax],al
  404fd2:	add    BYTE PTR [eax],al
  404fd4:	pop    ebx
  404fd5:	add    BYTE PTR [eax],al
  404fd7:	add    BYTE PTR [eax+eax*1+0x0],al
  404fdb:	add    BYTE PTR [eax+eax*1+0x0],al
  404fdf:	add    BYTE PTR [ebx],cl
  404fe1:	xor    BYTE PTR ds:0x9b00,al
  404fe7:	add    BYTE PTR [esi+0x0],bl
  404fea:	add    BYTE PTR [ecx],dl
  404fec:	adc    al,BYTE PTR [ebx]
  404fee:	sub    BYTE PTR [esi],dh
  404ff0:	add    DWORD PTR [eax],eax
  404ff2:	push   es
  404ff3:	adc    al,BYTE PTR es:[ebx]
  404ff6:	add    eax,0x318040e
  404ffb:	sub    BYTE PTR [ecx+eax*1],dh
  404ffe:	add    BYTE PTR [esi],al
  405000:	adc    al,BYTE PTR [edx]
  405002:	and    BYTE PTR [eax],al
  405004:	add    al,0x0
  405006:	add    BYTE PTR [eax],ch
  405008:	xor    eax,DWORD PTR [ecx]
  40500a:	add    BYTE PTR [esi],al
  40500c:	adc    al,BYTE PTR es:[ebx]
  40500f:	adc    al,BYTE PTR [edx]
  405011:	sub    BYTE PTR [ecx],dh
  405013:	add    DWORD PTR [eax],eax
  405015:	push   es
  405016:	sub    al,0x3d
  405018:	pop    ds
  405019:	adc    BYTE PTR [edi+ebx*1],al
  40501c:	adc    al,0x58
  40501e:	dec    edx
  40501f:	xor    eax,0x2b4a0404
  405024:	add    DWORD PTR [edi+edi*2],eax
  405027:	daa    
  405028:	add    BYTE PTR [eax],al
  40502a:	add    al,0x28
  40502c:	xor    BYTE PTR [ecx],al
  40502e:	add    BYTE PTR [esi],al
  405030:	or     al,BYTE PTR [esi]
  405032:	sub    al,0x21
  405034:	adc    al,BYTE PTR [edx]
  405036:	sub    BYTE PTR ds:0x17060001,ch
  40503c:	adc    al,BYTE PTR [edx]
  40503e:	sub    BYTE PTR [esi],ch
  405040:	add    DWORD PTR [eax],eax
  405042:	push   es
  405043:	push   es
  405044:	sub    BYTE PTR [edi],ch
  405046:	add    DWORD PTR [eax],eax
  405048:	push   es
  405049:	es push es
  40504b:	sub    BYTE PTR [ecx+eax*1],ch
  40504e:	add    BYTE PTR [esi],al
  405050:	es pop ss
  405052:	or     ebx,esi
  405054:	adc    dl,BYTE PTR [esi]
  405056:	or     ebx,esi
  405058:	push   cs
  405059:	inc    BYTE PTR [esi]
  40505b:	xor    al,BYTE PTR [ecx]
  40505d:	add    BYTE PTR [esi],al
  40505f:	adc    al,BYTE PTR [edx]
  405061:	sub    dl,ch
  405063:	add    BYTE PTR [eax],al
  405065:	push   es
  405066:	fcom   QWORD PTR [edx]
  405068:	add    ch,BYTE PTR [eax]
  40506a:	xor    al,BYTE PTR [ecx]
  40506c:	add    BYTE PTR [esi],al
  40506e:	fimul  WORD PTR [esi]
  405070:	inc    BYTE PTR [esi]
  405072:	xor    eax,0x12060001
  405077:	add    ebp,DWORD PTR [eax]
  405079:	jmp    0x312:0xdc060000
  405080:	sub    BYTE PTR ds:0x7060001,dh
  405086:	sub    al,BYTE PTR [eax]
  405088:	inc    ecx
  405089:	xor    al,0x0
  40508b:	add    BYTE PTR [eax+eax*1],al
  40508e:	add    BYTE PTR [eax],al
  405090:	and    DWORD PTR [eax],eax
  405092:	add    BYTE PTR [eax],al
  405094:	dec    esp
  405095:	add    BYTE PTR [eax],al
  405097:	add    BYTE PTR [ebp+0x0],ch
  40509a:	add    BYTE PTR [eax],al
  40509c:	push   cs
  40509d:	add    BYTE PTR [eax],al
  40509f:	add    BYTE PTR [edi],ah
  4050a1:	add    BYTE PTR [eax],al
  4050a3:	add    DWORD PTR [eax+eax*1],eax
  4050a6:	add    BYTE PTR [eax],al
  4050a8:	or     BYTE PTR [eax],al
  4050aa:	add    BYTE PTR [eax],al
  4050ac:	jl     0x4050ae
  4050ae:	add    BYTE PTR [eax],al
  4050b0:	test   BYTE PTR [eax],al
  4050b2:	add    BYTE PTR [eax],al
  4050b4:	push   cs
  4050b5:	add    BYTE PTR [eax],al
  4050b7:	add    BYTE PTR [edi],ah
  4050b9:	add    BYTE PTR [eax],al
  4050bb:	add    DWORD PTR [ebx],ecx
  4050bd:	xor    BYTE PTR [ebx],al
  4050bf:	add    BYTE PTR [eax],bl
  4050c1:	add    BYTE PTR [eax],al
  4050c3:	add    BYTE PTR [eax],al
  4050c5:	add    BYTE PTR [eax],al
  4050c7:	add    BYTE PTR [edx],al
  4050c9:	pop    ss
  4050ca:	push   ss
  4050cb:	sub    BYTE PTR [ebp+0x0],ah
  4050ce:	add    BYTE PTR [esi],al
  4050d0:	fimul  WORD PTR ds:0x5b06fe
  4050d6:	add    BYTE PTR [esi],al
  4050d8:	add    ch,BYTE PTR [eax]
  4050da:	jmp    0x412a:0xdc060000
  4050e1:	sbb    al,0x0
  4050e3:	add    BYTE PTR [eax+eax*1],al
  4050e6:	add    BYTE PTR [eax],al
  4050e8:	add    BYTE PTR [eax],al
  4050ea:	add    BYTE PTR [eax],al
  4050ec:	or     al,BYTE PTR [eax]
  4050ee:	add    BYTE PTR [eax],al
  4050f0:	or     al,BYTE PTR [eax]
  4050f2:	add    BYTE PTR [eax],al
  4050f4:	or     eax,0x27000000
  4050f9:	add    BYTE PTR [eax],al
  4050fb:	add    DWORD PTR [ebx],ecx
  4050fd:	xor    BYTE PTR [ebx],al
  4050ff:	add    BYTE PTR [eax+eax*1],bh
  405102:	add    BYTE PTR [eax],al
  405104:	add    BYTE PTR [eax],al
  405106:	add    BYTE PTR [eax],al
  405108:	add    bl,BYTE PTR [edi]
  40510a:	adc    BYTE PTR [eax+0x16],bl
  40510d:	push   esp
  40510e:	add    bl,BYTE PTR [edi]
  405110:	adc    al,0x58
  405112:	push   ss
  405113:	push   esp
  405114:	fimul  WORD PTR ds:0x6406fe
  40511a:	add    BYTE PTR [esi],al
  40511c:	add    ch,BYTE PTR [eax]
  40511e:	jmp    0x200:0xdc060000
  405125:	push   ss
  405126:	push   ss
  405127:	sub    BYTE PTR [ebp+0x0],ah
  40512a:	add    BYTE PTR [esi],al
  40512c:	add    al,BYTE PTR [ebx]
  40512e:	sub    BYTE PTR [edx+0x0],ch
  405131:	add    BYTE PTR [esi],al
  405133:	fimul  WORD PTR ds:0x5b06fe
  405139:	add    BYTE PTR [esi],al
  40513b:	add    ch,BYTE PTR [eax]
  40513d:	jmp    0x2a02:0xdc060000
  405144:	inc    ecx
  405145:	xor    al,0x0
  405147:	add    BYTE PTR [eax+eax*1],al
  40514a:	add    BYTE PTR [eax],al
  40514c:	add    BYTE PTR [eax],al
  40514e:	add    BYTE PTR [eax],al
  405150:	push   cs
  405151:	add    BYTE PTR [eax],al
  405153:	add    BYTE PTR [esi],cl
  405155:	add    BYTE PTR [eax],al
  405157:	add    BYTE PTR ds:0x27000000,cl
  40515d:	add    BYTE PTR [eax],al
  40515f:	add    DWORD PTR [eax+eax*1],eax
  405162:	add    BYTE PTR [eax],al
  405164:	sbb    al,0x0
  405166:	add    BYTE PTR [eax],al
  405168:	adc    DWORD PTR [eax],eax
  40516a:	add    BYTE PTR [eax],al
  40516c:	sub    eax,0xd000000
  405171:	add    BYTE PTR [eax],al
  405173:	add    BYTE PTR [edi],ah
  405175:	add    BYTE PTR [eax],al
  405177:	add    DWORD PTR [ebx],ecx
  405179:	xor    BYTE PTR [ebx],al
  40517b:	add    BYTE PTR ds:0x0,dh
  405181:	add    BYTE PTR [eax],al
  405183:	add    BYTE PTR [edx],al
  405185:	pop    ds
  405186:	adc    BYTE PTR [eax+0x16],bl
  405189:	push   esp
  40518a:	add    bl,BYTE PTR [edi]
  40518c:	adc    al,0x58
  40518e:	push   ss
  40518f:	push   esp
  405190:	fimul  WORD PTR ds:0x6406fe
  405196:	add    BYTE PTR [esi],al
  405198:	add    ch,BYTE PTR [eax]
  40519a:	jmp    0x200:0xdc060000
  4051a1:	push   ss
  4051a2:	push   ss
  4051a3:	sub    BYTE PTR [ebp+0x0],ah
  4051a6:	add    BYTE PTR [esi],al
  4051a8:	fimul  WORD PTR ds:0x5b06fe
  4051ae:	add    BYTE PTR [esi],al
  4051b0:	add    ch,BYTE PTR [eax]
  4051b2:	jmp    0x2a02:0xdc060000
  4051b9:	add    BYTE PTR [eax],al
  4051bb:	add    BYTE PTR [ecx+0x34],al
  4051be:	add    BYTE PTR [eax],al
  4051c0:	add    al,0x0
  4051c2:	add    BYTE PTR [eax],al
  4051c4:	add    BYTE PTR [eax],al
  4051c6:	add    BYTE PTR [eax],al
  4051c8:	push   cs
  4051c9:	add    BYTE PTR [eax],al
  4051cb:	add    BYTE PTR [esi],cl
  4051cd:	add    BYTE PTR [eax],al
  4051cf:	add    BYTE PTR ds:0x27000000,cl
  4051d5:	add    BYTE PTR [eax],al
  4051d7:	add    DWORD PTR [eax+eax*1],eax
  4051da:	add    BYTE PTR [eax],al
  4051dc:	sbb    al,0x0
  4051de:	add    BYTE PTR [eax],al
  4051e0:	or     al,BYTE PTR [eax]
  4051e2:	add    BYTE PTR [eax],al
  4051e4:	add    BYTE PTR es:[eax],al
  4051e7:	add    BYTE PTR ds:0x27000000,cl
  4051ed:	add    BYTE PTR [eax],al
  4051ef:	add    DWORD PTR [ebx],ecx
  4051f1:	xor    BYTE PTR [eax+eax*1],al
  4051f4:	pop    ebp
  4051f5:	add    DWORD PTR [eax],eax
  4051f7:	add    BYTE PTR [edi+0x0],bl
  4051fa:	add    BYTE PTR [ecx],dl
  4051fc:	sub    BYTE PTR [eax+0x1],ch
  4051ff:	add    BYTE PTR [esi],al
  405201:	adc    ecx,DWORD PTR [ecx]
  405203:	adc    DWORD PTR [ecx],ecx
  405205:	pop    ss
  405206:	(bad)  
  405207:	dec    BYTE PTR [edi]
  405209:	adc    eax,DWORD PTR [esi]
  40520b:	add    ebx,DWORD PTR [edi]
  40520d:	punpcklbw mm1,DWORD PTR [edx]
  405210:	pop    ds
  405211:	inc    BYTE PTR [esi]
  405213:	xor    al,0x4
  405215:	add    ecx,DWORD PTR [edx]
  405217:	sub    ebp,DWORD PTR [eax]
  405219:	add    bl,BYTE PTR [edi]
  40521b:	adc    al,0x58
  40521d:	dec    edx
  40521e:	adc    eax,DWORD PTR ds:0x64170511
  405224:	adc    eax,DWORD PTR [ecx+edx*1]
  405227:	add    al,0x6
  405229:	sbb    DWORD PTR [esi+esi*1+0x14],ebx
  40522d:	adc    DWORD PTR ds:0x411fe1f,eax
  405233:	pop    ecx
  405234:	xor    eax,0x11041108
  405239:	add    eax,0x32b0a58
  40523e:	pop    ds
  40523f:	dec    BYTE PTR [edx]
  405241:	add    BYTE PTR [ecx],dl
  405243:	or     DWORD PTR [ecx],edx
  405245:	push   es
  405246:	pop    eax
  405247:	adc    ecx,DWORD PTR [eax]
  405249:	push   es
  40524a:	pop    ss
  40524b:	pop    eax
  40524c:	pop    ss
  40524d:	pop    ss
  40524e:	sub    BYTE PTR [eax+eax*1],al
  405251:	add    BYTE PTR [esi],al
  405253:	or     eax,0xb8dd
  405258:	add    BYTE PTR [esi],ah
  40525a:	sub    BYTE PTR [edx],dl
  40525c:	add    BYTE PTR [eax],al
  40525e:	or     dl,BYTE PTR [ebx]
  405260:	or     ebp,DWORD PTR [eax]
  405262:	adc    DWORD PTR [eax],eax
  405264:	add    BYTE PTR [edx],cl
  405266:	push   ss
  405267:	push   ss
  405268:	push   ss
  405269:	sub    BYTE PTR [ebx+0x1],ch
  40526c:	add    BYTE PTR [esi],al
  40526e:	(bad)  
  40526f:	adc    DWORD PTR [esi],esp
  405271:	push   ss
  405272:	or     al,0x28
  405274:	adc    DWORD PTR [eax],eax
  405276:	add    BYTE PTR [edx],cl
  405278:	adc    DWORD PTR [eax],ecx
  40527a:	sub    BYTE PTR [edx+0x1],ch
  40527d:	add    BYTE PTR [esi],al
  40527f:	add    ecx,DWORD PTR es:[edx]
  405282:	add    edx,DWORD PTR [edi]
  405284:	pop    eax
  405285:	pop    ss
  405286:	pop    ss
  405287:	sub    BYTE PTR [eax+eax*1],al
  40528a:	add    BYTE PTR [esi],al
  40528c:	or     eax,0x28265cde
  405291:	adc    al,BYTE PTR [eax]
  405293:	add    BYTE PTR [edx],cl
  405295:	adc    ecx,DWORD PTR [edx]
  405297:	sub    BYTE PTR [ecx],dl
  405299:	add    BYTE PTR [eax],al
  40529b:	or     dl,BYTE PTR [esi]
  40529d:	push   ss
  40529e:	push   ss
  40529f:	sub    BYTE PTR [ebx+0x1],ch
  4052a2:	add    BYTE PTR [esi],al
  4052a4:	(bad)  
  4052a5:	adc    DWORD PTR [esi],esp
  4052a7:	push   ss
  4052a8:	or     ebp,DWORD PTR [eax]
  4052aa:	adc    DWORD PTR [eax],eax
  4052ac:	add    BYTE PTR [edx],cl
  4052ae:	adc    DWORD PTR [esi],eax
  4052b0:	sub    BYTE PTR [edx+0x1],ch
  4052b3:	add    BYTE PTR [esi],al
  4052b5:	add    dl,BYTE PTR es:[edi]
  4052b8:	push   ss
  4052b9:	sub    BYTE PTR [ebp+0x0],ah
  4052bc:	add    BYTE PTR [esi],al
  4052be:	push   ss
  4052bf:	push   ss
  4052c0:	sub    BYTE PTR [ecx+eax*1+0x0],ch
  4052c4:	push   es
  4052c5:	ficom  WORD PTR [edx]
  4052c7:	sub    BYTE PTR es:[ecx],dl
  4052ca:	add    BYTE PTR [eax],al
  4052cc:	or     ch,BYTE PTR [eax]
  4052ce:	imul   eax,DWORD PTR [ecx],0x70b0600
  4052d4:	(bad)  
  4052d5:	adc    DWORD PTR [esi],esp
  4052d7:	fiadd  WORD PTR [eax]
  4052d9:	pop    es
  4052da:	sub    al,0x2
  4052dc:	(bad)  
  4052dd:	sbb    bl,dh
  4052df:	or     DWORD PTR [ecx],edx
  4052e1:	push   es
  4052e2:	pop    es
  4052e3:	sub    BYTE PTR [edi+0x1],ah
  4052e6:	add    BYTE PTR [esi],al
  4052e8:	(bad)  
  4052ea:	add    dh,bl
  4052ec:	and    al,0x26
  4052ee:	sub    BYTE PTR [ecx],dl
  4052f0:	add    BYTE PTR [eax],al
  4052f2:	or     ch,BYTE PTR [eax]
  4052f4:	imul   eax,DWORD PTR [ecx],0x80c0600
  4052fa:	(bad)  
  4052fb:	adc    DWORD PTR [esi],esp
  4052fd:	fiadd  WORD PTR [eax]
  4052ff:	or     BYTE PTR [edx+eax*1],ch
  405302:	(bad)  
  405303:	sbb    bl,dh
  405305:	or     DWORD PTR [ecx],edx
  405307:	or     BYTE PTR [eax],cl
  405309:	sub    BYTE PTR [edi+0x1],ah
  40530c:	add    BYTE PTR [esi],al
  40530e:	(bad)  
  405310:	add    BYTE PTR [esi],dl
  405312:	add    al,0x34
  405314:	sbb    ebx,DWORD PTR [edi]
  405316:	adc    BYTE PTR [edx],al
  405318:	pop    ds
  405319:	adc    al,0x58
  40531b:	dec    edx
  40531c:	xor    eax,0x134a0206
  405321:	pop    es
  405322:	sub    eax,DWORD PTR [ebx]
  405324:	add    dl,BYTE PTR [ebx]
  405326:	pop    es
  405327:	add    al,0x2c
  405329:	push   es
  40532a:	or     DWORD PTR [ecx],edx
  40532c:	pop    es
  40532d:	add    al,0xfe
  40532f:	pop    ss
  405330:	add    dl,BYTE PTR [edi]
  405332:	push   ss
  405333:	sub    BYTE PTR [ebp+0x0],ah
  405336:	add    BYTE PTR [esi],al
  405338:	add    ch,BYTE PTR [ebx+eax*1]
  40533b:	add    cl,BYTE PTR [ecx]
  40533d:	push   esp
  40533e:	add    bl,BYTE PTR [edi]
  405340:	adc    al,0x58
  405342:	push   es
  405343:	push   esp
  405344:	add    bl,BYTE PTR [edi]
  405346:	adc    BYTE PTR [eax+0x4],bl
  405349:	push   esp
  40534a:	pop    ds
  40534b:	adc    BYTE PTR [esi],al
  40534d:	xor    eax,0x2b4a0204
  405352:	add    DWORD PTR [edx],eax
  405354:	add    al,0x58
  405356:	push   ss
  405357:	push   edx
  405358:	sub    al,BYTE PTR [eax]
  40535a:	add    BYTE PTR [eax],al
  40535c:	inc    ecx
  40535d:	xchg   esp,eax
  40535e:	add    BYTE PTR [eax],al
  405360:	add    DWORD PTR [eax],eax
  405362:	add    BYTE PTR [eax],al
  405364:	mov    edx,0x11000000
  405369:	add    BYTE PTR [eax],al
  40536b:	add    dl,bl
  40536d:	add    BYTE PTR [eax],al
  40536f:	add    BYTE PTR [ebx],al
  405371:	add    BYTE PTR [eax],al
  405373:	add    bl,cl
  405375:	add    BYTE PTR [eax],al
  405377:	add    BYTE PTR [edx],al
  405379:	add    BYTE PTR [eax],al
  40537b:	add    BYTE PTR [edx+0x2a000000],bh
  405381:	add    BYTE PTR [eax],al
  405383:	add    ah,ah
  405385:	add    BYTE PTR [eax],al
  405387:	add    BYTE PTR [ecx],cl
  405389:	add    BYTE PTR [eax],al
  40538b:	add    BYTE PTR [edi],ah
  40538d:	add    BYTE PTR [eax],al
  40538f:	add    DWORD PTR [ecx],eax
  405391:	add    BYTE PTR [eax],al
  405393:	add    BYTE PTR [esi+0xd000000],al
  405399:	add    BYTE PTR [eax],al
  40539b:	add    BYTE PTR [edx+0x45000000],ch
  4053a1:	add    BYTE PTR [eax],al
  4053a3:	add    BYTE PTR [ebx+0x1000000],dl
  4053a9:	add    BYTE PTR [eax],al
  4053ab:	add    BYTE PTR [eax+eax*1+0x6d0000],al
  4053b2:	add    BYTE PTR [eax],al
  4053b4:	add    BYTE PTR [ecx],al
  4053b6:	add    BYTE PTR [eax],al
  4053b8:	add    eax,DWORD PTR [eax]
  4053ba:	add    BYTE PTR [eax],al
  4053bc:	icebp  
  4053bd:	add    BYTE PTR [eax],al
  4053bf:	add    BYTE PTR [edx],al
  4053c1:	add    BYTE PTR [eax],al
  4053c3:	add    BYTE PTR [eax+eax*1+0x860000],al
  4053ca:	add    BYTE PTR [eax],al
  4053cc:	or     al,BYTE PTR [ecx]
  4053ce:	add    BYTE PTR [eax],al
  4053d0:	or     DWORD PTR [eax],eax
  4053d2:	add    BYTE PTR [eax],al
  4053d4:	daa    
  4053d5:	add    BYTE PTR [eax],al
  4053d7:	add    DWORD PTR [ecx],eax
  4053d9:	add    BYTE PTR [eax],al
  4053db:	add    BYTE PTR [esi+0x0],al
  4053de:	add    BYTE PTR [eax],al
  4053e0:	pop    ss
  4053e1:	add    BYTE PTR [eax],al
  4053e3:	add    BYTE PTR [eax+eax*1+0x0],dh
  4053e7:	add    BYTE PTR [ecx+0x5d000000],ah
  4053ed:	add    BYTE PTR [eax],al
  4053ef:	add    BYTE PTR [ebx],al
  4053f1:	xor    BYTE PTR [ebx],al
  4053f3:	add    BYTE PTR [edi],ch
  4053f5:	add    BYTE PTR [eax],al
  4053f7:	add    BYTE PTR [ecx+0x0],ah
  4053fa:	add    BYTE PTR [ecx],dl
  4053fc:	add    cl,BYTE PTR [edx+0xd]
  4053ff:	or     DWORD PTR [edx+0xa],ecx
  405402:	or     DWORD PTR ds:0xc4a0254,esp
  405408:	or     BYTE PTR [edx],bl
  40540a:	pop    eax
  40540b:	or     BYTE PTR [edx+eax*1+0x1a],dl
  40540f:	pop    eax
  405410:	push   ss
  405411:	push   esp
  405412:	push   es
  405413:	add    cl,BYTE PTR [edx+0x2e]
  405416:	adc    eax,DWORD PTR [esi]
  405418:	dec    edx
  405419:	or     eax,DWORD PTR [esi]
  40541b:	pop    ss
  40541c:	pop    ds
  40541d:	cmp    al,0x28
  40541f:	add    eax,0x7060000
  405424:	or     al,BYTE PTR [edi]
  405426:	add    cl,BYTE PTR [edx+0x33]
  405429:	in     eax,dx
  40542a:	sub    al,BYTE PTR [eax]
  40542c:	or     esi,DWORD PTR [eax]
  40542e:	add    eax,DWORD PTR [eax]
  405430:	sbb    BYTE PTR [eax],al
  405432:	add    BYTE PTR [eax],al
  405434:	add    BYTE PTR [eax],al
  405436:	add    BYTE PTR [eax],al
  405438:	add    dl,BYTE PTR [edi]
  40543a:	push   ss
  40543b:	sub    BYTE PTR [ebp+0x0],ah
  40543e:	add    BYTE PTR [esi],al
  405440:	fimul  WORD PTR ds:0x5b06fe
  405446:	add    BYTE PTR [esi],al
  405448:	add    ch,BYTE PTR [eax]
  40544a:	jmp    0x412a:0xdc060000
  405451:	sbb    al,0x0
  405453:	add    BYTE PTR [eax+eax*1],al
  405456:	add    BYTE PTR [eax],al
  405458:	add    BYTE PTR [eax],al
  40545a:	add    BYTE PTR [eax],al
  40545c:	or     al,BYTE PTR [eax]
  40545e:	add    BYTE PTR [eax],al
  405460:	or     al,BYTE PTR [eax]
  405462:	add    BYTE PTR [eax],al
  405464:	or     eax,0x27000000
  405469:	add    BYTE PTR [eax],al
  40546b:	add    DWORD PTR [ebx],eax
  40546d:	xor    BYTE PTR [edx],al
  40546f:	add    BYTE PTR [ecx],cl
  405471:	add    BYTE PTR [eax],al
  405473:	add    BYTE PTR [eax],al
  405475:	add    BYTE PTR [eax],al
  405477:	add    BYTE PTR [edx],al
  405479:	sbb    bl,BYTE PTR [eax+0x28]
  40547c:	pusha  
  40547d:	add    BYTE PTR [eax],al
  40547f:	push   es
  405480:	sub    al,BYTE PTR [eax]
  405482:	add    BYTE PTR [eax],al
  405484:	add    esi,DWORD PTR [eax]
  405486:	add    DWORD PTR [eax],eax
  405488:	pop    es
  405489:	add    BYTE PTR [eax],al
  40548b:	add    BYTE PTR [eax],al
  40548d:	add    BYTE PTR [eax],al
  40548f:	add    BYTE PTR [edx],al
  405491:	sub    BYTE PTR [edi+0x0],bl
  405494:	add    BYTE PTR [esi],al
  405496:	sub    al,BYTE PTR [eax]
  405498:	or     esi,DWORD PTR [eax]
  40549a:	add    al,0x0
  40549c:	xchg   ebp,eax
  40549d:	add    DWORD PTR [eax],eax
  40549f:	add    BYTE PTR [ebp+0x0],ah
  4054a2:	add    BYTE PTR [ecx],dl
  4054a4:	adc    al,BYTE PTR [eax+eiz*1]
  4054a7:	add    BYTE PTR [eax+eax*1],al
  4054aa:	add    BYTE PTR [eax],ch
  4054ac:	xor    eax,DWORD PTR [ecx]
  4054ae:	add    BYTE PTR [esi],al
  4054b0:	adc    al,BYTE PTR es:[edi+edi*2]
  4054b4:	sub    DWORD PTR [eax],eax
  4054b6:	add    BYTE PTR [edx+ebx*1],al
  4054b9:	sub    BYTE PTR [eax],dl
  4054bb:	add    DWORD PTR [eax],eax
  4054bd:	push   es
  4054be:	add    bl,BYTE PTR [edi]
  4054c0:	push   0x28041258
  4054c5:	mov    al,0x0
  4054c7:	add    BYTE PTR [esi],al
  4054c9:	adc    al,BYTE PTR [edx+eax*1]
  4054cc:	and    ah,cl
  4054ce:	add    BYTE PTR [eax],al
  4054d0:	add    BYTE PTR [eax+0x4e],bl
  4054d3:	sub    BYTE PTR [edi],cl
  4054d5:	add    DWORD PTR [eax],eax
  4054d7:	push   es
  4054d8:	adc    al,BYTE PTR [edx+eax*1]
  4054db:	and    al,dl
  4054dd:	add    BYTE PTR [eax],al
  4054df:	add    BYTE PTR [eax+0x4e],bl
  4054e2:	sub    BYTE PTR [edi],cl
  4054e4:	add    DWORD PTR [eax],eax
  4054e6:	push   es
  4054e7:	adc    al,BYTE PTR [edx+eax*1]
  4054ea:	and    ah,dl
  4054ec:	add    BYTE PTR [eax],al
  4054ee:	add    BYTE PTR [eax+0x4e],bl
  4054f1:	sub    BYTE PTR [edi],cl
  4054f3:	add    DWORD PTR [eax],eax
  4054f5:	push   es
  4054f6:	adc    al,BYTE PTR [edx+eax*1]
  4054f9:	and    BYTE PTR [ecx+eax*1+0x0],dh
  4054fd:	add    BYTE PTR [eax+0x4e],bl
  405500:	sub    BYTE PTR [edi],cl
  405502:	add    DWORD PTR [eax],eax
  405504:	push   es
  405505:	adc    al,BYTE PTR [edx+eax*1]
  405508:	and    BYTE PTR [eax+0x1],bh
  40550b:	add    BYTE PTR [eax],al
  40550d:	pop    eax
  40550e:	dec    esi
  40550f:	sub    BYTE PTR [edi],cl
  405511:	add    DWORD PTR [eax],eax
  405513:	push   es
  405514:	adc    al,BYTE PTR [edx+eax*1]
  405517:	and    BYTE PTR [ecx+eax*1+0x0],bh
  40551b:	add    BYTE PTR [eax+0x4e],bl
  40551e:	sub    BYTE PTR [edi],cl
  405520:	add    DWORD PTR [eax],eax
  405522:	push   es
  405523:	adc    al,BYTE PTR [edx+eax*1]
  405526:	and    BYTE PTR [eax+eax*1+0x4e580000],bh
  40552d:	sub    BYTE PTR [edi],cl
  40552f:	add    DWORD PTR [eax],eax
  405531:	push   es
  405532:	adc    al,BYTE PTR [edx+eax*1]
  405535:	and    al,al
  405537:	add    BYTE PTR [eax],al
  405539:	add    BYTE PTR [eax+0x4e],bl
  40553c:	sub    BYTE PTR [edi],cl
  40553e:	add    DWORD PTR [eax],eax
  405540:	push   es
  405541:	adc    al,BYTE PTR [edx+eax*1]
  405544:	and    ah,al
  405546:	add    BYTE PTR [eax],al
  405548:	add    BYTE PTR [eax+0x4e],bl
  40554b:	sub    BYTE PTR [edi],cl
  40554d:	add    DWORD PTR [eax],eax
  40554f:	push   es
  405550:	adc    al,BYTE PTR [edx+eax*1]
  405553:	and    BYTE PTR [eax+eax*1+0x4a580000],cl
  40555a:	sub    BYTE PTR [esi],cl
  40555c:	add    DWORD PTR [eax],eax
  40555e:	push   es
  40555f:	adc    al,BYTE PTR [edx+eax*1]
  405562:	and    BYTE PTR [eax+0x58000000],dl
  405568:	dec    edx
  405569:	sub    BYTE PTR [esi],cl
  40556b:	add    DWORD PTR [eax],eax
  40556d:	push   es
  40556e:	add    ah,BYTE PTR [eax]
  405570:	mov    al,ds:0x58000000
  405575:	dec    edx
  405576:	or     eax,DWORD PTR [edx]
  405578:	and    BYTE PTR [eax+0x58000000],bl
  40557e:	dec    edx
  40557f:	pop    es
  405580:	pop    ebx
  405581:	or     eax,0x9c2002
  405586:	add    BYTE PTR [eax],al
  405588:	pop    eax
  405589:	dec    edx
  40558a:	pop    es
  40558b:	pop    ebx
  40558c:	or     al,0x12
  40558e:	add    al,0x9
  405590:	sub    BYTE PTR [esi],cl
  405592:	add    DWORD PTR [eax],eax
  405594:	push   es
  405595:	adc    al,BYTE PTR [eax+ecx*1]
  405598:	sub    BYTE PTR [esi],cl
  40559a:	add    DWORD PTR [eax],eax
  40559c:	push   es
  40559d:	adc    al,BYTE PTR [edx+eax*1]
  4055a0:	and    BYTE PTR [eax+0x58000000],ah
  4055a6:	dec    edx
  4055a7:	sub    BYTE PTR [esi],cl
  4055a9:	add    DWORD PTR [eax],eax
  4055ab:	push   es
  4055ac:	adc    al,BYTE PTR [edx+eax*1]
  4055af:	pop    ds
  4055b0:	fs pop eax
  4055b2:	inc    edi
  4055b3:	sub    BYTE PTR ds:0x12060001,cl
  4055b9:	add    al,0x2
  4055bb:	pop    ds
  4055bc:	gs pop eax
  4055be:	inc    edi
  4055bf:	sub    BYTE PTR ds:0x1f060001,cl
  4055c5:	adc    BYTE PTR [ebx],al
  4055c7:	pop    ds
  4055c8:	adc    al,0x58
  4055ca:	dec    edx
  4055cb:	xor    eax,0x2b4a0304
  4055d0:	add    DWORD PTR [ebx],eax
  4055d2:	jg     0x4055fe
  4055d4:	add    BYTE PTR [eax],al
  4055d6:	add    al,0x28
  4055d8:	xor    BYTE PTR [ecx],al
  4055da:	add    BYTE PTR [esi],al
  4055dc:	or     dl,BYTE PTR [edx]
  4055de:	add    al,0x28
  4055e0:	sub    eax,0x17060001
  4055e5:	adc    al,BYTE PTR [eax+ebp*1]
  4055e8:	add    DWORD PTR cs:[eax],eax
  4055eb:	push   es
  4055ec:	push   es
  4055ed:	sub    BYTE PTR [edi],ch
  4055ef:	add    DWORD PTR [eax],eax
  4055f1:	push   es
  4055f2:	es push es
  4055f4:	sub    BYTE PTR [ecx+eax*1],ch
  4055f7:	add    BYTE PTR [esi],al
  4055f9:	fimul  WORD PTR es:[esi]
  4055fc:	inc    BYTE PTR [esi]
  4055fe:	xor    al,BYTE PTR [ecx]
  405600:	add    BYTE PTR [esi],al
  405602:	adc    al,BYTE PTR [eax+ebp*1]
  405605:	jmp    0x412:0xdc060000
  40560c:	sub    BYTE PTR [edx],dh
  40560e:	add    DWORD PTR [eax],eax
  405610:	push   es
  405611:	fimul  WORD PTR ds:0x5506fe
  405617:	add    BYTE PTR [esi],al
  405619:	add    ebp,DWORD PTR [eax]
  40561b:	jmp    0x300:0xdc060000
  405622:	pop    ss
  405623:	push   ss
  405624:	sub    BYTE PTR [ebp+0x0],ah
  405627:	add    BYTE PTR [esi],al
  405629:	fimul  WORD PTR ds:0x5b06fe
  40562f:	add    BYTE PTR [esi],al
  405631:	add    ebp,DWORD PTR [eax]
  405633:	jmp    0x2a:0xdc060000
  40563a:	add    BYTE PTR [eax],al
  40563c:	inc    ecx
  40563d:	dec    esp
  40563e:	add    BYTE PTR [eax],al
  405640:	add    al,0x0
  405642:	add    BYTE PTR [eax],al
  405644:	or     eax,0x4b000000
  405649:	add    DWORD PTR [eax],eax
  40564b:	add    BYTE PTR [eax+0x1],bl
  40564e:	add    BYTE PTR [eax],al
  405650:	push   cs
  405651:	add    BYTE PTR [eax],al
  405653:	add    BYTE PTR [edi],ah
  405655:	add    BYTE PTR [eax],al
  405657:	add    DWORD PTR [eax+eax*1],eax
  40565a:	add    BYTE PTR [eax],al
  40565c:	add    BYTE PTR [eax],al
  40565e:	add    BYTE PTR [eax],al
  405660:	outs   dx,DWORD PTR ds:[esi]
  405661:	add    DWORD PTR [eax],eax
  405663:	add    BYTE PTR [edi+0x1],ch
  405666:	add    BYTE PTR [eax],al
  405668:	or     eax,0x27000000
  40566d:	add    BYTE PTR [eax],al
  40566f:	add    DWORD PTR [eax+eax*1],eax
  405672:	add    BYTE PTR [eax],al
  405674:	jge    0x405677
  405676:	add    BYTE PTR [eax],al
  405678:	or     al,BYTE PTR [eax]
  40567a:	add    BYTE PTR [eax],al
  40567c:	xchg   DWORD PTR [ecx],eax
  40567e:	add    BYTE PTR [eax],al
  405680:	or     eax,0x27000000
  405685:	add    BYTE PTR [eax],al
  405687:	add    DWORD PTR [ebx],ecx
  405689:	xor    BYTE PTR [eax+eax*1],al
  40568c:	pop    esi
  40568d:	add    eax,DWORD PTR [eax]
  40568f:	add    BYTE PTR [eax+0x0],ch
  405692:	add    BYTE PTR [ecx],dl
  405694:	pop    ds
  405695:	adc    BYTE PTR [ebx],al
  405697:	pop    ds
  405698:	adc    al,0x58
  40569a:	dec    edx
  40569b:	xor    eax,0x2b4a0304
  4056a0:	add    DWORD PTR [ebx],eax
  4056a2:	jg     0x4056cf
  4056a4:	add    BYTE PTR [eax],al
  4056a6:	add    al,0x28
  4056a8:	xor    BYTE PTR [ecx],al
  4056aa:	add    BYTE PTR [esi],al
  4056ac:	or     al,BYTE PTR [esi]
  4056ae:	sub    al,0x2
  4056b0:	fisubr WORD PTR [esi+ebx*8]
  4056b3:	or     eax,0x5506fe
  4056b8:	add    BYTE PTR [esi],al
  4056ba:	add    ebp,DWORD PTR [eax]
  4056bc:	jmp    0x300:0xdc060000
  4056c3:	pop    ss
  4056c4:	push   ss
  4056c5:	sub    BYTE PTR [ebp+0x0],ah
  4056c8:	add    BYTE PTR [esi],al
  4056ca:	fimul  WORD PTR ds:0x5b06fe
  4056d0:	add    BYTE PTR [esi],al
  4056d2:	add    ebp,DWORD PTR [eax]
  4056d4:	jmp    0x1338:0xdc060000
  4056db:	add    eax,DWORD PTR [eax]
  4056dd:	add    BYTE PTR [eax],al
  4056df:	push   es
  4056e0:	push   ss
  4056e1:	sbb    BYTE PTR [eax],ch
  4056e3:	or     al,0x1
  4056e5:	add    BYTE PTR [esi],al
  4056e7:	es push es
  4056e9:	sub    BYTE PTR [ebx],cl
  4056eb:	add    DWORD PTR [eax],eax
  4056ed:	push   es
  4056ee:	or     eax,0x28161606
  4056f3:	or     al,0x1
  4056f5:	add    BYTE PTR [esi],al
  4056f7:	or     DWORD PTR es:[eax],ebp
  4056fa:	sub    eax,DWORD PTR [ecx]
  4056fc:	add    BYTE PTR [esi],al
  4056fe:	or     al,0x8
  405700:	pop    ss
  405701:	or     DWORD PTR [esi],eax
  405703:	sub    BYTE PTR [edx],cl
  405705:	add    DWORD PTR [eax],eax
  405707:	push   es
  405708:	es push es
  40570a:	sub    BYTE PTR [ecx+eax*1],ch
  40570d:	add    BYTE PTR [esi],al
  40570f:	adc    dl,BYTE PTR es:[edi]
  405712:	or     BYTE PTR [ecx],cl
  405714:	push   ss
  405715:	sub    BYTE PTR [ecx],cl
  405717:	add    DWORD PTR [eax],eax
  405719:	push   es
  40571a:	adc    dl,BYTE PTR es:[esi]
  40571d:	adc    dl,BYTE PTR [edi]
  40571f:	sbb    bl,BYTE PTR [eax+0x4a]
  405722:	sbb    bh,dh
  405724:	pop    ss
  405725:	adc    dl,BYTE PTR [edi]
  405727:	sbb    bl,BYTE PTR [eax+0x12]
  40572a:	pop    ss
  40572b:	sbb    bl,BYTE PTR [eax+0x4a]
  40572e:	sbb    bl,BYTE PTR [eax+0x54]
  405731:	adc    dl,BYTE PTR [esi]
  405733:	inc    esi
  405734:	pop    ds
  405735:	inc    edx
  405736:	cs add eax,0x285dd
  40573c:	add    BYTE PTR [edx],dl
  40573e:	push   ss
  40573f:	pop    ss
  405740:	pop    eax
  405741:	inc    esi
  405742:	pop    ds
  405743:	dec    ebp
  405744:	cs add eax,0x277dd
  40574a:	add    BYTE PTR [edx],dl
  40574c:	push   ss
  40574d:	sbb    BYTE PTR [eax+0x46],bl
  405750:	pop    ds
  405751:	inc    ebx
  405752:	cs add eax,0x269dd
  405758:	add    BYTE PTR [edx],dl
  40575a:	push   ss
  40575b:	sbb    DWORD PTR [eax+0x46],ebx
  40575e:	pop    ds
  40575f:	xor    DWORD PTR [esi],ebp
  405761:	add    eax,0x25bdd
  405766:	add    BYTE PTR [edx],al
  405768:	pop    ds
  405769:	push   0x11071358
  40576e:	pop    es
  40576f:	adc    dl,BYTE PTR [edi]
  405771:	sub    BYTE PTR [ecx+0x12060000],dh
  405777:	pop    ss
  405778:	sbb    bl,BYTE PTR [eax+0x4a]
  40577b:	dec    esi
  40577c:	adc    edx,DWORD PTR ds:0x581a1712
  405782:	adc    dl,BYTE PTR [edi]
  405784:	sbb    bl,BYTE PTR [eax+0x4a]
  405787:	sbb    bl,BYTE PTR [eax+0x54]
  40578a:	add    ah,BYTE PTR [eax]
  40578c:	int3   
  40578d:	add    BYTE PTR [eax],al
  40578f:	add    BYTE PTR [eax+0x11],bl
  405792:	adc    eax,0x1a171256
  405797:	pop    eax
  405798:	dec    edx
  405799:	dec    esi
  40579a:	adc    edx,DWORD PTR [edx+edx*1]
  40579d:	pop    ss
  40579e:	sbb    bl,BYTE PTR [eax+0x12]
  4057a1:	pop    ss
  4057a2:	sbb    bl,BYTE PTR [eax+0x4a]
  4057a5:	sbb    bl,BYTE PTR [eax+0x54]
  4057a8:	add    ah,BYTE PTR [eax]
  4057aa:	rol    BYTE PTR [eax],1
  4057ac:	add    BYTE PTR [eax],al
  4057ae:	pop    eax
  4057af:	adc    DWORD PTR [esi+edx*2],edx
  4057b2:	adc    dl,BYTE PTR [edi]
  4057b4:	sbb    bl,BYTE PTR [eax+0x4a]
  4057b7:	dec    esi
  4057b8:	adc    edx,DWORD PTR [ebx]
  4057ba:	adc    dl,BYTE PTR [edi]
  4057bc:	sbb    bl,BYTE PTR [eax+0x12]
  4057bf:	pop    ss
  4057c0:	sbb    bl,BYTE PTR [eax+0x4a]
  4057c3:	sbb    bl,BYTE PTR [eax+0x54]
  4057c6:	add    ah,BYTE PTR [eax]
  4057c8:	aam    0x0
  4057ca:	add    BYTE PTR [eax],al
  4057cc:	pop    eax
  4057cd:	adc    DWORD PTR [ebx],edx
  4057cf:	push   esi
  4057d0:	adc    dl,BYTE PTR [edi]
  4057d2:	sbb    bl,BYTE PTR [eax+0x4a]
  4057d5:	dec    esi
  4057d6:	adc    edx,DWORD PTR [edx]
  4057d8:	adc    dl,BYTE PTR [edi]
  4057da:	sbb    bl,BYTE PTR [eax+0x12]
  4057dd:	pop    ss
  4057de:	sbb    bl,BYTE PTR [eax+0x4a]
  4057e1:	sbb    bl,BYTE PTR [eax+0x54]
  4057e4:	add    ah,BYTE PTR [eax]
  4057e6:	je     0x4057e9
  4057e8:	add    BYTE PTR [eax],al
  4057ea:	pop    eax
  4057eb:	adc    DWORD PTR [edx],edx
  4057ed:	push   esi
  4057ee:	adc    dl,BYTE PTR [edi]
  4057f0:	sbb    bl,BYTE PTR [eax+0x4a]
  4057f3:	dec    esi
  4057f4:	adc    edx,DWORD PTR [ecx]
  4057f6:	adc    dl,BYTE PTR [edi]
  4057f8:	sbb    bl,BYTE PTR [eax+0x12]
  4057fb:	pop    ss
  4057fc:	sbb    bl,BYTE PTR [eax+0x4a]
  4057ff:	sbb    bl,BYTE PTR [eax+0x54]
  405802:	add    ah,BYTE PTR [eax]
  405804:	js     0x405807
  405806:	add    BYTE PTR [eax],al
  405808:	pop    eax
  405809:	adc    DWORD PTR [ecx],edx
  40580b:	push   esi
  40580c:	adc    dl,BYTE PTR [edi]
  40580e:	sbb    bl,BYTE PTR [eax+0x4a]
  405811:	dec    esi
  405812:	adc    edx,DWORD PTR [eax]
  405814:	adc    dl,BYTE PTR [edi]
  405816:	sbb    bl,BYTE PTR [eax+0x12]
  405819:	pop    ss
  40581a:	sbb    bl,BYTE PTR [eax+0x4a]
  40581d:	sbb    bl,BYTE PTR [eax+0x54]
  405820:	add    ah,BYTE PTR [eax]
  405822:	jl     0x405825
  405824:	add    BYTE PTR [eax],al
  405826:	pop    eax
  405827:	adc    DWORD PTR [eax],edx
  405829:	push   esi
  40582a:	adc    dl,BYTE PTR [edi]
  40582c:	sbb    bl,BYTE PTR [eax+0x4a]
  40582f:	dec    esi
  405830:	adc    ecx,DWORD PTR [edi]
  405832:	adc    dl,BYTE PTR [edi]
  405834:	sbb    bl,BYTE PTR [eax+0x12]
  405837:	pop    ss
  405838:	sbb    bl,BYTE PTR [eax+0x4a]
  40583b:	sbb    bl,BYTE PTR [eax+0x54]
  40583e:	add    ah,BYTE PTR [eax]
  405840:	mov    esp,0x58000000
  405845:	adc    DWORD PTR [edi],ecx
  405847:	push   esi
  405848:	adc    dl,BYTE PTR [edi]
  40584a:	sbb    bl,BYTE PTR [eax+0x4a]
  40584d:	dec    esi
  40584e:	adc    ecx,DWORD PTR [esi]
  405850:	adc    dl,BYTE PTR [edi]
  405852:	sbb    bl,BYTE PTR [eax+0x12]
  405855:	pop    ss
  405856:	sbb    bl,BYTE PTR [eax+0x4a]
  405859:	sbb    bl,BYTE PTR [eax+0x54]
  40585c:	add    ah,BYTE PTR [eax]
  40585e:	rol    BYTE PTR [eax],0x0
  405861:	add    BYTE PTR [eax+0x11],bl
  405864:	push   cs
  405865:	push   esi
  405866:	adc    dl,BYTE PTR [edi]
  405868:	sbb    bl,BYTE PTR [eax+0x4a]
  40586b:	dec    esi
  40586c:	adc    ecx,DWORD PTR ds:0x581a1712
  405872:	adc    dl,BYTE PTR [edi]
  405874:	sbb    bl,BYTE PTR [eax+0x4a]
  405877:	sbb    bl,BYTE PTR [eax+0x54]
  40587a:	add    ah,BYTE PTR [eax]
  40587c:	les    eax,FWORD PTR [eax]
  40587e:	add    BYTE PTR [eax],al
  405880:	pop    eax
  405881:	adc    DWORD PTR ds:0x1a171256,ecx
  405887:	pop    eax
  405888:	dec    edx
  405889:	dec    edx
  40588a:	adc    ecx,DWORD PTR [edx+edx*1]
  40588d:	pop    ss
  40588e:	sbb    bl,BYTE PTR [eax+0x12]
  405891:	pop    ss
  405892:	sbb    bl,BYTE PTR [eax+0x4a]
  405895:	sbb    bl,BYTE PTR [eax+0x54]
  405898:	add    ah,BYTE PTR [eax]
  40589a:	mov    WORD PTR [eax],es
  40589c:	add    BYTE PTR [eax],al
  40589e:	pop    eax
  40589f:	adc    DWORD PTR [esp+edx*2],ecx
  4058a2:	adc    dl,BYTE PTR [edi]
  4058a4:	sbb    bl,BYTE PTR [eax+0x4a]
  4058a7:	dec    edx
  4058a8:	adc    ecx,DWORD PTR [ebx]
  4058aa:	adc    dl,BYTE PTR [edi]
  4058ac:	sbb    bl,BYTE PTR [eax+0x12]
  4058af:	pop    ss
  4058b0:	sbb    bl,BYTE PTR [eax+0x4a]
  4058b3:	sbb    bl,BYTE PTR [eax+0x54]
  4058b6:	add    ah,BYTE PTR [eax]
  4058b8:	nop
  4058b9:	add    BYTE PTR [eax],al
  4058bb:	add    BYTE PTR [eax+0x11],bl
  4058be:	or     edx,DWORD PTR [edx+edx*1+0x17]
  4058c2:	sbb    bl,BYTE PTR [eax+0x4a]
  4058c5:	dec    edx
  4058c6:	adc    ecx,DWORD PTR [edx]
  4058c8:	adc    dl,BYTE PTR [edi]
  4058ca:	sbb    bl,BYTE PTR [eax+0x12]
  4058cd:	pop    ss
  4058ce:	sbb    bl,BYTE PTR [eax+0x4a]
  4058d1:	sbb    bl,BYTE PTR [eax+0x54]
  4058d4:	adc    dl,BYTE PTR [edi]
  4058d6:	sbb    bl,BYTE PTR [eax+0x4a]
  4058d9:	dec    edx
  4058da:	adc    ecx,DWORD PTR [ecx]
  4058dc:	adc    dl,BYTE PTR [edi]
  4058de:	sbb    bl,BYTE PTR [eax+0x12]
  4058e1:	pop    ss
  4058e2:	sbb    bl,BYTE PTR [eax+0x4a]
  4058e5:	sbb    bl,BYTE PTR [eax+0x54]
  4058e8:	adc    dl,BYTE PTR [edi]
  4058ea:	sbb    bl,BYTE PTR [eax+0x4a]
  4058ed:	dec    edx
  4058ee:	or     edx,DWORD PTR [edx]
  4058f0:	pop    ss
  4058f1:	sbb    bl,BYTE PTR [eax+0x12]
  4058f4:	pop    ss
  4058f5:	sbb    bl,BYTE PTR [eax+0x4a]
  4058f8:	sbb    bl,BYTE PTR [eax+0x54]
  4058fb:	add    ah,BYTE PTR [eax]
  4058fd:	mov    al,ds:0x58000000
  405902:	pop    es
  405903:	push   esp
  405904:	pop    es
  405905:	adc    DWORD PTR [edx],ecx
  405907:	pop    edx
  405908:	adc    eax,DWORD PTR [esi]
  40590a:	add    ah,BYTE PTR [eax]
  40590c:	cwde   
  40590d:	add    BYTE PTR [eax],al
  40590f:	add    BYTE PTR [eax+0x11],bl
  405912:	push   es
  405913:	push   esp
  405914:	pop    es
  405915:	adc    DWORD PTR [ecx],ecx
  405917:	pop    edx
  405918:	adc    eax,DWORD PTR ds:0x9c2002
  40591e:	add    BYTE PTR [eax],al
  405920:	pop    eax
  405921:	adc    DWORD PTR ds:0x6110254,eax
  405927:	adc    DWORD PTR ds:0x282807,eax
  40592d:	add    BYTE PTR [esi],al
  40592f:	adc    dl,BYTE PTR [edi]
  405931:	sbb    bl,BYTE PTR [eax+0x4a]
  405934:	dec    edx
  405935:	adc    dl,BYTE PTR [edi]
  405937:	sbb    bl,BYTE PTR [eax+0x12]
  40593a:	pop    ss
  40593b:	sbb    bl,BYTE PTR [eax+0x4a]
  40593e:	sbb    bl,BYTE PTR [eax+0x54]
  405941:	push   ss
  405942:	xor    eax,DWORD PTR [ebx]
  405944:	push   ss
  405945:	sub    eax,DWORD PTR [ecx]
  405947:	pop    ss
  405948:	adc    eax,DWORD PTR [ecx+edx*1]
  40594b:	pop    es
  40594c:	adc    DWORD PTR [eax+ebp*1],eax
  40594f:	cmps   DWORD PTR ds:[esi],DWORD PTR es:[edi]
  405950:	add    BYTE PTR [eax],al
  405952:	push   es
  405953:	add    bl,BYTE PTR [edi]
  405955:	fs pop eax
  405957:	adc    DWORD PTR [edx+edx*2],eax
  40595a:	adc    dl,BYTE PTR [edi]
  40595c:	sbb    bl,BYTE PTR [eax+0x4a]
  40595f:	dec    edx
  405960:	adc    dl,BYTE PTR [edi]
  405962:	sbb    bl,BYTE PTR [eax+0x12]
  405965:	pop    ss
  405966:	sbb    bl,BYTE PTR [eax+0x4a]
  405969:	sbb    bl,BYTE PTR [eax+0x54]
  40596c:	push   ss
  40596d:	xor    eax,DWORD PTR [ebx]
  40596f:	push   ss
  405970:	sub    eax,DWORD PTR [ecx]
  405972:	pop    ss
  405973:	adc    ecx,DWORD PTR [eax]
  405975:	add    bl,BYTE PTR [edi]
  405977:	gs pop eax
  405979:	adc    DWORD PTR [eax],ecx
  40597b:	push   edx
  40597c:	or     BYTE PTR [eax],ch
  40597e:	add    WORD PTR [eax],ax
  405981:	push   es
  405982:	fimul  WORD PTR [esi]
  405984:	inc    BYTE PTR [esi]
  405986:	or     BYTE PTR [ecx],al
  405988:	add    BYTE PTR [esi],al
  40598a:	adc    dl,BYTE PTR [edi]
  40598c:	sub    dl,ch
  40598e:	add    BYTE PTR [eax],al
  405990:	push   es
  405991:	fcom   QWORD PTR [edx]
  405993:	pop    ss
  405994:	sub    BYTE PTR [eax],cl
  405996:	add    DWORD PTR [eax],eax
  405998:	push   es
  405999:	fimul  WORD PTR ds:0x5506fe
  40599f:	add    BYTE PTR [esi],al
  4059a1:	add    ebp,DWORD PTR [eax]
  4059a3:	jmp    0x300:0xdc060000
  4059aa:	pop    ss
  4059ab:	push   ss
  4059ac:	sub    BYTE PTR [ebp+0x0],ah
  4059af:	add    BYTE PTR [esi],al
  4059b1:	fimul  WORD PTR ds:0x5b06fe
  4059b7:	add    BYTE PTR [esi],al
  4059b9:	add    ebp,DWORD PTR [eax]
  4059bb:	jmp    0x2f2b:0xdc060000
  4059c2:	add    BYTE PTR [edx],dl
  4059c4:	pop    ss
  4059c5:	sub    BYTE PTR [eax],cl
  4059c7:	add    DWORD PTR [eax],eax
  4059c9:	push   es
  4059ca:	fimul  WORD PTR ds:0x5506fe
  4059d0:	add    BYTE PTR [esi],al
  4059d2:	add    ebp,DWORD PTR [eax]
  4059d4:	jmp    0x300:0xdc060000
  4059db:	pop    ss
  4059dc:	push   ss
  4059dd:	sub    BYTE PTR [ebp+0x0],ah
  4059e0:	add    BYTE PTR [esi],al
  4059e2:	fimul  WORD PTR ds:0x5b06fe
  4059e8:	add    BYTE PTR [esi],al
  4059ea:	add    ebp,DWORD PTR [eax]
  4059ec:	jmp    0x2a:0xdc060000
  4059f3:	add    BYTE PTR [ecx-0x54],al
  4059f6:	add    BYTE PTR [eax],al
  4059f8:	add    al,0x0
  4059fa:	add    BYTE PTR [eax],al
  4059fc:	add    BYTE PTR [eax],al
  4059fe:	add    BYTE PTR [eax],al
  405a00:	and    BYTE PTR [eax],al
  405a02:	add    BYTE PTR [eax],al
  405a04:	and    BYTE PTR [eax],al
  405a06:	add    BYTE PTR [eax],al
  405a08:	or     eax,0x27000000
  405a0d:	add    BYTE PTR [eax],al
  405a0f:	add    DWORD PTR [eax+eax*1],eax
  405a12:	add    BYTE PTR [eax],al
  405a14:	add    BYTE PTR cs:[eax],al
  405a17:	add    BYTE PTR [edx],cl
  405a19:	add    BYTE PTR [eax],al
  405a1b:	add    BYTE PTR [eax],bh
  405a1d:	add    BYTE PTR [eax],al
  405a1f:	add    BYTE PTR ds:0x27000000,cl
  405a25:	add    BYTE PTR [eax],al
  405a27:	add    DWORD PTR [eax+eax*1],eax
  405a2a:	add    BYTE PTR [eax],al
  405a2c:	xchg   DWORD PTR [eax],eax
  405a2e:	add    BYTE PTR [eax],al
  405a30:	imul   eax,DWORD PTR [edx],0x2f00000
  405a36:	add    BYTE PTR [eax],al
  405a38:	push   cs
  405a39:	add    BYTE PTR [eax],al
  405a3b:	add    BYTE PTR [edi],ah
  405a3d:	add    BYTE PTR [eax],al
  405a3f:	add    DWORD PTR [eax+eax*1],eax
  405a42:	add    BYTE PTR [eax],al
  405a44:	dec    ebx
  405a45:	add    BYTE PTR [eax],al
  405a47:	add    BYTE PTR [edx+eax*1+0x3070000],bh
  405a4e:	add    BYTE PTR [eax],al
  405a50:	or     eax,0x27000000
  405a55:	add    BYTE PTR [eax],al
  405a57:	add    DWORD PTR [eax+eax*1],eax
  405a5a:	add    BYTE PTR [eax],al
  405a5c:	adc    eax,0xa000003
  405a61:	add    BYTE PTR [eax],al
  405a63:	add    BYTE PTR [edi],bl
  405a65:	add    eax,DWORD PTR [eax]
  405a67:	add    BYTE PTR ds:0x27000000,cl
  405a6d:	add    BYTE PTR [eax],al
  405a6f:	add    DWORD PTR [eax+eax*1],eax
  405a72:	add    BYTE PTR [eax],al
  405a74:	das    
  405a75:	add    eax,DWORD PTR [eax]
  405a77:	add    BYTE PTR [ecx],cl
  405a79:	add    BYTE PTR [eax],al
  405a7b:	add    BYTE PTR [eax],bh
  405a7d:	add    eax,DWORD PTR [eax]
  405a7f:	add    BYTE PTR ds:0x27000000,cl
  405a85:	add    BYTE PTR [eax],al
  405a87:	add    DWORD PTR [eax+eax*1],eax
  405a8a:	add    BYTE PTR [eax],al
  405a8c:	inc    esi
  405a8d:	add    eax,DWORD PTR [eax]
  405a8f:	add    BYTE PTR [edx],cl
  405a91:	add    BYTE PTR [eax],al
  405a93:	add    BYTE PTR [eax+0x3],dl
  405a96:	add    BYTE PTR [eax],al
  405a98:	or     eax,0x27000000
  405a9d:	add    BYTE PTR [eax],al
  405a9f:	add    DWORD PTR [ebx],eax
  405aa1:	xor    BYTE PTR [ebx],al
  405aa3:	add    BYTE PTR [ebx],cl
  405aa5:	add    BYTE PTR [eax],al
  405aa7:	add    BYTE PTR [eax],al
  405aa9:	add    BYTE PTR [eax],al
  405aab:	add    BYTE PTR [edx],al
  405aad:	dec    edx
  405aae:	pop    ss
  405aaf:	pop    ds
  405ab0:	and    BYTE PTR [eax],ch
  405ab2:	add    eax,0x2a060000
  405ab7:	add    BYTE PTR [ebx],al
  405ab9:	xor    BYTE PTR [eax+eax*1],al
  405abc:	ins    BYTE PTR es:[edi],dx
  405abd:	add    BYTE PTR [eax],al
  405abf:	add    BYTE PTR [edx+0x0],ch
  405ac2:	add    BYTE PTR [ecx],dl
  405ac4:	pop    ds
  405ac5:	inc    BYTE PTR [ebx]
  405ac7:	xor    al,0xa
  405ac9:	jg     0x405af8
  405acb:	add    BYTE PTR [eax],al
  405acd:	add    al,0x28
  405acf:	pop    es
  405ad0:	add    DWORD PTR [eax],eax
  405ad2:	push   es
  405ad3:	add    bl,BYTE PTR [edi]
  405ad5:	adc    al,0x58
  405ad7:	dec    edx
  405ad8:	or     al,0x8
  405ada:	add    esi,DWORD PTR [esi+ecx*1]
  405add:	add    al,BYTE PTR [ebx]
  405adf:	add    bl,BYTE PTR [edi]
  405ae1:	adc    BYTE PTR [eax+0x4a],bl
  405ae4:	sub    BYTE PTR [edi+0x0],ch
  405ae7:	add    BYTE PTR [esi],al
  405ae9:	sub    edi,DWORD PTR [eax]
  405aeb:	add    al,0x2c
  405aed:	push   ds
  405aee:	add    ebx,DWORD PTR [edi]
  405af0:	adc    BYTE PTR [ecx+ebx*1],dh
  405af3:	add    bl,BYTE PTR [edi]
  405af5:	adc    BYTE PTR [eax+0x4a],bl
  405af8:	or     eax,DWORD PTR [ebx]
  405afa:	pop    es
  405afb:	aaa    
  405afc:	add    eax,DWORD PTR [edi]
  405afe:	sub    eax,DWORD PTR [ecx]
  405b00:	add    ecx,DWORD PTR ds:0x28091702
  405b06:	add    BYTE PTR gs:[eax],al
  405b09:	push   es
  405b0a:	sub    edx,DWORD PTR [edi]
  405b0c:	add    ebp,DWORD PTR ds:0x101f0214
  405b12:	pop    eax
  405b13:	push   ss
  405b14:	push   esp
  405b15:	pop    ds
  405b16:	adc    BYTE PTR [eax],cl
  405b18:	xor    eax,0x2b4a0204
  405b1d:	add    DWORD PTR [edx],eax
  405b1f:	push   ss
  405b20:	push   edx
  405b21:	sub    ecx,DWORD PTR [eax]
  405b23:	push   ss
  405b24:	add    esi,DWORD PTR [esp+eax*1]
  405b27:	pop    ss
  405b28:	or     ch,BYTE PTR [ebx]
  405b2a:	add    dl,BYTE PTR [esi]
  405b2c:	or     al,BYTE PTR [esi]
  405b2e:	shr    BYTE PTR [edx],cl
  405b30:	add    esi,DWORD PTR [eax]
  405b32:	add    eax,DWORD PTR [eax]
  405b34:	mov    DWORD PTR [eax],eax
  405b36:	add    BYTE PTR [eax],al
  405b38:	imul   eax,DWORD PTR [eax],0x0
  405b3b:	adc    DWORD PTR [ebx],eax
  405b3d:	pop    ds
  405b3e:	adc    BYTE PTR [eax+0x4a],bl
  405b41:	or     eax,0xa340409
  405b46:	jg     0x405b76
  405b48:	add    BYTE PTR [eax],al
  405b4a:	add    al,0x28
  405b4c:	add    DWORD PTR gs:[eax],eax
  405b4f:	push   es
  405b50:	or     DWORD PTR [ecx+ebx*2],eax
  405b53:	or     al,0x5
  405b55:	or     BYTE PTR ds:0x12b0503,dh
  405b5b:	or     BYTE PTR [eax],dl
  405b5d:	add    eax,DWORD PTR [edx]
  405b5f:	add    esi,DWORD PTR [ebx]
  405b61:	adc    eax,0x58050402
  405b66:	sub    BYTE PTR [ecx+0x0],dh
  405b69:	add    BYTE PTR [esi],al
  405b6b:	add    dl,BYTE PTR es:[esi]
  405b6e:	add    al,0x28
  405b70:	jo     0x405b72
  405b72:	add    BYTE PTR [esi],al
  405b74:	sub    ecx,DWORD PTR es:[edx+eax*1+0x5]
  405b79:	push   ss
  405b7a:	sub    BYTE PTR [esi+0x0],ah
  405b7d:	add    BYTE PTR [esi],al
  405b7f:	sub    al,0x42
  405b81:	pop    ds
  405b82:	adc    BYTE PTR [ebx],al
  405b84:	pop    ds
  405b85:	adc    al,0x58
  405b87:	dec    edx
  405b88:	xor    eax,0xb4a0305
  405b8d:	sub    eax,DWORD PTR [edx]
  405b8f:	add    ecx,DWORD PTR [ebx]
  405b91:	pop    ds
  405b92:	adc    BYTE PTR [edx],al
  405b94:	pop    ds
  405b95:	adc    al,0x58
  405b97:	dec    edx
  405b98:	xor    eax,0xa4a0205
  405b9d:	sub    eax,DWORD PTR [edx]
  405b9f:	add    cl,BYTE PTR [edx]
  405ba1:	add    eax,0x706072c
  405ba6:	add    al,0x58
  405ba8:	add    eax,0x1f0217fe
  405bad:	adc    BYTE PTR [eax+0x5],bl
  405bb0:	push   esp
  405bb1:	pop    ds
  405bb2:	adc    BYTE PTR [edx],al
  405bb4:	pop    ds
  405bb5:	adc    al,0x58
  405bb7:	dec    edx
  405bb8:	xor    eax,0x2b4a0204
  405bbd:	add    DWORD PTR [edx],eax
  405bbf:	add    eax,0x2521658
  405bc4:	sub    cl,ah
  405bc6:	int3   
  405bc7:	int3   
  405bc8:	add    esi,DWORD PTR [eax]
  405bca:	add    eax,DWORD PTR [eax]
  405bcc:	call   0x0:0x6c000000
  405bd3:	adc    DWORD PTR [ebx],eax
  405bd5:	pop    ds
  405bd6:	adc    BYTE PTR [eax+0x4a],bl
  405bd9:	adc    eax,DWORD PTR ds:0x34040511
  405bdf:	or     bh,BYTE PTR [edi+0x2e]
  405be2:	add    BYTE PTR [eax],al
  405be4:	add    al,0x28
  405be6:	add    DWORD PTR gs:[eax],eax
  405be9:	push   es
  405bea:	adc    DWORD PTR ds:0x4135904,eax
  405bf0:	add    eax,0x3350411
  405bf5:	add    eax,0x411022b
  405bfa:	adc    BYTE PTR [ebx],al
  405bfc:	add    bl,BYTE PTR [edi]
  405bfe:	adc    BYTE PTR [eax+0x4a],bl
  405c01:	or     eax,0x5590915
  405c06:	xor    eax,0x2d7f0a
  405c0b:	add    BYTE PTR [eax+ebp*1],al
  405c0e:	pop    es
  405c0f:	add    DWORD PTR [eax],eax
  405c11:	push   es
  405c12:	or     DWORD PTR ds:0x5160a58,eax
  405c18:	xor    al,0x52
  405c1a:	add    al,BYTE PTR [esi]
  405c1c:	push   ss
  405c1d:	sub    BYTE PTR [esi+0x0],ah
  405c20:	add    BYTE PTR [esi],al
  405c22:	sub    al,0x48
  405c24:	pop    ds
  405c25:	adc    BYTE PTR [ebx],al
  405c27:	pop    ds
  405c28:	adc    al,0x58
  405c2a:	dec    edx
  405c2b:	xor    eax,0xc4a0305
  405c30:	sub    eax,DWORD PTR [edx]
  405c32:	add    ecx,DWORD PTR [edi+ebx*1]
  405c35:	adc    BYTE PTR [edx],al
  405c37:	pop    ds
  405c38:	adc    al,0x58
  405c3a:	dec    edx
  405c3b:	xor    eax,0xb4a0205
  405c40:	sub    eax,DWORD PTR [edx]
  405c42:	add    cl,BYTE PTR [ebx]
  405c44:	add    eax,0x1f020d2c
  405c49:	adc    BYTE PTR [eax+0x4a],bl
  405c4c:	pop    es
  405c4d:	pop    eax
  405c4e:	or     BYTE PTR [eax+ebx*2],al
  405c51:	add    eax,0x1f0217fe
  405c56:	adc    BYTE PTR [eax+0x6],bl
  405c59:	push   esp
  405c5a:	pop    ds
  405c5b:	adc    BYTE PTR [edx],al
  405c5d:	pop    ds
  405c5e:	adc    al,0x58
  405c60:	dec    edx
  405c61:	xor    eax,0x2b4a0204
  405c66:	add    DWORD PTR [edx],eax
  405c68:	push   es
  405c69:	pop    eax
  405c6a:	push   ss
  405c6b:	push   edx
  405c6c:	add    ch,BYTE PTR [edx]
  405c6e:	int3   
  405c6f:	int3   
  405c70:	add    esi,DWORD PTR [eax]
  405c72:	add    eax,DWORD PTR [eax]
  405c74:	or     eax,DWORD PTR [eax]
  405c76:	add    BYTE PTR [eax],al
  405c78:	add    BYTE PTR [eax],al
  405c7a:	add    BYTE PTR [eax],al
  405c7c:	add    cl,BYTE PTR [edx+0x17]
  405c7f:	pop    ds
  405c80:	cmp    al,0x28
  405c82:	add    eax,0x2a060000
  405c87:	add    BYTE PTR [ebx],al
  405c89:	xor    BYTE PTR [eax+eax*1],al
  405c8c:	adc    al,0x0
  405c8e:	add    BYTE PTR [eax],al
  405c90:	add    BYTE PTR [eax],al
  405c92:	add    BYTE PTR [eax],al
  405c94:	add    dl,BYTE PTR [esi]
  405c96:	push   esp
  405c97:	add    bl,BYTE PTR [edx]
  405c99:	pop    eax
  405c9a:	push   ss
  405c9b:	push   esp
  405c9c:	add    ah,BYTE PTR ds:0x74281616
  405ca2:	add    BYTE PTR [eax],al
  405ca4:	push   es
  405ca5:	push   esp
  405ca6:	add    ch,BYTE PTR [edx]
  405ca8:	add    esi,DWORD PTR [eax]
  405caa:	add    al,0x0
  405cac:	xchg   BYTE PTR [eax],al
  405cae:	add    BYTE PTR [eax],al
  405cb0:	outs   dx,BYTE PTR ds:[esi]
  405cb1:	add    BYTE PTR [eax],al
  405cb3:	adc    DWORD PTR [ebx],eax
  405cb5:	sub    al,0x47
  405cb7:	add    bl,BYTE PTR [edi]
  405cb9:	adc    al,0x58
  405cbb:	dec    edx
  405cbc:	or     bl,BYTE PTR [edi]
  405cbe:	adc    BYTE PTR [esi],al
  405cc0:	xor    eax,0x134a0206
  405cc5:	add    al,0x2b
  405cc7:	add    eax,DWORD PTR [edx]
  405cc9:	adc    eax,DWORD PTR [ebx+eax*1]
  405ccc:	adc    DWORD PTR [edi+esi*1],eax
  405ccf:	cs pop ds
  405cd1:	adc    BYTE PTR [esi],al
  405cd3:	xor    eax,0xd4a0205
  405cd8:	sub    eax,DWORD PTR [edx]
  405cda:	add    cl,BYTE PTR ds:0x58101f02
  405ce0:	dec    edx
  405ce1:	or     DWORD PTR [eax+0x3],ebx
  405ce4:	sbb    BYTE PTR ss:[edi],bl
  405ce7:	adc    BYTE PTR [esi],al
  405ce9:	xor    eax,0xc4a0205
  405cee:	sub    eax,DWORD PTR [edx]
  405cf0:	add    cl,BYTE PTR [edx+eax*1]
  405cf3:	and    eax,0x4590803
  405cf8:	sub    BYTE PTR [edi+0x0],ah
  405cfb:	add    BYTE PTR [esi],al
  405cfd:	sub    al,BYTE PTR [edx]
  405cff:	add    al,0x16
  405d01:	sub    BYTE PTR [esi+0x0],ah
  405d04:	add    BYTE PTR [esi],al
  405d06:	sub    al,0x30
  405d08:	pop    ds
  405d09:	adc    BYTE PTR [edx],al
  405d0b:	pop    ds
  405d0c:	adc    al,0x58
  405d0e:	dec    edx
  405d0f:	xor    eax,0xb4a0205
  405d14:	sub    eax,DWORD PTR [edx]
  405d16:	add    cl,BYTE PTR [ebx]
  405d18:	add    al,0x2c
  405d1a:	add    eax,0xfe040307
  405d1f:	pop    ss
  405d20:	add    bl,BYTE PTR [edi]
  405d22:	adc    BYTE PTR [eax+0x4],bl
  405d25:	push   esp
  405d26:	pop    ds
  405d27:	adc    BYTE PTR [edx],al
  405d29:	pop    ds
  405d2a:	adc    al,0x58
  405d2c:	dec    edx
  405d2d:	xor    eax,0x2b4a0204
  405d32:	add    DWORD PTR [edx],eax
  405d34:	add    al,0x58
  405d36:	push   ss
  405d37:	push   edx
  405d38:	add    ch,BYTE PTR [edx]
  405d3a:	int3   
  405d3b:	int3   
  405d3c:	add    esi,DWORD PTR [eax]
  405d3e:	add    al,0x0
  405d40:	adc    BYTE PTR [eax],al
  405d42:	add    BYTE PTR [eax],al
  405d44:	add    BYTE PTR [eax],al
  405d46:	add    BYTE PTR [eax],al
  405d48:	add    al,BYTE PTR [ebx]
  405d4a:	or     al,BYTE PTR cs:[edx]
  405d4d:	add    edx,DWORD PTR [esi]
  405d4f:	adc    eax,0x6728
  405d54:	push   es
  405d55:	add    ch,BYTE PTR es:[edx]
  405d58:	or     esi,DWORD PTR [eax]
  405d5a:	add    al,0x0
  405d5c:	aas    
  405d5d:	add    BYTE PTR [eax],al
  405d5f:	add    BYTE PTR [eax],al
  405d61:	add    BYTE PTR [eax],al
  405d63:	add    BYTE PTR [edx],al
  405d65:	pop    ds
  405d66:	adc    BYTE PTR [eax+0x16],bl
  405d69:	push   esp
  405d6a:	add    bl,BYTE PTR [edi]
  405d6c:	adc    al,0x58
  405d6e:	push   ss
  405d6f:	push   esp
  405d70:	fimul  WORD PTR ds:0x6406fe
  405d76:	add    BYTE PTR [esi],al
  405d78:	add    ch,BYTE PTR [eax]
  405d7a:	jmp    0x200:0xdc060000
  405d81:	push   ss
  405d82:	push   ss
  405d83:	sub    BYTE PTR [ebp+0x0],ah
  405d86:	add    BYTE PTR [esi],al
  405d88:	add    al,BYTE PTR [ebx]
  405d8a:	push   ss
  405d8b:	adc    eax,0x6728
  405d90:	push   es
  405d91:	fimul  WORD PTR es:0x5b06fe
  405d98:	add    BYTE PTR [esi],al
  405d9a:	add    ch,BYTE PTR [eax]
  405d9c:	jmp    0x2a02:0xdc060000
  405da3:	add    BYTE PTR [ecx+0x34],al
  405da6:	add    BYTE PTR [eax],al
  405da8:	add    al,0x0
  405daa:	add    BYTE PTR [eax],al
  405dac:	add    BYTE PTR [eax],al
  405dae:	add    BYTE PTR [eax],al
  405db0:	push   cs
  405db1:	add    BYTE PTR [eax],al
  405db3:	add    BYTE PTR [esi],cl
  405db5:	add    BYTE PTR [eax],al
  405db7:	add    BYTE PTR ds:0x27000000,cl
  405dbd:	add    BYTE PTR [eax],al
  405dbf:	add    DWORD PTR [eax+eax*1],eax
  405dc2:	add    BYTE PTR [eax],al
  405dc4:	sbb    al,0x0
  405dc6:	add    BYTE PTR [eax],al
  405dc8:	adc    al,0x0
  405dca:	add    BYTE PTR [eax],al
  405dcc:	xor    BYTE PTR [eax],al
  405dce:	add    BYTE PTR [eax],al
  405dd0:	or     eax,0x27000000
  405dd5:	add    BYTE PTR [eax],al
  405dd7:	add    DWORD PTR [ebx],ecx
  405dd9:	xor    BYTE PTR [ebx],al
  405ddb:	add    BYTE PTR [eax],ah
  405ddd:	add    BYTE PTR [eax],al
  405ddf:	add    BYTE PTR [eax],al
  405de1:	add    BYTE PTR [eax],al
  405de3:	add    BYTE PTR [edx],al
  405de5:	sub    BYTE PTR [ebx+0x0],dh
  405de8:	add    BYTE PTR [esi],al
  405dea:	fimul  WORD PTR ds:0x6b06fe
  405df0:	add    BYTE PTR [esi],al
  405df2:	add    ch,BYTE PTR [eax]
  405df4:	jmp    0x4a02:0xdc060000
  405dfb:	pop    ss
  405dfc:	pop    ds
  405dfd:	cmp    al,0x28
  405dff:	add    eax,0x2a060000
  405e04:	inc    ecx
  405e05:	sbb    al,0x0
  405e07:	add    BYTE PTR [eax+eax*1],al
  405e0a:	add    BYTE PTR [eax],al
  405e0c:	add    BYTE PTR [eax],al
  405e0e:	add    BYTE PTR [eax],al
  405e10:	or     BYTE PTR [eax],al
  405e12:	add    BYTE PTR [eax],al
  405e14:	or     BYTE PTR [eax],al
  405e16:	add    BYTE PTR [eax],al
  405e18:	or     eax,0x27000000
  405e1d:	add    BYTE PTR [eax],al
  405e1f:	add    DWORD PTR [ebx],eax
  405e21:	xor    BYTE PTR [eax+eax*1],al
  405e24:	mov    al,0x0
  405e26:	add    BYTE PTR [eax],al
  405e28:	outs   dx,DWORD PTR ds:[esi]
  405e29:	add    BYTE PTR [eax],al
  405e2b:	adc    DWORD PTR [ebx],eax
  405e2d:	sub    al,0x4d
  405e2f:	add    bl,BYTE PTR [edi]
  405e31:	adc    al,0x58
  405e33:	dec    edx
  405e34:	or     ebx,DWORD PTR [edi]
  405e36:	adc    BYTE PTR [edi],al
  405e38:	xor    eax,0x134a0206
  405e3d:	push   es
  405e3e:	sub    eax,DWORD PTR [ebx]
  405e40:	add    dl,BYTE PTR [ebx]
  405e42:	push   es
  405e43:	add    edx,DWORD PTR [ecx]
  405e45:	push   es
  405e46:	aaa    
  405e47:	xor    al,0x1f
  405e49:	adc    BYTE PTR [edi],al
  405e4b:	xor    eax,0x134a0206
  405e50:	add    eax,0x1302032b
  405e55:	add    eax,0x58101f02
  405e5a:	dec    edx
  405e5b:	adc    DWORD PTR ds:0x1b360358,eax
  405e61:	pop    ds
  405e62:	adc    BYTE PTR [edi],al
  405e64:	xor    eax,0x134a0206
  405e69:	add    al,0x2b
  405e6b:	add    eax,DWORD PTR [edx]
  405e6d:	adc    eax,DWORD PTR [edx+eax*1]
  405e70:	and    eax,0x59041103
  405e75:	add    al,0x28
  405e77:	imul   eax,DWORD PTR [eax],0x22a0600
  405e7d:	pop    ds
  405e7e:	adc    BYTE PTR [eax+0x4a],bl
  405e81:	or     eax,0x4590915
  405e86:	xor    eax,0x2d7f0a
  405e8b:	add    BYTE PTR [eax+ebp*1],al
  405e8e:	pop    es
  405e8f:	add    DWORD PTR [eax],eax
  405e91:	push   es
  405e92:	or     DWORD PTR [eax+ebx*2],eax
  405e95:	or     dl,BYTE PTR [esi]
  405e97:	add    al,0x34
  405e99:	inc    eax
  405e9a:	add    al,BYTE PTR [esi]
  405e9c:	push   ss
  405e9d:	sub    BYTE PTR [esi+0x0],ah
  405ea0:	add    BYTE PTR [esi],al
  405ea2:	sub    al,0x36
  405ea4:	pop    ds
  405ea5:	adc    BYTE PTR [edx],al
  405ea7:	pop    ds
  405ea8:	adc    al,0x58
  405eaa:	dec    edx
  405eab:	xor    eax,0xc4a0205
  405eb0:	sub    eax,DWORD PTR [edx]
  405eb2:	add    cl,BYTE PTR [esp+eax*1]
  405eb5:	sub    al,0xb
  405eb7:	or     BYTE PTR [edx],al
  405eb9:	pop    ds
  405eba:	adc    BYTE PTR [eax+0x4a],bl
  405ebd:	pop    eax
  405ebe:	add    eax,DWORD PTR [esi+edi*8]
  405ec1:	pop    ss
  405ec2:	add    bl,BYTE PTR [edi]
  405ec4:	adc    BYTE PTR [eax+0x6],bl
  405ec7:	push   esp
  405ec8:	pop    ds
  405ec9:	adc    BYTE PTR [edx],al
  405ecb:	pop    ds
  405ecc:	adc    al,0x58
  405ece:	dec    edx
  405ecf:	xor    eax,0x2b4a0204
  405ed4:	add    DWORD PTR [edx],eax
  405ed6:	push   es
  405ed7:	pop    eax
  405ed8:	push   ss
  405ed9:	push   edx
  405eda:	add    ch,BYTE PTR [edx]
  405edc:	or     esi,DWORD PTR [eax]
  405ede:	add    al,0x0
  405ee0:	dec    edi
  405ee1:	add    BYTE PTR [eax],al
  405ee3:	add    BYTE PTR [edx+0x0],ah
  405ee6:	add    BYTE PTR [ecx],dl
  405ee8:	add    ecx,DWORD PTR [edx]
  405eea:	add    ebp,DWORD PTR ds:0x347de02
  405ef0:	pop    ds
  405ef1:	adc    BYTE PTR [eax+0x16],bl
  405ef4:	push   esp
  405ef5:	add    ebx,DWORD PTR [edi]
  405ef7:	adc    al,0x58
  405ef9:	push   ss
  405efa:	push   esp
  405efb:	fimul  WORD PTR ds:0x6406fe
  405f01:	add    BYTE PTR [esi],al
  405f03:	push   es
  405f04:	sub    dl,ch
  405f06:	add    BYTE PTR [eax],al
  405f08:	push   es
  405f09:	fadd   QWORD PTR [eax]
  405f0b:	add    edx,DWORD PTR [esi]
  405f0d:	push   ss
  405f0e:	sub    BYTE PTR [ebp+0x0],ah
  405f11:	add    BYTE PTR [esi],al
  405f13:	add    eax,DWORD PTR [esi+edx*1]
  405f16:	adc    eax,0x6728
  405f1b:	push   es
  405f1c:	fimul  WORD PTR es:0x5b06fe
  405f23:	add    BYTE PTR [esi],al
  405f25:	push   es
  405f26:	sub    dl,ch
  405f28:	add    BYTE PTR [eax],al
  405f2a:	push   es
  405f2b:	(bad)  
  405f2d:	or     BYTE PTR [esi],al
  405f2f:	add    ebp,DWORD PTR [eax]
  405f31:	add    eax,DWORD PTR [eax]
  405f33:	add    BYTE PTR [esi],al
  405f35:	fsubr  QWORD PTR [edx]
  405f37:	add    BYTE PTR [ecx+0x4c],al
  405f3a:	add    BYTE PTR [eax],al
  405f3c:	add    al,0x0
  405f3e:	add    BYTE PTR [eax],al
  405f40:	pop    es
  405f41:	add    BYTE PTR [eax],al
  405f43:	add    BYTE PTR [esi],cl
  405f45:	add    BYTE PTR [eax],al
  405f47:	add    BYTE PTR ds:0xd000000,dl
  405f4d:	add    BYTE PTR [eax],al
  405f4f:	add    BYTE PTR [edi],ah
  405f51:	add    BYTE PTR [eax],al
  405f53:	add    DWORD PTR [eax+eax*1],eax
  405f56:	add    BYTE PTR [eax],al
  405f58:	and    eax,DWORD PTR [eax]
  405f5a:	add    BYTE PTR [eax],al
  405f5c:	adc    al,0x0
  405f5e:	add    BYTE PTR [eax],al
  405f60:	aaa    
  405f61:	add    BYTE PTR [eax],al
  405f63:	add    BYTE PTR ds:0x27000000,cl
  405f69:	add    BYTE PTR [eax],al
  405f6b:	add    DWORD PTR [eax+eax*1],eax
  405f6e:	add    BYTE PTR [eax],al
  405f70:	add    al,BYTE PTR [eax]
  405f72:	add    BYTE PTR [eax],al
  405f74:	inc    esp
  405f75:	add    BYTE PTR [eax],al
  405f77:	add    BYTE PTR [esi+0x0],al
  405f7a:	add    BYTE PTR [eax],al
  405f7c:	or     BYTE PTR [eax],al
  405f7e:	add    BYTE PTR [eax],al
  405f80:	daa    
  405f81:	add    BYTE PTR [eax],al
  405f83:	add    DWORD PTR [ebx],ecx
  405f85:	xor    BYTE PTR [eax+eax*1],al
  405f88:	add    BYTE PTR ds:[eax],al
  405f8b:	add    BYTE PTR [eax],al
  405f8d:	add    BYTE PTR [eax],al
  405f8f:	add    BYTE PTR [edx],al
  405f91:	pop    ds
  405f92:	adc    BYTE PTR [eax+0x16],bl
  405f95:	push   esp
  405f96:	add    bl,BYTE PTR [edi]
  405f98:	adc    al,0x58
  405f9a:	push   ss
  405f9b:	push   esp
  405f9c:	fimul  WORD PTR ds:0x6406fe
  405fa2:	add    BYTE PTR [esi],al
  405fa4:	add    ch,BYTE PTR [eax]
  405fa6:	jmp    0x200:0xdc060000
  405fad:	push   ss
  405fae:	push   ss
  405faf:	sub    BYTE PTR [ebp+0x0],ah
  405fb2:	add    BYTE PTR [esi],al
  405fb4:	add    al,BYTE PTR [ebx]
  405fb6:	push   ss
  405fb7:	adc    eax,0x6728
  405fbc:	push   es
  405fbd:	fimul  WORD PTR es:0x5b06fe
  405fc4:	add    BYTE PTR [esi],al
  405fc6:	add    ch,BYTE PTR [eax]
  405fc8:	jmp    0x2a:0xdc060000
  405fcf:	add    BYTE PTR [ecx+0x34],al
  405fd2:	add    BYTE PTR [eax],al
  405fd4:	add    al,0x0
  405fd6:	add    BYTE PTR [eax],al
  405fd8:	add    BYTE PTR [eax],al
  405fda:	add    BYTE PTR [eax],al
  405fdc:	push   cs
  405fdd:	add    BYTE PTR [eax],al
  405fdf:	add    BYTE PTR [esi],cl
  405fe1:	add    BYTE PTR [eax],al
  405fe3:	add    BYTE PTR ds:0x27000000,cl
  405fe9:	add    BYTE PTR [eax],al
  405feb:	add    DWORD PTR [eax+eax*1],eax
  405fee:	add    BYTE PTR [eax],al
  405ff0:	sbb    al,0x0
  405ff2:	add    BYTE PTR [eax],al
  405ff4:	adc    al,0x0
  405ff6:	add    BYTE PTR [eax],al
  405ff8:	xor    BYTE PTR [eax],al
  405ffa:	add    BYTE PTR [eax],al
  405ffc:	or     eax,0x27000000
  406001:	add    BYTE PTR [eax],al
  406003:	add    DWORD PTR [ebx],eax
  406005:	xor    BYTE PTR [ebx],al
  406007:	add    BYTE PTR [edi],bl
  406009:	add    BYTE PTR [eax],al
  40600b:	add    BYTE PTR [eax],dl
  40600d:	add    BYTE PTR [eax],al
  40600f:	adc    DWORD PTR [ebx],eax
  406011:	inc    esi
  406012:	sub    eax,0x2b0b1604
  406017:	push   cs
  406018:	add    ecx,DWORD PTR [edx]
  40601a:	push   es
  40601b:	pop    ss
  40601c:	pop    eax
  40601d:	or     al,BYTE PTR [esi]
  40601f:	inc    esi
  406020:	sub    eax,0x590306f8
  406025:	or     eax,DWORD PTR [edx]
  406027:	add    eax,DWORD PTR [edi]
  406029:	sub    BYTE PTR [edx+0x0],dl
  40602c:	add    BYTE PTR [esi],al
  40602e:	sub    cl,ah
  406030:	or     esi,DWORD PTR [eax]
  406032:	add    eax,DWORD PTR [eax]
  406034:	push   esp
  406035:	add    BYTE PTR [eax],al
  406037:	add    BYTE PTR [eax],dl
  406039:	add    BYTE PTR [eax],al
  40603b:	adc    DWORD PTR [edx],eax
  40603d:	pop    ds
  40603e:	adc    BYTE PTR [eax+0x16],bl
  406041:	push   esp
  406042:	add    bl,BYTE PTR [edi]
  406044:	adc    al,0x58
  406046:	push   ss
  406047:	push   esp
  406048:	fimul  WORD PTR ds:0x6406fe
  40604e:	add    BYTE PTR [esi],al
  406050:	add    ch,BYTE PTR [eax]
  406052:	jmp    0x200:0xdc060000
  406059:	push   ss
  40605a:	push   ss
  40605b:	sub    BYTE PTR [ebp+0x0],ah
  40605e:	add    BYTE PTR [esi],al
  406060:	add    eax,DWORD PTR [esi+0x2d]
  406063:	add    al,0x16
  406065:	or     ebp,DWORD PTR [ebx]
  406067:	push   cs
  406068:	add    ecx,DWORD PTR [edx]
  40606a:	push   es
  40606b:	pop    ss
  40606c:	pop    eax
  40606d:	or     al,BYTE PTR [esi]
  40606f:	inc    esi
  406070:	sub    eax,0x590306f8
  406075:	or     eax,DWORD PTR [edx]
  406077:	add    eax,DWORD PTR [edi]
  406079:	sub    BYTE PTR [edx+0x0],dl
  40607c:	add    BYTE PTR [esi],al
  40607e:	fimul  WORD PTR es:0x5b06fe
  406085:	add    BYTE PTR [esi],al
  406087:	add    ch,BYTE PTR [eax]
  406089:	jmp    0x2a02:0xdc060000
  406090:	inc    ecx
  406091:	xor    al,0x0
  406093:	add    BYTE PTR [eax+eax*1],al
  406096:	add    BYTE PTR [eax],al
  406098:	add    BYTE PTR [eax],al
  40609a:	add    BYTE PTR [eax],al
  40609c:	push   cs
  40609d:	add    BYTE PTR [eax],al
  40609f:	add    BYTE PTR [esi],cl
  4060a1:	add    BYTE PTR [eax],al
  4060a3:	add    BYTE PTR ds:0x27000000,cl
  4060a9:	add    BYTE PTR [eax],al
  4060ab:	add    DWORD PTR [eax+eax*1],eax
  4060ae:	add    BYTE PTR [eax],al
  4060b0:	sbb    al,0x0
  4060b2:	add    BYTE PTR [eax],al
  4060b4:	sub    DWORD PTR [eax],eax
  4060b6:	add    BYTE PTR [eax],al
  4060b8:	inc    ebp
  4060b9:	add    BYTE PTR [eax],al
  4060bb:	add    BYTE PTR ds:0x27000000,cl
  4060c1:	add    BYTE PTR [eax],al
  4060c3:	add    DWORD PTR [ebx],eax
  4060c5:	xor    BYTE PTR [ebx],al
  4060c7:	add    BYTE PTR [edx+0x0],al
  4060ca:	add    BYTE PTR [eax],al
  4060cc:	jno    0x4060ce
  4060ce:	add    BYTE PTR [ecx],dl
  4060d0:	add    cl,BYTE PTR [edx+0xb]
  4060d3:	pop    es
  4060d4:	sub    al,0x3b
  4060d6:	add    bl,BYTE PTR [edx]
  4060d8:	pop    eax
  4060d9:	dec    edx
  4060da:	or     al,0x7
  4060dc:	or     al,BYTE PTR [esi]
  4060de:	or     BYTE PTR [esi],ch
  4060e0:	clts   
  4060e2:	sub    BYTE PTR [esi],al
  4060e4:	add    DWORD PTR [eax],eax
  4060e6:	push   es
  4060e7:	push   es
  4060e8:	pop    ds
  4060e9:	je     0x406143
  4060eb:	or     al,BYTE PTR [esi]
  4060ed:	or     BYTE PTR [ebx],dh
  4060ef:	icebp  
  4060f0:	add    cl,BYTE PTR [edx+0xb]
  4060f3:	pop    es
  4060f4:	add    bl,BYTE PTR [esi]
  4060f6:	pop    eax
  4060f7:	dec    edx
  4060f8:	pop    es
  4060f9:	pop    ecx
  4060fa:	pop    ds
  4060fb:	je     0x406158
  4060fd:	pop    ds
  4060fe:	je     0x406128
  406100:	add    eax,0x2060000
  406105:	push   ss
  406106:	push   esp
  406107:	add    bl,BYTE PTR [edx]
  406109:	pop    eax
  40610a:	push   ss
  40610b:	push   esp
  40610c:	add    bl,BYTE PTR [esi]
  40610e:	pop    eax
  40610f:	push   ss
  406110:	push   esp
  406111:	sub    cl,ah
  406113:	int3   
  406114:	or     esi,DWORD PTR [eax]
  406116:	push   es
  406117:	add    BYTE PTR [ebx],dl
  406119:	add    DWORD PTR [eax],eax
  40611b:	add    BYTE PTR [esi+0x0],dh
  40611e:	add    BYTE PTR [ecx],dl
  406120:	jle    0x40612c
  406122:	add    DWORD PTR [eax],eax
  406124:	add    al,0x4a
  406126:	sub    BYTE PTR [esi+0x1],bl
  406129:	add    BYTE PTR [esi],al
  40612b:	or     al,BYTE PTR [edx]
  40612d:	and    BYTE PTR [eax+eax*1+0x4a580000],dl
  406134:	or     al,0x8
  406136:	sub    al,0x13
  406138:	push   es
  406139:	sub    al,0x10
  40613b:	push   es
  40613c:	or     BYTE PTR [eax],ch
  40613e:	dec    ecx
  40613f:	add    DWORD PTR [eax],eax
  406141:	push   es
  406142:	add    ah,BYTE PTR [eax]
  406144:	xchg   esp,eax
  406145:	add    BYTE PTR [eax],al
  406147:	add    BYTE PTR [eax+0x16],bl
  40614a:	push   esp
  40614b:	adc    al,BYTE PTR ds:0x572803
  406151:	add    BYTE PTR [esi],al
  406153:	sub    BYTE PTR es:[edx+0x1],cl
  406157:	add    BYTE PTR [esi],al
  406159:	adc    al,BYTE PTR ds:0x14828
  40615f:	push   es
  406160:	fimul  WORD PTR es:[esi]
  406163:	inc    BYTE PTR [esi]
  406165:	push   ebp
  406166:	add    BYTE PTR [eax],al
  406168:	push   es
  406169:	adc    al,BYTE PTR ds:0xea28
  40616f:	push   es
  406170:	fadd   QWORD PTR [eax]
  406172:	adc    al,BYTE PTR ds:0x65281617
  406178:	add    BYTE PTR [eax],al
  40617a:	push   es
  40617b:	fimul  WORD PTR [esi]
  40617d:	inc    BYTE PTR [esi]
  40617f:	pop    ebx
  406180:	add    BYTE PTR [eax],al
  406182:	push   es
  406183:	adc    al,BYTE PTR ds:0xea28
  406189:	push   es
  40618a:	fcom   QWORD PTR [edx]
  40618c:	add    al,0x3
  40618e:	sub    BYTE PTR [edi+0x0],dl
  406191:	add    BYTE PTR [esi],al
  406193:	sub    BYTE PTR es:[edx+0x1],cl
  406197:	add    BYTE PTR [esi],al
  406199:	adc    al,BYTE PTR [eax+ebp*1]
  40619c:	inc    edi
  40619d:	add    DWORD PTR [eax],eax
  40619f:	push   es
  4061a0:	or     ebx,esi
  4061a2:	push   cs
  4061a3:	inc    BYTE PTR [esi]
  4061a5:	push   ebp
  4061a6:	add    BYTE PTR [eax],al
  4061a8:	push   es
  4061a9:	adc    al,BYTE PTR [eax+ebp*1]
  4061ac:	jmp    0x1200:0xdc060000
  4061b3:	add    al,0x17
  4061b5:	push   ss
  4061b6:	sub    BYTE PTR [ebp+0x0],ah
  4061b9:	add    BYTE PTR [esi],al
  4061bb:	fimul  WORD PTR [esi]
  4061bd:	inc    BYTE PTR [esi]
  4061bf:	pop    ebx
  4061c0:	add    BYTE PTR [eax],al
  4061c2:	push   es
  4061c3:	adc    al,BYTE PTR [eax+ebp*1]
  4061c6:	jmp    0x312:0xdc060000
  4061cd:	pop    es
  4061ce:	jg     0x4061ee
  4061d0:	add    BYTE PTR [eax],al
  4061d2:	add    al,0x7f
  4061d4:	sbb    eax,0x7040000
  4061d9:	dec    edx
  4061da:	pop    ds
  4061db:	adc    al,0x58
  4061dd:	dec    edx
  4061de:	sub    DWORD PTR [ecx],ecx
  4061e0:	add    BYTE PTR [eax],al
  4061e2:	adc    DWORD PTR [eax],ebp
  4061e4:	push   edi
  4061e5:	add    BYTE PTR [eax],al
  4061e7:	push   es
  4061e8:	adc    al,BYTE PTR es:[ebx]
  4061eb:	pop    ds
  4061ec:	adc    BYTE PTR [eax+0x4a],bl
  4061ef:	push   ss
  4061f0:	adc    BYTE PTR ss:[edx],al
  4061f3:	and    BYTE PTR [eax+eax*1+0x6580000],dl
  4061fa:	adc    al,BYTE PTR [ebx]
  4061fc:	sub    BYTE PTR [esi+0x1],al
  4061ff:	add    BYTE PTR [esi],al
  406201:	push   esp
  406202:	add    ch,BYTE PTR [eax]
  406204:	daa    
  406205:	add    BYTE PTR [eax],al
  406207:	push   es
  406208:	fimul  WORD PTR [esi]
  40620a:	inc    BYTE PTR [esi]
  40620c:	push   ebp
  40620d:	add    BYTE PTR [eax],al
  40620f:	push   es
  406210:	adc    al,BYTE PTR [ebx]
  406212:	sub    dl,ch
  406214:	add    BYTE PTR [eax],al
  406216:	push   es
  406217:	fadd   QWORD PTR [eax]
  406219:	adc    al,BYTE PTR [ebx]
  40621b:	pop    ss
  40621c:	push   ss
  40621d:	sub    BYTE PTR [ebp+0x0],ah
  406220:	add    BYTE PTR [esi],al
  406222:	fimul  WORD PTR [esi]
  406224:	inc    BYTE PTR [esi]
  406226:	pop    ebx
  406227:	add    BYTE PTR [eax],al
  406229:	push   es
  40622a:	adc    al,BYTE PTR [ebx]
  40622c:	sub    dl,ch
  40622e:	add    BYTE PTR [eax],al
  406230:	push   es
  406231:	fsubr  QWORD PTR [edx]
  406233:	add    BYTE PTR [ecx-0x6c],al
  406236:	add    BYTE PTR [eax],al
  406238:	add    al,0x0
  40623a:	add    BYTE PTR [eax],al
  40623c:	xor    al,0x0
  40623e:	add    BYTE PTR [eax],al
  406240:	sldt   WORD PTR [eax]
  406243:	add    BYTE PTR [ebx+0x0],al
  406246:	add    BYTE PTR [eax],al
  406248:	push   cs
  406249:	add    BYTE PTR [eax],al
  40624b:	add    BYTE PTR [edi],ah
  40624d:	add    BYTE PTR [eax],al
  40624f:	add    DWORD PTR [eax+eax*1],eax
  406252:	add    BYTE PTR [eax],al
  406254:	push   edx
  406255:	add    BYTE PTR [eax],al
  406257:	add    BYTE PTR [ebx],cl
  406259:	add    BYTE PTR [eax],al
  40625b:	add    BYTE PTR [ebp+0x0],bl
  40625e:	add    BYTE PTR [eax],al
  406260:	push   cs
  406261:	add    BYTE PTR [eax],al
  406263:	add    BYTE PTR [edi],ah
  406265:	add    BYTE PTR [eax],al
  406267:	add    DWORD PTR [eax+eax*1],eax
  40626a:	add    BYTE PTR [eax],al
  40626c:	je     0x40626e
  40626e:	add    BYTE PTR [eax],al
  406270:	sldt   WORD PTR [eax]
  406273:	add    BYTE PTR [ebx+0xe000000],al
  406279:	add    BYTE PTR [eax],al
  40627b:	add    BYTE PTR [edi],ah
  40627d:	add    BYTE PTR [eax],al
  40627f:	add    DWORD PTR [eax+eax*1],eax
  406282:	add    BYTE PTR [eax],al
  406284:	xchg   edx,eax
  406285:	add    BYTE PTR [eax],al
  406287:	add    BYTE PTR [ebx],cl
  406289:	add    BYTE PTR [eax],al
  40628b:	add    BYTE PTR [ebp+0xe000000],bl
  406291:	add    BYTE PTR [eax],al
  406293:	add    BYTE PTR [edi],ah
  406295:	add    BYTE PTR [eax],al
  406297:	add    DWORD PTR [eax+eax*1],eax
  40629a:	add    BYTE PTR [eax],al
  40629c:	leave  
  40629d:	add    BYTE PTR [eax],al
  40629f:	add    BYTE PTR [ecx],ah
  4062a1:	add    BYTE PTR [eax],al
  4062a3:	add    dl,ch
  4062a5:	add    BYTE PTR [eax],al
  4062a7:	add    BYTE PTR [esi],cl
  4062a9:	add    BYTE PTR [eax],al
  4062ab:	add    BYTE PTR [edi],ah
  4062ad:	add    BYTE PTR [eax],al
  4062af:	add    DWORD PTR [eax+eax*1],eax
  4062b2:	add    BYTE PTR [eax],al
  4062b4:	stc    
  4062b5:	add    BYTE PTR [eax],al
  4062b7:	add    BYTE PTR [ebx],cl
  4062b9:	add    BYTE PTR [eax],al
  4062bb:	add    BYTE PTR [ecx+eax*1],al
  4062be:	add    BYTE PTR [eax],al
  4062c0:	push   cs
  4062c1:	add    BYTE PTR [eax],al
  4062c3:	add    BYTE PTR [edi],ah
  4062c5:	add    BYTE PTR [eax],al
  4062c7:	add    DWORD PTR [ebx],ecx
  4062c9:	xor    BYTE PTR ds:0x1ce00,al
  4062cf:	add    BYTE PTR [eax+0x0],bh
  4062d2:	add    BYTE PTR [ecx],dl
  4062d4:	add    ah,BYTE PTR [eax]
  4062d6:	mov    eax,0x58000000
  4062db:	dec    edx
  4062dc:	or     eax,0x7e112c09
  4062e1:	or     al,BYTE PTR [ecx]
  4062e3:	add    BYTE PTR [edx+ecx*2],al
  4062e6:	pop    ds
  4062e7:	sub    BYTE PTR [eax+0x4a],bl
  4062ea:	or     DWORD PTR [edi],edx
  4062ec:	sub    BYTE PTR [ebp+0x1],al
  4062ef:	add    BYTE PTR [esi],al
  4062f1:	sub    BYTE PTR [edx+0x1],cl
  4062f4:	add    BYTE PTR [esi],al
  4062f6:	add    ah,BYTE PTR [eax]
  4062f8:	mov    eax,0x58000000
  4062fd:	dec    edx
  4062fe:	push   ss
  4062ff:	push   ss
  406300:	sub    BYTE PTR [ebx+0x1],cl
  406303:	add    BYTE PTR [esi],al
  406305:	add    ah,BYTE PTR [eax]
  406307:	mov    eax,0x58000000
  40630c:	push   ss
  40630d:	push   esp
  40630e:	adc    cl,BYTE PTR [ebx]
  406310:	and    al,BYTE PTR [eax]
  406312:	add    BYTE PTR [eax],al
  406314:	add    BYTE PTR [esi+0x12],dl
  406317:	or     ebx,DWORD PTR [edx]
  406319:	pop    eax
  40631a:	and    al,BYTE PTR [eax]
  40631c:	add    BYTE PTR [eax],al
  40631e:	add    BYTE PTR [esi+0x12],dl
  406321:	or     ebx,DWORD PTR [esi]
  406323:	pop    eax
  406324:	and    al,BYTE PTR [eax]
  406326:	add    BYTE PTR [eax],al
  406328:	add    BYTE PTR [esi+0x2],dl
  40632b:	pop    ds
  40632c:	push   0x12080c58
  406331:	or     ebp,DWORD PTR [eax]
  406333:	test   al,0x0
  406335:	add    BYTE PTR [esi],al
  406337:	adc    cl,BYTE PTR [edx]
  406339:	add    ebp,DWORD PTR [eax]
  40633b:	push   edi
  40633c:	add    BYTE PTR [eax],al
  40633e:	push   es
  40633f:	adc    eax,DWORD PTR [esi]
  406341:	add    ah,BYTE PTR [eax]
  406343:	mov    eax,0x58000000
  406348:	sub    BYTE PTR [edx+0x1],cl
  40634b:	add    BYTE PTR [esi],al
  40634d:	adc    DWORD PTR [esi],eax
  40634f:	push   ss
  406350:	pop    ss
  406351:	sub    BYTE PTR [ecx+eax*1+0x0],al
  406355:	push   es
  406356:	push   esp
  406357:	fimul  WORD PTR [esi]
  406359:	inc    BYTE PTR [esi]
  40635b:	push   ebp
  40635c:	add    BYTE PTR [eax],al
  40635e:	push   es
  40635f:	adc    cl,BYTE PTR [edx]
  406361:	sub    dl,ch
  406363:	add    BYTE PTR [eax],al
  406365:	push   es
  406366:	fadd   QWORD PTR [eax]
  406368:	adc    cl,BYTE PTR [edx]
  40636a:	pop    ss
  40636b:	push   ss
  40636c:	sub    BYTE PTR [ebp+0x0],ah
  40636f:	add    BYTE PTR [esi],al
  406371:	fimul  WORD PTR [esi]
  406373:	inc    BYTE PTR [esi]
  406375:	pop    ebx
  406376:	add    BYTE PTR [eax],al
  406378:	push   es
  406379:	adc    cl,BYTE PTR [edx]
  40637b:	sub    dl,ch
  40637d:	add    BYTE PTR [eax],al
  40637f:	push   es
  406380:	fadd   QWORD PTR [edx]
  406382:	add    ebp,DWORD PTR [eax]
  406384:	adc    DWORD PTR [eax],eax
  406386:	add    BYTE PTR [esi],al
  406388:	add    ah,BYTE PTR [eax]
  40638a:	mov    eax,0x58000000
  40638f:	dec    edx
  406390:	or     al,BYTE PTR [esi]
  406392:	cmp    eax,eax
  406394:	add    BYTE PTR [eax],al
  406396:	add    BYTE PTR [edi+0x9],bh
  406399:	add    DWORD PTR [eax],eax
  40639b:	add    al,0x4a
  40639d:	adc    eax,DWORD PTR ds:0x4a4a2506
  4063a3:	sub    DWORD PTR [eax],ecx
  4063a5:	add    BYTE PTR [eax],al
  4063a7:	adc    DWORD PTR [ecx],edx
  4063a9:	add    eax,0x14328
  4063ae:	push   es
  4063af:	cmp    DWORD PTR [ebx+0x2000000],esp
  4063b5:	and    BYTE PTR [eax+0x58000000],bh
  4063bb:	dec    edx
  4063bc:	sub    BYTE PTR [ecx+eax*1],al
  4063bf:	add    BYTE PTR [esi],al
  4063c1:	sub    BYTE PTR [ecx+0x1],al
  4063c4:	add    BYTE PTR [esi],al
  4063c6:	sub    BYTE PTR [edx+0x1],al
  4063c9:	add    BYTE PTR [esi],al
  4063cb:	add    ah,BYTE PTR es:[eax]
  4063ce:	mov    eax,0x58000000
  4063d3:	dec    edx
  4063d4:	sub    BYTE PTR [ecx+eax*1],al
  4063d7:	add    BYTE PTR [esi],al
  4063d9:	sub    BYTE PTR [ecx+0x1],al
  4063dc:	add    BYTE PTR [esi],al
  4063de:	sub    BYTE PTR [eax+0x1],al
  4063e1:	add    BYTE PTR [esi],al
  4063e3:	adc    eax,DWORD PTR [edx+eax*1]
  4063e6:	and    BYTE PTR [eax+0x58000001],al
  4063ec:	adc    DWORD PTR [edi+ebx*1],eax
  4063ef:	sbb    dh,bh
  4063f1:	pop    ss
  4063f2:	add    ah,BYTE PTR [eax]
  4063f4:	mov    eax,0x58000000
  4063f9:	dec    edx
  4063fa:	or     cl,BYTE PTR [eax]
  4063fc:	push   es
  4063fd:	adc    cl,BYTE PTR [ecx]
  4063ff:	push   es
  406400:	dec    edx
  406401:	pop    ds
  406402:	js     0x40645c
  406404:	dec    edx
  406405:	sub    DWORD PTR [edi],eax
  406407:	add    BYTE PTR [eax],al
  406409:	adc    DWORD PTR [eax],ebp
  40640b:	test   al,0x0
  40640d:	add    BYTE PTR [esi],al
  40640f:	jle    0x40641b
  406411:	add    DWORD PTR [eax],eax
  406413:	add    al,0x4a
  406415:	pop    ds
  406416:	sub    BYTE PTR [eax+0x4a],bl
  406419:	add    ah,BYTE PTR [eax]
  40641b:	mov    eax,0x58000000
  406420:	dec    edx
  406421:	adc    cl,BYTE PTR [eax]
  406423:	add    bl,BYTE PTR [edi]
  406425:	sbb    al,0x58
  406427:	dec    edx
  406428:	sub    BYTE PTR [esi],bh
  40642a:	add    DWORD PTR [eax],eax
  40642c:	push   es
  40642d:	pop    ss
  40642e:	sub    BYTE PTR [edi],bh
  406430:	add    DWORD PTR [eax],eax
  406432:	push   es
  406433:	add    bl,BYTE PTR es:[edi]
  406436:	gs pop eax
  406438:	inc    edi
  406439:	sub    al,0x6
  40643b:	add    ch,BYTE PTR [eax]
  40643d:	xor    DWORD PTR [eax],eax
  40643f:	add    BYTE PTR [esi],al
  406441:	add    edx,DWORD PTR [edx]
  406443:	pop    es
  406444:	sub    BYTE PTR [ecx],cl
  406446:	add    BYTE PTR [eax],al
  406448:	push   es
  406449:	add    bl,BYTE PTR [edi]
  40644b:	dec    esp
  40644c:	pop    eax
  40644d:	adc    al,BYTE PTR [edi]
  40644f:	sub    BYTE PTR [ebx+0x0],dl
  406452:	add    BYTE PTR [esi],al
  406454:	sub    ecx,DWORD PTR es:[edx+0x28]
  406458:	dec    edx
  406459:	add    DWORD PTR [eax],eax
  40645b:	push   es
  40645c:	add    ah,BYTE PTR [eax]
  40645e:	mov    eax,0x58000000
  406463:	dec    edx
  406464:	push   ss
  406465:	push   ss
  406466:	sub    BYTE PTR [ebx+0x1],cl
  406469:	add    BYTE PTR [esi],al
  40646b:	add    ah,BYTE PTR [eax]
  40646d:	mov    eax,0x58000000
  406472:	push   ss
  406473:	push   esp
  406474:	push   ss
  406475:	jg     0x406497
  406477:	add    BYTE PTR [eax],al
  406479:	add    al,0x7f
  40647b:	pop    ds
  40647c:	add    BYTE PTR [eax],al
  40647e:	add    al,0x16
  406480:	sub    BYTE PTR [eax+0x1],ah
  406483:	add    BYTE PTR [esi],al
  406485:	add    bl,BYTE PTR es:[edi]
  406488:	dec    esp
  406489:	pop    eax
  40648a:	or     eax,DWORD PTR [edi]
  40648c:	pop    ds
  40648d:	adc    BYTE PTR [eax+0x16],bl
  406490:	push   esp
  406491:	pop    ds
  406492:	adc    BYTE PTR [edi],al
  406494:	pop    ds
  406495:	adc    al,0x58
  406497:	dec    edx
  406498:	xor    eax,0x2b4a0704
  40649d:	add    DWORD PTR [edi],eax
  40649f:	push   ss
  4064a0:	push   edx
  4064a1:	sub    al,BYTE PTR [eax]
  4064a3:	add    BYTE PTR [ecx+0x34],al
  4064a6:	add    BYTE PTR [eax],al
  4064a8:	add    al,0x0
  4064aa:	add    BYTE PTR [eax],al
  4064ac:	ins    DWORD PTR es:[edi],dx
  4064ad:	add    BYTE PTR [eax],al
  4064af:	add    BYTE PTR [eax],bl
  4064b1:	add    BYTE PTR [eax],al
  4064b3:	add    BYTE PTR [ebp+0xe000000],al
  4064b9:	add    BYTE PTR [eax],al
  4064bb:	add    BYTE PTR [edi],ah
  4064bd:	add    BYTE PTR [eax],al
  4064bf:	add    DWORD PTR [eax+eax*1],eax
  4064c2:	add    BYTE PTR [eax],al
  4064c4:	xchg   esp,eax
  4064c5:	add    BYTE PTR [eax],al
  4064c7:	add    BYTE PTR [ebx],cl
  4064c9:	add    BYTE PTR [eax],al
  4064cb:	add    BYTE PTR [edi+0xe000000],bl
  4064d1:	add    BYTE PTR [eax],al
  4064d3:	add    BYTE PTR [edi],ah
  4064d5:	add    BYTE PTR [eax],al
  4064d7:	add    DWORD PTR [ebx],ecx
  4064d9:	xor    BYTE PTR [ebx],al
  4064db:	add    BYTE PTR [esi],bh
  4064dd:	add    BYTE PTR [eax],al
  4064df:	add    BYTE PTR [edx+0x0],bh
  4064e2:	add    BYTE PTR [ecx],dl
  4064e4:	add    bl,BYTE PTR [edi]
  4064e6:	or     al,0x58
  4064e8:	sub    BYTE PTR [esi+0x0],ch
  4064eb:	add    BYTE PTR [esi],al
  4064ed:	fimul  WORD PTR [edi]
  4064ef:	inc    BYTE PTR [esi]
  4064f1:	pop    ebp
  4064f2:	add    BYTE PTR [eax],al
  4064f4:	push   es
  4064f5:	add    bl,BYTE PTR [edx]
  4064f7:	pop    eax
  4064f8:	sub    dl,ch
  4064fa:	add    BYTE PTR [eax],al
  4064fc:	push   es
  4064fd:	fadd   QWORD PTR [edx]
  4064ff:	sbb    bl,BYTE PTR [eax+0xa]
  406502:	push   es
  406503:	sub    BYTE PTR [ebx+0x0],dh
  406506:	add    BYTE PTR [esi],al
  406508:	fimul  WORD PTR ds:0x6b06fe
  40650e:	add    BYTE PTR [esi],al
  406510:	push   es
  406511:	sub    dl,ch
  406513:	add    BYTE PTR [eax],al
  406515:	push   es
  406516:	fadd   QWORD PTR [esi]
  406518:	dec    edx
  406519:	pop    ss
  40651a:	pop    ds
  40651b:	cmp    al,0x28
  40651d:	add    eax,0x2a060000
  406522:	add    BYTE PTR [eax],al
  406524:	inc    ecx
  406525:	xor    al,0x0
  406527:	add    BYTE PTR [eax+eax*1],al
  40652a:	add    BYTE PTR [eax],al
  40652c:	add    BYTE PTR [eax],al
  40652e:	add    BYTE PTR [eax],al
  406530:	or     eax,DWORD PTR [eax]
  406532:	add    BYTE PTR [eax],al
  406534:	or     eax,DWORD PTR [eax]
  406536:	add    BYTE PTR [eax],al
  406538:	sldt   WORD PTR [eax]
  40653b:	add    BYTE PTR [edi],ah
  40653d:	add    BYTE PTR [eax],al
  40653f:	add    DWORD PTR [eax+eax*1],eax
  406542:	add    BYTE PTR [eax],al
  406544:	push   ds
  406545:	add    BYTE PTR [eax],al
  406547:	add    BYTE PTR [eax],cl
  406549:	add    BYTE PTR [eax],al
  40654b:	add    BYTE PTR [esi],ah
  40654d:	add    BYTE PTR [eax],al
  40654f:	add    BYTE PTR ds:0x27000000,cl
  406555:	add    BYTE PTR [eax],al
  406557:	add    DWORD PTR [ebx],ecx
  406559:	xor    BYTE PTR [ebx],al
  40655b:	add    BYTE PTR ds:0x62000000,ah
  406561:	add    BYTE PTR [eax],al
  406563:	adc    DWORD PTR [ebx],eax
  406565:	push   ds
  406566:	pop    eax
  406567:	or     al,BYTE PTR [esi]
  406569:	pop    ss
  40656a:	push   ss
  40656b:	sub    BYTE PTR [ebp+0x0],ah
  40656e:	add    BYTE PTR [esi],al
  406570:	fimul  WORD PTR ds:0x5b06fe
  406576:	add    BYTE PTR [esi],al
  406578:	push   es
  406579:	sub    dl,ch
  40657b:	add    BYTE PTR [eax],al
  40657d:	push   es
  40657e:	fadd   QWORD PTR [ebx]
  406580:	pop    ss
  406581:	pop    ds
  406582:	and    BYTE PTR [eax],ch
  406584:	add    eax,0x2a060000
  406589:	add    BYTE PTR [eax],al
  40658b:	add    BYTE PTR [ecx+0x1c],al
  40658e:	add    BYTE PTR [eax],al
  406590:	add    al,0x0
  406592:	add    BYTE PTR [eax],al
  406594:	add    al,0x0
  406596:	add    BYTE PTR [eax],al
  406598:	or     al,BYTE PTR [eax]
  40659a:	add    BYTE PTR [eax],al
  40659c:	push   cs
  40659d:	add    BYTE PTR [eax],al
  40659f:	add    BYTE PTR ds:0x27000000,cl
  4065a5:	add    BYTE PTR [eax],al
  4065a7:	add    DWORD PTR [ebx],ecx
  4065a9:	xor    BYTE PTR [eax+eax*1],al
  4065ac:	jmp    0x0:0x7d000000
  4065b3:	adc    DWORD PTR [eax],ebp
  4065b5:	push   0xfe060001
  4065ba:	prefetch BYTE PTR [ebx+edx*1]
  4065be:	add    eax,0x592e0302
  4065c3:	add    al,0xc
  4065c5:	add    al,0x2c
  4065c7:	inc    ebx
  4065c8:	adc    DWORD PTR [edx],ecx
  4065ca:	adc    ecx,DWORD PTR [ecx]
  4065cc:	add    al,0x1f
  4065ce:	adc    BYTE PTR [eax+0x16],bl
  4065d1:	push   esp
  4065d2:	add    al,0x1f
  4065d4:	adc    al,0x58
  4065d6:	push   ss
  4065d7:	push   esp
  4065d8:	fimul  WORD PTR ds:0x6406fe
  4065de:	add    BYTE PTR [esi],al
  4065e0:	or     BYTE PTR [eax],ch
  4065e2:	jmp    0x400:0xdc060000
  4065e9:	push   ss
  4065ea:	push   ss
  4065eb:	sub    BYTE PTR [ebp+0x0],ah
  4065ee:	add    BYTE PTR [esi],al
  4065f0:	add    al,0x2
  4065f2:	sub    BYTE PTR [edx+0x0],ch
  4065f5:	add    BYTE PTR [esi],al
  4065f7:	fimul  WORD PTR ds:0x5b06fe
  4065fd:	add    BYTE PTR [esi],al
  4065ff:	or     BYTE PTR [eax],ch
  406601:	jmp    0x1304:0xdc060000
  406608:	add    al,0x2b
  40660a:	add    edx,DWORD PTR [esi]
  40660c:	adc    eax,DWORD PTR [esp+eax*1]
  40660f:	pop    ds
  406610:	sbb    BYTE PTR [eax+0x10],bl
  406613:	add    al,BYTE PTR [edx]
  406615:	pop    ds
  406616:	sbb    BYTE PTR [eax+0x10],bl
  406619:	add    BYTE PTR [ebx],ch
  40661b:	mov    ds:0x7bdd,eax
  406620:	add    BYTE PTR [esi],ah
  406622:	sub    BYTE PTR [edx],dl
  406624:	add    BYTE PTR [eax],al
  406626:	or     dl,BYTE PTR [ebx]
  406628:	or     BYTE PTR [eax],ch
  40662a:	adc    DWORD PTR [eax],eax
  40662c:	add    BYTE PTR [edx],cl
  40662e:	push   ss
  40662f:	push   ss
  406630:	push   ss
  406631:	sub    BYTE PTR [ebx+0x1],ch
  406634:	add    BYTE PTR [esi],al
  406636:	(bad)  
  406637:	adc    DWORD PTR [esi],esp
  406639:	push   ss
  40663a:	or     ebp,DWORD PTR [eax]
  40663c:	adc    DWORD PTR [eax],eax
  40663e:	add    BYTE PTR [edx],cl
  406640:	or     DWORD PTR [eax],ebp
  406642:	push   0x1
  406644:	add    BYTE PTR [esi],al
  406646:	adc    DWORD PTR es:[edi],eax
  406649:	adc    eax,DWORD PTR [esi]
  40664b:	adc    DWORD PTR ds:0x2e04060a,eax
  406651:	push   ds
  406652:	push   es
  406653:	pop    ss
  406654:	push   ss
  406655:	sub    BYTE PTR [ebp+0x0],ah
  406658:	add    BYTE PTR [esi],al
  40665a:	fimul  WORD PTR ds:0x5b06fe
  406660:	add    BYTE PTR [esi],al
  406662:	push   es
  406663:	sub    dl,ch
  406665:	add    BYTE PTR [eax],al
  406667:	push   es
  406668:	fadd   QWORD PTR [esi]
  40666a:	pop    ds
  40666b:	sbb    BYTE PTR [eax+0xa],bl
  40666e:	sub    ebx,esi
  406670:	push   ss
  406671:	push   ss
  406672:	sub    BYTE PTR [ecx+eax*1+0x0],ch
  406676:	push   es
  406677:	ficom  WORD PTR [edx]
  406679:	sub    BYTE PTR es:[ecx],dl
  40667c:	add    BYTE PTR [eax],al
  40667e:	or     ch,BYTE PTR [eax]
  406680:	imul   eax,DWORD PTR [ecx],0x70b0600
  406686:	(bad)  
  406687:	adc    DWORD PTR [esi],esp
  406689:	fiadd  WORD PTR [eax]
  40668b:	pop    es
  40668c:	sub    al,0x2
  40668e:	(bad)  
  40668f:	sbb    bl,dh
  406691:	or     BYTE PTR [ecx],cl
  406693:	pop    es
  406694:	sub    BYTE PTR [edi+0x1],ah
  406697:	add    BYTE PTR [esi],al
  406699:	(bad)  
  40669b:	add    BYTE PTR [edx+ebp*1],al
  40669e:	add    BYTE PTR [eax],al
  4066a0:	inc    ecx
  4066a1:	xchg   esp,eax
  4066a2:	add    BYTE PTR [eax],al
  4066a4:	add    al,0x0
  4066a6:	add    BYTE PTR [eax],al
  4066a8:	sbb    BYTE PTR [eax],al
  4066aa:	add    BYTE PTR [eax],al
  4066ac:	push   cs
  4066ad:	add    BYTE PTR [eax],al
  4066af:	add    BYTE PTR [esi],ah
  4066b1:	add    BYTE PTR [eax],al
  4066b3:	add    BYTE PTR ds:0x27000000,cl
  4066b9:	add    BYTE PTR [eax],al
  4066bb:	add    DWORD PTR [eax+eax*1],eax
  4066be:	add    BYTE PTR [eax],al
  4066c0:	xor    al,0x0
  4066c2:	add    BYTE PTR [eax],al
  4066c4:	adc    DWORD PTR [eax],eax
  4066c6:	add    BYTE PTR [eax],al
  4066c8:	inc    ebp
  4066c9:	add    BYTE PTR [eax],al
  4066cb:	add    BYTE PTR ds:0x27000000,cl
  4066d1:	add    BYTE PTR [eax],al
  4066d3:	add    DWORD PTR [eax+eax*1],eax
  4066d6:	add    BYTE PTR [eax],al
  4066d8:	sahf   
  4066d9:	add    BYTE PTR [eax],al
  4066db:	add    BYTE PTR [edx],cl
  4066dd:	add    BYTE PTR [eax],al
  4066df:	add    BYTE PTR [eax+0xd000000],ch
  4066e5:	add    BYTE PTR [eax],al
  4066e7:	add    BYTE PTR [edi],ah
  4066e9:	add    BYTE PTR [eax],al
  4066eb:	add    DWORD PTR [ecx],eax
  4066ed:	add    BYTE PTR [eax],al
  4066ef:	add    BYTE PTR [ebx+0x32000000],dl
  4066f5:	add    BYTE PTR [eax],al
  4066f7:	add    ah,dl
  4066f9:	add    BYTE PTR [eax],al
  4066fb:	add    BYTE PTR [ebx],al
  4066fd:	add    BYTE PTR [eax],al
  4066ff:	add    ch,al
  406701:	add    BYTE PTR [eax],al
  406703:	add    BYTE PTR [edx],al
  406705:	add    BYTE PTR [eax],al
  406707:	add    BYTE PTR [ebx+0x4b000000],dl
  40670d:	add    BYTE PTR [eax],al
  40670f:	add    dh,bl
  406711:	add    BYTE PTR [eax],al
  406713:	add    BYTE PTR [eax],cl
  406715:	add    BYTE PTR [eax],al
  406717:	add    BYTE PTR [edi],ah
  406719:	add    BYTE PTR [eax],al
  40671b:	add    DWORD PTR [ecx],eax
  40671d:	add    BYTE PTR [eax],al
  40671f:	add    BYTE PTR [ebx],cl
  406721:	add    BYTE PTR [eax],al
  406723:	add    BYTE PTR [edx+0x0],ah
  406726:	add    BYTE PTR [eax],al
  406728:	test   BYTE PTR [eax],al
  40672a:	add    BYTE PTR [eax],al
  40672c:	add    BYTE PTR fs:[eax],al
  40672f:	add    BYTE PTR [ebp+0x0],ch
  406732:	add    BYTE PTR [eax],al
  406734:	add    esi,DWORD PTR [eax]
  406736:	add    DWORD PTR [eax],eax
  406738:	pop    es
  406739:	add    BYTE PTR [eax],al
  40673b:	add    BYTE PTR [eax],al
  40673d:	add    BYTE PTR [eax],al
  40673f:	add    BYTE PTR [edx],al
  406741:	sub    BYTE PTR [esi+0x0],bl
  406744:	add    BYTE PTR [esi],al
  406746:	sub    al,BYTE PTR [eax]
  406748:	add    esi,DWORD PTR [eax]
  40674a:	add    al,BYTE PTR [eax]
  40674c:	sub    eax,0x7f000000
  406751:	add    BYTE PTR [eax],al
  406753:	adc    DWORD PTR [edx],eax
  406755:	dec    edx
  406756:	or     eax,0x90a4a09
  40675b:	and    eax,0xc4a0254
  406760:	or     BYTE PTR [edx],bl
  406762:	pop    eax
  406763:	or     BYTE PTR [edx+eax*1+0x1a],dl
  406767:	pop    eax
  406768:	push   ss
  406769:	push   esp
  40676a:	push   es
  40676b:	add    cl,BYTE PTR [edx+0x2e]
  40676e:	adc    DWORD PTR [esi],eax
  406770:	dec    edx
  406771:	or     eax,DWORD PTR [edx]
  406773:	push   es
  406774:	sub    BYTE PTR [edx+0x0],dh
  406777:	add    BYTE PTR [esi],al
  406779:	pop    es
  40677a:	or     al,BYTE PTR [edi]
  40677c:	add    cl,BYTE PTR [edx+0x33]
  40677f:	out    dx,eax
  406780:	sub    al,BYTE PTR [eax]
  406782:	add    BYTE PTR [eax],al
  406784:	or     esi,DWORD PTR [eax]
  406786:	add    al,0x0
  406788:	xchg   edi,eax
  406789:	add    BYTE PTR [eax],al
  40678b:	add    BYTE PTR [eax+0x28110000],al
  406791:	push   0xfe060001
  406796:	movlps QWORD PTR [edx+eax*1],xmm0
  40679a:	add    eax,DWORD PTR [eax+ebp*1]
  40679d:	je     0x40679f
  40679f:	add    BYTE PTR [esi],al
  4067a1:	or     al,0x8
  4067a3:	push   ds
  4067a4:	pop    eax
  4067a5:	or     eax,DWORD PTR [edi]
  4067a7:	adc    eax,DWORD PTR ds:0x70a2c07
  4067ad:	add    eax,0x5928
  4067b2:	push   es
  4067b3:	or     eax,0xd16022b
  4067b8:	or     DWORD PTR [ebx],edx
  4067ba:	pop    es
  4067bb:	fimul  WORD PTR [ecx]
  4067bd:	adc    DWORD PTR ds:0x32807,eax
  4067c3:	add    BYTE PTR [esi],al
  4067c5:	(bad)  
  4067c7:	pop    ebp
  4067c8:	sub    BYTE PTR es:[edx],dl
  4067cb:	add    BYTE PTR [eax],al
  4067cd:	or     dl,BYTE PTR [ebx]
  4067cf:	push   es
  4067d0:	sub    BYTE PTR [ecx],dl
  4067d2:	add    BYTE PTR [eax],al
  4067d4:	or     dl,BYTE PTR [esi]
  4067d6:	push   ss
  4067d7:	push   ss
  4067d8:	sub    BYTE PTR [ebx+0x1],ch
  4067db:	add    BYTE PTR [esi],al
  4067dd:	(bad)  
  4067de:	adc    DWORD PTR [esi],esp
  4067e0:	push   ss
  4067e1:	or     ch,BYTE PTR [eax]
  4067e3:	adc    DWORD PTR [eax],eax
  4067e5:	add    BYTE PTR [edx],cl
  4067e7:	adc    DWORD PTR [eax+ebp*1],eax
  4067ea:	push   0x1
  4067ec:	add    BYTE PTR [esi],al
  4067ee:	or     BYTE PTR es:[edi],dl
  4067f1:	pop    ds
  4067f2:	and    BYTE PTR [eax],ch
  4067f4:	add    eax,0x16060000
  4067f9:	push   ss
  4067fa:	sub    BYTE PTR [ecx+eax*1+0x0],ch
  4067fe:	push   es
  4067ff:	ficom  WORD PTR [edx]
  406801:	sub    BYTE PTR es:[ecx],dl
  406804:	add    BYTE PTR [eax],al
  406806:	or     ch,BYTE PTR [eax]
  406808:	imul   eax,DWORD PTR [ecx],0x60a0600
  40680e:	(bad)  
  40680f:	adc    DWORD PTR [esi],esp
  406811:	fiadd  WORD PTR [eax]
  406813:	push   es
  406814:	sub    al,0x2
  406816:	(bad)  
  406817:	sbb    bl,dh
  406819:	or     DWORD PTR [ecx],edx
  40681b:	add    al,0x6
  40681d:	sub    BYTE PTR [edi+0x1],ah
  406820:	add    BYTE PTR [esi],al
  406822:	(bad)  
  406824:	add    BYTE PTR [eax],cl
  406826:	sub    al,BYTE PTR [eax]
  406828:	inc    ecx
  406829:	add    BYTE PTR fs:[eax],al
  40682c:	add    al,0x0
  40682e:	add    BYTE PTR [eax],al
  406830:	sbb    DWORD PTR [eax],eax
  406832:	add    BYTE PTR [eax],al
  406834:	adc    al,0x0
  406836:	add    BYTE PTR [eax],al
  406838:	sub    eax,0x9000000
  40683d:	add    BYTE PTR [eax],al
  40683f:	add    BYTE PTR [edi],ah
  406841:	add    BYTE PTR [eax],al
  406843:	add    DWORD PTR [ecx],eax
  406845:	add    BYTE PTR [eax],al
  406847:	add    BYTE PTR [edi+0x0],bl
  40684a:	add    BYTE PTR [eax],al
  40684c:	adc    al,BYTE PTR [eax]
  40684e:	add    BYTE PTR [eax],al
  406850:	add    BYTE PTR [eax],0x0
  406853:	add    BYTE PTR [ebx],al
  406855:	add    BYTE PTR [eax],al
  406857:	add    BYTE PTR [ecx+0x0],dh
  40685a:	add    BYTE PTR [eax],al
  40685c:	add    al,BYTE PTR [eax]
  40685e:	add    BYTE PTR [eax],al
  406860:	pop    edi
  406861:	add    BYTE PTR [eax],al
  406863:	add    BYTE PTR [ebx],ch
  406865:	add    BYTE PTR [eax],al
  406867:	add    BYTE PTR [edx+0x9000000],cl
  40686d:	add    BYTE PTR [eax],al
  40686f:	add    BYTE PTR [edi],ah
  406871:	add    BYTE PTR [eax],al
  406873:	add    DWORD PTR [ecx],eax
  406875:	add    BYTE PTR [eax],al
  406877:	add    BYTE PTR [edx],dl
  406879:	add    BYTE PTR [eax],al
  40687b:	add    BYTE PTR [esi],ah
  40687d:	add    BYTE PTR [eax],al
  40687f:	add    BYTE PTR [edi+0x0],cl
  406882:	add    BYTE PTR [eax],al
  406884:	inc    esi
  406885:	add    BYTE PTR [eax],al
  406887:	add    BYTE PTR [eax],bh
  406889:	add    BYTE PTR [eax],al
  40688b:	add    BYTE PTR [ebx],al
  40688d:	xor    BYTE PTR [ebx],al
  40688f:	add    BYTE PTR ds:0x0,dl
  406895:	add    BYTE PTR [eax],al
  406897:	add    BYTE PTR [edx],al
  406899:	add    ebp,DWORD PTR [esi]
  40689b:	lar    edx,WORD PTR [edi]
  40689e:	push   ss
  40689f:	sub    BYTE PTR [ebp+0x0],ah
  4068a2:	add    BYTE PTR [esi],al
  4068a4:	add    al,BYTE PTR [ebx]
  4068a6:	sub    BYTE PTR [edx+0x0],ch
  4068a9:	add    BYTE PTR [esi],al
  4068ab:	add    ch,BYTE PTR [edx]
  4068ad:	add    BYTE PTR [eax],al
  4068af:	add    BYTE PTR [ebx],al
  4068b1:	xor    BYTE PTR [esi],al
  4068b3:	add    BYTE PTR [eax+eax*1],bl
  4068b6:	add    BYTE PTR [eax],al
  4068b8:	add    DWORD PTR [eax],0x2121100
  4068be:	push   ss
  4068bf:	pop    ss
  4068c0:	(bad)  
  4068c1:	sbb    BYTE PTR [edx],dl
  4068c3:	add    BYTE PTR [edx],dl
  4068c5:	add    dl,BYTE PTR [edi]
  4068c7:	(bad)  
  4068c8:	adc    al,BYTE PTR [ecx]
  4068ca:	(bad)  
  4068cb:	pop    ss
  4068cc:	add    al,BYTE PTR [ebx]
  4068ce:	add    al,0x5
  4068d0:	push   es
  4068d1:	pop    es
  4068d2:	sub    BYTE PTR [ebx+0x0],bh
  4068d5:	add    BYTE PTR [esi],al
  4068d7:	sub    cl,BYTE PTR [ebx]
  4068d9:	xor    BYTE PTR [ebx],al
  4068db:	add    BYTE PTR [ebx],dh
  4068dd:	add    BYTE PTR [eax],al
  4068df:	add    BYTE PTR [edx+0x2110000],al
  4068e5:	sbb    bl,BYTE PTR [eax+0x4a]
  4068e8:	or     eax,DWORD PTR [edx]
  4068ea:	dec    edx
  4068eb:	or     al,BYTE PTR [esi]
  4068ed:	pop    es
  4068ee:	and    BYTE PTR cs:[esi],al
  4068f1:	pop    ss
  4068f2:	push   ss
  4068f3:	sub    BYTE PTR [ebp+0x0],ah
  4068f6:	add    BYTE PTR [esi],al
  4068f8:	fimul  WORD PTR ds:0x5b06fe
  4068fe:	add    BYTE PTR [esi],al
  406900:	push   es
  406901:	sub    dl,ch
  406903:	add    BYTE PTR [eax],al
  406905:	push   es
  406906:	fadd   QWORD PTR [esi]
  406908:	pop    ds
  406909:	sbb    BYTE PTR [eax+0xa],bl
  40690c:	push   es
  40690d:	pop    es
  40690e:	xor    esp,eax
  406910:	add    bl,BYTE PTR [edx]
  406912:	pop    eax
  406913:	add    cl,BYTE PTR [edx+0x54]
  406916:	sub    al,BYTE PTR [eax]
  406918:	inc    ecx
  406919:	sbb    al,0x0
  40691b:	add    BYTE PTR [eax+eax*1],al
  40691e:	add    BYTE PTR [eax],al
  406920:	or     al,0x0
  406922:	add    BYTE PTR [eax],al
  406924:	or     al,BYTE PTR [eax]
  406926:	add    BYTE PTR [eax],al
  406928:	push   ss
  406929:	add    BYTE PTR [eax],al
  40692b:	add    BYTE PTR ds:0x27000000,cl
  406931:	add    BYTE PTR [eax],al
  406933:	add    DWORD PTR [ebx],ecx
  406935:	xor    BYTE PTR [ebx],al
  406937:	add    BYTE PTR [ebx+0x0],dl
  40693a:	add    BYTE PTR [eax],al
  40693c:	add    DWORD PTR [eax],0x0
  40693f:	adc    DWORD PTR [edx],eax
  406941:	dec    edx
  406942:	or     eax,DWORD PTR [edi]
  406944:	sub    al,0x4c
  406946:	add    bl,BYTE PTR [edx]
  406948:	pop    eax
  406949:	dec    edx
  40694a:	or     al,0x7
  40694c:	or     al,BYTE PTR [esi]
  40694e:	or     BYTE PTR [esi],ch
  406950:	and    BYTE PTR [esi],al
  406952:	pop    ss
  406953:	push   ss
  406954:	sub    BYTE PTR [ebp+0x0],ah
  406957:	add    BYTE PTR [esi],al
  406959:	fimul  WORD PTR ds:0x5b06fe
  40695f:	add    BYTE PTR [esi],al
  406961:	push   es
  406962:	sub    dl,ch
  406964:	add    BYTE PTR [eax],al
  406966:	push   es
  406967:	fadd   QWORD PTR [esi]
  406969:	pop    ds
  40696a:	sbb    BYTE PTR [eax+0xa],bl
  40696d:	push   es
  40696e:	or     BYTE PTR [ebx],dh
  406970:	loopne 0x406974
  406972:	dec    edx
  406973:	or     eax,DWORD PTR [edi]
  406975:	add    bl,BYTE PTR [esi]
  406977:	pop    eax
  406978:	dec    edx
  406979:	pop    es
  40697a:	pop    ecx
  40697b:	pop    ds
  40697c:	sbb    BYTE PTR [ebx+0x1f],bl
  40697f:	sbb    BYTE PTR [eax],ch
  406981:	add    eax,0x2060000
  406986:	push   ss
  406987:	push   esp
  406988:	add    bl,BYTE PTR [edx]
  40698a:	pop    eax
  40698b:	push   ss
  40698c:	push   esp
  40698d:	add    bl,BYTE PTR [esi]
  40698f:	pop    eax
  406990:	push   ss
  406991:	push   esp
  406992:	sub    al,BYTE PTR [eax]
  406994:	inc    ecx
  406995:	sbb    al,0x0
  406997:	add    BYTE PTR [eax+eax*1],al
  40699a:	add    BYTE PTR [eax],al
  40699c:	adc    DWORD PTR [eax],eax
  40699e:	add    BYTE PTR [eax],al
  4069a0:	or     al,BYTE PTR [eax]
  4069a2:	add    BYTE PTR [eax],al
  4069a4:	sbb    eax,DWORD PTR [eax]
  4069a6:	add    BYTE PTR [eax],al
  4069a8:	or     eax,0x27000000
  4069ad:	add    BYTE PTR [eax],al
  4069af:	add    DWORD PTR [ebx],eax
  4069b1:	xor    BYTE PTR ds:0x3d00,al
  4069b7:	add    BYTE PTR [ebp+0xf110000],al
  4069bd:	add    DWORD PTR [edx+0x1a],ecx
  4069c0:	pop    eax
  4069c1:	or     al,0x8
  4069c3:	add    cl,BYTE PTR [edi]
  4069c5:	add    DWORD PTR [edx+0x8],ecx
  4069c8:	dec    edx
  4069c9:	add    al,0x28
  4069cb:	ja     0x4069cd
  4069cd:	add    BYTE PTR [esi],al
  4069cf:	or     al,BYTE PTR [edx]
  4069d1:	sbb    bl,BYTE PTR [eax+0x4a]
  4069d4:	or     esp,DWORD PTR [eax]
  4069d6:	(bad)  
  4069d7:	(bad)  
  4069d8:	inc    DWORD PTR [edi]
  4069da:	pop    es
  4069db:	pop    ecx
  4069dc:	pop    ss
  4069dd:	xor    al,0xa
  4069df:	jg     0x406a10
  4069e1:	add    BYTE PTR [eax],al
  4069e3:	add    al,0x28
  4069e5:	pop    es
  4069e6:	add    DWORD PTR [eax],eax
  4069e8:	push   es
  4069e9:	add    bl,BYTE PTR [edx]
  4069eb:	pop    eax
  4069ec:	pop    es
  4069ed:	pop    ss
  4069ee:	pop    eax
  4069ef:	push   esp
  4069f0:	push   es
  4069f1:	push   esp
  4069f2:	push   es
  4069f3:	sbb    bl,BYTE PTR [eax+0x4a]
  4069f6:	push   es
  4069f7:	push   esp
  4069f8:	sub    cl,ah
  4069fa:	int3   
  4069fb:	int3   
  4069fc:	or     esi,DWORD PTR [eax]
  4069fe:	add    eax,DWORD PTR [eax]
  406a00:	inc    edi
  406a01:	add    BYTE PTR [eax],al
  406a03:	add    BYTE PTR [edi+0x2110000],al
  406a09:	and    BYTE PTR [eax],al
  406a0b:	or     DWORD PTR [eax],eax
  406a0d:	add    BYTE PTR [eax+0xc],bl
  406a10:	or     BYTE PTR [eax],ch
  406a12:	dec    esp
  406a13:	add    BYTE PTR [eax],al
  406a15:	push   es
  406a16:	ficom  WORD PTR [eax]
  406a18:	inc    BYTE PTR [esi]
  406a1a:	aaa    
  406a1b:	add    BYTE PTR [eax],al
  406a1d:	push   es
  406a1e:	add    bl,BYTE PTR [edi]
  406a20:	adc    BYTE PTR [eax+0x28],bl
  406a23:	jmp    0x1f02:0xdc060000
  406a2a:	adc    BYTE PTR [eax+0xb],bl
  406a2d:	pop    es
  406a2e:	sub    BYTE PTR [esi+0x0],bl
  406a31:	add    BYTE PTR [esi],al
  406a33:	fimul  WORD PTR [edi]
  406a35:	inc    BYTE PTR [esi]
  406a37:	add    BYTE PTR ss:[eax],al
  406a3a:	push   es
  406a3b:	add    bl,BYTE PTR [edx]
  406a3d:	pop    eax
  406a3e:	sub    dl,ch
  406a40:	add    BYTE PTR [eax],al
  406a42:	push   es
  406a43:	fadd   QWORD PTR [edx]
  406a45:	sbb    bl,BYTE PTR [eax+0xa]
  406a48:	push   es
  406a49:	sub    BYTE PTR [edi+0x0],bl
  406a4c:	add    BYTE PTR [esi],al
  406a4e:	sub    al,BYTE PTR [eax]
  406a50:	inc    ecx
  406a51:	xor    al,0x0
  406a53:	add    BYTE PTR [eax+eax*1],al
  406a56:	add    BYTE PTR [eax],al
  406a58:	add    BYTE PTR [eax],al
  406a5a:	add    BYTE PTR [eax],al
  406a5c:	adc    BYTE PTR [eax],al
  406a5e:	add    BYTE PTR [eax],al
  406a60:	adc    BYTE PTR [eax],al
  406a62:	add    BYTE PTR [eax],al
  406a64:	adc    BYTE PTR [eax],al
  406a66:	add    BYTE PTR [eax],al
  406a68:	daa    
  406a69:	add    BYTE PTR [eax],al
  406a6b:	add    DWORD PTR [eax+eax*1],eax
  406a6e:	add    BYTE PTR [eax],al
  406a70:	add    BYTE PTR [eax],al
  406a72:	add    BYTE PTR [eax],al
  406a74:	sub    eax,0x2d000000
  406a79:	add    BYTE PTR [eax],al
  406a7b:	add    BYTE PTR [edi],cl
  406a7d:	add    BYTE PTR [eax],al
  406a7f:	add    BYTE PTR [edi],ah
  406a81:	add    BYTE PTR [eax],al
  406a83:	add    DWORD PTR [ebx],ecx
  406a85:	xor    BYTE PTR [ebx],al
  406a87:	add    BYTE PTR [eax],ah
  406a89:	add    BYTE PTR [eax],al
  406a8b:	add    BYTE PTR [eax],al
  406a8d:	add    BYTE PTR [eax],al
  406a8f:	add    BYTE PTR [edx],al
  406a91:	sub    BYTE PTR [ebp+0x0],ch
  406a94:	add    BYTE PTR [esi],al
  406a96:	fimul  WORD PTR ds:0x5a06fe
  406a9c:	add    BYTE PTR [esi],al
  406a9e:	add    ch,BYTE PTR [eax]
  406aa0:	jmp    0x4a02:0xdc060000
  406aa7:	pop    ss
  406aa8:	pop    ds
  406aa9:	and    BYTE PTR [eax],ch
  406aab:	add    eax,0x2a060000
  406ab0:	inc    ecx
  406ab1:	sbb    al,0x0
  406ab3:	add    BYTE PTR [eax+eax*1],al
  406ab6:	add    BYTE PTR [eax],al
  406ab8:	add    BYTE PTR [eax],al
  406aba:	add    BYTE PTR [eax],al
  406abc:	or     BYTE PTR [eax],al
  406abe:	add    BYTE PTR [eax],al
  406ac0:	or     BYTE PTR [eax],al
  406ac2:	add    BYTE PTR [eax],al
  406ac4:	or     eax,0x27000000
  406ac9:	add    BYTE PTR [eax],al
  406acb:	add    DWORD PTR [ebx],eax
  406acd:	xor    BYTE PTR [ecx],al
  406acf:	add    BYTE PTR [edi],al
  406ad1:	add    BYTE PTR [eax],al
  406ad3:	add    BYTE PTR [eax],al
  406ad5:	add    BYTE PTR [eax],al
  406ad7:	add    BYTE PTR [edx],al
  406ad9:	sub    BYTE PTR [ecx+0x0],ah
  406adc:	add    BYTE PTR [esi],al
  406ade:	sub    al,BYTE PTR [eax]
  406ae0:	or     esi,DWORD PTR [eax]
  406ae2:	add    al,0x0
  406ae4:	mov    ch,0x0
  406ae6:	add    BYTE PTR [eax],al
  406ae8:	mov    DWORD PTR [eax],eax
  406aea:	add    BYTE PTR [ecx],dl
  406aec:	add    bh,BYTE PTR [edi+0x43]
  406aef:	add    BYTE PTR [eax],al
  406af1:	add    al,0x54
  406af3:	add    ah,BYTE PTR [eax]
  406af5:	mov    eax,0x58000000
  406afa:	or     al,0x28
  406afc:	dec    edx
  406afd:	add    DWORD PTR [eax],eax
  406aff:	push   es
  406b00:	or     BYTE PTR [edx+0x16],cl
  406b03:	push   ss
  406b04:	sub    BYTE PTR [ebx+0x1],cl
  406b07:	add    BYTE PTR [esi],al
  406b09:	or     BYTE PTR [esi],dl
  406b0b:	push   esp
  406b0c:	ficom  WORD PTR [eax]
  406b0e:	inc    BYTE PTR [esi]
  406b10:	cmps   BYTE PTR ds:[esi],BYTE PTR es:[edi]
  406b11:	add    BYTE PTR [eax],al
  406b13:	push   es
  406b14:	add    bl,BYTE PTR [edi]
  406b16:	push   0xea2858
  406b1b:	add    BYTE PTR [esi],al
  406b1d:	fadd   QWORD PTR [edx]
  406b1f:	pop    ds
  406b20:	push   0xa62858
  406b25:	add    BYTE PTR [esi],al
  406b27:	ficom  WORD PTR [eax]
  406b29:	inc    BYTE PTR [esi]
  406b2b:	push   ebp
  406b2c:	add    BYTE PTR [eax],al
  406b2e:	push   es
  406b2f:	add    bl,BYTE PTR [edi]
  406b31:	dec    esp
  406b32:	pop    eax
  406b33:	sub    dl,ch
  406b35:	add    BYTE PTR [eax],al
  406b37:	push   es
  406b38:	fadd   QWORD PTR [edx]
  406b3a:	pop    ds
  406b3b:	dec    esp
  406b3c:	pop    eax
  406b3d:	or     eax,DWORD PTR [edi]
  406b3f:	pop    ss
  406b40:	push   ss
  406b41:	sub    BYTE PTR [ebp+0x0],ah
  406b44:	add    BYTE PTR [esi],al
  406b46:	fimul  WORD PTR ds:0x5b06fe
  406b4c:	add    BYTE PTR [esi],al
  406b4e:	pop    es
  406b4f:	sub    dl,ch
  406b51:	add    BYTE PTR [eax],al
  406b53:	push   es
  406b54:	(bad)  
  406b56:	adc    dh,bh
  406b58:	push   es
  406b59:	push   ebp
  406b5a:	add    BYTE PTR [eax],al
  406b5c:	push   es
  406b5d:	add    bl,BYTE PTR [edi]
  406b5f:	xor    al,0x58
  406b61:	sub    dl,ch
  406b63:	add    BYTE PTR [eax],al
  406b65:	push   es
  406b66:	fadd   QWORD PTR [edx]
  406b68:	pop    ds
  406b69:	xor    al,0x58
  406b6b:	or     al,BYTE PTR [esi]
  406b6d:	pop    ss
  406b6e:	push   ss
  406b6f:	sub    BYTE PTR [ebp+0x0],ah
  406b72:	add    BYTE PTR [esi],al
  406b74:	fimul  WORD PTR ds:0x5b06fe
  406b7a:	add    BYTE PTR [esi],al
  406b7c:	push   es
  406b7d:	sub    dl,ch
  406b7f:	add    BYTE PTR [eax],al
  406b81:	push   es
  406b82:	(bad)  
  406b84:	adc    dh,bh
  406b86:	push   es
  406b87:	or     al,0x0
  406b89:	add    BYTE PTR [esi],al
  406b8b:	add    bl,BYTE PTR [edi]
  406b8d:	sub    BYTE PTR [eax+0x28],bl
  406b90:	jmp    0x1f02:0xdc060000
  406b97:	sub    BYTE PTR [eax+0xd],bl
  406b9a:	or     DWORD PTR [eax],ebp
  406b9c:	popa   
  406b9d:	add    BYTE PTR [eax],al
  406b9f:	push   es
  406ba0:	sub    al,BYTE PTR [eax]
  406ba2:	add    BYTE PTR [eax],al
  406ba4:	inc    ecx
  406ba5:	xchg   esp,eax
  406ba6:	add    BYTE PTR [eax],al
  406ba8:	add    al,0x0
  406baa:	add    BYTE PTR [eax],al
  406bac:	pop    es
  406bad:	add    BYTE PTR [eax],al
  406baf:	add    BYTE PTR [ebx],bl
  406bb1:	add    BYTE PTR [eax],al
  406bb3:	add    BYTE PTR [edx],ah
  406bb5:	add    BYTE PTR [eax],al
  406bb7:	add    BYTE PTR [eax],dl
  406bb9:	add    BYTE PTR [eax],al
  406bbb:	add    BYTE PTR [edi],ah
  406bbd:	add    BYTE PTR [eax],al
  406bbf:	add    DWORD PTR [eax+eax*1],eax
  406bc2:	add    BYTE PTR [eax],al
  406bc4:	pop    es
  406bc5:	add    BYTE PTR [eax],al
  406bc7:	add    BYTE PTR [esi],dh
  406bc9:	add    BYTE PTR [eax],al
  406bcb:	add    BYTE PTR ds:0x10000000,bh
  406bd1:	add    BYTE PTR [eax],al
  406bd3:	add    BYTE PTR [edi],ah
  406bd5:	add    BYTE PTR [eax],al
  406bd7:	add    DWORD PTR [eax+eax*1],eax
  406bda:	add    BYTE PTR [eax],al
  406bdc:	push   edx
  406bdd:	add    BYTE PTR [eax],al
  406bdf:	add    BYTE PTR [edx],cl
  406be1:	add    BYTE PTR [eax],al
  406be3:	add    BYTE PTR [eax+eax*1+0x0],bl
  406be7:	add    BYTE PTR ds:0x27000000,cl
  406bed:	add    BYTE PTR [eax],al
  406bef:	add    DWORD PTR [eax+eax*1],eax
  406bf2:	add    BYTE PTR [eax],al
  406bf4:	pop    es
  406bf5:	add    BYTE PTR [eax],al
  406bf7:	add    BYTE PTR [eax+eax*1+0x0],ah
  406bfb:	add    BYTE PTR [ebx+0x0],ch
  406bfe:	add    BYTE PTR [eax],al
  406c00:	adc    BYTE PTR [eax],al
  406c02:	add    BYTE PTR [eax],al
  406c04:	daa    
  406c05:	add    BYTE PTR [eax],al
  406c07:	add    DWORD PTR [eax+eax*1],eax
  406c0a:	add    BYTE PTR [eax],al
  406c0c:	add    BYTE PTR [eax],0x0
  406c0f:	add    BYTE PTR [edx],cl
  406c11:	add    BYTE PTR [eax],al
  406c13:	add    BYTE PTR [edx+0xd000000],cl
  406c19:	add    BYTE PTR [eax],al
  406c1b:	add    BYTE PTR [edi],ah
  406c1d:	add    BYTE PTR [eax],al
  406c1f:	add    DWORD PTR [eax+eax*1],eax
  406c22:	add    BYTE PTR [eax],al
  406c24:	pop    es
  406c25:	add    BYTE PTR [eax],al
  406c27:	add    BYTE PTR [edx-0x67000000],dl
  406c2d:	add    BYTE PTR [eax],al
  406c2f:	add    BYTE PTR [eax],dl
  406c31:	add    BYTE PTR [eax],al
  406c33:	add    BYTE PTR [edi],ah
  406c35:	add    BYTE PTR [eax],al
  406c37:	add    DWORD PTR [ebx],eax
  406c39:	xor    BYTE PTR [ecx],al
  406c3b:	add    BYTE PTR [edi],al
  406c3d:	add    BYTE PTR [eax],al
  406c3f:	add    BYTE PTR [eax],al
  406c41:	add    BYTE PTR [eax],al
  406c43:	add    BYTE PTR [edx],al
  406c45:	sub    BYTE PTR ds:0x2a060000,dh
  406c4b:	add    BYTE PTR [ebx],cl
  406c4d:	xor    BYTE PTR [edi],al
  406c4f:	add    BYTE PTR [ebp+0x1],ch
  406c52:	add    BYTE PTR [eax],al
  406c54:	lea    eax,[eax]
  406c56:	add    BYTE PTR [ecx],dl
  406c58:	add    dl,BYTE PTR [edi]
  406c5a:	sub    BYTE PTR [edx+0x0],al
  406c5d:	add    BYTE PTR [esi],al
  406c5f:	add    ah,BYTE PTR [eax]
  406c61:	test   al,0x0
  406c63:	add    BYTE PTR [eax],al
  406c65:	pop    eax
  406c66:	dec    edx
  406c67:	cmp    DWORD PTR [ecx+0x1],edx
  406c6a:	add    BYTE PTR [eax],al
  406c6c:	jle    0x406c78
  406c6e:	add    DWORD PTR [eax],eax
  406c70:	add    al,0x4a
  406c72:	sub    BYTE PTR [esi+0x1],bl
  406c75:	add    BYTE PTR [esi],al
  406c77:	sub    BYTE PTR [eax],ch
  406c79:	add    DWORD PTR [eax],eax
  406c7b:	push   es
  406c7c:	or     al,BYTE PTR [esi]
  406c7e:	add    ah,BYTE PTR [eax]
  406c80:	test   al,0x0
  406c82:	add    BYTE PTR [eax],al
  406c84:	pop    eax
  406c85:	dec    edx
  406c86:	sub    BYTE PTR ds:0x6060001,ah
  406c8c:	sub    BYTE PTR [ecx+eax*1],ah
  406c8f:	add    BYTE PTR [esi],al
  406c91:	adc    cl,BYTE PTR es:[eax]
  406c94:	and    al,BYTE PTR [eax]
  406c96:	add    BYTE PTR [eax],al
  406c98:	add    BYTE PTR [esi+0x12],dl
  406c9b:	or     BYTE PTR [edx],bl
  406c9d:	pop    eax
  406c9e:	and    al,BYTE PTR [eax]
  406ca0:	add    BYTE PTR [eax],al
  406ca2:	add    BYTE PTR [esi+0x12],dl
  406ca5:	or     BYTE PTR [esi],bl
  406ca7:	pop    eax
  406ca8:	and    al,BYTE PTR [eax]
  406caa:	add    BYTE PTR [eax],al
  406cac:	add    BYTE PTR [esi+0x12],dl
  406caf:	or     BYTE PTR [edi],bl
  406cb1:	or     al,0x58
  406cb3:	and    al,BYTE PTR [eax]
  406cb5:	add    BYTE PTR [eax+0x1206563f],al
  406cbb:	or     BYTE PTR [eax],ch
  406cbd:	and    eax,DWORD PTR [ecx]
  406cbf:	add    BYTE PTR [esi],al
  406cc1:	push   es
  406cc2:	pop    ds
  406cc3:	and    DWORD PTR [edx],esp
  406cc5:	add    BYTE PTR [eax],al
  406cc7:	cmp    BYTE PTR [edi],0x28
  406cca:	and    al,BYTE PTR [ecx]
  406ccc:	add    BYTE PTR [esi],al
  406cce:	adc    al,BYTE PTR [edi]
  406cd0:	sub    BYTE PTR [ecx],ah
  406cd2:	add    DWORD PTR [eax],eax
  406cd4:	push   es
  406cd5:	add    ah,BYTE PTR es:[eax]
  406cd8:	in     al,dx
  406cd9:	add    BYTE PTR [eax],al
  406cdb:	add    BYTE PTR [eax+0xb],bl
  406cde:	pop    es
  406cdf:	sub    BYTE PTR [eax],ah
  406ce1:	add    DWORD PTR [eax],eax
  406ce3:	push   es
  406ce4:	adc    al,BYTE PTR es:[edi]
  406ce7:	push   ss
  406ce8:	sub    BYTE PTR [edi],bl
  406cea:	add    DWORD PTR [eax],eax
  406cec:	push   es
  406ced:	add    ah,BYTE PTR [eax]
  406cef:	mov    esp,0x58000000
  406cf4:	adc    eax,DWORD PTR [edx+edx*1]
  406cf7:	pop    es
  406cf8:	push   ss
  406cf9:	adc    DWORD PTR [eiz*1+0x11e28],eax
  406d00:	push   es
  406d01:	add    ah,BYTE PTR [eax]
  406d03:	cmp    BYTE PTR [ecx],al
  406d05:	add    BYTE PTR [eax],al
  406d07:	pop    eax
  406d08:	or     eax,0x1f020712
  406d0d:	sbb    al,0x58
  406d0f:	dec    edx
  406d10:	pop    es
  406d11:	or     DWORD PTR [edi],eax
  406d13:	adc    al,BYTE PTR [esi]
  406d15:	or     DWORD PTR [eax],ebp
  406d17:	sub    DWORD PTR [ecx],eax
  406d19:	add    BYTE PTR [esi],al
  406d1b:	sub    BYTE PTR ds:0x12060001,bl
  406d21:	add    eax,0x427f
  406d26:	add    al,0x54
  406d28:	adc    al,BYTE PTR ds:0x5416581a
  406d2e:	adc    al,BYTE PTR ds:0x5416581e
  406d34:	adc    al,BYTE PTR ds:0x16580c1f
  406d3a:	push   esp
  406d3b:	add    ah,BYTE PTR [eax]
  406d3d:	mov    eax,0x58000000
  406d42:	dec    edx
  406d43:	or     al,0x8
  406d45:	sub    al,0x8
  406d47:	adc    al,BYTE PTR ds:0x7c2808
  406d4d:	add    BYTE PTR [esi],al
  406d4f:	adc    al,BYTE PTR [edi]
  406d51:	pop    ss
  406d52:	sub    BYTE PTR [ecx+eax*1],bl
  406d55:	add    BYTE PTR [esi],al
  406d57:	add    bl,BYTE PTR [edi]
  406d59:	push   0x2071258
  406d5e:	pop    ds
  406d5f:	sbb    al,0x58
  406d61:	dec    edx
  406d62:	sub    BYTE PTR [ebp+0x12060000],ch
  406d68:	pop    es
  406d69:	push   es
  406d6a:	push   ss
  406d6b:	push   ss
  406d6c:	sub    BYTE PTR [ebx],bl
  406d6e:	add    DWORD PTR [eax],eax
  406d70:	push   es
  406d71:	es push es
  406d73:	sub    BYTE PTR [edx],bl
  406d75:	add    DWORD PTR [eax],eax
  406d77:	push   es
  406d78:	push   es
  406d79:	add    ah,BYTE PTR [eax]
  406d7b:	test   al,0x0
  406d7d:	add    BYTE PTR [eax],al
  406d7f:	pop    eax
  406d80:	dec    edx
  406d81:	sub    BYTE PTR ds:0x6060001,dl
  406d87:	push   ss
  406d88:	sub    BYTE PTR ds:0xde060001,ah
  406d8e:	push   cs
  406d8f:	inc    BYTE PTR [esi]
  406d91:	xor    al,0x0
  406d93:	add    BYTE PTR [esi],al
  406d95:	adc    al,BYTE PTR ds:0xea28
  406d9b:	push   es
  406d9c:	fcom   QWORD PTR [edx]
  406d9e:	add    eax,0x6028581a
  406da3:	add    BYTE PTR [eax],al
  406da5:	push   es
  406da6:	fimul  WORD PTR [esi]
  406da8:	inc    BYTE PTR [esi]
  406daa:	xor    eax,DWORD PTR [eax]
  406dac:	add    BYTE PTR [esi],al
  406dae:	adc    al,BYTE PTR [edi]
  406db0:	sub    dl,ch
  406db2:	add    BYTE PTR [eax],al
  406db4:	push   es
  406db5:	fcom   QWORD PTR [edx]
  406db7:	pop    es
  406db8:	sub    BYTE PTR ds:0x2060000,dh
  406dbe:	push   ss
  406dbf:	sub    BYTE PTR [edx+0x0],al
  406dc2:	add    BYTE PTR [esi],al
  406dc4:	sub    al,BYTE PTR [eax]
  406dc6:	add    BYTE PTR [eax],al
  406dc8:	inc    ecx
  406dc9:	xor    al,0x0
  406dcb:	add    BYTE PTR [eax+eax*1],al
  406dce:	add    BYTE PTR [eax],al
  406dd0:	jecxz  0x406dd2
  406dd2:	add    BYTE PTR [eax],al
  406dd4:	push   esp
  406dd5:	add    BYTE PTR [eax],al
  406dd7:	add    BYTE PTR [edi],dh
  406dd9:	add    DWORD PTR [eax],eax
  406ddb:	add    BYTE PTR [esi],cl
  406ddd:	add    BYTE PTR [eax],al
  406ddf:	add    BYTE PTR [edi],ah
  406de1:	add    BYTE PTR [eax],al
  406de3:	add    DWORD PTR [eax+eax*1],eax
  406de6:	add    BYTE PTR [eax],al
  406de8:	jle    0x406dea
  406dea:	add    BYTE PTR [eax],al
  406dec:	rol    BYTE PTR [eax],cl
  406dee:	add    BYTE PTR [eax],al
  406df0:	push   eax
  406df1:	add    DWORD PTR [eax],eax
  406df3:	add    BYTE PTR [esi],cl
  406df5:	add    BYTE PTR [eax],al
  406df7:	add    BYTE PTR [edi],ah
  406df9:	add    BYTE PTR [eax],al
  406dfb:	add    DWORD PTR [ebx],ecx
  406dfd:	xor    BYTE PTR [edi],al
  406dff:	add    BYTE PTR [ecx+0x1],dl
  406e02:	add    BYTE PTR [eax],al
  406e04:	mov    es,WORD PTR [eax]
  406e06:	add    BYTE PTR [ecx],dl
  406e08:	adc    al,BYTE PTR [edi]
  406e0a:	sub    BYTE PTR [ecx],ah
  406e0c:	add    DWORD PTR [eax],eax
  406e0e:	push   es
  406e0f:	add    ah,BYTE PTR es:[eax]
  406e12:	in     al,dx
  406e13:	add    BYTE PTR [eax],al
  406e15:	add    BYTE PTR [eax+0x28],bl
  406e18:	and    BYTE PTR [ecx],al
  406e1a:	add    BYTE PTR [esi],al
  406e1c:	adc    al,BYTE PTR es:[edi]
  406e1f:	push   ss
  406e20:	sub    BYTE PTR [edi],bl
  406e22:	add    DWORD PTR [eax],eax
  406e24:	push   es
  406e25:	add    ah,BYTE PTR [eax]
  406e27:	mov    esp,0x58000000
  406e2c:	or     eax,0x9160712
  406e31:	and    eax,0x11e28
  406e36:	push   es
  406e37:	add    ah,BYTE PTR [eax]
  406e39:	pop    eax
  406e3a:	add    DWORD PTR [eax],eax
  406e3c:	add    BYTE PTR [eax+0xa],bl
  406e3f:	adc    al,BYTE PTR [edi]
  406e41:	add    bl,BYTE PTR [edi]
  406e43:	sbb    al,0x58
  406e45:	dec    edx
  406e46:	add    ah,BYTE PTR [eax]
  406e48:	in     al,dx
  406e49:	add    BYTE PTR [eax],al
  406e4b:	add    BYTE PTR [eax+0x6],bl
  406e4e:	add    ah,BYTE PTR [eax]
  406e50:	in     al,dx
  406e51:	add    BYTE PTR [eax],al
  406e53:	add    BYTE PTR [eax+0x12],bl
  406e56:	push   es
  406e57:	push   es
  406e58:	sub    BYTE PTR [ecx],ch
  406e5a:	add    DWORD PTR [eax],eax
  406e5c:	push   es
  406e5d:	sub    BYTE PTR ds:0x12060001,bl
  406e63:	add    eax,0x427f
  406e68:	add    al,0x54
  406e6a:	adc    al,BYTE PTR ds:0x5416581a
  406e70:	adc    al,BYTE PTR ds:0x5416581e
  406e76:	adc    al,BYTE PTR ds:0x16580c1f
  406e7c:	push   esp
  406e7d:	add    ah,BYTE PTR [eax]
  406e7f:	mov    eax,0x58000000
  406e84:	dec    edx
  406e85:	or     al,0x8
  406e87:	sub    al,0x8
  406e89:	adc    al,BYTE PTR ds:0x7c2808
  406e8f:	add    BYTE PTR [esi],al
  406e91:	adc    al,BYTE PTR [edi]
  406e93:	pop    ss
  406e94:	sub    BYTE PTR [ecx+eax*1],bl
  406e97:	add    BYTE PTR [esi],al
  406e99:	add    bl,BYTE PTR [edi]
  406e9b:	push   0x12070b58
  406ea0:	pop    es
  406ea1:	add    bl,BYTE PTR [edi]
  406ea3:	sbb    al,0x58
  406ea5:	dec    edx
  406ea6:	sub    BYTE PTR [ebp+0x12060000],ch
  406eac:	pop    es
  406ead:	add    edx,DWORD PTR [esi]
  406eaf:	push   ss
  406eb0:	sub    BYTE PTR [ebx],bl
  406eb2:	add    DWORD PTR [eax],eax
  406eb4:	push   es
  406eb5:	es pop es
  406eb7:	add    eax,DWORD PTR [edx]
  406eb9:	and    ah,ch
  406ebb:	add    BYTE PTR [eax],al
  406ebd:	add    BYTE PTR [eax+0x6],bl
  406ec0:	add    bl,BYTE PTR [edi]
  406ec2:	sbb    al,0x58
  406ec4:	dec    edx
  406ec5:	sub    BYTE PTR [eax+eax*1+0x6030600],ch
  406ecc:	sub    BYTE PTR [edi],ah
  406ece:	add    DWORD PTR [eax],eax
  406ed0:	push   es
  406ed1:	adc    al,BYTE PTR [edx+eiz*1]
  406ed4:	add    BYTE PTR [eax],al
  406ed6:	cmp    BYTE PTR [edi],0x56
  406ed9:	adc    al,BYTE PTR [edx+ebx*1]
  406edc:	pop    eax
  406edd:	and    al,BYTE PTR [eax]
  406edf:	add    BYTE PTR [eax],al
  406ee1:	add    BYTE PTR [esi+0x12],dl
  406ee4:	add    al,0x1e
  406ee6:	pop    eax
  406ee7:	and    al,BYTE PTR [eax]
  406ee9:	add    BYTE PTR [eax],al
  406eeb:	add    BYTE PTR [esi+0x12],dl
  406eee:	add    al,0x1f
  406ef0:	or     al,0x58
  406ef2:	and    al,BYTE PTR [eax]
  406ef4:	add    BYTE PTR [eax+0x1328563f],al
  406efa:	add    DWORD PTR [eax],eax
  406efc:	push   es
  406efd:	add    bl,BYTE PTR [edi]
  406eff:	sbb    al,0x58
  406f01:	dec    edx
  406f02:	add    ah,BYTE PTR [eax]
  406f04:	add    BYTE PTR [ecx],0x0
  406f07:	add    BYTE PTR [eax+0x12],bl
  406f0a:	add    al,0x28
  406f0c:	adc    al,0x1
  406f0e:	add    BYTE PTR [esi],al
  406f10:	sub    BYTE PTR [ebx],dl
  406f12:	add    DWORD PTR [eax],eax
  406f14:	push   es
  406f15:	add    eax,DWORD PTR [edx]
  406f17:	pop    ds
  406f18:	sbb    al,0x58
  406f1a:	dec    edx
  406f1b:	add    ah,BYTE PTR [eax]
  406f1d:	in     al,dx
  406f1e:	add    BYTE PTR [eax],al
  406f20:	add    BYTE PTR [eax+0x6],bl
  406f23:	sub    BYTE PTR [edx],dl
  406f25:	add    DWORD PTR [eax],eax
  406f27:	push   es
  406f28:	fimul  WORD PTR [esi]
  406f2a:	inc    BYTE PTR [esi]
  406f2c:	xor    al,0x0
  406f2e:	add    BYTE PTR [esi],al
  406f30:	adc    al,BYTE PTR ds:0xea28
  406f36:	push   es
  406f37:	fcom   QWORD PTR [edx]
  406f39:	add    eax,0x6028581a
  406f3e:	add    BYTE PTR [eax],al
  406f40:	push   es
  406f41:	fimul  WORD PTR [esi]
  406f43:	inc    BYTE PTR [esi]
  406f45:	xor    eax,DWORD PTR [eax]
  406f47:	add    BYTE PTR [esi],al
  406f49:	adc    al,BYTE PTR [edi]
  406f4b:	sub    dl,ch
  406f4d:	add    BYTE PTR [eax],al
  406f4f:	push   es
  406f50:	fcom   QWORD PTR [edx]
  406f52:	pop    es
  406f53:	sub    BYTE PTR ds:0x2a060000,dh
  406f59:	add    BYTE PTR [eax],al
  406f5b:	add    BYTE PTR [ecx+0x34],al
  406f5e:	add    BYTE PTR [eax],al
  406f60:	add    al,0x0
  406f62:	add    BYTE PTR [eax],al
  406f64:	jne    0x406f66
  406f66:	add    BYTE PTR [eax],al
  406f68:	lods   eax,DWORD PTR ds:[esi]
  406f69:	add    BYTE PTR [eax],al
  406f6b:	add    BYTE PTR [edx],ah
  406f6d:	add    DWORD PTR [eax],eax
  406f6f:	add    BYTE PTR [esi],cl
  406f71:	add    BYTE PTR [eax],al
  406f73:	add    BYTE PTR [edi],ah
  406f75:	add    BYTE PTR [eax],al
  406f77:	add    DWORD PTR [eax+eax*1],eax
  406f7a:	add    BYTE PTR [eax],al
  406f7c:	or     BYTE PTR [eax],al
  406f7e:	add    BYTE PTR [eax],al
  406f80:	xor    eax,DWORD PTR [ecx]
  406f82:	add    BYTE PTR [eax],al
  406f84:	cmp    eax,DWORD PTR [ecx]
  406f86:	add    BYTE PTR [eax],al
  406f88:	push   cs
  406f89:	add    BYTE PTR [eax],al
  406f8b:	add    BYTE PTR [edi],ah
  406f8d:	add    BYTE PTR [eax],al
  406f8f:	add    edi,edi
  406f91:	and    eax,0x430040
  406f96:	int3   
  406f97:	int3   
  406f98:	or     esi,DWORD PTR [eax]
  406f9a:	add    eax,DWORD PTR [eax]
  406f9c:	js     0x406f9e
  406f9e:	add    BYTE PTR [eax],al
  406fa0:	pop    DWORD PTR [eax]
  406fa2:	add    BYTE PTR [ecx],dl
  406fa4:	add    bl,BYTE PTR [edx]
  406fa6:	pop    eax
  406fa7:	dec    edx
  406fa8:	adc    eax,DWORD PTR [esi]
  406faa:	lar    ecx,WORD PTR [edx+0x1f]
  406fae:	sbb    BYTE PTR [eax+0x13],bl
  406fb1:	add    eax,0xc4a020f
  406fb6:	adc    DWORD PTR ds:0x1105110b,eax
  406fbc:	push   es
  406fbd:	cs pop ss
  406fbf:	or     BYTE PTR [edi],al
  406fc1:	sub    BYTE PTR [eax+0x0],bh
  406fc4:	add    BYTE PTR [esi],al
  406fc6:	or     BYTE PTR es:[edi],bl
  406fc9:	sbb    BYTE PTR [eax+0xc],bl
  406fcc:	pop    es
  406fcd:	pop    ds
  406fce:	sbb    BYTE PTR [eax+0xb],bl
  406fd1:	pop    es
  406fd2:	adc    DWORD PTR [esi],eax
  406fd4:	xor    ebp,ecx
  406fd6:	add    bl,BYTE PTR [edx]
  406fd8:	pop    eax
  406fd9:	dec    edx
  406fda:	adc    eax,DWORD PTR [ecx+edx*1]
  406fdd:	add    al,0xd
  406fdf:	adc    DWORD PTR [edi+ebx*1],eax
  406fe2:	sbb    BYTE PTR [ecx+0xa],bl
  406fe5:	push   es
  406fe6:	or     DWORD PTR [esi],ebp
  406fe8:	and    BYTE PTR [esi],al
  406fea:	pop    ss
  406feb:	push   ss
  406fec:	sub    BYTE PTR [ebp+0x0],ah
  406fef:	add    BYTE PTR [esi],al
  406ff1:	fimul  WORD PTR ds:0x5b06fe
  406ff7:	add    BYTE PTR [esi],al
  406ff9:	push   es
  406ffa:	sub    dl,ch
  406ffc:	add    BYTE PTR [eax],al
  406ffe:	push   es
  406fff:	fadd   QWORD PTR [esi]
  407001:	pop    ds
  407002:	sbb    BYTE PTR [eax+0xa],bl
  407005:	push   es
  407006:	or     DWORD PTR [ebx],esi
  407008:	loopne 0x40700c
  40700a:	sbb    bl,BYTE PTR [eax+0x2]
  40700d:	sbb    bl,BYTE PTR [eax+0x4a]
  407010:	pop    ds
  407011:	call   0xf43c46e
  407016:	add    bl,BYTE PTR [edx]
  407018:	(bad)  
  407019:	pop    ss
  40701a:	add    ebp,DWORD PTR [edx]
  40701c:	inc    ecx
  40701d:	sbb    al,0x0
  40701f:	add    BYTE PTR [eax+eax*1],al
  407022:	add    BYTE PTR [eax],al
  407024:	inc    ebp
  407025:	add    BYTE PTR [eax],al
  407027:	add    BYTE PTR [edx],cl
  407029:	add    BYTE PTR [eax],al
  40702b:	add    BYTE PTR [edi+0x0],cl
  40702e:	add    BYTE PTR [eax],al
  407030:	or     eax,0x27000000
  407035:	add    BYTE PTR [eax],al
  407037:	add    DWORD PTR [ebx],ecx
  407039:	xor    BYTE PTR [eax+eax*1],al
  40703c:	stc    
  40703d:	add    BYTE PTR [eax],al
  40703f:	add    BYTE PTR [eax+0x28110000],dl
  407045:	push   0xfe060001
  40704a:	movlps QWORD PTR [esi],xmm0
  40704d:	add    ebx,DWORD PTR [edi]
  40704f:	sbb    BYTE PTR [edi],dl
  407051:	sub    BYTE PTR [eax+eax*1],al
  407054:	add    BYTE PTR [esi],al
  407056:	or     al,BYTE PTR [edx]
  407058:	sbb    bl,BYTE PTR [eax+0x4a]
  40705b:	adc    ecx,DWORD PTR [ecx]
  40705d:	add    cl,BYTE PTR [edx+0x6]
  407060:	adc    ecx,DWORD PTR [eax]
  407062:	push   es
  407063:	adc    ecx,DWORD PTR [ebx]
  407065:	adc    DWORD PTR [ecx],ecx
  407067:	push   es
  407068:	add    ch,BYTE PTR [eax]
  40706a:	jp     0x40706c
  40706c:	add    BYTE PTR [esi],al
  40706e:	adc    ecx,DWORD PTR [eax]
  407070:	ficomp WORD PTR [ebp+0x26]
  407073:	sub    BYTE PTR [edx],dl
  407075:	add    BYTE PTR [eax],al
  407077:	or     dl,BYTE PTR [ebx]
  407079:	or     ch,BYTE PTR [eax]
  40707b:	adc    DWORD PTR [eax],eax
  40707d:	add    BYTE PTR [edx],cl
  40707f:	push   ss
  407080:	push   ss
  407081:	push   ss
  407082:	sub    BYTE PTR [ebx+0x1],ch
  407085:	add    BYTE PTR [esi],al
  407087:	(bad)  
  407088:	adc    DWORD PTR [esi],esp
  40708a:	push   ss
  40708b:	or     eax,0x1128
  407090:	or     dl,BYTE PTR [ecx]
  407092:	push   es
  407093:	sub    BYTE PTR [edx+0x1],ch
  407096:	add    BYTE PTR [esi],al
  407098:	es push es
  40709a:	add    ebx,DWORD PTR [edi]
  40709c:	sbb    BYTE PTR [eax],ch
  40709e:	add    eax,0x16060000
  4070a3:	push   ss
  4070a4:	sub    BYTE PTR [ecx+eax*1+0x0],ch
  4070a8:	push   es
  4070a9:	ficom  WORD PTR [edx]
  4070ab:	sub    BYTE PTR es:[ecx],dl
  4070ae:	add    BYTE PTR [eax],al
  4070b0:	or     ch,BYTE PTR [eax]
  4070b2:	imul   eax,DWORD PTR [ecx],0x90d0600
  4070b8:	(bad)  
  4070b9:	adc    DWORD PTR [esi],esp
  4070bb:	fiadd  WORD PTR [eax]
  4070bd:	or     DWORD PTR [edx+eax*1],ebp
  4070c0:	(bad)  
  4070c1:	sbb    bl,dh
  4070c3:	or     DWORD PTR [ecx],edx
  4070c5:	push   es
  4070c6:	or     DWORD PTR [eax],ebp
  4070c8:	add    DWORD PTR [bx+si],eax
  4070cb:	push   es
  4070cc:	(bad)  
  4070ce:	add    BYTE PTR [edx],al
  4070d0:	sbb    bl,BYTE PTR [eax+0x4a]
  4070d3:	adc    eax,DWORD PTR ds:0x110c4a02
  4070d9:	add    eax,0x181f5908
  4070de:	pop    ebx
  4070df:	adc    eax,DWORD PTR [edi]
  4070e1:	or     BYTE PTR [eax+eax*2],ch
  4070e4:	adc    DWORD PTR ds:0xb080413,eax
  4070ea:	pop    es
  4070eb:	adc    DWORD PTR [esi+ebp*1],eax
  4070ee:	and    DWORD PTR [edi],eax
  4070f0:	pop    ss
  4070f1:	push   ss
  4070f2:	sub    BYTE PTR [ebp+0x0],ah
  4070f5:	add    BYTE PTR [esi],al
  4070f7:	fimul  WORD PTR ds:0x5b06fe
  4070fd:	add    BYTE PTR [esi],al
  4070ff:	pop    es
  407100:	sub    dl,ch
  407102:	add    BYTE PTR [eax],al
  407104:	push   es
  407105:	fadd   QWORD PTR [edi]
  407107:	pop    ds
  407108:	sbb    BYTE PTR [eax+0xb],bl
  40710b:	pop    es
  40710c:	adc    DWORD PTR [ebx+esi*1],eax
  40710f:	fild   WORD PTR [edx]
  407111:	dec    edx
  407112:	or     al,0x8
  407114:	add    bl,BYTE PTR [esi]
  407116:	pop    eax
  407117:	dec    edx
  407118:	or     BYTE PTR [ecx+0x1f],bl
  40711b:	sbb    BYTE PTR [ebx+0x1f],bl
  40711e:	sbb    BYTE PTR [eax],ch
  407120:	add    eax,0x2060000
  407125:	push   ds
  407126:	pop    eax
  407127:	add    ebx,DWORD PTR [edi]
  407129:	sbb    BYTE PTR [edx+0x6],bl
  40712c:	pop    eax
  40712d:	push   esp
  40712e:	add    bl,BYTE PTR [edx]
  407130:	pop    eax
  407131:	adc    DWORD PTR [edi],eax
  407133:	pop    ds
  407134:	sbb    BYTE PTR [edx+0x6],bl
  407137:	pop    eax
  407138:	push   esp
  407139:	add    al,BYTE PTR [esi]
  40713b:	push   esp
  40713c:	sub    al,BYTE PTR [eax]
  40713e:	add    BYTE PTR [eax],al
  407140:	inc    ecx
  407141:	add    BYTE PTR fs:[eax],al
  407144:	add    DWORD PTR [eax],eax
  407146:	add    BYTE PTR [eax],al
  407148:	push   ebp
  407149:	add    BYTE PTR [eax],al
  40714b:	add    BYTE PTR [edx],dl
  40714d:	add    BYTE PTR [eax],al
  40714f:	add    BYTE PTR [esi+0x0],dh
  407152:	add    BYTE PTR [eax],al
  407154:	add    eax,DWORD PTR [eax]
  407156:	add    BYTE PTR [eax],al
  407158:	add    BYTE PTR [bx+si],al
  40715b:	add    BYTE PTR [edx],al
  40715d:	add    BYTE PTR [eax],al
  40715f:	add    BYTE PTR [ebp+0x0],dl
  407162:	add    BYTE PTR [eax],al
  407164:	sub    eax,DWORD PTR [eax]
  407166:	add    BYTE PTR [eax],al
  407168:	add    BYTE PTR [eax],0x0
  40716b:	add    BYTE PTR [ecx],cl
  40716d:	add    BYTE PTR [eax],al
  40716f:	add    BYTE PTR [edi],ah
  407171:	add    BYTE PTR [eax],al
  407173:	add    DWORD PTR [ecx],eax
  407175:	add    BYTE PTR [eax],al
  407177:	add    BYTE PTR [ebx],dl
  407179:	add    BYTE PTR [eax],al
  40717b:	add    BYTE PTR [ebx],bl
  40717d:	add    BYTE PTR [eax],al
  40717f:	add    BYTE PTR [ebp+0x0],al
  407182:	add    BYTE PTR [eax],al
  407184:	inc    esi
  407185:	add    BYTE PTR [eax],al
  407187:	add    BYTE PTR [esi],ch
  407189:	add    BYTE PTR [eax],al
  40718b:	add    BYTE PTR [eax+eax*1],al
  40718e:	add    BYTE PTR [eax],al
  407190:	stos   DWORD PTR es:[edi],eax
  407191:	add    BYTE PTR [eax],al
  407193:	add    BYTE PTR [edx],cl
  407195:	add    BYTE PTR [eax],al
  407197:	add    BYTE PTR [ebp+0xd000000],dh
  40719d:	add    BYTE PTR [eax],al
  40719f:	add    BYTE PTR [edi],ah
  4071a1:	add    BYTE PTR [eax],al
  4071a3:	add    DWORD PTR [ebx],ecx
  4071a5:	xor    BYTE PTR [esi],al
  4071a7:	add    BYTE PTR [eax],bl
  4071a9:	add    al,0x0
  4071ab:	add    BYTE PTR [ecx+0x2110000],dl
  4071b1:	sub    BYTE PTR ds:0x26060001,al
  4071b7:	add    bh,BYTE PTR [edi+0x43]
  4071ba:	add    BYTE PTR [eax],al
  4071bc:	add    al,0x54
  4071be:	add    bl,BYTE PTR [edi]
  4071c0:	sub    BYTE PTR [eax+0x13],bl
  4071c3:	pop    es
  4071c4:	adc    DWORD PTR [edi],eax
  4071c6:	push   ss
  4071c7:	push   esp
  4071c8:	adc    DWORD PTR [edi],eax
  4071ca:	sbb    bl,BYTE PTR [eax+0x16]
  4071cd:	push   esp
  4071ce:	adc    DWORD PTR [edi],eax
  4071d0:	push   ds
  4071d1:	pop    eax
  4071d2:	push   ss
  4071d3:	push   esp
  4071d4:	add    bl,BYTE PTR [edi]
  4071d6:	xor    al,0x58
  4071d8:	or     al,0x8
  4071da:	pop    ds
  4071db:	adc    BYTE PTR [eax+0x16],bl
  4071de:	push   esp
  4071df:	or     BYTE PTR [edi],bl
  4071e1:	adc    al,0x58
  4071e3:	push   ss
  4071e4:	push   esp
  4071e5:	fimul  WORD PTR ds:0x6406fe
  4071eb:	add    BYTE PTR [esi],al
  4071ed:	or     BYTE PTR [eax],ch
  4071ef:	jmp    0x800:0xdc060000
  4071f6:	push   ss
  4071f7:	push   ss
  4071f8:	sub    BYTE PTR [ebp+0x0],ah
  4071fb:	add    BYTE PTR [esi],al
  4071fd:	fimul  WORD PTR ds:0x5b06fe
  407203:	add    BYTE PTR [esi],al
  407205:	or     BYTE PTR [eax],ch
  407207:	jmp    0x200:0xdc060000
  40720e:	pop    ds
  40720f:	dec    esp
  407210:	pop    eax
  407211:	or     eax,DWORD PTR [edi]
  407213:	pop    ds
  407214:	adc    BYTE PTR [eax+0x16],bl
  407217:	push   esp
  407218:	pop    es
  407219:	pop    ds
  40721a:	adc    al,0x58
  40721c:	push   ss
  40721d:	push   esp
  40721e:	fimul  WORD PTR ds:0x6406fe
  407224:	add    BYTE PTR [esi],al
  407226:	pop    es
  407227:	sub    dl,ch
  407229:	add    BYTE PTR [eax],al
  40722b:	push   es
  40722c:	fadd   QWORD PTR [eax]
  40722e:	pop    es
  40722f:	push   ss
  407230:	push   ss
  407231:	sub    BYTE PTR [ebp+0x0],ah
  407234:	add    BYTE PTR [esi],al
  407236:	fimul  WORD PTR ds:0x5b06fe
  40723c:	add    BYTE PTR [esi],al
  40723e:	pop    es
  40723f:	sub    dl,ch
  407241:	add    BYTE PTR [eax],al
  407243:	push   es
  407244:	fadd   QWORD PTR [eax]
  407246:	add    bl,BYTE PTR [edi]
  407248:	push   0x110c1358
  40724d:	or     al,0x28
  40724f:	movs   BYTE PTR es:[edi],BYTE PTR ds:[esi]
  407250:	add    BYTE PTR [eax],al
  407252:	push   es
  407253:	add    ah,BYTE PTR es:[eax]
  407256:	in     al,dx
  407257:	add    BYTE PTR [eax],al
  407259:	add    BYTE PTR [eax+0xd],bl
  40725c:	or     DWORD PTR [eax],ebp
  40725e:	pop    ecx
  40725f:	add    DWORD PTR [eax],eax
  407261:	push   es
  407262:	add    ah,BYTE PTR es:[eax]
  407265:	cmp    BYTE PTR [ecx],al
  407267:	add    BYTE PTR [eax],al
  407269:	pop    eax
  40726a:	adc    ecx,DWORD PTR [ebx]
  40726c:	adc    DWORD PTR [ebx],ecx
  40726e:	sub    BYTE PTR [eax+0x1],bl
  407271:	add    BYTE PTR [esi],al
  407273:	add    ah,BYTE PTR es:[eax]
  407276:	dec    eax
  407277:	add    DWORD PTR [eax],eax
  407279:	add    BYTE PTR [eax+0x13],bl
  40727c:	or     dl,BYTE PTR [ecx]
  40727e:	or     ch,BYTE PTR [eax]
  407280:	pop    eax
  407281:	add    DWORD PTR [eax],eax
  407283:	push   es
  407284:	add    ah,BYTE PTR es:[eax]
  407287:	pop    eax
  407288:	add    DWORD PTR [eax],eax
  40728a:	add    BYTE PTR [eax+0x13],bl
  40728d:	or     DWORD PTR [ecx],edx
  40728f:	or     DWORD PTR [eax],ebp
  407291:	pop    eax
  407292:	add    DWORD PTR [eax],eax
  407294:	push   es
  407295:	add    ah,BYTE PTR es:[eax]
  407298:	int3   
  407299:	add    BYTE PTR [eax],al
  40729b:	add    BYTE PTR [eax+0x22],bl
  40729e:	add    BYTE PTR [eax],al
  4072a0:	xor    al,0x42
  4072a2:	sub    BYTE PTR [edi+0x1],dl
  4072a5:	add    BYTE PTR [esi],al
  4072a7:	push   esi
  4072a8:	add    ah,BYTE PTR [eax]
  4072aa:	rol    BYTE PTR [eax],1
  4072ac:	add    BYTE PTR [eax],al
  4072ae:	pop    eax
  4072af:	and    al,BYTE PTR [eax]
  4072b1:	add    BYTE PTR [edx+eax*2],dh
  4072b4:	sub    BYTE PTR [edi+0x1],dl
  4072b7:	add    BYTE PTR [esi],al
  4072b9:	push   esi
  4072ba:	add    ah,BYTE PTR [eax]
  4072bc:	aam    0x0
  4072be:	add    BYTE PTR [eax],al
  4072c0:	pop    eax
  4072c1:	and    al,BYTE PTR [eax]
  4072c3:	add    BYTE PTR [eax+0x1a125640],ah
  4072c9:	and    al,BYTE PTR [eax]
  4072cb:	add    BYTE PTR [eax],al
  4072cd:	add    BYTE PTR [esi+0x12],dl
  4072d0:	sbb    bl,BYTE PTR [edx]
  4072d2:	pop    eax
  4072d3:	and    al,BYTE PTR [eax]
  4072d5:	add    BYTE PTR [eax],al
  4072d7:	add    BYTE PTR [esi+0x12],dl
  4072da:	sbb    bl,BYTE PTR [esi]
  4072dc:	pop    eax
  4072dd:	and    al,BYTE PTR [eax]
  4072df:	add    BYTE PTR [eax],al
  4072e1:	add    BYTE PTR [esi+0x2],dl
  4072e4:	and    BYTE PTR [ecx+eax*1+0x0],dh
  4072e8:	add    BYTE PTR [eax+0x12],bl
  4072eb:	sbb    bl,BYTE PTR [edi]
  4072ed:	or     al,0xfe
  4072ef:	pop    ss
  4072f0:	adc    bl,BYTE PTR [ecx]
  4072f2:	push   ss
  4072f3:	push   ss
  4072f4:	and    BYTE PTR [eax],al
  4072f6:	add    al,0x0
  4072f8:	add    BYTE PTR [eax],ah
  4072fa:	add    BYTE PTR [ebx],al
  4072fc:	add    BYTE PTR [eax],al
  4072fe:	sub    BYTE PTR [esi+0x1],dl
  407301:	add    BYTE PTR [esi],al
  407303:	adc    ecx,DWORD PTR [edi]
  407305:	adc    DWORD PTR [ebx],ecx
  407307:	adc    DWORD PTR [edi],ecx
  407309:	pop    ds
  40730a:	adc    dh,bh
  40730c:	pop    ss
  40730d:	adc    bl,BYTE PTR [eax]
  40730f:	push   ss
  407310:	push   ss
  407311:	and    BYTE PTR [eax],al
  407313:	add    al,0x0
  407315:	add    BYTE PTR [eax],ah
  407317:	add    BYTE PTR [ebx],al
  407319:	add    BYTE PTR [eax],al
  40731b:	sub    BYTE PTR [esi+0x1],dl
  40731e:	add    BYTE PTR [esi],al
  407320:	adc    ecx,DWORD PTR [esi]
  407322:	adc    DWORD PTR [edx],ecx
  407324:	adc    DWORD PTR [esi],ecx
  407326:	pop    ds
  407327:	adc    dh,bh
  407329:	pop    ss
  40732a:	adc    dl,BYTE PTR [edi]
  40732c:	push   ss
  40732d:	push   ss
  40732e:	and    BYTE PTR [eax],al
  407330:	add    al,0x0
  407332:	add    BYTE PTR [eax],ah
  407334:	add    BYTE PTR [ebx],al
  407336:	add    BYTE PTR [eax],al
  407338:	sub    BYTE PTR [esi+0x1],dl
  40733b:	add    BYTE PTR [esi],al
  40733d:	adc    ecx,DWORD PTR ds:0xd110911
  407343:	pop    ds
  407344:	adc    dh,bh
  407346:	pop    ss
  407347:	adc    dl,BYTE PTR [esi]
  407349:	and    al,BYTE PTR [eax]
  40734b:	add    BYTE PTR [eax+0x1612563f],al
  407351:	sbb    bl,BYTE PTR [eax+0x22]
  407354:	add    BYTE PTR [eax],al
  407356:	add    BYTE PTR [eax],al
  407358:	push   esi
  407359:	adc    dl,BYTE PTR [esi]
  40735b:	push   ds
  40735c:	pop    eax
  40735d:	and    al,BYTE PTR [eax]
  40735f:	add    BYTE PTR [eax+0x1612563f],al
  407365:	pop    ds
  407366:	or     al,0x58
  407368:	and    al,BYTE PTR [eax]
  40736a:	add    BYTE PTR [eax+0x2002563f],al
  407370:	mov    esp,0x58000000
  407375:	adc    dl,BYTE PTR [esi]
  407377:	pop    ds
  407378:	adc    dh,bh
  40737a:	pop    ss
  40737b:	adc    dl,BYTE PTR ds:0x80000022
  407381:	aas    
  407382:	push   esi
  407383:	adc    dl,BYTE PTR ds:0x22581a
  407389:	add    BYTE PTR [eax+0x1512563f],al
  40738f:	push   ds
  407390:	pop    eax
  407391:	and    al,BYTE PTR [eax]
  407393:	add    BYTE PTR [eax+0x1412563f],al
  407399:	and    al,BYTE PTR [eax]
  40739b:	add    BYTE PTR [eax],al
  40739d:	add    BYTE PTR [esi+0x12],dl
  4073a0:	adc    al,0x1a
  4073a2:	pop    eax
  4073a3:	and    al,BYTE PTR [eax]
  4073a5:	add    BYTE PTR [eax],al
  4073a7:	add    BYTE PTR [esi+0x12],dl
  4073aa:	adc    al,0x1e
  4073ac:	pop    eax
  4073ad:	and    al,BYTE PTR [eax]
  4073af:	add    BYTE PTR [eax],al
  4073b1:	add    BYTE PTR [esi+0x12],dl
  4073b4:	adc    edx,DWORD PTR [edx]
  4073b6:	adc    al,0x1f
  4073b8:	or     al,0xfe
  4073ba:	pop    ss
  4073bb:	adc    dl,BYTE PTR [ebx]
  4073bd:	pop    ds
  4073be:	or     al,0x58
  4073c0:	adc    dl,BYTE PTR ds:0x17fe0c1f
  4073c6:	add    ah,BYTE PTR [eax]
  4073c8:	add    BYTE PTR [ecx],0x0
  4073cb:	add    BYTE PTR [eax+0x12],bl
  4073ce:	adc    ebx,DWORD PTR [edi]
  4073d0:	sbb    dh,bh
  4073d2:	pop    ss
  4073d3:	adc    dl,BYTE PTR [edx]
  4073d5:	and    al,BYTE PTR [eax]
  4073d7:	add    BYTE PTR [eax],al
  4073d9:	add    BYTE PTR [esi+0x12],dl
  4073dc:	adc    bl,BYTE PTR [edx]
  4073de:	pop    eax
  4073df:	and    al,BYTE PTR [eax]
  4073e1:	add    BYTE PTR [eax],al
  4073e3:	add    BYTE PTR [esi+0x12],dl
  4073e6:	adc    bl,BYTE PTR [esi]
  4073e8:	pop    eax
  4073e9:	and    al,BYTE PTR [eax]
  4073eb:	add    BYTE PTR [eax],al
  4073ed:	add    BYTE PTR [esi+0x2],dl
  4073f0:	and    BYTE PTR [eax+0x1],ch
  4073f3:	add    BYTE PTR [eax],al
  4073f5:	pop    eax
  4073f6:	adc    dl,BYTE PTR [edx]
  4073f8:	pop    ds
  4073f9:	or     al,0xfe
  4073fb:	pop    ss
  4073fc:	add    ah,BYTE PTR [eax]
  4073fe:	mov    eax,0x58000000
  407403:	push   ss
  407404:	push   esp
  407405:	add    ah,BYTE PTR [eax]
  407407:	mov    WORD PTR [eax],es
  407409:	add    BYTE PTR [eax],al
  40740b:	pop    eax
  40740c:	sbb    BYTE PTR [edx+eax*1+0x20],dl
  407410:	nop
  407411:	add    BYTE PTR [eax],al
  407413:	add    BYTE PTR [eax+0x20],bl
  407416:	add    BYTE PTR [eax],0x0
  407419:	add    BYTE PTR [edx+eax*1+0x20],dl
  40741d:	cwde   
  40741e:	add    BYTE PTR [eax],al
  407420:	add    BYTE PTR [eax+0x15],bl
  407423:	push   esp
  407424:	add    ah,BYTE PTR [eax]
  407426:	pushf  
  407427:	add    BYTE PTR [eax],al
  407429:	add    BYTE PTR [eax+0x15],bl
  40742c:	push   esp
  40742d:	add    ah,BYTE PTR [eax]
  40742f:	mov    al,0x0
  407431:	add    BYTE PTR [eax],al
  407433:	pop    eax
  407434:	push   ss
  407435:	push   esp
  407436:	add    ah,BYTE PTR [eax]
  407438:	test   al,0x0
  40743a:	add    BYTE PTR [eax],al
  40743c:	pop    eax
  40743d:	push   ss
  40743e:	push   esp
  40743f:	add    ah,BYTE PTR [eax]
  407441:	movs   BYTE PTR es:[edi],BYTE PTR ds:[esi]
  407442:	add    BYTE PTR [eax],al
  407444:	add    BYTE PTR [eax+0x16],bl
  407447:	push   esp
  407448:	add    ah,BYTE PTR [eax]
  40744a:	lods   al,BYTE PTR ds:[esi]
  40744b:	add    BYTE PTR [eax],al
  40744d:	add    BYTE PTR [eax+0x16],bl
  407450:	push   esp
  407451:	add    ah,BYTE PTR [eax]
  407453:	xchg   esp,eax
  407454:	add    BYTE PTR [eax],al
  407456:	add    BYTE PTR [eax+0x16],bl
  407459:	push   esp
  40745a:	adc    DWORD PTR [edi+edx*1],ecx
  40745d:	sub    BYTE PTR [edi+0x2060000],ah
  407463:	pop    ds
  407464:	fs pop eax
  407466:	pop    ss
  407467:	push   edx
  407468:	add    bl,BYTE PTR [edi]
  40746a:	gs pop eax
  40746c:	pop    ss
  40746d:	push   edx
  40746e:	add    bl,BYTE PTR [edx]
  407470:	pop    eax
  407471:	push   ss
  407472:	push   edx
  407473:	add    bl,BYTE PTR [edi]
  407475:	and    al,0x58
  407477:	push   ss
  407478:	push   edx
  407479:	add    ah,BYTE PTR [eax]
  40747b:	in     al,0x0
  40747d:	add    BYTE PTR [eax],al
  40747f:	pop    eax
  407480:	push   ss
  407481:	push   edx
  407482:	add    ah,BYTE PTR [eax]
  407484:	call   0x58407489
  407489:	and    al,BYTE PTR [eax]
  40748b:	add    BYTE PTR [eax+0x2209563f],al
  407491:	add    BYTE PTR [eax],al
  407493:	xor    al,0x42
  407495:	sub    BYTE PTR [edi+0x1],dl
  407498:	add    BYTE PTR [esi],al
  40749a:	sub    BYTE PTR [ebp+0x1],dl
  40749d:	add    BYTE PTR [esi],al
  40749f:	or     DWORD PTR [edx],esp
  4074a1:	int    0xcc
  4074a3:	int3   
  4074a4:	cmp    eax,0x15428
  4074a9:	push   es
  4074aa:	or     DWORD PTR [edx],esp
  4074ac:	add    BYTE PTR [eax],al
  4074ae:	dec    eax
  4074af:	inc    edx
  4074b0:	sub    BYTE PTR [ebx+0x1],dl
  4074b3:	add    BYTE PTR [esi],al
  4074b5:	add    bl,BYTE PTR [esi]
  4074b7:	pop    eax
  4074b8:	push   ss
  4074b9:	push   esp
  4074ba:	add    bl,BYTE PTR [edi]
  4074bc:	or     al,0x58
  4074be:	push   ss
  4074bf:	push   esp
  4074c0:	add    bl,BYTE PTR [edi]
  4074c2:	adc    BYTE PTR [eax+0x16],bl
  4074c5:	push   esp
  4074c6:	add    bl,BYTE PTR [edi]
  4074c8:	adc    al,0x58
  4074ca:	push   ss
  4074cb:	push   esp
  4074cc:	jle    0x4074d8
  4074ce:	add    DWORD PTR [eax],eax
  4074d0:	add    al,0x4a
  4074d2:	pop    ds
  4074d3:	sub    BYTE PTR [eax+0x4a],bl
  4074d6:	push   ss
  4074d7:	adc    dl,BYTE PTR [ecx]
  4074d9:	push   ss
  4074da:	push   ss
  4074db:	push   ss
  4074dc:	sub    BYTE PTR [ecx+0x1],dl
  4074df:	add    BYTE PTR [esi],al
  4074e1:	sub    BYTE PTR [edx+0x1],dl
  4074e4:	add    BYTE PTR [esi],al
  4074e6:	adc    eax,DWORD PTR [esi]
  4074e8:	add    bl,BYTE PTR [edi]
  4074ea:	sbb    BYTE PTR [eax+0x11],bl
  4074ed:	push   es
  4074ee:	push   esp
  4074ef:	adc    DWORD PTR [esi],eax
  4074f1:	push   ss
  4074f2:	das    
  4074f3:	add    eax,0xcddd
  4074f8:	add    BYTE PTR [esi+0xa],bh
  4074fb:	add    DWORD PTR [eax],eax
  4074fd:	add    al,0x4a
  4074ff:	pop    ds
  407500:	sub    BYTE PTR [eax+0x4a],bl
  407503:	adc    DWORD PTR [esi],eax
  407505:	sub    BYTE PTR [eax+0x1],dl
  407508:	add    BYTE PTR [esi],al
  40750a:	adc    ecx,DWORD PTR [eax]
  40750c:	add    bl,BYTE PTR [edi]
  40750e:	sbb    al,0x58
  407510:	adc    eax,DWORD PTR ds:0x8110511
  407516:	push   esp
  407517:	adc    DWORD PTR [eax],ecx
  407519:	sub    eax,0xa6dd05
  40751e:	add    BYTE PTR [eax],al
  407520:	and    BYTE PTR [edi+eax*2],al
  407523:	add    BYTE PTR [eax],al
  407525:	sub    BYTE PTR [edi+0x1],ch
  407528:	add    BYTE PTR [esi],al
  40752a:	adc    eax,DWORD PTR [ecx+edx*1]
  40752d:	add    al,0x2c
  40752f:	or     eax,0x5110411
  407534:	dec    edx
  407535:	sub    BYTE PTR [edi+0x1],cl
  407538:	add    BYTE PTR [esi],al
  40753a:	or     bl,dh
  40753c:	adc    DWORD PTR [esi],edx
  40753e:	or     bl,dh
  407540:	or     eax,0x4200411
  407545:	inc    edi
  407546:	add    BYTE PTR [eax],al
  407548:	sub    BYTE PTR [ebp+0x1],ch
  40754b:	add    BYTE PTR [esi],al
  40754d:	fadd   QWORD PTR [esi]
  40754f:	sub    eax,0x1273de02
  407554:	adc    BYTE PTR [edx],ah
  407556:	add    BYTE PTR [eax],al
  407558:	jp     0x40759e
  40755a:	push   esi
  40755b:	adc    dl,BYTE PTR [eax]
  40755d:	sbb    bl,BYTE PTR [eax+0x22]
  407560:	add    BYTE PTR [eax],al
  407562:	jp     0x4075a8
  407564:	push   esi
  407565:	push   es
  407566:	adc    dl,BYTE PTR [eax]
  407568:	sub    BYTE PTR [esi+0x1],cl
  40756b:	add    BYTE PTR [esi],al
  40756d:	push   es
  40756e:	push   ss
  40756f:	sub    BYTE PTR [ebp+0x1],cl
  407572:	add    BYTE PTR [esi],al
  407574:	adc    DWORD PTR es:0x4c28064a,eax
  40757b:	add    DWORD PTR [eax],eax
  40757d:	push   es
  40757e:	ficom  WORD PTR [eax]
  407580:	inc    BYTE PTR [esi]
  407582:	cmps   BYTE PTR ds:[esi],BYTE PTR es:[edi]
  407583:	add    BYTE PTR [eax],al
  407585:	push   es
  407586:	add    bl,BYTE PTR [edi]
  407588:	push   0xea2858
  40758d:	add    BYTE PTR [esi],al
  40758f:	(bad)  
  407591:	adc    dh,bh
  407593:	push   es
  407594:	push   ebp
  407595:	add    BYTE PTR [eax],al
  407597:	push   es
  407598:	add    bl,BYTE PTR [edi]
  40759a:	dec    esp
  40759b:	pop    eax
  40759c:	sub    dl,ch
  40759e:	add    BYTE PTR [eax],al
  4075a0:	push   es
  4075a1:	(bad)  
  4075a3:	adc    dh,bh
  4075a5:	push   es
  4075a6:	push   ebp
  4075a7:	add    BYTE PTR [eax],al
  4075a9:	push   es
  4075aa:	add    bl,BYTE PTR [edi]
  4075ac:	xor    al,0x58
  4075ae:	sub    dl,ch
  4075b0:	add    BYTE PTR [eax],al
  4075b2:	push   es
  4075b3:	(bad)  
  4075b5:	adc    dh,bh
  4075b7:	push   es
  4075b8:	or     al,0x0
  4075ba:	add    BYTE PTR [esi],al
  4075bc:	add    bl,BYTE PTR [edi]
  4075be:	sub    BYTE PTR [eax+0x28],bl
  4075c1:	jmp    0x2a02:0xdc060000
  4075c8:	inc    ecx
  4075c9:	fadd   QWORD PTR [eax]
  4075cb:	add    BYTE PTR [eax+eax*1],al
  4075ce:	add    BYTE PTR [eax],al
  4075d0:	sub    DWORD PTR [eax],eax
  4075d2:	add    BYTE PTR [eax],al
  4075d4:	push   cs
  4075d5:	add    BYTE PTR [eax],al
  4075d7:	add    BYTE PTR [edi],dh
  4075d9:	add    BYTE PTR [eax],al
  4075db:	add    BYTE PTR ds:0x27000000,cl
  4075e1:	add    BYTE PTR [eax],al
  4075e3:	add    DWORD PTR [eax+eax*1],eax
  4075e6:	add    BYTE PTR [eax],al
  4075e8:	inc    ebp
  4075e9:	add    BYTE PTR [eax],al
  4075eb:	add    BYTE PTR [edx],cl
  4075ed:	add    BYTE PTR [eax],al
  4075ef:	add    BYTE PTR [edi+0x0],cl
  4075f2:	add    BYTE PTR [eax],al
  4075f4:	or     eax,0x27000000
  4075f9:	add    BYTE PTR [eax],al
  4075fb:	add    DWORD PTR [eax+eax*1],eax
  4075fe:	add    BYTE PTR [eax],al
  407600:	bound  eax,QWORD PTR [eax]
  407602:	add    BYTE PTR [eax],al
  407604:	push   cs
  407605:	add    BYTE PTR [eax],al
  407607:	add    BYTE PTR [eax+0x0],dh
  40760a:	add    BYTE PTR [eax],al
  40760c:	or     eax,0x27000000
  407611:	add    BYTE PTR [eax],al
  407613:	add    DWORD PTR [eax+eax*1],eax
  407616:	add    BYTE PTR [eax],al
  407618:	jle    0x40761a
  40761a:	add    BYTE PTR [eax],al
  40761c:	or     al,BYTE PTR [eax]
  40761e:	add    BYTE PTR [eax],al
  407620:	mov    BYTE PTR [eax],al
  407622:	add    BYTE PTR [eax],al
  407624:	or     eax,0x27000000
  407629:	add    BYTE PTR [eax],al
  40762b:	add    DWORD PTR [eax+eax*1],eax
  40762e:	add    BYTE PTR [eax],al
  407630:	jl     0x407635
  407632:	add    BYTE PTR [eax],al
  407634:	adc    eax,0x91000000
  407639:	add    eax,DWORD PTR [eax]
  40763b:	add    BYTE PTR ds:0x27000000,cl
  407641:	add    BYTE PTR [eax],al
  407643:	add    DWORD PTR [eax+eax*1],eax
  407646:	add    BYTE PTR [eax],al
  407648:	movs   BYTE PTR es:[edi],BYTE PTR ds:[esi]
  407649:	add    BYTE PTR [eax],al
  40764b:	add    BYTE PTR [ebx+eax*1],ch
  40764e:	add    BYTE PTR [eax],al
  407650:	rol    BYTE PTR [ebx],1
  407652:	add    BYTE PTR [eax],al
  407654:	adc    BYTE PTR [eax],al
  407656:	add    BYTE PTR [eax],al
  407658:	daa    
  407659:	add    BYTE PTR [eax],al
  40765b:	add    DWORD PTR [eax+eax*1],eax
  40765e:	add    BYTE PTR [eax],al
  407660:	xchg   esi,eax
  407661:	add    BYTE PTR [eax],al
  407663:	add    BYTE PTR [ebx+eax*1+0x0],cl
  407667:	add    dl,ah
  407669:	add    eax,DWORD PTR [eax]
  40766b:	add    BYTE PTR [eax],dl
  40766d:	add    BYTE PTR [eax],al
  40766f:	add    BYTE PTR [edi],ah
  407671:	add    BYTE PTR [eax],al
  407673:	add    DWORD PTR [eax+eax*1],eax
  407676:	add    BYTE PTR [eax],al
  407678:	pop    ebp
  407679:	add    BYTE PTR [eax],al
  40767b:	add    BYTE PTR [edi-0xbfffffd],dl
  407681:	add    eax,DWORD PTR [eax]
  407683:	add    BYTE PTR [eax],dl
  407685:	add    BYTE PTR [eax],al
  407687:	add    BYTE PTR [edi],ah
  407689:	add    BYTE PTR [eax],al
  40768b:	add    DWORD PTR [eax+eax*1],eax
  40768e:	add    BYTE PTR [eax],al
  407690:	and    al,0x0
  407692:	add    BYTE PTR [eax],al
  407694:	loop   0x407699
  407696:	add    BYTE PTR [eax],al
  407698:	push   es
  407699:	add    al,0x0
  40769b:	add    BYTE PTR [eax],dl
  40769d:	add    BYTE PTR [eax],al
  40769f:	add    BYTE PTR [edi],ah
  4076a1:	add    BYTE PTR [eax],al
  4076a3:	add    DWORD PTR [ebx],ecx
  4076a5:	xor    BYTE PTR [edi],al
  4076a7:	add    BYTE PTR [esi+0x2],al
  4076aa:	add    BYTE PTR [eax],al
  4076ac:	xchg   edx,eax
  4076ad:	add    BYTE PTR [eax],al
  4076af:	adc    DWORD PTR [edx],eax
  4076b1:	and    eax,0x9820
  4076b6:	add    BYTE PTR [eax+0x4a],bl
  4076b9:	sbb    BYTE PTR [edx+0x2],ah
  4076bc:	and    BYTE PTR [eax+eax*1+0x4a580000],bl
  4076c3:	sbb    BYTE PTR [edx+0x28],ah
  4076c6:	add    BYTE PTR cs:[eax],al
  4076c9:	push   es
  4076ca:	add    dl,BYTE PTR [edi]
  4076cc:	sub    BYTE PTR [edx+0x0],al
  4076cf:	add    BYTE PTR [esi],al
  4076d1:	add    ah,BYTE PTR [eax]
  4076d3:	movs   BYTE PTR es:[edi],BYTE PTR ds:[esi]
  4076d4:	add    BYTE PTR [eax],al
  4076d6:	add    BYTE PTR [eax+0x4a],bl
  4076d9:	cmp    DWORD PTR [eax],edx
  4076db:	add    al,BYTE PTR [eax]
  4076dd:	add    BYTE PTR [esi+0xa],bh
  4076e0:	add    DWORD PTR [eax],eax
  4076e2:	add    al,0x4a
  4076e4:	sub    BYTE PTR [esi+0x1],bl
  4076e7:	add    BYTE PTR [esi],al
  4076e9:	sub    BYTE PTR [ebp+0x1],bl
  4076ec:	add    BYTE PTR [esi],al
  4076ee:	or     eax,0x287f09
  4076f3:	add    BYTE PTR [ecx+ecx*1],al
  4076f6:	dec    edx
  4076f7:	and    al,dl
  4076f9:	add    DWORD PTR [eax],eax
  4076fb:	add    BYTE PTR [eax+0x4a],bl
  4076fe:	sub    DWORD PTR [edx],eax
  407700:	add    BYTE PTR [eax],al
  407702:	adc    DWORD PTR [esi+0xa],edi
  407705:	add    DWORD PTR [eax],eax
  407707:	add    al,0x4a
  407709:	sub    BYTE PTR [esi+0x1],bl
  40770c:	add    BYTE PTR [esi],al
  40770e:	sub    BYTE PTR [eax],ch
  407710:	add    DWORD PTR [eax],eax
  407712:	push   es
  407713:	or     al,BYTE PTR [esi]
  407715:	adc    cl,BYTE PTR ds:0x1382002
  40771b:	add    BYTE PTR [eax],al
  40771d:	pop    eax
  40771e:	dec    edx
  40771f:	add    ah,BYTE PTR [eax]
  407721:	cmp    al,0x1
  407723:	add    BYTE PTR [eax],al
  407725:	pop    eax
  407726:	dec    edx
  407727:	add    ah,BYTE PTR [eax]
  407729:	inc    eax
  40772a:	add    DWORD PTR [eax],eax
  40772c:	add    BYTE PTR [eax+0x4a],bl
  40772f:	sbb    BYTE PTR [edx+0x2],ah
  407732:	and    BYTE PTR [ecx+eax*1+0x0],al
  407736:	add    BYTE PTR [eax+0x4a],bl
  407739:	sbb    BYTE PTR [edx+0x28],ah
  40773c:	push   esi
  40773d:	add    DWORD PTR [eax],eax
  40773f:	push   es
  407740:	sub    BYTE PTR [edi],ah
  407742:	add    DWORD PTR [eax],eax
  407744:	push   es
  407745:	add    ah,BYTE PTR [eax]
  407747:	inc    eax
  407748:	add    DWORD PTR [eax],eax
  40774a:	add    BYTE PTR [eax+0x4a],bl
  40774d:	sbb    BYTE PTR [edx+0x6b],ah
  407750:	adc    eax,DWORD PTR [esi]
  407752:	add    ah,BYTE PTR [eax]
  407754:	inc    esp
  407755:	add    DWORD PTR [eax],eax
  407757:	add    BYTE PTR [eax+0x4a],bl
  40775a:	sbb    BYTE PTR [edx+0x6b],ah
  40775d:	adc    eax,DWORD PTR ds:0x220c12
  407763:	add    BYTE PTR [eax],al
  407765:	add    BYTE PTR [esi+0x12],dl
  407768:	or     al,0x1a
  40776a:	pop    eax
  40776b:	and    al,BYTE PTR [eax]
  40776d:	add    BYTE PTR [eax],al
  40776f:	add    BYTE PTR [esi+0x12],dl
  407772:	or     al,0x1e
  407774:	pop    eax
  407775:	adc    DWORD PTR [esi],eax
  407777:	push   esi
  407778:	adc    cl,BYTE PTR [edi+ebx*1]
  40777b:	or     al,0x58
  40777d:	adc    DWORD PTR ds:0xc120656,eax
  407783:	pop    ss
  407784:	sub    BYTE PTR [esi],ah
  407786:	add    DWORD PTR [eax],eax
  407788:	push   es
  407789:	push   es
  40778a:	add    ah,BYTE PTR [eax]
  40778c:	movs   BYTE PTR es:[edi],BYTE PTR ds:[esi]
  40778d:	add    BYTE PTR [eax],al
  40778f:	add    BYTE PTR [eax+0x4a],bl
  407792:	sub    BYTE PTR ds:0x6060001,ah
  407798:	sub    BYTE PTR [ecx+eax*1],ah
  40779b:	add    BYTE PTR [esi],al
  40779d:	adc    cl,BYTE PTR es:[ebx]
  4077a0:	and    al,BYTE PTR [eax]
  4077a2:	add    BYTE PTR [eax],al
  4077a4:	add    BYTE PTR [esi+0x12],dl
  4077a7:	or     ebx,DWORD PTR [edx]
  4077a9:	pop    eax
  4077aa:	and    al,BYTE PTR [eax]
  4077ac:	add    BYTE PTR [eax],al
  4077ae:	add    BYTE PTR [esi+0x12],dl
  4077b1:	or     ebx,DWORD PTR [esi]
  4077b3:	pop    eax
  4077b4:	and    al,BYTE PTR [eax]
  4077b6:	add    BYTE PTR [eax],al
  4077b8:	add    BYTE PTR [esi+0x12],dl
  4077bb:	or     ebx,DWORD PTR [edi]
  4077bd:	or     al,0x58
  4077bf:	and    al,BYTE PTR [eax]
  4077c1:	add    BYTE PTR [eax+0x1206563f],al
  4077c7:	or     ebp,DWORD PTR [eax]
  4077c9:	and    eax,DWORD PTR [ecx]
  4077cb:	add    BYTE PTR [esi],al
  4077cd:	push   es
  4077ce:	pop    ds
  4077cf:	and    DWORD PTR [edx],esp
  4077d1:	add    BYTE PTR [eax],al
  4077d3:	cmp    BYTE PTR [edi],0x28
  4077d6:	and    al,BYTE PTR [ecx]
  4077d8:	add    BYTE PTR [esi],al
  4077da:	adc    cl,BYTE PTR [edx]
  4077dc:	sub    BYTE PTR [ecx],ah
  4077de:	add    DWORD PTR [eax],eax
  4077e0:	push   es
  4077e1:	add    ah,BYTE PTR es:[eax]
  4077e4:	in     al,dx
  4077e5:	add    BYTE PTR [eax],al
  4077e7:	add    BYTE PTR [eax+0xb],bl
  4077ea:	pop    es
  4077eb:	sub    BYTE PTR [eax],ah
  4077ed:	add    DWORD PTR [eax],eax
  4077ef:	push   es
  4077f0:	adc    cl,BYTE PTR es:[edx]
  4077f3:	push   ss
  4077f4:	sub    BYTE PTR [edi],bl
  4077f6:	add    DWORD PTR [eax],eax
  4077f8:	push   es
  4077f9:	add    ah,BYTE PTR [eax]
  4077fb:	mov    esp,0x58000000
  407800:	adc    eax,DWORD PTR [edx+edx*1]
  407803:	or     dl,BYTE PTR [esi]
  407805:	adc    DWORD PTR [eiz*1+0x11e28],eax
  40780c:	push   es
  40780d:	adc    cl,BYTE PTR [ecx]
  40780f:	add    ah,BYTE PTR [eax]
  407811:	cmp    BYTE PTR [ecx],al
  407813:	add    BYTE PTR [eax],al
  407815:	pop    eax
  407816:	dec    edx
  407817:	add    ah,BYTE PTR [eax]
  407819:	cmp    al,0x1
  40781b:	add    BYTE PTR [eax],al
  40781d:	pop    eax
  40781e:	dec    edx
  40781f:	add    ah,BYTE PTR [eax]
  407821:	inc    eax
  407822:	add    DWORD PTR [eax],eax
  407824:	add    BYTE PTR [eax+0x4a],bl
  407827:	sbb    BYTE PTR [edx+0x2],ah
  40782a:	and    BYTE PTR [ecx+eax*1+0x0],al
  40782e:	add    BYTE PTR [eax+0x4a],bl
  407831:	sbb    BYTE PTR [edx+0x28],ah
  407834:	push   esi
  407835:	add    DWORD PTR [eax],eax
  407837:	push   es
  407838:	adc    cl,BYTE PTR es:[edx]
  40783b:	add    bl,BYTE PTR [edi]
  40783d:	sbb    al,0x58
  40783f:	dec    edx
  407840:	pop    es
  407841:	adc    cl,BYTE PTR [ecx]
  407843:	pop    es
  407844:	adc    cl,BYTE PTR [eax]
  407846:	adc    cl,BYTE PTR [ecx]
  407848:	sub    BYTE PTR [ecx],ch
  40784a:	add    DWORD PTR [eax],eax
  40784c:	push   es
  40784d:	sub    BYTE PTR ds:0x12060001,bl
  407853:	pop    es
  407854:	jg     0x407898
  407856:	add    BYTE PTR [eax],al
  407858:	add    al,0x54
  40785a:	adc    al,BYTE PTR [edi]
  40785c:	sbb    bl,BYTE PTR [eax+0x16]
  40785f:	push   esp
  407860:	adc    al,BYTE PTR [edi]
  407862:	push   ds
  407863:	pop    eax
  407864:	push   ss
  407865:	push   esp
  407866:	adc    al,BYTE PTR [edi]
  407868:	pop    ds
  407869:	or     al,0x58
  40786b:	push   ss
  40786c:	push   esp
  40786d:	add    ah,BYTE PTR [eax]
  40786f:	mov    eax,0x58000000
  407874:	dec    edx
  407875:	or     al,0x8
  407877:	sub    al,0x8
  407879:	adc    al,BYTE PTR [edi]
  40787b:	or     BYTE PTR [eax],ch
  40787d:	jl     0x40787f
  40787f:	add    BYTE PTR [esi],al
  407881:	adc    cl,BYTE PTR [edx]
  407883:	pop    ss
  407884:	sub    BYTE PTR [ecx+eax*1],bl
  407887:	add    BYTE PTR [esi],al
  407889:	add    bl,BYTE PTR [edi]
  40788b:	push   0x20a1258
  407890:	pop    ds
  407891:	sbb    al,0x58
  407893:	dec    edx
  407894:	sub    BYTE PTR [ebp+0x12060000],ch
  40789a:	or     al,BYTE PTR [esi]
  40789c:	push   ss
  40789d:	push   ss
  40789e:	sub    BYTE PTR [ebx],bl
  4078a0:	add    DWORD PTR [eax],eax
  4078a2:	push   es
  4078a3:	es push es
  4078a5:	sub    BYTE PTR [edx],bl
  4078a7:	add    DWORD PTR [eax],eax
  4078a9:	push   es
  4078aa:	push   es
  4078ab:	push   ss
  4078ac:	sub    BYTE PTR ds:0x2060001,ah
  4078b2:	pop    ds
  4078b3:	and    al,0x58
  4078b5:	inc    edi
  4078b6:	sub    al,0x6
  4078b8:	add    bl,BYTE PTR [edi]
  4078ba:	and    al,0x58
  4078bc:	push   ss
  4078bd:	push   edx
  4078be:	fimul  WORD PTR [esi]
  4078c0:	inc    BYTE PTR [esi]
  4078c2:	xor    al,0x0
  4078c4:	add    BYTE PTR [esi],al
  4078c6:	adc    al,BYTE PTR [edi]
  4078c8:	sub    dl,ch
  4078ca:	add    BYTE PTR [eax],al
  4078cc:	push   es
  4078cd:	fcom   QWORD PTR [edx]
  4078cf:	pop    es
  4078d0:	sbb    bl,BYTE PTR [eax+0x28]
  4078d3:	pusha  
  4078d4:	add    BYTE PTR [eax],al
  4078d6:	push   es
  4078d7:	fimul  WORD PTR [esi]
  4078d9:	inc    BYTE PTR [esi]
  4078db:	xor    eax,DWORD PTR [eax]
  4078dd:	add    BYTE PTR [esi],al
  4078df:	adc    cl,BYTE PTR [edx]
  4078e1:	sub    dl,ch
  4078e3:	add    BYTE PTR [eax],al
  4078e5:	push   es
  4078e6:	fcom   QWORD PTR [edx]
  4078e8:	or     ch,BYTE PTR [eax]
  4078ea:	xor    eax,0x2060000
  4078ef:	push   ss
  4078f0:	sub    BYTE PTR [edx+0x0],al
  4078f3:	add    BYTE PTR [esi],al
  4078f5:	sub    al,BYTE PTR [eax]
  4078f7:	add    BYTE PTR [ecx+0x34],al
  4078fa:	add    BYTE PTR [eax],al
  4078fc:	add    al,0x0
  4078fe:	add    BYTE PTR [eax],al
  407900:	mov    ebp,0x53000001
  407905:	add    BYTE PTR [eax],al
  407907:	add    BYTE PTR [eax],dl
  407909:	add    al,BYTE PTR [eax]
  40790b:	add    BYTE PTR [esi],cl
  40790d:	add    BYTE PTR [eax],al
  40790f:	add    BYTE PTR [edi],ah
  407911:	add    BYTE PTR [eax],al
  407913:	add    DWORD PTR [eax+eax*1],eax
  407916:	add    BYTE PTR [eax],al
  407918:	xor    al,BYTE PTR [ecx]
  40791a:	add    BYTE PTR [eax],al
  40791c:	test   DWORD PTR [eax],0x2290000
  407922:	add    BYTE PTR [eax],al
  407924:	push   cs
  407925:	add    BYTE PTR [eax],al
  407927:	add    BYTE PTR [edi],ah
  407929:	add    BYTE PTR [eax],al
  40792b:	add    DWORD PTR [ebx],eax
  40792d:	xor    BYTE PTR [edx],al
  40792f:	add    BYTE PTR [eax+eax*1+0x0],dh
  407933:	add    BYTE PTR [ebx+0x2110000],dl
  407939:	push   ds
  40793a:	pop    eax
  40793b:	dec    edx
  40793c:	adc    ecx,DWORD PTR [eax]
  40793e:	add    bl,BYTE PTR [edx]
  407940:	pop    eax
  407941:	dec    edx
  407942:	adc    eax,DWORD PTR [edi]
  407944:	adc    DWORD PTR [eax],ecx
  407946:	adc    DWORD PTR [edi],eax
  407948:	pop    ecx
  407949:	pop    ds
  40794a:	sbb    BYTE PTR [ebx+0x3],bl
  40794d:	xor    al,0x5c
  40794f:	add    cl,BYTE PTR [edx+0x13]
  407952:	push   es
  407953:	adc    DWORD PTR [edi],eax
  407955:	adc    DWORD PTR [esi],eax
  407957:	pop    ecx
  407958:	pop    ds
  407959:	sbb    BYTE PTR [ebx+0x13],bl
  40795c:	add    eax,0xaaaaaa20
  407961:	or     dl,BYTE PTR [ecx]
  407963:	add    eax,0xa340359
  407968:	jg     0x407996
  40796a:	add    BYTE PTR [eax],al
  40796c:	add    al,0x28
  40796e:	pop    es
  40796f:	add    DWORD PTR [eax],eax
  407971:	push   es
  407972:	adc    DWORD PTR ds:0x4135803,eax
  407978:	adc    DWORD PTR [eax],ecx
  40797a:	adc    DWORD PTR [esi],eax
  40797c:	pop    ecx
  40797d:	pop    ds
  40797e:	sbb    BYTE PTR [ebx+0xc],bl
  407981:	or     BYTE PTR [edi],dl
  407983:	fs or  eax,0xaaaaaa20
  407989:	or     cl,BYTE PTR [ecx]
  40798b:	pop    ecx
  40798c:	or     BYTE PTR [esp+eax*1],dh
  40798f:	push   ss
  407990:	or     ebp,DWORD PTR [ebx]
  407992:	add    al,0x9
  407994:	or     BYTE PTR [eax+0xb],bl
  407997:	pop    es
  407998:	or     al,BYTE PTR [edi]
  40799a:	adc    DWORD PTR [edi+esi*1],eax
  40799d:	add    eax,DWORD PTR [esi]
  40799f:	sub    eax,DWORD PTR [edx]
  4079a1:	adc    DWORD PTR [edx+ecx*1],eax
  4079a4:	add    al,BYTE PTR [esi]
  4079a6:	sub    BYTE PTR [ebx+0x0],ah
  4079a9:	add    BYTE PTR [esi],al
  4079ab:	sub    cl,BYTE PTR [ebx]
  4079ad:	xor    BYTE PTR [edi],al
  4079af:	add    al,al
  4079b1:	add    BYTE PTR [eax],al
  4079b3:	add    BYTE PTR [eax+eax*1+0x20021100],dl
  4079ba:	cwde   
  4079bb:	add    BYTE PTR [eax],al
  4079bd:	add    BYTE PTR [eax+0x4a],bl
  4079c0:	sbb    BYTE PTR [edx+0xb],ah
  4079c3:	add    ah,BYTE PTR [eax]
  4079c5:	pushf  
  4079c6:	add    BYTE PTR [eax],al
  4079c8:	add    BYTE PTR [eax+0x4a],bl
  4079cb:	sbb    BYTE PTR [edx+0xa],ah
  4079ce:	add    ch,BYTE PTR [eax]
  4079d0:	xor    al,BYTE PTR [eax]
  4079d2:	add    BYTE PTR [esi],al
  4079d4:	push   es
  4079d5:	pop    es
  4079d6:	pop    edx
  4079d7:	adc    eax,DWORD PTR [esi]
  4079d9:	adc    DWORD PTR [esi],eax
  4079db:	and    bh,bh
  4079dd:	(bad)  
  4079de:	(bad)  
  4079df:	aas    
  4079e0:	xor    eax,0x18061106
  4079e5:	bound  ebp,QWORD PTR [ebx]
  4079e7:	add    DWORD PTR ds:0x12b28,edx
  4079ed:	push   es
  4079ee:	or     eax,0xa42002
  4079f3:	add    BYTE PTR [eax],al
  4079f5:	pop    eax
  4079f6:	dec    edx
  4079f7:	adc    eax,DWORD PTR ds:0x7090511
  4079fd:	push   es
  4079fe:	sbb    BYTE PTR [ecx],dl
  407a00:	add    eax,0x580c1f4a
  407a05:	dec    edx
  407a06:	sub    DWORD PTR [esi],eax
  407a08:	add    BYTE PTR [eax],al
  407a0a:	adc    DWORD PTR [edi],eax
  407a0c:	sbb    bl,BYTE PTR [ebx+0xb]
  407a0f:	push   es
  407a10:	sbb    bl,BYTE PTR [ebx+0xa]
  407a13:	push   es
  407a14:	pop    es
  407a15:	pop    edx
  407a16:	adc    eax,DWORD PTR [ecx+edx*1]
  407a19:	add    al,0x20
  407a1b:	(bad)  
  407a1c:	(bad)  
  407a1d:	(bad)  
  407a1e:	aas    
  407a1f:	xor    eax,0x18041106
  407a24:	bound  ebp,QWORD PTR [ebx]
  407a26:	add    DWORD PTR ds:0x12b28,edx
  407a2c:	push   es
  407a2d:	or     al,0x2
  407a2f:	or     DWORD PTR [eax],ecx
  407a31:	pop    es
  407a32:	push   es
  407a33:	sub    BYTE PTR [edx],ch
  407a35:	add    BYTE PTR [eax],al
  407a37:	push   es
  407a38:	add    cl,BYTE PTR [eax]
  407a3a:	add    eax,DWORD PTR [edi]
  407a3c:	push   es
  407a3d:	sub    BYTE PTR [ebx],ch
  407a3f:	add    BYTE PTR [eax],al
  407a41:	push   es
  407a42:	or     DWORD PTR es:[eax],ebp
  407a45:	add    WORD PTR [eax],ax
  407a48:	push   es
  407a49:	or     BYTE PTR [eax],ch
  407a4b:	add    WORD PTR [eax],ax
  407a4e:	push   es
  407a4f:	fimul  WORD PTR ds:0x5506fe
  407a55:	add    BYTE PTR [esi],al
  407a57:	add    ebp,DWORD PTR [eax]
  407a59:	jmp    0x300:0xdc060000
  407a60:	pop    ss
  407a61:	push   ss
  407a62:	sub    BYTE PTR [ebp+0x0],ah
  407a65:	add    BYTE PTR [esi],al
  407a67:	fimul  WORD PTR ds:0x5b06fe
  407a6d:	add    BYTE PTR [esi],al
  407a6f:	add    ebp,DWORD PTR [eax]
  407a71:	jmp    0x2a17:0xdc060000
  407a78:	inc    ecx
  407a79:	xor    al,0x0
  407a7b:	add    BYTE PTR [eax+eax*1],al
  407a7e:	add    BYTE PTR [eax],al
  407a80:	add    BYTE PTR [eax],al
  407a82:	add    BYTE PTR [eax],al
  407a84:	cdq    
  407a85:	add    BYTE PTR [eax],al
  407a87:	add    BYTE PTR [ecx+0xd000000],bl
  407a8d:	add    BYTE PTR [eax],al
  407a8f:	add    BYTE PTR [edi],ah
  407a91:	add    BYTE PTR [eax],al
  407a93:	add    DWORD PTR [eax+eax*1],eax
  407a96:	add    BYTE PTR [eax],al
  407a98:	cmps   DWORD PTR ds:[esi],DWORD PTR es:[edi]
  407a99:	add    BYTE PTR [eax],al
  407a9b:	add    BYTE PTR [edx],cl
  407a9d:	add    BYTE PTR [eax],al
  407a9f:	add    BYTE PTR [ecx+0xd000000],dh
  407aa5:	add    BYTE PTR [eax],al
  407aa7:	add    BYTE PTR [edi],ah
  407aa9:	add    BYTE PTR [eax],al
  407aab:	add    DWORD PTR [ebx],ecx
  407aad:	xor    BYTE PTR [eax+eax*1],al
  407ab0:	mov    es,WORD PTR [eax]
  407ab2:	add    BYTE PTR [eax],al
  407ab4:	xchg   ebp,eax
  407ab5:	add    BYTE PTR [eax],al
  407ab7:	adc    DWORD PTR [edx],eax
  407ab9:	sbb    bl,BYTE PTR [eax+0x4a]
  407abc:	or     eax,DWORD PTR [edi]
  407abe:	adc    eax,DWORD PTR [esi]
  407ac0:	add    edx,DWORD PTR [ecx]
  407ac2:	push   es
  407ac3:	xor    al,0x9
  407ac5:	add    cl,BYTE PTR [edx+0x3]
  407ac8:	xor    eax,0x2b0c1704
  407acd:	add    dl,BYTE PTR [esi]
  407acf:	or     al,0x8
  407ad1:	shr    BYTE PTR [ecx*2+0x5134a02],cl
  407ad8:	add    edx,DWORD PTR [ecx]
  407ada:	add    eax,0x5b181f59
  407adf:	pop    es
  407ae0:	add    bl,BYTE PTR [esi]
  407ae2:	pop    eax
  407ae3:	dec    edx
  407ae4:	xor    eax,DWORD PTR [edi]
  407ae6:	add    dl,BYTE PTR [edi]
  407ae8:	sub    BYTE PTR [edx+0x0],ah
  407aeb:	add    BYTE PTR [esi],al
  407aed:	add    bl,BYTE PTR [edx]
  407aef:	pop    eax
  407af0:	dec    edx
  407af1:	or     bl,BYTE PTR [edi]
  407af3:	sbb    BYTE PTR [edx+0x2],bl
  407af6:	dec    edx
  407af7:	pop    eax
  407af8:	adc    eax,DWORD PTR [esi+eax*1]
  407afb:	or     eax,0xde022d06
  407b00:	adc    eax,DWORD PTR [esi]
  407b02:	adc    DWORD PTR [eax+ebp*1],eax
  407b05:	pop    ecx
  407b06:	add    BYTE PTR [eax],al
  407b08:	push   es
  407b09:	fimul  WORD PTR es:[eax]
  407b0c:	or     DWORD PTR [esi],eax
  407b0e:	sub    BYTE PTR [ebx],al
  407b10:	add    BYTE PTR [eax],al
  407b12:	push   es
  407b13:	fadd   QWORD PTR [edx]
  407b15:	sbb    bl,BYTE PTR [eax+0x2]
  407b18:	sbb    bl,BYTE PTR [eax+0x4a]
  407b1b:	pop    ds
  407b1c:	sbb    BYTE PTR [eax+0x54],bl
  407b1f:	sub    esp,DWORD PTR [edi+eax*1]
  407b22:	add    bl,BYTE PTR [esi]
  407b24:	pop    eax
  407b25:	dec    edx
  407b26:	xor    eax,DWORD PTR [edi]
  407b28:	add    dl,BYTE PTR [edi]
  407b2a:	sub    BYTE PTR [edx+0x0],ah
  407b2d:	add    BYTE PTR [esi],al
  407b2f:	add    ah,BYTE PTR ds:0x34a581a
  407b35:	sub    BYTE PTR [ecx+0x0],bh
  407b38:	add    BYTE PTR [esi],al
  407b3a:	add    bl,BYTE PTR [edx]
  407b3c:	pop    eax
  407b3d:	add    bl,BYTE PTR [edx]
  407b3f:	pop    eax
  407b40:	dec    edx
  407b41:	pop    ds
  407b42:	sbb    BYTE PTR [eax+0x54],bl
  407b45:	sub    al,BYTE PTR [eax]
  407b47:	add    BYTE PTR [ecx+0x1c],al
  407b4a:	add    BYTE PTR [eax],al
  407b4c:	add    al,0x0
  407b4e:	add    BYTE PTR [eax],al
  407b50:	inc    esp
  407b51:	add    BYTE PTR [eax],al
  407b53:	add    BYTE PTR [eax],dl
  407b55:	add    BYTE PTR [eax],al
  407b57:	add    BYTE PTR [eax+eax*1+0x0],dl
  407b5b:	add    BYTE PTR [eax],cl
  407b5d:	add    BYTE PTR [eax],al
  407b5f:	add    BYTE PTR [edi],ah
  407b61:	add    BYTE PTR [eax],al
  407b63:	add    DWORD PTR [ebx],ecx
  407b65:	xor    BYTE PTR [eax+eax*1],al
  407b68:	scas   eax,DWORD PTR es:[edi]
  407b69:	add    DWORD PTR [eax],eax
  407b6b:	add    BYTE PTR [esi+0x2110000],dl
  407b71:	and    BYTE PTR [eax+0x58000000],bh
  407b77:	dec    edx
  407b78:	cmp    DWORD PTR [ecx+0x2000001],esp
  407b7e:	pop    ds
  407b7f:	sub    BYTE PTR [eax+0xa],bl
  407b82:	push   es
  407b83:	adc    eax,DWORD PTR [edi]
  407b85:	adc    DWORD PTR [edi],eax
  407b87:	sbb    bl,BYTE PTR [eax+0x4a]
  407b8a:	adc    DWORD PTR [edi],eax
  407b8c:	dec    edx
  407b8d:	pop    ecx
  407b8e:	pop    ds
  407b8f:	sbb    BYTE PTR [ebx+0x39],bl
  407b92:	mov    BYTE PTR [ecx],al
  407b94:	add    BYTE PTR [eax],al
  407b96:	push   es
  407b97:	dec    edx
  407b98:	adc    eax,DWORD PTR [edi+ebx*1]
  407b9b:	adc    BYTE PTR [ecx],dl
  407b9d:	add    al,0x1f
  407b9f:	adc    al,0x58
  407ba1:	dec    edx
  407ba2:	xor    eax,0x4a041107
  407ba7:	adc    eax,DWORD PTR [esi]
  407ba9:	sub    eax,DWORD PTR [ecx+edx*1]
  407bac:	add    al,0x13
  407bae:	push   es
  407baf:	add    dl,BYTE PTR [ecx]
  407bb1:	push   es
  407bb2:	sub    BYTE PTR [edx],dl
  407bb4:	add    BYTE PTR [eax],al
  407bb6:	push   es
  407bb7:	adc    dl,BYTE PTR ds:0x76281412
  407bbd:	add    BYTE PTR [eax],al
  407bbf:	push   es
  407bc0:	adc    dl,BYTE PTR es:0x65281616
  407bc7:	add    BYTE PTR [eax],al
  407bc9:	push   es
  407bca:	adc    dl,BYTE PTR ds:0x58341f02
  407bd0:	push   ss
  407bd1:	adc    eax,0x6728
  407bd6:	push   es
  407bd7:	fimul  WORD PTR es:[esi]
  407bda:	inc    BYTE PTR [esi]
  407bdc:	pop    ebx
  407bdd:	add    BYTE PTR [eax],al
  407bdf:	push   es
  407be0:	adc    dl,BYTE PTR ds:0xea28
  407be6:	push   es
  407be7:	fadd   QWORD PTR [eax]
  407be9:	jg     0x407c0c
  407beb:	add    BYTE PTR [eax],al
  407bed:	add    al,0xc
  407bef:	or     BYTE PTR [edi],dl
  407bf1:	pop    eax
  407bf2:	or     al,0x8
  407bf4:	inc    esi
  407bf5:	sub    eax,0x217f08f8
  407bfa:	add    BYTE PTR [eax],al
  407bfc:	add    al,0x59
  407bfe:	adc    ecx,DWORD PTR ds:0x217f1512
  407c04:	add    BYTE PTR [eax],al
  407c06:	add    al,0x11
  407c08:	or     eax,0x6828
  407c0d:	push   es
  407c0e:	es push es
  407c10:	dec    edx
  407c11:	or     eax,0x1f09101f
  407c16:	adc    al,0x58
  407c18:	dec    edx
  407c19:	xor    eax,0x134a0906
  407c1e:	add    eax,0x1309032b
  407c23:	add    eax,0x5111312
  407c28:	sub    BYTE PTR [edi+0x0],dl
  407c2b:	add    BYTE PTR [esi],al
  407c2d:	adc    dl,BYTE PTR es:[edx]
  407c30:	adc    dl,BYTE PTR [ebx]
  407c32:	pop    ss
  407c33:	sub    BYTE PTR ds:0x13060001,bh
  407c39:	or     al,0x12
  407c3b:	adc    eax,0x15160c11
  407c40:	sub    BYTE PTR [ecx+0x0],ch
  407c43:	add    BYTE PTR [esi],al
  407c45:	fimul  WORD PTR es:[esi]
  407c48:	inc    BYTE PTR [esi]
  407c4a:	push   ebp
  407c4b:	add    BYTE PTR [eax],al
  407c4d:	push   es
  407c4e:	adc    dl,BYTE PTR [edx]
  407c50:	sub    dl,ch
  407c52:	add    BYTE PTR [eax],al
  407c54:	push   es
  407c55:	fadd   QWORD PTR [eax]
  407c57:	adc    dl,BYTE PTR [edx]
  407c59:	pop    ss
  407c5a:	push   ss
  407c5b:	sub    BYTE PTR [ebp+0x0],ah
  407c5e:	add    BYTE PTR [esi],al
  407c60:	fimul  WORD PTR [esi]
  407c62:	inc    BYTE PTR [esi]
  407c64:	pop    ebx
  407c65:	add    BYTE PTR [eax],al
  407c67:	push   es
  407c68:	adc    dl,BYTE PTR [edx]
  407c6a:	sub    dl,ch
  407c6c:	add    BYTE PTR [eax],al
  407c6e:	push   es
  407c6f:	(bad)  
  407c71:	push   cs
  407c72:	inc    BYTE PTR [esi]
  407c74:	push   ebp
  407c75:	add    BYTE PTR [eax],al
  407c77:	push   es
  407c78:	adc    dl,BYTE PTR [ebx]
  407c7a:	sub    dl,ch
  407c7c:	add    BYTE PTR [eax],al
  407c7e:	push   es
  407c7f:	fadd   QWORD PTR [eax]
  407c81:	adc    dl,BYTE PTR [ebx]
  407c83:	pop    ss
  407c84:	push   ss
  407c85:	sub    BYTE PTR [ebp+0x0],ah
  407c88:	add    BYTE PTR [esi],al
  407c8a:	fimul  WORD PTR [esi]
  407c8c:	inc    BYTE PTR [esi]
  407c8e:	pop    ebx
  407c8f:	add    BYTE PTR [eax],al
  407c91:	push   es
  407c92:	adc    dl,BYTE PTR [ebx]
  407c94:	sub    dl,ch
  407c96:	add    BYTE PTR [eax],al
  407c98:	push   es
  407c99:	fdivr  QWORD PTR [edi+0x22]
  407c9c:	add    BYTE PTR [eax],al
  407c9e:	add    al,0xb
  407ca0:	pop    es
  407ca1:	pop    ss
  407ca2:	pop    eax
  407ca3:	or     eax,DWORD PTR [edi]
  407ca5:	inc    esi
  407ca6:	sub    eax,0x227f07f8
  407cab:	add    BYTE PTR [eax],al
  407cad:	add    al,0x59
  407caf:	adc    ecx,DWORD PTR [ebx]
  407cb1:	adc    dl,BYTE PTR ds:0x227f
  407cb7:	add    al,0x11
  407cb9:	or     ebp,DWORD PTR [eax]
  407cbb:	push   0x26060000
  407cc0:	adc    dl,BYTE PTR [ecx]
  407cc2:	adc    edx,DWORD PTR [eax]
  407cc4:	adc    dl,BYTE PTR [ecx]
  407cc6:	adc    dl,BYTE PTR ds:0x5928
  407ccc:	push   es
  407ccd:	adc    ecx,DWORD PTR [edx]
  407ccf:	add    dl,BYTE PTR [ecx]
  407cd1:	or     ch,BYTE PTR [eax]
  407cd3:	sub    al,0x0
  407cd5:	add    BYTE PTR [esi],al
  407cd7:	es push es
  407cd9:	adc    cl,BYTE PTR [edi]
  407cdb:	sub    BYTE PTR [ecx+0x0],dl
  407cde:	add    BYTE PTR [esi],al
  407ce0:	adc    ecx,DWORD PTR [ecx]
  407ce2:	adc    cl,BYTE PTR [eax]
  407ce4:	adc    DWORD PTR [ecx],ecx
  407ce6:	sbb    bh,dh
  407ce8:	pop    ss
  407ce9:	push   es
  407cea:	adc    cl,BYTE PTR [esi]
  407cec:	adc    DWORD PTR [eax],ecx
  407cee:	sub    BYTE PTR [esi+0x0],cl
  407cf1:	add    BYTE PTR [esi],al
  407cf3:	fimul  WORD PTR es:[esi]
  407cf6:	inc    BYTE PTR [esi]
  407cf8:	push   ebp
  407cf9:	add    BYTE PTR [eax],al
  407cfb:	push   es
  407cfc:	adc    dl,BYTE PTR ds:0xea28
  407d02:	push   es
  407d03:	fadd   QWORD PTR [eax]
  407d05:	adc    dl,BYTE PTR ds:0x65281617
  407d0b:	add    BYTE PTR [eax],al
  407d0d:	push   es
  407d0e:	fimul  WORD PTR [esi]
  407d10:	inc    BYTE PTR [esi]
  407d12:	pop    ebx
  407d13:	add    BYTE PTR [eax],al
  407d15:	push   es
  407d16:	adc    dl,BYTE PTR ds:0xea28
  407d1c:	push   es
  407d1d:	fsubr  QWORD PTR [edx]
  407d1f:	add    BYTE PTR [ecx-0x54],al
  407d22:	add    BYTE PTR [eax],al
  407d24:	add    al,0x0
  407d26:	add    BYTE PTR [eax],al
  407d28:	push   ecx
  407d29:	add    BYTE PTR [eax],al
  407d2b:	add    BYTE PTR [ecx],bl
  407d2d:	add    BYTE PTR [eax],al
  407d2f:	add    BYTE PTR [edx+0x0],ch
  407d32:	add    BYTE PTR [eax],al
  407d34:	push   cs
  407d35:	add    BYTE PTR [eax],al
  407d37:	add    BYTE PTR [edi],ah
  407d39:	add    BYTE PTR [eax],al
  407d3b:	add    DWORD PTR [eax+eax*1],eax
  407d3e:	add    BYTE PTR [eax],al
  407d40:	retf   0x0
  407d43:	add    BYTE PTR [esi],cl
  407d45:	add    BYTE PTR [eax],al
  407d47:	add    al,bl
  407d49:	add    BYTE PTR [eax],al
  407d4b:	add    BYTE PTR [esi],cl
  407d4d:	add    BYTE PTR [eax],al
  407d4f:	add    BYTE PTR [edi],ah
  407d51:	add    BYTE PTR [eax],al
  407d53:	add    DWORD PTR [eax+eax*1],eax
  407d56:	add    BYTE PTR [eax],al
  407d58:	out    0x0,eax
  407d5a:	add    BYTE PTR [eax],al
  407d5c:	or     eax,DWORD PTR [eax]
  407d5e:	add    BYTE PTR [eax],al
  407d60:	repnz add BYTE PTR [eax],al
  407d63:	add    BYTE PTR [esi],cl
  407d65:	add    BYTE PTR [eax],al
  407d67:	add    BYTE PTR [edi],ah
  407d69:	add    BYTE PTR [eax],al
  407d6b:	add    DWORD PTR [eax+eax*1],eax
  407d6e:	add    BYTE PTR [eax],al
  407d70:	mov    esi,0x44000000
  407d75:	add    BYTE PTR [eax],al
  407d77:	add    BYTE PTR [edx],al
  407d79:	add    DWORD PTR [eax],eax
  407d7b:	add    BYTE PTR [esi],cl
  407d7d:	add    BYTE PTR [eax],al
  407d7f:	add    BYTE PTR [edi],ah
  407d81:	add    BYTE PTR [eax],al
  407d83:	add    DWORD PTR [eax+eax*1],eax
  407d86:	add    BYTE PTR [eax],al
  407d88:	adc    DWORD PTR [ecx],eax
  407d8a:	add    BYTE PTR [eax],al
  407d8c:	or     eax,DWORD PTR [eax]
  407d8e:	add    BYTE PTR [eax],al
  407d90:	sbb    al,0x1
  407d92:	add    BYTE PTR [eax],al
  407d94:	push   cs
  407d95:	add    BYTE PTR [eax],al
  407d97:	add    BYTE PTR [edi],ah
  407d99:	add    BYTE PTR [eax],al
  407d9b:	add    DWORD PTR [eax+eax*1],eax
  407d9e:	add    BYTE PTR [eax],al
  407da0:	jns    0x407da2
  407da2:	add    BYTE PTR [eax],al
  407da4:	or     eax,0x86000001
  407da9:	add    DWORD PTR [eax],eax
  407dab:	add    BYTE PTR [esi],cl
  407dad:	add    BYTE PTR [eax],al
  407daf:	add    BYTE PTR [edi],ah
  407db1:	add    BYTE PTR [eax],al
  407db3:	add    DWORD PTR [eax+eax*1],eax
  407db6:	add    BYTE PTR [eax],al
  407db8:	xchg   ebp,eax
  407db9:	add    DWORD PTR [eax],eax
  407dbb:	add    BYTE PTR [ebx],cl
  407dbd:	add    BYTE PTR [eax],al
  407dbf:	add    BYTE PTR [eax+0xe000001],ah
  407dc5:	add    BYTE PTR [eax],al
  407dc7:	add    BYTE PTR [edi],ah
  407dc9:	add    BYTE PTR [eax],al
  407dcb:	add    DWORD PTR [ebx],ecx
  407dcd:	xor    BYTE PTR ds:0x25100,al
  407dd3:	add    BYTE PTR [ebx+0x2110000],bl
  407dd9:	pop    ds
  407dda:	sub    BYTE PTR [eax+0xa],bl
  407ddd:	push   es
  407dde:	or     eax,0x4a581a09
  407de3:	or     DWORD PTR [edx+0x59],ecx
  407de6:	pop    ds
  407de7:	sbb    BYTE PTR [ebx+0x16],bl
  407dea:	xor    eax,0xde2cde02
  407def:	or     eax,0x5506fe
  407df4:	add    BYTE PTR [esi],al
  407df6:	add    ebp,DWORD PTR [eax]
  407df8:	jmp    0x300:0xdc060000
  407dff:	pop    ss
  407e00:	push   ss
  407e01:	sub    BYTE PTR [ebp+0x0],ah
  407e04:	add    BYTE PTR [esi],al
  407e06:	fimul  WORD PTR ds:0x5b06fe
  407e0c:	add    BYTE PTR [esi],al
  407e0e:	add    ebp,DWORD PTR [eax]
  407e10:	jmp    0xee38:0xdc060000
  407e17:	add    DWORD PTR [eax],eax
  407e19:	add    BYTE PTR [eax],al
  407e1b:	add    bl,BYTE PTR [edi]
  407e1d:	pop    esp
  407e1e:	pop    eax
  407e1f:	dec    edx
  407e20:	push   ss
  407e21:	inc    ebx
  407e22:	test   eax,0x12000001
  407e27:	adc    DWORD PTR [edi+0x23],edi
  407e2a:	add    BYTE PTR [eax],al
  407e2c:	add    al,0x28
  407e2e:	push   edi
  407e2f:	add    BYTE PTR [eax],al
  407e31:	push   es
  407e32:	adc    dl,BYTE PTR es:[eax]
  407e35:	jg     0x407e5b
  407e37:	add    BYTE PTR [eax],al
  407e39:	add    al,0x28
  407e3b:	push   edi
  407e3c:	add    BYTE PTR [eax],al
  407e3e:	push   es
  407e3f:	es jle 0x407e4c
  407e42:	add    DWORD PTR [eax],eax
  407e44:	add    al,0x4a
  407e46:	sub    BYTE PTR [ebx],bh
  407e48:	add    DWORD PTR [eax],eax
  407e4a:	push   es
  407e4b:	adc    dl,BYTE PTR [eax]
  407e4d:	adc    dl,BYTE PTR [ecx]
  407e4f:	push   ss
  407e50:	push   es
  407e51:	sub    BYTE PTR [ecx+eax*1],bh
  407e54:	add    BYTE PTR [esi],al
  407e56:	fimul  WORD PTR [esi]
  407e58:	inc    BYTE PTR [esi]
  407e5a:	push   ebp
  407e5b:	add    BYTE PTR [eax],al
  407e5d:	push   es
  407e5e:	adc    dl,BYTE PTR [eax]
  407e60:	sub    dl,ch
  407e62:	add    BYTE PTR [eax],al
  407e64:	push   es
  407e65:	fadd   QWORD PTR [eax]
  407e67:	adc    dl,BYTE PTR [eax]
  407e69:	pop    ss
  407e6a:	push   ss
  407e6b:	sub    BYTE PTR [ebp+0x0],ah
  407e6e:	add    BYTE PTR [esi],al
  407e70:	fimul  WORD PTR [esi]
  407e72:	inc    BYTE PTR [esi]
  407e74:	pop    ebx
  407e75:	add    BYTE PTR [eax],al
  407e77:	push   es
  407e78:	adc    dl,BYTE PTR [eax]
  407e7a:	sub    dl,ch
  407e7c:	add    BYTE PTR [eax],al
  407e7e:	push   es
  407e7f:	(bad)  
  407e81:	push   cs
  407e82:	inc    BYTE PTR [esi]
  407e84:	push   ebp
  407e85:	add    BYTE PTR [eax],al
  407e87:	push   es
  407e88:	adc    dl,BYTE PTR [ecx]
  407e8a:	sub    dl,ch
  407e8c:	add    BYTE PTR [eax],al
  407e8e:	push   es
  407e8f:	fadd   QWORD PTR [eax]
  407e91:	adc    dl,BYTE PTR [ecx]
  407e93:	pop    ss
  407e94:	push   ss
  407e95:	sub    BYTE PTR [ebp+0x0],ah
  407e98:	add    BYTE PTR [esi],al
  407e9a:	fimul  WORD PTR [esi]
  407e9c:	inc    BYTE PTR [esi]
  407e9e:	pop    ebx
  407e9f:	add    BYTE PTR [eax],al
  407ea1:	push   es
  407ea2:	adc    dl,BYTE PTR [ecx]
  407ea4:	sub    dl,ch
  407ea6:	add    BYTE PTR [eax],al
  407ea8:	push   es
  407ea9:	fadd   QWORD PTR [esi]
  407eab:	adc    cl,BYTE PTR [edi]
  407ead:	sub    BYTE PTR [ecx+0x0],dl
  407eb0:	add    BYTE PTR [esi],al
  407eb2:	adc    cl,BYTE PTR es:[esi]
  407eb5:	sub    BYTE PTR [eax+eax*1+0x0],ch
  407eb9:	push   es
  407eba:	add    BYTE PTR es:[esi],al
  407ebd:	adc    cl,BYTE PTR ds:0x5028
  407ec3:	push   es
  407ec4:	adc    ecx,DWORD PTR [eax]
  407ec6:	adc    cl,BYTE PTR [edi]
  407ec8:	dec    edx
  407ec9:	adc    DWORD PTR [eax],ecx
  407ecb:	dec    edx
  407ecc:	inc    BYTE PTR [ecx]
  407ece:	rcl    BYTE PTR [esi],cl
  407ed0:	inc    BYTE PTR [ecx]
  407ed2:	shr    BYTE PTR [esp+eiz*2],cl
  407ed5:	pop    ds
  407ed6:	adc    BYTE PTR [edx],dl
  407ed8:	cmovp  ebx,DWORD PTR [edi]
  407edb:	adc    al,0x58
  407edd:	dec    edx
  407ede:	xor    eax,0x4a0f1206
  407ee3:	dec    edx
  407ee4:	sub    eax,DWORD PTR [ebx]
  407ee6:	adc    cl,BYTE PTR [edi]
  407ee8:	dec    edx
  407ee9:	adc    cl,BYTE PTR [eax+ebp*1]
  407eec:	or     DWORD PTR [eax],eax
  407eee:	add    BYTE PTR [esi],al
  407ef0:	add    bl,BYTE PTR [edi]
  407ef2:	dec    esp
  407ef3:	pop    eax
  407ef4:	or     al,0x1f
  407ef6:	adc    BYTE PTR [eax],cl
  407ef8:	pop    ds
  407ef9:	adc    al,0x58
  407efb:	dec    edx
  407efc:	xor    eax,0x2b4a0804
  407f01:	add    DWORD PTR [eax],ecx
  407f03:	adc    cl,BYTE PTR [eax+ebp*1]
  407f06:	cmp    al,BYTE PTR [ecx]
  407f08:	add    BYTE PTR [esi],al
  407f0a:	sub    eax,0x4a0f1222
  407f0f:	adc    eax,DWORD PTR [edi]
  407f11:	adc    cl,BYTE PTR [esi]
  407f13:	adc    cl,BYTE PTR [ebx]
  407f15:	sub    BYTE PTR [eax+eax*1+0x0],bl
  407f19:	push   es
  407f1a:	adc    eax,DWORD PTR [esi]
  407f1c:	adc    al,BYTE PTR ds:0xfe1a0611
  407f22:	pop    ss
  407f23:	adc    cl,BYTE PTR [esi]
  407f25:	adc    DWORD PTR ds:0x75280711,eax
  407f2b:	add    BYTE PTR [eax],al
  407f2d:	push   es
  407f2e:	adc    cl,BYTE PTR [edi]
  407f30:	adc    cl,BYTE PTR [edi]
  407f32:	dec    edx
  407f33:	pop    ds
  407f34:	sbb    BYTE PTR [eax+0x54],bl
  407f37:	fiadd  WORD PTR [edx+0x4d2806]
  407f3d:	add    BYTE PTR [esi],al
  407f3f:	push   es
  407f40:	or     eax,DWORD PTR [edi]
  407f42:	push   ds
  407f43:	pop    eax
  407f44:	dec    edx
  407f45:	pop    es
  407f46:	dec    edx
  407f47:	pop    ecx
  407f48:	pop    ds
  407f49:	sbb    BYTE PTR [ebx+0x12],bl
  407f4c:	push   cs
  407f4d:	sbb    bl,BYTE PTR [eax+0x4a]
  407f50:	xor    al,0x21
  407f52:	and    BYTE PTR [edx+0x120aaaaa],ch
  407f58:	push   cs
  407f59:	sbb    bl,BYTE PTR [eax+0x4a]
  407f5c:	xor    al,0xa
  407f5e:	jg     0x407f8c
  407f60:	add    BYTE PTR [eax],al
  407f62:	add    al,0x28
  407f64:	pop    es
  407f65:	add    DWORD PTR [eax],eax
  407f67:	push   es
  407f68:	pop    es
  407f69:	adc    cl,BYTE PTR [esi]
  407f6b:	sbb    bl,BYTE PTR [eax+0x4a]
  407f6e:	sub    BYTE PTR [ebx+0x0],ah
  407f71:	add    BYTE PTR [esi],al
  407f73:	adc    cl,BYTE PTR [esi]
  407f75:	adc    cl,BYTE PTR [edx]
  407f77:	sub    BYTE PTR [edx+0x0],cl
  407f7a:	add    BYTE PTR [esi],al
  407f7c:	adc    cl,BYTE PTR es:[esi]
  407f7f:	adc    cl,BYTE PTR [ecx]
  407f81:	sub    BYTE PTR [ecx+0x0],cl
  407f84:	add    BYTE PTR [esi],al
  407f86:	adc    eax,DWORD PTR [edx+edx*1]
  407f89:	or     cl,BYTE PTR [edx+0x11]
  407f8c:	add    al,0x4a
  407f8e:	inc    BYTE PTR [ecx]
  407f90:	rcl    BYTE PTR [esi],cl
  407f92:	inc    BYTE PTR [ecx]
  407f94:	shr    BYTE PTR [esp+edx*1],cl
  407f97:	push   es
  407f98:	adc    cl,BYTE PTR [edx]
  407f9a:	dec    edx
  407f9b:	push   ds
  407f9c:	pop    eax
  407f9d:	sub    BYTE PTR [edi+0x0],cl
  407fa0:	add    BYTE PTR [esi],al
  407fa2:	adc    cl,BYTE PTR [edx]
  407fa4:	adc    cl,BYTE PTR [edx]
  407fa6:	dec    edx
  407fa7:	dec    edx
  407fa8:	push   esp
  407fa9:	sub    edx,edx
  407fab:	add    bl,BYTE PTR [edi]
  407fad:	xor    al,0x58
  407faf:	add    ebp,DWORD PTR [eax]
  407fb1:	push   esp
  407fb2:	add    BYTE PTR [eax],al
  407fb4:	push   es
  407fb5:	fimul  WORD PTR es:[esi]
  407fb8:	inc    BYTE PTR [esi]
  407fba:	dec    ebx
  407fbb:	add    BYTE PTR [eax],al
  407fbd:	push   es
  407fbe:	adc    cl,BYTE PTR [esi]
  407fc0:	sub    dl,ch
  407fc2:	add    BYTE PTR [eax],al
  407fc4:	push   es
  407fc5:	fcom   QWORD PTR [edx]
  407fc7:	push   cs
  407fc8:	sub    BYTE PTR [ebx+0x0],cl
  407fcb:	add    BYTE PTR [esi],al
  407fcd:	sub    edx,DWORD PTR [edx]
  407fcf:	push   ss
  407fd0:	jg     0x407ff8
  407fd2:	add    BYTE PTR [eax],al
  407fd4:	add    al,0x7f
  407fd6:	and    eax,0x16040000
  407fdb:	sub    BYTE PTR [eax+0x1],ah
  407fde:	add    BYTE PTR [esi],al
  407fe0:	fimul  WORD PTR es:0x5506fe
  407fe7:	add    BYTE PTR [esi],al
  407fe9:	add    ebp,DWORD PTR [eax]
  407feb:	jmp    0x300:0xdc060000
  407ff2:	pop    ss
  407ff3:	push   ss
  407ff4:	sub    BYTE PTR [ebp+0x0],ah
  407ff7:	add    BYTE PTR [esi],al
  407ff9:	fimul  WORD PTR ds:0x5b06fe
  407fff:	add    BYTE PTR [esi],al
  408001:	add    ebp,DWORD PTR [eax]
  408003:	jmp    0xde00:0xdc060000
  40800a:	sbb    eax,0x4b06fe
  40800f:	add    BYTE PTR [esi],al
  408011:	adc    cl,BYTE PTR [esi]
  408013:	sub    dl,ch
  408015:	add    BYTE PTR [eax],al
  408017:	push   es
  408018:	(bad)  
  40801a:	or     eax,0x5506fe
  40801f:	add    BYTE PTR [esi],al
  408021:	add    ebp,DWORD PTR [eax]
  408023:	jmp    0x2a:0xdc060000
  40802a:	add    BYTE PTR [eax],al
  40802c:	inc    ecx
  40802d:	or     al,0x1
  40802f:	add    BYTE PTR [eax+eax*1],al
  408032:	add    BYTE PTR [eax],al
  408034:	add    BYTE PTR [eax],al
  408036:	add    BYTE PTR [eax],al
  408038:	sbb    BYTE PTR [eax],al
  40803a:	add    BYTE PTR [eax],al
  40803c:	sbb    BYTE PTR [eax],al
  40803e:	add    BYTE PTR [eax],al
  408040:	or     eax,0x27000000
  408045:	add    BYTE PTR [eax],al
  408047:	add    DWORD PTR [eax+eax*1],eax
  40804a:	add    BYTE PTR [eax],al
  40804c:	add    BYTE PTR es:[eax],al
  40804f:	add    BYTE PTR [edx],cl
  408051:	add    BYTE PTR [eax],al
  408053:	add    BYTE PTR [eax],dh
  408055:	add    BYTE PTR [eax],al
  408057:	add    BYTE PTR ds:0x27000000,cl
  40805d:	add    BYTE PTR [eax],al
  40805f:	add    DWORD PTR [eax+eax*1],eax
  408062:	add    BYTE PTR [eax],al
  408064:	push   0x18000000
  408069:	add    BYTE PTR [eax],al
  40806b:	add    BYTE PTR [eax+0xe000000],al
  408071:	add    BYTE PTR [eax],al
  408073:	add    BYTE PTR [edi],ah
  408075:	add    BYTE PTR [eax],al
  408077:	add    DWORD PTR [eax+eax*1],eax
  40807a:	add    BYTE PTR [eax],al
  40807c:	pop    DWORD PTR [eax]
  40807e:	add    BYTE PTR [eax],al
  408080:	or     eax,DWORD PTR [eax]
  408082:	add    BYTE PTR [eax],al
  408084:	call   0x0:0xe000000
  40808b:	add    BYTE PTR [edi],ah
  40808d:	add    BYTE PTR [eax],al
  40808f:	add    DWORD PTR [eax+eax*1],eax
  408092:	add    BYTE PTR [eax],al
  408094:	pop    ebx
  408095:	add    BYTE PTR [eax],al
  408097:	add    BYTE PTR [edi+0x0],cl
  40809a:	add    BYTE PTR [eax],al
  40809c:	stos   BYTE PTR es:[edi],al
  40809d:	add    BYTE PTR [eax],al
  40809f:	add    BYTE PTR [esi],cl
  4080a1:	add    BYTE PTR [eax],al
  4080a3:	add    BYTE PTR [edi],ah
  4080a5:	add    BYTE PTR [eax],al
  4080a7:	add    DWORD PTR [eax+eax*1],eax
  4080aa:	add    BYTE PTR [eax],al
  4080ac:	mov    ecx,0xb000000
  4080b1:	add    BYTE PTR [eax],al
  4080b3:	add    ah,al
  4080b5:	add    BYTE PTR [eax],al
  4080b7:	add    BYTE PTR [esi],cl
  4080b9:	add    BYTE PTR [eax],al
  4080bb:	add    BYTE PTR [edi],ah
  4080bd:	add    BYTE PTR [eax],al
  4080bf:	add    DWORD PTR [eax+eax*1],eax
  4080c2:	add    BYTE PTR [eax],al
  4080c4:	in     al,0x0
  4080c6:	add    BYTE PTR [eax],al
  4080c8:	cld    
  4080c9:	add    BYTE PTR [eax],al
  4080cb:	add    al,ah
  4080cd:	add    DWORD PTR [eax],eax
  4080cf:	add    BYTE PTR [esi],cl
  4080d1:	add    BYTE PTR [eax],al
  4080d3:	add    BYTE PTR [edi],ah
  4080d5:	add    BYTE PTR [eax],al
  4080d7:	add    DWORD PTR [eax+eax*1],eax
  4080da:	add    BYTE PTR [eax],al
  4080dc:	inc    ebx
  4080dd:	add    BYTE PTR [eax],al
  4080df:	add    al,cl
  4080e1:	add    DWORD PTR [eax],eax
  4080e3:	add    BYTE PTR [ebx],cl
  4080e5:	add    al,BYTE PTR [eax]
  4080e7:	add    BYTE PTR ds:0x27000000,cl
  4080ed:	add    BYTE PTR [eax],al
  4080ef:	add    DWORD PTR [eax+eax*1],eax
  4080f2:	add    BYTE PTR [eax],al
  4080f4:	sbb    DWORD PTR [edx],eax
  4080f6:	add    BYTE PTR [eax],al
  4080f8:	or     al,BYTE PTR [eax]
  4080fa:	add    BYTE PTR [eax],al
  4080fc:	and    eax,DWORD PTR [edx]
  4080fe:	add    BYTE PTR [eax],al
  408100:	or     eax,0x27000000
  408105:	add    BYTE PTR [eax],al
  408107:	add    DWORD PTR [eax+eax*1],eax
  40810a:	add    BYTE PTR [eax],al
  40810c:	xor    DWORD PTR [edx],eax
  40810e:	add    BYTE PTR [eax],al
  408110:	add    al,BYTE PTR [eax]
  408112:	add    BYTE PTR [eax],al
  408114:	xor    eax,DWORD PTR [edx]
  408116:	add    BYTE PTR [eax],al
  408118:	push   cs
  408119:	add    BYTE PTR [eax],al
  40811b:	add    BYTE PTR [edi],ah
  40811d:	add    BYTE PTR [eax],al
  40811f:	add    DWORD PTR [eax+eax*1],eax
  408122:	add    BYTE PTR [eax],al
  408124:	xor    DWORD PTR [edx],eax
  408126:	add    BYTE PTR [eax],al
  408128:	adc    al,BYTE PTR [eax]
  40812a:	add    BYTE PTR [eax],al
  40812c:	inc    ebx
  40812d:	add    al,BYTE PTR [eax]
  40812f:	add    BYTE PTR ds:0x27000000,cl
  408135:	add    BYTE PTR [eax],al
  408137:	add    DWORD PTR [ebx],eax
  408139:	xor    BYTE PTR [eax+eax*1],al
  40813c:	dec    ecx
  40813d:	add    BYTE PTR [eax],al
  40813f:	add    BYTE PTR [eax+eax*1],cl
  408142:	add    BYTE PTR [ecx],dl
  408144:	add    ebx,DWORD PTR [eax]
  408146:	pop    edi
  408147:	sub    al,0x28
  408149:	add    bl,BYTE PTR [edx]
  40814b:	pop    ecx
  40814c:	or     al,BYTE PTR [edx]
  40814e:	pop    ds
  40814f:	or     al,0x6
  408151:	dec    edx
  408152:	inc    BYTE PTR [esi]
  408154:	add    DWORD PTR [eax],eax
  408156:	add    BYTE PTR [esi],al
  408158:	sub    bl,ch
  40815a:	add    BYTE PTR [eax],al
  40815c:	push   es
  40815d:	add    edx,DWORD PTR [edi]
  40815f:	pop    edi
  408160:	sub    al,0xd
  408162:	push   es
  408163:	and    eax,0x5a0c1f4a
  408168:	sbb    bl,BYTE PTR [eax+0x28]
  40816b:	jb     0x40816e
  40816d:	add    BYTE PTR [esi],al
  40816f:	push   es
  408170:	sub    al,BYTE PTR [edx]
  408172:	jg     0x4081cc
  408174:	add    BYTE PTR [eax],al
  408176:	add    al,0x54
  408178:	add    bl,BYTE PTR [edx]
  40817a:	pop    eax
  40817b:	sub    BYTE PTR [ecx+eax*1+0x0],dh
  40817f:	push   es
  408180:	add    edx,DWORD PTR [edi]
  408182:	pop    edi
  408183:	sub    al,0x6
  408185:	add    ch,BYTE PTR [eax]
  408187:	jae    0x40818a
  408189:	add    BYTE PTR [esi],al
  40818b:	add    ch,BYTE PTR [edx]
  40818d:	jmp    DWORD PTR ds:0x430044
  408193:	int3   
  408194:	add    esi,DWORD PTR [eax]
  408196:	add    al,0x0
  408198:	dec    ebx
  408199:	add    BYTE PTR [eax],al
  40819b:	add    BYTE PTR [eax+eax*1+0x18031100],bl
  4081a2:	pop    edi
  4081a3:	sub    al,0x2e
  4081a5:	add    bl,BYTE PTR [edx]
  4081a7:	pop    ecx
  4081a8:	or     al,BYTE PTR [edx]
  4081aa:	and    BYTE PTR [eax+0x6000001],bl
  4081b0:	dec    edx
  4081b1:	inc    BYTE PTR [esi]
  4081b3:	or     eax,0x28060000
  4081b8:	jmp    0x4081ba
  4081ba:	add    BYTE PTR [esi],al
  4081bc:	add    edx,DWORD PTR [edi]
  4081be:	pop    edi
  4081bf:	sub    al,0x10
  4081c1:	push   es
  4081c2:	and    eax,0x198204a
  4081c7:	add    BYTE PTR [eax],al
  4081c9:	pop    edx
  4081ca:	sbb    bl,BYTE PTR [eax+0x28]
  4081cd:	jb     0x4081d0
  4081cf:	add    BYTE PTR [esi],al
  4081d1:	push   es
  4081d2:	sub    al,BYTE PTR [edx]
  4081d4:	sub    BYTE PTR ds:0x3060000,cl
  4081da:	pop    ss
  4081db:	pop    edi
  4081dc:	sub    al,0xb
  4081de:	add    ah,BYTE PTR [eax]
  4081e0:	cwde   
  4081e1:	add    DWORD PTR [eax],eax
  4081e3:	add    BYTE PTR [eax],ch
  4081e5:	ins    DWORD PTR es:[edi],dx
  4081e6:	add    DWORD PTR [eax],eax
  4081e8:	push   es
  4081e9:	add    ch,BYTE PTR [edx]
  4081eb:	add    bh,bh
  4081ed:	and    eax,0x430048
  4081f2:	int3   
  4081f3:	int3   
  4081f4:	add    esi,DWORD PTR [eax]
  4081f6:	add    BYTE PTR [eax],al
  4081f8:	add    DWORD PTR [eax],eax
  4081fa:	add    BYTE PTR [eax],al
  4081fc:	add    BYTE PTR [eax],al
  4081fe:	add    BYTE PTR [eax],al
  408200:	sub    bh,bh
  408202:	and    eax,0x43004c
  408207:	int3   
  408208:	add    esi,DWORD PTR [eax]
  40820a:	add    eax,DWORD PTR [eax]
  40820c:	adc    DWORD PTR [eax],eax
  40820e:	add    BYTE PTR [eax],al
  408210:	push   ebp
  408211:	add    BYTE PTR [eax],al
  408213:	adc    DWORD PTR [ebx],eax
  408215:	add    bl,BYTE PTR [ecx+0xa]
  408218:	add    al,0x2
  40821a:	push   es
  40821b:	sub    BYTE PTR [ecx+0x1],dh
  40821e:	add    BYTE PTR [esi],al
  408220:	es push es
  408222:	add    al,0x58
  408224:	sub    cl,ah
  408226:	int3   
  408227:	int3   
  408228:	add    esi,DWORD PTR [eax]
  40822a:	add    eax,DWORD PTR [eax]
  40822c:	or     BYTE PTR [eax],al
  40822e:	add    BYTE PTR [eax],al
  408230:	add    BYTE PTR [eax],al
  408232:	add    BYTE PTR [eax],al
  408234:	add    eax,DWORD PTR [edx]
  408236:	sbb    bl,BYTE PTR [eax+0x4a]
  408239:	push   esp
  40823a:	add    ebp,DWORD PTR [edx]
  40823c:	add    esi,DWORD PTR [eax]
  40823e:	add    eax,DWORD PTR [eax]
  408240:	pop    ss
  408241:	add    BYTE PTR [eax],al
  408243:	add    BYTE PTR [ebp+0x0],dl
  408246:	add    BYTE PTR [ecx],dl
  408248:	sidtd  [edx+0xf]
  40824c:	add    BYTE PTR [edx+0x59],cl
  40824f:	or     al,BYTE PTR [edi+ecx*1]
  408252:	add    BYTE PTR [edx+0x6],cl
  408255:	sub    BYTE PTR [ecx+0x1],dh
  408258:	add    BYTE PTR [esi],al
  40825a:	es push es
  40825c:	add    al,0x58
  40825e:	sub    cl,ah
  408260:	add    esi,DWORD PTR [eax]
  408262:	add    al,BYTE PTR [eax]
  408264:	test   BYTE PTR [eax],al
  408266:	add    BYTE PTR [eax],al
  408268:	cmps   DWORD PTR ds:[esi],DWORD PTR es:[edi]
  408269:	add    BYTE PTR [eax],al
  40826b:	adc    DWORD PTR [ebx],eax
  40826d:	adc    eax,DWORD PTR ds:0x2041302
  408273:	add    ebp,DWORD PTR [esi]
  408275:	sub    BYTE PTR [ecx],dl
  408277:	add    eax,0x513591a
  40827c:	adc    DWORD PTR [ecx+edx*1],eax
  40827f:	add    eax,0x4111c2e
  408284:	dec    edx
  408285:	adc    ecx,DWORD PTR [eax]
  408287:	adc    DWORD PTR [ecx+edx*1],eax
  40828a:	add    eax,0x511544a
  40828f:	adc    DWORD PTR [eax],ecx
  408291:	push   esp
  408292:	adc    DWORD PTR [edx+ebx*1],eax
  408295:	pop    eax
  408296:	adc    eax,DWORD PTR [ecx+edx*1]
  408299:	add    al,0x11
  40829b:	add    eax,0xd04d833
  4082a0:	add    ecx,DWORD PTR [ebx+eax*1]
  4082a3:	add    al,0x2e
  4082a5:	sbb    al,0x9
  4082a7:	sbb    bl,BYTE PTR [ecx+0xd]
  4082aa:	or     BYTE PTR [ecx],cl
  4082ac:	cs adc al,0x8
  4082af:	dec    edx
  4082b0:	adc    eax,DWORD PTR [edi]
  4082b2:	or     BYTE PTR [ecx],cl
  4082b4:	dec    edx
  4082b5:	push   esp
  4082b6:	or     DWORD PTR [ecx],edx
  4082b8:	pop    es
  4082b9:	push   esp
  4082ba:	or     BYTE PTR [edx],bl
  4082bc:	pop    eax
  4082bd:	or     al,0x8
  4082bf:	or     DWORD PTR [ebx],esi
  4082c1:	in     al,0x4
  4082c3:	or     eax,DWORD PTR [edx]
  4082c5:	or     al,BYTE PTR [edx]
  4082c7:	add    al,0x2e
  4082c9:	sbb    al,0x7
  4082cb:	sbb    bl,BYTE PTR [ecx+0xb]
  4082ce:	push   es
  4082cf:	pop    es
  4082d0:	cs adc al,0x6
  4082d3:	dec    edx
  4082d4:	adc    eax,DWORD PTR [esi]
  4082d6:	push   es
  4082d7:	pop    es
  4082d8:	dec    edx
  4082d9:	push   esp
  4082da:	pop    es
  4082db:	adc    DWORD PTR [esi],eax
  4082dd:	push   esp
  4082de:	push   es
  4082df:	sbb    bl,BYTE PTR [eax+0xa]
  4082e2:	push   es
  4082e3:	pop    es
  4082e4:	xor    esp,esp
  4082e6:	add    al,0x3
  4082e8:	pop    ecx
  4082e9:	sbb    BYTE PTR [ebx+0x1a],ah
  4082ec:	pop    edx
  4082ed:	add    bl,BYTE PTR [eax+0x2a]
  4082f0:	or     esi,DWORD PTR [eax]
  4082f2:	add    al,0x0
  4082f4:	aam    0x0
  4082f6:	add    BYTE PTR [eax],al
  4082f8:	test   al,0x0
  4082fa:	add    BYTE PTR [ecx],dl
  4082fc:	sub    BYTE PTR [eax+0x1],ch
  4082ff:	add    BYTE PTR [esi],al
  408301:	dec    BYTE PTR [edi]
  408303:	adc    eax,DWORD PTR [ebx+eax*1]
  408306:	sbb    dl,BYTE PTR [edi]
  408308:	sub    BYTE PTR [eax+eax*1],al
  40830b:	add    BYTE PTR [esi],al
  40830d:	or     al,BYTE PTR [edx]
  40830f:	sbb    bl,BYTE PTR [eax+0x4a]
  408312:	adc    eax,DWORD PTR [edi]
  408314:	add    cl,BYTE PTR [edx+0xd]
  408317:	push   es
  408318:	adc    eax,DWORD PTR [esi]
  40831a:	push   es
  40831b:	adc    edx,DWORD PTR [ecx]
  40831d:	push   es
  40831e:	adc    edx,DWORD PTR [eax]
  408320:	or     DWORD PTR [ebx],edx
  408322:	movups XMMWORD PTR [esi],xmm1
  408325:	adc    ecx,DWORD PTR ds:0xb130c11
  40832b:	push   es
  40832c:	adc    ecx,DWORD PTR [edx]
  40832e:	or     DWORD PTR [ebx],edx
  408330:	or     DWORD PTR [ecx],ecx
  408332:	adc    DWORD PTR [edi],eax
  408334:	push   es
  408335:	sub    BYTE PTR [ebp+0x13060000],cl
  40833b:	push   es
  40833c:	ficomp WORD PTR [esi+eiz*1+0x28]
  408340:	adc    al,BYTE PTR [eax]
  408342:	add    BYTE PTR [edx],cl
  408344:	adc    ecx,DWORD PTR [eax]
  408346:	sub    BYTE PTR [ecx],dl
  408348:	add    BYTE PTR [eax],al
  40834a:	or     dl,BYTE PTR [esi]
  40834c:	push   ss
  40834d:	push   ss
  40834e:	sub    BYTE PTR [ebx+0x1],ch
  408351:	add    BYTE PTR [esi],al
  408353:	(bad)  
  408354:	adc    DWORD PTR [esi],esp
  408356:	push   ss
  408357:	or     al,0x28
  408359:	adc    DWORD PTR [eax],eax
  40835b:	add    BYTE PTR [edx],cl
  40835d:	adc    DWORD PTR [eax+ebp*1],eax
  408360:	push   0x1
  408362:	add    BYTE PTR [esi],al
  408364:	es push es
  408366:	add    ebx,DWORD PTR [edx]
  408368:	sub    BYTE PTR ds:0x16060000,al
  40836e:	push   ss
  40836f:	sub    BYTE PTR [ecx+eax*1+0x0],ch
  408373:	push   es
  408374:	ficom  WORD PTR [edx]
  408376:	sub    BYTE PTR es:[ecx],dl
  408379:	add    BYTE PTR [eax],al
  40837b:	or     ch,BYTE PTR [eax]
  40837d:	imul   eax,DWORD PTR [ecx],0x80c0600
  408383:	(bad)  
  408384:	adc    DWORD PTR [esi],esp
  408386:	fiadd  WORD PTR [eax]
  408388:	or     BYTE PTR [edx+eax*1],ch
  40838b:	(bad)  
  40838c:	sbb    bl,dh
  40838e:	or     DWORD PTR [ecx],edx
  408390:	add    al,0x8
  408392:	sub    BYTE PTR [edi+0x1],ah
  408395:	add    BYTE PTR [esi],al
  408397:	(bad)  
  408399:	add    BYTE PTR [edx],al
  40839b:	dec    edx
  40839c:	or     eax,DWORD PTR [edx]
  40839e:	sbb    bl,BYTE PTR [eax+0x4a]
  4083a1:	pop    es
  4083a2:	pop    ecx
  4083a3:	sbb    BYTE PTR [ebx+0x13],ah
  4083a6:	add    eax,0x70f2c07
  4083ab:	add    bl,BYTE PTR [esi]
  4083ad:	pop    eax
  4083ae:	dec    edx
  4083af:	pop    es
  4083b0:	pop    ecx
  4083b1:	sbb    BYTE PTR [ebx+0x1a],ah
  4083b4:	sub    BYTE PTR ds:0x2060000,al
  4083ba:	push   ds
  4083bb:	pop    eax
  4083bc:	add    ebx,DWORD PTR [edx]
  4083be:	pop    edx
  4083bf:	push   es
  4083c0:	pop    eax
  4083c1:	push   esp
  4083c2:	add    bl,BYTE PTR [edx]
  4083c4:	pop    eax
  4083c5:	adc    DWORD PTR ds:0x58065a1a,eax
  4083cb:	push   esp
  4083cc:	add    al,BYTE PTR [esi]
  4083ce:	push   esp
  4083cf:	sub    al,BYTE PTR [ecx+0x4c]
  4083d2:	add    BYTE PTR [eax],al
  4083d4:	add    DWORD PTR [eax],eax
  4083d6:	add    BYTE PTR [eax],al
  4083d8:	imul   eax,DWORD PTR [eax],0x110000
  4083de:	add    BYTE PTR [eax],al
  4083e0:	mov    DWORD PTR [eax],eax
  4083e2:	add    BYTE PTR [eax],al
  4083e4:	add    eax,DWORD PTR [eax]
  4083e6:	add    BYTE PTR [eax],al
  4083e8:	jp     0x4083ea
  4083ea:	add    BYTE PTR [eax],al
  4083ec:	add    al,BYTE PTR [eax]
  4083ee:	add    BYTE PTR [eax],al
  4083f0:	imul   eax,DWORD PTR [eax],0x2a0000
  4083f6:	add    BYTE PTR [eax],al
  4083f8:	xchg   ebx,eax
  4083f9:	add    BYTE PTR [eax],al
  4083fb:	add    BYTE PTR [ecx],cl
  4083fd:	add    BYTE PTR [eax],al
  4083ff:	add    BYTE PTR [ecx],ch
  408401:	add    BYTE PTR [eax],al
  408403:	add    DWORD PTR [ecx],eax
  408405:	add    BYTE PTR [eax],al
  408407:	add    BYTE PTR [edx],dl
  408409:	add    BYTE PTR [eax],al
  40840b:	add    BYTE PTR [eax],dh
  40840d:	add    BYTE PTR [eax],al
  40840f:	add    BYTE PTR [ecx+0x0],bl
  408412:	add    BYTE PTR [eax],al
  408414:	inc    ebp
  408415:	add    BYTE PTR [eax],al
  408417:	add    BYTE PTR [edx+0x0],al
  40841a:	add    BYTE PTR [eax],al
  40841c:	add    esi,DWORD PTR [eax]
  40841e:	add    al,BYTE PTR [eax]
  408420:	jno    0x408422
  408422:	add    BYTE PTR [eax],al
  408424:	xchg   ebx,eax
  408425:	add    BYTE PTR [eax],al
  408427:	adc    DWORD PTR [edx],eax
  408429:	push   ds
  40842a:	pop    eax
  40842b:	dec    edx
  40842c:	adc    ecx,DWORD PTR [eax]
  40842e:	add    bl,BYTE PTR [edx]
  408430:	pop    eax
  408431:	dec    edx
  408432:	adc    eax,DWORD PTR [edi]
  408434:	adc    DWORD PTR [eax],ecx
  408436:	adc    DWORD PTR [edi],eax
  408438:	pop    ecx
  408439:	sbb    BYTE PTR [ebx+0x3],ah
  40843c:	xor    al,0x5a
  40843e:	add    cl,BYTE PTR [edx+0x13]
  408441:	push   es
  408442:	adc    DWORD PTR [edi],eax
  408444:	adc    DWORD PTR [esi],eax
  408446:	pop    ecx
  408447:	sbb    BYTE PTR [ebx+0x13],ah
  40844a:	add    eax,0xffffff20
  40844f:	aas    
  408450:	adc    DWORD PTR ds:0xa340359,eax
  408456:	jg     0x408484
  408458:	add    BYTE PTR [eax],al
  40845a:	add    al,0x28
  40845c:	pop    es
  40845d:	add    DWORD PTR [eax],eax
  40845f:	push   es
  408460:	adc    DWORD PTR ds:0x4135803,eax
  408466:	adc    DWORD PTR [eax],ecx
  408468:	adc    DWORD PTR [esi],eax
  40846a:	pop    ecx
  40846b:	sbb    BYTE PTR [ebx+0xc],ah
  40846e:	or     BYTE PTR [edi],dl
  408470:	fs or  eax,0xffffff20
  408476:	aas    
  408477:	or     DWORD PTR [ecx+0x8],ebx
  40847a:	xor    al,0x4
  40847c:	push   ss
  40847d:	or     ebp,DWORD PTR [ebx]
  40847f:	add    al,0x9
  408481:	or     BYTE PTR [eax+0xb],bl
  408484:	pop    es
  408485:	or     al,BYTE PTR [edi]
  408487:	adc    DWORD PTR [edi+esi*1],eax
  40848a:	add    eax,DWORD PTR [esi]
  40848c:	sub    eax,DWORD PTR [edx]
  40848e:	adc    DWORD PTR [edx+ecx*1],eax
  408491:	add    al,BYTE PTR [esi]
  408493:	sub    BYTE PTR [ebp+0x2a060000],al
  408499:	int3   
  40849a:	int3   
  40849b:	int3   
  40849c:	add    esi,DWORD PTR [eax]
  40849e:	add    al,0x0
  4084a0:	and    al,BYTE PTR [eax]
  4084a2:	add    BYTE PTR [eax],al
  4084a4:	test   eax,0x2110000
  4084a9:	add    esi,DWORD PTR [ebx]
  4084ab:	add    al,0x4
  4084ad:	or     ch,BYTE PTR [ebx]
  4084af:	sbb    BYTE PTR [ebx],al
  4084b1:	add    al,0x33
  4084b3:	add    al,0x2
  4084b5:	or     ch,BYTE PTR [ebx]
  4084b7:	adc    BYTE PTR [edx],dl
  4084b9:	add    DWORD PTR [esi],edx
  4084bb:	pop    ss
  4084bc:	(bad)  
  4084bd:	sbb    BYTE PTR [edx],al
  4084bf:	add    eax,DWORD PTR [edi+eax*1]
  4084c2:	sub    BYTE PTR [eax+eax*1+0x60a0600],cl
  4084c9:	sub    cl,ah
  4084cb:	int3   
  4084cc:	add    esi,DWORD PTR [eax]
  4084ce:	add    eax,DWORD PTR [eax]
  4084d0:	jno    0x4084d2
  4084d2:	add    BYTE PTR [eax],al
  4084d4:	stos   BYTE PTR es:[edi],al
  4084d5:	add    BYTE PTR [eax],al
  4084d7:	adc    DWORD PTR [edx],eax
  4084d9:	sbb    bl,BYTE PTR [eax+0x4a]
  4084dc:	or     al,BYTE PTR [ebx]
  4084de:	push   es
  4084df:	xor    al,0x9
  4084e1:	add    cl,BYTE PTR [edx+0x3]
  4084e4:	xor    eax,0x2b0d1704
  4084e9:	add    dl,BYTE PTR [esi]
  4084eb:	or     eax,0x342cd209
  4084f0:	add    eax,DWORD PTR [edx]
  4084f2:	dec    edx
  4084f3:	pop    ecx
  4084f4:	sbb    BYTE PTR [ebx+0x13],ah
  4084f7:	add    al,0x6
  4084f9:	add    bl,BYTE PTR [esi]
  4084fb:	pop    eax
  4084fc:	dec    edx
  4084fd:	xor    eax,DWORD PTR [edi]
  4084ff:	add    dl,BYTE PTR [edi]
  408501:	sub    BYTE PTR [eax+eax*1+0x1a020600],al
  408508:	pop    eax
  408509:	dec    edx
  40850a:	or     al,0x8
  40850c:	sub    al,0xa
  40850e:	or     BYTE PTR [ecx],dl
  408510:	add    al,0x1a
  408512:	pop    edx
  408513:	add    cl,BYTE PTR [edx+0x58]
  408516:	dec    edx
  408517:	push   esp
  408518:	add    bl,BYTE PTR [edx]
  40851a:	pop    eax
  40851b:	add    bl,BYTE PTR [edx]
  40851d:	pop    eax
  40851e:	dec    edx
  40851f:	sbb    bl,BYTE PTR [eax+0x54]
  408522:	sub    esp,DWORD PTR [esi+eax*1]
  408525:	add    bl,BYTE PTR [esi]
  408527:	pop    eax
  408528:	dec    edx
  408529:	xor    eax,DWORD PTR [edi]
  40852b:	add    dl,BYTE PTR [edi]
  40852d:	sub    BYTE PTR [eax+eax*1+0x1a020600],al
  408534:	pop    eax
  408535:	dec    edx
  408536:	or     eax,DWORD PTR [edi]
  408538:	sub    al,0x4
  40853a:	pop    es
  40853b:	add    ecx,DWORD PTR [edx+0x54]
  40853e:	add    bl,BYTE PTR [edx]
  408540:	pop    eax
  408541:	add    bl,BYTE PTR [edx]
  408543:	pop    eax
  408544:	dec    edx
  408545:	sbb    bl,BYTE PTR [eax+0x54]
  408548:	sub    cl,ah
  40854a:	int3   
  40854b:	int3   
  40854c:	or     esi,DWORD PTR [eax]
  40854e:	add    al,0x0
  408550:	mov    cl,0x1
  408552:	add    BYTE PTR [eax],al
  408554:	lods   al,BYTE PTR ds:[esi]
  408555:	add    BYTE PTR [eax],al
  408557:	adc    DWORD PTR [eax],ebp
  408559:	push   0xfe060001
  40855e:	movlps QWORD PTR [ecx],xmm2
  408561:	lsl    ecx,WORD PTR [edx+0xf]
  408565:	add    cl,BYTE PTR [edx+0x59]
  408568:	sbb    BYTE PTR [ebx+0xa],ah
  40856b:	push   es
  40856c:	cmp    DWORD PTR [edi+0x2000001],edx
  408572:	push   ds
  408573:	pop    eax
  408574:	dec    edx
  408575:	adc    edx,DWORD PTR [eax]
  408577:	add    bl,BYTE PTR [edx]
  408579:	pop    eax
  40857a:	dec    edx
  40857b:	adc    ecx,DWORD PTR [ecx]
  40857d:	adc    DWORD PTR [eax],edx
  40857f:	adc    DWORD PTR [ecx],ecx
  408581:	pop    ecx
  408582:	sbb    BYTE PTR [ebx+0x6],ah
  408585:	inc    ecx
  408586:	dec    edx
  408587:	add    DWORD PTR [eax],eax
  408589:	add    BYTE PTR [edx],al
  40858b:	dec    edx
  40858c:	adc    ecx,DWORD PTR [edi]
  40858e:	adc    DWORD PTR [ecx],ecx
  408590:	adc    DWORD PTR [edi],ecx
  408592:	pop    ecx
  408593:	sbb    BYTE PTR [ebx+0x13],ah
  408596:	push   cs
  408597:	and    bh,bh
  408599:	(bad)  
  40859a:	(bad)  
  40859b:	aas    
  40859c:	adc    DWORD PTR [esi],ecx
  40859e:	pop    ecx
  40859f:	push   es
  4085a0:	xor    al,0xa
  4085a2:	jg     0x4085d0
  4085a4:	add    BYTE PTR [eax],al
  4085a6:	add    al,0x28
  4085a8:	pop    es
  4085a9:	add    DWORD PTR [eax],eax
  4085ab:	push   es
  4085ac:	adc    DWORD PTR [esi],ecx
  4085ae:	push   es
  4085af:	pop    eax
  4085b0:	adc    ecx,DWORD PTR ds:0xf111011
  4085b6:	pop    ecx
  4085b7:	sbb    BYTE PTR [ebx+0x13],ah
  4085ba:	or     BYTE PTR [ecx],dl
  4085bc:	or     BYTE PTR [edi],dl
  4085be:	adc    ecx,DWORD PTR fs:[eax+eiz*1]
  4085c2:	(bad)  
  4085c3:	(bad)  
  4085c4:	(bad)  
  4085c5:	aas    
  4085c6:	adc    DWORD PTR [ecx+ebx*2],ecx
  4085c9:	adc    DWORD PTR [eax],ecx
  4085cb:	xor    al,0x5
  4085cd:	push   ss
  4085ce:	adc    eax,DWORD PTR [edi]
  4085d0:	sub    eax,DWORD PTR [edi]
  4085d2:	adc    DWORD PTR [ecx+edx*1],ecx
  4085d5:	or     BYTE PTR [eax+0x13],bl
  4085d8:	pop    es
  4085d9:	adc    DWORD PTR [edi],eax
  4085db:	or     al,0x11
  4085dd:	pop    es
  4085de:	adc    DWORD PTR ds:0x2b080337,ecx
  4085e4:	add    dl,BYTE PTR [ecx]
  4085e6:	or     eax,0x171a080c
  4085eb:	sub    BYTE PTR [eax+eax*1],al
  4085ee:	add    BYTE PTR [esi],al
  4085f0:	or     eax,DWORD PTR [edx]
  4085f2:	dec    edx
  4085f3:	pop    es
  4085f4:	adc    edx,DWORD PTR ds:0xf181307
  4085fa:	add    DWORD PTR [edx+0x7],ecx
  4085fd:	add    ch,BYTE PTR [eax]
  4085ff:	mov    al,BYTE PTR [eax]
  408601:	add    BYTE PTR [esi],al
  408603:	adc    eax,DWORD PTR [esi]
  408605:	adc    DWORD PTR [esi],eax
  408607:	adc    edx,DWORD PTR ds:0x5130611
  40860d:	add    eax,0x11041413
  408612:	adc    al,0x11
  408614:	push   es
  408615:	add    ch,BYTE PTR [eax]
  408617:	mov    eax,DWORD PTR [eax]
  408619:	add    BYTE PTR [esi],al
  40861b:	adc    eax,DWORD PTR ds:0x4a581a02
  408621:	adc    edx,DWORD PTR [ebx]
  408623:	adc    DWORD PTR ds:0x5111213,eax
  408629:	adc    edx,DWORD PTR [edi]
  40862b:	sidtd  [edx+0x11]
  40862f:	adc    edx,DWORD PTR [ecx]
  408631:	add    eax,0x8a2802
  408636:	add    BYTE PTR [esi],al
  408638:	adc    edx,DWORD PTR [edx]
  40863a:	fisub  WORD PTR [ecx+0x26]
  40863d:	sub    BYTE PTR [edx],dl
  40863f:	add    BYTE PTR [eax],al
  408641:	or     dl,BYTE PTR [ebx]
  408643:	push   ss
  408644:	sub    BYTE PTR [ecx],dl
  408646:	add    BYTE PTR [eax],al
  408648:	or     dl,BYTE PTR [esi]
  40864a:	push   ss
  40864b:	push   ss
  40864c:	sub    BYTE PTR [ebx+0x1],ch
  40864f:	add    BYTE PTR [esi],al
  408651:	(bad)  
  408652:	adc    DWORD PTR [esi],esp
  408654:	push   ss
  408655:	adc    eax,DWORD PTR [eax+ebp*1]
  408658:	adc    DWORD PTR [eax],eax
  40865a:	add    BYTE PTR [edx],cl
  40865c:	adc    DWORD PTR [ecx],edx
  40865e:	sub    BYTE PTR [edx+0x1],ch
  408661:	add    BYTE PTR [esi],al
  408663:	es pop es
  408665:	or     BYTE PTR [edx],bl
  408667:	sub    BYTE PTR ds:0x16060000,al
  40866d:	push   ss
  40866e:	sub    BYTE PTR [ecx+eax*1+0x0],ch
  408672:	push   es
  408673:	ficom  WORD PTR [esi+eiz*1]
  408676:	sub    BYTE PTR [ecx],dl
  408678:	add    BYTE PTR [eax],al
  40867a:	or     ch,BYTE PTR [eax]
  40867c:	imul   eax,DWORD PTR [ecx],0x4130600
  408682:	adc    DWORD PTR [esi+edi*8],eax
  408685:	adc    DWORD PTR [esi],esp
  408687:	fiadd  WORD PTR [eax]
  408689:	adc    DWORD PTR [esp+ebp*1],eax
  40868c:	add    bh,dh
  40868e:	sbb    bl,dh
  408690:	or     dl,BYTE PTR [ecx]
  408692:	adc    DWORD PTR [ecx],edx
  408694:	add    al,0x28
  408696:	add    DWORD PTR [bx+si],eax
  408699:	push   es
  40869a:	(bad)  
  40869c:	add    BYTE PTR [edx],al
  40869e:	dec    edx
  40869f:	or     eax,0x4a581a02
  4086a4:	or     DWORD PTR [ecx+0x18],ebx
  4086a7:	arpl   WORD PTR [esi],ax
  4086a9:	pop    eax
  4086aa:	or     cl,BYTE PTR [ecx]
  4086ac:	sub    al,0xf
  4086ae:	or     DWORD PTR [edx],eax
  4086b0:	push   ds
  4086b1:	pop    eax
  4086b2:	dec    edx
  4086b3:	or     DWORD PTR [ecx+0x18],ebx
  4086b6:	arpl   WORD PTR [edx],bx
  4086b8:	sub    BYTE PTR ds:0x2060000,al
  4086be:	push   ds
  4086bf:	pop    eax
  4086c0:	or     BYTE PTR [edx],bl
  4086c2:	pop    edx
  4086c3:	pop    es
  4086c4:	pop    eax
  4086c5:	push   esp
  4086c6:	add    bl,BYTE PTR [edx]
  4086c8:	pop    eax
  4086c9:	push   es
  4086ca:	sbb    bl,BYTE PTR [edx+0x7]
  4086cd:	pop    eax
  4086ce:	push   esp
  4086cf:	add    al,BYTE PTR [edi]
  4086d1:	push   esp
  4086d2:	sub    esi,DWORD PTR [edi+ecx*1]
  4086d5:	add    cl,BYTE PTR [edx+0xf]
  4086d8:	add    ecx,DWORD PTR [edx+0x11]
  4086db:	or     DWORD PTR [eax],ebp
  4086dd:	mov    es,WORD PTR [eax]
  4086df:	add    BYTE PTR [esi],al
  4086e1:	es push es
  4086e3:	sbb    bl,BYTE PTR [edx+0x13]
  4086e6:	or     eax,DWORD PTR [edx]
  4086e8:	sbb    bl,BYTE PTR [eax+0x4a]
  4086eb:	adc    ecx,DWORD PTR [edx]
  4086ed:	sidtd  [edx+0x11]
  4086f1:	or     dl,BYTE PTR [ecx]
  4086f3:	or     edx,DWORD PTR [ecx]
  4086f5:	or     bl,BYTE PTR [eax+0x28]
  4086f8:	mov    DWORD PTR [eax],eax
  4086fa:	add    BYTE PTR [esi],al
  4086fc:	add    bl,BYTE PTR es:[edx]
  4086ff:	pop    eax
  408700:	add    bl,BYTE PTR [edx]
  408702:	pop    eax
  408703:	dec    edx
  408704:	adc    DWORD PTR [ebx],ecx
  408706:	pop    eax
  408707:	push   esp
  408708:	sub    al,BYTE PTR [eax]
  40870a:	add    BYTE PTR [eax],al
  40870c:	inc    ecx
  40870d:	dec    esp
  40870e:	add    BYTE PTR [eax],al
  408710:	add    DWORD PTR [eax],eax
  408712:	add    BYTE PTR [eax],al
  408714:	or     al,0x1
  408716:	add    BYTE PTR [eax],al
  408718:	adc    DWORD PTR [eax],eax
  40871a:	add    BYTE PTR [eax],al
  40871c:	add    DWORD PTR cs:[eax],eax
  40871f:	add    BYTE PTR [ebx],al
  408721:	add    BYTE PTR [eax],al
  408723:	add    BYTE PTR ds:0x2000001,bl
  408729:	add    BYTE PTR [eax],al
  40872b:	add    BYTE PTR [ecx+eax*1],cl
  40872e:	add    BYTE PTR [eax],al
  408730:	sub    eax,0x39000000
  408735:	add    DWORD PTR [eax],eax
  408737:	add    BYTE PTR [edx],cl
  408739:	add    BYTE PTR [eax],al
  40873b:	add    BYTE PTR [ecx],ch
  40873d:	add    BYTE PTR [eax],al
  40873f:	add    DWORD PTR [ecx],eax
  408741:	add    BYTE PTR [eax],al
  408743:	add    BYTE PTR [ecx+0x4b000000],bl
  408749:	add    BYTE PTR [eax],al
  40874b:	add    bl,bh
  40874d:	add    BYTE PTR [eax],al
  40874f:	add    BYTE PTR [edx+0x0],cl
  408752:	add    BYTE PTR [eax],al
  408754:	in     al,0x0
  408756:	add    BYTE PTR [eax],al
  408758:	add    esi,DWORD PTR [eax]
  40875a:	add    al,BYTE PTR [eax]
  40875c:	or     eax,DWORD PTR [eax]
  40875e:	add    BYTE PTR [eax],al
  408760:	add    BYTE PTR [eax],al
  408762:	add    BYTE PTR [eax],al
  408764:	add    bl,BYTE PTR [edx]
  408766:	pop    eax
  408767:	(bad)  
  408769:	sub    BYTE PTR [eax+0x2a060000],al
  40876f:	int3   
  408770:	add    esi,DWORD PTR [eax]
  408772:	add    eax,0x3d00
  408777:	add    BYTE PTR [ebp+0xf110000],ch
  40877d:	add    cl,BYTE PTR [edx+0x2]
  408780:	dec    edx
  408781:	pop    ecx
  408782:	sbb    BYTE PTR [ebx+0xd],ah
  408785:	adc    al,BYTE PTR [edx]
  408787:	push   ss
  408788:	pop    ss
  408789:	(bad)  
  40878a:	sbb    BYTE PTR [eax],cl
  40878c:	or     eax,DWORD PTR [edx]
  40878e:	add    al,0x5
  408790:	push   cs
  408791:	add    al,0x7
  408793:	sub    BYTE PTR [eax+0x2060000],cl
  408799:	adc    al,BYTE PTR ds:0x8728
  40879f:	push   es
  4087a0:	or     dl,BYTE PTR [edx]
  4087a2:	add    al,0x6
  4087a4:	sbb    bh,dh
  4087a6:	pop    ss
  4087a7:	adc    al,BYTE PTR [ecx+ecx*1]
  4087aa:	sbb    bl,BYTE PTR [edx+0x12]
  4087ad:	add    al,0x4a
  4087af:	pop    eax
  4087b0:	push   esp
  4087b1:	add    edx,DWORD PTR [edx]
  4087b3:	add    al,0x1a
  4087b5:	(bad)  
  4087b6:	pop    ss
  4087b7:	add    ebp,DWORD PTR [edx]
  4087b9:	int3   
  4087ba:	int3   
  4087bb:	int3   
  4087bc:	add    esi,DWORD PTR [eax]
  4087be:	push   es
  4087bf:	add    BYTE PTR [eax],bh
  4087c1:	add    BYTE PTR [eax],al
  4087c3:	add    BYTE PTR [ecx+0x3110000],dh
  4087c9:	adc    al,BYTE PTR [esi]
  4087cb:	sub    BYTE PTR [edx+0xc060000],al
  4087d1:	adc    al,BYTE PTR [ecx]
  4087d3:	or     BYTE PTR [edx],bl
  4087d5:	(bad)  
  4087d6:	pop    ss
  4087d7:	add    bl,BYTE PTR [edx]
  4087d9:	pop    eax
  4087da:	or     al,BYTE PTR [ebx]
  4087dc:	adc    al,BYTE PTR ds:0x4120607
  4087e2:	sub    BYTE PTR [ebx+0x71060000],al
  4087e8:	nop
  4087e9:	add    BYTE PTR [eax],al
  4087eb:	add    al,BYTE PTR [esi]
  4087ed:	adc    al,BYTE PTR [ebx]
  4087ef:	sub    BYTE PTR [ecx+0x71060000],al
  4087f5:	nop
  4087f6:	add    BYTE PTR [eax],al
  4087f8:	add    ch,BYTE PTR [eax]
  4087fa:	xchg   BYTE PTR [eax],al
  4087fc:	add    BYTE PTR [esi],al
  4087fe:	es sub bh,bh
  408801:	and    eax,0x430050
  408806:	int3   
  408807:	int3   
  408808:	add    esi,DWORD PTR [eax]
  40880a:	push   es
  40880b:	add    BYTE PTR [eax],bh
  40880d:	add    BYTE PTR [eax],al
  40880f:	add    BYTE PTR [ecx+0x3110000],dh
  408815:	adc    al,BYTE PTR [esi]
  408817:	sub    BYTE PTR [edx+0xc060000],al
  40881d:	adc    al,BYTE PTR [ecx]
  40881f:	or     BYTE PTR [edx],bl
  408821:	(bad)  
  408822:	pop    ss
  408823:	add    bl,BYTE PTR [edx]
  408825:	pop    eax
  408826:	or     al,BYTE PTR [ebx]
  408828:	adc    al,BYTE PTR ds:0x4120607
  40882e:	sub    BYTE PTR [ebx+0x71060000],al
  408834:	nop
  408835:	add    BYTE PTR [eax],al
  408837:	add    al,BYTE PTR [esi]
  408839:	adc    al,BYTE PTR [ebx]
  40883b:	sub    BYTE PTR [ecx+0x71060000],al
  408841:	nop
  408842:	add    BYTE PTR [eax],al
  408844:	add    ch,BYTE PTR [eax]
  408846:	xchg   BYTE PTR [eax],al
  408848:	add    BYTE PTR [esi],al
  40884a:	es sub bh,bh
  40884d:	and    eax,0x430054
  408852:	int3   
  408853:	int3   
  408854:	add    esi,DWORD PTR [eax]
  408856:	add    al,0x0
  408858:	repz add BYTE PTR [eax],al
  40885b:	add    BYTE PTR [ebx+0x3110000],bh
  408861:	sub    BYTE PTR [ebp+0x0],al
  408864:	add    BYTE PTR [edx],cl
  408866:	adc    eax,DWORD PTR [esi]
  408868:	push   ss
  408869:	or     al,0x5
  40886b:	pop    ds
  40886c:	das    
  40886d:	pop    ss
  40886e:	sub    BYTE PTR [eax+eax*1+0x0],al
  408872:	or     cl,BYTE PTR [edx]
  408874:	push   es
  408875:	adc    eax,0x1605722e
  40887a:	push   es
  40887b:	sub    BYTE PTR [ebx+0x0],al
  40887e:	add    BYTE PTR [edx],cl
  408880:	adc    eax,DWORD PTR [edi]
  408882:	add    al,0x11
  408884:	pop    es
  408885:	outs   dx,DWORD PTR ds:[esi]
  408886:	inc    edx
  408887:	add    BYTE PTR [eax],al
  408889:	or     dh,BYTE PTR [ebp+0x35]
  40888c:	add    BYTE PTR [eax],al
  40888e:	add    DWORD PTR [ebx],ecx
  408890:	pop    es
  408891:	sub    eax,0x122d083d
  408896:	add    eax,0x43280616
  40889b:	add    BYTE PTR [eax],al
  40889d:	or     dl,BYTE PTR [esi]
  40889f:	pop    ss
  4088a0:	jae    0x4088e3
  4088a2:	add    BYTE PTR [eax],al
  4088a4:	or     cl,BYTE PTR [ebx]
  4088a6:	sub    edx,DWORD PTR [esi]
  4088a8:	add    eax,0x6581708
  4088ad:	or     BYTE PTR [ecx+0x17],bl
  4088b0:	pop    ecx
  4088b1:	sub    BYTE PTR [ebx+0x0],al
  4088b4:	add    BYTE PTR [edx],cl
  4088b6:	push   ss
  4088b7:	pop    ss
  4088b8:	jae    0x4088fb
  4088ba:	add    BYTE PTR [eax],al
  4088bc:	or     cl,BYTE PTR [ebx]
  4088be:	add    al,0x11
  4088c0:	pop    es
  4088c1:	pop    es
  4088c2:	outs   dx,DWORD PTR ds:[esi]
  4088c3:	inc    eax
  4088c4:	add    BYTE PTR [eax],al
  4088c6:	or     dl,BYTE PTR [ecx]
  4088c8:	push   es
  4088c9:	pop    es
  4088ca:	outs   dx,DWORD PTR ds:[esi]
  4088cb:	aas    
  4088cc:	add    BYTE PTR [eax],al
  4088ce:	or     ah,BYTE PTR [esi]
  4088d0:	pop    es
  4088d1:	sub    BYTE PTR [esi],bh
  4088d3:	add    BYTE PTR [eax],al
  4088d5:	or     dl,BYTE PTR [ebx]
  4088d7:	push   es
  4088d8:	push   es
  4088d9:	or     al,0x5
  4088db:	pop    ds
  4088dc:	das    
  4088dd:	push   es
  4088de:	pop    ss
  4088df:	pop    eax
  4088e0:	sub    BYTE PTR [eax+eax*1+0x0],al
  4088e4:	or     cl,BYTE PTR [edx]
  4088e6:	push   es
  4088e7:	adc    eax,0x28058e33
  4088ec:	cmp    eax,0x130a0000
  4088f1:	add    eax,0xc1720511
  4088f6:	add    eax,0x3c287000
  4088fb:	add    BYTE PTR [eax],al
  4088fd:	or     ch,BYTE PTR [eax*1+0x2b041318]
  408904:	adc    eax,0xcb720511
  408909:	add    eax,0x3c287000
  40890e:	add    BYTE PTR [eax],al
  408910:	or     dl,BYTE PTR [esi]
  408912:	xor    eax,DWORD PTR [ebx]
  408914:	sbb    ch,BYTE PTR [ebx]
  408916:	add    DWORD PTR [ecx],ebx
  408918:	adc    eax,DWORD PTR [eax+ecx*1]
  40891b:	sub    eax,0x28160512
  408920:	cmp    eax,DWORD PTR [eax]
  408922:	add    BYTE PTR [edx],cl
  408924:	adc    DWORD PTR [eiz*1+0x4173],eax
  40892b:	or     cl,BYTE PTR ds:0x805122b
  408931:	pop    ss
  408932:	pop    eax
  408933:	sub    BYTE PTR [ebx],bh
  408935:	add    BYTE PTR [eax],al
  408937:	or     dl,BYTE PTR [ecx]
  408939:	add    al,0x25
  40893b:	jae    0x40897e
  40893d:	add    BYTE PTR [eax],al
  40893f:	or     cl,BYTE PTR ds:0x6f090611
  408945:	aas    
  408946:	add    BYTE PTR [eax],al
  408948:	or     ah,BYTE PTR [esi]
  40894a:	or     DWORD PTR [ecx],edx
  40894c:	add    eax,0x3a28
  408951:	or     ch,BYTE PTR [edx]
  408953:	int3   
  408954:	add    esi,DWORD PTR [eax]
  408956:	add    al,0x0
  408958:	xchg   ebp,eax
  408959:	add    BYTE PTR [eax],al
  40895b:	add    BYTE PTR [eax+eax*1+0x7b021100],bh
  408962:	dec    edx
  408963:	add    DWORD PTR [eax],eax
  408965:	add    al,0x2
  408967:	jnp    0x408987
  408969:	add    DWORD PTR [eax],eax
  40896b:	add    al,0x28
  40896d:	and    eax,0x18060000
  408972:	pop    eax
  408973:	sub    BYTE PTR ds:0x20a0000,dh
  408979:	jnp    0x4089c5
  40897b:	add    DWORD PTR [eax],eax
  40897d:	add    al,0x2
  40897f:	jnp    0x40899f
  408981:	add    DWORD PTR [eax],eax
  408983:	add    al,0x28
  408985:	add    BYTE PTR es:[eax],al
  408988:	push   es
  408989:	sbb    BYTE PTR [eax+0x28],bl
  40898c:	xor    al,0x0
  40898e:	add    BYTE PTR [edx],cl
  408990:	add    bh,BYTE PTR [ebx+0x4a]
  408993:	add    DWORD PTR [eax],eax
  408995:	add    al,0x28
  408997:	xor    al,BYTE PTR [eax]
  408999:	add    BYTE PTR [edx],cl
  40899b:	or     edx,DWORD PTR [edx]
  40899d:	add    DWORD PTR [eax],ebp
  40899f:	xor    eax,DWORD PTR [eax]
  4089a1:	add    BYTE PTR [edx],cl
  4089a3:	add    bh,BYTE PTR es:[ebx+0x4a]
  4089a7:	add    DWORD PTR [eax],eax
  4089a9:	add    al,0x28
  4089ab:	xor    al,BYTE PTR [eax]
  4089ad:	add    BYTE PTR [edx],cl
  4089af:	or     dl,BYTE PTR [edx]
  4089b1:	add    BYTE PTR [eax],ch
  4089b3:	xor    DWORD PTR [eax],eax
  4089b5:	add    BYTE PTR [edx],cl
  4089b7:	add    bh,BYTE PTR es:[ebx+0x4a]
  4089bb:	add    DWORD PTR [eax],eax
  4089bd:	add    al,0x20
  4089bf:	add    BYTE PTR [eax],0x0
  4089c2:	add    BYTE PTR [edx],al
  4089c4:	jnp    0x408a10
  4089c6:	add    DWORD PTR [eax],eax
  4089c8:	add    al,0x28
  4089ca:	das    
  4089cb:	add    BYTE PTR [eax],al
  4089cd:	or     bl,BYTE PTR [eax]
  4089cf:	pop    ebx
  4089d0:	pop    ecx
  4089d1:	sub    BYTE PTR [eax],dh
  4089d3:	add    BYTE PTR [eax],al
  4089d5:	or     al,BYTE PTR [edx]
  4089d7:	jnp    0x408a23
  4089d9:	add    DWORD PTR [eax],eax
  4089db:	add    al,0x20
  4089dd:	add    BYTE PTR [eax],0x0
  4089e0:	add    BYTE PTR [edx],al
  4089e2:	jnp    0x408a2e
  4089e4:	add    DWORD PTR [eax],eax
  4089e6:	add    al,0x28
  4089e8:	sub    eax,0x180a0000
  4089ed:	pop    ebx
  4089ee:	pop    ecx
  4089ef:	sub    BYTE PTR [esi],ch
  4089f1:	add    BYTE PTR [eax],al
  4089f3:	or     ch,BYTE PTR [edx]
  4089f5:	int3   
  4089f6:	int3   
  4089f7:	int3   
  4089f8:	add    esi,DWORD PTR [eax]
  4089fa:	add    al,0x0
  4089fc:	retf   0x0
  4089ff:	add    BYTE PTR [ebp+0x2110000],bh
  408a05:	jnp    0x408a42
  408a07:	add    DWORD PTR [eax],eax
  408a09:	add    al,0x28
  408a0b:	sub    eax,DWORD PTR [eax]
  408a0d:	add    BYTE PTR [edx],cl
  408a0f:	sub    BYTE PTR [eax+eax*1],ch
  408a12:	add    BYTE PTR [edx],cl
  408a14:	adc    eax,DWORD PTR [edx+eax*1]
  408a17:	jnp    0x408a52
  408a19:	add    DWORD PTR [eax],eax
  408a1b:	add    al,0x28
  408a1d:	sub    eax,DWORD PTR [eax]
  408a1f:	add    BYTE PTR [edx],cl
  408a21:	sub    BYTE PTR [eax+eax*1],ch
  408a24:	add    BYTE PTR [edx],cl
  408a26:	or     eax,0x1367b02
  408a2b:	add    BYTE PTR [eax+ebp*1],al
  408a2e:	sub    eax,DWORD PTR [eax]
  408a30:	add    BYTE PTR [edx],cl
  408a32:	sub    BYTE PTR [eax+eax*1],ch
  408a35:	add    BYTE PTR [edx],cl
  408a37:	or     al,BYTE PTR [edx]
  408a39:	jnp    0x408a67
  408a3b:	add    DWORD PTR [eax],eax
  408a3d:	add    al,0x6
  408a3f:	adc    DWORD PTR [edx+ebx*2],eax
  408a42:	sbb    BYTE PTR [eax+0x28],bl
  408a45:	xor    eax,0x20a0000
  408a4a:	jnp    0x408a78
  408a4c:	add    DWORD PTR [eax],eax
  408a4e:	add    al,0x6
  408a50:	or     DWORD PTR [edx+0x18],ebx
  408a53:	pop    eax
  408a54:	sub    BYTE PTR [eax+eax*1],dh
  408a57:	add    BYTE PTR [edx],cl
  408a59:	add    bh,BYTE PTR [ebx+0x2c]
  408a5c:	add    DWORD PTR [eax],eax
  408a5e:	add    al,0x28
  408a60:	xor    al,BYTE PTR [eax]
  408a62:	add    BYTE PTR [edx],cl
  408a64:	adc    eax,DWORD PTR [esi]
  408a66:	adc    al,BYTE PTR [esi]
  408a68:	sub    BYTE PTR [ebx],dh
  408a6a:	add    BYTE PTR [eax],al
  408a6c:	or     cl,BYTE PTR [edx+eax*1]
  408a6f:	jnp    0x408a9d
  408a71:	add    DWORD PTR [eax],eax
  408a73:	add    al,0x28
  408a75:	xor    al,BYTE PTR [eax]
  408a77:	add    BYTE PTR [edx],cl
  408a79:	adc    eax,DWORD PTR ds:0x31280512
  408a7f:	add    BYTE PTR [eax],al
  408a81:	or     cl,BYTE PTR [ebx]
  408a83:	add    bh,BYTE PTR [ebx+0x2c]
  408a86:	add    DWORD PTR [eax],eax
  408a88:	add    al,0x20
  408a8a:	add    BYTE PTR [eax],0x0
  408a8d:	add    BYTE PTR [edx],al
  408a8f:	jnp    0x408abd
  408a91:	add    DWORD PTR [eax],eax
  408a93:	add    al,0x28
  408a95:	das    
  408a96:	add    BYTE PTR [eax],al
  408a98:	or     bl,BYTE PTR [eax]
  408a9a:	pop    ebx
  408a9b:	pop    ecx
  408a9c:	sub    BYTE PTR [eax],dh
  408a9e:	add    BYTE PTR [eax],al
  408aa0:	or     al,BYTE PTR [edx]
  408aa2:	jnp    0x408ad0
  408aa4:	add    DWORD PTR [eax],eax
  408aa6:	add    al,0x20
  408aa8:	add    BYTE PTR [eax],0x0
  408aab:	add    BYTE PTR [edx],al
  408aad:	jnp    0x408adb
  408aaf:	add    DWORD PTR [eax],eax
  408ab1:	add    al,0x28
  408ab3:	sub    eax,0x180a0000
  408ab8:	pop    ebx
  408ab9:	pop    ecx
  408aba:	sub    BYTE PTR [esi],ch
  408abc:	add    BYTE PTR [eax],al
  408abe:	or     al,BYTE PTR [edx]
  408ac0:	jnp    0x408ae0
  408ac2:	add    DWORD PTR [eax],eax
  408ac4:	add    al,0x8
  408ac6:	pop    es
  408ac7:	push   es
  408ac8:	sub    BYTE PTR [eax],ch
  408aca:	add    BYTE PTR [eax],al
  408acc:	push   es
  408acd:	sub    cl,ah
  408acf:	int3   
  408ad0:	add    esi,DWORD PTR [eax]
  408ad2:	add    eax,0xb200
  408ad7:	add    dl,al
  408ad9:	add    BYTE PTR [eax],al
  408adb:	adc    DWORD PTR [edx],edx
  408add:	add    eax,0x201616
  408ae2:	add    al,0x0
  408ae4:	add    BYTE PTR [eax],ah
  408ae6:	add    BYTE PTR [ebx],al
  408ae8:	add    BYTE PTR [eax],al
  408aea:	sub    BYTE PTR [esi+0x1],dl
  408aed:	add    BYTE PTR [esi],al
  408aef:	adc    al,BYTE PTR es:[edx+eax*1]
  408af3:	jnp    0x408b13
  408af5:	add    DWORD PTR [eax],eax
  408af7:	add    al,0x28
  408af9:	adc    BYTE PTR [eax],al
  408afb:	add    BYTE PTR [esi],al
  408afd:	add    bh,BYTE PTR [ebx+0x1e]
  408b00:	add    DWORD PTR [eax],eax
  408b02:	add    al,0x28
  408b04:	and    BYTE PTR [eax],al
  408b06:	add    BYTE PTR [esi],al
  408b08:	adc    al,BYTE PTR [ebx]
  408b0a:	adc    al,BYTE PTR ds:0x12928
  408b10:	push   es
  408b11:	sub    BYTE PTR [ebx+0x26060001],al
  408b17:	add    bh,BYTE PTR [ebx+0x1e]
  408b1a:	add    DWORD PTR [eax],eax
  408b1c:	add    al,0x28
  408b1e:	and    BYTE PTR [eax],al
  408b20:	add    BYTE PTR [esi],al
  408b22:	sub    BYTE PTR [edx+0xb060001],al
  408b28:	add    bh,BYTE PTR [ebx+0x1e]
  408b2b:	add    DWORD PTR [eax],eax
  408b2d:	add    al,0x28
  408b2f:	and    BYTE PTR [eax],al
  408b31:	add    BYTE PTR [esi],al
  408b33:	sub    BYTE PTR [eax],ah
  408b35:	add    DWORD PTR [eax],eax
  408b37:	push   es
  408b38:	pop    ds
  408b39:	and    al,0x58
  408b3b:	or     dl,BYTE PTR [edx]
  408b3d:	add    al,BYTE PTR [esi]
  408b3f:	pop    ds
  408b40:	or     al,0xfe
  408b42:	pop    ss
  408b43:	adc    al,BYTE PTR [edx]
  408b45:	pop    ds
  408b46:	or     al,0x58
  408b48:	pop    es
  408b49:	push   esi
  408b4a:	jle    0x408b56
  408b4c:	add    DWORD PTR [eax],eax
  408b4e:	add    al,0x4a
  408b50:	adc    al,BYTE PTR [edx]
  408b52:	adc    al,BYTE PTR [edi+edx*1]
  408b55:	push   ss
  408b56:	sub    BYTE PTR [ecx+0x2060001],al
  408b5c:	sub    BYTE PTR [ebp+0x7e060001],dh
  408b62:	or     al,BYTE PTR [ecx]
  408b64:	add    BYTE PTR [edx+ecx*2],al
  408b67:	sub    BYTE PTR [eax+0x7e060001],al
  408b6d:	or     al,BYTE PTR [ecx]
  408b6f:	add    BYTE PTR [edx+ecx*2],al
  408b72:	sub    BYTE PTR [edi+0x1],bh
  408b75:	add    BYTE PTR [esi],al
  408b77:	add    bh,BYTE PTR [ebx+0x1e]
  408b7a:	add    DWORD PTR [eax],eax
  408b7c:	add    al,0x28
  408b7e:	cmp    DWORD PTR [eax],eax
  408b80:	add    BYTE PTR [esi],al
  408b82:	add    bh,BYTE PTR [ebx+0x1e]
  408b85:	add    DWORD PTR [eax],eax
  408b87:	add    al,0x28
  408b89:	cmp    BYTE PTR [eax],al
  408b8b:	add    BYTE PTR [esi],al
  408b8d:	sub    cl,ah
  408b8f:	int3   
  408b90:	add    esi,DWORD PTR [eax]
  408b92:	add    al,0x0
  408b94:	mov    ecx,0xc4000001
  408b99:	add    BYTE PTR [eax],al
  408b9b:	adc    DWORD PTR [eax+ebp*1],eax
  408b9e:	sub    al,BYTE PTR [eax]
  408ba0:	add    BYTE PTR [edx],cl
  408ba2:	and    BYTE PTR [eax],al
  408ba4:	add    BYTE PTR [eax],dl
  408ba6:	add    BYTE PTR [edi+0x2c],bl
  408ba9:	addr16 add al,0x28
  408bac:	sub    al,BYTE PTR [eax]
  408bae:	add    BYTE PTR [edx],cl
  408bb0:	and    BYTE PTR [eax],al
  408bb2:	add    BYTE PTR [eax],ah
  408bb4:	add    BYTE PTR [edi+0x2c],bl
  408bb7:	pop    ecx
  408bb8:	add    bh,BYTE PTR [ebx+0x1e]
  408bbb:	add    DWORD PTR [eax],eax
  408bbd:	add    al,0x28
  408bbf:	pop    ds
  408bc0:	add    BYTE PTR [eax],al
  408bc2:	push   es
  408bc3:	ins    BYTE PTR es:[edi],dx
  408bc4:	adc    ecx,DWORD PTR [ecx]
  408bc6:	add    al,0x28
  408bc8:	sub    DWORD PTR [eax],eax
  408bca:	add    BYTE PTR [edx],cl
  408bcc:	imul   ebp,DWORD PTR [ebx+edx*1+0x8],0x2
  408bd1:	jnp    0x408bf1
  408bd3:	add    DWORD PTR [eax],eax
  408bd5:	add    al,0x11
  408bd7:	or     DWORD PTR [ecx],edx
  408bd9:	or     BYTE PTR [edx],al
  408bdb:	jnp    0x408bff
  408bdd:	add    DWORD PTR [eax],eax
  408bdf:	add    al,0x6b
  408be1:	ins    BYTE PTR es:[edi],dx
  408be2:	pop    ecx
  408be3:	and    eax,DWORD PTR [eax]
  408be5:	add    BYTE PTR [eax],al
  408be7:	add    BYTE PTR [eax],al
  408be9:	add    BYTE PTR [ecx+0x40],bl
  408bec:	pop    ebx
  408bed:	pop    ecx
  408bee:	imul   ebp,DWORD PTR [eax],0x1c
  408bf1:	add    BYTE PTR [eax],al
  408bf3:	push   es
  408bf4:	add    al,BYTE PTR [eax+ebp*1]
  408bf7:	sub    BYTE PTR [eax],al
  408bf9:	add    BYTE PTR [edx],cl
  408bfb:	jge    0x408c1e
  408bfd:	add    DWORD PTR [eax],eax
  408bff:	add    al,0x2
  408c01:	add    al,0x28
  408c03:	sub    DWORD PTR [eax],eax
  408c05:	add    BYTE PTR [edx],cl
  408c07:	jge    0x408c2b
  408c09:	add    DWORD PTR [eax],eax
  408c0b:	add    al,0x38
  408c0d:	inc    ebx
  408c0e:	add    DWORD PTR [eax],eax
  408c10:	add    BYTE PTR [eax+ebp*1],al
  408c13:	sub    al,BYTE PTR [eax]
  408c15:	add    BYTE PTR [edx],cl
  408c17:	and    BYTE PTR [eax],al
  408c19:	add    BYTE PTR [eax],dl
  408c1b:	add    BYTE PTR [edi+0x2c],bl
  408c1e:	dec    ecx
  408c1f:	add    al,0x28
  408c21:	sub    BYTE PTR [eax],al
  408c23:	add    BYTE PTR [edx],cl
  408c25:	imul   ebp,DWORD PTR [ebx+edx*1+0x7],0x11
  408c2a:	pop    es
  408c2b:	add    bh,BYTE PTR [ebx+0x28]
  408c2e:	add    DWORD PTR [eax],eax
  408c30:	add    al,0x28
  408c32:	das    
  408c33:	add    BYTE PTR [eax],al
  408c35:	or     ch,BYTE PTR [ebx+0x6c]
  408c38:	pop    ebx
  408c39:	imul   edx,DWORD PTR [ebx],0x6
  408c3c:	add    al,0x28
  408c3e:	sub    DWORD PTR [eax],eax
  408c40:	add    BYTE PTR [edx],cl
  408c42:	imul   ebp,DWORD PTR [ebx+edx*1+0x5],0x11
  408c47:	add    eax,0x1287b02
  408c4c:	add    BYTE PTR [eax+ebp*1],al
  408c4f:	sub    eax,0x6b0a0000
  408c54:	ins    BYTE PTR es:[edi],dx
  408c55:	pop    ebx
  408c56:	imul   edx,DWORD PTR [ebx],0x4
  408c59:	add    bh,BYTE PTR [ebx+0x1e]
  408c5c:	add    DWORD PTR [eax],eax
  408c5e:	add    al,0x11
  408c60:	push   es
  408c61:	adc    DWORD PTR [eax+ebp*1],eax
  408c64:	inc    ebx
  408c65:	add    BYTE PTR [eax],al
  408c67:	push   es
  408c68:	add    bh,BYTE PTR [ebx+0x1f]
  408c6b:	add    DWORD PTR [eax],eax
  408c6d:	add    al,0x2c
  408c6f:	pop    ebx
  408c70:	add    al,0x28
  408c72:	sub    BYTE PTR [eax],al
  408c74:	add    BYTE PTR [edx],cl
  408c76:	imul   ebp,DWORD PTR [ebp+ecx*1+0x2],0x7b
  408c7b:	push   ds
  408c7c:	add    DWORD PTR [eax],eax
  408c7e:	add    al,0x9
  408c80:	add    bh,BYTE PTR [ebx+0x21]
  408c83:	add    DWORD PTR [eax],eax
  408c85:	add    al,0x6b
  408c87:	ins    BYTE PTR es:[edi],dx
  408c88:	pop    ecx
  408c89:	imul   ebp,DWORD PTR [eax],0x18
  408c8c:	add    BYTE PTR [eax],al
  408c8e:	push   es
  408c8f:	add    al,0x28
  408c91:	sub    DWORD PTR [eax],eax
  408c93:	add    BYTE PTR [edx],cl
  408c95:	imul   ebp,DWORD PTR [esp+ecx*1+0x2],0x7b
  408c9a:	push   ds
  408c9b:	add    DWORD PTR [eax],eax
  408c9d:	add    al,0x8
  408c9f:	add    bh,BYTE PTR [ebx+0x22]
  408ca2:	add    DWORD PTR [eax],eax
  408ca4:	add    al,0x6b
  408ca6:	ins    BYTE PTR es:[edi],dx
  408ca7:	pop    ecx
  408ca8:	imul   ebp,DWORD PTR [eax],0x19
  408cab:	add    BYTE PTR [eax],al
  408cad:	push   es
  408cae:	add    al,BYTE PTR [eax+ebp*1]
  408cb1:	sub    BYTE PTR [eax],al
  408cb3:	add    BYTE PTR [edx],cl
  408cb5:	jge    0x408cd8
  408cb7:	add    DWORD PTR [eax],eax
  408cb9:	add    al,0x2
  408cbb:	add    al,0x28
  408cbd:	sub    DWORD PTR [eax],eax
  408cbf:	add    BYTE PTR [edx],cl
  408cc1:	jge    0x408ce5
  408cc3:	add    DWORD PTR [eax],eax
  408cc5:	add    al,0x38
  408cc7:	mov    DWORD PTR [eax],eax
  408cc9:	add    BYTE PTR [eax],al
  408ccb:	add    bh,BYTE PTR [ebx+0x20]
  408cce:	add    DWORD PTR [eax],eax
  408cd0:	add    al,0x39
  408cd2:	jle    0x408cd4
  408cd4:	add    BYTE PTR [eax],al
  408cd6:	add    bh,BYTE PTR [ebx+0x1e]
  408cd9:	add    DWORD PTR [eax],eax
  408cdb:	add    al,0x28
  408cdd:	sbb    eax,0x6c060000
  408ce2:	or     eax,DWORD PTR [edx]
  408ce4:	jnp    0x408d04
  408ce6:	add    DWORD PTR [eax],eax
  408ce8:	add    al,0x7
  408cea:	add    al,0x28
  408cec:	sub    BYTE PTR [eax],al
  408cee:	add    BYTE PTR [edx],cl
  408cf0:	add    bh,BYTE PTR [ebx+0x21]
  408cf3:	add    DWORD PTR [eax],eax
  408cf5:	add    al,0x59
  408cf7:	ins    BYTE PTR es:[edi],dx
  408cf8:	and    eax,DWORD PTR [eax]
  408cfa:	add    BYTE PTR [eax],al
  408cfc:	add    BYTE PTR [eax],al
  408cfe:	add    BYTE PTR [ecx+0x40],bl
  408d01:	pop    ebx
  408d02:	pop    ecx
  408d03:	imul   ebp,DWORD PTR [eax],0x1a
  408d06:	add    BYTE PTR [eax],al
  408d08:	push   es
  408d09:	add    bh,BYTE PTR [ebx+0x1e]
  408d0c:	add    DWORD PTR [eax],eax
  408d0e:	add    al,0x28
  408d10:	push   ds
  408d11:	add    BYTE PTR [eax],al
  408d13:	push   es
  408d14:	ins    BYTE PTR es:[edi],dx
  408d15:	or     al,BYTE PTR [edx]
  408d17:	jnp    0x408d37
  408d19:	add    DWORD PTR [eax],eax
  408d1b:	add    al,0x4
  408d1d:	sub    BYTE PTR [ecx],ch
  408d1f:	add    BYTE PTR [eax],al
  408d21:	or     al,BYTE PTR [edx]
  408d23:	jnp    0x408d47
  408d25:	add    DWORD PTR [eax],eax
  408d27:	add    al,0x59
  408d29:	ins    BYTE PTR es:[edi],dx
  408d2a:	and    eax,DWORD PTR [eax]
  408d2c:	add    BYTE PTR [eax],al
  408d2e:	add    BYTE PTR [eax],al
  408d30:	add    BYTE PTR [ecx+0x40],bl
  408d33:	pop    ebx
  408d34:	push   es
  408d35:	pop    eax
  408d36:	imul   ebp,DWORD PTR [eax],0x1b
  408d39:	add    BYTE PTR [eax],al
  408d3b:	push   es
  408d3c:	add    al,BYTE PTR [eax+ebp*1]
  408d3f:	sub    BYTE PTR [eax],al
  408d41:	add    BYTE PTR [edx],cl
  408d43:	jge    0x408d66
  408d45:	add    DWORD PTR [eax],eax
  408d47:	add    al,0x2
  408d49:	add    al,0x28
  408d4b:	sub    DWORD PTR [eax],eax
  408d4d:	add    BYTE PTR [edx],cl
  408d4f:	jge    0x408d73
  408d51:	add    DWORD PTR [eax],eax
  408d53:	add    al,0x2a
  408d55:	int3   
  408d56:	int3   
  408d57:	int3   
  408d58:	add    esi,DWORD PTR [eax]
  408d5a:	add    al,0x0
  408d5c:	aad    0x0
  408d5e:	add    BYTE PTR [eax],al
  408d60:	mov    BYTE PTR [eax],0x0
  408d63:	adc    DWORD PTR [eax+ebp*1],eax
  408d66:	sub    al,BYTE PTR [eax]
  408d68:	add    BYTE PTR [edx],cl
  408d6a:	and    BYTE PTR [eax],al
  408d6c:	add    BYTE PTR [eax+0x0],al
  408d6f:	pop    edi
  408d70:	sub    al,0x7
  408d72:	add    dl,BYTE PTR [esi]
  408d74:	jge    0x408d96
  408d76:	add    DWORD PTR [eax],eax
  408d78:	add    al,0x4
  408d7a:	sub    BYTE PTR [edx],ch
  408d7c:	add    BYTE PTR [eax],al
  408d7e:	or     ah,BYTE PTR [eax]
  408d80:	add    BYTE PTR [eax],al
  408d82:	and    BYTE PTR [eax],al
  408d84:	pop    edi
  408d85:	sub    al,0x7
  408d87:	add    dl,BYTE PTR [esi]
  408d89:	jge    0x408daa
  408d8b:	add    DWORD PTR [eax],eax
  408d8d:	add    al,0x4
  408d8f:	sub    BYTE PTR [edx],ch
  408d91:	add    BYTE PTR [eax],al
  408d93:	or     bl,BYTE PTR [edi]
  408d95:	adc    al,0x64
  408d97:	pop    ss
  408d98:	pop    edi
  408d99:	adc    eax,DWORD PTR [edi]
  408d9b:	adc    cl,BYTE PTR [ecx]
  408d9d:	adc    DWORD PTR [edi],eax
  408d9f:	rcl    BYTE PTR [edx+0x4],cl
  408da2:	sub    BYTE PTR [edx],ch
  408da4:	add    BYTE PTR [eax],al
  408da6:	or     bl,BYTE PTR [edi]
  408da8:	push   ss
  408da9:	fs pop ss
  408dab:	pop    edi
  408dac:	adc    eax,DWORD PTR [esi]
  408dae:	adc    cl,BYTE PTR [ecx]
  408db0:	pop    ss
  408db1:	pop    eax
  408db2:	adc    DWORD PTR [esi],eax
  408db4:	rcl    BYTE PTR [edx+0x4],cl
  408db7:	sub    BYTE PTR [edx],ch
  408db9:	add    BYTE PTR [eax],al
  408dbb:	or     bl,BYTE PTR [edi]
  408dbd:	adc    eax,0x135f1764
  408dc2:	add    eax,0x58180912
  408dc7:	adc    DWORD PTR ds:0x280452d2,eax
  408dcd:	sub    BYTE PTR [eax],al
  408dcf:	add    BYTE PTR [edx],cl
  408dd1:	imul   ebp,DWORD PTR [ebx+edx*1+0x4],0x11
  408dd6:	add    al,0x2
  408dd8:	jnp    0x408e02
  408dda:	add    DWORD PTR [eax],eax
  408ddc:	add    al,0x28
  408dde:	das    
  408ddf:	add    BYTE PTR [eax],al
  408de1:	or     ch,BYTE PTR [ebx+0x6c]
  408de4:	pop    ebx
  408de5:	imul   ecx,DWORD PTR ds:0x292804,0x0
  408dec:	or     ch,BYTE PTR [ebx+0x6c]
  408def:	or     al,0x8
  408df1:	add    bh,BYTE PTR [ebx+0x28]
  408df4:	add    DWORD PTR [eax],eax
  408df6:	add    al,0x28
  408df8:	sub    eax,0x6b0a0000
  408dfd:	ins    BYTE PTR es:[edi],dx
  408dfe:	pop    ebx
  408dff:	imul   ecx,DWORD PTR [ebx],0x16
  408e02:	or     al,BYTE PTR [esi]
  408e04:	adc    cl,BYTE PTR [ecx]
  408e06:	pop    eax
  408e07:	inc    edi
  408e08:	sub    al,0x1a
  408e0a:	adc    cl,BYTE PTR [eax]
  408e0c:	or     DWORD PTR [esi+0x12],edx
  408e0f:	or     BYTE PTR [edx],bl
  408e11:	pop    eax
  408e12:	pop    es
  408e13:	push   esi
  408e14:	add    bh,BYTE PTR [ebx+0x1e]
  408e17:	add    DWORD PTR [eax],eax
  408e19:	add    al,0x6
  408e1b:	push   ss
  408e1c:	adc    cl,BYTE PTR [eax]
  408e1e:	sub    BYTE PTR [edi],dl
  408e20:	add    BYTE PTR [eax],al
  408e22:	push   es
  408e23:	es push es
  408e25:	pop    ss
  408e26:	pop    eax
  408e27:	or     al,BYTE PTR [esi]
  408e29:	sbb    DWORD PTR [edx],esi
  408e2b:	xlat   BYTE PTR ds:[ebx]
  408e2c:	add    bh,BYTE PTR [ebx+0x28]
  408e2f:	add    DWORD PTR [eax],eax
  408e31:	add    al,0x16
  408e33:	sub    BYTE PTR [edi],ah
  408e35:	add    BYTE PTR [eax],al
  408e37:	or     ch,BYTE PTR [edx]
  408e39:	int3   
  408e3a:	int3   
  408e3b:	int3   
  408e3c:	add    esi,DWORD PTR [eax]
  408e3e:	add    al,0x0
  408e40:	xor    eax,0xc7000000
  408e45:	add    BYTE PTR [eax],al
  408e47:	adc    DWORD PTR [eax+ebp*1],eax
  408e4a:	add    BYTE PTR es:[eax],al
  408e4d:	or     ch,BYTE PTR [esp+ebp*1]
  408e50:	add    bh,BYTE PTR [ebx+0x1e]
  408e53:	add    DWORD PTR [eax],eax
  408e55:	add    al,0x28
  408e57:	pop    ds
  408e58:	add    BYTE PTR [eax],al
  408e5a:	push   es
  408e5b:	ins    BYTE PTR es:[edi],dx
  408e5c:	or     al,BYTE PTR [edx]
  408e5e:	jnp    0x408e7e
  408e60:	add    DWORD PTR [eax],eax
  408e62:	add    al,0x6
  408e64:	add    al,0x28
  408e66:	add    BYTE PTR es:[eax],al
  408e69:	or     ch,BYTE PTR [ebx+eiz*1+0x0]
  408e6d:	add    BYTE PTR [eax],al
  408e6f:	add    BYTE PTR [eax],al
  408e71:	inc    eax
  408e72:	jg     0x408eb4
  408e74:	pop    ebx
  408e75:	pop    ecx
  408e76:	imul   ebp,DWORD PTR [eax],0x1c
  408e79:	add    BYTE PTR [eax],al
  408e7b:	push   es
  408e7c:	sub    cl,ah
  408e7e:	int3   
  408e7f:	int3   
  408e80:	add    esi,DWORD PTR [eax]
  408e82:	add    al,0x0
  408e84:	sbb    eax,DWORD PTR [ecx]
  408e86:	add    BYTE PTR [eax],al
  408e88:	mov    BYTE PTR [eax],0x0
  408e8b:	adc    DWORD PTR [edx],eax
  408e8d:	jnp    0x408eb7
  408e8f:	add    DWORD PTR [eax],eax
  408e91:	add    al,0x28
  408e93:	and    eax,0x260a0000
  408e98:	add    bh,BYTE PTR [ebx+0x28]
  408e9b:	add    DWORD PTR [eax],eax
  408e9d:	add    al,0x17
  408e9f:	sub    BYTE PTR [edi],ah
  408ea1:	add    BYTE PTR [eax],al
  408ea3:	or     al,BYTE PTR [eax+ebp*1]
  408ea6:	sub    al,BYTE PTR [eax]
  408ea8:	add    BYTE PTR [edx],cl
  408eaa:	and    BYTE PTR [eax],al
  408eac:	add    BYTE PTR [eax],ah
  408eae:	add    BYTE PTR [edi+0x2c],bl
  408eb1:	and    al,0x2
  408eb3:	pop    ss
  408eb4:	jge    0x408ed5
  408eb6:	add    DWORD PTR [eax],eax
  408eb8:	add    al,0x2
  408eba:	add    al,0x28
  408ebc:	sub    BYTE PTR [eax],al
  408ebe:	add    BYTE PTR [edx],cl
  408ec0:	jge    0x408ee3
  408ec2:	add    DWORD PTR [eax],eax
  408ec4:	add    al,0x2
  408ec6:	add    al,0x28
  408ec8:	sub    DWORD PTR [eax],eax
  408eca:	add    BYTE PTR [edx],cl
  408ecc:	jge    0x408ef0
  408ece:	add    DWORD PTR [eax],eax
  408ed0:	add    al,0x38
  408ed2:	rol    BYTE PTR [eax],1
  408ed4:	add    BYTE PTR [eax],al
  408ed6:	add    al,0x28
  408ed8:	sub    al,BYTE PTR [eax]
  408eda:	add    BYTE PTR [edx],cl
  408edc:	and    BYTE PTR [eax],al
  408ede:	add    BYTE PTR [eax+0x0],al
  408ee1:	pop    edi
  408ee2:	sub    al,0x24
  408ee4:	add    dl,BYTE PTR [edi]
  408ee6:	jge    0x408f08
  408ee8:	add    DWORD PTR [eax],eax
  408eea:	add    al,0x2
  408eec:	add    al,0x28
  408eee:	sub    BYTE PTR [eax],al
  408ef0:	add    BYTE PTR [edx],cl
  408ef2:	jge    0x408f15
  408ef4:	add    DWORD PTR [eax],eax
  408ef6:	add    al,0x2
  408ef8:	add    al,0x28
  408efa:	sub    DWORD PTR [eax],eax
  408efc:	add    BYTE PTR [edx],cl
  408efe:	jge    0x408f22
  408f00:	add    DWORD PTR [eax],eax
  408f02:	add    al,0x38
  408f04:	sahf   
  408f05:	add    BYTE PTR [eax],al
  408f07:	add    BYTE PTR [eax+ebp*1],al
  408f0a:	sub    al,BYTE PTR [eax]
  408f0c:	add    BYTE PTR [edx],cl
  408f0e:	pop    ds
  408f0f:	adc    al,0x64
  408f11:	pop    ss
  408f12:	pop    edi
  408f13:	adc    eax,DWORD PTR [edi]
  408f15:	adc    cl,BYTE PTR [ecx]
  408f17:	adc    DWORD PTR [edi],eax
  408f19:	rcl    BYTE PTR [edx+0x4],cl
  408f1c:	sub    BYTE PTR [edx],ch
  408f1e:	add    BYTE PTR [eax],al
  408f20:	or     bl,BYTE PTR [edi]
  408f22:	push   ss
  408f23:	fs pop ss
  408f25:	pop    edi
  408f26:	adc    eax,DWORD PTR [esi]
  408f28:	adc    cl,BYTE PTR [ecx]
  408f2a:	pop    ss
  408f2b:	pop    eax
  408f2c:	adc    DWORD PTR [esi],eax
  408f2e:	rcl    BYTE PTR [edx+0x4],cl
  408f31:	sub    BYTE PTR [edx],ch
  408f33:	add    BYTE PTR [eax],al
  408f35:	or     bl,BYTE PTR [edi]
  408f37:	adc    eax,0x135f1764
  408f3c:	add    eax,0x58180912
  408f41:	adc    DWORD PTR ds:0x280452d2,eax
  408f47:	sub    BYTE PTR [eax],al
  408f49:	add    BYTE PTR [edx],cl
  408f4b:	imul   ebp,DWORD PTR [ebx+edx*1+0x4],0x11
  408f50:	add    al,0x2
  408f52:	jnp    0x408f7c
  408f54:	add    DWORD PTR [eax],eax
  408f56:	add    al,0x28
  408f58:	das    
  408f59:	add    BYTE PTR [eax],al
  408f5b:	or     ch,BYTE PTR [ebx+0x6c]
  408f5e:	pop    ebx
  408f5f:	imul   ecx,DWORD PTR ds:0x292804,0x0
  408f66:	or     ch,BYTE PTR [ebx+0x6c]
  408f69:	or     al,0x8
  408f6b:	add    bh,BYTE PTR [ebx+0x28]
  408f6e:	add    DWORD PTR [eax],eax
  408f70:	add    al,0x28
  408f72:	sub    eax,0x6b0a0000
  408f77:	ins    BYTE PTR es:[edi],dx
  408f78:	pop    ebx
  408f79:	imul   ecx,DWORD PTR [ebx],0x16
  408f7c:	or     al,BYTE PTR [esi]
  408f7e:	adc    cl,BYTE PTR [ecx]
  408f80:	pop    eax
  408f81:	inc    edi
  408f82:	sub    al,0x1a
  408f84:	adc    cl,BYTE PTR [eax]
  408f86:	or     DWORD PTR [esi+0x12],edx
  408f89:	or     BYTE PTR [edx],bl
  408f8b:	pop    eax
  408f8c:	pop    es
  408f8d:	push   esi
  408f8e:	add    bh,BYTE PTR [ebx+0x1e]
  408f91:	add    DWORD PTR [eax],eax
  408f93:	add    al,0x6
  408f95:	pop    ss
  408f96:	adc    cl,BYTE PTR [eax]
  408f98:	sub    BYTE PTR [edi],dl
  408f9a:	add    BYTE PTR [eax],al
  408f9c:	push   es
  408f9d:	es push es
  408f9f:	pop    ss
  408fa0:	pop    eax
  408fa1:	or     al,BYTE PTR [esi]
  408fa3:	sbb    DWORD PTR [edx],esi
  408fa5:	xlat   BYTE PTR ds:[ebx]
  408fa6:	sub    cl,ah
  408fa8:	add    esi,DWORD PTR [eax]
  408faa:	add    DWORD PTR [eax],eax
  408fac:	pop    es
  408fad:	add    BYTE PTR [eax],al
  408faf:	add    BYTE PTR [eax],al
  408fb1:	add    BYTE PTR [eax],al
  408fb3:	add    BYTE PTR [edx],al
  408fb5:	sub    BYTE PTR [esi+0x2a060001],dh
  408fbb:	int3   
  408fbc:	add    esi,DWORD PTR [eax]
  408fbe:	add    DWORD PTR [eax],eax
  408fc0:	pop    es
  408fc1:	add    BYTE PTR [eax],al
  408fc3:	add    BYTE PTR [eax],al
  408fc5:	add    BYTE PTR [eax],al
  408fc7:	add    BYTE PTR [edx],al
  408fc9:	sub    BYTE PTR [esi+0x2a060001],dh
  408fcf:	int3   
  408fd0:	add    esi,DWORD PTR [eax]
  408fd2:	add    DWORD PTR [eax],eax
  408fd4:	pop    es
  408fd5:	add    BYTE PTR [eax],al
  408fd7:	add    BYTE PTR [eax],al
  408fd9:	add    BYTE PTR [eax],al
  408fdb:	add    BYTE PTR [edx],al
  408fdd:	sub    BYTE PTR [esi+0x2a060001],dh
  408fe3:	int3   
  408fe4:	add    esi,DWORD PTR [eax]
  408fe6:	add    eax,DWORD PTR [eax]
  408fe8:	mov    WORD PTR [eax],es
  408fea:	add    BYTE PTR [eax],al
  408fec:	leave  
  408fed:	add    BYTE PTR [eax],al
  408fef:	adc    DWORD PTR [edx],eax
  408ff1:	jnp    0x409021
  408ff3:	add    DWORD PTR [eax],eax
  408ff5:	add    al,0x28
  408ff7:	and    al,0x0
  408ff9:	add    BYTE PTR [edx],cl
  408ffb:	pop    ss
  408ffc:	inc    eax
  408ffd:	jp     0x408fff
  408fff:	add    BYTE PTR [eax],al
  409001:	add    bh,BYTE PTR [ebx+0x2e]
  409004:	add    DWORD PTR [eax],eax
  409006:	add    al,0x28
  409008:	and    al,BYTE PTR [eax]
  40900a:	add    BYTE PTR [edx],cl
  40900c:	or     eax,0x3120212
  409011:	sub    BYTE PTR [ebx],ah
  409013:	add    BYTE PTR [eax],al
  409015:	or     dh,BYTE PTR [esi+0x6c]
  409018:	and    eax,DWORD PTR [eax]
  40901a:	add    BYTE PTR [eax],al
  40901c:	add    BYTE PTR [eax],al
  40901e:	loopne 0x40908f
  409020:	inc    eax
  409021:	pop    ebx
  409022:	imul   edx,DWORD PTR [esi+0x2],0x7b
  409026:	add    DWORD PTR cs:[eax],eax
  409029:	add    al,0x28
  40902b:	and    al,BYTE PTR [eax]
  40902d:	add    BYTE PTR [edx],cl
  40902f:	or     edx,DWORD PTR [edx]
  409031:	add    bl,BYTE PTR [edx]
  409033:	pop    eax
  409034:	adc    al,BYTE PTR [ecx]
  409036:	sub    BYTE PTR [ecx],ah
  409038:	add    BYTE PTR [eax],al
  40903a:	or     dh,BYTE PTR [esi+0x6c]
  40903d:	and    eax,DWORD PTR [eax]
  40903f:	add    BYTE PTR [eax],al
  409041:	add    BYTE PTR [eax],al
  409043:	loopne 0x4090b4
  409045:	inc    eax
  409046:	pop    ebx
  409047:	imul   edx,DWORD PTR [esi+0x2],0x7b
  40904b:	add    DWORD PTR cs:[eax],eax
  40904e:	add    al,0x28
  409050:	and    al,BYTE PTR [eax]
  409052:	add    BYTE PTR [edx],cl
  409054:	or     dl,BYTE PTR [edx]
  409056:	add    bl,BYTE PTR [esi]
  409058:	pop    eax
  409059:	adc    al,BYTE PTR [eax]
  40905b:	sub    BYTE PTR [eax],ah
  40905d:	add    BYTE PTR [eax],al
  40905f:	or     dh,BYTE PTR [esi+0x6c]
  409062:	and    eax,DWORD PTR [eax]
  409064:	add    BYTE PTR [eax],al
  409066:	add    BYTE PTR [eax],al
  409068:	loopne 0x4090d9
  40906a:	inc    eax
  40906b:	pop    ebx
  40906c:	imul   edx,DWORD PTR [esi+0x2],0x7b
  409070:	push   ds
  409071:	add    DWORD PTR [eax],eax
  409073:	add    al,0x12
  409075:	add    ch,BYTE PTR [eax]
  409077:	and    DWORD PTR [eax],eax
  409079:	add    BYTE PTR [esi],al
  40907b:	sub    al,BYTE PTR [ebx]
  40907d:	xor    BYTE PTR [ecx],al
  40907f:	add    BYTE PTR [eax+eax*1],cl
  409082:	add    BYTE PTR [eax],al
  409084:	add    BYTE PTR [eax],al
  409086:	add    BYTE PTR [eax],al
  409088:	add    bh,BYTE PTR [ebx+0x1e]
  40908b:	add    DWORD PTR [eax],eax
  40908d:	add    al,0x28
  40908f:	cmp    al,BYTE PTR [eax]
  409091:	add    BYTE PTR [esi],al
  409093:	sub    al,BYTE PTR [ebx]
  409095:	xor    BYTE PTR [ecx],al
  409097:	add    BYTE PTR [eax+eax*1],cl
  40909a:	add    BYTE PTR [eax],al
  40909c:	add    BYTE PTR [eax],al
  40909e:	add    BYTE PTR [eax],al
  4090a0:	add    bh,BYTE PTR [ebx+0x1e]
  4090a3:	add    DWORD PTR [eax],eax
  4090a5:	add    al,0x28
  4090a7:	cmp    eax,DWORD PTR [eax]
  4090a9:	add    BYTE PTR [esi],al
  4090ab:	sub    al,BYTE PTR [ebx]
  4090ad:	xor    BYTE PTR [ebx],al
  4090af:	add    BYTE PTR [ebx-0x36000000],dh
  4090b5:	add    BYTE PTR [eax],al
  4090b7:	adc    DWORD PTR [edx],eax
  4090b9:	jnp    0x4090e9
  4090bb:	add    DWORD PTR [eax],eax
  4090bd:	add    al,0x28
  4090bf:	and    al,0x0
  4090c1:	add    BYTE PTR [edx],cl
  4090c3:	pop    ss
  4090c4:	inc    eax
  4090c5:	mov    eax,ds:0x2000000
  4090ca:	jnp    0x4090fa
  4090cc:	add    DWORD PTR [eax],eax
  4090ce:	add    al,0x28
  4090d0:	and    al,BYTE PTR [eax]
  4090d2:	add    BYTE PTR [edx],cl
  4090d4:	adc    eax,DWORD PTR [edx+edx*1]
  4090d7:	add    edx,DWORD PTR [edx]
  4090d9:	add    al,0x28
  4090db:	and    eax,DWORD PTR [eax]
  4090dd:	add    BYTE PTR [edx],cl
  4090df:	jbe    0x40914d
  4090e1:	and    eax,DWORD PTR [eax]
  4090e3:	add    BYTE PTR [eax],al
  4090e5:	add    BYTE PTR [eax],al
  4090e7:	loopne 0x409158
  4090e9:	inc    eax
  4090ea:	pop    ebx
  4090eb:	imul   edx,DWORD PTR [esi+0x2],0x7b
  4090ef:	add    DWORD PTR cs:[eax],eax
  4090f2:	add    al,0x28
  4090f4:	and    al,BYTE PTR [eax]
  4090f6:	add    BYTE PTR [edx],cl
  4090f8:	or     al,0x12
  4090fa:	add    ebx,DWORD PTR [edx]
  4090fc:	pop    eax
  4090fd:	adc    al,BYTE PTR [edx]
  4090ff:	sub    BYTE PTR [ecx],ah
  409101:	add    BYTE PTR [eax],al
  409103:	or     dh,BYTE PTR [esi+0x6c]
  409106:	and    eax,DWORD PTR [eax]
  409108:	add    BYTE PTR [eax],al
  40910a:	add    BYTE PTR [eax],al
  40910c:	loopne 0x40917d
  40910e:	inc    eax
  40910f:	pop    ebx
  409110:	imul   edx,DWORD PTR [esi+0x2],0x7b
  409114:	add    DWORD PTR cs:[eax],eax
  409117:	add    al,0x28
  409119:	and    al,BYTE PTR [eax]
  40911b:	add    BYTE PTR [edx],cl
  40911d:	or     edx,DWORD PTR [edx]
  40911f:	add    ebx,DWORD PTR [esi]
  409121:	pop    eax
  409122:	adc    al,BYTE PTR [ecx]
  409124:	sub    BYTE PTR [eax],ah
  409126:	add    BYTE PTR [eax],al
  409128:	or     dh,BYTE PTR [esi+0x6c]
  40912b:	and    eax,DWORD PTR [eax]
  40912d:	add    BYTE PTR [eax],al
  40912f:	add    BYTE PTR [eax],al
  409131:	loopne 0x4091a2
  409133:	inc    eax
  409134:	pop    ebx
  409135:	imul   edx,DWORD PTR [esi+0x12],0x0
  409139:	adc    al,BYTE PTR [ebx]
  40913b:	dec    esi
  40913c:	push   esi
  40913d:	adc    al,BYTE PTR [eax]
  40913f:	sbb    bl,BYTE PTR [eax+0x12]
  409142:	add    ebx,DWORD PTR [edx]
  409144:	pop    eax
  409145:	dec    esi
  409146:	push   esi
  409147:	adc    al,BYTE PTR [eax]
  409149:	push   ds
  40914a:	pop    eax
  40914b:	adc    al,BYTE PTR [ebx]
  40914d:	push   ds
  40914e:	pop    eax
  40914f:	dec    esi
  409150:	push   esi
  409151:	adc    al,BYTE PTR [eax]
  409153:	pop    ds
  409154:	or     al,0x58
  409156:	adc    al,BYTE PTR [ebx]
  409158:	pop    ds
  409159:	or     al,0x58
  40915b:	dec    esi
  40915c:	push   esi
  40915d:	add    bh,BYTE PTR [ebx+0x1e]
  409160:	add    DWORD PTR [eax],eax
  409162:	add    al,0x12
  409164:	add    BYTE PTR [eax],ch
  409166:	inc    ecx
  409167:	add    BYTE PTR [eax],al
  409169:	push   es
  40916a:	sub    cl,ah
  40916c:	add    esi,DWORD PTR [eax]
  40916e:	add    DWORD PTR [eax],eax
  409170:	or     al,0x0
  409172:	add    BYTE PTR [eax],al
  409174:	add    BYTE PTR [eax],al
  409176:	add    BYTE PTR [eax],al
  409178:	add    bh,BYTE PTR [ebx+0x1e]
  40917b:	add    DWORD PTR [eax],eax
  40917d:	add    al,0x28
  40917f:	xor    DWORD PTR [eax],eax
  409181:	add    BYTE PTR [esi],al
  409183:	sub    al,BYTE PTR [ebx]
  409185:	xor    BYTE PTR [edx],al
  409187:	add    BYTE PTR [edi],dl
  409189:	add    BYTE PTR [eax],al
  40918b:	add    BYTE PTR [eax],al
  40918d:	add    BYTE PTR [eax],al
  40918f:	add    BYTE PTR [edx],al
  409191:	jnp    0x4091b1
  409193:	add    DWORD PTR [eax],eax
  409195:	add    al,0x2
  409197:	jnp    0x4091d8
  409199:	add    DWORD PTR [eax],eax
  40919b:	add    al,0x28
  40919d:	sbb    al,BYTE PTR [eax]
  40919f:	add    BYTE PTR [edx],cl
  4091a1:	sub    BYTE PTR [eax+0x0],al
  4091a4:	add    BYTE PTR [esi],al
  4091a6:	sub    cl,ah
  4091a8:	add    esi,DWORD PTR [eax]
  4091aa:	add    al,BYTE PTR [eax]
  4091ac:	pop    ss
  4091ad:	add    BYTE PTR [eax],al
  4091af:	add    BYTE PTR [eax],al
  4091b1:	add    BYTE PTR [eax],al
  4091b3:	add    BYTE PTR [edx],al
  4091b5:	jnp    0x4091d5
  4091b7:	add    DWORD PTR [eax],eax
  4091b9:	add    al,0x2
  4091bb:	jnp    0x4091fd
  4091bd:	add    DWORD PTR [eax],eax
  4091bf:	add    al,0x28
  4091c1:	sbb    al,BYTE PTR [eax]
  4091c3:	add    BYTE PTR [edx],cl
  4091c5:	sub    BYTE PTR [edi],bh
  4091c7:	add    BYTE PTR [eax],al
  4091c9:	push   es
  4091ca:	sub    cl,ah
  4091cc:	add    esi,DWORD PTR [eax]
  4091ce:	add    DWORD PTR [eax],eax
  4091d0:	or     al,0x0
  4091d2:	add    BYTE PTR [eax],al
  4091d4:	add    BYTE PTR [eax],al
  4091d6:	add    BYTE PTR [eax],al
  4091d8:	add    bh,BYTE PTR [ebx+0x1e]
  4091db:	add    DWORD PTR [eax],eax
  4091dd:	add    al,0x28
  4091df:	adc    eax,0x2a060000
  4091e4:	add    esi,DWORD PTR [eax]
  4091e6:	add    DWORD PTR [eax],eax
  4091e8:	or     al,0x0
  4091ea:	add    BYTE PTR [eax],al
  4091ec:	add    BYTE PTR [eax],al
  4091ee:	add    BYTE PTR [eax],al
  4091f0:	add    bh,BYTE PTR [ebx+0x1e]
  4091f3:	add    DWORD PTR [eax],eax
  4091f5:	add    al,0x28
  4091f7:	adc    eax,DWORD PTR [eax]
  4091f9:	add    BYTE PTR [esi],al
  4091fb:	sub    al,BYTE PTR [ebx]
  4091fd:	xor    BYTE PTR [ecx],al
  4091ff:	add    BYTE PTR [eax+eax*1],cl
  409202:	add    BYTE PTR [eax],al
  409204:	add    BYTE PTR [eax],al
  409206:	add    BYTE PTR [eax],al
  409208:	add    bh,BYTE PTR [ebx+0x1e]
  40920b:	add    DWORD PTR [eax],eax
  40920d:	add    al,0x28
  40920f:	adc    al,0x0
  409211:	add    BYTE PTR [esi],al
  409213:	sub    al,BYTE PTR [ebx]
  409215:	xor    BYTE PTR [edx],al
  409217:	add    BYTE PTR [esi],bl
  409219:	add    BYTE PTR [eax],al
  40921b:	add    bl,cl
  40921d:	add    BYTE PTR [eax],al
  40921f:	adc    DWORD PTR [edx],eax
  409221:	jnp    0x40926b
  409223:	add    DWORD PTR [eax],eax
  409225:	add    al,0x28
  409227:	sub    eax,DWORD PTR [eax]
  409229:	add    BYTE PTR [edx],cl
  40922b:	or     al,BYTE PTR [edx]
  40922d:	jnp    0x40924d
  40922f:	add    DWORD PTR [eax],eax
  409231:	add    al,0x6
  409233:	sub    BYTE PTR [eax],bl
  409235:	add    BYTE PTR [eax],al
  409237:	or     ch,BYTE PTR [eax]
  409239:	push   cs
  40923a:	add    BYTE PTR [eax],al
  40923c:	push   es
  40923d:	sub    cl,ah
  40923f:	int3   
  409240:	add    esi,DWORD PTR [eax]
  409242:	add    al,BYTE PTR [eax]
  409244:	push   ds
  409245:	add    BYTE PTR [eax],al
  409247:	add    bl,cl
  409249:	add    BYTE PTR [eax],al
  40924b:	adc    DWORD PTR [edx],eax
  40924d:	jnp    0x409296
  40924f:	add    DWORD PTR [eax],eax
  409251:	add    al,0x28
  409253:	sub    eax,DWORD PTR [eax]
  409255:	add    BYTE PTR [edx],cl
  409257:	or     al,BYTE PTR [edx]
  409259:	jnp    0x409279
  40925b:	add    DWORD PTR [eax],eax
  40925d:	add    al,0x6
  40925f:	sub    BYTE PTR [eax],bl
  409261:	add    BYTE PTR [eax],al
  409263:	or     ch,BYTE PTR [eax]
  409265:	sldt   WORD PTR [eax]
  409268:	push   es
  409269:	sub    cl,ah
  40926b:	int3   
  40926c:	add    esi,DWORD PTR [eax]
  40926e:	add    BYTE PTR [eax],al
  409270:	add    DWORD PTR [eax],eax
  409272:	add    BYTE PTR [eax],al
  409274:	add    BYTE PTR [eax],al
  409276:	add    BYTE PTR [eax],al
  409278:	sub    cl,ah
  40927a:	int3   
  40927b:	int3   
  40927c:	add    esi,DWORD PTR [eax]
  40927e:	add    BYTE PTR [eax],al
  409280:	add    DWORD PTR [eax],eax
  409282:	add    BYTE PTR [eax],al
  409284:	add    BYTE PTR [eax],al
  409286:	add    BYTE PTR [eax],al
  409288:	sub    cl,ah
  40928a:	int3   
  40928b:	int3   
  40928c:	add    esi,DWORD PTR [eax]
  40928e:	add    BYTE PTR [eax],al
  409290:	add    DWORD PTR [eax],eax
  409292:	add    BYTE PTR [eax],al
  409294:	add    BYTE PTR [eax],al
  409296:	add    BYTE PTR [eax],al
  409298:	sub    cl,ah
  40929a:	int3   
  40929b:	int3   
  40929c:	add    esi,DWORD PTR [eax]
  40929e:	add    al,BYTE PTR [eax]
  4092a0:	pop    ebx
  4092a1:	add    BYTE PTR [eax],al
  4092a3:	add    ch,cl
  4092a5:	add    BYTE PTR [eax],al
  4092a7:	adc    DWORD PTR [ebx],eax
  4092a9:	add    eax,0x2b050337
  4092ae:	add    DWORD PTR [ebx],eax
  4092b0:	adc    eax,DWORD PTR ds:0x422c0511
  4092b6:	adc    DWORD PTR ds:0xd040413,eax
  4092bc:	push   ss
  4092bd:	or     al,0x2
  4092bf:	inc    edi
  4092c0:	or     eax,DWORD PTR [edi+eax*2]
  4092c3:	or     al,BYTE PTR [edi]
  4092c5:	push   es
  4092c6:	aaa    
  4092c7:	and    eax,0x13590402
  4092cc:	push   es
  4092cd:	pop    es
  4092ce:	push   es
  4092cf:	xor    eax,0x17041120
  4092d4:	cs sbb eax,0x59170411
  4092da:	adc    eax,DWORD PTR [ecx+ecx*1]
  4092dd:	pop    ss
  4092de:	pop    eax
  4092df:	or     eax,0x58090611
  4092e4:	inc    edi
  4092e5:	or     ecx,DWORD PTR [ecx]
  4092e7:	inc    edi
  4092e8:	or     al,BYTE PTR [edi]
  4092ea:	push   es
  4092eb:	xor    al,0xe0
  4092ed:	adc    eax,0x17022b0c
  4092f2:	or     al,0x8
  4092f4:	sub    al,0x2
  4092f6:	or     BYTE PTR [edx],ch
  4092f8:	add    eax,DWORD PTR ds:0x2a150234
  4092fe:	add    eax,DWORD PTR ds:0xcc2a03fe
  409304:	add    esi,DWORD PTR [eax]
  409306:	add    al,BYTE PTR [eax]
  409308:	mov    BYTE PTR [eax],0x0
  40930b:	add    dh,cl
  40930d:	add    BYTE PTR [eax],al
  40930f:	adc    DWORD PTR ds:0x1f020f2d,eax
  409315:	adc    BYTE PTR [eax+0x4a],bl
  409318:	or     eax,DWORD PTR [edi+eax*1]
  40931b:	aaa    
  40931c:	add    eax,DWORD PTR [edi]
  40931e:	sub    eax,DWORD PTR [ecx]
  409320:	add    al,0x2a
  409322:	add    bl,BYTE PTR [edi]
  409324:	adc    BYTE PTR [eax+0x4a],bl
  409327:	or     eax,DWORD PTR ds:0xa54207
  40932d:	add    BYTE PTR [eax],al
  40932f:	pop    es
  409330:	add    eax,0x40c1359
  409335:	adc    DWORD PTR [edi+esi*1],ecx
  409338:	add    al,0x11
  40933a:	or     al,0x2b
  40933c:	add    DWORD PTR [ebx+edx*1],eax
  40933f:	or     eax,0x58141f02
  409344:	dec    edx
  409345:	adc    eax,DWORD PTR [edi]
  409347:	pop    ds
  409348:	adc    BYTE PTR [ecx],dl
  40934a:	pop    es
  40934b:	xor    eax,0x2b4a0204
  409350:	add    DWORD PTR [edx],eax
  409352:	adc    DWORD PTR ds:0x47030a58,ecx
  409358:	adc    ecx,DWORD PTR [ebx]
  40935a:	push   es
  40935b:	add    ebx,DWORD PTR [ecx+0x13]
  40935e:	push   es
  40935f:	push   es
  409360:	inc    esi
  409361:	adc    ecx,DWORD PTR [edx]
  409363:	adc    DWORD PTR [edx],ecx
  409365:	adc    DWORD PTR [ebx],ecx
  409367:	inc    BYTE PTR [ecx]
  409369:	shr    BYTE PTR [esp+esi*1],cl
  40936c:	add    eax,0x13030513
  409371:	add    al,0x11
  409373:	or     cl,BYTE PTR ds:0x90c0b11
  409379:	or     BYTE PTR [edi],dh
  40937b:	and    al,0x9
  40937d:	or     BYTE PTR ds:0x17051120,dh
  409383:	cmp    edx,DWORD PTR cs:[ecx]
  409386:	add    eax,0x5135917
  40938b:	adc    DWORD PTR [edi+edx*1],eax
  40938e:	pop    eax
  40938f:	adc    eax,DWORD PTR [ecx+edx*1]
  409392:	push   es
  409393:	adc    DWORD PTR [eax+ebx*2],eax
  409396:	inc    edi
  409397:	or     eax,0xc470411
  40939c:	or     DWORD PTR [eax],ecx
  40939e:	xor    al,0xdc
  4093a0:	pop    ds
  4093a1:	adc    BYTE PTR [ecx],dl
  4093a3:	pop    es
  4093a4:	xor    eax,0x134a0206
  4093a9:	or     DWORD PTR [ebx],ebp
  4093ab:	add    eax,DWORD PTR [edx]
  4093ad:	adc    ecx,DWORD PTR [ecx]
  4093af:	push   es
  4093b0:	adc    DWORD PTR [ecx],ecx
  4093b2:	and    BYTE PTR cs:[esi],al
  4093b5:	pop    ss
  4093b6:	pop    ecx
  4093b7:	or     dl,BYTE PTR [ecx]
  4093b9:	push   es
  4093ba:	pop    ss
  4093bb:	pop    ecx
  4093bc:	adc    eax,DWORD PTR [esi]
  4093be:	sub    ebx,DWORD PTR [edi+0x711101f]
  4093c4:	xor    eax,0x134a0206
  4093c9:	or     BYTE PTR [ebx],ch
  4093cb:	add    eax,DWORD PTR [edx]
  4093cd:	adc    ecx,DWORD PTR [eax]
  4093cf:	push   es
  4093d0:	adc    DWORD PTR [eax],ecx
  4093d2:	pop    ecx
  4093d3:	sub    dl,BYTE PTR ds:0x3cccc2a
  4093d9:	xor    BYTE PTR ds:0x2f00,al
  4093df:	add    bh,cl
  4093e1:	add    BYTE PTR [eax],al
  4093e3:	adc    DWORD PTR [edi],ebx
  4093e5:	adc    BYTE PTR [ebx],al
  4093e7:	pop    ds
  4093e8:	adc    al,0x58
  4093ea:	dec    edx
  4093eb:	xor    eax,0xa4a0305
  4093f0:	sub    eax,DWORD PTR [edx]
  4093f2:	add    ecx,DWORD PTR [edx]
  4093f4:	pop    ds
  4093f5:	adc    BYTE PTR [edx],al
  4093f7:	pop    ds
  4093f8:	adc    al,0x58
  4093fa:	dec    edx
  4093fb:	xor    eax,0x2b4a0204
  409400:	add    DWORD PTR [edx],eax
  409402:	add    bl,BYTE PTR [edi]
  409404:	adc    BYTE PTR [eax+0x4a],bl
  409407:	push   es
  409408:	add    ebx,DWORD PTR [edi]
  40940a:	adc    BYTE PTR [eax+0x4a],bl
  40940d:	sub    BYTE PTR [edx+0x2a060000],dl
  409413:	add    BYTE PTR [ebx],al
  409415:	xor    BYTE PTR [ebx],al
  409417:	add    BYTE PTR [eax+eax*1+0xd00000],cl
  40941e:	add    BYTE PTR [ecx],dl
  409420:	pop    ds
  409421:	adc    BYTE PTR [edx],al
  409423:	pop    ds
  409424:	adc    al,0x58
  409426:	dec    edx
  409427:	xor    eax,0x3101f34
  40942c:	pop    ds
  40942d:	adc    al,0x58
  40942f:	dec    edx
  409430:	xor    eax,0x134a020e
  409435:	or     BYTE PTR [edx],al
  409437:	add    ecx,DWORD PTR [edx+0x54]
  40943a:	add    edx,DWORD PTR [ecx]
  40943c:	or     BYTE PTR [ebx+ebp*1+0x6b],dl
  409440:	add    cl,BYTE PTR [edx+0x13]
  409443:	pop    es
  409444:	add    ebx,DWORD PTR [edi]
  409446:	adc    BYTE PTR [eax+0x4a],bl
  409449:	pop    ss
  40944a:	pop    eax
  40944b:	adc    eax,DWORD PTR [ecx+edx*1]
  40944e:	add    al,0x2c
  409450:	push   es
  409451:	add    al,BYTE PTR [ebx]
  409453:	adc    DWORD PTR [esi+edi*8],eax
  409456:	pop    ss
  409457:	add    edx,DWORD PTR [ecx]
  409459:	pop    es
  40945a:	push   esp
  40945b:	sub    ecx,DWORD PTR [esi+0x3]
  40945e:	pop    ds
  40945f:	adc    al,0x58
  409461:	dec    edx
  409462:	pop    ds
  409463:	adc    BYTE PTR [ebp*1+0x412e0302],dh
  40946a:	add    cl,BYTE PTR [edx]
  40946c:	add    bl,BYTE PTR [edi]
  40946e:	adc    BYTE PTR [eax+0xd],bl
  409471:	add    cl,BYTE PTR [ecx]
  409473:	cs add eax,DWORD PTR ss:[edx]
  409477:	pop    ecx
  409478:	or     al,0x6
  40947a:	inc    esi
  40947b:	adc    eax,DWORD PTR [esi]
  40947d:	push   es
  40947e:	and    eax,0x52465808
  409483:	push   es
  409484:	or     BYTE PTR [eax+0x11],bl
  409487:	push   es
  409488:	push   edx
  409489:	push   es
  40948a:	pop    ss
  40948b:	pop    eax
  40948c:	or     al,BYTE PTR [esi]
  40948e:	or     DWORD PTR [ebx],esi
  409490:	call   0x4a43acc0
  409495:	adc    eax,DWORD PTR ds:0x58101f02
  40949b:	dec    edx
  40949c:	pop    ss
  40949d:	pop    eax
  40949e:	or     eax,DWORD PTR [edi]
  4094a0:	sub    al,0x5
  4094a2:	add    eax,DWORD PTR [edx]
  4094a4:	pop    es
  4094a5:	(bad)  
  4094a6:	pop    ss
  4094a7:	add    dl,BYTE PTR [ecx]
  4094a9:	add    eax,0x30032a54
  4094ae:	add    eax,DWORD PTR [eax]
  4094b0:	cmp    BYTE PTR [eax],al
  4094b2:	add    BYTE PTR [eax],al
  4094b4:	rol    DWORD PTR [eax],1
  4094b6:	add    BYTE PTR [ecx],dl
  4094b8:	add    al,BYTE PTR [ebx]
  4094ba:	xor    eax,DWORD PTR cs:[edx]
  4094bd:	add    ebp,DWORD PTR [eax]
  4094bf:	xchg   ebp,eax
  4094c0:	add    BYTE PTR [eax],al
  4094c2:	push   es
  4094c3:	add    bl,BYTE PTR [edi]
  4094c5:	adc    BYTE PTR [eax+0x4a],bl
  4094c8:	or     eax,DWORD PTR [edx]
  4094ca:	pop    ds
  4094cb:	adc    BYTE PTR [eax+0x3],bl
  4094ce:	pop    ds
  4094cf:	adc    BYTE PTR [eax+0x4a],bl
  4094d2:	push   esp
  4094d3:	add    ebx,DWORD PTR [edi]
  4094d5:	adc    BYTE PTR [eax+0x7],bl
  4094d8:	push   esp
  4094d9:	add    bl,BYTE PTR [edi]
  4094db:	adc    al,0x58
  4094dd:	dec    edx
  4094de:	or     al,BYTE PTR [edx]
  4094e0:	pop    ds
  4094e1:	adc    al,0x58
  4094e3:	add    ebx,DWORD PTR [edi]
  4094e5:	adc    al,0x58
  4094e7:	dec    edx
  4094e8:	push   esp
  4094e9:	add    ebx,DWORD PTR [edi]
  4094eb:	adc    al,0x58
  4094ed:	push   es
  4094ee:	push   esp
  4094ef:	sub    al,BYTE PTR [ebx]
  4094f1:	xor    BYTE PTR [ebx],al
  4094f3:	add    BYTE PTR [edi],dh
  4094f5:	add    BYTE PTR [eax],al
  4094f7:	add    cl,dl
  4094f9:	add    BYTE PTR [eax],al
  4094fb:	adc    DWORD PTR [edx],eax
  4094fd:	pop    ds
  4094fe:	adc    BYTE PTR [eax+0x4a],bl
  409501:	or     eax,DWORD PTR [edi]
  409503:	add    esi,DWORD PTR ds:0x141f022c
  409509:	pop    eax
  40950a:	dec    edx
  40950b:	add    ebp,DWORD PTR [esi]
  40950d:	and    al,0x7
  40950f:	or     al,BYTE PTR [edx]
  409511:	add    edx,DWORD PTR [edi]
  409513:	sub    BYTE PTR [esi+0x0],ah
  409516:	add    BYTE PTR [esi],al
  409518:	sub    al,0x18
  40951a:	add    bl,BYTE PTR [edi]
  40951c:	adc    BYTE PTR [eax+0x6],bl
  40951f:	push   esp
  409520:	pop    ds
  409521:	adc    BYTE PTR [edx],al
  409523:	pop    ds
  409524:	adc    al,0x58
  409526:	dec    edx
  409527:	xor    eax,0x2b4a0204
  40952c:	add    DWORD PTR [edx],eax
  40952e:	push   es
  40952f:	pop    eax
  409530:	push   ss
  409531:	push   edx
  409532:	sub    cl,ah
  409534:	or     esi,DWORD PTR [eax]
  409536:	add    al,0x0
  409538:	pop    esi
  409539:	add    BYTE PTR [eax],al
  40953b:	add    dl,dl
  40953d:	add    BYTE PTR [eax],al
  40953f:	adc    DWORD PTR [esi],edx
  409541:	or     al,BYTE PTR [ebx]
  409543:	pop    ds
  409544:	adc    BYTE PTR [eax+0x16],bl
  409547:	push   esp
  409548:	add    ebx,DWORD PTR [edi]
  40954a:	adc    al,0x58
  40954c:	push   ss
  40954d:	push   esp
  40954e:	fimul  WORD PTR ds:0x6406fe
  409554:	add    BYTE PTR [esi],al
  409556:	add    ebp,DWORD PTR [eax]
  409558:	jmp    0x300:0xdc060000
  40955f:	push   ss
  409560:	push   ss
  409561:	sub    BYTE PTR [ebp+0x0],ah
  409564:	add    BYTE PTR [esi],al
  409566:	add    eax,DWORD PTR [edx]
  409568:	add    al,0x5
  40956a:	sub    BYTE PTR [edi+0x0],ah
  40956d:	add    BYTE PTR [esi],al
  40956f:	fimul  WORD PTR es:0x5b06fe
  409576:	add    BYTE PTR [esi],al
  409578:	add    ebp,DWORD PTR [eax]
  40957a:	jmp    0xa17:0xdc060000
  409581:	add    ecx,DWORD PTR [ebx]
  409583:	ficom  WORD PTR [edi]
  409585:	push   es
  409586:	pop    ss
  409587:	pop    edi
  409588:	sub    al,0x11
  40958a:	push   es
  40958b:	pop    ds
  40958c:	(bad)  
  40958d:	pop    edi
  40958e:	or     bh,dh
  409590:	push   es
  409591:	push   ebp
  409592:	add    BYTE PTR [eax],al
  409594:	push   es
  409595:	add    ebp,DWORD PTR [eax]
  409597:	jmp    0x2a07:0xdc060000
  40959e:	add    BYTE PTR [eax],al
  4095a0:	inc    ecx
  4095a1:	dec    esp
  4095a2:	add    BYTE PTR [eax],al
  4095a4:	add    al,0x0
  4095a6:	add    BYTE PTR [eax],al
  4095a8:	add    al,BYTE PTR [eax]
  4095aa:	add    BYTE PTR [eax],al
  4095ac:	push   cs
  4095ad:	add    BYTE PTR [eax],al
  4095af:	add    BYTE PTR [eax],dl
  4095b1:	add    BYTE PTR [eax],al
  4095b3:	add    BYTE PTR ds:0x66000000,cl
  4095b9:	add    BYTE PTR [eax],al
  4095bb:	add    DWORD PTR [eax+eax*1],eax
  4095be:	add    BYTE PTR [eax],al
  4095c0:	push   ds
  4095c1:	add    BYTE PTR [eax],al
  4095c3:	add    BYTE PTR [eax+eax*1],dl
  4095c6:	add    BYTE PTR [eax],al
  4095c8:	xor    al,BYTE PTR [eax]
  4095ca:	add    BYTE PTR [eax],al
  4095cc:	or     eax,0x66000000
  4095d1:	add    BYTE PTR [eax],al
  4095d3:	add    DWORD PTR [eax+eax*1],eax
  4095d6:	add    BYTE PTR [eax],al
  4095d8:	add    al,BYTE PTR [eax]
  4095da:	add    BYTE PTR [eax],al
  4095dc:	inc    ebx
  4095dd:	add    BYTE PTR [eax],al
  4095df:	add    BYTE PTR [ebp+0x0],al
  4095e2:	add    BYTE PTR [eax],al
  4095e4:	pop    ss
  4095e5:	add    BYTE PTR [eax],al
  4095e7:	add    BYTE PTR [esi+0x0],ah
  4095ea:	add    BYTE PTR [ecx],al
  4095ec:	add    esi,DWORD PTR [eax]
  4095ee:	add    al,BYTE PTR [eax]
  4095f0:	cmp    eax,0x0
  4095f5:	add    BYTE PTR [eax],al
  4095f7:	add    BYTE PTR [ebx],al
  4095f9:	add    ch,BYTE PTR [eax]
  4095fb:	nop
  4095fc:	add    BYTE PTR [eax],al
  4095fe:	push   es
  4095ff:	push   ss
  409600:	inc    BYTE PTR [edx+edx*8]
  409603:	sub    al,0x7
  409605:	add    eax,DWORD PTR [edx]
  409607:	sub    BYTE PTR [eax+eax*1+0x3040600],dl
  40960e:	sub    BYTE PTR [eax+0x16060000],dl
  409614:	inc    BYTE PTR [edx+edx*8]
  409617:	sub    al,0x1b
  409619:	add    al,0x3
  40961b:	sub    BYTE PTR [eax+eax*1+0x2030600],dl
  409622:	sub    BYTE PTR [eax+0x16060000],dl
  409628:	inc    BYTE PTR [edx+edx*8]
  40962b:	sub    al,0x7
  40962d:	add    eax,DWORD PTR [edx]
  40962f:	sub    BYTE PTR [eax+eax*1-0x33d5fa00],dl
  409636:	int3   
  409637:	int3   
  409638:	or     esi,DWORD PTR [eax]
  40963a:	add    al,0x0
  40963c:	test   eax,0xd4000000
  409641:	add    BYTE PTR [eax],al
  409643:	adc    DWORD PTR [esi],edx
  409645:	or     al,0x2
  409647:	pop    ds
  409648:	adc    BYTE PTR [eax+0x16],bl
  40964b:	push   esp
  40964c:	add    bl,BYTE PTR [edi]
  40964e:	adc    al,0x58
  409650:	push   ss
  409651:	push   esp
  409652:	fimul  WORD PTR ds:0x6406fe
  409658:	add    BYTE PTR [esi],al
  40965a:	add    ch,BYTE PTR [eax]
  40965c:	jmp    0x200:0xdc060000
  409663:	push   ss
  409664:	push   ss
  409665:	sub    BYTE PTR [ebp+0x0],ah
  409668:	add    BYTE PTR [esi],al
  40966a:	fimul  WORD PTR ds:0x5b06fe
  409670:	add    BYTE PTR [esi],al
  409672:	add    ch,BYTE PTR [eax]
  409674:	jmp    0xc17:0xdc060000
  40967b:	add    ebx,DWORD PTR [edi]
  40967d:	adc    BYTE PTR [eax+0x4a],bl
  409680:	adc    eax,DWORD PTR [esi]
  409682:	add    al,0x46
  409684:	sub    eax,0x4131605
  409689:	sub    ecx,DWORD PTR [edi]
  40968b:	add    al,0xb
  40968d:	pop    es
  40968e:	pop    ss
  40968f:	pop    eax
  409690:	or     eax,DWORD PTR [edi]
  409692:	inc    esi
  409693:	sub    eax,0x590407f8
  409698:	adc    eax,DWORD PTR [edx+eax*1]
  40969b:	adc    DWORD PTR [ecx+edx*1],eax
  40969e:	push   es
  40969f:	pop    eax
  4096a0:	sub    BYTE PTR [eax+0x2060000],bl
  4096a6:	add    edx,DWORD PTR [esi]
  4096a8:	adc    eax,0x6928
  4096ad:	push   es
  4096ae:	es add al,0x46
  4096b1:	sub    eax,0x2b0d1604
  4096b6:	push   cs
  4096b7:	add    al,0xa
  4096b9:	push   es
  4096ba:	pop    ss
  4096bb:	pop    eax
  4096bc:	or     al,BYTE PTR [esi]
  4096be:	inc    esi
  4096bf:	sub    eax,0x590406f8
  4096c4:	or     eax,0x28090402
  4096c9:	push   0x26060000
  4096ce:	add    dl,BYTE PTR [ebx]
  4096d0:	add    eax,0x170817de
  4096d5:	pop    edi
  4096d6:	sub    al,0x11
  4096d8:	or     BYTE PTR [edi],bl
  4096da:	(bad)  
  4096db:	pop    edi
  4096dc:	or     al,0xfe
  4096de:	push   es
  4096df:	push   ebp
  4096e0:	add    BYTE PTR [eax],al
  4096e2:	push   es
  4096e3:	add    ch,BYTE PTR [eax]
  4096e5:	jmp    0x511:0xdc060000
  4096ec:	sub    al,BYTE PTR [eax]
  4096ee:	add    BYTE PTR [eax],al
  4096f0:	inc    ecx
  4096f1:	dec    esp
  4096f2:	add    BYTE PTR [eax],al
  4096f4:	add    al,0x0
  4096f6:	add    BYTE PTR [eax],al
  4096f8:	add    al,BYTE PTR [eax]
  4096fa:	add    BYTE PTR [eax],al
  4096fc:	push   cs
  4096fd:	add    BYTE PTR [eax],al
  4096ff:	add    BYTE PTR [eax],dl
  409701:	add    BYTE PTR [eax],al
  409703:	add    BYTE PTR ds:0x66000000,cl
  409709:	add    BYTE PTR [eax],al
  40970b:	add    DWORD PTR [eax+eax*1],eax
  40970e:	add    BYTE PTR [eax],al
  409710:	push   ds
  409711:	add    BYTE PTR [eax],al
  409713:	add    BYTE PTR [edx],cl
  409715:	add    BYTE PTR [eax],al
  409717:	add    BYTE PTR [eax],ch
  409719:	add    BYTE PTR [eax],al
  40971b:	add    BYTE PTR ds:0x66000000,cl
  409721:	add    BYTE PTR [eax],al
  409723:	add    DWORD PTR [eax+eax*1],eax
  409726:	add    BYTE PTR [eax],al
  409728:	add    BYTE PTR [eax],al
  40972a:	add    BYTE PTR [eax],al
  40972c:	pop    DWORD PTR [eax]
  40972e:	add    BYTE PTR [eax],al
  409730:	pop    DWORD PTR [eax]
  409732:	add    BYTE PTR [eax],al
  409734:	pop    ss
  409735:	add    BYTE PTR [eax],al
  409737:	add    BYTE PTR [esi+0x0],ah
  40973a:	add    BYTE PTR [ecx],al
  40973c:	or     esi,DWORD PTR [eax]
  40973e:	add    eax,DWORD PTR [eax]
  409740:	jl     0x409742
  409742:	add    BYTE PTR [eax],al
  409744:	aad    0x0
  409746:	add    BYTE PTR [ecx],dl
  409748:	push   ss
  409749:	or     eax,DWORD PTR [esi+eax*2]
  40974c:	sub    eax,0x2b0c1604
  409751:	push   cs
  409752:	add    al,0xa
  409754:	push   es
  409755:	pop    ss
  409756:	pop    eax
  409757:	or     al,BYTE PTR [esi]
  409759:	inc    esi
  40975a:	sub    eax,0x590406f8
  40975f:	or     al,0x3
  409761:	add    al,0x8
  409763:	sub    BYTE PTR [eax+0x0],ch
  409766:	add    BYTE PTR [esi],al
  409768:	adc    eax,DWORD PTR [edx+eax*1]
  40976b:	pop    ds
  40976c:	adc    BYTE PTR [eax+0x16],bl
  40976f:	push   esp
  409770:	add    bl,BYTE PTR [edi]
  409772:	adc    al,0x58
  409774:	push   ss
  409775:	push   esp
  409776:	fimul  WORD PTR ds:0x6406fe
  40977c:	add    BYTE PTR [esi],al
  40977e:	add    ch,BYTE PTR [eax]
  409780:	jmp    0x200:0xdc060000
  409787:	push   ss
  409788:	push   ss
  409789:	sub    BYTE PTR [ebp+0x0],ah
  40978c:	add    BYTE PTR [esi],al
  40978e:	add    dl,BYTE PTR [ecx]
  409790:	add    al,0x28
  409792:	push   0x0
  409794:	add    BYTE PTR [esi],al
  409796:	fimul  WORD PTR ds:0x5b06fe
  40979c:	add    BYTE PTR [esi],al
  40979e:	add    ch,BYTE PTR [eax]
  4097a0:	jmp    0xb17:0xdc060000
  4097a7:	add    cl,BYTE PTR ds:0x170717de
  4097ad:	pop    edi
  4097ae:	sub    al,0x11
  4097b0:	pop    es
  4097b1:	pop    ds
  4097b2:	(bad)  
  4097b3:	pop    edi
  4097b4:	or     edi,esi
  4097b6:	push   es
  4097b7:	push   ebp
  4097b8:	add    BYTE PTR [eax],al
  4097ba:	push   es
  4097bb:	add    ch,BYTE PTR [eax]
  4097bd:	jmp    0x2a09:0xdc060000
  4097c4:	inc    ecx
  4097c5:	dec    esp
  4097c6:	add    BYTE PTR [eax],al
  4097c8:	add    al,0x0
  4097ca:	add    BYTE PTR [eax],al
  4097cc:	and    al,BYTE PTR [eax]
  4097ce:	add    BYTE PTR [eax],al
  4097d0:	push   cs
  4097d1:	add    BYTE PTR [eax],al
  4097d3:	add    BYTE PTR [eax],dh
  4097d5:	add    BYTE PTR [eax],al
  4097d7:	add    BYTE PTR ds:0x66000000,cl
  4097dd:	add    BYTE PTR [eax],al
  4097df:	add    DWORD PTR [eax+eax*1],eax
  4097e2:	add    BYTE PTR [eax],al
  4097e4:	add    BYTE PTR ds:[eax],al
  4097e7:	add    BYTE PTR [edx],dl
  4097e9:	add    BYTE PTR [eax],al
  4097eb:	add    BYTE PTR [eax+0x0],dl
  4097ee:	add    BYTE PTR [eax],al
  4097f0:	or     eax,0x66000000
  4097f5:	add    BYTE PTR [eax],al
  4097f7:	add    DWORD PTR [eax+eax*1],eax
  4097fa:	add    BYTE PTR [eax],al
  4097fc:	and    al,BYTE PTR [eax]
  4097fe:	add    BYTE PTR [eax],al
  409800:	inc    ecx
  409801:	add    BYTE PTR [eax],al
  409803:	add    BYTE PTR [ebx+0x0],ah
  409806:	add    BYTE PTR [eax],al
  409808:	pop    ss
  409809:	add    BYTE PTR [eax],al
  40980b:	add    BYTE PTR [esi+0x0],ah
  40980e:	add    BYTE PTR [ecx],al
  409810:	add    esi,DWORD PTR [eax]
  409812:	add    al,0x0
  409814:	pop    edi
  409815:	add    BYTE PTR [eax],al
  409817:	add    dh,dl
  409819:	add    BYTE PTR [eax],al
  40981b:	adc    DWORD PTR [edx+eax*1],eax
  40981e:	pop    ecx
  40981f:	pop    ds
  409820:	sbb    BYTE PTR [ebx+0x13],bl
  409823:	add    al,0x1f
  409825:	sub    BYTE PTR [ecx],dl
  409827:	add    al,0x2f
  409829:	inc    edi
  40982a:	adc    DWORD PTR [edi+edx*1],eax
  40982d:	pop    eax
  40982e:	push   ds
  40982f:	pop    ebx
  409830:	or     eax,0x5a301f09
  409835:	or     al,0x9
  409837:	pop    ds
  409838:	sbb    BYTE PTR [edx+0xa],bl
  40983b:	add    ah,BYTE PTR ds:0x2085806
  409841:	pop    eax
  409842:	add    eax,0xa028
  409847:	push   es
  409848:	add    eax,DWORD PTR [esi]
  40984a:	pop    ecx
  40984b:	add    eax,DWORD PTR [esi]
  40984d:	add    ebx,DWORD PTR [eax+0x5]
  409850:	sub    BYTE PTR [eax+0x4060000],ah
  409856:	push   es
  409857:	pop    ecx
  409858:	or     eax,DWORD PTR [eax+ecx*1]
  40985b:	pop    ecx
  40985c:	pop    es
  40985d:	add    al,0x5
  40985f:	sub    BYTE PTR [eax+0x2060000],ah
  409865:	push   es
  409866:	pop    eax
  409867:	add    eax,DWORD PTR [edi]
  409869:	add    eax,0xa028
  40986e:	push   es
  40986f:	sub    ecx,DWORD PTR [ecx]
  409871:	add    al,BYTE PTR [ebx]
  409873:	add    al,0x5
  409875:	sub    BYTE PTR [eax+0x2a060000],ah
  40987b:	int3   
  40987c:	or     esi,DWORD PTR [eax]
  40987e:	pop    es
  40987f:	add    BYTE PTR [eax+eax*1+0x0],ch
  409883:	add    bh,dl
  409885:	add    BYTE PTR [eax],al
  409887:	adc    DWORD PTR [eax],ebp
  409889:	dec    ebx
  40988a:	add    BYTE PTR [eax],al
  40988c:	or     cl,BYTE PTR [edx]
  40988e:	push   es
  40988f:	add    ebp,DWORD PTR [eax]
  409891:	dec    edx
  409892:	add    BYTE PTR [eax],al
  409894:	or     cl,BYTE PTR [edx]
  409896:	push   es
  409897:	sub    BYTE PTR [eax+0x0],cl
  40989a:	add    BYTE PTR [edx],cl
  40989c:	sub    BYTE PTR [ecx+0x0],cl
  40989f:	add    BYTE PTR [edx],cl
  4098a1:	or     edx,DWORD PTR [edx]
  4098a3:	add    al,BYTE PTR [edi]
  4098a5:	sub    BYTE PTR [edi+0x0],dl
  4098a8:	add    BYTE PTR [esi],al
  4098aa:	add    bh,BYTE PTR es:[ebx+0x1c]
  4098ae:	add    DWORD PTR [eax],eax
  4098b0:	add    al,0x17
  4098b2:	adc    al,BYTE PTR [edx]
  4098b4:	push   ss
  4098b5:	push   ss
  4098b6:	push   ss
  4098b7:	push   ss
  4098b8:	sub    BYTE PTR [esi+0x26060001],cl
  4098be:	fimul  WORD PTR [esi]
  4098c0:	inc    BYTE PTR [esi]
  4098c2:	push   ebp
  4098c3:	add    BYTE PTR [eax],al
  4098c5:	push   es
  4098c6:	adc    al,BYTE PTR [edx]
  4098c8:	sub    dl,ch
  4098ca:	add    BYTE PTR [eax],al
  4098cc:	push   es
  4098cd:	fadd   QWORD PTR [eax]
  4098cf:	adc    al,BYTE PTR [edx]
  4098d1:	pop    ss
  4098d2:	push   ss
  4098d3:	sub    BYTE PTR [ebp+0x0],ah
  4098d6:	add    BYTE PTR [esi],al
  4098d8:	fimul  WORD PTR [esi]
  4098da:	inc    BYTE PTR [esi]
  4098dc:	pop    ebx
  4098dd:	add    BYTE PTR [eax],al
  4098df:	push   es
  4098e0:	adc    al,BYTE PTR [edx]
  4098e2:	sub    dl,ch
  4098e4:	add    BYTE PTR [eax],al
  4098e6:	push   es
  4098e7:	fadd   QWORD PTR [edi]
  4098e9:	sub    BYTE PTR [esi+0x0],al
  4098ec:	add    BYTE PTR [edx],cl
  4098ee:	sub    BYTE PTR [edi+0x0],al
  4098f1:	add    BYTE PTR [edx],cl
  4098f3:	sub    al,BYTE PTR [ecx+0x34]
  4098f6:	add    BYTE PTR [eax],al
  4098f8:	add    al,0x0
  4098fa:	add    BYTE PTR [eax],al
  4098fc:	and    eax,DWORD PTR [eax]
  4098fe:	add    BYTE PTR [eax],al
  409900:	adc    eax,0x38000000
  409905:	add    BYTE PTR [eax],al
  409907:	add    BYTE PTR [esi],cl
  409909:	add    BYTE PTR [eax],al
  40990b:	add    BYTE PTR [esi+0x0],ah
  40990e:	add    BYTE PTR [ecx],al
  409910:	add    al,0x0
  409912:	add    BYTE PTR [eax],al
  409914:	inc    edi
  409915:	add    BYTE PTR [eax],al
  409917:	add    BYTE PTR [ebx],cl
  409919:	add    BYTE PTR [eax],al
  40991b:	add    BYTE PTR [edx+0x0],dl
  40991e:	add    BYTE PTR [eax],al
  409920:	push   cs
  409921:	add    BYTE PTR [eax],al
  409923:	add    BYTE PTR [esi+0x0],ah
  409926:	add    BYTE PTR [ecx],al
  409928:	or     esi,DWORD PTR [eax]
  40992a:	add    eax,DWORD PTR [eax]
  40992c:	scas   al,BYTE PTR es:[edi]
  40992d:	add    BYTE PTR [eax],al
  40992f:	add    al,bl
  409931:	add    BYTE PTR [eax],al
  409933:	adc    DWORD PTR [edx],eax
  409935:	jnp    0x409969
  409937:	add    DWORD PTR [eax],eax
  409939:	add    al,0x72
  40993b:	aad    0x5
  40993d:	add    BYTE PTR [eax+0x28],dh
  409940:	pop    ds
  409941:	add    BYTE PTR [eax],al
  409943:	or     al,BYTE PTR [edx]
  409945:	jnp    0x409979
  409947:	add    DWORD PTR [eax],eax
  409949:	add    al,0x18
  40994b:	sub    BYTE PTR [esi],bl
  40994d:	add    BYTE PTR [eax],al
  40994f:	or     al,BYTE PTR [edx]
  409951:	jnp    0x409985
  409953:	add    DWORD PTR [eax],eax
  409955:	add    al,0x17
  409957:	sub    BYTE PTR ds:0x20a0000,bl
  40995d:	jnp    0x409991
  40995f:	add    DWORD PTR [eax],eax
  409961:	add    al,0x28
  409963:	and    al,0x0
  409965:	add    BYTE PTR [edx],cl
  409967:	pop    ss
  409968:	inc    eax
  409969:	je     0x40996b
  40996b:	add    BYTE PTR [eax],al
  40996d:	add    bh,BYTE PTR [ebx+0x32]
  409970:	add    DWORD PTR [eax],eax
  409972:	add    al,0x28
  409974:	sbb    al,0x0
  409976:	add    BYTE PTR [edx],cl
  409978:	sub    BYTE PTR [eax+0x0],cl
  40997b:	add    BYTE PTR [edx],cl
  40997d:	or     eax,0x28090512
  409982:	dec    ecx
  409983:	add    BYTE PTR [eax],al
  409985:	or     ch,BYTE PTR [eax]
  409987:	push   edi
  409988:	add    BYTE PTR [eax],al
  40998a:	push   es
  40998b:	adc    al,BYTE PTR es:[esp+ecx*1]
  40998f:	adc    al,BYTE PTR [edx+edx*1]
  409992:	add    eax,0x5928
  409997:	push   es
  409998:	or     eax,DWORD PTR [edx]
  40999a:	jnp    0x4099ba
  40999c:	add    DWORD PTR [eax],eax
  40999e:	add    al,0xa
  4099a0:	fimul  WORD PTR ds:0x5506fe
  4099a6:	add    BYTE PTR [esi],al
  4099a8:	or     BYTE PTR [eax],ch
  4099aa:	jmp    0x706:0xdc060000
  4099b1:	sub    BYTE PTR [eax+eax*1],ch
  4099b4:	add    BYTE PTR [esi],al
  4099b6:	fimul  WORD PTR es:[esi]
  4099b9:	inc    BYTE PTR [esi]
  4099bb:	push   ebp
  4099bc:	add    BYTE PTR [eax],al
  4099be:	push   es
  4099bf:	adc    al,BYTE PTR ds:0xea28
  4099c5:	push   es
  4099c6:	fadd   QWORD PTR [eax]
  4099c8:	adc    al,BYTE PTR ds:0x65281617
  4099ce:	add    BYTE PTR [eax],al
  4099d0:	push   es
  4099d1:	fimul  WORD PTR [esi]
  4099d3:	inc    BYTE PTR [esi]
  4099d5:	pop    ebx
  4099d6:	add    BYTE PTR [eax],al
  4099d8:	push   es
  4099d9:	adc    al,BYTE PTR ds:0xea28
  4099df:	push   es
  4099e0:	fsubr  QWORD PTR [edx]
  4099e2:	add    BYTE PTR [eax],al
  4099e4:	inc    ecx
  4099e5:	dec    esp
  4099e6:	add    BYTE PTR [eax],al
  4099e8:	add    al,0x0
  4099ea:	add    BYTE PTR [eax],al
  4099ec:	add    BYTE PTR gs:[eax],al
  4099ef:	add    BYTE PTR [ecx],cl
  4099f1:	add    BYTE PTR [eax],al
  4099f3:	add    BYTE PTR [esi+0x0],ch
  4099f6:	add    BYTE PTR [eax],al
  4099f8:	or     eax,0x66000000
  4099fd:	add    BYTE PTR [eax],al
  4099ff:	add    DWORD PTR [eax+eax*1],eax
  409a02:	add    BYTE PTR [eax],al
  409a04:	pop    eax
  409a05:	add    BYTE PTR [eax],al
  409a07:	add    BYTE PTR ds:0x85000000,ch
  409a0d:	add    BYTE PTR [eax],al
  409a0f:	add    BYTE PTR [esi],cl
  409a11:	add    BYTE PTR [eax],al
  409a13:	add    BYTE PTR [esi+0x0],ah
  409a16:	add    BYTE PTR [ecx],al
  409a18:	add    al,0x0
  409a1a:	add    BYTE PTR [eax],al
  409a1c:	xchg   esp,eax
  409a1d:	add    BYTE PTR [eax],al
  409a1f:	add    BYTE PTR [ebx],cl
  409a21:	add    BYTE PTR [eax],al
  409a23:	add    BYTE PTR [edi+0xe000000],bl
  409a29:	add    BYTE PTR [eax],al
  409a2b:	add    BYTE PTR [esi+0x0],ah
  409a2e:	add    BYTE PTR [ecx],al
  409a30:	or     esi,DWORD PTR [eax]
  409a32:	add    eax,DWORD PTR [eax]
  409a34:	call   0x0:0xd9000000
  409a3b:	adc    DWORD PTR [edx],eax
  409a3d:	jnp    0x409a7c
  409a3f:	add    DWORD PTR [eax],eax
  409a41:	add    al,0x28
  409a43:	and    al,0x0
  409a45:	add    BYTE PTR [edx],cl
  409a47:	pop    ss
  409a48:	inc    eax
  409a49:	mov    BYTE PTR [eax],al
  409a4b:	add    BYTE PTR [eax],al
  409a4d:	add    bh,BYTE PTR [ebx+0x41]
  409a50:	add    DWORD PTR [eax],eax
  409a52:	add    al,0x28
  409a54:	dec    ebp
  409a55:	add    BYTE PTR [eax],al
  409a57:	or     al,BYTE PTR [edx]
  409a59:	jnp    0x409a98
  409a5b:	add    DWORD PTR [eax],eax
  409a5d:	add    al,0x28
  409a5f:	sbb    eax,DWORD PTR [eax]
  409a61:	add    BYTE PTR [edx],cl
  409a63:	sub    BYTE PTR [eax+0x0],cl
  409a66:	add    BYTE PTR [edx],cl
  409a68:	adc    eax,DWORD PTR [edx+edx*1]
  409a6b:	push   es
  409a6c:	adc    DWORD PTR [eax+ebp*1],eax
  409a6f:	dec    ecx
  409a70:	add    BYTE PTR [eax],al
  409a72:	or     ch,BYTE PTR [eax]
  409a74:	push   edi
  409a75:	add    BYTE PTR [eax],al
  409a77:	push   es
  409a78:	adc    al,BYTE PTR es:0x1205120d
  409a7f:	push   es
  409a80:	sub    BYTE PTR [ecx+0x0],bl
  409a83:	add    BYTE PTR [esi],al
  409a85:	or     al,0x2
  409a87:	jnp    0x409aa7
  409a89:	add    DWORD PTR [eax],eax
  409a8b:	add    al,0xb
  409a8d:	add    bh,BYTE PTR [ebx+0x1c]
  409a90:	add    DWORD PTR [eax],eax
  409a92:	add    al,0xa
  409a94:	fimul  WORD PTR ds:0x5506fe
  409a9a:	add    BYTE PTR [esi],al
  409a9c:	or     DWORD PTR [eax],ebp
  409a9e:	jmp    0x807:0xdc060000
  409aa5:	push   es
  409aa6:	sub    BYTE PTR [esi],dl
  409aa8:	add    BYTE PTR [eax],al
  409aaa:	push   es
  409aab:	fimul  WORD PTR [esi]
  409aad:	inc    BYTE PTR [esi]
  409aaf:	push   ebp
  409ab0:	add    BYTE PTR [eax],al
  409ab2:	push   es
  409ab3:	adc    al,BYTE PTR [esi]
  409ab5:	sub    dl,ch
  409ab7:	add    BYTE PTR [eax],al
  409ab9:	push   es
  409aba:	fadd   QWORD PTR [eax]
  409abc:	adc    al,BYTE PTR [esi]
  409abe:	pop    ss
  409abf:	push   ss
  409ac0:	sub    BYTE PTR [ebp+0x0],ah
  409ac3:	add    BYTE PTR [esi],al
  409ac5:	fimul  WORD PTR [esi]
  409ac7:	inc    BYTE PTR [esi]
  409ac9:	pop    ebx
  409aca:	add    BYTE PTR [eax],al
  409acc:	push   es
  409acd:	adc    al,BYTE PTR [esi]
  409acf:	sub    dl,ch
  409ad1:	add    BYTE PTR [eax],al
  409ad3:	push   es
  409ad4:	fsubr  QWORD PTR [edx]
  409ad6:	add    BYTE PTR [eax],al
  409ad8:	inc    ecx
  409ad9:	dec    esp
  409ada:	add    BYTE PTR [eax],al
  409adc:	add    al,0x0
  409ade:	add    BYTE PTR [eax],al
  409ae0:	dec    edx
  409ae1:	add    BYTE PTR [eax],al
  409ae3:	add    BYTE PTR [eax],dl
  409ae5:	add    BYTE PTR [eax],al
  409ae7:	add    BYTE PTR [edx+0x0],bl
  409aea:	add    BYTE PTR [eax],al
  409aec:	or     eax,0x66000000
  409af1:	add    BYTE PTR [eax],al
  409af3:	add    DWORD PTR [eax+eax*1],eax
  409af6:	add    BYTE PTR [eax],al
  409af8:	cmp    eax,0x34000000
  409afd:	add    BYTE PTR [eax],al
  409aff:	add    BYTE PTR [ecx+0x0],dh
  409b02:	add    BYTE PTR [eax],al
  409b04:	push   cs
  409b05:	add    BYTE PTR [eax],al
  409b07:	add    BYTE PTR [esi+0x0],ah
  409b0a:	add    BYTE PTR [ecx],al
  409b0c:	add    al,0x0
  409b0e:	add    BYTE PTR [eax],al
  409b10:	add    BYTE PTR [eax],0x0
  409b13:	add    BYTE PTR [ebx],cl
  409b15:	add    BYTE PTR [eax],al
  409b17:	add    BYTE PTR [ebx+0xe000000],cl
  409b1d:	add    BYTE PTR [eax],al
  409b1f:	add    BYTE PTR [esi+0x0],ah
  409b22:	add    BYTE PTR [ecx],al
  409b24:	or     esi,DWORD PTR [eax]
  409b26:	add    eax,DWORD PTR [eax]
  409b28:	stos   BYTE PTR es:[edi],al
  409b29:	add    BYTE PTR [eax],al
  409b2b:	add    al,bl
  409b2d:	add    BYTE PTR [eax],al
  409b2f:	adc    DWORD PTR [edx],eax
  409b31:	jnp    0x409b65
  409b33:	add    DWORD PTR [eax],eax
  409b35:	add    al,0x72
  409b37:	add    eax,0x28700006
  409b3c:	pop    ds
  409b3d:	add    BYTE PTR [eax],al
  409b3f:	or     al,BYTE PTR [edx]
  409b41:	jnp    0x409b75
  409b43:	add    DWORD PTR [eax],eax
  409b45:	add    al,0x18
  409b47:	sub    BYTE PTR [esi],bl
  409b49:	add    BYTE PTR [eax],al
  409b4b:	or     al,BYTE PTR [edx]
  409b4d:	jnp    0x409b81
  409b4f:	add    DWORD PTR [eax],eax
  409b51:	add    al,0x17
  409b53:	sub    BYTE PTR ds:0x20a0000,bl
  409b59:	jnp    0x409b8d
  409b5b:	add    DWORD PTR [eax],eax
  409b5d:	add    al,0x28
  409b5f:	and    al,0x0
  409b61:	add    BYTE PTR [edx],cl
  409b63:	pop    ss
  409b64:	xor    esi,DWORD PTR [ebx+0x2]
  409b67:	jnp    0x409b9b
  409b69:	add    DWORD PTR [eax],eax
  409b6b:	add    al,0x28
  409b6d:	sbb    al,0x0
  409b6f:	add    BYTE PTR [edx],cl
  409b71:	sub    BYTE PTR [eax+0x0],cl
  409b74:	add    BYTE PTR [edx],cl
  409b76:	or     eax,0x28090512
  409b7b:	dec    ecx
  409b7c:	add    BYTE PTR [eax],al
  409b7e:	or     ch,BYTE PTR [eax]
  409b80:	push   edi
  409b81:	add    BYTE PTR [eax],al
  409b83:	push   es
  409b84:	adc    al,BYTE PTR es:[esp+ecx*1]
  409b88:	adc    al,BYTE PTR [edx+edx*1]
  409b8b:	add    eax,0x5928
  409b90:	push   es
  409b91:	or     eax,DWORD PTR [edx]
  409b93:	jnp    0x409bb3
  409b95:	add    DWORD PTR [eax],eax
  409b97:	add    al,0xa
  409b99:	fimul  WORD PTR ds:0x5506fe
  409b9f:	add    BYTE PTR [esi],al
  409ba1:	or     BYTE PTR [eax],ch
  409ba3:	jmp    0x706:0xdc060000
  409baa:	sub    BYTE PTR [eax+eax*1+0x0],al
  409bae:	push   es
  409baf:	fimul  WORD PTR [esi]
  409bb1:	inc    BYTE PTR [esi]
  409bb3:	push   ebp
  409bb4:	add    BYTE PTR [eax],al
  409bb6:	push   es
  409bb7:	adc    al,BYTE PTR ds:0xea28
  409bbd:	push   es
  409bbe:	fadd   QWORD PTR [eax]
  409bc0:	adc    al,BYTE PTR ds:0x65281617
  409bc6:	add    BYTE PTR [eax],al
  409bc8:	push   es
  409bc9:	fimul  WORD PTR [esi]
  409bcb:	inc    BYTE PTR [esi]
  409bcd:	pop    ebx
  409bce:	add    BYTE PTR [eax],al
  409bd0:	push   es
  409bd1:	adc    al,BYTE PTR ds:0xea28
  409bd7:	push   es
  409bd8:	fsubr  QWORD PTR [edx]
  409bda:	add    BYTE PTR [eax],al
  409bdc:	inc    ecx
  409bdd:	dec    esp
  409bde:	add    BYTE PTR [eax],al
  409be0:	add    al,0x0
  409be2:	add    BYTE PTR [eax],al
  409be4:	bound  eax,QWORD PTR [eax]
  409be6:	add    BYTE PTR [eax],al
  409be8:	or     DWORD PTR [eax],eax
  409bea:	add    BYTE PTR [eax],al
  409bec:	imul   eax,DWORD PTR [eax],0x0
  409bef:	add    BYTE PTR ds:0x66000000,cl
  409bf5:	add    BYTE PTR [eax],al
  409bf7:	add    DWORD PTR [eax+eax*1],eax
  409bfa:	add    BYTE PTR [eax],al
  409bfc:	push   ebp
  409bfd:	add    BYTE PTR [eax],al
  409bff:	add    BYTE PTR [eax+eax*1],ch
  409c02:	add    BYTE PTR [eax],al
  409c04:	add    DWORD PTR [eax],0xe0000
  409c0a:	add    BYTE PTR [eax],al
  409c0c:	data16 add BYTE PTR [eax],al
  409c0f:	add    DWORD PTR [eax+eax*1],eax
  409c12:	add    BYTE PTR [eax],al
  409c14:	nop
  409c15:	add    BYTE PTR [eax],al
  409c17:	add    BYTE PTR [ebx],cl
  409c19:	add    BYTE PTR [eax],al
  409c1b:	add    BYTE PTR [ebx+0xe000000],bl
  409c21:	add    BYTE PTR [eax],al
  409c23:	add    BYTE PTR [esi+0x0],ah
  409c26:	add    BYTE PTR [ecx],al
  409c28:	or     esi,DWORD PTR [eax]
  409c2a:	add    eax,DWORD PTR [eax]
  409c2c:	cmp    al,0x1
  409c2e:	add    BYTE PTR [eax],al
  409c30:	fiadd  DWORD PTR [eax]
  409c32:	add    BYTE PTR [ecx],dl
  409c34:	add    bh,BYTE PTR [ebx+0x42]
  409c37:	add    DWORD PTR [eax],eax
  409c39:	add    al,0x72
  409c3b:	add    eax,0x28700006
  409c40:	pop    ds
  409c41:	add    BYTE PTR [eax],al
  409c43:	or     al,BYTE PTR [edx]
  409c45:	jnp    0x409c89
  409c47:	add    DWORD PTR [eax],eax
  409c49:	add    al,0x18
  409c4b:	sub    BYTE PTR [esi],bl
  409c4d:	add    BYTE PTR [eax],al
  409c4f:	or     al,BYTE PTR [edx]
  409c51:	jnp    0x409c95
  409c53:	add    DWORD PTR [eax],eax
  409c55:	add    al,0x17
  409c57:	sub    BYTE PTR ds:0x20a0000,bl
  409c5d:	jnp    0x409ca1
  409c5f:	add    DWORD PTR [eax],eax
  409c61:	add    al,0x28
  409c63:	and    al,0x0
  409c65:	add    BYTE PTR [edx],cl
  409c67:	pop    ss
  409c68:	inc    eax
  409c69:	add    al,BYTE PTR [ecx]
  409c6b:	add    BYTE PTR [eax],al
  409c6d:	add    bh,BYTE PTR [ebx+0x42]
  409c70:	add    DWORD PTR [eax],eax
  409c72:	add    al,0x28
  409c74:	sbb    al,0x0
  409c76:	add    BYTE PTR [edx],cl
  409c78:	sub    BYTE PTR [eax+0x0],cl
  409c7b:	add    BYTE PTR [edx],cl
  409c7d:	adc    eax,DWORD PTR [esi]
  409c7f:	adc    cl,BYTE PTR [eax]
  409c81:	adc    DWORD PTR [esi],eax
  409c83:	sub    BYTE PTR [ecx+0x0],cl
  409c86:	add    BYTE PTR [edx],cl
  409c88:	sub    BYTE PTR [edi+0x0],dl
  409c8b:	add    BYTE PTR [esi],al
  409c8d:	adc    al,BYTE PTR es:[edi]
  409c90:	adc    eax,DWORD PTR ds:0x8120712
  409c96:	sub    BYTE PTR [ecx+0x0],bl
  409c99:	add    BYTE PTR [esi],al
  409c9b:	adc    eax,DWORD PTR [edx+eax*1]
  409c9e:	jnp    0x409cbe
  409ca0:	add    DWORD PTR [eax],eax
  409ca2:	add    al,0xd
  409ca4:	fimul  WORD PTR [esi]
  409ca6:	inc    BYTE PTR [esi]
  409ca8:	push   ebp
  409ca9:	add    BYTE PTR [eax],al
  409cab:	push   es
  409cac:	adc    DWORD PTR ds:0xea28,eax
  409cb2:	push   es
  409cb3:	fmul   QWORD PTR [ecx]
  409cb5:	adc    DWORD PTR [eax+ebp*1],eax
  409cb8:	inc    ebp
  409cb9:	add    BYTE PTR [eax],al
  409cbb:	push   es
  409cbc:	add    bh,BYTE PTR [ebx+0x1e]
  409cbf:	add    DWORD PTR [eax],eax
  409cc1:	add    al,0x28
  409cc3:	inc    edi
  409cc4:	add    BYTE PTR [eax],al
  409cc6:	push   es
  409cc7:	sub    BYTE PTR [ecx],bl
  409cc9:	add    BYTE PTR [eax],al
  409ccb:	or     cl,BYTE PTR [edx+eax*1]
  409cce:	jnp    0x409d0b
  409cd0:	add    DWORD PTR [eax],eax
  409cd2:	add    al,0x8
  409cd4:	sub    BYTE PTR [edx+0x0],ch
  409cd7:	add    BYTE PTR [edx],cl
  409cd9:	add    bh,BYTE PTR [ebx+0x1e]
  409cdc:	add    DWORD PTR [eax],eax
  409cde:	add    al,0x28
  409ce0:	dec    eax
  409ce1:	add    BYTE PTR [eax],al
  409ce3:	push   es
  409ce4:	sub    BYTE PTR [ecx],bl
  409ce6:	add    BYTE PTR [eax],al
  409ce8:	or     cl,BYTE PTR [ebx]
  409cea:	add    bh,BYTE PTR [ebx+0x39]
  409ced:	add    DWORD PTR [eax],eax
  409cef:	add    al,0x7
  409cf1:	sub    BYTE PTR [edx+0x0],ch
  409cf4:	add    BYTE PTR [edx],cl
  409cf6:	add    bh,BYTE PTR [ebx+0x1e]
  409cf9:	add    DWORD PTR [eax],eax
  409cfb:	add    al,0x28
  409cfd:	inc    esi
  409cfe:	add    BYTE PTR [eax],al
  409d00:	push   es
  409d01:	sub    BYTE PTR [ecx],bl
  409d03:	add    BYTE PTR [eax],al
  409d05:	or     cl,BYTE PTR [edx]
  409d07:	add    bh,BYTE PTR [ebx+0x36]
  409d0a:	add    DWORD PTR [eax],eax
  409d0c:	add    al,0x6
  409d0e:	sub    BYTE PTR [edx+0x0],ch
  409d11:	add    BYTE PTR [edx],cl
  409d13:	add    ch,BYTE PTR [eax]
  409d15:	mov    dh,0x1
  409d17:	add    BYTE PTR [esi],al
  409d19:	add    bh,BYTE PTR [ebx+0x40]
  409d1c:	add    DWORD PTR [eax],eax
  409d1e:	add    al,0x2
  409d20:	jnp    0x409d40
  409d22:	add    DWORD PTR [eax],eax
  409d24:	add    al,0x28
  409d26:	cmp    eax,0x28060000
  409d2b:	data16 add BYTE PTR [eax],al
  409d2e:	or     al,BYTE PTR [edx]
  409d30:	jnp    0x409d71
  409d32:	add    DWORD PTR [eax],eax
  409d34:	add    al,0x2
  409d36:	jnp    0x409d56
  409d38:	add    DWORD PTR [eax],eax
  409d3a:	add    al,0x28
  409d3c:	add    BYTE PTR ds:[eax],al
  409d3f:	push   es
  409d40:	sub    BYTE PTR [esi+0x0],ah
  409d43:	add    BYTE PTR [edx],cl
  409d45:	fimul  WORD PTR [esi]
  409d47:	inc    BYTE PTR [esi]
  409d49:	push   ebp
  409d4a:	add    BYTE PTR [eax],al
  409d4c:	push   es
  409d4d:	adc    cl,BYTE PTR [eax]
  409d4f:	sub    dl,ch
  409d51:	add    BYTE PTR [eax],al
  409d53:	push   es
  409d54:	fadd   QWORD PTR [eax]
  409d56:	adc    cl,BYTE PTR [eax]
  409d58:	pop    ss
  409d59:	push   ss
  409d5a:	sub    BYTE PTR [ebp+0x0],ah
  409d5d:	add    BYTE PTR [esi],al
  409d5f:	fimul  WORD PTR [esi]
  409d61:	inc    BYTE PTR [esi]
  409d63:	pop    ebx
  409d64:	add    BYTE PTR [eax],al
  409d66:	push   es
  409d67:	adc    cl,BYTE PTR [eax]
  409d69:	sub    dl,ch
  409d6b:	add    BYTE PTR [eax],al
  409d6d:	push   es
  409d6e:	fsubr  QWORD PTR [edx]
  409d70:	inc    ecx
  409d71:	dec    esp
  409d72:	add    BYTE PTR [eax],al
  409d74:	add    al,0x0
  409d76:	add    BYTE PTR [eax],al
  409d78:	imul   eax,DWORD PTR [eax],0x90000
  409d7e:	add    BYTE PTR [eax],al
  409d80:	jb     0x409d82
  409d82:	add    BYTE PTR [eax],al
  409d84:	push   cs
  409d85:	add    BYTE PTR [eax],al
  409d87:	add    BYTE PTR [esi+0x0],ah
  409d8a:	add    BYTE PTR [ecx],al
  409d8c:	add    al,0x0
  409d8e:	add    BYTE PTR [eax],al
  409d90:	pop    edx
  409d91:	add    BYTE PTR [eax],al
  409d93:	add    BYTE PTR [ecx+0x13000000],bh
  409d99:	add    DWORD PTR [eax],eax
  409d9b:	add    BYTE PTR [esi],cl
  409d9d:	add    BYTE PTR [eax],al
  409d9f:	add    BYTE PTR [esi+0x0],ah
  409da2:	add    BYTE PTR [ecx],al
  409da4:	add    al,0x0
  409da6:	add    BYTE PTR [eax],al
  409da8:	and    al,BYTE PTR [ecx]
  409daa:	add    BYTE PTR [eax],al
  409dac:	or     eax,DWORD PTR [eax]
  409dae:	add    BYTE PTR [eax],al
  409db0:	sub    eax,0xe000001
  409db5:	add    BYTE PTR [eax],al
  409db7:	add    BYTE PTR [esi+0x0],ah
  409dba:	add    BYTE PTR [ecx],al
  409dbc:	add    esi,DWORD PTR [eax]
  409dbe:	add    al,0x0
  409dc0:	add    BYTE PTR [ecx],0x0
  409dc3:	add    bl,bl
  409dc5:	add    BYTE PTR [eax],al
  409dc7:	adc    DWORD PTR [ebx+eax*1],eax
  409dca:	pop    ecx
  409dcb:	pop    ds
  409dcc:	sbb    BYTE PTR [ebx+0x18],bl
  409dcf:	pop    ebx
  409dd0:	pop    ds
  409dd1:	sbb    BYTE PTR [edx+0x3],bl
  409dd4:	pop    eax
  409dd5:	adc    eax,DWORD PTR ds:0x4051103
  409ddb:	pop    ds
  409ddc:	sbb    BYTE PTR [ecx+0x5],bl
  409ddf:	sub    BYTE PTR [ebp+0x11060000],bl
  409de5:	add    eax,0x1f05110a
  409dea:	sbb    BYTE PTR [eax+0xb],bl
  409ded:	add    edx,DWORD PTR [ecx]
  409def:	add    eax,0x1f062934
  409df4:	sbb    BYTE PTR [ecx+0x6],bl
  409df7:	sub    BYTE PTR [eax+0x16060000],dl
  409dfd:	inc    BYTE PTR [edx+edx*8]
  409e00:	sub    eax,0x1f250619
  409e05:	sbb    BYTE PTR [ecx+0x28],bl
  409e08:	nop
  409e09:	add    BYTE PTR [eax],al
  409e0b:	push   es
  409e0c:	push   ss
  409e0d:	inc    BYTE PTR [edx+edx*8]
  409e10:	sub    eax,0x181f0609
  409e15:	pop    ecx
  409e16:	or     al,BYTE PTR [ebx]
  409e18:	push   es
  409e19:	aaa    
  409e1a:	xlat   BYTE PTR ds:[ebx]
  409e1b:	pop    es
  409e1c:	add    al,0x34
  409e1e:	and    eax,DWORD PTR [edi]
  409e20:	push   es
  409e21:	sub    BYTE PTR [eax+0x16060000],dl
  409e27:	inc    BYTE PTR [edx+edx*8]
  409e2a:	sub    eax,0x28070616
  409e2f:	nop
  409e30:	add    BYTE PTR [eax],al
  409e32:	push   es
  409e33:	push   ss
  409e34:	inc    BYTE PTR [edx+edx*8]
  409e37:	sub    eax,0x181f0709
  409e3c:	pop    eax
  409e3d:	or     eax,DWORD PTR [edi]
  409e3f:	add    al,0x37
  409e41:	fld    QWORD PTR [edi]
  409e43:	or     al,0x6
  409e45:	or     eax,0x3a340408
  409e4a:	push   es
  409e4b:	or     BYTE PTR [eax],ch
  409e4d:	nop
  409e4e:	add    BYTE PTR [eax],al
  409e50:	push   es
  409e51:	push   ss
  409e52:	inc    BYTE PTR [edx+edx*8]
  409e55:	sub    eax,0x28060824
  409e5a:	nop
  409e5b:	add    BYTE PTR [eax],al
  409e5d:	push   es
  409e5e:	push   ss
  409e5f:	inc    BYTE PTR [edx+edx*8]
  409e62:	sub    eax,0x13080720
  409e67:	pop    es
  409e68:	pop    es
  409e69:	pop    ds
  409e6a:	sbb    BYTE PTR [eax+0xb],bl
  409e6d:	adc    DWORD PTR [edi],eax
  409e6f:	or     al,BYTE PTR cs:[edi]
  409e72:	pop    ds
  409e73:	sbb    BYTE PTR [ecx+0x8],bl
  409e76:	sub    BYTE PTR [eax+eax*1+0x1f080600],dl
  409e7d:	sbb    BYTE PTR [eax+0xc],bl
  409e80:	or     BYTE PTR [edi+esi*1],al
  409e83:	mov    BYTE PTR [ebx],0x9
  409e86:	xor    al,0x44
  409e88:	or     DWORD PTR [edi],ebx
  409e8a:	sbb    BYTE PTR [ecx+0x13],bl
  409e8d:	add    al,0x11
  409e8f:	add    al,0x6
  409e91:	sub    BYTE PTR [eax+0x16060000],dl
  409e97:	inc    BYTE PTR [edx+edx*8]
  409e9a:	sub    eax,0x4110620
  409e9f:	sub    BYTE PTR [eax+0x16060000],dl
  409ea5:	inc    BYTE PTR [edx+edx*8]
  409ea8:	sub    eax,0x181f0622
  409ead:	pop    ecx
  409eae:	or     al,BYTE PTR [esi]
  409eb0:	adc    DWORD PTR [esi+ebp*1],eax
  409eb3:	or     BYTE PTR [esi],al
  409eb5:	adc    DWORD PTR [eax+ebp*1],eax
  409eb8:	xchg   esp,eax
  409eb9:	add    BYTE PTR [eax],al
  409ebb:	push   es
  409ebc:	or     DWORD PTR [edi],ebx
  409ebe:	sbb    BYTE PTR [ecx+0xd],bl
  409ec1:	adc    DWORD PTR [edi+ebx*1],eax
  409ec4:	sbb    BYTE PTR [ecx+0x13],bl
  409ec7:	add    al,0x3
  409ec9:	or     DWORD PTR [edi],esi
  409ecb:	ret    0x309
  409ece:	xor    ebp,DWORD PTR [esi]
  409ed0:	or     BYTE PTR [esi+ebp*1],al
  409ed3:	push   0x7
  409ed5:	or     BYTE PTR [esi],ch
  409ed7:	pop    es
  409ed8:	push   es
  409ed9:	pop    es
  409eda:	sub    BYTE PTR [eax+eax*1+0x1f070600],dl
  409ee1:	sbb    BYTE PTR [eax+0xb],bl
  409ee4:	or     BYTE PTR [ebx],dl
  409ee6:	push   es
  409ee7:	push   es
  409ee8:	push   es
  409ee9:	pop    ds
  409eea:	sbb    BYTE PTR [eax+0xa],bl
  409eed:	or     BYTE PTR [edi],bl
  409eef:	sbb    BYTE PTR [eax+0xc],bl
  409ef2:	adc    DWORD PTR [esi],eax
  409ef4:	sub    BYTE PTR [eax+eax*1+0x48380600],dl
  409efb:	(bad)  
  409efc:	(bad)  
  409efd:	dec    DWORD PTR [eax]
  409eff:	add    al,0x33
  409f01:	or     DWORD PTR es:[edi],ebx
  409f04:	sbb    BYTE PTR [ecx+0xd],bl
  409f07:	push   es
  409f08:	pop    ds
  409f09:	sbb    BYTE PTR [ecx+0xa],bl
  409f0c:	or     DWORD PTR [esi],eax
  409f0e:	cs pop es
  409f10:	or     DWORD PTR [esi],eax
  409f12:	sub    BYTE PTR [eax+eax*1+0x1f070600],dl
  409f19:	sbb    BYTE PTR [ecx+0xb],bl
  409f1c:	push   es
  409f1d:	pop    es
  409f1e:	sub    BYTE PTR [eax+eax*1+0x1e380600],dl
  409f25:	(bad)  
  409f26:	(bad)  
  409f27:	dec    DWORD PTR [ecx]
  409f29:	pop    ds
  409f2a:	sbb    BYTE PTR [ecx+0xd],bl
  409f2d:	or     BYTE PTR [ecx],cl
  409f2f:	sub    BYTE PTR [eax+eax*1+0x1f080600],dl
  409f36:	sbb    BYTE PTR [eax+0xc],bl
  409f39:	cmp    BYTE PTR [eax],cl
  409f3b:	(bad)  
  409f3c:	(bad)  
  409f3d:	inc    DWORD PTR [edx]
  409f3f:	push   es
  409f40:	push   esp
  409f41:	add    bl,BYTE PTR [edx]
  409f43:	pop    eax
  409f44:	pop    es
  409f45:	push   esp
  409f46:	add    ch,BYTE PTR [edx]
  409f48:	add    esi,DWORD PTR [eax]
  409f4a:	add    eax,DWORD PTR [eax]
  409f4c:	inc    esi
  409f4d:	add    BYTE PTR [eax],al
  409f4f:	add    ah,bl
  409f51:	add    BYTE PTR [eax],al
  409f53:	adc    DWORD PTR [ebx],eax
  409f55:	pop    ss
  409f56:	pop    ecx
  409f57:	sbb    BYTE PTR [ebx+0xa],bl
  409f5a:	add    al,0x3
  409f5c:	das    
  409f5d:	add    al,BYTE PTR cs:[esi]
  409f60:	pop    ds
  409f61:	sbb    BYTE PTR [edx+0x58],bl
  409f64:	or     eax,DWORD PTR [edi]
  409f66:	add    eax,0x9028
  409f6b:	push   es
  409f6c:	push   ss
  409f6d:	inc    BYTE PTR [edx+edx*8]
  409f70:	sub    al,0x1a
  409f72:	add    ebx,DWORD PTR [edi]
  409f74:	sbb    BYTE PTR [edx+0x2],bl
  409f77:	pop    eax
  409f78:	pop    es
  409f79:	sub    BYTE PTR [eax+0x0],bh
  409f7c:	add    BYTE PTR [esi],al
  409f7e:	es push es
  409f80:	adc    BYTE PTR [ecx],al
  409f82:	push   es
  409f83:	pop    ss
  409f84:	pop    ecx
  409f85:	sbb    BYTE PTR [ebx+0xa],bl
  409f88:	add    al,0x3
  409f8a:	xor    dl,dl
  409f8c:	add    ebx,DWORD PTR [edi]
  409f8e:	sbb    BYTE PTR [edx+0x2],bl
  409f91:	pop    eax
  409f92:	add    eax,0x7828
  409f97:	push   es
  409f98:	es sub cl,ah
  409f9b:	int3   
  409f9c:	or     esi,DWORD PTR [eax]
  409f9e:	add    al,0x0
  409fa0:	ja     0x409fa2
  409fa2:	add    BYTE PTR [eax],al
  409fa4:	fld    QWORD PTR [eax]
  409fa6:	add    BYTE PTR [ecx],dl
  409fa8:	add    al,0x3
  409faa:	sub    BYTE PTR [eax+eax*1+0x0],dl
  409fae:	push   es
  409faf:	es pop ds
  409fb1:	das    
  409fb2:	adc    eax,DWORD PTR ds:0x15051204
  409fb8:	pop    ss
  409fb9:	sub    BYTE PTR [ebx+0xb060000],dl
  409fbf:	pop    es
  409fc0:	adc    eax,0x16040b2e
  409fc5:	pop    es
  409fc6:	pop    ss
  409fc7:	pop    eax
  409fc8:	sub    BYTE PTR [eax+0x0],dh
  409fcb:	add    BYTE PTR [esi],al
  409fcd:	es pop ds
  409fcf:	adc    eax,DWORD PTR cs:[esp+eax*1]
  409fd3:	adc    al,BYTE PTR [edx*1+0x932817]
  409fda:	add    BYTE PTR [esi],al
  409fdc:	or     al,BYTE PTR [esi]
  409fde:	adc    eax,0x12043d2e
  409fe3:	add    edx,DWORD PTR [esi]
  409fe5:	push   es
  409fe6:	sub    BYTE PTR [ecx+0xc060000],dl
  409fec:	add    al,0x8
  409fee:	sub    BYTE PTR [eax+0x0],bh
  409ff1:	add    BYTE PTR [esi],al
  409ff3:	fimul  WORD PTR es:[esi]
  409ff6:	inc    BYTE PTR [esi]
  409ff8:	push   ebp
  409ff9:	add    BYTE PTR [eax],al
  409ffb:	push   es
  409ffc:	adc    al,BYTE PTR [ebx]
  409ffe:	sub    dl,ch
  40a000:	add    BYTE PTR [eax],al
  40a002:	push   es
  40a003:	fadd   QWORD PTR [eax]
  40a005:	adc    al,BYTE PTR [ebx]
  40a007:	pop    ss
  40a008:	push   ss
  40a009:	sub    BYTE PTR [ebp+0x0],ah
  40a00c:	add    BYTE PTR [esi],al
  40a00e:	fimul  WORD PTR [esi]
  40a010:	inc    BYTE PTR [esi]
  40a012:	pop    ebx
  40a013:	add    BYTE PTR [eax],al
  40a015:	push   es
  40a016:	adc    al,BYTE PTR [ebx]
  40a018:	sub    dl,ch
  40a01a:	add    BYTE PTR [eax],al
  40a01c:	push   es
  40a01d:	fsubr  QWORD PTR [edx]
  40a01f:	add    BYTE PTR [ecx+0x34],al
  40a022:	add    BYTE PTR [eax],al
  40a024:	add    al,0x0
  40a026:	add    BYTE PTR [eax],al
  40a028:	inc    esp
  40a029:	add    BYTE PTR [eax],al
  40a02b:	add    BYTE PTR [edx],cl
  40a02d:	add    BYTE PTR [eax],al
  40a02f:	add    BYTE PTR [esi+0x0],cl
  40a032:	add    BYTE PTR [eax],al
  40a034:	push   cs
  40a035:	add    BYTE PTR [eax],al
  40a037:	add    BYTE PTR [esi+0x0],ah
  40a03a:	add    BYTE PTR [ecx],al
  40a03c:	add    al,0x0
  40a03e:	add    BYTE PTR [eax],al
  40a040:	pop    ebp
  40a041:	add    BYTE PTR [eax],al
  40a043:	add    BYTE PTR [ebx],cl
  40a045:	add    BYTE PTR [eax],al
  40a047:	add    BYTE PTR [eax+0x0],ch
  40a04a:	add    BYTE PTR [eax],al
  40a04c:	push   cs
  40a04d:	add    BYTE PTR [eax],al
  40a04f:	add    BYTE PTR [esi+0x0],ah
  40a052:	add    BYTE PTR [ecx],al
  40a054:	or     esi,DWORD PTR [eax]
  40a056:	add    eax,DWORD PTR [eax]
  40a058:	adc    BYTE PTR [ecx],al
  40a05a:	add    BYTE PTR [eax],al
  40a05c:	fiadd  WORD PTR [eax]
  40a05e:	add    BYTE PTR [ecx],dl
  40a060:	add    bh,BYTE PTR [ebx+0x24]
  40a063:	add    DWORD PTR [eax],eax
  40a065:	add    al,0x28
  40a067:	cmp    DWORD PTR [eax],eax
  40a069:	add    BYTE PTR [edx],cl
  40a06b:	adc    eax,DWORD PTR [ecx+edx*1]
  40a06e:	add    al,0x39
  40a070:	sti    
  40a071:	add    BYTE PTR [eax],al
  40a073:	add    BYTE PTR [ecx],dl
  40a075:	add    al,0x28
  40a077:	cmp    BYTE PTR [eax],al
  40a079:	add    BYTE PTR [edx],cl
  40a07b:	jne    0x40a0b3
  40a07d:	add    BYTE PTR [eax],al
  40a07f:	add    DWORD PTR ds:0x37281409,ecx
  40a085:	add    BYTE PTR [eax],al
  40a087:	or     bh,BYTE PTR [ecx]
  40a089:	loop   0x40a08b
  40a08b:	add    BYTE PTR [eax],al
  40a08d:	or     DWORD PTR [eax],ebp
  40a08f:	dec    eax
  40a090:	add    BYTE PTR [eax],al
  40a092:	or     ch,BYTE PTR [eax]
  40a094:	dec    ecx
  40a095:	add    BYTE PTR [eax],al
  40a097:	or     cl,BYTE PTR [edx+eax*1]
  40a09a:	jnp    0x40a0ba
  40a09c:	add    DWORD PTR [eax],eax
  40a09e:	add    al,0x8
  40a0a0:	sub    BYTE PTR [edx],dl
  40a0a2:	add    BYTE PTR [eax],al
  40a0a4:	push   es
  40a0a5:	adc    cl,BYTE PTR [eax]
  40a0a7:	sub    BYTE PTR [eax+0x0],bl
  40a0aa:	add    BYTE PTR [esi],al
  40a0ac:	adc    al,BYTE PTR es:[edi]
  40a0af:	or     BYTE PTR [eax],ch
  40a0b1:	push   edi
  40a0b2:	add    BYTE PTR [eax],al
  40a0b4:	push   es
  40a0b5:	adc    eax,DWORD PTR ds:0x12051102
  40a0bb:	or     BYTE PTR [eax],ch
  40a0bd:	mov    bl,0x1
  40a0bf:	add    BYTE PTR [esi],al
  40a0c1:	fimul  WORD PTR [esi]
  40a0c3:	inc    BYTE PTR [esi]
  40a0c5:	push   ebp
  40a0c6:	add    BYTE PTR [eax],al
  40a0c8:	push   es
  40a0c9:	adc    al,BYTE PTR [edi]
  40a0cb:	sub    dl,ch
  40a0cd:	add    BYTE PTR [eax],al
  40a0cf:	push   es
  40a0d0:	fadd   QWORD PTR [eax]
  40a0d2:	adc    al,BYTE PTR [edi]
  40a0d4:	pop    ss
  40a0d5:	push   ss
  40a0d6:	sub    BYTE PTR [ebp+0x0],ah
  40a0d9:	add    BYTE PTR [esi],al
  40a0db:	fimul  WORD PTR [esi]
  40a0dd:	inc    BYTE PTR [esi]
  40a0df:	pop    ebx
  40a0e0:	add    BYTE PTR [eax],al
  40a0e2:	push   es
  40a0e3:	adc    al,BYTE PTR [edi]
  40a0e5:	sub    dl,ch
  40a0e7:	add    BYTE PTR [eax],al
  40a0e9:	push   es
  40a0ea:	fcom   QWORD PTR [edx]
  40a0ec:	push   es
  40a0ed:	adc    cl,BYTE PTR [eax]
  40a0ef:	jg     0x40a08f
  40a0f1:	add    BYTE PTR [eax],al
  40a0f3:	add    al,0x28
  40a0f5:	xchg   esi,eax
  40a0f6:	add    BYTE PTR [eax],al
  40a0f8:	push   es
  40a0f9:	or     bl,BYTE PTR [edi]
  40a0fb:	adc    BYTE PTR [esi],al
  40a0fd:	pop    ds
  40a0fe:	adc    al,0x58
  40a100:	dec    edx
  40a101:	xor    eax,0xb4a0605
  40a106:	sub    eax,DWORD PTR [edx]
  40a108:	push   es
  40a109:	or     eax,DWORD PTR [edx]
  40a10b:	jnp    0x40a13f
  40a10d:	add    DWORD PTR [eax],eax
  40a10f:	add    al,0x7
  40a111:	jae    0x40a161
  40a113:	add    BYTE PTR [eax],al
  40a115:	or     ch,BYTE PTR [eax]
  40a117:	add    BYTE PTR ss:[eax],al
  40a11a:	or     bl,dh
  40a11c:	push   cs
  40a11d:	inc    BYTE PTR [esi]
  40a11f:	push   ebp
  40a120:	add    BYTE PTR [eax],al
  40a122:	push   es
  40a123:	adc    al,BYTE PTR [esi]
  40a125:	sub    dl,ch
  40a127:	add    BYTE PTR [eax],al
  40a129:	push   es
  40a12a:	fadd   QWORD PTR [eax]
  40a12c:	adc    al,BYTE PTR [esi]
  40a12e:	pop    ss
  40a12f:	push   ss
  40a130:	sub    BYTE PTR [ebp+0x0],ah
  40a133:	add    BYTE PTR [esi],al
  40a135:	fimul  WORD PTR [esi]
  40a137:	inc    BYTE PTR [esi]
  40a139:	pop    ebx
  40a13a:	add    BYTE PTR [eax],al
  40a13c:	push   es
  40a13d:	adc    al,BYTE PTR [esi]
  40a13f:	sub    dl,ch
  40a141:	add    BYTE PTR [eax],al
  40a143:	push   es
  40a144:	(bad)  
  40a146:	push   cs
  40a147:	inc    BYTE PTR [esi]
  40a149:	push   ebp
  40a14a:	add    BYTE PTR [eax],al
  40a14c:	push   es
  40a14d:	adc    cl,BYTE PTR [eax]
  40a14f:	sub    dl,ch
  40a151:	add    BYTE PTR [eax],al
  40a153:	push   es
  40a154:	fadd   QWORD PTR [eax]
  40a156:	adc    cl,BYTE PTR [eax]
  40a158:	pop    ss
  40a159:	push   ss
  40a15a:	sub    BYTE PTR [ebp+0x0],ah
  40a15d:	add    BYTE PTR [esi],al
  40a15f:	fimul  WORD PTR [esi]
  40a161:	inc    BYTE PTR [esi]
  40a163:	pop    ebx
  40a164:	add    BYTE PTR [eax],al
  40a166:	push   es
  40a167:	adc    cl,BYTE PTR [eax]
  40a169:	sub    dl,ch
  40a16b:	add    BYTE PTR [eax],al
  40a16d:	push   es
  40a16e:	fsubr  QWORD PTR [edx]
  40a170:	inc    ecx
  40a171:	xchg   esp,eax
  40a172:	add    BYTE PTR [eax],al
  40a174:	add    al,0x0
  40a176:	add    BYTE PTR [eax],al
  40a178:	push   edi
  40a179:	add    BYTE PTR [eax],al
  40a17b:	add    BYTE PTR [eax+eax*1],cl
  40a17e:	add    BYTE PTR [eax],al
  40a180:	arpl   WORD PTR [eax],ax
  40a182:	add    BYTE PTR [eax],al
  40a184:	push   cs
  40a185:	add    BYTE PTR [eax],al
  40a187:	add    BYTE PTR [esi+0x0],ah
  40a18a:	add    BYTE PTR [ecx],al
  40a18c:	add    al,0x0
  40a18e:	add    BYTE PTR [eax],al
  40a190:	jb     0x40a192
  40a192:	add    BYTE PTR [eax],al
  40a194:	or     eax,DWORD PTR [eax]
  40a196:	add    BYTE PTR [eax],al
  40a198:	jge    0x40a19a
  40a19a:	add    BYTE PTR [eax],al
  40a19c:	push   cs
  40a19d:	add    BYTE PTR [eax],al
  40a19f:	add    BYTE PTR [esi+0x0],ah
  40a1a2:	add    BYTE PTR [ecx],al
  40a1a4:	add    al,0x0
  40a1a6:	add    BYTE PTR [eax],al
  40a1a8:	call   0x0:0x23000000
  40a1af:	add    BYTE PTR [ebp+0xe000000],bh
  40a1b5:	add    BYTE PTR [eax],al
  40a1b7:	add    BYTE PTR [esi+0x0],ah
  40a1ba:	add    BYTE PTR [ecx],al
  40a1bc:	add    al,0x0
  40a1be:	add    BYTE PTR [eax],al
  40a1c0:	int3   
  40a1c1:	add    BYTE PTR [eax],al
  40a1c3:	add    BYTE PTR [ebx],cl
  40a1c5:	add    BYTE PTR [eax],al
  40a1c7:	add    bh,dl
  40a1c9:	add    BYTE PTR [eax],al
  40a1cb:	add    BYTE PTR [esi],cl
  40a1cd:	add    BYTE PTR [eax],al
  40a1cf:	add    BYTE PTR [esi+0x0],ah
  40a1d2:	add    BYTE PTR [ecx],al
  40a1d4:	add    al,0x0
  40a1d6:	add    BYTE PTR [eax],al
  40a1d8:	dec    ebp
  40a1d9:	add    BYTE PTR [eax],al
  40a1db:	add    BYTE PTR [edx-0x19000000],bl
  40a1e1:	add    BYTE PTR [eax],al
  40a1e3:	add    BYTE PTR [esi],cl
  40a1e5:	add    BYTE PTR [eax],al
  40a1e7:	add    BYTE PTR [esi+0x0],ah
  40a1ea:	add    BYTE PTR [ecx],al
  40a1ec:	add    al,0x0
  40a1ee:	add    BYTE PTR [eax],al
  40a1f0:	test   BYTE PTR [eax],0x0
  40a1f3:	add    BYTE PTR [ebx],cl
  40a1f5:	add    BYTE PTR [eax],al
  40a1f7:	add    BYTE PTR [ecx],al
  40a1f9:	add    DWORD PTR [eax],eax
  40a1fb:	add    BYTE PTR [esi],cl
  40a1fd:	add    BYTE PTR [eax],al
  40a1ff:	add    BYTE PTR [esi+0x0],ah
  40a202:	add    BYTE PTR [ecx],al
  40a204:	or     esi,DWORD PTR [eax]
  40a206:	add    eax,DWORD PTR [eax]
  40a208:	sbb    eax,0xde000001
  40a20d:	add    BYTE PTR [eax],al
  40a20f:	adc    DWORD PTR [eax+ebp*1],eax
  40a212:	pop    ss
  40a213:	add    BYTE PTR [eax],al
  40a215:	or     bl,BYTE PTR [edi]
  40a217:	or     eax,0x10f40
  40a21c:	add    BYTE PTR [edx],al
  40a21e:	jnp    0x40a244
  40a220:	add    DWORD PTR [eax],eax
  40a222:	add    al,0x28
  40a224:	cmp    DWORD PTR [eax],eax
  40a226:	add    BYTE PTR [edx],cl
  40a228:	adc    eax,DWORD PTR [ecx+edx*1]
  40a22b:	add    al,0x39
  40a22d:	sti    
  40a22e:	add    BYTE PTR [eax],al
  40a230:	add    BYTE PTR [ecx],dl
  40a232:	add    al,0x28
  40a234:	cmp    BYTE PTR [eax],al
  40a236:	add    BYTE PTR [edx],cl
  40a238:	jne    0x40a270
  40a23a:	add    BYTE PTR [eax],al
  40a23c:	add    DWORD PTR ds:0x37281409,ecx
  40a242:	add    BYTE PTR [eax],al
  40a244:	or     bh,BYTE PTR [ecx]
  40a246:	loop   0x40a248
  40a248:	add    BYTE PTR [eax],al
  40a24a:	or     DWORD PTR [eax],ebp
  40a24c:	dec    eax
  40a24d:	add    BYTE PTR [eax],al
  40a24f:	or     ch,BYTE PTR [eax]
  40a251:	dec    ecx
  40a252:	add    BYTE PTR [eax],al
  40a254:	or     cl,BYTE PTR [edx+eax*1]
  40a257:	jnp    0x40a277
  40a259:	add    DWORD PTR [eax],eax
  40a25b:	add    al,0x8
  40a25d:	sub    BYTE PTR [edx],dl
  40a25f:	add    BYTE PTR [eax],al
  40a261:	push   es
  40a262:	adc    cl,BYTE PTR [eax]
  40a264:	sub    BYTE PTR [eax+0x0],bl
  40a267:	add    BYTE PTR [esi],al
  40a269:	adc    al,BYTE PTR es:[edi]
  40a26c:	or     BYTE PTR [eax],ch
  40a26e:	push   edi
  40a26f:	add    BYTE PTR [eax],al
  40a271:	push   es
  40a272:	adc    eax,DWORD PTR ds:0x12051102
  40a278:	or     BYTE PTR [eax],ch
  40a27a:	mov    bl,0x1
  40a27c:	add    BYTE PTR [esi],al
  40a27e:	fimul  WORD PTR [esi]
  40a280:	inc    BYTE PTR [esi]
  40a282:	push   ebp
  40a283:	add    BYTE PTR [eax],al
  40a285:	push   es
  40a286:	adc    al,BYTE PTR [edi]
  40a288:	sub    dl,ch
  40a28a:	add    BYTE PTR [eax],al
  40a28c:	push   es
  40a28d:	fadd   QWORD PTR [eax]
  40a28f:	adc    al,BYTE PTR [edi]
  40a291:	pop    ss
  40a292:	push   ss
  40a293:	sub    BYTE PTR [ebp+0x0],ah
  40a296:	add    BYTE PTR [esi],al
  40a298:	fimul  WORD PTR [esi]
  40a29a:	inc    BYTE PTR [esi]
  40a29c:	pop    ebx
  40a29d:	add    BYTE PTR [eax],al
  40a29f:	push   es
  40a2a0:	adc    al,BYTE PTR [edi]
  40a2a2:	sub    dl,ch
  40a2a4:	add    BYTE PTR [eax],al
  40a2a6:	push   es
  40a2a7:	fcom   QWORD PTR [edx]
  40a2a9:	push   es
  40a2aa:	adc    cl,BYTE PTR [eax]
  40a2ac:	jg     0x40a24c
  40a2ae:	add    BYTE PTR [eax],al
  40a2b0:	add    al,0x28
  40a2b2:	xchg   esi,eax
  40a2b3:	add    BYTE PTR [eax],al
  40a2b5:	push   es
  40a2b6:	or     bl,BYTE PTR [edi]
  40a2b8:	adc    BYTE PTR [esi],al
  40a2ba:	pop    ds
  40a2bb:	adc    al,0x58
  40a2bd:	dec    edx
  40a2be:	xor    eax,0xb4a0605
  40a2c3:	sub    eax,DWORD PTR [edx]
  40a2c5:	push   es
  40a2c6:	or     eax,DWORD PTR [edx]
  40a2c8:	jnp    0x40a2fc
  40a2ca:	add    DWORD PTR [eax],eax
  40a2cc:	add    al,0x7
  40a2ce:	jae    0x40a31e
  40a2d0:	add    BYTE PTR [eax],al
  40a2d2:	or     ch,BYTE PTR [eax]
  40a2d4:	add    BYTE PTR ss:[eax],al
  40a2d7:	or     bl,dh
  40a2d9:	push   cs
  40a2da:	inc    BYTE PTR [esi]
  40a2dc:	push   ebp
  40a2dd:	add    BYTE PTR [eax],al
  40a2df:	push   es
  40a2e0:	adc    al,BYTE PTR [esi]
  40a2e2:	sub    dl,ch
  40a2e4:	add    BYTE PTR [eax],al
  40a2e6:	push   es
  40a2e7:	fadd   QWORD PTR [eax]
  40a2e9:	adc    al,BYTE PTR [esi]
  40a2eb:	pop    ss
  40a2ec:	push   ss
  40a2ed:	sub    BYTE PTR [ebp+0x0],ah
  40a2f0:	add    BYTE PTR [esi],al
  40a2f2:	fimul  WORD PTR [esi]
  40a2f4:	inc    BYTE PTR [esi]
  40a2f6:	pop    ebx
  40a2f7:	add    BYTE PTR [eax],al
  40a2f9:	push   es
  40a2fa:	adc    al,BYTE PTR [esi]
  40a2fc:	sub    dl,ch
  40a2fe:	add    BYTE PTR [eax],al
  40a300:	push   es
  40a301:	(bad)  
  40a303:	push   cs
  40a304:	inc    BYTE PTR [esi]
  40a306:	push   ebp
  40a307:	add    BYTE PTR [eax],al
  40a309:	push   es
  40a30a:	adc    cl,BYTE PTR [eax]
  40a30c:	sub    dl,ch
  40a30e:	add    BYTE PTR [eax],al
  40a310:	push   es
  40a311:	fadd   QWORD PTR [eax]
  40a313:	adc    cl,BYTE PTR [eax]
  40a315:	pop    ss
  40a316:	push   ss
  40a317:	sub    BYTE PTR [ebp+0x0],ah
  40a31a:	add    BYTE PTR [esi],al
  40a31c:	fimul  WORD PTR [esi]
  40a31e:	inc    BYTE PTR [esi]
  40a320:	pop    ebx
  40a321:	add    BYTE PTR [eax],al
  40a323:	push   es
  40a324:	adc    cl,BYTE PTR [eax]
  40a326:	sub    dl,ch
  40a328:	add    BYTE PTR [eax],al
  40a32a:	push   es
  40a32b:	fsubr  QWORD PTR [edx]
  40a32d:	add    BYTE PTR [eax],al
  40a32f:	add    BYTE PTR [ecx-0x6c],al
  40a332:	add    BYTE PTR [eax],al
  40a334:	add    al,0x0
  40a336:	add    BYTE PTR [eax],al
  40a338:	add    BYTE PTR fs:[eax],al
  40a33b:	add    BYTE PTR [eax+eax*1],cl
  40a33e:	add    BYTE PTR [eax],al
  40a340:	jo     0x40a342
  40a342:	add    BYTE PTR [eax],al
  40a344:	push   cs
  40a345:	add    BYTE PTR [eax],al
  40a347:	add    BYTE PTR [esi+0x0],ah
  40a34a:	add    BYTE PTR [ecx],al
  40a34c:	add    al,0x0
  40a34e:	add    BYTE PTR [eax],al
  40a350:	jg     0x40a352
  40a352:	add    BYTE PTR [eax],al
  40a354:	or     eax,DWORD PTR [eax]
  40a356:	add    BYTE PTR [eax],al
  40a358:	mov    al,BYTE PTR [eax]
  40a35a:	add    BYTE PTR [eax],al
  40a35c:	push   cs
  40a35d:	add    BYTE PTR [eax],al
  40a35f:	add    BYTE PTR [esi+0x0],ah
  40a362:	add    BYTE PTR [ecx],al
  40a364:	add    al,0x0
  40a366:	add    BYTE PTR [eax],al
  40a368:	cmps   DWORD PTR ds:[esi],DWORD PTR es:[edi]
  40a369:	add    BYTE PTR [eax],al
  40a36b:	add    BYTE PTR [ebx],ah
  40a36d:	add    BYTE PTR [eax],al
  40a36f:	add    dl,cl
  40a371:	add    BYTE PTR [eax],al
  40a373:	add    BYTE PTR [esi],cl
  40a375:	add    BYTE PTR [eax],al
  40a377:	add    BYTE PTR [esi+0x0],ah
  40a37a:	add    BYTE PTR [ecx],al
  40a37c:	add    al,0x0
  40a37e:	add    BYTE PTR [eax],al
  40a380:	fld    DWORD PTR [eax]
  40a382:	add    BYTE PTR [eax],al
  40a384:	or     eax,DWORD PTR [eax]
  40a386:	add    BYTE PTR [eax],al
  40a388:	in     al,0x0
  40a38a:	add    BYTE PTR [eax],al
  40a38c:	push   cs
  40a38d:	add    BYTE PTR [eax],al
  40a38f:	add    BYTE PTR [esi+0x0],ah
  40a392:	add    BYTE PTR [ecx],al
  40a394:	add    al,0x0
  40a396:	add    BYTE PTR [eax],al
  40a398:	pop    edx
  40a399:	add    BYTE PTR [eax],al
  40a39b:	add    BYTE PTR [edx-0xc000000],bl
  40a3a1:	add    BYTE PTR [eax],al
  40a3a3:	add    BYTE PTR [esi],cl
  40a3a5:	add    BYTE PTR [eax],al
  40a3a7:	add    BYTE PTR [esi+0x0],ah
  40a3aa:	add    BYTE PTR [ecx],al
  40a3ac:	add    al,0x0
  40a3ae:	add    BYTE PTR [eax],al
  40a3b0:	add    eax,DWORD PTR [ecx]
  40a3b2:	add    BYTE PTR [eax],al
  40a3b4:	or     eax,DWORD PTR [eax]
  40a3b6:	add    BYTE PTR [eax],al
  40a3b8:	push   cs
  40a3b9:	add    DWORD PTR [eax],eax
  40a3bb:	add    BYTE PTR [esi],cl
  40a3bd:	add    BYTE PTR [eax],al
  40a3bf:	add    BYTE PTR [esi+0x0],ah
  40a3c2:	add    BYTE PTR [ecx],al
  40a3c4:	add    esi,DWORD PTR [eax]
  40a3c6:	add    eax,0x7500
  40a3cb:	add    cl,ah
  40a3cd:	add    BYTE PTR [eax],al
  40a3cf:	adc    DWORD PTR [ebx],eax
  40a3d1:	or     al,0x3
  40a3d3:	or     al,BYTE PTR [edi+edx*1]
  40a3d6:	pop    ecx
  40a3d7:	sbb    BYTE PTR [ebx+0xb],bl
  40a3da:	add    eax,DWORD PTR [edi]
  40a3dc:	das    
  40a3dd:	cmp    BYTE PTR [esi],al
  40a3df:	sbb    BYTE PTR [edx+0x18],bl
  40a3e2:	pop    eax
  40a3e3:	or     al,BYTE PTR [edx]
  40a3e5:	push   es
  40a3e6:	pop    ds
  40a3e7:	sbb    BYTE PTR [edx+0x58],bl
  40a3ea:	and    eax,0x2859181f
  40a3ef:	nop
  40a3f0:	add    BYTE PTR [eax],al
  40a3f2:	push   es
  40a3f3:	push   ss
  40a3f4:	inc    BYTE PTR [edx+edx*8]
  40a3f7:	sub    al,0x4
  40a3f9:	push   es
  40a3fa:	pop    ss
  40a3fb:	pop    ecx
  40a3fc:	or     al,BYTE PTR [ebx]
  40a3fe:	pop    ds
  40a3ff:	sbb    BYTE PTR [edx+0x2],bl
  40a402:	pop    eax
  40a403:	push   es
  40a404:	pop    ds
  40a405:	sbb    BYTE PTR [edx+0x2],bl
  40a408:	pop    eax
  40a409:	sub    BYTE PTR [eax+0x0],bh
  40a40c:	add    BYTE PTR [esi],al
  40a40e:	es push es
  40a410:	adc    BYTE PTR [ecx],al
  40a412:	push   es
  40a413:	pop    es
  40a414:	xor    cl,al
  40a416:	push   es
  40a417:	pop    es
  40a418:	xor    ebx,DWORD PTR [edi]
  40a41a:	add    al,0x18
  40a41c:	pop    ebp
  40a41d:	sub    eax,0x181f031a
  40a422:	pop    edx
  40a423:	add    bl,BYTE PTR [eax+0x2]
  40a426:	add    al,0x1f
  40a428:	sbb    BYTE PTR [edx+0x58],bl
  40a42b:	pop    ds
  40a42c:	sbb    BYTE PTR [ecx+0x28],bl
  40a42f:	js     0x40a431
  40a431:	add    BYTE PTR [esi],al
  40a433:	es add al,0x17
  40a436:	pop    ecx
  40a437:	adc    BYTE PTR [ecx],al
  40a439:	add    al,BYTE PTR [ebx]
  40a43b:	or     BYTE PTR ds:0xa128040e,al
  40a441:	add    BYTE PTR [eax],al
  40a443:	push   es
  40a444:	sub    cl,ah
  40a446:	int3   
  40a447:	int3   
  40a448:	or     esi,DWORD PTR [eax]
  40a44a:	add    eax,0x6600
  40a44f:	add    dl,ah
  40a451:	add    BYTE PTR [eax],al
  40a453:	adc    DWORD PTR [ebx],eax
  40a455:	add    bl,BYTE PTR [ecx+0x1f]
  40a458:	sbb    BYTE PTR [ebx+0xc],bl
  40a45b:	sbb    BYTE PTR [eax],cl
  40a45d:	xor    BYTE PTR [edx+0x8],bl
  40a460:	sbb    BYTE PTR [ebx+0xa],bl
  40a463:	push   ss
  40a464:	push   es
  40a465:	das    
  40a466:	push   edx
  40a467:	push   es
  40a468:	pop    ds
  40a469:	sbb    BYTE PTR [edx+0x2],bl
  40a46c:	pop    eax
  40a46d:	or     eax,DWORD PTR [esi]
  40a46f:	pop    ss
  40a470:	pop    ecx
  40a471:	or     al,BYTE PTR [edi]
  40a473:	pop    ds
  40a474:	sbb    BYTE PTR [ecx+0xb],bl
  40a477:	adc    al,BYTE PTR [ebx]
  40a479:	pop    es
  40a47a:	sub    BYTE PTR [esi+0x0],dl
  40a47d:	add    BYTE PTR [esi],al
  40a47f:	add    al,BYTE PTR es:[esi]
  40a482:	or     BYTE PTR [edx],dl
  40a484:	add    eax,DWORD PTR [eax+ebp*1]
  40a487:	sahf   
  40a488:	add    BYTE PTR [eax],al
  40a48a:	push   es
  40a48b:	fimul  WORD PTR [esi]
  40a48d:	inc    BYTE PTR [esi]
  40a48f:	push   ebp
  40a490:	add    BYTE PTR [eax],al
  40a492:	push   es
  40a493:	adc    al,BYTE PTR [ebx]
  40a495:	sub    dl,ch
  40a497:	add    BYTE PTR [eax],al
  40a499:	push   es
  40a49a:	fadd   QWORD PTR [eax]
  40a49c:	adc    al,BYTE PTR [ebx]
  40a49e:	pop    ss
  40a49f:	push   ss
  40a4a0:	sub    BYTE PTR [ebp+0x0],ah
  40a4a3:	add    BYTE PTR [esi],al
  40a4a5:	fimul  WORD PTR [esi]
  40a4a7:	inc    BYTE PTR [esi]
  40a4a9:	pop    ebx
  40a4aa:	add    BYTE PTR [eax],al
  40a4ac:	push   es
  40a4ad:	adc    al,BYTE PTR [ebx]
  40a4af:	sub    dl,ch
  40a4b1:	add    BYTE PTR [eax],al
  40a4b3:	push   es
  40a4b4:	fadd   QWORD PTR [esi]
  40a4b6:	push   ss
  40a4b7:	xor    BYTE PTR [ebp+0x4100002a],dh
  40a4bd:	xor    al,0x0
  40a4bf:	add    BYTE PTR [eax+eax*1],al
  40a4c2:	add    BYTE PTR [eax],al
  40a4c4:	sub    al,0x0
  40a4c6:	add    BYTE PTR [eax],al
  40a4c8:	or     eax,0x39000000
  40a4cd:	add    BYTE PTR [eax],al
  40a4cf:	add    BYTE PTR [esi],cl
  40a4d1:	add    BYTE PTR [eax],al
  40a4d3:	add    BYTE PTR [esi+0x0],ah
  40a4d6:	add    BYTE PTR [ecx],al
  40a4d8:	add    al,0x0
  40a4da:	add    BYTE PTR [eax],al
  40a4dc:	dec    eax
  40a4dd:	add    BYTE PTR [eax],al
  40a4df:	add    BYTE PTR [ebx],cl
  40a4e1:	add    BYTE PTR [eax],al
  40a4e3:	add    BYTE PTR [ebx+0x0],dl
  40a4e6:	add    BYTE PTR [eax],al
  40a4e8:	push   cs
  40a4e9:	add    BYTE PTR [eax],al
  40a4eb:	add    BYTE PTR [esi+0x0],ah
  40a4ee:	add    BYTE PTR [ecx],al
  40a4f0:	or     esi,DWORD PTR [eax]
  40a4f2:	add    eax,DWORD PTR [eax]
  40a4f4:	mov    dl,0x0
  40a4f6:	add    BYTE PTR [eax],al
  40a4f8:	jecxz  0x40a4fa
  40a4fa:	add    BYTE PTR [ecx],dl
  40a4fc:	add    al,BYTE PTR [ebx]
  40a4fe:	cmp    ebp,DWORD PTR [edx+0x2000000]
  40a504:	pop    ds
  40a505:	sbb    BYTE PTR [eax+0xa],bl
  40a508:	push   es
  40a509:	add    edi,DWORD PTR [ebx]
  40a50b:	sahf   
  40a50c:	add    BYTE PTR [eax],al
  40a50e:	add    BYTE PTR [esi],al
  40a510:	or     eax,0x28060412
  40a515:	push   esi
  40a516:	add    BYTE PTR [eax],al
  40a518:	push   es
  40a519:	adc    al,BYTE PTR es:[edx+eax*1]
  40a51d:	sub    BYTE PTR [eax+0x16060000],dl
  40a523:	inc    BYTE PTR [edx+edx*8]
  40a526:	sub    al,0x25
  40a528:	push   es
  40a529:	or     al,0x2
  40a52b:	push   es
  40a52c:	cs adc al,0x8
  40a52f:	pop    ds
  40a530:	sbb    BYTE PTR [ecx+0xc],bl
  40a533:	or     BYTE PTR [edi],bl
  40a535:	sbb    BYTE PTR [eax+0x8],bl
  40a538:	sub    BYTE PTR [eax+0x0],bh
  40a53b:	add    BYTE PTR [esi],al
  40a53d:	or     BYTE PTR es:[edx],al
  40a540:	xor    ebp,esp
  40a542:	add    dl,BYTE PTR [edx]
  40a544:	add    al,0x28
  40a546:	js     0x40a548
  40a548:	add    BYTE PTR [esi],al
  40a54a:	sub    ebp,DWORD PTR es:[edx]
  40a54d:	push   es
  40a54e:	or     eax,DWORD PTR [edi]
  40a550:	pop    ds
  40a551:	sbb    BYTE PTR [ecx+0xb],bl
  40a554:	adc    al,BYTE PTR [edi+eax*1]
  40a557:	sub    BYTE PTR [eax+0x16060000],dl
  40a55d:	inc    BYTE PTR [edx+edx*8]
  40a560:	sub    al,0xc
  40a562:	or     DWORD PTR [edi],eax
  40a564:	sub    BYTE PTR [eax+0x0],bh
  40a567:	add    BYTE PTR [esi],al
  40a569:	es pop es
  40a56b:	or     eax,0x1209e12b
  40a570:	add    al,0x28
  40a572:	js     0x40a574
  40a574:	add    BYTE PTR [esi],al
  40a576:	fimul  WORD PTR es:[esi]
  40a579:	inc    BYTE PTR [esi]
  40a57b:	push   ebp
  40a57c:	add    BYTE PTR [eax],al
  40a57e:	push   es
  40a57f:	adc    al,BYTE PTR [eax+ebp*1]
  40a582:	jmp    0x1200:0xdc060000
  40a589:	add    al,0x17
  40a58b:	push   ss
  40a58c:	sub    BYTE PTR [ebp+0x0],ah
  40a58f:	add    BYTE PTR [esi],al
  40a591:	fimul  WORD PTR [esi]
  40a593:	inc    BYTE PTR [esi]
  40a595:	pop    ebx
  40a596:	add    BYTE PTR [eax],al
  40a598:	push   es
  40a599:	adc    al,BYTE PTR [eax+ebp*1]
  40a59c:	jmp    0x1f06:0xdc060000
  40a5a3:	sbb    BYTE PTR [eax+0xa],bl
  40a5a6:	push   es
  40a5a7:	add    eax,DWORD PTR [eax+0x62]
  40a5aa:	(bad)  
  40a5ab:	(bad)  
  40a5ac:	jmp    FWORD PTR [edx]
  40a5ae:	add    BYTE PTR [eax],al
  40a5b0:	inc    ecx
  40a5b1:	xor    al,0x0
  40a5b3:	add    BYTE PTR [eax+eax*1],al
  40a5b6:	add    BYTE PTR [eax],al
  40a5b8:	push   ds
  40a5b9:	add    BYTE PTR [eax],al
  40a5bb:	add    BYTE PTR [edi+0x0],bl
  40a5be:	add    BYTE PTR [eax],al
  40a5c0:	jge    0x40a5c2
  40a5c2:	add    BYTE PTR [eax],al
  40a5c4:	push   cs
  40a5c5:	add    BYTE PTR [eax],al
  40a5c7:	add    BYTE PTR [esi+0x0],ah
  40a5ca:	add    BYTE PTR [ecx],al
  40a5cc:	add    al,0x0
  40a5ce:	add    BYTE PTR [eax],al
  40a5d0:	mov    WORD PTR [eax],es
  40a5d2:	add    BYTE PTR [eax],al
  40a5d4:	or     eax,DWORD PTR [eax]
  40a5d6:	add    BYTE PTR [eax],al
  40a5d8:	xchg   edi,eax
  40a5d9:	add    BYTE PTR [eax],al
  40a5db:	add    BYTE PTR [esi],cl
  40a5dd:	add    BYTE PTR [eax],al
  40a5df:	add    BYTE PTR [esi+0x0],ah
  40a5e2:	add    BYTE PTR [ecx],al
  40a5e4:	or     esi,DWORD PTR [eax]
  40a5e6:	add    eax,0x5b00
  40a5eb:	add    ah,ah
  40a5ed:	add    BYTE PTR [eax],al
  40a5ef:	adc    DWORD PTR [eax],ebx
  40a5f1:	add    eax,DWORD PTR [edx]
  40a5f3:	pop    ecx
  40a5f4:	pop    ds
  40a5f5:	sbb    BYTE PTR [ebx+0x30],bl
  40a5f8:	push   ecx
  40a5f9:	add    ebx,DWORD PTR [edi]
  40a5fb:	sbb    BYTE PTR [ecx+0x10],bl
  40a5fe:	add    DWORD PTR [edx],edx
  40a600:	add    BYTE PTR [ebx],al
  40a602:	sub    BYTE PTR [esi+0x0],dl
  40a605:	add    BYTE PTR [esi],al
  40a607:	add    eax,DWORD PTR es:[edx]
  40a60a:	sub    BYTE PTR [eax+0x0],bh
  40a60d:	add    BYTE PTR [esi],al
  40a60f:	add    dl,BYTE PTR es:[esi]
  40a612:	add    eax,DWORD PTR [edx]
  40a614:	pop    ecx
  40a615:	pop    ds
  40a616:	sbb    BYTE PTR [ebx+0x12],bl
  40a619:	add    BYTE PTR [eax+ebp*1],al
  40a61c:	sahf   
  40a61d:	add    BYTE PTR [eax],al
  40a61f:	push   es
  40a620:	fimul  WORD PTR [esi]
  40a622:	inc    BYTE PTR [esi]
  40a624:	push   ebp
  40a625:	add    BYTE PTR [eax],al
  40a627:	push   es
  40a628:	adc    al,BYTE PTR [eax]
  40a62a:	sub    dl,ch
  40a62c:	add    BYTE PTR [eax],al
  40a62e:	push   es
  40a62f:	fadd   QWORD PTR [eax]
  40a631:	adc    al,BYTE PTR [eax]
  40a633:	pop    ss
  40a634:	push   ss
  40a635:	sub    BYTE PTR [ebp+0x0],ah
  40a638:	add    BYTE PTR [esi],al
  40a63a:	fimul  WORD PTR [esi]
  40a63c:	inc    BYTE PTR [esi]
  40a63e:	pop    ebx
  40a63f:	add    BYTE PTR [eax],al
  40a641:	push   es
  40a642:	adc    al,BYTE PTR [eax]
  40a644:	sub    dl,ch
  40a646:	add    BYTE PTR [eax],al
  40a648:	push   es
  40a649:	fsubr  QWORD PTR [edx]
  40a64b:	add    BYTE PTR [ecx+0x34],al
  40a64e:	add    BYTE PTR [eax],al
  40a650:	add    al,0x0
  40a652:	add    BYTE PTR [eax],al
  40a654:	sbb    BYTE PTR [eax],al
  40a656:	add    BYTE PTR [eax],al
  40a658:	sbb    al,BYTE PTR [eax]
  40a65a:	add    BYTE PTR [eax],al
  40a65c:	xor    al,BYTE PTR [eax]
  40a65e:	add    BYTE PTR [eax],al
  40a660:	push   cs
  40a661:	add    BYTE PTR [eax],al
  40a663:	add    BYTE PTR [esi+0x0],ah
  40a666:	add    BYTE PTR [ecx],al
  40a668:	add    al,0x0
  40a66a:	add    BYTE PTR [eax],al
  40a66c:	inc    ecx
  40a66d:	add    BYTE PTR [eax],al
  40a66f:	add    BYTE PTR [ebx],cl
  40a671:	add    BYTE PTR [eax],al
  40a673:	add    BYTE PTR [eax+eax*1+0x0],cl
  40a677:	add    BYTE PTR [esi],cl
  40a679:	add    BYTE PTR [eax],al
  40a67b:	add    BYTE PTR [esi+0x0],ah
  40a67e:	add    BYTE PTR [ecx],al
  40a680:	add    esi,DWORD PTR [eax]
  40a682:	add    al,0x0
  40a684:	mov    dh,0x0
  40a686:	add    BYTE PTR [eax],al
  40a688:	out    0x0,al
  40a68a:	add    BYTE PTR [ecx],dl
  40a68c:	add    eax,DWORD PTR [edx]
  40a68e:	pop    ecx
  40a68f:	pop    ds
  40a690:	sbb    BYTE PTR [ebx+0xa],bl
  40a693:	pop    ds
  40a694:	and    BYTE PTR [esi],al
  40a696:	cmp    al,0x9a
  40a698:	add    BYTE PTR [eax],al
  40a69a:	add    BYTE PTR [esi],dl
  40a69c:	add    al,0x2f
  40a69e:	pop    edi
  40a69f:	adc    al,BYTE PTR [edx+eax*1]
  40a6a2:	add    eax,DWORD PTR ds:0x9a28
  40a6a8:	push   es
  40a6a9:	es add al,0x18
  40a6ac:	pop    ebx
  40a6ad:	adc    BYTE PTR [edx],al
  40a6af:	add    al,0x18
  40a6b1:	pop    ebx
  40a6b2:	add    al,0x58
  40a6b4:	adc    BYTE PTR [edx],al
  40a6b6:	adc    al,BYTE PTR [edx+ecx*2]
  40a6b9:	add    bl,BYTE PTR [ecx+0x1f]
  40a6bc:	sbb    BYTE PTR [ebx+0x3],bl
  40a6bf:	adc    al,BYTE PTR [edx+ebx*1]
  40a6c2:	pop    eax
  40a6c3:	dec    edx
  40a6c4:	pop    ecx
  40a6c5:	pop    ds
  40a6c6:	sbb    BYTE PTR [ebx+0x2f],bl
  40a6c9:	adc    al,0x2
  40a6cb:	adc    al,BYTE PTR [edx+ecx*2]
  40a6ce:	add    al,0x5
  40a6d0:	sub    BYTE PTR [ecx+0x12060000],bl
  40a6d6:	add    al,0x1a
  40a6d8:	pop    eax
  40a6d9:	dec    edx
  40a6da:	adc    BYTE PTR [eax],al
  40a6dc:	sub    edx,DWORD PTR [edx]
  40a6de:	adc    al,BYTE PTR [edx+ebx*1]
  40a6e1:	pop    eax
  40a6e2:	dec    edx
  40a6e3:	add    eax,DWORD PTR [eax*1+0x9928]
  40a6ea:	push   es
  40a6eb:	adc    al,BYTE PTR [edx+ecx*2]
  40a6ee:	adc    BYTE PTR [ecx],al
  40a6f0:	add    eax,DWORD PTR [edx]
  40a6f2:	pop    ecx
  40a6f3:	pop    ds
  40a6f4:	sbb    BYTE PTR [ebx+0xa],bl
  40a6f7:	pop    ds
  40a6f8:	and    BYTE PTR [esi],al
  40a6fa:	xor    bl,BYTE PTR [edi+0x201f372b]
  40a700:	push   es
  40a701:	das    
  40a702:	xor    al,BYTE PTR [edx]
  40a704:	add    eax,DWORD PTR ds:0x9b28
  40a70a:	push   es
  40a70b:	add    ecx,DWORD PTR [ebx+eax*1]
  40a70e:	add    bl,BYTE PTR [ecx+0xd]
  40a711:	sbb    BYTE PTR [ecx],cl
  40a713:	pop    ds
  40a714:	sbb    BYTE PTR [ebx+0x30],bl
  40a717:	sub    DWORD PTR [ecx],ecx
  40a719:	or     eax,DWORD PTR [edx]
  40a71b:	or     BYTE PTR ds:0x9f28,al
  40a721:	push   es
  40a722:	or     BYTE PTR [edi],bl
  40a724:	sbb    BYTE PTR [ecx+0xc],bl
  40a727:	pop    es
  40a728:	pop    ds
  40a729:	sbb    BYTE PTR [ecx+0xb],bl
  40a72c:	sbb    BYTE PTR [edi],al
  40a72e:	pop    ds
  40a72f:	sbb    BYTE PTR [ebx+0x31],bl
  40a732:	out    0x2b,eax
  40a734:	or     al,0x18
  40a736:	push   es
  40a737:	xor    BYTE PTR [eax],cl
  40a739:	add    al,BYTE PTR [ebx]
  40a73b:	add    eax,0x9c28
  40a740:	push   es
  40a741:	sub    cl,ah
  40a743:	int3   
  40a744:	or     esi,DWORD PTR [eax]
  40a746:	or     al,BYTE PTR [eax]
  40a748:	test   BYTE PTR [ebx],cl
  40a74a:	add    BYTE PTR [eax],al
  40a74c:	in     al,dx
  40a74d:	add    BYTE PTR [eax],al
  40a74f:	adc    DWORD PTR [edi],ebx
  40a751:	sbb    al,0x28
  40a753:	outs   dx,DWORD PTR ds:[esi]
  40a754:	add    DWORD PTR [eax],eax
  40a756:	push   es
  40a757:	or     al,0x8
  40a759:	sub    al,0x13
  40a75b:	or     BYTE PTR [eax],ch
  40a75d:	xchg   edx,eax
  40a75e:	add    DWORD PTR [eax],eax
  40a760:	push   es
  40a761:	or     BYTE PTR es:[edi-0x56],bh
  40a765:	add    BYTE PTR [eax],al
  40a767:	add    al,0x54
  40a769:	or     BYTE PTR [ebx],dl
  40a76b:	adc    esi,ebx
  40a76d:	push   cs
  40a76e:	push   ss
  40a76f:	adc    edx,DWORD PTR [ecx]
  40a771:	fimul  WORD PTR [ecx]
  40a773:	or     BYTE PTR [edi],bl
  40a775:	sbb    al,0x28
  40a777:	ins    DWORD PTR es:[edi],dx
  40a778:	add    DWORD PTR [eax],eax
  40a77a:	push   es
  40a77b:	fadd   QWORD PTR [edx]
  40a77d:	adc    DWORD PTR [ecx],edx
  40a77f:	jge    0x40a79d
  40a781:	add    DWORD PTR [eax],eax
  40a783:	add    al,0x12
  40a785:	push   edi
  40a786:	sub    BYTE PTR [ecx+0x13060001],dl
  40a78c:	das    
  40a78d:	adc    dl,BYTE PTR [esi+0x11]
  40a790:	das    
  40a791:	jg     0x40a804
  40a793:	add    BYTE PTR [eax],al
  40a795:	add    al,0x28
  40a797:	xchg   edi,eax
  40a798:	add    BYTE PTR [eax],al
  40a79a:	push   es
  40a79b:	fimul  WORD PTR es:[esi]
  40a79e:	inc    BYTE PTR [esi]
  40a7a0:	push   ebp
  40a7a1:	add    BYTE PTR [eax],al
  40a7a3:	push   es
  40a7a4:	adc    dl,BYTE PTR [edi+0x28]
  40a7a7:	jmp    0x1200:0xdc060000
  40a7ae:	push   edi
  40a7af:	pop    ss
  40a7b0:	push   ss
  40a7b1:	sub    BYTE PTR [ebp+0x0],ah
  40a7b4:	add    BYTE PTR [esi],al
  40a7b6:	fimul  WORD PTR [esi]
  40a7b8:	inc    BYTE PTR [esi]
  40a7ba:	pop    ebx
  40a7bb:	add    BYTE PTR [eax],al
  40a7bd:	push   es
  40a7be:	adc    dl,BYTE PTR [edi+0x28]
  40a7c1:	jmp    0x897f:0xdc060000
  40a7c8:	add    BYTE PTR [eax],al
  40a7ca:	add    al,0x13
  40a7cc:	add    eax,0x58170511
  40a7d1:	adc    eax,DWORD PTR ds:0x2d460511
  40a7d7:	cmc    
  40a7d8:	adc    DWORD PTR ds:0x897f,eax
  40a7de:	add    al,0x59
  40a7e0:	adc    ebp,DWORD PTR [esi]
  40a7e2:	adc    dl,BYTE PTR [esi+0x7f]
  40a7e5:	mov    DWORD PTR [eax],eax
  40a7e7:	add    BYTE PTR [ecx+edx*1],al
  40a7ea:	sub    BYTE PTR cs:[eax+0x0],ch
  40a7ee:	add    BYTE PTR [esi],al
  40a7f0:	es pop ds
  40a7f2:	adc    BYTE PTR [edx],dl
  40a7f4:	push   esi
  40a7f5:	pop    ds
  40a7f6:	adc    al,0x58
  40a7f8:	dec    edx
  40a7f9:	ss add al,0x12
  40a7fc:	push   esi
  40a7fd:	sub    eax,DWORD PTR [ebx]
  40a7ff:	adc    dl,BYTE PTR [esi+0x4a]
  40a802:	adc    ebp,DWORD PTR ds:0x8b7f
  40a808:	add    al,0x7f
  40a80a:	mov    al,BYTE PTR [eax]
  40a80c:	add    BYTE PTR [edi+edi*2],al
  40a80f:	jo     0x40a811
  40a811:	add    BYTE PTR [edx+edx*1],al
  40a814:	push   ebp
  40a815:	and    BYTE PTR [eax],al
  40a817:	add    al,0x0
  40a819:	add    BYTE PTR [ecx],dl
  40a81b:	sub    eax,0x19328
  40a820:	push   es
  40a821:	adc    dl,BYTE PTR es:[edx+edx*1+0x55]
  40a826:	sub    BYTE PTR [eax+0x26060001],dl
  40a82c:	pop    ds
  40a82d:	adc    BYTE PTR [edx],dl
  40a82f:	push   esi
  40a830:	pop    ds
  40a831:	adc    al,0x58
  40a833:	dec    edx
  40a834:	ss add al,0x12
  40a837:	push   esi
  40a838:	sub    eax,DWORD PTR [ebx]
  40a83a:	adc    dl,BYTE PTR [esi+0x4a]
  40a83d:	adc    ebp,DWORD PTR [edi+edi*2]
  40a840:	mov    eax,DWORD PTR [eax]
  40a842:	add    BYTE PTR [edi+edi*2],al
  40a845:	mov    WORD PTR [eax],es
  40a847:	add    BYTE PTR [edi+edi*2],al
  40a84a:	jo     0x40a84c
  40a84c:	add    BYTE PTR [edx+edx*1],al
  40a84f:	push   ebp
  40a850:	and    BYTE PTR [eax],al
  40a852:	add    al,0x0
  40a854:	add    BYTE PTR [ecx],dl
  40a856:	sub    al,0x28
  40a858:	xchg   ebx,eax
  40a859:	add    DWORD PTR [eax],eax
  40a85b:	push   es
  40a85c:	adc    dl,BYTE PTR es:[ebx+0x16]
  40a860:	push   esp
  40a861:	adc    dl,BYTE PTR [ebx+0x1a]
  40a864:	pop    eax
  40a865:	push   ss
  40a866:	push   esp
  40a867:	adc    dl,BYTE PTR [ebx+0x1e]
  40a86a:	pop    eax
  40a86b:	push   ss
  40a86c:	push   esp
  40a86d:	adc    dl,BYTE PTR [edx+0x12]
  40a870:	push   ebp
  40a871:	sub    BYTE PTR [edi+0x0],dl
  40a874:	add    BYTE PTR [esi],al
  40a876:	adc    dl,BYTE PTR es:[edx+0x12]
  40a87a:	push   ebx
  40a87b:	sub    BYTE PTR [edi-0x21f9ffff],cl
  40a881:	push   cs
  40a882:	inc    BYTE PTR [esi]
  40a884:	push   ebp
  40a885:	add    BYTE PTR [eax],al
  40a887:	push   es
  40a888:	adc    dl,BYTE PTR [edx+0x28]
  40a88b:	jmp    0x1200:0xdc060000
  40a892:	push   edx
  40a893:	pop    ss
  40a894:	push   ss
  40a895:	sub    BYTE PTR [ebp+0x0],ah
  40a898:	add    BYTE PTR [esi],al
  40a89a:	fimul  WORD PTR [esi]
  40a89c:	inc    BYTE PTR [esi]
  40a89e:	pop    ebx
  40a89f:	add    BYTE PTR [eax],al
  40a8a1:	push   es
  40a8a2:	adc    dl,BYTE PTR [edx+0x28]
  40a8a5:	jmp    0x5112:0xdc060000
  40a8ac:	adc    dl,BYTE PTR [edi+edi*2-0x73]
  40a8b0:	add    BYTE PTR [eax],al
  40a8b2:	add    al,0x28
  40a8b4:	xchg   esi,eax
  40a8b5:	add    BYTE PTR [eax],al
  40a8b7:	push   es
  40a8b8:	adc    ebp,DWORD PTR [ebx]
  40a8ba:	add    bh,BYTE PTR [ebx+0x1c]
  40a8bd:	add    DWORD PTR [eax],eax
  40a8bf:	add    al,0x17
  40a8c1:	adc    DWORD PTR [ebx],ebp
  40a8c3:	push   ss
  40a8c4:	push   ss
  40a8c5:	push   ss
  40a8c6:	push   ss
  40a8c7:	sub    BYTE PTR [esi+0x26060001],cl
  40a8cd:	fimul  WORD PTR [esi]
  40a8cf:	inc    BYTE PTR [esi]
  40a8d1:	push   ebp
  40a8d2:	add    BYTE PTR [eax],al
  40a8d4:	push   es
  40a8d5:	adc    dl,BYTE PTR [ecx+0x28]
  40a8d8:	jmp    0x1200:0xdc060000
  40a8df:	push   ecx
  40a8e0:	pop    ss
  40a8e1:	push   ss
  40a8e2:	sub    BYTE PTR [ebp+0x0],ah
  40a8e5:	add    BYTE PTR [esi],al
  40a8e7:	fimul  WORD PTR [esi]
  40a8e9:	inc    BYTE PTR [esi]
  40a8eb:	pop    ebx
  40a8ec:	add    BYTE PTR [eax],al
  40a8ee:	push   es
  40a8ef:	adc    dl,BYTE PTR [ecx+0x28]
  40a8f2:	jmp    0x5012:0xdc060000
  40a8f9:	adc    dl,BYTE PTR [edi+edi*2-0x72]
  40a8fd:	add    BYTE PTR [eax],al
  40a8ff:	add    al,0x28
  40a901:	xchg   esi,eax
  40a902:	add    BYTE PTR [eax],al
  40a904:	push   es
  40a905:	adc    ebp,DWORD PTR [edx]
  40a907:	add    bh,BYTE PTR [ebx+0x1c]
  40a90a:	add    DWORD PTR [eax],eax
  40a90c:	add    al,0x17
  40a90e:	adc    DWORD PTR [edx],ebp
  40a910:	push   ss
  40a911:	push   ss
  40a912:	pop    ss
  40a913:	pop    ss
  40a914:	sub    BYTE PTR [esi+0x26060001],cl
  40a91a:	fimul  WORD PTR [esi]
  40a91c:	inc    BYTE PTR [esi]
  40a91e:	push   ebp
  40a91f:	add    BYTE PTR [eax],al
  40a921:	push   es
  40a922:	adc    dl,BYTE PTR [eax+0x28]
  40a925:	jmp    0x1200:0xdc060000
  40a92c:	push   eax
  40a92d:	pop    ss
  40a92e:	push   ss
  40a92f:	sub    BYTE PTR [ebp+0x0],ah
  40a932:	add    BYTE PTR [esi],al
  40a934:	fimul  WORD PTR [esi]
  40a936:	inc    BYTE PTR [esi]
  40a938:	pop    ebx
  40a939:	add    BYTE PTR [eax],al
  40a93b:	push   es
  40a93c:	adc    dl,BYTE PTR [eax+0x28]
  40a93f:	jmp    0x4f12:0xdc060000
  40a946:	adc    dl,BYTE PTR [edi+edi*2-0x72]
  40a94a:	add    BYTE PTR [eax],al
  40a94c:	add    al,0x28
  40a94e:	xchg   esi,eax
  40a94f:	add    BYTE PTR [eax],al
  40a951:	push   es
  40a952:	adc    ebp,DWORD PTR [ecx]
  40a954:	add    bh,BYTE PTR [ebx+0x1c]
  40a957:	add    DWORD PTR [eax],eax
  40a959:	add    al,0x17
  40a95b:	adc    DWORD PTR [ecx],ebp
  40a95d:	jg     0x40a8ee
  40a95f:	add    BYTE PTR [eax],al
  40a961:	add    al,0x16
  40a963:	pop    ss
  40a964:	pop    ss
  40a965:	sub    BYTE PTR [esi+0x26060001],cl
  40a96b:	fimul  WORD PTR [esi]
  40a96d:	inc    BYTE PTR [esi]
  40a96f:	push   ebp
  40a970:	add    BYTE PTR [eax],al
  40a972:	push   es
  40a973:	adc    cl,BYTE PTR [edi+0x28]
  40a976:	jmp    0x1200:0xdc060000
  40a97d:	dec    edi
  40a97e:	pop    ss
  40a97f:	push   ss
  40a980:	sub    BYTE PTR [ebp+0x0],ah
  40a983:	add    BYTE PTR [esi],al
  40a985:	fimul  WORD PTR [esi]
  40a987:	inc    BYTE PTR [esi]
  40a989:	pop    ebx
  40a98a:	add    BYTE PTR [eax],al
  40a98c:	push   es
  40a98d:	adc    cl,BYTE PTR [edi+0x28]
  40a990:	jmp    0x4e12:0xdc060000
  40a997:	adc    dl,BYTE PTR [edi+edi*2-0x70]
  40a99b:	add    BYTE PTR [eax],al
  40a99d:	add    al,0x28
  40a99f:	xchg   esi,eax
  40a9a0:	add    BYTE PTR [eax],al
  40a9a2:	push   es
  40a9a3:	adc    ebp,DWORD PTR [eax]
  40a9a5:	add    bh,BYTE PTR [ebx+0x1c]
  40a9a8:	add    DWORD PTR [eax],eax
  40a9aa:	add    al,0x17
  40a9ac:	adc    DWORD PTR [eax],ebp
  40a9ae:	push   ss
  40a9af:	push   ss
  40a9b0:	pop    ss
  40a9b1:	pop    ss
  40a9b2:	sub    BYTE PTR [esi+0x26060001],cl
  40a9b8:	fimul  WORD PTR [esi]
  40a9ba:	inc    BYTE PTR [esi]
  40a9bc:	push   ebp
  40a9bd:	add    BYTE PTR [eax],al
  40a9bf:	push   es
  40a9c0:	adc    cl,BYTE PTR [esi+0x28]
  40a9c3:	jmp    0x1200:0xdc060000
  40a9ca:	dec    esi
  40a9cb:	pop    ss
  40a9cc:	push   ss
  40a9cd:	sub    BYTE PTR [ebp+0x0],ah
  40a9d0:	add    BYTE PTR [esi],al
  40a9d2:	fimul  WORD PTR [esi]
  40a9d4:	inc    BYTE PTR [esi]
  40a9d6:	pop    ebx
  40a9d7:	add    BYTE PTR [eax],al
  40a9d9:	push   es
  40a9da:	adc    cl,BYTE PTR [esi+0x28]
  40a9dd:	jmp    0x4d12:0xdc060000
  40a9e4:	adc    dl,BYTE PTR [edi+edi*2-0x6f]
  40a9e8:	add    BYTE PTR [eax],al
  40a9ea:	add    al,0x28
  40a9ec:	xchg   esi,eax
  40a9ed:	add    BYTE PTR [eax],al
  40a9ef:	push   es
  40a9f0:	adc    esp,DWORD PTR [edi]
  40a9f2:	add    bh,BYTE PTR [ebx+0x1c]
  40a9f5:	add    DWORD PTR [eax],eax
  40a9f7:	add    al,0x17
  40a9f9:	adc    DWORD PTR [edi],esp
  40a9fb:	push   ss
  40a9fc:	push   ss
  40a9fd:	pop    ss
  40a9fe:	pop    ss
  40a9ff:	sub    BYTE PTR [esi+0x26060001],cl
  40aa05:	fimul  WORD PTR [esi]
  40aa07:	inc    BYTE PTR [esi]
  40aa09:	push   ebp
  40aa0a:	add    BYTE PTR [eax],al
  40aa0c:	push   es
  40aa0d:	adc    cl,BYTE PTR [ebp+0x28]
  40aa10:	jmp    0x1200:0xdc060000
  40aa17:	dec    ebp
  40aa18:	pop    ss
  40aa19:	push   ss
  40aa1a:	sub    BYTE PTR [ebp+0x0],ah
  40aa1d:	add    BYTE PTR [esi],al
  40aa1f:	fimul  WORD PTR [esi]
  40aa21:	inc    BYTE PTR [esi]
  40aa23:	pop    ebx
  40aa24:	add    BYTE PTR [eax],al
  40aa26:	push   es
  40aa27:	adc    cl,BYTE PTR [ebp+0x28]
  40aa2a:	jmp    0x1316:0xdc060000
  40aa31:	or     edx,DWORD PTR [esi]
  40aa33:	adc    dl,BYTE PTR [ebx+0x1a]
  40aa36:	pop    eax
  40aa37:	dec    edx
  40aa38:	adc    dl,BYTE PTR [ebx+0x4a]
  40aa3b:	pop    ecx
  40aa3c:	pop    ds
  40aa3d:	sbb    BYTE PTR [ebx+0x41],bl
  40aa40:	les    eax,FWORD PTR [ecx]
  40aa42:	add    BYTE PTR [eax],al
  40aa44:	push   ss
  40aa45:	or     al,BYTE PTR [esi]
  40aa47:	adc    dl,BYTE PTR [ebx+0x4a]
  40aa4a:	pop    eax
  40aa4b:	adc    esp,DWORD PTR [esi]
  40aa4d:	adc    cl,BYTE PTR [ecx+edx*1+0x26]
  40aa51:	jg     0x40a9e0
  40aa53:	add    BYTE PTR [eax],al
  40aa55:	add    al,0x28
  40aa57:	xchg   esi,eax
  40aa58:	add    BYTE PTR [eax],al
  40aa5a:	push   es
  40aa5b:	adc    esp,DWORD PTR ds:0x11c7b02
  40aa61:	add    BYTE PTR [edi+edx*1],al
  40aa64:	adc    DWORD PTR ds:0x16161616,esp
  40aa6a:	sub    BYTE PTR [esi+0x26060001],cl
  40aa70:	fimul  WORD PTR [esi]
  40aa72:	inc    BYTE PTR [esi]
  40aa74:	push   ebp
  40aa75:	add    BYTE PTR [eax],al
  40aa77:	push   es
  40aa78:	adc    cl,BYTE PTR [eax+ebp*1-0x16]
  40aa7c:	add    BYTE PTR [eax],al
  40aa7e:	push   es
  40aa7f:	fadd   QWORD PTR [eax]
  40aa81:	adc    cl,BYTE PTR [edi+edx*1+0x16]
  40aa85:	sub    BYTE PTR [ebp+0x0],ah
  40aa88:	add    BYTE PTR [esi],al
  40aa8a:	fimul  WORD PTR [esi]
  40aa8c:	inc    BYTE PTR [esi]
  40aa8e:	pop    ebx
  40aa8f:	add    BYTE PTR [eax],al
  40aa91:	push   es
  40aa92:	adc    cl,BYTE PTR [eax+ebp*1-0x16]
  40aa96:	add    BYTE PTR [eax],al
  40aa98:	push   es
  40aa99:	fadd   QWORD PTR [esi]
  40aa9b:	adc    dl,BYTE PTR [ebx+0x4a]
  40aa9e:	pop    eax
  40aa9f:	adc    esp,DWORD PTR [edx+edx*1]
  40aaa2:	dec    ebx
  40aaa3:	adc    DWORD PTR [edi+edi*2],esp
  40aaa6:	mov    es,WORD PTR [eax]
  40aaa8:	add    BYTE PTR [eax+ebp*1],al
  40aaab:	xchg   esi,eax
  40aaac:	add    BYTE PTR [eax],al
  40aaae:	push   es
  40aaaf:	adc    esp,DWORD PTR [ebx]
  40aab1:	add    bh,BYTE PTR [ebx+0x1c]
  40aab4:	add    DWORD PTR [eax],eax
  40aab6:	add    al,0x17
  40aab8:	adc    DWORD PTR [ebx],esp
  40aaba:	push   ss
  40aabb:	push   ss
  40aabc:	pop    ss
  40aabd:	pop    ss
  40aabe:	sub    BYTE PTR [esi+0x26060001],cl
  40aac4:	fimul  WORD PTR [esi]
  40aac6:	inc    BYTE PTR [esi]
  40aac8:	push   ebp
  40aac9:	add    BYTE PTR [eax],al
  40aacb:	push   es
  40aacc:	adc    cl,BYTE PTR [ebx+0x28]
  40aacf:	jmp    0x1200:0xdc060000
  40aad6:	dec    ebx
  40aad7:	pop    ss
  40aad8:	push   ss
  40aad9:	sub    BYTE PTR [ebp+0x0],ah
  40aadc:	add    BYTE PTR [esi],al
  40aade:	fimul  WORD PTR [esi]
  40aae0:	inc    BYTE PTR [esi]
  40aae2:	pop    ebx
  40aae3:	add    BYTE PTR [eax],al
  40aae5:	push   es
  40aae6:	adc    cl,BYTE PTR [ebx+0x28]
  40aae9:	jmp    0x1206:0xdc060000
  40aaf0:	push   ebx
  40aaf1:	dec    edx
  40aaf2:	pop    eax
  40aaf3:	adc    esp,DWORD PTR [edx]
  40aaf5:	adc    cl,BYTE PTR [edx+0x11]
  40aaf8:	and    bh,BYTE PTR [edi-0x70]
  40aafb:	add    BYTE PTR [eax],al
  40aafd:	add    al,0x28
  40aaff:	xchg   esi,eax
  40ab00:	add    BYTE PTR [eax],al
  40ab02:	push   es
  40ab03:	adc    esp,DWORD PTR [ecx]
  40ab05:	add    bh,BYTE PTR [ebx+0x1c]
  40ab08:	add    DWORD PTR [eax],eax
  40ab0a:	add    al,0x17
  40ab0c:	adc    DWORD PTR [ecx],esp
  40ab0e:	push   ss
  40ab0f:	push   ss
  40ab10:	pop    ss
  40ab11:	pop    ss
  40ab12:	sub    BYTE PTR [esi+0x26060001],cl
  40ab18:	fimul  WORD PTR [esi]
  40ab1a:	inc    BYTE PTR [esi]
  40ab1c:	push   ebp
  40ab1d:	add    BYTE PTR [eax],al
  40ab1f:	push   es
  40ab20:	adc    cl,BYTE PTR [edx+0x28]
  40ab23:	jmp    0x1200:0xdc060000
  40ab2a:	dec    edx
  40ab2b:	pop    ss
  40ab2c:	push   ss
  40ab2d:	sub    BYTE PTR [ebp+0x0],ah
  40ab30:	add    BYTE PTR [esi],al
  40ab32:	fimul  WORD PTR [esi]
  40ab34:	inc    BYTE PTR [esi]
  40ab36:	pop    ebx
  40ab37:	add    BYTE PTR [eax],al
  40ab39:	push   es
  40ab3a:	adc    cl,BYTE PTR [edx+0x28]
  40ab3d:	jmp    0x1206:0xdc060000
  40ab44:	push   ebx
  40ab45:	dec    edx
  40ab46:	pop    eax
  40ab47:	adc    esp,DWORD PTR [eax]
  40ab49:	adc    cl,BYTE PTR [ecx+0x11]
  40ab4c:	and    BYTE PTR [edi-0x6e],bh
  40ab4f:	add    BYTE PTR [eax],al
  40ab51:	add    al,0x28
  40ab53:	xchg   esi,eax
  40ab54:	add    BYTE PTR [eax],al
  40ab56:	push   es
  40ab57:	adc    ebx,DWORD PTR [edi]
  40ab59:	add    bh,BYTE PTR [ebx+0x1c]
  40ab5c:	add    DWORD PTR [eax],eax
  40ab5e:	add    al,0x17
  40ab60:	adc    DWORD PTR [edi],ebx
  40ab62:	push   ss
  40ab63:	push   ss
  40ab64:	pop    ss
  40ab65:	pop    ss
  40ab66:	sub    BYTE PTR [esi+0x26060001],cl
  40ab6c:	fimul  WORD PTR [esi]
  40ab6e:	inc    BYTE PTR [esi]
  40ab70:	push   ebp
  40ab71:	add    BYTE PTR [eax],al
  40ab73:	push   es
  40ab74:	adc    cl,BYTE PTR [ecx+0x28]
  40ab77:	jmp    0x1200:0xdc060000
  40ab7e:	dec    ecx
  40ab7f:	pop    ss
  40ab80:	push   ss
  40ab81:	sub    BYTE PTR [ebp+0x0],ah
  40ab84:	add    BYTE PTR [esi],al
  40ab86:	fimul  WORD PTR [esi]
  40ab88:	inc    BYTE PTR [esi]
  40ab8a:	pop    ebx
  40ab8b:	add    BYTE PTR [eax],al
  40ab8d:	push   es
  40ab8e:	adc    cl,BYTE PTR [ecx+0x28]
  40ab91:	jmp    0x1206:0xdc060000
  40ab98:	push   ebx
  40ab99:	dec    edx
  40ab9a:	pop    eax
  40ab9b:	adc    ebx,DWORD PTR [esi]
  40ab9d:	adc    cl,BYTE PTR [eax+0x11]
  40aba0:	push   ds
  40aba1:	jg     0x40ab34
  40aba3:	add    BYTE PTR [eax],al
  40aba5:	add    al,0x28
  40aba7:	xchg   esi,eax
  40aba8:	add    BYTE PTR [eax],al
  40abaa:	push   es
  40abab:	adc    ebx,DWORD PTR ds:0x11c7b02
  40abb1:	add    BYTE PTR [edi+edx*1],al
  40abb4:	adc    DWORD PTR ds:0x17171616,ebx
  40abba:	sub    BYTE PTR [esi+0x26060001],cl
  40abc0:	fimul  WORD PTR [esi]
  40abc2:	inc    BYTE PTR [esi]
  40abc4:	push   ebp
  40abc5:	add    BYTE PTR [eax],al
  40abc7:	push   es
  40abc8:	adc    cl,BYTE PTR [eax+0x28]
  40abcb:	jmp    0x1200:0xdc060000
  40abd2:	dec    eax
  40abd3:	pop    ss
  40abd4:	push   ss
  40abd5:	sub    BYTE PTR [ebp+0x0],ah
  40abd8:	add    BYTE PTR [esi],al
  40abda:	fimul  WORD PTR [esi]
  40abdc:	inc    BYTE PTR [esi]
  40abde:	pop    ebx
  40abdf:	add    BYTE PTR [eax],al
  40abe1:	push   es
  40abe2:	adc    cl,BYTE PTR [eax+0x28]
  40abe5:	jmp    0xb11:0xdc060000
  40abec:	pop    ss
  40abed:	pop    eax
  40abee:	adc    ecx,DWORD PTR [ebx]
  40abf0:	push   es
  40abf1:	pop    ds
  40abf2:	sbb    BYTE PTR [eax+0xa],bl
  40abf5:	adc    DWORD PTR [ebx],ecx
  40abf7:	adc    dl,BYTE PTR [ebx+0x1a]
  40abfa:	pop    eax
  40abfb:	dec    edx
  40abfc:	adc    dl,BYTE PTR [ebx+0x4a]
  40abff:	pop    ecx
  40ac00:	pop    ds
  40ac01:	sbb    BYTE PTR [ebx+0x44],bl
  40ac04:	ds (bad) 
  40ac06:	(bad)  
  40ac07:	call   DWORD PTR [edx]
  40ac09:	inc    edi
  40ac0a:	sub    BYTE PTR [ebp+0x26060001],cl
  40ac10:	jg     0x40aba5
  40ac12:	add    BYTE PTR [eax],al
  40ac14:	add    al,0x13
  40ac16:	add    al,0x11
  40ac18:	add    al,0x17
  40ac1a:	pop    eax
  40ac1b:	adc    eax,DWORD PTR [ecx+edx*1]
  40ac1e:	add    al,0x46
  40ac20:	sub    eax,0x7f0411f5
  40ac25:	xchg   ebx,eax
  40ac26:	add    BYTE PTR [eax],al
  40ac28:	add    al,0x59
  40ac2a:	adc    ebx,DWORD PTR [edx+edx*1]
  40ac2d:	inc    edi
  40ac2e:	jg     0x40abc3
  40ac30:	add    BYTE PTR [eax],al
  40ac32:	add    al,0x11
  40ac34:	sbb    al,0x28
  40ac36:	push   edx
  40ac37:	add    BYTE PTR [eax],al
  40ac39:	push   es
  40ac3a:	adc    al,BYTE PTR es:[edi+0x1f]
  40ac3e:	sbb    BYTE PTR [eax+0x20],bl
  40ac41:	add    BYTE PTR [eax+eax*1],al
  40ac44:	add    BYTE PTR [edx+edx*1+0x47],dl
  40ac48:	pop    ds
  40ac49:	sbb    al,0x58
  40ac4b:	and    BYTE PTR [eax],al
  40ac4d:	add    eax,DWORD PTR [eax]
  40ac4f:	add    BYTE PTR [edx+edx*1+0x47],dl
  40ac53:	pop    ds
  40ac54:	and    BYTE PTR [eax+0x16],bl
  40ac57:	push   edx
  40ac58:	adc    al,BYTE PTR [edi+0x1f]
  40ac5b:	and    DWORD PTR [eax+0x16],ebx
  40ac5e:	push   edx
  40ac5f:	adc    al,BYTE PTR [edi+0x1f]
  40ac62:	and    al,0x58
  40ac64:	push   ss
  40ac65:	push   edx
  40ac66:	and    BYTE PTR [ecx+ecx*1+0x0],ch
  40ac6a:	add    BYTE PTR [eax],ch
  40ac6c:	outs   dx,DWORD PTR ds:[esi]
  40ac6d:	add    DWORD PTR [eax],eax
  40ac6f:	push   es
  40ac70:	or     eax,DWORD PTR [edi]
  40ac72:	sub    al,0x13
  40ac74:	pop    es
  40ac75:	sub    BYTE PTR [ecx+eax*1+0x7260600],cl
  40ac7c:	jg     0x40ac27
  40ac7e:	add    BYTE PTR [eax],al
  40ac80:	add    al,0x54
  40ac82:	pop    es
  40ac83:	adc    edx,DWORD PTR [eax]
  40ac85:	ficom  WORD PTR [ecx]
  40ac87:	push   ss
  40ac88:	adc    edx,DWORD PTR [eax]
  40ac8a:	fimul  WORD PTR [edi+eax*1]
  40ac8d:	and    BYTE PTR [ecx+ecx*1+0x0],ch
  40ac91:	add    BYTE PTR [eax],ch
  40ac93:	ins    DWORD PTR es:[edi],dx
  40ac94:	add    DWORD PTR [eax],eax
  40ac96:	push   es
  40ac97:	fdivr  QWORD PTR [esi+0xa]
  40ac9a:	add    DWORD PTR [eax],eax
  40ac9c:	add    al,0x11
  40ac9e:	adc    BYTE PTR [edx+edx*1+0x46],dl
  40aca2:	sub    BYTE PTR [ecx+0x13060001],dl
  40aca8:	sbb    edx,DWORD PTR [edx]
  40acaa:	inc    ebp
  40acab:	adc    DWORD PTR [ebx],ebx
  40acad:	jg     0x40ad20
  40acaf:	add    BYTE PTR [eax],al
  40acb1:	add    al,0x28
  40acb3:	xchg   edi,eax
  40acb4:	add    BYTE PTR [eax],al
  40acb6:	push   es
  40acb7:	fimul  WORD PTR es:[esi]
  40acba:	inc    BYTE PTR [esi]
  40acbc:	push   ebp
  40acbd:	add    BYTE PTR [eax],al
  40acbf:	push   es
  40acc0:	adc    al,BYTE PTR [esi+0x28]
  40acc3:	jmp    0x1200:0xdc060000
  40acca:	inc    esi
  40accb:	pop    ss
  40accc:	push   ss
  40accd:	sub    BYTE PTR [ebp+0x0],ah
  40acd0:	add    BYTE PTR [esi],al
  40acd2:	fimul  WORD PTR [esi]
  40acd4:	inc    BYTE PTR [esi]
  40acd6:	pop    ebx
  40acd7:	add    BYTE PTR [eax],al
  40acd9:	push   es
  40acda:	adc    al,BYTE PTR [esi+0x28]
  40acdd:	jmp    0x947f:0xdc060000
  40ace4:	add    BYTE PTR [eax],al
  40ace6:	add    al,0xd
  40ace8:	or     DWORD PTR [edi],edx
  40acea:	pop    eax
  40aceb:	or     eax,0xf82d4609
  40acf0:	or     DWORD PTR [edi-0x6c],edi
  40acf3:	add    BYTE PTR [eax],al
  40acf5:	add    al,0x59
  40acf7:	adc    ebx,DWORD PTR [edx]
  40acf9:	adc    al,BYTE PTR [ebp+0x7f]
  40acfc:	xchg   esp,eax
  40acfd:	add    BYTE PTR [eax],al
  40acff:	add    al,0x11
  40ad01:	sbb    ch,BYTE PTR [eax]
  40ad03:	push   0x26060000
  40ad08:	jle    0x40ad14
  40ad0a:	add    DWORD PTR [eax],eax
  40ad0c:	add    al,0x4a
  40ad0e:	adc    dl,BYTE PTR [eax+ebp*1+0x75]
  40ad12:	add    DWORD PTR [eax],eax
  40ad14:	push   es
  40ad15:	adc    al,BYTE PTR [esi+edi*2+0xa]
  40ad19:	add    DWORD PTR [eax],eax
  40ad1b:	add    al,0x4a
  40ad1d:	sub    BYTE PTR [ebx+0x1],bh
  40ad20:	add    BYTE PTR [esi],al
  40ad22:	jg     0x40acb9
  40ad24:	add    BYTE PTR [eax],al
  40ad26:	add    al,0x28
  40ad28:	xchg   esi,eax
  40ad29:	add    BYTE PTR [eax],al
  40ad2b:	push   es
  40ad2c:	adc    ebx,DWORD PTR [ecx]
  40ad2e:	jle    0x40ad3a
  40ad30:	add    DWORD PTR [eax],eax
  40ad32:	add    al,0x4a
  40ad34:	adc    DWORD PTR [ecx],ebx
  40ad36:	sub    BYTE PTR [esi+0x1],dh
  40ad39:	add    BYTE PTR [esi],al
  40ad3b:	fimul  WORD PTR [esi]
  40ad3d:	inc    BYTE PTR [esi]
  40ad3f:	push   ebp
  40ad40:	add    BYTE PTR [eax],al
  40ad42:	push   es
  40ad43:	adc    al,BYTE PTR [eax+ebp*1-0x16]
  40ad47:	add    BYTE PTR [eax],al
  40ad49:	push   es
  40ad4a:	fadd   QWORD PTR [eax]
  40ad4c:	adc    al,BYTE PTR [edi+edx*1+0x16]
  40ad50:	sub    BYTE PTR [ebp+0x0],ah
  40ad53:	add    BYTE PTR [esi],al
  40ad55:	fimul  WORD PTR [esi]
  40ad57:	inc    BYTE PTR [esi]
  40ad59:	pop    ebx
  40ad5a:	add    BYTE PTR [eax],al
  40ad5c:	push   es
  40ad5d:	adc    al,BYTE PTR [eax+ebp*1-0x16]
  40ad61:	add    BYTE PTR [eax],al
  40ad63:	push   es
  40ad64:	fcom   QWORD PTR [edx]
  40ad66:	inc    ebx
  40ad67:	jle    0x40ad73
  40ad69:	add    DWORD PTR [eax],eax
  40ad6b:	add    al,0x4a
  40ad6d:	sub    BYTE PTR [ebx+0x1],bh
  40ad70:	add    BYTE PTR [esi],al
  40ad72:	jg     0x40ad0a
  40ad74:	add    BYTE PTR [eax],al
  40ad76:	add    al,0x28
  40ad78:	xchg   esi,eax
  40ad79:	add    BYTE PTR [eax],al
  40ad7b:	push   es
  40ad7c:	adc    ebx,DWORD PTR [eax]
  40ad7e:	jle    0x40ad8a
  40ad80:	add    DWORD PTR [eax],eax
  40ad82:	add    al,0x4a
  40ad84:	adc    DWORD PTR [eax],ebx
  40ad86:	sub    BYTE PTR [edi+0x1],dh
  40ad89:	add    BYTE PTR [esi],al
  40ad8b:	fimul  WORD PTR [esi]
  40ad8d:	inc    BYTE PTR [esi]
  40ad8f:	push   ebp
  40ad90:	add    BYTE PTR [eax],al
  40ad92:	push   es
  40ad93:	adc    al,BYTE PTR [ebx+0x28]
  40ad96:	jmp    0x1200:0xdc060000
  40ad9d:	inc    ebx
  40ad9e:	pop    ss
  40ad9f:	push   ss
  40ada0:	sub    BYTE PTR [ebp+0x0],ah
  40ada3:	add    BYTE PTR [esi],al
  40ada5:	fimul  WORD PTR [esi]
  40ada7:	inc    BYTE PTR [esi]
  40ada9:	pop    ebx
  40adaa:	add    BYTE PTR [eax],al
  40adac:	push   es
  40adad:	adc    al,BYTE PTR [ebx+0x28]
  40adb0:	jmp    0x4212:0xdc060000
  40adb7:	jg     0x40ad50
  40adb9:	add    BYTE PTR [eax],al
  40adbb:	add    al,0x28
  40adbd:	push   edi
  40adbe:	add    BYTE PTR [eax],al
  40adc0:	push   es
  40adc1:	es jle 0x40adce
  40adc4:	add    DWORD PTR [eax],eax
  40adc6:	add    al,0x4a
  40adc8:	adc    al,BYTE PTR [edx+0x28]
  40adcb:	js     0x40adce
  40adcd:	add    BYTE PTR [esi],al
  40adcf:	fimul  WORD PTR [esi]
  40add1:	inc    BYTE PTR [esi]
  40add3:	push   ebp
  40add4:	add    BYTE PTR [eax],al
  40add6:	push   es
  40add7:	adc    al,BYTE PTR [edx+0x28]
  40adda:	jmp    0x1200:0xdc060000
  40ade1:	inc    edx
  40ade2:	pop    ss
  40ade3:	push   ss
  40ade4:	sub    BYTE PTR [ebp+0x0],ah
  40ade7:	add    BYTE PTR [esi],al
  40ade9:	fimul  WORD PTR [esi]
  40adeb:	inc    BYTE PTR [esi]
  40aded:	pop    ebx
  40adee:	add    BYTE PTR [eax],al
  40adf0:	push   es
  40adf1:	adc    al,BYTE PTR [edx+0x28]
  40adf4:	jmp    0x4112:0xdc060000
  40adfb:	jle    0x40ae07
  40adfd:	add    DWORD PTR [eax],eax
  40adff:	add    al,0x4a
  40ae01:	sub    BYTE PTR [ebx+0x1],bh
  40ae04:	add    BYTE PTR [esi],al
  40ae06:	jg     0x40ada0
  40ae08:	add    BYTE PTR [eax],al
  40ae0a:	add    al,0x28
  40ae0c:	xchg   esi,eax
  40ae0d:	add    BYTE PTR [eax],al
  40ae0f:	push   es
  40ae10:	adc    edx,DWORD PTR [edi]
  40ae12:	jle    0x40ae1e
  40ae14:	add    DWORD PTR [eax],eax
  40ae16:	add    al,0x4a
  40ae18:	adc    DWORD PTR [edi],edx
  40ae1a:	sub    BYTE PTR [ecx+0x1],bh
  40ae1d:	add    BYTE PTR [esi],al
  40ae1f:	fimul  WORD PTR [esi]
  40ae21:	inc    BYTE PTR [esi]
  40ae23:	push   ebp
  40ae24:	add    BYTE PTR [eax],al
  40ae26:	push   es
  40ae27:	adc    al,BYTE PTR [ecx+0x28]
  40ae2a:	jmp    0x1200:0xdc060000
  40ae31:	inc    ecx
  40ae32:	pop    ss
  40ae33:	push   ss
  40ae34:	sub    BYTE PTR [ebp+0x0],ah
  40ae37:	add    BYTE PTR [esi],al
  40ae39:	fimul  WORD PTR [esi]
  40ae3b:	inc    BYTE PTR [esi]
  40ae3d:	pop    ebx
  40ae3e:	add    BYTE PTR [eax],al
  40ae40:	push   es
  40ae41:	adc    al,BYTE PTR [ecx+0x28]
  40ae44:	jmp    0x4012:0xdc060000
  40ae4b:	jle    0x40ae57
  40ae4d:	add    DWORD PTR [eax],eax
  40ae4f:	add    al,0x4a
  40ae51:	sub    BYTE PTR [ebx+0x1],bh
  40ae54:	add    BYTE PTR [esi],al
  40ae56:	jg     0x40adf1
  40ae58:	add    BYTE PTR [eax],al
  40ae5a:	add    al,0x28
  40ae5c:	xchg   esi,eax
  40ae5d:	add    BYTE PTR [eax],al
  40ae5f:	push   es
  40ae60:	adc    edx,DWORD PTR [esi]
  40ae62:	jle    0x40ae6e
  40ae64:	add    DWORD PTR [eax],eax
  40ae66:	add    al,0x4a
  40ae68:	adc    DWORD PTR [esi],edx
  40ae6a:	sub    BYTE PTR [edx+0x1],bh
  40ae6d:	add    BYTE PTR [esi],al
  40ae6f:	fimul  WORD PTR [esi]
  40ae71:	inc    BYTE PTR [esi]
  40ae73:	push   ebp
  40ae74:	add    BYTE PTR [eax],al
  40ae76:	push   es
  40ae77:	adc    al,BYTE PTR [eax+0x28]
  40ae7a:	jmp    0x1200:0xdc060000
  40ae81:	inc    eax
  40ae82:	pop    ss
  40ae83:	push   ss
  40ae84:	sub    BYTE PTR [ebp+0x0],ah
  40ae87:	add    BYTE PTR [esi],al
  40ae89:	fimul  WORD PTR [esi]
  40ae8b:	inc    BYTE PTR [esi]
  40ae8d:	pop    ebx
  40ae8e:	add    BYTE PTR [eax],al
  40ae90:	push   es
  40ae91:	adc    al,BYTE PTR [eax+0x28]
  40ae94:	jmp    0xa7e:0xdc060000
  40ae9b:	add    DWORD PTR [eax],eax
  40ae9d:	add    al,0x4a
  40ae9f:	add    bh,BYTE PTR [ebx+0x1c]
  40aea2:	add    DWORD PTR [eax],eax
  40aea4:	add    al,0x28
  40aea6:	mov    eax,DWORD PTR [ecx]
  40aea8:	add    BYTE PTR [esi],al
  40aeaa:	adc    bh,BYTE PTR [edi]
  40aeac:	sub    BYTE PTR [ecx+0x13060001],dl
  40aeb2:	adc    eax,0x15113e12
  40aeb7:	sub    BYTE PTR [ebp+0x1],bh
  40aeba:	add    BYTE PTR [esi],al
  40aebc:	sub    BYTE PTR [edi+0x13060000],dl
  40aec2:	adc    al,0x12
  40aec4:	cmp    eax,0x9a7f1411
  40aec9:	add    BYTE PTR [eax],al
  40aecb:	add    al,0x28
  40aecd:	xchg   edi,eax
  40aece:	add    BYTE PTR [eax],al
  40aed0:	push   es
  40aed1:	adc    edx,DWORD PTR [ebx]
  40aed3:	jle    0x40aedf
  40aed5:	add    DWORD PTR [eax],eax
  40aed7:	add    al,0x4a
  40aed9:	adc    DWORD PTR [ebx],edx
  40aedb:	sub    BYTE PTR [ecx+0x1],bh
  40aede:	add    BYTE PTR [esi],al
  40aee0:	fimul  WORD PTR [esi]
  40aee2:	inc    BYTE PTR [esi]
  40aee4:	push   ebp
  40aee5:	add    BYTE PTR [eax],al
  40aee7:	push   es
  40aee8:	adc    bh,BYTE PTR ds:0xea28
  40aeee:	push   es
  40aeef:	fadd   QWORD PTR [eax]
  40aef1:	adc    bh,BYTE PTR ds:0x65281617
  40aef7:	add    BYTE PTR [eax],al
  40aef9:	push   es
  40aefa:	fimul  WORD PTR [esi]
  40aefc:	inc    BYTE PTR [esi]
  40aefe:	pop    ebx
  40aeff:	add    BYTE PTR [eax],al
  40af01:	push   es
  40af02:	adc    bh,BYTE PTR ds:0xea28
  40af08:	push   es
  40af09:	(bad)  
  40af0b:	push   cs
  40af0c:	inc    BYTE PTR [esi]
  40af0e:	push   ebp
  40af0f:	add    BYTE PTR [eax],al
  40af11:	push   es
  40af12:	adc    bh,BYTE PTR [esi]
  40af14:	sub    dl,ch
  40af16:	add    BYTE PTR [eax],al
  40af18:	push   es
  40af19:	fadd   QWORD PTR [eax]
  40af1b:	adc    bh,BYTE PTR [esi]
  40af1d:	pop    ss
  40af1e:	push   ss
  40af1f:	sub    BYTE PTR [ebp+0x0],ah
  40af22:	add    BYTE PTR [esi],al
  40af24:	fimul  WORD PTR [esi]
  40af26:	inc    BYTE PTR [esi]
  40af28:	pop    ebx
  40af29:	add    BYTE PTR [eax],al
  40af2b:	push   es
  40af2c:	adc    bh,BYTE PTR [esi]
  40af2e:	sub    dl,ch
  40af30:	add    BYTE PTR [eax],al
  40af32:	push   es
  40af33:	(bad)  
  40af35:	push   cs
  40af36:	inc    BYTE PTR [esi]
  40af38:	push   ebp
  40af39:	add    BYTE PTR [eax],al
  40af3b:	push   es
  40af3c:	adc    bh,BYTE PTR [edi]
  40af3e:	sub    dl,ch
  40af40:	add    BYTE PTR [eax],al
  40af42:	push   es
  40af43:	fadd   QWORD PTR [eax]
  40af45:	adc    bh,BYTE PTR [edi]
  40af47:	pop    ss
  40af48:	push   ss
  40af49:	sub    BYTE PTR [ebp+0x0],ah
  40af4c:	add    BYTE PTR [esi],al
  40af4e:	fimul  WORD PTR [esi]
  40af50:	inc    BYTE PTR [esi]
  40af52:	pop    ebx
  40af53:	add    BYTE PTR [eax],al
  40af55:	push   es
  40af56:	adc    bh,BYTE PTR [edi]
  40af58:	sub    dl,ch
  40af5a:	add    BYTE PTR [eax],al
  40af5c:	push   es
  40af5d:	fdivr  QWORD PTR [esi+0xa]
  40af60:	add    DWORD PTR [eax],eax
  40af62:	add    al,0x4a
  40af64:	sub    BYTE PTR [ecx+0x7e060001],cl
  40af6a:	or     al,BYTE PTR [ecx]
  40af6c:	add    BYTE PTR [edx+ecx*2],al
  40af6f:	sub    BYTE PTR [ecx+eax*1+0x0],bh
  40af73:	push   es
  40af74:	sub    BYTE PTR [edx+0x26060001],cl
  40af7a:	adc    bh,BYTE PTR [edi+edi*2]
  40af7d:	jo     0x40af7f
  40af7f:	add    BYTE PTR [eax+ebp*1],al
  40af82:	push   edi
  40af83:	add    BYTE PTR [eax],al
  40af85:	push   es
  40af86:	add    bh,BYTE PTR es:[ebx+0x28]
  40af8a:	add    DWORD PTR [eax],eax
  40af8c:	add    al,0x6f
  40af8e:	push   eax
  40af8f:	add    BYTE PTR [eax],al
  40af91:	or     dl,BYTE PTR [ebx]
  40af93:	cmp    edi,DWORD PTR [esi+0xa]
  40af96:	add    DWORD PTR [eax],eax
  40af98:	add    al,0x4a
  40af9a:	adc    ecx,DWORD PTR [edi]
  40af9c:	adc    DWORD PTR [edi],ecx
  40af9e:	adc    bh,BYTE PTR [ebx]
  40afa0:	sub    BYTE PTR [ecx+0x0],dl
  40afa3:	add    BYTE PTR [edx],cl
  40afa5:	adc    al,BYTE PTR [edi+0x17]
  40afa8:	add    bh,BYTE PTR [ebx+0x1c]
  40afab:	add    DWORD PTR [eax],eax
  40afad:	add    al,0x12
  40afaf:	cmp    al,0x16
  40afb1:	pop    ss
  40afb2:	adc    DWORD PTR [edi],ecx
  40afb4:	dec    edx
  40afb5:	sbb    bl,BYTE PTR [eax+0x4a]
  40afb8:	sub    DWORD PTR [eax+eax*1+0xede1100],esi
  40afbf:	inc    BYTE PTR [esi]
  40afc1:	push   ebp
  40afc2:	add    BYTE PTR [eax],al
  40afc4:	push   es
  40afc5:	adc    bh,BYTE PTR [eax+ebp*1]
  40afc8:	jmp    0x1200:0xdc060000
  40afcf:	cmp    al,0x17
  40afd1:	push   ss
  40afd2:	sub    BYTE PTR [ebp+0x0],ah
  40afd5:	add    BYTE PTR [esi],al
  40afd7:	fimul  WORD PTR [esi]
  40afd9:	inc    BYTE PTR [esi]
  40afdb:	pop    ebx
  40afdc:	add    BYTE PTR [eax],al
  40afde:	push   es
  40afdf:	adc    bh,BYTE PTR [eax+ebp*1]
  40afe2:	jmp    0xa7e:0xdc060000
  40afe9:	add    DWORD PTR [eax],eax
  40afeb:	add    al,0x4a
  40afed:	adc    dl,BYTE PTR [ebx+0x28]
  40aff0:	mov    BYTE PTR [ecx],al
  40aff2:	add    BYTE PTR [esi],al
  40aff4:	jg     0x40af91
  40aff6:	add    BYTE PTR [eax],al
  40aff8:	add    al,0x28
  40affa:	xchg   DWORD PTR [ecx],eax
  40affc:	add    BYTE PTR [esi],al
  40affe:	adc    ecx,DWORD PTR [esi]
  40b000:	adc    DWORD PTR [esi],ecx
  40b002:	sub    al,0x19
  40b004:	adc    DWORD PTR [esi],ecx
  40b006:	jg     0x40afa4
  40b008:	add    BYTE PTR [eax],al
  40b00a:	add    al,0x28
  40b00c:	xchg   BYTE PTR [ecx],al
  40b00e:	add    BYTE PTR [esi],al
  40b010:	adc    ecx,DWORD PTR ds:0x72c0d11
  40b016:	adc    DWORD PTR ds:0xb329,ecx
  40b01c:	adc    DWORD PTR [esi+0xa],edi
  40b01f:	add    DWORD PTR [eax],eax
  40b021:	add    al,0x4a
  40b023:	sub    BYTE PTR [ebp+0x12060001],al
  40b029:	cmp    dl,BYTE PTR [esi]
  40b02b:	push   esp
  40b02c:	adc    bh,BYTE PTR [edx]
  40b02e:	sbb    bl,BYTE PTR [eax+0x16]
  40b031:	push   esp
  40b032:	adc    bh,BYTE PTR [edx]
  40b034:	push   ds
  40b035:	pop    eax
  40b036:	push   ss
  40b037:	push   esp
  40b038:	adc    bh,BYTE PTR [ecx]
  40b03a:	jg     0x40afd9
  40b03c:	add    BYTE PTR [eax],al
  40b03e:	add    al,0x28
  40b040:	push   edi
  40b041:	add    BYTE PTR [eax],al
  40b043:	push   es
  40b044:	adc    bh,BYTE PTR es:[eax]
  40b047:	jg     0x40b0b9
  40b049:	add    BYTE PTR [eax],al
  40b04b:	add    al,0x28
  40b04d:	push   edi
  40b04e:	add    BYTE PTR [eax],al
  40b050:	push   es
  40b051:	es jle 0x40b05e
  40b054:	add    DWORD PTR [eax],eax
  40b056:	add    al,0x4a
  40b058:	sub    BYTE PTR [ebx],bh
  40b05a:	add    DWORD PTR [eax],eax
  40b05c:	push   es
  40b05d:	adc    bh,BYTE PTR [eax]
  40b05f:	adc    bh,BYTE PTR [ecx]
  40b061:	push   ss
  40b062:	adc    bh,BYTE PTR [edx]
  40b064:	sub    BYTE PTR [ecx+eax*1],bh
  40b067:	add    BYTE PTR [esi],al
  40b069:	fimul  WORD PTR [esi]
  40b06b:	inc    BYTE PTR [esi]
  40b06d:	push   ebp
  40b06e:	add    BYTE PTR [eax],al
  40b070:	push   es
  40b071:	adc    bh,BYTE PTR [eax]
  40b073:	sub    dl,ch
  40b075:	add    BYTE PTR [eax],al
  40b077:	push   es
  40b078:	fadd   QWORD PTR [eax]
  40b07a:	adc    bh,BYTE PTR [eax]
  40b07c:	pop    ss
  40b07d:	push   ss
  40b07e:	sub    BYTE PTR [ebp+0x0],ah
  40b081:	add    BYTE PTR [esi],al
  40b083:	fimul  WORD PTR [esi]
  40b085:	inc    BYTE PTR [esi]
  40b087:	pop    ebx
  40b088:	add    BYTE PTR [eax],al
  40b08a:	push   es
  40b08b:	adc    bh,BYTE PTR [eax]
  40b08d:	sub    dl,ch
  40b08f:	add    BYTE PTR [eax],al
  40b091:	push   es
  40b092:	(bad)  
  40b094:	push   cs
  40b095:	inc    BYTE PTR [esi]
  40b097:	push   ebp
  40b098:	add    BYTE PTR [eax],al
  40b09a:	push   es
  40b09b:	adc    bh,BYTE PTR [ecx]
  40b09d:	sub    dl,ch
  40b09f:	add    BYTE PTR [eax],al
  40b0a1:	push   es
  40b0a2:	fadd   QWORD PTR [eax]
  40b0a4:	adc    bh,BYTE PTR [ecx]
  40b0a6:	pop    ss
  40b0a7:	push   ss
  40b0a8:	sub    BYTE PTR [ebp+0x0],ah
  40b0ab:	add    BYTE PTR [esi],al
  40b0ad:	fimul  WORD PTR [esi]
  40b0af:	inc    BYTE PTR [esi]
  40b0b1:	pop    ebx
  40b0b2:	add    BYTE PTR [eax],al
  40b0b4:	push   es
  40b0b5:	adc    bh,BYTE PTR [ecx]
  40b0b7:	sub    dl,ch
  40b0b9:	add    BYTE PTR [eax],al
  40b0bb:	push   es
  40b0bc:	fcom   QWORD PTR [edx]
  40b0be:	aaa    
  40b0bf:	adc    bh,BYTE PTR [edx]
  40b0c1:	adc    dh,BYTE PTR [esi]
  40b0c3:	sub    BYTE PTR [eax+0x0],dl
  40b0c6:	add    BYTE PTR [esi],al
  40b0c8:	jo     0x40b117
  40b0ca:	add    BYTE PTR [eax],al
  40b0cc:	add    dl,BYTE PTR [edx]
  40b0ce:	xor    eax,0x34123a12
  40b0d3:	sub    BYTE PTR [ecx+0x0],dl
  40b0d6:	add    BYTE PTR [esi],al
  40b0d8:	jo     0x40b127
  40b0da:	add    BYTE PTR [eax],al
  40b0dc:	add    dl,BYTE PTR [ecx]
  40b0de:	xor    edx,DWORD PTR [ebx]
  40b0e0:	xor    dl,BYTE PTR [edx]
  40b0e2:	xor    eax,0x4a37124a
  40b0e7:	adc    dh,BYTE PTR [edi]
  40b0e9:	dec    edx
  40b0ea:	adc    dh,BYTE PTR ds:0x181f594a
  40b0f0:	pop    ebx
  40b0f1:	adc    dh,BYTE PTR [edx]
  40b0f3:	sub    BYTE PTR [ecx+0x73060000],bl
  40b0f9:	dec    edi
  40b0fa:	add    BYTE PTR [eax],al
  40b0fc:	or     dl,BYTE PTR [ebx]
  40b0fe:	adc    dl,BYTE PTR [esi]
  40b100:	adc    ecx,DWORD PTR [edx]
  40b102:	push   ss
  40b103:	adc    bh,BYTE PTR [edx]
  40b105:	sbb    bl,BYTE PTR [eax+0x4a]
  40b108:	adc    bh,BYTE PTR [edx]
  40b10a:	dec    edx
  40b10b:	pop    ecx
  40b10c:	pop    ds
  40b10d:	sbb    BYTE PTR [ebx+0x34],bl
  40b110:	push   edx
  40b111:	push   ss
  40b112:	adc    ecx,DWORD PTR [ecx]
  40b114:	adc    DWORD PTR [ecx],ecx
  40b116:	adc    bh,BYTE PTR [edx]
  40b118:	dec    edx
  40b119:	pop    eax
  40b11a:	adc    ecx,DWORD PTR [eax]
  40b11c:	pop    ds
  40b11d:	adc    BYTE PTR [ecx],dl
  40b11f:	or     BYTE PTR [edi],bl
  40b121:	adc    al,0x58
  40b123:	dec    edx
  40b124:	xor    eax,0x4a081107
  40b129:	adc    ecx,DWORD PTR [ebx+ebp*1]
  40b12c:	add    al,0x11
  40b12e:	or     BYTE PTR [ebx],dl
  40b130:	or     al,0x2
  40b132:	and    eax,0x1247b
  40b137:	add    al,0x11
  40b139:	adc    dl,BYTE PTR [ecx]
  40b13b:	or     al,0x73
  40b13d:	dec    esi
  40b13e:	add    BYTE PTR [eax],al
  40b140:	or     ch,BYTE PTR [eax]
  40b142:	mov    dl,0x1
  40b144:	add    BYTE PTR [esi],al
  40b146:	adc    DWORD PTR [edx],ecx
  40b148:	pop    ss
  40b149:	pop    eax
  40b14a:	adc    ecx,DWORD PTR [edx]
  40b14c:	adc    DWORD PTR [ecx],ecx
  40b14e:	pop    ds
  40b14f:	sbb    BYTE PTR [eax+0x13],bl
  40b152:	or     DWORD PTR [ecx],edx
  40b154:	or     dl,BYTE PTR [edx]
  40b156:	cmp    bl,BYTE PTR [edx]
  40b158:	pop    eax
  40b159:	dec    edx
  40b15a:	adc    bh,BYTE PTR [edx]
  40b15c:	dec    edx
  40b15d:	pop    ecx
  40b15e:	pop    ds
  40b15f:	sbb    BYTE PTR [ebx+0x37],bl
  40b162:	mov    cl,0x20
  40b164:	cwde   
  40b165:	add    DWORD PTR [eax],eax
  40b167:	add    BYTE PTR [eax],ch
  40b169:	outs   dx,DWORD PTR ds:[esi]
  40b16a:	add    DWORD PTR [eax],eax
  40b16c:	push   es
  40b16d:	adc    eax,DWORD PTR [edi]
  40b16f:	adc    DWORD PTR [edi],eax
  40b171:	sub    al,0xb
  40b173:	adc    DWORD PTR [edi],eax
  40b175:	sub    BYTE PTR [edx],cl
  40b177:	add    BYTE PTR [eax],al
  40b179:	push   es
  40b17a:	adc    eax,DWORD PTR [esi]
  40b17c:	ficom  WORD PTR [edx]
  40b17e:	push   ss
  40b17f:	adc    eax,DWORD PTR [esi]
  40b181:	fimul  WORD PTR ds:0x98200711
  40b187:	add    DWORD PTR [eax],eax
  40b189:	add    BYTE PTR [eax],ch
  40b18b:	ins    DWORD PTR es:[edi],dx
  40b18c:	add    DWORD PTR [eax],eax
  40b18e:	push   es
  40b18f:	fadd   QWORD PTR [edx]
  40b191:	adc    DWORD PTR [esi],eax
  40b193:	jge    0x40b1b3
  40b195:	add    DWORD PTR [eax],eax
  40b197:	add    al,0x7e
  40b199:	or     al,BYTE PTR [ecx]
  40b19b:	add    BYTE PTR [edx+ecx*2],al
  40b19e:	adc    DWORD PTR [esi],eax
  40b1a0:	sub    BYTE PTR [ecx+eax*1+0x7b020600],al
  40b1a7:	and    eax,DWORD PTR [ecx]
  40b1a9:	add    BYTE PTR [eax+ebp*1],al
  40b1ac:	dec    ebp
  40b1ad:	add    BYTE PTR [eax],al
  40b1af:	or     al,BYTE PTR [edx]
  40b1b1:	push   ss
  40b1b2:	jge    0x40b1d3
  40b1b4:	add    DWORD PTR [eax],eax
  40b1b6:	add    al,0x2
  40b1b8:	push   ss
  40b1b9:	jge    0x40b1db
  40b1bb:	add    DWORD PTR [eax],eax
  40b1bd:	add    al,0x2
  40b1bf:	push   ss
  40b1c0:	jge    0x40b1e3
  40b1c2:	add    DWORD PTR [eax],eax
  40b1c4:	add    al,0x2
  40b1c6:	push   ss
  40b1c7:	jge    0x40b1eb
  40b1c9:	add    DWORD PTR [eax],eax
  40b1cb:	add    al,0x2
  40b1cd:	jnp    0x40b1fb
  40b1cf:	add    DWORD PTR [eax],eax
  40b1d1:	add    al,0x6f
  40b1d3:	push   eax
  40b1d4:	add    BYTE PTR [eax],al
  40b1d6:	or     dl,BYTE PTR [ebx]
  40b1d8:	xor    DWORD PTR [edx],eax
  40b1da:	jnp    0x40b1fa
  40b1dc:	add    DWORD PTR [eax],eax
  40b1de:	add    al,0x12
  40b1e0:	xor    DWORD PTR [eax],ebp
  40b1e2:	dec    esp
  40b1e3:	add    BYTE PTR [eax],al
  40b1e5:	or     ch,BYTE PTR [eax]
  40b1e7:	and    al,BYTE PTR [eax]
  40b1e9:	add    BYTE PTR [esi],al
  40b1eb:	add    bh,BYTE PTR [ebx+0x4a]
  40b1ee:	add    DWORD PTR [eax],eax
  40b1f0:	add    al,0x6f
  40b1f2:	push   eax
  40b1f3:	add    BYTE PTR [eax],al
  40b1f5:	or     dl,BYTE PTR [ebx]
  40b1f7:	xor    BYTE PTR [edx],al
  40b1f9:	jnp    0x40b219
  40b1fb:	add    DWORD PTR [eax],eax
  40b1fd:	add    al,0x12
  40b1ff:	xor    BYTE PTR [eax],ch
  40b201:	dec    esp
  40b202:	add    BYTE PTR [eax],al
  40b204:	or     ch,BYTE PTR [eax]
  40b206:	and    eax,DWORD PTR [eax]
  40b208:	add    BYTE PTR [esi],al
  40b20a:	add    ch,BYTE PTR [eax]
  40b20c:	mov    dh,0x1
  40b20e:	add    BYTE PTR [esi],al
  40b210:	fimul  WORD PTR [esi]
  40b212:	inc    BYTE PTR [esi]
  40b214:	or     al,0x0
  40b216:	add    BYTE PTR [esi],al
  40b218:	adc    bh,BYTE PTR [edx]
  40b21a:	sub    dl,ch
  40b21c:	add    BYTE PTR [eax],al
  40b21e:	push   es
  40b21f:	fcom   QWORD PTR [edx]
  40b221:	cmp    ch,BYTE PTR [eax]
  40b223:	popa   
  40b224:	add    BYTE PTR [eax],al
  40b226:	push   es
  40b227:	fimul  WORD PTR [esi]
  40b229:	inc    BYTE PTR [esi]
  40b22b:	push   ebp
  40b22c:	add    BYTE PTR [eax],al
  40b22e:	push   es
  40b22f:	adc    al,BYTE PTR [ebp+0x28]
  40b232:	jmp    0x1200:0xdc060000
  40b239:	inc    ebp
  40b23a:	pop    ss
  40b23b:	push   ss
  40b23c:	sub    BYTE PTR [ebp+0x0],ah
  40b23f:	add    BYTE PTR [esi],al
  40b241:	fimul  WORD PTR [esi]
  40b243:	inc    BYTE PTR [esi]
  40b245:	pop    ebx
  40b246:	add    BYTE PTR [eax],al
  40b248:	push   es
  40b249:	adc    al,BYTE PTR [ebp+0x28]
  40b24c:	jmp    0xede:0xdc060000
  40b253:	inc    BYTE PTR [esi]
  40b255:	jle    0x40b258
  40b257:	add    BYTE PTR [esi],al
  40b259:	adc    al,BYTE PTR [edi+0x28]
  40b25c:	jmp    0x4712:0xdc060000
  40b263:	sub    BYTE PTR [esi+0x1],bh
  40b266:	add    BYTE PTR [esi],al
  40b268:	fimul  WORD PTR [esi]
  40b26a:	inc    BYTE PTR [esi]
  40b26c:	or     al,0x0
  40b26e:	add    BYTE PTR [esi],al
  40b270:	adc    dl,BYTE PTR [ebx+0x28]
  40b273:	jmp    0x5312:0xdc060000
  40b27a:	sub    BYTE PTR [ecx+0x0],ah
  40b27d:	add    BYTE PTR [esi],al
  40b27f:	fimul  WORD PTR [esi]
  40b281:	inc    BYTE PTR [esi]
  40b283:	push   ebp
  40b284:	add    BYTE PTR [eax],al
  40b286:	push   es
  40b287:	adc    dl,BYTE PTR [eax+ebp*1-0x16]
  40b28b:	add    BYTE PTR [eax],al
  40b28d:	push   es
  40b28e:	fadd   QWORD PTR [eax]
  40b290:	adc    dl,BYTE PTR [edi+edx*1+0x16]
  40b294:	sub    BYTE PTR [ebp+0x0],ah
  40b297:	add    BYTE PTR [esi],al
  40b299:	fimul  WORD PTR [esi]
  40b29b:	inc    BYTE PTR [esi]
  40b29d:	pop    ebx
  40b29e:	add    BYTE PTR [eax],al
  40b2a0:	push   es
  40b2a1:	adc    dl,BYTE PTR [eax+ebp*1-0x16]
  40b2a5:	add    BYTE PTR [eax],al
  40b2a7:	push   es
  40b2a8:	(bad)  
  40b2aa:	push   cs
  40b2ab:	inc    BYTE PTR [esi]
  40b2ad:	push   ebp
  40b2ae:	add    BYTE PTR [eax],al
  40b2b0:	push   es
  40b2b1:	adc    dl,BYTE PTR [esi+0x28]
  40b2b4:	jmp    0x1200:0xdc060000
  40b2bb:	push   esi
  40b2bc:	pop    ss
  40b2bd:	push   ss
  40b2be:	sub    BYTE PTR [ebp+0x0],ah
  40b2c1:	add    BYTE PTR [esi],al
  40b2c3:	fimul  WORD PTR [esi]
  40b2c5:	inc    BYTE PTR [esi]
  40b2c7:	pop    ebx
  40b2c8:	add    BYTE PTR [eax],al
  40b2ca:	push   es
  40b2cb:	adc    dl,BYTE PTR [esi+0x28]
  40b2ce:	jmp    0x412a:0xdc060000
  40b2d5:	movs   BYTE PTR es:[edi],BYTE PTR ds:[esi]
  40b2d6:	add    eax,0x400
  40b2db:	add    BYTE PTR [eax],cl
  40b2dd:	add    BYTE PTR [eax],al
  40b2df:	add    BYTE PTR [ebx],bl
  40b2e1:	add    BYTE PTR [eax],al
  40b2e3:	add    BYTE PTR [ebx],ah
  40b2e5:	add    BYTE PTR [eax],al
  40b2e7:	add    BYTE PTR [ecx],cl
  40b2e9:	add    BYTE PTR [eax],al
  40b2eb:	add    BYTE PTR [esi+0x0],ah
  40b2ee:	add    BYTE PTR [ecx],al
  40b2f0:	add    al,0x0
  40b2f2:	add    BYTE PTR [eax],al
  40b2f4:	cmp    eax,0x11000000
  40b2f9:	add    BYTE PTR [eax],al
  40b2fb:	add    BYTE PTR [esi+0x0],cl
  40b2fe:	add    BYTE PTR [eax],al
  40b300:	push   cs
  40b301:	add    BYTE PTR [eax],al
  40b303:	add    BYTE PTR [esi+0x0],ah
  40b306:	add    BYTE PTR [ecx],al
  40b308:	add    al,0x0
  40b30a:	add    BYTE PTR [eax],al
  40b30c:	pop    ebp
  40b30d:	add    BYTE PTR [eax],al
  40b30f:	add    BYTE PTR [ebx],cl
  40b311:	add    BYTE PTR [eax],al
  40b313:	add    BYTE PTR [eax+0x0],ch
  40b316:	add    BYTE PTR [eax],al
  40b318:	push   cs
  40b319:	add    BYTE PTR [eax],al
  40b31b:	add    BYTE PTR [esi+0x0],ah
  40b31e:	add    BYTE PTR [ecx],al
  40b320:	add    al,0x0
  40b322:	add    BYTE PTR [eax],al
  40b324:	daa    
  40b325:	add    DWORD PTR [eax],eax
  40b327:	add    BYTE PTR [ebx],cl
  40b329:	add    BYTE PTR [eax],al
  40b32b:	add    BYTE PTR [edx],dh
  40b32d:	add    DWORD PTR [eax],eax
  40b32f:	add    BYTE PTR [esi],cl
  40b331:	add    BYTE PTR [eax],al
  40b333:	add    BYTE PTR [esi+0x0],ah
  40b336:	add    BYTE PTR [ecx],al
  40b338:	add    al,0x0
  40b33a:	add    BYTE PTR [eax],al
  40b33c:	inc    ecx
  40b33d:	add    DWORD PTR [eax],eax
  40b33f:	add    BYTE PTR [ebx],cl
  40b341:	add    BYTE PTR [eax],al
  40b343:	add    BYTE PTR [ecx+eax*1+0x0],cl
  40b347:	add    BYTE PTR [esi],cl
  40b349:	add    BYTE PTR [eax],al
  40b34b:	add    BYTE PTR [esi+0x0],ah
  40b34e:	add    BYTE PTR [ecx],al
  40b350:	add    al,0x0
  40b352:	add    BYTE PTR [eax],al
  40b354:	push   0x1
  40b356:	add    BYTE PTR [eax],al
  40b358:	adc    eax,0x7f000000
  40b35d:	add    DWORD PTR [eax],eax
  40b35f:	add    BYTE PTR [esi],cl
  40b361:	add    BYTE PTR [eax],al
  40b363:	add    BYTE PTR [esi+0x0],ah
  40b366:	add    BYTE PTR [ecx],al
  40b368:	add    al,0x0
  40b36a:	add    BYTE PTR [eax],al
  40b36c:	mov    es,WORD PTR [ecx]
  40b36e:	add    BYTE PTR [eax],al
  40b370:	or     eax,DWORD PTR [eax]
  40b372:	add    BYTE PTR [eax],al
  40b374:	cdq    
  40b375:	add    DWORD PTR [eax],eax
  40b377:	add    BYTE PTR [esi],cl
  40b379:	add    BYTE PTR [eax],al
  40b37b:	add    BYTE PTR [esi+0x0],ah
  40b37e:	add    BYTE PTR [ecx],al
  40b380:	add    al,0x0
  40b382:	add    BYTE PTR [eax],al
  40b384:	mov    bh,0x1
  40b386:	add    BYTE PTR [eax],al
  40b388:	adc    eax,0xcc000000
  40b38d:	add    DWORD PTR [eax],eax
  40b38f:	add    BYTE PTR [esi],cl
  40b391:	add    BYTE PTR [eax],al
  40b393:	add    BYTE PTR [esi+0x0],ah
  40b396:	add    BYTE PTR [ecx],al
  40b398:	add    al,0x0
  40b39a:	add    BYTE PTR [eax],al
  40b39c:	fild   DWORD PTR [ecx]
  40b39e:	add    BYTE PTR [eax],al
  40b3a0:	or     eax,DWORD PTR [eax]
  40b3a2:	add    BYTE PTR [eax],al
  40b3a4:	out    0x1,al
  40b3a6:	add    BYTE PTR [eax],al
  40b3a8:	push   cs
  40b3a9:	add    BYTE PTR [eax],al
  40b3ab:	add    BYTE PTR [esi+0x0],ah
  40b3ae:	add    BYTE PTR [ecx],al
  40b3b0:	add    al,0x0
  40b3b2:	add    BYTE PTR [eax],al
  40b3b4:	add    al,0x2
  40b3b6:	add    BYTE PTR [eax],al
  40b3b8:	sbb    DWORD PTR [eax],eax
  40b3ba:	add    BYTE PTR [eax],al
  40b3bc:	sbb    eax,0xe000002
  40b3c1:	add    BYTE PTR [eax],al
  40b3c3:	add    BYTE PTR [esi+0x0],ah
  40b3c6:	add    BYTE PTR [ecx],al
  40b3c8:	add    al,0x0
  40b3ca:	add    BYTE PTR [eax],al
  40b3cc:	sub    al,0x2
  40b3ce:	add    BYTE PTR [eax],al
  40b3d0:	or     eax,DWORD PTR [eax]
  40b3d2:	add    BYTE PTR [eax],al
  40b3d4:	aaa    
  40b3d5:	add    al,BYTE PTR [eax]
  40b3d7:	add    BYTE PTR [esi],cl
  40b3d9:	add    BYTE PTR [eax],al
  40b3db:	add    BYTE PTR [esi+0x0],ah
  40b3de:	add    BYTE PTR [ecx],al
  40b3e0:	add    al,0x0
  40b3e2:	add    BYTE PTR [eax],al
  40b3e4:	push   ebp
  40b3e5:	add    al,BYTE PTR [eax]
  40b3e7:	add    BYTE PTR ds:0x6a000000,dl
  40b3ed:	add    al,BYTE PTR [eax]
  40b3ef:	add    BYTE PTR [esi],cl
  40b3f1:	add    BYTE PTR [eax],al
  40b3f3:	add    BYTE PTR [esi+0x0],ah
  40b3f6:	add    BYTE PTR [ecx],al
  40b3f8:	add    al,0x0
  40b3fa:	add    BYTE PTR [eax],al
  40b3fc:	jns    0x40b400
  40b3fe:	add    BYTE PTR [eax],al
  40b400:	or     eax,DWORD PTR [eax]
  40b402:	add    BYTE PTR [eax],al
  40b404:	test   BYTE PTR [edx],al
  40b406:	add    BYTE PTR [eax],al
  40b408:	push   cs
  40b409:	add    BYTE PTR [eax],al
  40b40b:	add    BYTE PTR [esi+0x0],ah
  40b40e:	add    BYTE PTR [ecx],al
  40b410:	add    al,0x0
  40b412:	add    BYTE PTR [eax],al
  40b414:	mov    ds:0x15000002,al
  40b419:	add    BYTE PTR [eax],al
  40b41b:	add    BYTE PTR [edi+0xe000002],dh
  40b421:	add    BYTE PTR [eax],al
  40b423:	add    BYTE PTR [esi+0x0],ah
  40b426:	add    BYTE PTR [ecx],al
  40b428:	add    al,0x0
  40b42a:	add    BYTE PTR [eax],al
  40b42c:	mov    BYTE PTR [edx],0x0
  40b42f:	add    BYTE PTR [ebx],cl
  40b431:	add    BYTE PTR [eax],al
  40b433:	add    cl,dl
  40b435:	add    al,BYTE PTR [eax]
  40b437:	add    BYTE PTR [esi],cl
  40b439:	add    BYTE PTR [eax],al
  40b43b:	add    BYTE PTR [esi+0x0],ah
  40b43e:	add    BYTE PTR [ecx],al
  40b440:	add    al,0x0
  40b442:	add    BYTE PTR [eax],al
  40b444:	or     eax,0x15000003
  40b449:	add    BYTE PTR [eax],al
  40b44b:	add    BYTE PTR [edx],ah
  40b44d:	add    eax,DWORD PTR [eax]
  40b44f:	add    BYTE PTR [esi],cl
  40b451:	add    BYTE PTR [eax],al
  40b453:	add    BYTE PTR [esi+0x0],ah
  40b456:	add    BYTE PTR [ecx],al
  40b458:	add    al,0x0
  40b45a:	add    BYTE PTR [eax],al
  40b45c:	xor    DWORD PTR [ebx],eax
  40b45e:	add    BYTE PTR [eax],al
  40b460:	or     eax,DWORD PTR [eax]
  40b462:	add    BYTE PTR [eax],al
  40b464:	cmp    al,0x3
  40b466:	add    BYTE PTR [eax],al
  40b468:	push   cs
  40b469:	add    BYTE PTR [eax],al
  40b46b:	add    BYTE PTR [esi+0x0],ah
  40b46e:	add    BYTE PTR [ecx],al
  40b470:	add    al,0x0
  40b472:	add    BYTE PTR [eax],al
  40b474:	popa   
  40b475:	add    eax,DWORD PTR [eax]
  40b477:	add    BYTE PTR ds:0x76000000,dl
  40b47d:	add    eax,DWORD PTR [eax]
  40b47f:	add    BYTE PTR [esi],cl
  40b481:	add    BYTE PTR [eax],al
  40b483:	add    BYTE PTR [esi+0x0],ah
  40b486:	add    BYTE PTR [ecx],al
  40b488:	add    al,0x0
  40b48a:	add    BYTE PTR [eax],al
  40b48c:	test   DWORD PTR [ebx],eax
  40b48e:	add    BYTE PTR [eax],al
  40b490:	or     eax,DWORD PTR [eax]
  40b492:	add    BYTE PTR [eax],al
  40b494:	nop
  40b495:	add    eax,DWORD PTR [eax]
  40b497:	add    BYTE PTR [esi],cl
  40b499:	add    BYTE PTR [eax],al
  40b49b:	add    BYTE PTR [esi+0x0],ah
  40b49e:	add    BYTE PTR [ecx],al
  40b4a0:	add    al,0x0
  40b4a2:	add    BYTE PTR [eax],al
  40b4a4:	mov    ch,0x3
  40b4a6:	add    BYTE PTR [eax],al
  40b4a8:	adc    eax,0xca000000
  40b4ad:	add    eax,DWORD PTR [eax]
  40b4af:	add    BYTE PTR [esi],cl
  40b4b1:	add    BYTE PTR [eax],al
  40b4b3:	add    BYTE PTR [esi+0x0],ah
  40b4b6:	add    BYTE PTR [ecx],al
  40b4b8:	add    al,0x0
  40b4ba:	add    BYTE PTR [eax],al
  40b4bc:	fld    DWORD PTR [ebx]
  40b4be:	add    BYTE PTR [eax],al
  40b4c0:	or     eax,DWORD PTR [eax]
  40b4c2:	add    BYTE PTR [eax],al
  40b4c4:	in     al,0x3
  40b4c6:	add    BYTE PTR [eax],al
  40b4c8:	push   cs
  40b4c9:	add    BYTE PTR [eax],al
  40b4cb:	add    BYTE PTR [esi+0x0],ah
  40b4ce:	add    BYTE PTR [ecx],al
  40b4d0:	add    al,0x0
  40b4d2:	add    BYTE PTR [eax],al
  40b4d4:	or     DWORD PTR [eax+eax*1],eax
  40b4d7:	add    BYTE PTR ds:0x1e000000,dl
  40b4dd:	add    al,0x0
  40b4df:	add    BYTE PTR [esi],cl
  40b4e1:	add    BYTE PTR [eax],al
  40b4e3:	add    BYTE PTR [esi+0x0],ah
  40b4e6:	add    BYTE PTR [ecx],al
  40b4e8:	add    al,0x0
  40b4ea:	add    BYTE PTR [eax],al
  40b4ec:	sub    eax,0xb000004
  40b4f1:	add    BYTE PTR [eax],al
  40b4f3:	add    BYTE PTR [eax],bh
  40b4f5:	add    al,0x0
  40b4f7:	add    BYTE PTR [esi],cl
  40b4f9:	add    BYTE PTR [eax],al
  40b4fb:	add    BYTE PTR [esi+0x0],ah
  40b4fe:	add    BYTE PTR [ecx],al
  40b500:	add    al,0x0
  40b502:	add    BYTE PTR [eax],al
  40b504:	pop    ebp
  40b505:	add    al,0x0
  40b507:	add    BYTE PTR ds:0x72000000,dl
  40b50d:	add    al,0x0
  40b50f:	add    BYTE PTR [esi],cl
  40b511:	add    BYTE PTR [eax],al
  40b513:	add    BYTE PTR [esi+0x0],ah
  40b516:	add    BYTE PTR [ecx],al
  40b518:	add    al,0x0
  40b51a:	add    BYTE PTR [eax],al
  40b51c:	add    DWORD PTR [eax+eax*1],0xb00
  40b523:	add    BYTE PTR [esp+eax*1+0xe0000],cl
  40b52a:	add    BYTE PTR [eax],al
  40b52c:	data16 add BYTE PTR [eax],al
  40b52f:	add    DWORD PTR [eax+eax*1],eax
  40b532:	add    BYTE PTR [eax],al
  40b534:	and    DWORD PTR ds:0x1b0000,eax
  40b53a:	add    BYTE PTR [eax],al
  40b53c:	cmp    al,0x5
  40b53e:	add    BYTE PTR [eax],al
  40b540:	or     al,0x0
  40b542:	add    BYTE PTR [eax],al
  40b544:	data16 add BYTE PTR [eax],al
  40b547:	add    DWORD PTR [eax+eax*1],eax
  40b54a:	add    BYTE PTR [eax],al
  40b54c:	pop    ecx
  40b54d:	add    eax,0x110000
  40b552:	add    BYTE PTR [eax],al
  40b554:	push   0x5
  40b556:	add    BYTE PTR [eax],al
  40b558:	push   cs
  40b559:	add    BYTE PTR [eax],al
  40b55b:	add    BYTE PTR [esi+0x0],ah
  40b55e:	add    BYTE PTR [ecx],al
  40b560:	add    al,0x0
  40b562:	add    BYTE PTR [eax],al
  40b564:	jns    0x40b56b
  40b566:	add    BYTE PTR [eax],al
  40b568:	or     eax,DWORD PTR [eax]
  40b56a:	add    BYTE PTR [eax],al
  40b56c:	test   BYTE PTR ds:0xe0000,al
  40b572:	add    BYTE PTR [eax],al
  40b574:	data16 add BYTE PTR [eax],al
  40b577:	add    DWORD PTR [eax+eax*1],eax
  40b57a:	add    BYTE PTR [eax],al
  40b57c:	fiadd  WORD PTR ds:0xf0000
  40b582:	add    BYTE PTR [eax],al
  40b584:	in     eax,dx
  40b585:	add    eax,0xe0000
  40b58a:	add    BYTE PTR [eax],al
  40b58c:	data16 add BYTE PTR [eax],al
  40b58f:	add    DWORD PTR [eax+eax*1],eax
  40b592:	add    BYTE PTR [eax],al
  40b594:	cld    
  40b595:	add    eax,0xb0000
  40b59a:	add    BYTE PTR [eax],al
  40b59c:	pop    es
  40b59d:	push   es
  40b59e:	add    BYTE PTR [eax],al
  40b5a0:	push   cs
  40b5a1:	add    BYTE PTR [eax],al
  40b5a3:	add    BYTE PTR [esi+0x0],ah
  40b5a6:	add    BYTE PTR [ecx],al
  40b5a8:	add    al,0x0
  40b5aa:	add    BYTE PTR [eax],al
  40b5ac:	cs push es
  40b5ae:	add    BYTE PTR [eax],al
  40b5b0:	sldt   WORD PTR [eax]
  40b5b3:	add    BYTE PTR ds:0xe000006,bh
  40b5b9:	add    BYTE PTR [eax],al
  40b5bb:	add    BYTE PTR [esi+0x0],ah
  40b5be:	add    BYTE PTR [ecx],al
  40b5c0:	add    al,0x0
  40b5c2:	add    BYTE PTR [eax],al
  40b5c4:	dec    esp
  40b5c5:	push   es
  40b5c6:	add    BYTE PTR [eax],al
  40b5c8:	or     eax,DWORD PTR [eax]
  40b5ca:	add    BYTE PTR [eax],al
  40b5cc:	push   edi
  40b5cd:	push   es
  40b5ce:	add    BYTE PTR [eax],al
  40b5d0:	push   cs
  40b5d1:	add    BYTE PTR [eax],al
  40b5d3:	add    BYTE PTR [esi+0x0],ah
  40b5d6:	add    BYTE PTR [ecx],al
  40b5d8:	add    al,0x0
  40b5da:	add    BYTE PTR [eax],al
  40b5dc:	jb     0x40b5e4
  40b5de:	add    BYTE PTR [eax],al
  40b5e0:	sldt   WORD PTR [eax]
  40b5e3:	add    BYTE PTR [ecx+0xe000006],al
  40b5e9:	add    BYTE PTR [eax],al
  40b5eb:	add    BYTE PTR [esi+0x0],ah
  40b5ee:	add    BYTE PTR [ecx],al
  40b5f0:	add    al,0x0
  40b5f2:	add    BYTE PTR [eax],al
  40b5f4:	nop
  40b5f5:	push   es
  40b5f6:	add    BYTE PTR [eax],al
  40b5f8:	or     eax,DWORD PTR [eax]
  40b5fa:	add    BYTE PTR [eax],al
  40b5fc:	fwait
  40b5fd:	push   es
  40b5fe:	add    BYTE PTR [eax],al
  40b600:	push   cs
  40b601:	add    BYTE PTR [eax],al
  40b603:	add    BYTE PTR [esi+0x0],ah
  40b606:	add    BYTE PTR [ecx],al
  40b608:	add    al,0x0
  40b60a:	add    BYTE PTR [eax],al
  40b60c:	ret    0x6
  40b60f:	add    BYTE PTR [edi],cl
  40b611:	add    BYTE PTR [eax],al
  40b613:	add    cl,dl
  40b615:	push   es
  40b616:	add    BYTE PTR [eax],al
  40b618:	push   cs
  40b619:	add    BYTE PTR [eax],al
  40b61b:	add    BYTE PTR [esi+0x0],ah
  40b61e:	add    BYTE PTR [ecx],al
  40b620:	add    al,0x0
  40b622:	add    BYTE PTR [eax],al
  40b624:	loopne 0x40b62c
  40b626:	add    BYTE PTR [eax],al
  40b628:	or     eax,DWORD PTR [eax]
  40b62a:	add    BYTE PTR [eax],al
  40b62c:	jmp    0x40b634
  40b62e:	add    BYTE PTR [eax],al
  40b630:	push   cs
  40b631:	add    BYTE PTR [eax],al
  40b633:	add    BYTE PTR [esi+0x0],ah
  40b636:	add    BYTE PTR [ecx],al
  40b638:	add    al,0x0
  40b63a:	add    BYTE PTR [eax],al
  40b63c:	adc    al,BYTE PTR [edi]
  40b63e:	add    BYTE PTR [eax],al
  40b640:	sldt   WORD PTR [eax]
  40b643:	add    BYTE PTR [ecx],ah
  40b645:	pop    es
  40b646:	add    BYTE PTR [eax],al
  40b648:	push   cs
  40b649:	add    BYTE PTR [eax],al
  40b64b:	add    BYTE PTR [esi+0x0],ah
  40b64e:	add    BYTE PTR [ecx],al
  40b650:	add    al,0x0
  40b652:	add    BYTE PTR [eax],al
  40b654:	xor    BYTE PTR [edi],al
  40b656:	add    BYTE PTR [eax],al
  40b658:	or     eax,DWORD PTR [eax]
  40b65a:	add    BYTE PTR [eax],al
  40b65c:	cmp    eax,DWORD PTR [edi]
  40b65e:	add    BYTE PTR [eax],al
  40b660:	push   cs
  40b661:	add    BYTE PTR [eax],al
  40b663:	add    BYTE PTR [esi+0x0],ah
  40b666:	add    BYTE PTR [ecx],al
  40b668:	add    al,0x0
  40b66a:	add    BYTE PTR [eax],al
  40b66c:	add    DWORD PTR [edi],0x0
  40b66f:	add    BYTE PTR [edi],cl
  40b671:	add    BYTE PTR [eax],al
  40b673:	add    BYTE PTR [edx+0xe000007],dl
  40b679:	add    BYTE PTR [eax],al
  40b67b:	add    BYTE PTR [esi+0x0],ah
  40b67e:	add    BYTE PTR [ecx],al
  40b680:	add    al,0x0
  40b682:	add    BYTE PTR [eax],al
  40b684:	mov    eax,ds:0xb000007
  40b689:	add    BYTE PTR [eax],al
  40b68b:	add    BYTE PTR [edi+eax*1+0xe0000],ch
  40b692:	add    BYTE PTR [eax],al
  40b694:	data16 add BYTE PTR [eax],al
  40b697:	add    DWORD PTR [eax+eax*1],eax
  40b69a:	add    BYTE PTR [eax],al
  40b69c:	jae    0x40b6a5
  40b69e:	add    BYTE PTR [eax],al
  40b6a0:	dec    ecx
  40b6a1:	add    BYTE PTR [eax],al
  40b6a3:	add    BYTE PTR [edi+eax*1+0xe0000],bh
  40b6aa:	add    BYTE PTR [eax],al
  40b6ac:	data16 add BYTE PTR [eax],al
  40b6af:	add    DWORD PTR [eax+eax*1],eax
  40b6b2:	add    BYTE PTR [eax],al
  40b6b4:	retf   
  40b6b5:	pop    es
  40b6b6:	add    BYTE PTR [eax],al
  40b6b8:	or     eax,DWORD PTR [eax]
  40b6ba:	add    BYTE PTR [eax],al
  40b6bc:	(bad)  
  40b6bd:	pop    es
  40b6be:	add    BYTE PTR [eax],al
  40b6c0:	push   cs
  40b6c1:	add    BYTE PTR [eax],al
  40b6c3:	add    BYTE PTR [esi+0x0],ah
  40b6c6:	add    BYTE PTR [ecx],al
  40b6c8:	add    al,0x0
  40b6ca:	add    BYTE PTR [eax],al
  40b6cc:	arpl   WORD PTR [edi],ax
  40b6ce:	add    BYTE PTR [eax],al
  40b6d0:	add    DWORD PTR [eax],0x0
  40b6d3:	add    dh,ah
  40b6d5:	pop    es
  40b6d6:	add    BYTE PTR [eax],al
  40b6d8:	push   cs
  40b6d9:	add    BYTE PTR [eax],al
  40b6db:	add    BYTE PTR [esi+0x0],ah
  40b6de:	add    BYTE PTR [ecx],al
  40b6e0:	add    al,0x0
  40b6e2:	add    BYTE PTR [eax],al
  40b6e4:	cmc    
  40b6e5:	pop    es
  40b6e6:	add    BYTE PTR [eax],al
  40b6e8:	or     eax,DWORD PTR [eax]
  40b6ea:	add    BYTE PTR [eax],al
  40b6ec:	add    BYTE PTR [eax],cl
  40b6ee:	add    BYTE PTR [eax],al
  40b6f0:	push   cs
  40b6f1:	add    BYTE PTR [eax],al
  40b6f3:	add    BYTE PTR [esi+0x0],ah
  40b6f6:	add    BYTE PTR [ecx],al
  40b6f8:	add    al,0x0
  40b6fa:	add    BYTE PTR [eax],al
  40b6fc:	aaa    
  40b6fd:	or     BYTE PTR [eax],al
  40b6ff:	add    BYTE PTR [eax],bh
  40b701:	add    BYTE PTR [eax],al
  40b703:	add    BYTE PTR [edi+0x8],ch
  40b706:	add    BYTE PTR [eax],al
  40b708:	push   cs
  40b709:	add    BYTE PTR [eax],al
  40b70b:	add    BYTE PTR [esi+0x0],ah
  40b70e:	add    BYTE PTR [ecx],al
  40b710:	add    al,0x0
  40b712:	add    BYTE PTR [eax],al
  40b714:	jle    0x40b71e
  40b716:	add    BYTE PTR [eax],al
  40b718:	or     eax,DWORD PTR [eax]
  40b71a:	add    BYTE PTR [eax],al
  40b71c:	mov    DWORD PTR [eax],ecx
  40b71e:	add    BYTE PTR [eax],al
  40b720:	push   cs
  40b721:	add    BYTE PTR [eax],al
  40b723:	add    BYTE PTR [esi+0x0],ah
  40b726:	add    BYTE PTR [ecx],al
  40b728:	add    al,0x0
  40b72a:	add    BYTE PTR [eax],al
  40b72c:	add    cl,BYTE PTR [ecx]
  40b72e:	add    BYTE PTR [eax],al
  40b730:	sbb    DWORD PTR [eax],eax
  40b732:	add    BYTE PTR [eax],al
  40b734:	sbb    ecx,DWORD PTR [ecx]
  40b736:	add    BYTE PTR [eax],al
  40b738:	push   cs
  40b739:	add    BYTE PTR [eax],al
  40b73b:	add    BYTE PTR [esi+0x0],ah
  40b73e:	add    BYTE PTR [ecx],al
  40b740:	add    al,0x0
  40b742:	add    BYTE PTR [eax],al
  40b744:	sub    cl,BYTE PTR [ecx]
  40b746:	add    BYTE PTR [eax],al
  40b748:	or     eax,DWORD PTR [eax]
  40b74a:	add    BYTE PTR [eax],al
  40b74c:	xor    eax,0xe000009
  40b751:	add    BYTE PTR [eax],al
  40b753:	add    BYTE PTR [esi+0x0],ah
  40b756:	add    BYTE PTR [ecx],al
  40b758:	add    al,0x0
  40b75a:	add    BYTE PTR [eax],al
  40b75c:	cmc    
  40b75d:	or     BYTE PTR [eax],al
  40b75f:	add    BYTE PTR [eax+0x0],dl
  40b762:	add    BYTE PTR [eax],al
  40b764:	inc    ebp
  40b765:	or     DWORD PTR [eax],eax
  40b767:	add    BYTE PTR [esi],cl
  40b769:	add    BYTE PTR [eax],al
  40b76b:	add    BYTE PTR [esi+0x0],ah
  40b76e:	add    BYTE PTR [ecx],al
  40b770:	add    al,0x0
  40b772:	add    BYTE PTR [eax],al
  40b774:	push   esp
  40b775:	or     DWORD PTR [eax],eax
  40b777:	add    BYTE PTR [ebx],cl
  40b779:	add    BYTE PTR [eax],al
  40b77b:	add    BYTE PTR [edi+0x9],bl
  40b77e:	add    BYTE PTR [eax],al
  40b780:	push   cs
  40b781:	add    BYTE PTR [eax],al
  40b783:	add    BYTE PTR [esi+0x0],ah
  40b786:	add    BYTE PTR [ecx],al
  40b788:	add    al,0x0
  40b78a:	add    BYTE PTR [eax],al
  40b78c:	pop    ds
  40b78d:	or     al,BYTE PTR [eax]
  40b78f:	add    BYTE PTR [eax+eax*1],dl
  40b792:	add    BYTE PTR [eax],al
  40b794:	xor    ecx,DWORD PTR [edx]
  40b796:	add    BYTE PTR [eax],al
  40b798:	or     eax,0x66000000
  40b79d:	add    BYTE PTR [eax],al
  40b79f:	add    DWORD PTR [eax+eax*1],eax
  40b7a2:	add    BYTE PTR [eax],al
  40b7a4:	call   0xda40b7b1
  40b7a9:	add    DWORD PTR [eax],eax
  40b7ab:	add    dl,al
  40b7ad:	or     al,BYTE PTR [eax]
  40b7af:	add    BYTE PTR [esi],cl
  40b7b1:	add    BYTE PTR [eax],al
  40b7b3:	add    BYTE PTR [esi+0x0],ah
  40b7b6:	add    BYTE PTR [ecx],al
  40b7b8:	add    al,0x0
  40b7ba:	add    BYTE PTR [eax],al
  40b7bc:	jns    0x40b7c3
  40b7be:	add    BYTE PTR [eax],al
  40b7c0:	pusha  
  40b7c1:	add    eax,0xad90000
  40b7c6:	add    BYTE PTR [eax],al
  40b7c8:	push   cs
  40b7c9:	add    BYTE PTR [eax],al
  40b7cb:	add    BYTE PTR [esi+0x0],ah
  40b7ce:	add    BYTE PTR [ecx],al
  40b7d0:	add    al,0x0
  40b7d2:	add    BYTE PTR [eax],al
  40b7d4:	call   0xb40b7e3
  40b7d9:	add    BYTE PTR [eax],al
  40b7db:	add    bl,dh
  40b7dd:	or     al,BYTE PTR [eax]
  40b7df:	add    BYTE PTR [esi],cl
  40b7e1:	add    BYTE PTR [eax],al
  40b7e3:	add    BYTE PTR [esi+0x0],ah
  40b7e6:	add    BYTE PTR [ecx],al
  40b7e8:	add    al,0x0
  40b7ea:	add    BYTE PTR [eax],al
  40b7ec:	rol    BYTE PTR [eax+eax*1],0x0
  40b7f0:	inc    ebx
  40b7f1:	push   es
  40b7f2:	add    BYTE PTR [eax],al
  40b7f4:	add    ecx,DWORD PTR [ebx]
  40b7f6:	add    BYTE PTR [eax],al
  40b7f8:	push   cs
  40b7f9:	add    BYTE PTR [eax],al
  40b7fb:	add    BYTE PTR [esi+0x0],ah
  40b7fe:	add    BYTE PTR [ecx],al
  40b800:	add    al,0x0
  40b802:	add    BYTE PTR [eax],al
  40b804:	sbb    eax,0xfd000001
  40b809:	or     DWORD PTR [eax],eax
  40b80b:	add    BYTE PTR [edx],bl
  40b80d:	or     eax,DWORD PTR [eax]
  40b80f:	add    BYTE PTR [esi],cl
  40b811:	add    BYTE PTR [eax],al
  40b813:	add    BYTE PTR [esi+0x0],ah
  40b816:	add    BYTE PTR [ecx],al
  40b818:	add    al,0x0
  40b81a:	add    BYTE PTR [eax],al
  40b81c:	fadd   QWORD PTR [eax]
  40b81e:	add    BYTE PTR [eax],al
  40b820:	push   ebp
  40b821:	or     al,BYTE PTR [eax]
  40b823:	add    BYTE PTR [ecx],dh
  40b825:	or     eax,DWORD PTR [eax]
  40b827:	add    BYTE PTR [esi],cl
  40b829:	add    BYTE PTR [eax],al
  40b82b:	add    BYTE PTR [esi+0x0],ah
  40b82e:	add    BYTE PTR [ecx],al
  40b830:	add    al,0x0
  40b832:	add    BYTE PTR [eax],al
  40b834:	inc    eax
  40b835:	or     eax,DWORD PTR [eax]
  40b837:	add    BYTE PTR [ebx],cl
  40b839:	add    BYTE PTR [eax],al
  40b83b:	add    BYTE PTR [ebx+0xb],cl
  40b83e:	add    BYTE PTR [eax],al
  40b840:	push   cs
  40b841:	add    BYTE PTR [eax],al
  40b843:	add    BYTE PTR [esi+0x0],ah
  40b846:	add    BYTE PTR [ecx],al
  40b848:	add    al,0x0
  40b84a:	add    BYTE PTR [eax],al
  40b84c:	pop    ebp
  40b84d:	add    BYTE PTR [eax],al
  40b84f:	add    dh,bh
  40b851:	or     al,BYTE PTR [eax]
  40b853:	add    BYTE PTR [ebx+0xb],bl
  40b856:	add    BYTE PTR [eax],al
  40b858:	push   cs
  40b859:	add    BYTE PTR [eax],al
  40b85b:	add    BYTE PTR [esi+0x0],ah
  40b85e:	add    BYTE PTR [ecx],al
  40b860:	add    al,0x0
  40b862:	add    BYTE PTR [eax],al
  40b864:	push   0xb
  40b866:	add    BYTE PTR [eax],al
  40b868:	or     eax,DWORD PTR [eax]
  40b86a:	add    BYTE PTR [eax],al
  40b86c:	jne    0x40b879
  40b86e:	add    BYTE PTR [eax],al
  40b870:	push   cs
  40b871:	add    BYTE PTR [eax],al
  40b873:	add    BYTE PTR [esi+0x0],ah
  40b876:	add    BYTE PTR [ecx],al
  40b878:	add    esi,DWORD PTR [eax]
  40b87a:	push   es
  40b87b:	add    BYTE PTR [eax],bh
  40b87d:	sbb    al,BYTE PTR [eax]
  40b87f:	add    dh,ch
  40b881:	add    BYTE PTR [eax],al
  40b883:	adc    DWORD PTR [ebx-0x61],esi
  40b886:	add    BYTE PTR [eax],al
  40b888:	or     dl,BYTE PTR [ebx]
  40b88a:	push   cs
  40b88b:	add    dl,BYTE PTR [ecx]
  40b88d:	push   cs
  40b88e:	jge    0x40b8de
  40b890:	add    DWORD PTR [eax],eax
  40b892:	add    al,0x2
  40b894:	adc    DWORD PTR [esi],ecx
  40b896:	jae    0x40b836
  40b898:	add    BYTE PTR [eax],al
  40b89a:	or     bh,BYTE PTR [ebp+0x23]
  40b89d:	add    DWORD PTR [eax],eax
  40b89f:	add    al,0x2
  40b8a1:	jae    0x40b840
  40b8a3:	add    BYTE PTR [eax],al
  40b8a5:	or     bh,BYTE PTR [ebp+0x24]
  40b8a8:	add    DWORD PTR [eax],eax
  40b8aa:	add    al,0x2
  40b8ac:	jae    0x40b84a
  40b8ae:	add    BYTE PTR [eax],al
  40b8b0:	or     bh,BYTE PTR [ebp+0x25]
  40b8b3:	add    DWORD PTR [eax],eax
  40b8b5:	add    al,0x2
  40b8b7:	jae    0x40b855
  40b8b9:	add    BYTE PTR [eax],al
  40b8bb:	or     bh,BYTE PTR [ebp+0x26]
  40b8be:	add    DWORD PTR [eax],eax
  40b8c0:	add    al,0x2
  40b8c2:	jae    0x40b85f
  40b8c4:	add    BYTE PTR [eax],al
  40b8c6:	or     bh,BYTE PTR [ebp+0x28]
  40b8c9:	add    DWORD PTR [eax],eax
  40b8cb:	add    al,0x2
  40b8cd:	jae    0x40b869
  40b8cf:	add    BYTE PTR [eax],al
  40b8d1:	or     bh,BYTE PTR [ebp+0x29]
  40b8d4:	add    DWORD PTR [eax],eax
  40b8d6:	add    al,0x2
  40b8d8:	jae    0x40b873
  40b8da:	add    BYTE PTR [eax],al
  40b8dc:	or     bh,BYTE PTR [ebp+0x2a]
  40b8df:	add    DWORD PTR [eax],eax
  40b8e1:	add    al,0x2
  40b8e3:	jae    0x40b87d
  40b8e5:	add    BYTE PTR [eax],al
  40b8e7:	or     bh,BYTE PTR [ebp+0x46]
  40b8ea:	add    DWORD PTR [eax],eax
  40b8ec:	add    al,0x2
  40b8ee:	jae    0x40b888
  40b8f0:	add    BYTE PTR [eax],al
  40b8f2:	or     bh,BYTE PTR [ebp+0x45]
  40b8f5:	add    DWORD PTR [eax],eax
  40b8f7:	add    al,0x2
  40b8f9:	jae    0x40b892
  40b8fb:	add    BYTE PTR [eax],al
  40b8fd:	or     bh,BYTE PTR [ebp+0x48]
  40b900:	add    DWORD PTR [eax],eax
  40b902:	add    al,0x2
  40b904:	jae    0x40b89d
  40b906:	add    BYTE PTR [eax],al
  40b908:	or     bh,BYTE PTR [ebp+0x47]
  40b90b:	add    DWORD PTR [eax],eax
  40b90d:	add    al,0x2
  40b90f:	jae    0x40b8a7
  40b911:	add    BYTE PTR [eax],al
  40b913:	or     bh,BYTE PTR [ebp+0x44]
  40b916:	add    DWORD PTR [eax],eax
  40b918:	add    al,0x2
  40b91a:	jae    0x40b8b2
  40b91c:	add    BYTE PTR [eax],al
  40b91e:	or     bh,BYTE PTR [ebp+0x43]
  40b921:	add    DWORD PTR [eax],eax
  40b923:	add    al,0x2
  40b925:	jae    0x40b8bc
  40b927:	add    BYTE PTR [eax],al
  40b929:	or     bh,BYTE PTR [ebp+0x40]
  40b92c:	add    DWORD PTR [eax],eax
  40b92e:	add    al,0x2
  40b930:	jae    0x40b8c7
  40b932:	add    BYTE PTR [eax],al
  40b934:	or     bh,BYTE PTR [ebp+0x3f]
  40b937:	add    DWORD PTR [eax],eax
  40b939:	add    al,0x2
  40b93b:	jae    0x40b8d3
  40b93d:	add    BYTE PTR [eax],al
  40b93f:	or     bh,BYTE PTR [ebp+0x3e]
  40b942:	add    DWORD PTR [eax],eax
  40b944:	add    al,0x2
  40b946:	jae    0x40b8de
  40b948:	add    BYTE PTR [eax],al
  40b94a:	or     bh,BYTE PTR [ebp+0x3c]
  40b94d:	add    DWORD PTR [eax],eax
  40b94f:	add    al,0x2
  40b951:	jae    0x40b8ea
  40b953:	add    BYTE PTR [eax],al
  40b955:	or     bh,BYTE PTR [ebp+0x36]
  40b958:	add    DWORD PTR [eax],eax
  40b95a:	add    al,0x2
  40b95c:	jae    0x40b8f6
  40b95e:	add    BYTE PTR [eax],al
  40b960:	or     bh,BYTE PTR [ebp+0x37]
  40b963:	add    DWORD PTR [eax],eax
  40b965:	add    al,0x2
  40b967:	jae    0x40b901
  40b969:	add    BYTE PTR [eax],al
  40b96b:	or     bh,BYTE PTR [ebp+0x38]
  40b96e:	add    DWORD PTR [eax],eax
  40b970:	add    al,0x2
  40b972:	jae    0x40b90b
  40b974:	add    BYTE PTR [eax],al
  40b976:	or     bh,BYTE PTR [ebp+0x39]
  40b979:	add    DWORD PTR [eax],eax
  40b97b:	add    al,0x2
  40b97d:	jae    0x40b917
  40b97f:	add    BYTE PTR [eax],al
  40b981:	or     bh,BYTE PTR [ebp+0x3a]
  40b984:	add    DWORD PTR [eax],eax
  40b986:	add    al,0x2
  40b988:	jae    0x40b921
  40b98a:	add    BYTE PTR [eax],al
  40b98c:	or     bh,BYTE PTR [ebp+0x3b]
  40b98f:	add    DWORD PTR [eax],eax
  40b991:	add    al,0x2
  40b993:	jae    0x40b92b
  40b995:	add    BYTE PTR [eax],al
  40b997:	or     bh,BYTE PTR [ebp+0x35]
  40b99a:	add    DWORD PTR [eax],eax
  40b99c:	add    al,0x2
  40b99e:	jae    0x40b936
  40b9a0:	add    BYTE PTR [eax],al
  40b9a2:	or     bh,BYTE PTR [ebp+0x34]
  40b9a5:	add    DWORD PTR [eax],eax
  40b9a7:	add    al,0x2
  40b9a9:	jae    0x40b941
  40b9ab:	add    BYTE PTR [eax],al
  40b9ad:	or     bh,BYTE PTR [ebp+0x33]
  40b9b0:	add    DWORD PTR [eax],eax
  40b9b2:	add    al,0x2
  40b9b4:	jae    0x40b94c
  40b9b6:	add    BYTE PTR [eax],al
  40b9b8:	or     bh,BYTE PTR [ebp+0x31]
  40b9bb:	add    DWORD PTR [eax],eax
  40b9bd:	add    al,0x2
  40b9bf:	jae    0x40b957
  40b9c1:	add    BYTE PTR [eax],al
  40b9c3:	or     bh,BYTE PTR [ebp+0x30]
  40b9c6:	add    DWORD PTR [eax],eax
  40b9c8:	add    al,0x2
  40b9ca:	jae    0x40b962
  40b9cc:	add    BYTE PTR [eax],al
  40b9ce:	or     bh,BYTE PTR [ebp+0x2f]
  40b9d1:	add    DWORD PTR [eax],eax
  40b9d3:	add    al,0x2
  40b9d5:	jae    0x40b96d
  40b9d7:	add    BYTE PTR [eax],al
  40b9d9:	or     bh,BYTE PTR [ebp+0x27]
  40b9dc:	add    DWORD PTR [eax],eax
  40b9de:	add    al,0x2
  40b9e0:	jae    0x40b97c
  40b9e2:	add    BYTE PTR [eax],al
  40b9e4:	or     bh,BYTE PTR [ebp+0x2b]
  40b9e7:	add    DWORD PTR [eax],eax
  40b9e9:	add    al,0x2
  40b9eb:	jae    0x40b988
  40b9ed:	add    BYTE PTR [eax],al
  40b9ef:	or     bh,BYTE PTR [ebp+0x2c]
  40b9f2:	add    DWORD PTR [eax],eax
  40b9f4:	add    al,0x2
  40b9f6:	jae    0x40b990
  40b9f8:	add    BYTE PTR [eax],al
  40b9fa:	or     bh,BYTE PTR [ebp+0x4c]
  40b9fd:	add    DWORD PTR [eax],eax
  40b9ff:	add    al,0x2
  40ba01:	jae    0x40b99f
  40ba03:	add    BYTE PTR [eax],al
  40ba05:	or     bh,BYTE PTR [ebp+0x2d]
  40ba08:	add    DWORD PTR [eax],eax
  40ba0a:	add    al,0x2
  40ba0c:	jae    0x40b9a8
  40ba0e:	add    BYTE PTR [eax],al
  40ba10:	or     bh,BYTE PTR [ebp+0x4d]
  40ba13:	add    DWORD PTR [eax],eax
  40ba15:	add    al,0x2
  40ba17:	jae    0x40b9b4
  40ba19:	add    BYTE PTR [eax],al
  40ba1b:	or     bh,BYTE PTR [ebp+0x4a]
  40ba1e:	add    DWORD PTR [eax],eax
  40ba20:	add    al,0x2
  40ba22:	jae    0x40b9bc
  40ba24:	add    BYTE PTR [eax],al
  40ba26:	or     bh,BYTE PTR [ebp+0x4b]
  40ba29:	add    DWORD PTR [eax],eax
  40ba2b:	add    al,0x2
  40ba2d:	jae    0x40b9cb
  40ba2f:	add    BYTE PTR [eax],al
  40ba31:	or     bh,BYTE PTR [ebp+0x49]
  40ba34:	add    DWORD PTR [eax],eax
  40ba36:	add    al,0x2
  40ba38:	jae    0x40b9ce
  40ba3a:	add    BYTE PTR [eax],al
  40ba3c:	or     bh,BYTE PTR [ebp+0x2e]
  40ba3f:	add    DWORD PTR [eax],eax
  40ba41:	add    al,0x2
  40ba43:	jae    0x40b9d8
  40ba45:	add    BYTE PTR [eax],al
  40ba47:	or     bh,BYTE PTR [ebp+0x32]
  40ba4a:	add    DWORD PTR [eax],eax
  40ba4c:	add    al,0x2
  40ba4e:	jae    0x40b9e2
  40ba50:	add    BYTE PTR [eax],al
  40ba52:	or     bh,BYTE PTR [ebp+0x3d]
  40ba55:	add    DWORD PTR [eax],eax
  40ba57:	add    al,0x2
  40ba59:	and    eax,0x14e7b
  40ba5e:	add    al,0x73
  40ba60:	sahf   
  40ba61:	add    BYTE PTR [eax],al
  40ba63:	or     bh,BYTE PTR [ebp+0x41]
  40ba66:	add    DWORD PTR [eax],eax
  40ba68:	add    al,0x2
  40ba6a:	jae    0x40b9fd
  40ba6c:	add    BYTE PTR [eax],al
  40ba6e:	or     bh,BYTE PTR [ebp+0x42]
  40ba71:	add    DWORD PTR [eax],eax
  40ba73:	add    al,0x2
  40ba75:	jnp    0x40baa0
  40ba77:	add    DWORD PTR [eax],eax
  40ba79:	add    al,0x28
  40ba7b:	nop
  40ba7c:	add    BYTE PTR [eax],al
  40ba7e:	or     al,BYTE PTR [edx]
  40ba80:	jnp    0x40baac
  40ba82:	add    DWORD PTR [eax],eax
  40ba84:	add    al,0x28
  40ba86:	nop
  40ba87:	add    BYTE PTR [eax],al
  40ba89:	or     al,BYTE PTR [edx]
  40ba8b:	jnp    0x40bad5
  40ba8d:	add    DWORD PTR [eax],eax
  40ba8f:	add    al,0x6f
  40ba91:	pop    DWORD PTR [eax]
  40ba93:	add    BYTE PTR [edx],cl
  40ba95:	add    bh,BYTE PTR [ebx+0x47]
  40ba98:	add    DWORD PTR [eax],eax
  40ba9a:	add    al,0x6f
  40ba9c:	pop    DWORD PTR [eax]
  40ba9e:	add    BYTE PTR [edx],cl
  40baa0:	add    bh,BYTE PTR [ebx+0x36]
  40baa3:	add    DWORD PTR [eax],eax
  40baa5:	add    al,0x6f
  40baa7:	pop    DWORD PTR [eax]
  40baa9:	add    BYTE PTR [edx],cl
  40baab:	add    bh,BYTE PTR [ebx+0x39]
  40baae:	add    DWORD PTR [eax],eax
  40bab0:	add    al,0x6f
  40bab2:	pop    DWORD PTR [eax]
  40bab4:	add    BYTE PTR [edx],cl
  40bab6:	add    bh,BYTE PTR [ebx+0x3b]
  40bab9:	add    DWORD PTR [eax],eax
  40babb:	add    al,0x6f
  40babd:	pop    DWORD PTR [eax]
  40babf:	add    BYTE PTR [edx],cl
  40bac1:	add    bh,BYTE PTR [ebx+0x2b]
  40bac4:	add    DWORD PTR [eax],eax
  40bac6:	add    al,0x28
  40bac8:	nop
  40bac9:	add    BYTE PTR [eax],al
  40bacb:	or     al,BYTE PTR [edx]
  40bacd:	jnp    0x40bb1c
  40bacf:	add    DWORD PTR [eax],eax
  40bad1:	add    al,0x28
  40bad3:	nop
  40bad4:	add    BYTE PTR [eax],al
  40bad6:	or     al,BYTE PTR [edx]
  40bad8:	sub    BYTE PTR [eax+0x20a0000],dl
  40bade:	jnp    0x40bb03
  40bae0:	add    DWORD PTR [eax],eax
  40bae2:	add    al,0x2
  40bae4:	inc    BYTE PTR [esi]
  40bae6:	mov    bh,0x1
  40bae8:	add    BYTE PTR [esi],al
  40baea:	jae    0x40ba79
  40baec:	add    BYTE PTR [eax],al
  40baee:	or     ch,BYTE PTR [eax]
  40baf0:	mov    es,WORD PTR [eax]
  40baf2:	add    BYTE PTR [edx],cl
  40baf4:	add    bh,BYTE PTR [ebx+0x24]
  40baf7:	add    DWORD PTR [eax],eax
  40baf9:	add    al,0x19
  40bafb:	outs   dx,DWORD PTR ds:[esi]
  40bafc:	mov    WORD PTR [eax],es
  40bafe:	add    BYTE PTR [edx],cl
  40bb00:	add    bh,BYTE PTR [ebx+0x24]
  40bb03:	add    DWORD PTR [eax],eax
  40bb05:	add    al,0x16
  40bb07:	sub    BYTE PTR [ebx+0x20a0000],cl
  40bb0d:	jnp    0x40bb33
  40bb0f:	add    DWORD PTR [eax],eax
  40bb11:	add    al,0x15
  40bb13:	sub    BYTE PTR [edx+0x20a0000],cl
  40bb19:	jnp    0x40bb3f
  40bb1b:	add    DWORD PTR [eax],eax
  40bb1d:	add    al,0x1f
  40bb1f:	adc    BYTE PTR [eax],ch
  40bb21:	mov    DWORD PTR [eax],eax
  40bb23:	add    BYTE PTR [edx],cl
  40bb25:	adc    ch,BYTE PTR [edx+0x16]
  40bb28:	push   ss
  40bb29:	sub    BYTE PTR [edi+0x20a0000],al
  40bb2f:	jnp    0x40bb55
  40bb31:	add    DWORD PTR [eax],eax
  40bb33:	add    al,0x11
  40bb35:	push   0x28
  40bb37:	mov    BYTE PTR [eax],al
  40bb39:	add    BYTE PTR [edx],cl
  40bb3b:	add    bh,BYTE PTR [ebx+0x24]
  40bb3e:	add    DWORD PTR [eax],eax
  40bb40:	add    al,0x72
  40bb42:	add    DWORD PTR [eax],eax
  40bb44:	add    BYTE PTR [eax+0x28],dh
  40bb47:	xchg   BYTE PTR [eax],al
  40bb49:	add    BYTE PTR [edx],cl
  40bb4b:	add    bh,BYTE PTR [ebx+0x24]
  40bb4e:	add    DWORD PTR [eax],eax
  40bb50:	add    al,0x15
  40bb52:	sub    BYTE PTR [ebp+0x120a0000],al
  40bb58:	imul   esp,DWORD PTR [eax],0xc8
  40bb5e:	and    dh,bh
  40bb60:	add    al,BYTE PTR [eax]
  40bb62:	add    BYTE PTR [eax],ch
  40bb64:	add    DWORD PTR [eax],0x0
  40bb67:	or     al,BYTE PTR [edx]
  40bb69:	jnp    0x40bb8f
  40bb6b:	add    DWORD PTR [eax],eax
  40bb6d:	add    al,0x11
  40bb6f:	imul   ebp,DWORD PTR [eax],0xa000084
  40bb75:	add    bh,BYTE PTR [ebx+0x24]
  40bb78:	add    DWORD PTR [eax],eax
  40bb7a:	add    al,0x1d
  40bb7c:	sub    BYTE PTR [edx+0x20a0000],al
  40bb82:	jnp    0x40bba8
  40bb84:	add    DWORD PTR [eax],eax
  40bb86:	add    al,0x2
  40bb88:	inc    BYTE PTR [esi]
  40bb8a:	rol    BYTE PTR [ecx],cl
  40bb8c:	add    BYTE PTR [esi],al
  40bb8e:	jae    0x40bb10
  40bb90:	add    BYTE PTR [eax],al
  40bb92:	or     ch,BYTE PTR [eax]
  40bb94:	add    DWORD PTR [eax],0x7b020a00
  40bb9a:	and    al,0x1
  40bb9c:	add    BYTE PTR [edx+eax*1],al
  40bb9f:	inc    BYTE PTR [esi]
  40bba1:	mov    ah,0x1
  40bba3:	add    BYTE PTR [esi],al
  40bba5:	jae    0x40bb34
  40bba7:	add    BYTE PTR [eax],al
  40bba9:	or     ch,BYTE PTR [eax]
  40bbab:	jg     0x40bbad
  40bbad:	add    BYTE PTR [edx],cl
  40bbaf:	add    bh,BYTE PTR [ebx+0x24]
  40bbb2:	add    DWORD PTR [eax],eax
  40bbb4:	add    al,0x2
  40bbb6:	inc    BYTE PTR [esi]
  40bbb8:	rol    BYTE PTR [ecx],1
  40bbba:	add    BYTE PTR [esi],al
  40bbbc:	jae    0x40bb4b
  40bbbe:	add    BYTE PTR [eax],al
  40bbc0:	or     ch,BYTE PTR [eax]
  40bbc2:	jle    0x40bbc4
  40bbc4:	add    BYTE PTR [edx],cl
  40bbc6:	sub    BYTE PTR [eax+eax*1+0x0],bh
  40bbca:	or     dl,BYTE PTR [ebx]
  40bbcc:	push   0x1257b02
  40bbd1:	add    BYTE PTR [ecx+edx*1],al
  40bbd4:	push   0x7d6f
  40bbd9:	or     al,BYTE PTR [edx]
  40bbdb:	jnp    0x40bc02
  40bbdd:	add    DWORD PTR [eax],eax
  40bbdf:	add    al,0x17
  40bbe1:	sub    BYTE PTR [ebx+0x0],bh
  40bbe4:	add    BYTE PTR [edx],cl
  40bbe6:	adc    ah,BYTE PTR [edi+0x20]
  40bbe9:	enter  0x0,0x0
  40bbed:	push   ss
  40bbee:	sub    BYTE PTR [edi+0x20a0000],al
  40bbf4:	jnp    0x40bc1b
  40bbf6:	add    DWORD PTR [eax],eax
  40bbf8:	add    al,0x11
  40bbfa:	sub    BYTE PTR [bx+si+0x0],cl
  40bbff:	or     al,BYTE PTR [edx]
  40bc01:	jnp    0x40bc28
  40bc03:	add    DWORD PTR [eax],eax
  40bc05:	add    al,0x72
  40bc07:	adc    eax,DWORD PTR [eax]
  40bc09:	add    BYTE PTR [eax+0x28],dh
  40bc0c:	xchg   BYTE PTR [eax],al
  40bc0e:	add    BYTE PTR [edx],cl
  40bc10:	adc    ah,BYTE PTR [esi+0x1c]
  40bc13:	and    dh,bh
  40bc15:	add    al,BYTE PTR [eax]
  40bc17:	add    BYTE PTR [eax],ch
  40bc19:	add    DWORD PTR [eax],0x0
  40bc1c:	or     al,BYTE PTR [edx]
  40bc1e:	jnp    0x40bc45
  40bc20:	add    DWORD PTR [eax],eax
  40bc22:	add    al,0x11
  40bc24:	data16 sub BYTE PTR [eax+eax*1+0x7b020a00],al
  40bc2c:	and    eax,0x1e040001
  40bc31:	sub    BYTE PTR [edx+0x20a0000],al
  40bc37:	jnp    0x40bc5e
  40bc39:	add    DWORD PTR [eax],eax
  40bc3b:	add    al,0x16
  40bc3d:	sub    BYTE PTR [edx+0x0],bh
  40bc40:	add    BYTE PTR [edx],cl
  40bc42:	sub    BYTE PTR [eax+eax*1+0x0],bh
  40bc46:	or     dl,BYTE PTR [ebx]
  40bc48:	add    bh,BYTE PTR gs:[ebx+0x26]
  40bc4c:	add    DWORD PTR [eax],eax
  40bc4e:	add    al,0x11
  40bc50:	outs   dx,DWORD PTR gs:[esi]
  40bc52:	jge    0x40bc54
  40bc54:	add    BYTE PTR [edx],cl
  40bc56:	add    bh,BYTE PTR [ebx+0x26]
  40bc59:	add    DWORD PTR [eax],eax
  40bc5b:	add    al,0x17
  40bc5d:	sub    BYTE PTR [ebx+0x0],bh
  40bc60:	add    BYTE PTR [edx],cl
  40bc62:	add    bh,BYTE PTR [ebx+0x26]
  40bc65:	add    DWORD PTR [eax],eax
  40bc67:	add    al,0x17
  40bc69:	outs   dx,DWORD PTR ds:[esi]
  40bc6a:	jns    0x40bc6c
  40bc6c:	add    BYTE PTR [edx],cl
  40bc6e:	adc    ah,BYTE PTR [eax+eiz*1-0x32]
  40bc72:	add    BYTE PTR [eax],al
  40bc74:	add    BYTE PTR [eax],ah
  40bc76:	add    BYTE PTR [ecx],al
  40bc78:	add    BYTE PTR [eax],al
  40bc7a:	sub    BYTE PTR [edi+0x20a0000],al
  40bc80:	jnp    0x40bca8
  40bc82:	add    DWORD PTR [eax],eax
  40bc84:	add    al,0x11
  40bc86:	sub    BYTE PTR fs:[eax+0x20a0000],cl
  40bc8d:	jnp    0x40bcb5
  40bc8f:	add    DWORD PTR [eax],eax
  40bc91:	add    al,0x72
  40bc93:	daa    
  40bc94:	add    BYTE PTR [eax],al
  40bc96:	jo     0x40bcc0
  40bc98:	xchg   BYTE PTR [eax],al
  40bc9a:	add    BYTE PTR [edx],cl
  40bc9c:	adc    ah,BYTE PTR [ebx+0x20]
  40bc9f:	cmp    al,BYTE PTR [ebx]
  40bca1:	add    BYTE PTR [eax],al
  40bca3:	sbb    al,0x28
  40bca5:	add    DWORD PTR [eax],0x0
  40bca8:	or     al,BYTE PTR [edx]
  40bcaa:	jnp    0x40bcd2
  40bcac:	add    DWORD PTR [eax],eax
  40bcae:	add    al,0x11
  40bcb0:	arpl   WORD PTR [eax],bp
  40bcb2:	test   BYTE PTR [eax],al
  40bcb4:	add    BYTE PTR [edx],cl
  40bcb6:	add    bh,BYTE PTR [ebx+0x26]
  40bcb9:	add    DWORD PTR [eax],eax
  40bcbb:	add    al,0x1f
  40bcbd:	or     eax,0x8228
  40bcc2:	or     al,BYTE PTR [edx]
  40bcc4:	jnp    0x40bcec
  40bcc6:	add    DWORD PTR [eax],eax
  40bcc8:	add    al,0x16
  40bcca:	sub    BYTE PTR [edx+0x0],bh
  40bccd:	add    BYTE PTR [edx],cl
  40bccf:	add    bh,BYTE PTR [ebx+0x28]
  40bcd2:	add    DWORD PTR [eax],eax
  40bcd4:	add    al,0x1b
  40bcd6:	outs   dx,DWORD PTR ds:[esi]
  40bcd7:	mov    WORD PTR [eax],es
  40bcd9:	add    BYTE PTR [edx],cl
  40bcdb:	adc    ah,BYTE PTR [edx+0x20]
  40bcde:	into   
  40bcdf:	add    BYTE PTR [eax],al
  40bce1:	add    BYTE PTR [eax],ah
  40bce3:	add    BYTE PTR [ecx],al
  40bce5:	add    BYTE PTR [eax],al
  40bce7:	sub    BYTE PTR [edi+0x20a0000],al
  40bced:	jnp    0x40bd17
  40bcef:	add    DWORD PTR [eax],eax
  40bcf1:	add    al,0x11
  40bcf3:	bound  ebp,QWORD PTR [eax]
  40bcf5:	mov    BYTE PTR [eax],al
  40bcf7:	add    BYTE PTR [edx],cl
  40bcf9:	add    bh,BYTE PTR [ebx+0x28]
  40bcfc:	add    DWORD PTR [eax],eax
  40bcfe:	add    al,0x72
  40bd00:	cmp    eax,DWORD PTR [eax]
  40bd02:	add    BYTE PTR [eax+0x28],dh
  40bd05:	xchg   BYTE PTR [eax],al
  40bd07:	add    BYTE PTR [edx],cl
  40bd09:	adc    ah,BYTE PTR [ecx+0x20]
  40bd0c:	cmp    al,BYTE PTR [ebx]
  40bd0e:	add    BYTE PTR [eax],al
  40bd10:	and    dh,bh
  40bd12:	add    DWORD PTR [eax],eax
  40bd14:	add    BYTE PTR [eax],ch
  40bd16:	add    DWORD PTR [eax],0x0
  40bd19:	or     al,BYTE PTR [edx]
  40bd1b:	jnp    0x40bd45
  40bd1d:	add    DWORD PTR [eax],eax
  40bd1f:	add    al,0x11
  40bd21:	popa   
  40bd22:	sub    BYTE PTR [eax+eax*1+0x7b020a00],al
  40bd29:	sub    BYTE PTR [ecx],al
  40bd2b:	add    BYTE PTR [edi+ebx*1],al
  40bd2e:	movaps xmm7,XMMWORD PTR [eax+0x0]
  40bd32:	add    BYTE PTR [edx],cl
  40bd34:	add    bh,BYTE PTR [ebx+0x28]
  40bd37:	add    DWORD PTR [eax],eax
  40bd39:	add    al,0x16
  40bd3b:	sub    BYTE PTR [edi+0x0],dh
  40bd3e:	add    BYTE PTR [edx],cl
  40bd40:	add    bh,BYTE PTR [ebx+0x28]
  40bd43:	add    DWORD PTR [eax],eax
  40bd45:	add    al,0x2
  40bd47:	inc    BYTE PTR [esi]
  40bd49:	mov    ecx,0x73060001
  40bd4e:	jne    0x40bd50
  40bd50:	add    BYTE PTR [edx],cl
  40bd52:	sub    BYTE PTR [esi+0x0],dh
  40bd55:	add    BYTE PTR [edx],cl
  40bd57:	add    bh,BYTE PTR [ebx+0x28]
  40bd5a:	add    DWORD PTR [eax],eax
  40bd5c:	add    al,0x2
  40bd5e:	inc    BYTE PTR [esi]
  40bd60:	mov    eax,0x73060001
  40bd65:	jne    0x40bd67
  40bd67:	add    BYTE PTR [edx],cl
  40bd69:	sub    BYTE PTR [eax+eax*1+0x0],dh
  40bd6d:	or     al,BYTE PTR [edx]
  40bd6f:	jnp    0x40bd99
  40bd71:	add    DWORD PTR [eax],eax
  40bd73:	add    al,0x2
  40bd75:	inc    BYTE PTR [esi]
  40bd77:	mov    edx,0x73060001
  40bd7c:	jne    0x40bd7e
  40bd7e:	add    BYTE PTR [edx],cl
  40bd80:	sub    BYTE PTR [ebx+0x0],dh
  40bd83:	add    BYTE PTR [edx],cl
  40bd85:	add    bh,BYTE PTR [ebx+0x28]
  40bd88:	add    DWORD PTR [eax],eax
  40bd8a:	add    al,0x2
  40bd8c:	inc    BYTE PTR [esi]
  40bd8e:	mov    ebx,0x73060001
  40bd93:	jne    0x40bd95
  40bd95:	add    BYTE PTR [edx],cl
  40bd97:	sub    BYTE PTR [edx+0x0],dh
  40bd9a:	add    BYTE PTR [edx],cl
  40bd9c:	add    bh,BYTE PTR [ebx+0x29]
  40bd9f:	add    DWORD PTR [eax],eax
  40bda1:	add    al,0x28
  40bda3:	jo     0x40bda5
  40bda5:	add    BYTE PTR [edx],cl
  40bda7:	add    bh,BYTE PTR [ebx+0x2a]
  40bdaa:	add    DWORD PTR [eax],eax
  40bdac:	add    al,0x6f
  40bdae:	jno    0x40bdb0
  40bdb0:	add    BYTE PTR [edx],cl
  40bdb2:	add    bh,BYTE PTR [ebx+0x29]
  40bdb5:	add    DWORD PTR [eax],eax
  40bdb7:	add    al,0x28
  40bdb9:	jo     0x40bdbb
  40bdbb:	add    BYTE PTR [edx],cl
  40bdbd:	add    bh,BYTE PTR [ebx+0x2b]
  40bdc0:	add    DWORD PTR [eax],eax
  40bdc2:	add    al,0x6f
  40bdc4:	jno    0x40bdc6
  40bdc6:	add    BYTE PTR [edx],cl
  40bdc8:	add    bh,BYTE PTR [ebx+0x29]
  40bdcb:	add    DWORD PTR [eax],eax
  40bdcd:	add    al,0x28
  40bdcf:	jo     0x40bdd1
  40bdd1:	add    BYTE PTR [edx],cl
  40bdd3:	add    bh,BYTE PTR [ebx+0x4d]
  40bdd6:	add    DWORD PTR [eax],eax
  40bdd8:	add    al,0x6f
  40bdda:	jno    0x40bddc
  40bddc:	add    BYTE PTR [edx],cl
  40bdde:	add    bh,BYTE PTR [ebx+0x29]
  40bde1:	add    DWORD PTR [eax],eax
  40bde3:	add    al,0x17
  40bde5:	outs   dx,DWORD PTR ds:[esi]
  40bde6:	mov    WORD PTR [eax],es
  40bde8:	add    BYTE PTR [edx],cl
  40bdea:	adc    ah,BYTE PTR [eax+0x20]
  40bded:	into   
  40bdee:	add    BYTE PTR [eax],al
  40bdf0:	add    BYTE PTR [esi],dl
  40bdf2:	sub    BYTE PTR [edi+0x20a0000],al
  40bdf8:	jnp    0x40be23
  40bdfa:	add    DWORD PTR [eax],eax
  40bdfc:	add    al,0x11
  40bdfe:	pusha  
  40bdff:	sub    BYTE PTR [eax+0x20a0000],cl
  40be05:	jnp    0x40be30
  40be07:	add    DWORD PTR [eax],eax
  40be09:	add    al,0x72
  40be0b:	push   ebp
  40be0c:	add    BYTE PTR [eax],al
  40be0e:	jo     0x40be38
  40be10:	xchg   BYTE PTR [eax],al
  40be12:	add    BYTE PTR [edx],cl
  40be14:	adc    bl,BYTE PTR [edi+0x20]
  40be17:	cmp    al,BYTE PTR [ebx]
  40be19:	add    BYTE PTR [eax],al
  40be1b:	and    BYTE PTR [eax],al
  40be1d:	add    DWORD PTR [eax],eax
  40be1f:	add    BYTE PTR [eax],ch
  40be21:	add    DWORD PTR [eax],0x0
  40be24:	or     al,BYTE PTR [edx]
  40be26:	jnp    0x40be51
  40be28:	add    DWORD PTR [eax],eax
  40be2a:	add    al,0x11
  40be2c:	pop    edi
  40be2d:	sub    BYTE PTR [eax+eax*1+0x7b020a00],al
  40be34:	sub    DWORD PTR [ecx],eax
  40be36:	add    BYTE PTR [edi+ebx*1],al
  40be39:	adc    DWORD PTR [eax],ebp
  40be3b:	add    BYTE PTR [eax],0x0
  40be3e:	or     al,BYTE PTR [edx]
  40be40:	jnp    0x40be6c
  40be42:	add    DWORD PTR [eax],eax
  40be44:	add    al,0x28
  40be46:	jo     0x40be48
  40be48:	add    BYTE PTR [edx],cl
  40be4a:	add    bh,BYTE PTR [ebx+0x46]
  40be4d:	add    DWORD PTR [eax],eax
  40be4f:	add    al,0x6f
  40be51:	jno    0x40be53
  40be53:	add    BYTE PTR [edx],cl
  40be55:	add    bh,BYTE PTR [ebx+0x2a]
  40be58:	add    DWORD PTR [eax],eax
  40be5a:	add    al,0x28
  40be5c:	jo     0x40be5e
  40be5e:	add    BYTE PTR [edx],cl
  40be60:	add    bh,BYTE PTR [ebx+0x45]
  40be63:	add    DWORD PTR [eax],eax
  40be65:	add    al,0x6f
  40be67:	jno    0x40be69
  40be69:	add    BYTE PTR [edx],cl
  40be6b:	add    bh,BYTE PTR [ebx+0x2a]
  40be6e:	add    DWORD PTR [eax],eax
  40be70:	add    al,0x28
  40be72:	jo     0x40be74
  40be74:	add    BYTE PTR [edx],cl
  40be76:	add    bh,BYTE PTR [ebx+0x48]
  40be79:	add    DWORD PTR [eax],eax
  40be7b:	add    al,0x6f
  40be7d:	jno    0x40be7f
  40be7f:	add    BYTE PTR [edx],cl
  40be81:	add    bh,BYTE PTR [ebx+0x2a]
  40be84:	add    DWORD PTR [eax],eax
  40be86:	add    al,0x28
  40be88:	jo     0x40be8a
  40be8a:	add    BYTE PTR [edx],cl
  40be8c:	add    bh,BYTE PTR [ebx+0x47]
  40be8f:	add    DWORD PTR [eax],eax
  40be91:	add    al,0x6f
  40be93:	jno    0x40be95
  40be95:	add    BYTE PTR [edx],cl
  40be97:	add    bh,BYTE PTR [ebx+0x2a]
  40be9a:	add    DWORD PTR [eax],eax
  40be9c:	add    al,0x28
  40be9e:	jo     0x40bea0
  40bea0:	add    BYTE PTR [edx],cl
  40bea2:	add    bh,BYTE PTR [ebx+0x44]
  40bea5:	add    DWORD PTR [eax],eax
  40bea7:	add    al,0x6f
  40bea9:	jno    0x40beab
  40beab:	add    BYTE PTR [edx],cl
  40bead:	add    bh,BYTE PTR [ebx+0x2a]
  40beb0:	add    DWORD PTR [eax],eax
  40beb2:	add    al,0x28
  40beb4:	jo     0x40beb6
  40beb6:	add    BYTE PTR [edx],cl
  40beb8:	add    bh,BYTE PTR [ebx+0x43]
  40bebb:	add    DWORD PTR [eax],eax
  40bebd:	add    al,0x6f
  40bebf:	jno    0x40bec1
  40bec1:	add    BYTE PTR [edx],cl
  40bec3:	add    bh,BYTE PTR [ebx+0x2a]
  40bec6:	add    DWORD PTR [eax],eax
  40bec8:	add    al,0x28
  40beca:	jo     0x40becc
  40becc:	add    BYTE PTR [edx],cl
  40bece:	add    bh,BYTE PTR [ebx+0x40]
  40bed1:	add    DWORD PTR [eax],eax
  40bed3:	add    al,0x6f
  40bed5:	jno    0x40bed7
  40bed7:	add    BYTE PTR [edx],cl
  40bed9:	add    bh,BYTE PTR [ebx+0x2a]
  40bedc:	add    DWORD PTR [eax],eax
  40bede:	add    al,0x28
  40bee0:	jo     0x40bee2
  40bee2:	add    BYTE PTR [edx],cl
  40bee4:	add    bh,BYTE PTR [ebx+0x3f]
  40bee7:	add    DWORD PTR [eax],eax
  40bee9:	add    al,0x6f
  40beeb:	jno    0x40beed
  40beed:	add    BYTE PTR [edx],cl
  40beef:	add    bh,BYTE PTR [ebx+0x2a]
  40bef2:	add    DWORD PTR [eax],eax
  40bef4:	add    al,0x28
  40bef6:	jo     0x40bef8
  40bef8:	add    BYTE PTR [edx],cl
  40befa:	add    bh,BYTE PTR [ebx+0x3e]
  40befd:	add    DWORD PTR [eax],eax
  40beff:	add    al,0x6f
  40bf01:	jno    0x40bf03
  40bf03:	add    BYTE PTR [edx],cl
  40bf05:	add    bh,BYTE PTR [ebx+0x2a]
  40bf08:	add    DWORD PTR [eax],eax
  40bf0a:	add    al,0x28
  40bf0c:	jo     0x40bf0e
  40bf0e:	add    BYTE PTR [edx],cl
  40bf10:	add    bh,BYTE PTR [ebx+0x3c]
  40bf13:	add    DWORD PTR [eax],eax
  40bf15:	add    al,0x6f
  40bf17:	jno    0x40bf19
  40bf19:	add    BYTE PTR [edx],cl
  40bf1b:	add    bh,BYTE PTR [ebx+0x2a]
  40bf1e:	add    DWORD PTR [eax],eax
  40bf20:	add    al,0x28
  40bf22:	jo     0x40bf24
  40bf24:	add    BYTE PTR [edx],cl
  40bf26:	add    bh,BYTE PTR [ebx+0x36]
  40bf29:	add    DWORD PTR [eax],eax
  40bf2b:	add    al,0x6f
  40bf2d:	jno    0x40bf2f
  40bf2f:	add    BYTE PTR [edx],cl
  40bf31:	add    bh,BYTE PTR [ebx+0x2a]
  40bf34:	add    DWORD PTR [eax],eax
  40bf36:	add    al,0x28
  40bf38:	jo     0x40bf3a
  40bf3a:	add    BYTE PTR [edx],cl
  40bf3c:	add    bh,BYTE PTR [ebx+0x37]
  40bf3f:	add    DWORD PTR [eax],eax
  40bf41:	add    al,0x6f
  40bf43:	jno    0x40bf45
  40bf45:	add    BYTE PTR [edx],cl
  40bf47:	add    bh,BYTE PTR [ebx+0x2a]
  40bf4a:	add    DWORD PTR [eax],eax
  40bf4c:	add    al,0x28
  40bf4e:	jo     0x40bf50
  40bf50:	add    BYTE PTR [edx],cl
  40bf52:	add    bh,BYTE PTR [ebx+0x38]
  40bf55:	add    DWORD PTR [eax],eax
  40bf57:	add    al,0x6f
  40bf59:	jno    0x40bf5b
  40bf5b:	add    BYTE PTR [edx],cl
  40bf5d:	add    bh,BYTE PTR [ebx+0x2a]
  40bf60:	add    DWORD PTR [eax],eax
  40bf62:	add    al,0x28
  40bf64:	jo     0x40bf66
  40bf66:	add    BYTE PTR [edx],cl
  40bf68:	add    bh,BYTE PTR [ebx+0x39]
  40bf6b:	add    DWORD PTR [eax],eax
  40bf6d:	add    al,0x6f
  40bf6f:	jno    0x40bf71
  40bf71:	add    BYTE PTR [edx],cl
  40bf73:	add    bh,BYTE PTR [ebx+0x2a]
  40bf76:	add    DWORD PTR [eax],eax
  40bf78:	add    al,0x28
  40bf7a:	jo     0x40bf7c
  40bf7c:	add    BYTE PTR [edx],cl
  40bf7e:	add    bh,BYTE PTR [ebx+0x3a]
  40bf81:	add    DWORD PTR [eax],eax
  40bf83:	add    al,0x6f
  40bf85:	jno    0x40bf87
  40bf87:	add    BYTE PTR [edx],cl
  40bf89:	add    bh,BYTE PTR [ebx+0x2a]
  40bf8c:	add    DWORD PTR [eax],eax
  40bf8e:	add    al,0x28
  40bf90:	jo     0x40bf92
  40bf92:	add    BYTE PTR [edx],cl
  40bf94:	add    bh,BYTE PTR [ebx+0x3b]
  40bf97:	add    DWORD PTR [eax],eax
  40bf99:	add    al,0x6f
  40bf9b:	jno    0x40bf9d
  40bf9d:	add    BYTE PTR [edx],cl
  40bf9f:	add    bh,BYTE PTR [ebx+0x2a]
  40bfa2:	add    DWORD PTR [eax],eax
  40bfa4:	add    al,0x28
  40bfa6:	jo     0x40bfa8
  40bfa8:	add    BYTE PTR [edx],cl
  40bfaa:	add    bh,BYTE PTR [ebx+0x35]
  40bfad:	add    DWORD PTR [eax],eax
  40bfaf:	add    al,0x6f
  40bfb1:	jno    0x40bfb3
  40bfb3:	add    BYTE PTR [edx],cl
  40bfb5:	add    bh,BYTE PTR [ebx+0x2a]
  40bfb8:	add    DWORD PTR [eax],eax
  40bfba:	add    al,0x28
  40bfbc:	jo     0x40bfbe
  40bfbe:	add    BYTE PTR [edx],cl
  40bfc0:	add    bh,BYTE PTR [ebx+0x34]
  40bfc3:	add    DWORD PTR [eax],eax
  40bfc5:	add    al,0x6f
  40bfc7:	jno    0x40bfc9
  40bfc9:	add    BYTE PTR [edx],cl
  40bfcb:	add    bh,BYTE PTR [ebx+0x2a]
  40bfce:	add    DWORD PTR [eax],eax
  40bfd0:	add    al,0x28
  40bfd2:	jo     0x40bfd4
  40bfd4:	add    BYTE PTR [edx],cl
  40bfd6:	add    bh,BYTE PTR [ebx+0x33]
  40bfd9:	add    DWORD PTR [eax],eax
  40bfdb:	add    al,0x6f
  40bfdd:	jno    0x40bfdf
  40bfdf:	add    BYTE PTR [edx],cl
  40bfe1:	add    bh,BYTE PTR [ebx+0x2a]
  40bfe4:	add    DWORD PTR [eax],eax
  40bfe6:	add    al,0x28
  40bfe8:	jo     0x40bfea
  40bfea:	add    BYTE PTR [edx],cl
  40bfec:	add    bh,BYTE PTR [ebx+0x31]
  40bfef:	add    DWORD PTR [eax],eax
  40bff1:	add    al,0x6f
  40bff3:	jno    0x40bff5
  40bff5:	add    BYTE PTR [edx],cl
  40bff7:	add    bh,BYTE PTR [ebx+0x2a]
  40bffa:	add    DWORD PTR [eax],eax
  40bffc:	add    al,0x28
  40bffe:	jo     0x40c000
  40c000:	add    BYTE PTR [edx],cl
  40c002:	add    bh,BYTE PTR [ebx+0x30]
  40c005:	add    DWORD PTR [eax],eax
  40c007:	add    al,0x6f
  40c009:	jno    0x40c00b
  40c00b:	add    BYTE PTR [edx],cl
  40c00d:	add    bh,BYTE PTR [ebx+0x2a]
  40c010:	add    DWORD PTR [eax],eax
  40c012:	add    al,0x28
  40c014:	jo     0x40c016
  40c016:	add    BYTE PTR [edx],cl
  40c018:	add    bh,BYTE PTR [ebx+0x2f]
  40c01b:	add    DWORD PTR [eax],eax
  40c01d:	add    al,0x6f
  40c01f:	jno    0x40c021
  40c021:	add    BYTE PTR [edx],cl
  40c023:	add    bh,BYTE PTR [ebx+0x2a]
  40c026:	add    DWORD PTR [eax],eax
  40c028:	add    al,0x28
  40c02a:	jo     0x40c02c
  40c02c:	add    BYTE PTR [edx],cl
  40c02e:	add    bh,BYTE PTR [ebx+0x27]
  40c031:	add    DWORD PTR [eax],eax
  40c033:	add    al,0x6f
  40c035:	jno    0x40c037
  40c037:	add    BYTE PTR [edx],cl
  40c039:	adc    bl,BYTE PTR [esi+0x20]
  40c03c:	or     BYTE PTR [ecx],al
  40c03e:	add    BYTE PTR [eax],al
  40c040:	push   ss
  40c041:	sub    BYTE PTR [edi+0x20a0000],al
  40c047:	jnp    0x40c073
  40c049:	add    DWORD PTR [eax],eax
  40c04b:	add    al,0x11
  40c04d:	pop    esi
  40c04e:	sub    BYTE PTR [eax+0x20a0000],cl
  40c054:	jnp    0x40c080
  40c056:	add    DWORD PTR [eax],eax
  40c058:	add    al,0x72
  40c05a:	jno    0x40c05c
  40c05c:	add    BYTE PTR [eax+0x28],dh
  40c05f:	xchg   BYTE PTR [eax],al
  40c061:	add    BYTE PTR [edx],cl
  40c063:	adc    bl,BYTE PTR [ebp+0x20]
  40c066:	xor    BYTE PTR [ecx],al
  40c068:	add    BYTE PTR [eax],al
  40c06a:	and    BYTE PTR [eax],al
  40c06c:	add    DWORD PTR [eax],eax
  40c06e:	add    BYTE PTR [eax],ch
  40c070:	add    DWORD PTR [eax],0x0
  40c073:	or     al,BYTE PTR [edx]
  40c075:	jnp    0x40c0a1
  40c077:	add    DWORD PTR [eax],eax
  40c079:	add    al,0x11
  40c07b:	pop    ebp
  40c07c:	sub    BYTE PTR [eax+eax*1+0x7b020a00],al
  40c083:	sub    al,BYTE PTR [ecx]
  40c085:	add    BYTE PTR [edi+ebx*1],al
  40c088:	push   ss
  40c089:	sub    BYTE PTR [edx+0x20a0000],al
  40c08f:	jnp    0x40c0bb
  40c091:	add    DWORD PTR [eax],eax
  40c093:	add    al,0x16
  40c095:	sub    BYTE PTR [edi+0x0],ch
  40c098:	add    BYTE PTR [edx],cl
  40c09a:	add    bh,BYTE PTR [ebx+0x2a]
  40c09d:	add    DWORD PTR [eax],eax
  40c09f:	add    al,0x72
  40c0a1:	xchg   ebp,eax
  40c0a2:	add    BYTE PTR [eax],al
  40c0a4:	jo     0x40c115
  40c0a6:	outs   dx,BYTE PTR ds:[esi]
  40c0a7:	add    BYTE PTR [eax],al
  40c0a9:	or     dl,BYTE PTR [edx]
  40c0ab:	pop    esp
  40c0ac:	and    BYTE PTR [eax+0x20000000],ch
  40c0b2:	add    BYTE PTR [eax],0x0
  40c0b5:	add    BYTE PTR [eax],ch
  40c0b7:	xchg   DWORD PTR [eax],eax
  40c0b9:	add    BYTE PTR [edx],cl
  40c0bb:	add    bh,BYTE PTR [ebx+0x46]
  40c0be:	add    DWORD PTR [eax],eax
  40c0c0:	add    al,0x11
  40c0c2:	pop    esp
  40c0c3:	sub    BYTE PTR [eax+0x20a0000],cl
  40c0c9:	jnp    0x40c111
  40c0cb:	add    DWORD PTR [eax],eax
  40c0cd:	add    al,0x72
  40c0cf:	movs   DWORD PTR es:[edi],DWORD PTR ds:[esi]
  40c0d0:	add    BYTE PTR [eax],al
  40c0d2:	jo     0x40c0fc
  40c0d4:	xchg   BYTE PTR [eax],al
  40c0d6:	add    BYTE PTR [edx],cl
  40c0d8:	adc    bl,BYTE PTR [ebx+0x1f]
  40c0db:	dec    eax
  40c0dc:	pop    ds
  40c0dd:	adc    BYTE PTR [eax],ch
  40c0df:	add    DWORD PTR [eax],0x0
  40c0e2:	or     al,BYTE PTR [edx]
  40c0e4:	jnp    0x40c12c
  40c0e6:	add    DWORD PTR [eax],eax
  40c0e8:	add    al,0x11
  40c0ea:	pop    ebx
  40c0eb:	sub    BYTE PTR [eax+eax*1+0x7b020a00],al
  40c0f2:	inc    esi
  40c0f3:	add    DWORD PTR [eax],eax
  40c0f5:	add    al,0x1f
  40c0f7:	sub    al,0x28
  40c0f9:	add    BYTE PTR [eax],0x0
  40c0fc:	or     al,BYTE PTR [edx]
  40c0fe:	jnp    0x40c146
  40c100:	add    DWORD PTR [eax],eax
  40c102:	add    al,0x72
  40c104:	mov    bl,0x0
  40c106:	add    BYTE PTR [eax+0x6f],dh
  40c109:	ins    DWORD PTR es:[edi],dx
  40c10a:	add    BYTE PTR [eax],al
  40c10c:	or     dl,BYTE PTR [edx]
  40c10e:	pop    edx
  40c10f:	pop    ds
  40c110:	sbb    BYTE PTR [eax],ah
  40c112:	add    BYTE PTR [eax],0x0
  40c115:	add    BYTE PTR [eax],ch
  40c117:	xchg   DWORD PTR [eax],eax
  40c119:	add    BYTE PTR [edx],cl
  40c11b:	add    bh,BYTE PTR [ebx+0x45]
  40c11e:	add    DWORD PTR [eax],eax
  40c120:	add    al,0x11
  40c122:	pop    edx
  40c123:	sub    BYTE PTR [eax+0x20a0000],cl
  40c129:	jnp    0x40c170
  40c12b:	add    DWORD PTR [eax],eax
  40c12d:	add    al,0x72
  40c12f:	retf   
  40c130:	add    BYTE PTR [eax],al
  40c132:	jo     0x40c15c
  40c134:	xchg   BYTE PTR [eax],al
  40c136:	add    BYTE PTR [edx],cl
  40c138:	adc    bl,BYTE PTR [ecx+0x1f]
  40c13b:	push   eax
  40c13c:	pop    ds
  40c13d:	adc    BYTE PTR [eax],ch
  40c13f:	add    DWORD PTR [eax],0x0
  40c142:	or     al,BYTE PTR [edx]
  40c144:	jnp    0x40c18b
  40c146:	add    DWORD PTR [eax],eax
  40c148:	add    al,0x11
  40c14a:	pop    ecx
  40c14b:	sub    BYTE PTR [eax+eax*1+0x7b020a00],al
  40c152:	inc    ebp
  40c153:	add    DWORD PTR [eax],eax
  40c155:	add    al,0x1f
  40c157:	sub    ebp,DWORD PTR [eax]
  40c159:	add    BYTE PTR [eax],0x0
  40c15c:	or     al,BYTE PTR [edx]
  40c15e:	jnp    0x40c1a5
  40c160:	add    DWORD PTR [eax],eax
  40c162:	add    al,0x72
  40c164:	fld    DWORD PTR [eax]
  40c166:	add    BYTE PTR [eax+0x6f],dh
  40c169:	ins    DWORD PTR es:[edi],dx
  40c16a:	add    BYTE PTR [eax],al
  40c16c:	or     dl,BYTE PTR [edx]
  40c16e:	pop    eax
  40c16f:	pop    ds
  40c170:	jo     0x40c192
  40c172:	add    BYTE PTR [eax],0x0
  40c175:	add    BYTE PTR [eax],ch
  40c177:	xchg   DWORD PTR [eax],eax
  40c179:	add    BYTE PTR [edx],cl
  40c17b:	add    bh,BYTE PTR [ebx+0x48]
  40c17e:	add    DWORD PTR [eax],eax
  40c180:	add    al,0x11
  40c182:	pop    eax
  40c183:	sub    BYTE PTR [eax+0x1a0a0000],cl
  40c189:	lea    esi,[eax+eax*1]
  40c18c:	add    BYTE PTR [ecx],al
  40c18e:	adc    ecx,DWORD PTR ds:0x1e160d11
  40c194:	sahf   
  40c195:	adc    DWORD PTR ds:0x119e1617,ecx
  40c19b:	or     eax,0x119e1618
  40c1a0:	or     eax,0x129e1619
  40c1a5:	push   edi
  40c1a6:	adc    DWORD PTR ds:0x6b28,ecx
  40c1ac:	or     al,BYTE PTR [edx]
  40c1ae:	jnp    0x40c1f8
  40c1b0:	add    DWORD PTR [eax],eax
  40c1b2:	add    al,0x11
  40c1b4:	push   edi
  40c1b5:	sub    BYTE PTR [eax+eax*1+0x0],ch
  40c1b9:	or     al,BYTE PTR [edx]
  40c1bb:	jnp    0x40c205
  40c1bd:	add    DWORD PTR [eax],eax
  40c1bf:	add    al,0x72
  40c1c1:	cmc    
  40c1c2:	add    BYTE PTR [eax],al
  40c1c4:	jo     0x40c1ee
  40c1c6:	xchg   BYTE PTR [eax],al
  40c1c8:	add    BYTE PTR [edx],cl
  40c1ca:	adc    dl,BYTE PTR [esi+0x1f]
  40c1cd:	xor    BYTE PTR [edi],bl
  40c1cf:	adc    al,0x28
  40c1d1:	add    DWORD PTR [eax],0x0
  40c1d4:	or     al,BYTE PTR [edx]
  40c1d6:	jnp    0x40c220
  40c1d8:	add    DWORD PTR [eax],eax
  40c1da:	add    al,0x11
  40c1dc:	push   esi
  40c1dd:	sub    BYTE PTR [eax+eax*1+0x7b020a00],al
  40c1e4:	dec    eax
  40c1e5:	add    DWORD PTR [eax],eax
  40c1e7:	add    al,0x1f
  40c1e9:	sub    ch,BYTE PTR [eax]
  40c1eb:	add    BYTE PTR [eax],0x0
  40c1ee:	or     bl,BYTE PTR [edx]
  40c1f0:	lea    esi,[eax+eax*1]
  40c1f3:	add    BYTE PTR [ecx],al
  40c1f5:	adc    ecx,DWORD PTR [ecx+edx*1]
  40c1f8:	or     al,0x16
  40c1fa:	sbb    BYTE PTR [esi+0x16170c11],bl
  40c200:	sahf   
  40c201:	adc    DWORD PTR [eax+ebx*1],ecx
  40c204:	push   ss
  40c205:	sahf   
  40c206:	adc    DWORD PTR [ecx+ebx*1],ecx
  40c209:	push   ss
  40c20a:	sahf   
  40c20b:	adc    dl,BYTE PTR [ebp+0x11]
  40c20e:	or     al,0x28
  40c210:	imul   eax,DWORD PTR [eax],0x0
  40c213:	or     al,BYTE PTR [edx]
  40c215:	jnp    0x40c25f
  40c217:	add    DWORD PTR [eax],eax
  40c219:	add    al,0x11
  40c21b:	push   ebp
  40c21c:	sub    BYTE PTR [edx+0x0],ch
  40c21f:	add    BYTE PTR [edx],cl
  40c221:	add    bh,BYTE PTR [ebx+0x48]
  40c224:	add    DWORD PTR [eax],eax
  40c226:	add    al,0x2
  40c228:	inc    BYTE PTR [esi]
  40c22a:	int    0x1
  40c22c:	add    BYTE PTR [esi],al
  40c22e:	jae    0x40c1bd
  40c230:	add    BYTE PTR [eax],al
  40c232:	or     ch,BYTE PTR [eax]
  40c234:	imul   eax,DWORD PTR [eax],0x54120a00
  40c23a:	and    al,dh
  40c23c:	add    BYTE PTR [eax],al
  40c23e:	add    BYTE PTR [eax],ah
  40c240:	add    BYTE PTR [eax],0x0
  40c243:	add    BYTE PTR [eax],ch
  40c245:	xchg   DWORD PTR [eax],eax
  40c247:	add    BYTE PTR [edx],cl
  40c249:	add    bh,BYTE PTR [ebx+0x47]
  40c24c:	add    DWORD PTR [eax],eax
  40c24e:	add    al,0x11
  40c250:	push   esp
  40c251:	sub    BYTE PTR [eax+0x1a0a0000],cl
  40c257:	lea    esi,[eax+eax*1]
  40c25a:	add    BYTE PTR [ecx],al
  40c25c:	adc    ecx,DWORD PTR [ebx]
  40c25e:	adc    DWORD PTR [ebx],ecx
  40c260:	push   ss
  40c261:	and    bh,bh
  40c263:	add    BYTE PTR [eax],al
  40c265:	add    BYTE PTR [esi+0x16170b11],bl
  40c26b:	sahf   
  40c26c:	adc    DWORD PTR [ebx],ecx
  40c26e:	sbb    BYTE PTR [esi],dl
  40c270:	sahf   
  40c271:	adc    DWORD PTR [ebx],ecx
  40c273:	sbb    DWORD PTR [esi],edx
  40c275:	sahf   
  40c276:	adc    dl,BYTE PTR [ebx+0x11]
  40c279:	or     ebp,DWORD PTR [eax]
  40c27b:	imul   eax,DWORD PTR [eax],0x0
  40c27e:	or     al,BYTE PTR [edx]
  40c280:	jnp    0x40c2c9
  40c282:	add    DWORD PTR [eax],eax
  40c284:	add    al,0x11
  40c286:	push   ebx
  40c287:	sub    BYTE PTR [eax+eax*1+0x0],ch
  40c28b:	or     al,BYTE PTR [edx]
  40c28d:	jnp    0x40c2d6
  40c28f:	add    DWORD PTR [eax],eax
  40c291:	add    al,0x72
  40c293:	sbb    DWORD PTR [ecx],eax
  40c295:	add    BYTE PTR [eax+0x28],dh
  40c298:	xchg   BYTE PTR [eax],al
  40c29a:	add    BYTE PTR [edx],cl
  40c29c:	adc    dl,BYTE PTR [edx+0x1f]
  40c29f:	cmp    BYTE PTR [edi],bl
  40c2a1:	adc    al,0x28
  40c2a3:	add    DWORD PTR [eax],0x0
  40c2a6:	or     al,BYTE PTR [edx]
  40c2a8:	jnp    0x40c2f1
  40c2aa:	add    DWORD PTR [eax],eax
  40c2ac:	add    al,0x11
  40c2ae:	push   edx
  40c2af:	sub    BYTE PTR [eax+eax*1+0x7b020a00],al
  40c2b6:	inc    edi
  40c2b7:	add    DWORD PTR [eax],eax
  40c2b9:	add    al,0x1f
  40c2bb:	sub    DWORD PTR [eax],ebp
  40c2bd:	add    BYTE PTR [eax],0x0
  40c2c0:	or     bl,BYTE PTR [edx]
  40c2c2:	lea    esi,[eax+eax*1]
  40c2c5:	add    BYTE PTR [ecx],al
  40c2c7:	adc    ecx,DWORD PTR [edx]
  40c2c9:	adc    DWORD PTR [edx],ecx
  40c2cb:	push   ss
  40c2cc:	and    BYTE PTR [eax-0x62000000],al
  40c2d2:	adc    DWORD PTR [edx],ecx
  40c2d4:	pop    ss
  40c2d5:	push   ss
  40c2d6:	sahf   
  40c2d7:	adc    DWORD PTR [edx],ecx
  40c2d9:	sbb    BYTE PTR [esi],dl
  40c2db:	sahf   
  40c2dc:	adc    DWORD PTR [edx],ecx
  40c2de:	sbb    DWORD PTR [esi],edx
  40c2e0:	sahf   
  40c2e1:	adc    dl,BYTE PTR [ecx+0x11]
  40c2e4:	or     ch,BYTE PTR [eax]
  40c2e6:	imul   eax,DWORD PTR [eax],0x0
  40c2e9:	or     al,BYTE PTR [edx]
  40c2eb:	jnp    0x40c334
  40c2ed:	add    DWORD PTR [eax],eax
  40c2ef:	add    al,0x11
  40c2f1:	push   ecx
  40c2f2:	sub    BYTE PTR [edx+0x0],ch
  40c2f5:	add    BYTE PTR [edx],cl
  40c2f7:	add    bh,BYTE PTR [ebx+0x47]
  40c2fa:	add    DWORD PTR [eax],eax
  40c2fc:	add    al,0x2
  40c2fe:	inc    BYTE PTR [esi]
  40c300:	into   
  40c301:	add    DWORD PTR [eax],eax
  40c303:	push   es
  40c304:	jae    0x40c293
  40c306:	add    BYTE PTR [eax],al
  40c308:	or     ch,BYTE PTR [eax]
  40c30a:	imul   eax,DWORD PTR [eax],0x50120a00
  40c310:	and    al,dl
  40c312:	add    BYTE PTR [eax],al
  40c314:	add    BYTE PTR [eax],ah
  40c316:	rol    BYTE PTR [eax],0x0
  40c319:	add    BYTE PTR [eax],ch
  40c31b:	xchg   DWORD PTR [eax],eax
  40c31d:	add    BYTE PTR [edx],cl
  40c31f:	add    bh,BYTE PTR [ebx+0x44]
  40c322:	add    DWORD PTR [eax],eax
  40c324:	add    al,0x11
  40c326:	push   eax
  40c327:	sub    BYTE PTR [eax+0x20a0000],cl
  40c32d:	jnp    0x40c373
  40c32f:	add    DWORD PTR [eax],eax
  40c331:	add    al,0x72
  40c333:	cmp    DWORD PTR [ecx],eax
  40c335:	add    BYTE PTR [eax+0x28],dh
  40c338:	xchg   BYTE PTR [eax],al
  40c33a:	add    BYTE PTR [edx],cl
  40c33c:	adc    cl,BYTE PTR [edi+0x1f]
  40c33f:	pop    eax
  40c340:	pop    ds
  40c341:	sbb    BYTE PTR [eax],ch
  40c343:	add    DWORD PTR [eax],0x0
  40c346:	or     al,BYTE PTR [edx]
  40c348:	jnp    0x40c38e
  40c34a:	add    DWORD PTR [eax],eax
  40c34c:	add    al,0x11
  40c34e:	dec    edi
  40c34f:	sub    BYTE PTR [eax+eax*1+0x7b020a00],al
  40c356:	inc    esp
  40c357:	add    DWORD PTR [eax],eax
  40c359:	add    al,0x1f
  40c35b:	sub    BYTE PTR [eax],ch
  40c35d:	add    BYTE PTR [eax],0x0
  40c360:	or     al,BYTE PTR [edx]
  40c362:	jnp    0x40c3a8
  40c364:	add    DWORD PTR [eax],eax
  40c366:	add    al,0x72
  40c368:	pop    ebp
  40c369:	add    DWORD PTR [eax],eax
  40c36b:	jo     0x40c3dc
  40c36d:	push   0x20a0000
  40c372:	jnp    0x40c3b8
  40c374:	add    DWORD PTR [eax],eax
  40c376:	add    al,0x2
  40c378:	inc    BYTE PTR [esi]
  40c37a:	int3   
  40c37b:	add    DWORD PTR [eax],eax
  40c37d:	push   es
  40c37e:	jae    0x40c30d
  40c380:	add    BYTE PTR [eax],al
  40c382:	or     ch,BYTE PTR [eax]
  40c384:	add    BYTE PTR [bx+si],al
  40c387:	or     dl,BYTE PTR [edx]
  40c389:	dec    esi
  40c38a:	pop    ds
  40c38b:	jo     0x40c3ad
  40c38d:	rol    BYTE PTR [eax],0x0
  40c390:	add    BYTE PTR [eax],ch
  40c392:	xchg   DWORD PTR [eax],eax
  40c394:	add    BYTE PTR [edx],cl
  40c396:	add    bh,BYTE PTR [ebx+0x43]
  40c399:	add    DWORD PTR [eax],eax
  40c39b:	add    al,0x11
  40c39d:	dec    esi
  40c39e:	sub    BYTE PTR [eax+0x20a0000],cl
  40c3a4:	jnp    0x40c3e9
  40c3a6:	add    DWORD PTR [eax],eax
  40c3a8:	add    al,0x72
  40c3aa:	ja     0x40c3ad
  40c3ac:	add    BYTE PTR [eax+0x28],dh
  40c3af:	xchg   BYTE PTR [eax],al
  40c3b1:	add    BYTE PTR [edx],cl
  40c3b3:	adc    cl,BYTE PTR [ebp+0x1f]
  40c3b6:	pop    eax
  40c3b7:	pop    ds
  40c3b8:	sbb    BYTE PTR [eax],ch
  40c3ba:	add    DWORD PTR [eax],0x0
  40c3bd:	or     al,BYTE PTR [edx]
  40c3bf:	jnp    0x40c404
  40c3c1:	add    DWORD PTR [eax],eax
  40c3c3:	add    al,0x11
  40c3c5:	dec    ebp
  40c3c6:	sub    BYTE PTR [eax+eax*1+0x7b020a00],al
  40c3cd:	inc    ebx
  40c3ce:	add    DWORD PTR [eax],eax
  40c3d0:	add    al,0x1f
  40c3d2:	daa    
  40c3d3:	sub    BYTE PTR [edx+0x20a0000],al
  40c3d9:	jnp    0x40c41e
  40c3db:	add    DWORD PTR [eax],eax
  40c3dd:	add    al,0x72
  40c3df:	cdq    
  40c3e0:	add    DWORD PTR [eax],eax
  40c3e2:	jo     0x40c453
  40c3e4:	push   0x20a0000
  40c3e9:	jnp    0x40c42e
  40c3eb:	add    DWORD PTR [eax],eax
  40c3ed:	add    al,0x2
  40c3ef:	inc    BYTE PTR [esi]
  40c3f1:	retf   
  40c3f2:	add    DWORD PTR [eax],eax
  40c3f4:	push   es
  40c3f5:	jae    0x40c384
  40c3f7:	add    BYTE PTR [eax],al
  40c3f9:	or     ch,BYTE PTR [eax]
  40c3fb:	add    BYTE PTR [bx+si],al
  40c3fe:	or     al,BYTE PTR [edx]
  40c400:	jnp    0x40c442
  40c402:	add    DWORD PTR [eax],eax
  40c404:	add    al,0x17
  40c406:	sub    BYTE PTR [esi+0x0],ah
  40c409:	add    BYTE PTR [edx],cl
  40c40b:	add    bh,BYTE PTR [ebx+0x40]
  40c40e:	add    DWORD PTR [eax],eax
  40c410:	add    al,0x17
  40c412:	sub    BYTE PTR [ebp+0x0],ah
  40c415:	add    BYTE PTR [edx],cl
  40c417:	adc    cl,BYTE PTR [edi+ebx*1+0x10]
  40c41b:	and    al,ah
  40c41d:	add    BYTE PTR [eax],al
  40c41f:	add    BYTE PTR [eax],ch
  40c421:	xchg   DWORD PTR [eax],eax
  40c423:	add    BYTE PTR [edx],cl
  40c425:	add    bh,BYTE PTR [ebx+0x40]
  40c428:	add    DWORD PTR [eax],eax
  40c42a:	add    al,0x11
  40c42c:	dec    esp
  40c42d:	sub    BYTE PTR [eax+0x20a0000],cl
  40c433:	jnp    0x40c475
  40c435:	add    DWORD PTR [eax],eax
  40c437:	add    al,0x72
  40c439:	mov    cl,0x1
  40c43b:	add    BYTE PTR [eax+0x28],dh
  40c43e:	xchg   BYTE PTR [eax],al
  40c440:	add    BYTE PTR [edx],cl
  40c442:	adc    cl,BYTE PTR [ebx+0x1f]
  40c445:	pop    eax
  40c446:	pop    ds
  40c447:	sbb    BYTE PTR [eax],ch
  40c449:	add    DWORD PTR [eax],0x0
  40c44c:	or     al,BYTE PTR [edx]
  40c44e:	jnp    0x40c490
  40c450:	add    DWORD PTR [eax],eax
  40c452:	add    al,0x11
  40c454:	dec    ebx
  40c455:	sub    BYTE PTR [eax+eax*1+0x7b020a00],al
  40c45c:	inc    eax
  40c45d:	add    DWORD PTR [eax],eax
  40c45f:	add    al,0x1f
  40c461:	sub    BYTE PTR es:[edx+0x20a0000],al
  40c468:	jnp    0x40c4aa
  40c46a:	add    DWORD PTR [eax],eax
  40c46c:	add    al,0x72
  40c46e:	mov    DWORD PTR [ecx],0x686f7000
  40c474:	add    BYTE PTR [eax],al
  40c476:	or     al,BYTE PTR [edx]
  40c478:	jnp    0x40c4ba
  40c47a:	add    DWORD PTR [eax],eax
  40c47c:	add    al,0x2
  40c47e:	inc    BYTE PTR [esi]
  40c480:	mov    DWORD PTR [ecx],0x8d730600
  40c486:	add    BYTE PTR [eax],al
  40c488:	or     ch,BYTE PTR [eax]
  40c48a:	add    BYTE PTR fs:[eax],al
  40c48d:	or     al,BYTE PTR [edx]
  40c48f:	jnp    0x40c4d0
  40c491:	add    DWORD PTR [eax],eax
  40c493:	add    al,0x17
  40c495:	sub    BYTE PTR [esi+0x0],ah
  40c498:	add    BYTE PTR [edx],cl
  40c49a:	add    bh,BYTE PTR [ebx+0x3f]
  40c49d:	add    DWORD PTR [eax],eax
  40c49f:	add    al,0x17
  40c4a1:	sub    BYTE PTR [ebp+0x0],ah
  40c4a4:	add    BYTE PTR [edx],cl
  40c4a6:	adc    cl,BYTE PTR [edx+0x1f]
  40c4a9:	adc    BYTE PTR [eax],ah
  40c4ab:	rol    BYTE PTR [eax],0x0
  40c4ae:	add    BYTE PTR [eax],ch
  40c4b0:	xchg   DWORD PTR [eax],eax
  40c4b2:	add    BYTE PTR [edx],cl
  40c4b4:	add    bh,BYTE PTR [ebx+0x3f]
  40c4b7:	add    DWORD PTR [eax],eax
  40c4b9:	add    al,0x11
  40c4bb:	dec    edx
  40c4bc:	sub    BYTE PTR [eax+0x20a0000],cl
  40c4c2:	jnp    0x40c503
  40c4c4:	add    DWORD PTR [eax],eax
  40c4c6:	add    al,0x72
  40c4c8:	xlat   BYTE PTR ds:[ebx]
  40c4c9:	add    DWORD PTR [eax],eax
  40c4cb:	jo     0x40c4f5
  40c4cd:	xchg   BYTE PTR [eax],al
  40c4cf:	add    BYTE PTR [edx],cl
  40c4d1:	adc    cl,BYTE PTR [ecx+0x1f]
  40c4d4:	pop    eax
  40c4d5:	pop    ds
  40c4d6:	sbb    BYTE PTR [eax],ch
  40c4d8:	add    DWORD PTR [eax],0x0
  40c4db:	or     al,BYTE PTR [edx]
  40c4dd:	jnp    0x40c51e
  40c4df:	add    DWORD PTR [eax],eax
  40c4e1:	add    al,0x11
  40c4e3:	dec    ecx
  40c4e4:	sub    BYTE PTR [eax+eax*1+0x7b020a00],al
  40c4eb:	aas    
  40c4ec:	add    DWORD PTR [eax],eax
  40c4ee:	add    al,0x1f
  40c4f0:	and    eax,0x8228
  40c4f5:	or     al,BYTE PTR [edx]
  40c4f7:	jnp    0x40c538
  40c4f9:	add    DWORD PTR [eax],eax
  40c4fb:	add    al,0x72
  40c4fd:	out    dx,eax
  40c4fe:	add    DWORD PTR [eax],eax
  40c500:	jo     0x40c571
  40c502:	push   0x20a0000
  40c507:	jnp    0x40c548
  40c509:	add    DWORD PTR [eax],eax
  40c50b:	add    al,0x2
  40c50d:	inc    BYTE PTR [esi]
  40c50f:	mov    BYTE PTR [ecx],0x0
  40c512:	push   es
  40c513:	jae    0x40c4a2
  40c515:	add    BYTE PTR [eax],al
  40c517:	or     ch,BYTE PTR [eax]
  40c519:	add    BYTE PTR fs:[eax],al
  40c51c:	or     dl,BYTE PTR [edx]
  40c51e:	dec    eax
  40c51f:	pop    ds
  40c520:	jo     0x40c541
  40c522:	pusha  
  40c523:	sub    BYTE PTR [edi+0x20a0000],al
  40c529:	jnp    0x40c569
  40c52b:	add    DWORD PTR [eax],eax
  40c52d:	add    al,0x11
  40c52f:	dec    eax
  40c530:	sub    BYTE PTR [eax+0x20a0000],cl
  40c536:	jnp    0x40c576
  40c538:	add    DWORD PTR [eax],eax
  40c53a:	add    al,0x72
  40c53c:	add    eax,DWORD PTR [edx]
  40c53e:	add    BYTE PTR [eax+0x28],dh
  40c541:	xchg   BYTE PTR [eax],al
  40c543:	add    BYTE PTR [edx],cl
  40c545:	adc    al,BYTE PTR [edi+0x1f]
  40c548:	pop    eax
  40c549:	pop    ds
  40c54a:	sbb    BYTE PTR [eax],ch
  40c54c:	add    DWORD PTR [eax],0x0
  40c54f:	or     al,BYTE PTR [edx]
  40c551:	jnp    0x40c591
  40c553:	add    DWORD PTR [eax],eax
  40c555:	add    al,0x11
  40c557:	inc    edi
  40c558:	sub    BYTE PTR [eax+eax*1+0x7b020a00],al
  40c55f:	add    DWORD PTR ds:[eax],eax
  40c562:	add    al,0x1f
  40c564:	and    al,0x28
  40c566:	add    BYTE PTR [eax],0x0
  40c569:	or     al,BYTE PTR [edx]
  40c56b:	jnp    0x40c5ab
  40c56d:	add    DWORD PTR [eax],eax
  40c56f:	add    al,0x72
  40c571:	sbb    DWORD PTR [edx],eax
  40c573:	add    BYTE PTR [eax+0x6f],dh
  40c576:	push   0x20a0000
  40c57b:	jnp    0x40c5bb
  40c57d:	add    DWORD PTR [eax],eax
  40c57f:	add    al,0x2
  40c581:	inc    BYTE PTR [esi]
  40c583:	lds    eax,FWORD PTR [ecx]
  40c585:	add    BYTE PTR [esi],al
  40c587:	jae    0x40c516
  40c589:	add    BYTE PTR [eax],al
  40c58b:	or     ch,BYTE PTR [eax]
  40c58d:	add    BYTE PTR [bx+si],al
  40c590:	or     dl,BYTE PTR [edx]
  40c592:	inc    esi
  40c593:	and    al,dl
  40c595:	add    BYTE PTR [eax],al
  40c597:	add    BYTE PTR [eax],ah
  40c599:	mov    al,ds:0x28000000
  40c59e:	xchg   DWORD PTR [eax],eax
  40c5a0:	add    BYTE PTR [edx],cl
  40c5a2:	add    bh,BYTE PTR [ebx+0x3c]
  40c5a5:	add    DWORD PTR [eax],eax
  40c5a7:	add    al,0x11
  40c5a9:	inc    esi
  40c5aa:	sub    BYTE PTR [eax+0x20a0000],cl
  40c5b0:	jnp    0x40c5ee
  40c5b2:	add    DWORD PTR [eax],eax
  40c5b4:	add    al,0x72
  40c5b6:	and    eax,DWORD PTR [edx]
  40c5b8:	add    BYTE PTR [eax+0x28],dh
  40c5bb:	xchg   BYTE PTR [eax],al
  40c5bd:	add    BYTE PTR [edx],cl
  40c5bf:	adc    al,BYTE PTR [ebp+0x1f]
  40c5c2:	pop    eax
  40c5c3:	pop    ds
  40c5c4:	sbb    BYTE PTR [eax],ch
  40c5c6:	add    DWORD PTR [eax],0x0
  40c5c9:	or     al,BYTE PTR [edx]
  40c5cb:	jnp    0x40c609
  40c5cd:	add    DWORD PTR [eax],eax
  40c5cf:	add    al,0x11
  40c5d1:	inc    ebp
  40c5d2:	sub    BYTE PTR [eax+eax*1+0x7b020a00],al
  40c5d9:	cmp    al,0x1
  40c5db:	add    BYTE PTR [edi+ebx*1],al
  40c5de:	and    ebp,DWORD PTR [eax]
  40c5e0:	add    BYTE PTR [eax],0x0
  40c5e3:	or     al,BYTE PTR [edx]
  40c5e5:	jnp    0x40c623
  40c5e7:	add    DWORD PTR [eax],eax
  40c5e9:	add    al,0x72
  40c5eb:	inc    ebp
  40c5ec:	add    al,BYTE PTR [eax]
  40c5ee:	jo     0x40c65f
  40c5f0:	push   0x20a0000
  40c5f5:	jnp    0x40c633
  40c5f7:	add    DWORD PTR [eax],eax
  40c5f9:	add    al,0x2
  40c5fb:	inc    BYTE PTR [esi]
  40c5fd:	ret    
  40c5fe:	add    DWORD PTR [eax],eax
  40c600:	push   es
  40c601:	jae    0x40c590
  40c603:	add    BYTE PTR [eax],al
  40c605:	or     ch,BYTE PTR [eax]
  40c607:	add    BYTE PTR [bx+si],al
  40c60a:	or     bl,BYTE PTR [edx]
  40c60c:	lea    esi,[eax+eax*1]
  40c60f:	add    BYTE PTR [ecx],al
  40c611:	adc    ecx,DWORD PTR [ecx]
  40c613:	adc    DWORD PTR [ecx],ecx
  40c615:	push   ss
  40c616:	pop    ds
  40c617:	adc    BYTE PTR [esi+0x16170911],bl
  40c61d:	sahf   
  40c61e:	adc    DWORD PTR [ecx],ecx
  40c620:	sbb    BYTE PTR [esi],dl
  40c622:	sahf   
  40c623:	adc    DWORD PTR [ecx],ecx
  40c625:	sbb    DWORD PTR [esi],edx
  40c627:	sahf   
  40c628:	adc    al,BYTE PTR [ecx+edx*1+0x9]
  40c62c:	sub    BYTE PTR [ebx+0x0],ch
  40c62f:	add    BYTE PTR [edx],cl
  40c631:	add    bh,BYTE PTR [ebx+0x36]
  40c634:	add    DWORD PTR [eax],eax
  40c636:	add    al,0x11
  40c638:	inc    esp
  40c639:	sub    BYTE PTR [ebx+0x0],ah
  40c63c:	add    BYTE PTR [edx],cl
  40c63e:	adc    al,BYTE PTR [ebx+0x20]
  40c641:	aam    0x0
  40c643:	add    BYTE PTR [eax],al
  40c645:	pop    ds
  40c646:	and    BYTE PTR [eax],ch
  40c648:	xchg   DWORD PTR [eax],eax
  40c64a:	add    BYTE PTR [edx],cl
  40c64c:	add    bh,BYTE PTR [ebx+0x36]
  40c64f:	add    DWORD PTR [eax],eax
  40c651:	add    al,0x11
  40c653:	inc    ebx
  40c654:	sub    BYTE PTR [eax+0x1a0a0000],cl
  40c65a:	lea    esi,[eax+eax*1]
  40c65d:	add    BYTE PTR [ecx],al
  40c65f:	adc    ecx,DWORD PTR [eax]
  40c661:	adc    DWORD PTR [eax],ecx
  40c663:	push   ss
  40c664:	and    BYTE PTR [eax],al
  40c666:	add    DWORD PTR [eax],eax
  40c668:	add    BYTE PTR [esi+0x16170811],bl
  40c66e:	sahf   
  40c66f:	adc    DWORD PTR [eax],ecx
  40c671:	sbb    BYTE PTR [esi],dl
  40c673:	sahf   
  40c674:	adc    DWORD PTR [eax],ecx
  40c676:	sbb    DWORD PTR [esi],edx
  40c678:	sahf   
  40c679:	adc    al,BYTE PTR [edx+0x11]
  40c67c:	or     BYTE PTR [eax],ch
  40c67e:	imul   eax,DWORD PTR [eax],0x0
  40c681:	or     al,BYTE PTR [edx]
  40c683:	jnp    0x40c6bb
  40c685:	add    DWORD PTR [eax],eax
  40c687:	add    al,0x11
  40c689:	inc    edx
  40c68a:	sub    BYTE PTR [eax+eax*1+0x0],ch
  40c68e:	or     bl,BYTE PTR [edx]
  40c690:	lea    esi,[eax+eax*1]
  40c693:	add    BYTE PTR [ecx],al
  40c695:	adc    eax,DWORD PTR [edi]
  40c697:	adc    DWORD PTR [edi],eax
  40c699:	push   ss
  40c69a:	pop    ds
  40c69b:	adc    BYTE PTR [esi+0x16170711],bl
  40c6a1:	sahf   
  40c6a2:	adc    DWORD PTR [edi],eax
  40c6a4:	sbb    BYTE PTR [esi],dl
  40c6a6:	sahf   
  40c6a7:	adc    DWORD PTR [edi],eax
  40c6a9:	sbb    DWORD PTR [esi],edx
  40c6ab:	sahf   
  40c6ac:	adc    al,BYTE PTR [ecx+0x11]
  40c6af:	pop    es
  40c6b0:	sub    BYTE PTR [ebx+0x0],ch
  40c6b3:	add    BYTE PTR [edx],cl
  40c6b5:	add    bh,BYTE PTR [ebx+0x36]
  40c6b8:	add    DWORD PTR [eax],eax
  40c6ba:	add    al,0x11
  40c6bc:	inc    ecx
  40c6bd:	sub    BYTE PTR [edx+0x0],ah
  40c6c0:	add    BYTE PTR [edx],cl
  40c6c2:	add    bh,BYTE PTR [ebx+0x36]
  40c6c5:	add    DWORD PTR [eax],eax
  40c6c7:	add    al,0x72
  40c6c9:	pop    ebp
  40c6ca:	add    al,BYTE PTR [eax]
  40c6cc:	jo     0x40c6f6
  40c6ce:	xchg   BYTE PTR [eax],al
  40c6d0:	add    BYTE PTR [edx],cl
  40c6d2:	adc    al,BYTE PTR [eax+0x1f]
  40c6d5:	sub    BYTE PTR [edi],bl
  40c6d7:	adc    al,0x28
  40c6d9:	add    DWORD PTR [eax],0x0
  40c6dc:	or     al,BYTE PTR [edx]
  40c6de:	jnp    0x40c716
  40c6e0:	add    DWORD PTR [eax],eax
  40c6e2:	add    al,0x11
  40c6e4:	inc    eax
  40c6e5:	sub    BYTE PTR [eax+eax*1+0x7b020a00],al
  40c6ec:	add    DWORD PTR ss:[eax],eax
  40c6ef:	add    al,0x1f
  40c6f1:	and    DWORD PTR [eax],ebp
  40c6f3:	add    BYTE PTR [eax],0x0
  40c6f6:	or     bl,BYTE PTR [edx]
  40c6f8:	lea    esi,[eax+eax*1]
  40c6fb:	add    BYTE PTR [ecx],al
  40c6fd:	adc    eax,DWORD PTR [esi]
  40c6ff:	adc    DWORD PTR [esi],eax
  40c701:	push   ss
  40c702:	pop    ds
  40c703:	and    BYTE PTR [esi+0x16170611],bl
  40c709:	sahf   
  40c70a:	adc    DWORD PTR [esi],eax
  40c70c:	sbb    BYTE PTR [esi],dl
  40c70e:	sahf   
  40c70f:	adc    DWORD PTR [esi],eax
  40c711:	sbb    DWORD PTR [esi],edx
  40c713:	sahf   
  40c714:	adc    bh,BYTE PTR [edi]
  40c716:	adc    DWORD PTR [esi],eax
  40c718:	sub    BYTE PTR [ebx+0x0],ch
  40c71b:	add    BYTE PTR [edx],cl
  40c71d:	add    bh,BYTE PTR [ebx+0x36]
  40c720:	add    DWORD PTR [eax],eax
  40c722:	add    al,0x11
  40c724:	aas    
  40c725:	sub    BYTE PTR [edx+0x0],ch
  40c728:	add    BYTE PTR [edx],cl
  40c72a:	add    bh,BYTE PTR [ebx+0x36]
  40c72d:	add    DWORD PTR [eax],eax
  40c72f:	add    al,0x2
  40c731:	inc    BYTE PTR [esi]
  40c733:	mov    esi,0x73060001
  40c738:	lea    eax,[eax]
  40c73a:	add    BYTE PTR [edx],cl
  40c73c:	sub    BYTE PTR [ecx+0x0],ch
  40c73f:	add    BYTE PTR [edx],cl
  40c741:	adc    bh,BYTE PTR [esi]
  40c743:	and    BYTE PTR [eax+eax*1+0x201f0000],dh
  40c74a:	sub    BYTE PTR [edi+0x20a0000],al
  40c750:	jnp    0x40c789
  40c752:	add    DWORD PTR [eax],eax
  40c754:	add    al,0x11
  40c756:	sub    BYTE PTR ds:[eax+0x20a0000],cl
  40c75d:	jnp    0x40c796
  40c75f:	add    DWORD PTR [eax],eax
  40c761:	add    al,0x72
  40c763:	jnp    0x40c767
  40c765:	add    BYTE PTR [eax+0x28],dh
  40c768:	xchg   BYTE PTR [eax],al
  40c76a:	add    BYTE PTR [edx],cl
  40c76c:	adc    bh,BYTE PTR ds:0x101f281f
  40c772:	sub    BYTE PTR [ebx+0x20a0000],al
  40c778:	jnp    0x40c7b1
  40c77a:	add    DWORD PTR [eax],eax
  40c77c:	add    al,0x11
  40c77e:	cmp    eax,0x8428
  40c783:	or     al,BYTE PTR [edx]
  40c785:	jnp    0x40c7be
  40c787:	add    DWORD PTR [eax],eax
  40c789:	add    al,0x1f
  40c78b:	and    ch,BYTE PTR [eax]
  40c78d:	add    BYTE PTR [eax],0x0
  40c790:	or     al,BYTE PTR [edx]
  40c792:	jnp    0x40c7cb
  40c794:	add    DWORD PTR [eax],eax
  40c796:	add    al,0x72
  40c798:	mov    DWORD PTR [edx],eax
  40c79a:	add    BYTE PTR [eax+0x6f],dh
  40c79d:	ins    DWORD PTR es:[edi],dx
  40c79e:	add    BYTE PTR [eax],al
  40c7a0:	or     dl,BYTE PTR [edx]
  40c7a2:	cmp    al,0x1f
  40c7a4:	pop    esp
  40c7a5:	pop    ds
  40c7a6:	and    BYTE PTR [eax],ch
  40c7a8:	xchg   DWORD PTR [eax],eax
  40c7aa:	add    BYTE PTR [edx],cl
  40c7ac:	add    bh,BYTE PTR [ebx+0x38]
  40c7af:	add    DWORD PTR [eax],eax
  40c7b1:	add    al,0x11
  40c7b3:	cmp    al,0x28
  40c7b5:	mov    BYTE PTR [eax],al
  40c7b7:	add    BYTE PTR [edx],cl
  40c7b9:	add    bh,BYTE PTR [ebx+0x38]
  40c7bc:	add    DWORD PTR [eax],eax
  40c7be:	add    al,0x72
  40c7c0:	xchg   ebp,eax
  40c7c1:	add    al,BYTE PTR [eax]
  40c7c3:	jo     0x40c7ed
  40c7c5:	xchg   BYTE PTR [eax],al
  40c7c7:	add    BYTE PTR [edx],cl
  40c7c9:	adc    bh,BYTE PTR [ebx]
  40c7cb:	pop    ds
  40c7cc:	sub    BYTE PTR [edi],bl
  40c7ce:	adc    BYTE PTR [eax],ch
  40c7d0:	add    DWORD PTR [eax],0x0
  40c7d3:	or     al,BYTE PTR [edx]
  40c7d5:	jnp    0x40c80f
  40c7d7:	add    DWORD PTR [eax],eax
  40c7d9:	add    al,0x11
  40c7db:	cmp    ebp,DWORD PTR [eax]
  40c7dd:	test   BYTE PTR [eax],al
  40c7df:	add    BYTE PTR [edx],cl
  40c7e1:	add    bh,BYTE PTR [ebx+0x38]
  40c7e4:	add    DWORD PTR [eax],eax
  40c7e6:	add    al,0x1f
  40c7e8:	and    BYTE PTR [eax],ch
  40c7ea:	add    BYTE PTR [eax],0x0
  40c7ed:	or     al,BYTE PTR [edx]
  40c7ef:	jnp    0x40c829
  40c7f1:	add    DWORD PTR [eax],eax
  40c7f3:	add    al,0x72
  40c7f5:	mov    ds:0x6f700002,eax
  40c7fa:	ins    DWORD PTR es:[edi],dx
  40c7fb:	add    BYTE PTR [eax],al
  40c7fd:	or     dl,BYTE PTR [edx]
  40c7ff:	cmp    ah,BYTE PTR [eax]
  40c801:	test   BYTE PTR [eax],al
  40c803:	add    BYTE PTR [eax],al
  40c805:	pop    ds
  40c806:	and    BYTE PTR [eax],ch
  40c808:	xchg   DWORD PTR [eax],eax
  40c80a:	add    BYTE PTR [edx],cl
  40c80c:	add    bh,BYTE PTR [ebx+0x39]
  40c80f:	add    DWORD PTR [eax],eax
  40c811:	add    al,0x11
  40c813:	cmp    ch,BYTE PTR [eax]
  40c815:	mov    BYTE PTR [eax],al
  40c817:	add    BYTE PTR [edx],cl
  40c819:	sbb    cl,BYTE PTR [ebp+0x1000034]
  40c81f:	adc    eax,DWORD PTR ds:0x1f160511
  40c825:	or     al,0x9e
  40c827:	adc    DWORD PTR ds:0x119e1617,eax
  40c82d:	add    eax,0x119e1618
  40c832:	add    eax,0x129e1619
  40c837:	cmp    DWORD PTR [ecx],edx
  40c839:	add    eax,0x6b28
  40c83e:	or     al,BYTE PTR [edx]
  40c840:	jnp    0x40c87b
  40c842:	add    DWORD PTR [eax],eax
  40c844:	add    al,0x11
  40c846:	cmp    DWORD PTR [eax],ebp
  40c848:	ins    BYTE PTR es:[edi],dx
  40c849:	add    BYTE PTR [eax],al
  40c84b:	or     bl,BYTE PTR [edx]
  40c84d:	lea    esi,[eax+eax*1]
  40c850:	add    BYTE PTR [ecx],al
  40c852:	adc    eax,DWORD PTR [ecx+edx*1]
  40c855:	add    al,0x16
  40c857:	pop    ss
  40c858:	sahf   
  40c859:	adc    DWORD PTR [edi+edx*1],eax
  40c85c:	push   ss
  40c85d:	sahf   
  40c85e:	adc    DWORD PTR [eax+ebx*1],eax
  40c861:	push   ss
  40c862:	sahf   
  40c863:	adc    DWORD PTR [ecx+ebx*1],eax
  40c866:	push   ss
  40c867:	sahf   
  40c868:	adc    bh,BYTE PTR [eax]
  40c86a:	adc    DWORD PTR [eax+ebp*1],eax
  40c86d:	imul   eax,DWORD PTR [eax],0x0
  40c870:	or     al,BYTE PTR [edx]
  40c872:	jnp    0x40c8ad
  40c874:	add    DWORD PTR [eax],eax
  40c876:	add    al,0x11
  40c878:	cmp    BYTE PTR [eax],ch
  40c87a:	bound  eax,QWORD PTR [eax]
  40c87c:	add    BYTE PTR [edx],cl
  40c87e:	add    bh,BYTE PTR [ebx+0x39]
  40c881:	add    DWORD PTR [eax],eax
  40c883:	add    al,0x72
  40c885:	mov    bl,0x2
  40c887:	add    BYTE PTR [eax+0x28],dh
  40c88a:	xchg   BYTE PTR [eax],al
  40c88c:	add    BYTE PTR [edx],cl
  40c88e:	adc    dh,BYTE PTR [edi]
  40c890:	pop    ds
  40c891:	sub    BYTE PTR [edi],bl
  40c893:	adc    al,0x28
  40c895:	add    DWORD PTR [eax],0x0
  40c898:	or     al,BYTE PTR [edx]
  40c89a:	jnp    0x40c8d5
  40c89c:	add    DWORD PTR [eax],eax
  40c89e:	add    al,0x11
  40c8a0:	aaa    
  40c8a1:	sub    BYTE PTR [eax+eax*1+0x7b020a00],al
  40c8a8:	cmp    DWORD PTR [ecx],eax
  40c8aa:	add    BYTE PTR [edi+ebx*1],al
  40c8ad:	pop    ds
  40c8ae:	sub    BYTE PTR [edx+0x1a0a0000],al
  40c8b4:	lea    esi,[eax+eax*1]
  40c8b7:	add    BYTE PTR [ecx],al
  40c8b9:	or     eax,0x9e181609
  40c8be:	or     DWORD PTR [edi],edx
  40c8c0:	push   ss
  40c8c1:	sahf   
  40c8c2:	or     DWORD PTR [eax],ebx
  40c8c4:	push   ss
  40c8c5:	sahf   
  40c8c6:	or     DWORD PTR [ecx],ebx
  40c8c8:	push   ss
  40c8c9:	sahf   
  40c8ca:	adc    dh,BYTE PTR [esi]
  40c8cc:	or     DWORD PTR [eax],ebp
  40c8ce:	imul   eax,DWORD PTR [eax],0x0
  40c8d1:	or     al,BYTE PTR [edx]
  40c8d3:	jnp    0x40c90e
  40c8d5:	add    DWORD PTR [eax],eax
  40c8d7:	add    al,0x11
  40c8d9:	sub    BYTE PTR ss:[edx+0x0],ch
  40c8dd:	add    BYTE PTR [edx],cl
  40c8df:	add    bh,BYTE PTR [ebx+0x39]
  40c8e2:	add    DWORD PTR [eax],eax
  40c8e4:	add    al,0x2
  40c8e6:	inc    BYTE PTR [esi]
  40c8e8:	mov    ebp,0x73060001
  40c8ed:	lea    eax,[eax]
  40c8ef:	add    BYTE PTR [edx],cl
  40c8f1:	sub    BYTE PTR [ecx+0x0],ch
  40c8f4:	add    BYTE PTR [edx],cl
  40c8f6:	adc    dh,BYTE PTR ds:0x201f0c1f
  40c8fc:	sub    BYTE PTR [edi+0x20a0000],al
  40c902:	jnp    0x40c93e
  40c904:	add    DWORD PTR [eax],eax
  40c906:	add    al,0x11
  40c908:	xor    eax,0x8828
  40c90d:	or     al,BYTE PTR [edx]
  40c90f:	jnp    0x40c94b
  40c911:	add    DWORD PTR [eax],eax
  40c913:	add    al,0x72
  40c915:	aad    0x2
  40c917:	add    BYTE PTR [eax+0x28],dh
  40c91a:	xchg   BYTE PTR [eax],al
  40c91c:	add    BYTE PTR [edx],cl
  40c91e:	adc    dh,BYTE PTR [edi+ebx*1]
  40c921:	sub    BYTE PTR [edi],bl
  40c923:	adc    BYTE PTR [eax],ch
  40c925:	add    DWORD PTR [eax],0x0
  40c928:	or     al,BYTE PTR [edx]
  40c92a:	jnp    0x40c966
  40c92c:	add    DWORD PTR [eax],eax
  40c92e:	add    al,0x11
  40c930:	xor    al,0x28
  40c932:	test   BYTE PTR [eax],al
  40c934:	add    BYTE PTR [edx],cl
  40c936:	add    bh,BYTE PTR [ebx+0x3a]
  40c939:	add    DWORD PTR [eax],eax
  40c93b:	add    al,0x1f
  40c93d:	push   ds
  40c93e:	sub    BYTE PTR [edx+0x20a0000],al
  40c944:	jnp    0x40c980
  40c946:	add    DWORD PTR [eax],eax
  40c948:	add    al,0x72
  40c94a:	jecxz  0x40c94e
  40c94c:	add    BYTE PTR [eax+0x6f],dh
  40c94f:	ins    DWORD PTR es:[edi],dx
  40c950:	add    BYTE PTR [eax],al
  40c952:	or     dl,BYTE PTR [edx]
  40c954:	xor    ebx,DWORD PTR [edi]
  40c956:	xor    al,0x1f
  40c958:	and    BYTE PTR [eax],ch
  40c95a:	xchg   DWORD PTR [eax],eax
  40c95c:	add    BYTE PTR [edx],cl
  40c95e:	add    bh,BYTE PTR [ebx+0x3b]
  40c961:	add    DWORD PTR [eax],eax
  40c963:	add    al,0x11
  40c965:	xor    ebp,DWORD PTR [eax]
  40c967:	mov    BYTE PTR [eax],al
  40c969:	add    BYTE PTR [edx],cl
  40c96b:	sbb    cl,BYTE PTR [ebp+0x1000034]
  40c971:	or     al,0x8
  40c973:	push   ss
  40c974:	pop    ds
  40c975:	or     al,0x9e
  40c977:	or     BYTE PTR [edi],dl
  40c979:	push   ss
  40c97a:	sahf   
  40c97b:	or     BYTE PTR [eax],bl
  40c97d:	push   ss
  40c97e:	sahf   
  40c97f:	or     BYTE PTR [ecx],bl
  40c981:	push   ss
  40c982:	sahf   
  40c983:	adc    dh,BYTE PTR [edx]
  40c985:	or     BYTE PTR [eax],ch
  40c987:	imul   eax,DWORD PTR [eax],0x0
  40c98a:	or     al,BYTE PTR [edx]
  40c98c:	jnp    0x40c9c9
  40c98e:	add    DWORD PTR [eax],eax
  40c990:	add    al,0x11
  40c992:	xor    ch,BYTE PTR [eax]
  40c994:	ins    BYTE PTR es:[edi],dx
  40c995:	add    BYTE PTR [eax],al
  40c997:	or     bl,BYTE PTR [edx]
  40c999:	lea    esi,[eax+eax*1]
  40c99c:	add    BYTE PTR [ecx],al
  40c99e:	or     eax,DWORD PTR [edi]
  40c9a0:	push   ss
  40c9a1:	pop    ss
  40c9a2:	sahf   
  40c9a3:	pop    es
  40c9a4:	pop    ss
  40c9a5:	push   ss
  40c9a6:	sahf   
  40c9a7:	pop    es
  40c9a8:	sbb    BYTE PTR [esi],dl
  40c9aa:	sahf   
  40c9ab:	pop    es
  40c9ac:	sbb    DWORD PTR [esi],edx
  40c9ae:	sahf   
  40c9af:	adc    dh,BYTE PTR [ecx]
  40c9b1:	pop    es
  40c9b2:	sub    BYTE PTR [ebx+0x0],ch
  40c9b5:	add    BYTE PTR [edx],cl
  40c9b7:	add    bh,BYTE PTR [ebx+0x3b]
  40c9ba:	add    DWORD PTR [eax],eax
  40c9bc:	add    al,0x11
  40c9be:	xor    DWORD PTR [eax],ebp
  40c9c0:	bound  eax,QWORD PTR [eax]
  40c9c2:	add    BYTE PTR [edx],cl
  40c9c4:	add    bh,BYTE PTR [ebx+0x3b]
  40c9c7:	add    DWORD PTR [eax],eax
  40c9c9:	add    al,0x72
  40c9cb:	icebp  
  40c9cc:	add    al,BYTE PTR [eax]
  40c9ce:	jo     0x40c9f8
  40c9d0:	xchg   BYTE PTR [eax],al
  40c9d2:	add    BYTE PTR [edx],cl
  40c9d4:	adc    dh,BYTE PTR [eax]
  40c9d6:	pop    ds
  40c9d7:	sub    BYTE PTR [edi],bl
  40c9d9:	adc    al,0x28
  40c9db:	add    DWORD PTR [eax],0x0
  40c9de:	or     al,BYTE PTR [edx]
  40c9e0:	jnp    0x40ca1d
  40c9e2:	add    DWORD PTR [eax],eax
  40c9e4:	add    al,0x11
  40c9e6:	xor    BYTE PTR [eax],ch
  40c9e8:	test   BYTE PTR [eax],al
  40c9ea:	add    BYTE PTR [edx],cl
  40c9ec:	add    bh,BYTE PTR [ebx+0x3b]
  40c9ef:	add    DWORD PTR [eax],eax
  40c9f1:	add    al,0x1f
  40c9f3:	sbb    eax,0x8228
  40c9f8:	or     bl,BYTE PTR [edx]
  40c9fa:	lea    esi,[eax+eax*1]
  40c9fd:	add    BYTE PTR [ecx],al
  40c9ff:	or     al,BYTE PTR [esi]
  40ca01:	push   ss
  40ca02:	pop    ss
  40ca03:	sahf   
  40ca04:	push   es
  40ca05:	pop    ss
  40ca06:	push   ss
  40ca07:	sahf   
  40ca08:	push   es
  40ca09:	sbb    BYTE PTR [esi],dl
  40ca0b:	sahf   
  40ca0c:	push   es
  40ca0d:	sbb    DWORD PTR [esi],edx
  40ca0f:	sahf   
  40ca10:	adc    ch,BYTE PTR [edi]
  40ca12:	push   es
  40ca13:	sub    BYTE PTR [ebx+0x0],ch
  40ca16:	add    BYTE PTR [edx],cl
  40ca18:	add    bh,BYTE PTR [ebx+0x3b]
  40ca1b:	add    DWORD PTR [eax],eax
  40ca1d:	add    al,0x11
  40ca1f:	das    
  40ca20:	sub    BYTE PTR [edx+0x0],ch
  40ca23:	add    BYTE PTR [edx],cl
  40ca25:	add    bh,BYTE PTR [ebx+0x3b]
  40ca28:	add    DWORD PTR [eax],eax
  40ca2a:	add    al,0x2
  40ca2c:	inc    BYTE PTR [esi]
  40ca2e:	mov    esp,0x73060001
  40ca33:	lea    eax,[eax]
  40ca35:	add    BYTE PTR [edx],cl
  40ca37:	sub    BYTE PTR [ecx+0x0],ch
  40ca3a:	add    BYTE PTR [edx],cl
  40ca3c:	adc    ch,BYTE PTR [esi]
  40ca3e:	pop    ds
  40ca3f:	jo     0x40ca61
  40ca41:	mov    al,ds:0x28000000
  40ca46:	xchg   DWORD PTR [eax],eax
  40ca48:	add    BYTE PTR [edx],cl
  40ca4a:	add    bh,BYTE PTR [ebx+0x35]
  40ca4d:	add    DWORD PTR [eax],eax
  40ca4f:	add    al,0x11
  40ca51:	sub    BYTE PTR cs:[eax+0x20a0000],cl
  40ca58:	jnp    0x40ca8f
  40ca5a:	add    DWORD PTR [eax],eax
  40ca5c:	add    al,0x72
  40ca5e:	adc    DWORD PTR [ebx],eax
  40ca60:	add    BYTE PTR [eax+0x28],dh
  40ca63:	xchg   BYTE PTR [eax],al
  40ca65:	add    BYTE PTR [edx],cl
  40ca67:	adc    ch,BYTE PTR ds:0x181f581f
  40ca6d:	sub    BYTE PTR [ebx+0x20a0000],al
  40ca73:	jnp    0x40caaa
  40ca75:	add    DWORD PTR [eax],eax
  40ca77:	add    al,0x11
  40ca79:	sub    eax,0x8428
  40ca7e:	or     al,BYTE PTR [edx]
  40ca80:	jnp    0x40cab7
  40ca82:	add    DWORD PTR [eax],eax
  40ca84:	add    al,0x1f
  40ca86:	sbb    ebp,DWORD PTR [eax]
  40ca88:	add    BYTE PTR [eax],0x0
  40ca8b:	or     al,BYTE PTR [edx]
  40ca8d:	jnp    0x40cac4
  40ca8f:	add    DWORD PTR [eax],eax
  40ca91:	add    al,0x72
  40ca93:	xor    eax,0x6f700003
  40ca98:	push   0x20a0000
  40ca9d:	jnp    0x40cad4
  40ca9f:	add    DWORD PTR [eax],eax
  40caa1:	add    al,0x2
  40caa3:	inc    BYTE PTR [esi]
  40caa5:	ret    0x1
  40caa8:	push   es
  40caa9:	jae    0x40ca38
  40caab:	add    BYTE PTR [eax],al
  40caad:	or     ch,BYTE PTR [eax]
  40caaf:	add    BYTE PTR [bx+si],al
  40cab2:	or     dl,BYTE PTR [edx]
  40cab4:	sub    al,0x1f
  40cab6:	adc    BYTE PTR [eax],ah
  40cab8:	mov    al,ds:0x28000000
  40cabd:	xchg   DWORD PTR [eax],eax
  40cabf:	add    BYTE PTR [edx],cl
  40cac1:	add    bh,BYTE PTR [ebx+0x34]
  40cac4:	add    DWORD PTR [eax],eax
  40cac6:	add    al,0x11
  40cac8:	sub    al,0x28
  40caca:	mov    BYTE PTR [eax],al
  40cacc:	add    BYTE PTR [edx],cl
  40cace:	add    bh,BYTE PTR [ebx+0x34]
  40cad1:	add    DWORD PTR [eax],eax
  40cad3:	add    al,0x72
  40cad5:	dec    edi
  40cad6:	add    eax,DWORD PTR [eax]
  40cad8:	jo     0x40cb02
  40cada:	xchg   BYTE PTR [eax],al
  40cadc:	add    BYTE PTR [edx],cl
  40cade:	adc    ch,BYTE PTR [ebx]
  40cae0:	pop    ds
  40cae1:	pop    eax
  40cae2:	pop    ds
  40cae3:	sbb    BYTE PTR [eax],ch
  40cae5:	add    DWORD PTR [eax],0x0
  40cae8:	or     al,BYTE PTR [edx]
  40caea:	jnp    0x40cb20
  40caec:	add    DWORD PTR [eax],eax
  40caee:	add    al,0x11
  40caf0:	sub    ebp,DWORD PTR [eax]
  40caf2:	test   BYTE PTR [eax],al
  40caf4:	add    BYTE PTR [edx],cl
  40caf6:	add    bh,BYTE PTR [ebx+0x34]
  40caf9:	add    DWORD PTR [eax],eax
  40cafb:	add    al,0x1f
  40cafd:	sbb    ch,BYTE PTR [eax]
  40caff:	add    BYTE PTR [eax],0x0
  40cb02:	or     al,BYTE PTR [edx]
  40cb04:	jnp    0x40cb3a
  40cb06:	add    DWORD PTR [eax],eax
  40cb08:	add    al,0x72
  40cb0a:	ins    DWORD PTR es:[edi],dx
  40cb0b:	add    eax,DWORD PTR [eax]
  40cb0d:	jo     0x40cb7e
  40cb0f:	push   0x20a0000
  40cb14:	jnp    0x40cb4a
  40cb16:	add    DWORD PTR [eax],eax
  40cb18:	add    al,0x2
  40cb1a:	inc    BYTE PTR [esi]
  40cb1c:	rol    DWORD PTR [ecx],0x0
  40cb1f:	push   es
  40cb20:	jae    0x40caaf
  40cb22:	add    BYTE PTR [eax],al
  40cb24:	or     ch,BYTE PTR [eax]
  40cb26:	add    BYTE PTR [bx+si],al
  40cb29:	or     dl,BYTE PTR [edx]
  40cb2b:	sub    bl,BYTE PTR [edi]
  40cb2d:	jo     0x40cb4e
  40cb2f:	inc    eax
  40cb30:	sub    BYTE PTR [edi+0x20a0000],al
  40cb36:	jnp    0x40cb6b
  40cb38:	add    DWORD PTR [eax],eax
  40cb3a:	add    al,0x11
  40cb3c:	sub    ch,BYTE PTR [eax]
  40cb3e:	mov    BYTE PTR [eax],al
  40cb40:	add    BYTE PTR [edx],cl
  40cb42:	add    bh,BYTE PTR [ebx+0x33]
  40cb45:	add    DWORD PTR [eax],eax
  40cb47:	add    al,0x72
  40cb49:	add    DWORD PTR [ebx],0x86287000
  40cb4f:	add    BYTE PTR [eax],al
  40cb51:	or     dl,BYTE PTR [edx]
  40cb53:	sub    DWORD PTR [edi],ebx
  40cb55:	pop    eax
  40cb56:	pop    ds
  40cb57:	sbb    BYTE PTR [eax],ch
  40cb59:	add    DWORD PTR [eax],0x0
  40cb5c:	or     al,BYTE PTR [edx]
  40cb5e:	jnp    0x40cb93
  40cb60:	add    DWORD PTR [eax],eax
  40cb62:	add    al,0x11
  40cb64:	sub    DWORD PTR [eax],ebp
  40cb66:	test   BYTE PTR [eax],al
  40cb68:	add    BYTE PTR [edx],cl
  40cb6a:	add    bh,BYTE PTR [ebx+0x33]
  40cb6d:	add    DWORD PTR [eax],eax
  40cb6f:	add    al,0x1f
  40cb71:	sbb    DWORD PTR [eax],ebp
  40cb73:	add    BYTE PTR [eax],0x0
  40cb76:	or     al,BYTE PTR [edx]
  40cb78:	jnp    0x40cbad
  40cb7a:	add    DWORD PTR [eax],eax
  40cb7c:	add    al,0x72
  40cb7e:	mov    ds:0x6f700003,eax
  40cb83:	push   0x20a0000
  40cb88:	jnp    0x40cbbd
  40cb8a:	add    DWORD PTR [eax],eax
  40cb8c:	add    al,0x2
  40cb8e:	inc    BYTE PTR [esi]
  40cb90:	retf   0x1
  40cb93:	push   es
  40cb94:	jae    0x40cb23
  40cb96:	add    BYTE PTR [eax],al
  40cb98:	or     ch,BYTE PTR [eax]
  40cb9a:	add    BYTE PTR [bx+si],al
  40cb9d:	or     dl,BYTE PTR [edx]
  40cb9f:	sub    BYTE PTR [edi],bl
  40cba1:	adc    BYTE PTR [edi],bl
  40cba3:	pusha  
  40cba4:	sub    BYTE PTR [edi+0x20a0000],al
  40cbaa:	jnp    0x40cbdd
  40cbac:	add    DWORD PTR [eax],eax
  40cbae:	add    al,0x11
  40cbb0:	sub    BYTE PTR [eax],ch
  40cbb2:	mov    BYTE PTR [eax],al
  40cbb4:	add    BYTE PTR [edx],cl
  40cbb6:	add    bh,BYTE PTR [ebx+0x31]
  40cbb9:	add    DWORD PTR [eax],eax
  40cbbb:	add    al,0x72
  40cbbd:	mov    ebx,0x28700003
  40cbc2:	xchg   BYTE PTR [eax],al
  40cbc4:	add    BYTE PTR [edx],cl
  40cbc6:	adc    ah,BYTE PTR [edi]
  40cbc8:	pop    ds
  40cbc9:	pop    eax
  40cbca:	pop    ds
  40cbcb:	sbb    BYTE PTR [eax],ch
  40cbcd:	add    DWORD PTR [eax],0x0
  40cbd0:	or     al,BYTE PTR [edx]
  40cbd2:	jnp    0x40cc05
  40cbd4:	add    DWORD PTR [eax],eax
  40cbd6:	add    al,0x11
  40cbd8:	daa    
  40cbd9:	sub    BYTE PTR [eax+eax*1+0x7b020a00],al
  40cbe0:	xor    DWORD PTR [ecx],eax
  40cbe2:	add    BYTE PTR [edi+ebx*1],al
  40cbe5:	sbb    BYTE PTR [eax],ch
  40cbe7:	add    BYTE PTR [eax],0x0
  40cbea:	or     al,BYTE PTR [edx]
  40cbec:	jnp    0x40cc1f
  40cbee:	add    DWORD PTR [eax],eax
  40cbf0:	add    al,0x72
  40cbf2:	fld    DWORD PTR [ebx]
  40cbf4:	add    BYTE PTR [eax+0x6f],dh
  40cbf7:	push   0x20a0000
  40cbfc:	jnp    0x40cc2f
  40cbfe:	add    DWORD PTR [eax],eax
  40cc00:	add    al,0x2
  40cc02:	inc    BYTE PTR [esi]
  40cc04:	rol    BYTE PTR [ecx],0x0
  40cc07:	push   es
  40cc08:	jae    0x40cb97
  40cc0a:	add    BYTE PTR [eax],al
  40cc0c:	or     ch,BYTE PTR [eax]
  40cc0e:	add    BYTE PTR [bx+si],al
  40cc11:	or     dl,BYTE PTR [edx]
  40cc13:	es and al,dl
  40cc16:	add    BYTE PTR [eax],al
  40cc18:	add    BYTE PTR [edi],bl
  40cc1a:	inc    eax
  40cc1b:	sub    BYTE PTR [edi+0x20a0000],al
  40cc21:	jnp    0x40cc53
  40cc23:	add    DWORD PTR [eax],eax
  40cc25:	add    al,0x11
  40cc27:	sub    BYTE PTR es:[eax+0x20a0000],cl
  40cc2e:	jnp    0x40cc60
  40cc30:	add    DWORD PTR [eax],eax
  40cc32:	add    al,0x72
  40cc34:	in     eax,dx
  40cc35:	add    eax,DWORD PTR [eax]
  40cc37:	jo     0x40cc61
  40cc39:	xchg   BYTE PTR [eax],al
  40cc3b:	add    BYTE PTR [edx],cl
  40cc3d:	adc    ah,BYTE PTR ds:0x181f581f
  40cc43:	sub    BYTE PTR [ebx+0x20a0000],al
  40cc49:	jnp    0x40cc7b
  40cc4b:	add    DWORD PTR [eax],eax
  40cc4d:	add    al,0x11
  40cc4f:	and    eax,0x8428
  40cc54:	or     al,BYTE PTR [edx]
  40cc56:	jnp    0x40cc88
  40cc58:	add    DWORD PTR [eax],eax
  40cc5a:	add    al,0x1f
  40cc5c:	pop    ss
  40cc5d:	sub    BYTE PTR [edx+0x20a0000],al
  40cc63:	jnp    0x40cc95
  40cc65:	add    DWORD PTR [eax],eax
  40cc67:	add    al,0x72
  40cc69:	add    eax,0x6f700004
  40cc6e:	push   0x20a0000
  40cc73:	jnp    0x40cca5
  40cc75:	add    DWORD PTR [eax],eax
  40cc77:	add    al,0x2
  40cc79:	inc    BYTE PTR [esi]
  40cc7b:	les    eax,FWORD PTR [ecx]
  40cc7d:	add    BYTE PTR [esi],al
  40cc7f:	jae    0x40cc0e
  40cc81:	add    BYTE PTR [eax],al
  40cc83:	or     ch,BYTE PTR [eax]
  40cc85:	add    BYTE PTR [bx+si],al
  40cc88:	or     dl,BYTE PTR [edx]
  40cc8a:	and    al,0x20
  40cc8c:	rol    BYTE PTR [eax],1
  40cc8e:	add    BYTE PTR [eax],al
  40cc90:	pop    ds
  40cc91:	pusha  
  40cc92:	sub    BYTE PTR [edi+0x20a0000],al
  40cc98:	jnp    0x40ccc9
  40cc9a:	add    DWORD PTR [eax],eax
  40cc9c:	add    al,0x11
  40cc9e:	and    al,0x28
  40cca0:	mov    BYTE PTR [eax],al
  40cca2:	add    BYTE PTR [edx],cl
  40cca4:	add    bh,BYTE PTR [ebx+0x2f]
  40cca7:	add    DWORD PTR [eax],eax
  40cca9:	add    al,0x72
  40ccab:	adc    DWORD PTR [eax+eax*1],eax
  40ccae:	jo     0x40ccd8
  40ccb0:	xchg   BYTE PTR [eax],al
  40ccb2:	add    BYTE PTR [edx],cl
  40ccb4:	adc    ah,BYTE PTR [ebx]
  40ccb6:	pop    ds
  40ccb7:	pop    eax
  40ccb8:	pop    ds
  40ccb9:	sbb    BYTE PTR [eax],ch
  40ccbb:	add    DWORD PTR [eax],0x0
  40ccbe:	or     al,BYTE PTR [edx]
  40ccc0:	jnp    0x40ccf1
  40ccc2:	add    DWORD PTR [eax],eax
  40ccc4:	add    al,0x11
  40ccc6:	and    ebp,DWORD PTR [eax]
  40ccc8:	test   BYTE PTR [eax],al
  40ccca:	add    BYTE PTR [edx],cl
  40cccc:	add    bh,BYTE PTR [ebx+0x2f]
  40cccf:	add    DWORD PTR [eax],eax
  40ccd1:	add    al,0x1f
  40ccd3:	push   ss
  40ccd4:	sub    BYTE PTR [edx+0x20a0000],al
  40ccda:	jnp    0x40cd0b
  40ccdc:	add    DWORD PTR [eax],eax
  40ccde:	add    al,0x72
  40cce0:	xor    DWORD PTR [eax+eax*1],eax
  40cce3:	jo     0x40cd54
  40cce5:	push   0x20a0000
  40ccea:	jnp    0x40cd1b
  40ccec:	add    DWORD PTR [eax],eax
  40ccee:	add    al,0x2
  40ccf0:	inc    BYTE PTR [esi]
  40ccf2:	mov    edi,0x73060001
  40ccf7:	lea    eax,[eax]
  40ccf9:	add    BYTE PTR [edx],cl
  40ccfb:	sub    BYTE PTR [edi+0x0],ah
  40ccfe:	add    BYTE PTR [edx],cl
  40cd00:	adc    ah,BYTE PTR [edx]
  40cd02:	pop    ds
  40cd03:	adc    BYTE PTR [edi],bl
  40cd05:	inc    eax
  40cd06:	sub    BYTE PTR [edi+0x20a0000],al
  40cd0c:	jnp    0x40cd35
  40cd0e:	add    DWORD PTR [eax],eax
  40cd10:	add    al,0x11
  40cd12:	and    ch,BYTE PTR [eax]
  40cd14:	mov    BYTE PTR [eax],al
  40cd16:	add    BYTE PTR [edx],cl
  40cd18:	add    bh,BYTE PTR [ebx+0x27]
  40cd1b:	add    DWORD PTR [eax],eax
  40cd1d:	add    al,0x72
  40cd1f:	inc    edi
  40cd20:	add    al,0x0
  40cd22:	jo     0x40cd4c
  40cd24:	xchg   BYTE PTR [eax],al
  40cd26:	add    BYTE PTR [edx],cl
  40cd28:	adc    ah,BYTE PTR [ecx]
  40cd2a:	pop    ds
  40cd2b:	pop    eax
  40cd2c:	pop    ds
  40cd2d:	sbb    BYTE PTR [eax],ch
  40cd2f:	add    DWORD PTR [eax],0x0
  40cd32:	or     al,BYTE PTR [edx]
  40cd34:	jnp    0x40cd5d
  40cd36:	add    DWORD PTR [eax],eax
  40cd38:	add    al,0x11
  40cd3a:	and    DWORD PTR [eax],ebp
  40cd3c:	test   BYTE PTR [eax],al
  40cd3e:	add    BYTE PTR [edx],cl
  40cd40:	add    bh,BYTE PTR [ebx+0x27]
  40cd43:	add    DWORD PTR [eax],eax
  40cd45:	add    al,0x1f
  40cd47:	adc    eax,0x8228
  40cd4c:	or     al,BYTE PTR [edx]
  40cd4e:	jnp    0x40cd77
  40cd50:	add    DWORD PTR [eax],eax
  40cd52:	add    al,0x72
  40cd54:	imul   eax,DWORD PTR [eax+eax*1],0x686f70
  40cd5b:	add    BYTE PTR [edx],cl
  40cd5d:	add    bh,BYTE PTR [ebx+0x27]
  40cd60:	add    DWORD PTR [eax],eax
  40cd62:	add    al,0x2
  40cd64:	inc    BYTE PTR [esi]
  40cd66:	leave  
  40cd67:	add    DWORD PTR [eax],eax
  40cd69:	push   es
  40cd6a:	jae    0x40ccf9
  40cd6c:	add    BYTE PTR [eax],al
  40cd6e:	or     ch,BYTE PTR [eax]
  40cd70:	add    BYTE PTR [bx+si],al
  40cd73:	or     al,BYTE PTR [edx]
  40cd75:	jnp    0x40cda2
  40cd77:	add    DWORD PTR [eax],eax
  40cd79:	add    al,0x17
  40cd7b:	outs   dx,DWORD PTR ds:[esi]
  40cd7c:	popa   
  40cd7d:	add    BYTE PTR [eax],al
  40cd7f:	or     al,BYTE PTR [edx]
  40cd81:	jnp    0x40cdae
  40cd83:	add    DWORD PTR [eax],eax
  40cd85:	add    al,0x28
  40cd87:	jo     0x40cd89
  40cd89:	add    BYTE PTR [edx],cl
  40cd8b:	add    bh,BYTE PTR [ebx+0x2c]
  40cd8e:	add    DWORD PTR [eax],eax
  40cd90:	add    al,0x6f
  40cd92:	jno    0x40cd94
  40cd94:	add    BYTE PTR [edx],cl
  40cd96:	add    bh,BYTE PTR [ebx+0x2b]
  40cd99:	add    DWORD PTR [eax],eax
  40cd9b:	add    al,0x28
  40cd9d:	jo     0x40cd9f
  40cd9f:	add    BYTE PTR [edx],cl
  40cda1:	add    bh,BYTE PTR [ebx+0x4c]
  40cda4:	add    DWORD PTR [eax],eax
  40cda6:	add    al,0x6f
  40cda8:	jno    0x40cdaa
  40cdaa:	add    BYTE PTR [edx],cl
  40cdac:	add    bh,BYTE PTR [ebx+0x2b]
  40cdaf:	add    DWORD PTR [eax],eax
  40cdb1:	add    al,0x28
  40cdb3:	jo     0x40cdb5
  40cdb5:	add    BYTE PTR [edx],cl
  40cdb7:	add    bh,BYTE PTR [ebx+0x2d]
  40cdba:	add    DWORD PTR [eax],eax
  40cdbc:	add    al,0x6f
  40cdbe:	jno    0x40cdc0
  40cdc0:	add    BYTE PTR [edx],cl
  40cdc2:	add    bh,BYTE PTR [ebx+0x2b]
  40cdc5:	add    DWORD PTR [eax],eax
  40cdc7:	add    al,0x19
  40cdc9:	outs   dx,DWORD PTR ds:[esi]
  40cdca:	mov    WORD PTR [eax],es
  40cdcc:	add    BYTE PTR [edx],cl
  40cdce:	adc    ah,BYTE PTR [eax]
  40cdd0:	push   ss
  40cdd1:	push   ss
  40cdd2:	sub    BYTE PTR [edi+0x20a0000],al
  40cdd8:	jnp    0x40ce05
  40cdda:	add    DWORD PTR [eax],eax
  40cddc:	add    al,0x11
  40cdde:	and    BYTE PTR [eax],ch
  40cde0:	mov    BYTE PTR [eax],al
  40cde2:	add    BYTE PTR [edx],cl
  40cde4:	add    bh,BYTE PTR [ebx+0x2b]
  40cde7:	add    DWORD PTR [eax],eax
  40cde9:	add    al,0x72
  40cdeb:	add    DWORD PTR [eax+eax*1],0x862870
  40cdf2:	add    BYTE PTR [edx],cl
  40cdf4:	adc    bl,BYTE PTR [edi]
  40cdf6:	and    BYTE PTR [eax],al
  40cdf8:	add    DWORD PTR [eax],eax
  40cdfa:	add    BYTE PTR [eax],ah
  40cdfc:	add    BYTE PTR [ecx],al
  40cdfe:	add    BYTE PTR [eax],al
  40ce00:	sub    BYTE PTR [ebx+0x20a0000],al
  40ce06:	jnp    0x40ce33
  40ce08:	add    DWORD PTR [eax],eax
  40ce0a:	add    al,0x11
  40ce0c:	pop    ds
  40ce0d:	sub    BYTE PTR [eax+eax*1+0x7b020a00],al
  40ce14:	sub    eax,DWORD PTR [ecx]
  40ce16:	add    BYTE PTR [edi+ebx*1],al
  40ce19:	pop    ss
  40ce1a:	sub    BYTE PTR [edx+0x20a0000],al
  40ce20:	jnp    0x40ce4e
  40ce22:	add    DWORD PTR [eax],eax
  40ce24:	add    al,0x17
  40ce26:	sub    BYTE PTR [eax+0x0],ah
  40ce29:	add    BYTE PTR [edx],cl
  40ce2b:	adc    bl,BYTE PTR [esi]
  40ce2d:	pop    ds
  40ce2e:	push   0x8728381f
  40ce33:	add    BYTE PTR [eax],al
  40ce35:	or     al,BYTE PTR [edx]
  40ce37:	jnp    0x40ce65
  40ce39:	add    DWORD PTR [eax],eax
  40ce3b:	add    al,0x11
  40ce3d:	push   ds
  40ce3e:	sub    BYTE PTR [eax+0x20a0000],cl
  40ce44:	jnp    0x40ce72
  40ce46:	add    DWORD PTR [eax],eax
  40ce48:	add    al,0x72
  40ce4a:	mov    ds:0x28700004,eax
  40ce4f:	xchg   BYTE PTR [eax],al
  40ce51:	add    BYTE PTR [edx],cl
  40ce53:	adc    bl,BYTE PTR ds:0x8020401f
  40ce59:	add    BYTE PTR [eax],al
  40ce5b:	add    BYTE PTR [eax],ch
  40ce5d:	add    DWORD PTR [eax],0x0
  40ce60:	or     al,BYTE PTR [edx]
  40ce62:	jnp    0x40ce90
  40ce64:	add    DWORD PTR [eax],eax
  40ce66:	add    al,0x11
  40ce68:	sbb    eax,0x8428
  40ce6d:	or     al,BYTE PTR [edx]
  40ce6f:	jnp    0x40ce9d
  40ce71:	add    DWORD PTR [eax],eax
  40ce73:	add    al,0x1f
  40ce75:	adc    ch,BYTE PTR [eax]
  40ce77:	js     0x40ce79
  40ce79:	add    BYTE PTR [edx],cl
  40ce7b:	add    bh,BYTE PTR [ebx+0x2c]
  40ce7e:	add    DWORD PTR [eax],eax
  40ce80:	add    al,0x16
  40ce82:	sub    BYTE PTR [edi+0x0],dh
  40ce85:	add    BYTE PTR [edx],cl
  40ce87:	add    bh,BYTE PTR [ebx+0x4c]
  40ce8a:	add    DWORD PTR [eax],eax
  40ce8c:	add    al,0x72
  40ce8e:	mov    ebx,0x22700004
  40ce93:	add    BYTE PTR [eax],al
  40ce95:	add    al,0x41
  40ce97:	pop    ss
  40ce98:	sbb    DWORD PTR [esi],edx
  40ce9a:	jae    0x40cefa
  40ce9c:	add    BYTE PTR [eax],al
  40ce9e:	or     ch,BYTE PTR [edi+0x5f]
  40cea1:	add    BYTE PTR [eax],al
  40cea3:	or     dl,BYTE PTR [edx]
  40cea5:	sbb    al,0x1f
  40cea7:	push   0x1e
  40cea9:	sub    BYTE PTR [edi+0x20a0000],al
  40ceaf:	jnp    0x40cefd
  40ceb1:	add    DWORD PTR [eax],eax
  40ceb3:	add    al,0x11
  40ceb5:	sbb    al,0x28
  40ceb7:	mov    BYTE PTR [eax],al
  40ceb9:	add    BYTE PTR [edx],cl
  40cebb:	add    bh,BYTE PTR [ebx+0x4c]
  40cebe:	add    DWORD PTR [eax],eax
  40cec0:	add    al,0x72
  40cec2:	retf   
  40cec3:	add    al,0x0
  40cec5:	jo     0x40ceef
  40cec7:	xchg   BYTE PTR [eax],al
  40cec9:	add    BYTE PTR [edx],cl
  40cecb:	adc    bl,BYTE PTR [ebx]
  40cecd:	pop    ds
  40cece:	inc    eax
  40cecf:	pop    ds
  40ced0:	adc    BYTE PTR [eax],ch
  40ced2:	add    DWORD PTR [eax],0x0
  40ced5:	or     al,BYTE PTR [edx]
  40ced7:	jnp    0x40cf25
  40ced9:	add    DWORD PTR [eax],eax
  40cedb:	add    al,0x11
  40cedd:	sbb    ebp,DWORD PTR [eax]
  40cedf:	test   BYTE PTR [eax],al
  40cee1:	add    BYTE PTR [edx],cl
  40cee3:	add    bh,BYTE PTR [ebx+0x4c]
  40cee6:	add    DWORD PTR [eax],eax
  40cee8:	add    al,0x1f
  40ceea:	adc    eax,0x8228
  40ceef:	or     al,BYTE PTR [edx]
  40cef1:	jnp    0x40cf3f
  40cef3:	add    DWORD PTR [eax],eax
  40cef5:	add    al,0x72
  40cef7:	fld    DWORD PTR [eax+eax*1]
  40cefa:	jo     0x40cf6b
  40cefc:	ins    DWORD PTR es:[edi],dx
  40cefd:	add    BYTE PTR [eax],al
  40ceff:	or     dl,BYTE PTR [edx]
  40cf01:	sbb    dl,BYTE PTR [esi]
  40cf03:	push   ss
  40cf04:	sub    BYTE PTR [edi+0x20a0000],al
  40cf0a:	jnp    0x40cf39
  40cf0c:	add    DWORD PTR [eax],eax
  40cf0e:	add    al,0x11
  40cf10:	sbb    ch,BYTE PTR [eax]
  40cf12:	mov    BYTE PTR [eax],al
  40cf14:	add    BYTE PTR [edx],cl
  40cf16:	add    bh,BYTE PTR [ebx+0x2d]
  40cf19:	add    DWORD PTR [eax],eax
  40cf1b:	add    al,0x72
  40cf1d:	jmp    0x40cf23
  40cf1f:	add    BYTE PTR [eax+0x28],dh
  40cf22:	xchg   BYTE PTR [eax],al
  40cf24:	add    BYTE PTR [edx],cl
  40cf26:	adc    bl,BYTE PTR [ecx]
  40cf28:	sbb    DWORD PTR [eax],esp
  40cf2a:	add    BYTE PTR [ecx],al
  40cf2c:	add    BYTE PTR [eax],al
  40cf2e:	sub    BYTE PTR [ebx+0x20a0000],al
  40cf34:	jnp    0x40cf63
  40cf36:	add    DWORD PTR [eax],eax
  40cf38:	add    al,0x11
  40cf3a:	sbb    DWORD PTR [eax],ebp
  40cf3c:	test   BYTE PTR [eax],al
  40cf3e:	add    BYTE PTR [edx],cl
  40cf40:	add    bh,BYTE PTR [ebx+0x2d]
  40cf43:	add    DWORD PTR [eax],eax
  40cf45:	add    al,0x1f
  40cf47:	adc    ebp,DWORD PTR [eax]
  40cf49:	add    BYTE PTR [eax],0x0
  40cf4c:	or     al,BYTE PTR [edx]
  40cf4e:	jnp    0x40cf7d
  40cf50:	add    DWORD PTR [eax],eax
  40cf52:	add    al,0x16
  40cf54:	sub    BYTE PTR [edx+0x0],bh
  40cf57:	add    BYTE PTR [edx],cl
  40cf59:	add    bh,BYTE PTR [ebx+0x4d]
  40cf5c:	add    DWORD PTR [eax],eax
  40cf5e:	add    al,0x17
  40cf60:	outs   dx,DWORD PTR ds:[esi]
  40cf61:	popa   
  40cf62:	add    BYTE PTR [eax],al
  40cf64:	or     al,BYTE PTR [edx]
  40cf66:	jnp    0x40cfb5
  40cf68:	add    DWORD PTR [eax],eax
  40cf6a:	add    al,0x28
  40cf6c:	jo     0x40cf6e
  40cf6e:	add    BYTE PTR [edx],cl
  40cf70:	add    bh,BYTE PTR [ebx+0x4a]
  40cf73:	add    DWORD PTR [eax],eax
  40cf75:	add    al,0x6f
  40cf77:	jno    0x40cf79
  40cf79:	add    BYTE PTR [edx],cl
  40cf7b:	add    bh,BYTE PTR [ebx+0x4d]
  40cf7e:	add    DWORD PTR [eax],eax
  40cf80:	add    al,0x28
  40cf82:	jo     0x40cf84
  40cf84:	add    BYTE PTR [edx],cl
  40cf86:	add    bh,BYTE PTR [ebx+0x4b]
  40cf89:	add    DWORD PTR [eax],eax
  40cf8b:	add    al,0x6f
  40cf8d:	jno    0x40cf8f
  40cf8f:	add    BYTE PTR [edx],cl
  40cf91:	add    bh,BYTE PTR [ebx+0x4d]
  40cf94:	add    DWORD PTR [eax],eax
  40cf96:	add    al,0x28
  40cf98:	jo     0x40cf9a
  40cf9a:	add    BYTE PTR [edx],cl
  40cf9c:	add    bh,BYTE PTR [ebx+0x49]
  40cf9f:	add    DWORD PTR [eax],eax
  40cfa1:	add    al,0x6f
  40cfa3:	jno    0x40cfa5
  40cfa5:	add    BYTE PTR [edx],cl
  40cfa7:	add    bh,BYTE PTR [ebx+0x4d]
  40cfaa:	add    DWORD PTR [eax],eax
  40cfac:	add    al,0x1a
  40cfae:	outs   dx,DWORD PTR ds:[esi]
  40cfaf:	mov    WORD PTR [eax],es
  40cfb1:	add    BYTE PTR [edx],cl
  40cfb3:	adc    bl,BYTE PTR [eax]
  40cfb5:	and    BYTE PTR [edx],bh
  40cfb7:	add    al,BYTE PTR [eax]
  40cfb9:	add    BYTE PTR [esi],dl
  40cfbb:	sub    BYTE PTR [edi+0x20a0000],al
  40cfc1:	jnp    0x40d010
  40cfc3:	add    DWORD PTR [eax],eax
  40cfc5:	add    al,0x11
  40cfc7:	sbb    BYTE PTR [eax],ch
  40cfc9:	mov    BYTE PTR [eax],al
  40cfcb:	add    BYTE PTR [edx],cl
  40cfcd:	add    bh,BYTE PTR [ebx+0x4d]
  40cfd0:	add    DWORD PTR [eax],eax
  40cfd2:	add    al,0x72
  40cfd4:	inc    DWORD PTR [eax+eax*1]
  40cfd7:	jo     0x40d001
  40cfd9:	xchg   BYTE PTR [eax],al
  40cfdb:	add    BYTE PTR [edx],cl
  40cfdd:	adc    dl,BYTE PTR [edi]
  40cfdf:	and    BYTE PTR [eax],al
  40cfe1:	add    DWORD PTR [eax],eax
  40cfe3:	add    BYTE PTR [eax],ah
  40cfe5:	add    BYTE PTR [ecx],al
  40cfe7:	add    BYTE PTR [eax],al
  40cfe9:	sub    BYTE PTR [ebx+0x20a0000],al
  40cfef:	jnp    0x40d03e
  40cff1:	add    DWORD PTR [eax],eax
  40cff3:	add    al,0x11
  40cff5:	pop    ss
  40cff6:	sub    BYTE PTR [eax+eax*1+0x7b020a00],al
  40cffd:	dec    ebp
  40cffe:	add    DWORD PTR [eax],eax
  40d000:	add    al,0x1f
  40d002:	sbb    BYTE PTR [eax],ch
  40d004:	add    BYTE PTR [eax],0x0
  40d007:	or     al,BYTE PTR [edx]
  40d009:	jnp    0x40d055
  40d00b:	add    DWORD PTR [eax],eax
  40d00d:	add    al,0x17
  40d00f:	sub    BYTE PTR [eax+0x0],ah
  40d012:	add    BYTE PTR [edx],cl
  40d014:	adc    dl,BYTE PTR [esi]
  40d016:	pop    ds
  40d017:	push   0x8728381f
  40d01c:	add    BYTE PTR [eax],al
  40d01e:	or     al,BYTE PTR [edx]
  40d020:	jnp    0x40d06c
  40d022:	add    DWORD PTR [eax],eax
  40d024:	add    al,0x11
  40d026:	push   ss
  40d027:	sub    BYTE PTR [eax+0x20a0000],cl
  40d02d:	jnp    0x40d079
  40d02f:	add    DWORD PTR [eax],eax
  40d031:	add    al,0x72
  40d033:	daa    
  40d034:	add    eax,0x86287000
  40d039:	add    BYTE PTR [eax],al
  40d03b:	or     dl,BYTE PTR [edx]
  40d03d:	adc    eax,0x8020401f
  40d042:	add    BYTE PTR [eax],al
  40d044:	add    BYTE PTR [eax],ch
  40d046:	add    DWORD PTR [eax],0x0
  40d049:	or     al,BYTE PTR [edx]
  40d04b:	jnp    0x40d097
  40d04d:	add    DWORD PTR [eax],eax
  40d04f:	add    al,0x11
  40d051:	adc    eax,0x8428
  40d056:	or     al,BYTE PTR [edx]
  40d058:	jnp    0x40d0a4
  40d05a:	add    DWORD PTR [eax],eax
  40d05c:	add    al,0x1f
  40d05e:	adc    ch,BYTE PTR [eax]
  40d060:	js     0x40d062
  40d062:	add    BYTE PTR [edx],cl
  40d064:	add    bh,BYTE PTR [ebx+0x4a]
  40d067:	add    DWORD PTR [eax],eax
  40d069:	add    al,0x16
  40d06b:	sub    BYTE PTR [edi+0x0],dh
  40d06e:	add    BYTE PTR [edx],cl
  40d070:	add    bh,BYTE PTR [ebx+0x4b]
  40d073:	add    DWORD PTR [eax],eax
  40d075:	add    al,0x72
  40d077:	mov    ebx,0x22700004
  40d07c:	add    BYTE PTR [eax],al
  40d07e:	add    al,0x41
  40d080:	pop    ss
  40d081:	sbb    DWORD PTR [esi],edx
  40d083:	jae    0x40d0e3
  40d085:	add    BYTE PTR [eax],al
  40d087:	or     ch,BYTE PTR [edi+0x5f]
  40d08a:	add    BYTE PTR [eax],al
  40d08c:	or     dl,BYTE PTR [edx]
  40d08e:	adc    al,0x1f
  40d090:	ins    BYTE PTR es:[edi],dx
  40d091:	push   ds
  40d092:	sub    BYTE PTR [edi+0x20a0000],al
  40d098:	jnp    0x40d0e5
  40d09a:	add    DWORD PTR [eax],eax
  40d09c:	add    al,0x11
  40d09e:	adc    al,0x28
  40d0a0:	mov    BYTE PTR [eax],al
  40d0a2:	add    BYTE PTR [edx],cl
  40d0a4:	add    bh,BYTE PTR [ebx+0x4b]
  40d0a7:	add    DWORD PTR [eax],eax
  40d0a9:	add    al,0x72
  40d0ab:	inc    ebp
  40d0ac:	add    eax,0x86287000
  40d0b1:	add    BYTE PTR [eax],al
  40d0b3:	or     dl,BYTE PTR [edx]
  40d0b5:	adc    ebx,DWORD PTR [edi]
  40d0b7:	inc    eax
  40d0b8:	pop    ds
  40d0b9:	adc    BYTE PTR [eax],ch
  40d0bb:	add    DWORD PTR [eax],0x0
  40d0be:	or     al,BYTE PTR [edx]
  40d0c0:	jnp    0x40d10d
  40d0c2:	add    DWORD PTR [eax],eax
  40d0c4:	add    al,0x11
  40d0c6:	adc    ebp,DWORD PTR [eax]
  40d0c8:	test   BYTE PTR [eax],al
  40d0ca:	add    BYTE PTR [edx],cl
  40d0cc:	add    bh,BYTE PTR [ebx+0x4b]
  40d0cf:	add    DWORD PTR [eax],eax
  40d0d1:	add    al,0x1f
  40d0d3:	adc    al,0x28
  40d0d5:	add    BYTE PTR [eax],0x0
  40d0d8:	or     al,BYTE PTR [edx]
  40d0da:	jnp    0x40d127
  40d0dc:	add    DWORD PTR [eax],eax
  40d0de:	add    al,0x72
  40d0e0:	push   ebx
  40d0e1:	add    eax,0x6d6f7000
  40d0e6:	add    BYTE PTR [eax],al
  40d0e8:	or     dl,BYTE PTR [edx]
  40d0ea:	adc    dl,BYTE PTR [esi]
  40d0ec:	push   ss
  40d0ed:	sub    BYTE PTR [edi+0x20a0000],al
  40d0f3:	jnp    0x40d13e
  40d0f5:	add    DWORD PTR [eax],eax
  40d0f7:	add    al,0x11
  40d0f9:	adc    ch,BYTE PTR [eax]
  40d0fb:	mov    BYTE PTR [eax],al
  40d0fd:	add    BYTE PTR [edx],cl
  40d0ff:	add    bh,BYTE PTR [ebx+0x49]
  40d102:	add    DWORD PTR [eax],eax
  40d104:	add    al,0x72
  40d106:	gs add eax,0x86287000
  40d10c:	add    BYTE PTR [eax],al
  40d10e:	or     dl,BYTE PTR [edx]
  40d110:	adc    DWORD PTR [ecx],ebx
  40d112:	and    BYTE PTR [eax],al
  40d114:	add    DWORD PTR [eax],eax
  40d116:	add    BYTE PTR [eax],ch
  40d118:	add    DWORD PTR [eax],0x0
  40d11b:	or     al,BYTE PTR [edx]
  40d11d:	jnp    0x40d168
  40d11f:	add    DWORD PTR [eax],eax
  40d121:	add    al,0x11
  40d123:	adc    DWORD PTR [eax],ebp
  40d125:	test   BYTE PTR [eax],al
  40d127:	add    BYTE PTR [edx],cl
  40d129:	add    bh,BYTE PTR [ebx+0x49]
  40d12c:	add    DWORD PTR [eax],eax
  40d12e:	add    al,0x1f
  40d130:	adc    ebp,DWORD PTR [eax]
  40d132:	add    BYTE PTR [eax],0x0
  40d135:	or     al,BYTE PTR [edx]
  40d137:	jnp    0x40d182
  40d139:	add    DWORD PTR [eax],eax
  40d13b:	add    al,0x16
  40d13d:	sub    BYTE PTR [edx+0x0],bh
  40d140:	add    BYTE PTR [edx],cl
  40d142:	add    bh,BYTE PTR [ebx+0x32]
  40d145:	add    DWORD PTR [eax],eax
  40d147:	add    al,0x72
  40d149:	jns    0x40d150
  40d14b:	add    BYTE PTR [eax+0x28],dh
  40d14e:	pop    ebp
  40d14f:	add    BYTE PTR [eax],al
  40d151:	or     al,BYTE PTR [edx]
  40d153:	jnp    0x40d196
  40d155:	add    DWORD PTR [eax],eax
  40d157:	add    al,0x20
  40d159:	nop
  40d15a:	add    DWORD PTR [eax],eax
  40d15c:	add    BYTE PTR [eax],ch
  40d15e:	pop    esp
  40d15f:	add    BYTE PTR [eax],al
  40d161:	or     al,BYTE PTR [edx]
  40d163:	jnp    0x40d1a6
  40d165:	add    DWORD PTR [eax],eax
  40d167:	add    al,0x2
  40d169:	inc    BYTE PTR [esi]
  40d16b:	enter  0x1,0x6
  40d16f:	jae    0x40d0fe
  40d171:	add    BYTE PTR [eax],al
  40d173:	or     ch,BYTE PTR [eax]
  40d175:	mov    es,WORD PTR [eax]
  40d177:	add    BYTE PTR [edx],cl
  40d179:	adc    dl,BYTE PTR [eax]
  40d17b:	sbb    ebx,DWORD PTR [edi]
  40d17d:	or     eax,0x8328
  40d182:	or     al,BYTE PTR [edx]
  40d184:	adc    DWORD PTR [eax],edx
  40d186:	outs   dx,DWORD PTR ds:[esi]
  40d187:	pop    ebx
  40d188:	add    BYTE PTR [eax],al
  40d18a:	or     dl,BYTE PTR [edx]
  40d18c:	mov    eax,cr1
  40d18f:	add    al,0x0
  40d191:	add    BYTE PTR [eax],ah
  40d193:	inc    BYTE PTR [edx]
  40d195:	add    BYTE PTR [eax],al
  40d197:	sub    BYTE PTR [ebx+0x20a0000],al
  40d19d:	adc    DWORD PTR [edi],ecx
  40d19f:	sub    BYTE PTR [edx+0x0],bl
  40d1a2:	add    BYTE PTR [edx],cl
  40d1a4:	add    ch,BYTE PTR [eax]
  40d1a6:	jo     0x40d1a8
  40d1a8:	add    BYTE PTR [edx],cl
  40d1aa:	add    bh,BYTE PTR [ebx+0x26]
  40d1ad:	add    DWORD PTR [eax],eax
  40d1af:	add    al,0x6f
  40d1b1:	jno    0x40d1b3
  40d1b3:	add    BYTE PTR [edx],cl
  40d1b5:	add    ch,BYTE PTR [eax]
  40d1b7:	jo     0x40d1b9
  40d1b9:	add    BYTE PTR [edx],cl
  40d1bb:	add    bh,BYTE PTR [ebx+0x28]
  40d1be:	add    DWORD PTR [eax],eax
  40d1c0:	add    al,0x6f
  40d1c2:	jno    0x40d1c4
  40d1c4:	add    BYTE PTR [edx],cl
  40d1c6:	add    ch,BYTE PTR [eax]
  40d1c8:	jo     0x40d1ca
  40d1ca:	add    BYTE PTR [edx],cl
  40d1cc:	add    bh,BYTE PTR [ebx+0x29]
  40d1cf:	add    DWORD PTR [eax],eax
  40d1d1:	add    al,0x6f
  40d1d3:	jno    0x40d1d5
  40d1d5:	add    BYTE PTR [edx],cl
  40d1d7:	add    ch,BYTE PTR [eax]
  40d1d9:	jo     0x40d1db
  40d1db:	add    BYTE PTR [edx],cl
  40d1dd:	add    bh,BYTE PTR [ebx+0x25]
  40d1e0:	add    DWORD PTR [eax],eax
  40d1e2:	add    al,0x6f
  40d1e4:	jno    0x40d1e6
  40d1e6:	add    BYTE PTR [edx],cl
  40d1e8:	add    ch,BYTE PTR [eax]
  40d1ea:	jo     0x40d1ec
  40d1ec:	add    BYTE PTR [edx],cl
  40d1ee:	add    bh,BYTE PTR [ebx+0x24]
  40d1f1:	add    DWORD PTR [eax],eax
  40d1f3:	add    al,0x6f
  40d1f5:	jno    0x40d1f7
  40d1f7:	add    BYTE PTR [edx],cl
  40d1f9:	add    dh,BYTE PTR [edx-0x7f]
  40d1fc:	add    eax,0x86287000
  40d201:	add    BYTE PTR [eax],al
  40d203:	or     al,BYTE PTR [edx]
  40d205:	jb     0x40d19a
  40d207:	add    eax,0x596f7000
  40d20c:	add    BYTE PTR [eax],al
  40d20e:	or     al,BYTE PTR [edx]
  40d210:	sub    BYTE PTR [esi+0x0],dl
  40d213:	add    BYTE PTR [edx],cl
  40d215:	jb     0x40d1c8
  40d217:	add    eax,0x576f7000
  40d21c:	add    BYTE PTR [eax],al
  40d21e:	or     dh,BYTE PTR [ebx+0x55]
  40d221:	add    BYTE PTR [eax],al
  40d223:	or     ch,BYTE PTR [eax]
  40d225:	pop    eax
  40d226:	add    BYTE PTR [eax],al
  40d228:	or     al,BYTE PTR [edx]
  40d22a:	and    eax,0x1b006fe
  40d22f:	add    BYTE PTR [esi],al
  40d231:	jae    0x40d1c0
  40d233:	add    BYTE PTR [eax],al
  40d235:	or     ch,BYTE PTR [eax]
  40d237:	push   esp
  40d238:	add    BYTE PTR [eax],al
  40d23a:	or     al,BYTE PTR [edx]
  40d23c:	and    eax,0x1d106fe
  40d241:	add    BYTE PTR [esi],al
  40d243:	jae    0x40d1d2
  40d245:	add    BYTE PTR [eax],al
  40d247:	or     ch,BYTE PTR [eax]
  40d249:	jle    0x40d24b
  40d24b:	add    BYTE PTR [edx],cl
  40d24d:	add    bh,BYTE PTR [ebx+0x29]
  40d250:	add    DWORD PTR [eax],eax
  40d252:	add    al,0x16
  40d254:	sub    BYTE PTR [ebx+0x0],dl
  40d257:	add    BYTE PTR [edx],cl
  40d259:	add    bh,BYTE PTR [ebx+0x2a]
  40d25c:	add    DWORD PTR [eax],eax
  40d25e:	add    al,0x16
  40d260:	sub    BYTE PTR [ebx+0x0],dl
  40d263:	add    BYTE PTR [edx],cl
  40d265:	add    bh,BYTE PTR [ebx+0x48]
  40d268:	add    DWORD PTR [eax],eax
  40d26a:	add    al,0x6f
  40d26c:	push   edx
  40d26d:	add    BYTE PTR [eax],al
  40d26f:	or     al,BYTE PTR [edx]
  40d271:	jnp    0x40d2ba
  40d273:	add    DWORD PTR [eax],eax
  40d275:	add    al,0x6f
  40d277:	push   edx
  40d278:	add    BYTE PTR [eax],al
  40d27a:	or     al,BYTE PTR [edx]
  40d27c:	jnp    0x40d2b4
  40d27e:	add    DWORD PTR [eax],eax
  40d280:	add    al,0x6f
  40d282:	push   edx
  40d283:	add    BYTE PTR [eax],al
  40d285:	or     al,BYTE PTR [edx]
  40d287:	jnp    0x40d2c2
  40d289:	add    DWORD PTR [eax],eax
  40d28b:	add    al,0x6f
  40d28d:	push   edx
  40d28e:	add    BYTE PTR [eax],al
  40d290:	or     al,BYTE PTR [edx]
  40d292:	jnp    0x40d2cf
  40d294:	add    DWORD PTR [eax],eax
  40d296:	add    al,0x6f
  40d298:	push   edx
  40d299:	add    BYTE PTR [eax],al
  40d29b:	or     al,BYTE PTR [edx]
  40d29d:	jnp    0x40d2ca
  40d29f:	add    DWORD PTR [eax],eax
  40d2a1:	add    al,0x16
  40d2a3:	sub    BYTE PTR [ebx+0x0],dl
  40d2a6:	add    BYTE PTR [edx],cl
  40d2a8:	add    bh,BYTE PTR [ebx+0x4d]
  40d2ab:	add    DWORD PTR [eax],eax
  40d2ad:	add    al,0x16
  40d2af:	sub    BYTE PTR [ebx+0x0],dl
  40d2b2:	add    BYTE PTR [edx],cl
  40d2b4:	add    dl,BYTE PTR [esi]
  40d2b6:	sub    BYTE PTR [ebx+0x0],dl
  40d2b9:	add    BYTE PTR [edx],cl
  40d2bb:	sub    cl,BYTE PTR [ebx]
  40d2bd:	xor    BYTE PTR [edx],al
  40d2bf:	add    BYTE PTR [edi],dl
  40d2c1:	add    BYTE PTR [eax],al
  40d2c3:	add    BYTE PTR [eax],al
  40d2c5:	add    BYTE PTR [eax],al
  40d2c7:	add    BYTE PTR [edx],al
  40d2c9:	sub    BYTE PTR [ecx+0x20a0000],ah
  40d2cf:	sub    BYTE PTR [edi-0x21f9ffff],ch
  40d2d5:	or     BYTE PTR [edx],al
  40d2d7:	pop    ss
  40d2d8:	sub    BYTE PTR [eax-0x23f60000],ah
  40d2de:	sub    al,BYTE PTR [eax]
  40d2e0:	inc    ecx
  40d2e1:	sbb    al,0x0
  40d2e3:	add    BYTE PTR [eax+eax*1],al
  40d2e6:	add    BYTE PTR [eax],al
  40d2e8:	push   es
  40d2e9:	add    BYTE PTR [eax],al
  40d2eb:	add    BYTE PTR [eax],cl
  40d2ed:	add    BYTE PTR [eax],al
  40d2ef:	add    BYTE PTR [esi],cl
  40d2f1:	add    BYTE PTR [eax],al
  40d2f3:	add    BYTE PTR [eax],cl
  40d2f5:	add    BYTE PTR [eax],al
  40d2f7:	add    BYTE PTR [esi+0x0],ah
  40d2fa:	add    BYTE PTR [ecx],al
  40d2fc:	add    esi,DWORD PTR [eax]
  40d2fe:	add    al,BYTE PTR [eax]
  40d300:	pop    ss
  40d301:	add    BYTE PTR [eax],al
  40d303:	add    BYTE PTR [eax],al
  40d305:	add    BYTE PTR [eax],al
  40d307:	add    BYTE PTR [eax],ch
  40d309:	adc    eax,0x160a0000
  40d30e:	sub    BYTE PTR [esi],dl
  40d310:	add    BYTE PTR [eax],al
  40d312:	or     dh,BYTE PTR [ebx-0x52]
  40d315:	add    DWORD PTR [eax],eax
  40d317:	push   es
  40d318:	sub    BYTE PTR [eax+eax*1],dl
  40d31b:	add    BYTE PTR [edx],cl
  40d31d:	push   ss
  40d31e:	sub    bh,bh
  40d320:	and    eax,0x430094
  40d325:	int3   
  40d326:	int3   
  40d327:	int3   
  40d328:	int3   
  40d329:	int3   
  40d32a:	int3   
  40d32b:	int3   
  40d32c:	int3   
  40d32d:	int3   
  40d32e:	int3   
  40d32f:	int3   
  40d330:	push   ebx
  40d331:	mov    ebx,DWORD PTR [esp+0x8]
  40d335:	push   esi
  40d336:	mov    esi,ecx
  40d338:	test   bl,0x2
  40d33b:	je     0x40d37a
  40d33d:	push   edi
  40d33e:	push   0x40e368
  40d343:	push   DWORD PTR [esi-0x4]
  40d346:	lea    edi,[esi-0x4]
  40d349:	push   0x1c
  40d34b:	push   esi
  40d34c:	call   0x40e397
  40d351:	test   bl,0x1
  40d354:	je     0x40d372
  40d356:	mov    ecx,DWORD PTR [edi]
  40d358:	lea    edx,[ecx*8+0x0]
  40d35f:	sub    edx,ecx
  40d361:	lea    ecx,[edx*4+0x4]
  40d368:	push   ecx
  40d369:	push   edi
  40d36a:	call   0x40e47e
  40d36f:	add    esp,0x8
  40d372:	mov    eax,edi
  40d374:	pop    edi
  40d375:	pop    esi
  40d376:	pop    ebx
  40d377:	ret    0x4
  40d37a:	call   0x40e368
  40d37f:	test   bl,0x1
  40d382:	je     0x40d38f
  40d384:	push   0x1c
  40d386:	push   esi
  40d387:	call   0x40e48c
  40d38c:	add    esp,0x8
  40d38f:	mov    eax,esi
  40d391:	pop    esi
  40d392:	pop    ebx
  40d393:	ret    0x4
  40d396:	int3   
  40d397:	int3   
  40d398:	int3   
  40d399:	int3   
  40d39a:	int3   
  40d39b:	int3   
  40d39c:	int3   
  40d39d:	int3   
  40d39e:	int3   
  40d39f:	int3   
  40d3a0:	push   ebx
  40d3a1:	mov    ebx,DWORD PTR [esp+0x8]
  40d3a5:	push   esi
  40d3a6:	mov    esi,ecx
  40d3a8:	test   bl,0x2
  40d3ab:	je     0x40d3e4
  40d3ad:	push   edi
  40d3ae:	push   0x40e36e
  40d3b3:	push   DWORD PTR [esi-0x4]
  40d3b6:	lea    edi,[esi-0x4]
  40d3b9:	push   0x96c
  40d3be:	push   esi
  40d3bf:	call   0x40e397
  40d3c4:	test   bl,0x1
  40d3c7:	je     0x40d3dc
  40d3c9:	imul   ecx,DWORD PTR [edi],0x96c
  40d3cf:	add    ecx,0x4
  40d3d2:	push   ecx
  40d3d3:	push   edi
  40d3d4:	call   0x40e47e
  40d3d9:	add    esp,0x8
  40d3dc:	mov    eax,edi
  40d3de:	pop    edi
  40d3df:	pop    esi
  40d3e0:	pop    ebx
  40d3e1:	ret    0x4
  40d3e4:	call   0x40e36e
  40d3e9:	test   bl,0x1
  40d3ec:	je     0x40d3fc
  40d3ee:	push   0x96c
  40d3f3:	push   esi
  40d3f4:	call   0x40e48c
  40d3f9:	add    esp,0x8
  40d3fc:	mov    eax,esi
  40d3fe:	pop    esi
  40d3ff:	pop    ebx
  40d400:	ret    0x4
  40d403:	int3   
  40d404:	add    esi,DWORD PTR [eax]
  40d406:	add    al,0x0
  40d408:	sub    al,0x0
  40d40a:	add    BYTE PTR [eax],al
  40d40c:	add    BYTE PTR [eax],al
  40d40e:	add    BYTE PTR [eax],al
  40d410:	add    al,BYTE PTR [ebx]
  40d412:	dec    esi
  40d413:	ins    BYTE PTR es:[edi],dx
  40d414:	add    al,0x4e
  40d416:	ins    BYTE PTR es:[edi],dx
  40d417:	pop    ecx
  40d418:	imul   edx,DWORD PTR [esi+0x2],0x1a
  40d41c:	pop    eax
  40d41d:	add    ebx,DWORD PTR [edx]
  40d41f:	pop    eax
  40d420:	dec    esi
  40d421:	ins    BYTE PTR es:[edi],dx
  40d422:	add    al,0x1a
  40d424:	pop    eax
  40d425:	dec    esi
  40d426:	ins    BYTE PTR es:[edi],dx
  40d427:	pop    ecx
  40d428:	imul   edx,DWORD PTR [esi+0x2],0x1e
  40d42c:	pop    eax
  40d42d:	add    ebx,DWORD PTR [esi]
  40d42f:	pop    eax
  40d430:	dec    esi
  40d431:	ins    BYTE PTR es:[edi],dx
  40d432:	add    al,0x1e
  40d434:	pop    eax
  40d435:	dec    esi
  40d436:	ins    BYTE PTR es:[edi],dx
  40d437:	pop    ecx
  40d438:	imul   edx,DWORD PTR [esi+0x2],0x2a
  40d43c:	add    esi,DWORD PTR [eax]
  40d43e:	add    al,0x0
  40d440:	and    DWORD PTR [eax],eax
  40d442:	add    BYTE PTR [eax],al
  40d444:	add    BYTE PTR [eax],al
  40d446:	add    BYTE PTR [eax],al
  40d448:	add    bl,BYTE PTR [edx]
  40d44a:	pop    eax
  40d44b:	dec    esi
  40d44c:	ins    BYTE PTR es:[edi],dx
  40d44d:	add    ebx,DWORD PTR [edx]
  40d44f:	pop    eax
  40d450:	dec    esi
  40d451:	ins    BYTE PTR es:[edi],dx
  40d452:	pop    edx
  40d453:	add    cl,BYTE PTR [esi+0x6c]
  40d456:	add    ecx,DWORD PTR [esi+0x6c]
  40d459:	pop    edx
  40d45a:	pop    eax
  40d45b:	add    bl,BYTE PTR [esi]
  40d45d:	pop    eax
  40d45e:	dec    esi
  40d45f:	ins    BYTE PTR es:[edi],dx
  40d460:	add    ebx,DWORD PTR [esi]
  40d462:	pop    eax
  40d463:	dec    esi
  40d464:	ins    BYTE PTR es:[edi],dx
  40d465:	pop    edx
  40d466:	pop    eax
  40d467:	imul   ebp,DWORD PTR [edx],0xffffffcc
  40d46a:	int3   
  40d46b:	int3   
  40d46c:	add    esi,DWORD PTR [eax]
  40d46e:	add    al,BYTE PTR [eax]
  40d470:	pop    es
  40d471:	add    BYTE PTR [eax],al
  40d473:	add    BYTE PTR [eax],al
  40d475:	add    BYTE PTR [eax],al
  40d477:	add    BYTE PTR [edx],al
  40d479:	pop    ds
  40d47a:	adc    BYTE PTR [eax+0x3],bl
  40d47d:	push   edx
  40d47e:	sub    cl,ah
  40d480:	add    esi,DWORD PTR [eax]
  40d482:	add    eax,DWORD PTR [eax]
  40d484:	or     DWORD PTR [eax],eax
  40d486:	add    BYTE PTR [eax],al
  40d488:	add    BYTE PTR [eax],al
  40d48a:	add    BYTE PTR [eax],al
  40d48c:	add    bl,BYTE PTR [edx]
  40d48e:	pop    eax
  40d48f:	add    ebx,DWORD PTR [edi]
  40d491:	or     al,0xfe
  40d493:	pop    ss
  40d494:	sub    cl,ah
  40d496:	int3   
  40d497:	int3   
  40d498:	or     esi,DWORD PTR [eax]
  40d49a:	add    eax,DWORD PTR [eax]
  40d49c:	pop    ecx
  40d49d:	add    BYTE PTR [eax],al
  40d49f:	add    ch,dh
  40d4a1:	add    BYTE PTR [eax],al
  40d4a3:	adc    DWORD PTR [ebx],eax
  40d4a5:	or     eax,DWORD PTR [ebx]
  40d4a7:	sub    eax,0x351de02
  40d4ac:	add    al,0x20
  40d4ae:	xchg   esp,eax
  40d4af:	add    BYTE PTR [eax],al
  40d4b1:	add    dh,bh
  40d4b3:	pop    ss
  40d4b4:	add    esp,DWORD PTR [eax]
  40d4b6:	xchg   esp,eax
  40d4b7:	add    BYTE PTR [eax],al
  40d4b9:	add    BYTE PTR [eax+0xa],bl
  40d4bc:	push   es
  40d4bd:	add    al,0x20
  40d4bf:	xchg   esp,eax
  40d4c0:	add    BYTE PTR [eax],al
  40d4c2:	add    BYTE PTR [eax+0x4e],bl
  40d4c5:	push   esi
  40d4c6:	push   es
  40d4c7:	sbb    bl,BYTE PTR [eax+0x4]
  40d4ca:	and    BYTE PTR [eax+eax*1+0x1a580000],dl
  40d4d1:	pop    eax
  40d4d2:	dec    esi
  40d4d3:	push   esi
  40d4d4:	push   es
  40d4d5:	push   ds
  40d4d6:	pop    eax
  40d4d7:	add    al,0x20
  40d4d9:	xchg   esp,eax
  40d4da:	add    BYTE PTR [eax],al
  40d4dc:	add    BYTE PTR [eax+0x1e],bl
  40d4df:	pop    eax
  40d4e0:	dec    esi
  40d4e1:	push   esi
  40d4e2:	push   es
  40d4e3:	pop    ds
  40d4e4:	or     al,0x58
  40d4e6:	add    al,0x20
  40d4e8:	xchg   esp,eax
  40d4e9:	add    BYTE PTR [eax],al
  40d4eb:	add    BYTE PTR [eax+0x1f],bl
  40d4ee:	or     al,0x58
  40d4f0:	dec    esi
  40d4f1:	push   esi
  40d4f2:	fimul  WORD PTR [eax]
  40d4f4:	pop    es
  40d4f5:	add    ebp,DWORD PTR [eax]
  40d4f7:	add    eax,DWORD PTR [eax]
  40d4f9:	add    BYTE PTR [esi],al
  40d4fb:	fsubr  QWORD PTR [edx]
  40d4fd:	add    BYTE PTR [eax],al
  40d4ff:	add    BYTE PTR [ecx+0x1c],al
  40d502:	add    BYTE PTR [eax],al
  40d504:	add    al,0x0
  40d506:	add    BYTE PTR [eax],al
  40d508:	add    al,BYTE PTR [eax]
  40d50a:	add    BYTE PTR [eax],al
  40d50c:	dec    esi
  40d50d:	add    BYTE PTR [eax],al
  40d50f:	add    BYTE PTR [eax+0x0],dl
  40d512:	add    BYTE PTR [eax],al
  40d514:	or     BYTE PTR [eax],al
  40d516:	add    BYTE PTR [eax],al
  40d518:	sub    BYTE PTR [eax],al
  40d51a:	add    BYTE PTR [ecx],al
  40d51c:	add    esi,DWORD PTR [eax]
  40d51e:	add    eax,DWORD PTR [eax]
  40d520:	dec    edx
  40d521:	add    BYTE PTR [eax],al
  40d523:	add    al,bh
  40d525:	add    BYTE PTR [eax],al
  40d527:	adc    DWORD PTR [edx],eax
  40d529:	sbb    bl,BYTE PTR [eax+0x4a]
  40d52c:	or     al,0xf
  40d52e:	add    cl,BYTE PTR [edx+0xb]
  40d531:	lar    ecx,WORD PTR [edx+0x20]
  40d535:	movs   BYTE PTR es:[edi],BYTE PTR ds:[esi]
  40d536:	add    BYTE PTR [eax],al
  40d538:	add    BYTE PTR [eax+0xa],bl
  40d53b:	push   es
  40d53c:	or     BYTE PTR [esi],ch
  40d53e:	sbb    eax,0xa4200607
  40d543:	add    BYTE PTR [eax],al
  40d545:	add    dh,bh
  40d547:	pop    ss
  40d548:	pop    es
  40d549:	and    BYTE PTR [eax+eax*1+0xb580000],ah
  40d550:	push   es
  40d551:	and    BYTE PTR [eax+eax*1+0xa580000],ah
  40d558:	push   es
  40d559:	or     BYTE PTR [ebx],dh
  40d55b:	jecxz  0x40d55f
  40d55d:	sbb    bl,BYTE PTR [eax+0x2]
  40d560:	sbb    bl,BYTE PTR [eax+0x4a]
  40d563:	and    BYTE PTR [edi+edi*8-0x1],bl
  40d567:	call   FWORD PTR [eax+0x54]
  40d56a:	add    ecx,DWORD PTR [edi]
  40d56c:	add    bl,BYTE PTR [edx]
  40d56e:	(bad)  
  40d56f:	pop    ss
  40d570:	add    ebp,DWORD PTR [edx]
  40d572:	int3   
  40d573:	int3   
  40d574:	add    esi,DWORD PTR [eax]
  40d576:	add    eax,DWORD PTR [eax]
  40d578:	sub    eax,DWORD PTR [eax]
  40d57a:	add    BYTE PTR [eax],al
  40d57c:	add    BYTE PTR es:[eax],al
  40d57f:	adc    DWORD PTR [edx],eax
  40d581:	dec    edx
  40d582:	or     al,BYTE PTR [esi]
  40d584:	sub    al,0x24
  40d586:	push   es
  40d587:	add    bl,BYTE PTR [esi]
  40d589:	pop    eax
  40d58a:	dec    edx
  40d58b:	push   es
  40d58c:	pop    ecx
  40d58d:	and    BYTE PTR [eax+eax*1+0x205b0000],ah
  40d594:	movs   BYTE PTR es:[edi],BYTE PTR ds:[esi]
  40d595:	add    BYTE PTR [eax],al
  40d597:	add    BYTE PTR [eax],ch
  40d599:	add    eax,0x2060000
  40d59e:	push   ss
  40d59f:	push   esp
  40d5a0:	add    bl,BYTE PTR [edx]
  40d5a2:	pop    eax
  40d5a3:	push   ss
  40d5a4:	push   esp
  40d5a5:	add    bl,BYTE PTR [esi]
  40d5a7:	pop    eax
  40d5a8:	push   ss
  40d5a9:	push   esp
  40d5aa:	sub    cl,ah
  40d5ac:	or     esi,DWORD PTR [eax]
  40d5ae:	add    al,0x0
  40d5b0:	cdq    
  40d5b1:	add    BYTE PTR [eax],al
  40d5b3:	add    cl,bh
  40d5b5:	add    BYTE PTR [eax],al
  40d5b7:	adc    DWORD PTR [eax],ebp
  40d5b9:	push   0xfe060001
  40d5be:	(bad)  
  40d5c0:	push   ss
  40d5c1:	add    esi,DWORD PTR [eax+edi*1]
  40d5c4:	add    cl,BYTE PTR ds:0x2142c02
  40d5ca:	push   ss
  40d5cb:	and    BYTE PTR [eax+eax*1+0x18fe0000],ah
  40d5d2:	add    ch,BYTE PTR [eax]
  40d5d4:	xchg   esp,eax
  40d5d5:	add    DWORD PTR [eax],eax
  40d5d7:	push   es
  40d5d8:	add    cl,BYTE PTR es:[ebx]
  40d5db:	sub    eax,DWORD PTR [edx]
  40d5dd:	push   ss
  40d5de:	or     eax,DWORD PTR [edi]
  40d5e0:	adc    eax,DWORD PTR ds:0x20908de
  40d5e6:	sub    BYTE PTR [ebx],al
  40d5e8:	add    BYTE PTR [eax],al
  40d5ea:	push   es
  40d5eb:	fadd   QWORD PTR [ebx]
  40d5ed:	pop    ss
  40d5ee:	pop    ecx
  40d5ef:	adc    BYTE PTR [ecx],al
  40d5f1:	add    ah,BYTE PTR [eax]
  40d5f3:	movs   BYTE PTR es:[edi],BYTE PTR ds:[esi]
  40d5f4:	add    BYTE PTR [eax],al
  40d5f6:	add    BYTE PTR [eax+0x10],bl
  40d5f9:	add    BYTE PTR [ebx],ch
  40d5fb:	(bad)  
  40d5fc:	ficom  WORD PTR [edx+0x26]
  40d5ff:	sub    BYTE PTR [edx],dl
  40d601:	add    BYTE PTR [eax],al
  40d603:	or     dl,BYTE PTR [ebx]
  40d605:	add    al,0x28
  40d607:	adc    DWORD PTR [eax],eax
  40d609:	add    BYTE PTR [edx],cl
  40d60b:	push   ss
  40d60c:	push   ss
  40d60d:	push   ss
  40d60e:	sub    BYTE PTR [ebx+0x1],ch
  40d611:	add    BYTE PTR [esi],al
  40d613:	(bad)  
  40d614:	adc    DWORD PTR [esi],esp
  40d616:	push   ss
  40d617:	or     ch,BYTE PTR [eax]
  40d619:	adc    DWORD PTR [eax],eax
  40d61b:	add    BYTE PTR [edx],cl
  40d61d:	or     BYTE PTR [eax],ch
  40d61f:	push   0x1
  40d621:	add    BYTE PTR [esi],al
  40d623:	es push ss
  40d625:	push   ss
  40d626:	sub    BYTE PTR [ecx+eax*1+0x0],ch
  40d62a:	push   es
  40d62b:	ficom  WORD PTR [edx]
  40d62d:	sub    BYTE PTR es:[ecx],dl
  40d630:	add    BYTE PTR [eax],al
  40d632:	or     ch,BYTE PTR [eax]
  40d634:	imul   eax,DWORD PTR [ecx],0x60a0600
  40d63a:	(bad)  
  40d63b:	adc    DWORD PTR [esi],esp
  40d63d:	fiadd  WORD PTR [eax]
  40d63f:	push   es
  40d640:	sub    al,0x2
  40d642:	(bad)  
  40d643:	sbb    bl,dh
  40d645:	or     BYTE PTR [eax],cl
  40d647:	push   es
  40d648:	sub    BYTE PTR [edi+0x1],ah
  40d64b:	add    BYTE PTR [esi],al
  40d64d:	(bad)  
  40d64f:	add    BYTE PTR [edx],ch
  40d651:	add    BYTE PTR [eax],al
  40d653:	add    BYTE PTR [ecx+0x64],al
  40d656:	add    BYTE PTR [eax],al
  40d658:	add    al,0x0
  40d65a:	add    BYTE PTR [eax],al
  40d65c:	push   cs
  40d65d:	add    BYTE PTR [eax],al
  40d65f:	add    BYTE PTR [esi],bl
  40d661:	add    BYTE PTR [eax],al
  40d663:	add    BYTE PTR [eax+eax*1],ch
  40d666:	add    BYTE PTR [eax],al
  40d668:	or     BYTE PTR [eax],al
  40d66a:	add    BYTE PTR [eax],al
  40d66c:	sub    BYTE PTR [eax],al
  40d66e:	add    BYTE PTR [ecx],al
  40d670:	add    DWORD PTR [eax],eax
  40d672:	add    BYTE PTR [eax],al
  40d674:	ins    BYTE PTR es:[edi],dx
  40d675:	add    BYTE PTR [eax],al
  40d677:	add    BYTE PTR [ecx],cl
  40d679:	add    BYTE PTR [eax],al
  40d67b:	add    BYTE PTR [eax+eax*1+0x30000],al
  40d682:	add    BYTE PTR [eax],al
  40d684:	jne    0x40d686
  40d686:	add    BYTE PTR [eax],al
  40d688:	add    al,BYTE PTR [eax]
  40d68a:	add    BYTE PTR [eax],al
  40d68c:	ins    BYTE PTR es:[edi],dx
  40d68d:	add    BYTE PTR [eax],al
  40d68f:	add    BYTE PTR [edx],ah
  40d691:	add    BYTE PTR [eax],al
  40d693:	add    BYTE PTR [esi+0x8000000],cl
  40d699:	add    BYTE PTR [eax],al
  40d69b:	add    BYTE PTR [eax],ch
  40d69d:	add    BYTE PTR [eax],al
  40d69f:	add    DWORD PTR [ecx],eax
  40d6a1:	add    BYTE PTR [eax],al
  40d6a3:	add    BYTE PTR [eax],cl
  40d6a5:	add    BYTE PTR [eax],al
  40d6a7:	add    BYTE PTR [esi],bh
  40d6a9:	add    BYTE PTR [eax],al
  40d6ab:	add    BYTE PTR [ebp+0x0],bl
  40d6ae:	add    BYTE PTR [eax],al
  40d6b0:	cmp    eax,DWORD PTR [eax]
  40d6b2:	add    BYTE PTR [eax],al
  40d6b4:	inc    esi
  40d6b5:	add    BYTE PTR [eax],al
  40d6b7:	add    BYTE PTR [ebx],al
  40d6b9:	xor    BYTE PTR [ebx],al
  40d6bb:	add    BYTE PTR [ebx],ah
  40d6bd:	add    BYTE PTR [eax],al
  40d6bf:	add    BYTE PTR [edi],dl
  40d6c1:	add    BYTE PTR [eax],al
  40d6c3:	adc    DWORD PTR [edx],eax
  40d6c5:	pop    ds
  40d6c6:	adc    al,0x58
  40d6c8:	dec    edx
  40d6c9:	or     al,BYTE PTR [esi]
  40d6cb:	adc    eax,0x1f02182e
  40d6d0:	sbb    BYTE PTR [eax+0x4a],bl
  40d6d3:	push   es
  40d6d4:	and    BYTE PTR [eax+eax*1+0x585a0000],ah
  40d6db:	and    BYTE PTR [eax+eax*1+0x3580000],dl
  40d6e2:	pop    ds
  40d6e3:	adc    dh,bh
  40d6e5:	pop    ss
  40d6e6:	sub    cl,ah
  40d6e8:	add    esi,DWORD PTR [eax]
  40d6ea:	push   es
  40d6eb:	add    BYTE PTR [ecx+0x0],ch
  40d6ee:	add    BYTE PTR [eax],al
  40d6f0:	cld    
  40d6f1:	add    BYTE PTR [eax],al
  40d6f3:	adc    DWORD PTR [esi],edx
  40d6f5:	or     eax,DWORD PTR [edx]
  40d6f7:	pop    ds
  40d6f8:	sbb    BYTE PTR [eax+0xa],bl
  40d6fb:	push   ss
  40d6fc:	push   es
  40d6fd:	sbb    bl,BYTE PTR [eax+0x4a]
  40d700:	push   es
  40d701:	dec    edx
  40d702:	pop    ecx
  40d703:	and    BYTE PTR [eax+eax*1+0x345b0000],ah
  40d70a:	inc    esi
  40d70b:	push   ss
  40d70c:	or     al,0x8
  40d70e:	add    bl,BYTE PTR [edi]
  40d710:	sbb    BYTE PTR [eax+0x4a],bl
  40d713:	pop    eax
  40d714:	add    eax,DWORD PTR [eax*1+0x50e040e]
  40d71b:	sub    BYTE PTR [ebx+0x2c060001],ah
  40d721:	add    al,0xe
  40d723:	add    al,0x2d
  40d725:	and    eax,DWORD PTR [edi]
  40d727:	pop    ss
  40d728:	pop    eax
  40d729:	or     ecx,DWORD PTR [eax]
  40d72b:	and    BYTE PTR [eax+eax*1+0xc580000],ah
  40d732:	add    bl,BYTE PTR [edi]
  40d734:	sbb    BYTE PTR [eax+0xa],bl
  40d737:	pop    es
  40d738:	push   es
  40d739:	sbb    bl,BYTE PTR [eax+0x4a]
  40d73c:	push   es
  40d73d:	dec    edx
  40d73e:	pop    ecx
  40d73f:	and    BYTE PTR [eax+eax*1+0x375b0000],ah
  40d746:	(bad)  
  40d747:	sub    ecx,DWORD PTR [eax]
  40d749:	add    bl,BYTE PTR [edi]
  40d74b:	adc    al,0x58
  40d74d:	pop    es
  40d74e:	push   esp
  40d74f:	pop    ss
  40d750:	sub    cl,BYTE PTR [esi]
  40d752:	add    al,0x2c
  40d754:	push   es
  40d755:	add    bl,BYTE PTR [edi]
  40d757:	adc    al,0x58
  40d759:	adc    eax,0xcc2a1654
  40d75e:	int3   
  40d75f:	int3   
  40d760:	add    esi,DWORD PTR [eax]
  40d762:	add    al,0x0
  40d764:	pop    ebp
  40d765:	add    BYTE PTR [eax],al
  40d767:	add    ah,bh
  40d769:	add    BYTE PTR [eax],al
  40d76b:	adc    DWORD PTR [esi],edx
  40d76d:	or     eax,DWORD PTR [edx]
  40d76f:	pop    ds
  40d770:	sbb    BYTE PTR [eax+0xa],bl
  40d773:	push   ss
  40d774:	push   es
  40d775:	sbb    bl,BYTE PTR [eax+0x4a]
  40d778:	push   es
  40d779:	dec    edx
  40d77a:	pop    ecx
  40d77b:	and    BYTE PTR [eax+eax*1+0x345b0000],ah
  40d782:	ds push ss
  40d784:	or     al,0x8
  40d786:	add    bl,BYTE PTR [edi]
  40d788:	sbb    BYTE PTR [eax+0x4a],bl
  40d78b:	pop    eax
  40d78c:	add    eax,DWORD PTR [eax*1+0x1a228]
  40d793:	push   es
  40d794:	sub    eax,0x58170723
  40d799:	or     ecx,DWORD PTR [eax]
  40d79b:	and    BYTE PTR [eax+eax*1+0xc580000],ah
  40d7a2:	add    bl,BYTE PTR [edi]
  40d7a4:	sbb    BYTE PTR [eax+0xa],bl
  40d7a7:	pop    es
  40d7a8:	push   es
  40d7a9:	sbb    bl,BYTE PTR [eax+0x4a]
  40d7ac:	push   es
  40d7ad:	dec    edx
  40d7ae:	pop    ecx
  40d7af:	and    BYTE PTR [eax+eax*1+0x375b0000],ah
  40d7b6:	into   
  40d7b7:	sub    ecx,DWORD PTR [eax]
  40d7b9:	add    bl,BYTE PTR [edi]
  40d7bb:	adc    al,0x58
  40d7bd:	pop    es
  40d7be:	push   esp
  40d7bf:	pop    ss
  40d7c0:	sub    al,BYTE PTR [edx]
  40d7c2:	pop    ds
  40d7c3:	adc    al,0x58
  40d7c5:	adc    eax,0xcc2a1654
  40d7ca:	int3   
  40d7cb:	int3   
  40d7cc:	add    esi,DWORD PTR [eax]
  40d7ce:	add    al,0x0
  40d7d0:	out    0x0,eax
  40d7d2:	add    BYTE PTR [eax],al
  40d7d4:	inc    BYTE PTR [eax]
  40d7d6:	add    BYTE PTR [ecx],dl
  40d7d8:	push   ss
  40d7d9:	or     eax,0x58181f02
  40d7de:	or     edx,DWORD PTR [esi]
  40d7e0:	pop    es
  40d7e1:	sbb    bl,BYTE PTR [eax+0x4a]
  40d7e4:	pop    es
  40d7e5:	dec    edx
  40d7e6:	pop    ecx
  40d7e7:	and    BYTE PTR [eax+eax*1+0x415b0000],ah
  40d7ee:	int3   
  40d7ef:	add    BYTE PTR [eax],al
  40d7f1:	add    BYTE PTR [edx],dl
  40d7f3:	or     BYTE PTR [edx],ah
  40d7f5:	int    0xcc
  40d7f7:	int3   
  40d7f8:	cmp    eax,0x1a081256
  40d7fd:	pop    eax
  40d7fe:	and    cl,ch
  40d800:	int3   
  40d801:	int3   
  40d802:	cmp    eax,0x1e081256
  40d807:	pop    eax
  40d808:	and    cl,ch
  40d80a:	int3   
  40d80b:	int3   
  40d80c:	cmp    eax,0x181f0256
  40d811:	pop    eax
  40d812:	or     eax,DWORD PTR [edi]
  40d814:	sbb    bl,BYTE PTR [eax+0x13]
  40d817:	add    eax,0x2060a16
  40d81c:	pop    ds
  40d81d:	sbb    BYTE PTR [eax+0x4a],bl
  40d820:	pop    eax
  40d821:	add    eax,DWORD PTR [eax*1+0x1a128]
  40d828:	push   es
  40d829:	push   es
  40d82a:	add    bl,BYTE PTR [edi]
  40d82c:	sbb    BYTE PTR [eax+0x4a],bl
  40d82f:	pop    eax
  40d830:	sub    BYTE PTR [eax+0x26060001],ah
  40d836:	add    bl,BYTE PTR [edi]
  40d838:	sbb    BYTE PTR [eax+0x4a],bl
  40d83b:	push   es
  40d83c:	pop    eax
  40d83d:	or     al,0x12
  40d83f:	pop    es
  40d840:	or     BYTE PTR [eax],ah
  40d842:	xchg   esp,eax
  40d843:	add    BYTE PTR [eax],al
  40d845:	add    BYTE PTR [eax+0x4e],bl
  40d848:	push   esi
  40d849:	adc    al,BYTE PTR [edi]
  40d84b:	sbb    bl,BYTE PTR [eax+0x8]
  40d84e:	and    BYTE PTR [eax+eax*1+0x1a580000],dl
  40d855:	pop    eax
  40d856:	dec    esi
  40d857:	push   esi
  40d858:	adc    al,BYTE PTR [edi]
  40d85a:	push   ds
  40d85b:	pop    eax
  40d85c:	or     BYTE PTR [eax],ah
  40d85e:	xchg   esp,eax
  40d85f:	add    BYTE PTR [eax],al
  40d861:	add    BYTE PTR [eax+0x1e],bl
  40d864:	pop    eax
  40d865:	dec    esi
  40d866:	push   esi
  40d867:	adc    al,BYTE PTR [edi]
  40d869:	pop    ds
  40d86a:	or     al,0x58
  40d86c:	and    al,BYTE PTR [eax]
  40d86e:	add    BYTE PTR [eax+0x2808563f],al
  40d874:	mov    al,ds:0x1f060001
  40d879:	and    al,0x58
  40d87b:	adc    eax,DWORD PTR [edx+edx*1]
  40d87e:	push   es
  40d87f:	adc    DWORD PTR [edi+ebx*1],eax
  40d882:	or     al,0xfe
  40d884:	pop    ss
  40d885:	adc    al,BYTE PTR [esi]
  40d887:	pop    ds
  40d888:	or     al,0x58
  40d88a:	adc    cl,BYTE PTR [eax]
  40d88c:	pop    ds
  40d88d:	or     al,0xfe
  40d88f:	pop    ss
  40d890:	sub    BYTE PTR [ebx],dl
  40d892:	add    DWORD PTR [eax],eax
  40d894:	push   es
  40d895:	push   cs
  40d896:	add    al,0x12
  40d898:	push   es
  40d899:	adc    al,BYTE PTR [edi]
  40d89b:	sub    BYTE PTR [ecx+eax*1],dl
  40d89e:	add    BYTE PTR [esi],al
  40d8a0:	or     DWORD PTR [edi],edx
  40d8a2:	pop    eax
  40d8a3:	or     eax,0xa42006
  40d8a8:	add    BYTE PTR [eax],al
  40d8aa:	pop    eax
  40d8ab:	or     cl,BYTE PTR [ecx]
  40d8ad:	adc    DWORD PTR ds:0x594a074a,eax
  40d8b3:	and    BYTE PTR [eax+eax*1+0x445b0000],ah
  40d8ba:	pop    esp
  40d8bb:	(bad)  
  40d8bc:	(bad)  
  40d8bd:	jmp    FWORD PTR [edx]
  40d8bf:	int3   
  40d8c0:	or     esi,DWORD PTR [eax]
  40d8c2:	add    al,0x0
  40d8c4:	test   BYTE PTR [ecx],al
  40d8c6:	add    BYTE PTR [eax],al
  40d8c8:	add    al,BYTE PTR [ecx]
  40d8ca:	add    BYTE PTR [ecx],dl
  40d8cc:	push   ss
  40d8cd:	or     al,0x2
  40d8cf:	pop    ds
  40d8d0:	sbb    BYTE PTR [eax+0xa],bl
  40d8d3:	push   ss
  40d8d4:	push   es
  40d8d5:	sbb    bl,BYTE PTR [eax+0x4a]
  40d8d8:	push   es
  40d8d9:	dec    edx
  40d8da:	pop    ecx
  40d8db:	and    BYTE PTR [eax+eax*1+0x415b0000],ah
  40d8e2:	imul   eax,DWORD PTR [ecx],0x1a020000
  40d8e8:	pop    eax
  40d8e9:	adc    eax,DWORD PTR [edi]
  40d8eb:	push   ss
  40d8ec:	or     edx,DWORD PTR [edx]
  40d8ee:	adc    ch,BYTE PTR [eax]
  40d8f0:	lahf   
  40d8f1:	add    DWORD PTR [eax],eax
  40d8f3:	push   es
  40d8f4:	adc    dl,BYTE PTR es:[edx]
  40d8f7:	push   ss
  40d8f8:	sub    BYTE PTR [esi+0x12060001],bl
  40d8fe:	adc    al,BYTE PTR [edx]
  40d900:	pop    ds
  40d901:	sbb    BYTE PTR [eax+0x4a],bl
  40d904:	pop    es
  40d905:	pop    eax
  40d906:	and    BYTE PTR [eax+eax*1+0x28580000],dl
  40d90d:	popf   
  40d90e:	add    DWORD PTR [eax],eax
  40d910:	push   es
  40d911:	adc    dl,BYTE PTR [edx]
  40d913:	pop    ss
  40d914:	sub    BYTE PTR [ecx+eax*1+0x12120600],bl
  40d91b:	and    al,BYTE PTR [eax]
  40d91d:	add    al,cl
  40d91f:	inc    edx
  40d920:	sub    BYTE PTR [ebx+0x7060001],bl
  40d926:	add    bl,BYTE PTR [edi]
  40d928:	sbb    BYTE PTR [eax+0x4a],bl
  40d92b:	pop    eax
  40d92c:	sub    BYTE PTR [eax+0x13060001],ah
  40d932:	push   es
  40d933:	adc    dl,BYTE PTR [ecx]
  40d935:	adc    DWORD PTR [esi],eax
  40d937:	pop    ds
  40d938:	xor    dh,bh
  40d93a:	pop    ss
  40d93b:	adc    dl,BYTE PTR [eax]
  40d93d:	and    al,BYTE PTR [eax]
  40d93f:	add    BYTE PTR [eax],al
  40d941:	add    BYTE PTR [esi+0x12],dl
  40d944:	adc    BYTE PTR [edx],bl
  40d946:	pop    eax
  40d947:	and    al,BYTE PTR [eax]
  40d949:	add    BYTE PTR [eax],al
  40d94b:	add    BYTE PTR [esi+0x12],dl
  40d94e:	adc    BYTE PTR [esi],bl
  40d950:	pop    eax
  40d951:	and    al,BYTE PTR [eax]
  40d953:	add    BYTE PTR [eax],al
  40d955:	add    BYTE PTR [esi+0x12],dl
  40d958:	mov    cr0,eax
  40d95b:	add    BYTE PTR [eax],al
  40d95d:	add    BYTE PTR [esi+0x12],dl
  40d960:	bndldx bnd3,[eax+0x22]
  40d964:	add    BYTE PTR [eax],al
  40d966:	cmp    BYTE PTR [edi],0x56
  40d969:	adc    cl,BYTE PTR [edi]
  40d96b:	push   ds
  40d96c:	pop    eax
  40d96d:	and    al,BYTE PTR [eax]
  40d96f:	add    BYTE PTR [eax],al
  40d971:	add    BYTE PTR [esi+0x12],dl
  40d974:	push   cs
  40d975:	adc    dl,BYTE PTR [ecx]
  40d977:	pop    ds
  40d978:	and    al,0x58
  40d97a:	adc    DWORD PTR [edi],eax
  40d97c:	sub    BYTE PTR [edx+0x12060000],ah
  40d982:	or     eax,0x16128
  40d987:	push   es
  40d988:	adc    cl,BYTE PTR es:[eax+ebp*1]
  40d98c:	bound  eax,QWORD PTR [ecx]
  40d98e:	add    BYTE PTR [esi],al
  40d990:	adc    cl,BYTE PTR es:[edi]
  40d993:	adc    cl,BYTE PTR ds:0xa328
  40d999:	push   es
  40d99a:	ins    BYTE PTR es:[edi],dx
  40d99b:	adc    eax,DWORD PTR ds:0x230511
  40d9a1:	add    BYTE PTR [eax],al
  40d9a3:	add    BYTE PTR [eax],al
  40d9a5:	add    al,dh
  40d9a7:	aas    
  40d9a8:	jle    0x40d9b5
  40d9aa:	add    DWORD PTR [eax],eax
  40d9ac:	add    al,0x6c
  40d9ae:	pop    ecx
  40d9af:	xor    al,0x19
  40d9b1:	adc    cl,BYTE PTR [ebx]
  40d9b3:	adc    dl,BYTE PTR [eax]
  40d9b5:	adc    cl,BYTE PTR ds:0x9a280f12
  40d9bb:	add    DWORD PTR [eax],eax
  40d9bd:	push   es
  40d9be:	adc    eax,DWORD PTR [edx+edx*1]
  40d9c1:	or     al,0x11
  40d9c3:	add    al,0x1f
  40d9c5:	xor    dh,bh
  40d9c7:	pop    ss
  40d9c8:	sub    esi,DWORD PTR [ecx]
  40d9ca:	adc    cl,BYTE PTR [edx]
  40d9cc:	and    al,BYTE PTR [eax]
  40d9ce:	add    BYTE PTR [eax],al
  40d9d0:	add    BYTE PTR [esi+0x12],dl
  40d9d3:	or     bl,BYTE PTR [edx]
  40d9d5:	pop    eax
  40d9d6:	and    al,BYTE PTR [eax]
  40d9d8:	add    BYTE PTR [eax],al
  40d9da:	add    BYTE PTR [esi+0x12],dl
  40d9dd:	or     bl,BYTE PTR [esi]
  40d9df:	pop    eax
  40d9e0:	and    al,BYTE PTR [eax]
  40d9e2:	add    BYTE PTR [eax+0x91256bf],al
  40d9e8:	adc    dl,BYTE PTR [eax]
  40d9ea:	adc    cl,BYTE PTR ds:0x9a280a12
  40d9f0:	add    DWORD PTR [eax],eax
  40d9f2:	push   es
  40d9f3:	or     eax,0x1f090c12
  40d9f8:	xor    dh,bh
  40d9fa:	pop    ss
  40d9fb:	adc    dl,BYTE PTR [edx]
  40d9fd:	adc    cl,BYTE PTR [eax]
  40d9ff:	add    al,0x12
  40da01:	or     al,0x28
  40da03:	cwde   
  40da04:	add    DWORD PTR [eax],eax
  40da06:	push   es
  40da07:	sub    BYTE PTR [ecx+0x3060001],bl
  40da0d:	adc    dl,BYTE PTR [edx]
  40da0f:	sub    BYTE PTR [edi-0x21f9ffff],dl
  40da15:	push   cs
  40da16:	inc    BYTE PTR [esi]
  40da18:	push   es
  40da19:	add    DWORD PTR [eax],eax
  40da1b:	push   es
  40da1c:	adc    dl,BYTE PTR [edx]
  40da1e:	sub    dl,ch
  40da20:	add    BYTE PTR [eax],al
  40da22:	push   es
  40da23:	fcom   QWORD PTR [edx]
  40da25:	adc    ch,BYTE PTR [eax]
  40da27:	push   es
  40da28:	add    DWORD PTR [eax],eax
  40da2a:	push   es
  40da2b:	or     BYTE PTR [edi],dl
  40da2d:	pop    eax
  40da2e:	or     al,0x7
  40da30:	and    BYTE PTR [eax+eax*1+0xb580000],ah
  40da37:	add    bl,BYTE PTR [edi]
  40da39:	sbb    BYTE PTR [eax+0xa],bl
  40da3c:	or     BYTE PTR [esi],al
  40da3e:	sbb    bl,BYTE PTR [eax+0x4a]
  40da41:	push   es
  40da42:	dec    edx
  40da43:	pop    ecx
  40da44:	and    BYTE PTR [eax+eax*1+0x445b0000],ah
  40da4b:	sahf   
  40da4c:	(bad)  
  40da4d:	(bad)  
  40da4e:	jmp    FWORD PTR [edx]
  40da50:	inc    ecx
  40da51:	sbb    al,0x0
  40da53:	add    BYTE PTR [eax+eax*1],al
  40da56:	add    BYTE PTR [eax],al
  40da58:	sub    DWORD PTR [eax],eax
  40da5a:	add    BYTE PTR [eax],al
  40da5c:	and    DWORD PTR [ecx],eax
  40da5e:	add    BYTE PTR [eax],al
  40da60:	dec    edx
  40da61:	add    DWORD PTR [eax],eax
  40da63:	add    BYTE PTR [esi],cl
  40da65:	add    BYTE PTR [eax],al
  40da67:	add    BYTE PTR [eax],ch
  40da69:	add    BYTE PTR [eax],al
  40da6b:	add    DWORD PTR [ebx],eax
  40da6d:	xor    BYTE PTR [ebx],al
  40da6f:	add    BYTE PTR [ecx+0x0],al
  40da72:	add    BYTE PTR [eax],al
  40da74:	add    eax,DWORD PTR [ecx]
  40da76:	add    BYTE PTR [ecx],dl
  40da78:	add    bl,BYTE PTR [edi]
  40da7a:	adc    al,0x58
  40da7c:	dec    edx
  40da7d:	or     eax,DWORD PTR [edi]
  40da7f:	adc    eax,0x1307302e
  40da84:	add    al,0x2
  40da86:	pop    ds
  40da87:	sbb    BYTE PTR [eax+0xa],bl
  40da8a:	push   es
  40da8b:	adc    al,BYTE PTR [edi]
  40da8d:	sub    BYTE PTR [ebp+0xd060000],dh
  40da93:	adc    al,BYTE PTR [esi]
  40da95:	or     DWORD PTR [edx],ebx
  40da97:	(bad)  
  40da98:	pop    ss
  40da99:	adc    al,BYTE PTR [edx]
  40da9b:	adc    DWORD PTR [eax+eiz*1],eax
  40da9e:	movs   BYTE PTR es:[edi],BYTE PTR ds:[esi]
  40da9f:	add    BYTE PTR [eax],al
  40daa1:	add    BYTE PTR [edx+0x12],bl
  40daa4:	push   es
  40daa5:	dec    edx
  40daa6:	pop    eax
  40daa7:	push   esp
  40daa8:	push   es
  40daa9:	adc    al,BYTE PTR ds:0xb22808
  40daaf:	add    BYTE PTR [esi],al
  40dab1:	add    bl,BYTE PTR es:[edi]
  40dab4:	adc    al,0x58
  40dab6:	adc    eax,0xcccc2a54
  40dabb:	int3   
  40dabc:	add    esi,DWORD PTR [eax]
  40dabe:	add    eax,DWORD PTR [eax]
  40dac0:	out    0x0,eax
  40dac2:	add    BYTE PTR [eax],al
  40dac4:	add    eax,0x2110001
  40dac9:	pop    ds
  40daca:	sbb    BYTE PTR [eax+0xd],bl
  40dacd:	add    ecx,DWORD PTR [ecx]
  40dacf:	sbb    bl,BYTE PTR [eax+0x4a]
  40dad2:	or     DWORD PTR [edx+0x59],ecx
  40dad5:	and    BYTE PTR [eax+eax*1+0x285b0000],ah
  40dadc:	push   cs
  40dadd:	add    DWORD PTR [eax],eax
  40dadf:	push   es
  40dae0:	push   ss
  40dae1:	or     al,0x2
  40dae3:	pop    ds
  40dae4:	sbb    BYTE PTR [eax+0xb],bl
  40dae7:	push   ss
  40dae8:	pop    es
  40dae9:	sbb    bl,BYTE PTR [eax+0x4a]
  40daec:	pop    es
  40daed:	dec    edx
  40daee:	pop    ecx
  40daef:	and    BYTE PTR [eax+eax*1+0x415b0000],ah
  40daf6:	mov    ah,0x0
  40daf8:	add    BYTE PTR [eax],al
  40dafa:	add    bl,BYTE PTR [edi]
  40dafc:	sbb    BYTE PTR [eax+0xb],bl
  40daff:	pop    es
  40db00:	sbb    bl,BYTE PTR [eax+0x13]
  40db03:	pop    es
  40db04:	push   ss
  40db05:	or     al,BYTE PTR [esi]
  40db07:	add    bl,BYTE PTR [edi]
  40db09:	sbb    BYTE PTR [eax+0x4a],bl
  40db0c:	pop    eax
  40db0d:	adc    eax,DWORD PTR [esi]
  40db0f:	add    edx,DWORD PTR [ecx]
  40db11:	push   es
  40db12:	sub    BYTE PTR [eax+0x1f060001],ah
  40db18:	and    al,0x58
  40db1a:	dec    esi
  40db1b:	sub    BYTE PTR [edi],cl
  40db1d:	add    DWORD PTR [eax],eax
  40db1f:	push   es
  40db20:	push   es
  40db21:	add    bl,BYTE PTR [edi]
  40db23:	sbb    BYTE PTR [eax+0x4a],bl
  40db26:	pop    eax
  40db27:	adc    eax,DWORD PTR ds:0x28051103
  40db2d:	mov    al,ds:0x1f060001
  40db32:	sub    BYTE PTR [eax+0x4e],bl
  40db35:	sub    BYTE PTR [edi],cl
  40db37:	add    DWORD PTR [eax],eax
  40db39:	push   es
  40db3a:	push   es
  40db3b:	add    bl,BYTE PTR [edi]
  40db3d:	sbb    BYTE PTR [eax+0x4a],bl
  40db40:	pop    eax
  40db41:	adc    eax,DWORD PTR [ebx+eax*1]
  40db44:	adc    DWORD PTR [eax+ebp*1],eax
  40db47:	mov    al,ds:0x1f060001
  40db4c:	sub    al,0x58
  40db4e:	dec    esi
  40db4f:	sub    BYTE PTR [edi],cl
  40db51:	add    DWORD PTR [eax],eax
  40db53:	push   es
  40db54:	add    eax,DWORD PTR [edx]
  40db56:	pop    ds
  40db57:	sbb    BYTE PTR [eax+0x4a],bl
  40db5a:	push   es
  40db5b:	pop    eax
  40db5c:	and    BYTE PTR [eax+eax*1+0x4e580000],dl
  40db63:	sub    BYTE PTR [edi],cl
  40db65:	add    DWORD PTR [eax],eax
  40db67:	push   es
  40db68:	add    eax,DWORD PTR [edx]
  40db6a:	pop    ds
  40db6b:	sbb    BYTE PTR [eax+0x4a],bl
  40db6e:	push   es
  40db6f:	pop    eax
  40db70:	and    BYTE PTR [eax+0x58000000],bl
  40db76:	dec    esi
  40db77:	sub    BYTE PTR [edi],cl
  40db79:	add    DWORD PTR [eax],eax
  40db7b:	push   es
  40db7c:	add    eax,DWORD PTR [edx]
  40db7e:	pop    ds
  40db7f:	sbb    BYTE PTR [eax+0x4a],bl
  40db82:	push   es
  40db83:	pop    eax
  40db84:	and    BYTE PTR [eax+eax*1+0x4e580000],bl
  40db8b:	sub    BYTE PTR [edi],cl
  40db8d:	add    DWORD PTR [eax],eax
  40db8f:	push   es
  40db90:	or     BYTE PTR [edi],dl
  40db92:	pop    eax
  40db93:	or     al,0x6
  40db95:	and    BYTE PTR [eax+eax*1+0xa580000],ah
  40db9c:	or     BYTE PTR [ecx],dl
  40db9e:	pop    es
  40db9f:	dec    edx
  40dba0:	pop    es
  40dba1:	dec    edx
  40dba2:	pop    ecx
  40dba3:	and    BYTE PTR [eax+eax*1+0x445b0000],ah
  40dbaa:	pop    eax
  40dbab:	(bad)  
  40dbac:	(bad)  
  40dbad:	jmp    FWORD PTR [edx]
  40dbaf:	int3   
  40dbb0:	add    esi,DWORD PTR [eax]
  40dbb2:	add    DWORD PTR [eax],eax
  40dbb4:	pop    es
  40dbb5:	add    BYTE PTR [eax],al
  40dbb7:	add    BYTE PTR [eax],al
  40dbb9:	add    BYTE PTR [eax],al
  40dbbb:	add    BYTE PTR [edx],al
  40dbbd:	sub    BYTE PTR [edi+0x2a060000],dh
  40dbc3:	add    BYTE PTR [ebx],cl
  40dbc5:	xor    BYTE PTR [eax+eax*1],al
  40dbc8:	jge    0x40dbca
  40dbca:	add    BYTE PTR [eax],al
  40dbcc:	push   es
  40dbcd:	add    DWORD PTR [eax],eax
  40dbcf:	adc    DWORD PTR [eax],ebp
  40dbd1:	push   0xfe060001
  40dbd6:	ud2    
  40dbd8:	add    al,BYTE PTR [ebx]
  40dbda:	cs sbb al,0x5
  40dbdd:	add    al,0x2
  40dbdf:	sub    BYTE PTR [esi+0x4060000],bh
  40dbe5:	and    BYTE PTR [eax+eax*1+0x10580000],ah
  40dbec:	add    al,BYTE PTR [edx]
  40dbee:	and    BYTE PTR [eax+eax*1+0x10580000],ah
  40dbf5:	add    BYTE PTR [ebx],ch
  40dbf7:	loopne 0x40dbd7
  40dbf9:	push   ecx
  40dbfa:	sub    BYTE PTR es:[edx],dl
  40dbfd:	add    BYTE PTR [eax],al
  40dbff:	or     cl,BYTE PTR [eax+ebp*1]
  40dc02:	adc    DWORD PTR [eax],eax
  40dc04:	add    BYTE PTR [edx],cl
  40dc06:	push   ss
  40dc07:	push   ss
  40dc08:	push   ss
  40dc09:	sub    BYTE PTR [ebx+0x1],ch
  40dc0c:	add    BYTE PTR [esi],al
  40dc0e:	(bad)  
  40dc0f:	adc    DWORD PTR [esi],esp
  40dc11:	push   ss
  40dc12:	or     ch,BYTE PTR [eax]
  40dc14:	adc    DWORD PTR [eax],eax
  40dc16:	add    BYTE PTR [edx],cl
  40dc18:	pop    es
  40dc19:	sub    BYTE PTR [edx+0x1],ch
  40dc1c:	add    BYTE PTR [esi],al
  40dc1e:	es push ss
  40dc20:	push   ss
  40dc21:	sub    BYTE PTR [ecx+eax*1+0x0],ch
  40dc25:	push   es
  40dc26:	ficom  WORD PTR [edx]
  40dc28:	sub    BYTE PTR es:[ecx],dl
  40dc2b:	add    BYTE PTR [eax],al
  40dc2d:	or     ch,BYTE PTR [eax]
  40dc2f:	imul   eax,DWORD PTR [ecx],0x60a0600
  40dc35:	(bad)  
  40dc36:	adc    DWORD PTR [esi],esp
  40dc38:	fiadd  WORD PTR [eax]
  40dc3a:	push   es
  40dc3b:	sub    al,0x2
  40dc3d:	(bad)  
  40dc3e:	sbb    bl,dh
  40dc40:	or     BYTE PTR [edi],al
  40dc42:	push   es
  40dc43:	sub    BYTE PTR [edi+0x1],ah
  40dc46:	add    BYTE PTR [esi],al
  40dc48:	(bad)  
  40dc4a:	add    BYTE PTR [edx+ebp*1],al
  40dc4d:	add    BYTE PTR [eax],al
  40dc4f:	add    BYTE PTR [ecx+0x4c],al
  40dc52:	add    BYTE PTR [eax],al
  40dc54:	add    DWORD PTR [eax],eax
  40dc56:	add    BYTE PTR [eax],al
  40dc58:	dec    edi
  40dc59:	add    BYTE PTR [eax],al
  40dc5b:	add    BYTE PTR [ecx],cl
  40dc5d:	add    BYTE PTR [eax],al
  40dc5f:	add    BYTE PTR [edi+0x0],ah
  40dc62:	add    BYTE PTR [eax],al
  40dc64:	add    eax,DWORD PTR [eax]
  40dc66:	add    BYTE PTR [eax],al
  40dc68:	pop    eax
  40dc69:	add    BYTE PTR [eax],al
  40dc6b:	add    BYTE PTR [edx],al
  40dc6d:	add    BYTE PTR [eax],al
  40dc6f:	add    BYTE PTR [edi+0x0],cl
  40dc72:	add    BYTE PTR [eax],al
  40dc74:	and    al,BYTE PTR [eax]
  40dc76:	add    BYTE PTR [eax],al
  40dc78:	jno    0x40dc7a
  40dc7a:	add    BYTE PTR [eax],al
  40dc7c:	or     BYTE PTR [eax],al
  40dc7e:	add    BYTE PTR [eax],al
  40dc80:	sub    BYTE PTR [eax],al
  40dc82:	add    BYTE PTR [ecx],al
  40dc84:	add    DWORD PTR [eax],eax
  40dc86:	add    BYTE PTR [eax],al
  40dc88:	or     BYTE PTR [eax],al
  40dc8a:	add    BYTE PTR [eax],al
  40dc8c:	and    al,BYTE PTR [eax]
  40dc8e:	add    BYTE PTR [eax],al
  40dc90:	inc    eax
  40dc91:	add    BYTE PTR [eax],al
  40dc93:	add    BYTE PTR [ebx],bh
  40dc95:	add    BYTE PTR [eax],al
  40dc97:	add    BYTE PTR [edx],ch
  40dc99:	add    BYTE PTR [eax],al
  40dc9b:	add    BYTE PTR [ebx],cl
  40dc9d:	xor    BYTE PTR [ebx],al
  40dc9f:	add    BYTE PTR [esi+0x0],bl
  40dca2:	add    BYTE PTR [eax],al
  40dca4:	pop    es
  40dca5:	add    DWORD PTR [eax],eax
  40dca7:	adc    DWORD PTR [edx],eax
  40dca9:	jg     0x40dc72
  40dcab:	add    BYTE PTR [eax],al
  40dcad:	add    al,0x54
  40dcaf:	add    bl,BYTE PTR [edi]
  40dcb1:	sbb    BYTE PTR [eax+0xa],bl
  40dcb4:	push   es
  40dcb5:	push   ss
  40dcb6:	push   esp
  40dcb7:	push   es
  40dcb8:	sbb    bl,BYTE PTR [eax+0x16]
  40dcbb:	push   esp
  40dcbc:	push   es
  40dcbd:	push   ds
  40dcbe:	pop    eax
  40dcbf:	push   ss
  40dcc0:	push   esp
  40dcc1:	adc    al,BYTE PTR [ecx]
  40dcc3:	and    al,BYTE PTR [eax]
  40dcc5:	add    BYTE PTR [eax],al
  40dcc7:	add    BYTE PTR [esi+0x12],dl
  40dcca:	add    DWORD PTR [edx],ebx
  40dccc:	pop    eax
  40dccd:	and    al,BYTE PTR [eax]
  40dccf:	add    BYTE PTR [eax],al
  40dcd1:	add    BYTE PTR [esi+0x12],dl
  40dcd4:	add    DWORD PTR [esi],ebx
  40dcd6:	pop    eax
  40dcd7:	and    al,BYTE PTR [eax]
  40dcd9:	add    BYTE PTR [eax],al
  40dcdb:	add    BYTE PTR [esi+0x2],dl
  40dcde:	sbb    bl,BYTE PTR [eax+0x12]
  40dce1:	add    DWORD PTR [edi],ebx
  40dce3:	or     al,0xfe
  40dce5:	pop    ss
  40dce6:	add    bl,BYTE PTR [edi]
  40dce8:	adc    al,0x58
  40dcea:	adc    eax,0x101f0254
  40dcef:	pop    eax
  40dcf0:	pop    ss
  40dcf1:	push   edx
  40dcf2:	ficom  WORD PTR [eax]
  40dcf4:	inc    BYTE PTR [esi]
  40dcf6:	mov    dh,0x0
  40dcf8:	add    BYTE PTR [esi],al
  40dcfa:	add    bl,BYTE PTR [edi]
  40dcfc:	sbb    BYTE PTR [eax+0x28],bl
  40dcff:	jmp    0x2a02:0xdc060000
  40dd06:	add    BYTE PTR [eax],al
  40dd08:	inc    ecx
  40dd09:	sbb    al,0x0
  40dd0b:	add    BYTE PTR [eax+eax*1],al
  40dd0e:	add    BYTE PTR [eax],al
  40dd10:	sbb    DWORD PTR [eax],eax
  40dd12:	add    BYTE PTR [eax],al
  40dd14:	xor    eax,DWORD PTR [eax]
  40dd16:	add    BYTE PTR [eax],al
  40dd18:	dec    esp
  40dd19:	add    BYTE PTR [eax],al
  40dd1b:	add    BYTE PTR [eax],dl
  40dd1d:	add    BYTE PTR [eax],al
  40dd1f:	add    BYTE PTR [eax],ch
  40dd21:	add    BYTE PTR [eax],al
  40dd23:	add    DWORD PTR [ebx],eax
  40dd25:	xor    BYTE PTR [edx],al
  40dd27:	add    BYTE PTR [ecx],dl
  40dd29:	add    BYTE PTR [eax],al
  40dd2b:	add    BYTE PTR [eax],al
  40dd2d:	add    BYTE PTR [eax],al
  40dd2f:	add    BYTE PTR [edx],al
  40dd31:	jg     0x40dcfa
  40dd33:	add    BYTE PTR [eax],al
  40dd35:	add    al,0x54
  40dd37:	add    bl,BYTE PTR [edi]
  40dd39:	sbb    BYTE PTR [eax+0x28],bl
  40dd3c:	mov    bh,0x0
  40dd3e:	add    BYTE PTR [esi],al
  40dd40:	sub    al,BYTE PTR [eax]
  40dd42:	add    BYTE PTR [eax],al
  40dd44:	add    esi,DWORD PTR [eax]
  40dd46:	push   es
  40dd47:	add    BYTE PTR [eax+eax*1],bl
  40dd4a:	add    BYTE PTR [eax],al
  40dd4c:	add    DWORD PTR [eax],0x2121100
  40dd52:	push   ss
  40dd53:	pop    ss
  40dd54:	(bad)  
  40dd55:	sbb    BYTE PTR [edx],dl
  40dd57:	add    BYTE PTR [edx],dl
  40dd59:	add    dl,BYTE PTR [edi]
  40dd5b:	(bad)  
  40dd5c:	adc    al,BYTE PTR [ecx]
  40dd5e:	(bad)  
  40dd5f:	pop    ss
  40dd60:	add    al,BYTE PTR [ebx]
  40dd62:	add    al,0x5
  40dd64:	push   es
  40dd65:	pop    es
  40dd66:	sub    BYTE PTR [ebp+0x2a060000],bh
  40dd6c:	or     esi,DWORD PTR [eax]
  40dd6e:	add    al,0x0
  40dd70:	fadd   DWORD PTR [eax]
  40dd72:	add    BYTE PTR [eax],al
  40dd74:	or     BYTE PTR [ecx],al
  40dd76:	add    BYTE PTR [ecx],dl
  40dd78:	sub    BYTE PTR [eax+0x1],ch
  40dd7b:	add    BYTE PTR [esi],al
  40dd7d:	dec    BYTE PTR [edi]
  40dd7f:	or     eax,0xa42003
  40dd84:	add    BYTE PTR [eax],al
  40dd86:	pop    ss
  40dd87:	sub    BYTE PTR [eax+eax*1],al
  40dd8a:	add    BYTE PTR [esi],al
  40dd8c:	or     al,BYTE PTR [edx]
  40dd8e:	sbb    bl,BYTE PTR [eax+0x4a]
  40dd91:	adc    eax,DWORD PTR [esi]
  40dd93:	add    cl,BYTE PTR [edx+0x6]
  40dd96:	adc    eax,DWORD PTR ds:0x11081306
  40dd9c:	push   es
  40dd9d:	push   es
  40dd9e:	add    ch,BYTE PTR [eax]
  40dda0:	mov    esp,0x13060000
  40dda5:	add    eax,0x28265ede
  40ddaa:	adc    al,BYTE PTR [eax]
  40ddac:	add    BYTE PTR [edx],cl
  40ddae:	adc    eax,DWORD PTR [edi]
  40ddb0:	sub    BYTE PTR [ecx],dl
  40ddb2:	add    BYTE PTR [eax],al
  40ddb4:	or     dl,BYTE PTR [esi]
  40ddb6:	push   ss
  40ddb7:	push   ss
  40ddb8:	sub    BYTE PTR [ebx+0x1],ch
  40ddbb:	add    BYTE PTR [esi],al
  40ddbd:	(bad)  
  40ddbe:	adc    DWORD PTR [esi],esp
  40ddc0:	push   ss
  40ddc1:	or     al,0x28
  40ddc3:	adc    DWORD PTR [eax],eax
  40ddc5:	add    BYTE PTR [edx],cl
  40ddc7:	or     DWORD PTR [eax],ebp
  40ddc9:	push   0x1
  40ddcb:	add    BYTE PTR [esi],al
  40ddcd:	es push es
  40ddcf:	add    esp,DWORD PTR [eax]
  40ddd1:	movs   BYTE PTR es:[edi],BYTE PTR ds:[esi]
  40ddd2:	add    BYTE PTR [eax],al
  40ddd4:	add    BYTE PTR [eax],ch
  40ddd6:	add    eax,0x16060000
  40dddb:	push   ss
  40dddc:	sub    BYTE PTR [ecx+eax*1+0x0],ch
  40dde0:	push   es
  40dde1:	ficom  WORD PTR [edx]
  40dde3:	sub    BYTE PTR es:[ecx],dl
  40dde6:	add    BYTE PTR [eax],al
  40dde8:	or     ch,BYTE PTR [eax]
  40ddea:	imul   eax,DWORD PTR [ecx],0x80c0600
  40ddf0:	(bad)  
  40ddf1:	adc    DWORD PTR [esi],esp
  40ddf3:	fiadd  WORD PTR [eax]
  40ddf5:	or     BYTE PTR [edx+eax*1],ch
  40ddf8:	(bad)  
  40ddf9:	sbb    bl,dh
  40ddfb:	or     BYTE PTR [ecx],cl
  40ddfd:	or     BYTE PTR [eax],ch
  40ddff:	add    DWORD PTR [bx+si],eax
  40de02:	push   es
  40de03:	(bad)  
  40de05:	add    BYTE PTR [edx],al
  40de07:	dec    edx
  40de08:	or     eax,DWORD PTR [edx]
  40de0a:	sbb    bl,BYTE PTR [eax+0x4a]
  40de0d:	pop    es
  40de0e:	pop    ecx
  40de0f:	and    BYTE PTR [eax+eax*1+0x135b0000],ah
  40de16:	add    al,0x7
  40de18:	sub    al,0x17
  40de1a:	pop    es
  40de1b:	add    bl,BYTE PTR [esi]
  40de1d:	pop    eax
  40de1e:	dec    edx
  40de1f:	pop    es
  40de20:	pop    ecx
  40de21:	and    BYTE PTR [eax+eax*1+0x205b0000],ah
  40de28:	movs   BYTE PTR es:[edi],BYTE PTR ds:[esi]
  40de29:	add    BYTE PTR [eax],al
  40de2b:	add    BYTE PTR [eax],ch
  40de2d:	add    eax,0x2060000
  40de32:	push   ds
  40de33:	pop    eax
  40de34:	add    esp,DWORD PTR [eax]
  40de36:	movs   BYTE PTR es:[edi],BYTE PTR ds:[esi]
  40de37:	add    BYTE PTR [eax],al
  40de39:	add    BYTE PTR [edx+0x6],bl
  40de3c:	pop    eax
  40de3d:	push   esp
  40de3e:	add    bl,BYTE PTR [edx]
  40de40:	pop    eax
  40de41:	adc    DWORD PTR [eax+eiz*1],eax
  40de44:	movs   BYTE PTR es:[edi],BYTE PTR ds:[esi]
  40de45:	add    BYTE PTR [eax],al
  40de47:	add    BYTE PTR [edx+0x6],bl
  40de4a:	pop    eax
  40de4b:	push   esp
  40de4c:	add    al,BYTE PTR [esi]
  40de4e:	push   esp
  40de4f:	sub    al,BYTE PTR [ecx+0x4c]
  40de52:	add    BYTE PTR [eax],al
  40de54:	add    DWORD PTR [eax],eax
  40de56:	add    BYTE PTR [eax],al
  40de58:	push   esi
  40de59:	add    BYTE PTR [eax],al
  40de5b:	add    BYTE PTR ds:0x7a000000,dl
  40de61:	add    BYTE PTR [eax],al
  40de63:	add    BYTE PTR [ebx],al
  40de65:	add    BYTE PTR [eax],al
  40de67:	add    BYTE PTR [ebx+0x0],ch
  40de6a:	add    BYTE PTR [eax],al
  40de6c:	add    al,BYTE PTR [eax]
  40de6e:	add    BYTE PTR [eax],al
  40de70:	push   esi
  40de71:	add    BYTE PTR [eax],al
  40de73:	add    BYTE PTR [esi],ch
  40de75:	add    BYTE PTR [eax],al
  40de77:	add    BYTE PTR [eax+eax*1+0x80000],al
  40de7e:	add    BYTE PTR [eax],al
  40de80:	sub    BYTE PTR [eax],al
  40de82:	add    BYTE PTR [ecx],al
  40de84:	add    DWORD PTR [eax],eax
  40de86:	add    BYTE PTR [eax],al
  40de88:	adc    eax,0x1b000000
  40de8d:	add    BYTE PTR [eax],al
  40de8f:	add    BYTE PTR [edi+0x0],al
  40de92:	add    BYTE PTR [eax],al
  40de94:	inc    edi
  40de95:	add    BYTE PTR [eax],al
  40de97:	add    BYTE PTR [eax],dh
  40de99:	add    BYTE PTR [eax],al
  40de9b:	add    BYTE PTR [ebx],al
  40de9d:	xor    BYTE PTR [edx],al
  40de9f:	add    BYTE PTR [ebp+0x0],bh
  40dea2:	add    BYTE PTR [eax],al
  40dea4:	xchg   ebx,eax
  40dea5:	add    BYTE PTR [eax],al
  40dea7:	adc    DWORD PTR [edx],eax
  40dea9:	push   ds
  40deaa:	pop    eax
  40deab:	dec    edx
  40deac:	adc    ecx,DWORD PTR [eax]
  40deae:	add    bl,BYTE PTR [edx]
  40deb0:	pop    eax
  40deb1:	dec    edx
  40deb2:	adc    eax,DWORD PTR [edi]
  40deb4:	adc    DWORD PTR [eax],ecx
  40deb6:	adc    DWORD PTR [edi],eax
  40deb8:	pop    ecx
  40deb9:	and    BYTE PTR [eax+eax*1+0x35b0000],ah
  40dec0:	xor    al,0x62
  40dec2:	add    cl,BYTE PTR [edx+0x13]
  40dec5:	push   es
  40dec6:	adc    DWORD PTR [edi],eax
  40dec8:	adc    DWORD PTR [esi],eax
  40deca:	pop    ecx
  40decb:	and    BYTE PTR [eax+eax*1+0x135b0000],ah
  40ded2:	add    eax,0x8f9c1820
  40ded7:	add    DWORD PTR [ecx],edx
  40ded9:	add    eax,0xa340359
  40dede:	jg     0x40df0c
  40dee0:	add    BYTE PTR [eax],al
  40dee2:	add    al,0x28
  40dee4:	pop    es
  40dee5:	add    DWORD PTR [eax],eax
  40dee7:	push   es
  40dee8:	adc    DWORD PTR ds:0x4135803,eax
  40deee:	adc    DWORD PTR [eax],ecx
  40def0:	adc    DWORD PTR [esi],eax
  40def2:	pop    ecx
  40def3:	and    BYTE PTR [eax+eax*1+0xc5b0000],ah
  40defa:	or     BYTE PTR [edi],dl
  40defc:	fs or  eax,0x8f9c1820
  40df02:	add    DWORD PTR [ecx],ecx
  40df04:	pop    ecx
  40df05:	or     BYTE PTR [esp+eax*1],dh
  40df08:	push   ss
  40df09:	or     ebp,DWORD PTR [ebx]
  40df0b:	add    al,0x9
  40df0d:	or     BYTE PTR [eax+0xb],bl
  40df10:	pop    es
  40df11:	or     al,BYTE PTR [edi]
  40df13:	adc    DWORD PTR [edi+esi*1],eax
  40df16:	add    eax,DWORD PTR [esi]
  40df18:	sub    eax,DWORD PTR [edx]
  40df1a:	adc    DWORD PTR [edx+ecx*1],eax
  40df1d:	add    al,BYTE PTR [esi]
  40df1f:	sub    BYTE PTR [ecx+0x2a060000],bh
  40df25:	int3   
  40df26:	int3   
  40df27:	int3   
  40df28:	or     esi,DWORD PTR [eax]
  40df2a:	add    al,0x0
  40df2c:	scas   eax,DWORD PTR es:[edi]
  40df2d:	add    BYTE PTR [eax],al
  40df2f:	add    BYTE PTR [ecx],cl
  40df31:	add    DWORD PTR [eax],eax
  40df33:	adc    DWORD PTR [edx],eax
  40df35:	sbb    bl,BYTE PTR [eax+0x4a]
  40df38:	or     eax,DWORD PTR [edi]
  40df3a:	adc    eax,DWORD PTR [esi]
  40df3c:	add    edx,DWORD PTR [ecx]
  40df3e:	push   es
  40df3f:	xor    al,0x9
  40df41:	add    cl,BYTE PTR [edx+0x3]
  40df44:	xor    eax,0x2b0d1704
  40df49:	add    dl,BYTE PTR [esi]
  40df4b:	or     eax,0x6b2cd209
  40df50:	add    cl,BYTE PTR [edx+0x13]
  40df53:	add    eax,0x59051103
  40df58:	and    BYTE PTR [eax+eax*1+0x75b0000],ah
  40df5f:	add    bl,BYTE PTR [esi]
  40df61:	pop    eax
  40df62:	dec    edx
  40df63:	xor    eax,DWORD PTR [edi]
  40df65:	add    dl,BYTE PTR [edi]
  40df67:	sub    BYTE PTR [eax+0x2060000],bh
  40df6d:	sbb    bl,BYTE PTR [eax+0x4a]
  40df70:	or     ah,BYTE PTR [eax]
  40df72:	movs   BYTE PTR es:[edi],BYTE PTR ds:[esi]
  40df73:	add    BYTE PTR [eax],al
  40df75:	add    BYTE PTR [edx+0x2],bl
  40df78:	dec    edx
  40df79:	pop    eax
  40df7a:	or     al,0x6
  40df7c:	adc    eax,DWORD PTR [esi+eax*1]
  40df7f:	sub    eax,0x628de02
  40df84:	or     BYTE PTR [eax],ah
  40df86:	xchg   esp,eax
  40df87:	add    BYTE PTR [eax],al
  40df89:	add    dh,bh
  40df8b:	pop    ss
  40df8c:	push   es
  40df8d:	and    BYTE PTR [eax+eax*1+0x8580000],dl
  40df94:	and    BYTE PTR [eax+eax*1+0x28580000],dl
  40df9b:	or     BYTE PTR [eax],al
  40df9d:	add    BYTE PTR [esi],al
  40df9f:	fimul  WORD PTR es:[ecx]
  40dfa2:	adc    DWORD PTR [esi+eax*1],eax
  40dfa5:	sub    BYTE PTR [ebx],al
  40dfa7:	add    BYTE PTR [eax],al
  40dfa9:	push   es
  40dfaa:	fadd   QWORD PTR [edx]
  40dfac:	sbb    bl,BYTE PTR [eax+0x2]
  40dfaf:	sbb    bl,BYTE PTR [eax+0x4a]
  40dfb2:	and    BYTE PTR [eax+eax*1+0x54580000],ah
  40dfb9:	sub    esp,DWORD PTR [edi]
  40dfbb:	pop    es
  40dfbc:	add    bl,BYTE PTR [esi]
  40dfbe:	pop    eax
  40dfbf:	dec    edx
  40dfc0:	xor    eax,DWORD PTR [edi]
  40dfc2:	add    dl,BYTE PTR [edi]
  40dfc4:	sub    BYTE PTR [eax+0x2060000],bh
  40dfca:	and    eax,0x34a581a
  40dfcf:	sub    BYTE PTR [ebx+0x2060000],bh
  40dfd5:	sbb    bl,BYTE PTR [eax+0x2]
  40dfd8:	sbb    bl,BYTE PTR [eax+0x4a]
  40dfdb:	and    BYTE PTR [eax+eax*1+0x54580000],ah
  40dfe2:	sub    al,BYTE PTR [eax]
  40dfe4:	inc    ecx
  40dfe5:	sbb    al,0x0
  40dfe7:	add    BYTE PTR [eax+eax*1],al
  40dfea:	add    BYTE PTR [eax],al
  40dfec:	dec    edx
  40dfed:	add    BYTE PTR [eax],al
  40dfef:	add    BYTE PTR [eax+eax*1],ah
  40dff2:	add    BYTE PTR [eax],al
  40dff4:	outs   dx,BYTE PTR ds:[esi]
  40dff5:	add    BYTE PTR [eax],al
  40dff7:	add    BYTE PTR [ecx],cl
  40dff9:	add    BYTE PTR [eax],al
  40dffb:	add    BYTE PTR [eax],ch
  40dffd:	add    BYTE PTR [eax],al
  40dfff:	add    DWORD PTR [ebx],ecx
  40e001:	xor    BYTE PTR ds:0xd700,al
  40e007:	add    BYTE PTR [edx],cl
  40e009:	add    DWORD PTR [eax],eax
  40e00b:	adc    DWORD PTR [eax],ebp
  40e00d:	push   0xfe060001
  40e012:	prefetch BYTE PTR [edx]
  40e015:	sbb    bl,BYTE PTR [eax+0x4a]
  40e018:	or     al,BYTE PTR [esi]
  40e01a:	add    cl,BYTE PTR [edx+0x59]
  40e01d:	and    BYTE PTR [eax+eax*1+0xc5b0000],ah
  40e024:	add    ecx,DWORD PTR [eax]
  40e026:	xor    al,0x14
  40e028:	add    bl,BYTE PTR [edx]
  40e02a:	pop    eax
  40e02b:	add    ecx,DWORD PTR [eax]
  40e02d:	pop    ecx
  40e02e:	and    BYTE PTR [eax+eax*1+0x65a0000],ah
  40e035:	pop    eax
  40e036:	push   esp
  40e037:	cmp    BYTE PTR [esi+0x8000000],ah
  40e03d:	add    eax,DWORD PTR [ecx-0x61]
  40e040:	add    BYTE PTR [eax],al
  40e042:	add    BYTE PTR [edx],al
  40e044:	add    ecx,DWORD PTR [eax]
  40e046:	pop    ecx
  40e047:	sub    BYTE PTR [eax+0x2060000],bh
  40e04d:	sbb    bl,BYTE PTR [eax+0x4a]
  40e050:	or     al,BYTE PTR [esi]
  40e052:	add    cl,BYTE PTR [edx+0x59]
  40e055:	and    BYTE PTR [eax+eax*1+0x135b0000],ah
  40e05c:	add    al,0x6
  40e05e:	add    edx,DWORD PTR [ecx]
  40e060:	add    al,0x59
  40e062:	add    dl,BYTE PTR [ecx]
  40e064:	push   es
  40e065:	sub    BYTE PTR [edx-0x21fa0000],bh
  40e06b:	pop    eax
  40e06c:	sub    BYTE PTR es:[edx],dl
  40e06f:	add    BYTE PTR [eax],al
  40e071:	or     dl,BYTE PTR [ebx]
  40e073:	add    eax,0x1128
  40e078:	or     dl,BYTE PTR [esi]
  40e07a:	push   ss
  40e07b:	push   ss
  40e07c:	sub    BYTE PTR [ebx+0x1],ch
  40e07f:	add    BYTE PTR [esi],al
  40e081:	(bad)  
  40e082:	adc    DWORD PTR [esi],esp
  40e084:	push   ss
  40e085:	or     ebp,DWORD PTR [eax]
  40e087:	adc    DWORD PTR [eax],eax
  40e089:	add    BYTE PTR [edx],cl
  40e08b:	or     DWORD PTR [eax],ebp
  40e08d:	push   0x1
  40e08f:	add    BYTE PTR [esi],al
  40e091:	add    ch,BYTE PTR es:[eax]
  40e094:	mov    bh,0x0
  40e096:	add    BYTE PTR [esi],al
  40e098:	push   ss
  40e099:	push   ss
  40e09a:	sub    BYTE PTR [ecx+eax*1+0x0],ch
  40e09e:	push   es
  40e09f:	ficom  WORD PTR [edx]
  40e0a1:	sub    BYTE PTR es:[ecx],dl
  40e0a4:	add    BYTE PTR [eax],al
  40e0a6:	or     ch,BYTE PTR [eax]
  40e0a8:	imul   eax,DWORD PTR [ecx],0x70b0600
  40e0ae:	(bad)  
  40e0af:	adc    DWORD PTR [esi],esp
  40e0b1:	fiadd  WORD PTR [eax]
  40e0b3:	pop    es
  40e0b4:	sub    al,0x2
  40e0b6:	(bad)  
  40e0b7:	sbb    bl,dh
  40e0b9:	or     BYTE PTR [ecx],cl
  40e0bb:	pop    es
  40e0bc:	sub    BYTE PTR [edi+0x1],ah
  40e0bf:	add    BYTE PTR [esi],al
  40e0c1:	(bad)  
  40e0c3:	add    BYTE PTR [edx],al
  40e0c5:	sbb    bl,BYTE PTR [eax+0x2]
  40e0c8:	sbb    bl,BYTE PTR [eax+0x4a]
  40e0cb:	add    eax,DWORD PTR [edx]
  40e0cd:	sbb    bl,BYTE PTR [eax+0x4a]
  40e0d0:	add    cl,BYTE PTR [edx+0x59]
  40e0d3:	and    BYTE PTR [eax+eax*1+0x595b0000],ah
  40e0da:	and    BYTE PTR [eax+eax*1+0x585a0000],ah
  40e0e1:	push   esp
  40e0e2:	sub    al,BYTE PTR [eax]
  40e0e4:	inc    ecx
  40e0e5:	dec    esp
  40e0e6:	add    BYTE PTR [eax],al
  40e0e8:	add    DWORD PTR [eax],eax
  40e0ea:	add    BYTE PTR [eax],al
  40e0ec:	xchg   BYTE PTR [eax],al
  40e0ee:	add    BYTE PTR [eax],al
  40e0f0:	sldt   WORD PTR [eax]
  40e0f3:	add    BYTE PTR [eax+eax*1+0x30000],ah
  40e0fa:	add    BYTE PTR [eax],al
  40e0fc:	xchg   ebp,eax
  40e0fd:	add    BYTE PTR [eax],al
  40e0ff:	add    BYTE PTR [edx],al
  40e101:	add    BYTE PTR [eax],al
  40e103:	add    BYTE PTR [esi+0x28000000],al
  40e109:	add    BYTE PTR [eax],al
  40e10b:	add    BYTE PTR [esi+0x8000000],ch
  40e111:	add    BYTE PTR [eax],al
  40e113:	add    BYTE PTR [eax],ch
  40e115:	add    BYTE PTR [eax],al
  40e117:	add    DWORD PTR [ecx],eax
  40e119:	add    BYTE PTR [eax],al
  40e11b:	add    BYTE PTR [eax+0x0],al
  40e11e:	add    BYTE PTR [eax],al
  40e120:	and    BYTE PTR [eax],al
  40e122:	add    BYTE PTR [eax],al
  40e124:	ja     0x40e126
  40e126:	add    BYTE PTR [eax],al
  40e128:	inc    ecx
  40e129:	add    BYTE PTR [eax],al
  40e12b:	add    BYTE PTR [eax+0x0],ah
  40e12e:	add    BYTE PTR [eax],al
  40e130:	add    esi,DWORD PTR [eax]
  40e132:	add    eax,DWORD PTR [eax]
  40e134:	xchg   BYTE PTR [eax],al
  40e136:	add    BYTE PTR [eax],al
  40e138:	or     al,0x1
  40e13a:	add    BYTE PTR [ecx],dl
  40e13c:	adc    al,BYTE PTR [eax+ebp*1]
  40e13f:	xchg   esp,eax
  40e140:	add    DWORD PTR [eax],eax
  40e142:	push   es
  40e143:	sub    BYTE PTR es:[esi+0xa060001],dl
  40e14a:	adc    al,BYTE PTR [ebx]
  40e14c:	push   es
  40e14d:	pop    ds
  40e14e:	xor    dh,bh
  40e150:	pop    ss
  40e151:	adc    al,BYTE PTR [edx]
  40e153:	and    al,BYTE PTR [eax]
  40e155:	add    BYTE PTR [eax],al
  40e157:	add    BYTE PTR [esi+0x12],dl
  40e15a:	add    bl,BYTE PTR [edx]
  40e15c:	pop    eax
  40e15d:	and    al,BYTE PTR [eax]
  40e15f:	add    BYTE PTR [eax],al
  40e161:	inc    eax
  40e162:	push   esi
  40e163:	adc    al,BYTE PTR [edx]
  40e165:	push   ds
  40e166:	pop    eax
  40e167:	and    al,BYTE PTR [eax]
  40e169:	add    BYTE PTR [eax],al
  40e16b:	add    BYTE PTR [esi+0x12],dl
  40e16e:	add    ebx,DWORD PTR [edi]
  40e170:	and    al,0x58
  40e172:	adc    al,BYTE PTR [edx]
  40e174:	pop    ds
  40e175:	or     al,0xfe
  40e177:	pop    ss
  40e178:	adc    al,BYTE PTR [edx+edx*1]
  40e17b:	add    ebp,DWORD PTR [eax]
  40e17d:	xchg   ebp,eax
  40e17e:	add    DWORD PTR [eax],eax
  40e180:	push   es
  40e181:	adc    al,BYTE PTR [ecx]
  40e183:	and    al,BYTE PTR [eax]
  40e185:	add    BYTE PTR [eax+0x112563f],al
  40e18b:	sbb    bl,BYTE PTR [eax+0x22]
  40e18e:	add    BYTE PTR [eax],al
  40e190:	cmp    BYTE PTR [edi],0x56
  40e193:	adc    al,BYTE PTR [ecx]
  40e195:	push   ds
  40e196:	pop    eax
  40e197:	and    al,BYTE PTR [eax]
  40e199:	add    BYTE PTR [eax+0x112563f],al
  40e19f:	pop    ds
  40e1a0:	or     al,0x58
  40e1a2:	and    al,BYTE PTR [eax]
  40e1a4:	add    BYTE PTR [eax+0x412563f],al
  40e1aa:	and    BYTE PTR [eax+eax*1+0x12580000],dl
  40e1b1:	add    DWORD PTR [edi],ebx
  40e1b3:	adc    dh,bh
  40e1b5:	pop    ss
  40e1b6:	add    bl,BYTE PTR [edi]
  40e1b8:	sbb    BYTE PTR [eax+0x12],bl
  40e1bb:	add    al,0x28
  40e1bd:	mov    bl,0x0
  40e1bf:	add    BYTE PTR [esi],al
  40e1c1:	sub    cl,ah
  40e1c3:	int3   
  40e1c4:	add    esi,DWORD PTR [eax]
  40e1c6:	add    eax,DWORD PTR [eax]
  40e1c8:	loopne 0x40e1ca
  40e1ca:	add    BYTE PTR [eax],al
  40e1cc:	push   cs
  40e1cd:	add    DWORD PTR [eax],eax
  40e1cf:	adc    DWORD PTR [ebx],eax
  40e1d1:	sbb    bl,BYTE PTR [eax+0x4a]
  40e1d4:	or     al,BYTE PTR [esi]
  40e1d6:	dec    edx
  40e1d7:	adc    eax,DWORD PTR [ebx+eax*1]
  40e1da:	sbb    bl,BYTE PTR [eax+0x6]
  40e1dd:	sbb    bl,BYTE PTR [eax+0x54]
  40e1e0:	add    bl,BYTE PTR [edi]
  40e1e2:	sbb    BYTE PTR [eax+0xd],bl
  40e1e5:	or     DWORD PTR [ecx],edx
  40e1e7:	add    al,0x28
  40e1e9:	mov    ah,0x0
  40e1eb:	add    BYTE PTR [esi],al
  40e1ed:	push   ss
  40e1ee:	adc    DWORD PTR [esp+edi*1],eax
  40e1f1:	mov    edx,0x16000000
  40e1f6:	or     edx,DWORD PTR [ecx]
  40e1f8:	add    al,0xc
  40e1fa:	add    ebx,DWORD PTR [edx]
  40e1fc:	pop    eax
  40e1fd:	dec    edx
  40e1fe:	or     al,BYTE PTR [esi]
  40e200:	dec    esi
  40e201:	adc    edx,DWORD PTR [eax]
  40e203:	push   es
  40e204:	sbb    bl,BYTE PTR [eax+0x13]
  40e207:	or     DWORD PTR [edx],edx
  40e209:	adc    edx,DWORD PTR [ecx]
  40e20b:	adc    BYTE PTR [esi+0x11],dl
  40e20e:	or     DWORD PTR [esi+0x13],ecx
  40e211:	movups XMMWORD PTR [ecx],xmm1
  40e214:	sbb    bl,BYTE PTR [eax+0x13]
  40e217:	or     BYTE PTR [edx],dl
  40e219:	adc    ebx,DWORD PTR [edx]
  40e21b:	pop    eax
  40e21c:	adc    DWORD PTR [edi],ecx
  40e21e:	push   esi
  40e21f:	adc    DWORD PTR [eax],ecx
  40e221:	dec    esi
  40e222:	adc    ecx,DWORD PTR [esi]
  40e224:	adc    DWORD PTR [eax],ecx
  40e226:	sbb    bl,BYTE PTR [eax+0x13]
  40e229:	pop    es
  40e22a:	adc    dl,BYTE PTR [ebx]
  40e22c:	push   ds
  40e22d:	pop    eax
  40e22e:	adc    DWORD PTR [esi],ecx
  40e230:	push   esi
  40e231:	adc    DWORD PTR [edi],eax
  40e233:	dec    esi
  40e234:	adc    ecx,DWORD PTR ds:0x581a0711
  40e23a:	adc    eax,DWORD PTR [esi]
  40e23c:	adc    dl,BYTE PTR [edx]
  40e23e:	adc    DWORD PTR ds:0x4e061156,ecx
  40e244:	adc    ecx,DWORD PTR [ecx+edx*1]
  40e247:	push   es
  40e248:	sbb    bl,BYTE PTR [eax+0x13]
  40e24b:	add    eax,0x581a1212
  40e250:	adc    DWORD PTR [esi+edx*2],ecx
  40e253:	adc    DWORD PTR ds:0x30b134e,eax
  40e259:	sbb    bl,BYTE PTR [eax+0x11]
  40e25c:	add    eax,0x1254581a
  40e261:	adc    bl,BYTE PTR [esi]
  40e263:	pop    eax
  40e264:	adc    DWORD PTR [ebx],ecx
  40e266:	push   esi
  40e267:	pop    es
  40e268:	or     DWORD PTR [edx+0x58],ecx
  40e26b:	and    BYTE PTR [eax+eax*1+0x12580000],dl
  40e272:	adc    bl,BYTE PTR [edi]
  40e274:	adc    dh,bh
  40e276:	pop    ss
  40e277:	sub    BYTE PTR [esi+0x13060001],dl
  40e27d:	or     dl,BYTE PTR [edx]
  40e27f:	adc    DWORD PTR [ecx],edx
  40e281:	or     bl,BYTE PTR [edi]
  40e283:	xor    dh,bh
  40e285:	pop    ss
  40e286:	adc    dl,BYTE PTR [ecx]
  40e288:	pop    ds
  40e289:	and    al,0x58
  40e28b:	adc    dl,BYTE PTR [ebx]
  40e28d:	pop    ds
  40e28e:	or     al,0xfe
  40e290:	pop    ss
  40e291:	or     DWORD PTR [edx+0x7],ecx
  40e294:	pop    eax
  40e295:	adc    dl,BYTE PTR [ecx]
  40e297:	sub    BYTE PTR [ebp+0x7060001],dl
  40e29d:	and    BYTE PTR [eax+eax*1+0xb580000],ah
  40e2a4:	or     BYTE PTR [edi],dl
  40e2a6:	pop    ecx
  40e2a7:	or     al,0x8
  40e2a9:	push   ss
  40e2aa:	inc    edx
  40e2ab:	dec    ebx
  40e2ac:	(bad)  
  40e2ad:	(bad)  
  40e2ae:	jmp    FWORD PTR [edx]
  40e2b0:	add    esi,DWORD PTR [eax]
  40e2b2:	add    al,0x0
  40e2b4:	dec    esp
  40e2b5:	add    BYTE PTR [eax],al
  40e2b7:	add    BYTE PTR [edi],cl
  40e2b9:	add    DWORD PTR [eax],eax
  40e2bb:	adc    DWORD PTR [ebx],eax
  40e2bd:	sbb    BYTE PTR [edi+0x2c],bl
  40e2c0:	sub    BYTE PTR [edx],al
  40e2c2:	sbb    bl,BYTE PTR [ecx+0xa]
  40e2c5:	add    bl,BYTE PTR [edi]
  40e2c7:	and    al,0x6
  40e2c9:	dec    edx
  40e2ca:	inc    BYTE PTR [esi]
  40e2cc:	cmps   BYTE PTR ds:[esi],BYTE PTR es:[edi]
  40e2cd:	add    BYTE PTR [eax],al
  40e2cf:	push   es
  40e2d0:	sub    bl,ch
  40e2d2:	add    BYTE PTR [eax],al
  40e2d4:	push   es
  40e2d5:	add    edx,DWORD PTR [edi]
  40e2d7:	pop    edi
  40e2d8:	sub    al,0xd
  40e2da:	push   es
  40e2db:	and    eax,0x5a241f4a
  40e2e0:	sbb    bl,BYTE PTR [eax+0x28]
  40e2e3:	jb     0x40e2e6
  40e2e5:	add    BYTE PTR [esi],al
  40e2e7:	push   es
  40e2e8:	sub    al,BYTE PTR [edx]
  40e2ea:	jg     0x40e2b3
  40e2ec:	add    BYTE PTR [eax],al
  40e2ee:	add    al,0x54
  40e2f0:	add    bl,BYTE PTR [edi]
  40e2f2:	sbb    BYTE PTR [eax+0x28],bl
  40e2f5:	mov    bh,0x0
  40e2f7:	add    BYTE PTR [esi],al
  40e2f9:	add    edx,DWORD PTR [edi]
  40e2fb:	pop    edi
  40e2fc:	sub    al,0x8
  40e2fe:	add    bl,BYTE PTR [edi]
  40e300:	and    al,0x28
  40e302:	ins    DWORD PTR es:[edi],dx
  40e303:	add    DWORD PTR [eax],eax
  40e305:	push   es
  40e306:	add    ch,BYTE PTR [edx]
  40e308:	jmp    DWORD PTR ds:0x4300a0
  40e30e:	jmp    DWORD PTR ds:0x411008
  40e314:	jmp    DWORD PTR ds:0x41100c
  40e31a:	jmp    DWORD PTR ds:0x411010
  40e320:	jmp    DWORD PTR ds:0x411014
  40e326:	jmp    DWORD PTR ds:0x411018
  40e32c:	jmp    DWORD PTR ds:0x41101c
  40e332:	jmp    DWORD PTR ds:0x411020
  40e338:	jmp    DWORD PTR ds:0x411024
  40e33e:	jmp    DWORD PTR ds:0x411028
  40e344:	jmp    DWORD PTR ds:0x41102c
  40e34a:	jmp    DWORD PTR ds:0x411030
  40e350:	jmp    DWORD PTR ds:0x411034
  40e356:	jmp    DWORD PTR ds:0x411038
  40e35c:	jmp    DWORD PTR ds:0x41103c
  40e362:	jmp    DWORD PTR ds:0x411040
  40e368:	jmp    DWORD PTR ds:0x411044
  40e36e:	jmp    DWORD PTR ds:0x411048
  40e374:	push   ebp
  40e375:	mov    ebp,esp
  40e377:	test   BYTE PTR [ebp+0x8],0x1
  40e37b:	push   esi
  40e37c:	mov    esi,ecx
  40e37e:	mov    DWORD PTR [esi],0x4119fc
  40e384:	je     0x40e390
  40e386:	push   0xc
  40e388:	push   esi
  40e389:	call   0x40e48c
  40e38e:	pop    ecx
  40e38f:	pop    ecx
  40e390:	mov    eax,esi
  40e392:	pop    esi
  40e393:	pop    ebp
  40e394:	ret    0x4
  40e397:	push   0xc
  40e399:	push   0x42ce18
  40e39e:	call   0x40e710
  40e3a3:	mov    BYTE PTR [ebp-0x19],0x0
  40e3a7:	mov    ebx,DWORD PTR [ebp+0xc]
  40e3aa:	mov    eax,ebx
  40e3ac:	mov    edi,DWORD PTR [ebp+0x10]
  40e3af:	imul   eax,edi
  40e3b2:	mov    esi,DWORD PTR [ebp+0x8]
  40e3b5:	add    esi,eax
  40e3b7:	mov    DWORD PTR [ebp+0x8],esi
  40e3ba:	and    DWORD PTR [ebp-0x4],0x0
  40e3be:	mov    eax,edi
  40e3c0:	dec    edi
  40e3c1:	mov    DWORD PTR [ebp+0x10],edi
  40e3c4:	test   eax,eax
  40e3c6:	je     0x40e3dc
  40e3c8:	sub    esi,ebx
  40e3ca:	mov    DWORD PTR [ebp+0x8],esi
  40e3cd:	mov    ecx,DWORD PTR [ebp+0x14]
  40e3d0:	call   0x40e702
  40e3d5:	mov    ecx,esi
  40e3d7:	call   DWORD PTR [ebp+0x14]
  40e3da:	jmp    0x40e3be
  40e3dc:	mov    al,0x1
  40e3de:	mov    BYTE PTR [ebp-0x19],al
  40e3e1:	mov    DWORD PTR [ebp-0x4],0xfffffffe
  40e3e8:	call   0x40e401
  40e3ed:	call   0x40e756
  40e3f2:	ret    0x10
  40e3f5:	mov    edi,DWORD PTR [ebp+0x10]
  40e3f8:	mov    ebx,DWORD PTR [ebp+0xc]
  40e3fb:	mov    esi,DWORD PTR [ebp+0x8]
  40e3fe:	mov    al,BYTE PTR [ebp-0x19]
  40e401:	test   al,al
  40e403:	jne    0x40e410
  40e405:	push   DWORD PTR [ebp+0x14]
  40e408:	push   edi
  40e409:	push   ebx
  40e40a:	push   esi
  40e40b:	call   0x40e411
  40e410:	ret    
  40e411:	push   0x18
  40e413:	push   0x42ce38
  40e418:	call   0x40e710
  40e41d:	xor    esi,esi
  40e41f:	mov    DWORD PTR [ebp-0x4],esi
  40e422:	mov    edi,DWORD PTR [ebp+0x8]
  40e425:	mov    DWORD PTR [ebp-0x1c],esi
  40e428:	cmp    esi,DWORD PTR [ebp+0x10]
  40e42b:	je     0x40e46f
  40e42d:	sub    edi,DWORD PTR [ebp+0xc]
  40e430:	mov    DWORD PTR [ebp+0x8],edi
  40e433:	mov    ecx,DWORD PTR [ebp+0x14]
  40e436:	call   0x40e702
  40e43b:	mov    ecx,edi
  40e43d:	call   DWORD PTR [ebp+0x14]
  40e440:	inc    esi
  40e441:	jmp    0x40e425
  40e443:	mov    eax,DWORD PTR [ebp-0x14]
  40e446:	mov    DWORD PTR [ebp-0x20],eax
  40e449:	mov    eax,DWORD PTR [ebp-0x20]
  40e44c:	mov    eax,DWORD PTR [eax]
  40e44e:	mov    DWORD PTR [ebp-0x24],eax
  40e451:	mov    eax,DWORD PTR [ebp-0x24]
  40e454:	cmp    DWORD PTR [eax],0xe06d7363
  40e45a:	je     0x40e467
  40e45c:	mov    DWORD PTR [ebp-0x28],0x0
  40e463:	mov    eax,DWORD PTR [ebp-0x28]
  40e466:	ret    
  40e467:	call   0x41038a
  40e46c:	mov    esp,DWORD PTR [ebp-0x18]
  40e46f:	mov    DWORD PTR [ebp-0x4],0xfffffffe
  40e476:	call   0x40e756
  40e47b:	ret    0x10
  40e47e:	push   ebp
  40e47f:	mov    ebp,esp
  40e481:	push   DWORD PTR [ebp+0x8]
  40e484:	call   0x40e78e
  40e489:	pop    ecx
  40e48a:	pop    ebp
  40e48b:	ret    
  40e48c:	push   ebp
  40e48d:	mov    ebp,esp
  40e48f:	push   DWORD PTR [ebp+0x8]
  40e492:	call   0x40e6ca
  40e497:	pop    ecx
  40e498:	pop    ebp
  40e499:	ret    
  40e49a:	push   esi
  40e49b:	push   0x2
  40e49d:	call   0x410396
  40e4a2:	call   0x40ea9b
  40e4a7:	push   eax
  40e4a8:	call   0x4103cc
  40e4ad:	call   0x4103f0
  40e4b2:	mov    esi,eax
  40e4b4:	call   0x40ec51
  40e4b9:	push   0x1
  40e4bb:	mov    DWORD PTR [esi],eax
  40e4bd:	call   0x40e845
  40e4c2:	add    esp,0xc
  40e4c5:	pop    esi
  40e4c6:	test   al,al
  40e4c8:	je     0x40e536
  40e4ca:	fnclex 
  40e4cc:	call   0x40ece5
  40e4d1:	push   0x40ed10
  40e4d6:	call   0x40e9e6
  40e4db:	call   0x40ea97
  40e4e0:	push   eax
  40e4e1:	call   0x4103a2
  40e4e6:	pop    ecx
  40e4e7:	pop    ecx
  40e4e8:	test   eax,eax
  40e4ea:	jne    0x40e536
  40e4ec:	call   0x40eaa1
  40e4f1:	call   0x40eaeb
  40e4f6:	test   eax,eax
  40e4f8:	je     0x40e505
  40e4fa:	push   0x40ec51
  40e4ff:	call   0x41039c
  40e504:	pop    ecx
  40e505:	call   0x402670
  40e50a:	call   0x402670
  40e50f:	call   0x40eaad
  40e514:	call   0x40ec51
  40e519:	push   eax
  40e51a:	call   0x4103e4
  40e51f:	pop    ecx
  40e520:	call   0x410426
  40e525:	test   al,al
  40e527:	je     0x40e52e
  40e529:	call   0x4103a8
  40e52e:	call   0x40ec51
  40e533:	xor    eax,eax
  40e535:	ret    
  40e536:	push   0x7
  40e538:	call   0x40eb03
  40e53d:	int3   
  40e53e:	call   0x40eace
  40e543:	xor    eax,eax
  40e545:	ret    
  40e546:	call   0x40ec98
  40e54b:	call   0x40ec51
  40e550:	push   eax
  40e551:	call   0x4103ea
  40e556:	pop    ecx
  40e557:	ret    
  40e558:	push   0x14
  40e55a:	push   0x42ce58
  40e55f:	call   0x40e710
  40e564:	push   0x1
  40e566:	call   0x40e80c
  40e56b:	pop    ecx
  40e56c:	test   al,al
  40e56e:	jne    0x40e577
  40e570:	push   0x7
  40e572:	call   0x40eb03
  40e577:	xor    bl,bl
  40e579:	mov    BYTE PTR [ebp-0x19],bl
  40e57c:	and    DWORD PTR [ebp-0x4],0x0
  40e580:	call   0x40e7d7
  40e585:	mov    BYTE PTR [ebp-0x24],al
  40e588:	mov    eax,ds:0x43035c
  40e58d:	xor    ecx,ecx
  40e58f:	inc    ecx
  40e590:	cmp    eax,ecx
  40e592:	je     0x40e570
  40e594:	test   eax,eax
  40e596:	jne    0x40e5e1
  40e598:	mov    DWORD PTR ds:0x43035c,ecx
  40e59e:	push   0x4113f4
  40e5a3:	push   0x4113e4
  40e5a8:	call   0x4103ba
  40e5ad:	pop    ecx
  40e5ae:	pop    ecx
  40e5af:	test   eax,eax
  40e5b1:	je     0x40e5c4
  40e5b3:	mov    DWORD PTR [ebp-0x4],0xfffffffe
  40e5ba:	mov    eax,0xff
  40e5bf:	jmp    0x40e6ba
  40e5c4:	push   0x4113e0
  40e5c9:	push   0x41137c
  40e5ce:	call   0x4103b4
  40e5d3:	pop    ecx
  40e5d4:	pop    ecx
  40e5d5:	mov    DWORD PTR ds:0x43035c,0x2
  40e5df:	jmp    0x40e5e6
  40e5e1:	mov    bl,cl
  40e5e3:	mov    BYTE PTR [ebp-0x19],bl
  40e5e6:	push   DWORD PTR [ebp-0x24]
  40e5e9:	call   0x40e966
  40e5ee:	pop    ecx
  40e5ef:	call   0x40eaf7
  40e5f4:	mov    esi,eax
  40e5f6:	xor    edi,edi
  40e5f8:	cmp    DWORD PTR [esi],edi
  40e5fa:	je     0x40e616
  40e5fc:	push   esi
  40e5fd:	call   0x40e8dc
  40e602:	pop    ecx
  40e603:	test   al,al
  40e605:	je     0x40e616
  40e607:	push   edi
  40e608:	push   0x2
  40e60a:	push   edi
  40e60b:	mov    esi,DWORD PTR [esi]
  40e60d:	mov    ecx,esi
  40e60f:	call   0x40e702
  40e614:	call   esi
  40e616:	call   0x40eafd
  40e61b:	mov    esi,eax
  40e61d:	cmp    DWORD PTR [esi],edi
  40e61f:	je     0x40e634
  40e621:	push   esi
  40e622:	call   0x40e8dc
  40e627:	pop    ecx
  40e628:	test   al,al
  40e62a:	je     0x40e634
  40e62c:	push   DWORD PTR [esi]
  40e62e:	call   0x4103de
  40e633:	pop    ecx
  40e634:	call   0x40ec1e
  40e639:	movzx  eax,ax
  40e63c:	push   eax
  40e63d:	call   0x4103ae
  40e642:	push   eax
  40e643:	push   edi
  40e644:	push   0x400000
  40e649:	call   0x40d31f
  40e64e:	mov    esi,eax
  40e650:	call   0x40ec54
  40e655:	test   al,al
  40e657:	jne    0x40e65f
  40e659:	push   esi
  40e65a:	call   0x4103c0
  40e65f:	test   bl,bl
  40e661:	jne    0x40e668
  40e663:	call   0x4103d2
  40e668:	push   edi
  40e669:	push   0x1
  40e66b:	call   0x40e983
  40e670:	pop    ecx
  40e671:	pop    ecx
  40e672:	mov    DWORD PTR [ebp-0x4],0xfffffffe
  40e679:	mov    eax,esi
  40e67b:	jmp    0x40e6ba
  40e67d:	mov    ecx,DWORD PTR [ebp-0x14]
  40e680:	mov    eax,DWORD PTR [ecx]
  40e682:	mov    eax,DWORD PTR [eax]
  40e684:	mov    DWORD PTR [ebp-0x20],eax
  40e687:	push   ecx
  40e688:	push   eax
  40e689:	call   0x410390
  40e68e:	pop    ecx
  40e68f:	pop    ecx
  40e690:	ret    
  40e691:	mov    esp,DWORD PTR [ebp-0x18]
  40e694:	call   0x40ec54
  40e699:	test   al,al
  40e69b:	jne    0x40e6a5
  40e69d:	push   DWORD PTR [ebp-0x20]
  40e6a0:	call   0x4103c6
  40e6a5:	cmp    BYTE PTR [ebp-0x19],0x0
  40e6a9:	jne    0x40e6b0
  40e6ab:	call   0x4103d8
  40e6b0:	mov    DWORD PTR [ebp-0x4],0xfffffffe
  40e6b7:	mov    eax,DWORD PTR [ebp-0x20]
  40e6ba:	call   0x40e756
  40e6bf:	ret    
  40e6c0:	call   0x40e9fb
  40e6c5:	jmp    0x40e558
  40e6ca:	jmp    0x4103f6
  40e6cf:	push   ebp
  40e6d0:	mov    ebp,esp
  40e6d2:	jmp    0x40e6f3
  40e6d4:	push   DWORD PTR [ebp+0x8]
  40e6d7:	call   0x4103fc
  40e6dc:	pop    ecx
  40e6dd:	test   eax,eax
  40e6df:	jne    0x40e6f3
  40e6e1:	cmp    DWORD PTR [ebp+0x8],0xffffffff
  40e6e5:	jne    0x40e6ee
  40e6e7:	call   0x40edfc
  40e6ec:	jmp    0x40e6f3
  40e6ee:	call   0x40eddf
  40e6f3:	push   DWORD PTR [ebp+0x8]
  40e6f6:	call   0x410402
  40e6fb:	pop    ecx
  40e6fc:	test   eax,eax
  40e6fe:	je     0x40e6d4
  40e700:	pop    ebp
  40e701:	ret    
  40e702:	jmp    DWORD PTR ds:0x411378
  40e708:	int3   
  40e709:	int3   
  40e70a:	int3   
  40e70b:	int3   
  40e70c:	int3   
  40e70d:	int3   
  40e70e:	int3   
  40e70f:	int3   
  40e710:	push   0x40e76b
  40e715:	push   DWORD PTR fs:0x0
  40e71c:	mov    eax,DWORD PTR [esp+0x10]
  40e720:	mov    DWORD PTR [esp+0x10],ebp
  40e724:	lea    ebp,[esp+0x10]
  40e728:	sub    esp,eax
  40e72a:	push   ebx
  40e72b:	push   esi
  40e72c:	push   edi
  40e72d:	mov    eax,ds:0x4300bc
  40e732:	xor    DWORD PTR [ebp-0x4],eax
  40e735:	xor    eax,ebp
  40e737:	push   eax
  40e738:	mov    DWORD PTR [ebp-0x18],esp
  40e73b:	push   DWORD PTR [ebp-0x8]
  40e73e:	mov    eax,DWORD PTR [ebp-0x4]
  40e741:	mov    DWORD PTR [ebp-0x4],0xfffffffe
  40e748:	mov    DWORD PTR [ebp-0x8],eax
  40e74b:	lea    eax,[ebp-0x10]
  40e74e:	mov    fs:0x0,eax
  40e754:	bnd ret 
  40e756:	mov    ecx,DWORD PTR [ebp-0x10]
  40e759:	mov    DWORD PTR fs:0x0,ecx
  40e760:	pop    ecx
  40e761:	pop    edi
  40e762:	pop    edi
  40e763:	pop    esi
  40e764:	pop    ebx
  40e765:	mov    esp,ebp
  40e767:	pop    ebp
  40e768:	push   ecx
  40e769:	bnd ret 
  40e76b:	push   ebp
  40e76c:	mov    ebp,esp
  40e76e:	push   DWORD PTR [ebp+0x14]
  40e771:	push   DWORD PTR [ebp+0x10]
  40e774:	push   DWORD PTR [ebp+0xc]
  40e777:	push   DWORD PTR [ebp+0x8]
  40e77a:	push   0x40ee19
  40e77f:	push   0x4300bc
  40e784:	call   0x410360
  40e789:	add    esp,0x18
  40e78c:	pop    ebp
  40e78d:	ret    
  40e78e:	jmp    0x40e6ca
  40e793:	push   ebp
  40e794:	mov    ebp,esp
  40e796:	mov    eax,DWORD PTR [ebp+0x8]
  40e799:	push   esi
  40e79a:	mov    ecx,DWORD PTR [eax+0x3c]
  40e79d:	add    ecx,eax
  40e79f:	movzx  eax,WORD PTR [ecx+0x14]
  40e7a3:	lea    edx,[ecx+0x18]
  40e7a6:	add    edx,eax
  40e7a8:	movzx  eax,WORD PTR [ecx+0x6]
  40e7ac:	imul   esi,eax,0x28
  40e7af:	add    esi,edx
  40e7b1:	cmp    edx,esi
  40e7b3:	je     0x40e7ce
  40e7b5:	mov    ecx,DWORD PTR [ebp+0xc]
  40e7b8:	cmp    ecx,DWORD PTR [edx+0xc]
  40e7bb:	jb     0x40e7c7
  40e7bd:	mov    eax,DWORD PTR [edx+0x8]
  40e7c0:	add    eax,DWORD PTR [edx+0xc]
  40e7c3:	cmp    ecx,eax
  40e7c5:	jb     0x40e7d3
  40e7c7:	add    edx,0x28
  40e7ca:	cmp    edx,esi
  40e7cc:	jne    0x40e7b8
  40e7ce:	xor    eax,eax
  40e7d0:	pop    esi
  40e7d1:	pop    ebp
  40e7d2:	ret    
  40e7d3:	mov    eax,edx
  40e7d5:	jmp    0x40e7d0
  40e7d7:	call   0x40efc4
  40e7dc:	test   eax,eax
  40e7de:	jne    0x40e7e3
  40e7e0:	xor    al,al
  40e7e2:	ret    
  40e7e3:	mov    eax,fs:0x18
  40e7e9:	push   esi
  40e7ea:	mov    esi,0x430360
  40e7ef:	mov    edx,DWORD PTR [eax+0x4]
  40e7f2:	jmp    0x40e7f8
  40e7f4:	cmp    edx,eax
  40e7f6:	je     0x40e808
  40e7f8:	xor    eax,eax
  40e7fa:	mov    ecx,edx
  40e7fc:	lock cmpxchg DWORD PTR [esi],ecx
  40e800:	test   eax,eax
  40e802:	jne    0x40e7f4
  40e804:	xor    al,al
  40e806:	pop    esi
  40e807:	ret    
  40e808:	mov    al,0x1
  40e80a:	pop    esi
  40e80b:	ret    
  40e80c:	push   ebp
  40e80d:	mov    ebp,esp
  40e80f:	cmp    DWORD PTR [ebp+0x8],0x0
  40e813:	jne    0x40e81c
  40e815:	mov    BYTE PTR ds:0x43037c,0x1
  40e81c:	call   0x40ee2a
  40e821:	call   0x410426
  40e826:	test   al,al
  40e828:	jne    0x40e82e
  40e82a:	xor    al,al
  40e82c:	pop    ebp
  40e82d:	ret    
  40e82e:	call   0x410426
  40e833:	test   al,al
  40e835:	jne    0x40e841
  40e837:	push   0x0
  40e839:	call   0x410426
  40e83e:	pop    ecx
  40e83f:	jmp    0x40e82a
  40e841:	mov    al,0x1
  40e843:	pop    ebp
  40e844:	ret    
  40e845:	push   ebp
  40e846:	mov    ebp,esp
  40e848:	sub    esp,0xc
  40e84b:	push   esi
  40e84c:	mov    esi,DWORD PTR [ebp+0x8]
  40e84f:	test   esi,esi
  40e851:	je     0x40e858
  40e853:	cmp    esi,0x1
  40e856:	jne    0x40e8d4
  40e858:	call   0x40efc4
  40e85d:	test   eax,eax
  40e85f:	je     0x40e88b
  40e861:	test   esi,esi
  40e863:	jne    0x40e88b
  40e865:	push   0x430364
  40e86a:	call   0x410408
  40e86f:	pop    ecx
  40e870:	test   eax,eax
  40e872:	je     0x40e878
  40e874:	xor    al,al
  40e876:	jmp    0x40e8cf
  40e878:	push   0x430370
  40e87d:	call   0x410408
  40e882:	neg    eax
  40e884:	pop    ecx
  40e885:	sbb    al,al
  40e887:	inc    al
  40e889:	jmp    0x40e8cf
  40e88b:	mov    eax,ds:0x4300bc
  40e890:	lea    esi,[ebp-0xc]
  40e893:	push   edi
  40e894:	and    eax,0x1f
  40e897:	mov    edi,0x430364
  40e89c:	push   0x20
  40e89e:	pop    ecx
  40e89f:	sub    ecx,eax
  40e8a1:	or     eax,0xffffffff
  40e8a4:	ror    eax,cl
  40e8a6:	xor    eax,DWORD PTR ds:0x4300bc
  40e8ac:	mov    DWORD PTR [ebp-0xc],eax
  40e8af:	mov    DWORD PTR [ebp-0x8],eax
  40e8b2:	mov    DWORD PTR [ebp-0x4],eax
  40e8b5:	movs   DWORD PTR es:[edi],DWORD PTR ds:[esi]
  40e8b6:	movs   DWORD PTR es:[edi],DWORD PTR ds:[esi]
  40e8b7:	movs   DWORD PTR es:[edi],DWORD PTR ds:[esi]
  40e8b8:	mov    edi,0x430370
  40e8bd:	mov    DWORD PTR [ebp-0xc],eax
  40e8c0:	mov    DWORD PTR [ebp-0x8],eax
  40e8c3:	lea    esi,[ebp-0xc]
  40e8c6:	mov    DWORD PTR [ebp-0x4],eax
  40e8c9:	mov    al,0x1
  40e8cb:	movs   DWORD PTR es:[edi],DWORD PTR ds:[esi]
  40e8cc:	movs   DWORD PTR es:[edi],DWORD PTR ds:[esi]
  40e8cd:	movs   DWORD PTR es:[edi],DWORD PTR ds:[esi]
  40e8ce:	pop    edi
  40e8cf:	pop    esi
  40e8d0:	mov    esp,ebp
  40e8d2:	pop    ebp
  40e8d3:	ret    
  40e8d4:	push   0x5
  40e8d6:	call   0x40eb03
  40e8db:	int3   
  40e8dc:	push   0x8
  40e8de:	push   0x42ce78
  40e8e3:	call   0x40e710
  40e8e8:	and    DWORD PTR [ebp-0x4],0x0
  40e8ec:	mov    eax,0x5a4d
  40e8f1:	cmp    WORD PTR ds:0x400000,ax
  40e8f8:	jne    0x40e957
  40e8fa:	mov    eax,ds:0x40003c
  40e8ff:	cmp    DWORD PTR [eax+0x400000],0x4550
  40e909:	jne    0x40e957
  40e90b:	mov    ecx,0x10b
  40e910:	cmp    WORD PTR [eax+0x400018],cx
  40e917:	jne    0x40e957
  40e919:	mov    eax,DWORD PTR [ebp+0x8]
  40e91c:	mov    ecx,0x400000
  40e921:	sub    eax,ecx
  40e923:	push   eax
  40e924:	push   ecx
  40e925:	call   0x40e793
  40e92a:	pop    ecx
  40e92b:	pop    ecx
  40e92c:	test   eax,eax
  40e92e:	je     0x40e957
  40e930:	cmp    DWORD PTR [eax+0x24],0x0
  40e934:	jl     0x40e957
  40e936:	mov    DWORD PTR [ebp-0x4],0xfffffffe
  40e93d:	mov    al,0x1
  40e93f:	jmp    0x40e960
  40e941:	mov    eax,DWORD PTR [ebp-0x14]
  40e944:	mov    eax,DWORD PTR [eax]
  40e946:	xor    ecx,ecx
  40e948:	cmp    DWORD PTR [eax],0xc0000005
  40e94e:	sete   cl
  40e951:	mov    eax,ecx
  40e953:	ret    
  40e954:	mov    esp,DWORD PTR [ebp-0x18]
  40e957:	mov    DWORD PTR [ebp-0x4],0xfffffffe
  40e95e:	xor    al,al
  40e960:	call   0x40e756
  40e965:	ret    
  40e966:	push   ebp
  40e967:	mov    ebp,esp
  40e969:	call   0x40efc4
  40e96e:	test   eax,eax
  40e970:	je     0x40e981
  40e972:	cmp    BYTE PTR [ebp+0x8],0x0
  40e976:	jne    0x40e981
  40e978:	xor    eax,eax
  40e97a:	mov    ecx,0x430360
  40e97f:	xchg   DWORD PTR [ecx],eax
  40e981:	pop    ebp
  40e982:	ret    
  40e983:	push   ebp
  40e984:	mov    ebp,esp
  40e986:	cmp    BYTE PTR ds:0x43037c,0x0
  40e98d:	je     0x40e995
  40e98f:	cmp    BYTE PTR [ebp+0xc],0x0
  40e993:	jne    0x40e9a7
  40e995:	push   DWORD PTR [ebp+0x8]
  40e998:	call   0x410426
  40e99d:	push   DWORD PTR [ebp+0x8]
  40e9a0:	call   0x410426
  40e9a5:	pop    ecx
  40e9a6:	pop    ecx
  40e9a7:	mov    al,0x1
  40e9a9:	pop    ebp
  40e9aa:	ret    
  40e9ab:	push   ebp
  40e9ac:	mov    ebp,esp
  40e9ae:	mov    eax,ds:0x4300bc
  40e9b3:	mov    ecx,eax
  40e9b5:	xor    eax,DWORD PTR ds:0x430364
  40e9bb:	and    ecx,0x1f
  40e9be:	push   DWORD PTR [ebp+0x8]
  40e9c1:	ror    eax,cl
  40e9c3:	cmp    eax,0xffffffff
  40e9c6:	jne    0x40e9cf
  40e9c8:	call   0x410414
  40e9cd:	jmp    0x40e9da
  40e9cf:	push   0x430364
  40e9d4:	call   0x41040e
  40e9d9:	pop    ecx
  40e9da:	neg    eax
  40e9dc:	pop    ecx
  40e9dd:	sbb    eax,eax
  40e9df:	not    eax
  40e9e1:	and    eax,DWORD PTR [ebp+0x8]
  40e9e4:	pop    ebp
  40e9e5:	ret    
  40e9e6:	push   ebp
  40e9e7:	mov    ebp,esp
  40e9e9:	push   DWORD PTR [ebp+0x8]
  40e9ec:	call   0x40e9ab
  40e9f1:	neg    eax
  40e9f3:	pop    ecx
  40e9f4:	sbb    eax,eax
  40e9f6:	neg    eax
  40e9f8:	dec    eax
  40e9f9:	pop    ebp
  40e9fa:	ret    
  40e9fb:	push   ebp
  40e9fc:	mov    ebp,esp
  40e9fe:	sub    esp,0x14
  40ea01:	and    DWORD PTR [ebp-0xc],0x0
  40ea05:	and    DWORD PTR [ebp-0x8],0x0
  40ea09:	mov    eax,ds:0x4300bc
  40ea0e:	push   esi
  40ea0f:	push   edi
  40ea10:	mov    edi,0xbb40e64e
  40ea15:	mov    esi,0xffff0000
  40ea1a:	cmp    eax,edi
  40ea1c:	je     0x40ea2b
  40ea1e:	test   esi,eax
  40ea20:	je     0x40ea2b
  40ea22:	not    eax
  40ea24:	mov    ds:0x4300b8,eax
  40ea29:	jmp    0x40ea91
  40ea2b:	lea    eax,[ebp-0xc]
  40ea2e:	push   eax
  40ea2f:	call   DWORD PTR ds:0x41121c
  40ea35:	mov    eax,DWORD PTR [ebp-0x8]
  40ea38:	xor    eax,DWORD PTR [ebp-0xc]
  40ea3b:	mov    DWORD PTR [ebp-0x4],eax
  40ea3e:	call   DWORD PTR ds:0x411218
  40ea44:	xor    DWORD PTR [ebp-0x4],eax
  40ea47:	call   DWORD PTR ds:0x411214
  40ea4d:	xor    DWORD PTR [ebp-0x4],eax
  40ea50:	lea    eax,[ebp-0x14]
  40ea53:	push   eax
  40ea54:	call   DWORD PTR ds:0x411210
  40ea5a:	mov    ecx,DWORD PTR [ebp-0x10]
  40ea5d:	lea    eax,[ebp-0x4]
  40ea60:	xor    ecx,DWORD PTR [ebp-0x14]
  40ea63:	xor    ecx,DWORD PTR [ebp-0x4]
  40ea66:	xor    ecx,eax
  40ea68:	cmp    ecx,edi
  40ea6a:	jne    0x40ea73
  40ea6c:	mov    ecx,0xbb40e64f
  40ea71:	jmp    0x40ea83
  40ea73:	test   esi,ecx
  40ea75:	jne    0x40ea83
  40ea77:	mov    eax,ecx
  40ea79:	or     eax,0x4711
  40ea7e:	shl    eax,0x10
  40ea81:	or     ecx,eax
  40ea83:	mov    DWORD PTR ds:0x4300bc,ecx
  40ea89:	not    ecx
  40ea8b:	mov    DWORD PTR ds:0x4300b8,ecx
  40ea91:	pop    edi
  40ea92:	pop    esi
  40ea93:	mov    esp,ebp
  40ea95:	pop    ebp
  40ea96:	ret    
  40ea97:	xor    eax,eax
  40ea99:	inc    eax
  40ea9a:	ret    
  40ea9b:	mov    eax,0x4000
  40eaa0:	ret    
  40eaa1:	push   0x430380
  40eaa6:	call   DWORD PTR ds:0x411220
  40eaac:	ret    
  40eaad:	push   0x30000
  40eab2:	push   0x10000
  40eab7:	push   0x0
  40eab9:	call   0x41041a
  40eabe:	add    esp,0xc
  40eac1:	test   eax,eax
  40eac3:	jne    0x40eac6
  40eac5:	ret    
  40eac6:	push   0x7
  40eac8:	call   0x40eb03
  40eacd:	int3   
  40eace:	call   0x4016e0
  40ead3:	mov    ecx,DWORD PTR [eax+0x4]
  40ead6:	or     DWORD PTR [eax],0x4
  40ead9:	mov    DWORD PTR [eax+0x4],ecx
  40eadc:	call   0x402100
  40eae1:	mov    ecx,DWORD PTR [eax+0x4]
  40eae4:	or     DWORD PTR [eax],0x2
  40eae7:	mov    DWORD PTR [eax+0x4],ecx
  40eaea:	ret    
  40eaeb:	xor    eax,eax
  40eaed:	cmp    DWORD PTR ds:0x4300b4,eax
  40eaf3:	sete   al
  40eaf6:	ret    
  40eaf7:	mov    eax,0x4308d8
  40eafc:	ret    
  40eafd:	mov    eax,0x4308d4
  40eb02:	ret    
  40eb03:	push   ebp
  40eb04:	mov    ebp,esp
  40eb06:	sub    esp,0x324
  40eb0c:	push   ebx
  40eb0d:	push   esi
  40eb0e:	push   0x17
  40eb10:	call   0x410420
  40eb15:	test   eax,eax
  40eb17:	je     0x40eb1e
  40eb19:	mov    ecx,DWORD PTR [ebp+0x8]
  40eb1c:	int    0x29
  40eb1e:	xor    esi,esi
  40eb20:	lea    eax,[ebp-0x324]
  40eb26:	push   0x2cc
  40eb2b:	push   esi
  40eb2c:	push   eax
  40eb2d:	mov    DWORD PTR ds:0x430388,esi
  40eb33:	call   0x410366
  40eb38:	add    esp,0xc
  40eb3b:	mov    DWORD PTR [ebp-0x274],eax
  40eb41:	mov    DWORD PTR [ebp-0x278],ecx
  40eb47:	mov    DWORD PTR [ebp-0x27c],edx
  40eb4d:	mov    DWORD PTR [ebp-0x280],ebx
  40eb53:	mov    DWORD PTR [ebp-0x284],esi
  40eb59:	mov    DWORD PTR [ebp-0x288],edi
  40eb5f:	data16 mov WORD PTR [ebp-0x25c],ss
  40eb66:	data16 mov WORD PTR [ebp-0x268],cs
  40eb6d:	data16 mov WORD PTR [ebp-0x28c],ds
  40eb74:	data16 mov WORD PTR [ebp-0x290],es
  40eb7b:	data16 mov WORD PTR [ebp-0x294],fs
  40eb82:	data16 mov WORD PTR [ebp-0x298],gs
  40eb89:	pushf  
  40eb8a:	pop    DWORD PTR [ebp-0x264]
  40eb90:	mov    eax,DWORD PTR [ebp+0x4]
  40eb93:	mov    DWORD PTR [ebp-0x26c],eax
  40eb99:	lea    eax,[ebp+0x4]
  40eb9c:	mov    DWORD PTR [ebp-0x260],eax
  40eba2:	mov    DWORD PTR [ebp-0x324],0x10001
  40ebac:	mov    eax,DWORD PTR [eax-0x4]
  40ebaf:	push   0x50
  40ebb1:	mov    DWORD PTR [ebp-0x270],eax
  40ebb7:	lea    eax,[ebp-0x58]
  40ebba:	push   esi
  40ebbb:	push   eax
  40ebbc:	call   0x410366
  40ebc1:	mov    eax,DWORD PTR [ebp+0x4]
  40ebc4:	add    esp,0xc
  40ebc7:	mov    DWORD PTR [ebp-0x58],0x40000015
  40ebce:	mov    DWORD PTR [ebp-0x54],0x1
  40ebd5:	mov    DWORD PTR [ebp-0x4c],eax
  40ebd8:	call   DWORD PTR ds:0x411224
  40ebde:	push   esi
  40ebdf:	lea    ebx,[eax-0x1]
  40ebe2:	neg    ebx
  40ebe4:	lea    eax,[ebp-0x58]
  40ebe7:	mov    DWORD PTR [ebp-0x8],eax
  40ebea:	lea    eax,[ebp-0x324]
  40ebf0:	sbb    bl,bl
  40ebf2:	mov    DWORD PTR [ebp-0x4],eax
  40ebf5:	inc    bl
  40ebf7:	call   DWORD PTR ds:0x41122c
  40ebfd:	lea    eax,[ebp-0x8]
  40ec00:	push   eax
  40ec01:	call   DWORD PTR ds:0x411228
  40ec07:	test   eax,eax
  40ec09:	jne    0x40ec18
  40ec0b:	movzx  eax,bl
  40ec0e:	neg    eax
  40ec10:	sbb    eax,eax
  40ec12:	and    DWORD PTR ds:0x430388,eax
  40ec18:	pop    esi
  40ec19:	pop    ebx
  40ec1a:	mov    esp,ebp
  40ec1c:	pop    ebp
  40ec1d:	ret    
  40ec1e:	push   ebp
  40ec1f:	mov    ebp,esp
  40ec21:	sub    esp,0x44
  40ec24:	push   0x44
  40ec26:	lea    eax,[ebp-0x44]
  40ec29:	push   0x0
  40ec2b:	push   eax
  40ec2c:	call   0x410366
  40ec31:	add    esp,0xc
  40ec34:	lea    eax,[ebp-0x44]
  40ec37:	push   eax
  40ec38:	call   DWORD PTR ds:0x4111ec
  40ec3e:	test   BYTE PTR [ebp-0x18],0x1
  40ec42:	je     0x40ec4a
  40ec44:	movzx  eax,WORD PTR [ebp-0x14]
  40ec48:	jmp    0x40ec4d
  40ec4a:	push   0xa
  40ec4c:	pop    eax
  40ec4d:	mov    esp,ebp
  40ec4f:	pop    ebp
  40ec50:	ret    
  40ec51:	xor    eax,eax
  40ec53:	ret    
  40ec54:	push   0x0
  40ec56:	call   DWORD PTR ds:0x411234
  40ec5c:	mov    ecx,eax
  40ec5e:	test   ecx,ecx
  40ec60:	jne    0x40ec65
  40ec62:	xor    al,al
  40ec64:	ret    
  40ec65:	mov    eax,0x5a4d
  40ec6a:	cmp    WORD PTR [ecx],ax
  40ec6d:	jne    0x40ec62
  40ec6f:	mov    eax,DWORD PTR [ecx+0x3c]
  40ec72:	add    eax,ecx
  40ec74:	cmp    DWORD PTR [eax],0x4550
  40ec7a:	jne    0x40ec62
  40ec7c:	mov    ecx,0x10b
  40ec81:	cmp    WORD PTR [eax+0x18],cx
  40ec85:	jne    0x40ec62
  40ec87:	cmp    DWORD PTR [eax+0x74],0xe
  40ec8b:	jbe    0x40ec62
  40ec8d:	cmp    DWORD PTR [eax+0xe8],0x0
  40ec94:	setne  al
  40ec97:	ret    
  40ec98:	push   0x40eca4
  40ec9d:	call   DWORD PTR ds:0x41122c
  40eca3:	ret    
  40eca4:	push   ebp
  40eca5:	mov    ebp,esp
  40eca7:	mov    eax,DWORD PTR [ebp+0x8]
  40ecaa:	mov    eax,DWORD PTR [eax]
  40ecac:	cmp    DWORD PTR [eax],0xe06d7363
  40ecb2:	jne    0x40ecd9
  40ecb4:	cmp    DWORD PTR [eax+0x10],0x3
  40ecb8:	jne    0x40ecd9
  40ecba:	mov    eax,DWORD PTR [eax+0x14]
  40ecbd:	cmp    eax,0x19930520
  40ecc2:	je     0x40ecdf
  40ecc4:	cmp    eax,0x19930521
  40ecc9:	je     0x40ecdf
  40eccb:	cmp    eax,0x19930522
  40ecd0:	je     0x40ecdf
  40ecd2:	cmp    eax,0x1994000
  40ecd7:	je     0x40ecdf
  40ecd9:	xor    eax,eax
  40ecdb:	pop    ebp
  40ecdc:	ret    0x4
  40ecdf:	call   0x41038a
  40ece4:	int3   
  40ece5:	push   ebx
  40ece6:	push   esi
  40ece7:	mov    esi,0x42cc98
  40ecec:	mov    ebx,0x42cc98
  40ecf1:	cmp    esi,ebx
  40ecf3:	jae    0x40ed0d
  40ecf5:	push   edi
  40ecf6:	mov    edi,DWORD PTR [esi]
  40ecf8:	test   edi,edi
  40ecfa:	je     0x40ed05
  40ecfc:	mov    ecx,edi
  40ecfe:	call   0x40e702
  40ed03:	call   edi
  40ed05:	add    esi,0x4
  40ed08:	cmp    esi,ebx
  40ed0a:	jb     0x40ecf6
  40ed0c:	pop    edi
  40ed0d:	pop    esi
  40ed0e:	pop    ebx
  40ed0f:	ret    
  40ed10:	push   ebx
  40ed11:	push   esi
  40ed12:	mov    esi,0x42cca0
  40ed17:	mov    ebx,0x42cca0
  40ed1c:	cmp    esi,ebx
  40ed1e:	jae    0x40ed38
  40ed20:	push   edi
  40ed21:	mov    edi,DWORD PTR [esi]
  40ed23:	test   edi,edi
  40ed25:	je     0x40ed30
  40ed27:	mov    ecx,edi
  40ed29:	call   0x40e702
  40ed2e:	call   edi
  40ed30:	add    esi,0x4
  40ed33:	cmp    esi,ebx
  40ed35:	jb     0x40ed21
  40ed37:	pop    edi
  40ed38:	pop    esi
  40ed39:	pop    ebx
  40ed3a:	ret    
  40ed3b:	push   ebp
  40ed3c:	mov    ebp,esp
  40ed3e:	push   esi
  40ed3f:	push   DWORD PTR [ebp+0x8]
  40ed42:	mov    esi,ecx
  40ed44:	call   0x4015b0
  40ed49:	mov    DWORD PTR [esi],0x411a04
  40ed4f:	mov    eax,esi
  40ed51:	pop    esi
  40ed52:	pop    ebp
  40ed53:	ret    0x4
  40ed56:	and    DWORD PTR [ecx+0x4],0x0
  40ed5a:	mov    eax,ecx
  40ed5c:	and    DWORD PTR [ecx+0x8],0x0
  40ed60:	mov    DWORD PTR [ecx+0x4],0x411a0c
  40ed67:	mov    DWORD PTR [ecx],0x411a04
  40ed6d:	ret    
  40ed6e:	push   ebp
  40ed6f:	mov    ebp,esp
  40ed71:	push   esi
  40ed72:	push   DWORD PTR [ebp+0x8]
  40ed75:	mov    esi,ecx
  40ed77:	call   0x4015b0
  40ed7c:	mov    DWORD PTR [esi],0x411a20
  40ed82:	mov    eax,esi
  40ed84:	pop    esi
  40ed85:	pop    ebp
  40ed86:	ret    0x4
  40ed89:	and    DWORD PTR [ecx+0x4],0x0
  40ed8d:	mov    eax,ecx
  40ed8f:	and    DWORD PTR [ecx+0x8],0x0
  40ed93:	mov    DWORD PTR [ecx+0x4],0x411a28
  40ed9a:	mov    DWORD PTR [ecx],0x411a20
  40eda0:	ret    
  40eda1:	lea    eax,[ecx+0x4]
  40eda4:	mov    DWORD PTR [ecx],0x430004
  40edaa:	push   eax
  40edab:	call   0x41035a
  40edb0:	pop    ecx
  40edb1:	ret    
  40edb2:	push   ebp
  40edb3:	mov    ebp,esp
  40edb5:	push   esi
  40edb6:	mov    esi,ecx
  40edb8:	lea    eax,[esi+0x4]
  40edbb:	mov    DWORD PTR [esi],0x430004
  40edc1:	push   eax
  40edc2:	call   0x41035a
  40edc7:	test   BYTE PTR [ebp+0x8],0x1
  40edcb:	pop    ecx
  40edcc:	je     0x40edd8
  40edce:	push   0xc
  40edd0:	push   esi
  40edd1:	call   0x40e48c
  40edd6:	pop    ecx
  40edd7:	pop    ecx
  40edd8:	mov    eax,esi
  40edda:	pop    esi
  40eddb:	pop    ebp
  40eddc:	ret    0x4
  40eddf:	push   ebp
  40ede0:	mov    ebp,esp
  40ede2:	sub    esp,0xc
  40ede5:	lea    ecx,[ebp-0xc]
  40ede8:	call   0x40ed56
  40eded:	push   0x42ce94
  40edf2:	lea    eax,[ebp-0xc]
  40edf5:	push   eax
  40edf6:	call   0x41036c
  40edfb:	int3   
  40edfc:	push   ebp
  40edfd:	mov    ebp,esp
  40edff:	sub    esp,0xc
  40ee02:	lea    ecx,[ebp-0xc]
  40ee05:	call   0x40ed89
  40ee0a:	push   0x42cecc
  40ee0f:	lea    eax,[ebp-0xc]
  40ee12:	push   eax
  40ee13:	call   0x41036c
  40ee18:	int3   
  40ee19:	cmp    ecx,DWORD PTR ds:0x4300bc
  40ee1f:	bnd jne 0x40ee24
  40ee22:	bnd ret 
  40ee24:	bnd jmp 0x40eff8
  40ee2a:	push   ebp
  40ee2b:	mov    ebp,esp
  40ee2d:	and    DWORD PTR ds:0x43038c,0x0
  40ee34:	sub    esp,0x28
  40ee37:	push   ebx
  40ee38:	xor    ebx,ebx
  40ee3a:	inc    ebx
  40ee3b:	or     DWORD PTR ds:0x4300c0,ebx
  40ee41:	push   0xa
  40ee43:	call   0x410420
  40ee48:	test   eax,eax
  40ee4a:	je     0x40efbd
  40ee50:	and    DWORD PTR [ebp-0x10],0x0
  40ee54:	xor    eax,eax
  40ee56:	or     DWORD PTR ds:0x4300c0,0x2
  40ee5d:	xor    ecx,ecx
  40ee5f:	push   esi
  40ee60:	push   edi
  40ee61:	mov    DWORD PTR ds:0x43038c,ebx
  40ee67:	lea    edi,[ebp-0x28]
  40ee6a:	push   ebx
  40ee6b:	cpuid  
  40ee6d:	mov    esi,ebx
  40ee6f:	pop    ebx
  40ee70:	mov    DWORD PTR [edi],eax
  40ee72:	mov    DWORD PTR [edi+0x4],esi
  40ee75:	mov    DWORD PTR [edi+0x8],ecx
  40ee78:	mov    DWORD PTR [edi+0xc],edx
  40ee7b:	mov    eax,DWORD PTR [ebp-0x28]
  40ee7e:	mov    ecx,DWORD PTR [ebp-0x1c]
  40ee81:	mov    DWORD PTR [ebp-0x8],eax
  40ee84:	xor    ecx,0x49656e69
  40ee8a:	mov    eax,DWORD PTR [ebp-0x20]
  40ee8d:	xor    eax,0x6c65746e
  40ee92:	or     ecx,eax
  40ee94:	mov    eax,DWORD PTR [ebp-0x24]
  40ee97:	push   0x1
  40ee99:	xor    eax,0x756e6547
  40ee9e:	or     ecx,eax
  40eea0:	pop    eax
  40eea1:	push   0x0
  40eea3:	pop    ecx
  40eea4:	push   ebx
  40eea5:	cpuid  
  40eea7:	mov    esi,ebx
  40eea9:	pop    ebx
  40eeaa:	mov    DWORD PTR [edi],eax
  40eeac:	mov    DWORD PTR [edi+0x4],esi
  40eeaf:	mov    DWORD PTR [edi+0x8],ecx
  40eeb2:	mov    DWORD PTR [edi+0xc],edx
  40eeb5:	jne    0x40eefa
  40eeb7:	mov    eax,DWORD PTR [ebp-0x28]
  40eeba:	and    eax,0xfff3ff0
  40eebf:	cmp    eax,0x106c0
  40eec4:	je     0x40eee9
  40eec6:	cmp    eax,0x20660
  40eecb:	je     0x40eee9
  40eecd:	cmp    eax,0x20670
  40eed2:	je     0x40eee9
  40eed4:	cmp    eax,0x30650
  40eed9:	je     0x40eee9
  40eedb:	cmp    eax,0x30660
  40eee0:	je     0x40eee9
  40eee2:	cmp    eax,0x30670
  40eee7:	jne    0x40eefa
  40eee9:	mov    edi,DWORD PTR ds:0x430390
  40eeef:	or     edi,0x1
  40eef2:	mov    DWORD PTR ds:0x430390,edi
  40eef8:	jmp    0x40ef00
  40eefa:	mov    edi,DWORD PTR ds:0x430390
  40ef00:	cmp    DWORD PTR [ebp-0x8],0x7
  40ef04:	mov    eax,DWORD PTR [ebp-0x1c]
  40ef07:	mov    DWORD PTR [ebp-0x18],eax
  40ef0a:	mov    eax,DWORD PTR [ebp-0x20]
  40ef0d:	mov    DWORD PTR [ebp-0x4],eax
  40ef10:	mov    DWORD PTR [ebp-0x14],eax
  40ef13:	jl     0x40ef47
  40ef15:	push   0x7
  40ef17:	pop    eax
  40ef18:	xor    ecx,ecx
  40ef1a:	push   ebx
  40ef1b:	cpuid  
  40ef1d:	mov    esi,ebx
  40ef1f:	pop    ebx
  40ef20:	lea    ebx,[ebp-0x28]
  40ef23:	mov    DWORD PTR [ebx],eax
  40ef25:	mov    DWORD PTR [ebx+0x4],esi
  40ef28:	mov    DWORD PTR [ebx+0x8],ecx
  40ef2b:	mov    DWORD PTR [ebx+0xc],edx
  40ef2e:	mov    eax,DWORD PTR [ebp-0x24]
  40ef31:	test   eax,0x200
  40ef36:	mov    DWORD PTR [ebp-0x10],eax
  40ef39:	mov    eax,DWORD PTR [ebp-0x4]
  40ef3c:	je     0x40ef47
  40ef3e:	or     edi,0x2
  40ef41:	mov    DWORD PTR ds:0x430390,edi
  40ef47:	pop    edi
  40ef48:	pop    esi
  40ef49:	test   eax,0x100000
  40ef4e:	je     0x40efbd
  40ef50:	or     DWORD PTR ds:0x4300c0,0x4
  40ef57:	mov    DWORD PTR ds:0x43038c,0x2
  40ef61:	test   eax,0x8000000
  40ef66:	je     0x40efbd
  40ef68:	test   eax,0x10000000
  40ef6d:	je     0x40efbd
  40ef6f:	xor    ecx,ecx
  40ef71:	xgetbv 
  40ef74:	mov    DWORD PTR [ebp-0xc],eax
  40ef77:	mov    DWORD PTR [ebp-0x8],edx
  40ef7a:	mov    eax,DWORD PTR [ebp-0xc]
  40ef7d:	mov    ecx,DWORD PTR [ebp-0x8]
  40ef80:	and    eax,0x6
  40ef83:	xor    ecx,ecx
  40ef85:	cmp    eax,0x6
  40ef88:	jne    0x40efbd
  40ef8a:	test   ecx,ecx
  40ef8c:	jne    0x40efbd
  40ef8e:	mov    eax,ds:0x4300c0
  40ef93:	or     eax,0x8
  40ef96:	mov    DWORD PTR ds:0x43038c,0x3
  40efa0:	test   BYTE PTR [ebp-0x10],0x20
  40efa4:	mov    ds:0x4300c0,eax
  40efa9:	je     0x40efbd
  40efab:	or     eax,0x20
  40efae:	mov    DWORD PTR ds:0x43038c,0x5
  40efb8:	mov    ds:0x4300c0,eax
  40efbd:	xor    eax,eax
  40efbf:	pop    ebx
  40efc0:	mov    esp,ebp
  40efc2:	pop    ebp
  40efc3:	ret    
  40efc4:	xor    eax,eax
  40efc6:	cmp    DWORD PTR ds:0x4300d4,eax
  40efcc:	setne  al
  40efcf:	ret    
  40efd0:	push   ebp
  40efd1:	mov    ebp,esp
  40efd3:	push   0x0
  40efd5:	call   DWORD PTR ds:0x41122c
  40efdb:	push   DWORD PTR [ebp+0x8]
  40efde:	call   DWORD PTR ds:0x411228
  40efe4:	push   0xc0000409
  40efe9:	call   DWORD PTR ds:0x411238
  40efef:	push   eax
  40eff0:	call   DWORD PTR ds:0x41123c
  40eff6:	pop    ebp
  40eff7:	ret    
  40eff8:	push   ebp
  40eff9:	mov    ebp,esp
  40effb:	sub    esp,0x324
  40f001:	push   0x17
  40f003:	call   0x410420
  40f008:	test   eax,eax
  40f00a:	je     0x40f011
  40f00c:	push   0x2
  40f00e:	pop    ecx
  40f00f:	int    0x29
  40f011:	mov    ds:0x430498,eax
  40f016:	mov    DWORD PTR ds:0x430494,ecx
  40f01c:	mov    DWORD PTR ds:0x430490,edx
  40f022:	mov    DWORD PTR ds:0x43048c,ebx
  40f028:	mov    DWORD PTR ds:0x430488,esi
  40f02e:	mov    DWORD PTR ds:0x430484,edi
  40f034:	data16 mov WORD PTR ds:0x4304b0,ss
  40f03b:	data16 mov WORD PTR ds:0x4304a4,cs
  40f042:	data16 mov WORD PTR ds:0x430480,ds
  40f049:	data16 mov WORD PTR ds:0x43047c,es
  40f050:	data16 mov WORD PTR ds:0x430478,fs
  40f057:	data16 mov WORD PTR ds:0x430474,gs
  40f05e:	pushf  
  40f05f:	pop    DWORD PTR ds:0x4304a8
  40f065:	mov    eax,DWORD PTR [ebp+0x0]
  40f068:	mov    ds:0x43049c,eax
  40f06d:	mov    eax,DWORD PTR [ebp+0x4]
  40f070:	mov    ds:0x4304a0,eax
  40f075:	lea    eax,[ebp+0x8]
  40f078:	mov    ds:0x4304ac,eax
  40f07d:	mov    eax,DWORD PTR [ebp-0x324]
  40f083:	mov    DWORD PTR ds:0x4303e8,0x10001
  40f08d:	mov    eax,ds:0x4304a0
  40f092:	mov    ds:0x4303a4,eax
  40f097:	mov    DWORD PTR ds:0x430398,0xc0000409
  40f0a1:	mov    DWORD PTR ds:0x43039c,0x1
  40f0ab:	mov    DWORD PTR ds:0x4303a8,0x1
  40f0b5:	push   0x4
  40f0b7:	pop    eax
  40f0b8:	imul   eax,eax,0x0
  40f0bb:	mov    DWORD PTR [eax+0x4303ac],0x2
  40f0c5:	push   0x4
  40f0c7:	pop    eax
  40f0c8:	imul   eax,eax,0x0
  40f0cb:	mov    ecx,DWORD PTR ds:0x4300bc
  40f0d1:	mov    DWORD PTR [ebp+eax*1-0x8],ecx
  40f0d5:	push   0x4
  40f0d7:	pop    eax
  40f0d8:	shl    eax,0x0
  40f0db:	mov    ecx,DWORD PTR ds:0x4300b8
  40f0e1:	mov    DWORD PTR [ebp+eax*1-0x8],ecx
  40f0e5:	push   0x411a40
  40f0ea:	call   0x40efd0
  40f0ef:	mov    esp,ebp
  40f0f1:	pop    ebp
  40f0f2:	ret    
  40f0f3:	int3   
  40f0f4:	add    esi,DWORD PTR [eax]
  40f0f6:	add    al,BYTE PTR [eax]
  40f0f8:	or     BYTE PTR [eax],al
  40f0fa:	add    BYTE PTR [eax],al
  40f0fc:	add    BYTE PTR [eax],al
  40f0fe:	add    BYTE PTR [eax],al
  40f100:	add    al,BYTE PTR [ebx]
  40f102:	sub    cl,cl
  40f104:	add    BYTE PTR [eax],al
  40f106:	or     ch,BYTE PTR [edx]
  40f108:	add    esi,DWORD PTR [eax]
  40f10a:	add    eax,DWORD PTR [eax]
  40f10c:	or     DWORD PTR [eax],eax
  40f10e:	add    BYTE PTR [eax],al
  40f110:	add    BYTE PTR [eax],al
  40f112:	add    BYTE PTR [eax],al
  40f114:	add    al,BYTE PTR [ebx]
  40f116:	add    al,0x28
  40f118:	enter  0x0,0xa
  40f11c:	sub    cl,ah
  40f11e:	int3   
  40f11f:	int3   
  40f120:	add    esi,DWORD PTR [eax]
  40f122:	add    eax,DWORD PTR [eax]
  40f124:	or     DWORD PTR [eax],eax
  40f126:	add    BYTE PTR [eax],al
  40f128:	add    BYTE PTR [eax],al
  40f12a:	add    BYTE PTR [eax],al
  40f12c:	add    al,BYTE PTR [ebx]
  40f12e:	add    al,0x28
  40f130:	mov    DWORD PTR [eax],0xcc2a0a00
  40f136:	int3   
  40f137:	int3   
  40f138:	add    esi,DWORD PTR [eax]
  40f13a:	add    DWORD PTR [eax],eax
  40f13c:	pop    es
  40f13d:	add    BYTE PTR [eax],al
  40f13f:	add    BYTE PTR [eax],al
  40f141:	add    BYTE PTR [eax],al
  40f143:	add    BYTE PTR [edx],al
  40f145:	jnp    0x40f199
  40f147:	add    DWORD PTR [eax],eax
  40f149:	add    al,0x2a
  40f14b:	int3   
  40f14c:	add    esi,DWORD PTR [eax]
  40f14e:	add    al,BYTE PTR [eax]
  40f150:	or     BYTE PTR [eax],al
  40f152:	add    BYTE PTR [eax],al
  40f154:	add    BYTE PTR [eax],al
  40f156:	add    BYTE PTR [eax],al
  40f158:	add    al,BYTE PTR [ebx]
  40f15a:	jge    0x40f1ae
  40f15c:	add    DWORD PTR [eax],eax
  40f15e:	add    al,0x2a
  40f160:	add    esi,DWORD PTR [eax]
  40f162:	add    eax,DWORD PTR [eax]
  40f164:	xchg   edi,eax
  40f165:	add    BYTE PTR [eax],al
  40f167:	add    BYTE PTR [eax],bl
  40f169:	add    DWORD PTR [eax],eax
  40f16b:	adc    DWORD PTR [edx],eax
  40f16d:	outs   dx,DWORD PTR ds:[esi]
  40f16e:	into   
  40f16f:	add    BYTE PTR [eax],al
  40f171:	or     ch,BYTE PTR [esi+ecx*1]
  40f174:	add    ch,BYTE PTR [edi-0x32]
  40f177:	add    BYTE PTR [eax],al
  40f179:	or     ch,BYTE PTR [edi-0x36]
  40f17c:	add    BYTE PTR [eax],al
  40f17e:	or     cl,BYTE PTR [ebx+ebp*1]
  40f181:	push   es
  40f182:	jle    0x40f135
  40f184:	add    BYTE PTR [eax],al
  40f186:	or     cl,BYTE PTR [edx+eax*1]
  40f189:	sub    al,bl
  40f18b:	add    DWORD PTR [eax],eax
  40f18d:	push   es
  40f18e:	sub    al,0xe
  40f190:	add    ch,BYTE PTR [eax]
  40f192:	fadd   DWORD PTR [ecx]
  40f194:	add    BYTE PTR [esi],al
  40f196:	outs   dx,DWORD PTR ds:[esi]
  40f197:	retf   0x0
  40f19a:	or     cl,BYTE PTR [ebx]
  40f19c:	sub    eax,DWORD PTR [esi]
  40f19e:	jle    0x40f151
  40f1a0:	add    BYTE PTR [eax],al
  40f1a2:	or     cl,BYTE PTR [ebx]
  40f1a4:	sbb    cl,BYTE PTR [ebp+0x1000061]
  40f1aa:	or     al,BYTE PTR [esi]
  40f1ac:	push   ss
  40f1ad:	add    ch,BYTE PTR [edi-0x34]
  40f1b0:	add    BYTE PTR [eax],al
  40f1b2:	or     ah,BYTE PTR [edx+0xcd6f02]
  40f1b8:	add    BYTE PTR [edx],cl
  40f1ba:	sub    al,0xa
  40f1bc:	add    ch,BYTE PTR [edi-0x33]
  40f1bf:	add    BYTE PTR [eax],al
  40f1c1:	or     dl,BYTE PTR [ebx]
  40f1c3:	add    eax,0xb17e072b
  40f1c8:	add    BYTE PTR [eax],al
  40f1ca:	or     dl,BYTE PTR [ebx]
  40f1cc:	add    eax,0x5111706
  40f1d1:	mov    ds:0x8052c08,al
  40f1d6:	adc    eax,DWORD PTR [ebx+ebp*1]
  40f1d9:	pop    es
  40f1da:	jle    0x40f18d
  40f1dc:	add    BYTE PTR [eax],al
  40f1de:	or     dl,BYTE PTR [ebx]
  40f1e0:	add    al,0x6
  40f1e2:	sbb    BYTE PTR [ecx],dl
  40f1e4:	add    al,0xa2
  40f1e6:	pop    es
  40f1e7:	sub    al,0x4
  40f1e9:	pop    es
  40f1ea:	or     eax,0xb17e062b
  40f1ef:	add    BYTE PTR [eax],al
  40f1f1:	or     cl,BYTE PTR ds:0xa2091906
  40f1f7:	jb     0x40f1f9
  40f1f9:	pop    es
  40f1fa:	add    BYTE PTR [eax+0x6],dh
  40f1fd:	sub    dl,al
  40f1ff:	add    BYTE PTR [eax],al
  40f201:	or     ch,BYTE PTR [edx]
  40f203:	int3   
  40f204:	add    esi,DWORD PTR [eax]
  40f206:	add    al,0x0
  40f208:	and    al,0x0
  40f20a:	add    BYTE PTR [eax],al
  40f20c:	add    BYTE PTR [eax],al
  40f20e:	add    BYTE PTR [eax],al
  40f210:	add    al,BYTE PTR [ebx]
  40f212:	add    al,0x28
  40f214:	retf   
  40f215:	add    BYTE PTR [eax],al
  40f217:	or     al,BYTE PTR [ebx]
  40f219:	jb     0x40f250
  40f21b:	or     BYTE PTR [eax],al
  40f21d:	jo     0x40f221
  40f21f:	sub    al,bl
  40f221:	add    DWORD PTR [eax],eax
  40f223:	push   es
  40f224:	rcr    BYTE PTR [ebp+0x0],1
  40f227:	add    BYTE PTR [ecx],al
  40f229:	sub    ah,dl
  40f22b:	add    BYTE PTR [eax],al
  40f22d:	or     ch,BYTE PTR [eax]
  40f22f:	mov    edi,0x2a0a0000
  40f234:	add    esi,DWORD PTR [eax]
  40f236:	add    al,0x0
  40f238:	sub    DWORD PTR [eax],eax
  40f23a:	add    BYTE PTR [eax],al
  40f23c:	add    BYTE PTR [eax],al
  40f23e:	add    BYTE PTR [eax],al
  40f240:	add    al,BYTE PTR [ebx]
  40f242:	add    al,0x28
  40f244:	rol    DWORD PTR [ecx],cl
  40f246:	add    BYTE PTR [esi],al
  40f248:	add    al,BYTE PTR [ebx]
  40f24a:	jb     0x40f281
  40f24c:	or     BYTE PTR [eax],al
  40f24e:	jo     0x40f220
  40f250:	pop    ebp
  40f251:	add    BYTE PTR [eax],al
  40f253:	add    DWORD PTR [eax],ebp
  40f255:	aam    0x0
  40f257:	add    BYTE PTR [edx],cl
  40f259:	sub    al,al
  40f25b:	add    BYTE PTR [eax],al
  40f25d:	or     dh,BYTE PTR [ebp+ebx*2+0x0]
  40f261:	add    BYTE PTR [ecx],al
  40f263:	sub    cl,bl
  40f265:	add    DWORD PTR [eax],eax
  40f267:	push   es
  40f268:	sub    cl,ah
  40f26a:	int3   
  40f26b:	int3   
  40f26c:	add    esi,DWORD PTR [eax]
  40f26e:	add    DWORD PTR [eax],eax
  40f270:	or     BYTE PTR [eax],al
  40f272:	add    BYTE PTR [eax],al
  40f274:	add    BYTE PTR [eax],al
  40f276:	add    BYTE PTR [eax],al
  40f278:	add    dh,BYTE PTR [ebx-0x2b]
  40f27b:	add    DWORD PTR [eax],eax
  40f27d:	push   es
  40f27e:	jp     0x40f2aa
  40f280:	add    esi,DWORD PTR [eax]
  40f282:	add    al,BYTE PTR [eax]
  40f284:	or     DWORD PTR [eax],eax
  40f286:	add    BYTE PTR [eax],al
  40f288:	add    BYTE PTR [eax],al
  40f28a:	add    BYTE PTR [eax],al
  40f28c:	add    al,BYTE PTR [ebx]
  40f28e:	jae    0x40f264
  40f290:	add    DWORD PTR [eax],eax
  40f292:	push   es
  40f293:	jp     0x40f2bf
  40f295:	int3   
  40f296:	int3   
  40f297:	int3   
  40f298:	or     esi,DWORD PTR [eax]
  40f29a:	add    al,0x0
  40f29c:	add    BYTE PTR ss:[eax],al
  40f29f:	add    BYTE PTR [ebx],bl
  40f2a1:	add    DWORD PTR [eax],eax
  40f2a3:	adc    DWORD PTR [esi],edx
  40f2a5:	or     ch,BYTE PTR [eax]
  40f2a7:	mov    esi,0x280a0000
  40f2ac:	mov    esi,0x7e0a0000
  40f2b1:	push   ebx
  40f2b2:	add    DWORD PTR [eax],eax
  40f2b4:	add    al,0x12
  40f2b6:	add    BYTE PTR [eax],ch
  40f2b8:	scas   eax,DWORD PTR es:[edi]
  40f2b9:	add    BYTE PTR [eax],al
  40f2bb:	or     al,BYTE PTR [ebx]
  40f2bd:	sub    BYTE PTR [ebp+0x20a0000],bh
  40f2c3:	add    ebp,DWORD PTR [edi-0x28]
  40f2c6:	add    BYTE PTR [eax],al
  40f2c8:	or     bl,dh
  40f2ca:	push   cs
  40f2cb:	push   es
  40f2cc:	sub    al,0xa
  40f2ce:	jle    0x40f323
  40f2d0:	add    DWORD PTR [eax],eax
  40f2d2:	add    al,0x28
  40f2d4:	mov    al,0x0
  40f2d6:	add    BYTE PTR [edx],cl
  40f2d8:	fsubr  QWORD PTR [edx]
  40f2da:	add    BYTE PTR [eax],al
  40f2dc:	inc    ecx
  40f2dd:	sbb    al,0x0
  40f2df:	add    BYTE PTR [edx],al
  40f2e1:	add    BYTE PTR [eax],al
  40f2e3:	add    BYTE PTR [edi],al
  40f2e5:	add    BYTE PTR [eax],al
  40f2e7:	add    BYTE PTR [eax],ah
  40f2e9:	add    BYTE PTR [eax],al
  40f2eb:	add    BYTE PTR [edi],ah
  40f2ed:	add    BYTE PTR [eax],al
  40f2ef:	add    BYTE PTR [esi],cl
  40f2f1:	add    BYTE PTR [eax],al
  40f2f3:	add    BYTE PTR [edi],bh
  40f2f5:	add    BYTE PTR [eax],al
  40f2f7:	add    DWORD PTR [ebx],ecx
  40f2f9:	xor    BYTE PTR [eax+eax*1],al
  40f2fc:	popa   
  40f2fd:	add    BYTE PTR [eax],al
  40f2ff:	add    BYTE PTR ds:0x16110001,bl
  40f305:	or     al,0x28
  40f307:	mov    esi,0x280a0000
  40f30c:	mov    esi,0x7e0a0000
  40f311:	push   ebx
  40f312:	add    DWORD PTR [eax],eax
  40f314:	add    al,0x12
  40f316:	add    ch,BYTE PTR [eax]
  40f318:	scas   eax,DWORD PTR es:[edi]
  40f319:	add    BYTE PTR [eax],al
  40f31b:	or     al,BYTE PTR [edx]
  40f31d:	outs   dx,DWORD PTR ds:[esi]
  40f31e:	xlat   BYTE PTR ds:[ebx]
  40f31f:	add    BYTE PTR [eax],al
  40f321:	or     cl,BYTE PTR [edx]
  40f323:	push   es
  40f324:	outs   dx,DWORD PTR ds:[esi]
  40f325:	fld    DWORD PTR [eax]
  40f327:	add    BYTE PTR [edx],cl
  40f329:	sub    al,0x14
  40f32b:	push   es
  40f32c:	outs   dx,DWORD PTR ds:[esi]
  40f32d:	fiadd  DWORD PTR [eax]
  40f32f:	add    BYTE PTR [edx],cl
  40f331:	je     0x40f37c
  40f333:	add    BYTE PTR [eax],al
  40f335:	add    DWORD PTR [ebx],eax
  40f337:	add    al,0x6f
  40f339:	mov    BYTE PTR [eax],0x0
  40f33c:	or     ch,BYTE PTR [ebx]
  40f33e:	in     al,0xde
  40f340:	adc    eax,DWORD PTR [esi]
  40f342:	or     eax,0x657506
  40f347:	add    BYTE PTR [ecx],al
  40f349:	or     eax,DWORD PTR [edi]
  40f34b:	sub    al,0x6
  40f34d:	pop    es
  40f34e:	outs   dx,DWORD PTR ds:[esi]
  40f34f:	lds    eax,FWORD PTR [eax]
  40f351:	add    BYTE PTR [edx],cl
  40f353:	(bad)  
  40f355:	push   cs
  40f356:	or     BYTE PTR [edx+ecx*1],ch
  40f359:	jle    0x40f3ae
  40f35b:	add    DWORD PTR [eax],eax
  40f35d:	add    al,0x28
  40f35f:	mov    al,0x0
  40f361:	add    BYTE PTR [edx],cl
  40f363:	fsubr  QWORD PTR [edx]
  40f365:	add    BYTE PTR [eax],al
  40f367:	add    BYTE PTR [ecx+0x34],al
  40f36a:	add    BYTE PTR [eax],al
  40f36c:	add    al,BYTE PTR [eax]
  40f36e:	add    BYTE PTR [eax],al
  40f370:	pop    ds
  40f371:	add    BYTE PTR [eax],al
  40f373:	add    BYTE PTR [esi],bl
  40f375:	add    BYTE PTR [eax],al
  40f377:	add    BYTE PTR ds:0x13000000,bh
  40f37d:	add    BYTE PTR [eax],al
  40f37f:	add    BYTE PTR [edi],bh
  40f381:	add    BYTE PTR [eax],al
  40f383:	add    DWORD PTR [edx],eax
  40f385:	add    BYTE PTR [eax],al
  40f387:	add    BYTE PTR [edi],al
  40f389:	add    BYTE PTR [eax],al
  40f38b:	add    BYTE PTR [ebx+0x0],cl
  40f38e:	add    BYTE PTR [eax],al
  40f390:	push   edx
  40f391:	add    BYTE PTR [eax],al
  40f393:	add    BYTE PTR [esi],cl
  40f395:	add    BYTE PTR [eax],al
  40f397:	add    BYTE PTR [edi],bh
  40f399:	add    BYTE PTR [eax],al
  40f39b:	add    DWORD PTR [ebx],eax
  40f39d:	xor    BYTE PTR [edx],al
  40f39f:	add    BYTE PTR [eax+eax*1],cl
  40f3a2:	add    BYTE PTR [eax],al
  40f3a4:	add    BYTE PTR [eax],al
  40f3a6:	add    BYTE PTR [eax],al
  40f3a8:	jle    0x40f3fe
  40f3aa:	add    DWORD PTR [eax],eax
  40f3ac:	add    al,0x2
  40f3ae:	sub    ah,bl
  40f3b0:	add    DWORD PTR [eax],eax
  40f3b2:	push   es
  40f3b3:	sub    al,BYTE PTR [ebx]
  40f3b5:	xor    BYTE PTR ds:0x3a00,cl
  40f3bb:	add    BYTE PTR [edi],bl
  40f3bd:	add    DWORD PTR [eax],eax
  40f3bf:	adc    DWORD PTR [edx],edx
  40f3c1:	add    BYTE PTR [edx],al
  40f3c3:	dec    edx
  40f3c4:	add    bl,BYTE PTR [edx]
  40f3c6:	pop    eax
  40f3c7:	dec    ecx
  40f3c8:	add    bl,BYTE PTR [eax+ebx*2]
  40f3cb:	dec    ecx
  40f3cc:	add    bl,BYTE PTR [esi]
  40f3ce:	pop    eax
  40f3cf:	inc    edi
  40f3d0:	add    bl,BYTE PTR [edi]
  40f3d2:	or     DWORD PTR [eax+0x47],ebx
  40f3d5:	add    bl,BYTE PTR [edi]
  40f3d7:	or     bl,BYTE PTR [eax+0x47]
  40f3da:	add    bl,BYTE PTR [edi]
  40f3dc:	or     ebx,DWORD PTR [eax+0x47]
  40f3df:	add    bl,BYTE PTR [edi]
  40f3e1:	or     al,0x58
  40f3e3:	inc    edi
  40f3e4:	add    bl,BYTE PTR [edi]
  40f3e6:	or     eax,0x1f024758
  40f3eb:	push   cs
  40f3ec:	pop    eax
  40f3ed:	inc    edi
  40f3ee:	add    bl,BYTE PTR [edi]
  40f3f0:	addps  xmm0,XMMWORD PTR [edi+0x28]
  40f3f4:	aad    0x0
  40f3f6:	add    BYTE PTR [edx],cl
  40f3f8:	push   es
  40f3f9:	sub    cl,ah
  40f3fb:	int3   
  40f3fc:	or     esi,DWORD PTR [eax]
  40f3fe:	add    al,0x0
  40f400:	push   eax
  40f401:	add    BYTE PTR [eax],al
  40f403:	add    BYTE PTR [ebx],ah
  40f405:	add    DWORD PTR [eax],eax
  40f407:	adc    DWORD PTR [esi],edx
  40f409:	or     bh,BYTE PTR [edi-0x1d]
  40f40c:	add    BYTE PTR [eax],al
  40f40e:	add    al,0x28
  40f410:	ret    
  40f411:	add    BYTE PTR [eax],al
  40f413:	push   es
  40f414:	or     al,0x7f
  40f416:	loopne 0x40f418
  40f418:	add    BYTE PTR [eax+ebp*1],al
  40f41b:	ret    
  40f41c:	add    BYTE PTR [eax],al
  40f41e:	push   es
  40f41f:	or     BYTE PTR [eax],ch
  40f421:	mov    bl,0x0
  40f423:	add    BYTE PTR [edx],cl
  40f425:	or     eax,0x4c280312
  40f42a:	add    BYTE PTR [eax],al
  40f42c:	or     cl,BYTE PTR [edx]
  40f42e:	fimul  WORD PTR [eax+ebp*1]
  40f431:	mov    ebx,0xb0a0000
  40f436:	fiadd  WORD PTR [eax]
  40f438:	pop    es
  40f439:	push   ss
  40f43a:	xor    bl,BYTE PTR [edx]
  40f43c:	push   es
  40f43d:	add    al,BYTE PTR [esi]
  40f43f:	dec    edx
  40f440:	pop    ds
  40f441:	xor    al,0x58
  40f443:	dec    edx
  40f444:	sub    DWORD PTR [eax],edx
  40f446:	add    DWORD PTR [eax],eax
  40f448:	adc    DWORD PTR [ebx],ecx
  40f44a:	push   es
  40f44b:	and    eax,0x4a581e4a
  40f450:	sub    DWORD PTR [edx],edx
  40f452:	add    DWORD PTR [eax],eax
  40f454:	adc    DWORD PTR [esi],esp
  40f456:	pop    es
  40f457:	sub    al,BYTE PTR [ecx+0x1c]
  40f45a:	add    BYTE PTR [eax],al
  40f45c:	add    BYTE PTR [eax],al
  40f45e:	add    BYTE PTR [eax],al
  40f460:	add    al,BYTE PTR [eax]
  40f462:	add    BYTE PTR [eax],al
  40f464:	add    BYTE PTR es:[eax],al
  40f467:	add    BYTE PTR [eax],ch
  40f469:	add    BYTE PTR [eax],al
  40f46b:	add    BYTE PTR [eax],cl
  40f46d:	add    BYTE PTR [eax],al
  40f46f:	add    BYTE PTR [ebp+0x0],bl
  40f472:	add    BYTE PTR [ecx],al
  40f474:	add    esi,DWORD PTR [eax]
  40f476:	add    eax,DWORD PTR [eax]
  40f478:	or     eax,0x0
  40f47d:	add    BYTE PTR [eax],al
  40f47f:	add    BYTE PTR [edx],al
  40f481:	and    eax,0x4a581e4a
  40f486:	sub    DWORD PTR [edx],edx
  40f488:	add    DWORD PTR [eax],eax
  40f48a:	adc    DWORD PTR [esi],esp
  40f48c:	sub    cl,ah
  40f48e:	int3   
  40f48f:	int3   
  40f490:	or     esi,DWORD PTR [eax]
  40f492:	add    al,0x0
  40f494:	xor    eax,0x25000000
  40f499:	add    DWORD PTR [eax],eax
  40f49b:	adc    DWORD PTR [esi],edx
  40f49d:	or     edx,DWORD PTR [edx]
  40f49f:	add    DWORD PTR [eax],ebp
  40f4a1:	les    eax,FWORD PTR [eax]
  40f4a3:	add    BYTE PTR [esi],al
  40f4a5:	or     al,BYTE PTR [esi]
  40f4a7:	push   ss
  40f4a8:	xor    bl,BYTE PTR ds:0x28070312
  40f4ae:	ret    
  40f4af:	add    BYTE PTR [eax],al
  40f4b1:	or     cl,BYTE PTR [ecx]
  40f4b3:	sub    BYTE PTR [eax+eax*1+0x66740a00],bh
  40f4ba:	add    BYTE PTR [eax],al
  40f4bc:	add    DWORD PTR [esi+ebx*8],ecx
  40f4bf:	sysret 
  40f4c1:	sub    ch,al
  40f4c3:	add    BYTE PTR [eax],al
  40f4c5:	push   es
  40f4c6:	fadd   QWORD PTR [esi]
  40f4c8:	sub    BYTE PTR [edx+0x140a0000],bh
  40f4ce:	sub    cl,BYTE PTR [eax]
  40f4d0:	sub    al,BYTE PTR [eax]
  40f4d2:	add    BYTE PTR [eax],al
  40f4d4:	inc    ecx
  40f4d5:	sbb    al,0x0
  40f4d7:	add    BYTE PTR [edx],al
  40f4d9:	add    BYTE PTR [eax],al
  40f4db:	add    BYTE PTR [esi],cl
  40f4dd:	add    BYTE PTR [eax],al
  40f4df:	add    BYTE PTR [esi],dl
  40f4e1:	add    BYTE PTR [eax],al
  40f4e3:	add    BYTE PTR [eax+eax*1],ah
  40f4e6:	add    BYTE PTR [eax],al
  40f4e8:	pop    es
  40f4e9:	add    BYTE PTR [eax],al
  40f4eb:	add    BYTE PTR [edi],bh
  40f4ed:	add    BYTE PTR [eax],al
  40f4ef:	add    DWORD PTR [ebx],ecx
  40f4f1:	xor    BYTE PTR [esi],al
  40f4f3:	add    BYTE PTR [edx+0x0],bl
  40f4f6:	add    BYTE PTR [eax],al
  40f4f8:	sub    DWORD PTR [ecx],eax
  40f4fa:	add    BYTE PTR [ecx],dl
  40f4fc:	jg     0x40f4e2
  40f4fe:	add    BYTE PTR [eax],al
  40f500:	add    al,0x28
  40f502:	ret    
  40f503:	add    BYTE PTR [eax],al
  40f505:	push   es
  40f506:	or     eax,0xe57f
  40f50b:	add    al,0x28
  40f50d:	ret    
  40f50e:	add    BYTE PTR [eax],al
  40f510:	push   es
  40f511:	or     DWORD PTR [eax],ebp
  40f513:	mov    bl,0x0
  40f515:	add    BYTE PTR [edx],cl
  40f517:	adc    eax,DWORD PTR [edx+edx*1]
  40f51a:	add    al,0x28
  40f51c:	dec    esp
  40f51d:	add    BYTE PTR [eax],al
  40f51f:	or     cl,BYTE PTR [edx]
  40f521:	sub    dh,al
  40f523:	add    BYTE PTR [eax],al
  40f525:	push   es
  40f526:	or     al,0x6
  40f528:	or     BYTE PTR [eax],ch
  40f52a:	rol    DWORD PTR [eax],1
  40f52c:	add    BYTE PTR [edx],cl
  40f52e:	add    al,BYTE PTR [ebx]
  40f530:	push   es
  40f531:	dec    edx
  40f532:	pop    ds
  40f533:	and    BYTE PTR [eax+0x4a],bl
  40f536:	sub    DWORD PTR [ecx],edx
  40f538:	add    DWORD PTR [eax],eax
  40f53a:	adc    DWORD PTR [ebx],ecx
  40f53c:	pop    es
  40f53d:	push   ss
  40f53e:	das    
  40f53f:	push   es
  40f540:	pop    es
  40f541:	sub    BYTE PTR [edx-0x21f60000],bh
  40f547:	or     eax,0x1e4a2506
  40f54c:	pop    eax
  40f54d:	dec    edx
  40f54e:	sub    DWORD PTR [edx],edx
  40f550:	add    DWORD PTR [eax],eax
  40f552:	adc    DWORD PTR [esi],esp
  40f554:	fsubr  QWORD PTR [edx]
  40f556:	add    BYTE PTR [eax],al
  40f558:	inc    ecx
  40f559:	sbb    al,0x0
  40f55b:	add    BYTE PTR [edx],al
  40f55d:	add    BYTE PTR [eax],al
  40f55f:	add    BYTE PTR ds:0x27000000,ah
  40f565:	add    BYTE PTR [eax],al
  40f567:	add    BYTE PTR [eax+eax*1+0x0],cl
  40f56b:	add    BYTE PTR ds:0x3f000000,cl
  40f571:	add    BYTE PTR [eax],al
  40f573:	add    DWORD PTR [ebx],eax
  40f575:	xor    BYTE PTR [edx],al
  40f577:	add    BYTE PTR ds:0x0,cl
  40f57d:	add    BYTE PTR [eax],al
  40f57f:	add    BYTE PTR [esi+0x13],bh
  40f582:	add    DWORD PTR [eax],eax
  40f584:	add    al,0x17
  40f586:	add    edx,DWORD PTR ss:[edi]
  40f589:	sub    eax,DWORD PTR [ecx]
  40f58b:	push   ss
  40f58c:	sub    cl,ah
  40f58e:	int3   
  40f58f:	int3   
  40f590:	mov    eax,fs:0x18
  40f596:	mov    eax,DWORD PTR [eax+0x4]
  40f599:	ret    
  40f59a:	int3   
  40f59b:	int3   
  40f59c:	add    esi,DWORD PTR [eax]
  40f59e:	add    DWORD PTR [eax],eax
  40f5a0:	adc    DWORD PTR [eax],eax
  40f5a2:	add    BYTE PTR [eax],al
  40f5a4:	add    BYTE PTR [eax],al
  40f5a6:	add    BYTE PTR [eax],al
  40f5a8:	and    bh,bh
  40f5aa:	(bad)  
  40f5ab:	(bad)  
  40f5ac:	jg     0x40f53a
  40f5ae:	xor    al,0x0
  40f5b0:	add    BYTE PTR [ecx],al
  40f5b2:	sub    cl,al
  40f5b4:	add    BYTE PTR [eax],al
  40f5b6:	or     dl,BYTE PTR [esi]
  40f5b8:	sub    cl,ah
  40f5ba:	int3   
  40f5bb:	int3   
  40f5bc:	add    esi,DWORD PTR [eax]
  40f5be:	add    al,BYTE PTR [eax]
  40f5c0:	inc    esi
  40f5c1:	add    BYTE PTR [eax],al
  40f5c3:	add    BYTE PTR [ebx],ch
  40f5c5:	add    DWORD PTR [eax],eax
  40f5c7:	adc    DWORD PTR [esi-0xe],edi
  40f5ca:	add    BYTE PTR [eax],al
  40f5cc:	add    al,0x18
  40f5ce:	xor    esi,DWORD PTR [edi+edi*2]
  40f5d1:	cld    
  40f5d2:	add    BYTE PTR [eax],al
  40f5d4:	add    al,0xa
  40f5d6:	jg     0x40f5d4
  40f5d8:	add    BYTE PTR [eax],al
  40f5da:	add    al,0x7f
  40f5dc:	repz add BYTE PTR [eax],al
  40f5df:	add    al,0x34
  40f5e1:	sbb    al,BYTE PTR [esi]
  40f5e3:	dec    edx
  40f5e4:	sub    eax,0x581a060e
  40f5e9:	or     al,BYTE PTR [esi]
  40f5eb:	jg     0x40f5e0
  40f5ed:	add    BYTE PTR [eax],al
  40f5ef:	add    al,0x37
  40f5f1:	lock sub ecx,DWORD PTR [eax]
  40f5f4:	adc    eax,0xf280
  40f5f9:	add    al,0x17
  40f5fb:	sub    dl,BYTE PTR [esi]
  40f5fd:	xor    dl,0x0
  40f600:	add    BYTE PTR [esi+edx*1],al
  40f603:	sub    bh,BYTE PTR [esi-0xe]
  40f606:	add    BYTE PTR [eax],al
  40f608:	add    al,0x15
  40f60a:	inc    BYTE PTR [ecx]
  40f60c:	shr    BYTE PTR [edx],cl
  40f60e:	int3   
  40f60f:	int3   
  40f610:	add    esi,DWORD PTR [eax]
  40f612:	add    al,BYTE PTR [eax]
  40f614:	jb     0x40f616
  40f616:	add    BYTE PTR [eax],al
  40f618:	sub    al,0x1
  40f61a:	add    BYTE PTR [ecx],dl
  40f61c:	jle    0x40f607
  40f61e:	add    BYTE PTR [eax],al
  40f620:	add    al,0x18
  40f622:	xor    esp,DWORD PTR [eax+0x7f]
  40f625:	adc    al,BYTE PTR [ecx]
  40f627:	add    BYTE PTR [ebx+ecx*1],al
  40f62a:	jg     0x40f63e
  40f62c:	add    DWORD PTR [eax],eax
  40f62e:	add    al,0x7f
  40f630:	push   cs
  40f631:	add    DWORD PTR [eax],eax
  40f633:	add    al,0x34
  40f635:	sbb    al,BYTE PTR [edi]
  40f637:	dec    edx
  40f638:	sub    eax,0x581a070e
  40f63d:	or     eax,DWORD PTR [edi]
  40f63f:	jg     0x40f64f
  40f641:	add    DWORD PTR [eax],eax
  40f643:	add    al,0x37
  40f645:	lock sub ecx,DWORD PTR [eax]
  40f648:	adc    eax,0xe980
  40f64d:	add    al,0x17
  40f64f:	sub    bh,BYTE PTR [edi+0x11]
  40f652:	add    DWORD PTR [eax],eax
  40f654:	add    al,0xa
  40f656:	jg     0x40f669
  40f658:	add    DWORD PTR [eax],eax
  40f65a:	add    al,0x7f
  40f65c:	adc    al,0x1
  40f65e:	add    BYTE PTR [esp+esi*1],al
  40f661:	sbb    al,BYTE PTR [esi]
  40f663:	dec    edx
  40f664:	sub    eax,0x581a060e
  40f669:	or     al,BYTE PTR [esi]
  40f66b:	jg     0x40f681
  40f66d:	add    DWORD PTR [eax],eax
  40f66f:	add    al,0x37
  40f671:	lock sub ecx,DWORD PTR [eax]
  40f674:	adc    eax,0xe980
  40f679:	add    al,0x17
  40f67b:	sub    dl,BYTE PTR [esi]
  40f67d:	sub    cl,0x0
  40f680:	add    BYTE PTR [esi+edx*1],al
  40f683:	sub    bh,BYTE PTR [esi-0x17]
  40f686:	add    BYTE PTR [eax],al
  40f688:	add    al,0x15
  40f68a:	inc    BYTE PTR [ecx]
  40f68c:	shr    BYTE PTR [edx],cl
  40f68e:	int3   
  40f68f:	int3   
  40f690:	add    esi,DWORD PTR [eax]
  40f692:	add    DWORD PTR [eax],eax
  40f694:	sub    al,0x0
  40f696:	add    BYTE PTR [eax],al
  40f698:	pop    ss
  40f699:	add    BYTE PTR [eax],al
  40f69b:	adc    DWORD PTR [eax],ebp
  40f69d:	retf   0x0
  40f6a0:	push   es
  40f6a1:	sub    al,0x7
  40f6a3:	jle    0x40f68f
  40f6a5:	add    BYTE PTR [eax],al
  40f6a7:	add    al,0x2c
  40f6a9:	adc    eax,0xcb28
  40f6ae:	push   es
  40f6af:	sub    al,0x12
  40f6b1:	jle    0x40f6a4
  40f6b3:	add    BYTE PTR [eax],al
  40f6b5:	add    al,0x2d
  40f6b7:	or     edi,DWORD PTR [esi+0xf]
  40f6ba:	add    DWORD PTR [eax],eax
  40f6bc:	add    al,0x2d
  40f6be:	add    al,0x17
  40f6c0:	or     ch,BYTE PTR [ebx]
  40f6c2:	add    dl,BYTE PTR [esi]
  40f6c4:	or     al,BYTE PTR [esi]
  40f6c6:	shr    BYTE PTR [edx],cl
  40f6c8:	add    esi,DWORD PTR [eax]
  40f6ca:	add    DWORD PTR [eax],eax
  40f6cc:	push   es
  40f6cd:	add    BYTE PTR [eax],al
  40f6cf:	add    BYTE PTR [eax],al
  40f6d1:	add    BYTE PTR [eax],al
  40f6d3:	add    BYTE PTR [esi-0x18],bh
  40f6d6:	add    BYTE PTR [eax],al
  40f6d8:	add    al,0x2a
  40f6da:	int3   
  40f6db:	int3   
  40f6dc:	add    esi,DWORD PTR [eax]
  40f6de:	add    al,BYTE PTR [eax]
  40f6e0:	or     al,0x0
  40f6e2:	add    BYTE PTR [eax],al
  40f6e4:	add    BYTE PTR [eax],al
  40f6e6:	add    BYTE PTR [eax],al
  40f6e8:	jle    0x40f6e9
  40f6ea:	add    BYTE PTR [eax],al
  40f6ec:	add    al,0x16
  40f6ee:	sub    bh,al
  40f6f0:	add    BYTE PTR [eax],al
  40f6f2:	push   es
  40f6f3:	sub    al,BYTE PTR [ebx]
  40f6f5:	xor    BYTE PTR [eax],al
  40f6f7:	add    BYTE PTR [esi],al
  40f6f9:	add    BYTE PTR [eax],al
  40f6fb:	add    BYTE PTR [eax],al
  40f6fd:	add    BYTE PTR [eax],al
  40f6ff:	add    BYTE PTR [eax],ch
  40f701:	sti    
  40f702:	add    BYTE PTR [eax],al
  40f704:	push   es
  40f705:	sub    cl,ah
  40f707:	int3   
  40f708:	add    esi,DWORD PTR [eax]
  40f70a:	add    DWORD PTR [eax],eax
  40f70c:	sub    eax,DWORD PTR [eax]
  40f70e:	add    BYTE PTR [eax],al
  40f710:	add    BYTE PTR [eax],al
  40f712:	add    BYTE PTR [eax],al
  40f714:	sub    al,bh
  40f716:	add    BYTE PTR [eax],al
  40f718:	push   es
  40f719:	push   ss
  40f71a:	sub    dl,0x0
  40f71d:	add    BYTE PTR [esi+edi*2],al
  40f720:	out    dx,al
  40f721:	add    BYTE PTR [eax],al
  40f723:	add    al,0x2c
  40f725:	adc    DWORD PTR [eax],ebp
  40f727:	movs   DWORD PTR es:[edi],DWORD PTR ds:[esi]
  40f728:	add    DWORD PTR [eax],eax
  40f72a:	push   es
  40f72b:	push   ss
  40f72c:	or     BYTE PTR [edi],0x1
  40f72f:	add    BYTE PTR [esi+edx*1],al
  40f732:	sub    dh,0x0
  40f735:	add    BYTE PTR [esi+edx*1],al
  40f738:	xor    cl,0x0
  40f73b:	add    BYTE PTR [esi+edx*1],al
  40f73e:	sub    cl,ah
  40f740:	add    esi,DWORD PTR [eax]
  40f742:	add    al,BYTE PTR [eax]
  40f744:	sub    BYTE PTR [eax],al
  40f746:	add    BYTE PTR [eax],al
  40f748:	add    BYTE PTR [eax],al
  40f74a:	add    BYTE PTR [eax],al
  40f74c:	sub    ch,cl
  40f74e:	add    BYTE PTR [eax],al
  40f750:	push   es
  40f751:	sub    al,0x20
  40f753:	sub    al,dl
  40f755:	add    BYTE PTR [eax],al
  40f757:	or     ch,BYTE PTR [eax]
  40f759:	iret   
  40f75a:	add    BYTE PTR [eax],al
  40f75c:	or     ch,BYTE PTR [ecx+ecx*1]
  40f75f:	push   ss
  40f760:	sub    dh,bl
  40f762:	add    BYTE PTR [eax],al
  40f764:	push   es
  40f765:	sub    ecx,DWORD PTR es:[ebx]
  40f768:	jle    0x40f76a
  40f76a:	add    DWORD PTR [eax],eax
  40f76c:	add    al,0x16
  40f76e:	sub    bh,al
  40f770:	add    BYTE PTR [eax],al
  40f772:	push   es
  40f773:	sub    al,BYTE PTR [ebx]
  40f775:	xor    BYTE PTR [edx],al
  40f777:	add    BYTE PTR [edi],ch
  40f779:	add    BYTE PTR [eax],al
  40f77b:	add    BYTE PTR [eax],al
  40f77d:	add    BYTE PTR [eax],al
  40f77f:	add    BYTE PTR [esi-0x14],bh
  40f782:	add    BYTE PTR [eax],al
  40f784:	add    al,0x2c
  40f786:	daa    
  40f787:	jg     0x40f76f
  40f789:	add    BYTE PTR [eax],al
  40f78b:	add    al,0x17
  40f78d:	sub    BYTE PTR [ebp+0x2d0a0000],ch
  40f793:	sbb    bh,BYTE PTR [edi-0x15]
  40f796:	add    BYTE PTR [eax],al
  40f798:	add    al,0x28
  40f79a:	stos   DWORD PTR es:[edi],eax
  40f79b:	add    BYTE PTR [eax],al
  40f79d:	or     dl,BYTE PTR [esi]
  40f79f:	inc    BYTE PTR [ecx]
  40f7a1:	sub    ch,bl
  40f7a3:	add    BYTE PTR [eax],al
  40f7a5:	push   es
  40f7a6:	shr    BYTE PTR [eax*1+0xdf28],cl
  40f7ad:	push   es
  40f7ae:	sub    cl,ah
  40f7b0:	add    esi,DWORD PTR [eax]
  40f7b2:	add    al,BYTE PTR [eax]
  40f7b4:	sbb    BYTE PTR [eax],al
  40f7b6:	add    BYTE PTR [eax],al
  40f7b8:	add    DWORD PTR cs:[eax],eax
  40f7bb:	adc    DWORD PTR [edx],edx
  40f7bd:	add    BYTE PTR [edx],al
  40f7bf:	dec    edx
  40f7c0:	sub    bl,al
  40f7c2:	add    BYTE PTR [eax],al
  40f7c4:	or     al,BYTE PTR [esi]
  40f7c6:	sub    BYTE PTR [esi+0xb0a0000],dh
  40f7cc:	adc    al,BYTE PTR [ecx]
  40f7ce:	sub    BYTE PTR [eax+0x2a0a0000],bh
  40f7d4:	add    esi,DWORD PTR [eax]
  40f7d6:	add    al,BYTE PTR [eax]
  40f7d8:	sbb    al,BYTE PTR [eax]
  40f7da:	add    BYTE PTR [eax],al
  40f7dc:	add    DWORD PTR cs:[eax],eax
  40f7df:	adc    DWORD PTR [edx],edx
  40f7e1:	add    BYTE PTR [edx],al
  40f7e3:	dec    edx
  40f7e4:	sub    bl,al
  40f7e6:	add    BYTE PTR [eax],al
  40f7e8:	or     al,BYTE PTR [esi]
  40f7ea:	sub    BYTE PTR [esi+0xb0a0000],dh
  40f7f0:	adc    al,BYTE PTR [ecx]
  40f7f2:	add    ebp,DWORD PTR [eax]
  40f7f4:	mov    ecx,0x20a0000
  40f7f9:	sub    cl,ah
  40f7fb:	int3   
  40f7fc:	add    esi,DWORD PTR [eax]
  40f7fe:	add    al,BYTE PTR [eax]
  40f800:	sbb    eax,DWORD PTR [eax]
  40f802:	add    BYTE PTR [eax],al
  40f804:	add    DWORD PTR cs:[eax],eax
  40f807:	adc    DWORD PTR [edx],edx
  40f809:	add    BYTE PTR [edx],al
  40f80b:	dec    edx
  40f80c:	sub    bl,al
  40f80e:	add    BYTE PTR [eax],al
  40f810:	or     al,BYTE PTR [esi]
  40f812:	sub    BYTE PTR [esi+0xb0a0000],dh
  40f818:	adc    al,BYTE PTR [ecx]
  40f81a:	sub    BYTE PTR [ebp+0x20a0000],dh
  40f820:	push   ss
  40f821:	push   esp
  40f822:	sub    al,BYTE PTR [eax]
  40f824:	add    esi,DWORD PTR [eax]
  40f826:	add    al,BYTE PTR [eax]
  40f828:	pop    ss
  40f829:	add    BYTE PTR [eax],al
  40f82b:	add    BYTE PTR [ecx],dh
  40f82d:	add    DWORD PTR [eax],eax
  40f82f:	adc    DWORD PTR [eax+ebp*1],edx
  40f832:	mov    ah,0x0
  40f834:	add    BYTE PTR [edx],cl
  40f836:	sub    BYTE PTR [edi+0xa0a0000],dh
  40f83c:	add    dl,BYTE PTR [edx]
  40f83e:	add    BYTE PTR [eax],ch
  40f840:	dec    esp
  40f841:	add    BYTE PTR [eax],al
  40f843:	or     dl,BYTE PTR [edx+eax*1+0x2a]
  40f847:	int3   
  40f848:	add    esi,DWORD PTR [eax]
  40f84a:	add    eax,DWORD PTR [eax]
  40f84c:	adc    BYTE PTR [eax],al
  40f84e:	add    BYTE PTR [eax],al
  40f850:	add    BYTE PTR [eax],al
  40f852:	add    BYTE PTR [eax],al
  40f854:	add    al,BYTE PTR [ebx]
  40f856:	add    al,0x28
  40f858:	aam    0x1
  40f85a:	add    BYTE PTR [esi],al
  40f85c:	add    al,BYTE PTR ds:0x1d928
  40f862:	push   es
  40f863:	sub    al,BYTE PTR [ebx]
  40f865:	xor    BYTE PTR [ebx],al
  40f867:	add    BYTE PTR [esi],cl
  40f869:	add    BYTE PTR [eax],al
  40f86b:	add    BYTE PTR [eax],al
  40f86d:	add    BYTE PTR [eax],al
  40f86f:	add    BYTE PTR [edx+0x35],dh
  40f872:	push   es
  40f873:	add    BYTE PTR [eax+0x2],dh
  40f876:	add    esi,DWORD PTR [ebx-0x29]
  40f879:	add    DWORD PTR [eax],eax
  40f87b:	push   es
  40f87c:	jp     0x40f8a8
  40f87e:	int3   
  40f87f:	int3   
  40f880:	add    esi,DWORD PTR [eax]
  40f882:	add    al,BYTE PTR [eax]
  40f884:	sub    al,BYTE PTR [eax]
  40f886:	add    BYTE PTR [eax],al
  40f888:	xor    al,BYTE PTR [ecx]
  40f88a:	add    BYTE PTR [ecx],dl
  40f88c:	add    ch,BYTE PTR [eax]
  40f88e:	(bad)  
  40f88f:	add    BYTE PTR [eax],al
  40f891:	or     al,BYTE PTR [edx]
  40f893:	inc    BYTE PTR [esi]
  40f895:	fild   WORD PTR [ecx]
  40f897:	add    BYTE PTR [esi],al
  40f899:	jae    0x40f828
  40f89b:	add    BYTE PTR [eax],al
  40f89d:	or     cl,BYTE PTR [edx]
  40f89f:	sub    al,dl
  40f8a1:	add    BYTE PTR [eax],al
  40f8a3:	or     al,BYTE PTR [esi]
  40f8a5:	outs   dx,DWORD PTR ds:[esi]
  40f8a6:	rol    DWORD PTR [eax],cl
  40f8a8:	add    BYTE PTR [edx],cl
  40f8aa:	sub    al,dl
  40f8ac:	add    BYTE PTR [eax],al
  40f8ae:	or     al,BYTE PTR [esi]
  40f8b0:	outs   dx,DWORD PTR ds:[esi]
  40f8b1:	rol    BYTE PTR [eax],cl
  40f8b3:	add    BYTE PTR [edx],cl
  40f8b5:	sub    cl,ah
  40f8b7:	int3   
  40f8b8:	add    esi,DWORD PTR [eax]
  40f8ba:	add    al,BYTE PTR [eax]
  40f8bc:	sub    BYTE PTR [eax],al
  40f8be:	add    BYTE PTR [eax],al
  40f8c0:	add    BYTE PTR [eax],al
  40f8c2:	add    BYTE PTR [eax],al
  40f8c4:	add    dh,BYTE PTR [edx+0x55]
  40f8c7:	or     BYTE PTR [eax],al
  40f8c9:	jo     0x40f8f3
  40f8cb:	out    0x0,eax
  40f8cd:	add    BYTE PTR [esi],al
  40f8cf:	es pop ss
  40f8d1:	xor    al,0x0
  40f8d4:	add    BYTE PTR [edi+edi*2],al
  40f8d7:	cli    
  40f8d8:	add    BYTE PTR [eax],al
  40f8da:	add    al,0x7f
  40f8dc:	hlt    
  40f8dd:	add    BYTE PTR [eax],al
  40f8df:	add    al,0x28
  40f8e1:	add    DWORD PTR [ecx],eax
  40f8e3:	add    BYTE PTR [esi],al
  40f8e5:	sbb    BYTE PTR [eax+0x40000f0],al
  40f8eb:	sub    al,BYTE PTR [ebx]
  40f8ed:	xor    BYTE PTR [edx],al
  40f8ef:	add    BYTE PTR [edx],dl
  40f8f1:	add    BYTE PTR [eax],al
  40f8f3:	add    BYTE PTR [eax],al
  40f8f5:	add    BYTE PTR [eax],al
  40f8f7:	add    BYTE PTR [edx],al
  40f8f9:	jb     0x40f8ca
  40f8fb:	or     BYTE PTR [eax],al
  40f8fd:	jo     0x40f927
  40f8ff:	out    0x0,eax
  40f901:	add    BYTE PTR [esi],al
  40f903:	es sub dh,cl
  40f906:	add    BYTE PTR [eax],al
  40f908:	push   es
  40f909:	sub    cl,ah
  40f90b:	int3   
  40f90c:	add    esi,DWORD PTR [eax]
  40f90e:	add    al,BYTE PTR [eax]
  40f910:	add    DWORD PTR [eax],0x0
  40f916:	add    BYTE PTR [eax],al
  40f918:	add    dh,BYTE PTR [edx+0x7a]
  40f91b:	or     DWORD PTR [eax],eax
  40f91d:	jo     0x40f947
  40f91f:	out    0x0,eax
  40f921:	add    BYTE PTR [esi],al
  40f923:	sub    BYTE PTR es:[eax+0x17060001],ch
  40f92a:	xor    cl,0x0
  40f92d:	add    BYTE PTR [eax+ebp*1],al
  40f930:	enter  0x0,0x6
  40f934:	sub    eax,0x1a72805
  40f939:	add    BYTE PTR [esi],al
  40f93b:	jle    0x40f94c
  40f93d:	add    DWORD PTR [eax],eax
  40f93f:	add    al,0x17
  40f941:	xor    eax,DWORD PTR ds:0x1a728
  40f947:	push   es
  40f948:	jle    0x40f959
  40f94a:	add    DWORD PTR [eax],eax
  40f94c:	add    al,0x2d
  40f94e:	dec    ecx
  40f94f:	pop    ss
  40f950:	sub    ch,0x0
  40f953:	add    BYTE PTR [edi+edx*1],al
  40f956:	or     BYTE PTR [edi],0x1
  40f959:	add    BYTE PTR [edi+edi*2],al
  40f95c:	adc    al,BYTE PTR [ecx]
  40f95e:	add    BYTE PTR [edi+edi*2],al
  40f961:	push   cs
  40f962:	add    DWORD PTR [eax],eax
  40f964:	add    al,0x28
  40f966:	inc    BYTE PTR [eax]
  40f968:	add    BYTE PTR [esi],al
  40f96a:	sub    al,0xb
  40f96c:	add    ch,BYTE PTR [eax]
  40f96e:	out    0x0,al
  40f970:	add    BYTE PTR [esi],al
  40f972:	sub    al,al
  40f974:	add    BYTE PTR [eax],al
  40f976:	push   es
  40f977:	jg     0x40f98a
  40f979:	add    DWORD PTR [eax],eax
  40f97b:	add    al,0x7f
  40f97d:	adc    al,0x1
  40f97f:	add    BYTE PTR [eax+ebp*1],al
  40f982:	inc    DWORD PTR [eax]
  40f984:	add    BYTE PTR [esi],al
  40f986:	sbb    BYTE PTR [eax+0x400010f],al
  40f98c:	pop    ss
  40f98d:	sub    dh,0x0
  40f990:	add    BYTE PTR [eax+ebx*1],al
  40f993:	sub    ch,0x0
  40f996:	add    BYTE PTR [edx+ebp*1],al
  40f999:	int3   
  40f99a:	int3   
  40f99b:	int3   
  40f99c:	add    esi,DWORD PTR [eax]
  40f99e:	add    al,BYTE PTR [eax]
  40f9a0:	xor    al,0x0
  40f9a2:	add    BYTE PTR [eax],al
  40f9a4:	add    BYTE PTR [eax],al
  40f9a6:	add    BYTE PTR [eax],al
  40f9a8:	add    dh,BYTE PTR [edx-0xc]
  40f9ab:	or     DWORD PTR [eax],eax
  40f9ad:	jo     0x40f9d7
  40f9af:	out    0x0,eax
  40f9b1:	add    BYTE PTR [esi],al
  40f9b3:	es pop ss
  40f9b5:	and    cl,0x0
  40f9b8:	add    BYTE PTR [eax+ebp*1],al
  40f9bb:	stc    
  40f9bc:	add    BYTE PTR [eax],al
  40f9be:	push   es
  40f9bf:	es jg  0x40f9be
  40f9c2:	add    BYTE PTR [eax],al
  40f9c4:	add    al,0x7f
  40f9c6:	repz add BYTE PTR [eax],al
  40f9c9:	add    al,0x28
  40f9cb:	add    DWORD PTR [ecx],eax
  40f9cd:	add    BYTE PTR [esi],al
  40f9cf:	sbb    BYTE PTR [eax+0x40000e1],al
  40f9d5:	pop    ss
  40f9d6:	sub    dl,0x0
  40f9d9:	add    BYTE PTR [edx+ebp*1],al
  40f9dc:	add    esi,DWORD PTR [eax]
  40f9de:	add    al,BYTE PTR [eax]
  40f9e0:	add    BYTE PTR cs:[eax],al
  40f9e3:	add    BYTE PTR [eax],al
  40f9e5:	add    BYTE PTR [eax],al
  40f9e7:	add    BYTE PTR [edx],al
  40f9e9:	jb     0x40fa5b
  40f9eb:	or     al,BYTE PTR [eax]
  40f9ed:	jo     0x40fa17
  40f9ef:	out    0x0,eax
  40f9f1:	add    BYTE PTR [esi],al
  40f9f3:	es pop ss
  40f9f5:	and    bh,0x0
  40f9f8:	add    BYTE PTR [eax+ebp*1],al
  40f9fb:	cli    
  40f9fc:	add    BYTE PTR [eax],al
  40f9fe:	push   es
  40f9ff:	es jg  0x40f9f8
  40fa02:	add    BYTE PTR [eax],al
  40fa04:	add    al,0x7f
  40fa06:	test   DWORD PTR [eax],0x1280400
  40fa0c:	add    DWORD PTR [eax],eax
  40fa0e:	push   es
  40fa0f:	sbb    BYTE PTR [eax+0x40000e7],al
  40fa15:	sub    cl,ah
  40fa17:	int3   
  40fa18:	add    esi,DWORD PTR [eax]
  40fa1a:	add    al,BYTE PTR [eax]
  40fa1c:	push   ds
  40fa1d:	add    BYTE PTR [eax],al
  40fa1f:	add    BYTE PTR [eax],al
  40fa21:	add    BYTE PTR [eax],al
  40fa23:	add    BYTE PTR [edx],al
  40fa25:	jb     0x40fa17
  40fa27:	or     al,BYTE PTR [eax]
  40fa29:	jo     0x40fa53
  40fa2b:	out    0x0,eax
  40fa2d:	add    BYTE PTR [esi],al
  40fa2f:	es adc al,0xfe
  40fa32:	push   es
  40fa33:	loopne 0x40fa35
  40fa35:	add    BYTE PTR [esi],al
  40fa37:	jae    0x40f9c6
  40fa39:	add    BYTE PTR [eax],al
  40fa3b:	or     ch,BYTE PTR [eax]
  40fa3d:	ret    0x0
  40fa40:	push   es
  40fa41:	sub    cl,ah
  40fa43:	int3   
  40fa44:	or     esi,DWORD PTR [eax]
  40fa46:	add    al,0x0
  40fa48:	jecxz  0x40fa4a
  40fa4a:	add    BYTE PTR [eax],al
  40fa4c:	xor    al,0x1
  40fa4e:	add    BYTE PTR [ecx],dl
  40fa50:	sub    al,dl
  40fa52:	add    BYTE PTR [eax],al
  40fa54:	or     ch,BYTE PTR [eax]
  40fa56:	iret   
  40fa57:	add    BYTE PTR [eax],al
  40fa59:	or     al,BYTE PTR [eax+0x40000ef]
  40fa5f:	jle    0x40fa50
  40fa61:	add    BYTE PTR [eax],al
  40fa63:	add    al,0x2c
  40fa65:	push   es
  40fa66:	pop    ss
  40fa67:	sub    al,0x0
  40fa6a:	add    BYTE PTR [eax+ebp*1],al
  40fa6d:	movs   BYTE PTR es:[edi],BYTE PTR ds:[esi]
  40fa6e:	add    DWORD PTR [eax],eax
  40fa70:	push   es
  40fa71:	adc    eax,DWORD PTR [edi]
  40fa73:	push   ss
  40fa74:	adc    eax,DWORD PTR [esi]
  40fa76:	push   ss
  40fa77:	or     dl,BYTE PTR [esi]
  40fa79:	adc    eax,DWORD PTR ds:0xbe28
  40fa7f:	or     al,BYTE PTR [esi]
  40fa81:	sub    eax,0x1641de52
  40fa86:	sub    ah,al
  40fa88:	add    BYTE PTR [eax],al
  40fa8a:	or     dl,BYTE PTR [ebx]
  40fa8c:	add    al,0x11
  40fa8e:	add    al,0x13
  40fa90:	or     edx,DWORD PTR [ecx]
  40fa92:	pop    es
  40fa93:	sub    BYTE PTR [esi+0x0],al
  40fa96:	add    BYTE PTR [edx],cl
  40fa98:	or     eax,0x7f0a1309
  40fa9d:	adc    BYTE PTR [ecx],al
  40fa9f:	add    BYTE PTR [ecx+ecx*1],al
  40faa2:	adc    DWORD PTR [eax+ebp*1],eax
  40faa5:	scas   al,BYTE PTR es:[edi]
  40faa6:	add    BYTE PTR [eax],al
  40faa8:	or     cl,BYTE PTR [eax+ecx*1]
  40faab:	adc    ecx,DWORD PTR [ecx]
  40faad:	or     BYTE PTR [eax],ch
  40faaf:	dec    ecx
  40fab0:	add    BYTE PTR [eax],al
  40fab2:	or     cl,BYTE PTR [ebx]
  40fab4:	pop    es
  40fab5:	sub    eax,0x2b0a1704
  40faba:	or     al,BYTE PTR [edi]
  40fabc:	adc    DWORD PTR [edi],eax
  40fabe:	xor    eax,DWORD PTR ds:0x17061317
  40fac4:	or     bl,ah
  40fac6:	push   es
  40fac7:	sub    eax,0x3e8200a
  40facc:	add    BYTE PTR [eax],al
  40face:	sub    BYTE PTR [esi+0x2b060001],ah
  40fad4:	stos   DWORD PTR es:[edi],eax
  40fad5:	add    ch,BYTE PTR [eax]
  40fad7:	(bad)  
  40fad8:	add    BYTE PTR [eax],al
  40fada:	push   es
  40fadb:	jle    0x40facc
  40fadd:	add    BYTE PTR [eax],al
  40fadf:	add    al,0x2c
  40fae1:	push   cs
  40fae2:	add    ch,BYTE PTR [eax]
  40fae4:	fadd   DWORD PTR [eax]
  40fae6:	add    BYTE PTR [esi],al
  40fae8:	add    ch,BYTE PTR [eax]
  40faea:	fld    DWORD PTR [eax]
  40faec:	add    BYTE PTR [esi],al
  40faee:	sub    ecx,DWORD PTR [edx]
  40faf0:	sub    ah,cl
  40faf2:	add    BYTE PTR [eax],al
  40faf4:	push   es
  40faf5:	sub    al,0x3
  40faf7:	pop    ss
  40faf8:	adc    eax,DWORD PTR ds:0x6111ade
  40fafe:	sub    eax,0xc4281615
  40fb03:	add    BYTE PTR [eax],al
  40fb05:	or     dl,BYTE PTR [ebx]
  40fb07:	or     BYTE PTR [edi+0x10],bh
  40fb0a:	add    DWORD PTR [eax],eax
  40fb0c:	add    al,0x11
  40fb0e:	or     BYTE PTR [eax],ch
  40fb10:	lods   al,BYTE PTR ds:[esi]
  40fb11:	add    BYTE PTR [eax],al
  40fb13:	or     ah,BYTE PTR [esi]
  40fb15:	fcom   QWORD PTR [ecx]
  40fb17:	add    eax,0x2802062c
  40fb1c:	xlat   BYTE PTR ds:[ebx]
  40fb1d:	add    BYTE PTR [eax],al
  40fb1f:	push   es
  40fb20:	add    ch,BYTE PTR [eax]
  40fb22:	fiadd  DWORD PTR [eax]
  40fb24:	add    BYTE PTR [esi],al
  40fb26:	pop    ss
  40fb27:	sub    ah,0x0
  40fb2a:	add    BYTE PTR [edx+eax*1],al
  40fb2d:	sub    bl,bl
  40fb2f:	add    BYTE PTR [eax],al
  40fb31:	push   es
  40fb32:	sub    al,BYTE PTR [eax]
  40fb34:	inc    ecx
  40fb35:	xor    al,0x0
  40fb37:	add    BYTE PTR [edx],al
  40fb39:	add    BYTE PTR [eax],al
  40fb3b:	add    BYTE PTR [ebx],dh
  40fb3d:	add    BYTE PTR [eax],al
  40fb3f:	add    BYTE PTR [edx],al
  40fb41:	add    BYTE PTR [eax],al
  40fb43:	add    BYTE PTR ds:0x41000000,dh
  40fb49:	add    BYTE PTR [eax],al
  40fb4b:	add    BYTE PTR [edi],bh
  40fb4d:	add    BYTE PTR [eax],al
  40fb4f:	add    DWORD PTR [edx],eax
  40fb51:	add    BYTE PTR [eax],al
  40fb53:	add    BYTE PTR [eax],dh
  40fb55:	add    BYTE PTR [eax],al
  40fb57:	add    BYTE PTR [eax+eax*1+0x0],bh
  40fb5b:	add    BYTE PTR [eax+eax*1+0x1a0000],ch
  40fb62:	add    BYTE PTR [eax],al
  40fb64:	aas    
  40fb65:	add    BYTE PTR [eax],al
  40fb67:	add    DWORD PTR [ebx],ecx
  40fb69:	xor    BYTE PTR [eax+eax*1],al
  40fb6c:	xor    eax,DWORD PTR [eax]
  40fb6e:	add    BYTE PTR [eax],al
  40fb70:	xor    eax,0x7f110001
  40fb75:	jmp    0x40fb77
  40fb77:	add    BYTE PTR [eax+ebp*1],al
  40fb7a:	stos   DWORD PTR es:[edi],eax
  40fb7b:	add    BYTE PTR [eax],al
  40fb7d:	or     dl,BYTE PTR [esi]
  40fb7f:	inc    BYTE PTR [ecx]
  40fb81:	ror    BYTE PTR [ebx],cl
  40fb83:	sub    ch,bl
  40fb85:	add    BYTE PTR [eax],al
  40fb87:	push   es
  40fb88:	pop    es
  40fb89:	sub    al,0x5
  40fb8b:	sub    bh,bl
  40fb8d:	add    BYTE PTR [eax],al
  40fb8f:	push   es
  40fb90:	ficom  WORD PTR [edx+ecx*1]
  40fb93:	add    eax,DWORD PTR [esi]
  40fb95:	sub    BYTE PTR [edi-0x21fa0000],bh
  40fb9b:	or     cl,BYTE PTR [ebx+eax*1]
  40fb9e:	adc    al,0x28
  40fba0:	mov    edi,0xde060000
  40fba5:	add    BYTE PTR [edx],ch
  40fba7:	add    BYTE PTR [ecx+0x34],al
	...
  40fbb2:	add    BYTE PTR [eax],al
  40fbb4:	push   ds
  40fbb5:	add    BYTE PTR [eax],al
  40fbb7:	add    BYTE PTR [esi],bl
  40fbb9:	add    BYTE PTR [eax],al
  40fbbb:	add    BYTE PTR [edx],cl
  40fbbd:	add    BYTE PTR [eax],al
  40fbbf:	add    BYTE PTR [ebp+0x0],bl
  40fbc2:	add    BYTE PTR [ecx],al
	...
  40fbcc:	push   ds
  40fbcd:	add    BYTE PTR [eax],al
  40fbcf:	add    BYTE PTR [eax],ch
  40fbd1:	add    BYTE PTR [eax],al
  40fbd3:	add    BYTE PTR [edx],cl
  40fbd5:	add    BYTE PTR [eax],al
  40fbd7:	add    BYTE PTR [ecx+0x0],ah
  40fbda:	add    BYTE PTR [ecx],al
  40fbdc:	add    esi,DWORD PTR [eax]
  40fbde:	add    DWORD PTR [eax],eax
  40fbe0:	or     DWORD PTR [eax],eax
  40fbe2:	add    BYTE PTR [eax],al
  40fbe4:	add    BYTE PTR [eax],al
  40fbe6:	add    BYTE PTR [eax],al
  40fbe8:	add    ch,BYTE PTR [eax]
  40fbea:	jmp    0x2646fbef
  40fbef:	add    ch,BYTE PTR [edx]
  40fbf1:	add    BYTE PTR [eax],al
  40fbf3:	add    BYTE PTR [ebx],al
  40fbf5:	xor    BYTE PTR [ecx],al
  40fbf7:	add    BYTE PTR [edi],al
  40fbf9:	add    BYTE PTR [eax],al
  40fbfb:	add    BYTE PTR [eax],al
  40fbfd:	add    BYTE PTR [eax],al
  40fbff:	add    BYTE PTR [edx],al
  40fc01:	sub    al,ch
  40fc03:	add    BYTE PTR [eax],al
  40fc05:	push   es
  40fc06:	sub    al,BYTE PTR [eax]
  40fc08:	or     esi,DWORD PTR [eax]
  40fc0a:	add    al,0x0
  40fc0c:	arpl   WORD PTR [eax],ax
  40fc0e:	add    BYTE PTR [eax],al
  40fc10:	add    DWORD PTR ss:[eax],eax
  40fc13:	adc    DWORD PTR [esi],edx
  40fc15:	or     ch,BYTE PTR [eax]
  40fc17:	mov    esi,0x20a0000
  40fc1c:	jb     0x40fba3
  40fc1e:	or     eax,DWORD PTR [eax]
  40fc20:	jo     0x40fc4a
  40fc22:	out    0x0,eax
  40fc24:	add    BYTE PTR [esi],al
  40fc26:	sub    BYTE PTR es:[esi-0x21f60000],bh
  40fc2d:	push   cs
  40fc2e:	jg     0x40fc1b
  40fc30:	add    BYTE PTR [eax],al
  40fc32:	add    al,0x28
  40fc34:	stos   BYTE PTR es:[edi],al
  40fc35:	add    BYTE PTR [eax],al
  40fc37:	or     ah,BYTE PTR [esi]
  40fc39:	pop    ss
  40fc3a:	or     bl,ah
  40fc3c:	add    ch,BYTE PTR [eax]
  40fc3e:	fadd   QWORD PTR [eax]
  40fc40:	add    BYTE PTR [esi],al
  40fc42:	fidiv  WORD PTR [edx]
  40fc44:	or     eax,DWORD PTR [esi]
  40fc46:	sub    al,0x7
  40fc48:	add    al,BYTE PTR [edi]
  40fc4a:	sub    cl,ah
  40fc4c:	add    BYTE PTR [eax],al
  40fc4e:	push   es
  40fc4f:	add    ch,BYTE PTR [eax]
  40fc51:	out    0x0,al
  40fc53:	add    BYTE PTR [esi],al
  40fc55:	pop    es
  40fc56:	sub    cl,al
  40fc58:	add    BYTE PTR [eax],al
  40fc5a:	push   es
  40fc5b:	ficomp WORD PTR [ecx]
  40fc5d:	or     al,0x6
  40fc5f:	sub    al,0x7
  40fc61:	add    dl,BYTE PTR [eax+ebp*1]
  40fc64:	loope  0x40fc66
  40fc66:	add    BYTE PTR [esi],al
  40fc68:	add    ch,BYTE PTR [eax]
  40fc6a:	out    0x0,al
  40fc6c:	add    BYTE PTR [esi],al
  40fc6e:	adc    al,0x28
  40fc70:	rol    DWORD PTR [eax],0x0
  40fc73:	push   es
  40fc74:	fiadd  WORD PTR [eax]
  40fc76:	sub    al,BYTE PTR [eax]
  40fc78:	inc    ecx
  40fc79:	dec    esp
  40fc7a:	add    BYTE PTR [eax],al
  40fc7c:	add    al,BYTE PTR [eax]
  40fc7e:	add    BYTE PTR [eax],al
  40fc80:	sbb    BYTE PTR [eax],al
  40fc82:	add    BYTE PTR [eax],al
  40fc84:	add    al,BYTE PTR [eax]
  40fc86:	add    BYTE PTR [eax],al
  40fc88:	sbb    al,BYTE PTR [eax]
  40fc8a:	add    BYTE PTR [eax],al
  40fc8c:	push   cs
  40fc8d:	add    BYTE PTR [eax],al
  40fc8f:	add    BYTE PTR [edi],bh
  40fc91:	add    BYTE PTR [eax],al
  40fc93:	add    DWORD PTR [eax],eax
  40fc95:	add    BYTE PTR [eax],al
  40fc97:	add    BYTE PTR [edi],al
  40fc99:	add    BYTE PTR [eax],al
  40fc9b:	add    BYTE PTR [ecx],ch
  40fc9d:	add    BYTE PTR [eax],al
  40fc9f:	add    BYTE PTR [eax],dh
  40fca1:	add    BYTE PTR [eax],al
  40fca3:	add    BYTE PTR [ecx],bl
  40fca5:	add    BYTE PTR [eax],al
  40fca7:	add    BYTE PTR [ebp+0x0],bl
  40fcaa:	add    BYTE PTR [ecx],al
  40fcac:	add    BYTE PTR [eax],al
  40fcae:	add    BYTE PTR [eax],al
  40fcb0:	pop    es
  40fcb1:	add    BYTE PTR [eax],al
  40fcb3:	add    BYTE PTR [ecx],ch
  40fcb5:	add    BYTE PTR [eax],al
  40fcb7:	add    BYTE PTR [ecx+0x0],cl
  40fcba:	add    BYTE PTR [eax],al
  40fcbc:	sbb    DWORD PTR [eax],eax
  40fcbe:	add    BYTE PTR [eax],al
  40fcc0:	popa   
  40fcc1:	add    BYTE PTR [eax],al
  40fcc3:	add    DWORD PTR [ebx],ecx
  40fcc5:	xor    BYTE PTR [edx],al
  40fcc7:	add    BYTE PTR [edi],ah
  40fcc9:	add    BYTE PTR [eax],al
  40fccb:	add    BYTE PTR [eax],bh
  40fccd:	add    DWORD PTR [eax],eax
  40fccf:	adc    DWORD PTR [edx],edx
  40fcd1:	add    BYTE PTR [eax],ch
  40fcd3:	loop   0x40fcd5
  40fcd5:	add    BYTE PTR [esi],al
  40fcd7:	adc    al,BYTE PTR es:[eax]
  40fcda:	sub    ah,ah
  40fcdc:	add    BYTE PTR [eax],al
  40fcde:	push   es
  40fcdf:	fimul  WORD PTR [esi]
  40fce1:	inc    BYTE PTR [esi]
  40fce3:	jecxz  0x40fce5
  40fce5:	add    BYTE PTR [esi],al
  40fce7:	adc    al,BYTE PTR [eax]
  40fce9:	sub    dl,ch
  40fceb:	add    BYTE PTR [eax],al
  40fced:	push   es
  40fcee:	fcom   QWORD PTR [edx]
  40fcf0:	add    BYTE PTR [eax],ch
  40fcf2:	jecxz  0x40fcf4
  40fcf4:	add    BYTE PTR [esi],al
  40fcf6:	sub    al,BYTE PTR [eax]
  40fcf8:	inc    ecx
  40fcf9:	sbb    al,0x0
  40fcfb:	add    BYTE PTR [eax+eax*1],al
  40fcfe:	add    BYTE PTR [eax],al
  40fd00:	or     BYTE PTR [eax],al
  40fd02:	add    BYTE PTR [eax],al
  40fd04:	or     DWORD PTR [eax],eax
  40fd06:	add    BYTE PTR [eax],al
  40fd08:	adc    DWORD PTR [eax],eax
  40fd0a:	add    BYTE PTR [eax],al
  40fd0c:	push   cs
  40fd0d:	add    BYTE PTR [eax],al
  40fd0f:	add    BYTE PTR [edi],bh
  40fd11:	add    BYTE PTR [eax],al
  40fd13:	add    DWORD PTR [ebx],eax
  40fd15:	xor    BYTE PTR [ecx],al
  40fd17:	add    BYTE PTR ds:0x0,dl
  40fd1d:	add    BYTE PTR [eax],al
  40fd1f:	add    BYTE PTR [ebx-0x4e],dh
  40fd22:	add    BYTE PTR [eax],al
  40fd24:	or     al,BYTE PTR [eax+0x4000153]
  40fd2a:	jae    0x40fd0a
  40fd2c:	add    DWORD PTR [eax],eax
  40fd2e:	push   es
  40fd2f:	adc    BYTE PTR [ecx+eax*1+0x0],0x4
  40fd34:	sub    bh,bh
  40fd36:	and    eax,0x4300cc
  40fd3b:	jmp    DWORD PTR ds:0x4300d0
  40fd41:	int3   
  40fd42:	int3   
  40fd43:	int3   
  40fd44:	or     esi,DWORD PTR [eax]
  40fd46:	add    al,BYTE PTR [eax]
  40fd48:	sbb    al,BYTE PTR [eax]
  40fd4a:	add    BYTE PTR [eax],al
  40fd4c:	add    BYTE PTR [eax],al
  40fd4e:	add    BYTE PTR [eax],al
  40fd50:	add    eax,DWORD PTR [edx]
  40fd52:	sub    DWORD PTR [edx],edi
  40fd54:	add    DWORD PTR [eax],eax
  40fd56:	adc    esi,ebx
  40fd58:	adc    BYTE PTR [esi],ah
  40fd5a:	sub    BYTE PTR [ecx],dl
  40fd5c:	add    BYTE PTR [eax],al
  40fd5e:	or     ch,BYTE PTR [eax]
  40fd60:	test   eax,0xfe060001
  40fd65:	adc    DWORD PTR [esi],esp
  40fd67:	fiadd  WORD PTR [eax]
  40fd69:	sub    al,BYTE PTR [eax]
  40fd6b:	add    BYTE PTR [ecx+0x1c],al
  40fd6e:	add    BYTE PTR [eax],al
  40fd70:	add    DWORD PTR [eax],eax
  40fd72:	add    BYTE PTR [eax],al
  40fd74:	add    BYTE PTR [eax],al
  40fd76:	add    BYTE PTR [eax],al
  40fd78:	or     DWORD PTR [eax],eax
  40fd7a:	add    BYTE PTR [eax],al
  40fd7c:	push   ss
  40fd7d:	add    BYTE PTR [eax],al
  40fd7f:	add    BYTE PTR [ebx],al
  40fd81:	add    BYTE PTR [eax],al
  40fd83:	add    BYTE PTR [ecx],cl
  40fd85:	add    BYTE PTR [eax],al
  40fd87:	add    BYTE PTR [ebx],al
  40fd89:	xor    BYTE PTR [edx],al
  40fd8b:	add    BYTE PTR [ebx],dl
  40fd8d:	add    BYTE PTR [eax],al
  40fd8f:	add    BYTE PTR [eax],al
  40fd91:	add    BYTE PTR [eax],al
  40fd93:	add    BYTE PTR [edx],al
  40fd95:	dec    edx
  40fd96:	dec    edx
  40fd97:	and    BYTE PTR [ebx+0x73],ah
  40fd9a:	ins    DWORD PTR es:[edi],dx
  40fd9b:	loopne 0x40fdcb
  40fd9d:	add    dl,BYTE PTR [esi]
  40fd9f:	sub    ch,BYTE PTR [eax]
  40fda1:	stos   BYTE PTR es:[edi],al
  40fda2:	add    DWORD PTR [eax],eax
  40fda4:	push   es
  40fda5:	push   ss
  40fda6:	sub    cl,ah
  40fda8:	or     esi,DWORD PTR [eax]
  40fdaa:	add    al,BYTE PTR [eax]
  40fdac:	sub    eax,DWORD PTR [eax]
  40fdae:	add    BYTE PTR [eax],al
  40fdb0:	add    BYTE PTR es:[eax],al
  40fdb3:	adc    DWORD PTR [esi],edx
  40fdb5:	or     al,BYTE PTR [esi]
  40fdb7:	add    al,0x2e
  40fdb9:	adc    al,BYTE PTR [edx]
  40fdbb:	add    ebx,DWORD PTR [ecx+0x10]
  40fdbe:	add    BYTE PTR [edx],al
  40fdc0:	add    eax,0x13a29
  40fdc5:	adc    DWORD PTR [esi],eax
  40fdc7:	pop    ss
  40fdc8:	pop    eax
  40fdc9:	or     ch,BYTE PTR [ebx]
  40fdcb:	jmp    0x11:0x282610de
  40fdd2:	add    BYTE PTR [edx],cl
  40fdd4:	sub    ah,ch
  40fdd6:	add    BYTE PTR [eax],al
  40fdd8:	push   es
  40fdd9:	(bad)  
  40fdda:	adc    DWORD PTR [esi],esp
  40fddc:	fiadd  WORD PTR [eax]
  40fdde:	sub    al,BYTE PTR [eax]
  40fde0:	inc    ecx
  40fde1:	sbb    al,0x0
  40fde3:	add    BYTE PTR [ecx],al
  40fde5:	add    BYTE PTR [eax],al
  40fde7:	add    BYTE PTR [eax],al
  40fde9:	add    BYTE PTR [eax],al
  40fdeb:	add    BYTE PTR [edx],bl
  40fded:	add    BYTE PTR [eax],al
  40fdef:	add    BYTE PTR [edi],ah
  40fdf1:	add    BYTE PTR [eax],al
  40fdf3:	add    BYTE PTR [ebx],al
  40fdf5:	add    BYTE PTR [eax],al
  40fdf7:	add    BYTE PTR [edx],bl
  40fdf9:	add    BYTE PTR [eax],al
  40fdfb:	add    BYTE PTR [ebx],cl
  40fdfd:	xor    BYTE PTR [eax+eax*1],al
  40fe00:	xor    al,BYTE PTR [eax]
  40fe02:	add    BYTE PTR [eax],al
  40fe04:	sbb    eax,DWORD PTR [ecx]
  40fe06:	add    BYTE PTR [ecx],dl
  40fe08:	push   ss
  40fe09:	or     al,BYTE PTR [ebx]
  40fe0b:	add    al,0x5a
  40fe0d:	add    bl,BYTE PTR [eax+0x10]
  40fe10:	add    BYTE PTR [esp+eax*1],al
  40fe13:	pop    ss
  40fe14:	pop    ecx
  40fe15:	adc    BYTE PTR [edx],al
  40fe17:	push   ss
  40fe18:	ss push cs
  40fe1a:	add    al,BYTE PTR [ebx]
  40fe1c:	pop    ecx
  40fe1d:	adc    BYTE PTR [eax],al
  40fe1f:	add    al,BYTE PTR ds:0x13a29
  40fe25:	adc    DWORD PTR [ebx],ebp
  40fe27:	jmp    0xe1f0843
  40fe2c:	push   es
  40fe2d:	sub    eax,0x4030209
  40fe32:	add    eax,0xed28
  40fe37:	push   es
  40fe38:	fsubr  QWORD PTR [edx]
  40fe3a:	add    BYTE PTR [eax],al
  40fe3c:	inc    ecx
  40fe3d:	sbb    al,0x0
  40fe3f:	add    BYTE PTR [edx],al
  40fe41:	add    BYTE PTR [eax],al
  40fe43:	add    BYTE PTR [ecx],cl
  40fe45:	add    BYTE PTR [eax],al
  40fe47:	add    BYTE PTR [ebx],bl
  40fe49:	add    BYTE PTR [eax],al
  40fe4b:	add    BYTE PTR [eax+eax*1],ah
  40fe4e:	add    BYTE PTR [eax],al
  40fe50:	or     eax,0x21000000
  40fe55:	add    BYTE PTR [eax],al
  40fe57:	add    DWORD PTR [ebx],eax
  40fe59:	xor    BYTE PTR [edx],al
  40fe5b:	add    BYTE PTR [ecx],ah
  40fe5d:	add    BYTE PTR [eax],al
  40fe5f:	add    BYTE PTR [ecx],dh
  40fe61:	add    DWORD PTR [eax],eax
  40fe63:	adc    DWORD PTR [esi+0x4],edi
  40fe66:	add    DWORD PTR [eax],eax
  40fe68:	add    al,0x2c
  40fe6a:	sbb    BYTE PTR [edx],dl
  40fe6c:	add    BYTE PTR [esi+0x4],bh
  40fe6f:	add    DWORD PTR [eax],eax
  40fe71:	add    al,0x28
  40fe73:	ret    
  40fe74:	add    BYTE PTR [eax],al
  40fe76:	or     al,BYTE PTR [esi]
  40fe78:	sub    dh,bl
  40fe7a:	add    BYTE PTR [eax],al
  40fe7c:	or     cl,BYTE PTR [ecx+esi*2+0x2a010000]
  40fe83:	adc    al,0x2a
  40fe85:	int3   
  40fe86:	int3   
  40fe87:	int3   
  40fe88:	add    esi,DWORD PTR [eax]
  40fe8a:	add    al,BYTE PTR [eax]
  40fe8c:	inc    ecx
  40fe8d:	add    BYTE PTR [eax],al
  40fe8f:	add    BYTE PTR [edi],bh
  40fe91:	add    DWORD PTR [eax],eax
  40fe93:	adc    DWORD PTR [eax],ebp
  40fe95:	out    dx,al
  40fe96:	add    BYTE PTR [eax],al
  40fe98:	push   es
  40fe99:	or     al,BYTE PTR [esi]
  40fe9b:	sub    eax,0xb428022b
  40fea0:	add    BYTE PTR [eax],al
  40fea2:	or     cl,BYTE PTR [ecx+esi*2+0xa010000]
  40fea9:	push   es
  40feaa:	jns    0x40ff1d
  40feac:	add    BYTE PTR [eax],al
  40feae:	add    DWORD PTR [ecx+0x71],esi
  40feb1:	add    BYTE PTR [eax],al
  40feb3:	add    DWORD PTR [eax],ebp
  40feb5:	fild   WORD PTR [eax]
  40feb7:	add    BYTE PTR [edx],cl
  40feb9:	or     edx,DWORD PTR [edx]
  40febb:	add    DWORD PTR [eax],ebp
  40febd:	dec    esp
  40febe:	add    BYTE PTR [eax],al
  40fec0:	or     al,BYTE PTR [eax+0x4000104]
  40fec6:	sub    ecx,DWORD PTR [esi+eax*1]
  40fec9:	jns    0x40ff3c
  40fecb:	add    BYTE PTR [eax],al
  40fecd:	add    DWORD PTR [edx],eax
  40fecf:	sub    BYTE PTR [ecx+0x2a0a0000],bh
  40fed5:	int3   
  40fed6:	int3   
  40fed7:	int3   
  40fed8:	add    esi,DWORD PTR [eax]
  40feda:	add    DWORD PTR [eax],eax
  40fedc:	pop    ss
  40fedd:	add    BYTE PTR [eax],al
  40fedf:	add    BYTE PTR [eax+0x1],al
  40fee2:	add    BYTE PTR [ecx],dl
  40fee4:	sub    dh,ch
  40fee6:	add    BYTE PTR [eax],al
  40fee8:	push   es
  40fee9:	or     al,BYTE PTR [esi]
  40feeb:	sub    al,0xc
  40feed:	push   es
  40feee:	jns    0x40ff61
  40fef0:	add    BYTE PTR [eax],al
  40fef2:	add    DWORD PTR [eax],ebp
  40fef4:	mov    eax,0x2a0a0000
  40fef9:	adc    al,0x2a
  40fefb:	int3   
  40fefc:	add    esi,DWORD PTR [eax]
  40fefe:	add    DWORD PTR [eax],eax
  40ff00:	sbb    eax,DWORD PTR [eax]
  40ff02:	add    BYTE PTR [eax],al
  40ff04:	inc    eax
  40ff05:	add    DWORD PTR [eax],eax
  40ff07:	adc    DWORD PTR [eax],ebp
  40ff09:	out    dx,al
  40ff0a:	add    BYTE PTR [eax],al
  40ff0c:	push   es
  40ff0d:	or     al,BYTE PTR [esi]
  40ff0f:	sub    al,0x11
  40ff11:	push   es
  40ff12:	jns    0x40ff85
  40ff14:	add    BYTE PTR [eax],al
  40ff16:	add    DWORD PTR [eax],ebp
  40ff18:	mov    ch,0x0
  40ff1a:	add    BYTE PTR [edx],cl
  40ff1c:	push   ss
  40ff1d:	add    BYTE PTR [ecx+eax*1],0x0
  40ff21:	add    al,0x2a
  40ff23:	int3   
  40ff24:	add    esi,DWORD PTR [eax]
  40ff26:	add    al,BYTE PTR [eax]
  40ff28:	push   cs
  40ff29:	add    BYTE PTR [eax],al
  40ff2b:	add    BYTE PTR [eax],al
  40ff2d:	add    BYTE PTR [eax],al
  40ff2f:	add    BYTE PTR [eax],ch
  40ff31:	icebp  
  40ff32:	add    BYTE PTR [eax],al
  40ff34:	push   es
  40ff35:	adc    al,0x33
  40ff37:	add    edx,DWORD PTR [esi]
  40ff39:	sub    eax,DWORD PTR [ecx]
  40ff3b:	pop    ss
  40ff3c:	shr    BYTE PTR [edx],cl
  40ff3e:	int3   
  40ff3f:	int3   
  40ff40:	add    esi,DWORD PTR [eax]
  40ff42:	add    al,BYTE PTR [eax]
  40ff44:	sbb    DWORD PTR [eax],eax
  40ff46:	add    BYTE PTR [eax],al
  40ff48:	add    BYTE PTR [eax],al
  40ff4a:	add    BYTE PTR [eax],al
  40ff4c:	jle    0x40ff53
  40ff4e:	add    DWORD PTR [eax],eax
  40ff50:	add    al,0x17
  40ff52:	pop    ecx
  40ff53:	add    BYTE PTR ds:0x7e040001,0x5
  40ff5a:	add    DWORD PTR [eax],eax
  40ff5c:	add    al,0x2d
  40ff5e:	add    eax,0xf228
  40ff63:	push   es
  40ff64:	sub    cl,ah
  40ff66:	int3   
  40ff67:	int3   
  40ff68:	add    esi,DWORD PTR [eax]
  40ff6a:	add    BYTE PTR [eax],al
  40ff6c:	push   es
  40ff6d:	add    BYTE PTR [eax],al
  40ff6f:	add    BYTE PTR [eax],al
  40ff71:	add    BYTE PTR [eax],al
  40ff73:	add    BYTE PTR [eax],ch
  40ff75:	cmc    
  40ff76:	add    BYTE PTR [eax],al
  40ff78:	push   es
  40ff79:	sub    cl,ah
  40ff7b:	int3   
  40ff7c:	add    esi,DWORD PTR [eax]
  40ff7e:	add    eax,DWORD PTR [eax]
  40ff80:	xchg   edi,eax
  40ff81:	add    BYTE PTR [eax],al
  40ff83:	add    BYTE PTR [ecx+eax*1+0x0],al
  40ff87:	adc    DWORD PTR [esi+0x2],edi
  40ff8a:	add    DWORD PTR [eax],eax
  40ff8c:	add    al,0x39
  40ff8e:	mov    WORD PTR [eax],es
  40ff90:	add    BYTE PTR [eax],al
  40ff92:	jle    0x40ff95
  40ff94:	add    DWORD PTR [eax],eax
  40ff96:	add    al,0x28
  40ff98:	cld    
  40ff99:	add    BYTE PTR [eax],al
  40ff9b:	push   es
  40ff9c:	or     edi,DWORD PTR [esi+0x6]
  40ff9f:	add    DWORD PTR [eax],eax
  40ffa1:	add    al,0x28
  40ffa3:	cld    
  40ffa4:	add    BYTE PTR [eax],al
  40ffa6:	push   es
  40ffa7:	or     al,BYTE PTR [edi]
  40ffa9:	adc    eax,0x2c076d2e
  40ffae:	push   0x6
  40ffb0:	sub    al,0x67
  40ffb2:	pop    es
  40ffb3:	adc    eax,DWORD PTR ds:0x6041306
  40ffb9:	sbb    bl,BYTE PTR [ecx+0xa]
  40ffbc:	push   es
  40ffbd:	pop    es
  40ffbe:	aaa    
  40ffbf:	dec    edx
  40ffc0:	push   es
  40ffc1:	dec    edx
  40ffc2:	push   ss
  40ffc3:	sub    ch,bh
  40ffc5:	add    BYTE PTR [eax],al
  40ffc7:	push   es
  40ffc8:	cs out dx,al
  40ffca:	push   es
  40ffcb:	dec    edx
  40ffcc:	sub    ah,bh
  40ffce:	add    BYTE PTR [eax],al
  40ffd0:	push   es
  40ffd1:	push   es
  40ffd2:	push   ss
  40ffd3:	sub    ch,bh
  40ffd5:	add    BYTE PTR [eax],al
  40ffd7:	push   es
  40ffd8:	push   esp
  40ffd9:	sub    DWORD PTR ds:0x7e110001,edi
  40ffdf:	add    DWORD PTR [ecx],eax
  40ffe1:	add    BYTE PTR [eax+ebp*1],al
  40ffe4:	cld    
  40ffe5:	add    BYTE PTR [eax],al
  40ffe7:	push   es
  40ffe8:	or     eax,0x1067e
  40ffed:	add    al,0x28
  40ffef:	cld    
  40fff0:	add    BYTE PTR [eax],al
  40fff2:	push   es
  40fff3:	or     al,0x11
  40fff5:	add    eax,0x11053309
  40fffa:	add    al,0x8
  40fffc:	cs mov edx,0x9051309
  410002:	or     ecx,DWORD PTR [eax]
  410004:	adc    eax,DWORD PTR [eax+ecx*1]
  410007:	or     ch,BYTE PTR [ebx]
  410009:	scas   al,BYTE PTR es:[edi]
  41000a:	adc    al,BYTE PTR [esi]
  41000c:	pop    es
  41000d:	sub    bl,al
  41000f:	add    BYTE PTR [eax],al
  410011:	or     dl,BYTE PTR [ecx]
  410013:	push   es
  410014:	sub    BYTE PTR [edi+0x0],al
  410017:	add    BYTE PTR [edx],cl
  410019:	sub    bh,dh
  41001b:	add    BYTE PTR [eax],al
  41001d:	push   es
  41001e:	sub    cl,ah
  410020:	or     esi,DWORD PTR [eax]
  410022:	add    al,BYTE PTR [eax]
  410024:	lods   eax,DWORD PTR ds:[esi]
  410025:	add    BYTE PTR [eax],al
  410027:	add    BYTE PTR [ebp+0x1],al
  41002a:	add    BYTE PTR [ecx],dl
  41002c:	jle    0x410035
  41002e:	add    DWORD PTR [eax],eax
  410030:	add    al,0x39
  410032:	mov    ds:0x7e000000,al
  410037:	or     BYTE PTR [ecx],al
  410039:	add    BYTE PTR [eax+ebp*1],al
  41003c:	cld    
  41003d:	add    BYTE PTR [eax],al
  41003f:	push   es
  410040:	or     edi,DWORD PTR [esi+0x3]
  410043:	add    DWORD PTR [eax],eax
  410045:	add    al,0x28
  410047:	cld    
  410048:	add    BYTE PTR [eax],al
  41004a:	push   es
  41004b:	or     al,BYTE PTR [edi]
  41004d:	adc    eax,0x2c07712e
  410052:	outs   dx,BYTE PTR ds:[esi]
  410053:	push   es
  410054:	sub    al,0x6b
  410056:	push   ss
  410057:	adc    eax,DWORD PTR [esi]
  410059:	pop    es
  41005a:	adc    eax,DWORD PTR ds:0x16041306
  410060:	adc    ecx,DWORD PTR [ecx]
  410062:	push   ss
  410063:	adc    ecx,DWORD PTR [eax]
  410065:	push   es
  410066:	sbb    bl,BYTE PTR [ecx+0xa]
  410069:	push   es
  41006a:	pop    es
  41006b:	aaa    
  41006c:	or     al,0x6
  41006e:	dec    edx
  41006f:	push   ss
  410070:	sub    ch,bh
  410072:	add    BYTE PTR [eax],al
  410074:	push   es
  410075:	xor    eax,DWORD PTR [edx]
  410077:	sub    ebp,esp
  410079:	push   es
  41007a:	pop    es
  41007b:	aaa    
  41007c:	inc    esp
  41007d:	push   es
  41007e:	dec    edx
  41007f:	sub    ah,bh
  410081:	add    BYTE PTR [eax],al
  410083:	push   es
  410084:	adc    eax,DWORD PTR [esi]
  410086:	push   es
  410087:	push   ss
  410088:	sub    ch,bh
  41008a:	add    BYTE PTR [eax],al
  41008c:	push   es
  41008d:	push   esp
  41008e:	adc    DWORD PTR [esi],eax
  410090:	sub    DWORD PTR ds:0x7e110001,edi
  410096:	or     BYTE PTR [ecx],al
  410098:	add    BYTE PTR [eax+ebp*1],al
  41009b:	cld    
  41009c:	add    BYTE PTR [eax],al
  41009e:	push   es
  41009f:	or     eax,0x1037e
  4100a4:	add    al,0x28
  4100a6:	cld    
  4100a7:	add    BYTE PTR [eax],al
  4100a9:	push   es
  4100aa:	or     al,0x11
  4100ac:	add    eax,0x11053309
  4100b1:	add    al,0x8
  4100b3:	or     cl,BYTE PTR cs:[ecx]
  4100b6:	adc    eax,DWORD PTR ds:0x13080b09
  4100bc:	add    al,0x8
  4100be:	or     ch,BYTE PTR [ebx]
  4100c0:	sahf   
  4100c1:	ficom  WORD PTR ds:0x28070712
  4100c7:	ret    
  4100c8:	add    BYTE PTR [eax],al
  4100ca:	or     dl,BYTE PTR [ecx]
  4100cc:	pop    es
  4100cd:	sub    BYTE PTR [edi+0x0],al
  4100d0:	add    BYTE PTR [edx],cl
  4100d2:	sub    bh,dh
  4100d4:	add    BYTE PTR [eax],al
  4100d6:	push   es
  4100d7:	fsubr  QWORD PTR [edx]
  4100d9:	add    BYTE PTR [eax],al
  4100db:	add    BYTE PTR [ecx+0x1c],al
  4100de:	add    BYTE PTR [eax],al
  4100e0:	add    al,BYTE PTR [eax]
  4100e2:	add    BYTE PTR [eax],al
  4100e4:	and    BYTE PTR [eax],al
  4100e6:	add    BYTE PTR [eax],al
  4100e8:	ja     0x4100ea
  4100ea:	add    BYTE PTR [eax],al
  4100ec:	xchg   edi,eax
  4100ed:	add    BYTE PTR [eax],al
  4100ef:	add    BYTE PTR ds:0x2c000000,dl
  4100f5:	add    BYTE PTR [eax],al
  4100f7:	add    DWORD PTR [ebx],eax
  4100f9:	xor    BYTE PTR [ecx],al
  4100fb:	add    BYTE PTR ds:0x0,cl
  410101:	add    BYTE PTR [eax],al
  410103:	add    BYTE PTR [esi],dl
  410105:	add    BYTE PTR [ecx+eax*1],0x0
  410109:	add    al,0x2
  41010b:	sub    al,dh
  41010d:	add    BYTE PTR [eax],al
  41010f:	push   es
  410110:	sub    cl,ah
  410112:	int3   
  410113:	int3   
  410114:	add    esi,DWORD PTR [eax]
  410116:	add    al,BYTE PTR [eax]
  410118:	and    al,0x0
  41011a:	add    BYTE PTR [eax],al
  41011c:	add    BYTE PTR [eax],al
  41011e:	add    BYTE PTR [eax],al
  410120:	sub    bl,dh
  410122:	add    BYTE PTR [eax],al
  410124:	push   es
  410125:	sub    eax,0xb27310
  41012a:	add    BYTE PTR [edx],cl
  41012c:	sub    bh,ch
  41012e:	add    BYTE PTR [eax],al
  410130:	push   es
  410131:	push   ss
  410132:	add    BYTE PTR ds:0x7e040001,0x5
  410139:	add    DWORD PTR [eax],eax
  41013b:	add    al,0x17
  41013d:	pop    eax
  41013e:	add    BYTE PTR ds:0x2a040001,0x3
  410145:	xor    BYTE PTR [ecx],al
  410147:	add    BYTE PTR [ebx],cl
  410149:	add    BYTE PTR [eax],al
  41014b:	add    BYTE PTR [eax],al
  41014d:	add    BYTE PTR [eax],al
  41014f:	add    BYTE PTR [eax],ch
  410151:	hlt    
  410152:	add    BYTE PTR [eax],al
  410154:	push   es
  410155:	sub    bl,dh
  410157:	add    BYTE PTR [eax],al
  410159:	push   es
  41015a:	sub    cl,ah
  41015c:	add    esi,DWORD PTR [eax]
  41015e:	add    eax,DWORD PTR [eax]
  410160:	cmp    DWORD PTR [eax],eax
  410162:	add    BYTE PTR [eax],al
  410164:	xor    DWORD PTR [ecx],eax
  410166:	add    BYTE PTR [ecx],dl
  410168:	push   ss
  410169:	sub    dh,dh
  41016b:	add    BYTE PTR [eax],al
  41016d:	push   es
  41016e:	pop    ss
  41016f:	xor    ebp,DWORD PTR [edi]
  410171:	and    BYTE PTR es:[eax+0x28000000],al
  410178:	loopne 0x41017a
  41017a:	add    BYTE PTR [edx],cl
  41017c:	or     dl,BYTE PTR [edx]
  41017e:	add    BYTE PTR [eax],ch
  410180:	dec    esp
  410181:	add    BYTE PTR [eax],al
  410183:	or     ch,BYTE PTR [eax]
  410185:	std    
  410186:	add    BYTE PTR [eax],al
  410188:	push   es
  410189:	add    BYTE PTR [ecx],0x1
  41018c:	add    BYTE PTR [esi+edi*2],al
  41018f:	add    DWORD PTR [ecx],eax
  410191:	add    BYTE PTR [eax+eax*4],al
  410194:	push   es
  410195:	add    DWORD PTR [eax],eax
  410197:	add    al,0x1f
  410199:	and    BYTE PTR [eax+0x4000102],al
  41019f:	pop    ss
  4101a0:	sub    cl,ah
  4101a2:	int3   
  4101a3:	int3   
  4101a4:	add    esi,DWORD PTR [eax]
  4101a6:	add    al,BYTE PTR [eax]
  4101a8:	aaa    
  4101a9:	add    BYTE PTR [eax],al
  4101ab:	add    BYTE PTR [ecx],dh
  4101ad:	add    DWORD PTR [eax],eax
  4101af:	adc    DWORD PTR [eax],ebp
  4101b1:	test   BYTE PTR [eax],0x0
  4101b4:	push   es
  4101b5:	pop    ss
  4101b6:	xor    ebp,DWORD PTR ds:0x8020
  4101bc:	add    BYTE PTR [eax],ch
  4101be:	loopne 0x4101c0
  4101c0:	add    BYTE PTR [edx],cl
  4101c2:	or     dl,BYTE PTR [edx]
  4101c4:	add    BYTE PTR [eax],ch
  4101c6:	dec    esp
  4101c7:	add    BYTE PTR [eax],al
  4101c9:	or     ch,BYTE PTR [eax]
  4101cb:	std    
  4101cc:	add    BYTE PTR [eax],al
  4101ce:	push   es
  4101cf:	or     BYTE PTR [eax],0x1
  4101d2:	add    BYTE PTR [esi+edi*2],al
  4101d5:	or     BYTE PTR [ecx],al
  4101d7:	add    BYTE PTR [eax+eax*4],al
  4101da:	add    eax,DWORD PTR [ecx]
  4101dc:	add    BYTE PTR [edi+ebx*1],al
  4101df:	and    BYTE PTR [eax+0x4000107],al
  4101e5:	pop    ss
  4101e6:	sub    cl,ah
  4101e8:	add    esi,DWORD PTR [eax]
  4101ea:	add    al,BYTE PTR [eax]
  4101ec:	and    DWORD PTR [eax],eax
  4101ee:	add    BYTE PTR [eax],al
  4101f0:	dec    ecx
  4101f1:	add    DWORD PTR [eax],eax
  4101f3:	adc    DWORD PTR [esi],edx
  4101f5:	or     al,BYTE PTR [edx]
  4101f7:	add    esi,DWORD PTR [ecx+ebx*1]
  4101fa:	push   es
  4101fb:	sub    eax,0xb4a0216
  410200:	pop    es
  410201:	sub    al,0x7
  410203:	pop    es
  410204:	sub    DWORD PTR [esi+0x1],eax
  410207:	add    BYTE PTR [ecx],dl
  410209:	or     al,BYTE PTR [edx]
  41020b:	sbb    bl,BYTE PTR [eax+0x10]
  41020e:	add    BYTE PTR [edx],al
  410210:	add    esi,DWORD PTR [edi]
  410212:	out    0x6,eax
  410214:	sub    cl,ah
  410216:	int3   
  410217:	int3   
  410218:	add    esi,DWORD PTR [eax]
  41021a:	add    al,BYTE PTR [eax]
  41021c:	sbb    al,BYTE PTR [eax]
  41021e:	add    BYTE PTR [eax],al
  410220:	add    BYTE PTR es:[eax],al
  410223:	adc    DWORD PTR [edx],eax
  410225:	add    esi,DWORD PTR [edx*1+0x60a4a02]
  41022c:	sub    al,0x6
  41022e:	push   es
  41022f:	sub    DWORD PTR [ebx+0x2110000],esi
  410235:	sbb    bl,BYTE PTR [eax+0x10]
  410238:	add    BYTE PTR [edx],al
  41023a:	add    esi,DWORD PTR [edi]
  41023c:	jmp    0x410268
  41023e:	int3   
  41023f:	int3   
  410240:	add    esi,DWORD PTR [eax]
  410242:	add    DWORD PTR [eax],eax
  410244:	adc    eax,0x0
  410249:	add    BYTE PTR [eax],al
  41024b:	add    al,dl
  41024d:	mov    dh,0x0
  41024f:	add    BYTE PTR [edx],al
  410251:	sub    ah,dl
  410253:	add    BYTE PTR [eax],al
  410255:	or     ch,BYTE PTR [edi-0x1d]
  410258:	add    BYTE PTR [eax],al
  41025a:	or     ch,BYTE PTR [eax]
  41025c:	in     al,0x0
  41025e:	add    BYTE PTR [edx],cl
  410260:	sub    cl,ah
  410262:	int3   
  410263:	int3   
  410264:	add    esi,DWORD PTR [eax]
  410266:	add    al,BYTE PTR [eax]
  410268:	pop    ds
  410269:	add    BYTE PTR [eax],al
  41026b:	add    BYTE PTR [ecx+eax*1+0x0],cl
  41026f:	adc    DWORD PTR [eax],ebp
  410271:	add    BYTE PTR [ecx],al
  410273:	add    BYTE PTR [esi],al
  410275:	or     al,0x12
  410277:	add    al,BYTE PTR [edx]
  410279:	sub    cl,ah
  41027b:	add    BYTE PTR [eax],al
  41027d:	or     cl,BYTE PTR [ebx]
  41027f:	adc    al,BYTE PTR [ecx]
  410281:	sub    dl,ah
  410283:	add    BYTE PTR [eax],al
  410285:	or     cl,BYTE PTR [edx]
  410287:	adc    al,BYTE PTR [eax]
  410289:	sub    BYTE PTR [eax+eax*1+0x0],cl
  41028d:	or     ch,BYTE PTR [edx]
  41028f:	int3   
  410290:	add    esi,DWORD PTR [eax]
  410292:	add    al,BYTE PTR [eax]
  410294:	and    BYTE PTR [eax],al
  410296:	add    BYTE PTR [eax],al
  410298:	add    BYTE PTR es:[eax],al
  41029b:	adc    DWORD PTR [edx],eax
  41029d:	add    esi,DWORD PTR [ebx+ebx*1]
  4102a0:	add    cl,BYTE PTR [edx+0xa]
  4102a3:	push   es
  4102a4:	sub    al,0xc
  4102a6:	push   es
  4102a7:	sub    BYTE PTR [edx],al
  4102a9:	add    DWORD PTR [eax],eax
  4102ab:	push   es
  4102ac:	sub    DWORD PTR [edi+0x1],eax
  4102af:	add    BYTE PTR [ecx],dl
  4102b1:	add    bl,BYTE PTR es:[edx]
  4102b4:	pop    eax
  4102b5:	adc    BYTE PTR [eax],al
  4102b7:	add    al,BYTE PTR [ebx]
  4102b9:	aaa    
  4102ba:	in     eax,0x2a
  4102bc:	jmp    DWORD PTR ds:0x411254
  4102c2:	jmp    DWORD PTR ds:0x411258
  4102c8:	jmp    DWORD PTR ds:0x41125c
  4102ce:	push   ebp
  4102cf:	mov    ebp,esp
  4102d1:	push   0xffffffff
  4102d3:	push   0x410a22
  4102d8:	mov    eax,fs:0x0
  4102de:	push   eax
  4102df:	push   esi
  4102e0:	push   edi
  4102e1:	mov    eax,ds:0x4300bc
  4102e6:	xor    eax,ebp
  4102e8:	push   eax
  4102e9:	lea    eax,[ebp-0xc]
  4102ec:	mov    fs:0x0,eax
  4102f2:	mov    edi,DWORD PTR [ecx+0x4]
  4102f5:	mov    eax,DWORD PTR [edi]
  4102f7:	mov    esi,DWORD PTR [eax+0x8]
  4102fa:	mov    ecx,esi
  4102fc:	call   0x40e702
  410301:	mov    ecx,edi
  410303:	call   esi
  410305:	mov    edi,eax
  410307:	test   edi,edi
  410309:	je     0x41031c
  41030b:	mov    ecx,DWORD PTR [edi]
  41030d:	push   0x1
  41030f:	mov    esi,DWORD PTR [ecx]
  410311:	mov    ecx,esi
  410313:	call   0x40e702
  410318:	mov    ecx,edi
  41031a:	call   esi
  41031c:	mov    ecx,DWORD PTR [ebp-0xc]
  41031f:	mov    DWORD PTR fs:0x0,ecx
  410326:	pop    ecx
  410327:	pop    edi
  410328:	pop    esi
  410329:	mov    esp,ebp
  41032b:	pop    ebp
  41032c:	ret    
  41032d:	push   esi
  41032e:	jmp    0x410348
  410330:	mov    eax,DWORD PTR [esi]
  410332:	mov    ecx,esi
  410334:	mov    ds:0x4307f8,eax
  410339:	call   0x4102ce
  41033e:	push   0x8
  410340:	push   esi
  410341:	call   0x40e48c
  410346:	pop    ecx
  410347:	pop    ecx
  410348:	mov    esi,DWORD PTR ds:0x4307f8
  41034e:	test   esi,esi
  410350:	jne    0x410330
  410352:	pop    esi
  410353:	ret    
  410354:	jmp    DWORD PTR ds:0x4112b0
  41035a:	jmp    DWORD PTR ds:0x41128c
  410360:	jmp    DWORD PTR ds:0x411288
  410366:	jmp    DWORD PTR ds:0x411278
  41036c:	jmp    DWORD PTR ds:0x41127c
  410372:	jmp    DWORD PTR ds:0x411280
  410378:	jmp    DWORD PTR ds:0x41130c
  41037e:	jmp    DWORD PTR ds:0x41135c
  410384:	jmp    DWORD PTR ds:0x411354
  41038a:	jmp    DWORD PTR ds:0x411300
  410390:	jmp    DWORD PTR ds:0x411304
  410396:	jmp    DWORD PTR ds:0x411308
  41039c:	jmp    DWORD PTR ds:0x4112e4
  4103a2:	jmp    DWORD PTR ds:0x411310
  4103a8:	jmp    DWORD PTR ds:0x411334
  4103ae:	jmp    DWORD PTR ds:0x411330
  4103b4:	jmp    DWORD PTR ds:0x411328
  4103ba:	jmp    DWORD PTR ds:0x411324
  4103c0:	jmp    DWORD PTR ds:0x411320
  4103c6:	jmp    DWORD PTR ds:0x41131c
  4103cc:	jmp    DWORD PTR ds:0x41134c
  4103d2:	jmp    DWORD PTR ds:0x411318
  4103d8:	jmp    DWORD PTR ds:0x411314
  4103de:	jmp    DWORD PTR ds:0x4112f8
  4103e4:	jmp    DWORD PTR ds:0x4112d4
  4103ea:	jmp    DWORD PTR ds:0x4112c0
  4103f0:	jmp    DWORD PTR ds:0x411358
  4103f6:	jmp    DWORD PTR ds:0x4112bc
  4103fc:	jmp    DWORD PTR ds:0x4112c4
  410402:	jmp    DWORD PTR ds:0x4112c8
  410408:	jmp    DWORD PTR ds:0x4112f4
  41040e:	jmp    DWORD PTR ds:0x4112f0
  410414:	jmp    DWORD PTR ds:0x4112ec
  41041a:	jmp    DWORD PTR ds:0x4112fc
  410420:	jmp    DWORD PTR ds:0x411230
  410426:	mov    al,0x1
  410428:	ret    
  410429:	int3   
  41042a:	jmp    DWORD PTR ds:0x411240
  410430:	jmp    DWORD PTR ds:0x411244
  410436:	jmp    DWORD PTR ds:0x411248
  41043c:	jmp    DWORD PTR ds:0x41124c
  410442:	jmp    DWORD PTR ds:0x41126c
  410448:	jmp    DWORD PTR ds:0x4111e4
  41044e:	jmp    DWORD PTR ds:0x4111e0
  410454:	jmp    DWORD PTR ds:0x4111dc
  41045a:	jmp    DWORD PTR ds:0x4111d8
  410460:	jmp    DWORD PTR ds:0x4111d4
  410466:	jmp    DWORD PTR ds:0x4111d0
  41046c:	jmp    DWORD PTR ds:0x4111cc
  410472:	jmp    DWORD PTR ds:0x4111c8
  410478:	jmp    DWORD PTR ds:0x4111c4
  41047e:	jmp    DWORD PTR ds:0x4111c0
  410484:	jmp    DWORD PTR ds:0x4111bc
  41048a:	jmp    DWORD PTR ds:0x4111b8
  410490:	jmp    DWORD PTR ds:0x4111b4
  410496:	jmp    DWORD PTR ds:0x4111b0
  41049c:	jmp    DWORD PTR ds:0x4111ac
  4104a2:	jmp    DWORD PTR ds:0x4111a8
  4104a8:	jmp    DWORD PTR ds:0x4111a4
  4104ae:	jmp    DWORD PTR ds:0x4111a0
  4104b4:	jmp    DWORD PTR ds:0x41119c
  4104ba:	jmp    DWORD PTR ds:0x411198
  4104c0:	jmp    DWORD PTR ds:0x411194
  4104c6:	jmp    DWORD PTR ds:0x411190
  4104cc:	jmp    DWORD PTR ds:0x41118c
  4104d2:	jmp    DWORD PTR ds:0x411188
  4104d8:	jmp    DWORD PTR ds:0x411184
  4104de:	jmp    DWORD PTR ds:0x411180
  4104e4:	jmp    DWORD PTR ds:0x41117c
  4104ea:	jmp    DWORD PTR ds:0x411178
  4104f0:	jmp    DWORD PTR ds:0x411174
  4104f6:	jmp    DWORD PTR ds:0x411170
  4104fc:	jmp    DWORD PTR ds:0x41116c
  410502:	jmp    DWORD PTR ds:0x411168
  410508:	jmp    DWORD PTR ds:0x411164
  41050e:	jmp    DWORD PTR ds:0x411160
  410514:	jmp    DWORD PTR ds:0x41115c
  41051a:	jmp    DWORD PTR ds:0x411158
  410520:	jmp    DWORD PTR ds:0x411154
  410526:	jmp    DWORD PTR ds:0x411150
  41052c:	jmp    DWORD PTR ds:0x41114c
  410532:	jmp    DWORD PTR ds:0x411148
  410538:	jmp    DWORD PTR ds:0x411144
  41053e:	jmp    DWORD PTR ds:0x411140
  410544:	jmp    DWORD PTR ds:0x41113c
  41054a:	jmp    DWORD PTR ds:0x411138
  410550:	jmp    DWORD PTR ds:0x411134
  410556:	jmp    DWORD PTR ds:0x411130
  41055c:	jmp    DWORD PTR ds:0x41112c
  410562:	jmp    DWORD PTR ds:0x411128
  410568:	jmp    DWORD PTR ds:0x411124
  41056e:	jmp    DWORD PTR ds:0x411120
  410574:	jmp    DWORD PTR ds:0x41111c
  41057a:	jmp    DWORD PTR ds:0x411118
  410580:	jmp    DWORD PTR ds:0x411114
  410586:	jmp    DWORD PTR ds:0x411110
  41058c:	jmp    DWORD PTR ds:0x41110c
  410592:	jmp    DWORD PTR ds:0x411108
  410598:	jmp    DWORD PTR ds:0x411104
  41059e:	jmp    DWORD PTR ds:0x411100
  4105a4:	jmp    DWORD PTR ds:0x4110fc
  4105aa:	jmp    DWORD PTR ds:0x4110f8
  4105b0:	jmp    DWORD PTR ds:0x4110f4
  4105b6:	jmp    DWORD PTR ds:0x4110f0
  4105bc:	jmp    DWORD PTR ds:0x4110ec
  4105c2:	jmp    DWORD PTR ds:0x4110e8
  4105c8:	jmp    DWORD PTR ds:0x4110e4
  4105ce:	jmp    DWORD PTR ds:0x4110e0
  4105d4:	jmp    DWORD PTR ds:0x4110dc
  4105da:	jmp    DWORD PTR ds:0x4110d8
  4105e0:	jmp    DWORD PTR ds:0x4110d4
  4105e6:	jmp    DWORD PTR ds:0x4110d0
  4105ec:	jmp    DWORD PTR ds:0x4110cc
  4105f2:	jmp    DWORD PTR ds:0x4110c8
  4105f8:	jmp    DWORD PTR ds:0x4110c4
  4105fe:	jmp    DWORD PTR ds:0x4110c0
  410604:	jmp    DWORD PTR ds:0x4110bc
  41060a:	jmp    DWORD PTR ds:0x4110b8
  410610:	jmp    DWORD PTR ds:0x4110b4
  410616:	jmp    DWORD PTR ds:0x4110b0
  41061c:	jmp    DWORD PTR ds:0x4110ac
  410622:	jmp    DWORD PTR ds:0x4110a8
  410628:	jmp    DWORD PTR ds:0x4110a4
  41062e:	jmp    DWORD PTR ds:0x4110a0
  410634:	jmp    DWORD PTR ds:0x41109c
  41063a:	jmp    DWORD PTR ds:0x411098
  410640:	jmp    DWORD PTR ds:0x411094
  410646:	jmp    DWORD PTR ds:0x411090
  41064c:	jmp    DWORD PTR ds:0x41108c
  410652:	jmp    DWORD PTR ds:0x411088
  410658:	jmp    DWORD PTR ds:0x411084
  41065e:	jmp    DWORD PTR ds:0x411080
  410664:	jmp    DWORD PTR ds:0x41107c
  41066a:	jmp    DWORD PTR ds:0x411078
  410670:	jmp    DWORD PTR ds:0x411074
  410676:	jmp    DWORD PTR ds:0x411070
  41067c:	jmp    DWORD PTR ds:0x41106c
  410682:	jmp    DWORD PTR ds:0x411068
  410688:	jmp    DWORD PTR ds:0x411064
  41068e:	jmp    DWORD PTR ds:0x411060
  410694:	jmp    DWORD PTR ds:0x41105c
  41069a:	jmp    DWORD PTR ds:0x411058
  4106a0:	jmp    DWORD PTR ds:0x411054
  4106a6:	jmp    DWORD PTR ds:0x411050
  4106ac:	jmp    DWORD PTR ds:0x41104c
  4106b2:	push   ebp
  4106b3:	mov    ebp,esp
  4106b5:	pop    ebp
  4106b6:	jmp    0x40e6cf
  4106bb:	push   ebx
  4106bc:	push   esi
  4106bd:	push   edi
  4106be:	push   0x0
  4106c0:	push   0xfa0
  4106c5:	push   0x430800
  4106ca:	call   0x410922
  4106cf:	add    esp,0xc
  4106d2:	push   0x411a90
  4106d7:	call   DWORD PTR ds:0x411234
  4106dd:	mov    esi,eax
  4106df:	test   esi,esi
  4106e1:	je     0x410773
  4106e7:	push   0x411aac
  4106ec:	push   esi
  4106ed:	call   DWORD PTR ds:0x411248
  4106f3:	push   0x411ac8
  4106f8:	push   esi
  4106f9:	mov    ebx,eax
  4106fb:	call   DWORD PTR ds:0x411248
  410701:	push   0x411ae4
  410706:	push   esi
  410707:	mov    edi,eax
  410709:	call   DWORD PTR ds:0x411248
  41070f:	mov    esi,eax
  410711:	test   ebx,ebx
  410713:	je     0x41074c
  410715:	test   edi,edi
  410717:	je     0x41074c
  410719:	test   esi,esi
  41071b:	je     0x41074c
  41071d:	and    DWORD PTR ds:0x43081c,0x0
  410724:	mov    ecx,ebx
  410726:	push   0x430818
  41072b:	call   0x40e702
  410730:	call   ebx
  410732:	push   edi
  410733:	call   0x41077b
  410738:	push   esi
  410739:	mov    ds:0x430820,eax
  41073e:	call   0x41077b
  410743:	pop    ecx
  410744:	pop    ecx
  410745:	mov    ds:0x430824,eax
  41074a:	jmp    0x410762
  41074c:	xor    eax,eax
  41074e:	push   eax
  41074f:	push   eax
  410750:	push   0x1
  410752:	push   eax
  410753:	call   DWORD PTR ds:0x4111f0
  410759:	mov    ds:0x43081c,eax
  41075e:	test   eax,eax
  410760:	je     0x410773
  410762:	push   0x410798
  410767:	call   0x40e9e6
  41076c:	pop    ecx
  41076d:	pop    edi
  41076e:	pop    esi
  41076f:	xor    eax,eax
  410771:	pop    ebx
  410772:	ret    
  410773:	push   0x7
  410775:	call   0x40eb03
  41077a:	int3   
  41077b:	push   ebp
  41077c:	mov    ebp,esp
  41077e:	mov    eax,ds:0x4300bc
  410783:	and    eax,0x1f
  410786:	push   0x20
  410788:	pop    ecx
  410789:	sub    ecx,eax
  41078b:	mov    eax,DWORD PTR [ebp+0x8]
  41078e:	ror    eax,cl
  410790:	xor    eax,DWORD PTR ds:0x4300bc
  410796:	pop    ebp
  410797:	ret    
  410798:	push   0x430800
  41079d:	call   DWORD PTR ds:0x411200
  4107a3:	mov    eax,ds:0x43081c
  4107a8:	test   eax,eax
  4107aa:	je     0x4107b3
  4107ac:	push   eax
  4107ad:	call   DWORD PTR ds:0x41120c
  4107b3:	ret    
  4107b4:	push   ebp
  4107b5:	mov    ebp,esp
  4107b7:	call   0x410839
  4107bc:	mov    ecx,DWORD PTR ds:0x4300d8
  4107c2:	mov    eax,DWORD PTR [ebp+0x8]
  4107c5:	inc    ecx
  4107c6:	mov    DWORD PTR ds:0x4300d8,ecx
  4107cc:	mov    DWORD PTR [eax],ecx
  4107ce:	mov    eax,fs:0x2c
  4107d4:	mov    ecx,DWORD PTR ds:0x430828
  4107da:	mov    ecx,DWORD PTR [eax+ecx*4]
  4107dd:	mov    eax,ds:0x4300d8
  4107e2:	mov    DWORD PTR [ecx+0x4],eax
  4107e8:	call   0x410886
  4107ed:	pop    ebp
  4107ee:	jmp    0x410845
  4107f3:	push   ebp
  4107f4:	mov    ebp,esp
  4107f6:	push   esi
  4107f7:	call   0x410839
  4107fc:	mov    esi,DWORD PTR [ebp+0x8]
  4107ff:	jmp    0x410809
  410801:	push   0x64
  410803:	call   0x410892
  410808:	pop    ecx
  410809:	cmp    DWORD PTR [esi],0x0
  41080c:	je     0x41082f
  41080e:	cmp    DWORD PTR [esi],0xffffffff
  410811:	je     0x410801
  410813:	mov    eax,fs:0x2c
  410819:	mov    ecx,DWORD PTR ds:0x430828
  41081f:	mov    ecx,DWORD PTR [eax+ecx*4]
  410822:	mov    eax,ds:0x4300d8
  410827:	mov    DWORD PTR [ecx+0x4],eax
  41082d:	jmp    0x410832
  41082f:	or     DWORD PTR [esi],0xffffffff
  410832:	pop    esi
  410833:	pop    ebp
  410834:	jmp    0x410886
  410839:	push   0x430800
  41083e:	call   DWORD PTR ds:0x411208
  410844:	ret    
  410845:	mov    eax,ds:0x43081c
  41084a:	test   eax,eax
  41084c:	jne    0x410872
  41084e:	push   esi
  41084f:	mov    esi,DWORD PTR ds:0x4300bc
  410855:	mov    ecx,esi
  410857:	xor    esi,DWORD PTR ds:0x430824
  41085d:	and    ecx,0x1f
  410860:	ror    esi,cl
  410862:	push   0x430818
  410867:	mov    ecx,esi
  410869:	call   0x40e702
  41086e:	call   esi
  410870:	pop    esi
  410871:	ret    
  410872:	push   eax
  410873:	call   DWORD PTR ds:0x4111fc
  410879:	push   DWORD PTR ds:0x43081c
  41087f:	call   DWORD PTR ds:0x4111f8
  410885:	ret    
  410886:	push   0x430800
  41088b:	call   DWORD PTR ds:0x411204
  410891:	ret    
  410892:	push   ebp
  410893:	mov    ebp,esp
  410895:	cmp    DWORD PTR ds:0x43081c,0x0
  41089c:	push   esi
  41089d:	jne    0x4108d0
  41089f:	mov    esi,DWORD PTR ds:0x4300bc
  4108a5:	mov    ecx,esi
  4108a7:	push   DWORD PTR [ebp+0x8]
  4108aa:	xor    esi,DWORD PTR ds:0x430820
  4108b0:	and    ecx,0x1f
  4108b3:	ror    esi,cl
  4108b5:	push   0x430800
  4108ba:	push   0x430818
  4108bf:	mov    ecx,esi
  4108c1:	call   0x40e702
  4108c6:	call   esi
  4108c8:	neg    eax
  4108ca:	sbb    eax,eax
  4108cc:	neg    eax
  4108ce:	jmp    0x4108f4
  4108d0:	call   0x410886
  4108d5:	push   0x0
  4108d7:	push   DWORD PTR [ebp+0x8]
  4108da:	push   DWORD PTR ds:0x43081c
  4108e0:	call   DWORD PTR ds:0x4111f4
  4108e6:	mov    esi,eax
  4108e8:	call   0x410839
  4108ed:	xor    eax,eax
  4108ef:	test   esi,esi
  4108f1:	sete   al
  4108f4:	pop    esi
  4108f5:	pop    ebp
  4108f6:	ret    
  4108f7:	int3   
  4108f8:	jmp    DWORD PTR ds:0x411284
  4108fe:	jmp    DWORD PTR ds:0x4112b4
  410904:	jmp    DWORD PTR ds:0x411294
  41090a:	jmp    DWORD PTR ds:0x411298
  410910:	jmp    DWORD PTR ds:0x41129c
  410916:	jmp    DWORD PTR ds:0x4112a0
  41091c:	jmp    DWORD PTR ds:0x4112a4
  410922:	jmp    DWORD PTR ds:0x4112ac
  410928:	jmp    DWORD PTR ds:0x411364
  41092e:	jmp    DWORD PTR ds:0x411350
  410934:	jmp    DWORD PTR ds:0x411348
  41093a:	jmp    DWORD PTR ds:0x411344
  410940:	jmp    DWORD PTR ds:0x411340
  410946:	jmp    DWORD PTR ds:0x411368
  41094c:	jmp    DWORD PTR ds:0x41132c
  410952:	jmp    DWORD PTR ds:0x411274
  410958:	jmp    DWORD PTR ds:0x4112dc
  41095e:	jmp    DWORD PTR ds:0x4112e0
  410964:	jmp    DWORD PTR ds:0x411370
  41096a:	int3   
  41096b:	int3   
  41096c:	int3   
  41096d:	int3   
  41096e:	int3   
  41096f:	int3   
  410970:	mov    eax,0x42cca8
  410975:	jmp    0x410372
  41097a:	int3   
  41097b:	int3   
  41097c:	int3   
  41097d:	int3   
  41097e:	int3   
  41097f:	int3   
  410980:	mov    eax,DWORD PTR [ebp-0x10]
  410983:	and    eax,0x1
  410986:	je     0x410998
  41098c:	and    DWORD PTR [ebp-0x10],0xfffffffe
  410990:	mov    ecx,DWORD PTR [ebp+0x8]
  410993:	jmp    0x401ad0
  410998:	ret    
  410999:	mov    eax,0x42cd34
  41099e:	jmp    0x410372
  4109a3:	int3   
  4109a4:	int3   
  4109a5:	int3   
  4109a6:	int3   
  4109a7:	int3   
  4109a8:	int3   
  4109a9:	int3   
  4109aa:	int3   
  4109ab:	int3   
  4109ac:	int3   
  4109ad:	int3   
  4109ae:	int3   
  4109af:	int3   
  4109b0:	mov    eax,0x42cd60
  4109b5:	jmp    0x410372
  4109ba:	int3   
  4109bb:	int3   
  4109bc:	int3   
  4109bd:	int3   
  4109be:	int3   
  4109bf:	int3   
  4109c0:	lea    ecx,[ebp-0x44]
  4109c3:	jmp    0x401ad0
  4109c8:	lea    ecx,[ebp-0x5c]
  4109cb:	jmp    0x401ad0
  4109d0:	lea    ecx,[ebp-0x2c]
  4109d3:	jmp    0x401ad0
  4109d8:	mov    eax,0x42cd84
  4109dd:	jmp    0x410372
  4109e2:	int3   
  4109e3:	int3   
  4109e4:	int3   
  4109e5:	int3   
  4109e6:	int3   
  4109e7:	int3   
  4109e8:	int3   
  4109e9:	int3   
  4109ea:	int3   
  4109eb:	int3   
  4109ec:	int3   
  4109ed:	int3   
  4109ee:	int3   
  4109ef:	int3   
  4109f0:	lea    ecx,[ebp-0x18]
  4109f3:	jmp    0x4022a0
  4109f8:	mov    eax,0x42cdc0
  4109fd:	jmp    0x410372
  410a02:	int3   
  410a03:	int3   
  410a04:	int3   
  410a05:	int3   
  410a06:	int3   
  410a07:	int3   
  410a08:	int3   
  410a09:	int3   
  410a0a:	int3   
  410a0b:	int3   
  410a0c:	int3   
  410a0d:	int3   
  410a0e:	int3   
  410a0f:	int3   
  410a10:	lea    ecx,[ebp-0x38]
  410a13:	jmp    0x4022a0
  410a18:	mov    eax,0x42cdec
  410a1d:	jmp    0x410372
  410a22:	mov    edx,DWORD PTR [esp+0x8]
  410a26:	lea    eax,[edx+0xc]
  410a29:	mov    ecx,DWORD PTR [edx-0xc]
  410a2c:	xor    ecx,eax
  410a2e:	call   0x40ee19
  410a33:	mov    eax,0x42cd60
  410a38:	jmp    0x410372
  410a3d:	int3   
  410a3e:	int3   
  410a3f:	int3   
  410a40:	push   DWORD PTR ds:0x430194
  410a46:	call   0x40e78e
  410a4b:	pop    ecx
  410a4c:	ret    
  410a4d:	int3   
  410a4e:	int3   
  410a4f:	int3   
  410a50:	push   DWORD PTR ds:0x430110
  410a56:	call   0x40e78e
  410a5b:	pop    ecx
  410a5c:	ret    
  410a5d:	int3   
  410a5e:	int3   
  410a5f:	int3   
  410a60:	push   DWORD PTR ds:0x430140
  410a66:	call   0x40e78e
  410a6b:	pop    ecx
  410a6c:	ret    
  410a6d:	int3   
  410a6e:	int3   
  410a6f:	int3   
  410a70:	push   DWORD PTR ds:0x430134
  410a76:	call   0x40e78e
  410a7b:	pop    ecx
  410a7c:	ret    
  410a7d:	int3   
  410a7e:	int3   
  410a7f:	int3   
  410a80:	push   DWORD PTR ds:0x430158
  410a86:	call   0x40e78e
  410a8b:	pop    ecx
  410a8c:	ret    
  410a8d:	int3   
  410a8e:	int3   
  410a8f:	int3   
  410a90:	push   DWORD PTR ds:0x4300f8
  410a96:	call   0x40e78e
  410a9b:	pop    ecx
  410a9c:	ret    
  410a9d:	int3   
  410a9e:	int3   
  410a9f:	int3   
  410aa0:	push   DWORD PTR ds:0x4301b8
  410aa6:	call   0x40e78e
  410aab:	pop    ecx
  410aac:	ret    
  410aad:	int3   
  410aae:	int3   
  410aaf:	int3   
  410ab0:	push   DWORD PTR ds:0x430128
  410ab6:	call   0x40e78e
  410abb:	pop    ecx
  410abc:	ret    
  410abd:	int3   
  410abe:	int3   
  410abf:	int3   
  410ac0:	push   DWORD PTR ds:0x4301a0
  410ac6:	call   0x40e78e
  410acb:	pop    ecx
  410acc:	ret    
  410acd:	int3   
  410ace:	int3   
  410acf:	int3   
  410ad0:	push   DWORD PTR ds:0x43014c
  410ad6:	call   0x40e78e
  410adb:	pop    ecx
  410adc:	ret    
  410add:	int3   
  410ade:	int3   
  410adf:	int3   
  410ae0:	push   DWORD PTR ds:0x43017c
  410ae6:	call   0x40e78e
  410aeb:	pop    ecx
  410aec:	ret    
  410aed:	int3   
  410aee:	int3   
  410aef:	int3   
  410af0:	push   DWORD PTR ds:0x43011c
  410af6:	call   0x40e78e
  410afb:	pop    ecx
  410afc:	ret    
  410afd:	int3   
  410afe:	int3   
  410aff:	int3   
  410b00:	push   DWORD PTR ds:0x430164
  410b06:	call   0x40e78e
  410b0b:	pop    ecx
  410b0c:	ret    
  410b0d:	int3   
  410b0e:	int3   
  410b0f:	int3   
  410b10:	push   DWORD PTR ds:0x430104
  410b16:	call   0x40e78e
  410b1b:	pop    ecx
  410b1c:	ret    
  410b1d:	int3   
  410b1e:	int3   
  410b1f:	int3   
  410b20:	push   DWORD PTR ds:0x4301ac
  410b26:	call   0x40e78e
  410b2b:	pop    ecx
  410b2c:	ret    
  410b2d:	int3   
  410b2e:	int3   
  410b2f:	int3   
  410b30:	push   DWORD PTR ds:0x4301d0
  410b36:	call   0x40e78e
  410b3b:	pop    ecx
  410b3c:	ret    
  410b3d:	int3   
  410b3e:	int3   
  410b3f:	int3   
  410b40:	push   DWORD PTR ds:0x430170
  410b46:	call   0x40e78e
  410b4b:	pop    ecx
  410b4c:	ret    
  410b4d:	int3   
  410b4e:	int3   
  410b4f:	int3   
  410b50:	push   DWORD PTR ds:0x430188
  410b56:	call   0x40e78e
  410b5b:	pop    ecx
  410b5c:	ret    
  410b5d:	int3   
  410b5e:	int3   
  410b5f:	int3   
  410b60:	push   DWORD PTR ds:0x4301c4
  410b66:	call   0x40e78e
  410b6b:	pop    ecx
  410b6c:	ret    
  410b6d:	int3   
  410b6e:	int3   
  410b6f:	int3   
  410b70:	push   DWORD PTR ds:0x4300ec
  410b76:	call   0x40e78e
  410b7b:	pop    ecx
  410b7c:	ret    
  410b7d:	mov    ecx,0x4307fc
  410b82:	jmp    0x41032d
