
e9e24fb71b09913424236131a896329ed726e0a6c796735462ff6ab440d7287c.exe:     file format pei-i386


Disassembly of section .text:

01801000 <.text>:
 1801000:	add    BYTE PTR [eax],al
 1801002:	add    BYTE PTR [eax],al
 1801004:	adc    BYTE PTR [edi+0x180],0x0
 180100b:	add    BYTE PTR [eax],al
 180100d:	add    BYTE PTR [eax],al
 180100f:	add    BYTE PTR [eax+0x18096],dh
 1801015:	pushf  
 1801016:	add    BYTE PTR [ecx],0x0
 1801019:	add    BYTE PTR [eax],al
 180101b:	add    al,dl
 180101d:	and    eax,DWORD PTR [eax]
 180101f:	add    al,ah
 1801021:	and    eax,DWORD PTR [eax]
 1801023:	add    BYTE PTR [eax],ah
 1801025:	and    al,0x0
 1801027:	add    BYTE PTR [eax+0x24],dl
 180102a:	add    BYTE PTR [eax],al
 180102c:	jo     0x1801052
 180102e:	add    BYTE PTR [eax],al
 1801030:	shl    BYTE PTR [eax+eax*1],0x0
 1801034:	push   eax
 1801035:	daa    
 1801036:	add    BYTE PTR [eax],al
 1801038:	jo     0x1801064
 180103a:	add    BYTE PTR [eax],al
 180103c:	jo     0x180106a
 180103e:	add    BYTE PTR [eax],al
 1801040:	shr    BYTE PTR [eax+eax*1],1
 1801043:	add    al,dh
 1801045:	sub    al,0x0
 1801047:	add    BYTE PTR [eax+0x2d],dl
 180104a:	add    BYTE PTR [eax],al
 180104c:	shr    BYTE PTR [esi],0x0
 180104f:	add    al,dh
 1801051:	add    BYTE PTR cs:[eax],al
 1801054:	xor    BYTE PTR [edi],ch
 1801056:	add    BYTE PTR [eax],al
 1801058:	pusha  
 1801059:	das    
 180105a:	add    BYTE PTR [eax],al
 180105c:	xor    BYTE PTR [eax],0x0
 180105f:	add    BYTE PTR [eax+0x31],al
 1801062:	add    BYTE PTR [eax],al
 1801064:	push   eax
 1801065:	xor    al,BYTE PTR [eax]
 1801067:	add    al,al
 1801069:	aaa    
 180106a:	add    BYTE PTR [eax],al
 180106c:	push   eax
 180106d:	cmp    BYTE PTR [eax],al
 180106f:	add    BYTE PTR [eax+0x10000038],dh
 1801075:	inc    ebx
 1801076:	add    BYTE PTR [eax],al
 1801078:	add    BYTE PTR [eax+eax*1+0x0],0x0
 180107d:	inc    ebp
 180107e:	add    BYTE PTR [eax],al
 1801080:	add    BYTE PTR [edi+0x0],al
 1801083:	add    al,ah
 1801085:	dec    ecx
 1801086:	add    BYTE PTR [eax],al
 1801088:	and    BYTE PTR [esi+0x0],cl
 180108b:	add    BYTE PTR [eax-0x7fffffb2],ah
 1801091:	pusha  
 1801092:	add    BYTE PTR [eax],al
 1801094:	and    BYTE PTR [ebp+0x0],dh
 1801097:	add    BYTE PTR [eax],ah
 1801099:	jbe    0x180109b
 180109b:	add    BYTE PTR [eax-0x3fffff8a],al
 18010a1:	js     0x18010a3
 18010a3:	add    BYTE PTR [eax],dh
 18010a5:	jl     0x18010a7
 18010a7:	add    BYTE PTR [eax+0x7c],dh
 18010aa:	add    BYTE PTR [eax],al
 18010ac:	lock jl 0x18010af
 18010af:	add    BYTE PTR [eax],al
 18010b1:	jge    0x18010b3
 18010b3:	add    BYTE PTR [eax+0x1000007d],al
 18010b9:	jle    0x18010bb
 18010bb:	add    BYTE PTR [eax-0x1fffff80],dh
 18010c1:	add    BYTE PTR [eax],0x0
 18010c4:	add    BYTE PTR [ecx-0x7e100000],0x0
 18010cb:	add    BYTE PTR [eax+0x70000082],ah
 18010d1:	add    DWORD PTR [eax],0x0
 18010d4:	jo     0x180105a
 18010d6:	add    BYTE PTR [eax],al
 18010d8:	push   eax
 18010d9:	test   DWORD PTR [eax],eax
 18010db:	add    BYTE PTR [eax-0x75],ah
 18010de:	add    BYTE PTR [eax],al
 18010e0:	mov    al,0x96
 18010e2:	add    BYTE PTR [eax],al
 18010e4:	adc    BYTE PTR [edi-0x66800000],0x0
 18010eb:	add    BYTE PTR [eax-0x4fffff67],dl
 18010f1:	fwait
 18010f2:	add    BYTE PTR [eax],al
 18010f4:	add    BYTE PTR [eax+eax*1+0x9ee000],bl
 18010fb:	add    BYTE PTR [eax-0x61],dh
 18010fe:	add    BYTE PTR [eax],al
 1801100:	mov    al,ds:0x3000009f
 1801105:	mov    al,ds:0xa0600000
 180110a:	add    BYTE PTR [eax],al
 180110c:	nop
 180110d:	mov    al,ds:0xa0a00000
 1801112:	add    BYTE PTR [eax],al
 1801114:	shl    BYTE PTR [eax-0x5ef00000],1
 180111a:	add    BYTE PTR [eax],al
 180111c:	add    BYTE PTR [eax],al
 180111e:	add    BYTE PTR [eax],al
 1801120:	add    BYTE PTR [ecx+eax*4],dh
 1801123:	add    DWORD PTR [eax+0x34],edx
 1801126:	add    DWORD PTR [ecx],0x0
 180112c:	add    BYTE PTR [eax],al
 180112e:	add    BYTE PTR [eax],al
 1801130:	popa   
 1801131:	jo     0x180119c
 1801133:	sub    eax,0x772d736d
 1801138:	imul   ebp,DWORD PTR [esi+0x2d],0x65726f63
 180113f:	sub    eax,0x69676572
 1801144:	jae    0x18011ba
 1801146:	jb     0x18011c1
 1801148:	sub    eax,0x322d326c
 180114d:	sub    eax,0x6c642e30
 1801152:	ins    BYTE PTR es:[edi],dx
	...
 180115f:	add    BYTE PTR [ebp+0x50],cl
 1801162:	push   edx
 1801163:	cs fs ins BYTE PTR es:[edi],dx
 1801166:	ins    BYTE PTR es:[edi],dx
	...
 180116f:	add    BYTE PTR [ebx+0x72],ah
 1801172:	gs fs jne 0x18011df
 1801176:	cs fs ins BYTE PTR es:[edi],dx
 1801179:	ins    BYTE PTR es:[edi],dx
 180117a:	add    BYTE PTR [eax],al
 180117c:	add    BYTE PTR [eax],al
 180117e:	add    BYTE PTR [eax],al
 1801180:	dec    ebp
 1801181:	push   eax
 1801182:	push   edx
 1801183:	dec    ebp
 1801184:	push   ebx
 1801185:	inc    edi
 1801186:	cs fs ins BYTE PTR es:[edi],dx
 1801189:	ins    BYTE PTR es:[edi],dx
 180118a:	add    BYTE PTR [eax],al
 180118c:	and    eax,0x21003100
 1801191:	add    BYTE PTR [ebx+0x0],dh
 1801194:	and    DWORD PTR [eax],eax
 1801196:	or     DWORD PTR [eax],eax
 1801198:	and    eax,0x21003200
 180119d:	add    BYTE PTR [ebx+0x0],dh
 18011a0:	and    DWORD PTR [eax],eax
 18011a2:	or     al,BYTE PTR [eax]
 18011a4:	add    BYTE PTR [eax],al
 18011a6:	add    BYTE PTR [eax],al
 18011a8:	outs   dx,BYTE PTR ds:[esi]
 18011a9:	add    BYTE PTR [ecx+0x0],ah
 18011ac:	ins    DWORD PTR es:[edi],dx
 18011ad:	add    BYTE PTR [ebp+0x0],ah
 18011b0:	add    BYTE PTR [eax],al
 18011b2:	add    BYTE PTR [eax],al
 18011b4:	jne    0x18011b6
 18011b6:	jae    0x18011b8
 18011b8:	add    BYTE PTR gs:[edx+0x0],dh
 18011bc:	add    BYTE PTR [eax],al
 18011be:	add    BYTE PTR [eax],al
 18011c0:	jo     0x18011c2
 18011c2:	ja     0x18011c4
 18011c4:	add    BYTE PTR fs:[eax],al
 18011c7:	add    BYTE PTR [eax+0x0],ch
 18011ca:	add    BYTE PTR gs:[eax+eax*1+0x70],ch
 18011cf:	add    BYTE PTR [eax],al
 18011d1:	add    BYTE PTR [eax],al
 18011d3:	add    BYTE PTR [edi],bh
 18011d5:	add    BYTE PTR [eax],al
 18011d7:	add    BYTE PTR [edx],ch
 18011d9:	add    BYTE PTR [eax],al
 18011db:	add    BYTE PTR [ebp+0x0],ch
 18011de:	outs   dx,DWORD PTR ds:[esi]
 18011df:	add    BYTE PTR [eax+eax*1+0x65],ah
 18011e3:	add    BYTE PTR [eax],al
 18011e5:	add    BYTE PTR [eax],al
 18011e7:	add    BYTE PTR [edi+0x0],ch
 18011ea:	jo     0x18011ec
 18011ec:	add    BYTE PTR gs:[esi+0x0],ch
 18011f0:	add    BYTE PTR [eax],al
 18011f2:	add    BYTE PTR [eax],al
 18011f4:	popa   
 18011f5:	add    BYTE PTR [eax+0x0],dh
 18011f8:	jo     0x18011fa
 18011fa:	add    BYTE PTR gs:[esi+0x0],ch
 18011fe:	add    BYTE PTR fs:[eax],al
 1801201:	add    BYTE PTR [eax],al
 1801203:	add    BYTE PTR [ebx+0x0],ah
 1801206:	ins    BYTE PTR es:[edi],dx
 1801207:	add    BYTE PTR [edi+0x0],ch
 180120a:	jae    0x180120c
 180120c:	add    BYTE PTR gs:[eax],al
 180120f:	add    BYTE PTR [edi+0x0],ch
 1801212:	outs   dx,BYTE PTR ds:[esi]
 1801213:	add    BYTE PTR [eax+eax*1+0x69],ch
 1801217:	add    BYTE PTR [esi+0x0],ch
 180121a:	add    BYTE PTR gs:[eax],al
 180121d:	add    BYTE PTR [eax],al
 180121f:	add    BYTE PTR [edi+0x0],ch
 1801222:	data16 add BYTE PTR [esi+0x0],ah
 1801226:	ins    BYTE PTR es:[edi],dx
 1801227:	add    BYTE PTR [ecx+0x0],ch
 180122a:	outs   dx,BYTE PTR ds:[esi]
 180122b:	add    BYTE PTR [ebp+0x0],ah
 180122e:	add    BYTE PTR [eax],al
 1801230:	and    eax,0x21003100
 1801235:	add    BYTE PTR [ebx+0x0],dh
 1801238:	and    DWORD PTR [eax],eax
 180123a:	or     al,BYTE PTR [eax]
 180123c:	add    BYTE PTR [eax],al
 180123e:	add    BYTE PTR [eax],al
 1801240:	and    BYTE PTR [eax],al
 1801242:	add    BYTE PTR [eax],al
 1801244:	or     al,BYTE PTR [eax]
 1801246:	add    BYTE PTR [eax],al
 1801248:	jnp    0x180124a
 180124a:	and    eax,0x38003000
 180124f:	add    BYTE PTR [eax+0x0],bl
 1801252:	sub    eax,0x30002500
 1801257:	add    BYTE PTR [eax+eax*1],dh
 180125a:	pop    eax
 180125b:	add    BYTE PTR ds:0x30002500,ch
 1801261:	add    BYTE PTR [eax+eax*1],dh
 1801264:	pop    eax
 1801265:	add    BYTE PTR ds:0x30002500,ch
 180126b:	add    BYTE PTR [edx],dh
 180126d:	add    BYTE PTR [eax+0x0],bl
 1801270:	and    eax,0x32003000
 1801275:	add    BYTE PTR [eax+0x0],bl
 1801278:	sub    eax,0x30002500
 180127d:	add    BYTE PTR [edx],dh
 180127f:	add    BYTE PTR [eax+0x0],bl
 1801282:	and    eax,0x32003000
 1801287:	add    BYTE PTR [eax+0x0],bl
 180128a:	and    eax,0x32003000
 180128f:	add    BYTE PTR [eax+0x0],bl
 1801292:	and    eax,0x32003000
 1801297:	add    BYTE PTR [eax+0x0],bl
 180129a:	and    eax,0x32003000
 180129f:	add    BYTE PTR [eax+0x0],bl
 18012a2:	and    eax,0x32003000
 18012a7:	add    BYTE PTR [eax+0x0],bl
 18012aa:	jge    0x18012ac
 18012ac:	add    BYTE PTR [eax],al
 18012ae:	add    BYTE PTR [eax],al
 18012b0:	dec    ecx
 18012b1:	outs   dx,BYTE PTR ds:[esi]
 18012b2:	imul   esi,DWORD PTR [eax+ecx*2+0x65],0x7265706c
 18012ba:	inc    esp
 18012bb:	ins    BYTE PTR es:[edi],dx
 18012bc:	ins    BYTE PTR es:[edi],dx
 18012bd:	add    BYTE PTR [eax],al
 18012bf:	add    BYTE PTR [ecx+0x0],cl
 18012c2:	outs   dx,BYTE PTR ds:[esi]
 18012c3:	add    BYTE PTR [ecx+0x0],ch
 18012c6:	je     0x18012c8
 18012c8:	dec    eax
 18012c9:	add    BYTE PTR [ebp+0x0],ah
 18012cc:	ins    BYTE PTR es:[edi],dx
 18012cd:	add    BYTE PTR [eax+0x0],dh
 18012d0:	add    BYTE PTR gs:[edx+0x0],dh
 18012d4:	inc    esp
 18012d5:	add    BYTE PTR [eax+eax*1+0x6c],ch
 18012d9:	add    BYTE PTR [eax],al
 18012db:	add    BYTE PTR [ecx+0x0],ch
 18012de:	jo     0x18012e0
 18012e0:	js     0x18012e2
 18012e2:	ins    DWORD PTR es:[edi],dx
 18012e3:	add    BYTE PTR [edi+0x0],ch
 18012e6:	outs   dx,BYTE PTR ds:[esi]
 18012e7:	add    BYTE PTR [eax+eax*1+0x72],dh
 18012eb:	add    BYTE PTR [esi],ch
 18012ed:	add    BYTE PTR [eax+eax*1+0x6c],ah
 18012f1:	add    BYTE PTR [eax+eax*1+0x0],ch
 18012f5:	add    BYTE PTR [eax],al
 18012f7:	add    BYTE PTR [ecx+0x0],ch
 18012fa:	jo     0x18012fc
 18012fc:	js     0x18012fe
 18012fe:	jo     0x1801300
 1801300:	jb     0x1801302
 1801302:	outs   dx,DWORD PTR ds:[esi]
 1801303:	add    BYTE PTR [ebp+0x0],ch
 1801306:	outs   dx,BYTE PTR ds:[esi]
 1801307:	add    BYTE PTR [esi],ch
 1801309:	add    BYTE PTR [eax+eax*1+0x6c],ah
 180130d:	add    BYTE PTR [eax+eax*1+0x0],ch
 1801311:	add    BYTE PTR [eax],al
 1801313:	add    BYTE PTR [ebx+0x0],dl
 1801316:	push   esp
 1801317:	add    BYTE PTR [edx+0x0],dl
 180131a:	dec    ecx
 180131b:	add    BYTE PTR [esi+0x0],cl
 180131e:	inc    edi
 180131f:	add    BYTE PTR [eax],al
 1801321:	add    BYTE PTR [eax],al
 1801323:	add    BYTE PTR [ebx+0x0],dl
 1801326:	dec    edi
 1801327:	add    BYTE PTR [esi+0x0],al
 180132a:	push   esp
 180132b:	add    BYTE PTR [edi+0x0],dl
 180132e:	inc    ecx
 180132f:	add    BYTE PTR [edx+0x0],dl
 1801332:	inc    ebp
 1801333:	add    BYTE PTR [eax+eax*1+0x4d],bl
 1801337:	add    BYTE PTR [ecx+0x0],ch
 180133a:	arpl   WORD PTR [eax],ax
 180133c:	jb     0x180133e
 180133e:	outs   dx,DWORD PTR ds:[esi]
 180133f:	add    BYTE PTR [ebx+0x0],dh
 1801342:	outs   dx,DWORD PTR ds:[esi]
 1801343:	add    BYTE PTR [esi+0x0],ah
 1801346:	je     0x1801348
 1801348:	pop    esp
 1801349:	add    BYTE PTR [esi+0x0],cl
 180134c:	add    BYTE PTR gs:[eax+eax*1+0x53],dh
 1801351:	add    BYTE PTR [eax+0x0],ch
 1801354:	add    BYTE PTR [eax],al
 1801356:	add    BYTE PTR [eax],al
 1801358:	outs   dx,BYTE PTR ds:[esi]
 1801359:	add    BYTE PTR [ebp+0x0],ah
 180135c:	je     0x180135e
 180135e:	jae    0x1801360
 1801360:	push   0x8a000000
 1801365:	les    eax,FWORD PTR [ebp-0x73972806]
 180136b:	dec    edx
 180136c:	mov    DWORD PTR [ebx+eiz*1],ebx
 180136f:	pusha  
 1801370:	in     eax,dx
 1801371:	(bad)  
 1801372:	xlat   BYTE PTR ds:[ebx]
 1801373:	or     BYTE PTR [eax],al
	...
 1801381:	add    BYTE PTR [eax],al
 1801383:	add    BYTE PTR [esi+0x0],ch
 1801386:	add    BYTE PTR gs:[eax+eax*1+0x73],dh
 180138b:	add    BYTE PTR [eax+0x0],ch
 180138e:	and    BYTE PTR [eax],al
 1801390:	jb     0x1801392
 1801392:	popa   
 1801393:	add    BYTE PTR [ebx+0x0],dh
 1801396:	and    BYTE PTR [eax],al
 1801398:	add    BYTE PTR fs:[ecx+0x0],ch
 180139c:	popa   
 180139d:	add    BYTE PTR [edi+0x0],ah
 18013a0:	outs   dx,BYTE PTR ds:[esi]
 18013a1:	add    BYTE PTR [edi+0x0],ch
 18013a4:	jae    0x18013a6
 18013a6:	je     0x18013a8
 18013a8:	imul   eax,DWORD PTR [eax],0x730063
 18013ae:	add    BYTE PTR [eax],al
 18013b0:	add    BYTE PTR fs:[ebp+0x0],dh
 18013b4:	ins    DWORD PTR es:[edi],dx
 18013b5:	add    BYTE PTR [eax+0x0],dh
 18013b8:	add    BYTE PTR [eax],al
 18013ba:	add    BYTE PTR [eax],al
 18013bc:	add    BYTE PTR gs:[eax+0x0],bh
 18013c0:	add    BYTE PTR gs:[ebx+0x0],ah
 18013c4:	add    BYTE PTR [eax],al
 18013c6:	add    BYTE PTR [eax],al
 18013c8:	jno    0x18013ca
 18013ca:	jne    0x18013cc
 18013cc:	imul   eax,DWORD PTR [eax],0x74
 18013d2:	add    BYTE PTR [eax],al
 18013d4:	bound  eax,QWORD PTR [eax]
 18013d6:	jns    0x18013d8
 18013d8:	add    BYTE PTR gs:[eax],al
 18013db:	add    BYTE PTR [ebp+0x0],ah
 18013de:	js     0x18013e0
 18013e0:	imul   eax,DWORD PTR [eax],0x74
 18013e6:	add    BYTE PTR [eax],al
 18013e8:	popa   
 18013e9:	add    BYTE PTR [edx+0x0],ah
 18013ec:	outs   dx,DWORD PTR ds:[esi]
 18013ed:	add    BYTE PTR [edx+0x0],dh
 18013f0:	je     0x18013f2
 18013f2:	add    BYTE PTR [eax],al
 18013f4:	arpl   WORD PTR [eax],ax
 18013f6:	outs   dx,DWORD PTR ds:[esi]
 18013f7:	add    BYTE PTR [ebp+0x0],ch
 18013fa:	ins    DWORD PTR es:[edi],dx
 18013fb:	add    BYTE PTR [ecx+0x0],ch
 18013fe:	je     0x1801400
 1801400:	add    BYTE PTR [eax],al
 1801402:	add    BYTE PTR [eax],al
 1801404:	popa   
 1801405:	add    BYTE PTR [eax+eax*1+0x69],ch
 1801409:	add    BYTE PTR [ecx+0x0],ah
 180140c:	jae    0x180140e
 180140e:	add    BYTE PTR [eax],al
 1801410:	jne    0x1801412
 1801412:	outs   dx,BYTE PTR ds:[esi]
 1801413:	add    BYTE PTR [ecx+0x0],ah
 1801416:	ins    BYTE PTR es:[edi],dx
 1801417:	add    BYTE PTR [ecx+0x0],ch
 180141a:	popa   
 180141b:	add    BYTE PTR [ebx+0x0],dh
 180141e:	add    BYTE PTR [eax],al
 1801420:	add    BYTE PTR cs:[esi],ch
 1801423:	add    BYTE PTR [eax],al
 1801425:	add    BYTE PTR [eax],al
 1801427:	add    BYTE PTR [eax+0x0],dh
 180142a:	jne    0x180142c
 180142c:	jae    0x180142e
 180142e:	push   0x6400
 1801433:	add    BYTE PTR [eax+0x0],dh
 1801436:	outs   dx,DWORD PTR ds:[esi]
 1801437:	add    BYTE PTR [eax+0x0],dh
 180143a:	add    BYTE PTR fs:[eax],al
 180143d:	add    BYTE PTR [eax],al
 180143f:	add    BYTE PTR [eax+0x0],ch
 1801442:	add    BYTE PTR gs:[eax+eax*1+0x70],ch
 1801447:	add    BYTE PTR [ebp+0x0],ah
 180144a:	jb     0x180144c
 180144c:	add    BYTE PTR [eax],al
 180144e:	add    BYTE PTR [eax],al
 1801450:	ins    DWORD PTR es:[edi],dx
 1801451:	add    BYTE PTR [ecx+0x0],ah
 1801454:	arpl   WORD PTR [eax],ax
 1801456:	push   0x6e006900
 180145b:	add    BYTE PTR [ebp+0x0],ah
 180145e:	add    BYTE PTR [eax],al
 1801460:	data16 add BYTE PTR [ecx+0x0],ch
 1801464:	ins    BYTE PTR es:[edi],dx
 1801465:	add    BYTE PTR [ebp+0x0],ah
 1801468:	add    BYTE PTR [eax],al
 180146a:	add    BYTE PTR [eax],al
 180146c:	popa   
 180146d:	add    BYTE PTR [eax+eax*1+0x64],ah
 1801471:	add    BYTE PTR [eax],al
 1801473:	add    BYTE PTR [eax+eax*1+0x65],ah
 1801477:	add    BYTE PTR [eax+eax*1+0x65],ch
 180147b:	add    BYTE PTR [eax+eax*1+0x65],dh
 180147f:	add    BYTE PTR [eax],al
 1801481:	add    BYTE PTR [eax],al
 1801483:	add    BYTE PTR [ebx+0x0],dh
 1801486:	add    BYTE PTR gs:[eax+eax*1+0x0],dh
 180148b:	add    BYTE PTR [ebx+0x0],dh
 180148e:	push   0x77006f00
 1801493:	add    BYTE PTR [eax],al
 1801495:	add    BYTE PTR [eax],al
 1801497:	add    BYTE PTR [edi],ch
 1801499:	add    BYTE PTR [edi],bh
 180149b:	add    BYTE PTR [eax],al
 180149d:	add    BYTE PTR [eax],al
 180149f:	add    BYTE PTR ds:0x3f00,ch
 18014a5:	add    BYTE PTR [eax],al
 18014a7:	add    BYTE PTR ds:0x22000000,bh
 18014ad:	add    BYTE PTR [eax],al
 18014af:	add    BYTE PTR [esi],bh
 18014b1:	add    BYTE PTR [eax],ah
 18014b3:	add    BYTE PTR ds:0x21003100,ah
 18014b9:	add    BYTE PTR [ebx+0x0],dh
 18014bc:	and    DWORD PTR [eax],eax
 18014be:	or     al,BYTE PTR [eax]
 18014c0:	add    BYTE PTR [eax],al
 18014c2:	add    BYTE PTR [eax],al
 18014c4:	add    BYTE PTR cs:[esi],ch
 18014c7:	add    BYTE PTR [esi],ch
 18014c9:	add    BYTE PTR [eax],al
 18014cb:	add    BYTE PTR [ebx+0x0],bl
 18014ce:	and    eax,0x21003100
 18014d3:	add    BYTE PTR [ebx+0x0],dh
 18014d6:	and    DWORD PTR [eax],eax
 18014d8:	pop    ebp
 18014d9:	add    BYTE PTR [eax],ah
 18014db:	add    BYTE PTR [eax],al
 18014dd:	add    BYTE PTR [eax],al
 18014df:	add    BYTE PTR ds:0x21003100,ah
 18014e5:	add    BYTE PTR [ebx+0x0],dh
 18014e8:	and    DWORD PTR [eax],eax
 18014ea:	add    BYTE PTR ds:[eax],al
 18014ed:	add    BYTE PTR [eax],al
 18014ef:	add    BYTE PTR [edx+0x0],dh
 18014f2:	add    BYTE PTR [eax],al
 18014f4:	pop    esp
 18014f5:	add    BYTE PTR [eax+eax*1+0x25],bl
 18014f9:	add    BYTE PTR [ebx+0x0],dh
 18014fc:	pop    esp
 18014fd:	add    BYTE PTR [ecx+0x0],ch
 1801500:	jo     0x1801502
 1801502:	arpl   WORD PTR [eax],ax
 1801504:	and    al,0x0
 1801506:	add    BYTE PTR [eax],al
 1801508:	inc    edi
 1801509:	add    BYTE PTR [ebp+0x0],ah
 180150c:	je     0x180150e
 180150e:	dec    ebp
 180150f:	add    BYTE PTR [edi+0x0],ch
 1801512:	add    BYTE PTR fs:[ebp+0x0],dh
 1801516:	ins    BYTE PTR es:[edi],dx
 1801517:	add    BYTE PTR [ebp+0x0],ah
 180151a:	dec    eax
 180151b:	add    BYTE PTR [ecx+0x0],ah
 180151e:	outs   dx,BYTE PTR ds:[esi]
 180151f:	add    BYTE PTR [eax+eax*1+0x6c],ah
 1801523:	add    BYTE PTR [ebp+0x0],ah
 1801526:	and    BYTE PTR [eax],al
 1801528:	data16 add BYTE PTR [ecx+0x0],ah
 180152c:	imul   eax,DWORD PTR [eax],0x65006c
 1801532:	add    BYTE PTR fs:[eax],al
 1801535:	add    BYTE PTR [eax],al
 1801537:	add    BYTE PTR ds:0xa007300,ah
 180153d:	add    BYTE PTR [eax],al
 180153f:	add    BYTE PTR ds:0x3e007300,ah
 1801545:	add    BYTE PTR [eax],al
 1801547:	add    BYTE PTR [esi+0x0],ch
 180154a:	add    BYTE PTR gs:[eax+eax*1+0x73],dh
 180154f:	add    BYTE PTR [eax+0x0],ch
 1801552:	add    BYTE PTR cs:[ebp+0x0],ah
 1801556:	js     0x1801558
 1801558:	add    BYTE PTR gs:[eax],al
 180155b:	add    BYTE PTR [eax],al
 180155d:	add    BYTE PTR [eax],al
 180155f:	add    BYTE PTR [ecx+0x0],ah
 1801562:	jo     0x1801564
 1801564:	imul   eax,DWORD PTR [eax],0x6d002d
 180156a:	jae    0x180156c
 180156c:	sub    eax,0x69007700
 1801571:	add    BYTE PTR [esi+0x0],ch
 1801574:	sub    eax,0x70006100
 1801579:	add    BYTE PTR [eax+0x0],dh
 180157c:	ins    DWORD PTR es:[edi],dx
 180157d:	add    BYTE PTR [edi+0x0],ch
 1801580:	add    BYTE PTR fs:[ebp+0x0],ah
 1801584:	ins    BYTE PTR es:[edi],dx
 1801585:	add    BYTE PTR ds:0x75007200,ch
 180158b:	add    BYTE PTR [esi+0x0],ch
 180158e:	je     0x1801590
 1801590:	imul   eax,DWORD PTR [eax],0x65006d
 1801596:	sub    eax,0x31006c00
 180159b:	add    BYTE PTR ds:0x2d003100,ch
 18015a1:	add    BYTE PTR [eax],dh
 18015a3:	add    BYTE PTR [esi],ch
 18015a5:	add    BYTE PTR [eax+eax*1+0x6c],ah
 18015a9:	add    BYTE PTR [eax+eax*1+0x0],ch
 18015ad:	add    BYTE PTR [eax],al
 18015af:	add    BYTE PTR ds:0x6800,ch
 18015b5:	add    BYTE PTR [eax],al
 18015b7:	add    BYTE PTR ds:0x7600,ch
 18015bd:	add    BYTE PTR [eax],al
 18015bf:	add    BYTE PTR ds:0x6100,ch
 18015c5:	add    BYTE PTR [eax],al
 18015c7:	add    BYTE PTR ds:0x6300,ch
 18015cd:	add    BYTE PTR [eax],al
 18015cf:	add    BYTE PTR ds:0x6600,ch
 18015d5:	add    BYTE PTR [eax],al
 18015d7:	add    BYTE PTR ds:0x7200,ch
 18015dd:	add    BYTE PTR [eax],al
 18015df:	add    BYTE PTR ds:0x7500,ch
 18015e5:	add    BYTE PTR [eax],al
 18015e7:	add    BYTE PTR ds:0x7000,ch
 18015ed:	add    BYTE PTR [eax],al
 18015ef:	add    BYTE PTR [eax],al
 18015f1:	add    BYTE PTR [eax],al
 18015f3:	add    BYTE PTR ds:0x2200000a,cl
 18015f9:	add    BYTE PTR ds:0x22007300,ah
 18015ff:	add    BYTE PTR [eax],al
 1801601:	add    BYTE PTR [eax],al
 1801603:	add    BYTE PTR ds:0xa00,cl
 1801609:	add    BYTE PTR [eax],al
 180160b:	add    BYTE PTR [ebp+0x0],al
 180160e:	jb     0x1801610
 1801610:	jb     0x1801612
 1801612:	outs   dx,DWORD PTR ds:[esi]
 1801613:	add    BYTE PTR [edx+0x0],dh
 1801616:	and    BYTE PTR [eax],al
 1801618:	and    eax,0x20006400
 180161d:	add    BYTE PTR [ecx+0x0],ch
 1801620:	outs   dx,BYTE PTR ds:[esi]
 1801621:	add    BYTE PTR [eax],ah
 1801623:	add    BYTE PTR [esi+0x0],al
 1801626:	outs   dx,DWORD PTR ds:[esi]
 1801627:	add    BYTE PTR [edx+0x0],dh
 180162a:	ins    DWORD PTR es:[edi],dx
 180162b:	add    BYTE PTR [ecx+0x0],ah
 180162e:	je     0x1801630
 1801630:	dec    ebp
 1801631:	add    BYTE PTR [ebp+0x0],ah
 1801634:	jae    0x1801636
 1801636:	jae    0x1801638
 1801638:	popa   
 1801639:	add    BYTE PTR [edi+0x0],ah
 180163c:	add    BYTE PTR gs:[edi+0x0],dl
 1801640:	sub    BYTE PTR [eax],al
 1801642:	sub    DWORD PTR [eax],eax
 1801644:	or     al,BYTE PTR [eax]
 1801646:	add    BYTE PTR [eax],al
 1801648:	inc    edi
 1801649:	gs je  0x180169e
 180164c:	gs jae 0x18016be
 180164f:	jne    0x18016c3
 1801651:	arpl   WORD PTR [ebp+0x53],sp
 1801654:	je     0x18016c8
 1801656:	imul   ebp,DWORD PTR [esi+0x67],0x4e000000
 180165d:	add    BYTE PTR [ebp+0x0],ah
 1801660:	je     0x1801662
 1801662:	jae    0x1801664
 1801664:	push   0x74005300
 1801669:	add    BYTE PTR [edi+0x0],ch
 180166c:	jo     0x180166e
 180166e:	push   edx
 180166f:	add    BYTE PTR [ebp+0x0],ah
 1801672:	data16 add BYTE PTR [edx+0x0],dh
 1801676:	add    BYTE PTR gs:[ebx+0x0],dh
 180167a:	push   0x76004500
 180167f:	add    BYTE PTR [ebp+0x0],ah
 1801682:	outs   dx,BYTE PTR ds:[esi]
 1801683:	add    BYTE PTR [eax+eax*1+0x0],dh
 1801687:	add    BYTE PTR ds:0x21003100,ah
 180168d:	add    BYTE PTR ds:0x34003100,ch
 1801693:	add    BYTE PTR [ebx+0x0],dh
 1801696:	and    DWORD PTR [eax],eax
 1801698:	and    BYTE PTR [eax],al
 180169a:	sub    eax,0x2000
 180169f:	add    BYTE PTR [eax],ah
 18016a1:	add    BYTE PTR ds:0x21003100,ah
 18016a7:	add    BYTE PTR [ebx+0x0],dh
 18016aa:	and    DWORD PTR [eax],eax
 18016ac:	add    BYTE PTR [eax],al
 18016ae:	add    BYTE PTR [eax],al
 18016b0:	outs   dx,BYTE PTR ds:[esi]
 18016b1:	add    BYTE PTR [ebp+0x0],ah
 18016b4:	je     0x18016b6
 18016b6:	jae    0x18016b8
 18016b8:	push   0x6e002000
 18016bd:	add    BYTE PTR [ecx+0x0],ah
 18016c0:	ins    DWORD PTR es:[edi],dx
 18016c1:	add    BYTE PTR [ebp+0x0],ah
 18016c4:	jae    0x18016c6
 18016c6:	jo     0x18016c8
 18016c8:	popa   
 18016c9:	add    BYTE PTR [ebx+0x0],ah
 18016cc:	add    BYTE PTR gs:[eax],al
 18016cf:	add    BYTE PTR [eax+eax*1+0x6e],al
 18016d3:	add    BYTE PTR [ebx+0x0],dh
 18016d6:	inc    ebx
 18016d7:	add    BYTE PTR [eax+eax*1+0x69],ch
 18016db:	add    BYTE PTR [ebp+0x0],ah
 18016de:	outs   dx,BYTE PTR ds:[esi]
 18016df:	add    BYTE PTR [eax+eax*1+0x0],dh
 18016e3:	add    BYTE PTR [esi+0x0],cl
 18016e6:	push   edx
 18016e7:	add    BYTE PTR [eax+0x0],dl
 18016ea:	push   esp
 18016eb:	add    BYTE PTR [eax],al
 18016ed:	add    BYTE PTR [eax],al
 18016ef:	add    BYTE PTR [esi+0x0],ch
 18016f2:	add    BYTE PTR gs:[eax+eax*1+0x73],dh
 18016f7:	add    BYTE PTR [eax+0x0],ch
 18016fa:	and    BYTE PTR [eax],al
 18016fc:	bound  eax,QWORD PTR [eax]
 18016fe:	jb     0x1801700
 1801700:	popa   
 1801701:	add    BYTE PTR [esi+0x0],ch
 1801704:	arpl   WORD PTR [eax],ax
 1801706:	push   0x61006300
 180170b:	add    BYTE PTR [ebx+0x0],ah
 180170e:	push   0x6500
 1801713:	add    BYTE PTR [edx+0x0],al
 1801716:	jb     0x1801718
 1801718:	popa   
 1801719:	add    BYTE PTR [esi+0x0],ch
 180171c:	arpl   WORD PTR [eax],ax
 180171e:	push   0x61004300
 1801723:	add    BYTE PTR [ebx+0x0],ah
 1801726:	push   0x6500
 180172b:	add    BYTE PTR [esi+0x0],ch
 180172e:	add    BYTE PTR gs:[eax+eax*1+0x73],dh
 1801733:	add    BYTE PTR [eax+0x0],ch
 1801736:	and    BYTE PTR [eax],al
 1801738:	popa   
 1801739:	add    BYTE PTR [eax+eax*1+0x76],ah
 180173d:	add    BYTE PTR [esi+0x0],ah
 1801740:	imul   eax,DWORD PTR [eax],0x650072
 1801746:	ja     0x1801748
 1801748:	popa   
 1801749:	add    BYTE PTR [eax+eax*1+0x6c],ch
 180174d:	add    BYTE PTR [eax],al
 180174f:	add    BYTE PTR [esi+0x0],cl
 1801752:	add    BYTE PTR gs:[eax+eax*1+0x53],dh
 1801757:	add    BYTE PTR [ebp+0x0],ah
 180175a:	arpl   WORD PTR [eax],ax
 180175c:	jne    0x180175e
 180175e:	jb     0x1801760
 1801760:	imul   eax,DWORD PTR [eax],0x790074
 1801766:	add    BYTE PTR [eax],al
 1801768:	push   edi
 1801769:	add    BYTE PTR [ecx+0x0],ch
 180176c:	outs   dx,BYTE PTR ds:[esi]
 180176d:	add    BYTE PTR [eax+eax*1+0x6f],ah
 1801771:	add    BYTE PTR [edi+0x0],dh
 1801774:	jae    0x1801776
 1801776:	and    BYTE PTR [eax],al
 1801778:	inc    esi
 1801779:	add    BYTE PTR [ecx+0x0],ch
 180177c:	jb     0x180177e
 180177e:	add    BYTE PTR gs:[edi+0x0],dh
 1801782:	popa   
 1801783:	add    BYTE PTR [eax+eax*1+0x6c],ch
 1801787:	add    BYTE PTR [eax],ah
 1801789:	add    BYTE PTR [edi+0x0],dh
 180178c:	imul   eax,DWORD PTR [eax],0x680074
 1801792:	and    BYTE PTR [eax],al
 1801794:	inc    ecx
 1801795:	add    BYTE PTR [eax+eax*1+0x76],ah
 1801799:	add    BYTE PTR [ecx+0x0],ah
 180179c:	outs   dx,BYTE PTR ds:[esi]
 180179d:	add    BYTE PTR [ebx+0x0],ah
 18017a0:	add    BYTE PTR gs:[eax+eax*1+0x20],ah
 18017a5:	add    BYTE PTR [ebx+0x0],dl
 18017a8:	add    BYTE PTR gs:[ebx+0x0],ah
 18017ac:	jne    0x18017ae
 18017ae:	jb     0x18017b0
 18017b0:	imul   eax,DWORD PTR [eax],0x790074
 18017b6:	add    BYTE PTR [eax],al
 18017b8:	outs   dx,BYTE PTR ds:[esi]
 18017b9:	add    BYTE PTR [ebp+0x0],ah
 18017bc:	je     0x18017be
 18017be:	jae    0x18017c0
 18017c0:	push   0x66002000
 18017c5:	add    BYTE PTR [ecx+0x0],ch
 18017c8:	jb     0x18017ca
 18017ca:	add    BYTE PTR gs:[edi+0x0],dh
 18017ce:	popa   
 18017cf:	add    BYTE PTR [eax+eax*1+0x6c],ch
 18017d3:	add    BYTE PTR [eax],al
 18017d5:	add    BYTE PTR [eax],al
 18017d7:	add    BYTE PTR [esi+0x0],ch
 18017da:	add    BYTE PTR gs:[eax+eax*1+0x73],dh
 18017df:	add    BYTE PTR [eax+0x0],ch
 18017e2:	and    BYTE PTR [eax],al
 18017e4:	imul   eax,DWORD PTR [eax],0x74006e
 18017ea:	add    BYTE PTR gs:[edx+0x0],dh
 18017ee:	data16 add BYTE PTR [ecx+0x0],ah
 18017f2:	arpl   WORD PTR [eax],ax
 18017f4:	add    BYTE PTR gs:[eax],al
 18017f7:	add    BYTE PTR [esi+0x0],cl
 18017fa:	add    BYTE PTR gs:[eax+eax*1+0x54],dh
 18017ff:	add    BYTE PTR [ebx+0x0],al
 1801802:	push   eax
 1801803:	add    BYTE PTR [ecx+0x0],cl
 1801806:	push   eax
 1801807:	add    BYTE PTR [eax],al
 1801809:	add    BYTE PTR [eax],al
 180180b:	add    BYTE PTR [eax+eax*1+0x43],dl
 180180f:	add    BYTE PTR [eax+0x0],dl
 1801812:	das    
 1801813:	add    BYTE PTR [ecx+0x0],cl
 1801816:	push   eax
 1801817:	add    BYTE PTR [eax],al
 1801819:	add    BYTE PTR [eax],al
 180181b:	add    BYTE PTR [esi+0x0],ch
 180181e:	add    BYTE PTR gs:[eax+eax*1+0x73],dh
 1801823:	add    BYTE PTR [eax+0x0],ch
 1801826:	and    BYTE PTR [eax],al
 1801828:	add    BYTE PTR fs:[eax+0x0],ch
 180182c:	arpl   WORD PTR [eax],ax
 180182e:	jo     0x1801830
 1801830:	add    BYTE PTR [eax],al
 1801832:	add    BYTE PTR [eax],al
 1801834:	inc    esp
 1801835:	add    BYTE PTR [eax+0x0],ch
 1801838:	arpl   WORD PTR [eax],ax
 180183a:	jo     0x180183c
 180183c:	push   ebx
 180183d:	add    BYTE PTR [ebp+0x0],ah
 1801840:	jb     0x1801842
 1801842:	jbe    0x1801844
 1801844:	add    BYTE PTR gs:[edx+0x0],dh
 1801848:	add    BYTE PTR [eax],al
 180184a:	add    BYTE PTR [eax],al
 180184c:	inc    esp
 180184d:	add    BYTE PTR [eax+0x0],cl
 1801850:	inc    ebx
 1801851:	add    BYTE PTR [eax+0x0],dl
 1801854:	and    BYTE PTR [eax],al
 1801856:	push   ebx
 1801857:	add    BYTE PTR [ebp+0x0],ah
 180185a:	jb     0x180185c
 180185c:	jbe    0x180185e
 180185e:	add    BYTE PTR gs:[edx+0x0],dh
 1801862:	add    BYTE PTR [eax],al
 1801864:	outs   dx,BYTE PTR ds:[esi]
 1801865:	add    BYTE PTR [ebp+0x0],ah
 1801868:	je     0x180186a
 180186a:	jae    0x180186c
 180186c:	push   0x64002000
 1801871:	add    BYTE PTR [esi+0x0],ch
 1801874:	jae    0x1801876
 1801876:	arpl   WORD PTR [eax],ax
 1801878:	ins    BYTE PTR es:[edi],dx
 1801879:	add    BYTE PTR [ecx+0x0],ch
 180187c:	add    BYTE PTR gs:[esi+0x0],ch
 1801880:	je     0x1801882
 1801882:	add    BYTE PTR [eax],al
 1801884:	inc    esp
 1801885:	add    BYTE PTR [esi+0x0],cl
 1801888:	push   ebx
 1801889:	add    BYTE PTR [eax],ah
 180188b:	add    BYTE PTR [ebx+0x0],al
 180188e:	ins    BYTE PTR es:[edi],dx
 180188f:	add    BYTE PTR [ecx+0x0],ch
 1801892:	add    BYTE PTR gs:[esi+0x0],ch
 1801896:	je     0x1801898
 1801898:	add    BYTE PTR [eax],al
 180189a:	add    BYTE PTR [eax],al
 180189c:	outs   dx,BYTE PTR ds:[esi]
 180189d:	add    BYTE PTR [ecx+0x0],ah
 18018a0:	ins    DWORD PTR es:[edi],dx
 18018a1:	add    BYTE PTR [ebp+0x0],ah
 18018a4:	jae    0x18018a6
 18018a6:	jo     0x18018a8
 18018a8:	popa   
 18018a9:	add    BYTE PTR [ebx+0x0],ah
 18018ac:	add    BYTE PTR gs:[eax],al
 18018af:	add    BYTE PTR [edx+0x0],ah
 18018b2:	jb     0x18018b4
 18018b4:	popa   
 18018b5:	add    BYTE PTR [esi+0x0],ch
 18018b8:	arpl   WORD PTR [eax],ax
 18018ba:	push   0x61006300
 18018bf:	add    BYTE PTR [ebx+0x0],ah
 18018c2:	push   0x6500
 18018c7:	add    BYTE PTR [ecx+0x0],ah
 18018ca:	add    BYTE PTR fs:[esi+0x0],dh
 18018ce:	data16 add BYTE PTR [ecx+0x0],ch
 18018d2:	jb     0x18018d4
 18018d4:	add    BYTE PTR gs:[edi+0x0],dh
 18018d8:	popa   
 18018d9:	add    BYTE PTR [eax+eax*1+0x6c],ch
 18018dd:	add    BYTE PTR [eax],al
 18018df:	add    BYTE PTR [esi+0x0],ah
 18018e2:	imul   eax,DWORD PTR [eax],0x650072
 18018e8:	ja     0x18018ea
 18018ea:	popa   
 18018eb:	add    BYTE PTR [eax+eax*1+0x6c],ch
 18018ef:	add    BYTE PTR [eax],al
 18018f1:	add    BYTE PTR [eax],al
 18018f3:	add    BYTE PTR [ecx+0x0],ch
 18018f6:	outs   dx,BYTE PTR ds:[esi]
 18018f7:	add    BYTE PTR [eax+eax*1+0x65],dh
 18018fb:	add    BYTE PTR [edx+0x0],dh
 18018fe:	data16 add BYTE PTR [ecx+0x0],ah
 1801902:	arpl   WORD PTR [eax],ax
 1801904:	add    BYTE PTR gs:[eax],al
 1801907:	add    BYTE PTR [eax+eax*1+0x68],ah
 180190b:	add    BYTE PTR [ebx+0x0],ah
 180190e:	jo     0x1801910
 1801910:	add    BYTE PTR [eax],al
 1801912:	add    BYTE PTR [eax],al
 1801914:	add    BYTE PTR fs:[esi+0x0],ch
 1801918:	jae    0x180191a
 180191a:	arpl   WORD PTR [eax],ax
 180191c:	ins    BYTE PTR es:[edi],dx
 180191d:	add    BYTE PTR [ecx+0x0],ch
 1801920:	add    BYTE PTR gs:[esi+0x0],ch
 1801924:	je     0x1801926
 1801926:	add    BYTE PTR [eax],al
 1801928:	pop    es
 1801929:	and    eax,0x248a0000
 180192e:	add    BYTE PTR [eax],al
 1801930:	mov    DWORD PTR [eax+eax*1],esp
 1801933:	add    BYTE PTR [edi-0x79ffffdc],al
 1801939:	and    al,0x0
 180193b:	add    BYTE PTR [ebp-0x7bffffdc],al
 1801941:	and    al,0x0
 1801943:	add    BYTE PTR [edx+0x0],dh
 1801946:	outs   dx,DWORD PTR ds:[esi]
 1801947:	add    BYTE PTR [ebp+0x0],dh
 180194a:	je     0x180194c
 180194c:	imul   eax,DWORD PTR [eax],0x67006e
 1801952:	add    BYTE PTR [eax],al
 1801954:	imul   eax,DWORD PTR [eax],0x70
 180195a:	add    BYTE PTR [eax],al
 180195c:	imul   eax,DWORD PTR [eax],0x760070
 1801962:	add    BYTE PTR ss:[eax],al
 1801965:	add    BYTE PTR [eax],al
 1801967:	add    BYTE PTR [ecx+0x0],ah
 180196a:	popa   
 180196b:	add    BYTE PTR [ecx+0x0],ah
 180196e:	popa   
 180196f:	add    BYTE PTR [eax],al
 1801971:	add    BYTE PTR [eax],al
 1801973:	add    BYTE PTR [edx+0x0],dh
 1801976:	popa   
 1801977:	add    BYTE PTR [ebx+0x0],dh
 180197a:	add    BYTE PTR [eax],al
 180197c:	je     0x180197e
 180197e:	jb     0x1801980
 1801980:	popa   
 1801981:	add    BYTE PTR [ebx+0x0],ah
 1801984:	imul   eax,DWORD PTR [eax],0x67006e
 180198a:	add    BYTE PTR [eax],al
 180198c:	add    BYTE PTR fs:[ecx+0x0],ch
 1801990:	popa   
 1801991:	add    BYTE PTR [edi+0x0],ah
 1801994:	outs   dx,BYTE PTR ds:[esi]
 1801995:	add    BYTE PTR [edi+0x0],ch
 1801998:	jae    0x180199a
 180199a:	je     0x180199c
 180199c:	imul   eax,DWORD PTR [eax],0x730063
 18019a2:	add    BYTE PTR [eax],al
 18019a4:	dec    ebp
 18019a5:	add    BYTE PTR [ebp+0x0],dh
 18019a8:	ins    BYTE PTR es:[edi],dx
 18019a9:	add    BYTE PTR [eax+eax*1+0x69],dh
 18019ad:	add    BYTE PTR [eax+eax*1+0x65],dl
 18019b1:	add    BYTE PTR [esi+0x0],ch
 18019b4:	popa   
 18019b5:	add    BYTE PTR [esi+0x0],ch
 18019b8:	arpl   WORD PTR [eax],ax
 18019ba:	jns    0x18019bc
 18019bc:	inc    ebp
 18019bd:	add    BYTE PTR [esi+0x0],ch
 18019c0:	popa   
 18019c1:	add    BYTE PTR [edx+0x0],ah
 18019c4:	ins    BYTE PTR es:[edi],dx
 18019c5:	add    BYTE PTR [ebp+0x0],ah
 18019c8:	add    BYTE PTR fs:[eax],al
 18019cb:	add    BYTE PTR [eax],al
 18019cd:	add    BYTE PTR [eax],al
 18019cf:	add    BYTE PTR [ebx+0x0],dl
 18019d2:	jns    0x18019d4
 18019d4:	jae    0x18019d6
 18019d6:	je     0x18019d8
 18019d8:	add    BYTE PTR gs:[ebp+0x0],ch
 18019dc:	pop    esp
 18019dd:	add    BYTE PTR [ebx+0x0],al
 18019e0:	jne    0x18019e2
 18019e2:	jb     0x18019e4
 18019e4:	jb     0x18019e6
 18019e6:	add    BYTE PTR gs:[esi+0x0],ch
 18019ea:	je     0x18019ec
 18019ec:	inc    ebx
 18019ed:	add    BYTE PTR [edi+0x0],ch
 18019f0:	outs   dx,BYTE PTR ds:[esi]
 18019f1:	add    BYTE PTR [eax+eax*1+0x72],dh
 18019f5:	add    BYTE PTR [edi+0x0],ch
 18019f8:	ins    BYTE PTR es:[edi],dx
 18019f9:	add    BYTE PTR [ebx+0x0],dl
 18019fc:	add    BYTE PTR gs:[eax+eax*1+0x5c],dh
 1801a01:	add    BYTE PTR [ebx+0x0],dl
 1801a04:	add    BYTE PTR gs:[edx+0x0],dh
 1801a08:	jbe    0x1801a0a
 1801a0a:	imul   eax,DWORD PTR [eax],0x650063
 1801a10:	jae    0x1801a12
 1801a12:	pop    esp
 1801a13:	add    BYTE PTR [edx+0x0],dl
 1801a16:	add    BYTE PTR gs:[ebp+0x0],ch
 1801a1a:	outs   dx,DWORD PTR ds:[esi]
 1801a1b:	add    BYTE PTR [eax+eax*1+0x65],dh
 1801a1f:	add    BYTE PTR [ecx+0x0],al
 1801a22:	arpl   WORD PTR [eax],ax
 1801a24:	arpl   WORD PTR [eax],ax
 1801a26:	add    BYTE PTR gs:[ebx+0x0],dh
 1801a2a:	jae    0x1801a2c
 1801a2c:	pop    esp
 1801a2d:	add    BYTE PTR [eax+0x0],dl
 1801a30:	popa   
 1801a31:	add    BYTE PTR [edx+0x0],dh
 1801a34:	popa   
 1801a35:	add    BYTE PTR [ebp+0x0],ch
 1801a38:	add    BYTE PTR gs:[eax+eax*1+0x65],dh
 1801a3d:	add    BYTE PTR [edx+0x0],dh
 1801a40:	jae    0x1801a42
 1801a42:	add    BYTE PTR [eax],al
 1801a44:	add    BYTE PTR cs:[eax],al
 1801a47:	add    BYTE PTR [eax+eax*1+0x5c],bl
 1801a4b:	add    BYTE PTR ds:0x5c007300,ah
 1801a51:	add    BYTE PTR [edx+0x0],dh
 1801a54:	outs   dx,DWORD PTR ds:[esi]
 1801a55:	add    BYTE PTR [edi+0x0],ch
 1801a58:	je     0x1801a5a
 1801a5a:	pop    esp
 1801a5b:	add    BYTE PTR [ebx+0x0],ah
 1801a5e:	imul   eax,DWORD PTR [eax],0x76006d
 1801a64:	xor    al,BYTE PTR [eax]
 1801a66:	add    BYTE PTR [eax],al
 1801a68:	push   edi
 1801a69:	add    BYTE PTR [ecx+0x0],dl
 1801a6c:	dec    esp
 1801a6d:	add    BYTE PTR [eax],al
 1801a6f:	add    BYTE PTR [ebx+0x0],dh
 1801a72:	add    BYTE PTR gs:[eax+eax*1+0x65],ch
 1801a77:	add    BYTE PTR [ebx+0x0],ah
 1801a7a:	je     0x1801a7c
 1801a7c:	and    BYTE PTR [eax],al
 1801a7e:	sub    al,BYTE PTR [eax]
 1801a80:	and    BYTE PTR [eax],al
 1801a82:	data16 add BYTE PTR [edx+0x0],dh
 1801a86:	outs   dx,DWORD PTR ds:[esi]
 1801a87:	add    BYTE PTR [ebp+0x0],ch
 1801a8a:	and    BYTE PTR [eax],al
 1801a8c:	push   edi
 1801a8d:	add    BYTE PTR [ecx+0x0],ch
 1801a90:	outs   dx,BYTE PTR ds:[esi]
 1801a91:	add    BYTE PTR [ebx],dh
 1801a93:	add    BYTE PTR [edx],dh
 1801a95:	add    BYTE PTR [edi+0x0],bl
 1801a98:	dec    edi
 1801a99:	add    BYTE PTR [eax+0x0],dh
 1801a9c:	add    BYTE PTR gs:[edx+0x0],dh
 1801aa0:	popa   
 1801aa1:	add    BYTE PTR [eax+eax*1+0x69],dh
 1801aa5:	add    BYTE PTR [esi+0x0],ch
 1801aa8:	add    BYTE PTR [bp+di+0x0],dl
 1801aac:	jns    0x1801aae
 1801aae:	jae    0x1801ab0
 1801ab0:	je     0x1801ab2
 1801ab2:	add    BYTE PTR gs:[ebp+0x0],ch
 1801ab6:	add    BYTE PTR [eax],al
 1801ab8:	dec    edi
 1801ab9:	add    BYTE PTR [ebx+0x0],dl
 1801abc:	push   esp
 1801abd:	add    BYTE PTR [ecx+0x0],bh
 1801ac0:	jo     0x1801ac2
 1801ac2:	add    BYTE PTR gs:[eax],al
 1801ac5:	add    BYTE PTR [eax],al
 1801ac7:	add    BYTE PTR [esi+0x0],dl
 1801aca:	add    BYTE PTR gs:[edx+0x0],dh
 1801ace:	jae    0x1801ad0
 1801ad0:	imul   eax,DWORD PTR [eax],0x6e006f
 1801ad6:	add    BYTE PTR [eax],al
 1801ad8:	dec    edi
 1801ad9:	add    BYTE PTR [ebx+0x0],dl
 1801adc:	push   eax
 1801add:	add    BYTE PTR [edx+0x0],dh
 1801ae0:	outs   dx,DWORD PTR ds:[esi]
 1801ae1:	add    BYTE PTR [eax+eax*1+0x75],ah
 1801ae5:	add    BYTE PTR [ebx+0x0],ah
 1801ae8:	je     0x1801aea
 1801aea:	push   ebx
 1801aeb:	add    BYTE PTR [ebp+0x0],dh
 1801aee:	imul   eax,DWORD PTR [eax],0x650074
 1801af4:	add    BYTE PTR [eax],al
 1801af6:	add    BYTE PTR [eax],al
 1801af8:	inc    edx
 1801af9:	add    BYTE PTR [ebp+0x0],dh
 1801afc:	imul   eax,DWORD PTR [eax],0x64006c
 1801b02:	dec    esi
 1801b03:	add    BYTE PTR [ebp+0x0],dh
 1801b06:	ins    DWORD PTR es:[edi],dx
 1801b07:	add    BYTE PTR [edx+0x0],ah
 1801b0a:	add    BYTE PTR gs:[edx+0x0],dh
 1801b0e:	add    BYTE PTR [eax],al
 1801b10:	push   ebx
 1801b11:	add    BYTE PTR [ebp+0x0],ah
 1801b14:	jb     0x1801b16
 1801b16:	jbe    0x1801b18
 1801b18:	imul   eax,DWORD PTR [eax],0x650063
 1801b1e:	push   eax
 1801b1f:	add    BYTE PTR [ecx+0x0],ah
 1801b22:	arpl   WORD PTR [eax],ax
 1801b24:	imul   eax,DWORD PTR [eax],0x4d
 1801b27:	add    BYTE PTR [ecx+0x0],ah
 1801b2a:	push   0x0
 1801b2c:	outs   dx,DWORD PTR ds:[esi]
 1801b2d:	add    BYTE PTR [edx+0x0],dh
 1801b30:	push   esi
 1801b31:	add    BYTE PTR [ebp+0x0],ah
 1801b34:	jb     0x1801b36
 1801b36:	jae    0x1801b38
 1801b38:	imul   eax,DWORD PTR [eax],0x6e006f
 1801b3e:	add    BYTE PTR [eax],al
 1801b40:	push   ebx
 1801b41:	add    BYTE PTR [ebp+0x0],ah
 1801b44:	jb     0x1801b46
 1801b46:	jbe    0x1801b48
 1801b48:	imul   eax,DWORD PTR [eax],0x650063
 1801b4e:	push   eax
 1801b4f:	add    BYTE PTR [ecx+0x0],ah
 1801b52:	arpl   WORD PTR [eax],ax
 1801b54:	imul   eax,DWORD PTR [eax],0x4d
 1801b57:	add    BYTE PTR [ecx+0x0],ch
 1801b5a:	outs   dx,BYTE PTR ds:[esi]
 1801b5b:	add    BYTE PTR [edi+0x0],ch
 1801b5e:	jb     0x1801b60
 1801b60:	push   esi
 1801b61:	add    BYTE PTR [ebp+0x0],ah
 1801b64:	jb     0x1801b66
 1801b66:	jae    0x1801b68
 1801b68:	imul   eax,DWORD PTR [eax],0x6e006f
 1801b6e:	add    BYTE PTR [eax],al
 1801b70:	and    eax,0x2e006400
 1801b75:	add    BYTE PTR ds:0x2e006400,ah
 1801b7b:	add    BYTE PTR ds:0x6400,ah
 1801b81:	add    BYTE PTR [eax],al
 1801b83:	add    BYTE PTR ds:0x6400,ah
 1801b89:	add    BYTE PTR [eax],al
 1801b8b:	add    BYTE PTR [ecx],dl
 1801b8d:	clc    
 1801b8e:	nop
 1801b8f:	inc    ebp
 1801b90:	cmp    bl,BYTE PTR ds:0x1f8911d0
 1801b96:	add    BYTE PTR [edx+0x242e4b00],ch
 1801b9c:	xchg   DWORD PTR [esi+0x737fdc12],esp
 1801ba2:	iret   
 1801ba3:	adc    DWORD PTR [eax+0xaa004d],ecx
 1801ba9:	dec    ebx
 1801baa:	cs and al,0x0
 1801bad:	add    BYTE PTR [eax],al
 1801baf:	add    BYTE PTR [eax],al
 1801bb1:	add    BYTE PTR [eax],al
 1801bb3:	add    cl,ah
 1801bb5:	cmp    bl,BYTE PTR [edi+0x55]
 1801bbb:	add    BYTE PTR [edx],al
 1801bbd:	add    BYTE PTR [eax],al
 1801bbf:	add    BYTE PTR [edx],ah
 1801bc1:	add    BYTE PTR [eax],al
 1801bc3:	add    BYTE PTR [esp+ebx*1+0x0],dh
 1801bc7:	add    BYTE PTR [eax+edx*1+0x0],dh
 1801bcb:	add    BYTE PTR [eax],al
 1801bcd:	add    BYTE PTR [eax],al
 1801bcf:	add    cl,ah
 1801bd1:	cmp    bl,BYTE PTR [edi+0x55]
 1801bd7:	add    BYTE PTR ds:0x50000000,cl
 1801bdd:	add    al,BYTE PTR [eax]
 1801bdf:	add    BYTE PTR [esp+ebx*1+0x10ac0000],ch
	...
 1801c06:	add    BYTE PTR [eax],al
 1801c08:	push   0x0
	...
 1801c41:	add    BYTE PTR [eax],al
 1801c43:	add    BYTE PTR [eax+esi*4],al
 1801c46:	add    BYTE PTR [ecx],0x70
 1801c49:	sbb    al,0x80
 1801c4b:	add    DWORD PTR [ecx],eax
 1801c4d:	add    BYTE PTR [eax],al
 1801c4f:	add    BYTE PTR [edx+edx*4],dl
 1801c52:	add    DWORD PTR [ecx],0x0
 1801c58:	sbb    al,0x10
 1801c5a:	add    BYTE PTR [ecx],0x40
 1801c5d:	add    BYTE PTR [eax],al
 1801c5f:	add    BYTE PTR [eax],al
 1801c61:	xor    eax,0x0
	...
 1801c6e:	add    BYTE PTR [eax],al
 1801c70:	jo     0x1801c11
 1801c72:	add    BYTE PTR [eax],al
 1801c74:	push   edx
 1801c75:	push   ebx
 1801c76:	inc    esp
 1801c77:	push   ebx
 1801c78:	adc    eax,0xd51abcbe
 1801c7d:	cld    
 1801c7e:	sbb    eax,0xd360a341
 1801c83:	dec    ecx
 1801c84:	or     cl,0x8c
 1801c87:	lds    eax,FWORD PTR [ecx]
 1801c89:	add    BYTE PTR [eax],al
 1801c8b:	add    BYTE PTR [esi+0x65],ch
 1801c8e:	je     0x1801d03
 1801c90:	push   0x6264702e
	...
 1801ca9:	add    BYTE PTR [eax],al
 1801cab:	add    BYTE PTR [edi+0x43],al
 1801cae:	push   esp
 1801caf:	dec    esp
 1801cb0:	add    BYTE PTR [eax],dl
 1801cb2:	add    BYTE PTR [eax],al
 1801cb4:	add    al,0x0
 1801cb6:	add    BYTE PTR [eax],al
 1801cb8:	cs inc ebx
 1801cba:	push   edx
 1801cbb:	push   esp
 1801cbc:	and    al,0x58
 1801cbe:	inc    ebx
 1801cbf:	inc    ecx
 1801cc0:	add    BYTE PTR [eax],al
 1801cc2:	add    BYTE PTR [eax],al
 1801cc4:	add    al,0x10
 1801cc6:	add    BYTE PTR [eax],al
 1801cc8:	add    al,0x0
 1801cca:	add    BYTE PTR [eax],al
 1801ccc:	cs inc ebx
 1801cce:	push   edx
 1801ccf:	push   esp
 1801cd0:	and    al,0x58
 1801cd2:	inc    ebx
 1801cd3:	inc    ecx
 1801cd4:	inc    ecx
 1801cd5:	add    BYTE PTR [eax],al
 1801cd7:	add    BYTE PTR [eax],cl
 1801cd9:	adc    BYTE PTR [eax],al
 1801cdb:	add    BYTE PTR [eax+eax*1],al
 1801cde:	add    BYTE PTR [eax],al
 1801ce0:	cs inc ebx
 1801ce2:	push   edx
 1801ce3:	push   esp
 1801ce4:	and    al,0x58
 1801ce6:	inc    ebx
 1801ce7:	pop    edx
 1801ce8:	add    BYTE PTR [eax],al
 1801cea:	add    BYTE PTR [eax],al
 1801cec:	or     al,0x10
 1801cee:	add    BYTE PTR [eax],al
 1801cf0:	add    al,0x0
 1801cf2:	add    BYTE PTR [eax],al
 1801cf4:	cs inc ebx
 1801cf6:	push   edx
 1801cf7:	push   esp
 1801cf8:	and    al,0x58
 1801cfa:	dec    ecx
 1801cfb:	inc    ecx
 1801cfc:	add    BYTE PTR [eax],al
 1801cfe:	add    BYTE PTR [eax],al
 1801d00:	adc    BYTE PTR [eax],dl
 1801d02:	add    BYTE PTR [eax],al
 1801d04:	add    al,0x0
 1801d06:	add    BYTE PTR [eax],al
 1801d08:	cs inc ebx
 1801d0a:	push   edx
 1801d0b:	push   esp
 1801d0c:	and    al,0x58
 1801d0e:	dec    ecx
 1801d0f:	inc    ecx
 1801d10:	inc    ecx
 1801d11:	add    BYTE PTR [eax],al
 1801d13:	add    BYTE PTR [eax+edx*1],dl
 1801d16:	add    BYTE PTR [eax],al
 1801d18:	add    al,0x0
 1801d1a:	add    BYTE PTR [eax],al
 1801d1c:	cs inc ebx
 1801d1e:	push   edx
 1801d1f:	push   esp
 1801d20:	and    al,0x58
 1801d22:	dec    ecx
 1801d23:	pop    ecx
 1801d24:	add    BYTE PTR [eax],al
 1801d26:	add    BYTE PTR [eax],al
 1801d28:	sbb    BYTE PTR [eax],dl
 1801d2a:	add    BYTE PTR [eax],al
 1801d2c:	add    al,0x0
 1801d2e:	add    BYTE PTR [eax],al
 1801d30:	cs inc ebx
 1801d32:	push   edx
 1801d33:	push   esp
 1801d34:	and    al,0x58
 1801d36:	dec    ecx
 1801d37:	pop    edx
 1801d38:	add    BYTE PTR [eax],al
 1801d3a:	add    BYTE PTR [eax],al
 1801d3c:	sbb    al,0x10
 1801d3e:	add    BYTE PTR [eax],al
 1801d40:	add    BYTE PTR [ecx],al
 1801d42:	add    BYTE PTR [eax],al
 1801d44:	imul   sp,WORD PTR cs:[si+0x73],0x7824
 1801d4c:	add    BYTE PTR [eax],al
 1801d4e:	add    BYTE PTR [eax],al
 1801d50:	and    BYTE PTR [ecx],dl
 1801d52:	add    BYTE PTR [eax],al
 1801d54:	push   eax
 1801d55:	or     eax,DWORD PTR [eax]
 1801d57:	add    BYTE PTR [esi],ch
 1801d59:	jb     0x1801dbf
 1801d5b:	popa   
 1801d5c:	je     0x1801dbf
 1801d5e:	add    BYTE PTR [eax],al
 1801d60:	jo     0x1801d7e
 1801d62:	add    BYTE PTR [eax],al
 1801d64:	add    al,0x0
 1801d66:	add    BYTE PTR [eax],al
 1801d68:	cs jb  0x1801dcf
 1801d6b:	popa   
 1801d6c:	je     0x1801dcf
 1801d6e:	and    al,0x73
 1801d70:	js     0x1801dd6
 1801d72:	popa   
 1801d73:	je     0x1801dd6
 1801d75:	add    BYTE PTR [eax],al
 1801d77:	add    BYTE PTR [esp+ebx*1+0x0],dh
 1801d7b:	add    BYTE PTR [eax+0x2e000002],cl
 1801d81:	jb     0x1801de7
 1801d83:	popa   
 1801d84:	je     0x1801de7
 1801d86:	and    al,0x7a
 1801d88:	jp     0x1801e04
 1801d8a:	bound  esp,QWORD PTR fs:[edi+0x0]
 1801d8e:	add    BYTE PTR [eax],al
 1801d90:	add    BYTE PTR [edi],bl
 1801d92:	add    BYTE PTR [eax],al
 1801d94:	bound  eax,QWORD PTR [edx+0x742e0000]
 1801d9a:	gs js  0x1801e11
 1801d9d:	and    al,0x6d
 1801d9f:	outs   dx,BYTE PTR ds:[esi]
 1801da0:	add    BYTE PTR [eax],al
 1801da2:	add    BYTE PTR [eax],al
 1801da4:	push   0x5c0000a1
 1801da9:	add    BYTE PTR [eax],al
 1801dab:	add    BYTE PTR [esi],ch
 1801dad:	js     0x1801e13
 1801daf:	popa   
 1801db0:	je     0x1801e13
 1801db2:	and    al,0x78
 1801db4:	add    BYTE PTR [eax],al
 1801db6:	add    BYTE PTR [eax],al
 1801db8:	les    esp,FWORD PTR [ecx+0x800000]
 1801dbe:	add    BYTE PTR [eax],al
 1801dc0:	cs imul esp,DWORD PTR fs:[ecx+eiz*2+0x74],0x3224
 1801dca:	add    BYTE PTR [eax],al
 1801dcc:	inc    esp
 1801dcd:	mov    ds:0x200000,al
 1801dd2:	add    BYTE PTR [eax],al
 1801dd4:	cs imul esp,DWORD PTR fs:[ecx+eiz*2+0x74],0x3324
 1801dde:	add    BYTE PTR [eax],al
 1801de0:	mov    fs:0x240000,al
 1801de6:	add    BYTE PTR [eax],al
 1801de8:	cs imul esp,DWORD PTR fs:[ecx+eiz*2+0x74],0x3424
 1801df2:	add    BYTE PTR [eax],al
 1801df4:	mov    BYTE PTR [edx+0x760000],ah
 1801dfa:	add    BYTE PTR [eax],al
 1801dfc:	cs imul esp,DWORD PTR fs:[ecx+eiz*2+0x74],0x3624
 1801e06:	add    BYTE PTR [eax],al
 1801e08:	add    BYTE PTR [ebx+0x240000],ah
 1801e0e:	add    BYTE PTR [eax],al
 1801e10:	cs imul esp,DWORD PTR fs:[ecx+eiz*2+0x74],0x3724
 1801e1a:	add    BYTE PTR [eax],al
 1801e1c:	xor    BYTE PTR [ebx+0x2850000],ah
 1801e22:	add    BYTE PTR [eax],al
 1801e24:	cs gs fs popa 
 1801e28:	je     0x1801e8b
 1801e2a:	add    BYTE PTR [eax],al
 1801e2c:	add    BYTE PTR [eax-0x7c300000],dh
 1801e32:	add    BYTE PTR [eax],al
 1801e34:	cs fs popa 
 1801e37:	je     0x1801e9a
 1801e39:	add    BYTE PTR [eax],al
 1801e3b:	add    al,ah
 1801e3d:	xor    eax,DWORD PTR [ecx]
 1801e3f:	add    BYTE PTR [eax+0x2e00005a],dl
 1801e45:	bound  esi,QWORD PTR [ebx+0x73]
 1801e48:	add    BYTE PTR [eax],al
 1801e4a:	add    BYTE PTR [eax],al
 1801e4c:	add    BYTE PTR [eax+0x2140001],dl
 1801e52:	add    BYTE PTR [eax],al
 1801e54:	imul   esp,DWORD PTR cs:[ecx+eiz*2+0x74],0x352461
 1801e5d:	add    BYTE PTR [eax],al
 1801e5f:	add    BYTE PTR [edx+edx*4],dl
 1801e62:	add    DWORD PTR [eax],eax
 1801e64:	add    al,0x0
 1801e66:	add    BYTE PTR [eax],al
 1801e68:	xor    BYTE PTR cs:[eax],dh
 1801e6b:	arpl   WORD PTR [esi+0x67],sp
 1801e6e:	add    BYTE PTR [eax],al
 1801e70:	sbb    BYTE PTR [edx+0x1cc0001],dl
 1801e76:	add    BYTE PTR [eax],al
 1801e78:	imul   esp,DWORD PTR cs:[ecx+eiz*2+0x74],0x322461
 1801e81:	add    BYTE PTR [eax],al
 1801e83:	add    ah,ah
 1801e85:	xchg   ebx,eax
 1801e86:	add    DWORD PTR [eax],eax
 1801e88:	adc    al,0x0
 1801e8a:	add    BYTE PTR [eax],al
 1801e8c:	imul   esp,DWORD PTR cs:[ecx+eiz*2+0x74],0x332461
 1801e95:	add    BYTE PTR [eax],al
 1801e97:	add    al,bh
 1801e99:	xchg   ebx,eax
 1801e9a:	add    DWORD PTR [eax],eax
 1801e9c:	adc    al,0x2
 1801e9e:	add    BYTE PTR [eax],al
 1801ea0:	imul   esp,DWORD PTR cs:[ecx+eiz*2+0x74],0x342461
 1801ea9:	add    BYTE PTR [eax],al
 1801eab:	add    BYTE PTR [esi+edx*4],cl
 1801eae:	add    DWORD PTR [eax],eax
 1801eb0:	and    cl,BYTE PTR [edx]
 1801eb2:	add    BYTE PTR [eax],al
 1801eb4:	imul   esp,DWORD PTR cs:[ecx+eiz*2+0x74],0x362461
 1801ebd:	add    BYTE PTR [eax],al
 1801ebf:	add    BYTE PTR [eax],al
 1801ec1:	mov    al,0x1
 1801ec3:	add    BYTE PTR [eax+eax*1],ah
 1801ec6:	add    BYTE PTR [eax],al
 1801ec8:	cs imul esp,DWORD PTR fs:[ecx+eiz*2+0x74],0x3524
 1801ed2:	add    BYTE PTR [eax],al
 1801ed4:	add    al,al
 1801ed6:	add    DWORD PTR [eax],eax
 1801ed8:	lock add BYTE PTR [eax],al
 1801edb:	add    BYTE PTR [esi],ch
 1801edd:	jb     0x1801f52
 1801edf:	jb     0x1801f44
 1801ee1:	and    al,0x30
 1801ee3:	xor    DWORD PTR [eax],eax
 1801ee5:	add    BYTE PTR [eax],al
 1801ee7:	add    al,dh
 1801ee9:	rol    BYTE PTR [ecx],0x0
 1801eec:	lock push es
 1801eee:	add    BYTE PTR [eax],al
 1801ef0:	cs jb  0x1801f66
 1801ef3:	jb     0x1801f58
 1801ef5:	and    al,0x30
 1801ef7:	xor    al,BYTE PTR [eax]
	...
 1801f05:	mov    edi,edi
 1801f07:	push   esi
 1801f08:	push   edi
 1801f09:	mov    edi,edx
 1801f0b:	xor    eax,eax
 1801f0d:	jmp    0x1801f1a
 1801f0f:	shl    eax,0x4
 1801f12:	lea    ecx,[ecx+0x2]
 1801f15:	add    eax,esi
 1801f17:	movzx  eax,ax
 1801f1a:	movzx  esi,WORD PTR [ecx]
 1801f1d:	test   si,si
 1801f20:	jne    0x1801f0f
 1801f22:	movzx  eax,ax
 1801f25:	mov    ecx,0xd3
 1801f2a:	cdq    
 1801f2b:	idiv   ecx
 1801f2d:	xor    eax,eax
 1801f2f:	mov    WORD PTR [edi],dx
 1801f32:	pop    edi
 1801f33:	pop    esi
 1801f34:	ret    
 1801f35:	int3   
 1801f36:	int3   
 1801f37:	int3   
 1801f38:	int3   
 1801f39:	int3   
 1801f3a:	mov    edi,edi
 1801f3c:	push   ebx
 1801f3d:	push   esi
 1801f3e:	xor    esi,esi
 1801f40:	mov    ebx,0xd3
 1801f45:	push   0x8
 1801f47:	push   0x0
 1801f49:	call   DWORD PTR ds:0x1819098
 1801f4f:	push   eax
 1801f50:	call   DWORD PTR ds:0x1819094
 1801f56:	test   eax,eax
 1801f58:	je     0x1801f6d
 1801f5a:	mov    DWORD PTR [esi*4+0x1818b20],eax
 1801f61:	inc    esi
 1801f62:	mov    DWORD PTR [eax+0x4],eax
 1801f65:	mov    DWORD PTR [eax],eax
 1801f67:	cmp    esi,ebx
 1801f69:	jb     0x1801f45
 1801f6b:	jmp    0x1801f7c
 1801f6d:	push   0x68
 1801f6f:	push   DWORD PTR ds:0x1818b08
 1801f75:	call   0x18080e0
 1801f7a:	pop    ecx
 1801f7b:	pop    ecx
 1801f7c:	cmp    esi,ebx
 1801f7e:	je     0x1801f9d
 1801f80:	jae    0x1801f93
 1801f82:	push   edi
 1801f83:	sub    ebx,esi
 1801f85:	lea    edi,[esi*4+0x1818b20]
 1801f8c:	mov    ecx,ebx
 1801f8e:	xor    eax,eax
 1801f90:	rep stos DWORD PTR es:[edi],eax
 1801f92:	pop    edi
 1801f93:	call   0x18022f9
 1801f98:	push   0x8
 1801f9a:	pop    eax
 1801f9b:	jmp    0x1801f9f
 1801f9d:	xor    eax,eax
 1801f9f:	pop    esi
 1801fa0:	pop    ebx
 1801fa1:	ret    
 1801fa2:	int3   
 1801fa3:	int3   
 1801fa4:	int3   
 1801fa5:	int3   
 1801fa6:	int3   
 1801fa7:	int3   
 1801fa8:	int3   
 1801fa9:	int3   
 1801faa:	mov    edi,edi
 1801fac:	push   ebp
 1801fad:	mov    ebp,esp
 1801faf:	sub    esp,0xc
 1801fb2:	push   ebx
 1801fb3:	mov    ebx,ecx
 1801fb5:	mov    DWORD PTR [ebp-0xc],edx
 1801fb8:	push   esi
 1801fb9:	mov    esi,ebx
 1801fbb:	xor    ecx,ecx
 1801fbd:	push   edi
 1801fbe:	lea    edi,[esi+0x2]
 1801fc1:	mov    ax,WORD PTR [esi]
 1801fc4:	add    esi,0x2
 1801fc7:	cmp    ax,cx
 1801fca:	jne    0x1801fc1
 1801fcc:	sub    esi,edi
 1801fce:	mov    ecx,edx
 1801fd0:	sar    esi,1
 1801fd2:	lea    edx,[ecx+0x2]
 1801fd5:	lea    eax,[esi+0x1]
 1801fd8:	xor    esi,esi
 1801fda:	mov    DWORD PTR [ebp-0x8],eax
 1801fdd:	mov    ax,WORD PTR [ecx]
 1801fe0:	add    ecx,0x2
 1801fe3:	cmp    ax,si
 1801fe6:	jne    0x1801fdd
 1801fe8:	sub    ecx,edx
 1801fea:	lea    edx,[ebp-0x4]
 1801fed:	sar    ecx,1
 1801fef:	lea    edi,[ecx+0x1]
 1801ff2:	mov    ecx,ebx
 1801ff4:	call   0x1801f05
 1801ff9:	movzx  eax,WORD PTR [ebp-0x4]
 1801ffd:	mov    eax,DWORD PTR [eax*4+0x1818b20]
 1802004:	mov    esi,DWORD PTR [eax]
 1802006:	cmp    esi,eax
 1802008:	je     0x1802051
 180200a:	mov    ecx,DWORD PTR [esi-0x8]
 180200d:	mov    eax,ebx
 180200f:	mov    dx,WORD PTR [eax]
 1802012:	cmp    dx,WORD PTR [ecx]
 1802015:	jne    0x1802037
 1802017:	test   dx,dx
 180201a:	je     0x1802031
 180201c:	mov    dx,WORD PTR [eax+0x2]
 1802020:	cmp    dx,WORD PTR [ecx+0x2]
 1802024:	jne    0x1802037
 1802026:	add    eax,0x4
 1802029:	add    ecx,0x4
 180202c:	test   dx,dx
 180202f:	jne    0x180200f
 1802031:	xor    ecx,ecx
 1802033:	mov    eax,ecx
 1802035:	jmp    0x180203e
 1802037:	sbb    eax,eax
 1802039:	or     eax,0x1
 180203c:	xor    ecx,ecx
 180203e:	test   eax,eax
 1802040:	je     0x1802096
 1802042:	movzx  eax,WORD PTR [ebp-0x4]
 1802046:	mov    esi,DWORD PTR [esi]
 1802048:	cmp    esi,DWORD PTR [eax*4+0x1818b20]
 180204f:	jne    0x180200a
 1802051:	push   0x10
 1802053:	xor    eax,eax
 1802055:	push   eax
 1802056:	call   DWORD PTR ds:0x1819098
 180205c:	push   eax
 180205d:	call   DWORD PTR ds:0x1819094
 1802063:	mov    esi,eax
 1802065:	test   esi,esi
 1802067:	je     0x18020c2
 1802069:	mov    eax,DWORD PTR [ebp-0x8]
 180206c:	add    eax,eax
 180206e:	push   eax
 180206f:	xor    eax,eax
 1802071:	push   eax
 1802072:	call   DWORD PTR ds:0x1819098
 1802078:	push   eax
 1802079:	call   DWORD PTR ds:0x1819094
 180207f:	mov    DWORD PTR [esi],eax
 1802081:	test   eax,eax
 1802083:	jne    0x18020e7
 1802085:	push   esi
 1802086:	push   eax
 1802087:	call   DWORD PTR ds:0x1819098
 180208d:	push   eax
 180208e:	call   DWORD PTR ds:0x181909c
 1802094:	jmp    0x18020c2
 1802096:	push   DWORD PTR [esi-0x4]
 1802099:	push   ecx
 180209a:	call   DWORD PTR ds:0x1819098
 18020a0:	push   eax
 18020a1:	call   DWORD PTR ds:0x181909c
 18020a7:	lea    eax,[edi+edi*1]
 18020aa:	push   eax
 18020ab:	xor    eax,eax
 18020ad:	push   eax
 18020ae:	call   DWORD PTR ds:0x1819098
 18020b4:	push   eax
 18020b5:	call   DWORD PTR ds:0x1819094
 18020bb:	mov    DWORD PTR [esi-0x4],eax
 18020be:	test   eax,eax
 18020c0:	jne    0x18020d9
 18020c2:	push   0x68
 18020c4:	push   DWORD PTR ds:0x1818b08
 18020ca:	call   0x18080e0
 18020cf:	pop    ecx
 18020d0:	pop    ecx
 18020d1:	push   0x8
 18020d3:	pop    eax
 18020d4:	jmp    0x1802159
 18020d9:	push   DWORD PTR [ebp-0xc]
 18020dc:	mov    edx,edi
 18020de:	mov    ecx,eax
 18020e0:	call   0x180235f
 18020e5:	jmp    0x1802157
 18020e7:	lea    eax,[edi+edi*1]
 18020ea:	push   eax
 18020eb:	xor    eax,eax
 18020ed:	push   eax
 18020ee:	call   DWORD PTR ds:0x1819098
 18020f4:	push   eax
 18020f5:	call   DWORD PTR ds:0x1819094
 18020fb:	mov    DWORD PTR [esi+0x4],eax
 18020fe:	test   eax,eax
 1802100:	jne    0x180211b
 1802102:	push   DWORD PTR [esi]
 1802104:	xor    ebx,ebx
 1802106:	push   ebx
 1802107:	call   DWORD PTR ds:0x1819098
 180210d:	push   eax
 180210e:	call   DWORD PTR ds:0x181909c
 1802114:	push   esi
 1802115:	push   ebx
 1802116:	jmp    0x1802087
 180211b:	mov    edx,DWORD PTR [ebp-0x8]
 180211e:	mov    ecx,DWORD PTR [esi]
 1802120:	push   ebx
 1802121:	call   0x180235f
 1802126:	push   DWORD PTR [ebp-0xc]
 1802129:	mov    ecx,DWORD PTR [esi+0x4]
 180212c:	mov    edx,edi
 180212e:	call   0x180235f
 1802133:	movzx  eax,WORD PTR [ebp-0x4]
 1802137:	add    esi,0x8
 180213a:	mov    eax,DWORD PTR [eax*4+0x1818b20]
 1802141:	mov    ecx,DWORD PTR [eax]
 1802143:	mov    DWORD PTR [esi],ecx
 1802145:	mov    DWORD PTR [esi+0x4],eax
 1802148:	cmp    DWORD PTR [ecx+0x4],eax
 180214b:	je     0x1802152
 180214d:	push   0x3
 180214f:	pop    ecx
 1802150:	int    0x29
 1802152:	mov    DWORD PTR [ecx+0x4],esi
 1802155:	mov    DWORD PTR [eax],esi
 1802157:	xor    eax,eax
 1802159:	pop    edi
 180215a:	pop    esi
 180215b:	pop    ebx
 180215c:	mov    esp,ebp
 180215e:	pop    ebp
 180215f:	ret    
 1802160:	int3   
 1802161:	int3   
 1802162:	int3   
 1802163:	int3   
 1802164:	int3   
 1802165:	mov    edi,edi
 1802167:	push   ebp
 1802168:	mov    ebp,esp
 180216a:	push   ecx
 180216b:	push   ecx
 180216c:	push   ebx
 180216d:	mov    ebx,ecx
 180216f:	lea    edx,[ebp-0x4]
 1802172:	mov    DWORD PTR [ebp-0x8],ebx
 1802175:	call   0x1801f05
 180217a:	movzx  eax,WORD PTR [ebp-0x4]
 180217e:	mov    edx,DWORD PTR [eax*4+0x1818b20]
 1802185:	cmp    DWORD PTR [edx],edx
 1802187:	jne    0x1802190
 1802189:	mov    eax,0xff03
 180218e:	jmp    0x18021dc
 1802190:	mov    eax,DWORD PTR [edx]
 1802192:	push   esi
 1802193:	push   edi
 1802194:	jmp    0x18021d1
 1802196:	lea    edi,[eax-0x8]
 1802199:	mov    ecx,ebx
 180219b:	mov    esi,DWORD PTR [edi]
 180219d:	mov    bx,WORD PTR [ecx]
 18021a0:	cmp    bx,WORD PTR [esi]
 18021a3:	jne    0x18021c3
 18021a5:	test   bx,bx
 18021a8:	je     0x18021bf
 18021aa:	mov    bx,WORD PTR [ecx+0x2]
 18021ae:	cmp    bx,WORD PTR [esi+0x2]
 18021b2:	jne    0x18021c3
 18021b4:	add    ecx,0x4
 18021b7:	add    esi,0x4
 18021ba:	test   bx,bx
 18021bd:	jne    0x180219d
 18021bf:	xor    ecx,ecx
 18021c1:	jmp    0x18021c8
 18021c3:	sbb    ecx,ecx
 18021c5:	or     ecx,0x1
 18021c8:	test   ecx,ecx
 18021ca:	je     0x18021e1
 18021cc:	mov    eax,DWORD PTR [eax]
 18021ce:	mov    ebx,DWORD PTR [ebp-0x8]
 18021d1:	cmp    eax,edx
 18021d3:	jne    0x1802196
 18021d5:	mov    eax,0xff03
 18021da:	pop    edi
 18021db:	pop    esi
 18021dc:	pop    ebx
 18021dd:	mov    esp,ebp
 18021df:	pop    ebp
 18021e0:	ret    
 18021e1:	mov    edx,DWORD PTR [eax]
 18021e3:	mov    ecx,DWORD PTR [eax+0x4]
 18021e6:	cmp    DWORD PTR [edx+0x4],eax
 18021e9:	jne    0x180222b
 18021eb:	cmp    DWORD PTR [ecx],eax
 18021ed:	jne    0x180222b
 18021ef:	mov    DWORD PTR [ecx],edx
 18021f1:	mov    DWORD PTR [edx+0x4],ecx
 18021f4:	push   DWORD PTR [edi]
 18021f6:	push   0x0
 18021f8:	call   DWORD PTR ds:0x1819098
 18021fe:	push   eax
 18021ff:	call   DWORD PTR ds:0x181909c
 1802205:	push   DWORD PTR [edi+0x4]
 1802208:	push   0x0
 180220a:	call   DWORD PTR ds:0x1819098
 1802210:	push   eax
 1802211:	call   DWORD PTR ds:0x181909c
 1802217:	push   edi
 1802218:	push   0x0
 180221a:	call   DWORD PTR ds:0x1819098
 1802220:	push   eax
 1802221:	call   DWORD PTR ds:0x181909c
 1802227:	xor    eax,eax
 1802229:	jmp    0x18021da
 180222b:	push   0x3
 180222d:	pop    ecx
 180222e:	int    0x29
 1802230:	int3   
 1802231:	int3   
 1802232:	int3   
 1802233:	int3   
 1802234:	int3   
 1802235:	mov    edi,edi
 1802237:	push   ebp
 1802238:	mov    ebp,esp
 180223a:	push   ecx
 180223b:	push   ecx
 180223c:	push   ebx
 180223d:	push   esi
 180223e:	push   edi
 180223f:	mov    edi,edx
 1802241:	mov    ebx,ecx
 1802243:	lea    edx,[ebp-0x4]
 1802246:	mov    DWORD PTR [ebp-0x8],ebx
 1802249:	call   0x1801f05
 180224e:	movzx  eax,WORD PTR [ebp-0x4]
 1802252:	mov    esi,DWORD PTR [eax*4+0x1818b20]
 1802259:	cmp    DWORD PTR [esi],esi
 180225b:	je     0x180229e
 180225d:	mov    eax,DWORD PTR [esi]
 180225f:	jmp    0x180229a
 1802261:	mov    ecx,DWORD PTR [eax-0x8]
 1802264:	mov    edx,ebx
 1802266:	mov    bx,WORD PTR [ecx]
 1802269:	cmp    bx,WORD PTR [edx]
 180226c:	jne    0x180228c
 180226e:	test   bx,bx
 1802271:	je     0x1802288
 1802273:	mov    bx,WORD PTR [ecx+0x2]
 1802277:	cmp    bx,WORD PTR [edx+0x2]
 180227b:	jne    0x180228c
 180227d:	add    ecx,0x4
 1802280:	add    edx,0x4
 1802283:	test   bx,bx
 1802286:	jne    0x1802266
 1802288:	xor    ecx,ecx
 180228a:	jmp    0x1802291
 180228c:	sbb    ecx,ecx
 180228e:	or     ecx,0x1
 1802291:	test   ecx,ecx
 1802293:	je     0x18022aa
 1802295:	mov    eax,DWORD PTR [eax]
 1802297:	mov    ebx,DWORD PTR [ebp-0x8]
 180229a:	cmp    eax,esi
 180229c:	jne    0x1802261
 180229e:	and    DWORD PTR [edi],0x0
 18022a1:	pop    edi
 18022a2:	pop    esi
 18022a3:	xor    eax,eax
 18022a5:	pop    ebx
 18022a6:	mov    esp,ebp
 18022a8:	pop    ebp
 18022a9:	ret    
 18022aa:	mov    eax,DWORD PTR [eax-0x4]
 18022ad:	mov    DWORD PTR [edi],eax
 18022af:	jmp    0x18022a1
 18022b1:	int3   
 18022b2:	int3   
 18022b3:	int3   
 18022b4:	int3   
 18022b5:	int3   
 18022b6:	mov    edi,edi
 18022b8:	push   ebx
 18022b9:	push   esi
 18022ba:	push   edi
 18022bb:	mov    edi,0x1818b20
 18022c0:	mov    ebx,0xd3
 18022c5:	mov    eax,DWORD PTR [edi]
 18022c7:	mov    esi,DWORD PTR [eax]
 18022c9:	cmp    esi,eax
 18022cb:	je     0x18022e6
 18022cd:	push   DWORD PTR [esi-0x4]
 18022d0:	push   DWORD PTR [esi-0x8]
 18022d3:	push   0x180118c
 18022d8:	call   0x18080b0
 18022dd:	mov    esi,DWORD PTR [esi]
 18022df:	add    esp,0xc
 18022e2:	cmp    esi,DWORD PTR [edi]
 18022e4:	jne    0x18022cd
 18022e6:	add    edi,0x4
 18022e9:	sub    ebx,0x1
 18022ec:	jne    0x18022c5
 18022ee:	pop    edi
 18022ef:	pop    esi
 18022f0:	xor    eax,eax
 18022f2:	pop    ebx
 18022f3:	ret    
 18022f4:	int3   
 18022f5:	int3   
 18022f6:	int3   
 18022f7:	int3   
 18022f8:	int3   
 18022f9:	mov    edi,edi
 18022fb:	push   esi
 18022fc:	push   edi
 18022fd:	xor    edi,edi
 18022ff:	mov    esi,DWORD PTR [edi+0x1818b20]
 1802305:	test   esi,esi
 1802307:	je     0x1802345
 1802309:	jmp    0x1802331
 180230b:	mov    eax,DWORD PTR [esi]
 180230d:	lea    edx,[eax-0x8]
 1802310:	mov    ecx,DWORD PTR [eax]
 1802312:	cmp    DWORD PTR [eax+0x4],esi
 1802315:	jne    0x1802355
 1802317:	cmp    DWORD PTR [ecx+0x4],eax
 180231a:	jne    0x1802355
 180231c:	push   edx
 180231d:	mov    DWORD PTR [esi],ecx
 180231f:	push   0x0
 1802321:	mov    DWORD PTR [ecx+0x4],esi
 1802324:	call   DWORD PTR ds:0x1819098
 180232a:	push   eax
 180232b:	call   DWORD PTR ds:0x181909c
 1802331:	cmp    DWORD PTR [esi],esi
 1802333:	jne    0x180230b
 1802335:	push   esi
 1802336:	push   0x0
 1802338:	call   DWORD PTR ds:0x1819098
 180233e:	push   eax
 180233f:	call   DWORD PTR ds:0x181909c
 1802345:	add    edi,0x4
 1802348:	cmp    edi,0x34c
 180234e:	jb     0x18022ff
 1802350:	pop    edi
 1802351:	xor    eax,eax
 1802353:	pop    esi
 1802354:	ret    
 1802355:	push   0x3
 1802357:	pop    ecx
 1802358:	int    0x29
 180235a:	int3   
 180235b:	int3   
 180235c:	int3   
 180235d:	int3   
 180235e:	int3   
 180235f:	mov    edi,edi
 1802361:	push   ebp
 1802362:	mov    ebp,esp
 1802364:	push   esi
 1802365:	xor    esi,esi
 1802367:	test   edx,edx
 1802369:	je     0x1802373
 180236b:	cmp    edx,0x7fffffff
 1802371:	jbe    0x1802378
 1802373:	mov    esi,0x80070057
 1802378:	test   esi,esi
 180237a:	js     0x18023bb
 180237c:	xor    esi,esi
 180237e:	test   edx,edx
 1802380:	je     0x18023b1
 1802382:	push   ebx
 1802383:	mov    ebx,DWORD PTR [ebp+0x8]
 1802386:	push   edi
 1802387:	mov    edi,0x7ffffffe
 180238c:	sub    edi,edx
 180238e:	sub    ebx,ecx
 1802390:	lea    eax,[edi+edx*1]
 1802393:	test   eax,eax
 1802395:	je     0x18023ab
 1802397:	movzx  eax,WORD PTR [ebx+ecx*1]
 180239b:	test   ax,ax
 180239e:	je     0x18023ab
 18023a0:	mov    WORD PTR [ecx],ax
 18023a3:	add    ecx,0x2
 18023a6:	sub    edx,0x1
 18023a9:	jne    0x1802390
 18023ab:	pop    edi
 18023ac:	pop    ebx
 18023ad:	test   edx,edx
 18023af:	jne    0x18023bf
 18023b1:	sub    ecx,0x2
 18023b4:	mov    esi,0x8007007a
 18023b9:	jmp    0x18023bf
 18023bb:	test   edx,edx
 18023bd:	je     0x18023c4
 18023bf:	xor    eax,eax
 18023c1:	mov    WORD PTR [ecx],ax
 18023c4:	mov    eax,esi
 18023c6:	pop    esi
 18023c7:	pop    ebp
 18023c8:	ret    0x4
 18023cb:	int3   
 18023cc:	int3   
 18023cd:	int3   
 18023ce:	int3   
 18023cf:	int3   
 18023d0:	call   0x18022b6
 18023d5:	ret    0x1c
 18023d8:	int3   
 18023d9:	int3   
 18023da:	int3   
 18023db:	int3   
 18023dc:	int3   
 18023dd:	int3   
 18023de:	int3   
 18023df:	int3   
 18023e0:	mov    edi,edi
 18023e2:	push   ebp
 18023e3:	mov    ebp,esp
 18023e5:	push   ecx
 18023e6:	mov    eax,ds:0x180b258
 18023eb:	mov    DWORD PTR [ebp-0x4],eax
 18023ee:	test   eax,eax
 18023f0:	jne    0x18023fd
 18023f2:	push   0x2
 18023f4:	lea    edx,[ebp-0x4]
 18023f7:	pop    ecx
 18023f8:	call   0x180348a
 18023fd:	mov    eax,DWORD PTR [ebp+0x20]
 1802400:	mov    DWORD PTR [eax],0x1
 1802406:	xor    eax,eax
 1802408:	mov    esp,ebp
 180240a:	pop    ebp
 180240b:	ret    0x1c
 180240e:	int3   
 180240f:	int3   
 1802410:	int3   
 1802411:	int3   
 1802412:	int3   
 1802413:	int3   
 1802414:	int3   
 1802415:	int3   
 1802416:	int3   
 1802417:	int3   
 1802418:	int3   
 1802419:	int3   
 180241a:	int3   
 180241b:	int3   
 180241c:	int3   
 180241d:	int3   
 180241e:	int3   
 180241f:	int3   
 1802420:	mov    edi,edi
 1802422:	push   ebp
 1802423:	mov    ebp,esp
 1802425:	mov    eax,DWORD PTR [ebp+0x14]
 1802428:	mov    edx,DWORD PTR [ebp+0x10]
 180242b:	sub    eax,edx
 180242d:	sub    eax,0x1
 1802430:	je     0x1802439
 1802432:	mov    eax,0x3a99
 1802437:	jmp    0x1802444
 1802439:	mov    ecx,DWORD PTR [ebp+0xc]
 180243c:	mov    ecx,DWORD PTR [ecx+edx*4]
 180243f:	call   0x1806b45
 1802444:	pop    ebp
 1802445:	ret    0x1c
 1802448:	int3   
 1802449:	int3   
 180244a:	int3   
 180244b:	int3   
 180244c:	int3   
 180244d:	int3   
 180244e:	int3   
 180244f:	int3   
 1802450:	mov    edi,edi
 1802452:	push   ebp
 1802453:	mov    ebp,esp
 1802455:	push   ecx
 1802456:	push   0x4
 1802458:	lea    edx,[ebp-0x4]
 180245b:	pop    ecx
 180245c:	call   0x180348a
 1802461:	xor    eax,eax
 1802463:	mov    esp,ebp
 1802465:	pop    ebp
 1802466:	ret    0x1c
 1802469:	int3   
 180246a:	int3   
 180246b:	int3   
 180246c:	int3   
 180246d:	int3   
 180246e:	int3   
 180246f:	int3   
 1802470:	mov    edi,edi
 1802472:	push   ebp
 1802473:	mov    ebp,esp
 1802475:	push   ecx
 1802476:	push   ecx
 1802477:	and    DWORD PTR ds:0x180b258,0x0
 180247e:	lea    edx,[ebp-0x8]
 1802481:	lea    ecx,[ebp-0x4]
 1802484:	call   0x1804f1b
 1802489:	test   eax,eax
 180248b:	jne    0x18024b3
 180248d:	push   esi
 180248e:	mov    esi,DWORD PTR [ebp-0x4]
 1802491:	xor    edx,edx
 1802493:	inc    edx
 1802494:	mov    ecx,esi
 1802496:	call   0x1803394
 180249b:	test   eax,eax
 180249d:	je     0x18024b2
 180249f:	push   DWORD PTR [esi+0x8]
 18024a2:	push   0x6d
 18024a4:	push   DWORD PTR ds:0x1818b08
 18024aa:	call   0x18080e0
 18024af:	add    esp,0xc
 18024b2:	pop    esi
 18024b3:	xor    eax,eax
 18024b5:	mov    esp,ebp
 18024b7:	pop    ebp
 18024b8:	ret    0x1c
 18024bb:	int3   
 18024bc:	int3   
 18024bd:	int3   
 18024be:	int3   
 18024bf:	int3   
 18024c0:	mov    edi,edi
 18024c2:	push   ebp
 18024c3:	mov    ebp,esp
 18024c5:	and    esp,0xfffffff8
 18024c8:	sub    esp,0x44
 18024cb:	mov    eax,ds:0x180b004
 18024d0:	xor    eax,esp
 18024d2:	mov    DWORD PTR [esp+0x40],eax
 18024d6:	mov    eax,DWORD PTR [ebp+0xc]
 18024d9:	xor    ecx,ecx
 18024db:	push   ebx
 18024dc:	mov    ebx,DWORD PTR [ebp+0x10]
 18024df:	push   esi
 18024e0:	push   edi
 18024e1:	mov    edi,DWORD PTR [ebp+0x14]
 18024e4:	mov    esi,ecx
 18024e6:	sub    edi,ebx
 18024e8:	mov    DWORD PTR [esp+0x18],eax
 18024ec:	mov    DWORD PTR [esp+0x1c],ebx
 18024f0:	mov    DWORD PTR [esp+0x28],0x18011a8
 18024f8:	mov    DWORD PTR [esp+0x2c],ecx
 18024fc:	mov    DWORD PTR [esp+0x30],ecx
 1802500:	mov    DWORD PTR [esp+0x34],0x18011b4
 1802508:	mov    DWORD PTR [esp+0x38],ecx
 180250c:	mov    DWORD PTR [esp+0x3c],ecx
 1802510:	mov    DWORD PTR [esp+0x40],0x18011c0
 1802518:	mov    DWORD PTR [esp+0x44],ecx
 180251c:	mov    DWORD PTR [esp+0x48],ecx
 1802520:	mov    DWORD PTR [esp+0x20],ecx
 1802524:	mov    DWORD PTR [esp+0x10],ecx
 1802528:	mov    DWORD PTR [esp+0x24],ecx
 180252c:	cmp    edi,0x1
 180252f:	jae    0x180253e
 1802531:	push   ecx
 1802532:	xor    edx,edx
 1802534:	call   0x1806c1c
 1802539:	jmp    0x180264d
 180253e:	cmp    edi,0x3
 1802541:	ja     0x1802648
 1802547:	push   0x18011c8
 180254c:	push   DWORD PTR [eax+ebx*4]
 180254f:	call   0x18078c0
 1802554:	test   eax,eax
 1802556:	jne    0x1802648
 180255c:	mov    eax,DWORD PTR [esp+0x18]
 1802560:	push   0x18011d4
 1802565:	push   DWORD PTR [eax+ebx*4]
 1802568:	call   0x18078c0
 180256d:	test   eax,eax
 180256f:	jne    0x1802648
 1802575:	mov    eax,edi
 1802577:	shl    eax,0x2
 180257a:	push   eax
 180257b:	push   0x0
 180257d:	call   DWORD PTR ds:0x1819098
 1802583:	push   eax
 1802584:	call   DWORD PTR ds:0x1819094
 180258a:	mov    DWORD PTR [esp+0x14],eax
 180258e:	test   eax,eax
 1802590:	jne    0x180259a
 1802592:	push   0x8
 1802594:	pop    eax
 1802595:	jmp    0x180264d
 180259a:	push   eax
 180259b:	push   0x3
 180259d:	lea    eax,[esp+0x30]
 18025a1:	push   eax
 18025a2:	push   DWORD PTR [ebp+0x14]
 18025a5:	push   ebx
 18025a6:	push   DWORD PTR [esp+0x2c]
 18025aa:	push   DWORD PTR ds:0x1818b08
 18025b0:	call   0x1807680
 18025b5:	mov    ebx,eax
 18025b7:	test   ebx,ebx
 18025b9:	je     0x18025e1
 18025bb:	push   DWORD PTR [esp+0x14]
 18025bf:	push   0x0
 18025c1:	call   DWORD PTR ds:0x1819098
 18025c7:	push   eax
 18025c8:	call   DWORD PTR ds:0x181909c
 18025ce:	cmp    ebx,0x3aa1
 18025d4:	jne    0x18025dd
 18025d6:	mov    eax,0x3a99
 18025db:	jmp    0x180264d
 18025dd:	mov    eax,ebx
 18025df:	jmp    0x180264d
 18025e1:	xor    ecx,ecx
 18025e3:	test   edi,edi
 18025e5:	je     0x18026da
 18025eb:	mov    edx,DWORD PTR [esp+0x1c]
 18025ef:	mov    ebx,DWORD PTR [esp+0x18]
 18025f3:	mov    eax,DWORD PTR [esp+0x14]
 18025f7:	mov    eax,DWORD PTR [eax+ecx*4]
 18025fa:	sub    eax,0x0
 18025fd:	je     0x1802621
 18025ff:	sub    eax,0x1
 1802602:	je     0x1802615
 1802604:	sub    eax,0x1
 1802607:	je     0x180260d
 1802609:	mov    ecx,edi
 180260b:	jmp    0x180262b
 180260d:	lea    eax,[edx+ecx*1]
 1802610:	mov    esi,DWORD PTR [ebx+eax*4]
 1802613:	jmp    0x180262b
 1802615:	lea    eax,[edx+ecx*1]
 1802618:	mov    eax,DWORD PTR [ebx+eax*4]
 180261b:	mov    DWORD PTR [esp+0x10],eax
 180261f:	jmp    0x180262f
 1802621:	lea    eax,[edx+ecx*1]
 1802624:	mov    eax,DWORD PTR [ebx+eax*4]
 1802627:	mov    DWORD PTR [esp+0x20],eax
 180262b:	mov    eax,DWORD PTR [esp+0x10]
 180262f:	inc    ecx
 1802630:	cmp    ecx,edi
 1802632:	jb     0x18025f3
 1802634:	mov    ebx,DWORD PTR [esp+0x20]
 1802638:	test   ebx,ebx
 180263a:	jne    0x1802661
 180263c:	test   eax,eax
 180263e:	jne    0x1802648
 1802640:	test   esi,esi
 1802642:	je     0x18026dc
 1802648:	mov    eax,0x3aa5
 180264d:	mov    ecx,DWORD PTR [esp+0x4c]
 1802651:	pop    edi
 1802652:	pop    esi
 1802653:	pop    ebx
 1802654:	xor    ecx,esp
 1802656:	call   0x1809990
 180265b:	mov    esp,ebp
 180265d:	pop    ebp
 180265e:	ret    0x1c
 1802661:	test   esi,esi
 1802663:	je     0x18026dc
 1802665:	push   0x18011d8
 180266a:	push   esi
 180266b:	call   DWORD PTR ds:0x18191d4
 1802671:	pop    ecx
 1802672:	pop    ecx
 1802673:	test   eax,eax
 1802675:	jne    0x18026dc
 1802677:	push   ebx
 1802678:	push   0xa9
 180267d:	push   DWORD PTR ds:0x1818b08
 1802683:	xor    edi,edi
 1802685:	mov    DWORD PTR [esp+0x28],edi
 1802689:	call   0x18080e0
 180268e:	add    esp,0xc
 1802691:	push   0x208
 1802696:	push   edi
 1802697:	call   DWORD PTR ds:0x1819098
 180269d:	push   eax
 180269e:	call   DWORD PTR ds:0x1819094
 18026a4:	mov    esi,eax
 18026a6:	test   esi,esi
 18026a8:	je     0x1802592
 18026ae:	lea    eax,[esp+0x1c]
 18026b2:	mov    DWORD PTR [esp+0x24],0x1
 18026ba:	push   eax
 18026bb:	mov    ecx,esi
 18026bd:	call   0x1807909
 18026c2:	test   eax,eax
 18026c4:	je     0x18026dc
 18026c6:	push   esi
 18026c7:	push   edi
 18026c8:	call   DWORD PTR ds:0x1819098
 18026ce:	push   eax
 18026cf:	call   DWORD PTR ds:0x181909c
 18026d5:	jmp    0x18025d6
 18026da:	mov    ebx,ecx
 18026dc:	mov    edx,DWORD PTR [esp+0x10]
 18026e0:	mov    ecx,ebx
 18026e2:	push   esi
 18026e3:	call   0x1806c1c
 18026e8:	cmp    DWORD PTR [esp+0x24],0x0
 18026ed:	mov    edi,eax
 18026ef:	je     0x1802701
 18026f1:	push   esi
 18026f2:	push   0x0
 18026f4:	call   DWORD PTR ds:0x1819098
 18026fa:	push   eax
 18026fb:	call   DWORD PTR ds:0x181909c
 1802701:	push   DWORD PTR [esp+0x14]
 1802705:	push   0x0
 1802707:	call   DWORD PTR ds:0x1819098
 180270d:	push   eax
 180270e:	call   DWORD PTR ds:0x181909c
 1802714:	test   edi,edi
 1802716:	je     0x180273d
 1802718:	mov    esi,0x3aa0
 180271d:	cmp    edi,esi
 180271f:	je     0x1802728
 1802721:	mov    eax,edi
 1802723:	jmp    0x180264d
 1802728:	push   esi
 1802729:	push   DWORD PTR ds:0x1818b08
 180272f:	call   0x18080e0
 1802734:	pop    ecx
 1802735:	pop    ecx
 1802736:	mov    eax,esi
 1802738:	jmp    0x180264d
 180273d:	xor    eax,eax
 180273f:	jmp    0x180264d
 1802744:	int3   
 1802745:	int3   
 1802746:	int3   
 1802747:	int3   
 1802748:	int3   
 1802749:	int3   
 180274a:	int3   
 180274b:	int3   
 180274c:	int3   
 180274d:	int3   
 180274e:	int3   
 180274f:	int3   
 1802750:	mov    edi,edi
 1802752:	push   ebp
 1802753:	mov    ebp,esp
 1802755:	sub    esp,0x50
 1802758:	mov    eax,ds:0x180b004
 180275d:	xor    eax,ebp
 180275f:	mov    DWORD PTR [ebp-0x4],eax
 1802762:	mov    eax,DWORD PTR [ebp+0xc]
 1802765:	xor    ecx,ecx
 1802767:	push   ebx
 1802768:	mov    ebx,DWORD PTR [ebp+0x14]
 180276b:	push   esi
 180276c:	push   edi
 180276d:	mov    edi,DWORD PTR [ebp+0x10]
 1802770:	or     esi,0xffffffff
 1802773:	mov    DWORD PTR [ebp-0x20],eax
 1802776:	mov    DWORD PTR [ebp-0x28],edi
 1802779:	mov    DWORD PTR [ebp-0x50],0x18011dc
 1802780:	mov    DWORD PTR [ebp-0x4c],0x1
 1802787:	mov    DWORD PTR [ebp-0x48],ecx
 180278a:	mov    DWORD PTR [ebp-0x44],0x18011a8
 1802791:	mov    DWORD PTR [ebp-0x40],ecx
 1802794:	mov    DWORD PTR [ebp-0x3c],ecx
 1802797:	mov    DWORD PTR [ebp-0x38],esi
 180279a:	mov    DWORD PTR [ebp-0x2c],ecx
 180279d:	sub    ebx,edi
 180279f:	je     0x1802a4c
 18027a5:	cmp    ebx,0x2
 18027a8:	ja     0x1802a4c
 18027ae:	push   0x18011c8
 18027b3:	push   DWORD PTR [eax+edi*4]
 18027b6:	call   0x18078c0
 18027bb:	test   eax,eax
 18027bd:	jne    0x1802a4c
 18027c3:	mov    edx,DWORD PTR [ebp-0x20]
 18027c6:	push   0x18011d4
 18027cb:	push   DWORD PTR [edx+edi*4]
 18027ce:	call   0x18078c0
 18027d3:	test   eax,eax
 18027d5:	jne    0x1802a4c
 18027db:	mov    eax,ebx
 18027dd:	shl    eax,0x2
 18027e0:	push   eax
 18027e1:	push   0x0
 18027e3:	call   DWORD PTR ds:0x1819098
 18027e9:	push   eax
 18027ea:	call   DWORD PTR ds:0x1819094
 18027f0:	mov    DWORD PTR [ebp-0x34],eax
 18027f3:	test   eax,eax
 18027f5:	jne    0x18027ff
 18027f7:	push   0x8
 18027f9:	pop    eax
 18027fa:	jmp    0x1802a51
 18027ff:	push   eax
 1802800:	push   0x2
 1802802:	lea    eax,[ebp-0x50]
 1802805:	push   eax
 1802806:	push   DWORD PTR [ebp+0x14]
 1802809:	push   edi
 180280a:	push   DWORD PTR [ebp-0x20]
 180280d:	push   DWORD PTR ds:0x1818b08
 1802813:	call   0x1807680
 1802818:	mov    edi,eax
 180281a:	test   edi,edi
 180281c:	je     0x1802847
 180281e:	push   DWORD PTR [ebp-0x34]
 1802821:	push   0x0
 1802823:	call   DWORD PTR ds:0x1819098
 1802829:	push   eax
 180282a:	call   DWORD PTR ds:0x181909c
 1802830:	cmp    edi,0x3aa1
 1802836:	jne    0x1802840
 1802838:	lea    eax,[edi-0x8]
 180283b:	jmp    0x1802a51
 1802840:	mov    eax,edi
 1802842:	jmp    0x1802a51
 1802847:	xor    eax,eax
 1802849:	mov    DWORD PTR [ebp-0x24],eax
 180284c:	test   ebx,ebx
 180284e:	je     0x180291e
 1802854:	mov    esi,DWORD PTR [ebp-0x34]
 1802857:	mov    ecx,DWORD PTR [ebp-0x28]
 180285a:	mov    edx,DWORD PTR [esi+eax*4]
 180285d:	sub    edx,0x0
 1802860:	mov    DWORD PTR [ebp-0x30],edx
 1802863:	mov    edx,DWORD PTR [ebp-0x20]
 1802866:	je     0x1802887
 1802868:	sub    DWORD PTR [ebp-0x30],0x1
 180286c:	je     0x180287a
 180286e:	mov    eax,ebx
 1802870:	mov    edi,0x3a99
 1802875:	jmp    0x180290f
 180287a:	add    eax,ecx
 180287c:	mov    eax,DWORD PTR [edx+eax*4]
 180287f:	mov    DWORD PTR [ebp-0x2c],eax
 1802882:	jmp    0x180290c
 1802887:	mov    ecx,DWORD PTR [ebp-0x28]
 180288a:	and    DWORD PTR [ebp-0x18],0x0
 180288e:	add    ecx,eax
 1802890:	lea    eax,[ebp-0x38]
 1802893:	mov    DWORD PTR [ebp-0x1c],0x18011e8
 180289a:	push   eax
 180289b:	lea    eax,[ebp-0x1c]
 180289e:	mov    DWORD PTR [ebp-0x14],0x18011f4
 18028a5:	push   eax
 18028a6:	mov    eax,edx
 18028a8:	mov    DWORD PTR [ebp-0x10],0x1
 18028af:	push   0x3
 18028b1:	mov    DWORD PTR [ebp-0xc],0x1801204
 18028b8:	mov    DWORD PTR [ebp-0x8],0x2
 18028bf:	push   DWORD PTR [eax+ecx*4]
 18028c2:	mov    DWORD PTR [ebp-0x30],ecx
 18028c5:	push   DWORD PTR ds:0x1818b08
 18028cb:	call   0x1807620
 18028d0:	mov    edi,eax
 18028d2:	test   edi,edi
 18028d4:	je     0x1802909
 18028d6:	mov    eax,DWORD PTR [ebp-0x24]
 18028d9:	mov    ecx,DWORD PTR [ebp-0x30]
 18028dc:	imul   eax,DWORD PTR [esi+eax*4],0xc
 18028e0:	push   DWORD PTR [ebp+eax*1-0x50]
 18028e4:	mov    eax,DWORD PTR [ebp-0x20]
 18028e7:	push   DWORD PTR [eax+ecx*4]
 18028ea:	push   0x3aa6
 18028ef:	push   DWORD PTR ds:0x1818b08
 18028f5:	call   0x18080e0
 18028fa:	mov    ecx,DWORD PTR [ebp-0x28]
 18028fd:	add    esp,0x10
 1802900:	mov    eax,ebx
 1802902:	mov    edi,0x3aa5
 1802907:	jmp    0x180290f
 1802909:	mov    ecx,DWORD PTR [ebp-0x28]
 180290c:	mov    eax,DWORD PTR [ebp-0x24]
 180290f:	inc    eax
 1802910:	mov    DWORD PTR [ebp-0x24],eax
 1802913:	cmp    eax,ebx
 1802915:	jb     0x180285a
 180291b:	mov    esi,DWORD PTR [ebp-0x38]
 180291e:	push   DWORD PTR [ebp-0x34]
 1802921:	xor    ebx,ebx
 1802923:	push   ebx
 1802924:	call   DWORD PTR ds:0x1819098
 180292a:	push   eax
 180292b:	call   DWORD PTR ds:0x181909c
 1802931:	test   edi,edi
 1802933:	je     0x1802957
 1802935:	mov    esi,0x3aa0
 180293a:	cmp    edi,esi
 180293c:	jne    0x1802840
 1802942:	push   esi
 1802943:	push   DWORD PTR ds:0x1818b08
 1802949:	call   0x18080e0
 180294e:	pop    ecx
 180294f:	pop    ecx
 1802950:	mov    eax,esi
 1802952:	jmp    0x1802a51
 1802957:	sub    esi,ebx
 1802959:	je     0x1802a02
 180295f:	sub    esi,0x1
 1802962:	je     0x1802997
 1802964:	sub    esi,0x1
 1802967:	jne    0x1802a48
 180296d:	mov    esi,DWORD PTR [ebp-0x2c]
 1802970:	test   esi,esi
 1802972:	jne    0x1802a4c
 1802978:	mov    eax,ds:0x1813754
 180297d:	test   eax,eax
 180297f:	je     0x1802a48
 1802985:	push   eax
 1802986:	call   DWORD PTR ds:0x1819088
 180298c:	mov    DWORD PTR ds:0x1813754,ebx
 1802992:	jmp    0x1802a48
 1802997:	mov    esi,DWORD PTR [ebp-0x2c]
 180299a:	test   esi,esi
 180299c:	je     0x1802a4c
 18029a2:	mov    eax,ds:0x1813754
 18029a7:	test   eax,eax
 18029a9:	je     0x18029b8
 18029ab:	push   eax
 18029ac:	call   DWORD PTR ds:0x1819088
 18029b2:	mov    DWORD PTR ds:0x1813754,ebx
 18029b8:	push   ebx
 18029b9:	push   0x80
 18029be:	push   0x4
 18029c0:	push   ebx
 18029c1:	push   0x1
 18029c3:	push   0x40000000
 18029c8:	push   esi
 18029c9:	call   DWORD PTR ds:0x1819080
 18029cf:	mov    edi,eax
 18029d1:	cmp    edi,0xffffffff
 18029d4:	je     0x1802a3b
 18029d6:	push   0x2
 18029d8:	push   ebx
 18029d9:	push   ebx
 18029da:	push   edi
 18029db:	call   DWORD PTR ds:0x1819078
 18029e1:	cmp    eax,0xffffffff
 18029e4:	jne    0x18029fa
 18029e6:	call   DWORD PTR ds:0x1819070
 18029ec:	push   edi
 18029ed:	mov    esi,eax
 18029ef:	call   DWORD PTR ds:0x1819088
 18029f5:	jmp    0x1802950
 18029fa:	mov    DWORD PTR ds:0x1813754,edi
 1802a00:	jmp    0x1802a48
 1802a02:	mov    esi,DWORD PTR [ebp-0x2c]
 1802a05:	test   esi,esi
 1802a07:	je     0x1802a4c
 1802a09:	mov    eax,ds:0x1813754
 1802a0e:	test   eax,eax
 1802a10:	je     0x1802a1f
 1802a12:	push   eax
 1802a13:	call   DWORD PTR ds:0x1819088
 1802a19:	mov    DWORD PTR ds:0x1813754,ebx
 1802a1f:	push   ebx
 1802a20:	push   0x80
 1802a25:	push   0x2
 1802a27:	push   ebx
 1802a28:	push   0x1
 1802a2a:	push   0x40000000
 1802a2f:	push   esi
 1802a30:	call   DWORD PTR ds:0x1819080
 1802a36:	cmp    eax,0xffffffff
 1802a39:	jne    0x1802a43
 1802a3b:	call   DWORD PTR ds:0x1819070
 1802a41:	jmp    0x1802a51
 1802a43:	mov    ds:0x1813754,eax
 1802a48:	xor    eax,eax
 1802a4a:	jmp    0x1802a51
 1802a4c:	mov    eax,0x3aa5
 1802a51:	mov    ecx,DWORD PTR [ebp-0x4]
 1802a54:	pop    edi
 1802a55:	pop    esi
 1802a56:	xor    ecx,ebp
 1802a58:	pop    ebx
 1802a59:	call   0x1809990
 1802a5e:	mov    esp,ebp
 1802a60:	pop    ebp
 1802a61:	ret    0x1c
 1802a64:	int3   
 1802a65:	int3   
 1802a66:	int3   
 1802a67:	int3   
 1802a68:	int3   
 1802a69:	int3   
 1802a6a:	int3   
 1802a6b:	int3   
 1802a6c:	int3   
 1802a6d:	int3   
 1802a6e:	int3   
 1802a6f:	int3   
 1802a70:	mov    edi,edi
 1802a72:	push   ebp
 1802a73:	mov    ebp,esp
 1802a75:	sub    esp,0x24
 1802a78:	mov    eax,DWORD PTR [ebp+0x14]
 1802a7b:	xor    ecx,ecx
 1802a7d:	push   ebx
 1802a7e:	push   esi
 1802a7f:	mov    esi,DWORD PTR [ebp+0x10]
 1802a82:	inc    ecx
 1802a83:	xor    ebx,ebx
 1802a85:	mov    DWORD PTR [ebp-0x14],0x18011dc
 1802a8c:	sub    eax,esi
 1802a8e:	mov    DWORD PTR [ebp-0x10],ecx
 1802a91:	mov    DWORD PTR [ebp-0xc],ebx
 1802a94:	mov    DWORD PTR [ebp-0x4],ebx
 1802a97:	push   edi
 1802a98:	cmp    eax,ecx
 1802a9a:	jne    0x1802c5a
 1802aa0:	mov    edi,DWORD PTR [ebp+0xc]
 1802aa3:	push   0x18011c8
 1802aa8:	push   DWORD PTR [edi+esi*4]
 1802aab:	call   0x18078c0
 1802ab0:	test   eax,eax
 1802ab2:	jne    0x1802c5a
 1802ab8:	push   0x18011d4
 1802abd:	push   DWORD PTR [edi+esi*4]
 1802ac0:	call   0x18078c0
 1802ac5:	test   eax,eax
 1802ac7:	jne    0x1802c5a
 1802acd:	push   0x4
 1802acf:	push   ebx
 1802ad0:	call   DWORD PTR ds:0x1819098
 1802ad6:	push   eax
 1802ad7:	call   DWORD PTR ds:0x1819094
 1802add:	mov    ebx,eax
 1802adf:	test   ebx,ebx
 1802ae1:	jne    0x1802aeb
 1802ae3:	push   0x8
 1802ae5:	pop    eax
 1802ae6:	jmp    0x1802c5f
 1802aeb:	push   ebx
 1802aec:	push   0x1
 1802aee:	lea    eax,[ebp-0x14]
 1802af1:	push   eax
 1802af2:	push   DWORD PTR [ebp+0x14]
 1802af5:	push   esi
 1802af6:	push   edi
 1802af7:	push   DWORD PTR ds:0x1818b08
 1802afd:	call   0x1807680
 1802b02:	mov    edi,eax
 1802b04:	test   edi,edi
 1802b06:	je     0x1802b2c
 1802b08:	push   ebx
 1802b09:	push   0x0
 1802b0b:	call   DWORD PTR ds:0x1819098
 1802b11:	push   eax
 1802b12:	call   DWORD PTR ds:0x181909c
 1802b18:	cmp    edi,0x3aa1
 1802b1e:	jne    0x1802be2
 1802b24:	lea    eax,[edi-0x8]
 1802b27:	jmp    0x1802c5f
 1802b2c:	xor    edi,edi
 1802b2e:	jmp    0x1802b33
 1802b30:	mov    esi,DWORD PTR [ebp+0x10]
 1802b33:	cmp    DWORD PTR [ebx+edi*4],0x0
 1802b37:	je     0x1802b40
 1802b39:	mov    esi,0x3a99
 1802b3e:	jmp    0x1802ba7
 1802b40:	and    DWORD PTR [ebp-0x18],0x0
 1802b44:	lea    eax,[ebp-0x4]
 1802b47:	push   eax
 1802b48:	lea    eax,[ebp-0x24]
 1802b4b:	mov    DWORD PTR [ebp-0x24],0x1801210
 1802b52:	push   eax
 1802b53:	mov    eax,DWORD PTR [ebp+0xc]
 1802b56:	lea    ecx,[edi+esi*1]
 1802b59:	push   0x2
 1802b5b:	mov    DWORD PTR [ebp-0x20],0x1
 1802b62:	mov    DWORD PTR [ebp-0x1c],0x1801220
 1802b69:	push   DWORD PTR [eax+ecx*4]
 1802b6c:	mov    DWORD PTR [ebp-0x8],ecx
 1802b6f:	push   DWORD PTR ds:0x1818b08
 1802b75:	call   0x1807620
 1802b7a:	mov    esi,eax
 1802b7c:	test   esi,esi
 1802b7e:	je     0x1802baa
 1802b80:	mov    eax,DWORD PTR [ebp+0xc]
 1802b83:	mov    ecx,DWORD PTR [ebp-0x8]
 1802b86:	push   DWORD PTR [eax+ecx*4]
 1802b89:	imul   eax,DWORD PTR [ebx+edi*4],0xc
 1802b8d:	push   DWORD PTR [ebp+eax*1-0x14]
 1802b91:	push   0x3aa6
 1802b96:	push   DWORD PTR ds:0x1818b08
 1802b9c:	call   0x18080e0
 1802ba1:	add    esp,0x10
 1802ba4:	push   0x57
 1802ba6:	pop    esi
 1802ba7:	xor    edi,edi
 1802ba9:	inc    edi
 1802baa:	inc    edi
 1802bab:	cmp    edi,0x1
 1802bae:	jb     0x1802b30
 1802bb0:	push   ebx
 1802bb1:	push   0x0
 1802bb3:	call   DWORD PTR ds:0x1819098
 1802bb9:	push   eax
 1802bba:	call   DWORD PTR ds:0x181909c
 1802bc0:	test   esi,esi
 1802bc2:	je     0x1802be6
 1802bc4:	mov    edi,0x3aa0
 1802bc9:	cmp    esi,edi
 1802bcb:	je     0x1802bd4
 1802bcd:	mov    eax,esi
 1802bcf:	jmp    0x1802c5f
 1802bd4:	push   edi
 1802bd5:	push   DWORD PTR ds:0x1818b08
 1802bdb:	call   0x18080e0
 1802be0:	pop    ecx
 1802be1:	pop    ecx
 1802be2:	mov    eax,edi
 1802be4:	jmp    0x1802c5f
 1802be6:	mov    eax,DWORD PTR [ebp-0x4]
 1802be9:	sub    eax,0x0
 1802bec:	je     0x1802c12
 1802bee:	sub    eax,0x1
 1802bf1:	jne    0x1802bcd
 1802bf3:	lea    edx,[ebp-0x4]
 1802bf6:	mov    DWORD PTR ds:0x180b258,0x1
 1802c00:	lea    ecx,[ebp-0x8]
 1802c03:	call   0x1804f1b
 1802c08:	mov    esi,eax
 1802c0a:	test   esi,esi
 1802c0c:	jne    0x1802bcd
 1802c0e:	xor    edx,edx
 1802c10:	jmp    0x1802c2d
 1802c12:	and    DWORD PTR ds:0x180b258,0x0
 1802c19:	lea    edx,[ebp-0x4]
 1802c1c:	lea    ecx,[ebp-0x8]
 1802c1f:	call   0x1804f1b
 1802c24:	mov    esi,eax
 1802c26:	test   esi,esi
 1802c28:	jne    0x1802bcd
 1802c2a:	xor    edx,edx
 1802c2c:	inc    edx
 1802c2d:	mov    edi,DWORD PTR [ebp-0x8]
 1802c30:	mov    ecx,edi
 1802c32:	call   0x1803394
 1802c37:	mov    esi,eax
 1802c39:	test   esi,esi
 1802c3b:	je     0x1802bcd
 1802c3d:	push   DWORD PTR [edi+0x8]
 1802c40:	push   0x6d
 1802c42:	push   DWORD PTR ds:0x1818b08
 1802c48:	call   0x18080e0
 1802c4d:	mov    esi,0x3aa9
 1802c52:	add    esp,0xc
 1802c55:	jmp    0x1802bcd
 1802c5a:	mov    eax,0x3aa5
 1802c5f:	pop    edi
 1802c60:	pop    esi
 1802c61:	pop    ebx
 1802c62:	mov    esp,ebp
 1802c64:	pop    ebp
 1802c65:	ret    0x1c
 1802c68:	int3   
 1802c69:	int3   
 1802c6a:	int3   
 1802c6b:	int3   
 1802c6c:	int3   
 1802c6d:	int3   
 1802c6e:	int3   
 1802c6f:	int3   
 1802c70:	mov    edi,edi
 1802c72:	push   ebp
 1802c73:	mov    ebp,esp
 1802c75:	push   ecx
 1802c76:	push   ecx
 1802c77:	lea    edx,[ebp-0x8]
 1802c7a:	mov    DWORD PTR ds:0x180b258,0x1
 1802c84:	lea    ecx,[ebp-0x4]
 1802c87:	call   0x1804f1b
 1802c8c:	test   eax,eax
 1802c8e:	jne    0x1802cb5
 1802c90:	push   esi
 1802c91:	mov    esi,DWORD PTR [ebp-0x4]
 1802c94:	xor    edx,edx
 1802c96:	mov    ecx,esi
 1802c98:	call   0x1803394
 1802c9d:	test   eax,eax
 1802c9f:	je     0x1802cb4
 1802ca1:	push   DWORD PTR [esi+0x8]
 1802ca4:	push   0x6d
 1802ca6:	push   DWORD PTR ds:0x1818b08
 1802cac:	call   0x18080e0
 1802cb1:	add    esp,0xc
 1802cb4:	pop    esi
 1802cb5:	xor    eax,eax
 1802cb7:	mov    esp,ebp
 1802cb9:	pop    ebp
 1802cba:	ret    0x1c
 1802cbd:	int3   
 1802cbe:	int3   
 1802cbf:	int3   
 1802cc0:	int3   
 1802cc1:	int3   
 1802cc2:	int3   
 1802cc3:	int3   
 1802cc4:	int3   
 1802cc5:	int3   
 1802cc6:	int3   
 1802cc7:	int3   
 1802cc8:	int3   
 1802cc9:	int3   
 1802cca:	int3   
 1802ccb:	int3   
 1802ccc:	int3   
 1802ccd:	int3   
 1802cce:	int3   
 1802ccf:	int3   
 1802cd0:	mov    edi,edi
 1802cd2:	push   ebp
 1802cd3:	mov    ebp,esp
 1802cd5:	push   ecx
 1802cd6:	push   0x2
 1802cd8:	lea    edx,[ebp-0x4]
 1802cdb:	pop    ecx
 1802cdc:	call   0x180348a
 1802ce1:	xor    eax,eax
 1802ce3:	mov    esp,ebp
 1802ce5:	pop    ebp
 1802ce6:	ret    0x1c
 1802ce9:	int3   
 1802cea:	int3   
 1802ceb:	int3   
 1802cec:	int3   
 1802ced:	int3   
 1802cee:	int3   
 1802cef:	int3   
 1802cf0:	mov    edi,edi
 1802cf2:	push   ebp
 1802cf3:	mov    ebp,esp
 1802cf5:	mov    eax,DWORD PTR [ebp+0x14]
 1802cf8:	push   esi
 1802cf9:	push   edi
 1802cfa:	mov    edi,DWORD PTR [ebp+0x10]
 1802cfd:	sub    eax,edi
 1802cff:	sub    eax,0x1
 1802d02:	je     0x1802d0b
 1802d04:	mov    esi,0x3a99
 1802d09:	jmp    0x1802d38
 1802d0b:	push   ebx
 1802d0c:	mov    ebx,DWORD PTR [ebp+0xc]
 1802d0f:	mov    ecx,DWORD PTR [ebx+edi*4]
 1802d12:	call   0x1802165
 1802d17:	mov    esi,eax
 1802d19:	test   esi,esi
 1802d1b:	jne    0x1802d24
 1802d1d:	mov    esi,0x3aa7
 1802d22:	jmp    0x1802d37
 1802d24:	push   DWORD PTR [ebx+edi*4]
 1802d27:	push   0x64
 1802d29:	push   DWORD PTR ds:0x1818b08
 1802d2f:	call   0x18080e0
 1802d34:	add    esp,0xc
 1802d37:	pop    ebx
 1802d38:	pop    edi
 1802d39:	mov    eax,esi
 1802d3b:	pop    esi
 1802d3c:	pop    ebp
 1802d3d:	ret    0x1c
 1802d40:	int3   
 1802d41:	int3   
 1802d42:	int3   
 1802d43:	int3   
 1802d44:	int3   
 1802d45:	int3   
 1802d46:	int3   
 1802d47:	int3   
 1802d48:	int3   
 1802d49:	int3   
 1802d4a:	int3   
 1802d4b:	int3   
 1802d4c:	int3   
 1802d4d:	int3   
 1802d4e:	int3   
 1802d4f:	int3   
 1802d50:	mov    edi,edi
 1802d52:	push   ebp
 1802d53:	mov    ebp,esp
 1802d55:	mov    eax,0x4008
 1802d5a:	call   0x180a120
 1802d5f:	mov    eax,ds:0x180b004
 1802d64:	xor    eax,ebp
 1802d66:	mov    DWORD PTR [ebp-0x4],eax
 1802d69:	mov    eax,DWORD PTR [ebp+0x14]
 1802d6c:	push   ebx
 1802d6d:	mov    ebx,DWORD PTR [ebp+0xc]
 1802d70:	push   esi
 1802d71:	push   edi
 1802d72:	mov    edi,DWORD PTR [ebp+0x10]
 1802d75:	xor    esi,esi
 1802d77:	sub    eax,edi
 1802d79:	mov    DWORD PTR [ebp-0x4008],ebx
 1802d7f:	sub    eax,esi
 1802d81:	je     0x1802e94
 1802d87:	mov    ecx,DWORD PTR [ebx+edi*4]
 1802d8a:	sub    eax,0x1
 1802d8d:	je     0x1802e57
 1802d93:	call   0x1807438
 1802d98:	test   eax,eax
 1802d9a:	je     0x1802db3
 1802d9c:	push   0x3ea
 1802da1:	push   DWORD PTR ds:0x1818b08
 1802da7:	call   0x18080e0
 1802dac:	pop    ecx
 1802dad:	pop    ecx
 1802dae:	jmp    0x1802e99
 1802db3:	xor    eax,eax
 1802db5:	lea    ebx,[edi+0x1]
 1802db8:	mov    WORD PTR [ebp-0x4004],ax
 1802dbf:	cmp    ebx,DWORD PTR [ebp+0x14]
 1802dc2:	jae    0x1802dfa
 1802dc4:	mov    esi,DWORD PTR [ebp-0x4008]
 1802dca:	push   DWORD PTR [esi+ebx*4]
 1802dcd:	mov    edx,0x2000
 1802dd2:	lea    ecx,[ebp-0x4004]
 1802dd8:	call   0x180319e
 1802ddd:	push   0x1801240
 1802de2:	mov    edx,0x2000
 1802de7:	lea    ecx,[ebp-0x4004]
 1802ded:	call   0x180319e
 1802df2:	inc    ebx
 1802df3:	cmp    ebx,DWORD PTR [ebp+0x14]
 1802df6:	jb     0x1802dca
 1802df8:	xor    esi,esi
 1802dfa:	lea    ecx,[ebp-0x4004]
 1802e00:	lea    edx,[ecx+0x2]
 1802e03:	mov    ax,WORD PTR [ecx]
 1802e06:	add    ecx,0x2
 1802e09:	cmp    ax,si
 1802e0c:	jne    0x1802e03
 1802e0e:	sub    ecx,edx
 1802e10:	sar    ecx,1
 1802e12:	lea    ecx,[ecx*2-0x2]
 1802e19:	cmp    ecx,0x4000
 1802e1f:	jae    0x1802eae
 1802e25:	xor    eax,eax
 1802e27:	lea    edx,[ebp-0x4004]
 1802e2d:	mov    WORD PTR [ebp+ecx*1-0x4004],ax
 1802e35:	mov    eax,DWORD PTR [ebp-0x4008]
 1802e3b:	mov    ecx,DWORD PTR [eax+edi*4]
 1802e3e:	call   0x1801faa
 1802e43:	mov    esi,eax
 1802e45:	test   esi,esi
 1802e47:	jne    0x1802e50
 1802e49:	mov    esi,0x3aa7
 1802e4e:	jmp    0x1802e99
 1802e50:	push   0x65
 1802e52:	jmp    0x1802da1
 1802e57:	lea    edx,[ebp-0x4008]
 1802e5d:	call   0x1802235
 1802e62:	cmp    DWORD PTR [ebp-0x4008],esi
 1802e68:	je     0x1802e7f
 1802e6a:	push   DWORD PTR [ebp-0x4008]
 1802e70:	push   0x1801230
 1802e75:	call   0x18080b0
 1802e7a:	jmp    0x1802dac
 1802e7f:	push   DWORD PTR [ebx+edi*4]
 1802e82:	push   0x64
 1802e84:	push   DWORD PTR ds:0x1818b08
 1802e8a:	call   0x18080e0
 1802e8f:	add    esp,0xc
 1802e92:	jmp    0x1802e99
 1802e94:	call   0x18022b6
 1802e99:	mov    ecx,DWORD PTR [ebp-0x4]
 1802e9c:	mov    eax,esi
 1802e9e:	pop    edi
 1802e9f:	pop    esi
 1802ea0:	xor    ecx,ebp
 1802ea2:	pop    ebx
 1802ea3:	call   0x1809990
 1802ea8:	mov    esp,ebp
 1802eaa:	pop    ebp
 1802eab:	ret    0x1c
 1802eae:	call   0x1809ae9
 1802eb3:	int3   
 1802eb4:	int3   
 1802eb5:	int3   
 1802eb6:	int3   
 1802eb7:	int3   
 1802eb8:	int3   
 1802eb9:	int3   
 1802eba:	int3   
 1802ebb:	int3   
 1802ebc:	int3   
 1802ebd:	int3   
 1802ebe:	int3   
 1802ebf:	int3   
 1802ec0:	mov    edi,edi
 1802ec2:	push   ebp
 1802ec3:	mov    ebp,esp
 1802ec5:	push   DWORD PTR [ebp+0x1c]
 1802ec8:	mov    edx,DWORD PTR [ebp+0xc]
 1802ecb:	push   DWORD PTR [ebp+0x14]
 1802ece:	mov    ecx,DWORD PTR ds:0x1813740
 1802ed4:	call   0x1803282
 1802ed9:	pop    ebp
 1802eda:	ret    0x1c
 1802edd:	int3   
 1802ede:	int3   
 1802edf:	int3   
 1802ee0:	int3   
 1802ee1:	int3   
 1802ee2:	int3   
 1802ee3:	int3   
 1802ee4:	int3   
 1802ee5:	int3   
 1802ee6:	int3   
 1802ee7:	int3   
 1802ee8:	int3   
 1802ee9:	int3   
 1802eea:	int3   
 1802eeb:	int3   
 1802eec:	int3   
 1802eed:	int3   
 1802eee:	int3   
 1802eef:	int3   
 1802ef0:	mov    edi,edi
 1802ef2:	push   ebp
 1802ef3:	mov    ebp,esp
 1802ef5:	xor    edx,edx
 1802ef7:	inc    edx
 1802ef8:	cmp    DWORD PTR ds:0x1813750,0x0
 1802eff:	je     0x1802f04
 1802f01:	push   0x3
 1802f03:	pop    edx
 1802f04:	mov    eax,DWORD PTR [ebp+0x14]
 1802f07:	mov    ecx,DWORD PTR ds:0x1813740
 1802f0d:	dec    eax
 1802f0e:	push   0x0
 1802f10:	push   eax
 1802f11:	push   DWORD PTR [ebp+0x18]
 1802f14:	call   0x18086c6
 1802f19:	pop    ebp
 1802f1a:	ret    0x1c
 1802f1d:	int3   
 1802f1e:	int3   
 1802f1f:	int3   
 1802f20:	int3   
 1802f21:	int3   
 1802f22:	int3   
 1802f23:	int3   
 1802f24:	int3   
 1802f25:	int3   
 1802f26:	int3   
 1802f27:	int3   
 1802f28:	int3   
 1802f29:	int3   
 1802f2a:	int3   
 1802f2b:	int3   
 1802f2c:	int3   
 1802f2d:	int3   
 1802f2e:	int3   
 1802f2f:	int3   
 1802f30:	cmp    DWORD PTR ds:0x180b258,0x0
 1802f37:	je     0x1802f40
 1802f39:	push   0x1801210
 1802f3e:	jmp    0x1802f45
 1802f40:	push   0x1801220
 1802f45:	call   0x18080b0
 1802f4a:	pop    ecx
 1802f4b:	push   0x1801244
 1802f50:	call   0x18080b0
 1802f55:	pop    ecx
 1802f56:	xor    eax,eax
 1802f58:	ret    0x1c
 1802f5b:	int3   
 1802f5c:	int3   
 1802f5d:	int3   
 1802f5e:	int3   
 1802f5f:	int3   
 1802f60:	mov    edi,edi
 1802f62:	push   ebp
 1802f63:	mov    ebp,esp
 1802f65:	push   ecx
 1802f66:	push   ebx
 1802f67:	mov    ebx,0x180b260
 1802f6c:	lea    ecx,[ebp-0x4]
 1802f6f:	mov    edx,ebx
 1802f71:	call   0x1805f04
 1802f76:	test   eax,eax
 1802f78:	jne    0x1803038
 1802f7e:	push   esi
 1802f7f:	mov    esi,DWORD PTR [ebp-0x4]
 1802f82:	push   edi
 1802f83:	mov    eax,DWORD PTR [esi]
 1802f85:	cmp    eax,esi
 1802f87:	je     0x1802fd3
 1802f89:	cmp    DWORD PTR [eax],esi
 1802f8b:	je     0x1802fd3
 1802f8d:	mov    edi,DWORD PTR [esi+0x4]
 1802f90:	cmp    DWORD PTR [edi+0x8],0x0
 1802f94:	je     0x1802fa8
 1802f96:	push   DWORD PTR [edi+0x8]
 1802f99:	push   0x0
 1802f9b:	call   DWORD PTR ds:0x1819098
 1802fa1:	push   eax
 1802fa2:	call   DWORD PTR ds:0x181909c
 1802fa8:	mov    ecx,DWORD PTR [edi]
 1802faa:	mov    eax,DWORD PTR [edi+0x4]
 1802fad:	cmp    DWORD PTR [ecx+0x4],edi
 1802fb0:	jne    0x180303f
 1802fb6:	cmp    DWORD PTR [eax],edi
 1802fb8:	jne    0x180303f
 1802fbe:	push   edi
 1802fbf:	mov    DWORD PTR [eax],ecx
 1802fc1:	push   0x0
 1802fc3:	mov    DWORD PTR [ecx+0x4],eax
 1802fc6:	call   DWORD PTR ds:0x1819098
 1802fcc:	push   eax
 1802fcd:	call   DWORD PTR ds:0x181909c
 1802fd3:	push   ecx
 1802fd4:	mov    edx,ebx
 1802fd6:	mov    ecx,esi
 1802fd8:	call   0x1805c49
 1802fdd:	mov    edi,DWORD PTR [esi]
 1802fdf:	cmp    edi,esi
 1802fe1:	je     0x1803024
 1802fe3:	cmp    DWORD PTR [edi+0x8],0x0
 1802fe7:	je     0x1802ffb
 1802fe9:	push   DWORD PTR [edi+0x8]
 1802fec:	push   0x0
 1802fee:	call   DWORD PTR ds:0x1819098
 1802ff4:	push   eax
 1802ff5:	call   DWORD PTR ds:0x181909c
 1802ffb:	mov    ebx,DWORD PTR [edi]
 1802ffd:	mov    eax,DWORD PTR [edi+0x4]
 1803000:	cmp    DWORD PTR [ebx+0x4],edi
 1803003:	jne    0x180303f
 1803005:	cmp    DWORD PTR [eax],edi
 1803007:	jne    0x180303f
 1803009:	push   edi
 180300a:	mov    DWORD PTR [eax],ebx
 180300c:	push   0x0
 180300e:	mov    DWORD PTR [ebx+0x4],eax
 1803011:	call   DWORD PTR ds:0x1819098
 1803017:	push   eax
 1803018:	call   DWORD PTR ds:0x181909c
 180301e:	mov    edi,ebx
 1803020:	cmp    ebx,esi
 1803022:	jne    0x1802fe3
 1803024:	push   esi
 1803025:	push   0x0
 1803027:	call   DWORD PTR ds:0x1819098
 180302d:	push   eax
 180302e:	call   DWORD PTR ds:0x181909c
 1803034:	pop    edi
 1803035:	xor    eax,eax
 1803037:	pop    esi
 1803038:	pop    ebx
 1803039:	mov    esp,ebp
 180303b:	pop    ebp
 180303c:	ret    0x1c
 180303f:	push   0x3
 1803041:	pop    ecx
 1803042:	int    0x29
 1803044:	int3   
 1803045:	int3   
 1803046:	int3   
 1803047:	int3   
 1803048:	int3   
 1803049:	cmp    DWORD PTR ds:0x181373c,0x0
 1803050:	jne    0x180306b
 1803052:	mov    eax,0x1818b18
 1803057:	mov    DWORD PTR ds:0x181373c,0x1
 1803061:	mov    ds:0x1818b1c,eax
 1803066:	mov    ds:0x1818b18,eax
 180306b:	ret    
 180306c:	int3   
 180306d:	int3   
 180306e:	int3   
 180306f:	int3   
 1803070:	int3   
 1803071:	int3   
 1803072:	int3   
 1803073:	int3   
 1803074:	int3   
 1803075:	int3   
 1803076:	int3   
 1803077:	int3   
 1803078:	int3   
 1803079:	int3   
 180307a:	int3   
 180307b:	int3   
 180307c:	int3   
 180307d:	int3   
 180307e:	int3   
 180307f:	int3   
 1803080:	mov    edi,edi
 1803082:	push   ebp
 1803083:	mov    ebp,esp
 1803085:	push   ecx
 1803086:	push   esi
 1803087:	push   edi
 1803088:	xor    esi,esi
 180308a:	call   0x1803049
 180308f:	push   0x4008
 1803094:	push   esi
 1803095:	call   DWORD PTR ds:0x1819098
 180309b:	push   eax
 180309c:	call   DWORD PTR ds:0x1819094
 18030a2:	mov    edi,eax
 18030a4:	test   edi,edi
 18030a6:	jne    0x18030ad
 18030a8:	push   0x8
 18030aa:	pop    eax
 18030ab:	jmp    0x1803129
 18030ad:	push   0x180b260
 18030b2:	lea    ecx,[edi+0x8]
 18030b5:	mov    edx,0x2000
 18030ba:	call   0x180235f
 18030bf:	mov    eax,ds:0x1818b18
 18030c4:	mov    ecx,0x1818b18
 18030c9:	mov    DWORD PTR [edi],eax
 18030cb:	mov    DWORD PTR [edi+0x4],ecx
 18030ce:	cmp    DWORD PTR [eax+0x4],ecx
 18030d1:	je     0x18030d8
 18030d3:	push   0x3
 18030d5:	pop    ecx
 18030d6:	int    0x29
 18030d8:	mov    ecx,DWORD PTR [ebp+0x14]
 18030db:	mov    DWORD PTR [eax+0x4],edi
 18030de:	mov    DWORD PTR ds:0x1818b18,edi
 18030e4:	mov    edi,DWORD PTR [ebp+0x10]
 18030e7:	cmp    ecx,edi
 18030e9:	jbe    0x1803127
 18030eb:	lea    eax,[ebp-0x4]
 18030ee:	sub    ecx,edi
 18030f0:	push   eax
 18030f1:	mov    eax,DWORD PTR [ebp+0xc]
 18030f4:	lea    edx,[eax+edi*4]
 18030f7:	call   0x18054b5
 18030fc:	mov    edi,DWORD PTR [ebp-0x4]
 18030ff:	test   edi,edi
 1803101:	je     0x18030a8
 1803103:	push   DWORD PTR [ebp+0x20]
 1803106:	push   edi
 1803107:	call   0x1806080
 180310c:	mov    esi,eax
 180310e:	test   esi,esi
 1803110:	je     0x1803117
 1803112:	mov    esi,0x3aa9
 1803117:	push   edi
 1803118:	push   0x0
 180311a:	call   DWORD PTR ds:0x1819098
 1803120:	push   eax
 1803121:	call   DWORD PTR ds:0x181909c
 1803127:	mov    eax,esi
 1803129:	pop    edi
 180312a:	pop    esi
 180312b:	mov    esp,ebp
 180312d:	pop    ebp
 180312e:	ret    0x1c
 1803131:	int3   
 1803132:	int3   
 1803133:	int3   
 1803134:	int3   
 1803135:	int3   
 1803136:	int3   
 1803137:	int3   
 1803138:	int3   
 1803139:	int3   
 180313a:	int3   
 180313b:	int3   
 180313c:	int3   
 180313d:	int3   
 180313e:	int3   
 180313f:	int3   
 1803140:	mov    edi,edi
 1803142:	push   esi
 1803143:	call   0x1803049
 1803148:	mov    esi,DWORD PTR ds:0x1818b18
 180314e:	cmp    esi,0x1818b18
 1803154:	jne    0x180315c
 1803156:	xor    eax,eax
 1803158:	pop    esi
 1803159:	ret    0x1c
 180315c:	mov    ecx,DWORD PTR [esi]
 180315e:	mov    eax,DWORD PTR [esi+0x4]
 1803161:	cmp    DWORD PTR [ecx+0x4],esi
 1803164:	jne    0x1803194
 1803166:	cmp    DWORD PTR [eax],esi
 1803168:	jne    0x1803194
 180316a:	mov    DWORD PTR [eax],ecx
 180316c:	mov    edx,0x2000
 1803171:	mov    DWORD PTR [ecx+0x4],eax
 1803174:	lea    eax,[esi+0x8]
 1803177:	push   eax
 1803178:	mov    ecx,0x180b260
 180317d:	call   0x180235f
 1803182:	push   esi
 1803183:	push   0x0
 1803185:	call   DWORD PTR ds:0x1819098
 180318b:	push   eax
 180318c:	call   DWORD PTR ds:0x181909c
 1803192:	jmp    0x1803156
 1803194:	push   0x3
 1803196:	pop    ecx
 1803197:	int    0x29
 1803199:	int3   
 180319a:	int3   
 180319b:	int3   
 180319c:	int3   
 180319d:	int3   
 180319e:	mov    edi,edi
 18031a0:	push   ebp
 18031a1:	mov    ebp,esp
 18031a3:	push   ecx
 18031a4:	push   ebx
 18031a5:	push   esi
 18031a6:	mov    ebx,edx
 18031a8:	mov    DWORD PTR [ebp-0x4],ecx
 18031ab:	xor    edx,edx
 18031ad:	mov    esi,edx
 18031af:	push   edi
 18031b0:	mov    edi,0x80070057
 18031b5:	test   ebx,ebx
 18031b7:	je     0x18031c1
 18031b9:	cmp    ebx,0x7fffffff
 18031bf:	jbe    0x18031c3
 18031c1:	mov    esi,edi
 18031c3:	test   esi,esi
 18031c5:	js     0x18031ef
 18031c7:	mov    eax,ebx
 18031c9:	mov    esi,edx
 18031cb:	test   ebx,ebx
 18031cd:	je     0x18031e6
 18031cf:	cmp    WORD PTR [ecx],dx
 18031d2:	je     0x18031dc
 18031d4:	add    ecx,0x2
 18031d7:	sub    eax,0x1
 18031da:	jne    0x18031cf
 18031dc:	test   eax,eax
 18031de:	je     0x18031e6
 18031e0:	mov    edi,ebx
 18031e2:	sub    edi,eax
 18031e4:	jmp    0x18031ea
 18031e6:	mov    esi,edi
 18031e8:	mov    edi,edx
 18031ea:	mov    ecx,DWORD PTR [ebp-0x4]
 18031ed:	jmp    0x18031f1
 18031ef:	mov    edi,edx
 18031f1:	test   esi,esi
 18031f3:	js     0x180323b
 18031f5:	mov    edx,ebx
 18031f7:	lea    ecx,[ecx+edi*2]
 18031fa:	push   0x0
 18031fc:	pop    esi
 18031fd:	sub    edx,edi
 18031ff:	je     0x180322e
 1803201:	mov    eax,edx
 1803203:	sub    eax,ebx
 1803205:	mov    ebx,DWORD PTR [ebp+0x8]
 1803208:	add    eax,0x7ffffffe
 180320d:	add    eax,edi
 180320f:	sub    ebx,ecx
 1803211:	test   eax,eax
 1803213:	je     0x180322a
 1803215:	movzx  edi,WORD PTR [ebx+ecx*1]
 1803219:	test   di,di
 180321c:	je     0x180322a
 180321e:	mov    WORD PTR [ecx],di
 1803221:	add    ecx,0x2
 1803224:	dec    eax
 1803225:	sub    edx,0x1
 1803228:	jne    0x1803211
 180322a:	test   edx,edx
 180322c:	jne    0x1803236
 180322e:	sub    ecx,0x2
 1803231:	mov    esi,0x8007007a
 1803236:	xor    eax,eax
 1803238:	mov    WORD PTR [ecx],ax
 180323b:	pop    edi
 180323c:	mov    eax,esi
 180323e:	pop    esi
 180323f:	pop    ebx
 1803240:	mov    esp,ebp
 1803242:	pop    ebp
 1803243:	ret    0x4
 1803246:	int3   
 1803247:	int3   
 1803248:	int3   
 1803249:	int3   
 180324a:	int3   
 180324b:	int3   
 180324c:	int3   
 180324d:	int3   
 180324e:	int3   
 180324f:	int3   
 1803250:	mov    edi,edi
 1803252:	push   ebp
 1803253:	mov    ebp,esp
 1803255:	mov    eax,DWORD PTR [ebp+0x8]
 1803258:	push   esi
 1803259:	mov    esi,0x80000000
 180325e:	push   0x64
 1803260:	pop    ecx
 1803261:	test   DWORD PTR [eax+0x1c],esi
 1803264:	je     0x180326b
 1803266:	mov    eax,DWORD PTR [eax+0x20]
 1803269:	jmp    0x180326d
 180326b:	mov    eax,ecx
 180326d:	mov    edx,DWORD PTR [ebp+0xc]
 1803270:	test   DWORD PTR [edx+0x1c],esi
 1803273:	pop    esi
 1803274:	je     0x1803279
 1803276:	mov    ecx,DWORD PTR [edx+0x20]
 1803279:	sub    eax,ecx
 180327b:	pop    ebp
 180327c:	ret    
 180327d:	int3   
 180327e:	int3   
 180327f:	int3   
 1803280:	int3   
 1803281:	int3   
 1803282:	mov    edi,edi
 1803284:	push   ebp
 1803285:	mov    ebp,esp
 1803287:	push   ecx
 1803288:	push   ecx
 1803289:	mov    eax,ds:0x180b004
 180328e:	xor    eax,ebp
 1803290:	mov    DWORD PTR [ebp-0x4],eax
 1803293:	push   ebx
 1803294:	mov    ebx,ecx
 1803296:	push   esi
 1803297:	push   edi
 1803298:	mov    edi,edx
 180329a:	mov    esi,DWORD PTR [ebx+0x38]
 180329d:	test   esi,esi
 180329f:	je     0x18032bc
 18032a1:	push   DWORD PTR [ebp+0xc]
 18032a4:	mov    ecx,esi
 18032a6:	push   DWORD PTR [ebp+0x8]
 18032a9:	push   edi
 18032aa:	push   DWORD PTR ds:0x181375c
 18032b0:	call   DWORD PTR ds:0x1819214
 18032b6:	call   esi
 18032b8:	test   eax,eax
 18032ba:	jne    0x18032db
 18032bc:	lea    ecx,[ebx+0xc]
 18032bf:	lea    edx,[ebp-0x8]
 18032c2:	call   0x180378e
 18032c7:	test   eax,eax
 18032c9:	jne    0x18032db
 18032cb:	push   DWORD PTR [ebp+0xc]
 18032ce:	mov    ecx,DWORD PTR [ebp-0x8]
 18032d1:	mov    edx,edi
 18032d3:	push   DWORD PTR [ebp+0x8]
 18032d6:	call   0x18032f5
 18032db:	mov    ecx,DWORD PTR [ebp-0x4]
 18032de:	xor    eax,eax
 18032e0:	pop    edi
 18032e1:	pop    esi
 18032e2:	xor    ecx,ebp
 18032e4:	pop    ebx
 18032e5:	call   0x1809990
 18032ea:	mov    esp,ebp
 18032ec:	pop    ebp
 18032ed:	ret    0x8
 18032f0:	int3   
 18032f1:	int3   
 18032f2:	int3   
 18032f3:	int3   
 18032f4:	int3   
 18032f5:	mov    edi,edi
 18032f7:	push   ebp
 18032f8:	mov    ebp,esp
 18032fa:	push   ecx
 18032fb:	push   ecx
 18032fc:	and    DWORD PTR [ebp-0x4],0x0
 1803300:	push   ebx
 1803301:	push   esi
 1803302:	mov    esi,ecx
 1803304:	mov    DWORD PTR [ebp-0x8],edx
 1803307:	push   edi
 1803308:	mov    ebx,DWORD PTR [esi+0x38]
 180330b:	imul   ebx,DWORD PTR [esi+0x40]
 180330f:	push   ebx
 1803310:	push   0x0
 1803312:	call   DWORD PTR ds:0x1819098
 1803318:	push   eax
 1803319:	call   DWORD PTR ds:0x1819094
 180331f:	mov    edi,eax
 1803321:	test   edi,edi
 1803323:	jne    0x180332a
 1803325:	push   0x8
 1803327:	pop    eax
 1803328:	jmp    0x1803386
 180332a:	push   ebx
 180332b:	push   DWORD PTR [esi+0x3c]
 180332e:	push   edi
 180332f:	call   0x180a150
 1803334:	push   0x1803250
 1803339:	push   DWORD PTR [esi+0x40]
 180333c:	push   DWORD PTR [esi+0x38]
 180333f:	push   edi
 1803340:	call   DWORD PTR ds:0x18191fc
 1803346:	xor    ebx,ebx
 1803348:	add    esp,0x1c
 180334b:	cmp    DWORD PTR [esi+0x38],ebx
 180334e:	jbe    0x1803373
 1803350:	mov    ecx,DWORD PTR [esi+0x40]
 1803353:	push   DWORD PTR [ebp+0xc]
 1803356:	mov    edx,DWORD PTR [ebp-0x8]
 1803359:	push   DWORD PTR [ebp+0x8]
 180335c:	imul   ecx,ebx
 180335f:	add    ecx,edi
 1803361:	call   0x1803282
 1803366:	mov    DWORD PTR [ebp-0x4],eax
 1803369:	test   eax,eax
 180336b:	jne    0x1803373
 180336d:	inc    ebx
 180336e:	cmp    ebx,DWORD PTR [esi+0x38]
 1803371:	jb     0x1803350
 1803373:	push   edi
 1803374:	push   0x0
 1803376:	call   DWORD PTR ds:0x1819098
 180337c:	push   eax
 180337d:	call   DWORD PTR ds:0x181909c
 1803383:	mov    eax,DWORD PTR [ebp-0x4]
 1803386:	pop    edi
 1803387:	pop    esi
 1803388:	pop    ebx
 1803389:	mov    esp,ebp
 180338b:	pop    ebp
 180338c:	ret    0x8
 180338f:	int3   
 1803390:	int3   
 1803391:	int3   
 1803392:	int3   
 1803393:	int3   
 1803394:	mov    edi,edi
 1803396:	push   ebp
 1803397:	mov    ebp,esp
 1803399:	push   ecx
 180339a:	push   ecx
 180339b:	mov    eax,ds:0x180b004
 18033a0:	xor    eax,ebp
 18033a2:	mov    DWORD PTR [ebp-0x4],eax
 18033a5:	push   ebx
 18033a6:	mov    ebx,ecx
 18033a8:	push   esi
 18033a9:	push   edi
 18033aa:	mov    edi,edx
 18033ac:	mov    esi,DWORD PTR [ebx+0x34]
 18033af:	test   esi,esi
 18033b1:	je     0x18033c2
 18033b3:	push   edi
 18033b4:	mov    ecx,esi
 18033b6:	call   DWORD PTR ds:0x1819214
 18033bc:	call   esi
 18033be:	test   eax,eax
 18033c0:	jne    0x18033db
 18033c2:	lea    ecx,[ebx+0xc]
 18033c5:	lea    edx,[ebp-0x8]
 18033c8:	call   0x180378e
 18033cd:	test   eax,eax
 18033cf:	jne    0x18033db
 18033d1:	mov    ecx,DWORD PTR [ebp-0x8]
 18033d4:	mov    edx,edi
 18033d6:	call   0x18033f3
 18033db:	mov    ecx,DWORD PTR [ebp-0x4]
 18033de:	xor    eax,eax
 18033e0:	pop    edi
 18033e1:	pop    esi
 18033e2:	xor    ecx,ebp
 18033e4:	pop    ebx
 18033e5:	call   0x1809990
 18033ea:	mov    esp,ebp
 18033ec:	pop    ebp
 18033ed:	ret    
 18033ee:	int3   
 18033ef:	int3   
 18033f0:	int3   
 18033f1:	int3   
 18033f2:	int3   
 18033f3:	mov    edi,edi
 18033f5:	push   ebp
 18033f6:	mov    ebp,esp
 18033f8:	push   ecx
 18033f9:	push   ecx
 18033fa:	and    DWORD PTR [ebp-0x4],0x0
 18033fe:	push   ebx
 18033ff:	push   esi
 1803400:	mov    esi,ecx
 1803402:	mov    DWORD PTR [ebp-0x8],edx
 1803405:	push   edi
 1803406:	mov    edi,DWORD PTR [esi+0x38]
 1803409:	imul   edi,DWORD PTR [esi+0x40]
 180340d:	push   edi
 180340e:	push   0x0
 1803410:	call   DWORD PTR ds:0x1819098
 1803416:	push   eax
 1803417:	call   DWORD PTR ds:0x1819094
 180341d:	mov    ebx,eax
 180341f:	test   ebx,ebx
 1803421:	jne    0x1803428
 1803423:	push   0x8
 1803425:	pop    eax
 1803426:	jmp    0x180347e
 1803428:	push   edi
 1803429:	push   DWORD PTR [esi+0x3c]
 180342c:	push   ebx
 180342d:	call   0x180a150
 1803432:	push   0x1803250
 1803437:	push   DWORD PTR [esi+0x40]
 180343a:	push   DWORD PTR [esi+0x38]
 180343d:	push   ebx
 180343e:	call   DWORD PTR ds:0x18191fc
 1803444:	xor    edi,edi
 1803446:	add    esp,0x1c
 1803449:	cmp    DWORD PTR [esi+0x38],edi
 180344c:	jbe    0x180346b
 180344e:	mov    ecx,DWORD PTR [esi+0x40]
 1803451:	mov    edx,DWORD PTR [ebp-0x8]
 1803454:	imul   ecx,edi
 1803457:	add    ecx,ebx
 1803459:	call   0x1803394
 180345e:	mov    DWORD PTR [ebp-0x4],eax
 1803461:	test   eax,eax
 1803463:	jne    0x180346b
 1803465:	inc    edi
 1803466:	cmp    edi,DWORD PTR [esi+0x38]
 1803469:	jb     0x180344e
 180346b:	push   ebx
 180346c:	push   0x0
 180346e:	call   DWORD PTR ds:0x1819098
 1803474:	push   eax
 1803475:	call   DWORD PTR ds:0x181909c
 180347b:	mov    eax,DWORD PTR [ebp-0x4]
 180347e:	pop    edi
 180347f:	pop    esi
 1803480:	pop    ebx
 1803481:	mov    esp,ebp
 1803483:	pop    ebp
 1803484:	ret    
 1803485:	int3   
 1803486:	int3   
 1803487:	int3   
 1803488:	int3   
 1803489:	int3   
 180348a:	mov    edi,edi
 180348c:	push   ebp
 180348d:	mov    ebp,esp
 180348f:	push   ecx
 1803490:	push   ecx
 1803491:	push   esi
 1803492:	mov    esi,ecx
 1803494:	mov    eax,esi
 1803496:	sub    eax,0x0
 1803499:	je     0x18034ba
 180349b:	sub    eax,0x1
 180349e:	je     0x18034b1
 18034a0:	dec    eax
 18034a1:	sub    eax,0x1
 18034a4:	jne    0x18034c4
 18034a6:	mov    eax,ds:0x180b258
 18034ab:	mov    DWORD PTR [edx],eax
 18034ad:	xor    eax,eax
 18034af:	jmp    0x18034fb
 18034b1:	and    DWORD PTR ds:0x180b258,0x0
 18034b8:	jmp    0x18034c4
 18034ba:	mov    DWORD PTR ds:0x180b258,0x1
 18034c4:	lea    edx,[ebp-0x8]
 18034c7:	lea    ecx,[ebp-0x4]
 18034ca:	call   0x1804f1b
 18034cf:	test   eax,eax
 18034d1:	jne    0x18034fb
 18034d3:	mov    edx,esi
 18034d5:	mov    esi,DWORD PTR [ebp-0x4]
 18034d8:	mov    ecx,esi
 18034da:	call   0x1803394
 18034df:	test   eax,eax
 18034e1:	je     0x18034fb
 18034e3:	push   DWORD PTR [esi+0x8]
 18034e6:	push   0x6d
 18034e8:	push   DWORD PTR ds:0x1818b08
 18034ee:	call   0x18080e0
 18034f3:	add    esp,0xc
 18034f6:	mov    eax,0x3aa9
 18034fb:	pop    esi
 18034fc:	mov    esp,ebp
 18034fe:	pop    ebp
 18034ff:	ret    
 1803500:	int3   
 1803501:	int3   
 1803502:	int3   
 1803503:	int3   
 1803504:	int3   
 1803505:	mov    edi,edi
 1803507:	push   ebp
 1803508:	mov    ebp,esp
 180350a:	push   ecx
 180350b:	push   ebx
 180350c:	push   esi
 180350d:	push   edi
 180350e:	mov    edi,DWORD PTR ds:0x1813748
 1803514:	xor    esi,esi
 1803516:	mov    DWORD PTR [ebp-0x4],ecx
 1803519:	mov    ebx,edx
 180351b:	test   edi,edi
 180351d:	je     0x1803549
 180351f:	mov    edx,DWORD PTR ds:0x1818b0c
 1803525:	add    edx,0x8
 1803528:	xor    ecx,ecx
 180352a:	mov    eax,DWORD PTR [ebp-0x4]
 180352d:	mov    eax,DWORD PTR [eax+ecx*4]
 1803530:	cmp    eax,DWORD PTR [edx+ecx*4]
 1803533:	jne    0x1803541
 1803535:	inc    ecx
 1803536:	cmp    ecx,0x4
 1803539:	jne    0x180352a
 180353b:	mov    DWORD PTR [ebx],esi
 180353d:	xor    eax,eax
 180353f:	jmp    0x180354e
 1803541:	inc    esi
 1803542:	add    edx,0x48
 1803545:	cmp    esi,edi
 1803547:	jb     0x1803528
 1803549:	mov    eax,0x490
 180354e:	pop    edi
 180354f:	pop    esi
 1803550:	pop    ebx
 1803551:	mov    esp,ebp
 1803553:	pop    ebp
 1803554:	ret    
 1803555:	int3   
 1803556:	int3   
 1803557:	int3   
 1803558:	int3   
 1803559:	int3   
 180355a:	mov    edi,edi
 180355c:	push   ebp
 180355d:	mov    ebp,esp
 180355f:	sub    esp,0xc
 1803562:	mov    eax,ds:0x1813748
 1803567:	mov    DWORD PTR [ebp-0x4],edx
 180356a:	mov    DWORD PTR [ebp-0x8],ecx
 180356d:	push   edi
 180356e:	cmp    eax,0x38e38e3
 1803573:	jae    0x1803606
 1803579:	inc    eax
 180357a:	imul   eax,eax,0x48
 180357d:	push   eax
 180357e:	push   0x0
 1803580:	call   DWORD PTR ds:0x1819098
 1803586:	push   eax
 1803587:	call   DWORD PTR ds:0x1819094
 180358d:	mov    edi,eax
 180358f:	mov    DWORD PTR [ebp-0xc],edi
 1803592:	test   edi,edi
 1803594:	je     0x1803606
 1803596:	push   esi
 1803597:	imul   esi,DWORD PTR ds:0x1813748,0x48
 180359e:	push   esi
 180359f:	push   DWORD PTR ds:0x1818b0c
 18035a5:	push   edi
 18035a6:	call   0x180a150
 18035ab:	lea    edx,[esi+edi*1]
 18035ae:	mov    eax,ds:0x1818b14
 18035b3:	mov    esi,DWORD PTR [ebp-0x4]
 18035b6:	add    esp,0xc
 18035b9:	mov    edi,edx
 18035bb:	push   0x8
 18035bd:	pop    ecx
 18035be:	rep movs DWORD PTR es:[edi],DWORD PTR ds:[esi]
 18035c0:	mov    esi,DWORD PTR [ebp-0x8]
 18035c3:	lea    edi,[edx+0x20]
 18035c6:	push   DWORD PTR ds:0x1818b0c
 18035cc:	movs   DWORD PTR es:[edi],DWORD PTR ds:[esi]
 18035cd:	movs   DWORD PTR es:[edi],DWORD PTR ds:[esi]
 18035ce:	movs   DWORD PTR es:[edi],DWORD PTR ds:[esi]
 18035cf:	movs   DWORD PTR es:[edi],DWORD PTR ds:[esi]
 18035d0:	mov    DWORD PTR [edx+0x30],eax
 18035d3:	xor    eax,eax
 18035d5:	inc    DWORD PTR ds:0x1813748
 18035db:	mov    DWORD PTR [edx+0x34],eax
 18035de:	mov    DWORD PTR [edx+0x40],0x48
 18035e5:	mov    DWORD PTR [edx+0x38],eax
 18035e8:	push   eax
 18035e9:	mov    DWORD PTR [edx+0x3c],eax
 18035ec:	call   DWORD PTR ds:0x1819098
 18035f2:	push   eax
 18035f3:	call   DWORD PTR ds:0x181909c
 18035f9:	mov    eax,DWORD PTR [ebp-0xc]
 18035fc:	mov    ds:0x1818b0c,eax
 1803601:	xor    eax,eax
 1803603:	pop    esi
 1803604:	jmp    0x1803609
 1803606:	push   0x8
 1803608:	pop    eax
 1803609:	pop    edi
 180360a:	mov    esp,ebp
 180360c:	pop    ebp
 180360d:	ret    
 180360e:	int3   
 180360f:	int3   
 1803610:	int3   
 1803611:	int3   
 1803612:	int3   
 1803613:	mov    edi,edi
 1803615:	push   ebp
 1803616:	mov    ebp,esp
 1803618:	push   ecx
 1803619:	push   ebx
 180361a:	lea    edx,[ebp-0x4]
 180361d:	mov    ebx,ecx
 180361f:	call   0x180378e
 1803624:	test   eax,eax
 1803626:	jne    0x1803674
 1803628:	mov    ecx,DWORD PTR [ebp-0x4]
 180362b:	lea    edx,[ebp-0x4]
 180362e:	lea    ecx,[ecx+0x20]
 1803631:	call   0x180378e
 1803636:	test   eax,eax
 1803638:	jne    0x1803674
 180363a:	push   esi
 180363b:	push   edi
 180363c:	mov    edi,DWORD PTR [ebp-0x4]
 180363f:	xor    esi,esi
 1803641:	cmp    DWORD PTR [edi+0x38],esi
 1803644:	jbe    0x1803670
 1803646:	mov    edx,DWORD PTR [edi+0x40]
 1803649:	imul   edx,esi
 180364c:	add    edx,DWORD PTR [edi+0x3c]
 180364f:	xor    ecx,ecx
 1803651:	mov    eax,DWORD PTR [edx+ecx*4+0xc]
 1803655:	cmp    eax,DWORD PTR [ebx+ecx*4]
 1803658:	jne    0x180366a
 180365a:	inc    ecx
 180365b:	cmp    ecx,0x4
 180365e:	jne    0x1803651
 1803660:	mov    edx,esi
 1803662:	mov    ecx,edi
 1803664:	call   0x1804552
 1803669:	dec    esi
 180366a:	inc    esi
 180366b:	cmp    esi,DWORD PTR [edi+0x38]
 180366e:	jb     0x1803646
 1803670:	pop    edi
 1803671:	xor    eax,eax
 1803673:	pop    esi
 1803674:	pop    ebx
 1803675:	mov    esp,ebp
 1803677:	pop    ebp
 1803678:	ret    
 1803679:	int3   
 180367a:	int3   
 180367b:	int3   
 180367c:	int3   
 180367d:	int3   
 180367e:	mov    edi,edi
 1803680:	push   ebp
 1803681:	mov    ebp,esp
 1803683:	sub    esp,0xc
 1803686:	mov    eax,ds:0x180b004
 180368b:	xor    eax,ebp
 180368d:	mov    DWORD PTR [ebp-0x4],eax
 1803690:	mov    eax,ecx
 1803692:	push   esi
 1803693:	mov    esi,DWORD PTR ds:0x1813748
 1803699:	mov    DWORD PTR [ebp-0xc],eax
 180369c:	cmp    eax,esi
 180369e:	jb     0x18036a8
 18036a0:	push   0x57
 18036a2:	pop    eax
 18036a3:	jmp    0x180377a
 18036a8:	push   ebx
 18036a9:	imul   ebx,eax,0x48
 18036ac:	push   edi
 18036ad:	mov    edi,DWORD PTR ds:0x1818b0c
 18036b3:	mov    eax,DWORD PTR [ebx+edi*1+0x1c]
 18036b7:	mov    DWORD PTR [ebp-0x8],eax
 18036ba:	test   eax,eax
 18036bc:	je     0x18036d7
 18036be:	push   0x0
 18036c0:	mov    ecx,eax
 18036c2:	call   DWORD PTR ds:0x1819214
 18036c8:	call   DWORD PTR [ebp-0x8]
 18036cb:	mov    esi,DWORD PTR ds:0x1813748
 18036d1:	mov    edi,DWORD PTR ds:0x1818b0c
 18036d7:	lea    ecx,[ebx+0x20]
 18036da:	add    ecx,edi
 18036dc:	lea    edx,[ebp-0x8]
 18036df:	call   0x1803505
 18036e4:	test   eax,eax
 18036e6:	jne    0x18036f8
 18036e8:	lea    ecx,[ebx+0x8]
 18036eb:	add    ecx,edi
 18036ed:	call   0x1803613
 18036f2:	mov    esi,DWORD PTR ds:0x1813748
 18036f8:	cmp    esi,0x1
 18036fb:	jb     0x1803775
 18036fd:	dec    esi
 18036fe:	cmp    esi,0x38e38e3
 1803704:	ja     0x1803775
 1803706:	imul   eax,esi,0x48
 1803709:	push   eax
 180370a:	push   0x0
 180370c:	call   DWORD PTR ds:0x1819098
 1803712:	push   eax
 1803713:	call   DWORD PTR ds:0x1819094
 1803719:	mov    DWORD PTR [ebp-0x8],eax
 180371c:	test   eax,eax
 180371e:	je     0x1803775
 1803720:	mov    edi,DWORD PTR ds:0x1818b0c
 1803726:	push   ebx
 1803727:	push   edi
 1803728:	push   eax
 1803729:	call   0x180a150
 180372e:	mov    esi,DWORD PTR ds:0x1813748
 1803734:	mov    eax,esi
 1803736:	sub    eax,DWORD PTR [ebp-0xc]
 1803739:	dec    eax
 180373a:	imul   eax,eax,0x48
 180373d:	push   eax
 180373e:	lea    eax,[edi+0x48]
 1803741:	add    eax,ebx
 1803743:	push   eax
 1803744:	mov    eax,DWORD PTR [ebp-0x8]
 1803747:	add    eax,ebx
 1803749:	push   eax
 180374a:	call   0x180a150
 180374f:	add    esp,0x18
 1803752:	dec    esi
 1803753:	mov    DWORD PTR ds:0x1813748,esi
 1803759:	push   edi
 180375a:	push   0x0
 180375c:	call   DWORD PTR ds:0x1819098
 1803762:	push   eax
 1803763:	call   DWORD PTR ds:0x181909c
 1803769:	mov    eax,DWORD PTR [ebp-0x8]
 180376c:	mov    ds:0x1818b0c,eax
 1803771:	xor    eax,eax
 1803773:	jmp    0x1803778
 1803775:	push   0x8
 1803777:	pop    eax
 1803778:	pop    edi
 1803779:	pop    ebx
 180377a:	mov    ecx,DWORD PTR [ebp-0x4]
 180377d:	xor    ecx,ebp
 180377f:	pop    esi
 1803780:	call   0x1809990
 1803785:	mov    esp,ebp
 1803787:	pop    ebp
 1803788:	ret    
 1803789:	int3   
 180378a:	int3   
 180378b:	int3   
 180378c:	int3   
 180378d:	int3   
 180378e:	mov    edi,edi
 1803790:	push   ebp
 1803791:	mov    ebp,esp
 1803793:	push   ecx
 1803794:	push   esi
 1803795:	mov    esi,edx
 1803797:	lea    edx,[ebp-0x4]
 180379a:	call   0x1803505
 180379f:	test   eax,eax
 18037a1:	jne    0x18037af
 18037a3:	imul   ecx,DWORD PTR [ebp-0x4],0x48
 18037a7:	add    ecx,DWORD PTR ds:0x1818b0c
 18037ad:	mov    DWORD PTR [esi],ecx
 18037af:	pop    esi
 18037b0:	mov    esp,ebp
 18037b2:	pop    ebp
 18037b3:	ret    
 18037b4:	int3   
 18037b5:	int3   
 18037b6:	int3   
 18037b7:	int3   
 18037b8:	int3   
 18037b9:	int3   
 18037ba:	int3   
 18037bb:	int3   
 18037bc:	int3   
 18037bd:	int3   
 18037be:	int3   
 18037bf:	int3   
 18037c0:	mov    edi,edi
 18037c2:	push   ebp
 18037c3:	mov    ebp,esp
 18037c5:	push   ecx
 18037c6:	push   ebx
 18037c7:	mov    ebx,DWORD PTR [ebp+0xc]
 18037ca:	lea    edx,[ebp-0x4]
 18037cd:	push   edi
 18037ce:	lea    edi,[ebx+0x8]
 18037d1:	mov    ecx,edi
 18037d3:	call   0x1803505
 18037d8:	test   eax,eax
 18037da:	jne    0x18037e3
 18037dc:	mov    eax,0x3aaa
 18037e1:	jmp    0x1803837
 18037e3:	push   esi
 18037e4:	mov    esi,DWORD PTR [ebp+0x8]
 18037e7:	test   esi,esi
 18037e9:	jne    0x18037f0
 18037eb:	mov    esi,0x1801374
 18037f0:	xor    ecx,ecx
 18037f2:	mov    edx,ecx
 18037f4:	mov    eax,DWORD PTR [edi+edx*4]
 18037f7:	cmp    eax,DWORD PTR [esi+edx*4]
 18037fa:	jne    0x180382d
 18037fc:	inc    edx
 18037fd:	cmp    edx,0x4
 1803800:	jne    0x18037f4
 1803802:	mov    edx,ecx
 1803804:	mov    eax,DWORD PTR [edi+edx*4]
 1803807:	mov    ebx,0x1801364
 180380c:	cmp    eax,DWORD PTR [ebx+edx*4]
 180380f:	mov    ebx,DWORD PTR [ebp+0xc]
 1803812:	jne    0x180383f
 1803814:	inc    edx
 1803815:	cmp    edx,0x4
 1803818:	jne    0x1803804
 180381a:	mov    edx,0x1801364
 180381f:	mov    eax,DWORD PTR [esi+ecx*4]
 1803822:	cmp    eax,DWORD PTR [edx+ecx*4]
 1803825:	jne    0x180383f
 1803827:	inc    ecx
 1803828:	cmp    ecx,0x4
 180382b:	jne    0x180381f
 180382d:	mov    edx,ebx
 180382f:	mov    ecx,esi
 1803831:	call   0x180355a
 1803836:	pop    esi
 1803837:	pop    edi
 1803838:	pop    ebx
 1803839:	mov    esp,ebp
 180383b:	pop    ebp
 180383c:	ret    0x8
 180383f:	push   0x57
 1803841:	pop    eax
 1803842:	jmp    0x1803836
 1803844:	int3   
 1803845:	int3   
 1803846:	int3   
 1803847:	int3   
 1803848:	int3   
 1803849:	int3   
 180384a:	int3   
 180384b:	int3   
 180384c:	int3   
 180384d:	int3   
 180384e:	int3   
 180384f:	int3   
 1803850:	mov    edi,edi
 1803852:	push   ebp
 1803853:	mov    ebp,esp
 1803855:	mov    ecx,DWORD PTR [ebp+0x8]
 1803858:	movzx  eax,BYTE PTR [ecx+0xf]
 180385c:	push   eax
 180385d:	movzx  eax,BYTE PTR [ecx+0xe]
 1803861:	push   eax
 1803862:	movzx  eax,BYTE PTR [ecx+0xd]
 1803866:	push   eax
 1803867:	movzx  eax,BYTE PTR [ecx+0xc]
 180386b:	push   eax
 180386c:	movzx  eax,BYTE PTR [ecx+0xb]
 1803870:	push   eax
 1803871:	movzx  eax,BYTE PTR [ecx+0xa]
 1803875:	push   eax
 1803876:	movzx  eax,BYTE PTR [ecx+0x9]
 180387a:	push   eax
 180387b:	movzx  eax,BYTE PTR [ecx+0x8]
 180387f:	push   eax
 1803880:	movzx  eax,WORD PTR [ecx+0x6]
 1803884:	push   eax
 1803885:	movzx  eax,WORD PTR [ecx+0x4]
 1803889:	push   eax
 180388a:	push   DWORD PTR [ecx]
 180388c:	push   0x1801248
 1803891:	push   0x28
 1803893:	push   DWORD PTR [ebp+0xc]
 1803896:	call   0x180507b
 180389b:	add    esp,0x38
 180389e:	pop    ebp
 180389f:	ret    0x8
 18038a2:	int3   
 18038a3:	int3   
 18038a4:	int3   
 18038a5:	int3   
 18038a6:	int3   
 18038a7:	int3   
 18038a8:	int3   
 18038a9:	int3   
 18038aa:	int3   
 18038ab:	int3   
 18038ac:	int3   
 18038ad:	int3   
 18038ae:	int3   
 18038af:	int3   
 18038b0:	mov    edi,edi
 18038b2:	push   ebp
 18038b3:	mov    ebp,esp
 18038b5:	push   ecx
 18038b6:	push   ecx
 18038b7:	mov    ax,WORD PTR [ebp+0xc]
 18038bb:	push   DWORD PTR [ebp+0x10]
 18038be:	mov    WORD PTR [ebp-0x6],ax
 18038c2:	mov    WORD PTR [ebp-0x8],ax
 18038c6:	mov    eax,DWORD PTR [ebp+0x8]
 18038c9:	mov    DWORD PTR [ebp-0x4],eax
 18038cc:	lea    eax,[ebp-0x8]
 18038cf:	push   eax
 18038d0:	call   DWORD PTR ds:0x1819208
 18038d6:	neg    eax
 18038d8:	sbb    eax,eax
 18038da:	and    eax,0x57
 18038dd:	mov    esp,ebp
 18038df:	pop    ebp
 18038e0:	ret    0xc
 18038e3:	int3   
 18038e4:	int3   
 18038e5:	int3   
 18038e6:	int3   
 18038e7:	int3   
 18038e8:	mov    edi,edi
 18038ea:	push   ebp
 18038eb:	mov    ebp,esp
 18038ed:	sub    esp,0x14
 18038f0:	mov    eax,ds:0x180b004
 18038f5:	xor    eax,ebp
 18038f7:	mov    DWORD PTR [ebp-0x4],eax
 18038fa:	push   ebx
 18038fb:	push   esi
 18038fc:	mov    esi,ecx
 18038fe:	mov    DWORD PTR ds:0x1818b14,esi
 1803904:	push   edi
 1803905:	test   esi,esi
 1803907:	jne    0x1803918
 1803909:	mov    ecx,DWORD PTR ds:0x1818b08
 180390f:	mov    ebx,0x1804ea0
 1803914:	mov    edi,ecx
 1803916:	jmp    0x1803969
 1803918:	mov    eax,ds:0x1818b10
 180391d:	imul   ebx,esi,0x14
 1803920:	push   0x0
 1803922:	push   0x0
 1803924:	push   DWORD PTR [ebx+eax*1]
 1803927:	call   DWORD PTR ds:0x18190b4
 180392d:	mov    edi,eax
 180392f:	test   edi,edi
 1803931:	jne    0x1803955
 1803933:	mov    eax,ds:0x1818b10
 1803938:	push   DWORD PTR [ebx+eax*1]
 180393b:	push   0x6a
 180393d:	push   DWORD PTR ds:0x1818b08
 1803943:	call   0x18080e0
 1803948:	add    esp,0xc
 180394b:	mov    eax,0x3aa9
 1803950:	jmp    0x1803a0b
 1803955:	push   0x18012b0
 180395a:	push   edi
 180395b:	call   DWORD PTR ds:0x18190b8
 1803961:	mov    ecx,DWORD PTR ds:0x1818b08
 1803967:	mov    ebx,eax
 1803969:	mov    eax,ds:0x1818b10
 180396e:	imul   esi,esi,0x14
 1803971:	test   ebx,ebx
 1803973:	jne    0x180399d
 1803975:	push   DWORD PTR [esi+eax*1]
 1803978:	push   0x18012c0
 180397d:	push   0x3ed
 1803982:	push   ecx
 1803983:	call   0x18080e0
 1803988:	add    esp,0x10
 180398b:	push   edi
 180398c:	call   DWORD PTR ds:0x18190bc
 1803992:	mov    eax,ds:0x1818b10
 1803997:	and    DWORD PTR [esi+eax*1+0xc],ebx
 180399b:	jmp    0x180394b
 180399d:	mov    DWORD PTR [esi+eax*1+0xc],edi
 18039a1:	mov    ecx,ebx
 18039a3:	xor    eax,eax
 18039a5:	lea    edi,[ebp-0x14]
 18039a8:	stos   DWORD PTR es:[edi],eax
 18039a9:	stos   DWORD PTR es:[edi],eax
 18039aa:	stos   DWORD PTR es:[edi],eax
 18039ab:	stos   DWORD PTR es:[edi],eax
 18039ac:	lea    eax,[ebp-0x14]
 18039af:	push   eax
 18039b0:	push   0x5000
 18039b5:	call   DWORD PTR ds:0x1819214
 18039bb:	call   ebx
 18039bd:	test   eax,eax
 18039bf:	jne    0x18039d8
 18039c1:	mov    ecx,DWORD PTR ds:0x1818b10
 18039c7:	mov    DWORD PTR [esi+ecx*1+0x8],0x1
 18039cf:	mov    eax,DWORD PTR [ebp-0xc]
 18039d2:	mov    DWORD PTR [esi+ecx*1+0x10],eax
 18039d6:	jmp    0x1803a09
 18039d8:	push   eax
 18039d9:	mov    eax,ds:0x1818b10
 18039de:	push   DWORD PTR [esi+eax*1]
 18039e1:	push   0x18012c0
 18039e6:	push   0x88
 18039eb:	push   DWORD PTR ds:0x1818b08
 18039f1:	call   0x18080e0
 18039f6:	mov    ecx,DWORD PTR ds:0x1818b10
 18039fc:	add    esp,0x14
 18039ff:	xor    edx,edx
 1803a01:	mov    ecx,DWORD PTR [esi+ecx*1]
 1803a04:	call   0x1803db1
 1803a09:	xor    eax,eax
 1803a0b:	mov    ecx,DWORD PTR [ebp-0x4]
 1803a0e:	pop    edi
 1803a0f:	pop    esi
 1803a10:	xor    ecx,ebp
 1803a12:	pop    ebx
 1803a13:	call   0x1809990
 1803a18:	mov    esp,ebp
 1803a1a:	pop    ebp
 1803a1b:	ret    
 1803a1c:	int3   
 1803a1d:	int3   
 1803a1e:	int3   
 1803a1f:	int3   
 1803a20:	int3   
 1803a21:	mov    edi,edi
 1803a23:	push   ebp
 1803a24:	mov    ebp,esp
 1803a26:	push   ecx
 1803a27:	push   ecx
 1803a28:	mov    eax,ds:0x180b004
 1803a2d:	xor    eax,ebp
 1803a2f:	mov    DWORD PTR [ebp-0x4],eax
 1803a32:	push   ebx
 1803a33:	push   esi
 1803a34:	mov    esi,DWORD PTR ds:0x1818b0c
 1803a3a:	push   edi
 1803a3b:	mov    DWORD PTR [esi+0x34],0x1
 1803a42:	xor    edi,edi
 1803a44:	cmp    DWORD PTR ds:0x1813748,edi
 1803a4a:	jbe    0x1803a80
 1803a4c:	mov    eax,ds:0x1813748
 1803a51:	lea    ebx,[esi+0x20]
 1803a54:	cmp    DWORD PTR [ebx+0x14],0x0
 1803a58:	jne    0x1803a78
 1803a5a:	lea    edx,[ebp-0x8]
 1803a5d:	mov    ecx,ebx
 1803a5f:	call   0x1803505
 1803a64:	test   eax,eax
 1803a66:	jne    0x1803a73
 1803a68:	imul   eax,DWORD PTR [ebp-0x8],0x48
 1803a6c:	cmp    DWORD PTR [eax+esi*1+0x34],0x0
 1803a71:	jne    0x1803a91
 1803a73:	mov    eax,ds:0x1813748
 1803a78:	inc    edi
 1803a79:	add    ebx,0x48
 1803a7c:	cmp    edi,eax
 1803a7e:	jb     0x1803a54
 1803a80:	mov    ecx,DWORD PTR [ebp-0x4]
 1803a83:	pop    edi
 1803a84:	pop    esi
 1803a85:	xor    ecx,ebp
 1803a87:	pop    ebx
 1803a88:	call   0x1809990
 1803a8d:	mov    esp,ebp
 1803a8f:	pop    ebp
 1803a90:	ret    
 1803a91:	imul   eax,edi,0x48
 1803a94:	mov    DWORD PTR [eax+esi*1+0x34],0x1
 1803a9c:	mov    edi,DWORD PTR [eax+esi*1+0x18]
 1803aa0:	test   edi,edi
 1803aa2:	je     0x1803a42
 1803aa4:	add    esi,0x20
 1803aa7:	mov    ecx,edi
 1803aa9:	push   0x5000
 1803aae:	add    eax,esi
 1803ab0:	push   eax
 1803ab1:	call   DWORD PTR ds:0x1819214
 1803ab7:	call   edi
 1803ab9:	mov    esi,DWORD PTR ds:0x1818b0c
 1803abf:	jmp    0x1803a42
 1803ac1:	int3   
 1803ac2:	int3   
 1803ac3:	int3   
 1803ac4:	int3   
 1803ac5:	int3   
 1803ac6:	mov    edi,edi
 1803ac8:	push   ebp
 1803ac9:	mov    ebp,esp
 1803acb:	sub    esp,0x10
 1803ace:	push   ebx
 1803acf:	mov    eax,ecx
 1803ad1:	mov    ebx,edx
 1803ad3:	push   esi
 1803ad4:	mov    esi,eax
 1803ad6:	mov    DWORD PTR [ebp-0x10],ebx
 1803ad9:	push   edi
 1803ada:	mov    DWORD PTR [ebp-0x8],eax
 1803add:	xor    edi,edi
 1803adf:	lea    ecx,[esi+0x2]
 1803ae2:	mov    ax,WORD PTR [esi]
 1803ae5:	add    esi,0x2
 1803ae8:	cmp    ax,di
 1803aeb:	jne    0x1803ae2
 1803aed:	sub    esi,ecx
 1803aef:	mov    ecx,ebx
 1803af1:	sar    esi,1
 1803af3:	lea    edx,[ecx+0x2]
 1803af6:	lea    eax,[esi+0x1]
 1803af9:	mov    DWORD PTR [ebp-0x4],eax
 1803afc:	mov    ax,WORD PTR [ecx]
 1803aff:	add    ecx,0x2
 1803b02:	cmp    ax,di
 1803b05:	jne    0x1803afc
 1803b07:	sub    ecx,edx
 1803b09:	sar    ecx,1
 1803b0b:	push   0x18012dc
 1803b10:	push   ebx
 1803b11:	lea    eax,[ecx+0x1]
 1803b14:	mov    DWORD PTR [ebp-0xc],eax
 1803b17:	call   DWORD PTR ds:0x18191d4
 1803b1d:	pop    ecx
 1803b1e:	pop    ecx
 1803b1f:	test   eax,eax
 1803b21:	je     0x1803c23
 1803b27:	push   0x18012f8
 1803b2c:	push   ebx
 1803b2d:	call   DWORD PTR ds:0x18191d4
 1803b33:	pop    ecx
 1803b34:	pop    ecx
 1803b35:	test   eax,eax
 1803b37:	je     0x1803c23
 1803b3d:	mov    eax,ds:0x1813744
 1803b42:	cmp    eax,0xccccccc
 1803b47:	jae    0x1803ba8
 1803b49:	inc    eax
 1803b4a:	imul   eax,eax,0x14
 1803b4d:	push   eax
 1803b4e:	push   edi
 1803b4f:	call   DWORD PTR ds:0x1819098
 1803b55:	push   eax
 1803b56:	call   DWORD PTR ds:0x1819094
 1803b5c:	mov    ebx,eax
 1803b5e:	test   ebx,ebx
 1803b60:	je     0x1803ba8
 1803b62:	imul   esi,DWORD PTR ds:0x1813744,0x14
 1803b69:	push   esi
 1803b6a:	push   DWORD PTR ds:0x1818b10
 1803b70:	push   ebx
 1803b71:	call   0x180a150
 1803b76:	xor    eax,eax
 1803b78:	lea    edi,[esi+ebx*1]
 1803b7b:	mov    esi,DWORD PTR [ebp-0x4]
 1803b7e:	add    esp,0xc
 1803b81:	stos   DWORD PTR es:[edi],eax
 1803b82:	stos   DWORD PTR es:[edi],eax
 1803b83:	stos   DWORD PTR es:[edi],eax
 1803b84:	stos   DWORD PTR es:[edi],eax
 1803b85:	stos   DWORD PTR es:[edi],eax
 1803b86:	lea    eax,[esi+esi*1]
 1803b89:	push   eax
 1803b8a:	push   0x0
 1803b8c:	call   DWORD PTR ds:0x1819098
 1803b92:	push   eax
 1803b93:	call   DWORD PTR ds:0x1819094
 1803b99:	imul   ecx,DWORD PTR ds:0x1813744,0x14
 1803ba0:	mov    DWORD PTR [ecx+ebx*1+0x4],eax
 1803ba4:	test   eax,eax
 1803ba6:	jne    0x1803bac
 1803ba8:	push   0x8
 1803baa:	jmp    0x1803c25
 1803bac:	push   DWORD PTR [ebp-0x8]
 1803baf:	mov    edx,esi
 1803bb1:	mov    ecx,eax
 1803bb3:	call   0x180235f
 1803bb8:	mov    edi,DWORD PTR [ebp-0xc]
 1803bbb:	lea    eax,[edi+edi*1]
 1803bbe:	push   eax
 1803bbf:	push   0x0
 1803bc1:	call   DWORD PTR ds:0x1819098
 1803bc7:	push   eax
 1803bc8:	call   DWORD PTR ds:0x1819094
 1803bce:	imul   esi,DWORD PTR ds:0x1813744,0x14
 1803bd5:	mov    DWORD PTR [esi+ebx*1],eax
 1803bd8:	test   eax,eax
 1803bda:	je     0x1803ba8
 1803bdc:	push   DWORD PTR [ebp-0x10]
 1803bdf:	mov    edx,edi
 1803be1:	mov    ecx,eax
 1803be3:	call   0x180235f
 1803be8:	push   DWORD PTR [esi+ebx*1]
 1803beb:	call   DWORD PTR ds:0x18191f0
 1803bf1:	inc    DWORD PTR ds:0x1813744
 1803bf7:	pop    ecx
 1803bf8:	push   DWORD PTR ds:0x1818b10
 1803bfe:	push   0x0
 1803c00:	call   DWORD PTR ds:0x1819098
 1803c06:	push   eax
 1803c07:	call   DWORD PTR ds:0x181909c
 1803c0d:	mov    ecx,DWORD PTR ds:0x1813744
 1803c13:	mov    DWORD PTR ds:0x1818b10,ebx
 1803c19:	lea    ecx,[ecx-0x1]
 1803c1c:	call   0x18038e8
 1803c21:	jmp    0x1803c26
 1803c23:	push   0x32
 1803c25:	pop    eax
 1803c26:	pop    edi
 1803c27:	pop    esi
 1803c28:	pop    ebx
 1803c29:	mov    esp,ebp
 1803c2b:	pop    ebp
 1803c2c:	ret    
 1803c2d:	int3   
 1803c2e:	int3   
 1803c2f:	int3   
 1803c30:	int3   
 1803c31:	int3   
 1803c32:	mov    edi,edi
 1803c34:	push   ebp
 1803c35:	mov    ebp,esp
 1803c37:	sub    esp,0xa8
 1803c3d:	mov    eax,ds:0x180b004
 1803c42:	xor    eax,ebp
 1803c44:	mov    DWORD PTR [ebp-0x4],eax
 1803c47:	push   ebx
 1803c48:	mov    ebx,ecx
 1803c4a:	xor    ecx,ecx
 1803c4c:	push   esi
 1803c4d:	push   edi
 1803c4e:	mov    edi,ecx
 1803c50:	cmp    DWORD PTR ds:0x1813744,ecx
 1803c56:	jbe    0x1803c81
 1803c58:	mov    esi,ecx
 1803c5a:	mov    eax,ds:0x1818b10
 1803c5f:	push   ebx
 1803c60:	push   DWORD PTR [esi+eax*1]
 1803c63:	call   DWORD PTR ds:0x18191d4
 1803c69:	pop    ecx
 1803c6a:	pop    ecx
 1803c6b:	test   eax,eax
 1803c6d:	je     0x1803d6d
 1803c73:	inc    edi
 1803c74:	add    esi,0x14
 1803c77:	cmp    edi,DWORD PTR ds:0x1813744
 1803c7d:	jb     0x1803c5a
 1803c7f:	xor    ecx,ecx
 1803c81:	push   ecx
 1803c82:	lea    eax,[ebp-0xa8]
 1803c88:	push   eax
 1803c89:	push   ecx
 1803c8a:	push   0xf003f
 1803c8f:	push   ecx
 1803c90:	push   0x1801314
 1803c95:	push   ecx
 1803c96:	push   0x1801324
 1803c9b:	push   0x80000002
 1803ca0:	call   DWORD PTR ds:0x1819114
 1803ca6:	mov    edi,eax
 1803ca8:	test   edi,edi
 1803caa:	jne    0x1803d85
 1803cb0:	push   ebx
 1803cb1:	call   DWORD PTR ds:0x18191e4
 1803cb7:	mov    esi,eax
 1803cb9:	pop    ecx
 1803cba:	test   esi,esi
 1803cbc:	jne    0x1803cd2
 1803cbe:	push   DWORD PTR [ebp-0xa8]
 1803cc4:	call   DWORD PTR ds:0x1819110
 1803cca:	push   0x8
 1803ccc:	pop    eax
 1803ccd:	jmp    0x1803d9b
 1803cd2:	push   0x2f
 1803cd4:	push   esi
 1803cd5:	mov    edi,esi
 1803cd7:	call   DWORD PTR ds:0x18191e0
 1803cdd:	pop    ecx
 1803cde:	pop    ecx
 1803cdf:	test   eax,eax
 1803ce1:	jne    0x1803cf2
 1803ce3:	push   0x5c
 1803ce5:	push   esi
 1803ce6:	call   DWORD PTR ds:0x18191e0
 1803cec:	pop    ecx
 1803ced:	pop    ecx
 1803cee:	test   eax,eax
 1803cf0:	je     0x1803cf5
 1803cf2:	lea    edi,[eax+0x2]
 1803cf5:	push   edi
 1803cf6:	push   0x50
 1803cf8:	pop    edx
 1803cf9:	lea    ecx,[ebp-0xa4]
 1803cff:	call   0x180235f
 1803d04:	lea    eax,[ebp-0xa4]
 1803d0a:	push   0x2e
 1803d0c:	push   eax
 1803d0d:	call   DWORD PTR ds:0x18191e0
 1803d13:	pop    ecx
 1803d14:	pop    ecx
 1803d15:	test   eax,eax
 1803d17:	je     0x1803d1e
 1803d19:	xor    ecx,ecx
 1803d1b:	mov    WORD PTR [eax],cx
 1803d1e:	mov    ecx,esi
 1803d20:	xor    edi,edi
 1803d22:	lea    edx,[ecx+0x2]
 1803d25:	mov    ax,WORD PTR [ecx]
 1803d28:	add    ecx,0x2
 1803d2b:	cmp    ax,di
 1803d2e:	jne    0x1803d25
 1803d30:	sub    ecx,edx
 1803d32:	sar    ecx,1
 1803d34:	lea    eax,[ecx*2+0x2]
 1803d3b:	push   eax
 1803d3c:	push   esi
 1803d3d:	push   0x1
 1803d3f:	push   edi
 1803d40:	lea    eax,[ebp-0xa4]
 1803d46:	push   eax
 1803d47:	push   DWORD PTR [ebp-0xa8]
 1803d4d:	call   DWORD PTR ds:0x1819108
 1803d53:	push   DWORD PTR [ebp-0xa8]
 1803d59:	mov    edi,eax
 1803d5b:	call   DWORD PTR ds:0x1819110
 1803d61:	push   esi
 1803d62:	call   DWORD PTR ds:0x18191dc
 1803d68:	pop    ecx
 1803d69:	test   edi,edi
 1803d6b:	jne    0x1803d85
 1803d6d:	mov    edx,ebx
 1803d6f:	lea    ecx,[ebp-0xa4]
 1803d75:	call   0x1803ac6
 1803d7a:	mov    esi,eax
 1803d7c:	call   0x1803a21
 1803d81:	mov    eax,esi
 1803d83:	jmp    0x1803d9b
 1803d85:	push   ebx
 1803d86:	push   0x3e8
 1803d8b:	push   DWORD PTR ds:0x1818b08
 1803d91:	call   0x18080e0
 1803d96:	add    esp,0xc
 1803d99:	mov    eax,edi
 1803d9b:	mov    ecx,DWORD PTR [ebp-0x4]
 1803d9e:	pop    edi
 1803d9f:	pop    esi
 1803da0:	xor    ecx,ebp
 1803da2:	pop    ebx
 1803da3:	call   0x1809990
 1803da8:	mov    esp,ebp
 1803daa:	pop    ebp
 1803dab:	ret    
 1803dac:	int3   
 1803dad:	int3   
 1803dae:	int3   
 1803daf:	int3   
 1803db0:	int3   
 1803db1:	mov    edi,edi
 1803db3:	push   ebp
 1803db4:	mov    ebp,esp
 1803db6:	sub    esp,0xc
 1803db9:	push   ebx
 1803dba:	push   esi
 1803dbb:	push   edi
 1803dbc:	xor    edi,edi
 1803dbe:	mov    DWORD PTR [ebp-0x8],edx
 1803dc1:	mov    ebx,ecx
 1803dc3:	mov    DWORD PTR [ebp-0xc],ebx
 1803dc6:	cmp    DWORD PTR ds:0x1813744,edi
 1803dcc:	jbe    0x1803df1
 1803dce:	xor    esi,esi
 1803dd0:	mov    eax,ds:0x1818b10
 1803dd5:	push   ebx
 1803dd6:	push   DWORD PTR [esi+eax*1]
 1803dd9:	call   DWORD PTR ds:0x18191d4
 1803ddf:	pop    ecx
 1803de0:	pop    ecx
 1803de1:	test   eax,eax
 1803de3:	je     0x1803dfd
 1803de5:	inc    edi
 1803de6:	add    esi,0x14
 1803de9:	cmp    edi,DWORD PTR ds:0x1813744
 1803def:	jb     0x1803dd0
 1803df1:	mov    eax,0x490
 1803df6:	pop    edi
 1803df7:	pop    esi
 1803df8:	pop    ebx
 1803df9:	mov    esp,ebp
 1803dfb:	pop    ebp
 1803dfc:	ret    
 1803dfd:	mov    ecx,DWORD PTR ds:0x1813748
 1803e03:	xor    esi,esi
 1803e05:	test   ecx,ecx
 1803e07:	je     0x1803e32
 1803e09:	xor    ebx,ebx
 1803e0b:	mov    eax,ds:0x1818b0c
 1803e10:	cmp    DWORD PTR [ebx+eax*1+0x30],edi
 1803e14:	jne    0x1803e27
 1803e16:	mov    ecx,esi
 1803e18:	call   0x180367e
 1803e1d:	mov    ecx,DWORD PTR ds:0x1813748
 1803e23:	dec    esi
 1803e24:	sub    ebx,0x48
 1803e27:	inc    esi
 1803e28:	add    ebx,0x48
 1803e2b:	cmp    esi,ecx
 1803e2d:	jb     0x1803e0b
 1803e2f:	mov    ebx,DWORD PTR [ebp-0xc]
 1803e32:	cmp    DWORD PTR [ebp-0x8],0x0
 1803e36:	je     0x1803e98
 1803e38:	lea    eax,[ebp-0x4]
 1803e3b:	push   eax
 1803e3c:	push   0xf003f
 1803e41:	push   0x0
 1803e43:	push   0x1801324
 1803e48:	push   0x80000002
 1803e4d:	call   DWORD PTR ds:0x1819104
 1803e53:	mov    esi,eax
 1803e55:	test   esi,esi
 1803e57:	jne    0x1803e7d
 1803e59:	mov    eax,ds:0x1818b10
 1803e5e:	imul   ecx,edi,0x14
 1803e61:	push   DWORD PTR [ecx+eax*1+0x4]
 1803e65:	push   DWORD PTR [ebp-0x4]
 1803e68:	call   DWORD PTR ds:0x1819100
 1803e6e:	push   DWORD PTR [ebp-0x4]
 1803e71:	mov    esi,eax
 1803e73:	call   DWORD PTR ds:0x1819110
 1803e79:	test   esi,esi
 1803e7b:	je     0x1803e98
 1803e7d:	push   ebx
 1803e7e:	push   0x3e9
 1803e83:	push   DWORD PTR ds:0x1818b08
 1803e89:	call   0x18080e0
 1803e8e:	add    esp,0xc
 1803e91:	mov    eax,esi
 1803e93:	jmp    0x1803df6
 1803e98:	mov    eax,ds:0x1818b10
 1803e9d:	xor    esi,esi
 1803e9f:	imul   ebx,edi,0x14
 1803ea2:	mov    DWORD PTR [ebp-0x8],ebx
 1803ea5:	push   DWORD PTR [ebx+eax*1]
 1803ea8:	push   esi
 1803ea9:	call   DWORD PTR ds:0x1819098
 1803eaf:	push   eax
 1803eb0:	call   DWORD PTR ds:0x181909c
 1803eb6:	mov    eax,ds:0x1818b10
 1803ebb:	push   DWORD PTR [ebx+eax*1+0x4]
 1803ebf:	mov    DWORD PTR [ebx+eax*1],esi
 1803ec2:	push   esi
 1803ec3:	call   DWORD PTR ds:0x1819098
 1803ec9:	push   eax
 1803eca:	call   DWORD PTR ds:0x181909c
 1803ed0:	mov    eax,ds:0x1818b10
 1803ed5:	mov    DWORD PTR [ebx+eax*1+0x4],esi
 1803ed9:	mov    eax,ds:0x1813744
 1803ede:	dec    eax
 1803edf:	imul   eax,eax,0x14
 1803ee2:	push   eax
 1803ee3:	push   esi
 1803ee4:	call   DWORD PTR ds:0x1819098
 1803eea:	push   eax
 1803eeb:	call   DWORD PTR ds:0x1819094
 1803ef1:	mov    DWORD PTR [ebp-0xc],eax
 1803ef4:	test   eax,eax
 1803ef6:	jne    0x1803f00
 1803ef8:	push   0x8
 1803efa:	pop    eax
 1803efb:	jmp    0x1803df6
 1803f00:	push   ebx
 1803f01:	mov    ebx,DWORD PTR ds:0x1818b10
 1803f07:	push   ebx
 1803f08:	push   eax
 1803f09:	call   0x180a150
 1803f0e:	mov    esi,DWORD PTR ds:0x1813744
 1803f14:	mov    eax,esi
 1803f16:	sub    eax,edi
 1803f18:	dec    eax
 1803f19:	imul   eax,eax,0x14
 1803f1c:	push   eax
 1803f1d:	lea    eax,[ebx+0x14]
 1803f20:	add    eax,DWORD PTR [ebp-0x8]
 1803f23:	push   eax
 1803f24:	mov    eax,DWORD PTR [ebp-0xc]
 1803f27:	add    eax,DWORD PTR [ebp-0x8]
 1803f2a:	push   eax
 1803f2b:	call   0x180a150
 1803f30:	mov    edx,DWORD PTR ds:0x1813748
 1803f36:	add    esp,0x18
 1803f39:	dec    esi
 1803f3a:	mov    DWORD PTR ds:0x1813744,esi
 1803f40:	test   edx,edx
 1803f42:	je     0x1803f5e
 1803f44:	mov    ecx,DWORD PTR ds:0x1818b0c
 1803f4a:	add    ecx,0x30
 1803f4d:	mov    eax,DWORD PTR [ecx]
 1803f4f:	cmp    eax,edi
 1803f51:	jbe    0x1803f56
 1803f53:	dec    eax
 1803f54:	mov    DWORD PTR [ecx],eax
 1803f56:	add    ecx,0x48
 1803f59:	sub    edx,0x1
 1803f5c:	jne    0x1803f4d
 1803f5e:	mov    eax,DWORD PTR [ebp-0x8]
 1803f61:	cmp    DWORD PTR [eax+ebx*1+0x8],0x0
 1803f66:	je     0x1803f78
 1803f68:	push   DWORD PTR [eax+ebx*1+0xc]
 1803f6c:	call   DWORD PTR ds:0x18190bc
 1803f72:	mov    ebx,DWORD PTR ds:0x1818b10
 1803f78:	push   ebx
 1803f79:	push   0x0
 1803f7b:	call   DWORD PTR ds:0x1819098
 1803f81:	push   eax
 1803f82:	call   DWORD PTR ds:0x181909c
 1803f88:	mov    eax,DWORD PTR [ebp-0xc]
 1803f8b:	mov    ds:0x1818b10,eax
 1803f90:	xor    eax,eax
 1803f92:	jmp    0x1803df6
 1803f97:	int3   
 1803f98:	int3   
 1803f99:	int3   
 1803f9a:	int3   
 1803f9b:	int3   
 1803f9c:	mov    edi,edi
 1803f9e:	push   ebp
 1803f9f:	mov    ebp,esp
 1803fa1:	sub    esp,0x18
 1803fa4:	push   ebx
 1803fa5:	push   esi
 1803fa6:	push   edi
 1803fa7:	lea    eax,[ebp-0x4]
 1803faa:	xor    ebx,ebx
 1803fac:	push   eax
 1803fad:	push   0x20019
 1803fb2:	push   ebx
 1803fb3:	push   0x1801324
 1803fb8:	push   0x80000002
 1803fbd:	mov    DWORD PTR [ebp-0x4],ebx
 1803fc0:	mov    edi,ebx
 1803fc2:	mov    esi,ebx
 1803fc4:	call   DWORD PTR ds:0x1819104
 1803fca:	test   eax,eax
 1803fcc:	jne    0x18040a7
 1803fd2:	push   ebx
 1803fd3:	push   ebx
 1803fd4:	lea    eax,[ebp-0xc]
 1803fd7:	push   eax
 1803fd8:	lea    eax,[ebp-0x10]
 1803fdb:	push   eax
 1803fdc:	lea    eax,[ebp-0x8]
 1803fdf:	push   eax
 1803fe0:	push   ebx
 1803fe1:	push   ebx
 1803fe2:	push   ebx
 1803fe3:	push   ebx
 1803fe4:	push   ebx
 1803fe5:	push   ebx
 1803fe6:	push   DWORD PTR [ebp-0x4]
 1803fe9:	call   DWORD PTR ds:0x1819118
 1803fef:	test   eax,eax
 1803ff1:	jne    0x18040a7
 1803ff7:	cmp    DWORD PTR [ebp-0x8],ebx
 1803ffa:	je     0x18040a7
 1804000:	mov    eax,DWORD PTR [ebp-0x10]
 1804003:	lea    eax,[eax*2+0x2]
 180400a:	push   eax
 180400b:	push   0x8
 180400d:	call   DWORD PTR ds:0x1819098
 1804013:	push   eax
 1804014:	call   DWORD PTR ds:0x1819094
 180401a:	mov    esi,eax
 180401c:	test   esi,esi
 180401e:	jne    0x1804031
 1804020:	push   0x68
 1804022:	push   DWORD PTR ds:0x1818b08
 1804028:	call   0x18080e0
 180402d:	pop    ecx
 180402e:	pop    ecx
 180402f:	jmp    0x18040a7
 1804031:	mov    eax,DWORD PTR [ebp-0xc]
 1804034:	inc    eax
 1804035:	push   eax
 1804036:	push   0x8
 1804038:	call   DWORD PTR ds:0x1819098
 180403e:	push   eax
 180403f:	call   DWORD PTR ds:0x1819094
 1804045:	mov    edi,eax
 1804047:	test   edi,edi
 1804049:	jne    0x180405e
 180404b:	push   esi
 180404c:	push   ebx
 180404d:	call   DWORD PTR ds:0x1819098
 1804053:	push   eax
 1804054:	call   DWORD PTR ds:0x181909c
 180405a:	mov    esi,ebx
 180405c:	jmp    0x1804020
 180405e:	cmp    DWORD PTR [ebp-0x8],ebx
 1804061:	jbe    0x18040a5
 1804063:	mov    eax,DWORD PTR [ebp-0xc]
 1804066:	inc    eax
 1804067:	mov    DWORD PTR [ebp-0x14],eax
 180406a:	mov    eax,DWORD PTR [ebp-0x10]
 180406d:	inc    eax
 180406e:	mov    DWORD PTR [ebp-0x18],eax
 1804071:	lea    eax,[ebp-0x14]
 1804074:	push   eax
 1804075:	push   edi
 1804076:	push   0x0
 1804078:	push   0x0
 180407a:	lea    eax,[ebp-0x18]
 180407d:	push   eax
 180407e:	push   esi
 180407f:	push   ebx
 1804080:	push   DWORD PTR [ebp-0x4]
 1804083:	call   DWORD PTR ds:0x18190fc
 1804089:	test   eax,eax
 180408b:	je     0x1804096
 180408d:	cmp    eax,0x103
 1804092:	je     0x18040a5
 1804094:	jmp    0x180409f
 1804096:	mov    edx,edi
 1804098:	mov    ecx,esi
 180409a:	call   0x1803ac6
 180409f:	inc    ebx
 18040a0:	cmp    ebx,DWORD PTR [ebp-0x8]
 18040a3:	jb     0x1804063
 18040a5:	xor    ebx,ebx
 18040a7:	cmp    DWORD PTR [ebp-0x4],0x0
 18040ab:	je     0x18040b6
 18040ad:	push   DWORD PTR [ebp-0x4]
 18040b0:	call   DWORD PTR ds:0x1819110
 18040b6:	test   esi,esi
 18040b8:	je     0x18040c9
 18040ba:	push   esi
 18040bb:	push   ebx
 18040bc:	call   DWORD PTR ds:0x1819098
 18040c2:	push   eax
 18040c3:	call   DWORD PTR ds:0x181909c
 18040c9:	test   edi,edi
 18040cb:	je     0x18040dc
 18040cd:	push   edi
 18040ce:	push   ebx
 18040cf:	call   DWORD PTR ds:0x1819098
 18040d5:	push   eax
 18040d6:	call   DWORD PTR ds:0x181909c
 18040dc:	call   0x1803a21
 18040e1:	pop    edi
 18040e2:	pop    esi
 18040e3:	pop    ebx
 18040e4:	mov    esp,ebp
 18040e6:	pop    ebp
 18040e7:	ret    
 18040e8:	int3   
 18040e9:	int3   
 18040ea:	int3   
 18040eb:	int3   
 18040ec:	int3   
 18040ed:	mov    edi,edi
 18040ef:	push   ebp
 18040f0:	mov    ebp,esp
 18040f2:	push   ecx
 18040f3:	push   ebx
 18040f4:	mov    ebx,ecx
 18040f6:	mov    eax,edx
 18040f8:	push   esi
 18040f9:	xor    esi,esi
 18040fb:	mov    DWORD PTR [ebp-0x4],eax
 18040fe:	push   edi
 18040ff:	cmp    DWORD PTR [ebx+0x38],esi
 1804102:	jbe    0x1804123
 1804104:	mov    edi,DWORD PTR [ebx+0x40]
 1804107:	imul   edi,esi
 180410a:	add    edi,DWORD PTR [ebx+0x3c]
 180410d:	push   DWORD PTR [edi+0x8]
 1804110:	push   eax
 1804111:	call   0x18078c0
 1804116:	test   eax,eax
 1804118:	jne    0x1804131
 180411a:	mov    eax,DWORD PTR [ebp-0x4]
 180411d:	inc    esi
 180411e:	cmp    esi,DWORD PTR [ebx+0x38]
 1804121:	jb     0x1804104
 1804123:	mov    eax,0x490
 1804128:	pop    edi
 1804129:	pop    esi
 180412a:	pop    ebx
 180412b:	mov    esp,ebp
 180412d:	pop    ebp
 180412e:	ret    0x4
 1804131:	mov    eax,DWORD PTR [ebp+0x8]
 1804134:	mov    DWORD PTR [eax],edi
 1804136:	xor    eax,eax
 1804138:	jmp    0x1804128
 180413a:	int3   
 180413b:	int3   
 180413c:	int3   
 180413d:	int3   
 180413e:	int3   
 180413f:	mov    edi,edi
 1804141:	push   ebp
 1804142:	mov    ebp,esp
 1804144:	push   ecx
 1804145:	mov    eax,ds:0x180b004
 180414a:	xor    eax,ebp
 180414c:	mov    DWORD PTR [ebp-0x4],eax
 180414f:	mov    ecx,DWORD PTR ds:0x1813748
 1804155:	test   ecx,ecx
 1804157:	je     0x18041b1
 1804159:	push   esi
 180415a:	xor    esi,esi
 180415c:	test   ecx,ecx
 180415e:	je     0x180418d
 1804160:	push   ebx
 1804161:	push   edi
 1804162:	xor    edi,edi
 1804164:	mov    eax,ds:0x1818b0c
 1804169:	mov    ebx,DWORD PTR [edi+eax*1+0x1c]
 180416d:	test   ebx,ebx
 180416f:	je     0x1804183
 1804171:	push   0x0
 1804173:	mov    ecx,ebx
 1804175:	call   DWORD PTR ds:0x1819214
 180417b:	call   ebx
 180417d:	mov    ecx,DWORD PTR ds:0x1813748
 1804183:	inc    esi
 1804184:	add    edi,0x48
 1804187:	cmp    esi,ecx
 1804189:	jb     0x1804164
 180418b:	pop    edi
 180418c:	pop    ebx
 180418d:	push   DWORD PTR ds:0x1818b0c
 1804193:	push   0x0
 1804195:	call   DWORD PTR ds:0x1819098
 180419b:	push   eax
 180419c:	call   DWORD PTR ds:0x181909c
 18041a2:	and    DWORD PTR ds:0x1813748,0x0
 18041a9:	and    DWORD PTR ds:0x1818b0c,0x0
 18041b0:	pop    esi
 18041b1:	mov    ecx,DWORD PTR [ebp-0x4]
 18041b4:	xor    eax,eax
 18041b6:	xor    ecx,ebp
 18041b8:	call   0x1809990
 18041bd:	mov    esp,ebp
 18041bf:	pop    ebp
 18041c0:	ret    
 18041c1:	int3   
 18041c2:	int3   
 18041c3:	int3   
 18041c4:	int3   
 18041c5:	int3   
 18041c6:	mov    eax,ds:0x1813744
 18041cb:	test   eax,eax
 18041cd:	je     0x1804222
 18041cf:	push   ebx
 18041d0:	xor    ebx,ebx
 18041d2:	push   edi
 18041d3:	mov    edi,ebx
 18041d5:	test   eax,eax
 18041d7:	je     0x1804200
 18041d9:	push   esi
 18041da:	mov    esi,ebx
 18041dc:	mov    ecx,DWORD PTR ds:0x1818b10
 18041e2:	cmp    DWORD PTR [esi+ecx*1+0x8],ebx
 18041e6:	je     0x18041f7
 18041e8:	push   DWORD PTR [esi+ecx*1+0xc]
 18041ec:	call   DWORD PTR ds:0x18190bc
 18041f2:	mov    eax,ds:0x1813744
 18041f7:	inc    edi
 18041f8:	add    esi,0x14
 18041fb:	cmp    edi,eax
 18041fd:	jb     0x18041dc
 18041ff:	pop    esi
 1804200:	push   DWORD PTR ds:0x1818b10
 1804206:	push   ebx
 1804207:	call   DWORD PTR ds:0x1819098
 180420d:	push   eax
 180420e:	call   DWORD PTR ds:0x181909c
 1804214:	pop    edi
 1804215:	mov    DWORD PTR ds:0x1813744,ebx
 180421b:	mov    DWORD PTR ds:0x1818b10,ebx
 1804221:	pop    ebx
 1804222:	xor    eax,eax
 1804224:	ret    
 1804225:	int3   
 1804226:	int3   
 1804227:	int3   
 1804228:	int3   
 1804229:	int3   
 180422a:	mov    edi,edi
 180422c:	push   ebp
 180422d:	mov    ebp,esp
 180422f:	sub    esp,0x70
 1804232:	mov    eax,ds:0x180b004
 1804237:	xor    eax,ebp
 1804239:	mov    DWORD PTR [ebp-0x4],eax
 180423c:	push   ebx
 180423d:	mov    ebx,ecx
 180423f:	xor    eax,eax
 1804241:	push   esi
 1804242:	mov    esi,edx
 1804244:	mov    DWORD PTR [ebp-0x68],eax
 1804247:	push   edi
 1804248:	mov    ecx,eax
 180424a:	mov    DWORD PTR [ebp-0x70],esi
 180424d:	cmp    DWORD PTR [ebx+0x38],eax
 1804250:	jbe    0x18042f4
 1804256:	mov    edi,DWORD PTR [ebx+0x40]
 1804259:	lea    edx,[ebp-0x6c]
 180425c:	imul   edi,ecx
 180425f:	add    edi,DWORD PTR [ebx+0x3c]
 1804262:	lea    ecx,[edi+0xc]
 1804265:	call   0x180378e
 180426a:	test   eax,eax
 180426c:	jne    0x18042f4
 1804272:	lea    eax,[ebp-0x64]
 1804275:	push   eax
 1804276:	lea    eax,[edi+0xc]
 1804279:	push   eax
 180427a:	call   0x1803850
 180427f:	mov    eax,DWORD PTR [ebp-0x6c]
 1804282:	imul   ecx,DWORD PTR [eax+0x30],0x14
 1804286:	mov    eax,ds:0x1818b10
 180428b:	push   DWORD PTR [ecx+eax*1]
 180428e:	lea    eax,[ebp-0x64]
 1804291:	push   eax
 1804292:	push   0xc8
 1804297:	push   DWORD PTR ds:0x1818b08
 180429d:	call   0x18080e0
 18042a2:	add    esp,0x10
 18042a5:	test   esi,esi
 18042a7:	je     0x18042c3
 18042a9:	push   0xc9
 18042ae:	push   DWORD PTR ds:0x1818b08
 18042b4:	call   0x18080e0
 18042b9:	pop    ecx
 18042ba:	pop    ecx
 18042bb:	sub    esi,0x1
 18042be:	jne    0x18042a9
 18042c0:	mov    esi,DWORD PTR [ebp-0x70]
 18042c3:	push   DWORD PTR [edi+0x8]
 18042c6:	push   0xca
 18042cb:	push   DWORD PTR ds:0x1818b08
 18042d1:	call   0x18080e0
 18042d6:	mov    ecx,DWORD PTR [ebp-0x6c]
 18042d9:	lea    edx,[esi+0x1]
 18042dc:	add    esp,0xc
 18042df:	call   0x180422a
 18042e4:	mov    ecx,DWORD PTR [ebp-0x68]
 18042e7:	inc    ecx
 18042e8:	mov    DWORD PTR [ebp-0x68],ecx
 18042eb:	cmp    ecx,DWORD PTR [ebx+0x38]
 18042ee:	jb     0x1804256
 18042f4:	mov    ecx,DWORD PTR [ebp-0x4]
 18042f7:	pop    edi
 18042f8:	pop    esi
 18042f9:	xor    ecx,ebp
 18042fb:	pop    ebx
 18042fc:	call   0x1809990
 1804301:	mov    esp,ebp
 1804303:	pop    ebp
 1804304:	ret    
 1804305:	int3   
 1804306:	int3   
 1804307:	int3   
 1804308:	int3   
 1804309:	int3   
 180430a:	int3   
 180430b:	int3   
 180430c:	int3   
 180430d:	int3   
 180430e:	int3   
 180430f:	int3   
 1804310:	mov    edi,edi
 1804312:	push   ebp
 1804313:	mov    ebp,esp
 1804315:	sub    esp,0xcc
 180431b:	mov    eax,ds:0x180b004
 1804320:	xor    eax,ebp
 1804322:	mov    DWORD PTR [ebp-0x4],eax
 1804325:	mov    eax,ds:0x181374c
 180432a:	lea    edx,[ebp-0xc8]
 1804330:	lea    ecx,[ebp-0xcc]
 1804336:	mov    DWORD PTR [ebp-0xc8],eax
 180433c:	call   0x1804f1b
 1804341:	test   eax,eax
 1804343:	jne    0x1804463
 1804349:	push   ebx
 180434a:	push   esi
 180434b:	push   edi
 180434c:	push   0xcb
 1804351:	push   DWORD PTR ds:0x1818b08
 1804357:	call   0x18080e0
 180435c:	pop    ecx
 180435d:	pop    ecx
 180435e:	mov    ecx,DWORD PTR [ebp-0xc8]
 1804364:	xor    edx,edx
 1804366:	call   0x180422a
 180436b:	mov    ecx,DWORD PTR ds:0x1813744
 1804371:	xor    ebx,ebx
 1804373:	xor    edi,edi
 1804375:	test   ecx,ecx
 1804377:	je     0x18043c0
 1804379:	xor    esi,esi
 180437b:	mov    eax,ds:0x1818b10
 1804380:	cmp    DWORD PTR [esi+eax*1+0x8],0x0
 1804385:	jne    0x18043b8
 1804387:	test   ebx,ebx
 1804389:	jne    0x180439e
 180438b:	push   0xcc
 1804390:	push   DWORD PTR ds:0x1818b08
 1804396:	call   0x18080e0
 180439b:	pop    ecx
 180439c:	pop    ecx
 180439d:	inc    ebx
 180439e:	mov    eax,ds:0x1818b10
 18043a3:	push   DWORD PTR [esi+eax*1]
 18043a6:	push   0x1801230
 18043ab:	call   0x18080b0
 18043b0:	pop    ecx
 18043b1:	pop    ecx
 18043b2:	mov    ecx,DWORD PTR ds:0x1813744
 18043b8:	inc    edi
 18043b9:	add    esi,0x14
 18043bc:	cmp    edi,ecx
 18043be:	jb     0x180437b
 18043c0:	mov    eax,ds:0x1813748
 18043c5:	xor    ebx,ebx
 18043c7:	xor    edi,edi
 18043c9:	test   eax,eax
 18043cb:	je     0x180445e
 18043d1:	xor    esi,esi
 18043d3:	mov    ecx,DWORD PTR ds:0x1818b0c
 18043d9:	cmp    DWORD PTR [esi+ecx*1+0x34],0x0
 18043de:	jne    0x1804452
 18043e0:	lea    eax,[ebp-0xc4]
 18043e6:	push   eax
 18043e7:	lea    eax,[ecx+0x8]
 18043ea:	add    eax,esi
 18043ec:	push   eax
 18043ed:	call   0x1803850
 18043f2:	lea    eax,[ebp-0x64]
 18043f5:	push   eax
 18043f6:	mov    eax,ds:0x1818b0c
 18043fb:	add    eax,0x20
 18043fe:	add    eax,esi
 1804400:	push   eax
 1804401:	call   0x1803850
 1804406:	test   ebx,ebx
 1804408:	jne    0x180441d
 180440a:	push   0xcd
 180440f:	push   DWORD PTR ds:0x1818b08
 1804415:	call   0x18080e0
 180441a:	pop    ecx
 180441b:	pop    ecx
 180441c:	inc    ebx
 180441d:	lea    eax,[ebp-0x64]
 1804420:	push   eax
 1804421:	mov    eax,ds:0x1818b0c
 1804426:	imul   ecx,DWORD PTR [esi+eax*1+0x30],0x14
 180442b:	mov    eax,ds:0x1818b10
 1804430:	push   DWORD PTR [ecx+eax*1]
 1804433:	lea    eax,[ebp-0xc4]
 1804439:	push   eax
 180443a:	push   0xce
 180443f:	push   DWORD PTR ds:0x1818b08
 1804445:	call   0x18080e0
 180444a:	mov    eax,ds:0x1813748
 180444f:	add    esp,0x14
 1804452:	inc    edi
 1804453:	add    esi,0x48
 1804456:	cmp    edi,eax
 1804458:	jb     0x18043d3
 180445e:	pop    edi
 180445f:	pop    esi
 1804460:	xor    eax,eax
 1804462:	pop    ebx
 1804463:	mov    ecx,DWORD PTR [ebp-0x4]
 1804466:	xor    ecx,ebp
 1804468:	call   0x1809990
 180446d:	mov    esp,ebp
 180446f:	pop    ebp
 1804470:	ret    0x1c
 1804473:	int3   
 1804474:	int3   
 1804475:	int3   
 1804476:	int3   
 1804477:	int3   
 1804478:	int3   
 1804479:	int3   
 180447a:	int3   
 180447b:	int3   
 180447c:	int3   
 180447d:	int3   
 180447e:	int3   
 180447f:	int3   
 1804480:	mov    edi,edi
 1804482:	push   ebp
 1804483:	mov    ebp,esp
 1804485:	mov    eax,DWORD PTR [ebp+0x14]
 1804488:	push   esi
 1804489:	mov    esi,DWORD PTR [ebp+0x10]
 180448c:	sub    eax,esi
 180448e:	push   edi
 180448f:	cmp    eax,0x1
 1804492:	jne    0x18044e5
 1804494:	mov    edi,DWORD PTR [ebp+0xc]
 1804497:	push   0x18011c8
 180449c:	push   DWORD PTR [edi+esi*4]
 180449f:	call   0x18078c0
 18044a4:	test   eax,eax
 18044a6:	jne    0x18044e5
 18044a8:	push   0x18011d4
 18044ad:	push   DWORD PTR [edi+esi*4]
 18044b0:	call   0x18078c0
 18044b5:	test   eax,eax
 18044b7:	jne    0x18044e5
 18044b9:	mov    ecx,DWORD PTR [edi+esi*4]
 18044bc:	call   0x1803c32
 18044c1:	cmp    eax,0x8
 18044c4:	jne    0x18044da
 18044c6:	push   0x68
 18044c8:	push   DWORD PTR ds:0x1818b08
 18044ce:	call   0x18080e0
 18044d3:	pop    ecx
 18044d4:	pop    ecx
 18044d5:	mov    eax,0x3aa9
 18044da:	test   eax,eax
 18044dc:	jne    0x18044ea
 18044de:	mov    eax,0x3aa7
 18044e3:	jmp    0x18044ea
 18044e5:	mov    eax,0x3a99
 18044ea:	pop    edi
 18044eb:	pop    esi
 18044ec:	pop    ebp
 18044ed:	ret    0x1c
 18044f0:	int3   
 18044f1:	int3   
 18044f2:	int3   
 18044f3:	int3   
 18044f4:	int3   
 18044f5:	int3   
 18044f6:	int3   
 18044f7:	int3   
 18044f8:	int3   
 18044f9:	int3   
 18044fa:	int3   
 18044fb:	int3   
 18044fc:	int3   
 18044fd:	int3   
 18044fe:	int3   
 18044ff:	int3   
 1804500:	mov    edi,edi
 1804502:	push   ebp
 1804503:	mov    ebp,esp
 1804505:	mov    eax,DWORD PTR [ebp+0x14]
 1804508:	xor    edx,edx
 180450a:	push   esi
 180450b:	mov    esi,DWORD PTR [ebp+0x10]
 180450e:	inc    edx
 180450f:	sub    eax,esi
 1804511:	cmp    eax,edx
 1804513:	je     0x180451c
 1804515:	mov    eax,0x3a99
 180451a:	jmp    0x1804548
 180451c:	mov    ecx,DWORD PTR [ebp+0xc]
 180451f:	mov    ecx,DWORD PTR [ecx+esi*4]
 1804522:	call   0x1803db1
 1804527:	mov    esi,eax
 1804529:	cmp    esi,0x8
 180452c:	jne    0x180453d
 180452e:	push   0x68
 1804530:	push   DWORD PTR ds:0x1818b08
 1804536:	call   0x18080e0
 180453b:	pop    ecx
 180453c:	pop    ecx
 180453d:	test   esi,esi
 180453f:	jne    0x1804546
 1804541:	mov    esi,0x3aa7
 1804546:	mov    eax,esi
 1804548:	pop    esi
 1804549:	pop    ebp
 180454a:	ret    0x1c
 180454d:	int3   
 180454e:	int3   
 180454f:	int3   
 1804550:	int3   
 1804551:	int3   
 1804552:	mov    edi,edi
 1804554:	push   esi
 1804555:	mov    esi,ecx
 1804557:	push   edi
 1804558:	mov    edi,edx
 180455a:	mov    eax,DWORD PTR [esi+0x38]
 180455d:	cmp    edi,eax
 180455f:	jb     0x1804569
 1804561:	push   0x57
 1804563:	pop    eax
 1804564:	jmp    0x18045ed
 1804569:	push   ebx
 180456a:	cmp    eax,0x1
 180456d:	jb     0x18045e9
 180456f:	lea    ecx,[eax-0x1]
 1804572:	xor    edx,edx
 1804574:	or     eax,0xffffffff
 1804577:	div    DWORD PTR [esi+0x40]
 180457a:	cmp    ecx,eax
 180457c:	ja     0x18045e9
 180457e:	imul   ecx,DWORD PTR [esi+0x40]
 1804582:	push   ecx
 1804583:	push   0x0
 1804585:	call   DWORD PTR ds:0x1819098
 180458b:	push   eax
 180458c:	call   DWORD PTR ds:0x1819094
 1804592:	mov    ebx,eax
 1804594:	test   ebx,ebx
 1804596:	je     0x18045e9
 1804598:	mov    ecx,DWORD PTR [esi+0x40]
 180459b:	imul   ecx,edi
 180459e:	push   ecx
 180459f:	push   DWORD PTR [esi+0x3c]
 18045a2:	push   ebx
 18045a3:	call   0x180a150
 18045a8:	mov    eax,DWORD PTR [esi+0x38]
 18045ab:	mov    ecx,DWORD PTR [esi+0x40]
 18045ae:	sub    eax,edi
 18045b0:	dec    eax
 18045b1:	imul   eax,ecx
 18045b4:	push   eax
 18045b5:	lea    eax,[edi+0x1]
 18045b8:	imul   eax,ecx
 18045bb:	imul   ecx,edi
 18045be:	add    eax,DWORD PTR [esi+0x3c]
 18045c1:	push   eax
 18045c2:	add    ecx,ebx
 18045c4:	push   ecx
 18045c5:	call   0x180a150
 18045ca:	add    esp,0x18
 18045cd:	dec    DWORD PTR [esi+0x38]
 18045d0:	push   DWORD PTR [esi+0x3c]
 18045d3:	push   0x0
 18045d5:	call   DWORD PTR ds:0x1819098
 18045db:	push   eax
 18045dc:	call   DWORD PTR ds:0x181909c
 18045e2:	mov    DWORD PTR [esi+0x3c],ebx
 18045e5:	xor    eax,eax
 18045e7:	jmp    0x18045ec
 18045e9:	push   0x8
 18045eb:	pop    eax
 18045ec:	pop    ebx
 18045ed:	pop    edi
 18045ee:	pop    esi
 18045ef:	ret    
 18045f0:	int3   
 18045f1:	int3   
 18045f2:	int3   
 18045f3:	int3   
 18045f4:	int3   
 18045f5:	mov    edi,edi
 18045f7:	push   ebp
 18045f8:	mov    ebp,esp
 18045fa:	push   ecx
 18045fb:	push   ebx
 18045fc:	push   esi
 18045fd:	mov    esi,ecx
 18045ff:	mov    ebx,edx
 1804601:	or     eax,0xffffffff
 1804604:	mov    DWORD PTR [ebp-0x4],ebx
 1804607:	xor    edx,edx
 1804609:	push   edi
 180460a:	div    DWORD PTR [esi+0x40]
 180460d:	cmp    DWORD PTR [esi+0x38],eax
 1804610:	jae    0x18046e7
 1804616:	xor    edi,edi
 1804618:	cmp    DWORD PTR [esi+0x38],edi
 180461b:	jbe    0x180463e
 180461d:	mov    eax,DWORD PTR [esi+0x40]
 1804620:	imul   eax,edi
 1804623:	add    eax,DWORD PTR [esi+0x3c]
 1804626:	push   DWORD PTR [eax+0x8]
 1804629:	push   DWORD PTR [ebx+0x8]
 180462c:	call   DWORD PTR ds:0x18191d4
 1804632:	pop    ecx
 1804633:	pop    ecx
 1804634:	test   eax,eax
 1804636:	js     0x180463e
 1804638:	inc    edi
 1804639:	cmp    edi,DWORD PTR [esi+0x38]
 180463c:	jb     0x180461d
 180463e:	mov    ecx,DWORD PTR [esi+0x38]
 1804641:	cmp    ecx,0xfffffffe
 1804644:	ja     0x18046e7
 180464a:	or     eax,0xffffffff
 180464d:	xor    edx,edx
 180464f:	div    DWORD PTR [esi+0x40]
 1804652:	inc    ecx
 1804653:	cmp    ecx,eax
 1804655:	ja     0x18046e7
 180465b:	imul   ecx,DWORD PTR [esi+0x40]
 180465f:	push   ecx
 1804660:	push   0x0
 1804662:	call   DWORD PTR ds:0x1819098
 1804668:	push   eax
 1804669:	call   DWORD PTR ds:0x1819094
 180466f:	mov    ebx,eax
 1804671:	test   ebx,ebx
 1804673:	je     0x18046e7
 1804675:	test   edi,edi
 1804677:	je     0x180468c
 1804679:	mov    ecx,DWORD PTR [esi+0x40]
 180467c:	imul   ecx,edi
 180467f:	push   ecx
 1804680:	push   DWORD PTR [esi+0x3c]
 1804683:	push   ebx
 1804684:	call   0x180a150
 1804689:	add    esp,0xc
 180468c:	mov    eax,DWORD PTR [esi+0x40]
 180468f:	push   eax
 1804690:	push   DWORD PTR [ebp-0x4]
 1804693:	imul   eax,edi
 1804696:	add    eax,ebx
 1804698:	push   eax
 1804699:	call   0x180a150
 180469e:	mov    eax,DWORD PTR [esi+0x38]
 18046a1:	add    esp,0xc
 18046a4:	cmp    edi,eax
 18046a6:	jae    0x18046cb
 18046a8:	sub    eax,edi
 18046aa:	imul   eax,DWORD PTR [esi+0x40]
 18046ae:	push   eax
 18046af:	mov    eax,DWORD PTR [esi+0x40]
 18046b2:	imul   eax,edi
 18046b5:	add    eax,DWORD PTR [esi+0x3c]
 18046b8:	push   eax
 18046b9:	lea    eax,[edi+0x1]
 18046bc:	imul   eax,DWORD PTR [esi+0x40]
 18046c0:	add    eax,ebx
 18046c2:	push   eax
 18046c3:	call   0x180a150
 18046c8:	add    esp,0xc
 18046cb:	push   DWORD PTR [esi+0x3c]
 18046ce:	inc    DWORD PTR [esi+0x38]
 18046d1:	push   0x0
 18046d3:	call   DWORD PTR ds:0x1819098
 18046d9:	push   eax
 18046da:	call   DWORD PTR ds:0x181909c
 18046e0:	mov    DWORD PTR [esi+0x3c],ebx
 18046e3:	xor    eax,eax
 18046e5:	jmp    0x18046ea
 18046e7:	push   0x8
 18046e9:	pop    eax
 18046ea:	pop    edi
 18046eb:	pop    esi
 18046ec:	pop    ebx
 18046ed:	mov    esp,ebp
 18046ef:	pop    ebp
 18046f0:	ret    
 18046f1:	int3   
 18046f2:	int3   
 18046f3:	int3   
 18046f4:	int3   
 18046f5:	int3   
 18046f6:	int3   
 18046f7:	int3   
 18046f8:	int3   
 18046f9:	int3   
 18046fa:	int3   
 18046fb:	int3   
 18046fc:	int3   
 18046fd:	int3   
 18046fe:	int3   
 18046ff:	int3   
 1804700:	mov    edi,edi
 1804702:	push   ebp
 1804703:	mov    ebp,esp
 1804705:	sub    esp,0x1c
 1804708:	push   edi
 1804709:	mov    edi,DWORD PTR [ebp+0x8]
 180470c:	test   edi,edi
 180470e:	jne    0x1804718
 1804710:	push   0x57
 1804712:	pop    eax
 1804713:	jmp    0x180496b
 1804718:	mov    edx,DWORD PTR [edi+0x8]
 180471b:	push   ebx
 180471c:	push   esi
 180471d:	test   edx,edx
 180471f:	je     0x1804966
 1804725:	mov    ecx,edx
 1804727:	xor    esi,esi
 1804729:	lea    ebx,[ecx+0x2]
 180472c:	mov    ax,WORD PTR [ecx]
 180472f:	add    ecx,0x2
 1804732:	cmp    ax,si
 1804735:	jne    0x180472c
 1804737:	sub    ecx,ebx
 1804739:	sar    ecx,1
 180473b:	je     0x1804966
 1804741:	push   0x20
 1804743:	push   edx
 1804744:	call   DWORD PTR ds:0x18191c8
 180474a:	pop    ecx
 180474b:	pop    ecx
 180474c:	test   eax,eax
 180474e:	jne    0x1804966
 1804754:	push   0x3d
 1804756:	push   DWORD PTR [edi+0x8]
 1804759:	call   DWORD PTR ds:0x18191c8
 180475f:	pop    ecx
 1804760:	pop    ecx
 1804761:	test   eax,eax
 1804763:	jne    0x1804966
 1804769:	mov    DWORD PTR [ebp-0x4],esi
 180476c:	cmp    DWORD PTR [edi+0x24],esi
 180476f:	jbe    0x18047df
 1804771:	mov    ecx,esi
 1804773:	mov    DWORD PTR [ebp-0x8],esi
 1804776:	mov    ebx,DWORD PTR [edi+0x28]
 1804779:	add    ebx,ecx
 180477b:	cmp    DWORD PTR [ebx],esi
 180477d:	je     0x18047b5
 180477f:	mov    ecx,DWORD PTR [ebx]
 1804781:	lea    edx,[ecx+0x2]
 1804784:	mov    ax,WORD PTR [ecx]
 1804787:	add    ecx,0x2
 180478a:	cmp    ax,si
 180478d:	jne    0x1804784
 180478f:	sub    ecx,edx
 1804791:	sar    ecx,1
 1804793:	je     0x18047b5
 1804795:	push   0x20
 1804797:	push   DWORD PTR [ebx]
 1804799:	call   DWORD PTR ds:0x18191c8
 180479f:	pop    ecx
 18047a0:	pop    ecx
 18047a1:	test   eax,eax
 18047a3:	jne    0x18047b5
 18047a5:	push   0x3d
 18047a7:	push   DWORD PTR [ebx]
 18047a9:	call   DWORD PTR ds:0x18191c8
 18047af:	pop    ecx
 18047b0:	pop    ecx
 18047b1:	test   eax,eax
 18047b3:	je     0x18047ca
 18047b5:	push   DWORD PTR [ebx]
 18047b7:	push   0xb5
 18047bc:	push   DWORD PTR ds:0x1818b08
 18047c2:	call   0x18080e0
 18047c7:	add    esp,0xc
 18047ca:	mov    eax,DWORD PTR [ebp-0x4]
 18047cd:	mov    ecx,DWORD PTR [ebp-0x8]
 18047d0:	inc    eax
 18047d1:	add    ecx,0x18
 18047d4:	mov    DWORD PTR [ebp-0x4],eax
 18047d7:	mov    DWORD PTR [ebp-0x8],ecx
 18047da:	cmp    eax,DWORD PTR [edi+0x24]
 18047dd:	jb     0x1804776
 18047df:	mov    DWORD PTR [ebp-0x10],esi
 18047e2:	cmp    DWORD PTR [edi+0x2c],esi
 18047e5:	jbe    0x18048ea
 18047eb:	mov    ecx,esi
 18047ed:	mov    DWORD PTR [ebp-0x14],esi
 18047f0:	mov    ebx,DWORD PTR [edi+0x30]
 18047f3:	add    ebx,ecx
 18047f5:	cmp    DWORD PTR [ebx],esi
 18047f7:	je     0x180482f
 18047f9:	mov    ecx,DWORD PTR [ebx]
 18047fb:	lea    edx,[ecx+0x2]
 18047fe:	mov    ax,WORD PTR [ecx]
 1804801:	add    ecx,0x2
 1804804:	cmp    ax,si
 1804807:	jne    0x18047fe
 1804809:	sub    ecx,edx
 180480b:	sar    ecx,1
 180480d:	je     0x180482f
 180480f:	push   0x20
 1804811:	push   DWORD PTR [ebx]
 1804813:	call   DWORD PTR ds:0x18191c8
 1804819:	pop    ecx
 180481a:	pop    ecx
 180481b:	test   eax,eax
 180481d:	jne    0x180482f
 180481f:	push   0x3d
 1804821:	push   DWORD PTR [ebx]
 1804823:	call   DWORD PTR ds:0x18191c8
 1804829:	pop    ecx
 180482a:	pop    ecx
 180482b:	test   eax,eax
 180482d:	je     0x1804844
 180482f:	push   DWORD PTR [ebx]
 1804831:	push   0xb6
 1804836:	push   DWORD PTR ds:0x1818b08
 180483c:	call   0x18080e0
 1804841:	add    esp,0xc
 1804844:	mov    DWORD PTR [ebp-0x8],esi
 1804847:	cmp    DWORD PTR [ebx+0x8],esi
 180484a:	jbe    0x18048d1
 1804850:	mov    ecx,esi
 1804852:	mov    DWORD PTR [ebp-0xc],esi
 1804855:	mov    edx,DWORD PTR [ebx+0x10]
 1804858:	add    edx,ecx
 180485a:	mov    DWORD PTR [ebp-0x4],edx
 180485d:	mov    eax,DWORD PTR [edx]
 180485f:	mov    DWORD PTR [ebp-0x1c],eax
 1804862:	test   eax,eax
 1804864:	je     0x18048a7
 1804866:	mov    ecx,eax
 1804868:	lea    eax,[ecx+0x2]
 180486b:	mov    DWORD PTR [ebp-0x18],eax
 180486e:	mov    ax,WORD PTR [ecx]
 1804871:	add    ecx,0x2
 1804874:	cmp    ax,si
 1804877:	jne    0x180486e
 1804879:	sub    ecx,DWORD PTR [ebp-0x18]
 180487c:	sar    ecx,1
 180487e:	je     0x18048a7
 1804880:	push   0x20
 1804882:	push   DWORD PTR [ebp-0x1c]
 1804885:	call   DWORD PTR ds:0x18191c8
 180488b:	pop    ecx
 180488c:	pop    ecx
 180488d:	test   eax,eax
 180488f:	jne    0x18048a4
 1804891:	mov    eax,DWORD PTR [ebp-0x4]
 1804894:	push   0x3d
 1804896:	push   DWORD PTR [eax]
 1804898:	call   DWORD PTR ds:0x18191c8
 180489e:	pop    ecx
 180489f:	pop    ecx
 18048a0:	test   eax,eax
 18048a2:	je     0x18048bc
 18048a4:	mov    edx,DWORD PTR [ebp-0x4]
 18048a7:	push   DWORD PTR [edx]
 18048a9:	push   0xb7
 18048ae:	push   DWORD PTR ds:0x1818b08
 18048b4:	call   0x18080e0
 18048b9:	add    esp,0xc
 18048bc:	mov    eax,DWORD PTR [ebp-0x8]
 18048bf:	mov    ecx,DWORD PTR [ebp-0xc]
 18048c2:	inc    eax
 18048c3:	add    ecx,0x18
 18048c6:	mov    DWORD PTR [ebp-0x8],eax
 18048c9:	mov    DWORD PTR [ebp-0xc],ecx
 18048cc:	cmp    eax,DWORD PTR [ebx+0x8]
 18048cf:	jb     0x1804855
 18048d1:	mov    eax,DWORD PTR [ebp-0x10]
 18048d4:	mov    ecx,DWORD PTR [ebp-0x14]
 18048d7:	inc    eax
 18048d8:	add    ecx,0x18
 18048db:	mov    DWORD PTR [ebp-0x10],eax
 18048de:	mov    DWORD PTR [ebp-0x14],ecx
 18048e1:	cmp    eax,DWORD PTR [edi+0x2c]
 18048e4:	jb     0x18047f0
 18048ea:	lea    ecx,[edi+0xc]
 18048ed:	lea    edx,[ebp-0x1c]
 18048f0:	call   0x1803505
 18048f5:	test   eax,eax
 18048f7:	jne    0x1804969
 18048f9:	imul   ecx,DWORD PTR [ebp-0x1c],0x48
 18048fd:	lea    edx,[ebp-0x1c]
 1804900:	mov    eax,ds:0x1818b0c
 1804905:	add    eax,0x20
 1804908:	add    ecx,eax
 180490a:	call   0x180378e
 180490f:	test   eax,eax
 1804911:	jne    0x1804969
 1804913:	mov    ebx,DWORD PTR [ebp-0x1c]
 1804916:	mov    ecx,DWORD PTR [edi+0x8]
 1804919:	mov    DWORD PTR [ebp-0x18],ecx
 180491c:	cmp    DWORD PTR [ebx+0x38],esi
 180491f:	jbe    0x1804943
 1804921:	mov    eax,DWORD PTR [ebx+0x40]
 1804924:	imul   eax,esi
 1804927:	add    eax,DWORD PTR [ebx+0x3c]
 180492a:	push   DWORD PTR [eax+0x8]
 180492d:	push   ecx
 180492e:	call   DWORD PTR ds:0x18191d4
 1804934:	pop    ecx
 1804935:	pop    ecx
 1804936:	test   eax,eax
 1804938:	je     0x180494e
 180493a:	mov    ecx,DWORD PTR [ebp-0x18]
 180493d:	inc    esi
 180493e:	cmp    esi,DWORD PTR [ebx+0x38]
 1804941:	jb     0x1804921
 1804943:	mov    edx,edi
 1804945:	mov    ecx,ebx
 1804947:	call   0x18045f5
 180494c:	jmp    0x1804969
 180494e:	mov    eax,DWORD PTR [ebx+0x40]
 1804951:	push   eax
 1804952:	imul   eax,esi
 1804955:	push   edi
 1804956:	add    eax,DWORD PTR [ebx+0x3c]
 1804959:	push   eax
 180495a:	call   0x180a150
 180495f:	add    esp,0xc
 1804962:	xor    eax,eax
 1804964:	jmp    0x1804969
 1804966:	push   0x57
 1804968:	pop    eax
 1804969:	pop    esi
 180496a:	pop    ebx
 180496b:	pop    edi
 180496c:	mov    esp,ebp
 180496e:	pop    ebp
 180496f:	ret    0x4
 1804972:	int3   
 1804973:	int3   
 1804974:	int3   
 1804975:	int3   
 1804976:	int3   
 1804977:	mov    edi,edi
 1804979:	push   ebp
 180497a:	mov    ebp,esp
 180497c:	push   ecx
 180497d:	mov    eax,ds:0x180b004
 1804982:	xor    eax,ebp
 1804984:	mov    DWORD PTR [ebp-0x4],eax
 1804987:	push   esi
 1804988:	mov    esi,ecx
 180498a:	test   esi,esi
 180498c:	jne    0x1804993
 180498e:	xor    eax,eax
 1804990:	inc    eax
 1804991:	jmp    0x18049cc
 1804993:	cmp    DWORD PTR ds:0x1813fb8,0x0
 180499a:	je     0x18049ca
 180499c:	push   0x0
 180499e:	push   0x0
 18049a0:	push   0x1813db0
 18049a5:	push   0x1813ba0
 18049aa:	push   0x1813990
 18049af:	push   0x1813780
 18049b4:	push   DWORD PTR ds:0x1813774
 18049ba:	push   DWORD PTR ds:0x1813770
 18049c0:	call   DWORD PTR ds:0x1819214
 18049c6:	call   esi
 18049c8:	jmp    0x18049cc
 18049ca:	xor    eax,eax
 18049cc:	mov    ecx,DWORD PTR [ebp-0x4]
 18049cf:	xor    ecx,ebp
 18049d1:	pop    esi
 18049d2:	call   0x1809990
 18049d7:	mov    esp,ebp
 18049d9:	pop    ebp
 18049da:	ret    
 18049db:	int3   
 18049dc:	int3   
 18049dd:	int3   
 18049de:	int3   
 18049df:	int3   
 18049e0:	mov    edi,edi
 18049e2:	push   ebp
 18049e3:	mov    ebp,esp
 18049e5:	sub    esp,0x20
 18049e8:	mov    eax,ds:0x180b004
 18049ed:	xor    eax,ebp
 18049ef:	mov    DWORD PTR [ebp-0x4],eax
 18049f2:	push   ebx
 18049f3:	push   esi
 18049f4:	push   edi
 18049f5:	mov    edi,DWORD PTR [ebp+0x8]
 18049f8:	lea    edx,[ebp-0x8]
 18049fb:	lea    ecx,[edi+0xc]
 18049fe:	call   0x180378e
 1804a03:	mov    eax,DWORD PTR [ebp-0x8]
 1804a06:	imul   ecx,DWORD PTR [eax+0x30],0x14
 1804a0a:	mov    DWORD PTR ds:0x1813740,edi
 1804a10:	mov    ds:0x181374c,eax
 1804a15:	add    ecx,DWORD PTR ds:0x1818b10
 1804a1b:	mov    DWORD PTR [ebp-0x14],ecx
 1804a1e:	mov    ecx,DWORD PTR [edi+0x8]
 1804a21:	call   0x1808c4c
 1804a26:	mov    ebx,DWORD PTR [ebp+0x14]
 1804a29:	mov    ecx,edi
 1804a2b:	mov    edx,DWORD PTR [ebp+0x10]
 1804a2e:	push   ebx
 1804a2f:	call   0x1808cce
 1804a34:	test   eax,eax
 1804a36:	je     0x1804a5a
 1804a38:	mov    eax,ds:0x181376c
 1804a3d:	test   eax,eax
 1804a3f:	jne    0x1804a4b
 1804a41:	call   0x1808e80
 1804a46:	mov    eax,ds:0x181376c
 1804a4b:	cmp    eax,0x1
 1804a4e:	jne    0x1804a5a
 1804a50:	mov    eax,0x44c
 1804a55:	jmp    0x1804bf6
 1804a5a:	mov    esi,DWORD PTR [edi+0x3c]
 1804a5d:	test   esi,esi
 1804a5f:	je     0x1804a86
 1804a61:	push   DWORD PTR [ebp+0xc]
 1804a64:	mov    ecx,esi
 1804a66:	call   DWORD PTR ds:0x1819214
 1804a6c:	call   esi
 1804a6e:	test   eax,eax
 1804a70:	je     0x1804a86
 1804a72:	push   eax
 1804a73:	push   0x0
 1804a75:	call   0x1807e10
 1804a7a:	pop    ecx
 1804a7b:	pop    ecx
 1804a7c:	mov    eax,0x3aa9
 1804a81:	jmp    0x1804bf6
 1804a86:	cmp    ebx,0x1
 1804a89:	jne    0x1804aa1
 1804a8b:	mov    ecx,DWORD PTR [ebp+0x20]
 1804a8e:	push   ebx
 1804a8f:	push   DWORD PTR [edi+0x8]
 1804a92:	call   0x1805305
 1804a97:	mov    eax,0x55aa
 1804a9c:	jmp    0x1804bf6
 1804aa1:	mov    ecx,DWORD PTR [ebp+0x18]
 1804aa4:	xor    esi,esi
 1804aa6:	mov    eax,esi
 1804aa8:	not    ecx
 1804aaa:	mov    DWORD PTR [ebp-0xc],eax
 1804aad:	mov    ebx,esi
 1804aaf:	mov    DWORD PTR [ebp-0x10],ecx
 1804ab2:	test   DWORD PTR [ebx+0x180b160],ecx
 1804ab8:	jne    0x1804ae8
 1804aba:	mov    eax,DWORD PTR [ebp+0x10]
 1804abd:	push   DWORD PTR [ebx+0x180b150]
 1804ac3:	push   DWORD PTR [eax+0x4]
 1804ac6:	call   0x18078c0
 1804acb:	test   eax,eax
 1804acd:	je     0x1804ae2
 1804acf:	mov    ecx,DWORD PTR [ebx+0x180b164]
 1804ad5:	call   0x1804977
 1804ada:	test   eax,eax
 1804adc:	jne    0x1804c09
 1804ae2:	mov    ecx,DWORD PTR [ebp-0x10]
 1804ae5:	mov    eax,DWORD PTR [ebp-0xc]
 1804ae8:	inc    eax
 1804ae9:	add    ebx,0x18
 1804aec:	mov    DWORD PTR [ebp-0xc],eax
 1804aef:	cmp    ebx,0x48
 1804af2:	jb     0x1804ab2
 1804af4:	mov    eax,esi
 1804af6:	mov    DWORD PTR [ebp-0xc],eax
 1804af9:	cmp    DWORD PTR [edi+0x24],esi
 1804afc:	jbe    0x1804b49
 1804afe:	mov    ebx,esi
 1804b00:	mov    edx,DWORD PTR [edi+0x28]
 1804b03:	mov    ecx,DWORD PTR [ebx+edx*1+0x10]
 1804b07:	test   DWORD PTR [ebp-0x10],ecx
 1804b0a:	je     0x1804b14
 1804b0c:	test   ecx,0xffffffdf
 1804b12:	jne    0x1804b3d
 1804b14:	mov    eax,DWORD PTR [ebp+0x10]
 1804b17:	push   DWORD PTR [ebx+edx*1]
 1804b1a:	push   DWORD PTR [eax+0x4]
 1804b1d:	call   0x18078c0
 1804b22:	test   eax,eax
 1804b24:	je     0x1804b3a
 1804b26:	mov    ecx,DWORD PTR [edi+0x28]
 1804b29:	mov    ecx,DWORD PTR [ebx+ecx*1+0x14]
 1804b2d:	call   0x1804977
 1804b32:	test   eax,eax
 1804b34:	jne    0x1804c47
 1804b3a:	mov    eax,DWORD PTR [ebp-0xc]
 1804b3d:	inc    eax
 1804b3e:	add    ebx,0x18
 1804b41:	mov    DWORD PTR [ebp-0xc],eax
 1804b44:	cmp    eax,DWORD PTR [edi+0x24]
 1804b47:	jb     0x1804b00
 1804b49:	mov    ecx,DWORD PTR [ebp-0x8]
 1804b4c:	mov    eax,esi
 1804b4e:	mov    DWORD PTR [ebp-0xc],eax
 1804b51:	cmp    DWORD PTR [ecx+0x38],esi
 1804b54:	jbe    0x1804b9b
 1804b56:	mov    edx,DWORD PTR [ebp-0x10]
 1804b59:	mov    ebx,DWORD PTR [ecx+0x40]
 1804b5c:	imul   ebx,eax
 1804b5f:	add    ebx,DWORD PTR [ecx+0x3c]
 1804b62:	test   DWORD PTR [ebx+0x1c],edx
 1804b65:	jne    0x1804b92
 1804b67:	mov    ecx,DWORD PTR [ebx+0x44]
 1804b6a:	call   0x1804977
 1804b6f:	test   eax,eax
 1804b71:	je     0x1804b89
 1804b73:	mov    eax,DWORD PTR [ebp+0x10]
 1804b76:	push   DWORD PTR [ebx+0x8]
 1804b79:	push   DWORD PTR [eax+0x4]
 1804b7c:	call   0x18078c0
 1804b81:	test   eax,eax
 1804b83:	jne    0x1804c60
 1804b89:	mov    edx,DWORD PTR [ebp-0x10]
 1804b8c:	mov    ecx,DWORD PTR [ebp-0x8]
 1804b8f:	mov    eax,DWORD PTR [ebp-0xc]
 1804b92:	inc    eax
 1804b93:	mov    DWORD PTR [ebp-0xc],eax
 1804b96:	cmp    eax,DWORD PTR [ecx+0x38]
 1804b99:	jb     0x1804b59
 1804b9b:	mov    eax,esi
 1804b9d:	mov    DWORD PTR [ebp-0x8],eax
 1804ba0:	cmp    DWORD PTR [edi+0x2c],esi
 1804ba3:	jbe    0x1804bf1
 1804ba5:	mov    edx,DWORD PTR [ebp-0x10]
 1804ba8:	mov    ebx,esi
 1804baa:	mov    ecx,DWORD PTR [edi+0x30]
 1804bad:	test   DWORD PTR [ebx+ecx*1+0xc],edx
 1804bb1:	jne    0x1804be5
 1804bb3:	mov    eax,DWORD PTR [ebp+0x10]
 1804bb6:	push   DWORD PTR [ebx+ecx*1]
 1804bb9:	push   DWORD PTR [eax+0x4]
 1804bbc:	call   0x18078c0
 1804bc1:	test   eax,eax
 1804bc3:	je     0x1804bdf
 1804bc5:	mov    ecx,DWORD PTR [edi+0x30]
 1804bc8:	mov    eax,DWORD PTR [ebx+ecx*1]
 1804bcb:	mov    ecx,DWORD PTR [ebx+ecx*1+0x14]
 1804bcf:	mov    DWORD PTR [ebp-0x18],eax
 1804bd2:	call   0x1804977
 1804bd7:	test   eax,eax
 1804bd9:	jne    0x1804d1d
 1804bdf:	mov    edx,DWORD PTR [ebp-0x10]
 1804be2:	mov    eax,DWORD PTR [ebp-0x8]
 1804be5:	inc    eax
 1804be6:	add    ebx,0x18
 1804be9:	mov    DWORD PTR [ebp-0x8],eax
 1804bec:	cmp    eax,DWORD PTR [edi+0x2c]
 1804bef:	jb     0x1804baa
 1804bf1:	mov    eax,0x3a9c
 1804bf6:	mov    ecx,DWORD PTR [ebp-0x4]
 1804bf9:	pop    edi
 1804bfa:	pop    esi
 1804bfb:	xor    ecx,ebp
 1804bfd:	pop    ebx
 1804bfe:	call   0x1809990
 1804c03:	mov    esp,ebp
 1804c05:	pop    ebp
 1804c06:	ret    0x1c
 1804c09:	lea    edx,[ebp-0x8]
 1804c0c:	mov    ecx,0x1801374
 1804c11:	call   0x180378e
 1804c16:	mov    eax,DWORD PTR [ebp-0x8]
 1804c19:	imul   edx,DWORD PTR [ebp-0xc],0x18
 1804c1d:	imul   ecx,DWORD PTR [eax+0x30],0x14
 1804c21:	add    ecx,DWORD PTR ds:0x1818b10
 1804c27:	add    edx,0x180b150
 1804c2d:	push   ecx
 1804c2e:	push   esi
 1804c2f:	push   DWORD PTR [ebp+0x1c]
 1804c32:	push   DWORD PTR [ebp+0x18]
 1804c35:	push   DWORD PTR [ebp+0x14]
 1804c38:	push   0x2
 1804c3a:	push   DWORD PTR [ebp+0x10]
 1804c3d:	mov    ecx,DWORD PTR [ecx+0xc]
 1804c40:	call   0x1805a04
 1804c45:	jmp    0x1804bf6
 1804c47:	imul   edx,DWORD PTR [ebp-0xc],0x18
 1804c4b:	push   ecx
 1804c4c:	push   esi
 1804c4d:	push   DWORD PTR [ebp+0x1c]
 1804c50:	push   DWORD PTR [ebp+0x18]
 1804c53:	add    edx,DWORD PTR [edi+0x28]
 1804c56:	push   DWORD PTR [ebp+0x14]
 1804c59:	push   0x2
 1804c5b:	mov    ecx,DWORD PTR [ebp-0x14]
 1804c5e:	jmp    0x1804c3a
 1804c60:	mov    ecx,DWORD PTR [ebx+0x8]
 1804c63:	call   0x1808c4c
 1804c68:	mov    eax,DWORD PTR [ebp+0x14]
 1804c6b:	mov    ecx,DWORD PTR [ebp+0x20]
 1804c6e:	dec    eax
 1804c6f:	push   eax
 1804c70:	push   DWORD PTR [ebx+0x8]
 1804c73:	call   0x1805305
 1804c78:	mov    edi,DWORD PTR [edi+0x40]
 1804c7b:	mov    eax,DWORD PTR [ebx+0x40]
 1804c7e:	test   edi,edi
 1804c80:	je     0x1804ccc
 1804c82:	mov    edi,DWORD PTR [edi+0x4]
 1804c85:	test   edi,edi
 1804c87:	je     0x1804ccc
 1804c89:	push   DWORD PTR [ebp+0x20]
 1804c8c:	mov    eax,DWORD PTR [ebp+0x14]
 1804c8f:	mov    ecx,edi
 1804c91:	push   esi
 1804c92:	push   DWORD PTR [ebp+0x18]
 1804c95:	dec    eax
 1804c96:	push   eax
 1804c97:	mov    eax,DWORD PTR [ebp+0x10]
 1804c9a:	add    eax,0x4
 1804c9d:	push   eax
 1804c9e:	push   DWORD PTR [ebp+0xc]
 1804ca1:	push   ebx
 1804ca2:	call   DWORD PTR ds:0x1819214
 1804ca8:	call   edi
 1804caa:	cmp    DWORD PTR ds:0x180b25c,0xffffffff
 1804cb1:	mov    esi,eax
 1804cb3:	je     0x1804d16
 1804cb5:	cmp    esi,0x55aa
 1804cbb:	je     0x1804d16
 1804cbd:	cmp    esi,0x3a9c
 1804cc3:	je     0x1804d16
 1804cc5:	call   0x1808c83
 1804cca:	jmp    0x1804d16
 1804ccc:	test   eax,eax
 1804cce:	je     0x1804cf8
 1804cd0:	mov    edi,DWORD PTR [eax]
 1804cd2:	test   edi,edi
 1804cd4:	je     0x1804cf8
 1804cd6:	push   DWORD PTR [ebp+0x20]
 1804cd9:	mov    eax,DWORD PTR [ebp+0x14]
 1804cdc:	mov    ecx,edi
 1804cde:	push   esi
 1804cdf:	push   DWORD PTR [ebp+0x18]
 1804ce2:	dec    eax
 1804ce3:	push   eax
 1804ce4:	mov    eax,DWORD PTR [ebp+0x10]
 1804ce7:	add    eax,0x4
 1804cea:	push   eax
 1804ceb:	push   DWORD PTR [ebp+0xc]
 1804cee:	call   DWORD PTR ds:0x1819214
 1804cf4:	call   edi
 1804cf6:	jmp    0x1804caa
 1804cf8:	push   DWORD PTR [ebp+0x20]
 1804cfb:	mov    eax,DWORD PTR [ebp+0x14]
 1804cfe:	push   esi
 1804cff:	push   DWORD PTR [ebp+0x18]
 1804d02:	dec    eax
 1804d03:	push   eax
 1804d04:	mov    eax,DWORD PTR [ebp+0x10]
 1804d07:	add    eax,0x4
 1804d0a:	push   eax
 1804d0b:	push   DWORD PTR [ebp+0xc]
 1804d0e:	push   ebx
 1804d0f:	call   0x18049e0
 1804d14:	mov    esi,eax
 1804d16:	mov    eax,esi
 1804d18:	jmp    0x1804bf6
 1804d1d:	cmp    DWORD PTR [ebp+0x14],0x3
 1804d21:	jb     0x1804df2
 1804d27:	mov    ebx,DWORD PTR [ebp+0x10]
 1804d2a:	add    ebx,0x8
 1804d2d:	push   0x18011c8
 1804d32:	mov    DWORD PTR [ebp-0xc],ebx
 1804d35:	push   DWORD PTR [ebx]
 1804d37:	call   0x18078c0
 1804d3c:	test   eax,eax
 1804d3e:	jne    0x1804df2
 1804d44:	push   0x18011d4
 1804d49:	push   DWORD PTR [ebx]
 1804d4b:	call   0x18078c0
 1804d50:	test   eax,eax
 1804d52:	jne    0x1804df2
 1804d58:	imul   ebx,DWORD PTR [ebp-0x8],0x18
 1804d5c:	mov    eax,DWORD PTR [edi+0x30]
 1804d5f:	add    eax,ebx
 1804d61:	mov    DWORD PTR [ebp-0x8],ebx
 1804d64:	cmp    DWORD PTR [eax+0x8],esi
 1804d67:	jbe    0x1804bf1
 1804d6d:	mov    ecx,DWORD PTR [ebp-0x8]
 1804d70:	mov    ebx,esi
 1804d72:	mov    edx,DWORD PTR [eax+0x10]
 1804d75:	mov    eax,DWORD PTR [edx+ebx*1+0x10]
 1804d79:	test   DWORD PTR [ebp-0x10],eax
 1804d7c:	je     0x1804d85
 1804d7e:	test   eax,0xffffffdf
 1804d83:	jne    0x1804db9
 1804d85:	lea    eax,[ebp-0x1c]
 1804d88:	push   eax
 1804d89:	push   DWORD PTR [edx+ebx*1]
 1804d8c:	mov    eax,DWORD PTR [ebp+0x14]
 1804d8f:	add    eax,0xfffffffe
 1804d92:	push   eax
 1804d93:	push   DWORD PTR [ebp-0xc]
 1804d96:	call   0x1807520
 1804d9b:	mov    ecx,DWORD PTR [ebp-0x8]
 1804d9e:	test   eax,eax
 1804da0:	je     0x1804db9
 1804da2:	mov    eax,DWORD PTR [edi+0x30]
 1804da5:	mov    ecx,DWORD PTR [ecx+eax*1+0x10]
 1804da9:	mov    ecx,DWORD PTR [ecx+ebx*1+0x14]
 1804dad:	call   0x1804977
 1804db2:	test   eax,eax
 1804db4:	jne    0x1804dcc
 1804db6:	mov    ecx,DWORD PTR [ebp-0x8]
 1804db9:	mov    eax,DWORD PTR [edi+0x30]
 1804dbc:	inc    esi
 1804dbd:	add    eax,ecx
 1804dbf:	add    ebx,0x18
 1804dc2:	cmp    esi,DWORD PTR [eax+0x8]
 1804dc5:	jb     0x1804d72
 1804dc7:	jmp    0x1804bf1
 1804dcc:	mov    eax,DWORD PTR [ebp-0x1c]
 1804dcf:	push   ecx
 1804dd0:	push   DWORD PTR [ebp-0x18]
 1804dd3:	mov    ecx,DWORD PTR [ebp-0x8]
 1804dd6:	add    eax,0x2
 1804dd9:	push   DWORD PTR [ebp+0x1c]
 1804ddc:	imul   edx,esi,0x18
 1804ddf:	push   DWORD PTR [ebp+0x18]
 1804de2:	push   DWORD PTR [ebp+0x14]
 1804de5:	push   eax
 1804de6:	mov    eax,DWORD PTR [edi+0x30]
 1804de9:	add    edx,DWORD PTR [ecx+eax*1+0x10]
 1804ded:	jmp    0x1804c5b
 1804df2:	imul   esi,DWORD PTR [ebp-0x8],0x18
 1804df6:	xor    edx,edx
 1804df8:	mov    eax,DWORD PTR [edi+0x30]
 1804dfb:	inc    edx
 1804dfc:	mov    ecx,edi
 1804dfe:	push   DWORD PTR [esi+eax*1]
 1804e01:	mov    eax,DWORD PTR [ebp+0x14]
 1804e04:	dec    eax
 1804e05:	push   eax
 1804e06:	push   DWORD PTR [ebp+0x18]
 1804e09:	call   0x18086c6
 1804e0e:	jmp    0x1804bf6
 1804e13:	int3   
 1804e14:	int3   
 1804e15:	int3   
 1804e16:	int3   
 1804e17:	int3   
 1804e18:	int3   
 1804e19:	int3   
 1804e1a:	int3   
 1804e1b:	int3   
 1804e1c:	int3   
 1804e1d:	int3   
 1804e1e:	int3   
 1804e1f:	int3   
 1804e20:	mov    edi,edi
 1804e22:	push   ebp
 1804e23:	mov    ebp,esp
 1804e25:	sub    esp,0x4c
 1804e28:	mov    eax,ds:0x180b004
 1804e2d:	xor    eax,ebp
 1804e2f:	mov    DWORD PTR [ebp-0x4],eax
 1804e32:	push   esi
 1804e33:	push   edi
 1804e34:	push   0x48
 1804e36:	lea    eax,[ebp-0x4c]
 1804e39:	push   0x0
 1804e3b:	push   eax
 1804e3c:	call   0x180a15c
 1804e41:	mov    DWORD PTR [ebp-0x44],0x1801358
 1804e48:	lea    edi,[ebp-0x40]
 1804e4b:	mov    esi,0x1801374
 1804e50:	lea    eax,[ebp-0x4c]
 1804e53:	add    esp,0xc
 1804e56:	movs   DWORD PTR es:[edi],DWORD PTR ds:[esi]
 1804e57:	push   eax
 1804e58:	movs   DWORD PTR es:[edi],DWORD PTR ds:[esi]
 1804e59:	movs   DWORD PTR es:[edi],DWORD PTR ds:[esi]
 1804e5a:	movs   DWORD PTR es:[edi],DWORD PTR ds:[esi]
 1804e5b:	and    DWORD PTR [ebp-0x30],0x0
 1804e5f:	mov    DWORD PTR [ebp-0x4c],0x1
 1804e66:	mov    DWORD PTR [ebp-0x28],0xd
 1804e6d:	mov    DWORD PTR [ebp-0x24],0x180b010
 1804e74:	mov    DWORD PTR [ebp-0x20],0x4
 1804e7b:	mov    DWORD PTR [ebp-0x1c],0x180f260
 1804e82:	call   0x1804700
 1804e87:	mov    ecx,DWORD PTR [ebp-0x4]
 1804e8a:	pop    edi
 1804e8b:	xor    ecx,ebp
 1804e8d:	pop    esi
 1804e8e:	call   0x1809990
 1804e93:	mov    esp,ebp
 1804e95:	pop    ebp
 1804e96:	ret    0x8
 1804e99:	int3   
 1804e9a:	int3   
 1804e9b:	int3   
 1804e9c:	int3   
 1804e9d:	int3   
 1804e9e:	int3   
 1804e9f:	int3   
 1804ea0:	mov    edi,edi
 1804ea2:	push   ebp
 1804ea3:	mov    ebp,esp
 1804ea5:	sub    esp,0x24
 1804ea8:	mov    eax,ds:0x180b004
 1804ead:	xor    eax,ebp
 1804eaf:	mov    DWORD PTR [ebp-0x4],eax
 1804eb2:	push   ebx
 1804eb3:	push   esi
 1804eb4:	push   edi
 1804eb5:	push   0x8
 1804eb7:	pop    ecx
 1804eb8:	xor    eax,eax
 1804eba:	lea    edi,[ebp-0x24]
 1804ebd:	rep stos DWORD PTR es:[edi],eax
 1804ebf:	mov    ecx,0x1801364
 1804ec4:	lea    edi,[ebp-0x1c]
 1804ec7:	mov    esi,ecx
 1804ec9:	lea    eax,[ebp-0x24]
 1804ecc:	xor    ebx,ebx
 1804ece:	push   eax
 1804ecf:	inc    ebx
 1804ed0:	movs   DWORD PTR es:[edi],DWORD PTR ds:[esi]
 1804ed1:	push   ecx
 1804ed2:	movs   DWORD PTR es:[edi],DWORD PTR ds:[esi]
 1804ed3:	movs   DWORD PTR es:[edi],DWORD PTR ds:[esi]
 1804ed4:	movs   DWORD PTR es:[edi],DWORD PTR ds:[esi]
 1804ed5:	mov    DWORD PTR [ebp-0x24],ebx
 1804ed8:	call   0x18037c0
 1804edd:	mov    esi,0x1801374
 1804ee2:	lea    edi,[ebp-0x1c]
 1804ee5:	lea    eax,[ebp-0x24]
 1804ee8:	push   eax
 1804ee9:	push   0x1801364
 1804eee:	movs   DWORD PTR es:[edi],DWORD PTR ds:[esi]
 1804eef:	movs   DWORD PTR es:[edi],DWORD PTR ds:[esi]
 1804ef0:	movs   DWORD PTR es:[edi],DWORD PTR ds:[esi]
 1804ef1:	movs   DWORD PTR es:[edi],DWORD PTR ds:[esi]
 1804ef2:	mov    DWORD PTR [ebp-0x24],ebx
 1804ef5:	mov    DWORD PTR [ebp-0xc],0x1804e20
 1804efc:	call   0x18037c0
 1804f01:	mov    ecx,DWORD PTR [ebp-0x4]
 1804f04:	xor    eax,eax
 1804f06:	pop    edi
 1804f07:	pop    esi
 1804f08:	xor    ecx,ebp
 1804f0a:	pop    ebx
 1804f0b:	call   0x1809990
 1804f10:	mov    esp,ebp
 1804f12:	pop    ebp
 1804f13:	ret    0x8
 1804f16:	int3   
 1804f17:	int3   
 1804f18:	int3   
 1804f19:	int3   
 1804f1a:	int3   
 1804f1b:	mov    edi,edi
 1804f1d:	push   ebp
 1804f1e:	mov    ebp,esp
 1804f20:	push   ecx
 1804f21:	push   ecx
 1804f22:	mov    DWORD PTR [ebp-0x8],ecx
 1804f25:	mov    ecx,0x1801374
 1804f2a:	call   0x180378e
 1804f2f:	test   eax,eax
 1804f31:	jne    0x1804f90
 1804f33:	lea    edx,[ebp-0x4]
 1804f36:	mov    ecx,0x1801364
 1804f3b:	call   0x180378e
 1804f40:	test   eax,eax
 1804f42:	jne    0x1804f90
 1804f44:	mov    ecx,DWORD PTR [ebp-0x4]
 1804f47:	push   ebx
 1804f48:	push   esi
 1804f49:	xor    esi,esi
 1804f4b:	mov    ebx,DWORD PTR [ecx+0x38]
 1804f4e:	push   edi
 1804f4f:	test   ebx,ebx
 1804f51:	je     0x1804f88
 1804f53:	mov    eax,DWORD PTR [ecx+0x40]
 1804f56:	mov    ecx,DWORD PTR [ecx+0x3c]
 1804f59:	mov    DWORD PTR [ebp-0x4],eax
 1804f5c:	lea    edi,[ecx+0xc]
 1804f5f:	xor    edx,edx
 1804f61:	mov    eax,0x1801374
 1804f66:	mov    eax,DWORD PTR [eax+edx*4]
 1804f69:	cmp    eax,DWORD PTR [edi+edx*4]
 1804f6c:	jne    0x1804f7d
 1804f6e:	inc    edx
 1804f6f:	cmp    edx,0x4
 1804f72:	jne    0x1804f61
 1804f74:	mov    eax,DWORD PTR [ebp-0x8]
 1804f77:	mov    DWORD PTR [eax],ecx
 1804f79:	xor    eax,eax
 1804f7b:	jmp    0x1804f8d
 1804f7d:	add    ecx,DWORD PTR [ebp-0x4]
 1804f80:	inc    esi
 1804f81:	add    edi,DWORD PTR [ebp-0x4]
 1804f84:	cmp    esi,ebx
 1804f86:	jb     0x1804f5f
 1804f88:	mov    eax,0x490
 1804f8d:	pop    edi
 1804f8e:	pop    esi
 1804f8f:	pop    ebx
 1804f90:	mov    esp,ebp
 1804f92:	pop    ebp
 1804f93:	ret    
 1804f94:	int3   
 1804f95:	int3   
 1804f96:	int3   
 1804f97:	int3   
 1804f98:	int3   
 1804f99:	mov    edi,edi
 1804f9b:	push   ebp
 1804f9c:	mov    ebp,esp
 1804f9e:	sub    esp,0xc
 1804fa1:	mov    DWORD PTR [ebp-0xc],edx
 1804fa4:	add    ecx,0xc
 1804fa7:	lea    edx,[ebp-0x4]
 1804faa:	call   0x180378e
 1804faf:	test   eax,eax
 1804fb1:	jne    0x1805026
 1804fb3:	mov    eax,DWORD PTR [ebp-0x4]
 1804fb6:	lea    edx,[ebp-0x4]
 1804fb9:	add    eax,0x20
 1804fbc:	mov    ecx,eax
 1804fbe:	mov    DWORD PTR [ebp-0x8],eax
 1804fc1:	call   0x180378e
 1804fc6:	test   eax,eax
 1804fc8:	jne    0x1805026
 1804fca:	mov    ecx,DWORD PTR [ebp-0x4]
 1804fcd:	lea    edx,[ebp-0x4]
 1804fd0:	lea    ecx,[ecx+0x20]
 1804fd3:	call   0x180378e
 1804fd8:	test   eax,eax
 1804fda:	jne    0x1805026
 1804fdc:	mov    ecx,DWORD PTR [ebp-0x4]
 1804fdf:	push   ebx
 1804fe0:	push   esi
 1804fe1:	xor    esi,esi
 1804fe3:	mov    ebx,DWORD PTR [ecx+0x38]
 1804fe6:	push   edi
 1804fe7:	test   ebx,ebx
 1804fe9:	je     0x180501e
 1804feb:	mov    eax,DWORD PTR [ecx+0x40]
 1804fee:	mov    ecx,DWORD PTR [ecx+0x3c]
 1804ff1:	mov    DWORD PTR [ebp-0x4],eax
 1804ff4:	lea    edi,[ecx+0xc]
 1804ff7:	xor    edx,edx
 1804ff9:	mov    eax,DWORD PTR [ebp-0x8]
 1804ffc:	mov    eax,DWORD PTR [eax+edx*4]
 1804fff:	cmp    eax,DWORD PTR [edi+edx*4]
 1805002:	jne    0x1805013
 1805004:	inc    edx
 1805005:	cmp    edx,0x4
 1805008:	jne    0x1804ff9
 180500a:	mov    eax,DWORD PTR [ebp-0xc]
 180500d:	mov    DWORD PTR [eax],ecx
 180500f:	xor    eax,eax
 1805011:	jmp    0x1805023
 1805013:	add    ecx,DWORD PTR [ebp-0x4]
 1805016:	inc    esi
 1805017:	add    edi,DWORD PTR [ebp-0x4]
 180501a:	cmp    esi,ebx
 180501c:	jb     0x1804ff7
 180501e:	mov    eax,0x490
 1805023:	pop    edi
 1805024:	pop    esi
 1805025:	pop    ebx
 1805026:	mov    esp,ebp
 1805028:	pop    ebp
 1805029:	ret    
 180502a:	int3   
 180502b:	int3   
 180502c:	int3   
 180502d:	int3   
 180502e:	int3   
 180502f:	mov    edi,edi
 1805031:	push   ebp
 1805032:	mov    ebp,esp
 1805034:	push   ecx
 1805035:	push   esi
 1805036:	mov    esi,edx
 1805038:	lea    edx,[ebp-0x4]
 180503b:	push   edi
 180503c:	mov    edi,ecx
 180503e:	call   0x1804f99
 1805043:	test   eax,eax
 1805045:	jne    0x1805055
 1805047:	mov    ecx,DWORD PTR [ebp-0x4]
 180504a:	mov    edx,esi
 180504c:	call   0x180502f
 1805051:	test   eax,eax
 1805053:	jne    0x1805070
 1805055:	cmp    DWORD PTR [esi],0x0
 1805058:	je     0x1805066
 180505a:	mov    edx,0x1801240
 180505f:	mov    ecx,esi
 1805061:	call   0x1805403
 1805066:	mov    edx,DWORD PTR [edi+0x8]
 1805069:	mov    ecx,esi
 180506b:	call   0x1805403
 1805070:	pop    edi
 1805071:	pop    esi
 1805072:	mov    esp,ebp
 1805074:	pop    ebp
 1805075:	ret    
 1805076:	int3   
 1805077:	int3   
 1805078:	int3   
 1805079:	int3   
 180507a:	int3   
 180507b:	mov    edi,edi
 180507d:	push   ebp
 180507e:	mov    ebp,esp
 1805080:	mov    eax,DWORD PTR [ebp+0xc]
 1805083:	push   esi
 1805084:	xor    esi,esi
 1805086:	test   eax,eax
 1805088:	je     0x1805091
 180508a:	cmp    eax,0x7fffffff
 180508f:	jbe    0x1805096
 1805091:	mov    esi,0x80070057
 1805096:	test   esi,esi
 1805098:	js     0x18050d1
 180509a:	push   ebx
 180509b:	mov    ebx,DWORD PTR [ebp+0x8]
 180509e:	xor    esi,esi
 18050a0:	push   edi
 18050a1:	lea    edi,[eax-0x1]
 18050a4:	lea    eax,[ebp+0x14]
 18050a7:	push   eax
 18050a8:	push   DWORD PTR [ebp+0x10]
 18050ab:	push   edi
 18050ac:	push   ebx
 18050ad:	call   DWORD PTR ds:0x18191f4
 18050b3:	add    esp,0x10
 18050b6:	test   eax,eax
 18050b8:	js     0x18050c2
 18050ba:	cmp    eax,edi
 18050bc:	ja     0x18050c2
 18050be:	jne    0x18050cd
 18050c0:	jmp    0x18050c7
 18050c2:	mov    esi,0x8007007a
 18050c7:	xor    eax,eax
 18050c9:	mov    WORD PTR [ebx+edi*2],ax
 18050cd:	pop    edi
 18050ce:	pop    ebx
 18050cf:	jmp    0x18050dd
 18050d1:	test   eax,eax
 18050d3:	je     0x18050dd
 18050d5:	mov    ecx,DWORD PTR [ebp+0x8]
 18050d8:	xor    eax,eax
 18050da:	mov    WORD PTR [ecx],ax
 18050dd:	mov    eax,esi
 18050df:	pop    esi
 18050e0:	pop    ebp
 18050e1:	ret    
 18050e2:	int3   
 18050e3:	int3   
 18050e4:	int3   
 18050e5:	int3   
 18050e6:	int3   
 18050e7:	mov    edi,edi
 18050e9:	push   ebp
 18050ea:	mov    ebp,esp
 18050ec:	sub    esp,0x20
 18050ef:	push   ebx
 18050f0:	push   esi
 18050f1:	push   edi
 18050f2:	mov    edi,ecx
 18050f4:	mov    DWORD PTR [ebp-0x10],edx
 18050f7:	xor    ebx,ebx
 18050f9:	mov    DWORD PTR [ebp-0x20],edi
 18050fc:	mov    esi,DWORD PTR [edi+0x8]
 18050ff:	test   esi,esi
 1805101:	jne    0x180510a
 1805103:	xor    eax,eax
 1805105:	jmp    0x18052f9
 180510a:	mov    DWORD PTR [ebp-0x4],edi
 180510d:	push   0x23
 180510f:	pop    ecx
 1805110:	push   0x20
 1805112:	pop    edx
 1805113:	push   0x22
 1805115:	pop    edi
 1805116:	jmp    0x180512d
 1805118:	movzx  eax,WORD PTR [esi]
 180511b:	cmp    ax,cx
 180511e:	je     0x1805137
 1805120:	cmp    ax,dx
 1805123:	je     0x180512a
 1805125:	cmp    eax,0x9
 1805128:	jne    0x1805132
 180512a:	add    esi,0x2
 180512d:	cmp    WORD PTR [esi],bx
 1805130:	jne    0x1805118
 1805132:	cmp    WORD PTR [esi],cx
 1805135:	jne    0x180513c
 1805137:	xor    eax,eax
 1805139:	mov    WORD PTR [esi],ax
 180513c:	movzx  eax,WORD PTR [esi]
 180513f:	test   ax,ax
 1805142:	je     0x18052c5
 1805148:	cmp    ax,di
 180514b:	lea    edi,[esi+0x2]
 180514e:	jne    0x1805175
 1805150:	movzx  eax,WORD PTR [edi]
 1805153:	test   ax,ax
 1805156:	je     0x1805194
 1805158:	push   0x22
 180515a:	pop    ecx
 180515b:	cmp    ax,cx
 180515e:	je     0x180516b
 1805160:	add    edi,0x2
 1805163:	movzx  eax,WORD PTR [edi]
 1805166:	test   ax,ax
 1805169:	jne    0x180515b
 180516b:	cmp    WORD PTR [edi],bx
 180516e:	je     0x1805194
 1805170:	add    edi,0x2
 1805173:	jmp    0x1805194
 1805175:	push   0x3d
 1805177:	pop    ecx
 1805178:	cmp    ax,cx
 180517b:	je     0x1805194
 180517d:	jmp    0x180518c
 180517f:	cmp    ax,dx
 1805182:	je     0x1805194
 1805184:	cmp    ax,cx
 1805187:	je     0x1805194
 1805189:	add    edi,0x2
 180518c:	movzx  eax,WORD PTR [edi]
 180518f:	test   ax,ax
 1805192:	jne    0x180517f
 1805194:	push   0xc
 1805196:	push   ebx
 1805197:	call   DWORD PTR ds:0x1819098
 180519d:	push   eax
 180519e:	call   DWORD PTR ds:0x1819094
 18051a4:	mov    ecx,eax
 18051a6:	mov    DWORD PTR [ebp-0x14],ecx
 18051a9:	test   ecx,ecx
 18051ab:	je     0x18052c0
 18051b1:	mov    edx,DWORD PTR [ebp-0x4]
 18051b4:	mov    DWORD PTR [ebp-0x4],ecx
 18051b7:	mov    eax,DWORD PTR [edx]
 18051b9:	mov    DWORD PTR [ecx],eax
 18051bb:	mov    DWORD PTR [ecx+0x4],edx
 18051be:	mov    DWORD PTR [edx],ecx
 18051c0:	mov    eax,DWORD PTR [ecx]
 18051c2:	mov    DWORD PTR [eax+0x4],ecx
 18051c5:	movzx  eax,WORD PTR [edi]
 18051c8:	mov    DWORD PTR [ebp-0x1c],eax
 18051cb:	xor    eax,eax
 18051cd:	mov    WORD PTR [edi],ax
 18051d0:	cmp    DWORD PTR [ebp-0x10],eax
 18051d3:	je     0x18051e4
 18051d5:	lea    edx,[ebp-0x8]
 18051d8:	mov    ecx,esi
 18051da:	call   0x1802235
 18051df:	mov    ecx,DWORD PTR [ebp-0x8]
 18051e2:	jmp    0x18051e9
 18051e4:	mov    ecx,ebx
 18051e6:	mov    DWORD PTR [ebp-0x8],ecx
 18051e9:	test   ecx,ecx
 18051eb:	je     0x1805206
 18051ed:	mov    esi,ecx
 18051ef:	lea    edx,[ecx+0x2]
 18051f2:	mov    ax,WORD PTR [ecx]
 18051f5:	add    ecx,0x2
 18051f8:	cmp    ax,bx
 18051fb:	jne    0x18051f2
 18051fd:	sub    ecx,edx
 18051ff:	sar    ecx,1
 1805201:	lea    eax,[ecx+0x1]
 1805204:	jmp    0x180520d
 1805206:	mov    eax,edi
 1805208:	sub    eax,esi
 180520a:	sar    eax,1
 180520c:	inc    eax
 180520d:	mov    DWORD PTR [ebp-0xc],eax
 1805210:	add    eax,eax
 1805212:	push   eax
 1805213:	push   ebx
 1805214:	call   DWORD PTR ds:0x1819098
 180521a:	push   eax
 180521b:	call   DWORD PTR ds:0x1819094
 1805221:	mov    ecx,eax
 1805223:	mov    eax,DWORD PTR [ebp-0x14]
 1805226:	mov    DWORD PTR [ebp-0x18],ecx
 1805229:	mov    DWORD PTR [eax+0x8],ecx
 180522c:	test   ecx,ecx
 180522e:	je     0x18052c0
 1805234:	mov    edx,0x1801498
 1805239:	mov    ecx,esi
 180523b:	mov    ax,WORD PTR [ecx]
 180523e:	cmp    ax,WORD PTR [edx]
 1805241:	jne    0x1805261
 1805243:	test   ax,ax
 1805246:	je     0x180525d
 1805248:	mov    ax,WORD PTR [ecx+0x2]
 180524c:	cmp    ax,WORD PTR [edx+0x2]
 1805250:	jne    0x1805261
 1805252:	add    ecx,0x4
 1805255:	add    edx,0x4
 1805258:	test   ax,ax
 180525b:	jne    0x180523b
 180525d:	mov    eax,ebx
 180525f:	jmp    0x1805266
 1805261:	sbb    eax,eax
 1805263:	or     eax,0x1
 1805266:	test   eax,eax
 1805268:	je     0x18052a0
 180526a:	mov    ecx,0x18014a0
 180526f:	mov    eax,esi
 1805271:	mov    dx,WORD PTR [eax]
 1805274:	cmp    dx,WORD PTR [ecx]
 1805277:	jne    0x1805297
 1805279:	test   dx,dx
 180527c:	je     0x1805293
 180527e:	mov    dx,WORD PTR [eax+0x2]
 1805282:	cmp    dx,WORD PTR [ecx+0x2]
 1805286:	jne    0x1805297
 1805288:	add    eax,0x4
 180528b:	add    ecx,0x4
 180528e:	test   dx,dx
 1805291:	jne    0x1805271
 1805293:	mov    eax,ebx
 1805295:	jmp    0x180529c
 1805297:	sbb    eax,eax
 1805299:	or     eax,0x1
 180529c:	test   eax,eax
 180529e:	jne    0x18052a3
 18052a0:	add    esi,0x2
 18052a3:	push   esi
 18052a4:	push   DWORD PTR [ebp-0xc]
 18052a7:	push   DWORD PTR [ebp-0x18]
 18052aa:	call   DWORD PTR ds:0x18191b4
 18052b0:	mov    eax,DWORD PTR [ebp-0x1c]
 18052b3:	add    esp,0xc
 18052b6:	mov    WORD PTR [edi],ax
 18052b9:	mov    esi,edi
 18052bb:	jmp    0x180510d
 18052c0:	push   0x8
 18052c2:	pop    ebx
 18052c3:	jmp    0x18052f7
 18052c5:	mov    edi,DWORD PTR [ebp-0x20]
 18052c8:	push   DWORD PTR [edi+0x8]
 18052cb:	push   ebx
 18052cc:	call   DWORD PTR ds:0x1819098
 18052d2:	push   eax
 18052d3:	call   DWORD PTR ds:0x181909c
 18052d9:	mov    ecx,DWORD PTR [edi+0x4]
 18052dc:	mov    eax,DWORD PTR [edi]
 18052de:	push   edi
 18052df:	push   ebx
 18052e0:	mov    DWORD PTR [ecx],eax
 18052e2:	mov    edx,DWORD PTR [edi]
 18052e4:	mov    ecx,DWORD PTR [edi+0x4]
 18052e7:	mov    DWORD PTR [edx+0x4],ecx
 18052ea:	call   DWORD PTR ds:0x1819098
 18052f0:	push   eax
 18052f1:	call   DWORD PTR ds:0x181909c
 18052f7:	mov    eax,ebx
 18052f9:	pop    edi
 18052fa:	pop    esi
 18052fb:	pop    ebx
 18052fc:	mov    esp,ebp
 18052fe:	pop    ebp
 18052ff:	ret    
 1805300:	int3   
 1805301:	int3   
 1805302:	int3   
 1805303:	int3   
 1805304:	int3   
 1805305:	mov    edi,edi
 1805307:	push   ebp
 1805308:	mov    ebp,esp
 180530a:	push   ecx
 180530b:	push   ecx
 180530c:	mov    eax,ecx
 180530e:	lea    ecx,[ebp-0x4]
 1805311:	mov    edx,eax
 1805313:	mov    DWORD PTR [ebp-0x8],eax
 1805316:	call   0x1805f04
 180531b:	test   eax,eax
 180531d:	jne    0x18053f8
 1805323:	mov    eax,DWORD PTR [ebp+0xc]
 1805326:	push   ebx
 1805327:	push   esi
 1805328:	push   edi
 1805329:	mov    edi,DWORD PTR [ebp-0x4]
 180532c:	xor    ebx,ebx
 180532e:	mov    esi,DWORD PTR [edi+0x4]
 1805331:	cmp    eax,0x1
 1805334:	jbe    0x1805390
 1805336:	dec    eax
 1805337:	mov    DWORD PTR [ebp-0x4],eax
 180533a:	mov    edx,DWORD PTR [esi+0x4]
 180533d:	cmp    edx,edi
 180533f:	je     0x1805387
 1805341:	mov    eax,DWORD PTR [edx+0x8]
 1805344:	mov    ecx,0x18014a8
 1805349:	mov    bx,WORD PTR [eax]
 180534c:	cmp    bx,WORD PTR [ecx]
 180534f:	jne    0x1805371
 1805351:	test   bx,bx
 1805354:	je     0x180536b
 1805356:	mov    bx,WORD PTR [eax+0x2]
 180535a:	cmp    bx,WORD PTR [ecx+0x2]
 180535e:	jne    0x1805371
 1805360:	add    eax,0x4
 1805363:	add    ecx,0x4
 1805366:	test   bx,bx
 1805369:	jne    0x1805349
 180536b:	xor    ebx,ebx
 180536d:	mov    eax,ebx
 180536f:	jmp    0x1805378
 1805371:	sbb    eax,eax
 1805373:	or     eax,0x1
 1805376:	xor    ebx,ebx
 1805378:	test   eax,eax
 180537a:	jne    0x1805387
 180537c:	mov    esi,edx
 180537e:	mov    eax,DWORD PTR [esi+0x4]
 1805381:	cmp    eax,edi
 1805383:	je     0x1805387
 1805385:	mov    esi,eax
 1805387:	sub    DWORD PTR [ebp-0x4],0x1
 180538b:	mov    esi,DWORD PTR [esi+0x4]
 180538e:	jne    0x180533a
 1805390:	cmp    DWORD PTR [esi+0x8],0x0
 1805394:	je     0x18053a7
 1805396:	push   DWORD PTR [esi+0x8]
 1805399:	push   ebx
 180539a:	call   DWORD PTR ds:0x1819098
 18053a0:	push   eax
 18053a1:	call   DWORD PTR ds:0x181909c
 18053a7:	mov    ecx,DWORD PTR [ebp+0x8]
 18053aa:	lea    edx,[ecx+0x2]
 18053ad:	mov    ax,WORD PTR [ecx]
 18053b0:	add    ecx,0x2
 18053b3:	cmp    ax,bx
 18053b6:	jne    0x18053ad
 18053b8:	sub    ecx,edx
 18053ba:	sar    ecx,1
 18053bc:	lea    ebx,[ecx+0x1]
 18053bf:	lea    eax,[ebx+ebx*1]
 18053c2:	push   eax
 18053c3:	push   0x0
 18053c5:	call   DWORD PTR ds:0x1819098
 18053cb:	push   eax
 18053cc:	call   DWORD PTR ds:0x1819094
 18053d2:	mov    DWORD PTR [esi+0x8],eax
 18053d5:	test   eax,eax
 18053d7:	jne    0x18053de
 18053d9:	push   0x8
 18053db:	pop    eax
 18053dc:	jmp    0x18053f5
 18053de:	push   DWORD PTR [ebp+0x8]
 18053e1:	mov    edx,ebx
 18053e3:	mov    ecx,eax
 18053e5:	call   0x180235f
 18053ea:	mov    edx,DWORD PTR [ebp-0x8]
 18053ed:	push   ecx
 18053ee:	mov    ecx,edi
 18053f0:	call   0x1805c49
 18053f5:	pop    edi
 18053f6:	pop    esi
 18053f7:	pop    ebx
 18053f8:	mov    esp,ebp
 18053fa:	pop    ebp
 18053fb:	ret    0x8
 18053fe:	int3   
 18053ff:	int3   
 1805400:	int3   
 1805401:	int3   
 1805402:	int3   
 1805403:	mov    edi,edi
 1805405:	push   ebp
 1805406:	mov    ebp,esp
 1805408:	push   ecx
 1805409:	push   ebx
 180540a:	mov    eax,ecx
 180540c:	mov    ebx,edx
 180540e:	push   esi
 180540f:	push   edi
 1805410:	xor    edi,edi
 1805412:	mov    DWORD PTR [ebp-0x4],eax
 1805415:	cmp    DWORD PTR [eax],edi
 1805417:	jne    0x180544b
 1805419:	mov    esi,ebx
 180541b:	lea    ecx,[esi+0x2]
 180541e:	mov    ax,WORD PTR [esi]
 1805421:	add    esi,0x2
 1805424:	cmp    ax,di
 1805427:	jne    0x180541e
 1805429:	sub    esi,ecx
 180542b:	sar    esi,1
 180542d:	inc    esi
 180542e:	lea    eax,[esi+esi*1]
 1805431:	push   eax
 1805432:	push   edi
 1805433:	call   DWORD PTR ds:0x1819098
 1805439:	push   eax
 180543a:	call   DWORD PTR ds:0x1819094
 1805440:	test   eax,eax
 1805442:	je     0x1805493
 1805444:	xor    ecx,ecx
 1805446:	mov    WORD PTR [eax],cx
 1805449:	jmp    0x180548f
 180544b:	mov    ecx,DWORD PTR [eax]
 180544d:	lea    edx,[ecx+0x2]
 1805450:	mov    ax,WORD PTR [ecx]
 1805453:	add    ecx,0x2
 1805456:	cmp    ax,di
 1805459:	jne    0x1805450
 180545b:	sub    ecx,edx
 180545d:	mov    edx,ebx
 180545f:	sar    ecx,1
 1805461:	lea    esi,[edx+0x2]
 1805464:	mov    ax,WORD PTR [edx]
 1805467:	add    edx,0x2
 180546a:	cmp    ax,di
 180546d:	jne    0x1805464
 180546f:	sub    edx,esi
 1805471:	lea    esi,[ecx+0x1]
 1805474:	sar    edx,1
 1805476:	add    esi,edx
 1805478:	lea    eax,[esi+esi*1]
 180547b:	push   eax
 180547c:	mov    eax,DWORD PTR [ebp-0x4]
 180547f:	push   DWORD PTR [eax]
 1805481:	push   edi
 1805482:	call   DWORD PTR ds:0x1819098
 1805488:	push   eax
 1805489:	call   DWORD PTR ds:0x18190a0
 180548f:	test   eax,eax
 1805491:	jne    0x1805498
 1805493:	push   0x8
 1805495:	pop    eax
 1805496:	jmp    0x18054a9
 1805498:	mov    ecx,DWORD PTR [ebp-0x4]
 180549b:	mov    edx,esi
 180549d:	push   ebx
 180549e:	mov    DWORD PTR [ecx],eax
 18054a0:	mov    ecx,eax
 18054a2:	call   0x180319e
 18054a7:	xor    eax,eax
 18054a9:	pop    edi
 18054aa:	pop    esi
 18054ab:	pop    ebx
 18054ac:	mov    esp,ebp
 18054ae:	pop    ebp
 18054af:	ret    
 18054b0:	int3   
 18054b1:	int3   
 18054b2:	int3   
 18054b3:	int3   
 18054b4:	int3   
 18054b5:	mov    edi,edi
 18054b7:	push   ebp
 18054b8:	mov    ebp,esp
 18054ba:	push   ecx
 18054bb:	push   ebx
 18054bc:	push   esi
 18054bd:	push   edi
 18054be:	mov    edi,DWORD PTR [ebp+0x8]
 18054c1:	mov    eax,ecx
 18054c3:	xor    esi,esi
 18054c5:	mov    DWORD PTR [ebp-0x4],eax
 18054c8:	mov    ebx,edx
 18054ca:	mov    DWORD PTR [edi],esi
 18054cc:	test   eax,eax
 18054ce:	je     0x180551e
 18054d0:	test   esi,esi
 18054d2:	je     0x18054e0
 18054d4:	mov    edx,0x1801240
 18054d9:	mov    ecx,edi
 18054db:	call   0x1805403
 18054e0:	push   0x20
 18054e2:	push   DWORD PTR [ebx+esi*4]
 18054e5:	call   DWORD PTR ds:0x18191c8
 18054eb:	pop    ecx
 18054ec:	pop    ecx
 18054ed:	mov    ecx,edi
 18054ef:	test   eax,eax
 18054f1:	je     0x1805510
 18054f3:	mov    edx,0x18014ac
 18054f8:	call   0x1805403
 18054fd:	mov    edx,DWORD PTR [ebx+esi*4]
 1805500:	mov    ecx,edi
 1805502:	call   0x1805403
 1805507:	mov    edx,0x18014ac
 180550c:	mov    ecx,edi
 180550e:	jmp    0x1805513
 1805510:	mov    edx,DWORD PTR [ebx+esi*4]
 1805513:	call   0x1805403
 1805518:	inc    esi
 1805519:	cmp    esi,DWORD PTR [ebp-0x4]
 180551c:	jb     0x18054d0
 180551e:	pop    edi
 180551f:	pop    esi
 1805520:	pop    ebx
 1805521:	mov    esp,ebp
 1805523:	pop    ebp
 1805524:	ret    0x4
 1805527:	int3   
 1805528:	int3   
 1805529:	int3   
 180552a:	int3   
 180552b:	int3   
 180552c:	mov    edi,edi
 180552e:	push   esi
 180552f:	push   ecx
 1805530:	mov    esi,0x180b260
 1805535:	mov    edx,0x2000
 180553a:	mov    ecx,esi
 180553c:	call   0x180235f
 1805541:	push   esi
 1805542:	call   DWORD PTR ds:0x1819184
 1805548:	pop    ecx
 1805549:	pop    esi
 180554a:	ret    
 180554b:	int3   
 180554c:	int3   
 180554d:	int3   
 180554e:	int3   
 180554f:	int3   
 1805550:	mov    edi,edi
 1805552:	push   ebp
 1805553:	mov    ebp,esp
 1805555:	and    esp,0xfffffff8
 1805558:	sub    esp,0x14
 180555b:	mov    eax,ds:0x180b004
 1805560:	xor    eax,esp
 1805562:	mov    DWORD PTR [esp+0x10],eax
 1805566:	and    DWORD PTR [esp+0x8],0x0
 180556b:	xor    eax,eax
 180556d:	push   ebx
 180556e:	mov    DWORD PTR [esp+0x8],eax
 1805572:	mov    ebx,ecx
 1805574:	mov    eax,DWORD PTR [ebp+0xc]
 1805577:	not    eax
 1805579:	mov    DWORD PTR [esp+0x4],edx
 180557d:	push   esi
 180557e:	push   edi
 180557f:	test   DWORD PTR [ebx+0x1c],eax
 1805582:	je     0x180558e
 1805584:	mov    eax,0x3a9c
 1805589:	jmp    0x180577d
 180558e:	mov    eax,DWORD PTR [ebx+0x40]
 1805591:	test   eax,eax
 1805593:	jne    0x1805599
 1805595:	xor    esi,esi
 1805597:	jmp    0x180559b
 1805599:	mov    esi,DWORD PTR [eax]
 180559b:	mov    edi,DWORD PTR [ebp+0x8]
 180559e:	mov    ecx,DWORD PTR [ebx+0x8]
 18055a1:	mov    eax,DWORD PTR [edi]
 18055a3:	mov    dx,WORD PTR [eax]
 18055a6:	cmp    dx,WORD PTR [ecx]
 18055a9:	jne    0x18055c9
 18055ab:	test   dx,dx
 18055ae:	je     0x18055c5
 18055b0:	mov    dx,WORD PTR [eax+0x2]
 18055b4:	cmp    dx,WORD PTR [ecx+0x2]
 18055b8:	jne    0x18055c9
 18055ba:	add    eax,0x4
 18055bd:	add    ecx,0x4
 18055c0:	test   dx,dx
 18055c3:	jne    0x18055a3
 18055c5:	xor    eax,eax
 18055c7:	jmp    0x18055ce
 18055c9:	sbb    eax,eax
 18055cb:	or     eax,0x1
 18055ce:	test   eax,eax
 18055d0:	je     0x18055dd
 18055d2:	mov    eax,DWORD PTR [edi]
 18055d4:	mov    DWORD PTR [esp+0x10],eax
 18055d8:	mov    eax,DWORD PTR [ebx+0x8]
 18055db:	mov    DWORD PTR [edi],eax
 18055dd:	mov    ecx,DWORD PTR [esp+0xc]
 18055e1:	lea    eax,[esp+0x14]
 18055e5:	push   eax
 18055e6:	mov    edx,edi
 18055e8:	call   0x18054b5
 18055ed:	cmp    DWORD PTR [esp+0x14],0x0
 18055f2:	mov    eax,0x180f2c8
 18055f7:	je     0x1805628
 18055f9:	push   DWORD PTR [esp+0x14]
 18055fd:	mov    edx,0x2000
 1805602:	mov    ecx,eax
 1805604:	call   0x180235f
 1805609:	push   DWORD PTR [esp+0x14]
 180560d:	xor    eax,eax
 180560f:	push   eax
 1805610:	mov    ds:0x1813200,ax
 1805616:	call   DWORD PTR ds:0x1819098
 180561c:	push   eax
 180561d:	call   DWORD PTR ds:0x181909c
 1805623:	mov    eax,0x180f2c8
 1805628:	push   eax
 1805629:	push   0x0
 180562b:	push   DWORD PTR [ebp+0xc]
 180562e:	push   DWORD PTR [esp+0x18]
 1805632:	push   edi
 1805633:	push   DWORD PTR ds:0x181375c
 1805639:	test   esi,esi
 180563b:	je     0x1805649
 180563d:	mov    ecx,esi
 180563f:	call   DWORD PTR ds:0x1819214
 1805645:	call   esi
 1805647:	jmp    0x180564f
 1805649:	push   ebx
 180564a:	call   0x18049e0
 180564f:	mov    esi,eax
 1805651:	mov    eax,DWORD PTR [esp+0x10]
 1805655:	test   eax,eax
 1805657:	je     0x180565b
 1805659:	mov    DWORD PTR [edi],eax
 180565b:	test   esi,esi
 180565d:	je     0x180577b
 1805663:	cmp    esi,0x55aa
 1805669:	jne    0x1805751
 180566f:	test   BYTE PTR [ebp+0xc],0x2
 1805673:	jne    0x1805743
 1805679:	mov    edx,DWORD PTR [esp+0xc]
 180567d:	lea    ecx,[esp+0x10]
 1805681:	push   0x4
 1805683:	pop    esi
 1805684:	push   ecx
 1805685:	inc    edx
 1805686:	mov    DWORD PTR [esp+0x14],esi
 180568a:	mov    ecx,esi
 180568c:	call   0x18074dc
 1805691:	test   eax,eax
 1805693:	jns    0x180569d
 1805695:	movzx  eax,ax
 1805698:	jmp    0x180577d
 180569d:	push   DWORD PTR [esp+0x10]
 18056a1:	push   0x0
 18056a3:	call   DWORD PTR ds:0x1819098
 18056a9:	push   eax
 18056aa:	call   DWORD PTR ds:0x1819094
 18056b0:	mov    esi,eax
 18056b2:	test   esi,esi
 18056b4:	jne    0x18056be
 18056b6:	push   0x8
 18056b8:	pop    eax
 18056b9:	jmp    0x180577d
 18056be:	mov    eax,DWORD PTR [esp+0xc]
 18056c2:	shl    eax,0x2
 18056c5:	push   eax
 18056c6:	push   edi
 18056c7:	push   esi
 18056c8:	call   0x180a150
 18056cd:	add    esp,0xc
 18056d0:	push   0x4
 18056d2:	push   0x0
 18056d4:	call   DWORD PTR ds:0x1819098
 18056da:	push   eax
 18056db:	call   DWORD PTR ds:0x1819094
 18056e1:	mov    edi,DWORD PTR [esp+0xc]
 18056e5:	mov    DWORD PTR [esi+edi*4],eax
 18056e8:	test   eax,eax
 18056ea:	jne    0x18056f1
 18056ec:	push   0x8
 18056ee:	pop    edi
 18056ef:	jmp    0x180572f
 18056f1:	push   0x18011d4
 18056f6:	push   0x2
 18056f8:	pop    edx
 18056f9:	mov    ecx,eax
 18056fb:	call   0x180235f
 1805700:	push   DWORD PTR [ebp+0x10]
 1805703:	lea    edx,[edi+0x1]
 1805706:	mov    ecx,ebx
 1805708:	push   DWORD PTR [ebp+0xc]
 180570b:	mov    DWORD PTR ds:0x1818b04,edx
 1805711:	push   esi
 1805712:	call   0x1805550
 1805717:	mov    edi,eax
 1805719:	mov    eax,DWORD PTR [esp+0xc]
 180571d:	push   DWORD PTR [esi+eax*4]
 1805720:	push   0x0
 1805722:	call   DWORD PTR ds:0x1819098
 1805728:	push   eax
 1805729:	call   DWORD PTR ds:0x181909c
 180572f:	push   esi
 1805730:	push   0x0
 1805732:	call   DWORD PTR ds:0x1819098
 1805738:	push   eax
 1805739:	call   DWORD PTR ds:0x181909c
 180573f:	mov    eax,edi
 1805741:	jmp    0x180577d
 1805743:	mov    ecx,0x180f2c8
 1805748:	call   0x180552c
 180574d:	xor    esi,esi
 180574f:	jmp    0x180577b
 1805751:	cmp    esi,0x55ab
 1805757:	jne    0x180577b
 1805759:	push   DWORD PTR ds:0x181375c
 180575f:	push   0x3eb
 1805764:	push   DWORD PTR ds:0x1818b08
 180576a:	call   0x18080e0
 180576f:	mov    eax,DWORD PTR [ebp+0x10]
 1805772:	add    esp,0xc
 1805775:	mov    DWORD PTR [eax],0x1
 180577b:	mov    eax,esi
 180577d:	mov    ecx,DWORD PTR [esp+0x1c]
 1805781:	pop    edi
 1805782:	pop    esi
 1805783:	pop    ebx
 1805784:	xor    ecx,esp
 1805786:	call   0x1809990
 180578b:	mov    esp,ebp
 180578d:	pop    ebp
 180578e:	ret    0xc
 1805791:	int3   
 1805792:	int3   
 1805793:	int3   
 1805794:	int3   
 1805795:	int3   
 1805796:	mov    edi,edi
 1805798:	push   ebp
 1805799:	mov    ebp,esp
 180579b:	and    esp,0xfffffff8
 180579e:	sub    esp,0x1c
 18057a1:	mov    eax,ds:0x180b004
 18057a6:	xor    eax,esp
 18057a8:	mov    DWORD PTR [esp+0x18],eax
 18057ac:	and    DWORD PTR [esp+0x10],0x0
 18057b1:	xor    eax,eax
 18057b3:	push   ebx
 18057b4:	push   esi
 18057b5:	push   edi
 18057b6:	mov    edi,edx
 18057b8:	mov    DWORD PTR [esp+0x14],ecx
 18057bc:	lea    edx,[esp+0x20]
 18057c0:	mov    DWORD PTR [esp+0x18],eax
 18057c4:	lea    ecx,[esp+0x10]
 18057c8:	call   0x1804f1b
 18057cd:	test   eax,eax
 18057cf:	jne    0x18059eb
 18057d5:	mov    edx,DWORD PTR [edi]
 18057d7:	lea    eax,[esp+0x10]
 18057db:	mov    ecx,DWORD PTR [esp+0x20]
 18057df:	push   eax
 18057e0:	call   0x18040ed
 18057e5:	test   eax,eax
 18057e7:	je     0x18057f3
 18057e9:	mov    eax,0x3a9c
 18057ee:	jmp    0x18059eb
 18057f3:	mov    ebx,DWORD PTR [ebp+0x8]
 18057f6:	mov    eax,ebx
 18057f8:	mov    esi,DWORD PTR [esp+0x10]
 18057fc:	not    eax
 18057fe:	test   DWORD PTR [esi+0x1c],eax
 1805801:	jne    0x18057e9
 1805803:	mov    eax,DWORD PTR [esi+0x40]
 1805806:	test   eax,eax
 1805808:	jne    0x1805810
 180580a:	and    DWORD PTR [esp+0x10],eax
 180580e:	jmp    0x1805816
 1805810:	mov    eax,DWORD PTR [eax]
 1805812:	mov    DWORD PTR [esp+0x10],eax
 1805816:	mov    ecx,DWORD PTR [esi+0x8]
 1805819:	mov    eax,DWORD PTR [edi]
 180581b:	mov    dx,WORD PTR [eax]
 180581e:	cmp    dx,WORD PTR [ecx]
 1805821:	jne    0x1805841
 1805823:	test   dx,dx
 1805826:	je     0x180583d
 1805828:	mov    dx,WORD PTR [eax+0x2]
 180582c:	cmp    dx,WORD PTR [ecx+0x2]
 1805830:	jne    0x1805841
 1805832:	add    eax,0x4
 1805835:	add    ecx,0x4
 1805838:	test   dx,dx
 180583b:	jne    0x180581b
 180583d:	xor    eax,eax
 180583f:	jmp    0x1805846
 1805841:	sbb    eax,eax
 1805843:	or     eax,0x1
 1805846:	test   eax,eax
 1805848:	je     0x1805855
 180584a:	mov    eax,DWORD PTR [edi]
 180584c:	mov    DWORD PTR [esp+0x18],eax
 1805850:	mov    eax,DWORD PTR [esi+0x8]
 1805853:	mov    DWORD PTR [edi],eax
 1805855:	mov    ecx,DWORD PTR [esp+0x14]
 1805859:	lea    eax,[esp+0x1c]
 180585d:	push   eax
 180585e:	mov    edx,edi
 1805860:	call   0x18054b5
 1805865:	cmp    DWORD PTR [esp+0x1c],0x0
 180586a:	mov    eax,0x180f2c8
 180586f:	je     0x1805899
 1805871:	push   DWORD PTR [esp+0x1c]
 1805875:	mov    edx,0x2000
 180587a:	mov    ecx,eax
 180587c:	call   0x180235f
 1805881:	push   DWORD PTR [esp+0x1c]
 1805885:	push   0x0
 1805887:	call   DWORD PTR ds:0x1819098
 180588d:	push   eax
 180588e:	call   DWORD PTR ds:0x181909c
 1805894:	mov    eax,0x180f2c8
 1805899:	mov    ecx,DWORD PTR [esp+0x10]
 180589d:	push   eax
 180589e:	mov    eax,DWORD PTR [esp+0x18]
 18058a2:	push   0x0
 18058a4:	push   ebx
 18058a5:	dec    eax
 18058a6:	push   eax
 18058a7:	lea    eax,[edi+0x4]
 18058aa:	push   eax
 18058ab:	push   DWORD PTR ds:0x181375c
 18058b1:	test   ecx,ecx
 18058b3:	je     0x18058c1
 18058b5:	call   DWORD PTR ds:0x1819214
 18058bb:	call   DWORD PTR [esp+0x28]
 18058bf:	jmp    0x18058c7
 18058c1:	push   esi
 18058c2:	call   0x18049e0
 18058c7:	mov    esi,eax
 18058c9:	mov    eax,DWORD PTR [esp+0x18]
 18058cd:	test   eax,eax
 18058cf:	je     0x18058d3
 18058d1:	mov    DWORD PTR [edi],eax
 18058d3:	test   esi,esi
 18058d5:	je     0x18059e9
 18058db:	cmp    esi,0x55aa
 18058e1:	jne    0x18059bf
 18058e7:	test   bl,0x2
 18058ea:	jne    0x18059b1
 18058f0:	mov    ebx,DWORD PTR [esp+0x14]
 18058f4:	lea    ecx,[esp+0x18]
 18058f8:	push   0x4
 18058fa:	pop    esi
 18058fb:	push   ecx
 18058fc:	lea    edx,[ebx+0x1]
 18058ff:	mov    DWORD PTR [esp+0x1c],esi
 1805903:	mov    ecx,esi
 1805905:	call   0x18074dc
 180590a:	test   eax,eax
 180590c:	jns    0x1805916
 180590e:	movzx  eax,ax
 1805911:	jmp    0x18059eb
 1805916:	push   DWORD PTR [esp+0x18]
 180591a:	push   0x0
 180591c:	call   DWORD PTR ds:0x1819098
 1805922:	push   eax
 1805923:	call   DWORD PTR ds:0x1819094
 1805929:	mov    esi,eax
 180592b:	test   esi,esi
 180592d:	jne    0x1805937
 180592f:	push   0x8
 1805931:	pop    eax
 1805932:	jmp    0x18059eb
 1805937:	shl    ebx,0x2
 180593a:	push   ebx
 180593b:	push   edi
 180593c:	push   esi
 180593d:	call   0x180a150
 1805942:	add    esp,0xc
 1805945:	push   0x4
 1805947:	push   0x0
 1805949:	call   DWORD PTR ds:0x1819098
 180594f:	push   eax
 1805950:	call   DWORD PTR ds:0x1819094
 1805956:	mov    DWORD PTR [ebx+esi*1],eax
 1805959:	test   eax,eax
 180595b:	jne    0x1805962
 180595d:	push   0x8
 180595f:	pop    edi
 1805960:	jmp    0x180599d
 1805962:	push   0x18011d4
 1805967:	push   0x2
 1805969:	pop    edx
 180596a:	mov    ecx,eax
 180596c:	call   0x180235f
 1805971:	push   DWORD PTR [ebp+0xc]
 1805974:	mov    ecx,DWORD PTR [esp+0x18]
 1805978:	mov    edx,esi
 180597a:	push   DWORD PTR [ebp+0x8]
 180597d:	inc    ecx
 180597e:	mov    DWORD PTR ds:0x1818b04,ecx
 1805984:	call   0x1805796
 1805989:	push   DWORD PTR [ebx+esi*1]
 180598c:	mov    edi,eax
 180598e:	push   0x0
 1805990:	call   DWORD PTR ds:0x1819098
 1805996:	push   eax
 1805997:	call   DWORD PTR ds:0x181909c
 180599d:	push   esi
 180599e:	push   0x0
 18059a0:	call   DWORD PTR ds:0x1819098
 18059a6:	push   eax
 18059a7:	call   DWORD PTR ds:0x181909c
 18059ad:	mov    eax,edi
 18059af:	jmp    0x18059eb
 18059b1:	mov    ecx,0x180f2c8
 18059b6:	call   0x180552c
 18059bb:	xor    esi,esi
 18059bd:	jmp    0x18059e9
 18059bf:	cmp    esi,0x55ab
 18059c5:	jne    0x18059e9
 18059c7:	push   DWORD PTR ds:0x181375c
 18059cd:	push   0x3eb
 18059d2:	push   DWORD PTR ds:0x1818b08
 18059d8:	call   0x18080e0
 18059dd:	mov    eax,DWORD PTR [ebp+0xc]
 18059e0:	add    esp,0xc
 18059e3:	mov    DWORD PTR [eax],0x1
 18059e9:	mov    eax,esi
 18059eb:	mov    ecx,DWORD PTR [esp+0x24]
 18059ef:	pop    edi
 18059f0:	pop    esi
 18059f1:	pop    ebx
 18059f2:	xor    ecx,esp
 18059f4:	call   0x1809990
 18059f9:	mov    esp,ebp
 18059fb:	pop    ebp
 18059fc:	ret    0x8
 18059ff:	int3   
 1805a00:	int3   
 1805a01:	int3   
 1805a02:	int3   
 1805a03:	int3   
 1805a04:	mov    edi,edi
 1805a06:	push   ebp
 1805a07:	mov    ebp,esp
 1805a09:	sub    esp,0xc
 1805a0c:	mov    eax,ds:0x180b004
 1805a11:	xor    eax,ebp
 1805a13:	mov    DWORD PTR [ebp-0x4],eax
 1805a16:	mov    eax,DWORD PTR [ebp+0x10]
 1805a19:	and    DWORD PTR [ebp-0x8],0x0
 1805a1d:	push   ebx
 1805a1e:	mov    ebx,DWORD PTR [ebp+0xc]
 1805a21:	sub    eax,ebx
 1805a23:	mov    DWORD PTR [ebp-0xc],ecx
 1805a26:	push   esi
 1805a27:	mov    esi,DWORD PTR [ebp+0x8]
 1805a2a:	push   edi
 1805a2b:	mov    edi,edx
 1805a2d:	cmp    eax,0x1
 1805a30:	jne    0x1805a9b
 1805a32:	push   0x18011c8
 1805a37:	push   DWORD PTR [esi+ebx*4]
 1805a3a:	call   0x18078c0
 1805a3f:	test   eax,eax
 1805a41:	jne    0x1805a54
 1805a43:	push   0x18011d4
 1805a48:	push   DWORD PTR [esi+ebx*4]
 1805a4b:	call   0x18078c0
 1805a50:	test   eax,eax
 1805a52:	je     0x1805a9b
 1805a54:	mov    esi,0x3aa5
 1805a59:	xor    ebx,ebx
 1805a5b:	mov    eax,esi
 1805a5d:	sub    eax,ebx
 1805a5f:	je     0x1805bdc
 1805a65:	sub    eax,0x3aa5
 1805a6a:	je     0x1805b21
 1805a70:	dec    eax
 1805a71:	sub    eax,0x1
 1805a74:	je     0x1805b07
 1805a7a:	dec    eax
 1805a7b:	sub    eax,0x1
 1805a7e:	je     0x1805bdc
 1805a84:	sub    eax,0x3
 1805a87:	je     0x1805b21
 1805a8d:	push   esi
 1805a8e:	push   ebx
 1805a8f:	call   0x1807e10
 1805a94:	pop    ecx
 1805a95:	pop    ecx
 1805a96:	jmp    0x1805bdc
 1805a9b:	cmp    DWORD PTR [ebp+0x10],0x0
 1805a9f:	jbe    0x1805ac0
 1805aa1:	push   0x1801358
 1805aa6:	push   DWORD PTR [esi]
 1805aa8:	call   DWORD PTR ds:0x181912c
 1805aae:	test   eax,eax
 1805ab0:	je     0x1805ac0
 1805ab2:	cmp    DWORD PTR ds:0x180b25c,0xffffffff
 1805ab9:	je     0x1805ac0
 1805abb:	call   0x1808c83
 1805ac0:	push   0x1813758
 1805ac5:	push   DWORD PTR [ebp+0x18]
 1805ac8:	push   DWORD PTR [ebp+0x14]
 1805acb:	push   DWORD PTR [ebp+0x10]
 1805ace:	push   ebx
 1805acf:	push   esi
 1805ad0:	mov    esi,DWORD PTR [edi+0x4]
 1805ad3:	mov    ecx,esi
 1805ad5:	push   DWORD PTR ds:0x181375c
 1805adb:	call   DWORD PTR ds:0x1819214
 1805ae1:	call   esi
 1805ae3:	mov    esi,eax
 1805ae5:	mov    eax,0x3a99
 1805aea:	cmp    esi,eax
 1805aec:	jne    0x1805a59
 1805af2:	push   eax
 1805af3:	xor    ebx,ebx
 1805af5:	push   ebx
 1805af6:	call   0x1807e10
 1805afb:	pop    ecx
 1805afc:	pop    ecx
 1805afd:	mov    esi,0x3aa5
 1805b02:	jmp    0x1805a5b
 1805b07:	cmp    DWORD PTR ds:0x180f2c0,0x0
 1805b0e:	jne    0x1805b1a
 1805b10:	push   0x2
 1805b12:	push   ebx
 1805b13:	call   0x18080e0
 1805b18:	pop    ecx
 1805b19:	pop    ecx
 1805b1a:	mov    esi,ebx
 1805b1c:	jmp    0x1805bdc
 1805b21:	cmp    DWORD PTR [ebp+0x1c],0x0
 1805b25:	je     0x1805bc0
 1805b2b:	mov    ecx,DWORD PTR [ebp+0x1c]
 1805b2e:	lea    edx,[ecx+0x2]
 1805b31:	mov    ax,WORD PTR [ecx]
 1805b34:	add    ecx,0x2
 1805b37:	cmp    ax,bx
 1805b3a:	jne    0x1805b31
 1805b3c:	sub    ecx,edx
 1805b3e:	mov    edx,DWORD PTR [edi]
 1805b40:	sar    ecx,1
 1805b42:	lea    ebx,[edx+0x2]
 1805b45:	mov    ax,WORD PTR [edx]
 1805b48:	add    edx,0x2
 1805b4b:	cmp    ax,WORD PTR [ebp-0x8]
 1805b4f:	jne    0x1805b45
 1805b51:	sub    edx,ebx
 1805b53:	lea    eax,[ecx+0x2]
 1805b56:	sar    edx,1
 1805b58:	add    eax,edx
 1805b5a:	mov    DWORD PTR [ebp-0x8],eax
 1805b5d:	add    eax,eax
 1805b5f:	push   eax
 1805b60:	xor    eax,eax
 1805b62:	push   eax
 1805b63:	call   DWORD PTR ds:0x1819098
 1805b69:	push   eax
 1805b6a:	call   DWORD PTR ds:0x1819094
 1805b70:	mov    ebx,eax
 1805b72:	test   ebx,ebx
 1805b74:	je     0x1805bc0
 1805b76:	push   DWORD PTR [ebp+0x1c]
 1805b79:	mov    edx,DWORD PTR [ebp-0x8]
 1805b7c:	mov    ecx,ebx
 1805b7e:	call   0x180235f
 1805b83:	mov    edx,DWORD PTR [ebp-0x8]
 1805b86:	mov    ecx,ebx
 1805b88:	push   0x1801240
 1805b8d:	call   0x180319e
 1805b92:	push   DWORD PTR [edi]
 1805b94:	mov    edx,DWORD PTR [ebp-0x8]
 1805b97:	mov    ecx,ebx
 1805b99:	call   0x180319e
 1805b9e:	push   ebx
 1805b9f:	push   DWORD PTR [edi+0xc]
 1805ba2:	push   DWORD PTR [ebp-0xc]
 1805ba5:	call   0x18080e0
 1805baa:	add    esp,0xc
 1805bad:	xor    eax,eax
 1805baf:	push   ebx
 1805bb0:	push   eax
 1805bb1:	call   DWORD PTR ds:0x1819098
 1805bb7:	push   eax
 1805bb8:	call   DWORD PTR ds:0x181909c
 1805bbe:	jmp    0x1805bd0
 1805bc0:	push   DWORD PTR [edi]
 1805bc2:	push   DWORD PTR [edi+0xc]
 1805bc5:	push   DWORD PTR [ebp-0xc]
 1805bc8:	call   0x18080e0
 1805bcd:	add    esp,0xc
 1805bd0:	lea    eax,[esi-0x3aa5]
 1805bd6:	neg    eax
 1805bd8:	sbb    eax,eax
 1805bda:	and    esi,eax
 1805bdc:	cmp    DWORD PTR ds:0x180f2c0,0x0
 1805be3:	jne    0x1805bf0
 1805be5:	push   0x1801244
 1805bea:	call   0x18080b0
 1805bef:	pop    ecx
 1805bf0:	mov    ecx,DWORD PTR [ebp-0x4]
 1805bf3:	mov    eax,esi
 1805bf5:	pop    edi
 1805bf6:	pop    esi
 1805bf7:	xor    ecx,ebp
 1805bf9:	pop    ebx
 1805bfa:	call   0x1809990
 1805bff:	mov    esp,ebp
 1805c01:	pop    ebp
 1805c02:	ret    0x1c
 1805c05:	int3   
 1805c06:	int3   
 1805c07:	int3   
 1805c08:	int3   
 1805c09:	int3   
 1805c0a:	mov    edi,edi
 1805c0c:	push   ebx
 1805c0d:	push   esi
 1805c0e:	mov    ebx,ecx
 1805c10:	xor    esi,esi
 1805c12:	push   edi
 1805c13:	mov    edi,edx
 1805c15:	test   ebx,ebx
 1805c17:	je     0x1805c30
 1805c19:	push   DWORD PTR [edi+esi*4]
 1805c1c:	push   0x0
 1805c1e:	call   DWORD PTR ds:0x1819098
 1805c24:	push   eax
 1805c25:	call   DWORD PTR ds:0x181909c
 1805c2b:	inc    esi
 1805c2c:	cmp    esi,ebx
 1805c2e:	jb     0x1805c19
 1805c30:	push   edi
 1805c31:	push   0x0
 1805c33:	call   DWORD PTR ds:0x1819098
 1805c39:	push   eax
 1805c3a:	call   DWORD PTR ds:0x181909c
 1805c40:	pop    edi
 1805c41:	pop    esi
 1805c42:	pop    ebx
 1805c43:	ret    
 1805c44:	int3   
 1805c45:	int3   
 1805c46:	int3   
 1805c47:	int3   
 1805c48:	int3   
 1805c49:	mov    edi,edi
 1805c4b:	push   ebp
 1805c4c:	mov    ebp,esp
 1805c4e:	push   ecx
 1805c4f:	push   ebx
 1805c50:	mov    eax,ecx
 1805c52:	mov    ebx,edx
 1805c54:	push   esi
 1805c55:	xor    ecx,ecx
 1805c57:	mov    DWORD PTR [ebp-0x4],eax
 1805c5a:	push   edi
 1805c5b:	mov    WORD PTR [ebx],cx
 1805c5e:	mov    esi,ebx
 1805c60:	mov    edi,DWORD PTR [eax]
 1805c62:	cmp    edi,eax
 1805c64:	je     0x1805ca8
 1805c66:	cmp    esi,ebx
 1805c68:	je     0x1805c73
 1805c6a:	push   0x20
 1805c6c:	pop    eax
 1805c6d:	mov    WORD PTR [esi],ax
 1805c70:	add    esi,0x2
 1805c73:	push   DWORD PTR [edi+0x8]
 1805c76:	mov    eax,esi
 1805c78:	mov    edx,0x2000
 1805c7d:	sub    eax,ebx
 1805c7f:	mov    ecx,esi
 1805c81:	sar    eax,1
 1805c83:	sub    edx,eax
 1805c85:	call   0x180235f
 1805c8a:	mov    ecx,esi
 1805c8c:	lea    edx,[ecx+0x2]
 1805c8f:	mov    ax,WORD PTR [ecx]
 1805c92:	add    ecx,0x2
 1805c95:	test   ax,ax
 1805c98:	jne    0x1805c8f
 1805c9a:	mov    edi,DWORD PTR [edi]
 1805c9c:	sub    ecx,edx
 1805c9e:	sar    ecx,1
 1805ca0:	lea    esi,[esi+ecx*2]
 1805ca3:	cmp    edi,DWORD PTR [ebp-0x4]
 1805ca6:	jne    0x1805c66
 1805ca8:	pop    edi
 1805ca9:	pop    esi
 1805caa:	xor    eax,eax
 1805cac:	pop    ebx
 1805cad:	mov    esp,ebp
 1805caf:	pop    ebp
 1805cb0:	ret    0x4
 1805cb3:	int3   
 1805cb4:	int3   
 1805cb5:	int3   
 1805cb6:	int3   
 1805cb7:	int3   
 1805cb8:	mov    edi,edi
 1805cba:	push   ebp
 1805cbb:	mov    ebp,esp
 1805cbd:	push   ebx
 1805cbe:	push   esi
 1805cbf:	push   edi
 1805cc0:	mov    edi,ecx
 1805cc2:	mov    ebx,edx
 1805cc4:	mov    edx,DWORD PTR [ebp+0x8]
 1805cc7:	mov    esi,ebx
 1805cc9:	shl    esi,0x2
 1805ccc:	mov    ecx,DWORD PTR [edi]
 1805cce:	add    ecx,esi
 1805cd0:	call   0x1805403
 1805cd5:	mov    edx,DWORD PTR [edi]
 1805cd7:	cmp    DWORD PTR [edx+esi*1],0x0
 1805cdb:	jne    0x1805cec
 1805cdd:	mov    ecx,ebx
 1805cdf:	call   0x1805c0a
 1805ce4:	and    DWORD PTR [edi],0x0
 1805ce7:	push   0x8
 1805ce9:	pop    eax
 1805cea:	jmp    0x1805cee
 1805cec:	xor    eax,eax
 1805cee:	pop    edi
 1805cef:	pop    esi
 1805cf0:	pop    ebx
 1805cf1:	pop    ebp
 1805cf2:	ret    0x4
 1805cf5:	int3   
 1805cf6:	int3   
 1805cf7:	int3   
 1805cf8:	int3   
 1805cf9:	int3   
 1805cfa:	mov    edi,edi
 1805cfc:	push   ebp
 1805cfd:	mov    ebp,esp
 1805cff:	sub    esp,0x1c
 1805d02:	push   ebx
 1805d03:	xor    eax,eax
 1805d05:	mov    DWORD PTR [ebp-0x1c],edx
 1805d08:	push   esi
 1805d09:	push   edi
 1805d0a:	mov    edi,ecx
 1805d0c:	mov    DWORD PTR [ebp-0x18],eax
 1805d0f:	mov    DWORD PTR [ebp-0x8],eax
 1805d12:	mov    ecx,eax
 1805d14:	mov    DWORD PTR [ebp-0x10],ecx
 1805d17:	mov    esi,eax
 1805d19:	mov    ebx,eax
 1805d1b:	test   edi,edi
 1805d1d:	je     0x1805d2f
 1805d1f:	mov    eax,DWORD PTR [edi]
 1805d21:	cmp    eax,edi
 1805d23:	je     0x1805d2f
 1805d25:	mov    eax,DWORD PTR [eax]
 1805d27:	inc    ecx
 1805d28:	cmp    eax,edi
 1805d2a:	jne    0x1805d25
 1805d2c:	mov    DWORD PTR [ebp-0x10],ecx
 1805d2f:	mov    eax,DWORD PTR [ebp+0x10]
 1805d32:	mov    DWORD PTR [eax],ecx
 1805d34:	mov    eax,DWORD PTR [edx]
 1805d36:	cmp    eax,edx
 1805d38:	je     0x1805d44
 1805d3a:	mov    eax,DWORD PTR [eax]
 1805d3c:	inc    ecx
 1805d3d:	cmp    eax,edx
 1805d3f:	jne    0x1805d3a
 1805d41:	mov    DWORD PTR [ebp-0x10],ecx
 1805d44:	test   ecx,ecx
 1805d46:	je     0x1805ee9
 1805d4c:	mov    eax,ecx
 1805d4e:	shl    eax,0x2
 1805d51:	push   eax
 1805d52:	mov    DWORD PTR [ebp-0x14],eax
 1805d55:	xor    eax,eax
 1805d57:	push   eax
 1805d58:	call   DWORD PTR ds:0x1819098
 1805d5e:	push   eax
 1805d5f:	call   DWORD PTR ds:0x1819094
 1805d65:	mov    ebx,eax
 1805d67:	mov    DWORD PTR [ebp-0x4],ebx
 1805d6a:	test   ebx,ebx
 1805d6c:	jne    0x1805d7a
 1805d6e:	mov    DWORD PTR [ebp-0x8],0x8
 1805d75:	jmp    0x1805ee9
 1805d7a:	push   DWORD PTR [ebp-0x14]
 1805d7d:	xor    esi,esi
 1805d7f:	push   esi
 1805d80:	push   ebx
 1805d81:	call   0x180a15c
 1805d86:	add    esp,0xc
 1805d89:	mov    edx,esi
 1805d8b:	mov    DWORD PTR [ebp-0xc],edx
 1805d8e:	test   edi,edi
 1805d90:	je     0x1805dc9
 1805d92:	mov    eax,DWORD PTR [edi]
 1805d94:	mov    DWORD PTR [ebp-0x14],eax
 1805d97:	cmp    eax,edi
 1805d99:	je     0x1805dc9
 1805d9b:	mov    ebx,DWORD PTR [ebp-0x10]
 1805d9e:	cmp    esi,ebx
 1805da0:	jae    0x1805dc3
 1805da2:	push   DWORD PTR [eax+0x8]
 1805da5:	mov    edx,esi
 1805da7:	lea    ecx,[ebp-0x4]
 1805daa:	call   0x1805cb8
 1805daf:	inc    esi
 1805db0:	mov    DWORD PTR [ebp-0x8],eax
 1805db3:	test   eax,eax
 1805db5:	jne    0x1805dc3
 1805db7:	mov    eax,DWORD PTR [ebp-0x14]
 1805dba:	mov    eax,DWORD PTR [eax]
 1805dbc:	mov    DWORD PTR [ebp-0x14],eax
 1805dbf:	cmp    eax,edi
 1805dc1:	jne    0x1805d9e
 1805dc3:	mov    ebx,DWORD PTR [ebp-0x4]
 1805dc6:	mov    edx,DWORD PTR [ebp-0xc]
 1805dc9:	mov    eax,DWORD PTR [ebp-0x1c]
 1805dcc:	mov    ecx,DWORD PTR [eax]
 1805dce:	mov    DWORD PTR [ebp-0x14],ecx
 1805dd1:	cmp    ecx,eax
 1805dd3:	je     0x1805ee9
 1805dd9:	push   0x22
 1805ddb:	pop    eax
 1805ddc:	cmp    esi,DWORD PTR [ebp-0x10]
 1805ddf:	jae    0x1805ee9
 1805de5:	mov    ecx,DWORD PTR [ecx+0x8]
 1805de8:	cmp    WORD PTR [ecx],ax
 1805deb:	jne    0x1805e6b
 1805ded:	lea    eax,[ecx+0x2]
 1805df0:	lea    ecx,[ebp-0x4]
 1805df3:	push   eax
 1805df4:	test   edx,edx
 1805df6:	je     0x1805e10
 1805df8:	lea    edx,[esi-0x1]
 1805dfb:	call   0x1805cb8
 1805e00:	mov    DWORD PTR [ebp-0x8],eax
 1805e03:	test   eax,eax
 1805e05:	jne    0x1805ee6
 1805e0b:	mov    DWORD PTR [ebp-0xc],eax
 1805e0e:	jmp    0x1805e23
 1805e10:	mov    edx,esi
 1805e12:	call   0x1805cb8
 1805e17:	inc    esi
 1805e18:	mov    DWORD PTR [ebp-0x8],eax
 1805e1b:	test   eax,eax
 1805e1d:	jne    0x1805ee6
 1805e23:	mov    ebx,DWORD PTR [ebp-0x4]
 1805e26:	mov    edx,DWORD PTR [ebx+esi*4-0x4]
 1805e2a:	mov    ecx,edx
 1805e2c:	lea    edi,[ecx+0x2]
 1805e2f:	mov    ax,WORD PTR [ecx]
 1805e32:	add    ecx,0x2
 1805e35:	cmp    ax,WORD PTR [ebp-0x18]
 1805e39:	jne    0x1805e2f
 1805e3b:	sub    ecx,edi
 1805e3d:	sar    ecx,1
 1805e3f:	push   0x22
 1805e41:	pop    eax
 1805e42:	cmp    WORD PTR [edx+ecx*2-0x2],ax
 1805e47:	jne    0x1805ed0
 1805e4d:	mov    ecx,edx
 1805e4f:	lea    edi,[ecx+0x2]
 1805e52:	mov    ax,WORD PTR [ecx]
 1805e55:	add    ecx,0x2
 1805e58:	cmp    ax,WORD PTR [ebp-0x18]
 1805e5c:	jne    0x1805e52
 1805e5e:	sub    ecx,edi
 1805e60:	sar    ecx,1
 1805e62:	xor    eax,eax
 1805e64:	mov    WORD PTR [edx+ecx*2-0x2],ax
 1805e69:	jmp    0x1805ecd
 1805e6b:	mov    edx,0x18014a8
 1805e70:	mov    eax,ecx
 1805e72:	mov    di,WORD PTR [eax]
 1805e75:	cmp    di,WORD PTR [edx]
 1805e78:	jne    0x1805e98
 1805e7a:	test   di,di
 1805e7d:	je     0x1805e94
 1805e7f:	mov    di,WORD PTR [eax+0x2]
 1805e83:	cmp    di,WORD PTR [edx+0x2]
 1805e87:	jne    0x1805e98
 1805e89:	add    eax,0x4
 1805e8c:	add    edx,0x4
 1805e8f:	test   di,di
 1805e92:	jne    0x1805e72
 1805e94:	xor    eax,eax
 1805e96:	jmp    0x1805e9d
 1805e98:	sbb    eax,eax
 1805e9a:	or     eax,0x1
 1805e9d:	mov    edx,DWORD PTR [ebp-0xc]
 1805ea0:	test   eax,eax
 1805ea2:	je     0x1805ea8
 1805ea4:	test   edx,edx
 1805ea6:	je     0x1805eb7
 1805ea8:	xor    eax,eax
 1805eaa:	test   edx,edx
 1805eac:	sete   al
 1805eaf:	mov    DWORD PTR [ebp-0xc],eax
 1805eb2:	test   esi,esi
 1805eb4:	je     0x1805eb7
 1805eb6:	dec    esi
 1805eb7:	push   ecx
 1805eb8:	mov    edx,esi
 1805eba:	lea    ecx,[ebp-0x4]
 1805ebd:	call   0x1805cb8
 1805ec2:	inc    esi
 1805ec3:	mov    DWORD PTR [ebp-0x8],eax
 1805ec6:	test   eax,eax
 1805ec8:	jne    0x1805ee6
 1805eca:	mov    ebx,DWORD PTR [ebp-0x4]
 1805ecd:	push   0x22
 1805ecf:	pop    eax
 1805ed0:	mov    ecx,DWORD PTR [ebp-0x14]
 1805ed3:	mov    edx,DWORD PTR [ebp-0xc]
 1805ed6:	mov    ecx,DWORD PTR [ecx]
 1805ed8:	mov    DWORD PTR [ebp-0x14],ecx
 1805edb:	cmp    ecx,DWORD PTR [ebp-0x1c]
 1805ede:	jne    0x1805ddc
 1805ee4:	jmp    0x1805ee9
 1805ee6:	mov    ebx,DWORD PTR [ebp-0x4]
 1805ee9:	mov    eax,DWORD PTR [ebp+0x8]
 1805eec:	pop    edi
 1805eed:	mov    DWORD PTR [eax],esi
 1805eef:	mov    eax,DWORD PTR [ebp+0xc]
 1805ef2:	pop    esi
 1805ef3:	mov    DWORD PTR [eax],ebx
 1805ef5:	mov    eax,DWORD PTR [ebp-0x8]
 1805ef8:	pop    ebx
 1805ef9:	mov    esp,ebp
 1805efb:	pop    ebp
 1805efc:	ret    0xc
 1805eff:	int3   
 1805f00:	int3   
 1805f01:	int3   
 1805f02:	int3   
 1805f03:	int3   
 1805f04:	mov    edi,edi
 1805f06:	push   ebp
 1805f07:	mov    ebp,esp
 1805f09:	push   ecx
 1805f0a:	push   ecx
 1805f0b:	push   ebx
 1805f0c:	push   esi
 1805f0d:	xor    eax,eax
 1805f0f:	mov    DWORD PTR [ebp-0x8],ecx
 1805f12:	push   0xc
 1805f14:	push   eax
 1805f15:	mov    ebx,edx
 1805f17:	mov    DWORD PTR [ebp-0x4],eax
 1805f1a:	call   DWORD PTR ds:0x1819098
 1805f20:	push   eax
 1805f21:	call   DWORD PTR ds:0x1819094
 1805f27:	mov    esi,eax
 1805f29:	test   esi,esi
 1805f2b:	jne    0x1805f35
 1805f2d:	push   0x8
 1805f2f:	pop    ebx
 1805f30:	jmp    0x180604d
 1805f35:	push   edi
 1805f36:	xor    eax,eax
 1805f38:	mov    edi,esi
 1805f3a:	push   0xc
 1805f3c:	stos   DWORD PTR es:[edi],eax
 1805f3d:	stos   DWORD PTR es:[edi],eax
 1805f3e:	stos   DWORD PTR es:[edi],eax
 1805f3f:	xor    eax,eax
 1805f41:	push   eax
 1805f42:	mov    DWORD PTR [esi+0x4],esi
 1805f45:	mov    DWORD PTR [esi],esi
 1805f47:	call   DWORD PTR ds:0x1819098
 1805f4d:	push   eax
 1805f4e:	call   DWORD PTR ds:0x1819094
 1805f54:	mov    edi,eax
 1805f56:	test   edi,edi
 1805f58:	jne    0x1805f5f
 1805f5a:	push   esi
 1805f5b:	xor    ebx,ebx
 1805f5d:	jmp    0x1805fa6
 1805f5f:	mov    ecx,ebx
 1805f61:	lea    edx,[ecx+0x2]
 1805f64:	mov    ax,WORD PTR [ecx]
 1805f67:	add    ecx,0x2
 1805f6a:	cmp    ax,WORD PTR [ebp-0x4]
 1805f6e:	jne    0x1805f64
 1805f70:	sub    ecx,edx
 1805f72:	sar    ecx,1
 1805f74:	lea    eax,[ecx+0x1]
 1805f77:	mov    DWORD PTR [ebp-0x4],eax
 1805f7a:	add    eax,eax
 1805f7c:	push   eax
 1805f7d:	xor    eax,eax
 1805f7f:	push   eax
 1805f80:	call   DWORD PTR ds:0x1819098
 1805f86:	push   eax
 1805f87:	call   DWORD PTR ds:0x1819094
 1805f8d:	mov    DWORD PTR [edi+0x8],eax
 1805f90:	test   eax,eax
 1805f92:	jne    0x1805fbe
 1805f94:	push   esi
 1805f95:	xor    ebx,ebx
 1805f97:	push   ebx
 1805f98:	call   DWORD PTR ds:0x1819098
 1805f9e:	push   eax
 1805f9f:	call   DWORD PTR ds:0x181909c
 1805fa5:	push   edi
 1805fa6:	push   ebx
 1805fa7:	call   DWORD PTR ds:0x1819098
 1805fad:	push   eax
 1805fae:	call   DWORD PTR ds:0x181909c
 1805fb4:	push   0x8
 1805fb6:	mov    esi,ebx
 1805fb8:	pop    ebx
 1805fb9:	jmp    0x180604c
 1805fbe:	mov    edx,DWORD PTR [ebp-0x4]
 1805fc1:	mov    ecx,eax
 1805fc3:	push   ebx
 1805fc4:	call   0x180235f
 1805fc9:	mov    eax,DWORD PTR [esi]
 1805fcb:	mov    DWORD PTR [edi],eax
 1805fcd:	mov    DWORD PTR [edi+0x4],esi
 1805fd0:	cmp    DWORD PTR [eax+0x4],esi
 1805fd3:	je     0x1805fda
 1805fd5:	push   0x3
 1805fd7:	pop    ecx
 1805fd8:	int    0x29
 1805fda:	mov    DWORD PTR [eax+0x4],edi
 1805fdd:	xor    edx,edx
 1805fdf:	mov    ecx,edi
 1805fe1:	mov    DWORD PTR [esi],edi
 1805fe3:	call   0x18050e7
 1805fe8:	mov    ebx,eax
 1805fea:	test   ebx,ebx
 1805fec:	je     0x180604c
 1805fee:	mov    edi,DWORD PTR [esi]
 1805ff0:	cmp    edi,esi
 1805ff2:	je     0x180603b
 1805ff4:	cmp    DWORD PTR [edi+0x8],0x0
 1805ff8:	je     0x180600d
 1805ffa:	push   DWORD PTR [edi+0x8]
 1805ffd:	xor    eax,eax
 1805fff:	push   eax
 1806000:	call   DWORD PTR ds:0x1819098
 1806006:	push   eax
 1806007:	call   DWORD PTR ds:0x181909c
 180600d:	mov    eax,DWORD PTR [edi]
 180600f:	mov    ecx,DWORD PTR [edi+0x4]
 1806012:	mov    DWORD PTR [ebp-0x4],eax
 1806015:	cmp    DWORD PTR [eax+0x4],edi
 1806018:	jne    0x1805fd5
 180601a:	cmp    DWORD PTR [ecx],edi
 180601c:	jne    0x1805fd5
 180601e:	mov    DWORD PTR [ecx],eax
 1806020:	mov    DWORD PTR [eax+0x4],ecx
 1806023:	xor    eax,eax
 1806025:	push   edi
 1806026:	push   eax
 1806027:	call   DWORD PTR ds:0x1819098
 180602d:	push   eax
 180602e:	call   DWORD PTR ds:0x181909c
 1806034:	mov    edi,DWORD PTR [ebp-0x4]
 1806037:	cmp    edi,esi
 1806039:	jne    0x1805ff4
 180603b:	push   esi
 180603c:	xor    esi,esi
 180603e:	push   esi
 180603f:	call   DWORD PTR ds:0x1819098
 1806045:	push   eax
 1806046:	call   DWORD PTR ds:0x181909c
 180604c:	pop    edi
 180604d:	mov    eax,DWORD PTR [ebp-0x8]
 1806050:	mov    DWORD PTR [eax],esi
 1806052:	cmp    ebx,0x8
 1806055:	jne    0x1806066
 1806057:	push   0x68
 1806059:	push   DWORD PTR ds:0x1818b08
 180605f:	call   0x18080e0
 1806064:	pop    ecx
 1806065:	pop    ecx
 1806066:	pop    esi
 1806067:	mov    eax,ebx
 1806069:	pop    ebx
 180606a:	mov    esp,ebp
 180606c:	pop    ebp
 180606d:	ret    
 180606e:	int3   
 180606f:	int3   
 1806070:	int3   
 1806071:	int3   
 1806072:	int3   
 1806073:	int3   
 1806074:	int3   
 1806075:	int3   
 1806076:	int3   
 1806077:	int3   
 1806078:	int3   
 1806079:	int3   
 180607a:	int3   
 180607b:	int3   
 180607c:	int3   
 180607d:	int3   
 180607e:	int3   
 180607f:	int3   
 1806080:	mov    edi,edi
 1806082:	push   ebp
 1806083:	mov    ebp,esp
 1806085:	sub    esp,0x20
 1806088:	or     DWORD PTR ds:0x180b25c,0xffffffff
 180608f:	push   ebx
 1806090:	mov    ebx,DWORD PTR ds:0x1813750
 1806096:	push   esi
 1806097:	mov    esi,DWORD PTR [ebp+0xc]
 180609a:	push   edi
 180609b:	xor    edi,edi
 180609d:	neg    ebx
 180609f:	push   0x8
 18060a1:	sbb    ebx,ebx
 18060a3:	mov    DWORD PTR [ebp-0x8],edi
 18060a6:	and    ebx,0x2
 18060a9:	mov    DWORD PTR [ebp-0x1c],edi
 18060ac:	or     ebx,0xffff0000
 18060b2:	mov    DWORD PTR [esi],edi
 18060b4:	pop    eax
 18060b5:	mov    DWORD PTR [ebp-0x20],eax
 18060b8:	cmp    DWORD PTR ds:0x181375c,edi
 18060be:	jne    0x18060c2
 18060c0:	or     ebx,eax
 18060c2:	cmp    DWORD PTR ds:0x180b258,edi
 18060c8:	je     0x18060cd
 18060ca:	or     ebx,0x10
 18060cd:	cmp    DWORD PTR ds:0x1813760,edi
 18060d3:	je     0x18060e4
 18060d5:	push   DWORD PTR [ebp+0x8]
 18060d8:	push   0x18014b0
 18060dd:	call   0x18080b0
 18060e2:	pop    ecx
 18060e3:	pop    ecx
 18060e4:	mov    edx,0x180b260
 18060e9:	lea    ecx,[ebp-0x4]
 18060ec:	call   0x1805f04
 18060f1:	test   eax,eax
 18060f3:	je     0x1806100
 18060f5:	mov    DWORD PTR [esi],0x1
 18060fb:	jmp    0x18068e9
 1806100:	mov    edx,DWORD PTR [ebp+0x8]
 1806103:	lea    ecx,[ebp-0x14]
 1806106:	call   0x1805f04
 180610b:	mov    DWORD PTR [ebp-0x18],eax
 180610e:	test   eax,eax
 1806110:	je     0x1806182
 1806112:	mov    edi,DWORD PTR [ebp-0x4]
 1806115:	mov    esi,DWORD PTR [edi]
 1806117:	cmp    esi,edi
 1806119:	je     0x180615c
 180611b:	cmp    DWORD PTR [esi+0x8],0x0
 180611f:	je     0x1806133
 1806121:	push   DWORD PTR [esi+0x8]
 1806124:	push   0x0
 1806126:	call   DWORD PTR ds:0x1819098
 180612c:	push   eax
 180612d:	call   DWORD PTR ds:0x181909c
 1806133:	mov    ebx,DWORD PTR [esi]
 1806135:	mov    eax,DWORD PTR [esi+0x4]
 1806138:	cmp    DWORD PTR [ebx+0x4],esi
 180613b:	jne    0x180617d
 180613d:	cmp    DWORD PTR [eax],esi
 180613f:	jne    0x180617d
 1806141:	push   esi
 1806142:	mov    DWORD PTR [eax],ebx
 1806144:	push   0x0
 1806146:	mov    DWORD PTR [ebx+0x4],eax
 1806149:	call   DWORD PTR ds:0x1819098
 180614f:	push   eax
 1806150:	call   DWORD PTR ds:0x181909c
 1806156:	mov    esi,ebx
 1806158:	cmp    ebx,edi
 180615a:	jne    0x180611b
 180615c:	push   edi
 180615d:	push   0x0
 180615f:	call   DWORD PTR ds:0x1819098
 1806165:	push   eax
 1806166:	call   DWORD PTR ds:0x181909c
 180616c:	mov    eax,DWORD PTR [ebp+0xc]
 180616f:	mov    DWORD PTR [eax],0x1
 1806175:	mov    eax,DWORD PTR [ebp-0x18]
 1806178:	jmp    0x18068e9
 180617d:	push   0x3
 180617f:	pop    ecx
 1806180:	int    0x29
 1806182:	mov    esi,DWORD PTR [ebp-0x14]
 1806185:	cmp    DWORD PTR [esi],esi
 1806187:	jne    0x18061fc
 1806189:	push   esi
 180618a:	push   edi
 180618b:	call   DWORD PTR ds:0x1819098
 1806191:	push   eax
 1806192:	call   DWORD PTR ds:0x181909c
 1806198:	mov    ebx,DWORD PTR [ebp-0x4]
 180619b:	mov    esi,DWORD PTR [ebx]
 180619d:	cmp    esi,ebx
 180619f:	je     0x18061e6
 18061a1:	cmp    DWORD PTR [esi+0x8],0x0
 18061a5:	je     0x18061b8
 18061a7:	push   DWORD PTR [esi+0x8]
 18061aa:	push   edi
 18061ab:	call   DWORD PTR ds:0x1819098
 18061b1:	push   eax
 18061b2:	call   DWORD PTR ds:0x181909c
 18061b8:	mov    edi,DWORD PTR [esi]
 18061ba:	mov    eax,DWORD PTR [esi+0x4]
 18061bd:	cmp    DWORD PTR [edi+0x4],esi
 18061c0:	jne    0x180617d
 18061c2:	cmp    DWORD PTR [eax],esi
 18061c4:	jne    0x180617d
 18061c6:	push   esi
 18061c7:	mov    DWORD PTR [eax],edi
 18061c9:	push   0x0
 18061cb:	mov    DWORD PTR [edi+0x4],eax
 18061ce:	call   DWORD PTR ds:0x1819098
 18061d4:	push   eax
 18061d5:	call   DWORD PTR ds:0x181909c
 18061db:	push   0x0
 18061dd:	mov    esi,edi
 18061df:	cmp    edi,ebx
 18061e1:	pop    edi
 18061e2:	jne    0x18061a1
 18061e4:	xor    edi,edi
 18061e6:	push   ebx
 18061e7:	push   edi
 18061e8:	call   DWORD PTR ds:0x1819098
 18061ee:	push   eax
 18061ef:	call   DWORD PTR ds:0x181909c
 18061f5:	xor    eax,eax
 18061f7:	jmp    0x18068e9
 18061fc:	mov    ecx,DWORD PTR [esi]
 18061fe:	xor    edx,edx
 1806200:	inc    edx
 1806201:	call   0x18050e7
 1806206:	mov    DWORD PTR [ebp-0x18],eax
 1806209:	test   eax,eax
 180620b:	je     0x18062ce
 1806211:	mov    edi,DWORD PTR [esi]
 1806213:	cmp    edi,esi
 1806215:	je     0x1806260
 1806217:	cmp    DWORD PTR [edi+0x8],0x0
 180621b:	je     0x180622f
 180621d:	push   DWORD PTR [edi+0x8]
 1806220:	push   0x0
 1806222:	call   DWORD PTR ds:0x1819098
 1806228:	push   eax
 1806229:	call   DWORD PTR ds:0x181909c
 180622f:	mov    ebx,DWORD PTR [edi]
 1806231:	mov    eax,DWORD PTR [edi+0x4]
 1806234:	cmp    DWORD PTR [ebx+0x4],edi
 1806237:	jne    0x180617d
 180623d:	cmp    DWORD PTR [eax],edi
 180623f:	jne    0x180617d
 1806245:	push   edi
 1806246:	mov    DWORD PTR [eax],ebx
 1806248:	push   0x0
 180624a:	mov    DWORD PTR [ebx+0x4],eax
 180624d:	call   DWORD PTR ds:0x1819098
 1806253:	push   eax
 1806254:	call   DWORD PTR ds:0x181909c
 180625a:	mov    edi,ebx
 180625c:	cmp    ebx,esi
 180625e:	jne    0x1806217
 1806260:	push   esi
 1806261:	xor    edi,edi
 1806263:	push   edi
 1806264:	call   DWORD PTR ds:0x1819098
 180626a:	push   eax
 180626b:	call   DWORD PTR ds:0x181909c
 1806271:	mov    ebx,DWORD PTR [ebp-0x4]
 1806274:	mov    esi,DWORD PTR [ebx]
 1806276:	cmp    esi,ebx
 1806278:	je     0x18062c7
 180627a:	cmp    DWORD PTR [esi+0x8],0x0
 180627e:	je     0x1806291
 1806280:	push   DWORD PTR [esi+0x8]
 1806283:	push   edi
 1806284:	call   DWORD PTR ds:0x1819098
 180628a:	push   eax
 180628b:	call   DWORD PTR ds:0x181909c
 1806291:	mov    edi,DWORD PTR [esi]
 1806293:	mov    eax,DWORD PTR [esi+0x4]
 1806296:	cmp    DWORD PTR [edi+0x4],esi
 1806299:	jne    0x180617d
 180629f:	cmp    DWORD PTR [eax],esi
 18062a1:	jne    0x180617d
 18062a7:	push   esi
 18062a8:	mov    DWORD PTR [eax],edi
 18062aa:	push   0x0
 18062ac:	mov    DWORD PTR [edi+0x4],eax
 18062af:	call   DWORD PTR ds:0x1819098
 18062b5:	push   eax
 18062b6:	call   DWORD PTR ds:0x181909c
 18062bc:	push   0x0
 18062be:	mov    esi,edi
 18062c0:	cmp    edi,ebx
 18062c2:	pop    edi
 18062c3:	jne    0x180627a
 18062c5:	xor    edi,edi
 18062c7:	push   ebx
 18062c8:	push   edi
 18062c9:	jmp    0x180615f
 18062ce:	mov    ecx,DWORD PTR [esi]
 18062d0:	cmp    ecx,esi
 18062d2:	je     0x18062ec
 18062d4:	mov    edi,DWORD PTR [ecx]
 18062d6:	xor    edx,edx
 18062d8:	call   0x18050e7
 18062dd:	mov    DWORD PTR [ebp-0x18],eax
 18062e0:	test   eax,eax
 18062e2:	jne    0x1806360
 18062e4:	mov    ecx,edi
 18062e6:	cmp    edi,esi
 18062e8:	jne    0x18062d4
 18062ea:	xor    edi,edi
 18062ec:	cmp    DWORD PTR [esi],esi
 18062ee:	jne    0x180641d
 18062f4:	push   esi
 18062f5:	push   edi
 18062f6:	call   DWORD PTR ds:0x1819098
 18062fc:	push   eax
 18062fd:	call   DWORD PTR ds:0x181909c
 1806303:	mov    ebx,DWORD PTR [ebp-0x4]
 1806306:	mov    esi,DWORD PTR [ebx]
 1806308:	cmp    esi,ebx
 180630a:	je     0x18061e6
 1806310:	cmp    DWORD PTR [esi+0x8],0x0
 1806314:	je     0x1806327
 1806316:	push   DWORD PTR [esi+0x8]
 1806319:	push   edi
 180631a:	call   DWORD PTR ds:0x1819098
 1806320:	push   eax
 1806321:	call   DWORD PTR ds:0x181909c
 1806327:	mov    edi,DWORD PTR [esi]
 1806329:	mov    eax,DWORD PTR [esi+0x4]
 180632c:	cmp    DWORD PTR [edi+0x4],esi
 180632f:	jne    0x180617d
 1806335:	cmp    DWORD PTR [eax],esi
 1806337:	jne    0x180617d
 180633d:	push   esi
 180633e:	mov    DWORD PTR [eax],edi
 1806340:	push   0x0
 1806342:	mov    DWORD PTR [edi+0x4],eax
 1806345:	call   DWORD PTR ds:0x1819098
 180634b:	push   eax
 180634c:	call   DWORD PTR ds:0x181909c
 1806352:	push   0x0
 1806354:	mov    esi,edi
 1806356:	cmp    edi,ebx
 1806358:	pop    edi
 1806359:	jne    0x1806310
 180635b:	jmp    0x18061e4
 1806360:	mov    edi,DWORD PTR [esi]
 1806362:	cmp    edi,esi
 1806364:	je     0x18063af
 1806366:	cmp    DWORD PTR [edi+0x8],0x0
 180636a:	je     0x180637e
 180636c:	push   DWORD PTR [edi+0x8]
 180636f:	push   0x0
 1806371:	call   DWORD PTR ds:0x1819098
 1806377:	push   eax
 1806378:	call   DWORD PTR ds:0x181909c
 180637e:	mov    ebx,DWORD PTR [edi]
 1806380:	mov    eax,DWORD PTR [edi+0x4]
 1806383:	cmp    DWORD PTR [ebx+0x4],edi
 1806386:	jne    0x180617d
 180638c:	cmp    DWORD PTR [eax],edi
 180638e:	jne    0x180617d
 1806394:	push   edi
 1806395:	mov    DWORD PTR [eax],ebx
 1806397:	push   0x0
 1806399:	mov    DWORD PTR [ebx+0x4],eax
 180639c:	call   DWORD PTR ds:0x1819098
 18063a2:	push   eax
 18063a3:	call   DWORD PTR ds:0x181909c
 18063a9:	mov    edi,ebx
 18063ab:	cmp    ebx,esi
 18063ad:	jne    0x1806366
 18063af:	push   esi
 18063b0:	xor    edi,edi
 18063b2:	push   edi
 18063b3:	call   DWORD PTR ds:0x1819098
 18063b9:	push   eax
 18063ba:	call   DWORD PTR ds:0x181909c
 18063c0:	mov    ebx,DWORD PTR [ebp-0x4]
 18063c3:	mov    esi,DWORD PTR [ebx]
 18063c5:	cmp    esi,ebx
 18063c7:	je     0x18062c7
 18063cd:	cmp    DWORD PTR [esi+0x8],0x0
 18063d1:	je     0x18063e4
 18063d3:	push   DWORD PTR [esi+0x8]
 18063d6:	push   edi
 18063d7:	call   DWORD PTR ds:0x1819098
 18063dd:	push   eax
 18063de:	call   DWORD PTR ds:0x181909c
 18063e4:	mov    edi,DWORD PTR [esi]
 18063e6:	mov    eax,DWORD PTR [esi+0x4]
 18063e9:	cmp    DWORD PTR [edi+0x4],esi
 18063ec:	jne    0x180617d
 18063f2:	cmp    DWORD PTR [eax],esi
 18063f4:	jne    0x180617d
 18063fa:	push   esi
 18063fb:	mov    DWORD PTR [eax],edi
 18063fd:	push   0x0
 18063ff:	mov    DWORD PTR [edi+0x4],eax
 1806402:	call   DWORD PTR ds:0x1819098
 1806408:	push   eax
 1806409:	call   DWORD PTR ds:0x181909c
 180640f:	push   0x0
 1806411:	mov    esi,edi
 1806413:	cmp    edi,ebx
 1806415:	pop    edi
 1806416:	jne    0x18063cd
 1806418:	jmp    0x18062c5
 180641d:	mov    edx,0x181374c
 1806422:	mov    ecx,0x1813740
 1806427:	call   0x1804f1b
 180642c:	mov    DWORD PTR [ebp-0x18],eax
 180642f:	test   eax,eax
 1806431:	je     0x18064f4
 1806437:	mov    edi,DWORD PTR [esi]
 1806439:	cmp    edi,esi
 180643b:	je     0x1806486
 180643d:	cmp    DWORD PTR [edi+0x8],0x0
 1806441:	je     0x1806455
 1806443:	push   DWORD PTR [edi+0x8]
 1806446:	push   0x0
 1806448:	call   DWORD PTR ds:0x1819098
 180644e:	push   eax
 180644f:	call   DWORD PTR ds:0x181909c
 1806455:	mov    ebx,DWORD PTR [edi]
 1806457:	mov    eax,DWORD PTR [edi+0x4]
 180645a:	cmp    DWORD PTR [ebx+0x4],edi
 180645d:	jne    0x180617d
 1806463:	cmp    DWORD PTR [eax],edi
 1806465:	jne    0x180617d
 180646b:	push   edi
 180646c:	mov    DWORD PTR [eax],ebx
 180646e:	push   0x0
 1806470:	mov    DWORD PTR [ebx+0x4],eax
 1806473:	call   DWORD PTR ds:0x1819098
 1806479:	push   eax
 180647a:	call   DWORD PTR ds:0x181909c
 1806480:	mov    edi,ebx
 1806482:	cmp    ebx,esi
 1806484:	jne    0x180643d
 1806486:	push   esi
 1806487:	xor    edi,edi
 1806489:	push   edi
 180648a:	call   DWORD PTR ds:0x1819098
 1806490:	push   eax
 1806491:	call   DWORD PTR ds:0x181909c
 1806497:	mov    ebx,DWORD PTR [ebp-0x4]
 180649a:	mov    esi,DWORD PTR [ebx]
 180649c:	cmp    esi,ebx
 180649e:	je     0x18062c7
 18064a4:	cmp    DWORD PTR [esi+0x8],0x0
 18064a8:	je     0x18064bb
 18064aa:	push   DWORD PTR [esi+0x8]
 18064ad:	push   edi
 18064ae:	call   DWORD PTR ds:0x1819098
 18064b4:	push   eax
 18064b5:	call   DWORD PTR ds:0x181909c
 18064bb:	mov    edi,DWORD PTR [esi]
 18064bd:	mov    eax,DWORD PTR [esi+0x4]
 18064c0:	cmp    DWORD PTR [edi+0x4],esi
 18064c3:	jne    0x180617d
 18064c9:	cmp    DWORD PTR [eax],esi
 18064cb:	jne    0x180617d
 18064d1:	push   esi
 18064d2:	mov    DWORD PTR [eax],edi
 18064d4:	push   0x0
 18064d6:	mov    DWORD PTR [edi+0x4],eax
 18064d9:	call   DWORD PTR ds:0x1819098
 18064df:	push   eax
 18064e0:	call   DWORD PTR ds:0x181909c
 18064e6:	push   0x0
 18064e8:	mov    esi,edi
 18064ea:	cmp    edi,ebx
 18064ec:	pop    edi
 18064ed:	jne    0x18064a4
 18064ef:	jmp    0x18062c5
 18064f4:	mov    eax,ds:0x1813740
 18064f9:	or     ebx,0x1
 18064fc:	mov    edi,DWORD PTR [ebp-0x4]
 18064ff:	mov    DWORD PTR [ebp-0xc],eax
 1806502:	mov    DWORD PTR [ebp-0x14],eax
 1806505:	mov    edx,esi
 1806507:	lea    eax,[ebp-0x1c]
 180650a:	mov    ecx,edi
 180650c:	push   eax
 180650d:	lea    eax,[ebp-0x18]
 1806510:	push   eax
 1806511:	lea    eax,[ebp-0x8]
 1806514:	push   eax
 1806515:	call   0x1805cfa
 180651a:	mov    ecx,eax
 180651c:	mov    DWORD PTR [ebp-0x10],ecx
 180651f:	test   ecx,ecx
 1806521:	jne    0x1806557
 1806523:	mov    eax,DWORD PTR [ebp-0x1c]
 1806526:	mov    ecx,DWORD PTR [ebp-0x8]
 1806529:	mov    edx,ecx
 180652b:	mov    ds:0x1818b00,eax
 1806530:	mov    eax,DWORD PTR [ebp+0xc]
 1806533:	push   eax
 1806534:	push   ebx
 1806535:	push   DWORD PTR [ebp-0x18]
 1806538:	mov    DWORD PTR ds:0x1818b04,ecx
 180653e:	mov    ecx,DWORD PTR [ebp-0x14]
 1806541:	call   0x1805550
 1806546:	mov    edx,DWORD PTR [ebp-0x18]
 1806549:	mov    ecx,DWORD PTR [ebp-0x8]
 180654c:	mov    DWORD PTR [ebp-0x10],eax
 180654f:	call   0x1805c0a
 1806554:	mov    ecx,DWORD PTR [ebp-0x10]
 1806557:	mov    eax,DWORD PTR [ebp+0xc]
 180655a:	xor    edx,edx
 180655c:	cmp    DWORD PTR [eax],edx
 180655e:	jne    0x1806651
 1806564:	cmp    ecx,0x3a9c
 180656a:	je     0x1806578
 180656c:	cmp    ecx,0x3aa8
 1806572:	jne    0x1806651
 1806578:	mov    eax,DWORD PTR [edi]
 180657a:	cmp    DWORD PTR [eax],edi
 180657c:	je     0x1806651
 1806582:	mov    eax,DWORD PTR [edi+0x4]
 1806585:	mov    DWORD PTR [ebp-0x10],eax
 1806588:	mov    ecx,DWORD PTR [eax+0x8]
 180658b:	test   ecx,ecx
 180658d:	je     0x18065a1
 180658f:	push   ecx
 1806590:	push   edx
 1806591:	call   DWORD PTR ds:0x1819098
 1806597:	push   eax
 1806598:	call   DWORD PTR ds:0x181909c
 180659e:	mov    eax,DWORD PTR [ebp-0x10]
 18065a1:	mov    edx,DWORD PTR [eax]
 18065a3:	mov    ecx,DWORD PTR [eax+0x4]
 18065a6:	cmp    DWORD PTR [edx+0x4],eax
 18065a9:	jne    0x180617d
 18065af:	cmp    DWORD PTR [ecx],eax
 18065b1:	jne    0x180617d
 18065b7:	push   eax
 18065b8:	mov    DWORD PTR [ecx],edx
 18065ba:	push   0x0
 18065bc:	mov    DWORD PTR [edx+0x4],ecx
 18065bf:	call   DWORD PTR ds:0x1819098
 18065c5:	push   eax
 18065c6:	call   DWORD PTR ds:0x181909c
 18065cc:	mov    ecx,DWORD PTR [ebp-0x14]
 18065cf:	lea    edx,[ebp-0xc]
 18065d2:	call   0x1804f99
 18065d7:	cmp    DWORD PTR ds:0x181376c,0x1
 18065de:	jne    0x1806646
 18065e0:	push   0x1801384
 18065e5:	push   0x180b260
 18065ea:	call   DWORD PTR ds:0x181912c
 18065f0:	test   eax,eax
 18065f2:	jne    0x1806646
 18065f4:	mov    edi,DWORD PTR [edi+0x4]
 18065f7:	cmp    DWORD PTR [edi+0x8],eax
 18065fa:	je     0x180660d
 18065fc:	push   DWORD PTR [edi+0x8]
 18065ff:	push   eax
 1806600:	call   DWORD PTR ds:0x1819098
 1806606:	push   eax
 1806607:	call   DWORD PTR ds:0x181909c
 180660d:	mov    ecx,DWORD PTR [edi]
 180660f:	mov    eax,DWORD PTR [edi+0x4]
 1806612:	cmp    DWORD PTR [ecx+0x4],edi
 1806615:	jne    0x180617d
 180661b:	cmp    DWORD PTR [eax],edi
 180661d:	jne    0x180617d
 1806623:	push   edi
 1806624:	mov    DWORD PTR [eax],ecx
 1806626:	push   0x0
 1806628:	mov    DWORD PTR [ecx+0x4],eax
 180662b:	call   DWORD PTR ds:0x1819098
 1806631:	push   eax
 1806632:	call   DWORD PTR ds:0x181909c
 1806638:	mov    ecx,DWORD PTR [ebp-0xc]
 180663b:	lea    edx,[ebp-0xc]
 180663e:	call   0x1804f99
 1806643:	mov    edi,DWORD PTR [ebp-0x4]
 1806646:	mov    eax,DWORD PTR [ebp-0xc]
 1806649:	and    ebx,0xfffffffe
 180664c:	jmp    0x1806502
 1806651:	mov    eax,ecx
 1806653:	sub    eax,0x8
 1806656:	je     0x1806804
 180665c:	sub    eax,0x444
 1806661:	je     0x18067f9
 1806667:	sub    eax,0x3650
 180666c:	je     0x1806786
 1806672:	sub    eax,0xb
 1806675:	je     0x1806768
 180667b:	sub    eax,0x1b03
 1806680:	je     0x18066b3
 1806682:	sub    eax,0x1
 1806685:	jne    0x180681e
 180668b:	push   DWORD PTR ds:0x181375c
 1806691:	push   0x3eb
 1806696:	push   DWORD PTR ds:0x1818b08
 180669c:	call   0x18080e0
 18066a1:	add    esp,0xc
 18066a4:	mov    DWORD PTR ds:0x1813758,0x1
 18066ae:	jmp    0x180681c
 18066b3:	test   bl,0x2
 18066b6:	jne    0x1806754
 18066bc:	mov    edi,DWORD PTR [ebp-0x8]
 18066bf:	shl    edi,0x2
 18066c2:	lea    eax,[edi+0x4]
 18066c5:	push   eax
 18066c6:	push   edx
 18066c7:	call   DWORD PTR ds:0x1819098
 18066cd:	push   eax
 18066ce:	call   DWORD PTR ds:0x1819094
 18066d4:	mov    esi,eax
 18066d6:	test   esi,esi
 18066d8:	je     0x18067a5
 18066de:	push   edi
 18066df:	push   DWORD PTR [ebp-0x18]
 18066e2:	push   esi
 18066e3:	call   0x180a150
 18066e8:	add    esp,0xc
 18066eb:	push   0x4
 18066ed:	push   0x0
 18066ef:	call   DWORD PTR ds:0x1819098
 18066f5:	push   eax
 18066f6:	call   DWORD PTR ds:0x1819094
 18066fc:	mov    DWORD PTR [esi+edi*1],eax
 18066ff:	test   eax,eax
 1806701:	je     0x180673c
 1806703:	push   0x18011d4
 1806708:	push   0x2
 180670a:	pop    edx
 180670b:	mov    ecx,eax
 180670d:	call   0x180235f
 1806712:	push   DWORD PTR [ebp+0xc]
 1806715:	mov    ecx,DWORD PTR [ebp-0x8]
 1806718:	mov    edx,esi
 180671a:	inc    ecx
 180671b:	push   ebx
 180671c:	mov    DWORD PTR ds:0x1818b04,ecx
 1806722:	call   0x1805796
 1806727:	push   DWORD PTR [esi+edi*1]
 180672a:	mov    DWORD PTR [ebp-0x20],eax
 180672d:	push   0x0
 180672f:	call   DWORD PTR ds:0x1819098
 1806735:	push   eax
 1806736:	call   DWORD PTR ds:0x181909c
 180673c:	push   esi
 180673d:	push   0x0
 180673f:	call   DWORD PTR ds:0x1819098
 1806745:	push   eax
 1806746:	call   DWORD PTR ds:0x181909c
 180674c:	mov    eax,DWORD PTR [ebp-0x20]
 180674f:	jmp    0x18068e9
 1806754:	mov    ecx,0x180f2c8
 1806759:	call   0x180552c
 180675e:	xor    edx,edx
 1806760:	mov    DWORD PTR [ebp-0x10],edx
 1806763:	jmp    0x180681e
 1806768:	cmp    DWORD PTR ds:0x180f2c0,edx
 180676e:	jne    0x180681e
 1806774:	push   0x2
 1806776:	push   DWORD PTR ds:0x1818b08
 180677c:	call   0x18080e0
 1806781:	jmp    0x180681a
 1806786:	push   DWORD PTR [ebp+0x8]
 1806789:	call   DWORD PTR ds:0x18191e4
 180678f:	mov    edi,eax
 1806791:	pop    ecx
 1806792:	test   edi,edi
 1806794:	jne    0x18067ad
 1806796:	push   0x68
 1806798:	push   DWORD PTR ds:0x1818b08
 180679e:	call   0x18080e0
 18067a3:	pop    ecx
 18067a4:	pop    ecx
 18067a5:	push   0x8
 18067a7:	pop    eax
 18067a8:	jmp    0x18068e9
 18067ad:	mov    edx,edi
 18067af:	xor    ebx,ebx
 18067b1:	lea    ecx,[edx+0x2]
 18067b4:	mov    ax,WORD PTR [edx]
 18067b7:	add    edx,0x2
 18067ba:	cmp    ax,bx
 18067bd:	jne    0x18067b4
 18067bf:	sub    edx,ecx
 18067c1:	sar    edx,1
 18067c3:	cmp    edx,0x100
 18067c9:	jbe    0x18067e1
 18067cb:	push   0x18014c4
 18067d0:	add    edx,0xffffff06
 18067d6:	lea    ecx,[edi+0x1f4]
 18067dc:	call   0x180235f
 18067e1:	push   edi
 18067e2:	push   0x3a9c
 18067e7:	push   ebx
 18067e8:	call   0x18080e0
 18067ed:	push   edi
 18067ee:	call   DWORD PTR ds:0x18191dc
 18067f4:	add    esp,0x10
 18067f7:	jmp    0x180681c
 18067f9:	push   0x44c
 18067fe:	push   edx
 18067ff:	jmp    0x180677c
 1806804:	push   0x68
 1806806:	push   DWORD PTR ds:0x1818b08
 180680c:	call   0x18080e0
 1806811:	mov    eax,DWORD PTR [ebp+0xc]
 1806814:	mov    DWORD PTR [eax],0x1
 180681a:	pop    ecx
 180681b:	pop    ecx
 180681c:	xor    edx,edx
 180681e:	mov    edi,DWORD PTR [esi]
 1806820:	cmp    edi,esi
 1806822:	je     0x1806871
 1806824:	jmp    0x1806828
 1806826:	xor    edx,edx
 1806828:	cmp    DWORD PTR [edi+0x8],0x0
 180682c:	je     0x180683f
 180682e:	push   DWORD PTR [edi+0x8]
 1806831:	push   edx
 1806832:	call   DWORD PTR ds:0x1819098
 1806838:	push   eax
 1806839:	call   DWORD PTR ds:0x181909c
 180683f:	mov    ebx,DWORD PTR [edi]
 1806841:	mov    eax,DWORD PTR [edi+0x4]
 1806844:	cmp    DWORD PTR [ebx+0x4],edi
 1806847:	jne    0x180617d
 180684d:	cmp    DWORD PTR [eax],edi
 180684f:	jne    0x180617d
 1806855:	mov    DWORD PTR [eax],ebx
 1806857:	mov    DWORD PTR [ebx+0x4],eax
 180685a:	xor    eax,eax
 180685c:	push   edi
 180685d:	push   eax
 180685e:	call   DWORD PTR ds:0x1819098
 1806864:	push   eax
 1806865:	call   DWORD PTR ds:0x181909c
 180686b:	mov    edi,ebx
 180686d:	cmp    ebx,esi
 180686f:	jne    0x1806826
 1806871:	push   esi
 1806872:	xor    edi,edi
 1806874:	push   edi
 1806875:	call   DWORD PTR ds:0x1819098
 180687b:	push   eax
 180687c:	call   DWORD PTR ds:0x181909c
 1806882:	mov    ebx,DWORD PTR [ebp-0x4]
 1806885:	mov    esi,DWORD PTR [ebx]
 1806887:	cmp    esi,ebx
 1806889:	je     0x18068d7
 180688b:	cmp    DWORD PTR [esi+0x8],0x0
 180688f:	je     0x18068a2
 1806891:	push   DWORD PTR [esi+0x8]
 1806894:	push   edi
 1806895:	call   DWORD PTR ds:0x1819098
 180689b:	push   eax
 180689c:	call   DWORD PTR ds:0x181909c
 18068a2:	mov    edi,DWORD PTR [esi]
 18068a4:	mov    eax,DWORD PTR [esi+0x4]
 18068a7:	cmp    DWORD PTR [edi+0x4],esi
 18068aa:	jne    0x180617d
 18068b0:	cmp    DWORD PTR [eax],esi
 18068b2:	jne    0x180617d
 18068b8:	mov    DWORD PTR [eax],edi
 18068ba:	mov    DWORD PTR [edi+0x4],eax
 18068bd:	xor    eax,eax
 18068bf:	push   esi
 18068c0:	push   eax
 18068c1:	call   DWORD PTR ds:0x1819098
 18068c7:	push   eax
 18068c8:	call   DWORD PTR ds:0x181909c
 18068ce:	push   0x0
 18068d0:	mov    esi,edi
 18068d2:	cmp    edi,ebx
 18068d4:	pop    edi
 18068d5:	jne    0x180688b
 18068d7:	push   ebx
 18068d8:	push   edi
 18068d9:	call   DWORD PTR ds:0x1819098
 18068df:	push   eax
 18068e0:	call   DWORD PTR ds:0x181909c
 18068e6:	mov    eax,DWORD PTR [ebp-0x10]
 18068e9:	pop    edi
 18068ea:	pop    esi
 18068eb:	pop    ebx
 18068ec:	mov    esp,ebp
 18068ee:	pop    ebp
 18068ef:	ret    0x8
 18068f2:	int3   
 18068f3:	int3   
 18068f4:	int3   
 18068f5:	int3   
 18068f6:	int3   
 18068f7:	mov    edi,edi
 18068f9:	push   ebp
 18068fa:	mov    ebp,esp
 18068fc:	push   ecx
 18068fd:	push   ebx
 18068fe:	mov    ebx,DWORD PTR [ebp+0xc]
 1806901:	push   esi
 1806902:	push   edi
 1806903:	mov    DWORD PTR [ebp-0x4],ecx
 1806906:	mov    eax,DWORD PTR [ebx]
 1806908:	lea    edi,[eax+edx*1]
 180690b:	cmp    edi,eax
 180690d:	jb     0x1806971
 180690f:	push   0x2
 1806911:	lea    eax,[edi+0x1]
 1806914:	pop    ecx
 1806915:	mul    ecx
 1806917:	test   edx,edx
 1806919:	jne    0x1806971
 180691b:	cmp    eax,0xffffffff
 180691e:	ja     0x1806971
 1806920:	mov    ecx,DWORD PTR [ebp+0x8]
 1806923:	push   eax
 1806924:	cmp    DWORD PTR [ecx],edx
 1806926:	jne    0x1806938
 1806928:	push   edx
 1806929:	call   DWORD PTR ds:0x1819098
 180692f:	push   eax
 1806930:	call   DWORD PTR ds:0x1819094
 1806936:	jmp    0x1806949
 1806938:	push   DWORD PTR [ecx]
 180693a:	push   0x0
 180693c:	call   DWORD PTR ds:0x1819098
 1806942:	push   eax
 1806943:	call   DWORD PTR ds:0x18190a0
 1806949:	mov    esi,eax
 180694b:	test   esi,esi
 180694d:	jne    0x1806954
 180694f:	push   0x8
 1806951:	pop    eax
 1806952:	jmp    0x1806976
 1806954:	mov    eax,DWORD PTR [ebx]
 1806956:	mov    edx,edi
 1806958:	push   DWORD PTR [ebp-0x4]
 180695b:	sub    edx,eax
 180695d:	inc    edx
 180695e:	lea    ecx,[esi+eax*2]
 1806961:	call   0x180235f
 1806966:	mov    eax,DWORD PTR [ebp+0x8]
 1806969:	mov    DWORD PTR [ebx],edi
 180696b:	mov    DWORD PTR [eax],esi
 180696d:	xor    eax,eax
 180696f:	jmp    0x1806976
 1806971:	mov    eax,0x216
 1806976:	pop    edi
 1806977:	pop    esi
 1806978:	pop    ebx
 1806979:	mov    esp,ebp
 180697b:	pop    ebp
 180697c:	ret    0x8
 180697f:	int3   
 1806980:	int3   
 1806981:	int3   
 1806982:	int3   
 1806983:	int3   
 1806984:	mov    edi,edi
 1806986:	push   ebp
 1806987:	mov    ebp,esp
 1806989:	sub    esp,0x1c
 180698c:	push   ebx
 180698d:	push   esi
 180698e:	mov    eax,edx
 1806990:	mov    ebx,ecx
 1806992:	xor    esi,esi
 1806994:	mov    DWORD PTR [ebp-0x1c],eax
 1806997:	push   edi
 1806998:	mov    DWORD PTR [ebp-0x8],ebx
 180699b:	mov    DWORD PTR [ebp-0x14],esi
 180699e:	mov    DWORD PTR [ebp-0x4],esi
 18069a1:	mov    DWORD PTR [ebp-0x10],esi
 18069a4:	test   eax,eax
 18069a6:	je     0x1806ab1
 18069ac:	mov    eax,ds:0x181375c
 18069b1:	test   eax,eax
 18069b3:	je     0x18069c2
 18069b5:	push   eax
 18069b6:	push   0x18014cc
 18069bb:	call   0x18080b0
 18069c0:	pop    ecx
 18069c1:	pop    ecx
 18069c2:	cmp    WORD PTR ds:0x180b260,0x0
 18069ca:	jne    0x18069d8
 18069cc:	push   0x1814ae0
 18069d1:	call   0x18080b0
 18069d6:	jmp    0x1806a41
 18069d8:	mov    edi,0x1813310
 18069dd:	push   DWORD PTR [edi]
 18069df:	push   0x180b260
 18069e4:	call   DWORD PTR ds:0x181912c
 18069ea:	test   eax,eax
 18069ec:	je     0x18069fc
 18069ee:	add    edi,0x10
 18069f1:	inc    esi
 18069f2:	cmp    edi,0x1813380
 18069f8:	jl     0x18069dd
 18069fa:	jmp    0x1806a31
 18069fc:	shl    esi,0x4
 18069ff:	cmp    DWORD PTR [esi+0x181331c],0x0
 1806a06:	jne    0x1806a31
 1806a08:	push   DWORD PTR [esi+0x1813314]
 1806a0e:	push   DWORD PTR [esi+0x1813318]
 1806a14:	push   0x3ef
 1806a19:	push   DWORD PTR ds:0x1818b08
 1806a1f:	call   0x18080e0
 1806a24:	add    esp,0x10
 1806a27:	mov    DWORD PTR [esi+0x181331c],0x1
 1806a31:	push   0x180b260
 1806a36:	push   0x18014e0
 1806a3b:	call   0x18080b0
 1806a40:	pop    ecx
 1806a41:	pop    ecx
 1806a42:	jmp    0x1806ab1
 1806a44:	mov    eax,DWORD PTR [ebp-0xc]
 1806a47:	cmp    eax,0x1
 1806a4a:	jb     0x1806a54
 1806a4c:	lea    esi,[eax-0x1]
 1806a4f:	lea    esi,[edi+esi*2]
 1806a52:	jmp    0x1806a56
 1806a54:	mov    esi,edi
 1806a56:	cmp    esi,edi
 1806a58:	jbe    0x1806ac6
 1806a5a:	movzx  eax,WORD PTR [esi-0x2]
 1806a5e:	push   0x8
 1806a60:	push   eax
 1806a61:	call   DWORD PTR ds:0x1819180
 1806a67:	pop    ecx
 1806a68:	pop    ecx
 1806a69:	test   eax,eax
 1806a6b:	je     0x1806a79
 1806a6d:	add    esi,0xfffffffe
 1806a70:	xor    eax,eax
 1806a72:	mov    WORD PTR [esi],ax
 1806a75:	cmp    esi,edi
 1806a77:	ja     0x1806a5a
 1806a79:	cmp    esi,edi
 1806a7b:	jbe    0x1806ac3
 1806a7d:	lea    edx,[esi-0x2]
 1806a80:	cmp    WORD PTR [edx],0x5c
 1806a84:	jne    0x1806ac3
 1806a86:	xor    eax,eax
 1806a88:	mov    ecx,edi
 1806a8a:	mov    WORD PTR [edx],ax
 1806a8d:	lea    eax,[ebp-0x10]
 1806a90:	push   eax
 1806a91:	lea    eax,[ebp-0x4]
 1806a94:	sub    edx,edi
 1806a96:	push   eax
 1806a97:	sar    edx,1
 1806a99:	call   0x18068f7
 1806a9e:	push   edi
 1806a9f:	push   0x0
 1806aa1:	call   DWORD PTR ds:0x1819098
 1806aa7:	push   eax
 1806aa8:	call   DWORD PTR ds:0x181909c
 1806aae:	mov    ebx,DWORD PTR [ebp-0x8]
 1806ab1:	mov    edx,ebx
 1806ab3:	lea    ecx,[ebp-0xc]
 1806ab6:	call   0x1807a02
 1806abb:	mov    edi,eax
 1806abd:	test   edi,edi
 1806abf:	jne    0x1806a44
 1806ac1:	jmp    0x1806b36
 1806ac3:	mov    ebx,DWORD PTR [ebp-0x8]
 1806ac6:	lea    eax,[ebp-0x10]
 1806ac9:	sub    esi,edi
 1806acb:	push   eax
 1806acc:	lea    eax,[ebp-0x4]
 1806acf:	sar    esi,1
 1806ad1:	push   eax
 1806ad2:	mov    edx,esi
 1806ad4:	mov    ecx,edi
 1806ad6:	call   0x18068f7
 1806adb:	push   edi
 1806adc:	xor    esi,esi
 1806ade:	push   esi
 1806adf:	call   DWORD PTR ds:0x1819098
 1806ae5:	push   eax
 1806ae6:	call   DWORD PTR ds:0x181909c
 1806aec:	lea    eax,[ebp-0x18]
 1806aef:	push   eax
 1806af0:	push   DWORD PTR [ebp-0x4]
 1806af3:	call   0x1806080
 1806af8:	cmp    DWORD PTR [ebp-0x18],esi
 1806afb:	jne    0x1806b25
 1806afd:	cmp    DWORD PTR ds:0x1813758,esi
 1806b03:	jne    0x1806b25
 1806b05:	test   eax,eax
 1806b07:	je     0x1806b0c
 1806b09:	mov    DWORD PTR [ebp-0x14],eax
 1806b0c:	push   DWORD PTR [ebp-0x4]
 1806b0f:	push   esi
 1806b10:	call   DWORD PTR ds:0x1819098
 1806b16:	push   eax
 1806b17:	call   DWORD PTR ds:0x181909c
 1806b1d:	mov    eax,DWORD PTR [ebp-0x1c]
 1806b20:	jmp    0x180699e
 1806b25:	push   DWORD PTR [ebp-0x4]
 1806b28:	push   esi
 1806b29:	call   DWORD PTR ds:0x1819098
 1806b2f:	push   eax
 1806b30:	call   DWORD PTR ds:0x181909c
 1806b36:	mov    eax,DWORD PTR [ebp-0x14]
 1806b39:	pop    edi
 1806b3a:	pop    esi
 1806b3b:	pop    ebx
 1806b3c:	mov    esp,ebp
 1806b3e:	pop    ebp
 1806b3f:	ret    
 1806b40:	int3   
 1806b41:	int3   
 1806b42:	int3   
 1806b43:	int3   
 1806b44:	int3   
 1806b45:	mov    edi,edi
 1806b47:	push   ebp
 1806b48:	mov    ebp,esp
 1806b4a:	push   ecx
 1806b4b:	mov    eax,ds:0x180f2c0
 1806b50:	push   ebx
 1806b51:	mov    ebx,DWORD PTR ds:0x1813750
 1806b57:	push   esi
 1806b58:	push   edi
 1806b59:	mov    esi,ecx
 1806b5b:	mov    DWORD PTR [ebp-0x4],eax
 1806b5e:	push   0x18014f0
 1806b63:	push   esi
 1806b64:	call   DWORD PTR ds:0x1819178
 1806b6a:	mov    edi,eax
 1806b6c:	pop    ecx
 1806b6d:	pop    ecx
 1806b6e:	test   edi,edi
 1806b70:	jne    0x1806b8b
 1806b72:	push   esi
 1806b73:	push   0x6c
 1806b75:	push   DWORD PTR ds:0x1818b08
 1806b7b:	call   0x18080e0
 1806b80:	add    esp,0xc
 1806b83:	call   DWORD PTR ds:0x1819070
 1806b89:	jmp    0x1806bc4
 1806b8b:	xor    eax,eax
 1806b8d:	xor    edx,edx
 1806b8f:	inc    eax
 1806b90:	mov    ecx,edi
 1806b92:	mov    ds:0x1813750,eax
 1806b97:	mov    ds:0x180f2c0,eax
 1806b9c:	call   0x1806984
 1806ba1:	mov    esi,eax
 1806ba3:	mov    DWORD PTR ds:0x1813750,ebx
 1806ba9:	mov    eax,DWORD PTR [ebp-0x4]
 1806bac:	push   edi
 1806bad:	mov    ds:0x180f2c0,eax
 1806bb2:	call   DWORD PTR ds:0x1819174
 1806bb8:	pop    ecx
 1806bb9:	test   esi,esi
 1806bbb:	je     0x1806bc2
 1806bbd:	mov    esi,0x3aa9
 1806bc2:	mov    eax,esi
 1806bc4:	pop    edi
 1806bc5:	pop    esi
 1806bc6:	pop    ebx
 1806bc7:	mov    esp,ebp
 1806bc9:	pop    ebp
 1806bca:	ret    
 1806bcb:	int3   
 1806bcc:	int3   
 1806bcd:	int3   
 1806bce:	int3   
 1806bcf:	int3   
 1806bd0:	mov    eax,ds:0x1813764
 1806bd5:	push   esi
 1806bd6:	push   edi
 1806bd7:	xor    edi,edi
 1806bd9:	mov    esi,edi
 1806bdb:	test   eax,eax
 1806bdd:	je     0x1806c12
 1806bdf:	push   0x1
 1806be1:	push   edi
 1806be2:	push   eax
 1806be3:	call   DWORD PTR ds:0x181b000
 1806be9:	mov    esi,eax
 1806beb:	test   esi,esi
 1806bed:	je     0x1806bf8
 1806bef:	push   esi
 1806bf0:	push   edi
 1806bf1:	call   0x1807e10
 1806bf6:	pop    ecx
 1806bf7:	pop    ecx
 1806bf8:	push   DWORD PTR ds:0x1813764
 1806bfe:	push   edi
 1806bff:	call   DWORD PTR ds:0x1819098
 1806c05:	push   eax
 1806c06:	call   DWORD PTR ds:0x181909c
 1806c0c:	mov    DWORD PTR ds:0x1813764,edi
 1806c12:	pop    edi
 1806c13:	mov    eax,esi
 1806c15:	pop    esi
 1806c16:	ret    
 1806c17:	int3   
 1806c18:	int3   
 1806c19:	int3   
 1806c1a:	int3   
 1806c1b:	int3   
 1806c1c:	mov    edi,edi
 1806c1e:	push   ebp
 1806c1f:	mov    ebp,esp
 1806c21:	and    esp,0xfffffff8
 1806c24:	sub    esp,0x23c
 1806c2a:	mov    eax,ds:0x180b004
 1806c2f:	xor    eax,esp
 1806c31:	mov    DWORD PTR [esp+0x238],eax
 1806c38:	mov    eax,ds:0x181375c
 1806c3d:	push   ebx
 1806c3e:	push   esi
 1806c3f:	mov    esi,ecx
 1806c41:	mov    ebx,edx
 1806c43:	xor    ecx,ecx
 1806c45:	mov    DWORD PTR [esp+0xc],ecx
 1806c49:	push   edi
 1806c4a:	mov    edi,DWORD PTR [ebp+0x8]
 1806c4d:	mov    DWORD PTR [esp+0x14],edi
 1806c51:	test   eax,eax
 1806c53:	je     0x1806c64
 1806c55:	push   eax
 1806c56:	push   ecx
 1806c57:	call   DWORD PTR ds:0x1819098
 1806c5d:	push   eax
 1806c5e:	call   DWORD PTR ds:0x181909c
 1806c64:	call   0x1806bd0
 1806c69:	test   esi,esi
 1806c6b:	je     0x1806cbc
 1806c6d:	mov    ecx,esi
 1806c6f:	lea    edx,[ecx+0x2]
 1806c72:	mov    ax,WORD PTR [ecx]
 1806c75:	add    ecx,0x2
 1806c78:	cmp    ax,WORD PTR [esp+0x10]
 1806c7d:	jne    0x1806c72
 1806c7f:	sub    ecx,edx
 1806c81:	sar    ecx,1
 1806c83:	lea    eax,[ecx+0x1]
 1806c86:	mov    DWORD PTR [esp+0x10],eax
 1806c8a:	add    eax,eax
 1806c8c:	push   eax
 1806c8d:	xor    eax,eax
 1806c8f:	push   eax
 1806c90:	call   DWORD PTR ds:0x1819098
 1806c96:	push   eax
 1806c97:	call   DWORD PTR ds:0x1819094
 1806c9d:	mov    ds:0x181375c,eax
 1806ca2:	test   eax,eax
 1806ca4:	jne    0x1806cae
 1806ca6:	push   0x8
 1806ca8:	pop    eax
 1806ca9:	jmp    0x1806de3
 1806cae:	mov    edx,DWORD PTR [esp+0x10]
 1806cb2:	mov    ecx,eax
 1806cb4:	push   esi
 1806cb5:	call   0x180235f
 1806cba:	jmp    0x1806cc3
 1806cbc:	xor    eax,eax
 1806cbe:	mov    ds:0x181375c,eax
 1806cc3:	mov    ecx,0x1801358
 1806cc8:	call   0x180552c
 1806ccd:	mov    ecx,DWORD PTR ds:0x181375c
 1806cd3:	test   ecx,ecx
 1806cd5:	je     0x1806ce1
 1806cd7:	push   edi
 1806cd8:	mov    edx,ebx
 1806cda:	call   0x1808ff1
 1806cdf:	jmp    0x1806ce6
 1806ce1:	call   0x1809590
 1806ce6:	mov    esi,eax
 1806ce8:	test   esi,esi
 1806cea:	jns    0x1806d34
 1806cec:	mov    eax,ds:0x181375c
 1806cf1:	test   eax,eax
 1806cf3:	jne    0x1806d13
 1806cf5:	lea    eax,[esp+0x10]
 1806cf9:	mov    DWORD PTR [esp+0x10],0x104
 1806d01:	push   eax
 1806d02:	lea    eax,[esp+0x3c]
 1806d06:	push   eax
 1806d07:	push   0x1
 1806d09:	call   DWORD PTR ds:0x1819150
 1806d0f:	lea    eax,[esp+0x38]
 1806d13:	push   eax
 1806d14:	push   0xb4
 1806d19:	push   DWORD PTR ds:0x1818b08
 1806d1f:	call   0x18080e0
 1806d24:	add    esp,0xc
 1806d27:	push   esi
 1806d28:	xor    esi,esi
 1806d2a:	push   esi
 1806d2b:	call   0x1807e10
 1806d30:	pop    ecx
 1806d31:	pop    ecx
 1806d32:	jmp    0x1806d36
 1806d34:	xor    esi,esi
 1806d36:	mov    eax,ds:0x181375c
 1806d3b:	test   eax,eax
 1806d3d:	je     0x1806de1
 1806d43:	test   ebx,ebx
 1806d45:	jne    0x1806d4f
 1806d47:	test   edi,edi
 1806d49:	je     0x1806de1
 1806d4f:	push   eax
 1806d50:	push   0x18014f4
 1806d55:	lea    eax,[esp+0x40]
 1806d59:	push   0x104
 1806d5e:	push   eax
 1806d5f:	call   0x180507b
 1806d64:	add    esp,0x10
 1806d67:	lea    edi,[esp+0x18]
 1806d6b:	xor    eax,eax
 1806d6d:	push   0x8
 1806d6f:	pop    ecx
 1806d70:	rep stos DWORD PTR es:[edi],eax
 1806d72:	push   0x808
 1806d77:	push   ebx
 1806d78:	push   DWORD PTR [esp+0x1c]
 1806d7c:	lea    eax,[esp+0x44]
 1806d80:	mov    DWORD PTR [esp+0x28],esi
 1806d84:	mov    DWORD PTR [esp+0x38],eax
 1806d88:	lea    eax,[esp+0x24]
 1806d8c:	push   eax
 1806d8d:	mov    DWORD PTR [esp+0x38],esi
 1806d91:	mov    DWORD PTR [esp+0x44],esi
 1806d95:	call   DWORD PTR ds:0x181b004
 1806d9b:	test   eax,eax
 1806d9d:	jne    0x1806dd8
 1806d9f:	push   0x208
 1806da4:	push   esi
 1806da5:	call   DWORD PTR ds:0x1819098
 1806dab:	push   eax
 1806dac:	call   DWORD PTR ds:0x1819094
 1806db2:	mov    ds:0x1813764,eax
 1806db7:	test   eax,eax
 1806db9:	jne    0x1806dc5
 1806dbb:	push   0xe
 1806dbd:	push   esi
 1806dbe:	call   0x18080e0
 1806dc3:	jmp    0x1806ddf
 1806dc5:	lea    ecx,[esp+0x38]
 1806dc9:	mov    edx,0x104
 1806dce:	push   ecx
 1806dcf:	mov    ecx,eax
 1806dd1:	call   0x180235f
 1806dd6:	jmp    0x1806de1
 1806dd8:	push   eax
 1806dd9:	push   esi
 1806dda:	call   0x1807e10
 1806ddf:	pop    ecx
 1806de0:	pop    ecx
 1806de1:	xor    eax,eax
 1806de3:	mov    ecx,DWORD PTR [esp+0x244]
 1806dea:	pop    edi
 1806deb:	pop    esi
 1806dec:	pop    ebx
 1806ded:	xor    ecx,esp
 1806def:	call   0x1809990
 1806df4:	mov    esp,ebp
 1806df6:	pop    ebp
 1806df7:	ret    0x4
 1806dfa:	int3   
 1806dfb:	int3   
 1806dfc:	int3   
 1806dfd:	int3   
 1806dfe:	int3   
 1806dff:	mov    edi,edi
 1806e01:	push   ebp
 1806e02:	mov    ebp,esp
 1806e04:	mov    eax,0x843c
 1806e09:	call   0x180a120
 1806e0e:	mov    eax,ds:0x180b004
 1806e13:	xor    eax,ebp
 1806e15:	mov    DWORD PTR [ebp-0x4],eax
 1806e18:	push   ebx
 1806e19:	push   esi
 1806e1a:	push   edi
 1806e1b:	xor    eax,eax
 1806e1d:	mov    esi,0x3ffc
 1806e22:	push   esi
 1806e23:	push   eax
 1806e24:	mov    DWORD PTR [ebp-0x8424],eax
 1806e2a:	mov    ebx,ecx
 1806e2c:	mov    DWORD PTR [ebp-0x8414],eax
 1806e32:	mov    edi,edx
 1806e34:	lea    eax,[ebp-0x8410]
 1806e3a:	mov    DWORD PTR [ebp-0x8418],ebx
 1806e40:	push   eax
 1806e41:	call   0x180a15c
 1806e46:	xor    eax,eax
 1806e48:	push   esi
 1806e49:	mov    DWORD PTR [ebp-0x4414],eax
 1806e4f:	xor    esi,esi
 1806e51:	lea    eax,[ebp-0x4410]
 1806e57:	push   esi
 1806e58:	push   eax
 1806e59:	call   0x180a15c
 1806e5e:	add    esp,0x18
 1806e61:	mov    DWORD PTR [ebp-0x8430],esi
 1806e67:	mov    DWORD PTR [ebp-0x8428],esi
 1806e6d:	mov    DWORD PTR [ebp-0x843c],esi
 1806e73:	mov    DWORD PTR [ebp-0x8438],esi
 1806e79:	push   esi
 1806e7a:	push   esi
 1806e7b:	push   0x1
 1806e7d:	push   esi
 1806e7e:	mov    DWORD PTR [ebp-0x8434],esi
 1806e84:	mov    DWORD PTR [ebp-0x841c],esi
 1806e8a:	mov    DWORD PTR [ebp-0x8420],esi
 1806e90:	call   DWORD PTR ds:0x1819090
 1806e96:	push   esi
 1806e97:	call   DWORD PTR ds:0x18190c0
 1806e9d:	mov    ds:0x1818b08,eax
 1806ea2:	test   eax,eax
 1806ea4:	jne    0x1806ec0
 1806ea6:	push   0x1801508
 1806eab:	push   0x1801538
 1806eb0:	call   DWORD PTR ds:0x1819170
 1806eb6:	pop    ecx
 1806eb7:	pop    ecx
 1806eb8:	xor    eax,eax
 1806eba:	inc    eax
 1806ebb:	jmp    0x180740c
 1806ec0:	push   0x1801358
 1806ec5:	push   0x1801540
 1806eca:	push   0x2000
 1806ecf:	push   0x1814ae0
 1806ed4:	call   0x180507b
 1806ed9:	add    esp,0x10
 1806edc:	call   0x1801f3a
 1806ee1:	test   eax,eax
 1806ee3:	je     0x1806eec
 1806ee5:	xor    eax,eax
 1806ee7:	jmp    0x180740c
 1806eec:	mov    edx,0x1801548
 1806ef1:	mov    ecx,0x18015f0
 1806ef6:	call   0x1803ac6
 1806efb:	push   0x8
 1806efd:	push   esi
 1806efe:	push   0x1801560
 1806f03:	call   DWORD PTR ds:0x18190b4
 1806f09:	call   0x1803f9c
 1806f0e:	push   0x1
 1806f10:	push   0x18082a0
 1806f15:	call   DWORD PTR ds:0x1819030
 1806f1b:	push   esi
 1806f1c:	call   DWORD PTR ds:0x18190cc
 1806f22:	xor    esi,esi
 1806f24:	inc    esi
 1806f25:	cmp    ebx,esi
 1806f27:	jbe    0x18072c6
 1806f2d:	push   0x2
 1806f2f:	pop    ebx
 1806f30:	push   0x18014a0
 1806f35:	push   DWORD PTR [edi+esi*4]
 1806f38:	call   DWORD PTR ds:0x18191d4
 1806f3e:	pop    ecx
 1806f3f:	pop    ecx
 1806f40:	test   eax,eax
 1806f42:	je     0x180728f
 1806f48:	push   0x18015b0
 1806f4d:	push   DWORD PTR [edi+esi*4]
 1806f50:	call   DWORD PTR ds:0x18191d4
 1806f56:	pop    ecx
 1806f57:	pop    ecx
 1806f58:	test   eax,eax
 1806f5a:	je     0x180728f
 1806f60:	push   0x18011d4
 1806f65:	push   DWORD PTR [edi+esi*4]
 1806f68:	call   DWORD PTR ds:0x18191d4
 1806f6e:	pop    ecx
 1806f6f:	pop    ecx
 1806f70:	test   eax,eax
 1806f72:	je     0x180728f
 1806f78:	push   0x1801498
 1806f7d:	push   DWORD PTR [edi+esi*4]
 1806f80:	call   DWORD PTR ds:0x18191d4
 1806f86:	pop    ecx
 1806f87:	pop    ecx
 1806f88:	test   eax,eax
 1806f8a:	je     0x180728f
 1806f90:	push   0x18015b8
 1806f95:	push   DWORD PTR [edi+esi*4]
 1806f98:	call   DWORD PTR ds:0x18191d4
 1806f9e:	pop    ecx
 1806f9f:	pop    ecx
 1806fa0:	test   eax,eax
 1806fa2:	jne    0x1806fb3
 1806fa4:	mov    DWORD PTR ds:0x1813760,0x1
 1806fae:	jmp    0x1807137
 1806fb3:	push   0x18015c0
 1806fb8:	push   DWORD PTR [edi+esi*4]
 1806fbb:	call   DWORD PTR ds:0x18191d4
 1806fc1:	pop    ecx
 1806fc2:	pop    ecx
 1806fc3:	test   eax,eax
 1806fc5:	jne    0x1806fe6
 1806fc7:	mov    eax,DWORD PTR [ebp-0x8418]
 1806fcd:	cmp    ebx,eax
 1806fcf:	jae    0x180714c
 1806fd5:	mov    ecx,DWORD PTR [edi+esi*4+0x4]
 1806fd9:	inc    esi
 1806fda:	mov    DWORD PTR [ebp-0x843c],ecx
 1806fe0:	inc    ebx
 1806fe1:	jmp    0x180713d
 1806fe6:	push   0x18015c8
 1806feb:	push   DWORD PTR [edi+esi*4]
 1806fee:	call   DWORD PTR ds:0x18191d4
 1806ff4:	pop    ecx
 1806ff5:	pop    ecx
 1806ff6:	test   eax,eax
 1806ff8:	jne    0x180701f
 1806ffa:	cmp    ebx,DWORD PTR [ebp-0x8418]
 1807000:	jae    0x180714c
 1807006:	push   DWORD PTR [edi+esi*4+0x4]
 180700a:	mov    edx,0x2000
 180700f:	lea    ecx,[ebp-0x4414]
 1807015:	call   0x180235f
 180701a:	jmp    0x1807135
 180701f:	push   0x18015d0
 1807024:	push   DWORD PTR [edi+esi*4]
 1807027:	call   DWORD PTR ds:0x18191d4
 180702d:	pop    ecx
 180702e:	pop    ecx
 180702f:	test   eax,eax
 1807031:	jne    0x180705c
 1807033:	mov    eax,DWORD PTR [ebp-0x8418]
 1807039:	cmp    ebx,eax
 180703b:	jae    0x180714c
 1807041:	mov    ecx,DWORD PTR [edi+esi*4+0x4]
 1807045:	inc    esi
 1807046:	mov    DWORD PTR [ebp-0x8438],ecx
 180704c:	inc    ebx
 180704d:	mov    DWORD PTR [ebp-0x8430],0x1
 1807057:	jmp    0x180713d
 180705c:	push   0x18015d8
 1807061:	push   DWORD PTR [edi+esi*4]
 1807064:	call   DWORD PTR ds:0x18191d4
 180706a:	pop    ecx
 180706b:	pop    ecx
 180706c:	test   eax,eax
 180706e:	jne    0x18070ab
 1807070:	cmp    ebx,DWORD PTR [ebp-0x8418]
 1807076:	jae    0x180714c
 180707c:	mov    ecx,DWORD PTR [edi+esi*4+0x4]
 1807080:	lea    edx,[ecx+0x2]
 1807083:	mov    ax,WORD PTR [ecx]
 1807086:	add    ecx,0x2
 1807089:	cmp    ax,WORD PTR [ebp-0x8424]
 1807090:	jne    0x1807083
 1807092:	sub    ecx,edx
 1807094:	sar    ecx,1
 1807096:	je     0x1807135
 180709c:	mov    eax,DWORD PTR [edi+esi*4+0x4]
 18070a0:	mov    DWORD PTR [ebp-0x8434],eax
 18070a6:	jmp    0x1807135
 18070ab:	push   0x18015e0
 18070b0:	push   DWORD PTR [edi+esi*4]
 18070b3:	call   DWORD PTR ds:0x18191d4
 18070b9:	pop    ecx
 18070ba:	pop    ecx
 18070bb:	test   eax,eax
 18070bd:	jne    0x18070f3
 18070bf:	cmp    ebx,DWORD PTR [ebp-0x8418]
 18070c5:	jae    0x180714c
 18070cb:	mov    ecx,DWORD PTR [edi+esi*4+0x4]
 18070cf:	lea    edx,[ecx+0x2]
 18070d2:	mov    ax,WORD PTR [ecx]
 18070d5:	add    ecx,0x2
 18070d8:	cmp    ax,WORD PTR [ebp-0x8424]
 18070df:	jne    0x18070d2
 18070e1:	sub    ecx,edx
 18070e3:	sar    ecx,1
 18070e5:	je     0x1807135
 18070e7:	mov    eax,DWORD PTR [edi+esi*4+0x4]
 18070eb:	mov    DWORD PTR [ebp-0x841c],eax
 18070f1:	jmp    0x1807135
 18070f3:	push   0x18015e8
 18070f8:	push   DWORD PTR [edi+esi*4]
 18070fb:	call   DWORD PTR ds:0x18191d4
 1807101:	pop    ecx
 1807102:	pop    ecx
 1807103:	test   eax,eax
 1807105:	jne    0x1807168
 1807107:	cmp    ebx,DWORD PTR [ebp-0x8418]
 180710d:	jae    0x180714c
 180710f:	mov    ecx,DWORD PTR [edi+esi*4+0x4]
 1807113:	lea    edx,[ecx+0x2]
 1807116:	mov    ax,WORD PTR [ecx]
 1807119:	add    ecx,0x2
 180711c:	cmp    ax,WORD PTR [ebp-0x8424]
 1807123:	jne    0x1807116
 1807125:	sub    ecx,edx
 1807127:	sar    ecx,1
 1807129:	je     0x1807135
 180712b:	mov    eax,DWORD PTR [edi+esi*4+0x4]
 180712f:	mov    DWORD PTR [ebp-0x8420],eax
 1807135:	inc    esi
 1807136:	inc    ebx
 1807137:	mov    eax,DWORD PTR [ebp-0x8418]
 180713d:	inc    esi
 180713e:	inc    ebx
 180713f:	cmp    esi,eax
 1807141:	jb     0x1806f30
 1807147:	jmp    0x18071fa
 180714c:	push   DWORD PTR [edi]
 180714e:	push   0x6e
 1807150:	push   DWORD PTR ds:0x1818b08
 1807156:	call   0x18080e0
 180715b:	add    esp,0xc
 180715e:	mov    esi,0x3a99
 1807163:	jmp    0x1807288
 1807168:	cmp    DWORD PTR [ebp-0x8430],0x0
 180716f:	jne    0x180714c
 1807171:	jmp    0x18071ee
 1807173:	cmp    WORD PTR [ebp-0x8414],0x0
 180717b:	je     0x1807192
 180717d:	push   0x1801240
 1807182:	mov    edx,0x2000
 1807187:	lea    ecx,[ebp-0x8414]
 180718d:	call   0x180319e
 1807192:	mov    ebx,DWORD PTR [edi+esi*4]
 1807195:	xor    eax,eax
 1807197:	cmp    WORD PTR [ebx],ax
 180719a:	je     0x18071b3
 180719c:	push   0x20
 180719e:	push   ebx
 180719f:	call   DWORD PTR ds:0x18191c8
 18071a5:	pop    ecx
 18071a6:	pop    ecx
 18071a7:	test   eax,eax
 18071a9:	jne    0x18071b3
 18071ab:	push   ebx
 18071ac:	mov    edx,0x2000
 18071b1:	jmp    0x18071e2
 18071b3:	push   0x18014ac
 18071b8:	mov    edx,0x2000
 18071bd:	lea    ecx,[ebp-0x8414]
 18071c3:	call   0x180319e
 18071c8:	push   ebx
 18071c9:	mov    ebx,0x2000
 18071ce:	lea    ecx,[ebp-0x8414]
 18071d4:	mov    edx,ebx
 18071d6:	call   0x180319e
 18071db:	push   0x18014ac
 18071e0:	mov    edx,ebx
 18071e2:	lea    ecx,[ebp-0x8414]
 18071e8:	call   0x180319e
 18071ed:	inc    esi
 18071ee:	cmp    esi,DWORD PTR [ebp-0x8418]
 18071f4:	jb     0x1807173
 18071fa:	mov    esi,DWORD PTR [ebp-0x8434]
 1807200:	test   esi,esi
 1807202:	je     0x18072c6
 1807208:	mov    ebx,DWORD PTR [ebp-0x8420]
 180720e:	test   ebx,ebx
 1807210:	je     0x1807266
 1807212:	push   0x18011d8
 1807217:	push   ebx
 1807218:	call   DWORD PTR ds:0x18191d4
 180721e:	pop    ecx
 180721f:	pop    ecx
 1807220:	test   eax,eax
 1807222:	jne    0x1807266
 1807224:	push   esi
 1807225:	push   0xa9
 180722a:	push   DWORD PTR ds:0x1818b08
 1807230:	xor    ebx,ebx
 1807232:	mov    DWORD PTR [ebp-0x8420],ebx
 1807238:	call   0x18080e0
 180723d:	add    esp,0xc
 1807240:	lea    eax,[ebp-0x8420]
 1807246:	lea    ecx,[ebp-0x20c]
 180724c:	push   eax
 180724d:	call   0x1807909
 1807252:	test   eax,eax
 1807254:	je     0x1807260
 1807256:	mov    esi,0x3a99
 180725b:	jmp    0x18073d3
 1807260:	lea    ebx,[ebp-0x20c]
 1807266:	mov    edx,DWORD PTR [ebp-0x841c]
 180726c:	mov    ecx,esi
 180726e:	push   ebx
 180726f:	call   0x1806c1c
 1807274:	mov    esi,eax
 1807276:	test   esi,esi
 1807278:	je     0x18072c6
 180727a:	push   esi
 180727b:	push   DWORD PTR ds:0x1818b08
 1807281:	call   0x18080e0
 1807286:	pop    ecx
 1807287:	pop    ecx
 1807288:	xor    ebx,ebx
 180728a:	jmp    0x18073d3
 180728f:	call   0x1809590
 1807294:	push   DWORD PTR [edi]
 1807296:	push   0x6e
 1807298:	push   DWORD PTR ds:0x1818b08
 180729e:	call   0x18080e0
 18072a3:	add    esp,0xc
 18072a6:	lea    eax,[ebp-0x8428]
 18072ac:	push   eax
 18072ad:	push   0x18011d4
 18072b2:	call   0x1806080
 18072b7:	call   0x180413f
 18072bc:	call   0x18041c6
 18072c1:	jmp    0x1806eb8
 18072c6:	cmp    DWORD PTR ds:0x181375c,0x0
 18072cd:	jne    0x180732e
 18072cf:	call   0x1809590
 18072d4:	mov    esi,eax
 18072d6:	test   esi,esi
 18072d8:	jns    0x180732e
 18072da:	mov    ecx,DWORD PTR ds:0x181375c
 18072e0:	test   ecx,ecx
 18072e2:	je     0x18072e7
 18072e4:	push   ecx
 18072e5:	jmp    0x180730e
 18072e7:	lea    eax,[ebp-0x841c]
 18072ed:	mov    DWORD PTR [ebp-0x841c],0x104
 18072f7:	push   eax
 18072f8:	lea    eax,[ebp-0x414]
 18072fe:	push   eax
 18072ff:	push   0x1
 1807301:	call   DWORD PTR ds:0x1819150
 1807307:	lea    eax,[ebp-0x414]
 180730d:	push   eax
 180730e:	push   0xb4
 1807313:	push   DWORD PTR ds:0x1818b08
 1807319:	call   0x18080e0
 180731e:	add    esp,0xc
 1807321:	xor    ebx,ebx
 1807323:	push   esi
 1807324:	push   ebx
 1807325:	call   0x1807e10
 180732a:	pop    ecx
 180732b:	pop    ecx
 180732c:	jmp    0x1807330
 180732e:	xor    ebx,ebx
 1807330:	mov    eax,DWORD PTR [ebp-0x843c]
 1807336:	test   eax,eax
 1807338:	je     0x180734b
 180733a:	mov    ecx,eax
 180733c:	call   0x1806b45
 1807341:	mov    esi,eax
 1807343:	test   esi,esi
 1807345:	jne    0x18073d3
 180734b:	xor    edi,edi
 180734d:	inc    edi
 180734e:	cmp    WORD PTR [ebp-0x4414],0x0
 1807356:	je     0x180737d
 1807358:	lea    eax,[ebp-0x8428]
 180735e:	mov    DWORD PTR ds:0x1813750,edi
 1807364:	push   eax
 1807365:	lea    eax,[ebp-0x4414]
 180736b:	push   eax
 180736c:	call   0x1806080
 1807371:	mov    esi,eax
 1807373:	mov    DWORD PTR ds:0x1813750,ebx
 1807379:	test   esi,esi
 180737b:	jne    0x18073d3
 180737d:	cmp    WORD PTR [ebp-0x8414],0x0
 1807385:	je     0x18073a2
 1807387:	lea    eax,[ebp-0x8428]
 180738d:	mov    DWORD PTR ds:0x180f2c0,ebx
 1807393:	push   eax
 1807394:	lea    eax,[ebp-0x8414]
 180739a:	push   eax
 180739b:	call   0x1806080
 18073a0:	jmp    0x18073d1
 18073a2:	mov    eax,DWORD PTR [ebp-0x8438]
 18073a8:	mov    DWORD PTR ds:0x1813750,edi
 18073ae:	test   eax,eax
 18073b0:	je     0x18073bb
 18073b2:	mov    ecx,eax
 18073b4:	call   0x1806b45
 18073b9:	jmp    0x18073d1
 18073bb:	push   ebx
 18073bc:	mov    DWORD PTR ds:0x180f2c0,ebx
 18073c2:	call   0x180a011
 18073c7:	pop    ecx
 18073c8:	mov    edx,edi
 18073ca:	mov    ecx,eax
 18073cc:	call   0x1806984
 18073d1:	mov    esi,eax
 18073d3:	call   0x1806bd0
 18073d8:	call   0x180413f
 18073dd:	call   0x18041c6
 18073e2:	call   0x18022f9
 18073e7:	mov    eax,ds:0x181375c
 18073ec:	test   eax,eax
 18073ee:	je     0x1807405
 18073f0:	push   eax
 18073f1:	push   ebx
 18073f2:	call   DWORD PTR ds:0x1819098
 18073f8:	push   eax
 18073f9:	call   DWORD PTR ds:0x181909c
 18073ff:	mov    DWORD PTR ds:0x181375c,ebx
 1807405:	xor    eax,eax
 1807407:	test   esi,esi
 1807409:	setne  al
 180740c:	mov    ecx,DWORD PTR [ebp-0x4]
 180740f:	pop    edi
 1807410:	pop    esi
 1807411:	xor    ecx,ebp
 1807413:	pop    ebx
 1807414:	call   0x1809990
 1807419:	mov    esp,ebp
 180741b:	pop    ebp
 180741c:	ret    
 180741d:	int3   
 180741e:	int3   
 180741f:	int3   
 1807420:	int3   
 1807421:	int3   
 1807422:	mov    edi,edi
 1807424:	push   ebp
 1807425:	mov    ebp,esp
 1807427:	mov    edx,DWORD PTR [ebp+0xc]
 180742a:	mov    ecx,DWORD PTR [ebp+0x8]
 180742d:	pop    ebp
 180742e:	jmp    0x1806dff
 1807433:	int3   
 1807434:	int3   
 1807435:	int3   
 1807436:	int3   
 1807437:	int3   
 1807438:	mov    edi,edi
 180743a:	push   ebp
 180743b:	mov    ebp,esp
 180743d:	push   ecx
 180743e:	push   ecx
 180743f:	push   ebx
 1807440:	mov    ebx,ecx
 1807442:	lea    edx,[ebp-0x4]
 1807445:	lea    ecx,[ebp-0x8]
 1807448:	call   0x1804f1b
 180744d:	test   eax,eax
 180744f:	je     0x1807455
 1807451:	xor    eax,eax
 1807453:	jmp    0x18074cd
 1807455:	push   esi
 1807456:	xor    esi,esi
 1807458:	push   edi
 1807459:	mov    edi,esi
 180745b:	xor    al,al
 180745d:	jne    0x1807472
 180745f:	push   DWORD PTR [edi+0x180b010]
 1807465:	push   ebx
 1807466:	call   DWORD PTR ds:0x18191d4
 180746c:	pop    ecx
 180746d:	pop    ecx
 180746e:	test   eax,eax
 1807470:	je     0x18074d2
 1807472:	add    edi,0x18
 1807475:	cmp    edi,0x138
 180747b:	jb     0x180745b
 180747d:	mov    edi,esi
 180747f:	xor    al,al
 1807481:	jne    0x1807496
 1807483:	push   DWORD PTR [edi+0x180f260]
 1807489:	push   ebx
 180748a:	call   DWORD PTR ds:0x18191d4
 1807490:	pop    ecx
 1807491:	pop    ecx
 1807492:	test   eax,eax
 1807494:	je     0x18074d2
 1807496:	add    edi,0x18
 1807499:	cmp    edi,0x60
 180749c:	jb     0x180747f
 180749e:	mov    edi,DWORD PTR [ebp-0x4]
 18074a1:	cmp    DWORD PTR [edi+0x38],esi
 18074a4:	jbe    0x18074c9
 18074a6:	mov    eax,DWORD PTR [edi+0x40]
 18074a9:	imul   eax,esi
 18074ac:	add    eax,DWORD PTR [edi+0x3c]
 18074af:	xor    cl,cl
 18074b1:	jne    0x18074c3
 18074b3:	push   DWORD PTR [eax+0x8]
 18074b6:	push   ebx
 18074b7:	call   DWORD PTR ds:0x18191d4
 18074bd:	pop    ecx
 18074be:	pop    ecx
 18074bf:	test   eax,eax
 18074c1:	je     0x18074d2
 18074c3:	inc    esi
 18074c4:	cmp    esi,DWORD PTR [edi+0x38]
 18074c7:	jb     0x18074a6
 18074c9:	xor    eax,eax
 18074cb:	pop    edi
 18074cc:	pop    esi
 18074cd:	pop    ebx
 18074ce:	mov    esp,ebp
 18074d0:	pop    ebp
 18074d1:	ret    
 18074d2:	xor    eax,eax
 18074d4:	inc    eax
 18074d5:	jmp    0x18074cb
 18074d7:	int3   
 18074d8:	int3   
 18074d9:	int3   
 18074da:	int3   
 18074db:	int3   
 18074dc:	mov    edi,edi
 18074de:	push   ebp
 18074df:	mov    ebp,esp
 18074e1:	mov    eax,ecx
 18074e3:	xor    ecx,ecx
 18074e5:	mul    edx
 18074e7:	push   esi
 18074e8:	mov    esi,eax
 18074ea:	cmp    edx,ecx
 18074ec:	ja     0x18074fc
 18074ee:	jb     0x18074f5
 18074f0:	cmp    esi,0xffffffff
 18074f3:	ja     0x18074fc
 18074f5:	mov    eax,DWORD PTR [ebp+0x8]
 18074f8:	mov    DWORD PTR [eax],esi
 18074fa:	jmp    0x1807507
 18074fc:	mov    eax,DWORD PTR [ebp+0x8]
 18074ff:	mov    ecx,0x80070216
 1807504:	or     DWORD PTR [eax],0xffffffff
 1807507:	mov    eax,ecx
 1807509:	pop    esi
 180750a:	pop    ebp
 180750b:	ret    0x4
 180750e:	int3   
 180750f:	int3   
 1807510:	int3   
 1807511:	int3   
 1807512:	int3   
 1807513:	int3   
 1807514:	int3   
 1807515:	int3   
 1807516:	int3   
 1807517:	int3   
 1807518:	int3   
 1807519:	int3   
 180751a:	int3   
 180751b:	int3   
 180751c:	int3   
 180751d:	int3   
 180751e:	int3   
 180751f:	int3   
 1807520:	mov    edi,edi
 1807522:	push   ebp
 1807523:	mov    ebp,esp
 1807525:	sub    esp,0x20c
 180752b:	mov    eax,ds:0x180b004
 1807530:	xor    eax,ebp
 1807532:	mov    DWORD PTR [ebp-0x4],eax
 1807535:	push   ebx
 1807536:	mov    ebx,DWORD PTR [ebp+0x8]
 1807539:	xor    eax,eax
 180753b:	mov    DWORD PTR [ebp-0x20c],eax
 1807541:	push   esi
 1807542:	mov    esi,eax
 1807544:	push   edi
 1807545:	mov    edi,DWORD PTR [ebp+0x14]
 1807548:	test   ebx,ebx
 180754a:	je     0x18075ff
 1807550:	mov    edx,DWORD PTR [ebp+0x10]
 1807553:	test   edx,edx
 1807555:	je     0x18075ff
 180755b:	test   edi,edi
 180755d:	je     0x18075ff
 1807563:	mov    ecx,edx
 1807565:	mov    DWORD PTR [edi],eax
 1807567:	lea    eax,[ecx+0x2]
 180756a:	mov    DWORD PTR [ebp-0x208],eax
 1807570:	mov    ax,WORD PTR [ecx]
 1807573:	add    ecx,0x2
 1807576:	cmp    ax,WORD PTR [ebp-0x20c]
 180757d:	jne    0x1807570
 180757f:	sub    ecx,DWORD PTR [ebp-0x208]
 1807585:	sar    ecx,1
 1807587:	lea    eax,[ecx+0x1]
 180758a:	mov    ecx,0x100
 180758f:	cmp    eax,ecx
 1807591:	ja     0x18075ff
 1807593:	push   edx
 1807594:	mov    edx,ecx
 1807596:	lea    ecx,[ebp-0x204]
 180759c:	call   0x180235f
 18075a1:	lea    eax,[ebp-0x204]
 18075a7:	jmp    0x18075e4
 18075a9:	cmp    esi,DWORD PTR [ebp+0xc]
 18075ac:	jae    0x18075ff
 18075ae:	mov    ecx,DWORD PTR [ebx+esi*4]
 18075b1:	lea    eax,[ecx+0x2]
 18075b4:	mov    DWORD PTR [ebp-0x208],eax
 18075ba:	mov    ax,WORD PTR [ecx]
 18075bd:	add    ecx,0x2
 18075c0:	cmp    ax,WORD PTR [ebp-0x20c]
 18075c7:	jne    0x18075ba
 18075c9:	sub    ecx,DWORD PTR [ebp-0x208]
 18075cf:	sar    ecx,1
 18075d1:	push   ecx
 18075d2:	push   edx
 18075d3:	push   DWORD PTR [ebx+esi*4]
 18075d6:	call   DWORD PTR ds:0x181918c
 18075dc:	add    esp,0xc
 18075df:	test   eax,eax
 18075e1:	jne    0x18075ff
 18075e3:	inc    esi
 18075e4:	push   0x1801240
 18075e9:	push   eax
 18075ea:	call   DWORD PTR ds:0x18191b0
 18075f0:	mov    edx,eax
 18075f2:	pop    ecx
 18075f3:	pop    ecx
 18075f4:	test   edx,edx
 18075f6:	jne    0x18075a9
 18075f8:	xor    eax,eax
 18075fa:	mov    DWORD PTR [edi],esi
 18075fc:	inc    eax
 18075fd:	jmp    0x1807601
 18075ff:	xor    eax,eax
 1807601:	mov    ecx,DWORD PTR [ebp-0x4]
 1807604:	pop    edi
 1807605:	pop    esi
 1807606:	xor    ecx,ebp
 1807608:	pop    ebx
 1807609:	call   0x1809990
 180760e:	mov    esp,ebp
 1807610:	pop    ebp
 1807611:	ret    0x10
 1807614:	int3   
 1807615:	int3   
 1807616:	int3   
 1807617:	int3   
 1807618:	int3   
 1807619:	int3   
 180761a:	int3   
 180761b:	int3   
 180761c:	int3   
 180761d:	int3   
 180761e:	int3   
 180761f:	int3   
 1807620:	mov    edi,edi
 1807622:	push   ebp
 1807623:	mov    ebp,esp
 1807625:	push   ebx
 1807626:	mov    ebx,DWORD PTR [ebp+0x18]
 1807629:	push   esi
 180762a:	push   edi
 180762b:	test   ebx,ebx
 180762d:	je     0x1807663
 180762f:	mov    edi,DWORD PTR [ebp+0x14]
 1807632:	test   edi,edi
 1807634:	je     0x1807663
 1807636:	xor    esi,esi
 1807638:	cmp    DWORD PTR [ebp+0x10],esi
 180763b:	jbe    0x1807652
 180763d:	push   DWORD PTR [edi+esi*8]
 1807640:	push   DWORD PTR [ebp+0xc]
 1807643:	call   0x18078c0
 1807648:	test   eax,eax
 180764a:	jne    0x1807659
 180764c:	inc    esi
 180764d:	cmp    esi,DWORD PTR [ebp+0x10]
 1807650:	jb     0x180763d
 1807652:	mov    eax,0x490
 1807657:	jmp    0x1807666
 1807659:	mov    eax,DWORD PTR [edi+esi*8+0x4]
 180765d:	mov    DWORD PTR [ebx],eax
 180765f:	xor    eax,eax
 1807661:	jmp    0x1807666
 1807663:	push   0x57
 1807665:	pop    eax
 1807666:	pop    edi
 1807667:	pop    esi
 1807668:	pop    ebx
 1807669:	pop    ebp
 180766a:	ret    0x14
 180766d:	int3   
 180766e:	int3   
 180766f:	int3   
 1807670:	int3   
 1807671:	int3   
 1807672:	int3   
 1807673:	int3   
 1807674:	int3   
 1807675:	int3   
 1807676:	int3   
 1807677:	int3   
 1807678:	int3   
 1807679:	int3   
 180767a:	int3   
 180767b:	int3   
 180767c:	int3   
 180767d:	int3   
 180767e:	int3   
 180767f:	int3   
 1807680:	mov    edi,edi
 1807682:	push   ebp
 1807683:	mov    ebp,esp
 1807685:	sub    esp,0x20
 1807688:	push   ebx
 1807689:	mov    ebx,DWORD PTR [ebp+0x10]
 180768c:	push   esi
 180768d:	push   edi
 180768e:	mov    edi,DWORD PTR [ebp+0x14]
 1807691:	xor    esi,esi
 1807693:	mov    DWORD PTR [ebp-0xc],ebx
 1807696:	mov    DWORD PTR [ebp-0x18],esi
 1807699:	cmp    ebx,edi
 180769b:	jae    0x1807828
 18076a1:	mov    esi,DWORD PTR [ebp+0x20]
 18076a4:	mov    DWORD PTR [ebp-0x4],esi
 18076a7:	mov    eax,DWORD PTR [ebp+0xc]
 18076aa:	push   0x18014a8
 18076af:	push   DWORD PTR [eax+ebx*4]
 18076b2:	call   DWORD PTR ds:0x1819190
 18076b8:	pop    ecx
 18076b9:	pop    ecx
 18076ba:	test   eax,eax
 18076bc:	jne    0x18076c9
 18076be:	mov    DWORD PTR [esi],0xfffffffe
 18076c4:	jmp    0x1807814
 18076c9:	mov    eax,DWORD PTR [ebp+0xc]
 18076cc:	xor    edx,edx
 18076ce:	mov    esi,DWORD PTR [eax+ebx*4]
 18076d1:	lea    ecx,[esi+0x2]
 18076d4:	mov    ax,WORD PTR [esi]
 18076d7:	add    esi,0x2
 18076da:	cmp    ax,dx
 18076dd:	jne    0x18076d4
 18076df:	sub    esi,ecx
 18076e1:	sar    esi,1
 18076e3:	jne    0x18076f0
 18076e5:	mov    esi,DWORD PTR [ebp-0x4]
 18076e8:	or     DWORD PTR [esi],0xffffffff
 18076eb:	jmp    0x1807814
 18076f0:	lea    eax,[esi*2+0x2]
 18076f7:	push   eax
 18076f8:	push   edx
 18076f9:	call   DWORD PTR ds:0x1819098
 18076ff:	push   eax
 1807700:	call   DWORD PTR ds:0x1819094
 1807706:	mov    ebx,eax
 1807708:	test   ebx,ebx
 180770a:	je     0x1807895
 1807710:	mov    eax,DWORD PTR [ebp+0xc]
 1807713:	lea    ecx,[esi+0x1]
 1807716:	mov    esi,DWORD PTR [ebp-0xc]
 1807719:	mov    DWORD PTR [ebp-0x20],ecx
 180771c:	push   DWORD PTR [eax+esi*4]
 180771f:	push   ecx
 1807720:	push   ebx
 1807721:	call   DWORD PTR ds:0x18191b4
 1807727:	push   0x18014a8
 180772c:	push   ebx
 180772d:	call   DWORD PTR ds:0x18191b0
 1807733:	mov    edx,ebx
 1807735:	mov    DWORD PTR [ebp-0x10],eax
 1807738:	add    esp,0x14
 180773b:	lea    eax,[edx+0x2]
 180773e:	mov    cx,WORD PTR [edx]
 1807741:	add    edx,0x2
 1807744:	cmp    cx,WORD PTR [ebp-0x18]
 1807748:	jne    0x180773e
 180774a:	sub    edx,eax
 180774c:	lea    eax,[ebx+0x2]
 180774f:	sar    edx,1
 1807751:	lea    eax,[eax+edx*2]
 1807754:	mov    DWORD PTR [ebp-0x1c],eax
 1807757:	mov    eax,DWORD PTR [ebp-0x4]
 180775a:	or     DWORD PTR [eax],0xffffffff
 180775d:	xor    eax,eax
 180775f:	mov    DWORD PTR [ebp-0x8],eax
 1807762:	cmp    DWORD PTR [ebp+0x1c],eax
 1807765:	jbe    0x1807790
 1807767:	mov    ecx,DWORD PTR [ebp+0x18]
 180776a:	mov    DWORD PTR [ebp-0x14],ecx
 180776d:	push   DWORD PTR [ecx]
 180776f:	push   DWORD PTR [ebp-0x10]
 1807772:	call   0x18078c0
 1807777:	test   eax,eax
 1807779:	jne    0x18077bd
 180777b:	mov    eax,DWORD PTR [ebp-0x8]
 180777e:	mov    ecx,DWORD PTR [ebp-0x14]
 1807781:	inc    eax
 1807782:	add    ecx,0xc
 1807785:	mov    DWORD PTR [ebp-0x8],eax
 1807788:	mov    DWORD PTR [ebp-0x14],ecx
 180778b:	cmp    eax,DWORD PTR [ebp+0x1c]
 180778e:	jb     0x180776d
 1807790:	push   DWORD PTR [ebp-0x10]
 1807793:	mov    esi,0x3aa1
 1807798:	push   esi
 1807799:	push   DWORD PTR ds:0x1818b08
 180779f:	call   0x18080e0
 18077a4:	add    esp,0xc
 18077a7:	xor    eax,eax
 18077a9:	push   ebx
 18077aa:	push   eax
 18077ab:	call   DWORD PTR ds:0x1819098
 18077b1:	push   eax
 18077b2:	call   DWORD PTR ds:0x181909c
 18077b8:	jmp    0x1807891
 18077bd:	mov    ecx,DWORD PTR [ebp-0x8]
 18077c0:	mov    eax,DWORD PTR [ebp+0x18]
 18077c3:	imul   edx,ecx,0xc
 18077c6:	cmp    DWORD PTR [edx+eax*1+0x8],0x0
 18077cb:	je     0x18077d8
 18077cd:	test   BYTE PTR [edx+eax*1+0x4],0x2
 18077d2:	je     0x1807869
 18077d8:	mov    eax,DWORD PTR [ebp-0x4]
 18077db:	push   DWORD PTR [ebp-0x1c]
 18077de:	push   DWORD PTR [ebp-0x20]
 18077e1:	mov    DWORD PTR [eax],ecx
 18077e3:	mov    eax,DWORD PTR [ebp+0x18]
 18077e6:	mov    DWORD PTR [edx+eax*1+0x8],0x1
 18077ee:	mov    eax,DWORD PTR [ebp+0xc]
 18077f1:	push   DWORD PTR [eax+esi*4]
 18077f4:	call   DWORD PTR ds:0x18191b4
 18077fa:	add    esp,0xc
 18077fd:	xor    eax,eax
 18077ff:	push   ebx
 1807800:	push   eax
 1807801:	call   DWORD PTR ds:0x1819098
 1807807:	push   eax
 1807808:	call   DWORD PTR ds:0x181909c
 180780e:	mov    ebx,DWORD PTR [ebp-0xc]
 1807811:	mov    esi,DWORD PTR [ebp-0x4]
 1807814:	inc    ebx
 1807815:	add    esi,0x4
 1807818:	mov    DWORD PTR [ebp-0xc],ebx
 180781b:	mov    DWORD PTR [ebp-0x4],esi
 180781e:	cmp    ebx,edi
 1807820:	jb     0x18076a7
 1807826:	xor    esi,esi
 1807828:	cmp    DWORD PTR [ebp+0x10],edi
 180782b:	jae    0x180785e
 180782d:	sub    edi,DWORD PTR [ebp+0x10]
 1807830:	mov    edx,DWORD PTR [ebp+0x20]
 1807833:	cmp    DWORD PTR [edx],0xfffffffe
 1807836:	jne    0x1807856
 1807838:	cmp    DWORD PTR [ebp+0x1c],0x0
 180783c:	mov    eax,esi
 180783e:	jbe    0x1807853
 1807840:	mov    ebx,DWORD PTR [ebp+0x18]
 1807843:	lea    ecx,[ebx+0x8]
 1807846:	cmp    DWORD PTR [ecx],esi
 1807848:	je     0x18078a9
 180784a:	inc    eax
 180784b:	add    ecx,0xc
 180784e:	cmp    eax,DWORD PTR [ebp+0x1c]
 1807851:	jb     0x1807846
 1807853:	or     DWORD PTR [edx],0xffffffff
 1807856:	add    edx,0x4
 1807859:	sub    edi,0x1
 180785c:	jne    0x1807833
 180785e:	xor    eax,eax
 1807860:	pop    edi
 1807861:	pop    esi
 1807862:	pop    ebx
 1807863:	mov    esp,ebp
 1807865:	pop    ebp
 1807866:	ret    0x1c
 1807869:	push   ebx
 180786a:	xor    eax,eax
 180786c:	push   eax
 180786d:	call   DWORD PTR ds:0x1819098
 1807873:	push   eax
 1807874:	call   DWORD PTR ds:0x181909c
 180787a:	push   DWORD PTR [ebp-0x10]
 180787d:	mov    esi,0x3aa0
 1807882:	push   esi
 1807883:	push   DWORD PTR ds:0x1818b08
 1807889:	call   0x18080e0
 180788e:	add    esp,0xc
 1807891:	mov    eax,esi
 1807893:	jmp    0x1807860
 1807895:	push   0x68
 1807897:	push   DWORD PTR ds:0x1818b08
 180789d:	call   0x18080e0
 18078a2:	pop    ecx
 18078a3:	pop    ecx
 18078a4:	push   0x8
 18078a6:	pop    eax
 18078a7:	jmp    0x1807860
 18078a9:	mov    DWORD PTR [edx],eax
 18078ab:	imul   eax,eax,0xc
 18078ae:	mov    DWORD PTR [eax+ebx*1+0x8],0x1
 18078b6:	jmp    0x1807856
 18078b8:	int3   
 18078b9:	int3   
 18078ba:	int3   
 18078bb:	int3   
 18078bc:	int3   
 18078bd:	int3   
 18078be:	int3   
 18078bf:	int3   
 18078c0:	mov    edi,edi
 18078c2:	push   ebp
 18078c3:	mov    ebp,esp
 18078c5:	mov    edx,DWORD PTR [ebp+0x8]
 18078c8:	test   edx,edx
 18078ca:	je     0x18078fd
 18078cc:	cmp    DWORD PTR [ebp+0xc],0x0
 18078d0:	je     0x18078fd
 18078d2:	mov    ecx,edx
 18078d4:	push   esi
 18078d5:	lea    esi,[ecx+0x2]
 18078d8:	mov    ax,WORD PTR [ecx]
 18078db:	add    ecx,0x2
 18078de:	test   ax,ax
 18078e1:	jne    0x18078d8
 18078e3:	sub    ecx,esi
 18078e5:	sar    ecx,1
 18078e7:	push   ecx
 18078e8:	push   DWORD PTR [ebp+0xc]
 18078eb:	push   edx
 18078ec:	call   DWORD PTR ds:0x181918c
 18078f2:	add    esp,0xc
 18078f5:	neg    eax
 18078f7:	sbb    eax,eax
 18078f9:	inc    eax
 18078fa:	pop    esi
 18078fb:	jmp    0x1807900
 18078fd:	push   0x57
 18078ff:	pop    eax
 1807900:	pop    ebp
 1807901:	ret    0x8
 1807904:	int3   
 1807905:	int3   
 1807906:	int3   
 1807907:	int3   
 1807908:	int3   
 1807909:	mov    edi,edi
 180790b:	push   ebp
 180790c:	mov    ebp,esp
 180790e:	sub    esp,0xc
 1807911:	lea    eax,[ebp-0x8]
 1807914:	push   ebx
 1807915:	push   esi
 1807916:	push   edi
 1807917:	mov    edi,DWORD PTR [ebp+0x8]
 180791a:	mov    ebx,ecx
 180791c:	push   eax
 180791d:	push   0xfffffff6
 180791f:	mov    esi,ebx
 1807921:	and    DWORD PTR [edi],0x0
 1807924:	call   DWORD PTR ds:0x18190d8
 180792a:	push   eax
 180792b:	call   DWORD PTR ds:0x1819024
 1807931:	test   eax,eax
 1807933:	jne    0x180793d
 1807935:	push   0x1f
 1807937:	pop    eax
 1807938:	mov    DWORD PTR [ebp-0x8],eax
 180793b:	jmp    0x1807940
 180793d:	mov    eax,DWORD PTR [ebp-0x8]
 1807940:	and    eax,0xfffffff9
 1807943:	push   eax
 1807944:	push   0xfffffff6
 1807946:	call   DWORD PTR ds:0x18190d8
 180794c:	push   eax
 180794d:	call   DWORD PTR ds:0x1819028
 1807953:	push   0x0
 1807955:	lea    eax,[ebp-0xc]
 1807958:	push   eax
 1807959:	push   0x1
 180795b:	lea    eax,[ebp-0x4]
 180795e:	push   eax
 180795f:	push   0xfffffff6
 1807961:	call   DWORD PTR ds:0x18190d8
 1807967:	push   eax
 1807968:	call   DWORD PTR ds:0x181902c
 180796e:	test   eax,eax
 1807970:	je     0x1807983
 1807972:	cmp    DWORD PTR [ebp-0xc],0x1
 1807976:	jne    0x1807983
 1807978:	mov    ax,WORD PTR [ebp-0x4]
 180797c:	mov    ecx,0xffff
 1807981:	jmp    0x180798e
 1807983:	mov    ecx,0xffff
 1807988:	mov    eax,ecx
 180798a:	mov    WORD PTR [ebp-0x4],ax
 180798e:	cmp    ax,0xd
 1807992:	je     0x18079be
 1807994:	cmp    ax,cx
 1807997:	je     0x18079be
 1807999:	cmp    ax,0x8
 180799d:	jne    0x18079aa
 180799f:	cmp    esi,ebx
 18079a1:	je     0x1807953
 18079a3:	sub    esi,0x2
 18079a6:	dec    DWORD PTR [edi]
 18079a8:	jmp    0x1807953
 18079aa:	mov    WORD PTR [esi],ax
 18079ad:	mov    eax,DWORD PTR [edi]
 18079af:	cmp    eax,0x103
 18079b4:	jae    0x18079b9
 18079b6:	add    esi,0x2
 18079b9:	inc    eax
 18079ba:	mov    DWORD PTR [edi],eax
 18079bc:	jmp    0x1807953
 18079be:	push   DWORD PTR [ebp-0x8]
 18079c1:	push   0xfffffff6
 18079c3:	call   DWORD PTR ds:0x18190d8
 18079c9:	push   eax
 18079ca:	call   DWORD PTR ds:0x1819028
 18079d0:	xor    eax,eax
 18079d2:	push   0x1
 18079d4:	mov    WORD PTR [esi],ax
 18079d7:	call   0x180a011
 18079dc:	push   eax
 18079dd:	push   0xa
 18079df:	call   DWORD PTR ds:0x1819194
 18079e5:	add    esp,0xc
 18079e8:	mov    eax,0x103
 18079ed:	cmp    eax,DWORD PTR [edi]
 18079ef:	sbb    eax,eax
 18079f1:	pop    edi
 18079f2:	pop    esi
 18079f3:	and    eax,0x7a
 18079f6:	pop    ebx
 18079f7:	mov    esp,ebp
 18079f9:	pop    ebp
 18079fa:	ret    0x4
 18079fd:	int3   
 18079fe:	int3   
 18079ff:	int3   
 1807a00:	int3   
 1807a01:	int3   
 1807a02:	mov    edi,edi
 1807a04:	push   ebp
 1807a05:	mov    ebp,esp
 1807a07:	mov    eax,0x200c
 1807a0c:	call   0x180a120
 1807a11:	mov    eax,ds:0x180b004
 1807a16:	xor    eax,ebp
 1807a18:	mov    DWORD PTR [ebp-0x4],eax
 1807a1b:	push   ebx
 1807a1c:	push   esi
 1807a1d:	push   0x1
 1807a1f:	mov    esi,edx
 1807a21:	mov    ebx,ecx
 1807a23:	call   0x180a011
 1807a28:	push   eax
 1807a29:	call   DWORD PTR ds:0x18191a0
 1807a2f:	push   esi
 1807a30:	lea    eax,[ebp-0x2004]
 1807a36:	push   0x2000
 1807a3b:	push   eax
 1807a3c:	call   DWORD PTR ds:0x18191d8
 1807a42:	add    esp,0x14
 1807a45:	test   eax,eax
 1807a47:	je     0x1807b4e
 1807a4d:	push   edi
 1807a4e:	xor    edi,edi
 1807a50:	lea    eax,[ebp-0x2004]
 1807a56:	push   edi
 1807a57:	push   edi
 1807a58:	push   0xffffffff
 1807a5a:	push   eax
 1807a5b:	push   edi
 1807a5c:	call   DWORD PTR ds:0x1819034
 1807a62:	push   eax
 1807a63:	call   DWORD PTR ds:0x1819120
 1807a69:	mov    edx,DWORD PTR ds:0x1813754
 1807a6f:	mov    esi,eax
 1807a71:	test   edx,edx
 1807a73:	je     0x1807b14
 1807a79:	mov    cx,WORD PTR ds:0x18015f4
 1807a80:	lea    eax,[ebp-0x200c]
 1807a86:	push   edi
 1807a87:	push   eax
 1807a88:	lea    eax,[esi-0x2]
 1807a8b:	mov    WORD PTR [ebp-0x2008],cx
 1807a92:	mov    cl,BYTE PTR ds:0x18015f6
 1807a98:	push   eax
 1807a99:	lea    eax,[ebp-0x2004]
 1807a9f:	mov    BYTE PTR [ebp-0x2006],cl
 1807aa5:	push   eax
 1807aa6:	push   edx
 1807aa7:	call   DWORD PTR ds:0x181907c
 1807aad:	test   eax,eax
 1807aaf:	jne    0x1807ad2
 1807ab1:	push   DWORD PTR ds:0x1813754
 1807ab7:	call   DWORD PTR ds:0x1819088
 1807abd:	mov    DWORD PTR ds:0x1813754,edi
 1807ac3:	call   DWORD PTR ds:0x1819070
 1807ac9:	push   eax
 1807aca:	push   edi
 1807acb:	call   0x1807e10
 1807ad0:	pop    ecx
 1807ad1:	pop    ecx
 1807ad2:	push   edi
 1807ad3:	lea    eax,[ebp-0x200c]
 1807ad9:	push   eax
 1807ada:	push   0x2
 1807adc:	lea    eax,[ebp-0x2008]
 1807ae2:	push   eax
 1807ae3:	push   DWORD PTR ds:0x1813754
 1807ae9:	call   DWORD PTR ds:0x181907c
 1807aef:	test   eax,eax
 1807af1:	jne    0x1807b14
 1807af3:	push   DWORD PTR ds:0x1813754
 1807af9:	call   DWORD PTR ds:0x1819088
 1807aff:	mov    DWORD PTR ds:0x1813754,edi
 1807b05:	call   DWORD PTR ds:0x1819070
 1807b0b:	push   eax
 1807b0c:	push   edi
 1807b0d:	call   0x1807e10
 1807b12:	pop    ecx
 1807b13:	pop    ecx
 1807b14:	lea    eax,[esi+esi*1]
 1807b17:	push   eax
 1807b18:	push   edi
 1807b19:	call   DWORD PTR ds:0x1819098
 1807b1f:	push   eax
 1807b20:	call   DWORD PTR ds:0x1819094
 1807b26:	mov    edi,eax
 1807b28:	test   edi,edi
 1807b2a:	je     0x1807b49
 1807b2c:	push   esi
 1807b2d:	push   edi
 1807b2e:	push   0x2000
 1807b33:	lea    eax,[ebp-0x2004]
 1807b39:	push   eax
 1807b3a:	push   0x0
 1807b3c:	call   DWORD PTR ds:0x1819034
 1807b42:	push   eax
 1807b43:	call   DWORD PTR ds:0x1819120
 1807b49:	mov    eax,edi
 1807b4b:	mov    DWORD PTR [ebx],esi
 1807b4d:	pop    edi
 1807b4e:	mov    ecx,DWORD PTR [ebp-0x4]
 1807b51:	pop    esi
 1807b52:	xor    ecx,ebp
 1807b54:	pop    ebx
 1807b55:	call   0x1809990
 1807b5a:	mov    esp,ebp
 1807b5c:	pop    ebp
 1807b5d:	ret    
 1807b5e:	int3   
 1807b5f:	int3   
 1807b60:	int3   
 1807b61:	int3   
 1807b62:	int3   
 1807b63:	mov    edi,edi
 1807b65:	push   ebp
 1807b66:	mov    ebp,esp
 1807b68:	push   ecx
 1807b69:	push   ecx
 1807b6a:	push   ebx
 1807b6b:	push   esi
 1807b6c:	push   edi
 1807b6d:	xor    esi,esi
 1807b6f:	mov    DWORD PTR [ebp-0x4],ecx
 1807b72:	push   esi
 1807b73:	push   esi
 1807b74:	push   esi
 1807b75:	push   esi
 1807b76:	push   0xffffffff
 1807b78:	mov    ebx,edx
 1807b7a:	push   ebx
 1807b7b:	push   esi
 1807b7c:	call   DWORD PTR ds:0x1819034
 1807b82:	push   eax
 1807b83:	call   DWORD PTR ds:0x1819124
 1807b89:	mov    edi,eax
 1807b8b:	push   edi
 1807b8c:	push   esi
 1807b8d:	call   DWORD PTR ds:0x1819098
 1807b93:	push   eax
 1807b94:	call   DWORD PTR ds:0x1819094
 1807b9a:	mov    esi,eax
 1807b9c:	test   esi,esi
 1807b9e:	je     0x1807c15
 1807ba0:	push   0x0
 1807ba2:	push   0x0
 1807ba4:	push   edi
 1807ba5:	push   esi
 1807ba6:	push   0xffffffff
 1807ba8:	push   ebx
 1807ba9:	xor    ebx,ebx
 1807bab:	push   ebx
 1807bac:	call   DWORD PTR ds:0x1819034
 1807bb2:	push   eax
 1807bb3:	call   DWORD PTR ds:0x1819124
 1807bb9:	push   ebx
 1807bba:	lea    eax,[ebp-0x8]
 1807bbd:	dec    edi
 1807bbe:	push   eax
 1807bbf:	push   edi
 1807bc0:	push   esi
 1807bc1:	push   DWORD PTR [ebp-0x4]
 1807bc4:	call   DWORD PTR ds:0x181907c
 1807bca:	mov    eax,ds:0x1813754
 1807bcf:	test   eax,eax
 1807bd1:	je     0x1807c06
 1807bd3:	push   ebx
 1807bd4:	lea    ecx,[ebp-0x8]
 1807bd7:	push   ecx
 1807bd8:	push   edi
 1807bd9:	push   esi
 1807bda:	push   eax
 1807bdb:	call   DWORD PTR ds:0x181907c
 1807be1:	test   eax,eax
 1807be3:	jne    0x1807c06
 1807be5:	push   DWORD PTR ds:0x1813754
 1807beb:	call   DWORD PTR ds:0x1819088
 1807bf1:	mov    DWORD PTR ds:0x1813754,ebx
 1807bf7:	call   DWORD PTR ds:0x1819070
 1807bfd:	push   eax
 1807bfe:	push   ebx
 1807bff:	call   0x1807e10
 1807c04:	pop    ecx
 1807c05:	pop    ecx
 1807c06:	push   esi
 1807c07:	push   ebx
 1807c08:	call   DWORD PTR ds:0x1819098
 1807c0e:	push   eax
 1807c0f:	call   DWORD PTR ds:0x181909c
 1807c15:	pop    edi
 1807c16:	pop    esi
 1807c17:	pop    ebx
 1807c18:	mov    esp,ebp
 1807c1a:	pop    ebp
 1807c1b:	ret    
 1807c1c:	int3   
 1807c1d:	int3   
 1807c1e:	int3   
 1807c1f:	int3   
 1807c20:	int3   
 1807c21:	int3   
 1807c22:	int3   
 1807c23:	int3   
 1807c24:	int3   
 1807c25:	int3   
 1807c26:	int3   
 1807c27:	int3   
 1807c28:	int3   
 1807c29:	int3   
 1807c2a:	int3   
 1807c2b:	int3   
 1807c2c:	int3   
 1807c2d:	int3   
 1807c2e:	int3   
 1807c2f:	int3   
 1807c30:	mov    edi,edi
 1807c32:	push   ebp
 1807c33:	mov    ebp,esp
 1807c35:	xor    eax,eax
 1807c37:	push   esi
 1807c38:	cmp    DWORD PTR [ebp+0x10],eax
 1807c3b:	jbe    0x1807c53
 1807c3d:	mov    edx,DWORD PTR [ebp+0x14]
 1807c40:	mov    esi,DWORD PTR [ebp+0xc]
 1807c43:	lea    ecx,[edx+0x4]
 1807c46:	cmp    DWORD PTR [ecx],esi
 1807c48:	je     0x1807c5a
 1807c4a:	inc    eax
 1807c4b:	add    ecx,0x8
 1807c4e:	cmp    eax,DWORD PTR [ebp+0x10]
 1807c51:	jb     0x1807c46
 1807c53:	xor    eax,eax
 1807c55:	pop    esi
 1807c56:	pop    ebp
 1807c57:	ret    0x10
 1807c5a:	mov    eax,DWORD PTR [edx+eax*8]
 1807c5d:	jmp    0x1807c55
 1807c5f:	int3   
 1807c60:	int3   
 1807c61:	int3   
 1807c62:	int3   
 1807c63:	int3   
 1807c64:	int3   
 1807c65:	int3   
 1807c66:	int3   
 1807c67:	int3   
 1807c68:	int3   
 1807c69:	int3   
 1807c6a:	int3   
 1807c6b:	int3   
 1807c6c:	int3   
 1807c6d:	int3   
 1807c6e:	int3   
 1807c6f:	int3   
 1807c70:	mov    edi,edi
 1807c72:	push   ebp
 1807c73:	mov    ebp,esp
 1807c75:	push   ecx
 1807c76:	push   ecx
 1807c77:	push   esi
 1807c78:	push   edi
 1807c79:	xor    edi,edi
 1807c7b:	lea    eax,[ebp+0x10]
 1807c7e:	push   0x8000
 1807c83:	push   edi
 1807c84:	mov    DWORD PTR [ebp-0x4],edi
 1807c87:	mov    DWORD PTR [ebp-0x8],eax
 1807c8a:	call   DWORD PTR ds:0x1819098
 1807c90:	push   eax
 1807c91:	call   DWORD PTR ds:0x1819094
 1807c97:	mov    esi,eax
 1807c99:	test   esi,esi
 1807c9b:	je     0x1807cd9
 1807c9d:	push   0x4000
 1807ca2:	push   esi
 1807ca3:	push   DWORD PTR [ebp+0xc]
 1807ca6:	push   DWORD PTR [ebp+0x8]
 1807ca9:	call   DWORD PTR ds:0x18190b0
 1807caf:	test   eax,eax
 1807cb1:	je     0x1807cca
 1807cb3:	lea    eax,[ebp-0x8]
 1807cb6:	push   eax
 1807cb7:	push   edi
 1807cb8:	lea    eax,[ebp-0x4]
 1807cbb:	push   eax
 1807cbc:	push   edi
 1807cbd:	push   edi
 1807cbe:	push   esi
 1807cbf:	push   0x500
 1807cc4:	call   DWORD PTR ds:0x18190d0
 1807cca:	push   esi
 1807ccb:	push   edi
 1807ccc:	call   DWORD PTR ds:0x1819098
 1807cd2:	push   eax
 1807cd3:	call   DWORD PTR ds:0x181909c
 1807cd9:	mov    eax,DWORD PTR [ebp-0x4]
 1807cdc:	pop    edi
 1807cdd:	pop    esi
 1807cde:	mov    esp,ebp
 1807ce0:	pop    ebp
 1807ce1:	ret    
 1807ce2:	int3   
 1807ce3:	int3   
 1807ce4:	int3   
 1807ce5:	int3   
 1807ce6:	int3   
 1807ce7:	int3   
 1807ce8:	int3   
 1807ce9:	int3   
 1807cea:	int3   
 1807ceb:	int3   
 1807cec:	int3   
 1807ced:	int3   
 1807cee:	int3   
 1807cef:	int3   
 1807cf0:	jmp    DWORD PTR ds:0x18190a8
 1807cf6:	int3   
 1807cf7:	int3   
 1807cf8:	int3   
 1807cf9:	int3   
 1807cfa:	int3   
 1807cfb:	int3   
 1807cfc:	int3   
 1807cfd:	int3   
 1807cfe:	int3   
 1807cff:	int3   
 1807d00:	mov    edi,edi
 1807d02:	push   ebp
 1807d03:	mov    ebp,esp
 1807d05:	push   ebx
 1807d06:	push   esi
 1807d07:	mov    esi,DWORD PTR [ebp+0x8]
 1807d0a:	mov    ecx,esi
 1807d0c:	push   edi
 1807d0d:	xor    edi,edi
 1807d0f:	lea    edx,[ecx+0x2]
 1807d12:	mov    ax,WORD PTR [ecx]
 1807d15:	add    ecx,0x2
 1807d18:	cmp    ax,di
 1807d1b:	jne    0x1807d12
 1807d1d:	sub    ecx,edx
 1807d1f:	sar    ecx,1
 1807d21:	lea    ebx,[ecx+0x3]
 1807d24:	lea    eax,[ebx+ebx*1]
 1807d27:	push   eax
 1807d28:	push   edi
 1807d29:	call   DWORD PTR ds:0x1819098
 1807d2f:	push   eax
 1807d30:	call   DWORD PTR ds:0x1819094
 1807d36:	mov    edi,eax
 1807d38:	test   edi,edi
 1807d3a:	je     0x1807d69
 1807d3c:	push   esi
 1807d3d:	push   0x18015f8
 1807d42:	push   ebx
 1807d43:	push   edi
 1807d44:	call   0x180507b
 1807d49:	add    esp,0x10
 1807d4c:	lea    ecx,[esi+0x2]
 1807d4f:	xor    edx,edx
 1807d51:	mov    ax,WORD PTR [esi]
 1807d54:	add    esi,0x2
 1807d57:	cmp    ax,dx
 1807d5a:	jne    0x1807d51
 1807d5c:	sub    esi,ecx
 1807d5e:	sar    esi,1
 1807d60:	xor    eax,eax
 1807d62:	mov    WORD PTR [edi+esi*2+0x4],ax
 1807d67:	mov    eax,edi
 1807d69:	pop    edi
 1807d6a:	pop    esi
 1807d6b:	pop    ebx
 1807d6c:	pop    ebp
 1807d6d:	ret    0x4
 1807d70:	int3   
 1807d71:	int3   
 1807d72:	int3   
 1807d73:	int3   
 1807d74:	int3   
 1807d75:	int3   
 1807d76:	int3   
 1807d77:	int3   
 1807d78:	int3   
 1807d79:	int3   
 1807d7a:	int3   
 1807d7b:	int3   
 1807d7c:	int3   
 1807d7d:	int3   
 1807d7e:	int3   
 1807d7f:	int3   
 1807d80:	mov    edi,edi
 1807d82:	push   ebp
 1807d83:	mov    ebp,esp
 1807d85:	push   DWORD PTR [ebp+0x8]
 1807d88:	push   0x0
 1807d8a:	call   DWORD PTR ds:0x1819098
 1807d90:	push   eax
 1807d91:	call   DWORD PTR ds:0x181909c
 1807d97:	pop    ebp
 1807d98:	ret    0x4
 1807d9b:	int3   
 1807d9c:	int3   
 1807d9d:	int3   
 1807d9e:	int3   
 1807d9f:	int3   
 1807da0:	mov    edi,edi
 1807da2:	push   ebp
 1807da3:	mov    ebp,esp
 1807da5:	push   ecx
 1807da6:	push   ecx
 1807da7:	push   esi
 1807da8:	push   edi
 1807da9:	push   0x44
 1807dab:	pop    eax
 1807dac:	xor    edi,edi
 1807dae:	mov    DWORD PTR [ebp-0x8],eax
 1807db1:	push   eax
 1807db2:	push   edi
 1807db3:	mov    DWORD PTR [ebp-0x4],edi
 1807db6:	call   DWORD PTR ds:0x1819098
 1807dbc:	push   eax
 1807dbd:	call   DWORD PTR ds:0x1819094
 1807dc3:	mov    esi,eax
 1807dc5:	test   esi,esi
 1807dc7:	je     0x1807deb
 1807dc9:	lea    eax,[ebp-0x8]
 1807dcc:	push   eax
 1807dcd:	push   esi
 1807dce:	push   edi
 1807dcf:	push   0x1a
 1807dd1:	call   DWORD PTR ds:0x1819168
 1807dd7:	test   eax,eax
 1807dd9:	je     0x1807deb
 1807ddb:	lea    eax,[ebp-0x4]
 1807dde:	push   eax
 1807ddf:	push   esi
 1807de0:	push   edi
 1807de1:	call   DWORD PTR ds:0x1819164
 1807de7:	test   eax,eax
 1807de9:	jne    0x1807dee
 1807deb:	mov    DWORD PTR [ebp-0x4],edi
 1807dee:	test   esi,esi
 1807df0:	je     0x1807e01
 1807df2:	push   esi
 1807df3:	push   edi
 1807df4:	call   DWORD PTR ds:0x1819098
 1807dfa:	push   eax
 1807dfb:	call   DWORD PTR ds:0x181909c
 1807e01:	mov    eax,DWORD PTR [ebp-0x4]
 1807e04:	pop    edi
 1807e05:	pop    esi
 1807e06:	mov    esp,ebp
 1807e08:	pop    ebp
 1807e09:	ret    
 1807e0a:	int3   
 1807e0b:	int3   
 1807e0c:	int3   
 1807e0d:	int3   
 1807e0e:	int3   
 1807e0f:	int3   
 1807e10:	mov    edi,edi
 1807e12:	push   ebp
 1807e13:	mov    ebp,esp
 1807e15:	mov    eax,0x8010
 1807e1a:	call   0x180a120
 1807e1f:	mov    eax,ds:0x180b004
 1807e24:	xor    eax,ebp
 1807e26:	mov    DWORD PTR [ebp-0x4],eax
 1807e29:	mov    eax,DWORD PTR [ebp+0x8]
 1807e2c:	lea    ecx,[ebp+0x10]
 1807e2f:	push   ebx
 1807e30:	push   esi
 1807e31:	push   edi
 1807e32:	xor    edi,edi
 1807e34:	mov    DWORD PTR [ebp-0x8010],ecx
 1807e3a:	mov    DWORD PTR [ebp-0x800c],edi
 1807e40:	mov    ebx,0x4000
 1807e45:	test   eax,eax
 1807e47:	je     0x1807eb0
 1807e49:	push   ebx
 1807e4a:	lea    ecx,[ebp-0x8008]
 1807e50:	push   ecx
 1807e51:	push   DWORD PTR [ebp+0xc]
 1807e54:	push   eax
 1807e55:	call   DWORD PTR ds:0x18190b0
 1807e5b:	test   eax,eax
 1807e5d:	je     0x1807eb0
 1807e5f:	lea    eax,[ebp-0x8010]
 1807e65:	push   eax
 1807e66:	push   edi
 1807e67:	lea    eax,[ebp-0x800c]
 1807e6d:	push   eax
 1807e6e:	push   edi
 1807e6f:	push   edi
 1807e70:	lea    eax,[ebp-0x8008]
 1807e76:	push   eax
 1807e77:	push   0x500
 1807e7c:	call   DWORD PTR ds:0x18190d0
 1807e82:	mov    esi,eax
 1807e84:	test   esi,esi
 1807e86:	je     0x1807eb0
 1807e88:	push   0xfffffff5
 1807e8a:	call   DWORD PTR ds:0x18190d8
 1807e90:	mov    edx,DWORD PTR [ebp-0x800c]
 1807e96:	mov    ecx,eax
 1807e98:	call   0x1807b63
 1807e9d:	push   DWORD PTR [ebp-0x800c]
 1807ea3:	call   DWORD PTR ds:0x18190a8
 1807ea9:	mov    eax,esi
 1807eab:	jmp    0x180802c
 1807eb0:	mov    ecx,DWORD PTR [ebp+0xc]
 1807eb3:	cmp    ecx,0x5
 1807eb6:	je     0x1807ec0
 1807eb8:	cmp    ecx,0x2e4
 1807ebe:	jne    0x1807f1b
 1807ec0:	call   0x1807da0
 1807ec5:	test   eax,eax
 1807ec7:	jne    0x1807f18
 1807ec9:	push   ebx
 1807eca:	lea    eax,[ebp-0x8008]
 1807ed0:	push   eax
 1807ed1:	push   0x3ee
 1807ed6:	push   DWORD PTR ds:0x1818b08
 1807edc:	call   DWORD PTR ds:0x18190b0
 1807ee2:	test   eax,eax
 1807ee4:	je     0x1807f18
 1807ee6:	push   0xfffffff5
 1807ee8:	call   DWORD PTR ds:0x18190d8
 1807eee:	lea    edx,[ebp-0x8008]
 1807ef4:	mov    ecx,eax
 1807ef6:	call   0x1807b63
 1807efb:	lea    eax,[ebp-0x8008]
 1807f01:	lea    edx,[eax+0x2]
 1807f04:	mov    cx,WORD PTR [eax]
 1807f07:	add    eax,0x2
 1807f0a:	cmp    cx,di
 1807f0d:	jne    0x1807f04
 1807f0f:	sub    eax,edx
 1807f11:	sar    eax,1
 1807f13:	jmp    0x180802c
 1807f18:	mov    ecx,DWORD PTR [ebp+0xc]
 1807f1b:	lea    eax,[ecx-0x3a99]
 1807f21:	cmp    eax,0x11
 1807f24:	ja     0x1807f6f
 1807f26:	push   ebx
 1807f27:	lea    eax,[ebp-0x8008]
 1807f2d:	push   eax
 1807f2e:	push   ecx
 1807f2f:	push   DWORD PTR ds:0x1818b08
 1807f35:	call   DWORD PTR ds:0x18190b0
 1807f3b:	test   eax,eax
 1807f3d:	je     0x1807f6c
 1807f3f:	lea    eax,[ebp-0x8010]
 1807f45:	push   eax
 1807f46:	push   edi
 1807f47:	lea    eax,[ebp-0x800c]
 1807f4d:	push   eax
 1807f4e:	push   edi
 1807f4f:	push   edi
 1807f50:	lea    eax,[ebp-0x8008]
 1807f56:	push   eax
 1807f57:	push   0x500
 1807f5c:	call   DWORD PTR ds:0x18190d0
 1807f62:	mov    esi,eax
 1807f64:	test   esi,esi
 1807f66:	jne    0x1807e88
 1807f6c:	mov    ecx,DWORD PTR [ebp+0xc]
 1807f6f:	push   0x1
 1807f71:	lea    eax,[ebp-0x800c]
 1807f77:	push   eax
 1807f78:	push   ecx
 1807f79:	call   DWORD PTR ds:0x181b00c
 1807f7f:	test   eax,eax
 1807f81:	jne    0x1807fe7
 1807f83:	push   DWORD PTR [ebp-0x800c]
 1807f89:	mov    esi,0x4001
 1807f8e:	lea    ecx,[ebp-0x8008]
 1807f94:	mov    edx,esi
 1807f96:	call   0x180235f
 1807f9b:	push   DWORD PTR [ebp-0x800c]
 1807fa1:	call   DWORD PTR ds:0x18190a8
 1807fa7:	push   0x1801604
 1807fac:	mov    edx,esi
 1807fae:	lea    ecx,[ebp-0x8008]
 1807fb4:	call   0x180319e
 1807fb9:	push   0xfffffff5
 1807fbb:	call   DWORD PTR ds:0x18190d8
 1807fc1:	lea    edx,[ebp-0x8008]
 1807fc7:	mov    ecx,eax
 1807fc9:	call   0x1807b63
 1807fce:	lea    eax,[ebp-0x8008]
 1807fd4:	lea    edx,[eax+0x2]
 1807fd7:	mov    cx,WORD PTR [eax]
 1807fda:	add    eax,0x2
 1807fdd:	cmp    cx,di
 1807fe0:	jne    0x1807fd7
 1807fe2:	jmp    0x1807f0f
 1807fe7:	lea    eax,[ebp-0x8010]
 1807fed:	push   eax
 1807fee:	push   ebx
 1807fef:	lea    eax,[ebp-0x8008]
 1807ff5:	push   eax
 1807ff6:	push   0x400
 1807ffb:	push   DWORD PTR [ebp+0xc]
 1807ffe:	push   edi
 1807fff:	push   0x1000
 1808004:	call   DWORD PTR ds:0x18190d0
 180800a:	mov    esi,eax
 180800c:	test   esi,esi
 180800e:	je     0x180802a
 1808010:	push   0xfffffff5
 1808012:	call   DWORD PTR ds:0x18190d8
 1808018:	lea    edx,[ebp-0x8008]
 180801e:	mov    ecx,eax
 1808020:	call   0x1807b63
 1808025:	jmp    0x1807ea9
 180802a:	xor    eax,eax
 180802c:	mov    ecx,DWORD PTR [ebp-0x4]
 180802f:	pop    edi
 1808030:	pop    esi
 1808031:	xor    ecx,ebp
 1808033:	pop    ebx
 1808034:	call   0x1809990
 1808039:	mov    esp,ebp
 180803b:	pop    ebp
 180803c:	ret    
 180803d:	int3   
 180803e:	int3   
 180803f:	int3   
 1808040:	int3   
 1808041:	int3   
 1808042:	mov    edi,edi
 1808044:	push   ebp
 1808045:	mov    ebp,esp
 1808047:	push   ecx
 1808048:	push   esi
 1808049:	push   edx
 180804a:	xor    esi,esi
 180804c:	lea    eax,[ebp-0x4]
 180804f:	push   esi
 1808050:	push   eax
 1808051:	push   esi
 1808052:	push   esi
 1808053:	push   ecx
 1808054:	push   0x500
 1808059:	mov    DWORD PTR [ebp-0x4],esi
 180805c:	call   DWORD PTR ds:0x18190d0
 1808062:	mov    esi,eax
 1808064:	test   esi,esi
 1808066:	jne    0x180807e
 1808068:	call   DWORD PTR ds:0x1819070
 180806e:	push   eax
 180806f:	push   0x180160c
 1808074:	call   DWORD PTR ds:0x1819170
 180807a:	pop    ecx
 180807b:	pop    ecx
 180807c:	jmp    0x1808090
 180807e:	push   0xfffffff5
 1808080:	call   DWORD PTR ds:0x18190d8
 1808086:	mov    edx,DWORD PTR [ebp-0x4]
 1808089:	mov    ecx,eax
 180808b:	call   0x1807b63
 1808090:	cmp    DWORD PTR [ebp-0x4],0x0
 1808094:	je     0x180809f
 1808096:	push   DWORD PTR [ebp-0x4]
 1808099:	call   DWORD PTR ds:0x18190a8
 180809f:	mov    eax,esi
 18080a1:	pop    esi
 18080a2:	mov    esp,ebp
 18080a4:	pop    ebp
 18080a5:	ret    
 18080a6:	int3   
 18080a7:	int3   
 18080a8:	int3   
 18080a9:	int3   
 18080aa:	int3   
 18080ab:	int3   
 18080ac:	int3   
 18080ad:	int3   
 18080ae:	int3   
 18080af:	int3   
 18080b0:	mov    edi,edi
 18080b2:	push   ebp
 18080b3:	mov    ebp,esp
 18080b5:	push   ecx
 18080b6:	mov    ecx,DWORD PTR [ebp+0x8]
 18080b9:	lea    eax,[ebp+0xc]
 18080bc:	mov    DWORD PTR [ebp-0x4],eax
 18080bf:	test   ecx,ecx
 18080c1:	jne    0x18080c8
 18080c3:	push   0x57
 18080c5:	pop    eax
 18080c6:	jmp    0x18080d0
 18080c8:	lea    edx,[ebp-0x4]
 18080cb:	call   0x1808042
 18080d0:	mov    esp,ebp
 18080d2:	pop    ebp
 18080d3:	ret    
 18080d4:	int3   
 18080d5:	int3   
 18080d6:	int3   
 18080d7:	int3   
 18080d8:	int3   
 18080d9:	int3   
 18080da:	int3   
 18080db:	int3   
 18080dc:	int3   
 18080dd:	int3   
 18080de:	int3   
 18080df:	int3   
 18080e0:	mov    edi,edi
 18080e2:	push   ebp
 18080e3:	mov    ebp,esp
 18080e5:	mov    eax,0x800c
 18080ea:	call   0x180a120
 18080ef:	mov    eax,ds:0x180b004
 18080f4:	xor    eax,ebp
 18080f6:	mov    DWORD PTR [ebp-0x4],eax
 18080f9:	push   ebx
 18080fa:	push   esi
 18080fb:	push   edi
 18080fc:	mov    edi,DWORD PTR [ebp+0x8]
 18080ff:	lea    eax,[ebp-0x8008]
 1808105:	mov    ebx,0x4000
 180810a:	push   ebx
 180810b:	push   eax
 180810c:	push   DWORD PTR [ebp+0xc]
 180810f:	push   edi
 1808110:	call   DWORD PTR ds:0x18190b0
 1808116:	mov    esi,eax
 1808118:	test   esi,esi
 180811a:	jne    0x1808149
 180811c:	push   0x1801648
 1808121:	push   edi
 1808122:	call   DWORD PTR ds:0x18190b8
 1808128:	mov    edi,eax
 180812a:	test   edi,edi
 180812c:	je     0x1808165
 180812e:	push   ebx
 180812f:	lea    eax,[ebp-0x8008]
 1808135:	mov    ecx,edi
 1808137:	push   eax
 1808138:	push   DWORD PTR [ebp+0xc]
 180813b:	call   DWORD PTR ds:0x1819214
 1808141:	call   edi
 1808143:	mov    esi,eax
 1808145:	test   esi,esi
 1808147:	je     0x1808165
 1808149:	lea    eax,[ebp+0x10]
 180814c:	lea    edx,[ebp-0x800c]
 1808152:	mov    DWORD PTR [ebp-0x800c],eax
 1808158:	lea    ecx,[ebp-0x8008]
 180815e:	call   0x1808042
 1808163:	mov    esi,eax
 1808165:	mov    ecx,DWORD PTR [ebp-0x4]
 1808168:	mov    eax,esi
 180816a:	pop    edi
 180816b:	pop    esi
 180816c:	xor    ecx,ebp
 180816e:	pop    ebx
 180816f:	call   0x1809990
 1808174:	mov    esp,ebp
 1808176:	pop    ebp
 1808177:	ret    
 1808178:	int3   
 1808179:	int3   
 180817a:	int3   
 180817b:	int3   
 180817c:	int3   
 180817d:	int3   
 180817e:	int3   
 180817f:	int3   
 1808180:	mov    edi,edi
 1808182:	push   ebp
 1808183:	mov    ebp,esp
 1808185:	push   ecx
 1808186:	push   ecx
 1808187:	push   esi
 1808188:	lea    eax,[ebp+0x10]
 180818b:	xor    ecx,ecx
 180818d:	mov    DWORD PTR [ebp-0x8],eax
 1808190:	lea    eax,[ebp-0x8]
 1808193:	push   eax
 1808194:	push   ecx
 1808195:	lea    eax,[ebp-0x4]
 1808198:	mov    DWORD PTR [ebp-0x4],ecx
 180819b:	push   eax
 180819c:	push   ecx
 180819d:	push   DWORD PTR [ebp+0xc]
 18081a0:	push   DWORD PTR [ebp+0x8]
 18081a3:	push   0x900
 18081a8:	call   DWORD PTR ds:0x18190d0
 18081ae:	mov    esi,eax
 18081b0:	test   esi,esi
 18081b2:	jne    0x18081bc
 18081b4:	call   DWORD PTR ds:0x1819070
 18081ba:	jmp    0x18081ce
 18081bc:	push   0xfffffff5
 18081be:	call   DWORD PTR ds:0x18190d8
 18081c4:	mov    edx,DWORD PTR [ebp-0x4]
 18081c7:	mov    ecx,eax
 18081c9:	call   0x1807b63
 18081ce:	cmp    DWORD PTR [ebp-0x4],0x0
 18081d2:	je     0x18081dd
 18081d4:	push   DWORD PTR [ebp-0x4]
 18081d7:	call   DWORD PTR ds:0x18190a8
 18081dd:	mov    eax,esi
 18081df:	pop    esi
 18081e0:	mov    esp,ebp
 18081e2:	pop    ebp
 18081e3:	ret    
 18081e4:	int3   
 18081e5:	int3   
 18081e6:	int3   
 18081e7:	int3   
 18081e8:	int3   
 18081e9:	int3   
 18081ea:	int3   
 18081eb:	int3   
 18081ec:	int3   
 18081ed:	int3   
 18081ee:	int3   
 18081ef:	int3   
 18081f0:	mov    edi,edi
 18081f2:	push   ebp
 18081f3:	mov    ebp,esp
 18081f5:	push   ecx
 18081f6:	push   ecx
 18081f7:	push   ebx
 18081f8:	push   esi
 18081f9:	push   edi
 18081fa:	xor    ebx,ebx
 18081fc:	lea    eax,[ebp+0x14]
 18081ff:	push   0x8000
 1808204:	push   ebx
 1808205:	mov    edi,ebx
 1808207:	mov    DWORD PTR [ebp-0x4],ebx
 180820a:	mov    DWORD PTR [ebp-0x8],eax
 180820d:	call   DWORD PTR ds:0x1819098
 1808213:	push   eax
 1808214:	call   DWORD PTR ds:0x1819094
 180821a:	mov    esi,eax
 180821c:	test   esi,esi
 180821e:	je     0x180827d
 1808220:	push   0x4000
 1808225:	push   esi
 1808226:	push   DWORD PTR [ebp+0x10]
 1808229:	push   DWORD PTR [ebp+0x8]
 180822c:	call   DWORD PTR ds:0x18190b0
 1808232:	test   eax,eax
 1808234:	je     0x180826e
 1808236:	lea    eax,[ebp-0x8]
 1808239:	push   eax
 180823a:	push   ebx
 180823b:	lea    eax,[ebp-0x4]
 180823e:	push   eax
 180823f:	push   ebx
 1808240:	push   ebx
 1808241:	push   esi
 1808242:	push   0x500
 1808247:	call   DWORD PTR ds:0x18190d0
 180824d:	mov    edi,eax
 180824f:	test   edi,edi
 1808251:	je     0x180826e
 1808253:	mov    edx,DWORD PTR [ebp-0x4]
 1808256:	mov    ecx,DWORD PTR [ebp+0xc]
 1808259:	call   0x1807b63
 180825e:	push   0x1
 1808260:	call   0x180a011
 1808265:	push   eax
 1808266:	call   DWORD PTR ds:0x18191a0
 180826c:	pop    ecx
 180826d:	pop    ecx
 180826e:	push   esi
 180826f:	push   ebx
 1808270:	call   DWORD PTR ds:0x1819098
 1808276:	push   eax
 1808277:	call   DWORD PTR ds:0x181909c
 180827d:	cmp    DWORD PTR [ebp-0x4],ebx
 1808280:	je     0x180828b
 1808282:	push   DWORD PTR [ebp-0x4]
 1808285:	call   DWORD PTR ds:0x18190a8
 180828b:	mov    eax,edi
 180828d:	pop    edi
 180828e:	pop    esi
 180828f:	pop    ebx
 1808290:	mov    esp,ebp
 1808292:	pop    ebp
 1808293:	ret    
 1808294:	int3   
 1808295:	int3   
 1808296:	int3   
 1808297:	int3   
 1808298:	int3   
 1808299:	int3   
 180829a:	int3   
 180829b:	int3   
 180829c:	int3   
 180829d:	int3   
 180829e:	int3   
 180829f:	int3   
 18082a0:	mov    edi,edi
 18082a2:	push   ebp
 18082a3:	mov    ebp,esp
 18082a5:	cmp    DWORD PTR [ebp+0x8],0x0
 18082a9:	jne    0x18082d8
 18082ab:	push   esi
 18082ac:	push   0x180165c
 18082b1:	push   0x0
 18082b3:	push   0x1f0003
 18082b8:	call   DWORD PTR ds:0x1819138
 18082be:	mov    esi,eax
 18082c0:	test   esi,esi
 18082c2:	je     0x18082d2
 18082c4:	push   esi
 18082c5:	call   DWORD PTR ds:0x1819140
 18082cb:	push   esi
 18082cc:	call   DWORD PTR ds:0x1819088
 18082d2:	xor    eax,eax
 18082d4:	inc    eax
 18082d5:	pop    esi
 18082d6:	jmp    0x18082da
 18082d8:	xor    eax,eax
 18082da:	pop    ebp
 18082db:	ret    0x4
 18082de:	int3   
 18082df:	int3   
 18082e0:	int3   
 18082e1:	int3   
 18082e2:	int3   
 18082e3:	mov    edi,edi
 18082e5:	push   ebp
 18082e6:	mov    ebp,esp
 18082e8:	sub    esp,0x24
 18082eb:	mov    eax,ds:0x180b004
 18082f0:	xor    eax,ebp
 18082f2:	mov    DWORD PTR [ebp-0x4],eax
 18082f5:	push   esi
 18082f6:	xor    eax,eax
 18082f8:	push   edi
 18082f9:	mov    DWORD PTR [ebp-0x20],eax
 18082fc:	mov    edi,ecx
 18082fe:	lea    eax,[ebp-0x1c]
 1808301:	push   eax
 1808302:	push   edi
 1808303:	call   DWORD PTR ds:0x1819054
 1808309:	movzx  eax,WORD PTR [ebp-0x1c]
 180830d:	movzx  esi,WORD PTR [ebp-0x1a]
 1808311:	imul   esi,eax
 1808314:	lea    eax,[ebp-0x24]
 1808317:	push   eax
 1808318:	push   DWORD PTR [ebp-0x20]
 180831b:	push   esi
 180831c:	push   0x20
 180831e:	push   edi
 180831f:	call   DWORD PTR ds:0x1819040
 1808325:	lea    eax,[ebp-0x1c]
 1808328:	push   eax
 1808329:	push   edi
 180832a:	call   DWORD PTR ds:0x1819054
 1808330:	lea    eax,[ebp-0x24]
 1808333:	push   eax
 1808334:	mov    eax,DWORD PTR [ebp-0x14]
 1808337:	push   DWORD PTR [ebp-0x20]
 180833a:	shr    eax,0x4
 180833d:	xor    eax,DWORD PTR [ebp-0x14]
 1808340:	and    eax,0xf
 1808343:	xor    eax,DWORD PTR [ebp-0x14]
 1808346:	push   esi
 1808347:	push   eax
 1808348:	push   edi
 1808349:	call   DWORD PTR ds:0x1819044
 180834f:	push   DWORD PTR [ebp-0x20]
 1808352:	push   edi
 1808353:	call   DWORD PTR ds:0x1819050
 1808359:	mov    ecx,DWORD PTR [ebp-0x4]
 180835c:	pop    edi
 180835d:	xor    ecx,ebp
 180835f:	pop    esi
 1808360:	call   0x1809990
 1808365:	mov    esp,ebp
 1808367:	pop    ebp
 1808368:	ret    
 1808369:	int3   
 180836a:	int3   
 180836b:	int3   
 180836c:	int3   
 180836d:	int3   
 180836e:	int3   
 180836f:	int3   
 1808370:	mov    edi,edi
 1808372:	push   ebp
 1808373:	mov    ebp,esp
 1808375:	sub    esp,0x28
 1808378:	mov    eax,ds:0x180b004
 180837d:	xor    eax,ebp
 180837f:	mov    DWORD PTR [ebp-0x4],eax
 1808382:	mov    eax,DWORD PTR [ebp+0x8]
 1808385:	push   ebx
 1808386:	mov    ebx,DWORD PTR [ebp+0x10]
 1808389:	push   esi
 180838a:	push   edi
 180838b:	mov    edi,DWORD PTR [ebp+0xc]
 180838e:	push   0xfffffff5
 1808390:	mov    DWORD PTR [ebp-0x20],eax
 1808393:	call   DWORD PTR ds:0x18190d8
 1808399:	mov    esi,eax
 180839b:	cmp    esi,0xffffffff
 180839e:	jne    0x18083a7
 18083a0:	xor    eax,eax
 18083a2:	jmp    0x180844b
 18083a7:	mov    eax,DWORD PTR [ebp-0x20]
 18083aa:	xor    ecx,ecx
 18083ac:	cmp    DWORD PTR [eax],ecx
 18083ae:	jne    0x18083b9
 18083b0:	mov    DWORD PTR [ebx],esi
 18083b2:	mov    DWORD PTR [edi],ecx
 18083b4:	jmp    0x1808448
 18083b9:	push   0x180165c
 18083be:	push   ecx
 18083bf:	push   0x1
 18083c1:	push   ecx
 18083c2:	call   DWORD PTR ds:0x1819134
 18083c8:	mov    DWORD PTR [ebp-0x28],eax
 18083cb:	test   eax,eax
 18083cd:	jne    0x18083dc
 18083cf:	mov    eax,DWORD PTR [ebp-0x20]
 18083d2:	and    DWORD PTR [eax],0x0
 18083d5:	mov    DWORD PTR [ebx],esi
 18083d7:	and    DWORD PTR [edi],0x0
 18083da:	jmp    0x1808448
 18083dc:	mov    DWORD PTR [edi],eax
 18083de:	xor    eax,eax
 18083e0:	push   eax
 18083e1:	push   0x1
 18083e3:	push   eax
 18083e4:	push   eax
 18083e5:	push   0xc0000000
 18083ea:	call   DWORD PTR ds:0x181903c
 18083f0:	mov    DWORD PTR [ebp-0x24],eax
 18083f3:	cmp    eax,0xffffffff
 18083f6:	jne    0x1808405
 18083f8:	mov    eax,DWORD PTR [ebp-0x20]
 18083fb:	and    DWORD PTR [eax],0x0
 18083fe:	mov    DWORD PTR [ebx],esi
 1808400:	and    DWORD PTR [edi],0x0
 1808403:	jmp    0x180843f
 1808405:	lea    eax,[ebp-0x1c]
 1808408:	push   eax
 1808409:	push   esi
 180840a:	call   DWORD PTR ds:0x1819054
 1808410:	mov    esi,DWORD PTR [ebp-0x24]
 1808413:	push   0x50
 1808415:	pop    eax
 1808416:	mov    WORD PTR [ebp-0x1c],ax
 180841a:	push   DWORD PTR [ebp-0x1c]
 180841d:	push   esi
 180841e:	call   DWORD PTR ds:0x181904c
 1808424:	push   esi
 1808425:	call   DWORD PTR ds:0x1819048
 180842b:	push   0x1
 180842d:	push   0x18082a0
 1808432:	call   DWORD PTR ds:0x1819030
 1808438:	mov    DWORD PTR [ebx],esi
 180843a:	cmp    DWORD PTR [edi],0x0
 180843d:	jne    0x1808448
 180843f:	push   DWORD PTR [ebp-0x28]
 1808442:	call   DWORD PTR ds:0x1819088
 1808448:	xor    eax,eax
 180844a:	inc    eax
 180844b:	mov    ecx,DWORD PTR [ebp-0x4]
 180844e:	pop    edi
 180844f:	pop    esi
 1808450:	xor    ecx,ebp
 1808452:	pop    ebx
 1808453:	call   0x1809990
 1808458:	mov    esp,ebp
 180845a:	pop    ebp
 180845b:	ret    0xc
 180845e:	int3   
 180845f:	int3   
 1808460:	int3   
 1808461:	int3   
 1808462:	int3   
 1808463:	int3   
 1808464:	int3   
 1808465:	int3   
 1808466:	int3   
 1808467:	int3   
 1808468:	int3   
 1808469:	int3   
 180846a:	int3   
 180846b:	int3   
 180846c:	int3   
 180846d:	int3   
 180846e:	int3   
 180846f:	int3   
 1808470:	mov    edi,edi
 1808472:	push   ebp
 1808473:	mov    ebp,esp
 1808475:	push   ecx
 1808476:	xor    eax,eax
 1808478:	mov    DWORD PTR [ebp-0x4],eax
 180847b:	cmp    DWORD PTR [ebp+0x10],eax
 180847e:	je     0x18084c2
 1808480:	push   eax
 1808481:	push   DWORD PTR [ebp+0xc]
 1808484:	call   DWORD PTR ds:0x1819050
 180848a:	push   DWORD PTR [ebp+0x10]
 180848d:	push   DWORD PTR [ebp+0x8]
 1808490:	call   DWORD PTR ds:0x1819148
 1808496:	test   eax,eax
 1808498:	jne    0x18084ca
 180849a:	push   DWORD PTR [ebp+0x8]
 180849d:	call   DWORD PTR ds:0x1819144
 18084a3:	push   0x0
 18084a5:	push   0x18082a0
 18084aa:	call   DWORD PTR ds:0x1819030
 18084b0:	push   DWORD PTR [ebp+0x8]
 18084b3:	call   DWORD PTR ds:0x1819088
 18084b9:	push   DWORD PTR [ebp+0xc]
 18084bc:	call   DWORD PTR ds:0x1819088
 18084c2:	xor    eax,eax
 18084c4:	mov    esp,ebp
 18084c6:	pop    ebp
 18084c7:	ret    0xc
 18084ca:	mov    ecx,DWORD PTR [ebp+0xc]
 18084cd:	call   0x18082e3
 18084d2:	xor    eax,eax
 18084d4:	inc    eax
 18084d5:	jmp    0x18084c4
 18084d7:	int3   
 18084d8:	int3   
 18084d9:	int3   
 18084da:	int3   
 18084db:	int3   
 18084dc:	mov    edi,edi
 18084de:	push   ebp
 18084df:	mov    ebp,esp
 18084e1:	push   esi
 18084e2:	mov    esi,DWORD PTR ds:0x1813768
 18084e8:	push   edi
 18084e9:	mov    edi,edx
 18084eb:	cmp    esi,0x64
 18084ee:	jae    0x1808539
 18084f0:	mov    eax,esi
 18084f2:	inc    esi
 18084f3:	imul   edx,eax,0x1c
 18084f6:	mov    eax,DWORD PTR [ebp+0x8]
 18084f9:	mov    DWORD PTR ds:0x1813768,esi
 18084ff:	mov    DWORD PTR [edx+0x1813fe8],eax
 1808505:	mov    eax,DWORD PTR [ebp+0xc]
 1808508:	mov    DWORD PTR [edx+0x1813fec],eax
 180850e:	mov    eax,DWORD PTR [ebp+0x10]
 1808511:	mov    DWORD PTR [edx+0x1813ff0],eax
 1808517:	mov    eax,DWORD PTR [ebp+0x14]
 180851a:	mov    DWORD PTR [edx+0x1813ff4],eax
 1808520:	mov    eax,DWORD PTR [ebp+0x18]
 1808523:	mov    DWORD PTR [edx+0x1813ff8],eax
 1808529:	xor    eax,eax
 180852b:	mov    DWORD PTR [edx+0x1813fe0],ecx
 1808531:	mov    DWORD PTR [edx+0x1813fe4],edi
 1808537:	jmp    0x180853c
 1808539:	push   0x8
 180853b:	pop    eax
 180853c:	pop    edi
 180853d:	pop    esi
 180853e:	pop    ebp
 180853f:	ret    0x14
 1808542:	int3   
 1808543:	int3   
 1808544:	int3   
 1808545:	int3   
 1808546:	int3   
 1808547:	int3   
 1808548:	int3   
 1808549:	int3   
 180854a:	int3   
 180854b:	int3   
 180854c:	int3   
 180854d:	int3   
 180854e:	int3   
 180854f:	int3   
 1808550:	mov    edi,edi
 1808552:	push   ebp
 1808553:	mov    ebp,esp
 1808555:	mov    eax,DWORD PTR [ebp+0xc]
 1808558:	push   DWORD PTR [eax+0xc]
 180855b:	mov    eax,DWORD PTR [ebp+0x8]
 180855e:	push   DWORD PTR [eax+0xc]
 1808561:	call   DWORD PTR ds:0x18191d4
 1808567:	pop    ecx
 1808568:	pop    ecx
 1808569:	pop    ebp
 180856a:	ret    
 180856b:	int3   
 180856c:	int3   
 180856d:	int3   
 180856e:	int3   
 180856f:	int3   
 1808570:	mov    edi,edi
 1808572:	push   ebp
 1808573:	mov    ebp,esp
 1808575:	push   ecx
 1808576:	push   ecx
 1808577:	push   ebx
 1808578:	push   edi
 1808579:	push   0x1808550
 180857e:	push   0x1c
 1808580:	push   DWORD PTR ds:0x1813768
 1808586:	push   0x1813fe0
 180858b:	call   DWORD PTR ds:0x18191fc
 1808591:	xor    ebx,ebx
 1808593:	add    esp,0x10
 1808596:	mov    edi,ebx
 1808598:	mov    DWORD PTR [ebp-0x8],ebx
 180859b:	cmp    DWORD PTR ds:0x1813768,ebx
 18085a1:	jbe    0x18086b3
 18085a7:	push   esi
 18085a8:	mov    esi,0x1813fec
 18085ad:	cmp    DWORD PTR [esi-0x4],0x2
 18085b1:	jne    0x1808660
 18085b7:	mov    ecx,DWORD PTR [esi+0xc]
 18085ba:	test   ecx,ecx
 18085bc:	je     0x1808660
 18085c2:	lea    edx,[ecx+0x2]
 18085c5:	mov    ax,WORD PTR [ecx]
 18085c8:	add    ecx,0x2
 18085cb:	cmp    ax,bx
 18085ce:	jne    0x18085c5
 18085d0:	sub    ecx,edx
 18085d2:	mov    edx,DWORD PTR [esi]
 18085d4:	sar    ecx,1
 18085d6:	lea    ebx,[edx+0x2]
 18085d9:	mov    ax,WORD PTR [edx]
 18085dc:	add    edx,0x2
 18085df:	cmp    ax,WORD PTR [ebp-0x8]
 18085e3:	jne    0x18085d9
 18085e5:	sub    edx,ebx
 18085e7:	lea    eax,[ecx+0x2]
 18085ea:	sar    edx,1
 18085ec:	add    eax,edx
 18085ee:	mov    DWORD PTR [ebp-0x4],eax
 18085f1:	add    eax,eax
 18085f3:	push   eax
 18085f4:	xor    eax,eax
 18085f6:	push   eax
 18085f7:	call   DWORD PTR ds:0x1819098
 18085fd:	push   eax
 18085fe:	call   DWORD PTR ds:0x1819094
 1808604:	mov    ebx,eax
 1808606:	test   ebx,ebx
 1808608:	jne    0x1808618
 180860a:	push   DWORD PTR [esi]
 180860c:	push   0x1801688
 1808611:	call   0x18080b0
 1808616:	jmp    0x180866c
 1808618:	push   DWORD PTR [esi+0xc]
 180861b:	mov    edx,DWORD PTR [ebp-0x4]
 180861e:	mov    ecx,ebx
 1808620:	call   0x180235f
 1808625:	mov    edx,DWORD PTR [ebp-0x4]
 1808628:	mov    ecx,ebx
 180862a:	push   0x1801240
 180862f:	call   0x180319e
 1808634:	push   DWORD PTR [esi]
 1808636:	mov    edx,DWORD PTR [ebp-0x4]
 1808639:	mov    ecx,ebx
 180863b:	call   0x180319e
 1808640:	push   ebx
 1808641:	push   0x1801688
 1808646:	call   0x18080b0
 180864b:	pop    ecx
 180864c:	pop    ecx
 180864d:	push   ebx
 180864e:	xor    ebx,ebx
 1808650:	push   ebx
 1808651:	call   DWORD PTR ds:0x1819098
 1808657:	push   eax
 1808658:	call   DWORD PTR ds:0x181909c
 180865e:	jmp    0x180866e
 1808660:	push   DWORD PTR [esi]
 1808662:	push   0x1801688
 1808667:	call   0x18080b0
 180866c:	pop    ecx
 180866d:	pop    ecx
 180866e:	mov    ecx,DWORD PTR [esi-0x8]
 1808671:	mov    eax,0x1801240
 1808676:	cmp    WORD PTR [ecx],bx
 1808679:	jne    0x1808680
 180867b:	mov    eax,0x18015f0
 1808680:	push   eax
 1808681:	push   ecx
 1808682:	push   DWORD PTR [esi+0x8]
 1808685:	push   DWORD PTR [esi+0x4]
 1808688:	push   DWORD PTR [esi-0xc]
 180868b:	call   0x18080e0
 1808690:	add    esp,0x14
 1808693:	test   eax,eax
 1808695:	jne    0x18086a2
 1808697:	push   0x1801244
 180869c:	call   0x18080b0
 18086a1:	pop    ecx
 18086a2:	inc    edi
 18086a3:	add    esi,0x1c
 18086a6:	cmp    edi,DWORD PTR ds:0x1813768
 18086ac:	jb     0x18085ad
 18086b2:	pop    esi
 18086b3:	pop    edi
 18086b4:	mov    DWORD PTR ds:0x1813768,ebx
 18086ba:	xor    eax,eax
 18086bc:	pop    ebx
 18086bd:	mov    esp,ebp
 18086bf:	pop    ebp
 18086c0:	ret    
 18086c1:	int3   
 18086c2:	int3   
 18086c3:	int3   
 18086c4:	int3   
 18086c5:	int3   
 18086c6:	mov    edi,edi
 18086c8:	push   ebp
 18086c9:	mov    ebp,esp
 18086cb:	sub    esp,0x2c
 18086ce:	push   esi
 18086cf:	mov    esi,ecx
 18086d1:	xor    eax,eax
 18086d3:	push   edi
 18086d4:	mov    edi,edx
 18086d6:	mov    DWORD PTR [ebp-0x14],esi
 18086d9:	lea    edx,[ebp-0x18]
 18086dc:	mov    DWORD PTR [ebp-0x8],eax
 18086df:	lea    ecx,[esi+0xc]
 18086e2:	call   0x180378e
 18086e7:	test   eax,eax
 18086e9:	jne    0x1808b4a
 18086ef:	push   ebx
 18086f0:	mov    ebx,DWORD PTR [ebp-0x18]
 18086f3:	lea    edx,[ebp-0x8]
 18086f6:	mov    ecx,esi
 18086f8:	imul   eax,DWORD PTR [ebx+0x30],0x14
 18086fc:	add    eax,DWORD PTR ds:0x1818b10
 1808702:	mov    DWORD PTR [ebp-0xc],eax
 1808705:	call   0x180502f
 180870a:	mov    eax,DWORD PTR [ebx+0x38]
 180870d:	mov    DWORD PTR [ebp-0x28],eax
 1808710:	mov    eax,DWORD PTR [ebx+0x40]
 1808713:	mov    DWORD PTR [ebp-0x2c],eax
 1808716:	mov    eax,DWORD PTR [ebx+0x3c]
 1808719:	mov    ebx,DWORD PTR [ebp+0x8]
 180871c:	mov    DWORD PTR [ebp-0x24],eax
 180871f:	test   bl,0x2
 1808722:	je     0x1808727
 1808724:	or     edi,0x2
 1808727:	test   bl,0x10
 180872a:	je     0x180872f
 180872c:	or     edi,0x10
 180872f:	test   bl,0x8
 1808732:	je     0x1808737
 1808734:	or     edi,0x8
 1808737:	test   bl,0x1
 180873a:	je     0x1808756
 180873c:	mov    eax,ds:0x1818b00
 1808741:	add    eax,DWORD PTR [ebp+0xc]
 1808744:	sub    eax,DWORD PTR ds:0x1818b04
 180874a:	neg    eax
 180874c:	sbb    eax,eax
 180874e:	add    eax,0x1
 1808751:	je     0x1808756
 1808753:	or     ebx,0x4
 1808756:	or     edi,0xffff0000
 180875c:	mov    eax,edi
 180875e:	mov    DWORD PTR [ebp-0x20],edi
 1808761:	and    eax,0x1
 1808764:	mov    DWORD PTR [ebp-0x10],eax
 1808767:	je     0x180877e
 1808769:	push   0x87
 180876e:	push   DWORD PTR ds:0x1818b08
 1808774:	call   0x18080e0
 1808779:	mov    eax,DWORD PTR [ebp-0x10]
 180877c:	pop    ecx
 180877d:	pop    ecx
 180877e:	test   eax,eax
 1808780:	je     0x1808787
 1808782:	test   bl,0x4
 1808785:	je     0x18087a9
 1808787:	lea    edx,[ebp-0x4]
 180878a:	mov    ecx,esi
 180878c:	call   0x1804f99
 1808791:	test   eax,eax
 1808793:	jne    0x18087a9
 1808795:	push   DWORD PTR [ebp+0x10]
 1808798:	mov    ecx,DWORD PTR [ebp-0x4]
 180879b:	mov    edx,edi
 180879d:	push   DWORD PTR [ebp+0xc]
 18087a0:	and    edx,0xfffffffe
 18087a3:	push   ebx
 18087a4:	call   0x18086c6
 18087a9:	xor    edx,edx
 18087ab:	mov    ecx,edx
 18087ad:	mov    DWORD PTR [ebp-0x4],ecx
 18087b0:	cmp    DWORD PTR [ebp+0x10],ecx
 18087b3:	jne    0x180880d
 18087b5:	mov    ebx,DWORD PTR [ebp-0x14]
 18087b8:	mov    esi,edx
 18087ba:	cmp    ecx,DWORD PTR [ebx+0x24]
 18087bd:	jae    0x1808809
 18087bf:	mov    ecx,DWORD PTR [ebx+0x28]
 18087c2:	cmp    DWORD PTR [esi+ecx*1+0xc],0x1
 18087c7:	je     0x18087fd
 18087c9:	mov    eax,edi
 18087cb:	not    eax
 18087cd:	test   DWORD PTR [esi+ecx*1+0x10],eax
 18087d1:	jne    0x18087fd
 18087d3:	mov    ecx,DWORD PTR [esi+ecx*1+0x14]
 18087d7:	call   0x1804977
 18087dc:	test   eax,eax
 18087de:	je     0x18087fd
 18087e0:	mov    eax,DWORD PTR [ebx+0x28]
 18087e3:	xor    ecx,ecx
 18087e5:	mov    edx,DWORD PTR [ebp-0x8]
 18087e8:	push   ecx
 18087e9:	push   ecx
 18087ea:	push   DWORD PTR [esi+eax*1+0x8]
 18087ee:	push   DWORD PTR [esi+eax*1]
 18087f1:	mov    eax,DWORD PTR [ebp-0xc]
 18087f4:	push   ecx
 18087f5:	mov    ecx,DWORD PTR [eax+0xc]
 18087f8:	call   0x18084dc
 18087fd:	mov    ecx,DWORD PTR [ebp-0x4]
 1808800:	inc    ecx
 1808801:	add    esi,0x18
 1808804:	mov    DWORD PTR [ebp-0x4],ecx
 1808807:	jmp    0x18087ba
 1808809:	xor    edx,edx
 180880b:	jmp    0x180880f
 180880d:	mov    ebx,esi
 180880f:	mov    DWORD PTR [ebp-0x4],edx
 1808812:	cmp    DWORD PTR [ebx+0x2c],edx
 1808815:	jbe    0x1808925
 180881b:	mov    esi,edx
 180881d:	mov    ecx,DWORD PTR [ebx+0x30]
 1808820:	cmp    DWORD PTR [esi+ecx*1+0x4],0x1
 1808825:	je     0x1808912
 180882b:	mov    eax,edi
 180882d:	not    eax
 180882f:	mov    DWORD PTR [ebp-0x1c],eax
 1808832:	test   DWORD PTR [esi+ecx*1+0xc],eax
 1808836:	jne    0x1808912
 180883c:	mov    eax,DWORD PTR [esi+ecx*1]
 180883f:	cmp    WORD PTR [eax],dx
 1808842:	je     0x1808912
 1808848:	cmp    DWORD PTR [ebp+0x10],0x0
 180884c:	je     0x18088e5
 1808852:	push   eax
 1808853:	push   DWORD PTR [ebp+0x10]
 1808856:	call   DWORD PTR ds:0x18191d4
 180885c:	pop    ecx
 180885d:	pop    ecx
 180885e:	test   eax,eax
 1808860:	jne    0x1808910
 1808866:	mov    ecx,DWORD PTR [ebx+0x30]
 1808869:	mov    ecx,DWORD PTR [esi+ecx*1+0x14]
 180886d:	call   0x1804977
 1808872:	xor    edx,edx
 1808874:	test   eax,eax
 1808876:	je     0x1808912
 180887c:	mov    eax,DWORD PTR [ebx+0x30]
 180887f:	add    eax,esi
 1808881:	mov    DWORD PTR [ebp-0x14],edx
 1808884:	cmp    DWORD PTR [eax+0x8],edx
 1808887:	jbe    0x1808912
 180888d:	mov    edi,edx
 180888f:	mov    ecx,DWORD PTR [eax+0x10]
 1808892:	mov    eax,DWORD PTR [ebp-0x1c]
 1808895:	test   DWORD PTR [ecx+edi*1+0x10],eax
 1808899:	jne    0x18088cc
 180889b:	mov    ecx,DWORD PTR [ecx+edi*1+0x14]
 180889f:	call   0x1804977
 18088a4:	test   eax,eax
 18088a6:	je     0x18088cc
 18088a8:	mov    eax,DWORD PTR [ebx+0x30]
 18088ab:	xor    ecx,ecx
 18088ad:	push   DWORD PTR [ebp+0x10]
 18088b0:	mov    edx,DWORD PTR [ebp-0x8]
 18088b3:	push   ecx
 18088b4:	mov    eax,DWORD PTR [esi+eax*1+0x10]
 18088b8:	push   DWORD PTR [eax+edi*1+0x8]
 18088bc:	push   DWORD PTR [eax+edi*1]
 18088bf:	mov    eax,DWORD PTR [ebp-0xc]
 18088c2:	push   0x2
 18088c4:	mov    ecx,DWORD PTR [eax+0xc]
 18088c7:	call   0x18084dc
 18088cc:	mov    eax,DWORD PTR [ebx+0x30]
 18088cf:	add    edi,0x18
 18088d2:	mov    ecx,DWORD PTR [ebp-0x14]
 18088d5:	add    eax,esi
 18088d7:	inc    ecx
 18088d8:	mov    DWORD PTR [ebp-0x14],ecx
 18088db:	cmp    ecx,DWORD PTR [eax+0x8]
 18088de:	jb     0x180888f
 18088e0:	mov    edi,DWORD PTR [ebp-0x20]
 18088e3:	jmp    0x1808910
 18088e5:	mov    ecx,DWORD PTR [esi+ecx*1+0x14]
 18088e9:	call   0x1804977
 18088ee:	test   eax,eax
 18088f0:	je     0x1808910
 18088f2:	mov    eax,DWORD PTR [ebx+0x30]
 18088f5:	xor    ecx,ecx
 18088f7:	mov    edx,DWORD PTR [ebp-0x8]
 18088fa:	push   ecx
 18088fb:	push   ecx
 18088fc:	push   DWORD PTR [esi+eax*1+0x4]
 1808900:	push   DWORD PTR [esi+eax*1]
 1808903:	mov    eax,DWORD PTR [ebp-0xc]
 1808906:	push   0x2
 1808908:	mov    ecx,DWORD PTR [eax+0xc]
 180890b:	call   0x18084dc
 1808910:	xor    edx,edx
 1808912:	mov    ecx,DWORD PTR [ebp-0x4]
 1808915:	add    esi,0x18
 1808918:	inc    ecx
 1808919:	mov    DWORD PTR [ebp-0x4],ecx
 180891c:	cmp    ecx,DWORD PTR [ebx+0x2c]
 180891f:	jb     0x180881d
 1808925:	cmp    DWORD PTR [ebp+0x10],0x0
 1808929:	mov    ebx,edx
 180892b:	mov    ecx,DWORD PTR ds:0x1818b08
 1808931:	jne    0x1808977
 1808933:	mov    esi,DWORD PTR [ebp-0x24]
 1808936:	add    esi,0x8
 1808939:	cmp    ebx,DWORD PTR [ebp-0x28]
 180893c:	jae    0x1808975
 180893e:	mov    eax,edi
 1808940:	not    eax
 1808942:	test   DWORD PTR [esi+0x14],eax
 1808945:	jne    0x180896f
 1808947:	mov    ecx,DWORD PTR [esi+0x3c]
 180894a:	call   0x1804977
 180894f:	mov    ecx,DWORD PTR ds:0x1818b08
 1808955:	test   eax,eax
 1808957:	je     0x180896f
 1808959:	mov    edx,DWORD PTR [ebp-0x8]
 180895c:	xor    eax,eax
 180895e:	push   eax
 180895f:	push   DWORD PTR [esi]
 1808961:	push   0x89
 1808966:	push   DWORD PTR [esi]
 1808968:	push   0x1
 180896a:	call   0x18084dc
 180896f:	inc    ebx
 1808970:	add    esi,DWORD PTR [ebp-0x2c]
 1808973:	jmp    0x1808939
 1808975:	xor    edx,edx
 1808977:	mov    ebx,DWORD PTR [ebp-0x10]
 180897a:	test   ebx,ebx
 180897c:	je     0x1808a6b
 1808982:	cmp    DWORD PTR [ebp+0x10],0x0
 1808986:	jne    0x1808a6b
 180898c:	mov    esi,edx
 180898e:	mov    edx,DWORD PTR ds:0x1813768
 1808994:	cmp    esi,0x48
 1808997:	jae    0x1808a73
 180899d:	cmp    DWORD PTR [esi+0x180b15c],0x1
 18089a4:	je     0x1808a63
 18089aa:	mov    eax,edi
 18089ac:	not    eax
 18089ae:	test   DWORD PTR [esi+0x180b160],eax
 18089b4:	jne    0x1808a63
 18089ba:	xor    eax,eax
 18089bc:	mov    ebx,eax
 18089be:	test   edx,edx
 18089c0:	je     0x1808a3c
 18089c2:	mov    eax,0x1813fec
 18089c7:	mov    DWORD PTR [ebp-0x14],eax
 18089ca:	mov    eax,DWORD PTR [eax]
 18089cc:	mov    DWORD PTR [ebp-0xc],eax
 18089cf:	mov    eax,DWORD PTR [esi+0x180b150]
 18089d5:	mov    ecx,DWORD PTR [ebp-0xc]
 18089d8:	mov    dx,WORD PTR [eax]
 18089db:	cmp    dx,WORD PTR [ecx]
 18089de:	mov    ecx,DWORD PTR ds:0x1818b08
 18089e4:	mov    edx,DWORD PTR ds:0x1813768
 18089ea:	jne    0x1808a25
 18089ec:	cmp    WORD PTR [eax],0x0
 18089f0:	je     0x1808a21
 18089f2:	mov    cx,WORD PTR [eax+0x2]
 18089f6:	mov    WORD PTR [ebp-0x2],cx
 18089fa:	mov    ecx,DWORD PTR [ebp-0xc]
 18089fd:	mov    dx,WORD PTR [ebp-0x2]
 1808a01:	cmp    dx,WORD PTR [ecx+0x2]
 1808a05:	mov    ecx,DWORD PTR ds:0x1818b08
 1808a0b:	mov    edx,DWORD PTR ds:0x1813768
 1808a11:	jne    0x1808a25
 1808a13:	add    DWORD PTR [ebp-0xc],0x4
 1808a17:	add    eax,0x4
 1808a1a:	cmp    WORD PTR [ebp-0x2],0x0
 1808a1f:	jne    0x18089d5
 1808a21:	xor    eax,eax
 1808a23:	jmp    0x1808a2a
 1808a25:	sbb    eax,eax
 1808a27:	or     eax,0x1
 1808a2a:	test   eax,eax
 1808a2c:	je     0x1808a3f
 1808a2e:	mov    eax,DWORD PTR [ebp-0x14]
 1808a31:	inc    ebx
 1808a32:	add    eax,0x1c
 1808a35:	mov    DWORD PTR [ebp-0x14],eax
 1808a38:	cmp    ebx,edx
 1808a3a:	jb     0x18089ca
 1808a3c:	or     ebx,0xffffffff
 1808a3f:	cmp    ebx,0xffffffff
 1808a42:	jne    0x1808a63
 1808a44:	mov    edx,DWORD PTR [ebp-0x8]
 1808a47:	xor    eax,eax
 1808a49:	push   eax
 1808a4a:	push   eax
 1808a4b:	push   DWORD PTR [esi+0x180b158]
 1808a51:	push   DWORD PTR [esi+0x180b150]
 1808a57:	push   eax
 1808a58:	call   0x18084dc
 1808a5d:	mov    edx,DWORD PTR ds:0x1813768
 1808a63:	add    esi,0x18
 1808a66:	jmp    0x1808994
 1808a6b:	mov    edx,DWORD PTR ds:0x1813768
 1808a71:	jmp    0x1808a76
 1808a73:	mov    ebx,DWORD PTR [ebp-0x10]
 1808a76:	test   edx,edx
 1808a78:	je     0x1808ab1
 1808a7a:	test   ebx,ebx
 1808a7c:	je     0x1808a82
 1808a7e:	push   0x71
 1808a80:	jmp    0x1808a9e
 1808a82:	mov    eax,ds:0x1813fe4
 1808a87:	xor    edx,edx
 1808a89:	cmp    WORD PTR [eax],dx
 1808a8c:	je     0x1808a9c
 1808a8e:	push   eax
 1808a8f:	push   0x70
 1808a91:	push   ecx
 1808a92:	call   0x18080e0
 1808a97:	add    esp,0xc
 1808a9a:	jmp    0x1808aa6
 1808a9c:	push   0x6f
 1808a9e:	push   ecx
 1808a9f:	call   0x18080e0
 1808aa4:	pop    ecx
 1808aa5:	pop    ecx
 1808aa6:	call   0x1808570
 1808aab:	mov    ecx,DWORD PTR ds:0x1818b08
 1808ab1:	test   ebx,ebx
 1808ab3:	je     0x1808b2e
 1808ab5:	cmp    DWORD PTR [ebp+0x10],0x0
 1808ab9:	jne    0x1808b2e
 1808abb:	mov    ebx,DWORD PTR [ebp-0x18]
 1808abe:	mov    eax,DWORD PTR [ebx+0x40]
 1808ac1:	mov    esi,DWORD PTR [ebx+0x3c]
 1808ac4:	mov    ebx,DWORD PTR [ebx+0x38]
 1808ac7:	mov    DWORD PTR [ebp-0x10],eax
 1808aca:	test   ebx,ebx
 1808acc:	je     0x1808b1e
 1808ace:	push   0x69
 1808ad0:	push   ecx
 1808ad1:	call   0x18080e0
 1808ad6:	pop    ecx
 1808ad7:	pop    ecx
 1808ad8:	test   ebx,ebx
 1808ada:	je     0x1808b0d
 1808adc:	mov    eax,DWORD PTR [ebp-0x10]
 1808adf:	not    edi
 1808ae1:	add    esi,0x44
 1808ae4:	test   DWORD PTR [esi-0x28],edi
 1808ae7:	jne    0x1808b06
 1808ae9:	mov    ecx,DWORD PTR [esi]
 1808aeb:	call   0x1804977
 1808af0:	test   eax,eax
 1808af2:	je     0x1808b03
 1808af4:	push   DWORD PTR [esi-0x3c]
 1808af7:	push   0x18016a0
 1808afc:	call   0x18080b0
 1808b01:	pop    ecx
 1808b02:	pop    ecx
 1808b03:	mov    eax,DWORD PTR [ebp-0x10]
 1808b06:	add    esi,eax
 1808b08:	sub    ebx,0x1
 1808b0b:	jne    0x1808ae4
 1808b0d:	push   0x1801244
 1808b12:	call   0x18080b0
 1808b17:	pop    ecx
 1808b18:	mov    ecx,DWORD PTR ds:0x1818b08
 1808b1e:	push   0x18011d4
 1808b23:	push   0x6b
 1808b25:	push   ecx
 1808b26:	call   0x18080e0
 1808b2b:	add    esp,0xc
 1808b2e:	cmp    DWORD PTR [ebp-0x8],0x0
 1808b32:	pop    ebx
 1808b33:	je     0x1808b48
 1808b35:	push   DWORD PTR [ebp-0x8]
 1808b38:	xor    eax,eax
 1808b3a:	push   eax
 1808b3b:	call   DWORD PTR ds:0x1819098
 1808b41:	push   eax
 1808b42:	call   DWORD PTR ds:0x181909c
 1808b48:	xor    eax,eax
 1808b4a:	pop    edi
 1808b4b:	pop    esi
 1808b4c:	mov    esp,ebp
 1808b4e:	pop    ebp
 1808b4f:	ret    0xc
 1808b52:	int3   
 1808b53:	int3   
 1808b54:	int3   
 1808b55:	int3   
 1808b56:	int3   
 1808b57:	int3   
 1808b58:	int3   
 1808b59:	int3   
 1808b5a:	int3   
 1808b5b:	int3   
 1808b5c:	int3   
 1808b5d:	int3   
 1808b5e:	int3   
 1808b5f:	int3   
 1808b60:	mov    edi,edi
 1808b62:	push   ebp
 1808b63:	mov    ebp,esp
 1808b65:	push   ebx
 1808b66:	push   esi
 1808b67:	mov    esi,DWORD PTR [ebp+0x14]
 1808b6a:	xor    eax,eax
 1808b6c:	sub    esi,DWORD PTR [ebp+0x10]
 1808b6f:	push   edi
 1808b70:	cmp    DWORD PTR [ebp+0xc],eax
 1808b73:	je     0x1808c3d
 1808b79:	mov    edi,DWORD PTR [ebp+0x1c]
 1808b7c:	mov    ebx,DWORD PTR [ebp+0x18]
 1808b7f:	test   esi,esi
 1808b81:	je     0x1808b9c
 1808b83:	cmp    DWORD PTR [ebp+0x28],eax
 1808b86:	je     0x1808c3d
 1808b8c:	test   ebx,ebx
 1808b8e:	je     0x1808c3d
 1808b94:	test   edi,edi
 1808b96:	je     0x1808c3d
 1808b9c:	test   edi,edi
 1808b9e:	je     0x1808baf
 1808ba0:	lea    ecx,[ebx+0x8]
 1808ba3:	mov    edx,edi
 1808ba5:	and    DWORD PTR [ecx],eax
 1808ba7:	lea    ecx,[ecx+0xc]
 1808baa:	sub    edx,0x1
 1808bad:	jne    0x1808ba5
 1808baf:	cmp    esi,DWORD PTR [ebp+0x20]
 1808bb2:	jb     0x1808bde
 1808bb4:	cmp    esi,DWORD PTR [ebp+0x24]
 1808bb7:	ja     0x1808bde
 1808bb9:	test   esi,esi
 1808bbb:	je     0x1808be5
 1808bbd:	push   DWORD PTR [ebp+0x28]
 1808bc0:	push   edi
 1808bc1:	push   ebx
 1808bc2:	push   DWORD PTR [ebp+0x14]
 1808bc5:	push   DWORD PTR [ebp+0x10]
 1808bc8:	push   DWORD PTR [ebp+0xc]
 1808bcb:	push   DWORD PTR [ebp+0x8]
 1808bce:	call   0x1807680
 1808bd3:	test   eax,eax
 1808bd5:	je     0x1808be5
 1808bd7:	cmp    eax,0x3aa1
 1808bdc:	jne    0x1808c40
 1808bde:	mov    eax,0x3a99
 1808be3:	jmp    0x1808c40
 1808be5:	xor    ecx,ecx
 1808be7:	test   esi,esi
 1808be9:	je     0x1808c05
 1808beb:	mov    edx,DWORD PTR [ebp+0x28]
 1808bee:	cmp    DWORD PTR [edx+ecx*4],0x0
 1808bf2:	jl     0x1808c00
 1808bf4:	cmp    DWORD PTR [edx+ecx*4],edi
 1808bf7:	jae    0x1808c00
 1808bf9:	inc    ecx
 1808bfa:	cmp    ecx,esi
 1808bfc:	jb     0x1808bee
 1808bfe:	jmp    0x1808c05
 1808c00:	mov    eax,0x3a99
 1808c05:	test   eax,eax
 1808c07:	jne    0x1808c40
 1808c09:	xor    ecx,ecx
 1808c0b:	test   edi,edi
 1808c0d:	je     0x1808c25
 1808c0f:	lea    eax,[ebx+0x8]
 1808c12:	test   BYTE PTR [eax-0x4],0x1
 1808c16:	je     0x1808c1d
 1808c18:	cmp    DWORD PTR [eax],0x0
 1808c1b:	je     0x1808c29
 1808c1d:	inc    ecx
 1808c1e:	add    eax,0xc
 1808c21:	cmp    ecx,edi
 1808c23:	jb     0x1808c12
 1808c25:	xor    eax,eax
 1808c27:	jmp    0x1808c40
 1808c29:	push   0x3aa3
 1808c2e:	push   DWORD PTR ds:0x1818b08
 1808c34:	call   0x18080e0
 1808c39:	pop    ecx
 1808c3a:	pop    ecx
 1808c3b:	jmp    0x1808bde
 1808c3d:	push   0x57
 1808c3f:	pop    eax
 1808c40:	pop    edi
 1808c41:	pop    esi
 1808c42:	pop    ebx
 1808c43:	pop    ebp
 1808c44:	ret    0x24
 1808c47:	int3   
 1808c48:	int3   
 1808c49:	int3   
 1808c4a:	int3   
 1808c4b:	int3   
 1808c4c:	cmp    DWORD PTR ds:0x180b25c,0xffffffff
 1808c53:	push   edi
 1808c54:	mov    edi,ecx
 1808c56:	jne    0x1808c7c
 1808c58:	push   esi
 1808c59:	xor    esi,esi
 1808c5b:	push   DWORD PTR [esi*8+0x18132d0]
 1808c62:	push   edi
 1808c63:	call   DWORD PTR ds:0x181912c
 1808c69:	test   eax,eax
 1808c6b:	je     0x1808c75
 1808c6d:	inc    esi
 1808c6e:	cmp    esi,0x7
 1808c71:	jb     0x1808c5b
 1808c73:	jmp    0x1808c7b
 1808c75:	mov    DWORD PTR ds:0x180b25c,esi
 1808c7b:	pop    esi
 1808c7c:	pop    edi
 1808c7d:	ret    
 1808c7e:	int3   
 1808c7f:	int3   
 1808c80:	int3   
 1808c81:	int3   
 1808c82:	int3   
 1808c83:	mov    edi,edi
 1808c85:	push   ebp
 1808c86:	mov    ebp,esp
 1808c88:	push   ecx
 1808c89:	push   ecx
 1808c8a:	mov    eax,ds:0x180b25c
 1808c8f:	cmp    eax,0xffffffff
 1808c92:	je     0x1808cc5
 1808c94:	test   eax,eax
 1808c96:	js     0x1808cc5
 1808c98:	cmp    eax,0x7
 1808c9b:	jae    0x1808cc5
 1808c9d:	mov    eax,DWORD PTR [eax*8+0x18132d4]
 1808ca4:	lea    ecx,[ebp-0x8]
 1808ca7:	and    DWORD PTR [ebp-0x8],0x0
 1808cab:	xor    edx,edx
 1808cad:	and    DWORD PTR [ebp-0x4],0x0
 1808cb1:	inc    edx
 1808cb2:	push   ecx
 1808cb3:	mov    eax,DWORD PTR [eax]
 1808cb5:	push   edx
 1808cb6:	push   eax
 1808cb7:	push   0x0
 1808cb9:	mov    DWORD PTR [ebp-0x4],edx
 1808cbc:	mov    DWORD PTR [ebp-0x8],edx
 1808cbf:	call   DWORD PTR ds:0x181920c
 1808cc5:	mov    esp,ebp
 1808cc7:	pop    ebp
 1808cc8:	ret    
 1808cc9:	int3   
 1808cca:	int3   
 1808ccb:	int3   
 1808ccc:	int3   
 1808ccd:	int3   
 1808cce:	mov    edi,edi
 1808cd0:	push   ebp
 1808cd1:	mov    ebp,esp
 1808cd3:	sub    esp,0x1c
 1808cd6:	mov    eax,ds:0x180b004
 1808cdb:	xor    eax,ebp
 1808cdd:	mov    DWORD PTR [ebp-0x4],eax
 1808ce0:	push   ebx
 1808ce1:	push   esi
 1808ce2:	mov    esi,edx
 1808ce4:	mov    DWORD PTR [ebp-0x14],0x705eca2
 1808ceb:	mov    edx,ecx
 1808ced:	mov    DWORD PTR [ebp-0x10],0x11d27aac
 1808cf4:	xor    ebx,ebx
 1808cf6:	mov    DWORD PTR [ebp-0x18],edx
 1808cf9:	push   edi
 1808cfa:	mov    DWORD PTR [ebp-0xc],0x6000dc89
 1808d01:	mov    edi,0x1813384
 1808d06:	mov    DWORD PTR [ebp-0x8],0xb9e5b008
 1808d0d:	mov    DWORD PTR [ebp-0x1c],ebx
 1808d10:	push   DWORD PTR [edi-0x4]
 1808d13:	push   DWORD PTR [edx+0x8]
 1808d16:	call   DWORD PTR ds:0x181912c
 1808d1c:	mov    edx,DWORD PTR [ebp-0x18]
 1808d1f:	test   eax,eax
 1808d21:	jne    0x1808d3c
 1808d23:	mov    ecx,ebx
 1808d25:	mov    eax,DWORD PTR [edx+ecx*4+0xc]
 1808d29:	cmp    eax,DWORD PTR [edi+ecx*4]
 1808d2c:	jne    0x1808d3c
 1808d2e:	inc    ecx
 1808d2f:	cmp    ecx,0x4
 1808d32:	jne    0x1808d25
 1808d34:	xor    eax,eax
 1808d36:	inc    eax
 1808d37:	jmp    0x1808e68
 1808d3c:	mov    eax,DWORD PTR [ebp-0x1c]
 1808d3f:	add    edi,0x14
 1808d42:	add    eax,0x14
 1808d45:	mov    DWORD PTR [ebp-0x1c],eax
 1808d48:	cmp    eax,0x50
 1808d4b:	jb     0x1808d10
 1808d4d:	push   0x1801974
 1808d52:	push   DWORD PTR [edx+0x8]
 1808d55:	call   DWORD PTR ds:0x181912c
 1808d5b:	test   eax,eax
 1808d5d:	jne    0x1808e66
 1808d63:	mov    edx,DWORD PTR [ebp-0x18]
 1808d66:	lea    edi,[ebp-0x14]
 1808d69:	mov    ecx,ebx
 1808d6b:	mov    eax,DWORD PTR [edx+ecx*4+0xc]
 1808d6f:	cmp    eax,DWORD PTR [edi+ecx*4]
 1808d72:	jne    0x1808e66
 1808d78:	inc    ecx
 1808d79:	cmp    ecx,0x4
 1808d7c:	jne    0x1808d6b
 1808d7e:	mov    eax,DWORD PTR [ebp+0x8]
 1808d81:	cmp    eax,0x1
 1808d84:	jbe    0x1808e66
 1808d8a:	lea    edi,[eax-0x1]
 1808d8d:	test   edi,edi
 1808d8f:	je     0x1808e66
 1808d95:	push   0x180198c
 1808d9a:	push   DWORD PTR [esi+ebx*4]
 1808d9d:	call   0x18078c0
 1808da2:	test   eax,eax
 1808da4:	jne    0x1808e66
 1808daa:	push   0x1801484
 1808daf:	push   DWORD PTR [esi+ebx*4]
 1808db2:	call   0x18078c0
 1808db7:	test   eax,eax
 1808db9:	jne    0x1808dcc
 1808dbb:	push   0x180148c
 1808dc0:	push   DWORD PTR [esi+ebx*4]
 1808dc3:	call   0x18078c0
 1808dc8:	test   eax,eax
 1808dca:	je     0x1808df4
 1808dcc:	push   0x180197c
 1808dd1:	push   DWORD PTR [esi+ebx*4+0x4]
 1808dd5:	call   0x18078c0
 1808dda:	test   eax,eax
 1808ddc:	jne    0x1808e66
 1808de2:	push   0x18011b4
 1808de7:	push   DWORD PTR [esi+ebx*4+0x4]
 1808deb:	call   0x18078c0
 1808df0:	test   eax,eax
 1808df2:	jne    0x1808e66
 1808df4:	push   0x180146c
 1808df9:	push   DWORD PTR [esi+ebx*4]
 1808dfc:	call   0x18078c0
 1808e01:	test   eax,eax
 1808e03:	jne    0x1808d34
 1808e09:	push   0x1801474
 1808e0e:	push   DWORD PTR [esi+ebx*4]
 1808e11:	call   0x18078c0
 1808e16:	test   eax,eax
 1808e18:	jne    0x1808d34
 1808e1e:	push   0x18013b0
 1808e23:	push   DWORD PTR [esi+ebx*4]
 1808e26:	call   0x18078c0
 1808e2b:	test   eax,eax
 1808e2d:	jne    0x1808d34
 1808e33:	push   0x1801484
 1808e38:	push   DWORD PTR [esi+ebx*4]
 1808e3b:	call   0x18078c0
 1808e40:	test   eax,eax
 1808e42:	jne    0x1808d34
 1808e48:	push   0x180148c
 1808e4d:	push   DWORD PTR [esi+ebx*4]
 1808e50:	call   0x18078c0
 1808e55:	test   eax,eax
 1808e57:	jne    0x1808d34
 1808e5d:	inc    ebx
 1808e5e:	cmp    ebx,edi
 1808e60:	jb     0x1808d95
 1808e66:	xor    eax,eax
 1808e68:	mov    ecx,DWORD PTR [ebp-0x4]
 1808e6b:	pop    edi
 1808e6c:	pop    esi
 1808e6d:	xor    ecx,ebp
 1808e6f:	pop    ebx
 1808e70:	call   0x1809990
 1808e75:	mov    esp,ebp
 1808e77:	pop    ebp
 1808e78:	ret    0x4
 1808e7b:	int3   
 1808e7c:	int3   
 1808e7d:	int3   
 1808e7e:	int3   
 1808e7f:	int3   
 1808e80:	mov    edi,edi
 1808e82:	push   ebp
 1808e83:	mov    ebp,esp
 1808e85:	sub    esp,0xc
 1808e88:	and    DWORD PTR [ebp-0x4],0x0
 1808e8c:	lea    eax,[ebp-0x4]
 1808e8f:	and    DWORD PTR [ebp-0x8],0x0
 1808e93:	push   esi
 1808e94:	push   eax
 1808e95:	push   0x80000002
 1808e9a:	push   DWORD PTR ds:0x181375c
 1808ea0:	mov    DWORD PTR [ebp-0xc],0x4
 1808ea7:	call   DWORD PTR ds:0x181b014
 1808ead:	mov    esi,eax
 1808eaf:	test   esi,esi
 1808eb1:	jne    0x1808ee4
 1808eb3:	lea    eax,[ebp-0xc]
 1808eb6:	push   eax
 1808eb7:	lea    eax,[ebp-0x8]
 1808eba:	push   eax
 1808ebb:	push   esi
 1808ebc:	push   0x18
 1808ebe:	push   0x18019a4
 1808ec3:	push   0x18019d0
 1808ec8:	push   DWORD PTR [ebp-0x4]
 1808ecb:	call   DWORD PTR ds:0x181910c
 1808ed1:	mov    esi,eax
 1808ed3:	test   esi,esi
 1808ed5:	jne    0x1808ee4
 1808ed7:	cmp    DWORD PTR [ebp-0x8],0x1
 1808edb:	setne  al
 1808ede:	inc    eax
 1808edf:	mov    ds:0x181376c,eax
 1808ee4:	cmp    DWORD PTR [ebp-0x4],0x0
 1808ee8:	je     0x1808ef3
 1808eea:	push   DWORD PTR [ebp-0x4]
 1808eed:	call   DWORD PTR ds:0x1819110
 1808ef3:	mov    eax,esi
 1808ef5:	pop    esi
 1808ef6:	mov    esp,ebp
 1808ef8:	pop    ebp
 1808ef9:	ret    
 1808efa:	int3   
 1808efb:	int3   
 1808efc:	int3   
 1808efd:	int3   
 1808efe:	int3   
 1808eff:	mov    edi,edi
 1808f01:	push   ebp
 1808f02:	mov    ebp,esp
 1808f04:	push   esi
 1808f05:	push   edi
 1808f06:	mov    edi,DWORD PTR [ebp+0x8]
 1808f09:	xor    esi,esi
 1808f0b:	mov    edx,0x104
 1808f10:	sub    edi,ecx
 1808f12:	lea    eax,[edx+0x7ffffefa]
 1808f18:	test   eax,eax
 1808f1a:	je     0x1808f30
 1808f1c:	movzx  eax,WORD PTR [edi+ecx*1]
 1808f20:	test   ax,ax
 1808f23:	je     0x1808f30
 1808f25:	mov    WORD PTR [ecx],ax
 1808f28:	add    ecx,0x2
 1808f2b:	sub    edx,0x1
 1808f2e:	jne    0x1808f12
 1808f30:	test   edx,edx
 1808f32:	jne    0x1808f3c
 1808f34:	sub    ecx,0x2
 1808f37:	mov    esi,0x8007007a
 1808f3c:	xor    eax,eax
 1808f3e:	mov    WORD PTR [ecx],ax
 1808f41:	mov    eax,esi
 1808f43:	pop    edi
 1808f44:	pop    esi
 1808f45:	pop    ebp
 1808f46:	ret    0x4
 1808f49:	int3   
 1808f4a:	int3   
 1808f4b:	int3   
 1808f4c:	int3   
 1808f4d:	int3   
 1808f4e:	mov    edi,edi
 1808f50:	push   ebp
 1808f51:	mov    ebp,esp
 1808f53:	sub    esp,0x1c
 1808f56:	push   ebx
 1808f57:	push   esi
 1808f58:	xor    esi,esi
 1808f5a:	mov    DWORD PTR [ebp-0x14],edx
 1808f5d:	mov    ebx,ecx
 1808f5f:	test   edx,edx
 1808f61:	je     0x1808f7c
 1808f63:	push   edi
 1808f64:	lea    edi,[edx+0x2]
 1808f67:	mov    ax,WORD PTR [edx]
 1808f6a:	add    edx,0x2
 1808f6d:	cmp    ax,si
 1808f70:	jne    0x1808f67
 1808f72:	sub    edx,edi
 1808f74:	sar    edx,1
 1808f76:	mov    DWORD PTR [ebp-0x10],edx
 1808f79:	pop    edi
 1808f7a:	jmp    0x1808f7f
 1808f7c:	mov    DWORD PTR [ebp-0x10],esi
 1808f7f:	mov    ecx,DWORD PTR [ebp+0xc]
 1808f82:	mov    DWORD PTR [ebp-0xc],ecx
 1808f85:	test   ecx,ecx
 1808f87:	je     0x1808fa0
 1808f89:	lea    edx,[ecx+0x2]
 1808f8c:	mov    ax,WORD PTR [ecx]
 1808f8f:	add    ecx,0x2
 1808f92:	cmp    ax,si
 1808f95:	jne    0x1808f8c
 1808f97:	sub    ecx,edx
 1808f99:	sar    ecx,1
 1808f9b:	mov    DWORD PTR [ebp-0x8],ecx
 1808f9e:	jmp    0x1808fa3
 1808fa0:	mov    DWORD PTR [ebp-0x8],esi
 1808fa3:	mov    ecx,DWORD PTR [ebp+0x8]
 1808fa6:	mov    DWORD PTR [ebp-0x1c],ecx
 1808fa9:	test   ecx,ecx
 1808fab:	je     0x1808fc4
 1808fad:	lea    edx,[ecx+0x2]
 1808fb0:	mov    ax,WORD PTR [ecx]
 1808fb3:	add    ecx,0x2
 1808fb6:	cmp    ax,si
 1808fb9:	jne    0x1808fb0
 1808fbb:	sub    ecx,edx
 1808fbd:	sar    ecx,1
 1808fbf:	mov    DWORD PTR [ebp-0x18],ecx
 1808fc2:	jmp    0x1808fc7
 1808fc4:	mov    DWORD PTR [ebp-0x18],esi
 1808fc7:	push   esi
 1808fc8:	lea    eax,[ebp-0x1c]
 1808fcb:	mov    DWORD PTR [ebp-0x4],0x2
 1808fd2:	push   eax
 1808fd3:	push   0x3
 1808fd5:	push   0x4
 1808fd7:	push   0xffffffff
 1808fd9:	push   esi
 1808fda:	push   0xffffffff
 1808fdc:	push   ebx
 1808fdd:	call   DWORD PTR ds:0x1819014
 1808fe3:	pop    esi
 1808fe4:	pop    ebx
 1808fe5:	mov    esp,ebp
 1808fe7:	pop    ebp
 1808fe8:	ret    0x8
 1808feb:	int3   
 1808fec:	int3   
 1808fed:	int3   
 1808fee:	int3   
 1808fef:	int3   
 1808ff0:	int3   
 1808ff1:	mov    edi,edi
 1808ff3:	push   ebp
 1808ff4:	mov    ebp,esp
 1808ff6:	and    esp,0xfffffff8
 1808ff9:	sub    esp,0x6b4
 1808fff:	mov    eax,ds:0x180b004
 1809004:	xor    eax,esp
 1809006:	mov    DWORD PTR [esp+0x6b0],eax
 180900d:	mov    eax,DWORD PTR [ebp+0x8]
 1809010:	push   ebx
 1809011:	push   esi
 1809012:	push   edi
 1809013:	mov    DWORD PTR [esp+0x1c],eax
 1809017:	xor    ebx,ebx
 1809019:	xor    eax,eax
 180901b:	mov    DWORD PTR ds:0x1813fb8,ebx
 1809021:	push   0x6
 1809023:	inc    eax
 1809024:	mov    edi,edx
 1809026:	push   ebx
 1809027:	mov    esi,ecx
 1809029:	mov    ds:0x1813fbc,eax
 180902e:	call   DWORD PTR ds:0x181901c
 1809034:	test   eax,eax
 1809036:	jns    0x1809043
 1809038:	cmp    eax,0x80010106
 180903d:	jne    0x1809574
 1809043:	lea    eax,[esp+0x30]
 1809047:	mov    DWORD PTR [esp+0x30],ebx
 180904b:	push   eax
 180904c:	push   0x1801b9c
 1809051:	push   0x1
 1809053:	push   ebx
 1809054:	push   0x1801b8c
 1809059:	call   DWORD PTR ds:0x1819018
 180905f:	test   eax,eax
 1809061:	js     0x1809574
 1809067:	and    DWORD PTR [esp+0x20],ebx
 180906b:	mov    DWORD PTR [esp+0x18],ebx
 180906f:	test   esi,esi
 1809071:	jne    0x1809078
 1809073:	mov    esi,0x1801a44
 1809078:	push   esi
 1809079:	push   0x1801a48
 180907e:	mov    esi,0x104
 1809083:	lea    eax,[esp+0xa8]
 180908a:	push   esi
 180908b:	push   eax
 180908c:	call   0x180507b
 1809091:	add    esp,0x10
 1809094:	lea    eax,[esp+0xa0]
 180909b:	push   eax
 180909c:	call   DWORD PTR ds:0x1819000
 18090a2:	mov    DWORD PTR [esp+0x28],eax
 18090a6:	test   eax,eax
 18090a8:	je     0x180913a
 18090ae:	test   edi,edi
 18090b0:	je     0x180911d
 18090b2:	push   esi
 18090b3:	lea    eax,[esp+0x2ac]
 18090ba:	push   eax
 18090bb:	push   esi
 18090bc:	lea    eax,[esp+0x4bc]
 18090c3:	push   eax
 18090c4:	push   edi
 18090c5:	call   DWORD PTR ds:0x181b01c
 18090cb:	mov    esi,eax
 18090cd:	test   esi,esi
 18090cf:	jle    0x18090dc
 18090d1:	movzx  esi,si
 18090d4:	or     esi,0x80070000
 18090da:	test   esi,esi
 18090dc:	js     0x180913f
 18090de:	lea    eax,[esp+0x2a8]
 18090e5:	push   eax
 18090e6:	call   DWORD PTR ds:0x1819000
 18090ec:	mov    esi,eax
 18090ee:	lea    eax,[esp+0x4b0]
 18090f5:	push   eax
 18090f6:	mov    DWORD PTR [esp+0x1c],esi
 18090fa:	call   DWORD PTR ds:0x1819000
 1809100:	push   edi
 1809101:	mov    ebx,eax
 1809103:	call   DWORD PTR ds:0x1819000
 1809109:	mov    edi,eax
 180910b:	mov    DWORD PTR [esp+0x20],edi
 180910f:	test   esi,esi
 1809111:	je     0x180913a
 1809113:	test   ebx,ebx
 1809115:	je     0x180913a
 1809117:	test   edi,edi
 1809119:	jne    0x1809121
 180911b:	jmp    0x180913a
 180911d:	mov    edi,DWORD PTR [esp+0x20]
 1809121:	mov    esi,DWORD PTR [esp+0x1c]
 1809125:	push   esi
 1809126:	call   DWORD PTR ds:0x1819000
 180912c:	mov    ecx,eax
 180912e:	mov    DWORD PTR [esp+0x1c],ecx
 1809132:	test   esi,esi
 1809134:	je     0x1809173
 1809136:	test   ecx,ecx
 1809138:	jne    0x1809173
 180913a:	mov    esi,0x8007000e
 180913f:	push   0x0
 1809141:	call   DWORD PTR ds:0x1819008
 1809147:	push   ebx
 1809148:	call   DWORD PTR ds:0x1819008
 180914e:	push   DWORD PTR [esp+0x20]
 1809152:	call   DWORD PTR ds:0x1819008
 1809158:	push   DWORD PTR [esp+0x18]
 180915c:	call   DWORD PTR ds:0x1819008
 1809162:	push   DWORD PTR [esp+0x28]
 1809166:	call   DWORD PTR ds:0x1819008
 180916c:	mov    eax,esi
 180916e:	jmp    0x1809574
 1809173:	mov    eax,DWORD PTR [esp+0x30]
 1809177:	lea    edx,[esp+0x2c]
 180917b:	push   edx
 180917c:	xor    edx,edx
 180917e:	push   edx
 180917f:	mov    esi,DWORD PTR [eax]
 1809181:	push   edx
 1809182:	push   edx
 1809183:	push   edx
 1809184:	push   ecx
 1809185:	mov    ecx,DWORD PTR [esi+0xc]
 1809188:	push   edi
 1809189:	push   DWORD PTR [esp+0x44]
 180918d:	push   eax
 180918e:	call   DWORD PTR ds:0x1819214
 1809194:	call   DWORD PTR [esi+0xc]
 1809197:	mov    edi,eax
 1809199:	test   edi,edi
 180919b:	js     0x18094d8
 18091a1:	push   DWORD PTR [esp+0x1c]
 18091a5:	mov    edx,DWORD PTR [esp+0x1c]
 18091a9:	mov    ecx,DWORD PTR [esp+0x30]
 18091ad:	push   ebx
 18091ae:	call   0x1808f4e
 18091b3:	mov    edi,eax
 18091b5:	test   edi,edi
 18091b7:	js     0x18094d8
 18091bd:	and    DWORD PTR [esp+0x24],0x0
 18091c2:	push   0x1801a68
 18091c7:	call   DWORD PTR ds:0x1819000
 18091cd:	mov    edi,eax
 18091cf:	push   0x1801a70
 18091d4:	mov    DWORD PTR [esp+0x3c],edi
 18091d8:	call   DWORD PTR ds:0x1819000
 18091de:	mov    ecx,DWORD PTR [esp+0x2c]
 18091e2:	lea    edx,[esp+0x24]
 18091e6:	push   edx
 18091e7:	push   0x0
 18091e9:	push   0x20
 18091eb:	mov    esi,DWORD PTR [ecx]
 18091ed:	push   eax
 18091ee:	push   edi
 18091ef:	push   ecx
 18091f0:	mov    ecx,DWORD PTR [esi+0x50]
 18091f3:	mov    DWORD PTR [esp+0x4c],eax
 18091f7:	call   DWORD PTR ds:0x1819214
 18091fd:	call   DWORD PTR [esi+0x50]
 1809200:	mov    edi,eax
 1809202:	test   edi,edi
 1809204:	js     0x18094b0
 180920a:	push   DWORD PTR [esp+0x1c]
 180920e:	mov    edx,DWORD PTR [esp+0x1c]
 1809212:	mov    ecx,DWORD PTR [esp+0x28]
 1809216:	push   ebx
 1809217:	call   0x1808f4e
 180921c:	mov    edi,eax
 180921e:	test   edi,edi
 1809220:	js     0x18094b0
 1809226:	mov    eax,DWORD PTR [esp+0x24]
 180922a:	lea    ecx,[esp+0x3c]
 180922e:	push   ecx
 180922f:	lea    ecx,[esp+0x14]
 1809233:	push   ecx
 1809234:	mov    esi,DWORD PTR [eax]
 1809236:	push   0x1
 1809238:	push   0xffffffff
 180923a:	push   eax
 180923b:	mov    ecx,DWORD PTR [esi+0x10]
 180923e:	call   DWORD PTR ds:0x1819214
 1809244:	call   DWORD PTR [esi+0x10]
 1809247:	mov    edi,eax
 1809249:	test   edi,edi
 180924b:	js     0x180949c
 1809251:	cmp    DWORD PTR [esp+0x3c],0x0
 1809256:	je     0x1809483
 180925c:	mov    eax,DWORD PTR [esp+0x10]
 1809260:	lea    ecx,[esp+0x14]
 1809264:	push   0x0
 1809266:	push   ecx
 1809267:	lea    ecx,[esp+0x98]
 180926e:	mov    DWORD PTR ds:0x1813fb8,0x1
 1809278:	mov    esi,DWORD PTR [eax]
 180927a:	push   ecx
 180927b:	push   0x0
 180927d:	push   0x1801ab8
 1809282:	mov    ecx,DWORD PTR [esi+0x10]
 1809285:	push   eax
 1809286:	call   DWORD PTR ds:0x1819214
 180928c:	call   DWORD PTR [esi+0x10]
 180928f:	mov    edi,eax
 1809291:	test   edi,edi
 1809293:	js     0x180947a
 1809299:	push   0x17
 180929b:	push   0x0
 180929d:	lea    eax,[esp+0x98]
 18092a4:	push   eax
 18092a5:	push   eax
 18092a6:	call   DWORD PTR ds:0x1819004
 18092ac:	mov    edi,eax
 18092ae:	test   edi,edi
 18092b0:	js     0x180947a
 18092b6:	mov    eax,DWORD PTR [esp+0x98]
 18092bd:	lea    ecx,[esp+0x14]
 18092c1:	push   0x0
 18092c3:	push   ecx
 18092c4:	mov    ds:0x1813770,eax
 18092c9:	lea    ecx,[esp+0x78]
 18092cd:	mov    eax,DWORD PTR [esp+0x18]
 18092d1:	push   ecx
 18092d2:	push   0x0
 18092d4:	push   0x1801ac8
 18092d9:	mov    esi,DWORD PTR [eax]
 18092db:	push   eax
 18092dc:	mov    ecx,DWORD PTR [esi+0x10]
 18092df:	call   DWORD PTR ds:0x1819214
 18092e5:	call   DWORD PTR [esi+0x10]
 18092e8:	mov    edi,eax
 18092ea:	test   edi,edi
 18092ec:	js     0x180947a
 18092f2:	push   0x8
 18092f4:	push   0x0
 18092f6:	lea    eax,[esp+0x78]
 18092fa:	push   eax
 18092fb:	push   eax
 18092fc:	call   DWORD PTR ds:0x1819004
 1809302:	mov    edi,eax
 1809304:	test   edi,edi
 1809306:	js     0x180947a
 180930c:	push   DWORD PTR [esp+0x78]
 1809310:	mov    ecx,0x1813780
 1809315:	call   0x1808eff
 180931a:	mov    eax,DWORD PTR [esp+0x10]
 180931e:	lea    ecx,[esp+0x14]
 1809322:	push   0x0
 1809324:	push   ecx
 1809325:	lea    ecx,[esp+0x48]
 1809329:	mov    esi,DWORD PTR [eax]
 180932b:	push   ecx
 180932c:	push   0x0
 180932e:	push   0x1801ad8
 1809333:	mov    ecx,DWORD PTR [esi+0x10]
 1809336:	push   eax
 1809337:	call   DWORD PTR ds:0x1819214
 180933d:	call   DWORD PTR [esi+0x10]
 1809340:	mov    edi,eax
 1809342:	test   edi,edi
 1809344:	js     0x180947a
 180934a:	xor    eax,eax
 180934c:	inc    eax
 180934d:	cmp    ax,WORD PTR [esp+0x40]
 1809352:	je     0x1809377
 1809354:	push   0x17
 1809356:	push   0x0
 1809358:	lea    eax,[esp+0x48]
 180935c:	push   eax
 180935d:	push   eax
 180935e:	call   DWORD PTR ds:0x1819004
 1809364:	mov    edi,eax
 1809366:	test   edi,edi
 1809368:	js     0x180947a
 180936e:	mov    eax,DWORD PTR [esp+0x48]
 1809372:	mov    ds:0x1813774,eax
 1809377:	mov    eax,DWORD PTR [esp+0x10]
 180937b:	lea    ecx,[esp+0x14]
 180937f:	push   0x0
 1809381:	push   ecx
 1809382:	lea    ecx,[esp+0x58]
 1809386:	mov    esi,DWORD PTR [eax]
 1809388:	push   ecx
 1809389:	push   0x0
 180938b:	push   0x1801af8
 1809390:	mov    ecx,DWORD PTR [esi+0x10]
 1809393:	push   eax
 1809394:	call   DWORD PTR ds:0x1819214
 180939a:	call   DWORD PTR [esi+0x10]
 180939d:	mov    edi,eax
 180939f:	test   edi,edi
 18093a1:	js     0x180947a
 18093a7:	push   0x8
 18093a9:	push   0x0
 18093ab:	lea    eax,[esp+0x58]
 18093af:	push   eax
 18093b0:	push   eax
 18093b1:	call   DWORD PTR ds:0x1819004
 18093b7:	mov    edi,eax
 18093b9:	test   edi,edi
 18093bb:	js     0x180947a
 18093c1:	push   DWORD PTR [esp+0x58]
 18093c5:	mov    ecx,0x1813990
 18093ca:	call   0x1808eff
 18093cf:	mov    eax,DWORD PTR [esp+0x10]
 18093d3:	lea    ecx,[esp+0x14]
 18093d7:	push   0x0
 18093d9:	push   ecx
 18093da:	lea    ecx,[esp+0x88]
 18093e1:	mov    esi,DWORD PTR [eax]
 18093e3:	push   ecx
 18093e4:	push   0x0
 18093e6:	push   0x1801b10
 18093eb:	mov    ecx,DWORD PTR [esi+0x10]
 18093ee:	push   eax
 18093ef:	call   DWORD PTR ds:0x1819214
 18093f5:	call   DWORD PTR [esi+0x10]
 18093f8:	mov    edi,eax
 18093fa:	test   edi,edi
 18093fc:	js     0x180947a
 18093fe:	push   0x8
 1809400:	push   0x0
 1809402:	lea    eax,[esp+0x88]
 1809409:	push   eax
 180940a:	push   eax
 180940b:	call   DWORD PTR ds:0x1819004
 1809411:	mov    edi,eax
 1809413:	test   edi,edi
 1809415:	js     0x180947a
 1809417:	push   DWORD PTR [esp+0x88]
 180941e:	mov    ecx,0x1813ba0
 1809423:	call   0x1808eff
 1809428:	mov    eax,DWORD PTR [esp+0x10]
 180942c:	lea    ecx,[esp+0x14]
 1809430:	push   0x0
 1809432:	push   ecx
 1809433:	lea    ecx,[esp+0x68]
 1809437:	mov    esi,DWORD PTR [eax]
 1809439:	push   ecx
 180943a:	push   0x0
 180943c:	push   0x1801b40
 1809441:	mov    ecx,DWORD PTR [esi+0x10]
 1809444:	push   eax
 1809445:	call   DWORD PTR ds:0x1819214
 180944b:	call   DWORD PTR [esi+0x10]
 180944e:	mov    edi,eax
 1809450:	test   edi,edi
 1809452:	js     0x180947a
 1809454:	push   0x8
 1809456:	push   0x0
 1809458:	lea    eax,[esp+0x68]
 180945c:	push   eax
 180945d:	push   eax
 180945e:	call   DWORD PTR ds:0x1819004
 1809464:	mov    edi,eax
 1809466:	test   edi,edi
 1809468:	js     0x180947a
 180946a:	push   DWORD PTR [esp+0x68]
 180946e:	mov    ecx,0x1813db0
 1809473:	call   0x1808eff
 1809478:	jmp    0x1809488
 180947a:	and    DWORD PTR ds:0x1813fb8,0x0
 1809481:	jmp    0x1809488
 1809483:	mov    edi,0x8000ffff
 1809488:	mov    eax,DWORD PTR [esp+0x10]
 180948c:	push   eax
 180948d:	mov    ecx,DWORD PTR [eax]
 180948f:	mov    esi,DWORD PTR [ecx+0x8]
 1809492:	mov    ecx,esi
 1809494:	call   DWORD PTR ds:0x1819214
 180949a:	call   esi
 180949c:	mov    eax,DWORD PTR [esp+0x24]
 18094a0:	push   eax
 18094a1:	mov    ecx,DWORD PTR [eax]
 18094a3:	mov    esi,DWORD PTR [ecx+0x8]
 18094a6:	mov    ecx,esi
 18094a8:	call   DWORD PTR ds:0x1819214
 18094ae:	call   esi
 18094b0:	push   DWORD PTR [esp+0x34]
 18094b4:	call   DWORD PTR ds:0x1819008
 18094ba:	push   DWORD PTR [esp+0x38]
 18094be:	call   DWORD PTR ds:0x1819008
 18094c4:	mov    eax,DWORD PTR [esp+0x2c]
 18094c8:	push   eax
 18094c9:	mov    ecx,DWORD PTR [eax]
 18094cb:	mov    esi,DWORD PTR [ecx+0x8]
 18094ce:	mov    ecx,esi
 18094d0:	call   DWORD PTR ds:0x1819214
 18094d6:	call   esi
 18094d8:	push   DWORD PTR [esp+0x1c]
 18094dc:	call   DWORD PTR ds:0x1819008
 18094e2:	push   ebx
 18094e3:	call   DWORD PTR ds:0x1819008
 18094e9:	push   DWORD PTR [esp+0x20]
 18094ed:	call   DWORD PTR ds:0x1819008
 18094f3:	push   DWORD PTR [esp+0x18]
 18094f7:	call   DWORD PTR ds:0x1819008
 18094fd:	push   DWORD PTR [esp+0x28]
 1809501:	call   DWORD PTR ds:0x1819008
 1809507:	call   DWORD PTR ds:0x1819010
 180950d:	cmp    edi,0x80041002
 1809513:	je     0x180955c
 1809515:	cmp    edi,0x80041003
 180951b:	je     0x1809555
 180951d:	cmp    edi,0x80041004
 1809523:	je     0x180954e
 1809525:	cmp    edi,0x80041005
 180952b:	je     0x1809540
 180952d:	mov    eax,0x80041006
 1809532:	cmp    edi,eax
 1809534:	je     0x1809547
 1809536:	jle    0x1809561
 1809538:	cmp    edi,0x80041008
 180953e:	jg     0x1809561
 1809540:	mov    edi,0x80070057
 1809545:	jmp    0x1809572
 1809547:	mov    edi,0x8007000e
 180954c:	jmp    0x1809572
 180954e:	mov    edi,0x80004005
 1809553:	jmp    0x1809572
 1809555:	mov    edi,0x80070005
 180955a:	jmp    0x1809572
 180955c:	mov    edi,0x800704d0
 1809561:	test   edi,edi
 1809563:	jne    0x1809572
 1809565:	mov    eax,0x80004005
 180956a:	cmp    DWORD PTR ds:0x1813fb8,edi
 1809570:	je     0x1809574
 1809572:	mov    eax,edi
 1809574:	mov    ecx,DWORD PTR [esp+0x6bc]
 180957b:	pop    edi
 180957c:	pop    esi
 180957d:	pop    ebx
 180957e:	xor    ecx,esp
 1809580:	call   0x1809990
 1809585:	mov    esp,ebp
 1809587:	pop    ebp
 1809588:	ret    0x4
 180958b:	int3   
 180958c:	int3   
 180958d:	int3   
 180958e:	int3   
 180958f:	int3   
 1809590:	mov    edi,edi
 1809592:	push   ebp
 1809593:	mov    ebp,esp
 1809595:	sub    esp,0x128
 180959b:	mov    eax,ds:0x180b004
 18095a0:	xor    eax,ebp
 18095a2:	mov    DWORD PTR [ebp-0x4],eax
 18095a5:	push   esi
 18095a6:	push   edi
 18095a7:	mov    esi,0x11c
 18095ac:	lea    eax,[ebp-0x128]
 18095b2:	push   esi
 18095b3:	push   0x0
 18095b5:	push   eax
 18095b6:	call   0x180a15c
 18095bb:	add    esp,0xc
 18095be:	mov    DWORD PTR [ebp-0x128],esi
 18095c4:	lea    eax,[ebp-0x128]
 18095ca:	push   eax
 18095cb:	call   DWORD PTR ds:0x181915c
 18095d1:	test   eax,eax
 18095d3:	je     0x180965e
 18095d9:	push   DWORD PTR [ebp-0x11c]
 18095df:	movzx  eax,WORD PTR [ebp-0x10]
 18095e3:	lea    edi,[esi-0x18]
 18095e6:	push   DWORD PTR [ebp-0x120]
 18095ec:	mov    DWORD PTR ds:0x1813770,0x12
 18095f6:	push   DWORD PTR [ebp-0x124]
 18095fc:	mov    ds:0x1813774,eax
 1809601:	push   0x1801b70
 1809606:	push   edi
 1809607:	push   0x1813780
 180960c:	call   0x180507b
 1809611:	push   DWORD PTR [ebp-0x11c]
 1809617:	mov    esi,0x1801b84
 180961c:	push   esi
 180961d:	push   edi
 180961e:	push   0x1813990
 1809623:	call   0x180507b
 1809628:	movzx  eax,WORD PTR [ebp-0x14]
 180962c:	push   eax
 180962d:	push   esi
 180962e:	push   edi
 180962f:	push   0x1813ba0
 1809634:	call   0x180507b
 1809639:	movzx  eax,WORD PTR [ebp-0x12]
 180963d:	push   eax
 180963e:	push   esi
 180963f:	push   edi
 1809640:	push   0x1813db0
 1809645:	call   0x180507b
 180964a:	xor    eax,eax
 180964c:	add    esp,0x48
 180964f:	inc    eax
 1809650:	mov    ds:0x1813fb8,eax
 1809655:	mov    ds:0x1813fbc,eax
 180965a:	xor    eax,eax
 180965c:	jmp    0x1809669
 180965e:	push   0x0
 1809660:	xor    edx,edx
 1809662:	xor    ecx,ecx
 1809664:	call   0x1808ff1
 1809669:	mov    ecx,DWORD PTR [ebp-0x4]
 180966c:	pop    edi
 180966d:	xor    ecx,ebp
 180966f:	pop    esi
 1809670:	call   0x1809990
 1809675:	mov    esp,ebp
 1809677:	pop    ebp
 1809678:	ret    
 1809679:	int3   
 180967a:	int3   
 180967b:	int3   
 180967c:	int3   
 180967d:	int3   
 180967e:	mov    edi,edi
 1809680:	push   ebp
 1809681:	mov    ebp,esp
 1809683:	push   0x0
 1809685:	push   DWORD PTR [ebp+0xc]
 1809688:	push   DWORD PTR ds:0x181905c
 180968e:	push   DWORD PTR ds:0x1801bac
 1809694:	push   DWORD PTR [ebp+0x8]
 1809697:	push   0x1800000
 180969c:	call   DWORD PTR ds:0x1819060
 18096a2:	pop    ebp
 18096a3:	ret    0x8
 18096a6:	int3   
 18096a7:	int3   
 18096a8:	int3   
 18096a9:	int3   
 18096aa:	int3   
 18096ab:	int3   
 18096ac:	int3   
 18096ad:	int3   
 18096ae:	int3   
 18096af:	int3   
 18096b0:	mov    eax,0x5a4d
 18096b5:	cmp    WORD PTR ds:0x1800000,ax
 18096bc:	je     0x18096c2
 18096be:	xor    eax,eax
 18096c0:	jmp    0x1809710
 18096c2:	mov    ecx,DWORD PTR ds:0x180003c
 18096c8:	cmp    DWORD PTR [ecx+0x1800000],0x4550
 18096d2:	jne    0x18096be
 18096d4:	movzx  eax,WORD PTR [ecx+0x1800018]
 18096db:	cmp    eax,0x10b
 18096e0:	je     0x18096fc
 18096e2:	cmp    eax,0x20b
 18096e7:	jne    0x18096be
 18096e9:	xor    eax,eax
 18096eb:	cmp    DWORD PTR [ecx+0x1800084],0xe
 18096f2:	jbe    0x1809710
 18096f4:	cmp    DWORD PTR [ecx+0x18000f8],eax
 18096fa:	jmp    0x180970d
 18096fc:	xor    eax,eax
 18096fe:	cmp    DWORD PTR [ecx+0x1800074],0xe
 1809705:	jbe    0x1809710
 1809707:	cmp    DWORD PTR [ecx+0x18000e8],eax
 180970d:	setne  al
 1809710:	push   0x1
 1809712:	mov    ds:0x18133f8,eax
 1809717:	call   0x1809c8e
 180971c:	push   eax
 180971d:	call   DWORD PTR ds:0x18191e8
 1809723:	or     DWORD PTR ds:0x1813fc0,0xffffffff
 180972a:	or     DWORD PTR ds:0x1813fc4,0xffffffff
 1809731:	pop    ecx
 1809732:	pop    ecx
 1809733:	call   DWORD PTR ds:0x18191a8
 1809739:	mov    ecx,DWORD PTR ds:0x1813728
 180973f:	mov    DWORD PTR [eax],ecx
 1809741:	call   DWORD PTR ds:0x18191c0
 1809747:	mov    ecx,DWORD PTR ds:0x181371c
 180974d:	mov    DWORD PTR [eax],ecx
 180974f:	call   0x1809ee0
 1809754:	cmp    DWORD PTR ds:0x180b000,0x0
 180975b:	jne    0x1809769
 180975d:	push   0x1809ee0
 1809762:	call   DWORD PTR ds:0x18191ac
 1809768:	pop    ecx
 1809769:	call   0x1809ee8
 180976e:	xor    eax,eax
 1809770:	ret    
 1809771:	int3   
 1809772:	int3   
 1809773:	int3   
 1809774:	int3   
 1809775:	int3   
 1809776:	int3   
 1809777:	int3   
 1809778:	int3   
 1809779:	int3   
 180977a:	int3   
 180977b:	int3   
 180977c:	int3   
 180977d:	int3   
 180977e:	int3   
 180977f:	int3   
 1809780:	mov    eax,ds:0x1813724
 1809785:	push   0x18133fc
 180978a:	push   DWORD PTR ds:0x1813720
 1809790:	mov    ds:0x18133fc,eax
 1809795:	push   0x18133f0
 180979a:	push   0x18133ec
 180979f:	push   0x18133e8
 18097a4:	call   DWORD PTR ds:0x1819188
 18097aa:	add    esp,0x14
 18097ad:	mov    ds:0x18133f4,eax
 18097b2:	ret    
 18097b3:	int3   
 18097b4:	int3   
 18097b5:	int3   
 18097b6:	int3   
 18097b7:	int3   
 18097b8:	push   0x10
 18097ba:	push   0x180a168
 18097bf:	call   0x1809f0c
 18097c4:	xor    ebx,ebx
 18097c6:	mov    DWORD PTR [ebp-0x4],ebx
 18097c9:	mov    eax,fs:0x18
 18097cf:	mov    esi,DWORD PTR [eax+0x4]
 18097d2:	mov    edi,ebx
 18097d4:	mov    edx,0x1813fc8
 18097d9:	mov    ecx,esi
 18097db:	xor    eax,eax
 18097dd:	lock cmpxchg DWORD PTR [edx],ecx
 18097e1:	test   eax,eax
 18097e3:	je     0x18097fd
 18097e5:	cmp    eax,esi
 18097e7:	jne    0x18097f0
 18097e9:	xor    esi,esi
 18097eb:	inc    esi
 18097ec:	mov    edi,esi
 18097ee:	jmp    0x1809800
 18097f0:	push   0x3e8
 18097f5:	call   DWORD PTR ds:0x181913c
 18097fb:	jmp    0x18097d4
 18097fd:	xor    esi,esi
 18097ff:	inc    esi
 1809800:	cmp    DWORD PTR ds:0x1813fcc,esi
 1809806:	jne    0x1809812
 1809808:	push   0x1f
 180980a:	call   0x1809cca
 180980f:	pop    ecx
 1809810:	jmp    0x180984c
 1809812:	cmp    DWORD PTR ds:0x1813fcc,ebx
 1809818:	jne    0x1809846
 180981a:	mov    DWORD PTR ds:0x1813fcc,esi
 1809820:	push   0x1801018
 1809825:	push   0x180100c
 180982a:	call   0x180992c
 180982f:	pop    ecx
 1809830:	pop    ecx
 1809831:	test   eax,eax
 1809833:	je     0x180984c
 1809835:	mov    DWORD PTR [ebp-0x4],0xfffffffe
 180983c:	mov    eax,0xff
 1809841:	jmp    0x1809921
 1809846:	mov    DWORD PTR ds:0x18133e4,esi
 180984c:	cmp    DWORD PTR ds:0x1813fcc,esi
 1809852:	jne    0x180986f
 1809854:	push   0x1801008
 1809859:	push   0x1801000
 180985e:	call   0x1809f00
 1809863:	pop    ecx
 1809864:	pop    ecx
 1809865:	mov    DWORD PTR ds:0x1813fcc,0x2
 180986f:	test   edi,edi
 1809871:	jne    0x180987c
 1809873:	xor    eax,eax
 1809875:	mov    ecx,0x1813fc8
 180987a:	xchg   DWORD PTR [ecx],eax
 180987c:	cmp    DWORD PTR ds:0x1813fd0,0x0
 1809883:	je     0x18098a8
 1809885:	push   0x1813fd0
 180988a:	call   0x1809d30
 180988f:	pop    ecx
 1809890:	test   eax,eax
 1809892:	je     0x18098a8
 1809894:	push   ebx
 1809895:	push   0x2
 1809897:	push   ebx
 1809898:	mov    esi,DWORD PTR ds:0x1813fd0
 180989e:	mov    ecx,esi
 18098a0:	call   DWORD PTR ds:0x1819214
 18098a6:	call   esi
 18098a8:	push   DWORD PTR ds:0x18133f0
 18098ae:	push   DWORD PTR ds:0x18133ec
 18098b4:	push   DWORD PTR ds:0x18133e8
 18098ba:	call   0x1807422
 18098bf:	add    esp,0xc
 18098c2:	mov    ds:0x18133e0,eax
 18098c7:	cmp    DWORD PTR ds:0x18133f8,0x0
 18098ce:	jne    0x1809906
 18098d0:	push   eax
 18098d1:	call   DWORD PTR ds:0x18191a4
 18098d7:	mov    ecx,DWORD PTR [ebp-0x14]
 18098da:	mov    eax,DWORD PTR [ecx]
 18098dc:	mov    eax,DWORD PTR [eax]
 18098de:	mov    DWORD PTR [ebp-0x20],eax
 18098e1:	push   ecx
 18098e2:	push   eax
 18098e3:	call   0x1809c14
 18098e8:	pop    ecx
 18098e9:	pop    ecx
 18098ea:	ret    
 18098eb:	mov    esp,DWORD PTR [ebp-0x18]
 18098ee:	mov    eax,DWORD PTR [ebp-0x20]
 18098f1:	mov    ds:0x18133e0,eax
 18098f6:	cmp    DWORD PTR ds:0x18133f8,0x0
 18098fd:	jne    0x1809906
 18098ff:	push   eax
 1809900:	call   DWORD PTR ds:0x1819198
 1809906:	cmp    DWORD PTR ds:0x18133e4,0x0
 180990d:	jne    0x180991a
 180990f:	call   DWORD PTR ds:0x181919c
 1809915:	mov    eax,ds:0x18133e0
 180991a:	mov    DWORD PTR [ebp-0x4],0xfffffffe
 1809921:	call   0x1809f54
 1809926:	ret    
 1809927:	int3   
 1809928:	int3   
 1809929:	int3   
 180992a:	int3   
 180992b:	int3   
 180992c:	mov    edi,edi
 180992e:	push   ebp
 180992f:	mov    ebp,esp
 1809931:	push   ecx
 1809932:	mov    eax,ds:0x180b004
 1809937:	xor    eax,ebp
 1809939:	mov    DWORD PTR [ebp-0x4],eax
 180993c:	push   esi
 180993d:	mov    esi,DWORD PTR [ebp+0x8]
 1809940:	xor    eax,eax
 1809942:	cmp    esi,DWORD PTR [ebp+0xc]
 1809945:	jae    0x1809965
 1809947:	push   edi
 1809948:	test   eax,eax
 180994a:	jne    0x1809964
 180994c:	mov    edi,DWORD PTR [esi]
 180994e:	test   edi,edi
 1809950:	je     0x180995c
 1809952:	mov    ecx,edi
 1809954:	call   DWORD PTR ds:0x1819214
 180995a:	call   edi
 180995c:	add    esi,0x4
 180995f:	cmp    esi,DWORD PTR [ebp+0xc]
 1809962:	jb     0x1809948
 1809964:	pop    edi
 1809965:	mov    ecx,DWORD PTR [ebp-0x4]
 1809968:	xor    ecx,ebp
 180996a:	pop    esi
 180996b:	call   0x1809990
 1809970:	mov    esp,ebp
 1809972:	pop    ebp
 1809973:	ret    
 1809974:	int3   
 1809975:	int3   
 1809976:	int3   
 1809977:	int3   
 1809978:	int3   
 1809979:	int3   
 180997a:	int3   
 180997b:	int3   
 180997c:	int3   
 180997d:	int3   
 180997e:	int3   
 180997f:	int3   
 1809980:	call   0x1809e38
 1809985:	jmp    0x18097b8
 180998a:	int3   
 180998b:	int3   
 180998c:	int3   
 180998d:	int3   
 180998e:	int3   
 180998f:	int3   
 1809990:	cmp    ecx,DWORD PTR ds:0x180b004
 1809996:	jne    0x180999b
 1809998:	ret    0x0
 180999b:	jmp    0x18099d4
 18099a0:	int3   
 18099a1:	int3   
 18099a2:	int3   
 18099a3:	int3   
 18099a4:	int3   
 18099a5:	mov    edi,edi
 18099a7:	push   ebp
 18099a8:	mov    ebp,esp
 18099aa:	push   0x0
 18099ac:	call   DWORD PTR ds:0x181906c
 18099b2:	push   DWORD PTR [ebp+0x8]
 18099b5:	call   DWORD PTR ds:0x1819068
 18099bb:	push   0xc0000409
 18099c0:	call   DWORD PTR ds:0x18190e8
 18099c6:	push   eax
 18099c7:	call   DWORD PTR ds:0x18190ec
 18099cd:	pop    ebp
 18099ce:	ret    
 18099cf:	int3   
 18099d0:	int3   
 18099d1:	int3   
 18099d2:	int3   
 18099d3:	int3   
 18099d4:	mov    edi,edi
 18099d6:	push   ebp
 18099d7:	mov    ebp,esp
 18099d9:	sub    esp,0x324
 18099df:	mov    ds:0x1813500,eax
 18099e4:	mov    DWORD PTR ds:0x18134fc,ecx
 18099ea:	mov    DWORD PTR ds:0x18134f8,edx
 18099f0:	mov    DWORD PTR ds:0x18134f4,ebx
 18099f6:	mov    DWORD PTR ds:0x18134f0,esi
 18099fc:	mov    DWORD PTR ds:0x18134ec,edi
 1809a02:	data16 mov WORD PTR ds:0x1813518,ss
 1809a09:	data16 mov WORD PTR ds:0x181350c,cs
 1809a10:	data16 mov WORD PTR ds:0x18134e8,ds
 1809a17:	data16 mov WORD PTR ds:0x18134e4,es
 1809a1e:	data16 mov WORD PTR ds:0x18134e0,fs
 1809a25:	data16 mov WORD PTR ds:0x18134dc,gs
 1809a2c:	pushf  
 1809a2d:	pop    DWORD PTR ds:0x1813510
 1809a33:	mov    eax,DWORD PTR [ebp+0x0]
 1809a36:	mov    ds:0x1813504,eax
 1809a3b:	mov    eax,DWORD PTR [ebp+0x4]
 1809a3e:	mov    ds:0x1813508,eax
 1809a43:	lea    eax,[ebp+0x8]
 1809a46:	mov    ds:0x1813514,eax
 1809a4b:	mov    eax,DWORD PTR [ebp-0x324]
 1809a51:	mov    DWORD PTR ds:0x1813450,0x10001
 1809a5b:	mov    eax,ds:0x1813508
 1809a60:	mov    ds:0x181340c,eax
 1809a65:	mov    DWORD PTR ds:0x1813400,0xc0000409
 1809a6f:	mov    DWORD PTR ds:0x1813404,0x1
 1809a79:	mov    DWORD PTR ds:0x1813410,0x3
 1809a83:	push   0x4
 1809a85:	pop    eax
 1809a86:	imul   eax,eax,0x0
 1809a89:	mov    DWORD PTR [eax+0x1813414],0x2
 1809a93:	push   0x4
 1809a95:	pop    eax
 1809a96:	shl    eax,0x0
 1809a99:	mov    ecx,DWORD PTR ds:0x180b004
 1809a9f:	mov    DWORD PTR [eax+0x1813414],ecx
 1809aa5:	push   0x4
 1809aa7:	pop    eax
 1809aa8:	shl    eax,1
 1809aaa:	mov    ecx,DWORD PTR ds:0x180b008
 1809ab0:	mov    DWORD PTR [eax+0x1813414],ecx
 1809ab6:	push   0x4
 1809ab8:	pop    eax
 1809ab9:	imul   eax,eax,0x0
 1809abc:	mov    ecx,DWORD PTR ds:0x180b004
 1809ac2:	mov    DWORD PTR [ebp+eax*1-0x8],ecx
 1809ac6:	push   0x4
 1809ac8:	pop    eax
 1809ac9:	shl    eax,0x0
 1809acc:	mov    ecx,DWORD PTR ds:0x180b008
 1809ad2:	mov    DWORD PTR [ebp+eax*1-0x8],ecx
 1809ad6:	push   0x1801120
 1809adb:	call   0x18099a5
 1809ae0:	mov    esp,ebp
 1809ae2:	pop    ebp
 1809ae3:	ret    
 1809ae4:	int3   
 1809ae5:	int3   
 1809ae6:	int3   
 1809ae7:	int3   
 1809ae8:	int3   
 1809ae9:	mov    edi,edi
 1809aeb:	push   ebp
 1809aec:	mov    ebp,esp
 1809aee:	mov    ds:0x1813500,eax
 1809af3:	mov    DWORD PTR ds:0x18134fc,ecx
 1809af9:	mov    DWORD PTR ds:0x18134f8,edx
 1809aff:	mov    DWORD PTR ds:0x18134f4,ebx
 1809b05:	mov    DWORD PTR ds:0x18134f0,esi
 1809b0b:	mov    DWORD PTR ds:0x18134ec,edi
 1809b11:	data16 mov WORD PTR ds:0x1813518,ss
 1809b18:	data16 mov WORD PTR ds:0x181350c,cs
 1809b1f:	data16 mov WORD PTR ds:0x18134e8,ds
 1809b26:	data16 mov WORD PTR ds:0x18134e4,es
 1809b2d:	data16 mov WORD PTR ds:0x18134e0,fs
 1809b34:	data16 mov WORD PTR ds:0x18134dc,gs
 1809b3b:	pushf  
 1809b3c:	pop    DWORD PTR ds:0x1813510
 1809b42:	mov    DWORD PTR ds:0x1813450,0x10001
 1809b4c:	mov    eax,DWORD PTR [ebp+0x4]
 1809b4f:	mov    ds:0x1813508,eax
 1809b54:	lea    eax,[ebp+0x4]
 1809b57:	add    eax,0x4
 1809b5a:	mov    ds:0x1813514,eax
 1809b5f:	mov    eax,ds:0x1813508
 1809b64:	mov    ds:0x181340c,eax
 1809b69:	mov    DWORD PTR ds:0x1813400,0xc0000409
 1809b73:	mov    DWORD PTR ds:0x1813404,0x1
 1809b7d:	mov    DWORD PTR ds:0x1813410,0x1
 1809b87:	push   0x4
 1809b89:	pop    eax
 1809b8a:	imul   eax,eax,0x0
 1809b8d:	mov    DWORD PTR [eax+0x1813414],0x8
 1809b97:	push   0x1801120
 1809b9c:	call   0x18099a5
 1809ba1:	pop    ebp
 1809ba2:	ret    
 1809ba3:	int3   
 1809ba4:	int3   
 1809ba5:	int3   
 1809ba6:	int3   
 1809ba7:	int3   
 1809ba8:	int3   
 1809ba9:	int3   
 1809baa:	int3   
 1809bab:	int3   
 1809bac:	int3   
 1809bad:	int3   
 1809bae:	int3   
 1809baf:	int3   
 1809bb0:	mov    edi,edi
 1809bb2:	push   ebp
 1809bb3:	mov    ebp,esp
 1809bb5:	mov    eax,DWORD PTR [ebp+0x8]
 1809bb8:	mov    eax,DWORD PTR [eax]
 1809bba:	cmp    DWORD PTR [eax],0xe06d7363
 1809bc0:	jne    0x1809bed
 1809bc2:	cmp    DWORD PTR [eax+0x10],0x3
 1809bc6:	jne    0x1809bed
 1809bc8:	mov    eax,DWORD PTR [eax+0x14]
 1809bcb:	cmp    eax,0x19930520
 1809bd0:	je     0x1809be7
 1809bd2:	cmp    eax,0x19930521
 1809bd7:	je     0x1809be7
 1809bd9:	cmp    eax,0x19930522
 1809bde:	je     0x1809be7
 1809be0:	cmp    eax,0x1994000
 1809be5:	jne    0x1809bed
 1809be7:	call   DWORD PTR ds:0x18191bc
 1809bed:	xor    eax,eax
 1809bef:	pop    ebp
 1809bf0:	ret    0x4
 1809bf3:	int3   
 1809bf4:	int3   
 1809bf5:	int3   
 1809bf6:	int3   
 1809bf7:	int3   
 1809bf8:	int3   
 1809bf9:	int3   
 1809bfa:	int3   
 1809bfb:	int3   
 1809bfc:	int3   
 1809bfd:	int3   
 1809bfe:	int3   
 1809bff:	int3   
 1809c00:	push   0x1809bb0
 1809c05:	call   DWORD PTR ds:0x181906c
 1809c0b:	xor    eax,eax
 1809c0d:	ret    
 1809c0e:	int3   
 1809c0f:	int3   
 1809c10:	int3   
 1809c11:	int3   
 1809c12:	int3   
 1809c13:	int3   
 1809c14:	jmp    DWORD PTR ds:0x18191c4
 1809c1a:	int3   
 1809c1b:	int3   
 1809c1c:	int3   
 1809c1d:	int3   
 1809c1e:	int3   
 1809c1f:	push   0xc
 1809c21:	push   0x180a188
 1809c26:	call   0x1809fa8
 1809c2b:	xor    ecx,ecx
 1809c2d:	mov    eax,DWORD PTR [ebp+0x8]
 1809c30:	test   eax,eax
 1809c32:	je     0x1809c7f
 1809c34:	cmp    eax,0xffffffff
 1809c37:	je     0x1809c7f
 1809c39:	mov    DWORD PTR [ebp-0x4],ecx
 1809c3c:	mov    edx,0x5a4d
 1809c41:	cmp    WORD PTR [eax],dx
 1809c44:	jne    0x1809c78
 1809c46:	mov    edx,DWORD PTR [eax+0x3c]
 1809c49:	test   edx,edx
 1809c4b:	js     0x1809c78
 1809c4d:	cmp    edx,0x10000000
 1809c53:	jae    0x1809c78
 1809c55:	add    eax,edx
 1809c57:	mov    DWORD PTR [ebp-0x1c],eax
 1809c5a:	mov    ecx,DWORD PTR [eax]
 1809c5c:	sub    ecx,0x4550
 1809c62:	neg    ecx
 1809c64:	sbb    ecx,ecx
 1809c66:	not    ecx
 1809c68:	and    ecx,eax
 1809c6a:	jmp    0x1809c75
 1809c6c:	xor    eax,eax
 1809c6e:	inc    eax
 1809c6f:	ret    
 1809c70:	mov    esp,DWORD PTR [ebp-0x18]
 1809c73:	xor    ecx,ecx
 1809c75:	mov    DWORD PTR [ebp-0x1c],ecx
 1809c78:	mov    DWORD PTR [ebp-0x4],0xfffffffe
 1809c7f:	mov    eax,ecx
 1809c81:	call   0x1809fed
 1809c86:	ret    0x4
 1809c89:	int3   
 1809c8a:	int3   
 1809c8b:	int3   
 1809c8c:	int3   
 1809c8d:	int3   
 1809c8e:	mov    edi,edi
 1809c90:	push   ebp
 1809c91:	mov    ebp,esp
 1809c93:	push   0x0
 1809c95:	call   DWORD PTR ds:0x18190c4
 1809c9b:	test   eax,eax
 1809c9d:	je     0x1809cbf
 1809c9f:	push   eax
 1809ca0:	call   0x1809c1f
 1809ca5:	test   eax,eax
 1809ca7:	je     0x1809cbf
 1809ca9:	movzx  ecx,WORD PTR [eax+0x5c]
 1809cad:	push   0x2
 1809caf:	pop    eax
 1809cb0:	cmp    cx,ax
 1809cb3:	je     0x1809cc2
 1809cb5:	cmp    ecx,0x3
 1809cb8:	jne    0x1809cbf
 1809cba:	xor    eax,eax
 1809cbc:	inc    eax
 1809cbd:	pop    ebp
 1809cbe:	ret    
 1809cbf:	mov    eax,DWORD PTR [ebp+0x8]
 1809cc2:	pop    ebp
 1809cc3:	ret    
 1809cc4:	int3   
 1809cc5:	int3   
 1809cc6:	int3   
 1809cc7:	int3   
 1809cc8:	int3   
 1809cc9:	int3   
 1809cca:	jmp    DWORD PTR ds:0x181917c
 1809cd0:	int3   
 1809cd1:	int3   
 1809cd2:	int3   
 1809cd3:	int3   
 1809cd4:	int3   
 1809cd5:	int3   
 1809cd6:	int3   
 1809cd7:	int3   
 1809cd8:	int3   
 1809cd9:	int3   
 1809cda:	int3   
 1809cdb:	int3   
 1809cdc:	int3   
 1809cdd:	int3   
 1809cde:	int3   
 1809cdf:	int3   
 1809ce0:	mov    edi,edi
 1809ce2:	push   ebp
 1809ce3:	mov    ebp,esp
 1809ce5:	mov    eax,DWORD PTR [ebp+0x8]
 1809ce8:	xor    edx,edx
 1809cea:	push   ebx
 1809ceb:	push   esi
 1809cec:	push   edi
 1809ced:	mov    ecx,DWORD PTR [eax+0x3c]
 1809cf0:	add    ecx,eax
 1809cf2:	movzx  eax,WORD PTR [ecx+0x14]
 1809cf6:	movzx  ebx,WORD PTR [ecx+0x6]
 1809cfa:	add    eax,0x18
 1809cfd:	add    eax,ecx
 1809cff:	test   ebx,ebx
 1809d01:	je     0x1809d1e
 1809d03:	mov    edi,DWORD PTR [ebp+0xc]
 1809d06:	mov    esi,DWORD PTR [eax+0xc]
 1809d09:	cmp    edi,esi
 1809d0b:	jb     0x1809d16
 1809d0d:	mov    ecx,DWORD PTR [eax+0x8]
 1809d10:	add    ecx,esi
 1809d12:	cmp    edi,ecx
 1809d14:	jb     0x1809d20
 1809d16:	inc    edx
 1809d17:	add    eax,0x28
 1809d1a:	cmp    edx,ebx
 1809d1c:	jb     0x1809d06
 1809d1e:	xor    eax,eax
 1809d20:	pop    edi
 1809d21:	pop    esi
 1809d22:	pop    ebx
 1809d23:	pop    ebp
 1809d24:	ret    
 1809d25:	int3   
 1809d26:	int3   
 1809d27:	int3   
 1809d28:	int3   
 1809d29:	int3   
 1809d2a:	int3   
 1809d2b:	int3   
 1809d2c:	int3   
 1809d2d:	int3   
 1809d2e:	int3   
 1809d2f:	int3   
 1809d30:	mov    edi,edi
 1809d32:	push   ebp
 1809d33:	mov    ebp,esp
 1809d35:	push   0xfffffffe
 1809d37:	push   0x180a1a8
 1809d3c:	push   0x1809f70
 1809d41:	mov    eax,fs:0x0
 1809d47:	push   eax
 1809d48:	sub    esp,0x8
 1809d4b:	push   ebx
 1809d4c:	push   esi
 1809d4d:	push   edi
 1809d4e:	mov    eax,ds:0x180b004
 1809d53:	xor    DWORD PTR [ebp-0x8],eax
 1809d56:	xor    eax,ebp
 1809d58:	push   eax
 1809d59:	lea    eax,[ebp-0x10]
 1809d5c:	mov    fs:0x0,eax
 1809d62:	mov    DWORD PTR [ebp-0x18],esp
 1809d65:	mov    DWORD PTR [ebp-0x4],0x0
 1809d6c:	push   0x1800000
 1809d71:	call   0x1809e00
 1809d76:	add    esp,0x4
 1809d79:	test   eax,eax
 1809d7b:	je     0x1809dd1
 1809d7d:	mov    eax,DWORD PTR [ebp+0x8]
 1809d80:	sub    eax,0x1800000
 1809d85:	push   eax
 1809d86:	push   0x1800000
 1809d8b:	call   0x1809ce0
 1809d90:	add    esp,0x8
 1809d93:	test   eax,eax
 1809d95:	je     0x1809dd1
 1809d97:	mov    eax,DWORD PTR [eax+0x24]
 1809d9a:	shr    eax,0x1f
 1809d9d:	not    eax
 1809d9f:	and    eax,0x1
 1809da2:	mov    DWORD PTR [ebp-0x4],0xfffffffe
 1809da9:	mov    ecx,DWORD PTR [ebp-0x10]
 1809dac:	mov    DWORD PTR fs:0x0,ecx
 1809db3:	pop    ecx
 1809db4:	pop    edi
 1809db5:	pop    esi
 1809db6:	pop    ebx
 1809db7:	mov    esp,ebp
 1809db9:	pop    ebp
 1809dba:	ret    
 1809dbb:	mov    eax,DWORD PTR [ebp-0x14]
 1809dbe:	mov    eax,DWORD PTR [eax]
 1809dc0:	xor    ecx,ecx
 1809dc2:	cmp    DWORD PTR [eax],0xc0000005
 1809dc8:	sete   cl
 1809dcb:	mov    eax,ecx
 1809dcd:	ret    
 1809dce:	mov    esp,DWORD PTR [ebp-0x18]
 1809dd1:	mov    DWORD PTR [ebp-0x4],0xfffffffe
 1809dd8:	xor    eax,eax
 1809dda:	mov    ecx,DWORD PTR [ebp-0x10]
 1809ddd:	mov    DWORD PTR fs:0x0,ecx
 1809de4:	pop    ecx
 1809de5:	pop    edi
 1809de6:	pop    esi
 1809de7:	pop    ebx
 1809de8:	mov    esp,ebp
 1809dea:	pop    ebp
 1809deb:	ret    
 1809dec:	int3   
 1809ded:	int3   
 1809dee:	int3   
 1809def:	int3   
 1809df0:	int3   
 1809df1:	int3   
 1809df2:	int3   
 1809df3:	int3   
 1809df4:	int3   
 1809df5:	int3   
 1809df6:	int3   
 1809df7:	int3   
 1809df8:	int3   
 1809df9:	int3   
 1809dfa:	int3   
 1809dfb:	int3   
 1809dfc:	int3   
 1809dfd:	int3   
 1809dfe:	int3   
 1809dff:	int3   
 1809e00:	mov    edi,edi
 1809e02:	push   ebp
 1809e03:	mov    ebp,esp
 1809e05:	mov    eax,DWORD PTR [ebp+0x8]
 1809e08:	mov    ecx,0x5a4d
 1809e0d:	cmp    WORD PTR [eax],cx
 1809e10:	je     0x1809e16
 1809e12:	xor    eax,eax
 1809e14:	pop    ebp
 1809e15:	ret    
 1809e16:	mov    ecx,DWORD PTR [eax+0x3c]
 1809e19:	add    ecx,eax
 1809e1b:	xor    eax,eax
 1809e1d:	cmp    DWORD PTR [ecx],0x4550
 1809e23:	jne    0x1809e31
 1809e25:	mov    edx,0x10b
 1809e2a:	cmp    WORD PTR [ecx+0x18],dx
 1809e2e:	sete   al
 1809e31:	pop    ebp
 1809e32:	ret    
 1809e33:	int3   
 1809e34:	int3   
 1809e35:	int3   
 1809e36:	int3   
 1809e37:	int3   
 1809e38:	mov    edi,edi
 1809e3a:	push   ebp
 1809e3b:	mov    ebp,esp
 1809e3d:	sub    esp,0x14
 1809e40:	and    DWORD PTR [ebp-0xc],0x0
 1809e44:	and    DWORD PTR [ebp-0x8],0x0
 1809e48:	mov    eax,ds:0x180b004
 1809e4d:	push   esi
 1809e4e:	push   edi
 1809e4f:	mov    edi,0xbb40e64e
 1809e54:	mov    esi,0xffff0000
 1809e59:	cmp    eax,edi
 1809e5b:	je     0x1809e6a
 1809e5d:	test   esi,eax
 1809e5f:	je     0x1809e6a
 1809e61:	not    eax
 1809e63:	mov    ds:0x180b008,eax
 1809e68:	jmp    0x1809ed4
 1809e6a:	lea    eax,[ebp-0xc]
 1809e6d:	push   eax
 1809e6e:	call   DWORD PTR ds:0x1819158
 1809e74:	mov    eax,DWORD PTR [ebp-0x8]
 1809e77:	xor    eax,DWORD PTR [ebp-0xc]
 1809e7a:	mov    DWORD PTR [ebp-0x4],eax
 1809e7d:	call   DWORD PTR ds:0x18190e4
 1809e83:	xor    DWORD PTR [ebp-0x4],eax
 1809e86:	call   DWORD PTR ds:0x18190e0
 1809e8c:	xor    DWORD PTR [ebp-0x4],eax
 1809e8f:	call   DWORD PTR ds:0x1819154
 1809e95:	xor    eax,DWORD PTR [ebp-0x4]
 1809e98:	lea    ecx,[ebp-0x4]
 1809e9b:	xor    eax,ecx
 1809e9d:	mov    DWORD PTR [ebp-0x4],eax
 1809ea0:	lea    eax,[ebp-0x14]
 1809ea3:	push   eax
 1809ea4:	call   DWORD PTR ds:0x18190f4
 1809eaa:	mov    eax,DWORD PTR [ebp-0x10]
 1809ead:	xor    eax,DWORD PTR [ebp-0x14]
 1809eb0:	mov    ecx,DWORD PTR [ebp-0x4]
 1809eb3:	xor    ecx,eax
 1809eb5:	cmp    ecx,edi
 1809eb7:	je     0x1809ec1
 1809eb9:	test   DWORD PTR ds:0x180b004,esi
 1809ebf:	jne    0x1809ec6
 1809ec1:	mov    ecx,0xbb40e64f
 1809ec6:	mov    DWORD PTR ds:0x180b004,ecx
 1809ecc:	not    ecx
 1809ece:	mov    DWORD PTR ds:0x180b008,ecx
 1809ed4:	pop    edi
 1809ed5:	pop    esi
 1809ed6:	mov    esp,ebp
 1809ed8:	pop    ebp
 1809ed9:	ret    
 1809eda:	int3   
 1809edb:	int3   
 1809edc:	int3   
 1809edd:	int3   
 1809ede:	int3   
 1809edf:	int3   
 1809ee0:	xor    eax,eax
 1809ee2:	ret    
 1809ee3:	int3   
 1809ee4:	int3   
 1809ee5:	int3   
 1809ee6:	int3   
 1809ee7:	int3   
 1809ee8:	push   0x30000
 1809eed:	push   0x10000
 1809ef2:	call   DWORD PTR ds:0x18191cc
 1809ef8:	pop    ecx
 1809ef9:	pop    ecx
 1809efa:	ret    
 1809efb:	int3   
 1809efc:	int3   
 1809efd:	int3   
 1809efe:	int3   
 1809eff:	int3   
 1809f00:	jmp    DWORD PTR ds:0x18191b8
 1809f06:	int3   
 1809f07:	int3   
 1809f08:	int3   
 1809f09:	int3   
 1809f0a:	int3   
 1809f0b:	int3   
 1809f0c:	push   0x1809f70
 1809f11:	push   DWORD PTR fs:0x0
 1809f18:	mov    eax,DWORD PTR [esp+0x10]
 1809f1c:	mov    DWORD PTR [esp+0x10],ebp
 1809f20:	lea    ebp,[esp+0x10]
 1809f24:	sub    esp,eax
 1809f26:	push   ebx
 1809f27:	push   esi
 1809f28:	push   edi
 1809f29:	mov    eax,ds:0x180b004
 1809f2e:	xor    DWORD PTR [ebp-0x4],eax
 1809f31:	xor    eax,ebp
 1809f33:	mov    DWORD PTR [ebp-0x1c],eax
 1809f36:	push   eax
 1809f37:	mov    DWORD PTR [ebp-0x18],esp
 1809f3a:	push   DWORD PTR [ebp-0x8]
 1809f3d:	mov    eax,DWORD PTR [ebp-0x4]
 1809f40:	mov    DWORD PTR [ebp-0x4],0xfffffffe
 1809f47:	mov    DWORD PTR [ebp-0x8],eax
 1809f4a:	lea    eax,[ebp-0x10]
 1809f4d:	mov    fs:0x0,eax
 1809f53:	ret    
 1809f54:	mov    ecx,DWORD PTR [ebp-0x1c]
 1809f57:	xor    ecx,ebp
 1809f59:	call   0x1809990
 1809f5e:	jmp    0x1809fed
 1809f63:	int3   
 1809f64:	int3   
 1809f65:	int3   
 1809f66:	int3   
 1809f67:	int3   
 1809f68:	int3   
 1809f69:	int3   
 1809f6a:	int3   
 1809f6b:	int3   
 1809f6c:	int3   
 1809f6d:	int3   
 1809f6e:	int3   
 1809f6f:	int3   
 1809f70:	mov    edi,edi
 1809f72:	push   ebp
 1809f73:	mov    ebp,esp
 1809f75:	push   DWORD PTR [ebp+0x14]
 1809f78:	push   DWORD PTR [ebp+0x10]
 1809f7b:	push   DWORD PTR [ebp+0xc]
 1809f7e:	push   DWORD PTR [ebp+0x8]
 1809f81:	push   0x1809990
 1809f86:	push   0x180b004
 1809f8b:	call   0x180a006
 1809f90:	add    esp,0x18
 1809f93:	pop    ebp
 1809f94:	ret    
 1809f95:	int3   
 1809f96:	int3   
 1809f97:	int3   
 1809f98:	int3   
 1809f99:	int3   
 1809f9a:	int3   
 1809f9b:	int3   
 1809f9c:	int3   
 1809f9d:	int3   
 1809f9e:	int3   
 1809f9f:	int3   
 1809fa0:	ret    
 1809fa1:	int3   
 1809fa2:	int3   
 1809fa3:	int3   
 1809fa4:	int3   
 1809fa5:	int3   
 1809fa6:	int3   
 1809fa7:	int3   
 1809fa8:	push   0x1809f70
 1809fad:	push   DWORD PTR fs:0x0
 1809fb4:	mov    eax,DWORD PTR [esp+0x10]
 1809fb8:	mov    DWORD PTR [esp+0x10],ebp
 1809fbc:	lea    ebp,[esp+0x10]
 1809fc0:	sub    esp,eax
 1809fc2:	push   ebx
 1809fc3:	push   esi
 1809fc4:	push   edi
 1809fc5:	mov    eax,ds:0x180b004
 1809fca:	xor    DWORD PTR [ebp-0x4],eax
 1809fcd:	xor    eax,ebp
 1809fcf:	push   eax
 1809fd0:	mov    DWORD PTR [ebp-0x18],esp
 1809fd3:	push   DWORD PTR [ebp-0x8]
 1809fd6:	mov    eax,DWORD PTR [ebp-0x4]
 1809fd9:	mov    DWORD PTR [ebp-0x4],0xfffffffe
 1809fe0:	mov    DWORD PTR [ebp-0x8],eax
 1809fe3:	lea    eax,[ebp-0x10]
 1809fe6:	mov    fs:0x0,eax
 1809fec:	ret    
 1809fed:	mov    ecx,DWORD PTR [ebp-0x10]
 1809ff0:	mov    DWORD PTR fs:0x0,ecx
 1809ff7:	pop    ecx
 1809ff8:	pop    edi
 1809ff9:	pop    edi
 1809ffa:	pop    esi
 1809ffb:	pop    ebx
 1809ffc:	mov    esp,ebp
 1809ffe:	pop    ebp
 1809fff:	push   ecx
 180a000:	ret    
 180a001:	int3   
 180a002:	int3   
 180a003:	int3   
 180a004:	int3   
 180a005:	int3   
 180a006:	jmp    DWORD PTR ds:0x18191d0
 180a00c:	int3   
 180a00d:	int3   
 180a00e:	int3   
 180a00f:	int3   
 180a010:	int3   
 180a011:	mov    edi,edi
 180a013:	push   ebp
 180a014:	mov    ebp,esp
 180a016:	call   0x180a0f6
 180a01b:	mov    ecx,DWORD PTR [ebp+0x8]
 180a01e:	shl    ecx,0x5
 180a021:	add    eax,ecx
 180a023:	pop    ebp
 180a024:	ret    
 180a025:	int3   
 180a026:	int3   
 180a027:	int3   
 180a028:	int3   
 180a029:	int3   
 180a02a:	int3   
 180a02b:	int3   
 180a02c:	int3   
 180a02d:	int3   
 180a02e:	int3   
 180a02f:	int3   
 180a030:	mov    eax,0x181b014
 180a035:	jmp    0x180a03f
 180a03a:	int3   
 180a03b:	int3   
 180a03c:	int3   
 180a03d:	int3   
 180a03e:	int3   
 180a03f:	push   ecx
 180a040:	push   edx
 180a041:	push   eax
 180a042:	push   0x180a1c4
 180a047:	call   0x180967e
 180a04c:	pop    edx
 180a04d:	pop    ecx
 180a04e:	jmp    eax
 180a050:	int3   
 180a051:	int3   
 180a052:	int3   
 180a053:	int3   
 180a054:	int3   
 180a055:	int3   
 180a056:	int3   
 180a057:	int3   
 180a058:	int3   
 180a059:	int3   
 180a05a:	int3   
 180a05b:	int3   
 180a05c:	int3   
 180a05d:	int3   
 180a05e:	int3   
 180a05f:	int3   
 180a060:	mov    eax,0x181b000
 180a065:	jmp    0x180a06f
 180a06a:	int3   
 180a06b:	int3   
 180a06c:	int3   
 180a06d:	int3   
 180a06e:	int3   
 180a06f:	push   ecx
 180a070:	push   edx
 180a071:	push   eax
 180a072:	push   0x180a1e4
 180a077:	call   0x180967e
 180a07c:	pop    edx
 180a07d:	pop    ecx
 180a07e:	jmp    eax
 180a080:	int3   
 180a081:	int3   
 180a082:	int3   
 180a083:	int3   
 180a084:	int3   
 180a085:	int3   
 180a086:	int3   
 180a087:	int3   
 180a088:	int3   
 180a089:	int3   
 180a08a:	int3   
 180a08b:	int3   
 180a08c:	int3   
 180a08d:	int3   
 180a08e:	int3   
 180a08f:	int3   
 180a090:	mov    eax,0x181b004
 180a095:	jmp    0x180a06f
 180a09a:	int3   
 180a09b:	int3   
 180a09c:	int3   
 180a09d:	int3   
 180a09e:	int3   
 180a09f:	int3   
 180a0a0:	mov    eax,0x181b01c
 180a0a5:	jmp    0x180a0af
 180a0aa:	int3   
 180a0ab:	int3   
 180a0ac:	int3   
 180a0ad:	int3   
 180a0ae:	int3   
 180a0af:	push   ecx
 180a0b0:	push   edx
 180a0b1:	push   eax
 180a0b2:	push   0x180a204
 180a0b7:	call   0x180967e
 180a0bc:	pop    edx
 180a0bd:	pop    ecx
 180a0be:	jmp    eax
 180a0c0:	int3   
 180a0c1:	int3   
 180a0c2:	int3   
 180a0c3:	int3   
 180a0c4:	int3   
 180a0c5:	int3   
 180a0c6:	int3   
 180a0c7:	int3   
 180a0c8:	int3   
 180a0c9:	int3   
 180a0ca:	int3   
 180a0cb:	int3   
 180a0cc:	int3   
 180a0cd:	int3   
 180a0ce:	int3   
 180a0cf:	int3   
 180a0d0:	mov    eax,0x181b00c
 180a0d5:	jmp    0x180a0df
 180a0da:	int3   
 180a0db:	int3   
 180a0dc:	int3   
 180a0dd:	int3   
 180a0de:	int3   
 180a0df:	push   ecx
 180a0e0:	push   edx
 180a0e1:	push   eax
 180a0e2:	push   0x180a224
 180a0e7:	call   0x180967e
 180a0ec:	pop    edx
 180a0ed:	pop    ecx
 180a0ee:	jmp    eax
 180a0f0:	int3   
 180a0f1:	int3   
 180a0f2:	int3   
 180a0f3:	int3   
 180a0f4:	int3   
 180a0f5:	int3   
 180a0f6:	jmp    DWORD PTR ds:0x18191f8
 180a0fc:	int3   
 180a0fd:	int3   
 180a0fe:	int3   
 180a0ff:	int3   
 180a100:	int3   
 180a101:	int3   
 180a102:	int3   
 180a103:	int3   
 180a104:	int3   
 180a105:	int3   
 180a106:	int3   
 180a107:	int3   
 180a108:	int3   
 180a109:	int3   
 180a10a:	int3   
 180a10b:	int3   
 180a10c:	int3   
 180a10d:	int3   
 180a10e:	int3   
 180a10f:	int3   
 180a110:	jmp    DWORD PTR ds:0x181905c
 180a116:	int3   
 180a117:	int3   
 180a118:	int3   
 180a119:	int3   
 180a11a:	int3   
 180a11b:	int3   
 180a11c:	int3   
 180a11d:	int3   
 180a11e:	int3   
 180a11f:	int3   
 180a120:	push   ecx
 180a121:	lea    ecx,[esp+0x4]
 180a125:	sub    ecx,eax
 180a127:	sbb    eax,eax
 180a129:	not    eax
 180a12b:	and    ecx,eax
 180a12d:	mov    eax,esp
 180a12f:	and    eax,0xfffff000
 180a134:	cmp    ecx,eax
 180a136:	jb     0x180a142
 180a138:	mov    eax,ecx
 180a13a:	pop    ecx
 180a13b:	xchg   esp,eax
 180a13c:	mov    eax,DWORD PTR [eax]
 180a13e:	mov    DWORD PTR [esp],eax
 180a141:	ret    
 180a142:	sub    eax,0x1000
 180a147:	test   DWORD PTR [eax],eax
 180a149:	jmp    0x180a134
 180a14b:	int3   
 180a14c:	int3   
 180a14d:	int3   
 180a14e:	int3   
 180a14f:	int3   
 180a150:	jmp    DWORD PTR ds:0x18191ec
 180a156:	int3   
 180a157:	int3   
 180a158:	int3   
 180a159:	int3   
 180a15a:	int3   
 180a15b:	int3   
 180a15c:	jmp    DWORD PTR ds:0x1819200
 180a162:	int3   
 180a163:	int3   
 180a164:	int3   
 180a165:	int3   
 180a166:	int3   
 180a167:	int3   
 180a168:	in     al,0xff
 180a16a:	(bad)  
 180a16b:	inc    DWORD PTR [eax]
 180a16d:	add    BYTE PTR [eax],al
 180a16f:	add    al,dl
 180a171:	(bad)  
 180a172:	(bad)  
 180a173:	inc    DWORD PTR [eax]
 180a175:	add    BYTE PTR [eax],al
 180a177:	add    dh,bh
 180a179:	(bad)  
 180a17a:	(bad)  
 180a17b:	call   edi
 180a17d:	cwde   
 180a17e:	add    BYTE PTR [ecx],0xeb
 180a181:	cwde   
 180a182:	add    BYTE PTR [ecx],0x0
 180a185:	add    BYTE PTR [eax],al
 180a187:	add    dh,bh
 180a189:	(bad)  
 180a18a:	(bad)  
 180a18b:	inc    DWORD PTR [eax]
 180a18d:	add    BYTE PTR [eax],al
 180a18f:	add    ah,dl
 180a191:	(bad)  
 180a192:	(bad)  
 180a193:	inc    DWORD PTR [eax]
 180a195:	add    BYTE PTR [eax],al
 180a197:	add    dh,bh
 180a199:	(bad)  
 180a19a:	(bad)  
 180a19b:	jmp    FWORD PTR [esp+ebx*4-0x80]
 180a19f:	add    DWORD PTR [eax-0x64],esi
 180a1a2:	add    BYTE PTR [ecx],0x0
 180a1a5:	add    BYTE PTR [eax],al
 180a1a7:	add    dh,bh
 180a1a9:	(bad)  
 180a1aa:	(bad)  
 180a1ab:	inc    DWORD PTR [eax]
 180a1ad:	add    BYTE PTR [eax],al
 180a1af:	add    al,bl
 180a1b1:	(bad)  
 180a1b2:	(bad)  
 180a1b3:	inc    DWORD PTR [eax]
 180a1b5:	add    BYTE PTR [eax],al
 180a1b7:	add    dh,bh
 180a1b9:	(bad)  
 180a1ba:	(bad)  
 180a1bb:	(bad)  
 180a1bc:	mov    ebx,0xce01809d
 180a1c1:	popf   
 180a1c2:	add    BYTE PTR [ecx],0x1
 180a1c5:	add    BYTE PTR [eax],al
 180a1c7:	add    BYTE PTR [eax],dh
 180a1c9:	adc    DWORD PTR [eax],eax
 180a1cb:	add    BYTE PTR [edi+esi*1],ch
 180a1ce:	add    DWORD PTR [eax],eax
 180a1d0:	adc    al,0xb0
 180a1d2:	add    DWORD PTR [eax],eax
 180a1d4:	js     0x180a178
 180a1d6:	add    BYTE PTR [eax],al
 180a1d8:	add    BYTE PTR [ebx+0x0],ah
 180a1de:	add    BYTE PTR [eax],al
 180a1e0:	add    BYTE PTR [eax],al
 180a1e2:	add    BYTE PTR [eax],al
 180a1e4:	add    DWORD PTR [eax],eax
 180a1e6:	add    BYTE PTR [eax],al
 180a1e8:	pusha  
 180a1e9:	adc    DWORD PTR [eax],eax
 180a1eb:	add    BYTE PTR [eax],dh
 180a1ed:	aaa    
 180a1ee:	add    DWORD PTR [eax],eax
 180a1f0:	add    BYTE PTR [eax-0x5d9bffff],dh
 180a1f6:	add    BYTE PTR [eax],al
 180a1f8:	or     BYTE PTR [ebx+0x0],ah
 180a1fe:	add    BYTE PTR [eax],al
 180a200:	add    BYTE PTR [eax],al
 180a202:	add    BYTE PTR [eax],al
 180a204:	add    DWORD PTR [eax],eax
 180a206:	add    BYTE PTR [eax],al
 180a208:	jo     0x180a21b
 180a20a:	add    BYTE PTR [eax],al
 180a20c:	xor    al,0x37
 180a20e:	add    DWORD PTR [eax],eax
 180a210:	sbb    al,0xb0
 180a212:	add    DWORD PTR [eax],eax
 180a214:	and    BYTE PTR [edx-0x5cec0000],0x0
	...
 180a223:	add    BYTE PTR [ecx],al
 180a225:	add    BYTE PTR [eax],al
 180a227:	add    BYTE PTR [eax+0x38000011],al
 180a22d:	aaa    
 180a22e:	add    DWORD PTR [eax],eax
 180a230:	or     al,0xb0
 180a232:	add    DWORD PTR [eax],eax
 180a234:	jo     0x180a1d8
 180a236:	add    BYTE PTR [eax],al
 180a238:	sbb    al,0xa3
	...
 180a262:	add    BYTE PTR [eax],al
 180a264:	sahf   
 180a265:	mov    ds:0xa2b80000,al
 180a26a:	add    BYTE PTR [eax],al
 180a26c:	add    BYTE PTR [eax],al
 180a26e:	add    BYTE PTR [eax],al
 180a270:	out    0xa2,al
 180a272:	add    BYTE PTR [eax],al
 180a274:	add    BYTE PTR [eax],al
 180a276:	add    BYTE PTR [eax],al
 180a278:	mov    BYTE PTR [edx+0x0],ah
 180a27e:	add    BYTE PTR [eax],al
 180a280:	into   
 180a281:	mov    ds:0x0,al
 180a286:	add    BYTE PTR [eax],al
 180a288:	add    BYTE PTR [eax],al
 180a28a:	push   edx
 180a28b:	gs addr16 inc ebx
 180a28e:	outs   dx,DWORD PTR ds:[esi]
 180a28f:	outs   dx,BYTE PTR ds:[esi]
 180a290:	outs   dx,BYTE PTR ds:[esi]
 180a291:	arpl   WORD PTR gs:[edx+edx*2+0x65],si
 180a296:	imul   esi,DWORD PTR [bp+di+0x74],0x577972
 180a29e:	add    BYTE PTR [eax],al
 180a2a0:	push   edi
 180a2a1:	dec    esi
 180a2a2:	gs je  0x180a2e8
 180a2a5:	popa   
 180a2a6:	outs   dx,BYTE PTR ds:[esi]
 180a2a7:	arpl   WORD PTR [ebp+0x6c],sp
 180a2aa:	inc    ebx
 180a2ab:	outs   dx,DWORD PTR ds:[esi]
 180a2ac:	outs   dx,BYTE PTR ds:[esi]
 180a2ad:	outs   dx,BYTE PTR ds:[esi]
 180a2ae:	arpl   WORD PTR gs:[ecx+ebp*2+0x6f],si
 180a2b3:	outs   dx,BYTE PTR ds:[esi]
 180a2b4:	xor    dl,BYTE PTR [edi+0x0]
 180a2b7:	add    BYTE PTR [eax],al
 180a2b9:	add    BYTE PTR [edi+0x4e],dl
 180a2bc:	gs je  0x180a300
 180a2bf:	fs fs inc ebx
 180a2c2:	outs   dx,DWORD PTR ds:[esi]
 180a2c3:	outs   dx,BYTE PTR ds:[esi]
 180a2c4:	outs   dx,BYTE PTR ds:[esi]
 180a2c5:	arpl   WORD PTR gs:[ecx+ebp*2+0x6f],si
 180a2ca:	outs   dx,BYTE PTR ds:[esi]
 180a2cb:	xor    dl,BYTE PTR [edi+0x0]
 180a2ce:	add    BYTE PTR [eax],al
 180a2d0:	inc    ebx
 180a2d1:	jb     0x180a338
 180a2d3:	fs push ebp
 180a2d5:	dec    ecx
 180a2d6:	push   eax
 180a2d7:	popa   
 180a2d8:	jb     0x180a34d
 180a2da:	gs push ebp
 180a2dc:	jae    0x180a343
 180a2de:	jb     0x180a32e
 180a2e0:	popa   
 180a2e1:	ins    DWORD PTR es:[edi],dx
 180a2e2:	gs push edi
 180a2e4:	add    BYTE PTR [eax],al
 180a2e6:	add    BYTE PTR [eax],al
 180a2e8:	dec    ebp
 180a2e9:	jo     0x180a35d
 180a2eb:	ins    DWORD PTR es:[edi],dx
 180a2ec:	jae    0x180a355
 180a2ee:	inc    edi
 180a2ef:	gs je  0x180a337
 180a2f2:	jb     0x180a366
 180a2f4:	outs   dx,DWORD PTR ds:[esi]
 180a2f5:	jb     0x180a34a
 180a2f7:	je     0x180a36b
 180a2f9:	imul   ebp,DWORD PTR [esi+0x67],0x0
	...
 180a334:	sbb    eax,0x559f33
 180a339:	add    BYTE PTR [eax],al
 180a33b:	add    BYTE PTR [esi],bh
 180a33d:	movs   BYTE PTR es:[edi],BYTE PTR ds:[esi]
 180a33e:	add    BYTE PTR [eax],al
 180a340:	add    DWORD PTR [eax],eax
 180a342:	add    BYTE PTR [eax],al
 180a344:	pop    ss
 180a345:	add    BYTE PTR [eax],al
 180a347:	add    BYTE PTR [edi],dl
 180a349:	add    BYTE PTR [eax],al
 180a34b:	add    BYTE PTR [eax-0x5d],bl
 180a34e:	add    BYTE PTR [eax],al
 180a350:	mov    ah,0xa3
 180a352:	add    BYTE PTR [eax],al
 180a354:	adc    BYTE PTR [eax+eax*1+0x385000],ah
 180a35b:	add    BYTE PTR [eax-0x7fffffc8],dh
 180a361:	add    DWORD PTR [eax],0x81f000
 180a367:	add    BYTE PTR [eax-0xfffff83],al
 180a36d:	jl     0x180a36f
 180a36f:	add    al,ah
 180a371:	dec    ecx
 180a372:	add    BYTE PTR [eax],al
 180a374:	xor    BYTE PTR [eax+eax*1+0x0],bh
 180a378:	jo     0x180a2fd
 180a37a:	add    BYTE PTR [eax],al
 180a37c:	add    BYTE PTR [ebp+0x0],bh
 180a37f:	add    BYTE PTR [eax+0x7c],dh
 180a382:	add    BYTE PTR [eax],al
 180a384:	and    BYTE PTR [ebp+0x0],dh
 180a387:	add    BYTE PTR [eax],ah
 180a389:	jbe    0x180a38b
 180a38b:	add    BYTE PTR [eax-0x3fffff8a],al
 180a391:	js     0x180a393
 180a393:	add    BYTE PTR [eax-0x75],ah
 180a396:	add    BYTE PTR [eax],al
 180a398:	adc    BYTE PTR [esi+0x0],bh
 180a39b:	add    BYTE PTR [eax-0x1fffff80],dh
 180a3a1:	add    BYTE PTR [eax],0x0
 180a3a4:	and    BYTE PTR [eax+0x0],0x0
 180a3a8:	jo     0x180a32e
 180a3aa:	add    BYTE PTR [eax],al
 180a3ac:	add    BYTE PTR [edi+0x0],al
 180a3af:	add    al,al
 180a3b1:	aaa    
 180a3b2:	add    BYTE PTR [eax],al
 180a3b4:	dec    eax
 180a3b5:	movs   BYTE PTR es:[edi],BYTE PTR ds:[esi]
 180a3b6:	add    BYTE PTR [eax],al
 180a3b8:	pop    esp
 180a3b9:	movs   BYTE PTR es:[edi],BYTE PTR ds:[esi]
 180a3ba:	add    BYTE PTR [eax],al
 180a3bc:	jo     0x180a362
 180a3be:	add    BYTE PTR [eax],al
 180a3c0:	and    BYTE PTR [eax+eax*1+0xa49800],0x0
 180a3c8:	test   eax,0xb40000a4
 180a3cd:	movs   BYTE PTR es:[edi],BYTE PTR ds:[esi]
 180a3ce:	add    BYTE PTR [eax],al
 180a3d0:	ret    
 180a3d1:	movs   BYTE PTR es:[edi],BYTE PTR ds:[esi]
 180a3d2:	add    BYTE PTR [eax],al
 180a3d4:	shl    DWORD PTR [eax+eax*1+0xa4e300],1
 180a3db:	add    ah,dh
 180a3dd:	movs   BYTE PTR es:[edi],BYTE PTR ds:[esi]
 180a3de:	add    BYTE PTR [eax],al
 180a3e0:	jmp    DWORD PTR [eax+eax*1+0xa50c00]
 180a3e7:	add    BYTE PTR [ecx],bl
 180a3e9:	movs   DWORD PTR es:[edi],DWORD PTR ds:[esi]
 180a3ea:	add    BYTE PTR [eax],al
 180a3ec:	sub    al,0xa5
 180a3ee:	add    BYTE PTR [eax],al
 180a3f0:	aaa    
 180a3f1:	movs   DWORD PTR es:[edi],DWORD PTR ds:[esi]
 180a3f2:	add    BYTE PTR [eax],al
 180a3f4:	dec    ecx
 180a3f5:	movs   DWORD PTR es:[edi],DWORD PTR ds:[esi]
 180a3f6:	add    BYTE PTR [eax],al
 180a3f8:	push   esp
 180a3f9:	movs   DWORD PTR es:[edi],DWORD PTR ds:[esi]
 180a3fa:	add    BYTE PTR [eax],al
 180a3fc:	popa   
 180a3fd:	movs   DWORD PTR es:[edi],DWORD PTR ds:[esi]
 180a3fe:	add    BYTE PTR [eax],al
 180a400:	js     0x180a3a7
 180a402:	add    BYTE PTR [eax],al
 180a404:	xchg   DWORD PTR [ebp-0x5a6a0000],esp
 180a40a:	add    BYTE PTR [eax],al
 180a40c:	cmps   BYTE PTR ds:[esi],BYTE PTR es:[edi]
 180a40d:	movs   DWORD PTR es:[edi],DWORD PTR ds:[esi]
 180a40e:	add    BYTE PTR [eax],al
 180a410:	add    BYTE PTR [eax],al
 180a412:	add    DWORD PTR [eax],eax
 180a414:	add    al,BYTE PTR [eax]
 180a416:	add    eax,DWORD PTR [eax]
 180a418:	add    al,0x0
 180a41a:	add    eax,0x7000600
 180a41f:	add    BYTE PTR [eax],cl
 180a421:	add    BYTE PTR [ecx],cl
 180a423:	add    BYTE PTR [edx],cl
 180a425:	add    BYTE PTR [ebx],cl
 180a427:	add    BYTE PTR [eax+eax*1],cl
 180a42a:	or     eax,0xf000e00
 180a42f:	add    BYTE PTR [eax],dl
 180a431:	add    BYTE PTR [ecx],dl
 180a433:	add    BYTE PTR [edx],dl
 180a435:	add    BYTE PTR [ebx],dl
 180a437:	add    BYTE PTR [eax+eax*1],dl
 180a43a:	adc    eax,0x4e001600
 180a43f:	inc    ebp
 180a440:	push   esp
 180a441:	push   ebx
 180a442:	dec    eax
 180a443:	cs inc ebp
 180a445:	pop    eax
 180a446:	inc    ebp
 180a447:	add    BYTE PTR [ebx+0x6f],al
 180a44a:	outs   dx,BYTE PTR ds:[esi]
 180a44b:	jbe    0x180a4b2
 180a44d:	jb     0x180a4c3
 180a44f:	inc    edi
 180a450:	jne    0x180a4bb
 180a452:	fs push esp
 180a454:	outs   dx,DWORD PTR ds:[esi]
 180a455:	push   ebx
 180a456:	je     0x180a4ca
 180a458:	imul   ebp,DWORD PTR [esi+0x67],0x6e6f4300
 180a45f:	jbe    0x180a4c6
 180a461:	jb     0x180a4d7
 180a463:	push   ebx
 180a464:	je     0x180a4d8
 180a466:	imul   ebp,DWORD PTR [esi+0x67],0x75476f54
 180a46d:	imul   esp,DWORD PTR [eax+eax*1+0x44],0x6c707369
 180a475:	popa   
 180a476:	jns    0x180a4c5
 180a478:	gs jae 0x180a4ee
 180a47b:	popa   
 180a47c:	addr16 gs dec ebp
 180a47f:	add    BYTE PTR [ecx+ebp*2+0x73],al
 180a483:	jo     0x180a4f1
 180a485:	popa   
 180a486:	jns    0x180a4d5
 180a488:	gs jae 0x180a4fe
 180a48b:	popa   
 180a48c:	addr16 gs push esp
 180a48f:	outs   dx,DWORD PTR ds:[esi]
 180a490:	inc    ebx
 180a491:	outs   dx,DWORD PTR ds:[esi]
 180a492:	outs   dx,BYTE PTR ds:[esi]
 180a493:	jae    0x180a504
 180a495:	ins    BYTE PTR es:[edi],dx
 180a496:	add    BYTE PTR gs:[esi+0x72],al
 180a49a:	gs gs push ecx
 180a49d:	jne    0x180a50e
 180a49f:	je     0x180a506
 180a4a1:	fs push ebx
 180a4a3:	je     0x180a517
 180a4a5:	imul   ebp,DWORD PTR [esi+0x67],0x65724600
 180a4ac:	gs push ebx
 180a4ae:	je     0x180a522
 180a4b0:	imul   ebp,DWORD PTR [esi+0x67],0x6e654700
 180a4b7:	gs jb  0x180a523
 180a4ba:	arpl   WORD PTR [ebp+0x6f],cx
 180a4bd:	outs   dx,BYTE PTR ds:[esi]
 180a4be:	imul   esi,DWORD PTR [edi+ebp*2+0x72],0x74654700
 180a4c6:	inc    ebp
 180a4c7:	outs   dx,BYTE PTR ds:[esi]
 180a4c8:	jne    0x180a537
 180a4ca:	push   ebx
 180a4cb:	je     0x180a53f
 180a4cd:	imul   ebp,DWORD PTR [esi+0x67],0x696e4900
 180a4d4:	je     0x180a53f
 180a4d6:	popa   
 180a4d7:	ins    BYTE PTR es:[edi],dx
 180a4d8:	imul   edi,DWORD PTR [edx+0x65],0x736e6f43
 180a4df:	outs   dx,DWORD PTR ds:[esi]
 180a4e0:	ins    BYTE PTR es:[edi],dx
 180a4e1:	add    BYTE PTR gs:[ebp+0x61],cl
 180a4e5:	imul   esp,DWORD PTR [ebp+0x51],0x75
 180a4e9:	outs   dx,DWORD PTR ds:[esi]
 180a4ea:	je     0x180a551
 180a4ec:	fs push ebx
 180a4ee:	je     0x180a562
 180a4f0:	imul   ebp,DWORD PTR [esi+0x67],0x6b614d00
 180a4f7:	gs push ebx
 180a4f9:	je     0x180a56d
 180a4fb:	imul   ebp,DWORD PTR [esi+0x67],0x74614d00
 180a502:	arpl   WORD PTR [eax+0x43],bp
 180a505:	ins    DWORD PTR es:[edi],dx
 180a506:	fs dec esp
 180a508:	imul   ebp,DWORD PTR [esi+0x65],0x74614d00
 180a50f:	arpl   WORD PTR [eax+0x45],bp
 180a512:	outs   dx,BYTE PTR ds:[esi]
 180a513:	jne    0x180a582
 180a515:	push   esp
 180a516:	popa   
 180a517:	add    BYTE PTR [di+0x61],cl
 180a51b:	je     0x180a580
 180a51d:	push   0x73676154
 180a522:	dec    ecx
 180a523:	outs   dx,BYTE PTR ds:[esi]
 180a524:	inc    ebx
 180a525:	ins    DWORD PTR es:[edi],dx
 180a526:	fs dec esp
 180a528:	imul   ebp,DWORD PTR [esi+0x65],0x74614d00
 180a52f:	arpl   WORD PTR [eax+0x54],bp
 180a532:	outs   dx,DWORD PTR ds:[esi]
 180a533:	imul   esp,DWORD PTR [ebp+0x6e],0x0
 180a537:	push   eax
 180a538:	jb     0x180a59f
 180a53a:	jo     0x180a5ae
 180a53c:	outs   dx,DWORD PTR ds:[esi]
 180a53d:	arpl   WORD PTR [ebp+0x73],sp
 180a540:	jae    0x180a585
 180a542:	outs   dx,DWORD PTR ds:[esi]
 180a543:	ins    DWORD PTR es:[edi],dx
 180a544:	ins    DWORD PTR es:[edi],dx
 180a545:	popa   
 180a546:	outs   dx,BYTE PTR ds:[esi]
 180a547:	add    BYTE PTR fs:[eax+0x72],dl
 180a54b:	imul   ebp,DWORD PTR [esi+0x74],0x6f727245
 180a552:	jb     0x180a554
 180a554:	push   eax
 180a555:	jb     0x180a5c0
 180a557:	outs   dx,BYTE PTR ds:[esi]
 180a558:	je     0x180a5a7
 180a55a:	gs jae 0x180a5d0
 180a55d:	popa   
 180a55e:	add    BYTE PTR gs:[bx+si+0x72],dl
 180a563:	imul   ebp,DWORD PTR [esi+0x74],0x7373654d
 180a56a:	popa   
 180a56b:	addr16 gs inc esi
 180a56e:	jb     0x180a5df
 180a570:	ins    DWORD PTR es:[edi],dx
 180a571:	dec    ebp
 180a572:	outs   dx,DWORD PTR ds:[esi]
 180a573:	fs jne 0x180a5e2
 180a576:	add    BYTE PTR gs:[eax+0x72],dl
 180a57a:	outs   dx,DWORD PTR ds:[esi]
 180a57b:	arpl   WORD PTR [ebp+0x73],sp
 180a57e:	jae    0x180a5c3
 180a580:	outs   dx,DWORD PTR ds:[esi]
 180a581:	ins    DWORD PTR es:[edi],dx
 180a582:	ins    DWORD PTR es:[edi],dx
 180a583:	popa   
 180a584:	outs   dx,BYTE PTR ds:[esi]
 180a585:	add    BYTE PTR fs:[edx+0x65],dl
 180a589:	data16 jb 0x180a5f1
 180a58c:	jae    0x180a5f6
 180a58e:	inc    ebx
 180a58f:	outs   dx,DWORD PTR ds:[esi]
 180a590:	outs   dx,BYTE PTR ds:[esi]
 180a591:	jae    0x180a602
 180a593:	ins    BYTE PTR es:[edi],dx
 180a594:	add    BYTE PTR gs:[edx+0x65],dl
 180a598:	imul   esi,DWORD PTR [bp+di+0x74],0x6f437265
 180a5a0:	outs   dx,BYTE PTR ds:[esi]
 180a5a1:	je     0x180a608
 180a5a3:	js     0x180a619
 180a5a5:	add    BYTE PTR [edx+0x65],dl
 180a5a8:	imul   esi,DWORD PTR [bp+di+0x74],0x65487265
 180a5b0:	ins    BYTE PTR es:[edi],dx
 180a5b1:	jo     0x180a618
 180a5b3:	jb     0x180a5b5
