
ed6018064304e2af770c74e57a8d405d045c568c781bffd7e29bfecaaa3a80ea.exe:     file format pei-i386


Disassembly of section .text:

00402000 <.text>:
  402000:	ror    BYTE PTR [ebp+0x0],0x0
  402004:	add    BYTE PTR [eax],al
  402006:	add    BYTE PTR [eax],al
  402008:	dec    eax
  402009:	add    BYTE PTR [eax],al
  40200b:	add    BYTE PTR [edx],al
  40200d:	add    BYTE PTR ds:0x29a000,al
  402013:	add    BYTE PTR [edx+eiz*1+0x90000],ch
  40201a:	add    BYTE PTR [eax],al
  40201c:	adc    al,BYTE PTR [eax]
  40201e:	add    BYTE PTR [esi],al
  402020:	sbb    BYTE PTR [edi],ah
  402022:	add    BYTE PTR [eax],al
  402024:	xchg   BYTE PTR [edx],al
  402026:	add    BYTE PTR [eax],al
  402028:	push   eax
  402029:	and    BYTE PTR [eax],al
  40202b:	add    BYTE PTR [eax],al
  40202d:	add    DWORD PTR [eax],eax
	...
  40204f:	add    BYTE PTR [edx+0xe2d3912],bh
  402055:	mov    ds:0xae480473,al
  40205a:	ins    BYTE PTR es:[edi],dx
  40205b:	sbb    eax,0x39879f9
  402060:	add    DWORD PTR ds:0xb321cb8f,0x7c
  402067:	popa   
  402068:	cmps   DWORD PTR ds:[esi],DWORD PTR es:[edi]
  402069:	sub    ecx,edi
  40206b:	outs   dx,BYTE PTR ds:[esi]
  40206c:	jle    0x4020d6
  40206e:	jg     0x402016
  402070:	movmskps eax,xmm6
  402073:	stos   DWORD PTR es:[edi],eax
  402074:	push   esp
  402075:	in     al,0x5d
  402077:	inc    eax
  402079:	inc    esp
  40207a:	dec    esi
  40207b:	mov    dh,al
  40207d:	retf   0x8f01
  402080:	xor    eax,0x1de37d50
  402085:	pop    edx
  402086:	and    BYTE PTR [edi],bl
  402088:	(bad)  
  402089:	fs dec esp
  40208b:	ins    DWORD PTR es:[edi],dx
  40208c:	in     al,0x37
  40208e:	and    BYTE PTR [ebp-0x15],cl
  402091:	mov    WORD PTR [edx+eax*2+0x3f57e41e],?
  402098:	inc    eax
  402099:	inc    edx
  40209a:	dec    esi
  40209b:	or     al,0x4f
  40209d:	lock test DWORD PTR [bx+si-0x429d],0x63c533ab
  4020a7:	add    eax,0x98691a2f
  4020ac:	jns    0x4020a3
  4020ae:	imul   edx,DWORD PTR [esi-0x17377808],0x28
  4020b5:	pusha  
  4020b6:	lods   al,BYTE PTR ds:[esi]
  4020b7:	sub    dh,BYTE PTR [ebp-0x6f]
  4020ba:	sar    DWORD PTR [ebp+0x60ebddd6],0x90
  4020c1:	mov    WORD PTR [eax],?
  4020c3:	sbb    al,0x91
  4020c5:	jmp    0xb8f1f3bb
  4020ca:	cmp    al,BYTE PTR [eax+eax*4+0x3c]
  4020ce:	loopne 0x4020af
  4020d0:	loope  0x402108
  4020d2:	cwde   
  4020d3:	popa   
  4020d4:	test   eax,0xc3dddb9a
  4020d9:	or     al,ch
  4020db:	movs   BYTE PTR es:[edi],BYTE PTR ds:[esi]
  4020dc:	mov    edi,0xa94d0a02
  4020e1:	mov    ah,0x1c
  4020e3:	cdq    
  4020e4:	jl     0x40211d
  4020e6:	xchg   edx,eax
  4020e7:	dec    ecx
  4020e8:	adc    al,BYTE PTR [ebx]
  4020ea:	push   es
  4020eb:	aas    
  4020ec:	aaa    
  4020ed:	ja     0x4020c2
  4020ef:	jns    0x402144
  4020f1:	loopne 0x4020c1
  4020f3:	sbb    esi,DWORD PTR [ecx-0x6]
  4020f6:	dec    edi
  4020f7:	adc    ebp,DWORD PTR [edx]
  4020f9:	ret    0x9f65
  4020fc:	fs push ss
  4020fe:	das    
  4020ff:	push   0xdfe7355c
  402104:	lods   al,BYTE PTR ds:[esi]
  402105:	fnsave [ebx]
  402107:	outs   dx,DWORD PTR ds:[esi]
  402108:	or     eax,ebp
  40210a:	push   esp
  40210b:	pop    es
  40210c:	sub    esi,DWORD PTR [ebx-0x46c5b382]
  402112:	or     al,0xbc
  402114:	xor    BYTE PTR [esi],0xcf
  402117:	inc    edi
  402118:	rcl    DWORD PTR [ebx],0xb7
  40211b:	push   es
  40211c:	ins    BYTE PTR es:[edi],dx
  40211d:	xchg   esp,eax
  40211e:	outs   dx,DWORD PTR ds:[esi]
  40211f:	cli    
  402120:	cld    
  402121:	add    eax,0xaca49114
  402126:	cwde   
  402127:	sub    al,0xce
  402129:	popa   
  40212a:	or     al,0x21
  40212c:	inc    BYTE PTR [edi-0x39bb399d]
  402132:	cmc    
  402133:	or     eax,eax
  402135:	or     edx,eax
  402137:	neg    DWORD PTR [eax+eiz*4-0x4c]
  40213b:	mov    eax,ds:0x20abc1c3
  402140:	pop    ebp
  402141:	in     al,dx
  402142:	call   0xd89ac7fa
  402147:	push   ds
  402148:	stos   DWORD PTR es:[edi],eax
  402149:	mov    ah,0x5
  40214b:	clc    
  40214c:	xor    dl,BYTE PTR [eax]
  40214e:	imul   esi,DWORD PTR [eax+0x7301b],0xffffff91
  402155:	add    DWORD PTR [eax],eax
  402157:	add    BYTE PTR [ecx],al
  402159:	add    BYTE PTR [eax],al
  40215b:	adc    DWORD PTR [esi],edx
  40215d:	push   0xa
  40215f:	jb     0x402162
  402161:	add    BYTE PTR [eax],al
  402163:	jo     0x40217b
  402165:	lea    eax,[ecx]
  402167:	add    BYTE PTR [eax],al
  402169:	add    DWORD PTR [eax],ebp
  40216b:	add    al,0x0
  40216d:	add    BYTE PTR [esi],al
  40216f:	add    ch,BYTE PTR ds:0x2200d
  402175:	add    BYTE PTR [eax-0x22f9ec96],al
  40217b:	imul   eax,DWORD PTR [ecx],0x0
  40217e:	add    BYTE PTR [edx],al
  402180:	jb     0x4021bb
  402182:	add    BYTE PTR [eax],al
  402184:	jo     0x40219c
  402186:	outs   dx,DWORD PTR ds:[esi]
  402187:	push   ss
  402188:	add    BYTE PTR [eax],al
  40218a:	or     ch,BYTE PTR [ecx+edx*1]
  40218d:	add    dl,BYTE PTR [esi]
  40218f:	add    ch,BYTE PTR [edi+0x17]
  402192:	add    BYTE PTR [eax],al
  402194:	or     dl,BYTE PTR [edi]
  402196:	pop    ecx
  402197:	outs   dx,DWORD PTR ds:[esi]
  402198:	sbb    BYTE PTR [eax],al
  40219a:	add    BYTE PTR [edx],cl
  40219c:	adc    BYTE PTR [eax],al
  40219e:	jb     0x4021dd
  4021a0:	add    BYTE PTR [eax],al
  4021a2:	jo     0x4021a6
  4021a4:	sub    BYTE PTR [ecx],bl
  4021a6:	add    BYTE PTR [eax],al
  4021a8:	or     dl,BYTE PTR [esi]
  4021aa:	lea    eax,[ecx]
  4021ac:	add    BYTE PTR [eax],al
  4021ae:	add    DWORD PTR [eax],ebp
  4021b0:	add    al,0x0
  4021b2:	add    BYTE PTR [esi],al
  4021b4:	add    dh,BYTE PTR [edx+0x65]
  4021b7:	add    BYTE PTR [eax],al
  4021b9:	jo     0x4021e3
  4021bb:	sbb    al,BYTE PTR [eax]
  4021bd:	add    BYTE PTR [edx],cl
  4021bf:	or     eax,DWORD PTR [edi]
  4021c1:	sub    BYTE PTR [ebx],bl
  4021c3:	add    BYTE PTR [eax],al
  4021c5:	or     ch,BYTE PTR ds:0x2200d
  4021cb:	add    BYTE PTR [eax-0x22f9ec96],al
  4021d1:	adc    eax,0x7e000001
  4021d6:	sbb    al,0x0
  4021d8:	add    BYTE PTR [edx],cl
  4021da:	jb     0x4021b9
  4021dc:	add    BYTE PTR [eax],al
  4021de:	jo     0x40224f
  4021e0:	sbb    eax,0xc0a0000
  4021e5:	or     BYTE PTR [ecx],bh
  4021e7:	int3   
  4021e8:	add    BYTE PTR [eax],al
  4021ea:	add    BYTE PTR [eax],cl
  4021ec:	jb     0x402194
  4021ee:	add    DWORD PTR [eax],eax
  4021f0:	jo     0x402208
  4021f2:	outs   dx,DWORD PTR ds:[esi]
  4021f3:	push   ds
  4021f4:	add    BYTE PTR [eax],al
  4021f6:	or     cl,BYTE PTR [eax]
  4021f8:	jb     0x4021ae
  4021fa:	add    DWORD PTR [eax],eax
  4021fc:	jo     0x40226d
  4021fe:	sbb    eax,0xd0a0000
  402203:	or     DWORD PTR ds:0x5200d,ebp
  402209:	add    BYTE PTR [eax-0x22f9ec96],al
  40220f:	xlat   BYTE PTR ds:[ebx]
  402210:	add    BYTE PTR [eax],al
  402212:	add    BYTE PTR [ecx],cl
  402214:	jb     0x402295
  402216:	add    al,BYTE PTR [eax]
  402218:	jo     0x40228c
  40221a:	xchg   edi,eax
  40221b:	add    al,BYTE PTR [eax]
  40221d:	jo     0x402236
  40221f:	outs   dx,DWORD PTR ds:[esi]
  402220:	pop    ds
  402221:	add    BYTE PTR [eax],al
  402223:	or     cl,BYTE PTR [ecx]
  402225:	jb     0x40222c
  402227:	add    eax,DWORD PTR [eax]
  402229:	jo     0x40229d
  40222b:	pop    ds
  40222c:	add    eax,DWORD PTR [eax]
  40222e:	jo     0x402247
  402230:	outs   dx,DWORD PTR ds:[esi]
  402231:	pop    ds
  402232:	add    BYTE PTR [eax],al
  402234:	or     cl,BYTE PTR [ecx]
  402236:	jb     0x402285
  402238:	add    eax,DWORD PTR [eax]
  40223a:	jo     0x40225b
  40223c:	adc    BYTE PTR [ebx+eiz*1+0x1a010000],cl
  402243:	outs   dx,DWORD PTR ds:[esi]
  402244:	pop    ds
  402245:	add    BYTE PTR [eax],al
  402247:	or     cl,BYTE PTR [ecx]
  402249:	jb     0x4022b2
  40224b:	add    eax,DWORD PTR [eax]
  40224d:	jo     0x402277
  40224f:	and    BYTE PTR [eax],al
  402251:	add    BYTE PTR [edx],cl
  402253:	jb     0x4022ce
  402255:	add    eax,DWORD PTR [eax]
  402257:	jo     0x402271
  402259:	lea    eax,[ecx]
  40225b:	add    BYTE PTR [eax],al
  40225d:	add    DWORD PTR [ebx],edx
  40225f:	pop    es
  402260:	adc    DWORD PTR [edi],eax
  402262:	push   ss
  402263:	pop    es
  402264:	mov    ds:0x17170711,al
  402269:	mov    WORD PTR [edx],fs
  40226b:	add    BYTE PTR [eax],al
  40226d:	add    DWORD PTR [edx+0x21280711],esp
  402273:	add    BYTE PTR [eax],al
  402275:	or     ch,BYTE PTR [edi+0x22]
  402278:	add    BYTE PTR [eax],al
  40227a:	or     bl,dh
  40227c:	or     cl,BYTE PTR [ecx]
  40227e:	sub    al,0x6
  402280:	or     DWORD PTR [edi+0x23],ebp
  402283:	add    BYTE PTR [eax],al
  402285:	or     bl,ah
  402287:	or     BYTE PTR [edx-0x6b],dh
  40228a:	add    eax,DWORD PTR [eax]
  40228c:	jo     0x4022a4
  40228e:	mov    WORD PTR [ebx],fs
  402290:	add    BYTE PTR [eax],al
  402292:	add    DWORD PTR [edi+0x24],ebp
  402295:	add    BYTE PTR [eax],al
  402297:	or     ah,BYTE PTR [ebp+0x1000023]
  40229d:	adc    eax,DWORD PTR [eax+ecx*1]
  4022a0:	jb     0x402237
  4022a2:	add    eax,DWORD PTR [eax]
  4022a4:	jo     0x4022b7
  4022a6:	add    al,0x17
  4022a8:	pop    eax
  4022a9:	and    eax,0x238c0413
  4022ae:	add    BYTE PTR [eax],al
  4022b0:	add    DWORD PTR [edx],ebx
  4022b2:	outs   dx,DWORD PTR ds:[esi]
  4022b3:	pop    ds
  4022b4:	add    BYTE PTR [eax],al
  4022b6:	or     bl,dh
  4022b8:	or     cl,BYTE PTR [eax]
  4022ba:	sub    al,0x6
  4022bc:	or     BYTE PTR [edi+0x23],ch
  4022bf:	add    BYTE PTR [eax],al
  4022c1:	or     bl,ah
  4022c3:	ficom  WORD PTR [ebx]
  4022c5:	adc    eax,DWORD PTR ds:0x5280511
  4022cb:	add    BYTE PTR [eax],al
  4022cd:	push   es
  4022ce:	and    BYTE PTR ds:0x6a800000,al
  4022d4:	adc    eax,DWORD PTR [esi]
  4022d6:	ficom  WORD PTR [edx]
  4022d8:	jb     0x40227b
  4022da:	add    eax,DWORD PTR [eax]
  4022dc:	jo     0x4022f4
  4022de:	lea    eax,[ecx]
  4022e0:	add    BYTE PTR [eax],al
  4022e2:	add    DWORD PTR [eax],ebp
  4022e4:	add    al,0x0
  4022e6:	add    BYTE PTR [esi],al
  4022e8:	push   es
  4022e9:	sub    dl,BYTE PTR [ecx]
  4022eb:	push   es
  4022ec:	sub    al,BYTE PTR [eax]
  4022ee:	add    BYTE PTR [eax],al
  4022f0:	inc    ecx
  4022f1:	dec    esp
  4022f2:	add    BYTE PTR [eax],al
  4022f4:	add    al,BYTE PTR [eax]
  4022f6:	add    BYTE PTR [eax],al
  4022f8:	cmps   DWORD PTR ds:[esi],DWORD PTR es:[edi]
  4022f9:	add    BYTE PTR [eax],al
  4022fb:	add    BYTE PTR [edx+0x0],bh
  4022fe:	add    BYTE PTR [eax],al
  402300:	and    DWORD PTR [ecx],eax
  402302:	add    BYTE PTR [eax],al
  402304:	or     al,BYTE PTR [eax]
  402306:	add    BYTE PTR [eax],al
  402308:	add    BYTE PTR [eax],al
  40230a:	add    BYTE PTR [eax],al
  40230c:	add    al,BYTE PTR [eax]
  40230e:	add    BYTE PTR [eax],al
  402310:	mov    DWORD PTR [eax],eax
  402312:	add    BYTE PTR [eax],al
  402314:	aam    0x0
  402316:	add    BYTE PTR [eax],al
  402318:	pop    ebp
  402319:	add    DWORD PTR [eax],eax
  40231b:	add    BYTE PTR [edx],cl
	...
  402325:	add    BYTE PTR [eax],al
  402327:	add    BYTE PTR [ebx],al
  402329:	add    BYTE PTR [eax],al
  40232b:	add    BYTE PTR [esi+0x1],ah
  40232e:	add    BYTE PTR [eax],al
  402330:	imul   eax,DWORD PTR [ecx],0x130000
  402336:	add    BYTE PTR [eax],al
  402338:	add    al,BYTE PTR [eax]
  40233a:	add    BYTE PTR [ecx],al
  40233c:	sbb    esi,DWORD PTR [eax]
  40233e:	add    al,0x0
  402340:	lahf   
  402341:	add    BYTE PTR [eax],al
  402343:	add    BYTE PTR [edx],al
  402345:	add    BYTE PTR [eax],al
  402347:	adc    DWORD PTR [esi],edx
  402349:	push   0xa
  40234b:	jb     0x40234e
  40234d:	add    BYTE PTR [eax],al
  40234f:	jo     0x402367
  402351:	lea    eax,[ecx]
  402353:	add    BYTE PTR [eax],al
  402355:	add    DWORD PTR [eax],ebp
  402357:	add    al,0x0
  402359:	add    BYTE PTR [esi],al
  40235b:	jle    0x402379
  40235d:	add    BYTE PTR [eax],al
  40235f:	or     dh,BYTE PTR [edx-0x23]
  402362:	add    BYTE PTR [eax],al
  402364:	jo     0x4023d5
  402366:	sbb    eax,0xb0a0000
  40236b:	pop    es
  40236c:	sub    al,0x45
  40236e:	pop    es
  40236f:	jb     0x40234a
  402371:	add    eax,DWORD PTR [eax]
  402373:	jo     0x40238b
  402375:	outs   dx,DWORD PTR ds:[esi]
  402376:	push   ds
  402377:	add    BYTE PTR [eax],al
  402379:	or     al,BYTE PTR [edi]
  40237b:	jb     0x402364
  40237d:	add    eax,DWORD PTR [eax]
  40237f:	jo     0x4023f0
  402381:	sbb    eax,0x260a0000
  402386:	pop    es
  402387:	jb     0x40231e
  402389:	add    eax,DWORD PTR [eax]
  40238b:	jo     0x4023a3
  40238d:	mov    WORD PTR [ebx],fs
  40238f:	add    BYTE PTR [eax],al
  402391:	add    DWORD PTR [edi+0x24],ebp
  402394:	add    BYTE PTR [eax],al
  402396:	or     ah,BYTE PTR [ebp+0x1000023]
  40239c:	or     al,0x7
  40239e:	jb     0x402335
  4023a0:	add    eax,DWORD PTR [eax]
  4023a2:	jo     0x4023ac
  4023a4:	pop    ss
  4023a5:	pop    eax
  4023a6:	and    eax,0x238c0c
  4023ab:	add    BYTE PTR [ecx],al
  4023ad:	sbb    ch,BYTE PTR [edi+0x1f]
  4023b0:	add    BYTE PTR [eax],al
  4023b2:	or     bl,dh
  4023b4:	or     al,BYTE PTR [edi]
  4023b6:	sub    al,0x6
  4023b8:	pop    es
  4023b9:	outs   dx,DWORD PTR ds:[esi]
  4023ba:	and    eax,DWORD PTR [eax]
  4023bc:	add    BYTE PTR [edx],cl
  4023be:	fdiv   QWORD PTR [edx-0x4e]
  4023c1:	add    al,0x0
  4023c3:	jo     0x4023db
  4023c5:	lea    eax,[ecx]
  4023c7:	add    BYTE PTR [eax],al
  4023c9:	add    DWORD PTR [eax],ebp
  4023cb:	add    al,0x0
  4023cd:	add    BYTE PTR [esi],al
  4023cf:	ficom  WORD PTR [ecx]
  4023d1:	or     eax,0x52809
  4023d6:	add    BYTE PTR [esi],al
  4023d8:	and    BYTE PTR ds:0x6a800000,al
  4023de:	adc    eax,DWORD PTR [esi+ebx*8]
  4023e1:	add    al,BYTE PTR [esi]
  4023e3:	sub    dl,BYTE PTR [ecx]
  4023e5:	add    al,0x2a
  4023e7:	add    BYTE PTR [ecx],al
  4023e9:	sbb    al,0x0
  4023eb:	add    BYTE PTR [edx],al
  4023ed:	add    BYTE PTR [ebx],ah
  4023ef:	add    BYTE PTR [edx+0x6d],cl
  4023f2:	add    BYTE PTR [edx],cl
  4023f4:	add    BYTE PTR [eax],al
  4023f6:	add    BYTE PTR [eax],al
  4023f8:	add    BYTE PTR [eax],al
  4023fa:	add    eax,DWORD PTR [eax]
  4023fc:	xchg   BYTE PTR [ecx+0x21100],cl
  402402:	add    BYTE PTR [ecx],al
  402404:	push   ds
  402405:	add    ch,BYTE PTR [eax]
  402407:	and    eax,0x2a0a0000
  40240c:	adc    esi,DWORD PTR [eax]
  40240e:	add    eax,DWORD PTR [eax]
  402410:	add    BYTE PTR es:[eax],al
  402413:	add    BYTE PTR [ebx],al
  402415:	add    BYTE PTR [eax],al
  402417:	adc    DWORD PTR [esi+0x9],edi
  40241a:	add    BYTE PTR [eax],al
  40241c:	add    al,0x6f
  40241e:	add    BYTE PTR es:[eax],al
  402421:	or     ch,BYTE PTR ds:0x20282a01
  402427:	add    BYTE PTR [eax],al
  402429:	or     al,BYTE PTR [edx]
  40242b:	add    ebp,DWORD PTR [eax]
  40242d:	and    DWORD PTR [eax],eax
  40242f:	add    BYTE PTR [edx],cl
  402431:	or     dh,BYTE PTR [edx-0x14]
  402434:	add    al,0x0
  402436:	jo     0x40243e
  402438:	sub    BYTE PTR [edi],al
  40243a:	add    BYTE PTR [eax],al
  40243c:	push   es
  40243d:	sub    bh,BYTE PTR [edx+0x7e]
  402440:	or     DWORD PTR [eax],eax
  402442:	add    BYTE PTR [edi+ebp*2],al
  402445:	daa    
  402446:	add    BYTE PTR [eax],al
  402448:	or     ch,BYTE PTR ds:0xf0722a01
  40244e:	add    al,0x0
  402450:	jo     0x402454
  402452:	outs   dx,DWORD PTR ds:[esi]
  402453:	sub    BYTE PTR [eax],al
  402455:	add    BYTE PTR [edx],cl
  402457:	sub    BYTE PTR [edi],al
  402459:	add    BYTE PTR [eax],al
  40245b:	push   es
  40245c:	sub    al,BYTE PTR [eax]
  40245e:	add    BYTE PTR [eax],al
  402460:	adc    esi,DWORD PTR [eax]
  402462:	add    al,BYTE PTR [eax]
  402464:	inc    ebp
  402465:	add    BYTE PTR [eax],al
  402467:	add    BYTE PTR [eax+eax*1],al
  40246a:	add    BYTE PTR [ecx],dl
  40246c:	jle    0x402479
  40246e:	add    BYTE PTR [eax],al
  402470:	add    al,0x28
  402472:	sub    DWORD PTR [eax],eax
  402474:	add    BYTE PTR [edx],cl
  402476:	sub    al,0x33
  402478:	sub    BYTE PTR [edx],ch
  40247a:	add    BYTE PTR [eax],al
  40247c:	or     ch,BYTE PTR [edi+0x2b]
  40247f:	add    BYTE PTR [eax],al
  402481:	or     ch,BYTE PTR [edi+0x2c]
  402484:	add    BYTE PTR [eax],al
  402486:	or     cl,BYTE PTR [edx]
  402488:	sub    BYTE PTR ds:0xb0a0000,ch
  40248e:	push   es
  40248f:	sub    BYTE PTR [esi],ch
  402491:	add    BYTE PTR [eax],al
  402493:	or     dh,BYTE PTR [edx-0xc]
  402496:	add    al,0x0
  402498:	jo     0x4024c2
  40249a:	sbb    DWORD PTR [eax],eax
  40249c:	add    BYTE PTR [edx],cl
  40249e:	or     al,0x7
  4024a0:	or     BYTE PTR [eax],ch
  4024a2:	sbb    al,BYTE PTR [eax]
  4024a4:	add    BYTE PTR [edx],cl
  4024a6:	or     BYTE PTR [ebx],0x0
  4024a9:	add    BYTE PTR [esi+edi*2],al
  4024ac:	or     eax,DWORD PTR [eax]
  4024ae:	add    BYTE PTR [edx+ebp*1],al
  4024b1:	add    BYTE PTR [eax],al
  4024b3:	add    BYTE PTR [ebx],dl
  4024b5:	xor    BYTE PTR ds:0xc800,al
  4024bb:	add    BYTE PTR ds:0x7e110000,al
  4024c1:	or     al,BYTE PTR [eax]
  4024c3:	add    BYTE PTR [edx+edi*1],al
  4024c6:	test   DWORD PTR [eax],eax
  4024c8:	add    BYTE PTR [eax],al
  4024ca:	sub    BYTE PTR [eax],cl
  4024cc:	add    BYTE PTR [eax],al
  4024ce:	push   es
  4024cf:	jb     0x4024cf
  4024d1:	add    al,0x0
  4024d3:	jo     0x4024fd
  4024d5:	das    
  4024d6:	add    BYTE PTR [eax],al
  4024d8:	or     dh,BYTE PTR [edx-0x2]
  4024db:	add    al,0x0
  4024dd:	jo     0x402507
  4024df:	das    
  4024e0:	add    BYTE PTR [eax],al
  4024e2:	or     bl,BYTE PTR [edi]
  4024e4:	sub    bl,BYTE PTR [edi]
  4024e6:	pusha  
  4024e7:	jae    0x402519
  4024e9:	add    BYTE PTR [eax],al
  4024eb:	or     ch,BYTE PTR [eax]
  4024ed:	das    
  4024ee:	add    BYTE PTR [eax],al
  4024f0:	or     ch,BYTE PTR [eax]
  4024f2:	and    BYTE PTR [eax],al
  4024f4:	add    BYTE PTR [edx],cl
  4024f6:	jb     0x4024f8
  4024f8:	add    eax,0x8d177000
  4024fd:	add    DWORD PTR [eax],eax
  4024ff:	add    BYTE PTR [ecx],al
  402501:	or     al,0x8
  402503:	push   ss
  402504:	sub    BYTE PTR [ecx],dh
  402506:	add    BYTE PTR [eax],al
  402508:	or     cl,BYTE PTR [ecx+ebp*1-0x5dff0000]
  40250f:	or     BYTE PTR [eax],ch
  402511:	and    DWORD PTR [eax],eax
  402513:	add    BYTE PTR [edx],cl
  402515:	or     al,BYTE PTR [esi]
  402517:	sub    BYTE PTR [edi],ch
  402519:	add    BYTE PTR [eax],al
  40251b:	or     ch,BYTE PTR [eax]
  40251d:	and    BYTE PTR [eax],al
  40251f:	add    BYTE PTR [edx],cl
  402521:	jb     0x4024b2
  402523:	add    eax,0x8d177000
  402528:	add    DWORD PTR [eax],eax
  40252a:	add    BYTE PTR [ecx],al
  40252c:	or     eax,0x32281609
  402531:	add    BYTE PTR [eax],al
  402533:	or     ch,BYTE PTR [edi+0x28]
  402536:	add    BYTE PTR [eax],al
  402538:	or     ah,BYTE PTR [edx+0x212809]
  40253e:	add    BYTE PTR [edx],cl
  402540:	sub    BYTE PTR [edi],ch
  402542:	add    BYTE PTR [eax],al
  402544:	or     dh,BYTE PTR [edx-0x2]
  402547:	add    al,0x0
  402549:	jo     0x402573
  40254b:	das    
  40254c:	add    BYTE PTR [eax],al
  40254e:	or     ch,BYTE PTR [eax]
  402550:	and    BYTE PTR [eax],al
  402552:	add    BYTE PTR [edx],cl
  402554:	jb     0x402507
  402556:	add    eax,0x8d197000
  40255b:	add    DWORD PTR [eax],eax
  40255d:	add    BYTE PTR [ecx],al
  40255f:	adc    eax,DWORD PTR [ecx+edx*1]
  402562:	add    al,0x16
  402564:	add    ah,BYTE PTR [edx+0x28170411]
  40256a:	xor    DWORD PTR [eax],eax
  40256c:	add    BYTE PTR [edx],cl
  40256e:	mov    WORD PTR [ecx],gs
  402570:	add    BYTE PTR [eax],al
  402572:	add    DWORD PTR [edx+0x3180411],esp
  402578:	mov    ds:0x21280411,al
  40257d:	add    BYTE PTR [eax],al
  40257f:	or     cl,BYTE PTR [ebx]
  402581:	pop    es
  402582:	sub    BYTE PTR [edi],ch
  402584:	add    BYTE PTR [eax],al
  402586:	or     ch,BYTE PTR [edx]
  402588:	adc    esi,DWORD PTR [eax]
  40258a:	add    al,BYTE PTR [eax]
  40258c:	sub    al,0x0
  40258e:	add    BYTE PTR [eax],al
  402590:	push   es
  402591:	add    BYTE PTR [eax],al
  402593:	adc    DWORD PTR [esi+0xa],edi
  402596:	add    BYTE PTR [eax],al
  402598:	add    al,0x2c
  40259a:	add    DWORD PTR [edx],ebp
  40259c:	sub    BYTE PTR [esi],al
  40259e:	add    BYTE PTR [eax],al
  4025a0:	push   es
  4025a1:	jae    0x4025d6
  4025a3:	add    BYTE PTR [eax],al
  4025a5:	or     cl,BYTE PTR [edx]
  4025a7:	sub    BYTE PTR [eax+eax*1],dh
  4025aa:	add    BYTE PTR [edx],cl
  4025ac:	push   es
  4025ad:	outs   dx,DWORD PTR ds:[esi]
  4025ae:	xor    eax,0x260a0000
  4025b3:	pop    ss
  4025b4:	sub    BYTE PTR [esi],dh
  4025b6:	add    BYTE PTR [eax],al
  4025b8:	or     dl,BYTE PTR [edi]
  4025ba:	or     BYTE PTR [edx],0x0
  4025bd:	add    BYTE PTR [edx+ebp*1],al
  4025c0:	pop    edx
  4025c1:	jb     0x4025f2
  4025c3:	push   es
  4025c4:	add    BYTE PTR [eax+0x14],dh
  4025c7:	jb     0x402614
  4025c9:	push   es
  4025ca:	add    BYTE PTR [eax+0x73],dh
  4025cd:	aaa    
  4025ce:	add    BYTE PTR [eax],al
  4025d0:	or     al,BYTE PTR [eax+0x4000009]
  4025d6:	sub    bl,BYTE PTR [esi]
  4025d8:	add    ch,BYTE PTR [eax]
  4025da:	and    eax,0x2a0a0000
  4025df:	add    BYTE PTR [ebx],dl
  4025e1:	xor    BYTE PTR [edx],al
  4025e3:	add    BYTE PTR [ebx],dh
  4025e5:	add    BYTE PTR [eax],al
  4025e7:	add    BYTE PTR [edi],al
  4025e9:	add    BYTE PTR [eax],al
  4025eb:	adc    DWORD PTR [esi+0xc],edi
  4025ee:	add    BYTE PTR [eax],al
  4025f0:	add    al,0x14
  4025f2:	sub    BYTE PTR [ebx],bh
  4025f4:	add    BYTE PTR [eax],al
  4025f6:	or     ch,BYTE PTR [eax+eiz*1]
  4025f9:	jb     0x402656
  4025fb:	push   es
  4025fc:	add    BYTE PTR [eax-0x30],dh
  4025ff:	add    al,0x0
  402601:	add    BYTE PTR [edx],al
  402603:	sub    BYTE PTR [eax+eax*1],bh
  402606:	add    BYTE PTR [edx],cl
  402608:	outs   dx,DWORD PTR ds:[esi]
  402609:	cmp    eax,0x730a0000
  40260e:	add    BYTE PTR ds:[eax],al
  402611:	or     cl,BYTE PTR [edx]
  402613:	push   es
  402614:	or     BYTE PTR [eax+eax*1],0x0
  402618:	add    al,0x7e
  40261a:	or     al,0x0
  40261c:	add    BYTE PTR [edx+ebp*1],al
  40261f:	sbb    bh,BYTE PTR [esi+0xd]
  402622:	add    BYTE PTR [eax],al
  402624:	add    al,0x2a
  402626:	push   ds
  402627:	add    al,BYTE PTR [eax+0x400000d]
  40262d:	sub    dl,BYTE PTR [esi+0x28]
  402630:	or     eax,DWORD PTR [eax]
  402632:	add    BYTE PTR [esi],al
  402634:	jb     0x40262a
  402636:	push   es
  402637:	add    BYTE PTR [eax+0x7e],dh
  40263a:	or     eax,0x6f040000
  40263f:	aas    
  402640:	add    BYTE PTR [eax],al
  402642:	or     ch,BYTE PTR [edx]
  402644:	push   ds
  402645:	add    ch,BYTE PTR [eax]
  402647:	and    eax,0x2a0a0000
  40264c:	sbb    ch,BYTE PTR [eax]
  40264e:	inc    ecx
  40264f:	add    BYTE PTR [eax],al
  402651:	or     ch,BYTE PTR [edx]
  402653:	sbb    ch,BYTE PTR [eax]
  402655:	inc    edx
  402656:	add    BYTE PTR [eax],al
  402658:	or     ch,BYTE PTR [edx]
  40265a:	add    BYTE PTR [eax],al
  40265c:	adc    esi,DWORD PTR [eax]
  40265e:	add    al,BYTE PTR [eax]
  402660:	stos   DWORD PTR es:[edi],eax
  402661:	add    BYTE PTR [eax],al
  402663:	add    BYTE PTR [eax],cl
  402665:	add    BYTE PTR [eax],al
  402667:	adc    DWORD PTR [edx],eax
  402669:	mov    gs,WORD PTR [ecx+0x17]
  40266c:	das    
  40266d:	adc    DWORD PTR [eax],ebp
  40266f:	push   cs
  402670:	add    BYTE PTR [eax],al
  402672:	push   es
  402673:	sub    BYTE PTR [eax+eax*1+0x0],al
  402677:	or     dl,BYTE PTR ds:0x4528
  40267d:	or     ch,BYTE PTR [edx]
  40267f:	push   ss
  402680:	push   0xa
  402682:	add    dl,BYTE PTR [esi]
  402684:	call   0x6f0a:0x2028
  40268b:	inc    esi
  40268c:	add    BYTE PTR [eax],al
  40268e:	or     ah,BYTE PTR ds:0x8672c0c
  402694:	jb     0x40269c
  402696:	pop    es
  402697:	add    BYTE PTR [eax+0x28],dh
  40269a:	inc    edi
  40269b:	add    BYTE PTR [eax],al
  40269d:	or     ch,BYTE PTR ds:0x16720829
  4026a3:	pop    es
  4026a4:	add    BYTE PTR [eax+0x28],dh
  4026a7:	inc    edi
  4026a8:	add    BYTE PTR [eax],al
  4026aa:	or     ch,BYTE PTR ds:0x2a720824
  4026b0:	pop    es
  4026b1:	add    BYTE PTR [eax+0x28],dh
  4026b4:	inc    edi
  4026b5:	add    BYTE PTR [eax],al
  4026b7:	or     ch,BYTE PTR ds:0x5472081f
  4026bd:	pop    es
  4026be:	add    BYTE PTR [eax+0x28],dh
  4026c1:	inc    edi
  4026c2:	add    BYTE PTR [eax],al
  4026c4:	or     ch,BYTE PTR ds:0x28312b2b
  4026ca:	adc    BYTE PTR [eax],al
  4026cc:	add    BYTE PTR [esi],al
  4026ce:	or     ch,BYTE PTR [ebx]
  4026d0:	cmp    ch,BYTE PTR [eax]
  4026d2:	adc    DWORD PTR [eax],eax
  4026d4:	add    BYTE PTR [esi],al
  4026d6:	or     ch,BYTE PTR [ebx]
  4026d8:	xor    ch,BYTE PTR [eax]
  4026da:	dec    eax
  4026db:	add    BYTE PTR [eax],al
  4026dd:	or     ch,BYTE PTR [edi+0x49]
  4026e0:	add    BYTE PTR [eax],al
  4026e2:	or     ch,BYTE PTR [eax]
  4026e4:	dec    edx
  4026e5:	add    BYTE PTR [eax],al
  4026e7:	or     cl,BYTE PTR [ebx]
  4026e9:	pop    es
  4026ea:	sub    BYTE PTR [ecx],al
  4026ec:	add    BYTE PTR [eax],al
  4026ee:	push   es
  4026ef:	or     ch,BYTE PTR [ebx]
  4026f1:	sbb    DWORD PTR [eax],ebp
  4026f3:	add    al,BYTE PTR [eax]
  4026f5:	add    BYTE PTR [esi],al
  4026f7:	or     ch,BYTE PTR [ebx]
  4026f9:	adc    DWORD PTR [eax],ebp
  4026fb:	push   cs
  4026fc:	add    BYTE PTR [eax],al
  4026fe:	push   es
  4026ff:	sub    BYTE PTR [eax+eax*1+0x0],al
  402703:	or     dl,BYTE PTR ds:0x4528
  402709:	or     ch,BYTE PTR [edx]
  40270b:	push   es
  40270c:	imul   ebp,DWORD PTR [eax],0xa000045
  402712:	sub    al,BYTE PTR [eax]
  402714:	add    BYTE PTR [eax],al
  402716:	add    BYTE PTR [eax],al
  402718:	add    BYTE PTR [edx],0x0
  40271b:	add    dh,cl
  40271d:	retf   0xbeef
  402720:	add    DWORD PTR [eax],eax
  402722:	add    BYTE PTR [eax],al
  402724:	xchg   ecx,eax
  402725:	add    BYTE PTR [eax],al
  402727:	add    BYTE PTR [ebx+edx*2+0x79],ch
  40272b:	jae    0x4027a1
  40272d:	gs ins DWORD PTR es:[edi],dx
  40272f:	cs push edx
  402731:	gs jae 0x4027a3
  402734:	jne    0x4027a8
  402736:	arpl   WORD PTR [ebp+0x73],sp
  402739:	cs push edx
  40273b:	gs jae 0x4027ad
  40273e:	jne    0x4027b2
  402740:	arpl   WORD PTR [ebp+0x52],sp
  402743:	gs popa 
  402745:	fs gs jb 0x402775
  402749:	and    BYTE PTR [ebp+0x73],ch
  40274c:	arpl   WORD PTR [edi+0x72],bp
  40274f:	ins    BYTE PTR es:[edi],dx
  402750:	imul   esp,DWORD PTR [edx+0x2c],0x72655620
  402757:	jae    0x4027c2
  402759:	outs   dx,DWORD PTR ds:[esi]
  40275a:	outs   dx,BYTE PTR ds:[esi]
  40275b:	cmp    eax,0x2e302e34
  402760:	xor    BYTE PTR [esi],ch
  402762:	xor    BYTE PTR [eax+eiz*1],ch
  402765:	inc    ebx
  402766:	jne    0x4027d4
  402768:	je     0x4027df
  40276a:	jb     0x4027d1
  40276c:	cmp    eax,0x7475656e
  402771:	jb     0x4027d4
  402773:	ins    BYTE PTR es:[edi],dx
  402774:	sub    al,0x20
  402776:	push   eax
  402777:	jne    0x4027db
  402779:	ins    BYTE PTR es:[edi],dx
  40277a:	imul   esp,DWORD PTR [ebx+0x4b],0x6f547965
  402781:	imul   esp,DWORD PTR [ebp+0x6e],0x3d
  402785:	bound  esi,QWORD PTR [edi]
  402787:	aaa    
  402788:	popa   
  402789:	xor    eax,0x31363563
  40278e:	cmp    DWORD PTR [ebx],esi
  402790:	xor    al,0x65
  402792:	xor    BYTE PTR [eax],bh
  402794:	cmp    DWORD PTR [ebx],esp
  402796:	push   ebx
  402797:	jns    0x40280c
  402799:	je     0x402800
  40279b:	ins    DWORD PTR es:[edi],dx
  40279c:	cs push edx
  40279e:	gs jae 0x402810
  4027a1:	jne    0x402815
  4027a3:	arpl   WORD PTR [ebp+0x73],sp
  4027a6:	cs push edx
  4027a8:	jne    0x402818
  4027aa:	je     0x402815
  4027ac:	ins    DWORD PTR es:[edi],dx
  4027ad:	gs push edx
  4027af:	gs jae 0x402821
  4027b2:	jne    0x402826
  4027b4:	arpl   WORD PTR [ebp+0x53],sp
  4027b7:	gs je  0x4027bc
  4027ba:	add    BYTE PTR [eax],al
  4027bc:	add    BYTE PTR [ecx],al
  4027be:	add    BYTE PTR [eax],al
  4027c0:	add    BYTE PTR [eax],al
  4027c2:	add    BYTE PTR [eax],al
  4027c4:	add    BYTE PTR [eax+0x41],dl
  4027c7:	inc    esp
  4027c8:	push   eax
  4027c9:	inc    ecx
  4027ca:	inc    esp
  4027cb:	push   eax
  4027cc:	lds    edx,FWORD PTR [ebx+esi*4+0x69]
  4027d0:	add    BYTE PTR [eax],al
  4027d2:	add    BYTE PTR [eax],al
  4027d4:	rol    DWORD PTR [eax],1
  4027d6:	add    BYTE PTR [eax],al
  4027d8:	adc    BYTE PTR [eax+0x0],cl
  4027db:	add    BYTE PTR gs:[eax+eax*1+0x70],ch
  4027e0:	add    BYTE PTR [eax+0x0],cl
  4027e3:	add    BYTE PTR gs:[eax+eax*1+0x70],ch
  4027e8:	add    BYTE PTR [eax],al
  4027ea:	add    BYTE PTR [eax],al
  4027ec:	add    BYTE PTR [ecx],al
  4027ee:	scas   al,BYTE PTR es:[edi]
  4027ef:	add    ecx,DWORD PTR ds:0x2020200a
  4027f5:	and    BYTE PTR [eax],ah
  4027f7:	and    BYTE PTR [eax],ah
  4027f9:	and    BYTE PTR [eax],ah
  4027fb:	and    BYTE PTR [eax],ah
  4027fd:	and    BYTE PTR [esi+0x45],cl
  402800:	dec    ecx
  402801:	outs   dx,BYTE PTR ds:[esi]
  402802:	jae    0x402878
  402804:	pop    eax
  402805:	ss xor al,0x20
  402808:	jnp    0x40286d
  40280a:	outs   dx,DWORD PTR ds:[esi]
  40280b:	ins    DWORD PTR es:[edi],dx
  40280c:	ins    DWORD PTR es:[edi],dx
  40280d:	popa   
  40280e:	outs   dx,BYTE PTR ds:[esi]
  40280f:	fs jge 0x40281f
  402812:	or     cl,BYTE PTR ds:0x2020200a
  402818:	and    BYTE PTR [eax],ah
  40281a:	and    BYTE PTR [eax],ah
  40281c:	and    BYTE PTR [eax],ah
  40281e:	and    BYTE PTR [eax],ah
  402820:	and    BYTE PTR [ecx+ebp*2+0x73],cl
  402824:	je     0x402846
  402826:	outs   dx,DWORD PTR ds:[esi]
  402827:	data16 and BYTE PTR [ebx+0x6f],ah
  40282b:	ins    DWORD PTR es:[edi],dx
  40282c:	ins    DWORD PTR es:[edi],dx
  40282d:	popa   
  40282e:	outs   dx,BYTE PTR ds:[esi]
  40282f:	fs jae 0x40286c
  402832:	or     eax,0x200a0d0a
  402837:	and    BYTE PTR [eax],ah
  402839:	and    BYTE PTR [eax],ah
  40283b:	and    BYTE PTR [eax],ah
  40283d:	and    BYTE PTR [eax],ah
  40283f:	and    BYTE PTR [eax],ah
  402841:	and    BYTE PTR [ecx+0x6e],cl
  402844:	jae    0x4028ba
  402846:	popa   
  402847:	ins    BYTE PTR es:[edi],dx
  402848:	ins    BYTE PTR es:[edi],dx
  402849:	and    BYTE PTR [eax],ah
  40284b:	and    BYTE PTR [eax],ah
  40284d:	and    BYTE PTR [eax],ah
  40284f:	and    BYTE PTR [eax],ah
  402851:	and    BYTE PTR [eax],ah
  402853:	and    BYTE PTR [eax],ah
  402855:	and    BYTE PTR [eax],ah
  402857:	and    BYTE PTR [eax],ah
  402859:	and    BYTE PTR [ecx+0x6e],cl
  40285c:	jae    0x4028d2
  40285e:	popa   
  40285f:	ins    BYTE PTR es:[edi],dx
  402860:	ins    BYTE PTR es:[edi],dx
  402861:	and    BYTE PTR [ecx+0x6e],ah
  402864:	and    BYTE PTR fs:[ebx+0x6f],al
  402868:	outs   dx,BYTE PTR ds:[esi]
  402869:	imul   sp,WORD PTR [edi+0x75],0x6572
  40286f:	and    BYTE PTR [eax+ebp*2+0x65],dh
  402873:	and    BYTE PTR [esi+0x65],cl
  402876:	je     0x4028ef
  402878:	outs   dx,DWORD PTR ds:[esi]
  402879:	jb     0x4028e6
  40287b:	and    BYTE PTR [ebp+0x6d],al
  40287e:	jne    0x4028ec
  402880:	popa   
  402881:	je     0x4028ec
  402883:	outs   dx,DWORD PTR ds:[esi]
  402884:	outs   dx,BYTE PTR ds:[esi]
  402885:	and    BYTE PTR [ecx+ebp*2+0x76],ah
  402889:	gs jb  0x402899
  40288c:	or     ah,BYTE PTR [eax]
  40288e:	and    BYTE PTR [eax],ah
  402890:	and    BYTE PTR [eax],ah
  402892:	and    BYTE PTR [eax],ah
  402894:	and    BYTE PTR [eax],ah
  402896:	and    BYTE PTR [eax],ah
  402898:	and    BYTE PTR [ebp+0x6e],dl
  40289b:	imul   ebp,DWORD PTR [esi+0x73],0x6c6c6174
  4028a2:	and    BYTE PTR [eax],ah
  4028a4:	and    BYTE PTR [eax],ah
  4028a6:	and    BYTE PTR [eax],ah
  4028a8:	and    BYTE PTR [eax],ah
  4028aa:	and    BYTE PTR [eax],ah
  4028ac:	and    BYTE PTR [eax],ah
  4028ae:	and    BYTE PTR [eax],ah
  4028b0:	and    BYTE PTR [ebp+0x6e],dl
  4028b3:	imul   ebp,DWORD PTR [esi+0x73],0x6c6c6174
  4028ba:	and    BYTE PTR [eax+ebp*2+0x65],dh
  4028be:	and    BYTE PTR [esi+0x65],cl
  4028c1:	je     0x40293a
  4028c3:	outs   dx,DWORD PTR ds:[esi]
  4028c4:	jb     0x402931
  4028c6:	and    BYTE PTR [ebp+0x6d],al
  4028c9:	jne    0x402937
  4028cb:	popa   
  4028cc:	je     0x402937
  4028ce:	outs   dx,DWORD PTR ds:[esi]
  4028cf:	outs   dx,BYTE PTR ds:[esi]
  4028d0:	and    BYTE PTR [ecx+ebp*2+0x76],ah
  4028d4:	gs jb  0x4028e4
  4028d7:	or     ah,BYTE PTR [eax]
  4028d9:	and    BYTE PTR [eax],ah
  4028db:	and    BYTE PTR [eax],ah
  4028dd:	and    BYTE PTR [eax],ah
  4028df:	and    BYTE PTR [eax],ah
  4028e1:	and    BYTE PTR [eax],ah
  4028e3:	and    BYTE PTR [ecx+0x6e],cl
  4028e6:	jae    0x40295c
  4028e8:	popa   
  4028e9:	ins    BYTE PTR es:[edi],dx
  4028ea:	ins    BYTE PTR es:[edi],dx
  4028eb:	dec    esp
  4028ec:	outs   dx,DWORD PTR ds:[esi]
  4028ed:	popa   
  4028ee:	fs push esp
  4028f0:	gs jae 0x402967
  4028f3:	inc    ecx
  4028f4:	fs fs dec ecx
  4028f7:	outs   dx,BYTE PTR ds:[esi]
  4028f8:	and    BYTE PTR [eax],ah
  4028fa:	and    BYTE PTR [eax],ah
  4028fc:	dec    ecx
  4028fd:	outs   dx,BYTE PTR ds:[esi]
  4028fe:	jae    0x402974
  402900:	popa   
  402901:	ins    BYTE PTR es:[edi],dx
  402902:	ins    BYTE PTR es:[edi],dx
  402903:	and    BYTE PTR [eax+ebp*2+0x65],dh
  402907:	and    BYTE PTR [edi+ebp*2+0x61],cl
  40290b:	fs push esp
  40290d:	gs jae 0x402984
  402910:	inc    ecx
  402911:	fs fs dec ecx
  402914:	outs   dx,BYTE PTR ds:[esi]
  402915:	or     eax,0x2020200a
  40291a:	and    BYTE PTR [eax],ah
  40291c:	and    BYTE PTR [eax],ah
  40291e:	and    BYTE PTR [eax],ah
  402920:	and    BYTE PTR [eax],ah
  402922:	and    BYTE PTR [ebp+0x6e],dl
  402925:	imul   ebp,DWORD PTR [esi+0x73],0x6c6c6174
  40292c:	dec    esp
  40292d:	outs   dx,DWORD PTR ds:[esi]
  40292e:	popa   
  40292f:	fs push esp
  402931:	gs jae 0x4029a8
  402934:	inc    ecx
  402935:	fs fs dec ecx
  402938:	outs   dx,BYTE PTR ds:[esi]
  402939:	and    BYTE PTR [eax],ah
  40293b:	push   ebp
  40293c:	outs   dx,BYTE PTR ds:[esi]
  40293d:	imul   ebp,DWORD PTR [esi+0x73],0x6c6c6174
  402944:	and    BYTE PTR [eax+ebp*2+0x65],dh
  402948:	and    BYTE PTR [edi+ebp*2+0x61],cl
  40294c:	fs push esp
  40294e:	gs jae 0x4029c5
  402951:	inc    ecx
  402952:	fs fs dec ecx
  402955:	outs   dx,BYTE PTR ds:[esi]
  402956:	or     eax,0x2020200a
  40295b:	and    BYTE PTR [eax],ah
  40295d:	and    BYTE PTR [eax],ah
  40295f:	and    BYTE PTR [eax],ah
  402961:	and    BYTE PTR [eax],ah
  402963:	and    BYTE PTR [eax+0x65],cl
  402966:	ins    BYTE PTR es:[edi],dx
  402967:	jo     0x402989
  402969:	and    BYTE PTR [eax],ah
  40296b:	and    BYTE PTR [eax],ah
  40296d:	and    BYTE PTR [eax],ah
  40296f:	and    BYTE PTR [eax],ah
  402971:	and    BYTE PTR [eax],ah
  402973:	and    BYTE PTR [eax],ah
  402975:	and    BYTE PTR [eax],ah
  402977:	and    BYTE PTR [eax],ah
  402979:	and    BYTE PTR [eax],ah
  40297b:	and    BYTE PTR [eax+0x72],dl
  40297e:	imul   ebp,DWORD PTR [esi+0x74],0x68742073
  402985:	imul   esi,DWORD PTR [ebx+0x20],0x706c6568
  40298c:	and    BYTE PTR [ebp+0x65],ch
  40298f:	jae    0x402a04
  402991:	popa   
  402992:	addr16 gs or eax,0x2020200a
  402999:	and    BYTE PTR [eax],ah
  40299b:	and    BYTE PTR [eax],ah
  40299d:	and    BYTE PTR [eax],al
  40299f:	add    BYTE PTR [edx+0x53],al
  4029a2:	dec    edx
  4029a3:	inc    edx
  4029a4:	add    DWORD PTR [eax],eax
  4029a6:	add    DWORD PTR [eax],eax
  4029a8:	add    BYTE PTR [eax],al
  4029aa:	add    BYTE PTR [eax],al
  4029ac:	or     al,0x0
  4029ae:	add    BYTE PTR [eax],al
  4029b0:	jbe    0x4029e6
  4029b2:	xor    BYTE PTR cs:[esi],ch
  4029b5:	xor    esi,DWORD PTR [eax]
  4029b7:	xor    esi,DWORD PTR [ecx]
  4029b9:	cmp    DWORD PTR [eax],eax
  4029bb:	add    BYTE PTR [eax],al
  4029bd:	add    BYTE PTR ds:0x6c00,al
  4029c3:	add    BYTE PTR [eax+0x23000006],dh
  4029c9:	jle    0x4029cb
  4029cb:	add    BYTE PTR [edi+eax*1],bl
  4029ce:	add    BYTE PTR [eax],al
  4029d0:	cmp    al,0xa
  4029d2:	add    BYTE PTR [eax],al
  4029d4:	and    edx,DWORD PTR [ebx+0x74]
  4029d7:	jb     0x402a42
  4029d9:	outs   dx,BYTE PTR ds:[esi]
  4029da:	addr16 jae 0x4029dd
  4029dd:	add    BYTE PTR [eax],al
  4029df:	add    BYTE PTR [eax+0x11],bl
  4029e2:	add    BYTE PTR [eax],al
  4029e4:	test   BYTE PTR [edi],al
  4029e6:	add    BYTE PTR [eax],al
  4029e8:	and    edx,DWORD PTR [ebp+0x53]
  4029eb:	add    ah,bl
  4029ed:	sbb    BYTE PTR [eax],al
  4029ef:	add    BYTE PTR [eax],dl
  4029f1:	add    BYTE PTR [eax],al
  4029f3:	add    BYTE PTR [ebx],ah
  4029f5:	inc    edi
  4029f6:	push   ebp
  4029f7:	dec    ecx
  4029f8:	inc    esp
  4029f9:	add    BYTE PTR [eax],al
  4029fb:	add    ah,ch
  4029fd:	sbb    BYTE PTR [eax],al
  4029ff:	add    al,al
  402a01:	or     DWORD PTR [eax],eax
  402a03:	add    BYTE PTR [ebx],ah
  402a05:	inc    edx
  402a06:	ins    BYTE PTR es:[edi],dx
  402a07:	outs   dx,DWORD PTR ds:[esi]
  402a08:	bound  eax,QWORD PTR [eax]
  402a0a:	add    BYTE PTR [eax],al
  402a0c:	add    BYTE PTR [eax],al
  402a0e:	add    BYTE PTR [eax],al
  402a10:	add    al,BYTE PTR [eax]
  402a12:	add    BYTE PTR [ecx],al
  402a14:	push   edi
  402a15:	sbb    eax,0x10901a2
  402a1a:	add    BYTE PTR [eax],al
  402a1c:	add    dl,bh
  402a1e:	and    eax,0x160033
  402a23:	add    BYTE PTR [ecx],al
  402a25:	add    BYTE PTR [eax],al
  402a27:	add    BYTE PTR [ecx],bh
  402a29:	add    BYTE PTR [eax],al
  402a2b:	add    BYTE PTR ds:0xd000000,al
  402a31:	add    BYTE PTR [eax],al
  402a33:	add    BYTE PTR [edx],dl
  402a35:	add    BYTE PTR [eax],al
  402a37:	add    BYTE PTR [eax],cl
  402a39:	add    BYTE PTR [eax],al
  402a3b:	add    BYTE PTR [edx+0x0],cl
  402a3e:	add    BYTE PTR [eax],al
  402a40:	or     BYTE PTR [eax],al
  402a42:	add    BYTE PTR [eax],al
  402a44:	sbb    al,BYTE PTR [eax]
  402a46:	add    BYTE PTR [eax],al
  402a48:	or     BYTE PTR [eax],al
  402a4a:	add    BYTE PTR [eax],al
  402a4c:	add    al,BYTE PTR [eax]
  402a4e:	add    BYTE PTR [eax],al
  402a50:	add    al,0x0
  402a52:	add    BYTE PTR [eax],al
  402a54:	add    eax,0x1000000
  402a59:	add    BYTE PTR [eax],al
  402a5b:	add    BYTE PTR [ebx],al
  402a5d:	add    BYTE PTR [eax],al
  402a5f:	add    BYTE PTR [ecx],al
  402a61:	add    BYTE PTR [eax],al
  402a63:	add    BYTE PTR [eax],al
  402a65:	add    BYTE PTR [edx],cl
  402a67:	add    BYTE PTR [ecx],al
  402a69:	add    BYTE PTR [eax],al
  402a6b:	add    BYTE PTR [eax],al
  402a6d:	add    BYTE PTR [esi],al
  402a6f:	add    BYTE PTR [eax+eax*1+0x60095],bl
  402a76:	push   eax
  402a77:	add    DWORD PTR [ebp-0x67fff600],edx
  402a7d:	add    DWORD PTR [ebp-0x13fff9ff],eax
  402a83:	add    ebx,ebx
  402a85:	add    DWORD PTR [esi],eax
  402a87:	add    BYTE PTR ds:0x6020802,bl
  402a8d:	add    ch,al
  402a8f:	add    dl,BYTE PTR [ebp+0x11000600]
  402a95:	add    esi,edi
  402a97:	add    al,BYTE PTR [esi]
  402a99:	add    BYTE PTR [ecx+0x3],cl
  402a9c:	sub    al,BYTE PTR [ebx]
  402a9e:	push   es
  402a9f:	add    BYTE PTR [ebp+0x3],bl
  402aa2:	xchg   ebp,eax
  402aa3:	add    BYTE PTR [esi],al
  402aa5:	add    BYTE PTR [ebp+0x6037303],al
  402aab:	add    BYTE PTR [ebx+eax*1+0x60373],bl
  402ab2:	mov    ecx,0x6037303
  402ab7:	add    bh,dl
  402ab9:	add    esi,DWORD PTR [ebx+0x3]
  402abc:	push   es
  402abd:	add    al,dh
  402abf:	add    esi,DWORD PTR [ebx+0x3]
  402ac2:	push   es
  402ac3:	add    BYTE PTR [ecx],cl
  402ac5:	add    al,0x73
  402ac7:	add    eax,DWORD PTR [esi]
  402ac9:	add    BYTE PTR [esp+eax*1],ah
  402acc:	jae    0x402ad1
  402ace:	push   es
  402acf:	add    BYTE PTR ds:0x6037304,bh
  402ad5:	add    BYTE PTR [edx+0x4],bl
  402ad8:	jae    0x402add
  402ada:	push   es
  402adb:	add    BYTE PTR [eax+0x601db04],al
  402ae1:	add    BYTE PTR [edx+0x601db04],ah
  402ae7:	add    ah,al
  402ae9:	add    al,0x73
  402aeb:	add    eax,DWORD PTR [esi]
  402aed:	add    bh,bl
  402aef:	add    al,0x73
  402af1:	add    eax,DWORD PTR [esi]
  402af3:	add    al,bh
  402af5:	add    al,0x73
  402af7:	add    eax,DWORD PTR [esi]
  402af9:	add    BYTE PTR [esi],dh
  402afb:	add    eax,0x60516
  402b00:	push   esp
  402b01:	add    eax,0x670185
  402b06:	push   0x6000005
  402b0b:	add    BYTE PTR [edi+0x5],dh
  402b0e:	push   ss
  402b0f:	add    eax,0x5970006
  402b14:	xchg   ebp,eax
  402b15:	add    BYTE PTR [esi],al
  402b17:	add    BYTE PTR [esi+0x6009505],bl
  402b1d:	add    dh,bl
  402b1f:	add    eax,0x605d4
  402b24:	jmp    0x402b2b
  402b26:	aam    0x5
  402b28:	push   es
  402b29:	add    BYTE PTR [edi],al
  402b2b:	push   es
  402b2c:	test   DWORD PTR ds:0x6100006,0x605f7
  402b36:	inc    edi
  402b37:	push   es
  402b38:	test   DWORD PTR ds:0x6620006,0x60095
  402b42:	jge    0x402b4a
  402b44:	xchg   ebp,eax
  402b45:	add    BYTE PTR [esi],al
  402b47:	add    BYTE PTR [esi+eax*1+0xa0095],dl
  402b4e:	in     eax,0x6
  402b50:	test   DWORD PTR [ecx],eax
  402b52:	or     al,BYTE PTR [eax]
  402b54:	inc    DWORD PTR [esi]
  402b56:	test   DWORD PTR [ecx],eax
  402b58:	or     al,BYTE PTR [eax]
  402b5a:	push   ecx
  402b5b:	pop    es
  402b5c:	test   DWORD PTR [ecx],eax
  402b5e:	push   es
  402b5f:	add    BYTE PTR [edi+0x7],dl
  402b62:	xchg   ebp,eax
  402b63:	add    BYTE PTR [esi],al
  402b65:	add    BYTE PTR [eax+0x7],ch
  402b68:	xchg   ebp,eax
  402b69:	add    BYTE PTR [esi],al
  402b6b:	add    BYTE PTR [edi+eax*1-0x6b],dh
  402b6f:	add    BYTE PTR [edx],cl
  402b71:	add    BYTE PTR [edx+0xa018507],dl
  402b77:	add    BYTE PTR [edx+0xa018507],ch
  402b7d:	add    al,dl
  402b7f:	pop    es
  402b80:	test   DWORD PTR [ecx],eax
  402b82:	or     al,BYTE PTR [eax]
  402b84:	invd   
  402b86:	test   DWORD PTR [edi],0x8260006
  402b8c:	test   DWORD PTR [ecx],eax
  402b8e:	push   es
  402b8f:	add    BYTE PTR [ebx+0x8],al
  402b92:	push   ss
  402b93:	add    eax,0x86e0006
  402b98:	xchg   ebp,eax
  402b99:	add    BYTE PTR [esi],al
  402b9b:	add    BYTE PTR [ebx+0x8],dh
  402b9e:	xchg   ebp,eax
  402b9f:	add    BYTE PTR [esi],al
  402ba1:	add    BYTE PTR [edi+0xa037308],dl
  402ba7:	add    ch,cl
  402ba9:	or     BYTE PTR [edi-0x19fff5f8],dh
  402baf:	or     BYTE PTR [edi+0x30000e08],dh
  402bb5:	or     ebx,edi
  402bb7:	or     BYTE PTR [esi],al
  402bb9:	add    BYTE PTR [ebp+0x9],dh
  402bbc:	xchg   ebp,eax
  402bbd:	add    BYTE PTR [esi],al
  402bbf:	add    BYTE PTR [eax+0x9509],cl
  402bc5:	add    BYTE PTR [eax],al
  402bc7:	add    BYTE PTR [ecx],al
  402bc9:	add    BYTE PTR [eax],al
  402bcb:	add    BYTE PTR [eax],al
  402bcd:	add    BYTE PTR [ecx],al
  402bcf:	add    BYTE PTR [ecx],al
  402bd1:	add    BYTE PTR [eax],al
  402bd3:	add    BYTE PTR [eax],dl
  402bd5:	add    BYTE PTR [eax],bl
  402bd7:	add    BYTE PTR [edi],ch
  402bd9:	add    BYTE PTR ds:0x1000100,al
  402bdf:	add    BYTE PTR [eax+0x71001001],al
  402be5:	add    BYTE PTR [edi],ch
  402be7:	add    BYTE PTR ds:0x4000900,al
  402bed:	add    BYTE PTR [eax],al
  402bef:	add    BYTE PTR [eax],dl
  402bf1:	add    BYTE PTR [eax+0x0],bh
  402bf4:	das    
  402bf5:	add    BYTE PTR ds:0xa000c00,al
  402bfb:	add    BYTE PTR [eax],al
  402bfd:	add    BYTE PTR [eax],dl
  402bff:	add    BYTE PTR [edx+0x5002f00],al
  402c05:	add    BYTE PTR [esi],cl
  402c07:	add    BYTE PTR [edi],cl
  402c09:	add    BYTE PTR [ecx-0x80],dl
  402c0c:	mov    ds:0x51000a00,eax
  402c11:	xor    BYTE PTR [ebx+0x51000a00],0x80
  402c18:	lds    eax,FWORD PTR [eax]
  402c1a:	or     al,BYTE PTR [eax]
  402c1c:	push   ecx
  402c1d:	adc    bh,0x0
  402c20:	or     al,BYTE PTR [eax]
  402c22:	push   ecx
  402c23:	sbb    dh,0x0
  402c26:	or     al,BYTE PTR [eax]
  402c28:	push   esp
  402c29:	and    ch,0x0
  402c2c:	add    DWORD PTR [edx],0x54
  402c2f:	sub    bh,0x0
  402c32:	add    DWORD PTR [edx],0x54
  402c35:	cmp    ah,0x0
  402c38:	add    DWORD PTR [edx],0x11
  402c3b:	add    BYTE PTR [ecx+eax*1+0x1102c9],ah
  402c42:	mov    dl,0x1
  402c44:	int    0x2
  402c46:	adc    DWORD PTR [eax],eax
  402c48:	rol    DWORD PTR [ecx],0xa
  402c4b:	add    BYTE PTR [ecx],dl
  402c4d:	add    ah,bh
  402c4f:	add    esp,edx
  402c51:	add    dl,BYTE PTR [ecx]
  402c53:	add    BYTE PTR [ecx],ch
  402c55:	add    bl,al
  402c57:	add    dl,BYTE PTR [eax+0x21]
  402c5a:	add    BYTE PTR [eax],al
  402c5c:	add    BYTE PTR [eax],al
  402c5e:	xchg   esi,eax
  402c5f:	add    BYTE PTR [ecx],cl
  402c61:	add    DWORD PTR [ecx+0x3c000102],esp
  402c67:	and    eax,DWORD PTR [eax]
  402c69:	add    BYTE PTR [eax],al
  402c6b:	add    BYTE PTR [esi-0x59feda00],dl
  402c71:	add    al,BYTE PTR [edx]
  402c73:	add    BYTE PTR [esp],al
  402c76:	add    BYTE PTR [eax],al
  402c78:	add    BYTE PTR [eax],al
  402c7a:	xchg   BYTE PTR [eax],bl
  402c7c:	inc    ebp
  402c7d:	add    DWORD PTR [edx+0xc000202],ebp
  402c83:	and    al,0x0
  402c85:	add    BYTE PTR [eax],al
  402c87:	add    BYTE PTR [esi-0x51feb500],dl
  402c8d:	add    al,BYTE PTR [edx]
  402c8f:	add    BYTE PTR [esi],bh
  402c91:	and    al,0x0
  402c93:	add    BYTE PTR [eax],al
  402c95:	add    BYTE PTR [esi-0x4afea600],dl
  402c9b:	add    al,BYTE PTR [eax+eax*1]
  402c9e:	pusha  
  402c9f:	and    al,0x0
  402ca1:	add    BYTE PTR [eax],al
  402ca3:	add    BYTE PTR [esi-0x44fe9ff8],dl
  402ca9:	add    al,BYTE PTR ds:0x24b400
  402caf:	add    BYTE PTR [eax],al
  402cb1:	add    BYTE PTR [ecx-0x40fe9000],dl
  402cb7:	add    al,BYTE PTR ds:0x258800
  402cbd:	add    BYTE PTR [eax],al
  402cbf:	add    BYTE PTR [ecx-0x3afe8600],dl
  402cc5:	add    al,BYTE PTR [edi]
  402cc7:	add    al,al
  402cc9:	and    eax,0x0
  402cce:	xchg   ecx,eax
  402ccf:	sbb    al,dh
  402cd1:	pop    es
  402cd2:	lds    eax,FWORD PTR [edx]
  402cd4:	pop    es
  402cd5:	add    bh,dl
  402cd7:	and    eax,0x0
  402cdc:	sbb    DWORD PTR [eax],0x45
  402cdf:	add    DWORD PTR [edx-0x1ffff8fe],ebp
  402ce5:	and    eax,0x0
  402cea:	xchg   ebx,eax
  402ceb:	or     BYTE PTR [ecx],bh
  402ced:	add    bl,ah
  402cef:	add    al,BYTE PTR [edi]
  402cf1:	add    BYTE PTR [edi],bl
  402cf3:	add    BYTE PTR es:[eax],al
  402cf6:	add    BYTE PTR [eax],al
  402cf8:	xchg   ebx,eax
  402cf9:	or     BYTE PTR [ebp+0x2],cl
  402cfc:	loope  0x402d00
  402cfe:	pop    es
  402cff:	add    BYTE PTR [esi],ah
  402d01:	add    BYTE PTR es:[eax],al
  402d04:	add    BYTE PTR [eax],al
  402d06:	xchg   ebx,eax
  402d07:	or     BYTE PTR [ecx+0x2],bl
  402d0a:	out    0x2,al
  402d0c:	pop    es
  402d0d:	add    BYTE PTR [esi],ch
  402d0f:	add    BYTE PTR es:[eax],al
  402d12:	add    BYTE PTR [eax],al
  402d14:	xchg   ebx,eax
  402d15:	or     BYTE PTR [ebp+0x2],ah
  402d18:	mov    ebx,0x44000802
  402d1d:	add    BYTE PTR es:[eax],al
  402d20:	add    BYTE PTR [eax],al
  402d22:	xchg   BYTE PTR [eax],bl
  402d24:	inc    ebp
  402d25:	add    DWORD PTR [edx+0x4c000802],ebp
  402d2b:	add    BYTE PTR es:[eax],al
  402d2e:	add    BYTE PTR [eax],al
  402d30:	xchg   ecx,eax
  402d31:	add    BYTE PTR [ebx+0x802a602],al
  402d37:	add    BYTE PTR [ebx+0x26],dl
  402d3a:	add    BYTE PTR [eax],al
  402d3c:	add    BYTE PTR [eax],al
  402d3e:	xchg   ecx,eax
  402d3f:	add    BYTE PTR [ebx+0x802a602],cl
  402d45:	add    BYTE PTR [esi+eiz*1+0x0],bl
  402d49:	add    BYTE PTR [eax],al
  402d4b:	add    BYTE PTR [ecx-0x9fd6b00],dl
  402d51:	add    cl,BYTE PTR [eax]
  402d53:	add    BYTE PTR [eax],al
  402d55:	add    BYTE PTR [ecx],al
  402d57:	add    BYTE PTR [edx+0x1000002],bl
  402d5d:	add    BYTE PTR [edx+eax*1+0x20000],ch
  402d64:	mov    edx,0x1000002
  402d69:	add    cl,bl
  402d6b:	add    al,BYTE PTR [eax]
  402d6d:	add    BYTE PTR [ecx],al
  402d6f:	add    ah,bl
  402d71:	add    al,BYTE PTR [eax]
  402d73:	add    BYTE PTR [edx],al
  402d75:	add    ah,ah
  402d77:	add    al,BYTE PTR [eax]
  402d79:	add    BYTE PTR [ecx],al
  402d7b:	add    ah,ch
  402d7d:	add    al,BYTE PTR [eax]
  402d7f:	add    BYTE PTR [ecx],al
  402d81:	add    dl,dh
  402d83:	add    dh,BYTE PTR [ecx]
  402d85:	add    BYTE PTR [ebp+0x1],al
  402d88:	stos   BYTE PTR es:[edi],al
  402d89:	add    bh,BYTE PTR [ecx]
  402d8b:	add    BYTE PTR [ebp+0x1],al
  402d8e:	add    DWORD PTR [ebx],eax
  402d90:	inc    ecx
  402d91:	add    BYTE PTR [ebp+0x1],al
  402d94:	push   es
  402d95:	add    ecx,DWORD PTR [ecx+0x0]
  402d98:	inc    ebp
  402d99:	add    DWORD PTR [esi],eax
  402d9b:	add    edx,DWORD PTR [ecx+0x0]
  402d9e:	inc    ebp
  402d9f:	add    DWORD PTR [ecx],eax
  402da1:	add    ebx,DWORD PTR [ecx+0x0]
  402da4:	inc    ebp
  402da5:	add    DWORD PTR [ecx],eax
  402da7:	add    esp,DWORD PTR [ecx+0x0]
  402daa:	inc    ebp
  402dab:	add    DWORD PTR [ecx],eax
  402dad:	add    ebp,DWORD PTR [ecx+0x0]
  402db0:	inc    ebp
  402db1:	add    DWORD PTR [ecx],eax
  402db3:	add    esi,DWORD PTR [ecx+0x0]
  402db6:	inc    ebp
  402db7:	add    DWORD PTR [ecx],eax
  402db9:	add    edi,DWORD PTR [ecx+0x0]
  402dbc:	inc    ebp
  402dbd:	add    DWORD PTR [ecx],eax
  402dbf:	add    eax,DWORD PTR [ecx+0x1014500]
  402dc5:	add    ecx,DWORD PTR [ecx+0x1014500]
  402dcb:	add    edx,DWORD PTR [ecx+0x1014500]
  402dd1:	add    ebx,DWORD PTR [ecx+0x1014500]
  402dd7:	add    esp,DWORD PTR [ecx+0x1014500]
  402ddd:	add    ebp,DWORD PTR [ecx+0x6014500]
  402de3:	add    esi,DWORD PTR [ecx+0x1014500]
  402de9:	add    edi,DWORD PTR [ecx+0xb014500]
  402def:	add    eax,ecx
  402df1:	add    BYTE PTR [ebp+0x1],al
  402df4:	stos   BYTE PTR es:[edi],al
  402df5:	add    cl,cl
  402df7:	add    BYTE PTR [ebp+0x1],al
  402dfa:	adc    DWORD PTR [ebx],eax
  402dfc:	fld    DWORD PTR [eax]
  402dfe:	inc    ebp
  402dff:	add    DWORD PTR [edi],edx
  402e01:	add    esp,ecx
  402e03:	add    BYTE PTR [edi-0x1efc41fb],ch
  402e09:	add    BYTE PTR [eax-0x1efc3afb],bh
  402e0f:	add    bl,al
  402e11:	add    eax,0xe103c9
  402e16:	int    0x5
  402e18:	iret   
  402e19:	add    esi,ecx
  402e1b:	add    bl,ah
  402e1d:	add    eax,0xf903cf
  402e22:	lock add eax,0x10103d5
  402e28:	sbb    al,0x6
  402e2a:	fiadd  DWORD PTR [ebx]
  402e2c:	or     DWORD PTR [ecx],eax
  402e2e:	sub    DWORD PTR [esi],eax
  402e30:	fild   WORD PTR [ebx]
  402e32:	or     DWORD PTR [ecx],eax
  402e34:	ss push es
  402e36:	out    0x3,al
  402e38:	or     DWORD PTR [ecx],eax
  402e3a:	pop    ecx
  402e3b:	push   es
  402e3c:	in     al,dx
  402e3d:	add    ebp,DWORD PTR [ecx]
  402e3f:	add    BYTE PTR [eax+0x6],ch
  402e42:	loope  0x402e46
  402e44:	loope  0x402e46
  402e46:	lea    eax,[esi]
  402e48:	cmc    
  402e49:	add    ecx,DWORD PTR [ecx]
  402e4b:	add    DWORD PTR [ecx+0x6],ebx
  402e4e:	inc    DWORD PTR [ebx]
  402e50:	sub    DWORD PTR [ecx],eax
  402e52:	mov    al,ds:0x902aa06
  402e57:	add    DWORD PTR [eax+0x9040506],ebp
  402e5d:	add    BYTE PTR [ebp+0x1],al
  402e60:	stos   BYTE PTR es:[edi],al
  402e61:	add    bl,BYTE PTR [ecx]
  402e63:	add    BYTE PTR [ecx+0x19042706],dh
  402e69:	add    BYTE PTR [edi+0x9042706],bh
  402e6f:	add    dh,cl
  402e71:	push   es
  402e72:	das    
  402e73:	add    al,0xe1
  402e75:	add    bh,dl
  402e77:	push   es
  402e78:	aad    0x3
  402e7a:	xor    DWORD PTR [ecx],eax
  402e7c:	in     eax,dx
  402e7d:	push   es
  402e7e:	xor    eax,DWORD PTR [ecx+esi*1]
  402e81:	add    DWORD PTR ds:0x39043907,ecx
  402e87:	add    DWORD PTR [edi+eax*1],ebx
  402e8a:	das    
  402e8b:	add    al,0xf1
  402e8d:	add    BYTE PTR [ecx],ch
  402e8f:	pop    es
  402e90:	mov    ebx,0x3500f102
  402e95:	pop    es
  402e96:	aas    
  402e97:	add    al,0x41
  402e99:	add    DWORD PTR [eax+0x1],esi
  402e9c:	dec    edx
  402e9d:	add    al,0xe1
  402e9f:	add    BYTE PTR [ebp+0x1],al
  402ea2:	dec    edi
  402ea3:	add    al,0x49
  402ea5:	add    DWORD PTR [eax+0x7],esp
  402ea8:	push   ebp
  402ea9:	add    al,0x51
  402eab:	add    DWORD PTR [edi+eax*1+0x161045b],eax
  402eb2:	inc    ebp
  402eb3:	add    DWORD PTR [ecx],eax
  402eb5:	add    eax,DWORD PTR [ecx+0x1]
  402eb8:	ret    0x6c07
  402ebb:	add    al,0x69
  402ebd:	add    esi,ebx
  402ebf:	pop    es
  402ec0:	jb     0x402ec6
  402ec2:	inc    ecx
  402ec3:	add    edx,esp
  402ec5:	pop    es
  402ec6:	jns    0x402ecc
  402ec8:	sbb    DWORD PTR [eax],eax
  402eca:	inc    ebp
  402ecb:	add    DWORD PTR [esp+eax*1+0x1450179],eax
  402ed2:	or     eax,DWORD PTR [ebx]
  402ed4:	add    DWORD PTR [ecx],0x2aa0145
  402eda:	mov    DWORD PTR [ecx],eax
  402edc:	inc    ebp
  402edd:	add    DWORD PTR [edx+0x5e000902],ebp
  402ee3:	or     ah,cl
  402ee5:	add    al,0x91
  402ee7:	add    DWORD PTR [ebp-0x6efb2df8],eax
  402eed:	add    DWORD PTR [eax+0x2104db08],esp
  402ef3:	add    BYTE PTR [ebp+0x1],al
  402ef6:	loope  0x402efc
  402ef8:	and    DWORD PTR [eax],eax
  402efa:	lods   eax,DWORD PTR ds:[esi]
  402efb:	or     dh,ch
  402efd:	add    al,0xa9
  402eff:	add    DWORD PTR [ebp+0x1],eax
  402f02:	cmc    
  402f03:	add    al,0xb9
  402f05:	add    DWORD PTR [edx+0x9],ecx
  402f08:	cmps   BYTE PTR ds:[esi],BYTE PTR es:[edi]
  402f09:	add    bh,BYTE PTR [ecx-0x59f6a2ff]
  402f0f:	add    al,cl
  402f11:	add    DWORD PTR [ebp+0x1],eax
  402f14:	stos   BYTE PTR es:[edi],al
  402f15:	add    cl,cl
  402f17:	add    DWORD PTR [eax+0x1],esi
  402f1a:	dec    edx
  402f1b:	add    al,0x51
  402f1d:	add    DWORD PTR [eax-0x1efaf1f7],edx
  402f23:	add    BYTE PTR [ebp-0x1efaecf7],bl
  402f29:	add    BYTE PTR [ebp-0x5efae6f7],ah
  402f2f:	add    DWORD PTR [ecx-0x5efae0f7],esi
  402f35:	add    esi,eax
  402f37:	or     DWORD PTR [edi],ebp
  402f39:	add    al,0xf1
  402f3b:	add    bl,dl
  402f3d:	or     DWORD PTR [edi],edi
  402f3f:	add    al,0xe
  402f41:	add    BYTE PTR [eax+eax*1],al
  402f44:	or     eax,0x8000e00
  402f49:	add    ch,dl
  402f4b:	add    BYTE PTR [esi],cl
  402f4d:	add    BYTE PTR [eax+eax*1],cl
  402f50:	lahf   
  402f51:	add    DWORD PTR [esi],ecx
  402f53:	add    BYTE PTR [eax],dl
  402f55:	add    BYTE PTR [ecx+0x2],ch
  402f58:	push   cs
  402f59:	add    BYTE PTR [eax+eax*1],dl
  402f5c:	jbe    0x402f60
  402f5e:	or     al,BYTE PTR [eax]
  402f60:	sbb    BYTE PTR [eax],al
  402f62:	xchg   BYTE PTR [edx],al
  402f64:	or     al,BYTE PTR [eax]
  402f66:	sbb    al,0x0
  402f68:	pop    DWORD PTR [edx]
  402f6a:	or     al,BYTE PTR [eax]
  402f6c:	and    BYTE PTR [eax],al
  402f6e:	cwde   
  402f6f:	add    ch,BYTE PTR [esi]
  402f71:	add    BYTE PTR [ebx],bh
  402f73:	add    BYTE PTR [edi+0x5],ch
  402f76:	add    BYTE PTR cs:[ebx+0x0],al
  402f7a:	add    BYTE PTR ds:0xab002e,0xb6
  402f81:	or     DWORD PTR [esi],ebp
  402f83:	add    BYTE PTR [ebx+0x0],dl
  402f86:	ret    
  402f87:	add    eax,0xa3002e
  402f8c:	cld    
  402f8d:	add    al,0x2e
  402f8f:	add    BYTE PTR [ebx],dl
  402f91:	add    BYTE PTR [ebx],ch
  402f93:	add    eax,0x1b002e
  402f98:	arpl   WORD PTR ds:0x23002e,ax
  402f9e:	imul   eax,DWORD PTR ds:0x2b002e,0x2e056f
  402fa8:	xor    eax,DWORD PTR [eax]
  402faa:	outs   dx,DWORD PTR ds:[esi]
  402fab:	add    eax,0x4b002e
  402fb0:	popf   
  402fb1:	add    eax,0x63002e
  402fb6:	test   DWORD PTR ds:0x6b002e,0x2e05f7
  402fc0:	jae    0x402fc2
  402fc2:	or     DWORD PTR [esi],eax
  402fc4:	add    BYTE PTR cs:[ebx+0x0],bh
  402fc8:	pop    ss
  402fc9:	push   es
  402fca:	add    BYTE PTR cs:[ebx+0x2e056900],al
  402fd1:	add    BYTE PTR [ebx+0x2e062200],cl
  402fd7:	add    BYTE PTR [ebx+0x2e064d00],dl
  402fdd:	add    BYTE PTR [ebx+0x49099700],bl
  402fe3:	add    BYTE PTR [ebx],al
  402fe5:	add    bh,ah
  402fe7:	add    al,0x64
  402fe9:	add    BYTE PTR [ebx],cl
  402feb:	add    ah,bh
  402fed:	add    ch,BYTE PTR [ecx+0x0]
  402ff0:	add    eax,DWORD PTR [edx]
  402ff2:	cld    
  402ff3:	add    al,0x83
  402ff5:	add    bl,cl
  402ff7:	add    esp,edi
  402ff9:	add    al,BYTE PTR [ebx-0x74fe3d00]
  402fff:	add    al,0x83
  403001:	add    bl,dl
  403003:	add    esp,edi
  403005:	add    al,BYTE PTR [eax+0x2]
  403008:	sbb    eax,DWORD PTR [edx]
  40300a:	cld    
  40300b:	add    cl,BYTE PTR [ebx]
  40300d:	add    al,0x1c
  40300f:	add    al,0x2b
  403011:	add    al,0x44
  403013:	add    al,0x61
  403015:	add    al,0x7e
  403017:	add    al,0xe9
  403019:	add    al,0x25
  40301b:	add    eax,0x10003
  403020:	add    al,0x0
  403022:	add    al,BYTE PTR [eax]
  403024:	add    BYTE PTR [eax],al
  403026:	iret   
  403027:	add    eax,edx
  403029:	add    al,BYTE PTR [eax]
  40302b:	add    ah,ch
  40302d:	add    esp,ebp
  40302f:	add    al,BYTE PTR [eax]
  403031:	add    BYTE PTR [edx+0x2],dh
  403034:	icebp  
  403035:	add    al,BYTE PTR [eax]
  403037:	add    BYTE PTR [edx+0x2],bh
  40303a:	rol    BYTE PTR [edx],1
  40303c:	add    al,BYTE PTR [eax]
  40303e:	push   es
  40303f:	add    BYTE PTR [ebx],al
  403041:	add    BYTE PTR [edx],al
  403043:	add    BYTE PTR [ebx],cl
  403045:	add    BYTE PTR ds:0xc000200,al
  40304b:	add    BYTE PTR [edi],al
  40304d:	add    BYTE PTR [ecx],al
  40304f:	add    BYTE PTR ds:0x2000700,cl
  403055:	add    BYTE PTR [esi],cl
  403057:	add    BYTE PTR [ecx],cl
  403059:	add    BYTE PTR [eax+eax*4],al
  40305c:	add    BYTE PTR [eax],al
  40305e:	or     eax,DWORD PTR [eax]
  403060:	add    BYTE PTR [eax],al
  403062:	add    BYTE PTR [eax],al
  403064:	add    BYTE PTR [eax],al
  403066:	add    DWORD PTR [eax],eax
  403068:	add    BYTE PTR [eax],al
  40306a:	sbb    al,0x3
  40306c:	add    BYTE PTR [eax],0x0
  40306f:	add    BYTE PTR [eax+eax*1],al
	...
  40307a:	add    BYTE PTR [eax],al
  40307c:	add    DWORD PTR [eax],eax
  40307e:	mov    WORD PTR [eax],es
  403080:	add    BYTE PTR [eax],al
  403082:	add    BYTE PTR [eax],al
  403084:	add    al,0x0
	...
  40308e:	add    BYTE PTR [eax],al
  403090:	add    DWORD PTR [eax],eax
  403092:	xchg   ebp,eax
  403093:	add    BYTE PTR [eax],al
  403095:	add    BYTE PTR [eax],al
  403097:	add    BYTE PTR [ebx],cl
	...
  4030a1:	add    BYTE PTR [eax],al
  4030a3:	add    BYTE PTR ds:0x8fb05,al
  4030a9:	add    BYTE PTR [eax],al
  4030ab:	add    BYTE PTR [eax],al
  4030ad:	add    BYTE PTR [eax],al
  4030af:	add    BYTE PTR [ecx],al
  4030b1:	add    BYTE PTR [eax],al
  4030b3:	add    ah,ah
  4030b5:	or     DWORD PTR [eax],eax
  4030b7:	add    BYTE PTR [eax],al
  4030b9:	add    BYTE PTR [eax],al
  4030bb:	add    BYTE PTR [eax],al
  4030bd:	cmp    al,0x4d
  4030bf:	outs   dx,DWORD PTR ds:[esi]
  4030c0:	fs jne 0x40312f
  4030c3:	gs add BYTE PTR ds:[esi+0x45],cl
  4030c8:	dec    ecx
  4030c9:	outs   dx,BYTE PTR ds:[esi]
  4030ca:	jae    0x403140
  4030cc:	pop    eax
  4030cd:	ss xor al,0x2e
  4030d0:	gs js  0x403138
  4030d3:	add    BYTE PTR [edi+ebp*2+0x61],cl
  4030d7:	fs push esp
  4030d9:	gs jae 0x403150
  4030dc:	inc    ecx
  4030dd:	fs fs dec ecx
  4030e0:	outs   dx,BYTE PTR ds:[esi]
  4030e1:	dec    ecx
  4030e2:	outs   dx,BYTE PTR ds:[esi]
  4030e3:	jae    0x403159
  4030e5:	popa   
  4030e6:	ins    BYTE PTR es:[edi],dx
  4030e7:	ins    BYTE PTR es:[edi],dx
  4030e8:	gs jb  0x4030eb
  4030eb:	dec    ebp
  4030ec:	imul   esp,DWORD PTR [ebx+0x72],0x666f736f
  4030f3:	je     0x403123
  4030f5:	push   esi
  4030f6:	imul   esi,DWORD PTR [ebx+0x75],0x74536c61
  4030fd:	jne    0x403163
  4030ff:	imul   ebp,DWORD PTR [edi+0x2e],0x6c617551
  403106:	imul   esi,DWORD PTR [ecx+edi*2+0x54],0x736c6f6f
  40310e:	cs dec esi
  403110:	gs je  0x40318a
  403113:	outs   dx,DWORD PTR ds:[esi]
  403114:	jb     0x403181
  403116:	inc    ebp
  403117:	ins    DWORD PTR es:[edi],dx
  403118:	jne    0x403186
  40311a:	popa   
  40311b:	je     0x403186
  40311d:	outs   dx,DWORD PTR ds:[esi]
  40311e:	outs   dx,BYTE PTR ds:[esi]
  40311f:	cs pop eax
  403121:	ss xor al,0x49
  403124:	outs   dx,BYTE PTR ds:[esi]
  403125:	jae    0x40319b
  403127:	popa   
  403128:	ins    BYTE PTR es:[edi],dx
  403129:	ins    BYTE PTR es:[edi],dx
  40312a:	gs jb  0x40312d
  40312d:	dec    esp
  40312e:	outs   dx,DWORD PTR ds:[esi]
  40312f:	addr16 addr16 gs jb 0x403134
  403134:	push   edx
  403135:	gs jae 0x4031a7
  403138:	jne    0x4031ac
  40313a:	arpl   WORD PTR [ebp+0x73],sp
  40313d:	add    BYTE PTR [esi+0x45],cl
  403140:	dec    ecx
  403141:	outs   dx,BYTE PTR ds:[esi]
  403142:	jae    0x4031b8
  403144:	pop    eax
  403145:	ss xor al,0x0
  403148:	ins    DWORD PTR es:[edi],dx
  403149:	jae    0x4031ae
  40314b:	outs   dx,DWORD PTR ds:[esi]
  40314c:	jb     0x4031ba
  40314e:	imul   esp,DWORD PTR [edx+0x0],0x74737953
  403155:	gs ins DWORD PTR es:[edi],dx
  403157:	add    BYTE PTR [edi+0x62],cl
  40315a:	push   0x65
  40315c:	arpl   WORD PTR [eax+eax*1+0x4f],si
  403160:	data16 imul sp,WORD PTR [ebx+0x65],0x3431
  403167:	inc    edx
  403168:	popa   
  403169:	jae    0x4031d0
  40316b:	dec    ebx
  40316c:	gs jns 0x40316f
  40316f:	dec    edi
  403170:	data16 imul sp,WORD PTR [ebx+0x65],0x3431
  403177:	inc    ebx
  403178:	jb     0x4031df
  40317a:	popa   
  40317b:	je     0x4031e2
  40317d:	dec    ebx
  40317e:	gs jns 0x403181
  403181:	dec    edi
  403182:	data16 imul sp,WORD PTR [ebx+0x65],0x3431
  403189:	inc    esp
  40318a:	gs ins BYTE PTR es:[edi],dx
  40318c:	gs je  0x4031f4
  40318f:	dec    ebx
  403190:	gs jns 0x403193
  403193:	inc    esp
  403194:	gs ins BYTE PTR es:[edi],dx
  403196:	gs je  0x4031fe
  403199:	add    BYTE PTR [ebx+0x72],al
  40319c:	gs popa 
  40319e:	je     0x403205
  4031a0:	add    BYTE PTR [eax+0x52],cl
  4031a3:	gs jae 0x40321b
  4031a6:	ins    BYTE PTR es:[edi],dx
  4031a7:	je     0x4031f8
  4031a9:	imul   eax,DWORD PTR [eax],0x4e
  4031ac:	outs   dx,DWORD PTR ds:[esi]
  4031ad:	je     0x4031f8
  4031af:	outs   dx,BYTE PTR ds:[esi]
  4031b0:	jae    0x403226
  4031b2:	popa   
  4031b3:	ins    BYTE PTR es:[edi],dx
  4031b4:	ins    BYTE PTR es:[edi],dx
  4031b5:	gs add BYTE PTR fs:[ecx+0x63],al
  4031ba:	arpl   WORD PTR [ebp+0x73],sp
  4031bd:	jae    0x403203
  4031bf:	outs   dx,BYTE PTR gs:[esi]
  4031c1:	imul   esp,DWORD PTR [ebp+0x64],0x746e4900
  4031c8:	gs jb  0x403239
  4031cb:	popa   
  4031cc:	ins    BYTE PTR es:[edi],dx
  4031cd:	dec    ecx
  4031ce:	outs   dx,BYTE PTR ds:[esi]
  4031cf:	jae    0x403245
  4031d1:	popa   
  4031d2:	ins    BYTE PTR es:[edi],dx
  4031d3:	ins    BYTE PTR es:[edi],dx
  4031d4:	dec    esp
  4031d5:	outs   dx,DWORD PTR ds:[esi]
  4031d6:	popa   
  4031d7:	fs push esp
  4031d9:	gs jae 0x403250
  4031dc:	inc    ecx
  4031dd:	fs fs dec ecx
  4031e0:	outs   dx,BYTE PTR ds:[esi]
  4031e1:	add    BYTE PTR [ecx+0x6e],cl
  4031e4:	je     0x40324b
  4031e6:	jb     0x403256
  4031e8:	popa   
  4031e9:	ins    BYTE PTR es:[edi],dx
  4031ea:	push   ebp
  4031eb:	outs   dx,BYTE PTR ds:[esi]
  4031ec:	imul   ebp,DWORD PTR [esi+0x73],0x6c6c6174
  4031f3:	dec    esp
  4031f4:	outs   dx,DWORD PTR ds:[esi]
  4031f5:	popa   
  4031f6:	fs push esp
  4031f8:	gs jae 0x40326f
  4031fb:	inc    ecx
  4031fc:	fs fs dec ecx
  4031ff:	outs   dx,BYTE PTR ds:[esi]
  403200:	add    BYTE PTR [esi],ch
  403202:	arpl   WORD PTR [edi+ebp*2+0x72],si
  403206:	add    BYTE PTR [ecx+0x6e],cl
  403209:	outs   dx,WORD PTR ds:[esi]
  40320b:	add    BYTE PTR [ebp+0x78],al
  40320e:	arpl   WORD PTR [ebp+0x70],sp
  403211:	je     0x40327c
  403213:	outs   dx,DWORD PTR ds:[esi]
  403214:	outs   dx,BYTE PTR ds:[esi]
  403215:	add    BYTE PTR [ebp+0x72],al
  403218:	jb     0x403289
  40321a:	jb     0x40321c
  40321c:	addr16 gs je 0x40327f
  403220:	dec    esp
  403221:	outs   dx,DWORD PTR ds:[esi]
  403222:	addr16 inc esi
  403224:	imul   ebp,DWORD PTR [ebp+eiz*2+0x4e],0x656d61
  40322c:	push   edi
  40322d:	jb     0x403298
  40322f:	je     0x403296
  403231:	dec    esp
  403232:	imul   ebp,DWORD PTR [esi+0x65],0x696e4900
  403239:	je     0x4032a4
  40323b:	popa   
  40323c:	ins    BYTE PTR es:[edi],dx
  40323d:	imul   edi,DWORD PTR [edx+0x65],0x73795300
  403244:	je     0x4032ab
  403246:	ins    DWORD PTR es:[edi],dx
  403247:	cs inc esp
  403249:	imul   esp,DWORD PTR [ecx+0x67],0x74736f6e
  403250:	imul   esp,DWORD PTR [ebx+0x73],0x61725400
  403257:	arpl   WORD PTR [ebp+0x53],sp
  40325a:	ja     0x4032c5
  40325c:	je     0x4032c1
  40325e:	push   0x745f6d00
  403263:	jb     0x4032c6
  403265:	arpl   WORD PTR [ebp+0x53],sp
  403268:	ja     0x4032d3
  40326a:	je     0x4032cf
  40326c:	push   0x625f6d00
  403271:	dec    ecx
  403272:	outs   dx,BYTE PTR ds:[esi]
  403273:	imul   esi,DWORD PTR [ecx+ebp*2+0x61],0x657a696c
  40327b:	add    BYTE PTR fs:[ebp+0x5f],ch
  40327f:	ins    BYTE PTR es:[edi],dx
  403280:	outs   dx,DWORD PTR ds:[esi]
  403281:	addr16 inc esi
  403283:	imul   ebp,DWORD PTR [ebp+eiz*2+0x4e],0x656d61
  40328b:	dec    esp
  40328c:	outs   dx,DWORD PTR ds:[esi]
  40328d:	addr16 inc esi
  40328f:	imul   ebp,DWORD PTR [ebp+eiz*2+0x4e],0x656d61
  403297:	push   ebx
  403298:	jns    0x40330d
  40329a:	je     0x403301
  40329c:	ins    DWORD PTR es:[edi],dx
  40329d:	cs push edx
  40329f:	gs jae 0x403311
  4032a2:	jne    0x403316
  4032a4:	arpl   WORD PTR [ebp+0x73],sp
  4032a7:	add    BYTE PTR [edx+0x65],dl
  4032aa:	jae    0x40331b
  4032ac:	jne    0x403320
  4032ae:	arpl   WORD PTR [ebp+0x4d],sp
  4032b1:	popa   
  4032b2:	outs   dx,BYTE PTR ds:[esi]
  4032b3:	popa   
  4032b4:	addr16 gs jb 0x4032b8
  4032b8:	jb     0x40331f
  4032ba:	jae    0x40332b
  4032bc:	jne    0x403330
  4032be:	arpl   WORD PTR [ebp+0x4d],sp
  4032c1:	popa   
  4032c2:	outs   dx,BYTE PTR ds:[esi]
  4032c3:	add    BYTE PTR [ebx+0x79],dl
  4032c6:	jae    0x40333c
  4032c8:	gs ins DWORD PTR es:[edi],dx
  4032ca:	cs inc edi
  4032cc:	ins    BYTE PTR es:[edi],dx
  4032cd:	outs   dx,DWORD PTR ds:[esi]
  4032ce:	bound  esp,QWORD PTR [ecx+0x6c]
  4032d1:	imul   edi,DWORD PTR [edx+0x61],0x6e6f6974
  4032d8:	add    BYTE PTR [ebx+0x75],al
  4032db:	ins    BYTE PTR es:[edi],dx
  4032dc:	je     0x403353
  4032de:	jb     0x403345
  4032e0:	dec    ecx
  4032e1:	outs   dx,BYTE PTR ds:[esi]
  4032e2:	outs   dx,WORD PTR ds:[esi]
  4032e4:	add    BYTE PTR [edx+0x65],dh
  4032e7:	jae    0x403358
  4032e9:	jne    0x40335d
  4032eb:	arpl   WORD PTR [ebp+0x43],sp
  4032ee:	jne    0x40335c
  4032f0:	je     0x403367
  4032f2:	jb     0x403359
  4032f4:	add    BYTE PTR [edi+0x65],ah
  4032f7:	je     0x403358
  4032f9:	push   edx
  4032fa:	gs jae 0x40336c
  4032fd:	jne    0x403371
  4032ff:	arpl   WORD PTR [ebp+0x4d],sp
  403302:	popa   
  403303:	outs   dx,BYTE PTR ds:[esi]
  403304:	popa   
  403305:	addr16 gs jb 0x403309
  403309:	addr16 gs je 0x40336c
  40330d:	inc    ebx
  40330e:	jne    0x40337c
  403310:	je     0x403387
  403312:	jb     0x403379
  403314:	add    BYTE PTR [ebx+0x65],dh
  403317:	je     0x403378
  403319:	inc    ebx
  40331a:	jne    0x403388
  40331c:	je     0x403393
  40331e:	jb     0x403385
  403320:	add    BYTE PTR [edi+0x65],ah
  403323:	je     0x403384
  403325:	dec    eax
  403326:	gs ins BYTE PTR es:[edi],dx
  403328:	jo     0x403372
  40332a:	gs ins BYTE PTR es:[edi],dx
  40332c:	jo     0x40332e
  40332e:	inc    ebx
  40332f:	jne    0x40339d
  403331:	je     0x4033a8
  403333:	jb     0x40339a
  403335:	add    BYTE PTR [eax+0x65],cl
  403338:	ins    BYTE PTR es:[edi],dx
  403339:	jo     0x403383
  40333b:	gs ins BYTE PTR es:[edi],dx
  40333d:	jo     0x40333f
  40333f:	dec    ecx
  403340:	outs   dx,BYTE PTR ds:[esi]
  403341:	jae    0x4033b7
  403343:	popa   
  403344:	ins    BYTE PTR es:[edi],dx
  403345:	ins    BYTE PTR es:[edi],dx
  403346:	add    BYTE PTR [ebp+0x6e],dl
  403349:	imul   ebp,DWORD PTR [esi+0x73],0x6c6c6174
  403350:	add    BYTE PTR [ebp+0x61],cl
  403353:	imul   ebp,DWORD PTR [esi+0x0],0x6e497356
  40335a:	jae    0x4033d0
  40335c:	popa   
  40335d:	ins    BYTE PTR es:[edi],dx
  40335e:	ins    BYTE PTR es:[edi],dx
  40335f:	dec    esp
  403360:	outs   dx,DWORD PTR ds:[esi]
  403361:	arpl   WORD PTR [ecx+0x74],sp
  403364:	imul   ebp,DWORD PTR [edi+0x6e],0x73656d00
  40336b:	jae    0x4033ce
  40336d:	addr16 gs inc esi
  403370:	outs   dx,DWORD PTR ds:[esi]
  403371:	jb     0x4033e0
  403373:	popa   
  403374:	je     0x403376
  403376:	jo     0x4033d9
  403378:	jb     0x4033db
  40337a:	ins    DWORD PTR es:[edi],dx
  40337b:	gs je  0x4033e3
  40337e:	jb     0x4033f3
  403380:	add    BYTE PTR [eax+0x61],dl
  403383:	jb     0x4033e6
  403385:	ins    DWORD PTR es:[edi],dx
  403386:	inc    ecx
  403387:	jb     0x4033fb
  403389:	popa   
  40338a:	jns    0x4033cd
  40338c:	je     0x403402
  40338e:	jb     0x4033f9
  403390:	bound  esi,QWORD PTR [ebp+0x74]
  403393:	add    BYTE PTR gs:[ebp+0x78],ah
  403397:	add    BYTE PTR [edi+ebp*2+0x67],ch
  40339b:	push   esp
  40339c:	jns    0x40340e
  40339e:	add    BYTE PTR gs:[ebp+0x65],ch
  4033a2:	jae    0x403417
  4033a4:	popa   
  4033a5:	add    BYTE PTR gs:[bp+0x61],dh
  4033aa:	ins    BYTE PTR es:[edi],dx
  4033ab:	jne    0x403412
  4033ad:	add    BYTE PTR [ecx+0x72],ah
  4033b0:	addr16 jae 0x4033b3
  4033b3:	push   ebx
  4033b4:	jns    0x403429
  4033b6:	je     0x40341d
  4033b8:	ins    DWORD PTR es:[edi],dx
  4033b9:	cs push edx
  4033bb:	jne    0x40342b
  4033bd:	je     0x403428
  4033bf:	ins    DWORD PTR es:[edi],dx
  4033c0:	gs cs push esi
  4033c3:	gs jb  0x403439
  4033c6:	imul   ebp,DWORD PTR [edi+0x6e],0x676e69
  4033cd:	push   esp
  4033ce:	popa   
  4033cf:	jb     0x403438
  4033d1:	gs je  0x40341a
  4033d4:	jb     0x403437
  4033d6:	ins    DWORD PTR es:[edi],dx
  4033d7:	gs ja  0x403449
  4033da:	jb     0x403447
  4033dc:	inc    ecx
  4033dd:	je     0x403453
  4033df:	jb     0x40344a
  4033e1:	bound  esi,QWORD PTR [ebp+0x74]
  4033e4:	add    BYTE PTR gs:[ebx+0x79],dl
  4033e8:	jae    0x40345e
  4033ea:	gs ins DWORD PTR es:[edi],dx
  4033ec:	cs push edx
  4033ee:	jne    0x40345e
  4033f0:	je     0x40345b
  4033f2:	ins    DWORD PTR es:[edi],dx
  4033f3:	gs cs dec ecx
  4033f6:	outs   dx,BYTE PTR ds:[esi]
  4033f7:	je     0x40345e
  4033f9:	jb     0x40346a
  4033fb:	jo     0x403450
  4033fd:	gs jb  0x403476
  403400:	imul   esp,DWORD PTR [ebx+0x65],0x6f430073
  403407:	ins    DWORD PTR es:[edi],dx
  403408:	push   esi
  403409:	imul   esi,DWORD PTR [ebx+0x69],0x41656c62
  403410:	je     0x403486
  403412:	jb     0x40347d
  403414:	bound  esi,QWORD PTR [ebp+0x74]
  403417:	add    BYTE PTR gs:[ebx+0x4c],al
  40341b:	push   ebx
  40341c:	inc    ebx
  40341d:	outs   dx,DWORD PTR ds:[esi]
  40341e:	ins    DWORD PTR es:[edi],dx
  40341f:	jo     0x40348d
  403421:	imul   esp,DWORD PTR [ecx+0x6e],0x74744174
  403428:	jb     0x403493
  40342a:	bound  esi,QWORD PTR [ebp+0x74]
  40342d:	add    BYTE PTR gs:[ebx+0x79],dl
  403431:	jae    0x4034a7
  403433:	gs ins DWORD PTR es:[edi],dx
  403435:	cs push edx
  403437:	gs data16 ins BYTE PTR es:[edi],dx
  40343a:	arpl   WORD PTR gs:[ecx+ebp*2+0x6f],si
  40343f:	outs   dx,BYTE PTR ds:[esi]
  403440:	add    BYTE PTR [ecx+0x73],al
  403443:	jae    0x4034aa
  403445:	ins    DWORD PTR es:[edi],dx
  403446:	bound  ebp,QWORD PTR [ecx+edi*2+0x54]
  40344a:	imul   esi,DWORD PTR [esp+ebp*2+0x65],0x72747441
  403452:	imul   esp,DWORD PTR [edx+0x75],0x41006574
  403459:	jae    0x4034ce
  40345b:	gs ins DWORD PTR es:[edi],dx
  40345d:	bound  ebp,QWORD PTR [ecx+edi*2+0x44]
  403461:	gs jae 0x4034c7
  403464:	jb     0x4034cf
  403466:	jo     0x4034dc
  403468:	imul   ebp,DWORD PTR [edi+0x6e],0x72747441
  40346f:	imul   esp,DWORD PTR [edx+0x75],0x41006574
  403476:	jae    0x4034eb
  403478:	gs ins DWORD PTR es:[edi],dx
  40347a:	bound  ebp,QWORD PTR [ecx+edi*2+0x44]
  40347e:	gs popaw 
  403481:	jne    0x4034ef
  403483:	je     0x4034c6
  403485:	ins    BYTE PTR es:[edi],dx
  403486:	imul   esp,DWORD PTR [ecx+0x73],0x72747441
  40348d:	imul   esp,DWORD PTR [edx+0x75],0x41006574
  403494:	jae    0x403509
  403496:	gs ins DWORD PTR es:[edi],dx
  403498:	bound  ebp,QWORD PTR [ecx+edi*2+0x43]
  40349c:	outs   dx,DWORD PTR ds:[esi]
  40349d:	ins    DWORD PTR es:[edi],dx
  40349e:	jo     0x403501
  4034a0:	outs   dx,BYTE PTR ds:[esi]
  4034a1:	jns    0x4034e4
  4034a3:	je     0x403519
  4034a5:	jb     0x403510
  4034a7:	bound  esi,QWORD PTR [ebp+0x74]
  4034aa:	add    BYTE PTR gs:[ecx+0x73],al
  4034ae:	jae    0x403515
  4034b0:	ins    DWORD PTR es:[edi],dx
  4034b1:	bound  ebp,QWORD PTR [ecx+edi*2+0x50]
  4034b5:	jb     0x403526
  4034b7:	fs jne 0x40351d
  4034ba:	je     0x4034fd
  4034bc:	je     0x403532
  4034be:	jb     0x403529
  4034c0:	bound  esi,QWORD PTR [ebp+0x74]
  4034c3:	add    BYTE PTR gs:[ecx+0x73],al
  4034c7:	jae    0x40352e
  4034c9:	ins    DWORD PTR es:[edi],dx
  4034ca:	bound  ebp,QWORD PTR [ecx+edi*2+0x43]
  4034ce:	outs   dx,DWORD PTR ds:[esi]
  4034cf:	jo     0x40354a
  4034d1:	jb     0x40353c
  4034d3:	addr16 push 0x74744174
  4034d9:	jb     0x403544
  4034db:	bound  esi,QWORD PTR [ebp+0x74]
  4034de:	add    BYTE PTR gs:[ecx+0x73],al
  4034e2:	jae    0x403549
  4034e4:	ins    DWORD PTR es:[edi],dx
  4034e5:	bound  ebp,QWORD PTR [ecx+edi*2+0x56]
  4034e9:	gs jb  0x40355f
  4034ec:	imul   ebp,DWORD PTR [edi+0x6e],0x72747441
  4034f3:	imul   esp,DWORD PTR [edx+0x75],0x41006574
  4034fa:	jae    0x40356f
  4034fc:	gs ins DWORD PTR es:[edi],dx
  4034fe:	bound  ebp,QWORD PTR [ecx+edi*2+0x46]
  403502:	imul   ebp,DWORD PTR [ebp+eiz*2+0x56],0x69737265
  40350a:	outs   dx,DWORD PTR ds:[esi]
  40350b:	outs   dx,BYTE PTR ds:[esi]
  40350c:	inc    ecx
  40350d:	je     0x403583
  40350f:	jb     0x40357a
  403511:	bound  esi,QWORD PTR [ebp+0x74]
  403514:	add    BYTE PTR gs:[ecx+0x73],al
  403518:	jae    0x40357f
  40351a:	ins    DWORD PTR es:[edi],dx
  40351b:	bound  ebp,QWORD PTR [ecx+edi*2+0x49]
  40351f:	outs   dx,BYTE PTR ds:[esi]
  403520:	outs   dx,WORD PTR ds:[esi]
  403522:	jb     0x403591
  403524:	popa   
  403525:	je     0x403590
  403527:	outs   dx,DWORD PTR ds:[esi]
  403528:	outs   dx,BYTE PTR ds:[esi]
  403529:	popa   
  40352a:	ins    BYTE PTR es:[edi],dx
  40352b:	push   esi
  40352c:	gs jb  0x4035a2
  40352f:	imul   ebp,DWORD PTR [edi+0x6e],0x72747441
  403536:	imul   esp,DWORD PTR [edx+0x75],0x53006574
  40353d:	popa   
  40353e:	je     0x4035a5
  403540:	ins    BYTE PTR es:[edi],dx
  403541:	ins    BYTE PTR es:[edi],dx
  403542:	imul   esi,DWORD PTR [ebp+eiz*2+0x43],0x72746e6f
  40354a:	popa   
  40354b:	arpl   WORD PTR [esi+edx*2+0x65],si
  40354f:	jb     0x4035c4
  403551:	imul   ebp,DWORD PTR [edi+0x6e],0x72747441
  403558:	imul   esp,DWORD PTR [edx+0x75],0x4e006574
  40355f:	gs jne 0x4035d6
  403562:	jb     0x4035c5
  403564:	ins    BYTE PTR es:[edi],dx
  403565:	push   edx
  403566:	gs jae 0x4035d8
  403569:	jne    0x4035dd
  40356b:	arpl   WORD PTR [ebp+0x73],sp
  40356e:	dec    esp
  40356f:	popa   
  403570:	outs   dx,BYTE PTR ds:[esi]
  403571:	addr16 jne 0x4035d5
  403574:	addr16 gs inc ecx
  403577:	je     0x4035ed
  403579:	jb     0x4035e4
  40357b:	bound  esi,QWORD PTR [ebp+0x74]
  40357e:	add    BYTE PTR gs:[ecx+0x73],al
  403582:	jae    0x4035e9
  403584:	ins    DWORD PTR es:[edi],dx
  403585:	bound  ebp,QWORD PTR [ecx+edi*2+0x44]
  403589:	gs ins BYTE PTR es:[edi],dx
  40358b:	popa   
  40358c:	jns    0x4035e1
  40358e:	imul   esp,DWORD PTR [edi+0x6e],0x72747441
  403595:	imul   esp,DWORD PTR [edx+0x75],0x41006574
  40359c:	jae    0x403611
  40359e:	gs ins DWORD PTR es:[edi],dx
  4035a0:	bound  ebp,QWORD PTR [ecx+edi*2+0x4b]
  4035a4:	gs jns 0x4035ed
  4035a7:	imul   ebp,DWORD PTR [ebp+eiz*2+0x41],0x69727474
  4035af:	bound  esi,QWORD PTR [ebp+0x74]
  4035b2:	add    BYTE PTR gs:[ecx+0x73],al
  4035b6:	jae    0x40361d
  4035b8:	ins    DWORD PTR es:[edi],dx
  4035b9:	bound  ebp,QWORD PTR [ecx+edi*2+0x53]
  4035bd:	imul   esp,DWORD PTR [edi+0x6e],0x72757461
  4035c4:	gs dec ebx
  4035c6:	gs jns 0x40360a
  4035c9:	je     0x40363f
  4035cb:	jb     0x403636
  4035cd:	bound  esi,QWORD PTR [ebp+0x74]
  4035d0:	add    BYTE PTR gs:[ebx+0x79],dl
  4035d4:	jae    0x40364a
  4035d6:	gs ins DWORD PTR es:[edi],dx
  4035d8:	cs push edx
  4035da:	jne    0x40364a
  4035dc:	je     0x403647
  4035de:	ins    DWORD PTR es:[edi],dx
  4035df:	gs cs inc ebx
  4035e2:	outs   dx,DWORD PTR ds:[esi]
  4035e3:	ins    DWORD PTR es:[edi],dx
  4035e4:	jo     0x40364f
  4035e6:	ins    BYTE PTR es:[edi],dx
  4035e7:	gs jb  0x40363d
  4035ea:	gs jb  0x403663
  4035ed:	imul   esp,DWORD PTR [ebx+0x65],0x75520073
  4035f4:	outs   dx,BYTE PTR ds:[esi]
  4035f5:	je     0x403660
  4035f7:	ins    DWORD PTR es:[edi],dx
  4035f8:	gs inc ebx
  4035fa:	outs   dx,DWORD PTR ds:[esi]
  4035fb:	ins    DWORD PTR es:[edi],dx
  4035fc:	jo     0x40365f
  4035fe:	je     0x403669
  403600:	bound  ebp,QWORD PTR [ecx+0x6c]
  403603:	imul   esi,DWORD PTR [ecx+edi*2+0x41],0x69727474
  40360b:	bound  esi,QWORD PTR [ebp+0x74]
  40360e:	add    BYTE PTR gs:[ebp+eiz*2+0x62],al
  403613:	jne    0x40367c
  403615:	addr16 popa 
  403617:	bound  ebp,QWORD PTR [ebp+eiz*2+0x41]
  40361b:	je     0x403691
  40361d:	jb     0x403688
  40361f:	bound  esi,QWORD PTR [ebp+0x74]
  403622:	add    BYTE PTR gs:[ebp+eiz*2+0x62],al
  403627:	jne    0x403690
  403629:	imul   ebp,DWORD PTR [bp+0x67],0x65646f4d
  403631:	jae    0x403633
  403633:	inc    ebx
  403634:	outs   dx,DWORD PTR ds:[esi]
  403635:	ins    DWORD PTR es:[edi],dx
  403636:	jo     0x4036a1
  403638:	ins    BYTE PTR es:[edi],dx
  403639:	popa   
  40363a:	je     0x4036a5
  40363c:	outs   dx,DWORD PTR ds:[esi]
  40363d:	outs   dx,BYTE PTR ds:[esi]
  40363e:	push   edx
  40363f:	gs ins BYTE PTR es:[edi],dx
  403641:	popa   
  403642:	js     0x4036a5
  403644:	je     0x4036af
  403646:	outs   dx,DWORD PTR ds:[esi]
  403647:	outs   dx,BYTE PTR ds:[esi]
  403648:	jae    0x40368b
  40364a:	je     0x4036c0
  40364c:	jb     0x4036b7
  40364e:	bound  esi,QWORD PTR [ebp+0x74]
  403651:	add    BYTE PTR gs:[ebx+0x74],dl
  403655:	jb     0x4036c0
  403657:	outs   dx,BYTE PTR ds:[esi]
  403658:	add    BYTE PTR [bp+di+0x74],dl
  40365c:	jb     0x4036c7
  40365e:	outs   dx,BYTE PTR ds:[esi]
  40365f:	addr16 inc ebx
  403661:	outs   dx,DWORD PTR ds:[esi]
  403662:	ins    DWORD PTR es:[edi],dx
  403663:	jo     0x4036c6
  403665:	jb     0x4036d0
  403667:	jae    0x4036d8
  403669:	outs   dx,BYTE PTR ds:[esi]
  40366a:	add    BYTE PTR [ebp+0x6e],al
  40366d:	fs jae 0x4036c7
  403670:	imul   esi,DWORD PTR [eax+ebp*2+0x0],0x5f746567
  403678:	dec    esp
  403679:	outs   dx,BYTE PTR gs:[esi]
  40367b:	addr16 je 0x4036e6
  40367e:	add    BYTE PTR [ebx+0x75],dl
  403681:	bound  esi,QWORD PTR [ebx+0x74]
  403684:	jb     0x4036ef
  403686:	outs   dx,BYTE PTR ds:[esi]
  403687:	add    BYTE PTR [bp+di+0x6f],al
  40368b:	outs   dx,BYTE PTR ds:[esi]
  40368c:	arpl   WORD PTR [ecx+0x74],sp
  40368f:	add    BYTE PTR [ebx+0x79],dl
  403692:	jae    0x403708
  403694:	gs ins DWORD PTR es:[edi],dx
  403696:	cs dec ecx
  403698:	dec    edi
  403699:	add    BYTE PTR [eax+0x61],dl
  40369c:	je     0x403706
  40369e:	add    BYTE PTR [ebx+0x6f],al
  4036a1:	ins    DWORD PTR es:[edi],dx
  4036a2:	bound  ebp,QWORD PTR [ecx+0x6e]
  4036a5:	add    BYTE PTR gs:[esi+0x69],al
  4036a9:	ins    BYTE PTR es:[edi],dx
  4036aa:	add    BYTE PTR gs:[ebp+0x78],al
  4036ae:	imul   esi,DWORD PTR [ebx+0x74],0x694d0073
  4036b5:	arpl   WORD PTR [edx+0x6f],si
  4036b8:	jae    0x403729
  4036ba:	data16 je 0x4036eb
  4036bd:	push   edi
  4036be:	imul   ebp,DWORD PTR [esi+0x33],0x65520032
  4036c5:	imul   esi,DWORD PTR [bp+di+0x74],0x52007972
  4036cd:	imul   esi,DWORD PTR gs:[bp+di+0x74],0x654b7972
  4036d6:	jns    0x4036d8
  4036d8:	dec    esp
  4036d9:	outs   dx,DWORD PTR ds:[esi]
  4036da:	arpl   WORD PTR [ecx+0x6c],sp
  4036dd:	dec    ebp
  4036de:	popa   
  4036df:	arpl   WORD PTR [eax+0x69],bp
  4036e2:	outs   dx,BYTE PTR ds:[esi]
  4036e3:	add    BYTE PTR gs:[ebx+0x72],al
  4036e7:	gs popa 
  4036e9:	je     0x403750
  4036eb:	push   ebx
  4036ec:	jne    0x403750
  4036ee:	dec    ebx
  4036ef:	gs jns 0x4036f2
  4036f2:	inc    esp
  4036f3:	gs ins BYTE PTR es:[edi],dx
  4036f5:	gs je  0x40375d
  4036f8:	push   ebx
  4036f9:	jne    0x40375d
  4036fb:	dec    ebx
  4036fc:	gs jns 0x403753
  4036ff:	jb     0x403766
  403701:	add    BYTE PTR gs:[edx+0x65],dl
  403705:	imul   esi,DWORD PTR [bp+di+0x74],0x61567972
  40370d:	ins    BYTE PTR es:[edi],dx
  40370e:	jne    0x403775
  403710:	dec    ebx
  403711:	imul   ebp,DWORD PTR [esi+0x64],0x74655300
  403718:	push   esi
  403719:	popa   
  40371a:	ins    BYTE PTR es:[edi],dx
  40371b:	jne    0x403782
  40371d:	add    BYTE PTR [ecx+0x6e],cl
  403720:	je     0x403755
  403722:	xor    al,BYTE PTR [eax]
  403724:	addr16 gs je 0x403787
  403728:	dec    ecx
  403729:	outs   dx,BYTE PTR ds:[esi]
  40372a:	jbe    0x40378d
  40372c:	jb     0x403797
  40372e:	popa   
  40372f:	outs   dx,BYTE PTR ds:[esi]
  403730:	je     0x403775
  403732:	jne    0x4037a0
  403734:	je     0x4037ab
  403736:	jb     0x40379d
  403738:	add    BYTE PTR [ecx+0x46],cl
  40373b:	outs   dx,DWORD PTR ds:[esi]
  40373c:	jb     0x4037ab
  40373e:	popa   
  40373f:	je     0x403791
  403741:	jb     0x4037b2
  403743:	jbe    0x4037ae
  403745:	fs gs jb 0x403749
  403749:	inc    esi
  40374a:	outs   dx,DWORD PTR ds:[esi]
  40374b:	jb     0x4037ba
  40374d:	popa   
  40374e:	je     0x403750
  403750:	dec    ecx
  403751:	inc    esp
  403752:	imul   esi,DWORD PTR [ebx+0x70],0x6261736f
  403759:	ins    BYTE PTR es:[edi],dx
  40375a:	add    BYTE PTR gs:[ecx+ebp*2+0x73],al
  40375f:	jo     0x4037d0
  403761:	jae    0x4037c8
  403763:	add    BYTE PTR [edi+0x65],al
  403766:	je     0x4037be
  403768:	popa   
  403769:	ins    BYTE PTR es:[edi],dx
  40376a:	jne    0x4037d1
  40376c:	add    BYTE PTR [edi+0x65],ah
  40376f:	je     0x4037d0
  403771:	push   esp
  403772:	jb     0x4037d5
  403774:	arpl   WORD PTR [ebp+0x49],sp
  403777:	outs   dx,BYTE PTR ds:[esi]
  403778:	outs   dx,WORD PTR ds:[esi]
  40377a:	add    BYTE PTR [edi+0x65],ah
  40377d:	je     0x4037de
  40377f:	push   esp
  403780:	jb     0x4037e3
  403782:	arpl   WORD PTR [ebp+0x45],sp
  403785:	jb     0x4037f9
  403787:	outs   dx,DWORD PTR ds:[esi]
  403788:	jb     0x40378a
  40378a:	push   esp
  40378b:	outs   dx,DWORD PTR ds:[esi]
  40378c:	push   ebx
  40378d:	je     0x403801
  40378f:	imul   ebp,DWORD PTR [esi+0x67],0x4e734900
  403796:	jne    0x403804
  403798:	ins    BYTE PTR es:[edi],dx
  403799:	dec    edi
  40379a:	jb     0x4037e1
  40379c:	ins    DWORD PTR es:[edi],dx
  40379d:	jo     0x403813
  40379f:	jns    0x4037a1
  4037a1:	push   eax
  4037a2:	jb     0x403813
  4037a4:	arpl   WORD PTR [ebp+0x73],sp
  4037a7:	jae    0x4037a9
  4037a9:	inc    edi
  4037aa:	gs je  0x4037f0
  4037ad:	jne    0x403821
  4037af:	jb     0x403816
  4037b1:	outs   dx,BYTE PTR ds:[esi]
  4037b2:	je     0x403804
  4037b4:	jb     0x403825
  4037b6:	arpl   WORD PTR [ebp+0x73],sp
  4037b9:	jae    0x4037bb
  4037bb:	push   eax
  4037bc:	jb     0x40382d
  4037be:	arpl   WORD PTR [ebp+0x73],sp
  4037c1:	jae    0x403810
  4037c3:	outs   dx,DWORD PTR ds:[esi]
  4037c4:	fs jne 0x403833
  4037c7:	add    BYTE PTR gs:[edi+0x65],ah
  4037cb:	je     0x40382c
  4037cd:	dec    ebp
  4037ce:	popa   
  4037cf:	imul   ebp,DWORD PTR [esi+0x4d],0x6c75646f
  4037d6:	add    BYTE PTR gs:[edi+0x65],ah
  4037da:	je     0x40383b
  4037dc:	inc    esi
  4037dd:	imul   ebp,DWORD PTR [ebp+eiz*2+0x4e],0x656d61
  4037e5:	inc    edi
  4037e6:	gs je  0x40383d
  4037e9:	gs ins DWORD PTR es:[edi],dx
  4037eb:	jo     0x40383d
  4037ed:	popa   
  4037ee:	je     0x403858
  4037f0:	add    BYTE PTR [edi+0x65],al
  4037f3:	je     0x40383b
  4037f5:	imul   ebp,DWORD PTR [ebp+eiz*2+0x4e],0x57656d61
  4037fd:	imul   esi,DWORD PTR [eax+ebp*2+0x6f],0x78457475
  403805:	je     0x40386c
  403807:	outs   dx,BYTE PTR ds:[esi]
  403808:	jae    0x403873
  40380a:	outs   dx,DWORD PTR ds:[esi]
  40380b:	outs   dx,BYTE PTR ds:[esi]
  40380c:	add    BYTE PTR [edx+esi*2+0x61],dl
  403810:	arpl   WORD PTR [ebp+0x0],sp
  403813:	inc    esp
  403814:	popa   
  403815:	je     0x40387c
  403817:	push   esp
  403818:	imul   ebp,DWORD PTR [ebp+0x65],0x74656700
  40381f:	pop    edi
  403820:	dec    esi
  403821:	outs   dx,DWORD PTR ds:[esi]
  403822:	ja     0x403824
  403824:	inc    ebp
  403825:	outs   dx,BYTE PTR ds:[esi]
  403826:	jbe    0x403891
  403828:	jb     0x403899
  40382a:	outs   dx,BYTE PTR ds:[esi]
  40382b:	ins    DWORD PTR es:[edi],dx
  40382c:	outs   dx,BYTE PTR gs:[esi]
  40382e:	je     0x403830
  403830:	dec    edi
  403831:	jo     0x403898
  403833:	jb     0x403896
  403835:	je     0x4038a0
  403837:	outs   dx,BYTE PTR ds:[esi]
  403838:	addr16 push ebx
  40383a:	jns    0x4038af
  40383c:	je     0x4038a3
  40383e:	ins    DWORD PTR es:[edi],dx
  40383f:	add    BYTE PTR [edi+0x65],ah
  403842:	je     0x4038a3
  403844:	dec    edi
  403845:	push   ebx
  403846:	push   esi
  403847:	gs jb  0x4038bd
  40384a:	imul   ebp,DWORD PTR [edi+0x6e],0x78655400
  403851:	je     0x4038aa
  403853:	jb     0x4038be
  403855:	je     0x4038bc
  403857:	jb     0x4038ad
  403859:	jb     0x4038bc
  40385b:	arpl   WORD PTR [ebp+0x4c],sp
  40385e:	imul   esi,DWORD PTR [ebx+0x74],0x72656e65
  403865:	add    BYTE PTR [edx+esi*2+0x61],dl
  403869:	arpl   WORD PTR [ebp+0x4c],sp
  40386c:	imul   esi,DWORD PTR [ebx+0x74],0x72656e65
  403873:	inc    ebx
  403874:	outs   dx,DWORD PTR ds:[esi]
  403875:	ins    BYTE PTR es:[edi],dx
  403876:	ins    BYTE PTR es:[edi],dx
  403877:	arpl   WORD PTR gs:[ecx+ebp*2+0x6f],si
  40387c:	outs   dx,BYTE PTR ds:[esi]
  40387d:	add    BYTE PTR [edi+0x65],ah
  403880:	je     0x4038e1
  403882:	dec    esp
  403883:	imul   esi,DWORD PTR [ebx+0x74],0x72656e65
  40388a:	jae    0x40388c
  40388c:	push   esp
  40388d:	jb     0x4038f0
  40388f:	arpl   WORD PTR [ebp+0x4c],sp
  403892:	imul   esi,DWORD PTR [ebx+0x74],0x72656e65
  403899:	add    BYTE PTR [ecx+0x64],al
  40389c:	add    BYTE PTR fs:[ebx+0x65],dh
  4038a0:	je     0x403901
  4038a2:	inc    ecx
  4038a3:	jne    0x403919
  4038a5:	outs   dx,DWORD PTR ds:[esi]
  4038a6:	inc    esi
  4038a7:	ins    BYTE PTR es:[edi],dx
  4038a8:	jne    0x40391d
  4038aa:	push   0x63632e00
  4038af:	je     0x403920
  4038b1:	jb     0x4038b3
  4038b3:	push   ebx
  4038b4:	jns    0x403929
  4038b6:	je     0x40391d
  4038b8:	ins    DWORD PTR es:[edi],dx
  4038b9:	cs inc ebx
  4038bb:	outs   dx,DWORD PTR ds:[esi]
  4038bc:	fs gs inc esp
  4038bf:	outs   dx,DWORD PTR ds:[esi]
  4038c0:	ins    DWORD PTR es:[edi],dx
  4038c1:	cs inc ebx
  4038c3:	outs   dx,DWORD PTR ds:[esi]
  4038c4:	ins    DWORD PTR es:[edi],dx
  4038c5:	jo     0x403930
  4038c7:	ins    BYTE PTR es:[edi],dx
  4038c8:	gs jb  0x4038cb
  4038cb:	inc    edi
  4038cc:	outs   dx,BYTE PTR gs:[esi]
  4038ce:	gs jb  0x403932
  4038d1:	je     0x403938
  4038d3:	fs inc ebx
  4038d5:	outs   dx,DWORD PTR ds:[esi]
  4038d6:	fs gs inc ecx
  4038d9:	je     0x40394f
  4038db:	jb     0x403946
  4038dd:	bound  esi,QWORD PTR [ebp+0x74]
  4038e0:	add    BYTE PTR gs:[ebp+eiz*2+0x62],al
  4038e5:	jne    0x40394e
  4038e7:	addr16 gs jb 0x403939
  4038eb:	outs   dx,DWORD PTR ds:[esi]
  4038ec:	outs   dx,BYTE PTR ds:[esi]
  4038ed:	push   ebp
  4038ee:	jae    0x403955
  4038f0:	jb     0x403935
  4038f2:	outs   dx,DWORD PTR ds:[esi]
  4038f3:	fs gs inc ecx
  4038f6:	je     0x40396c
  4038f8:	jb     0x403963
  4038fa:	bound  esi,QWORD PTR [ebp+0x74]
  4038fd:	add    BYTE PTR gs:[ebx+0x6f],al
  403901:	ins    DWORD PTR es:[edi],dx
  403902:	jo     0x40396d
  403904:	ins    BYTE PTR es:[edi],dx
  403905:	gs jb  0x40394f
  403908:	outs   dx,BYTE PTR gs:[esi]
  40390a:	gs jb  0x40396e
  40390d:	je     0x403974
  40390f:	fs inc ecx
  403911:	je     0x403987
  403913:	jb     0x40397e
  403915:	bound  esi,QWORD PTR [ebp+0x74]
  403918:	add    BYTE PTR gs:[edx+0x65],dl
  40391c:	data16 gs jb 0x403985
  403920:	outs   dx,BYTE PTR ds:[esi]
  403921:	arpl   WORD PTR [ebp+0x45],sp
  403924:	jno    0x40399b
  403926:	popa   
  403927:	ins    BYTE PTR es:[edi],dx
  403928:	jae    0x40392a
  40392a:	push   esp
  40392b:	jns    0x40399d
  40392d:	add    BYTE PTR gs:[edx+0x75],dl
  403931:	outs   dx,BYTE PTR ds:[esi]
  403932:	je     0x40399d
  403934:	ins    DWORD PTR es:[edi],dx
  403935:	gs push esp
  403937:	jns    0x4039a9
  403939:	gs dec eax
  40393b:	popa   
  40393c:	outs   dx,BYTE PTR ds:[esi]
  40393d:	fs ins BYTE PTR es:[edi],dx
  40393f:	add    BYTE PTR gs:[edi+0x65],al
  403943:	je     0x403999
  403945:	jns    0x4039b7
  403947:	gs inc esi
  403949:	jb     0x4039ba
  40394b:	ins    DWORD PTR es:[edi],dx
  40394c:	dec    eax
  40394d:	popa   
  40394e:	outs   dx,BYTE PTR ds:[esi]
  40394f:	fs ins BYTE PTR es:[edi],dx
  403951:	add    BYTE PTR gs:[ecx+0x73],al
  403955:	jae    0x4039bc
  403957:	ins    DWORD PTR es:[edi],dx
  403958:	bound  ebp,QWORD PTR [ecx+edi*2+0x0]
  40395c:	addr16 gs je 0x4039bf
  403960:	inc    ecx
  403961:	jae    0x4039d6
  403963:	gs ins DWORD PTR es:[edi],dx
  403965:	bound  ebp,QWORD PTR [ecx+edi*2+0x0]
  403969:	inc    edi
  40396a:	gs je  0x4039c0
  40396d:	je     0x4039e1
  40396f:	imul   ebp,DWORD PTR [esi+0x67],0x73795300
  403976:	je     0x4039dd
  403978:	ins    DWORD PTR es:[edi],dx
  403979:	cs inc ebx
  40397b:	outs   dx,DWORD PTR ds:[esi]
  40397c:	ins    DWORD PTR es:[edi],dx
  40397d:	jo     0x4039ee
  40397f:	outs   dx,BYTE PTR ds:[esi]
  403980:	outs   dx,BYTE PTR gs:[esi]
  403982:	je     0x4039d1
  403984:	outs   dx,DWORD PTR ds:[esi]
  403985:	fs gs ins BYTE PTR es:[edi],dx
  403988:	add    BYTE PTR [ebp+0x64],al
  40398b:	imul   esi,DWORD PTR [edi+ebp*2+0x72],0x776f7242
  403993:	jae    0x4039f6
  403995:	bound  ebp,QWORD PTR [ebp+eiz*2+0x41]
  403999:	je     0x403a0f
  40399b:	jb     0x403a06
  40399d:	bound  esi,QWORD PTR [ebp+0x74]
  4039a0:	add    BYTE PTR gs:[ebp+0x64],al
  4039a4:	imul   esi,DWORD PTR [edi+ebp*2+0x72],0x776f7242
  4039ac:	jae    0x403a0f
  4039ae:	bound  ebp,QWORD PTR [ebp+eiz*2+0x53]
  4039b2:	je     0x403a15
  4039b4:	je     0x403a1b
  4039b6:	add    BYTE PTR [ebp+0x69],cl
  4039b9:	arpl   WORD PTR [edx+0x6f],si
  4039bc:	jae    0x403a2d
  4039be:	data16 je 0x4039ef
  4039c1:	push   esi
  4039c2:	imul   esi,DWORD PTR [ebx+0x75],0x74536c61
  4039c9:	jne    0x403a2f
  4039cb:	imul   ebp,DWORD PTR [edi+0x2e],0x6c617551
  4039d2:	imul   esi,DWORD PTR [ecx+edi*2+0x54],0x736c6f6f
  4039da:	cs dec esi
  4039dc:	gs je  0x403a56
  4039df:	outs   dx,DWORD PTR ds:[esi]
  4039e0:	jb     0x403a4d
  4039e2:	inc    ebp
  4039e3:	ins    DWORD PTR es:[edi],dx
  4039e4:	jne    0x403a52
  4039e6:	popa   
  4039e7:	je     0x403a52
  4039e9:	outs   dx,DWORD PTR ds:[esi]
  4039ea:	outs   dx,BYTE PTR ds:[esi]
  4039eb:	add    BYTE PTR [esi+0x65],cl
  4039ee:	je     0x403a67
  4039f0:	outs   dx,DWORD PTR ds:[esi]
  4039f1:	jb     0x403a5e
  4039f3:	inc    ebp
  4039f4:	ins    DWORD PTR es:[edi],dx
  4039f5:	jne    0x403a63
  4039f7:	popa   
  4039f8:	je     0x403a63
  4039fa:	outs   dx,DWORD PTR ds:[esi]
  4039fb:	outs   dx,BYTE PTR ds:[esi]
  4039fc:	dec    ecx
  4039fd:	outs   dx,BYTE PTR ds:[esi]
  4039fe:	jae    0x403a74
  403a00:	popa   
  403a01:	ins    BYTE PTR es:[edi],dx
  403a02:	ins    BYTE PTR es:[edi],dx
  403a03:	gs jb  0x403a06
  403a06:	dec    ecx
  403a07:	outs   dx,BYTE PTR ds:[esi]
  403a08:	je     0x403a6f
  403a0a:	jb     0x403a7a
  403a0c:	popa   
  403a0d:	ins    BYTE PTR es:[edi],dx
  403a0e:	inc    edx
  403a0f:	imul   ebp,DWORD PTR [esi+0x64],0x76697244
  403a16:	gs jb  0x403a19
  403a19:	dec    ecx
  403a1a:	outs   dx,BYTE PTR ds:[esi]
  403a1b:	je     0x403a82
  403a1d:	jb     0x403a8d
  403a1f:	popa   
  403a20:	ins    BYTE PTR es:[edi],dx
  403a21:	push   ebp
  403a22:	outs   dx,BYTE PTR ds:[esi]
  403a23:	imul   ebp,DWORD PTR [esi+0x73],0x6c6c6174
  403a2a:	inc    esp
  403a2b:	jb     0x403a96
  403a2d:	jbe    0x403a94
  403a2f:	jb     0x403a31
  403a31:	push   ebx
  403a32:	push   esp
  403a33:	inc    ecx
  403a34:	push   esp
  403a35:	push   0x64616572
  403a3a:	inc    ecx
  403a3b:	je     0x403ab1
  403a3d:	jb     0x403aa8
  403a3f:	bound  esi,QWORD PTR [ebp+0x74]
  403a42:	add    BYTE PTR gs:[ebx+0x6f],al
  403a46:	outs   dx,BYTE PTR ds:[esi]
  403a47:	jae    0x403ab8
  403a49:	ins    BYTE PTR es:[edi],dx
  403a4a:	add    BYTE PTR gs:[ebx+0x65],dh
  403a4e:	je     0x403aaf
  403a50:	inc    ebp
  403a51:	js     0x403abc
  403a53:	je     0x403a98
  403a55:	outs   dx,DWORD PTR ds:[esi]
  403a56:	fs add BYTE PTR gs:[edi+ebp*2+0x4c],dl
  403a5c:	outs   dx,DWORD PTR ds:[esi]
  403a5d:	ja     0x403ac4
  403a5f:	jb     0x403a61
  403a61:	outs   dx,DWORD PTR ds:[esi]
  403a62:	jo     0x403ac3
  403a64:	inc    ebp
  403a65:	jno    0x403adc
  403a67:	popa   
  403a68:	ins    BYTE PTR es:[edi],dx
  403a69:	imul   esi,DWORD PTR [ecx+edi*2+0x0],0x45746547
  403a71:	js     0x403ad8
  403a73:	arpl   WORD PTR [ebp+0x74],si
  403a76:	imul   ebp,DWORD PTR [esi+0x67],0x65737341
  403a7d:	ins    DWORD PTR es:[edi],dx
  403a7e:	bound  ebp,QWORD PTR [ecx+edi*2+0x0]
  403a82:	addr16 gs je 0x403ae5
  403a86:	dec    esp
  403a87:	outs   dx,DWORD PTR ds:[esi]
  403a88:	arpl   WORD PTR [ecx+0x74],sp
  403a8b:	imul   ebp,DWORD PTR [edi+0x6e],0x74654700
  403a92:	inc    esp
  403a93:	imul   esi,DWORD PTR [edx+0x65],0x726f7463
  403a9a:	jns    0x403aea
  403a9c:	popa   
  403a9d:	ins    DWORD PTR es:[edi],dx
  403a9e:	add    BYTE PTR gs:[ebp+0x69],cl
  403aa2:	arpl   WORD PTR [edx+0x6f],si
  403aa5:	jae    0x403b16
  403aa7:	data16 je 0x403ad8
  403aaa:	push   esi
  403aab:	imul   esi,DWORD PTR [ebx+0x75],0x74536c61
  403ab2:	jne    0x403b18
  403ab4:	imul   ebp,DWORD PTR [edi+0x2e],0x6c617551
  403abb:	imul   esi,DWORD PTR [ecx+edi*2+0x54],0x736c6f6f
  403ac3:	cs dec esi
  403ac5:	gs je  0x403b3f
  403ac8:	outs   dx,DWORD PTR ds:[esi]
  403ac9:	jb     0x403b36
  403acb:	inc    ebp
  403acc:	ins    DWORD PTR es:[edi],dx
  403acd:	jne    0x403b3b
  403acf:	popa   
  403ad0:	je     0x403b3b
  403ad2:	outs   dx,DWORD PTR ds:[esi]
  403ad3:	outs   dx,BYTE PTR ds:[esi]
  403ad4:	cs pop eax
  403ad6:	ss xor al,0x49
  403ad9:	outs   dx,BYTE PTR ds:[esi]
  403ada:	jae    0x403b50
  403adc:	popa   
  403add:	ins    BYTE PTR es:[edi],dx
  403ade:	ins    BYTE PTR es:[edi],dx
  403adf:	gs jb  0x403b10
  403ae2:	push   edx
  403ae3:	gs jae 0x403b55
  403ae6:	jne    0x403b5a
  403ae8:	arpl   WORD PTR [ebp+0x73],sp
  403aeb:	cs jb  0x403b53
  403aee:	jae    0x403b5f
  403af0:	jne    0x403b64
  403af2:	arpl   WORD PTR [ebp+0x73],sp
  403af5:	add    BYTE PTR [eax],al
  403af7:	add    BYTE PTR [eax],al
  403af9:	aaa    
  403afa:	push   edx
  403afb:	add    BYTE PTR [ebp+0x0],ah
  403afe:	add    BYTE PTR [bx+di+0x0],ch
  403b02:	jae    0x403b04
  403b04:	je     0x403b06
  403b06:	add    BYTE PTR gs:[edx+0x0],dh
  403b0a:	imul   eax,DWORD PTR [eax],0x67006e
  403b10:	and    BYTE PTR [eax],al
  403b12:	dec    esp
  403b13:	add    BYTE PTR [edi+0x0],ch
  403b16:	popa   
  403b17:	add    BYTE PTR [eax+eax*1+0x20],ah
  403b1b:	add    BYTE PTR [eax+eax*1+0x65],dl
  403b1f:	add    BYTE PTR [ebx+0x0],dh
  403b22:	je     0x403b24
  403b24:	and    BYTE PTR [eax],al
  403b26:	inc    ecx
  403b27:	add    BYTE PTR [eax+eax*1+0x64],ah
  403b2b:	add    BYTE PTR [ecx+0x0],ch
  403b2e:	outs   dx,BYTE PTR ds:[esi]
  403b2f:	add    BYTE PTR [eax],al
  403b31:	add    esp,DWORD PTR [edx]
  403b33:	add    BYTE PTR [eax],al
  403b35:	daa    
  403b36:	push   esi
  403b37:	add    BYTE PTR [ebx+0x0],dh
  403b3a:	dec    ecx
  403b3b:	add    BYTE PTR [esi+0x0],ch
  403b3e:	jae    0x403b40
  403b40:	je     0x403b42
  403b42:	popa   
  403b43:	add    BYTE PTR [eax+eax*1+0x6c],ch
  403b47:	add    BYTE PTR [eax+eax*1+0x6f],cl
  403b4b:	add    BYTE PTR [ebx+0x0],ah
  403b4e:	popa   
  403b4f:	add    BYTE PTR [eax+eax*1+0x69],dh
  403b53:	add    BYTE PTR [edi+0x0],ch
  403b56:	outs   dx,BYTE PTR ds:[esi]
  403b57:	add    BYTE PTR [edx],bh
  403b59:	add    BYTE PTR [eax],ah
  403b5b:	add    BYTE PTR [eax],al
  403b5d:	ja     0x403bac
  403b5f:	add    BYTE PTR [ecx+0x0],ch
  403b62:	arpl   WORD PTR [eax],ax
  403b64:	jb     0x403b66
  403b66:	outs   dx,DWORD PTR ds:[esi]
  403b67:	add    BYTE PTR [ebx+0x0],dh
  403b6a:	outs   dx,DWORD PTR ds:[esi]
  403b6b:	add    BYTE PTR [esi+0x0],ah
  403b6e:	je     0x403b70
  403b70:	add    BYTE PTR cs:[esi+0x0],dl
  403b74:	imul   eax,DWORD PTR [eax],0x750073
  403b7a:	popa   
  403b7b:	add    BYTE PTR [eax+eax*1+0x53],ch
  403b7f:	add    BYTE PTR [eax+eax*1+0x75],dh
  403b83:	add    BYTE PTR [eax+eax*1+0x69],ah
  403b87:	add    BYTE PTR [edi+0x0],ch
  403b8a:	add    BYTE PTR cs:[ecx+0x0],dl
  403b8e:	jne    0x403b90
  403b90:	popa   
  403b91:	add    BYTE PTR [eax+eax*1+0x69],ch
  403b95:	add    BYTE PTR [eax+eax*1+0x79],dh
  403b99:	add    BYTE PTR [eax+eax*1+0x6f],dl
  403b9d:	add    BYTE PTR [edi+0x0],ch
  403ba0:	ins    BYTE PTR es:[edi],dx
  403ba1:	add    BYTE PTR [ebx+0x0],dh
  403ba4:	add    BYTE PTR cs:[eax+eax*1+0x6f],cl
  403ba9:	add    BYTE PTR [ecx+0x0],ah
  403bac:	add    BYTE PTR fs:[eax+eax*1+0x65],dl
  403bb1:	add    BYTE PTR [ebx+0x0],dh
  403bb4:	je     0x403bb6
  403bb6:	inc    ebp
  403bb7:	add    BYTE PTR [eax+0x0],bh
  403bba:	arpl   WORD PTR [eax],ax
  403bbc:	add    BYTE PTR gs:[eax+eax*1+0x41],ch
  403bc1:	add    BYTE PTR [eax+eax*1+0x64],ah
  403bc5:	add    BYTE PTR [ecx+0x0],cl
  403bc8:	outs   dx,BYTE PTR ds:[esi]
  403bc9:	add    BYTE PTR [esi],ch
  403bcb:	add    BYTE PTR [esi+0x0],dh
  403bce:	jae    0x403bd0
  403bd0:	je     0x403bd2
  403bd2:	outs   dx,DWORD PTR ds:[esi]
  403bd3:	add    BYTE PTR [eax],al
  403bd5:	add    bh,0x53
  403bd8:	add    BYTE PTR [edi+0x0],ch
  403bdb:	data16 add BYTE PTR [eax+eax*1+0x77],dh
  403be0:	add    BYTE PTR [ecx+0x0],ah
  403be3:	jb     0x403be5
  403be5:	add    BYTE PTR gs:[eax+eax*1+0x4d],bl
  403bea:	add    BYTE PTR [ecx+0x0],ch
  403bed:	arpl   WORD PTR [eax],ax
  403bef:	jb     0x403bf1
  403bf1:	outs   dx,DWORD PTR ds:[esi]
  403bf2:	add    BYTE PTR [ebx+0x0],dh
  403bf5:	outs   dx,DWORD PTR ds:[esi]
  403bf6:	add    BYTE PTR [esi+0x0],ah
  403bf9:	je     0x403bfb
  403bfb:	pop    esp
  403bfc:	add    BYTE PTR [edi+0x0],cl
  403bff:	data16 add BYTE PTR [esi+0x0],ah
  403c03:	imul   eax,DWORD PTR [eax],0x650063
  403c09:	pop    esp
  403c0a:	add    BYTE PTR [ecx],dh
  403c0c:	add    BYTE PTR [eax+eax*1],dh
  403c0f:	add    BYTE PTR cs:[eax],dh
  403c12:	add    BYTE PTR [eax+eax*1+0x55],bl
  403c16:	add    BYTE PTR [ebx+0x0],dh
  403c19:	add    BYTE PTR gs:[edx+0x0],dh
  403c1d:	and    BYTE PTR [eax],al
  403c1f:	push   ebx
  403c20:	add    BYTE PTR [ebp+0x0],ah
  403c23:	je     0x403c25
  403c25:	je     0x403c27
  403c27:	imul   eax,DWORD PTR [eax],0x67006e
  403c2d:	jae    0x403c2f
  403c2f:	pop    esp
  403c30:	add    BYTE PTR [ebp+0x0],cl
  403c33:	imul   eax,DWORD PTR [eax],0x720063
  403c39:	outs   dx,DWORD PTR ds:[esi]
  403c3a:	add    BYTE PTR [ebx+0x0],dh
  403c3d:	outs   dx,DWORD PTR ds:[esi]
  403c3e:	add    BYTE PTR [esi+0x0],ah
  403c41:	je     0x403c43
  403c43:	add    BYTE PTR cs:[esi+0x0],dl
  403c47:	imul   eax,DWORD PTR [eax],0x750073
  403c4d:	popa   
  403c4e:	add    BYTE PTR [eax+eax*1+0x53],ch
  403c52:	add    BYTE PTR [eax+eax*1+0x75],dh
  403c56:	add    BYTE PTR [eax+eax*1+0x69],ah
  403c5a:	add    BYTE PTR [edi+0x0],ch
  403c5d:	add    BYTE PTR cs:[ecx+0x0],dl
  403c61:	jne    0x403c63
  403c63:	popa   
  403c64:	add    BYTE PTR [eax+eax*1+0x69],ch
  403c68:	add    BYTE PTR [eax+eax*1+0x79],dh
  403c6c:	add    BYTE PTR [eax+eax*1+0x6f],dl
  403c70:	add    BYTE PTR [edi+0x0],ch
  403c73:	ins    BYTE PTR es:[edi],dx
  403c74:	add    BYTE PTR [ebx+0x0],dh
  403c77:	add    BYTE PTR cs:[eax+eax*1+0x6f],cl
  403c7c:	add    BYTE PTR [ecx+0x0],ah
  403c7f:	add    BYTE PTR fs:[eax+eax*1+0x65],dl
  403c84:	add    BYTE PTR [ebx+0x0],dh
  403c87:	je     0x403c89
  403c89:	inc    ebp
  403c8a:	add    BYTE PTR [eax+0x0],bh
  403c8d:	arpl   WORD PTR [eax],ax
  403c8f:	add    BYTE PTR gs:[eax+eax*1+0x41],ch
  403c94:	add    BYTE PTR [eax+eax*1+0x64],ah
  403c98:	add    BYTE PTR [ecx+0x0],cl
  403c9b:	outs   dx,BYTE PTR ds:[esi]
  403c9c:	add    BYTE PTR [eax],al
  403c9e:	or     eax,0x650044
  403ca3:	ins    BYTE PTR es:[edi],dx
  403ca4:	add    BYTE PTR [ebp+0x0],ah
  403ca7:	je     0x403ca9
  403ca9:	add    BYTE PTR gs:[eax],al
  403cac:	or     cl,0x43
  403caf:	add    BYTE PTR [edx+0x0],dh
  403cb2:	add    BYTE PTR gs:[ecx+0x0],ah
  403cb6:	je     0x403cb8
  403cb8:	add    BYTE PTR gs:[eax+eax*1+0x53],bl
  403cbd:	add    BYTE PTR [edi+0x0],ch
  403cc0:	data16 add BYTE PTR [eax+eax*1+0x77],dh
  403cc5:	add    BYTE PTR [ecx+0x0],ah
  403cc8:	jb     0x403cca
  403cca:	add    BYTE PTR gs:[eax+eax*1+0x4d],bl
  403ccf:	add    BYTE PTR [ecx+0x0],ch
  403cd2:	arpl   WORD PTR [eax],ax
  403cd4:	jb     0x403cd6
  403cd6:	outs   dx,DWORD PTR ds:[esi]
  403cd7:	add    BYTE PTR [ebx+0x0],dh
  403cda:	outs   dx,DWORD PTR ds:[esi]
  403cdb:	add    BYTE PTR [esi+0x0],ah
  403cde:	je     0x403ce0
  403ce0:	pop    esp
  403ce1:	add    BYTE PTR [edi+0x0],cl
  403ce4:	data16 add BYTE PTR [esi+0x0],ah
  403ce8:	imul   eax,DWORD PTR [eax],0x650063
  403cee:	pop    esp
  403cef:	add    BYTE PTR [ebp+0x0],al
  403cf2:	js     0x403cf4
  403cf4:	arpl   WORD PTR [eax],ax
  403cf6:	add    BYTE PTR gs:[eax+eax*1+0x5c],ch
  403cfb:	add    BYTE PTR [ecx+0x0],al
  403cfe:	add    BYTE PTR fs:[eax+eax*1+0x69],ah
  403d03:	add    BYTE PTR [esi+0x0],ch
  403d06:	jae    0x403d08
  403d08:	pop    esp
  403d09:	add    BYTE PTR [ebp+0x0],cl
  403d0c:	imul   eax,DWORD PTR [eax],0x720063
  403d12:	outs   dx,DWORD PTR ds:[esi]
  403d13:	add    BYTE PTR [ebx+0x0],dh
  403d16:	outs   dx,DWORD PTR ds:[esi]
  403d17:	add    BYTE PTR [esi+0x0],ah
  403d1a:	je     0x403d1c
  403d1c:	add    BYTE PTR cs:[esi+0x0],dl
  403d20:	imul   eax,DWORD PTR [eax],0x750073
  403d26:	popa   
  403d27:	add    BYTE PTR [eax+eax*1+0x53],ch
  403d2b:	add    BYTE PTR [eax+eax*1+0x75],dh
  403d2f:	add    BYTE PTR [eax+eax*1+0x69],ah
  403d33:	add    BYTE PTR [edi+0x0],ch
  403d36:	add    BYTE PTR cs:[ecx+0x0],dl
  403d3a:	jne    0x403d3c
  403d3c:	popa   
  403d3d:	add    BYTE PTR [eax+eax*1+0x69],ch
  403d41:	add    BYTE PTR [eax+eax*1+0x79],dh
  403d45:	add    BYTE PTR [eax+eax*1+0x6f],dl
  403d49:	add    BYTE PTR [edi+0x0],ch
  403d4c:	ins    BYTE PTR es:[edi],dx
  403d4d:	add    BYTE PTR [ebx+0x0],dh
  403d50:	add    BYTE PTR cs:[eax+eax*1+0x6f],cl
  403d55:	add    BYTE PTR [ecx+0x0],ah
  403d58:	add    BYTE PTR fs:[eax+eax*1+0x65],dl
  403d5d:	add    BYTE PTR [ebx+0x0],dh
  403d60:	je     0x403d62
  403d62:	inc    ebp
  403d63:	add    BYTE PTR [eax+0x0],bh
  403d66:	arpl   WORD PTR [eax],ax
  403d68:	add    BYTE PTR gs:[eax+eax*1+0x41],ch
  403d6d:	add    BYTE PTR [eax+eax*1+0x64],ah
  403d71:	add    BYTE PTR [ecx+0x0],cl
  403d74:	outs   dx,BYTE PTR ds:[esi]
  403d75:	add    BYTE PTR [eax],al
  403d77:	pop    ss
  403d78:	inc    esp
  403d79:	add    BYTE PTR [ebp+0x0],ah
  403d7c:	jae    0x403d7e
  403d7e:	arpl   WORD PTR [eax],ax
  403d80:	jb     0x403d82
  403d82:	imul   eax,DWORD PTR [eax],0x740070
  403d88:	imul   eax,DWORD PTR [eax],0x6e006f
  403d8e:	add    BYTE PTR [ebp+0x4d],ch
  403d91:	add    BYTE PTR [ecx+0x0],ch
  403d94:	arpl   WORD PTR [eax],ax
  403d96:	jb     0x403d98
  403d98:	outs   dx,DWORD PTR ds:[esi]
  403d99:	add    BYTE PTR [ebx+0x0],dh
  403d9c:	outs   dx,DWORD PTR ds:[esi]
  403d9d:	add    BYTE PTR [esi+0x0],ah
  403da0:	je     0x403da2
  403da2:	add    BYTE PTR cs:[esi+0x0],dl
  403da6:	imul   eax,DWORD PTR [eax],0x750073
  403dac:	popa   
  403dad:	add    BYTE PTR [eax+eax*1+0x53],ch
  403db1:	add    BYTE PTR [eax+eax*1+0x75],dh
  403db5:	add    BYTE PTR [eax+eax*1+0x69],ah
  403db9:	add    BYTE PTR [edi+0x0],ch
  403dbc:	add    BYTE PTR cs:[ecx+0x0],dl
  403dc0:	jne    0x403dc2
  403dc2:	popa   
  403dc3:	add    BYTE PTR [eax+eax*1+0x69],ch
  403dc7:	add    BYTE PTR [eax+eax*1+0x79],dh
  403dcb:	add    BYTE PTR [eax+eax*1+0x6f],dl
  403dcf:	add    BYTE PTR [edi+0x0],ch
  403dd2:	ins    BYTE PTR es:[edi],dx
  403dd3:	add    BYTE PTR [ebx+0x0],dh
  403dd6:	add    BYTE PTR cs:[eax+eax*1+0x6f],cl
  403ddb:	add    BYTE PTR [ecx+0x0],ah
  403dde:	add    BYTE PTR fs:[eax+eax*1+0x65],dl
  403de3:	add    BYTE PTR [ebx+0x0],dh
  403de6:	je     0x403de8
  403de8:	inc    ebp
  403de9:	add    BYTE PTR [eax+0x0],bh
  403dec:	arpl   WORD PTR [eax],ax
  403dee:	add    BYTE PTR gs:[eax+eax*1+0x41],ch
  403df3:	add    BYTE PTR [eax+eax*1+0x64],ah
  403df7:	add    BYTE PTR [ecx+0x0],cl
  403dfa:	outs   dx,BYTE PTR ds:[esi]
  403dfb:	add    BYTE PTR [eax],al
  403dfd:	sbb    DWORD PTR [esi+0x0],eax
  403e00:	jb     0x403e02
  403e02:	imul   eax,DWORD PTR [eax],0x6e0065
  403e08:	add    BYTE PTR fs:[eax+eax*1+0x79],ch
  403e0d:	add    BYTE PTR [esi+0x0],cl
  403e10:	popa   
  403e11:	add    BYTE PTR [ebp+0x0],ch
  403e14:	add    BYTE PTR gs:[eax],al
  403e17:	sub    eax,0x6f004c
  403e1c:	popa   
  403e1d:	add    BYTE PTR [eax+eax*1+0x20],ah
  403e21:	add    BYTE PTR [eax+eax*1+0x65],dl
  403e25:	add    BYTE PTR [ebx+0x0],dh
  403e28:	je     0x403e2a
  403e2a:	and    BYTE PTR [eax],al
  403e2c:	push   edx
  403e2d:	add    BYTE PTR [ebp+0x0],ah
  403e30:	jo     0x403e32
  403e32:	outs   dx,DWORD PTR ds:[esi]
  403e33:	add    BYTE PTR [edx+0x0],dh
  403e36:	je     0x403e38
  403e38:	and    BYTE PTR [eax],al
  403e3a:	inc    ecx
  403e3b:	add    BYTE PTR [eax+eax*1+0x64],ah
  403e3f:	add    BYTE PTR [ecx+0x0],ch
  403e42:	outs   dx,BYTE PTR ds:[esi]
  403e43:	add    BYTE PTR [eax],al
  403e45:	sbb    DWORD PTR [eax+eax*1+0x6f],ecx
  403e49:	add    BYTE PTR [ecx+0x0],ah
  403e4c:	add    BYTE PTR fs:[edx+0x0],al
  403e50:	add    BYTE PTR gs:[eax+0x0],ch
  403e54:	popa   
  403e55:	add    BYTE PTR [esi+0x0],dh
  403e58:	imul   eax,DWORD PTR [eax],0x72006f
  403e5e:	add    BYTE PTR [ecx],dl
  403e60:	dec    ebp
  403e61:	add    BYTE PTR [ecx+0x0],ah
  403e64:	outs   dx,BYTE PTR ds:[esi]
  403e65:	add    BYTE PTR [ecx+0x0],ch
  403e68:	data16 add BYTE PTR [ebp+0x0],ah
  403e6c:	jae    0x403e6e
  403e6e:	je     0x403e70
  403e70:	add    BYTE PTR [ebx],bl
  403e72:	jnp    0x403e74
  403e74:	xor    BYTE PTR [eax],al
  403e76:	jge    0x403e78
  403e78:	jl     0x403e7a
  403e7a:	jbe    0x403e7c
  403e7c:	jae    0x403e7e
  403e7e:	je     0x403e80
  403e80:	outs   dx,DWORD PTR ds:[esi]
  403e81:	add    BYTE PTR [eax+eax*1+0x6f],ch
  403e85:	add    BYTE PTR [ebx+0x0],ah
  403e88:	popa   
  403e89:	add    BYTE PTR [eax+eax*1+0x0],ch
  403e8d:	or     esp,DWORD PTR [ebx+0x0]
  403e90:	outs   dx,DWORD PTR ds:[esi]
  403e91:	add    BYTE PTR [ebp+0x0],dh
  403e94:	outs   dx,BYTE PTR ds:[esi]
  403e95:	add    BYTE PTR [eax+eax*1+0x0],dh
  403e99:	aaa    
  403e9a:	dec    esp
  403e9b:	add    BYTE PTR [edi+0x0],ch
  403e9e:	popa   
  403e9f:	add    BYTE PTR [eax+eax*1+0x20],ah
  403ea3:	add    BYTE PTR [eax+eax*1+0x65],dl
  403ea7:	add    BYTE PTR [ebx+0x0],dh
  403eaa:	je     0x403eac
  403eac:	and    BYTE PTR [eax],al
  403eae:	inc    ecx
  403eaf:	add    BYTE PTR [eax+eax*1+0x64],ah
  403eb3:	add    BYTE PTR [ecx+0x0],ch
  403eb6:	outs   dx,BYTE PTR ds:[esi]
  403eb7:	add    BYTE PTR [eax],ah
  403eb9:	add    BYTE PTR [edx+0x0],dh
  403ebc:	add    BYTE PTR gs:[edi+0x0],ah
  403ec0:	jae    0x403ec2
  403ec2:	imul   eax,DWORD PTR [eax],0x740073
  403ec8:	add    BYTE PTR gs:[edx+0x0],dh
  403ecc:	add    BYTE PTR gs:[eax+eax*1+0x0],ah
  403ed1:	or     eax,0x720043
  403ed6:	add    BYTE PTR gs:[ecx+0x0],ah
  403eda:	je     0x403edc
  403edc:	add    BYTE PTR gs:[eax],al
  403edf:	or     cl,0x44
  403ee2:	add    BYTE PTR [ebp+0x0],ah
  403ee5:	ins    BYTE PTR es:[edi],dx
  403ee6:	add    BYTE PTR [ebp+0x0],ah
  403ee9:	je     0x403eeb
  403eeb:	add    BYTE PTR gs:[eax+eax*1+0x53],bl
  403ef0:	add    BYTE PTR [edi+0x0],ch
  403ef3:	data16 add BYTE PTR [eax+eax*1+0x77],dh
  403ef8:	add    BYTE PTR [ecx+0x0],ah
  403efb:	jb     0x403efd
  403efd:	add    BYTE PTR gs:[eax+eax*1+0x4d],bl
  403f02:	add    BYTE PTR [ecx+0x0],ch
  403f05:	arpl   WORD PTR [eax],ax
  403f07:	jb     0x403f09
  403f09:	outs   dx,DWORD PTR ds:[esi]
  403f0a:	add    BYTE PTR [ebx+0x0],dh
  403f0d:	outs   dx,DWORD PTR ds:[esi]
  403f0e:	add    BYTE PTR [esi+0x0],ah
  403f11:	je     0x403f13
  403f13:	pop    esp
  403f14:	add    BYTE PTR [edi+0x0],cl
  403f17:	data16 add BYTE PTR [esi+0x0],ah
  403f1b:	imul   eax,DWORD PTR [eax],0x650063
  403f21:	pop    esp
  403f22:	add    BYTE PTR [ebp+0x0],al
  403f25:	js     0x403f27
  403f27:	arpl   WORD PTR [eax],ax
  403f29:	add    BYTE PTR gs:[eax+eax*1+0x5c],ch
  403f2e:	add    BYTE PTR [ecx+0x0],al
  403f31:	add    BYTE PTR fs:[eax+eax*1+0x69],ah
  403f36:	add    BYTE PTR [esi+0x0],ch
  403f39:	jae    0x403f3b
  403f3b:	pop    esp
  403f3c:	add    BYTE PTR [ebp+0x0],cl
  403f3f:	imul   eax,DWORD PTR [eax],0x720063
  403f45:	outs   dx,DWORD PTR ds:[esi]
  403f46:	add    BYTE PTR [ebx+0x0],dh
  403f49:	outs   dx,DWORD PTR ds:[esi]
  403f4a:	add    BYTE PTR [esi+0x0],ah
  403f4d:	je     0x403f4f
  403f4f:	add    BYTE PTR cs:[esi+0x0],dl
  403f53:	imul   eax,DWORD PTR [eax],0x750073
  403f59:	popa   
  403f5a:	add    BYTE PTR [eax+eax*1+0x53],ch
  403f5e:	add    BYTE PTR [eax+eax*1+0x75],dh
  403f62:	add    BYTE PTR [eax+eax*1+0x69],ah
  403f66:	add    BYTE PTR [edi+0x0],ch
  403f69:	add    BYTE PTR cs:[ecx+0x0],dl
  403f6d:	jne    0x403f6f
  403f6f:	popa   
  403f70:	add    BYTE PTR [eax+eax*1+0x69],ch
  403f74:	add    BYTE PTR [eax+eax*1+0x79],dh
  403f78:	add    BYTE PTR [eax+eax*1+0x6f],dl
  403f7c:	add    BYTE PTR [edi+0x0],ch
  403f7f:	ins    BYTE PTR es:[edi],dx
  403f80:	add    BYTE PTR [ebx+0x0],dh
  403f83:	add    BYTE PTR cs:[eax+eax*1+0x6f],cl
  403f88:	add    BYTE PTR [ecx+0x0],ah
  403f8b:	add    BYTE PTR fs:[eax+eax*1+0x65],dl
  403f90:	add    BYTE PTR [ebx+0x0],dh
  403f93:	je     0x403f95
  403f95:	inc    ebp
  403f96:	add    BYTE PTR [eax+0x0],bh
  403f99:	arpl   WORD PTR [eax],ax
  403f9b:	add    BYTE PTR gs:[eax+eax*1+0x41],ch
  403fa0:	add    BYTE PTR [eax+eax*1+0x64],ah
  403fa4:	add    BYTE PTR [ecx+0x0],cl
  403fa7:	outs   dx,BYTE PTR ds:[esi]
  403fa8:	add    BYTE PTR [eax],al
  403faa:	cmp    DWORD PTR [eax+eax*1+0x6f],ecx
  403fae:	add    BYTE PTR [ecx+0x0],ah
  403fb1:	add    BYTE PTR fs:[eax],ah
  403fb4:	add    BYTE PTR [eax+eax*1+0x65],dl
  403fb8:	add    BYTE PTR [ebx+0x0],dh
  403fbb:	je     0x403fbd
  403fbd:	and    BYTE PTR [eax],al
  403fbf:	inc    ecx
  403fc0:	add    BYTE PTR [eax+eax*1+0x64],ah
  403fc4:	add    BYTE PTR [ecx+0x0],ch
  403fc7:	outs   dx,BYTE PTR ds:[esi]
  403fc8:	add    BYTE PTR [eax],ah
  403fca:	add    BYTE PTR [ebp+0x0],dl
  403fcd:	outs   dx,BYTE PTR ds:[esi]
  403fce:	add    BYTE PTR [edx+0x0],dh
  403fd1:	add    BYTE PTR gs:[edi+0x0],ah
  403fd5:	imul   eax,DWORD PTR [eax],0x740073
  403fdb:	add    BYTE PTR gs:[edx+0x0],dh
  403fdf:	add    BYTE PTR gs:[eax+eax*1+0x0],ah
  403fe4:	add    ecx,DWORD PTR [ecx+0x0]
  403fe7:	add    BYTE PTR [ebx],al
  403fe9:	inc    ebp
  403fea:	add    BYTE PTR [eax],al
  403fec:	or     DWORD PTR [esi],ebp
  403fee:	add    BYTE PTR [eax+eax*1+0x6f],ch
  403ff2:	add    BYTE PTR [edi+0x0],ah
  403ff5:	add    BYTE PTR [ecx],al
  403ff7:	add    BYTE PTR [eax+0x6f00438d],al
  403ffd:	add    BYTE PTR [esi+0x0],ch
  404000:	data16 add BYTE PTR [ecx+0x0],ch
  404004:	add    BYTE PTR [di+0x0],dh
  404008:	jb     0x40400a
  40400a:	popa   
  40400b:	add    BYTE PTR [eax+eax*1+0x69],dh
  40400f:	add    BYTE PTR [edi+0x0],ch
  404012:	outs   dx,BYTE PTR ds:[esi]
  404013:	add    BYTE PTR [eax],ah
  404015:	add    BYTE PTR [ebx+0x0],dh
  404018:	je     0x40401a
  40401a:	popa   
  40401b:	add    BYTE PTR [edx+0x0],dh
  40401e:	je     0x404020
  404020:	add    BYTE PTR gs:[eax+eax*1+0x20],ah
  404025:	add    BYTE PTR [edi+0x0],ch
  404028:	outs   dx,BYTE PTR ds:[esi]
  404029:	add    BYTE PTR [eax],ah
  40402b:	add    BYTE PTR [ebx+0x0],bh
  40402e:	xor    BYTE PTR [eax],al
  404030:	cmp    al,BYTE PTR [eax]
  404032:	jns    0x404034
  404034:	jns    0x404036
  404036:	jns    0x404038
  404038:	jns    0x40403a
  40403a:	jge    0x40403c
  40403c:	das    
  40403d:	add    BYTE PTR [ebx+0x0],bh
  404040:	xor    BYTE PTR [eax],al
  404042:	cmp    al,BYTE PTR [eax]
  404044:	dec    ebp
  404045:	add    BYTE PTR [ebp+0x0],cl
  404048:	jge    0x40404a
  40404a:	das    
  40404b:	add    BYTE PTR [ebx+0x0],bh
  40404e:	xor    BYTE PTR [eax],al
  404050:	cmp    al,BYTE PTR [eax]
  404052:	add    BYTE PTR fs:[eax+eax*1+0x7d],ah
  404057:	add    BYTE PTR [eax+eax*1],ch
  40405a:	and    BYTE PTR [eax],al
  40405c:	jnp    0x40405e
  40405e:	xor    BYTE PTR [eax],al
  404060:	cmp    al,BYTE PTR [eax]
  404062:	dec    eax
  404063:	add    BYTE PTR [eax+0x0],cl
  404066:	jge    0x404068
  404068:	cmp    al,BYTE PTR [eax]
  40406a:	jnp    0x40406c
  40406c:	xor    BYTE PTR [eax],al
  40406e:	cmp    al,BYTE PTR [eax]
  404070:	ins    DWORD PTR es:[edi],dx
  404071:	add    BYTE PTR [ebp+0x0],ch
  404074:	jge    0x404076
  404076:	cmp    al,BYTE PTR [eax]
  404078:	jnp    0x40407a
  40407a:	xor    BYTE PTR [eax],al
  40407c:	cmp    al,BYTE PTR [eax]
  40407e:	jae    0x404080
  404080:	jae    0x404082
  404082:	jge    0x404084
  404084:	add    BYTE PTR cs:[eax],al
  404087:	and    DWORD PTR [edi+0x0],ecx
  40408a:	push   ebx
  40408b:	add    BYTE PTR [eax],ah
  40408d:	add    BYTE PTR [esi+0x0],dl
  404090:	add    BYTE PTR gs:[edx+0x0],dh
  404094:	jae    0x404096
  404096:	imul   eax,DWORD PTR [eax],0x6e006f
  40409c:	and    BYTE PTR [eax],al
  40409e:	cmp    al,BYTE PTR [eax]
  4040a0:	and    BYTE PTR [eax],al
  4040a2:	jnp    0x4040a4
  4040a4:	xor    BYTE PTR [eax],al
  4040a6:	jge    0x4040a8
  4040a8:	add    BYTE PTR [ebp+0x7b],bh
  4040ab:	add    BYTE PTR [eax],dh
  4040ad:	add    BYTE PTR [ebp+0x0],bh
  4040b0:	sub    al,0x0
  4040b2:	and    BYTE PTR [eax],al
  4040b4:	jnp    0x4040b6
  4040b6:	xor    DWORD PTR [eax],eax
  4040b8:	cmp    al,BYTE PTR [eax]
  4040ba:	jns    0x4040bc
  4040bc:	jns    0x4040be
  4040be:	jns    0x4040c0
  4040c0:	jns    0x4040c2
  4040c2:	jge    0x4040c4
  4040c4:	das    
  4040c5:	add    BYTE PTR [ebx+0x0],bh
  4040c8:	xor    DWORD PTR [eax],eax
  4040ca:	cmp    al,BYTE PTR [eax]
  4040cc:	dec    ebp
  4040cd:	add    BYTE PTR [ebp+0x0],cl
  4040d0:	jge    0x4040d2
  4040d2:	das    
  4040d3:	add    BYTE PTR [ebx+0x0],bh
  4040d6:	xor    DWORD PTR [eax],eax
  4040d8:	cmp    al,BYTE PTR [eax]
  4040da:	add    BYTE PTR fs:[eax+eax*1+0x7d],ah
  4040df:	add    BYTE PTR [eax+eax*1],ch
  4040e2:	and    BYTE PTR [eax],al
  4040e4:	jnp    0x4040e6
  4040e6:	xor    DWORD PTR [eax],eax
  4040e8:	cmp    al,BYTE PTR [eax]
  4040ea:	dec    eax
  4040eb:	add    BYTE PTR [eax+0x0],cl
  4040ee:	jge    0x4040f0
  4040f0:	cmp    al,BYTE PTR [eax]
  4040f2:	jnp    0x4040f4
  4040f4:	xor    DWORD PTR [eax],eax
  4040f6:	cmp    al,BYTE PTR [eax]
  4040f8:	ins    DWORD PTR es:[edi],dx
  4040f9:	add    BYTE PTR [ebp+0x0],ch
  4040fc:	jge    0x4040fe
  4040fe:	cmp    al,BYTE PTR [eax]
  404100:	jnp    0x404102
  404102:	xor    DWORD PTR [eax],eax
  404104:	cmp    al,BYTE PTR [eax]
  404106:	jae    0x404108
  404108:	jae    0x40410a
  40410a:	jge    0x40410c
  40410c:	add    BYTE PTR cs:[ebx+0x0],bh
  404110:	xor    DWORD PTR [eax],eax
  404112:	cmp    al,BYTE PTR [eax]
  404114:	data16 add BYTE PTR [esi+0x0],ah
  404118:	data16 add BYTE PTR [ebp+0x0],bh
  40411c:	sub    al,0x0
  40411e:	and    BYTE PTR [eax],al
  404120:	jnp    0x404122
  404122:	xor    al,BYTE PTR [eax]
  404124:	jge    0x404126
  404126:	add    BYTE PTR [ebx],bl
  404128:	inc    ebp
  404129:	add    BYTE PTR [ecx+0x0],dh
  40412c:	je     0x40412e
  40412e:	push   esp
  40412f:	add    BYTE PTR [edx+0x0],dh
  404132:	popa   
  404133:	add    BYTE PTR [ebx+0x0],ah
  404136:	add    BYTE PTR gs:[eax+eax*1+0x65],cl
  40413b:	add    BYTE PTR [esi+0x0],dh
  40413e:	add    BYTE PTR gs:[eax+eax*1+0x0],ch
  404143:	orps   xmm0,XMMWORD PTR [eax]
  404146:	add    BYTE PTR gs:[edx+0x0],dh
  40414a:	bound  eax,QWORD PTR [eax]
  40414c:	outs   dx,DWORD PTR ds:[esi]
  40414d:	add    BYTE PTR [ebx+0x0],dh
  404150:	add    BYTE PTR gs:[eax],al
  404153:	adc    BYTE PTR [edi+0x69004d],0x63
  40415a:	add    BYTE PTR [edx+0x0],dh
  40415d:	outs   dx,DWORD PTR ds:[esi]
  40415e:	add    BYTE PTR [ebx+0x0],dh
  404161:	outs   dx,DWORD PTR ds:[esi]
  404162:	add    BYTE PTR [esi+0x0],ah
  404165:	je     0x404167
  404167:	add    BYTE PTR cs:[esi+0x0],dl
  40416b:	imul   eax,DWORD PTR [eax],0x750073
  404171:	popa   
  404172:	add    BYTE PTR [eax+eax*1+0x53],ch
  404176:	add    BYTE PTR [eax+eax*1+0x75],dh
  40417a:	add    BYTE PTR [eax+eax*1+0x69],ah
  40417e:	add    BYTE PTR [edi+0x0],ch
  404181:	add    BYTE PTR cs:[ecx+0x0],dl
  404185:	jne    0x404187
  404187:	popa   
  404188:	add    BYTE PTR [eax+eax*1+0x69],ch
  40418c:	add    BYTE PTR [eax+eax*1+0x79],dh
  404190:	add    BYTE PTR [eax+eax*1+0x6f],dl
  404194:	add    BYTE PTR [edi+0x0],ch
  404197:	ins    BYTE PTR es:[edi],dx
  404198:	add    BYTE PTR [ebx+0x0],dh
  40419b:	add    BYTE PTR cs:[esi+0x0],cl
  40419f:	add    BYTE PTR gs:[eax+eax*1+0x77],dh
  4041a4:	add    BYTE PTR [edi+0x0],ch
  4041a7:	jb     0x4041a9
  4041a9:	imul   eax,DWORD PTR [eax],0x45
  4041ac:	add    BYTE PTR [ebp+0x0],ch
  4041af:	jne    0x4041b1
  4041b1:	ins    BYTE PTR es:[edi],dx
  4041b2:	add    BYTE PTR [ecx+0x0],ah
  4041b5:	je     0x4041b7
  4041b7:	imul   eax,DWORD PTR [eax],0x6e006f
  4041bd:	add    BYTE PTR cs:[eax+0x0],bl
  4041c1:	add    BYTE PTR ss:[eax+eax*1],dh
  4041c5:	dec    ecx
  4041c6:	add    BYTE PTR [esi+0x0],ch
  4041c9:	jae    0x4041cb
  4041cb:	je     0x4041cd
  4041cd:	popa   
  4041ce:	add    BYTE PTR [eax+eax*1+0x6c],ch
  4041d2:	add    BYTE PTR [ebp+0x0],ah
  4041d5:	jb     0x4041d7
  4041d7:	add    BYTE PTR cs:[edx+0x0],dl
  4041db:	add    BYTE PTR gs:[ebx+0x0],dh
  4041df:	outs   dx,DWORD PTR ds:[esi]
  4041e0:	add    BYTE PTR [ebp+0x0],dh
  4041e3:	jb     0x4041e5
  4041e5:	arpl   WORD PTR [eax],ax
  4041e7:	add    BYTE PTR gs:[ebx+0x0],dh
  4041eb:	add    BYTE PTR [ecx],dl
  4041ed:	dec    eax
  4041ee:	add    BYTE PTR [ebp+0x0],ah
  4041f1:	ins    BYTE PTR es:[edi],dx
  4041f2:	add    BYTE PTR [eax+0x0],dh
  4041f5:	dec    eax
  4041f6:	add    BYTE PTR [ebp+0x0],ah
  4041f9:	ins    BYTE PTR es:[edi],dx
  4041fa:	add    BYTE PTR [eax+0x0],dh
  4041fd:	add    BYTE PTR [edi],cl
  4041ff:	imul   eax,DWORD PTR [eax],0x73006e
  404205:	je     0x404207
  404207:	popa   
  404208:	add    BYTE PTR [eax+eax*1+0x6c],ch
  40420c:	add    BYTE PTR [eax],al
  40420e:	adc    esi,DWORD PTR [ebp+0x0]
  404211:	outs   dx,BYTE PTR ds:[esi]
  404212:	add    BYTE PTR [ecx+0x0],ch
  404215:	outs   dx,BYTE PTR ds:[esi]
  404216:	add    BYTE PTR [ebx+0x0],dh
  404219:	je     0x40421b
  40421b:	popa   
  40421c:	add    BYTE PTR [eax+eax*1+0x6c],ch
  404220:	add    BYTE PTR [eax],al
  404222:	sub    DWORD PTR [ecx+0x0],ebp
  404225:	outs   dx,BYTE PTR ds:[esi]
  404226:	add    BYTE PTR [ebx+0x0],dh
  404229:	je     0x40422b
  40422b:	popa   
  40422c:	add    BYTE PTR [eax+eax*1+0x6c],ch
  404230:	add    BYTE PTR [eax+eax*1+0x6f],ch
  404234:	add    BYTE PTR [ecx+0x0],ah
  404237:	add    BYTE PTR fs:[eax+eax*1+0x65],dh
  40423c:	add    BYTE PTR [ebx+0x0],dh
  40423f:	je     0x404241
  404241:	popa   
  404242:	add    BYTE PTR [eax+eax*1+0x64],ah
  404246:	add    BYTE PTR [ecx+0x0],ch
  404249:	outs   dx,BYTE PTR ds:[esi]
  40424a:	add    BYTE PTR [eax],al
  40424c:	sub    eax,0x6e0075
  404251:	imul   eax,DWORD PTR [eax],0x73006e
  404257:	je     0x404259
  404259:	popa   
  40425a:	add    BYTE PTR [eax+eax*1+0x6c],ch
  40425e:	add    BYTE PTR [eax+eax*1+0x6f],ch
  404262:	add    BYTE PTR [ecx+0x0],ah
  404265:	add    BYTE PTR fs:[eax+eax*1+0x65],dh
  40426a:	add    BYTE PTR [ebx+0x0],dh
  40426d:	je     0x40426f
  40426f:	popa   
  404270:	add    BYTE PTR [eax+eax*1+0x64],ah
  404274:	add    BYTE PTR [ecx+0x0],ch
  404277:	outs   dx,BYTE PTR ds:[esi]
  404278:	add    BYTE PTR [eax],al
  40427a:	add    BYTE PTR [eax],al
  40427c:	retf   
  40427d:	pop    ecx
  40427e:	push   ss
  40427f:	bound  esp,QWORD PTR [ebx-0x7cb84ff1]
  404285:	pop    edi
  404286:	sbb    al,0x78
  404288:	fcomp  DWORD PTR [eax+edi*8-0x48f7ff79]
  40428f:	jp     0x4042ed
  404291:	push   esi
  404292:	sbb    DWORD PTR [eax+eiz*8],esi
  404295:	mov    DWORD PTR [edx],eax
  404297:	push   es
  404298:	push   cs
  404299:	add    dh,0x53
  40429c:	add    BYTE PTR [edi+0x0],ch
  40429f:	data16 add BYTE PTR [eax+eax*1+0x77],dh
  4042a4:	add    BYTE PTR [ecx+0x0],ah
  4042a7:	jb     0x4042a9
  4042a9:	add    BYTE PTR gs:[eax+eax*1+0x4d],bl
  4042ae:	add    BYTE PTR [ecx+0x0],ch
  4042b1:	arpl   WORD PTR [eax],ax
  4042b3:	jb     0x4042b5
  4042b5:	outs   dx,DWORD PTR ds:[esi]
  4042b6:	add    BYTE PTR [ebx+0x0],dh
  4042b9:	outs   dx,DWORD PTR ds:[esi]
  4042ba:	add    BYTE PTR [esi+0x0],ah
  4042bd:	je     0x4042bf
  4042bf:	pop    esp
  4042c0:	add    BYTE PTR [edi+0x0],cl
  4042c3:	data16 add BYTE PTR [esi+0x0],ah
  4042c7:	imul   eax,DWORD PTR [eax],0x650063
  4042cd:	pop    esp
  4042ce:	add    BYTE PTR [ecx],dh
  4042d0:	add    BYTE PTR [eax+eax*1],dh
  4042d3:	add    BYTE PTR cs:[eax],dh
  4042d6:	add    BYTE PTR [eax+eax*1+0x55],bl
  4042da:	add    BYTE PTR [ebx+0x0],dh
  4042dd:	add    BYTE PTR gs:[edx+0x0],dh
  4042e1:	and    BYTE PTR [eax],al
  4042e3:	push   ebx
  4042e4:	add    BYTE PTR [ebp+0x0],ah
  4042e7:	je     0x4042e9
  4042e9:	je     0x4042eb
  4042eb:	imul   eax,DWORD PTR [eax],0x67006e
  4042f1:	jae    0x4042f3
  4042f3:	pop    esp
  4042f4:	add    BYTE PTR [ebp+0x0],cl
  4042f7:	imul   eax,DWORD PTR [eax],0x720063
  4042fd:	outs   dx,DWORD PTR ds:[esi]
  4042fe:	add    BYTE PTR [ebx+0x0],dh
  404301:	outs   dx,DWORD PTR ds:[esi]
  404302:	add    BYTE PTR [esi+0x0],ah
  404305:	je     0x404307
  404307:	add    BYTE PTR cs:[esi+0x0],dl
  40430b:	imul   eax,DWORD PTR [eax],0x750073
  404311:	popa   
  404312:	add    BYTE PTR [eax+eax*1+0x53],ch
  404316:	add    BYTE PTR [eax+eax*1+0x75],dh
  40431a:	add    BYTE PTR [eax+eax*1+0x69],ah
  40431e:	add    BYTE PTR [edi+0x0],ch
  404321:	add    BYTE PTR cs:[ecx+0x0],dl
  404325:	jne    0x404327
  404327:	popa   
  404328:	add    BYTE PTR [eax+eax*1+0x69],ch
  40432c:	add    BYTE PTR [eax+eax*1+0x79],dh
  404330:	add    BYTE PTR [eax+eax*1+0x6f],dl
  404334:	add    BYTE PTR [edi+0x0],ch
  404337:	ins    BYTE PTR es:[edi],dx
  404338:	add    BYTE PTR [ebx+0x0],dh
  40433b:	add    BYTE PTR cs:[eax+eax*1+0x6f],cl
  404340:	add    BYTE PTR [ecx+0x0],ah
  404343:	add    BYTE PTR fs:[eax+eax*1+0x65],dl
  404348:	add    BYTE PTR [ebx+0x0],dh
  40434b:	je     0x40434d
  40434d:	inc    ebp
  40434e:	add    BYTE PTR [eax+0x0],bh
  404351:	arpl   WORD PTR [eax],ax
  404353:	add    BYTE PTR gs:[eax+eax*1+0x41],ch
  404358:	add    BYTE PTR [eax+eax*1+0x64],ah
  40435c:	add    BYTE PTR [ecx+0x0],cl
  40435f:	outs   dx,BYTE PTR ds:[esi]
  404360:	add    BYTE PTR [eax+0x720043c8],al
  404366:	add    BYTE PTR [ebp+0x0],ah
  404369:	popa   
  40436a:	add    BYTE PTR [eax+eax*1+0x65],dh
  40436e:	add    BYTE PTR [eax+eax*1+0x53],bl
  404372:	add    BYTE PTR [edi+0x0],ch
  404375:	data16 add BYTE PTR [eax+eax*1+0x77],dh
  40437a:	add    BYTE PTR [ecx+0x0],ah
  40437d:	jb     0x40437f
  40437f:	add    BYTE PTR gs:[eax+eax*1+0x4d],bl
  404384:	add    BYTE PTR [ecx+0x0],ch
  404387:	arpl   WORD PTR [eax],ax
  404389:	jb     0x40438b
  40438b:	outs   dx,DWORD PTR ds:[esi]
  40438c:	add    BYTE PTR [ebx+0x0],dh
  40438f:	outs   dx,DWORD PTR ds:[esi]
  404390:	add    BYTE PTR [esi+0x0],ah
  404393:	je     0x404395
  404395:	pop    esp
  404396:	add    BYTE PTR [edi+0x0],cl
  404399:	data16 add BYTE PTR [esi+0x0],ah
  40439d:	imul   eax,DWORD PTR [eax],0x650063
  4043a3:	pop    esp
  4043a4:	add    BYTE PTR [ebp+0x0],al
  4043a7:	js     0x4043a9
  4043a9:	arpl   WORD PTR [eax],ax
  4043ab:	add    BYTE PTR gs:[eax+eax*1+0x5c],ch
  4043b0:	add    BYTE PTR [ecx+0x0],al
  4043b3:	add    BYTE PTR fs:[eax+eax*1+0x69],ah
  4043b8:	add    BYTE PTR [esi+0x0],ch
  4043bb:	jae    0x4043bd
  4043bd:	pop    esp
  4043be:	add    BYTE PTR [ebp+0x0],cl
  4043c1:	imul   eax,DWORD PTR [eax],0x720063
  4043c7:	outs   dx,DWORD PTR ds:[esi]
  4043c8:	add    BYTE PTR [ebx+0x0],dh
  4043cb:	outs   dx,DWORD PTR ds:[esi]
  4043cc:	add    BYTE PTR [esi+0x0],ah
  4043cf:	je     0x4043d1
  4043d1:	add    BYTE PTR cs:[esi+0x0],dl
  4043d5:	imul   eax,DWORD PTR [eax],0x750073
  4043db:	popa   
  4043dc:	add    BYTE PTR [eax+eax*1+0x53],ch
  4043e0:	add    BYTE PTR [eax+eax*1+0x75],dh
  4043e4:	add    BYTE PTR [eax+eax*1+0x69],ah
  4043e8:	add    BYTE PTR [edi+0x0],ch
  4043eb:	add    BYTE PTR cs:[ecx+0x0],dl
  4043ef:	jne    0x4043f1
  4043f1:	popa   
  4043f2:	add    BYTE PTR [eax+eax*1+0x69],ch
  4043f6:	add    BYTE PTR [eax+eax*1+0x79],dh
  4043fa:	add    BYTE PTR [eax+eax*1+0x6f],dl
  4043fe:	add    BYTE PTR [edi+0x0],ch
  404401:	ins    BYTE PTR es:[edi],dx
  404402:	add    BYTE PTR [ebx+0x0],dh
  404405:	add    BYTE PTR cs:[eax+eax*1+0x6f],cl
  40440a:	add    BYTE PTR [ecx+0x0],ah
  40440d:	add    BYTE PTR fs:[eax+eax*1+0x65],dl
  404412:	add    BYTE PTR [ebx+0x0],dh
  404415:	je     0x404417
  404417:	inc    ebp
  404418:	add    BYTE PTR [eax+0x0],bh
  40441b:	arpl   WORD PTR [eax],ax
  40441d:	add    BYTE PTR gs:[eax+eax*1+0x41],ch
  404422:	add    BYTE PTR [eax+eax*1+0x64],ah
  404426:	add    BYTE PTR [ecx+0x0],cl
  404429:	outs   dx,BYTE PTR ds:[esi]
  40442a:	add    BYTE PTR [eax+0x650044c8],al
  404430:	add    BYTE PTR [eax+eax*1+0x65],ch
  404434:	add    BYTE PTR [eax+eax*1+0x65],dh
  404438:	add    BYTE PTR [eax+eax*1+0x53],bl
  40443c:	add    BYTE PTR [edi+0x0],ch
  40443f:	data16 add BYTE PTR [eax+eax*1+0x77],dh
  404444:	add    BYTE PTR [ecx+0x0],ah
  404447:	jb     0x404449
  404449:	add    BYTE PTR gs:[eax+eax*1+0x4d],bl
  40444e:	add    BYTE PTR [ecx+0x0],ch
  404451:	arpl   WORD PTR [eax],ax
  404453:	jb     0x404455
  404455:	outs   dx,DWORD PTR ds:[esi]
  404456:	add    BYTE PTR [ebx+0x0],dh
  404459:	outs   dx,DWORD PTR ds:[esi]
  40445a:	add    BYTE PTR [esi+0x0],ah
  40445d:	je     0x40445f
  40445f:	pop    esp
  404460:	add    BYTE PTR [edi+0x0],cl
  404463:	data16 add BYTE PTR [esi+0x0],ah
  404467:	imul   eax,DWORD PTR [eax],0x650063
  40446d:	pop    esp
  40446e:	add    BYTE PTR [ebp+0x0],al
  404471:	js     0x404473
  404473:	arpl   WORD PTR [eax],ax
  404475:	add    BYTE PTR gs:[eax+eax*1+0x5c],ch
  40447a:	add    BYTE PTR [ecx+0x0],al
  40447d:	add    BYTE PTR fs:[eax+eax*1+0x69],ah
  404482:	add    BYTE PTR [esi+0x0],ch
  404485:	jae    0x404487
  404487:	pop    esp
  404488:	add    BYTE PTR [ebp+0x0],cl
  40448b:	imul   eax,DWORD PTR [eax],0x720063
  404491:	outs   dx,DWORD PTR ds:[esi]
  404492:	add    BYTE PTR [ebx+0x0],dh
  404495:	outs   dx,DWORD PTR ds:[esi]
  404496:	add    BYTE PTR [esi+0x0],ah
  404499:	je     0x40449b
  40449b:	add    BYTE PTR cs:[esi+0x0],dl
  40449f:	imul   eax,DWORD PTR [eax],0x750073
  4044a5:	popa   
  4044a6:	add    BYTE PTR [eax+eax*1+0x53],ch
  4044aa:	add    BYTE PTR [eax+eax*1+0x75],dh
  4044ae:	add    BYTE PTR [eax+eax*1+0x69],ah
  4044b2:	add    BYTE PTR [edi+0x0],ch
  4044b5:	add    BYTE PTR cs:[ecx+0x0],dl
  4044b9:	jne    0x4044bb
  4044bb:	popa   
  4044bc:	add    BYTE PTR [eax+eax*1+0x69],ch
  4044c0:	add    BYTE PTR [eax+eax*1+0x79],dh
  4044c4:	add    BYTE PTR [eax+eax*1+0x6f],dl
  4044c8:	add    BYTE PTR [edi+0x0],ch
  4044cb:	ins    BYTE PTR es:[edi],dx
  4044cc:	add    BYTE PTR [ebx+0x0],dh
  4044cf:	add    BYTE PTR cs:[eax+eax*1+0x6f],cl
  4044d4:	add    BYTE PTR [ecx+0x0],ah
  4044d7:	add    BYTE PTR fs:[eax+eax*1+0x65],dl
  4044dc:	add    BYTE PTR [ebx+0x0],dh
  4044df:	je     0x4044e1
  4044e1:	inc    ebp
  4044e2:	add    BYTE PTR [eax+0x0],bh
  4044e5:	arpl   WORD PTR [eax],ax
  4044e7:	add    BYTE PTR gs:[eax+eax*1+0x41],ch
  4044ec:	add    BYTE PTR [eax+eax*1+0x64],ah
  4044f0:	add    BYTE PTR [ecx+0x0],cl
  4044f3:	outs   dx,BYTE PTR ds:[esi]
  4044f4:	add    BYTE PTR [esp+eax*2],cl
  4044f7:	add    BYTE PTR [ebp+0x0],ah
  4044fa:	ins    BYTE PTR es:[edi],dx
  4044fb:	add    BYTE PTR [ebp+0x0],ah
  4044fe:	je     0x404500
  404500:	add    BYTE PTR gs:[ebx+eax*2],cl
  404504:	add    BYTE PTR [edx+0x0],dh
  404507:	add    BYTE PTR gs:[ecx+0x0],ah
  40450b:	je     0x40450d
  40450d:	add    BYTE PTR gs:[edx],al
  404510:	push   es
  404511:	or     cl,BYTE PTR [eax]
	...
  40451b:	or     BYTE PTR [edx],al
  40451d:	add    BYTE PTR [eax],al
  40451f:	cmp    bh,0xff
  404522:	(bad)  
  404523:	dec    DWORD PTR [eax]
  404525:	add    eax,0xff800000
  40452a:	(bad)  
  40452b:	(bad)  
  40452c:	inc    DWORD PTR [eax+eax*1]
  40452f:	add    DWORD PTR [edx],ecx
  404531:	push   cs
  404532:	add    eax,DWORD PTR [eax]
  404534:	add    BYTE PTR [edx],cl
  404536:	add    esp,DWORD PTR [eax]
  404538:	add    BYTE PTR [ecx],al
  40453a:	push   es
  40453b:	add    BYTE PTR [edx],al
  40453d:	add    DWORD PTR [esi],ecx
  40453f:	sbb    eax,0x100051c
  404544:	add    DWORD PTR [edx],edx
  404546:	or     DWORD PTR [ebx],eax
  404548:	add    BYTE PTR [eax],al
  40454a:	push   cs
  40454b:	add    eax,0xe010200
  404550:	push   cs
  404551:	add    eax,DWORD PTR [eax]
  404553:	add    BYTE PTR [ecx],al
  404555:	add    eax,DWORD PTR [esi]
  404557:	adc    cl,BYTE PTR ds:0x3020602
  40455d:	or     BYTE PTR [eax],al
  40455f:	push   cs
  404560:	add    eax,DWORD PTR [esi]
  404562:	adc    dl,BYTE PTR [ecx]
  404564:	add    eax,DWORD PTR [esi]
  404566:	adc    dl,BYTE PTR ds:0x12000004
  40456c:	adc    DWORD PTR [eax+eax*1],eax
  40456f:	add    BYTE PTR [edx],dl
  404571:	adc    eax,0x1010005
  404576:	adc    dl,BYTE PTR ds:0x12000804
  40457c:	adc    DWORD PTR [eax+ecx*1],eax
  40457f:	add    BYTE PTR [edx],dl
  404581:	adc    eax,0x1010005
  404586:	sbb    eax,0x1040e
  40458b:	add    BYTE PTR [eax],al
  40458d:	add    al,0x20
  40458f:	add    DWORD PTR [ecx],eax
  404591:	push   cs
  404592:	add    al,0x20
  404594:	add    DWORD PTR [ecx],eax
  404596:	add    al,BYTE PTR ds:0xe010220
  40459c:	push   cs
  40459d:	add    eax,0x11010120
  4045a2:	imul   eax,DWORD PTR [eax+eiz*1],0x80080101
  4045a9:	mov    al,ds:0x2400
  4045ae:	add    al,0x80
  4045b0:	add    BYTE PTR [eax],al
  4045b2:	xchg   esp,eax
  4045b3:	add    BYTE PTR [eax],al
  4045b5:	add    BYTE PTR [esi],al
  4045b7:	add    al,BYTE PTR [eax]
  4045b9:	add    BYTE PTR [eax],al
  4045bb:	and    al,0x0
  4045bd:	add    BYTE PTR [edx+0x53],dl
  4045c0:	inc    ecx
  4045c1:	xor    DWORD PTR [eax],eax
  4045c3:	add    al,0x0
  4045c5:	add    BYTE PTR [ecx],al
  4045c7:	add    BYTE PTR [ecx],al
  4045c9:	add    BYTE PTR [edi],al
  4045cb:	sar    edx,1
  4045cd:	push   edi
  4045ce:	les    ebp,FWORD PTR [esi+0x2ea3f0d9]
  4045d4:	test   BYTE PTR [edx+0xdfdae0f],ch
  4045da:	jmp    0xecab43c7
  4045df:	pop    DWORD PTR [edi+0x6c7603fb]
  4045e5:	or     DWORD PTR [ecx+ebx*4-0x6e],0x1e
  4045ea:	mov    dl,0x3b
  4045ec:	out    0x9a,eax
  4045ee:	(bad)  
  4045f0:	fadd   st(1),st
  4045f2:	fstp   QWORD PTR [edx+0x211336d2]
  4045f8:	add    dl,BYTE PTR [eax-0x6c38df5]
  4045fe:	adc    BYTE PTR [ebp+0x77e1c47f],0x10
  404605:	pop    esi
  404607:	pop    es
  404608:	ja     0x404659
  40460a:	sub    eax,ebp
  40460c:	xor    cl,BYTE PTR [esi]
  40460e:	xchg   edx,eax
  40460f:	jmp    0xc021:0xe8e4ec05
  404616:	movs   DWORD PTR es:[edi],DWORD PTR ds:[esi]
  404617:	out    dx,eax
  404618:	call   0x4c9cab0e
  40461d:	or     al,0x93
  40461f:	shr    DWORD PTR [ebx+0x625d2899],0x2c
  404626:	stos   BYTE PTR es:[edi],al
  404627:	gs sub al,0x1d
  40462a:	cli    
  40462b:	(bad)  
  40462c:	cmp    eax,0x2d6f5d74
  404631:	in     eax,0xf1
  404633:	jle    0x404693
  404635:	scas   eax,DWORD PTR es:[edi]
  404636:	pinsrw mm2,WORD PTR [esi-0x75e3d9c3],0x12
  40463e:	inc    ebx
  40463f:	sbb    BYTE PTR gs:[eax],ah
  404642:	ins    DWORD PTR es:[edi],dx
  404643:	rcl    BYTE PTR [ebx-0x2da5b2cc],0x93
  40464a:	push   es
  40464b:	and    BYTE PTR [edx],al
  40464d:	add    cl,BYTE PTR [esi]
  40464f:	adc    DWORD PTR [ebp+0x3],esi
  404652:	and    BYTE PTR [eax],al
  404654:	or     BYTE PTR ds:0x80e0220,al
  40465a:	or     BYTE PTR ds:0xe0e0200,al
  404660:	push   cs
  404661:	add    al,0x0
  404663:	add    DWORD PTR [edx],eax
  404665:	push   cs
  404666:	add    al,0x6
  404668:	adc    al,BYTE PTR [eax+0x1200685]
  40466e:	adc    al,BYTE PTR [eax+0x20050e85]
  404674:	add    al,BYTE PTR [ecx]
  404676:	push   cs
  404677:	add    cl,BYTE PTR [eax]
  404679:	and    BYTE PTR [ebx],al
  40467b:	add    DWORD PTR [esi],ecx
  40467d:	sbb    al,0x11
  40467f:	or     BYTE PTR [ecx+0xe030009],0x12
  404686:	adc    BYTE PTR [ecx+0x51c1d0e],0x20
  40468d:	add    al,BYTE PTR [ecx]
  40468f:	push   cs
  404690:	sbb    al,0x5
  404692:	and    BYTE PTR [edx],al
  404694:	sbb    al,0xe
  404696:	sbb    al,0x10
  404698:	pop    es
  404699:	or     BYTE PTR [edx],cl
  40469b:	push   cs
  40469c:	adc    al,BYTE PTR [eax-0x7a7fed7b]
  4046a2:	or     BYTE PTR [edx],dl
  4046a4:	or     DWORD PTR [edx],ecx
  4046a6:	sbb    eax,0x5070a1c
  4046ab:	or     dl,BYTE PTR [edx]
  4046ad:	add    BYTE PTR [ebp+0xa091208],0x3
  4046b4:	and    BYTE PTR [eax],al
  4046b6:	add    al,BYTE PTR [ebx]
  4046b8:	pop    es
  4046b9:	add    DWORD PTR [esi],ecx
  4046bb:	add    esp,DWORD PTR [eax]
  4046bd:	add    BYTE PTR [esi],cl
  4046bf:	add    eax,0x80120000
  4046c4:	cdq    
  4046c5:	add    eax,0x80120020
  4046ca:	popf   
  4046cb:	add    al,0x0
  4046cd:	add    DWORD PTR [esi],ecx
  4046cf:	push   cs
  4046d0:	add    eax,0xe0e0307
  4046d5:	push   cs
  4046d6:	add    al,0x0
  4046d8:	add    DWORD PTR [ecx],eax
  4046da:	push   cs
  4046db:	add    eax,0x3010220
  4046e0:	or     BYTE PTR ds:0x80110000,al
  4046e6:	movs   DWORD PTR es:[edi],DWORD PTR ds:[esi]
  4046e7:	add    eax,0x80120000
  4046ec:	lods   eax,DWORD PTR ds:[esi]
  4046ed:	or     al,BYTE PTR [edi]
  4046ef:	add    eax,0x1c1d0e0e
  4046f4:	sbb    eax,0x51c1d1c
  4046f9:	add    BYTE PTR [eax],al
  4046fb:	adc    al,BYTE PTR [eax+0x12006b5]
  404701:	or     BYTE PTR [edx],dl
  404703:	cmp    BYTE PTR [ecx+0x1010004],0x2
  40470a:	add    eax,0x80120107
  40470f:	mov    cl,0x6
  404711:	and    BYTE PTR [ebx],al
  404713:	add    DWORD PTR [esi],ecx
  404715:	push   cs
  404716:	push   cs
  404717:	inc    eax
  404718:	add    DWORD PTR [eax],eax
  40471a:	xor    edx,DWORD PTR [ebx+0x79]
  40471d:	jae    0x404793
  40471f:	gs ins DWORD PTR es:[edi],dx
  404721:	cs push edx
  404723:	gs jae 0x404795
  404726:	jne    0x40479a
  404728:	arpl   WORD PTR [ebp+0x73],sp
  40472b:	cs push esp
  40472d:	outs   dx,DWORD PTR ds:[esi]
  40472e:	outs   dx,DWORD PTR ds:[esi]
  40472f:	ins    BYTE PTR es:[edi],dx
  404730:	jae    0x404760
  404732:	push   ebx
  404733:	je     0x4047a7
  404735:	outs   dx,DWORD PTR ds:[esi]
  404736:	outs   dx,BYTE PTR ds:[esi]
  404737:	ins    BYTE PTR es:[di],dx
  404739:	jns    0x40478f
  40473b:	jns    0x4047ad
  40473d:	gs fs push edx
  404740:	gs jae 0x4047b2
  404743:	jne    0x4047b7
  404745:	arpl   WORD PTR [ebp+0x42],sp
  404748:	jne    0x4047b3
  40474a:	ins    BYTE PTR es:[edi],dx
  40474b:	fs gs jb 0x404756
  40474f:	xor    al,0x2e
  404751:	xor    BYTE PTR [esi],ch
  404753:	xor    BYTE PTR [esi],ch
  404755:	xor    BYTE PTR [eax],al
  404757:	add    BYTE PTR ds:0x1c020200,al
  40475d:	sbb    al,0x8
  40475f:	add    BYTE PTR [ecx],al
  404761:	adc    al,BYTE PTR [eax-0x327fee37]
  404767:	add    eax,0x80120020
  40476c:	rol    DWORD PTR [edi],1
  40476e:	and    BYTE PTR [edx],al
  404770:	add    DWORD PTR [esi],ecx
  404772:	adc    al,BYTE PTR [eax+0x10704d1]
  404778:	adc    dl,BYTE PTR [ecx]
  40477a:	push   es
  40477b:	and    BYTE PTR [edx],al
  40477d:	push   cs
  40477e:	push   cs
  40477f:	adc    dl,BYTE PTR ds:0x1012006
  404785:	adc    DWORD PTR [eax+0x108d9],eax
  40478b:	add    al,BYTE PTR [eax]
  40478d:	add    BYTE PTR [eax],al
  40478f:	add    BYTE PTR [eax],al
  404791:	or     BYTE PTR [eax+0x117f5f3f],dh
  404797:	aad    0xa
  404799:	cmp    al,BYTE PTR [eax+eax*1]
  40479c:	add    DWORD PTR [ecx],eax
  40479e:	or     BYTE PTR ds:0x120e0120,al
  4047a4:	adc    eax,0x2020005
  4047a9:	push   cs
  4047aa:	push   cs
  4047ab:	add    eax,0x80120000
  4047b0:	rol    DWORD PTR ds:0xe0a0307,1
  4047b6:	push   cs
  4047b7:	aaa    
  4047b8:	add    DWORD PTR [eax],eax
  4047ba:	sbb    ch,BYTE PTR [esi]
  4047bc:	dec    esi
  4047bd:	inc    ebp
  4047be:	push   esp
  4047bf:	inc    esi
  4047c0:	jb     0x404823
  4047c2:	ins    DWORD PTR es:[edi],dx
  4047c3:	gs ja  0x404835
  4047c6:	jb     0x404833
  4047c8:	sub    al,0x56
  4047ca:	gs jb  0x404840
  4047cd:	imul   ebp,DWORD PTR [edi+0x6e],0x2e34763d
  4047d4:	xor    eax,0xe540001
  4047d9:	adc    al,0x46
  4047db:	jb     0x40483e
  4047dd:	ins    DWORD PTR es:[edi],dx
  4047de:	gs ja  0x404850
  4047e1:	jb     0x40484e
  4047e3:	inc    esp
  4047e4:	imul   esi,DWORD PTR [ebx+0x70],0x4e79616c
  4047eb:	popa   
  4047ec:	ins    DWORD PTR es:[edi],dx
  4047ed:	add    BYTE PTR gs:0x1,al
  4047f4:	add    BYTE PTR ds:0x10001,al
  4047fa:	add    BYTE PTR [edx],dl
  4047fc:	add    DWORD PTR [eax],eax
  4047fe:	or     eax,0x6e49454e
  404803:	jae    0x404879
  404805:	pop    eax
  404806:	ss xor al,0x2e
  404809:	gs js  0x404871
  40480c:	add    BYTE PTR [eax],al
  40480e:	sbb    al,BYTE PTR [ecx]
  404810:	add    BYTE PTR ds:0x7263694d,dl
  404816:	outs   dx,DWORD PTR ds:[esi]
  404817:	jae    0x404888
  404819:	data16 je 0x40483c
  40481c:	inc    ebx
  40481d:	outs   dx,DWORD PTR ds:[esi]
  40481e:	jb     0x404890
  404820:	outs   dx,DWORD PTR ds:[esi]
  404821:	jb     0x404884
  404823:	je     0x40488e
  404825:	outs   dx,DWORD PTR ds:[esi]
  404826:	outs   dx,BYTE PTR ds:[esi]
  404827:	add    BYTE PTR [eax],al
  404829:	and    eax,0x4d200001
  40482e:	imul   esp,DWORD PTR [ebx+0x72],0x666f736f
  404835:	je     0x4047f9
  404837:	scas   al,BYTE PTR es:[edi]
  404838:	and    BYTE PTR [esi+0x69],dl
  40483b:	jae    0x4048b2
  40483d:	popa   
  40483e:	ins    BYTE PTR es:[edi],dx
  40483f:	and    BYTE PTR [ebx+0x74],dl
  404842:	jne    0x4048a8
  404844:	imul   ebp,DWORD PTR [edi-0x3e],0x303220ae
  40484b:	xor    DWORD PTR [edx],esi
  40484d:	add    BYTE PTR [eax],al
  40484f:	xor    eax,DWORD PTR [ecx]
  404851:	add    BYTE PTR [esi],ch
  404853:	ret    0x20a9
  404856:	dec    ebp
  404857:	imul   esp,DWORD PTR [ebx+0x72],0x666f736f
  40485e:	je     0x404880
  404860:	inc    ebx
  404861:	outs   dx,DWORD PTR ds:[esi]
  404862:	jb     0x4048d4
  404864:	outs   dx,DWORD PTR ds:[esi]
  404865:	jb     0x4048c8
  404867:	je     0x4048d2
  404869:	outs   dx,DWORD PTR ds:[esi]
  40486a:	outs   dx,BYTE PTR ds:[esi]
  40486b:	and    BYTE PTR cs:[ecx+0x6c],al
  40486f:	ins    BYTE PTR es:[edi],dx
  404870:	and    BYTE PTR [edx+0x69],dh
  404873:	addr16 push 0x72207374
  404879:	gs jae 0x4048e1
  40487c:	jb     0x4048f4
  40487e:	gs fs add BYTE PTR cs:[eax],al
  404883:	adc    DWORD PTR [ecx],eax
  404885:	add    BYTE PTR [ecx+esi*1],cl
  404888:	xor    DWORD PTR [esi],ebp
  40488a:	xor    BYTE PTR [esi],ch
  40488c:	xor    eax,0x37323730
  404891:	xor    DWORD PTR cs:[eax],eax
  404894:	add    BYTE PTR ds:0x31080001,cl
  40489a:	xor    DWORD PTR [esi],ebp
  40489c:	xor    BYTE PTR [esi],ch
  40489e:	xor    BYTE PTR [esi],ch
  4048a0:	xor    BYTE PTR [eax],al
  4048a2:	add    BYTE PTR [edx],cl
  4048a4:	add    DWORD PTR [eax],eax
  4048a6:	add    eax,0x552d6e65
  4048ab:	push   ebx
  4048ac:	add    BYTE PTR [eax],al
  4048ae:	sub    al,BYTE PTR [ecx]
  4048b0:	add    BYTE PTR ds:0x645c3a46,ah
  4048b6:	fs pop esp
  4048b8:	je     0x404929
  4048ba:	outs   dx,DWORD PTR ds:[esi]
  4048bb:	ins    BYTE PTR es:[edi],dx
  4048bc:	jae    0x40491a
  4048be:	fs gs jbe 0x404926
  4048c2:	imul   esi,DWORD PTR [esi+0x5c],0x616e6946
  4048c9:	ins    BYTE PTR es:[edi],dx
  4048ca:	push   eax
  4048cb:	jne    0x40492f
  4048cd:	ins    BYTE PTR es:[edi],dx
  4048ce:	imul   esp,DWORD PTR [ebx+0x4b],0x732e7965
  4048d5:	outs   dx,BYTE PTR ds:[esi]
  4048d6:	imul   eax,DWORD PTR [eax],0x0
  4048d9:	or     DWORD PTR [eax+0x1],0x0
  4048dd:	add    BYTE PTR [eax+0x30],0x30
  4048e1:	xor    dh,BYTE PTR [eax+esi*1]
  4048e4:	xor    BYTE PTR [eax],dh
  4048e6:	xor    BYTE PTR [eax],dh
  4048e8:	arpl   WORD PTR [eax],di
  4048ea:	xor    BYTE PTR [eax],dh
  4048ec:	xor    BYTE PTR [eax],dh
  4048ee:	xor    BYTE PTR [ecx],dh
  4048f0:	xor    al,0x30
  4048f2:	xor    DWORD PTR [eax],esi
  4048f4:	xor    BYTE PTR [eax],dh
  4048f6:	xor    BYTE PTR [eax],dh
  4048f8:	xor    BYTE PTR ss:[edx],dh
  4048fb:	xor    BYTE PTR [eax],dh
  4048fd:	xor    BYTE PTR [eax],dh
  4048ff:	xor    BYTE PTR [eax],dh
  404901:	xor    dh,BYTE PTR [eax+esi*1]
  404904:	xor    BYTE PTR [eax],dh
  404906:	xor    BYTE PTR ds:0x34333532,dh
  40490c:	xor    DWORD PTR [ebx],esi
  40490e:	xor    DWORD PTR [eax],esi
  404910:	xor    BYTE PTR [eax],dh
  404912:	cmp    BYTE PTR [eax],dh
  404914:	xor    BYTE PTR [eax],dh
  404916:	xor    BYTE PTR [eax],dh
  404918:	xor    DWORD PTR [eax],esi
  40491a:	xor    BYTE PTR [eax],dh
  40491c:	xor    DWORD PTR [eax],esi
  40491e:	xor    BYTE PTR [esi],dh
  404920:	xor    DWORD PTR [ebx],esi
  404922:	xor    edi,DWORD PTR [ecx]
  404924:	cmp    DWORD PTR [ecx+0x66],esp
  404927:	xor    WORD PTR [eax],di
  40492a:	xor    WORD PTR gs:[ecx+0x32],sp
  40492f:	arpl   WORD PTR [edx],si
  404931:	xor    eax,0x32613431
  404936:	aaa    
  404937:	xor    esp,DWORD PTR [ecx+0x34]
  40493a:	xor    ah,BYTE PTR [ecx+edi*1+0x30]
  40493e:	xor    al,0x32
  404940:	bound  esi,QWORD PTR [edi]
  404942:	xor    dh,BYTE PTR [ebx]
  404944:	xor    dh,BYTE PTR [ecx]
  404946:	xor    WORD PTR [edi],si
  404949:	xor    eax,0x32303137
  40494e:	cmp    WORD PTR fs:[ebp+0x62],sp
  404953:	popa   
  404954:	fs popa 
  404956:	cmp    DWORD PTR ss:[ecx],edi
  404959:	xor    dh,BYTE PTR [ebx]
  40495b:	xor    dh,BYTE PTR gs:[edi]
  40495e:	xor    edi,DWORD PTR [eax]
  404960:	xor    al,0x30
  404962:	arpl   WORD PTR ss:[edx],si
  404965:	xor    DWORD PTR [ebp+0x35],esp
  404968:	bound  edi,QWORD PTR [eax]
  40496a:	xor    BYTE PTR [ecx],dh
  40496c:	xor    eax,0x62613235
  404971:	cmp    BYTE PTR [edx+esi*1+0x30],ah
  404975:	xor    BYTE PTR [ecx+0x36],ah
  404978:	xor    eax,0x35333261
  40497d:	xor    BYTE PTR gs:[eax],dh
  404980:	xor    DWORD PTR [ecx+0x63],esp
  404983:	cmp    DWORD PTR [ecx+0x64],esp
  404986:	arpl   WORD PTR [edx],si
  404988:	xor    eax,0x38643266
  40498d:	xor    DWORD PTR [ecx],esi
  40498f:	bound  esi,QWORD PTR gs:[eax]
  404992:	cmp    DWORD PTR [ecx+edi*1],esi
  404995:	ss popa 
  404997:	xor    al,0x63
  404999:	ss popa 
  40499b:	xor    eax,0x36346439
  4049a0:	xor    DWORD PTR [ecx],edi
  4049a2:	xor    eax,0x36633938
  4049a7:	cmp    DWORD PTR [esi+0x35],esp
  4049aa:	bound  esp,QWORD PTR [ecx+0x66]
  4049ad:	xor    BYTE PTR [ebx+0x34],ah
  4049b0:	xor    DWORD PTR [edi],esi
  4049b2:	cmp    DWORD PTR [ecx+0x34],esp
  4049b5:	aaa    
  4049b6:	xor    esi,DWORD PTR [ecx]
  4049b8:	xor    DWORD PTR [ecx+edi*1+0x32],esp
  4049bc:	xor    eax,0x64633535
  4049c1:	xor    BYTE PTR [eax],dh
  4049c3:	ss popa 
  4049c5:	arpl   WORD PTR [ebx+0x38],sp
  4049c8:	bound  esi,QWORD PTR ds:0x66393539
  4049ce:	xor    ah,BYTE PTR [edx+0x64]
  4049d1:	ss xor DWORD PTR gs:[eax],esi
  4049d5:	xor    esi,DWORD PTR gs:[esi]
  4049d8:	xor    BYTE PTR [ebx+0x33],ah
  4049db:	xor    al,0x35
  4049dd:	xor    esi,DWORD PTR [edi]
  4049df:	popa   
  4049e0:	xor    DWORD PTR [edx+esi*1+0x36],esp
  4049e4:	ss fs popa 
  4049e7:	cmp    BYTE PTR [eax],dh
  4049e9:	cmp    BYTE PTR ds:0x35363538,dh
  4049ef:	cmp    BYTE PTR [ebx],dh
  4049f1:	arpl   WORD PTR [eax],di
  4049f3:	xor    eax,0x64313864
  4049f8:	popa   
  4049f9:	aaa    
  4049fa:	xor    sp,WORD PTR [ebp+0x63]
  4049fe:	xor    BYTE PTR [ecx],dh
  404a00:	gs cmp DWORD PTR fs:0x35633436,esi
  404a08:	cmp    BYTE PTR [ecx+edi*1+0x33],ah
  404a0c:	fs aaa 
  404a0e:	xor    DWORD PTR [ebx],esi
  404a10:	arpl   WORD PTR [eax+esi*1+0x31],sp
  404a14:	aaa    
  404a15:	xor    ah,BYTE PTR [ebx+0x38]
  404a18:	xor    dh,BYTE PTR gs:[ebx]
  404a1b:	popa   
  404a1c:	xor    DWORD PTR [eax],esi
  404a1e:	data16 xor BYTE PTR [edx],dh
  404a21:	xor    edi,DWORD PTR [ecx]
  404a23:	bound  edi,QWORD PTR [eax]
  404a25:	xor    BYTE PTR [ebx+0x39],ah
  404a28:	bound  esi,QWORD PTR ss:[eax]
  404a2b:	aaa    
  404a2c:	aaa    
  404a2d:	xor    esi,DWORD PTR [esi]
  404a2f:	xor    ax,0x3864
  404a33:	bound  esi,QWORD PTR [eax]
  404a35:	xor    dh,BYTE PTR [edx]
  404a37:	xor    eax,0x34613234
  404a3c:	gs aaa 
  404a3e:	xor    al,0x32
  404a40:	xor    eax,0x66356131
  404a45:	xor    al,0x33
  404a47:	xor    bh,BYTE PTR [eax]
  404a49:	xor    dh,BYTE PTR [ebx+esi*1]
  404a4c:	xor    DWORD PTR [eax],edi
  404a4e:	bound  esi,QWORD PTR [ebx]
  404a50:	xor    eax,0x35613933
  404a55:	popa   
  404a56:	xor    BYTE PTR [eax],bh
  404a58:	aaa    
  404a59:	data16 cmp BYTE PTR [ebp+0x35],ah
  404a5d:	xor    esp,DWORD PTR [edx+esi*1+0x66]
  404a61:	xor    DWORD PTR [ebx],esi
  404a63:	xor    eax,0x61633966
  404a68:	xor    al,0x37
  404a6a:	xor    sp,WORD PTR [edx+0x62]
  404a6e:	xor    ah,BYTE PTR [ebp+0x31]
  404a71:	xor    BYTE PTR [ecx+0x66],ah
  404a74:	data16 xor BYTE PTR [ecx+0x66],ah
  404a78:	xor    BYTE PTR [eax],bh
  404a7a:	xor    al,0x39
  404a7c:	xor    eax,0x62663430
  404a81:	aaa    
  404a82:	arpl   WORD PTR [ebp+0x61],sp
  404a85:	xor    esp,DWORD PTR [esi+0x66]
  404a88:	xor    DWORD PTR [ecx],edi
  404a8a:	xor    ah,BYTE PTR [ebx+eiz*2+0x38]
  404a8e:	fs xor BYTE PTR gs:[ebp+0x64],ah
  404a93:	popa   
  404a94:	fs ss xor al,0x63
  404a98:	cmp    BYTE PTR ss:[ebp+0x66],ah
  404a9c:	fs xor esi,DWORD PTR gs:[ebx+eiz*2]
  404aa1:	xor    eax,0x30336436
  404aa6:	xor    ah,BYTE PTR [ecx+0x64]
  404aa9:	xor    eax,0x36646635
  404aae:	cmp    BYTE PTR gs:[eax],dh
  404ab1:	xor    si,WORD PTR [eax]
  404ab4:	xor    ah,BYTE PTR [ebp+esi*1+0x65]
  404ab8:	data16 arpl WORD PTR [ebp+eiz*2+0x61],sp
  404abd:	cmp    DWORD PTR gs:0x38353633,esi
  404ac4:	xor    esi,DWORD PTR fs:[esi*1+0x31363532]
  404acc:	bound  esi,QWORD PTR ds:0x63363366
  404ad2:	xor    eax,0x66653234
  404ad7:	bound  esp,QWORD PTR fs:[esp+eiz*2+0x39]
  404adc:	data16 cmp BYTE PTR [eax],bh
  404adf:	cmp    BYTE PTR ds:0x33643833,dh
  404ae5:	aaa    
  404ae6:	xor    al,0x63
  404ae8:	xor    WORD PTR gs:[eax],si
  404aec:	ss popa 
  404aee:	arpl   WORD PTR [esi+0x37],sp
  404af1:	cmp    DWORD PTR fs:[ebx],esi
  404af4:	popa   
  404af5:	xor    al,0x34
  404af7:	xor    al,0x35
  404af9:	arpl   WORD PTR [ebx],si
  404afb:	arpl   WORD PTR [edi],si
  404afd:	xor    esp,DWORD PTR [ebx+0x64]
  404b00:	cmp    DWORD PTR [ecx],esi
  404b02:	xor    DWORD PTR [esi+0x30],esp
  404b05:	xor    eax,0x61613137
  404b0a:	xor    sp,WORD PTR [ebp+esi*1+0x34]
  404b0f:	fs popa 
  404b11:	xor    DWORD PTR [edx],esi
  404b13:	bound  esi,QWORD PTR [ecx]
  404b15:	xor    DWORD PTR [esp+eiz*2+0x65],esp
  404b19:	arpl   WORD PTR [ebx],si
  404b1b:	aaa    
  404b1c:	xor    eax,0x813362
  404b21:	popa   
  404b22:	xor    eax,0x36363861
  404b27:	xor    DWORD PTR gs:[ebp+0x65],esp
  404b2b:	xor    DWORD PTR [eax],edi
  404b2d:	data16 cmp BYTE PTR ss:[eax],dh
  404b31:	aaa    
  404b32:	ss cmp BYTE PTR ss:[edx],dh
  404b36:	xor    BYTE PTR [ecx],bh
  404b38:	xor    sp,WORD PTR [edx+0x31]
  404b3c:	xor    DWORD PTR [edx],esi
  404b3e:	xor    esi,DWORD PTR [esi]
  404b40:	popa   
  404b41:	arpl   WORD PTR [ebp+0x35],sp
  404b44:	xor    dh,BYTE PTR gs:[ecx]
  404b47:	xor    WORD PTR [ecx],si
  404b4a:	aaa    
  404b4b:	cmp    BYTE PTR [eax],dh
  404b4d:	xor    esp,DWORD PTR [ecx+0x33]
  404b50:	xor    DWORD PTR [ebx+esi*1],esi
  404b53:	popa   
  404b54:	bound  esp,QWORD PTR [edx+0x31]
  404b57:	xor    dh,BYTE PTR [esi]
  404b59:	fs xor BYTE PTR fs:[ebx],dh
  404b5d:	xor    eax,0x32643764
  404b62:	data16 cmp BYTE PTR [edi],dh
  404b65:	bound  esi,QWORD PTR ss:[esi]
  404b68:	cmp    DWORD PTR [ebx],esi
  404b6a:	cmp    BYTE PTR [ecx+0x61],ah
  404b6d:	data16 xor ah,BYTE PTR [ebp+0x65]
  404b71:	xor    esi,DWORD PTR [ecx+esi*1]
  404b74:	xor    al,0x64
  404b76:	xor    eax,0x64303234
  404b7b:	aaa    
  404b7c:	xor    eax,0x31323633
  404b81:	xor    al,0x30
  404b83:	xor    BYTE PTR [edx+eiz*2+0x34],ah
  404b87:	xor    al,0x61
  404b89:	xor    al,0x39
  404b8b:	arpl   WORD PTR [eax+edi*1],si
  404b8e:	arpl   WORD PTR ss:[ebp+0x31],sp
  404b92:	xor    esi,DWORD PTR [ebx+esi*1]
  404b95:	xor    BYTE PTR [eax],dh
  404b97:	popa   
  404b98:	xor    dh,BYTE PTR [ecx]
  404b9a:	xor    BYTE PTR [esi],dh
  404b9c:	popa   
  404b9d:	bound  esi,QWORD PTR fs:[esi]
  404ba0:	bound  esp,QWORD PTR [edx+eiz*2+0x34]
  404ba4:	xor    esi,DWORD PTR [ebx]
  404ba6:	xor    eax,0x65663039
  404bab:	data16 cmp BYTE PTR [ecx+0x64],ah
  404baf:	xor    eax,0x63333463
  404bb4:	bound  esp,QWORD PTR [ecx+0x38]
  404bb7:	xor    dh,BYTE PTR [edx]
  404bb9:	cmp    DWORD PTR [eax],esi
  404bbb:	arpl   WORD PTR fs:[ecx+edi*1],si
  404bbf:	xor    eax,0x66653033
  404bc4:	data16 cmp BYTE PTR fs:[esi],dh
  404bc8:	xor    eax,0x39643332
  404bcd:	xor    al,0x38
  404bcf:	xor    esp,DWORD PTR [ebx+0x30]
  404bd2:	xor    BYTE PTR [esi+0x34],ah
  404bd5:	xor    eax,0x34666138
  404bda:	cmp    BYTE PTR ss:[ecx],bh
  404bdd:	xor    BYTE PTR [eax],dh
  404bdf:	xor    esi,DWORD PTR [esi]
  404be1:	bound  esi,QWORD PTR [eax]
  404be3:	xor    ah,BYTE PTR gs:[ebx+0x36]
  404be7:	xor    DWORD PTR [eax+esi*1+0x37],esp
  404beb:	aaa    
  404bec:	fs aaa 
  404bee:	bound  sp,DWORD PTR [ecx+0x63]
  404bf2:	xor    al,0x36
  404bf4:	aaa    
  404bf5:	popa   
  404bf6:	xor    eax,0x62653630
  404bfb:	popa   
  404bfc:	xor    bh,BYTE PTR [ecx]
  404bfe:	gs xor al,0x36
  404c01:	aaa    
  404c02:	popa   
  404c03:	cmp    BYTE PTR [edi],dh
  404c05:	xor    DWORD PTR [ecx],edi
  404c07:	cmp    BYTE PTR [edx+0x30],ah
  404c0a:	xor    eax,0x34376333
  404c0f:	cmp    DWORD PTR [ecx+0x61],esp
  404c12:	xor    ah,BYTE PTR [ecx+0x34]
  404c15:	xor    bh,BYTE PTR fs:[eax]
  404c18:	xor    al,0x30
  404c1a:	arpl   WORD PTR [edi],si
  404c1c:	cmp    BYTE PTR [eiz*2+0x6436],dh
  404c23:	push   ds
  404c24:	add    DWORD PTR [eax],eax
  404c26:	add    DWORD PTR [eax],eax
  404c28:	push   esp
  404c29:	add    dl,BYTE PTR [esi]
  404c2b:	push   edi
  404c2c:	jb     0x404c8f
  404c2e:	jo     0x404c7e
  404c30:	outs   dx,DWORD PTR ds:[esi]
  404c31:	outs   dx,BYTE PTR ds:[esi]
  404c32:	inc    ebp
  404c33:	js     0x404c98
  404c35:	gs jo  0x404cac
  404c38:	imul   ebp,DWORD PTR [edi+0x6e],0x6f726854
  404c3f:	ja     0x404cb4
  404c41:	add    DWORD PTR [eax],ecx
  404c43:	add    DWORD PTR [eax],eax
  404c45:	or     BYTE PTR [eax],al
	...
  404c4f:	add    BYTE PTR [ebp-0x1e],al
  404c52:	adc    DWORD PTR [eax+0x0],edx
  404c55:	add    BYTE PTR [eax],al
  404c57:	add    BYTE PTR [edx],al
  404c59:	add    BYTE PTR [eax],al
  404c5b:	add    BYTE PTR [ecx+eax*1],bl
  404c5e:	add    BYTE PTR [eax],al
  404c60:	push   0x6800004c
  404c65:	add    BYTE PTR cs:[eax],al
  404c68:	push   edx
  404c69:	push   ebx
  404c6a:	inc    esp
  404c6b:	push   ebx
  404c6c:	inc    ebp
  404c6d:	popa   
  404c6e:	ret    
  404c6f:	pushf  
  404c70:	push   edx
  404c71:	jo     0x404c94
  404c73:	dec    ebx
  404c74:	movs   DWORD PTR es:[edi],DWORD PTR ds:[esi]
  404c75:	fsubrp st(1),st
  404c77:	add    DWORD PTR [esi+0x55],eax
  404c7a:	and    eax,0x169
  404c7f:	add    BYTE PTR [esi+0x3a],ah
  404c82:	pop    esp
  404c83:	bound  ebp,QWORD PTR [ecx+0x6e]
  404c86:	popa   
  404c87:	jb     0x404cf2
  404c89:	gs jae 0x404ce8
  404c8c:	dec    ecx
  404c8d:	outs   dx,BYTE PTR ds:[esi]
  404c8e:	je     0x404cf5
  404c90:	jb     0x404cff
  404c92:	gs imul esp,DWORD PTR fs:[ecx+0x74],0x73765c65
  404c9b:	gs je  0x404cfa
  404c9e:	outs   dx,BYTE PTR ds:[esi]
  404c9f:	imul   ebp,DWORD PTR gs:[esi+0x73],0x34367874
  404ca7:	arpl   WORD PTR cs:[ebx+0x70],si
  404cab:	jb     0x404d1c
  404cad:	push   0x5f
  404caf:	xor    DWORD PTR [eax],edi
  404cb1:	cmp    DWORD PTR ds:0x39373733,esi
  404cb7:	xor    BYTE PTR [ecx],bh
  404cb9:	pop    esp
  404cba:	outs   dx,DWORD PTR ds:[esi]
  404cbb:	bound  ebp,QWORD PTR [edx+0x72]
  404cbe:	pop    esp
  404cbf:	js     0x404cf9
  404cc1:	ss pop esp
  404cc3:	dec    esi
  404cc4:	inc    ebp
  404cc5:	dec    ecx
  404cc6:	outs   dx,BYTE PTR ds:[esi]
  404cc7:	jae    0x404d3d
  404cc9:	pop    eax
  404cca:	ss xor al,0x2e
  404ccd:	jo     0x404d33
  404ccf:	bound  eax,QWORD PTR [eax]
	...
  404d81:	add    BYTE PTR [eax],al
  404d83:	add    BYTE PTR [ebp+ecx*2+0x0],ch
  404d8a:	add    BYTE PTR [eax],al
  404d8c:	add    BYTE PTR [eax],al
  404d8e:	add    BYTE PTR [eax],al
  404d90:	into   
  404d91:	dec    ebp
  404d92:	add    BYTE PTR [eax],al
  404d94:	add    BYTE PTR [eax],ah
	...
  404daa:	add    BYTE PTR [eax],al
  404dac:	ror    BYTE PTR [ebp+0x0],0x0
	...
  404dc0:	add    BYTE PTR [eax],al
  404dc2:	pop    edi
  404dc3:	inc    ebx
  404dc4:	outs   dx,DWORD PTR ds:[esi]
  404dc5:	jb     0x404e0c
  404dc7:	js     0x404e2e
  404dc9:	dec    ebp
  404dca:	popa   
  404dcb:	imul   ebp,DWORD PTR [esi+0x0],0x6f63736d
  404dd2:	jb     0x404e39
  404dd4:	gs cs fs ins BYTE PTR es:[edi],dx
  404dd8:	ins    BYTE PTR es:[edi],dx
  404dd9:	add    BYTE PTR [eax],al
  404ddb:	add    BYTE PTR [eax],al
  404ddd:	add    bh,bh
  404ddf:	and    eax,0x402000
