
f696bced4f6608ef898bdca29ba757a07900e4031e1de74c85bd18949e6479e8.exe:     file format pei-i386


Disassembly of section .text:

00401000 <.text>:
  401000:	add    BYTE PTR [eax],al
  401002:	add    BYTE PTR [eax],al
  401004:	sar    bh,0x40
	...
  40100f:	add    al,dh
  401011:	inc    BYTE PTR [eax+0x0]
  401014:	inc    eax
  401015:	add    al,BYTE PTR [ecx+0x0]
  401018:	add    BYTE PTR [eax],al
  40101a:	add    BYTE PTR [eax],al
  40101c:	xor    BYTE PTR [ebx],ch
  40101e:	add    BYTE PTR [eax],al
  401020:	add    BYTE PTR [ecx],bh
  401022:	add    BYTE PTR [eax],al
  401024:	push   eax
  401025:	cmp    DWORD PTR [eax],eax
  401027:	add    BYTE PTR [eax],ah
  401029:	inc    esp
  40102a:	add    BYTE PTR [eax],al
  40102c:	jo     0x401073
  40102e:	add    BYTE PTR [eax],al
  401030:	inc    eax
  401031:	inc    edi
  401032:	add    BYTE PTR [eax],al
  401034:	or     BYTE PTR [eax+0x0],0x0
  401038:	ror    BYTE PTR [ecx+0x0],0x0
  40103c:	adc    BYTE PTR [ebx+0x0],cl
  40103f:	add    BYTE PTR [eax+0x4c],ah
  401042:	add    BYTE PTR [eax],al
  401044:	add    BYTE PTR [edi+0x0],cl
  401047:	add    BYTE PTR [eax],dl
  401049:	push   eax
  40104a:	add    BYTE PTR [eax],al
  40104c:	adc    BYTE PTR [ecx+0x0],dl
  40104f:	add    BYTE PTR [eax],ah
  401051:	push   edx
  401052:	add    BYTE PTR [eax],al
  401054:	pusha  
  401055:	push   ebx
  401056:	add    BYTE PTR [eax],al
  401058:	mov    al,ds:0x60000054
  40105d:	push   ebp
  40105e:	add    BYTE PTR [eax],al
  401060:	push   eax
  401061:	bound  eax,QWORD PTR [eax]
  401063:	add    BYTE PTR [eax+0x10000067],al
  401069:	imul   eax,DWORD PTR [eax],0x698000
  40106f:	add    BYTE PTR [eax],ah
  401071:	ins    BYTE PTR es:[edi],dx
  401072:	add    BYTE PTR [eax],al
  401074:	mov    al,ds:0x1000006d
  401079:	outs   dx,DWORD PTR ds:[esi]
  40107a:	add    BYTE PTR [eax],al
  40107c:	pusha  
  40107d:	jo     0x40107f
  40107f:	add    BYTE PTR [eax-0x4fffff8e],ah
  401085:	je     0x401087
  401087:	add    BYTE PTR [eax],al
  401089:	ja     0x40108b
  40108b:	add    BYTE PTR [eax+0x78],ah
  40108e:	add    BYTE PTR [eax],al
  401090:	nop
  401091:	jp     0x401093
  401093:	add    BYTE PTR [eax],dl
  401095:	jl     0x401097
  401097:	add    BYTE PTR [eax-0xfffff83],dh
  40109d:	add    BYTE PTR [eax],0x0
  4010a0:	lock mov WORD PTR [eax],es
  4010a3:	add    al,ah
  4010a5:	xchg   edx,eax
  4010a6:	add    BYTE PTR [eax],al
  4010a8:	jo     0x401041
  4010aa:	add    BYTE PTR [eax],al
  4010ac:	rcr    BYTE PTR [eax-0x60500000],0x0
  4010b3:	add    BYTE PTR [eax+0x400000a0],al
  4010b9:	mov    eax,ds:0xa2100000
  4010be:	add    BYTE PTR [eax],al
  4010c0:	xor    BYTE PTR [eax-0x35c00000],0x0
  4010c7:	add    BYTE PTR [eax-0x35],al
  4010ca:	add    BYTE PTR [eax],al
  4010cc:	xor    ah,cl
  4010ce:	add    BYTE PTR [eax],al
  4010d0:	push   eax
  4010d1:	int    0x0
  4010d3:	add    BYTE PTR [eax-0x2fffff32],al
  4010d9:	iret   
  4010da:	add    BYTE PTR [eax],al
  4010dc:	xor    cl,dl
  4010de:	add    BYTE PTR [eax],al
  4010e0:	nop
  4010e1:	rol    BYTE PTR [eax],cl
  4010e3:	add    BYTE PTR [eax],ah
  4010e5:	aam    0x0
  4010e7:	add    BYTE PTR [eax-0x2b],dl
  4010ea:	add    BYTE PTR [eax],al
  4010ec:	push   eax
  4010ed:	(bad)  
  4010ee:	add    BYTE PTR [eax],al
  4010f0:	mov    al,0xeb
  4010f2:	add    BYTE PTR [eax],al
  4010f4:	shr    bl,1
  4010f6:	add    BYTE PTR [eax],al
  4010f8:	add    bh,ch
  4010fa:	add    BYTE PTR [eax],al
  4010fc:	shl    ch,1
  4010fe:	add    BYTE PTR [eax],al
  401100:	lock inc BYTE PTR [eax]
  401103:	add    al,al
  401105:	inc    DWORD PTR [eax]
  401107:	add    al,al
  401109:	add    DWORD PTR [ecx],eax
  40110b:	add    al,dl
  40110d:	add    DWORD PTR [ecx],eax
  40110f:	add    al,dh
  401111:	add    DWORD PTR [ecx],eax
  401113:	add    BYTE PTR [eax+0x2],al
  401116:	add    DWORD PTR [eax],eax
  401118:	and    BYTE PTR [ebx],al
  40111a:	add    DWORD PTR [eax],eax
  40111c:	mov    al,0x5
  40111e:	add    DWORD PTR [eax],eax
  401120:	loopne 0x401127
  401122:	add    DWORD PTR [eax],eax
  401124:	mov    al,ds:0xd0000107
  401129:	pop    es
  40112a:	add    DWORD PTR [eax],eax
  40112c:	loopne 0x401135
  40112e:	add    DWORD PTR [eax],eax
  401130:	adc    BYTE PTR [eax],cl
  401132:	add    DWORD PTR [eax],eax
  401134:	inc    eax
  401135:	or     BYTE PTR [ecx],al
  401137:	add    BYTE PTR [eax+0x8],dl
  40113a:	add    DWORD PTR [eax],eax
  40113c:	add    BYTE PTR [eax],al
  40113e:	add    BYTE PTR [eax],al
  401140:	jo     0x401152
  401142:	inc    ecx
  401143:	add    al,al
  401145:	adc    BYTE PTR [ecx+0x0],al
	...
  401150:	inc    ebx
  401151:	push   edx
  401152:	pop    ecx
  401153:	push   eax
  401154:	push   esp
  401155:	xor    esi,DWORD PTR [edx]
  401157:	cs fs ins BYTE PTR es:[edi],dx
  40115a:	ins    BYTE PTR es:[edi],dx
  40115b:	add    BYTE PTR [eax],al
  40115d:	add    BYTE PTR [eax],al
  40115f:	add    BYTE PTR [ebp+0x53],dl
  401162:	inc    ebp
  401163:	push   edx
  401164:	xor    esi,DWORD PTR [edx]
  401166:	cs fs ins BYTE PTR es:[edi],dx
  401169:	ins    BYTE PTR es:[edi],dx
  40116a:	add    BYTE PTR [eax],al
  40116c:	add    BYTE PTR [eax],al
  40116e:	add    BYTE PTR [eax],al
  401170:	popa   
  401171:	jo     0x4011dc
  401173:	sub    eax,0x772d736d
  401178:	imul   ebp,DWORD PTR [esi+0x2d],0x75636573
  40117f:	jb     0x4011ea
  401181:	je     0x4011fc
  401183:	sub    eax,0x6c646473
  401188:	sub    eax,0x312d316c
  40118d:	sub    eax,0x6c642e30
  401192:	ins    BYTE PTR es:[edi],dx
  401193:	add    BYTE PTR [eax],al
  401195:	add    BYTE PTR [eax],al
  401197:	add    BYTE PTR [eax+0x8],al
  40119a:	inc    ecx
  40119b:	add    BYTE PTR [eax+0x8],al
  40119e:	inc    ecx
  40119f:	add    BYTE PTR [eax+0x8],al
  4011a2:	inc    ecx
  4011a3:	add    BYTE PTR [eax+0x8],al
  4011a6:	inc    ecx
  4011a7:	add    BYTE PTR [eax+0x8],al
  4011aa:	inc    ecx
  4011ab:	add    BYTE PTR [eax+0x8],al
  4011ae:	inc    ecx
  4011af:	add    BYTE PTR [eax+0x8],al
  4011b2:	inc    ecx
  4011b3:	add    BYTE PTR [eax+0x8],al
  4011b6:	inc    ecx
  4011b7:	add    BYTE PTR [eax+0x8],al
  4011ba:	inc    ecx
  4011bb:	add    BYTE PTR [eax+0x8],al
  4011be:	inc    ecx
  4011bf:	add    BYTE PTR [eax+0x8],al
  4011c2:	inc    ecx
  4011c3:	add    BYTE PTR [eax+0x8],al
  4011c6:	inc    ecx
  4011c7:	add    BYTE PTR [eax+0x8],al
  4011ca:	inc    ecx
  4011cb:	add    BYTE PTR [eax+0x8],al
  4011ce:	inc    ecx
  4011cf:	add    BYTE PTR [eax+0x8],al
  4011d2:	inc    ecx
  4011d3:	add    BYTE PTR [eax],al
  4011d5:	add    BYTE PTR [eax],al
  4011d7:	add    BYTE PTR [eax+0x10004067],al
  4011dd:	imul   eax,DWORD PTR [eax+0x0],0x406980
  4011e4:	and    BYTE PTR [eax+eax*2+0x0],ch
  4011e8:	mov    al,ds:0x1000406d
  4011ed:	outs   dx,DWORD PTR ds:[esi]
  4011ee:	inc    eax
  4011ef:	add    BYTE PTR [eax+0x70],ah
  4011f2:	inc    eax
  4011f3:	add    BYTE PTR [eax-0x4fffbf8e],ah
  4011f9:	je     0x40123b
  4011fb:	add    BYTE PTR [eax],al
  4011fd:	ja     0x40123f
  4011ff:	add    BYTE PTR [eax+0x78],ah
  401202:	inc    eax
  401203:	add    BYTE PTR [eax+0x1000407a],dl
  401209:	jl     0x40124b
  40120b:	add    BYTE PTR [eax-0xfffbf83],dh
  401211:	add    BYTE PTR [eax+0x0],0x0
  401215:	add    BYTE PTR [eax],al
  401217:	add    BYTE PTR [eax],al
  401219:	and    BYTE PTR [eax+0x0],al
  40121c:	mov    al,0xeb
  40121e:	inc    eax
  40121f:	add    al,dl
  401221:	jmp    0x401263
  401223:	add    BYTE PTR [eax],al
  401225:	add    BYTE PTR [eax],al
  401227:	add    BYTE PTR [eax+0x12],ch
  40122a:	inc    eax
	...
  401237:	add    BYTE PTR [edx],dh
  401239:	sbb    eax,0x10040
  40123e:	add    BYTE PTR [eax],al
  401240:	add    BYTE PTR [eax],al
  401242:	or     al,BYTE PTR [eax]
  401244:	add    BYTE PTR [eax],al
  401246:	add    BYTE PTR [eax],al
  401248:	add    al,BYTE PTR gs:[eax]
  40124b:	or     BYTE PTR [eax],al
	...
  401255:	add    BYTE PTR [eax],al
  401257:	add    BYTE PTR [ecx],al
	...
  401265:	add    BYTE PTR [eax],al
  401267:	add    BYTE PTR [eax+0x39],dl
  40126a:	inc    eax
  40126b:	add    BYTE PTR [eax],al
  40126d:	add    BYTE PTR [eax],al
  40126f:	add    BYTE PTR [eax+0x23],bh
  401272:	inc    eax
  401273:	add    BYTE PTR [eax-0x2fffbf15],dh
  401279:	jmp    0x4012bb
  40127b:	add    BYTE PTR [esp+edx*1+0x41],cl
	...
  40128f:	add    dl,al
  401291:	and    eax,DWORD PTR [eax+0x0]
  401294:	add    DWORD PTR [eax],eax
  401296:	add    BYTE PTR [eax],al
  401298:	add    BYTE PTR [eax],al
  40129a:	or     al,BYTE PTR [eax]
  40129c:	add    BYTE PTR [eax],al
  40129e:	add    BYTE PTR [eax],al
  4012a0:	add    al,BYTE PTR gs:[eax]
  4012a3:	or     BYTE PTR [eax],al
	...
  4012ad:	add    BYTE PTR [eax],al
  4012af:	add    BYTE PTR [ecx],al
	...
  4012bd:	add    BYTE PTR [eax],al
  4012bf:	add    BYTE PTR [ebx+0x0],dl
  4012c2:	outs   dx,DWORD PTR ds:[esi]
  4012c3:	add    BYTE PTR [esi+0x0],ah
  4012c6:	je     0x4012c8
  4012c8:	ja     0x4012ca
  4012ca:	popa   
  4012cb:	add    BYTE PTR [edx+0x0],dh
  4012ce:	add    BYTE PTR gs:[eax+eax*1+0x4d],bl
  4012d3:	add    BYTE PTR [ecx+0x0],ch
  4012d6:	arpl   WORD PTR [eax],ax
  4012d8:	jb     0x4012da
  4012da:	outs   dx,DWORD PTR ds:[esi]
  4012db:	add    BYTE PTR [ebx+0x0],dh
  4012de:	outs   dx,DWORD PTR ds:[esi]
  4012df:	add    BYTE PTR [esi+0x0],ah
  4012e2:	je     0x4012e4
  4012e4:	pop    esp
  4012e5:	add    BYTE PTR [edi+0x0],dl
  4012e8:	ins    BYTE PTR es:[edi],dx
  4012e9:	add    BYTE PTR [ecx+0x0],ah
  4012ec:	outs   dx,BYTE PTR ds:[esi]
  4012ed:	add    BYTE PTR [ebx+0x0],dh
  4012f0:	jbe    0x4012f2
  4012f2:	arpl   WORD PTR [eax],ax
  4012f4:	pop    esp
  4012f5:	add    BYTE PTR [ecx+0x0],cl
  4012f8:	dec    eax
  4012f9:	add    BYTE PTR [esi+0x0],dl
  4012fc:	inc    ebp
  4012fd:	add    BYTE PTR [eax+0x0],bh
  401300:	je     0x401302
  401302:	add    BYTE PTR gs:[esi+0x0],ch
  401306:	jae    0x401308
  401308:	imul   eax,DWORD PTR [eax],0x690062
  40130e:	ins    BYTE PTR es:[edi],dx
  40130f:	add    BYTE PTR [ecx+0x0],ch
  401312:	je     0x401314
  401314:	jns    0x401316
  401316:	add    BYTE PTR [eax],al
  401318:	dec    eax
  401319:	add    BYTE PTR [ecx+0x0],ah
  40131c:	outs   dx,BYTE PTR ds:[esi]
  40131d:	add    BYTE PTR [eax+eax*1+0x6c],ah
  401321:	add    BYTE PTR [ebp+0x0],ah
  401324:	jb     0x401326
  401326:	push   esp
  401327:	add    BYTE PTR [ecx+0x0],ch
  40132a:	ins    DWORD PTR es:[edi],dx
  40132b:	add    BYTE PTR [ebp+0x0],ah
  40132e:	outs   dx,DWORD PTR ds:[esi]
  40132f:	add    BYTE PTR [ebp+0x0],dh
  401332:	je     0x401334
  401334:	add    BYTE PTR [eax],al
  401336:	add    BYTE PTR [eax],al
  401338:	add    eax,DWORD PTR [eax]
  40133a:	add    BYTE PTR [eax],al
  40133c:	adc    DWORD PTR [eax],eax
  40133e:	add    BYTE PTR [eax],al
  401340:	push   ds
  401341:	add    BYTE PTR [eax],al
  401343:	add    BYTE PTR [edi],cl
  401345:	add    BYTE PTR [eax],al
  401347:	add    BYTE PTR [eax],dl
  401349:	add    BYTE PTR [eax],al
  40134b:	add    BYTE PTR [eax+eax*1],dl
  40134e:	add    BYTE PTR [eax],al
  401350:	sbb    eax,DWORD PTR [eax]
  401352:	add    BYTE PTR [eax],al
  401354:	push   cs
  401355:	add    BYTE PTR [eax],al
  401357:	add    BYTE PTR ds:0x4000000,al
  40135d:	add    BYTE PTR [eax],al
  40135f:	add    BYTE PTR [esi],al
  401361:	add    BYTE PTR [eax],al
  401363:	add    BYTE PTR [eax+eax*1],bl
  401366:	add    BYTE PTR [eax],al
  401368:	or     eax,0x18000000
  40136d:	add    BYTE PTR [eax],al
  40136f:	add    BYTE PTR [edx],dl
  401371:	add    BYTE PTR [eax],al
  401373:	add    BYTE PTR [ebx],dl
  401375:	add    BYTE PTR [eax],al
  401377:	add    BYTE PTR [edx],bl
  401379:	add    BYTE PTR [eax],al
  40137b:	add    BYTE PTR [esi],dl
  40137d:	add    BYTE PTR [eax],al
  40137f:	add    BYTE PTR [ebx],cl
  401381:	add    BYTE PTR [eax],al
  401383:	add    BYTE PTR [eax+eax*1],cl
  401386:	add    BYTE PTR [eax],al
  401388:	or     DWORD PTR [eax],eax
  40138a:	add    BYTE PTR [eax],al
  40138c:	rcr    BYTE PTR [esi],0xd1
  40138f:	std    
  401390:	in     eax,dx
  401391:	xchg   BYTE PTR [ebp+0x48ed384c],bh
  401397:	push   ecx
  401398:	mov    dl,0x87
  40139a:	inc    ecx
  40139b:	cmps   DWORD PTR ds:[esi],DWORD PTR es:[edi]
  40139c:	push   edx
  40139d:	pop    ebx
  40139e:	jmp    0x401382
  4013a0:	mov    cl,0x8
  4013a2:	xchg   ecx,eax
  4013a3:	inc    ebx
  4013a4:	mov    dh,0x70
  4013a6:	cmc    
  4013a7:	adc    DWORD PTR [edi],0x37
  4013aa:	bound  eax,QWORD PTR [edi+0x50]
  4013ad:	jb     0x401414
  4013af:	inc    ecx
  4013b0:	jae    0x401425
  4013b2:	outs   dx,DWORD PTR ds:[esi]
  4013b3:	arpl   WORD PTR [ecx+0x61],bp
  4013b6:	je     0x40141d
  4013b8:	inc    ebx
  4013b9:	outs   dx,DWORD PTR ds:[esi]
  4013ba:	ins    DWORD PTR es:[edi],dx
  4013bb:	jo     0x401429
  4013bd:	gs je  0x401429
  4013c0:	outs   dx,DWORD PTR ds:[esi]
  4013c1:	outs   dx,BYTE PTR ds:[esi]
  4013c2:	add    BYTE PTR [eax],al
  4013c4:	push   eax
  4013c5:	outs   dx,DWORD PTR ds:[esi]
  4013c6:	jae    0x40143c
  4013c8:	inc    ecx
  4013c9:	jae    0x40143e
  4013cb:	outs   dx,DWORD PTR ds:[esi]
  4013cc:	arpl   WORD PTR [ecx+0x61],bp
  4013cf:	je     0x401436
  4013d1:	inc    ebx
  4013d2:	outs   dx,DWORD PTR ds:[esi]
  4013d3:	ins    DWORD PTR es:[edi],dx
  4013d4:	jo     0x401442
  4013d6:	gs je  0x401442
  4013d9:	outs   dx,DWORD PTR ds:[esi]
  4013da:	outs   dx,BYTE PTR ds:[esi]
  4013db:	add    BYTE PTR [ebx+0x65],dl
  4013de:	outs   dx,BYTE PTR ds:[esi]
  4013df:	fs push ebp
  4013e1:	dec    ecx
  4013e2:	push   edx
  4013e3:	gs jno 0x40145b
  4013e6:	gs jae 0x40145d
  4013e9:	add    BYTE PTR [eax],al
  4013eb:	add    BYTE PTR [ebx+0x65],dl
  4013ee:	outs   dx,BYTE PTR ds:[esi]
  4013ef:	fs dec esi
  4013f1:	outs   dx,DWORD PTR ds:[esi]
  4013f2:	je     0x40145d
  4013f4:	imul   sp,WORD PTR [ebx+0x61],0x6974
  4013fa:	outs   dx,DWORD PTR ds:[esi]
  4013fb:	outs   dx,BYTE PTR ds:[esi]
  4013fc:	add    BYTE PTR [eax],al
  4013fe:	add    BYTE PTR [eax],al
  401400:	inc    edi
  401401:	gs je  0x401454
  401404:	jb     0x401475
  401406:	imul   bp,WORD PTR [ebp+eiz*2+0x43],0x7375
  40140d:	je     0x40147e
  40140f:	ins    DWORD PTR es:[edi],dx
  401410:	push   ebp
  401411:	jae    0x401478
  401413:	jb     0x401459
  401415:	popa   
  401416:	je     0x401479
  401418:	add    BYTE PTR [eax],al
  40141a:	add    BYTE PTR [eax],al
  40141c:	push   ebx
  40141d:	gs je  0x401470
  401420:	jb     0x401491
  401422:	imul   bp,WORD PTR [ebp+eiz*2+0x43],0x7375
  401429:	je     0x40149a
  40142b:	ins    DWORD PTR es:[edi],dx
  40142c:	push   ebp
  40142d:	jae    0x401494
  40142f:	jb     0x401475
  401431:	popa   
  401432:	je     0x401495
  401434:	add    BYTE PTR [eax],al
  401436:	add    BYTE PTR [eax],al
  401438:	push   ebx
  401439:	gs je  0x40147f
  40143c:	jne    0x4014b0
  40143e:	jb     0x4014a5
  401440:	outs   dx,BYTE PTR ds:[esi]
  401441:	je     0x401493
  401443:	jb     0x4014b4
  401445:	imul   bp,WORD PTR [ebp+eiz*2+0x0],0x0
  40144c:	push   ebx
  40144d:	je     0x4014b0
  40144f:	jb     0x4014c5
  401451:	dec    edi
  401452:	outs   dx,BYTE PTR ds:[esi]
  401453:	gs pop eax
  401455:	add    BYTE PTR [eax],al
  401457:	add    BYTE PTR [ebx+0x74],dl
  40145a:	outs   dx,DWORD PTR ds:[esi]
  40145b:	jo     0x4014ac
  40145d:	outs   dx,BYTE PTR ds:[esi]
  40145e:	gs pop eax
  401460:	add    BYTE PTR [eax],al
  401462:	add    BYTE PTR [eax],al
  401464:	push   eax
  401465:	jb     0x4014d6
  401467:	arpl   WORD PTR [ebp+0x73],sp
  40146a:	jae    0x4014bf
  40146c:	arpl   WORD PTR gs:[ebp+0x72],si
  401470:	imul   esi,DWORD PTR [ecx+edi*2+0x50],0x656b6361
  401478:	je     0x40147a
  40147a:	add    BYTE PTR [eax],al
  40147c:	push   edx
  40147d:	gs jno 0x4014f5
  401480:	gs jae 0x4014f7
  401483:	push   esi
  401484:	imul   esi,DWORD PTR [edx+0x74],0x536c6175
  40148b:	je     0x4014ee
  40148d:	je     0x4014f8
  40148f:	outs   dx,DWORD PTR ds:[esi]
  401490:	outs   dx,BYTE PTR ds:[esi]
  401491:	add    BYTE PTR [eax],al
  401493:	add    BYTE PTR [edx+0x65],dl
  401496:	ins    BYTE PTR es:[edi],dx
  401497:	gs popa 
  401499:	jae    0x401500
  40149b:	push   esi
  40149c:	imul   esi,DWORD PTR [edx+0x74],0x536c6175
  4014a3:	je     0x401506
  4014a5:	je     0x401510
  4014a7:	outs   dx,DWORD PTR ds:[esi]
  4014a8:	outs   dx,BYTE PTR ds:[esi]
  4014a9:	add    BYTE PTR [eax],al
  4014ab:	add    BYTE PTR [ecx+0x75],dl
  4014ae:	gs jb  0x40152a
  4014b1:	push   esi
  4014b2:	imul   esi,DWORD PTR [edx+0x74],0x536c6175
  4014b9:	je     0x40151c
  4014bb:	je     0x401526
  4014bd:	outs   dx,DWORD PTR ds:[esi]
  4014be:	outs   dx,BYTE PTR ds:[esi]
  4014bf:	push   eax
  4014c0:	jb     0x401531
  4014c2:	jo     0x401529
  4014c4:	jb     0x40153a
  4014c6:	imul   esp,DWORD PTR [ebp+0x73],0x53000000
  4014cd:	gs je  0x401526
  4014d0:	imul   esi,DWORD PTR [edx+0x74],0x536c6175
  4014d7:	je     0x40153a
  4014d9:	je     0x401544
  4014db:	outs   dx,DWORD PTR ds:[esi]
  4014dc:	outs   dx,BYTE PTR ds:[esi]
  4014dd:	inc    ecx
  4014de:	push   eax
  4014df:	push   eax
  4014e0:	jb     0x401551
  4014e2:	jo     0x401549
  4014e4:	jb     0x40155a
  4014e6:	imul   esp,DWORD PTR [ebp+0x73],0xa2000000
  4014ed:	push   ebp
  4014ee:	pop    esp
  4014ef:	fdiv   st,st(6)
  4014f1:	test   DWORD PTR [bx-0x480b],0x91d60a67
  4014fa:	ror    BYTE PTR [ebx+0x4e003c],0x55
  401501:	add    BYTE PTR [eax+eax*1+0x4c],cl
  401505:	add    BYTE PTR [esi],bh
  401507:	add    BYTE PTR [eax],al
  401509:	add    BYTE PTR [eax],al
  40150b:	add    BYTE PTR [esi+0x0],cl
  40150e:	push   ebp
  40150f:	add    BYTE PTR [eax+eax*1+0x4c],cl
  401513:	add    BYTE PTR [eax],al
  401515:	add    BYTE PTR [eax],al
  401517:	add    BYTE PTR [esi+0x55],cl
  40151a:	dec    esp
  40151b:	dec    esp
  40151c:	add    BYTE PTR [eax],al
  40151e:	add    BYTE PTR [eax],al
  401520:	inc    esp
  401521:	outs   dx,DWORD PTR ds:[esi]
  401522:	je     0x401555
  401524:	xor    DWORD PTR [ebp+0x78],eax
  401527:	je     0x401572
  401529:	push   0x69654476
  40152e:	outs   dx,BYTE PTR ds:[esi]
  40152f:	imul   esi,DWORD PTR [ebx+edx*2+0x65],0x63697672
  401537:	add    BYTE PTR gs:[eax],al
  40153a:	add    BYTE PTR [eax],al
  40153c:	inc    esp
  40153d:	outs   dx,DWORD PTR ds:[esi]
  40153e:	je     0x401571
  401540:	xor    DWORD PTR [ebp+0x78],eax
  401543:	je     0x40158e
  401545:	push   0x696e4976
  40154a:	je     0x40158d
  40154c:	fs popa 
  40154e:	jo     0x4015c4
  401550:	gs jb  0x401553
  401553:	add    BYTE PTR [edi+ebp*2+0x74],al
  401557:	xor    DWORD PTR [ecx],esi
  401559:	inc    ebp
  40155a:	js     0x4015d0
  40155c:	dec    ecx
  40155d:	push   0x69654476
  401562:	outs   dx,BYTE PTR ds:[esi]
  401563:	imul   esi,DWORD PTR [ecx+eax*2+0x64],0x65747061
  40156b:	jb     0x40156d
  40156d:	add    BYTE PTR [eax],al
  40156f:	add    BYTE PTR [edi+ebp*2+0x74],al
  401573:	xor    DWORD PTR [ecx],esi
  401575:	inc    ebp
  401576:	js     0x4015ec
  401578:	dec    ecx
  401579:	push   0x72655076
  40157e:	outs   dx,WORD PTR ds:[esi]
  401580:	jb     0x4015ef
  401582:	push   eax
  401583:	jb     0x4015ea
  401585:	inc    ecx
  401586:	jae    0x4015fb
  401588:	outs   dx,DWORD PTR ds:[esi]
  401589:	arpl   WORD PTR [ecx+0x61],bp
  40158c:	je     0x4015f3
  40158e:	add    BYTE PTR [eax],al
  401590:	inc    esp
  401591:	outs   dx,DWORD PTR ds:[esi]
  401592:	je     0x4015c5
  401594:	xor    DWORD PTR [ebp+0x78],eax
  401597:	je     0x4015e2
  401599:	push   0x61644176
  40159e:	jo     0x401614
  4015a0:	gs jb  0x4015f5
  4015a3:	gs jae 0x40160b
  4015a6:	je     0x4015a8
  4015a8:	inc    esp
  4015a9:	outs   dx,DWORD PTR ds:[esi]
  4015aa:	je     0x4015dd
  4015ac:	xor    DWORD PTR [ebp+0x78],eax
  4015af:	je     0x4015fa
  4015b1:	push   0x72655076
  4015b6:	outs   dx,WORD PTR ds:[esi]
  4015b8:	jb     0x401627
  4015ba:	push   eax
  4015bb:	outs   dx,DWORD PTR ds:[esi]
  4015bc:	jae    0x401632
  4015be:	inc    ecx
  4015bf:	jae    0x401634
  4015c1:	outs   dx,DWORD PTR ds:[esi]
  4015c2:	arpl   WORD PTR [ecx+0x61],bp
  4015c5:	je     0x40162c
  4015c7:	add    BYTE PTR [edi+ebp*2+0x74],al
  4015cb:	xor    DWORD PTR [ecx],esi
  4015cd:	inc    ebp
  4015ce:	js     0x401644
  4015d0:	dec    ecx
  4015d1:	push   0x6f745376
  4015d6:	jo     0x401628
  4015d8:	outs   dx,DWORD PTR ds:[esi]
  4015d9:	jae    0x40164f
  4015db:	inc    ecx
  4015dc:	jae    0x401651
  4015de:	outs   dx,DWORD PTR ds:[esi]
  4015df:	arpl   WORD PTR [ecx+0x61],bp
  4015e2:	je     0x401649
  4015e4:	add    BYTE PTR [eax],al
  4015e6:	add    BYTE PTR [eax],al
  4015e8:	inc    esp
  4015e9:	outs   dx,DWORD PTR ds:[esi]
  4015ea:	je     0x40161d
  4015ec:	xor    DWORD PTR [ebp+0x78],eax
  4015ef:	je     0x40163a
  4015f1:	push   0x6c615676
  4015f6:	imul   esp,DWORD PTR [ecx+eiz*2+0x74],0x6f725065
  4015fe:	imul   bp,WORD PTR [ebp+eiz*2+0x0],0x4400
  401605:	outs   dx,DWORD PTR ds:[esi]
  401606:	je     0x401639
  401608:	xor    DWORD PTR [ebp+0x78],eax
  40160b:	je     0x401656
  40160d:	push   0x72655076
  401612:	outs   dx,WORD PTR ds:[esi]
  401614:	jb     0x401683
  401616:	inc    ebx
  401617:	popa   
  401618:	jo     0x40167b
  40161a:	bound  ebp,QWORD PTR [ecx+0x6c]
  40161d:	imul   esi,DWORD PTR [ecx+edi*2+0x4d],0x68637461
  401625:	add    BYTE PTR [eax],al
  401627:	add    BYTE PTR [edi+ebp*2+0x74],al
  40162b:	xor    DWORD PTR [ecx],esi
  40162d:	inc    ebp
  40162e:	js     0x4016a4
  401630:	dec    ecx
  401631:	push   0x65724376
  401636:	popa   
  401637:	je     0x40169e
  401639:	inc    esp
  40163a:	imul   esi,DWORD PTR [ebx+0x63],0x7265766f
  401641:	jns    0x401693
  401643:	jb     0x4016b4
  401645:	imul   bp,WORD PTR [ebp+eiz*2+0x73],0x0
  40164c:	inc    esp
  40164d:	outs   dx,DWORD PTR ds:[esi]
  40164e:	je     0x401681
  401650:	xor    DWORD PTR [ebp+0x78],eax
  401653:	je     0x40169e
  401655:	push   0x6f725076
  40165a:	arpl   WORD PTR [ebp+0x73],sp
  40165d:	jae    0x4016b2
  40165f:	gs jae 0x4016d5
  401662:	imul   ebp,DWORD PTR [edi+0x6e],0x6e616843
  401669:	add    BYTE PTR gs:[si+0x6f],al
  40166e:	je     0x4016a1
  401670:	xor    DWORD PTR [ebp+0x78],eax
  401673:	je     0x4016be
  401675:	push   0x63655276
  40167a:	imul   esi,DWORD PTR gs:[esi+0x65],0x69646e49
  401682:	arpl   WORD PTR [ecx+0x74],sp
  401685:	imul   ebp,DWORD PTR [edi+0x6e],0x0
  40168c:	inc    esp
  40168d:	outs   dx,DWORD PTR ds:[esi]
  40168e:	je     0x4016c1
  401690:	xor    DWORD PTR [ebp+0x78],eax
  401693:	je     0x4016de
  401695:	push   0x63655276
  40169a:	imul   esi,DWORD PTR gs:[esi+0x65],0x6b636150
  4016a2:	gs je  0x4016a5
  4016a5:	add    BYTE PTR [eax],al
  4016a7:	add    BYTE PTR [edi+ebp*2+0x74],al
  4016ab:	xor    DWORD PTR [ecx],esi
  4016ad:	inc    ebp
  4016ae:	js     0x401724
  4016b0:	dec    ecx
  4016b1:	push   0x6e655376
  4016b6:	fs push eax
  4016b8:	popa   
  4016b9:	arpl   WORD PTR [ebx+0x65],bp
  4016bc:	je     0x401701
  4016be:	outs   dx,DWORD PTR ds:[esi]
  4016bf:	ins    DWORD PTR es:[edi],dx
  4016c0:	jo     0x40172e
  4016c2:	gs je  0x40172e
  4016c5:	outs   dx,DWORD PTR ds:[esi]
  4016c6:	outs   dx,BYTE PTR ds:[esi]
  4016c7:	add    BYTE PTR [edi+ebp*2+0x74],al
  4016cb:	xor    DWORD PTR [ecx],esi
  4016cd:	inc    ebp
  4016ce:	js     0x401744
  4016d0:	dec    ecx
  4016d1:	push   0x55734976
  4016d6:	dec    ecx
  4016d7:	push   edx
  4016d8:	gs jno 0x401750
  4016db:	gs jae 0x401752
  4016de:	push   eax
  4016df:	outs   dx,BYTE PTR gs:[esi]
  4016e1:	imul   ebp,DWORD PTR fs:[esi+0x67],0x44000000
  4016e9:	outs   dx,DWORD PTR ds:[esi]
  4016ea:	je     0x40171d
  4016ec:	xor    DWORD PTR [ebp+0x78],eax
  4016ef:	je     0x40173a
  4016f1:	push   0x6f725076
  4016f6:	arpl   WORD PTR [ebp+0x73],sp
  4016f9:	jae    0x401750
  4016fb:	dec    ecx
  4016fc:	push   edx
  4016fd:	gs jae 0x401770
  401700:	outs   dx,DWORD PTR ds:[esi]
  401701:	outs   dx,BYTE PTR ds:[esi]
  401702:	jae    0x401769
  401704:	add    BYTE PTR [eax],al
  401706:	add    BYTE PTR [eax],al
  401708:	inc    esp
  401709:	outs   dx,DWORD PTR ds:[esi]
  40170a:	je     0x40173d
  40170c:	xor    DWORD PTR [ebp+0x78],eax
  40170f:	je     0x40175a
  401711:	push   0x65755176
  401716:	jb     0x401791
  401718:	push   ebp
  401719:	dec    ecx
  40171a:	push   edx
  40171b:	gs jno 0x401793
  40171e:	gs jae 0x401795
  401721:	add    BYTE PTR [eax],al
  401723:	add    BYTE PTR [edi+ebp*2+0x74],al
  401727:	xor    DWORD PTR [ecx],esi
  401729:	inc    ebp
  40172a:	js     0x4017a0
  40172c:	dec    ecx
  40172d:	push   0x656e4f76
  401732:	js     0x40177d
  401734:	outs   dx,BYTE PTR ds:[esi]
  401735:	imul   esp,DWORD PTR fs:[ebx+0x61],0x65526574
  40173d:	jae    0x4017b4
  40173f:	ins    BYTE PTR es:[edi],dx
  401740:	je     0x401742
  401742:	add    BYTE PTR [eax],al
  401744:	inc    esp
  401745:	outs   dx,DWORD PTR ds:[esi]
  401746:	je     0x401779
  401748:	xor    DWORD PTR [ebp+0x78],eax
  40174b:	je     0x401796
  40174d:	push   0x6e6f4376
  401752:	je     0x4017c6
  401754:	outs   dx,DWORD PTR ds:[esi]
  401755:	ins    BYTE PTR es:[edi],dx
  401756:	add    BYTE PTR [eax],al
  401758:	inc    esp
  401759:	outs   dx,DWORD PTR ds:[esi]
  40175a:	je     0x40178d
  40175c:	xor    DWORD PTR [ebp+0x78],eax
  40175f:	je     0x4017aa
  401761:	push   0x74654776
  401766:	push   esi
  401767:	gs jb  0x4017dd
  40176a:	imul   ebp,DWORD PTR [edi+0x6e],0x6f666e49
  401771:	add    BYTE PTR [eax],al
  401773:	add    BYTE PTR [edi+ebp*2+0x74],al
  401777:	xor    DWORD PTR [ecx],esi
  401779:	inc    ebp
  40177a:	js     0x4017f0
  40177c:	dec    ecx
  40177d:	push   0x696e4976
  401782:	je     0x4017d7
  401784:	gs jb  0x4017fd
  401787:	imul   esp,DWORD PTR [ebx+0x65],0x6f440000
  40178e:	je     0x4017c1
  401790:	xor    DWORD PTR [ebp+0x78],eax
  401793:	je     0x4017de
  401795:	push   0x696e4976
  40179a:	je     0x4017f2
  40179c:	imul   esi,DWORD PTR [edx+0x74],0x536c6175
  4017a3:	je     0x401806
  4017a5:	je     0x401810
  4017a7:	outs   dx,DWORD PTR ds:[esi]
  4017a8:	outs   dx,BYTE PTR ds:[esi]
  4017a9:	add    BYTE PTR [eax],al
  4017ab:	add    BYTE PTR [ebp+eiz*2+0x69],al
  4017af:	outs   dx,BYTE PTR ds:[esi]
  4017b0:	imul   esi,DWORD PTR [ebx+edx*2+0x65],0x63697672
  4017b8:	add    BYTE PTR gs:[eax],al
  4017bb:	add    BYTE PTR [ebp-0xa],cl
  4017be:	mov    dh,0x2c
  4017c0:	mov    al,0x10
  4017c2:	daa    
  4017c3:	cmps   BYTE PTR ds:[esi],BYTE PTR es:[edi]
  4017c4:	(bad)  
  4017c6:	dec    edx
  4017c7:	xor    eax,0xdae71188
  4017cc:	dec    ecx
  4017cd:	outs   dx,BYTE PTR ds:[esi]
  4017ce:	imul   esi,DWORD PTR [ebx+edx*2+0x65],0x63697672
  4017d6:	add    BYTE PTR gs:[ecx+0x6e],cl
  4017da:	imul   esi,DWORD PTR [ecx+eax*2+0x64],0x65747061
  4017e2:	jb     0x4017e4
  4017e4:	inc    esp
  4017e5:	imul   ebp,DWORD PTR gs:[esi+0x69],0x61644174
  4017ed:	jo     0x401863
  4017ef:	gs jb  0x4017f2
  4017f2:	add    BYTE PTR [eax],al
  4017f4:	push   eax
  4017f5:	jb     0x401866
  4017f7:	arpl   WORD PTR [ebp+0x73],sp
  4017fa:	jae    0x40184f
  4017fc:	gs jae 0x401872
  4017ff:	imul   ebp,DWORD PTR [edi+0x6e],0x6e616843
  401806:	add    BYTE PTR gs:[bx+si],al
  40180a:	add    BYTE PTR [eax],al
  40180c:	dec    ecx
  40180d:	jae    0x401864
  40180f:	dec    ecx
  401810:	push   edx
  401811:	gs jno 0x401889
  401814:	gs jae 0x40188b
  401817:	push   eax
  401818:	outs   dx,BYTE PTR gs:[esi]
  40181a:	imul   ebp,DWORD PTR fs:[esi+0x67],0x65500000
  401822:	jb     0x40188a
  401824:	outs   dx,DWORD PTR ds:[esi]
  401825:	jb     0x401894
  401827:	inc    ebx
  401828:	popa   
  401829:	jo     0x40188c
  40182b:	bound  ebp,QWORD PTR [ecx+0x6c]
  40182e:	imul   esi,DWORD PTR [ecx+edi*2+0x4d],0x68637461
  401836:	add    BYTE PTR [eax],al
  401838:	push   esi
  401839:	popa   
  40183a:	ins    BYTE PTR es:[edi],dx
  40183b:	imul   esp,DWORD PTR [ecx+eiz*2+0x74],0x6f725065
  401843:	imul   bp,WORD PTR [ebp+eiz*2+0x0],0x6550
  40184a:	jb     0x4018b2
  40184c:	outs   dx,DWORD PTR ds:[esi]
  40184d:	jb     0x4018bc
  40184f:	push   eax
  401850:	jb     0x4018b7
  401852:	inc    ecx
  401853:	jae    0x4018c8
  401855:	outs   dx,DWORD PTR ds:[esi]
  401856:	arpl   WORD PTR [ecx+0x61],bp
  401859:	je     0x4018c0
  40185b:	add    BYTE PTR [ecx+0x64],al
  40185e:	popa   
  40185f:	jo     0x4018d5
  401861:	gs jb  0x4018b6
  401864:	gs jae 0x4018cc
  401867:	je     0x401869
  401869:	add    BYTE PTR [eax],al
  40186b:	add    BYTE PTR [ebx+0x72],al
  40186e:	gs popa 
  401870:	je     0x4018d7
  401872:	inc    esp
  401873:	imul   esi,DWORD PTR [ebx+0x63],0x7265766f
  40187a:	jns    0x4018cc
  40187c:	jb     0x4018ed
  40187e:	imul   bp,WORD PTR [ebp+eiz*2+0x73],0x5000
  401885:	jb     0x4018f6
  401887:	arpl   WORD PTR [ebp+0x73],sp
  40188a:	jae    0x4018e1
  40188c:	dec    ecx
  40188d:	push   edx
  40188e:	gs jae 0x401901
  401891:	outs   dx,DWORD PTR ds:[esi]
  401892:	outs   dx,BYTE PTR ds:[esi]
  401893:	jae    0x4018fa
  401895:	add    BYTE PTR [eax],al
  401897:	add    BYTE PTR [ecx+0x75],dl
  40189a:	gs jb  0x401916
  40189d:	push   ebp
  40189e:	dec    ecx
  40189f:	push   edx
  4018a0:	gs jno 0x401918
  4018a3:	gs jae 0x40191a
  4018a6:	add    BYTE PTR [eax],al
  4018a8:	dec    edi
  4018a9:	outs   dx,BYTE PTR ds:[esi]
  4018aa:	gs js  0x4018f6
  4018ad:	outs   dx,BYTE PTR ds:[esi]
  4018ae:	imul   esp,DWORD PTR fs:[ebx+0x61],0x65526574
  4018b6:	jae    0x40192d
  4018b8:	ins    BYTE PTR es:[edi],dx
  4018b9:	je     0x4018bb
  4018bb:	add    BYTE PTR [ebx+0x6f],al
  4018be:	outs   dx,BYTE PTR ds:[esi]
  4018bf:	je     0x401933
  4018c1:	outs   dx,DWORD PTR ds:[esi]
  4018c2:	ins    BYTE PTR es:[edi],dx
  4018c3:	add    BYTE PTR [ecx-0x1],dh
  4018c6:	push   ds
  4018c7:	(bad)  [eax-0xd]
  4018ca:	adc    BYTE PTR [eax],0xac
  4018cd:	jmp    0x8a9:0x5e183a7a
  4018d4:	fld    st(6)
  4018d6:	jne    0x4018bb
  4018d8:	mov    esp,0x97e0c564
  4018dd:	ror    esi,0xae
  4018e0:	and    BYTE PTR [edi],dh
  4018e2:	xor    DWORD PTR [ebx+0x61],edx
  4018e5:	fs popa 
  4018e7:	jo     0x40195d
  4018e9:	gs jb  0x4018ec
  4018ec:	arpl   WORD PTR [ecx+0x6c],sp
  4018ef:	ins    BYTE PTR es:[edi],dx
  4018f0:	and    BYTE PTR [ecx+eiz*2+0x62],dh
  4018f4:	ins    BYTE PTR es:[edi],dx
  4018f5:	add    BYTE PTR gs:[eax],al
  4018f8:	xchg   esi,eax
  4018f9:	mov    dl,0x2a
  4018fb:	fldenv [edi-0x6b467b19]
  401901:	sahf   
  401902:	fnstenvw [ebx+0x5a4f8d88]
  401909:	push   eax
  40190a:	rcr    BYTE PTR [ebp+0x4e],0x24
  40190e:	push   0xf36c696b
  401913:	aam    0x8a
  401915:	pop    ds
  401916:	rcl    BYTE PTR [edi+0x17],0x2c
  40191a:	pop    ss
  40191b:	push   ss
  40191c:	push   ds
  40191d:	sahf   
  40191e:	retf   0x8cce
  401921:	sbb    al,0x82
  401923:	pop    ebx
  401924:	mov    ds:0xe1f74e,al
  401929:	in     eax,0x6f
  40192b:	inc    edx
  40192c:	jge    0x40192d
  40192e:	popf   
  40192f:	fcomp  QWORD PTR [esi-0x164d2f34]
  401935:	lods   al,BYTE PTR ds:[esi]
  401936:	add    DWORD PTR [ebx+edx*2+0x63006500],0x0
  40193e:	jne    0x401940
  401940:	jb     0x401942
  401942:	imul   eax,DWORD PTR [eax],0x790074
  401948:	cmp    eax,0x6d004900
  40194d:	add    BYTE PTR [eax+0x0],dh
  401950:	add    BYTE PTR gs:[edx+0x0],dh
  401954:	jae    0x401956
  401956:	outs   dx,DWORD PTR ds:[esi]
  401957:	add    BYTE PTR [esi+0x0],ch
  40195a:	popa   
  40195b:	add    BYTE PTR [eax+eax*1+0x69],dh
  40195f:	add    BYTE PTR [edi+0x0],ch
  401962:	outs   dx,BYTE PTR ds:[esi]
  401963:	add    BYTE PTR [eax],ah
  401965:	add    BYTE PTR [eax+eax*1+0x79],al
  401969:	add    BYTE PTR [esi+0x0],ch
  40196c:	popa   
  40196d:	add    BYTE PTR [ebp+0x0],ch
  401970:	imul   eax,DWORD PTR [eax],0x200063
  401976:	inc    esi
  401977:	add    BYTE PTR [ecx+0x0],ah
  40197a:	ins    BYTE PTR es:[edi],dx
  40197b:	add    BYTE PTR [ebx+0x0],dh
  40197e:	add    BYTE PTR gs:[eax],al
  401981:	add    BYTE PTR [eax],al
  401983:	add    BYTE PTR [esi+0x0],ch
  401986:	arpl   WORD PTR [eax],ax
  401988:	popa   
  401989:	add    BYTE PTR [eax+eax*1+0x72],ch
  40198d:	add    BYTE PTR [eax+0x0],dh
  401990:	arpl   WORD PTR [eax],ax
  401992:	add    BYTE PTR [eax],al
  401994:	sbb    DWORD PTR [edi+0xdb8aedd],ecx
  40199a:	push   0xffffffea
  40199c:	mov    al,ds:0x530822f4
  4019a1:	sbb    bl,ch
  4019a3:	pop    ecx
  4019a4:	dec    ecx
  4019a5:	add    BYTE PTR [eax+0x0],ch
  4019a8:	jbe    0x4019aa
  4019aa:	inc    ebp
  4019ab:	add    BYTE PTR [eax+0x0],bh
  4019ae:	je     0x4019b0
  4019b0:	push   edx
  4019b1:	add    BYTE PTR [eax+0x0],dh
  4019b4:	arpl   WORD PTR [eax],ax
  4019b6:	push   ebx
  4019b7:	add    BYTE PTR [ebp+0x0],ah
  4019ba:	jb     0x4019bc
  4019bc:	jbe    0x4019be
  4019be:	add    BYTE PTR gs:[edx+0x0],dh
  4019c2:	add    BYTE PTR [eax],al
  4019c4:	pusha  
  4019c5:	adc    cl,BYTE PTR [eax]
  4019c7:	jmp    0xeee617d0
  4019cc:	(bad)  
  4019cd:	lods   al,BYTE PTR ds:[esi]
  4019ce:	in     eax,dx
  4019cf:	or     BYTE PTR [ebx-0x784ac86a],0x4d
  4019d6:	mov    bl,0x81
  4019d8:	adc    ecx,ecx
  4019da:	fnsave [ebx-0x45]
  4019dd:	(bad)  
  4019de:	mov    bl,0x4f
  4019e0:	xchg   esp,eax
  4019e1:	(bad)  
  4019e2:	in     al,dx
  4019e3:	and    al,0xf
  4019e5:	add    BYTE PTR [eax],al
  4019e7:	add    BYTE PTR [eax+0x4011],bl
  4019ed:	add    BYTE PTR [eax],al
  4019ef:	add    BYTE PTR [eax],al
  4019f1:	add    BYTE PTR [eax],al
  4019f3:	dec    eax
  4019f4:	add    BYTE PTR [eax],al
  4019f6:	add    BYTE PTR [eax],al
  4019f8:	add    BYTE PTR [eax],al
  4019fa:	adc    al,0x0
  4019fc:	xor    al,BYTE PTR [eax]
  4019fe:	add    al,0x0
  401a00:	add    BYTE PTR [eax],al
  401a02:	inc    eax
  401a03:	add    dh,al
  401a05:	add    ecx,DWORD PTR [eax]
  401a07:	add    DWORD PTR [eax],eax
  401a09:	add    BYTE PTR [eax],al
  401a0b:	add    BYTE PTR [eax],al
  401a0d:	add    BYTE PTR [ebx],cl
  401a0f:	add    DWORD PTR [eax],ecx
  401a11:	add    BYTE PTR [eax+eax*1],al
  401a14:	adc    BYTE PTR [ecx],al
  401a16:	or     al,0x0
  401a18:	or     al,BYTE PTR [eax]
  401a1a:	jo     0x401a1c
  401a1c:	adc    BYTE PTR [eax],al
  401a1e:	or     BYTE PTR [eax],al
  401a20:	add    BYTE PTR [eax+0x0],cl
  401a23:	add    BYTE PTR [eax],al
  401a25:	add    BYTE PTR [ecx],al
  401a27:	add    BYTE PTR [eax+eax*1],cl
  401a2a:	xor    al,BYTE PTR [eax]
  401a2c:	add    al,0x0
  401a2e:	add    BYTE PTR [eax],al
  401a30:	or     BYTE PTR [eax],al
  401a32:	les    eax,FWORD PTR [ecx]
  401a34:	or     BYTE PTR [ecx],al
  401a36:	add    BYTE PTR [eax],al
  401a38:	add    BYTE PTR [eax],al
  401a3a:	add    BYTE PTR [eax],al
  401a3c:	jo     0x401a3e
  401a3e:	or     BYTE PTR [eax],al
  401a40:	or     BYTE PTR [eax],al
  401a42:	add    BYTE PTR [eax+0x0],cl
  401a45:	add    BYTE PTR [eax],al
  401a47:	add    BYTE PTR [edx],al
  401a49:	add    BYTE PTR [eax+eax*1],ch
  401a4c:	xor    al,BYTE PTR [eax]
  401a4e:	add    al,0x0
  401a50:	inc    eax
  401a51:	add    BYTE PTR [eax+eax*1],ah
  401a54:	mov    BYTE PTR [esi],0x8
  401a57:	add    DWORD PTR [eax],eax
  401a59:	add    BYTE PTR [eax],al
  401a5b:	add    BYTE PTR [eax],al
  401a5d:	add    BYTE PTR [ebx],cl
  401a5f:	add    DWORD PTR [eax],ecx
  401a61:	add    BYTE PTR [eax+eax*1],ch
  401a64:	dec    eax
  401a65:	add    BYTE PTR [eax+eax*1],cl
  401a68:	or     BYTE PTR [eax],al
  401a6a:	dec    eax
  401a6b:	add    BYTE PTR [eax],dl
  401a6d:	add    BYTE PTR [eax],cl
  401a6f:	add    BYTE PTR [edx+0x18001400],cl
  401a75:	add    BYTE PTR [eax+0x21],dl
  401a78:	and    al,0x0
  401a7a:	or     BYTE PTR [eax],al
  401a7c:	jo     0x401a7e
  401a7e:	sub    BYTE PTR [eax],al
  401a80:	or     BYTE PTR [eax],al
  401a82:	add    BYTE PTR [eax+0x0],cl
  401a85:	add    BYTE PTR [eax],al
  401a87:	add    BYTE PTR [ebx],al
  401a89:	add    BYTE PTR [eax],dl
  401a8b:	add    BYTE PTR [edx],dh
  401a8d:	add    BYTE PTR [eax+eax*1],al
  401a90:	or     BYTE PTR [eax],al
  401a92:	or     BYTE PTR [eax],al
  401a94:	les    eax,FWORD PTR [edx]
  401a96:	or     BYTE PTR [ecx],al
  401a98:	add    BYTE PTR [eax],al
  401a9a:	add    BYTE PTR [eax],al
  401a9c:	add    BYTE PTR [eax],al
  401a9e:	dec    eax
  401a9f:	add    BYTE PTR [eax],cl
  401aa1:	add    BYTE PTR [eax],cl
  401aa3:	add    BYTE PTR [eax+0x0],dh
  401aa6:	or     al,0x0
  401aa8:	or     BYTE PTR [eax],al
  401aaa:	add    BYTE PTR [eax+0x0],cl
  401aad:	add    BYTE PTR [eax],al
  401aaf:	add    BYTE PTR [eax+eax*1],al
  401ab2:	adc    al,0x0
  401ab4:	xor    al,BYTE PTR [eax]
  401ab6:	add    al,0x0
  401ab8:	xor    al,0x0
  401aba:	or     BYTE PTR [eax],al
  401abc:	les    eax,FWORD PTR [ebx]
  401abe:	or     BYTE PTR [ecx],al
  401ac0:	add    BYTE PTR [eax],al
  401ac2:	add    BYTE PTR [eax],al
  401ac4:	add    BYTE PTR [eax],al
  401ac6:	dec    eax
  401ac7:	add    BYTE PTR [eax],cl
  401ac9:	add    BYTE PTR [eax],cl
  401acb:	add    BYTE PTR [edx],cl
  401acd:	add    DWORD PTR [eax+eax*1],ecx
  401ad0:	and    al,0x0
  401ad2:	jo     0x401ad4
  401ad4:	adc    BYTE PTR [eax],al
  401ad6:	or     BYTE PTR [eax],al
  401ad8:	add    BYTE PTR [eax+0x0],cl
  401adb:	add    BYTE PTR [eax],al
  401add:	add    BYTE PTR ds:0x32002000,al
  401ae3:	add    BYTE PTR [eax+eax*1],al
  401ae6:	xor    BYTE PTR [eax],al
  401ae8:	and    al,0x0
  401aea:	les    eax,FWORD PTR [ebx]
  401aec:	or     BYTE PTR [ecx],al
  401aee:	add    BYTE PTR [eax],al
  401af0:	add    BYTE PTR [eax],al
  401af2:	add    BYTE PTR [eax],al
  401af4:	mov    al,BYTE PTR [eax]
  401af6:	or     BYTE PTR [eax],al
  401af8:	sbb    BYTE PTR [eax],al
  401afa:	push   eax
  401afb:	and    DWORD PTR [eax],ebx
  401afd:	add    BYTE PTR [eax],cl
  401aff:	add    BYTE PTR [eax+0x0],dh
  401b02:	sbb    al,0x0
  401b04:	or     BYTE PTR [eax],al
  401b06:	add    BYTE PTR [eax+0x0],cl
  401b09:	add    BYTE PTR [eax],al
  401b0b:	add    BYTE PTR [esi],al
  401b0d:	add    BYTE PTR [eax+eax*1],ah
  401b10:	xor    al,BYTE PTR [eax]
  401b12:	add    al,0x0
  401b14:	or     BYTE PTR [eax],al
  401b16:	and    al,0x0
  401b18:	mov    BYTE PTR [edi],0x8
  401b1b:	add    eax,0x10000
  401b20:	add    BYTE PTR [eax],al
  401b22:	dec    eax
  401b23:	add    BYTE PTR [eax],cl
  401b25:	add    BYTE PTR [eax],cl
  401b27:	add    BYTE PTR [ebx],cl
  401b29:	add    BYTE PTR [eax+eax*1],cl
  401b2c:	push   eax
  401b2d:	add    BYTE PTR [ebx],cl
  401b2f:	add    BYTE PTR [eax],dl
  401b31:	add    dh,cl
  401b33:	add    BYTE PTR [ebx],cl
  401b35:	add    BYTE PTR [eax+eax*1],dl
  401b38:	out    0x0,al
  401b3a:	or     eax,DWORD PTR [eax]
  401b3c:	sbb    BYTE PTR [eax],al
  401b3e:	inc    BYTE PTR [eax]
  401b40:	push   eax
  401b41:	and    DWORD PTR [eax+eax*1],ebx
  401b44:	or     BYTE PTR [eax],al
  401b46:	jo     0x401b48
  401b48:	and    BYTE PTR [eax],al
  401b4a:	or     BYTE PTR [eax],al
  401b4c:	add    BYTE PTR [eax+0x0],cl
  401b4f:	add    BYTE PTR [eax],al
  401b51:	add    BYTE PTR [edi],al
  401b53:	add    BYTE PTR [eax],ah
  401b55:	add    BYTE PTR [edx],dh
  401b57:	add    BYTE PTR [eax+eax*1],al
  401b5a:	or     BYTE PTR [eax],al
  401b5c:	and    al,0x0
  401b5e:	mov    BYTE PTR [esi],0x8
  401b61:	add    eax,0x10000
  401b66:	add    BYTE PTR [eax],al
  401b68:	dec    eax
  401b69:	add    BYTE PTR [eax],cl
  401b6b:	add    BYTE PTR [eax],cl
  401b6d:	add    BYTE PTR [ebx],cl
  401b6f:	add    BYTE PTR [eax+eax*1],cl
  401b72:	push   eax
  401b73:	add    BYTE PTR [ebx],cl
  401b75:	add    DWORD PTR [eax],edx
  401b77:	add    dl,dl
  401b79:	add    BYTE PTR [ebx],cl
  401b7b:	add    DWORD PTR [eax+eax*1],edx
  401b7e:	jmp    0x800:0x18215000
  401b85:	add    BYTE PTR [eax+0x0],dh
  401b88:	sbb    al,0x0
  401b8a:	or     BYTE PTR [eax],al
  401b8c:	add    BYTE PTR [eax+0x0],cl
  401b8f:	add    BYTE PTR [eax],al
  401b91:	add    BYTE PTR [eax],cl
  401b93:	add    BYTE PTR [eax],ch
  401b95:	add    BYTE PTR [edx],dh
  401b97:	add    BYTE PTR [eax+eax*1],al
  401b9a:	adc    BYTE PTR [eax],al
  401b9c:	and    al,0x0
  401b9e:	(bad)  
  401b9f:	or     BYTE PTR [eax],cl
  401ba1:	add    eax,0x10000
  401ba6:	add    BYTE PTR [eax],al
  401ba8:	dec    eax
  401ba9:	add    BYTE PTR [eax],cl
  401bab:	add    BYTE PTR [eax],cl
  401bad:	add    BYTE PTR [eax+0x0],cl
  401bb0:	or     al,0x0
  401bb2:	or     BYTE PTR [eax],al
  401bb4:	or     eax,DWORD PTR [eax]
  401bb6:	adc    BYTE PTR [eax],al
  401bb8:	push   eax
  401bb9:	add    BYTE PTR [ebx],cl
  401bbb:	add    DWORD PTR [eax+eax*1],edx
  401bbe:	rol    BYTE PTR [eax],cl
  401bc0:	or     eax,DWORD PTR [ecx]
  401bc2:	sbb    BYTE PTR [eax],al
  401bc4:	jmp    0xe00:0x1c010b00
  401bcb:	add    DWORD PTR [eax+0x21],edx
  401bce:	and    BYTE PTR [eax],al
  401bd0:	or     BYTE PTR [eax],al
  401bd2:	jo     0x401bd4
  401bd4:	and    al,0x0
  401bd6:	or     BYTE PTR [eax],al
  401bd8:	add    BYTE PTR [eax+0x0],cl
  401bdb:	add    BYTE PTR [eax],al
  401bdd:	add    BYTE PTR [ecx],cl
  401bdf:	add    BYTE PTR [eax],dl
  401be1:	add    BYTE PTR [edx],dh
  401be3:	add    BYTE PTR [eax+eax*1],al
  401be6:	or     BYTE PTR [eax],al
  401be8:	or     BYTE PTR [eax],al
  401bea:	les    eax,FWORD PTR [edx]
  401bec:	or     BYTE PTR [ecx],al
  401bee:	add    BYTE PTR [eax],al
  401bf0:	add    BYTE PTR [eax],al
  401bf2:	add    BYTE PTR [eax],al
  401bf4:	dec    eax
  401bf5:	add    BYTE PTR [eax],cl
  401bf7:	add    BYTE PTR [eax],cl
  401bf9:	add    BYTE PTR [eax+0x0],dh
  401bfc:	or     al,0x0
  401bfe:	or     BYTE PTR [eax],al
  401c00:	add    BYTE PTR [eax+0x0],cl
  401c03:	add    BYTE PTR [eax],al
  401c05:	add    BYTE PTR [edx],cl
  401c07:	add    BYTE PTR [eax+eax*1],ah
  401c0a:	xor    al,BYTE PTR [eax]
  401c0c:	add    al,0x0
  401c0e:	adc    BYTE PTR [eax],al
  401c10:	and    al,0x0
  401c12:	mov    DWORD PTR [edi],0x10708
  401c18:	add    DWORD PTR [eax],eax
  401c1a:	add    BYTE PTR [eax],al
  401c1c:	dec    eax
  401c1d:	add    BYTE PTR [eax],cl
  401c1f:	add    BYTE PTR [eax],cl
  401c21:	add    BYTE PTR [eax+0x0],cl
  401c24:	or     al,0x0
  401c26:	or     BYTE PTR [eax],al
  401c28:	or     eax,DWORD PTR [eax]
  401c2a:	adc    BYTE PTR [eax],al
  401c2c:	push   eax
  401c2d:	add    BYTE PTR [ebx],cl
  401c2f:	add    BYTE PTR [eax+eax*1],dl
  401c32:	inc    BYTE PTR [eax]
  401c34:	adc    esp,DWORD PTR [ecx]
  401c36:	sbb    BYTE PTR [eax],al
  401c38:	add    BYTE PTR [ecx],0x50
  401c3b:	and    DWORD PTR [eax+eax*1],ebx
  401c3e:	or     BYTE PTR [eax],al
  401c40:	jo     0x401c42
  401c42:	and    BYTE PTR [eax],al
  401c44:	or     BYTE PTR [eax],al
  401c46:	add    BYTE PTR [eax+0x0],cl
  401c49:	add    BYTE PTR [eax],al
  401c4b:	add    BYTE PTR [ebx],cl
  401c4d:	add    BYTE PTR [eax+eax*1],ah
  401c50:	xor    al,BYTE PTR [eax]
  401c52:	add    al,0x0
  401c54:	cmp    BYTE PTR [eax],al
  401c56:	or     BYTE PTR [eax],al
  401c58:	mov    BYTE PTR [eax+ecx*1],0x5
  401c5c:	add    BYTE PTR [eax],al
  401c5e:	add    DWORD PTR [eax],eax
  401c60:	add    BYTE PTR [eax],al
  401c62:	mov    al,BYTE PTR [eax]
  401c64:	or     BYTE PTR [eax],al
  401c66:	sbb    BYTE PTR [eax],al
  401c68:	dec    eax
  401c69:	add    BYTE PTR [eax],bl
  401c6b:	add    BYTE PTR [eax],cl
  401c6d:	add    BYTE PTR [ebx],cl
  401c6f:	add    BYTE PTR [eax+eax*1],bl
  401c72:	xchg   esp,eax
  401c73:	add    DWORD PTR [eax+0x0],esi
  401c76:	and    BYTE PTR [eax],al
  401c78:	or     BYTE PTR [eax],al
  401c7a:	add    BYTE PTR [eax+0x0],cl
  401c7d:	add    BYTE PTR [eax],al
  401c7f:	add    BYTE PTR [eax+eax*1],cl
  401c82:	sbb    BYTE PTR [eax],al
  401c84:	xor    al,BYTE PTR [eax]
  401c86:	add    al,0x0
  401c88:	push   cs
  401c89:	add    BYTE PTR [eax],cl
  401c8b:	add    ch,al
  401c8d:	add    al,0x8
  401c8f:	add    eax,DWORD PTR [ecx]
  401c91:	add    BYTE PTR [eax],al
  401c93:	add    BYTE PTR [eax],al
  401c95:	add    BYTE PTR [eax+0x0],cl
  401c98:	or     BYTE PTR [eax],al
  401c9a:	or     BYTE PTR [eax],al
  401c9c:	dec    eax
  401c9d:	add    BYTE PTR [eax+eax*1],cl
  401ca0:	or     eax,0x10201300
  401ca5:	add    BYTE PTR [ecx+eax*1+0x140070],ah
  401cac:	or     BYTE PTR [eax],al
  401cae:	add    BYTE PTR [eax+0x0],cl
  401cb1:	add    BYTE PTR [eax],al
  401cb3:	add    BYTE PTR ds:0x32001800,cl
  401cb9:	add    BYTE PTR [eax+eax*1],al
  401cbc:	push   cs
  401cbd:	add    BYTE PTR [eax],cl
  401cbf:	add    dh,al
  401cc1:	add    al,0x8
  401cc3:	add    eax,0x10000
  401cc8:	add    BYTE PTR [eax],al
  401cca:	dec    eax
  401ccb:	add    BYTE PTR [eax],cl
  401ccd:	add    BYTE PTR [eax],cl
  401ccf:	add    BYTE PTR [eax+0x0],cl
  401cd2:	or     al,0x0
  401cd4:	or     eax,0x10000b00
  401cd9:	add    dh,dl
  401cdb:	add    DWORD PTR [eax+0x0],esi
  401cde:	adc    al,0x0
  401ce0:	or     BYTE PTR [eax],al
  401ce2:	add    BYTE PTR [eax+0x0],cl
  401ce5:	add    BYTE PTR [eax],al
  401ce7:	add    BYTE PTR [esi],cl
  401ce9:	add    BYTE PTR [eax+eax*1],ah
  401cec:	xor    al,BYTE PTR [eax]
  401cee:	add    al,0x0
  401cf0:	sbb    BYTE PTR [eax],al
  401cf2:	and    al,0x0
  401cf4:	mov    DWORD PTR [edi],0x10708
  401cfa:	add    DWORD PTR [eax],eax
  401cfc:	add    BYTE PTR [eax],al
  401cfe:	dec    eax
  401cff:	add    BYTE PTR [eax],cl
  401d01:	add    BYTE PTR [eax],cl
  401d03:	add    BYTE PTR [eax+0x0],cl
  401d06:	or     al,0x0
  401d08:	or     BYTE PTR [eax],al
  401d0a:	or     eax,DWORD PTR [eax]
  401d0c:	adc    BYTE PTR [eax],al
  401d0e:	mov    WORD PTR [edx],es
  401d10:	dec    eax
  401d11:	add    BYTE PTR [eax+eax*1],dl
  401d14:	or     BYTE PTR [eax],al
  401d16:	sbb    eax,DWORD PTR [eax]
  401d18:	sbb    BYTE PTR [eax],al
  401d1a:	pushf  
  401d1b:	add    dl,BYTE PTR [eax+0x21]
  401d1e:	sbb    al,0x0
  401d20:	or     BYTE PTR [eax],al
  401d22:	jo     0x401d24
  401d24:	and    BYTE PTR [eax],al
  401d26:	or     BYTE PTR [eax],al
	...
  401d34:	adc    DWORD PTR [eax],ecx
  401d36:	and    eax,0x204115c
  401d3b:	add    BYTE PTR [eax],dh
  401d3d:	lods   al,BYTE PTR ds:[esi]
  401d3e:	add    BYTE PTR [eax],al
  401d40:	adc    DWORD PTR [eax],eax
  401d42:	sbb    al,0x0
  401d44:	sbb    eax,0x1000800
  401d49:	pop    ebx
  401d4a:	adc    eax,0x8001003
  401d4f:	push   es
  401d50:	push   es
  401d51:	dec    esp
  401d52:	add    cl,dh
  401d54:	call   FWORD PTR [ebx+0x15]
  401d57:	add    ecx,DWORD PTR [eax]
  401d59:	add    BYTE PTR [eax],cl
  401d5b:	or     BYTE PTR [ebx+ebx*2+0x16],bl
  401d5f:	add    ebx,DWORD PTR [eax+eax*1]
  401d62:	dec    ebx
  401d63:	pop    esp
  401d64:	inc    esi
  401d65:	pop    esp
  401d66:	adc    BYTE PTR [eax],al
  401d68:	adc    BYTE PTR [eax],al
  401d6a:	adc    cl,BYTE PTR [eax]
  401d6c:	and    eax,0x4c5b5c
  401d71:	fcos   
  401d73:	or     BYTE PTR [eax+eax*1-0x20],cl
  401d77:	call   FWORD PTR [ebx+ebx*2+0x11]
  401d7b:	or     al,0x8
  401d7d:	pop    esp
  401d7e:	adc    DWORD PTR [eax],eax
  401d80:	(bad)  
  401d81:	call   DWORD PTR [edx]
  401d83:	add    BYTE PTR [eax+0x0],ch
  401d86:	sbb    eax,0x2002000
  401d8b:	pop    ebx
  401d8c:	adc    eax,0x8002403
  401d91:	dec    esp
  401d92:	add    bl,dh
  401d94:	call   FWORD PTR [ebx+0x1b]
  401d97:	add    esp,DWORD PTR [eax+eax*1]
  401d9a:	or     DWORD PTR [eax],eax
  401d9c:	cld    
  401d9d:	inc    DWORD PTR [ecx]
  401d9f:	add    BYTE PTR [eax+eax*1-0x16],cl
  401da3:	call   FWORD PTR [ebx+ebx*2+0x17]
  401da7:	add    eax,DWORD PTR [eax+eax*1]
  401daa:	in     al,dx
  401dab:	dec    DWORD PTR [eax]
  401dad:	pop    ebx
  401dae:	mov    cl,0x3
  401db0:	or     al,0x0
  401db2:	add    BYTE PTR [eax],al
  401db4:	add    BYTE PTR [eax],al
  401db6:	add    bh,BYTE PTR [edi]
  401db8:	or     BYTE PTR [eax],cl
  401dba:	pop    esp
  401dbb:	pop    ebx
  401dbc:	mov    cl,0x3
  401dbe:	adc    BYTE PTR [eax],al
  401dc0:	add    BYTE PTR [eax],al
  401dc2:	add    BYTE PTR [eax],al
  401dc4:	dec    esp
  401dc5:	add    al,ch
  401dc7:	dec    DWORD PTR [eax]
  401dc9:	pop    ebx
  401dca:	sbb    eax,DWORD PTR [eax]
  401dcc:	add    DWORD PTR [eax],eax
  401dce:	sbb    DWORD PTR [eax],eax
  401dd0:	sbb    al,0x0
  401dd2:	add    DWORD PTR [eax],eax
  401dd4:	add    bl,BYTE PTR [ebx-0x4f]
  401dd7:	add    esp,DWORD PTR [eax+eax*1]
  401dda:	add    BYTE PTR [eax],al
  401ddc:	or     al,0x0
  401dde:	push   cs
  401ddf:	push   cs
  401de0:	or     BYTE PTR [eax+eax*1-0x27],cl
  401de4:	dec    DWORD PTR [eax]
  401de6:	ss pop ebx
  401de8:	adc    ah,BYTE PTR [eax]
  401dea:	loopne 0x401deb
  401dec:	sbb    al,BYTE PTR [ebx]
  401dee:	or     al,0x0
  401df0:	add    BYTE PTR [eax],al
  401df2:	push   es
  401df3:	add    BYTE PTR [esi],dh
  401df5:	or     eax,0x125b36
  401dfa:	lods   al,BYTE PTR ds:[esi]
  401dfb:	call   DWORD PTR [edx]
  401dfd:	add    al,bl
  401dff:	call   DWORD PTR [edx]
  401e01:	add    BYTE PTR [edx],al
  401e03:	add    BYTE PTR [esi],dl
  401e05:	add    eax,DWORD PTR [eax+eax*1]
  401e08:	dec    ebx
  401e09:	pop    esp
  401e0a:	inc    esi
  401e0b:	pop    esp
  401e0c:	add    BYTE PTR [eax],al
  401e0e:	add    BYTE PTR [eax],al
  401e10:	adc    cl,BYTE PTR [eax]
  401e12:	and    eax,0x5c085b5c
  401e17:	pop    ebx
  401e18:	adc    al,BYTE PTR [eax]
  401e1a:	add    al,BYTE PTR [eax]
  401e1c:	push   ss
  401e1d:	add    ecx,DWORD PTR [eax]
  401e1f:	add    BYTE PTR [ebx+0x5c],cl
  401e22:	inc    esi
  401e23:	pop    esp
  401e24:	add    BYTE PTR [eax],al
  401e26:	add    BYTE PTR [eax],al
  401e28:	adc    cl,BYTE PTR [eax]
  401e2a:	and    eax,0x8085b5c
  401e2f:	pop    ebx
  401e30:	adc    al,BYTE PTR [eax]
  401e32:	push   cs
  401e33:	add    BYTE PTR [ebx],bl
  401e35:	add    BYTE PTR [ecx],al
  401e37:	add    BYTE PTR [ecx],bl
  401e39:	add    BYTE PTR [eax],al
  401e3b:	add    BYTE PTR [ecx],al
  401e3d:	add    BYTE PTR [edx],al
  401e3f:	pop    ebx
  401e40:	push   ss
  401e41:	add    ecx,DWORD PTR [eax]
  401e43:	add    BYTE PTR [ebx+0x5c],cl
  401e46:	inc    esi
  401e47:	pop    esp
  401e48:	add    al,0x0
  401e4a:	add    al,0x0
  401e4c:	adc    ah,BYTE PTR [eax]
  401e4e:	out    0xff,al
  401e50:	pop    ebx
  401e51:	or     BYTE PTR [eax],cl
  401e53:	pop    ebx
  401e54:	adc    DWORD PTR [eax],eax
  401e56:	scas   al,BYTE PTR es:[edi]
  401e57:	call   DWORD PTR [ecx]
  401e59:	add    dl,al
  401e5b:	call   DWORD PTR [ecx]
  401e5d:	add    dl,ah
  401e5f:	call   DWORD PTR [ecx]
  401e61:	add    al,0x50
  401e63:	add    BYTE PTR [esi],dl
  401e65:	add    ecx,DWORD PTR [eax+eax*1]
  401e68:	dec    ebx
  401e69:	pop    esp
  401e6a:	inc    esi
  401e6b:	pop    esp
  401e6c:	add    BYTE PTR [eax],al
  401e6e:	add    BYTE PTR [eax],al
  401e70:	adc    cl,BYTE PTR [eax]
  401e72:	and    eax,0x45c465c
  401e77:	add    BYTE PTR [eax+eax*1],al
  401e7a:	adc    cl,BYTE PTR [eax]
  401e7c:	and    eax,0x4c5b5c
  401e81:	cmp    edi,0x4c
  401e84:	add    BYTE PTR [edi+0x31b5bff],dl
  401e8a:	or     al,0x0
  401e8c:	sbb    DWORD PTR [eax],eax
  401e8e:	add    BYTE PTR [eax],al
  401e90:	add    DWORD PTR [eax],eax
  401e92:	dec    ebx
  401e93:	pop    esp
  401e94:	dec    eax
  401e95:	dec    ecx
  401e96:	or     al,0x0
  401e98:	add    BYTE PTR [eax],al
  401e9a:	add    al,BYTE PTR [eax]
  401e9c:	add    BYTE PTR [eax],al
  401e9e:	add    BYTE PTR [eax],al
  401ea0:	adc    cl,BYTE PTR [eax]
  401ea2:	and    eax,0x400045c
  401ea7:	add    BYTE PTR [edx],dl
  401ea9:	or     BYTE PTR ds:0x4c5b5c,ah
  401eaf:	mov    ch,0xff
  401eb1:	pop    ebx
  401eb2:	push   ss
  401eb3:	add    ecx,DWORD PTR [eax]
  401eb5:	add    BYTE PTR [ebx+0x5c],cl
  401eb8:	inc    esi
  401eb9:	pop    esp
  401eba:	add    al,0x0
  401ebc:	add    al,0x0
  401ebe:	adc    ah,BYTE PTR [eax]
  401ec0:	enter  0x5bff,0x8
  401ec4:	or     BYTE PTR [ebx+0x12],bl
  401ec7:	and    BYTE PTR [edx],al
  401ec9:	add    BYTE PTR [ebx],bl
  401ecb:	add    BYTE PTR [ecx],al
  401ecd:	add    BYTE PTR [ecx],ch
  401ecf:	add    BYTE PTR [eax],bl
  401ed1:	add    BYTE PTR [ecx],al
  401ed3:	add    BYTE PTR [edx],al
  401ed5:	pop    ebx
  401ed6:	adc    DWORD PTR [edx+eax*1],edx
  401ed9:	add    BYTE PTR [edx],dl
  401edb:	add    BYTE PTR [esi],cl
  401edd:	add    BYTE PTR [ebx],bl
  401edf:	add    BYTE PTR [ecx],al
  401ee1:	add    BYTE PTR [ecx],bl
  401ee3:	add    BYTE PTR [eax+eax*1],ah
  401ee6:	add    DWORD PTR [eax],eax
  401ee8:	add    bl,BYTE PTR [ebx+0x16]
  401eeb:	add    ebp,DWORD PTR [eax+eax*1]
  401eee:	dec    ebx
  401eef:	pop    esp
  401ef0:	inc    esi
  401ef1:	pop    esp
  401ef2:	sub    BYTE PTR [eax],al
  401ef4:	sub    BYTE PTR [eax],al
  401ef6:	adc    ah,BYTE PTR [eax]
  401ef8:	out    0xff,al
  401efa:	pop    ebx
  401efb:	or     BYTE PTR [eax+eax*1+0x4c],cl
  401eff:	dec    BYTE PTR [eax+eax*1+0x48]
  401f03:	dec    BYTE PTR [eax]
  401f05:	or     BYTE PTR [ebx+ebx*2+0x12],bl
  401f09:	add    BYTE PTR [esi+0x1001b00],al
  401f0f:	add    BYTE PTR [ecx],bl
  401f11:	add    BYTE PTR [eax+eax*1],cl
  401f14:	add    BYTE PTR [eax],al
  401f16:	add    bl,BYTE PTR [ebx+0x1b]
  401f19:	add    BYTE PTR [ecx],al
  401f1b:	add    BYTE PTR [ecx],bl
  401f1d:	add    BYTE PTR [eax+eax*1],dl
  401f20:	add    BYTE PTR [eax],al
  401f22:	add    bl,BYTE PTR [ebx+0x1b]
  401f25:	add    BYTE PTR [ecx],al
  401f27:	add    BYTE PTR [ecx],bl
  401f29:	add    BYTE PTR [eax+eax*1],al
  401f2c:	add    DWORD PTR [eax],eax
  401f2e:	add    bl,BYTE PTR [ebx+0x16]
  401f31:	add    ecx,DWORD PTR [eax+eax*1]
  401f34:	dec    ebx
  401f35:	pop    esp
  401f36:	inc    esi
  401f37:	pop    esp
  401f38:	or     BYTE PTR [eax],al
  401f3a:	or     BYTE PTR [eax],al
  401f3c:	adc    ah,BYTE PTR [eax]
  401f3e:	out    0xff,al
  401f40:	pop    ebx
  401f41:	push   cs
  401f42:	or     BYTE PTR [eax],cl
  401f44:	pop    esp
  401f45:	pop    ebx
  401f46:	sbb    eax,DWORD PTR [ebx]
  401f48:	or     al,0x0
  401f4a:	sbb    DWORD PTR [eax],eax
  401f4c:	add    BYTE PTR [eax],al
  401f4e:	add    DWORD PTR [eax],eax
  401f50:	dec    ebx
  401f51:	pop    esp
  401f52:	dec    eax
  401f53:	dec    ecx
  401f54:	or     al,0x0
  401f56:	add    BYTE PTR [eax],al
  401f58:	add    DWORD PTR [eax],eax
  401f5a:	or     BYTE PTR [eax],al
  401f5c:	or     BYTE PTR [eax],al
  401f5e:	adc    ah,BYTE PTR [eax]
  401f60:	(bad)  
  401f61:	call   FWORD PTR [ebx+0x4c]
  401f64:	add    bl,cl
  401f66:	call   FWORD PTR [ebx+0x16]
  401f69:	add    ecx,DWORD PTR [eax]
  401f6b:	add    BYTE PTR [ebx+0x5c],cl
  401f6e:	inc    esi
  401f6f:	pop    esp
  401f70:	add    al,0x0
  401f72:	add    al,0x0
  401f74:	adc    ah,BYTE PTR [eax]
  401f76:	sar    bh,1
  401f78:	pop    ebx
  401f79:	or     BYTE PTR [eax],cl
  401f7b:	pop    ebx
  401f7c:	push   ss
  401f7d:	add    ecx,DWORD PTR [eax]
  401f7f:	add    BYTE PTR [ebx+0x5c],cl
  401f82:	inc    esi
  401f83:	pop    esp
  401f84:	add    al,0x0
  401f86:	add    al,0x0
  401f88:	adc    al,BYTE PTR [eax]
  401f8a:	fdivp  st(7),st
  401f8c:	pop    ebx
  401f8d:	or     BYTE PTR [eax],cl
  401f8f:	pop    ebx
  401f90:	push   ss
  401f91:	add    ebx,DWORD PTR [eax+eax*1]
  401f94:	dec    ebx
  401f95:	pop    esp
  401f96:	inc    esi
  401f97:	pop    esp
  401f98:	or     BYTE PTR [eax],al
  401f9a:	or     BYTE PTR [eax],al
  401f9c:	adc    ah,BYTE PTR [eax]
  401f9e:	outs   dx,BYTE PTR ds:[esi]
  401f9f:	inc    DWORD PTR [esi+0x5c]
  401fa2:	adc    BYTE PTR [eax],al
  401fa4:	adc    BYTE PTR [eax],al
  401fa6:	adc    ah,BYTE PTR [eax]
  401fa8:	jo     0x401fa9
  401faa:	inc    esi
  401fab:	pop    esp
  401fac:	sbb    BYTE PTR [eax],al
  401fae:	sbb    BYTE PTR [eax],al
  401fb0:	adc    al,BYTE PTR [eax]
  401fb2:	retf   0x5bff
  401fb5:	push   cs
  401fb6:	push   cs
  401fb7:	or     BYTE PTR [eax],cl
  401fb9:	or     BYTE PTR [eax],cl
  401fbb:	or     BYTE PTR [ebx+ebx*2+0x12],bl
  401fbf:	and    BYTE PTR [edx],al
  401fc1:	add    BYTE PTR [ebx],bl
  401fc3:	add    BYTE PTR [ecx],al
  401fc5:	add    BYTE PTR [ecx],ch
  401fc7:	add    BYTE PTR [eax+eax*1],cl
  401fca:	add    DWORD PTR [eax],eax
  401fcc:	add    bl,BYTE PTR [ebx+0x12]
  401fcf:	and    BYTE PTR [edx],al
  401fd1:	add    BYTE PTR [ebx],bl
  401fd3:	add    BYTE PTR [ecx],al
  401fd5:	add    BYTE PTR [ecx],ch
  401fd7:	add    BYTE PTR [eax+eax*1],dl
  401fda:	add    DWORD PTR [eax],eax
  401fdc:	add    bl,BYTE PTR [ebx+0x0]
  401fdf:	add    BYTE PTR [eax],al
  401fe1:	add    BYTE PTR [esi],ch
  401fe3:	add    BYTE PTR [eax+0x0],dl
  401fe6:	nop
  401fe7:	add    BYTE PTR [eax+0x1400e600],bh
  401fed:	add    DWORD PTR [edx+0x1],ebx
  401ff0:	call   0x5402:0xe01e601
  401ff7:	add    cl,BYTE PTR [eax-0xffd43fe]
  401ffd:	add    al,BYTE PTR [eax]
  401fff:	add    BYTE PTR [eax+eax*1+0x0],al
  402003:	add    BYTE PTR [ecx+0x69],cl
  402006:	jmp    0xf1fc79a3
  40200b:	inc    edi
  40200c:	xchg   edx,eax
  40200d:	ror    DWORD PTR [ebp+eiz*1-0x387a904c],1
  402014:	add    DWORD PTR [eax],eax
  402016:	add    BYTE PTR [eax],al
  402018:	add    al,0x5d
  40201a:	mov    BYTE PTR [edx+0x11c91ceb],cl
  402020:	lahf   
  402021:	call   0x106b202e
  402026:	dec    eax
  402027:	pusha  
  402028:	add    al,BYTE PTR [eax]
  40202a:	add    BYTE PTR [eax],al
  40202c:	in     al,0x19
  40202e:	inc    eax
	...
  40203b:	add    BYTE PTR [eax+eiz*1+0x40],al
  40203f:	add    BYTE PTR [eax],al
  402041:	add    BYTE PTR [eax],al
  402043:	add    al,0x18
  402045:	adc    al,BYTE PTR [eax+0x0]
  402048:	fcom   DWORD PTR [ecx]
  40204a:	inc    eax
  40204b:	add    dl,dh
  40204d:	sbb    DWORD PTR [eax+0x0],eax
  402050:	loopne 0x402071
  402052:	inc    eax
	...
  40206b:	dec    eax
  40206c:	add    BYTE PTR [eax],al
  40206e:	add    BYTE PTR [eax],al
  402070:	add    BYTE PTR [eax],al
  402072:	and    BYTE PTR [eax],al
  402074:	xor    al,BYTE PTR [eax]
  402076:	add    BYTE PTR [eax],al
  402078:	inc    eax
  402079:	add    BYTE PTR [eax],cl
  40207b:	add    BYTE PTR [esp+eax*1+0x8],al
  40207f:	add    DWORD PTR [eax],eax
  402081:	add    BYTE PTR [eax],al
  402083:	add    BYTE PTR [eax],al
  402085:	add    BYTE PTR [eax+0x0],cl
  402088:	add    al,0x0
  40208a:	or     BYTE PTR [eax],al
  40208c:	mov    al,BYTE PTR [eax]
  40208e:	or     BYTE PTR [eax],al
  402090:	or     BYTE PTR [eax],al
  402092:	dec    eax
  402093:	add    BYTE PTR [eax],bl
  402095:	add    BYTE PTR [eax],cl
  402097:	add    BYTE PTR [eax+0x0],dh
  40209a:	sbb    al,0x0
  40209c:	or     BYTE PTR [eax],al
  40209e:	add    BYTE PTR [eax+0x0],cl
  4020a1:	add    BYTE PTR [eax],al
  4020a3:	add    BYTE PTR [ecx],al
  4020a5:	add    BYTE PTR [eax],bl
  4020a7:	add    BYTE PTR [edx],dh
  4020a9:	add    BYTE PTR [eax],al
  4020ab:	add    BYTE PTR [eax],ah
  4020ad:	add    BYTE PTR [eax],cl
  4020af:	add    BYTE PTR [ebp+eax*1+0x8],al
  4020b3:	add    DWORD PTR [eax],eax
  4020b5:	add    BYTE PTR [eax],al
  4020b7:	add    BYTE PTR [eax],al
  4020b9:	add    BYTE PTR [eax+0x0],cl
  4020bc:	add    al,0x0
  4020be:	or     BYTE PTR [eax],al
  4020c0:	dec    eax
  4020c1:	add    BYTE PTR [eax],cl
  4020c3:	add    BYTE PTR [eax],cl
  4020c5:	add    BYTE PTR [eax+0x0],cl
  4020c8:	or     al,0x0
  4020ca:	or     BYTE PTR [eax],al
  4020cc:	dec    eax
  4020cd:	add    BYTE PTR [eax],dl
  4020cf:	add    BYTE PTR [eax],cl
  4020d1:	add    BYTE PTR [eax+0x0],dh
  4020d4:	adc    al,0x0
  4020d6:	or     BYTE PTR [eax],al
  4020d8:	add    BYTE PTR [eax+0x0],cl
  4020db:	add    BYTE PTR [eax],al
  4020dd:	add    BYTE PTR [edx],al
  4020df:	add    BYTE PTR [eax+eax*1],bl
  4020e2:	xor    al,BYTE PTR [eax]
  4020e4:	add    BYTE PTR [eax],al
  4020e6:	pop    edx
  4020e7:	add    BYTE PTR [eax],cl
  4020e9:	add    BYTE PTR [esi+eax*1+0x8],al
  4020ed:	add    DWORD PTR [eax],eax
  4020ef:	add    BYTE PTR [eax],al
  4020f1:	add    BYTE PTR [eax],al
  4020f3:	add    BYTE PTR [eax+0x0],cl
  4020f6:	add    al,0x0
  4020f8:	or     BYTE PTR [eax],al
  4020fa:	dec    eax
  4020fb:	add    BYTE PTR [eax],cl
  4020fd:	add    BYTE PTR [eax],cl
  4020ff:	add    BYTE PTR [edx],cl
  402101:	add    BYTE PTR [eax+eax*1],cl
  402104:	adc    al,0x0
  402106:	dec    eax
  402107:	add    BYTE PTR [eax],dl
  402109:	add    BYTE PTR [eax],cl
  40210b:	add    BYTE PTR [eax+0x0],cl
  40210e:	adc    al,0x0
  402110:	or     BYTE PTR [eax],al
  402112:	jo     0x402114
  402114:	sbb    BYTE PTR [eax],al
  402116:	or     BYTE PTR [eax],al
  402118:	add    BYTE PTR [eax+0x0],cl
  40211b:	add    BYTE PTR [eax],al
  40211d:	add    BYTE PTR [ebx],al
  40211f:	add    BYTE PTR [eax],dl
  402121:	add    BYTE PTR [edx],dh
  402123:	add    BYTE PTR [eax],al
  402125:	add    BYTE PTR [eax],cl
  402127:	add    BYTE PTR [eax],cl
  402129:	add    BYTE PTR [esi+0x3],al
  40212c:	or     BYTE PTR ds:0x10000,al
  402132:	add    BYTE PTR [eax],al
  402134:	dec    eax
  402135:	add    BYTE PTR [eax+eax*1],al
  402138:	or     BYTE PTR [eax],al
  40213a:	or     eax,DWORD PTR [ecx]
  40213c:	or     BYTE PTR [eax],al
  40213e:	cmp    BYTE PTR [eax],al
  402140:	jo     0x402142
  402142:	or     al,0x0
  402144:	or     BYTE PTR [eax],al
  402146:	add    BYTE PTR [eax+0x0],cl
  402149:	add    BYTE PTR [eax],al
  40214b:	add    BYTE PTR [eax+eax*1],al
  40214e:	adc    BYTE PTR [eax],al
  402150:	xor    al,BYTE PTR [eax]
  402152:	add    BYTE PTR [eax],al
  402154:	or     BYTE PTR [eax],al
  402156:	or     BYTE PTR [eax],al
  402158:	inc    esi
  402159:	add    ecx,DWORD PTR [eax]
  40215b:	add    eax,0x10000
  402160:	add    BYTE PTR [eax],al
  402162:	dec    eax
  402163:	add    BYTE PTR [eax+eax*1],al
  402166:	or     BYTE PTR [eax],al
  402168:	or     eax,DWORD PTR [ecx]
  40216a:	or     BYTE PTR [eax],al
  40216c:	data16 add BYTE PTR [eax+0x0],dh
  402170:	or     al,0x0
  402172:	or     BYTE PTR [eax],al
  402174:	add    BYTE PTR [eax+0x0],cl
  402177:	add    BYTE PTR [eax],al
  402179:	add    BYTE PTR ds:0x32001c00,al
  40217f:	add    BYTE PTR [eax],al
  402181:	add    BYTE PTR [eax],bl
  402183:	add    BYTE PTR [eax+eax*1],ah
  402186:	inc    ebp
  402187:	push   es
  402188:	or     BYTE PTR [ebx],al
  40218a:	add    DWORD PTR [eax],eax
  40218c:	add    BYTE PTR [eax],al
  40218e:	add    BYTE PTR [eax],al
  402190:	dec    eax
  402191:	add    BYTE PTR [eax+eax*1],al
  402194:	or     BYTE PTR [eax],al
  402196:	dec    eax
  402197:	add    BYTE PTR [eax],cl
  402199:	add    BYTE PTR [eax],cl
  40219b:	add    BYTE PTR [eax+0x0],cl
  40219e:	or     al,0x0
  4021a0:	or     BYTE PTR [eax],al
  4021a2:	push   eax
  4021a3:	and    DWORD PTR [eax],edx
  4021a5:	add    BYTE PTR [eax],cl
  4021a7:	add    BYTE PTR [ebx],dl
  4021a9:	and    BYTE PTR [eax+eax*1],dl
  4021ac:	test   BYTE PTR [eax],al
  4021ae:	jo     0x4021b0
  4021b0:	sbb    BYTE PTR [eax],al
  4021b2:	or     BYTE PTR [eax],al
  4021b4:	add    BYTE PTR [eax+0x0],cl
  4021b7:	add    BYTE PTR [eax],al
  4021b9:	add    BYTE PTR [esi],al
  4021bb:	add    BYTE PTR [eax+eax*1],bl
  4021be:	xor    al,BYTE PTR [eax]
  4021c0:	add    BYTE PTR [eax],al
  4021c2:	and    BYTE PTR [eax],al
  4021c4:	or     BYTE PTR [eax],al
  4021c6:	inc    esi
  4021c7:	push   es
  4021c8:	or     BYTE PTR ds:0x10000,al
  4021ce:	add    BYTE PTR [eax],al
  4021d0:	dec    eax
  4021d1:	add    BYTE PTR [eax+eax*1],al
  4021d4:	or     BYTE PTR [eax],al
  4021d6:	dec    eax
  4021d7:	add    BYTE PTR [eax],cl
  4021d9:	add    BYTE PTR [eax],cl
  4021db:	add    BYTE PTR [eax+0x0],cl
  4021de:	or     al,0x0
  4021e0:	or     BYTE PTR [eax],al
  4021e2:	dec    eax
  4021e3:	add    BYTE PTR [eax],dl
  4021e5:	add    BYTE PTR [eax],cl
  4021e7:	add    BYTE PTR [ebx],cl
  4021e9:	add    DWORD PTR [eax+eax*1],edx
  4021ec:	pushf  
  4021ed:	add    BYTE PTR [eax+0x0],dh
  4021f0:	sbb    BYTE PTR [eax],al
  4021f2:	or     BYTE PTR [eax],al
  4021f4:	add    BYTE PTR [eax+0x0],cl
  4021f7:	add    BYTE PTR [eax],al
  4021f9:	add    BYTE PTR [edi],al
  4021fb:	add    BYTE PTR [eax],bl
  4021fd:	add    BYTE PTR [edx],dh
  4021ff:	add    BYTE PTR [eax],al
  402201:	add    BYTE PTR [esi],dl
  402203:	add    BYTE PTR [eax],cl
  402205:	add    BYTE PTR [esi+0x5],al
  402208:	or     BYTE PTR ds:0x10000,al
  40220e:	add    BYTE PTR [eax],al
  402210:	dec    eax
  402211:	add    BYTE PTR [eax+eax*1],al
  402214:	or     BYTE PTR [eax],al
  402216:	dec    eax
  402217:	add    BYTE PTR [eax],cl
  402219:	add    BYTE PTR ds:0xc004800,cl
  40221f:	add    BYTE PTR [eax],cl
  402221:	add    BYTE PTR [ebx],cl
  402223:	add    BYTE PTR [eax],dl
  402225:	add    BYTE PTR [eax+0x14007000],ch
  40222b:	add    BYTE PTR [eax],cl
  40222d:	add    BYTE PTR [eax],al
  40222f:	dec    eax
  402230:	add    BYTE PTR [eax],al
  402232:	add    BYTE PTR [eax],al
  402234:	or     BYTE PTR [eax],al
  402236:	sbb    BYTE PTR [eax],al
  402238:	xor    al,BYTE PTR [eax]
  40223a:	add    BYTE PTR [eax],al
  40223c:	adc    BYTE PTR [eax],al
  40223e:	or     BYTE PTR [eax],al
  402240:	inc    esi
  402241:	add    eax,0x108
  402246:	add    BYTE PTR [eax],al
  402248:	add    BYTE PTR [eax],al
  40224a:	dec    eax
  40224b:	add    BYTE PTR [eax+eax*1],al
  40224e:	or     BYTE PTR [eax],al
  402250:	dec    eax
  402251:	add    BYTE PTR [eax],cl
  402253:	add    BYTE PTR [eax],cl
  402255:	add    BYTE PTR [ebx],cl
  402257:	add    BYTE PTR [eax+eax*1],cl
  40225a:	mov    eax,0x10000b00
  40225f:	add    al,dl
  402261:	add    BYTE PTR [eax+0x0],dh
  402264:	adc    al,0x0
  402266:	or     BYTE PTR [eax],al
  402268:	add    BYTE PTR [eax+0x0],cl
  40226b:	add    BYTE PTR [eax],al
  40226d:	add    BYTE PTR [ecx],cl
  40226f:	add    BYTE PTR [eax],dl
  402271:	add    BYTE PTR [edx],dh
  402273:	add    BYTE PTR [eax],al
  402275:	add    BYTE PTR [eax],cl
  402277:	add    BYTE PTR [eax],cl
  402279:	add    BYTE PTR [esi+0x3],al
  40227c:	or     BYTE PTR ds:0x10000,al
  402282:	add    BYTE PTR [eax],al
  402284:	dec    eax
  402285:	add    BYTE PTR [eax+eax*1],al
  402288:	or     BYTE PTR [eax],al
  40228a:	or     eax,DWORD PTR [eax]
  40228c:	or     BYTE PTR [eax],al
  40228e:	call   0xc409293
  402293:	add    BYTE PTR [eax],cl
  402295:	add    BYTE PTR [eax],al
  402297:	dec    eax
  402298:	add    BYTE PTR [eax],al
  40229a:	add    BYTE PTR [eax],al
  40229c:	or     al,BYTE PTR [eax]
  40229e:	or     al,0x0
  4022a0:	xor    al,BYTE PTR [eax]
  4022a2:	add    BYTE PTR [eax],al
  4022a4:	or     BYTE PTR [eax],al
  4022a6:	or     BYTE PTR [eax],al
  4022a8:	inc    esp
  4022a9:	add    cl,BYTE PTR [eax]
  4022ab:	add    DWORD PTR [eax],eax
  4022ad:	add    BYTE PTR [eax],al
  4022af:	add    BYTE PTR [eax],al
  4022b1:	add    BYTE PTR [eax+0x0],cl
  4022b4:	add    al,0x0
  4022b6:	or     BYTE PTR [eax],al
  4022b8:	jo     0x4022ba
  4022ba:	or     BYTE PTR [eax],al
  4022bc:	or     BYTE PTR [eax],al
  4022be:	add    BYTE PTR [eax+0x0],cl
  4022c1:	add    BYTE PTR [eax],al
  4022c3:	add    BYTE PTR [ebx],cl
  4022c5:	add    BYTE PTR [eax+eax*1],dl
  4022c8:	xor    al,BYTE PTR [eax]
  4022ca:	add    BYTE PTR [eax],al
  4022cc:	adc    BYTE PTR [eax],al
  4022ce:	or     BYTE PTR [eax],al
  4022d0:	inc    esi
  4022d1:	add    al,0x8
  4022d3:	add    eax,0x10000
  4022d8:	add    BYTE PTR [eax],al
  4022da:	dec    eax
  4022db:	add    BYTE PTR [eax+eax*1],al
  4022de:	or     BYTE PTR [eax],al
  4022e0:	dec    eax
  4022e1:	add    BYTE PTR [eax],cl
  4022e3:	add    BYTE PTR [eax],cl
  4022e5:	add    BYTE PTR [ebx],cl
  4022e7:	add    DWORD PTR [eax+eax*1],ecx
  4022ea:	dec    eax
  4022eb:	add    DWORD PTR [eax+0x0],esi
  4022ee:	adc    BYTE PTR [eax],al
  4022f0:	or     BYTE PTR [eax],al
  4022f2:	add    BYTE PTR [eax+0x0],cl
  4022f5:	add    BYTE PTR [eax],al
  4022f7:	add    BYTE PTR [eax+eax*1],cl
  4022fa:	or     al,0x0
  4022fc:	xor    al,BYTE PTR [eax]
  4022fe:	add    BYTE PTR [eax],al
  402300:	or     BYTE PTR [eax],al
  402302:	or     BYTE PTR [eax],al
  402304:	inc    esp
  402305:	add    cl,BYTE PTR [eax]
  402307:	add    DWORD PTR [eax],eax
  402309:	add    BYTE PTR [eax],al
  40230b:	add    BYTE PTR [eax],al
  40230d:	add    BYTE PTR [eax+0x0],cl
  402310:	add    al,0x0
  402312:	or     BYTE PTR [eax],al
  402314:	jo     0x402316
  402316:	or     BYTE PTR [eax],al
  402318:	or     BYTE PTR [eax],al
  40231a:	add    BYTE PTR [eax+0x0],cl
  40231d:	add    BYTE PTR [eax],al
  40231f:	add    BYTE PTR ds:0x32000c00,cl
  402325:	add    BYTE PTR [eax],al
  402327:	add    BYTE PTR [eax],cl
  402329:	add    BYTE PTR [eax],cl
  40232b:	add    BYTE PTR [edx+eax*1+0x8],al
  40232f:	add    DWORD PTR [eax],eax
  402331:	add    BYTE PTR [eax],al
  402333:	add    BYTE PTR [eax],al
  402335:	add    BYTE PTR [eax+0x0],cl
  402338:	add    al,0x0
  40233a:	or     BYTE PTR [eax],al
  40233c:	jo     0x40233e
  40233e:	or     BYTE PTR [eax],al
  402340:	or     BYTE PTR [eax],al
  402342:	add    BYTE PTR [eax+0x0],cl
  402345:	add    BYTE PTR [eax],al
  402347:	add    BYTE PTR [esi],cl
  402349:	add    BYTE PTR [eax+eax*1],dl
  40234c:	xor    al,BYTE PTR [eax]
  40234e:	add    BYTE PTR [eax],al
  402350:	adc    BYTE PTR [eax],al
  402352:	or     BYTE PTR [eax],al
  402354:	inc    esi
  402355:	add    al,0x8
  402357:	add    eax,0x10000
  40235c:	add    BYTE PTR [eax],al
  40235e:	dec    eax
  40235f:	add    BYTE PTR [eax+eax*1],al
  402362:	or     BYTE PTR [eax],al
  402364:	dec    eax
  402365:	add    BYTE PTR [eax],cl
  402367:	add    BYTE PTR [eax],cl
  402369:	add    BYTE PTR [ebx],cl
  40236b:	add    DWORD PTR [eax+eax*1],ecx
  40236e:	nop
  40236f:	add    DWORD PTR [eax+0x0],esi
  402372:	adc    BYTE PTR [eax],al
  402374:	or     BYTE PTR [eax],al
  402376:	add    BYTE PTR [eax],al
  402378:	inc    esp
  402379:	add    BYTE PTR [eax],al
  40237b:	add    BYTE PTR [esi+0x2c],ch
  40237e:	hlt    
  40237f:	ret    
  402380:	int3   
  402381:	aam    0x5a
  402383:	dec    esi
  402384:	xchg   ebx,eax
  402385:	mov    ebx,DWORD PTR [esi+ebx*2+0x2e8c5d8a]
  40238c:	add    DWORD PTR [eax],eax
  40238e:	add    BYTE PTR [eax],al
  402390:	add    al,0x5d
  402392:	mov    BYTE PTR [edx+0x11c91ceb],cl
  402398:	lahf   
  402399:	call   0x106b23a6
  40239e:	dec    eax
  40239f:	pusha  
  4023a0:	add    al,BYTE PTR [eax]
	...
  4023c2:	add    BYTE PTR [eax],al
  4023c4:	sbb    eax,0x1000800
  4023c9:	pop    ebx
  4023ca:	adc    eax,0x8001003
  4023cf:	push   es
  4023d0:	push   es
  4023d1:	dec    esp
  4023d2:	add    cl,dh
  4023d4:	call   FWORD PTR [ebx+0x12]
  4023d7:	add    BYTE PTR [eax],cl
  4023d9:	add    BYTE PTR ds:0x2000600,bl
  4023df:	pop    ebx
  4023e0:	adc    eax,0x4c000600
  4023e5:	add    ah,dh
  4023e7:	call   FWORD PTR [ebx+ebx*2+0x11]
  4023eb:	add    BYTE PTR [esi],cl
  4023ed:	add    BYTE PTR [ebx],bl
  4023ef:	add    BYTE PTR [ecx],al
  4023f1:	add    BYTE PTR [ecx],bl
  4023f3:	add    BYTE PTR [eax+eax*1],ah
  4023f6:	add    DWORD PTR [eax],eax
  4023f8:	add    bl,BYTE PTR [ebx+0x16]
  4023fb:	add    ebp,DWORD PTR [eax+eax*1]
  4023fe:	dec    ebx
  4023ff:	pop    esp
  402400:	inc    esi
  402401:	pop    esp
  402402:	sub    BYTE PTR [eax],al
  402404:	sub    BYTE PTR [eax],al
  402406:	adc    ah,BYTE PTR [eax]
  402408:	out    0xff,al
  40240a:	pop    ebx
  40240b:	or     BYTE PTR [eax+eax*1-0x44],cl
  40240f:	dec    DWORD PTR [eax+eax*1-0x48]
  402413:	dec    DWORD PTR [eax]
  402415:	or     BYTE PTR [ebx+ebx*2+0x11],bl
  402419:	add    BYTE PTR [esi],cl
  40241b:	add    BYTE PTR [ebx],bl
  40241d:	add    BYTE PTR [ecx],al
  40241f:	add    BYTE PTR [ecx],bl
  402421:	add    BYTE PTR [eax],bl
  402423:	add    BYTE PTR [ecx],al
  402425:	add    BYTE PTR [edx],al
  402427:	pop    ebx
  402428:	push   ss
  402429:	add    esp,DWORD PTR [eax]
  40242b:	add    BYTE PTR [ebx+0x5c],cl
  40242e:	inc    esi
  40242f:	pop    esp
  402430:	sbb    al,0x0
  402432:	sbb    al,0x0
  402434:	adc    ah,BYTE PTR [eax]
  402436:	out    0xff,al
  402438:	pop    ebx
  402439:	or     BYTE PTR [eax],cl
  40243b:	dec    esp
  40243c:	add    BYTE PTR [ebp+0x5b0808ff],cl
  402442:	adc    DWORD PTR [eax+ecx*1],ecx
  402445:	pop    esp
  402446:	adc    DWORD PTR [edx+eax*1],edx
  402449:	add    BYTE PTR [edx],dl
  40244b:	and    BYTE PTR [edx],al
  40244d:	add    BYTE PTR [ebx],bl
  40244f:	add    BYTE PTR [ecx],al
  402451:	add    BYTE PTR [ecx],ch
  402453:	push   esp
  402454:	adc    BYTE PTR [eax],al
  402456:	add    DWORD PTR [eax],eax
  402458:	add    bl,BYTE PTR [ebx+0x11]
  40245b:	add    BYTE PTR [edx],al
  40245d:	add    BYTE PTR [ebx],bl
  40245f:	add    BYTE PTR [ecx],al
  402461:	add    BYTE PTR [ecx],ch
  402463:	add    BYTE PTR [eax],dl
  402465:	add    BYTE PTR [ecx],al
  402467:	add    BYTE PTR [edx],al
  402469:	pop    ebx
  40246a:	adc    ah,BYTE PTR [eax]
  40246c:	add    al,BYTE PTR [eax]
  40246e:	sbb    eax,DWORD PTR [eax]
  402470:	add    DWORD PTR [eax],eax
  402472:	sub    DWORD PTR [eax],eax
  402474:	or     al,0x0
  402476:	add    DWORD PTR [eax],eax
  402478:	add    bl,BYTE PTR [ebx+0x12]
  40247b:	add    BYTE PTR [edx],al
  40247d:	add    BYTE PTR [esi],dl
  40247f:	add    eax,DWORD PTR [eax+eax*1]
  402482:	dec    ebx
  402483:	pop    esp
  402484:	inc    esi
  402485:	pop    esp
  402486:	add    BYTE PTR [eax],al
  402488:	add    BYTE PTR [eax],al
  40248a:	adc    cl,BYTE PTR [eax]
  40248c:	and    eax,0x5c085b5c
  402491:	pop    ebx
  402492:	adc    al,BYTE PTR [eax]
  402494:	add    al,BYTE PTR [eax]
  402496:	push   ss
  402497:	add    ecx,DWORD PTR [eax]
  402499:	add    BYTE PTR [ebx+0x5c],cl
  40249c:	inc    esi
  40249d:	pop    esp
  40249e:	add    BYTE PTR [eax],al
  4024a0:	add    BYTE PTR [eax],al
  4024a2:	adc    cl,BYTE PTR [eax]
  4024a4:	and    eax,0x8085b5c
  4024a9:	pop    ebx
  4024aa:	adc    al,BYTE PTR [eax]
  4024ac:	inc    esi
  4024ad:	add    BYTE PTR [ebx],bl
  4024af:	add    BYTE PTR [ecx],al
  4024b1:	add    BYTE PTR [ecx],bl
  4024b3:	add    BYTE PTR [eax+eax*1],al
  4024b6:	add    DWORD PTR [eax],eax
  4024b8:	add    bl,BYTE PTR [ebx+0x16]
  4024bb:	add    ecx,DWORD PTR [eax+eax*1]
  4024be:	dec    ebx
  4024bf:	pop    esp
  4024c0:	inc    esi
  4024c1:	pop    esp
  4024c2:	or     BYTE PTR [eax],al
  4024c4:	or     BYTE PTR [eax],al
  4024c6:	adc    ah,BYTE PTR [eax]
  4024c8:	out    0xff,al
  4024ca:	pop    ebx
  4024cb:	push   cs
  4024cc:	or     BYTE PTR [eax],cl
  4024ce:	pop    esp
  4024cf:	pop    ebx
  4024d0:	sbb    eax,DWORD PTR [ebx]
  4024d2:	or     al,0x0
  4024d4:	sbb    DWORD PTR [eax],eax
  4024d6:	add    BYTE PTR [eax],al
  4024d8:	add    DWORD PTR [eax],eax
  4024da:	dec    ebx
  4024db:	pop    esp
  4024dc:	dec    eax
  4024dd:	dec    ecx
  4024de:	or     al,0x0
  4024e0:	add    BYTE PTR [eax],al
  4024e2:	add    DWORD PTR [eax],eax
  4024e4:	or     BYTE PTR [eax],al
  4024e6:	or     BYTE PTR [eax],al
  4024e8:	adc    ah,BYTE PTR [eax]
  4024ea:	(bad)  
  4024eb:	call   FWORD PTR [ebx+0x4c]
  4024ee:	add    bl,cl
  4024f0:	call   FWORD PTR [ebx+0x16]
  4024f3:	add    ecx,DWORD PTR [eax]
  4024f5:	add    BYTE PTR [ebx+0x5c],cl
  4024f8:	inc    esi
  4024f9:	pop    esp
  4024fa:	add    al,0x0
  4024fc:	add    al,0x0
  4024fe:	adc    ah,BYTE PTR [eax]
  402500:	sar    bh,1
  402502:	pop    ebx
  402503:	or     BYTE PTR [eax],cl
  402505:	pop    ebx
  402506:	adc    DWORD PTR [eax],eax
  402508:	add    al,BYTE PTR [eax]
  40250a:	sbb    eax,DWORD PTR [eax]
  40250c:	add    DWORD PTR [eax],eax
  40250e:	sub    DWORD PTR [eax],eax
  402510:	or     BYTE PTR [eax],al
  402512:	add    DWORD PTR [eax],eax
  402514:	add    bl,BYTE PTR [ebx+0x11]
  402517:	add    BYTE PTR [edx],bh
  402519:	add    BYTE PTR ds:0x2002000,bl
  40251f:	pop    ebx
  402520:	adc    eax,0x8002403
  402525:	dec    esp
  402526:	add    bl,dh
  402528:	call   FWORD PTR [ebx+0x1d]
  40252b:	add    BYTE PTR [eax+0x0],al
  40252e:	add    bl,BYTE PTR [ebx+0x15]
  402531:	add    esi,DWORD PTR [eax+eax*1+0x4c]
  402535:	add    dl,ch
  402537:	dec    DWORD PTR [esi]
  402539:	push   cs
  40253a:	or     BYTE PTR [eax],cl
  40253c:	dec    esp
  40253d:	add    ah,ch
  40253f:	call   FWORD PTR [ebx+ebx*2+0x1b]
  402543:	add    esi,DWORD PTR [eax+eax*1+0x19]
  402547:	add    BYTE PTR [eax],al
  402549:	add    BYTE PTR [ecx],al
  40254b:	add    BYTE PTR [eax+eax*1-0x1e],cl
  40254f:	call   FWORD PTR [ebx+ebx*2+0x16]
  402553:	add    ecx,DWORD PTR [eax]
  402555:	add    BYTE PTR [ebx+0x5c],cl
  402558:	inc    esi
  402559:	pop    esp
  40255a:	add    al,0x0
  40255c:	add    al,0x0
  40255e:	adc    ah,BYTE PTR [eax]
  402560:	loop   0x402561
  402562:	pop    ebx
  402563:	or     BYTE PTR [eax],cl
  402565:	pop    ebx
  402566:	add    BYTE PTR [eax],al
  402568:	push   ebx
  402569:	gs je  0x4025b1
  40256c:	je     0x4025d6
  40256e:	gs jb  0x4025c5
  402571:	jns    0x4025e3
  402573:	gs dec eax
  402575:	popa   
  402576:	outs   dx,BYTE PTR ds:[esi]
  402577:	fs ins BYTE PTR es:[edi],dx
  402579:	imul   ebp,DWORD PTR [esi+0x67],0x0
  402580:	push   ebx
  402581:	outs   dx,BYTE PTR gs:[esi]
  402583:	fs push eax
  402585:	popa   
  402586:	arpl   WORD PTR [ebx+0x65],bp
  402589:	je     0x4025ce
  40258b:	outs   dx,DWORD PTR ds:[esi]
  40258c:	ins    DWORD PTR es:[edi],dx
  40258d:	jo     0x4025fb
  40258f:	gs je  0x4025fb
  402592:	outs   dx,DWORD PTR ds:[esi]
  402593:	outs   dx,BYTE PTR ds:[esi]
  402594:	add    BYTE PTR [eax],al
  402596:	add    BYTE PTR [eax],al
  402598:	dec    esi
  402599:	imul   esp,DWORD PTR [ebx+0x53],0x69636570
  4025a0:	imul   sp,WORD PTR [ebx+0x45],0x7478
  4025a6:	outs   dx,BYTE PTR gs:[esi]
  4025a8:	jae    0x402613
  4025aa:	outs   dx,DWORD PTR ds:[esi]
  4025ab:	outs   dx,BYTE PTR ds:[esi]
  4025ac:	add    BYTE PTR [eax],al
  4025ae:	add    BYTE PTR [eax],al
  4025b0:	push   ebx
  4025b1:	outs   dx,BYTE PTR gs:[esi]
  4025b3:	fs push eax
  4025b5:	popa   
  4025b6:	arpl   WORD PTR [ebx+0x65],bp
  4025b9:	je     0x4025bb
  4025bb:	add    BYTE PTR [ebx+0x65],dl
  4025be:	je     0x402601
  4025c0:	jne    0x402636
  4025c2:	push   0x6f676c41
  4025c7:	jb     0x402632
  4025c9:	je     0x402633
  4025cb:	ins    DWORD PTR es:[edi],dx
  4025cc:	add    BYTE PTR [eax],al
  4025ce:	add    BYTE PTR [eax],al
  4025d0:	push   ebx
  4025d1:	gs je  0x402629
  4025d4:	outs   dx,BYTE PTR ds:[esi]
  4025d5:	imul   esp,DWORD PTR [ebx+0x61],0x69437473
  4025dc:	jo     0x402646
  4025de:	gs jb  0x402622
  4025e1:	ins    BYTE PTR es:[edi],dx
  4025e2:	outs   dx,DWORD PTR ds:[si]
  4025e4:	jb     0x40264f
  4025e6:	je     0x402650
  4025e8:	ins    DWORD PTR es:[edi],dx
  4025e9:	add    BYTE PTR [eax],al
  4025eb:	add    BYTE PTR [ebx+0x65],dl
  4025ee:	je     0x40263d
  4025f0:	jne    0x40265e
  4025f2:	je     0x40265d
  4025f4:	arpl   WORD PTR [ecx+0x73],sp
  4025f7:	je     0x40263c
  4025f9:	imul   esi,DWORD PTR [eax+0x68],0x6c417265
  402600:	outs   dx,DWORD PTR ds:[si]
  402602:	jb     0x40266d
  402604:	je     0x40266e
  402606:	ins    DWORD PTR es:[edi],dx
  402607:	add    BYTE PTR [ebx+0x65],dl
  40260a:	je     0x402650
  40260c:	gs popaw 
  40260f:	jne    0x40267d
  402611:	je     0x40265e
  402613:	gs jns 0x402616
  402616:	add    BYTE PTR [eax],al
  402618:	push   ebx
  402619:	gs je  0x402660
  40261c:	gs popaw 
  40261f:	jne    0x40268d
  402621:	je     0x40266e
  402623:	gs jns 0x40266f
  402626:	add    BYTE PTR fs:[ebx+0x65],dl
  40262a:	je     0x402671
  40262c:	js     0x402691
  40262e:	ins    BYTE PTR es:[edi],dx
  40262f:	jne    0x402695
  402631:	gs push ebp
  402633:	outs   dx,BYTE PTR ds:[esi]
  402634:	outs   dx,BYTE PTR gs:[esi]
  402636:	arpl   WORD PTR [edx+0x79],si
  402639:	jo     0x4026af
  40263b:	gs add BYTE PTR fs:[eax],al
  40263f:	add    BYTE PTR [ebx+0x65],dl
  402642:	je     0x40268f
  402644:	gs jns 0x402694
  402647:	popa   
  402648:	jo     0x4026ba
  40264a:	imul   ebp,DWORD PTR [esi+0x67],0x79654b
  402651:	add    BYTE PTR [eax],al
  402653:	add    BYTE PTR [edx+esi*2+0x69],al
  402657:	jbe    0x4026be
  402659:	jb     0x4026b0
  40265b:	jo     0x4026c0
  40265d:	popa   
  40265e:	ins    BYTE PTR es:[edi],dx
  40265f:	ins    BYTE PTR es:[edi],dx
  402660:	add    BYTE PTR [eax],al
  402662:	add    BYTE PTR [eax],al
  402664:	push   eax
  402665:	gs jb  0x4026ce
  402668:	outs   dx,DWORD PTR ds:[esi]
  402669:	jb     0x4026d8
  40266b:	push   eax
  40266c:	outs   dx,DWORD PTR ds:[esi]
  40266d:	jae    0x4026e3
  40266f:	inc    ecx
  402670:	jae    0x4026e5
  402672:	outs   dx,DWORD PTR ds:[esi]
  402673:	arpl   WORD PTR [ecx+0x61],bp
  402676:	je     0x4026dd
  402678:	add    BYTE PTR [eax],al
  40267a:	add    BYTE PTR [eax],al
  40267c:	push   ebx
  40267d:	je     0x4026ee
  40267f:	jo     0x4026d1
  402681:	outs   dx,DWORD PTR ds:[esi]
  402682:	jae    0x4026f8
  402684:	inc    ecx
  402685:	jae    0x4026fa
  402687:	outs   dx,DWORD PTR ds:[esi]
  402688:	arpl   WORD PTR [ecx+0x61],bp
  40268b:	je     0x4026f2
  40268d:	add    BYTE PTR [eax],al
  40268f:	add    BYTE PTR [edx+0x65],dl
  402692:	arpl   WORD PTR [ebp+0x69],sp
  402695:	jbe    0x4026fc
  402697:	push   eax
  402698:	popa   
  402699:	arpl   WORD PTR [ebx+0x65],bp
  40269c:	je     0x40269e
  40269e:	add    BYTE PTR [eax],al
  4026a0:	push   edx
  4026a1:	arpl   WORD PTR gs:[ebp+0x69],sp
  4026a5:	jbe    0x40270c
  4026a7:	dec    ecx
  4026a8:	outs   dx,BYTE PTR ds:[esi]
  4026a9:	imul   esp,DWORD PTR fs:[ebx+0x61],0x6e6f6974
  4026b1:	add    BYTE PTR [eax],al
  4026b3:	add    BYTE PTR [edi],bh
  4026b5:	sub    al,0x1d
  4026b7:	pop    esi
  4026b8:	adc    DWORD PTR [ecx],0x5c4af011
  4026be:	dec    edx
  4026bf:	ins    BYTE PTR es:[edi],dx
  4026c0:	ja     0x40273b
  4026c2:	xchg   edx,eax
  4026c3:	add    BYTE PTR [eax],0x0
  4026c6:	add    BYTE PTR [eax],al
  4026c8:	dec    eax
  4026c9:	je     0x40270e
  4026cb:	jb     0x402732
  4026cd:	popa   
  4026ce:	je     0x402735
  4026d0:	dec    eax
  4026d1:	popa   
  4026d2:	outs   dx,BYTE PTR ds:[esi]
  4026d3:	fs ins BYTE PTR es:[edi],dx
  4026d5:	gs push esp
  4026d7:	popa   
  4026d8:	bound  ebp,QWORD PTR [ebp+eiz*2+0x0]
  4026dc:	dec    eax
  4026dd:	je     0x402723
  4026df:	gs jae 0x402756
  4026e2:	jb     0x402753
  4026e4:	jns    0x40272e
  4026e6:	popa   
  4026e7:	outs   dx,BYTE PTR ds:[esi]
  4026e8:	fs ins BYTE PTR es:[edi],dx
  4026ea:	gs push esp
  4026ec:	popa   
  4026ed:	bound  ebp,QWORD PTR [ebp+eiz*2+0x0]
  4026f1:	add    BYTE PTR [eax],al
  4026f3:	add    BYTE PTR [eax+0x74],cl
  4026f6:	inc    edi
  4026f7:	jb     0x402768
  4026f9:	ja     0x40274f
  4026fb:	popa   
  4026fc:	bound  ebp,QWORD PTR [ebp+eiz*2+0x0]
  402700:	dec    eax
  402701:	je     0x402756
  402703:	push   0x6b6e6972
  402708:	push   esp
  402709:	popa   
  40270a:	bound  ebp,QWORD PTR [ebp+eiz*2+0x0]
  40270e:	add    BYTE PTR [eax],al
  402710:	mov    al,dh
  402712:	scas   al,BYTE PTR es:[edi]
  402713:	push   ebp
  402714:	shl    ebx,0x56
  402717:	ficomp DWORD PTR [esi-0x6c]
  40271a:	ret    0xad83
  40271d:	sar    BYTE PTR [edi+eax*2],0x2
  402721:	add    al,0x7c
  402723:	ins    DWORD PTR es:[edi],dx
  402724:	pop    ebx
  402725:	aas    
  402726:	outs   dx,BYTE PTR ds:[esi]
  402727:	pop    edi
  402728:	call   0x4802:0x3e3ad9fc
  40272f:	mov    ebx,0x5c005c
  402734:	add    BYTE PTR cs:[eax+eax*1+0x4e],bl
  402739:	add    BYTE PTR [ecx+0x0],ah
  40273c:	je     0x40273e
  40273e:	imul   eax,DWORD PTR [eax],0x650076
  402744:	push   edi
  402745:	add    BYTE PTR [ecx+0x0],ch
  402748:	inc    esi
  402749:	add    BYTE PTR [ecx+0x0],ch
  40274c:	push   eax
  40274d:	add    BYTE PTR [eax+eax*1+0x0],bl
  402751:	add    BYTE PTR [eax],al
  402753:	add    BYTE PTR [eax+eax*1+0x5c],bl
  402757:	add    BYTE PTR [esi],ch
  402759:	add    BYTE PTR [eax+eax*1+0x4e],bl
  40275d:	add    BYTE PTR [ecx+0x0],ah
  402760:	je     0x402762
  402762:	imul   eax,DWORD PTR [eax],0x650076
  402768:	push   edi
  402769:	add    BYTE PTR [ecx+0x0],ch
  40276c:	inc    esi
  40276d:	add    BYTE PTR [ecx+0x0],ch
  402770:	push   eax
  402771:	add    BYTE PTR [eax],al
  402773:	add    BYTE PTR [esp+edi*8+0x5a529c6c],dl
  40277a:	jno    0x402756
  40277c:	jl     0x4027cd
  40277e:	int    0x4c
  402780:	out    0x17,eax
  402782:	mov    eax,0x55
	...
  402793:	add    BYTE PTR [edx],cl
  402795:	cmp    eax,0x559f
  40279a:	add    BYTE PTR [eax],al
  40279c:	add    al,BYTE PTR [eax]
  40279e:	add    BYTE PTR [eax],al
  4027a0:	and    al,0x0
  4027a2:	add    BYTE PTR [eax],al
  4027a4:	push   esp
  4027a5:	sub    BYTE PTR [eax],al
  4027a7:	add    BYTE PTR [esp+ebx*1+0x0],dl
  4027ab:	add    BYTE PTR [eax],al
  4027ad:	add    BYTE PTR [eax],al
  4027af:	add    BYTE PTR [edx],cl
  4027b1:	cmp    eax,0x559f
  4027b6:	add    BYTE PTR [eax],al
  4027b8:	or     eax,0x40000000
  4027bd:	add    al,BYTE PTR [eax]
  4027bf:	add    BYTE PTR [eax+ebp*1+0x1c8c0000],cl
	...
  4027e6:	add    BYTE PTR [eax],al
  4027e8:	push   0x0
	...
  402821:	add    BYTE PTR [eax],al
  402823:	add    BYTE PTR [eax+edx*1],al
  402826:	inc    ecx
  402827:	add    BYTE PTR [eax+0x28],dl
  40282a:	inc    eax
  40282b:	add    BYTE PTR [ecx],al
  40282d:	add    BYTE PTR [eax],al
  40282f:	add    BYTE PTR [edx+eiz*1],bl
  402832:	inc    ecx
  402833:	add    BYTE PTR [eax],al
  402835:	add    BYTE PTR [eax],al
  402837:	add    BYTE PTR [eax+edx*1],bl
  40283a:	inc    eax
  40283b:	add    BYTE PTR [eax+0x0],cl
  40283e:	add    BYTE PTR [eax],al
  402840:	add    BYTE PTR ds:0x0,dh
	...
  40284e:	add    BYTE PTR [eax],al
  402850:	mov    al,0x5
  402852:	add    DWORD PTR [eax],eax
  402854:	push   edx
  402855:	push   ebx
  402856:	inc    esp
  402857:	push   ebx
  402858:	mov    ecx,0x591037e0
  40285d:	fmul   QWORD PTR [ebx+0x4d]
  402860:	lahf   
  402861:	mov    bl,0x70
  402863:	dec    ebp
  402864:	push   eax
  402865:	test   eax,0x1128e
  40286a:	add    BYTE PTR [eax],al
  40286c:	ja     0x4028da
  40286e:	popa   
  40286f:	outs   dx,BYTE PTR ds:[esi]
  402870:	gs js  0x4028e7
  402873:	cs jo  0x4028da
  402876:	bound  eax,QWORD PTR [eax]
	...
  40288c:	inc    edi
  40288d:	inc    ebx
  40288e:	push   esp
  40288f:	dec    esp
  402890:	add    BYTE PTR [eax],dl
  402892:	add    BYTE PTR [eax],al
  402894:	add    al,0x0
  402896:	add    BYTE PTR [eax],al
  402898:	cs inc ebx
  40289a:	push   edx
  40289b:	push   esp
  40289c:	and    al,0x58
  40289e:	inc    ebx
  40289f:	inc    ecx
  4028a0:	add    BYTE PTR [eax],al
  4028a2:	add    BYTE PTR [eax],al
  4028a4:	add    al,0x10
  4028a6:	add    BYTE PTR [eax],al
  4028a8:	add    al,0x0
  4028aa:	add    BYTE PTR [eax],al
  4028ac:	cs inc ebx
  4028ae:	push   edx
  4028af:	push   esp
  4028b0:	and    al,0x58
  4028b2:	inc    ebx
  4028b3:	inc    ecx
  4028b4:	inc    ecx
  4028b5:	add    BYTE PTR [eax],al
  4028b7:	add    BYTE PTR [eax],cl
  4028b9:	adc    BYTE PTR [eax],al
  4028bb:	add    BYTE PTR [eax+eax*1],al
  4028be:	add    BYTE PTR [eax],al
  4028c0:	cs inc ebx
  4028c2:	push   edx
  4028c3:	push   esp
  4028c4:	and    al,0x58
  4028c6:	inc    ebx
  4028c7:	pop    edx
  4028c8:	add    BYTE PTR [eax],al
  4028ca:	add    BYTE PTR [eax],al
  4028cc:	or     al,0x10
  4028ce:	add    BYTE PTR [eax],al
  4028d0:	add    al,0x0
  4028d2:	add    BYTE PTR [eax],al
  4028d4:	cs inc ebx
  4028d6:	push   edx
  4028d7:	push   esp
  4028d8:	and    al,0x58
  4028da:	dec    ecx
  4028db:	inc    ecx
  4028dc:	add    BYTE PTR [eax],al
  4028de:	add    BYTE PTR [eax],al
  4028e0:	adc    BYTE PTR [eax],dl
  4028e2:	add    BYTE PTR [eax],al
  4028e4:	add    al,0x0
  4028e6:	add    BYTE PTR [eax],al
  4028e8:	cs inc ebx
  4028ea:	push   edx
  4028eb:	push   esp
  4028ec:	and    al,0x58
  4028ee:	dec    ecx
  4028ef:	inc    ecx
  4028f0:	inc    ecx
  4028f1:	add    BYTE PTR [eax],al
  4028f3:	add    BYTE PTR [eax+edx*1],dl
  4028f6:	add    BYTE PTR [eax],al
  4028f8:	add    al,0x0
  4028fa:	add    BYTE PTR [eax],al
  4028fc:	cs inc ebx
  4028fe:	push   edx
  4028ff:	push   esp
  402900:	and    al,0x58
  402902:	dec    ecx
  402903:	pop    ecx
  402904:	add    BYTE PTR [eax],al
  402906:	add    BYTE PTR [eax],al
  402908:	sbb    BYTE PTR [eax],dl
  40290a:	add    BYTE PTR [eax],al
  40290c:	add    al,0x0
  40290e:	add    BYTE PTR [eax],al
  402910:	cs inc ebx
  402912:	push   edx
  402913:	push   esp
  402914:	and    al,0x58
  402916:	dec    ecx
  402917:	pop    edx
  402918:	add    BYTE PTR [eax],al
  40291a:	add    BYTE PTR [eax],al
  40291c:	sbb    al,0x10
  40291e:	add    BYTE PTR [eax],al
  402920:	and    BYTE PTR [ecx],al
  402922:	add    BYTE PTR [eax],al
  402924:	imul   sp,WORD PTR cs:[si+0x73],0x7824
  40292c:	add    BYTE PTR [eax],al
  40292e:	add    BYTE PTR [eax],al
  402930:	inc    eax
  402931:	adc    DWORD PTR [eax],eax
  402933:	add    BYTE PTR [eax],dl
  402935:	pop    ss
  402936:	add    BYTE PTR [eax],al
  402938:	cs jb  0x40299f
  40293b:	popa   
  40293c:	je     0x40299f
  40293e:	add    BYTE PTR [eax],al
  402940:	push   eax
  402941:	sub    BYTE PTR [eax],al
  402943:	add    BYTE PTR [eax+eax*1],al
  402946:	add    BYTE PTR [eax],al
  402948:	cs jb  0x4029af
  40294b:	popa   
  40294c:	je     0x4029af
  40294e:	and    al,0x73
  402950:	js     0x4029b6
  402952:	popa   
  402953:	je     0x4029b6
  402955:	add    BYTE PTR [eax],al
  402957:	add    BYTE PTR [eax+ebp*1+0x0],dl
  40295b:	add    BYTE PTR [eax+0x2],bh
  40295e:	add    BYTE PTR [eax],al
  402960:	cs jb  0x4029c7
  402963:	popa   
  402964:	je     0x4029c7
  402966:	and    al,0x7a
  402968:	jp     0x4029e4
  40296a:	bound  esp,QWORD PTR fs:[edi+0x0]
  40296e:	add    BYTE PTR [eax],al
  402970:	shr    BYTE PTR [edx],1
  402972:	add    BYTE PTR [eax],al
  402974:	sahf   
  402975:	fld    QWORD PTR [eax]
  402977:	add    BYTE PTR [esi],ch
  402979:	je     0x4029e0
  40297b:	js     0x4029f1
  40297d:	and    al,0x6d
  40297f:	outs   dx,BYTE PTR ds:[esi]
  402980:	add    BYTE PTR [eax],al
  402982:	add    BYTE PTR [eax],al
  402984:	jo     0x40298e
  402986:	add    DWORD PTR [eax],eax
  402988:	test   BYTE PTR [edx],al
  40298a:	add    BYTE PTR [eax],al
  40298c:	cs js  0x4029f3
  40298f:	popa   
  402990:	je     0x4029f3
  402992:	and    al,0x78
  402994:	add    BYTE PTR [eax],al
  402996:	add    BYTE PTR [eax],al
  402998:	hlt    
  402999:	or     al,BYTE PTR [ecx]
  40299b:	add    BYTE PTR [eax+0x0],ah
  40299e:	add    BYTE PTR [eax],al
  4029a0:	cs imul esp,DWORD PTR fs:[ecx+eiz*2+0x74],0x3224
  4029aa:	add    BYTE PTR [eax],al
  4029ac:	push   esp
  4029ad:	or     eax,DWORD PTR [ecx]
  4029af:	add    BYTE PTR [eax],ah
  4029b1:	add    BYTE PTR [eax],al
  4029b3:	add    BYTE PTR [esi],ch
  4029b5:	imul   esp,DWORD PTR fs:[ecx+eiz*2+0x74],0x3324
  4029be:	add    BYTE PTR [eax],al
  4029c0:	je     0x4029cd
  4029c2:	add    DWORD PTR [eax],eax
  4029c4:	sbb    al,0x0
  4029c6:	add    BYTE PTR [eax],al
  4029c8:	cs imul esp,DWORD PTR fs:[ecx+eiz*2+0x74],0x3424
  4029d2:	add    BYTE PTR [eax],al
  4029d4:	nop
  4029d5:	or     eax,DWORD PTR [ecx]
  4029d7:	add    BYTE PTR [eax+0x0],bl
  4029da:	add    BYTE PTR [eax],al
  4029dc:	cs imul esp,DWORD PTR fs:[ecx+eiz*2+0x74],0x3624
  4029e6:	add    BYTE PTR [eax],al
  4029e8:	call   0x1c402af8
  4029ed:	add    BYTE PTR [eax],al
  4029ef:	add    BYTE PTR [esi],ch
  4029f1:	imul   esp,DWORD PTR fs:[ecx+eiz*2+0x74],0x3724
  4029fa:	add    BYTE PTR [eax],al
  4029fc:	add    BYTE PTR [eax],dl
  4029fe:	add    DWORD PTR [eax],eax
  402a00:	and    al,0x0
  402a02:	add    BYTE PTR [eax],al
  402a04:	cs fs popa 
  402a07:	je     0x402a6a
  402a09:	add    BYTE PTR [eax],al
  402a0b:	add    BYTE PTR [eax+0x10],al
  402a0e:	add    DWORD PTR [eax],eax
  402a10:	mov    WORD PTR ds:0x622e0000,es
  402a16:	jae    0x402a8b
  402a18:	add    BYTE PTR [eax],al
  402a1a:	add    BYTE PTR [eax],al
  402a1c:	add    BYTE PTR [eax],ah
  402a1e:	add    DWORD PTR [eax],eax
  402a20:	sbb    al,0x2
  402a22:	add    BYTE PTR [eax],al
  402a24:	imul   esp,DWORD PTR cs:[ecx+eiz*2+0x74],0x352461
  402a2d:	add    BYTE PTR [eax],al
  402a2f:	add    BYTE PTR [edx+eiz*1],bl
  402a32:	add    DWORD PTR [eax],eax
  402a34:	add    al,0x0
  402a36:	add    BYTE PTR [eax],al
  402a38:	xor    BYTE PTR cs:[eax],dh
  402a3b:	arpl   WORD PTR [esi+0x67],sp
  402a3e:	add    BYTE PTR [eax],al
  402a40:	and    BYTE PTR [edx],ah
  402a42:	add    DWORD PTR [eax],eax
  402a44:	jl     0x402a47
  402a46:	add    BYTE PTR [eax],al
  402a48:	imul   esp,DWORD PTR cs:[ecx+eiz*2+0x74],0x322461
  402a51:	add    BYTE PTR [eax],al
  402a53:	add    BYTE PTR [ebx+eiz*1+0x140001],bl
  402a5a:	add    BYTE PTR [eax],al
  402a5c:	imul   esp,DWORD PTR cs:[ecx+eiz*2+0x74],0x332461
  402a65:	add    BYTE PTR [eax],al
  402a67:	add    BYTE PTR [eax+0x1c000123],dh
  402a6d:	add    al,BYTE PTR [eax]
  402a6f:	add    BYTE PTR [esi],ch
  402a71:	imul   esp,DWORD PTR [ecx+eiz*2+0x74],0x342461
  402a79:	add    BYTE PTR [eax],al
  402a7b:	add    ah,cl
  402a7d:	and    eax,0xb880001
  402a82:	add    BYTE PTR [eax],al
  402a84:	imul   esp,DWORD PTR cs:[ecx+eiz*2+0x74],0x362461
  402a8d:	add    BYTE PTR [eax],al
  402a8f:	add    BYTE PTR [eax],al
  402a91:	inc    eax
  402a92:	add    DWORD PTR [eax],eax
  402a94:	sbb    al,0x0
  402a96:	add    BYTE PTR [eax],al
  402a98:	cs imul esp,DWORD PTR fs:[ecx+eiz*2+0x74],0x3524
  402aa2:	add    BYTE PTR [eax],al
  402aa4:	add    BYTE PTR [eax+0x1],dl
  402aa7:	add    al,dh
  402aa9:	add    BYTE PTR [eax],al
  402aab:	add    BYTE PTR [esi],ch
  402aad:	jb     0x402b22
  402aaf:	jb     0x402b14
  402ab1:	and    al,0x30
  402ab3:	xor    DWORD PTR [eax],eax
  402ab5:	add    BYTE PTR [eax],al
  402ab7:	add    al,dh
  402ab9:	push   eax
  402aba:	add    DWORD PTR [eax],eax
  402abc:	pop    eax
  402abd:	pop    es
  402abe:	add    BYTE PTR [eax],al
  402ac0:	cs jb  0x402b36
  402ac3:	jb     0x402b28
  402ac5:	and    al,0x30
  402ac7:	xor    al,BYTE PTR [eax]
	...
  402ad5:	mov    edi,edi
  402ad7:	push   ebp
  402ad8:	mov    ebp,esp
  402ada:	push   0x0
  402adc:	push   ecx
  402add:	push   edx
  402ade:	push   0x2b
  402ae0:	push   DWORD PTR [ebp+0xc]
  402ae3:	push   DWORD PTR [ebp+0x8]
  402ae6:	call   DWORD PTR ds:0x412184
  402aec:	add    esp,0x18
  402aef:	pop    ebp
  402af0:	ret    0x8
  402af3:	int3   
  402af4:	int3   
  402af5:	int3   
  402af6:	int3   
  402af7:	int3   
  402af8:	mov    edi,edi
  402afa:	push   ebp
  402afb:	mov    ebp,esp
  402afd:	push   0x0
  402aff:	push   0x4
  402b01:	lea    eax,[ebp+0x10]
  402b04:	push   eax
  402b05:	push   ecx
  402b06:	push   edx
  402b07:	push   0x2b
  402b09:	push   DWORD PTR [ebp+0xc]
  402b0c:	push   DWORD PTR [ebp+0x8]
  402b0f:	call   DWORD PTR ds:0x412184
  402b15:	add    esp,0x20
  402b18:	pop    ebp
  402b19:	ret    0xc
  402b1c:	int3   
  402b1d:	int3   
  402b1e:	int3   
  402b1f:	int3   
  402b20:	int3   
  402b21:	int3   
  402b22:	int3   
  402b23:	int3   
  402b24:	int3   
  402b25:	int3   
  402b26:	int3   
  402b27:	int3   
  402b28:	int3   
  402b29:	int3   
  402b2a:	int3   
  402b2b:	int3   
  402b2c:	int3   
  402b2d:	int3   
  402b2e:	int3   
  402b2f:	int3   
  402b30:	mov    edi,edi
  402b32:	push   ebp
  402b33:	mov    ebp,esp
  402b35:	push   ecx
  402b36:	mov    eax,DWORD PTR [ebp+0x10]
  402b39:	push   ebx
  402b3a:	xor    ebx,ebx
  402b3c:	push   esi
  402b3d:	mov    esi,DWORD PTR [ebp+0xc]
  402b40:	mov    DWORD PTR [eax],ebx
  402b42:	mov    eax,DWORD PTR [ebp+0x8]
  402b45:	push   edi
  402b46:	sub    eax,0x4
  402b49:	je     0x402b5d
  402b4b:	sub    eax,0x1
  402b4e:	je     0x402b55
  402b50:	push   0x57
  402b52:	pop    eax
  402b53:	jmp    0x402b9d
  402b55:	mov    edi,ebx
  402b57:	mov    eax,ebx
  402b59:	mov    dl,bl
  402b5b:	jmp    0x402b80
  402b5d:	push   DWORD PTR [ebp+0x14]
  402b60:	call   DWORD PTR ds:0x412194
  402b66:	mov    edi,edx
  402b68:	mov    ebx,eax
  402b6a:	push   edi
  402b6b:	push   ebx
  402b6c:	call   DWORD PTR ds:0x412190
  402b72:	push   edi
  402b73:	push   ebx
  402b74:	mov    BYTE PTR [ebp-0x1],al
  402b77:	call   DWORD PTR ds:0x41218c
  402b7d:	mov    dl,BYTE PTR [ebp-0x1]
  402b80:	test   BYTE PTR [esi+0x1a],0x2
  402b84:	je     0x402b8f
  402b86:	mov    ecx,DWORD PTR [esi+0x10]
  402b89:	test   ecx,ecx
  402b8b:	je     0x402b8f
  402b8d:	mov    esi,ecx
  402b8f:	mov    DWORD PTR [esi+0x10],ebx
  402b92:	mov    DWORD PTR [esi+0x14],edi
  402b95:	mov    BYTE PTR [esi+0x19],dl
  402b98:	mov    DWORD PTR [esi+0x1c],eax
  402b9b:	xor    eax,eax
  402b9d:	pop    edi
  402b9e:	pop    esi
  402b9f:	pop    ebx
  402ba0:	mov    esp,ebp
  402ba2:	pop    ebp
  402ba3:	ret    0x10
  402ba6:	int3   
  402ba7:	int3   
  402ba8:	int3   
  402ba9:	int3   
  402baa:	int3   
  402bab:	mov    edi,edi
  402bad:	push   esi
  402bae:	mov    esi,DWORD PTR ds:0x411010
  402bb4:	push   edi
  402bb5:	mov    edi,0x411010
  402bba:	cmp    esi,edi
  402bbc:	je     0x402be8
  402bbe:	jmp    0x402bde
  402bc0:	mov    eax,DWORD PTR [esi+0x8]
  402bc3:	or     eax,DWORD PTR [esi+0xc]
  402bc6:	je     0x402bdc
  402bc8:	push   DWORD PTR [esi+0xc]
  402bcb:	push   DWORD PTR [esi+0x8]
  402bce:	call   DWORD PTR ds:0x412180
  402bd4:	and    DWORD PTR [esi+0x8],0x0
  402bd8:	and    DWORD PTR [esi+0xc],0x0
  402bdc:	mov    esi,DWORD PTR [esi]
  402bde:	test   esi,esi
  402be0:	jne    0x402bc0
  402be2:	mov    DWORD PTR ds:0x411010,edi
  402be8:	pop    edi
  402be9:	pop    esi
  402bea:	ret    
  402beb:	int3   
  402bec:	int3   
  402bed:	int3   
  402bee:	int3   
  402bef:	int3   
  402bf0:	mov    edi,edi
  402bf2:	push   ebp
  402bf3:	mov    ebp,esp
  402bf5:	and    esp,0xfffffff8
  402bf8:	push   ecx
  402bf9:	and    DWORD PTR [esp],0x0
  402bfd:	push   ebx
  402bfe:	push   esi
  402bff:	push   edi
  402c00:	mov    ebx,edx
  402c02:	mov    esi,ecx
  402c04:	mov    eax,ds:0x411010
  402c09:	cmp    eax,0x411010
  402c0e:	je     0x402c2f
  402c10:	cmp    BYTE PTR [eax+0x19],0x4
  402c14:	jb     0x402c2f
  402c16:	test   BYTE PTR [eax+0x1c],0x1
  402c1a:	je     0x402c2f
  402c1c:	push   DWORD PTR [eax+0x14]
  402c1f:	mov    edx,0x40138c
  402c24:	push   DWORD PTR [eax+0x10]
  402c27:	push   0xa
  402c29:	pop    ecx
  402c2a:	call   0x402ad5
  402c2f:	lea    eax,[esp+0xc]
  402c33:	mov    edx,esi
  402c35:	push   eax
  402c36:	push   ecx
  402c37:	push   0x0
  402c39:	push   0x2
  402c3b:	mov    ecx,0x4113c8
  402c40:	call   0x409b32
  402c45:	mov    edi,eax
  402c47:	test   edi,edi
  402c49:	je     0x402c7f
  402c4b:	mov    ecx,DWORD PTR ds:0x411010
  402c51:	cmp    ecx,0x411010
  402c57:	je     0x402ce9
  402c5d:	cmp    BYTE PTR [ecx+0x19],0x1
  402c61:	jb     0x402cc1
  402c63:	test   BYTE PTR [ecx+0x1c],0x1
  402c67:	je     0x402cc1
  402c69:	push   edi
  402c6a:	push   DWORD PTR [ecx+0x14]
  402c6d:	mov    edx,0x40138c
  402c72:	push   DWORD PTR [ecx+0x10]
  402c75:	push   0xb
  402c77:	pop    ecx
  402c78:	call   0x402af8
  402c7d:	jmp    0x402cbb
  402c7f:	mov    eax,DWORD PTR [ebp+0x10]
  402c82:	mov    esi,DWORD PTR [esp+0xc]
  402c86:	mov    ecx,esi
  402c88:	mov    DWORD PTR [eax],0x1
  402c8e:	call   0x409ebb
  402c93:	test   ebx,ebx
  402c95:	je     0x402c9c
  402c97:	mov    eax,DWORD PTR [esi+0x18]
  402c9a:	mov    DWORD PTR [ebx],eax
  402c9c:	mov    ecx,DWORD PTR [ebp+0x8]
  402c9f:	test   ecx,ecx
  402ca1:	je     0x402ca8
  402ca3:	mov    eax,DWORD PTR [esi+0x1c]
  402ca6:	mov    DWORD PTR [ecx],eax
  402ca8:	mov    ecx,DWORD PTR [ebp+0xc]
  402cab:	test   ecx,ecx
  402cad:	je     0x402cb4
  402caf:	mov    eax,DWORD PTR [esi+0x20]
  402cb2:	mov    DWORD PTR [ecx],eax
  402cb4:	mov    ecx,esi
  402cb6:	call   0x409f29
  402cbb:	mov    ecx,DWORD PTR ds:0x411010
  402cc1:	cmp    ecx,0x411010
  402cc7:	je     0x402ce9
  402cc9:	cmp    BYTE PTR [ecx+0x19],0x4
  402ccd:	jb     0x402ce9
  402ccf:	test   BYTE PTR [ecx+0x1c],0x1
  402cd3:	je     0x402ce9
  402cd5:	push   edi
  402cd6:	push   DWORD PTR [ecx+0x14]
  402cd9:	mov    edx,0x40138c
  402cde:	push   DWORD PTR [ecx+0x10]
  402ce1:	push   0xc
  402ce3:	pop    ecx
  402ce4:	call   0x402af8
  402ce9:	mov    eax,edi
  402ceb:	pop    edi
  402cec:	pop    esi
  402ced:	pop    ebx
  402cee:	mov    esp,ebp
  402cf0:	pop    ebp
  402cf1:	ret    0xc
  402cf4:	int3   
  402cf5:	int3   
  402cf6:	int3   
  402cf7:	int3   
  402cf8:	int3   
  402cf9:	mov    edi,edi
  402cfb:	push   ebp
  402cfc:	mov    ebp,esp
  402cfe:	and    esp,0xfffffff8
  402d01:	push   ecx
  402d02:	push   ebx
  402d03:	push   esi
  402d04:	push   edi
  402d05:	mov    edi,edx
  402d07:	mov    ebx,ecx
  402d09:	xor    esi,esi
  402d0b:	mov    eax,ds:0x411010
  402d10:	cmp    eax,0x411010
  402d15:	je     0x402d3b
  402d17:	cmp    BYTE PTR [eax+0x19],0x4
  402d1b:	jb     0x402d3b
  402d1d:	test   BYTE PTR [eax+0x1c],0x1
  402d21:	je     0x402d3b
  402d23:	push   DWORD PTR [eax+0x14]
  402d26:	mov    edx,0x40138c
  402d2b:	push   DWORD PTR [eax+0x10]
  402d2e:	push   0xd
  402d30:	pop    ecx
  402d31:	call   0x402ad5
  402d36:	mov    eax,ds:0x411010
  402d3b:	test   ebx,ebx
  402d3d:	je     0x402d88
  402d3f:	test   edi,edi
  402d41:	je     0x402d88
  402d43:	push   edi
  402d44:	push   ecx
  402d45:	mov    edx,ebx
  402d47:	mov    ecx,0x4113c8
  402d4c:	call   0x409c9a
  402d51:	mov    esi,eax
  402d53:	test   esi,esi
  402d55:	je     0x402d83
  402d57:	mov    eax,ds:0x411010
  402d5c:	cmp    eax,0x411010
  402d61:	je     0x402daf
  402d63:	cmp    BYTE PTR [eax+0x19],0x1
  402d67:	jb     0x402d88
  402d69:	test   BYTE PTR [eax+0x1c],0x1
  402d6d:	je     0x402d88
  402d6f:	push   esi
  402d70:	push   DWORD PTR [eax+0x14]
  402d73:	mov    edx,0x40138c
  402d78:	push   DWORD PTR [eax+0x10]
  402d7b:	push   0xe
  402d7d:	pop    ecx
  402d7e:	call   0x402af8
  402d83:	mov    eax,ds:0x411010
  402d88:	cmp    eax,0x411010
  402d8d:	je     0x402daf
  402d8f:	cmp    BYTE PTR [eax+0x19],0x4
  402d93:	jb     0x402daf
  402d95:	test   BYTE PTR [eax+0x1c],0x1
  402d99:	je     0x402daf
  402d9b:	push   esi
  402d9c:	push   DWORD PTR [eax+0x14]
  402d9f:	mov    edx,0x40138c
  402da4:	push   DWORD PTR [eax+0x10]
  402da7:	push   0xf
  402da9:	pop    ecx
  402daa:	call   0x402af8
  402daf:	pop    edi
  402db0:	pop    esi
  402db1:	pop    ebx
  402db2:	mov    esp,ebp
  402db4:	pop    ebp
  402db5:	ret    
  402db6:	int3   
  402db7:	int3   
  402db8:	int3   
  402db9:	int3   
  402dba:	int3   
  402dbb:	mov    edi,edi
  402dbd:	push   ebp
  402dbe:	mov    ebp,esp
  402dc0:	sub    esp,0x18
  402dc3:	push   ebx
  402dc4:	push   esi
  402dc5:	push   edi
  402dc6:	xor    edi,edi
  402dc8:	mov    DWORD PTR [ebp-0x14],edx
  402dcb:	mov    esi,edi
  402dcd:	mov    DWORD PTR [ebp-0x10],ecx
  402dd0:	mov    DWORD PTR [ebp-0xc],edi
  402dd3:	mov    DWORD PTR [ebp-0x4],esi
  402dd6:	mov    DWORD PTR [ebp-0x8],edi
  402dd9:	mov    eax,ds:0x411010
  402dde:	cmp    eax,0x411010
  402de3:	je     0x402e0c
  402de5:	cmp    BYTE PTR [eax+0x19],0x4
  402de9:	jb     0x402e0c
  402deb:	test   BYTE PTR [eax+0x1c],0x1
  402def:	je     0x402e0c
  402df1:	push   DWORD PTR [eax+0x14]
  402df4:	mov    edx,0x40138c
  402df9:	push   DWORD PTR [eax+0x10]
  402dfc:	push   0x10
  402dfe:	pop    ecx
  402dff:	call   0x402ad5
  402e04:	mov    eax,ds:0x411010
  402e09:	mov    ecx,DWORD PTR [ebp-0x10]
  402e0c:	cmp    DWORD PTR [ebp+0x8],esi
  402e0f:	jne    0x402e41
  402e11:	push   0x57
  402e13:	pop    ebx
  402e14:	cmp    eax,0x411010
  402e19:	je     0x402ecf
  402e1f:	test   BYTE PTR [eax+0x1c],0x1
  402e23:	je     0x402ecf
  402e29:	push   DWORD PTR [eax+0x14]
  402e2c:	mov    edx,0x40138c
  402e31:	push   DWORD PTR [eax+0x10]
  402e34:	push   0x11
  402e36:	pop    ecx
  402e37:	call   0x402ad5
  402e3c:	jmp    0x402ecf
  402e41:	lea    eax,[ebp-0x4]
  402e44:	mov    edx,ecx
  402e46:	push   eax
  402e47:	push   ecx
  402e48:	push   edi
  402e49:	push   0x2
  402e4b:	mov    ecx,0x4113c8
  402e50:	call   0x409b32
  402e55:	mov    esi,DWORD PTR [ebp-0x4]
  402e58:	mov    ebx,eax
  402e5a:	test   ebx,ebx
  402e5c:	jne    0x402ecf
  402e5e:	mov    ecx,esi
  402e60:	call   0x409ebb
  402e65:	mov    eax,DWORD PTR [ebp-0x14]
  402e68:	xor    ecx,ecx
  402e6a:	inc    ecx
  402e6b:	mov    DWORD PTR [ebp-0xc],ecx
  402e6e:	cmp    eax,DWORD PTR [esi+0x24]
  402e71:	je     0x402ea2
  402e73:	push   0x6
  402e75:	pop    ebx
  402e76:	mov    eax,ds:0x411010
  402e7b:	cmp    eax,0x411010
  402e80:	je     0x402ecf
  402e82:	cmp    BYTE PTR [eax+0x19],cl
  402e85:	jb     0x402ecf
  402e87:	test   BYTE PTR [eax+0x1c],cl
  402e8a:	je     0x402ecf
  402e8c:	push   ebx
  402e8d:	push   DWORD PTR [eax+0x14]
  402e90:	mov    edx,0x40138c
  402e95:	push   DWORD PTR [eax+0x10]
  402e98:	push   0x12
  402e9a:	pop    ecx
  402e9b:	call   0x402af8
  402ea0:	jmp    0x402ecf
  402ea2:	lea    eax,[ebp-0x8]
  402ea5:	push   eax
  402ea6:	push   0x14
  402ea8:	call   0x409fb0
  402ead:	mov    ebx,eax
  402eaf:	test   ebx,ebx
  402eb1:	jne    0x402ecc
  402eb3:	mov    eax,DWORD PTR [ebp-0x8]
  402eb6:	mov    edi,eax
  402eb8:	mov    esi,DWORD PTR [esi+0x24]
  402ebb:	push   0x5
  402ebd:	pop    ecx
  402ebe:	rep movs DWORD PTR es:[edi],DWORD PTR ds:[esi]
  402ec0:	mov    ecx,DWORD PTR [ebp+0x8]
  402ec3:	xor    edi,edi
  402ec5:	mov    esi,DWORD PTR [ebp-0x4]
  402ec8:	mov    DWORD PTR [ecx],eax
  402eca:	jmp    0x402ecf
  402ecc:	mov    edi,DWORD PTR [ebp-0x8]
  402ecf:	push   edi
  402ed0:	call   0x40a080
  402ed5:	cmp    DWORD PTR [ebp-0xc],0x0
  402ed9:	je     0x402ee2
  402edb:	mov    ecx,esi
  402edd:	call   0x409f29
  402ee2:	test   esi,esi
  402ee4:	je     0x402f20
  402ee6:	mov    edx,DWORD PTR [ebp-0x10]
  402ee9:	push   0x1
  402eeb:	push   ecx
  402eec:	mov    ecx,0x4113c8
  402ef1:	call   0x409c9a
  402ef6:	test   eax,eax
  402ef8:	je     0x402f20
  402efa:	mov    eax,ds:0x411010
  402eff:	cmp    eax,0x411010
  402f04:	je     0x402f20
  402f06:	test   BYTE PTR [eax+0x1c],0x1
  402f0a:	je     0x402f20
  402f0c:	push   ebx
  402f0d:	push   DWORD PTR [eax+0x14]
  402f10:	mov    edx,0x40138c
  402f15:	push   DWORD PTR [eax+0x10]
  402f18:	push   0x13
  402f1a:	pop    ecx
  402f1b:	call   0x402af8
  402f20:	pop    edi
  402f21:	pop    esi
  402f22:	mov    eax,ebx
  402f24:	pop    ebx
  402f25:	mov    esp,ebp
  402f27:	pop    ebp
  402f28:	ret    0x4
  402f2b:	int3   
  402f2c:	int3   
  402f2d:	int3   
  402f2e:	int3   
  402f2f:	int3   
  402f30:	mov    edi,edi
  402f32:	push   ebp
  402f33:	mov    ebp,esp
  402f35:	sub    esp,0x10
  402f38:	and    DWORD PTR [ebp-0x4],0x0
  402f3c:	push   ebx
  402f3d:	push   esi
  402f3e:	push   edi
  402f3f:	mov    ebx,edx
  402f41:	mov    edi,ecx
  402f43:	mov    DWORD PTR [ebp-0x8],ebx
  402f46:	mov    DWORD PTR [ebp-0x10],edi
  402f49:	mov    eax,ds:0x411010
  402f4e:	cmp    eax,0x411010
  402f53:	je     0x402f79
  402f55:	cmp    BYTE PTR [eax+0x19],0x4
  402f59:	jb     0x402f79
  402f5b:	test   BYTE PTR [eax+0x1c],0x1
  402f5f:	je     0x402f79
  402f61:	push   DWORD PTR [eax+0x14]
  402f64:	mov    edx,0x40138c
  402f69:	push   DWORD PTR [eax+0x10]
  402f6c:	push   0x14
  402f6e:	pop    ecx
  402f6f:	call   0x402ad5
  402f74:	mov    eax,ds:0x411010
  402f79:	test   ebx,ebx
  402f7b:	je     0x402fb3
  402f7d:	cmp    DWORD PTR [ebp+0x8],0x0
  402f81:	jne    0x402fb3
  402f83:	push   0x57
  402f85:	pop    ebx
  402f86:	cmp    eax,0x411010
  402f8b:	je     0x403058
  402f91:	test   BYTE PTR [eax+0x1c],0x1
  402f95:	je     0x403058
  402f9b:	push   DWORD PTR [eax+0x14]
  402f9e:	mov    edx,0x40138c
  402fa3:	push   DWORD PTR [eax+0x10]
  402fa6:	push   0x15
  402fa8:	pop    ecx
  402fa9:	call   0x402ad5
  402fae:	jmp    0x403058
  402fb3:	lea    eax,[ebp-0x4]
  402fb6:	mov    edx,edi
  402fb8:	push   eax
  402fb9:	push   ecx
  402fba:	push   0x0
  402fbc:	push   0x2
  402fbe:	mov    ecx,0x4113c8
  402fc3:	call   0x409b32
  402fc8:	mov    esi,DWORD PTR [ebp-0x4]
  402fcb:	mov    ebx,eax
  402fcd:	test   ebx,ebx
  402fcf:	jne    0x40301b
  402fd1:	mov    ecx,esi
  402fd3:	call   0x409dd9
  402fd8:	lea    edi,[esi+0x24]
  402fdb:	push   DWORD PTR [edi]
  402fdd:	mov    DWORD PTR [ebp-0xc],edi
  402fe0:	call   0x40a080
  402fe5:	and    DWORD PTR [edi],ebx
  402fe7:	cmp    DWORD PTR [ebp-0x8],ebx
  402fea:	je     0x403011
  402fec:	push   edi
  402fed:	push   0x14
  402fef:	call   0x409fb0
  402ff4:	mov    ebx,eax
  402ff6:	test   ebx,ebx
  402ff8:	jne    0x403011
  402ffa:	mov    edi,DWORD PTR [edi]
  402ffc:	mov    esi,DWORD PTR [ebp-0x8]
  402fff:	mov    eax,DWORD PTR [ebp-0xc]
  403002:	push   0x5
  403004:	pop    ecx
  403005:	rep movs DWORD PTR es:[edi],DWORD PTR ds:[esi]
  403007:	mov    ecx,DWORD PTR [ebp+0x8]
  40300a:	mov    eax,DWORD PTR [eax]
  40300c:	mov    esi,DWORD PTR [ebp-0x4]
  40300f:	mov    DWORD PTR [ecx],eax
  403011:	mov    ecx,esi
  403013:	call   0x409e47
  403018:	mov    edi,DWORD PTR [ebp-0x10]
  40301b:	test   esi,esi
  40301d:	je     0x403058
  40301f:	push   0x1
  403021:	push   ecx
  403022:	mov    edx,edi
  403024:	mov    ecx,0x4113c8
  403029:	call   0x409c9a
  40302e:	test   eax,eax
  403030:	je     0x403058
  403032:	mov    eax,ds:0x411010
  403037:	cmp    eax,0x411010
  40303c:	je     0x403058
  40303e:	test   BYTE PTR [eax+0x1c],0x1
  403042:	je     0x403058
  403044:	push   ebx
  403045:	push   DWORD PTR [eax+0x14]
  403048:	mov    edx,0x40138c
  40304d:	push   DWORD PTR [eax+0x10]
  403050:	push   0x16
  403052:	pop    ecx
  403053:	call   0x402af8
  403058:	pop    edi
  403059:	pop    esi
  40305a:	mov    eax,ebx
  40305c:	pop    ebx
  40305d:	mov    esp,ebp
  40305f:	pop    ebp
  403060:	ret    0x4
  403063:	int3   
  403064:	int3   
  403065:	int3   
  403066:	int3   
  403067:	int3   
  403068:	mov    edi,edi
  40306a:	push   ebp
  40306b:	mov    ebp,esp
  40306d:	sub    esp,0x10
  403070:	and    DWORD PTR [ebp-0x4],0x0
  403074:	push   ebx
  403075:	push   esi
  403076:	mov    ebx,edx
  403078:	mov    esi,ecx
  40307a:	push   edi
  40307b:	mov    DWORD PTR [ebp-0x8],ebx
  40307e:	mov    DWORD PTR [ebp-0xc],esi
  403081:	mov    eax,ds:0x411010
  403086:	cmp    eax,0x411010
  40308b:	je     0x4030b1
  40308d:	cmp    BYTE PTR [eax+0x19],0x4
  403091:	jb     0x4030b1
  403093:	test   BYTE PTR [eax+0x1c],0x1
  403097:	je     0x4030b1
  403099:	push   DWORD PTR [eax+0x14]
  40309c:	mov    edx,0x40138c
  4030a1:	push   DWORD PTR [eax+0x10]
  4030a4:	push   0x17
  4030a6:	pop    ecx
  4030a7:	call   0x402ad5
  4030ac:	mov    eax,ds:0x411010
  4030b1:	test   ebx,ebx
  4030b3:	je     0x403144
  4030b9:	mov    edi,DWORD PTR [ebp+0x8]
  4030bc:	test   edi,edi
  4030be:	je     0x403144
  4030c4:	lea    eax,[ebp-0x4]
  4030c7:	mov    edx,esi
  4030c9:	push   eax
  4030ca:	push   ecx
  4030cb:	push   0x0
  4030cd:	push   0x2
  4030cf:	mov    ecx,0x4113c8
  4030d4:	call   0x409b32
  4030d9:	mov    ebx,eax
  4030db:	test   ebx,ebx
  4030dd:	jne    0x403103
  4030df:	mov    ecx,DWORD PTR [ebp-0x4]
  4030e2:	call   0x409ebb
  4030e7:	mov    eax,DWORD PTR [ebp-0x4]
  4030ea:	mov    edx,DWORD PTR [ebp-0x8]
  4030ed:	mov    ecx,DWORD PTR [eax+0x28]
  4030f0:	lea    esi,[eax+0x2c]
  4030f3:	mov    DWORD PTR [edx],ecx
  4030f5:	mov    ecx,eax
  4030f7:	movs   DWORD PTR es:[edi],DWORD PTR ds:[esi]
  4030f8:	movs   DWORD PTR es:[edi],DWORD PTR ds:[esi]
  4030f9:	movs   DWORD PTR es:[edi],DWORD PTR ds:[esi]
  4030fa:	movs   DWORD PTR es:[edi],DWORD PTR ds:[esi]
  4030fb:	call   0x409f29
  403100:	mov    esi,DWORD PTR [ebp-0xc]
  403103:	cmp    DWORD PTR [ebp-0x4],0x0
  403107:	je     0x403167
  403109:	push   0x1
  40310b:	push   ecx
  40310c:	mov    edx,esi
  40310e:	mov    ecx,0x4113c8
  403113:	call   0x409c9a
  403118:	test   eax,eax
  40311a:	je     0x403167
  40311c:	mov    eax,ds:0x411010
  403121:	cmp    eax,0x411010
  403126:	je     0x403167
  403128:	test   BYTE PTR [eax+0x1c],0x1
  40312c:	je     0x403167
  40312e:	push   ebx
  40312f:	push   DWORD PTR [eax+0x14]
  403132:	mov    edx,0x40138c
  403137:	push   DWORD PTR [eax+0x10]
  40313a:	push   0x19
  40313c:	pop    ecx
  40313d:	call   0x402af8
  403142:	jmp    0x403167
  403144:	push   0x57
  403146:	pop    ebx
  403147:	cmp    eax,0x411010
  40314c:	je     0x403167
  40314e:	test   BYTE PTR [eax+0x1c],0x1
  403152:	je     0x403167
  403154:	push   DWORD PTR [eax+0x14]
  403157:	mov    edx,0x40138c
  40315c:	push   DWORD PTR [eax+0x10]
  40315f:	push   0x18
  403161:	pop    ecx
  403162:	call   0x402ad5
  403167:	pop    edi
  403168:	pop    esi
  403169:	mov    eax,ebx
  40316b:	pop    ebx
  40316c:	mov    esp,ebp
  40316e:	pop    ebp
  40316f:	ret    0x4
  403172:	int3   
  403173:	int3   
  403174:	int3   
  403175:	int3   
  403176:	int3   
  403177:	mov    edi,edi
  403179:	push   ebp
  40317a:	mov    ebp,esp
  40317c:	sub    esp,0x14
  40317f:	push   ebx
  403180:	push   esi
  403181:	push   edi
  403182:	xor    edi,edi
  403184:	mov    DWORD PTR [ebp-0xc],0x4
  40318b:	mov    DWORD PTR [ebp-0x8],edi
  40318e:	mov    DWORD PTR [ebp-0x4],edi
  403191:	mov    DWORD PTR [ebp-0x10],edi
  403194:	mov    eax,ds:0x411010
  403199:	xor    ebx,ebx
  40319b:	inc    ebx
  40319c:	cmp    eax,0x411010
  4031a1:	je     0x4031c1
  4031a3:	cmp    BYTE PTR [eax+0x19],0x4
  4031a7:	jb     0x4031c1
  4031a9:	test   BYTE PTR [eax+0x1c],bl
  4031ac:	je     0x4031c1
  4031ae:	push   DWORD PTR [eax+0x14]
  4031b1:	mov    edx,0x40138c
  4031b6:	push   DWORD PTR [eax+0x10]
  4031b9:	push   0x1a
  4031bb:	pop    ecx
  4031bc:	call   0x402ad5
  4031c1:	lea    eax,[ebp-0x4]
  4031c4:	mov    DWORD PTR ds:0x41100c,0xea60
  4031ce:	push   eax
  4031cf:	push   0x20019
  4031d4:	push   edi
  4031d5:	push   0x4012c0
  4031da:	push   0x80000002
  4031df:	call   DWORD PTR ds:0x41211c
  4031e5:	mov    esi,eax
  4031e7:	test   esi,esi
  4031e9:	je     0x403229
  4031eb:	mov    ecx,DWORD PTR ds:0x411010
  4031f1:	cmp    ecx,0x411010
  4031f7:	je     0x4032eb
  4031fd:	cmp    BYTE PTR [ecx+0x19],0x4
  403201:	jb     0x4032c4
  403207:	test   BYTE PTR [ecx+0x1c],bl
  40320a:	je     0x4032c4
  403210:	push   esi
  403211:	push   DWORD PTR [ecx+0x14]
  403214:	mov    edx,0x40138c
  403219:	push   DWORD PTR [ecx+0x10]
  40321c:	push   0x1b
  40321e:	pop    ecx
  40321f:	call   0x402af8
  403224:	jmp    0x4032be
  403229:	lea    eax,[ebp-0xc]
  40322c:	push   eax
  40322d:	lea    eax,[ebp-0x10]
  403230:	push   eax
  403231:	lea    eax,[ebp-0x8]
  403234:	push   eax
  403235:	push   edi
  403236:	push   0x401318
  40323b:	push   DWORD PTR [ebp-0x4]
  40323e:	call   DWORD PTR ds:0x412120
  403244:	mov    esi,eax
  403246:	test   esi,esi
  403248:	je     0x403276
  40324a:	mov    eax,ds:0x411010
  40324f:	cmp    eax,0x411010
  403254:	je     0x4032b5
  403256:	cmp    BYTE PTR [eax+0x19],bl
  403259:	jb     0x4032b5
  40325b:	test   BYTE PTR [eax+0x1c],bl
  40325e:	je     0x4032b5
  403260:	push   esi
  403261:	push   DWORD PTR [eax+0x14]
  403264:	mov    edx,0x40138c
  403269:	push   DWORD PTR [eax+0x10]
  40326c:	push   0x1c
  40326e:	pop    ecx
  40326f:	call   0x402af8
  403274:	jmp    0x4032b5
  403276:	cmp    DWORD PTR [ebp-0x8],0x4
  40327a:	jne    0x40328c
  40327c:	cmp    DWORD PTR [ebp-0xc],0x4
  403280:	jne    0x40328c
  403282:	mov    eax,DWORD PTR [ebp-0x10]
  403285:	mov    ds:0x41100c,eax
  40328a:	jmp    0x4032b5
  40328c:	mov    esi,0x139f
  403291:	mov    eax,ds:0x411010
  403296:	cmp    eax,0x411010
  40329b:	je     0x4032b5
  40329d:	test   BYTE PTR [eax+0x1c],bl
  4032a0:	je     0x4032b5
  4032a2:	push   DWORD PTR [eax+0x14]
  4032a5:	mov    edx,0x40138c
  4032aa:	push   DWORD PTR [eax+0x10]
  4032ad:	push   0x1d
  4032af:	pop    ecx
  4032b0:	call   0x402ad5
  4032b5:	push   DWORD PTR [ebp-0x4]
  4032b8:	call   DWORD PTR ds:0x412118
  4032be:	mov    ecx,DWORD PTR ds:0x411010
  4032c4:	cmp    ecx,0x411010
  4032ca:	je     0x4032eb
  4032cc:	cmp    BYTE PTR [ecx+0x19],0x4
  4032d0:	jb     0x4032eb
  4032d2:	test   BYTE PTR [ecx+0x1c],bl
  4032d5:	je     0x4032eb
  4032d7:	push   esi
  4032d8:	push   DWORD PTR [ecx+0x14]
  4032db:	mov    edx,0x40138c
  4032e0:	push   DWORD PTR [ecx+0x10]
  4032e3:	push   0x1e
  4032e5:	pop    ecx
  4032e6:	call   0x402af8
  4032eb:	pop    edi
  4032ec:	pop    esi
  4032ed:	pop    ebx
  4032ee:	mov    esp,ebp
  4032f0:	pop    ebp
  4032f1:	ret    
  4032f2:	int3   
  4032f3:	int3   
  4032f4:	int3   
  4032f5:	int3   
  4032f6:	int3   
  4032f7:	mov    edi,edi
  4032f9:	push   ebp
  4032fa:	mov    ebp,esp
  4032fc:	sub    esp,0xc
  4032ff:	and    DWORD PTR [ebp-0x8],0x0
  403303:	push   ebx
  403304:	push   esi
  403305:	xor    ebx,ebx
  403307:	and    DWORD PTR [ebp-0x4],ebx
  40330a:	push   edi
  40330b:	mov    eax,ds:0x411010
  403310:	cmp    eax,0x411010
  403315:	je     0x403336
  403317:	cmp    BYTE PTR [eax+0x19],0x4
  40331b:	jb     0x403336
  40331d:	test   BYTE PTR [eax+0x1c],0x1
  403321:	je     0x403336
  403323:	push   DWORD PTR [eax+0x14]
  403326:	mov    edx,0x40138c
  40332b:	push   DWORD PTR [eax+0x10]
  40332e:	push   0x1f
  403330:	pop    ecx
  403331:	call   0x402ad5
  403336:	lea    eax,[ebp-0x4]
  403339:	push   eax
  40333a:	push   0x100
  40333f:	call   0x409fb0
  403344:	mov    edi,DWORD PTR [ebp-0x4]
  403347:	mov    esi,eax
  403349:	test   esi,esi
  40334b:	jne    0x403424
  403351:	push   0x100
  403356:	push   0x0
  403358:	push   edi
  403359:	call   0x410868
  40335e:	add    esp,0xc
  403361:	mov    DWORD PTR [edi],0x15
  403367:	lea    ecx,[edi+0x4]
  40336a:	xor    edi,edi
  40336c:	mov    eax,DWORD PTR [edi+0x401338]
  403372:	add    edi,0x4
  403375:	mov    DWORD PTR [ecx+0x8],0x4
  40337c:	cdq    
  40337d:	mov    DWORD PTR [ecx],eax
  40337f:	lea    ecx,[ecx+0xc]
  403382:	mov    DWORD PTR [ecx-0x8],edx
  403385:	cmp    edi,0x54
  403388:	jb     0x40336c
  40338a:	lea    eax,[ebp-0x8]
  40338d:	push   eax
  40338e:	push   0x28
  403390:	call   DWORD PTR ds:0x4120f8
  403396:	push   eax
  403397:	call   DWORD PTR ds:0x4120f0
  40339d:	mov    edi,DWORD PTR [ebp-0x4]
  4033a0:	test   eax,eax
  4033a2:	jne    0x4033d3
  4033a4:	call   DWORD PTR ds:0x41208c
  4033aa:	mov    esi,eax
  4033ac:	test   esi,esi
  4033ae:	je     0x4033d3
  4033b0:	mov    eax,ds:0x411010
  4033b5:	cmp    eax,0x411010
  4033ba:	je     0x403424
  4033bc:	cmp    BYTE PTR [eax+0x19],0x1
  4033c0:	jb     0x403424
  4033c2:	test   BYTE PTR [eax+0x1c],0x1
  4033c6:	je     0x403424
  4033c8:	push   esi
  4033c9:	push   DWORD PTR [eax+0x14]
  4033cc:	push   DWORD PTR [eax+0x10]
  4033cf:	push   0x20
  4033d1:	jmp    0x403419
  4033d3:	xor    eax,eax
  4033d5:	xor    ebx,ebx
  4033d7:	push   eax
  4033d8:	push   eax
  4033d9:	push   0x100
  4033de:	push   edi
  4033df:	push   eax
  4033e0:	push   DWORD PTR [ebp-0x8]
  4033e3:	inc    ebx
  4033e4:	call   DWORD PTR ds:0x4121ac
  4033ea:	test   eax,eax
  4033ec:	jne    0x403424
  4033ee:	call   DWORD PTR ds:0x41208c
  4033f4:	mov    esi,eax
  4033f6:	test   esi,esi
  4033f8:	je     0x403424
  4033fa:	mov    eax,ds:0x411010
  4033ff:	cmp    eax,0x411010
  403404:	je     0x403424
  403406:	cmp    BYTE PTR [eax+0x19],bl
  403409:	jb     0x403424
  40340b:	test   BYTE PTR [eax+0x1c],bl
  40340e:	je     0x403424
  403410:	push   esi
  403411:	push   DWORD PTR [eax+0x14]
  403414:	push   DWORD PTR [eax+0x10]
  403417:	push   0x21
  403419:	mov    edx,0x40138c
  40341e:	pop    ecx
  40341f:	call   0x402af8
  403424:	push   edi
  403425:	call   0x40a080
  40342a:	test   ebx,ebx
  40342c:	je     0x403437
  40342e:	push   DWORD PTR [ebp-0x8]
  403431:	call   DWORD PTR ds:0x4120a8
  403437:	mov    eax,ds:0x411010
  40343c:	cmp    eax,0x411010
  403441:	je     0x403463
  403443:	cmp    BYTE PTR [eax+0x19],0x4
  403447:	jb     0x403463
  403449:	test   BYTE PTR [eax+0x1c],0x1
  40344d:	je     0x403463
  40344f:	push   esi
  403450:	push   DWORD PTR [eax+0x14]
  403453:	mov    edx,0x40138c
  403458:	push   DWORD PTR [eax+0x10]
  40345b:	push   0x22
  40345d:	pop    ecx
  40345e:	call   0x402af8
  403463:	pop    edi
  403464:	mov    eax,esi
  403466:	pop    esi
  403467:	pop    ebx
  403468:	mov    esp,ebp
  40346a:	pop    ebp
  40346b:	ret    
  40346c:	int3   
  40346d:	int3   
  40346e:	int3   
  40346f:	int3   
  403470:	int3   
  403471:	mov    edi,edi
  403473:	push   ebx
  403474:	push   esi
  403475:	push   edi
  403476:	mov    edi,ecx
  403478:	mov    eax,ds:0x411010
  40347d:	xor    ebx,ebx
  40347f:	inc    ebx
  403480:	cmp    eax,0x411010
  403485:	je     0x4034a5
  403487:	cmp    BYTE PTR [eax+0x19],0x4
  40348b:	jb     0x4034a5
  40348d:	test   BYTE PTR [eax+0x1c],bl
  403490:	je     0x4034a5
  403492:	push   DWORD PTR [eax+0x14]
  403495:	mov    edx,0x40138c
  40349a:	push   DWORD PTR [eax+0x10]
  40349d:	push   0x23
  40349f:	pop    ecx
  4034a0:	call   0x402ad5
  4034a5:	xor    eax,eax
  4034a7:	push   eax
  4034a8:	push   eax
  4034a9:	push   ebx
  4034aa:	push   eax
  4034ab:	call   DWORD PTR ds:0x4120b4
  4034b1:	test   eax,eax
  4034b3:	jne    0x4034e6
  4034b5:	call   DWORD PTR ds:0x41208c
  4034bb:	mov    esi,eax
  4034bd:	mov    ecx,DWORD PTR ds:0x411010
  4034c3:	cmp    ecx,0x411010
  4034c9:	je     0x4038f3
  4034cf:	test   BYTE PTR [ecx+0x1c],bl
  4034d2:	je     0x4038cc
  4034d8:	push   esi
  4034d9:	push   DWORD PTR [ecx+0x14]
  4034dc:	push   DWORD PTR [ecx+0x10]
  4034df:	push   0x24
  4034e1:	jmp    0x4038bb
  4034e6:	push   0x43
  4034e8:	call   DWORD PTR ds:0x41400c
  4034ee:	test   eax,eax
  4034f0:	je     0x40352a
  4034f2:	mov    esi,0x139f
  4034f7:	mov    ecx,DWORD PTR ds:0x411010
  4034fd:	cmp    ecx,0x411010
  403503:	je     0x4038f3
  403509:	test   BYTE PTR [ecx+0x1c],bl
  40350c:	je     0x4038cc
  403512:	push   DWORD PTR [ecx+0x14]
  403515:	mov    edx,0x40138c
  40351a:	push   DWORD PTR [ecx+0x10]
  40351d:	push   0x25
  40351f:	pop    ecx
  403520:	call   0x402ad5
  403525:	jmp    0x4038c6
  40352a:	call   0x4032f7
  40352f:	mov    esi,eax
  403531:	test   esi,esi
  403533:	jne    0x4038c6
  403539:	push   edi
  40353a:	call   DWORD PTR ds:0x4121e8
  403540:	pop    ecx
  403541:	mov    ds:0x4113a0,eax
  403546:	call   0x403177
  40354b:	xor    eax,eax
  40354d:	push   eax
  40354e:	push   eax
  40354f:	push   ebx
  403550:	push   eax
  403551:	call   DWORD PTR ds:0x41213c
  403557:	mov    ds:0x41139c,eax
  40355c:	test   eax,eax
  40355e:	jne    0x403591
  403560:	call   DWORD PTR ds:0x41208c
  403566:	mov    esi,eax
  403568:	mov    ecx,DWORD PTR ds:0x411010
  40356e:	cmp    ecx,0x411010
  403574:	je     0x4038f3
  40357a:	test   BYTE PTR [ecx+0x1c],bl
  40357d:	je     0x4038cc
  403583:	push   esi
  403584:	push   DWORD PTR [ecx+0x14]
  403587:	push   DWORD PTR [ecx+0x10]
  40358a:	push   0x26
  40358c:	jmp    0x4038bb
  403591:	mov    edx,ebx
  403593:	mov    ecx,0x4113c8
  403598:	call   0x408f69
  40359d:	mov    esi,eax
  40359f:	test   esi,esi
  4035a1:	je     0x4035d5
  4035a3:	mov    ecx,DWORD PTR ds:0x411010
  4035a9:	cmp    ecx,0x411010
  4035af:	je     0x4038f3
  4035b5:	cmp    BYTE PTR [ecx+0x19],bl
  4035b8:	jb     0x4038cc
  4035be:	test   BYTE PTR [ecx+0x1c],bl
  4035c1:	je     0x4038cc
  4035c7:	push   esi
  4035c8:	push   DWORD PTR [ecx+0x14]
  4035cb:	push   DWORD PTR [ecx+0x10]
  4035ce:	push   0x27
  4035d0:	jmp    0x4038bb
  4035d5:	push   0x2
  4035d7:	pop    edx
  4035d8:	mov    ecx,0x4113b8
  4035dd:	call   0x408f69
  4035e2:	mov    esi,eax
  4035e4:	test   esi,esi
  4035e6:	je     0x40361a
  4035e8:	mov    ecx,DWORD PTR ds:0x411010
  4035ee:	cmp    ecx,0x411010
  4035f4:	je     0x4038f3
  4035fa:	cmp    BYTE PTR [ecx+0x19],bl
  4035fd:	jb     0x4038cc
  403603:	test   BYTE PTR [ecx+0x1c],bl
  403606:	je     0x4038cc
  40360c:	push   esi
  40360d:	push   DWORD PTR [ecx+0x14]
  403610:	push   DWORD PTR [ecx+0x10]
  403613:	push   0x28
  403615:	jmp    0x4038bb
  40361a:	call   0x40a3de
  40361f:	mov    esi,eax
  403621:	test   esi,esi
  403623:	je     0x403657
  403625:	mov    ecx,DWORD PTR ds:0x411010
  40362b:	cmp    ecx,0x411010
  403631:	je     0x4038f3
  403637:	cmp    BYTE PTR [ecx+0x19],bl
  40363a:	jb     0x4038cc
  403640:	test   BYTE PTR [ecx+0x1c],bl
  403643:	je     0x4038cc
  403649:	push   esi
  40364a:	push   DWORD PTR [ecx+0x14]
  40364d:	push   DWORD PTR [ecx+0x10]
  403650:	push   0x29
  403652:	jmp    0x4038bb
  403657:	call   0x405bf1
  40365c:	mov    esi,eax
  40365e:	test   esi,esi
  403660:	je     0x403694
  403662:	mov    ecx,DWORD PTR ds:0x411010
  403668:	cmp    ecx,0x411010
  40366e:	je     0x4038f3
  403674:	cmp    BYTE PTR [ecx+0x19],bl
  403677:	jb     0x4038cc
  40367d:	test   BYTE PTR [ecx+0x1c],bl
  403680:	je     0x4038cc
  403686:	push   esi
  403687:	push   DWORD PTR [ecx+0x14]
  40368a:	push   DWORD PTR [ecx+0x10]
  40368d:	push   0x2a
  40368f:	jmp    0x4038bb
  403694:	call   0x40c6d5
  403699:	mov    esi,eax
  40369b:	test   esi,esi
  40369d:	je     0x4036d1
  40369f:	mov    ecx,DWORD PTR ds:0x411010
  4036a5:	cmp    ecx,0x411010
  4036ab:	je     0x4038f3
  4036b1:	cmp    BYTE PTR [ecx+0x19],bl
  4036b4:	jb     0x4038cc
  4036ba:	test   BYTE PTR [ecx+0x1c],bl
  4036bd:	je     0x4038cc
  4036c3:	push   esi
  4036c4:	push   DWORD PTR [ecx+0x14]
  4036c7:	push   DWORD PTR [ecx+0x10]
  4036ca:	push   0x2b
  4036cc:	jmp    0x4038bb
  4036d1:	call   0x403f9b
  4036d6:	mov    esi,eax
  4036d8:	test   esi,esi
  4036da:	je     0x40370e
  4036dc:	mov    ecx,DWORD PTR ds:0x411010
  4036e2:	cmp    ecx,0x411010
  4036e8:	je     0x4038f3
  4036ee:	cmp    BYTE PTR [ecx+0x19],bl
  4036f1:	jb     0x4038cc
  4036f7:	test   BYTE PTR [ecx+0x1c],bl
  4036fa:	je     0x4038cc
  403700:	push   esi
  403701:	push   DWORD PTR [ecx+0x14]
  403704:	push   DWORD PTR [ecx+0x10]
  403707:	push   0x2c
  403709:	jmp    0x4038bb
  40370e:	mov    edi,0x4113a8
  403713:	push   edi
  403714:	call   DWORD PTR ds:0x41202c
  40371a:	mov    esi,eax
  40371c:	test   esi,esi
  40371e:	je     0x403752
  403720:	mov    ecx,DWORD PTR ds:0x411010
  403726:	cmp    ecx,0x411010
  40372c:	je     0x4038f3
  403732:	cmp    BYTE PTR [ecx+0x19],bl
  403735:	jb     0x4038cc
  40373b:	test   BYTE PTR [ecx+0x1c],bl
  40373e:	je     0x4038cc
  403744:	push   esi
  403745:	push   DWORD PTR [ecx+0x14]
  403748:	push   DWORD PTR [ecx+0x10]
  40374b:	push   0x2d
  40374d:	jmp    0x4038bb
  403752:	mov    esi,edi
  403754:	sub    esp,0x10
  403757:	mov    edi,esp
  403759:	movs   DWORD PTR es:[edi],DWORD PTR ds:[esi]
  40375a:	movs   DWORD PTR es:[edi],DWORD PTR ds:[esi]
  40375b:	movs   DWORD PTR es:[edi],DWORD PTR ds:[esi]
  40375c:	movs   DWORD PTR es:[edi],DWORD PTR ds:[esi]
  40375d:	call   0x408655
  403762:	mov    esi,eax
  403764:	test   esi,esi
  403766:	je     0x40379a
  403768:	mov    ecx,DWORD PTR ds:0x411010
  40376e:	cmp    ecx,0x411010
  403774:	je     0x4038f3
  40377a:	cmp    BYTE PTR [ecx+0x19],bl
  40377d:	jb     0x4038cc
  403783:	test   BYTE PTR [ecx+0x1c],bl
  403786:	je     0x4038cc
  40378c:	push   esi
  40378d:	push   DWORD PTR [ecx+0x14]
  403790:	push   DWORD PTR [ecx+0x10]
  403793:	push   0x2e
  403795:	jmp    0x4038bb
  40379a:	sub    esp,0x10
  40379d:	mov    esi,0x4113a8
  4037a2:	mov    edi,esp
  4037a4:	movs   DWORD PTR es:[edi],DWORD PTR ds:[esi]
  4037a5:	movs   DWORD PTR es:[edi],DWORD PTR ds:[esi]
  4037a6:	movs   DWORD PTR es:[edi],DWORD PTR ds:[esi]
  4037a7:	movs   DWORD PTR es:[edi],DWORD PTR ds:[esi]
  4037a8:	call   0x4042f0
  4037ad:	mov    esi,eax
  4037af:	test   esi,esi
  4037b1:	je     0x4037e5
  4037b3:	mov    ecx,DWORD PTR ds:0x411010
  4037b9:	cmp    ecx,0x411010
  4037bf:	je     0x4038f3
  4037c5:	cmp    BYTE PTR [ecx+0x19],bl
  4037c8:	jb     0x4038cc
  4037ce:	test   BYTE PTR [ecx+0x1c],bl
  4037d1:	je     0x4038cc
  4037d7:	push   esi
  4037d8:	push   DWORD PTR [ecx+0x14]
  4037db:	push   DWORD PTR [ecx+0x10]
  4037de:	push   0x2f
  4037e0:	jmp    0x4038bb
  4037e5:	push   0x1d4c0
  4037ea:	push   DWORD PTR ds:0x41139c
  4037f0:	mov    DWORD PTR ds:0x4113a4,ebx
  4037f6:	call   DWORD PTR ds:0x412138
  4037fc:	mov    esi,eax
  4037fe:	test   esi,esi
  403800:	je     0x403833
  403802:	mov    eax,ds:0x411010
  403807:	cmp    eax,0x411010
  40380c:	je     0x403827
  40380e:	test   BYTE PTR [eax+0x1c],bl
  403811:	je     0x403827
  403813:	push   esi
  403814:	push   DWORD PTR [eax+0x14]
  403817:	mov    edx,0x40138c
  40381c:	push   DWORD PTR [eax+0x10]
  40381f:	push   0x30
  403821:	pop    ecx
  403822:	call   0x402af8
  403827:	push   0x0
  403829:	call   0x403900
  40382e:	jmp    0x4038c6
  403833:	call   0x40877b
  403838:	mov    esi,eax
  40383a:	test   esi,esi
  40383c:	je     0x403865
  40383e:	mov    ecx,DWORD PTR ds:0x411010
  403844:	cmp    ecx,0x411010
  40384a:	je     0x4038f3
  403850:	cmp    BYTE PTR [ecx+0x19],bl
  403853:	jb     0x4038cc
  403855:	test   BYTE PTR [ecx+0x1c],bl
  403858:	je     0x4038cc
  40385a:	push   esi
  40385b:	push   DWORD PTR [ecx+0x14]
  40385e:	push   DWORD PTR [ecx+0x10]
  403861:	push   0x31
  403863:	jmp    0x4038bb
  403865:	mov    eax,ds:0x411010
  40386a:	cmp    eax,0x411010
  40386f:	je     0x40388f
  403871:	cmp    BYTE PTR [eax+0x19],0x3
  403875:	jb     0x40388f
  403877:	test   BYTE PTR [eax+0x1c],bl
  40387a:	je     0x40388f
  40387c:	push   DWORD PTR [eax+0x14]
  40387f:	mov    edx,0x40138c
  403884:	push   DWORD PTR [eax+0x10]
  403887:	push   0x32
  403889:	pop    ecx
  40388a:	call   0x402ad5
  40388f:	call   0x40898b
  403894:	mov    esi,eax
  403896:	test   esi,esi
  403898:	je     0x4038c6
  40389a:	mov    ecx,DWORD PTR ds:0x411010
  4038a0:	cmp    ecx,0x411010
  4038a6:	je     0x4038f3
  4038a8:	cmp    BYTE PTR [ecx+0x19],bl
  4038ab:	jb     0x4038cc
  4038ad:	test   BYTE PTR [ecx+0x1c],bl
  4038b0:	je     0x4038cc
  4038b2:	push   esi
  4038b3:	push   DWORD PTR [ecx+0x14]
  4038b6:	push   DWORD PTR [ecx+0x10]
  4038b9:	push   0x33
  4038bb:	mov    edx,0x40138c
  4038c0:	pop    ecx
  4038c1:	call   0x402af8
  4038c6:	mov    ecx,DWORD PTR ds:0x411010
  4038cc:	cmp    ecx,0x411010
  4038d2:	je     0x4038f3
  4038d4:	cmp    BYTE PTR [ecx+0x19],0x4
  4038d8:	jb     0x4038f3
  4038da:	test   BYTE PTR [ecx+0x1c],bl
  4038dd:	je     0x4038f3
  4038df:	push   esi
  4038e0:	push   DWORD PTR [ecx+0x14]
  4038e3:	mov    edx,0x40138c
  4038e8:	push   DWORD PTR [ecx+0x10]
  4038eb:	push   0x34
  4038ed:	pop    ecx
  4038ee:	call   0x402af8
  4038f3:	pop    edi
  4038f4:	mov    eax,esi
  4038f6:	pop    esi
  4038f7:	pop    ebx
  4038f8:	ret    
  4038f9:	int3   
  4038fa:	int3   
  4038fb:	int3   
  4038fc:	int3   
  4038fd:	int3   
  4038fe:	int3   
  4038ff:	int3   
  403900:	mov    edi,edi
  403902:	push   ebp
  403903:	mov    ebp,esp
  403905:	and    esp,0xfffffff8
  403908:	mov    eax,ds:0x411010
  40390d:	cmp    eax,0x411010
  403912:	je     0x403933
  403914:	cmp    BYTE PTR [eax+0x19],0x3
  403918:	jb     0x403933
  40391a:	test   BYTE PTR [eax+0x1c],0x1
  40391e:	je     0x403933
  403920:	push   DWORD PTR [eax+0x14]
  403923:	mov    edx,0x40138c
  403928:	push   DWORD PTR [eax+0x10]
  40392b:	push   0x35
  40392d:	pop    ecx
  40392e:	call   0x402ad5
  403933:	push   ecx
  403934:	push   ecx
  403935:	call   0x4039cf
  40393a:	xor    eax,eax
  40393c:	mov    esp,ebp
  40393e:	pop    ebp
  40393f:	ret    0x4
  403942:	int3   
  403943:	int3   
  403944:	int3   
  403945:	int3   
  403946:	int3   
  403947:	int3   
  403948:	int3   
  403949:	int3   
  40394a:	int3   
  40394b:	int3   
  40394c:	int3   
  40394d:	int3   
  40394e:	int3   
  40394f:	int3   
  403950:	mov    edi,edi
  403952:	push   ebp
  403953:	mov    ebp,esp
  403955:	and    esp,0xfffffff8
  403958:	push   ecx
  403959:	push   esi
  40395a:	push   0x10
  40395c:	push   0x0
  40395e:	push   0x403900
  403963:	call   DWORD PTR ds:0x412178
  403969:	test   eax,eax
  40396b:	jne    0x4039c3
  40396d:	call   DWORD PTR ds:0x41208c
  403973:	mov    ecx,DWORD PTR ds:0x411010
  403979:	cmp    ecx,0x411010
  40397f:	je     0x40399b
  403981:	test   BYTE PTR [ecx+0x1c],0x1
  403985:	je     0x40399b
  403987:	push   eax
  403988:	push   DWORD PTR [ecx+0x14]
  40398b:	mov    edx,0x40138c
  403990:	push   DWORD PTR [ecx+0x10]
  403993:	push   0x36
  403995:	pop    ecx
  403996:	call   0x402af8
  40399b:	cmp    DWORD PTR ds:0x4113a4,0x0
  4039a2:	je     0x4039a9
  4039a4:	call   0x402bab
  4039a9:	mov    esi,0x2c9
  4039ae:	push   esi
  4039af:	call   DWORD PTR ds:0x4120f8
  4039b5:	push   eax
  4039b6:	call   DWORD PTR ds:0x412104
  4039bc:	push   esi
  4039bd:	call   DWORD PTR ds:0x4120ec
  4039c3:	pop    esi
  4039c4:	mov    esp,ebp
  4039c6:	pop    ebp
  4039c7:	ret    0x4
  4039ca:	int3   
  4039cb:	int3   
  4039cc:	int3   
  4039cd:	int3   
  4039ce:	int3   
  4039cf:	mov    edi,edi
  4039d1:	push   ebx
  4039d2:	push   esi
  4039d3:	push   edi
  4039d4:	xor    edi,edi
  4039d6:	mov    eax,ds:0x411010
  4039db:	xor    ebx,ebx
  4039dd:	inc    ebx
  4039de:	cmp    eax,0x411010
  4039e3:	je     0x403a03
  4039e5:	cmp    BYTE PTR [eax+0x19],0x4
  4039e9:	jb     0x403a03
  4039eb:	test   BYTE PTR [eax+0x1c],bl
  4039ee:	je     0x403a03
  4039f0:	push   DWORD PTR [eax+0x14]
  4039f3:	mov    edx,0x40138c
  4039f8:	push   DWORD PTR [eax+0x10]
  4039fb:	push   0x37
  4039fd:	pop    ecx
  4039fe:	call   0x402ad5
  403a03:	mov    eax,ebx
  403a05:	mov    ecx,0x411398
  403a0a:	xchg   DWORD PTR [ecx],eax
  403a0c:	test   eax,eax
  403a0e:	jne    0x403e6d
  403a14:	mov    ecx,0x4113c8
  403a19:	call   0x4094bb
  403a1e:	mov    esi,eax
  403a20:	test   esi,esi
  403a22:	je     0x403a61
  403a24:	mov    ecx,DWORD PTR ds:0x411010
  403a2a:	cmp    ecx,0x411010
  403a30:	je     0x403dde
  403a36:	cmp    BYTE PTR [ecx+0x19],bl
  403a39:	jb     0x403dde
  403a3f:	test   BYTE PTR [ecx+0x1c],bl
  403a42:	je     0x403dde
  403a48:	push   esi
  403a49:	push   DWORD PTR [ecx+0x14]
  403a4c:	push   DWORD PTR [ecx+0x10]
  403a4f:	push   0x38
  403a51:	mov    edx,0x40138c
  403a56:	pop    ecx
  403a57:	call   0x402af8
  403a5c:	jmp    0x403dd8
  403a61:	mov    ecx,0x4113b8
  403a66:	mov    edi,ebx
  403a68:	call   0x4094bb
  403a6d:	mov    esi,eax
  403a6f:	test   esi,esi
  403a71:	je     0x403aa2
  403a73:	mov    ecx,DWORD PTR ds:0x411010
  403a79:	cmp    ecx,0x411010
  403a7f:	je     0x403dde
  403a85:	cmp    BYTE PTR [ecx+0x19],bl
  403a88:	jb     0x403dde
  403a8e:	test   BYTE PTR [ecx+0x1c],bl
  403a91:	je     0x403dde
  403a97:	push   esi
  403a98:	push   DWORD PTR [ecx+0x14]
  403a9b:	push   DWORD PTR [ecx+0x10]
  403a9e:	push   0x39
  403aa0:	jmp    0x403a51
  403aa2:	call   0x404127
  403aa7:	push   0x3
  403aa9:	pop    edi
  403aaa:	call   0x408893
  403aaf:	mov    esi,eax
  403ab1:	test   esi,esi
  403ab3:	je     0x403ae7
  403ab5:	mov    ecx,DWORD PTR ds:0x411010
  403abb:	cmp    ecx,0x411010
  403ac1:	je     0x403dde
  403ac7:	cmp    BYTE PTR [ecx+0x19],bl
  403aca:	jb     0x403dde
  403ad0:	test   BYTE PTR [ecx+0x1c],bl
  403ad3:	je     0x403dde
  403ad9:	push   esi
  403ada:	push   DWORD PTR [ecx+0x14]
  403add:	push   DWORD PTR [ecx+0x10]
  403ae0:	push   0x3a
  403ae2:	jmp    0x403a51
  403ae7:	push   0x4
  403ae9:	pop    edi
  403aea:	mov    ecx,0x4113b8
  403aef:	call   0x409169
  403af4:	mov    esi,eax
  403af6:	test   esi,esi
  403af8:	je     0x403b2c
  403afa:	mov    ecx,DWORD PTR ds:0x411010
  403b00:	cmp    ecx,0x411010
  403b06:	je     0x403dde
  403b0c:	cmp    BYTE PTR [ecx+0x19],bl
  403b0f:	jb     0x403dde
  403b15:	test   BYTE PTR [ecx+0x1c],bl
  403b18:	je     0x403dde
  403b1e:	push   esi
  403b1f:	push   DWORD PTR [ecx+0x14]
  403b22:	push   DWORD PTR [ecx+0x10]
  403b25:	push   0x3b
  403b27:	jmp    0x403a51
  403b2c:	push   0x5
  403b2e:	pop    edi
  403b2f:	call   0x40a625
  403b34:	mov    esi,eax
  403b36:	test   esi,esi
  403b38:	je     0x403b6c
  403b3a:	mov    ecx,DWORD PTR ds:0x411010
  403b40:	cmp    ecx,0x411010
  403b46:	je     0x403dde
  403b4c:	cmp    BYTE PTR [ecx+0x19],bl
  403b4f:	jb     0x403dde
  403b55:	test   BYTE PTR [ecx+0x1c],bl
  403b58:	je     0x403dde
  403b5e:	push   esi
  403b5f:	push   DWORD PTR [ecx+0x14]
  403b62:	push   DWORD PTR [ecx+0x10]
  403b65:	push   0x3c
  403b67:	jmp    0x403a51
  403b6c:	push   0x6
  403b6e:	pop    edi
  403b6f:	mov    ecx,0x4113c8
  403b74:	call   0x409169
  403b79:	mov    esi,eax
  403b7b:	test   esi,esi
  403b7d:	je     0x403bb1
  403b7f:	mov    ecx,DWORD PTR ds:0x411010
  403b85:	cmp    ecx,0x411010
  403b8b:	je     0x403dde
  403b91:	cmp    BYTE PTR [ecx+0x19],bl
  403b94:	jb     0x403dde
  403b9a:	test   BYTE PTR [ecx+0x1c],bl
  403b9d:	je     0x403dde
  403ba3:	push   esi
  403ba4:	push   DWORD PTR [ecx+0x14]
  403ba7:	push   DWORD PTR [ecx+0x10]
  403baa:	push   0x3d
  403bac:	jmp    0x403a51
  403bb1:	push   0x7
  403bb3:	pop    edi
  403bb4:	call   0x40405e
  403bb9:	mov    esi,eax
  403bbb:	cmp    esi,0x139f
  403bc1:	jne    0x403bff
  403bc3:	mov    eax,ds:0x411010
  403bc8:	cmp    eax,0x411010
  403bcd:	je     0x403bed
  403bcf:	cmp    BYTE PTR [eax+0x19],0x3
  403bd3:	jb     0x403bed
  403bd5:	test   BYTE PTR [eax+0x1c],bl
  403bd8:	je     0x403bed
  403bda:	push   DWORD PTR [eax+0x14]
  403bdd:	mov    edx,0x40138c
  403be2:	push   DWORD PTR [eax+0x10]
  403be5:	push   0x3e
  403be7:	pop    ecx
  403be8:	call   0x402ad5
  403bed:	push   0x1388
  403bf2:	call   DWORD PTR ds:0x41212c
  403bf8:	call   0x40405e
  403bfd:	mov    esi,eax
  403bff:	test   esi,esi
  403c01:	je     0x403c35
  403c03:	mov    ecx,DWORD PTR ds:0x411010
  403c09:	cmp    ecx,0x411010
  403c0f:	je     0x403dde
  403c15:	cmp    BYTE PTR [ecx+0x19],bl
  403c18:	jb     0x403dde
  403c1e:	test   BYTE PTR [ecx+0x1c],bl
  403c21:	je     0x403dde
  403c27:	push   esi
  403c28:	push   DWORD PTR [ecx+0x14]
  403c2b:	push   DWORD PTR [ecx+0x10]
  403c2e:	push   0x3f
  403c30:	jmp    0x403a51
  403c35:	push   0x8
  403c37:	pop    edi
  403c38:	mov    ecx,0x4113c8
  403c3d:	call   0x40954e
  403c42:	mov    esi,eax
  403c44:	cmp    esi,0x10d3
  403c4a:	jne    0x403c8d
  403c4c:	mov    eax,ds:0x411010
  403c51:	cmp    eax,0x411010
  403c56:	je     0x403c76
  403c58:	cmp    BYTE PTR [eax+0x19],0x3
  403c5c:	jb     0x403c76
  403c5e:	test   BYTE PTR [eax+0x1c],bl
  403c61:	je     0x403c76
  403c63:	push   DWORD PTR [eax+0x14]
  403c66:	mov    edx,0x40138c
  403c6b:	push   DWORD PTR [eax+0x10]
  403c6e:	push   0x40
  403c70:	pop    ecx
  403c71:	call   0x402ad5
  403c76:	push   0x1388
  403c7b:	call   DWORD PTR ds:0x41212c
  403c81:	mov    ecx,0x4113c8
  403c86:	call   0x40954e
  403c8b:	mov    esi,eax
  403c8d:	test   esi,esi
  403c8f:	je     0x403cc3
  403c91:	mov    ecx,DWORD PTR ds:0x411010
  403c97:	cmp    ecx,0x411010
  403c9d:	je     0x403dde
  403ca3:	cmp    BYTE PTR [ecx+0x19],bl
  403ca6:	jb     0x403dde
  403cac:	test   BYTE PTR [ecx+0x1c],bl
  403caf:	je     0x403dde
  403cb5:	push   esi
  403cb6:	push   DWORD PTR [ecx+0x14]
  403cb9:	push   DWORD PTR [ecx+0x10]
  403cbc:	push   0x41
  403cbe:	jmp    0x403a51
  403cc3:	push   0x9
  403cc5:	pop    edi
  403cc6:	mov    ecx,0x4113b8
  403ccb:	call   0x40954e
  403cd0:	mov    esi,eax
  403cd2:	cmp    esi,0x10d3
  403cd8:	jne    0x403d1b
  403cda:	mov    eax,ds:0x411010
  403cdf:	cmp    eax,0x411010
  403ce4:	je     0x403d04
  403ce6:	cmp    BYTE PTR [eax+0x19],0x3
  403cea:	jb     0x403d04
  403cec:	test   BYTE PTR [eax+0x1c],bl
  403cef:	je     0x403d04
  403cf1:	push   DWORD PTR [eax+0x14]
  403cf4:	mov    edx,0x40138c
  403cf9:	push   DWORD PTR [eax+0x10]
  403cfc:	push   0x42
  403cfe:	pop    ecx
  403cff:	call   0x402ad5
  403d04:	push   0x1388
  403d09:	call   DWORD PTR ds:0x41212c
  403d0f:	mov    ecx,0x4113b8
  403d14:	call   0x40954e
  403d19:	mov    esi,eax
  403d1b:	test   esi,esi
  403d1d:	je     0x403d51
  403d1f:	mov    ecx,DWORD PTR ds:0x411010
  403d25:	cmp    ecx,0x411010
  403d2b:	je     0x403dde
  403d31:	cmp    BYTE PTR [ecx+0x19],bl
  403d34:	jb     0x403dde
  403d3a:	test   BYTE PTR [ecx+0x1c],bl
  403d3d:	je     0x403dde
  403d43:	push   esi
  403d44:	push   DWORD PTR [ecx+0x14]
  403d47:	push   DWORD PTR [ecx+0x10]
  403d4a:	push   0x43
  403d4c:	jmp    0x403a51
  403d51:	push   0xa
  403d53:	pop    edi
  403d54:	call   0x406301
  403d59:	mov    esi,eax
  403d5b:	test   esi,esi
  403d5d:	je     0x403d85
  403d5f:	mov    ecx,DWORD PTR ds:0x411010
  403d65:	cmp    ecx,0x411010
  403d6b:	je     0x403dde
  403d6d:	cmp    BYTE PTR [ecx+0x19],bl
  403d70:	jb     0x403dde
  403d72:	test   BYTE PTR [ecx+0x1c],bl
  403d75:	je     0x403dde
  403d77:	push   esi
  403d78:	push   DWORD PTR [ecx+0x14]
  403d7b:	push   DWORD PTR [ecx+0x10]
  403d7e:	push   0x44
  403d80:	jmp    0x403a51
  403d85:	push   0xb
  403d87:	pop    edi
  403d88:	call   0x4060e6
  403d8d:	mov    esi,eax
  403d8f:	test   esi,esi
  403d91:	je     0x403db9
  403d93:	mov    ecx,DWORD PTR ds:0x411010
  403d99:	cmp    ecx,0x411010
  403d9f:	je     0x403dde
  403da1:	cmp    BYTE PTR [ecx+0x19],bl
  403da4:	jb     0x403dde
  403da6:	test   BYTE PTR [ecx+0x1c],bl
  403da9:	je     0x403dde
  403dab:	push   esi
  403dac:	push   DWORD PTR [ecx+0x14]
  403daf:	push   DWORD PTR [ecx+0x10]
  403db2:	push   0x45
  403db4:	jmp    0x403a51
  403db9:	push   0xc
  403dbb:	pop    edi
  403dbc:	call   0x40c76e
  403dc1:	mov    eax,ds:0x41139c
  403dc6:	test   eax,eax
  403dc8:	je     0x403e2b
  403dca:	push   eax
  403dcb:	call   DWORD PTR ds:0x4120a8
  403dd1:	and    DWORD PTR ds:0x41139c,0x0
  403dd8:	mov    ecx,DWORD PTR ds:0x411010
  403dde:	test   esi,esi
  403de0:	je     0x403e31
  403de2:	cmp    ecx,0x411010
  403de8:	je     0x403e03
  403dea:	test   BYTE PTR [ecx+0x1c],bl
  403ded:	je     0x403e03
  403def:	push   edi
  403df0:	push   DWORD PTR [ecx+0x14]
  403df3:	mov    edx,0x40138c
  403df8:	push   DWORD PTR [ecx+0x10]
  403dfb:	push   0x46
  403dfd:	pop    ecx
  403dfe:	call   0x402af8
  403e03:	cmp    DWORD PTR ds:0x4113a4,0x0
  403e0a:	je     0x403e11
  403e0c:	call   0x402bab
  403e11:	mov    esi,0x2c9
  403e16:	push   esi
  403e17:	call   DWORD PTR ds:0x4120f8
  403e1d:	push   eax
  403e1e:	call   DWORD PTR ds:0x412104
  403e24:	push   esi
  403e25:	call   DWORD PTR ds:0x4120ec
  403e2b:	mov    ecx,DWORD PTR ds:0x411010
  403e31:	cmp    DWORD PTR ds:0x4113a4,0x0
  403e38:	je     0x403e45
  403e3a:	call   0x402bab
  403e3f:	mov    ecx,DWORD PTR ds:0x411010
  403e45:	cmp    ecx,0x411010
  403e4b:	je     0x403e6d
  403e4d:	cmp    BYTE PTR [ecx+0x19],0x4
  403e51:	jb     0x403e6d
  403e53:	test   BYTE PTR [ecx+0x1c],bl
  403e56:	je     0x403e6d
  403e58:	push   0x0
  403e5a:	push   DWORD PTR [ecx+0x14]
  403e5d:	mov    edx,0x40138c
  403e62:	push   DWORD PTR [ecx+0x10]
  403e65:	push   0x47
  403e67:	pop    ecx
  403e68:	call   0x402af8
  403e6d:	pop    edi
  403e6e:	pop    esi
  403e6f:	pop    ebx
  403e70:	ret    0x8
  403e73:	int3   
  403e74:	int3   
  403e75:	int3   
  403e76:	int3   
  403e77:	int3   
  403e78:	mov    edi,edi
  403e7a:	push   ebp
  403e7b:	mov    ebp,esp
  403e7d:	and    esp,0xfffffff8
  403e80:	sub    esp,0xc
  403e83:	push   ebx
  403e84:	push   esi
  403e85:	push   edi
  403e86:	xor    ebx,ebx
  403e88:	mov    DWORD PTR ds:0x4115b8,0x1
  403e92:	mov    esi,0x4115a0
  403e97:	mov    DWORD PTR ds:0x4115b0,ebx
  403e9d:	mov    DWORD PTR ds:0x4115a0,ebx
  403ea3:	mov    edi,0x411598
  403ea8:	mov    DWORD PTR ds:0x4115bc,ebx
  403eae:	mov    DWORD PTR ds:0x411598,0x40139c
  403eb8:	mov    DWORD PTR ds:0x411010,esi
  403ebe:	mov    ecx,DWORD PTR [edi]
  403ec0:	lea    eax,[esi+0x8]
  403ec3:	push   eax
  403ec4:	push   ebx
  403ec5:	push   ebx
  403ec6:	lea    eax,[esp+0x1c]
  403eca:	mov    DWORD PTR [esp+0x1c],ecx
  403ece:	push   eax
  403ecf:	push   0x1
  403ed1:	push   ecx
  403ed2:	push   esi
  403ed3:	mov    DWORD PTR [esp+0x30],ebx
  403ed7:	lea    edi,[edi+0x4]
  403eda:	push   0x402b30
  403edf:	mov    DWORD PTR [esi+0x20],ecx
  403ee2:	call   DWORD PTR ds:0x412188
  403ee8:	mov    esi,DWORD PTR [esi]
  403eea:	test   esi,esi
  403eec:	jne    0x403ebe
  403eee:	mov    eax,ds:0x411010
  403ef3:	mov    edi,0x411010
  403ef8:	mov    ebx,0x40138c
  403efd:	cmp    eax,edi
  403eff:	je     0x403f22
  403f01:	cmp    BYTE PTR [eax+0x19],0x4
  403f05:	jb     0x403f22
  403f07:	test   BYTE PTR [eax+0x1c],0x1
  403f0b:	je     0x403f22
  403f0d:	push   DWORD PTR [eax+0x14]
  403f10:	mov    edx,ebx
  403f12:	push   DWORD PTR [eax+0x10]
  403f15:	push   0x48
  403f17:	pop    ecx
  403f18:	call   0x402ad5
  403f1d:	mov    eax,ds:0x411010
  403f22:	cmp    DWORD PTR [ebp+0x8],0x2
  403f26:	je     0x403f47
  403f28:	push   0x57
  403f2a:	pop    esi
  403f2b:	cmp    eax,edi
  403f2d:	je     0x403f7a
  403f2f:	test   BYTE PTR [eax+0x1c],0x1
  403f33:	je     0x403f59
  403f35:	push   DWORD PTR [eax+0x14]
  403f38:	mov    edx,ebx
  403f3a:	push   DWORD PTR [eax+0x10]
  403f3d:	push   0x49
  403f3f:	pop    ecx
  403f40:	call   0x402ad5
  403f45:	jmp    0x403f54
  403f47:	mov    ecx,DWORD PTR [ebp+0xc]
  403f4a:	mov    ecx,DWORD PTR [ecx+0x4]
  403f4d:	call   0x403471
  403f52:	mov    esi,eax
  403f54:	mov    eax,ds:0x411010
  403f59:	cmp    eax,edi
  403f5b:	je     0x403f7a
  403f5d:	cmp    BYTE PTR [eax+0x19],0x4
  403f61:	jb     0x403f7a
  403f63:	test   BYTE PTR [eax+0x1c],0x1
  403f67:	je     0x403f7a
  403f69:	push   esi
  403f6a:	push   DWORD PTR [eax+0x14]
  403f6d:	mov    edx,ebx
  403f6f:	push   DWORD PTR [eax+0x10]
  403f72:	push   0x4a
  403f74:	pop    ecx
  403f75:	call   0x402af8
  403f7a:	cmp    DWORD PTR ds:0x4113a4,0x0
  403f81:	jne    0x403f88
  403f83:	call   0x402bab
  403f88:	xor    eax,eax
  403f8a:	test   esi,esi
  403f8c:	pop    edi
  403f8d:	pop    esi
  403f8e:	setne  al
  403f91:	pop    ebx
  403f92:	mov    esp,ebp
  403f94:	pop    ebp
  403f95:	ret    
  403f96:	int3   
  403f97:	int3   
  403f98:	int3   
  403f99:	int3   
  403f9a:	int3   
  403f9b:	mov    edi,edi
  403f9d:	push   ebx
  403f9e:	push   esi
  403f9f:	push   edi
  403fa0:	mov    eax,ds:0x411010
  403fa5:	mov    ebx,0x411010
  403faa:	cmp    eax,ebx
  403fac:	je     0x403fd2
  403fae:	cmp    BYTE PTR [eax+0x19],0x4
  403fb2:	jb     0x403fd2
  403fb4:	test   BYTE PTR [eax+0x1c],0x1
  403fb8:	je     0x403fd2
  403fba:	push   DWORD PTR [eax+0x14]
  403fbd:	mov    edx,0x4014ec
  403fc2:	push   DWORD PTR [eax+0x10]
  403fc5:	push   0xa
  403fc7:	pop    ecx
  403fc8:	call   0x402ad5
  403fcd:	mov    eax,ds:0x411010
  403fd2:	cmp    DWORD PTR ds:0x4113e4,0x1
  403fd9:	mov    edi,0x411580
  403fde:	je     0x403ffa
  403fe0:	push   0x4113e4
  403fe5:	mov    edx,0x4113e8
  403fea:	mov    ecx,edi
  403fec:	call   0x40ab90
  403ff1:	mov    esi,eax
  403ff3:	mov    eax,ds:0x411010
  403ff8:	jmp    0x403ffc
  403ffa:	xor    esi,esi
  403ffc:	test   esi,esi
  403ffe:	jne    0x40402f
  404000:	push   edi
  404001:	call   DWORD PTR ds:0x412128
  404007:	push   ecx
  404008:	call   0x40ad46
  40400d:	mov    esi,eax
  40400f:	test   esi,esi
  404011:	jne    0x404023
  404013:	and    DWORD PTR ds:0x4113dc,eax
  404019:	mov    DWORD PTR ds:0x4113d8,0x1
  404023:	push   edi
  404024:	call   DWORD PTR ds:0x412148
  40402a:	mov    eax,ds:0x411010
  40402f:	cmp    eax,ebx
  404031:	je     0x404053
  404033:	cmp    BYTE PTR [eax+0x19],0x4
  404037:	jb     0x404053
  404039:	test   BYTE PTR [eax+0x1c],0x1
  40403d:	je     0x404053
  40403f:	push   esi
  404040:	push   DWORD PTR [eax+0x14]
  404043:	mov    edx,0x4014ec
  404048:	push   DWORD PTR [eax+0x10]
  40404b:	push   0xb
  40404d:	pop    ecx
  40404e:	call   0x402af8
  404053:	pop    edi
  404054:	mov    eax,esi
  404056:	pop    esi
  404057:	pop    ebx
  404058:	ret    
  404059:	int3   
  40405a:	int3   
  40405b:	int3   
  40405c:	int3   
  40405d:	int3   
  40405e:	mov    edi,edi
  404060:	push   ebx
  404061:	push   esi
  404062:	push   edi
  404063:	xor    esi,esi
  404065:	mov    eax,ds:0x411010
  40406a:	mov    edi,0x411010
  40406f:	cmp    eax,edi
  404071:	je     0x404092
  404073:	cmp    BYTE PTR [eax+0x19],0x4
  404077:	jb     0x404092
  404079:	test   BYTE PTR [eax+0x1c],0x1
  40407d:	je     0x404092
  40407f:	push   DWORD PTR [eax+0x14]
  404082:	mov    edx,0x4014ec
  404087:	push   DWORD PTR [eax+0x10]
  40408a:	push   0xc
  40408c:	pop    ecx
  40408d:	call   0x402ad5
  404092:	mov    ebx,0x411580
  404097:	push   ebx
  404098:	call   DWORD PTR ds:0x412128
  40409e:	cmp    DWORD PTR ds:0x4113dc,esi
  4040a4:	je     0x4040cf
  4040a6:	mov    esi,0x139f
  4040ab:	mov    eax,ds:0x411010
  4040b0:	cmp    eax,edi
  4040b2:	je     0x4040eb
  4040b4:	test   BYTE PTR [eax+0x1c],0x1
  4040b8:	je     0x4040eb
  4040ba:	push   DWORD PTR [eax+0x14]
  4040bd:	mov    edx,0x4014ec
  4040c2:	push   DWORD PTR [eax+0x10]
  4040c5:	push   0xd
  4040c7:	pop    ecx
  4040c8:	call   0x402ad5
  4040cd:	jmp    0x4040eb
  4040cf:	mov    ecx,0x4113e0
  4040d4:	call   0x40acb2
  4040d9:	mov    DWORD PTR ds:0x4113e0,esi
  4040df:	mov    DWORD PTR ds:0x4113dc,esi
  4040e5:	mov    DWORD PTR ds:0x4113d8,esi
  4040eb:	push   ebx
  4040ec:	call   DWORD PTR ds:0x412148
  4040f2:	mov    ecx,DWORD PTR ds:0x411010
  4040f8:	cmp    ecx,edi
  4040fa:	je     0x40411c
  4040fc:	cmp    BYTE PTR [ecx+0x19],0x4
  404100:	jb     0x40411c
  404102:	test   BYTE PTR [ecx+0x1c],0x1
  404106:	je     0x40411c
  404108:	push   esi
  404109:	push   DWORD PTR [ecx+0x14]
  40410c:	mov    edx,0x4014ec
  404111:	push   DWORD PTR [ecx+0x10]
  404114:	push   0xe
  404116:	pop    ecx
  404117:	call   0x402af8
  40411c:	pop    edi
  40411d:	mov    eax,esi
  40411f:	pop    esi
  404120:	pop    ebx
  404121:	ret    
  404122:	int3   
  404123:	int3   
  404124:	int3   
  404125:	int3   
  404126:	int3   
  404127:	mov    edi,edi
  404129:	push   ebx
  40412a:	push   esi
  40412b:	push   edi
  40412c:	mov    eax,ds:0x411010
  404131:	mov    edi,0x411010
  404136:	mov    ebx,0x4014ec
  40413b:	cmp    eax,edi
  40413d:	je     0x40415b
  40413f:	cmp    BYTE PTR [eax+0x19],0x4
  404143:	jb     0x40415b
  404145:	test   BYTE PTR [eax+0x1c],0x1
  404149:	je     0x40415b
  40414b:	push   DWORD PTR [eax+0x14]
  40414e:	mov    edx,ebx
  404150:	push   DWORD PTR [eax+0x10]
  404153:	push   0xf
  404155:	pop    ecx
  404156:	call   0x402ad5
  40415b:	mov    esi,0x411580
  404160:	push   esi
  404161:	call   DWORD PTR ds:0x412128
  404167:	and    DWORD PTR ds:0x4113d8,0x0
  40416e:	push   esi
  40416f:	call   DWORD PTR ds:0x412148
  404175:	mov    eax,ds:0x411010
  40417a:	cmp    eax,edi
  40417c:	je     0x40419c
  40417e:	cmp    BYTE PTR [eax+0x19],0x4
  404182:	jb     0x40419c
  404184:	test   BYTE PTR [eax+0x1c],0x1
  404188:	je     0x40419c
  40418a:	push   0x0
  40418c:	push   DWORD PTR [eax+0x14]
  40418f:	mov    edx,ebx
  404191:	push   DWORD PTR [eax+0x10]
  404194:	push   0x10
  404196:	pop    ecx
  404197:	call   0x402af8
  40419c:	pop    edi
  40419d:	pop    esi
  40419e:	pop    ebx
  40419f:	ret    
  4041a0:	int3   
  4041a1:	int3   
  4041a2:	int3   
  4041a3:	int3   
  4041a4:	int3   
  4041a5:	mov    edi,edi
  4041a7:	push   ebx
  4041a8:	push   esi
  4041a9:	push   edi
  4041aa:	mov    edi,ecx
  4041ac:	xor    esi,esi
  4041ae:	mov    eax,ds:0x411010
  4041b3:	mov    ebx,0x411010
  4041b8:	cmp    eax,ebx
  4041ba:	je     0x4041db
  4041bc:	cmp    BYTE PTR [eax+0x19],0x4
  4041c0:	jb     0x4041db
  4041c2:	test   BYTE PTR [eax+0x1c],0x1
  4041c6:	je     0x4041db
  4041c8:	push   DWORD PTR [eax+0x14]
  4041cb:	mov    edx,0x4014ec
  4041d0:	push   DWORD PTR [eax+0x10]
  4041d3:	push   0x11
  4041d5:	pop    ecx
  4041d6:	call   0x402ad5
  4041db:	push   0x411580
  4041e0:	call   DWORD PTR ds:0x412128
  4041e6:	cmp    DWORD PTR ds:0x4113d8,esi
  4041ec:	jne    0x404215
  4041ee:	push   0x5
  4041f0:	pop    esi
  4041f1:	mov    eax,ds:0x411010
  4041f6:	cmp    eax,ebx
  4041f8:	je     0x404222
  4041fa:	test   BYTE PTR [eax+0x1c],0x1
  4041fe:	je     0x404222
  404200:	push   DWORD PTR [eax+0x14]
  404203:	mov    edx,0x4014ec
  404208:	push   DWORD PTR [eax+0x10]
  40420b:	push   0x12
  40420d:	pop    ecx
  40420e:	call   0x402ad5
  404213:	jmp    0x404222
  404215:	mov    eax,ds:0x4113e0
  40421a:	inc    DWORD PTR ds:0x4113dc
  404220:	mov    DWORD PTR [edi],eax
  404222:	push   0x411580
  404227:	call   DWORD PTR ds:0x412148
  40422d:	mov    ecx,DWORD PTR ds:0x411010
  404233:	cmp    ecx,ebx
  404235:	je     0x404257
  404237:	cmp    BYTE PTR [ecx+0x19],0x4
  40423b:	jb     0x404257
  40423d:	test   BYTE PTR [ecx+0x1c],0x1
  404241:	je     0x404257
  404243:	push   esi
  404244:	push   DWORD PTR [ecx+0x14]
  404247:	mov    edx,0x4014ec
  40424c:	push   DWORD PTR [ecx+0x10]
  40424f:	push   0x13
  404251:	pop    ecx
  404252:	call   0x402af8
  404257:	pop    edi
  404258:	mov    eax,esi
  40425a:	pop    esi
  40425b:	pop    ebx
  40425c:	ret    
  40425d:	int3   
  40425e:	int3   
  40425f:	int3   
  404260:	int3   
  404261:	int3   
  404262:	mov    edi,edi
  404264:	push   ecx
  404265:	push   esi
  404266:	push   edi
  404267:	mov    esi,ecx
  404269:	mov    eax,ds:0x411010
  40426e:	cmp    eax,0x411010
  404273:	je     0x404299
  404275:	cmp    BYTE PTR [eax+0x19],0x4
  404279:	jb     0x404299
  40427b:	test   BYTE PTR [eax+0x1c],0x1
  40427f:	je     0x404299
  404281:	push   DWORD PTR [eax+0x14]
  404284:	mov    edx,0x4014ec
  404289:	push   DWORD PTR [eax+0x10]
  40428c:	push   0x14
  40428e:	pop    ecx
  40428f:	call   0x402ad5
  404294:	mov    eax,ds:0x411010
  404299:	cmp    DWORD PTR [esi],0x0
  40429c:	je     0x4042bf
  40429e:	mov    edi,0x411580
  4042a3:	push   edi
  4042a4:	call   DWORD PTR ds:0x412128
  4042aa:	dec    DWORD PTR ds:0x4113dc
  4042b0:	and    DWORD PTR [esi],0x0
  4042b3:	push   edi
  4042b4:	call   DWORD PTR ds:0x412148
  4042ba:	mov    eax,ds:0x411010
  4042bf:	cmp    eax,0x411010
  4042c4:	je     0x4042e7
  4042c6:	cmp    BYTE PTR [eax+0x19],0x4
  4042ca:	jb     0x4042e7
  4042cc:	test   BYTE PTR [eax+0x1c],0x1
  4042d0:	je     0x4042e7
  4042d2:	push   0x0
  4042d4:	push   DWORD PTR [eax+0x14]
  4042d7:	mov    edx,0x4014ec
  4042dc:	push   DWORD PTR [eax+0x10]
  4042df:	push   0x15
  4042e1:	pop    ecx
  4042e2:	call   0x402af8
  4042e7:	pop    edi
  4042e8:	pop    esi
  4042e9:	pop    ecx
  4042ea:	ret    
  4042eb:	int3   
  4042ec:	int3   
  4042ed:	int3   
  4042ee:	int3   
  4042ef:	int3   
  4042f0:	push   0x18
  4042f2:	push   0x410870
  4042f7:	call   0x41072c
  4042fc:	mov    eax,ds:0x4113a0
  404301:	mov    DWORD PTR [ebp-0x20],eax
  404304:	and    DWORD PTR [ebp-0x1c],0x0
  404308:	mov    eax,ds:0x411010
  40430d:	mov    ebx,0x411010
  404312:	cmp    eax,ebx
  404314:	je     0x404335
  404316:	cmp    BYTE PTR [eax+0x19],0x4
  40431a:	jb     0x404335
  40431c:	test   BYTE PTR [eax+0x1c],0x1
  404320:	je     0x404335
  404322:	push   DWORD PTR [eax+0x14]
  404325:	push   DWORD PTR [eax+0x10]
  404328:	mov    edx,0x4014ec
  40432d:	push   0x16
  40432f:	pop    ecx
  404330:	call   0x402ad5
  404335:	lea    ecx,[ebp-0x1c]
  404338:	call   0x4041a5
  40433d:	mov    esi,eax
  40433f:	test   esi,esi
  404341:	jne    0x4043d8
  404347:	and    DWORD PTR [ebp-0x4],eax
  40434a:	call   DWORD PTR ds:0x412100
  404350:	push   eax
  404351:	sub    esp,0x10
  404354:	lea    esi,[ebp+0x8]
  404357:	mov    edi,esp
  404359:	movs   DWORD PTR es:[edi],DWORD PTR ds:[esi]
  40435a:	movs   DWORD PTR es:[edi],DWORD PTR ds:[esi]
  40435b:	movs   DWORD PTR es:[edi],DWORD PTR ds:[esi]
  40435c:	movs   DWORD PTR es:[edi],DWORD PTR ds:[esi]
  40435d:	push   DWORD PTR [ebp-0x20]
  404360:	push   DWORD PTR [ebp-0x1c]
  404363:	push   0x40206a
  404368:	push   0x401270
  40436d:	call   DWORD PTR ds:0x412038
  404373:	add    esp,0x24
  404376:	mov    esi,eax
  404378:	mov    DWORD PTR [ebp-0x28],esi
  40437b:	mov    DWORD PTR [ebp-0x4],0xfffffffe
  404382:	jmp    0x4043ab
  404384:	mov    eax,DWORD PTR [ebp-0x14]
  404387:	mov    eax,DWORD PTR [eax]
  404389:	mov    eax,DWORD PTR [eax]
  40438b:	mov    DWORD PTR [ebp-0x24],eax
  40438e:	push   eax
  40438f:	call   DWORD PTR ds:0x412028
  404395:	ret    
  404396:	mov    esp,DWORD PTR [ebp-0x18]
  404399:	mov    esi,DWORD PTR [ebp-0x24]
  40439c:	mov    DWORD PTR [ebp-0x28],esi
  40439f:	mov    DWORD PTR [ebp-0x4],0xfffffffe
  4043a6:	mov    ebx,0x411010
  4043ab:	test   esi,esi
  4043ad:	je     0x4043d8
  4043af:	mov    eax,ds:0x411010
  4043b4:	cmp    eax,ebx
  4043b6:	je     0x4043d8
  4043b8:	cmp    BYTE PTR [eax+0x19],0x1
  4043bc:	jb     0x4043d8
  4043be:	test   BYTE PTR [eax+0x1c],0x1
  4043c2:	je     0x4043d8
  4043c4:	push   esi
  4043c5:	push   DWORD PTR [eax+0x14]
  4043c8:	push   DWORD PTR [eax+0x10]
  4043cb:	mov    edx,0x4014ec
  4043d0:	push   0x17
  4043d2:	pop    ecx
  4043d3:	call   0x402af8
  4043d8:	lea    ecx,[ebp-0x1c]
  4043db:	call   0x404262
  4043e0:	mov    eax,ds:0x411010
  4043e5:	cmp    eax,ebx
  4043e7:	je     0x404409
  4043e9:	cmp    BYTE PTR [eax+0x19],0x4
  4043ed:	jb     0x404409
  4043ef:	test   BYTE PTR [eax+0x1c],0x1
  4043f3:	je     0x404409
  4043f5:	push   esi
  4043f6:	push   DWORD PTR [eax+0x14]
  4043f9:	push   DWORD PTR [eax+0x10]
  4043fc:	mov    edx,0x4014ec
  404401:	push   0x18
  404403:	pop    ecx
  404404:	call   0x402af8
  404409:	mov    eax,esi
  40440b:	call   0x410771
  404410:	ret    0x10
  404413:	int3   
  404414:	int3   
  404415:	int3   
  404416:	int3   
  404417:	int3   
  404418:	int3   
  404419:	int3   
  40441a:	int3   
  40441b:	int3   
  40441c:	int3   
  40441d:	int3   
  40441e:	int3   
  40441f:	int3   
  404420:	push   0x1c
  404422:	push   0x410890
  404427:	call   0x41072c
  40442c:	xor    edi,edi
  40442e:	mov    DWORD PTR [ebp-0x20],edi
  404431:	mov    DWORD PTR [ebp-0x1c],edi
  404434:	mov    DWORD PTR [ebp-0x24],edi
  404437:	push   DWORD PTR [ebp+0x10]
  40443a:	push   DWORD PTR [ebp+0x14]
  40443d:	mov    edx,0x4013ac
  404442:	push   0x5
  404444:	pop    ecx
  404445:	call   0x406502
  40444a:	cmp    DWORD PTR [ebp+0x14],edi
  40444d:	je     0x404489
  40444f:	cmp    DWORD PTR [ebp+0x10],edi
  404452:	jne    0x404489
  404454:	push   0x57
  404456:	pop    esi
  404457:	mov    eax,ds:0x411010
  40445c:	cmp    eax,0x411010
  404461:	je     0x40453d
  404467:	test   BYTE PTR [eax+0x1c],0x1
  40446b:	je     0x40453d
  404471:	push   DWORD PTR [eax+0x14]
  404474:	push   DWORD PTR [eax+0x10]
  404477:	mov    edx,0x4014ec
  40447c:	push   0x19
  40447e:	pop    ecx
  40447f:	call   0x402ad5
  404484:	jmp    0x40453d
  404489:	lea    eax,[ebp-0x24]
  40448c:	push   eax
  40448d:	push   edi
  40448e:	push   edi
  40448f:	lea    edx,[ebp-0x20]
  404492:	mov    ecx,DWORD PTR [ebp+0x8]
  404495:	call   0x402bf0
  40449a:	mov    esi,eax
  40449c:	test   esi,esi
  40449e:	jne    0x40453d
  4044a4:	lea    ecx,[ebp-0x1c]
  4044a7:	call   0x4041a5
  4044ac:	mov    esi,eax
  4044ae:	test   esi,esi
  4044b0:	jne    0x40453d
  4044b6:	mov    DWORD PTR [ebp-0x4],edi
  4044b9:	push   DWORD PTR [ebp+0x14]
  4044bc:	push   DWORD PTR [ebp+0x10]
  4044bf:	push   DWORD PTR [ebp+0xc]
  4044c2:	push   DWORD PTR [ebp-0x20]
  4044c5:	push   DWORD PTR [ebp-0x1c]
  4044c8:	push   0x40209e
  4044cd:	push   0x401270
  4044d2:	call   DWORD PTR ds:0x412038
  4044d8:	add    esp,0x1c
  4044db:	mov    esi,eax
  4044dd:	mov    DWORD PTR [ebp-0x2c],esi
  4044e0:	mov    DWORD PTR [ebp-0x4],0xfffffffe
  4044e7:	jmp    0x40450d
  4044e9:	mov    eax,DWORD PTR [ebp-0x14]
  4044ec:	mov    eax,DWORD PTR [eax]
  4044ee:	mov    eax,DWORD PTR [eax]
  4044f0:	mov    DWORD PTR [ebp-0x28],eax
  4044f3:	push   eax
  4044f4:	call   DWORD PTR ds:0x412028
  4044fa:	ret    
  4044fb:	mov    esp,DWORD PTR [ebp-0x18]
  4044fe:	mov    esi,DWORD PTR [ebp-0x28]
  404501:	mov    DWORD PTR [ebp-0x2c],esi
  404504:	mov    DWORD PTR [ebp-0x4],0xfffffffe
  40450b:	xor    edi,edi
  40450d:	test   esi,esi
  40450f:	je     0x40453d
  404511:	mov    eax,ds:0x411010
  404516:	cmp    eax,0x411010
  40451b:	je     0x40453d
  40451d:	cmp    BYTE PTR [eax+0x19],0x1
  404521:	jb     0x40453d
  404523:	test   BYTE PTR [eax+0x1c],0x1
  404527:	je     0x40453d
  404529:	push   esi
  40452a:	push   DWORD PTR [eax+0x14]
  40452d:	push   DWORD PTR [eax+0x10]
  404530:	mov    edx,0x4014ec
  404535:	push   0x1a
  404537:	pop    ecx
  404538:	call   0x402af8
  40453d:	mov    edx,DWORD PTR [ebp-0x24]
  404540:	mov    ecx,DWORD PTR [ebp+0x8]
  404543:	call   0x402cf9
  404548:	lea    ecx,[ebp-0x1c]
  40454b:	call   0x404262
  404550:	push   edi
  404551:	push   esi
  404552:	mov    edx,0x4013ac
  404557:	push   0x6
  404559:	pop    ecx
  40455a:	call   0x406502
  40455f:	mov    eax,esi
  404561:	call   0x410771
  404566:	ret    0x10
  404569:	int3   
  40456a:	int3   
  40456b:	int3   
  40456c:	int3   
  40456d:	int3   
  40456e:	int3   
  40456f:	int3   
  404570:	push   0x24
  404572:	push   0x4108b0
  404577:	call   0x41072c
  40457c:	xor    edi,edi
  40457e:	mov    DWORD PTR [ebp-0x20],edi
  404581:	mov    DWORD PTR [ebp-0x1c],edi
  404584:	mov    DWORD PTR [ebp-0x24],edi
  404587:	mov    ebx,DWORD PTR [ebp+0x14]
  40458a:	push   ebx
  40458b:	mov    esi,DWORD PTR [ebp+0x18]
  40458e:	push   esi
  40458f:	mov    edx,0x4013c4
  404594:	push   0x5
  404596:	pop    ecx
  404597:	call   0x406502
  40459c:	mov    eax,DWORD PTR [ebp+0xc]
  40459f:	test   eax,eax
  4045a1:	jne    0x4045d8
  4045a3:	push   0x57
  4045a5:	pop    esi
  4045a6:	mov    eax,ds:0x411010
  4045ab:	cmp    eax,0x411010
  4045b0:	je     0x40470b
  4045b6:	test   BYTE PTR [eax+0x1c],0x1
  4045ba:	je     0x40470b
  4045c0:	push   DWORD PTR [eax+0x14]
  4045c3:	push   DWORD PTR [eax+0x10]
  4045c6:	push   0x1b
  4045c8:	mov    edx,0x4014ec
  4045cd:	pop    ecx
  4045ce:	call   0x402ad5
  4045d3:	jmp    0x40470b
  4045d8:	test   esi,esi
  4045da:	je     0x404607
  4045dc:	test   ebx,ebx
  4045de:	jne    0x404607
  4045e0:	push   0x57
  4045e2:	pop    esi
  4045e3:	mov    eax,ds:0x411010
  4045e8:	cmp    eax,0x411010
  4045ed:	je     0x40470b
  4045f3:	test   BYTE PTR [eax+0x1c],0x1
  4045f7:	je     0x40470b
  4045fd:	push   DWORD PTR [eax+0x14]
  404600:	push   DWORD PTR [eax+0x10]
  404603:	push   0x1c
  404605:	jmp    0x4045c8
  404607:	mov    eax,DWORD PTR [eax+0x8]
  40460a:	mov    DWORD PTR [ebp-0x28],eax
  40460d:	lea    eax,[ebp-0x24]
  404610:	push   eax
  404611:	push   edi
  404612:	push   edi
  404613:	lea    edx,[ebp-0x20]
  404616:	mov    ecx,DWORD PTR [ebp+0x8]
  404619:	call   0x402bf0
  40461e:	mov    esi,eax
  404620:	test   esi,esi
  404622:	jne    0x40470b
  404628:	test   ebx,ebx
  40462a:	jne    0x404671
  40462c:	cmp    DWORD PTR [ebp+0x18],edi
  40462f:	jne    0x404671
  404631:	mov    edx,DWORD PTR [ebp+0xc]
  404634:	mov    ecx,DWORD PTR [ebp+0x8]
  404637:	call   0x40de70
  40463c:	mov    esi,eax
  40463e:	test   esi,esi
  404640:	je     0x404671
  404642:	mov    ecx,DWORD PTR ds:0x411010
  404648:	cmp    ecx,0x411010
  40464e:	je     0x404669
  404650:	test   BYTE PTR [ecx+0x1c],0x1
  404654:	je     0x404669
  404656:	push   DWORD PTR [ecx+0x14]
  404659:	push   DWORD PTR [ecx+0x10]
  40465c:	mov    edx,0x4014ec
  404661:	push   0x1d
  404663:	pop    ecx
  404664:	call   0x402ad5
  404669:	mov    DWORD PTR [ebp+0x18],esi
  40466c:	mov    ebx,0x10001
  404671:	lea    ecx,[ebp-0x1c]
  404674:	call   0x4041a5
  404679:	mov    esi,eax
  40467b:	test   esi,esi
  40467d:	jne    0x40470b
  404683:	mov    DWORD PTR [ebp-0x4],edi
  404686:	push   DWORD PTR [ebp+0x18]
  404689:	push   ebx
  40468a:	push   DWORD PTR [ebp+0x10]
  40468d:	push   DWORD PTR [ebp-0x28]
  404690:	push   DWORD PTR [ebp-0x20]
  404693:	push   DWORD PTR [ebp-0x1c]
  404696:	push   0x4020d8
  40469b:	push   0x401270
  4046a0:	call   DWORD PTR ds:0x412038
  4046a6:	add    esp,0x20
  4046a9:	mov    esi,eax
  4046ab:	mov    DWORD PTR [ebp-0x30],esi
  4046ae:	mov    DWORD PTR [ebp-0x4],0xfffffffe
  4046b5:	jmp    0x4046db
  4046b7:	mov    eax,DWORD PTR [ebp-0x14]
  4046ba:	mov    eax,DWORD PTR [eax]
  4046bc:	mov    eax,DWORD PTR [eax]
  4046be:	mov    DWORD PTR [ebp-0x2c],eax
  4046c1:	push   eax
  4046c2:	call   DWORD PTR ds:0x412028
  4046c8:	ret    
  4046c9:	mov    esp,DWORD PTR [ebp-0x18]
  4046cc:	mov    esi,DWORD PTR [ebp-0x2c]
  4046cf:	mov    DWORD PTR [ebp-0x30],esi
  4046d2:	mov    DWORD PTR [ebp-0x4],0xfffffffe
  4046d9:	xor    edi,edi
  4046db:	test   esi,esi
  4046dd:	je     0x40470b
  4046df:	mov    eax,ds:0x411010
  4046e4:	cmp    eax,0x411010
  4046e9:	je     0x40470b
  4046eb:	cmp    BYTE PTR [eax+0x19],0x1
  4046ef:	jb     0x40470b
  4046f1:	test   BYTE PTR [eax+0x1c],0x1
  4046f5:	je     0x40470b
  4046f7:	push   esi
  4046f8:	push   DWORD PTR [eax+0x14]
  4046fb:	push   DWORD PTR [eax+0x10]
  4046fe:	mov    edx,0x4014ec
  404703:	push   0x1e
  404705:	pop    ecx
  404706:	call   0x402af8
  40470b:	mov    edx,DWORD PTR [ebp-0x24]
  40470e:	mov    ecx,DWORD PTR [ebp+0x8]
  404711:	call   0x402cf9
  404716:	lea    ecx,[ebp-0x1c]
  404719:	call   0x404262
  40471e:	push   edi
  40471f:	push   esi
  404720:	mov    edx,0x4013c4
  404725:	push   0x6
  404727:	pop    ecx
  404728:	call   0x406502
  40472d:	mov    eax,esi
  40472f:	call   0x410771
  404734:	ret    0x14
  404737:	int3   
  404738:	int3   
  404739:	int3   
  40473a:	int3   
  40473b:	int3   
  40473c:	int3   
  40473d:	int3   
  40473e:	int3   
  40473f:	int3   
  404740:	push   0x1c
  404742:	push   0x4108d0
  404747:	call   0x41072c
  40474c:	xor    edi,edi
  40474e:	mov    DWORD PTR [ebp-0x20],edi
  404751:	mov    DWORD PTR [ebp-0x1c],edi
  404754:	mov    DWORD PTR [ebp-0x24],edi
  404757:	push   edi
  404758:	push   edi
  404759:	mov    edx,0x4013dc
  40475e:	push   0x4
  404760:	pop    ecx
  404761:	call   0x406502
  404766:	cmp    DWORD PTR [ebp+0xc],edi
  404769:	jne    0x4047a0
  40476b:	push   0x57
  40476d:	pop    esi
  40476e:	mov    eax,ds:0x411010
  404773:	cmp    eax,0x411010
  404778:	je     0x40484e
  40477e:	test   BYTE PTR [eax+0x1c],0x1
  404782:	je     0x40484e
  404788:	push   DWORD PTR [eax+0x14]
  40478b:	push   DWORD PTR [eax+0x10]
  40478e:	mov    edx,0x4014ec
  404793:	push   0x1f
  404795:	pop    ecx
  404796:	call   0x402ad5
  40479b:	jmp    0x40484e
  4047a0:	lea    eax,[ebp-0x24]
  4047a3:	push   eax
  4047a4:	push   edi
  4047a5:	push   edi
  4047a6:	lea    edx,[ebp-0x20]
  4047a9:	mov    ecx,DWORD PTR [ebp+0x8]
  4047ac:	call   0x402bf0
  4047b1:	mov    esi,eax
  4047b3:	test   esi,esi
  4047b5:	jne    0x40484e
  4047bb:	lea    ecx,[ebp-0x1c]
  4047be:	call   0x4041a5
  4047c3:	mov    esi,eax
  4047c5:	test   esi,esi
  4047c7:	jne    0x40484e
  4047cd:	mov    DWORD PTR [ebp-0x4],edi
  4047d0:	push   DWORD PTR [ebp+0xc]
  4047d3:	push   DWORD PTR [ebp-0x20]
  4047d6:	push   DWORD PTR [ebp-0x1c]
  4047d9:	push   0x402118
  4047de:	push   0x401270
  4047e3:	call   DWORD PTR ds:0x412038
  4047e9:	add    esp,0x14
  4047ec:	mov    esi,eax
  4047ee:	mov    DWORD PTR [ebp-0x2c],esi
  4047f1:	mov    DWORD PTR [ebp-0x4],0xfffffffe
  4047f8:	jmp    0x40481e
  4047fa:	mov    eax,DWORD PTR [ebp-0x14]
  4047fd:	mov    eax,DWORD PTR [eax]
  4047ff:	mov    eax,DWORD PTR [eax]
  404801:	mov    DWORD PTR [ebp-0x28],eax
  404804:	push   eax
  404805:	call   DWORD PTR ds:0x412028
  40480b:	ret    
  40480c:	mov    esp,DWORD PTR [ebp-0x18]
  40480f:	mov    esi,DWORD PTR [ebp-0x28]
  404812:	mov    DWORD PTR [ebp-0x2c],esi
  404815:	mov    DWORD PTR [ebp-0x4],0xfffffffe
  40481c:	xor    edi,edi
  40481e:	test   esi,esi
  404820:	je     0x40484e
  404822:	mov    eax,ds:0x411010
  404827:	cmp    eax,0x411010
  40482c:	je     0x40484e
  40482e:	cmp    BYTE PTR [eax+0x19],0x1
  404832:	jb     0x40484e
  404834:	test   BYTE PTR [eax+0x1c],0x1
  404838:	je     0x40484e
  40483a:	push   esi
  40483b:	push   DWORD PTR [eax+0x14]
  40483e:	push   DWORD PTR [eax+0x10]
  404841:	mov    edx,0x4014ec
  404846:	push   0x20
  404848:	pop    ecx
  404849:	call   0x402af8
  40484e:	mov    edx,DWORD PTR [ebp-0x24]
  404851:	mov    ecx,DWORD PTR [ebp+0x8]
  404854:	call   0x402cf9
  404859:	lea    ecx,[ebp-0x1c]
  40485c:	call   0x404262
  404861:	push   edi
  404862:	push   esi
  404863:	mov    edx,0x4013dc
  404868:	push   0x6
  40486a:	pop    ecx
  40486b:	call   0x406502
  404870:	mov    eax,esi
  404872:	call   0x410771
  404877:	ret    0x8
  40487a:	int3   
  40487b:	int3   
  40487c:	int3   
  40487d:	int3   
  40487e:	int3   
  40487f:	int3   
  404880:	push   0x1c
  404882:	push   0x4108f0
  404887:	call   0x41072c
  40488c:	xor    edi,edi
  40488e:	mov    DWORD PTR [ebp-0x20],edi
  404891:	mov    DWORD PTR [ebp-0x1c],edi
  404894:	mov    DWORD PTR [ebp-0x24],edi
  404897:	push   edi
  404898:	push   edi
  404899:	mov    edx,0x4013ec
  40489e:	push   0x4
  4048a0:	pop    ecx
  4048a1:	call   0x406502
  4048a6:	cmp    DWORD PTR [ebp+0xc],edi
  4048a9:	jne    0x4048e0
  4048ab:	push   0x57
  4048ad:	pop    esi
  4048ae:	mov    eax,ds:0x411010
  4048b3:	cmp    eax,0x411010
  4048b8:	je     0x40498e
  4048be:	test   BYTE PTR [eax+0x1c],0x1
  4048c2:	je     0x40498e
  4048c8:	push   DWORD PTR [eax+0x14]
  4048cb:	push   DWORD PTR [eax+0x10]
  4048ce:	mov    edx,0x4014ec
  4048d3:	push   0x21
  4048d5:	pop    ecx
  4048d6:	call   0x402ad5
  4048db:	jmp    0x40498e
  4048e0:	lea    eax,[ebp-0x24]
  4048e3:	push   eax
  4048e4:	push   edi
  4048e5:	push   edi
  4048e6:	lea    edx,[ebp-0x20]
  4048e9:	mov    ecx,DWORD PTR [ebp+0x8]
  4048ec:	call   0x402bf0
  4048f1:	mov    esi,eax
  4048f3:	test   esi,esi
  4048f5:	jne    0x40498e
  4048fb:	lea    ecx,[ebp-0x1c]
  4048fe:	call   0x4041a5
  404903:	mov    esi,eax
  404905:	test   esi,esi
  404907:	jne    0x40498e
  40490d:	mov    DWORD PTR [ebp-0x4],edi
  404910:	push   DWORD PTR [ebp+0xc]
  404913:	push   DWORD PTR [ebp-0x20]
  404916:	push   DWORD PTR [ebp-0x1c]
  404919:	push   0x402146
  40491e:	push   0x401270
  404923:	call   DWORD PTR ds:0x412038
  404929:	add    esp,0x14
  40492c:	mov    esi,eax
  40492e:	mov    DWORD PTR [ebp-0x2c],esi
  404931:	mov    DWORD PTR [ebp-0x4],0xfffffffe
  404938:	jmp    0x40495e
  40493a:	mov    eax,DWORD PTR [ebp-0x14]
  40493d:	mov    eax,DWORD PTR [eax]
  40493f:	mov    eax,DWORD PTR [eax]
  404941:	mov    DWORD PTR [ebp-0x28],eax
  404944:	push   eax
  404945:	call   DWORD PTR ds:0x412028
  40494b:	ret    
  40494c:	mov    esp,DWORD PTR [ebp-0x18]
  40494f:	mov    esi,DWORD PTR [ebp-0x28]
  404952:	mov    DWORD PTR [ebp-0x2c],esi
  404955:	mov    DWORD PTR [ebp-0x4],0xfffffffe
  40495c:	xor    edi,edi
  40495e:	test   esi,esi
  404960:	je     0x40498e
  404962:	mov    eax,ds:0x411010
  404967:	cmp    eax,0x411010
  40496c:	je     0x40498e
  40496e:	cmp    BYTE PTR [eax+0x19],0x1
  404972:	jb     0x40498e
  404974:	test   BYTE PTR [eax+0x1c],0x1
  404978:	je     0x40498e
  40497a:	push   esi
  40497b:	push   DWORD PTR [eax+0x14]
  40497e:	push   DWORD PTR [eax+0x10]
  404981:	mov    edx,0x4014ec
  404986:	push   0x22
  404988:	pop    ecx
  404989:	call   0x402af8
  40498e:	mov    edx,DWORD PTR [ebp-0x24]
  404991:	mov    ecx,DWORD PTR [ebp+0x8]
  404994:	call   0x402cf9
  404999:	lea    ecx,[ebp-0x1c]
  40499c:	call   0x404262
  4049a1:	push   edi
  4049a2:	push   esi
  4049a3:	mov    edx,0x4013ec
  4049a8:	push   0x6
  4049aa:	pop    ecx
  4049ab:	call   0x406502
  4049b0:	mov    eax,esi
  4049b2:	call   0x410771
  4049b7:	ret    0x8
  4049ba:	int3   
  4049bb:	int3   
  4049bc:	int3   
  4049bd:	int3   
  4049be:	int3   
  4049bf:	int3   
  4049c0:	push   0x1c
  4049c2:	push   0x410910
  4049c7:	call   0x41072c
  4049cc:	xor    edi,edi
  4049ce:	mov    DWORD PTR [ebp-0x20],edi
  4049d1:	mov    DWORD PTR [ebp-0x1c],edi
  4049d4:	mov    DWORD PTR [ebp-0x24],edi
  4049d7:	push   edi
  4049d8:	push   edi
  4049d9:	mov    edx,0x401400
  4049de:	push   0x4
  4049e0:	pop    ecx
  4049e1:	call   0x406502
  4049e6:	cmp    DWORD PTR [ebp+0x14],edi
  4049e9:	je     0x404ab1
  4049ef:	cmp    DWORD PTR [ebp+0x18],edi
  4049f2:	je     0x404ab1
  4049f8:	lea    eax,[ebp-0x24]
  4049fb:	push   eax
  4049fc:	push   edi
  4049fd:	push   edi
  4049fe:	lea    edx,[ebp-0x20]
  404a01:	mov    ecx,DWORD PTR [ebp+0x8]
  404a04:	call   0x402bf0
  404a09:	mov    esi,eax
  404a0b:	test   esi,esi
  404a0d:	jne    0x404ad9
  404a13:	lea    ecx,[ebp-0x1c]
  404a16:	call   0x4041a5
  404a1b:	mov    esi,eax
  404a1d:	test   esi,esi
  404a1f:	jne    0x404ad9
  404a25:	mov    DWORD PTR [ebp-0x4],edi
  404a28:	push   DWORD PTR [ebp+0x18]
  404a2b:	push   DWORD PTR [ebp+0x14]
  404a2e:	push   DWORD PTR [ebp+0x10]
  404a31:	push   DWORD PTR [ebp+0xc]
  404a34:	push   DWORD PTR [ebp-0x20]
  404a37:	push   DWORD PTR [ebp-0x1c]
  404a3a:	push   0x402174
  404a3f:	push   0x401270
  404a44:	call   DWORD PTR ds:0x412038
  404a4a:	add    esp,0x20
  404a4d:	mov    esi,eax
  404a4f:	mov    DWORD PTR [ebp-0x2c],esi
  404a52:	mov    DWORD PTR [ebp-0x4],0xfffffffe
  404a59:	jmp    0x404a7f
  404a5b:	mov    eax,DWORD PTR [ebp-0x14]
  404a5e:	mov    eax,DWORD PTR [eax]
  404a60:	mov    eax,DWORD PTR [eax]
  404a62:	mov    DWORD PTR [ebp-0x28],eax
  404a65:	push   eax
  404a66:	call   DWORD PTR ds:0x412028
  404a6c:	ret    
  404a6d:	mov    esp,DWORD PTR [ebp-0x18]
  404a70:	mov    esi,DWORD PTR [ebp-0x28]
  404a73:	mov    DWORD PTR [ebp-0x2c],esi
  404a76:	mov    DWORD PTR [ebp-0x4],0xfffffffe
  404a7d:	xor    edi,edi
  404a7f:	test   esi,esi
  404a81:	je     0x404ad9
  404a83:	mov    eax,ds:0x411010
  404a88:	cmp    eax,0x411010
  404a8d:	je     0x404ad9
  404a8f:	cmp    BYTE PTR [eax+0x19],0x1
  404a93:	jb     0x404ad9
  404a95:	test   BYTE PTR [eax+0x1c],0x1
  404a99:	je     0x404ad9
  404a9b:	push   esi
  404a9c:	push   DWORD PTR [eax+0x14]
  404a9f:	push   DWORD PTR [eax+0x10]
  404aa2:	mov    edx,0x4014ec
  404aa7:	push   0x24
  404aa9:	pop    ecx
  404aaa:	call   0x402af8
  404aaf:	jmp    0x404ad9
  404ab1:	push   0x57
  404ab3:	pop    esi
  404ab4:	mov    eax,ds:0x411010
  404ab9:	cmp    eax,0x411010
  404abe:	je     0x404ad9
  404ac0:	test   BYTE PTR [eax+0x1c],0x1
  404ac4:	je     0x404ad9
  404ac6:	push   DWORD PTR [eax+0x14]
  404ac9:	push   DWORD PTR [eax+0x10]
  404acc:	mov    edx,0x4014ec
  404ad1:	push   0x23
  404ad3:	pop    ecx
  404ad4:	call   0x402ad5
  404ad9:	mov    edx,DWORD PTR [ebp-0x24]
  404adc:	mov    ecx,DWORD PTR [ebp+0x8]
  404adf:	call   0x402cf9
  404ae4:	lea    ecx,[ebp-0x1c]
  404ae7:	call   0x404262
  404aec:	push   edi
  404aed:	push   esi
  404aee:	mov    edx,0x401400
  404af3:	push   0x6
  404af5:	pop    ecx
  404af6:	call   0x406502
  404afb:	mov    eax,esi
  404afd:	call   0x410771
  404b02:	ret    0x14
  404b05:	int3   
  404b06:	int3   
  404b07:	int3   
  404b08:	int3   
  404b09:	int3   
  404b0a:	int3   
  404b0b:	int3   
  404b0c:	int3   
  404b0d:	int3   
  404b0e:	int3   
  404b0f:	int3   
  404b10:	push   0x1c
  404b12:	push   0x410930
  404b17:	call   0x41072c
  404b1c:	xor    edi,edi
  404b1e:	mov    DWORD PTR [ebp-0x20],edi
  404b21:	mov    DWORD PTR [ebp-0x1c],edi
  404b24:	mov    DWORD PTR [ebp-0x24],edi
  404b27:	push   edi
  404b28:	push   edi
  404b29:	mov    edx,0x40141c
  404b2e:	push   0x4
  404b30:	pop    ecx
  404b31:	call   0x406502
  404b36:	cmp    DWORD PTR [ebp+0x18],edi
  404b39:	jne    0x404b70
  404b3b:	push   0x57
  404b3d:	pop    esi
  404b3e:	mov    eax,ds:0x411010
  404b43:	cmp    eax,0x411010
  404b48:	je     0x404c27
  404b4e:	test   BYTE PTR [eax+0x1c],0x1
  404b52:	je     0x404c27
  404b58:	push   DWORD PTR [eax+0x14]
  404b5b:	push   DWORD PTR [eax+0x10]
  404b5e:	mov    edx,0x4014ec
  404b63:	push   0x25
  404b65:	pop    ecx
  404b66:	call   0x402ad5
  404b6b:	jmp    0x404c27
  404b70:	lea    eax,[ebp-0x24]
  404b73:	push   eax
  404b74:	push   edi
  404b75:	push   edi
  404b76:	lea    edx,[ebp-0x20]
  404b79:	mov    ecx,DWORD PTR [ebp+0x8]
  404b7c:	call   0x402bf0
  404b81:	mov    esi,eax
  404b83:	test   esi,esi
  404b85:	jne    0x404c27
  404b8b:	lea    ecx,[ebp-0x1c]
  404b8e:	call   0x4041a5
  404b93:	mov    esi,eax
  404b95:	test   esi,esi
  404b97:	jne    0x404c27
  404b9d:	mov    DWORD PTR [ebp-0x4],edi
  404ba0:	push   DWORD PTR [ebp+0x18]
  404ba3:	push   DWORD PTR [ebp+0x14]
  404ba6:	push   DWORD PTR [ebp+0x10]
  404ba9:	push   DWORD PTR [ebp+0xc]
  404bac:	push   DWORD PTR [ebp-0x20]
  404baf:	push   DWORD PTR [ebp-0x1c]
  404bb2:	push   0x4021b4
  404bb7:	push   0x401270
  404bbc:	call   DWORD PTR ds:0x412038
  404bc2:	add    esp,0x20
  404bc5:	mov    esi,eax
  404bc7:	mov    DWORD PTR [ebp-0x2c],esi
  404bca:	mov    DWORD PTR [ebp-0x4],0xfffffffe
  404bd1:	jmp    0x404bf7
  404bd3:	mov    eax,DWORD PTR [ebp-0x14]
  404bd6:	mov    eax,DWORD PTR [eax]
  404bd8:	mov    eax,DWORD PTR [eax]
  404bda:	mov    DWORD PTR [ebp-0x28],eax
  404bdd:	push   eax
  404bde:	call   DWORD PTR ds:0x412028
  404be4:	ret    
  404be5:	mov    esp,DWORD PTR [ebp-0x18]
  404be8:	mov    esi,DWORD PTR [ebp-0x28]
  404beb:	mov    DWORD PTR [ebp-0x2c],esi
  404bee:	mov    DWORD PTR [ebp-0x4],0xfffffffe
  404bf5:	xor    edi,edi
  404bf7:	test   esi,esi
  404bf9:	je     0x404c27
  404bfb:	mov    eax,ds:0x411010
  404c00:	cmp    eax,0x411010
  404c05:	je     0x404c27
  404c07:	cmp    BYTE PTR [eax+0x19],0x1
  404c0b:	jb     0x404c27
  404c0d:	test   BYTE PTR [eax+0x1c],0x1
  404c11:	je     0x404c27
  404c13:	push   esi
  404c14:	push   DWORD PTR [eax+0x14]
  404c17:	push   DWORD PTR [eax+0x10]
  404c1a:	mov    edx,0x4014ec
  404c1f:	push   0x26
  404c21:	pop    ecx
  404c22:	call   0x402af8
  404c27:	mov    edx,DWORD PTR [ebp-0x24]
  404c2a:	mov    ecx,DWORD PTR [ebp+0x8]
  404c2d:	call   0x402cf9
  404c32:	lea    ecx,[ebp-0x1c]
  404c35:	call   0x404262
  404c3a:	push   edi
  404c3b:	push   esi
  404c3c:	mov    edx,0x40141c
  404c41:	push   0x6
  404c43:	pop    ecx
  404c44:	call   0x406502
  404c49:	mov    eax,esi
  404c4b:	call   0x410771
  404c50:	ret    0x14
  404c53:	int3   
  404c54:	int3   
  404c55:	int3   
  404c56:	int3   
  404c57:	int3   
  404c58:	int3   
  404c59:	int3   
  404c5a:	int3   
  404c5b:	int3   
  404c5c:	int3   
  404c5d:	int3   
  404c5e:	int3   
  404c5f:	int3   
  404c60:	push   0x1c
  404c62:	push   0x410950
  404c67:	call   0x41072c
  404c6c:	xor    edi,edi
  404c6e:	mov    DWORD PTR [ebp-0x20],edi
  404c71:	mov    DWORD PTR [ebp-0x1c],edi
  404c74:	mov    DWORD PTR [ebp-0x24],edi
  404c77:	push   edi
  404c78:	push   edi
  404c79:	mov    edx,0x401438
  404c7e:	push   0x4
  404c80:	pop    ecx
  404c81:	call   0x406502
  404c86:	lea    eax,[ebp-0x24]
  404c89:	push   eax
  404c8a:	push   edi
  404c8b:	push   edi
  404c8c:	lea    edx,[ebp-0x20]
  404c8f:	mov    ecx,DWORD PTR [ebp+0x8]
  404c92:	call   0x402bf0
  404c97:	mov    esi,eax
  404c99:	test   esi,esi
  404c9b:	jne    0x404d3a
  404ca1:	lea    ecx,[ebp-0x1c]
  404ca4:	call   0x4041a5
  404ca9:	mov    esi,eax
  404cab:	test   esi,esi
  404cad:	jne    0x404d3a
  404cb3:	mov    DWORD PTR [ebp-0x4],edi
  404cb6:	push   DWORD PTR [ebp+0x14]
  404cb9:	push   DWORD PTR [ebp+0x10]
  404cbc:	push   DWORD PTR [ebp+0xc]
  404cbf:	push   DWORD PTR [ebp-0x20]
  404cc2:	push   DWORD PTR [ebp-0x1c]
  404cc5:	push   0x40222e
  404cca:	push   0x401270
  404ccf:	call   DWORD PTR ds:0x412038
  404cd5:	add    esp,0x1c
  404cd8:	mov    esi,eax
  404cda:	mov    DWORD PTR [ebp-0x2c],esi
  404cdd:	mov    DWORD PTR [ebp-0x4],0xfffffffe
  404ce4:	jmp    0x404d0a
  404ce6:	mov    eax,DWORD PTR [ebp-0x14]
  404ce9:	mov    eax,DWORD PTR [eax]
  404ceb:	mov    eax,DWORD PTR [eax]
  404ced:	mov    DWORD PTR [ebp-0x28],eax
  404cf0:	push   eax
  404cf1:	call   DWORD PTR ds:0x412028
  404cf7:	ret    
  404cf8:	mov    esp,DWORD PTR [ebp-0x18]
  404cfb:	mov    esi,DWORD PTR [ebp-0x28]
  404cfe:	mov    DWORD PTR [ebp-0x2c],esi
  404d01:	mov    DWORD PTR [ebp-0x4],0xfffffffe
  404d08:	xor    edi,edi
  404d0a:	test   esi,esi
  404d0c:	je     0x404d3a
  404d0e:	mov    eax,ds:0x411010
  404d13:	cmp    eax,0x411010
  404d18:	je     0x404d3a
  404d1a:	cmp    BYTE PTR [eax+0x19],0x1
  404d1e:	jb     0x404d3a
  404d20:	test   BYTE PTR [eax+0x1c],0x1
  404d24:	je     0x404d3a
  404d26:	push   esi
  404d27:	push   DWORD PTR [eax+0x14]
  404d2a:	push   DWORD PTR [eax+0x10]
  404d2d:	mov    edx,0x4014ec
  404d32:	push   0x27
  404d34:	pop    ecx
  404d35:	call   0x402af8
  404d3a:	mov    edx,DWORD PTR [ebp-0x24]
  404d3d:	mov    ecx,DWORD PTR [ebp+0x8]
  404d40:	call   0x402cf9
  404d45:	lea    ecx,[ebp-0x1c]
  404d48:	call   0x404262
  404d4d:	push   edi
  404d4e:	push   esi
  404d4f:	mov    edx,0x401438
  404d54:	push   0x6
  404d56:	pop    ecx
  404d57:	call   0x406502
  404d5c:	mov    eax,esi
  404d5e:	call   0x410771
  404d63:	ret    0x10
  404d66:	int3   
  404d67:	int3   
  404d68:	int3   
  404d69:	int3   
  404d6a:	int3   
  404d6b:	push   0x24
  404d6d:	push   0x410970
  404d72:	call   0x41072c
  404d77:	mov    ebx,edx
  404d79:	mov    DWORD PTR [ebp-0x1c],ecx
  404d7c:	xor    esi,esi
  404d7e:	mov    DWORD PTR [ebp-0x28],esi
  404d81:	mov    DWORD PTR [ebp-0x20],esi
  404d84:	mov    DWORD PTR [ebp-0x2c],esi
  404d87:	mov    DWORD PTR [ebp-0x24],esi
  404d8a:	mov    eax,ds:0x411010
  404d8f:	mov    edi,0x411010
  404d94:	cmp    eax,edi
  404d96:	je     0x404db7
  404d98:	cmp    BYTE PTR [eax+0x19],0x4
  404d9c:	jb     0x404db7
  404d9e:	test   BYTE PTR [eax+0x1c],0x1
  404da2:	je     0x404db7
  404da4:	push   DWORD PTR [eax+0x14]
  404da7:	push   DWORD PTR [eax+0x10]
  404daa:	mov    edx,0x4014ec
  404daf:	push   0x28
  404db1:	pop    ecx
  404db2:	call   0x402ad5
  404db7:	lea    eax,[ebp-0x2c]
  404dba:	push   eax
  404dbb:	push   esi
  404dbc:	push   esi
  404dbd:	lea    edx,[ebp-0x28]
  404dc0:	mov    ecx,DWORD PTR [ebp-0x1c]
  404dc3:	call   0x402bf0
  404dc8:	mov    esi,eax
  404dca:	test   esi,esi
  404dcc:	jne    0x404eaa
  404dd2:	cmp    ebx,0x1
  404dd5:	jne    0x404df8
  404dd7:	lea    eax,[ebp-0x24]
  404dda:	push   eax
  404ddb:	mov    edx,DWORD PTR [ebp+0xc]
  404dde:	mov    ecx,DWORD PTR [ebp+0x8]
  404de1:	call   0x40de1f
  404de6:	mov    esi,eax
  404de8:	test   esi,esi
  404dea:	jne    0x404eaa
  404df0:	push   DWORD PTR [ebp+0x10]
  404df3:	mov    edx,DWORD PTR [ebp-0x24]
  404df6:	jmp    0x404e01
  404df8:	cmp    ebx,0x2
  404dfb:	jne    0x404e13
  404dfd:	push   0x0
  404dff:	xor    edx,edx
  404e01:	mov    ecx,DWORD PTR [ebp-0x1c]
  404e04:	call   0x402f30
  404e09:	mov    esi,eax
  404e0b:	test   esi,esi
  404e0d:	jne    0x404eaa
  404e13:	lea    ecx,[ebp-0x20]
  404e16:	call   0x4041a5
  404e1b:	mov    esi,eax
  404e1d:	test   esi,esi
  404e1f:	jne    0x404eaa
  404e25:	and    DWORD PTR [ebp-0x4],eax
  404e28:	push   DWORD PTR [ebp+0xc]
  404e2b:	push   DWORD PTR [ebp+0x8]
  404e2e:	push   ebx
  404e2f:	push   DWORD PTR [ebp-0x28]
  404e32:	push   DWORD PTR [ebp-0x20]
  404e35:	push   0x4021f4
  404e3a:	push   0x401270
  404e3f:	call   DWORD PTR ds:0x412038
  404e45:	add    esp,0x1c
  404e48:	mov    esi,eax
  404e4a:	mov    DWORD PTR [ebp-0x34],esi
  404e4d:	mov    DWORD PTR [ebp-0x4],0xfffffffe
  404e54:	jmp    0x404e7d
  404e56:	mov    eax,DWORD PTR [ebp-0x14]
  404e59:	mov    eax,DWORD PTR [eax]
  404e5b:	mov    eax,DWORD PTR [eax]
  404e5d:	mov    DWORD PTR [ebp-0x30],eax
  404e60:	push   eax
  404e61:	call   DWORD PTR ds:0x412028
  404e67:	ret    
  404e68:	mov    esp,DWORD PTR [ebp-0x18]
  404e6b:	mov    esi,DWORD PTR [ebp-0x30]
  404e6e:	mov    DWORD PTR [ebp-0x34],esi
  404e71:	mov    DWORD PTR [ebp-0x4],0xfffffffe
  404e78:	mov    edi,0x411010
  404e7d:	test   esi,esi
  404e7f:	je     0x404eaa
  404e81:	mov    eax,ds:0x411010
  404e86:	cmp    eax,edi
  404e88:	je     0x404eaa
  404e8a:	cmp    BYTE PTR [eax+0x19],0x1
  404e8e:	jb     0x404eaa
  404e90:	test   BYTE PTR [eax+0x1c],0x1
  404e94:	je     0x404eaa
  404e96:	push   esi
  404e97:	push   DWORD PTR [eax+0x14]
  404e9a:	push   DWORD PTR [eax+0x10]
  404e9d:	mov    edx,0x4014ec
  404ea2:	push   0x29
  404ea4:	pop    ecx
  404ea5:	call   0x402af8
  404eaa:	mov    edx,DWORD PTR [ebp-0x2c]
  404ead:	mov    ecx,DWORD PTR [ebp-0x1c]
  404eb0:	call   0x402cf9
  404eb5:	lea    ecx,[ebp-0x20]
  404eb8:	call   0x404262
  404ebd:	mov    eax,ds:0x411010
  404ec2:	cmp    eax,edi
  404ec4:	je     0x404ee6
  404ec6:	cmp    BYTE PTR [eax+0x19],0x4
  404eca:	jb     0x404ee6
  404ecc:	test   BYTE PTR [eax+0x1c],0x1
  404ed0:	je     0x404ee6
  404ed2:	push   esi
  404ed3:	push   DWORD PTR [eax+0x14]
  404ed6:	push   DWORD PTR [eax+0x10]
  404ed9:	mov    edx,0x4014ec
  404ede:	push   0x2a
  404ee0:	pop    ecx
  404ee1:	call   0x402af8
  404ee6:	mov    eax,esi
  404ee8:	call   0x410771
  404eed:	ret    0xc
  404ef0:	int3   
  404ef1:	int3   
  404ef2:	int3   
  404ef3:	int3   
  404ef4:	int3   
  404ef5:	int3   
  404ef6:	int3   
  404ef7:	int3   
  404ef8:	int3   
  404ef9:	int3   
  404efa:	int3   
  404efb:	int3   
  404efc:	int3   
  404efd:	int3   
  404efe:	int3   
  404eff:	int3   
  404f00:	push   0x1c
  404f02:	push   0x410990
  404f07:	call   0x41072c
  404f0c:	xor    edi,edi
  404f0e:	mov    DWORD PTR [ebp-0x20],edi
  404f11:	mov    DWORD PTR [ebp-0x1c],edi
  404f14:	mov    DWORD PTR [ebp-0x24],edi
  404f17:	push   edi
  404f18:	push   edi
  404f19:	mov    edx,0x40144c
  404f1e:	push   0x4
  404f20:	pop    ecx
  404f21:	call   0x406502
  404f26:	lea    eax,[ebp-0x24]
  404f29:	push   eax
  404f2a:	push   edi
  404f2b:	push   edi
  404f2c:	lea    edx,[ebp-0x20]
  404f2f:	mov    ecx,DWORD PTR [ebp+0x8]
  404f32:	call   0x402bf0
  404f37:	mov    esi,eax
  404f39:	test   esi,esi
  404f3b:	jne    0x404fd4
  404f41:	lea    ecx,[ebp-0x1c]
  404f44:	call   0x4041a5
  404f49:	mov    esi,eax
  404f4b:	test   esi,esi
  404f4d:	jne    0x404fd4
  404f53:	mov    DWORD PTR [ebp-0x4],edi
  404f56:	push   DWORD PTR [ebp+0xc]
  404f59:	push   DWORD PTR [ebp-0x20]
  404f5c:	push   DWORD PTR [ebp-0x1c]
  404f5f:	push   0x402268
  404f64:	push   0x401270
  404f69:	call   DWORD PTR ds:0x412038
  404f6f:	add    esp,0x14
  404f72:	mov    esi,eax
  404f74:	mov    DWORD PTR [ebp-0x2c],esi
  404f77:	mov    DWORD PTR [ebp-0x4],0xfffffffe
  404f7e:	jmp    0x404fa4
  404f80:	mov    eax,DWORD PTR [ebp-0x14]
  404f83:	mov    eax,DWORD PTR [eax]
  404f85:	mov    eax,DWORD PTR [eax]
  404f87:	mov    DWORD PTR [ebp-0x28],eax
  404f8a:	push   eax
  404f8b:	call   DWORD PTR ds:0x412028
  404f91:	ret    
  404f92:	mov    esp,DWORD PTR [ebp-0x18]
  404f95:	mov    esi,DWORD PTR [ebp-0x28]
  404f98:	mov    DWORD PTR [ebp-0x2c],esi
  404f9b:	mov    DWORD PTR [ebp-0x4],0xfffffffe
  404fa2:	xor    edi,edi
  404fa4:	test   esi,esi
  404fa6:	je     0x404fd4
  404fa8:	mov    eax,ds:0x411010
  404fad:	cmp    eax,0x411010
  404fb2:	je     0x404fd4
  404fb4:	cmp    BYTE PTR [eax+0x19],0x1
  404fb8:	jb     0x404fd4
  404fba:	test   BYTE PTR [eax+0x1c],0x1
  404fbe:	je     0x404fd4
  404fc0:	push   esi
  404fc1:	push   DWORD PTR [eax+0x14]
  404fc4:	push   DWORD PTR [eax+0x10]
  404fc7:	mov    edx,0x4014ec
  404fcc:	push   0x2b
  404fce:	pop    ecx
  404fcf:	call   0x402af8
  404fd4:	mov    edx,DWORD PTR [ebp-0x24]
  404fd7:	mov    ecx,DWORD PTR [ebp+0x8]
  404fda:	call   0x402cf9
  404fdf:	lea    ecx,[ebp-0x1c]
  404fe2:	call   0x404262
  404fe7:	push   edi
  404fe8:	push   esi
  404fe9:	mov    edx,0x40144c
  404fee:	push   0x6
  404ff0:	pop    ecx
  404ff1:	call   0x406502
  404ff6:	mov    eax,esi
  404ff8:	call   0x410771
  404ffd:	ret    0x8
  405000:	int3   
  405001:	int3   
  405002:	int3   
  405003:	int3   
  405004:	int3   
  405005:	int3   
  405006:	int3   
  405007:	int3   
  405008:	int3   
  405009:	int3   
  40500a:	int3   
  40500b:	int3   
  40500c:	int3   
  40500d:	int3   
  40500e:	int3   
  40500f:	int3   
  405010:	push   0x1c
  405012:	push   0x4109b0
  405017:	call   0x41072c
  40501c:	xor    edi,edi
  40501e:	mov    DWORD PTR [ebp-0x20],edi
  405021:	mov    DWORD PTR [ebp-0x1c],edi
  405024:	mov    DWORD PTR [ebp-0x24],edi
  405027:	push   edi
  405028:	push   edi
  405029:	mov    edx,0x401458
  40502e:	push   0x4
  405030:	pop    ecx
  405031:	call   0x406502
  405036:	lea    eax,[ebp-0x24]
  405039:	push   eax
  40503a:	push   edi
  40503b:	push   edi
  40503c:	lea    edx,[ebp-0x20]
  40503f:	mov    ecx,DWORD PTR [ebp+0x8]
  405042:	call   0x402bf0
  405047:	mov    esi,eax
  405049:	test   esi,esi
  40504b:	jne    0x4050dd
  405051:	lea    ecx,[ebp-0x1c]
  405054:	call   0x4041a5
  405059:	mov    esi,eax
  40505b:	test   esi,esi
  40505d:	jne    0x4050dd
  40505f:	mov    DWORD PTR [ebp-0x4],edi
  405062:	push   DWORD PTR [ebp-0x20]
  405065:	push   DWORD PTR [ebp-0x1c]
  405068:	push   0x402296
  40506d:	push   0x401270
  405072:	call   DWORD PTR ds:0x412038
  405078:	add    esp,0x10
  40507b:	mov    esi,eax
  40507d:	mov    DWORD PTR [ebp-0x2c],esi
  405080:	mov    DWORD PTR [ebp-0x4],0xfffffffe
  405087:	jmp    0x4050ad
  405089:	mov    eax,DWORD PTR [ebp-0x14]
  40508c:	mov    eax,DWORD PTR [eax]
  40508e:	mov    eax,DWORD PTR [eax]
  405090:	mov    DWORD PTR [ebp-0x28],eax
  405093:	push   eax
  405094:	call   DWORD PTR ds:0x412028
  40509a:	ret    
  40509b:	mov    esp,DWORD PTR [ebp-0x18]
  40509e:	mov    esi,DWORD PTR [ebp-0x28]
  4050a1:	mov    DWORD PTR [ebp-0x2c],esi
  4050a4:	mov    DWORD PTR [ebp-0x4],0xfffffffe
  4050ab:	xor    edi,edi
  4050ad:	test   esi,esi
  4050af:	je     0x4050dd
  4050b1:	mov    eax,ds:0x411010
  4050b6:	cmp    eax,0x411010
  4050bb:	je     0x4050dd
  4050bd:	cmp    BYTE PTR [eax+0x19],0x1
  4050c1:	jb     0x4050dd
  4050c3:	test   BYTE PTR [eax+0x1c],0x1
  4050c7:	je     0x4050dd
  4050c9:	push   esi
  4050ca:	push   DWORD PTR [eax+0x14]
  4050cd:	push   DWORD PTR [eax+0x10]
  4050d0:	mov    edx,0x4014ec
  4050d5:	push   0x2c
  4050d7:	pop    ecx
  4050d8:	call   0x402af8
  4050dd:	mov    edx,DWORD PTR [ebp-0x24]
  4050e0:	mov    ecx,DWORD PTR [ebp+0x8]
  4050e3:	call   0x402cf9
  4050e8:	lea    ecx,[ebp-0x1c]
  4050eb:	call   0x404262
  4050f0:	push   edi
  4050f1:	push   esi
  4050f2:	mov    edx,0x401458
  4050f7:	push   0x6
  4050f9:	pop    ecx
  4050fa:	call   0x406502
  4050ff:	mov    eax,esi
  405101:	call   0x410771
  405106:	ret    0x4
  405109:	int3   
  40510a:	int3   
  40510b:	int3   
  40510c:	int3   
  40510d:	int3   
  40510e:	int3   
  40510f:	int3   
  405110:	push   0x1c
  405112:	push   0x4109d0
  405117:	call   0x41072c
  40511c:	xor    edi,edi
  40511e:	mov    DWORD PTR [ebp-0x20],edi
  405121:	mov    DWORD PTR [ebp-0x1c],edi
  405124:	mov    DWORD PTR [ebp-0x24],edi
  405127:	push   edi
  405128:	push   edi
  405129:	mov    edx,0x401464
  40512e:	push   0x4
  405130:	pop    ecx
  405131:	call   0x406502
  405136:	lea    eax,[ebp-0x24]
  405139:	push   eax
  40513a:	push   edi
  40513b:	push   edi
  40513c:	lea    edx,[ebp-0x20]
  40513f:	mov    ecx,DWORD PTR [ebp+0x8]
  405142:	call   0x402bf0
  405147:	mov    esi,eax
  405149:	test   esi,esi
  40514b:	jne    0x4051e7
  405151:	lea    ecx,[ebp-0x1c]
  405154:	call   0x4041a5
  405159:	mov    esi,eax
  40515b:	test   esi,esi
  40515d:	jne    0x4051e7
  405163:	mov    DWORD PTR [ebp-0x4],edi
  405166:	push   DWORD PTR [ebp+0x10]
  405169:	push   DWORD PTR [ebp+0xc]
  40516c:	push   DWORD PTR [ebp-0x20]
  40516f:	push   DWORD PTR [ebp-0x1c]
  405172:	push   0x4022be
  405177:	push   0x401270
  40517c:	call   DWORD PTR ds:0x412038
  405182:	add    esp,0x18
  405185:	mov    esi,eax
  405187:	mov    DWORD PTR [ebp-0x2c],esi
  40518a:	mov    DWORD PTR [ebp-0x4],0xfffffffe
  405191:	jmp    0x4051b7
  405193:	mov    eax,DWORD PTR [ebp-0x14]
  405196:	mov    eax,DWORD PTR [eax]
  405198:	mov    eax,DWORD PTR [eax]
  40519a:	mov    DWORD PTR [ebp-0x28],eax
  40519d:	push   eax
  40519e:	call   DWORD PTR ds:0x412028
  4051a4:	ret    
  4051a5:	mov    esp,DWORD PTR [ebp-0x18]
  4051a8:	mov    esi,DWORD PTR [ebp-0x28]
  4051ab:	mov    DWORD PTR [ebp-0x2c],esi
  4051ae:	mov    DWORD PTR [ebp-0x4],0xfffffffe
  4051b5:	xor    edi,edi
  4051b7:	test   esi,esi
  4051b9:	je     0x4051e7
  4051bb:	mov    eax,ds:0x411010
  4051c0:	cmp    eax,0x411010
  4051c5:	je     0x4051e7
  4051c7:	cmp    BYTE PTR [eax+0x19],0x1
  4051cb:	jb     0x4051e7
  4051cd:	test   BYTE PTR [eax+0x1c],0x1
  4051d1:	je     0x4051e7
  4051d3:	push   esi
  4051d4:	push   DWORD PTR [eax+0x14]
  4051d7:	push   DWORD PTR [eax+0x10]
  4051da:	mov    edx,0x4014ec
  4051df:	push   0x2d
  4051e1:	pop    ecx
  4051e2:	call   0x402af8
  4051e7:	mov    edx,DWORD PTR [ebp-0x24]
  4051ea:	mov    ecx,DWORD PTR [ebp+0x8]
  4051ed:	call   0x402cf9
  4051f2:	lea    ecx,[ebp-0x1c]
  4051f5:	call   0x404262
  4051fa:	push   edi
  4051fb:	push   esi
  4051fc:	mov    edx,0x401464
  405201:	push   0x6
  405203:	pop    ecx
  405204:	call   0x406502
  405209:	mov    eax,esi
  40520b:	call   0x410771
  405210:	ret    0xc
  405213:	int3   
  405214:	int3   
  405215:	int3   
  405216:	int3   
  405217:	int3   
  405218:	int3   
  405219:	int3   
  40521a:	int3   
  40521b:	int3   
  40521c:	int3   
  40521d:	int3   
  40521e:	int3   
  40521f:	int3   
  405220:	push   0x1c
  405222:	push   0x4109f0
  405227:	call   0x41072c
  40522c:	xor    edi,edi
  40522e:	mov    DWORD PTR [ebp-0x20],edi
  405231:	mov    DWORD PTR [ebp-0x1c],edi
  405234:	mov    DWORD PTR [ebp-0x24],edi
  405237:	push   edi
  405238:	push   edi
  405239:	mov    edx,0x40147c
  40523e:	push   0x4
  405240:	pop    ecx
  405241:	call   0x406502
  405246:	cmp    DWORD PTR [ebp+0xc],edi
  405249:	je     0x405280
  40524b:	push   0x57
  40524d:	pop    esi
  40524e:	mov    eax,ds:0x411010
  405253:	cmp    eax,0x411010
  405258:	je     0x405327
  40525e:	test   BYTE PTR [eax+0x1c],0x1
  405262:	je     0x405327
  405268:	push   DWORD PTR [eax+0x14]
  40526b:	push   DWORD PTR [eax+0x10]
  40526e:	mov    edx,0x4014ec
  405273:	push   0x2e
  405275:	pop    ecx
  405276:	call   0x402ad5
  40527b:	jmp    0x405327
  405280:	lea    eax,[ebp-0x24]
  405283:	push   eax
  405284:	push   edi
  405285:	push   edi
  405286:	lea    edx,[ebp-0x20]
  405289:	mov    ecx,DWORD PTR [ebp+0x8]
  40528c:	call   0x402bf0
  405291:	mov    esi,eax
  405293:	test   esi,esi
  405295:	jne    0x405327
  40529b:	lea    ecx,[ebp-0x1c]
  40529e:	call   0x4041a5
  4052a3:	mov    esi,eax
  4052a5:	test   esi,esi
  4052a7:	jne    0x405327
  4052a9:	mov    DWORD PTR [ebp-0x4],edi
  4052ac:	push   DWORD PTR [ebp-0x20]
  4052af:	push   DWORD PTR [ebp-0x1c]
  4052b2:	push   0x4022f2
  4052b7:	push   0x401270
  4052bc:	call   DWORD PTR ds:0x412038
  4052c2:	add    esp,0x10
  4052c5:	mov    esi,eax
  4052c7:	mov    DWORD PTR [ebp-0x2c],esi
  4052ca:	mov    DWORD PTR [ebp-0x4],0xfffffffe
  4052d1:	jmp    0x4052f7
  4052d3:	mov    eax,DWORD PTR [ebp-0x14]
  4052d6:	mov    eax,DWORD PTR [eax]
  4052d8:	mov    eax,DWORD PTR [eax]
  4052da:	mov    DWORD PTR [ebp-0x28],eax
  4052dd:	push   eax
  4052de:	call   DWORD PTR ds:0x412028
  4052e4:	ret    
  4052e5:	mov    esp,DWORD PTR [ebp-0x18]
  4052e8:	mov    esi,DWORD PTR [ebp-0x28]
  4052eb:	mov    DWORD PTR [ebp-0x2c],esi
  4052ee:	mov    DWORD PTR [ebp-0x4],0xfffffffe
  4052f5:	xor    edi,edi
  4052f7:	test   esi,esi
  4052f9:	je     0x405327
  4052fb:	mov    eax,ds:0x411010
  405300:	cmp    eax,0x411010
  405305:	je     0x405327
  405307:	cmp    BYTE PTR [eax+0x19],0x1
  40530b:	jb     0x405327
  40530d:	test   BYTE PTR [eax+0x1c],0x1
  405311:	je     0x405327
  405313:	push   esi
  405314:	push   DWORD PTR [eax+0x14]
  405317:	push   DWORD PTR [eax+0x10]
  40531a:	mov    edx,0x4014ec
  40531f:	push   0x2f
  405321:	pop    ecx
  405322:	call   0x402af8
  405327:	mov    edx,DWORD PTR [ebp-0x24]
  40532a:	mov    ecx,DWORD PTR [ebp+0x8]
  40532d:	call   0x402cf9
  405332:	lea    ecx,[ebp-0x1c]
  405335:	call   0x404262
  40533a:	push   edi
  40533b:	push   esi
  40533c:	mov    edx,0x40147c
  405341:	push   0x6
  405343:	pop    ecx
  405344:	call   0x406502
  405349:	mov    eax,esi
  40534b:	call   0x410771
  405350:	ret    0x8
  405353:	int3   
  405354:	int3   
  405355:	int3   
  405356:	int3   
  405357:	int3   
  405358:	int3   
  405359:	int3   
  40535a:	int3   
  40535b:	int3   
  40535c:	int3   
  40535d:	int3   
  40535e:	int3   
  40535f:	int3   
  405360:	push   0x1c
  405362:	push   0x410a10
  405367:	call   0x41072c
  40536c:	xor    edi,edi
  40536e:	mov    DWORD PTR [ebp-0x20],edi
  405371:	mov    DWORD PTR [ebp-0x1c],edi
  405374:	mov    DWORD PTR [ebp-0x24],edi
  405377:	push   edi
  405378:	push   edi
  405379:	mov    edx,0x401494
  40537e:	push   0x4
  405380:	pop    ecx
  405381:	call   0x406502
  405386:	cmp    DWORD PTR [ebp+0xc],edi
  405389:	je     0x4053c0
  40538b:	push   0x57
  40538d:	pop    esi
  40538e:	mov    eax,ds:0x411010
  405393:	cmp    eax,0x411010
  405398:	je     0x405467
  40539e:	test   BYTE PTR [eax+0x1c],0x1
  4053a2:	je     0x405467
  4053a8:	push   DWORD PTR [eax+0x14]
  4053ab:	push   DWORD PTR [eax+0x10]
  4053ae:	mov    edx,0x4014ec
  4053b3:	push   0x30
  4053b5:	pop    ecx
  4053b6:	call   0x402ad5
  4053bb:	jmp    0x405467
  4053c0:	lea    eax,[ebp-0x24]
  4053c3:	push   eax
  4053c4:	push   edi
  4053c5:	push   edi
  4053c6:	lea    edx,[ebp-0x20]
  4053c9:	mov    ecx,DWORD PTR [ebp+0x8]
  4053cc:	call   0x402bf0
  4053d1:	mov    esi,eax
  4053d3:	test   esi,esi
  4053d5:	jne    0x405467
  4053db:	lea    ecx,[ebp-0x1c]
  4053de:	call   0x4041a5
  4053e3:	mov    esi,eax
  4053e5:	test   esi,esi
  4053e7:	jne    0x405467
  4053e9:	mov    DWORD PTR [ebp-0x4],edi
  4053ec:	push   DWORD PTR [ebp-0x20]
  4053ef:	push   DWORD PTR [ebp-0x1c]
  4053f2:	push   0x40231a
  4053f7:	push   0x401270
  4053fc:	call   DWORD PTR ds:0x412038
  405402:	add    esp,0x10
  405405:	mov    esi,eax
  405407:	mov    DWORD PTR [ebp-0x2c],esi
  40540a:	mov    DWORD PTR [ebp-0x4],0xfffffffe
  405411:	jmp    0x405437
  405413:	mov    eax,DWORD PTR [ebp-0x14]
  405416:	mov    eax,DWORD PTR [eax]
  405418:	mov    eax,DWORD PTR [eax]
  40541a:	mov    DWORD PTR [ebp-0x28],eax
  40541d:	push   eax
  40541e:	call   DWORD PTR ds:0x412028
  405424:	ret    
  405425:	mov    esp,DWORD PTR [ebp-0x18]
  405428:	mov    esi,DWORD PTR [ebp-0x28]
  40542b:	mov    DWORD PTR [ebp-0x2c],esi
  40542e:	mov    DWORD PTR [ebp-0x4],0xfffffffe
  405435:	xor    edi,edi
  405437:	test   esi,esi
  405439:	je     0x405467
  40543b:	mov    eax,ds:0x411010
  405440:	cmp    eax,0x411010
  405445:	je     0x405467
  405447:	cmp    BYTE PTR [eax+0x19],0x1
  40544b:	jb     0x405467
  40544d:	test   BYTE PTR [eax+0x1c],0x1
  405451:	je     0x405467
  405453:	push   esi
  405454:	push   DWORD PTR [eax+0x14]
  405457:	push   DWORD PTR [eax+0x10]
  40545a:	mov    edx,0x4014ec
  40545f:	push   0x31
  405461:	pop    ecx
  405462:	call   0x402af8
  405467:	mov    edx,DWORD PTR [ebp-0x24]
  40546a:	mov    ecx,DWORD PTR [ebp+0x8]
  40546d:	call   0x402cf9
  405472:	lea    ecx,[ebp-0x1c]
  405475:	call   0x404262
  40547a:	push   edi
  40547b:	push   esi
  40547c:	mov    edx,0x401494
  405481:	push   0x6
  405483:	pop    ecx
  405484:	call   0x406502
  405489:	mov    eax,esi
  40548b:	call   0x410771
  405490:	ret    0x8
  405493:	int3   
  405494:	int3   
  405495:	int3   
  405496:	int3   
  405497:	int3   
  405498:	int3   
  405499:	int3   
  40549a:	int3   
  40549b:	int3   
  40549c:	int3   
  40549d:	int3   
  40549e:	int3   
  40549f:	int3   
  4054a0:	mov    edi,edi
  4054a2:	push   ebp
  4054a3:	mov    ebp,esp
  4054a5:	and    esp,0xfffffff8
  4054a8:	push   ebx
  4054a9:	push   esi
  4054aa:	push   0x0
  4054ac:	push   0x0
  4054ae:	push   0x4
  4054b0:	mov    ebx,0x4014ac
  4054b5:	mov    edx,ebx
  4054b7:	pop    ecx
  4054b8:	call   0x406502
  4054bd:	cmp    DWORD PTR [ebp+0x14],0x0
  4054c1:	jne    0x405511
  4054c3:	mov    edx,DWORD PTR [ebp+0xc]
  4054c6:	test   edx,edx
  4054c8:	je     0x405511
  4054ca:	cmp    DWORD PTR [ebp+0x10],0x0
  4054ce:	je     0x405511
  4054d0:	push   DWORD PTR [ebp+0x10]
  4054d3:	mov    ecx,DWORD PTR [ebp+0x8]
  4054d6:	call   0x403068
  4054db:	mov    esi,eax
  4054dd:	test   esi,esi
  4054df:	je     0x405539
  4054e1:	mov    ecx,DWORD PTR ds:0x411010
  4054e7:	cmp    ecx,0x411010
  4054ed:	je     0x405539
  4054ef:	cmp    BYTE PTR [ecx+0x19],0x1
  4054f3:	jb     0x405539
  4054f5:	test   BYTE PTR [ecx+0x1c],0x1
  4054f9:	je     0x405539
  4054fb:	push   esi
  4054fc:	push   DWORD PTR [ecx+0x14]
  4054ff:	mov    edx,0x4014ec
  405504:	push   DWORD PTR [ecx+0x10]
  405507:	push   0x33
  405509:	pop    ecx
  40550a:	call   0x402af8
  40550f:	jmp    0x405539
  405511:	push   0x57
  405513:	pop    esi
  405514:	mov    eax,ds:0x411010
  405519:	cmp    eax,0x411010
  40551e:	je     0x405539
  405520:	test   BYTE PTR [eax+0x1c],0x1
  405524:	je     0x405539
  405526:	push   DWORD PTR [eax+0x14]
  405529:	mov    edx,0x4014ec
  40552e:	push   DWORD PTR [eax+0x10]
  405531:	push   0x32
  405533:	pop    ecx
  405534:	call   0x402ad5
  405539:	push   0x0
  40553b:	push   esi
  40553c:	push   0x6
  40553e:	mov    edx,ebx
  405540:	pop    ecx
  405541:	call   0x406502
  405546:	mov    eax,esi
  405548:	pop    esi
  405549:	pop    ebx
  40554a:	mov    esp,ebp
  40554c:	pop    ebp
  40554d:	ret    0x10
  405550:	int3   
  405551:	int3   
  405552:	int3   
  405553:	int3   
  405554:	int3   
  405555:	int3   
  405556:	int3   
  405557:	int3   
  405558:	int3   
  405559:	int3   
  40555a:	int3   
  40555b:	int3   
  40555c:	int3   
  40555d:	int3   
  40555e:	int3   
  40555f:	int3   
  405560:	push   0x24
  405562:	push   0x410a30
  405567:	call   0x41072c
  40556c:	xor    esi,esi
  40556e:	mov    DWORD PTR [ebp-0x20],esi
  405571:	mov    DWORD PTR [ebp-0x1c],esi
  405574:	mov    DWORD PTR [ebp-0x24],esi
  405577:	mov    DWORD PTR [ebp-0x34],esi
  40557a:	mov    DWORD PTR [ebp-0x30],esi
  40557d:	push   esi
  40557e:	push   esi
  40557f:	mov    edx,0x4014cc
  405584:	push   0x4
  405586:	pop    ecx
  405587:	call   0x406502
  40558c:	cmp    DWORD PTR [ebp+0x18],esi
  40558f:	jne    0x405666
  405595:	mov    ebx,DWORD PTR [ebp+0x10]
  405598:	test   ebx,ebx
  40559a:	je     0x405666
  4055a0:	cmp    DWORD PTR [ebp+0x14],esi
  4055a3:	je     0x405666
  4055a9:	lea    eax,[ebp-0x24]
  4055ac:	push   eax
  4055ad:	push   esi
  4055ae:	push   esi
  4055af:	lea    edx,[ebp-0x20]
  4055b2:	mov    ecx,DWORD PTR [ebp+0x8]
  4055b5:	call   0x402bf0
  4055ba:	mov    edi,eax
  4055bc:	test   edi,edi
  4055be:	jne    0x40568e
  4055c4:	lea    ecx,[ebp-0x1c]
  4055c7:	call   0x4041a5
  4055cc:	mov    edi,eax
  4055ce:	test   edi,edi
  4055d0:	jne    0x40568e
  4055d6:	mov    DWORD PTR [ebp-0x34],ebx
  4055d9:	mov    eax,DWORD PTR [ebp+0x14]
  4055dc:	mov    DWORD PTR [ebp-0x30],eax
  4055df:	mov    DWORD PTR [ebp-0x4],esi
  4055e2:	lea    eax,[ebp-0x34]
  4055e5:	push   eax
  4055e6:	push   DWORD PTR [ebp+0xc]
  4055e9:	push   DWORD PTR [ebp-0x20]
  4055ec:	push   DWORD PTR [ebp-0x1c]
  4055ef:	push   0x402342
  4055f4:	push   0x401270
  4055f9:	call   DWORD PTR ds:0x412038
  4055ff:	add    esp,0x18
  405602:	mov    edi,eax
  405604:	mov    DWORD PTR [ebp-0x2c],edi
  405607:	mov    DWORD PTR [ebp-0x4],0xfffffffe
  40560e:	jmp    0x405634
  405610:	mov    eax,DWORD PTR [ebp-0x14]
  405613:	mov    eax,DWORD PTR [eax]
  405615:	mov    eax,DWORD PTR [eax]
  405617:	mov    DWORD PTR [ebp-0x28],eax
  40561a:	push   eax
  40561b:	call   DWORD PTR ds:0x412028
  405621:	ret    
  405622:	mov    esp,DWORD PTR [ebp-0x18]
  405625:	mov    edi,DWORD PTR [ebp-0x28]
  405628:	mov    DWORD PTR [ebp-0x2c],edi
  40562b:	mov    DWORD PTR [ebp-0x4],0xfffffffe
  405632:	xor    esi,esi
  405634:	test   edi,edi
  405636:	je     0x40568e
  405638:	mov    eax,ds:0x411010
  40563d:	cmp    eax,0x411010
  405642:	je     0x40568e
  405644:	cmp    BYTE PTR [eax+0x19],0x1
  405648:	jb     0x40568e
  40564a:	test   BYTE PTR [eax+0x1c],0x1
  40564e:	je     0x40568e
  405650:	push   edi
  405651:	push   DWORD PTR [eax+0x14]
  405654:	push   DWORD PTR [eax+0x10]
  405657:	mov    edx,0x4014ec
  40565c:	push   0x35
  40565e:	pop    ecx
  40565f:	call   0x402af8
  405664:	jmp    0x40568e
  405666:	push   0x57
  405668:	pop    edi
  405669:	mov    eax,ds:0x411010
  40566e:	cmp    eax,0x411010
  405673:	je     0x40568e
  405675:	test   BYTE PTR [eax+0x1c],0x1
  405679:	je     0x40568e
  40567b:	push   DWORD PTR [eax+0x14]
  40567e:	push   DWORD PTR [eax+0x10]
  405681:	mov    edx,0x4014ec
  405686:	push   0x34
  405688:	pop    ecx
  405689:	call   0x402ad5
  40568e:	mov    edx,DWORD PTR [ebp-0x24]
  405691:	mov    ecx,DWORD PTR [ebp+0x8]
  405694:	call   0x402cf9
  405699:	lea    ecx,[ebp-0x1c]
  40569c:	call   0x404262
  4056a1:	push   esi
  4056a2:	push   edi
  4056a3:	mov    edx,0x4014cc
  4056a8:	push   0x6
  4056aa:	pop    ecx
  4056ab:	call   0x406502
  4056b0:	mov    eax,edi
  4056b2:	call   0x410771
  4056b7:	ret    0x14
  4056ba:	int3   
  4056bb:	int3   
  4056bc:	int3   
  4056bd:	int3   
  4056be:	int3   
  4056bf:	mov    edi,edi
  4056c1:	push   ebp
  4056c2:	mov    ebp,esp
  4056c4:	push   ecx
  4056c5:	push   ebx
  4056c6:	push   esi
  4056c7:	mov    esi,DWORD PTR [ebp+0x10]
  4056ca:	xor    eax,eax
  4056cc:	mov    DWORD PTR [ebp-0x4],eax
  4056cf:	mov    ebx,ecx
  4056d1:	push   edi
  4056d2:	mov    edi,edx
  4056d4:	test   esi,esi
  4056d6:	je     0x405701
  4056d8:	cmp    WORD PTR [esi],ax
  4056db:	jne    0x4056e1
  4056dd:	push   0xe
  4056df:	jmp    0x405703
  4056e1:	mov    ecx,esi
  4056e3:	lea    edx,[ecx+0x2]
  4056e6:	mov    ax,WORD PTR [ecx]
  4056e9:	add    ecx,0x2
  4056ec:	cmp    ax,WORD PTR [ebp-0x4]
  4056f0:	jne    0x4056e6
  4056f2:	sub    ecx,edx
  4056f4:	sar    ecx,1
  4056f6:	xor    eax,eax
  4056f8:	lea    ecx,[ecx*2+0x2]
  4056ff:	jmp    0x405704
  405701:	push   0xa
  405703:	pop    ecx
  405704:	test   esi,esi
  405706:	je     0x405714
  405708:	cmp    WORD PTR [esi],ax
  40570b:	jne    0x405719
  40570d:	mov    esi,0x4014fc
  405712:	jmp    0x405719
  405714:	mov    esi,0x40150c
  405719:	push   eax
  40571a:	push   0x4
  40571c:	lea    eax,[ebp+0x14]
  40571f:	push   eax
  405720:	push   ecx
  405721:	push   esi
  405722:	push   ebx
  405723:	push   edi
  405724:	push   0x2b
  405726:	push   DWORD PTR [ebp+0xc]
  405729:	push   DWORD PTR [ebp+0x8]
  40572c:	call   DWORD PTR ds:0x412184
  405732:	add    esp,0x28
  405735:	pop    edi
  405736:	pop    esi
  405737:	pop    ebx
  405738:	mov    esp,ebp
  40573a:	pop    ebp
  40573b:	ret    0x10
  40573e:	int3   
  40573f:	int3   
  405740:	int3   
  405741:	int3   
  405742:	int3   
  405743:	mov    edi,edi
  405745:	push   ebp
  405746:	mov    ebp,esp
  405748:	push   ebx
  405749:	push   esi
  40574a:	mov    esi,DWORD PTR [ebp+0x10]
  40574d:	push   edi
  40574e:	test   esi,esi
  405750:	je     0x405763
  405752:	mov    edi,esi
  405754:	lea    ebx,[edi+0x1]
  405757:	mov    al,BYTE PTR [edi]
  405759:	inc    edi
  40575a:	test   al,al
  40575c:	jne    0x405757
  40575e:	sub    edi,ebx
  405760:	inc    edi
  405761:	jmp    0x405766
  405763:	push   0x5
  405765:	pop    edi
  405766:	test   esi,esi
  405768:	jne    0x40576f
  40576a:	mov    esi,0x401518
  40576f:	push   0x0
  405771:	push   edi
  405772:	push   esi
  405773:	push   ecx
  405774:	push   edx
  405775:	push   0x2b
  405777:	push   DWORD PTR [ebp+0xc]
  40577a:	push   DWORD PTR [ebp+0x8]
  40577d:	call   DWORD PTR ds:0x412184
  405783:	add    esp,0x20
  405786:	pop    edi
  405787:	pop    esi
  405788:	pop    ebx
  405789:	pop    ebp
  40578a:	ret    0xc
  40578d:	int3   
  40578e:	int3   
  40578f:	int3   
  405790:	int3   
  405791:	int3   
  405792:	mov    edi,edi
  405794:	push   ebp
  405795:	mov    ebp,esp
  405797:	push   ebx
  405798:	push   esi
  405799:	mov    esi,DWORD PTR [ebp+0x10]
  40579c:	push   edi
  40579d:	test   esi,esi
  40579f:	je     0x4057b2
  4057a1:	mov    edi,esi
  4057a3:	lea    ebx,[edi+0x1]
  4057a6:	mov    al,BYTE PTR [edi]
  4057a8:	inc    edi
  4057a9:	test   al,al
  4057ab:	jne    0x4057a6
  4057ad:	sub    edi,ebx
  4057af:	inc    edi
  4057b0:	jmp    0x4057b5
  4057b2:	push   0x5
  4057b4:	pop    edi
  4057b5:	test   esi,esi
  4057b7:	jne    0x4057be
  4057b9:	mov    esi,0x401518
  4057be:	push   0x0
  4057c0:	push   0x4
  4057c2:	lea    eax,[ebp+0x14]
  4057c5:	push   eax
  4057c6:	push   edi
  4057c7:	push   esi
  4057c8:	push   ecx
  4057c9:	push   edx
  4057ca:	push   0x2b
  4057cc:	push   DWORD PTR [ebp+0xc]
  4057cf:	push   DWORD PTR [ebp+0x8]
  4057d2:	call   DWORD PTR ds:0x412184
  4057d8:	add    esp,0x28
  4057db:	pop    edi
  4057dc:	pop    esi
  4057dd:	pop    ebx
  4057de:	pop    ebp
  4057df:	ret    0x10
  4057e2:	int3   
  4057e3:	int3   
  4057e4:	int3   
  4057e5:	int3   
  4057e6:	int3   
  4057e7:	mov    edi,edi
  4057e9:	push   ebp
  4057ea:	mov    ebp,esp
  4057ec:	mov    edx,DWORD PTR [ebp+0x10]
  4057ef:	push   esi
  4057f0:	push   edi
  4057f1:	test   edx,edx
  4057f3:	je     0x405806
  4057f5:	mov    esi,edx
  4057f7:	lea    edi,[esi+0x1]
  4057fa:	mov    al,BYTE PTR [esi]
  4057fc:	inc    esi
  4057fd:	test   al,al
  4057ff:	jne    0x4057fa
  405801:	sub    esi,edi
  405803:	inc    esi
  405804:	jmp    0x405809
  405806:	push   0x5
  405808:	pop    esi
  405809:	test   edx,edx
  40580b:	jne    0x405812
  40580d:	mov    edx,0x401518
  405812:	push   0x0
  405814:	push   0x4
  405816:	lea    eax,[ebp+0x18]
  405819:	push   eax
  40581a:	push   0x4
  40581c:	lea    eax,[ebp+0x14]
  40581f:	push   eax
  405820:	push   esi
  405821:	push   edx
  405822:	push   ecx
  405823:	push   0x4017bc
  405828:	push   0x2b
  40582a:	push   DWORD PTR [ebp+0xc]
  40582d:	push   DWORD PTR [ebp+0x8]
  405830:	call   DWORD PTR ds:0x412184
  405836:	add    esp,0x30
  405839:	pop    edi
  40583a:	pop    esi
  40583b:	pop    ebp
  40583c:	ret    0x14
  40583f:	int3   
  405840:	int3   
  405841:	int3   
  405842:	int3   
  405843:	int3   
  405844:	mov    edi,edi
  405846:	push   ebx
  405847:	push   esi
  405848:	push   edi
  405849:	mov    esi,edx
  40584b:	mov    edi,ecx
  40584d:	mov    eax,ds:0x411010
  405852:	mov    ebx,0x411010
  405857:	cmp    eax,ebx
  405859:	je     0x40587a
  40585b:	cmp    BYTE PTR [eax+0x19],0x4
  40585f:	jb     0x40587a
  405861:	test   BYTE PTR [eax+0x1c],0x1
  405865:	je     0x40587a
  405867:	push   DWORD PTR [eax+0x14]
  40586a:	mov    edx,0x4017bc
  40586f:	push   DWORD PTR [eax+0x10]
  405872:	push   0xa
  405874:	pop    ecx
  405875:	call   0x402ad5
  40587a:	push   0x411560
  40587f:	call   DWORD PTR ds:0x412128
  405885:	cmp    DWORD PTR ds:0x4113fc,0x0
  40588c:	mov    edx,DWORD PTR ds:0x4113f4
  405892:	mov    eax,ds:0x4113f8
  405897:	je     0x4058b2
  405899:	test   edx,edx
  40589b:	je     0x4058b2
  40589d:	cmp    eax,0x200
  4058a2:	jge    0x4058b2
  4058a4:	cmp    DWORD PTR ds:0x411014,0x3
  4058ab:	jne    0x4058b2
  4058ad:	xor    ecx,ecx
  4058af:	inc    ecx
  4058b0:	jmp    0x4058b4
  4058b2:	xor    ecx,ecx
  4058b4:	mov    DWORD PTR [edi],ecx
  4058b6:	test   ecx,ecx
  4058b8:	je     0x4058c4
  4058ba:	inc    eax
  4058bb:	mov    DWORD PTR [esi],edx
  4058bd:	mov    ds:0x4113f8,eax
  4058c2:	jmp    0x4058e6
  4058c4:	mov    eax,ds:0x411010
  4058c9:	cmp    eax,ebx
  4058cb:	je     0x4058e6
  4058cd:	test   BYTE PTR [eax+0x1c],0x1
  4058d1:	je     0x4058e6
  4058d3:	push   DWORD PTR [eax+0x14]
  4058d6:	mov    edx,0x4017bc
  4058db:	push   DWORD PTR [eax+0x10]
  4058de:	push   0xb
  4058e0:	pop    ecx
  4058e1:	call   0x402ad5
  4058e6:	push   0x411560
  4058eb:	call   DWORD PTR ds:0x412148
  4058f1:	mov    eax,ds:0x411010
  4058f6:	cmp    eax,ebx
  4058f8:	je     0x40591b
  4058fa:	cmp    BYTE PTR [eax+0x19],0x4
  4058fe:	jb     0x40591b
  405900:	test   BYTE PTR [eax+0x1c],0x1
  405904:	je     0x40591b
  405906:	push   0x0
  405908:	push   DWORD PTR [eax+0x14]
  40590b:	mov    edx,0x4017bc
  405910:	push   DWORD PTR [eax+0x10]
  405913:	push   0xc
  405915:	pop    ecx
  405916:	call   0x402af8
  40591b:	pop    edi
  40591c:	pop    esi
  40591d:	pop    ebx
  40591e:	ret    
  40591f:	int3   
  405920:	int3   
  405921:	int3   
  405922:	int3   
  405923:	int3   
  405924:	mov    edi,edi
  405926:	push   ebx
  405927:	push   esi
  405928:	push   edi
  405929:	mov    esi,ecx
  40592b:	mov    eax,ds:0x411010
  405930:	mov    edi,0x411010
  405935:	mov    ebx,0x4017bc
  40593a:	cmp    eax,edi
  40593c:	je     0x40595f
  40593e:	cmp    BYTE PTR [eax+0x19],0x4
  405942:	jb     0x40595f
  405944:	test   BYTE PTR [eax+0x1c],0x1
  405948:	je     0x40595f
  40594a:	push   DWORD PTR [eax+0x14]
  40594d:	mov    edx,ebx
  40594f:	push   DWORD PTR [eax+0x10]
  405952:	push   0xd
  405954:	pop    ecx
  405955:	call   0x402ad5
  40595a:	mov    eax,ds:0x411010
  40595f:	cmp    DWORD PTR [esi],0x0
  405962:	je     0x405982
  405964:	mov    esi,0x411560
  405969:	push   esi
  40596a:	call   DWORD PTR ds:0x412128
  405970:	dec    DWORD PTR ds:0x4113f8
  405976:	push   esi
  405977:	call   DWORD PTR ds:0x412148
  40597d:	mov    eax,ds:0x411010
  405982:	cmp    eax,edi
  405984:	je     0x4059a4
  405986:	cmp    BYTE PTR [eax+0x19],0x4
  40598a:	jb     0x4059a4
  40598c:	test   BYTE PTR [eax+0x1c],0x1
  405990:	je     0x4059a4
  405992:	push   0x0
  405994:	push   DWORD PTR [eax+0x14]
  405997:	mov    edx,ebx
  405999:	push   DWORD PTR [eax+0x10]
  40599c:	push   0xe
  40599e:	pop    ecx
  40599f:	call   0x402af8
  4059a4:	pop    edi
  4059a5:	pop    esi
  4059a6:	pop    ebx
  4059a7:	ret    
  4059a8:	int3   
  4059a9:	int3   
  4059aa:	int3   
  4059ab:	int3   
  4059ac:	int3   
  4059ad:	mov    DWORD PTR [ecx],0x409fb0
  4059b3:	mov    DWORD PTR [ecx+0x4],0x40a080
  4059ba:	mov    DWORD PTR [ecx+0x8],0x404b10
  4059c1:	mov    DWORD PTR [ecx+0xc],0x4049c0
  4059c8:	mov    DWORD PTR [ecx+0x10],0x404c60
  4059cf:	mov    DWORD PTR [ecx+0x14],0x404740
  4059d6:	mov    DWORD PTR [ecx+0x18],0x404420
  4059dd:	mov    DWORD PTR [ecx+0x1c],0x404570
  4059e4:	mov    DWORD PTR [ecx+0x20],0x404880
  4059eb:	mov    DWORD PTR [ecx+0x24],0x40cd50
  4059f2:	mov    DWORD PTR [ecx+0x28],0x40ca40
  4059f9:	mov    DWORD PTR [ecx+0x2c],0x40ce80
  405a00:	mov    DWORD PTR [ecx+0x30],0x40cfd0
  405a07:	mov    DWORD PTR [ecx+0x34],0x40d130
  405a0e:	mov    DWORD PTR [ecx+0x38],0x40d290
  405a15:	mov    DWORD PTR [ecx+0x3c],0x40d650
  405a1c:	mov    DWORD PTR [ecx+0x40],0x40d420
  405a23:	mov    DWORD PTR [ecx+0x44],0x40cc30
  405a2a:	mov    DWORD PTR [ecx+0x48],0x40d550
  405a31:	mov    DWORD PTR [ecx+0x4c],0x404f00
  405a38:	mov    DWORD PTR [ecx+0x50],0x405010
  405a3f:	mov    DWORD PTR [ecx+0x54],0x405110
  405a46:	ret    
  405a47:	int3   
  405a48:	int3   
  405a49:	int3   
  405a4a:	int3   
  405a4b:	int3   
  405a4c:	mov    edi,edi
  405a4e:	push   ecx
  405a4f:	mov    eax,ds:0x411010
  405a54:	cmp    eax,0x411010
  405a59:	je     0x405a75
  405a5b:	test   BYTE PTR [eax+0x1c],0x1
  405a5f:	je     0x405a75
  405a61:	push   ecx
  405a62:	push   DWORD PTR [eax+0x14]
  405a65:	mov    edx,0x4017bc
  405a6a:	push   DWORD PTR [eax+0x10]
  405a6d:	push   0xf
  405a6f:	pop    ecx
  405a70:	call   0x405743
  405a75:	pop    ecx
  405a76:	ret    
  405a77:	int3   
  405a78:	int3   
  405a79:	int3   
  405a7a:	int3   
  405a7b:	int3   
  405a7c:	mov    edi,edi
  405a7e:	push   ebx
  405a7f:	push   esi
  405a80:	push   edi
  405a81:	xor    edi,edi
  405a83:	mov    esi,ecx
  405a85:	inc    edi
  405a86:	mov    eax,ds:0x411010
  405a8b:	mov    ebx,0x411010
  405a90:	cmp    eax,ebx
  405a92:	je     0x405ab3
  405a94:	cmp    BYTE PTR [eax+0x19],0x4
  405a98:	jb     0x405ab3
  405a9a:	test   BYTE PTR [eax+0x1c],0x1
  405a9e:	je     0x405ab3
  405aa0:	push   DWORD PTR [eax+0x14]
  405aa3:	mov    edx,0x4017bc
  405aa8:	push   DWORD PTR [eax+0x10]
  405aab:	push   0x10
  405aad:	pop    ecx
  405aae:	call   0x402ad5
  405ab3:	xor    eax,eax
  405ab5:	cmp    DWORD PTR [esi],eax
  405ab7:	jne    0x405ac8
  405ab9:	mov    ecx,0x401520
  405abe:	call   0x405a4c
  405ac3:	jmp    0x405bbd
  405ac8:	cmp    DWORD PTR [esi+0x4],eax
  405acb:	jne    0x405ad4
  405acd:	mov    ecx,0x40153c
  405ad2:	jmp    0x405abe
  405ad4:	cmp    DWORD PTR [esi+0x8],eax
  405ad7:	jne    0x405ae0
  405ad9:	mov    ecx,0x401554
  405ade:	jmp    0x405abe
  405ae0:	cmp    DWORD PTR [esi+0xc],eax
  405ae3:	jne    0x405aec
  405ae5:	mov    ecx,0x401570
  405aea:	jmp    0x405abe
  405aec:	cmp    DWORD PTR [esi+0x10],eax
  405aef:	jne    0x405af8
  405af1:	mov    ecx,0x401590
  405af6:	jmp    0x405abe
  405af8:	cmp    DWORD PTR [esi+0x14],eax
  405afb:	jne    0x405b04
  405afd:	mov    ecx,0x4015a8
  405b02:	jmp    0x405abe
  405b04:	cmp    DWORD PTR [esi+0x18],eax
  405b07:	jne    0x405b10
  405b09:	mov    ecx,0x4015c8
  405b0e:	jmp    0x405abe
  405b10:	cmp    DWORD PTR [esi+0x1c],eax
  405b13:	jne    0x405b1c
  405b15:	mov    ecx,0x4015e8
  405b1a:	jmp    0x405abe
  405b1c:	cmp    DWORD PTR [esi+0x20],eax
  405b1f:	jne    0x405b28
  405b21:	mov    ecx,0x401604
  405b26:	jmp    0x405abe
  405b28:	cmp    DWORD PTR [esi+0x24],eax
  405b2b:	jne    0x405b34
  405b2d:	mov    ecx,0x401628
  405b32:	jmp    0x405abe
  405b34:	cmp    DWORD PTR [esi+0x28],eax
  405b37:	jne    0x405b43
  405b39:	mov    ecx,0x40164c
  405b3e:	jmp    0x405abe
  405b43:	cmp    DWORD PTR [esi+0x2c],eax
  405b46:	jne    0x405b52
  405b48:	mov    ecx,0x40166c
  405b4d:	jmp    0x405abe
  405b52:	cmp    DWORD PTR [esi+0x30],eax
  405b55:	jne    0x405b61
  405b57:	mov    ecx,0x40168c
  405b5c:	jmp    0x405abe
  405b61:	cmp    DWORD PTR [esi+0x34],eax
  405b64:	jne    0x405b70
  405b66:	mov    ecx,0x4016a8
  405b6b:	jmp    0x405abe
  405b70:	cmp    DWORD PTR [esi+0x38],eax
  405b73:	jne    0x405b7f
  405b75:	mov    ecx,0x4016c8
  405b7a:	jmp    0x405abe
  405b7f:	cmp    DWORD PTR [esi+0x3c],eax
  405b82:	jne    0x405b8e
  405b84:	mov    ecx,0x4016e8
  405b89:	jmp    0x405abe
  405b8e:	cmp    DWORD PTR [esi+0x40],eax
  405b91:	jne    0x405b9d
  405b93:	mov    ecx,0x401708
  405b98:	jmp    0x405abe
  405b9d:	cmp    DWORD PTR [esi+0x44],eax
  405ba0:	jne    0x405bac
  405ba2:	mov    ecx,0x401724
  405ba7:	jmp    0x405abe
  405bac:	cmp    DWORD PTR [esi+0x48],eax
  405baf:	jne    0x405bbb
  405bb1:	mov    ecx,0x401744
  405bb6:	jmp    0x405abe
  405bbb:	mov    edi,eax
  405bbd:	mov    eax,ds:0x411010
  405bc2:	cmp    eax,ebx
  405bc4:	je     0x405be6
  405bc6:	cmp    BYTE PTR [eax+0x19],0x4
  405bca:	jb     0x405be6
  405bcc:	test   BYTE PTR [eax+0x1c],0x1
  405bd0:	je     0x405be6
  405bd2:	push   edi
  405bd3:	push   DWORD PTR [eax+0x14]
  405bd6:	mov    edx,0x4017bc
  405bdb:	push   DWORD PTR [eax+0x10]
  405bde:	push   0x11
  405be0:	pop    ecx
  405be1:	call   0x402af8
  405be6:	mov    eax,edi
  405be8:	pop    edi
  405be9:	pop    esi
  405bea:	pop    ebx
  405beb:	ret    
  405bec:	int3   
  405bed:	int3   
  405bee:	int3   
  405bef:	int3   
  405bf0:	int3   
  405bf1:	mov    edi,edi
  405bf3:	push   ebx
  405bf4:	push   esi
  405bf5:	push   edi
  405bf6:	mov    eax,ds:0x411010
  405bfb:	mov    edi,0x411010
  405c00:	mov    ebx,0x4017bc
  405c05:	cmp    eax,edi
  405c07:	je     0x405c2a
  405c09:	cmp    BYTE PTR [eax+0x19],0x4
  405c0d:	jb     0x405c2a
  405c0f:	test   BYTE PTR [eax+0x1c],0x1
  405c13:	je     0x405c2a
  405c15:	push   DWORD PTR [eax+0x14]
  405c18:	mov    edx,ebx
  405c1a:	push   DWORD PTR [eax+0x10]
  405c1d:	push   0x12
  405c1f:	pop    ecx
  405c20:	call   0x402ad5
  405c25:	mov    eax,ds:0x411010
  405c2a:	cmp    DWORD PTR ds:0x411400,0x1
  405c31:	je     0x405c50
  405c33:	push   0x411400
  405c38:	mov    edx,0x411404
  405c3d:	mov    ecx,0x411560
  405c42:	call   0x40ab90
  405c47:	mov    esi,eax
  405c49:	mov    eax,ds:0x411010
  405c4e:	jmp    0x405c52
  405c50:	xor    esi,esi
  405c52:	cmp    eax,edi
  405c54:	je     0x405c73
  405c56:	cmp    BYTE PTR [eax+0x19],0x4
  405c5a:	jb     0x405c73
  405c5c:	test   BYTE PTR [eax+0x1c],0x1
  405c60:	je     0x405c73
  405c62:	push   esi
  405c63:	push   DWORD PTR [eax+0x14]
  405c66:	mov    edx,ebx
  405c68:	push   DWORD PTR [eax+0x10]
  405c6b:	push   0x13
  405c6d:	pop    ecx
  405c6e:	call   0x402af8
  405c73:	pop    edi
  405c74:	mov    eax,esi
  405c76:	pop    esi
  405c77:	pop    ebx
  405c78:	ret    
  405c79:	int3   
  405c7a:	int3   
  405c7b:	int3   
  405c7c:	int3   
  405c7d:	int3   
  405c7e:	int3   
  405c7f:	int3   
  405c80:	mov    edi,edi
  405c82:	push   ebp
  405c83:	mov    ebp,esp
  405c85:	sub    esp,0x2c
  405c88:	mov    eax,ds:0x411004
  405c8d:	xor    eax,ebp
  405c8f:	mov    DWORD PTR [ebp-0x4],eax
  405c92:	push   ebx
  405c93:	xor    eax,eax
  405c95:	and    DWORD PTR [ebp-0x2c],eax
  405c98:	and    DWORD PTR [ebp-0x28],eax
  405c9b:	push   esi
  405c9c:	push   edi
  405c9d:	xor    edi,edi
  405c9f:	mov    DWORD PTR [ebp-0x8],eax
  405ca2:	mov    esi,ecx
  405ca4:	mov    DWORD PTR [ebp-0x14],eax
  405ca7:	xor    ebx,ebx
  405ca9:	mov    DWORD PTR [ebp-0xc],esi
  405cac:	mov    DWORD PTR [ebp-0x1c],edi
  405caf:	mov    DWORD PTR [ebp-0x10],ebx
  405cb2:	mov    eax,ds:0x411010
  405cb7:	cmp    eax,0x411010
  405cbc:	je     0x405cdd
  405cbe:	cmp    BYTE PTR [eax+0x19],0x4
  405cc2:	jb     0x405cdd
  405cc4:	test   BYTE PTR [eax+0x1c],0x1
  405cc8:	je     0x405cdd
  405cca:	push   DWORD PTR [eax+0x14]
  405ccd:	mov    edx,0x4017bc
  405cd2:	push   DWORD PTR [eax+0x10]
  405cd5:	push   0x14
  405cd7:	pop    ecx
  405cd8:	call   0x402ad5
  405cdd:	push   0x411560
  405ce2:	call   DWORD PTR ds:0x412128
  405ce8:	mov    ecx,DWORD PTR ds:0x411014
  405cee:	cmp    ecx,0x1
  405cf1:	je     0x405d2b
  405cf3:	mov    esi,0x139f
  405cf8:	mov    eax,ds:0x411010
  405cfd:	cmp    eax,0x411010
  405d02:	je     0x406083
  405d08:	test   BYTE PTR [eax+0x1c],0x1
  405d0c:	je     0x406083
  405d12:	push   ecx
  405d13:	push   DWORD PTR [eax+0x14]
  405d16:	mov    edx,0x4017bc
  405d1b:	push   DWORD PTR [eax+0x10]
  405d1e:	push   0x15
  405d20:	pop    ecx
  405d21:	call   0x402af8
  405d26:	jmp    0x406083
  405d2b:	push   0x411560
  405d30:	mov    DWORD PTR ds:0x411014,0x2
  405d3a:	call   DWORD PTR ds:0x412148
  405d40:	push   0x0
  405d42:	push   0x0
  405d44:	push   esi
  405d45:	call   DWORD PTR ds:0x4120d4
  405d4b:	mov    esi,eax
  405d4d:	mov    DWORD PTR [ebp-0x20],esi
  405d50:	test   esi,esi
  405d52:	jne    0x405d94
  405d54:	call   DWORD PTR ds:0x41208c
  405d5a:	mov    esi,eax
  405d5c:	mov    ecx,DWORD PTR ds:0x411010
  405d62:	cmp    ecx,0x411010
  405d68:	je     0x40606e
  405d6e:	test   BYTE PTR [ecx+0x1c],0x1
  405d72:	je     0x40606e
  405d78:	push   esi
  405d79:	push   DWORD PTR [ebp-0xc]
  405d7c:	mov    edx,0x4017bc
  405d81:	push   DWORD PTR [ecx+0x14]
  405d84:	push   DWORD PTR [ecx+0x10]
  405d87:	push   0x16
  405d89:	pop    ecx
  405d8a:	call   0x4056bf
  405d8f:	jmp    0x40606e
  405d94:	push   0x401758
  405d99:	push   esi
  405d9a:	call   DWORD PTR ds:0x4120e0
  405da0:	mov    DWORD PTR [ebp-0x18],eax
  405da3:	test   eax,eax
  405da5:	jne    0x405de7
  405da7:	call   DWORD PTR ds:0x41208c
  405dad:	mov    esi,eax
  405daf:	mov    eax,ds:0x411010
  405db4:	cmp    eax,0x411010
  405db9:	je     0x406064
  405dbf:	test   BYTE PTR [eax+0x1c],0x1
  405dc3:	je     0x40603e
  405dc9:	push   esi
  405dca:	push   0x401758
  405dcf:	push   DWORD PTR [eax+0x14]
  405dd2:	push   DWORD PTR [eax+0x10]
  405dd5:	push   0x17
  405dd7:	mov    edx,0x4017bc
  405ddc:	pop    ecx
  405ddd:	call   0x405792
  405de2:	jmp    0x406039
  405de7:	push   0x401774
  405dec:	push   esi
  405ded:	call   DWORD PTR ds:0x4120e0
  405df3:	mov    DWORD PTR [ebp-0x24],eax
  405df6:	test   eax,eax
  405df8:	jne    0x405e2c
  405dfa:	call   DWORD PTR ds:0x41208c
  405e00:	mov    esi,eax
  405e02:	mov    eax,ds:0x411010
  405e07:	cmp    eax,0x411010
  405e0c:	je     0x406064
  405e12:	test   BYTE PTR [eax+0x1c],0x1
  405e16:	je     0x40603e
  405e1c:	push   esi
  405e1d:	push   0x401774
  405e22:	push   DWORD PTR [eax+0x14]
  405e25:	push   DWORD PTR [eax+0x10]
  405e28:	push   0x18
  405e2a:	jmp    0x405dd7
  405e2c:	push   0x40178c
  405e31:	push   esi
  405e32:	call   DWORD PTR ds:0x4120e0
  405e38:	mov    DWORD PTR [ebp-0xc],eax
  405e3b:	test   eax,eax
  405e3d:	jne    0x405e6c
  405e3f:	mov    ecx,DWORD PTR ds:0x411010
  405e45:	cmp    ecx,0x411010
  405e4b:	je     0x405e6c
  405e4d:	cmp    BYTE PTR [ecx+0x19],0x3
  405e51:	jb     0x405e6c
  405e53:	test   BYTE PTR [ecx+0x1c],0x1
  405e57:	je     0x405e6c
  405e59:	push   DWORD PTR [ecx+0x14]
  405e5c:	mov    edx,0x4017bc
  405e61:	push   DWORD PTR [ecx+0x10]
  405e64:	push   0x19
  405e66:	pop    ecx
  405e67:	call   0x402ad5
  405e6c:	push   0x0
  405e6e:	push   0x0
  405e70:	mov    edx,0x401758
  405e75:	xor    ecx,ecx
  405e77:	call   0x406502
  405e7c:	mov    esi,DWORD PTR [ebp-0x18]
  405e7f:	lea    eax,[ebp-0x2c]
  405e82:	push   eax
  405e83:	mov    ecx,esi
  405e85:	call   DWORD PTR ds:0x41221c
  405e8b:	call   esi
  405e8d:	push   0x0
  405e8f:	mov    esi,eax
  405e91:	mov    edx,0x401758
  405e96:	push   esi
  405e97:	push   0x2
  405e99:	pop    ecx
  405e9a:	call   0x406502
  405e9f:	test   esi,esi
  405ea1:	jne    0x406039
  405ea7:	cmp    DWORD PTR [ebp-0x2c],ebx
  405eaa:	ja     0x40600e
  405eb0:	lea    eax,[ebp-0x10]
  405eb3:	push   eax
  405eb4:	push   0x4c
  405eb6:	call   0x409fb0
  405ebb:	mov    ebx,DWORD PTR [ebp-0x10]
  405ebe:	mov    esi,eax
  405ec0:	test   esi,esi
  405ec2:	jne    0x406039
  405ec8:	push   0x4c
  405eca:	push   eax
  405ecb:	push   ebx
  405ecc:	call   0x410868
  405ed1:	add    esp,0xc
  405ed4:	lea    eax,[ebp-0x1c]
  405ed7:	push   eax
  405ed8:	push   0x58
  405eda:	call   0x409fb0
  405edf:	mov    edi,DWORD PTR [ebp-0x1c]
  405ee2:	mov    esi,eax
  405ee4:	test   esi,esi
  405ee6:	jne    0x406039
  405eec:	push   0x58
  405eee:	push   eax
  405eef:	push   edi
  405ef0:	mov    DWORD PTR [ebp-0x18],edi
  405ef3:	call   0x410868
  405ef8:	add    esp,0xc
  405efb:	lea    eax,[ebp-0x14]
  405efe:	push   eax
  405eff:	push   0x10
  405f01:	call   0x409fb0
  405f06:	mov    esi,eax
  405f08:	test   esi,esi
  405f0a:	jne    0x406006
  405f10:	mov    edx,DWORD PTR [ebp-0x14]
  405f13:	mov    edi,edx
  405f15:	mov    DWORD PTR [ebp-0x8],edx
  405f18:	stos   DWORD PTR es:[edi],eax
  405f19:	stos   DWORD PTR es:[edi],eax
  405f1a:	stos   DWORD PTR es:[edi],eax
  405f1b:	stos   DWORD PTR es:[edi],eax
  405f1c:	mov    edi,DWORD PTR [ebp-0x18]
  405f1f:	mov    ecx,edi
  405f21:	call   0x4059ad
  405f26:	push   esi
  405f27:	mov    DWORD PTR [edx],0x405220
  405f2d:	xor    ecx,ecx
  405f2f:	mov    DWORD PTR [edx+0x4],0x405360
  405f36:	mov    DWORD PTR [edx+0x8],0x4054a0
  405f3d:	mov    DWORD PTR [edx+0xc],0x405560
  405f44:	mov    edx,0x401774
  405f49:	push   esi
  405f4a:	call   0x406502
  405f4f:	push   ebx
  405f50:	push   esi
  405f51:	push   edi
  405f52:	push   esi
  405f53:	mov    esi,DWORD PTR [ebp-0x24]
  405f56:	mov    ecx,esi
  405f58:	call   DWORD PTR ds:0x41221c
  405f5e:	call   esi
  405f60:	push   0x0
  405f62:	mov    esi,eax
  405f64:	mov    edx,0x401774
  405f69:	push   esi
  405f6a:	push   0x2
  405f6c:	pop    ecx
  405f6d:	call   0x406502
  405f72:	test   esi,esi
  405f74:	jne    0x406039
  405f7a:	mov    ecx,ebx
  405f7c:	call   0x405a7c
  405f81:	mov    esi,eax
  405f83:	test   esi,esi
  405f85:	jne    0x406039
  405f8b:	cmp    DWORD PTR [ebp-0xc],eax
  405f8e:	je     0x405fc5
  405f90:	push   esi
  405f91:	push   esi
  405f92:	mov    edx,0x40178c
  405f97:	xor    ecx,ecx
  405f99:	call   0x406502
  405f9e:	push   esi
  405f9f:	push   DWORD PTR [ebp-0x8]
  405fa2:	mov    esi,DWORD PTR [ebp-0xc]
  405fa5:	mov    ecx,esi
  405fa7:	call   DWORD PTR ds:0x41221c
  405fad:	call   esi
  405faf:	push   0x0
  405fb1:	mov    esi,eax
  405fb3:	mov    edx,0x40178c
  405fb8:	push   esi
  405fb9:	push   0x2
  405fbb:	pop    ecx
  405fbc:	call   0x406502
  405fc1:	test   esi,esi
  405fc3:	jne    0x406039
  405fc5:	push   0x411560
  405fca:	call   DWORD PTR ds:0x412128
  405fd0:	mov    eax,DWORD PTR [ebp-0x20]
  405fd3:	and    DWORD PTR ds:0x4113f8,0x0
  405fda:	mov    DWORD PTR ds:0x4113f4,ebx
  405fe0:	xor    ebx,ebx
  405fe2:	mov    ds:0x4113fc,eax
  405fe7:	mov    eax,DWORD PTR [ebp-0x8]
  405fea:	mov    DWORD PTR ds:0x4113f0,edi
  405ff0:	xor    edi,edi
  405ff2:	and    DWORD PTR [ebp-0x8],ebx
  405ff5:	mov    DWORD PTR ds:0x411014,0x3
  405fff:	mov    ds:0x4113ec,eax
  406004:	jmp    0x406083
  406006:	mov    eax,DWORD PTR [ebp-0x14]
  406009:	mov    DWORD PTR [ebp-0x8],eax
  40600c:	jmp    0x406039
  40600e:	mov    esi,0x65e
  406013:	mov    eax,ds:0x411010
  406018:	cmp    eax,0x411010
  40601d:	je     0x406064
  40601f:	test   BYTE PTR [eax+0x1c],0x1
  406023:	je     0x40603e
  406025:	push   esi
  406026:	push   DWORD PTR [eax+0x14]
  406029:	mov    edx,0x4017bc
  40602e:	push   DWORD PTR [eax+0x10]
  406031:	push   0x1a
  406033:	pop    ecx
  406034:	call   0x402af8
  406039:	mov    eax,ds:0x411010
  40603e:	cmp    eax,0x411010
  406043:	je     0x406064
  406045:	cmp    BYTE PTR [eax+0x19],0x3
  406049:	jb     0x406064
  40604b:	test   BYTE PTR [eax+0x1c],0x1
  40604f:	je     0x406064
  406051:	push   DWORD PTR [eax+0x14]
  406054:	mov    edx,0x4017bc
  406059:	push   DWORD PTR [eax+0x10]
  40605c:	push   0x1b
  40605e:	pop    ecx
  40605f:	call   0x402ad5
  406064:	mov    eax,DWORD PTR [ebp-0x20]
  406067:	push   eax
  406068:	call   DWORD PTR ds:0x4120d8
  40606e:	push   0x411560
  406073:	call   DWORD PTR ds:0x412128
  406079:	mov    DWORD PTR ds:0x411014,0x1
  406083:	push   0x411560
  406088:	call   DWORD PTR ds:0x412148
  40608e:	push   edi
  40608f:	call   0x40a080
  406094:	push   DWORD PTR [ebp-0x8]
  406097:	call   0x40a080
  40609c:	push   ebx
  40609d:	call   0x40a080
  4060a2:	mov    eax,ds:0x411010
  4060a7:	cmp    eax,0x411010
  4060ac:	je     0x4060ce
  4060ae:	cmp    BYTE PTR [eax+0x19],0x4
  4060b2:	jb     0x4060ce
  4060b4:	test   BYTE PTR [eax+0x1c],0x1
  4060b8:	je     0x4060ce
  4060ba:	push   esi
  4060bb:	push   DWORD PTR [eax+0x14]
  4060be:	mov    edx,0x4017bc
  4060c3:	push   DWORD PTR [eax+0x10]
  4060c6:	push   0x1c
  4060c8:	pop    ecx
  4060c9:	call   0x402af8
  4060ce:	mov    ecx,DWORD PTR [ebp-0x4]
  4060d1:	mov    eax,esi
  4060d3:	pop    edi
  4060d4:	pop    esi
  4060d5:	xor    ecx,ebp
  4060d7:	pop    ebx
  4060d8:	call   0x4101d0
  4060dd:	mov    esp,ebp
  4060df:	pop    ebp
  4060e0:	ret    
  4060e1:	int3   
  4060e2:	int3   
  4060e3:	int3   
  4060e4:	int3   
  4060e5:	int3   
  4060e6:	mov    edi,edi
  4060e8:	push   ebx
  4060e9:	push   esi
  4060ea:	push   edi
  4060eb:	xor    esi,esi
  4060ed:	mov    eax,ds:0x411010
  4060f2:	xor    ebx,ebx
  4060f4:	mov    edi,0x411010
  4060f9:	inc    ebx
  4060fa:	cmp    eax,edi
  4060fc:	je     0x40611c
  4060fe:	cmp    BYTE PTR [eax+0x19],0x4
  406102:	jb     0x40611c
  406104:	test   BYTE PTR [eax+0x1c],bl
  406107:	je     0x40611c
  406109:	push   DWORD PTR [eax+0x14]
  40610c:	mov    edx,0x4017bc
  406111:	push   DWORD PTR [eax+0x10]
  406114:	push   0x1d
  406116:	pop    ecx
  406117:	call   0x402ad5
  40611c:	push   0x411560
  406121:	call   DWORD PTR ds:0x412128
  406127:	mov    ecx,DWORD PTR ds:0x411014
  40612d:	cmp    ecx,ebx
  40612f:	je     0x40620c
  406135:	cmp    ecx,0x4
  406138:	je     0x40616e
  40613a:	mov    esi,0x139f
  40613f:	mov    eax,ds:0x411010
  406144:	cmp    eax,edi
  406146:	je     0x40620c
  40614c:	test   BYTE PTR [eax+0x1c],bl
  40614f:	je     0x40620c
  406155:	push   ecx
  406156:	push   DWORD PTR [eax+0x14]
  406159:	push   DWORD PTR [eax+0x10]
  40615c:	push   0x1e
  40615e:	mov    edx,0x4017bc
  406163:	pop    ecx
  406164:	call   0x402af8
  406169:	jmp    0x40620c
  40616e:	mov    ecx,DWORD PTR ds:0x4113f8
  406174:	test   ecx,ecx
  406176:	je     0x40619a
  406178:	mov    esi,0x139f
  40617d:	mov    eax,ds:0x411010
  406182:	cmp    eax,edi
  406184:	je     0x40620c
  40618a:	test   BYTE PTR [eax+0x1c],bl
  40618d:	je     0x40620c
  40618f:	push   ecx
  406190:	push   DWORD PTR [eax+0x14]
  406193:	push   DWORD PTR [eax+0x10]
  406196:	push   0x1f
  406198:	jmp    0x40615e
  40619a:	mov    eax,ds:0x411010
  40619f:	cmp    eax,edi
  4061a1:	je     0x4061c1
  4061a3:	cmp    BYTE PTR [eax+0x19],0x3
  4061a7:	jb     0x4061c1
  4061a9:	test   BYTE PTR [eax+0x1c],bl
  4061ac:	je     0x4061c1
  4061ae:	push   DWORD PTR [eax+0x14]
  4061b1:	mov    edx,0x4017bc
  4061b6:	push   DWORD PTR [eax+0x10]
  4061b9:	push   0x20
  4061bb:	pop    ecx
  4061bc:	call   0x402ad5
  4061c1:	push   DWORD PTR ds:0x4113fc
  4061c7:	call   DWORD PTR ds:0x4120d8
  4061cd:	push   DWORD PTR ds:0x4113f0
  4061d3:	mov    DWORD PTR ds:0x4113fc,esi
  4061d9:	call   0x40a080
  4061de:	push   DWORD PTR ds:0x4113ec
  4061e4:	mov    DWORD PTR ds:0x4113f0,esi
  4061ea:	call   0x40a080
  4061ef:	push   DWORD PTR ds:0x4113f4
  4061f5:	mov    DWORD PTR ds:0x4113ec,esi
  4061fb:	call   0x40a080
  406200:	mov    DWORD PTR ds:0x4113f4,esi
  406206:	mov    DWORD PTR ds:0x411014,ebx
  40620c:	push   0x411560
  406211:	call   DWORD PTR ds:0x412148
  406217:	mov    eax,ds:0x411010
  40621c:	cmp    eax,edi
  40621e:	je     0x40623f
  406220:	cmp    BYTE PTR [eax+0x19],0x4
  406224:	jb     0x40623f
  406226:	test   BYTE PTR [eax+0x1c],bl
  406229:	je     0x40623f
  40622b:	push   esi
  40622c:	push   DWORD PTR [eax+0x14]
  40622f:	mov    edx,0x4017bc
  406234:	push   DWORD PTR [eax+0x10]
  406237:	push   0x21
  406239:	pop    ecx
  40623a:	call   0x402af8
  40623f:	pop    edi
  406240:	mov    eax,esi
  406242:	pop    esi
  406243:	pop    ebx
  406244:	ret    
  406245:	int3   
  406246:	int3   
  406247:	int3   
  406248:	int3   
  406249:	int3   
  40624a:	int3   
  40624b:	int3   
  40624c:	int3   
  40624d:	int3   
  40624e:	int3   
  40624f:	int3   
  406250:	mov    edi,edi
  406252:	push   ebp
  406253:	mov    ebp,esp
  406255:	and    esp,0xfffffff8
  406258:	push   ecx
  406259:	mov    eax,ds:0x411004
  40625e:	xor    eax,esp
  406260:	mov    DWORD PTR [esp],eax
  406263:	push   ebx
  406264:	push   esi
  406265:	push   edi
  406266:	mov    eax,ds:0x411010
  40626b:	mov    edi,0x4017bc
  406270:	cmp    eax,0x411010
  406275:	je     0x406293
  406277:	cmp    BYTE PTR [eax+0x19],0x4
  40627b:	jb     0x406293
  40627d:	test   BYTE PTR [eax+0x1c],0x1
  406281:	je     0x406293
  406283:	push   DWORD PTR [eax+0x14]
  406286:	mov    edx,edi
  406288:	push   DWORD PTR [eax+0x10]
  40628b:	push   0x22
  40628d:	pop    ecx
  40628e:	call   0x402ad5
  406293:	xor    ebx,ebx
  406295:	mov    esi,0x4017ac
  40629a:	push   ebx
  40629b:	push   ebx
  40629c:	mov    edx,esi
  40629e:	xor    ecx,ecx
  4062a0:	call   0x406502
  4062a5:	mov    ecx,DWORD PTR [ebp+0x8]
  4062a8:	call   DWORD PTR ds:0x41221c
  4062ae:	call   DWORD PTR [ebp+0x8]
  4062b1:	push   ebx
  4062b2:	xor    ecx,ecx
  4062b4:	mov    edx,esi
  4062b6:	push   ebx
  4062b7:	inc    ecx
  4062b8:	call   0x406502
  4062bd:	mov    eax,ds:0x411010
  4062c2:	cmp    eax,0x411010
  4062c7:	je     0x4062e6
  4062c9:	cmp    BYTE PTR [eax+0x19],0x4
  4062cd:	jb     0x4062e6
  4062cf:	test   BYTE PTR [eax+0x1c],0x1
  4062d3:	je     0x4062e6
  4062d5:	push   ebx
  4062d6:	push   DWORD PTR [eax+0x14]
  4062d9:	mov    edx,edi
  4062db:	push   DWORD PTR [eax+0x10]
  4062de:	push   0x23
  4062e0:	pop    ecx
  4062e1:	call   0x402af8
  4062e6:	mov    ecx,DWORD PTR [esp+0xc]
  4062ea:	xor    eax,eax
  4062ec:	pop    edi
  4062ed:	pop    esi
  4062ee:	pop    ebx
  4062ef:	xor    ecx,esp
  4062f1:	call   0x4101d0
  4062f6:	mov    esp,ebp
  4062f8:	pop    ebp
  4062f9:	ret    0x4
  4062fc:	int3   
  4062fd:	int3   
  4062fe:	int3   
  4062ff:	int3   
  406300:	int3   
  406301:	mov    edi,edi
  406303:	push   ebp
  406304:	mov    ebp,esp
  406306:	sub    esp,0xc
  406309:	push   ebx
  40630a:	push   esi
  40630b:	push   edi
  40630c:	xor    esi,esi
  40630e:	xor    edi,edi
  406310:	and    DWORD PTR [ebp-0x4],esi
  406313:	mov    eax,ds:0x411010
  406318:	cmp    eax,0x411010
  40631d:	je     0x40633e
  40631f:	cmp    BYTE PTR [eax+0x19],0x4
  406323:	jb     0x40633e
  406325:	test   BYTE PTR [eax+0x1c],0x1
  406329:	je     0x40633e
  40632b:	push   DWORD PTR [eax+0x14]
  40632e:	mov    edx,0x4017bc
  406333:	push   DWORD PTR [eax+0x10]
  406336:	push   0x24
  406338:	pop    ecx
  406339:	call   0x402ad5
  40633e:	push   0x411560
  406343:	call   DWORD PTR ds:0x412128
  406349:	mov    ecx,DWORD PTR ds:0x411014
  40634f:	mov    DWORD PTR [ebp-0x8],0x1
  406356:	cmp    ecx,0x1
  406359:	je     0x4064a4
  40635f:	cmp    DWORD PTR ds:0x4113fc,esi
  406365:	je     0x406479
  40636b:	mov    ebx,DWORD PTR ds:0x4113f4
  406371:	test   ebx,ebx
  406373:	je     0x406479
  406379:	mov    eax,ds:0x4113f8
  40637e:	cmp    eax,0x200
  406383:	jge    0x406479
  406389:	cmp    ecx,0x3
  40638c:	jne    0x406479
  406392:	mov    ebx,DWORD PTR [ebx]
  406394:	inc    eax
  406395:	push   0x411560
  40639a:	mov    DWORD PTR [ebp-0x4],0x1
  4063a1:	mov    DWORD PTR ds:0x411014,0x4
  4063ab:	mov    ds:0x4113f8,eax
  4063b0:	call   DWORD PTR ds:0x412148
  4063b6:	xor    eax,eax
  4063b8:	mov    DWORD PTR [ebp-0x8],eax
  4063bb:	test   ebx,ebx
  4063bd:	je     0x4064a4
  4063c3:	push   eax
  4063c4:	push   eax
  4063c5:	push   ebx
  4063c6:	push   0x406250
  4063cb:	push   eax
  4063cc:	push   eax
  4063cd:	call   DWORD PTR ds:0x4120f4
  4063d3:	mov    edi,eax
  4063d5:	test   edi,edi
  4063d7:	jne    0x406424
  4063d9:	call   DWORD PTR ds:0x41208c
  4063df:	mov    esi,eax
  4063e1:	test   esi,esi
  4063e3:	je     0x406424
  4063e5:	mov    ecx,DWORD PTR ds:0x411010
  4063eb:	cmp    ecx,0x411010
  4063f1:	je     0x4064a4
  4063f7:	cmp    BYTE PTR [ecx+0x19],0x1
  4063fb:	jb     0x4064a4
  406401:	test   BYTE PTR [ecx+0x1c],0x1
  406405:	je     0x4064a4
  40640b:	push   esi
  40640c:	push   DWORD PTR [ecx+0x14]
  40640f:	push   DWORD PTR [ecx+0x10]
  406412:	push   0x26
  406414:	mov    edx,0x4017bc
  406419:	pop    ecx
  40641a:	call   0x402af8
  40641f:	jmp    0x4064a4
  406424:	push   0x1388
  406429:	push   edi
  40642a:	call   DWORD PTR ds:0x412138
  406430:	mov    esi,eax
  406432:	test   esi,esi
  406434:	je     0x4064a4
  406436:	cmp    esi,0xffffffff
  406439:	jne    0x406445
  40643b:	call   DWORD PTR ds:0x41208c
  406441:	mov    esi,eax
  406443:	jmp    0x406452
  406445:	cmp    esi,0x102
  40644b:	je     0x406452
  40644d:	mov    esi,0x139f
  406452:	test   esi,esi
  406454:	je     0x4064a4
  406456:	mov    eax,ds:0x411010
  40645b:	cmp    eax,0x411010
  406460:	je     0x4064a4
  406462:	cmp    BYTE PTR [eax+0x19],0x1
  406466:	jb     0x4064a4
  406468:	test   BYTE PTR [eax+0x1c],0x1
  40646c:	je     0x4064a4
  40646e:	push   esi
  40646f:	push   DWORD PTR [eax+0x14]
  406472:	push   DWORD PTR [eax+0x10]
  406475:	push   0x27
  406477:	jmp    0x406414
  406479:	and    DWORD PTR [ebp-0x4],esi
  40647c:	push   0x5
  40647e:	pop    esi
  40647f:	mov    eax,ds:0x411010
  406484:	cmp    eax,0x411010
  406489:	je     0x4064a4
  40648b:	test   BYTE PTR [eax+0x1c],0x1
  40648f:	je     0x4064a4
  406491:	push   DWORD PTR [eax+0x14]
  406494:	mov    edx,0x4017bc
  406499:	push   DWORD PTR [eax+0x10]
  40649c:	push   0x25
  40649e:	pop    ecx
  40649f:	call   0x402ad5
  4064a4:	lea    ecx,[ebp-0x4]
  4064a7:	call   0x405924
  4064ac:	cmp    DWORD PTR [ebp-0x8],0x0
  4064b0:	je     0x4064bd
  4064b2:	push   0x411560
  4064b7:	call   DWORD PTR ds:0x412148
  4064bd:	test   edi,edi
  4064bf:	je     0x4064c8
  4064c1:	push   edi
  4064c2:	call   DWORD PTR ds:0x4120a8
  4064c8:	mov    eax,ds:0x411010
  4064cd:	cmp    eax,0x411010
  4064d2:	je     0x4064f4
  4064d4:	cmp    BYTE PTR [eax+0x19],0x4
  4064d8:	jb     0x4064f4
  4064da:	test   BYTE PTR [eax+0x1c],0x1
  4064de:	je     0x4064f4
  4064e0:	push   esi
  4064e1:	push   DWORD PTR [eax+0x14]
  4064e4:	mov    edx,0x4017bc
  4064e9:	push   DWORD PTR [eax+0x10]
  4064ec:	push   0x28
  4064ee:	pop    ecx
  4064ef:	call   0x402af8
  4064f4:	pop    edi
  4064f5:	mov    eax,esi
  4064f7:	pop    esi
  4064f8:	pop    ebx
  4064f9:	mov    esp,ebp
  4064fb:	pop    ebp
  4064fc:	ret    
  4064fd:	int3   
  4064fe:	int3   
  4064ff:	int3   
  406500:	int3   
  406501:	int3   
  406502:	mov    edi,edi
  406504:	push   ebp
  406505:	mov    ebp,esp
  406507:	and    esp,0xfffffff8
  40650a:	cmp    ecx,0xa
  40650d:	ja     0x406742
  406513:	jmp    DWORD PTR [ecx*4+0x40674a]
  40651a:	mov    eax,ds:0x411010
  40651f:	cmp    eax,0x411010
  406524:	je     0x406742
  40652a:	cmp    BYTE PTR [eax+0x19],0x3
  40652e:	jb     0x406742
  406534:	test   BYTE PTR [eax+0x1c],0x1
  406538:	je     0x406742
  40653e:	push   edx
  40653f:	push   DWORD PTR [eax+0x14]
  406542:	push   DWORD PTR [eax+0x10]
  406545:	push   0x29
  406547:	mov    edx,0x4017bc
  40654c:	pop    ecx
  40654d:	call   0x405743
  406552:	jmp    0x406742
  406557:	mov    eax,ds:0x411010
  40655c:	cmp    eax,0x411010
  406561:	je     0x406742
  406567:	cmp    BYTE PTR [eax+0x19],0x3
  40656b:	jb     0x406742
  406571:	test   BYTE PTR [eax+0x1c],0x1
  406575:	je     0x406742
  40657b:	push   edx
  40657c:	push   DWORD PTR [eax+0x14]
  40657f:	push   DWORD PTR [eax+0x10]
  406582:	push   0x2a
  406584:	jmp    0x406547
  406586:	mov    eax,ds:0x411010
  40658b:	cmp    eax,0x411010
  406590:	je     0x406742
  406596:	cmp    BYTE PTR [eax+0x19],0x3
  40659a:	jb     0x406742
  4065a0:	test   BYTE PTR [eax+0x1c],0x1
  4065a4:	je     0x406742
  4065aa:	push   DWORD PTR [ebp+0x8]
  4065ad:	push   edx
  4065ae:	push   DWORD PTR [eax+0x14]
  4065b1:	push   DWORD PTR [eax+0x10]
  4065b4:	push   0x2b
  4065b6:	jmp    0x406737
  4065bb:	mov    eax,ds:0x411010
  4065c0:	cmp    eax,0x411010
  4065c5:	je     0x406742
  4065cb:	cmp    BYTE PTR [eax+0x19],0x3
  4065cf:	jb     0x406742
  4065d5:	test   BYTE PTR [eax+0x1c],0x1
  4065d9:	je     0x406742
  4065df:	push   DWORD PTR [ebp+0xc]
  4065e2:	push   DWORD PTR [ebp+0x8]
  4065e5:	push   edx
  4065e6:	push   DWORD PTR [eax+0x14]
  4065e9:	push   DWORD PTR [eax+0x10]
  4065ec:	push   0x2c
  4065ee:	pop    ecx
  4065ef:	call   0x4057e7
  4065f4:	jmp    0x406742
  4065f9:	mov    eax,ds:0x411010
  4065fe:	cmp    eax,0x411010
  406603:	je     0x406742
  406609:	cmp    BYTE PTR [eax+0x19],0x3
  40660d:	jb     0x406742
  406613:	test   BYTE PTR [eax+0x1c],0x1
  406617:	je     0x406742
  40661d:	push   edx
  40661e:	push   DWORD PTR [eax+0x14]
  406621:	push   DWORD PTR [eax+0x10]
  406624:	push   0x2d
  406626:	jmp    0x406547
  40662b:	mov    eax,ds:0x411010
  406630:	cmp    eax,0x411010
  406635:	je     0x406742
  40663b:	cmp    BYTE PTR [eax+0x19],0x3
  40663f:	jb     0x406742
  406645:	test   BYTE PTR [eax+0x1c],0x1
  406649:	je     0x406742
  40664f:	push   DWORD PTR [ebp+0xc]
  406652:	push   DWORD PTR [ebp+0x8]
  406655:	push   edx
  406656:	push   DWORD PTR [eax+0x14]
  406659:	push   DWORD PTR [eax+0x10]
  40665c:	push   0x2e
  40665e:	jmp    0x4065ee
  406660:	mov    eax,ds:0x411010
  406665:	cmp    eax,0x411010
  40666a:	je     0x406742
  406670:	cmp    BYTE PTR [eax+0x19],0x3
  406674:	jb     0x406742
  40667a:	test   BYTE PTR [eax+0x1c],0x1
  40667e:	je     0x406742
  406684:	push   DWORD PTR [ebp+0x8]
  406687:	push   edx
  406688:	push   DWORD PTR [eax+0x14]
  40668b:	push   DWORD PTR [eax+0x10]
  40668e:	push   0x2f
  406690:	jmp    0x406737
  406695:	mov    eax,ds:0x411010
  40669a:	cmp    eax,0x411010
  40669f:	je     0x406742
  4066a5:	cmp    BYTE PTR [eax+0x19],0x3
  4066a9:	jb     0x406742
  4066af:	test   BYTE PTR [eax+0x1c],0x1
  4066b3:	je     0x406742
  4066b9:	push   edx
  4066ba:	push   DWORD PTR [eax+0x14]
  4066bd:	push   DWORD PTR [eax+0x10]
  4066c0:	push   0x30
  4066c2:	jmp    0x406547
  4066c7:	mov    eax,ds:0x411010
  4066cc:	cmp    eax,0x411010
  4066d1:	je     0x406742
  4066d3:	cmp    BYTE PTR [eax+0x19],0x3
  4066d7:	jb     0x406742
  4066d9:	test   BYTE PTR [eax+0x1c],0x1
  4066dd:	je     0x406742
  4066df:	push   DWORD PTR [ebp+0x8]
  4066e2:	push   edx
  4066e3:	push   DWORD PTR [eax+0x14]
  4066e6:	push   DWORD PTR [eax+0x10]
  4066e9:	push   0x31
  4066eb:	jmp    0x406737
  4066ed:	mov    eax,ds:0x411010
  4066f2:	cmp    eax,0x411010
  4066f7:	je     0x406742
  4066f9:	cmp    BYTE PTR [eax+0x19],0x3
  4066fd:	jb     0x406742
  4066ff:	test   BYTE PTR [eax+0x1c],0x1
  406703:	je     0x406742
  406705:	push   edx
  406706:	push   DWORD PTR [eax+0x14]
  406709:	push   DWORD PTR [eax+0x10]
  40670c:	push   0x32
  40670e:	jmp    0x406547
  406713:	mov    eax,ds:0x411010
  406718:	cmp    eax,0x411010
  40671d:	je     0x406742
  40671f:	cmp    BYTE PTR [eax+0x19],0x3
  406723:	jb     0x406742
  406725:	test   BYTE PTR [eax+0x1c],0x1
  406729:	je     0x406742
  40672b:	push   DWORD PTR [ebp+0x8]
  40672e:	push   edx
  40672f:	push   DWORD PTR [eax+0x14]
  406732:	push   DWORD PTR [eax+0x10]
  406735:	push   0x33
  406737:	mov    edx,0x4017bc
  40673c:	pop    ecx
  40673d:	call   0x405792
  406742:	mov    esp,ebp
  406744:	pop    ebp
  406745:	ret    0x8
  406748:	mov    edi,edi
  40674a:	sbb    ah,BYTE PTR [ebp+0x40]
  40674d:	add    BYTE PTR [edi+0x65],dl
  406750:	inc    eax
  406751:	add    BYTE PTR [esi-0x44ffbf9b],al
  406757:	gs inc eax
  406759:	add    cl,bh
  40675b:	gs inc eax
  40675d:	add    BYTE PTR [ebx],ch
  40675f:	inc    ax
  406761:	add    BYTE PTR [eax+0x66],ah
  406764:	inc    eax
  406765:	add    BYTE PTR [ebp-0x38ffbf9a],dl
  40676b:	inc    ax
  40676d:	add    ch,ch
  40676f:	inc    ax
  406771:	add    BYTE PTR [ebx],dl
  406773:	addr16 inc eax
  406775:	add    ah,cl
  406777:	int3   
  406778:	int3   
  406779:	int3   
  40677a:	int3   
  40677b:	int3   
  40677c:	int3   
  40677d:	int3   
  40677e:	int3   
  40677f:	int3   
  406780:	mov    edi,edi
  406782:	push   ebp
  406783:	mov    ebp,esp
  406785:	and    esp,0xfffffff8
  406788:	sub    esp,0x1c
  40678b:	push   ebx
  40678c:	xor    eax,eax
  40678e:	mov    DWORD PTR [esp+0x8],0x1
  406796:	push   esi
  406797:	push   edi
  406798:	push   eax
  406799:	push   eax
  40679a:	push   0x7
  40679c:	mov    edi,eax
  40679e:	mov    DWORD PTR [esp+0x2c],eax
  4067a2:	mov    edx,0x4017cc
  4067a7:	mov    DWORD PTR [esp+0x18],edi
  4067ab:	pop    ecx
  4067ac:	mov    DWORD PTR [esp+0x2c],eax
  4067b0:	mov    ebx,eax
  4067b2:	mov    DWORD PTR [esp+0x1c],eax
  4067b6:	mov    DWORD PTR [esp+0x20],eax
  4067ba:	mov    DWORD PTR [esp+0x24],eax
  4067be:	call   0x406502
  4067c3:	lea    ecx,[esp+0x1c]
  4067c7:	call   0x40b9d4
  4067cc:	mov    esi,eax
  4067ce:	test   esi,esi
  4067d0:	jne    0x4068c0
  4067d6:	mov    eax,DWORD PTR [ebp+0x14]
  4067d9:	lea    edx,[esp+0xc]
  4067dd:	mov    ecx,DWORD PTR [ebp+0x10]
  4067e0:	mov    DWORD PTR [eax],edi
  4067e2:	call   0x40bc31
  4067e7:	mov    esi,eax
  4067e9:	test   esi,esi
  4067eb:	jne    0x4068bc
  4067f1:	lea    eax,[esp+0x20]
  4067f5:	mov    DWORD PTR [esp+0x18],edi
  4067f9:	push   eax
  4067fa:	lea    eax,[esp+0x18]
  4067fe:	xor    edx,edx
  406800:	push   eax
  406801:	push   DWORD PTR [ebp+0x8]
  406804:	push   edi
  406805:	call   0x408bc1
  40680a:	mov    esi,eax
  40680c:	test   esi,esi
  40680e:	jne    0x4068bc
  406814:	mov    DWORD PTR [esp+0x10],edi
  406818:	mov    edi,DWORD PTR [esp+0xc]
  40681c:	mov    ecx,edi
  40681e:	call   0x405c80
  406823:	mov    ebx,eax
  406825:	mov    ecx,DWORD PTR ds:0x411010
  40682b:	cmp    ecx,0x411010
  406831:	je     0x406854
  406833:	cmp    BYTE PTR [ecx+0x19],0x3
  406837:	jb     0x406854
  406839:	test   BYTE PTR [ecx+0x1c],0x1
  40683d:	je     0x406854
  40683f:	push   ebx
  406840:	push   edi
  406841:	push   DWORD PTR [ecx+0x14]
  406844:	mov    edx,0x4018c4
  406849:	push   DWORD PTR [ecx+0x10]
  40684c:	push   0xa
  40684e:	pop    ecx
  40684f:	call   0x4056bf
  406854:	push   DWORD PTR [esp+0x24]
  406858:	mov    ecx,DWORD PTR [esp+0x18]
  40685c:	push   DWORD PTR [esp+0x24]
  406860:	call   0x408dbc
  406865:	mov    esi,eax
  406867:	test   esi,esi
  406869:	jne    0x4068c0
  40686b:	mov    eax,DWORD PTR [ebp+0x14]
  40686e:	push   DWORD PTR ds:0x41139c
  406874:	mov    DWORD PTR [esp+0x14],0x1
  40687c:	mov    DWORD PTR [eax],0x4113b8
  406882:	call   DWORD PTR ds:0x412144
  406888:	test   eax,eax
  40688a:	jne    0x4068c0
  40688c:	call   DWORD PTR ds:0x41208c
  406892:	mov    ecx,DWORD PTR ds:0x411010
  406898:	cmp    ecx,0x411010
  40689e:	je     0x4068c0
  4068a0:	test   BYTE PTR [ecx+0x1c],0x1
  4068a4:	je     0x4068c0
  4068a6:	push   eax
  4068a7:	push   DWORD PTR [ecx+0x14]
  4068aa:	mov    edx,0x4018c4
  4068af:	push   DWORD PTR [ecx+0x10]
  4068b2:	push   0xb
  4068b4:	pop    ecx
  4068b5:	call   0x402af8
  4068ba:	jmp    0x4068c0
  4068bc:	mov    edi,DWORD PTR [esp+0xc]
  4068c0:	push   edi
  4068c1:	call   0x40a080
  4068c6:	lea    ecx,[esp+0x18]
  4068ca:	call   0x405924
  4068cf:	cmp    DWORD PTR [esp+0x10],0x0
  4068d4:	je     0x4068e6
  4068d6:	test   esi,esi
  4068d8:	je     0x4068dc
  4068da:	mov    ebx,esi
  4068dc:	mov    ecx,DWORD PTR [ebp+0x8]
  4068df:	mov    edx,ebx
  4068e1:	call   0x408a78
  4068e6:	mov    ecx,DWORD PTR [esp+0x1c]
  4068ea:	call   0x40baea
  4068ef:	push   0x0
  4068f1:	push   esi
  4068f2:	push   0x8
  4068f4:	mov    edx,0x4017cc
  4068f9:	pop    ecx
  4068fa:	call   0x406502
  4068ff:	pop    edi
  406900:	pop    esi
  406901:	pop    ebx
  406902:	mov    esp,ebp
  406904:	pop    ebp
  406905:	ret    0x10
  406908:	int3   
  406909:	int3   
  40690a:	int3   
  40690b:	int3   
  40690c:	int3   
  40690d:	int3   
  40690e:	int3   
  40690f:	int3   
  406910:	mov    edi,edi
  406912:	push   ebp
  406913:	mov    ebp,esp
  406915:	and    esp,0xfffffff8
  406918:	push   ecx
  406919:	push   ebx
  40691a:	push   esi
  40691b:	push   edi
  40691c:	xor    edi,edi
  40691e:	mov    ebx,0x4017ac
  406923:	push   edi
  406924:	push   edi
  406925:	push   0x7
  406927:	mov    edx,ebx
  406929:	mov    DWORD PTR [esp+0x18],edi
  40692d:	pop    ecx
  40692e:	call   0x406502
  406933:	lea    ecx,[esp+0xc]
  406937:	call   0x40b9d4
  40693c:	mov    esi,eax
  40693e:	test   esi,esi
  406940:	jne    0x406954
  406942:	mov    ecx,DWORD PTR [ebp+0x8]
  406945:	xor    edx,edx
  406947:	call   0x408a78
  40694c:	push   edi
  40694d:	mov    esi,eax
  40694f:	call   0x403900
  406954:	mov    ecx,DWORD PTR [esp+0xc]
  406958:	call   0x40baea
  40695d:	push   edi
  40695e:	push   esi
  40695f:	push   0x8
  406961:	mov    edx,ebx
  406963:	pop    ecx
  406964:	call   0x406502
  406969:	pop    edi
  40696a:	pop    esi
  40696b:	pop    ebx
  40696c:	mov    esp,ebp
  40696e:	pop    ebp
  40696f:	ret    0x8
  406972:	int3   
  406973:	int3   
  406974:	int3   
  406975:	int3   
  406976:	int3   
  406977:	int3   
  406978:	int3   
  406979:	int3   
  40697a:	int3   
  40697b:	int3   
  40697c:	int3   
  40697d:	int3   
  40697e:	int3   
  40697f:	int3   
  406980:	mov    edi,edi
  406982:	push   ebp
  406983:	mov    ebp,esp
  406985:	and    esp,0xfffffff8
  406988:	sub    esp,0x6c
  40698b:	mov    eax,ds:0x411004
  406990:	xor    eax,esp
  406992:	mov    DWORD PTR [esp+0x68],eax
  406996:	mov    eax,DWORD PTR [ebp+0x8]
  406999:	xor    edx,edx
  40699b:	push   ebx
  40699c:	push   esi
  40699d:	push   edi
  40699e:	push   0x6
  4069a0:	mov    DWORD PTR [esp+0x34],eax
  4069a4:	lea    edi,[esp+0x60]
  4069a8:	mov    eax,DWORD PTR [ebp+0x10]
  4069ab:	mov    ebx,edx
  4069ad:	pop    ecx
  4069ae:	mov    DWORD PTR [esp+0x34],eax
  4069b2:	mov    eax,DWORD PTR [ebp+0x2c]
  4069b5:	push   edx
  4069b6:	mov    DWORD PTR [esp+0x58],eax
  4069ba:	xor    eax,eax
  4069bc:	push   edx
  4069bd:	mov    DWORD PTR [esp+0x60],edx
  4069c1:	rep stos DWORD PTR es:[edi],eax
  4069c3:	push   0x7
  4069c5:	mov    DWORD PTR [esp+0x50],edx
  4069c9:	mov    edi,edx
  4069cb:	mov    DWORD PTR [esp+0x1c],edx
  4069cf:	mov    DWORD PTR [esp+0x20],edx
  4069d3:	mov    DWORD PTR [esp+0x54],edx
  4069d7:	mov    DWORD PTR [esp+0x58],edx
  4069db:	mov    DWORD PTR [esp+0x34],edx
  4069df:	mov    DWORD PTR [esp+0x38],edx
  4069e3:	mov    DWORD PTR [esp+0x44],edx
  4069e7:	mov    DWORD PTR [esp+0x4c],edx
  4069eb:	mov    edx,0x4017d8
  4069f0:	pop    ecx
  4069f1:	mov    DWORD PTR [esp+0x28],ebx
  4069f5:	mov    DWORD PTR [esp+0x24],eax
  4069f9:	mov    DWORD PTR [esp+0x20],eax
  4069fd:	mov    DWORD PTR [esp+0x2c],0x1
  406a05:	call   0x406502
  406a0a:	lea    ecx,[esp+0x38]
  406a0e:	call   0x40b9d4
  406a13:	mov    esi,eax
  406a15:	test   esi,esi
  406a17:	jne    0x406ba4
  406a1d:	push   eax
  406a1e:	lea    eax,[esp+0x24]
  406a22:	mov    ecx,0x4113c8
  406a27:	push   eax
  406a28:	push   0x2
  406a2a:	pop    edx
  406a2b:	call   0x409973
  406a30:	mov    ebx,DWORD PTR [esp+0x20]
  406a34:	mov    esi,eax
  406a36:	test   esi,esi
  406a38:	jne    0x406ba4
  406a3e:	inc    eax
  406a3f:	mov    edx,ebx
  406a41:	mov    DWORD PTR [esp+0x14],eax
  406a45:	lea    eax,[esp+0x10]
  406a49:	push   eax
  406a4a:	push   ecx
  406a4b:	push   esi
  406a4c:	push   0x2
  406a4e:	mov    ecx,0x4113c8
  406a53:	call   0x409b32
  406a58:	mov    esi,eax
  406a5a:	test   esi,esi
  406a5c:	jne    0x406ba4
  406a62:	mov    ecx,DWORD PTR [esp+0x34]
  406a66:	mov    edx,ebx
  406a68:	push   0x2
  406a6a:	pop    eax
  406a6b:	mov    DWORD PTR [esp+0x14],eax
  406a6f:	lea    eax,[esp+0x18]
  406a73:	push   eax
  406a74:	call   0x40c7e5
  406a79:	mov    esi,eax
  406a7b:	test   esi,esi
  406a7d:	jne    0x406b9c
  406a83:	mov    ecx,DWORD PTR [esp+0x10]
  406a87:	call   0x409dd9
  406a8c:	mov    ecx,DWORD PTR [esp+0x10]
  406a90:	lea    esi,[ebp+0x1c]
  406a93:	mov    eax,DWORD PTR [ebp+0x14]
  406a96:	and    DWORD PTR [esp+0x1c],0x0
  406a9b:	mov    DWORD PTR [ecx+0x18],eax
  406a9e:	lea    edi,[ecx+0x2c]
  406aa1:	mov    eax,DWORD PTR [esp+0x18]
  406aa5:	mov    DWORD PTR [ecx+0x20],eax
  406aa8:	mov    eax,DWORD PTR [ebp+0x18]
  406aab:	mov    DWORD PTR [ecx+0x28],eax
  406aae:	movs   DWORD PTR es:[edi],DWORD PTR ds:[esi]
  406aaf:	movs   DWORD PTR es:[edi],DWORD PTR ds:[esi]
  406ab0:	movs   DWORD PTR es:[edi],DWORD PTR ds:[esi]
  406ab1:	movs   DWORD PTR es:[edi],DWORD PTR ds:[esi]
  406ab2:	call   0x409e47
  406ab7:	mov    eax,DWORD PTR [esp+0x34]
  406abb:	lea    edi,[esp+0x58]
  406abf:	push   0x7
  406ac1:	pop    ecx
  406ac2:	mov    esi,eax
  406ac4:	lea    edx,[esp+0x68]
  406ac8:	rep movs DWORD PTR es:[edi],DWORD PTR ds:[esi]
  406aca:	mov    ecx,DWORD PTR [eax+0x10]
  406acd:	xor    edi,edi
  406acf:	mov    DWORD PTR [esp+0x68],edi
  406ad3:	call   0x40bc31
  406ad8:	mov    esi,eax
  406ada:	test   esi,esi
  406adc:	jne    0x406ba4
  406ae2:	lea    eax,[esp+0x48]
  406ae6:	push   eax
  406ae7:	lea    eax,[esp+0x2c]
  406aeb:	push   eax
  406aec:	push   DWORD PTR [esp+0x38]
  406af0:	lea    eax,[esp+0x4c]
  406af4:	push   eax
  406af5:	lea    edx,[esp+0x3c]
  406af9:	call   0x408bc1
  406afe:	mov    esi,eax
  406b00:	test   esi,esi
  406b02:	jne    0x406ba4
  406b08:	push   edi
  406b09:	push   edi
  406b0a:	mov    edx,0x4017d8
  406b0f:	mov    DWORD PTR [esp+0x2c],edi
  406b13:	xor    ecx,ecx
  406b15:	call   0x406502
  406b1a:	mov    eax,DWORD PTR [esp+0x40]
  406b1e:	mov    esi,DWORD PTR [eax+0x4]
  406b21:	test   esi,esi
  406b23:	je     0x406b3e
  406b25:	lea    eax,[esp+0x44]
  406b29:	mov    ecx,esi
  406b2b:	push   eax
  406b2c:	push   ebx
  406b2d:	lea    eax,[esp+0x60]
  406b31:	push   eax
  406b32:	call   DWORD PTR ds:0x41221c
  406b38:	call   esi
  406b3a:	mov    edi,eax
  406b3c:	jmp    0x406b41
  406b3e:	push   0x78
  406b40:	pop    edi
  406b41:	push   0x0
  406b43:	push   edi
  406b44:	push   0x2
  406b46:	mov    edx,0x4017d8
  406b4b:	pop    ecx
  406b4c:	call   0x406502
  406b51:	push   DWORD PTR [esp+0x4c]
  406b55:	mov    ecx,DWORD PTR [esp+0x2c]
  406b59:	push   DWORD PTR [esp+0x4c]
  406b5d:	call   0x408dbc
  406b62:	mov    esi,eax
  406b64:	test   esi,esi
  406b66:	jne    0x406ba4
  406b68:	mov    DWORD PTR [esp+0x24],0x1
  406b70:	test   edi,edi
  406b72:	jne    0x406ba4
  406b74:	mov    ecx,DWORD PTR [esp+0x10]
  406b78:	call   0x409dd9
  406b7d:	mov    ecx,DWORD PTR [esp+0x10]
  406b81:	mov    eax,DWORD PTR [esp+0x44]
  406b85:	mov    DWORD PTR [ecx+0x1c],eax
  406b88:	call   0x409e47
  406b8d:	mov    eax,DWORD PTR [esp+0x54]
  406b91:	mov    DWORD PTR [eax],ebx
  406b93:	xor    eax,eax
  406b95:	inc    eax
  406b96:	mov    DWORD PTR [esp+0x14],eax
  406b9a:	jmp    0x406ba4
  406b9c:	mov    eax,DWORD PTR [esp+0x18]
  406ba0:	mov    DWORD PTR [esp+0x1c],eax
  406ba4:	push   DWORD PTR [esp+0x68]
  406ba8:	call   0x40a080
  406bad:	mov    eax,DWORD PTR [esp+0x14]
  406bb1:	test   eax,eax
  406bb3:	je     0x406bc3
  406bb5:	push   eax
  406bb6:	push   ecx
  406bb7:	mov    edx,ebx
  406bb9:	mov    ecx,0x4113c8
  406bbe:	call   0x409c9a
  406bc3:	mov    ecx,DWORD PTR [esp+0x1c]
  406bc7:	call   0x40c996
  406bcc:	lea    ecx,[esp+0x2c]
  406bd0:	call   0x405924
  406bd5:	cmp    DWORD PTR [esp+0x24],0x0
  406bda:	je     0x406bed
  406bdc:	test   esi,esi
  406bde:	je     0x406be2
  406be0:	mov    edi,esi
  406be2:	mov    ecx,DWORD PTR [esp+0x30]
  406be6:	mov    edx,edi
  406be8:	call   0x408a78
  406bed:	mov    ecx,DWORD PTR [esp+0x38]
  406bf1:	call   0x40baea
  406bf6:	push   0x0
  406bf8:	push   esi
  406bf9:	push   0x8
  406bfb:	mov    edx,0x4017d8
  406c00:	pop    ecx
  406c01:	call   0x406502
  406c06:	mov    ecx,DWORD PTR [esp+0x74]
  406c0a:	pop    edi
  406c0b:	pop    esi
  406c0c:	pop    ebx
  406c0d:	xor    ecx,esp
  406c0f:	call   0x4101d0
  406c14:	mov    esp,ebp
  406c16:	pop    ebp
  406c17:	ret    0x28
  406c1a:	int3   
  406c1b:	int3   
  406c1c:	int3   
  406c1d:	int3   
  406c1e:	int3   
  406c1f:	int3   
  406c20:	mov    edi,edi
  406c22:	push   ebp
  406c23:	mov    ebp,esp
  406c25:	and    esp,0xfffffff8
  406c28:	sub    esp,0x24
  406c2b:	mov    eax,ds:0x411004
  406c30:	xor    eax,esp
  406c32:	mov    DWORD PTR [esp+0x20],eax
  406c36:	push   ebx
  406c37:	xor    eax,eax
  406c39:	mov    edx,0x4017e4
  406c3e:	push   esi
  406c3f:	push   edi
  406c40:	push   eax
  406c41:	push   eax
  406c42:	push   0x7
  406c44:	xor    edi,edi
  406c46:	mov    DWORD PTR [esp+0x18],eax
  406c4a:	pop    ecx
  406c4b:	mov    DWORD PTR [esp+0x28],eax
  406c4f:	mov    ebx,eax
  406c51:	mov    DWORD PTR [esp+0x2c],eax
  406c55:	inc    edi
  406c56:	mov    DWORD PTR [esp+0x18],eax
  406c5a:	mov    DWORD PTR [esp+0x1c],eax
  406c5e:	mov    DWORD PTR [esp+0x20],eax
  406c62:	mov    DWORD PTR [esp+0x24],eax
  406c66:	call   0x406502
  406c6b:	lea    ecx,[esp+0x18]
  406c6f:	call   0x40b9d4
  406c74:	mov    esi,eax
  406c76:	test   esi,esi
  406c78:	jne    0x406d42
  406c7e:	mov    edx,DWORD PTR [ebp+0x10]
  406c81:	lea    eax,[esp+0xc]
  406c85:	push   eax
  406c86:	push   ecx
  406c87:	push   edi
  406c88:	push   0x2
  406c8a:	mov    ecx,0x4113c8
  406c8f:	call   0x409b32
  406c94:	mov    esi,eax
  406c96:	test   esi,esi
  406c98:	jne    0x406d42
  406c9e:	lea    eax,[esp+0x20]
  406ca2:	push   eax
  406ca3:	lea    eax,[esp+0x14]
  406ca7:	push   eax
  406ca8:	push   DWORD PTR [ebp+0x8]
  406cab:	lea    eax,[esp+0x28]
  406caf:	push   eax
  406cb0:	lea    edx,[esp+0x24]
  406cb4:	call   0x408bc1
  406cb9:	mov    esi,eax
  406cbb:	test   esi,esi
  406cbd:	jne    0x406d32
  406cbf:	mov    esi,DWORD PTR [esp+0xc]
  406cc3:	xor    edi,edi
  406cc5:	mov    ecx,esi
  406cc7:	call   0x409dd9
  406ccc:	and    DWORD PTR [esi+0x18],ebx
  406ccf:	mov    ecx,esi
  406cd1:	mov    eax,DWORD PTR [esi+0x1c]
  406cd4:	and    DWORD PTR [esi+0x1c],ebx
  406cd7:	mov    DWORD PTR [esp+0xc],eax
  406cdb:	call   0x409e47
  406ce0:	push   edi
  406ce1:	push   edi
  406ce2:	mov    edx,0x4017e4
  406ce7:	xor    ecx,ecx
  406ce9:	call   0x406502
  406cee:	mov    eax,DWORD PTR [esp+0x1c]
  406cf2:	mov    esi,DWORD PTR [eax+0x8]
  406cf5:	test   esi,esi
  406cf7:	je     0x406d07
  406cf9:	push   DWORD PTR [esp+0xc]
  406cfd:	mov    ecx,esi
  406cff:	call   DWORD PTR ds:0x41221c
  406d05:	call   esi
  406d07:	push   0x0
  406d09:	xor    ecx,ecx
  406d0b:	mov    edx,0x4017e4
  406d10:	push   0x0
  406d12:	inc    ecx
  406d13:	call   0x406502
  406d18:	push   DWORD PTR [esp+0x24]
  406d1c:	mov    ecx,DWORD PTR [esp+0x14]
  406d20:	push   DWORD PTR [esp+0x24]
  406d24:	call   0x408dbc
  406d29:	mov    esi,eax
  406d2b:	test   esi,esi
  406d2d:	jne    0x406d32
  406d2f:	xor    edi,edi
  406d31:	inc    edi
  406d32:	mov    edx,DWORD PTR [ebp+0x10]
  406d35:	push   0x2
  406d37:	push   ecx
  406d38:	mov    ecx,0x4113c8
  406d3d:	call   0x409c9a
  406d42:	lea    ecx,[esp+0x14]
  406d46:	call   0x405924
  406d4b:	test   edi,edi
  406d4d:	je     0x406d5f
  406d4f:	test   esi,esi
  406d51:	je     0x406d55
  406d53:	mov    ebx,esi
  406d55:	mov    ecx,DWORD PTR [ebp+0x8]
  406d58:	mov    edx,ebx
  406d5a:	call   0x408a78
  406d5f:	mov    ecx,DWORD PTR [esp+0x18]
  406d63:	call   0x40baea
  406d68:	push   0x0
  406d6a:	push   esi
  406d6b:	push   0x8
  406d6d:	mov    edx,0x4017e4
  406d72:	pop    ecx
  406d73:	call   0x406502
  406d78:	mov    ecx,DWORD PTR [esp+0x2c]
  406d7c:	pop    edi
  406d7d:	pop    esi
  406d7e:	pop    ebx
  406d7f:	xor    ecx,esp
  406d81:	call   0x4101d0
  406d86:	mov    esp,ebp
  406d88:	pop    ebp
  406d89:	ret    0xc
  406d8c:	int3   
  406d8d:	int3   
  406d8e:	int3   
  406d8f:	int3   
  406d90:	int3   
  406d91:	int3   
  406d92:	int3   
  406d93:	int3   
  406d94:	int3   
  406d95:	int3   
  406d96:	int3   
  406d97:	int3   
  406d98:	int3   
  406d99:	int3   
  406d9a:	int3   
  406d9b:	int3   
  406d9c:	int3   
  406d9d:	int3   
  406d9e:	int3   
  406d9f:	int3   
  406da0:	mov    edi,edi
  406da2:	push   ebp
  406da3:	mov    ebp,esp
  406da5:	and    esp,0xfffffff8
  406da8:	sub    esp,0x2c
  406dab:	mov    eax,ds:0x411004
  406db0:	xor    eax,esp
  406db2:	mov    DWORD PTR [esp+0x28],eax
  406db6:	push   ebx
  406db7:	xor    eax,eax
  406db9:	mov    DWORD PTR [esp+0xc],0x1
  406dc1:	push   esi
  406dc2:	push   edi
  406dc3:	push   eax
  406dc4:	push   eax
  406dc5:	push   0x7
  406dc7:	mov    ebx,eax
  406dc9:	mov    DWORD PTR [esp+0x34],eax
  406dcd:	mov    edx,0x4017f4
  406dd2:	mov    DWORD PTR [esp+0x1c],ebx
  406dd6:	pop    ecx
  406dd7:	mov    DWORD PTR [esp+0x34],eax
  406ddb:	mov    edi,eax
  406ddd:	mov    DWORD PTR [esp+0x20],eax
  406de1:	mov    DWORD PTR [esp+0x24],eax
  406de5:	mov    DWORD PTR [esp+0x28],eax
  406de9:	mov    DWORD PTR [esp+0x2c],eax
  406ded:	call   0x406502
  406df2:	lea    ecx,[esp+0x20]
  406df6:	call   0x40b9d4
  406dfb:	mov    esi,eax
  406dfd:	test   esi,esi
  406dff:	jne    0x406eab
  406e05:	mov    ecx,DWORD PTR [ebp+0x14]
  406e08:	lea    eax,[esp+0x10]
  406e0c:	push   eax
  406e0d:	push   0x8
  406e0f:	pop    edx
  406e10:	call   0x40bb8a
  406e15:	mov    esi,eax
  406e17:	test   esi,esi
  406e19:	jne    0x406ea7
  406e1f:	lea    eax,[esp+0x28]
  406e23:	push   eax
  406e24:	lea    eax,[esp+0x1c]
  406e28:	push   eax
  406e29:	push   DWORD PTR [ebp+0x8]
  406e2c:	lea    eax,[esp+0x30]
  406e30:	push   eax
  406e31:	lea    edx,[esp+0x2c]
  406e35:	call   0x408bc1
  406e3a:	mov    esi,eax
  406e3c:	test   esi,esi
  406e3e:	jne    0x406ea7
  406e40:	push   eax
  406e41:	push   eax
  406e42:	mov    edx,0x4017f4
  406e47:	mov    DWORD PTR [esp+0x1c],eax
  406e4b:	xor    ecx,ecx
  406e4d:	call   0x406502
  406e52:	mov    eax,DWORD PTR [esp+0x24]
  406e56:	mov    ebx,DWORD PTR [esp+0x10]
  406e5a:	mov    esi,DWORD PTR [eax+0x28]
  406e5d:	test   esi,esi
  406e5f:	je     0x406e73
  406e61:	push   ebx
  406e62:	push   DWORD PTR [ebp+0x10]
  406e65:	mov    ecx,esi
  406e67:	call   DWORD PTR ds:0x41221c
  406e6d:	call   esi
  406e6f:	mov    edi,eax
  406e71:	jmp    0x406e76
  406e73:	push   0x78
  406e75:	pop    edi
  406e76:	push   0x0
  406e78:	push   edi
  406e79:	push   0x2
  406e7b:	mov    edx,0x4017f4
  406e80:	pop    ecx
  406e81:	call   0x406502
  406e86:	push   DWORD PTR [esp+0x2c]
  406e8a:	mov    ecx,DWORD PTR [esp+0x1c]
  406e8e:	push   DWORD PTR [esp+0x2c]
  406e92:	call   0x408dbc
  406e97:	mov    esi,eax
  406e99:	test   esi,esi
  406e9b:	jne    0x406eab
  406e9d:	mov    DWORD PTR [esp+0x14],0x1
  406ea5:	jmp    0x406eab
  406ea7:	mov    ebx,DWORD PTR [esp+0x10]
  406eab:	push   ebx
  406eac:	call   0x40a080
  406eb1:	lea    ecx,[esp+0x1c]
  406eb5:	call   0x405924
  406eba:	cmp    DWORD PTR [esp+0x14],0x0
  406ebf:	je     0x406ed1
  406ec1:	test   esi,esi
  406ec3:	je     0x406ec7
  406ec5:	mov    edi,esi
  406ec7:	mov    ecx,DWORD PTR [ebp+0x8]
  406eca:	mov    edx,edi
  406ecc:	call   0x408a78
  406ed1:	mov    ecx,DWORD PTR [esp+0x20]
  406ed5:	call   0x40baea
  406eda:	push   0x0
  406edc:	push   esi
  406edd:	push   0x8
  406edf:	mov    edx,0x4017f4
  406ee4:	pop    ecx
  406ee5:	call   0x406502
  406eea:	mov    ecx,DWORD PTR [esp+0x34]
  406eee:	pop    edi
  406eef:	pop    esi
  406ef0:	pop    ebx
  406ef1:	xor    ecx,esp
  406ef3:	call   0x4101d0
  406ef8:	mov    esp,ebp
  406efa:	pop    ebp
  406efb:	ret    0x10
  406efe:	int3   
  406eff:	int3   
  406f00:	int3   
  406f01:	int3   
  406f02:	int3   
  406f03:	int3   
  406f04:	int3   
  406f05:	int3   
  406f06:	int3   
  406f07:	int3   
  406f08:	int3   
  406f09:	int3   
  406f0a:	int3   
  406f0b:	int3   
  406f0c:	int3   
  406f0d:	int3   
  406f0e:	int3   
  406f0f:	int3   
  406f10:	mov    edi,edi
  406f12:	push   ebp
  406f13:	mov    ebp,esp
  406f15:	and    esp,0xfffffff8
  406f18:	sub    esp,0x24
  406f1b:	mov    eax,ds:0x411004
  406f20:	xor    eax,esp
  406f22:	mov    DWORD PTR [esp+0x20],eax
  406f26:	push   ebx
  406f27:	xor    eax,eax
  406f29:	xor    ebx,ebx
  406f2b:	push   esi
  406f2c:	push   edi
  406f2d:	push   eax
  406f2e:	push   eax
  406f2f:	push   0x7
  406f31:	mov    edx,0x40180c
  406f36:	mov    DWORD PTR [esp+0x1c],eax
  406f3a:	pop    ecx
  406f3b:	mov    DWORD PTR [esp+0x28],eax
  406f3f:	mov    edi,eax
  406f41:	mov    DWORD PTR [esp+0x2c],eax
  406f45:	inc    ebx
  406f46:	mov    DWORD PTR [esp+0x24],eax
  406f4a:	mov    DWORD PTR [esp+0x1c],eax
  406f4e:	mov    DWORD PTR [esp+0x20],eax
  406f52:	mov    DWORD PTR [esp+0x14],eax
  406f56:	call   0x406502
  406f5b:	lea    ecx,[esp+0x18]
  406f5f:	call   0x40b9d4
  406f64:	mov    esi,eax
  406f66:	test   esi,esi
  406f68:	jne    0x407009
  406f6e:	lea    eax,[esp+0x20]
  406f72:	push   eax
  406f73:	lea    eax,[esp+0x20]
  406f77:	push   eax
  406f78:	push   DWORD PTR [ebp+0x8]
  406f7b:	lea    eax,[esp+0x18]
  406f7f:	push   eax
  406f80:	lea    edx,[esp+0x24]
  406f84:	call   0x408bc1
  406f89:	mov    esi,eax
  406f8b:	test   esi,esi
  406f8d:	jne    0x407009
  406f8f:	xor    ebx,ebx
  406f91:	mov    edx,0x40180c
  406f96:	push   ebx
  406f97:	push   ebx
  406f98:	xor    ecx,ecx
  406f9a:	call   0x406502
  406f9f:	mov    eax,DWORD PTR [esp+0xc]
  406fa3:	mov    eax,DWORD PTR [eax+0x38]
  406fa6:	mov    DWORD PTR [esp+0xc],eax
  406faa:	test   eax,eax
  406fac:	je     0x406fcf
  406fae:	lea    ecx,[esp+0x10]
  406fb2:	push   ecx
  406fb3:	sub    esp,0x10
  406fb6:	lea    esi,[ebp+0x10]
  406fb9:	mov    edi,esp
  406fbb:	mov    ecx,eax
  406fbd:	movs   DWORD PTR es:[edi],DWORD PTR ds:[esi]
  406fbe:	movs   DWORD PTR es:[edi],DWORD PTR ds:[esi]
  406fbf:	movs   DWORD PTR es:[edi],DWORD PTR ds:[esi]
  406fc0:	movs   DWORD PTR es:[edi],DWORD PTR ds:[esi]
  406fc1:	call   DWORD PTR ds:0x41221c
  406fc7:	call   DWORD PTR [esp+0x20]
  406fcb:	mov    edi,eax
  406fcd:	jmp    0x406fd2
  406fcf:	push   0x78
  406fd1:	pop    edi
  406fd2:	push   0x0
  406fd4:	push   edi
  406fd5:	push   0x2
  406fd7:	mov    edx,0x40180c
  406fdc:	pop    ecx
  406fdd:	call   0x406502
  406fe2:	push   DWORD PTR [esp+0x24]
  406fe6:	mov    ecx,DWORD PTR [esp+0x20]
  406fea:	push   DWORD PTR [esp+0x24]
  406fee:	call   0x408dbc
  406ff3:	mov    esi,eax
  406ff5:	test   esi,esi
  406ff7:	jne    0x407009
  406ff9:	xor    ebx,ebx
  406ffb:	inc    ebx
  406ffc:	test   edi,edi
  406ffe:	jne    0x407009
  407000:	mov    ecx,DWORD PTR [ebp+0x20]
  407003:	mov    eax,DWORD PTR [esp+0x10]
  407007:	mov    DWORD PTR [ecx],eax
  407009:	lea    ecx,[esp+0x14]
  40700d:	call   0x405924
  407012:	test   ebx,ebx
  407014:	je     0x407026
  407016:	test   esi,esi
  407018:	je     0x40701c
  40701a:	mov    edi,esi
  40701c:	mov    ecx,DWORD PTR [ebp+0x8]
  40701f:	mov    edx,edi
  407021:	call   0x408a78
  407026:	mov    ecx,DWORD PTR [esp+0x18]
  40702a:	call   0x40baea
  40702f:	push   0x0
  407031:	push   esi
  407032:	push   0x8
  407034:	mov    edx,0x40180c
  407039:	pop    ecx
  40703a:	call   0x406502
  40703f:	mov    ecx,DWORD PTR [esp+0x2c]
  407043:	pop    edi
  407044:	pop    esi
  407045:	pop    ebx
  407046:	xor    ecx,esp
  407048:	call   0x4101d0
  40704d:	mov    esp,ebp
  40704f:	pop    ebp
  407050:	ret    0x1c
  407053:	int3   
  407054:	int3   
  407055:	int3   
  407056:	int3   
  407057:	int3   
  407058:	int3   
  407059:	int3   
  40705a:	int3   
  40705b:	int3   
  40705c:	int3   
  40705d:	int3   
  40705e:	int3   
  40705f:	int3   
  407060:	mov    edi,edi
  407062:	push   ebp
  407063:	mov    ebp,esp
  407065:	and    esp,0xfffffff8
  407068:	sub    esp,0x44
  40706b:	mov    eax,ds:0x411004
  407070:	xor    eax,esp
  407072:	mov    DWORD PTR [esp+0x40],eax
  407076:	xor    eax,eax
  407078:	mov    DWORD PTR [esp],0x10001
  40707f:	push   ebx
  407080:	push   esi
  407081:	push   edi
  407082:	push   eax
  407083:	push   eax
  407084:	push   0x7
  407086:	mov    edi,eax
  407088:	mov    DWORD PTR [esp+0x2c],eax
  40708c:	mov    edx,0x401820
  407091:	mov    DWORD PTR [esp+0x20],eax
  407095:	pop    ecx
  407096:	mov    DWORD PTR [esp+0x4c],eax
  40709a:	mov    ebx,eax
  40709c:	mov    DWORD PTR [esp+0x50],eax
  4070a0:	mov    DWORD PTR [esp+0x18],eax
  4070a4:	mov    DWORD PTR [esp+0x20],edi
  4070a8:	mov    DWORD PTR [esp+0x40],eax
  4070ac:	mov    DWORD PTR [esp+0x44],eax
  4070b0:	mov    DWORD PTR [esp+0x3c],eax
  4070b4:	mov    DWORD PTR [esp+0x2c],eax
  4070b8:	mov    DWORD PTR [esp+0x24],0x1
  4070c0:	mov    DWORD PTR [esp+0x34],eax
  4070c4:	mov    DWORD PTR [esp+0x38],eax
  4070c8:	mov    DWORD PTR [esp+0x30],eax
  4070cc:	call   0x406502
  4070d1:	lea    ecx,[esp+0x2c]
  4070d5:	call   0x40b9d4
  4070da:	mov    esi,eax
  4070dc:	test   esi,esi
  4070de:	jne    0x407213
  4070e4:	mov    ecx,DWORD PTR [ebp+0x24]
  4070e7:	xor    edx,edx
  4070e9:	mov    eax,DWORD PTR [esp+0xc]
  4070ed:	mov    DWORD PTR [ecx],eax
  4070ef:	lea    eax,[esp+0x30]
  4070f3:	mov    ecx,DWORD PTR [ebp+0x10]
  4070f6:	push   eax
  4070f7:	push   esi
  4070f8:	lea    eax,[esp+0x28]
  4070fc:	push   eax
  4070fd:	call   0x402bf0
  407102:	mov    esi,eax
  407104:	test   esi,esi
  407106:	jne    0x407213
  40710c:	mov    ecx,DWORD PTR [ebp+0x14]
  40710f:	lea    edx,[esp+0x10]
  407113:	call   0x40bd74
  407118:	mov    esi,eax
  40711a:	test   esi,esi
  40711c:	jne    0x407213
  407122:	mov    ecx,DWORD PTR [ebp+0x18]
  407125:	lea    edx,[esp+0x14]
  407129:	call   0x40c0d5
  40712e:	mov    esi,eax
  407130:	test   esi,esi
  407132:	jne    0x407213
  407138:	mov    ecx,DWORD PTR [ebp+0x1c]
  40713b:	lea    edx,[esp+0x44]
  40713f:	call   0x40c155
  407144:	mov    esi,eax
  407146:	test   esi,esi
  407148:	jne    0x407213
  40714e:	mov    ecx,DWORD PTR [ebp+0x20]
  407151:	lea    edx,[esp+0x18]
  407155:	call   0x40be8a
  40715a:	mov    esi,eax
  40715c:	test   esi,esi
  40715e:	jne    0x40720f
  407164:	lea    eax,[esp+0x38]
  407168:	push   eax
  407169:	lea    eax,[esp+0x38]
  40716d:	push   eax
  40716e:	push   DWORD PTR [ebp+0x8]
  407171:	lea    eax,[esp+0x34]
  407175:	push   eax
  407176:	lea    edx,[esp+0x34]
  40717a:	call   0x408bc1
  40717f:	mov    esi,eax
  407181:	test   esi,esi
  407183:	jne    0x40720f
  407189:	push   eax
  40718a:	push   eax
  40718b:	mov    edx,0x401820
  407190:	mov    DWORD PTR [esp+0x24],eax
  407194:	xor    ecx,ecx
  407196:	call   0x406502
  40719b:	mov    eax,DWORD PTR [esp+0x28]
  40719f:	mov    edi,DWORD PTR [esp+0x18]
  4071a3:	mov    esi,DWORD PTR [eax+0x20]
  4071a6:	test   esi,esi
  4071a8:	je     0x4071d0
  4071aa:	lea    eax,[esp+0xc]
  4071ae:	mov    ecx,esi
  4071b0:	push   eax
  4071b1:	push   edi
  4071b2:	lea    eax,[esp+0x4c]
  4071b6:	push   eax
  4071b7:	lea    eax,[esp+0x20]
  4071bb:	push   eax
  4071bc:	push   DWORD PTR [esp+0x20]
  4071c0:	push   DWORD PTR [esp+0x34]
  4071c4:	call   DWORD PTR ds:0x41221c
  4071ca:	call   esi
  4071cc:	mov    ebx,eax
  4071ce:	jmp    0x4071d3
  4071d0:	push   0x78
  4071d2:	pop    ebx
  4071d3:	push   DWORD PTR [esp+0xc]
  4071d7:	mov    edx,0x401820
  4071dc:	push   ebx
  4071dd:	push   0x3
  4071df:	pop    ecx
  4071e0:	call   0x406502
  4071e5:	push   DWORD PTR [esp+0x3c]
  4071e9:	mov    ecx,DWORD PTR [esp+0x38]
  4071ed:	push   DWORD PTR [esp+0x3c]
  4071f1:	call   0x408dbc
  4071f6:	mov    esi,eax
  4071f8:	test   esi,esi
  4071fa:	jne    0x407213
  4071fc:	mov    ecx,DWORD PTR [ebp+0x24]
  4071ff:	mov    eax,DWORD PTR [esp+0xc]
  407203:	mov    DWORD PTR [esp+0x1c],0x1
  40720b:	mov    DWORD PTR [ecx],eax
  40720d:	jmp    0x407213
  40720f:	mov    edi,DWORD PTR [esp+0x18]
  407213:	mov    ecx,DWORD PTR [esp+0x10]
  407217:	call   0x40be54
  40721c:	test   edi,edi
  40721e:	je     0x40722e
  407220:	push   DWORD PTR [edi+0x4]
  407223:	call   0x40a080
  407228:	push   edi
  407229:	call   0x40a080
  40722e:	lea    ecx,[esp+0x14]
  407232:	call   0x40bf30
  407237:	lea    ecx,[esp+0x44]
  40723b:	call   0x40bfab
  407240:	mov    edx,DWORD PTR [esp+0x30]
  407244:	mov    ecx,DWORD PTR [ebp+0x10]
  407247:	call   0x402cf9
  40724c:	lea    ecx,[esp+0x24]
  407250:	call   0x405924
  407255:	cmp    DWORD PTR [esp+0x1c],0x0
  40725a:	je     0x40726c
  40725c:	test   esi,esi
  40725e:	je     0x407262
  407260:	mov    ebx,esi
  407262:	mov    ecx,DWORD PTR [ebp+0x8]
  407265:	mov    edx,ebx
  407267:	call   0x408a78
  40726c:	mov    ecx,DWORD PTR [esp+0x2c]
  407270:	call   0x40baea
  407275:	push   0x0
  407277:	push   esi
  407278:	push   0x8
  40727a:	mov    edx,0x401820
  40727f:	pop    ecx
  407280:	call   0x406502
  407285:	mov    ecx,DWORD PTR [esp+0x4c]
  407289:	pop    edi
  40728a:	pop    esi
  40728b:	pop    ebx
  40728c:	xor    ecx,esp
  40728e:	call   0x4101d0
  407293:	mov    esp,ebp
  407295:	pop    ebp
  407296:	ret    0x20
  407299:	int3   
  40729a:	int3   
  40729b:	int3   
  40729c:	int3   
  40729d:	int3   
  40729e:	int3   
  40729f:	int3   
  4072a0:	mov    edi,edi
  4072a2:	push   ebp
  4072a3:	mov    ebp,esp
  4072a5:	and    esp,0xfffffff8
  4072a8:	sub    esp,0x44
  4072ab:	mov    eax,ds:0x411004
  4072b0:	xor    eax,esp
  4072b2:	mov    DWORD PTR [esp+0x40],eax
  4072b6:	xor    eax,eax
  4072b8:	mov    DWORD PTR [esp+0x4],0x10001
  4072c0:	push   ebx
  4072c1:	push   esi
  4072c2:	push   edi
  4072c3:	push   eax
  4072c4:	push   eax
  4072c5:	push   0x7
  4072c7:	mov    ebx,eax
  4072c9:	mov    DWORD PTR [esp+0x2c],eax
  4072cd:	mov    edx,0x401838
  4072d2:	mov    DWORD PTR [esp+0x24],eax
  4072d6:	pop    ecx
  4072d7:	mov    DWORD PTR [esp+0x4c],eax
  4072db:	mov    edi,eax
  4072dd:	mov    DWORD PTR [esp+0x50],eax
  4072e1:	mov    DWORD PTR [esp+0x1c],ebx
  4072e5:	mov    DWORD PTR [esp+0x40],eax
  4072e9:	mov    DWORD PTR [esp+0x44],eax
  4072ed:	mov    DWORD PTR [esp+0x3c],eax
  4072f1:	mov    DWORD PTR [esp+0x2c],eax
  4072f5:	mov    DWORD PTR [esp+0x24],0x1
  4072fd:	mov    DWORD PTR [esp+0x34],eax
  407301:	mov    DWORD PTR [esp+0x38],eax
  407305:	mov    DWORD PTR [esp+0x30],eax
  407309:	call   0x406502
  40730e:	lea    ecx,[esp+0x2c]
  407312:	call   0x40b9d4
  407317:	mov    esi,eax
  407319:	test   esi,esi
  40731b:	jne    0x407436
  407321:	mov    ecx,DWORD PTR [ebp+0x20]
  407324:	xor    edx,edx
  407326:	mov    eax,DWORD PTR [esp+0x10]
  40732a:	mov    DWORD PTR [ecx],eax
  40732c:	lea    eax,[esp+0x30]
  407330:	mov    ecx,DWORD PTR [ebp+0x10]
  407333:	push   eax
  407334:	push   esi
  407335:	lea    eax,[esp+0x28]
  407339:	push   eax
  40733a:	call   0x402bf0
  40733f:	mov    esi,eax
  407341:	test   esi,esi
  407343:	jne    0x407436
  407349:	mov    ecx,DWORD PTR [ebp+0x14]
  40734c:	lea    edx,[esp+0x14]
  407350:	call   0x40bd74
  407355:	mov    esi,eax
  407357:	test   esi,esi
  407359:	jne    0x407432
  40735f:	mov    ecx,DWORD PTR [ebp+0x18]
  407362:	lea    edx,[esp+0x18]
  407366:	call   0x40c0d5
  40736b:	mov    esi,eax
  40736d:	test   esi,esi
  40736f:	jne    0x407432
  407375:	mov    ecx,DWORD PTR [ebp+0x1c]
  407378:	lea    edx,[esp+0x44]
  40737c:	call   0x40c155
  407381:	mov    esi,eax
  407383:	test   esi,esi
  407385:	jne    0x407432
  40738b:	lea    eax,[esp+0x38]
  40738f:	push   eax
  407390:	lea    eax,[esp+0x38]
  407394:	push   eax
  407395:	push   DWORD PTR [ebp+0x8]
  407398:	lea    eax,[esp+0x34]
  40739c:	push   eax
  40739d:	lea    edx,[esp+0x34]
  4073a1:	call   0x408bc1
  4073a6:	mov    esi,eax
  4073a8:	test   esi,esi
  4073aa:	jne    0x407432
  4073b0:	push   eax
  4073b1:	push   eax
  4073b2:	mov    edx,0x401838
  4073b7:	mov    DWORD PTR [esp+0x24],eax
  4073bb:	xor    ecx,ecx
  4073bd:	call   0x406502
  4073c2:	mov    eax,DWORD PTR [esp+0x28]
  4073c6:	mov    ebx,DWORD PTR [esp+0x14]
  4073ca:	mov    esi,DWORD PTR [eax+0x1c]
  4073cd:	test   esi,esi
  4073cf:	je     0x4073f3
  4073d1:	lea    eax,[esp+0x10]
  4073d5:	mov    ecx,esi
  4073d7:	push   eax
  4073d8:	lea    eax,[esp+0x48]
  4073dc:	push   eax
  4073dd:	lea    eax,[esp+0x20]
  4073e1:	push   eax
  4073e2:	push   ebx
  4073e3:	push   DWORD PTR [esp+0x30]
  4073e7:	call   DWORD PTR ds:0x41221c
  4073ed:	call   esi
  4073ef:	mov    edi,eax
  4073f1:	jmp    0x4073f6
  4073f3:	push   0x78
  4073f5:	pop    edi
  4073f6:	push   DWORD PTR [esp+0x10]
  4073fa:	mov    edx,0x401838
  4073ff:	push   edi
  407400:	push   0x3
  407402:	pop    ecx
  407403:	call   0x406502
  407408:	push   DWORD PTR [esp+0x3c]
  40740c:	mov    ecx,DWORD PTR [esp+0x38]
  407410:	push   DWORD PTR [esp+0x3c]
  407414:	call   0x408dbc
  407419:	mov    esi,eax
  40741b:	test   esi,esi
  40741d:	jne    0x407436
  40741f:	mov    ecx,DWORD PTR [ebp+0x20]
  407422:	mov    eax,DWORD PTR [esp+0x10]
  407426:	mov    DWORD PTR [esp+0x1c],0x1
  40742e:	mov    DWORD PTR [ecx],eax
  407430:	jmp    0x407436
  407432:	mov    ebx,DWORD PTR [esp+0x14]
  407436:	lea    ecx,[esp+0x18]
  40743a:	call   0x40bf30
  40743f:	lea    ecx,[esp+0x44]
  407443:	call   0x40bfab
  407448:	mov    ecx,ebx
  40744a:	call   0x40be54
  40744f:	mov    edx,DWORD PTR [esp+0x30]
  407453:	mov    ecx,DWORD PTR [ebp+0x10]
  407456:	call   0x402cf9
  40745b:	lea    ecx,[esp+0x24]
  40745f:	call   0x405924
  407464:	cmp    DWORD PTR [esp+0x1c],0x0
  407469:	je     0x40747b
  40746b:	test   esi,esi
  40746d:	je     0x407471
  40746f:	mov    edi,esi
  407471:	mov    ecx,DWORD PTR [ebp+0x8]
  407474:	mov    edx,edi
  407476:	call   0x408a78
  40747b:	mov    ecx,DWORD PTR [esp+0x2c]
  40747f:	call   0x40baea
  407484:	push   0x0
  407486:	push   esi
  407487:	push   0x8
  407489:	mov    edx,0x401838
  40748e:	pop    ecx
  40748f:	call   0x406502
  407494:	mov    ecx,DWORD PTR [esp+0x4c]
  407498:	pop    edi
  407499:	pop    esi
  40749a:	pop    ebx
  40749b:	xor    ecx,esp
  40749d:	call   0x4101d0
  4074a2:	mov    esp,ebp
  4074a4:	pop    ebp
  4074a5:	ret    0x1c
  4074a8:	int3   
  4074a9:	int3   
  4074aa:	int3   
  4074ab:	int3   
  4074ac:	int3   
  4074ad:	int3   
  4074ae:	int3   
  4074af:	int3   
  4074b0:	mov    edi,edi
  4074b2:	push   ebp
  4074b3:	mov    ebp,esp
  4074b5:	and    esp,0xfffffff8
  4074b8:	sub    esp,0x44
  4074bb:	mov    eax,ds:0x411004
  4074c0:	xor    eax,esp
  4074c2:	mov    DWORD PTR [esp+0x40],eax
  4074c6:	xor    eax,eax
  4074c8:	mov    DWORD PTR [esp],0x10001
  4074cf:	push   ebx
  4074d0:	push   esi
  4074d1:	push   edi
  4074d2:	push   eax
  4074d3:	push   eax
  4074d4:	push   0x7
  4074d6:	mov    edi,eax
  4074d8:	mov    DWORD PTR [esp+0x2c],eax
  4074dc:	mov    edx,0x401848
  4074e1:	mov    DWORD PTR [esp+0x20],eax
  4074e5:	pop    ecx
  4074e6:	mov    DWORD PTR [esp+0x4c],eax
  4074ea:	mov    ebx,eax
  4074ec:	mov    DWORD PTR [esp+0x50],eax
  4074f0:	mov    DWORD PTR [esp+0x18],eax
  4074f4:	mov    DWORD PTR [esp+0x20],edi
  4074f8:	mov    DWORD PTR [esp+0x40],eax
  4074fc:	mov    DWORD PTR [esp+0x44],eax
  407500:	mov    DWORD PTR [esp+0x3c],eax
  407504:	mov    DWORD PTR [esp+0x2c],eax
  407508:	mov    DWORD PTR [esp+0x24],0x1
  407510:	mov    DWORD PTR [esp+0x34],eax
  407514:	mov    DWORD PTR [esp+0x38],eax
  407518:	mov    DWORD PTR [esp+0x30],eax
  40751c:	call   0x406502
  407521:	lea    ecx,[esp+0x2c]
  407525:	call   0x40b9d4
  40752a:	mov    esi,eax
  40752c:	test   esi,esi
  40752e:	jne    0x407666
  407534:	mov    ecx,DWORD PTR [ebp+0x28]
  407537:	xor    edx,edx
  407539:	mov    eax,DWORD PTR [esp+0xc]
  40753d:	mov    DWORD PTR [ecx],eax
  40753f:	lea    eax,[esp+0x30]
  407543:	mov    ecx,DWORD PTR [ebp+0x10]
  407546:	push   eax
  407547:	push   esi
  407548:	lea    eax,[esp+0x28]
  40754c:	push   eax
  40754d:	call   0x402bf0
  407552:	mov    esi,eax
  407554:	test   esi,esi
  407556:	jne    0x407666
  40755c:	mov    ecx,DWORD PTR [ebp+0x18]
  40755f:	lea    edx,[esp+0x10]
  407563:	call   0x40bd74
  407568:	mov    esi,eax
  40756a:	test   esi,esi
  40756c:	jne    0x407666
  407572:	mov    ecx,DWORD PTR [ebp+0x1c]
  407575:	lea    edx,[esp+0x14]
  407579:	call   0x40c0d5
  40757e:	mov    esi,eax
  407580:	test   esi,esi
  407582:	jne    0x407666
  407588:	mov    ecx,DWORD PTR [ebp+0x20]
  40758b:	lea    edx,[esp+0x44]
  40758f:	call   0x40c155
  407594:	mov    esi,eax
  407596:	test   esi,esi
  407598:	jne    0x407666
  40759e:	mov    ecx,DWORD PTR [ebp+0x24]
  4075a1:	lea    edx,[esp+0x18]
  4075a5:	call   0x40be8a
  4075aa:	mov    esi,eax
  4075ac:	test   esi,esi
  4075ae:	jne    0x407662
  4075b4:	lea    eax,[esp+0x38]
  4075b8:	push   eax
  4075b9:	lea    eax,[esp+0x38]
  4075bd:	push   eax
  4075be:	push   DWORD PTR [ebp+0x8]
  4075c1:	lea    eax,[esp+0x34]
  4075c5:	push   eax
  4075c6:	lea    edx,[esp+0x34]
  4075ca:	call   0x408bc1
  4075cf:	mov    esi,eax
  4075d1:	test   esi,esi
  4075d3:	jne    0x407662
  4075d9:	push   eax
  4075da:	push   eax
  4075db:	mov    edx,0x401848
  4075e0:	mov    DWORD PTR [esp+0x24],eax
  4075e4:	xor    ecx,ecx
  4075e6:	call   0x406502
  4075eb:	mov    eax,DWORD PTR [esp+0x28]
  4075ef:	mov    edi,DWORD PTR [esp+0x18]
  4075f3:	mov    esi,DWORD PTR [eax+0xc]
  4075f6:	test   esi,esi
  4075f8:	je     0x407623
  4075fa:	lea    eax,[esp+0xc]
  4075fe:	mov    ecx,esi
  407600:	push   eax
  407601:	push   edi
  407602:	lea    eax,[esp+0x4c]
  407606:	push   eax
  407607:	lea    eax,[esp+0x20]
  40760b:	push   eax
  40760c:	push   DWORD PTR [esp+0x20]
  407610:	push   DWORD PTR [ebp+0x14]
  407613:	push   DWORD PTR [esp+0x38]
  407617:	call   DWORD PTR ds:0x41221c
  40761d:	call   esi
  40761f:	mov    ebx,eax
  407621:	jmp    0x407626
  407623:	push   0x78
  407625:	pop    ebx
  407626:	push   DWORD PTR [esp+0xc]
  40762a:	mov    edx,0x401848
  40762f:	push   ebx
  407630:	push   0x3
  407632:	pop    ecx
  407633:	call   0x406502
  407638:	push   DWORD PTR [esp+0x3c]
  40763c:	mov    ecx,DWORD PTR [esp+0x38]
  407640:	push   DWORD PTR [esp+0x3c]
  407644:	call   0x408dbc
  407649:	mov    esi,eax
  40764b:	test   esi,esi
  40764d:	jne    0x407666
  40764f:	mov    ecx,DWORD PTR [ebp+0x28]
  407652:	mov    eax,DWORD PTR [esp+0xc]
  407656:	mov    DWORD PTR [esp+0x1c],0x1
  40765e:	mov    DWORD PTR [ecx],eax
  407660:	jmp    0x407666
  407662:	mov    edi,DWORD PTR [esp+0x18]
  407666:	mov    ecx,DWORD PTR [esp+0x10]
  40766a:	call   0x40be54
  40766f:	test   edi,edi
  407671:	je     0x407681
  407673:	push   DWORD PTR [edi+0x4]
  407676:	call   0x40a080
  40767b:	push   edi
  40767c:	call   0x40a080
  407681:	lea    ecx,[esp+0x14]
  407685:	call   0x40bf30
  40768a:	lea    ecx,[esp+0x44]
  40768e:	call   0x40bfab
  407693:	mov    edx,DWORD PTR [esp+0x30]
  407697:	mov    ecx,DWORD PTR [ebp+0x10]
  40769a:	call   0x402cf9
  40769f:	lea    ecx,[esp+0x24]
  4076a3:	call   0x405924
  4076a8:	cmp    DWORD PTR [esp+0x1c],0x0
  4076ad:	je     0x4076bf
  4076af:	test   esi,esi
  4076b1:	je     0x4076b5
  4076b3:	mov    ebx,esi
  4076b5:	mov    ecx,DWORD PTR [ebp+0x8]
  4076b8:	mov    edx,ebx
  4076ba:	call   0x408a78
  4076bf:	mov    ecx,DWORD PTR [esp+0x2c]
  4076c3:	call   0x40baea
  4076c8:	push   0x0
  4076ca:	push   esi
  4076cb:	push   0x8
  4076cd:	mov    edx,0x401848
  4076d2:	pop    ecx
  4076d3:	call   0x406502
  4076d8:	mov    ecx,DWORD PTR [esp+0x4c]
  4076dc:	pop    edi
  4076dd:	pop    esi
  4076de:	pop    ebx
  4076df:	xor    ecx,esp
  4076e1:	call   0x4101d0
  4076e6:	mov    esp,ebp
  4076e8:	pop    ebp
  4076e9:	ret    0x24
  4076ec:	int3   
  4076ed:	int3   
  4076ee:	int3   
  4076ef:	int3   
  4076f0:	int3   
  4076f1:	int3   
  4076f2:	int3   
  4076f3:	int3   
  4076f4:	int3   
  4076f5:	int3   
  4076f6:	int3   
  4076f7:	int3   
  4076f8:	int3   
  4076f9:	int3   
  4076fa:	int3   
  4076fb:	int3   
  4076fc:	int3   
  4076fd:	int3   
  4076fe:	int3   
  4076ff:	int3   
  407700:	mov    edi,edi
  407702:	push   ebp
  407703:	mov    ebp,esp
  407705:	and    esp,0xfffffff8
  407708:	sub    esp,0x2c
  40770b:	mov    eax,ds:0x411004
  407710:	xor    eax,esp
  407712:	mov    DWORD PTR [esp+0x28],eax
  407716:	push   ebx
  407717:	xor    eax,eax
  407719:	xor    ebx,ebx
  40771b:	push   esi
  40771c:	push   edi
  40771d:	push   eax
  40771e:	push   eax
  40771f:	push   0x7
  407721:	mov    edx,0x40185c
  407726:	mov    DWORD PTR [esp+0x30],eax
  40772a:	pop    ecx
  40772b:	mov    DWORD PTR [esp+0x30],eax
  40772f:	mov    edi,eax
  407731:	mov    DWORD PTR [esp+0x34],eax
  407735:	inc    ebx
  407736:	mov    DWORD PTR [esp+0x24],eax
  40773a:	mov    DWORD PTR [esp+0x20],eax
  40773e:	mov    DWORD PTR [esp+0x28],eax
  407742:	mov    DWORD PTR [esp+0x18],eax
  407746:	mov    DWORD PTR [esp+0x1c],eax
  40774a:	call   0x406502
  40774f:	lea    ecx,[esp+0x20]
  407753:	call   0x40b9d4
  407758:	mov    esi,eax
  40775a:	test   esi,esi
  40775c:	jne    0x4077f8
  407762:	mov    ecx,DWORD PTR [ebp+0x10]
  407765:	lea    eax,[esp+0x10]
  407769:	push   eax
  40776a:	push   esi
  40776b:	lea    eax,[esp+0x2c]
  40776f:	xor    edx,edx
  407771:	push   eax
  407772:	call   0x402bf0
  407777:	mov    esi,eax
  407779:	test   esi,esi
  40777b:	jne    0x4077f8
  40777d:	lea    eax,[esp+0x28]
  407781:	push   eax
  407782:	lea    eax,[esp+0x20]
  407786:	push   eax
  407787:	push   DWORD PTR [ebp+0x8]
  40778a:	lea    eax,[esp+0x20]
  40778e:	push   eax
  40778f:	lea    edx,[esp+0x28]
  407793:	call   0x408bc1
  407798:	mov    esi,eax
  40779a:	test   esi,esi
  40779c:	jne    0x4077f8
  40779e:	xor    ebx,ebx
  4077a0:	mov    edx,0x40185c
  4077a5:	push   ebx
  4077a6:	push   ebx
  4077a7:	xor    ecx,ecx
  4077a9:	call   0x406502
  4077ae:	mov    eax,DWORD PTR [esp+0x14]
  4077b2:	mov    esi,DWORD PTR [eax+0x10]
  4077b5:	test   esi,esi
  4077b7:	je     0x4077cb
  4077b9:	push   DWORD PTR [esp+0x24]
  4077bd:	mov    ecx,esi
  4077bf:	call   DWORD PTR ds:0x41221c
  4077c5:	call   esi
  4077c7:	mov    edi,eax
  4077c9:	jmp    0x4077ce
  4077cb:	push   0x78
  4077cd:	pop    edi
  4077ce:	push   0x0
  4077d0:	push   edi
  4077d1:	push   0x2
  4077d3:	mov    edx,0x40185c
  4077d8:	pop    ecx
  4077d9:	call   0x406502
  4077de:	push   DWORD PTR [esp+0x2c]
  4077e2:	mov    ecx,DWORD PTR [esp+0x20]
  4077e6:	push   DWORD PTR [esp+0x2c]
  4077ea:	call   0x408dbc
  4077ef:	mov    esi,eax
  4077f1:	test   esi,esi
  4077f3:	jne    0x4077f8
  4077f5:	xor    ebx,ebx
  4077f7:	inc    ebx
  4077f8:	mov    edx,DWORD PTR [esp+0x10]
  4077fc:	mov    ecx,DWORD PTR [ebp+0x10]
  4077ff:	call   0x402cf9
  407804:	lea    ecx,[esp+0x18]
  407808:	call   0x405924
  40780d:	test   ebx,ebx
  40780f:	je     0x407821
  407811:	test   esi,esi
  407813:	je     0x407817
  407815:	mov    edi,esi
  407817:	mov    ecx,DWORD PTR [ebp+0x8]
  40781a:	mov    edx,edi
  40781c:	call   0x408a78
  407821:	mov    ecx,DWORD PTR [esp+0x20]
  407825:	call   0x40baea
  40782a:	push   0x0
  40782c:	push   esi
  40782d:	push   0x8
  40782f:	mov    edx,0x40185c
  407834:	pop    ecx
  407835:	call   0x406502
  40783a:	mov    ecx,DWORD PTR [esp+0x34]
  40783e:	pop    edi
  40783f:	pop    esi
  407840:	pop    ebx
  407841:	xor    ecx,esp
  407843:	call   0x4101d0
  407848:	mov    esp,ebp
  40784a:	pop    ebp
  40784b:	ret    0xc
  40784e:	int3   
  40784f:	int3   
  407850:	int3   
  407851:	int3   
  407852:	int3   
  407853:	int3   
  407854:	int3   
  407855:	int3   
  407856:	int3   
  407857:	int3   
  407858:	int3   
  407859:	int3   
  40785a:	int3   
  40785b:	int3   
  40785c:	int3   
  40785d:	int3   
  40785e:	int3   
  40785f:	int3   
  407860:	mov    edi,edi
  407862:	push   ebp
  407863:	mov    ebp,esp
  407865:	and    esp,0xfffffff8
  407868:	sub    esp,0x44
  40786b:	mov    eax,ds:0x411004
  407870:	xor    eax,esp
  407872:	mov    DWORD PTR [esp+0x40],eax
  407876:	xor    eax,eax
  407878:	mov    DWORD PTR [esp+0x4],0x10001
  407880:	push   ebx
  407881:	push   esi
  407882:	push   edi
  407883:	push   eax
  407884:	push   eax
  407885:	push   0x7
  407887:	mov    edi,eax
  407889:	mov    DWORD PTR [esp+0x34],eax
  40788d:	mov    edx,0x40186c
  407892:	mov    DWORD PTR [esp+0x20],eax
  407896:	pop    ecx
  407897:	mov    DWORD PTR [esp+0x2c],edi
  40789b:	mov    ebx,eax
  40789d:	mov    DWORD PTR [esp+0x24],eax
  4078a1:	mov    DWORD PTR [esp+0x28],eax
  4078a5:	mov    DWORD PTR [esp+0x48],eax
  4078a9:	mov    DWORD PTR [esp+0x4c],eax
  4078ad:	mov    DWORD PTR [esp+0x44],eax
  4078b1:	mov    DWORD PTR [esp+0x34],eax
  4078b5:	mov    DWORD PTR [esp+0x20],0x1
  4078bd:	mov    DWORD PTR [esp+0x38],eax
  4078c1:	mov    DWORD PTR [esp+0x3c],eax
  4078c5:	mov    DWORD PTR [esp+0x40],eax
  4078c9:	call   0x406502
  4078ce:	lea    ecx,[esp+0x30]
  4078d2:	call   0x40b9d4
  4078d7:	mov    esi,eax
  4078d9:	test   esi,esi
  4078db:	jne    0x407a0c
  4078e1:	mov    ecx,DWORD PTR [ebp+0x24]
  4078e4:	mov    eax,DWORD PTR [esp+0x10]
  4078e8:	push   0x8
  4078ea:	mov    DWORD PTR [ecx],eax
  4078ec:	mov    eax,DWORD PTR [ebp+0x20]
  4078ef:	pop    ecx
  4078f0:	mov    BYTE PTR [eax],bl
  4078f2:	inc    eax
  4078f3:	sub    ecx,0x1
  4078f6:	jne    0x4078f0
  4078f8:	lea    eax,[esp+0x34]
  4078fc:	xor    edx,edx
  4078fe:	push   eax
  4078ff:	push   ecx
  407900:	mov    ecx,DWORD PTR [ebp+0x10]
  407903:	lea    eax,[esp+0x30]
  407907:	push   eax
  407908:	call   0x402bf0
  40790d:	mov    esi,eax
  40790f:	test   esi,esi
  407911:	jne    0x407a0c
  407917:	mov    ecx,DWORD PTR [ebp+0x18]
  40791a:	lea    edx,[esp+0x14]
  40791e:	call   0x40bd74
  407923:	mov    esi,eax
  407925:	test   esi,esi
  407927:	jne    0x407a0c
  40792d:	mov    ecx,DWORD PTR [ebp+0x1c]
  407930:	lea    edx,[esp+0x24]
  407934:	call   0x40be8a
  407939:	mov    esi,eax
  40793b:	test   esi,esi
  40793d:	jne    0x407a08
  407943:	lea    eax,[esp+0x40]
  407947:	push   eax
  407948:	lea    eax,[esp+0x40]
  40794c:	push   eax
  40794d:	push   DWORD PTR [ebp+0x8]
  407950:	lea    eax,[esp+0x44]
  407954:	push   eax
  407955:	lea    edx,[esp+0x3c]
  407959:	call   0x408bc1
  40795e:	mov    esi,eax
  407960:	test   esi,esi
  407962:	jne    0x407a08
  407968:	push   eax
  407969:	push   eax
  40796a:	mov    edx,0x40186c
  40796f:	mov    DWORD PTR [esp+0x20],eax
  407973:	xor    ecx,ecx
  407975:	call   0x406502
  40797a:	mov    eax,DWORD PTR [esp+0x38]
  40797e:	mov    edi,DWORD PTR [esp+0x24]
  407982:	mov    esi,DWORD PTR [eax+0x24]
  407985:	test   esi,esi
  407987:	je     0x4079ad
  407989:	lea    eax,[esp+0x10]
  40798d:	mov    ecx,esi
  40798f:	push   eax
  407990:	lea    eax,[esp+0x20]
  407994:	push   eax
  407995:	push   edi
  407996:	push   DWORD PTR [esp+0x20]
  40799a:	push   DWORD PTR [ebp+0x14]
  40799d:	push   DWORD PTR [esp+0x3c]
  4079a1:	call   DWORD PTR ds:0x41221c
  4079a7:	call   esi
  4079a9:	mov    ebx,eax
  4079ab:	jmp    0x4079b0
  4079ad:	push   0x78
  4079af:	pop    ebx
  4079b0:	push   DWORD PTR [esp+0x10]
  4079b4:	mov    edx,0x40186c
  4079b9:	push   ebx
  4079ba:	push   0x3
  4079bc:	pop    ecx
  4079bd:	call   0x406502
  4079c2:	push   DWORD PTR [esp+0x44]
  4079c6:	mov    ecx,DWORD PTR [esp+0x40]
  4079ca:	push   DWORD PTR [esp+0x44]
  4079ce:	call   0x408dbc
  4079d3:	mov    esi,eax
  4079d5:	test   esi,esi
  4079d7:	jne    0x407a0c
  4079d9:	mov    ecx,DWORD PTR [ebp+0x24]
  4079dc:	mov    eax,DWORD PTR [esp+0x10]
  4079e0:	mov    DWORD PTR [esp+0x18],0x1
  4079e8:	mov    DWORD PTR [ecx],eax
  4079ea:	test   ebx,ebx
  4079ec:	jne    0x407a0c
  4079ee:	mov    ecx,DWORD PTR [ebp+0x20]
  4079f1:	mov    eax,DWORD PTR [esp+0x1c]
  4079f5:	and    DWORD PTR [esp+0x1c],ebx
  4079f9:	mov    DWORD PTR [ecx],eax
  4079fb:	mov    eax,DWORD PTR [esp+0x20]
  4079ff:	and    DWORD PTR [esp+0x20],ebx
  407a03:	mov    DWORD PTR [ecx+0x4],eax
  407a06:	jmp    0x407a0c
  407a08:	mov    edi,DWORD PTR [esp+0x24]
  407a0c:	lea    ecx,[esp+0x1c]
  407a10:	call   0x40c026
  407a15:	mov    ecx,DWORD PTR [esp+0x14]
  407a19:	call   0x40be54
  407a1e:	test   edi,edi
  407a20:	je     0x407a30
  407a22:	push   DWORD PTR [edi+0x4]
  407a25:	call   0x40a080
  407a2a:	push   edi
  407a2b:	call   0x40a080
  407a30:	mov    edx,DWORD PTR [esp+0x34]
  407a34:	mov    ecx,DWORD PTR [ebp+0x10]
  407a37:	call   0x402cf9
  407a3c:	lea    ecx,[esp+0x2c]
  407a40:	call   0x405924
  407a45:	cmp    DWORD PTR [esp+0x18],0x0
  407a4a:	je     0x407a5c
  407a4c:	test   esi,esi
  407a4e:	je     0x407a52
  407a50:	mov    ebx,esi
  407a52:	mov    ecx,DWORD PTR [ebp+0x8]
  407a55:	mov    edx,ebx
  407a57:	call   0x408a78
  407a5c:	mov    ecx,DWORD PTR [esp+0x30]
  407a60:	call   0x40baea
  407a65:	push   0x0
  407a67:	push   esi
  407a68:	push   0x8
  407a6a:	mov    edx,0x40186c
  407a6f:	pop    ecx
  407a70:	call   0x406502
  407a75:	mov    ecx,DWORD PTR [esp+0x4c]
  407a79:	pop    edi
  407a7a:	pop    esi
  407a7b:	pop    ebx
  407a7c:	xor    ecx,esp
  407a7e:	call   0x4101d0
  407a83:	mov    esp,ebp
  407a85:	pop    ebp
  407a86:	ret    0x20
  407a89:	int3   
  407a8a:	int3   
  407a8b:	int3   
  407a8c:	int3   
  407a8d:	int3   
  407a8e:	int3   
  407a8f:	int3   
  407a90:	mov    edi,edi
  407a92:	push   ebp
  407a93:	mov    ebp,esp
  407a95:	and    esp,0xfffffff8
  407a98:	sub    esp,0x2c
  407a9b:	mov    eax,ds:0x411004
  407aa0:	xor    eax,esp
  407aa2:	mov    DWORD PTR [esp+0x28],eax
  407aa6:	push   ebx
  407aa7:	xor    eax,eax
  407aa9:	mov    DWORD PTR [esp+0xc],0x1
  407ab1:	push   esi
  407ab2:	push   edi
  407ab3:	push   eax
  407ab4:	push   eax
  407ab5:	push   0x7
  407ab7:	mov    ebx,eax
  407ab9:	mov    DWORD PTR [esp+0x34],eax
  407abd:	mov    edx,0x401884
  407ac2:	mov    DWORD PTR [esp+0x24],ebx
  407ac6:	pop    ecx
  407ac7:	mov    DWORD PTR [esp+0x34],eax
  407acb:	mov    edi,eax
  407acd:	mov    DWORD PTR [esp+0x24],eax
  407ad1:	mov    DWORD PTR [esp+0x2c],eax
  407ad5:	mov    DWORD PTR [esp+0x28],eax
  407ad9:	mov    DWORD PTR [esp+0x18],eax
  407add:	call   0x406502
  407ae2:	lea    ecx,[esp+0x20]
  407ae6:	call   0x40b9d4
  407aeb:	mov    esi,eax
  407aed:	test   esi,esi
  407aef:	jne    0x407bad
  407af5:	mov    edx,DWORD PTR [ebp+0x20]
  407af8:	lea    eax,[esp+0x18]
  407afc:	mov    ecx,DWORD PTR [ebp+0x24]
  407aff:	push   eax
  407b00:	call   0x40bb8a
  407b05:	mov    esi,eax
  407b07:	test   esi,esi
  407b09:	jne    0x407ba9
  407b0f:	lea    eax,[esp+0x28]
  407b13:	push   eax
  407b14:	lea    eax,[esp+0x20]
  407b18:	push   eax
  407b19:	push   DWORD PTR [ebp+0x8]
  407b1c:	lea    eax,[esp+0x1c]
  407b20:	push   eax
  407b21:	lea    edx,[esp+0x34]
  407b25:	call   0x408bc1
  407b2a:	mov    esi,eax
  407b2c:	test   esi,esi
  407b2e:	jne    0x407ba9
  407b30:	push   eax
  407b31:	push   eax
  407b32:	mov    edx,0x401884
  407b37:	mov    DWORD PTR [esp+0x1c],eax
  407b3b:	xor    ecx,ecx
  407b3d:	call   0x406502
  407b42:	mov    eax,DWORD PTR [esp+0x10]
  407b46:	mov    ebx,DWORD PTR [esp+0x18]
  407b4a:	mov    eax,DWORD PTR [eax+0x3c]
  407b4d:	mov    DWORD PTR [esp+0x10],eax
  407b51:	test   eax,eax
  407b53:	je     0x407b75
  407b55:	push   ebx
  407b56:	push   DWORD PTR [ebp+0x20]
  407b59:	lea    esi,[ebp+0x10]
  407b5c:	mov    ecx,eax
  407b5e:	sub    esp,0x10
  407b61:	mov    edi,esp
  407b63:	movs   DWORD PTR es:[edi],DWORD PTR ds:[esi]
  407b64:	movs   DWORD PTR es:[edi],DWORD PTR ds:[esi]
  407b65:	movs   DWORD PTR es:[edi],DWORD PTR ds:[esi]
  407b66:	movs   DWORD PTR es:[edi],DWORD PTR ds:[esi]
  407b67:	call   DWORD PTR ds:0x41221c
  407b6d:	call   DWORD PTR [esp+0x28]
  407b71:	mov    edi,eax
  407b73:	jmp    0x407b78
  407b75:	push   0x78
  407b77:	pop    edi
  407b78:	push   0x0
  407b7a:	push   edi
  407b7b:	push   0x2
  407b7d:	mov    edx,0x401884
  407b82:	pop    ecx
  407b83:	call   0x406502
  407b88:	push   DWORD PTR [esp+0x2c]
  407b8c:	mov    ecx,DWORD PTR [esp+0x20]
  407b90:	push   DWORD PTR [esp+0x2c]
  407b94:	call   0x408dbc
  407b99:	mov    esi,eax
  407b9b:	test   esi,esi
  407b9d:	jne    0x407bad
  407b9f:	mov    DWORD PTR [esp+0x14],0x1
  407ba7:	jmp    0x407bad
  407ba9:	mov    ebx,DWORD PTR [esp+0x18]
  407bad:	push   ebx
  407bae:	call   0x40a080
  407bb3:	lea    ecx,[esp+0x24]
  407bb7:	call   0x405924
  407bbc:	cmp    DWORD PTR [esp+0x14],0x0
  407bc1:	je     0x407bd3
  407bc3:	test   esi,esi
  407bc5:	je     0x407bc9
  407bc7:	mov    edi,esi
  407bc9:	mov    ecx,DWORD PTR [ebp+0x8]
  407bcc:	mov    edx,edi
  407bce:	call   0x408a78
  407bd3:	mov    ecx,DWORD PTR [esp+0x20]
  407bd7:	call   0x40baea
  407bdc:	push   0x0
  407bde:	push   esi
  407bdf:	push   0x8
  407be1:	mov    edx,0x401884
  407be6:	pop    ecx
  407be7:	call   0x406502
  407bec:	mov    ecx,DWORD PTR [esp+0x34]
  407bf0:	pop    edi
  407bf1:	pop    esi
  407bf2:	pop    ebx
  407bf3:	xor    ecx,esp
  407bf5:	call   0x4101d0
  407bfa:	mov    esp,ebp
  407bfc:	pop    ebp
  407bfd:	ret    0x20
  407c00:	int3   
  407c01:	int3   
  407c02:	int3   
  407c03:	int3   
  407c04:	int3   
  407c05:	int3   
  407c06:	int3   
  407c07:	int3   
  407c08:	int3   
  407c09:	int3   
  407c0a:	int3   
  407c0b:	int3   
  407c0c:	int3   
  407c0d:	int3   
  407c0e:	int3   
  407c0f:	int3   
  407c10:	mov    edi,edi
  407c12:	push   ebp
  407c13:	mov    ebp,esp
  407c15:	and    esp,0xfffffff8
  407c18:	sub    esp,0x2c
  407c1b:	mov    eax,ds:0x411004
  407c20:	xor    eax,esp
  407c22:	mov    DWORD PTR [esp+0x28],eax
  407c26:	push   ebx
  407c27:	xor    eax,eax
  407c29:	xor    ebx,ebx
  407c2b:	push   esi
  407c2c:	push   edi
  407c2d:	push   eax
  407c2e:	push   eax
  407c2f:	push   0x7
  407c31:	mov    edx,0x401898
  407c36:	mov    DWORD PTR [esp+0x30],eax
  407c3a:	pop    ecx
  407c3b:	mov    DWORD PTR [esp+0x14],eax
  407c3f:	mov    edi,eax
  407c41:	mov    DWORD PTR [esp+0x30],eax
  407c45:	inc    ebx
  407c46:	mov    DWORD PTR [esp+0x34],eax
  407c4a:	mov    DWORD PTR [esp+0x18],eax
  407c4e:	mov    DWORD PTR [esp+0x20],eax
  407c52:	mov    DWORD PTR [esp+0x28],eax
  407c56:	mov    DWORD PTR [esp+0x1c],eax
  407c5a:	mov    DWORD PTR [esp+0x24],eax
  407c5e:	call   0x406502
  407c63:	lea    ecx,[esp+0x20]
  407c67:	call   0x40b9d4
  407c6c:	mov    esi,eax
  407c6e:	test   esi,esi
  407c70:	jne    0x407d2d
  407c76:	mov    ecx,DWORD PTR [ebp+0x10]
  407c79:	lea    eax,[esp+0x14]
  407c7d:	push   eax
  407c7e:	push   esi
  407c7f:	lea    eax,[esp+0x2c]
  407c83:	xor    edx,edx
  407c85:	push   eax
  407c86:	call   0x402bf0
  407c8b:	mov    esi,eax
  407c8d:	test   esi,esi
  407c8f:	jne    0x407d2d
  407c95:	lea    eax,[esp+0x28]
  407c99:	push   eax
  407c9a:	lea    eax,[esp+0x14]
  407c9e:	push   eax
  407c9f:	push   DWORD PTR [ebp+0x8]
  407ca2:	lea    eax,[esp+0x28]
  407ca6:	push   eax
  407ca7:	lea    edx,[esp+0x28]
  407cab:	call   0x408bc1
  407cb0:	mov    esi,eax
  407cb2:	test   esi,esi
  407cb4:	jne    0x407d2d
  407cb6:	xor    ebx,ebx
  407cb8:	mov    edx,0x401898
  407cbd:	push   ebx
  407cbe:	push   ebx
  407cbf:	xor    ecx,ecx
  407cc1:	call   0x406502
  407cc6:	mov    eax,DWORD PTR [esp+0x1c]
  407cca:	mov    esi,DWORD PTR [eax+0x40]
  407ccd:	test   esi,esi
  407ccf:	je     0x407ceb
  407cd1:	lea    eax,[esp+0xc]
  407cd5:	mov    ecx,esi
  407cd7:	push   eax
  407cd8:	push   DWORD PTR [ebp+0x14]
  407cdb:	push   DWORD PTR [esp+0x2c]
  407cdf:	call   DWORD PTR ds:0x41221c
  407ce5:	call   esi
  407ce7:	mov    edi,eax
  407ce9:	jmp    0x407cee
  407ceb:	push   0x78
  407ced:	pop    edi
  407cee:	push   0x0
  407cf0:	push   edi
  407cf1:	push   0x2
  407cf3:	mov    edx,0x401898
  407cf8:	pop    ecx
  407cf9:	call   0x406502
  407cfe:	push   DWORD PTR [esp+0x2c]
  407d02:	mov    ecx,DWORD PTR [esp+0x14]
  407d06:	push   DWORD PTR [esp+0x2c]
  407d0a:	call   0x408dbc
  407d0f:	mov    esi,eax
  407d11:	test   esi,esi
  407d13:	jne    0x407d2d
  407d15:	xor    ebx,ebx
  407d17:	inc    ebx
  407d18:	test   edi,edi
  407d1a:	jne    0x407d2d
  407d1c:	mov    eax,DWORD PTR [ebp+0x18]
  407d1f:	mov    ecx,DWORD PTR [esp+0xc]
  407d23:	mov    DWORD PTR [eax],ecx
  407d25:	xor    eax,eax
  407d27:	mov    DWORD PTR [esp+0xc],eax
  407d2b:	jmp    0x407d31
  407d2d:	mov    eax,DWORD PTR [esp+0xc]
  407d31:	test   eax,eax
  407d33:	je     0x407d46
  407d35:	push   DWORD PTR [eax+0x28]
  407d38:	call   0x40a080
  407d3d:	push   DWORD PTR [esp+0xc]
  407d41:	call   0x40a080
  407d46:	mov    edx,DWORD PTR [esp+0x14]
  407d4a:	mov    ecx,DWORD PTR [ebp+0x10]
  407d4d:	call   0x402cf9
  407d52:	lea    ecx,[esp+0x18]
  407d56:	call   0x405924
  407d5b:	test   ebx,ebx
  407d5d:	je     0x407d6f
  407d5f:	test   esi,esi
  407d61:	je     0x407d65
  407d63:	mov    edi,esi
  407d65:	mov    ecx,DWORD PTR [ebp+0x8]
  407d68:	mov    edx,edi
  407d6a:	call   0x408a78
  407d6f:	mov    ecx,DWORD PTR [esp+0x20]
  407d73:	call   0x40baea
  407d78:	push   0x0
  407d7a:	push   esi
  407d7b:	push   0x8
  407d7d:	mov    edx,0x401898
  407d82:	pop    ecx
  407d83:	call   0x406502
  407d88:	mov    ecx,DWORD PTR [esp+0x34]
  407d8c:	pop    edi
  407d8d:	pop    esi
  407d8e:	pop    ebx
  407d8f:	xor    ecx,esp
  407d91:	call   0x4101d0
  407d96:	mov    esp,ebp
  407d98:	pop    ebp
  407d99:	ret    0x14
  407d9c:	int3   
  407d9d:	int3   
  407d9e:	int3   
  407d9f:	int3   
  407da0:	int3   
  407da1:	int3   
  407da2:	int3   
  407da3:	int3   
  407da4:	int3   
  407da5:	int3   
  407da6:	int3   
  407da7:	int3   
  407da8:	int3   
  407da9:	int3   
  407daa:	int3   
  407dab:	int3   
  407dac:	int3   
  407dad:	int3   
  407dae:	int3   
  407daf:	int3   
  407db0:	mov    edi,edi
  407db2:	push   ebp
  407db3:	mov    ebp,esp
  407db5:	and    esp,0xfffffff8
  407db8:	sub    esp,0x84
  407dbe:	mov    eax,ds:0x411004
  407dc3:	xor    eax,esp
  407dc5:	mov    DWORD PTR [esp+0x80],eax
  407dcc:	xor    eax,eax
  407dce:	mov    DWORD PTR [esp+0x4],0x1
  407dd6:	push   ebx
  407dd7:	push   esi
  407dd8:	push   edi
  407dd9:	push   eax
  407dda:	push   eax
  407ddb:	push   0x7
  407ddd:	mov    edx,0x4018a8
  407de2:	mov    DWORD PTR [esp+0x5c],eax
  407de6:	pop    ecx
  407de7:	mov    DWORD PTR [esp+0x8c],eax
  407dee:	mov    ebx,eax
  407df0:	mov    DWORD PTR [esp+0x90],eax
  407df7:	mov    DWORD PTR [esp+0x44],eax
  407dfb:	mov    DWORD PTR [esp+0x48],eax
  407dff:	mov    DWORD PTR [esp+0x68],eax
  407e03:	mov    DWORD PTR [esp+0x6c],eax
  407e07:	mov    DWORD PTR [esp+0x4c],eax
  407e0b:	mov    DWORD PTR [esp+0x50],eax
  407e0f:	mov    DWORD PTR [esp+0x84],eax
  407e16:	mov    DWORD PTR [esp+0x88],eax
  407e1d:	mov    DWORD PTR [esp+0x70],eax
  407e21:	mov    DWORD PTR [esp+0x74],eax
  407e25:	mov    DWORD PTR [esp+0x28],eax
  407e29:	mov    DWORD PTR [esp+0x2c],eax
  407e2d:	mov    DWORD PTR [esp+0x30],eax
  407e31:	mov    DWORD PTR [esp+0x34],eax
  407e35:	mov    DWORD PTR [esp+0x38],eax
  407e39:	mov    DWORD PTR [esp+0x3c],eax
  407e3d:	mov    DWORD PTR [esp+0x40],eax
  407e41:	mov    DWORD PTR [esp+0x24],eax
  407e45:	mov    DWORD PTR [esp+0x78],eax
  407e49:	mov    DWORD PTR [esp+0x7c],eax
  407e4d:	mov    DWORD PTR [esp+0x20],eax
  407e51:	mov    DWORD PTR [esp+0x5c],eax
  407e55:	mov    DWORD PTR [esp+0x54],eax
  407e59:	mov    DWORD PTR [esp+0x1c],eax
  407e5d:	mov    DWORD PTR [esp+0x60],eax
  407e61:	mov    DWORD PTR [esp+0x64],eax
  407e65:	call   0x406502
  407e6a:	lea    ecx,[esp+0x14]
  407e6e:	call   0x40b9d4
  407e73:	mov    edi,DWORD PTR [ebp+0x18]
  407e76:	mov    esi,eax
  407e78:	test   esi,esi
  407e7a:	jne    0x407f3e
  407e80:	mov    ecx,DWORD PTR [ebp+0x10]
  407e83:	lea    eax,[esp+0x58]
  407e87:	push   eax
  407e88:	push   ebx
  407e89:	lea    eax,[esp+0x58]
  407e8d:	xor    edx,edx
  407e8f:	push   eax
  407e90:	call   0x402bf0
  407e95:	mov    esi,eax
  407e97:	test   esi,esi
  407e99:	jne    0x407f3e
  407e9f:	test   edi,edi
  407ea1:	je     0x4081cc
  407ea7:	mov    eax,DWORD PTR [edi+0x14]
  407eaa:	xor    ecx,ecx
  407eac:	test   eax,eax
  407eae:	je     0x407eb6
  407eb0:	cmp    DWORD PTR [edi+0x10],ecx
  407eb3:	je     0x407eb6
  407eb5:	inc    ebx
  407eb6:	cmp    DWORD PTR [edi+0xc],ecx
  407eb9:	jbe    0x407ec8
  407ebb:	cmp    DWORD PTR [edi+0x8],ecx
  407ebe:	je     0x407ec8
  407ec0:	mov    DWORD PTR [esp+0x1c],0x1
  407ec8:	test   ebx,ebx
  407eca:	je     0x40804d
  407ed0:	mov    DWORD PTR [esp+0x84],eax
  407ed7:	mov    eax,DWORD PTR [edi+0x10]
  407eda:	mov    DWORD PTR [esp+0x88],eax
  407ee1:	lea    eax,[esp+0x3c]
  407ee5:	push   eax
  407ee6:	push   0x1
  407ee8:	push   ecx
  407ee9:	push   ecx
  407eea:	push   ecx
  407eeb:	push   ecx
  407eec:	lea    eax,[esp+0x9c]
  407ef3:	push   eax
  407ef4:	call   DWORD PTR ds:0x414004
  407efa:	test   eax,eax
  407efc:	jne    0x40804b
  407f02:	call   DWORD PTR ds:0x41208c
  407f08:	mov    esi,eax
  407f0a:	test   esi,esi
  407f0c:	je     0x40804b
  407f12:	mov    eax,ds:0x411010
  407f17:	cmp    eax,0x411010
  407f1c:	je     0x407f3e
  407f1e:	cmp    BYTE PTR [eax+0x19],0x1
  407f22:	jb     0x407f3e
  407f24:	test   BYTE PTR [eax+0x1c],0x1
  407f28:	je     0x407f3e
  407f2a:	push   esi
  407f2b:	push   DWORD PTR [eax+0x14]
  407f2e:	push   DWORD PTR [eax+0x10]
  407f31:	push   0xc
  407f33:	mov    edx,0x4018c4
  407f38:	pop    ecx
  407f39:	call   0x402af8
  407f3e:	mov    ebx,DWORD PTR [esp+0x10]
  407f42:	test   edi,edi
  407f44:	je     0x407fa6
  407f46:	mov    eax,DWORD PTR [esp+0x28]
  407f4a:	test   eax,eax
  407f4c:	je     0x407f6e
  407f4e:	mov    ecx,DWORD PTR [esp+0x2c]
  407f52:	test   ecx,ecx
  407f54:	je     0x407f63
  407f56:	mov    BYTE PTR [eax],0x0
  407f59:	inc    eax
  407f5a:	sub    ecx,0x1
  407f5d:	jne    0x407f56
  407f5f:	mov    eax,DWORD PTR [esp+0x28]
  407f63:	push   eax
  407f64:	call   0x40a080
  407f69:	and    DWORD PTR [esp+0x28],0x0
  407f6e:	mov    eax,DWORD PTR [esp+0x30]
  407f72:	test   eax,eax
  407f74:	je     0x407f96
  407f76:	mov    ecx,DWORD PTR [esp+0x34]
  407f7a:	test   ecx,ecx
  407f7c:	je     0x407f8b
  407f7e:	mov    BYTE PTR [eax],0x0
  407f81:	inc    eax
  407f82:	sub    ecx,0x1
  407f85:	jne    0x407f7e
  407f87:	mov    eax,DWORD PTR [esp+0x30]
  407f8b:	push   eax
  407f8c:	call   0x40a080
  407f91:	and    DWORD PTR [esp+0x30],0x0
  407f96:	cmp    DWORD PTR [esp+0x38],0x0
  407f9b:	je     0x407fa6
  407f9d:	lea    ecx,[esp+0x38]
  407fa1:	call   0x40c3b1
  407fa6:	mov    eax,DWORD PTR [esp+0x40]
  407faa:	test   eax,eax
  407fac:	je     0x407fca
  407fae:	mov    ecx,DWORD PTR [esp+0x3c]
  407fb2:	test   ecx,ecx
  407fb4:	je     0x407fc3
  407fb6:	mov    BYTE PTR [eax],0x0
  407fb9:	inc    eax
  407fba:	sub    ecx,0x1
  407fbd:	jne    0x407fb6
  407fbf:	mov    eax,DWORD PTR [esp+0x40]
  407fc3:	push   eax
  407fc4:	call   DWORD PTR ds:0x4120c4
  407fca:	mov    eax,DWORD PTR [esp+0x48]
  407fce:	test   eax,eax
  407fd0:	je     0x407fee
  407fd2:	mov    ecx,DWORD PTR [esp+0x44]
  407fd6:	test   ecx,ecx
  407fd8:	je     0x407fe7
  407fda:	mov    BYTE PTR [eax],0x0
  407fdd:	inc    eax
  407fde:	sub    ecx,0x1
  407fe1:	jne    0x407fda
  407fe3:	mov    eax,DWORD PTR [esp+0x48]
  407fe7:	push   eax
  407fe8:	call   DWORD PTR ds:0x4120c4
  407fee:	mov    edx,DWORD PTR [esp+0x58]
  407ff2:	mov    ecx,DWORD PTR [ebp+0x10]
  407ff5:	call   0x402cf9
  407ffa:	lea    ecx,[esp+0x4c]
  407ffe:	call   0x405924
  408003:	test   ebx,ebx
  408005:	je     0x40801b
  408007:	mov    eax,esi
  408009:	test   esi,esi
  40800b:	jne    0x408011
  40800d:	mov    eax,DWORD PTR [esp+0x18]
  408011:	mov    ecx,DWORD PTR [ebp+0x8]
  408014:	mov    edx,eax
  408016:	call   0x408a78
  40801b:	mov    ecx,DWORD PTR [esp+0x14]
  40801f:	call   0x40baea
  408024:	push   0x0
  408026:	push   esi
  408027:	push   0x8
  408029:	mov    edx,0x4018a8
  40802e:	pop    ecx
  40802f:	call   0x406502
  408034:	mov    ecx,DWORD PTR [esp+0x8c]
  40803b:	pop    edi
  40803c:	pop    esi
  40803d:	pop    ebx
  40803e:	xor    ecx,esp
  408040:	call   0x4101d0
  408045:	mov    esp,ebp
  408047:	pop    ebp
  408048:	ret    0x14
  40804b:	xor    ecx,ecx
  40804d:	cmp    DWORD PTR [esp+0x1c],0x0
  408052:	je     0x4080ba
  408054:	mov    eax,DWORD PTR [edi+0xc]
  408057:	mov    DWORD PTR [esp+0x60],eax
  40805b:	mov    eax,DWORD PTR [edi+0x8]
  40805e:	mov    DWORD PTR [esp+0x64],eax
  408062:	lea    eax,[esp+0x44]
  408066:	push   eax
  408067:	push   0x1
  408069:	push   ecx
  40806a:	push   ecx
  40806b:	push   ecx
  40806c:	push   ecx
  40806d:	lea    eax,[esp+0x78]
  408071:	push   eax
  408072:	call   DWORD PTR ds:0x414004
  408078:	test   eax,eax
  40807a:	jne    0x4080ba
  40807c:	call   DWORD PTR ds:0x41208c
  408082:	mov    esi,eax
  408084:	test   esi,esi
  408086:	je     0x4080ba
  408088:	mov    eax,ds:0x411010
  40808d:	cmp    eax,0x411010
  408092:	je     0x407f3e
  408098:	cmp    BYTE PTR [eax+0x19],0x1
  40809c:	jb     0x407f3e
  4080a2:	test   BYTE PTR [eax+0x1c],0x1
  4080a6:	je     0x407f3e
  4080ac:	push   esi
  4080ad:	push   DWORD PTR [eax+0x14]
  4080b0:	push   DWORD PTR [eax+0x10]
  4080b3:	push   0xd
  4080b5:	jmp    0x407f33
  4080ba:	mov    ecx,DWORD PTR [esp+0x14]
  4080be:	call   0x40baea
  4080c3:	xor    ecx,ecx
  4080c5:	mov    DWORD PTR [esp+0x14],ecx
  4080c9:	test   ebx,ebx
  4080cb:	je     0x40813a
  4080cd:	lea    eax,[esp+0x7c]
  4080d1:	push   eax
  4080d2:	push   0x1
  4080d4:	push   ecx
  4080d5:	push   ecx
  4080d6:	push   ecx
  4080d7:	push   ecx
  4080d8:	lea    eax,[esp+0x54]
  4080dc:	push   eax
  4080dd:	call   DWORD PTR ds:0x414000
  4080e3:	test   eax,eax
  4080e5:	jne    0x408125
  4080e7:	call   DWORD PTR ds:0x41208c
  4080ed:	mov    esi,eax
  4080ef:	test   esi,esi
  4080f1:	je     0x408125
  4080f3:	mov    eax,ds:0x411010
  4080f8:	cmp    eax,0x411010
  4080fd:	je     0x407f3e
  408103:	cmp    BYTE PTR [eax+0x19],0x1
  408107:	jb     0x407f3e
  40810d:	test   BYTE PTR [eax+0x1c],0x1
  408111:	je     0x407f3e
  408117:	push   esi
  408118:	push   DWORD PTR [eax+0x14]
  40811b:	push   DWORD PTR [eax+0x10]
  40811e:	push   0xe
  408120:	jmp    0x407f33
  408125:	mov    eax,DWORD PTR [esp+0x7c]
  408129:	xor    ecx,ecx
  40812b:	mov    DWORD PTR [esp+0x34],eax
  40812f:	mov    eax,DWORD PTR [esp+0x80]
  408136:	mov    DWORD PTR [esp+0x30],eax
  40813a:	cmp    DWORD PTR [esp+0x1c],0x0
  40813f:	je     0x4081a9
  408141:	lea    eax,[esp+0x68]
  408145:	push   eax
  408146:	push   0x1
  408148:	push   ecx
  408149:	push   ecx
  40814a:	push   ecx
  40814b:	push   ecx
  40814c:	lea    eax,[esp+0x5c]
  408150:	push   eax
  408151:	call   DWORD PTR ds:0x414000
  408157:	test   eax,eax
  408159:	jne    0x408199
  40815b:	call   DWORD PTR ds:0x41208c
  408161:	mov    esi,eax
  408163:	test   esi,esi
  408165:	je     0x408199
  408167:	mov    eax,ds:0x411010
  40816c:	cmp    eax,0x411010
  408171:	je     0x407f3e
  408177:	cmp    BYTE PTR [eax+0x19],0x1
  40817b:	jb     0x407f3e
  408181:	test   BYTE PTR [eax+0x1c],0x1
  408185:	je     0x407f3e
  40818b:	push   esi
  40818c:	push   DWORD PTR [eax+0x14]
  40818f:	push   DWORD PTR [eax+0x10]
  408192:	push   0xf
  408194:	jmp    0x407f33
  408199:	mov    eax,DWORD PTR [esp+0x68]
  40819d:	mov    DWORD PTR [esp+0x2c],eax
  4081a1:	mov    eax,DWORD PTR [esp+0x6c]
  4081a5:	mov    DWORD PTR [esp+0x28],eax
  4081a9:	mov    eax,DWORD PTR [edi]
  4081ab:	lea    edx,[esp+0x38]
  4081af:	mov    ecx,DWORD PTR [edi+0x18]
  4081b2:	mov    DWORD PTR [esp+0x20],eax
  4081b6:	mov    eax,DWORD PTR [edi+0x4]
  4081b9:	mov    DWORD PTR [esp+0x24],eax
  4081bd:	call   0x40c2f3
  4081c2:	mov    esi,eax
  4081c4:	test   esi,esi
  4081c6:	jne    0x407f3e
  4081cc:	lea    eax,[esp+0x70]
  4081d0:	push   eax
  4081d1:	lea    eax,[esp+0x58]
  4081d5:	push   eax
  4081d6:	push   DWORD PTR [ebp+0x8]
  4081d9:	lea    eax,[esp+0x68]
  4081dd:	push   eax
  4081de:	lea    edx,[esp+0x5c]
  4081e2:	call   0x408bc1
  4081e7:	mov    esi,eax
  4081e9:	test   esi,esi
  4081eb:	jne    0x407f3e
  4081f1:	xor    ebx,ebx
  4081f3:	mov    edx,0x4018a8
  4081f8:	push   ebx
  4081f9:	push   ebx
  4081fa:	xor    ecx,ecx
  4081fc:	call   0x406502
  408201:	mov    eax,ds:0x411010
  408206:	cmp    eax,0x411010
  40820b:	je     0x40822f
  40820d:	cmp    BYTE PTR [eax+0x19],0x3
  408211:	jb     0x40822f
  408213:	test   BYTE PTR [eax+0x1c],0x1
  408217:	je     0x40822f
  408219:	push   DWORD PTR [ebp+0x14]
  40821c:	mov    edx,0x4018c4
  408221:	push   DWORD PTR [eax+0x14]
  408224:	push   DWORD PTR [eax+0x10]
  408227:	push   0x10
  408229:	pop    ecx
  40822a:	call   0x402af8
  40822f:	mov    eax,DWORD PTR [esp+0x5c]
  408233:	mov    esi,DWORD PTR [eax+0x44]
  408236:	test   esi,esi
  408238:	je     0x40825a
  40823a:	mov    eax,edi
  40823c:	lea    ecx,[esp+0x20]
  408240:	neg    eax
  408242:	sbb    eax,eax
  408244:	and    eax,ecx
  408246:	mov    ecx,esi
  408248:	push   eax
  408249:	push   DWORD PTR [ebp+0x14]
  40824c:	push   DWORD PTR [esp+0x58]
  408250:	call   DWORD PTR ds:0x41221c
  408256:	call   esi
  408258:	jmp    0x40825d
  40825a:	push   0x78
  40825c:	pop    eax
  40825d:	push   0x0
  40825f:	push   eax
  408260:	push   0x2
  408262:	mov    edx,0x4018a8
  408267:	mov    DWORD PTR [esp+0x24],eax
  40826b:	pop    ecx
  40826c:	call   0x406502
  408271:	push   DWORD PTR [esp+0x74]
  408275:	mov    ecx,DWORD PTR [esp+0x58]
  408279:	push   DWORD PTR [esp+0x74]
  40827d:	call   0x408dbc
  408282:	mov    esi,eax
  408284:	test   esi,esi
  408286:	jne    0x407f42
  40828c:	xor    ebx,ebx
  40828e:	push   eax
  40828f:	inc    ebx
  408290:	call   DWORD PTR ds:0x412018
  408296:	mov    esi,eax
  408298:	test   esi,esi
  40829a:	je     0x4082d7
  40829c:	mov    eax,ds:0x411010
  4082a1:	cmp    eax,0x411010
  4082a6:	je     0x407f42
  4082ac:	cmp    BYTE PTR [eax+0x19],bl
  4082af:	jb     0x407f42
  4082b5:	test   BYTE PTR [eax+0x1c],bl
  4082b8:	je     0x407f42
  4082be:	push   esi
  4082bf:	push   DWORD PTR [eax+0x14]
  4082c2:	mov    edx,0x4018c4
  4082c7:	push   DWORD PTR [eax+0x10]
  4082ca:	push   0x11
  4082cc:	pop    ecx
  4082cd:	call   0x402af8
  4082d2:	jmp    0x407f42
  4082d7:	mov    DWORD PTR [esp+0x14],0x1
  4082df:	jmp    0x407f42
  4082e4:	int3   
  4082e5:	int3   
  4082e6:	int3   
  4082e7:	int3   
  4082e8:	int3   
  4082e9:	int3   
  4082ea:	int3   
  4082eb:	int3   
  4082ec:	int3   
  4082ed:	int3   
  4082ee:	int3   
  4082ef:	int3   
  4082f0:	mov    edi,edi
  4082f2:	push   ebp
  4082f3:	mov    ebp,esp
  4082f5:	and    esp,0xfffffff8
  4082f8:	sub    esp,0x3c
  4082fb:	mov    eax,ds:0x411004
  408300:	xor    eax,esp
  408302:	mov    DWORD PTR [esp+0x38],eax
  408306:	xor    eax,eax
  408308:	mov    DWORD PTR [esp+0xc],0x1
  408310:	push   ebx
  408311:	push   esi
  408312:	push   edi
  408313:	push   eax
  408314:	push   eax
  408315:	push   0x7
  408317:	mov    edi,eax
  408319:	mov    DWORD PTR [esp+0x30],eax
  40831d:	mov    edx,0x4018bc
  408322:	mov    DWORD PTR [esp+0x1c],eax
  408326:	pop    ecx
  408327:	mov    DWORD PTR [esp+0x1c],edi
  40832b:	mov    ebx,eax
  40832d:	mov    DWORD PTR [esp+0x34],eax
  408331:	mov    DWORD PTR [esp+0x40],eax
  408335:	mov    DWORD PTR [esp+0x44],eax
  408339:	mov    DWORD PTR [esp+0x24],eax
  40833d:	mov    DWORD PTR [esp+0x30],eax
  408341:	mov    DWORD PTR [esp+0x38],eax
  408345:	mov    DWORD PTR [esp+0x28],eax
  408349:	mov    DWORD PTR [esp+0x3c],eax
  40834d:	call   0x406502
  408352:	lea    ecx,[esp+0x30]
  408356:	call   0x40b9d4
  40835b:	mov    esi,eax
  40835d:	test   esi,esi
  40835f:	jne    0x408481
  408365:	mov    eax,DWORD PTR [ebp+0x24]
  408368:	xor    edx,edx
  40836a:	mov    ecx,DWORD PTR [ebp+0x10]
  40836d:	and    DWORD PTR [eax],ebx
  40836f:	lea    eax,[esp+0x20]
  408373:	push   eax
  408374:	push   esi
  408375:	lea    eax,[esp+0x2c]
  408379:	push   eax
  40837a:	call   0x402bf0
  40837f:	mov    esi,eax
  408381:	test   esi,esi
  408383:	jne    0x408481
  408389:	mov    edx,DWORD PTR [ebp+0x14]
  40838c:	lea    eax,[esp+0x10]
  408390:	mov    ecx,DWORD PTR [ebp+0x18]
  408393:	push   eax
  408394:	call   0x40bb8a
  408399:	mov    esi,eax
  40839b:	test   esi,esi
  40839d:	jne    0x408481
  4083a3:	mov    edx,DWORD PTR [ebp+0x1c]
  4083a6:	lea    eax,[esp+0x14]
  4083aa:	mov    ecx,DWORD PTR [ebp+0x20]
  4083ad:	push   eax
  4083ae:	call   0x40bb8a
  4083b3:	mov    esi,eax
  4083b5:	test   esi,esi
  4083b7:	jne    0x40847d
  4083bd:	lea    eax,[esp+0x38]
  4083c1:	push   eax
  4083c2:	lea    eax,[esp+0x20]
  4083c6:	push   eax
  4083c7:	push   DWORD PTR [ebp+0x8]
  4083ca:	lea    eax,[esp+0x40]
  4083ce:	push   eax
  4083cf:	lea    edx,[esp+0x38]
  4083d3:	call   0x408bc1
  4083d8:	mov    esi,eax
  4083da:	test   esi,esi
  4083dc:	jne    0x40847d
  4083e2:	push   eax
  4083e3:	push   eax
  4083e4:	mov    edx,0x4018bc
  4083e9:	mov    DWORD PTR [esp+0x20],eax
  4083ed:	xor    ecx,ecx
  4083ef:	call   0x406502
  4083f4:	mov    eax,DWORD PTR [esp+0x34]
  4083f8:	mov    edi,DWORD PTR [esp+0x14]
  4083fc:	mov    esi,DWORD PTR [eax+0x48]
  4083ff:	test   esi,esi
  408401:	je     0x408425
  408403:	lea    eax,[esp+0x2c]
  408407:	mov    ecx,esi
  408409:	push   eax
  40840a:	push   edi
  40840b:	push   DWORD PTR [ebp+0x1c]
  40840e:	push   DWORD PTR [esp+0x1c]
  408412:	push   DWORD PTR [ebp+0x14]
  408415:	push   DWORD PTR [esp+0x38]
  408419:	call   DWORD PTR ds:0x41221c
  40841f:	call   esi
  408421:	mov    ebx,eax
  408423:	jmp    0x408428
  408425:	push   0x78
  408427:	pop    ebx
  408428:	push   0x0
  40842a:	push   ebx
  40842b:	push   0x2
  40842d:	mov    edx,0x4018bc
  408432:	pop    ecx
  408433:	call   0x406502
  408438:	push   DWORD PTR [esp+0x3c]
  40843c:	mov    ecx,DWORD PTR [esp+0x20]
  408440:	push   DWORD PTR [esp+0x3c]
  408444:	call   0x408dbc
  408449:	mov    esi,eax
  40844b:	test   esi,esi
  40844d:	jne    0x408481
  40844f:	mov    ecx,DWORD PTR [ebp+0x24]
  408452:	mov    eax,DWORD PTR [esp+0x2c]
  408456:	mov    DWORD PTR [esp+0x18],0x1
  40845e:	mov    DWORD PTR [ecx],eax
  408460:	test   edi,edi
  408462:	je     0x408481
  408464:	cmp    DWORD PTR [ebp+0x20],esi
  408467:	je     0x408481
  408469:	cmp    eax,DWORD PTR [ebp+0x1c]
  40846c:	ja     0x408481
  40846e:	push   eax
  40846f:	push   edi
  408470:	push   DWORD PTR [ebp+0x20]
  408473:	call   0x41085c
  408478:	add    esp,0xc
  40847b:	jmp    0x408481
  40847d:	mov    edi,DWORD PTR [esp+0x14]
  408481:	push   DWORD PTR [esp+0x10]
  408485:	call   0x40a080
  40848a:	push   edi
  40848b:	call   0x40a080
  408490:	mov    edx,DWORD PTR [esp+0x20]
  408494:	mov    ecx,DWORD PTR [ebp+0x10]
  408497:	call   0x402cf9
  40849c:	lea    ecx,[esp+0x28]
  4084a0:	call   0x405924
  4084a5:	cmp    DWORD PTR [esp+0x18],0x0
  4084aa:	je     0x4084bc
  4084ac:	test   esi,esi
  4084ae:	je     0x4084b2
  4084b0:	mov    ebx,esi
  4084b2:	mov    ecx,DWORD PTR [ebp+0x8]
  4084b5:	mov    edx,ebx
  4084b7:	call   0x408a78
  4084bc:	mov    ecx,DWORD PTR [esp+0x30]
  4084c0:	call   0x40baea
  4084c5:	push   0x0
  4084c7:	push   esi
  4084c8:	push   0x8
  4084ca:	mov    edx,0x4018bc
  4084cf:	pop    ecx
  4084d0:	call   0x406502
  4084d5:	mov    ecx,DWORD PTR [esp+0x44]
  4084d9:	pop    edi
  4084da:	pop    esi
  4084db:	pop    ebx
  4084dc:	xor    ecx,esp
  4084de:	call   0x4101d0
  4084e3:	mov    esp,ebp
  4084e5:	pop    ebp
  4084e6:	ret    0x20
  4084e9:	int3   
  4084ea:	int3   
  4084eb:	int3   
  4084ec:	int3   
  4084ed:	int3   
  4084ee:	mov    edi,edi
  4084f0:	push   ebp
  4084f1:	mov    ebp,esp
  4084f3:	sub    esp,0xc
  4084f6:	and    DWORD PTR [ebp-0x8],0x0
  4084fa:	and    DWORD PTR [ebp-0x4],0x0
  4084fe:	push   ebx
  4084ff:	push   esi
  408500:	push   edi
  408501:	mov    eax,ds:0x411010
  408506:	cmp    eax,0x411010
  40850b:	je     0x40852c
  40850d:	cmp    BYTE PTR [eax+0x19],0x4
  408511:	jb     0x40852c
  408513:	test   BYTE PTR [eax+0x1c],0x1
  408517:	je     0x40852c
  408519:	push   DWORD PTR [eax+0x14]
  40851c:	mov    edx,0x4018d4
  408521:	push   DWORD PTR [eax+0x10]
  408524:	push   0xa
  408526:	pop    ecx
  408527:	call   0x402ad5
  40852c:	lea    eax,[ebp-0x4]
  40852f:	push   eax
  408530:	push   0x8
  408532:	pop    esi
  408533:	push   esi
  408534:	call   0x409fb0
  408539:	mov    ebx,eax
  40853b:	test   ebx,ebx
  40853d:	jne    0x40857f
  40853f:	mov    ecx,DWORD PTR [ebp-0x4]
  408542:	mov    eax,ecx
  408544:	mov    DWORD PTR [ebp-0xc],ecx
  408547:	mov    BYTE PTR [eax],0x0
  40854a:	inc    eax
  40854b:	sub    esi,0x1
  40854e:	jne    0x408547
  408550:	lea    eax,[ebp-0x8]
  408553:	mov    DWORD PTR [ecx],0x1
  408559:	push   eax
  40855a:	push   0x10
  40855c:	call   0x409fb0
  408561:	mov    ebx,eax
  408563:	test   ebx,ebx
  408565:	jne    0x40857f
  408567:	mov    eax,DWORD PTR [ebp-0x8]
  40856a:	lea    esi,[ebp+0x8]
  40856d:	mov    ecx,DWORD PTR [ebp-0xc]
  408570:	mov    edi,eax
  408572:	movs   DWORD PTR es:[edi],DWORD PTR ds:[esi]
  408573:	movs   DWORD PTR es:[edi],DWORD PTR ds:[esi]
  408574:	movs   DWORD PTR es:[edi],DWORD PTR ds:[esi]
  408575:	movs   DWORD PTR es:[edi],DWORD PTR ds:[esi]
  408576:	mov    DWORD PTR [ecx+0x4],eax
  408579:	mov    DWORD PTR ds:0x411408,ecx
  40857f:	mov    eax,ds:0x411010
  408584:	cmp    eax,0x411010
  408589:	je     0x4085ab
  40858b:	cmp    BYTE PTR [eax+0x19],0x4
  40858f:	jb     0x4085ab
  408591:	test   BYTE PTR [eax+0x1c],0x1
  408595:	je     0x4085ab
  408597:	push   ebx
  408598:	push   DWORD PTR [eax+0x14]
  40859b:	mov    edx,0x4018d4
  4085a0:	push   DWORD PTR [eax+0x10]
  4085a3:	push   0xb
  4085a5:	pop    ecx
  4085a6:	call   0x402af8
  4085ab:	pop    edi
  4085ac:	pop    esi
  4085ad:	mov    eax,ebx
  4085af:	pop    ebx
  4085b0:	mov    esp,ebp
  4085b2:	pop    ebp
  4085b3:	ret    0x10
  4085b6:	int3   
  4085b7:	int3   
  4085b8:	int3   
  4085b9:	int3   
  4085ba:	int3   
  4085bb:	mov    edi,edi
  4085bd:	push   ebp
  4085be:	mov    ebp,esp
  4085c0:	push   ecx
  4085c1:	push   ebx
  4085c2:	push   esi
  4085c3:	mov    esi,DWORD PTR ds:0x411408
  4085c9:	push   edi
  4085ca:	mov    eax,ds:0x411010
  4085cf:	cmp    eax,0x411010
  4085d4:	je     0x4085fa
  4085d6:	cmp    BYTE PTR [eax+0x19],0x4
  4085da:	jb     0x4085fa
  4085dc:	test   BYTE PTR [eax+0x1c],0x1
  4085e0:	je     0x4085fa
  4085e2:	push   DWORD PTR [eax+0x14]
  4085e5:	mov    edx,0x4018d4
  4085ea:	push   DWORD PTR [eax+0x10]
  4085ed:	push   0xc
  4085ef:	pop    ecx
  4085f0:	call   0x402ad5
  4085f5:	mov    eax,ds:0x411010
  4085fa:	test   esi,esi
  4085fc:	je     0x408621
  4085fe:	xor    edi,edi
  408600:	cmp    DWORD PTR [esi],edi
  408602:	jbe    0x408616
  408604:	lea    ebx,[esi+0x4]
  408607:	push   DWORD PTR [ebx]
  408609:	call   0x40a080
  40860e:	inc    edi
  40860f:	lea    ebx,[ebx+0x4]
  408612:	cmp    edi,DWORD PTR [esi]
  408614:	jb     0x408607
  408616:	push   esi
  408617:	call   0x40a080
  40861c:	mov    eax,ds:0x411010
  408621:	cmp    eax,0x411010
  408626:	je     0x408649
  408628:	cmp    BYTE PTR [eax+0x19],0x4
  40862c:	jb     0x408649
  40862e:	test   BYTE PTR [eax+0x1c],0x1
  408632:	je     0x408649
  408634:	push   0x0
  408636:	push   DWORD PTR [eax+0x14]
  408639:	mov    edx,0x4018d4
  40863e:	push   DWORD PTR [eax+0x10]
  408641:	push   0xd
  408643:	pop    ecx
  408644:	call   0x402af8
  408649:	pop    edi
  40864a:	pop    esi
  40864b:	pop    ebx
  40864c:	mov    esp,ebp
  40864e:	pop    ebp
  40864f:	ret    
  408650:	int3   
  408651:	int3   
  408652:	int3   
  408653:	int3   
  408654:	int3   
  408655:	mov    edi,edi
  408657:	push   ebp
  408658:	mov    ebp,esp
  40865a:	push   ecx
  40865b:	push   ebx
  40865c:	push   esi
  40865d:	push   edi
  40865e:	mov    eax,ds:0x411010
  408663:	mov    ebx,0x411010
  408668:	cmp    eax,ebx
  40866a:	je     0x408690
  40866c:	cmp    BYTE PTR [eax+0x19],0x4
  408670:	jb     0x408690
  408672:	test   BYTE PTR [eax+0x1c],0x1
  408676:	je     0x408690
  408678:	push   DWORD PTR [eax+0x14]
  40867b:	mov    edx,0x4018d4
  408680:	push   DWORD PTR [eax+0x10]
  408683:	push   0xe
  408685:	pop    ecx
  408686:	call   0x402ad5
  40868b:	mov    eax,ds:0x411010
  408690:	cmp    DWORD PTR ds:0x411418,0x1
  408697:	je     0x4086b6
  408699:	push   0x411418
  40869e:	mov    edx,0x41141c
  4086a3:	mov    ecx,0x411540
  4086a8:	call   0x40ab90
  4086ad:	mov    esi,eax
  4086af:	mov    eax,ds:0x411010
  4086b4:	jmp    0x4086b8
  4086b6:	xor    esi,esi
  4086b8:	test   esi,esi
  4086ba:	jne    0x408748
  4086c0:	push   0x411540
  4086c5:	call   DWORD PTR ds:0x412128
  4086cb:	sub    esp,0x10
  4086ce:	lea    esi,[ebp+0x8]
  4086d1:	mov    edi,esp
  4086d3:	movs   DWORD PTR es:[edi],DWORD PTR ds:[esi]
  4086d4:	movs   DWORD PTR es:[edi],DWORD PTR ds:[esi]
  4086d5:	movs   DWORD PTR es:[edi],DWORD PTR ds:[esi]
  4086d6:	movs   DWORD PTR es:[edi],DWORD PTR ds:[esi]
  4086d7:	call   0x4084ee
  4086dc:	mov    esi,eax
  4086de:	test   esi,esi
  4086e0:	jne    0x408738
  4086e2:	push   ecx
  4086e3:	call   0x40b2bf
  4086e8:	mov    esi,eax
  4086ea:	test   esi,esi
  4086ec:	jne    0x408738
  4086ee:	push   0x1
  4086f0:	push   0x4d2
  4086f5:	push   0x1
  4086f7:	call   DWORD PTR ds:0x412014
  4086fd:	mov    esi,eax
  4086ff:	test   esi,esi
  408701:	je     0x40872e
  408703:	mov    eax,ds:0x411010
  408708:	cmp    eax,ebx
  40870a:	je     0x408738
  40870c:	cmp    BYTE PTR [eax+0x19],0x1
  408710:	jb     0x408738
  408712:	test   BYTE PTR [eax+0x1c],0x1
  408716:	je     0x408738
  408718:	push   esi
  408719:	push   DWORD PTR [eax+0x14]
  40871c:	mov    edx,0x4018d4
  408721:	push   DWORD PTR [eax+0x10]
  408724:	push   0xf
  408726:	pop    ecx
  408727:	call   0x402af8
  40872c:	jmp    0x408738
  40872e:	mov    DWORD PTR ds:0x411018,0x2
  408738:	push   0x411540
  40873d:	call   DWORD PTR ds:0x412148
  408743:	mov    eax,ds:0x411010
  408748:	cmp    eax,ebx
  40874a:	je     0x40876c
  40874c:	cmp    BYTE PTR [eax+0x19],0x4
  408750:	jb     0x40876c
  408752:	test   BYTE PTR [eax+0x1c],0x1
  408756:	je     0x40876c
  408758:	push   esi
  408759:	push   DWORD PTR [eax+0x14]
  40875c:	mov    edx,0x4018d4
  408761:	push   DWORD PTR [eax+0x10]
  408764:	push   0x10
  408766:	pop    ecx
  408767:	call   0x402af8
  40876c:	pop    edi
  40876d:	mov    eax,esi
  40876f:	pop    esi
  408770:	pop    ebx
  408771:	pop    ecx
  408772:	pop    ebp
  408773:	ret    0x10
  408776:	int3   
  408777:	int3   
  408778:	int3   
  408779:	int3   
  40877a:	int3   
  40877b:	mov    edi,edi
  40877d:	push   ebx
  40877e:	push   esi
  40877f:	push   edi
  408780:	mov    eax,ds:0x411010
  408785:	xor    ebx,ebx
  408787:	mov    edi,0x411010
  40878c:	inc    ebx
  40878d:	cmp    eax,edi
  40878f:	je     0x4087af
  408791:	cmp    BYTE PTR [eax+0x19],0x4
  408795:	jb     0x4087af
  408797:	test   BYTE PTR [eax+0x1c],bl
  40879a:	je     0x4087af
  40879c:	push   DWORD PTR [eax+0x14]
  40879f:	mov    edx,0x4018d4
  4087a4:	push   DWORD PTR [eax+0x10]
  4087a7:	push   0x11
  4087a9:	pop    ecx
  4087aa:	call   0x402ad5
  4087af:	mov    esi,0x411540
  4087b4:	push   esi
  4087b5:	call   DWORD PTR ds:0x412128
  4087bb:	push   esi
  4087bc:	mov    DWORD PTR ds:0x411018,0x3
  4087c6:	call   DWORD PTR ds:0x412148
  4087cc:	call   DWORD PTR ds:0x412010
  4087d2:	push   0x411540
  4087d7:	mov    esi,eax
  4087d9:	call   DWORD PTR ds:0x412128
  4087df:	test   esi,esi
  4087e1:	je     0x40880c
  4087e3:	mov    eax,ds:0x411010
  4087e8:	cmp    eax,edi
  4087ea:	je     0x40884a
  4087ec:	cmp    BYTE PTR [eax+0x19],bl
  4087ef:	jb     0x40884a
  4087f1:	test   BYTE PTR [eax+0x1c],bl
  4087f4:	je     0x40884a
  4087f6:	push   esi
  4087f7:	push   DWORD PTR [eax+0x14]
  4087fa:	mov    edx,0x4018d4
  4087ff:	push   DWORD PTR [eax+0x10]
  408802:	push   0x12
  408804:	pop    ecx
  408805:	call   0x402af8
  40880a:	jmp    0x40884a
  40880c:	mov    ecx,DWORD PTR ds:0x411018
  408812:	cmp    ecx,0x4
  408815:	je     0x408840
  408817:	mov    esi,0x139f
  40881c:	mov    eax,ds:0x411010
  408821:	cmp    eax,edi
  408823:	je     0x40884e
  408825:	test   BYTE PTR [eax+0x1c],bl
  408828:	je     0x40884e
  40882a:	push   ecx
  40882b:	push   DWORD PTR [eax+0x14]
  40882e:	mov    edx,0x4018d4
  408833:	push   DWORD PTR [eax+0x10]
  408836:	push   0x13
  408838:	pop    ecx
  408839:	call   0x402af8
  40883e:	jmp    0x40884e
  408840:	mov    DWORD PTR ds:0x411018,0x5
  40884a:	test   esi,esi
  40884c:	je     0x408855
  40884e:	and    DWORD PTR ds:0x411018,0x0
  408855:	push   0x411540
  40885a:	call   DWORD PTR ds:0x412148
  408860:	mov    eax,ds:0x411010
  408865:	cmp    eax,edi
  408867:	je     0x408888
  408869:	cmp    BYTE PTR [eax+0x19],0x4
  40886d:	jb     0x408888
  40886f:	test   BYTE PTR [eax+0x1c],bl
  408872:	je     0x408888
  408874:	push   esi
  408875:	push   DWORD PTR [eax+0x14]
  408878:	mov    edx,0x4018d4
  40887d:	push   DWORD PTR [eax+0x10]
  408880:	push   0x14
  408882:	pop    ecx
  408883:	call   0x402af8
  408888:	pop    edi
  408889:	mov    eax,esi
  40888b:	pop    esi
  40888c:	pop    ebx
  40888d:	ret    
  40888e:	int3   
  40888f:	int3   
  408890:	int3   
  408891:	int3   
  408892:	int3   
  408893:	mov    edi,edi
  408895:	push   ebx
  408896:	push   esi
  408897:	push   edi
  408898:	mov    eax,ds:0x411010
  40889d:	xor    ebx,ebx
  40889f:	mov    edi,0x411010
  4088a4:	inc    ebx
  4088a5:	cmp    eax,edi
  4088a7:	je     0x4088c7
  4088a9:	cmp    BYTE PTR [eax+0x19],0x4
  4088ad:	jb     0x4088c7
  4088af:	test   BYTE PTR [eax+0x1c],bl
  4088b2:	je     0x4088c7
  4088b4:	push   DWORD PTR [eax+0x14]
  4088b7:	mov    edx,0x4018d4
  4088bc:	push   DWORD PTR [eax+0x10]
  4088bf:	push   0x15
  4088c1:	pop    ecx
  4088c2:	call   0x402ad5
  4088c7:	mov    esi,0x411540
  4088cc:	push   esi
  4088cd:	call   DWORD PTR ds:0x412128
  4088d3:	mov    ecx,DWORD PTR ds:0x411018
  4088d9:	cmp    ecx,0x3
  4088dc:	je     0x408912
  4088de:	mov    esi,0x139f
  4088e3:	mov    eax,ds:0x411010
  4088e8:	cmp    eax,edi
  4088ea:	je     0x408905
  4088ec:	test   BYTE PTR [eax+0x1c],bl
  4088ef:	je     0x408905
  4088f1:	push   ecx
  4088f2:	push   DWORD PTR [eax+0x14]
  4088f5:	mov    edx,0x4018d4
  4088fa:	push   DWORD PTR [eax+0x10]
  4088fd:	push   0x16
  4088ff:	pop    ecx
  408900:	call   0x402af8
  408905:	push   0x411540
  40890a:	call   DWORD PTR ds:0x412148
  408910:	jmp    0x408958
  408912:	push   esi
  408913:	mov    DWORD PTR ds:0x411018,0x4
  40891d:	call   DWORD PTR ds:0x412148
  408923:	push   0x0
  408925:	call   DWORD PTR ds:0x412004
  40892b:	mov    esi,eax
  40892d:	test   esi,esi
  40892f:	je     0x408958
  408931:	mov    eax,ds:0x411010
  408936:	cmp    eax,edi
  408938:	je     0x408980
  40893a:	cmp    BYTE PTR [eax+0x19],bl
  40893d:	jb     0x40895d
  40893f:	test   BYTE PTR [eax+0x1c],bl
  408942:	je     0x40895d
  408944:	push   esi
  408945:	push   DWORD PTR [eax+0x14]
  408948:	mov    edx,0x4018d4
  40894d:	push   DWORD PTR [eax+0x10]
  408950:	push   0x17
  408952:	pop    ecx
  408953:	call   0x402af8
  408958:	mov    eax,ds:0x411010
  40895d:	cmp    eax,edi
  40895f:	je     0x408980
  408961:	cmp    BYTE PTR [eax+0x19],0x4
  408965:	jb     0x408980
  408967:	test   BYTE PTR [eax+0x1c],bl
  40896a:	je     0x408980
  40896c:	push   esi
  40896d:	push   DWORD PTR [eax+0x14]
  408970:	mov    edx,0x4018d4
  408975:	push   DWORD PTR [eax+0x10]
  408978:	push   0x18
  40897a:	pop    ecx
  40897b:	call   0x402af8
  408980:	pop    edi
  408981:	mov    eax,esi
  408983:	pop    esi
  408984:	pop    ebx
  408985:	ret    
  408986:	int3   
  408987:	int3   
  408988:	int3   
  408989:	int3   
  40898a:	int3   
  40898b:	mov    edi,edi
  40898d:	push   ebx
  40898e:	push   esi
  40898f:	push   edi
  408990:	mov    eax,ds:0x411010
  408995:	mov    edi,0x411010
  40899a:	mov    ebx,0x4018d4
  40899f:	cmp    eax,edi
  4089a1:	je     0x4089bf
  4089a3:	cmp    BYTE PTR [eax+0x19],0x4
  4089a7:	jb     0x4089bf
  4089a9:	test   BYTE PTR [eax+0x1c],0x1
  4089ad:	je     0x4089bf
  4089af:	push   DWORD PTR [eax+0x14]
  4089b2:	mov    edx,ebx
  4089b4:	push   DWORD PTR [eax+0x10]
  4089b7:	push   0x19
  4089b9:	pop    ecx
  4089ba:	call   0x402ad5
  4089bf:	push   0x411540
  4089c4:	call   DWORD PTR ds:0x412128
  4089ca:	mov    ecx,DWORD PTR ds:0x411018
  4089d0:	cmp    ecx,0x5
  4089d3:	je     0x4089fc
  4089d5:	mov    esi,0x139f
  4089da:	mov    eax,ds:0x411010
  4089df:	cmp    eax,edi
  4089e1:	je     0x408a3c
  4089e3:	test   BYTE PTR [eax+0x1c],0x1
  4089e7:	je     0x408a3c
  4089e9:	push   ecx
  4089ea:	push   DWORD PTR [eax+0x14]
  4089ed:	mov    edx,ebx
  4089ef:	push   DWORD PTR [eax+0x10]
  4089f2:	push   0x1a
  4089f4:	pop    ecx
  4089f5:	call   0x402af8
  4089fa:	jmp    0x408a3c
  4089fc:	call   0x40b504
  408a01:	mov    esi,eax
  408a03:	test   esi,esi
  408a05:	jne    0x408a3c
  408a07:	call   0x4085bb
  408a0c:	mov    DWORD PTR ds:0x411018,0x1
  408a16:	mov    ecx,DWORD PTR ds:0x411010
  408a1c:	cmp    ecx,edi
  408a1e:	je     0x408a3c
  408a20:	cmp    BYTE PTR [ecx+0x19],0x3
  408a24:	jb     0x408a3c
  408a26:	test   BYTE PTR [ecx+0x1c],0x1
  408a2a:	je     0x408a3c
  408a2c:	push   DWORD PTR [ecx+0x14]
  408a2f:	mov    edx,ebx
  408a31:	push   DWORD PTR [ecx+0x10]
  408a34:	push   0x1b
  408a36:	pop    ecx
  408a37:	call   0x402ad5
  408a3c:	push   0x411540
  408a41:	call   DWORD PTR ds:0x412148
  408a47:	mov    eax,ds:0x411010
  408a4c:	cmp    eax,edi
  408a4e:	je     0x408a6d
  408a50:	cmp    BYTE PTR [eax+0x19],0x4
  408a54:	jb     0x408a6d
  408a56:	test   BYTE PTR [eax+0x1c],0x1
  408a5a:	je     0x408a6d
  408a5c:	push   esi
  408a5d:	push   DWORD PTR [eax+0x14]
  408a60:	mov    edx,ebx
  408a62:	push   DWORD PTR [eax+0x10]
  408a65:	push   0x1c
  408a67:	pop    ecx
  408a68:	call   0x402af8
  408a6d:	pop    edi
  408a6e:	mov    eax,esi
  408a70:	pop    esi
  408a71:	pop    ebx
  408a72:	ret    
  408a73:	int3   
  408a74:	int3   
  408a75:	int3   
  408a76:	int3   
  408a77:	int3   
  408a78:	mov    edi,edi
  408a7a:	push   ebp
  408a7b:	mov    ebp,esp
  408a7d:	push   ecx
  408a7e:	push   ebx
  408a7f:	push   esi
  408a80:	push   edi
  408a81:	mov    DWORD PTR [ebp-0x4],edx
  408a84:	mov    esi,ecx
  408a86:	mov    eax,ds:0x411010
  408a8b:	mov    edi,0x411010
  408a90:	mov    ebx,0x4018d4
  408a95:	cmp    eax,edi
  408a97:	je     0x408ab5
  408a99:	cmp    BYTE PTR [eax+0x19],0x4
  408a9d:	jb     0x408ab5
  408a9f:	test   BYTE PTR [eax+0x1c],0x1
  408aa3:	je     0x408ab5
  408aa5:	push   DWORD PTR [eax+0x14]
  408aa8:	mov    edx,ebx
  408aaa:	push   DWORD PTR [eax+0x10]
  408aad:	push   0x1d
  408aaf:	pop    ecx
  408ab0:	call   0x402ad5
  408ab5:	lea    eax,[ebp-0x4]
  408ab8:	push   eax
  408ab9:	push   esi
  408aba:	call   DWORD PTR ds:0x412000
  408ac0:	mov    esi,eax
  408ac2:	test   esi,esi
  408ac4:	je     0x408aed
  408ac6:	mov    ecx,DWORD PTR ds:0x411010
  408acc:	cmp    ecx,edi
  408ace:	je     0x408b14
  408ad0:	cmp    BYTE PTR [ecx+0x19],0x1
  408ad4:	jb     0x408af3
  408ad6:	test   BYTE PTR [ecx+0x1c],0x1
  408ada:	je     0x408af3
  408adc:	push   esi
  408add:	push   DWORD PTR [ecx+0x14]
  408ae0:	mov    edx,ebx
  408ae2:	push   DWORD PTR [ecx+0x10]
  408ae5:	push   0x1e
  408ae7:	pop    ecx
  408ae8:	call   0x402af8
  408aed:	mov    ecx,DWORD PTR ds:0x411010
  408af3:	cmp    ecx,edi
  408af5:	je     0x408b14
  408af7:	cmp    BYTE PTR [ecx+0x19],0x4
  408afb:	jb     0x408b14
  408afd:	test   BYTE PTR [ecx+0x1c],0x1
  408b01:	je     0x408b14
  408b03:	push   esi
  408b04:	push   DWORD PTR [ecx+0x14]
  408b07:	mov    edx,ebx
  408b09:	push   DWORD PTR [ecx+0x10]
  408b0c:	push   0x1f
  408b0e:	pop    ecx
  408b0f:	call   0x402af8
  408b14:	pop    edi
  408b15:	mov    eax,esi
  408b17:	pop    esi
  408b18:	pop    ebx
  408b19:	mov    esp,ebp
  408b1b:	pop    ebp
  408b1c:	ret    
  408b1d:	int3   
  408b1e:	int3   
  408b1f:	int3   
  408b20:	int3   
  408b21:	int3   
  408b22:	mov    edi,edi
  408b24:	push   ebx
  408b25:	push   esi
  408b26:	push   edi
  408b27:	mov    eax,ds:0x411010
  408b2c:	cmp    eax,0x411010
  408b31:	je     0x408b52
  408b33:	cmp    BYTE PTR [eax+0x19],0x4
  408b37:	jb     0x408b52
  408b39:	test   BYTE PTR [eax+0x1c],0x1
  408b3d:	je     0x408b52
  408b3f:	push   DWORD PTR [eax+0x14]
  408b42:	mov    edx,0x4018d4
  408b47:	push   DWORD PTR [eax+0x10]
  408b4a:	push   0x20
  408b4c:	pop    ecx
  408b4d:	call   0x402ad5
  408b52:	mov    ebx,0x411540
  408b57:	push   ebx
  408b58:	call   DWORD PTR ds:0x412128
  408b5e:	mov    eax,ds:0x411410
  408b63:	mov    esi,eax
  408b65:	mov    ecx,DWORD PTR ds:0x411414
  408b6b:	add    eax,0x1
  408b6e:	mov    edi,ecx
  408b70:	mov    ds:0x411410,eax
  408b75:	adc    ecx,0x0
  408b78:	push   ebx
  408b79:	mov    DWORD PTR ds:0x411414,ecx
  408b7f:	call   DWORD PTR ds:0x412148
  408b85:	mov    ecx,DWORD PTR ds:0x411010
  408b8b:	cmp    ecx,0x411010
  408b91:	je     0x408bb4
  408b93:	cmp    BYTE PTR [ecx+0x19],0x4
  408b97:	jb     0x408bb4
  408b99:	test   BYTE PTR [ecx+0x1c],0x1
  408b9d:	je     0x408bb4
  408b9f:	push   0x0
  408ba1:	push   DWORD PTR [ecx+0x14]
  408ba4:	mov    edx,0x4018d4
  408ba9:	push   DWORD PTR [ecx+0x10]
  408bac:	push   0x21
  408bae:	pop    ecx
  408baf:	call   0x402af8
  408bb4:	mov    edx,edi
  408bb6:	mov    eax,esi
  408bb8:	pop    edi
  408bb9:	pop    esi
  408bba:	pop    ebx
  408bbb:	ret    
  408bbc:	int3   
  408bbd:	int3   
  408bbe:	int3   
  408bbf:	int3   
  408bc0:	int3   
  408bc1:	mov    edi,edi
  408bc3:	push   ebp
  408bc4:	mov    ebp,esp
  408bc6:	sub    esp,0x14
  408bc9:	mov    eax,ds:0x41100c
  408bce:	push   ebx
  408bcf:	xor    ebx,ebx
  408bd1:	mov    DWORD PTR [ebp-0x10],eax
  408bd4:	push   esi
  408bd5:	push   edi
  408bd6:	mov    esi,edx
  408bd8:	mov    DWORD PTR [ebp-0x4],ebx
  408bdb:	mov    DWORD PTR [ebp-0xc],ebx
  408bde:	mov    DWORD PTR [ebp-0x8],ebx
  408be1:	mov    eax,ds:0x411010
  408be6:	cmp    eax,0x411010
  408beb:	je     0x408c0c
  408bed:	cmp    BYTE PTR [eax+0x19],0x4
  408bf1:	jb     0x408c0c
  408bf3:	test   BYTE PTR [eax+0x1c],0x1
  408bf7:	je     0x408c0c
  408bf9:	push   DWORD PTR [eax+0x14]
  408bfc:	mov    edx,0x4018d4
  408c01:	push   DWORD PTR [eax+0x10]
  408c04:	push   0x22
  408c06:	pop    ecx
  408c07:	call   0x402ad5
  408c0c:	test   esi,esi
  408c0e:	je     0x408c26
  408c10:	mov    edx,DWORD PTR [ebp+0x8]
  408c13:	mov    ecx,esi
  408c15:	call   0x405844
  408c1a:	cmp    DWORD PTR [esi],ebx
  408c1c:	jne    0x408c26
  408c1e:	push   0x5
  408c20:	pop    esi
  408c21:	jmp    0x408cb2
  408c26:	lea    eax,[ebp-0x8]
  408c29:	xor    edx,edx
  408c2b:	push   eax
  408c2c:	lea    eax,[ebp-0x4]
  408c2f:	mov    ecx,0x4113b8
  408c34:	push   eax
  408c35:	call   0x409973
  408c3a:	mov    esi,eax
  408c3c:	test   esi,esi
  408c3e:	jne    0x408cb2
  408c40:	mov    edi,DWORD PTR [ebp-0x8]
  408c43:	xor    ebx,ebx
  408c45:	mov    ecx,edi
  408c47:	inc    ebx
  408c48:	call   0x409dd9
  408c4d:	mov    ecx,DWORD PTR [ebp-0x10]
  408c50:	lea    eax,[ebp-0xc]
  408c53:	push   eax
  408c54:	push   DWORD PTR [ebp-0x4]
  408c57:	call   0x40a83a
  408c5c:	mov    esi,eax
  408c5e:	test   esi,esi
  408c60:	jne    0x408c98
  408c62:	mov    eax,DWORD PTR [ebp+0xc]
  408c65:	xor    ebx,ebx
  408c67:	mov    DWORD PTR [edi+0x18],eax
  408c6a:	mov    eax,DWORD PTR [ebp-0xc]
  408c6d:	mov    DWORD PTR [edi+0x1c],0x102
  408c74:	mov    DWORD PTR [edi+0x28],eax
  408c77:	call   0x408b22
  408c7c:	mov    ecx,DWORD PTR [ebp-0x4]
  408c7f:	mov    DWORD PTR [edi+0x20],eax
  408c82:	mov    eax,DWORD PTR [ebp+0x10]
  408c85:	mov    DWORD PTR [edi+0x24],edx
  408c88:	mov    edx,DWORD PTR [ebp+0x14]
  408c8b:	mov    DWORD PTR [eax],ecx
  408c8d:	mov    eax,DWORD PTR [edi+0x20]
  408c90:	mov    DWORD PTR [edx],eax
  408c92:	mov    eax,DWORD PTR [edi+0x24]
  408c95:	mov    DWORD PTR [edx+0x4],eax
  408c98:	mov    ecx,edi
  408c9a:	call   0x409e47
  408c9f:	test   ebx,ebx
  408ca1:	je     0x408cb2
  408ca3:	mov    edx,DWORD PTR [ebp-0x4]
  408ca6:	push   ebx
  408ca7:	push   ecx
  408ca8:	mov    ecx,0x4113b8
  408cad:	call   0x409c9a
  408cb2:	mov    eax,ds:0x411010
  408cb7:	cmp    eax,0x411010
  408cbc:	je     0x408cde
  408cbe:	cmp    BYTE PTR [eax+0x19],0x4
  408cc2:	jb     0x408cde
  408cc4:	test   BYTE PTR [eax+0x1c],0x1
  408cc8:	je     0x408cde
  408cca:	push   esi
  408ccb:	push   DWORD PTR [eax+0x14]
  408cce:	mov    edx,0x4018d4
  408cd3:	push   DWORD PTR [eax+0x10]
  408cd6:	push   0x23
  408cd8:	pop    ecx
  408cd9:	call   0x402af8
  408cde:	pop    edi
  408cdf:	mov    eax,esi
  408ce1:	pop    esi
  408ce2:	pop    ebx
  408ce3:	mov    esp,ebp
  408ce5:	pop    ebp
  408ce6:	ret    0x10
  408ce9:	int3   
  408cea:	int3   
  408ceb:	int3   
  408cec:	int3   
  408ced:	int3   
  408cee:	int3   
  408cef:	int3   
  408cf0:	mov    edi,edi
  408cf2:	push   ebp
  408cf3:	mov    ebp,esp
  408cf5:	and    esp,0xfffffff8
  408cf8:	push   ecx
  408cf9:	push   ebx
  408cfa:	push   esi
  408cfb:	xor    esi,esi
  408cfd:	push   edi
  408cfe:	mov    DWORD PTR [esp+0xc],esi
  408d02:	mov    eax,ds:0x411010
  408d07:	cmp    eax,0x411010
  408d0c:	je     0x408d2d
  408d0e:	cmp    BYTE PTR [eax+0x19],0x4
  408d12:	jb     0x408d2d
  408d14:	test   BYTE PTR [eax+0x1c],0x1
  408d18:	je     0x408d2d
  408d1a:	push   DWORD PTR [eax+0x14]
  408d1d:	mov    edx,0x4018d4
  408d22:	push   DWORD PTR [eax+0x10]
  408d25:	push   0x24
  408d27:	pop    ecx
  408d28:	call   0x402ad5
  408d2d:	mov    edx,DWORD PTR [ebp+0x8]
  408d30:	lea    eax,[esp+0xc]
  408d34:	push   eax
  408d35:	push   ecx
  408d36:	push   esi
  408d37:	push   esi
  408d38:	mov    ecx,0x4113b8
  408d3d:	call   0x409b32
  408d42:	mov    ebx,DWORD PTR [esp+0xc]
  408d46:	mov    edi,eax
  408d48:	test   edi,edi
  408d4a:	jne    0x408d66
  408d4c:	mov    ecx,ebx
  408d4e:	call   0x409dd9
  408d53:	mov    DWORD PTR [ebx+0x28],esi
  408d56:	mov    edx,DWORD PTR [ebx+0x1c]
  408d59:	mov    ecx,DWORD PTR [ebx+0x18]
  408d5c:	push   0x2
  408d5e:	pop    esi
  408d5f:	call   0x408a78
  408d64:	mov    edi,eax
  408d66:	mov    ecx,ebx
  408d68:	call   0x409e47
  408d6d:	test   esi,esi
  408d6f:	je     0x408d80
  408d71:	mov    edx,DWORD PTR [ebp+0x8]
  408d74:	push   esi
  408d75:	push   ecx
  408d76:	mov    ecx,0x4113b8
  408d7b:	call   0x409c9a
  408d80:	mov    eax,ds:0x411010
  408d85:	cmp    eax,0x411010
  408d8a:	je     0x408dac
  408d8c:	cmp    BYTE PTR [eax+0x19],0x4
  408d90:	jb     0x408dac
  408d92:	test   BYTE PTR [eax+0x1c],0x1
  408d96:	je     0x408dac
  408d98:	push   edi
  408d99:	push   DWORD PTR [eax+0x14]
  408d9c:	mov    edx,0x4018d4
  408da1:	push   DWORD PTR [eax+0x10]
  408da4:	push   0x25
  408da6:	pop    ecx
  408da7:	call   0x402af8
  408dac:	mov    eax,edi
  408dae:	pop    edi
  408daf:	pop    esi
  408db0:	pop    ebx
  408db1:	mov    esp,ebp
  408db3:	pop    ebp
  408db4:	ret    0x4
  408db7:	int3   
  408db8:	int3   
  408db9:	int3   
  408dba:	int3   
  408dbb:	int3   
  408dbc:	mov    edi,edi
  408dbe:	push   ebp
  408dbf:	mov    ebp,esp
  408dc1:	sub    esp,0xc
  408dc4:	push   ebx
  408dc5:	push   esi
  408dc6:	mov    ebx,ecx
  408dc8:	xor    esi,esi
  408dca:	push   edi
  408dcb:	mov    DWORD PTR [ebp-0x8],ebx
  408dce:	mov    DWORD PTR [ebp-0x4],esi
  408dd1:	mov    eax,ds:0x411010
  408dd6:	cmp    eax,0x411010
  408ddb:	je     0x408dfc
  408ddd:	cmp    BYTE PTR [eax+0x19],0x4
  408de1:	jb     0x408dfc
  408de3:	test   BYTE PTR [eax+0x1c],0x1
  408de7:	je     0x408dfc
  408de9:	push   DWORD PTR [eax+0x14]
  408dec:	mov    edx,0x4018d4
  408df1:	push   DWORD PTR [eax+0x10]
  408df4:	push   0x26
  408df6:	pop    ecx
  408df7:	call   0x402ad5
  408dfc:	lea    eax,[ebp-0x4]
  408dff:	mov    edx,ebx
  408e01:	push   eax
  408e02:	push   ecx
  408e03:	push   esi
  408e04:	push   esi
  408e05:	mov    ecx,0x4113b8
  408e0a:	call   0x409b32
  408e0f:	mov    esi,eax
  408e11:	test   esi,esi
  408e13:	jne    0x408ec2
  408e19:	mov    edi,DWORD PTR [ebp-0x4]
  408e1c:	xor    ebx,ebx
  408e1e:	mov    ecx,edi
  408e20:	inc    ebx
  408e21:	call   0x409dd9
  408e26:	mov    eax,DWORD PTR [ebp+0x8]
  408e29:	cmp    eax,DWORD PTR [edi+0x20]
  408e2c:	jne    0x408e75
  408e2e:	mov    eax,DWORD PTR [ebp+0xc]
  408e31:	cmp    eax,DWORD PTR [edi+0x24]
  408e34:	jne    0x408e75
  408e36:	mov    ecx,DWORD PTR [edi+0x28]
  408e39:	test   ecx,ecx
  408e3b:	jne    0x408e62
  408e3d:	mov    eax,0x21d
  408e42:	mov    esi,eax
  408e44:	mov    ecx,DWORD PTR ds:0x411010
  408e4a:	cmp    ecx,0x411010
  408e50:	je     0x408ea4
  408e52:	test   BYTE PTR [ecx+0x1c],bl
  408e55:	je     0x408ea4
  408e57:	push   eax
  408e58:	push   DWORD PTR [ecx+0x14]
  408e5b:	push   DWORD PTR [ecx+0x10]
  408e5e:	push   0x28
  408e60:	jmp    0x408e99
  408e62:	call   0x40aa3f
  408e67:	mov    esi,eax
  408e69:	test   esi,esi
  408e6b:	jne    0x408ea4
  408e6d:	and    DWORD PTR [edi+0x28],eax
  408e70:	push   0x2
  408e72:	pop    ebx
  408e73:	jmp    0x408ea4
  408e75:	mov    eax,0x21d
  408e7a:	mov    esi,eax
  408e7c:	mov    ecx,DWORD PTR ds:0x411010
  408e82:	cmp    ecx,0x411010
  408e88:	je     0x408ea4
  408e8a:	test   BYTE PTR [ecx+0x1c],0x1
  408e8e:	je     0x408ea4
  408e90:	push   eax
  408e91:	push   DWORD PTR [ecx+0x14]
  408e94:	push   DWORD PTR [ecx+0x10]
  408e97:	push   0x27
  408e99:	mov    edx,0x4018d4
  408e9e:	pop    ecx
  408e9f:	call   0x402af8
  408ea4:	mov    ecx,edi
  408ea6:	call   0x409e47
  408eab:	test   ebx,ebx
  408ead:	je     0x408ebe
  408eaf:	mov    edx,DWORD PTR [ebp-0x8]
  408eb2:	push   ebx
  408eb3:	push   ecx
  408eb4:	mov    ecx,0x4113b8
  408eb9:	call   0x409c9a
  408ebe:	test   esi,esi
  408ec0:	je     0x408ee7
  408ec2:	mov    eax,ds:0x411010
  408ec7:	cmp    eax,0x411010
  408ecc:	je     0x408f13
  408ece:	test   BYTE PTR [eax+0x1c],0x1
  408ed2:	je     0x408eec
  408ed4:	push   DWORD PTR [eax+0x14]
  408ed7:	mov    edx,0x4018d4
  408edc:	push   DWORD PTR [eax+0x10]
  408edf:	push   0x29
  408ee1:	pop    ecx
  408ee2:	call   0x402ad5
  408ee7:	mov    eax,ds:0x411010
  408eec:	cmp    eax,0x411010
  408ef1:	je     0x408f13
  408ef3:	cmp    BYTE PTR [eax+0x19],0x4
  408ef7:	jb     0x408f13
  408ef9:	test   BYTE PTR [eax+0x1c],0x1
  408efd:	je     0x408f13
  408eff:	push   esi
  408f00:	push   DWORD PTR [eax+0x14]
  408f03:	mov    edx,0x4018d4
  408f08:	push   DWORD PTR [eax+0x10]
  408f0b:	push   0x2a
  408f0d:	pop    ecx
  408f0e:	call   0x402af8
  408f13:	pop    edi
  408f14:	mov    eax,esi
  408f16:	pop    esi
  408f17:	pop    ebx
  408f18:	mov    esp,ebp
  408f1a:	pop    ebp
  408f1b:	ret    0x8
  408f1e:	int3   
  408f1f:	int3   
  408f20:	int3   
  408f21:	int3   
  408f22:	int3   
  408f23:	mov    edi,edi
  408f25:	push   esi
  408f26:	mov    edx,ecx
  408f28:	xor    esi,esi
  408f2a:	test   edx,edx
  408f2c:	jle    0x408f33
  408f2e:	cmp    edx,0x2
  408f31:	jle    0x408f60
  408f33:	mov    esi,0x139f
  408f38:	mov    ecx,DWORD PTR ds:0x411010
  408f3e:	cmp    ecx,0x411010
  408f44:	je     0x408f60
  408f46:	test   BYTE PTR [ecx+0x1c],0x1
  408f4a:	je     0x408f60
  408f4c:	push   edx
  408f4d:	push   DWORD PTR [ecx+0x14]
  408f50:	mov    edx,0x4018f8
  408f55:	push   DWORD PTR [ecx+0x10]
  408f58:	push   0xa
  408f5a:	pop    ecx
  408f5b:	call   0x402af8
  408f60:	mov    eax,esi
  408f62:	pop    esi
  408f63:	ret    
  408f64:	int3   
  408f65:	int3   
  408f66:	int3   
  408f67:	int3   
  408f68:	int3   
  408f69:	mov    edi,edi
  408f6b:	push   ebp
  408f6c:	mov    ebp,esp
  408f6e:	push   ecx
  408f6f:	push   ebx
  408f70:	push   esi
  408f71:	push   edi
  408f72:	mov    DWORD PTR [ebp-0x4],edx
  408f75:	mov    edi,ecx
  408f77:	xor    ebx,ebx
  408f79:	mov    eax,ds:0x411010
  408f7e:	cmp    eax,0x411010
  408f83:	je     0x408fa4
  408f85:	cmp    BYTE PTR [eax+0x19],0x4
  408f89:	jb     0x408fa4
  408f8b:	test   BYTE PTR [eax+0x1c],0x1
  408f8f:	je     0x408fa4
  408f91:	push   DWORD PTR [eax+0x14]
  408f94:	mov    edx,0x4018f8
  408f99:	push   DWORD PTR [eax+0x10]
  408f9c:	push   0xb
  408f9e:	pop    ecx
  408f9f:	call   0x402ad5
  408fa4:	cmp    DWORD PTR ds:0x411420,0x1
  408fab:	je     0x408fc5
  408fad:	push   0x411420
  408fb2:	mov    edx,0x411424
  408fb7:	mov    ecx,0x411520
  408fbc:	call   0x40ab90
  408fc1:	mov    esi,eax
  408fc3:	jmp    0x408fc7
  408fc5:	xor    esi,esi
  408fc7:	test   esi,esi
  408fc9:	jne    0x409032
  408fcb:	push   0x411520
  408fd0:	call   DWORD PTR ds:0x412128
  408fd6:	xor    ebx,ebx
  408fd8:	mov    eax,edi
  408fda:	push   0x10
  408fdc:	inc    ebx
  408fdd:	pop    ecx
  408fde:	mov    BYTE PTR [eax],0x0
  408fe1:	inc    eax
  408fe2:	sub    ecx,0x1
  408fe5:	jne    0x408fde
  408fe7:	push   edi
  408fe8:	call   0x40e1de
  408fed:	mov    esi,eax
  408fef:	test   esi,esi
  408ff1:	je     0x409021
  408ff3:	mov    eax,ds:0x411010
  408ff8:	cmp    eax,0x411010
  408ffd:	je     0x40902e
  408fff:	cmp    BYTE PTR [eax+0x19],0x1
  409003:	jb     0x40902e
  409005:	test   BYTE PTR [eax+0x1c],0x1
  409009:	je     0x40902e
  40900b:	push   esi
  40900c:	push   DWORD PTR [eax+0x14]
  40900f:	mov    edx,0x4018f8
  409014:	push   DWORD PTR [eax+0x10]
  409017:	push   0xc
  409019:	pop    ecx
  40901a:	call   0x402af8
  40901f:	jmp    0x40902e
  409021:	mov    eax,DWORD PTR [ebp-0x4]
  409024:	mov    DWORD PTR [edi+0x8],eax
  409027:	mov    DWORD PTR [edi+0xc],0x2
  40902e:	test   esi,esi
  409030:	je     0x40903d
  409032:	mov    ecx,edi
  409034:	call   0x409082
  409039:	test   ebx,ebx
  40903b:	je     0x409048
  40903d:	push   0x411520
  409042:	call   DWORD PTR ds:0x412148
  409048:	mov    eax,ds:0x411010
  40904d:	cmp    eax,0x411010
  409052:	je     0x409074
  409054:	cmp    BYTE PTR [eax+0x19],0x4
  409058:	jb     0x409074
  40905a:	test   BYTE PTR [eax+0x1c],0x1
  40905e:	je     0x409074
  409060:	push   esi
  409061:	push   DWORD PTR [eax+0x14]
  409064:	mov    edx,0x4018f8
  409069:	push   DWORD PTR [eax+0x10]
  40906c:	push   0xd
  40906e:	pop    ecx
  40906f:	call   0x402af8
  409074:	pop    edi
  409075:	mov    eax,esi
  409077:	pop    esi
  409078:	pop    ebx
  409079:	mov    esp,ebp
  40907b:	pop    ebp
  40907c:	ret    
  40907d:	int3   
  40907e:	int3   
  40907f:	int3   
  409080:	int3   
  409081:	int3   
  409082:	mov    edi,edi
  409084:	push   ebx
  409085:	push   esi
  409086:	push   edi
  409087:	mov    esi,ecx
  409089:	xor    edi,edi
  40908b:	mov    eax,ds:0x411010
  409090:	xor    ebx,ebx
  409092:	inc    ebx
  409093:	cmp    eax,0x411010
  409098:	je     0x4090bd
  40909a:	cmp    BYTE PTR [eax+0x19],0x4
  40909e:	jb     0x4090bd
  4090a0:	test   BYTE PTR [eax+0x1c],bl
  4090a3:	je     0x4090bd
  4090a5:	push   DWORD PTR [eax+0x14]
  4090a8:	mov    edx,0x4018f8
  4090ad:	push   DWORD PTR [eax+0x10]
  4090b0:	push   0xe
  4090b2:	pop    ecx
  4090b3:	call   0x402ad5
  4090b8:	mov    eax,ds:0x411010
  4090bd:	cmp    DWORD PTR [esi+0x4],edi
  4090c0:	je     0x4090ec
  4090c2:	mov    edi,0x139f
  4090c7:	cmp    eax,0x411010
  4090cc:	je     0x409160
  4090d2:	test   BYTE PTR [eax+0x1c],bl
  4090d5:	je     0x40913a
  4090d7:	push   DWORD PTR [eax+0x14]
  4090da:	mov    edx,0x4018f8
  4090df:	push   DWORD PTR [eax+0x10]
  4090e2:	push   0xf
  4090e4:	pop    ecx
  4090e5:	call   0x402ad5
  4090ea:	jmp    0x409135
  4090ec:	mov    ecx,DWORD PTR [esi]
  4090ee:	test   ecx,ecx
  4090f0:	je     0x409129
  4090f2:	call   0x40e296
  4090f7:	mov    edi,eax
  4090f9:	test   edi,edi
  4090fb:	je     0x409129
  4090fd:	mov    eax,ds:0x411010
  409102:	cmp    eax,0x411010
  409107:	je     0x409160
  409109:	cmp    BYTE PTR [eax+0x19],bl
  40910c:	jb     0x40913a
  40910e:	test   BYTE PTR [eax+0x1c],bl
  409111:	je     0x40913a
  409113:	push   edi
  409114:	push   DWORD PTR [eax+0x14]
  409117:	mov    edx,0x4018f8
  40911c:	push   DWORD PTR [eax+0x10]
  40911f:	push   0x10
  409121:	pop    ecx
  409122:	call   0x402af8
  409127:	jmp    0x409135
  409129:	push   0x10
  40912b:	pop    eax
  40912c:	mov    BYTE PTR [esi],0x0
  40912f:	inc    esi
  409130:	sub    eax,0x1
  409133:	jne    0x40912c
  409135:	mov    eax,ds:0x411010
  40913a:	cmp    eax,0x411010
  40913f:	je     0x409160
  409141:	cmp    BYTE PTR [eax+0x19],0x4
  409145:	jb     0x409160
  409147:	test   BYTE PTR [eax+0x1c],bl
  40914a:	je     0x409160
  40914c:	push   edi
  40914d:	push   DWORD PTR [eax+0x14]
  409150:	mov    edx,0x4018f8
  409155:	push   DWORD PTR [eax+0x10]
  409158:	push   0x11
  40915a:	pop    ecx
  40915b:	call   0x402af8
  409160:	pop    edi
  409161:	pop    esi
  409162:	pop    ebx
  409163:	ret    
  409164:	int3   
  409165:	int3   
  409166:	int3   
  409167:	int3   
  409168:	int3   
  409169:	mov    edi,edi
  40916b:	push   ebp
  40916c:	mov    ebp,esp
  40916e:	sub    esp,0xc
  409171:	and    DWORD PTR [ebp-0x8],0x0
  409175:	push   ebx
  409176:	push   esi
  409177:	push   edi
  409178:	mov    ebx,ecx
  40917a:	mov    DWORD PTR [ebp-0x4],0x4018f7
  409181:	mov    eax,ds:0x411010
  409186:	cmp    eax,0x411010
  40918b:	je     0x4091ac
  40918d:	cmp    BYTE PTR [eax+0x19],0x4
  409191:	jb     0x4091ac
  409193:	test   BYTE PTR [eax+0x1c],0x1
  409197:	je     0x4091ac
  409199:	push   DWORD PTR [eax+0x14]
  40919c:	mov    edx,0x4018f8
  4091a1:	push   DWORD PTR [eax+0x10]
  4091a4:	push   0x12
  4091a6:	pop    ecx
  4091a7:	call   0x402ad5
  4091ac:	push   0x411520
  4091b1:	call   DWORD PTR ds:0x412128
  4091b7:	mov    ecx,DWORD PTR [ebx+0xc]
  4091ba:	call   0x408f23
  4091bf:	mov    esi,eax
  4091c1:	test   esi,esi
  4091c3:	jne    0x40928e
  4091c9:	mov    eax,DWORD PTR [ebx+0x8]
  4091cc:	sub    eax,0x1
  4091cf:	je     0x4091df
  4091d1:	sub    eax,0x1
  4091d4:	jne    0x4091e6
  4091d6:	mov    DWORD PTR [ebp-0x4],0x4018ec
  4091dd:	jmp    0x4091e6
  4091df:	mov    DWORD PTR [ebp-0x4],0x4018e4
  4091e6:	mov    edi,DWORD PTR [ebx+0x4]
  4091e9:	jmp    0x409259
  4091eb:	lea    eax,[ebp-0x8]
  4091ee:	push   eax
  4091ef:	push   0x8
  4091f1:	call   0x409fb0
  4091f6:	mov    esi,eax
  4091f8:	test   esi,esi
  4091fa:	jne    0x40928e
  409200:	mov    ecx,DWORD PTR [ebp-0x8]
  409203:	push   0x10
  409205:	push   ecx
  409206:	push   0x4092e0
  40920b:	mov    DWORD PTR [ecx],ebx
  40920d:	mov    eax,DWORD PTR [edi]
  40920f:	mov    DWORD PTR [ecx+0x4],eax
  409212:	call   DWORD PTR ds:0x412178
  409218:	test   eax,eax
  40921a:	jne    0x409228
  40921c:	call   DWORD PTR ds:0x41208c
  409222:	mov    esi,eax
  409224:	test   esi,esi
  409226:	jne    0x40925f
  409228:	mov    eax,ds:0x411010
  40922d:	cmp    eax,0x411010
  409232:	je     0x409256
  409234:	cmp    BYTE PTR [eax+0x19],0x3
  409238:	jb     0x409256
  40923a:	test   BYTE PTR [eax+0x1c],0x1
  40923e:	je     0x409256
  409240:	push   DWORD PTR [ebp-0x4]
  409243:	mov    edx,0x4018f8
  409248:	push   DWORD PTR [eax+0x14]
  40924b:	push   DWORD PTR [eax+0x10]
  40924e:	push   0x14
  409250:	pop    ecx
  409251:	call   0x405743
  409256:	mov    edi,DWORD PTR [edi+0xc]
  409259:	test   edi,edi
  40925b:	jne    0x4091eb
  40925d:	jmp    0x40928e
  40925f:	mov    eax,ds:0x411010
  409264:	cmp    eax,0x411010
  409269:	je     0x40928e
  40926b:	cmp    BYTE PTR [eax+0x19],0x1
  40926f:	jb     0x40928e
  409271:	test   BYTE PTR [eax+0x1c],0x1
  409275:	je     0x40928e
  409277:	push   esi
  409278:	push   DWORD PTR [ebp-0x4]
  40927b:	mov    edx,0x4018f8
  409280:	push   DWORD PTR [eax+0x14]
  409283:	push   DWORD PTR [eax+0x10]
  409286:	push   0x13
  409288:	pop    ecx
  409289:	call   0x405792
  40928e:	push   0x411520
  409293:	call   DWORD PTR ds:0x412148
  409299:	mov    eax,ds:0x411010
  40929e:	cmp    eax,0x411010
  4092a3:	je     0x4092c5
  4092a5:	cmp    BYTE PTR [eax+0x19],0x4
  4092a9:	jb     0x4092c5
  4092ab:	test   BYTE PTR [eax+0x1c],0x1
  4092af:	je     0x4092c5
  4092b1:	push   esi
  4092b2:	push   DWORD PTR [eax+0x14]
  4092b5:	mov    edx,0x4018f8
  4092ba:	push   DWORD PTR [eax+0x10]
  4092bd:	push   0x15
  4092bf:	pop    ecx
  4092c0:	call   0x402af8
  4092c5:	pop    edi
  4092c6:	mov    eax,esi
  4092c8:	pop    esi
  4092c9:	pop    ebx
  4092ca:	mov    esp,ebp
  4092cc:	pop    ebp
  4092cd:	ret    
  4092ce:	int3   
  4092cf:	int3   
  4092d0:	int3   
  4092d1:	int3   
  4092d2:	int3   
  4092d3:	int3   
  4092d4:	int3   
  4092d5:	int3   
  4092d6:	int3   
  4092d7:	int3   
  4092d8:	int3   
  4092d9:	int3   
  4092da:	int3   
  4092db:	int3   
  4092dc:	int3   
  4092dd:	int3   
  4092de:	int3   
  4092df:	int3   
  4092e0:	mov    edi,edi
  4092e2:	push   ebp
  4092e3:	mov    ebp,esp
  4092e5:	and    esp,0xfffffff8
  4092e8:	sub    esp,0x1c
  4092eb:	mov    eax,ds:0x411004
  4092f0:	xor    eax,esp
  4092f2:	mov    DWORD PTR [esp+0x18],eax
  4092f6:	push   ebx
  4092f7:	xor    eax,eax
  4092f9:	push   esi
  4092fa:	push   edi
  4092fb:	mov    esi,eax
  4092fd:	mov    DWORD PTR [esp+0x1c],eax
  409301:	mov    DWORD PTR [esp+0x14],eax
  409305:	mov    DWORD PTR [esp+0x18],eax
  409309:	mov    eax,ds:0x411010
  40930e:	mov    ebx,0x411010
  409313:	cmp    eax,ebx
  409315:	je     0x40935e
  409317:	cmp    BYTE PTR [eax+0x19],0x4
  40931b:	jb     0x40933b
  40931d:	test   BYTE PTR [eax+0x1c],0x1
  409321:	je     0x40933b
  409323:	push   DWORD PTR [eax+0x14]
  409326:	mov    edx,0x4018f8
  40932b:	push   DWORD PTR [eax+0x10]
  40932e:	push   0x16
  409330:	pop    ecx
  409331:	call   0x402ad5
  409336:	mov    eax,ds:0x411010
  40933b:	cmp    eax,ebx
  40933d:	je     0x40935e
  40933f:	cmp    BYTE PTR [eax+0x19],0x3
  409343:	jb     0x40935e
  409345:	test   BYTE PTR [eax+0x1c],0x1
  409349:	je     0x40935e
  40934b:	push   DWORD PTR [eax+0x14]
  40934e:	mov    edx,0x4018f8
  409353:	push   DWORD PTR [eax+0x10]
  409356:	push   0x17
  409358:	pop    ecx
  409359:	call   0x402ad5
  40935e:	mov    eax,DWORD PTR [ebp+0x8]
  409361:	push   eax
  409362:	mov    edi,DWORD PTR [eax]
  409364:	mov    ebx,DWORD PTR [eax+0x4]
  409367:	mov    DWORD PTR [esp+0x24],edi
  40936b:	mov    DWORD PTR [esp+0x14],ebx
  40936f:	call   0x40a080
  409374:	lea    eax,[esp+0x1c]
  409378:	mov    edx,ebx
  40937a:	push   eax
  40937b:	push   ecx
  40937c:	push   0x0
  40937e:	push   0x0
  409380:	mov    ecx,edi
  409382:	call   0x409b32
  409387:	mov    edi,eax
  409389:	test   edi,edi
  40938b:	jne    0x40945a
  409391:	mov    ebx,DWORD PTR [esp+0x1c]
  409395:	inc    eax
  409396:	mov    DWORD PTR [esp+0xc],eax
  40939a:	cmp    DWORD PTR [ebx+0x10],eax
  40939d:	jne    0x409412
  40939f:	lea    edx,[esp+0x18]
  4093a3:	lea    ecx,[esp+0x14]
  4093a7:	call   0x405844
  4093ac:	cmp    DWORD PTR [esp+0x14],esi
  4093b0:	jne    0x4093ba
  4093b2:	push   0x5
  4093b4:	pop    edi
  4093b5:	jmp    0x409452
  4093ba:	mov    ecx,ebx
  4093bc:	call   0x409dd9
  4093c1:	mov    esi,DWORD PTR [esp+0x18]
  4093c5:	xor    eax,eax
  4093c7:	cmp    DWORD PTR [esi+0x8],eax
  4093ca:	je     0x409405
  4093cc:	cmp    DWORD PTR [ebx+0x1c],eax
  4093cf:	je     0x409405
  4093d1:	push   eax
  4093d2:	push   eax
  4093d3:	mov    edx,0x4017e4
  4093d8:	xor    ecx,ecx
  4093da:	call   0x406502
  4093df:	mov    esi,DWORD PTR [esi+0x8]
  4093e2:	mov    ecx,esi
  4093e4:	push   DWORD PTR [ebx+0x1c]
  4093e7:	call   DWORD PTR ds:0x41221c
  4093ed:	call   esi
  4093ef:	mov    esi,DWORD PTR [esp+0xc]
  4093f3:	mov    edx,0x4017e4
  4093f8:	push   0x0
  4093fa:	push   0x0
  4093fc:	mov    ecx,esi
  4093fe:	call   0x406502
  409403:	jmp    0x409409
  409405:	mov    esi,DWORD PTR [esp+0xc]
  409409:	mov    ecx,ebx
  40940b:	call   0x409e47
  409410:	jmp    0x409456
  409412:	cmp    DWORD PTR [ebx+0x10],0x2
  409416:	jne    0x409425
  409418:	push   DWORD PTR [esp+0x10]
  40941c:	call   0x408cf0
  409421:	mov    edi,eax
  409423:	jmp    0x409452
  409425:	mov    edi,0x139f
  40942a:	mov    eax,ds:0x411010
  40942f:	cmp    eax,0x411010
  409434:	je     0x409452
  409436:	test   BYTE PTR [eax+0x1c],0x1
  40943a:	je     0x409452
  40943c:	push   DWORD PTR [ebx+0x10]
  40943f:	mov    edx,0x4018f8
  409444:	push   DWORD PTR [eax+0x14]
  409447:	push   DWORD PTR [eax+0x10]
  40944a:	push   0x18
  40944c:	pop    ecx
  40944d:	call   0x402af8
  409452:	mov    esi,DWORD PTR [esp+0xc]
  409456:	mov    ebx,DWORD PTR [esp+0x10]
  40945a:	lea    ecx,[esp+0x14]
  40945e:	call   0x405924
  409463:	test   esi,esi
  409465:	je     0x409474
  409467:	push   esi
  409468:	push   ecx
  409469:	mov    ecx,DWORD PTR [esp+0x28]
  40946d:	mov    edx,ebx
  40946f:	call   0x409c9a
  409474:	mov    eax,ds:0x411010
  409479:	cmp    eax,0x411010
  40947e:	je     0x4094a0
  409480:	cmp    BYTE PTR [eax+0x19],0x4
  409484:	jb     0x4094a0
  409486:	test   BYTE PTR [eax+0x1c],0x1
  40948a:	je     0x4094a0
  40948c:	push   edi
  40948d:	push   DWORD PTR [eax+0x14]
  409490:	mov    edx,0x4018f8
  409495:	push   DWORD PTR [eax+0x10]
  409498:	push   0x19
  40949a:	pop    ecx
  40949b:	call   0x402af8
  4094a0:	mov    ecx,DWORD PTR [esp+0x24]
  4094a4:	mov    eax,edi
  4094a6:	pop    edi
  4094a7:	pop    esi
  4094a8:	pop    ebx
  4094a9:	xor    ecx,esp
  4094ab:	call   0x4101d0
  4094b0:	mov    esp,ebp
  4094b2:	pop    ebp
  4094b3:	ret    0x4
  4094b6:	int3   
  4094b7:	int3   
  4094b8:	int3   
  4094b9:	int3   
  4094ba:	int3   
  4094bb:	mov    edi,edi
  4094bd:	push   ebx
  4094be:	push   esi
  4094bf:	push   edi
  4094c0:	mov    edi,ecx
  4094c2:	mov    eax,ds:0x411010
  4094c7:	mov    ebx,0x411010
  4094cc:	cmp    eax,ebx
  4094ce:	je     0x4094ef
  4094d0:	cmp    BYTE PTR [eax+0x19],0x4
  4094d4:	jb     0x4094ef
  4094d6:	test   BYTE PTR [eax+0x1c],0x1
  4094da:	je     0x4094ef
  4094dc:	push   DWORD PTR [eax+0x14]
  4094df:	mov    edx,0x4018f8
  4094e4:	push   DWORD PTR [eax+0x10]
  4094e7:	push   0x1a
  4094e9:	pop    ecx
  4094ea:	call   0x402ad5
  4094ef:	push   0x411520
  4094f4:	call   DWORD PTR ds:0x412128
  4094fa:	mov    ecx,DWORD PTR [edi+0xc]
  4094fd:	call   0x408f23
  409502:	mov    esi,eax
  409504:	test   esi,esi
  409506:	jne    0x40950f
  409508:	mov    DWORD PTR [edi+0xc],0x1
  40950f:	push   0x411520
  409514:	call   DWORD PTR ds:0x412148
  40951a:	mov    eax,ds:0x411010
  40951f:	cmp    eax,ebx
  409521:	je     0x409543
  409523:	cmp    BYTE PTR [eax+0x19],0x4
  409527:	jb     0x409543
  409529:	test   BYTE PTR [eax+0x1c],0x1
  40952d:	je     0x409543
  40952f:	push   esi
  409530:	push   DWORD PTR [eax+0x14]
  409533:	mov    edx,0x4018f8
  409538:	push   DWORD PTR [eax+0x10]
  40953b:	push   0x1b
  40953d:	pop    ecx
  40953e:	call   0x402af8
  409543:	pop    edi
  409544:	mov    eax,esi
  409546:	pop    esi
  409547:	pop    ebx
  409548:	ret    
  409549:	int3   
  40954a:	int3   
  40954b:	int3   
  40954c:	int3   
  40954d:	int3   
  40954e:	mov    edi,edi
  409550:	push   ebx
  409551:	push   esi
  409552:	push   edi
  409553:	mov    edi,ecx
  409555:	xor    esi,esi
  409557:	mov    eax,ds:0x411010
  40955c:	mov    ebx,0x411010
  409561:	cmp    eax,ebx
  409563:	je     0x409584
  409565:	cmp    BYTE PTR [eax+0x19],0x4
  409569:	jb     0x409584
  40956b:	test   BYTE PTR [eax+0x1c],0x1
  40956f:	je     0x409584
  409571:	push   DWORD PTR [eax+0x14]
  409574:	mov    edx,0x4018f8
  409579:	push   DWORD PTR [eax+0x10]
  40957c:	push   0x1c
  40957e:	pop    ecx
  40957f:	call   0x402ad5
  409584:	push   0x411520
  409589:	call   DWORD PTR ds:0x412128
  40958f:	mov    ecx,DWORD PTR [edi+0xc]
  409592:	cmp    ecx,0x1
  409595:	je     0x4095bf
  409597:	push   0x5
  409599:	pop    esi
  40959a:	mov    eax,ds:0x411010
  40959f:	cmp    eax,ebx
  4095a1:	je     0x4095f4
  4095a3:	test   BYTE PTR [eax+0x1c],0x1
  4095a7:	je     0x4095f4
  4095a9:	push   ecx
  4095aa:	push   DWORD PTR [eax+0x14]
  4095ad:	mov    edx,0x4018f8
  4095b2:	push   DWORD PTR [eax+0x10]
  4095b5:	push   0x1d
  4095b7:	pop    ecx
  4095b8:	call   0x402af8
  4095bd:	jmp    0x4095f4
  4095bf:	cmp    DWORD PTR [edi+0x4],esi
  4095c2:	je     0x4095ed
  4095c4:	mov    esi,0x10d3
  4095c9:	mov    eax,ds:0x411010
  4095ce:	cmp    eax,ebx
  4095d0:	je     0x4095f4
  4095d2:	test   BYTE PTR [eax+0x1c],0x1
  4095d6:	je     0x4095f4
  4095d8:	push   DWORD PTR [eax+0x14]
  4095db:	mov    edx,0x4018f8
  4095e0:	push   DWORD PTR [eax+0x10]
  4095e3:	push   0x1e
  4095e5:	pop    ecx
  4095e6:	call   0x402ad5
  4095eb:	jmp    0x4095f4
  4095ed:	mov    ecx,edi
  4095ef:	call   0x409082
  4095f4:	push   0x411520
  4095f9:	call   DWORD PTR ds:0x412148
  4095ff:	mov    ecx,DWORD PTR ds:0x411010
  409605:	cmp    ecx,ebx
  409607:	je     0x409629
  409609:	cmp    BYTE PTR [ecx+0x19],0x4
  40960d:	jb     0x409629
  40960f:	test   BYTE PTR [ecx+0x1c],0x1
  409613:	je     0x409629
  409615:	push   esi
  409616:	push   DWORD PTR [ecx+0x14]
  409619:	mov    edx,0x4018f8
  40961e:	push   DWORD PTR [ecx+0x10]
  409621:	push   0x1f
  409623:	pop    ecx
  409624:	call   0x402af8
  409629:	pop    edi
  40962a:	mov    eax,esi
  40962c:	pop    esi
  40962d:	pop    ebx
  40962e:	ret    
  40962f:	int3   
  409630:	int3   
  409631:	int3   
  409632:	int3   
  409633:	int3   
  409634:	mov    edi,edi
  409636:	push   ebp
  409637:	mov    ebp,esp
  409639:	sub    esp,0xc
  40963c:	and    DWORD PTR [ebp-0x8],0x0
  409640:	push   ebx
  409641:	push   esi
  409642:	mov    ebx,edx
  409644:	mov    DWORD PTR [ebp-0xc],ecx
  409647:	push   edi
  409648:	mov    DWORD PTR [ebp-0x4],ebx
  40964b:	mov    eax,ds:0x411010
  409650:	cmp    eax,0x411010
  409655:	je     0x409676
  409657:	cmp    BYTE PTR [eax+0x19],0x4
  40965b:	jb     0x409676
  40965d:	test   BYTE PTR [eax+0x1c],0x1
  409661:	je     0x409676
  409663:	push   DWORD PTR [eax+0x14]
  409666:	mov    edx,0x4018f8
  40966b:	push   DWORD PTR [eax+0x10]
  40966e:	push   0x20
  409670:	pop    ecx
  409671:	call   0x402ad5
  409676:	and    DWORD PTR [ebx],0x0
  409679:	lea    eax,[ebp-0x8]
  40967c:	push   eax
  40967d:	mov    ebx,0x88
  409682:	push   ebx
  409683:	call   0x409fb0
  409688:	mov    esi,DWORD PTR [ebp-0x8]
  40968b:	mov    edi,eax
  40968d:	test   edi,edi
  40968f:	jne    0x409721
  409695:	mov    eax,esi
  409697:	mov    BYTE PTR [eax],0x0
  40969a:	inc    eax
  40969b:	sub    ebx,0x1
  40969e:	jne    0x409697
  4096a0:	lea    ecx,[esi+0x40]
  4096a3:	call   0x40e00e
  4096a8:	mov    edi,eax
  4096aa:	test   edi,edi
  4096ac:	je     0x4096e8
  4096ae:	mov    eax,ds:0x411010
  4096b3:	cmp    eax,0x411010
  4096b8:	je     0x4096df
  4096ba:	cmp    BYTE PTR [eax+0x19],0x1
  4096be:	jb     0x4096df
  4096c0:	test   BYTE PTR [eax+0x1c],0x1
  4096c4:	je     0x4096df
  4096c6:	push   edi
  4096c7:	push   DWORD PTR [eax+0x14]
  4096ca:	mov    edx,0x4018f8
  4096cf:	push   DWORD PTR [eax+0x10]
  4096d2:	push   0x21
  4096d4:	pop    ecx
  4096d5:	call   0x402af8
  4096da:	mov    eax,ds:0x411010
  4096df:	mov    ebx,DWORD PTR [ebp-0x4]
  4096e2:	test   edi,edi
  4096e4:	je     0x409732
  4096e6:	jmp    0x409724
  4096e8:	mov    ecx,DWORD PTR [ebp-0xc]
  4096eb:	mov    DWORD PTR [esi+0x84],0x1
  4096f5:	mov    DWORD PTR [esi+0x4],ecx
  4096f8:	and    DWORD PTR [esi+0x8],0x0
  4096fc:	mov    eax,DWORD PTR [ecx+0x4]
  4096ff:	mov    DWORD PTR [esi+0xc],eax
  409702:	mov    eax,DWORD PTR [ecx+0x4]
  409705:	test   eax,eax
  409707:	je     0x40970c
  409709:	mov    DWORD PTR [eax+0x8],esi
  40970c:	mov    ebx,DWORD PTR [ebp-0x4]
  40970f:	mov    eax,DWORD PTR [ecx+0x8]
  409712:	mov    DWORD PTR [ecx+0x4],esi
  409715:	mov    DWORD PTR [esi+0x10],eax
  409718:	mov    eax,ds:0x411010
  40971d:	mov    DWORD PTR [ebx],esi
  40971f:	jmp    0x4096e2
  409721:	mov    ebx,DWORD PTR [ebp-0x4]
  409724:	push   esi
  409725:	call   0x409770
  40972a:	and    DWORD PTR [ebx],0x0
  40972d:	mov    eax,ds:0x411010
  409732:	cmp    eax,0x411010
  409737:	je     0x409759
  409739:	cmp    BYTE PTR [eax+0x19],0x4
  40973d:	jb     0x409759
  40973f:	test   BYTE PTR [eax+0x1c],0x1
  409743:	je     0x409759
  409745:	push   edi
  409746:	push   DWORD PTR [eax+0x14]
  409749:	mov    edx,0x4018f8
  40974e:	push   DWORD PTR [eax+0x10]
  409751:	push   0x22
  409753:	pop    ecx
  409754:	call   0x402af8
  409759:	mov    eax,edi
  40975b:	pop    edi
  40975c:	pop    esi
  40975d:	pop    ebx
  40975e:	mov    esp,ebp
  409760:	pop    ebp
  409761:	ret    
  409762:	int3   
  409763:	int3   
  409764:	int3   
  409765:	int3   
  409766:	int3   
  409767:	int3   
  409768:	int3   
  409769:	int3   
  40976a:	int3   
  40976b:	int3   
  40976c:	int3   
  40976d:	int3   
  40976e:	int3   
  40976f:	int3   
  409770:	mov    edi,edi
  409772:	push   ebp
  409773:	mov    ebp,esp
  409775:	and    esp,0xfffffff8
  409778:	push   ecx
  409779:	push   ebx
  40977a:	push   esi
  40977b:	push   edi
  40977c:	xor    edi,edi
  40977e:	mov    eax,ds:0x411010
  409783:	mov    ebx,0x411010
  409788:	cmp    eax,ebx
  40978a:	je     0x4097b0
  40978c:	cmp    BYTE PTR [eax+0x19],0x4
  409790:	jb     0x4097b0
  409792:	test   BYTE PTR [eax+0x1c],0x1
  409796:	je     0x4097b0
  409798:	push   DWORD PTR [eax+0x14]
  40979b:	mov    edx,0x4018f8
  4097a0:	push   DWORD PTR [eax+0x10]
  4097a3:	push   0x27
  4097a5:	pop    ecx
  4097a6:	call   0x402ad5
  4097ab:	mov    eax,ds:0x411010
  4097b0:	mov    esi,DWORD PTR [ebp+0x8]
  4097b3:	test   esi,esi
  4097b5:	je     0x409884
  4097bb:	cmp    DWORD PTR [esi+0x10],0x1
  4097bf:	jne    0x4097fe
  4097c1:	cmp    eax,ebx
  4097c3:	je     0x4097e4
  4097c5:	cmp    BYTE PTR [eax+0x19],0x3
  4097c9:	jb     0x4097e4
  4097cb:	test   BYTE PTR [eax+0x1c],0x1
  4097cf:	je     0x4097e4
  4097d1:	push   DWORD PTR [eax+0x14]
  4097d4:	mov    edx,0x4018f8
  4097d9:	push   DWORD PTR [eax+0x10]
  4097dc:	push   0x28
  4097de:	pop    ecx
  4097df:	call   0x402ad5
  4097e4:	mov    ecx,DWORD PTR [esi+0x20]
  4097e7:	call   0x40c996
  4097ec:	cmp    DWORD PTR [esi+0x24],edi
  4097ef:	je     0x4097f9
  4097f1:	push   DWORD PTR [esi+0x24]
  4097f4:	call   0x40a080
  4097f9:	mov    eax,ds:0x411010
  4097fe:	cmp    DWORD PTR [esi+0x4],edi
  409801:	jne    0x40982b
  409803:	mov    edi,0x139f
  409808:	cmp    eax,ebx
  40980a:	je     0x4098a8
  409810:	test   BYTE PTR [eax+0x1c],0x1
  409814:	je     0x409884
  409816:	push   DWORD PTR [eax+0x14]
  409819:	mov    edx,0x4018f8
  40981e:	push   DWORD PTR [eax+0x10]
  409821:	push   0x29
  409823:	pop    ecx
  409824:	call   0x402ad5
  409829:	jmp    0x40987f
  40982b:	push   0x411520
  409830:	call   DWORD PTR ds:0x412128
  409836:	mov    ecx,DWORD PTR [esi+0x8]
  409839:	mov    eax,DWORD PTR [esi+0xc]
  40983c:	test   ecx,ecx
  40983e:	je     0x409845
  409840:	mov    DWORD PTR [ecx+0xc],eax
  409843:	jmp    0x40984b
  409845:	mov    ecx,DWORD PTR [esi+0x4]
  409848:	mov    DWORD PTR [ecx+0x4],eax
  40984b:	mov    ecx,DWORD PTR [esi+0xc]
  40984e:	test   ecx,ecx
  409850:	je     0x409858
  409852:	mov    eax,DWORD PTR [esi+0x8]
  409855:	mov    DWORD PTR [ecx+0x8],eax
  409858:	push   0x411520
  40985d:	call   DWORD PTR ds:0x412148
  409863:	cmp    DWORD PTR [esi+0x84],edi
  409869:	je     0x409879
  40986b:	lea    ecx,[esi+0x40]
  40986e:	call   0x40e0f8
  409873:	mov    DWORD PTR [esi+0x84],edi
  409879:	push   esi
  40987a:	call   0x40a080
  40987f:	mov    eax,ds:0x411010
  409884:	cmp    eax,ebx
  409886:	je     0x4098a8
  409888:	cmp    BYTE PTR [eax+0x19],0x4
  40988c:	jb     0x4098a8
  40988e:	test   BYTE PTR [eax+0x1c],0x1
  409892:	je     0x4098a8
  409894:	push   edi
  409895:	push   DWORD PTR [eax+0x14]
  409898:	mov    edx,0x4018f8
  40989d:	push   DWORD PTR [eax+0x10]
  4098a0:	push   0x2a
  4098a2:	pop    ecx
  4098a3:	call   0x402af8
  4098a8:	mov    eax,edi
  4098aa:	pop    edi
  4098ab:	pop    esi
  4098ac:	pop    ebx
  4098ad:	mov    esp,ebp
  4098af:	pop    ebp
  4098b0:	ret    0x4
  4098b3:	int3   
  4098b4:	int3   
  4098b5:	int3   
  4098b6:	int3   
  4098b7:	int3   
  4098b8:	int3   
  4098b9:	int3   
  4098ba:	int3   
  4098bb:	int3   
  4098bc:	int3   
  4098bd:	int3   
  4098be:	int3   
  4098bf:	int3   
  4098c0:	mov    edi,edi
  4098c2:	push   ebp
  4098c3:	mov    ebp,esp
  4098c5:	push   ebx
  4098c6:	push   esi
  4098c7:	push   edi
  4098c8:	xor    esi,esi
  4098ca:	mov    eax,ds:0x411010
  4098cf:	mov    edi,0x411010
  4098d4:	mov    ebx,0x4018f8
  4098d9:	cmp    eax,edi
  4098db:	je     0x4098f9
  4098dd:	cmp    BYTE PTR [eax+0x19],0x4
  4098e1:	jb     0x4098f9
  4098e3:	test   BYTE PTR [eax+0x1c],0x1
  4098e7:	je     0x4098f9
  4098e9:	push   DWORD PTR [eax+0x14]
  4098ec:	mov    edx,ebx
  4098ee:	push   DWORD PTR [eax+0x10]
  4098f1:	push   0x2b
  4098f3:	pop    ecx
  4098f4:	call   0x402ad5
  4098f9:	push   0x10
  4098fb:	push   DWORD PTR [ebp+0x8]
  4098fe:	push   0x409770
  409903:	call   DWORD PTR ds:0x412178
  409909:	test   eax,eax
  40990b:	jne    0x409940
  40990d:	call   DWORD PTR ds:0x41208c
  409913:	mov    esi,eax
  409915:	test   esi,esi
  409917:	je     0x409940
  409919:	mov    ecx,DWORD PTR ds:0x411010
  40991f:	cmp    ecx,edi
  409921:	je     0x409967
  409923:	cmp    BYTE PTR [ecx+0x19],0x1
  409927:	jb     0x409946
  409929:	test   BYTE PTR [ecx+0x1c],0x1
  40992d:	je     0x409946
  40992f:	push   esi
  409930:	push   DWORD PTR [ecx+0x14]
  409933:	mov    edx,ebx
  409935:	push   DWORD PTR [ecx+0x10]
  409938:	push   0x2c
  40993a:	pop    ecx
  40993b:	call   0x402af8
  409940:	mov    ecx,DWORD PTR ds:0x411010
  409946:	cmp    ecx,edi
  409948:	je     0x409967
  40994a:	cmp    BYTE PTR [ecx+0x19],0x4
  40994e:	jb     0x409967
  409950:	test   BYTE PTR [ecx+0x1c],0x1
  409954:	je     0x409967
  409956:	push   esi
  409957:	push   DWORD PTR [ecx+0x14]
  40995a:	mov    edx,ebx
  40995c:	push   DWORD PTR [ecx+0x10]
  40995f:	push   0x2d
  409961:	pop    ecx
  409962:	call   0x402af8
  409967:	pop    edi
  409968:	pop    esi
  409969:	pop    ebx
  40996a:	pop    ebp
  40996b:	ret    0x4
  40996e:	int3   
  40996f:	int3   
  409970:	int3   
  409971:	int3   
  409972:	int3   
  409973:	mov    edi,edi
  409975:	push   ebp
  409976:	mov    ebp,esp
  409978:	sub    esp,0xc
  40997b:	push   ebx
  40997c:	push   esi
  40997d:	xor    esi,esi
  40997f:	mov    DWORD PTR [ebp-0xc],edx
  409982:	push   edi
  409983:	mov    ebx,ecx
  409985:	mov    DWORD PTR [ebp-0x8],esi
  409988:	mov    DWORD PTR [ebp-0x4],esi
  40998b:	mov    eax,ds:0x411010
  409990:	cmp    eax,0x411010
  409995:	je     0x4099b6
  409997:	cmp    BYTE PTR [eax+0x19],0x4
  40999b:	jb     0x4099b6
  40999d:	test   BYTE PTR [eax+0x1c],0x1
  4099a1:	je     0x4099b6
  4099a3:	push   DWORD PTR [eax+0x14]
  4099a6:	mov    edx,0x4018f8
  4099ab:	push   DWORD PTR [eax+0x10]
  4099ae:	push   0x2e
  4099b0:	pop    ecx
  4099b1:	call   0x402ad5
  4099b6:	push   0x411520
  4099bb:	call   DWORD PTR ds:0x412128
  4099c1:	cmp    DWORD PTR [ebx+0xc],0x2
  4099c5:	je     0x4099fd
  4099c7:	push   0x5
  4099c9:	pop    esi
  4099ca:	mov    eax,ds:0x411010
  4099cf:	cmp    eax,0x411010
  4099d4:	je     0x409aeb
  4099da:	test   BYTE PTR [eax+0x1c],0x1
  4099de:	je     0x409aeb
  4099e4:	push   esi
  4099e5:	push   DWORD PTR [eax+0x14]
  4099e8:	mov    edx,0x4018f8
  4099ed:	push   DWORD PTR [eax+0x10]
  4099f0:	push   0x2f
  4099f2:	pop    ecx
  4099f3:	call   0x402af8
  4099f8:	jmp    0x409aeb
  4099fd:	cmp    DWORD PTR [ebx],esi
  4099ff:	jne    0x409a38
  409a01:	mov    esi,0x139f
  409a06:	mov    eax,ds:0x411010
  409a0b:	cmp    eax,0x411010
  409a10:	je     0x409aeb
  409a16:	test   BYTE PTR [eax+0x1c],0x1
  409a1a:	je     0x409aeb
  409a20:	push   DWORD PTR [eax+0x14]
  409a23:	mov    edx,0x4018f8
  409a28:	push   DWORD PTR [eax+0x10]
  409a2b:	push   0x30
  409a2d:	pop    ecx
  409a2e:	call   0x402ad5
  409a33:	jmp    0x409aeb
  409a38:	lea    edx,[ebp-0x4]
  409a3b:	mov    ecx,ebx
  409a3d:	call   0x409634
  409a42:	mov    edi,DWORD PTR [ebp-0x4]
  409a45:	mov    esi,eax
  409a47:	test   esi,esi
  409a49:	jne    0x409adc
  409a4f:	lea    eax,[ebp-0x8]
  409a52:	mov    edx,edi
  409a54:	push   eax
  409a55:	push   ecx
  409a56:	push   ecx
  409a57:	push   DWORD PTR [ebp-0xc]
  409a5a:	mov    ecx,DWORD PTR [ebx]
  409a5c:	call   0x40e38c
  409a61:	mov    esi,eax
  409a63:	test   esi,esi
  409a65:	je     0x409a95
  409a67:	mov    eax,ds:0x411010
  409a6c:	cmp    eax,0x411010
  409a71:	je     0x409ad8
  409a73:	cmp    BYTE PTR [eax+0x19],0x1
  409a77:	jb     0x409ad8
  409a79:	test   BYTE PTR [eax+0x1c],0x1
  409a7d:	je     0x409ad8
  409a7f:	push   esi
  409a80:	push   DWORD PTR [eax+0x14]
  409a83:	mov    edx,0x4018f8
  409a88:	push   DWORD PTR [eax+0x10]
  409a8b:	push   0x31
  409a8d:	pop    ecx
  409a8e:	call   0x402af8
  409a93:	jmp    0x409ad8
  409a95:	mov    ecx,DWORD PTR [ebp-0x8]
  409a98:	test   ecx,ecx
  409a9a:	jne    0x409ac8
  409a9c:	mov    esi,0x139f
  409aa1:	mov    eax,ds:0x411010
  409aa6:	cmp    eax,0x411010
  409aab:	je     0x409adc
  409aad:	test   BYTE PTR [eax+0x1c],0x1
  409ab1:	je     0x409adc
  409ab3:	push   DWORD PTR [eax+0x14]
  409ab6:	mov    edx,0x4018f8
  409abb:	push   DWORD PTR [eax+0x10]
  409abe:	push   0x32
  409ac0:	pop    ecx
  409ac1:	call   0x402ad5
  409ac6:	jmp    0x409adc
  409ac8:	mov    eax,DWORD PTR [ebp+0x8]
  409acb:	mov    DWORD PTR [edi],ecx
  409acd:	mov    DWORD PTR [eax],ecx
  409acf:	mov    eax,DWORD PTR [ebp+0xc]
  409ad2:	test   eax,eax
  409ad4:	je     0x409aeb
  409ad6:	mov    DWORD PTR [eax],edi
  409ad8:	test   esi,esi
  409ada:	je     0x409aeb
  409adc:	test   edi,edi
  409ade:	je     0x409aeb
  409ae0:	cmp    DWORD PTR [edi],0x0
  409ae3:	jne    0x409aeb
  409ae5:	push   edi
  409ae6:	call   0x409770
  409aeb:	push   0x411520
  409af0:	call   DWORD PTR ds:0x412148
  409af6:	mov    eax,ds:0x411010
  409afb:	cmp    eax,0x411010
  409b00:	je     0x409b22
  409b02:	cmp    BYTE PTR [eax+0x19],0x4
  409b06:	jb     0x409b22
  409b08:	test   BYTE PTR [eax+0x1c],0x1
  409b0c:	je     0x409b22
  409b0e:	push   esi
  409b0f:	push   DWORD PTR [eax+0x14]
  409b12:	mov    edx,0x4018f8
  409b17:	push   DWORD PTR [eax+0x10]
  409b1a:	push   0x33
  409b1c:	pop    ecx
  409b1d:	call   0x402af8
  409b22:	pop    edi
  409b23:	mov    eax,esi
  409b25:	pop    esi
  409b26:	pop    ebx
  409b27:	mov    esp,ebp
  409b29:	pop    ebp
  409b2a:	ret    0x8
  409b2d:	int3   
  409b2e:	int3   
  409b2f:	int3   
  409b30:	int3   
  409b31:	int3   
  409b32:	mov    edi,edi
  409b34:	push   ebp
  409b35:	mov    ebp,esp
  409b37:	push   ecx
  409b38:	and    DWORD PTR [ebp-0x4],0x0
  409b3c:	push   ebx
  409b3d:	push   esi
  409b3e:	push   edi
  409b3f:	mov    ebx,edx
  409b41:	mov    edi,ecx
  409b43:	mov    eax,ds:0x411010
  409b48:	cmp    eax,0x411010
  409b4d:	je     0x409b73
  409b4f:	cmp    BYTE PTR [eax+0x19],0x4
  409b53:	jb     0x409b73
  409b55:	test   BYTE PTR [eax+0x1c],0x1
  409b59:	je     0x409b73
  409b5b:	push   DWORD PTR [eax+0x14]
  409b5e:	mov    edx,0x4018f8
  409b63:	push   DWORD PTR [eax+0x10]
  409b66:	push   0x36
  409b68:	pop    ecx
  409b69:	call   0x402ad5
  409b6e:	mov    eax,ds:0x411010
  409b73:	test   ebx,ebx
  409b75:	jne    0x409ba7
  409b77:	push   0x57
  409b79:	pop    esi
  409b7a:	cmp    eax,0x411010
  409b7f:	je     0x409c8a
  409b85:	test   BYTE PTR [eax+0x1c],0x1
  409b89:	je     0x409c63
  409b8f:	push   DWORD PTR [eax+0x14]
  409b92:	mov    edx,0x4018f8
  409b97:	push   DWORD PTR [eax+0x10]
  409b9a:	push   0x37
  409b9c:	pop    ecx
  409b9d:	call   0x402ad5
  409ba2:	jmp    0x409c5e
  409ba7:	push   0x411520
  409bac:	call   DWORD PTR ds:0x412128
  409bb2:	mov    ecx,DWORD PTR [edi+0xc]
  409bb5:	call   0x408f23
  409bba:	mov    esi,eax
  409bbc:	test   esi,esi
  409bbe:	jne    0x409c53
  409bc4:	mov    ecx,DWORD PTR [edi]
  409bc6:	test   ecx,ecx
  409bc8:	jne    0x409bf6
  409bca:	mov    esi,0x139f
  409bcf:	mov    eax,ds:0x411010
  409bd4:	cmp    eax,0x411010
  409bd9:	je     0x409c53
  409bdb:	test   BYTE PTR [eax+0x1c],0x1
  409bdf:	je     0x409c53
  409be1:	push   DWORD PTR [eax+0x14]
  409be4:	mov    edx,0x4018f8
  409be9:	push   DWORD PTR [eax+0x10]
  409bec:	push   0x38
  409bee:	pop    ecx
  409bef:	call   0x402ad5
  409bf4:	jmp    0x409c53
  409bf6:	lea    eax,[ebp-0x4]
  409bf9:	mov    edx,ebx
  409bfb:	push   eax
  409bfc:	push   ecx
  409bfd:	push   DWORD PTR [ebp+0xc]
  409c00:	push   DWORD PTR [ebp+0x8]
  409c03:	call   0x40e444
  409c08:	mov    esi,eax
  409c0a:	test   esi,esi
  409c0c:	je     0x409c3c
  409c0e:	mov    eax,ds:0x411010
  409c13:	cmp    eax,0x411010
  409c18:	je     0x409c53
  409c1a:	cmp    BYTE PTR [eax+0x19],0x1
  409c1e:	jb     0x409c53
  409c20:	test   BYTE PTR [eax+0x1c],0x1
  409c24:	je     0x409c53
  409c26:	push   esi
  409c27:	push   DWORD PTR [eax+0x14]
  409c2a:	mov    edx,0x4018f8
  409c2f:	push   DWORD PTR [eax+0x10]
  409c32:	push   0x39
  409c34:	pop    ecx
  409c35:	call   0x402af8
  409c3a:	jmp    0x409c53
  409c3c:	mov    eax,DWORD PTR [ebp-0x4]
  409c3f:	test   eax,eax
  409c41:	jne    0x409c4a
  409c43:	mov    esi,0x139f
  409c48:	jmp    0x409c53
  409c4a:	mov    ecx,DWORD PTR [ebp+0x14]
  409c4d:	test   ecx,ecx
  409c4f:	je     0x409c53
  409c51:	mov    DWORD PTR [ecx],eax
  409c53:	push   0x411520
  409c58:	call   DWORD PTR ds:0x412148
  409c5e:	mov    eax,ds:0x411010
  409c63:	cmp    eax,0x411010
  409c68:	je     0x409c8a
  409c6a:	cmp    BYTE PTR [eax+0x19],0x4
  409c6e:	jb     0x409c8a
  409c70:	test   BYTE PTR [eax+0x1c],0x1
  409c74:	je     0x409c8a
  409c76:	push   esi
  409c77:	push   DWORD PTR [eax+0x14]
  409c7a:	mov    edx,0x4018f8
  409c7f:	push   DWORD PTR [eax+0x10]
  409c82:	push   0x3a
  409c84:	pop    ecx
  409c85:	call   0x402af8
  409c8a:	pop    edi
  409c8b:	mov    eax,esi
  409c8d:	pop    esi
  409c8e:	pop    ebx
  409c8f:	mov    esp,ebp
  409c91:	pop    ebp
  409c92:	ret    0x10
  409c95:	int3   
  409c96:	int3   
  409c97:	int3   
  409c98:	int3   
  409c99:	int3   
  409c9a:	mov    edi,edi
  409c9c:	push   ebp
  409c9d:	mov    ebp,esp
  409c9f:	push   ecx
  409ca0:	push   ebx
  409ca1:	push   esi
  409ca2:	push   edi
  409ca3:	mov    ebx,edx
  409ca5:	mov    edi,ecx
  409ca7:	mov    eax,ds:0x411010
  409cac:	cmp    eax,0x411010
  409cb1:	je     0x409cd7
  409cb3:	cmp    BYTE PTR [eax+0x19],0x4
  409cb7:	jb     0x409cd7
  409cb9:	test   BYTE PTR [eax+0x1c],0x1
  409cbd:	je     0x409cd7
  409cbf:	push   DWORD PTR [eax+0x14]
  409cc2:	mov    edx,0x4018f8
  409cc7:	push   DWORD PTR [eax+0x10]
  409cca:	push   0x3b
  409ccc:	pop    ecx
  409ccd:	call   0x402ad5
  409cd2:	mov    eax,ds:0x411010
  409cd7:	test   ebx,ebx
  409cd9:	jne    0x409d0b
  409cdb:	push   0x57
  409cdd:	pop    esi
  409cde:	cmp    eax,0x411010
  409ce3:	je     0x409dca
  409ce9:	test   BYTE PTR [eax+0x1c],0x1
  409ced:	je     0x409da3
  409cf3:	push   DWORD PTR [eax+0x14]
  409cf6:	mov    edx,0x4018f8
  409cfb:	push   DWORD PTR [eax+0x10]
  409cfe:	push   0x3c
  409d00:	pop    ecx
  409d01:	call   0x402ad5
  409d06:	jmp    0x409d9e
  409d0b:	push   0x411520
  409d10:	call   DWORD PTR ds:0x412128
  409d16:	mov    ecx,DWORD PTR [edi+0xc]
  409d19:	call   0x408f23
  409d1e:	mov    esi,eax
  409d20:	test   esi,esi
  409d22:	jne    0x409d93
  409d24:	mov    ecx,DWORD PTR [edi]
  409d26:	test   ecx,ecx
  409d28:	jne    0x409d56
  409d2a:	mov    esi,0x139f
  409d2f:	mov    eax,ds:0x411010
  409d34:	cmp    eax,0x411010
  409d39:	je     0x409d93
  409d3b:	test   BYTE PTR [eax+0x1c],0x1
  409d3f:	je     0x409d93
  409d41:	push   DWORD PTR [eax+0x14]
  409d44:	mov    edx,0x4018f8
  409d49:	push   DWORD PTR [eax+0x10]
  409d4c:	push   0x3d
  409d4e:	pop    ecx
  409d4f:	call   0x402ad5
  409d54:	jmp    0x409d93
  409d56:	push   DWORD PTR [ebp+0xc]
  409d59:	mov    edx,ebx
  409d5b:	push   ecx
  409d5c:	call   0x40e4de
  409d61:	mov    esi,eax
  409d63:	test   esi,esi
  409d65:	je     0x409d93
  409d67:	mov    eax,ds:0x411010
  409d6c:	cmp    eax,0x411010
  409d71:	je     0x409d93
  409d73:	cmp    BYTE PTR [eax+0x19],0x1
  409d77:	jb     0x409d93
  409d79:	test   BYTE PTR [eax+0x1c],0x1
  409d7d:	je     0x409d93
  409d7f:	push   esi
  409d80:	push   DWORD PTR [eax+0x14]
  409d83:	mov    edx,0x4018f8
  409d88:	push   DWORD PTR [eax+0x10]
  409d8b:	push   0x3e
  409d8d:	pop    ecx
  409d8e:	call   0x402af8
  409d93:	push   0x411520
  409d98:	call   DWORD PTR ds:0x412148
  409d9e:	mov    eax,ds:0x411010
  409da3:	cmp    eax,0x411010
  409da8:	je     0x409dca
  409daa:	cmp    BYTE PTR [eax+0x19],0x4
  409dae:	jb     0x409dca
  409db0:	test   BYTE PTR [eax+0x1c],0x1
  409db4:	je     0x409dca
  409db6:	push   esi
  409db7:	push   DWORD PTR [eax+0x14]
  409dba:	mov    edx,0x4018f8
  409dbf:	push   DWORD PTR [eax+0x10]
  409dc2:	push   0x3f
  409dc4:	pop    ecx
  409dc5:	call   0x402af8
  409dca:	pop    edi
  409dcb:	mov    eax,esi
  409dcd:	pop    esi
  409dce:	pop    ebx
  409dcf:	pop    ecx
  409dd0:	pop    ebp
  409dd1:	ret    0x8
  409dd4:	int3   
  409dd5:	int3   
  409dd6:	int3   
  409dd7:	int3   
  409dd8:	int3   
  409dd9:	mov    edi,edi
  409ddb:	push   ebx
  409ddc:	push   esi
  409ddd:	push   edi
  409dde:	mov    esi,ecx
  409de0:	mov    eax,ds:0x411010
  409de5:	mov    ebx,0x411010
  409dea:	mov    edi,0x4018f8
  409def:	cmp    eax,ebx
  409df1:	je     0x409e0f
  409df3:	cmp    BYTE PTR [eax+0x19],0x4
  409df7:	jb     0x409e0f
  409df9:	test   BYTE PTR [eax+0x1c],0x1
  409dfd:	je     0x409e0f
  409dff:	push   DWORD PTR [eax+0x14]
  409e02:	mov    edx,edi
  409e04:	push   DWORD PTR [eax+0x10]
  409e07:	push   0x40
  409e09:	pop    ecx
  409e0a:	call   0x402ad5
  409e0f:	lea    ecx,[esi+0x40]
  409e12:	call   0x40e188
  409e17:	mov    eax,ds:0x411010
  409e1c:	cmp    eax,ebx
  409e1e:	je     0x409e3e
  409e20:	cmp    BYTE PTR [eax+0x19],0x4
  409e24:	jb     0x409e3e
  409e26:	test   BYTE PTR [eax+0x1c],0x1
  409e2a:	je     0x409e3e
  409e2c:	push   0x0
  409e2e:	push   DWORD PTR [eax+0x14]
  409e31:	mov    edx,edi
  409e33:	push   DWORD PTR [eax+0x10]
  409e36:	push   0x41
  409e38:	pop    ecx
  409e39:	call   0x402af8
  409e3e:	pop    edi
  409e3f:	pop    esi
  409e40:	pop    ebx
  409e41:	ret    
  409e42:	int3   
  409e43:	int3   
  409e44:	int3   
  409e45:	int3   
  409e46:	int3   
  409e47:	mov    edi,edi
  409e49:	push   ebx
  409e4a:	push   esi
  409e4b:	push   edi
  409e4c:	mov    esi,ecx
  409e4e:	mov    eax,ds:0x411010
  409e53:	mov    ebx,0x411010
  409e58:	mov    edi,0x4018f8
  409e5d:	cmp    eax,ebx
  409e5f:	je     0x409e7d
  409e61:	cmp    BYTE PTR [eax+0x19],0x4
  409e65:	jb     0x409e7d
  409e67:	test   BYTE PTR [eax+0x1c],0x1
  409e6b:	je     0x409e7d
  409e6d:	push   DWORD PTR [eax+0x14]
  409e70:	mov    edx,edi
  409e72:	push   DWORD PTR [eax+0x10]
  409e75:	push   0x42
  409e77:	pop    ecx
  409e78:	call   0x402ad5
  409e7d:	lea    eax,[esi+0x40]
  409e80:	and    DWORD PTR [eax+0x40],0x0
  409e84:	push   eax
  409e85:	call   DWORD PTR ds:0x412148
  409e8b:	mov    eax,ds:0x411010
  409e90:	cmp    eax,ebx
  409e92:	je     0x409eb2
  409e94:	cmp    BYTE PTR [eax+0x19],0x4
  409e98:	jb     0x409eb2
  409e9a:	test   BYTE PTR [eax+0x1c],0x1
  409e9e:	je     0x409eb2
  409ea0:	push   0x0
  409ea2:	push   DWORD PTR [eax+0x14]
  409ea5:	mov    edx,edi
  409ea7:	push   DWORD PTR [eax+0x10]
  409eaa:	push   0x43
  409eac:	pop    ecx
  409ead:	call   0x402af8
  409eb2:	pop    edi
  409eb3:	pop    esi
  409eb4:	pop    ebx
  409eb5:	ret    
  409eb6:	int3   
  409eb7:	int3   
  409eb8:	int3   
  409eb9:	int3   
  409eba:	int3   
  409ebb:	mov    edi,edi
  409ebd:	push   ebx
  409ebe:	push   esi
  409ebf:	push   edi
  409ec0:	mov    esi,ecx
  409ec2:	mov    eax,ds:0x411010
  409ec7:	mov    ebx,0x411010
  409ecc:	mov    edi,0x4018f8
  409ed1:	cmp    eax,ebx
  409ed3:	je     0x409ef1
  409ed5:	cmp    BYTE PTR [eax+0x19],0x4
  409ed9:	jb     0x409ef1
  409edb:	test   BYTE PTR [eax+0x1c],0x1
  409edf:	je     0x409ef1
  409ee1:	push   DWORD PTR [eax+0x14]
  409ee4:	mov    edx,edi
  409ee6:	push   DWORD PTR [eax+0x10]
  409ee9:	push   0x44
  409eeb:	pop    ecx
  409eec:	call   0x402ad5
  409ef1:	lea    ecx,[esi+0x40]
  409ef4:	call   0x40e144
  409ef9:	mov    eax,ds:0x411010
  409efe:	cmp    eax,ebx
  409f00:	je     0x409f20
  409f02:	cmp    BYTE PTR [eax+0x19],0x4
  409f06:	jb     0x409f20
  409f08:	test   BYTE PTR [eax+0x1c],0x1
  409f0c:	je     0x409f20
  409f0e:	push   0x0
  409f10:	push   DWORD PTR [eax+0x14]
  409f13:	mov    edx,edi
  409f15:	push   DWORD PTR [eax+0x10]
  409f18:	push   0x45
  409f1a:	pop    ecx
  409f1b:	call   0x402af8
  409f20:	pop    edi
  409f21:	pop    esi
  409f22:	pop    ebx
  409f23:	ret    
  409f24:	int3   
  409f25:	int3   
  409f26:	int3   
  409f27:	int3   
  409f28:	int3   
  409f29:	mov    edi,edi
  409f2b:	push   ebx
  409f2c:	push   esi
  409f2d:	push   edi
  409f2e:	mov    esi,ecx
  409f30:	mov    eax,ds:0x411010
  409f35:	mov    ebx,0x411010
  409f3a:	mov    edi,0x4018f8
  409f3f:	cmp    eax,ebx
  409f41:	je     0x409f5f
  409f43:	cmp    BYTE PTR [eax+0x19],0x4
  409f47:	jb     0x409f5f
  409f49:	test   BYTE PTR [eax+0x1c],0x1
  409f4d:	je     0x409f5f
  409f4f:	push   DWORD PTR [eax+0x14]
  409f52:	mov    edx,edi
  409f54:	push   DWORD PTR [eax+0x10]
  409f57:	push   0x46
  409f59:	pop    ecx
  409f5a:	call   0x402ad5
  409f5f:	lea    ecx,[esi+0x40]
  409f62:	call   0x40e1b0
  409f67:	mov    eax,ds:0x411010
  409f6c:	cmp    eax,ebx
  409f6e:	je     0x409f8e
  409f70:	cmp    BYTE PTR [eax+0x19],0x4
  409f74:	jb     0x409f8e
  409f76:	test   BYTE PTR [eax+0x1c],0x1
  409f7a:	je     0x409f8e
  409f7c:	push   0x0
  409f7e:	push   DWORD PTR [eax+0x14]
  409f81:	mov    edx,edi
  409f83:	push   DWORD PTR [eax+0x10]
  409f86:	push   0x47
  409f88:	pop    ecx
  409f89:	call   0x402af8
  409f8e:	pop    edi
  409f8f:	pop    esi
  409f90:	pop    ebx
  409f91:	ret    
  409f92:	int3   
  409f93:	int3   
  409f94:	int3   
  409f95:	int3   
  409f96:	int3   
  409f97:	int3   
  409f98:	int3   
  409f99:	int3   
  409f9a:	int3   
  409f9b:	int3   
  409f9c:	int3   
  409f9d:	int3   
  409f9e:	int3   
  409f9f:	int3   
  409fa0:	int3   
  409fa1:	int3   
  409fa2:	int3   
  409fa3:	int3   
  409fa4:	int3   
  409fa5:	int3   
  409fa6:	int3   
  409fa7:	int3   
  409fa8:	int3   
  409fa9:	int3   
  409faa:	int3   
  409fab:	int3   
  409fac:	int3   
  409fad:	int3   
  409fae:	int3   
  409faf:	int3   
  409fb0:	mov    edi,edi
  409fb2:	push   ebp
  409fb3:	mov    ebp,esp
  409fb5:	and    esp,0xfffffff8
  409fb8:	push   ecx
  409fb9:	push   ebx
  409fba:	push   esi
  409fbb:	push   edi
  409fbc:	xor    esi,esi
  409fbe:	mov    eax,ds:0x411010
  409fc3:	mov    ebx,0x411010
  409fc8:	cmp    eax,ebx
  409fca:	je     0x409ff0
  409fcc:	cmp    BYTE PTR [eax+0x19],0x4
  409fd0:	jb     0x409ff0
  409fd2:	test   BYTE PTR [eax+0x1c],0x1
  409fd6:	je     0x409ff0
  409fd8:	push   DWORD PTR [eax+0x14]
  409fdb:	mov    edx,0x401908
  409fe0:	push   DWORD PTR [eax+0x10]
  409fe3:	push   0xa
  409fe5:	pop    ecx
  409fe6:	call   0x402ad5
  409feb:	mov    eax,ds:0x411010
  409ff0:	mov    edi,DWORD PTR [ebp+0xc]
  409ff3:	test   edi,edi
  409ff5:	je     0x40a025
  409ff7:	mov    ecx,DWORD PTR [ebp+0x8]
  409ffa:	test   ecx,ecx
  409ffc:	je     0x40a025
  409ffe:	call   0x40fe88
  40a003:	mov    DWORD PTR [edi],eax
  40a005:	test   eax,eax
  40a007:	jne    0x40a045
  40a009:	push   0xe
  40a00b:	pop    esi
  40a00c:	mov    eax,ds:0x411010
  40a011:	cmp    eax,ebx
  40a013:	je     0x40a06e
  40a015:	test   BYTE PTR [eax+0x1c],0x1
  40a019:	je     0x40a04a
  40a01b:	push   DWORD PTR [eax+0x14]
  40a01e:	push   DWORD PTR [eax+0x10]
  40a021:	push   0xc
  40a023:	jmp    0x40a03a
  40a025:	push   0x57
  40a027:	pop    esi
  40a028:	cmp    eax,ebx
  40a02a:	je     0x40a06e
  40a02c:	test   BYTE PTR [eax+0x1c],0x1
  40a030:	je     0x40a04a
  40a032:	push   DWORD PTR [eax+0x14]
  40a035:	push   DWORD PTR [eax+0x10]
  40a038:	push   0xb
  40a03a:	mov    edx,0x401908
  40a03f:	pop    ecx
  40a040:	call   0x402ad5
  40a045:	mov    eax,ds:0x411010
  40a04a:	cmp    eax,ebx
  40a04c:	je     0x40a06e
  40a04e:	cmp    BYTE PTR [eax+0x19],0x4
  40a052:	jb     0x40a06e
  40a054:	test   BYTE PTR [eax+0x1c],0x1
  40a058:	je     0x40a06e
  40a05a:	push   esi
  40a05b:	push   DWORD PTR [eax+0x14]
  40a05e:	mov    edx,0x401908
  40a063:	push   DWORD PTR [eax+0x10]
  40a066:	push   0xd
  40a068:	pop    ecx
  40a069:	call   0x402af8
  40a06e:	pop    edi
  40a06f:	mov    eax,esi
  40a071:	pop    esi
  40a072:	pop    ebx
  40a073:	mov    esp,ebp
  40a075:	pop    ebp
  40a076:	ret    0x8
  40a079:	int3   
  40a07a:	int3   
  40a07b:	int3   
  40a07c:	int3   
  40a07d:	int3   
  40a07e:	int3   
  40a07f:	int3   
  40a080:	mov    edi,edi
  40a082:	push   ebp
  40a083:	mov    ebp,esp
  40a085:	push   ecx
  40a086:	push   esi
  40a087:	push   edi
  40a088:	mov    eax,ds:0x411010
  40a08d:	mov    esi,0x411010
  40a092:	mov    edi,0x401908
  40a097:	cmp    eax,esi
  40a099:	je     0x40a0bc
  40a09b:	cmp    BYTE PTR [eax+0x19],0x4
  40a09f:	jb     0x40a0bc
  40a0a1:	test   BYTE PTR [eax+0x1c],0x1
  40a0a5:	je     0x40a0bc
  40a0a7:	push   DWORD PTR [eax+0x14]
  40a0aa:	mov    edx,edi
  40a0ac:	push   DWORD PTR [eax+0x10]
  40a0af:	push   0xe
  40a0b1:	pop    ecx
  40a0b2:	call   0x402ad5
  40a0b7:	mov    eax,ds:0x411010
  40a0bc:	cmp    DWORD PTR [ebp+0x8],0x0
  40a0c0:	je     0x40a0cf
  40a0c2:	push   DWORD PTR [ebp+0x8]
  40a0c5:	call   0x40ebd0
  40a0ca:	mov    eax,ds:0x411010
  40a0cf:	cmp    eax,esi
  40a0d1:	je     0x40a0f1
  40a0d3:	cmp    BYTE PTR [eax+0x19],0x4
  40a0d7:	jb     0x40a0f1
  40a0d9:	test   BYTE PTR [eax+0x1c],0x1
  40a0dd:	je     0x40a0f1
  40a0df:	push   0x0
  40a0e1:	push   DWORD PTR [eax+0x14]
  40a0e4:	mov    edx,edi
  40a0e6:	push   DWORD PTR [eax+0x10]
  40a0e9:	push   0xf
  40a0eb:	pop    ecx
  40a0ec:	call   0x402af8
  40a0f1:	pop    edi
  40a0f2:	pop    esi
  40a0f3:	pop    ecx
  40a0f4:	pop    ebp
  40a0f5:	ret    0x4
  40a0f8:	int3   
  40a0f9:	int3   
  40a0fa:	int3   
  40a0fb:	int3   
  40a0fc:	int3   
  40a0fd:	mov    edi,edi
  40a0ff:	push   esi
  40a100:	push   edi
  40a101:	mov    edi,DWORD PTR [ecx+0xc]
  40a104:	add    edi,DWORD PTR [ecx+0x8]
  40a107:	cmp    edi,DWORD PTR [ecx+0x8]
  40a10a:	mov    ecx,DWORD PTR [edx+0x8]
  40a10d:	mov    edx,DWORD PTR [edx+0xc]
  40a110:	sbb    esi,esi
  40a112:	add    edx,ecx
  40a114:	cmp    edx,ecx
  40a116:	sbb    eax,eax
  40a118:	neg    eax
  40a11a:	neg    esi
  40a11c:	je     0x40a124
  40a11e:	test   eax,eax
  40a120:	jne    0x40a128
  40a122:	jmp    0x40a133
  40a124:	test   eax,eax
  40a126:	jne    0x40a130
  40a128:	cmp    edi,edx
  40a12a:	sbb    eax,eax
  40a12c:	neg    eax
  40a12e:	jmp    0x40a133
  40a130:	xor    eax,eax
  40a132:	inc    eax
  40a133:	pop    edi
  40a134:	pop    esi
  40a135:	ret    
  40a136:	int3   
  40a137:	int3   
  40a138:	int3   
  40a139:	int3   
  40a13a:	int3   
  40a13b:	int3   
  40a13c:	int3   
  40a13d:	int3   
  40a13e:	int3   
  40a13f:	int3   
  40a140:	mov    edi,edi
  40a142:	push   ebp
  40a143:	mov    ebp,esp
  40a145:	and    esp,0xfffffff8
  40a148:	push   ecx
  40a149:	mov    eax,ds:0x411004
  40a14e:	xor    eax,esp
  40a150:	mov    DWORD PTR [esp],eax
  40a153:	push   ebx
  40a154:	push   esi
  40a155:	push   edi
  40a156:	mov    eax,ds:0x411010
  40a15b:	mov    ebx,0x411010
  40a160:	cmp    eax,ebx
  40a162:	je     0x40a1ab
  40a164:	cmp    BYTE PTR [eax+0x19],0x4
  40a168:	jb     0x40a188
  40a16a:	test   BYTE PTR [eax+0x1c],0x1
  40a16e:	je     0x40a188
  40a170:	push   DWORD PTR [eax+0x14]
  40a173:	mov    edx,0x401918
  40a178:	push   DWORD PTR [eax+0x10]
  40a17b:	push   0xa
  40a17d:	pop    ecx
  40a17e:	call   0x402ad5
  40a183:	mov    eax,ds:0x411010
  40a188:	cmp    eax,ebx
  40a18a:	je     0x40a1ab
  40a18c:	cmp    BYTE PTR [eax+0x19],0x3
  40a190:	jb     0x40a1ab
  40a192:	test   BYTE PTR [eax+0x1c],0x1
  40a196:	je     0x40a1ab
  40a198:	push   DWORD PTR [eax+0x14]
  40a19b:	mov    edx,0x401918
  40a1a0:	push   DWORD PTR [eax+0x10]
  40a1a3:	push   0xb
  40a1a5:	pop    ecx
  40a1a6:	call   0x402ad5
  40a1ab:	mov    esi,DWORD PTR [ebp+0x8]
  40a1ae:	mov    edi,DWORD PTR [esi]
  40a1b0:	test   edi,edi
  40a1b2:	je     0x40a1c1
  40a1b4:	push   DWORD PTR [esi+0x4]
  40a1b7:	mov    ecx,edi
  40a1b9:	call   DWORD PTR ds:0x41221c
  40a1bf:	call   edi
  40a1c1:	push   esi
  40a1c2:	call   0x40a080
  40a1c7:	mov    eax,ds:0x411010
  40a1cc:	cmp    eax,ebx
  40a1ce:	je     0x40a1f1
  40a1d0:	cmp    BYTE PTR [eax+0x19],0x4
  40a1d4:	jb     0x40a1f1
  40a1d6:	test   BYTE PTR [eax+0x1c],0x1
  40a1da:	je     0x40a1f1
  40a1dc:	push   0x0
  40a1de:	push   DWORD PTR [eax+0x14]
  40a1e1:	mov    edx,0x401918
  40a1e6:	push   DWORD PTR [eax+0x10]
  40a1e9:	push   0xc
  40a1eb:	pop    ecx
  40a1ec:	call   0x402af8
  40a1f1:	mov    ecx,DWORD PTR [esp+0xc]
  40a1f5:	xor    eax,eax
  40a1f7:	pop    edi
  40a1f8:	pop    esi
  40a1f9:	pop    ebx
  40a1fa:	xor    ecx,esp
  40a1fc:	call   0x4101d0
  40a201:	mov    esp,ebp
  40a203:	pop    ebp
  40a204:	ret    0x4
  40a207:	int3   
  40a208:	int3   
  40a209:	int3   
  40a20a:	int3   
  40a20b:	int3   
  40a20c:	int3   
  40a20d:	int3   
  40a20e:	int3   
  40a20f:	int3   
  40a210:	mov    edi,edi
  40a212:	push   ebp
  40a213:	mov    ebp,esp
  40a215:	and    esp,0xfffffff8
  40a218:	push   ecx
  40a219:	push   ebx
  40a21a:	push   esi
  40a21b:	push   edi
  40a21c:	mov    ebx,0x411500
  40a221:	push   ebx
  40a222:	call   DWORD PTR ds:0x412128
  40a228:	cmp    DWORD PTR ds:0x411438,0x0
  40a22f:	je     0x40a240
  40a231:	mov    eax,DWORD PTR [ebp+0x8]
  40a234:	cmp    eax,DWORD PTR ds:0x41142c
  40a23a:	je     0x40a2d9
  40a240:	mov    eax,ds:0x411010
  40a245:	cmp    eax,0x411010
  40a24a:	je     0x40a265
  40a24c:	test   BYTE PTR [eax+0x1c],0x1
  40a250:	je     0x40a265
  40a252:	push   DWORD PTR [eax+0x14]
  40a255:	push   DWORD PTR [eax+0x10]
  40a258:	push   0xd
  40a25a:	mov    edx,0x401918
  40a25f:	pop    ecx
  40a260:	call   0x402ad5
  40a265:	push   ebx
  40a266:	call   DWORD PTR ds:0x412148
  40a26c:	pop    edi
  40a26d:	pop    esi
  40a26e:	pop    ebx
  40a26f:	mov    esp,ebp
  40a271:	pop    ebp
  40a272:	ret    0x8
  40a275:	mov    eax,DWORD PTR [edi+0xc]
  40a278:	add    eax,DWORD PTR [edi+0x8]
  40a27b:	cmp    eax,DWORD PTR [edi+0x8]
  40a27e:	mov    DWORD PTR ds:0x411428,0x32
  40a288:	sbb    esi,esi
  40a28a:	call   DWORD PTR ds:0x412158
  40a290:	neg    esi
  40a292:	mov    edx,eax
  40a294:	je     0x40a2ac
  40a296:	cmp    edx,DWORD PTR [edi+0x8]
  40a299:	ja     0x40a2a5
  40a29b:	mov    ecx,DWORD PTR [edi+0xc]
  40a29e:	add    ecx,DWORD PTR [edi+0x8]
  40a2a1:	cmp    edx,ecx
  40a2a3:	ja     0x40a2bb
  40a2a5:	mov    eax,ds:0x411428
  40a2aa:	jmp    0x40a2f2
  40a2ac:	cmp    edx,DWORD PTR [edi+0x8]
  40a2af:	jb     0x40a2bb
  40a2b1:	mov    eax,DWORD PTR [edi+0xc]
  40a2b4:	add    eax,DWORD PTR [edi+0x8]
  40a2b7:	cmp    edx,eax
  40a2b9:	jb     0x40a2a5
  40a2bb:	mov    eax,DWORD PTR [edi+0x10]
  40a2be:	push   0x10
  40a2c0:	push   edi
  40a2c1:	push   0x40a140
  40a2c6:	mov    ds:0x41143c,eax
  40a2cb:	call   DWORD PTR ds:0x412178
  40a2d1:	test   eax,eax
  40a2d3:	je     0x40a369
  40a2d9:	mov    edi,DWORD PTR ds:0x41143c
  40a2df:	test   edi,edi
  40a2e1:	jne    0x40a275
  40a2e3:	mov    eax,ds:0x411428
  40a2e8:	test   eax,eax
  40a2ea:	je     0x40a2fa
  40a2ec:	dec    eax
  40a2ed:	mov    ds:0x411428,eax
  40a2f2:	test   eax,eax
  40a2f4:	jne    0x40a265
  40a2fa:	push   0x64
  40a2fc:	mov    esi,0x7fffffff
  40a301:	push   esi
  40a302:	push   DWORD PTR ds:0x411430
  40a308:	push   DWORD PTR ds:0x411434
  40a30e:	call   DWORD PTR ds:0x412174
  40a314:	test   eax,eax
  40a316:	jne    0x40a3a2
  40a31c:	call   DWORD PTR ds:0x41208c
  40a322:	test   eax,eax
  40a324:	je     0x40a265
  40a32a:	mov    ecx,DWORD PTR ds:0x411010
  40a330:	cmp    ecx,0x411010
  40a336:	je     0x40a265
  40a33c:	cmp    BYTE PTR [ecx+0x19],0x3
  40a340:	jb     0x40a265
  40a346:	test   BYTE PTR [ecx+0x1c],0x1
  40a34a:	je     0x40a265
  40a350:	push   eax
  40a351:	push   DWORD PTR [ecx+0x14]
  40a354:	mov    edx,0x401918
  40a359:	push   DWORD PTR [ecx+0x10]
  40a35c:	push   0xf
  40a35e:	pop    ecx
  40a35f:	call   0x402af8
  40a364:	jmp    0x40a265
  40a369:	call   DWORD PTR ds:0x41208c
  40a36f:	mov    ecx,DWORD PTR ds:0x411010
  40a375:	cmp    ecx,0x411010
  40a37b:	je     0x40a397
  40a37d:	test   BYTE PTR [ecx+0x1c],0x1
  40a381:	je     0x40a397
  40a383:	push   eax
  40a384:	push   DWORD PTR [ecx+0x14]
  40a387:	mov    edx,0x401918
  40a38c:	push   DWORD PTR [ecx+0x10]
  40a38f:	push   0xe
  40a391:	pop    ecx
  40a392:	call   0x402af8
  40a397:	mov    DWORD PTR ds:0x41143c,edi
  40a39d:	jmp    0x40a265
  40a3a2:	mov    DWORD PTR ds:0x41101c,esi
  40a3a8:	mov    eax,ds:0x411010
  40a3ad:	cmp    eax,0x411010
  40a3b2:	je     0x40a265
  40a3b8:	cmp    BYTE PTR [eax+0x19],0x3
  40a3bc:	jb     0x40a265
  40a3c2:	test   BYTE PTR [eax+0x1c],0x1
  40a3c6:	je     0x40a265
  40a3cc:	push   DWORD PTR [eax+0x14]
  40a3cf:	push   DWORD PTR [eax+0x10]
  40a3d2:	push   0x10
  40a3d4:	jmp    0x40a25a
  40a3d9:	int3   
  40a3da:	int3   
  40a3db:	int3   
  40a3dc:	int3   
  40a3dd:	int3   
  40a3de:	mov    edi,edi
  40a3e0:	push   ebx
  40a3e1:	push   esi
  40a3e2:	push   edi
  40a3e3:	mov    eax,ds:0x411010
  40a3e8:	xor    ebx,ebx
  40a3ea:	mov    edi,0x411010
  40a3ef:	inc    ebx
  40a3f0:	cmp    eax,edi
  40a3f2:	je     0x40a417
  40a3f4:	cmp    BYTE PTR [eax+0x19],0x4
  40a3f8:	jb     0x40a417
  40a3fa:	test   BYTE PTR [eax+0x1c],bl
  40a3fd:	je     0x40a417
  40a3ff:	push   DWORD PTR [eax+0x14]
  40a402:	mov    edx,0x401918
  40a407:	push   DWORD PTR [eax+0x10]
  40a40a:	push   0x11
  40a40c:	pop    ecx
  40a40d:	call   0x402ad5
  40a412:	mov    eax,ds:0x411010
  40a417:	cmp    DWORD PTR ds:0x411440,ebx
  40a41d:	je     0x40a43c
  40a41f:	push   0x411440
  40a424:	mov    edx,0x411444
  40a429:	mov    ecx,0x411500
  40a42e:	call   0x40ab90
  40a433:	mov    esi,eax
  40a435:	mov    eax,ds:0x411010
  40a43a:	jmp    0x40a43e
  40a43c:	xor    esi,esi
  40a43e:	test   esi,esi
  40a440:	jne    0x40a5f7
  40a446:	push   0x411500
  40a44b:	call   DWORD PTR ds:0x412128
  40a451:	mov    eax,ds:0x411434
  40a456:	cmp    DWORD PTR ds:0x41143c,esi
  40a45c:	jne    0x40a561
  40a462:	cmp    DWORD PTR ds:0x411438,esi
  40a468:	jne    0x40a561
  40a46e:	test   eax,eax
  40a470:	jne    0x40a561
  40a476:	cmp    DWORD PTR ds:0x411430,eax
  40a47c:	jne    0x40a561
  40a482:	call   DWORD PTR ds:0x412170
  40a488:	mov    ds:0x411434,eax
  40a48d:	test   eax,eax
  40a48f:	jne    0x40a4da
  40a491:	call   DWORD PTR ds:0x41208c
  40a497:	mov    esi,eax
  40a499:	test   esi,esi
  40a49b:	je     0x40a4d5
  40a49d:	mov    eax,ds:0x411010
  40a4a2:	cmp    eax,edi
  40a4a4:	je     0x40a588
  40a4aa:	cmp    BYTE PTR [eax+0x19],bl
  40a4ad:	jb     0x40a588
  40a4b3:	test   BYTE PTR [eax+0x1c],bl
  40a4b6:	je     0x40a588
  40a4bc:	push   esi
  40a4bd:	push   DWORD PTR [eax+0x14]
  40a4c0:	push   DWORD PTR [eax+0x10]
  40a4c3:	push   0x13
  40a4c5:	mov    edx,0x401918
  40a4ca:	pop    ecx
  40a4cb:	call   0x402af8
  40a4d0:	jmp    0x40a588
  40a4d5:	mov    eax,ds:0x411434
  40a4da:	push   0x10
  40a4dc:	push   0x64
  40a4de:	push   0x7fffffff
  40a4e3:	push   DWORD PTR ds:0x41142c
  40a4e9:	push   0x40a210
  40a4ee:	push   eax
  40a4ef:	push   0x411430
  40a4f4:	call   DWORD PTR ds:0x412168
  40a4fa:	test   eax,eax
  40a4fc:	jne    0x40a528
  40a4fe:	call   DWORD PTR ds:0x41208c
  40a504:	mov    esi,eax
  40a506:	test   esi,esi
  40a508:	je     0x40a528
  40a50a:	mov    eax,ds:0x411010
  40a50f:	cmp    eax,edi
  40a511:	je     0x40a588
  40a513:	cmp    BYTE PTR [eax+0x19],bl
  40a516:	jb     0x40a588
  40a518:	test   BYTE PTR [eax+0x1c],bl
  40a51b:	je     0x40a588
  40a51d:	push   esi
  40a51e:	push   DWORD PTR [eax+0x14]
  40a521:	push   DWORD PTR [eax+0x10]
  40a524:	push   0x14
  40a526:	jmp    0x40a4c5
  40a528:	mov    DWORD PTR ds:0x41101c,0x7fffffff
  40a532:	mov    eax,ds:0x411010
  40a537:	cmp    eax,edi
  40a539:	je     0x40a559
  40a53b:	cmp    BYTE PTR [eax+0x19],0x3
  40a53f:	jb     0x40a559
  40a541:	test   BYTE PTR [eax+0x1c],bl
  40a544:	je     0x40a559
  40a546:	push   DWORD PTR [eax+0x14]
  40a549:	mov    edx,0x401918
  40a54e:	push   DWORD PTR [eax+0x10]
  40a551:	push   0x15
  40a553:	pop    ecx
  40a554:	call   0x402ad5
  40a559:	mov    DWORD PTR ds:0x411438,ebx
  40a55f:	jmp    0x40a588
  40a561:	mov    esi,0x139f
  40a566:	mov    ecx,DWORD PTR ds:0x411010
  40a56c:	cmp    ecx,edi
  40a56e:	je     0x40a591
  40a570:	test   BYTE PTR [ecx+0x1c],bl
  40a573:	je     0x40a591
  40a575:	push   DWORD PTR [ecx+0x14]
  40a578:	mov    edx,0x401918
  40a57d:	push   DWORD PTR [ecx+0x10]
  40a580:	push   0x12
  40a582:	pop    ecx
  40a583:	call   0x402ad5
  40a588:	test   esi,esi
  40a58a:	je     0x40a5e7
  40a58c:	mov    eax,ds:0x411434
  40a591:	test   eax,eax
  40a593:	je     0x40a5d1
  40a595:	push   0xffffffff
  40a597:	push   eax
  40a598:	call   DWORD PTR ds:0x41216c
  40a59e:	test   eax,eax
  40a5a0:	jne    0x40a5d1
  40a5a2:	call   DWORD PTR ds:0x41208c
  40a5a8:	mov    ecx,DWORD PTR ds:0x411010
  40a5ae:	cmp    ecx,edi
  40a5b0:	je     0x40a5d1
  40a5b2:	cmp    BYTE PTR [ecx+0x19],0x3
  40a5b6:	jb     0x40a5d1
  40a5b8:	test   BYTE PTR [ecx+0x1c],bl
  40a5bb:	je     0x40a5d1
  40a5bd:	push   eax
  40a5be:	push   DWORD PTR [ecx+0x14]
  40a5c1:	mov    edx,0x401918
  40a5c6:	push   DWORD PTR [ecx+0x10]
  40a5c9:	push   0x16
  40a5cb:	pop    ecx
  40a5cc:	call   0x402af8
  40a5d1:	xor    eax,eax
  40a5d3:	mov    ds:0x41143c,eax
  40a5d8:	mov    ds:0x411438,eax
  40a5dd:	mov    ds:0x411434,eax
  40a5e2:	mov    ds:0x411430,eax
  40a5e7:	push   0x411500
  40a5ec:	call   DWORD PTR ds:0x412148
  40a5f2:	mov    eax,ds:0x411010
  40a5f7:	cmp    eax,edi
  40a5f9:	je     0x40a61a
  40a5fb:	cmp    BYTE PTR [eax+0x19],0x4
  40a5ff:	jb     0x40a61a
  40a601:	test   BYTE PTR [eax+0x1c],bl
  40a604:	je     0x40a61a
  40a606:	push   esi
  40a607:	push   DWORD PTR [eax+0x14]
  40a60a:	mov    edx,0x401918
  40a60f:	push   DWORD PTR [eax+0x10]
  40a612:	push   0x17
  40a614:	pop    ecx
  40a615:	call   0x402af8
  40a61a:	pop    edi
  40a61b:	mov    eax,esi
  40a61d:	pop    esi
  40a61e:	pop    ebx
  40a61f:	ret    
  40a620:	int3   
  40a621:	int3   
  40a622:	int3   
  40a623:	int3   
  40a624:	int3   
  40a625:	mov    edi,edi
  40a627:	push   ebp
  40a628:	mov    ebp,esp
  40a62a:	push   ecx
  40a62b:	push   ebx
  40a62c:	push   esi
  40a62d:	push   edi
  40a62e:	xor    esi,esi
  40a630:	mov    eax,ds:0x411010
  40a635:	cmp    eax,0x411010
  40a63a:	je     0x40a65b
  40a63c:	cmp    BYTE PTR [eax+0x19],0x4
  40a640:	jb     0x40a65b
  40a642:	test   BYTE PTR [eax+0x1c],0x1
  40a646:	je     0x40a65b
  40a648:	push   DWORD PTR [eax+0x14]
  40a64b:	mov    edx,0x401918
  40a650:	push   DWORD PTR [eax+0x10]
  40a653:	push   0x18
  40a655:	pop    ecx
  40a656:	call   0x402ad5
  40a65b:	mov    ebx,0x411500
  40a660:	push   ebx
  40a661:	call   DWORD PTR ds:0x412128
  40a667:	cmp    DWORD PTR ds:0x411438,esi
  40a66d:	jne    0x40a6a5
  40a66f:	mov    esi,0x139f
  40a674:	mov    eax,ds:0x411010
  40a679:	cmp    eax,0x411010
  40a67e:	je     0x40a699
  40a680:	test   BYTE PTR [eax+0x1c],0x1
  40a684:	je     0x40a699
  40a686:	push   DWORD PTR [eax+0x14]
  40a689:	mov    edx,0x401918
  40a68e:	push   DWORD PTR [eax+0x10]
  40a691:	push   0x19
  40a693:	pop    ecx
  40a694:	call   0x402ad5
  40a699:	push   ebx
  40a69a:	call   DWORD PTR ds:0x412148
  40a6a0:	jmp    0x40a800
  40a6a5:	mov    eax,ds:0x411430
  40a6aa:	mov    edi,DWORD PTR ds:0x41143c
  40a6b0:	mov    ebx,DWORD PTR ds:0x411434
  40a6b6:	inc    DWORD PTR ds:0x41142c
  40a6bc:	mov    DWORD PTR ds:0x411438,esi
  40a6c2:	mov    DWORD PTR ds:0x41143c,esi
  40a6c8:	mov    DWORD PTR [ebp-0x4],eax
  40a6cb:	mov    DWORD PTR ds:0x411430,esi
  40a6d1:	mov    DWORD PTR ds:0x411434,esi
  40a6d7:	jmp    0x40a6e2
  40a6d9:	push   edi
  40a6da:	mov    edi,DWORD PTR [edi+0x10]
  40a6dd:	call   0x40a080
  40a6e2:	test   edi,edi
  40a6e4:	jne    0x40a6d9
  40a6e6:	push   0x411500
  40a6eb:	call   DWORD PTR ds:0x412148
  40a6f1:	mov    edi,DWORD PTR [ebp-0x4]
  40a6f4:	push   esi
  40a6f5:	push   0x7fffffff
  40a6fa:	push   edi
  40a6fb:	push   ebx
  40a6fc:	call   DWORD PTR ds:0x412174
  40a702:	test   eax,eax
  40a704:	jne    0x40a740
  40a706:	call   DWORD PTR ds:0x41208c
  40a70c:	mov    ecx,eax
  40a70e:	test   ecx,ecx
  40a710:	je     0x40a775
  40a712:	mov    eax,ds:0x411010
  40a717:	cmp    eax,0x411010
  40a71c:	je     0x40a775
  40a71e:	cmp    BYTE PTR [eax+0x19],0x3
  40a722:	jb     0x40a775
  40a724:	test   BYTE PTR [eax+0x1c],0x1
  40a728:	je     0x40a775
  40a72a:	push   ecx
  40a72b:	push   DWORD PTR [eax+0x14]
  40a72e:	mov    edx,0x401918
  40a733:	push   DWORD PTR [eax+0x10]
  40a736:	push   0x1a
  40a738:	pop    ecx
  40a739:	call   0x402af8
  40a73e:	jmp    0x40a775
  40a740:	mov    DWORD PTR ds:0x41101c,0x7fffffff
  40a74a:	mov    eax,ds:0x411010
  40a74f:	cmp    eax,0x411010
  40a754:	je     0x40a775
  40a756:	cmp    BYTE PTR [eax+0x19],0x3
  40a75a:	jb     0x40a775
  40a75c:	test   BYTE PTR [eax+0x1c],0x1
  40a760:	je     0x40a775
  40a762:	push   DWORD PTR [eax+0x14]
  40a765:	mov    edx,0x401918
  40a76a:	push   DWORD PTR [eax+0x10]
  40a76d:	push   0x1b
  40a76f:	pop    ecx
  40a770:	call   0x402ad5
  40a775:	push   0xffffffff
  40a777:	push   edi
  40a778:	push   ebx
  40a779:	call   DWORD PTR ds:0x412164
  40a77f:	test   eax,eax
  40a781:	jne    0x40a7bb
  40a783:	call   DWORD PTR ds:0x41208c
  40a789:	mov    ecx,eax
  40a78b:	test   ecx,ecx
  40a78d:	je     0x40a7bb
  40a78f:	mov    eax,ds:0x411010
  40a794:	cmp    eax,0x411010
  40a799:	je     0x40a7bb
  40a79b:	cmp    BYTE PTR [eax+0x19],0x3
  40a79f:	jb     0x40a7bb
  40a7a1:	test   BYTE PTR [eax+0x1c],0x1
  40a7a5:	je     0x40a7bb
  40a7a7:	push   ecx
  40a7a8:	push   DWORD PTR [eax+0x14]
  40a7ab:	mov    edx,0x401918
  40a7b0:	push   DWORD PTR [eax+0x10]
  40a7b3:	push   0x1c
  40a7b5:	pop    ecx
  40a7b6:	call   0x402af8
  40a7bb:	push   0xffffffff
  40a7bd:	push   ebx
  40a7be:	call   DWORD PTR ds:0x41216c
  40a7c4:	test   eax,eax
  40a7c6:	jne    0x40a800
  40a7c8:	call   DWORD PTR ds:0x41208c
  40a7ce:	mov    ecx,eax
  40a7d0:	test   ecx,ecx
  40a7d2:	je     0x40a800
  40a7d4:	mov    eax,ds:0x411010
  40a7d9:	cmp    eax,0x411010
  40a7de:	je     0x40a82c
  40a7e0:	cmp    BYTE PTR [eax+0x19],0x3
  40a7e4:	jb     0x40a805
  40a7e6:	test   BYTE PTR [eax+0x1c],0x1
  40a7ea:	je     0x40a805
  40a7ec:	push   ecx
  40a7ed:	push   DWORD PTR [eax+0x14]
  40a7f0:	mov    edx,0x401918
  40a7f5:	push   DWORD PTR [eax+0x10]
  40a7f8:	push   0x1d
  40a7fa:	pop    ecx
  40a7fb:	call   0x402af8
  40a800:	mov    eax,ds:0x411010
  40a805:	cmp    eax,0x411010
  40a80a:	je     0x40a82c
  40a80c:	cmp    BYTE PTR [eax+0x19],0x4
  40a810:	jb     0x40a82c
  40a812:	test   BYTE PTR [eax+0x1c],0x1
  40a816:	je     0x40a82c
  40a818:	push   esi
  40a819:	push   DWORD PTR [eax+0x14]
  40a81c:	mov    edx,0x401918
  40a821:	push   DWORD PTR [eax+0x10]
  40a824:	push   0x1e
  40a826:	pop    ecx
  40a827:	call   0x402af8
  40a82c:	pop    edi
  40a82d:	mov    eax,esi
  40a82f:	pop    esi
  40a830:	pop    ebx
  40a831:	mov    esp,ebp
  40a833:	pop    ebp
  40a834:	ret    
  40a835:	int3   
  40a836:	int3   
  40a837:	int3   
  40a838:	int3   
  40a839:	int3   
  40a83a:	mov    edi,edi
  40a83c:	push   ebp
  40a83d:	mov    ebp,esp
  40a83f:	sub    esp,0xc
  40a842:	and    DWORD PTR [ebp-0x4],0x0
  40a846:	push   ebx
  40a847:	push   esi
  40a848:	push   edi
  40a849:	mov    DWORD PTR [ebp-0x8],ecx
  40a84c:	mov    eax,ds:0x411010
  40a851:	cmp    eax,0x411010
  40a856:	je     0x40a877
  40a858:	cmp    BYTE PTR [eax+0x19],0x4
  40a85c:	jb     0x40a877
  40a85e:	test   BYTE PTR [eax+0x1c],0x1
  40a862:	je     0x40a877
  40a864:	push   DWORD PTR [eax+0x14]
  40a867:	mov    edx,0x401918
  40a86c:	push   DWORD PTR [eax+0x10]
  40a86f:	push   0x1f
  40a871:	pop    ecx
  40a872:	call   0x402ad5
  40a877:	push   0x411500
  40a87c:	call   DWORD PTR ds:0x412128
  40a882:	cmp    DWORD PTR ds:0x411438,0x0
  40a889:	jne    0x40a8c0
  40a88b:	push   0x5
  40a88d:	pop    ebx
  40a88e:	mov    eax,ds:0x411010
  40a893:	cmp    eax,0x411010
  40a898:	je     0x40a9f8
  40a89e:	test   BYTE PTR [eax+0x1c],0x1
  40a8a2:	je     0x40a9f8
  40a8a8:	push   DWORD PTR [eax+0x14]
  40a8ab:	mov    edx,0x401918
  40a8b0:	push   DWORD PTR [eax+0x10]
  40a8b3:	push   0x20
  40a8b5:	pop    ecx
  40a8b6:	call   0x402ad5
  40a8bb:	jmp    0x40a9f8
  40a8c0:	cmp    DWORD PTR ds:0x41143c,0x0
  40a8c7:	jne    0x40a96c
  40a8cd:	push   0x64
  40a8cf:	pop    esi
  40a8d0:	push   esi
  40a8d1:	push   esi
  40a8d2:	push   DWORD PTR ds:0x411430
  40a8d8:	push   DWORD PTR ds:0x411434
  40a8de:	call   DWORD PTR ds:0x412174
  40a8e4:	test   eax,eax
  40a8e6:	jne    0x40a933
  40a8e8:	call   DWORD PTR ds:0x41208c
  40a8ee:	mov    ebx,eax
  40a8f0:	test   ebx,ebx
  40a8f2:	je     0x40a933
  40a8f4:	mov    ecx,DWORD PTR ds:0x411010
  40a8fa:	cmp    ecx,0x411010
  40a900:	je     0x40a9f8
  40a906:	cmp    BYTE PTR [ecx+0x19],0x1
  40a90a:	jb     0x40a9f8
  40a910:	test   BYTE PTR [ecx+0x1c],0x1
  40a914:	je     0x40a9f8
  40a91a:	push   ebx
  40a91b:	push   DWORD PTR [ecx+0x14]
  40a91e:	mov    edx,0x401918
  40a923:	push   DWORD PTR [ecx+0x10]
  40a926:	push   0x21
  40a928:	pop    ecx
  40a929:	call   0x402af8
  40a92e:	jmp    0x40a9f8
  40a933:	cmp    DWORD PTR ds:0x41101c,esi
  40a939:	je     0x40a966
  40a93b:	mov    eax,ds:0x411010
  40a940:	cmp    eax,0x411010
  40a945:	je     0x40a966
  40a947:	cmp    BYTE PTR [eax+0x19],0x3
  40a94b:	jb     0x40a966
  40a94d:	test   BYTE PTR [eax+0x1c],0x1
  40a951:	je     0x40a966
  40a953:	push   DWORD PTR [eax+0x14]
  40a956:	mov    edx,0x401918
  40a95b:	push   DWORD PTR [eax+0x10]
  40a95e:	push   0x22
  40a960:	pop    ecx
  40a961:	call   0x402ad5
  40a966:	mov    DWORD PTR ds:0x41101c,esi
  40a96c:	lea    eax,[ebp-0x4]
  40a96f:	push   eax
  40a970:	push   0x14
  40a972:	pop    edi
  40a973:	push   edi
  40a974:	call   0x409fb0
  40a979:	mov    ebx,eax
  40a97b:	test   ebx,ebx
  40a97d:	jne    0x40a9f8
  40a97f:	mov    esi,DWORD PTR [ebp-0x4]
  40a982:	mov    eax,esi
  40a984:	mov    BYTE PTR [eax],0x0
  40a987:	inc    eax
  40a988:	sub    edi,0x1
  40a98b:	jne    0x40a984
  40a98d:	mov    eax,DWORD PTR [ebp+0xc]
  40a990:	mov    DWORD PTR [esi],0x408cf0
  40a996:	mov    DWORD PTR [eax],esi
  40a998:	mov    eax,DWORD PTR [ebp+0x8]
  40a99b:	mov    DWORD PTR [esi+0x4],eax
  40a99e:	mov    eax,DWORD PTR [ebp-0x8]
  40a9a1:	mov    DWORD PTR [esi+0xc],eax
  40a9a4:	call   DWORD PTR ds:0x412158
  40a9aa:	mov    edi,DWORD PTR ds:0x41143c
  40a9b0:	mov    DWORD PTR [esi+0x8],eax
  40a9b3:	test   edi,edi
  40a9b5:	jne    0x40a9bf
  40a9b7:	mov    DWORD PTR ds:0x41143c,esi
  40a9bd:	jmp    0x40a9f8
  40a9bf:	mov    edx,edi
  40a9c1:	mov    ecx,esi
  40a9c3:	call   0x40a0fd
  40a9c8:	test   eax,eax
  40a9ca:	je     0x40a9e7
  40a9cc:	mov    DWORD PTR [esi+0x10],edi
  40a9cf:	jmp    0x40a9b7
  40a9d1:	mov    eax,DWORD PTR [edi+0x10]
  40a9d4:	mov    ecx,esi
  40a9d6:	mov    edx,eax
  40a9d8:	mov    DWORD PTR [ebp-0x8],eax
  40a9db:	call   0x40a0fd
  40a9e0:	test   eax,eax
  40a9e2:	jne    0x40a9ef
  40a9e4:	mov    edi,DWORD PTR [ebp-0x8]
  40a9e7:	cmp    DWORD PTR [edi+0x10],0x0
  40a9eb:	jne    0x40a9d1
  40a9ed:	jmp    0x40a9f5
  40a9ef:	mov    eax,DWORD PTR [edi+0x10]
  40a9f2:	mov    DWORD PTR [esi+0x10],eax
  40a9f5:	mov    DWORD PTR [edi+0x10],esi
  40a9f8:	push   0x411500
  40a9fd:	call   DWORD PTR ds:0x412148
  40aa03:	mov    eax,ds:0x411010
  40aa08:	cmp    eax,0x411010
  40aa0d:	je     0x40aa2f
  40aa0f:	cmp    BYTE PTR [eax+0x19],0x4
  40aa13:	jb     0x40aa2f
  40aa15:	test   BYTE PTR [eax+0x1c],0x1
  40aa19:	je     0x40aa2f
  40aa1b:	push   ebx
  40aa1c:	push   DWORD PTR [eax+0x14]
  40aa1f:	mov    edx,0x401918
  40aa24:	push   DWORD PTR [eax+0x10]
  40aa27:	push   0x23
  40aa29:	pop    ecx
  40aa2a:	call   0x402af8
  40aa2f:	pop    edi
  40aa30:	pop    esi
  40aa31:	mov    eax,ebx
  40aa33:	pop    ebx
  40aa34:	mov    esp,ebp
  40aa36:	pop    ebp
  40aa37:	ret    0x8
  40aa3a:	int3   
  40aa3b:	int3   
  40aa3c:	int3   
  40aa3d:	int3   
  40aa3e:	int3   
  40aa3f:	mov    edi,edi
  40aa41:	push   ebx
  40aa42:	push   esi
  40aa43:	xor    esi,esi
  40aa45:	push   edi
  40aa46:	mov    edi,ecx
  40aa48:	mov    ebx,esi
  40aa4a:	mov    eax,ds:0x411010
  40aa4f:	cmp    eax,0x411010
  40aa54:	je     0x40aa7a
  40aa56:	cmp    BYTE PTR [eax+0x19],0x4
  40aa5a:	jb     0x40aa7a
  40aa5c:	test   BYTE PTR [eax+0x1c],0x1
  40aa60:	je     0x40aa7a
  40aa62:	push   DWORD PTR [eax+0x14]
  40aa65:	mov    edx,0x401918
  40aa6a:	push   DWORD PTR [eax+0x10]
  40aa6d:	push   0x24
  40aa6f:	pop    ecx
  40aa70:	call   0x402ad5
  40aa75:	mov    eax,ds:0x411010
  40aa7a:	test   edi,edi
  40aa7c:	jne    0x40aaae
  40aa7e:	push   0x57
  40aa80:	pop    esi
  40aa81:	cmp    eax,0x411010
  40aa86:	je     0x40ab7a
  40aa8c:	test   BYTE PTR [eax+0x1c],0x1
  40aa90:	je     0x40ab53
  40aa96:	push   DWORD PTR [eax+0x14]
  40aa99:	mov    edx,0x401918
  40aa9e:	push   DWORD PTR [eax+0x10]
  40aaa1:	push   0x25
  40aaa3:	pop    ecx
  40aaa4:	call   0x402ad5
  40aaa9:	jmp    0x40ab4e
  40aaae:	push   0x411500
  40aab3:	call   DWORD PTR ds:0x412128
  40aab9:	mov    ecx,DWORD PTR ds:0x41143c
  40aabf:	test   ecx,ecx
  40aac1:	jne    0x40aaea
  40aac3:	mov    esi,0x21d
  40aac8:	mov    eax,ds:0x411010
  40aacd:	cmp    eax,0x411010
  40aad2:	je     0x40ab39
  40aad4:	cmp    BYTE PTR [eax+0x19],0x3
  40aad8:	jb     0x40ab39
  40aada:	test   BYTE PTR [eax+0x1c],0x1
  40aade:	je     0x40ab39
  40aae0:	push   DWORD PTR [eax+0x14]
  40aae3:	push   DWORD PTR [eax+0x10]
  40aae6:	push   0x26
  40aae8:	jmp    0x40ab2e
  40aaea:	cmp    edi,ecx
  40aaec:	jne    0x40ab04
  40aaee:	mov    eax,DWORD PTR [ecx+0x10]
  40aaf1:	xor    ebx,ebx
  40aaf3:	inc    ebx
  40aaf4:	mov    ds:0x41143c,eax
  40aaf9:	jmp    0x40ab39
  40aafb:	mov    eax,DWORD PTR [ecx+0x10]
  40aafe:	cmp    edi,eax
  40ab00:	je     0x40ab80
  40ab02:	mov    ecx,eax
  40ab04:	cmp    DWORD PTR [ecx+0x10],esi
  40ab07:	jne    0x40aafb
  40ab09:	mov    esi,0x21d
  40ab0e:	mov    eax,ds:0x411010
  40ab13:	cmp    eax,0x411010
  40ab18:	je     0x40ab39
  40ab1a:	cmp    BYTE PTR [eax+0x19],0x3
  40ab1e:	jb     0x40ab39
  40ab20:	test   BYTE PTR [eax+0x1c],0x1
  40ab24:	je     0x40ab39
  40ab26:	push   DWORD PTR [eax+0x14]
  40ab29:	push   DWORD PTR [eax+0x10]
  40ab2c:	push   0x27
  40ab2e:	mov    edx,0x401918
  40ab33:	pop    ecx
  40ab34:	call   0x402ad5
  40ab39:	push   0x411500
  40ab3e:	call   DWORD PTR ds:0x412148
  40ab44:	test   ebx,ebx
  40ab46:	je     0x40ab4e
  40ab48:	push   edi
  40ab49:	call   0x40a080
  40ab4e:	mov    eax,ds:0x411010
  40ab53:	cmp    eax,0x411010
  40ab58:	je     0x40ab7a
  40ab5a:	cmp    BYTE PTR [eax+0x19],0x4
  40ab5e:	jb     0x40ab7a
  40ab60:	test   BYTE PTR [eax+0x1c],0x1
  40ab64:	je     0x40ab7a
  40ab66:	push   esi
  40ab67:	push   DWORD PTR [eax+0x14]
  40ab6a:	mov    edx,0x401918
  40ab6f:	push   DWORD PTR [eax+0x10]
  40ab72:	push   0x28
  40ab74:	pop    ecx
  40ab75:	call   0x402af8
  40ab7a:	pop    edi
  40ab7b:	mov    eax,esi
  40ab7d:	pop    esi
  40ab7e:	pop    ebx
  40ab7f:	ret    
  40ab80:	mov    eax,DWORD PTR [edi+0x10]
  40ab83:	xor    ebx,ebx
  40ab85:	mov    DWORD PTR [ecx+0x10],eax
  40ab88:	inc    ebx
  40ab89:	jmp    0x40ab39
  40ab8b:	int3   
  40ab8c:	int3   
  40ab8d:	int3   
  40ab8e:	int3   
  40ab8f:	int3   
  40ab90:	push   0x14
  40ab92:	push   0x410a50
  40ab97:	call   0x41072c
  40ab9c:	mov    DWORD PTR [ebp-0x1c],edx
  40ab9f:	mov    ebx,ecx
  40aba1:	xor    esi,esi
  40aba3:	mov    eax,ds:0x411010
  40aba8:	cmp    eax,0x411010
  40abad:	je     0x40abce
  40abaf:	cmp    BYTE PTR [eax+0x19],0x4
  40abb3:	jb     0x40abce
  40abb5:	test   BYTE PTR [eax+0x1c],0x1
  40abb9:	je     0x40abce
  40abbb:	push   DWORD PTR [eax+0x14]
  40abbe:	push   DWORD PTR [eax+0x10]
  40abc1:	mov    edx,0x401928
  40abc6:	push   0xa
  40abc8:	pop    ecx
  40abc9:	call   0x402ad5
  40abce:	xor    eax,eax
  40abd0:	inc    eax
  40abd1:	mov    ecx,DWORD PTR [ebp-0x1c]
  40abd4:	xchg   DWORD PTR [ecx],eax
  40abd6:	test   eax,eax
  40abd8:	je     0x40ac0e
  40abda:	mov    esi,0x139f
  40abdf:	mov    eax,ds:0x411010
  40abe4:	cmp    eax,0x411010
  40abe9:	je     0x40aca3
  40abef:	test   BYTE PTR [eax+0x1c],0x1
  40abf3:	je     0x40ac7c
  40abf9:	push   DWORD PTR [eax+0x14]
  40abfc:	push   DWORD PTR [eax+0x10]
  40abff:	mov    edx,0x401928
  40ac04:	push   0xb
  40ac06:	pop    ecx
  40ac07:	call   0x402ad5
  40ac0c:	jmp    0x40ac77
  40ac0e:	mov    DWORD PTR [ebp-0x4],esi
  40ac11:	push   ebx
  40ac12:	call   DWORD PTR ds:0x41214c
  40ac18:	mov    eax,DWORD PTR [ebp+0x8]
  40ac1b:	mov    DWORD PTR [eax],0x1
  40ac21:	jmp    0x40ac70
  40ac23:	mov    eax,DWORD PTR [ebp-0x14]
  40ac26:	mov    eax,DWORD PTR [eax]
  40ac28:	mov    eax,DWORD PTR [eax]
  40ac2a:	mov    DWORD PTR [ebp-0x20],eax
  40ac2d:	xor    eax,eax
  40ac2f:	inc    eax
  40ac30:	ret    
  40ac31:	mov    esp,DWORD PTR [ebp-0x18]
  40ac34:	mov    esi,DWORD PTR [ebp-0x20]
  40ac37:	mov    eax,DWORD PTR [ebp+0x8]
  40ac3a:	mov    DWORD PTR [eax],0x2
  40ac40:	test   esi,esi
  40ac42:	je     0x40ac70
  40ac44:	mov    eax,ds:0x411010
  40ac49:	cmp    eax,0x411010
  40ac4e:	je     0x40ac70
  40ac50:	cmp    BYTE PTR [eax+0x19],0x1
  40ac54:	jb     0x40ac70
  40ac56:	test   BYTE PTR [eax+0x1c],0x1
  40ac5a:	je     0x40ac70
  40ac5c:	push   esi
  40ac5d:	push   DWORD PTR [eax+0x14]
  40ac60:	push   DWORD PTR [eax+0x10]
  40ac63:	mov    edx,0x401928
  40ac68:	push   0xc
  40ac6a:	pop    ecx
  40ac6b:	call   0x402af8
  40ac70:	mov    DWORD PTR [ebp-0x4],0xfffffffe
  40ac77:	mov    eax,ds:0x411010
  40ac7c:	cmp    eax,0x411010
  40ac81:	je     0x40aca3
  40ac83:	cmp    BYTE PTR [eax+0x19],0x4
  40ac87:	jb     0x40aca3
  40ac89:	test   BYTE PTR [eax+0x1c],0x1
  40ac8d:	je     0x40aca3
  40ac8f:	push   esi
  40ac90:	push   DWORD PTR [eax+0x14]
  40ac93:	push   DWORD PTR [eax+0x10]
  40ac96:	mov    edx,0x401928
  40ac9b:	push   0xd
  40ac9d:	pop    ecx
  40ac9e:	call   0x402af8
  40aca3:	mov    eax,esi
  40aca5:	call   0x410771
  40acaa:	ret    0x4
  40acad:	int3   
  40acae:	int3   
  40acaf:	int3   
  40acb0:	int3   
  40acb1:	int3   
  40acb2:	mov    edi,edi
  40acb4:	push   ebx
  40acb5:	push   esi
  40acb6:	push   edi
  40acb7:	mov    esi,ecx
  40acb9:	mov    eax,ds:0x411010
  40acbe:	mov    edi,0x411010
  40acc3:	mov    ebx,0x401994
  40acc8:	cmp    eax,edi
  40acca:	je     0x40ace8
  40accc:	cmp    BYTE PTR [eax+0x19],0x4
  40acd0:	jb     0x40ace8
  40acd2:	test   BYTE PTR [eax+0x1c],0x1
  40acd6:	je     0x40ace8
  40acd8:	push   DWORD PTR [eax+0x14]
  40acdb:	mov    edx,ebx
  40acdd:	push   DWORD PTR [eax+0x10]
  40ace0:	push   0xa
  40ace2:	pop    ecx
  40ace3:	call   0x402ad5
  40ace8:	push   esi
  40ace9:	call   DWORD PTR ds:0x412024
  40acef:	mov    esi,eax
  40acf1:	test   esi,esi
  40acf3:	je     0x40ad16
  40acf5:	mov    ecx,DWORD PTR ds:0x411010
  40acfb:	cmp    ecx,edi
  40acfd:	je     0x40ad3d
  40acff:	test   BYTE PTR [ecx+0x1c],0x1
  40ad03:	je     0x40ad1c
  40ad05:	push   esi
  40ad06:	push   DWORD PTR [ecx+0x14]
  40ad09:	mov    edx,ebx
  40ad0b:	push   DWORD PTR [ecx+0x10]
  40ad0e:	push   0xb
  40ad10:	pop    ecx
  40ad11:	call   0x402af8
  40ad16:	mov    ecx,DWORD PTR ds:0x411010
  40ad1c:	cmp    ecx,edi
  40ad1e:	je     0x40ad3d
  40ad20:	cmp    BYTE PTR [ecx+0x19],0x4
  40ad24:	jb     0x40ad3d
  40ad26:	test   BYTE PTR [ecx+0x1c],0x1
  40ad2a:	je     0x40ad3d
  40ad2c:	push   esi
  40ad2d:	push   DWORD PTR [ecx+0x14]
  40ad30:	mov    edx,ebx
  40ad32:	push   DWORD PTR [ecx+0x10]
  40ad35:	push   0xc
  40ad37:	pop    ecx
  40ad38:	call   0x402af8
  40ad3d:	pop    edi
  40ad3e:	pop    esi
  40ad3f:	pop    ebx
  40ad40:	ret    
  40ad41:	int3   
  40ad42:	int3   
  40ad43:	int3   
  40ad44:	int3   
  40ad45:	int3   
  40ad46:	mov    edi,edi
  40ad48:	push   ebp
  40ad49:	mov    ebp,esp
  40ad4b:	sub    esp,0x30
  40ad4e:	push   ebx
  40ad4f:	push   esi
  40ad50:	xor    eax,eax
  40ad52:	push   edi
  40ad53:	push   0x6
  40ad55:	mov    ebx,eax
  40ad57:	mov    DWORD PTR [ebp-0x30],eax
  40ad5a:	pop    ecx
  40ad5b:	lea    edi,[ebp-0x2c]
  40ad5e:	mov    DWORD PTR [ebp-0x14],eax
  40ad61:	mov    DWORD PTR [ebp-0x8],eax
  40ad64:	mov    DWORD PTR [ebp-0xc],eax
  40ad67:	mov    DWORD PTR [ebp-0x4],eax
  40ad6a:	mov    DWORD PTR [ebp-0x10],ebx
  40ad6d:	rep stos DWORD PTR es:[edi],eax
  40ad6f:	mov    eax,ds:0x411010
  40ad74:	cmp    eax,0x411010
  40ad79:	je     0x40ad9a
  40ad7b:	cmp    BYTE PTR [eax+0x19],0x4
  40ad7f:	jb     0x40ad9a
  40ad81:	test   BYTE PTR [eax+0x1c],0x1
  40ad85:	je     0x40ad9a
  40ad87:	push   DWORD PTR [eax+0x14]
  40ad8a:	mov    edx,0x401994
  40ad8f:	push   DWORD PTR [eax+0x10]
  40ad92:	push   0xd
  40ad94:	pop    ecx
  40ad95:	call   0x402ad5
  40ad9a:	lea    edx,[ebp-0x14]
  40ad9d:	xor    ecx,ecx
  40ad9f:	call   0x40bc31
  40ada4:	mov    esi,eax
  40ada6:	test   esi,esi
  40ada8:	jne    0x40af94
  40adae:	lea    eax,[ebp-0x8]
  40adb1:	xor    edi,edi
  40adb3:	push   eax
  40adb4:	push   0x401938
  40adb9:	push   edi
  40adba:	push   edi
  40adbb:	push   0x401984
  40adc0:	push   DWORD PTR [ebp-0x14]
  40adc3:	call   DWORD PTR ds:0x412064
  40adc9:	mov    esi,eax
  40adcb:	test   esi,esi
  40adcd:	je     0x40ae0c
  40adcf:	mov    eax,ds:0x411010
  40add4:	cmp    eax,0x411010
  40add9:	je     0x40af94
  40addf:	cmp    BYTE PTR [eax+0x19],0x1
  40ade3:	jb     0x40af94
  40ade9:	test   BYTE PTR [eax+0x1c],0x1
  40aded:	je     0x40af94
  40adf3:	push   esi
  40adf4:	push   DWORD PTR [eax+0x14]
  40adf7:	push   DWORD PTR [eax+0x10]
  40adfa:	push   0xe
  40adfc:	mov    edx,0x401994
  40ae01:	pop    ecx
  40ae02:	call   0x402af8
  40ae07:	jmp    0x40af94
  40ae0c:	lea    eax,[ebp-0x4]
  40ae0f:	push   eax
  40ae10:	push   DWORD PTR [ebp-0x8]
  40ae13:	call   DWORD PTR ds:0x412034
  40ae19:	mov    esi,eax
  40ae1b:	test   esi,esi
  40ae1d:	je     0x40ae4e
  40ae1f:	mov    eax,ds:0x411010
  40ae24:	cmp    eax,0x411010
  40ae29:	je     0x40af94
  40ae2f:	cmp    BYTE PTR [eax+0x19],0x1
  40ae33:	jb     0x40af94
  40ae39:	test   BYTE PTR [eax+0x1c],0x1
  40ae3d:	je     0x40af94
  40ae43:	push   esi
  40ae44:	push   DWORD PTR [eax+0x14]
  40ae47:	push   DWORD PTR [eax+0x10]
  40ae4a:	push   0xf
  40ae4c:	jmp    0x40adfc
  40ae4e:	push   0x402378
  40ae53:	push   DWORD PTR [ebp-0x4]
  40ae56:	call   DWORD PTR ds:0x412070
  40ae5c:	mov    esi,eax
  40ae5e:	test   esi,esi
  40ae60:	je     0x40ae94
  40ae62:	mov    eax,ds:0x411010
  40ae67:	cmp    eax,0x411010
  40ae6c:	je     0x40af94
  40ae72:	cmp    BYTE PTR [eax+0x19],0x1
  40ae76:	jb     0x40af94
  40ae7c:	test   BYTE PTR [eax+0x1c],0x1
  40ae80:	je     0x40af94
  40ae86:	push   esi
  40ae87:	push   DWORD PTR [eax+0x14]
  40ae8a:	push   DWORD PTR [eax+0x10]
  40ae8d:	push   0x10
  40ae8f:	jmp    0x40adfc
  40ae94:	push   0x1
  40ae96:	push   0xb
  40ae98:	push   DWORD PTR [ebp-0x4]
  40ae9b:	call   DWORD PTR ds:0x41200c
  40aea1:	mov    esi,eax
  40aea3:	test   esi,esi
  40aea5:	je     0x40aed9
  40aea7:	mov    eax,ds:0x411010
  40aeac:	cmp    eax,0x411010
  40aeb1:	je     0x40af94
  40aeb7:	cmp    BYTE PTR [eax+0x19],0x1
  40aebb:	jb     0x40af94
  40aec1:	test   BYTE PTR [eax+0x1c],0x1
  40aec5:	je     0x40af94
  40aecb:	push   esi
  40aecc:	push   DWORD PTR [eax+0x14]
  40aecf:	push   DWORD PTR [eax+0x10]
  40aed2:	push   0x11
  40aed4:	jmp    0x40adfc
  40aed9:	lea    eax,[ebp-0xc]
  40aedc:	push   eax
  40aedd:	push   0xa
  40aedf:	push   DWORD PTR [ebp-0x4]
  40aee2:	call   DWORD PTR ds:0x412008
  40aee8:	mov    esi,eax
  40aeea:	test   esi,esi
  40aeec:	je     0x40af20
  40aeee:	mov    eax,ds:0x411010
  40aef3:	cmp    eax,0x411010
  40aef8:	je     0x40af94
  40aefe:	cmp    BYTE PTR [eax+0x19],0x1
  40af02:	jb     0x40af94
  40af08:	test   BYTE PTR [eax+0x1c],0x1
  40af0c:	je     0x40af94
  40af12:	push   esi
  40af13:	push   DWORD PTR [eax+0x14]
  40af16:	push   DWORD PTR [eax+0x10]
  40af19:	push   0x12
  40af1b:	jmp    0x40adfc
  40af20:	lea    ecx,[ebp-0x10]
  40af23:	call   0x40b83e
  40af28:	mov    ebx,DWORD PTR [ebp-0x10]
  40af2b:	mov    esi,eax
  40af2d:	test   esi,esi
  40af2f:	jne    0x40af94
  40af31:	push   0x3
  40af33:	pop    eax
  40af34:	mov    DWORD PTR [ebp-0x30],eax
  40af37:	mov    DWORD PTR [ebp-0x24],eax
  40af3a:	lea    eax,[ebp-0x30]
  40af3d:	push   eax
  40af3e:	push   edi
  40af3f:	push   edi
  40af40:	push   0xa
  40af42:	push   0x6
  40af44:	push   DWORD PTR [ebp-0xc]
  40af47:	mov    DWORD PTR [ebp-0x2c],0x11
  40af4e:	push   DWORD PTR [ebp-0x4]
  40af51:	mov    DWORD PTR [ebp-0x28],edi
  40af54:	mov    DWORD PTR [ebp-0x18],ebx
  40af57:	call   DWORD PTR ds:0x41201c
  40af5d:	mov    esi,eax
  40af5f:	test   esi,esi
  40af61:	je     0x40af89
  40af63:	mov    eax,ds:0x411010
  40af68:	cmp    eax,0x411010
  40af6d:	je     0x40af94
  40af6f:	cmp    BYTE PTR [eax+0x19],0x1
  40af73:	jb     0x40af94
  40af75:	test   BYTE PTR [eax+0x1c],0x1
  40af79:	je     0x40af94
  40af7b:	push   esi
  40af7c:	push   DWORD PTR [eax+0x14]
  40af7f:	push   DWORD PTR [eax+0x10]
  40af82:	push   0x13
  40af84:	jmp    0x40adfc
  40af89:	mov    eax,DWORD PTR [ebp-0x4]
  40af8c:	mov    ds:0x4113e0,eax
  40af91:	mov    DWORD PTR [ebp-0x4],edi
  40af94:	cmp    DWORD PTR [ebp-0x8],0x0
  40af98:	je     0x40afa4
  40af9a:	lea    eax,[ebp-0x8]
  40af9d:	push   eax
  40af9e:	call   DWORD PTR ds:0x412030
  40afa4:	cmp    DWORD PTR [ebp-0xc],0x0
  40afa8:	je     0x40afb4
  40afaa:	lea    eax,[ebp-0xc]
  40afad:	push   eax
  40afae:	call   DWORD PTR ds:0x412030
  40afb4:	cmp    DWORD PTR [ebp-0x4],0x0
  40afb8:	je     0x40afc2
  40afba:	lea    ecx,[ebp-0x4]
  40afbd:	call   0x40acb2
  40afc2:	push   DWORD PTR [ebp-0x14]
  40afc5:	call   0x40a080
  40afca:	push   ebx
  40afcb:	call   0x40a080
  40afd0:	mov    eax,ds:0x411010
  40afd5:	cmp    eax,0x411010
  40afda:	je     0x40affc
  40afdc:	cmp    BYTE PTR [eax+0x19],0x4
  40afe0:	jb     0x40affc
  40afe2:	test   BYTE PTR [eax+0x1c],0x1
  40afe6:	je     0x40affc
  40afe8:	push   esi
  40afe9:	push   DWORD PTR [eax+0x14]
  40afec:	mov    edx,0x401994
  40aff1:	push   DWORD PTR [eax+0x10]
  40aff4:	push   0x15
  40aff6:	pop    ecx
  40aff7:	call   0x402af8
  40affc:	pop    edi
  40affd:	mov    eax,esi
  40afff:	pop    esi
  40b000:	pop    ebx
  40b001:	mov    esp,ebp
  40b003:	pop    ebp
  40b004:	ret    0x4
  40b007:	int3   
  40b008:	int3   
  40b009:	int3   
  40b00a:	int3   
  40b00b:	int3   
  40b00c:	mov    edi,edi
  40b00e:	push   ebp
  40b00f:	mov    ebp,esp
  40b011:	mov    ecx,DWORD PTR [ebp+0x10]
  40b014:	push   esi
  40b015:	push   edi
  40b016:	xor    edi,edi
  40b018:	test   ecx,ecx
  40b01a:	je     0x40b042
  40b01c:	cmp    WORD PTR [ecx],di
  40b01f:	jne    0x40b025
  40b021:	push   0xe
  40b023:	jmp    0x40b044
  40b025:	mov    edx,ecx
  40b027:	lea    esi,[edx+0x2]
  40b02a:	mov    ax,WORD PTR [edx]
  40b02d:	add    edx,0x2
  40b030:	cmp    ax,di
  40b033:	jne    0x40b02a
  40b035:	sub    edx,esi
  40b037:	sar    edx,1
  40b039:	lea    edx,[edx*2+0x2]
  40b040:	jmp    0x40b045
  40b042:	push   0xa
  40b044:	pop    edx
  40b045:	test   ecx,ecx
  40b047:	je     0x40b055
  40b049:	cmp    WORD PTR [ecx],di
  40b04c:	jne    0x40b05a
  40b04e:	mov    ecx,0x4014fc
  40b053:	jmp    0x40b05a
  40b055:	mov    ecx,0x40150c
  40b05a:	push   edi
  40b05b:	push   edx
  40b05c:	push   ecx
  40b05d:	push   0x21
  40b05f:	push   0x4019c4
  40b064:	push   0x2b
  40b066:	push   DWORD PTR [ebp+0xc]
  40b069:	push   DWORD PTR [ebp+0x8]
  40b06c:	call   DWORD PTR ds:0x412184
  40b072:	add    esp,0x20
  40b075:	pop    edi
  40b076:	pop    esi
  40b077:	pop    ebp
  40b078:	ret    0xc
  40b07b:	int3   
  40b07c:	int3   
  40b07d:	int3   
  40b07e:	int3   
  40b07f:	int3   
  40b080:	mov    edi,edi
  40b082:	push   ebp
  40b083:	mov    ebp,esp
  40b085:	and    esp,0xfffffff8
  40b088:	sub    esp,0x1c
  40b08b:	push   ebx
  40b08c:	push   esi
  40b08d:	push   edi
  40b08e:	xor    edi,edi
  40b090:	mov    DWORD PTR [esp+0x10],edi
  40b094:	mov    DWORD PTR [esp+0x14],edi
  40b098:	mov    DWORD PTR [esp+0x18],edi
  40b09c:	mov    DWORD PTR [esp+0x1c],edi
  40b0a0:	mov    DWORD PTR [esp+0x24],edi
  40b0a4:	mov    DWORD PTR [esp+0x20],edi
  40b0a8:	mov    eax,ds:0x411010
  40b0ad:	xor    ebx,ebx
  40b0af:	inc    ebx
  40b0b0:	cmp    eax,0x411010
  40b0b5:	je     0x40b0d5
  40b0b7:	cmp    BYTE PTR [eax+0x19],0x4
  40b0bb:	jb     0x40b0d5
  40b0bd:	test   BYTE PTR [eax+0x1c],bl
  40b0c0:	je     0x40b0d5
  40b0c2:	push   DWORD PTR [eax+0x14]
  40b0c5:	mov    edx,0x4019c4
  40b0ca:	push   DWORD PTR [eax+0x10]
  40b0cd:	push   0xa
  40b0cf:	pop    ecx
  40b0d0:	call   0x402ad5
  40b0d5:	lea    eax,[esp+0x10]
  40b0d9:	push   eax
  40b0da:	push   DWORD PTR [ebp+0xc]
  40b0dd:	call   DWORD PTR ds:0x41206c
  40b0e3:	mov    esi,eax
  40b0e5:	test   esi,esi
  40b0e7:	je     0x40b119
  40b0e9:	mov    eax,ds:0x411010
  40b0ee:	cmp    eax,0x411010
  40b0f3:	je     0x40b259
  40b0f9:	cmp    BYTE PTR [eax+0x19],bl
  40b0fc:	jb     0x40b259
  40b102:	test   BYTE PTR [eax+0x1c],bl
  40b105:	je     0x40b259
  40b10b:	push   esi
  40b10c:	push   DWORD PTR [eax+0x14]
  40b10f:	push   DWORD PTR [eax+0x10]
  40b112:	push   0xb
  40b114:	jmp    0x40b24e
  40b119:	push   edi
  40b11a:	push   edi
  40b11b:	push   edi
  40b11c:	lea    eax,[esp+0x20]
  40b120:	push   eax
  40b121:	push   edi
  40b122:	push   DWORD PTR [esp+0x24]
  40b126:	call   DWORD PTR ds:0x412068
  40b12c:	mov    esi,eax
  40b12e:	test   esi,esi
  40b130:	je     0x40b162
  40b132:	mov    eax,ds:0x411010
  40b137:	cmp    eax,0x411010
  40b13c:	je     0x40b259
  40b142:	cmp    BYTE PTR [eax+0x19],bl
  40b145:	jb     0x40b259
  40b14b:	test   BYTE PTR [eax+0x1c],bl
  40b14e:	je     0x40b259
  40b154:	push   esi
  40b155:	push   DWORD PTR [eax+0x14]
  40b158:	push   DWORD PTR [eax+0x10]
  40b15b:	push   0xc
  40b15d:	jmp    0x40b24e
  40b162:	mov    eax,DWORD PTR [esp+0x14]
  40b166:	mov    ecx,0x401984
  40b16b:	mov    dx,WORD PTR [eax]
  40b16e:	cmp    dx,WORD PTR [ecx]
  40b171:	jne    0x40b191
  40b173:	test   dx,dx
  40b176:	je     0x40b18d
  40b178:	mov    dx,WORD PTR [eax+0x2]
  40b17c:	cmp    dx,WORD PTR [ecx+0x2]
  40b180:	jne    0x40b191
  40b182:	add    eax,0x4
  40b185:	add    ecx,0x4
  40b188:	test   dx,dx
  40b18b:	jne    0x40b16b
  40b18d:	mov    eax,edi
  40b18f:	jmp    0x40b195
  40b191:	sbb    eax,eax
  40b193:	or     eax,ebx
  40b195:	test   eax,eax
  40b197:	je     0x40b1cc
  40b199:	push   0x5
  40b19b:	pop    esi
  40b19c:	mov    eax,ds:0x411010
  40b1a1:	cmp    eax,0x411010
  40b1a6:	je     0x40b259
  40b1ac:	cmp    BYTE PTR [eax+0x19],bl
  40b1af:	jb     0x40b259
  40b1b5:	test   BYTE PTR [eax+0x1c],bl
  40b1b8:	je     0x40b259
  40b1be:	push   esi
  40b1bf:	push   DWORD PTR [eax+0x14]
  40b1c2:	push   DWORD PTR [eax+0x10]
  40b1c5:	push   0xd
  40b1c7:	jmp    0x40b24e
  40b1cc:	push   edi
  40b1cd:	lea    eax,[esp+0x20]
  40b1d1:	push   eax
  40b1d2:	lea    eax,[esp+0x20]
  40b1d6:	push   eax
  40b1d7:	push   edi
  40b1d8:	lea    eax,[esp+0x34]
  40b1dc:	push   eax
  40b1dd:	push   DWORD PTR [ebp+0xc]
  40b1e0:	call   DWORD PTR ds:0x412020
  40b1e6:	mov    esi,eax
  40b1e8:	test   esi,esi
  40b1ea:	je     0x40b20d
  40b1ec:	mov    eax,ds:0x411010
  40b1f1:	cmp    eax,0x411010
  40b1f6:	je     0x40b259
  40b1f8:	cmp    BYTE PTR [eax+0x19],bl
  40b1fb:	jb     0x40b259
  40b1fd:	test   BYTE PTR [eax+0x1c],bl
  40b200:	je     0x40b259
  40b202:	push   esi
  40b203:	push   DWORD PTR [eax+0x14]
  40b206:	push   DWORD PTR [eax+0x10]
  40b209:	push   0xe
  40b20b:	jmp    0x40b24e
  40b20d:	cmp    DWORD PTR [esp+0x18],0x6
  40b212:	jne    0x40b22c
  40b214:	cmp    DWORD PTR [esp+0x1c],0xa
  40b219:	jne    0x40b22c
  40b21b:	lea    ecx,[esp+0x20]
  40b21f:	call   0x40b9d4
  40b224:	mov    edi,DWORD PTR [esp+0x20]
  40b228:	mov    esi,eax
  40b22a:	jmp    0x40b259
  40b22c:	push   0x5
  40b22e:	pop    esi
  40b22f:	mov    eax,ds:0x411010
  40b234:	cmp    eax,0x411010
  40b239:	je     0x40b259
  40b23b:	cmp    BYTE PTR [eax+0x19],bl
  40b23e:	jb     0x40b259
  40b240:	test   BYTE PTR [eax+0x1c],bl
  40b243:	je     0x40b259
  40b245:	push   esi
  40b246:	push   DWORD PTR [eax+0x14]
  40b249:	push   DWORD PTR [eax+0x10]
  40b24c:	push   0xf
  40b24e:	mov    edx,0x4019c4
  40b253:	pop    ecx
  40b254:	call   0x402af8
  40b259:	mov    ecx,edi
  40b25b:	call   0x40baea
  40b260:	cmp    DWORD PTR [esp+0x10],0x0
  40b265:	je     0x40b272
  40b267:	lea    eax,[esp+0x10]
  40b26b:	push   eax
  40b26c:	call   DWORD PTR ds:0x412030
  40b272:	cmp    DWORD PTR [esp+0x14],0x0
  40b277:	je     0x40b284
  40b279:	lea    eax,[esp+0x14]
  40b27d:	push   eax
  40b27e:	call   DWORD PTR ds:0x412030
  40b284:	mov    eax,ds:0x411010
  40b289:	cmp    eax,0x411010
  40b28e:	je     0x40b2af
  40b290:	cmp    BYTE PTR [eax+0x19],0x4
  40b294:	jb     0x40b2af
  40b296:	test   BYTE PTR [eax+0x1c],bl
  40b299:	je     0x40b2af
  40b29b:	push   esi
  40b29c:	push   DWORD PTR [eax+0x14]
  40b29f:	mov    edx,0x4019c4
  40b2a4:	push   DWORD PTR [eax+0x10]
  40b2a7:	push   0x10
  40b2a9:	pop    ecx
  40b2aa:	call   0x402af8
  40b2af:	pop    edi
  40b2b0:	mov    eax,esi
  40b2b2:	pop    esi
  40b2b3:	pop    ebx
  40b2b4:	mov    esp,ebp
  40b2b6:	pop    ebp
  40b2b7:	ret    0x8
  40b2ba:	int3   
  40b2bb:	int3   
  40b2bc:	int3   
  40b2bd:	int3   
  40b2be:	int3   
  40b2bf:	mov    edi,edi
  40b2c1:	push   ebp
  40b2c2:	mov    ebp,esp
  40b2c4:	push   ecx
  40b2c5:	push   ecx
  40b2c6:	and    DWORD PTR [ebp-0x8],0x0
  40b2ca:	push   ebx
  40b2cb:	push   esi
  40b2cc:	push   edi
  40b2cd:	mov    edi,DWORD PTR ds:0x411408
  40b2d3:	xor    bl,bl
  40b2d5:	and    DWORD PTR [ebp-0x4],0x0
  40b2d9:	mov    eax,ds:0x411010
  40b2de:	cmp    eax,0x411010
  40b2e3:	je     0x40b304
  40b2e5:	cmp    BYTE PTR [eax+0x19],0x4
  40b2e9:	jb     0x40b304
  40b2eb:	test   BYTE PTR [eax+0x1c],0x1
  40b2ef:	je     0x40b304
  40b2f1:	push   DWORD PTR [eax+0x14]
  40b2f4:	mov    edx,0x4019c4
  40b2f9:	push   DWORD PTR [eax+0x10]
  40b2fc:	push   0x11
  40b2fe:	pop    ecx
  40b2ff:	call   0x402ad5
  40b304:	push   0x0
  40b306:	push   0xa
  40b308:	push   0x401984
  40b30d:	call   DWORD PTR ds:0x412060
  40b313:	mov    esi,eax
  40b315:	test   esi,esi
  40b317:	je     0x40b358
  40b319:	mov    ecx,DWORD PTR ds:0x411010
  40b31f:	cmp    ecx,0x411010
  40b325:	je     0x40b47d
  40b32b:	cmp    BYTE PTR [ecx+0x19],0x1
  40b32f:	jb     0x40b47d
  40b335:	test   BYTE PTR [ecx+0x1c],0x1
  40b339:	je     0x40b47d
  40b33f:	push   esi
  40b340:	push   DWORD PTR [ecx+0x14]
  40b343:	push   DWORD PTR [ecx+0x10]
  40b346:	push   0x12
  40b348:	mov    edx,0x4019c4
  40b34d:	pop    ecx
  40b34e:	call   0x402af8
  40b353:	jmp    0x40b477
  40b358:	lea    eax,[ebp-0x4]
  40b35b:	push   eax
  40b35c:	call   DWORD PTR ds:0x41205c
  40b362:	mov    esi,eax
  40b364:	test   esi,esi
  40b366:	je     0x40b399
  40b368:	mov    ecx,DWORD PTR ds:0x411010
  40b36e:	cmp    ecx,0x411010
  40b374:	je     0x40b47d
  40b37a:	cmp    BYTE PTR [ecx+0x19],0x1
  40b37e:	jb     0x40b47d
  40b384:	test   BYTE PTR [ecx+0x1c],0x1
  40b388:	je     0x40b47d
  40b38e:	push   esi
  40b38f:	push   DWORD PTR [ecx+0x14]
  40b392:	push   DWORD PTR [ecx+0x10]
  40b395:	push   0x13
  40b397:	jmp    0x40b348
  40b399:	push   0x4019a4
  40b39e:	push   edi
  40b39f:	push   DWORD PTR [ebp-0x4]
  40b3a2:	push   0x402000
  40b3a7:	call   DWORD PTR ds:0x412058
  40b3ad:	mov    esi,eax
  40b3af:	test   esi,esi
  40b3b1:	je     0x40b3e7
  40b3b3:	mov    ecx,DWORD PTR ds:0x411010
  40b3b9:	cmp    ecx,0x411010
  40b3bf:	je     0x40b47d
  40b3c5:	cmp    BYTE PTR [ecx+0x19],0x1
  40b3c9:	jb     0x40b47d
  40b3cf:	test   BYTE PTR [ecx+0x1c],0x1
  40b3d3:	je     0x40b47d
  40b3d9:	push   esi
  40b3da:	push   DWORD PTR [ecx+0x14]
  40b3dd:	push   DWORD PTR [ecx+0x10]
  40b3e0:	push   0x14
  40b3e2:	jmp    0x40b348
  40b3e7:	push   0x40b080
  40b3ec:	xor    edi,edi
  40b3ee:	mov    bl,0x1
  40b3f0:	push   edi
  40b3f1:	push   0x28
  40b3f3:	push   edi
  40b3f4:	push   edi
  40b3f5:	push   0x402000
  40b3fa:	call   DWORD PTR ds:0x412054
  40b400:	mov    esi,eax
  40b402:	test   esi,esi
  40b404:	je     0x40b42c
  40b406:	mov    ecx,DWORD PTR ds:0x411010
  40b40c:	cmp    ecx,0x411010
  40b412:	je     0x40b47d
  40b414:	cmp    BYTE PTR [ecx+0x19],bl
  40b417:	jb     0x40b47d
  40b419:	test   BYTE PTR [ecx+0x1c],bl
  40b41c:	je     0x40b47d
  40b41e:	push   esi
  40b41f:	push   DWORD PTR [ecx+0x14]
  40b422:	push   DWORD PTR [ecx+0x10]
  40b425:	push   0x15
  40b427:	jmp    0x40b348
  40b42c:	push   edi
  40b42d:	push   edi
  40b42e:	push   0xa
  40b430:	push   edi
  40b431:	mov    DWORD PTR [ebp-0x8],0x1
  40b438:	call   DWORD PTR ds:0x412050
  40b43e:	mov    esi,eax
  40b440:	test   esi,esi
  40b442:	je     0x40b46c
  40b444:	mov    ecx,DWORD PTR ds:0x411010
  40b44a:	cmp    ecx,0x411010
  40b450:	je     0x40b47d
  40b452:	cmp    BYTE PTR [ecx+0x19],0x1
  40b456:	jb     0x40b47d
  40b458:	test   BYTE PTR [ecx+0x1c],0x1
  40b45c:	je     0x40b47d
  40b45e:	push   esi
  40b45f:	push   DWORD PTR [ecx+0x14]
  40b462:	push   DWORD PTR [ecx+0x10]
  40b465:	push   0x16
  40b467:	jmp    0x40b348
  40b46c:	mov    eax,DWORD PTR [ebp-0x4]
  40b46f:	mov    ds:0x411448,eax
  40b474:	mov    DWORD PTR [ebp-0x4],edi
  40b477:	mov    ecx,DWORD PTR ds:0x411010
  40b47d:	test   esi,esi
  40b47f:	je     0x40b4b6
  40b481:	test   bl,bl
  40b483:	je     0x40b49b
  40b485:	push   0x0
  40b487:	push   DWORD PTR [ebp-0x4]
  40b48a:	push   0x402000
  40b48f:	call   DWORD PTR ds:0x41204c
  40b495:	mov    ecx,DWORD PTR ds:0x411010
  40b49b:	cmp    DWORD PTR [ebp-0x8],0x0
  40b49f:	je     0x40b4b6
  40b4a1:	push   0x0
  40b4a3:	push   0x0
  40b4a5:	push   0x402000
  40b4aa:	call   DWORD PTR ds:0x412048
  40b4b0:	mov    ecx,DWORD PTR ds:0x411010
  40b4b6:	cmp    DWORD PTR [ebp-0x4],0x0
  40b4ba:	je     0x40b4cc
  40b4bc:	lea    eax,[ebp-0x4]
  40b4bf:	push   eax
  40b4c0:	call   DWORD PTR ds:0x412044
  40b4c6:	mov    ecx,DWORD PTR ds:0x411010
  40b4cc:	cmp    ecx,0x411010
  40b4d2:	je     0x40b4f4
  40b4d4:	cmp    BYTE PTR [ecx+0x19],0x4
  40b4d8:	jb     0x40b4f4
  40b4da:	test   BYTE PTR [ecx+0x1c],0x1
  40b4de:	je     0x40b4f4
  40b4e0:	push   esi
  40b4e1:	push   DWORD PTR [ecx+0x14]
  40b4e4:	mov    edx,0x4019c4
  40b4e9:	push   DWORD PTR [ecx+0x10]
  40b4ec:	push   0x17
  40b4ee:	pop    ecx
  40b4ef:	call   0x402af8
  40b4f4:	pop    edi
  40b4f5:	mov    eax,esi
  40b4f7:	pop    esi
  40b4f8:	pop    ebx
  40b4f9:	mov    esp,ebp
  40b4fb:	pop    ebp
  40b4fc:	ret    0x4
  40b4ff:	int3   
  40b500:	int3   
  40b501:	int3   
  40b502:	int3   
  40b503:	int3   
  40b504:	mov    edi,edi
  40b506:	push   ebp
  40b507:	mov    ebp,esp
  40b509:	push   ecx
  40b50a:	push   ebx
  40b50b:	push   esi
  40b50c:	mov    esi,DWORD PTR ds:0x411408
  40b512:	push   edi
  40b513:	mov    eax,ds:0x411010
  40b518:	xor    ebx,ebx
  40b51a:	mov    edi,0x411010
  40b51f:	inc    ebx
  40b520:	cmp    eax,edi
  40b522:	je     0x40b542
  40b524:	cmp    BYTE PTR [eax+0x19],0x4
  40b528:	jb     0x40b542
  40b52a:	test   BYTE PTR [eax+0x1c],bl
  40b52d:	je     0x40b542
  40b52f:	push   DWORD PTR [eax+0x14]
  40b532:	mov    edx,0x4019c4
  40b537:	push   DWORD PTR [eax+0x10]
  40b53a:	push   0x18
  40b53c:	pop    ecx
  40b53d:	call   0x402ad5
  40b542:	push   esi
  40b543:	push   DWORD PTR ds:0x411448
  40b549:	mov    esi,0x402000
  40b54e:	push   esi
  40b54f:	call   DWORD PTR ds:0x41204c
  40b555:	test   eax,eax
  40b557:	je     0x40b57c
  40b559:	mov    ecx,DWORD PTR ds:0x411010
  40b55f:	cmp    ecx,edi
  40b561:	je     0x40b57c
  40b563:	test   BYTE PTR [ecx+0x1c],bl
  40b566:	je     0x40b57c
  40b568:	push   eax
  40b569:	push   DWORD PTR [ecx+0x14]
  40b56c:	mov    edx,0x4019c4
  40b571:	push   DWORD PTR [ecx+0x10]
  40b574:	push   0x19
  40b576:	pop    ecx
  40b577:	call   0x402af8
  40b57c:	push   0x0
  40b57e:	push   0x0
  40b580:	push   esi
  40b581:	call   DWORD PTR ds:0x412048
  40b587:	mov    esi,eax
  40b589:	test   esi,esi
  40b58b:	je     0x40b5b5
  40b58d:	mov    ecx,DWORD PTR ds:0x411010
  40b593:	cmp    ecx,edi
  40b595:	je     0x40b5bb
  40b597:	cmp    BYTE PTR [ecx+0x19],bl
  40b59a:	jb     0x40b5bb
  40b59c:	test   BYTE PTR [ecx+0x1c],bl
  40b59f:	je     0x40b5bb
  40b5a1:	push   esi
  40b5a2:	push   DWORD PTR [ecx+0x14]
  40b5a5:	mov    edx,0x4019c4
  40b5aa:	push   DWORD PTR [ecx+0x10]
  40b5ad:	push   0x1a
  40b5af:	pop    ecx
  40b5b0:	call   0x402af8
  40b5b5:	mov    ecx,DWORD PTR ds:0x411010
  40b5bb:	cmp    DWORD PTR ds:0x411448,0x0
  40b5c2:	je     0x40b5dc
  40b5c4:	push   0x411448
  40b5c9:	call   DWORD PTR ds:0x412044
  40b5cf:	and    DWORD PTR ds:0x411448,0x0
  40b5d6:	mov    ecx,DWORD PTR ds:0x411010
  40b5dc:	cmp    ecx,edi
  40b5de:	je     0x40b5ff
  40b5e0:	cmp    BYTE PTR [ecx+0x19],0x4
  40b5e4:	jb     0x40b5ff
  40b5e6:	test   BYTE PTR [ecx+0x1c],bl
  40b5e9:	je     0x40b5ff
  40b5eb:	push   esi
  40b5ec:	push   DWORD PTR [ecx+0x14]
  40b5ef:	mov    edx,0x4019c4
  40b5f4:	push   DWORD PTR [ecx+0x10]
  40b5f7:	push   0x1b
  40b5f9:	pop    ecx
  40b5fa:	call   0x402af8
  40b5ff:	pop    edi
  40b600:	mov    eax,esi
  40b602:	pop    esi
  40b603:	pop    ebx
  40b604:	mov    esp,ebp
  40b606:	pop    ebp
  40b607:	ret    
  40b608:	int3   
  40b609:	int3   
  40b60a:	int3   
  40b60b:	int3   
  40b60c:	int3   
  40b60d:	mov    edi,edi
  40b60f:	push   ebp
  40b610:	mov    ebp,esp
  40b612:	sub    esp,0x1c
  40b615:	and    DWORD PTR [ebp-0x4],0x0
  40b619:	push   ebx
  40b61a:	push   esi
  40b61b:	push   edi
  40b61c:	xor    edi,edi
  40b61e:	mov    DWORD PTR [ebp-0x18],edx
  40b621:	xor    ebx,ebx
  40b623:	mov    DWORD PTR [ebp-0x10],edi
  40b626:	and    DWORD PTR [ebp-0x8],ebx
  40b629:	mov    esi,ecx
  40b62b:	mov    DWORD PTR [ebp-0x14],esi
  40b62e:	mov    DWORD PTR [ebp-0xc],ebx
  40b631:	mov    eax,ds:0x411010
  40b636:	cmp    eax,0x411010
  40b63b:	je     0x40b65c
  40b63d:	cmp    BYTE PTR [eax+0x19],0x4
  40b641:	jb     0x40b65c
  40b643:	test   BYTE PTR [eax+0x1c],0x1
  40b647:	je     0x40b65c
  40b649:	push   DWORD PTR [eax+0x14]
  40b64c:	mov    edx,0x4019c4
  40b651:	push   DWORD PTR [eax+0x10]
  40b654:	push   0x1c
  40b656:	pop    ecx
  40b657:	call   0x402ad5
  40b65c:	lea    eax,[ebp-0x4]
  40b65f:	push   eax
  40b660:	push   0x0
  40b662:	push   0x0
  40b664:	push   0x1
  40b666:	push   esi
  40b667:	call   DWORD PTR ds:0x4121a0
  40b66d:	call   DWORD PTR ds:0x41208c
  40b673:	lea    esi,[eax-0x7a]
  40b676:	neg    esi
  40b678:	sbb    esi,esi
  40b67a:	and    esi,eax
  40b67c:	je     0x40b6bb
  40b67e:	mov    eax,ds:0x411010
  40b683:	cmp    eax,0x411010
  40b688:	je     0x40b7e9
  40b68e:	cmp    BYTE PTR [eax+0x19],0x1
  40b692:	jb     0x40b7e9
  40b698:	test   BYTE PTR [eax+0x1c],0x1
  40b69c:	je     0x40b7e9
  40b6a2:	push   esi
  40b6a3:	push   DWORD PTR [eax+0x14]
  40b6a6:	push   DWORD PTR [eax+0x10]
  40b6a9:	push   0x1d
  40b6ab:	mov    edx,0x4019c4
  40b6b0:	pop    ecx
  40b6b1:	call   0x402af8
  40b6b6:	jmp    0x40b7e9
  40b6bb:	lea    eax,[ebp-0x10]
  40b6be:	push   eax
  40b6bf:	push   DWORD PTR [ebp-0x4]
  40b6c2:	call   0x409fb0
  40b6c7:	mov    edi,DWORD PTR [ebp-0x10]
  40b6ca:	mov    esi,eax
  40b6cc:	test   esi,esi
  40b6ce:	jne    0x40b7e9
  40b6d4:	lea    eax,[ebp-0x4]
  40b6d7:	push   eax
  40b6d8:	push   DWORD PTR [ebp-0x4]
  40b6db:	push   edi
  40b6dc:	push   0x1
  40b6de:	push   DWORD PTR [ebp-0x14]
  40b6e1:	call   DWORD PTR ds:0x4121a0
  40b6e7:	test   eax,eax
  40b6e9:	jne    0x40b718
  40b6eb:	call   DWORD PTR ds:0x41208c
  40b6f1:	mov    esi,eax
  40b6f3:	mov    eax,ds:0x411010
  40b6f8:	cmp    eax,0x411010
  40b6fd:	je     0x40b7e9
  40b703:	test   BYTE PTR [eax+0x1c],0x1
  40b707:	je     0x40b7e9
  40b70d:	push   esi
  40b70e:	push   DWORD PTR [eax+0x14]
  40b711:	push   DWORD PTR [eax+0x10]
  40b714:	push   0x1e
  40b716:	jmp    0x40b6ab
  40b718:	push   DWORD PTR [edi]
  40b71a:	call   DWORD PTR ds:0x4121b0
  40b720:	test   eax,eax
  40b722:	jne    0x40b75b
  40b724:	mov    esi,0x139f
  40b729:	mov    eax,ds:0x411010
  40b72e:	cmp    eax,0x411010
  40b733:	je     0x40b7e9
  40b739:	test   BYTE PTR [eax+0x1c],0x1
  40b73d:	je     0x40b7e9
  40b743:	push   DWORD PTR [eax+0x14]
  40b746:	mov    edx,0x4019c4
  40b74b:	push   DWORD PTR [eax+0x10]
  40b74e:	push   0x1f
  40b750:	pop    ecx
  40b751:	call   0x402ad5
  40b756:	jmp    0x40b7e9
  40b75b:	push   DWORD PTR [edi]
  40b75d:	call   DWORD PTR ds:0x41219c
  40b763:	lea    ecx,[ebp-0xc]
  40b766:	mov    DWORD PTR [ebp-0x4],eax
  40b769:	push   ecx
  40b76a:	push   eax
  40b76b:	call   0x409fb0
  40b770:	mov    ebx,DWORD PTR [ebp-0xc]
  40b773:	mov    esi,eax
  40b775:	test   esi,esi
  40b777:	jne    0x40b7e9
  40b779:	push   DWORD PTR [edi]
  40b77b:	push   ebx
  40b77c:	push   DWORD PTR [ebp-0x4]
  40b77f:	call   DWORD PTR ds:0x4121a4
  40b785:	test   eax,eax
  40b787:	jne    0x40b7b1
  40b789:	call   DWORD PTR ds:0x41208c
  40b78f:	mov    esi,eax
  40b791:	mov    eax,ds:0x411010
  40b796:	cmp    eax,0x411010
  40b79b:	je     0x40b7e9
  40b79d:	test   BYTE PTR [eax+0x1c],0x1
  40b7a1:	je     0x40b7e9
  40b7a3:	push   esi
  40b7a4:	push   DWORD PTR [eax+0x14]
  40b7a7:	push   DWORD PTR [eax+0x10]
  40b7aa:	push   0x20
  40b7ac:	jmp    0x40b6ab
  40b7b1:	lea    eax,[ebp-0x8]
  40b7b4:	push   eax
  40b7b5:	push   ebx
  40b7b6:	call   DWORD PTR ds:0x414014
  40b7bc:	mov    eax,ds:0x411010
  40b7c1:	cmp    eax,0x411010
  40b7c6:	je     0x40b7e2
  40b7c8:	cmp    BYTE PTR [eax+0x19],0x4
  40b7cc:	jb     0x40b7e2
  40b7ce:	test   BYTE PTR [eax+0x1c],0x1
  40b7d2:	je     0x40b7e2
  40b7d4:	push   DWORD PTR [ebp-0x8]
  40b7d7:	push   DWORD PTR [eax+0x14]
  40b7da:	push   DWORD PTR [eax+0x10]
  40b7dd:	call   0x40b00c
  40b7e2:	mov    eax,DWORD PTR [ebp-0x18]
  40b7e5:	mov    DWORD PTR [eax],ebx
  40b7e7:	xor    ebx,ebx
  40b7e9:	cmp    DWORD PTR [ebp-0x8],0x0
  40b7ed:	je     0x40b7f8
  40b7ef:	push   DWORD PTR [ebp-0x8]
  40b7f2:	call   DWORD PTR ds:0x4120c4
  40b7f8:	push   ebx
  40b7f9:	call   0x40a080
  40b7fe:	push   edi
  40b7ff:	call   0x40a080
  40b804:	mov    eax,ds:0x411010
  40b809:	cmp    eax,0x411010
  40b80e:	je     0x40b830
  40b810:	cmp    BYTE PTR [eax+0x19],0x4
  40b814:	jb     0x40b830
  40b816:	test   BYTE PTR [eax+0x1c],0x1
  40b81a:	je     0x40b830
  40b81c:	push   esi
  40b81d:	push   DWORD PTR [eax+0x14]
  40b820:	mov    edx,0x4019c4
  40b825:	push   DWORD PTR [eax+0x10]
  40b828:	push   0x22
  40b82a:	pop    ecx
  40b82b:	call   0x402af8
  40b830:	pop    edi
  40b831:	mov    eax,esi
  40b833:	pop    esi
  40b834:	pop    ebx
  40b835:	mov    esp,ebp
  40b837:	pop    ebp
  40b838:	ret    
  40b839:	int3   
  40b83a:	int3   
  40b83b:	int3   
  40b83c:	int3   
  40b83d:	int3   
  40b83e:	mov    edi,edi
  40b840:	push   ebp
  40b841:	mov    ebp,esp
  40b843:	push   ecx
  40b844:	and    DWORD PTR [ebp-0x4],0x0
  40b848:	push   ebx
  40b849:	push   esi
  40b84a:	push   edi
  40b84b:	mov    esi,ecx
  40b84d:	mov    eax,ds:0x411010
  40b852:	mov    edi,0x411010
  40b857:	mov    ebx,0x4019c4
  40b85c:	cmp    eax,edi
  40b85e:	je     0x40b87c
  40b860:	cmp    BYTE PTR [eax+0x19],0x4
  40b864:	jb     0x40b87c
  40b866:	test   BYTE PTR [eax+0x1c],0x1
  40b86a:	je     0x40b87c
  40b86c:	push   DWORD PTR [eax+0x14]
  40b86f:	mov    edx,ebx
  40b871:	push   DWORD PTR [eax+0x10]
  40b874:	push   0x23
  40b876:	pop    ecx
  40b877:	call   0x402ad5
  40b87c:	lea    eax,[ebp-0x4]
  40b87f:	push   eax
  40b880:	push   0x8
  40b882:	call   DWORD PTR ds:0x4120f8
  40b888:	push   eax
  40b889:	call   DWORD PTR ds:0x4120f0
  40b88f:	test   eax,eax
  40b891:	jne    0x40b8be
  40b893:	call   DWORD PTR ds:0x41208c
  40b899:	mov    esi,eax
  40b89b:	mov    ecx,DWORD PTR ds:0x411010
  40b8a1:	cmp    ecx,edi
  40b8a3:	je     0x40b8fa
  40b8a5:	test   BYTE PTR [ecx+0x1c],0x1
  40b8a9:	je     0x40b8d9
  40b8ab:	push   esi
  40b8ac:	push   DWORD PTR [ecx+0x14]
  40b8af:	mov    edx,ebx
  40b8b1:	push   DWORD PTR [ecx+0x10]
  40b8b4:	push   0x24
  40b8b6:	pop    ecx
  40b8b7:	call   0x402af8
  40b8bc:	jmp    0x40b8d3
  40b8be:	mov    ecx,DWORD PTR [ebp-0x4]
  40b8c1:	mov    edx,esi
  40b8c3:	call   0x40b60d
  40b8c8:	mov    esi,eax
  40b8ca:	push   DWORD PTR [ebp-0x4]
  40b8cd:	call   DWORD PTR ds:0x4120a8
  40b8d3:	mov    ecx,DWORD PTR ds:0x411010
  40b8d9:	cmp    ecx,edi
  40b8db:	je     0x40b8fa
  40b8dd:	cmp    BYTE PTR [ecx+0x19],0x4
  40b8e1:	jb     0x40b8fa
  40b8e3:	test   BYTE PTR [ecx+0x1c],0x1
  40b8e7:	je     0x40b8fa
  40b8e9:	push   esi
  40b8ea:	push   DWORD PTR [ecx+0x14]
  40b8ed:	mov    edx,ebx
  40b8ef:	push   DWORD PTR [ecx+0x10]
  40b8f2:	push   0x25
  40b8f4:	pop    ecx
  40b8f5:	call   0x402af8
  40b8fa:	pop    edi
  40b8fb:	mov    eax,esi
  40b8fd:	pop    esi
  40b8fe:	pop    ebx
  40b8ff:	mov    esp,ebp
  40b901:	pop    ebp
  40b902:	ret    
  40b903:	int3   
  40b904:	int3   
  40b905:	int3   
  40b906:	int3   
  40b907:	int3   
  40b908:	mov    edi,edi
  40b90a:	push   ebp
  40b90b:	mov    ebp,esp
  40b90d:	push   ecx
  40b90e:	and    DWORD PTR [ebp-0x4],0x0
  40b912:	push   ebx
  40b913:	push   esi
  40b914:	push   edi
  40b915:	mov    esi,ecx
  40b917:	mov    eax,ds:0x411010
  40b91c:	mov    edi,0x411010
  40b921:	mov    ebx,0x4019c4
  40b926:	cmp    eax,edi
  40b928:	je     0x40b946
  40b92a:	cmp    BYTE PTR [eax+0x19],0x4
  40b92e:	jb     0x40b946
  40b930:	test   BYTE PTR [eax+0x1c],0x1
  40b934:	je     0x40b946
  40b936:	push   DWORD PTR [eax+0x14]
  40b939:	mov    edx,ebx
  40b93b:	push   DWORD PTR [eax+0x10]
  40b93e:	push   0x26
  40b940:	pop    ecx
  40b941:	call   0x402ad5
  40b946:	lea    eax,[ebp-0x4]
  40b949:	push   eax
  40b94a:	push   0x1
  40b94c:	push   0x8
  40b94e:	call   DWORD PTR ds:0x4120fc
  40b954:	push   eax
  40b955:	call   DWORD PTR ds:0x4120e8
  40b95b:	test   eax,eax
  40b95d:	jne    0x40b98a
  40b95f:	call   DWORD PTR ds:0x41208c
  40b965:	mov    esi,eax
  40b967:	mov    ecx,DWORD PTR ds:0x411010
  40b96d:	cmp    ecx,edi
  40b96f:	je     0x40b9c6
  40b971:	test   BYTE PTR [ecx+0x1c],0x1
  40b975:	je     0x40b9a5
  40b977:	push   esi
  40b978:	push   DWORD PTR [ecx+0x14]
  40b97b:	mov    edx,ebx
  40b97d:	push   DWORD PTR [ecx+0x10]
  40b980:	push   0x27
  40b982:	pop    ecx
  40b983:	call   0x402af8
  40b988:	jmp    0x40b99f
  40b98a:	mov    ecx,DWORD PTR [ebp-0x4]
  40b98d:	mov    edx,esi
  40b98f:	call   0x40b60d
  40b994:	mov    esi,eax
  40b996:	push   DWORD PTR [ebp-0x4]
  40b999:	call   DWORD PTR ds:0x4120a8
  40b99f:	mov    ecx,DWORD PTR ds:0x411010
  40b9a5:	cmp    ecx,edi
  40b9a7:	je     0x40b9c6
  40b9a9:	cmp    BYTE PTR [ecx+0x19],0x4
  40b9ad:	jb     0x40b9c6
  40b9af:	test   BYTE PTR [ecx+0x1c],0x1
  40b9b3:	je     0x40b9c6
  40b9b5:	push   esi
  40b9b6:	push   DWORD PTR [ecx+0x14]
  40b9b9:	mov    edx,ebx
  40b9bb:	push   DWORD PTR [ecx+0x10]
  40b9be:	push   0x28
  40b9c0:	pop    ecx
  40b9c1:	call   0x402af8
  40b9c6:	pop    edi
  40b9c7:	mov    eax,esi
  40b9c9:	pop    esi
  40b9ca:	pop    ebx
  40b9cb:	mov    esp,ebp
  40b9cd:	pop    ebp
  40b9ce:	ret    
  40b9cf:	int3   
  40b9d0:	int3   
  40b9d1:	int3   
  40b9d2:	int3   
  40b9d3:	int3   
  40b9d4:	mov    edi,edi
  40b9d6:	push   ebp
  40b9d7:	mov    ebp,esp
  40b9d9:	sub    esp,0xc
  40b9dc:	push   ebx
  40b9dd:	push   esi
  40b9de:	push   edi
  40b9df:	xor    edi,edi
  40b9e1:	mov    ebx,ecx
  40b9e3:	mov    DWORD PTR [ebp-0x8],edi
  40b9e6:	mov    DWORD PTR [ebp-0x4],edi
  40b9e9:	mov    eax,ds:0x411010
  40b9ee:	cmp    eax,0x411010
  40b9f3:	je     0x40ba14
  40b9f5:	cmp    BYTE PTR [eax+0x19],0x4
  40b9f9:	jb     0x40ba14
  40b9fb:	test   BYTE PTR [eax+0x1c],0x1
  40b9ff:	je     0x40ba14
  40ba01:	push   DWORD PTR [eax+0x14]
  40ba04:	mov    edx,0x4019c4
  40ba09:	push   DWORD PTR [eax+0x10]
  40ba0c:	push   0x29
  40ba0e:	pop    ecx
  40ba0f:	call   0x402ad5
  40ba14:	lea    ecx,[ebp-0x8]
  40ba17:	mov    DWORD PTR [ebx],edi
  40ba19:	call   0x40b83e
  40ba1e:	mov    esi,eax
  40ba20:	test   esi,esi
  40ba22:	jne    0x40baa2
  40ba24:	push   edi
  40ba25:	call   DWORD PTR ds:0x412018
  40ba2b:	mov    esi,eax
  40ba2d:	test   esi,esi
  40ba2f:	je     0x40ba54
  40ba31:	mov    eax,ds:0x411010
  40ba36:	cmp    eax,0x411010
  40ba3b:	je     0x40baa2
  40ba3d:	cmp    BYTE PTR [eax+0x19],0x1
  40ba41:	jb     0x40baa2
  40ba43:	test   BYTE PTR [eax+0x1c],0x1
  40ba47:	je     0x40baa2
  40ba49:	push   esi
  40ba4a:	push   DWORD PTR [eax+0x14]
  40ba4d:	push   DWORD PTR [eax+0x10]
  40ba50:	push   0x2a
  40ba52:	jmp    0x40ba97
  40ba54:	lea    ecx,[ebp-0x4]
  40ba57:	mov    DWORD PTR [ebx],0x1
  40ba5d:	call   0x40b908
  40ba62:	mov    edi,DWORD PTR [ebp-0x4]
  40ba65:	mov    esi,eax
  40ba67:	test   esi,esi
  40ba69:	jne    0x40baa2
  40ba6b:	push   DWORD PTR [ebp-0x8]
  40ba6e:	push   edi
  40ba6f:	call   DWORD PTR ds:0x4121a8
  40ba75:	test   eax,eax
  40ba77:	jne    0x40baa2
  40ba79:	push   0x5
  40ba7b:	pop    esi
  40ba7c:	mov    eax,ds:0x411010
  40ba81:	cmp    eax,0x411010
  40ba86:	je     0x40baa2
  40ba88:	test   BYTE PTR [eax+0x1c],0x1
  40ba8c:	je     0x40baa2
  40ba8e:	push   esi
  40ba8f:	push   DWORD PTR [eax+0x14]
  40ba92:	push   DWORD PTR [eax+0x10]
  40ba95:	push   0x2b
  40ba97:	mov    edx,0x4019c4
  40ba9c:	pop    ecx
  40ba9d:	call   0x402af8
  40baa2:	push   DWORD PTR [ebp-0x8]
  40baa5:	call   0x40a080
  40baaa:	push   edi
  40baab:	call   0x40a080
  40bab0:	mov    eax,ds:0x411010
  40bab5:	cmp    eax,0x411010
  40baba:	je     0x40badc
  40babc:	cmp    BYTE PTR [eax+0x19],0x4
  40bac0:	jb     0x40badc
  40bac2:	test   BYTE PTR [eax+0x1c],0x1
  40bac6:	je     0x40badc
  40bac8:	push   esi
  40bac9:	push   DWORD PTR [eax+0x14]
  40bacc:	mov    edx,0x4019c4
  40bad1:	push   DWORD PTR [eax+0x10]
  40bad4:	push   0x2c
  40bad6:	pop    ecx
  40bad7:	call   0x402af8
  40badc:	pop    edi
  40badd:	mov    eax,esi
  40badf:	pop    esi
  40bae0:	pop    ebx
  40bae1:	mov    esp,ebp
  40bae3:	pop    ebp
  40bae4:	ret    
  40bae5:	int3   
  40bae6:	int3   
  40bae7:	int3   
  40bae8:	int3   
  40bae9:	int3   
  40baea:	mov    edi,edi
  40baec:	push   ebx
  40baed:	push   esi
  40baee:	push   edi
  40baef:	mov    edi,ecx
  40baf1:	xor    esi,esi
  40baf3:	mov    eax,ds:0x411010
  40baf8:	mov    ebx,0x411010
  40bafd:	cmp    eax,ebx
  40baff:	je     0x40bb25
  40bb01:	cmp    BYTE PTR [eax+0x19],0x4
  40bb05:	jb     0x40bb25
  40bb07:	test   BYTE PTR [eax+0x1c],0x1
  40bb0b:	je     0x40bb25
  40bb0d:	push   DWORD PTR [eax+0x14]
  40bb10:	mov    edx,0x4019c4
  40bb15:	push   DWORD PTR [eax+0x10]
  40bb18:	push   0x2d
  40bb1a:	pop    ecx
  40bb1b:	call   0x402ad5
  40bb20:	mov    eax,ds:0x411010
  40bb25:	test   edi,edi
  40bb27:	je     0x40bb5d
  40bb29:	call   DWORD PTR ds:0x412040
  40bb2f:	mov    esi,eax
  40bb31:	test   esi,esi
  40bb33:	je     0x40bb58
  40bb35:	mov    eax,ds:0x411010
  40bb3a:	cmp    eax,ebx
  40bb3c:	je     0x40bb81
  40bb3e:	test   BYTE PTR [eax+0x1c],0x1
  40bb42:	je     0x40bb5d
  40bb44:	push   esi
  40bb45:	push   DWORD PTR [eax+0x14]
  40bb48:	mov    edx,0x4019c4
  40bb4d:	push   DWORD PTR [eax+0x10]
  40bb50:	push   0x2e
  40bb52:	pop    ecx
  40bb53:	call   0x402af8
  40bb58:	mov    eax,ds:0x411010
  40bb5d:	cmp    eax,ebx
  40bb5f:	je     0x40bb81
  40bb61:	cmp    BYTE PTR [eax+0x19],0x4
  40bb65:	jb     0x40bb81
  40bb67:	test   BYTE PTR [eax+0x1c],0x1
  40bb6b:	je     0x40bb81
  40bb6d:	push   esi
  40bb6e:	push   DWORD PTR [eax+0x14]
  40bb71:	mov    edx,0x4019c4
  40bb76:	push   DWORD PTR [eax+0x10]
  40bb79:	push   0x2f
  40bb7b:	pop    ecx
  40bb7c:	call   0x402af8
  40bb81:	pop    edi
  40bb82:	pop    esi
  40bb83:	pop    ebx
  40bb84:	ret    
  40bb85:	int3   
  40bb86:	int3   
  40bb87:	int3   
  40bb88:	int3   
  40bb89:	int3   
  40bb8a:	mov    edi,edi
  40bb8c:	push   ebp
  40bb8d:	mov    ebp,esp
  40bb8f:	push   ecx
  40bb90:	push   ecx
  40bb91:	push   ebx
  40bb92:	push   esi
  40bb93:	mov    ebx,ecx
  40bb95:	xor    esi,esi
  40bb97:	push   edi
  40bb98:	mov    edi,edx
  40bb9a:	mov    DWORD PTR [ebp-0x4],ebx
  40bb9d:	mov    eax,ds:0x411010
  40bba2:	cmp    eax,0x411010
  40bba7:	je     0x40bbc8
  40bba9:	cmp    BYTE PTR [eax+0x19],0x4
  40bbad:	jb     0x40bbc8
  40bbaf:	test   BYTE PTR [eax+0x1c],0x1
  40bbb3:	je     0x40bbc8
  40bbb5:	push   DWORD PTR [eax+0x14]
  40bbb8:	mov    edx,0x4019d4
  40bbbd:	push   DWORD PTR [eax+0x10]
  40bbc0:	push   0xa
  40bbc2:	pop    ecx
  40bbc3:	call   0x402ad5
  40bbc8:	test   ebx,ebx
  40bbca:	je     0x40bbf0
  40bbcc:	test   edi,edi
  40bbce:	je     0x40bbf0
  40bbd0:	mov    ebx,DWORD PTR [ebp+0x8]
  40bbd3:	push   ebx
  40bbd4:	push   edi
  40bbd5:	call   0x409fb0
  40bbda:	mov    esi,eax
  40bbdc:	test   esi,esi
  40bbde:	jne    0x40bbf5
  40bbe0:	push   edi
  40bbe1:	push   DWORD PTR [ebp-0x4]
  40bbe4:	push   DWORD PTR [ebx]
  40bbe6:	call   0x41085c
  40bbeb:	add    esp,0xc
  40bbee:	jmp    0x40bbf5
  40bbf0:	mov    eax,DWORD PTR [ebp+0x8]
  40bbf3:	mov    DWORD PTR [eax],esi
  40bbf5:	mov    eax,ds:0x411010
  40bbfa:	cmp    eax,0x411010
  40bbff:	je     0x40bc21
  40bc01:	cmp    BYTE PTR [eax+0x19],0x4
  40bc05:	jb     0x40bc21
  40bc07:	test   BYTE PTR [eax+0x1c],0x1
  40bc0b:	je     0x40bc21
  40bc0d:	push   esi
  40bc0e:	push   DWORD PTR [eax+0x14]
  40bc11:	mov    edx,0x4019d4
  40bc16:	push   DWORD PTR [eax+0x10]
  40bc19:	push   0xb
  40bc1b:	pop    ecx
  40bc1c:	call   0x402af8
  40bc21:	pop    edi
  40bc22:	mov    eax,esi
  40bc24:	pop    esi
  40bc25:	pop    ebx
  40bc26:	mov    esp,ebp
  40bc28:	pop    ebp
  40bc29:	ret    0x4
  40bc2c:	int3   
  40bc2d:	int3   
  40bc2e:	int3   
  40bc2f:	int3   
  40bc30:	int3   
  40bc31:	mov    edi,edi
  40bc33:	push   ebx
  40bc34:	push   esi
  40bc35:	push   edi
  40bc36:	mov    ebx,edx
  40bc38:	mov    edi,ecx
  40bc3a:	xor    esi,esi
  40bc3c:	mov    eax,ds:0x411010
  40bc41:	cmp    eax,0x411010
  40bc46:	je     0x40bc67
  40bc48:	cmp    BYTE PTR [eax+0x19],0x4
  40bc4c:	jb     0x40bc67
  40bc4e:	test   BYTE PTR [eax+0x1c],0x1
  40bc52:	je     0x40bc67
  40bc54:	push   DWORD PTR [eax+0x14]
  40bc57:	mov    edx,0x4019d4
  40bc5c:	push   DWORD PTR [eax+0x10]
  40bc5f:	push   0xc
  40bc61:	pop    ecx
  40bc62:	call   0x402ad5
  40bc67:	test   edi,edi
  40bc69:	jne    0x40bc6f
  40bc6b:	mov    DWORD PTR [ebx],esi
  40bc6d:	jmp    0x40bc94
  40bc6f:	mov    edx,edi
  40bc71:	lea    ecx,[edx+0x2]
  40bc74:	mov    ax,WORD PTR [edx]
  40bc77:	add    edx,0x2
  40bc7a:	cmp    ax,si
  40bc7d:	jne    0x40bc74
  40bc7f:	sub    edx,ecx
  40bc81:	mov    ecx,edi
  40bc83:	sar    edx,1
  40bc85:	push   ebx
  40bc86:	lea    edx,[edx*2+0x2]
  40bc8d:	call   0x40bb8a
  40bc92:	mov    esi,eax
  40bc94:	mov    ecx,DWORD PTR ds:0x411010
  40bc9a:	cmp    ecx,0x411010
  40bca0:	je     0x40bcc2
  40bca2:	cmp    BYTE PTR [ecx+0x19],0x4
  40bca6:	jb     0x40bcc2
  40bca8:	test   BYTE PTR [ecx+0x1c],0x1
  40bcac:	je     0x40bcc2
  40bcae:	push   esi
  40bcaf:	push   DWORD PTR [ecx+0x14]
  40bcb2:	mov    edx,0x4019d4
  40bcb7:	push   DWORD PTR [ecx+0x10]
  40bcba:	push   0xd
  40bcbc:	pop    ecx
  40bcbd:	call   0x402af8
  40bcc2:	pop    edi
  40bcc3:	mov    eax,esi
  40bcc5:	pop    esi
  40bcc6:	pop    ebx
  40bcc7:	ret    
  40bcc8:	int3   
  40bcc9:	int3   
  40bcca:	int3   
  40bccb:	int3   
  40bccc:	int3   
  40bccd:	mov    edi,edi
  40bccf:	push   ebx
  40bcd0:	push   esi
  40bcd1:	push   edi
  40bcd2:	mov    edi,edx
  40bcd4:	mov    ebx,ecx
  40bcd6:	xor    esi,esi
  40bcd8:	mov    eax,ds:0x411010
  40bcdd:	cmp    eax,0x411010
  40bce2:	je     0x40bd03
  40bce4:	cmp    BYTE PTR [eax+0x19],0x4
  40bce8:	jb     0x40bd03
  40bcea:	test   BYTE PTR [eax+0x1c],0x1
  40bcee:	je     0x40bd03
  40bcf0:	push   DWORD PTR [eax+0x14]
  40bcf3:	mov    edx,0x4019d4
  40bcf8:	push   DWORD PTR [eax+0x10]
  40bcfb:	push   0xe
  40bcfd:	pop    ecx
  40bcfe:	call   0x402ad5
  40bd03:	test   ebx,ebx
  40bd05:	jne    0x40bd0b
  40bd07:	and    DWORD PTR [edi],esi
  40bd09:	jmp    0x40bd3d
  40bd0b:	push   edi
  40bd0c:	push   0x24
  40bd0e:	pop    edx
  40bd0f:	mov    ecx,ebx
  40bd11:	call   0x40bb8a
  40bd16:	mov    esi,eax
  40bd18:	test   esi,esi
  40bd1a:	jne    0x40bd33
  40bd1c:	mov    eax,DWORD PTR [edi]
  40bd1e:	mov    edx,DWORD PTR [ebx+0x1c]
  40bd21:	add    eax,0x20
  40bd24:	mov    ecx,DWORD PTR [ebx+0x20]
  40bd27:	push   eax
  40bd28:	call   0x40bb8a
  40bd2d:	mov    esi,eax
  40bd2f:	test   esi,esi
  40bd31:	je     0x40bd3d
  40bd33:	push   DWORD PTR [edi]
  40bd35:	call   0x40a080
  40bd3a:	and    DWORD PTR [edi],0x0
  40bd3d:	mov    eax,ds:0x411010
  40bd42:	cmp    eax,0x411010
  40bd47:	je     0x40bd69
  40bd49:	cmp    BYTE PTR [eax+0x19],0x4
  40bd4d:	jb     0x40bd69
  40bd4f:	test   BYTE PTR [eax+0x1c],0x1
  40bd53:	je     0x40bd69
  40bd55:	push   esi
  40bd56:	push   DWORD PTR [eax+0x14]
  40bd59:	mov    edx,0x4019d4
  40bd5e:	push   DWORD PTR [eax+0x10]
  40bd61:	push   0xf
  40bd63:	pop    ecx
  40bd64:	call   0x402af8
  40bd69:	pop    edi
  40bd6a:	mov    eax,esi
  40bd6c:	pop    esi
  40bd6d:	pop    ebx
  40bd6e:	ret    
  40bd6f:	int3   
  40bd70:	int3   
  40bd71:	int3   
  40bd72:	int3   
  40bd73:	int3   
  40bd74:	mov    edi,edi
  40bd76:	push   ebp
  40bd77:	mov    ebp,esp
  40bd79:	sub    esp,0xc
  40bd7c:	push   ebx
  40bd7d:	push   esi
  40bd7e:	push   edi
  40bd7f:	xor    edi,edi
  40bd81:	mov    DWORD PTR [ebp-0x8],edx
  40bd84:	mov    ebx,ecx
  40bd86:	xor    esi,esi
  40bd88:	mov    DWORD PTR [ebp-0xc],ebx
  40bd8b:	mov    DWORD PTR [ebp-0x4],esi
  40bd8e:	mov    eax,ds:0x411010
  40bd93:	cmp    eax,0x411010
  40bd98:	je     0x40bdb9
  40bd9a:	cmp    BYTE PTR [eax+0x19],0x4
  40bd9e:	jb     0x40bdb9
  40bda0:	test   BYTE PTR [eax+0x1c],0x1
  40bda4:	je     0x40bdb9
  40bda6:	push   DWORD PTR [eax+0x14]
  40bda9:	mov    edx,0x4019d4
  40bdae:	push   DWORD PTR [eax+0x10]
  40bdb1:	push   0x10
  40bdb3:	pop    ecx
  40bdb4:	call   0x402ad5
  40bdb9:	mov    eax,DWORD PTR [ebp-0x8]
  40bdbc:	and    DWORD PTR [eax],esi
  40bdbe:	test   ebx,ebx
  40bdc0:	je     0x40be13
  40bdc2:	lea    eax,[ebp-0x4]
  40bdc5:	push   eax
  40bdc6:	push   0xc
  40bdc8:	pop    ebx
  40bdc9:	push   ebx
  40bdca:	call   0x409fb0
  40bdcf:	mov    esi,DWORD PTR [ebp-0x4]
  40bdd2:	mov    edi,eax
  40bdd4:	test   edi,edi
  40bdd6:	jne    0x40be13
  40bdd8:	mov    eax,esi
  40bdda:	mov    BYTE PTR [eax],0x0
  40bddd:	inc    eax
  40bdde:	sub    ebx,0x1
  40bde1:	jne    0x40bdda
  40bde3:	mov    ebx,DWORD PTR [ebp-0xc]
  40bde6:	lea    edx,[esi+0x8]
  40bde9:	mov    eax,DWORD PTR [ebx+0x4]
  40bdec:	mov    DWORD PTR [esi+0x4],eax
  40bdef:	mov    ecx,DWORD PTR [ebx+0x8]
  40bdf2:	call   0x40bccd
  40bdf7:	mov    edi,eax
  40bdf9:	test   edi,edi
  40bdfb:	jne    0x40be13
  40bdfd:	mov    ecx,DWORD PTR [ebx]
  40bdff:	mov    edx,esi
  40be01:	call   0x40c1e2
  40be06:	mov    edi,eax
  40be08:	test   edi,edi
  40be0a:	jne    0x40be13
  40be0c:	mov    eax,DWORD PTR [ebp-0x8]
  40be0f:	mov    DWORD PTR [eax],esi
  40be11:	xor    esi,esi
  40be13:	mov    ecx,esi
  40be15:	call   0x40be54
  40be1a:	mov    eax,ds:0x411010
  40be1f:	cmp    eax,0x411010
  40be24:	je     0x40be46
  40be26:	cmp    BYTE PTR [eax+0x19],0x4
  40be2a:	jb     0x40be46
  40be2c:	test   BYTE PTR [eax+0x1c],0x1
  40be30:	je     0x40be46
  40be32:	push   edi
  40be33:	push   DWORD PTR [eax+0x14]
  40be36:	mov    edx,0x4019d4
  40be3b:	push   DWORD PTR [eax+0x10]
  40be3e:	push   0x11
  40be40:	pop    ecx
  40be41:	call   0x402af8
  40be46:	mov    eax,edi
  40be48:	pop    edi
  40be49:	pop    esi
  40be4a:	pop    ebx
  40be4b:	mov    esp,ebp
  40be4d:	pop    ebp
  40be4e:	ret    
  40be4f:	int3   
  40be50:	int3   
  40be51:	int3   
  40be52:	int3   
  40be53:	int3   
  40be54:	mov    edi,edi
  40be56:	push   ecx
  40be57:	push   esi
  40be58:	mov    esi,ecx
  40be5a:	push   edi
  40be5b:	test   esi,esi
  40be5d:	je     0x40be81
  40be5f:	mov    edi,DWORD PTR [esi+0x8]
  40be62:	test   edi,edi
  40be64:	je     0x40be74
  40be66:	push   DWORD PTR [edi+0x20]
  40be69:	call   0x40a080
  40be6e:	push   edi
  40be6f:	call   0x40a080
  40be74:	push   DWORD PTR [esi]
  40be76:	call   0x40a080
  40be7b:	push   esi
  40be7c:	call   0x40a080
  40be81:	pop    edi
  40be82:	pop    esi
  40be83:	pop    ecx
  40be84:	ret    
  40be85:	int3   
  40be86:	int3   
  40be87:	int3   
  40be88:	int3   
  40be89:	int3   
  40be8a:	mov    edi,edi
  40be8c:	push   ebx
  40be8d:	push   esi
  40be8e:	push   edi
  40be8f:	mov    edi,edx
  40be91:	mov    ebx,ecx
  40be93:	xor    esi,esi
  40be95:	mov    eax,ds:0x411010
  40be9a:	cmp    eax,0x411010
  40be9f:	je     0x40bec0
  40bea1:	cmp    BYTE PTR [eax+0x19],0x4
  40bea5:	jb     0x40bec0
  40bea7:	test   BYTE PTR [eax+0x1c],0x1
  40beab:	je     0x40bec0
  40bead:	push   DWORD PTR [eax+0x14]
  40beb0:	mov    edx,0x4019d4
  40beb5:	push   DWORD PTR [eax+0x10]
  40beb8:	push   0x12
  40beba:	pop    ecx
  40bebb:	call   0x402ad5
  40bec0:	test   ebx,ebx
  40bec2:	jne    0x40bec8
  40bec4:	and    DWORD PTR [edi],esi
  40bec6:	jmp    0x40bef9
  40bec8:	push   edi
  40bec9:	push   0x8
  40becb:	pop    edx
  40becc:	mov    ecx,ebx
  40bece:	call   0x40bb8a
  40bed3:	mov    esi,eax
  40bed5:	test   esi,esi
  40bed7:	jne    0x40beef
  40bed9:	mov    eax,DWORD PTR [edi]
  40bedb:	mov    edx,DWORD PTR [ebx]
  40bedd:	add    eax,0x4
  40bee0:	mov    ecx,DWORD PTR [ebx+0x4]
  40bee3:	push   eax
  40bee4:	call   0x40bb8a
  40bee9:	mov    esi,eax
  40beeb:	test   esi,esi
  40beed:	je     0x40bef9
  40beef:	push   DWORD PTR [edi]
  40bef1:	call   0x40a080
  40bef6:	and    DWORD PTR [edi],0x0
  40bef9:	mov    eax,ds:0x411010
  40befe:	cmp    eax,0x411010
  40bf03:	je     0x40bf25
  40bf05:	cmp    BYTE PTR [eax+0x19],0x4
  40bf09:	jb     0x40bf25
  40bf0b:	test   BYTE PTR [eax+0x1c],0x1
  40bf0f:	je     0x40bf25
  40bf11:	push   esi
  40bf12:	push   DWORD PTR [eax+0x14]
  40bf15:	mov    edx,0x4019d4
  40bf1a:	push   DWORD PTR [eax+0x10]
  40bf1d:	push   0x13
  40bf1f:	pop    ecx
  40bf20:	call   0x402af8
  40bf25:	pop    edi
  40bf26:	mov    eax,esi
  40bf28:	pop    esi
  40bf29:	pop    ebx
  40bf2a:	ret    
  40bf2b:	int3   
  40bf2c:	int3   
  40bf2d:	int3   
  40bf2e:	int3   
  40bf2f:	int3   
  40bf30:	mov    edi,edi
  40bf32:	push   ebx
  40bf33:	push   esi
  40bf34:	push   edi
  40bf35:	mov    esi,ecx
  40bf37:	mov    eax,ds:0x411010
  40bf3c:	mov    edi,0x411010
  40bf41:	mov    ebx,0x4019d4
  40bf46:	cmp    eax,edi
  40bf48:	je     0x40bf6b
  40bf4a:	cmp    BYTE PTR [eax+0x19],0x4
  40bf4e:	jb     0x40bf6b
  40bf50:	test   BYTE PTR [eax+0x1c],0x1
  40bf54:	je     0x40bf6b
  40bf56:	push   DWORD PTR [eax+0x14]
  40bf59:	mov    edx,ebx
  40bf5b:	push   DWORD PTR [eax+0x10]
  40bf5e:	push   0x16
  40bf60:	pop    ecx
  40bf61:	call   0x402ad5
  40bf66:	mov    eax,ds:0x411010
  40bf6b:	test   esi,esi
  40bf6d:	je     0x40bf80
  40bf6f:	cmp    DWORD PTR [esi],0x0
  40bf72:	je     0x40bf80
  40bf74:	push   DWORD PTR [esi]
  40bf76:	call   0x40a080
  40bf7b:	mov    eax,ds:0x411010
  40bf80:	cmp    eax,edi
  40bf82:	je     0x40bfa2
  40bf84:	cmp    BYTE PTR [eax+0x19],0x4
  40bf88:	jb     0x40bfa2
  40bf8a:	test   BYTE PTR [eax+0x1c],0x1
  40bf8e:	je     0x40bfa2
  40bf90:	push   0x0
  40bf92:	push   DWORD PTR [eax+0x14]
  40bf95:	mov    edx,ebx
  40bf97:	push   DWORD PTR [eax+0x10]
  40bf9a:	push   0x17
  40bf9c:	pop    ecx
  40bf9d:	call   0x402af8
  40bfa2:	pop    edi
  40bfa3:	pop    esi
  40bfa4:	pop    ebx
  40bfa5:	ret    
  40bfa6:	int3   
  40bfa7:	int3   
  40bfa8:	int3   
  40bfa9:	int3   
  40bfaa:	int3   
  40bfab:	mov    edi,edi
  40bfad:	push   ebx
  40bfae:	push   esi
  40bfaf:	push   edi
  40bfb0:	mov    esi,ecx
  40bfb2:	mov    eax,ds:0x411010
  40bfb7:	mov    edi,0x411010
  40bfbc:	mov    ebx,0x4019d4
  40bfc1:	cmp    eax,edi
  40bfc3:	je     0x40bfe6
  40bfc5:	cmp    BYTE PTR [eax+0x19],0x4
  40bfc9:	jb     0x40bfe6
  40bfcb:	test   BYTE PTR [eax+0x1c],0x1
  40bfcf:	je     0x40bfe6
  40bfd1:	push   DWORD PTR [eax+0x14]
  40bfd4:	mov    edx,ebx
  40bfd6:	push   DWORD PTR [eax+0x10]
  40bfd9:	push   0x18
  40bfdb:	pop    ecx
  40bfdc:	call   0x402ad5
  40bfe1:	mov    eax,ds:0x411010
  40bfe6:	test   esi,esi
  40bfe8:	je     0x40bffb
  40bfea:	cmp    DWORD PTR [esi],0x0
  40bfed:	je     0x40bffb
  40bfef:	push   DWORD PTR [esi]
  40bff1:	call   0x40a080
  40bff6:	mov    eax,ds:0x411010
  40bffb:	cmp    eax,edi
  40bffd:	je     0x40c01d
  40bfff:	cmp    BYTE PTR [eax+0x19],0x4
  40c003:	jb     0x40c01d
  40c005:	test   BYTE PTR [eax+0x1c],0x1
  40c009:	je     0x40c01d
  40c00b:	push   0x0
  40c00d:	push   DWORD PTR [eax+0x14]
  40c010:	mov    edx,ebx
  40c012:	push   DWORD PTR [eax+0x10]
  40c015:	push   0x19
  40c017:	pop    ecx
  40c018:	call   0x402af8
  40c01d:	pop    edi
  40c01e:	pop    esi
  40c01f:	pop    ebx
  40c020:	ret    
  40c021:	int3   
  40c022:	int3   
  40c023:	int3   
  40c024:	int3   
  40c025:	int3   
  40c026:	mov    edi,edi
  40c028:	push   ebp
  40c029:	mov    ebp,esp
  40c02b:	push   ecx
  40c02c:	push   ebx
  40c02d:	push   esi
  40c02e:	push   edi
  40c02f:	mov    edi,ecx
  40c031:	mov    eax,ds:0x411010
  40c036:	cmp    eax,0x411010
  40c03b:	je     0x40c061
  40c03d:	cmp    BYTE PTR [eax+0x19],0x4
  40c041:	jb     0x40c061
  40c043:	test   BYTE PTR [eax+0x1c],0x1
  40c047:	je     0x40c061
  40c049:	push   DWORD PTR [eax+0x14]
  40c04c:	mov    edx,0x4019d4
  40c051:	push   DWORD PTR [eax+0x10]
  40c054:	push   0x1a
  40c056:	pop    ecx
  40c057:	call   0x402ad5
  40c05c:	mov    eax,ds:0x411010
  40c061:	cmp    DWORD PTR [edi+0x4],0x0
  40c065:	je     0x40c0a1
  40c067:	xor    ebx,ebx
  40c069:	cmp    DWORD PTR [edi],ebx
  40c06b:	jbe    0x40c094
  40c06d:	xor    eax,eax
  40c06f:	mov    DWORD PTR [ebp-0x4],eax
  40c072:	mov    esi,DWORD PTR [edi+0x4]
  40c075:	add    esi,eax
  40c077:	mov    ecx,esi
  40c079:	call   0x40bf30
  40c07e:	lea    ecx,[esi+0x4]
  40c081:	call   0x40bfab
  40c086:	mov    eax,DWORD PTR [ebp-0x4]
  40c089:	inc    ebx
  40c08a:	add    eax,0xc
  40c08d:	mov    DWORD PTR [ebp-0x4],eax
  40c090:	cmp    ebx,DWORD PTR [edi]
  40c092:	jb     0x40c072
  40c094:	push   DWORD PTR [edi+0x4]
  40c097:	call   0x40a080
  40c09c:	mov    eax,ds:0x411010
  40c0a1:	cmp    eax,0x411010
  40c0a6:	je     0x40c0c9
  40c0a8:	cmp    BYTE PTR [eax+0x19],0x4
  40c0ac:	jb     0x40c0c9
  40c0ae:	test   BYTE PTR [eax+0x1c],0x1
  40c0b2:	je     0x40c0c9
  40c0b4:	push   0x0
  40c0b6:	push   DWORD PTR [eax+0x14]
  40c0b9:	mov    edx,0x4019d4
  40c0be:	push   DWORD PTR [eax+0x10]
  40c0c1:	push   0x1b
  40c0c3:	pop    ecx
  40c0c4:	call   0x402af8
  40c0c9:	pop    edi
  40c0ca:	pop    esi
  40c0cb:	pop    ebx
  40c0cc:	mov    esp,ebp
  40c0ce:	pop    ebp
  40c0cf:	ret    
  40c0d0:	int3   
  40c0d1:	int3   
  40c0d2:	int3   
  40c0d3:	int3   
  40c0d4:	int3   
  40c0d5:	mov    edi,edi
  40c0d7:	push   ebx
  40c0d8:	push   esi
  40c0d9:	push   edi
  40c0da:	mov    edi,edx
  40c0dc:	mov    ebx,ecx
  40c0de:	xor    esi,esi
  40c0e0:	mov    eax,ds:0x411010
  40c0e5:	cmp    eax,0x411010
  40c0ea:	je     0x40c10b
  40c0ec:	cmp    BYTE PTR [eax+0x19],0x4
  40c0f0:	jb     0x40c10b
  40c0f2:	test   BYTE PTR [eax+0x1c],0x1
  40c0f6:	je     0x40c10b
  40c0f8:	push   DWORD PTR [eax+0x14]
  40c0fb:	mov    edx,0x4019d4
  40c100:	push   DWORD PTR [eax+0x10]
  40c103:	push   0x1c
  40c105:	pop    ecx
  40c106:	call   0x402ad5
  40c10b:	mov    DWORD PTR [edi],esi
  40c10d:	test   ebx,ebx
  40c10f:	je     0x40c11c
  40c111:	mov    ecx,DWORD PTR [ebx]
  40c113:	mov    edx,edi
  40c115:	call   0x40bc31
  40c11a:	mov    esi,eax
  40c11c:	mov    ecx,DWORD PTR ds:0x411010
  40c122:	cmp    ecx,0x411010
  40c128:	je     0x40c14a
  40c12a:	cmp    BYTE PTR [ecx+0x19],0x4
  40c12e:	jb     0x40c14a
  40c130:	test   BYTE PTR [ecx+0x1c],0x1
  40c134:	je     0x40c14a
  40c136:	push   esi
  40c137:	push   DWORD PTR [ecx+0x14]
  40c13a:	mov    edx,0x4019d4
  40c13f:	push   DWORD PTR [ecx+0x10]
  40c142:	push   0x1d
  40c144:	pop    ecx
  40c145:	call   0x402af8
  40c14a:	pop    edi
  40c14b:	mov    eax,esi
  40c14d:	pop    esi
  40c14e:	pop    ebx
  40c14f:	ret    
  40c150:	int3   
  40c151:	int3   
  40c152:	int3   
  40c153:	int3   
  40c154:	int3   
  40c155:	mov    edi,edi
  40c157:	push   ebx
  40c158:	push   esi
  40c159:	push   edi
  40c15a:	mov    edi,edx
  40c15c:	mov    ebx,ecx
  40c15e:	xor    esi,esi
  40c160:	mov    eax,ds:0x411010
  40c165:	cmp    eax,0x411010
  40c16a:	je     0x40c18b
  40c16c:	cmp    BYTE PTR [eax+0x19],0x4
  40c170:	jb     0x40c18b
  40c172:	test   BYTE PTR [eax+0x1c],0x1
  40c176:	je     0x40c18b
  40c178:	push   DWORD PTR [eax+0x14]
  40c17b:	mov    edx,0x4019d4
  40c180:	push   DWORD PTR [eax+0x10]
  40c183:	push   0x1e
  40c185:	pop    ecx
  40c186:	call   0x402ad5
  40c18b:	mov    DWORD PTR [edi],esi
  40c18d:	mov    DWORD PTR [edi+0x4],esi
  40c190:	test   ebx,ebx
  40c192:	je     0x40c1a9
  40c194:	mov    ecx,DWORD PTR [ebx]
  40c196:	mov    edx,edi
  40c198:	call   0x40bc31
  40c19d:	mov    esi,eax
  40c19f:	test   esi,esi
  40c1a1:	jne    0x40c1a9
  40c1a3:	mov    ecx,DWORD PTR [ebx+0x4]
  40c1a6:	mov    DWORD PTR [edi+0x4],ecx
  40c1a9:	mov    ecx,DWORD PTR ds:0x411010
  40c1af:	cmp    ecx,0x411010
  40c1b5:	je     0x40c1d7
  40c1b7:	cmp    BYTE PTR [ecx+0x19],0x4
  40c1bb:	jb     0x40c1d7
  40c1bd:	test   BYTE PTR [ecx+0x1c],0x1
  40c1c1:	je     0x40c1d7
  40c1c3:	push   esi
  40c1c4:	push   DWORD PTR [ecx+0x14]
  40c1c7:	mov    edx,0x4019d4
  40c1cc:	push   DWORD PTR [ecx+0x10]
  40c1cf:	push   0x1f
  40c1d1:	pop    ecx
  40c1d2:	call   0x402af8
  40c1d7:	pop    edi
  40c1d8:	mov    eax,esi
  40c1da:	pop    esi
  40c1db:	pop    ebx
  40c1dc:	ret    
  40c1dd:	int3   
  40c1de:	int3   
  40c1df:	int3   
  40c1e0:	int3   
  40c1e1:	int3   
  40c1e2:	mov    edi,edi
  40c1e4:	push   ebp
  40c1e5:	mov    ebp,esp
  40c1e7:	push   ecx
  40c1e8:	push   ebx
  40c1e9:	push   esi
  40c1ea:	push   edi
  40c1eb:	mov    edi,edx
  40c1ed:	mov    ebx,ecx
  40c1ef:	mov    DWORD PTR [ebp-0x4],edi
  40c1f2:	xor    esi,esi
  40c1f4:	mov    eax,ds:0x411010
  40c1f9:	cmp    eax,0x411010
  40c1fe:	je     0x40c21f
  40c200:	cmp    BYTE PTR [eax+0x19],0x4
  40c204:	jb     0x40c21f
  40c206:	test   BYTE PTR [eax+0x1c],0x1
  40c20a:	je     0x40c21f
  40c20c:	push   DWORD PTR [eax+0x14]
  40c20f:	mov    edx,0x4019d4
  40c214:	push   DWORD PTR [eax+0x10]
  40c217:	push   0x20
  40c219:	pop    ecx
  40c21a:	call   0x402ad5
  40c21f:	mov    DWORD PTR [edi],esi
  40c221:	test   ebx,ebx
  40c223:	je     0x40c2b9
  40c229:	mov    ecx,DWORD PTR [ebx]
  40c22b:	test   ecx,ecx
  40c22d:	je     0x40c2b9
  40c233:	imul   esi,ecx,0x24
  40c236:	xor    edx,edx
  40c238:	push   0x24
  40c23a:	pop    edi
  40c23b:	mov    eax,esi
  40c23d:	div    edi
  40c23f:	cmp    eax,ecx
  40c241:	je     0x40c273
  40c243:	mov    esi,0x216
  40c248:	mov    eax,ds:0x411010
  40c24d:	cmp    eax,0x411010
  40c252:	je     0x40c2e5
  40c258:	test   BYTE PTR [eax+0x1c],0x1
  40c25c:	je     0x40c2be
  40c25e:	push   DWORD PTR [eax+0x14]
  40c261:	push   DWORD PTR [eax+0x10]
  40c264:	push   0x21
  40c266:	mov    edx,0x4019d4
  40c26b:	pop    ecx
  40c26c:	call   0x402ad5
  40c271:	jmp    0x40c2b9
  40c273:	lea    edi,[esi+0x4]
  40c276:	cmp    edi,esi
  40c278:	jae    0x40c29b
  40c27a:	mov    esi,0x216
  40c27f:	mov    eax,ds:0x411010
  40c284:	cmp    eax,0x411010
  40c289:	je     0x40c2e5
  40c28b:	test   BYTE PTR [eax+0x1c],0x1
  40c28f:	je     0x40c2be
  40c291:	push   DWORD PTR [eax+0x14]
  40c294:	push   DWORD PTR [eax+0x10]
  40c297:	push   0x22
  40c299:	jmp    0x40c266
  40c29b:	push   DWORD PTR [ebp-0x4]
  40c29e:	push   edi
  40c29f:	call   0x409fb0
  40c2a4:	mov    esi,eax
  40c2a6:	test   esi,esi
  40c2a8:	jne    0x40c2b9
  40c2aa:	mov    eax,DWORD PTR [ebp-0x4]
  40c2ad:	push   edi
  40c2ae:	push   ebx
  40c2af:	push   DWORD PTR [eax]
  40c2b1:	call   0x41085c
  40c2b6:	add    esp,0xc
  40c2b9:	mov    eax,ds:0x411010
  40c2be:	cmp    eax,0x411010
  40c2c3:	je     0x40c2e5
  40c2c5:	cmp    BYTE PTR [eax+0x19],0x4
  40c2c9:	jb     0x40c2e5
  40c2cb:	test   BYTE PTR [eax+0x1c],0x1
  40c2cf:	je     0x40c2e5
  40c2d1:	push   esi
  40c2d2:	push   DWORD PTR [eax+0x14]
  40c2d5:	mov    edx,0x4019d4
  40c2da:	push   DWORD PTR [eax+0x10]
  40c2dd:	push   0x23
  40c2df:	pop    ecx
  40c2e0:	call   0x402af8
  40c2e5:	pop    edi
  40c2e6:	mov    eax,esi
  40c2e8:	pop    esi
  40c2e9:	pop    ebx
  40c2ea:	mov    esp,ebp
  40c2ec:	pop    ebp
  40c2ed:	ret    
  40c2ee:	int3   
  40c2ef:	int3   
  40c2f0:	int3   
  40c2f1:	int3   
  40c2f2:	int3   
  40c2f3:	mov    edi,edi
  40c2f5:	push   ebp
  40c2f6:	mov    ebp,esp
  40c2f8:	sub    esp,0xc
  40c2fb:	push   ebx
  40c2fc:	push   esi
  40c2fd:	push   edi
  40c2fe:	mov    edi,ecx
  40c300:	xor    esi,esi
  40c302:	mov    ebx,edx
  40c304:	mov    DWORD PTR [ebp-0x8],edi
  40c307:	mov    DWORD PTR [ebp-0x4],esi
  40c30a:	mov    eax,ds:0x411010
  40c30f:	cmp    eax,0x411010
  40c314:	je     0x40c335
  40c316:	cmp    BYTE PTR [eax+0x19],0x4
  40c31a:	jb     0x40c335
  40c31c:	test   BYTE PTR [eax+0x1c],0x1
  40c320:	je     0x40c335
  40c322:	push   DWORD PTR [eax+0x14]
  40c325:	mov    edx,0x4019d4
  40c32a:	push   DWORD PTR [eax+0x10]
  40c32d:	push   0x24
  40c32f:	pop    ecx
  40c330:	call   0x402ad5
  40c335:	mov    DWORD PTR [ebx],esi
  40c337:	test   edi,edi
  40c339:	je     0x40c377
  40c33b:	lea    eax,[ebp-0x4]
  40c33e:	push   eax
  40c33f:	push   0x8
  40c341:	call   0x409fb0
  40c346:	mov    edi,DWORD PTR [ebp-0x4]
  40c349:	mov    esi,eax
  40c34b:	test   esi,esi
  40c34d:	jne    0x40c36b
  40c34f:	mov    ecx,DWORD PTR [ebp-0x8]
  40c352:	lea    edx,[edi+0x4]
  40c355:	mov    eax,DWORD PTR [ecx]
  40c357:	mov    DWORD PTR [edi],eax
  40c359:	mov    ecx,DWORD PTR [ecx+0x4]
  40c35c:	call   0x40c42f
  40c361:	mov    esi,eax
  40c363:	test   esi,esi
  40c365:	jne    0x40c36b
  40c367:	mov    DWORD PTR [ebx],edi
  40c369:	jmp    0x40c377
  40c36b:	test   edi,edi
  40c36d:	je     0x40c377
  40c36f:	lea    ecx,[ebp-0x4]
  40c372:	call   0x40c3b1
  40c377:	mov    eax,ds:0x411010
  40c37c:	cmp    eax,0x411010
  40c381:	je     0x40c3a3
  40c383:	cmp    BYTE PTR [eax+0x19],0x4
  40c387:	jb     0x40c3a3
  40c389:	test   BYTE PTR [eax+0x1c],0x1
  40c38d:	je     0x40c3a3
  40c38f:	push   esi
  40c390:	push   DWORD PTR [eax+0x14]
  40c393:	mov    edx,0x4019d4
  40c398:	push   DWORD PTR [eax+0x10]
  40c39b:	push   0x25
  40c39d:	pop    ecx
  40c39e:	call   0x402af8
  40c3a3:	pop    edi
  40c3a4:	mov    eax,esi
  40c3a6:	pop    esi
  40c3a7:	pop    ebx
  40c3a8:	mov    esp,ebp
  40c3aa:	pop    ebp
  40c3ab:	ret    
  40c3ac:	int3   
  40c3ad:	int3   
  40c3ae:	int3   
  40c3af:	int3   
  40c3b0:	int3   
  40c3b1:	mov    edi,edi
  40c3b3:	push   ebx
  40c3b4:	push   esi
  40c3b5:	push   edi
  40c3b6:	mov    edi,ecx
  40c3b8:	mov    eax,ds:0x411010
  40c3bd:	mov    ebx,0x4019d4
  40c3c2:	cmp    eax,0x411010
  40c3c7:	je     0x40c3e5
  40c3c9:	cmp    BYTE PTR [eax+0x19],0x4
  40c3cd:	jb     0x40c3e5
  40c3cf:	test   BYTE PTR [eax+0x1c],0x1
  40c3d3:	je     0x40c3e5
  40c3d5:	push   DWORD PTR [eax+0x14]
  40c3d8:	mov    edx,ebx
  40c3da:	push   DWORD PTR [eax+0x10]
  40c3dd:	push   0x26
  40c3df:	pop    ecx
  40c3e0:	call   0x402ad5
  40c3e5:	test   edi,edi
  40c3e7:	je     0x40c426
  40c3e9:	mov    esi,DWORD PTR [edi]
  40c3eb:	lea    ecx,[esi+0x4]
  40c3ee:	call   0x40c5e3
  40c3f3:	push   esi
  40c3f4:	call   0x40a080
  40c3f9:	and    DWORD PTR [edi],0x0
  40c3fc:	mov    eax,ds:0x411010
  40c401:	cmp    eax,0x411010
  40c406:	je     0x40c426
  40c408:	cmp    BYTE PTR [eax+0x19],0x4
  40c40c:	jb     0x40c426
  40c40e:	test   BYTE PTR [eax+0x1c],0x1
  40c412:	je     0x40c426
  40c414:	push   0x0
  40c416:	push   DWORD PTR [eax+0x14]
  40c419:	mov    edx,ebx
  40c41b:	push   DWORD PTR [eax+0x10]
  40c41e:	push   0x27
  40c420:	pop    ecx
  40c421:	call   0x402af8
  40c426:	pop    edi
  40c427:	pop    esi
  40c428:	pop    ebx
  40c429:	ret    
  40c42a:	int3   
  40c42b:	int3   
  40c42c:	int3   
  40c42d:	int3   
  40c42e:	int3   
  40c42f:	mov    edi,edi
  40c431:	push   ebp
  40c432:	mov    ebp,esp
  40c434:	sub    esp,0x14
  40c437:	push   ebx
  40c438:	push   esi
  40c439:	push   edi
  40c43a:	xor    edi,edi
  40c43c:	mov    DWORD PTR [ebp-0x10],edx
  40c43f:	mov    ebx,ecx
  40c441:	mov    DWORD PTR [ebp-0x4],edi
  40c444:	mov    esi,edi
  40c446:	mov    eax,ds:0x411010
  40c44b:	cmp    eax,0x411010
  40c450:	je     0x40c471
  40c452:	cmp    BYTE PTR [eax+0x19],0x4
  40c456:	jb     0x40c471
  40c458:	test   BYTE PTR [eax+0x1c],0x1
  40c45c:	je     0x40c471
  40c45e:	push   DWORD PTR [eax+0x14]
  40c461:	mov    edx,0x4019d4
  40c466:	push   DWORD PTR [eax+0x10]
  40c469:	push   0x28
  40c46b:	pop    ecx
  40c46c:	call   0x402ad5
  40c471:	mov    eax,DWORD PTR [ebp-0x10]
  40c474:	mov    DWORD PTR [eax],edi
  40c476:	test   ebx,ebx
  40c478:	je     0x40c4c1
  40c47a:	mov    eax,DWORD PTR [ebx]
  40c47c:	mov    DWORD PTR [ebp-0xc],eax
  40c47f:	test   eax,eax
  40c481:	je     0x40c48c
  40c483:	cmp    DWORD PTR [ebx+0x4],edi
  40c486:	je     0x40c491
  40c488:	test   eax,eax
  40c48a:	jne    0x40c4f6
  40c48c:	cmp    DWORD PTR [ebx+0x4],edi
  40c48f:	je     0x40c4f6
  40c491:	push   0x57
  40c493:	pop    esi
  40c494:	mov    eax,ds:0x411010
  40c499:	cmp    eax,0x411010
  40c49e:	je     0x40c4b9
  40c4a0:	test   BYTE PTR [eax+0x1c],0x1
  40c4a4:	je     0x40c4b9
  40c4a6:	push   DWORD PTR [eax+0x14]
  40c4a9:	push   DWORD PTR [eax+0x10]
  40c4ac:	push   0x29
  40c4ae:	mov    edx,0x4019d4
  40c4b3:	pop    ecx
  40c4b4:	call   0x402ad5
  40c4b9:	lea    ecx,[ebp-0x4]
  40c4bc:	call   0x40c5e3
  40c4c1:	mov    eax,ds:0x411010
  40c4c6:	cmp    eax,0x411010
  40c4cb:	je     0x40c4ed
  40c4cd:	cmp    BYTE PTR [eax+0x19],0x4
  40c4d1:	jb     0x40c4ed
  40c4d3:	test   BYTE PTR [eax+0x1c],0x1
  40c4d7:	je     0x40c4ed
  40c4d9:	push   esi
  40c4da:	push   DWORD PTR [eax+0x14]
  40c4dd:	mov    edx,0x4019d4
  40c4e2:	push   DWORD PTR [eax+0x10]
  40c4e5:	push   0x2b
  40c4e7:	pop    ecx
  40c4e8:	call   0x402af8
  40c4ed:	pop    edi
  40c4ee:	mov    eax,esi
  40c4f0:	pop    esi
  40c4f1:	pop    ebx
  40c4f2:	mov    esp,ebp
  40c4f4:	pop    ebp
  40c4f5:	ret    
  40c4f6:	lea    eax,[ebp-0x4]
  40c4f9:	push   eax
  40c4fa:	push   0x8
  40c4fc:	call   0x409fb0
  40c501:	mov    esi,eax
  40c503:	test   esi,esi
  40c505:	jne    0x40c4b9
  40c507:	mov    eax,DWORD PTR [ebp-0x4]
  40c50a:	mov    ecx,DWORD PTR [ebx]
  40c50c:	mov    DWORD PTR [eax],ecx
  40c50e:	add    eax,0x4
  40c511:	mov    DWORD PTR [eax],edi
  40c513:	cmp    DWORD PTR [ebx+0x4],edi
  40c516:	je     0x40c5a7
  40c51c:	push   eax
  40c51d:	imul   eax,DWORD PTR [ebp-0xc],0xc
  40c521:	push   eax
  40c522:	call   0x409fb0
  40c527:	mov    esi,eax
  40c529:	test   esi,esi
  40c52b:	jne    0x40c4b9
  40c52d:	cmp    DWORD PTR [ebp-0xc],edi
  40c530:	jbe    0x40c5a7
  40c532:	mov    edx,edi
  40c534:	mov    DWORD PTR [ebp-0x8],edi
  40c537:	mov    esi,DWORD PTR [ebp-0x4]
  40c53a:	mov    eax,DWORD PTR [ebx+0x4]
  40c53d:	mov    ecx,DWORD PTR [esi+0x4]
  40c540:	mov    eax,DWORD PTR [eax+edx*1+0x4]
  40c544:	mov    DWORD PTR [ecx+edx*1+0x4],eax
  40c548:	mov    eax,DWORD PTR [ebx+0x4]
  40c54b:	mov    ecx,DWORD PTR [esi+0x4]
  40c54e:	mov    eax,DWORD PTR [edx+eax*1]
  40c551:	mov    DWORD PTR [edx+ecx*1],eax
  40c554:	mov    eax,DWORD PTR [ebx+0x4]
  40c557:	mov    ecx,DWORD PTR [eax+edx*1+0x4]
  40c55b:	test   ecx,ecx
  40c55d:	je     0x40c5b4
  40c55f:	mov    eax,DWORD PTR [esi+0x4]
  40c562:	add    eax,0x8
  40c565:	add    eax,edx
  40c567:	push   eax
  40c568:	push   ecx
  40c569:	call   0x409fb0
  40c56e:	mov    esi,eax
  40c570:	test   esi,esi
  40c572:	jne    0x40c4b9
  40c578:	mov    ecx,DWORD PTR [ebp-0x4]
  40c57b:	mov    edx,DWORD PTR [ebp-0x8]
  40c57e:	mov    eax,DWORD PTR [ebx+0x4]
  40c581:	mov    ecx,DWORD PTR [ecx+0x4]
  40c584:	push   DWORD PTR [ecx+edx*1+0x4]
  40c588:	push   DWORD PTR [eax+edx*1+0x8]
  40c58c:	push   DWORD PTR [ecx+edx*1+0x8]
  40c590:	call   0x41085c
  40c595:	mov    edx,DWORD PTR [ebp-0x8]
  40c598:	add    esp,0xc
  40c59b:	inc    edi
  40c59c:	add    edx,0xc
  40c59f:	mov    DWORD PTR [ebp-0x8],edx
  40c5a2:	cmp    edi,DWORD PTR [ebp-0xc]
  40c5a5:	jb     0x40c537
  40c5a7:	mov    ecx,DWORD PTR [ebp-0x10]
  40c5aa:	mov    eax,DWORD PTR [ebp-0x4]
  40c5ad:	mov    DWORD PTR [ecx],eax
  40c5af:	jmp    0x40c4c1
  40c5b4:	push   0x57
  40c5b6:	pop    esi
  40c5b7:	mov    eax,ds:0x411010
  40c5bc:	cmp    eax,0x411010
  40c5c1:	je     0x40c4b9
  40c5c7:	test   BYTE PTR [eax+0x1c],0x1
  40c5cb:	je     0x40c4b9
  40c5d1:	push   DWORD PTR [eax+0x14]
  40c5d4:	push   DWORD PTR [eax+0x10]
  40c5d7:	push   0x2a
  40c5d9:	jmp    0x40c4ae
  40c5de:	int3   
  40c5df:	int3   
  40c5e0:	int3   
  40c5e1:	int3   
  40c5e2:	int3   
  40c5e3:	mov    edi,edi
  40c5e5:	push   ebp
  40c5e6:	mov    ebp,esp
  40c5e8:	push   ecx
  40c5e9:	push   ebx
  40c5ea:	push   esi
  40c5eb:	push   edi
  40c5ec:	mov    edi,ecx
  40c5ee:	mov    DWORD PTR [ebp-0x4],edi
  40c5f1:	mov    eax,ds:0x411010
  40c5f6:	cmp    eax,0x411010
  40c5fb:	je     0x40c61c
  40c5fd:	cmp    BYTE PTR [eax+0x19],0x4
  40c601:	jb     0x40c61c
  40c603:	test   BYTE PTR [eax+0x1c],0x1
  40c607:	je     0x40c61c
  40c609:	push   DWORD PTR [eax+0x14]
  40c60c:	mov    edx,0x4019d4
  40c611:	push   DWORD PTR [eax+0x10]
  40c614:	push   0x2c
  40c616:	pop    ecx
  40c617:	call   0x402ad5
  40c61c:	test   edi,edi
  40c61e:	je     0x40c68f
  40c620:	mov    esi,DWORD PTR [edi]
  40c622:	test   esi,esi
  40c624:	je     0x40c65f
  40c626:	mov    ebx,DWORD PTR [esi]
  40c628:	test   ebx,ebx
  40c62a:	je     0x40c64d
  40c62c:	xor    edi,edi
  40c62e:	mov    eax,DWORD PTR [esi+0x4]
  40c631:	push   DWORD PTR [edi+eax*1+0x8]
  40c635:	call   0x40a080
  40c63a:	mov    eax,DWORD PTR [esi+0x4]
  40c63d:	lea    edi,[edi+0xc]
  40c640:	and    DWORD PTR [edi+eax*1-0x4],0x0
  40c645:	sub    ebx,0x1
  40c648:	jne    0x40c62e
  40c64a:	mov    edi,DWORD PTR [ebp-0x4]
  40c64d:	push   DWORD PTR [esi+0x4]
  40c650:	call   0x40a080
  40c655:	and    DWORD PTR [esi+0x4],0x0
  40c659:	push   esi
  40c65a:	call   0x40a080
  40c65f:	and    DWORD PTR [edi],0x0
  40c662:	mov    eax,ds:0x411010
  40c667:	cmp    eax,0x411010
  40c66c:	je     0x40c68f
  40c66e:	cmp    BYTE PTR [eax+0x19],0x4
  40c672:	jb     0x40c68f
  40c674:	test   BYTE PTR [eax+0x1c],0x1
  40c678:	je     0x40c68f
  40c67a:	push   0x0
  40c67c:	push   DWORD PTR [eax+0x14]
  40c67f:	mov    edx,0x4019d4
  40c684:	push   DWORD PTR [eax+0x10]
  40c687:	push   0x2d
  40c689:	pop    ecx
  40c68a:	call   0x402af8
  40c68f:	pop    edi
  40c690:	pop    esi
  40c691:	pop    ebx
  40c692:	mov    esp,ebp
  40c694:	pop    ebp
  40c695:	ret    
  40c696:	int3   
  40c697:	int3   
  40c698:	int3   
  40c699:	int3   
  40c69a:	int3   
  40c69b:	mov    edi,edi
  40c69d:	push   ebp
  40c69e:	mov    ebp,esp
  40c6a0:	push   0x0
  40c6a2:	push   0x4
  40c6a4:	lea    eax,[ebp+0x18]
  40c6a7:	push   eax
  40c6a8:	push   0x4
  40c6aa:	lea    eax,[ebp+0x14]
  40c6ad:	push   eax
  40c6ae:	push   0x4
  40c6b0:	lea    eax,[ebp+0x10]
  40c6b3:	push   eax
  40c6b4:	push   0x3d
  40c6b6:	push   0x4026b4
  40c6bb:	push   0x2b
  40c6bd:	push   DWORD PTR [ebp+0xc]
  40c6c0:	push   DWORD PTR [ebp+0x8]
  40c6c3:	call   DWORD PTR ds:0x412184
  40c6c9:	add    esp,0x30
  40c6cc:	pop    ebp
  40c6cd:	ret    0x14
  40c6d0:	int3   
  40c6d1:	int3   
  40c6d2:	int3   
  40c6d3:	int3   
  40c6d4:	int3   
  40c6d5:	mov    edi,edi
  40c6d7:	push   ecx
  40c6d8:	push   ebx
  40c6d9:	push   esi
  40c6da:	mov    eax,ds:0x411010
  40c6df:	mov    ebx,0x411010
  40c6e4:	cmp    eax,ebx
  40c6e6:	je     0x40c707
  40c6e8:	cmp    BYTE PTR [eax+0x19],0x4
  40c6ec:	jb     0x40c707
  40c6ee:	test   BYTE PTR [eax+0x1c],0x1
  40c6f2:	je     0x40c707
  40c6f4:	push   DWORD PTR [eax+0x14]
  40c6f7:	mov    edx,0x4026b4
  40c6fc:	push   DWORD PTR [eax+0x10]
  40c6ff:	push   0xa
  40c701:	pop    ecx
  40c702:	call   0x402ad5
  40c707:	and    DWORD PTR ds:0x41146c,0x0
  40c70e:	mov    ecx,0x4114a0
  40c713:	mov    DWORD PTR ds:0x411020,ecx
  40c719:	call   0x40e00e
  40c71e:	mov    esi,eax
  40c720:	test   esi,esi
  40c722:	jne    0x40c73a
  40c724:	and    DWORD PTR ds:0x411468,eax
  40c72a:	and    DWORD PTR ds:0x411464,eax
  40c730:	mov    DWORD PTR ds:0x411460,0x1
  40c73a:	mov    eax,ds:0x411010
  40c73f:	cmp    eax,ebx
  40c741:	je     0x40c763
  40c743:	cmp    BYTE PTR [eax+0x19],0x4
  40c747:	jb     0x40c763
  40c749:	test   BYTE PTR [eax+0x1c],0x1
  40c74d:	je     0x40c763
  40c74f:	push   esi
  40c750:	push   DWORD PTR [eax+0x14]
  40c753:	mov    edx,0x4026b4
  40c758:	push   DWORD PTR [eax+0x10]
  40c75b:	push   0xb
  40c75d:	pop    ecx
  40c75e:	call   0x402af8
  40c763:	mov    eax,esi
  40c765:	pop    esi
  40c766:	pop    ebx
  40c767:	pop    ecx
  40c768:	ret    
  40c769:	int3   
  40c76a:	int3   
  40c76b:	int3   
  40c76c:	int3   
  40c76d:	int3   
  40c76e:	mov    edi,edi
  40c770:	push   ecx
  40c771:	push   esi
  40c772:	push   edi
  40c773:	mov    eax,ds:0x411010
  40c778:	mov    esi,0x411010
  40c77d:	mov    edi,0x4026b4
  40c782:	cmp    eax,esi
  40c784:	je     0x40c7a7
  40c786:	cmp    BYTE PTR [eax+0x19],0x4
  40c78a:	jb     0x40c7a7
  40c78c:	test   BYTE PTR [eax+0x1c],0x1
  40c790:	je     0x40c7a7
  40c792:	push   DWORD PTR [eax+0x14]
  40c795:	mov    edx,edi
  40c797:	push   DWORD PTR [eax+0x10]
  40c79a:	push   0xc
  40c79c:	pop    ecx
  40c79d:	call   0x402ad5
  40c7a2:	mov    eax,ds:0x411010
  40c7a7:	cmp    DWORD PTR ds:0x411460,0x0
  40c7ae:	je     0x40c7ba
  40c7b0:	call   0x40ebea
  40c7b5:	mov    eax,ds:0x411010
  40c7ba:	cmp    eax,esi
  40c7bc:	je     0x40c7dc
  40c7be:	cmp    BYTE PTR [eax+0x19],0x4
  40c7c2:	jb     0x40c7dc
  40c7c4:	test   BYTE PTR [eax+0x1c],0x1
  40c7c8:	je     0x40c7dc
  40c7ca:	push   0x0
  40c7cc:	push   DWORD PTR [eax+0x14]
  40c7cf:	mov    edx,edi
  40c7d1:	push   DWORD PTR [eax+0x10]
  40c7d4:	push   0xd
  40c7d6:	pop    ecx
  40c7d7:	call   0x402af8
  40c7dc:	pop    edi
  40c7dd:	pop    esi
  40c7de:	pop    ecx
  40c7df:	ret    
  40c7e0:	int3   
  40c7e1:	int3   
  40c7e2:	int3   
  40c7e3:	int3   
  40c7e4:	int3   
  40c7e5:	mov    edi,edi
  40c7e7:	push   ebp
  40c7e8:	mov    ebp,esp
  40c7ea:	push   ecx
  40c7eb:	push   ecx
  40c7ec:	push   ebx
  40c7ed:	push   esi
  40c7ee:	push   edi
  40c7ef:	xor    edi,edi
  40c7f1:	mov    DWORD PTR [ebp-0x8],edx
  40c7f4:	mov    ebx,ecx
  40c7f6:	mov    DWORD PTR [ebp-0x4],edi
  40c7f9:	mov    esi,DWORD PTR ds:0x411010
  40c7ff:	cmp    esi,0x411010
  40c805:	je     0x40c82c
  40c807:	cmp    BYTE PTR [esi+0x19],0x4
  40c80b:	jb     0x40c82c
  40c80d:	test   BYTE PTR [esi+0x1c],0x1
  40c811:	je     0x40c82c
  40c813:	push   DWORD PTR [esi+0x14]
  40c816:	mov    edx,0x4026b4
  40c81b:	push   DWORD PTR [esi+0x10]
  40c81e:	push   0xe
  40c820:	pop    ecx
  40c821:	call   0x402ad5
  40c826:	mov    esi,DWORD PTR ds:0x411010
  40c82c:	mov    edx,0x411450
  40c831:	mov    ecx,edi
  40c833:	mov    eax,DWORD PTR [ebx+ecx*4]
  40c836:	cmp    eax,DWORD PTR [edx+ecx*4]
  40c839:	jne    0x40c848
  40c83b:	inc    ecx
  40c83c:	cmp    ecx,0x4
  40c83f:	jne    0x40c833
  40c841:	mov    eax,DWORD PTR [ebp+0x8]
  40c844:	mov    DWORD PTR [eax],edi
  40c846:	jmp    0x40c8a7
  40c848:	lea    eax,[ebp-0x4]
  40c84b:	push   eax
  40c84c:	push   ecx
  40c84d:	push   ebx
  40c84e:	call   0x40ed52
  40c853:	mov    edi,eax
  40c855:	test   edi,edi
  40c857:	je     0x40c889
  40c859:	mov    esi,DWORD PTR ds:0x411010
  40c85f:	cmp    esi,0x411010
  40c865:	je     0x40c8cf
  40c867:	cmp    BYTE PTR [esi+0x19],0x1
  40c86b:	jb     0x40c8a7
  40c86d:	test   BYTE PTR [esi+0x1c],0x1
  40c871:	je     0x40c8a7
  40c873:	push   edi
  40c874:	push   DWORD PTR [esi+0x14]
  40c877:	mov    edx,0x4026b4
  40c87c:	push   DWORD PTR [esi+0x10]
  40c87f:	push   0xf
  40c881:	pop    ecx
  40c882:	call   0x402af8
  40c887:	jmp    0x40c8a1
  40c889:	mov    esi,DWORD PTR [ebp-0x4]
  40c88c:	mov    ecx,esi
  40c88e:	mov    edx,DWORD PTR [ebp-0x8]
  40c891:	call   0x40c8df
  40c896:	mov    edi,eax
  40c898:	test   edi,edi
  40c89a:	jne    0x40c8a1
  40c89c:	mov    eax,DWORD PTR [ebp+0x8]
  40c89f:	mov    DWORD PTR [eax],esi
  40c8a1:	mov    esi,DWORD PTR ds:0x411010
  40c8a7:	cmp    esi,0x411010
  40c8ad:	je     0x40c8cf
  40c8af:	cmp    BYTE PTR [esi+0x19],0x4
  40c8b3:	jb     0x40c8cf
  40c8b5:	test   BYTE PTR [esi+0x1c],0x1
  40c8b9:	je     0x40c8cf
  40c8bb:	push   edi
  40c8bc:	push   DWORD PTR [esi+0x14]
  40c8bf:	mov    edx,0x4026b4
  40c8c4:	push   DWORD PTR [esi+0x10]
  40c8c7:	push   0x10
  40c8c9:	pop    ecx
  40c8ca:	call   0x402af8
  40c8cf:	mov    eax,edi
  40c8d1:	pop    edi
  40c8d2:	pop    esi
  40c8d3:	pop    ebx
  40c8d4:	mov    esp,ebp
  40c8d6:	pop    ebp
  40c8d7:	ret    0x4
  40c8da:	int3   
  40c8db:	int3   
  40c8dc:	int3   
  40c8dd:	int3   
  40c8de:	int3   
  40c8df:	mov    edi,edi
  40c8e1:	push   ebx
  40c8e2:	push   esi
  40c8e3:	push   edi
  40c8e4:	mov    ebx,edx
  40c8e6:	mov    edi,ecx
  40c8e8:	mov    eax,ds:0x411010
  40c8ed:	cmp    eax,0x411010
  40c8f2:	je     0x40c913
  40c8f4:	cmp    BYTE PTR [eax+0x19],0x4
  40c8f8:	jb     0x40c913
  40c8fa:	test   BYTE PTR [eax+0x1c],0x1
  40c8fe:	je     0x40c913
  40c900:	push   DWORD PTR [eax+0x14]
  40c903:	mov    edx,0x4026b4
  40c908:	push   DWORD PTR [eax+0x10]
  40c90b:	push   0x11
  40c90d:	pop    ecx
  40c90e:	call   0x402ad5
  40c913:	xor    eax,eax
  40c915:	mov    ecx,edi
  40c917:	push   eax
  40c918:	push   eax
  40c919:	push   eax
  40c91a:	push   eax
  40c91b:	push   0x3
  40c91d:	pop    edx
  40c91e:	call   0x40f362
  40c923:	mov    esi,eax
  40c925:	test   esi,esi
  40c927:	je     0x40c94e
  40c929:	mov    ecx,DWORD PTR ds:0x411010
  40c92f:	cmp    ecx,0x411010
  40c935:	je     0x40c98b
  40c937:	cmp    BYTE PTR [ecx+0x19],0x1
  40c93b:	jb     0x40c98b
  40c93d:	test   BYTE PTR [ecx+0x1c],0x1
  40c941:	je     0x40c98b
  40c943:	push   esi
  40c944:	push   DWORD PTR [ecx+0x14]
  40c947:	push   DWORD PTR [ecx+0x10]
  40c94a:	push   0x12
  40c94c:	jmp    0x40c980
  40c94e:	push   0x8
  40c950:	mov    edx,ebx
  40c952:	mov    ecx,edi
  40c954:	call   0x40ee01
  40c959:	mov    esi,eax
  40c95b:	test   esi,esi
  40c95d:	je     0x40c98b
  40c95f:	mov    eax,ds:0x411010
  40c964:	cmp    eax,0x411010
  40c969:	je     0x40c98b
  40c96b:	cmp    BYTE PTR [eax+0x19],0x1
  40c96f:	jb     0x40c98b
  40c971:	test   BYTE PTR [eax+0x1c],0x1
  40c975:	je     0x40c98b
  40c977:	push   esi
  40c978:	push   DWORD PTR [eax+0x14]
  40c97b:	push   DWORD PTR [eax+0x10]
  40c97e:	push   0x13
  40c980:	mov    edx,0x4026b4
  40c985:	pop    ecx
  40c986:	call   0x402af8
  40c98b:	pop    edi
  40c98c:	mov    eax,esi
  40c98e:	pop    esi
  40c98f:	pop    ebx
  40c990:	ret    
  40c991:	int3   
  40c992:	int3   
  40c993:	int3   
  40c994:	int3   
  40c995:	int3   
  40c996:	mov    edi,edi
  40c998:	push   ebx
  40c999:	push   esi
  40c99a:	push   edi
  40c99b:	mov    edi,ecx
  40c99d:	xor    esi,esi
  40c99f:	mov    eax,ds:0x411010
  40c9a4:	mov    ebx,0x411010
  40c9a9:	cmp    eax,ebx
  40c9ab:	je     0x40c9d1
  40c9ad:	cmp    BYTE PTR [eax+0x19],0x4
  40c9b1:	jb     0x40c9d1
  40c9b3:	test   BYTE PTR [eax+0x1c],0x1
  40c9b7:	je     0x40c9d1
  40c9b9:	push   DWORD PTR [eax+0x14]
  40c9bc:	mov    edx,0x4026b4
  40c9c1:	push   DWORD PTR [eax+0x10]
  40c9c4:	push   0x14
  40c9c6:	pop    ecx
  40c9c7:	call   0x402ad5
  40c9cc:	mov    eax,ds:0x411010
  40c9d1:	test   edi,edi
  40c9d3:	je     0x40ca0a
  40c9d5:	mov    ecx,edi
  40c9d7:	call   0x40f1ed
  40c9dc:	mov    esi,eax
  40c9de:	test   esi,esi
  40c9e0:	je     0x40ca05
  40c9e2:	mov    eax,ds:0x411010
  40c9e7:	cmp    eax,ebx
  40c9e9:	je     0x40ca2e
  40c9eb:	test   BYTE PTR [eax+0x1c],0x1
  40c9ef:	je     0x40ca0a
  40c9f1:	push   esi
  40c9f2:	push   DWORD PTR [eax+0x14]
  40c9f5:	mov    edx,0x4026b4
  40c9fa:	push   DWORD PTR [eax+0x10]
  40c9fd:	push   0x15
  40c9ff:	pop    ecx
  40ca00:	call   0x402af8
  40ca05:	mov    eax,ds:0x411010
  40ca0a:	cmp    eax,ebx
  40ca0c:	je     0x40ca2e
  40ca0e:	cmp    BYTE PTR [eax+0x19],0x4
  40ca12:	jb     0x40ca2e
  40ca14:	test   BYTE PTR [eax+0x1c],0x1
  40ca18:	je     0x40ca2e
  40ca1a:	push   esi
  40ca1b:	push   DWORD PTR [eax+0x14]
  40ca1e:	mov    edx,0x4026b4
  40ca23:	push   DWORD PTR [eax+0x10]
  40ca26:	push   0x16
  40ca28:	pop    ecx
  40ca29:	call   0x402af8
  40ca2e:	pop    edi
  40ca2f:	pop    esi
  40ca30:	pop    ebx
  40ca31:	ret    
  40ca32:	int3   
  40ca33:	int3   
  40ca34:	int3   
  40ca35:	int3   
  40ca36:	int3   
  40ca37:	int3   
  40ca38:	int3   
  40ca39:	int3   
  40ca3a:	int3   
  40ca3b:	int3   
  40ca3c:	int3   
  40ca3d:	int3   
  40ca3e:	int3   
  40ca3f:	int3   
  40ca40:	mov    edi,edi
  40ca42:	push   ebp
  40ca43:	mov    ebp,esp
  40ca45:	and    esp,0xfffffff8
  40ca48:	sub    esp,0xc
  40ca4b:	push   ebx
  40ca4c:	push   esi
  40ca4d:	push   edi
  40ca4e:	xor    edi,edi
  40ca50:	mov    ebx,0x402568
  40ca55:	push   edi
  40ca56:	push   edi
  40ca57:	push   0x4
  40ca59:	mov    edx,ebx
  40ca5b:	mov    DWORD PTR [esp+0x20],edi
  40ca5f:	pop    ecx
  40ca60:	mov    DWORD PTR [esp+0x18],edi
  40ca64:	call   0x406502
  40ca69:	mov    ecx,DWORD PTR [ebp+0x8]
  40ca6c:	lea    eax,[esp+0x14]
  40ca70:	push   eax
  40ca71:	lea    eax,[esp+0x14]
  40ca75:	xor    edx,edx
  40ca77:	push   eax
  40ca78:	push   edi
  40ca79:	call   0x402bf0
  40ca7e:	mov    esi,eax
  40ca80:	test   esi,esi
  40ca82:	jne    0x40cb0e
  40ca88:	mov    ecx,DWORD PTR [esp+0x10]
  40ca8c:	test   ecx,ecx
  40ca8e:	jne    0x40caba
  40ca90:	push   0x15
  40ca92:	pop    esi
  40ca93:	mov    eax,ds:0x411010
  40ca98:	cmp    eax,0x411010
  40ca9d:	je     0x40cb0e
  40ca9f:	test   BYTE PTR [eax+0x1c],0x1
  40caa3:	je     0x40cb0e
  40caa5:	push   DWORD PTR [eax+0x14]
  40caa8:	mov    edx,0x4026b4
  40caad:	push   DWORD PTR [eax+0x10]
  40cab0:	push   0x17
  40cab2:	pop    ecx
  40cab3:	call   0x402ad5
  40cab8:	jmp    0x40cb0e
  40caba:	cmp    DWORD PTR [ebp+0x10],0xffff
  40cac1:	ja     0x40cadb
  40cac3:	push   DWORD PTR [ebp+0x1c]
  40cac6:	mov    edx,DWORD PTR [ebp+0xc]
  40cac9:	push   DWORD PTR [ebp+0x18]
  40cacc:	push   DWORD PTR [ebp+0x14]
  40cacf:	push   DWORD PTR [ebp+0x10]
  40cad2:	call   0x40f362
  40cad7:	mov    esi,eax
  40cad9:	jmp    0x40cade
  40cadb:	push   0x57
  40cadd:	pop    esi
  40cade:	test   esi,esi
  40cae0:	je     0x40cb0e
  40cae2:	mov    eax,ds:0x411010
  40cae7:	cmp    eax,0x411010
  40caec:	je     0x40cb0e
  40caee:	cmp    BYTE PTR [eax+0x19],0x1
  40caf2:	jb     0x40cb0e
  40caf4:	test   BYTE PTR [eax+0x1c],0x1
  40caf8:	je     0x40cb0e
  40cafa:	push   esi
  40cafb:	push   DWORD PTR [eax+0x14]
  40cafe:	mov    edx,0x4026b4
  40cb03:	push   DWORD PTR [eax+0x10]
  40cb06:	push   0x18
  40cb08:	pop    ecx
  40cb09:	call   0x402af8
  40cb0e:	mov    edx,DWORD PTR [esp+0x14]
  40cb12:	mov    ecx,DWORD PTR [ebp+0x8]
  40cb15:	call   0x402cf9
  40cb1a:	push   edi
  40cb1b:	push   esi
  40cb1c:	push   0x6
  40cb1e:	mov    edx,ebx
  40cb20:	pop    ecx
  40cb21:	call   0x406502
  40cb26:	pop    edi
  40cb27:	mov    eax,esi
  40cb29:	pop    esi
  40cb2a:	pop    ebx
  40cb2b:	mov    esp,ebp
  40cb2d:	pop    ebp
  40cb2e:	ret    0x18
  40cb31:	int3   
  40cb32:	int3   
  40cb33:	int3   
  40cb34:	int3   
  40cb35:	int3   
  40cb36:	int3   
  40cb37:	int3   
  40cb38:	int3   
  40cb39:	int3   
  40cb3a:	int3   
  40cb3b:	int3   
  40cb3c:	int3   
  40cb3d:	int3   
  40cb3e:	int3   
  40cb3f:	int3   
  40cb40:	mov    edi,edi
  40cb42:	push   ebp
  40cb43:	mov    ebp,esp
  40cb45:	and    esp,0xfffffff8
  40cb48:	sub    esp,0xc
  40cb4b:	mov    eax,ds:0x411004
  40cb50:	xor    eax,esp
  40cb52:	mov    DWORD PTR [esp+0x8],eax
  40cb56:	push   ebx
  40cb57:	push   esi
  40cb58:	push   edi
  40cb59:	xor    esi,esi
  40cb5b:	mov    edx,0x402580
  40cb60:	push   esi
  40cb61:	push   esi
  40cb62:	push   0x9
  40cb64:	pop    ecx
  40cb65:	mov    edi,esi
  40cb67:	mov    DWORD PTR [esp+0x14],esi
  40cb6b:	mov    DWORD PTR [esp+0x18],esi
  40cb6f:	call   0x406502
  40cb74:	lea    edx,[esp+0x10]
  40cb78:	lea    ecx,[esp+0xc]
  40cb7c:	call   0x405844
  40cb81:	cmp    DWORD PTR [esp+0xc],esi
  40cb85:	jne    0x40cb8c
  40cb87:	push   0x5
  40cb89:	pop    edi
  40cb8a:	jmp    0x40cbf4
  40cb8c:	cmp    DWORD PTR [ebp+0x8],esi
  40cb8f:	je     0x40cbb9
  40cb91:	mov    eax,ds:0x411010
  40cb96:	cmp    eax,0x411010
  40cb9b:	je     0x40cbb9
  40cb9d:	test   BYTE PTR [eax+0x1c],0x1
  40cba1:	je     0x40cbb9
  40cba3:	push   DWORD PTR [ebp+0x8]
  40cba6:	mov    edx,0x4026b4
  40cbab:	push   DWORD PTR [eax+0x14]
  40cbae:	push   DWORD PTR [eax+0x10]
  40cbb1:	push   0x19
  40cbb3:	pop    ecx
  40cbb4:	call   0x402af8
  40cbb9:	mov    eax,DWORD PTR [ebp+0x10]
  40cbbc:	mov    edx,0x402580
  40cbc1:	push   esi
  40cbc2:	push   esi
  40cbc3:	xor    ecx,ecx
  40cbc5:	mov    ebx,DWORD PTR [eax+0x20]
  40cbc8:	call   0x406502
  40cbcd:	mov    eax,DWORD PTR [esp+0x10]
  40cbd1:	mov    esi,DWORD PTR [eax+0x34]
  40cbd4:	test   esi,esi
  40cbd6:	je     0x40cbe3
  40cbd8:	push   ebx
  40cbd9:	mov    ecx,esi
  40cbdb:	call   DWORD PTR ds:0x41221c
  40cbe1:	call   esi
  40cbe3:	xor    esi,esi
  40cbe5:	xor    ecx,ecx
  40cbe7:	push   esi
  40cbe8:	push   esi
  40cbe9:	mov    edx,0x402580
  40cbee:	inc    ecx
  40cbef:	call   0x406502
  40cbf4:	lea    ecx,[esp+0xc]
  40cbf8:	call   0x405924
  40cbfd:	push   esi
  40cbfe:	push   edi
  40cbff:	push   0xa
  40cc01:	mov    edx,0x402580
  40cc06:	pop    ecx
  40cc07:	call   0x406502
  40cc0c:	mov    ecx,DWORD PTR [esp+0x14]
  40cc10:	xor    eax,eax
  40cc12:	pop    edi
  40cc13:	pop    esi
  40cc14:	pop    ebx
  40cc15:	xor    ecx,esp
  40cc17:	call   0x4101d0
  40cc1c:	mov    esp,ebp
  40cc1e:	pop    ebp
  40cc1f:	ret    0xc
  40cc22:	int3   
  40cc23:	int3   
  40cc24:	int3   
  40cc25:	int3   
  40cc26:	int3   
  40cc27:	int3   
  40cc28:	int3   
  40cc29:	int3   
  40cc2a:	int3   
  40cc2b:	int3   
  40cc2c:	int3   
  40cc2d:	int3   
  40cc2e:	int3   
  40cc2f:	int3   
  40cc30:	mov    edi,edi
  40cc32:	push   ebp
  40cc33:	mov    ebp,esp
  40cc35:	and    esp,0xfffffff8
  40cc38:	sub    esp,0xc
  40cc3b:	push   ebx
  40cc3c:	push   esi
  40cc3d:	push   edi
  40cc3e:	xor    edi,edi
  40cc40:	mov    ebx,0x402598
  40cc45:	push   edi
  40cc46:	push   edi
  40cc47:	push   0x4
  40cc49:	mov    edx,ebx
  40cc4b:	mov    DWORD PTR [esp+0x20],edi
  40cc4f:	pop    ecx
  40cc50:	mov    DWORD PTR [esp+0x18],edi
  40cc54:	call   0x406502
  40cc59:	cmp    DWORD PTR [ebp+0xc],edi
  40cc5c:	je     0x40ccff
  40cc62:	cmp    DWORD PTR [ebp+0x10],edi
  40cc65:	je     0x40ccff
  40cc6b:	cmp    DWORD PTR [ebp+0x14],edi
  40cc6e:	je     0x40ccff
  40cc74:	mov    ecx,DWORD PTR [ebp+0x8]
  40cc77:	lea    eax,[esp+0x14]
  40cc7b:	push   eax
  40cc7c:	lea    eax,[esp+0x14]
  40cc80:	xor    edx,edx
  40cc82:	push   eax
  40cc83:	push   edi
  40cc84:	call   0x402bf0
  40cc89:	mov    esi,eax
  40cc8b:	test   esi,esi
  40cc8d:	jne    0x40cd27
  40cc93:	mov    ecx,DWORD PTR [esp+0x10]
  40cc97:	test   ecx,ecx
  40cc99:	jne    0x40ccba
  40cc9b:	push   0x15
  40cc9d:	pop    esi
  40cc9e:	mov    eax,ds:0x411010
  40cca3:	cmp    eax,0x411010
  40cca8:	je     0x40cd27
  40ccaa:	test   BYTE PTR [eax+0x1c],0x1
  40ccae:	je     0x40cd27
  40ccb0:	push   DWORD PTR [eax+0x14]
  40ccb3:	push   DWORD PTR [eax+0x10]
  40ccb6:	push   0x1b
  40ccb8:	jmp    0x40cd1c
  40ccba:	push   DWORD PTR [ebp+0x18]
  40ccbd:	push   DWORD PTR [ebp+0x14]
  40ccc0:	push   DWORD PTR [ebp+0x10]
  40ccc3:	push   DWORD PTR [ebp+0xc]
  40ccc6:	call   0x40f2f4
  40cccb:	mov    esi,eax
  40cccd:	test   esi,esi
  40cccf:	je     0x40cd27
  40ccd1:	mov    eax,ds:0x411010
  40ccd6:	cmp    eax,0x411010
  40ccdb:	je     0x40cd27
  40ccdd:	cmp    BYTE PTR [eax+0x19],0x1
  40cce1:	jb     0x40cd27
  40cce3:	test   BYTE PTR [eax+0x1c],0x1
  40cce7:	je     0x40cd27
  40cce9:	push   esi
  40ccea:	push   DWORD PTR [eax+0x14]
  40cced:	mov    edx,0x4026b4
  40ccf2:	push   DWORD PTR [eax+0x10]
  40ccf5:	push   0x1c
  40ccf7:	pop    ecx
  40ccf8:	call   0x402af8
  40ccfd:	jmp    0x40cd27
  40ccff:	push   0x57
  40cd01:	pop    esi
  40cd02:	mov    eax,ds:0x411010
  40cd07:	cmp    eax,0x411010
  40cd0c:	je     0x40cd27
  40cd0e:	test   BYTE PTR [eax+0x1c],0x1
  40cd12:	je     0x40cd27
  40cd14:	push   DWORD PTR [eax+0x14]
  40cd17:	push   DWORD PTR [eax+0x10]
  40cd1a:	push   0x1a
  40cd1c:	mov    edx,0x4026b4
  40cd21:	pop    ecx
  40cd22:	call   0x402ad5
  40cd27:	mov    edx,DWORD PTR [esp+0x14]
  40cd2b:	mov    ecx,DWORD PTR [ebp+0x8]
  40cd2e:	call   0x402cf9
  40cd33:	push   edi
  40cd34:	push   esi
  40cd35:	push   0x6
  40cd37:	mov    edx,ebx
  40cd39:	pop    ecx
  40cd3a:	call   0x406502
  40cd3f:	pop    edi
  40cd40:	mov    eax,esi
  40cd42:	pop    esi
  40cd43:	pop    ebx
  40cd44:	mov    esp,ebp
  40cd46:	pop    ebp
  40cd47:	ret    0x14
  40cd4a:	int3   
  40cd4b:	int3   
  40cd4c:	int3   
  40cd4d:	int3   
  40cd4e:	int3   
  40cd4f:	int3   
  40cd50:	mov    edi,edi
  40cd52:	push   ebp
  40cd53:	mov    ebp,esp
  40cd55:	and    esp,0xfffffff8
  40cd58:	sub    esp,0xc
  40cd5b:	push   ebx
  40cd5c:	push   esi
  40cd5d:	push   edi
  40cd5e:	xor    edi,edi
  40cd60:	mov    ebx,0x4025b0
  40cd65:	push   edi
  40cd66:	push   edi
  40cd67:	push   0x4
  40cd69:	mov    edx,ebx
  40cd6b:	mov    DWORD PTR [esp+0x20],edi
  40cd6f:	pop    ecx
  40cd70:	mov    DWORD PTR [esp+0x18],edi
  40cd74:	call   0x406502
  40cd79:	cmp    DWORD PTR [ebp+0xc],edi
  40cd7c:	je     0x40ce27
  40cd82:	cmp    DWORD PTR [ebp+0x10],edi
  40cd85:	je     0x40ce27
  40cd8b:	mov    ecx,DWORD PTR [ebp+0x8]
  40cd8e:	lea    eax,[esp+0x14]
  40cd92:	push   eax
  40cd93:	lea    eax,[esp+0x14]
  40cd97:	xor    edx,edx
  40cd99:	push   eax
  40cd9a:	push   edi
  40cd9b:	call   0x402bf0
  40cda0:	mov    esi,eax
  40cda2:	test   esi,esi
  40cda4:	jne    0x40ce4f
  40cdaa:	mov    ecx,DWORD PTR [esp+0x10]
  40cdae:	test   ecx,ecx
  40cdb0:	jne    0x40cdd9
  40cdb2:	push   0x15
  40cdb4:	pop    esi
  40cdb5:	mov    eax,ds:0x411010
  40cdba:	cmp    eax,0x411010
  40cdbf:	je     0x40ce4f
  40cdc5:	test   BYTE PTR [eax+0x1c],0x1
  40cdc9:	je     0x40ce4f
  40cdcf:	push   DWORD PTR [eax+0x14]
  40cdd2:	push   DWORD PTR [eax+0x10]
  40cdd5:	push   0x1e
  40cdd7:	jmp    0x40ce44
  40cdd9:	push   DWORD PTR [ebp+0x14]
  40cddc:	mov    edx,DWORD PTR [ebp+0x8]
  40cddf:	push   ecx
  40cde0:	push   DWORD PTR [ebp+0x10]
  40cde3:	push   DWORD PTR [ebp+0xc]
  40cde6:	call   0x40f3c7
  40cdeb:	mov    esi,eax
  40cded:	cmp    esi,0x3e5
  40cdf3:	je     0x40ce4f
  40cdf5:	test   esi,esi
  40cdf7:	je     0x40ce4f
  40cdf9:	mov    eax,ds:0x411010
  40cdfe:	cmp    eax,0x411010
  40ce03:	je     0x40ce4f
  40ce05:	cmp    BYTE PTR [eax+0x19],0x1
  40ce09:	jb     0x40ce4f
  40ce0b:	test   BYTE PTR [eax+0x1c],0x1
  40ce0f:	je     0x40ce4f
  40ce11:	push   esi
  40ce12:	push   DWORD PTR [eax+0x14]
  40ce15:	mov    edx,0x4026b4
  40ce1a:	push   DWORD PTR [eax+0x10]
  40ce1d:	push   0x1f
  40ce1f:	pop    ecx
  40ce20:	call   0x402af8
  40ce25:	jmp    0x40ce4f
  40ce27:	push   0x57
  40ce29:	pop    esi
  40ce2a:	mov    eax,ds:0x411010
  40ce2f:	cmp    eax,0x411010
  40ce34:	je     0x40ce4f
  40ce36:	test   BYTE PTR [eax+0x1c],0x1
  40ce3a:	je     0x40ce4f
  40ce3c:	push   DWORD PTR [eax+0x14]
  40ce3f:	push   DWORD PTR [eax+0x10]
  40ce42:	push   0x1d
  40ce44:	mov    edx,0x4026b4
  40ce49:	pop    ecx
  40ce4a:	call   0x402ad5
  40ce4f:	mov    edx,DWORD PTR [esp+0x14]
  40ce53:	mov    ecx,DWORD PTR [ebp+0x8]
  40ce56:	call   0x402cf9
  40ce5b:	push   edi
  40ce5c:	push   esi
  40ce5d:	push   0x6
  40ce5f:	mov    edx,ebx
  40ce61:	pop    ecx
  40ce62:	call   0x406502
  40ce67:	pop    edi
  40ce68:	mov    eax,esi
  40ce6a:	pop    esi
  40ce6b:	pop    ebx
  40ce6c:	mov    esp,ebp
  40ce6e:	pop    ebp
  40ce6f:	ret    0x10
  40ce72:	int3   
  40ce73:	int3   
  40ce74:	int3   
  40ce75:	int3   
  40ce76:	int3   
  40ce77:	int3   
  40ce78:	int3   
  40ce79:	int3   
  40ce7a:	int3   
  40ce7b:	int3   
  40ce7c:	int3   
  40ce7d:	int3   
  40ce7e:	int3   
  40ce7f:	int3   
  40ce80:	mov    edi,edi
  40ce82:	push   ebp
  40ce83:	mov    ebp,esp
  40ce85:	and    esp,0xfffffff8
  40ce88:	sub    esp,0x24
  40ce8b:	mov    eax,ds:0x411004
  40ce90:	xor    eax,esp
  40ce92:	mov    DWORD PTR [esp+0x20],eax
  40ce96:	push   ebx
  40ce97:	xor    ebx,ebx
  40ce99:	mov    edx,0x4025bc
  40ce9e:	push   esi
  40ce9f:	push   edi
  40cea0:	mov    edi,DWORD PTR [ebp+0x8]
  40cea3:	push   ebx
  40cea4:	push   ebx
  40cea5:	push   0x4
  40cea7:	pop    ecx
  40cea8:	mov    DWORD PTR [esp+0x1c],ebx
  40ceac:	mov    DWORD PTR [esp+0x18],ebx
  40ceb0:	mov    DWORD PTR [esp+0x28],ebx
  40ceb4:	mov    DWORD PTR [esp+0x2c],ebx
  40ceb8:	mov    DWORD PTR [esp+0x30],ebx
  40cebc:	mov    DWORD PTR [esp+0x20],ebx
  40cec0:	mov    DWORD PTR [esp+0x24],ebx
  40cec4:	call   0x406502
  40cec9:	lea    eax,[esp+0x14]
  40cecd:	xor    edx,edx
  40cecf:	push   eax
  40ced0:	lea    eax,[esp+0x14]
  40ced4:	mov    ecx,edi
  40ced6:	push   eax
  40ced7:	push   ebx
  40ced8:	call   0x402bf0
  40cedd:	mov    esi,eax
  40cedf:	test   esi,esi
  40cee1:	jne    0x40cf97
  40cee7:	mov    ecx,DWORD PTR [esp+0x10]
  40ceeb:	test   ecx,ecx
  40ceed:	jne    0x40cf21
  40ceef:	push   0x15
  40cef1:	pop    esi
  40cef2:	mov    eax,ds:0x411010
  40cef7:	cmp    eax,0x411010
  40cefc:	je     0x40cf97
  40cf02:	test   BYTE PTR [eax+0x1c],0x1
  40cf06:	je     0x40cf97
  40cf0c:	push   DWORD PTR [eax+0x14]
  40cf0f:	mov    edx,0x4026b4
  40cf14:	push   DWORD PTR [eax+0x10]
  40cf17:	push   0x20
  40cf19:	pop    ecx
  40cf1a:	call   0x402ad5
  40cf1f:	jmp    0x40cf97
  40cf21:	mov    eax,DWORD PTR [ebp+0xc]
  40cf24:	lea    edx,[esp+0x10]
  40cf28:	mov    DWORD PTR [esp+0x24],eax
  40cf2c:	xor    eax,eax
  40cf2e:	inc    eax
  40cf2f:	mov    DWORD PTR [esp+0x10],ebx
  40cf33:	mov    DWORD PTR [esp+0x28],eax
  40cf37:	mov    DWORD PTR [esp+0x18],eax
  40cf3b:	lea    eax,[esp+0x20]
  40cf3f:	mov    DWORD PTR [esp+0x1c],eax
  40cf43:	call   0x40f246
  40cf48:	mov    esi,eax
  40cf4a:	test   esi,esi
  40cf4c:	jne    0x40cf5e
  40cf4e:	lea    eax,[esp+0x18]
  40cf52:	push   eax
  40cf53:	push   DWORD PTR [esp+0x14]
  40cf57:	call   0x40f91d
  40cf5c:	mov    esi,eax
  40cf5e:	mov    ecx,DWORD PTR [esp+0x10]
  40cf62:	call   0x40ecc9
  40cf67:	test   esi,esi
  40cf69:	je     0x40cf97
  40cf6b:	mov    eax,ds:0x411010
  40cf70:	cmp    eax,0x411010
  40cf75:	je     0x40cf97
  40cf77:	cmp    BYTE PTR [eax+0x19],0x1
  40cf7b:	jb     0x40cf97
  40cf7d:	test   BYTE PTR [eax+0x1c],0x1
  40cf81:	je     0x40cf97
  40cf83:	push   esi
  40cf84:	push   DWORD PTR [eax+0x14]
  40cf87:	mov    edx,0x4026b4
  40cf8c:	push   DWORD PTR [eax+0x10]
  40cf8f:	push   0x21
  40cf91:	pop    ecx
  40cf92:	call   0x402af8
  40cf97:	mov    edx,DWORD PTR [esp+0x14]
  40cf9b:	mov    ecx,edi
  40cf9d:	call   0x402cf9
  40cfa2:	push   ebx
  40cfa3:	push   esi
  40cfa4:	push   0x6
  40cfa6:	mov    edx,0x4025bc
  40cfab:	pop    ecx
  40cfac:	call   0x406502
  40cfb1:	mov    ecx,DWORD PTR [esp+0x2c]
  40cfb5:	mov    eax,esi
  40cfb7:	pop    edi
  40cfb8:	pop    esi
  40cfb9:	pop    ebx
  40cfba:	xor    ecx,esp
  40cfbc:	call   0x4101d0
  40cfc1:	mov    esp,ebp
  40cfc3:	pop    ebp
  40cfc4:	ret    0x8
  40cfc7:	int3   
  40cfc8:	int3   
  40cfc9:	int3   
  40cfca:	int3   
  40cfcb:	int3   
  40cfcc:	int3   
  40cfcd:	int3   
  40cfce:	int3   
  40cfcf:	int3   
  40cfd0:	mov    edi,edi
  40cfd2:	push   ebp
  40cfd3:	mov    ebp,esp
  40cfd5:	and    esp,0xfffffff8
  40cfd8:	sub    esp,0x24
  40cfdb:	mov    eax,ds:0x411004
  40cfe0:	xor    eax,esp
  40cfe2:	mov    DWORD PTR [esp+0x20],eax
  40cfe6:	push   ebx
  40cfe7:	xor    ebx,ebx
  40cfe9:	mov    edx,0x4025d0
  40cfee:	push   esi
  40cfef:	push   edi
  40cff0:	mov    edi,DWORD PTR [ebp+0x8]
  40cff3:	push   ebx
  40cff4:	push   ebx
  40cff5:	push   0x4
  40cff7:	pop    ecx
  40cff8:	mov    DWORD PTR [esp+0x1c],ebx
  40cffc:	mov    DWORD PTR [esp+0x18],ebx
  40d000:	mov    DWORD PTR [esp+0x28],ebx
  40d004:	mov    DWORD PTR [esp+0x2c],ebx
  40d008:	mov    DWORD PTR [esp+0x30],ebx
  40d00c:	mov    DWORD PTR [esp+0x20],ebx
  40d010:	mov    DWORD PTR [esp+0x24],ebx
  40d014:	call   0x406502
  40d019:	lea    eax,[esp+0x14]
  40d01d:	xor    edx,edx
  40d01f:	push   eax
  40d020:	lea    eax,[esp+0x14]
  40d024:	mov    ecx,edi
  40d026:	push   eax
  40d027:	push   ebx
  40d028:	call   0x402bf0
  40d02d:	mov    esi,eax
  40d02f:	test   esi,esi
  40d031:	jne    0x40d0ec
  40d037:	mov    ecx,DWORD PTR [esp+0x10]
  40d03b:	test   ecx,ecx
  40d03d:	jne    0x40d071
  40d03f:	push   0x15
  40d041:	pop    esi
  40d042:	mov    eax,ds:0x411010
  40d047:	cmp    eax,0x411010
  40d04c:	je     0x40d0ec
  40d052:	test   BYTE PTR [eax+0x1c],0x1
  40d056:	je     0x40d0ec
  40d05c:	push   DWORD PTR [eax+0x14]
  40d05f:	mov    edx,0x4026b4
  40d064:	push   DWORD PTR [eax+0x10]
  40d067:	push   0x22
  40d069:	pop    ecx
  40d06a:	call   0x402ad5
  40d06f:	jmp    0x40d0ec
  40d071:	mov    eax,DWORD PTR [ebp+0xc]
  40d074:	lea    edx,[esp+0x10]
  40d078:	mov    DWORD PTR [esp+0x24],eax
  40d07c:	xor    eax,eax
  40d07e:	inc    eax
  40d07f:	mov    DWORD PTR [esp+0x10],ebx
  40d083:	mov    DWORD PTR [esp+0x28],eax
  40d087:	mov    DWORD PTR [esp+0x18],eax
  40d08b:	lea    eax,[esp+0x20]
  40d08f:	mov    DWORD PTR [esp+0x1c],eax
  40d093:	call   0x40f246
  40d098:	mov    esi,eax
  40d09a:	test   esi,esi
  40d09c:	jne    0x40d0b3
  40d09e:	lea    eax,[esp+0x18]
  40d0a2:	mov    edx,0x12c1dc
  40d0a7:	push   eax
  40d0a8:	push   DWORD PTR [esp+0x14]
  40d0ac:	call   0x40fbd8
  40d0b1:	mov    esi,eax
  40d0b3:	mov    ecx,DWORD PTR [esp+0x10]
  40d0b7:	call   0x40ecc9
  40d0bc:	test   esi,esi
  40d0be:	je     0x40d0ec
  40d0c0:	mov    eax,ds:0x411010
  40d0c5:	cmp    eax,0x411010
  40d0ca:	je     0x40d0ec
  40d0cc:	cmp    BYTE PTR [eax+0x19],0x1
  40d0d0:	jb     0x40d0ec
  40d0d2:	test   BYTE PTR [eax+0x1c],0x1
  40d0d6:	je     0x40d0ec
  40d0d8:	push   esi
  40d0d9:	push   DWORD PTR [eax+0x14]
  40d0dc:	mov    edx,0x4026b4
  40d0e1:	push   DWORD PTR [eax+0x10]
  40d0e4:	push   0x23
  40d0e6:	pop    ecx
  40d0e7:	call   0x402af8
  40d0ec:	mov    edx,DWORD PTR [esp+0x14]
  40d0f0:	mov    ecx,edi
  40d0f2:	call   0x402cf9
  40d0f7:	push   ebx
  40d0f8:	push   esi
  40d0f9:	push   0x6
  40d0fb:	mov    edx,0x4025d0
  40d100:	pop    ecx
  40d101:	call   0x406502
  40d106:	mov    ecx,DWORD PTR [esp+0x2c]
  40d10a:	mov    eax,esi
  40d10c:	pop    edi
  40d10d:	pop    esi
  40d10e:	pop    ebx
  40d10f:	xor    ecx,esp
  40d111:	call   0x4101d0
  40d116:	mov    esp,ebp
  40d118:	pop    ebp
  40d119:	ret    0x8
  40d11c:	int3   
  40d11d:	int3   
  40d11e:	int3   
  40d11f:	int3   
  40d120:	int3   
  40d121:	int3   
  40d122:	int3   
  40d123:	int3   
  40d124:	int3   
  40d125:	int3   
  40d126:	int3   
  40d127:	int3   
  40d128:	int3   
  40d129:	int3   
  40d12a:	int3   
  40d12b:	int3   
  40d12c:	int3   
  40d12d:	int3   
  40d12e:	int3   
  40d12f:	int3   
  40d130:	mov    edi,edi
  40d132:	push   ebp
  40d133:	mov    ebp,esp
  40d135:	and    esp,0xfffffff8
  40d138:	sub    esp,0x24
  40d13b:	mov    eax,ds:0x411004
  40d140:	xor    eax,esp
  40d142:	mov    DWORD PTR [esp+0x20],eax
  40d146:	push   ebx
  40d147:	xor    ebx,ebx
  40d149:	mov    edx,0x4025ec
  40d14e:	push   esi
  40d14f:	push   edi
  40d150:	mov    edi,DWORD PTR [ebp+0x8]
  40d153:	push   ebx
  40d154:	push   ebx
  40d155:	push   0x4
  40d157:	pop    ecx
  40d158:	mov    DWORD PTR [esp+0x1c],ebx
  40d15c:	mov    DWORD PTR [esp+0x18],ebx
  40d160:	mov    DWORD PTR [esp+0x28],ebx
  40d164:	mov    DWORD PTR [esp+0x2c],ebx
  40d168:	mov    DWORD PTR [esp+0x30],ebx
  40d16c:	mov    DWORD PTR [esp+0x20],ebx
  40d170:	mov    DWORD PTR [esp+0x24],ebx
  40d174:	call   0x406502
  40d179:	lea    eax,[esp+0x14]
  40d17d:	xor    edx,edx
  40d17f:	push   eax
  40d180:	lea    eax,[esp+0x14]
  40d184:	mov    ecx,edi
  40d186:	push   eax
  40d187:	push   ebx
  40d188:	call   0x402bf0
  40d18d:	mov    esi,eax
  40d18f:	test   esi,esi
  40d191:	jne    0x40d24c
  40d197:	mov    ecx,DWORD PTR [esp+0x10]
  40d19b:	test   ecx,ecx
  40d19d:	jne    0x40d1d1
  40d19f:	push   0x15
  40d1a1:	pop    esi
  40d1a2:	mov    eax,ds:0x411010
  40d1a7:	cmp    eax,0x411010
  40d1ac:	je     0x40d24c
  40d1b2:	test   BYTE PTR [eax+0x1c],0x1
  40d1b6:	je     0x40d24c
  40d1bc:	push   DWORD PTR [eax+0x14]
  40d1bf:	mov    edx,0x4026b4
  40d1c4:	push   DWORD PTR [eax+0x10]
  40d1c7:	push   0x24
  40d1c9:	pop    ecx
  40d1ca:	call   0x402ad5
  40d1cf:	jmp    0x40d24c
  40d1d1:	mov    eax,DWORD PTR [ebp+0xc]
  40d1d4:	lea    edx,[esp+0x10]
  40d1d8:	mov    DWORD PTR [esp+0x24],eax
  40d1dc:	xor    eax,eax
  40d1de:	inc    eax
  40d1df:	mov    DWORD PTR [esp+0x10],ebx
  40d1e3:	mov    DWORD PTR [esp+0x28],eax
  40d1e7:	mov    DWORD PTR [esp+0x18],eax
  40d1eb:	lea    eax,[esp+0x20]
  40d1ef:	mov    DWORD PTR [esp+0x1c],eax
  40d1f3:	call   0x40f246
  40d1f8:	mov    esi,eax
  40d1fa:	test   esi,esi
  40d1fc:	jne    0x40d213
  40d1fe:	lea    eax,[esp+0x18]
  40d202:	mov    edx,0x12c1e0
  40d207:	push   eax
  40d208:	push   DWORD PTR [esp+0x14]
  40d20c:	call   0x40fbd8
  40d211:	mov    esi,eax
  40d213:	mov    ecx,DWORD PTR [esp+0x10]
  40d217:	call   0x40ecc9
  40d21c:	test   esi,esi
  40d21e:	je     0x40d24c
  40d220:	mov    eax,ds:0x411010
  40d225:	cmp    eax,0x411010
  40d22a:	je     0x40d24c
  40d22c:	cmp    BYTE PTR [eax+0x19],0x1
  40d230:	jb     0x40d24c
  40d232:	test   BYTE PTR [eax+0x1c],0x1
  40d236:	je     0x40d24c
  40d238:	push   esi
  40d239:	push   DWORD PTR [eax+0x14]
  40d23c:	mov    edx,0x4026b4
  40d241:	push   DWORD PTR [eax+0x10]
  40d244:	push   0x25
  40d246:	pop    ecx
  40d247:	call   0x402af8
  40d24c:	mov    edx,DWORD PTR [esp+0x14]
  40d250:	mov    ecx,edi
  40d252:	call   0x402cf9
  40d257:	push   ebx
  40d258:	push   esi
  40d259:	push   0x6
  40d25b:	mov    edx,0x4025ec
  40d260:	pop    ecx
  40d261:	call   0x406502
  40d266:	mov    ecx,DWORD PTR [esp+0x2c]
  40d26a:	mov    eax,esi
  40d26c:	pop    edi
  40d26d:	pop    esi
  40d26e:	pop    ebx
  40d26f:	xor    ecx,esp
  40d271:	call   0x4101d0
  40d276:	mov    esp,ebp
  40d278:	pop    ebp
  40d279:	ret    0x8
  40d27c:	int3   
  40d27d:	int3   
  40d27e:	int3   
  40d27f:	int3   
  40d280:	int3   
  40d281:	int3   
  40d282:	int3   
  40d283:	int3   
  40d284:	int3   
  40d285:	int3   
  40d286:	int3   
  40d287:	int3   
  40d288:	int3   
  40d289:	int3   
  40d28a:	int3   
  40d28b:	int3   
  40d28c:	int3   
  40d28d:	int3   
  40d28e:	int3   
  40d28f:	int3   
  40d290:	mov    edi,edi
  40d292:	push   ebp
  40d293:	mov    ebp,esp
  40d295:	and    esp,0xfffffff8
  40d298:	sub    esp,0x2c
  40d29b:	push   ebx
  40d29c:	push   esi
  40d29d:	push   edi
  40d29e:	push   0x6
  40d2a0:	xor    ebx,ebx
  40d2a2:	lea    edi,[esp+0x24]
  40d2a6:	pop    ecx
  40d2a7:	push   ebx
  40d2a8:	push   ebx
  40d2a9:	xor    eax,eax
  40d2ab:	mov    DWORD PTR [esp+0x24],ebx
  40d2af:	rep stos DWORD PTR es:[edi],eax
  40d2b1:	push   0x4
  40d2b3:	mov    edx,0x402608
  40d2b8:	mov    DWORD PTR [esp+0x1c],ebx
  40d2bc:	pop    ecx
  40d2bd:	mov    DWORD PTR [esp+0x14],ebx
  40d2c1:	mov    DWORD PTR [esp+0x1c],ebx
  40d2c5:	mov    DWORD PTR [esp+0x20],ebx
  40d2c9:	call   0x406502
  40d2ce:	mov    edi,DWORD PTR [ebp+0xc]
  40d2d1:	test   edi,edi
  40d2d3:	jne    0x40d30a
  40d2d5:	push   0x57
  40d2d7:	pop    esi
  40d2d8:	mov    eax,ds:0x411010
  40d2dd:	cmp    eax,0x411010
  40d2e2:	je     0x40d3ea
  40d2e8:	test   BYTE PTR [eax+0x1c],0x1
  40d2ec:	je     0x40d3ea
  40d2f2:	push   DWORD PTR [eax+0x14]
  40d2f5:	push   DWORD PTR [eax+0x10]
  40d2f8:	push   0x26
  40d2fa:	mov    edx,0x4026b4
  40d2ff:	pop    ecx
  40d300:	call   0x402ad5
  40d305:	jmp    0x40d3ea
  40d30a:	mov    ecx,DWORD PTR [ebp+0x8]
  40d30d:	lea    eax,[esp+0x10]
  40d311:	push   eax
  40d312:	lea    eax,[esp+0x10]
  40d316:	xor    edx,edx
  40d318:	push   eax
  40d319:	push   ebx
  40d31a:	call   0x402bf0
  40d31f:	mov    esi,eax
  40d321:	test   esi,esi
  40d323:	jne    0x40d3ea
  40d329:	mov    ecx,DWORD PTR [esp+0xc]
  40d32d:	test   ecx,ecx
  40d32f:	jne    0x40d358
  40d331:	push   0x15
  40d333:	pop    esi
  40d334:	mov    eax,ds:0x411010
  40d339:	cmp    eax,0x411010
  40d33e:	je     0x40d3ea
  40d344:	test   BYTE PTR [eax+0x1c],0x1
  40d348:	je     0x40d3ea
  40d34e:	push   DWORD PTR [eax+0x14]
  40d351:	push   DWORD PTR [eax+0x10]
  40d354:	push   0x27
  40d356:	jmp    0x40d2fa
  40d358:	lea    eax,[edi+0x16]
  40d35b:	mov    DWORD PTR [esp+0x30],0x1
  40d363:	mov    DWORD PTR [esp+0x18],eax
  40d367:	lea    edx,[esp+0xc]
  40d36b:	movzx  eax,WORD PTR [edi+0x14]
  40d36f:	mov    DWORD PTR [esp+0x14],eax
  40d373:	movzx  eax,BYTE PTR [edi+0x13]
  40d377:	mov    DWORD PTR [esp+0x1c],eax
  40d37b:	mov    eax,DWORD PTR [edi+0x8]
  40d37e:	mov    DWORD PTR [esp+0x24],eax
  40d382:	lea    eax,[esp+0x14]
  40d386:	mov    DWORD PTR [esp+0x34],eax
  40d38a:	mov    eax,DWORD PTR [edi+0x4]
  40d38d:	inc    eax
  40d38e:	mov    DWORD PTR [esp+0xc],ebx
  40d392:	mov    DWORD PTR [esp+0x20],eax
  40d396:	call   0x40f246
  40d39b:	mov    esi,eax
  40d39d:	test   esi,esi
  40d39f:	jne    0x40d3b1
  40d3a1:	lea    eax,[esp+0x1c]
  40d3a5:	push   eax
  40d3a6:	push   DWORD PTR [esp+0x10]
  40d3aa:	call   0x40f9e9
  40d3af:	mov    esi,eax
  40d3b1:	mov    ecx,DWORD PTR [esp+0xc]
  40d3b5:	call   0x40ecc9
  40d3ba:	test   esi,esi
  40d3bc:	je     0x40d3ea
  40d3be:	mov    eax,ds:0x411010
  40d3c3:	cmp    eax,0x411010
  40d3c8:	je     0x40d3ea
  40d3ca:	cmp    BYTE PTR [eax+0x19],0x1
  40d3ce:	jb     0x40d3ea
  40d3d0:	test   BYTE PTR [eax+0x1c],0x1
  40d3d4:	je     0x40d3ea
  40d3d6:	push   esi
  40d3d7:	push   DWORD PTR [eax+0x14]
  40d3da:	mov    edx,0x4026b4
  40d3df:	push   DWORD PTR [eax+0x10]
  40d3e2:	push   0x28
  40d3e4:	pop    ecx
  40d3e5:	call   0x402af8
  40d3ea:	mov    edx,DWORD PTR [esp+0x10]
  40d3ee:	mov    ecx,DWORD PTR [ebp+0x8]
  40d3f1:	call   0x402cf9
  40d3f6:	push   ebx
  40d3f7:	push   esi
  40d3f8:	push   0x6
  40d3fa:	mov    edx,0x402608
  40d3ff:	pop    ecx
  40d400:	call   0x406502
  40d405:	pop    edi
  40d406:	mov    eax,esi
  40d408:	pop    esi
  40d409:	pop    ebx
  40d40a:	mov    esp,ebp
  40d40c:	pop    ebp
  40d40d:	ret    0xc
  40d410:	int3   
  40d411:	int3   
  40d412:	int3   
  40d413:	int3   
  40d414:	int3   
  40d415:	int3   
  40d416:	int3   
  40d417:	int3   
  40d418:	int3   
  40d419:	int3   
  40d41a:	int3   
  40d41b:	int3   
  40d41c:	int3   
  40d41d:	int3   
  40d41e:	int3   
  40d41f:	int3   
  40d420:	mov    edi,edi
  40d422:	push   ebp
  40d423:	mov    ebp,esp
  40d425:	and    esp,0xfffffff8
  40d428:	sub    esp,0xc
  40d42b:	push   ebx
  40d42c:	push   esi
  40d42d:	push   edi
  40d42e:	xor    edi,edi
  40d430:	mov    ebx,0x402618
  40d435:	push   edi
  40d436:	push   edi
  40d437:	push   0x4
  40d439:	mov    edx,ebx
  40d43b:	mov    DWORD PTR [esp+0x20],edi
  40d43f:	pop    ecx
  40d440:	mov    DWORD PTR [esp+0x18],edi
  40d444:	call   0x406502
  40d449:	cmp    DWORD PTR [ebp+0xc],0x3
  40d44d:	jbe    0x40d484
  40d44f:	push   0x57
  40d451:	pop    esi
  40d452:	mov    eax,ds:0x411010
  40d457:	cmp    eax,0x411010
  40d45c:	je     0x40d525
  40d462:	test   BYTE PTR [eax+0x1c],0x1
  40d466:	je     0x40d525
  40d46c:	push   DWORD PTR [eax+0x14]
  40d46f:	push   DWORD PTR [eax+0x10]
  40d472:	push   0x29
  40d474:	mov    edx,0x4026b4
  40d479:	pop    ecx
  40d47a:	call   0x402ad5
  40d47f:	jmp    0x40d525
  40d484:	mov    ecx,DWORD PTR [ebp+0x8]
  40d487:	lea    eax,[esp+0x14]
  40d48b:	push   eax
  40d48c:	lea    eax,[esp+0x14]
  40d490:	xor    edx,edx
  40d492:	push   eax
  40d493:	push   edi
  40d494:	call   0x402bf0
  40d499:	mov    esi,eax
  40d49b:	test   esi,esi
  40d49d:	jne    0x40d525
  40d4a3:	mov    ecx,DWORD PTR [esp+0x10]
  40d4a7:	test   ecx,ecx
  40d4a9:	jne    0x40d4ca
  40d4ab:	push   0x15
  40d4ad:	pop    esi
  40d4ae:	mov    eax,ds:0x411010
  40d4b3:	cmp    eax,0x411010
  40d4b8:	je     0x40d525
  40d4ba:	test   BYTE PTR [eax+0x1c],0x1
  40d4be:	je     0x40d525
  40d4c0:	push   DWORD PTR [eax+0x14]
  40d4c3:	push   DWORD PTR [eax+0x10]
  40d4c6:	push   0x2a
  40d4c8:	jmp    0x40d474
  40d4ca:	lea    edx,[esp+0x10]
  40d4ce:	mov    DWORD PTR [esp+0x10],edi
  40d4d2:	call   0x40f246
  40d4d7:	mov    esi,eax
  40d4d9:	test   esi,esi
  40d4db:	jne    0x40d4ec
  40d4dd:	lea    eax,[ebp+0xc]
  40d4e0:	push   eax
  40d4e1:	push   DWORD PTR [esp+0x14]
  40d4e5:	call   0x40f80b
  40d4ea:	mov    esi,eax
  40d4ec:	mov    ecx,DWORD PTR [esp+0x10]
  40d4f0:	call   0x40ecc9
  40d4f5:	test   esi,esi
  40d4f7:	je     0x40d525
  40d4f9:	mov    eax,ds:0x411010
  40d4fe:	cmp    eax,0x411010
  40d503:	je     0x40d525
  40d505:	cmp    BYTE PTR [eax+0x19],0x1
  40d509:	jb     0x40d525
  40d50b:	test   BYTE PTR [eax+0x1c],0x1
  40d50f:	je     0x40d525
  40d511:	push   esi
  40d512:	push   DWORD PTR [eax+0x14]
  40d515:	mov    edx,0x4026b4
  40d51a:	push   DWORD PTR [eax+0x10]
  40d51d:	push   0x2b
  40d51f:	pop    ecx
  40d520:	call   0x402af8
  40d525:	mov    edx,DWORD PTR [esp+0x14]
  40d529:	mov    ecx,DWORD PTR [ebp+0x8]
  40d52c:	call   0x402cf9
  40d531:	push   edi
  40d532:	push   esi
  40d533:	push   0x6
  40d535:	mov    edx,ebx
  40d537:	pop    ecx
  40d538:	call   0x406502
  40d53d:	pop    edi
  40d53e:	mov    eax,esi
  40d540:	pop    esi
  40d541:	pop    ebx
  40d542:	mov    esp,ebp
  40d544:	pop    ebp
  40d545:	ret    0x8
  40d548:	int3   
  40d549:	int3   
  40d54a:	int3   
  40d54b:	int3   
  40d54c:	int3   
  40d54d:	int3   
  40d54e:	int3   
  40d54f:	int3   
  40d550:	mov    edi,edi
  40d552:	push   ebp
  40d553:	mov    ebp,esp
  40d555:	and    esp,0xfffffff8
  40d558:	sub    esp,0xc
  40d55b:	push   ebx
  40d55c:	push   esi
  40d55d:	push   edi
  40d55e:	xor    edi,edi
  40d560:	mov    ebx,0x402628
  40d565:	push   edi
  40d566:	push   edi
  40d567:	push   0x4
  40d569:	mov    edx,ebx
  40d56b:	mov    DWORD PTR [esp+0x20],edi
  40d56f:	pop    ecx
  40d570:	mov    DWORD PTR [esp+0x18],edi
  40d574:	call   0x406502
  40d579:	mov    ecx,DWORD PTR [ebp+0x8]
  40d57c:	lea    eax,[esp+0x14]
  40d580:	push   eax
  40d581:	lea    eax,[esp+0x14]
  40d585:	xor    edx,edx
  40d587:	push   eax
  40d588:	push   edi
  40d589:	call   0x402bf0
  40d58e:	mov    esi,eax
  40d590:	test   esi,esi
  40d592:	jne    0x40d625
  40d598:	mov    ecx,DWORD PTR [esp+0x10]
  40d59c:	test   ecx,ecx
  40d59e:	jne    0x40d5ca
  40d5a0:	push   0x15
  40d5a2:	pop    esi
  40d5a3:	mov    eax,ds:0x411010
  40d5a8:	cmp    eax,0x411010
  40d5ad:	je     0x40d625
  40d5af:	test   BYTE PTR [eax+0x1c],0x1
  40d5b3:	je     0x40d625
  40d5b5:	push   DWORD PTR [eax+0x14]
  40d5b8:	mov    edx,0x4026b4
  40d5bd:	push   DWORD PTR [eax+0x10]
  40d5c0:	push   0x2c
  40d5c2:	pop    ecx
  40d5c3:	call   0x402ad5
  40d5c8:	jmp    0x40d625
  40d5ca:	lea    edx,[esp+0x10]
  40d5ce:	mov    DWORD PTR [esp+0x10],edi
  40d5d2:	call   0x40f246
  40d5d7:	mov    esi,eax
  40d5d9:	test   esi,esi
  40d5db:	jne    0x40d5ec
  40d5dd:	lea    eax,[ebp+0xc]
  40d5e0:	push   eax
  40d5e1:	push   DWORD PTR [esp+0x14]
  40d5e5:	call   0x40f894
  40d5ea:	mov    esi,eax
  40d5ec:	mov    ecx,DWORD PTR [esp+0x10]
  40d5f0:	call   0x40ecc9
  40d5f5:	test   esi,esi
  40d5f7:	je     0x40d625
  40d5f9:	mov    eax,ds:0x411010
  40d5fe:	cmp    eax,0x411010
  40d603:	je     0x40d625
  40d605:	cmp    BYTE PTR [eax+0x19],0x1
  40d609:	jb     0x40d625
  40d60b:	test   BYTE PTR [eax+0x1c],0x1
  40d60f:	je     0x40d625
  40d611:	push   esi
  40d612:	push   DWORD PTR [eax+0x14]
  40d615:	mov    edx,0x4026b4
  40d61a:	push   DWORD PTR [eax+0x10]
  40d61d:	push   0x2d
  40d61f:	pop    ecx
  40d620:	call   0x402af8
  40d625:	mov    edx,DWORD PTR [esp+0x14]
  40d629:	mov    ecx,DWORD PTR [ebp+0x8]
  40d62c:	call   0x402cf9
  40d631:	push   edi
  40d632:	push   esi
  40d633:	push   0x6
  40d635:	mov    edx,ebx
  40d637:	pop    ecx
  40d638:	call   0x406502
  40d63d:	pop    edi
  40d63e:	mov    eax,esi
  40d640:	pop    esi
  40d641:	pop    ebx
  40d642:	mov    esp,ebp
  40d644:	pop    ebp
  40d645:	ret    0x8
  40d648:	int3   
  40d649:	int3   
  40d64a:	int3   
  40d64b:	int3   
  40d64c:	int3   
  40d64d:	int3   
  40d64e:	int3   
  40d64f:	int3   
  40d650:	mov    edi,edi
  40d652:	push   ebp
  40d653:	mov    ebp,esp
  40d655:	and    esp,0xfffffff8
  40d658:	sub    esp,0x34
  40d65b:	push   ebx
  40d65c:	push   esi
  40d65d:	push   edi
  40d65e:	push   0x7
  40d660:	xor    ebx,ebx
  40d662:	lea    edi,[esp+0x28]
  40d666:	pop    ecx
  40d667:	push   ebx
  40d668:	push   ebx
  40d669:	xor    eax,eax
  40d66b:	mov    DWORD PTR [esp+0x28],ebx
  40d66f:	rep stos DWORD PTR es:[edi],eax
  40d671:	push   0x4
  40d673:	mov    edx,0x402640
  40d678:	mov    DWORD PTR [esp+0x20],ebx
  40d67c:	pop    ecx
  40d67d:	mov    DWORD PTR [esp+0x18],ebx
  40d681:	mov    DWORD PTR [esp+0x20],ebx
  40d685:	mov    DWORD PTR [esp+0x24],ebx
  40d689:	call   0x406502
  40d68e:	mov    edi,DWORD PTR [ebp+0xc]
  40d691:	test   edi,edi
  40d693:	jne    0x40d6ca
  40d695:	push   0x57
  40d697:	pop    esi
  40d698:	mov    eax,ds:0x411010
  40d69d:	cmp    eax,0x411010
  40d6a2:	je     0x40d7b7
  40d6a8:	test   BYTE PTR [eax+0x1c],0x1
  40d6ac:	je     0x40d7b7
  40d6b2:	push   DWORD PTR [eax+0x14]
  40d6b5:	push   DWORD PTR [eax+0x10]
  40d6b8:	push   0x2e
  40d6ba:	mov    edx,0x4026b4
  40d6bf:	pop    ecx
  40d6c0:	call   0x402ad5
  40d6c5:	jmp    0x40d7b7
  40d6ca:	mov    ecx,DWORD PTR [ebp+0x8]
  40d6cd:	lea    eax,[esp+0x14]
  40d6d1:	push   eax
  40d6d2:	lea    eax,[esp+0x14]
  40d6d6:	xor    edx,edx
  40d6d8:	push   eax
  40d6d9:	push   ebx
  40d6da:	call   0x402bf0
  40d6df:	mov    esi,eax
  40d6e1:	test   esi,esi
  40d6e3:	jne    0x40d7b7
  40d6e9:	mov    ecx,DWORD PTR [esp+0x10]
  40d6ed:	test   ecx,ecx
  40d6ef:	jne    0x40d718
  40d6f1:	push   0x15
  40d6f3:	pop    esi
  40d6f4:	mov    eax,ds:0x411010
  40d6f9:	cmp    eax,0x411010
  40d6fe:	je     0x40d7b7
  40d704:	test   BYTE PTR [eax+0x1c],0x1
  40d708:	je     0x40d7b7
  40d70e:	push   DWORD PTR [eax+0x14]
  40d711:	push   DWORD PTR [eax+0x10]
  40d714:	push   0x2f
  40d716:	jmp    0x40d6ba
  40d718:	lea    eax,[edi+0x14]
  40d71b:	mov    DWORD PTR [esp+0x38],0x1
  40d723:	mov    DWORD PTR [esp+0x1c],eax
  40d727:	lea    edx,[esp+0x10]
  40d72b:	movzx  eax,WORD PTR [edi+0x12]
  40d72f:	mov    DWORD PTR [esp+0x18],eax
  40d733:	mov    eax,DWORD PTR [edi]
  40d735:	mov    DWORD PTR [esp+0x24],eax
  40d739:	mov    ax,WORD PTR [edi+0x4]
  40d73d:	mov    WORD PTR [esp+0x28],ax
  40d742:	mov    eax,DWORD PTR [edi+0x8]
  40d745:	mov    DWORD PTR [esp+0x2c],eax
  40d749:	movzx  eax,BYTE PTR [edi+0x11]
  40d74d:	mov    DWORD PTR [esp+0x34],eax
  40d751:	lea    eax,[esp+0x18]
  40d755:	mov    DWORD PTR [esp+0x3c],eax
  40d759:	mov    eax,DWORD PTR [edi+0xc]
  40d75c:	mov    DWORD PTR [esp+0x30],eax
  40d760:	mov    DWORD PTR [esp+0x10],ebx
  40d764:	call   0x40f246
  40d769:	mov    esi,eax
  40d76b:	test   esi,esi
  40d76d:	jne    0x40d77e
  40d76f:	mov    ecx,DWORD PTR [esp+0x10]
  40d773:	lea    edx,[esp+0x20]
  40d777:	call   0x40fadb
  40d77c:	mov    esi,eax
  40d77e:	mov    ecx,DWORD PTR [esp+0x10]
  40d782:	call   0x40ecc9
  40d787:	test   esi,esi
  40d789:	je     0x40d7b7
  40d78b:	mov    eax,ds:0x411010
  40d790:	cmp    eax,0x411010
  40d795:	je     0x40d7b7
  40d797:	cmp    BYTE PTR [eax+0x19],0x1
  40d79b:	jb     0x40d7b7
  40d79d:	test   BYTE PTR [eax+0x1c],0x1
  40d7a1:	je     0x40d7b7
  40d7a3:	push   esi
  40d7a4:	push   DWORD PTR [eax+0x14]
  40d7a7:	mov    edx,0x4026b4
  40d7ac:	push   DWORD PTR [eax+0x10]
  40d7af:	push   0x30
  40d7b1:	pop    ecx
  40d7b2:	call   0x402af8
  40d7b7:	mov    edx,DWORD PTR [esp+0x14]
  40d7bb:	mov    ecx,DWORD PTR [ebp+0x8]
  40d7be:	call   0x402cf9
  40d7c3:	push   ebx
  40d7c4:	push   esi
  40d7c5:	push   0x6
  40d7c7:	mov    edx,0x402640
  40d7cc:	pop    ecx
  40d7cd:	call   0x406502
  40d7d2:	pop    edi
  40d7d3:	mov    eax,esi
  40d7d5:	pop    esi
  40d7d6:	pop    ebx
  40d7d7:	mov    esp,ebp
  40d7d9:	pop    ebp
  40d7da:	ret    0x8
  40d7dd:	int3   
  40d7de:	int3   
  40d7df:	int3   
  40d7e0:	int3   
  40d7e1:	int3   
  40d7e2:	mov    edi,edi
  40d7e4:	push   ebp
  40d7e5:	mov    ebp,esp
  40d7e7:	sub    esp,0x1c
  40d7ea:	mov    eax,ds:0x411004
  40d7ef:	xor    eax,ebp
  40d7f1:	mov    DWORD PTR [ebp-0x4],eax
  40d7f4:	push   ebx
  40d7f5:	push   esi
  40d7f6:	xor    eax,eax
  40d7f8:	mov    esi,ecx
  40d7fa:	push   edi
  40d7fb:	push   eax
  40d7fc:	push   eax
  40d7fd:	push   0x9
  40d7ff:	mov    ebx,edx
  40d801:	mov    DWORD PTR [ebp-0x10],esi
  40d804:	mov    edx,0x402654
  40d809:	mov    DWORD PTR [ebp-0xc],eax
  40d80c:	pop    ecx
  40d80d:	mov    DWORD PTR [ebp-0x1c],eax
  40d810:	mov    DWORD PTR [ebp-0x18],eax
  40d813:	mov    DWORD PTR [ebp-0x14],eax
  40d816:	mov    DWORD PTR [ebp-0x8],eax
  40d819:	call   0x406502
  40d81e:	lea    edx,[ebp-0x8]
  40d821:	lea    ecx,[ebp-0x14]
  40d824:	call   0x405844
  40d829:	cmp    DWORD PTR [ebp-0x14],0x0
  40d82d:	jne    0x40d837
  40d82f:	push   0x5
  40d831:	pop    esi
  40d832:	jmp    0x40ddbf
  40d837:	lea    eax,[ebp-0x1c]
  40d83a:	xor    edx,edx
  40d83c:	push   eax
  40d83d:	push   0x0
  40d83f:	lea    eax,[ebp-0xc]
  40d842:	mov    ecx,esi
  40d844:	push   eax
  40d845:	lea    edi,[ebx+0x8]
  40d848:	call   0x402bf0
  40d84d:	mov    esi,eax
  40d84f:	test   esi,esi
  40d851:	jne    0x40ddbf
  40d857:	mov    ecx,DWORD PTR [ebx]
  40d859:	cmp    ecx,0x8
  40d85c:	ja     0x40dd96
  40d862:	jmp    DWORD PTR [ecx*4+0x40ddf6]
  40d869:	mov    eax,ds:0x411010
  40d86e:	cmp    eax,0x411010
  40d873:	je     0x40d894
  40d875:	cmp    BYTE PTR [eax+0x19],0x3
  40d879:	jb     0x40d894
  40d87b:	test   BYTE PTR [eax+0x1c],0x1
  40d87f:	je     0x40d894
  40d881:	push   DWORD PTR [eax+0x14]
  40d884:	mov    edx,0x4026b4
  40d889:	push   DWORD PTR [eax+0x10]
  40d88c:	push   0x31
  40d88e:	pop    ecx
  40d88f:	call   0x402ad5
  40d894:	push   0x0
  40d896:	push   0x0
  40d898:	mov    edx,0x40185c
  40d89d:	xor    ecx,ecx
  40d89f:	call   0x406502
  40d8a4:	mov    eax,DWORD PTR [ebp-0x8]
  40d8a7:	mov    esi,DWORD PTR [eax+0x10]
  40d8aa:	test   esi,esi
  40d8ac:	je     0x40d8bd
  40d8ae:	push   DWORD PTR [ebp-0xc]
  40d8b1:	mov    ecx,esi
  40d8b3:	call   DWORD PTR ds:0x41221c
  40d8b9:	call   esi
  40d8bb:	jmp    0x40d8c0
  40d8bd:	push   0x78
  40d8bf:	pop    eax
  40d8c0:	push   0x0
  40d8c2:	push   eax
  40d8c3:	push   0x2
  40d8c5:	mov    edx,0x40185c
  40d8ca:	pop    ecx
  40d8cb:	call   0x406502
  40d8d0:	mov    ecx,DWORD PTR [ebp-0x10]
  40d8d3:	push   0x0
  40d8d5:	push   edi
  40d8d6:	push   DWORD PTR [ebx+0x4]
  40d8d9:	push   0x3
  40d8db:	pop    edx
  40d8dc:	call   0x404d6b
  40d8e1:	mov    esi,eax
  40d8e3:	jmp    0x40ddbf
  40d8e8:	mov    ecx,DWORD PTR [ebx+0x4]
  40d8eb:	cmp    ecx,0x74
  40d8ee:	jae    0x40d91b
  40d8f0:	push   0xd
  40d8f2:	pop    esi
  40d8f3:	mov    eax,ds:0x411010
  40d8f8:	cmp    eax,0x411010
  40d8fd:	je     0x40ddbf
  40d903:	test   BYTE PTR [eax+0x1c],0x1
  40d907:	je     0x40ddbf
  40d90d:	push   ecx
  40d90e:	push   DWORD PTR [eax+0x14]
  40d911:	push   DWORD PTR [eax+0x10]
  40d914:	push   0x32
  40d916:	jmp    0x40ddb4
  40d91b:	mov    eax,ds:0x411010
  40d920:	cmp    eax,0x411010
  40d925:	je     0x40d946
  40d927:	cmp    BYTE PTR [eax+0x19],0x3
  40d92b:	jb     0x40d946
  40d92d:	test   BYTE PTR [eax+0x1c],0x1
  40d931:	je     0x40d946
  40d933:	push   DWORD PTR [eax+0x14]
  40d936:	mov    edx,0x4026b4
  40d93b:	push   DWORD PTR [eax+0x10]
  40d93e:	push   0x33
  40d940:	pop    ecx
  40d941:	call   0x402ad5
  40d946:	mov    eax,DWORD PTR [ebx+0x4]
  40d949:	lea    ecx,[ebp-0x18]
  40d94c:	push   ecx
  40d94d:	mov    ecx,DWORD PTR [ebp-0x10]
  40d950:	xor    edx,edx
  40d952:	push   edi
  40d953:	push   eax
  40d954:	inc    edx
  40d955:	lea    ebx,[eax-0x14]
  40d958:	call   0x404d6b
  40d95d:	mov    esi,eax
  40d95f:	test   esi,esi
  40d961:	jne    0x40ddbf
  40d967:	push   eax
  40d968:	push   eax
  40d969:	mov    edx,0x402664
  40d96e:	xor    ecx,ecx
  40d970:	call   0x406502
  40d975:	mov    eax,DWORD PTR [ebp-0x8]
  40d978:	mov    esi,DWORD PTR [eax+0x14]
  40d97b:	test   esi,esi
  40d97d:	je     0x40d999
  40d97f:	lea    eax,[edi+0x14]
  40d982:	mov    ecx,esi
  40d984:	push   eax
  40d985:	push   ebx
  40d986:	push   edi
  40d987:	push   DWORD PTR [ebp-0x18]
  40d98a:	push   DWORD PTR [ebp-0xc]
  40d98d:	call   DWORD PTR ds:0x41221c
  40d993:	call   esi
  40d995:	mov    esi,eax
  40d997:	jmp    0x40d99c
  40d999:	push   0x78
  40d99b:	pop    esi
  40d99c:	push   0x0
  40d99e:	push   esi
  40d99f:	push   0x2
  40d9a1:	mov    edx,0x402664
  40d9a6:	pop    ecx
  40d9a7:	call   0x406502
  40d9ac:	test   esi,esi
  40d9ae:	je     0x40ddbf
  40d9b4:	mov    eax,ds:0x411010
  40d9b9:	cmp    eax,0x411010
  40d9be:	je     0x40d9df
  40d9c0:	cmp    BYTE PTR [eax+0x19],0x3
  40d9c4:	jb     0x40d9df
  40d9c6:	test   BYTE PTR [eax+0x1c],0x1
  40d9ca:	je     0x40d9df
  40d9cc:	push   DWORD PTR [eax+0x14]
  40d9cf:	mov    edx,0x4026b4
  40d9d4:	push   DWORD PTR [eax+0x10]
  40d9d7:	push   0x34
  40d9d9:	pop    ecx
  40d9da:	call   0x402ad5
  40d9df:	push   esi
  40d9e0:	push   0x10001
  40d9e5:	push   edi
  40d9e6:	push   DWORD PTR [ebp-0x18]
  40d9e9:	push   DWORD PTR [ebp-0x10]
  40d9ec:	call   0x404570
  40d9f1:	jmp    0x40d8e1
  40d9f6:	mov    ecx,DWORD PTR [ebx+0x4]
  40d9f9:	cmp    ecx,0x14
  40d9fc:	jae    0x40da29
  40d9fe:	push   0xd
  40da00:	pop    esi
  40da01:	mov    eax,ds:0x411010
  40da06:	cmp    eax,0x411010
  40da0b:	je     0x40ddbf
  40da11:	test   BYTE PTR [eax+0x1c],0x1
  40da15:	je     0x40ddbf
  40da1b:	push   ecx
  40da1c:	push   DWORD PTR [eax+0x14]
  40da1f:	push   DWORD PTR [eax+0x10]
  40da22:	push   0x35
  40da24:	jmp    0x40ddb4
  40da29:	mov    eax,ds:0x411010
  40da2e:	cmp    eax,0x411010
  40da33:	je     0x40da54
  40da35:	cmp    BYTE PTR [eax+0x19],0x3
  40da39:	jb     0x40da54
  40da3b:	test   BYTE PTR [eax+0x1c],0x1
  40da3f:	je     0x40da54
  40da41:	push   DWORD PTR [eax+0x14]
  40da44:	mov    edx,0x4026b4
  40da49:	push   DWORD PTR [eax+0x10]
  40da4c:	push   0x36
  40da4e:	pop    ecx
  40da4f:	call   0x402ad5
  40da54:	mov    ecx,DWORD PTR [ebp-0x10]
  40da57:	xor    esi,esi
  40da59:	push   esi
  40da5a:	push   edi
  40da5b:	push   DWORD PTR [ebx+0x4]
  40da5e:	push   0x2
  40da60:	pop    edx
  40da61:	call   0x404d6b
  40da66:	push   esi
  40da67:	mov    ebx,0x40267c
  40da6c:	xor    ecx,ecx
  40da6e:	push   esi
  40da6f:	mov    edx,ebx
  40da71:	call   0x406502
  40da76:	mov    eax,DWORD PTR [ebp-0x8]
  40da79:	mov    esi,DWORD PTR [eax+0x18]
  40da7c:	test   esi,esi
  40da7e:	je     0x40da95
  40da80:	push   DWORD PTR [edi+0xc]
  40da83:	mov    ecx,esi
  40da85:	push   edi
  40da86:	push   DWORD PTR [ebp-0xc]
  40da89:	call   DWORD PTR ds:0x41221c
  40da8f:	call   esi
  40da91:	mov    esi,eax
  40da93:	jmp    0x40da98
  40da95:	push   0x78
  40da97:	pop    esi
  40da98:	mov    edx,ebx
  40da9a:	push   0x0
  40da9c:	push   esi
  40da9d:	push   0x2
  40da9f:	pop    ecx
  40daa0:	call   0x406502
  40daa5:	jmp    0x40ddbf
  40daaa:	push   0x0
  40daac:	push   0x0
  40daae:	mov    edx,0x402690
  40dab3:	xor    ecx,ecx
  40dab5:	call   0x406502
  40daba:	mov    eax,DWORD PTR [ebp-0x8]
  40dabd:	mov    esi,DWORD PTR [eax+0x30]
  40dac0:	test   esi,esi
  40dac2:	je     0x40dad9
  40dac4:	push   edi
  40dac5:	push   DWORD PTR [ebx+0x4]
  40dac8:	mov    ecx,esi
  40daca:	push   DWORD PTR [ebp-0xc]
  40dacd:	call   DWORD PTR ds:0x41221c
  40dad3:	call   esi
  40dad5:	mov    esi,eax
  40dad7:	jmp    0x40dadc
  40dad9:	push   0x78
  40dadb:	pop    esi
  40dadc:	mov    edx,0x402690
  40dae1:	jmp    0x40da9a
  40dae3:	mov    ecx,DWORD PTR [ebx+0x4]
  40dae6:	cmp    ecx,0xc
  40dae9:	jae    0x40db16
  40daeb:	push   0xd
  40daed:	pop    esi
  40daee:	mov    eax,ds:0x411010
  40daf3:	cmp    eax,0x411010
  40daf8:	je     0x40ddbf
  40dafe:	test   BYTE PTR [eax+0x1c],0x1
  40db02:	je     0x40ddbf
  40db08:	push   ecx
  40db09:	push   DWORD PTR [eax+0x14]
  40db0c:	push   DWORD PTR [eax+0x10]
  40db0f:	push   0x37
  40db11:	jmp    0x40ddb4
  40db16:	mov    eax,ds:0x411010
  40db1b:	cmp    eax,0x411010
  40db20:	je     0x40db41
  40db22:	cmp    BYTE PTR [eax+0x19],0x3
  40db26:	jb     0x40db41
  40db28:	test   BYTE PTR [eax+0x1c],0x1
  40db2c:	je     0x40db41
  40db2e:	push   DWORD PTR [eax+0x14]
  40db31:	mov    edx,0x4026b4
  40db36:	push   DWORD PTR [eax+0x10]
  40db39:	push   0x38
  40db3b:	pop    ecx
  40db3c:	call   0x402ad5
  40db41:	push   0x0
  40db43:	mov    edi,0x4026a0
  40db48:	xor    ecx,ecx
  40db4a:	push   0x0
  40db4c:	mov    edx,edi
  40db4e:	call   0x406502
  40db53:	mov    eax,DWORD PTR [ebp-0x8]
  40db56:	mov    esi,DWORD PTR [eax+0x2c]
  40db59:	test   esi,esi
  40db5b:	je     0x40db77
  40db5d:	lea    eax,[ebx+0x8]
  40db60:	push   eax
  40db61:	push   DWORD PTR [ebx+0x4]
  40db64:	push   0x1
  40db66:	push   DWORD PTR [ebp-0xc]
  40db69:	mov    ecx,esi
  40db6b:	call   DWORD PTR ds:0x41221c
  40db71:	call   esi
  40db73:	mov    esi,eax
  40db75:	jmp    0x40db7a
  40db77:	push   0x78
  40db79:	pop    esi
  40db7a:	mov    edx,edi
  40db7c:	jmp    0x40da9a
  40db81:	mov    ecx,DWORD PTR [ebx+0x4]
  40db84:	cmp    ecx,0x14
  40db87:	jae    0x40dbb4
  40db89:	push   0xd
  40db8b:	pop    esi
  40db8c:	mov    eax,ds:0x411010
  40db91:	cmp    eax,0x411010
  40db96:	je     0x40ddbf
  40db9c:	test   BYTE PTR [eax+0x1c],0x1
  40dba0:	je     0x40ddbf
  40dba6:	push   ecx
  40dba7:	push   DWORD PTR [eax+0x14]
  40dbaa:	push   DWORD PTR [eax+0x10]
  40dbad:	push   0x39
  40dbaf:	jmp    0x40ddb4
  40dbb4:	mov    eax,ds:0x411010
  40dbb9:	cmp    eax,0x411010
  40dbbe:	je     0x40dbdf
  40dbc0:	cmp    BYTE PTR [eax+0x19],0x3
  40dbc4:	jb     0x40dbdf
  40dbc6:	test   BYTE PTR [eax+0x1c],0x1
  40dbca:	je     0x40dbdf
  40dbcc:	push   DWORD PTR [eax+0x14]
  40dbcf:	mov    edx,0x4026b4
  40dbd4:	push   DWORD PTR [eax+0x10]
  40dbd7:	push   0x3a
  40dbd9:	pop    ecx
  40dbda:	call   0x402ad5
  40dbdf:	push   0x0
  40dbe1:	mov    edi,0x4026a0
  40dbe6:	xor    ecx,ecx
  40dbe8:	push   0x0
  40dbea:	mov    edx,edi
  40dbec:	call   0x406502
  40dbf1:	mov    eax,DWORD PTR [ebp-0x8]
  40dbf4:	mov    esi,DWORD PTR [eax+0x2c]
  40dbf7:	test   esi,esi
  40dbf9:	je     0x40db77
  40dbff:	lea    eax,[ebx+0x8]
  40dc02:	push   eax
  40dc03:	push   DWORD PTR [ebx+0x4]
  40dc06:	push   0x2
  40dc08:	jmp    0x40db66
  40dc0d:	mov    ecx,DWORD PTR [ebx+0x4]
  40dc10:	cmp    ecx,0xc
  40dc13:	jae    0x40dc40
  40dc15:	push   0xd
  40dc17:	pop    esi
  40dc18:	mov    eax,ds:0x411010
  40dc1d:	cmp    eax,0x411010
  40dc22:	je     0x40ddbf
  40dc28:	test   BYTE PTR [eax+0x1c],0x1
  40dc2c:	je     0x40ddbf
  40dc32:	push   ecx
  40dc33:	push   DWORD PTR [eax+0x14]
  40dc36:	push   DWORD PTR [eax+0x10]
  40dc39:	push   0x3b
  40dc3b:	jmp    0x40ddb4
  40dc40:	mov    eax,ds:0x411010
  40dc45:	cmp    eax,0x411010
  40dc4a:	je     0x40dc6b
  40dc4c:	cmp    BYTE PTR [eax+0x19],0x3
  40dc50:	jb     0x40dc6b
  40dc52:	test   BYTE PTR [eax+0x1c],0x1
  40dc56:	je     0x40dc6b
  40dc58:	push   DWORD PTR [eax+0x14]
  40dc5b:	mov    edx,0x4026b4
  40dc60:	push   DWORD PTR [eax+0x10]
  40dc63:	push   0x3c
  40dc65:	pop    ecx
  40dc66:	call   0x402ad5
  40dc6b:	push   0x0
  40dc6d:	mov    edi,0x4026a0
  40dc72:	xor    ecx,ecx
  40dc74:	push   0x0
  40dc76:	mov    edx,edi
  40dc78:	call   0x406502
  40dc7d:	mov    eax,DWORD PTR [ebp-0x8]
  40dc80:	mov    esi,DWORD PTR [eax+0x2c]
  40dc83:	test   esi,esi
  40dc85:	je     0x40db77
  40dc8b:	lea    eax,[ebx+0x8]
  40dc8e:	push   eax
  40dc8f:	push   DWORD PTR [ebx+0x4]
  40dc92:	push   0x3
  40dc94:	jmp    0x40db66
  40dc99:	mov    ecx,DWORD PTR [ebx+0x4]
  40dc9c:	cmp    ecx,0xc
  40dc9f:	jb     0x40dd09
  40dca1:	cmp    ecx,DWORD PTR [edi+0x8]
  40dca4:	jb     0x40dd09
  40dca6:	mov    eax,DWORD PTR [edi+0x4]
  40dca9:	add    eax,DWORD PTR [edi+0x8]
  40dcac:	cmp    ecx,eax
  40dcae:	jb     0x40dd09
  40dcb0:	mov    eax,ds:0x411010
  40dcb5:	cmp    eax,0x411010
  40dcba:	je     0x40dcdb
  40dcbc:	cmp    BYTE PTR [eax+0x19],0x3
  40dcc0:	jb     0x40dcdb
  40dcc2:	test   BYTE PTR [eax+0x1c],0x1
  40dcc6:	je     0x40dcdb
  40dcc8:	push   DWORD PTR [eax+0x14]
  40dccb:	mov    edx,0x4026b4
  40dcd0:	push   DWORD PTR [eax+0x10]
  40dcd3:	push   0x3e
  40dcd5:	pop    ecx
  40dcd6:	call   0x402ad5
  40dcdb:	push   0x0
  40dcdd:	mov    edi,0x4026a0
  40dce2:	xor    ecx,ecx
  40dce4:	push   0x0
  40dce6:	mov    edx,edi
  40dce8:	call   0x406502
  40dced:	mov    eax,DWORD PTR [ebp-0x8]
  40dcf0:	mov    esi,DWORD PTR [eax+0x2c]
  40dcf3:	test   esi,esi
  40dcf5:	je     0x40db77
  40dcfb:	lea    eax,[ebx+0x8]
  40dcfe:	push   eax
  40dcff:	push   DWORD PTR [ebx+0x4]
  40dd02:	push   0x4
  40dd04:	jmp    0x40db66
  40dd09:	push   0xd
  40dd0b:	pop    esi
  40dd0c:	mov    eax,ds:0x411010
  40dd11:	cmp    eax,0x411010
  40dd16:	je     0x40ddbf
  40dd1c:	test   BYTE PTR [eax+0x1c],0x1
  40dd20:	je     0x40ddbf
  40dd26:	push   DWORD PTR [edi+0x4]
  40dd29:	push   DWORD PTR [edi+0x8]
  40dd2c:	push   ecx
  40dd2d:	push   DWORD PTR [eax+0x14]
  40dd30:	push   DWORD PTR [eax+0x10]
  40dd33:	call   0x40c69b
  40dd38:	jmp    0x40ddbf
  40dd3d:	mov    eax,ds:0x411010
  40dd42:	cmp    eax,0x411010
  40dd47:	je     0x40dd68
  40dd49:	cmp    BYTE PTR [eax+0x19],0x3
  40dd4d:	jb     0x40dd68
  40dd4f:	test   BYTE PTR [eax+0x1c],0x1
  40dd53:	je     0x40dd68
  40dd55:	push   DWORD PTR [eax+0x14]
  40dd58:	mov    edx,0x4026b4
  40dd5d:	push   DWORD PTR [eax+0x10]
  40dd60:	push   0x3f
  40dd62:	pop    ecx
  40dd63:	call   0x402ad5
  40dd68:	push   0x0
  40dd6a:	mov    edi,0x4026a0
  40dd6f:	xor    ecx,ecx
  40dd71:	push   0x0
  40dd73:	mov    edx,edi
  40dd75:	call   0x406502
  40dd7a:	mov    eax,DWORD PTR [ebp-0x8]
  40dd7d:	mov    esi,DWORD PTR [eax+0x2c]
  40dd80:	test   esi,esi
  40dd82:	je     0x40db77
  40dd88:	lea    eax,[ebx+0x8]
  40dd8b:	push   eax
  40dd8c:	push   DWORD PTR [ebx+0x4]
  40dd8f:	push   0x0
  40dd91:	jmp    0x40db66
  40dd96:	push   0xb
  40dd98:	pop    esi
  40dd99:	mov    eax,ds:0x411010
  40dd9e:	cmp    eax,0x411010
  40dda3:	je     0x40ddbf
  40dda5:	test   BYTE PTR [eax+0x1c],0x1
  40dda9:	je     0x40ddbf
  40ddab:	push   ecx
  40ddac:	push   DWORD PTR [eax+0x14]
  40ddaf:	push   DWORD PTR [eax+0x10]
  40ddb2:	push   0x40
  40ddb4:	mov    edx,0x4026b4
  40ddb9:	pop    ecx
  40ddba:	call   0x402af8
  40ddbf:	lea    ecx,[ebp-0x14]
  40ddc2:	call   0x405924
  40ddc7:	mov    edx,DWORD PTR [ebp-0x1c]
  40ddca:	mov    ecx,DWORD PTR [ebp-0x10]
  40ddcd:	call   0x402cf9
  40ddd2:	push   0x0
  40ddd4:	push   esi
  40ddd5:	push   0xa
  40ddd7:	mov    edx,0x402654
  40dddc:	pop    ecx
  40dddd:	call   0x406502
  40dde2:	mov    ecx,DWORD PTR [ebp-0x4]
  40dde5:	pop    edi
  40dde6:	pop    esi
  40dde7:	xor    ecx,ebp
  40dde9:	pop    ebx
  40ddea:	call   0x4101d0
  40ddef:	mov    esp,ebp
  40ddf1:	pop    ebp
  40ddf2:	ret    
  40ddf3:	lea    ecx,[ecx+0x0]
  40ddf6:	call   0xf6411ed3
  40ddfb:	fld    DWORD PTR [eax+0x0]
  40ddfe:	stos   BYTE PTR es:[edi],al
  40ddff:	fiadd  DWORD PTR [eax+0x0]
  40de02:	imul   ebx,eax,0xdd3d0040
  40de08:	inc    eax
  40de09:	add    BYTE PTR [ecx-0x1cffbf25],al
  40de0f:	fiadd  DWORD PTR [eax+0x0]
  40de12:	or     eax,0x990040dc
  40de17:	fadd   QWORD PTR [eax+0x0]
  40de1a:	int3   
  40de1b:	int3   
  40de1c:	int3   
  40de1d:	int3   
  40de1e:	int3   
  40de1f:	mov    edi,edi
  40de21:	push   ebp
  40de22:	mov    ebp,esp
  40de24:	push   esi
  40de25:	xor    esi,esi
  40de27:	test   ecx,ecx
  40de29:	je     0x40de3a
  40de2b:	test   edx,edx
  40de2d:	je     0x40de3a
  40de2f:	mov    eax,DWORD PTR [ebp+0x8]
  40de32:	test   eax,eax
  40de34:	je     0x40de3a
  40de36:	mov    DWORD PTR [eax],edx
  40de38:	jmp    0x40de64
  40de3a:	push   0x57
  40de3c:	pop    esi
  40de3d:	mov    ecx,DWORD PTR ds:0x411010
  40de43:	cmp    ecx,0x411010
  40de49:	je     0x40de64
  40de4b:	test   BYTE PTR [ecx+0x1c],0x1
  40de4f:	je     0x40de64
  40de51:	push   DWORD PTR [ecx+0x14]
  40de54:	mov    edx,0x4026b4
  40de59:	push   DWORD PTR [ecx+0x10]
  40de5c:	push   0x41
  40de5e:	pop    ecx
  40de5f:	call   0x402ad5
  40de64:	mov    eax,esi
  40de66:	pop    esi
  40de67:	pop    ebp
  40de68:	ret    0x4
  40de6b:	int3   
  40de6c:	int3   
  40de6d:	int3   
  40de6e:	int3   
  40de6f:	int3   
  40de70:	mov    edi,edi
  40de72:	push   ebp
  40de73:	mov    ebp,esp
  40de75:	and    esp,0xfffffff8
  40de78:	sub    esp,0x14
  40de7b:	push   ebx
  40de7c:	push   esi
  40de7d:	xor    esi,esi
  40de7f:	mov    DWORD PTR [esp+0x18],edx
  40de83:	push   edi
  40de84:	mov    edi,esi
  40de86:	mov    DWORD PTR [esp+0x18],esi
  40de8a:	mov    ebx,ecx
  40de8c:	mov    DWORD PTR [esp+0x10],esi
  40de90:	mov    DWORD PTR [esp+0x14],edi
  40de94:	mov    eax,ds:0x411010
  40de99:	cmp    eax,0x411010
  40de9e:	je     0x40debf
  40dea0:	cmp    BYTE PTR [eax+0x19],0x4
  40dea4:	jb     0x40debf
  40dea6:	test   BYTE PTR [eax+0x1c],0x1
  40deaa:	je     0x40debf
  40deac:	push   DWORD PTR [eax+0x14]
  40deaf:	mov    edx,0x4026b4
  40deb4:	push   DWORD PTR [eax+0x10]
  40deb7:	push   0x42
  40deb9:	pop    ecx
  40deba:	call   0x402ad5
  40debf:	lea    eax,[esp+0x18]
  40dec3:	xor    edx,edx
  40dec5:	push   eax
  40dec6:	lea    eax,[esp+0x14]
  40deca:	mov    ecx,ebx
  40decc:	push   eax
  40decd:	push   esi
  40dece:	call   0x402bf0
  40ded3:	mov    esi,eax
  40ded5:	test   esi,esi
  40ded7:	jne    0x40df94
  40dedd:	cmp    DWORD PTR [esp+0x10],edi
  40dee1:	jne    0x40df15
  40dee3:	push   0x15
  40dee5:	pop    esi
  40dee6:	mov    eax,ds:0x411010
  40deeb:	cmp    eax,0x411010
  40def0:	je     0x40df94
  40def6:	test   BYTE PTR [eax+0x1c],0x1
  40defa:	je     0x40df94
  40df00:	push   DWORD PTR [eax+0x14]
  40df03:	mov    edx,0x4026b4
  40df08:	push   DWORD PTR [eax+0x10]
  40df0b:	push   0x43
  40df0d:	pop    ecx
  40df0e:	call   0x402ad5
  40df13:	jmp    0x40df94
  40df15:	mov    edx,DWORD PTR [esp+0x1c]
  40df19:	lea    eax,[esp+0x14]
  40df1d:	push   eax
  40df1e:	mov    ecx,ebx
  40df20:	call   0x402dbb
  40df25:	mov    edi,DWORD PTR [esp+0x14]
  40df29:	mov    esi,eax
  40df2b:	test   esi,esi
  40df2d:	jne    0x40df94
  40df2f:	mov    ecx,DWORD PTR [esp+0x10]
  40df33:	lea    edx,[esp+0x14]
  40df37:	and    DWORD PTR [esp+0x14],eax
  40df3b:	mov    DWORD PTR [edi+0x10],0x1
  40df42:	call   0x40f246
  40df47:	mov    esi,eax
  40df49:	test   esi,esi
  40df4b:	jne    0x40df5b
  40df4d:	push   ecx
  40df4e:	mov    ecx,DWORD PTR [esp+0x18]
  40df52:	mov    edx,edi
  40df54:	call   0x40fca2
  40df59:	mov    esi,eax
  40df5b:	mov    ecx,DWORD PTR [esp+0x14]
  40df5f:	call   0x40ecc9
  40df64:	test   esi,esi
  40df66:	je     0x40df94
  40df68:	mov    eax,ds:0x411010
  40df6d:	cmp    eax,0x411010
  40df72:	je     0x40df94
  40df74:	cmp    BYTE PTR [eax+0x19],0x1
  40df78:	jb     0x40df94
  40df7a:	test   BYTE PTR [eax+0x1c],0x1
  40df7e:	je     0x40df94
  40df80:	push   esi
  40df81:	push   DWORD PTR [eax+0x14]
  40df84:	mov    edx,0x4026b4
  40df89:	push   DWORD PTR [eax+0x10]
  40df8c:	push   0x44
  40df8e:	pop    ecx
  40df8f:	call   0x402af8
  40df94:	push   edi
  40df95:	call   0x40a080
  40df9a:	mov    edx,DWORD PTR [esp+0x18]
  40df9e:	mov    ecx,ebx
  40dfa0:	call   0x402cf9
  40dfa5:	mov    eax,ds:0x411010
  40dfaa:	cmp    eax,0x411010
  40dfaf:	je     0x40dfd1
  40dfb1:	cmp    BYTE PTR [eax+0x19],0x4
  40dfb5:	jb     0x40dfd1
  40dfb7:	test   BYTE PTR [eax+0x1c],0x1
  40dfbb:	je     0x40dfd1
  40dfbd:	push   esi
  40dfbe:	push   DWORD PTR [eax+0x14]
  40dfc1:	mov    edx,0x4026b4
  40dfc6:	push   DWORD PTR [eax+0x10]
  40dfc9:	push   0x45
  40dfcb:	pop    ecx
  40dfcc:	call   0x402af8
  40dfd1:	pop    edi
  40dfd2:	mov    eax,esi
  40dfd4:	pop    esi
  40dfd5:	pop    ebx
  40dfd6:	mov    esp,ebp
  40dfd8:	pop    ebp
  40dfd9:	ret    
  40dfda:	int3   
  40dfdb:	int3   
  40dfdc:	int3   
  40dfdd:	int3   
  40dfde:	int3   
  40dfdf:	int3   
  40dfe0:	mov    edi,edi
  40dfe2:	push   ebp
  40dfe3:	mov    ebp,esp
  40dfe5:	push   0x0
  40dfe7:	push   DWORD PTR [ebp+0xc]
  40dfea:	push   DWORD PTR ds:0x41207c
  40dff0:	push   DWORD PTR ds:0x4026c4
  40dff6:	push   DWORD PTR [ebp+0x8]
  40dff9:	push   0x400000
  40dffe:	call   DWORD PTR ds:0x412078
  40e004:	pop    ebp
  40e005:	ret    0x8
  40e008:	int3   
  40e009:	int3   
  40e00a:	int3   
  40e00b:	int3   
  40e00c:	int3   
  40e00d:	int3   
  40e00e:	push   0x20
  40e010:	push   0x410a70
  40e015:	call   0x41072c
  40e01a:	mov    esi,ecx
  40e01c:	mov    DWORD PTR [ebp-0x1c],esi
  40e01f:	push   0x44
  40e021:	push   0x0
  40e023:	push   esi
  40e024:	call   0x410868
  40e029:	add    esp,0xc
  40e02c:	and    DWORD PTR [ebp-0x4],0x0
  40e030:	push   esi
  40e031:	call   DWORD PTR ds:0x41214c
  40e037:	xor    edi,edi
  40e039:	inc    edi
  40e03a:	mov    DWORD PTR [esi+0x18],edi
  40e03d:	push   0xfffffffe
  40e03f:	pop    ebx
  40e040:	mov    DWORD PTR [ebp-0x4],ebx
  40e043:	jmp    0x40e075
  40e045:	mov    eax,DWORD PTR [ebp-0x14]
  40e048:	mov    eax,DWORD PTR [eax]
  40e04a:	mov    eax,DWORD PTR [eax]
  40e04c:	mov    DWORD PTR [ebp-0x20],eax
  40e04f:	xor    eax,eax
  40e051:	inc    eax
  40e052:	ret    
  40e053:	mov    esp,DWORD PTR [ebp-0x18]
  40e056:	mov    edi,DWORD PTR [ebp-0x20]
  40e059:	test   edi,edi
  40e05b:	je     0x40e069
  40e05d:	mov    DWORD PTR [ebp-0x4],0xfffffffe
  40e064:	mov    esi,DWORD PTR [ebp-0x1c]
  40e067:	jmp    0x40e0d9
  40e069:	push   0xfffffffe
  40e06b:	pop    ebx
  40e06c:	mov    DWORD PTR [ebp-0x4],ebx
  40e06f:	xor    edi,edi
  40e071:	inc    edi
  40e072:	mov    esi,DWORD PTR [ebp-0x1c]
  40e075:	mov    DWORD PTR [ebp-0x4],edi
  40e078:	lea    eax,[esi+0x1c]
  40e07b:	push   eax
  40e07c:	call   DWORD PTR ds:0x41214c
  40e082:	mov    DWORD PTR [esi+0x34],edi
  40e085:	mov    DWORD PTR [ebp-0x4],ebx
  40e088:	jmp    0x40e0ad
  40e08a:	mov    eax,DWORD PTR [ebp-0x14]
  40e08d:	mov    eax,DWORD PTR [eax]
  40e08f:	mov    eax,DWORD PTR [eax]
  40e091:	mov    DWORD PTR [ebp-0x24],eax
  40e094:	xor    eax,eax
  40e096:	inc    eax
  40e097:	ret    
  40e098:	mov    esp,DWORD PTR [ebp-0x18]
  40e09b:	mov    edi,DWORD PTR [ebp-0x24]
  40e09e:	test   edi,edi
  40e0a0:	jne    0x40e05d
  40e0a2:	mov    DWORD PTR [ebp-0x4],0xfffffffe
  40e0a9:	inc    edi
  40e0aa:	mov    esi,DWORD PTR [ebp-0x1c]
  40e0ad:	mov    DWORD PTR [ebp-0x30],0xc
  40e0b4:	and    DWORD PTR [ebp-0x2c],0x0
  40e0b8:	mov    DWORD PTR [ebp-0x28],edi
  40e0bb:	push   0x0
  40e0bd:	push   0x0
  40e0bf:	push   edi
  40e0c0:	lea    eax,[ebp-0x30]
  40e0c3:	push   eax
  40e0c4:	call   DWORD PTR ds:0x41213c
  40e0ca:	mov    DWORD PTR [esi+0x3c],eax
  40e0cd:	test   eax,eax
  40e0cf:	jne    0x40e0e4
  40e0d1:	call   DWORD PTR ds:0x41208c
  40e0d7:	mov    edi,eax
  40e0d9:	mov    ecx,esi
  40e0db:	call   0x40e0f8
  40e0e0:	mov    eax,edi
  40e0e2:	jmp    0x40e0ed
  40e0e4:	push   eax
  40e0e5:	call   DWORD PTR ds:0x412144
  40e0eb:	xor    eax,eax
  40e0ed:	call   0x410771
  40e0f2:	ret    
  40e0f3:	int3   
  40e0f4:	int3   
  40e0f5:	int3   
  40e0f6:	int3   
  40e0f7:	int3   
  40e0f8:	mov    edi,edi
  40e0fa:	push   esi
  40e0fb:	mov    esi,ecx
  40e0fd:	mov    eax,DWORD PTR [esi+0x3c]
  40e100:	test   eax,eax
  40e102:	je     0x40e10b
  40e104:	push   eax
  40e105:	call   DWORD PTR ds:0x4120a8
  40e10b:	cmp    DWORD PTR [esi+0x34],0x1
  40e10f:	jne    0x40e11f
  40e111:	lea    eax,[esi+0x1c]
  40e114:	push   eax
  40e115:	call   DWORD PTR ds:0x412140
  40e11b:	and    DWORD PTR [esi+0x34],0x0
  40e11f:	cmp    DWORD PTR [esi+0x18],0x1
  40e123:	jne    0x40e130
  40e125:	push   esi
  40e126:	call   DWORD PTR ds:0x412140
  40e12c:	and    DWORD PTR [esi+0x18],0x0
  40e130:	push   0x44
  40e132:	push   0x0
  40e134:	push   esi
  40e135:	call   0x410868
  40e13a:	add    esp,0xc
  40e13d:	pop    esi
  40e13e:	ret    
  40e13f:	int3   
  40e140:	int3   
  40e141:	int3   
  40e142:	int3   
  40e143:	int3   
  40e144:	mov    edi,edi
  40e146:	push   esi
  40e147:	push   edi
  40e148:	mov    esi,ecx
  40e14a:	push   esi
  40e14b:	call   DWORD PTR ds:0x412128
  40e151:	lea    edi,[esi+0x1c]
  40e154:	push   edi
  40e155:	call   DWORD PTR ds:0x412128
  40e15b:	mov    edx,DWORD PTR [esi+0x38]
  40e15e:	lea    eax,[edx+0x1]
  40e161:	mov    DWORD PTR [esi+0x38],eax
  40e164:	test   edx,edx
  40e166:	jne    0x40e171
  40e168:	push   DWORD PTR [esi+0x3c]
  40e16b:	call   DWORD PTR ds:0x412134
  40e171:	push   edi
  40e172:	call   DWORD PTR ds:0x412148
  40e178:	push   esi
  40e179:	call   DWORD PTR ds:0x412148
  40e17f:	pop    edi
  40e180:	pop    esi
  40e181:	ret    
  40e182:	int3   
  40e183:	int3   
  40e184:	int3   
  40e185:	int3   
  40e186:	int3   
  40e187:	int3   
  40e188:	mov    edi,edi
  40e18a:	push   esi
  40e18b:	mov    esi,ecx
  40e18d:	push   esi
  40e18e:	call   DWORD PTR ds:0x412128
  40e194:	call   DWORD PTR ds:0x412108
  40e19a:	push   0xffffffff
  40e19c:	push   DWORD PTR [esi+0x3c]
  40e19f:	mov    DWORD PTR [esi+0x40],eax
  40e1a2:	call   DWORD PTR ds:0x412138
  40e1a8:	pop    esi
  40e1a9:	ret    
  40e1aa:	int3   
  40e1ab:	int3   
  40e1ac:	int3   
  40e1ad:	int3   
  40e1ae:	int3   
  40e1af:	int3   
  40e1b0:	mov    edi,edi
  40e1b2:	push   esi
  40e1b3:	mov    esi,ecx
  40e1b5:	push   edi
  40e1b6:	lea    edi,[esi+0x1c]
  40e1b9:	push   edi
  40e1ba:	call   DWORD PTR ds:0x412128
  40e1c0:	sub    DWORD PTR [esi+0x38],0x1
  40e1c4:	jne    0x40e1cf
  40e1c6:	push   DWORD PTR [esi+0x3c]
  40e1c9:	call   DWORD PTR ds:0x412144
  40e1cf:	push   edi
  40e1d0:	call   DWORD PTR ds:0x412148
  40e1d6:	pop    edi
  40e1d7:	pop    esi
  40e1d8:	ret    
  40e1d9:	int3   
  40e1da:	int3   
  40e1db:	int3   
  40e1dc:	int3   
  40e1dd:	int3   
  40e1de:	mov    edi,edi
  40e1e0:	push   ebp
  40e1e1:	mov    ebp,esp
  40e1e3:	push   ecx
  40e1e4:	push   ecx
  40e1e5:	push   ebx
  40e1e6:	push   esi
  40e1e7:	push   edi
  40e1e8:	mov    edi,DWORD PTR [ebp+0x8]
  40e1eb:	push   0xe
  40e1ed:	pop    ebx
  40e1ee:	test   edi,edi
  40e1f0:	jne    0x40e1fa
  40e1f2:	push   0x57
  40e1f4:	pop    eax
  40e1f5:	jmp    0x40e288
  40e1fa:	and    DWORD PTR [edi],0x0
  40e1fd:	lea    edx,[ebp-0x4]
  40e200:	push   0x106
  40e205:	push   0x4026c8
  40e20a:	push   0x54
  40e20c:	pop    ecx
  40e20d:	call   0x40e9ef
  40e212:	mov    esi,DWORD PTR [ebp-0x4]
  40e215:	test   esi,esi
  40e217:	je     0x40e286
  40e219:	lea    eax,[esi+0x4]
  40e21c:	push   0x80001000
  40e221:	push   eax
  40e222:	call   DWORD PTR ds:0x412130
  40e228:	test   eax,eax
  40e22a:	je     0x40e274
  40e22c:	mov    DWORD PTR [esi],0x7448324c
  40e232:	mov    eax,0xfffffff
  40e237:	and    DWORD PTR [esi+0x1c],0x0
  40e23b:	mov    ecx,esi
  40e23d:	mov    DWORD PTR [esi+0x2c],0x20
  40e244:	mov    DWORD PTR [esi+0x20],0xfffffe0
  40e24b:	mov    DWORD PTR [esi+0x50],eax
  40e24e:	mov    DWORD PTR [esi+0x44],eax
  40e251:	mov    DWORD PTR [esi+0x38],eax
  40e254:	call   0x40e571
  40e259:	test   eax,eax
  40e25b:	je     0x40e263
  40e25d:	xor    ebx,ebx
  40e25f:	mov    DWORD PTR [edi],esi
  40e261:	jmp    0x40e286
  40e263:	lea    eax,[esi+0x4]
  40e266:	push   eax
  40e267:	call   DWORD PTR ds:0x412140
  40e26d:	push   0x11b
  40e272:	jmp    0x40e279
  40e274:	push   0x120
  40e279:	mov    edx,0x4026c8
  40e27e:	lea    ecx,[ebp-0x4]
  40e281:	call   0x40eac1
  40e286:	mov    eax,ebx
  40e288:	pop    edi
  40e289:	pop    esi
  40e28a:	pop    ebx
  40e28b:	mov    esp,ebp
  40e28d:	pop    ebp
  40e28e:	ret    0x4
  40e291:	int3   
  40e292:	int3   
  40e293:	int3   
  40e294:	int3   
  40e295:	int3   
  40e296:	mov    edi,edi
  40e298:	push   ebp
  40e299:	mov    ebp,esp
  40e29b:	sub    esp,0xc
  40e29e:	mov    eax,ds:0x411004
  40e2a3:	xor    eax,ebp
  40e2a5:	mov    DWORD PTR [ebp-0x4],eax
  40e2a8:	push   ebx
  40e2a9:	push   esi
  40e2aa:	mov    esi,ecx
  40e2ac:	mov    edx,0xfffffff
  40e2b1:	mov    DWORD PTR [ebp-0x8],esi
  40e2b4:	push   edi
  40e2b5:	test   esi,esi
  40e2b7:	je     0x40e373
  40e2bd:	cmp    DWORD PTR [esi],0x7448324c
  40e2c3:	jne    0x40e373
  40e2c9:	mov    DWORD PTR [esi],0x7878324c
  40e2cf:	mov    eax,DWORD PTR [esi+0x40]
  40e2d2:	add    eax,DWORD PTR [esi+0x34]
  40e2d5:	cmp    DWORD PTR [esi+0x28],eax
  40e2d8:	jbe    0x40e33a
  40e2da:	mov    edx,DWORD PTR [esi+0x50]
  40e2dd:	xor    ebx,ebx
  40e2df:	mov    DWORD PTR [esi+0x50],0xfffffff
  40e2e6:	cmp    DWORD PTR [esi+0x28],ebx
  40e2e9:	jbe    0x40e33a
  40e2eb:	xor    edi,edi
  40e2ed:	mov    eax,DWORD PTR [esi+0x24]
  40e2f0:	cmp    DWORD PTR [eax+edi*1],0x0
  40e2f4:	je     0x40e30f
  40e2f6:	and    DWORD PTR [eax+edi*1],0x0
  40e2fa:	mov    ecx,DWORD PTR [esi+0x24]
  40e2fd:	shl    edx,0x4
  40e300:	mov    eax,DWORD PTR [ecx+edi*1+0x10]
  40e304:	and    eax,0xf
  40e307:	or     eax,edx
  40e309:	mov    edx,ebx
  40e30b:	mov    DWORD PTR [ecx+edi*1+0x10],eax
  40e30f:	inc    ebx
  40e310:	add    edi,0x14
  40e313:	cmp    ebx,DWORD PTR [esi+0x28]
  40e316:	jb     0x40e2ed
  40e318:	jmp    0x40e33a
  40e31a:	imul   edi,edx,0x14
  40e31d:	add    edi,DWORD PTR [esi+0x24]
  40e320:	mov    ebx,DWORD PTR [edi+0x8]
  40e323:	test   ebx,ebx
  40e325:	je     0x40e334
  40e327:	push   DWORD PTR [edi+0x4]
  40e32a:	mov    ecx,ebx
  40e32c:	call   DWORD PTR ds:0x41221c
  40e332:	call   ebx
  40e334:	mov    edx,DWORD PTR [edi+0x10]
  40e337:	shr    edx,0x4
  40e33a:	cmp    edx,0xfffffff
  40e340:	jne    0x40e31a
  40e342:	mov    edi,0x4026dc
  40e347:	lea    ecx,[esi+0x24]
  40e34a:	push   0x183
  40e34f:	mov    edx,edi
  40e351:	call   0x40eac1
  40e356:	lea    eax,[esi+0x4]
  40e359:	push   eax
  40e35a:	call   DWORD PTR ds:0x412140
  40e360:	push   0x185
  40e365:	mov    edx,edi
  40e367:	lea    ecx,[ebp-0x8]
  40e36a:	call   0x40eac1
  40e36f:	xor    eax,eax
  40e371:	jmp    0x40e376
  40e373:	push   0x57
  40e375:	pop    eax
  40e376:	mov    ecx,DWORD PTR [ebp-0x4]
  40e379:	pop    edi
  40e37a:	pop    esi
  40e37b:	xor    ecx,ebp
  40e37d:	pop    ebx
  40e37e:	call   0x4101d0
  40e383:	mov    esp,ebp
  40e385:	pop    ebp
  40e386:	ret    
  40e387:	int3   
  40e388:	int3   
  40e389:	int3   
  40e38a:	int3   
  40e38b:	int3   
  40e38c:	mov    edi,edi
  40e38e:	push   ebp
  40e38f:	mov    ebp,esp
  40e391:	sub    esp,0xc
  40e394:	push   ebx
  40e395:	push   esi
  40e396:	mov    esi,ecx
  40e398:	mov    DWORD PTR [ebp-0x4],edx
  40e39b:	push   edi
  40e39c:	lea    ebx,[esi+0x4]
  40e39f:	push   ebx
  40e3a0:	mov    DWORD PTR [ebp-0x8],ebx
  40e3a3:	call   DWORD PTR ds:0x412128
  40e3a9:	xor    eax,eax
  40e3ab:	cmp    DWORD PTR [esi+0x34],eax
  40e3ae:	jne    0x40e3cf
  40e3b0:	cmp    DWORD PTR [esi+0x40],eax
  40e3b3:	jne    0x40e3cc
  40e3b5:	mov    ecx,esi
  40e3b7:	call   0x40e571
  40e3bc:	test   eax,eax
  40e3be:	jne    0x40e3cc
  40e3c0:	push   ebx
  40e3c1:	call   DWORD PTR ds:0x412148
  40e3c7:	push   0x8
  40e3c9:	pop    eax
  40e3ca:	jmp    0x40e436
  40e3cc:	xor    eax,eax
  40e3ce:	inc    eax
  40e3cf:	imul   ecx,eax,0xc
  40e3d2:	imul   edi,DWORD PTR [ecx+esi*1+0x38],0x14
  40e3d7:	add    edi,DWORD PTR [esi+0x24]
  40e3da:	mov    eax,DWORD PTR [edi+0x10]
  40e3dd:	shr    eax,0x4
  40e3e0:	dec    DWORD PTR [ecx+esi*1+0x34]
  40e3e4:	mov    DWORD PTR [ecx+esi*1+0x38],eax
  40e3e8:	mov    eax,DWORD PTR [ebp-0x4]
  40e3eb:	mov    ebx,DWORD PTR [edi+0x10]
  40e3ee:	mov    DWORD PTR [edi+0x4],eax
  40e3f1:	and    ebx,0xf
  40e3f4:	mov    eax,DWORD PTR [ebp+0x8]
  40e3f7:	mov    DWORD PTR [edi+0xc],eax
  40e3fa:	mov    DWORD PTR [edi+0x8],0x4098c0
  40e401:	mov    DWORD PTR [edi+0x10],0x1
  40e408:	mov    eax,edi
  40e40a:	inc    ebx
  40e40b:	sub    eax,DWORD PTR [esi+0x24]
  40e40e:	and    ebx,0xf
  40e411:	cdq    
  40e412:	push   0x14
  40e414:	pop    ecx
  40e415:	idiv   ecx
  40e417:	shl    eax,0x4
  40e41a:	add    eax,ebx
  40e41c:	add    eax,DWORD PTR [esi+0x1c]
  40e41f:	mov    DWORD PTR [edi],eax
  40e421:	je     0x40e408
  40e423:	mov    ebx,DWORD PTR [ebp-0x8]
  40e426:	push   ebx
  40e427:	call   DWORD PTR ds:0x412148
  40e42d:	mov    eax,DWORD PTR [ebp+0x14]
  40e430:	mov    ecx,DWORD PTR [edi]
  40e432:	mov    DWORD PTR [eax],ecx
  40e434:	xor    eax,eax
  40e436:	pop    edi
  40e437:	pop    esi
  40e438:	pop    ebx
  40e439:	mov    esp,ebp
  40e43b:	pop    ebp
  40e43c:	ret    0x10
  40e43f:	int3   
  40e440:	int3   
  40e441:	int3   
  40e442:	int3   
  40e443:	int3   
  40e444:	mov    edi,edi
  40e446:	push   ebp
  40e447:	mov    ebp,esp
  40e449:	push   ecx
  40e44a:	push   ebx
  40e44b:	push   esi
  40e44c:	mov    ebx,ecx
  40e44e:	mov    eax,edx
  40e450:	push   edi
  40e451:	push   0x6
  40e453:	mov    DWORD PTR [ebp-0x4],eax
  40e456:	pop    esi
  40e457:	cmp    eax,DWORD PTR [ebx+0x1c]
  40e45a:	jb     0x40e466
  40e45c:	mov    edi,eax
  40e45e:	sub    edi,DWORD PTR [ebx+0x1c]
  40e461:	shr    edi,0x4
  40e464:	jmp    0x40e469
  40e466:	or     edi,0xffffffff
  40e469:	lea    eax,[ebx+0x4]
  40e46c:	push   eax
  40e46d:	call   DWORD PTR ds:0x412128
  40e473:	cmp    edi,DWORD PTR [ebx+0x28]
  40e476:	jae    0x40e4c4
  40e478:	mov    eax,DWORD PTR [ebp-0x4]
  40e47b:	imul   ecx,edi,0x14
  40e47e:	add    ecx,DWORD PTR [ebx+0x24]
  40e481:	cmp    DWORD PTR [ecx],eax
  40e483:	jne    0x40e4c4
  40e485:	mov    eax,DWORD PTR [ecx+0x10]
  40e488:	lea    edx,[eax+0x1]
  40e48b:	cmp    edx,eax
  40e48d:	jb     0x40e4b6
  40e48f:	mov    esi,DWORD PTR [ebp+0x8]
  40e492:	test   esi,esi
  40e494:	je     0x40e49b
  40e496:	cmp    esi,DWORD PTR [ecx+0xc]
  40e499:	jne    0x40e4b4
  40e49b:	mov    eax,DWORD PTR [ebp+0xc]
  40e49e:	test   eax,eax
  40e4a0:	je     0x40e4a5
  40e4a2:	mov    DWORD PTR [ecx+0xc],eax
  40e4a5:	mov    eax,DWORD PTR [ebp+0x14]
  40e4a8:	xor    esi,esi
  40e4aa:	mov    DWORD PTR [ecx+0x10],edx
  40e4ad:	mov    ecx,DWORD PTR [ecx+0x4]
  40e4b0:	mov    DWORD PTR [eax],ecx
  40e4b2:	jmp    0x40e4c4
  40e4b4:	cmp    edx,eax
  40e4b6:	sbb    esi,esi
  40e4b8:	and    esi,0xffffecb8
  40e4be:	add    esi,0x139f
  40e4c4:	lea    eax,[ebx+0x4]
  40e4c7:	push   eax
  40e4c8:	call   DWORD PTR ds:0x412148
  40e4ce:	pop    edi
  40e4cf:	mov    eax,esi
  40e4d1:	pop    esi
  40e4d2:	pop    ebx
  40e4d3:	mov    esp,ebp
  40e4d5:	pop    ebp
  40e4d6:	ret    0x10
  40e4d9:	int3   
  40e4da:	int3   
  40e4db:	int3   
  40e4dc:	int3   
  40e4dd:	int3   
  40e4de:	mov    edi,edi
  40e4e0:	push   ebp
  40e4e1:	mov    ebp,esp
  40e4e3:	push   ecx
  40e4e4:	push   ebx
  40e4e5:	push   esi
  40e4e6:	push   edi
  40e4e7:	mov    edi,ecx
  40e4e9:	mov    eax,edx
  40e4eb:	push   0x6
  40e4ed:	mov    DWORD PTR [ebp-0x4],eax
  40e4f0:	pop    ebx
  40e4f1:	cmp    eax,DWORD PTR [edi+0x1c]
  40e4f4:	jb     0x40e500
  40e4f6:	mov    esi,eax
  40e4f8:	sub    esi,DWORD PTR [edi+0x1c]
  40e4fb:	shr    esi,0x4
  40e4fe:	jmp    0x40e503
  40e500:	or     esi,0xffffffff
  40e503:	lea    eax,[edi+0x4]
  40e506:	push   eax
  40e507:	call   DWORD PTR ds:0x412128
  40e50d:	cmp    esi,DWORD PTR [edi+0x28]
  40e510:	jae    0x40e557
  40e512:	imul   edx,esi,0x14
  40e515:	add    edx,DWORD PTR [edi+0x24]
  40e518:	mov    ecx,DWORD PTR [edx]
  40e51a:	cmp    ecx,DWORD PTR [ebp-0x4]
  40e51d:	jne    0x40e557
  40e51f:	mov    eax,DWORD PTR [edx+0x10]
  40e522:	cmp    DWORD PTR [ebp+0xc],eax
  40e525:	ja     0x40e554
  40e527:	sub    eax,DWORD PTR [ebp+0xc]
  40e52a:	push   0x0
  40e52c:	mov    DWORD PTR [edx+0x10],eax
  40e52f:	pop    ebx
  40e530:	jne    0x40e557
  40e532:	and    ecx,0xf
  40e535:	mov    DWORD PTR [edx],ebx
  40e537:	mov    DWORD PTR [edx+0x10],ecx
  40e53a:	and    ecx,0xf
  40e53d:	mov    eax,DWORD PTR [edi+0x50]
  40e540:	shl    eax,0x4
  40e543:	or     ecx,eax
  40e545:	mov    DWORD PTR [edx+0x10],ecx
  40e548:	mov    ecx,edi
  40e54a:	mov    DWORD PTR [edi+0x50],esi
  40e54d:	call   0x40e683
  40e552:	jmp    0x40e557
  40e554:	push   0x57
  40e556:	pop    ebx
  40e557:	lea    eax,[edi+0x4]
  40e55a:	push   eax
  40e55b:	call   DWORD PTR ds:0x412148
  40e561:	pop    edi
  40e562:	pop    esi
  40e563:	mov    eax,ebx
  40e565:	pop    ebx
  40e566:	mov    esp,ebp
  40e568:	pop    ebp
  40e569:	ret    0x8
  40e56c:	int3   
  40e56d:	int3   
  40e56e:	int3   
  40e56f:	int3   
  40e570:	int3   
  40e571:	mov    edi,edi
  40e573:	push   ebp
  40e574:	mov    ebp,esp
  40e576:	sub    esp,0x14
  40e579:	push   ebx
  40e57a:	push   esi
  40e57b:	push   edi
  40e57c:	mov    edi,ecx
  40e57e:	or     eax,0xffffffff
  40e581:	mov    DWORD PTR [ebp-0x10],edi
  40e584:	mov    ecx,DWORD PTR [edi+0x2c]
  40e587:	sub    eax,ecx
  40e589:	mov    edx,DWORD PTR [edi+0x28]
  40e58c:	mov    DWORD PTR [ebp-0x8],ecx
  40e58f:	mov    DWORD PTR [ebp-0xc],edx
  40e592:	cmp    edx,eax
  40e594:	ja     0x40e675
  40e59a:	lea    eax,[edx+ecx*1]
  40e59d:	cmp    eax,DWORD PTR [edi+0x20]
  40e5a0:	ja     0x40e675
  40e5a6:	push   0x14
  40e5a8:	pop    ecx
  40e5a9:	mul    ecx
  40e5ab:	test   edx,edx
  40e5ad:	jne    0x40e675
  40e5b3:	cmp    eax,0xffffffff
  40e5b6:	ja     0x40e675
  40e5bc:	push   0x2f5
  40e5c1:	push   0x4026f4
  40e5c6:	lea    edx,[ebp-0x4]
  40e5c9:	mov    ecx,eax
  40e5cb:	call   0x40e9ef
  40e5d0:	mov    ebx,DWORD PTR [ebp-0x4]
  40e5d3:	test   ebx,ebx
  40e5d5:	je     0x40e675
  40e5db:	imul   eax,DWORD PTR [edi+0x28],0x14
  40e5df:	lea    esi,[edi+0x24]
  40e5e2:	push   eax
  40e5e3:	push   DWORD PTR [esi]
  40e5e5:	push   ebx
  40e5e6:	call   0x41085c
  40e5eb:	add    esp,0xc
  40e5ee:	mov    edx,0x4026f4
  40e5f3:	mov    ecx,esi
  40e5f5:	push   0x2fe
  40e5fa:	call   0x40eac1
  40e5ff:	mov    ecx,DWORD PTR [edi+0x28]
  40e602:	xor    eax,eax
  40e604:	test   ecx,ecx
  40e606:	mov    DWORD PTR [esi],ebx
  40e608:	mov    esi,DWORD PTR [ebp-0xc]
  40e60b:	setne  al
  40e60e:	add    esi,DWORD PTR [ebp-0x8]
  40e611:	imul   eax,eax,0xc
  40e614:	mov    DWORD PTR [ebp-0x14],eax
  40e617:	mov    DWORD PTR [eax+edi*1+0x38],ecx
  40e61b:	mov    ecx,DWORD PTR [edi+0x28]
  40e61e:	cmp    ecx,esi
  40e620:	jae    0x40e654
  40e622:	imul   eax,ecx,0x14
  40e625:	lea    edi,[ebx+0x10]
  40e628:	lea    edx,[ecx+0x1]
  40e62b:	shl    edx,0x4
  40e62e:	add    edi,eax
  40e630:	mov    eax,esi
  40e632:	sub    eax,ecx
  40e634:	add    ecx,eax
  40e636:	mov    ebx,eax
  40e638:	mov    eax,DWORD PTR [edi]
  40e63a:	xor    eax,edx
  40e63c:	and    eax,0xf
  40e63f:	xor    eax,edx
  40e641:	add    edx,0x10
  40e644:	mov    DWORD PTR [edi],eax
  40e646:	lea    edi,[edi+0x14]
  40e649:	sub    ebx,0x1
  40e64c:	jne    0x40e638
  40e64e:	mov    edi,DWORD PTR [ebp-0x10]
  40e651:	mov    ebx,DWORD PTR [ebp-0x4]
  40e654:	dec    ecx
  40e655:	mov    edx,esi
  40e657:	imul   eax,ecx,0x14
  40e65a:	mov    ecx,DWORD PTR [ebp-0x14]
  40e65d:	or     DWORD PTR [eax+ebx*1+0x10],0xfffffff0
  40e662:	mov    eax,DWORD PTR [edi+0x2c]
  40e665:	mov    DWORD PTR [ecx+edi*1+0x34],eax
  40e669:	mov    ecx,edi
  40e66b:	call   0x40e861
  40e670:	xor    eax,eax
  40e672:	inc    eax
  40e673:	jmp    0x40e677
  40e675:	xor    eax,eax
  40e677:	pop    edi
  40e678:	pop    esi
  40e679:	pop    ebx
  40e67a:	mov    esp,ebp
  40e67c:	pop    ebp
  40e67d:	ret    
  40e67e:	int3   
  40e67f:	int3   
  40e680:	int3   
  40e681:	int3   
  40e682:	int3   
  40e683:	mov    edi,edi
  40e685:	push   ebp
  40e686:	mov    ebp,esp
  40e688:	sub    esp,0x14
  40e68b:	mov    eax,ds:0x411004
  40e690:	xor    eax,ebp
  40e692:	mov    DWORD PTR [ebp-0x4],eax
  40e695:	push   ebx
  40e696:	push   esi
  40e697:	push   edi
  40e698:	mov    ebx,ecx
  40e69a:	call   DWORD PTR ds:0x412108
  40e6a0:	cmp    DWORD PTR [ebx+0x48],0x0
  40e6a4:	mov    DWORD PTR [ebp-0x8],eax
  40e6a7:	je     0x40e6b2
  40e6a9:	cmp    DWORD PTR [ebx+0x4c],eax
  40e6ac:	je     0x40e771
  40e6b2:	mov    ecx,DWORD PTR [ebx+0x50]
  40e6b5:	cmp    ecx,0xfffffff
  40e6bb:	je     0x40e771
  40e6c1:	mov    DWORD PTR [ebx+0x48],0x1
  40e6c8:	mov    DWORD PTR [ebx+0x4c],eax
  40e6cb:	imul   eax,ecx,0x14
  40e6ce:	push   0x14
  40e6d0:	add    eax,DWORD PTR [ebx+0x24]
  40e6d3:	lea    edi,[eax+0x10]
  40e6d6:	mov    ecx,DWORD PTR [edi]
  40e6d8:	shr    ecx,0x4
  40e6db:	mov    DWORD PTR [ebx+0x50],ecx
  40e6de:	mov    ecx,DWORD PTR [eax+0x4]
  40e6e1:	mov    DWORD PTR [ebp-0x10],ecx
  40e6e4:	mov    ecx,DWORD PTR [eax+0x8]
  40e6e7:	sub    eax,DWORD PTR [ebx+0x24]
  40e6ea:	mov    DWORD PTR [ebp-0xc],ecx
  40e6ed:	cdq    
  40e6ee:	pop    ecx
  40e6ef:	idiv   ecx
  40e6f1:	mov    esi,eax
  40e6f3:	mov    eax,DWORD PTR [edi]
  40e6f5:	cmp    esi,DWORD PTR [ebx+0x30]
  40e6f8:	sbb    ecx,ecx
  40e6fa:	and    eax,0xf
  40e6fd:	inc    ecx
  40e6fe:	imul   edx,ecx,0xc
  40e701:	mov    ecx,DWORD PTR [edx+ebx*1+0x38]
  40e705:	shl    ecx,0x4
  40e708:	or     ecx,eax
  40e70a:	mov    DWORD PTR [edi],ecx
  40e70c:	inc    DWORD PTR [edx+ebx*1+0x34]
  40e710:	mov    edi,DWORD PTR [ebp-0xc]
  40e713:	mov    DWORD PTR [edx+ebx*1+0x38],esi
  40e717:	test   edi,edi
  40e719:	je     0x40e743
  40e71b:	lea    esi,[ebx+0x4]
  40e71e:	push   esi
  40e71f:	call   DWORD PTR ds:0x412148
  40e725:	push   DWORD PTR [ebp-0x10]
  40e728:	mov    ecx,edi
  40e72a:	call   DWORD PTR ds:0x41221c
  40e730:	call   edi
  40e732:	push   esi
  40e733:	call   DWORD PTR ds:0x412128
  40e739:	mov    eax,DWORD PTR [ebp-0x8]
  40e73c:	cmp    DWORD PTR [ebx+0x4c],eax
  40e73f:	jne    0x40e75e
  40e741:	jmp    0x40e746
  40e743:	mov    eax,DWORD PTR [ebp-0x8]
  40e746:	mov    ecx,DWORD PTR [ebx+0x50]
  40e749:	cmp    ecx,0xfffffff
  40e74f:	jne    0x40e6cb
  40e755:	cmp    DWORD PTR [ebx+0x4c],eax
  40e758:	jne    0x40e75e
  40e75a:	and    DWORD PTR [ebx+0x48],0x0
  40e75e:	mov    eax,DWORD PTR [ebx+0x3c]
  40e761:	test   eax,eax
  40e763:	je     0x40e771
  40e765:	cmp    eax,DWORD PTR [ebx+0x40]
  40e768:	jne    0x40e771
  40e76a:	mov    ecx,ebx
  40e76c:	call   0x40e787
  40e771:	mov    ecx,DWORD PTR [ebp-0x4]
  40e774:	pop    edi
  40e775:	pop    esi
  40e776:	xor    ecx,ebp
  40e778:	pop    ebx
  40e779:	call   0x4101d0
  40e77e:	mov    esp,ebp
  40e780:	pop    ebp
  40e781:	ret    
  40e782:	int3   
  40e783:	int3   
  40e784:	int3   
  40e785:	int3   
  40e786:	int3   
  40e787:	mov    edi,edi
  40e789:	push   ebp
  40e78a:	mov    ebp,esp
  40e78c:	sub    esp,0x14
  40e78f:	push   ebx
  40e790:	push   esi
  40e791:	push   edi
  40e792:	mov    edi,ecx
  40e794:	lea    edx,[ebp-0x4]
  40e797:	push   0x3b1
  40e79c:	push   0x402700
  40e7a1:	mov    eax,DWORD PTR [edi+0x30]
  40e7a4:	mov    DWORD PTR [ebp-0xc],eax
  40e7a7:	imul   eax,eax,0x14
  40e7aa:	mov    ecx,eax
  40e7ac:	mov    DWORD PTR [ebp-0x8],eax
  40e7af:	call   0x40e9ef
  40e7b4:	mov    ebx,DWORD PTR [ebp-0x4]
  40e7b7:	test   ebx,ebx
  40e7b9:	je     0x40e855
  40e7bf:	push   DWORD PTR [ebp-0x8]
  40e7c2:	lea    esi,[edi+0x24]
  40e7c5:	push   DWORD PTR [esi]
  40e7c7:	mov    DWORD PTR [ebp-0x10],esi
  40e7ca:	push   ebx
  40e7cb:	call   0x41085c
  40e7d0:	mov    edx,DWORD PTR [edi+0x30]
  40e7d3:	add    esp,0xc
  40e7d6:	mov    ecx,edi
  40e7d8:	call   0x40e861
  40e7dd:	mov    ecx,DWORD PTR [edi+0x38]
  40e7e0:	mov    eax,0xfffffff
  40e7e5:	and    DWORD PTR [edi+0x40],0x0
  40e7e9:	and    DWORD PTR [edi+0x34],0x0
  40e7ed:	mov    DWORD PTR [ebp-0x4],ecx
  40e7f0:	mov    DWORD PTR [edi+0x44],eax
  40e7f3:	mov    DWORD PTR [edi+0x38],eax
  40e7f6:	cmp    ecx,eax
  40e7f8:	je     0x40e842
  40e7fa:	cmp    ecx,DWORD PTR [ebp-0xc]
  40e7fd:	jae    0x40e83f
  40e7ff:	cmp    ecx,DWORD PTR [edi+0x30]
  40e802:	sbb    eax,eax
  40e804:	imul   esi,ecx,0x14
  40e807:	inc    eax
  40e808:	imul   edx,eax,0xc
  40e80b:	mov    ecx,DWORD PTR [esi+ebx*1+0x10]
  40e80f:	and    ecx,0xf
  40e812:	mov    eax,DWORD PTR [edx+edi*1+0x38]
  40e816:	shl    eax,0x4
  40e819:	or     ecx,eax
  40e81b:	mov    eax,DWORD PTR [ebp-0x4]
  40e81e:	mov    DWORD PTR [esi+ebx*1+0x10],ecx
  40e822:	inc    DWORD PTR [edx+edi*1+0x34]
  40e826:	mov    DWORD PTR [edx+edi*1+0x38],eax
  40e82a:	mov    eax,DWORD PTR [edi+0x24]
  40e82d:	mov    ecx,DWORD PTR [eax+esi*1+0x10]
  40e831:	shr    ecx,0x4
  40e834:	mov    DWORD PTR [ebp-0x4],ecx
  40e837:	cmp    ecx,0xfffffff
  40e83d:	jne    0x40e7fa
  40e83f:	mov    esi,DWORD PTR [ebp-0x10]
  40e842:	push   0x3e4
  40e847:	mov    edx,0x402700
  40e84c:	mov    ecx,esi
  40e84e:	call   0x40eac1
  40e853:	mov    DWORD PTR [esi],ebx
  40e855:	pop    edi
  40e856:	pop    esi
  40e857:	pop    ebx
  40e858:	mov    esp,ebp
  40e85a:	pop    ebp
  40e85b:	ret    
  40e85c:	int3   
  40e85d:	int3   
  40e85e:	int3   
  40e85f:	int3   
  40e860:	int3   
  40e861:	mov    edi,edi
  40e863:	push   esi
  40e864:	mov    esi,DWORD PTR [ecx+0x2c]
  40e867:	mov    DWORD PTR [ecx+0x28],edx
  40e86a:	cmp    edx,esi
  40e86c:	jne    0x40e874
  40e86e:	and    DWORD PTR [ecx+0x3c],0x0
  40e872:	jmp    0x40e898
  40e874:	mov    eax,esi
  40e876:	shl    eax,0x3
  40e879:	cmp    edx,eax
  40e87b:	jae    0x40e882
  40e87d:	mov    DWORD PTR [ecx+0x3c],esi
  40e880:	jmp    0x40e898
  40e882:	mov    eax,esi
  40e884:	shl    eax,0x4
  40e887:	cmp    edx,eax
  40e889:	jae    0x40e890
  40e88b:	lea    eax,[esi+esi*1]
  40e88e:	jmp    0x40e895
  40e890:	mov    eax,esi
  40e892:	shl    eax,0x2
  40e895:	mov    DWORD PTR [ecx+0x3c],eax
  40e898:	sub    edx,DWORD PTR [ecx+0x3c]
  40e89b:	mov    DWORD PTR [ecx+0x30],edx
  40e89e:	pop    esi
  40e89f:	ret    
  40e8a0:	int3   
  40e8a1:	int3   
  40e8a2:	int3   
  40e8a3:	int3   
  40e8a4:	int3   
  40e8a5:	mov    edi,edi
  40e8a7:	push   ebp
  40e8a8:	mov    ebp,esp
  40e8aa:	push   0x0
  40e8ac:	push   0x4
  40e8ae:	lea    eax,[ebp+0x10]
  40e8b1:	push   eax
  40e8b2:	push   0xc
  40e8b4:	push   0x402720
  40e8b9:	push   0x2b
  40e8bb:	push   DWORD PTR [ebp+0xc]
  40e8be:	push   DWORD PTR [ebp+0x8]
  40e8c1:	call   DWORD PTR ds:0x412214
  40e8c7:	add    esp,0x20
  40e8ca:	pop    ebp
  40e8cb:	ret    0xc
  40e8ce:	int3   
  40e8cf:	int3   
  40e8d0:	int3   
  40e8d1:	int3   
  40e8d2:	int3   
  40e8d3:	mov    edi,edi
  40e8d5:	push   ebp
  40e8d6:	mov    ebp,esp
  40e8d8:	mov    edx,DWORD PTR [ebp+0x10]
  40e8db:	push   esi
  40e8dc:	push   edi
  40e8dd:	test   edx,edx
  40e8df:	je     0x40e8f2
  40e8e1:	mov    esi,edx
  40e8e3:	lea    edi,[esi+0x1]
  40e8e6:	mov    al,BYTE PTR [esi]
  40e8e8:	inc    esi
  40e8e9:	test   al,al
  40e8eb:	jne    0x40e8e6
  40e8ed:	sub    esi,edi
  40e8ef:	inc    esi
  40e8f0:	jmp    0x40e8f5
  40e8f2:	push   0x5
  40e8f4:	pop    esi
  40e8f5:	test   edx,edx
  40e8f7:	jne    0x40e8fe
  40e8f9:	mov    edx,0x401518
  40e8fe:	push   0x0
  40e900:	push   0x4
  40e902:	lea    eax,[ebp+0x18]
  40e905:	push   eax
  40e906:	push   0x4
  40e908:	lea    eax,[ebp+0x14]
  40e90b:	push   eax
  40e90c:	push   esi
  40e90d:	push   edx
  40e90e:	push   ecx
  40e90f:	push   0x402710
  40e914:	push   0x2b
  40e916:	push   DWORD PTR [ebp+0xc]
  40e919:	push   DWORD PTR [ebp+0x8]
  40e91c:	call   DWORD PTR ds:0x412214
  40e922:	add    esp,0x30
  40e925:	pop    edi
  40e926:	pop    esi
  40e927:	pop    ebp
  40e928:	ret    0x14
  40e92b:	int3   
  40e92c:	int3   
  40e92d:	int3   
  40e92e:	int3   
  40e92f:	int3   
  40e930:	mov    edi,edi
  40e932:	push   ebp
  40e933:	mov    ebp,esp
  40e935:	mov    ecx,DWORD PTR [ebp+0x10]
  40e938:	push   esi
  40e939:	test   ecx,ecx
  40e93b:	je     0x40e94e
  40e93d:	mov    edx,ecx
  40e93f:	lea    esi,[edx+0x1]
  40e942:	mov    al,BYTE PTR [edx]
  40e944:	inc    edx
  40e945:	test   al,al
  40e947:	jne    0x40e942
  40e949:	sub    edx,esi
  40e94b:	inc    edx
  40e94c:	jmp    0x40e951
  40e94e:	push   0x5
  40e950:	pop    edx
  40e951:	test   ecx,ecx
  40e953:	jne    0x40e95a
  40e955:	mov    ecx,0x401518
  40e95a:	push   0x0
  40e95c:	push   0x4
  40e95e:	lea    eax,[ebp+0x18]
  40e961:	push   eax
  40e962:	push   0x4
  40e964:	lea    eax,[ebp+0x14]
  40e967:	push   eax
  40e968:	push   edx
  40e969:	push   ecx
  40e96a:	push   0xe
  40e96c:	push   0x402710
  40e971:	push   0x2b
  40e973:	push   DWORD PTR [ebp+0xc]
  40e976:	push   DWORD PTR [ebp+0x8]
  40e979:	call   DWORD PTR ds:0x412214
  40e97f:	add    esp,0x30
  40e982:	pop    esi
  40e983:	pop    ebp
  40e984:	ret    0x14
  40e987:	int3   
  40e988:	int3   
  40e989:	int3   
  40e98a:	int3   
  40e98b:	int3   
  40e98c:	mov    edi,edi
  40e98e:	push   ebp
  40e98f:	mov    ebp,esp
  40e991:	mov    edx,DWORD PTR [ebp+0x10]
  40e994:	push   esi
  40e995:	push   edi
  40e996:	test   edx,edx
  40e998:	je     0x40e9ab
  40e99a:	mov    esi,edx
  40e99c:	lea    edi,[esi+0x1]
  40e99f:	mov    al,BYTE PTR [esi]
  40e9a1:	inc    esi
  40e9a2:	test   al,al
  40e9a4:	jne    0x40e99f
  40e9a6:	sub    esi,edi
  40e9a8:	inc    esi
  40e9a9:	jmp    0x40e9ae
  40e9ab:	push   0x5
  40e9ad:	pop    esi
  40e9ae:	test   edx,edx
  40e9b0:	jne    0x40e9b7
  40e9b2:	mov    edx,0x401518
  40e9b7:	push   0x0
  40e9b9:	push   0x4
  40e9bb:	lea    eax,[ebp+0x1c]
  40e9be:	push   eax
  40e9bf:	push   0x4
  40e9c1:	lea    eax,[ebp+0x18]
  40e9c4:	push   eax
  40e9c5:	push   0x4
  40e9c7:	lea    eax,[ebp+0x14]
  40e9ca:	push   eax
  40e9cb:	push   esi
  40e9cc:	push   edx
  40e9cd:	push   ecx
  40e9ce:	push   0x402710
  40e9d3:	push   0x2b
  40e9d5:	push   DWORD PTR [ebp+0xc]
  40e9d8:	push   DWORD PTR [ebp+0x8]
  40e9db:	call   DWORD PTR ds:0x412214
  40e9e1:	add    esp,0x38
  40e9e4:	pop    edi
  40e9e5:	pop    esi
  40e9e6:	pop    ebp
  40e9e7:	ret    0x18
  40e9ea:	int3   
  40e9eb:	int3   
  40e9ec:	int3   
  40e9ed:	int3   
  40e9ee:	int3   
  40e9ef:	mov    edi,edi
  40e9f1:	push   ebp
  40e9f2:	mov    ebp,esp
  40e9f4:	sub    esp,0xc
  40e9f7:	push   ebx
  40e9f8:	push   esi
  40e9f9:	push   edi
  40e9fa:	xor    edi,edi
  40e9fc:	mov    DWORD PTR [ebp-0x8],edx
  40e9ff:	mov    ebx,ecx
  40ea01:	mov    esi,edi
  40ea03:	call   DWORD PTR ds:0x4120b8
  40ea09:	mov    DWORD PTR [ebp-0x4],eax
  40ea0c:	test   eax,eax
  40ea0e:	jne    0x40ea4c
  40ea10:	call   DWORD PTR ds:0x41208c
  40ea16:	mov    esi,eax
  40ea18:	test   esi,esi
  40ea1a:	je     0x40ea49
  40ea1c:	mov    eax,ds:0x411010
  40ea21:	cmp    eax,0x411010
  40ea26:	je     0x40eaac
  40ea2c:	test   BYTE PTR [eax+0x1c],0x4
  40ea30:	je     0x40eaac
  40ea32:	push   esi
  40ea33:	push   DWORD PTR [ebp+0xc]
  40ea36:	push   DWORD PTR [ebp+0x8]
  40ea39:	push   DWORD PTR [eax+0x14]
  40ea3c:	push   DWORD PTR [eax+0x10]
  40ea3f:	push   0xa
  40ea41:	pop    ecx
  40ea42:	call   0x40e8d3
  40ea47:	jmp    0x40eaac
  40ea49:	mov    eax,DWORD PTR [ebp-0x4]
  40ea4c:	push   ebx
  40ea4d:	push   0x8
  40ea4f:	push   eax
  40ea50:	call   DWORD PTR ds:0x4120bc
  40ea56:	mov    edi,eax
  40ea58:	test   edi,edi
  40ea5a:	jne    0x40ea84
  40ea5c:	push   0xe
  40ea5e:	pop    esi
  40ea5f:	mov    ecx,DWORD PTR ds:0x411010
  40ea65:	cmp    ecx,0x411010
  40ea6b:	je     0x40eaac
  40ea6d:	test   BYTE PTR [ecx+0x1c],0x4
  40ea71:	je     0x40eaac
  40ea73:	push   ebx
  40ea74:	push   DWORD PTR [ebp+0xc]
  40ea77:	push   DWORD PTR [ebp+0x8]
  40ea7a:	push   DWORD PTR [ecx+0x14]
  40ea7d:	push   DWORD PTR [ecx+0x10]
  40ea80:	push   0xb
  40ea82:	jmp    0x40ea41
  40ea84:	mov    eax,ds:0x411010
  40ea89:	cmp    eax,0x411010
  40ea8e:	je     0x40eaac
  40ea90:	test   BYTE PTR [eax+0x1c],0x2
  40ea94:	je     0x40eaac
  40ea96:	push   ebx
  40ea97:	push   edi
  40ea98:	push   DWORD PTR [ebp+0xc]
  40ea9b:	push   DWORD PTR [ebp+0x8]
  40ea9e:	push   DWORD PTR [eax+0x14]
  40eaa1:	push   DWORD PTR [eax+0x10]
  40eaa4:	push   0xc
  40eaa6:	pop    ecx
  40eaa7:	call   0x40e98c
  40eaac:	mov    eax,DWORD PTR [ebp-0x8]
  40eaaf:	mov    DWORD PTR [eax],edi
  40eab1:	mov    eax,esi
  40eab3:	pop    edi
  40eab4:	pop    esi
  40eab5:	pop    ebx
  40eab6:	mov    esp,ebp
  40eab8:	pop    ebp
  40eab9:	ret    0x8
  40eabc:	int3   
  40eabd:	int3   
  40eabe:	int3   
  40eabf:	int3   
  40eac0:	int3   
  40eac1:	mov    edi,edi
  40eac3:	push   ebp
  40eac4:	mov    ebp,esp
  40eac6:	push   ecx
  40eac7:	push   ecx
  40eac8:	push   ebx
  40eac9:	push   esi
  40eaca:	push   edi
  40eacb:	mov    esi,ecx
  40eacd:	mov    DWORD PTR [ebp-0x4],edx
  40ead0:	xor    edi,edi
  40ead2:	inc    edi
  40ead3:	cmp    DWORD PTR [esi],0x0
  40ead6:	je     0x40eb99
  40eadc:	call   DWORD PTR ds:0x4120b8
  40eae2:	mov    ebx,eax
  40eae4:	test   ebx,ebx
  40eae6:	jne    0x40eb27
  40eae8:	xor    edi,edi
  40eaea:	call   DWORD PTR ds:0x41208c
  40eaf0:	mov    ecx,eax
  40eaf2:	test   ecx,ecx
  40eaf4:	je     0x40eb27
  40eaf6:	mov    eax,ds:0x411010
  40eafb:	cmp    eax,0x411010
  40eb00:	je     0x40eb99
  40eb06:	test   BYTE PTR [eax+0x1c],0x4
  40eb0a:	je     0x40eb99
  40eb10:	push   ecx
  40eb11:	push   DWORD PTR [ebp+0x8]
  40eb14:	push   DWORD PTR [ebp-0x4]
  40eb17:	push   DWORD PTR [eax+0x14]
  40eb1a:	push   DWORD PTR [eax+0x10]
  40eb1d:	push   0xd
  40eb1f:	pop    ecx
  40eb20:	call   0x40e8d3
  40eb25:	jmp    0x40eb99
  40eb27:	push   DWORD PTR [esi]
  40eb29:	push   0x0
  40eb2b:	push   ebx
  40eb2c:	call   DWORD PTR ds:0x4120b0
  40eb32:	mov    edi,eax
  40eb34:	test   edi,edi
  40eb36:	je     0x40eb64
  40eb38:	mov    ecx,DWORD PTR ds:0x411010
  40eb3e:	cmp    ecx,0x411010
  40eb44:	je     0x40eb5f
  40eb46:	test   BYTE PTR [ecx+0x1c],0x2
  40eb4a:	je     0x40eb5f
  40eb4c:	push   DWORD PTR [esi]
  40eb4e:	push   DWORD PTR [ebp+0x8]
  40eb51:	push   DWORD PTR [ebp-0x4]
  40eb54:	push   DWORD PTR [ecx+0x14]
  40eb57:	push   DWORD PTR [ecx+0x10]
  40eb5a:	call   0x40e930
  40eb5f:	and    DWORD PTR [esi],0x0
  40eb62:	jmp    0x40eb99
  40eb64:	call   DWORD PTR ds:0x41208c
  40eb6a:	test   eax,eax
  40eb6c:	je     0x40eb99
  40eb6e:	mov    ecx,DWORD PTR ds:0x411010
  40eb74:	cmp    ecx,0x411010
  40eb7a:	je     0x40eb99
  40eb7c:	test   BYTE PTR [ecx+0x1c],0x4
  40eb80:	je     0x40eb99
  40eb82:	push   eax
  40eb83:	push   DWORD PTR [esi]
  40eb85:	push   DWORD PTR [ebp+0x8]
  40eb88:	push   DWORD PTR [ebp-0x4]
  40eb8b:	push   DWORD PTR [ecx+0x14]
  40eb8e:	push   DWORD PTR [ecx+0x10]
  40eb91:	push   0xf
  40eb93:	pop    ecx
  40eb94:	call   0x40e98c
  40eb99:	mov    eax,edi
  40eb9b:	pop    edi
  40eb9c:	pop    esi
  40eb9d:	pop    ebx
  40eb9e:	mov    esp,ebp
  40eba0:	pop    ebp
  40eba1:	ret    0x4
  40eba4:	int3   
  40eba5:	int3   
  40eba6:	int3   
  40eba7:	int3   
  40eba8:	int3   
  40eba9:	int3   
  40ebaa:	int3   
  40ebab:	int3   
  40ebac:	int3   
  40ebad:	int3   
  40ebae:	int3   
  40ebaf:	int3   
  40ebb0:	mov    edi,edi
  40ebb2:	push   ebp
  40ebb3:	mov    ebp,esp
  40ebb5:	mov    ecx,DWORD PTR [ebp+0x8]
  40ebb8:	call   0x40fe88
  40ebbd:	pop    ebp
  40ebbe:	ret    0x4
  40ebc1:	int3   
  40ebc2:	int3   
  40ebc3:	int3   
  40ebc4:	int3   
  40ebc5:	int3   
  40ebc6:	int3   
  40ebc7:	int3   
  40ebc8:	int3   
  40ebc9:	int3   
  40ebca:	int3   
  40ebcb:	int3   
  40ebcc:	int3   
  40ebcd:	int3   
  40ebce:	int3   
  40ebcf:	int3   
  40ebd0:	mov    edi,edi
  40ebd2:	push   ebp
  40ebd3:	mov    ebp,esp
  40ebd5:	mov    ecx,DWORD PTR [ebp+0x8]
  40ebd8:	test   ecx,ecx
  40ebda:	je     0x40ebe1
  40ebdc:	call   0x40fecc
  40ebe1:	pop    ebp
  40ebe2:	ret    0x4
  40ebe5:	int3   
  40ebe6:	int3   
  40ebe7:	int3   
  40ebe8:	int3   
  40ebe9:	int3   
  40ebea:	mov    ecx,DWORD PTR ds:0x411020
  40ebf0:	push   esi
  40ebf1:	call   0x40e188
  40ebf6:	mov    eax,ds:0x411020
  40ebfb:	xor    esi,esi
  40ebfd:	push   eax
  40ebfe:	mov    DWORD PTR ds:0x411468,0x1
  40ec08:	mov    DWORD PTR [eax+0x40],esi
  40ec0b:	call   DWORD PTR ds:0x412148
  40ec11:	cmp    DWORD PTR ds:0x41146c,esi
  40ec17:	je     0x40ec34
  40ec19:	call   0x40f2af
  40ec1e:	mov    DWORD PTR ds:0x41146c,esi
  40ec24:	jmp    0x40ec34
  40ec26:	call   DWORD PTR ds:0x412148
  40ec2c:	push   0x32
  40ec2e:	call   DWORD PTR ds:0x41212c
  40ec34:	mov    ecx,DWORD PTR ds:0x411020
  40ec3a:	call   0x40e188
  40ec3f:	mov    eax,ds:0x411020
  40ec44:	cmp    DWORD PTR ds:0x411464,esi
  40ec4a:	push   eax
  40ec4b:	mov    DWORD PTR [eax+0x40],esi
  40ec4e:	jne    0x40ec26
  40ec50:	call   DWORD PTR ds:0x412148
  40ec56:	mov    ecx,DWORD PTR ds:0x411020
  40ec5c:	pop    esi
  40ec5d:	jmp    0x40e0f8
  40ec62:	int3   
  40ec63:	int3   
  40ec64:	int3   
  40ec65:	int3   
  40ec66:	int3   
  40ec67:	mov    edi,edi
  40ec69:	push   ebp
  40ec6a:	mov    ebp,esp
  40ec6c:	push   0x0
  40ec6e:	push   0x8
  40ec70:	lea    eax,[ebp+0x10]
  40ec73:	push   eax
  40ec74:	push   0xd
  40ec76:	push   0x402720
  40ec7b:	push   0x2b
  40ec7d:	push   DWORD PTR [ebp+0xc]
  40ec80:	push   DWORD PTR [ebp+0x8]
  40ec83:	call   DWORD PTR ds:0x412184
  40ec89:	add    esp,0x20
  40ec8c:	pop    ebp
  40ec8d:	ret    0x10
  40ec90:	int3   
  40ec91:	int3   
  40ec92:	int3   
  40ec93:	int3   
  40ec94:	int3   
  40ec95:	mov    edi,edi
  40ec97:	push   ebp
  40ec98:	mov    ebp,esp
  40ec9a:	push   0x0
  40ec9c:	push   0x8
  40ec9e:	lea    eax,[ebp+0x18]
  40eca1:	push   eax
  40eca2:	push   0x8
  40eca4:	lea    eax,[ebp+0x10]
  40eca7:	push   eax
  40eca8:	push   0xb
  40ecaa:	push   0x402720
  40ecaf:	push   0x2b
  40ecb1:	push   DWORD PTR [ebp+0xc]
  40ecb4:	push   DWORD PTR [ebp+0x8]
  40ecb7:	call   DWORD PTR ds:0x412184
  40ecbd:	add    esp,0x28
  40ecc0:	pop    ebp
  40ecc1:	ret    0x18
  40ecc4:	int3   
  40ecc5:	int3   
  40ecc6:	int3   
  40ecc7:	int3   
  40ecc8:	int3   
  40ecc9:	mov    edi,edi
  40eccb:	push   ebp
  40eccc:	mov    ebp,esp
  40ecce:	push   ecx
  40eccf:	push   esi
  40ecd0:	mov    esi,ecx
  40ecd2:	mov    ecx,DWORD PTR ds:0x411020
  40ecd8:	call   0x40e144
  40ecdd:	test   esi,esi
  40ecdf:	je     0x40ecf3
  40ece1:	or     eax,0xffffffff
  40ece4:	lock xadd DWORD PTR [esi+0x10],eax
  40ece9:	dec    eax
  40ecea:	jne    0x40ecf3
  40ecec:	mov    ecx,esi
  40ecee:	call   0x40fecc
  40ecf3:	mov    ecx,DWORD PTR ds:0x411020
  40ecf9:	call   0x40e1b0
  40ecfe:	pop    esi
  40ecff:	mov    esp,ebp
  40ed01:	pop    ebp
  40ed02:	ret    
  40ed03:	int3   
  40ed04:	int3   
  40ed05:	int3   
  40ed06:	int3   
  40ed07:	int3   
  40ed08:	mov    edi,edi
  40ed0a:	push   ebp
  40ed0b:	mov    ebp,esp
  40ed0d:	push   ecx
  40ed0e:	push   esi
  40ed0f:	mov    esi,ecx
  40ed11:	mov    ecx,DWORD PTR ds:0x411020
  40ed17:	call   0x40e144
  40ed1c:	test   esi,esi
  40ed1e:	je     0x40ed3d
  40ed20:	or     eax,0xffffffff
  40ed23:	lock xadd DWORD PTR [esi+0x28],eax
  40ed28:	dec    eax
  40ed29:	jne    0x40ed3d
  40ed2b:	mov    eax,DWORD PTR [esi+0x4]
  40ed2e:	and    DWORD PTR [esi+0x4],0x0
  40ed32:	test   eax,eax
  40ed34:	je     0x40ed3d
  40ed36:	push   eax
  40ed37:	call   DWORD PTR ds:0x4120a8
  40ed3d:	mov    ecx,DWORD PTR ds:0x411020
  40ed43:	call   0x40e1b0
  40ed48:	pop    esi
  40ed49:	mov    esp,ebp
  40ed4b:	pop    ebp
  40ed4c:	ret    
  40ed4d:	int3   
  40ed4e:	int3   
  40ed4f:	int3   
  40ed50:	int3   
  40ed51:	int3   
  40ed52:	mov    edi,edi
  40ed54:	push   ebp
  40ed55:	mov    ebp,esp
  40ed57:	push   esi
  40ed58:	push   edi
  40ed59:	push   0x30
  40ed5b:	pop    ecx
  40ed5c:	call   0x40fe88
  40ed61:	mov    esi,eax
  40ed63:	test   esi,esi
  40ed65:	jne    0x40ed75
  40ed67:	call   DWORD PTR ds:0x41208c
  40ed6d:	mov    edi,eax
  40ed6f:	test   edi,edi
  40ed71:	je     0x40ed75
  40ed73:	jmp    0x40ed84
  40ed75:	push   0x30
  40ed77:	push   0x0
  40ed79:	push   esi
  40ed7a:	call   0x410868
  40ed7f:	add    esp,0xc
  40ed82:	xor    edi,edi
  40ed84:	test   edi,edi
  40ed86:	jne    0x40edb5
  40ed88:	mov    ecx,DWORD PTR ds:0x411020
  40ed8e:	call   0x40e188
  40ed93:	push   DWORD PTR [ebp+0x8]
  40ed96:	lea    edx,[esi+0x4]
  40ed99:	call   0x40f64c
  40ed9e:	mov    edi,eax
  40eda0:	test   edi,edi
  40eda2:	je     0x40edce
  40eda4:	mov    ecx,DWORD PTR ds:0x411020
  40edaa:	push   ecx
  40edab:	and    DWORD PTR [ecx+0x40],0x0
  40edaf:	call   DWORD PTR ds:0x412148
  40edb5:	test   esi,esi
  40edb7:	je     0x40edc0
  40edb9:	mov    ecx,esi
  40edbb:	call   0x40fecc
  40edc0:	mov    eax,DWORD PTR [ebp+0x10]
  40edc3:	and    DWORD PTR [eax],0x0
  40edc6:	mov    eax,edi
  40edc8:	pop    edi
  40edc9:	pop    esi
  40edca:	pop    ebp
  40edcb:	ret    0xc
  40edce:	mov    eax,ds:0x41146c
  40edd3:	mov    DWORD PTR [esi],eax
  40edd5:	mov    DWORD PTR ds:0x41146c,esi
  40eddb:	lock inc DWORD PTR [esi+0x10]
  40eddf:	lock inc DWORD PTR [esi+0x28]
  40ede3:	mov    eax,DWORD PTR [ebp+0x10]
  40ede6:	mov    DWORD PTR [eax],esi
  40ede8:	mov    eax,ds:0x411020
  40eded:	push   eax
  40edee:	and    DWORD PTR [eax+0x40],0x0
  40edf2:	call   DWORD PTR ds:0x412148
  40edf8:	xor    eax,eax
  40edfa:	jmp    0x40edc8
  40edfc:	int3   
  40edfd:	int3   
  40edfe:	int3   
  40edff:	int3   
  40ee00:	int3   
  40ee01:	mov    edi,edi
  40ee03:	push   ebp
  40ee04:	mov    ebp,esp
  40ee06:	and    esp,0xfffffff8
  40ee09:	sub    esp,0xc
  40ee0c:	push   ebx
  40ee0d:	push   esi
  40ee0e:	push   edi
  40ee0f:	lea    eax,[esp+0xc]
  40ee13:	mov    edi,ecx
  40ee15:	push   eax
  40ee16:	push   DWORD PTR [ebp+0x8]
  40ee19:	xor    ecx,ecx
  40ee1b:	push   edx
  40ee1c:	push   ecx
  40ee1d:	mov    DWORD PTR [esp+0x24],ecx
  40ee21:	mov    edx,0x40ef00
  40ee26:	mov    DWORD PTR [esp+0x20],ecx
  40ee2a:	mov    DWORD PTR [esp+0x1c],ecx
  40ee2e:	lea    ecx,[esp+0x20]
  40ee32:	push   edi
  40ee33:	call   0x40f4e8
  40ee38:	mov    ebx,DWORD PTR [esp+0x10]
  40ee3c:	mov    esi,eax
  40ee3e:	test   esi,esi
  40ee40:	jne    0x40eedc
  40ee46:	mov    eax,DWORD PTR [esp+0xc]
  40ee4a:	lea    edx,[esp+0x14]
  40ee4e:	mov    ecx,edi
  40ee50:	mov    DWORD PTR [ebx+0x1c],eax
  40ee53:	call   0x40f246
  40ee58:	mov    esi,eax
  40ee5a:	test   esi,esi
  40ee5c:	jne    0x40eedc
  40ee5e:	mov    ecx,DWORD PTR ds:0x411020
  40ee64:	call   0x40e144
  40ee69:	mov    edi,DWORD PTR [esp+0x14]
  40ee6d:	cmp    DWORD PTR ds:0x411468,esi
  40ee73:	je     0x40ee7c
  40ee75:	mov    esi,0x12f
  40ee7a:	jmp    0x40eec6
  40ee7c:	mov    eax,DWORD PTR [ebp+0x8]
  40ee7f:	push   ebx
  40ee80:	push   0x0
  40ee82:	push   eax
  40ee83:	push   DWORD PTR [esp+0x18]
  40ee87:	mov    DWORD PTR [edi+0xc],eax
  40ee8a:	push   DWORD PTR [edi+0x4]
  40ee8d:	call   DWORD PTR ds:0x4120a0
  40ee93:	test   eax,eax
  40ee95:	jne    0x40eeb1
  40ee97:	call   DWORD PTR ds:0x41208c
  40ee9d:	mov    esi,eax
  40ee9f:	cmp    esi,0x3e5
  40eea5:	je     0x40eeaf
  40eea7:	cmp    esi,0xea
  40eead:	jne    0x40eeb1
  40eeaf:	xor    esi,esi
  40eeb1:	xor    eax,eax
  40eeb3:	test   esi,esi
  40eeb5:	sete   al
  40eeb8:	mov    DWORD PTR [edi+0x8],eax
  40eebb:	test   esi,esi
  40eebd:	jne    0x40eec6
  40eebf:	lock inc DWORD PTR ds:0x411464
  40eec6:	mov    ecx,DWORD PTR ds:0x411020
  40eecc:	call   0x40e1b0
  40eed1:	mov    ecx,edi
  40eed3:	call   0x40ecc9
  40eed8:	test   esi,esi
  40eeda:	je     0x40eee9
  40eedc:	test   ebx,ebx
  40eede:	je     0x40eee9
  40eee0:	lea    ecx,[esp+0x10]
  40eee4:	call   0x40f584
  40eee9:	pop    edi
  40eeea:	mov    eax,esi
  40eeec:	pop    esi
  40eeed:	pop    ebx
  40eeee:	mov    esp,ebp
  40eef0:	pop    ebp
  40eef1:	ret    0x4
  40eef4:	int3   
  40eef5:	int3   
  40eef6:	int3   
  40eef7:	int3   
  40eef8:	int3   
  40eef9:	int3   
  40eefa:	int3   
  40eefb:	int3   
  40eefc:	int3   
  40eefd:	int3   
  40eefe:	int3   
  40eeff:	int3   
  40ef00:	mov    edi,edi
  40ef02:	push   ebp
  40ef03:	mov    ebp,esp
  40ef05:	and    esp,0xfffffff8
  40ef08:	sub    esp,0x14
  40ef0b:	mov    eax,DWORD PTR [ebp+0x10]
  40ef0e:	push   ebx
  40ef0f:	push   esi
  40ef10:	push   edi
  40ef11:	mov    edx,DWORD PTR [eax+0x20]
  40ef14:	xor    edi,edi
  40ef16:	mov    ecx,DWORD PTR [eax+0x18]
  40ef19:	mov    ebx,DWORD PTR [eax+0x1c]
  40ef1c:	mov    eax,DWORD PTR [ebp+0x8]
  40ef1f:	mov    DWORD PTR [esp+0x10],edi
  40ef23:	mov    DWORD PTR [esp+0x1c],edx
  40ef27:	mov    DWORD PTR [esp+0xc],edi
  40ef2b:	cmp    eax,0xc0000240
  40ef30:	jne    0x40ef39
  40ef32:	xor    eax,eax
  40ef34:	jmp    0x40f1df
  40ef39:	cmp    eax,0x80000005
  40ef3e:	jne    0x40ef4e
  40ef40:	mov    eax,DWORD PTR [ebx+0x4]
  40ef43:	add    eax,0x8
  40ef46:	push   eax
  40ef47:	call   0x40ee01
  40ef4c:	jmp    0x40ef32
  40ef4e:	test   eax,eax
  40ef50:	jne    0x40f1db
  40ef56:	lea    edx,[esp+0x10]
  40ef5a:	call   0x40f246
  40ef5f:	test   eax,eax
  40ef61:	jne    0x40f1db
  40ef67:	cmp    DWORD PTR [ebx],0x2
  40ef6a:	jne    0x40efe9
  40ef6c:	cmp    DWORD PTR [ebx+0x4],0xc
  40ef70:	jb     0x40ef8d
  40ef72:	cmp    BYTE PTR [ebx+0x11],al
  40ef75:	jne    0x40ef8d
  40ef77:	cmp    BYTE PTR [ebx+0x14],0x4
  40ef7b:	jne    0x40ef8d
  40ef7d:	mov    eax,0x8e88
  40ef82:	cmp    WORD PTR [ebx+0xe],ax
  40ef86:	jne    0x40ef8d
  40ef88:	xor    eax,eax
  40ef8a:	inc    eax
  40ef8b:	jmp    0x40ef8f
  40ef8d:	mov    eax,edi
  40ef8f:	mov    esi,DWORD PTR [esp+0x10]
  40ef93:	mov    DWORD PTR [esi+0x18],eax
  40ef96:	test   eax,eax
  40ef98:	je     0x40f120
  40ef9e:	call   DWORD PTR ds:0x41215c
  40efa4:	mov    DWORD PTR [esi+0x20],eax
  40efa7:	mov    DWORD PTR [esi+0x24],edx
  40efaa:	mov    eax,ds:0x411010
  40efaf:	cmp    eax,0x411010
  40efb4:	je     0x40f120
  40efba:	cmp    BYTE PTR [eax+0x69],0x3
  40efbe:	jb     0x40f120
  40efc4:	test   DWORD PTR [eax+0x6c],0x100
  40efcb:	je     0x40f120
  40efd1:	push   DWORD PTR [eax+0x64]
  40efd4:	mov    edx,0x402720
  40efd9:	push   DWORD PTR [eax+0x60]
  40efdc:	push   0xa
  40efde:	pop    ecx
  40efdf:	call   0x402ad5
  40efe4:	jmp    0x40f120
  40efe9:	cmp    DWORD PTR [ebx],0x1
  40efec:	mov    esi,DWORD PTR [esp+0x10]
  40eff0:	jne    0x40f0ea
  40eff6:	cmp    DWORD PTR [esi+0x18],edi
  40eff9:	je     0x40f120
  40efff:	call   DWORD PTR ds:0x41215c
  40f005:	mov    ecx,edx
  40f007:	mov    DWORD PTR [esp+0x18],eax
  40f00b:	mov    edx,DWORD PTR [esi+0x20]
  40f00e:	mov    DWORD PTR [esp+0x14],ecx
  40f012:	cmp    ecx,DWORD PTR [esi+0x24]
  40f015:	jb     0x40f028
  40f017:	ja     0x40f01d
  40f019:	cmp    eax,edx
  40f01b:	jb     0x40f028
  40f01d:	mov    edi,eax
  40f01f:	mov    eax,ecx
  40f021:	sub    edi,edx
  40f023:	sbb    eax,DWORD PTR [esi+0x24]
  40f026:	jmp    0x40f038
  40f028:	mov    edi,eax
  40f02a:	mov    eax,ecx
  40f02c:	sub    edi,edx
  40f02e:	sbb    eax,DWORD PTR [esi+0x24]
  40f031:	or     ecx,0xffffffff
  40f034:	add    edi,ecx
  40f036:	adc    eax,ecx
  40f038:	cmp    DWORD PTR [esi+0x18],0x0
  40f03c:	mov    DWORD PTR [esp+0x10],eax
  40f040:	je     0x40f076
  40f042:	mov    ecx,DWORD PTR ds:0x411010
  40f048:	cmp    ecx,0x411010
  40f04e:	je     0x40f07c
  40f050:	cmp    BYTE PTR [ecx+0x69],0x3
  40f054:	jb     0x40f07c
  40f056:	test   DWORD PTR [ecx+0x6c],0x100
  40f05d:	je     0x40f07c
  40f05f:	push   DWORD PTR [esp+0x14]
  40f063:	push   DWORD PTR [esp+0x1c]
  40f067:	push   DWORD PTR [esi+0x24]
  40f06a:	push   edx
  40f06b:	push   DWORD PTR [ecx+0x64]
  40f06e:	push   DWORD PTR [ecx+0x60]
  40f071:	call   0x40ec95
  40f076:	mov    ecx,DWORD PTR ds:0x411010
  40f07c:	mov    edx,DWORD PTR [esp+0x10]
  40f080:	test   edx,edx
  40f082:	ja     0x40f0c0
  40f084:	push   0x64
  40f086:	pop    eax
  40f087:	jb     0x40f08d
  40f089:	cmp    edi,eax
  40f08b:	jae    0x40f0c0
  40f08d:	cmp    ecx,0x411010
  40f093:	je     0x40f0b5
  40f095:	cmp    BYTE PTR [ecx+0x69],0x3
  40f099:	jb     0x40f0b5
  40f09b:	test   DWORD PTR [ecx+0x6c],0x100
  40f0a2:	je     0x40f0b5
  40f0a4:	sub    eax,edi
  40f0a6:	push   eax
  40f0a7:	push   DWORD PTR [ecx+0x64]
  40f0aa:	push   DWORD PTR [ecx+0x60]
  40f0ad:	call   0x40e8a5
  40f0b2:	push   0x64
  40f0b4:	pop    eax
  40f0b5:	sub    eax,edi
  40f0b7:	push   eax
  40f0b8:	call   DWORD PTR ds:0x41212c
  40f0be:	jmp    0x40f0e4
  40f0c0:	cmp    ecx,0x411010
  40f0c6:	je     0x40f0e4
  40f0c8:	cmp    BYTE PTR [ecx+0x69],0x3
  40f0cc:	jb     0x40f0e4
  40f0ce:	test   DWORD PTR [ecx+0x6c],0x100
  40f0d5:	je     0x40f0e4
  40f0d7:	push   edx
  40f0d8:	push   edi
  40f0d9:	push   DWORD PTR [ecx+0x64]
  40f0dc:	push   DWORD PTR [ecx+0x60]
  40f0df:	call   0x40ec67
  40f0e4:	and    DWORD PTR [esi+0x18],0x0
  40f0e8:	jmp    0x40f120
  40f0ea:	cmp    DWORD PTR [esi+0x18],edi
  40f0ed:	je     0x40f11d
  40f0ef:	mov    eax,ds:0x411010
  40f0f4:	cmp    eax,0x411010
  40f0f9:	je     0x40f11d
  40f0fb:	cmp    BYTE PTR [eax+0x69],0x3
  40f0ff:	jb     0x40f11d
  40f101:	test   DWORD PTR [eax+0x6c],0x100
  40f108:	je     0x40f11d
  40f10a:	push   DWORD PTR [eax+0x64]
  40f10d:	mov    edx,0x402720
  40f112:	push   DWORD PTR [eax+0x60]
  40f115:	push   0xe
  40f117:	pop    ecx
  40f118:	call   0x402ad5
  40f11d:	mov    DWORD PTR [esi+0x18],edi
  40f120:	mov    ecx,DWORD PTR [esp+0x1c]
  40f124:	mov    edx,ebx
  40f126:	call   0x40d7e2
  40f12b:	mov    ecx,DWORD PTR ds:0x411020
  40f131:	call   0x40e144
  40f136:	cmp    DWORD PTR ds:0x411468,0x0
  40f13d:	jne    0x40f1c3
  40f143:	lea    edi,[esi+0x28]
  40f146:	lock inc DWORD PTR [edi]
  40f149:	mov    eax,DWORD PTR [esi+0x4]
  40f14c:	test   eax,eax
  40f14e:	je     0x40f1a1
  40f150:	cmp    eax,0xffffffff
  40f153:	je     0x40f1a1
  40f155:	push   DWORD PTR [ebp+0x10]
  40f158:	push   0x0
  40f15a:	push   DWORD PTR [esi+0xc]
  40f15d:	push   ebx
  40f15e:	push   eax
  40f15f:	call   DWORD PTR ds:0x4120a0
  40f165:	mov    ecx,eax
  40f167:	mov    DWORD PTR [esp+0xc],ecx
  40f16b:	test   ecx,ecx
  40f16d:	jne    0x40f194
  40f16f:	call   DWORD PTR ds:0x41208c
  40f175:	cmp    eax,0x3e5
  40f17a:	je     0x40f183
  40f17c:	cmp    eax,0xea
  40f181:	jne    0x40f18a
  40f183:	xor    ebx,ebx
  40f185:	xor    eax,eax
  40f187:	inc    ebx
  40f188:	jmp    0x40f18e
  40f18a:	mov    ebx,DWORD PTR [esp+0xc]
  40f18e:	test   eax,eax
  40f190:	jne    0x40f1a5
  40f192:	jmp    0x40f198
  40f194:	mov    ebx,DWORD PTR [esp+0xc]
  40f198:	lock inc DWORD PTR ds:0x411464
  40f19f:	jmp    0x40f1a5
  40f1a1:	mov    ebx,DWORD PTR [esp+0xc]
  40f1a5:	or     eax,0xffffffff
  40f1a8:	lock xadd DWORD PTR [edi],eax
  40f1ac:	dec    eax
  40f1ad:	jne    0x40f1c7
  40f1af:	mov    eax,DWORD PTR [esi+0x4]
  40f1b2:	and    DWORD PTR [esi+0x4],0x0
  40f1b6:	test   eax,eax
  40f1b8:	je     0x40f1c7
  40f1ba:	push   eax
  40f1bb:	call   DWORD PTR ds:0x4120a8
  40f1c1:	jmp    0x40f1c7
  40f1c3:	mov    ebx,DWORD PTR [esp+0xc]
  40f1c7:	mov    ecx,DWORD PTR ds:0x411020
  40f1cd:	call   0x40e1b0
  40f1d2:	mov    ecx,esi
  40f1d4:	call   0x40ecc9
  40f1d9:	jmp    0x40f1dd
  40f1db:	mov    ebx,edi
  40f1dd:	mov    eax,ebx
  40f1df:	pop    edi
  40f1e0:	pop    esi
  40f1e1:	pop    ebx
  40f1e2:	mov    esp,ebp
  40f1e4:	pop    ebp
  40f1e5:	ret    0xc
  40f1e8:	int3   
  40f1e9:	int3   
  40f1ea:	int3   
  40f1eb:	int3   
  40f1ec:	int3   
  40f1ed:	mov    edi,edi
  40f1ef:	push   esi
  40f1f0:	mov    esi,ecx
  40f1f2:	mov    ecx,DWORD PTR ds:0x411020
  40f1f8:	call   0x40e188
  40f1fd:	xor    ecx,ecx
  40f1ff:	mov    edx,0x41146c
  40f204:	cmp    DWORD PTR ds:0x41146c,ecx
  40f20a:	je     0x40f218
  40f20c:	mov    eax,DWORD PTR [edx]
  40f20e:	cmp    eax,esi
  40f210:	je     0x40f218
  40f212:	mov    edx,eax
  40f214:	cmp    DWORD PTR [edx],ecx
  40f216:	jne    0x40f20c
  40f218:	cmp    DWORD PTR [edx],ecx
  40f21a:	je     0x40f220
  40f21c:	mov    eax,DWORD PTR [esi]
  40f21e:	mov    DWORD PTR [edx],eax
  40f220:	mov    eax,ds:0x411020
  40f225:	push   eax
  40f226:	mov    DWORD PTR [eax+0x40],ecx
  40f229:	call   DWORD PTR ds:0x412148
  40f22f:	mov    ecx,esi
  40f231:	call   0x40ed08
  40f236:	mov    ecx,esi
  40f238:	call   0x40ecc9
  40f23d:	xor    eax,eax
  40f23f:	pop    esi
  40f240:	ret    
  40f241:	int3   
  40f242:	int3   
  40f243:	int3   
  40f244:	int3   
  40f245:	int3   
  40f246:	mov    edi,edi
  40f248:	push   ebp
  40f249:	mov    ebp,esp
  40f24b:	push   ecx
  40f24c:	push   ebx
  40f24d:	push   esi
  40f24e:	push   edi
  40f24f:	push   0x6
  40f251:	mov    DWORD PTR [ebp-0x4],ecx
  40f254:	mov    ebx,edx
  40f256:	mov    ecx,DWORD PTR ds:0x411020
  40f25c:	pop    edi
  40f25d:	call   0x40e144
  40f262:	and    DWORD PTR [ebx],0x0
  40f265:	mov    esi,0x41146c
  40f26a:	mov    eax,ds:0x41146c
  40f26f:	test   eax,eax
  40f271:	je     0x40f282
  40f273:	mov    ecx,DWORD PTR [ebp-0x4]
  40f276:	cmp    eax,ecx
  40f278:	je     0x40f282
  40f27a:	mov    esi,eax
  40f27c:	mov    eax,DWORD PTR [esi]
  40f27e:	test   eax,eax
  40f280:	jne    0x40f276
  40f282:	mov    eax,DWORD PTR [esi]
  40f284:	test   eax,eax
  40f286:	je     0x40f296
  40f288:	cmp    DWORD PTR [eax+0x14],0x0
  40f28c:	jne    0x40f296
  40f28e:	mov    DWORD PTR [ebx],eax
  40f290:	lock inc DWORD PTR [eax+0x10]
  40f294:	xor    edi,edi
  40f296:	mov    ecx,DWORD PTR ds:0x411020
  40f29c:	call   0x40e1b0
  40f2a1:	mov    eax,edi
  40f2a3:	pop    edi
  40f2a4:	pop    esi
  40f2a5:	pop    ebx
  40f2a6:	mov    esp,ebp
  40f2a8:	pop    ebp
  40f2a9:	ret    
  40f2aa:	int3   
  40f2ab:	int3   
  40f2ac:	int3   
  40f2ad:	int3   
  40f2ae:	int3   
  40f2af:	mov    ecx,DWORD PTR ds:0x411020
  40f2b5:	push   edi
  40f2b6:	call   0x40e188
  40f2bb:	mov    edi,DWORD PTR ds:0x41146c
  40f2c1:	test   edi,edi
  40f2c3:	je     0x40f2dd
  40f2c5:	push   esi
  40f2c6:	mov    esi,edi
  40f2c8:	mov    edi,DWORD PTR [edi]
  40f2ca:	mov    ecx,esi
  40f2cc:	call   0x40ed08
  40f2d1:	mov    ecx,esi
  40f2d3:	call   0x40ecc9
  40f2d8:	test   edi,edi
  40f2da:	jne    0x40f2c6
  40f2dc:	pop    esi
  40f2dd:	mov    eax,ds:0x411020
  40f2e2:	push   eax
  40f2e3:	and    DWORD PTR [eax+0x40],0x0
  40f2e7:	call   DWORD PTR ds:0x412148
  40f2ed:	pop    edi
  40f2ee:	ret    
  40f2ef:	int3   
  40f2f0:	int3   
  40f2f1:	int3   
  40f2f2:	int3   
  40f2f3:	int3   
  40f2f4:	mov    edi,edi
  40f2f6:	push   ebp
  40f2f7:	mov    ebp,esp
  40f2f9:	push   ecx
  40f2fa:	and    DWORD PTR [ebp-0x4],0x0
  40f2fe:	lea    edx,[ebp-0x4]
  40f301:	push   ebx
  40f302:	push   esi
  40f303:	call   0x40f246
  40f308:	mov    ebx,DWORD PTR [ebp-0x4]
  40f30b:	mov    esi,eax
  40f30d:	test   esi,esi
  40f30f:	jne    0x40f34c
  40f311:	and    DWORD PTR [ebp-0x4],0x0
  40f315:	lea    eax,[ebp-0x4]
  40f318:	push   edi
  40f319:	mov    edi,DWORD PTR [ebp+0x10]
  40f31c:	mov    edx,0x12c194
  40f321:	push   ecx
  40f322:	mov    ecx,DWORD PTR [ebx+0x4]
  40f325:	push   eax
  40f326:	push   DWORD PTR [edi]
  40f328:	push   DWORD PTR [ebp+0x14]
  40f32b:	push   DWORD PTR [ebp+0x8]
  40f32e:	push   DWORD PTR [ebp+0xc]
  40f331:	call   0x40f765
  40f336:	test   eax,eax
  40f338:	jne    0x40f344
  40f33a:	call   DWORD PTR ds:0x41208c
  40f340:	mov    esi,eax
  40f342:	jmp    0x40f346
  40f344:	xor    esi,esi
  40f346:	mov    eax,DWORD PTR [ebp-0x4]
  40f349:	mov    DWORD PTR [edi],eax
  40f34b:	pop    edi
  40f34c:	mov    ecx,ebx
  40f34e:	call   0x40ecc9
  40f353:	mov    eax,esi
  40f355:	pop    esi
  40f356:	pop    ebx
  40f357:	mov    esp,ebp
  40f359:	pop    ebp
  40f35a:	ret    0x10
  40f35d:	int3   
  40f35e:	int3   
  40f35f:	int3   
  40f360:	int3   
  40f361:	int3   
  40f362:	mov    edi,edi
  40f364:	push   ebp
  40f365:	mov    ebp,esp
  40f367:	push   ecx
  40f368:	and    DWORD PTR [ebp-0x4],0x0
  40f36c:	cmp    DWORD PTR [ebp+0x10],0x10000
  40f373:	push   edi
  40f374:	mov    edi,edx
  40f376:	jbe    0x40f37d
  40f378:	push   0x57
  40f37a:	pop    eax
  40f37b:	jmp    0x40f3bb
  40f37d:	cmp    DWORD PTR [ebp+0x8],0x0
  40f381:	je     0x40f389
  40f383:	cmp    DWORD PTR [ebp+0xc],0x0
  40f387:	je     0x40f378
  40f389:	push   esi
  40f38a:	lea    edx,[ebp-0x4]
  40f38d:	call   0x40f246
  40f392:	mov    esi,eax
  40f394:	test   esi,esi
  40f396:	jne    0x40f3b0
  40f398:	push   DWORD PTR [ebp+0x14]
  40f39b:	push   DWORD PTR [ebp+0x10]
  40f39e:	push   DWORD PTR [ebp+0xc]
  40f3a1:	push   DWORD PTR [ebp+0x8]
  40f3a4:	push   edi
  40f3a5:	push   ecx
  40f3a6:	mov    ecx,DWORD PTR [ebp-0x4]
  40f3a9:	call   0x40fd69
  40f3ae:	mov    esi,eax
  40f3b0:	mov    ecx,DWORD PTR [ebp-0x4]
  40f3b3:	call   0x40ecc9
  40f3b8:	mov    eax,esi
  40f3ba:	pop    esi
  40f3bb:	pop    edi
  40f3bc:	mov    esp,ebp
  40f3be:	pop    ebp
  40f3bf:	ret    0x10
  40f3c2:	int3   
  40f3c3:	int3   
  40f3c4:	int3   
  40f3c5:	int3   
  40f3c6:	int3   
  40f3c7:	mov    edi,edi
  40f3c9:	push   ebp
  40f3ca:	mov    ebp,esp
  40f3cc:	sub    esp,0xc
  40f3cf:	push   ebx
  40f3d0:	push   esi
  40f3d1:	push   edi
  40f3d2:	xor    ebx,ebx
  40f3d4:	mov    edi,ecx
  40f3d6:	push   ebx
  40f3d7:	push   ebx
  40f3d8:	push   DWORD PTR [ebp+0x14]
  40f3db:	lea    ecx,[ebp-0x4]
  40f3de:	mov    DWORD PTR [ebp-0x8],ebx
  40f3e1:	push   edx
  40f3e2:	push   edi
  40f3e3:	mov    edx,0x40cb40
  40f3e8:	mov    DWORD PTR [ebp-0x4],ebx
  40f3eb:	call   0x40f4e8
  40f3f0:	mov    esi,eax
  40f3f2:	test   esi,esi
  40f3f4:	jne    0x40f46a
  40f3f6:	lea    edx,[ebp-0x8]
  40f3f9:	mov    ecx,edi
  40f3fb:	call   0x40f246
  40f400:	mov    esi,eax
  40f402:	test   esi,esi
  40f404:	jne    0x40f46a
  40f406:	mov    ecx,DWORD PTR ds:0x411020
  40f40c:	call   0x40e144
  40f411:	mov    edi,DWORD PTR [ebp-0x8]
  40f414:	cmp    DWORD PTR ds:0x411468,ebx
  40f41a:	je     0x40f423
  40f41c:	mov    esi,0x12f
  40f421:	jmp    0x40f458
  40f423:	push   DWORD PTR [ebp-0x4]
  40f426:	push   ebx
  40f427:	push   DWORD PTR [ebp+0x8]
  40f42a:	push   DWORD PTR [ebp+0xc]
  40f42d:	push   DWORD PTR [edi+0x4]
  40f430:	call   DWORD PTR ds:0x412098
  40f436:	test   eax,eax
  40f438:	jne    0x40f44e
  40f43a:	call   DWORD PTR ds:0x41208c
  40f440:	mov    esi,eax
  40f442:	cmp    esi,0x3e5
  40f448:	je     0x40f44e
  40f44a:	test   esi,esi
  40f44c:	jne    0x40f458
  40f44e:	lock inc DWORD PTR ds:0x411464
  40f455:	mov    DWORD PTR [ebp-0x4],ebx
  40f458:	mov    ecx,DWORD PTR ds:0x411020
  40f45e:	call   0x40e1b0
  40f463:	mov    ecx,edi
  40f465:	call   0x40ecc9
  40f46a:	cmp    DWORD PTR [ebp-0x4],ebx
  40f46d:	je     0x40f477
  40f46f:	lea    ecx,[ebp-0x4]
  40f472:	call   0x40f584
  40f477:	pop    edi
  40f478:	mov    eax,esi
  40f47a:	pop    esi
  40f47b:	pop    ebx
  40f47c:	mov    esp,ebp
  40f47e:	pop    ebp
  40f47f:	ret    0x10
  40f482:	int3   
  40f483:	int3   
  40f484:	int3   
  40f485:	int3   
  40f486:	int3   
  40f487:	mov    edi,edi
  40f489:	push   ebp
  40f48a:	mov    ebp,esp
  40f48c:	push   0x0
  40f48e:	push   0x4
  40f490:	lea    eax,[ebp+0x10]
  40f493:	push   eax
  40f494:	push   ecx
  40f495:	push   0x402774
  40f49a:	push   0x2b
  40f49c:	push   DWORD PTR [ebp+0xc]
  40f49f:	push   DWORD PTR [ebp+0x8]
  40f4a2:	call   DWORD PTR ds:0x412184
  40f4a8:	add    esp,0x20
  40f4ab:	pop    ebp
  40f4ac:	ret    0xc
  40f4af:	int3   
  40f4b0:	int3   
  40f4b1:	int3   
  40f4b2:	int3   
  40f4b3:	int3   
  40f4b4:	mov    edi,edi
  40f4b6:	push   ebp
  40f4b7:	mov    ebp,esp
  40f4b9:	push   0x0
  40f4bb:	push   0x4
  40f4bd:	lea    eax,[ebp+0x14]
  40f4c0:	push   eax
  40f4c1:	push   0x4
  40f4c3:	lea    eax,[ebp+0x10]
  40f4c6:	push   eax
  40f4c7:	push   0xc
  40f4c9:	push   0x402774
  40f4ce:	push   0x2b
  40f4d0:	push   DWORD PTR [ebp+0xc]
  40f4d3:	push   DWORD PTR [ebp+0x8]
  40f4d6:	call   DWORD PTR ds:0x412184
  40f4dc:	add    esp,0x28
  40f4df:	pop    ebp
  40f4e0:	ret    0x10
  40f4e3:	int3   
  40f4e4:	int3   
  40f4e5:	int3   
  40f4e6:	int3   
  40f4e7:	int3   
  40f4e8:	mov    edi,edi
  40f4ea:	push   ebp
  40f4eb:	mov    ebp,esp
  40f4ed:	push   ecx
  40f4ee:	push   ecx
  40f4ef:	push   ebx
  40f4f0:	mov    ebx,DWORD PTR [ebp+0x14]
  40f4f3:	push   esi
  40f4f4:	mov    DWORD PTR [ebp-0x8],ecx
  40f4f7:	push   edi
  40f4f8:	lea    ecx,[ebx+0x28]
  40f4fb:	mov    DWORD PTR [ebp-0x4],edx
  40f4fe:	xor    edi,edi
  40f500:	call   0x40fe88
  40f505:	mov    esi,eax
  40f507:	test   esi,esi
  40f509:	jne    0x40f510
  40f50b:	push   0xe
  40f50d:	pop    edi
  40f50e:	jmp    0x40f546
  40f510:	lea    eax,[ebx+0x28]
  40f513:	push   eax
  40f514:	push   edi
  40f515:	push   esi
  40f516:	call   0x410868
  40f51b:	mov    eax,DWORD PTR [ebp-0x4]
  40f51e:	add    esp,0xc
  40f521:	mov    ecx,DWORD PTR [ebp+0x18]
  40f524:	mov    DWORD PTR [esi+0x14],eax
  40f527:	mov    eax,DWORD PTR [ebp+0x8]
  40f52a:	mov    DWORD PTR [esi+0x18],eax
  40f52d:	mov    eax,DWORD PTR [ebp+0xc]
  40f530:	mov    DWORD PTR [esi+0x1c],eax
  40f533:	mov    eax,DWORD PTR [ebp+0x10]
  40f536:	mov    DWORD PTR [esi+0x20],eax
  40f539:	test   ecx,ecx
  40f53b:	je     0x40f546
  40f53d:	test   ebx,ebx
  40f53f:	je     0x40f546
  40f541:	lea    eax,[esi+0x28]
  40f544:	mov    DWORD PTR [ecx],eax
  40f546:	mov    eax,DWORD PTR [ebp-0x8]
  40f549:	mov    DWORD PTR [eax],esi
  40f54b:	mov    ecx,DWORD PTR ds:0x411010
  40f551:	cmp    ecx,0x411010
  40f557:	je     0x40f574
  40f559:	cmp    BYTE PTR [ecx+0x69],0x3
  40f55d:	jb     0x40f574
  40f55f:	test   BYTE PTR [ecx+0x6c],0x80
  40f563:	je     0x40f574
  40f565:	push   esi
  40f566:	push   DWORD PTR [ecx+0x64]
  40f569:	push   DWORD PTR [ecx+0x60]
  40f56c:	push   0xa
  40f56e:	pop    ecx
  40f56f:	call   0x40f487
  40f574:	mov    eax,edi
  40f576:	pop    edi
  40f577:	pop    esi
  40f578:	pop    ebx
  40f579:	mov    esp,ebp
  40f57b:	pop    ebp
  40f57c:	ret    0x14
  40f57f:	int3   
  40f580:	int3   
  40f581:	int3   
  40f582:	int3   
  40f583:	int3   
  40f584:	mov    edi,edi
  40f586:	push   esi
  40f587:	mov    esi,ecx
  40f589:	mov    eax,ds:0x411010
  40f58e:	cmp    eax,0x411010
  40f593:	je     0x40f5b1
  40f595:	cmp    BYTE PTR [eax+0x69],0x3
  40f599:	jb     0x40f5b1
  40f59b:	test   BYTE PTR [eax+0x6c],0x80
  40f59f:	je     0x40f5b1
  40f5a1:	push   DWORD PTR [esi]
  40f5a3:	push   DWORD PTR [eax+0x64]
  40f5a6:	push   DWORD PTR [eax+0x60]
  40f5a9:	push   0xb
  40f5ab:	pop    ecx
  40f5ac:	call   0x40f487
  40f5b1:	mov    ecx,DWORD PTR [esi]
  40f5b3:	test   ecx,ecx
  40f5b5:	je     0x40f5bf
  40f5b7:	call   0x40fecc
  40f5bc:	and    DWORD PTR [esi],0x0
  40f5bf:	pop    esi
  40f5c0:	ret    
  40f5c1:	int3   
  40f5c2:	int3   
  40f5c3:	int3   
  40f5c4:	int3   
  40f5c5:	int3   
  40f5c6:	int3   
  40f5c7:	int3   
  40f5c8:	int3   
  40f5c9:	int3   
  40f5ca:	int3   
  40f5cb:	int3   
  40f5cc:	int3   
  40f5cd:	int3   
  40f5ce:	int3   
  40f5cf:	int3   
  40f5d0:	mov    edi,edi
  40f5d2:	push   ebp
  40f5d3:	mov    ebp,esp
  40f5d5:	push   ecx
  40f5d6:	push   ecx
  40f5d7:	mov    eax,ds:0x411004
  40f5dc:	xor    eax,ebp
  40f5de:	mov    DWORD PTR [ebp-0x4],eax
  40f5e1:	push   esi
  40f5e2:	mov    esi,DWORD PTR [ebp+0x10]
  40f5e5:	mov    DWORD PTR [ebp-0x8],esi
  40f5e8:	mov    eax,ds:0x411010
  40f5ed:	cmp    eax,0x411010
  40f5f2:	je     0x40f60f
  40f5f4:	cmp    BYTE PTR [eax+0x69],0x3
  40f5f8:	jb     0x40f60f
  40f5fa:	test   BYTE PTR [eax+0x6c],0x80
  40f5fe:	je     0x40f60f
  40f600:	push   DWORD PTR [ebp+0xc]
  40f603:	push   esi
  40f604:	push   DWORD PTR [eax+0x64]
  40f607:	push   DWORD PTR [eax+0x60]
  40f60a:	call   0x40f4b4
  40f60f:	push   esi
  40f610:	push   DWORD PTR [ebp+0xc]
  40f613:	mov    esi,DWORD PTR [esi+0x14]
  40f616:	mov    ecx,esi
  40f618:	push   DWORD PTR [ebp+0x8]
  40f61b:	call   DWORD PTR ds:0x41221c
  40f621:	call   esi
  40f623:	pop    esi
  40f624:	test   eax,eax
  40f626:	jne    0x40f630
  40f628:	lea    ecx,[ebp-0x8]
  40f62b:	call   0x40f584
  40f630:	lock dec DWORD PTR ds:0x411464
  40f637:	mov    ecx,DWORD PTR [ebp-0x4]
  40f63a:	xor    ecx,ebp
  40f63c:	call   0x4101d0
  40f641:	mov    esp,ebp
  40f643:	pop    ebp
  40f644:	ret    0xc
  40f647:	int3   
  40f648:	int3   
  40f649:	int3   
  40f64a:	int3   
  40f64b:	int3   
  40f64c:	mov    edi,edi
  40f64e:	push   ebp
  40f64f:	mov    ebp,esp
  40f651:	sub    esp,0x10
  40f654:	push   ebx
  40f655:	xor    ecx,ecx
  40f657:	mov    DWORD PTR [ebp-0x4],edx
  40f65a:	mov    ebx,ecx
  40f65c:	push   esi
  40f65d:	push   edi
  40f65e:	cmp    DWORD PTR [ebp+0x8],ecx
  40f661:	je     0x40f6ea
  40f667:	xor    eax,eax
  40f669:	mov    DWORD PTR [ebp-0xe],ecx
  40f66c:	mov    WORD PTR [ebp-0x10],ax
  40f670:	lea    eax,[ebp-0x10]
  40f673:	push   eax
  40f674:	push   DWORD PTR [ebp+0x8]
  40f677:	mov    WORD PTR [ebp-0xa],cx
  40f67b:	call   DWORD PTR ds:0x412210
  40f681:	push   eax
  40f682:	call   DWORD PTR ds:0x41220c
  40f688:	mov    ebx,eax
  40f68a:	test   ebx,ebx
  40f68c:	jne    0x40f725
  40f692:	movzx  ecx,WORD PTR [ebp-0x10]
  40f696:	add    ecx,0x22
  40f699:	call   0x40fe88
  40f69e:	mov    edx,eax
  40f6a0:	mov    DWORD PTR [ebp-0x8],edx
  40f6a3:	test   edx,edx
  40f6a5:	jne    0x40f6ac
  40f6a7:	push   0xe
  40f6a9:	pop    ebx
  40f6aa:	jmp    0x40f725
  40f6ac:	push   0x8
  40f6ae:	pop    ecx
  40f6af:	mov    edi,edx
  40f6b1:	mov    esi,0x402730
  40f6b6:	rep movs DWORD PTR es:[edi],DWORD PTR ds:[esi]
  40f6b8:	movzx  eax,WORD PTR [ebp-0x10]
  40f6bc:	push   eax
  40f6bd:	push   DWORD PTR [ebp-0xc]
  40f6c0:	lea    eax,[edx+0x20]
  40f6c3:	push   eax
  40f6c4:	call   0x41085c
  40f6c9:	movzx  eax,WORD PTR [ebp-0x10]
  40f6cd:	add    esp,0xc
  40f6d0:	mov    edi,DWORD PTR [ebp-0x8]
  40f6d3:	xor    ecx,ecx
  40f6d5:	shr    eax,1
  40f6d7:	mov    WORD PTR [edi+eax*2+0x20],cx
  40f6dc:	lea    eax,[ebp-0x10]
  40f6df:	push   eax
  40f6e0:	call   DWORD PTR ds:0x412208
  40f6e6:	xor    ecx,ecx
  40f6e8:	jmp    0x40f6ef
  40f6ea:	mov    edi,0x402754
  40f6ef:	push   ecx
  40f6f0:	push   0x40000000
  40f6f5:	push   0x3
  40f6f7:	push   ecx
  40f6f8:	push   ecx
  40f6f9:	push   0xc0000000
  40f6fe:	push   edi
  40f6ff:	call   DWORD PTR ds:0x41209c
  40f705:	cmp    DWORD PTR [ebp+0x8],0x0
  40f709:	mov    esi,eax
  40f70b:	je     0x40f714
  40f70d:	mov    ecx,edi
  40f70f:	call   0x40fecc
  40f714:	cmp    esi,0xffffffff
  40f717:	jne    0x40f72d
  40f719:	call   DWORD PTR ds:0x41208c
  40f71f:	mov    ebx,eax
  40f721:	test   ebx,ebx
  40f723:	je     0x40f72d
  40f725:	mov    eax,DWORD PTR [ebp-0x4]
  40f728:	or     DWORD PTR [eax],0xffffffff
  40f72b:	jmp    0x40f755
  40f72d:	push   0x0
  40f72f:	push   0x40f5d0
  40f734:	push   esi
  40f735:	call   DWORD PTR ds:0x4120cc
  40f73b:	test   eax,eax
  40f73d:	jne    0x40f750
  40f73f:	call   DWORD PTR ds:0x41208c
  40f745:	push   esi
  40f746:	mov    ebx,eax
  40f748:	call   DWORD PTR ds:0x4120a8
  40f74e:	xor    esi,esi
  40f750:	mov    eax,DWORD PTR [ebp-0x4]
  40f753:	mov    DWORD PTR [eax],esi
  40f755:	pop    edi
  40f756:	pop    esi
  40f757:	mov    eax,ebx
  40f759:	pop    ebx
  40f75a:	mov    esp,ebp
  40f75c:	pop    ebp
  40f75d:	ret    0x4
  40f760:	int3   
  40f761:	int3   
  40f762:	int3   
  40f763:	int3   
  40f764:	int3   
  40f765:	mov    edi,edi
  40f767:	push   ebp
  40f768:	mov    ebp,esp
  40f76a:	push   ecx
  40f76b:	push   ecx
  40f76c:	push   ebx
  40f76d:	push   esi
  40f76e:	push   edi
  40f76f:	xor    eax,eax
  40f771:	mov    esi,edx
  40f773:	push   eax
  40f774:	push   eax
  40f775:	push   eax
  40f776:	push   eax
  40f777:	mov    ebx,ecx
  40f779:	call   DWORD PTR ds:0x41213c
  40f77f:	mov    edi,eax
  40f781:	test   edi,edi
  40f783:	je     0x40f7fb
  40f785:	push   DWORD PTR [ebp+0x14]
  40f788:	lea    eax,[ebp-0x8]
  40f78b:	push   DWORD PTR [ebp+0x10]
  40f78e:	push   DWORD PTR [ebp+0xc]
  40f791:	push   DWORD PTR [ebp+0x8]
  40f794:	push   esi
  40f795:	push   eax
  40f796:	push   0x0
  40f798:	push   0x0
  40f79a:	push   edi
  40f79b:	push   ebx
  40f79c:	call   DWORD PTR ds:0x412204
  40f7a2:	mov    esi,eax
  40f7a4:	cmp    esi,0x103
  40f7aa:	jne    0x40f7c0
  40f7ac:	push   0x0
  40f7ae:	push   0x0
  40f7b0:	push   edi
  40f7b1:	call   DWORD PTR ds:0x412200
  40f7b7:	mov    esi,eax
  40f7b9:	test   esi,esi
  40f7bb:	js     0x40f7c0
  40f7bd:	mov    esi,DWORD PTR [ebp-0x8]
  40f7c0:	push   edi
  40f7c1:	call   DWORD PTR ds:0x4120a8
  40f7c7:	test   esi,esi
  40f7c9:	js     0x40f7d8
  40f7cb:	mov    ecx,DWORD PTR [ebp+0x18]
  40f7ce:	mov    eax,DWORD PTR [ebp-0x4]
  40f7d1:	mov    DWORD PTR [ecx],eax
  40f7d3:	xor    eax,eax
  40f7d5:	inc    eax
  40f7d6:	jmp    0x40f7fd
  40f7d8:	mov    ecx,0xc0000000
  40f7dd:	mov    eax,esi
  40f7df:	and    eax,ecx
  40f7e1:	cmp    eax,ecx
  40f7e3:	je     0x40f7ed
  40f7e5:	mov    ecx,DWORD PTR [ebp+0x18]
  40f7e8:	mov    eax,DWORD PTR [ebp-0x4]
  40f7eb:	mov    DWORD PTR [ecx],eax
  40f7ed:	push   esi
  40f7ee:	call   DWORD PTR ds:0x41220c
  40f7f4:	push   eax
  40f7f5:	call   DWORD PTR ds:0x412084
  40f7fb:	xor    eax,eax
  40f7fd:	pop    edi
  40f7fe:	pop    esi
  40f7ff:	pop    ebx
  40f800:	mov    esp,ebp
  40f802:	pop    ebp
  40f803:	ret    0x18
  40f806:	int3   
  40f807:	int3   
  40f808:	int3   
  40f809:	int3   
  40f80a:	int3   
  40f80b:	mov    edi,edi
  40f80d:	push   ebp
  40f80e:	mov    ebp,esp
  40f810:	push   ecx
  40f811:	push   ecx
  40f812:	push   esi
  40f813:	push   edi
  40f814:	push   0x8
  40f816:	xor    esi,esi
  40f818:	pop    ecx
  40f819:	mov    DWORD PTR [ebp-0x4],esi
  40f81c:	mov    DWORD PTR [ebp-0x8],esi
  40f81f:	call   0x40fe88
  40f824:	mov    edi,eax
  40f826:	test   edi,edi
  40f828:	jne    0x40f82f
  40f82a:	push   0xe
  40f82c:	pop    esi
  40f82d:	jmp    0x40f885
  40f82f:	mov    eax,DWORD PTR [ebp+0xc]
  40f832:	mov    edx,0x12c140
  40f837:	mov    DWORD PTR [edi+0x4],esi
  40f83a:	push   ecx
  40f83b:	mov    ecx,DWORD PTR [ebp+0x8]
  40f83e:	mov    DWORD PTR [edi],0x1
  40f844:	mov    eax,DWORD PTR [eax]
  40f846:	mov    DWORD PTR [edi+0x4],eax
  40f849:	lea    eax,[ebp-0x8]
  40f84c:	mov    ecx,DWORD PTR [ecx+0x4]
  40f84f:	push   eax
  40f850:	push   0x4
  40f852:	lea    eax,[ebp-0x4]
  40f855:	push   eax
  40f856:	push   0x8
  40f858:	push   edi
  40f859:	call   0x40f765
  40f85e:	test   eax,eax
  40f860:	jne    0x40f86e
  40f862:	call   DWORD PTR ds:0x41208c
  40f868:	mov    esi,eax
  40f86a:	test   esi,esi
  40f86c:	jne    0x40f87e
  40f86e:	mov    esi,DWORD PTR [ebp-0x4]
  40f871:	test   esi,esi
  40f873:	je     0x40f87e
  40f875:	push   esi
  40f876:	call   DWORD PTR ds:0x41220c
  40f87c:	mov    esi,eax
  40f87e:	mov    ecx,edi
  40f880:	call   0x40fecc
  40f885:	pop    edi
  40f886:	mov    eax,esi
  40f888:	pop    esi
  40f889:	mov    esp,ebp
  40f88b:	pop    ebp
  40f88c:	ret    0x8
  40f88f:	int3   
  40f890:	int3   
  40f891:	int3   
  40f892:	int3   
  40f893:	int3   
  40f894:	mov    edi,edi
  40f896:	push   ebp
  40f897:	mov    ebp,esp
  40f899:	push   ecx
  40f89a:	push   ecx
  40f89b:	push   esi
  40f89c:	push   edi
  40f89d:	push   0x8
  40f89f:	xor    esi,esi
  40f8a1:	pop    ecx
  40f8a2:	mov    DWORD PTR [ebp-0x4],esi
  40f8a5:	mov    DWORD PTR [ebp-0x8],esi
  40f8a8:	call   0x40fe88
  40f8ad:	mov    edi,eax
  40f8af:	test   edi,edi
  40f8b1:	jne    0x40f8b8
  40f8b3:	push   0xe
  40f8b5:	pop    esi
  40f8b6:	jmp    0x40f90e
  40f8b8:	mov    eax,DWORD PTR [ebp+0xc]
  40f8bb:	mov    edx,0x12c148
  40f8c0:	mov    DWORD PTR [edi+0x4],esi
  40f8c3:	push   ecx
  40f8c4:	mov    ecx,DWORD PTR [ebp+0x8]
  40f8c7:	mov    DWORD PTR [edi],0x1
  40f8cd:	mov    eax,DWORD PTR [eax]
  40f8cf:	mov    DWORD PTR [edi+0x4],eax
  40f8d2:	lea    eax,[ebp-0x8]
  40f8d5:	mov    ecx,DWORD PTR [ecx+0x4]
  40f8d8:	push   eax
  40f8d9:	push   0x4
  40f8db:	lea    eax,[ebp-0x4]
  40f8de:	push   eax
  40f8df:	push   0x8
  40f8e1:	push   edi
  40f8e2:	call   0x40f765
  40f8e7:	test   eax,eax
  40f8e9:	jne    0x40f8f7
  40f8eb:	call   DWORD PTR ds:0x41208c
  40f8f1:	mov    esi,eax
  40f8f3:	test   esi,esi
  40f8f5:	jne    0x40f907
  40f8f7:	mov    esi,DWORD PTR [ebp-0x4]
  40f8fa:	test   esi,esi
  40f8fc:	je     0x40f907
  40f8fe:	push   esi
  40f8ff:	call   DWORD PTR ds:0x41220c
  40f905:	mov    esi,eax
  40f907:	mov    ecx,edi
  40f909:	call   0x40fecc
  40f90e:	pop    edi
  40f90f:	mov    eax,esi
  40f911:	pop    esi
  40f912:	mov    esp,ebp
  40f914:	pop    ebp
  40f915:	ret    0x8
  40f918:	int3   
  40f919:	int3   
  40f91a:	int3   
  40f91b:	int3   
  40f91c:	int3   
  40f91d:	mov    edi,edi
  40f91f:	push   ebp
  40f920:	mov    ebp,esp
  40f922:	push   ecx
  40f923:	push   ecx
  40f924:	push   ebx
  40f925:	mov    ebx,DWORD PTR [ebp+0xc]
  40f928:	xor    edx,edx
  40f92a:	push   esi
  40f92b:	push   edi
  40f92c:	push   0xc
  40f92e:	mov    ecx,DWORD PTR [ebx]
  40f930:	dec    ecx
  40f931:	and    DWORD PTR [ebp-0x4],0x0
  40f935:	imul   eax,ecx,0xc
  40f938:	pop    edi
  40f939:	and    DWORD PTR [ebp-0x8],0x0
  40f93d:	lea    esi,[eax+0x18]
  40f940:	div    edi
  40f942:	cmp    eax,ecx
  40f944:	jb     0x40f9d4
  40f94a:	cmp    esi,0x4
  40f94d:	jb     0x40f9d4
  40f953:	mov    ecx,esi
  40f955:	call   0x40fe88
  40f95a:	mov    edi,eax
  40f95c:	test   edi,edi
  40f95e:	jne    0x40f965
  40f960:	push   0xe
  40f962:	pop    esi
  40f963:	jmp    0x40f9d9
  40f965:	push   esi
  40f966:	push   0x0
  40f968:	push   edi
  40f969:	call   0x410868
  40f96e:	mov    eax,DWORD PTR [ebx]
  40f970:	mov    DWORD PTR [edi],0x1
  40f976:	mov    DWORD PTR [edi+0x4],eax
  40f979:	mov    DWORD PTR [edi+0x8],eax
  40f97c:	imul   eax,eax,0xc
  40f97f:	push   eax
  40f980:	push   DWORD PTR [ebx+0x4]
  40f983:	lea    eax,[edi+0xc]
  40f986:	push   eax
  40f987:	call   0x41085c
  40f98c:	mov    ecx,DWORD PTR [ebp+0x8]
  40f98f:	lea    eax,[ebp-0x8]
  40f992:	add    esp,0x14
  40f995:	mov    edx,0x12c130
  40f99a:	mov    ecx,DWORD PTR [ecx+0x4]
  40f99d:	push   eax
  40f99e:	push   0x4
  40f9a0:	lea    eax,[ebp-0x4]
  40f9a3:	push   eax
  40f9a4:	push   esi
  40f9a5:	push   edi
  40f9a6:	call   0x40f765
  40f9ab:	test   eax,eax
  40f9ad:	jne    0x40f9bb
  40f9af:	call   DWORD PTR ds:0x41208c
  40f9b5:	mov    esi,eax
  40f9b7:	test   esi,esi
  40f9b9:	jne    0x40f9cb
  40f9bb:	mov    esi,DWORD PTR [ebp-0x4]
  40f9be:	test   esi,esi
  40f9c0:	je     0x40f9cb
  40f9c2:	push   esi
  40f9c3:	call   DWORD PTR ds:0x41220c
  40f9c9:	mov    esi,eax
  40f9cb:	mov    ecx,edi
  40f9cd:	call   0x40fecc
  40f9d2:	jmp    0x40f9d9
  40f9d4:	mov    esi,0x216
  40f9d9:	pop    edi
  40f9da:	mov    eax,esi
  40f9dc:	pop    esi
  40f9dd:	pop    ebx
  40f9de:	mov    esp,ebp
  40f9e0:	pop    ebp
  40f9e1:	ret    0x8
  40f9e4:	int3   
  40f9e5:	int3   
  40f9e6:	int3   
  40f9e7:	int3   
  40f9e8:	int3   
  40f9e9:	mov    edi,edi
  40f9eb:	push   ebp
  40f9ec:	mov    ebp,esp
  40f9ee:	sub    esp,0xc
  40f9f1:	and    DWORD PTR [ebp-0x4],0x0
  40f9f5:	and    DWORD PTR [ebp-0xc],0x0
  40f9f9:	push   ebx
  40f9fa:	mov    ebx,DWORD PTR [ebp+0xc]
  40f9fd:	push   esi
  40f9fe:	xor    esi,esi
  40fa00:	push   edi
  40fa01:	mov    eax,DWORD PTR [ebx+0x18]
  40fa04:	mov    DWORD PTR [ebp-0x8],eax
  40fa07:	cmp    DWORD PTR [eax],esi
  40fa09:	je     0x40fa0d
  40fa0b:	mov    esi,DWORD PTR [eax]
  40fa0d:	lea    ecx,[esi+0x24]
  40fa10:	call   0x40fe88
  40fa15:	mov    edi,eax
  40fa17:	test   edi,edi
  40fa19:	jne    0x40fa23
  40fa1b:	push   0xe
  40fa1d:	pop    esi
  40fa1e:	jmp    0x40facb
  40fa23:	lea    eax,[esi+0x24]
  40fa26:	push   eax
  40fa27:	push   0x0
  40fa29:	push   edi
  40fa2a:	call   0x410868
  40fa2f:	mov    DWORD PTR [edi],0x1
  40fa35:	lea    ecx,[edi+0x4]
  40fa38:	mov    eax,DWORD PTR [ebx]
  40fa3a:	add    esp,0xc
  40fa3d:	mov    DWORD PTR [ecx],eax
  40fa3f:	mov    eax,DWORD PTR [ebx+0x4]
  40fa42:	push   0x4
  40fa44:	pop    edx
  40fa45:	add    ecx,edx
  40fa47:	mov    DWORD PTR [ecx],eax
  40fa49:	add    ecx,edx
  40fa4b:	mov    eax,DWORD PTR [ebx+0x8]
  40fa4e:	mov    DWORD PTR [ecx],eax
  40fa50:	add    ecx,edx
  40fa52:	mov    eax,DWORD PTR [ebx+0xc]
  40fa55:	mov    DWORD PTR [ecx],eax
  40fa57:	mov    ax,WORD PTR [ebx+0x10]
  40fa5b:	mov    WORD PTR [ecx+0x4],ax
  40fa5f:	add    ecx,0x8
  40fa62:	mov    eax,DWORD PTR [ebx+0x14]
  40fa65:	mov    DWORD PTR [ecx],eax
  40fa67:	add    ecx,edx
  40fa69:	mov    edx,DWORD PTR [ebp-0x8]
  40fa6c:	mov    eax,DWORD PTR [edx]
  40fa6e:	mov    DWORD PTR [ecx],eax
  40fa70:	test   esi,esi
  40fa72:	je     0x40fa84
  40fa74:	push   esi
  40fa75:	push   DWORD PTR [edx+0x4]
  40fa78:	lea    eax,[ecx+0x4]
  40fa7b:	push   eax
  40fa7c:	call   0x41085c
  40fa81:	add    esp,0xc
  40fa84:	push   ecx
  40fa85:	mov    ecx,DWORD PTR [ebp+0x8]
  40fa88:	lea    eax,[ebp-0xc]
  40fa8b:	push   eax
  40fa8c:	push   0x4
  40fa8e:	lea    eax,[ebp-0x4]
  40fa91:	mov    edx,0x12c134
  40fa96:	mov    ecx,DWORD PTR [ecx+0x4]
  40fa99:	push   eax
  40fa9a:	lea    eax,[esi+0x24]
  40fa9d:	push   eax
  40fa9e:	push   edi
  40fa9f:	call   0x40f765
  40faa4:	test   eax,eax
  40faa6:	jne    0x40fab4
  40faa8:	call   DWORD PTR ds:0x41208c
  40faae:	mov    esi,eax
  40fab0:	test   esi,esi
  40fab2:	jne    0x40fac4
  40fab4:	mov    esi,DWORD PTR [ebp-0x4]
  40fab7:	test   esi,esi
  40fab9:	je     0x40fac4
  40fabb:	push   esi
  40fabc:	call   DWORD PTR ds:0x41220c
  40fac2:	mov    esi,eax
  40fac4:	mov    ecx,edi
  40fac6:	call   0x40fecc
  40facb:	pop    edi
  40facc:	mov    eax,esi
  40face:	pop    esi
  40facf:	pop    ebx
  40fad0:	mov    esp,ebp
  40fad2:	pop    ebp
  40fad3:	ret    0x8
  40fad6:	int3   
  40fad7:	int3   
  40fad8:	int3   
  40fad9:	int3   
  40fada:	int3   
  40fadb:	mov    edi,edi
  40fadd:	push   ebp
  40fade:	mov    ebp,esp
  40fae0:	sub    esp,0x10
  40fae3:	and    DWORD PTR [ebp-0x8],0x0
  40fae7:	and    DWORD PTR [ebp-0xc],0x0
  40faeb:	push   ebx
  40faec:	push   esi
  40faed:	mov    esi,edx
  40faef:	mov    DWORD PTR [ebp-0x10],ecx
  40faf2:	xor    ecx,ecx
  40faf4:	push   edi
  40faf5:	mov    DWORD PTR [ebp-0x4],ecx
  40faf8:	mov    ebx,DWORD PTR [esi+0x1c]
  40fafb:	mov    eax,DWORD PTR [ebx]
  40fafd:	test   eax,eax
  40faff:	je     0x40fb07
  40fb01:	lea    ecx,[eax-0x1]
  40fb04:	mov    DWORD PTR [ebp-0x4],ecx
  40fb07:	lea    ecx,[ecx+0x30]
  40fb0a:	call   0x40fe88
  40fb0f:	mov    edi,eax
  40fb11:	test   edi,edi
  40fb13:	jne    0x40fb1d
  40fb15:	push   0xe
  40fb17:	pop    esi
  40fb18:	jmp    0x40fbca
  40fb1d:	mov    ecx,DWORD PTR [ebp-0x4]
  40fb20:	lea    eax,[ecx+0x30]
  40fb23:	push   eax
  40fb24:	push   0x0
  40fb26:	push   edi
  40fb27:	call   0x410868
  40fb2c:	xor    eax,eax
  40fb2e:	add    esp,0xc
  40fb31:	inc    eax
  40fb32:	mov    DWORD PTR [edi],eax
  40fb34:	mov    DWORD PTR [edi+0x4],eax
  40fb37:	mov    DWORD PTR [edi+0x8],eax
  40fb3a:	mov    eax,DWORD PTR [esi]
  40fb3c:	mov    DWORD PTR [edi+0xc],eax
  40fb3f:	mov    eax,DWORD PTR [esi+0x4]
  40fb42:	mov    DWORD PTR [edi+0x10],eax
  40fb45:	mov    ax,WORD PTR [esi+0x8]
  40fb49:	mov    WORD PTR [edi+0x14],ax
  40fb4d:	mov    eax,DWORD PTR [esi+0xc]
  40fb50:	mov    DWORD PTR [edi+0x18],eax
  40fb53:	mov    eax,DWORD PTR [esi+0x10]
  40fb56:	mov    DWORD PTR [edi+0x1c],eax
  40fb59:	mov    eax,DWORD PTR [esi+0x14]
  40fb5c:	mov    DWORD PTR [edi+0x20],eax
  40fb5f:	mov    eax,DWORD PTR [esi+0x18]
  40fb62:	mov    DWORD PTR [edi+0x24],eax
  40fb65:	mov    eax,DWORD PTR [ebx]
  40fb67:	mov    DWORD PTR [edi+0x28],eax
  40fb6a:	cmp    DWORD PTR [ebx],0x0
  40fb6d:	je     0x40fb80
  40fb6f:	push   DWORD PTR [ebx]
  40fb71:	lea    eax,[edi+0x2c]
  40fb74:	push   DWORD PTR [ebx+0x4]
  40fb77:	push   eax
  40fb78:	call   0x41085c
  40fb7d:	add    esp,0xc
  40fb80:	push   ecx
  40fb81:	mov    ecx,DWORD PTR [ebp-0x10]
  40fb84:	lea    eax,[ebp-0xc]
  40fb87:	push   eax
  40fb88:	push   0x4
  40fb8a:	lea    eax,[ebp-0x8]
  40fb8d:	mov    edx,0x12c138
  40fb92:	mov    ecx,DWORD PTR [ecx+0x4]
  40fb95:	push   eax
  40fb96:	mov    eax,DWORD PTR [ebp-0x4]
  40fb99:	add    eax,0x30
  40fb9c:	push   eax
  40fb9d:	push   edi
  40fb9e:	call   0x40f765
  40fba3:	test   eax,eax
  40fba5:	jne    0x40fbb3
  40fba7:	call   DWORD PTR ds:0x41208c
  40fbad:	mov    esi,eax
  40fbaf:	test   esi,esi
  40fbb1:	jne    0x40fbc3
  40fbb3:	mov    esi,DWORD PTR [ebp-0x8]
  40fbb6:	test   esi,esi
  40fbb8:	je     0x40fbc3
  40fbba:	push   esi
  40fbbb:	call   DWORD PTR ds:0x41220c
  40fbc1:	mov    esi,eax
  40fbc3:	mov    ecx,edi
  40fbc5:	call   0x40fecc
  40fbca:	pop    edi
  40fbcb:	mov    eax,esi
  40fbcd:	pop    esi
  40fbce:	pop    ebx
  40fbcf:	mov    esp,ebp
  40fbd1:	pop    ebp
  40fbd2:	ret    
  40fbd3:	int3   
  40fbd4:	int3   
  40fbd5:	int3   
  40fbd6:	int3   
  40fbd7:	int3   
  40fbd8:	mov    edi,edi
  40fbda:	push   ebp
  40fbdb:	mov    ebp,esp
  40fbdd:	sub    esp,0xc
  40fbe0:	push   ebx
  40fbe1:	mov    ebx,DWORD PTR [ebp+0xc]
  40fbe4:	push   esi
  40fbe5:	push   edi
  40fbe6:	mov    DWORD PTR [ebp-0xc],edx
  40fbe9:	xor    edx,edx
  40fbeb:	mov    ecx,DWORD PTR [ebx]
  40fbed:	dec    ecx
  40fbee:	and    DWORD PTR [ebp-0x4],0x0
  40fbf2:	imul   eax,ecx,0xc
  40fbf5:	push   0xc
  40fbf7:	pop    edi
  40fbf8:	and    DWORD PTR [ebp-0x8],0x0
  40fbfc:	lea    esi,[eax+0x18]
  40fbff:	div    edi
  40fc01:	cmp    eax,ecx
  40fc03:	jb     0x40fc8d
  40fc09:	cmp    esi,0x4
  40fc0c:	jb     0x40fc8d
  40fc0e:	mov    ecx,esi
  40fc10:	call   0x40fe88
  40fc15:	mov    edi,eax
  40fc17:	test   edi,edi
  40fc19:	jne    0x40fc20
  40fc1b:	push   0xe
  40fc1d:	pop    esi
  40fc1e:	jmp    0x40fc92
  40fc20:	push   esi
  40fc21:	push   0x0
  40fc23:	push   edi
  40fc24:	call   0x410868
  40fc29:	mov    eax,DWORD PTR [ebx]
  40fc2b:	mov    DWORD PTR [edi],0x1
  40fc31:	mov    DWORD PTR [edi+0x4],eax
  40fc34:	mov    DWORD PTR [edi+0x8],eax
  40fc37:	imul   eax,eax,0xc
  40fc3a:	push   eax
  40fc3b:	push   DWORD PTR [ebx+0x4]
  40fc3e:	lea    eax,[edi+0xc]
  40fc41:	push   eax
  40fc42:	call   0x41085c
  40fc47:	mov    ecx,DWORD PTR [ebp+0x8]
  40fc4a:	lea    eax,[ebp-0x8]
  40fc4d:	mov    edx,DWORD PTR [ebp-0xc]
  40fc50:	add    esp,0x14
  40fc53:	mov    ecx,DWORD PTR [ecx+0x4]
  40fc56:	push   eax
  40fc57:	push   0x4
  40fc59:	lea    eax,[ebp-0x4]
  40fc5c:	push   eax
  40fc5d:	push   esi
  40fc5e:	push   edi
  40fc5f:	call   0x40f765
  40fc64:	test   eax,eax
  40fc66:	jne    0x40fc74
  40fc68:	call   DWORD PTR ds:0x41208c
  40fc6e:	mov    esi,eax
  40fc70:	test   esi,esi
  40fc72:	jne    0x40fc84
  40fc74:	mov    esi,DWORD PTR [ebp-0x4]
  40fc77:	test   esi,esi
  40fc79:	je     0x40fc84
  40fc7b:	push   esi
  40fc7c:	call   DWORD PTR ds:0x41220c
  40fc82:	mov    esi,eax
  40fc84:	mov    ecx,edi
  40fc86:	call   0x40fecc
  40fc8b:	jmp    0x40fc92
  40fc8d:	mov    esi,0x216
  40fc92:	pop    edi
  40fc93:	mov    eax,esi
  40fc95:	pop    esi
  40fc96:	pop    ebx
  40fc97:	mov    esp,ebp
  40fc99:	pop    ebp
  40fc9a:	ret    0x8
  40fc9d:	int3   
  40fc9e:	int3   
  40fc9f:	int3   
  40fca0:	int3   
  40fca1:	int3   
  40fca2:	mov    edi,edi
  40fca4:	push   ebp
  40fca5:	mov    ebp,esp
  40fca7:	sub    esp,0xc
  40fcaa:	and    DWORD PTR [ebp-0x4],0x0
  40fcae:	and    DWORD PTR [ebp-0x8],0x0
  40fcb2:	push   ebx
  40fcb3:	push   esi
  40fcb4:	push   0x1c
  40fcb6:	mov    DWORD PTR [ebp-0xc],ecx
  40fcb9:	mov    esi,edx
  40fcbb:	pop    ecx
  40fcbc:	call   0x40fe88
  40fcc1:	mov    ebx,eax
  40fcc3:	test   ebx,ebx
  40fcc5:	jne    0x40fccf
  40fcc7:	push   0xe
  40fcc9:	pop    esi
  40fcca:	jmp    0x40fd5a
  40fccf:	push   edi
  40fcd0:	xor    eax,eax
  40fcd2:	xor    edx,edx
  40fcd4:	push   0x7
  40fcd6:	pop    ecx
  40fcd7:	inc    edx
  40fcd8:	mov    edi,ebx
  40fcda:	rep stos DWORD PTR es:[edi],eax
  40fcdc:	mov    DWORD PTR [ebx],edx
  40fcde:	mov    DWORD PTR [ebx+0x4],edx
  40fce1:	mov    DWORD PTR [ebx+0x8],edx
  40fce4:	mov    eax,DWORD PTR [esi]
  40fce6:	mov    DWORD PTR [ebx+0xc],eax
  40fce9:	mov    ax,WORD PTR [esi+0x4]
  40fced:	mov    WORD PTR [ebx+0x10],ax
  40fcf1:	mov    eax,DWORD PTR [esi+0x8]
  40fcf4:	mov    DWORD PTR [ebx+0x14],eax
  40fcf7:	mov    eax,DWORD PTR [esi+0xc]
  40fcfa:	xor    eax,DWORD PTR [ebx+0x18]
  40fcfd:	and    eax,edx
  40fcff:	xor    DWORD PTR [ebx+0x18],eax
  40fd02:	mov    eax,DWORD PTR [esi+0x10]
  40fd05:	mov    ecx,DWORD PTR [ebx+0x18]
  40fd08:	and    eax,edx
  40fd0a:	and    ecx,0xfffffff9
  40fd0d:	add    eax,eax
  40fd0f:	or     eax,ecx
  40fd11:	mov    edx,0x12c32c
  40fd16:	push   ecx
  40fd17:	mov    ecx,DWORD PTR [ebp-0xc]
  40fd1a:	mov    DWORD PTR [ebx+0x18],eax
  40fd1d:	lea    eax,[ebp-0x8]
  40fd20:	push   eax
  40fd21:	push   0x4
  40fd23:	mov    ecx,DWORD PTR [ecx+0x4]
  40fd26:	lea    eax,[ebp-0x4]
  40fd29:	push   eax
  40fd2a:	push   0x1c
  40fd2c:	push   ebx
  40fd2d:	call   0x40f765
  40fd32:	pop    edi
  40fd33:	test   eax,eax
  40fd35:	jne    0x40fd43
  40fd37:	call   DWORD PTR ds:0x41208c
  40fd3d:	mov    esi,eax
  40fd3f:	test   esi,esi
  40fd41:	jne    0x40fd53
  40fd43:	mov    esi,DWORD PTR [ebp-0x4]
  40fd46:	test   esi,esi
  40fd48:	je     0x40fd53
  40fd4a:	push   esi
  40fd4b:	call   DWORD PTR ds:0x41220c
  40fd51:	mov    esi,eax
  40fd53:	mov    ecx,ebx
  40fd55:	call   0x40fecc
  40fd5a:	mov    eax,esi
  40fd5c:	pop    esi
  40fd5d:	pop    ebx
  40fd5e:	mov    esp,ebp
  40fd60:	pop    ebp
  40fd61:	ret    0x4
  40fd64:	int3   
  40fd65:	int3   
  40fd66:	int3   
  40fd67:	int3   
  40fd68:	int3   
  40fd69:	mov    edi,edi
  40fd6b:	push   ebp
  40fd6c:	mov    ebp,esp
  40fd6e:	sub    esp,0x14
  40fd71:	and    DWORD PTR [ebp-0x4],0x0
  40fd75:	and    DWORD PTR [ebp-0x10],0x0
  40fd79:	mov    eax,DWORD PTR [ebp+0x10]
  40fd7c:	mov    DWORD PTR [ebp-0x14],ecx
  40fd7f:	push   ebx
  40fd80:	push   esi
  40fd81:	push   edi
  40fd82:	cmp    eax,0x2aaaaaaa
  40fd87:	jae    0x40fe72
  40fd8d:	mov    ebx,DWORD PTR [ebp+0x18]
  40fd90:	cmp    ebx,0x7fffffff
  40fd96:	jae    0x40fe72
  40fd9c:	imul   eax,eax,0x6
  40fd9f:	lea    ecx,[ebx+ebx*1]
  40fda2:	mov    DWORD PTR [ebp-0x8],eax
  40fda5:	add    eax,0x7
  40fda8:	and    eax,0xfffffff8
  40fdab:	mov    DWORD PTR [ebp-0xc],eax
  40fdae:	lea    esi,[eax+ecx*1]
  40fdb1:	cmp    esi,ecx
  40fdb3:	jb     0x40fe72
  40fdb9:	add    esi,0x1c
  40fdbc:	cmp    esi,0x1c
  40fdbf:	jb     0x40fe72
  40fdc5:	mov    ecx,esi
  40fdc7:	call   0x40fe88
  40fdcc:	mov    edi,eax
  40fdce:	test   edi,edi
  40fdd0:	jne    0x40fdda
  40fdd2:	push   0xe
  40fdd4:	pop    esi
  40fdd5:	jmp    0x40fe77
  40fdda:	push   DWORD PTR [ebp-0x8]
  40fddd:	xor    ecx,ecx
  40fddf:	push   DWORD PTR [ebp+0x14]
  40fde2:	inc    ecx
  40fde3:	mov    DWORD PTR [edi],ecx
  40fde5:	mov    eax,DWORD PTR [edi+0x4]
  40fde8:	and    eax,0xfffffffd
  40fdeb:	mov    DWORD PTR [edi+0x10],0x18
  40fdf2:	or     eax,ecx
  40fdf4:	mov    DWORD PTR [edi+0x4],eax
  40fdf7:	mov    eax,DWORD PTR [ebp+0xc]
  40fdfa:	mov    DWORD PTR [edi+0x8],eax
  40fdfd:	mov    eax,DWORD PTR [ebp+0x10]
  40fe00:	mov    DWORD PTR [edi+0xc],eax
  40fe03:	lea    eax,[edi+0x1c]
  40fe06:	push   eax
  40fe07:	call   0x41085c
  40fe0c:	mov    eax,DWORD PTR [edi+0x10]
  40fe0f:	lea    ecx,[ebx+ebx*1]
  40fe12:	add    eax,DWORD PTR [ebp-0xc]
  40fe15:	mov    DWORD PTR [edi+0x18],eax
  40fe18:	add    eax,0x4
  40fe1b:	push   ecx
  40fe1c:	push   DWORD PTR [ebp+0x1c]
  40fe1f:	add    eax,edi
  40fe21:	mov    DWORD PTR [edi+0x14],ebx
  40fe24:	push   eax
  40fe25:	call   0x41085c
  40fe2a:	mov    ecx,DWORD PTR [ebp-0x14]
  40fe2d:	lea    eax,[ebp-0x10]
  40fe30:	add    esp,0x14
  40fe33:	mov    edx,0x12c320
  40fe38:	mov    ecx,DWORD PTR [ecx+0x4]
  40fe3b:	push   eax
  40fe3c:	push   0x4
  40fe3e:	lea    eax,[ebp-0x4]
  40fe41:	push   eax
  40fe42:	push   esi
  40fe43:	push   edi
  40fe44:	call   0x40f765
  40fe49:	test   eax,eax
  40fe4b:	jne    0x40fe59
  40fe4d:	call   DWORD PTR ds:0x41208c
  40fe53:	mov    esi,eax
  40fe55:	test   esi,esi
  40fe57:	jne    0x40fe69
  40fe59:	mov    esi,DWORD PTR [ebp-0x4]
  40fe5c:	test   esi,esi
  40fe5e:	je     0x40fe69
  40fe60:	push   esi
  40fe61:	call   DWORD PTR ds:0x41220c
  40fe67:	mov    esi,eax
  40fe69:	mov    ecx,edi
  40fe6b:	call   0x40fecc
  40fe70:	jmp    0x40fe77
  40fe72:	mov    esi,0x216
  40fe77:	pop    edi
  40fe78:	mov    eax,esi
  40fe7a:	pop    esi
  40fe7b:	pop    ebx
  40fe7c:	mov    esp,ebp
  40fe7e:	pop    ebp
  40fe7f:	ret    0x18
  40fe82:	int3   
  40fe83:	int3   
  40fe84:	int3   
  40fe85:	int3   
  40fe86:	int3   
  40fe87:	int3   
  40fe88:	mov    edi,edi
  40fe8a:	push   esi
  40fe8b:	push   edi
  40fe8c:	mov    edi,ecx
  40fe8e:	xor    esi,esi
  40fe90:	test   edi,edi
  40fe92:	jne    0x40fea0
  40fe94:	push   0x57
  40fe96:	call   DWORD PTR ds:0x412084
  40fe9c:	xor    eax,eax
  40fe9e:	jmp    0x40fec4
  40fea0:	call   DWORD PTR ds:0x4120b8
  40fea6:	test   eax,eax
  40fea8:	je     0x40fec2
  40feaa:	push   edi
  40feab:	push   0x8
  40fead:	push   eax
  40feae:	call   DWORD PTR ds:0x4120bc
  40feb4:	mov    esi,eax
  40feb6:	test   esi,esi
  40feb8:	jne    0x40fec2
  40feba:	push   0x8
  40febc:	call   DWORD PTR ds:0x412084
  40fec2:	mov    eax,esi
  40fec4:	pop    edi
  40fec5:	pop    esi
  40fec6:	ret    
  40fec7:	int3   
  40fec8:	int3   
  40fec9:	int3   
  40feca:	int3   
  40fecb:	int3   
  40fecc:	mov    edi,edi
  40fece:	push   esi
  40fecf:	mov    esi,ecx
  40fed1:	call   DWORD PTR ds:0x4120b8
  40fed7:	test   eax,eax
  40fed9:	je     0x40fee7
  40fedb:	push   esi
  40fedc:	push   0x0
  40fede:	push   eax
  40fedf:	call   DWORD PTR ds:0x4120b0
  40fee5:	pop    esi
  40fee6:	ret    
  40fee7:	xor    eax,eax
  40fee9:	pop    esi
  40feea:	ret    
  40feeb:	int3   
  40feec:	int3   
  40feed:	int3   
  40feee:	int3   
  40feef:	int3   
  40fef0:	mov    eax,0x5a4d
  40fef5:	cmp    WORD PTR ds:0x400000,ax
  40fefc:	je     0x40ff02
  40fefe:	xor    eax,eax
  40ff00:	jmp    0x40ff50
  40ff02:	mov    ecx,DWORD PTR ds:0x40003c
  40ff08:	cmp    DWORD PTR [ecx+0x400000],0x4550
  40ff12:	jne    0x40fefe
  40ff14:	movzx  eax,WORD PTR [ecx+0x400018]
  40ff1b:	cmp    eax,0x10b
  40ff20:	je     0x40ff3c
  40ff22:	cmp    eax,0x20b
  40ff27:	jne    0x40fefe
  40ff29:	xor    eax,eax
  40ff2b:	cmp    DWORD PTR [ecx+0x400084],0xe
  40ff32:	jbe    0x40ff50
  40ff34:	cmp    DWORD PTR [ecx+0x4000f8],eax
  40ff3a:	jmp    0x40ff4d
  40ff3c:	xor    eax,eax
  40ff3e:	cmp    DWORD PTR [ecx+0x400074],0xe
  40ff45:	jbe    0x40ff50
  40ff47:	cmp    DWORD PTR [ecx+0x4000e8],eax
  40ff4d:	setne  al
  40ff50:	push   0x1
  40ff52:	mov    ds:0x411058,eax
  40ff57:	call   0x4102ce
  40ff5c:	push   eax
  40ff5d:	call   DWORD PTR ds:0x4121e0
  40ff63:	or     DWORD PTR ds:0x411470,0xffffffff
  40ff6a:	or     DWORD PTR ds:0x411474,0xffffffff
  40ff71:	pop    ecx
  40ff72:	pop    ecx
  40ff73:	call   DWORD PTR ds:0x4121d0
  40ff79:	mov    ecx,DWORD PTR ds:0x41106c
  40ff7f:	mov    DWORD PTR [eax],ecx
  40ff81:	call   DWORD PTR ds:0x4121f0
  40ff87:	mov    ecx,DWORD PTR ds:0x411060
  40ff8d:	mov    DWORD PTR [eax],ecx
  40ff8f:	call   0x410320
  40ff94:	cmp    DWORD PTR ds:0x411000,0x0
  40ff9b:	jne    0x40ffa9
  40ff9d:	push   0x410320
  40ffa2:	call   DWORD PTR ds:0x4121cc
  40ffa8:	pop    ecx
  40ffa9:	call   0x41052f
  40ffae:	xor    eax,eax
  40ffb0:	ret    
  40ffb1:	int3   
  40ffb2:	int3   
  40ffb3:	int3   
  40ffb4:	int3   
  40ffb5:	int3   
  40ffb6:	int3   
  40ffb7:	int3   
  40ffb8:	int3   
  40ffb9:	int3   
  40ffba:	int3   
  40ffbb:	int3   
  40ffbc:	int3   
  40ffbd:	int3   
  40ffbe:	int3   
  40ffbf:	int3   
  40ffc0:	mov    eax,ds:0x411068
  40ffc5:	push   0x41105c
  40ffca:	push   DWORD PTR ds:0x411064
  40ffd0:	mov    ds:0x41105c,eax
  40ffd5:	push   0x411050
  40ffda:	push   0x41104c
  40ffdf:	push   0x411048
  40ffe4:	call   DWORD PTR ds:0x4121e4
  40ffea:	add    esp,0x14
  40ffed:	mov    ds:0x411054,eax
  40fff2:	ret    
  40fff3:	int3   
  40fff4:	int3   
  40fff5:	int3   
  40fff6:	int3   
  40fff7:	int3   
  40fff8:	push   0x10
  40fffa:	push   0x410a98
  40ffff:	call   0x410554
  410004:	xor    ebx,ebx
  410006:	mov    DWORD PTR [ebp-0x4],ebx
  410009:	mov    eax,fs:0x18
  41000f:	mov    esi,DWORD PTR [eax+0x4]
  410012:	mov    edi,ebx
  410014:	mov    edx,0x411478
  410019:	mov    ecx,esi
  41001b:	xor    eax,eax
  41001d:	lock cmpxchg DWORD PTR [edx],ecx
  410021:	test   eax,eax
  410023:	je     0x41003d
  410025:	cmp    eax,esi
  410027:	jne    0x410030
  410029:	xor    esi,esi
  41002b:	inc    esi
  41002c:	mov    edi,esi
  41002e:	jmp    0x410040
  410030:	push   0x3e8
  410035:	call   DWORD PTR ds:0x41212c
  41003b:	jmp    0x410014
  41003d:	xor    esi,esi
  41003f:	inc    esi
  410040:	cmp    DWORD PTR ds:0x41147c,esi
  410046:	jne    0x410052
  410048:	push   0x1f
  41004a:	call   0x41030a
  41004f:	pop    ecx
  410050:	jmp    0x41008c
  410052:	cmp    DWORD PTR ds:0x41147c,ebx
  410058:	jne    0x410086
  41005a:	mov    DWORD PTR ds:0x41147c,esi
  410060:	push   0x401018
  410065:	push   0x40100c
  41006a:	call   0x41016c
  41006f:	pop    ecx
  410070:	pop    ecx
  410071:	test   eax,eax
  410073:	je     0x41008c
  410075:	mov    DWORD PTR [ebp-0x4],0xfffffffe
  41007c:	mov    eax,0xff
  410081:	jmp    0x410161
  410086:	mov    DWORD PTR ds:0x411044,esi
  41008c:	cmp    DWORD PTR ds:0x41147c,esi
  410092:	jne    0x4100af
  410094:	push   0x401008
  410099:	push   0x401000
  41009e:	call   0x410548
  4100a3:	pop    ecx
  4100a4:	pop    ecx
  4100a5:	mov    DWORD PTR ds:0x41147c,0x2
  4100af:	test   edi,edi
  4100b1:	jne    0x4100bc
  4100b3:	xor    eax,eax
  4100b5:	mov    ecx,0x411478
  4100ba:	xchg   DWORD PTR [ecx],eax
  4100bc:	cmp    DWORD PTR ds:0x411480,0x0
  4100c3:	je     0x4100e8
  4100c5:	push   0x411480
  4100ca:	call   0x410380
  4100cf:	pop    ecx
  4100d0:	test   eax,eax
  4100d2:	je     0x4100e8
  4100d4:	push   ebx
  4100d5:	push   0x2
  4100d7:	push   ebx
  4100d8:	mov    esi,DWORD PTR ds:0x411480
  4100de:	mov    ecx,esi
  4100e0:	call   DWORD PTR ds:0x41221c
  4100e6:	call   esi
  4100e8:	push   DWORD PTR ds:0x411050
  4100ee:	push   DWORD PTR ds:0x41104c
  4100f4:	push   DWORD PTR ds:0x411048
  4100fa:	call   0x403e78
  4100ff:	add    esp,0xc
  410102:	mov    ds:0x411040,eax
  410107:	cmp    DWORD PTR ds:0x411058,0x0
  41010e:	jne    0x410146
  410110:	push   eax
  410111:	call   DWORD PTR ds:0x4121dc
  410117:	mov    ecx,DWORD PTR [ebp-0x14]
  41011a:	mov    eax,DWORD PTR [ecx]
  41011c:	mov    eax,DWORD PTR [eax]
  41011e:	mov    DWORD PTR [ebp-0x20],eax
  410121:	push   ecx
  410122:	push   eax
  410123:	call   0x410254
  410128:	pop    ecx
  410129:	pop    ecx
  41012a:	ret    
  41012b:	mov    esp,DWORD PTR [ebp-0x18]
  41012e:	mov    eax,DWORD PTR [ebp-0x20]
  410131:	mov    ds:0x411040,eax
  410136:	cmp    DWORD PTR ds:0x411058,0x0
  41013d:	jne    0x410146
  41013f:	push   eax
  410140:	call   DWORD PTR ds:0x4121d8
  410146:	cmp    DWORD PTR ds:0x411044,0x0
  41014d:	jne    0x41015a
  41014f:	call   DWORD PTR ds:0x4121d4
  410155:	mov    eax,ds:0x411040
  41015a:	mov    DWORD PTR [ebp-0x4],0xfffffffe
  410161:	call   0x41059c
  410166:	ret    
  410167:	int3   
  410168:	int3   
  410169:	int3   
  41016a:	int3   
  41016b:	int3   
  41016c:	mov    edi,edi
  41016e:	push   ebp
  41016f:	mov    ebp,esp
  410171:	push   ecx
  410172:	mov    eax,ds:0x411004
  410177:	xor    eax,ebp
  410179:	mov    DWORD PTR [ebp-0x4],eax
  41017c:	push   esi
  41017d:	mov    esi,DWORD PTR [ebp+0x8]
  410180:	xor    eax,eax
  410182:	cmp    esi,DWORD PTR [ebp+0xc]
  410185:	jae    0x4101a5
  410187:	push   edi
  410188:	test   eax,eax
  41018a:	jne    0x4101a4
  41018c:	mov    edi,DWORD PTR [esi]
  41018e:	test   edi,edi
  410190:	je     0x41019c
  410192:	mov    ecx,edi
  410194:	call   DWORD PTR ds:0x41221c
  41019a:	call   edi
  41019c:	add    esi,0x4
  41019f:	cmp    esi,DWORD PTR [ebp+0xc]
  4101a2:	jb     0x410188
  4101a4:	pop    edi
  4101a5:	mov    ecx,DWORD PTR [ebp-0x4]
  4101a8:	xor    ecx,ebp
  4101aa:	pop    esi
  4101ab:	call   0x4101d0
  4101b0:	mov    esp,ebp
  4101b2:	pop    ebp
  4101b3:	ret    
  4101b4:	int3   
  4101b5:	int3   
  4101b6:	int3   
  4101b7:	int3   
  4101b8:	int3   
  4101b9:	int3   
  4101ba:	int3   
  4101bb:	int3   
  4101bc:	int3   
  4101bd:	int3   
  4101be:	int3   
  4101bf:	int3   
  4101c0:	call   0x410488
  4101c5:	jmp    0x40fff8
  4101ca:	int3   
  4101cb:	int3   
  4101cc:	int3   
  4101cd:	int3   
  4101ce:	int3   
  4101cf:	int3   
  4101d0:	cmp    ecx,DWORD PTR ds:0x411004
  4101d6:	jne    0x4101db
  4101d8:	ret    0x0
  4101db:	jmp    0x410615
  4101e0:	int3   
  4101e1:	int3   
  4101e2:	int3   
  4101e3:	int3   
  4101e4:	int3   
  4101e5:	int3   
  4101e6:	int3   
  4101e7:	int3   
  4101e8:	int3   
  4101e9:	int3   
  4101ea:	int3   
  4101eb:	int3   
  4101ec:	int3   
  4101ed:	int3   
  4101ee:	int3   
  4101ef:	int3   
  4101f0:	mov    edi,edi
  4101f2:	push   ebp
  4101f3:	mov    ebp,esp
  4101f5:	mov    eax,DWORD PTR [ebp+0x8]
  4101f8:	mov    eax,DWORD PTR [eax]
  4101fa:	cmp    DWORD PTR [eax],0xe06d7363
  410200:	jne    0x41022d
  410202:	cmp    DWORD PTR [eax+0x10],0x3
  410206:	jne    0x41022d
  410208:	mov    eax,DWORD PTR [eax+0x14]
  41020b:	cmp    eax,0x19930520
  410210:	je     0x410227
  410212:	cmp    eax,0x19930521
  410217:	je     0x410227
  410219:	cmp    eax,0x19930522
  41021e:	je     0x410227
  410220:	cmp    eax,0x1994000
  410225:	jne    0x41022d
  410227:	call   DWORD PTR ds:0x4121c4
  41022d:	xor    eax,eax
  41022f:	pop    ebp
  410230:	ret    0x4
  410233:	int3   
  410234:	int3   
  410235:	int3   
  410236:	int3   
  410237:	int3   
  410238:	int3   
  410239:	int3   
  41023a:	int3   
  41023b:	int3   
  41023c:	int3   
  41023d:	int3   
  41023e:	int3   
  41023f:	int3   
  410240:	push   0x4101f0
  410245:	call   DWORD PTR ds:0x412088
  41024b:	xor    eax,eax
  41024d:	ret    
  41024e:	int3   
  41024f:	int3   
  410250:	int3   
  410251:	int3   
  410252:	int3   
  410253:	int3   
  410254:	jmp    DWORD PTR ds:0x4121f4
  41025a:	int3   
  41025b:	int3   
  41025c:	int3   
  41025d:	int3   
  41025e:	int3   
  41025f:	push   0xc
  410261:	push   0x410ab8
  410266:	call   0x41072c
  41026b:	xor    ecx,ecx
  41026d:	mov    eax,DWORD PTR [ebp+0x8]
  410270:	test   eax,eax
  410272:	je     0x4102bf
  410274:	cmp    eax,0xffffffff
  410277:	je     0x4102bf
  410279:	mov    DWORD PTR [ebp-0x4],ecx
  41027c:	mov    edx,0x5a4d
  410281:	cmp    WORD PTR [eax],dx
  410284:	jne    0x4102b8
  410286:	mov    edx,DWORD PTR [eax+0x3c]
  410289:	test   edx,edx
  41028b:	js     0x4102b8
  41028d:	cmp    edx,0x10000000
  410293:	jae    0x4102b8
  410295:	add    eax,edx
  410297:	mov    DWORD PTR [ebp-0x1c],eax
  41029a:	mov    ecx,DWORD PTR [eax]
  41029c:	sub    ecx,0x4550
  4102a2:	neg    ecx
  4102a4:	sbb    ecx,ecx
  4102a6:	not    ecx
  4102a8:	and    ecx,eax
  4102aa:	jmp    0x4102b5
  4102ac:	xor    eax,eax
  4102ae:	inc    eax
  4102af:	ret    
  4102b0:	mov    esp,DWORD PTR [ebp-0x18]
  4102b3:	xor    ecx,ecx
  4102b5:	mov    DWORD PTR [ebp-0x1c],ecx
  4102b8:	mov    DWORD PTR [ebp-0x4],0xfffffffe
  4102bf:	mov    eax,ecx
  4102c1:	call   0x410771
  4102c6:	ret    0x4
  4102c9:	int3   
  4102ca:	int3   
  4102cb:	int3   
  4102cc:	int3   
  4102cd:	int3   
  4102ce:	mov    edi,edi
  4102d0:	push   ebp
  4102d1:	mov    ebp,esp
  4102d3:	push   0x0
  4102d5:	call   DWORD PTR ds:0x4120dc
  4102db:	test   eax,eax
  4102dd:	je     0x4102ff
  4102df:	push   eax
  4102e0:	call   0x41025f
  4102e5:	test   eax,eax
  4102e7:	je     0x4102ff
  4102e9:	movzx  ecx,WORD PTR [eax+0x5c]
  4102ed:	push   0x2
  4102ef:	pop    eax
  4102f0:	cmp    cx,ax
  4102f3:	je     0x410302
  4102f5:	cmp    ecx,0x3
  4102f8:	jne    0x4102ff
  4102fa:	xor    eax,eax
  4102fc:	inc    eax
  4102fd:	pop    ebp
  4102fe:	ret    
  4102ff:	mov    eax,DWORD PTR [ebp+0x8]
  410302:	pop    ebp
  410303:	ret    
  410304:	int3   
  410305:	int3   
  410306:	int3   
  410307:	int3   
  410308:	int3   
  410309:	int3   
  41030a:	jmp    DWORD PTR ds:0x4121ec
  410310:	int3   
  410311:	int3   
  410312:	int3   
  410313:	int3   
  410314:	int3   
  410315:	int3   
  410316:	int3   
  410317:	int3   
  410318:	int3   
  410319:	int3   
  41031a:	int3   
  41031b:	int3   
  41031c:	int3   
  41031d:	int3   
  41031e:	int3   
  41031f:	int3   
  410320:	xor    eax,eax
  410322:	ret    
  410323:	int3   
  410324:	int3   
  410325:	int3   
  410326:	int3   
  410327:	int3   
  410328:	int3   
  410329:	int3   
  41032a:	int3   
  41032b:	int3   
  41032c:	int3   
  41032d:	int3   
  41032e:	int3   
  41032f:	int3   
  410330:	mov    edi,edi
  410332:	push   ebp
  410333:	mov    ebp,esp
  410335:	mov    eax,DWORD PTR [ebp+0x8]
  410338:	xor    edx,edx
  41033a:	push   ebx
  41033b:	push   esi
  41033c:	push   edi
  41033d:	mov    ecx,DWORD PTR [eax+0x3c]
  410340:	add    ecx,eax
  410342:	movzx  eax,WORD PTR [ecx+0x14]
  410346:	movzx  ebx,WORD PTR [ecx+0x6]
  41034a:	add    eax,0x18
  41034d:	add    eax,ecx
  41034f:	test   ebx,ebx
  410351:	je     0x41036e
  410353:	mov    edi,DWORD PTR [ebp+0xc]
  410356:	mov    esi,DWORD PTR [eax+0xc]
  410359:	cmp    edi,esi
  41035b:	jb     0x410366
  41035d:	mov    ecx,DWORD PTR [eax+0x8]
  410360:	add    ecx,esi
  410362:	cmp    edi,ecx
  410364:	jb     0x410370
  410366:	inc    edx
  410367:	add    eax,0x28
  41036a:	cmp    edx,ebx
  41036c:	jb     0x410356
  41036e:	xor    eax,eax
  410370:	pop    edi
  410371:	pop    esi
  410372:	pop    ebx
  410373:	pop    ebp
  410374:	ret    
  410375:	int3   
  410376:	int3   
  410377:	int3   
  410378:	int3   
  410379:	int3   
  41037a:	int3   
  41037b:	int3   
  41037c:	int3   
  41037d:	int3   
  41037e:	int3   
  41037f:	int3   
  410380:	mov    edi,edi
  410382:	push   ebp
  410383:	mov    ebp,esp
  410385:	push   0xfffffffe
  410387:	push   0x410ad8
  41038c:	push   0x4105b0
  410391:	mov    eax,fs:0x0
  410397:	push   eax
  410398:	sub    esp,0x8
  41039b:	push   ebx
  41039c:	push   esi
  41039d:	push   edi
  41039e:	mov    eax,ds:0x411004
  4103a3:	xor    DWORD PTR [ebp-0x8],eax
  4103a6:	xor    eax,ebp
  4103a8:	push   eax
  4103a9:	lea    eax,[ebp-0x10]
  4103ac:	mov    fs:0x0,eax
  4103b2:	mov    DWORD PTR [ebp-0x18],esp
  4103b5:	mov    DWORD PTR [ebp-0x4],0x0
  4103bc:	push   0x400000
  4103c1:	call   0x410450
  4103c6:	add    esp,0x4
  4103c9:	test   eax,eax
  4103cb:	je     0x410421
  4103cd:	mov    eax,DWORD PTR [ebp+0x8]
  4103d0:	sub    eax,0x400000
  4103d5:	push   eax
  4103d6:	push   0x400000
  4103db:	call   0x410330
  4103e0:	add    esp,0x8
  4103e3:	test   eax,eax
  4103e5:	je     0x410421
  4103e7:	mov    eax,DWORD PTR [eax+0x24]
  4103ea:	shr    eax,0x1f
  4103ed:	not    eax
  4103ef:	and    eax,0x1
  4103f2:	mov    DWORD PTR [ebp-0x4],0xfffffffe
  4103f9:	mov    ecx,DWORD PTR [ebp-0x10]
  4103fc:	mov    DWORD PTR fs:0x0,ecx
  410403:	pop    ecx
  410404:	pop    edi
  410405:	pop    esi
  410406:	pop    ebx
  410407:	mov    esp,ebp
  410409:	pop    ebp
  41040a:	ret    
  41040b:	mov    eax,DWORD PTR [ebp-0x14]
  41040e:	mov    eax,DWORD PTR [eax]
  410410:	xor    ecx,ecx
  410412:	cmp    DWORD PTR [eax],0xc0000005
  410418:	sete   cl
  41041b:	mov    eax,ecx
  41041d:	ret    
  41041e:	mov    esp,DWORD PTR [ebp-0x18]
  410421:	mov    DWORD PTR [ebp-0x4],0xfffffffe
  410428:	xor    eax,eax
  41042a:	mov    ecx,DWORD PTR [ebp-0x10]
  41042d:	mov    DWORD PTR fs:0x0,ecx
  410434:	pop    ecx
  410435:	pop    edi
  410436:	pop    esi
  410437:	pop    ebx
  410438:	mov    esp,ebp
  41043a:	pop    ebp
  41043b:	ret    
  41043c:	int3   
  41043d:	int3   
  41043e:	int3   
  41043f:	int3   
  410440:	int3   
  410441:	int3   
  410442:	int3   
  410443:	int3   
  410444:	int3   
  410445:	int3   
  410446:	int3   
  410447:	int3   
  410448:	int3   
  410449:	int3   
  41044a:	int3   
  41044b:	int3   
  41044c:	int3   
  41044d:	int3   
  41044e:	int3   
  41044f:	int3   
  410450:	mov    edi,edi
  410452:	push   ebp
  410453:	mov    ebp,esp
  410455:	mov    eax,DWORD PTR [ebp+0x8]
  410458:	mov    ecx,0x5a4d
  41045d:	cmp    WORD PTR [eax],cx
  410460:	je     0x410466
  410462:	xor    eax,eax
  410464:	pop    ebp
  410465:	ret    
  410466:	mov    ecx,DWORD PTR [eax+0x3c]
  410469:	add    ecx,eax
  41046b:	xor    eax,eax
  41046d:	cmp    DWORD PTR [ecx],0x4550
  410473:	jne    0x410481
  410475:	mov    edx,0x10b
  41047a:	cmp    WORD PTR [ecx+0x18],dx
  41047e:	sete   al
  410481:	pop    ebp
  410482:	ret    
  410483:	int3   
  410484:	int3   
  410485:	int3   
  410486:	int3   
  410487:	int3   
  410488:	mov    edi,edi
  41048a:	push   ebp
  41048b:	mov    ebp,esp
  41048d:	sub    esp,0x14
  410490:	and    DWORD PTR [ebp-0xc],0x0
  410494:	and    DWORD PTR [ebp-0x8],0x0
  410498:	mov    eax,ds:0x411004
  41049d:	push   esi
  41049e:	push   edi
  41049f:	mov    edi,0xbb40e64e
  4104a4:	mov    esi,0xffff0000
  4104a9:	cmp    eax,edi
  4104ab:	je     0x4104ba
  4104ad:	test   esi,eax
  4104af:	je     0x4104ba
  4104b1:	not    eax
  4104b3:	mov    ds:0x411008,eax
  4104b8:	jmp    0x410524
  4104ba:	lea    eax,[ebp-0xc]
  4104bd:	push   eax
  4104be:	call   DWORD PTR ds:0x412154
  4104c4:	mov    eax,DWORD PTR [ebp-0x8]
  4104c7:	xor    eax,DWORD PTR [ebp-0xc]
  4104ca:	mov    DWORD PTR [ebp-0x4],eax
  4104cd:	call   DWORD PTR ds:0x412100
  4104d3:	xor    DWORD PTR [ebp-0x4],eax
  4104d6:	call   DWORD PTR ds:0x412108
  4104dc:	xor    DWORD PTR [ebp-0x4],eax
  4104df:	call   DWORD PTR ds:0x412158
  4104e5:	xor    eax,DWORD PTR [ebp-0x4]
  4104e8:	lea    ecx,[ebp-0x4]
  4104eb:	xor    eax,ecx
  4104ed:	mov    DWORD PTR [ebp-0x4],eax
  4104f0:	lea    eax,[ebp-0x14]
  4104f3:	push   eax
  4104f4:	call   DWORD PTR ds:0x412110
  4104fa:	mov    eax,DWORD PTR [ebp-0x10]
  4104fd:	xor    eax,DWORD PTR [ebp-0x14]
  410500:	mov    ecx,DWORD PTR [ebp-0x4]
  410503:	xor    ecx,eax
  410505:	cmp    ecx,edi
  410507:	je     0x410511
  410509:	test   DWORD PTR ds:0x411004,esi
  41050f:	jne    0x410516
  410511:	mov    ecx,0xbb40e64f
  410516:	mov    DWORD PTR ds:0x411004,ecx
  41051c:	not    ecx
  41051e:	mov    DWORD PTR ds:0x411008,ecx
  410524:	pop    edi
  410525:	pop    esi
  410526:	mov    esp,ebp
  410528:	pop    ebp
  410529:	ret    
  41052a:	int3   
  41052b:	int3   
  41052c:	int3   
  41052d:	int3   
  41052e:	int3   
  41052f:	push   0x30000
  410534:	push   0x10000
  410539:	call   DWORD PTR ds:0x4121c0
  41053f:	pop    ecx
  410540:	pop    ecx
  410541:	ret    
  410542:	int3   
  410543:	int3   
  410544:	int3   
  410545:	int3   
  410546:	int3   
  410547:	int3   
  410548:	jmp    DWORD PTR ds:0x4121c8
  41054e:	int3   
  41054f:	int3   
  410550:	int3   
  410551:	int3   
  410552:	int3   
  410553:	int3   
  410554:	push   0x4105b0
  410559:	push   DWORD PTR fs:0x0
  410560:	mov    eax,DWORD PTR [esp+0x10]
  410564:	mov    DWORD PTR [esp+0x10],ebp
  410568:	lea    ebp,[esp+0x10]
  41056c:	sub    esp,eax
  41056e:	push   ebx
  41056f:	push   esi
  410570:	push   edi
  410571:	mov    eax,ds:0x411004
  410576:	xor    DWORD PTR [ebp-0x4],eax
  410579:	xor    eax,ebp
  41057b:	mov    DWORD PTR [ebp-0x1c],eax
  41057e:	push   eax
  41057f:	mov    DWORD PTR [ebp-0x18],esp
  410582:	push   DWORD PTR [ebp-0x8]
  410585:	mov    eax,DWORD PTR [ebp-0x4]
  410588:	mov    DWORD PTR [ebp-0x4],0xfffffffe
  41058f:	mov    DWORD PTR [ebp-0x8],eax
  410592:	lea    eax,[ebp-0x10]
  410595:	mov    fs:0x0,eax
  41059b:	ret    
  41059c:	mov    ecx,DWORD PTR [ebp-0x1c]
  41059f:	xor    ecx,ebp
  4105a1:	call   0x4101d0
  4105a6:	jmp    0x410771
  4105ab:	int3   
  4105ac:	int3   
  4105ad:	int3   
  4105ae:	int3   
  4105af:	int3   
  4105b0:	mov    edi,edi
  4105b2:	push   ebp
  4105b3:	mov    ebp,esp
  4105b5:	push   DWORD PTR [ebp+0x14]
  4105b8:	push   DWORD PTR [ebp+0x10]
  4105bb:	push   DWORD PTR [ebp+0xc]
  4105be:	push   DWORD PTR [ebp+0x8]
  4105c1:	push   0x4101d0
  4105c6:	push   0x411004
  4105cb:	call   0x41078a
  4105d0:	add    esp,0x18
  4105d3:	pop    ebp
  4105d4:	ret    
  4105d5:	int3   
  4105d6:	int3   
  4105d7:	int3   
  4105d8:	int3   
  4105d9:	int3   
  4105da:	int3   
  4105db:	int3   
  4105dc:	int3   
  4105dd:	int3   
  4105de:	int3   
  4105df:	int3   
  4105e0:	ret    
  4105e1:	int3   
  4105e2:	int3   
  4105e3:	int3   
  4105e4:	int3   
  4105e5:	int3   
  4105e6:	mov    edi,edi
  4105e8:	push   ebp
  4105e9:	mov    ebp,esp
  4105eb:	push   0x0
  4105ed:	call   DWORD PTR ds:0x412088
  4105f3:	push   DWORD PTR [ebp+0x8]
  4105f6:	call   DWORD PTR ds:0x412090
  4105fc:	push   0xc0000409
  410601:	call   DWORD PTR ds:0x4120f8
  410607:	push   eax
  410608:	call   DWORD PTR ds:0x412104
  41060e:	pop    ebp
  41060f:	ret    
  410610:	int3   
  410611:	int3   
  410612:	int3   
  410613:	int3   
  410614:	int3   
  410615:	mov    edi,edi
  410617:	push   ebp
  410618:	mov    ebp,esp
  41061a:	sub    esp,0x324
  410620:	mov    ds:0x411170,eax
  410625:	mov    DWORD PTR ds:0x41116c,ecx
  41062b:	mov    DWORD PTR ds:0x411168,edx
  410631:	mov    DWORD PTR ds:0x411164,ebx
  410637:	mov    DWORD PTR ds:0x411160,esi
  41063d:	mov    DWORD PTR ds:0x41115c,edi
  410643:	data16 mov WORD PTR ds:0x411188,ss
  41064a:	data16 mov WORD PTR ds:0x41117c,cs
  410651:	data16 mov WORD PTR ds:0x411158,ds
  410658:	data16 mov WORD PTR ds:0x411154,es
  41065f:	data16 mov WORD PTR ds:0x411150,fs
  410666:	data16 mov WORD PTR ds:0x41114c,gs
  41066d:	pushf  
  41066e:	pop    DWORD PTR ds:0x411180
  410674:	mov    eax,DWORD PTR [ebp+0x0]
  410677:	mov    ds:0x411174,eax
  41067c:	mov    eax,DWORD PTR [ebp+0x4]
  41067f:	mov    ds:0x411178,eax
  410684:	lea    eax,[ebp+0x8]
  410687:	mov    ds:0x411184,eax
  41068c:	mov    eax,DWORD PTR [ebp-0x324]
  410692:	mov    DWORD PTR ds:0x4110c0,0x10001
  41069c:	mov    eax,ds:0x411178
  4106a1:	mov    ds:0x41107c,eax
  4106a6:	mov    DWORD PTR ds:0x411070,0xc0000409
  4106b0:	mov    DWORD PTR ds:0x411074,0x1
  4106ba:	mov    DWORD PTR ds:0x411080,0x3
  4106c4:	push   0x4
  4106c6:	pop    eax
  4106c7:	imul   eax,eax,0x0
  4106ca:	mov    DWORD PTR [eax+0x411084],0x2
  4106d4:	push   0x4
  4106d6:	pop    eax
  4106d7:	shl    eax,0x0
  4106da:	mov    ecx,DWORD PTR ds:0x411004
  4106e0:	mov    DWORD PTR [eax+0x411084],ecx
  4106e6:	push   0x4
  4106e8:	pop    eax
  4106e9:	shl    eax,1
  4106eb:	mov    ecx,DWORD PTR ds:0x411008
  4106f1:	mov    DWORD PTR [eax+0x411084],ecx
  4106f7:	push   0x4
  4106f9:	pop    eax
  4106fa:	imul   eax,eax,0x0
  4106fd:	mov    ecx,DWORD PTR ds:0x411004
  410703:	mov    DWORD PTR [ebp+eax*1-0x8],ecx
  410707:	push   0x4
  410709:	pop    eax
  41070a:	shl    eax,0x0
  41070d:	mov    ecx,DWORD PTR ds:0x411008
  410713:	mov    DWORD PTR [ebp+eax*1-0x8],ecx
  410717:	push   0x401140
  41071c:	call   0x4105e6
  410721:	mov    esp,ebp
  410723:	pop    ebp
  410724:	ret    
  410725:	int3   
  410726:	int3   
  410727:	int3   
  410728:	int3   
  410729:	int3   
  41072a:	int3   
  41072b:	int3   
  41072c:	push   0x4105b0
  410731:	push   DWORD PTR fs:0x0
  410738:	mov    eax,DWORD PTR [esp+0x10]
  41073c:	mov    DWORD PTR [esp+0x10],ebp
  410740:	lea    ebp,[esp+0x10]
  410744:	sub    esp,eax
  410746:	push   ebx
  410747:	push   esi
  410748:	push   edi
  410749:	mov    eax,ds:0x411004
  41074e:	xor    DWORD PTR [ebp-0x4],eax
  410751:	xor    eax,ebp
  410753:	push   eax
  410754:	mov    DWORD PTR [ebp-0x18],esp
  410757:	push   DWORD PTR [ebp-0x8]
  41075a:	mov    eax,DWORD PTR [ebp-0x4]
  41075d:	mov    DWORD PTR [ebp-0x4],0xfffffffe
  410764:	mov    DWORD PTR [ebp-0x8],eax
  410767:	lea    eax,[ebp-0x10]
  41076a:	mov    fs:0x0,eax
  410770:	ret    
  410771:	mov    ecx,DWORD PTR [ebp-0x10]
  410774:	mov    DWORD PTR fs:0x0,ecx
  41077b:	pop    ecx
  41077c:	pop    edi
  41077d:	pop    edi
  41077e:	pop    esi
  41077f:	pop    ebx
  410780:	mov    esp,ebp
  410782:	pop    ebp
  410783:	push   ecx
  410784:	ret    
  410785:	int3   
  410786:	int3   
  410787:	int3   
  410788:	int3   
  410789:	int3   
  41078a:	jmp    DWORD PTR ds:0x4121bc
  410790:	int3   
  410791:	int3   
  410792:	int3   
  410793:	int3   
  410794:	int3   
  410795:	int3   
  410796:	int3   
  410797:	int3   
  410798:	int3   
  410799:	int3   
  41079a:	int3   
  41079b:	int3   
  41079c:	int3   
  41079d:	int3   
  41079e:	int3   
  41079f:	int3   
  4107a0:	mov    eax,0x414004
  4107a5:	jmp    0x4107af
  4107aa:	int3   
  4107ab:	int3   
  4107ac:	int3   
  4107ad:	int3   
  4107ae:	int3   
  4107af:	push   ecx
  4107b0:	push   edx
  4107b1:	push   eax
  4107b2:	push   0x410af4
  4107b7:	call   0x40dfe0
  4107bc:	pop    edx
  4107bd:	pop    ecx
  4107be:	jmp    eax
  4107c0:	int3   
  4107c1:	int3   
  4107c2:	int3   
  4107c3:	int3   
  4107c4:	int3   
  4107c5:	int3   
  4107c6:	int3   
  4107c7:	int3   
  4107c8:	int3   
  4107c9:	int3   
  4107ca:	int3   
  4107cb:	int3   
  4107cc:	int3   
  4107cd:	int3   
  4107ce:	int3   
  4107cf:	int3   
  4107d0:	mov    eax,0x414000
  4107d5:	jmp    0x4107af
  4107da:	int3   
  4107db:	int3   
  4107dc:	int3   
  4107dd:	int3   
  4107de:	int3   
  4107df:	int3   
  4107e0:	mov    eax,0x41400c
  4107e5:	jmp    0x4107ef
  4107ea:	int3   
  4107eb:	int3   
  4107ec:	int3   
  4107ed:	int3   
  4107ee:	int3   
  4107ef:	push   ecx
  4107f0:	push   edx
  4107f1:	push   eax
  4107f2:	push   0x410b14
  4107f7:	call   0x40dfe0
  4107fc:	pop    edx
  4107fd:	pop    ecx
  4107fe:	jmp    eax
  410800:	int3   
  410801:	int3   
  410802:	int3   
  410803:	int3   
  410804:	int3   
  410805:	int3   
  410806:	int3   
  410807:	int3   
  410808:	int3   
  410809:	int3   
  41080a:	int3   
  41080b:	int3   
  41080c:	int3   
  41080d:	int3   
  41080e:	int3   
  41080f:	int3   
  410810:	mov    eax,0x414014
  410815:	jmp    0x41081f
  41081a:	int3   
  41081b:	int3   
  41081c:	int3   
  41081d:	int3   
  41081e:	int3   
  41081f:	push   ecx
  410820:	push   edx
  410821:	push   eax
  410822:	push   0x410b34
  410827:	call   0x40dfe0
  41082c:	pop    edx
  41082d:	pop    ecx
  41082e:	jmp    eax
  410830:	int3   
  410831:	int3   
  410832:	int3   
  410833:	int3   
  410834:	int3   
  410835:	int3   
  410836:	int3   
  410837:	int3   
  410838:	int3   
  410839:	int3   
  41083a:	int3   
  41083b:	int3   
  41083c:	int3   
  41083d:	int3   
  41083e:	int3   
  41083f:	int3   
  410840:	jmp    DWORD PTR ds:0x41203c
  410846:	int3   
  410847:	int3   
  410848:	int3   
  410849:	int3   
  41084a:	int3   
  41084b:	int3   
  41084c:	int3   
  41084d:	int3   
  41084e:	int3   
  41084f:	int3   
  410850:	jmp    DWORD PTR ds:0x41207c
  410856:	int3   
  410857:	int3   
  410858:	int3   
  410859:	int3   
  41085a:	int3   
  41085b:	int3   
  41085c:	jmp    DWORD PTR ds:0x4121b8
  410862:	int3   
  410863:	int3   
  410864:	int3   
  410865:	int3   
  410866:	int3   
  410867:	int3   
  410868:	jmp    DWORD PTR ds:0x4121f8
  41086e:	int3   
  41086f:	int3   
  410870:	(bad)  
  410871:	(bad)  
  410872:	(bad)  
  410873:	inc    DWORD PTR [eax]
  410875:	add    BYTE PTR [eax],al
  410877:	add    al,cl
  410879:	(bad)  
  41087a:	(bad)  
  41087b:	inc    DWORD PTR [eax]
  41087d:	add    BYTE PTR [eax],al
  41087f:	add    dh,bh
  410881:	(bad)  
  410882:	(bad)  
  410883:	inc    DWORD PTR [ebx+eax*2+0x43960040]
  41088a:	inc    eax
  41088b:	add    BYTE PTR [eax],al
  41088d:	add    BYTE PTR [eax],al
  41088f:	add    dh,bh
  410891:	(bad)  
  410892:	(bad)  
  410893:	inc    DWORD PTR [eax]
  410895:	add    BYTE PTR [eax],al
  410897:	add    ah,al
  410899:	(bad)  
  41089a:	(bad)  
  41089b:	inc    DWORD PTR [eax]
  41089d:	add    BYTE PTR [eax],al
  41089f:	add    dh,bh
  4108a1:	(bad)  
  4108a2:	(bad)  
  4108a3:	(bad)  
  4108a4:	jmp    0xfb4148ed
  4108a9:	inc    esp
  4108aa:	inc    eax
  4108ab:	add    BYTE PTR [eax],al
  4108ad:	add    BYTE PTR [eax],al
  4108af:	add    dh,bh
  4108b1:	(bad)  
  4108b2:	(bad)  
  4108b3:	inc    DWORD PTR [eax]
  4108b5:	add    BYTE PTR [eax],al
  4108b7:	add    BYTE PTR [edi+edi*8+0xffff],bh
  4108be:	add    BYTE PTR [eax],al
  4108c0:	(bad)  
  4108c1:	(bad)  
  4108c2:	(bad)  
  4108c3:	push   DWORD PTR [edi-0x36ffbfba]
  4108c9:	inc    esi
  4108ca:	inc    eax
  4108cb:	add    BYTE PTR [eax],al
  4108cd:	add    BYTE PTR [eax],al
  4108cf:	add    dh,bh
  4108d1:	(bad)  
  4108d2:	(bad)  
  4108d3:	inc    DWORD PTR [eax]
  4108d5:	add    BYTE PTR [eax],al
  4108d7:	add    ah,al
  4108d9:	(bad)  
  4108da:	(bad)  
  4108db:	inc    DWORD PTR [eax]
  4108dd:	add    BYTE PTR [eax],al
  4108df:	add    dh,bh
  4108e1:	(bad)  
  4108e2:	(bad)  
  4108e3:	(bad)  
  4108e4:	cli    
  4108e5:	inc    edi
  4108e6:	inc    eax
  4108e7:	add    BYTE PTR [eax+ecx*2],cl
  4108ea:	inc    eax
  4108eb:	add    BYTE PTR [eax],al
  4108ed:	add    BYTE PTR [eax],al
  4108ef:	add    dh,bh
  4108f1:	(bad)  
  4108f2:	(bad)  
  4108f3:	inc    DWORD PTR [eax]
  4108f5:	add    BYTE PTR [eax],al
  4108f7:	add    ah,al
  4108f9:	(bad)  
  4108fa:	(bad)  
  4108fb:	inc    DWORD PTR [eax]
  4108fd:	add    BYTE PTR [eax],al
  4108ff:	add    dh,bh
  410901:	(bad)  
  410902:	(bad)  
  410903:	(bad)  
  410904:	cmp    cl,BYTE PTR [ecx+0x40]
  410907:	add    BYTE PTR [ecx+ecx*2+0x40],cl
  41090b:	add    BYTE PTR [eax],al
  41090d:	add    BYTE PTR [eax],al
  41090f:	add    dh,bh
  410911:	(bad)  
  410912:	(bad)  
  410913:	inc    DWORD PTR [eax]
  410915:	add    BYTE PTR [eax],al
  410917:	add    ah,al
  410919:	(bad)  
  41091a:	(bad)  
  41091b:	inc    DWORD PTR [eax]
  41091d:	add    BYTE PTR [eax],al
  41091f:	add    dh,bh
  410921:	(bad)  
  410922:	(bad)  
  410923:	call   FWORD PTR [ebx+0x4a]
  410926:	inc    eax
  410927:	add    BYTE PTR [ebp+0x4a],ch
  41092a:	inc    eax
  41092b:	add    BYTE PTR [eax],al
  41092d:	add    BYTE PTR [eax],al
  41092f:	add    dh,bh
  410931:	(bad)  
  410932:	(bad)  
  410933:	inc    DWORD PTR [eax]
  410935:	add    BYTE PTR [eax],al
  410937:	add    ah,al
  410939:	(bad)  
  41093a:	(bad)  
  41093b:	inc    DWORD PTR [eax]
  41093d:	add    BYTE PTR [eax],al
  41093f:	add    dh,bh
  410941:	(bad)  
  410942:	(bad)  
  410943:	call   ebx
  410945:	dec    ebx
  410946:	inc    eax
  410947:	add    ch,ah
  410949:	dec    ebx
  41094a:	inc    eax
  41094b:	add    BYTE PTR [eax],al
  41094d:	add    BYTE PTR [eax],al
  41094f:	add    dh,bh
  410951:	(bad)  
  410952:	(bad)  
  410953:	inc    DWORD PTR [eax]
  410955:	add    BYTE PTR [eax],al
  410957:	add    ah,al
  410959:	(bad)  
  41095a:	(bad)  
  41095b:	inc    DWORD PTR [eax]
  41095d:	add    BYTE PTR [eax],al
  41095f:	add    dh,bh
  410961:	(bad)  
  410962:	(bad)  
  410963:	jmp    esi
  410965:	dec    esp
  410966:	inc    eax
  410967:	add    al,bh
  410969:	dec    esp
  41096a:	inc    eax
  41096b:	add    BYTE PTR [eax],al
  41096d:	add    BYTE PTR [eax],al
  41096f:	add    dh,bh
  410971:	(bad)  
  410972:	(bad)  
  410973:	inc    DWORD PTR [eax]
  410975:	add    BYTE PTR [eax],al
  410977:	add    BYTE PTR [edi+edi*8+0xffff],bh
  41097e:	add    BYTE PTR [eax],al
  410980:	(bad)  
  410981:	(bad)  
  410982:	(bad)  
  410983:	call   DWORD PTR [esi+0x4e]
  410986:	inc    eax
  410987:	add    BYTE PTR [eax+0x4e],ch
  41098a:	inc    eax
  41098b:	add    BYTE PTR [eax],al
  41098d:	add    BYTE PTR [eax],al
  41098f:	add    dh,bh
  410991:	(bad)  
  410992:	(bad)  
  410993:	inc    DWORD PTR [eax]
  410995:	add    BYTE PTR [eax],al
  410997:	add    ah,al
  410999:	(bad)  
  41099a:	(bad)  
  41099b:	inc    DWORD PTR [eax]
  41099d:	add    BYTE PTR [eax],al
  41099f:	add    dh,bh
  4109a1:	(bad)  
  4109a2:	(bad)  
  4109a3:	inc    DWORD PTR [eax-0x6dffbfb1]
  4109a9:	dec    edi
  4109aa:	inc    eax
  4109ab:	add    BYTE PTR [eax],al
  4109ad:	add    BYTE PTR [eax],al
  4109af:	add    dh,bh
  4109b1:	(bad)  
  4109b2:	(bad)  
  4109b3:	inc    DWORD PTR [eax]
  4109b5:	add    BYTE PTR [eax],al
  4109b7:	add    ah,al
  4109b9:	(bad)  
  4109ba:	(bad)  
  4109bb:	inc    DWORD PTR [eax]
  4109bd:	add    BYTE PTR [eax],al
  4109bf:	add    dh,bh
  4109c1:	(bad)  
  4109c2:	(bad)  
  4109c3:	dec    DWORD PTR [ecx-0x64ffbfb0]
  4109c9:	push   eax
  4109ca:	inc    eax
  4109cb:	add    BYTE PTR [eax],al
  4109cd:	add    BYTE PTR [eax],al
  4109cf:	add    dh,bh
  4109d1:	(bad)  
  4109d2:	(bad)  
  4109d3:	inc    DWORD PTR [eax]
  4109d5:	add    BYTE PTR [eax],al
  4109d7:	add    ah,al
  4109d9:	(bad)  
  4109da:	(bad)  
  4109db:	inc    DWORD PTR [eax]
  4109dd:	add    BYTE PTR [eax],al
  4109df:	add    dh,bh
  4109e1:	(bad)  
  4109e2:	(bad)  
  4109e3:	call   DWORD PTR [ebx-0x5affbfaf]
  4109e9:	push   ecx
  4109ea:	inc    eax
  4109eb:	add    BYTE PTR [eax],al
  4109ed:	add    BYTE PTR [eax],al
  4109ef:	add    dh,bh
  4109f1:	(bad)  
  4109f2:	(bad)  
  4109f3:	inc    DWORD PTR [eax]
  4109f5:	add    BYTE PTR [eax],al
  4109f7:	add    ah,al
  4109f9:	(bad)  
  4109fa:	(bad)  
  4109fb:	inc    DWORD PTR [eax]
  4109fd:	add    BYTE PTR [eax],al
  4109ff:	add    dh,bh
  410a01:	(bad)  
  410a02:	(bad)  
  410a03:	call   ebx
  410a05:	push   edx
  410a06:	inc    eax
  410a07:	add    ch,ah
  410a09:	push   edx
  410a0a:	inc    eax
  410a0b:	add    BYTE PTR [eax],al
  410a0d:	add    BYTE PTR [eax],al
  410a0f:	add    dh,bh
  410a11:	(bad)  
  410a12:	(bad)  
  410a13:	inc    DWORD PTR [eax]
  410a15:	add    BYTE PTR [eax],al
  410a17:	add    ah,al
  410a19:	(bad)  
  410a1a:	(bad)  
  410a1b:	inc    DWORD PTR [eax]
  410a1d:	add    BYTE PTR [eax],al
  410a1f:	add    dh,bh
  410a21:	(bad)  
  410a22:	(bad)  
  410a23:	call   DWORD PTR [ebx]
  410a25:	push   esp
  410a26:	inc    eax
  410a27:	add    BYTE PTR ds:0x4054,ah
  410a2d:	add    BYTE PTR [eax],al
  410a2f:	add    dh,bh
  410a31:	(bad)  
  410a32:	(bad)  
  410a33:	inc    DWORD PTR [eax]
  410a35:	add    BYTE PTR [eax],al
  410a37:	add    BYTE PTR [edi+edi*8+0xffff],bh
  410a3e:	add    BYTE PTR [eax],al
  410a40:	(bad)  
  410a41:	(bad)  
  410a42:	(bad)  
  410a43:	call   DWORD PTR [eax]
  410a45:	push   esi
  410a46:	inc    eax
  410a47:	add    BYTE PTR [edx],ah
  410a49:	push   esi
  410a4a:	inc    eax
  410a4b:	add    BYTE PTR [eax],al
  410a4d:	add    BYTE PTR [eax],al
  410a4f:	add    dh,bh
  410a51:	(bad)  
  410a52:	(bad)  
  410a53:	inc    DWORD PTR [eax]
  410a55:	add    BYTE PTR [eax],al
  410a57:	add    ah,cl
  410a59:	(bad)  
  410a5a:	(bad)  
  410a5b:	inc    DWORD PTR [eax]
  410a5d:	add    BYTE PTR [eax],al
  410a5f:	add    dh,bh
  410a61:	(bad)  
  410a62:	(bad)  
  410a63:	jmp    DWORD PTR [ebx]
  410a65:	lods   al,BYTE PTR ds:[esi]
  410a66:	inc    eax
  410a67:	add    BYTE PTR [ecx],dh
  410a69:	lods   al,BYTE PTR ds:[esi]
  410a6a:	inc    eax
  410a6b:	add    BYTE PTR [eax],al
  410a6d:	add    BYTE PTR [eax],al
  410a6f:	add    dh,bh
  410a71:	(bad)  
  410a72:	(bad)  
  410a73:	inc    DWORD PTR [eax]
  410a75:	add    BYTE PTR [eax],al
  410a77:	add    al,al
  410a79:	(bad)  
  410a7a:	(bad)  
  410a7b:	inc    DWORD PTR [eax]
  410a7d:	add    BYTE PTR [eax],al
  410a7f:	add    dh,bh
  410a81:	(bad)  
  410a82:	(bad)  
  410a83:	inc    DWORD PTR [ebp-0x20]
  410a86:	inc    eax
  410a87:	add    BYTE PTR [ebx-0x20],dl
  410a8a:	inc    eax
  410a8b:	add    dh,bh
  410a8d:	(bad)  
  410a8e:	(bad)  
  410a8f:	dec    DWORD PTR [edx-0x67ffbf20]
  410a95:	loopne 0x410ad7
  410a97:	add    ah,ah
  410a99:	(bad)  
  410a9a:	(bad)  
  410a9b:	inc    DWORD PTR [eax]
  410a9d:	add    BYTE PTR [eax],al
  410a9f:	add    al,dl
  410aa1:	(bad)  
  410aa2:	(bad)  
  410aa3:	inc    DWORD PTR [eax]
  410aa5:	add    BYTE PTR [eax],al
  410aa7:	add    dh,bh
  410aa9:	(bad)  
  410aaa:	(bad)  
  410aab:	call   DWORD PTR [edi]
  410aad:	add    DWORD PTR [ecx+0x0],eax
  410ab0:	sub    eax,DWORD PTR [ecx]
  410ab2:	inc    ecx
  410ab3:	add    BYTE PTR [eax],al
  410ab5:	add    BYTE PTR [eax],al
  410ab7:	add    dh,bh
  410ab9:	(bad)  
  410aba:	(bad)  
  410abb:	inc    DWORD PTR [eax]
  410abd:	add    BYTE PTR [eax],al
  410abf:	add    ah,dl
  410ac1:	(bad)  
  410ac2:	(bad)  
  410ac3:	inc    DWORD PTR [eax]
  410ac5:	add    BYTE PTR [eax],al
  410ac7:	add    dh,bh
  410ac9:	(bad)  
  410aca:	(bad)  
  410acb:	jmp    FWORD PTR [edx+eax*1+0x2b00041]
  410ad2:	inc    ecx
  410ad3:	add    BYTE PTR [eax],al
  410ad5:	add    BYTE PTR [eax],al
  410ad7:	add    dh,bh
  410ad9:	(bad)  
  410ada:	(bad)  
  410adb:	inc    DWORD PTR [eax]
  410add:	add    BYTE PTR [eax],al
  410adf:	add    al,bl
  410ae1:	(bad)  
  410ae2:	(bad)  
  410ae3:	inc    DWORD PTR [eax]
  410ae5:	add    BYTE PTR [eax],al
  410ae7:	add    dh,bh
  410ae9:	(bad)  
  410aea:	(bad)  
  410aeb:	dec    DWORD PTR [ebx]
  410aed:	add    al,0x41
  410aef:	add    BYTE PTR [esi],bl
  410af1:	add    al,0x41
  410af3:	add    BYTE PTR [ecx],al
  410af5:	add    BYTE PTR [eax],al
  410af7:	add    BYTE PTR [eax+0x11],dl
  410afa:	add    BYTE PTR [eax],al
  410afc:	mov    WORD PTR [ebx],ss
  410afe:	add    DWORD PTR [eax],eax
  410b00:	add    BYTE PTR [eax+0x1],al
  410b03:	add    BYTE PTR [ebx+ecx*1+0x1],dh
  410b07:	add    al,ch
  410b09:	or     eax,DWORD PTR [ecx]
	...
  410b13:	add    BYTE PTR [ecx],al
  410b15:	add    BYTE PTR [eax],al
  410b17:	add    BYTE PTR [eax+0x11],ah
  410b1a:	add    BYTE PTR [eax],al
  410b1c:	nop
  410b1d:	adc    eax,DWORD PTR [ecx]
  410b1f:	add    BYTE PTR [eax+eax*2],cl
  410b22:	add    DWORD PTR [eax],eax
  410b24:	or     BYTE PTR [ebx],0x1
  410b27:	add    ah,dh
  410b29:	or     eax,DWORD PTR [ecx]
	...
  410b33:	add    BYTE PTR [ecx],al
  410b35:	add    BYTE PTR [eax],al
  410b37:	add    BYTE PTR [eax+0x11],dh
  410b3a:	add    BYTE PTR [eax],al
  410b3c:	xchg   esp,eax
  410b3d:	adc    eax,DWORD PTR [ecx]
  410b3f:	add    BYTE PTR [eax+eax*2],dl
  410b42:	add    DWORD PTR [eax],eax
  410b44:	mov    BYTE PTR [ebx],cl
  410b46:	add    DWORD PTR [eax],eax
  410b48:	cld    
  410b49:	or     eax,DWORD PTR [ecx]
	...
  410b73:	add    BYTE PTR [esi-0x6ffffef5],ah
  410b79:	or     eax,DWORD PTR [ecx]
  410b7b:	add    BYTE PTR [eax],al
  410b7d:	add    BYTE PTR [eax],al
  410b7f:	add    BYTE PTR [edx+0x10b],bh
  410b85:	add    BYTE PTR [eax],al
  410b87:	add    dh,cl
  410b89:	or     eax,DWORD PTR [ecx]
  410b8b:	add    BYTE PTR [eax],al
  410b8d:	add    BYTE PTR [eax],al
  410b8f:	add    BYTE PTR [eax],al
  410b91:	add    BYTE PTR [ebx+0x72],al
  410b94:	jns    0x410c06
  410b96:	je     0x410bed
  410b98:	outs   dx,BYTE PTR ds:[esi]
  410b99:	jo     0x410c0d
  410b9b:	outs   dx,DWORD PTR ds:[esi]
  410b9c:	je     0x410c03
  410b9e:	arpl   WORD PTR [esp+eax*2+0x61],si
  410ba2:	je     0x410c05
  410ba4:	add    BYTE PTR [eax],al
  410ba6:	add    BYTE PTR [eax],al
  410ba8:	inc    ebx
  410ba9:	jb     0x410c24
  410bab:	jo     0x410c21
  410bad:	push   eax
  410bae:	jb     0x410c1f
  410bb0:	je     0x410c17
  410bb2:	arpl   WORD PTR [esp+eax*2+0x61],si
  410bb6:	je     0x410c19
  410bb8:	add    BYTE PTR [eax],al
  410bba:	add    BYTE PTR [eax],al
  410bbc:	inc    edi
  410bbd:	gs je  0x410c13
  410bc0:	jns    0x410c35
  410bc2:	je     0x410c29
  410bc4:	ins    DWORD PTR es:[edi],dx
  410bc5:	dec    ebp
  410bc6:	gs je  0x410c3b
  410bc9:	imul   esp,DWORD PTR [ebx+0x73],0x0
  410bd0:	inc    ebx
  410bd1:	outs   dx,DWORD PTR ds:[esi]
  410bd2:	outs   dx,BYTE PTR ds:[esi]
  410bd3:	jbe    0x410c3a
  410bd5:	jb     0x410c4b
  410bd7:	push   ebx
  410bd8:	imul   esp,DWORD PTR [esp+edx*2+0x6f],0x69727453
  410be0:	outs   dx,BYTE PTR ds:[esi]
  410be1:	addr16 push ebx
  410be3:	imul   esp,DWORD PTR [edi+edx*2+0x0],0x0
	...
