
03096d2859243b354a2a0378dfabb65768dff113dba7a97b26ccf4a2220ee8f5.exe:     file format pei-i386


Disassembly of section .text:

00401000 <.text>:
  401000:	push   ebp
  401001:	mov    ebp,esp
  401003:	mov    eax,DWORD PTR [ebp+0xc]
  401006:	push   eax
  401007:	mov    ecx,DWORD PTR [ebp+0x8]
  40100a:	push   ecx
  40100b:	call   0x401be0
  401010:	add    esp,0x8
  401013:	pop    ebp
  401014:	ret    
  401015:	int3   
  401016:	int3   
  401017:	int3   
  401018:	int3   
  401019:	int3   
  40101a:	int3   
  40101b:	int3   
  40101c:	int3   
  40101d:	int3   
  40101e:	int3   
  40101f:	int3   
  401020:	push   ebp
  401021:	mov    ebp,esp
  401023:	call   0x401cd0
  401028:	mov    eax,ds:0x41c1b4
  40102d:	push   eax
  40102e:	call   0x401cf0
  401033:	add    esp,0x4
  401036:	mov    ds:0x41c1a4,eax
  40103b:	pop    ebp
  40103c:	ret    
  40103d:	int3   
  40103e:	int3   
  40103f:	int3   
  401040:	push   ebp
  401041:	mov    ebp,esp
  401043:	sub    esp,0x28
  401046:	mov    DWORD PTR [ebp-0x28],0x4041a4
  40104d:	mov    DWORD PTR [ebp-0x24],0x452fde4
  401054:	mov    DWORD PTR [ebp-0x24],0x563148
  40105b:	mov    DWORD PTR [ebp-0x24],0x563148
  401062:	mov    DWORD PTR [ebp-0x24],0x563148
  401069:	mov    DWORD PTR [ebp-0x24],0x563148
  401070:	mov    DWORD PTR [ebp-0x24],0x563148
  401077:	mov    DWORD PTR [ebp-0x24],0x563148
  40107e:	mov    DWORD PTR [ebp-0x24],0x563148
  401085:	mov    DWORD PTR [ebp-0x24],0x563148
  40108c:	mov    DWORD PTR [ebp-0x24],0x563148
  401093:	mov    DWORD PTR [ebp-0x24],0x563148
  40109a:	mov    DWORD PTR [ebp-0x24],0x563148
  4010a1:	mov    DWORD PTR [ebp-0x24],0x563148
  4010a8:	mov    DWORD PTR [ebp-0x24],0x563148
  4010af:	mov    DWORD PTR [ebp-0x24],0x563148
  4010b6:	mov    DWORD PTR [ebp-0x24],0x563148
  4010bd:	mov    DWORD PTR [ebp-0x24],0x563148
  4010c4:	mov    DWORD PTR [ebp-0x24],0x563148
  4010cb:	mov    DWORD PTR [ebp-0x24],0x563148
  4010d2:	mov    DWORD PTR [ebp-0x24],0x563148
  4010d9:	mov    DWORD PTR [ebp-0x24],0x563148
  4010e0:	mov    DWORD PTR [ebp-0x24],0x563148
  4010e7:	mov    DWORD PTR [ebp-0x24],0x563148
  4010ee:	mov    DWORD PTR [ebp-0x24],0x563148
  4010f5:	mov    DWORD PTR [ebp-0x24],0x563148
  4010fc:	mov    DWORD PTR [ebp-0x24],0x563148
  401103:	mov    DWORD PTR [ebp-0x24],0x563148
  40110a:	mov    DWORD PTR [ebp-0x24],0x563148
  401111:	mov    DWORD PTR [ebp-0x24],0x563148
  401118:	mov    DWORD PTR [ebp-0x24],0x563148
  40111f:	mov    DWORD PTR [ebp-0x24],0x563148
  401126:	mov    DWORD PTR [ebp-0x24],0x563148
  40112d:	mov    DWORD PTR [ebp-0x24],0x563148
  401134:	mov    DWORD PTR [ebp-0x24],0x563148
  40113b:	mov    DWORD PTR [ebp-0x24],0x563148
  401142:	mov    DWORD PTR [ebp-0x24],0x563148
  401149:	mov    DWORD PTR [ebp-0x24],0x563148
  401150:	mov    DWORD PTR [ebp-0x24],0x563148
  401157:	mov    DWORD PTR [ebp-0x24],0x563148
  40115e:	mov    DWORD PTR [ebp-0x24],0x563148
  401165:	mov    DWORD PTR [ebp-0x24],0x563148
  40116c:	mov    DWORD PTR [ebp-0x18],0x4
  401173:	mov    eax,DWORD PTR [ebp-0x18]
  401176:	mov    ecx,DWORD PTR [ebp-0x28]
  401179:	lea    edx,[ecx+eax*1+0x18a7]
  401180:	mov    DWORD PTR [ebp-0x20],edx
  401183:	mov    eax,DWORD PTR [ebp-0x20]
  401186:	mov    DWORD PTR [ebp-0x1c],eax
  401189:	mov    ecx,DWORD PTR [ebp-0x1c]
  40118c:	sub    ecx,0x18a7
  401192:	mov    DWORD PTR ds:0x41c1a8,ecx
  401198:	mov    esp,ebp
  40119a:	pop    ebp
  40119b:	ret    
  40119c:	int3   
  40119d:	int3   
  40119e:	int3   
  40119f:	int3   
  4011a0:	push   ebp
  4011a1:	mov    ebp,esp
  4011a3:	mov    eax,DWORD PTR [ebp+0x10]
  4011a6:	push   eax
  4011a7:	mov    ecx,DWORD PTR [ebp+0xc]
  4011aa:	push   ecx
  4011ab:	mov    edx,DWORD PTR [ebp+0x8]
  4011ae:	push   edx
  4011af:	call   0x4011c0
  4011b4:	add    esp,0xc
  4011b7:	pop    ebp
  4011b8:	ret    
  4011b9:	int3   
  4011ba:	int3   
  4011bb:	int3   
  4011bc:	int3   
  4011bd:	int3   
  4011be:	int3   
  4011bf:	int3   
  4011c0:	push   ebp
  4011c1:	mov    ebp,esp
  4011c3:	mov    eax,DWORD PTR [ebp+0x10]
  4011c6:	push   eax
  4011c7:	mov    ecx,DWORD PTR [ebp+0xc]
  4011ca:	push   ecx
  4011cb:	mov    edx,DWORD PTR [ebp+0x8]
  4011ce:	push   edx
  4011cf:	call   0x401d50
  4011d4:	add    esp,0xc
  4011d7:	pop    ebp
  4011d8:	ret    
  4011d9:	int3   
  4011da:	int3   
  4011db:	int3   
  4011dc:	int3   
  4011dd:	int3   
  4011de:	int3   
  4011df:	int3   
  4011e0:	push   ebp
  4011e1:	mov    ebp,esp
  4011e3:	sub    esp,0x14
  4011e6:	push   esi
  4011e7:	mov    DWORD PTR [ebp-0xc],0xc80c
  4011ee:	mov    DWORD PTR [ebp-0xc],0x67b0
  4011f5:	mov    DWORD PTR [ebp-0xc],0x67b0
  4011fc:	mov    DWORD PTR [ebp-0xc],0x67b0
  401203:	mov    DWORD PTR [ebp-0xc],0x67b0
  40120a:	mov    DWORD PTR [ebp-0xc],0x67b0
  401211:	mov    DWORD PTR [ebp-0xc],0x67b0
  401218:	mov    DWORD PTR [ebp-0xc],0x67b0
  40121f:	mov    DWORD PTR [ebp-0xc],0x67b0
  401226:	mov    DWORD PTR [ebp-0xc],0x67b0
  40122d:	mov    DWORD PTR [ebp-0xc],0x67b0
  401234:	mov    DWORD PTR [ebp-0xc],0x67b0
  40123b:	mov    DWORD PTR [ebp-0xc],0x67b0
  401242:	mov    DWORD PTR [ebp-0xc],0x67b0
  401249:	mov    DWORD PTR [ebp-0xc],0x67b0
  401250:	mov    DWORD PTR [ebp-0xc],0x67b0
  401257:	mov    DWORD PTR [ebp-0xc],0x67b0
  40125e:	mov    DWORD PTR [ebp-0xc],0x67b0
  401265:	mov    DWORD PTR [ebp-0xc],0x67b0
  40126c:	mov    DWORD PTR [ebp-0xc],0x67b0
  401273:	mov    DWORD PTR [ebp-0xc],0x67b0
  40127a:	mov    DWORD PTR [ebp-0xc],0x67b0
  401281:	mov    DWORD PTR [ebp-0xc],0x67b0
  401288:	mov    DWORD PTR [ebp-0xc],0x67b0
  40128f:	mov    DWORD PTR [ebp-0xc],0x67b0
  401296:	mov    DWORD PTR [ebp-0xc],0x67b0
  40129d:	mov    DWORD PTR [ebp-0xc],0x67b0
  4012a4:	mov    DWORD PTR [ebp-0xc],0x67b0
  4012ab:	mov    DWORD PTR [ebp-0xc],0x67b0
  4012b2:	mov    DWORD PTR [ebp-0xc],0x67b0
  4012b9:	mov    DWORD PTR [ebp-0xc],0x67b0
  4012c0:	mov    eax,DWORD PTR [ebp+0x8]
  4012c3:	push   eax
  4012c4:	call   0x401750
  4012c9:	add    esp,0x4
  4012cc:	mov    DWORD PTR [ebp-0x4],0x0
  4012d3:	jmp    0x4012de
  4012d5:	mov    ecx,DWORD PTR [ebp-0x4]
  4012d8:	add    ecx,0x1
  4012db:	mov    DWORD PTR [ebp-0x4],ecx
  4012de:	mov    edx,DWORD PTR [ebp-0x4]
  4012e1:	cmp    edx,DWORD PTR ds:0x41c1b0
  4012e7:	jae    0x4013cd
  4012ed:	mov    DWORD PTR [ebp-0xc],0x67b0
  4012f4:	mov    DWORD PTR [ebp-0xc],0x67b0
  4012fb:	mov    DWORD PTR [ebp-0xc],0x67b0
  401302:	mov    DWORD PTR [ebp-0xc],0x67b0
  401309:	mov    DWORD PTR [ebp-0xc],0x67b0
  401310:	mov    DWORD PTR [ebp-0xc],0x67b0
  401317:	mov    DWORD PTR [ebp-0xc],0x67b0
  40131e:	mov    DWORD PTR [ebp-0xc],0x67b0
  401325:	mov    DWORD PTR [ebp-0xc],0x67b0
  40132c:	mov    eax,DWORD PTR [ebp+0x8]
  40132f:	add    eax,0x8
  401332:	mov    ds:0x41c19c,eax
  401337:	mov    ecx,DWORD PTR [ebp-0x4]
  40133a:	push   ecx
  40133b:	mov    edx,DWORD PTR ds:0x41c19c
  401341:	push   edx
  401342:	call   0x401b70
  401347:	add    esp,0x8
  40134a:	sar    eax,0xc
  40134d:	cmp    eax,0x3
  401350:	jne    0x4013c8
  401352:	mov    DWORD PTR [ebp-0xc],0x67b0
  401359:	mov    DWORD PTR [ebp-0xc],0x67b0
  401360:	mov    DWORD PTR [ebp-0xc],0x67b0
  401367:	mov    DWORD PTR [ebp-0xc],0x67b0
  40136e:	mov    DWORD PTR [ebp-0xc],0x67b0
  401375:	mov    DWORD PTR [ebp-0xc],0x67b0
  40137c:	mov    DWORD PTR [ebp-0xc],0x67b0
  401383:	mov    DWORD PTR [ebp-0xc],0x67b0
  40138a:	mov    DWORD PTR [ebp-0xc],0x67b0
  401391:	mov    DWORD PTR [ebp-0xc],0xfff
  401398:	mov    eax,DWORD PTR [ebp+0x8]
  40139b:	mov    esi,DWORD PTR [ebp+0xc]
  40139e:	add    esi,DWORD PTR [eax]
  4013a0:	mov    ecx,DWORD PTR [ebp-0x4]
  4013a3:	push   ecx
  4013a4:	mov    edx,DWORD PTR ds:0x41c19c
  4013aa:	push   edx
  4013ab:	call   0x401b70
  4013b0:	add    esp,0x8
  4013b3:	and    eax,DWORD PTR [ebp-0xc]
  4013b6:	add    esi,eax
  4013b8:	mov    DWORD PTR [ebp-0x14],esi
  4013bb:	mov    eax,DWORD PTR [ebp-0x14]
  4013be:	mov    ecx,DWORD PTR [eax]
  4013c0:	add    ecx,DWORD PTR [ebp+0x10]
  4013c3:	mov    edx,DWORD PTR [ebp-0x14]
  4013c6:	mov    DWORD PTR [edx],ecx
  4013c8:	jmp    0x4012d5
  4013cd:	pop    esi
  4013ce:	mov    esp,ebp
  4013d0:	pop    ebp
  4013d1:	ret    
  4013d2:	int3   
  4013d3:	int3   
  4013d4:	int3   
  4013d5:	int3   
  4013d6:	int3   
  4013d7:	int3   
  4013d8:	int3   
  4013d9:	int3   
  4013da:	int3   
  4013db:	int3   
  4013dc:	int3   
  4013dd:	int3   
  4013de:	int3   
  4013df:	int3   
  4013e0:	push   ebp
  4013e1:	mov    ebp,esp
  4013e3:	sub    esp,0x8
  4013e6:	mov    DWORD PTR [ebp-0x4],0x4
  4013ed:	mov    DWORD PTR [ebp-0x8],0x1
  4013f4:	mov    DWORD PTR [ebp-0x8],0xcc1
  4013fb:	mov    DWORD PTR [ebp-0x8],0xcc1
  401402:	mov    DWORD PTR [ebp-0x8],0xcc1
  401409:	mov    DWORD PTR [ebp-0x8],0xcc1
  401410:	mov    DWORD PTR [ebp-0x8],0xcc1
  401417:	mov    DWORD PTR [ebp-0x8],0xcc1
  40141e:	mov    DWORD PTR [ebp-0x8],0xcc1
  401425:	mov    DWORD PTR [ebp-0x8],0xcc1
  40142c:	mov    DWORD PTR [ebp-0x8],0xcc1
  401433:	mov    DWORD PTR [ebp-0x8],0xcc1
  40143a:	mov    DWORD PTR [ebp-0x8],0xcc1
  401441:	mov    DWORD PTR [ebp-0x8],0xcc1
  401448:	mov    DWORD PTR [ebp-0x8],0xcc1
  40144f:	mov    DWORD PTR [ebp-0x8],0xcc1
  401456:	mov    DWORD PTR [ebp-0x8],0xcc1
  40145d:	mov    DWORD PTR [ebp-0x8],0xcc1
  401464:	mov    DWORD PTR [ebp-0x8],0xcc1
  40146b:	mov    DWORD PTR [ebp-0x8],0xcc1
  401472:	mov    DWORD PTR [ebp-0x8],0xcc1
  401479:	mov    DWORD PTR [ebp-0x8],0xcc1
  401480:	mov    DWORD PTR [ebp-0x8],0xcc1
  401487:	mov    DWORD PTR [ebp-0x8],0xcc1
  40148e:	mov    DWORD PTR [ebp-0x8],0xcc1
  401495:	mov    DWORD PTR [ebp-0x8],0xcc1
  40149c:	mov    DWORD PTR [ebp-0x8],0xcc1
  4014a3:	mov    DWORD PTR [ebp-0x8],0xcc1
  4014aa:	mov    DWORD PTR [ebp-0x8],0xcc1
  4014b1:	mov    DWORD PTR [ebp-0x8],0xcc1
  4014b8:	mov    DWORD PTR [ebp-0x8],0xcc1
  4014bf:	mov    DWORD PTR [ebp-0x8],0xcc1
  4014c6:	mov    DWORD PTR [ebp-0x8],0xcc1
  4014cd:	mov    DWORD PTR [ebp-0x8],0xcc1
  4014d4:	mov    DWORD PTR [ebp-0x8],0xcc1
  4014db:	mov    eax,DWORD PTR [ebp-0x4]
  4014de:	add    eax,0x401f24
  4014e3:	mov    ds:0x41c1a8,eax
  4014e8:	mov    esp,ebp
  4014ea:	pop    ebp
  4014eb:	ret    
  4014ec:	int3   
  4014ed:	int3   
  4014ee:	int3   
  4014ef:	int3   
  4014f0:	push   ebp
  4014f1:	mov    ebp,esp
  4014f3:	mov    eax,DWORD PTR [ebp+0x8]
  4014f6:	mov    ecx,DWORD PTR [ebp+0x8]
  4014f9:	add    ecx,DWORD PTR [eax+0x4]
  4014fc:	mov    eax,ecx
  4014fe:	pop    ebp
  4014ff:	ret    
  401500:	push   ebp
  401501:	mov    ebp,esp
  401503:	push   ecx
  401504:	mov    DWORD PTR [ebp-0x4],0x81efe
  40150b:	mov    DWORD PTR [ebp-0x4],0x81efe
  401512:	mov    DWORD PTR [ebp-0x4],0x81efe
  401519:	mov    DWORD PTR [ebp-0x4],0x81efe
  401520:	mov    DWORD PTR [ebp-0x4],0x81efe
  401527:	mov    eax,DWORD PTR [ebp+0x8]
  40152a:	mov    eax,DWORD PTR [eax-0x4]
  40152d:	mov    esp,ebp
  40152f:	pop    ebp
  401530:	ret    
  401531:	int3   
  401532:	int3   
  401533:	int3   
  401534:	int3   
  401535:	int3   
  401536:	int3   
  401537:	int3   
  401538:	int3   
  401539:	int3   
  40153a:	int3   
  40153b:	int3   
  40153c:	int3   
  40153d:	int3   
  40153e:	int3   
  40153f:	int3   
  401540:	push   ebp
  401541:	mov    ebp,esp
  401543:	mov    eax,DWORD PTR [ebp+0x8]
  401546:	mov    ax,WORD PTR [eax]
  401549:	pop    ebp
  40154a:	ret    
  40154b:	int3   
  40154c:	int3   
  40154d:	int3   
  40154e:	int3   
  40154f:	int3   
  401550:	push   ebp
  401551:	mov    ebp,esp
  401553:	sub    esp,0xc
  401556:	mov    eax,DWORD PTR [ebp+0x8]
  401559:	mov    DWORD PTR [ebp-0x8],eax
  40155c:	mov    ecx,DWORD PTR [ebp+0xc]
  40155f:	mov    DWORD PTR [ebp-0xc],ecx
  401562:	mov    DWORD PTR [ebp-0x4],0x9583e
  401569:	mov    DWORD PTR [ebp-0x4],0x9583e
  401570:	mov    DWORD PTR [ebp-0x4],0x9583e
  401577:	mov    DWORD PTR [ebp-0x4],0x9583e
  40157e:	mov    DWORD PTR [ebp-0x4],0x9583e
  401585:	mov    edx,DWORD PTR [ebp-0x8]
  401588:	cmp    edx,DWORD PTR [ebp-0xc]
  40158b:	jae    0x40159b
  40158d:	mov    DWORD PTR [ebp-0x4],0x9583e
  401594:	mov    eax,DWORD PTR [ebp-0x8]
  401597:	jmp    0x4015a5
  401599:	jmp    0x4015a5
  40159b:	mov    DWORD PTR [ebp-0x4],0x9583e
  4015a2:	mov    eax,DWORD PTR [ebp-0xc]
  4015a5:	mov    esp,ebp
  4015a7:	pop    ebp
  4015a8:	ret    
  4015a9:	int3   
  4015aa:	int3   
  4015ab:	int3   
  4015ac:	int3   
  4015ad:	int3   
  4015ae:	int3   
  4015af:	int3   
  4015b0:	push   ebp
  4015b1:	mov    ebp,esp
  4015b3:	push   ecx
  4015b4:	mov    DWORD PTR [ebp-0x4],0x2fbe
  4015bb:	mov    DWORD PTR [ebp-0x4],0x4fbb5
  4015c2:	mov    DWORD PTR [ebp-0x4],0x4fbb5
  4015c9:	mov    DWORD PTR [ebp-0x4],0x4fbb5
  4015d0:	mov    DWORD PTR [ebp-0x4],0x4fbb5
  4015d7:	mov    DWORD PTR [ebp-0x4],0x4fbb5
  4015de:	mov    DWORD PTR [ebp-0x4],0x4fbb5
  4015e5:	mov    DWORD PTR [ebp-0x4],0x4fbb5
  4015ec:	mov    DWORD PTR [ebp-0x4],0x4fbb5
  4015f3:	mov    DWORD PTR [ebp-0x4],0x4fbb5
  4015fa:	mov    DWORD PTR [ebp-0x4],0x4fbb5
  401601:	mov    DWORD PTR [ebp-0x4],0x4fbb5
  401608:	mov    DWORD PTR [ebp-0x4],0x4fbb5
  40160f:	mov    DWORD PTR [ebp-0x4],0x4fbb5
  401616:	mov    DWORD PTR [ebp-0x4],0x4fbb5
  40161d:	mov    DWORD PTR [ebp-0x4],0x4fbb5
  401624:	mov    DWORD PTR [ebp-0x4],0x4fbb5
  40162b:	mov    DWORD PTR [ebp-0x4],0x4fbb5
  401632:	mov    DWORD PTR [ebp-0x4],0x4fbb5
  401639:	mov    DWORD PTR [ebp-0x4],0x4fbb5
  401640:	mov    DWORD PTR [ebp-0x4],0x4fbb5
  401647:	mov    DWORD PTR [ebp-0x4],0x4fbb5
  40164e:	mov    DWORD PTR [ebp-0x4],0x4fbb5
  401655:	mov    DWORD PTR [ebp-0x4],0x4fbb5
  40165c:	mov    DWORD PTR [ebp-0x4],0x4fbb5
  401663:	mov    DWORD PTR [ebp-0x4],0x4fbb5
  40166a:	mov    DWORD PTR [ebp-0x4],0x4fbb5
  401671:	mov    DWORD PTR [ebp-0x4],0x4fbb5
  401678:	mov    DWORD PTR [ebp-0x4],0x4fbb5
  40167f:	mov    DWORD PTR [ebp-0x4],0x4fbb5
  401686:	mov    DWORD PTR [ebp-0x4],0x4fbb5
  40168d:	mov    DWORD PTR [ebp-0x4],0x4fbb5
  401694:	mov    DWORD PTR [ebp-0x4],0x4fbb5
  40169b:	mov    DWORD PTR [ebp-0x4],0x4fbb5
  4016a2:	mov    DWORD PTR [ebp-0x4],0x4fbb5
  4016a9:	mov    DWORD PTR [ebp-0x4],0x4fbb5
  4016b0:	mov    DWORD PTR [ebp-0x4],0x4fbb5
  4016b7:	mov    DWORD PTR [ebp-0x4],0x4fbb5
  4016be:	mov    DWORD PTR [ebp-0x4],0x4fbb5
  4016c5:	mov    DWORD PTR [ebp-0x4],0x4fbb5
  4016cc:	mov    DWORD PTR [ebp-0x4],0x4fbb5
  4016d3:	cmp    DWORD PTR [ebp+0x8],0x1
  4016d7:	jne    0x4016e1
  4016d9:	mov    eax,ds:0x41c1ac
  4016de:	mov    DWORD PTR [ebp+0x8],eax
  4016e1:	mov    ecx,DWORD PTR [ebp+0x10]
  4016e4:	push   ecx
  4016e5:	mov    edx,DWORD PTR [ebp+0xc]
  4016e8:	push   edx
  4016e9:	mov    eax,DWORD PTR [ebp+0x8]
  4016ec:	push   eax
  4016ed:	call   0x4011e0
  4016f2:	add    esp,0xc
  4016f5:	mov    ecx,DWORD PTR [ebp+0x8]
  4016f8:	push   ecx
  4016f9:	call   0x4014f0
  4016fe:	add    esp,0x4
  401701:	mov    DWORD PTR [ebp+0x8],eax
  401704:	mov    eax,DWORD PTR [ebp+0x8]
  401707:	mov    esp,ebp
  401709:	pop    ebp
  40170a:	ret    
  40170b:	int3   
  40170c:	int3   
  40170d:	int3   
  40170e:	int3   
  40170f:	int3   
  401710:	push   ebp
  401711:	mov    ebp,esp
  401713:	sub    esp,0x8
  401716:	mov    eax,DWORD PTR [ebp+0x8]
  401719:	cmp    DWORD PTR [eax+0x4],0x0
  40171d:	je     0x40173f
  40171f:	mov    ecx,DWORD PTR [ebp+0x8]
  401722:	mov    DWORD PTR ds:0x41c1ac,ecx
  401728:	mov    edx,DWORD PTR [ebp+0x10]
  40172b:	push   edx
  40172c:	mov    eax,DWORD PTR [ebp+0xc]
  40172f:	push   eax
  401730:	push   0x1
  401732:	call   0x4015b0
  401737:	add    esp,0xc
  40173a:	mov    DWORD PTR [ebp+0x8],eax
  40173d:	jmp    0x401716
  40173f:	mov    esp,ebp
  401741:	pop    ebp
  401742:	ret    
  401743:	int3   
  401744:	int3   
  401745:	int3   
  401746:	int3   
  401747:	int3   
  401748:	int3   
  401749:	int3   
  40174a:	int3   
  40174b:	int3   
  40174c:	int3   
  40174d:	int3   
  40174e:	int3   
  40174f:	int3   
  401750:	push   ebp
  401751:	mov    ebp,esp
  401753:	mov    DWORD PTR ds:0x41c1b0,0x0
  40175d:	mov    eax,DWORD PTR [ebp+0x8]
  401760:	mov    ecx,DWORD PTR ds:0x41c1b0
  401766:	add    ecx,DWORD PTR [eax+0x4]
  401769:	mov    DWORD PTR ds:0x41c1b0,ecx
  40176f:	mov    edx,DWORD PTR ds:0x41c1b0
  401775:	sub    edx,0x8
  401778:	shr    edx,1
  40177a:	mov    DWORD PTR ds:0x41c1b0,edx
  401780:	pop    ebp
  401781:	ret    
  401782:	int3   
  401783:	int3   
  401784:	int3   
  401785:	int3   
  401786:	int3   
  401787:	int3   
  401788:	int3   
  401789:	int3   
  40178a:	int3   
  40178b:	int3   
  40178c:	int3   
  40178d:	int3   
  40178e:	int3   
  40178f:	int3   
  401790:	push   ebp
  401791:	mov    ebp,esp
  401793:	mov    eax,eax
  401795:	mov    eax,eax
  401797:	mov    eax,eax
  401799:	mov    esp,DWORD PTR ds:0x41c1a0
  40179f:	mov    eax,eax
  4017a1:	mov    eax,eax
  4017a3:	mov    eax,eax
  4017a5:	add    esp,0x4
  4017a8:	mov    eax,eax
  4017aa:	mov    eax,eax
  4017ac:	mov    eax,eax
  4017ae:	mov    eax,ds:0x41c188
  4017b3:	mov    eax,eax
  4017b5:	mov    eax,eax
  4017b7:	push   eax
  4017b8:	ret    
  4017b9:	mov    eax,eax
  4017bb:	pop    ebp
  4017bc:	ret    
  4017bd:	int3   
  4017be:	int3   
  4017bf:	int3   
  4017c0:	push   ebp
  4017c1:	mov    ebp,esp
  4017c3:	sub    esp,0xd4
  4017c9:	push   ebx
  4017ca:	push   esi
  4017cb:	push   edi
  4017cc:	mov    DWORD PTR [ebp-0x64],0x401790
  4017d3:	mov    DWORD PTR [ebp-0x4],0x0
  4017da:	mov    DWORD PTR [ebp-0x68],0x40413c
  4017e1:	mov    DWORD PTR [ebp-0x7c],0x404150
  4017e8:	mov    DWORD PTR [ebp-0x78],0x40416c
  4017ef:	mov    DWORD PTR [ebp-0x80],0x404194
  4017f6:	mov    eax,DWORD PTR [ebp-0x7c]
  4017f9:	mov    BYTE PTR [eax+0x1],0x4f
  4017fd:	mov    ecx,DWORD PTR [ebp-0x7c]
  401800:	mov    BYTE PTR [ecx+0x2],0x46
  401804:	mov    edx,DWORD PTR [ebp-0x7c]
  401807:	mov    BYTE PTR [edx+0x3],0x54
  40180b:	mov    DWORD PTR [ebp-0xb0],0x0
  401815:	push   0x2c
  401817:	push   0x0
  401819:	lea    eax,[ebp-0xac]
  40181f:	push   eax
  401820:	call   0x40212e
  401825:	add    esp,0xc
  401828:	mov    ecx,DWORD PTR ds:0x4040a4
  40182e:	mov    DWORD PTR [ebp-0xd0],ecx
  401834:	push   0x7f00
  401839:	push   0x0
  40183b:	call   DWORD PTR ds:0x4040bc
  401841:	lea    edx,[ebp-0xb0]
  401847:	push   edx
  401848:	call   DWORD PTR ds:0x4040b4
  40184e:	push   0x7f00
  401853:	push   0x0
  401855:	call   DWORD PTR ds:0x4040b8
  40185b:	push   0x7f00
  401860:	push   0x0
  401862:	call   DWORD PTR ds:0x4040b8
  401868:	mov    DWORD PTR [ebp-0x94],eax
  40186e:	mov    eax,DWORD PTR [ebp-0xd0]
  401874:	movzx  ecx,BYTE PTR [eax]
  401877:	cmp    ecx,0x6a
  40187a:	je     0x4018ac
  40187c:	mov    edx,DWORD PTR [ebp-0xd0]
  401882:	movzx  eax,BYTE PTR [edx]
  401885:	cmp    eax,0x55
  401888:	je     0x4018ac
  40188a:	mov    ecx,DWORD PTR [ebp-0xd0]
  401890:	movzx  edx,BYTE PTR [ecx]
  401893:	cmp    edx,0x8b
  401899:	je     0x4018ac
  40189b:	mov    eax,DWORD PTR [ebp-0xd0]
  4018a1:	movzx  ecx,BYTE PTR [eax]
  4018a4:	cmp    ecx,0xff
  4018aa:	jne    0x4018b7
  4018ac:	mov    edx,0x61
  4018b1:	mov    eax,DWORD PTR [ebp-0x68]
  4018b4:	mov    WORD PTR [eax],dx
  4018b7:	mov    ecx,0x64
  4018bc:	mov    edx,DWORD PTR [ebp-0x68]
  4018bf:	mov    WORD PTR [edx+0x2],cx
  4018c3:	mov    eax,DWORD PTR [ebp-0x80]
  4018c6:	mov    BYTE PTR [eax],0x52
  4018c9:	mov    ecx,DWORD PTR [ebp-0x80]
  4018cc:	mov    BYTE PTR [ecx+0x1],0x65
  4018d0:	mov    edx,DWORD PTR ds:0x404000
  4018d6:	mov    DWORD PTR [ebp-0x74],edx
  4018d9:	lea    eax,[ebp-0x70]
  4018dc:	push   eax
  4018dd:	mov    ecx,DWORD PTR [ebp-0x7c]
  4018e0:	push   ecx
  4018e1:	push   0x80000002
  4018e6:	call   DWORD PTR [ebp-0x74]
  4018e9:	test   eax,eax
  4018eb:	je     0x4018f2
  4018ed:	call   0x401790
  4018f2:	lea    edx,[ebp-0x70]
  4018f5:	push   edx
  4018f6:	mov    eax,DWORD PTR [ebp-0x78]
  4018f9:	push   eax
  4018fa:	mov    ecx,DWORD PTR [ebp-0x70]
  4018fd:	push   ecx
  4018fe:	call   DWORD PTR [ebp-0x74]
  401901:	test   eax,eax
  401903:	je     0x40190a
  401905:	call   0x401790
  40190a:	lea    edx,[ebp-0x70]
  40190d:	push   edx
  40190e:	push   0x4041a0
  401913:	push   0x80000002
  401918:	call   DWORD PTR [ebp-0x74]
  40191b:	test   eax,eax
  40191d:	jne    0x401924
  40191f:	call   0x401790
  401924:	mov    DWORD PTR [ebp-0x60],0x64
  40192b:	mov    DWORD PTR [ebp-0x14],0x1
  401932:	mov    DWORD PTR [ebp-0x4],0x0
  401939:	mov    DWORD PTR [ebp-0x48],0x0
  401940:	mov    DWORD PTR [ebp-0x5c],0x1
  401947:	mov    DWORD PTR [ebp-0xc],0x0
  40194e:	call   0x401040
  401953:	mov    eax,ds:0x41c1a8
  401958:	push   eax
  401959:	call   0x401500
  40195e:	add    esp,0x4
  401961:	mov    ds:0x41c1b4,eax
  401966:	mov    ecx,DWORD PTR ds:0x41c1b4
  40196c:	push   ecx
  40196d:	call   0x401cf0
  401972:	add    esp,0x4
  401975:	mov    ds:0x41c18c,eax
  40197a:	mov    edx,DWORD PTR ds:0x41c1b4
  401980:	mov    DWORD PTR [ebp-0x54],edx
  401983:	mov    eax,DWORD PTR [ebp-0x4]
  401986:	cmp    eax,DWORD PTR ds:0x41c1b4
  40198c:	jae    0x4019e1
  40198e:	mov    ecx,DWORD PTR [ebp-0x54]
  401991:	push   ecx
  401992:	mov    edx,DWORD PTR [ebp-0x60]
  401995:	push   edx
  401996:	call   0x401550
  40199b:	add    esp,0x8
  40199e:	mov    DWORD PTR [ebp-0x58],eax
  4019a1:	mov    eax,DWORD PTR [ebp-0x58]
  4019a4:	push   eax
  4019a5:	mov    ecx,DWORD PTR ds:0x41c1a8
  4019ab:	add    ecx,DWORD PTR [ebp-0x48]
  4019ae:	push   ecx
  4019af:	mov    edx,DWORD PTR ds:0x41c18c
  4019b5:	add    edx,DWORD PTR [ebp-0x4]
  4019b8:	push   edx
  4019b9:	call   0x4011a0
  4019be:	add    esp,0xc
  4019c1:	mov    eax,DWORD PTR [ebp-0x14]
  4019c4:	add    eax,DWORD PTR [ebp-0x60]
  4019c7:	add    eax,DWORD PTR [ebp-0x48]
  4019ca:	mov    DWORD PTR [ebp-0x48],eax
  4019cd:	mov    ecx,DWORD PTR [ebp-0x4]
  4019d0:	add    ecx,DWORD PTR [ebp-0x60]
  4019d3:	mov    DWORD PTR [ebp-0x4],ecx
  4019d6:	mov    edx,DWORD PTR [ebp-0x54]
  4019d9:	sub    edx,DWORD PTR [ebp-0x58]
  4019dc:	mov    DWORD PTR [ebp-0x54],edx
  4019df:	jmp    0x401983
  4019e1:	mov    eax,ds:0x41c1b4
  4019e6:	push   eax
  4019e7:	mov    ecx,DWORD PTR ds:0x41c18c
  4019ed:	push   ecx
  4019ee:	call   0x401000
  4019f3:	add    esp,0x8
  4019f6:	pusha  
  4019f7:	mov    DWORD PTR [ebp-0x4],0x0
  4019fe:	mov    DWORD PTR [ebp-0x48],0x0
  401a05:	mov    edx,DWORD PTR ds:0x41c1b4
  401a0b:	push   edx
  401a0c:	push   0x0
  401a0e:	mov    eax,ds:0x41c1a4
  401a13:	push   eax
  401a14:	call   0x401020
  401a19:	add    esp,0xc
  401a1c:	mov    ecx,DWORD PTR ds:0x41c1b4
  401a22:	mov    DWORD PTR [ebp-0x54],ecx
  401a25:	mov    edx,DWORD PTR [ebp-0x4]
  401a28:	cmp    edx,DWORD PTR ds:0x41c1b4
  401a2e:	jae    0x401a82
  401a30:	mov    eax,DWORD PTR [ebp-0x54]
  401a33:	push   eax
  401a34:	mov    ecx,DWORD PTR [ebp-0x60]
  401a37:	push   ecx
  401a38:	call   0x401550
  401a3d:	add    esp,0x8
  401a40:	mov    DWORD PTR [ebp-0x58],eax
  401a43:	mov    edx,DWORD PTR [ebp-0x58]
  401a46:	push   edx
  401a47:	mov    eax,ds:0x41c1a8
  401a4c:	add    eax,DWORD PTR [ebp-0x48]
  401a4f:	push   eax
  401a50:	mov    ecx,DWORD PTR ds:0x41c1a4
  401a56:	add    ecx,DWORD PTR [ebp-0x4]
  401a59:	push   ecx
  401a5a:	call   0x4011a0
  401a5f:	add    esp,0xc
  401a62:	mov    edx,DWORD PTR [ebp-0x14]
  401a65:	add    edx,DWORD PTR [ebp-0x60]
  401a68:	add    edx,DWORD PTR [ebp-0x48]
  401a6b:	mov    DWORD PTR [ebp-0x48],edx
  401a6e:	mov    eax,DWORD PTR [ebp-0x4]
  401a71:	add    eax,DWORD PTR [ebp-0x60]
  401a74:	mov    DWORD PTR [ebp-0x4],eax
  401a77:	mov    ecx,DWORD PTR [ebp-0x54]
  401a7a:	sub    ecx,DWORD PTR [ebp-0x58]
  401a7d:	mov    DWORD PTR [ebp-0x54],ecx
  401a80:	jmp    0x401a25
  401a82:	mov    edx,DWORD PTR ds:0x41c1b4
  401a88:	push   edx
  401a89:	mov    eax,ds:0x41c1a4
  401a8e:	push   eax
  401a8f:	call   0x401000
  401a94:	add    esp,0x8
  401a97:	mov    DWORD PTR [ebp-0x64],0x401790
  401a9e:	mov    ecx,DWORD PTR ds:0x41c18c
  401aa4:	mov    edx,DWORD PTR ds:0x41c1a4
  401aaa:	mov    DWORD PTR [ecx],edx
  401aac:	push   0x19000
  401ab1:	call   0x401cf0
  401ab6:	add    esp,0x4
  401ab9:	mov    ds:0x41c184,eax
  401abe:	mov    eax,ds:0x41c184
  401ac3:	add    eax,0x200
  401ac8:	mov    ds:0x41c190,eax
  401acd:	push   0x17c00
  401ad2:	mov    ecx,DWORD PTR ds:0x41c18c
  401ad8:	push   ecx
  401ad9:	mov    edx,DWORD PTR ds:0x41c190
  401adf:	push   edx
  401ae0:	call   0x4011a0
  401ae5:	add    esp,0xc
  401ae8:	mov    eax,ds:0x41c184
  401aed:	sub    eax,0x400000
  401af2:	push   eax
  401af3:	mov    ecx,DWORD PTR ds:0x41c184
  401af9:	push   ecx
  401afa:	mov    edx,DWORD PTR ds:0x41c1a4
  401b00:	push   edx
  401b01:	call   0x401710
  401b06:	add    esp,0xc
  401b09:	mov    eax,ds:0x41c184
  401b0e:	add    eax,0x17ad0
  401b13:	mov    ds:0x41c188,eax
  401b18:	mov    eax,eax
  401b1a:	mov    eax,eax
  401b1c:	mov    eax,eax
  401b1e:	popa   
  401b1f:	mov    eax,eax
  401b21:	mov    eax,eax
  401b23:	mov    eax,eax
  401b25:	mov    eax,eax
  401b27:	push   0x368282
  401b2c:	mov    eax,DWORD PTR [ebp-0x64]
  401b2f:	mov    eax,eax
  401b31:	mov    eax,eax
  401b33:	mov    ecx,esp
  401b35:	push   edx
  401b36:	mov    edx,ecx
  401b38:	sub    edx,0x26
  401b3b:	mov    ecx,edx
  401b3d:	pop    edx
  401b3e:	add    ecx,0x22
  401b41:	mov    eax,eax
  401b43:	mov    eax,eax
  401b45:	mov    eax,eax
  401b47:	mov    DWORD PTR [ecx+0x4],0x0
  401b4e:	mov    eax,eax
  401b50:	mov    eax,eax
  401b52:	mov    eax,eax
  401b54:	add    DWORD PTR [ecx+0x4],eax
  401b57:	mov    eax,eax
  401b59:	ret    
  401b5a:	xor    eax,eax
  401b5c:	pop    edi
  401b5d:	pop    esi
  401b5e:	pop    ebx
  401b5f:	mov    esp,ebp
  401b61:	pop    ebp
  401b62:	ret    
  401b63:	int3   
  401b64:	int3   
  401b65:	int3   
  401b66:	int3   
  401b67:	int3   
  401b68:	int3   
  401b69:	int3   
  401b6a:	int3   
  401b6b:	int3   
  401b6c:	int3   
  401b6d:	int3   
  401b6e:	int3   
  401b6f:	int3   
  401b70:	push   ebp
  401b71:	mov    ebp,esp
  401b73:	sub    esp,0x18
  401b76:	mov    eax,DWORD PTR [ebp+0x8]
  401b79:	mov    DWORD PTR [ebp-0x8],eax
  401b7c:	mov    ecx,DWORD PTR [ebp+0xc]
  401b7f:	mov    DWORD PTR [ebp-0x4],ecx
  401b82:	mov    DWORD PTR [ebp-0x10],0x19c
  401b89:	mov    edx,DWORD PTR [ebp-0x8]
  401b8c:	mov    DWORD PTR ds:0x41c194,edx
  401b92:	mov    eax,DWORD PTR [ebp-0x4]
  401b95:	mov    ds:0x41c198,eax
  401b9a:	mov    ecx,DWORD PTR ds:0x41c194
  401ba0:	mov    DWORD PTR [ebp-0x14],ecx
  401ba3:	mov    edx,DWORD PTR ds:0x41c198
  401ba9:	mov    DWORD PTR [ebp-0xc],edx
  401bac:	mov    eax,DWORD PTR [ebp-0xc]
  401baf:	mov    ecx,DWORD PTR [ebp-0x14]
  401bb2:	lea    edx,[ecx+eax*2]
  401bb5:	mov    DWORD PTR [ebp-0x18],edx
  401bb8:	mov    eax,DWORD PTR [ebp-0x18]
  401bbb:	mov    DWORD PTR [ebp-0x14],eax
  401bbe:	mov    ecx,DWORD PTR [ebp-0x14]
  401bc1:	push   ecx
  401bc2:	call   0x401540
  401bc7:	add    esp,0x4
  401bca:	movzx  edx,ax
  401bcd:	mov    DWORD PTR [ebp-0xc],edx
  401bd0:	mov    eax,DWORD PTR [ebp-0xc]
  401bd3:	mov    esp,ebp
  401bd5:	pop    ebp
  401bd6:	ret    
  401bd7:	int3   
  401bd8:	int3   
  401bd9:	int3   
  401bda:	int3   
  401bdb:	int3   
  401bdc:	int3   
  401bdd:	int3   
  401bde:	int3   
  401bdf:	int3   
  401be0:	push   ebp
  401be1:	mov    ebp,esp
  401be3:	sub    esp,0x18
  401be6:	mov    DWORD PTR [ebp-0x4],0x0
  401bed:	jmp    0x401bf8
  401bef:	mov    eax,DWORD PTR [ebp-0x4]
  401bf2:	add    eax,0x4
  401bf5:	mov    DWORD PTR [ebp-0x4],eax
  401bf8:	mov    ecx,DWORD PTR [ebp-0x4]
  401bfb:	cmp    ecx,DWORD PTR [ebp+0xc]
  401bfe:	jae    0x401c9e
  401c04:	mov    DWORD PTR [ebp-0xc],0x20b
  401c0b:	mov    DWORD PTR [ebp-0xc],0x4fbb5
  401c12:	mov    DWORD PTR [ebp-0xc],0x11b0e
  401c19:	mov    edx,DWORD PTR [ebp-0x4]
  401c1c:	mov    eax,DWORD PTR [ebp-0xc]
  401c1f:	lea    ecx,[eax+edx*1+0x2]
  401c23:	mov    DWORD PTR ds:0x41c180,ecx
  401c29:	mov    DWORD PTR [ebp-0xc],0x4fbb5
  401c30:	mov    edx,DWORD PTR [ebp+0x8]
  401c33:	add    edx,DWORD PTR [ebp-0x4]
  401c36:	mov    DWORD PTR [ebp-0x18],edx
  401c39:	mov    DWORD PTR [ebp-0xc],0x4fbb5
  401c40:	mov    DWORD PTR [ebp-0xc],0x4fbb5
  401c47:	mov    DWORD PTR [ebp-0xc],0x4fbb5
  401c4e:	mov    eax,DWORD PTR [ebp-0x18]
  401c51:	mov    DWORD PTR [ebp-0x10],eax
  401c54:	mov    ecx,DWORD PTR ds:0x41c180
  401c5a:	mov    DWORD PTR [ebp-0xc],ecx
  401c5d:	mov    DWORD PTR [ebp-0xc],0x4fbb5
  401c64:	mov    edx,DWORD PTR [ebp-0x18]
  401c67:	mov    eax,DWORD PTR [edx]
  401c69:	add    eax,DWORD PTR [ebp-0x4]
  401c6c:	mov    ecx,DWORD PTR [ebp-0x18]
  401c6f:	mov    DWORD PTR [ecx],eax
  401c71:	mov    edx,DWORD PTR [ebp-0x10]
  401c74:	mov    eax,DWORD PTR [edx]
  401c76:	mov    DWORD PTR [ebp-0xc],eax
  401c79:	mov    ecx,DWORD PTR [ebp-0xc]
  401c7c:	mov    DWORD PTR [ebp-0x8],ecx
  401c7f:	mov    edx,DWORD PTR [ebp-0x8]
  401c82:	mov    DWORD PTR [ebp-0x14],edx
  401c85:	mov    eax,DWORD PTR [ebp-0x14]
  401c88:	xor    eax,DWORD PTR ds:0x41c180
  401c8e:	mov    DWORD PTR [ebp-0x14],eax
  401c91:	mov    ecx,DWORD PTR [ebp-0x10]
  401c94:	mov    edx,DWORD PTR [ebp-0x14]
  401c97:	mov    DWORD PTR [ecx],edx
  401c99:	jmp    0x401bef
  401c9e:	mov    esp,ebp
  401ca0:	pop    ebp
  401ca1:	ret    
  401ca2:	int3   
  401ca3:	int3   
  401ca4:	int3   
  401ca5:	int3   
  401ca6:	int3   
  401ca7:	int3   
  401ca8:	int3   
  401ca9:	int3   
  401caa:	int3   
  401cab:	int3   
  401cac:	int3   
  401cad:	int3   
  401cae:	int3   
  401caf:	int3   
  401cb0:	push   ebp
  401cb1:	mov    ebp,esp
  401cb3:	push   0x7f00
  401cb8:	push   0x0
  401cba:	call   DWORD PTR ds:0x4040ac
  401cc0:	mov    edx,ebp
  401cc2:	mov    DWORD PTR ds:0x41c1a0,edx
  401cc8:	call   0x4017c0
  401ccd:	pop    ebp
  401cce:	ret    
  401ccf:	int3   
  401cd0:	push   ebp
  401cd1:	mov    ebp,esp
  401cd3:	call   0x4013e0
  401cd8:	mov    eax,ds:0x41c1a8
  401cdd:	push   eax
  401cde:	call   0x401500
  401ce3:	add    esp,0x4
  401ce6:	mov    ds:0x41c1b4,eax
  401ceb:	pop    ebp
  401cec:	ret    
  401ced:	int3   
  401cee:	int3   
  401cef:	int3   
  401cf0:	push   ebp
  401cf1:	mov    ebp,esp
  401cf3:	sub    esp,0x238
  401cf9:	mov    DWORD PTR [ebp-0x1c],0x307c
  401d00:	mov    DWORD PTR [ebp-0x238],0x3000
  401d0a:	mov    DWORD PTR [ebp-0x18],0x40
  401d11:	mov    DWORD PTR [ebp-0x22c],0x0
  401d1b:	mov    DWORD PTR [ebp-0x230],0x0
  401d25:	mov    eax,DWORD PTR [ebp-0x18]
  401d28:	push   eax
  401d29:	mov    ecx,DWORD PTR [ebp-0x238]
  401d2f:	push   ecx
  401d30:	mov    edx,DWORD PTR [ebp+0x8]
  401d33:	push   edx
  401d34:	mov    eax,DWORD PTR [ebp-0x22c]
  401d3a:	push   eax
  401d3b:	push   0xffffffff
  401d3d:	call   DWORD PTR ds:0x404054
  401d43:	mov    esp,ebp
  401d45:	pop    ebp
  401d46:	ret    
  401d47:	int3   
  401d48:	int3   
  401d49:	int3   
  401d4a:	int3   
  401d4b:	int3   
  401d4c:	int3   
  401d4d:	int3   
  401d4e:	int3   
  401d4f:	int3   
  401d50:	push   ebp
  401d51:	mov    ebp,esp
  401d53:	sub    esp,0x8
  401d56:	mov    DWORD PTR [ebp-0x4],0x39d63
  401d5d:	mov    DWORD PTR [ebp-0x4],0x39d63
  401d64:	mov    DWORD PTR [ebp-0x4],0x39d63
  401d6b:	mov    DWORD PTR [ebp-0x4],0x39d63
  401d72:	mov    DWORD PTR [ebp-0x8],0x0
  401d79:	jmp    0x401d84
  401d7b:	mov    eax,DWORD PTR [ebp-0x8]
  401d7e:	add    eax,0x1
  401d81:	mov    DWORD PTR [ebp-0x8],eax
  401d84:	mov    ecx,DWORD PTR [ebp-0x8]
  401d87:	cmp    ecx,DWORD PTR [ebp+0x10]
  401d8a:	jge    0x401de4
  401d8c:	mov    DWORD PTR [ebp-0x4],0x39d63
  401d93:	mov    DWORD PTR [ebp-0x4],0x39d63
  401d9a:	mov    DWORD PTR [ebp-0x4],0x39d63
  401da1:	mov    DWORD PTR [ebp-0x4],0x39d63
  401da8:	mov    DWORD PTR [ebp-0x4],0x39d63
  401daf:	mov    DWORD PTR [ebp-0x4],0x39d63
  401db6:	mov    DWORD PTR [ebp-0x4],0x39d63
  401dbd:	mov    DWORD PTR [ebp-0x4],0x39d63
  401dc4:	mov    DWORD PTR [ebp-0x4],0x39d63
  401dcb:	mov    DWORD PTR [ebp-0x4],0x39d63
  401dd2:	mov    edx,DWORD PTR [ebp+0x8]
  401dd5:	add    edx,DWORD PTR [ebp-0x8]
  401dd8:	mov    eax,DWORD PTR [ebp+0xc]
  401ddb:	add    eax,DWORD PTR [ebp-0x8]
  401dde:	mov    cl,BYTE PTR [eax]
  401de0:	mov    BYTE PTR [edx],cl
  401de2:	jmp    0x401d7b
  401de4:	mov    esp,ebp
  401de6:	pop    ebp
  401de7:	ret    
  401de8:	int3   
  401de9:	int3   
  401dea:	int3   
  401deb:	int3   
  401dec:	int3   
  401ded:	int3   
  401dee:	int3   
  401def:	int3   
  401df0:	push   ebp
  401df1:	mov    ebp,esp
  401df3:	pop    ebp
  401df4:	ret    0x10
  401df7:	int3   
  401df8:	int3   
  401df9:	int3   
  401dfa:	int3   
  401dfb:	int3   
  401dfc:	int3   
  401dfd:	int3   
  401dfe:	int3   
  401dff:	int3   
  401e00:	push   ebp
  401e01:	mov    ebp,esp
  401e03:	mov    eax,0x1
  401e08:	pop    ebp
  401e09:	ret    0x10
  401e0c:	and    BYTE PTR [eax+0x40],al
  401e0f:	add    BYTE PTR [eax+eax*2+0x40],dh
  401e13:	add    BYTE PTR [eax],ch
  401e15:	inc    eax
  401e16:	inc    eax
  401e17:	add    BYTE PTR [eax+eax*2],ch
  401e1a:	inc    eax
  401e1b:	add    BYTE PTR [eax+0x40],dh
  401e1e:	inc    eax
  401e1f:	add    BYTE PTR [eax+eax*2+0x40],ch
  401e23:	add    BYTE PTR [eax+eax*2+0x40],al
  401e27:	add    BYTE PTR [eax],cl
  401e29:	inc    eax
  401e2a:	inc    eax
  401e2b:	add    BYTE PTR [eax],bl
  401e2d:	inc    eax
  401e2e:	inc    eax
  401e2f:	add    BYTE PTR [eax+eax*2+0x40],ah
  401e33:	add    BYTE PTR [eax],dh
  401e35:	inc    eax
  401e36:	inc    eax
  401e37:	add    BYTE PTR [eax+0x40],ah
  401e3a:	inc    eax
  401e3b:	add    BYTE PTR [eax+eax*2],dh
  401e3e:	inc    eax
  401e3f:	add    BYTE PTR [ecx+eax*2],ch
  401e42:	inc    eax
  401e43:	add    al,dh
  401e45:	inc    eax
  401e46:	inc    eax
  401e47:	add    ah,dh
  401e49:	inc    eax
  401e4a:	inc    eax
  401e4b:	add    ah,dl
  401e4d:	inc    eax
  401e4e:	inc    eax
  401e4f:	add    al,dl
  401e51:	inc    eax
  401e52:	inc    eax
  401e53:	add    ah,cl
  401e55:	inc    eax
  401e56:	inc    eax
  401e57:	add    ah,ah
  401e59:	inc    eax
  401e5a:	inc    eax
  401e5b:	add    al,bl
  401e5d:	inc    eax
  401e5e:	inc    eax
  401e5f:	add    BYTE PTR [eax],al
  401e61:	inc    ecx
  401e62:	inc    eax
  401e63:	add    ah,bl
  401e65:	inc    eax
  401e66:	inc    eax
  401e67:	add    al,ah
  401e69:	inc    eax
  401e6a:	inc    eax
  401e6b:	add    BYTE PTR [eax],bl
  401e6d:	inc    ecx
  401e6e:	inc    eax
  401e6f:	add    al,cl
  401e71:	inc    eax
  401e72:	inc    eax
  401e73:	add    al,bh
  401e75:	inc    eax
  401e76:	inc    eax
  401e77:	add    al,ch
  401e79:	inc    eax
  401e7a:	inc    eax
  401e7b:	add    BYTE PTR [eax],cl
  401e7d:	inc    ecx
  401e7e:	inc    eax
  401e7f:	add    BYTE PTR [eax],dh
  401e81:	inc    ecx
  401e82:	inc    eax
  401e83:	add    BYTE PTR [ecx+eax*2],cl
  401e86:	inc    eax
  401e87:	add    BYTE PTR [ecx+eax*2],bl
  401e8a:	inc    eax
  401e8b:	add    BYTE PTR [eax],dl
  401e8d:	inc    ecx
  401e8e:	inc    eax
  401e8f:	add    BYTE PTR [ecx+eax*2],dl
  401e92:	inc    eax
  401e93:	add    BYTE PTR [eax],ch
  401e95:	inc    ecx
  401e96:	inc    eax
  401e97:	add    ah,bh
  401e99:	inc    eax
  401e9a:	inc    eax
  401e9b:	add    BYTE PTR [ecx+eax*2],al
  401e9e:	inc    eax
  401e9f:	add    BYTE PTR [eax],ah
  401ea1:	inc    ecx
  401ea2:	inc    eax
  401ea3:	add    BYTE PTR [ecx+eax*2],ah
  401ea6:	inc    eax
  401ea7:	add    ah,ch
  401ea9:	inc    eax
  401eaa:	inc    eax
  401eab:	add    BYTE PTR [eax+eax*2+0x40480040],ah
  401eb2:	inc    eax
  401eb3:	add    BYTE PTR [eax+eax*2+0x40],bh
  401eb7:	add    BYTE PTR [eax+0x34004040],cl
  401ebd:	inc    eax
  401ebe:	inc    eax
  401ebf:	add    BYTE PTR [eax+eax*2+0x40380040],al
  401ec6:	inc    eax
  401ec7:	add    BYTE PTR [eax+eax*2],bh
  401eca:	inc    eax
  401ecb:	add    BYTE PTR [eax+0x68004040],ah
  401ed1:	inc    eax
  401ed2:	inc    eax
  401ed3:	add    BYTE PTR [eax-0x6bffbfc0],dl
  401ed9:	inc    eax
  401eda:	inc    eax
  401edb:	add    BYTE PTR [eax+eax*2],cl
  401ede:	inc    eax
  401edf:	add    BYTE PTR [eax-0x63ffbfc0],bl
  401ee5:	inc    eax
  401ee6:	inc    eax
  401ee7:	add    BYTE PTR [eax+eax*2],dl
  401eea:	inc    eax
  401eeb:	add    BYTE PTR [eax+0x40],al
  401eee:	inc    eax
  401eef:	add    BYTE PTR [eax+0x1c004040],al
  401ef5:	inc    eax
  401ef6:	inc    eax
  401ef7:	add    BYTE PTR [eax+0x40],dl
  401efa:	inc    eax
  401efb:	add    BYTE PTR [eax+eax*2],ah
  401efe:	inc    eax
  401eff:	add    BYTE PTR [eax],dl
  401f01:	inc    eax
  401f02:	inc    eax
  401f03:	add    BYTE PTR [eax],cl
  401f05:	inc    eax
  401f06:	inc    eax
  401f07:	add    BYTE PTR [eax+eax*2+0x40],dh
  401f0b:	add    BYTE PTR [eax+eax*2+0x40],bl
  401f0f:	add    BYTE PTR [eax+0x40],bh
  401f12:	inc    eax
  401f13:	add    BYTE PTR [eax+eax*2+0x404c0040],cl
  401f1a:	inc    eax
  401f1b:	add    BYTE PTR [eax+0x40],bl
  401f1e:	inc    eax
  401f1f:	add    BYTE PTR [eax+0x4040],dh
  401f25:	add    al,BYTE PTR [eax]
  401f27:	add    BYTE PTR [eax],dl
  401f29:	sbb    eax,DWORD PTR [ecx]
  401f2b:	add    BYTE PTR [eax],cl
  401f2d:	sbb    eax,DWORD PTR [ecx]
  401f2f:	add    BYTE PTR [ecx+ebp*1+0x297c3291],cl
  401f36:	cdq    
  401f37:	xor    ch,BYTE PTR [ecx+ebp*1+0x296c32a1]
  401f3e:	test   eax,0x6b1032
  401f43:	add    al,bl
  401f45:	sbb    eax,DWORD PTR [ecx]
  401f47:	add    bl,dh
  401f49:	daa    
  401f4a:	mov    dh,BYTE PTR [ebx]
  401f4c:	sub    BYTE PTR [eax],0x9b
  401f4f:	xor    edi,DWORD PTR [edi+0x28]
  401f52:	test   eax,0xd2286633
  401f57:	xor    ebp,DWORD PTR [esi+0x28]
  401f5a:	jmp    0x2c6f2b92
  401f5f:	xor    al,0xcb
  401f61:	cs push eax
  401f63:	xor    al,0xd9
  401f65:	fdiv   QWORD PTR cs:[esp+esi*2]
  401f69:	cs (bad) 
  401f6b:	ss push ebp
  401f6d:	sub    eax,0x2c1436d4
  401f72:	or     al,0x37
  401f74:	das    
  401f75:	sub    al,0x0
  401f77:	cmp    BYTE PTR [edi],dl
  401f79:	and    eax,edi
  401f7b:	cmp    BYTE PTR [ebx+0x23],bl
  401f7e:	fdivr  QWORD PTR [eax]
  401f80:	ss and esi,ecx
  401f83:	cmp    BYTE PTR ds:0xfa392522,al
  401f89:	and    DWORD PTR [ebx+0x39],eax
  401f8c:	add    BYTE PTR [ebp+0x79399021],ch
  401f92:	and    bl,BYTE PTR [esi-0x42dd91c7]
  401f98:	cmp    ebp,edx
  401f9a:	and    edx,ecx
  401f9c:	cmp    ebx,esp
  401f9e:	and    ebx,ebx
  401fa0:	cmp    ecx,esi
  401fa2:	and    esi,ebp
  401fa4:	cmp    edi,esi
  401fa6:	and    DWORD PTR [edx+edi*1],eax
  401fa9:	pop    es
  401faa:	and    DWORD PTR [eax],esp
  401fac:	cmp    bh,BYTE PTR [ebx]
  401fae:	and    DWORD PTR [eax],edi
  401fb0:	cmp    dl,BYTE PTR [ebx+0x21]
  401fb3:	push   eax
  401fb4:	cmp    cl,BYTE PTR [eax-0x5bc570e0]
  401fba:	and    BYTE PTR [edx+edi*1+0x3ac3207a],ah
  401fc1:	mov    esi,0x1d3b0920
  401fc6:	and    BYTE PTR [eax],ah
  401fc8:	cmp    edi,ebx
  401fca:	pop    ds
  401fcb:	xor    eax,0x481fe63b
  401fd0:	cmp    ecx,DWORD PTR [esi+0x20]
  401fd3:	push   ebp
  401fd4:	cmp    esi,DWORD PTR ds:0x43b6e20
  401fda:	and    BYTE PTR [ebx+0x3b],bh
  401fdd:	pop    es
  401fde:	and    BYTE PTR [ebx+edi*1+0x3b8f1f89],al
  401fe5:	pushf  
  401fe6:	pop    ds
  401fe7:	mov    ds:0xac1fb83b,eax
  401fec:	cmp    esp,DWORD PTR [edx+0x3bce1f]
  401ff2:	cmp    bl,BYTE PTR [edi]
  401ff4:	pop    es
  401ff5:	cmp    al,0x4
  401ff7:	daa    
  401ff8:	adc    edi,DWORD PTR [esp+ebp*1]
  401ffb:	daa    
  401ffc:	inc    edi
  401ffd:	cmp    al,0xbb
  401fff:	es jns 0x40203e
  402002:	mov    WORD PTR [esi],fs
  402004:	xchg   edi,eax
  402005:	cmp    al,0x73
  402007:	es test al,0x3c
  40200a:	popa   
  40200b:	es mov eax,0xd9264c3c
  402011:	cmp    al,0x31
  402013:	es call 0x1663855
  402019:	add    BYTE PTR [eax],dl
  40201b:	sbb    eax,DWORD PTR [ecx]
  40201d:	add    BYTE PTR [eax],dl
  40201f:	sbb    eax,DWORD PTR [ecx]
  402021:	add    BYTE PTR [eax],dl
  402023:	sbb    eax,DWORD PTR [ecx]
  402025:	add    BYTE PTR [eax],dl
  402027:	sbb    eax,DWORD PTR [ecx]
  402029:	add    BYTE PTR [eax],dl
  40202b:	sbb    eax,DWORD PTR [ecx]
  40202d:	add    BYTE PTR [eax],dl
  40202f:	sbb    eax,DWORD PTR [ecx]
  402031:	add    BYTE PTR [eax],dl
  402033:	sbb    eax,DWORD PTR [ecx]
  402035:	add    BYTE PTR [eax],dl
  402037:	sbb    eax,DWORD PTR [ecx]
  402039:	add    BYTE PTR [eax],dl
  40203b:	sbb    eax,DWORD PTR [ecx]
  40203d:	add    BYTE PTR [eax],dl
  40203f:	sbb    eax,DWORD PTR [ecx]
  402041:	add    BYTE PTR [eax],dl
  402043:	sbb    eax,DWORD PTR [ecx]
  402045:	add    BYTE PTR [eax],dl
  402047:	sbb    eax,DWORD PTR [ecx]
  402049:	add    BYTE PTR [eax],dl
  40204b:	sbb    eax,DWORD PTR [ecx]
  40204d:	add    BYTE PTR [eax],dl
  40204f:	sbb    eax,DWORD PTR [ecx]
  402051:	add    BYTE PTR [eax],dl
  402053:	sbb    eax,DWORD PTR [ecx]
  402055:	add    BYTE PTR [eax],al
  402057:	adc    BYTE PTR [ebx],bl
  402059:	add    DWORD PTR [eax],eax
  40205b:	adc    BYTE PTR [ebx],bl
  40205d:	add    DWORD PTR [eax],eax
  40205f:	adc    BYTE PTR [ebx],bl
  402061:	add    DWORD PTR [eax],eax
  402063:	adc    BYTE PTR [ebx],bl
  402065:	add    DWORD PTR [eax],eax
  402067:	adc    BYTE PTR [ebx],bl
  402069:	add    DWORD PTR [eax],eax
  40206b:	adc    BYTE PTR [ebx],bl
  40206d:	add    DWORD PTR [eax],eax
  40206f:	adc    BYTE PTR [ebx],bl
  402071:	add    DWORD PTR [eax],eax
  402073:	adc    BYTE PTR [ebx],bl
  402075:	add    DWORD PTR [eax],eax
  402077:	adc    BYTE PTR [ebx],bl
  402079:	add    DWORD PTR [eax],eax
  40207b:	adc    BYTE PTR [ebx],bl
  40207d:	add    DWORD PTR [eax],eax
  40207f:	adc    BYTE PTR [ebx],bl
  402081:	add    DWORD PTR [eax],eax
  402083:	adc    BYTE PTR [ebx],bl
  402085:	add    DWORD PTR [eax],eax
  402087:	adc    BYTE PTR [ebx],bl
  402089:	add    DWORD PTR [eax],eax
  40208b:	adc    BYTE PTR [ebx],bl
  40208d:	add    DWORD PTR [eax],eax
  40208f:	adc    BYTE PTR [ebx],bl
  402091:	add    DWORD PTR [eax],eax
  402093:	adc    BYTE PTR [ebx],bl
  402095:	add    DWORD PTR [eax],eax
  402097:	adc    BYTE PTR [ebx],bl
  402099:	add    DWORD PTR [eax],eax
  40209b:	adc    BYTE PTR [ebx],bl
  40209d:	add    DWORD PTR [eax],eax
  40209f:	adc    BYTE PTR [ebx],bl
  4020a1:	add    DWORD PTR [eax],eax
  4020a3:	adc    BYTE PTR [ebx],bl
  4020a5:	add    DWORD PTR [eax],eax
  4020a7:	adc    BYTE PTR [ebx],bl
  4020a9:	add    DWORD PTR [eax],eax
  4020ab:	adc    BYTE PTR [ebx],bl
  4020ad:	add    DWORD PTR [eax],eax
  4020af:	adc    BYTE PTR [ebx],bl
  4020b1:	add    DWORD PTR [eax],eax
  4020b3:	adc    BYTE PTR [ebx],bl
  4020b5:	add    DWORD PTR [eax],eax
  4020b7:	adc    BYTE PTR [ebx],bl
  4020b9:	add    DWORD PTR [eax],eax
  4020bb:	add    BYTE PTR [eax],dl
  4020bd:	sbb    eax,DWORD PTR [ecx]
  4020bf:	add    BYTE PTR [eax],dl
  4020c1:	sbb    eax,DWORD PTR [ecx]
  4020c3:	add    BYTE PTR [eax],dl
  4020c5:	sbb    eax,DWORD PTR [ecx]
  4020c7:	add    BYTE PTR [eax],dl
  4020c9:	sbb    eax,DWORD PTR [ecx]
  4020cb:	add    BYTE PTR [eax],dl
  4020cd:	sbb    eax,DWORD PTR [ecx]
  4020cf:	add    BYTE PTR [eax],dl
  4020d1:	sbb    eax,DWORD PTR [ecx]
  4020d3:	add    BYTE PTR [eax],dl
  4020d5:	sbb    eax,DWORD PTR [ecx]
  4020d7:	add    BYTE PTR [eax],dl
  4020d9:	sbb    eax,DWORD PTR [ecx]
  4020db:	add    BYTE PTR [eax],dl
  4020dd:	sbb    eax,DWORD PTR [ecx]
  4020df:	add    BYTE PTR [eax],dl
  4020e1:	sbb    eax,DWORD PTR [ecx]
  4020e3:	add    BYTE PTR [eax],dl
  4020e5:	sbb    eax,DWORD PTR [ecx]
  4020e7:	add    BYTE PTR [eax],dl
  4020e9:	sbb    eax,DWORD PTR [ecx]
  4020eb:	add    BYTE PTR [eax],dl
  4020ed:	sbb    eax,DWORD PTR [ecx]
  4020ef:	add    BYTE PTR [eax],dl
  4020f1:	sbb    eax,DWORD PTR [ecx]
  4020f3:	add    BYTE PTR [eax],dl
  4020f5:	sbb    eax,DWORD PTR [ecx]
  4020f7:	add    BYTE PTR [eax],dl
  4020f9:	sbb    eax,DWORD PTR [ecx]
  4020fb:	add    BYTE PTR [eax],dl
  4020fd:	sbb    eax,DWORD PTR [ecx]
  4020ff:	add    BYTE PTR [eax],dl
  402101:	sbb    eax,DWORD PTR [ecx]
  402103:	add    BYTE PTR [eax],dl
  402105:	sbb    eax,DWORD PTR [ecx]
  402107:	add    BYTE PTR [eax],dl
  402109:	sbb    eax,DWORD PTR [ecx]
  40210b:	add    BYTE PTR [eax],dl
  40210d:	sbb    eax,DWORD PTR [ecx]
  40210f:	add    BYTE PTR [eax],dl
  402111:	sbb    eax,DWORD PTR [ecx]
  402113:	add    BYTE PTR [eax],dl
  402115:	sbb    eax,DWORD PTR [ecx]
  402117:	add    BYTE PTR [eax],dl
  402119:	sbb    eax,DWORD PTR [ecx]
  40211b:	add    BYTE PTR [eax],dl
  40211d:	sbb    eax,DWORD PTR [ecx]
  40211f:	add    BYTE PTR [eax],al
  402121:	adc    BYTE PTR [ebx],bl
  402123:	add    DWORD PTR [eax],eax
  402125:	adc    BYTE PTR [ebx],bl
  402127:	add    DWORD PTR [eax],eax
  402129:	adc    BYTE PTR [ebx],bl
  40212b:	add    DWORD PTR [eax],eax
  40212d:	int3   
  40212e:	jmp    DWORD PTR ds:0x4040c4

Disassembly of section .text2:

00403000 <.text2>:
	...
