
043dae5e01706de40547dbe63ca388bb46522244f801a1d2e96ef60bbd01a1e1.exe:     file format pei-i386


Disassembly of section .text:

00401000 <.text>:
  401000:	mov    edi,edi
  401002:	push   ebp
  401003:	mov    ebp,esp
  401005:	sub    esp,0x4c
  401008:	push   edx
  401009:	mov    edi,0x0
  40100e:	push   edi
  40100f:	push   0x403040
  401014:	pop    eax
  401015:	call   DWORD PTR cs:[eax]
  401018:	pop    edx
  401019:	push   edx
  40101a:	push   ebx
  40101b:	push   DWORD PTR [edx+0x5b4]
  401021:	push   DWORD PTR [edx+0x3f8]
  401027:	push   DWORD PTR [edx+0x1bc]
  40102d:	call   0x401b90
  401032:	add    esp,0x10
  401035:	pop    edx
  401036:	push   edx
  401037:	mov    eax,0x0
  40103c:	push   eax
  40103d:	push   0x403000
  401042:	pop    eax
  401043:	call   DWORD PTR cs:[eax]
  401046:	pop    edx
  401047:	sub    esp,0xffffffb4
  40104a:	mov    ebp,DWORD PTR [esp]
  40104d:	add    esp,0x4
  401050:	ret    
  401051:	add    BYTE PTR [eax],al
  401053:	add    BYTE PTR [eax],al
  401055:	add    BYTE PTR [eax],al
  401057:	add    BYTE PTR [edi],cl
  401059:	or     dh,0x0
  40105c:	add    BYTE PTR [eax],al
  40105e:	add    BYTE PTR [eax],al
  401060:	mov    edi,edi
  401062:	push   ebp
  401063:	mov    ebp,esp
  401065:	sub    esp,0x60
  401068:	push   edx
  401069:	push   0x0
  40106b:	push   0x403008
  401070:	pop    eax
  401071:	call   DWORD PTR cs:[eax]
  401074:	pop    edx
  401075:	push   edx
  401076:	push   ebx
  401077:	push   eax
  401078:	call   0x401508
  40107d:	add    esp,0x8
  401080:	pop    edx
  401081:	push   edx
  401082:	push   0x0
  401084:	push   0x403018
  401089:	pop    eax
  40108a:	call   DWORD PTR cs:[eax]
  40108d:	pop    edx
  40108e:	sub    esp,0xffffffa0
  401091:	mov    ebp,DWORD PTR [esp]
  401094:	add    esp,0x4
  401097:	ret    
  401098:	mov    edi,edi
  40109a:	push   ebp
  40109b:	mov    ebp,esp
  40109d:	sub    esp,0x40
  4010a0:	push   edx
  4010a1:	push   eax
  4010a2:	push   DWORD PTR [edx+0x230]
  4010a8:	push   DWORD PTR [edx+0x544]
  4010ae:	push   esi
  4010af:	call   0x401d2c
  4010b4:	add    esp,0x10
  4010b7:	pop    edx
  4010b8:	push   edx
  4010b9:	mov    edx,0x0
  4010be:	push   edx
  4010bf:	push   0x40303c
  4010c4:	pop    eax
  4010c5:	call   DWORD PTR cs:[eax]
  4010c8:	pop    edx
  4010c9:	push   edx
  4010ca:	mov    edi,0x0
  4010cf:	push   edi
  4010d0:	push   0x403010
  4010d5:	pop    eax
  4010d6:	call   DWORD PTR cs:[eax]
  4010d9:	pop    edx
  4010da:	sub    esp,0xffffffc0
  4010dd:	mov    ebp,DWORD PTR [esp]
  4010e0:	add    esp,0x4
  4010e3:	ret    
  4010e4:	mov    edi,edi
  4010e6:	push   ebp
  4010e7:	mov    ebp,esp
  4010e9:	sub    esp,0x4c
  4010ec:	push   edx
  4010ed:	mov    edx,0x0
  4010f2:	push   edx
  4010f3:	push   0x403010
  4010f8:	pop    eax
  4010f9:	call   DWORD PTR cs:[eax]
  4010fc:	pop    edx
  4010fd:	push   edx
  4010fe:	push   DWORD PTR [edx+0x2e8]
  401104:	push   esi
  401105:	call   0x401554
  40110a:	add    esp,0x8
  40110d:	pop    edx
  40110e:	push   edx
  40110f:	mov    eax,0x0
  401114:	push   eax
  401115:	push   0x40305c
  40111a:	pop    eax
  40111b:	call   DWORD PTR cs:[eax]
  40111e:	pop    edx
  40111f:	sub    esp,0xffffffb4
  401122:	mov    ebp,DWORD PTR [esp]
  401125:	add    esp,0x4
  401128:	ret    
  401129:	add    BYTE PTR [eax],al
  40112b:	add    BYTE PTR [ebx-0x74aa9f01],cl
  401131:	in     al,dx
  401132:	sub    esp,0x24
  401135:	push   edx
  401136:	push   0x0
  401138:	push   0x40302c
  40113d:	pop    eax
  40113e:	call   DWORD PTR cs:[eax]
  401141:	pop    edx
  401142:	test   eax,eax
  401144:	je     0x401147
  401146:	ret    
  401147:	push   edx
  401148:	mov    ebx,0x0
  40114d:	push   ebx
  40114e:	push   0x40303c
  401153:	pop    eax
  401154:	call   DWORD PTR cs:[eax]
  401157:	pop    edx
  401158:	push   edx
  401159:	push   eax
  40115a:	push   DWORD PTR [edx+0xc0]
  401160:	call   0x401d78
  401165:	add    esp,0x8
  401168:	pop    edx
  401169:	mov    esi,0x403024
  40116e:	mov    esi,DWORD PTR [esi]
  401170:	push   esi
  401171:	push   DWORD PTR [edx+0x3a0]
  401177:	pop    ebx
  401178:	call   ebx
  40117a:	sub    esp,0xffffffdc
  40117d:	mov    ebp,DWORD PTR [esp]
  401180:	add    esp,0x4
  401183:	ret    
  401184:	add    BYTE PTR [eax],al
  401186:	add    BYTE PTR [eax],al
  401188:	mov    edi,edi
  40118a:	push   ebp
  40118b:	mov    ebp,esp
  40118d:	sub    esp,0x38
  401190:	push   edx
  401191:	push   edi
  401192:	push   DWORD PTR [edx+0x280]
  401198:	call   0x401c14
  40119d:	add    esp,0x8
  4011a0:	pop    edx
  4011a1:	push   edx
  4011a2:	mov    ecx,0x0
  4011a7:	push   ecx
  4011a8:	push   0x403010
  4011ad:	pop    eax
  4011ae:	call   DWORD PTR cs:[eax]
  4011b1:	pop    edx
  4011b2:	push   edx
  4011b3:	push   0x0
  4011b5:	push   0x403008
  4011ba:	pop    eax
  4011bb:	call   DWORD PTR cs:[eax]
  4011be:	pop    edx
  4011bf:	sub    esp,0xffffffc8
  4011c2:	mov    ebp,DWORD PTR [esp]
  4011c5:	add    esp,0x4
  4011c8:	ret    
  4011c9:	add    BYTE PTR [eax],al
  4011cb:	add    BYTE PTR [ebx-0x1374aa01],cl
  4011d1:	sub    esp,0x44
  4011d4:	push   edx
  4011d5:	push   DWORD PTR [edx+0x134]
  4011db:	push   eax
  4011dc:	push   DWORD PTR [edx+0x94]
  4011e2:	push   esi
  4011e3:	call   0x40147c
  4011e8:	add    esp,0x10
  4011eb:	pop    edx
  4011ec:	push   edx
  4011ed:	mov    esi,0x0
  4011f2:	push   esi
  4011f3:	push   0x403000
  4011f8:	pop    eax
  4011f9:	call   DWORD PTR cs:[eax]
  4011fc:	pop    edx
  4011fd:	push   edx
  4011fe:	mov    edx,0x0
  401203:	push   edx
  401204:	push   0x403084
  401209:	pop    eax
  40120a:	call   DWORD PTR cs:[eax]
  40120d:	pop    edx
  40120e:	sub    esp,0xffffffbc
  401211:	mov    ebp,DWORD PTR [esp]
  401214:	add    esp,0x4
  401217:	ret    
	...
  401220:	mov    edi,edi
  401222:	push   ebp
  401223:	mov    ebp,esp
  401225:	sub    esp,0x54
  401228:	push   edx
  401229:	push   DWORD PTR [edx+0x26c]
  40122f:	push   DWORD PTR [edx+0x21c]
  401235:	push   eax
  401236:	push   edi
  401237:	call   0x40143c
  40123c:	add    esp,0x10
  40123f:	pop    edx
  401240:	push   edx
  401241:	mov    ecx,0x0
  401246:	push   ecx
  401247:	push   0x403008
  40124c:	pop    eax
  40124d:	call   DWORD PTR cs:[eax]
  401250:	pop    edx
  401251:	push   edx
  401252:	mov    edx,0x0
  401257:	push   edx
  401258:	push   0x403064
  40125d:	pop    eax
  40125e:	call   DWORD PTR cs:[eax]
  401261:	pop    edx
  401262:	sub    esp,0xffffffac
  401265:	mov    ebp,DWORD PTR [esp]
  401268:	add    esp,0x4
  40126b:	ret    
	...
  401274:	mov    edi,edi
  401276:	push   ebp
  401277:	mov    ebp,esp
  401279:	sub    esp,0x30
  40127c:	push   edx
  40127d:	push   DWORD PTR [edx+0x43c]
  401283:	push   DWORD PTR [edx+0x208]
  401289:	push   edi
  40128a:	push   edi
  40128b:	call   0x4015ec
  401290:	add    esp,0x10
  401293:	pop    edx
  401294:	push   edx
  401295:	push   0x0
  401297:	push   0x403048
  40129c:	pop    eax
  40129d:	call   DWORD PTR cs:[eax]
  4012a0:	pop    edx
  4012a1:	push   edx
  4012a2:	mov    edx,0x0
  4012a7:	push   edx
  4012a8:	push   0x403040
  4012ad:	pop    eax
  4012ae:	call   DWORD PTR cs:[eax]
  4012b1:	pop    edx
  4012b2:	sub    esp,0xffffffd0
  4012b5:	mov    ebp,DWORD PTR [esp]
  4012b8:	add    esp,0x4
  4012bb:	ret    
  4012bc:	mov    edi,edi
  4012be:	push   ebp
  4012bf:	mov    ebp,esp
  4012c1:	sub    esp,0x3c
  4012c4:	push   edx
  4012c5:	push   ebx
  4012c6:	push   ecx
  4012c7:	push   eax
  4012c8:	call   0x401188
  4012cd:	add    esp,0xc
  4012d0:	pop    edx
  4012d1:	push   edx
  4012d2:	push   0x0
  4012d4:	push   0x403008
  4012d9:	pop    eax
  4012da:	call   DWORD PTR cs:[eax]
  4012dd:	pop    edx
  4012de:	push   edx
  4012df:	mov    esi,0x0
  4012e4:	push   esi
  4012e5:	push   0x403030
  4012ea:	pop    eax
  4012eb:	call   DWORD PTR cs:[eax]
  4012ee:	pop    edx
  4012ef:	sub    esp,0xffffffc4
  4012f2:	mov    ebp,DWORD PTR [esp]
  4012f5:	add    esp,0x4
  4012f8:	ret    
  4012f9:	add    BYTE PTR [eax],al
  4012fb:	add    BYTE PTR [eax],al
  4012fd:	add    BYTE PTR [eax],al
  4012ff:	add    BYTE PTR [ebx-0x1374aa01],cl
  401305:	sub    esp,0x48
  401308:	push   edx
  401309:	push   DWORD PTR [edx+0x1a0]
  40130f:	push   DWORD PTR [edx+0x5b8]
  401315:	push   ecx
  401316:	push   esi
  401317:	call   0x401060
  40131c:	add    esp,0x10
  40131f:	pop    edx
  401320:	push   edx
  401321:	mov    esi,0x0
  401326:	push   esi
  401327:	push   0x403084
  40132c:	pop    eax
  40132d:	call   DWORD PTR cs:[eax]
  401330:	pop    edx
  401331:	push   edx
  401332:	push   0x403038
  401337:	pop    eax
  401338:	call   DWORD PTR cs:[eax]
  40133b:	pop    edx
  40133c:	sub    esp,0xffffffb8
  40133f:	mov    ebp,DWORD PTR [esp]
  401342:	add    esp,0x4
  401345:	ret    
  401346:	add    BYTE PTR [eax],al
  401348:	add    BYTE PTR [eax],al
  40134a:	add    BYTE PTR [eax],al
  40134c:	mov    edi,edi
  40134e:	push   ebp
  40134f:	mov    ebp,esp
  401351:	sub    esp,0x60
  401354:	push   edx
  401355:	push   DWORD PTR [edx+0x460]
  40135b:	push   DWORD PTR [edx+0x1d0]
  401361:	push   ecx
  401362:	call   0x401b00
  401367:	add    esp,0xc
  40136a:	pop    edx
  40136b:	push   edx
  40136c:	push   0x0
  40136e:	push   0x403064
  401373:	pop    eax
  401374:	call   DWORD PTR cs:[eax]
  401377:	pop    edx
  401378:	push   edx
  401379:	push   0x0
  40137b:	push   0x403008
  401380:	pop    eax
  401381:	call   DWORD PTR cs:[eax]
  401384:	pop    edx
  401385:	sub    esp,0xffffffa0
  401388:	mov    ebp,DWORD PTR [esp]
  40138b:	add    esp,0x4
  40138e:	ret    
  40138f:	add    BYTE PTR [ebx-0x1374aa01],cl
  401395:	sub    esp,0x1c
  401398:	push   edx
  401399:	push   DWORD PTR [edx+0x5d0]
  40139f:	push   DWORD PTR [edx+0x22c]
  4013a5:	push   DWORD PTR [edx+0x43c]
  4013ab:	call   0x40134c
  4013b0:	add    esp,0xc
  4013b3:	pop    edx
  4013b4:	push   edx
  4013b5:	mov    ebx,0x0
  4013ba:	push   ebx
  4013bb:	push   0x40302c
  4013c0:	pop    eax
  4013c1:	call   DWORD PTR cs:[eax]
  4013c4:	pop    edx
  4013c5:	push   edx
  4013c6:	push   0x40301c
  4013cb:	pop    eax
  4013cc:	call   DWORD PTR cs:[eax]
  4013cf:	pop    edx
  4013d0:	sub    esp,0xffffffe4
  4013d3:	mov    ebp,DWORD PTR [esp]
  4013d6:	add    esp,0x4
  4013d9:	ret    
	...
  4013ee:	add    BYTE PTR [eax],al
  4013f0:	mov    edi,edi
  4013f2:	push   ebp
  4013f3:	mov    ebp,esp
  4013f5:	sub    esp,0x34
  4013f8:	push   edx
  4013f9:	push   DWORD PTR [edx+0x1fc]
  4013ff:	push   esi
  401400:	push   DWORD PTR [edx+0xd0]
  401406:	call   0x4018e8
  40140b:	add    esp,0xc
  40140e:	pop    edx
  40140f:	push   edx
  401410:	mov    ecx,0x0
  401415:	push   ecx
  401416:	push   0x403048
  40141b:	pop    eax
  40141c:	call   DWORD PTR cs:[eax]
  40141f:	pop    edx
  401420:	push   edx
  401421:	mov    eax,0x0
  401426:	push   eax
  401427:	push   0x403084
  40142c:	pop    eax
  40142d:	call   DWORD PTR cs:[eax]
  401430:	pop    edx
  401431:	sub    esp,0xffffffcc
  401434:	mov    ebp,DWORD PTR [esp]
  401437:	add    esp,0x4
  40143a:	ret    
  40143b:	add    BYTE PTR [ebx-0x1374aa01],cl
  401441:	sub    esp,0x4c
  401444:	push   edx
  401445:	push   ebx
  401446:	push   esi
  401447:	push   edi
  401448:	call   0x4018a0
  40144d:	add    esp,0xc
  401450:	pop    edx
  401451:	push   edx
  401452:	lea    ecx,[edx]
  401454:	push   ecx
  401455:	push   0x403024
  40145a:	pop    eax
  40145b:	call   DWORD PTR cs:[eax]
  40145e:	test   eax,eax
  401460:	jne    0x401452
  401462:	pop    edx
  401463:	push   edx
  401464:	push   0x0
  401466:	push   0x403000
  40146b:	pop    eax
  40146c:	call   DWORD PTR cs:[eax]
  40146f:	pop    edx
  401470:	sub    esp,0xffffffb4
  401473:	mov    ebp,DWORD PTR [esp]
  401476:	add    esp,0x4
  401479:	ret    
  40147a:	add    BYTE PTR [eax],al
  40147c:	mov    edi,edi
  40147e:	push   ebp
  40147f:	mov    ebp,esp
  401481:	sub    esp,0x1c
  401484:	push   edx
  401485:	mov    ebx,0x0
  40148a:	push   ebx
  40148b:	push   0x403040
  401490:	pop    eax
  401491:	call   DWORD PTR cs:[eax]
  401494:	pop    edx
  401495:	push   edx
  401496:	push   DWORD PTR [edx+0x268]
  40149c:	push   ebx
  40149d:	push   DWORD PTR [edx+0x13c]
  4014a3:	call   0x401774
  4014a8:	add    esp,0xc
  4014ab:	pop    edx
  4014ac:	push   edx
  4014ad:	push   0x40301c
  4014b2:	pop    eax
  4014b3:	call   DWORD PTR cs:[eax]
  4014b6:	pop    edx
  4014b7:	sub    esp,0xffffffe4
  4014ba:	mov    ebp,DWORD PTR [esp]
  4014bd:	add    esp,0x4
  4014c0:	ret    
  4014c1:	add    BYTE PTR [eax],al
  4014c3:	add    BYTE PTR [edx+0x0],ch
  4014c6:	add    DWORD PTR [esp],0x47f000
  4014cd:	xor    ecx,ecx
  4014cf:	or     ecx,0x403090
  4014d5:	and    WORD PTR [ecx],0x0
  4014d9:	push   DWORD PTR [ecx]
  4014db:	pop    eax
  4014dc:	mov    edx,eax
  4014de:	push   0x3c
  4014e0:	add    DWORD PTR [esp],eax
  4014e3:	pop    ecx
  4014e4:	push   eax
  4014e5:	mov    edi,esp
  4014e7:	mov    esi,ecx
  4014e9:	movs   DWORD PTR es:[edi],DWORD PTR ds:[esi]
  4014ea:	pop    eax
  4014eb:	mov    edx,DWORD PTR [eax+edx*1+0x1c]
  4014ef:	ror    edx,0x8
  4014f2:	xor    eax,eax
  4014f4:	or     al,0x80
  4014f6:	cmp    al,dl
  4014f8:	pop    edx
  4014f9:	ja     0x401504
  4014fb:	nop
  4014fc:	nop
  4014fd:	nop
  4014fe:	nop
  4014ff:	jmp    0x401058
  401504:	xor    esp,esp
  401506:	int3   
  401507:	int3   
  401508:	mov    edi,edi
  40150a:	push   ebp
  40150b:	mov    ebp,esp
  40150d:	sub    esp,0x5c
  401510:	push   edx
  401511:	mov    edx,0x0
  401516:	push   edx
  401517:	push   0x403064
  40151c:	pop    eax
  40151d:	call   DWORD PTR cs:[eax]
  401520:	pop    edx
  401521:	push   edx
  401522:	push   DWORD PTR [edx+0x38c]
  401528:	push   esi
  401529:	push   edi
  40152a:	push   DWORD PTR [edx+0x2d8]
  401530:	call   0x401c60
  401535:	add    esp,0x10
  401538:	pop    edx
  401539:	push   edx
  40153a:	mov    edx,0x0
  40153f:	push   edx
  401540:	push   0x403030
  401545:	pop    eax
  401546:	call   DWORD PTR cs:[eax]
  401549:	pop    edx
  40154a:	sub    esp,0xffffffa4
  40154d:	mov    ebp,DWORD PTR [esp]
  401550:	add    esp,0x4
  401553:	ret    
  401554:	mov    edi,edi
  401556:	push   ebp
  401557:	mov    ebp,esp
  401559:	sub    esp,0x58
  40155c:	push   edx
  40155d:	push   DWORD PTR [edx+0x3a8]
  401563:	push   edi
  401564:	push   ecx
  401565:	push   eax
  401566:	call   0x4017c4
  40156b:	add    esp,0x10
  40156e:	pop    edx
  40156f:	push   edx
  401570:	mov    edi,0x0
  401575:	push   edi
  401576:	push   0x403064
  40157b:	pop    eax
  40157c:	call   DWORD PTR cs:[eax]
  40157f:	pop    edx
  401580:	push   edx
  401581:	push   0x0
  401583:	push   0x403064
  401588:	pop    eax
  401589:	call   DWORD PTR cs:[eax]
  40158c:	pop    edx
  40158d:	sub    esp,0xffffffa8
  401590:	mov    ebp,DWORD PTR [esp]
  401593:	add    esp,0x4
  401596:	ret    
	...
  4015a7:	add    BYTE PTR [ebx-0x1374aa01],cl
  4015ad:	sub    esp,0x58
  4015b0:	push   edx
  4015b1:	push   0x0
  4015b3:	push   0x403048
  4015b8:	pop    eax
  4015b9:	call   DWORD PTR cs:[eax]
  4015bc:	pop    edx
  4015bd:	push   edx
  4015be:	push   DWORD PTR [edx+0x164]
  4015c4:	push   ebx
  4015c5:	push   esi
  4015c6:	call   0x401e08
  4015cb:	add    esp,0xc
  4015ce:	pop    edx
  4015cf:	push   edx
  4015d0:	mov    ebx,0x0
  4015d5:	push   ebx
  4015d6:	push   0x403000
  4015db:	pop    eax
  4015dc:	call   DWORD PTR cs:[eax]
  4015df:	pop    edx
  4015e0:	sub    esp,0xffffffa8
  4015e3:	mov    ebp,DWORD PTR [esp]
  4015e6:	add    esp,0x4
  4015e9:	ret    
  4015ea:	add    BYTE PTR [eax],al
  4015ec:	mov    edi,edi
  4015ee:	push   ebp
  4015ef:	mov    ebp,esp
  4015f1:	sub    esp,0x4c
  4015f4:	push   edx
  4015f5:	push   0x0
  4015f7:	push   0x403018
  4015fc:	pop    eax
  4015fd:	call   DWORD PTR cs:[eax]
  401600:	pop    edx
  401601:	push   edx
  401602:	push   DWORD PTR [edx+0x490]
  401608:	push   DWORD PTR [edx+0x388]
  40160e:	push   DWORD PTR [edx+0x70]
  401611:	push   edi
  401612:	call   0x401ac0
  401617:	add    esp,0x10
  40161a:	pop    edx
  40161b:	push   edx
  40161c:	push   0x0
  40161e:	push   0x403030
  401623:	pop    eax
  401624:	call   DWORD PTR cs:[eax]
  401627:	pop    edx
  401628:	sub    esp,0xffffffb4
  40162b:	mov    ebp,DWORD PTR [esp]
  40162e:	add    esp,0x4
  401631:	ret    
	...
  40163a:	add    BYTE PTR [eax],al
  40163c:	mov    edi,edi
  40163e:	push   ebp
  40163f:	mov    ebp,esp
  401641:	sub    esp,0x54
  401644:	push   edx
  401645:	push   0x0
  401647:	push   0x40302c
  40164c:	pop    eax
  40164d:	call   DWORD PTR cs:[eax]
  401650:	pop    edx
  401651:	push   edx
  401652:	push   ecx
  401653:	push   DWORD PTR [edx+0xac]
  401659:	call   0x401dc0
  40165e:	add    esp,0x8
  401661:	pop    edx
  401662:	push   edx
  401663:	mov    edx,0x0
  401668:	push   edx
  401669:	push   0x40303c
  40166e:	pop    eax
  40166f:	call   DWORD PTR cs:[eax]
  401672:	pop    edx
  401673:	sub    esp,0xffffffac
  401676:	mov    ebp,DWORD PTR [esp]
  401679:	add    esp,0x4
  40167c:	ret    
  40167d:	add    BYTE PTR [eax],al
  40167f:	add    BYTE PTR [ebx-0x1374aa01],cl
  401685:	sub    esp,0x40
  401688:	push   edx
  401689:	push   ebx
  40168a:	push   DWORD PTR [edx+0x500]
  401690:	push   DWORD PTR [edx+0x200]
  401696:	push   DWORD PTR [edx+0x4]
  401699:	call   0x401e4c
  40169e:	add    esp,0x10
  4016a1:	pop    edx
  4016a2:	push   edx
  4016a3:	lea    edx,[edx]
  4016a5:	push   edx
  4016a6:	push   0x403024
  4016ab:	pop    eax
  4016ac:	call   DWORD PTR cs:[eax]
  4016af:	test   eax,eax
  4016b1:	jne    0x4016a3
  4016b3:	pop    edx
  4016b4:	push   edx
  4016b5:	mov    edx,0x0
  4016ba:	push   edx
  4016bb:	push   0x403048
  4016c0:	pop    eax
  4016c1:	call   DWORD PTR cs:[eax]
  4016c4:	pop    edx
  4016c5:	sub    esp,0xffffffc0
  4016c8:	mov    ebp,DWORD PTR [esp]
  4016cb:	add    esp,0x4
  4016ce:	ret    
  4016cf:	add    BYTE PTR [ebx-0x1374aa01],cl
  4016d5:	sub    esp,0x44
  4016d8:	push   edx
  4016d9:	mov    edi,0x6b0
  4016de:	push   edi
  4016df:	mov    edx,0x6b0
  4016e4:	push   edx
  4016e5:	mov    eax,0x40000
  4016ea:	push   eax
  4016eb:	push   0x40300c
  4016f0:	pop    edi
  4016f1:	push   DWORD PTR [edi]
  4016f3:	sub    DWORD PTR [esp],0x2
  4016f7:	push   0x403020
  4016fc:	pop    edi
  4016fd:	pop    DWORD PTR [edi]
  4016ff:	push   0x403020
  401704:	pop    eax
  401705:	call   DWORD PTR cs:[eax]
  401708:	xchg   DWORD PTR [esp],eax
  40170b:	mov    edx,eax
  40170d:	pop    ebx
  40170e:	mov    DWORD PTR [edx+0x3a0],ebx
  401714:	mov    ecx,DWORD PTR [edx+0x3a0]
  40171a:	lea    ebx,[ecx]
  40171c:	sub    ecx,ecx
  40171e:	dec    ecx
  40171f:	and    ecx,0x401ead
  401725:	mov    edi,DWORD PTR [ecx]
  401727:	mov    DWORD PTR [ebx],edi
  401729:	add    ecx,0x3
  40172c:	add    ebx,0x3
  40172f:	mov    edi,0x6a719112
  401734:	xor    esi,esi
  401736:	cmp    esi,0x6b0
  40173c:	je     0x40175a
  40173e:	sub    esi,0xfffffffc
  401741:	mov    eax,edi
  401743:	xor    eax,DWORD PTR [ecx]
  401745:	sub    eax,0x1
  401748:	mov    DWORD PTR [ebx],eax
  40174a:	push   DWORD PTR [ebx]
  40174c:	mov    edi,0xfffffffc
  401751:	sub    ecx,edi
  401753:	sub    ebx,edi
  401755:	pop    edi
  401756:	bswap  edi
  401758:	jmp    0x401736
  40175a:	push   edx
  40175b:	mov    edx,0x0
  401760:	push   edx
  401761:	push   0x403084
  401766:	pop    eax
  401767:	call   DWORD PTR cs:[eax]
  40176a:	pop    edx
  40176b:	sub    esp,0xffffffbc
  40176e:	pop    ebp
  40176f:	ret    
  401770:	add    BYTE PTR [eax],al
  401772:	add    BYTE PTR [eax],al
  401774:	mov    edi,edi
  401776:	push   ebp
  401777:	mov    ebp,esp
  401779:	sub    esp,0x58
  40177c:	push   edx
  40177d:	push   0x0
  40177f:	push   0x403008
  401784:	pop    eax
  401785:	call   DWORD PTR cs:[eax]
  401788:	pop    edx
  401789:	push   edx
  40178a:	push   eax
  40178b:	push   DWORD PTR [edx+0x5e0]
  401791:	push   DWORD PTR [edx+0x3d8]
  401797:	call   0x401300
  40179c:	add    esp,0xc
  40179f:	pop    edx
  4017a0:	push   edx
  4017a1:	mov    ecx,0x0
  4017a6:	push   ecx
  4017a7:	push   0x40302c
  4017ac:	pop    eax
  4017ad:	call   DWORD PTR cs:[eax]
  4017b0:	pop    edx
  4017b1:	sub    esp,0xffffffa8
  4017b4:	mov    ebp,DWORD PTR [esp]
  4017b7:	add    esp,0x4
  4017ba:	ret    
	...
  4017c3:	add    BYTE PTR [ebx-0x1374aa01],cl
  4017c9:	sub    esp,0x40
  4017cc:	push   edx
  4017cd:	push   0x0
  4017cf:	push   0x403064
  4017d4:	pop    eax
  4017d5:	call   DWORD PTR cs:[eax]
  4017d8:	pop    edx
  4017d9:	push   edx
  4017da:	push   eax
  4017db:	push   ebx
  4017dc:	push   eax
  4017dd:	push   esi
  4017de:	call   0x4016d0
  4017e3:	add    esp,0x10
  4017e6:	pop    edx
  4017e7:	push   edx
  4017e8:	mov    ecx,0x0
  4017ed:	push   ecx
  4017ee:	push   0x403018
  4017f3:	pop    eax
  4017f4:	call   DWORD PTR cs:[eax]
  4017f7:	pop    edx
  4017f8:	sub    esp,0xffffffc0
  4017fb:	mov    ebp,DWORD PTR [esp]
  4017fe:	add    esp,0x4
  401801:	ret    
  401802:	add    BYTE PTR [eax],al
  401804:	mov    edi,edi
  401806:	push   ebp
  401807:	mov    ebp,esp
  401809:	sub    esp,0x44
  40180c:	push   edx
  40180d:	mov    ecx,0x0
  401812:	push   ecx
  401813:	push   0x403008
  401818:	pop    eax
  401819:	call   DWORD PTR cs:[eax]
  40181c:	pop    edx
  40181d:	push   edx
  40181e:	push   DWORD PTR [edx+0x58]
  401821:	push   DWORD PTR [edx+0x4]
  401824:	push   ebx
  401825:	call   0x40184c
  40182a:	add    esp,0xc
  40182d:	pop    edx
  40182e:	push   edx
  40182f:	mov    edx,0x0
  401834:	push   edx
  401835:	push   0x403040
  40183a:	pop    eax
  40183b:	call   DWORD PTR cs:[eax]
  40183e:	pop    edx
  40183f:	sub    esp,0xffffffbc
  401842:	mov    ebp,DWORD PTR [esp]
  401845:	add    esp,0x4
  401848:	ret    
  401849:	add    BYTE PTR [eax],al
  40184b:	add    BYTE PTR [ebx-0x1374aa01],cl
  401851:	sub    esp,0x4c
  401854:	push   edx
  401855:	push   edi
  401856:	push   esi
  401857:	push   DWORD PTR [edx+0x214]
  40185d:	call   0x401000
  401862:	add    esp,0xc
  401865:	pop    edx
  401866:	push   edx
  401867:	push   0x0
  401869:	push   0x403030
  40186e:	pop    eax
  40186f:	call   DWORD PTR cs:[eax]
  401872:	pop    edx
  401873:	push   edx
  401874:	mov    edi,0x0
  401879:	push   edi
  40187a:	push   0x40303c
  40187f:	pop    eax
  401880:	call   DWORD PTR cs:[eax]
  401883:	pop    edx
  401884:	sub    esp,0xffffffb4
  401887:	mov    ebp,DWORD PTR [esp]
  40188a:	add    esp,0x4
  40188d:	ret    
	...
  40189e:	add    BYTE PTR [eax],al
  4018a0:	mov    edi,edi
  4018a2:	push   ebp
  4018a3:	mov    ebp,esp
  4018a5:	sub    esp,0x5c
  4018a8:	push   edx
  4018a9:	push   DWORD PTR [edx+0x128]
  4018af:	push   eax
  4018b0:	push   edi
  4018b1:	push   DWORD PTR [edx+0x1d8]
  4018b7:	call   0x401cd8
  4018bc:	add    esp,0x10
  4018bf:	pop    edx
  4018c0:	push   edx
  4018c1:	mov    eax,0x0
  4018c6:	push   eax
  4018c7:	push   0x403048
  4018cc:	pop    eax
  4018cd:	call   DWORD PTR cs:[eax]
  4018d0:	pop    edx
  4018d1:	push   edx
  4018d2:	push   0x0
  4018d4:	push   0x403040
  4018d9:	pop    eax
  4018da:	call   DWORD PTR cs:[eax]
  4018dd:	pop    edx
  4018de:	sub    esp,0xffffffa4
  4018e1:	mov    ebp,DWORD PTR [esp]
  4018e4:	add    esp,0x4
  4018e7:	ret    
  4018e8:	mov    edi,edi
  4018ea:	push   ebp
  4018eb:	mov    ebp,esp
  4018ed:	sub    esp,0x3c
  4018f0:	push   edx
  4018f1:	push   0x0
  4018f3:	push   0x40305c
  4018f8:	pop    eax
  4018f9:	call   DWORD PTR cs:[eax]
  4018fc:	pop    edx
  4018fd:	push   edx
  4018fe:	push   ecx
  4018ff:	push   eax
  401900:	push   eax
  401901:	push   esi
  401902:	call   0x401274
  401907:	add    esp,0x10
  40190a:	pop    edx
  40190b:	push   edx
  40190c:	push   0x0
  40190e:	push   0x40303c
  401913:	pop    eax
  401914:	call   DWORD PTR cs:[eax]
  401917:	pop    edx
  401918:	sub    esp,0xffffffc4
  40191b:	mov    ebp,DWORD PTR [esp]
  40191e:	add    esp,0x4
  401921:	ret    
  401922:	add    BYTE PTR [eax],al
  401924:	mov    edi,edi
  401926:	push   ebp
  401927:	mov    ebp,esp
  401929:	sub    esp,0x20
  40192c:	push   edx
  40192d:	push   DWORD PTR [edx+0x100]
  401933:	push   DWORD PTR [edx+0x208]
  401939:	call   0x4010e4
  40193e:	add    esp,0x8
  401941:	pop    edx
  401942:	push   edx
  401943:	push   0x0
  401945:	push   0x40302c
  40194a:	pop    eax
  40194b:	call   DWORD PTR cs:[eax]
  40194e:	pop    edx
  40194f:	push   edx
  401950:	push   0x403038
  401955:	pop    eax
  401956:	call   DWORD PTR cs:[eax]
  401959:	pop    edx
  40195a:	sub    esp,0xffffffe0
  40195d:	mov    ebp,DWORD PTR [esp]
  401960:	add    esp,0x4
  401963:	ret    
  401964:	mov    edi,edi
  401966:	push   ebp
  401967:	mov    ebp,esp
  401969:	sub    esp,0x60
  40196c:	push   edx
  40196d:	mov    edx,0x0
  401972:	push   edx
  401973:	push   0x403008
  401978:	pop    eax
  401979:	call   DWORD PTR cs:[eax]
  40197c:	pop    edx
  40197d:	push   edx
  40197e:	push   DWORD PTR [edx+0x334]
  401984:	push   esi
  401985:	push   DWORD PTR [edx+0x328]
  40198b:	push   ecx
  40198c:	call   0x401a7c
  401991:	add    esp,0x10
  401994:	pop    edx
  401995:	push   edx
  401996:	mov    ebx,0x0
  40199b:	push   ebx
  40199c:	push   0x403000
  4019a1:	pop    eax
  4019a2:	call   DWORD PTR cs:[eax]
  4019a5:	pop    edx
  4019a6:	sub    esp,0xffffffa0
  4019a9:	mov    ebp,DWORD PTR [esp]
  4019ac:	add    esp,0x4
  4019af:	ret    
  4019b0:	mov    edi,edi
  4019b2:	push   ebp
  4019b3:	mov    ebp,esp
  4019b5:	sub    esp,0x38
  4019b8:	push   edx
  4019b9:	push   edi
  4019ba:	push   edi
  4019bb:	call   0x401390
  4019c0:	add    esp,0x8
  4019c3:	pop    edx
  4019c4:	push   edx
  4019c5:	mov    esi,0x0
  4019ca:	push   esi
  4019cb:	push   0x403010
  4019d0:	pop    eax
  4019d1:	call   DWORD PTR cs:[eax]
  4019d4:	pop    edx
  4019d5:	push   edx
  4019d6:	mov    ebx,0x0
  4019db:	push   ebx
  4019dc:	push   0x40305c
  4019e1:	pop    eax
  4019e2:	call   DWORD PTR cs:[eax]
  4019e5:	pop    edx
  4019e6:	sub    esp,0xffffffc8
  4019e9:	mov    ebp,DWORD PTR [esp]
  4019ec:	add    esp,0x4
  4019ef:	ret    
  4019f0:	mov    edi,edi
  4019f2:	push   ebp
  4019f3:	mov    ebp,esp
  4019f5:	sub    esp,0x58
  4019f8:	push   edx
  4019f9:	push   DWORD PTR [edx+0x8]
  4019fc:	push   DWORD PTR [edx+0x1e8]
  401a02:	call   0x4019b0
  401a07:	add    esp,0x8
  401a0a:	pop    edx
  401a0b:	push   edx
  401a0c:	push   0x40301c
  401a11:	pop    eax
  401a12:	call   DWORD PTR cs:[eax]
  401a15:	pop    edx
  401a16:	push   edx
  401a17:	mov    ebx,0x0
  401a1c:	push   ebx
  401a1d:	push   0x403040
  401a22:	pop    eax
  401a23:	call   DWORD PTR cs:[eax]
  401a26:	pop    edx
  401a27:	sub    esp,0xffffffa8
  401a2a:	mov    ebp,DWORD PTR [esp]
  401a2d:	add    esp,0x4
  401a30:	ret    
  401a31:	add    BYTE PTR [eax],al
  401a33:	add    BYTE PTR [eax],al
  401a35:	add    BYTE PTR [eax],al
  401a37:	add    BYTE PTR [ebx-0x1374aa01],cl
  401a3d:	sub    esp,0x48
  401a40:	push   edx
  401a41:	push   ecx
  401a42:	push   DWORD PTR [edx+0x250]
  401a48:	push   esi
  401a49:	call   0x40163c
  401a4e:	add    esp,0xc
  401a51:	pop    edx
  401a52:	push   edx
  401a53:	push   0x0
  401a55:	push   0x403030
  401a5a:	pop    eax
  401a5b:	call   DWORD PTR cs:[eax]
  401a5e:	pop    edx
  401a5f:	push   edx
  401a60:	mov    ecx,0x0
  401a65:	push   ecx
  401a66:	push   0x403084
  401a6b:	pop    eax
  401a6c:	call   DWORD PTR cs:[eax]
  401a6f:	pop    edx
  401a70:	sub    esp,0xffffffb8
  401a73:	mov    ebp,DWORD PTR [esp]
  401a76:	add    esp,0x4
  401a79:	ret    
  401a7a:	add    BYTE PTR [eax],al
  401a7c:	mov    edi,edi
  401a7e:	push   ebp
  401a7f:	mov    ebp,esp
  401a81:	sub    esp,0x60
  401a84:	push   edx
  401a85:	push   0x403038
  401a8a:	pop    eax
  401a8b:	call   DWORD PTR cs:[eax]
  401a8e:	pop    edx
  401a8f:	push   edx
  401a90:	push   DWORD PTR [edx+0x70]
  401a93:	push   eax
  401a94:	push   esi
  401a95:	call   0x4015a8
  401a9a:	add    esp,0xc
  401a9d:	pop    edx
  401a9e:	push   edx
  401a9f:	mov    esi,0x0
  401aa4:	push   esi
  401aa5:	push   0x403008
  401aaa:	pop    eax
  401aab:	call   DWORD PTR cs:[eax]
  401aae:	pop    edx
  401aaf:	sub    esp,0xffffffa0
  401ab2:	mov    ebp,DWORD PTR [esp]
  401ab5:	add    esp,0x4
  401ab8:	ret    
  401ab9:	add    BYTE PTR [eax],al
  401abb:	add    BYTE PTR [eax],al
  401abd:	add    BYTE PTR [eax],al
  401abf:	add    BYTE PTR [ebx-0x1374aa01],cl
  401ac5:	sub    esp,0x60
  401ac8:	push   edx
  401ac9:	push   ecx
  401aca:	push   DWORD PTR [edx+0x80]
  401ad0:	push   edi
  401ad1:	call   0x4012bc
  401ad6:	add    esp,0xc
  401ad9:	pop    edx
  401ada:	push   edx
  401adb:	push   0x0
  401add:	push   0x403048
  401ae2:	pop    eax
  401ae3:	call   DWORD PTR cs:[eax]
  401ae6:	pop    edx
  401ae7:	push   edx
  401ae8:	push   0x0
  401aea:	push   0x403084
  401aef:	pop    eax
  401af0:	call   DWORD PTR cs:[eax]
  401af3:	pop    edx
  401af4:	sub    esp,0xffffffa0
  401af7:	mov    ebp,DWORD PTR [esp]
  401afa:	add    esp,0x4
  401afd:	ret    
  401afe:	add    BYTE PTR [eax],al
  401b00:	mov    edi,edi
  401b02:	push   ebp
  401b03:	mov    ebp,esp
  401b05:	sub    esp,0x24
  401b08:	push   edx
  401b09:	mov    ebx,0x0
  401b0e:	push   ebx
  401b0f:	push   0x403030
  401b14:	pop    eax
  401b15:	call   DWORD PTR cs:[eax]
  401b18:	pop    edx
  401b19:	push   edx
  401b1a:	push   DWORD PTR [edx+0x5b0]
  401b20:	push   esi
  401b21:	call   0x401bcc
  401b26:	add    esp,0x8
  401b29:	pop    edx
  401b2a:	push   edx
  401b2b:	mov    esi,0x0
  401b30:	push   esi
  401b31:	push   0x403010
  401b36:	pop    eax
  401b37:	call   DWORD PTR cs:[eax]
  401b3a:	pop    edx
  401b3b:	sub    esp,0xffffffdc
  401b3e:	mov    ebp,DWORD PTR [esp]
  401b41:	add    esp,0x4
  401b44:	ret    
  401b45:	add    BYTE PTR [eax],al
  401b47:	add    BYTE PTR [eax],al
  401b49:	add    BYTE PTR [eax],al
  401b4b:	add    BYTE PTR [ebx-0x1374aa01],cl
  401b51:	sub    esp,0x54
  401b54:	push   edx
  401b55:	push   eax
  401b56:	push   ecx
  401b57:	push   DWORD PTR [edx+0x44]
  401b5a:	call   0x401220
  401b5f:	add    esp,0xc
  401b62:	pop    edx
  401b63:	push   edx
  401b64:	push   0x0
  401b66:	push   0x40303c
  401b6b:	pop    eax
  401b6c:	call   DWORD PTR cs:[eax]
  401b6f:	pop    edx
  401b70:	push   edx
  401b71:	mov    ebx,0x0
  401b76:	push   ebx
  401b77:	push   0x403018
  401b7c:	pop    eax
  401b7d:	call   DWORD PTR cs:[eax]
  401b80:	pop    edx
  401b81:	sub    esp,0xffffffac
  401b84:	mov    ebp,DWORD PTR [esp]
  401b87:	add    esp,0x4
  401b8a:	ret    
  401b8b:	add    BYTE PTR [eax],al
  401b8d:	add    BYTE PTR [eax],al
  401b8f:	add    BYTE PTR [ebx-0x1374aa01],cl
  401b95:	sub    esp,0x34
  401b98:	push   edx
  401b99:	push   0x403038
  401b9e:	pop    eax
  401b9f:	call   DWORD PTR cs:[eax]
  401ba2:	pop    edx
  401ba3:	push   edx
  401ba4:	push   DWORD PTR [edx+0x23c]
  401baa:	push   ecx
  401bab:	push   edi
  401bac:	call   0x401a38
  401bb1:	add    esp,0xc
  401bb4:	pop    edx
  401bb5:	push   edx
  401bb6:	push   0x0
  401bb8:	push   0x403040
  401bbd:	pop    eax
  401bbe:	call   DWORD PTR cs:[eax]
  401bc1:	pop    edx
  401bc2:	sub    esp,0xffffffcc
  401bc5:	mov    ebp,DWORD PTR [esp]
  401bc8:	add    esp,0x4
  401bcb:	ret    
  401bcc:	mov    edi,edi
  401bce:	push   ebp
  401bcf:	mov    ebp,esp
  401bd1:	sub    esp,0x24
  401bd4:	push   edx
  401bd5:	push   ebx
  401bd6:	push   eax
  401bd7:	push   esi
  401bd8:	push   DWORD PTR [edx+0x300]
  401bde:	call   0x401924
  401be3:	add    esp,0x10
  401be6:	pop    edx
  401be7:	push   edx
  401be8:	lea    edx,[edx]
  401bea:	push   edx
  401beb:	push   0x403024
  401bf0:	pop    eax
  401bf1:	call   DWORD PTR cs:[eax]
  401bf4:	test   eax,eax
  401bf6:	jne    0x401be8
  401bf8:	pop    edx
  401bf9:	push   edx
  401bfa:	mov    edi,0x0
  401bff:	push   edi
  401c00:	push   0x403030
  401c05:	pop    eax
  401c06:	call   DWORD PTR cs:[eax]
  401c09:	pop    edx
  401c0a:	sub    esp,0xffffffdc
  401c0d:	mov    ebp,DWORD PTR [esp]
  401c10:	add    esp,0x4
  401c13:	ret    
  401c14:	mov    edi,edi
  401c16:	push   ebp
  401c17:	mov    ebp,esp
  401c19:	sub    esp,0x50
  401c1c:	push   edx
  401c1d:	push   0x0
  401c1f:	push   0x403064
  401c24:	pop    eax
  401c25:	call   DWORD PTR cs:[eax]
  401c28:	pop    edx
  401c29:	push   edx
  401c2a:	push   DWORD PTR [edx+0x4c4]
  401c30:	push   ebx
  401c31:	push   DWORD PTR [edx+0x3cc]
  401c37:	push   DWORD PTR [edx+0x30]
  401c3a:	call   0x401680
  401c3f:	add    esp,0x10
  401c42:	pop    edx
  401c43:	push   edx
  401c44:	push   0x0
  401c46:	push   0x403084
  401c4b:	pop    eax
  401c4c:	call   DWORD PTR cs:[eax]
  401c4f:	pop    edx
  401c50:	sub    esp,0xffffffb0
  401c53:	mov    ebp,DWORD PTR [esp]
  401c56:	add    esp,0x4
  401c59:	ret    
  401c5a:	add    BYTE PTR [eax],al
  401c5c:	add    BYTE PTR [eax],al
  401c5e:	add    BYTE PTR [eax],al
  401c60:	mov    edi,edi
  401c62:	push   ebp
  401c63:	mov    ebp,esp
  401c65:	sub    esp,0x38
  401c68:	push   edx
  401c69:	push   ecx
  401c6a:	push   eax
  401c6b:	call   0x401b4c
  401c70:	add    esp,0x8
  401c73:	pop    edx
  401c74:	push   edx
  401c75:	push   0x403038
  401c7a:	pop    eax
  401c7b:	call   DWORD PTR cs:[eax]
  401c7e:	pop    edx
  401c7f:	push   edx
  401c80:	push   0x0
  401c82:	push   0x403064
  401c87:	pop    eax
  401c88:	call   DWORD PTR cs:[eax]
  401c8b:	pop    edx
  401c8c:	sub    esp,0xffffffc8
  401c8f:	mov    ebp,DWORD PTR [esp]
  401c92:	add    esp,0x4
  401c95:	ret    
  401c96:	add    BYTE PTR [eax],al
  401c98:	add    BYTE PTR [eax],al
  401c9a:	add    BYTE PTR [eax],al
  401c9c:	mov    edi,edi
  401c9e:	push   ebp
  401c9f:	mov    ebp,esp
  401ca1:	sub    esp,0x38
  401ca4:	push   edx
  401ca5:	push   0x0
  401ca7:	push   0x403040
  401cac:	pop    eax
  401cad:	call   DWORD PTR cs:[eax]
  401cb0:	pop    edx
  401cb1:	push   edx
  401cb2:	push   edi
  401cb3:	push   eax
  401cb4:	call   0x401804
  401cb9:	add    esp,0x8
  401cbc:	pop    edx
  401cbd:	push   edx
  401cbe:	mov    eax,0x0
  401cc3:	push   eax
  401cc4:	push   0x40305c
  401cc9:	pop    eax
  401cca:	call   DWORD PTR cs:[eax]
  401ccd:	pop    edx
  401cce:	sub    esp,0xffffffc8
  401cd1:	mov    ebp,DWORD PTR [esp]
  401cd4:	add    esp,0x4
  401cd7:	ret    
  401cd8:	mov    edi,edi
  401cda:	push   ebp
  401cdb:	mov    ebp,esp
  401cdd:	sub    esp,0x3c
  401ce0:	push   edx
  401ce1:	push   0x0
  401ce3:	push   0x40303c
  401ce8:	pop    eax
  401ce9:	call   DWORD PTR cs:[eax]
  401cec:	pop    edx
  401ced:	push   edx
  401cee:	push   DWORD PTR [edx+0x2c8]
  401cf4:	push   DWORD PTR [edx+0x5bc]
  401cfa:	call   0x4019f0
  401cff:	add    esp,0x8
  401d02:	pop    edx
  401d03:	push   edx
  401d04:	push   0x0
  401d06:	push   0x403040
  401d0b:	pop    eax
  401d0c:	call   DWORD PTR cs:[eax]
  401d0f:	pop    edx
  401d10:	sub    esp,0xffffffc4
  401d13:	mov    ebp,DWORD PTR [esp]
  401d16:	add    esp,0x4
  401d19:	ret    
	...
  401d2a:	add    BYTE PTR [eax],al
  401d2c:	mov    edi,edi
  401d2e:	push   ebp
  401d2f:	mov    ebp,esp
  401d31:	sub    esp,0x38
  401d34:	push   edx
  401d35:	push   0x0
  401d37:	push   0x403010
  401d3c:	pop    eax
  401d3d:	call   DWORD PTR cs:[eax]
  401d40:	pop    edx
  401d41:	push   edx
  401d42:	push   DWORD PTR [edx+0x45c]
  401d48:	push   DWORD PTR [edx+0x260]
  401d4e:	push   DWORD PTR [edx+0x534]
  401d54:	call   0x4013f0
  401d59:	add    esp,0xc
  401d5c:	pop    edx
  401d5d:	push   edx
  401d5e:	mov    ecx,0x0
  401d63:	push   ecx
  401d64:	push   0x403018
  401d69:	pop    eax
  401d6a:	call   DWORD PTR cs:[eax]
  401d6d:	pop    edx
  401d6e:	sub    esp,0xffffffc8
  401d71:	mov    ebp,DWORD PTR [esp]
  401d74:	add    esp,0x4
  401d77:	ret    
  401d78:	mov    edi,edi
  401d7a:	push   ebp
  401d7b:	mov    ebp,esp
  401d7d:	sub    esp,0x3c
  401d80:	push   edx
  401d81:	push   edi
  401d82:	push   ecx
  401d83:	call   0x401964
  401d88:	add    esp,0x8
  401d8b:	pop    edx
  401d8c:	push   edx
  401d8d:	push   0x0
  401d8f:	push   0x40305c
  401d94:	pop    eax
  401d95:	call   DWORD PTR cs:[eax]
  401d98:	pop    edx
  401d99:	push   edx
  401d9a:	push   0x403038
  401d9f:	pop    eax
  401da0:	call   DWORD PTR cs:[eax]
  401da3:	pop    edx
  401da4:	sub    esp,0xffffffc4
  401da7:	mov    ebp,DWORD PTR [esp]
  401daa:	add    esp,0x4
  401dad:	ret    
	...
  401dbe:	add    BYTE PTR [eax],al
  401dc0:	mov    edi,edi
  401dc2:	push   ebp
  401dc3:	mov    ebp,esp
  401dc5:	sub    esp,0x44
  401dc8:	push   edx
  401dc9:	push   DWORD PTR [edx+0xc0]
  401dcf:	push   DWORD PTR [edx+0x3fc]
  401dd5:	push   eax
  401dd6:	push   DWORD PTR [edx+0x2a8]
  401ddc:	call   0x4011cc
  401de1:	add    esp,0x10
  401de4:	pop    edx
  401de5:	push   edx
  401de6:	push   0x0
  401de8:	push   0x403000
  401ded:	pop    eax
  401dee:	call   DWORD PTR cs:[eax]
  401df1:	pop    edx
  401df2:	push   edx
  401df3:	push   0x40301c
  401df8:	pop    eax
  401df9:	call   DWORD PTR cs:[eax]
  401dfc:	pop    edx
  401dfd:	sub    esp,0xffffffbc
  401e00:	mov    ebp,DWORD PTR [esp]
  401e03:	add    esp,0x4
  401e06:	ret    
  401e07:	add    BYTE PTR [ebx-0x1374aa01],cl
  401e0d:	sub    esp,0x38
  401e10:	push   edx
  401e11:	push   DWORD PTR [edx+0x59c]
  401e17:	push   eax
  401e18:	push   DWORD PTR [edx+0x74]
  401e1b:	call   0x401098
  401e20:	add    esp,0xc
  401e23:	pop    edx
  401e24:	push   edx
  401e25:	push   0x0
  401e27:	push   0x403064
  401e2c:	pop    eax
  401e2d:	call   DWORD PTR cs:[eax]
  401e30:	pop    edx
  401e31:	push   edx
  401e32:	mov    ebx,0x0
  401e37:	push   ebx
  401e38:	push   0x40303c
  401e3d:	pop    eax
  401e3e:	call   DWORD PTR cs:[eax]
  401e41:	pop    edx
  401e42:	sub    esp,0xffffffc8
  401e45:	mov    ebp,DWORD PTR [esp]
  401e48:	add    esp,0x4
  401e4b:	ret    
  401e4c:	mov    edi,edi
  401e4e:	push   ebp
  401e4f:	mov    ebp,esp
  401e51:	sub    esp,0x38
  401e54:	push   edx
  401e55:	push   0x0
  401e57:	push   0x403030
  401e5c:	pop    eax
  401e5d:	call   DWORD PTR cs:[eax]
  401e60:	pop    edx
  401e61:	push   edx
  401e62:	push   DWORD PTR [edx+0x3b8]
  401e68:	push   esi
  401e69:	push   edi
  401e6a:	push   DWORD PTR [edx+0x450]
  401e70:	call   0x401c9c
  401e75:	add    esp,0x10
  401e78:	pop    edx
  401e79:	push   edx
  401e7a:	mov    eax,0x0
  401e7f:	push   eax
  401e80:	push   0x40303c
  401e85:	pop    eax
  401e86:	call   DWORD PTR cs:[eax]
  401e89:	pop    edx
  401e8a:	sub    esp,0xffffffc8
  401e8d:	mov    ebp,DWORD PTR [esp]
  401e90:	add    esp,0x4
  401e93:	ret    
  401e94:	and    al,0x1e
  401e96:	popf   
  401e97:	mov    esi,0x124de526
  401e9c:	xchg   BYTE PTR [ecx+0x8],ah
  401e9f:	dec    edi
  401ea0:	mov    ecx,0x99f7e046
  401ea5:	xchg   esi,eax
  401ea6:	rcl    BYTE PTR ds:0x74824a57,0xe9
  401ead:	bswap  eax
  401eaf:	std    
  401eb0:	out    dx,eax
  401eb1:	sahf   
  401eb2:	mov    ecx,0xc7c70097
  401eb7:	add    DWORD PTR [eax],eax
  401eb9:	mov    edi,0xc6e30001
  401ebf:	jg     0x401f02
  401ec1:	retf   0xa27e
  401ec4:	mov    ebp,0x310580a8
  401ec9:	imul   esi,eax,0xffffffe2
  401ecc:	add    DWORD PTR ds:0x251691a3,ecx
  401ed2:	gs ins BYTE PTR es:[edi],dx
  401ed4:	pop    eax
  401ed5:	push   edi
  401ed6:	inc    eax
  401ed7:	push   ss
  401ed8:	or     DWORD PTR [edx+0x32],eax
  401edb:	imul   ecx,DWORD PTR [ecx],0xffffffff
  401ede:	mov    edx,0xbcd552e7
  401ee3:	ins    BYTE PTR es:[edi],dx
  401ee4:	mov    esi,0x81d8533b
  401ee9:	push   esp
  401eea:	js     0x401ee3
  401eec:	pop    edx
  401eed:	call   0xf444a4e2
  401ef2:	mov    ch,0xa0
  401ef4:	jge    0x401eda
  401ef6:	adc    BYTE PTR [eax],al
  401ef8:	add    DWORD PTR [eax],edx
  401efa:	adc    al,0x1d
  401efc:	sbb    ebp,DWORD PTR [edi+0x468a0000]
  401f02:	(bad)  
  401f03:	adc    BYTE PTR [esi+edx*4],dl
  401f06:	and    eax,0x60f2ae1
  401f0b:	call   0x3110:0x20092406
  401f12:	sbb    edx,DWORD PTR [edi+0x76dd5ba9]
  401f18:	ins    DWORD PTR es:[edi],dx
  401f19:	mov    DWORD PTR [eax+0x13],esp
  401f1c:	xor    eax,0x2102650d
  401f21:	add    BYTE PTR [edx+eax*1],al
  401f24:	and    eax,0x5c1d9a32
  401f29:	jbe    0x401f40
  401f2b:	push   eax
  401f2c:	add    BYTE PTR [edx+0x702b6291],0xc4
  401f33:	xchg   ebx,eax
  401f34:	adc    DWORD PTR [eax],eax
  401f36:	add    al,ah
  401f38:	cmps   DWORD PTR ds:[esi],DWORD PTR es:[edi]
  401f39:	push   0xff6b6a00
  401f3e:	push   ebp
  401f3f:	push   ss
  401f40:	pushf  
  401f41:	lods   eax,DWORD PTR ds:[esi]
  401f42:	cli    
  401f43:	cdq    
  401f44:	cwde   
  401f45:	add    eax,0xb5dedbf8
  401f4a:	aam    0xf9
  401f4c:	stc    
  401f4d:	aam    0xf
  401f4f:	sub    eax,0xcffb9a7
  401f54:	push   esi
  401f55:	ret    
  401f56:	call   0xc428ace8
  401f5b:	stc    
  401f5c:	add    al,BYTE PTR [edi-0x238cdecc]
  401f62:	jl     0x401fbe
  401f64:	add    eax,0x3f6f00fb
  401f69:	call   0x6ab2aa6e
  401f6e:	add    BYTE PTR [edi+0x6b],ch
  401f71:	call   FWORD PTR [edi]
  401f73:	pushf  
  401f74:	cmp    al,0x8a
  401f76:	stos   BYTE PTR es:[edi],al
  401f77:	sub    BYTE PTR [eax+ebx*1+0x3c6b3d97],ah
  401f7e:	adc    eax,0x47cca74
  401f83:	push   ecx
  401f84:	push   es
  401f85:	pop    es
  401f86:	(bad)  [ecx+0x78]
  401f89:	cmps   DWORD PTR ds:[esi],DWORD PTR es:[edi]
  401f8a:	add    BYTE PTR [ecx-0x364fb057],ch
  401f90:	loope  0x401f7a
  401f92:	sbb    dh,bl
  401f94:	int3   
  401f95:	cmp    al,0x8d
  401f97:	pop    es
  401f98:	add    ebp,ebx
  401f9a:	retf   
  401f9b:	push   es
  401f9c:	push   edi
  401f9d:	test   DWORD PTR [esi+0x73],0x22581962
  401fa4:	inc    ecx
  401fa5:	dec    ecx
  401fa6:	mov    dl,0x4e
  401fa8:	ins    DWORD PTR es:[edi],dx
  401fa9:	loope  0x401fc0
  401fab:	sbb    al,0x69
  401fad:	xor    al,0x6a
  401faf:	xor    al,0x0
  401fb1:	jno    0x402013
  401fb3:	push   ebx
  401fb4:	push   ebx
  401fb5:	push   es
  401fb6:	pusha  
  401fb7:	je     0x401fae
  401fb9:	jl     0x401fc0
  401fbb:	stos   DWORD PTR es:[edi],eax
  401fbc:	aas    
  401fbd:	push   esp
  401fbe:	cmp    ebp,DWORD PTR [esi]
  401fc0:	push   ebx
  401fc1:	add    DWORD PTR [eax],ecx
  401fc3:	ds aas 
  401fc5:	push   cs
  401fc6:	add    ch,BYTE PTR [esp+eax*1+0x77e1cddc]
  401fcd:	cmp    al,0x2f
  401fcf:	or     BYTE PTR [esi-0xe],bl
  401fd2:	jmp    DWORD PTR [ebx-0x49a93d2c]
  401fd8:	je     0x401f68
  401fda:	mov    bh,0x93
  401fdc:	xchg   esp,eax
  401fdd:	lods   eax,DWORD PTR cs:[esi]
  401fdf:	xor    esi,DWORD PTR [edi-0x577bc9f]
  401fe5:	sbb    esi,esi
  401fe7:	dec    BYTE PTR [esi-0x29]
  401fea:	test   BYTE PTR [edi+0x72a00e52],bh
  401ff0:	ss dec ebx
  401ff2:	ret    0x8e1c
  401ff5:	xchg   edi,edi
  401ff7:	jnp    0x401fcc
  401ff9:	out    0xc4,eax
  401ffb:	test   DWORD PTR [ecx],eax
  401ffd:	(bad)  
  401ffe:	pop    ebx
  401fff:	arpl   bx,ax
  402001:	in     al,dx
  402002:	arpl   WORD PTR [ebp+0x76],si
  402005:	call   0x14bb642e
  40200a:	push   DWORD PTR [ebp+0x66]
  40200d:	je     0x40207a
  40200f:	jnp    0x402019
  402011:	test   al,dl
  402013:	inc    eax
  402014:	fmul   QWORD PTR [edi+0x50253a9]
  40201a:	test   ecx,ebx
  40201c:	cmp    DWORD PTR [ebp+0x6],edx
  40201f:	push   es
  402020:	push   edi
  402021:	pop    es
  402022:	or     BYTE PTR [ebx],dh
  402024:	ins    DWORD PTR es:[edi],dx
  402025:	int3   
  402026:	add    cl,BYTE PTR [eax+ebx*2]
  402029:	or     BYTE PTR [ebx-0x8],cl
  40202c:	aas    
  40202d:	das    
  40202e:	mov    al,ds:0xc5a758ff
  402033:	jo     0x402080
  402035:	dec    ecx
  402036:	mov    edx,0x29e958bd
  40203b:	mov    DWORD PTR [ecx],0x1e88ae9
  402041:	xor    DWORD PTR [eax+0x186968],0x28760000
  40204b:	push   esi
  40204c:	ficom  DWORD PTR [ebx-0x78e6f002]
  402052:	dec    DWORD PTR [ebx-0x220c9fff]
  402058:	add    al,0xff
  40205a:	add    BYTE PTR fs:[ecx-0x75],bl
  40205e:	inc    eax
  40205f:	cmp    al,0x80
  402061:	add    BYTE PTR [edi+0x34146061],al
  402067:	(bad)
  40206b:	scas   eax,DWORD PTR es:[edi]
  40206c:	jnp    0x402055
  40206e:	and    al,0x88
  402070:	dec    ecx
  402071:	sbb    BYTE PTR [edi-0x3477a706],al
  402077:	shl    al,0xef
  40207a:	mov    bl,BYTE PTR [eax+0x6d]
  40207d:	out    dx,eax
  40207e:	out    dx,eax
  40207f:	cmp    DWORD PTR [esi-0x9],edx
  402082:	inc    esi
  402083:	imul   edi,DWORD PTR [eax+0x44],0xa1190ea1
  40208a:	fs xchg edx,ecx
  40208d:	xor    BYTE PTR [ecx+0x65767178],cl
  402093:	push   esp
  402094:	std    
  402095:	jbe    0x402094
  402097:	or     BYTE PTR [ecx],al
  402099:	pop    edi
  40209a:	jmp    0x7e1c:0x79bdd2b0
  4020a1:	je     0x40203f
  4020a3:	mov    dh,0x3a
  4020a5:	call   0x791a59fa
  4020aa:	pop    eax
  4020ab:	add    al,0x3
  4020ad:	pop    eax
  4020ae:	js     0x4020a4
  4020b0:	mov    eax,DWORD PTR gs:[esi+eiz*1]
  4020b4:	in     al,dx
  4020b5:	add    BYTE PTR [edi+0x424010f],ch
  4020bb:	cmp    BYTE PTR [edx+0x64500424],cl
  4020c1:	(bad)  
  4020c2:	out    0x14,eax
  4020c4:	in     al,dx
  4020c5:	xor    bl,al
  4020c7:	inc    ebp
  4020c8:	dec    ebx
  4020c9:	mov    BYTE PTR [ebp+0xb],al
  4020cc:	xor    DWORD PTR [esi+0x7472b98b],0xf8f70373
  4020d6:	or     bh,dl
  4020d8:	mov    al,BYTE PTR [ecx-0x70916601]
  4020de:	test   al,0x7a
  4020e0:	test   eax,0xb6c37e53
  4020e5:	adc    DWORD PTR [ebx-0x56],0x235457a9
  4020ec:	fisub  DWORD PTR [esi]
  4020ee:	adc    BYTE PTR [esi-0x9],dl
  4020f1:	fwait
  4020f2:	mov    BYTE PTR [esi],ah
  4020f4:	sub    edi,DWORD PTR [esi]
  4020f6:	dec    BYTE PTR [eax]
  4020f8:	xlat   BYTE PTR ds:[ebx]
  4020f9:	or     BYTE PTR [ebx+0x4b],0x91
  4020fd:	fisub  DWORD PTR [edi+0x543f7f]
  402103:	or     DWORD PTR [edi+0x7],edx
  402106:	or     BYTE PTR [edx+ebx*8],bh
  402109:	or     dl,al
  40210b:	aas    
  40210c:	push   ecx
  40210d:	adc    eax,0x657cd8d
  402112:	movs   BYTE PTR es:[edi],BYTE PTR ds:[esi]
  402113:	xchg   ebx,eax
  402114:	pop    ebx
  402115:	cdq    
  402116:	or     al,dl
  402118:	mov    ch,0x9e
  40211a:	add    al,0x57
  40211c:	add    DWORD PTR [ecx+0xd70019b],ebp
  402122:	inc    esp
  402123:	add    eax,DWORD PTR [eax]
  402125:	popa   
  402126:	jb     0x402123
  402128:	(bad)  
  402129:	jg     0x4021a0
  40212b:	std    
  40212c:	mov    dh,BYTE PTR [ebx+ebp*2+0x0]
  402130:	test   eax,0xa9f8f1c
  402135:	hlt    
  402136:	push   esi
  402137:	or     eax,0xb10f0a02
  40213c:	or     DWORD PTR [edi-0x29aaaaff],ebp
  402142:	cmp    DWORD PTR [ebx-0x8],eax
  402145:	dec    ecx
  402146:	loop   0x4020e3
  402148:	mov    ds:0x78605cea,al
  40214d:	sar    ch,1
  40214f:	pop    esp
  402150:	adc    BYTE PTR [eax],ah
  402152:	aaa    
  402153:	ja     0x4021ab
  402155:	cmp    edx,edx
  402157:	mov    esi,0x590f8494
  40215c:	add    al,0xa4
  40215e:	add    BYTE PTR [eax],al
  402160:	add    DWORD PTR [ebx-0x495ed1ee],ecx
  402166:	mov    eax,DWORD PTR [ebp-0x7e7bf08e]
  40216c:	add    BYTE PTR [edi+ecx*1-0x7452080b],0xf8
  402174:	cld    
  402175:	jo     0x402174
  402177:	js     0x4021c7
  402179:	add    BYTE PTR [edx+0x543b0351],ch
  40217f:	lods   al,BYTE PTR ds:[esi]
  402180:	imul   edx,DWORD PTR [edx+ebp*2],0xf8835850
  402187:	add    al,0x55
  402189:	add    BYTE PTR [edi+0x6a14693f],0x50
  402190:	pop    eax
  402191:	adc    DWORD PTR [esp],0x57811425
  402198:	add    BYTE PTR [esi+0x1c],dl
  40219b:	jmp    FWORD PTR [ecx-0x859f100]
  4021a1:	jno    0x402167
  4021a3:	add    al,0xdd
  4021a5:	add    dl,bh
  4021a7:	inc    esp
  4021a8:	ins    DWORD PTR es:[edi],dx
  4021a9:	cmp    ah,cl
  4021ab:	mov    eax,0xe54462f2
  4021b0:	int3   
  4021b1:	lods   eax,DWORD PTR ds:[esi]
  4021b2:	push   esi
  4021b3:	mov    ah,0x7d
  4021b5:	adc    eax,0xff0ea6ff
  4021ba:	and    al,0x1c
  4021bc:	sbb    al,0xe3
  4021be:	out    dx,al
  4021bf:	pop    ecx
  4021c0:	xlat   BYTE PTR ds:[ebx]
  4021c1:	stos   BYTE PTR es:[edi],al
  4021c2:	mov    BYTE PTR [ebx],0x56
  4021c5:	jbe    0x4021db
  4021c7:	jb     0x402197
  4021c9:	cmp    BYTE PTR [edx+0x41],dl
  4021cc:	adc    DWORD PTR [eax],eax
  4021ce:	aas    
  4021cf:	mov    bl,0x6a
  4021d1:	push   ebx
  4021d2:	push   eax
  4021d3:	dec    esi
  4021d5:	cmp    BYTE PTR [eax+edi*8],al
  4021d8:	adc    DWORD PTR [eax],eax
  4021da:	aas    
  4021db:	mov    cl,0x84
  4021dd:	jae    0x4021df
  4021df:	adc    BYTE PTR [ecx],dl
  4021e1:	add    bl,bl
  4021e3:	push   ecx
  4021e4:	pop    eax
  4021e5:	add    BYTE PTR [ebp+0xc],dl
  4021e8:	push   edi
  4021e9:	or     al,0xa7
  4021eb:	push   esp
  4021ec:	ficom  WORD PTR [ecx-0x491c24d4]
  4021f2:	test   eax,0x21cde36e
  4021f7:	pushf  
  4021f8:	jae    0x4021d0
  4021fa:	scas   al,BYTE PTR es:[edi]
  4021fb:	les    ecx,FWORD PTR [edi-0x15]
  4021fe:	mov    edi,0xe89b497e
  402203:	mov    eax,DWORD PTR [ecx]
  402205:	call   0xec3f6905
  40220a:	push   edx
  40220b:	pop    ds
  40220c:	push   ds
  40220d:	mov    ecx,0xff0a17ff
  402212:	(bad)  
  402213:	jmp    FWORD PTR [eax+0x1e1f846]
  402219:	pop    es
  40221a:	push   ecx
  40221b:	adc    dh,0xe8
  40221e:	add    BYTE PTR [edx+ebx*2-0x6124348c],cl
  402225:	cmp    eax,0xe801d08b
  40222a:	into   
  40222b:	inc    esi
  40222c:	inc    edi
  40222e:	fs (bad) 
  402230:	jb     0x402273
  402232:	pop    ss
  402233:	inc    ecx
  402234:	mov    esi,0xf2bfcae8
  402239:	scas   eax,DWORD PTR es:[edi]
  40223a:	ds aaa 
  40223c:	rol    BYTE PTR [eax],0x54
  40223f:	in     al,0x2a
  402241:	add    eax,0x808923c5
  402246:	sar    DWORD PTR [eax-0x79],0x98
  40224a:	cvtdq2ps xmm1,xmm3
  40224d:	dec    esi
  40224e:	sub    al,0xf2
  402250:	dec    eax
  402251:	add    DWORD PTR [eax],ebx
  402253:	mov    al,0xbe
  402255:	stc    
  402256:	int3   
  402257:	inc    eax
  402258:	or     edi,DWORD PTR [ecx-0x8123dc]
  40225e:	(bad)  
  40225f:	(bad)  
  402260:	out    dx,eax
  402261:	dec    eax
  402262:	repz ret 
  402264:	or     DWORD PTR [ebp+0xe],ebx
  402267:	pop    es
  402268:	or     DWORD PTR [ecx-0x9149af],edi
  40226e:	(bad)  
  40226f:	jmp    DWORD PTR [ebp-0x857fe9]
  402275:	jg     0x4022d9
  402277:	sub    eax,0x3c9e9551
  40227c:	xchg   ecx,eax
  40227d:	mov    al,ds:0xc8a739f4
  402282:	rcl    DWORD PTR [ecx+0x1],0x48
  402286:	push   esp
  402287:	mov    DWORD PTR [edx+0x1004876],ecx
  40228d:	dec    eax
  40228e:	jbe    0x402221
  402290:	xchg   edx,eax
  402291:	push   esp
  402292:	dec    eax
  402293:	add    BYTE PTR [ecx],al
  402295:	dec    eax
  402296:	push   esp
  402297:	cdq    
  402298:	call   0x7048:0x1004870
  40229f:	mov    eax,ds:0x4834a2
  4022a4:	add    DWORD PTR [eax+0x34],ecx
  4022a7:	test   eax,0x4870aa
  4022ac:	add    DWORD PTR [eax+0x70],ecx
  4022af:	mov    cl,0xb2
  4022b1:	xor    al,0x48
  4022b3:	add    BYTE PTR [ecx],al
  4022b5:	dec    eax
  4022b6:	xor    al,0xb9
  4022b8:	mov    WORD PTR [ebp-0x255d3cef],?
  4022be:	mov    esp,0x91094dc7
  4022c3:	mov    al,bh
  4022c5:	adc    dh,BYTE PTR [eax+eax*1-0x74]
  4022c9:	jge    0x40231f
  4022cb:	mov    al,BYTE PTR [ebp+0x42207b21]
  4022d1:	(bad)  
  4022d2:	je     0x4022d3
  4022d4:	add    DWORD PTR [ecx+0x3b],esp
  4022d7:	mov    BYTE PTR [eax-0x6b],ah
  4022da:	pop    ebp
  4022db:	mov    edx,DWORD PTR [edx-0x49]
  4022de:	and    BYTE PTR [ebx-0x7724cf40],dh
  4022e4:	add    DWORD PTR [eax],edi
  4022e6:	inc    ebp
  4022e7:	mov    ecx,DWORD PTR ds:0xa9af3b00
  4022ed:	adc    ebx,DWORD PTR [ecx+0x5c]
  4022f0:	fsub   QWORD PTR [ecx-0x34b20e4d]
  4022f6:	clc    
  4022f7:	mov    eax,DWORD PTR [ecx]
  4022f9:	dec    eax
  4022fa:	mov    cl,0xac
  4022fc:	popa   
  4022fd:	test   eax,0x8776f8c3
  402302:	popf   
  402303:	and    BYTE PTR ds:0xc6e90cbd,al
  402309:	sbb    BYTE PTR [eax],al
  40230b:	add    BYTE PTR [ecx],al
  40230d:	mov    ebp,DWORD PTR [eax-0x73]
  402310:	jle    0x40232a
  402312:	mov    eax,DWORD PTR [eax]
  402314:	or     eax,0xa9ae3b00
  402319:	adc    ecx,DWORD PTR [ebp+0x4102b500]
  40231f:	add    eax,0x4004cedc
  402324:	or     al,0x2e
  402326:	stos   DWORD PTR es:[edi],eax
  402327:	sub    bh,BYTE PTR [eax-0x6f0c5a9c]
  40232d:	inc    eax
  40232e:	sub    al,0x79
  402330:	movs   DWORD PTR es:[edi],DWORD PTR ds:[esi]
  402331:	dec    esp
  402332:	shl    DWORD PTR [ebx-0x33],0x83
  402336:	pusha  
  402337:	ret    
  402338:	imul   esp,DWORD PTR [eax+eax*1],0xd2310120
  40233f:	add    ch,BYTE PTR [ebx-0x64]
  402342:	cmp    edi,edi
  402344:	test   eax,0x8dd8e114
  402349:	fsub   st,st(3)
  40234b:	add    BYTE PTR [eax+0x74],ah
  40234e:	pop    ss
  40234f:	jo     0x40238a
  402351:	inc    edi
  402352:	retf   
  402353:	or     BYTE PTR [eax+0x11cc3c0],dh
  402359:	rol    BYTE PTR ds:0x4684b54b,0x54
  402360:	add    BYTE PTR [ecx-0x6a41b3ac],bh
  402366:	mov    dh,BYTE PTR [esi-0x626a754f]
  40236c:	call   0x4d24:0x351db91
  402373:	cmc    
  402374:	push   ecx
  402375:	xchg   ebp,eax
  402376:	popa   
  402377:	ret    
  402378:	mov    ds:0xf25449ea,al
  40237d:	cmps   DWORD PTR ds:[esi],DWORD PTR es:[edi]
  40237e:	sbb    cl,BYTE PTR [edx-0x33861654]
  402384:	and    al,0x0
  402386:	xchg   dh,al
  402388:	std    
  402389:	cmps   BYTE PTR ds:[esi],BYTE PTR es:[edi]
  40238a:	mov    ebx,DWORD PTR [eax+esi*2]
  40238d:	add    DWORD PTR ds:0x6130d425,ebp
  402393:	xchg   BYTE PTR [esp+edx*1+0x50],al
  402397:	add    cl,dh
  402399:	sub    DWORD PTR [esi],esp
  40239b:	jp     0x40235c
  40239d:	push   edx
  40239e:	cmp    al,0x46
  4023a0:	jmp    0x1442490
  4023a5:	pop    edx
  4023a6:	call   0x723c17c3
  4023ab:	enter  0x5ef4,0xa0
  4023af:	jbe    0x40242c
  4023b1:	pop    ebx
  4023b2:	add    BYTE PTR [edi+0x58],ah
  4023b5:	or     BYTE PTR [edi+0x26],bl
  4023b8:	gs add al,bh
  4023bb:	retf   0x88bc
  4023be:	icebp  
  4023bf:	sbb    eax,0xb63e6540
  4023c4:	cdq    
  4023c5:	cwde   
  4023c6:	dec    ebx
  4023c7:	out    0xed,al
  4023c9:	popa   
  4023ca:	dec    edx
  4023cb:	cmp    esp,DWORD PTR [ebp+0x16f8a81]
  4023d1:	push   0x741bab60
  4023d6:	or     BYTE PTR cs:0x12040743,cl
  4023dd:	daa    
  4023de:	xchg   edx,eax
  4023df:	cmp    eax,0x16947a50
  4023e4:	jl     0x40237a
  4023e6:	jp     0x402439
  4023e8:	push   esp
  4023e9:	jp     0x40237f
  4023eb:	jl     0x402427
  4023ed:	stos   BYTE PTR es:[edi],al
  4023ee:	test   DWORD PTR [eax+0x2],ebp
  4023f1:	outs   dx,BYTE PTR ds:[esi]
  4023f2:	push   ds
  4023f3:	sub    ecx,DWORD PTR [edi]
  4023f5:	adc    bl,BYTE PTR [ecx]
  4023f7:	sbb    DWORD PTR [ebx],eax
  4023f9:	and    esi,DWORD PTR [esi]
  4023fb:	xchg   edi,eax
  4023fc:	test   eax,0xc9b6d758
  402401:	or     al,bh
  402403:	add    eax,0x66cb9a05
  402408:	bound  edx,QWORD PTR [esi]
  40240a:	xchg   ebp,eax
  40240b:	add    DWORD PTR [eax-0x59],ebx
  40240e:	push   es
  40240f:	push   ebx
  402410:	add    eax,0xbf5a5f3a
  402415:	and    DWORD PTR [edx+0x50],ebp
  402418:	add    DWORD PTR [ebx-0x45933e6],ecx
  40241e:	cdq    
  40241f:	add    BYTE PTR [ecx],al
  402421:	adc    ch,BYTE PTR [ebp-0x5b66a27a]
  402427:	inc    edi
  402428:	retf   
  402429:	bound  ebx,QWORD PTR [eax-0x2c]
  40242c:	repnz push edx
  40242e:	jbe    0x402413
  402430:	ret    
  402431:	call   0x1b4f288
  402436:	cmps   DWORD PTR ds:[esi],DWORD PTR es:[edi]
  402437:	call   FWORD PTR [eax-0x59]
  40243a:	sub    DWORD PTR [edi],eax
  40243c:	leave  
  40243d:	loop   0x4023da
  40243f:	push   esp
  402440:	pop    eax
  402441:	adc    dh,BYTE PTR [esp+eiz*8]
  402444:	ja     0x40249b
  402446:	sar    bh,1
  402448:	pop    esi
  402449:	lea    eax,[ebp-0x12]
  40244c:	hlt    
  40244d:	test   DWORD PTR [ecx-0x2fdf332c],ecx
  402453:	ficomp WORD PTR [eax+edx*1+0x24]
  402457:	inc    esp
  402458:	add    DWORD PTR [eax],eax
  40245a:	add    BYTE PTR [eax+0x69],ch
  40245d:	add    BYTE PTR [eax],al
  40245f:	add    ah,al
  402461:	xor    si,si
  402464:	xchg   ecx,eax
  402465:	mov    DWORD PTR [ebx],ebp
  402467:	cdq    
  402468:	cmp    eax,0xe255dce0
  40246d:	adc    ah,BYTE PTR [ebp+0x640a6ee7]
  402473:	rol    BYTE PTR [ecx],1
  402475:	sti    
  402476:	out    dx,eax
  402477:	arpl   dx,dx
  402479:	adc    ebp,DWORD PTR [edi-0x1]
  40247c:	mov    DWORD PTR [ebp+0x75],esi
  40247f:	sub    BYTE PTR [ebp-0x13],cl
  402482:	dec    ebx
  402483:	and    eax,0x24523716
  402488:	jns    0x402423
  40248a:	jmp    0x402502
  40248c:	loop   0x4024a1
  40248e:	dec    ebp
  40248f:	movs   DWORD PTR es:[edi],DWORD PTR ds:[esi]
  402490:	xchg   ecx,eax
  402491:	sar    DWORD PTR [ecx+edx*4+0x554b0b6d],cl
  402498:	jno    0x402514
  40249a:	sub    esp,ebx
  40249c:	ret    
  40249d:	sub    eax,DWORD PTR [ecx]
  40249f:	mov    dh,0x21
  4024a1:	call   FWORD PTR [ecx-0x6bdbb010]
  4024a7:	mov    BYTE PTR [edi+0x0],ch
  4024aa:	jge    0x402447
  4024ac:	adc    DWORD PTR [eax],eax
  4024ae:	aas    
  4024af:	outs   dx,BYTE PTR ds:[esi]
  4024b0:	imul   ebp,DWORD PTR [eax-0x5a63efab],0x7e
  4024b7:	in     al,dx
  4024b8:	jmp    0x8ccc153d
  4024bd:	cld    
  4024be:	imul   eax,DWORD PTR [eax],0xdcfc6806
  4024c4:	add    edi,edi
  4024c6:	push   ebp
  4024c7:	and    DWORD PTR [ebx+0x55],ecx
  4024ca:	xchg   edi,eax
  4024cb:	rol    DWORD PTR [ecx+0x6e000068],cl
  4024d1:	push   0x0
  4024d3:	push   0x68
  4024d5:	push   0x8001036a
  4024da:	aas    
  4024db:	(bad)  
  4024dc:	test   eax,0xc1c40173
  4024e1:	and    BYTE PTR [edx*2-0x4a66f3c],0x2e
  4024e9:	mov    ds:0x5ec06144,eax
  4024ee:	(bad)  
  4024ef:	aam    0x4a
  4024f1:	jno    0x402525
  4024f3:	into   
  4024f4:	bound  esp,QWORD PTR [ebp+0x76]
  4024f7:	aam    0x1e
  4024f9:	sbb    edx,DWORD PTR [ecx-0x7c]
  4024fc:	sub    ebp,DWORD PTR [ebp+0x52]
  4024ff:	pop    edi
  402500:	lds    edx,FWORD PTR [edx+0x27b3bc5d]
  402506:	dec    esi
  402507:	xchg   DWORD PTR [ecx+0x6e],ecx
  40250a:	mov    eax,0xadfbd425
  40250f:	jns    0x4024c6
  402511:	xchg   ebx,eax
  402512:	adc    DWORD PTR [esi],esi
  402514:	sub    al,0x8f
  402516:	xchg   edx,eax
  402517:	lea    esi,[eax-0x5c713a9c]
  40251d:	cmp    ch,dh
  40251f:	aas    
  402520:	adc    al,0xa6
  402522:	movs   DWORD PTR es:[edi],DWORD PTR ds:[esi]
  402523:	cmps   BYTE PTR ds:[esi],BYTE PTR es:[edi]
  402524:	lea    esp,[edi-0x3ad51cf8]
  40252a:	add    al,0xd7
  40252c:	jnp    0x4024eb
  40252e:	push   ds
  40252f:	clc    
  402530:	xchg   DWORD PTR [ebx+0x12602],edx
  402536:	add    BYTE PTR [edi+0x1],dh
  40253c:	add    DWORD PTR [eax],eax
  40253e:	add    BYTE PTR [eax],al
  402540:	add    DWORD PTR [eax],eax
  402542:	add    BYTE PTR [eax],al
  402544:	add    DWORD PTR [eax],eax
  402546:	add    BYTE PTR [eax],al
  402548:	add    DWORD PTR [eax],eax
  40254a:	add    BYTE PTR [eax],al
  40254c:	add    esp,ecx
  40254e:	push   0x0
  402550:	add    DWORD PTR [edx-0x14],ebp
  402553:	add    eax,0x42004
  402558:	add    DWORD PTR [edi+0x7b27347b],eax
  40255e:	add    DWORD PTR [eax],0x56
  402561:	enter  0x9c90,0x94
  402565:	or     ch,dl
  402567:	out    dx,eax
  402568:	cmp    dl,bh
  40256a:	gs je  0x402552
  40256d:	add    dl,BYTE PTR [edi]
  40256f:	loop   0x402551
  402571:	pushf  
  402572:	inc    esi
  402573:	push   eax
  402574:	(bad)  
  402575:	sahf   
  402576:	ret    0x53a7
  402579:	jmp    0xc70a:0xdac269e3
  402580:	cmp    cl,dl
  402582:	clc    
  402583:	.byte 0x11
