
06aa1d8c44ebc0e78779537b0c99adb56b986cd571d8cee9c093bfeecb5a943f.exe:     file format pei-i386


Disassembly of section .text:

00401000 <.text>:
  401000:	mov    edi,edi
  401002:	push   ebp
  401003:	mov    ebp,esp
  401005:	sub    esp,0x54
  401008:	push   eax
  401009:	mov    eax,ds:0x40402c
  40100e:	call   eax
  401010:	pop    eax
  401011:	push   eax
  401012:	push   edi
  401013:	push   edx
  401014:	push   ebx
  401015:	push   ebx
  401016:	call   0x4027ec
  40101b:	add    esp,0x10
  40101e:	pop    eax
  40101f:	push   eax
  401020:	push   0x0
  401022:	mov    eax,ds:0x404024
  401027:	call   eax
  401029:	pop    eax
  40102a:	sub    esp,0xffffffac
  40102d:	mov    ebp,DWORD PTR [esp]
  401030:	add    esp,0x4
  401033:	ret    
  401034:	mov    edi,edi
  401036:	push   ebp
  401037:	mov    ebp,esp
  401039:	sub    esp,0x2c
  40103c:	push   eax
  40103d:	mov    edx,0x0
  401042:	push   edx
  401043:	mov    eax,ds:0x404018
  401048:	call   eax
  40104a:	pop    eax
  40104b:	push   eax
  40104c:	push   DWORD PTR [eax+0x178]
  401052:	push   ebx
  401053:	call   0x4025b0
  401058:	add    esp,0x8
  40105b:	pop    eax
  40105c:	push   eax
  40105d:	push   0x0
  40105f:	mov    eax,ds:0x404024
  401064:	call   eax
  401066:	pop    eax
  401067:	sub    esp,0xffffffd4
  40106a:	mov    ebp,DWORD PTR [esp]
  40106d:	add    esp,0x4
  401070:	ret    
  401071:	add    BYTE PTR [eax],al
  401073:	add    BYTE PTR [ebx-0x1374aa01],cl
  401079:	sub    esp,0x3c
  40107c:	push   eax
  40107d:	push   edi
  40107e:	push   DWORD PTR [eax+0x290]
  401084:	push   esi
  401085:	call   0x401718
  40108a:	add    esp,0xc
  40108d:	pop    eax
  40108e:	push   eax
  40108f:	mov    edx,0x0
  401094:	push   edx
  401095:	mov    eax,ds:0x404018
  40109a:	call   eax
  40109c:	pop    eax
  40109d:	mov    edx,0x404010
  4010a2:	mov    edx,DWORD PTR [edx]
  4010a4:	push   edx
  4010a5:	push   DWORD PTR [eax-0x60]
  4010a8:	pop    esi
  4010a9:	call   esi
  4010ab:	sub    esp,0xffffffc4
  4010ae:	mov    ebp,DWORD PTR [esp]
  4010b1:	add    esp,0x4
  4010b4:	ret    
  4010b5:	add    BYTE PTR [eax],al
  4010b7:	add    BYTE PTR [ebx-0x1374aa01],cl
  4010bd:	sub    esp,0x38
  4010c0:	push   eax
  4010c1:	push   edx
  4010c2:	push   edi
  4010c3:	push   edi
  4010c4:	call   0x402574
  4010c9:	add    esp,0xc
  4010cc:	pop    eax
  4010cd:	push   eax
  4010ce:	mov    eax,0x0
  4010d3:	push   eax
  4010d4:	mov    eax,ds:0x404034
  4010d9:	call   eax
  4010db:	pop    eax
  4010dc:	push   eax
  4010dd:	push   0x0
  4010df:	mov    eax,ds:0x404034
  4010e4:	call   eax
  4010e6:	pop    eax
  4010e7:	sub    esp,0xffffffc8
  4010ea:	mov    ebp,DWORD PTR [esp]
  4010ed:	add    esp,0x4
  4010f0:	ret    
	...
  401141:	add    BYTE PTR [eax],al
  401143:	add    BYTE PTR [ebx-0x1374aa01],cl
  401149:	sub    esp,0x50
  40114c:	push   eax
  40114d:	push   edi
  40114e:	push   DWORD PTR [eax+0x220]
  401154:	call   0x401210
  401159:	add    esp,0x8
  40115c:	pop    eax
  40115d:	push   eax
  40115e:	mov    eax,0x0
  401163:	push   eax
  401164:	mov    eax,ds:0x404070
  401169:	call   eax
  40116b:	pop    eax
  40116c:	push   eax
  40116d:	mov    eax,ds:0x40402c
  401172:	call   eax
  401174:	pop    eax
  401175:	sub    esp,0xffffffb0
  401178:	mov    ebp,DWORD PTR [esp]
  40117b:	add    esp,0x4
  40117e:	ret    
  40117f:	add    BYTE PTR [ecx-0x3d],ah
  401182:	add    BYTE PTR [eax],al
  401184:	mov    edi,edi
  401186:	push   ebp
  401187:	mov    ebp,esp
  401189:	sub    esp,0x38
  40118c:	push   eax
  40118d:	push   ebx
  40118e:	push   ebx
  40118f:	call   0x4023c8
  401194:	add    esp,0x8
  401197:	pop    eax
  401198:	push   eax
  401199:	mov    edi,0x0
  40119e:	push   edi
  40119f:	mov    eax,ds:0x404070
  4011a4:	call   eax
  4011a6:	pop    eax
  4011a7:	push   eax
  4011a8:	lea    edi,[eax-0x100]
  4011ae:	push   edi
  4011af:	mov    eax,ds:0x404010
  4011b4:	call   eax
  4011b6:	test   eax,eax
  4011b8:	jne    0x4011a8
  4011ba:	pop    eax
  4011bb:	sub    esp,0xffffffc8
  4011be:	mov    ebp,DWORD PTR [esp]
  4011c1:	add    esp,0x4
  4011c4:	ret    
  4011c5:	add    BYTE PTR [eax],al
  4011c7:	add    BYTE PTR [ebx-0x1374aa01],cl
  4011cd:	sub    esp,0x20
  4011d0:	push   eax
  4011d1:	push   DWORD PTR [eax+0x248]
  4011d7:	push   DWORD PTR [eax+0x110]
  4011dd:	call   0x4026c8
  4011e2:	add    esp,0x8
  4011e5:	pop    eax
  4011e6:	push   eax
  4011e7:	mov    eax,0x0
  4011ec:	push   eax
  4011ed:	mov    eax,ds:0x40404c
  4011f2:	call   eax
  4011f4:	pop    eax
  4011f5:	push   eax
  4011f6:	mov    edx,0x0
  4011fb:	push   edx
  4011fc:	mov    eax,ds:0x404030
  401201:	call   eax
  401203:	pop    eax
  401204:	sub    esp,0xffffffe0
  401207:	mov    ebp,DWORD PTR [esp]
  40120a:	add    esp,0x4
  40120d:	ret    
  40120e:	add    BYTE PTR [eax],al
  401210:	mov    edi,edi
  401212:	push   ebp
  401213:	mov    ebp,esp
  401215:	sub    esp,0x3c
  401218:	push   eax
  401219:	lea    edx,[eax-0x100]
  40121f:	push   edx
  401220:	mov    eax,ds:0x404010
  401225:	call   eax
  401227:	test   eax,eax
  401229:	jne    0x401219
  40122b:	pop    eax
  40122c:	push   eax
  40122d:	push   edi
  40122e:	push   ecx
  40122f:	call   0x4011c8
  401234:	add    esp,0x8
  401237:	pop    eax
  401238:	push   eax
  401239:	mov    edi,0x0
  40123e:	push   edi
  40123f:	mov    eax,ds:0x404014
  401244:	call   eax
  401246:	pop    eax
  401247:	sub    esp,0xffffffc4
  40124a:	mov    ebp,DWORD PTR [esp]
  40124d:	add    esp,0x4
  401250:	ret    
	...
  4012a1:	add    BYTE PTR [eax],al
  4012a3:	add    BYTE PTR [ebx-0x1374aa01],cl
  4012a9:	sub    esp,0x58
  4012ac:	push   eax
  4012ad:	mov    ecx,0x0
  4012b2:	push   ecx
  4012b3:	mov    eax,ds:0x404078
  4012b8:	call   eax
  4012ba:	pop    eax
  4012bb:	push   eax
  4012bc:	push   ebx
  4012bd:	push   esi
  4012be:	push   DWORD PTR [eax+0x18]
  4012c1:	push   DWORD PTR [eax+0x320]
  4012c7:	call   0x4014d8
  4012cc:	add    esp,0x10
  4012cf:	pop    eax
  4012d0:	push   eax
  4012d1:	mov    ecx,0x0
  4012d6:	push   ecx
  4012d7:	mov    eax,ds:0x40404c
  4012dc:	call   eax
  4012de:	pop    eax
  4012df:	sub    esp,0xffffffa8
  4012e2:	mov    ebp,DWORD PTR [esp]
  4012e5:	add    esp,0x4
  4012e8:	ret    
  4012e9:	add    BYTE PTR [eax],al
  4012eb:	add    BYTE PTR [ebx-0x1374aa01],cl
  4012f1:	sub    esp,0x3c
  4012f4:	push   eax
  4012f5:	push   0x6b4
  4012fa:	mov    esi,0x6b4
  4012ff:	push   esi
  401300:	mov    ecx,0x40001
  401305:	push   ecx
  401306:	push   0x0
  401308:	xor    DWORD PTR [esp],0x89e6ba61
  40130f:	pop    edx
  401310:	sub    edx,0x89a67a45
  401316:	push   DWORD PTR [edx]
  401318:	sub    DWORD PTR [esp],0x2
  40131c:	mov    edx,0x404038
  401321:	pop    DWORD PTR [edx]
  401323:	mov    eax,ds:0x404038
  401328:	call   eax
  40132a:	xchg   DWORD PTR [esp],eax
  40132d:	pop    DWORD PTR [eax-0x60]
  401330:	mov    ecx,DWORD PTR [eax-0x60]
  401333:	mov    edx,ecx
  401335:	sub    esi,esi
  401337:	dec    esi
  401338:	and    esi,0x4029b6
  40133e:	mov    edi,0x7a89d45a
  401343:	push   0x6b4
  401348:	pop    ecx
  401349:	mov    ebx,edi
  40134b:	xor    ebx,DWORD PTR [esi]
  40134d:	push   ebx
  40134e:	sub    ebx,ebx
  401350:	sub    DWORD PTR [esp],0x1
  401354:	pop    DWORD PTR [edx+ebx*2]
  401357:	push   0x1
  401359:	sub    DWORD PTR [esp],edi
  40135c:	mov    edi,0xfffffffc
  401361:	sub    esi,edi
  401363:	sub    edx,edi
  401365:	pop    edi
  401366:	sub    ecx,0x4
  401369:	test   ecx,ecx
  40136b:	jne    0x401349
  40136d:	push   eax
  40136e:	push   0x0
  401370:	mov    eax,ds:0x40404c
  401375:	call   eax
  401377:	pop    eax
  401378:	sub    esp,0xffffffc4
  40137b:	pop    ebp
  40137c:	ret    
  40137d:	add    BYTE PTR [eax],al
  40137f:	add    BYTE PTR [ebx-0x1374aa01],cl
  401385:	sub    esp,0x50
  401388:	push   eax
  401389:	mov    eax,ds:0x404008
  40138e:	call   eax
  401390:	pop    eax
  401391:	push   eax
  401392:	push   esi
  401393:	push   edx
  401394:	push   DWORD PTR [eax+0x38]
  401397:	call   0x401000
  40139c:	add    esp,0xc
  40139f:	pop    eax
  4013a0:	push   eax
  4013a1:	mov    ecx,0x0
  4013a6:	push   ecx
  4013a7:	mov    eax,ds:0x404084
  4013ac:	call   eax
  4013ae:	pop    eax
  4013af:	sub    esp,0xffffffb0
  4013b2:	mov    ebp,DWORD PTR [esp]
  4013b5:	add    esp,0x4
  4013b8:	ret    
	...
  401459:	add    BYTE PTR [eax],al
  40145b:	add    BYTE PTR [ebx-0x1374aa01],cl
  401461:	sub    esp,0x28
  401464:	push   eax
  401465:	mov    edi,0x0
  40146a:	push   edi
  40146b:	mov    eax,ds:0x404024
  401470:	call   eax
  401472:	pop    eax
  401473:	push   eax
  401474:	push   DWORD PTR [eax+0x84]
  40147a:	push   esi
  40147b:	push   DWORD PTR [eax+0x3c]
  40147e:	call   0x401a38
  401483:	add    esp,0xc
  401486:	pop    eax
  401487:	push   eax
  401488:	push   0x0
  40148a:	mov    eax,ds:0x404034
  40148f:	call   eax
  401491:	pop    eax
  401492:	sub    esp,0xffffffd8
  401495:	mov    ebp,DWORD PTR [esp]
  401498:	add    esp,0x4
  40149b:	ret    
  40149c:	mov    edi,edi
  40149e:	push   ebp
  40149f:	mov    ebp,esp
  4014a1:	sub    esp,0x5c
  4014a4:	push   eax
  4014a5:	push   0x0
  4014a7:	mov    eax,ds:0x404024
  4014ac:	call   eax
  4014ae:	pop    eax
  4014af:	push   eax
  4014b0:	push   ebx
  4014b1:	push   DWORD PTR [eax+0x244]
  4014b7:	push   ebx
  4014b8:	push   esi
  4014b9:	call   0x401184
  4014be:	add    esp,0x10
  4014c1:	pop    eax
  4014c2:	push   eax
  4014c3:	mov    eax,ds:0x404008
  4014c8:	call   eax
  4014ca:	pop    eax
  4014cb:	sub    esp,0xffffffa4
  4014ce:	mov    ebp,DWORD PTR [esp]
  4014d1:	add    esp,0x4
  4014d4:	ret    
  4014d5:	add    BYTE PTR [eax],al
  4014d7:	add    BYTE PTR [ebx-0x1374aa01],cl
  4014dd:	sub    esp,0x48
  4014e0:	push   eax
  4014e1:	push   esi
  4014e2:	push   esi
  4014e3:	call   0x401598
  4014e8:	add    esp,0x8
  4014eb:	pop    eax
  4014ec:	push   eax
  4014ed:	push   0x0
  4014ef:	mov    eax,ds:0x40400c
  4014f4:	call   eax
  4014f6:	pop    eax
  4014f7:	push   eax
  4014f8:	push   0x0
  4014fa:	mov    eax,ds:0x404084
  4014ff:	call   eax
  401501:	pop    eax
  401502:	sub    esp,0xffffffb8
  401505:	mov    ebp,DWORD PTR [esp]
  401508:	add    esp,0x4
  40150b:	ret    
  40150c:	mov    edi,edi
  40150e:	push   ebp
  40150f:	mov    ebp,esp
  401511:	sub    esp,0x48
  401514:	push   eax
  401515:	push   DWORD PTR [eax+0xb4]
  40151b:	push   ecx
  40151c:	push   ebx
  40151d:	call   0x40294c
  401522:	add    esp,0xc
  401525:	pop    eax
  401526:	push   eax
  401527:	push   0x0
  401529:	mov    eax,ds:0x404024
  40152e:	call   eax
  401530:	pop    eax
  401531:	push   eax
  401532:	push   0x0
  401534:	mov    eax,ds:0x40400c
  401539:	call   eax
  40153b:	pop    eax
  40153c:	sub    esp,0xffffffb8
  40153f:	mov    ebp,DWORD PTR [esp]
  401542:	add    esp,0x4
  401545:	ret    
	...
  401596:	add    BYTE PTR [eax],al
  401598:	mov    edi,edi
  40159a:	push   ebp
  40159b:	mov    ebp,esp
  40159d:	sub    esp,0x40
  4015a0:	push   eax
  4015a1:	mov    edx,0x0
  4015a6:	push   edx
  4015a7:	mov    eax,ds:0x404024
  4015ac:	call   eax
  4015ae:	pop    eax
  4015af:	push   eax
  4015b0:	push   DWORD PTR [eax+0x360]
  4015b6:	push   DWORD PTR [eax+0x2c8]
  4015bc:	push   DWORD PTR [eax+0x25c]
  4015c2:	push   DWORD PTR [eax+0x78]
  4015c5:	call   0x40149c
  4015ca:	add    esp,0x10
  4015cd:	pop    eax
  4015ce:	push   eax
  4015cf:	mov    ebx,0x0
  4015d4:	push   ebx
  4015d5:	mov    eax,ds:0x404014
  4015da:	call   eax
  4015dc:	pop    eax
  4015dd:	sub    esp,0xffffffc0
  4015e0:	mov    ebp,DWORD PTR [esp]
  4015e3:	add    esp,0x4
  4015e6:	ret    
	...
  401687:	add    BYTE PTR [ebx-0x1374aa01],cl
  40168d:	sub    esp,0x3c
  401690:	push   eax
  401691:	push   ecx
  401692:	push   edi
  401693:	push   DWORD PTR [eax+0x1bc]
  401699:	push   DWORD PTR [eax+0x258]
  40169f:	call   0x401be0
  4016a4:	add    esp,0x10
  4016a7:	pop    eax
  4016a8:	push   eax
  4016a9:	push   0x0
  4016ab:	mov    eax,ds:0x404034
  4016b0:	call   eax
  4016b2:	pop    eax
  4016b3:	push   eax
  4016b4:	mov    eax,ds:0x404008
  4016b9:	call   eax
  4016bb:	pop    eax
  4016bc:	sub    esp,0xffffffc4
  4016bf:	mov    ebp,DWORD PTR [esp]
  4016c2:	add    esp,0x4
  4016c5:	ret    
	...
  401716:	add    BYTE PTR [eax],al
  401718:	mov    edi,edi
  40171a:	push   ebp
  40171b:	mov    ebp,esp
  40171d:	sub    esp,0x50
  401720:	push   eax
  401721:	mov    ecx,0x0
  401726:	push   ecx
  401727:	mov    eax,ds:0x404070
  40172c:	call   eax
  40172e:	pop    eax
  40172f:	push   eax
  401730:	push   edi
  401731:	push   esi
  401732:	call   0x401f60
  401737:	add    esp,0x8
  40173a:	pop    eax
  40173b:	push   eax
  40173c:	mov    edi,0x0
  401741:	push   edi
  401742:	mov    eax,ds:0x40400c
  401747:	call   eax
  401749:	pop    eax
  40174a:	sub    esp,0xffffffb0
  40174d:	mov    ebp,DWORD PTR [esp]
  401750:	add    esp,0x4
  401753:	ret    
  401754:	mov    edi,edi
  401756:	push   ebp
  401757:	mov    ebp,esp
  401759:	sub    esp,0x40
  40175c:	push   eax
  40175d:	push   DWORD PTR [eax+0x2a8]
  401763:	push   DWORD PTR [eax+0x60]
  401766:	push   DWORD PTR [eax+0x54]
  401769:	call   0x4025f4
  40176e:	add    esp,0xc
  401771:	pop    eax
  401772:	push   eax
  401773:	push   0x0
  401775:	mov    eax,ds:0x404024
  40177a:	call   eax
  40177c:	pop    eax
  40177d:	push   eax
  40177e:	mov    ebx,0x0
  401783:	push   ebx
  401784:	mov    eax,ds:0x404084
  401789:	call   eax
  40178b:	pop    eax
  40178c:	sub    esp,0xffffffc0
  40178f:	mov    ebp,DWORD PTR [esp]
  401792:	add    esp,0x4
  401795:	ret    
  401796:	add    BYTE PTR [eax],al
  401798:	mov    edi,edi
  40179a:	push   ebp
  40179b:	mov    ebp,esp
  40179d:	sub    esp,0x40
  4017a0:	push   eax
  4017a1:	push   0x0
  4017a3:	mov    eax,ds:0x40400c
  4017a8:	call   eax
  4017aa:	pop    eax
  4017ab:	push   eax
  4017ac:	push   DWORD PTR [eax+0x50]
  4017af:	push   DWORD PTR [eax+0x394]
  4017b5:	push   edi
  4017b6:	call   0x401e8c
  4017bb:	add    esp,0xc
  4017be:	pop    eax
  4017bf:	push   eax
  4017c0:	push   0x0
  4017c2:	mov    eax,ds:0x40404c
  4017c7:	call   eax
  4017c9:	pop    eax
  4017ca:	sub    esp,0xffffffc0
  4017cd:	mov    ebp,DWORD PTR [esp]
  4017d0:	add    esp,0x4
  4017d3:	ret    
  4017d4:	mov    edi,edi
  4017d6:	push   ebp
  4017d7:	mov    ebp,esp
  4017d9:	sub    esp,0x58
  4017dc:	push   eax
  4017dd:	mov    ebx,0x0
  4017e2:	push   ebx
  4017e3:	mov    eax,ds:0x404084
  4017e8:	call   eax
  4017ea:	pop    eax
  4017eb:	push   eax
  4017ec:	push   DWORD PTR [eax+0x2e4]
  4017f2:	push   ebx
  4017f3:	call   0x401ac4
  4017f8:	add    esp,0x8
  4017fb:	pop    eax
  4017fc:	push   eax
  4017fd:	push   0x0
  4017ff:	mov    eax,ds:0x404030
  401804:	call   eax
  401806:	pop    eax
  401807:	sub    esp,0xffffffa8
  40180a:	mov    ebp,DWORD PTR [esp]
  40180d:	add    esp,0x4
  401810:	ret    
  401811:	add    BYTE PTR [eax],al
  401813:	add    BYTE PTR [eax+0x33],ah
  401816:	rcl    BYTE PTR [edx-0x1],cl
  401819:	adc    eax,0x404070
  40181e:	mov    eax,0x40409c
  401823:	sub    eax,0x1
  401826:	push   0x0
  401828:	call   DWORD PTR [eax+0x1]
  40182b:	xor    edx,edx
  40182d:	add    edx,0x45e200
  401833:	dec    dh
  401835:	push   edx
  401836:	lea    eax,[edx+0x10]
  401839:	add    BYTE PTR [eax],0x4
  40183c:	push   edx
  40183d:	call   DWORD PTR ds:0x404038
  401843:	mov    ecx,eax
  401845:	mov    cl,0x3c
  401847:	mov    ecx,DWORD PTR [ecx]
  401849:	mov    ecx,DWORD PTR [eax+ecx*1+0x1c]
  40184d:	ror    ecx,0xc
  401850:	mov    eax,ecx
  401852:	sub    al,0x10
  401854:	pop    eax
  401855:	jb     0x401180
  40185b:	ja     0x401074
  401861:	ret    
	...
  401902:	add    BYTE PTR [eax],al
  401904:	mov    edi,edi
  401906:	push   ebp
  401907:	mov    ebp,esp
  401909:	sub    esp,0x34
  40190c:	push   eax
  40190d:	push   0x0
  40190f:	mov    eax,ds:0x404034
  401914:	call   eax
  401916:	pop    eax
  401917:	push   eax
  401918:	push   DWORD PTR [eax+0x118]
  40191e:	push   DWORD PTR [eax+0x214]
  401924:	push   DWORD PTR [eax+0x318]
  40192a:	push   edi
  40192b:	call   0x402124
  401930:	add    esp,0x10
  401933:	pop    eax
  401934:	push   eax
  401935:	mov    eax,ds:0x404008
  40193a:	call   eax
  40193c:	pop    eax
  40193d:	sub    esp,0xffffffcc
  401940:	mov    ebp,DWORD PTR [esp]
  401943:	add    esp,0x4
  401946:	ret    
	...
  401a37:	add    BYTE PTR [ebx-0x1374aa01],cl
  401a3d:	sub    esp,0x48
  401a40:	push   eax
  401a41:	push   DWORD PTR [eax+0x204]
  401a47:	push   esi
  401a48:	push   esi
  401a49:	call   0x4017d4
  401a4e:	add    esp,0xc
  401a51:	pop    eax
  401a52:	push   eax
  401a53:	mov    eax,ds:0x404020
  401a58:	call   eax
  401a5a:	pop    eax
  401a5b:	push   eax
  401a5c:	mov    edx,0x0
  401a61:	push   edx
  401a62:	mov    eax,ds:0x404018
  401a67:	call   eax
  401a69:	pop    eax
  401a6a:	sub    esp,0xffffffb8
  401a6d:	mov    ebp,DWORD PTR [esp]
  401a70:	add    esp,0x4
  401a73:	ret    
	...
  401ac4:	mov    edi,edi
  401ac6:	push   ebp
  401ac7:	mov    ebp,esp
  401ac9:	sub    esp,0x30
  401acc:	push   eax
  401acd:	mov    eax,0x0
  401ad2:	push   eax
  401ad3:	mov    eax,ds:0x40403c
  401ad8:	call   eax
  401ada:	pop    eax
  401adb:	push   eax
  401adc:	push   DWORD PTR [eax+0x130]
  401ae2:	push   DWORD PTR [eax+0x358]
  401ae8:	call   0x402534
  401aed:	add    esp,0x8
  401af0:	pop    eax
  401af1:	push   eax
  401af2:	mov    esi,0x0
  401af7:	push   esi
  401af8:	mov    eax,ds:0x404024
  401afd:	call   eax
  401aff:	pop    eax
  401b00:	sub    esp,0xffffffd0
  401b03:	mov    ebp,DWORD PTR [esp]
  401b06:	add    esp,0x4
  401b09:	ret    
	...
  401b5a:	add    BYTE PTR [eax],al
  401b5c:	mov    edi,edi
  401b5e:	push   ebp
  401b5f:	mov    ebp,esp
  401b61:	sub    esp,0x30
  401b64:	push   eax
  401b65:	mov    eax,0x0
  401b6a:	push   eax
  401b6b:	mov    eax,ds:0x40403c
  401b70:	call   eax
  401b72:	pop    eax
  401b73:	push   eax
  401b74:	push   edi
  401b75:	push   DWORD PTR [eax+0x384]
  401b7b:	push   edx
  401b7c:	push   DWORD PTR [eax+0x330]
  401b82:	call   0x401688
  401b87:	add    esp,0x10
  401b8a:	pop    eax
  401b8b:	push   eax
  401b8c:	push   0x0
  401b8e:	mov    eax,ds:0x40400c
  401b93:	call   eax
  401b95:	pop    eax
  401b96:	sub    esp,0xffffffd0
  401b99:	mov    ebp,DWORD PTR [esp]
  401b9c:	add    esp,0x4
  401b9f:	ret    
  401ba0:	mov    edi,edi
  401ba2:	push   ebp
  401ba3:	mov    ebp,esp
  401ba5:	sub    esp,0x2c
  401ba8:	push   eax
  401ba9:	push   0x0
  401bab:	mov    eax,ds:0x404070
  401bb0:	call   eax
  401bb2:	pop    eax
  401bb3:	push   eax
  401bb4:	push   edx
  401bb5:	push   esi
  401bb6:	push   DWORD PTR [eax+0x58]
  401bb9:	call   0x402820
  401bbe:	add    esp,0xc
  401bc1:	pop    eax
  401bc2:	push   eax
  401bc3:	lea    ebx,[eax-0x100]
  401bc9:	push   ebx
  401bca:	mov    eax,ds:0x404010
  401bcf:	call   eax
  401bd1:	test   eax,eax
  401bd3:	jne    0x401bc3
  401bd5:	pop    eax
  401bd6:	sub    esp,0xffffffd4
  401bd9:	mov    ebp,DWORD PTR [esp]
  401bdc:	add    esp,0x4
  401bdf:	ret    
  401be0:	mov    edi,edi
  401be2:	push   ebp
  401be3:	mov    ebp,esp
  401be5:	sub    esp,0x28
  401be8:	push   eax
  401be9:	push   DWORD PTR [eax+0x280]
  401bef:	push   DWORD PTR [eax+0x314]
  401bf5:	call   0x401144
  401bfa:	add    esp,0x8
  401bfd:	pop    eax
  401bfe:	push   eax
  401bff:	push   0x0
  401c01:	mov    eax,ds:0x40404c
  401c06:	call   eax
  401c08:	pop    eax
  401c09:	push   eax
  401c0a:	mov    esi,0x0
  401c0f:	push   esi
  401c10:	mov    eax,ds:0x404034
  401c15:	call   eax
  401c17:	pop    eax
  401c18:	sub    esp,0xffffffd8
  401c1b:	mov    ebp,DWORD PTR [esp]
  401c1e:	add    esp,0x4
  401c21:	ret    
	...
  401c72:	add    BYTE PTR [eax],al
  401c74:	mov    edi,edi
  401c76:	push   ebp
  401c77:	mov    ebp,esp
  401c79:	sub    esp,0x30
  401c7c:	push   eax
  401c7d:	push   DWORD PTR [eax+0x3b4]
  401c83:	push   ebx
  401c84:	call   0x4010b8
  401c89:	add    esp,0x8
  401c8c:	pop    eax
  401c8d:	push   eax
  401c8e:	push   0x0
  401c90:	mov    eax,ds:0x404018
  401c95:	call   eax
  401c97:	pop    eax
  401c98:	push   eax
  401c99:	push   0x0
  401c9b:	mov    eax,ds:0x40404c
  401ca0:	call   eax
  401ca2:	pop    eax
  401ca3:	sub    esp,0xffffffd0
  401ca6:	mov    ebp,DWORD PTR [esp]
  401ca9:	add    esp,0x4
  401cac:	ret    
	...
  401cfd:	add    BYTE PTR [eax],al
  401cff:	add    BYTE PTR [ebx-0x1374aa01],cl
  401d05:	sub    esp,0x58
  401d08:	push   eax
  401d09:	push   0x0
  401d0b:	mov    eax,ds:0x40404c
  401d10:	call   eax
  401d12:	pop    eax
  401d13:	push   eax
  401d14:	push   DWORD PTR [eax+0x268]
  401d1a:	push   DWORD PTR [eax+0x7c]
  401d1d:	push   DWORD PTR [eax+0x3f4]
  401d23:	call   0x402090
  401d28:	add    esp,0xc
  401d2b:	pop    eax
  401d2c:	push   eax
  401d2d:	lea    ebx,[eax-0x100]
  401d33:	push   ebx
  401d34:	mov    eax,ds:0x404010
  401d39:	call   eax
  401d3b:	test   eax,eax
  401d3d:	jne    0x401d2d
  401d3f:	pop    eax
  401d40:	sub    esp,0xffffffa8
  401d43:	mov    ebp,DWORD PTR [esp]
  401d46:	add    esp,0x4
  401d49:	ret    
	...
  401e8a:	add    BYTE PTR [eax],al
  401e8c:	mov    edi,edi
  401e8e:	push   ebp
  401e8f:	mov    ebp,esp
  401e91:	sub    esp,0x4c
  401e94:	push   eax
  401e95:	push   DWORD PTR [eax+0xd4]
  401e9b:	push   DWORD PTR [eax+0x3a0]
  401ea1:	push   edx
  401ea2:	push   edx
  401ea3:	call   0x4024f8
  401ea8:	add    esp,0x10
  401eab:	pop    eax
  401eac:	push   eax
  401ead:	push   0x0
  401eaf:	mov    eax,ds:0x404014
  401eb4:	call   eax
  401eb6:	pop    eax
  401eb7:	push   eax
  401eb8:	mov    eax,ds:0x404008
  401ebd:	call   eax
  401ebf:	pop    eax
  401ec0:	sub    esp,0xffffffb4
  401ec3:	mov    ebp,DWORD PTR [esp]
  401ec6:	add    esp,0x4
  401ec9:	ret    
	...
  401f1a:	add    BYTE PTR [eax],al
  401f1c:	mov    edi,edi
  401f1e:	push   ebp
  401f1f:	mov    ebp,esp
  401f21:	sub    esp,0x3c
  401f24:	push   eax
  401f25:	push   0x0
  401f27:	mov    eax,ds:0x404014
  401f2c:	call   eax
  401f2e:	pop    eax
  401f2f:	push   eax
  401f30:	push   edi
  401f31:	push   DWORD PTR [eax+0x334]
  401f37:	call   0x401ba0
  401f3c:	add    esp,0x8
  401f3f:	pop    eax
  401f40:	push   eax
  401f41:	lea    edx,[eax-0x100]
  401f47:	push   edx
  401f48:	mov    eax,ds:0x404010
  401f4d:	call   eax
  401f4f:	test   eax,eax
  401f51:	jne    0x401f41
  401f53:	pop    eax
  401f54:	sub    esp,0xffffffc4
  401f57:	mov    ebp,DWORD PTR [esp]
  401f5a:	add    esp,0x4
  401f5d:	ret    
  401f5e:	add    BYTE PTR [eax],al
  401f60:	mov    edi,edi
  401f62:	push   ebp
  401f63:	mov    ebp,esp
  401f65:	sub    esp,0x24
  401f68:	push   eax
  401f69:	push   edx
  401f6a:	push   ecx
  401f6b:	push   ebx
  401f6c:	call   0x401c74
  401f71:	add    esp,0xc
  401f74:	pop    eax
  401f75:	push   eax
  401f76:	mov    edx,0x0
  401f7b:	push   edx
  401f7c:	mov    eax,ds:0x40403c
  401f81:	call   eax
  401f83:	pop    eax
  401f84:	push   eax
  401f85:	mov    edx,0x0
  401f8a:	push   edx
  401f8b:	mov    eax,ds:0x40404c
  401f90:	call   eax
  401f92:	pop    eax
  401f93:	sub    esp,0xffffffdc
  401f96:	mov    ebp,DWORD PTR [esp]
  401f99:	add    esp,0x4
  401f9c:	ret    
	...
  40208d:	add    BYTE PTR [eax],al
  40208f:	add    BYTE PTR [ebx-0x1374aa01],cl
  402095:	sub    esp,0x2c
  402098:	push   eax
  402099:	push   0x0
  40209b:	mov    eax,ds:0x40404c
  4020a0:	call   eax
  4020a2:	pop    eax
  4020a3:	push   eax
  4020a4:	push   esi
  4020a5:	push   DWORD PTR [eax+0xbc]
  4020ab:	push   DWORD PTR [eax+0x1f4]
  4020b1:	push   DWORD PTR [eax+0x3d4]
  4020b7:	call   0x401798
  4020bc:	add    esp,0x10
  4020bf:	pop    eax
  4020c0:	push   eax
  4020c1:	mov    eax,ds:0x40402c
  4020c6:	call   eax
  4020c8:	pop    eax
  4020c9:	sub    esp,0xffffffd4
  4020cc:	mov    ebp,DWORD PTR [esp]
  4020cf:	add    esp,0x4
  4020d2:	ret    
	...
  402123:	add    BYTE PTR [ebx-0x1374aa01],cl
  402129:	sub    esp,0x30
  40212c:	push   eax
  40212d:	push   0x0
  40212f:	mov    eax,ds:0x404070
  402134:	call   eax
  402136:	pop    eax
  402137:	push   eax
  402138:	push   ebx
  402139:	push   DWORD PTR [eax+0x174]
  40213f:	push   ebx
  402140:	call   0x402864
  402145:	add    esp,0xc
  402148:	pop    eax
  402149:	push   eax
  40214a:	mov    eax,ds:0x40402c
  40214f:	call   eax
  402151:	pop    eax
  402152:	sub    esp,0xffffffd0
  402155:	mov    ebp,DWORD PTR [esp]
  402158:	add    esp,0x4
  40215b:	ret    
	...
  4022ec:	mov    edi,edi
  4022ee:	push   ebp
  4022ef:	mov    ebp,esp
  4022f1:	sub    esp,0x24
  4022f4:	push   eax
  4022f5:	mov    eax,ds:0x40402c
  4022fa:	call   eax
  4022fc:	pop    eax
  4022fd:	push   eax
  4022fe:	push   DWORD PTR [eax+0xf8]
  402304:	push   DWORD PTR [eax+0x2e8]
  40230a:	push   edx
  40230b:	push   DWORD PTR [eax+0x364]
  402311:	call   0x401380
  402316:	add    esp,0x10
  402319:	pop    eax
  40231a:	push   eax
  40231b:	lea    esi,[eax-0x100]
  402321:	push   esi
  402322:	mov    eax,ds:0x404010
  402327:	call   eax
  402329:	test   eax,eax
  40232b:	jne    0x40231b
  40232d:	pop    eax
  40232e:	sub    esp,0xffffffdc
  402331:	mov    ebp,DWORD PTR [esp]
  402334:	add    esp,0x4
  402337:	ret    
	...
  402388:	mov    edi,edi
  40238a:	push   ebp
  40238b:	mov    ebp,esp
  40238d:	sub    esp,0x58
  402390:	push   eax
  402391:	push   0x0
  402393:	mov    eax,ds:0x404034
  402398:	call   eax
  40239a:	pop    eax
  40239b:	push   eax
  40239c:	push   DWORD PTR [eax+0x318]
  4023a2:	push   DWORD PTR [eax+0x1e0]
  4023a8:	push   esi
  4023a9:	call   0x4022ec
  4023ae:	add    esp,0xc
  4023b1:	pop    eax
  4023b2:	push   eax
  4023b3:	push   0x0
  4023b5:	mov    eax,ds:0x40400c
  4023ba:	call   eax
  4023bc:	pop    eax
  4023bd:	sub    esp,0xffffffa8
  4023c0:	mov    ebp,DWORD PTR [esp]
  4023c3:	add    esp,0x4
  4023c6:	ret    
  4023c7:	add    BYTE PTR [ebx-0x1374aa01],cl
  4023cd:	sub    esp,0x50
  4023d0:	push   eax
  4023d1:	push   0x0
  4023d3:	mov    eax,ds:0x404034
  4023d8:	call   eax
  4023da:	pop    eax
  4023db:	push   eax
  4023dc:	push   DWORD PTR [eax+0x1e8]
  4023e2:	push   DWORD PTR [eax+0x1b8]
  4023e8:	call   0x4027ac
  4023ed:	add    esp,0x8
  4023f0:	pop    eax
  4023f1:	push   eax
  4023f2:	push   0x0
  4023f4:	mov    eax,ds:0x404014
  4023f9:	call   eax
  4023fb:	pop    eax
  4023fc:	sub    esp,0xffffffb0
  4023ff:	mov    ebp,DWORD PTR [esp]
  402402:	add    esp,0x4
  402405:	ret    
	...
  4024f6:	add    BYTE PTR [eax],al
  4024f8:	mov    edi,edi
  4024fa:	push   ebp
  4024fb:	mov    ebp,esp
  4024fd:	sub    esp,0x38
  402500:	push   eax
  402501:	push   edx
  402502:	push   DWORD PTR [eax+0x114]
  402508:	push   ebx
  402509:	push   edi
  40250a:	call   0x4012a4
  40250f:	add    esp,0x10
  402512:	pop    eax
  402513:	push   eax
  402514:	push   0x0
  402516:	mov    eax,ds:0x40403c
  40251b:	call   eax
  40251d:	pop    eax
  40251e:	push   eax
  40251f:	mov    eax,ds:0x40402c
  402524:	call   eax
  402526:	pop    eax
  402527:	sub    esp,0xffffffc8
  40252a:	mov    ebp,DWORD PTR [esp]
  40252d:	add    esp,0x4
  402530:	ret    
  402531:	add    BYTE PTR [eax],al
  402533:	add    BYTE PTR [ebx-0x1374aa01],cl
  402539:	sub    esp,0x38
  40253c:	push   eax
  40253d:	push   ebx
  40253e:	push   DWORD PTR [eax+0x80]
  402544:	call   0x402388
  402549:	add    esp,0x8
  40254c:	pop    eax
  40254d:	push   eax
  40254e:	push   0x0
  402550:	mov    eax,ds:0x404034
  402555:	call   eax
  402557:	pop    eax
  402558:	push   eax
  402559:	mov    eax,0x0
  40255e:	push   eax
  40255f:	mov    eax,ds:0x40403c
  402564:	call   eax
  402566:	pop    eax
  402567:	sub    esp,0xffffffc8
  40256a:	mov    ebp,DWORD PTR [esp]
  40256d:	add    esp,0x4
  402570:	ret    
  402571:	add    BYTE PTR [eax],al
  402573:	add    BYTE PTR [ebx-0x1374aa01],cl
  402579:	sub    esp,0x34
  40257c:	push   eax
  40257d:	mov    eax,ds:0x40402c
  402582:	call   eax
  402584:	pop    eax
  402585:	push   eax
  402586:	push   esi
  402587:	push   ecx
  402588:	call   0x401f1c
  40258d:	add    esp,0x8
  402590:	pop    eax
  402591:	push   eax
  402592:	lea    edx,[eax-0x100]
  402598:	push   edx
  402599:	mov    eax,ds:0x404010
  40259e:	call   eax
  4025a0:	test   eax,eax
  4025a2:	jne    0x402592
  4025a4:	pop    eax
  4025a5:	sub    esp,0xffffffcc
  4025a8:	mov    ebp,DWORD PTR [esp]
  4025ab:	add    esp,0x4
  4025ae:	ret    
  4025af:	add    BYTE PTR [ebx-0x1374aa01],cl
  4025b5:	sub    esp,0x2c
  4025b8:	push   eax
  4025b9:	push   DWORD PTR [eax+0x1c8]
  4025bf:	push   edx
  4025c0:	push   DWORD PTR [eax+0x25c]
  4025c6:	call   0x40150c
  4025cb:	add    esp,0xc
  4025ce:	pop    eax
  4025cf:	push   eax
  4025d0:	mov    ecx,0x0
  4025d5:	push   ecx
  4025d6:	mov    eax,ds:0x404030
  4025db:	call   eax
  4025dd:	pop    eax
  4025de:	push   eax
  4025df:	mov    eax,ds:0x404008
  4025e4:	call   eax
  4025e6:	pop    eax
  4025e7:	sub    esp,0xffffffd4
  4025ea:	mov    ebp,DWORD PTR [esp]
  4025ed:	add    esp,0x4
  4025f0:	ret    
  4025f1:	add    BYTE PTR [eax],al
  4025f3:	add    BYTE PTR [ebx-0x1374aa01],cl
  4025f9:	sub    esp,0x54
  4025fc:	push   eax
  4025fd:	push   0x0
  4025ff:	mov    eax,ds:0x404070
  402604:	call   eax
  402606:	pop    eax
  402607:	push   eax
  402608:	push   DWORD PTR [eax+0x3e8]
  40260e:	push   ecx
  40260f:	push   ebx
  402610:	call   0x402684
  402615:	add    esp,0xc
  402618:	pop    eax
  402619:	push   eax
  40261a:	mov    ebx,0x0
  40261f:	push   ebx
  402620:	mov    eax,ds:0x404034
  402625:	call   eax
  402627:	pop    eax
  402628:	sub    esp,0xffffffac
  40262b:	mov    ebp,DWORD PTR [esp]
  40262e:	add    esp,0x4
  402631:	ret    
	...
  402682:	add    BYTE PTR [eax],al
  402684:	mov    edi,edi
  402686:	push   ebp
  402687:	mov    ebp,esp
  402689:	sub    esp,0x3c
  40268c:	push   eax
  40268d:	push   DWORD PTR [eax+0x288]
  402693:	push   ebx
  402694:	push   esi
  402695:	call   0x40145c
  40269a:	add    esp,0xc
  40269d:	pop    eax
  40269e:	push   eax
  40269f:	mov    edx,0x0
  4026a4:	push   edx
  4026a5:	mov    eax,ds:0x404018
  4026aa:	call   eax
  4026ac:	pop    eax
  4026ad:	push   eax
  4026ae:	mov    edx,0x0
  4026b3:	push   edx
  4026b4:	mov    eax,ds:0x404024
  4026b9:	call   eax
  4026bb:	pop    eax
  4026bc:	sub    esp,0xffffffc4
  4026bf:	mov    ebp,DWORD PTR [esp]
  4026c2:	add    esp,0x4
  4026c5:	ret    
  4026c6:	add    BYTE PTR [eax],al
  4026c8:	mov    edi,edi
  4026ca:	push   ebp
  4026cb:	mov    ebp,esp
  4026cd:	sub    esp,0x34
  4026d0:	push   eax
  4026d1:	lea    ebx,[eax-0x100]
  4026d7:	push   ebx
  4026d8:	mov    eax,ds:0x404010
  4026dd:	call   eax
  4026df:	test   eax,eax
  4026e1:	jne    0x4026d1
  4026e3:	pop    eax
  4026e4:	push   eax
  4026e5:	push   edx
  4026e6:	push   DWORD PTR [eax+0xb4]
  4026ec:	call   0x4012ec
  4026f1:	add    esp,0x8
  4026f4:	pop    eax
  4026f5:	push   eax
  4026f6:	push   0x0
  4026f8:	mov    eax,ds:0x404070
  4026fd:	call   eax
  4026ff:	pop    eax
  402700:	sub    esp,0xffffffcc
  402703:	mov    ebp,DWORD PTR [esp]
  402706:	add    esp,0x4
  402709:	ret    
	...
  4027aa:	add    BYTE PTR [eax],al
  4027ac:	mov    edi,edi
  4027ae:	push   ebp
  4027af:	mov    ebp,esp
  4027b1:	sub    esp,0x24
  4027b4:	push   eax
  4027b5:	lea    ecx,[eax-0x100]
  4027bb:	push   ecx
  4027bc:	mov    eax,ds:0x404010
  4027c1:	call   eax
  4027c3:	test   eax,eax
  4027c5:	jne    0x4027b5
  4027c7:	pop    eax
  4027c8:	push   eax
  4027c9:	push   ebx
  4027ca:	push   edi
  4027cb:	call   0x401904
  4027d0:	add    esp,0x8
  4027d3:	pop    eax
  4027d4:	push   eax
  4027d5:	push   0x0
  4027d7:	mov    eax,ds:0x40404c
  4027dc:	call   eax
  4027de:	pop    eax
  4027df:	sub    esp,0xffffffdc
  4027e2:	mov    ebp,DWORD PTR [esp]
  4027e5:	add    esp,0x4
  4027e8:	ret    
  4027e9:	add    BYTE PTR [eax],al
  4027eb:	add    BYTE PTR [ebx-0x1374aa01],cl
  4027f1:	sub    esp,0x38
  4027f4:	push   eax
  4027f5:	push   DWORD PTR [eax+0x34]
  4027f8:	push   esi
  4027f9:	call   0x401d00
  4027fe:	add    esp,0x8
  402801:	pop    eax
  402802:	push   eax
  402803:	push   0x0
  402805:	mov    eax,ds:0x40403c
  40280a:	call   eax
  40280c:	pop    eax
  40280d:	push   eax
  40280e:	mov    eax,ds:0x404008
  402813:	call   eax
  402815:	pop    eax
  402816:	sub    esp,0xffffffc8
  402819:	mov    ebp,DWORD PTR [esp]
  40281c:	add    esp,0x4
  40281f:	ret    
  402820:	mov    edi,edi
  402822:	push   ebp
  402823:	mov    ebp,esp
  402825:	sub    esp,0x5c
  402828:	push   eax
  402829:	mov    eax,0x0
  40282e:	push   eax
  40282f:	mov    eax,ds:0x404024
  402834:	call   eax
  402836:	pop    eax
  402837:	push   eax
  402838:	push   ebx
  402839:	push   esi
  40283a:	push   DWORD PTR [eax+0x70]
  40283d:	call   0x401034
  402842:	add    esp,0xc
  402845:	pop    eax
  402846:	push   eax
  402847:	lea    ecx,[eax-0x100]
  40284d:	push   ecx
  40284e:	mov    eax,ds:0x404010
  402853:	call   eax
  402855:	test   eax,eax
  402857:	jne    0x402847
  402859:	pop    eax
  40285a:	sub    esp,0xffffffa4
  40285d:	mov    ebp,DWORD PTR [esp]
  402860:	add    esp,0x4
  402863:	ret    
  402864:	mov    edi,edi
  402866:	push   ebp
  402867:	mov    ebp,esp
  402869:	sub    esp,0x48
  40286c:	push   eax
  40286d:	push   esi
  40286e:	push   DWORD PTR [eax+0x278]
  402874:	push   DWORD PTR [eax+0x33c]
  40287a:	push   DWORD PTR [eax+0x3e0]
  402880:	call   0x401b5c
  402885:	add    esp,0x10
  402888:	pop    eax
  402889:	push   eax
  40288a:	mov    eax,ds:0x404008
  40288f:	call   eax
  402891:	pop    eax
  402892:	push   eax
  402893:	mov    ecx,0x0
  402898:	push   ecx
  402899:	mov    eax,ds:0x404034
  40289e:	call   eax
  4028a0:	pop    eax
  4028a1:	sub    esp,0xffffffb8
  4028a4:	mov    ebp,DWORD PTR [esp]
  4028a7:	add    esp,0x4
  4028aa:	ret    
	...
  40294b:	add    BYTE PTR [ebx-0x1374aa01],cl
  402951:	sub    esp,0x20
  402954:	push   eax
  402955:	mov    eax,ds:0x404008
  40295a:	call   eax
  40295c:	pop    eax
  40295d:	push   eax
  40295e:	push   edi
  40295f:	push   edi
  402960:	call   0x401754
  402965:	add    esp,0x8
  402968:	pop    eax
  402969:	push   eax
  40296a:	mov    edx,0x0
  40296f:	push   edx
  402970:	mov    eax,ds:0x404014
  402975:	call   eax
  402977:	pop    eax
  402978:	sub    esp,0xffffffe0
  40297b:	mov    ebp,DWORD PTR [esp]
  40297e:	add    esp,0x4
  402981:	ret    
  402982:	add    BYTE PTR [eax],al
  402984:	jne    0x402982
  402986:	and    ch,BYTE PTR [eax]
  402988:	je     0x402941
  40298a:	test   DWORD PTR [ecx],0xc0afe75f
  402990:	sbb    DWORD PTR [ebx-0x766c5896],ebx
  402996:	call   0xdb200db8
  40299b:	or     BYTE PTR [eax],dl
  40299d:	or     eax,0x94737bfc
  4029a2:	pop    edi
  4029a3:	adc    DWORD PTR [edx+0x2d],edi
  4029a6:	xchg   ebx,eax
  4029a7:	jbe    0x402a22
  4029a9:	sub    eax,0xa3626b0a
  4029ae:	jb     0x402981
  4029b0:	aas    
  4029b1:	sti    
  4029b2:	pop    edi
  4029b3:	call   0x8c4bdbb9
  4029b8:	fldenv [edx]
  4029ba:	dec    esi
  4029bb:	sub    eax,0xd55b8576
  4029c0:	(bad)  
  4029c1:	and    esi,eax
  4029c3:	cmps   BYTE PTR ds:[esi],BYTE PTR es:[edi]
  4029c4:	xor    ebx,esp
  4029c6:	jbe    0x4029e5
  4029c8:	or     bh,BYTE PTR [ebx+0x67287ea3]
  4029ce:	movs   BYTE PTR es:[edi],BYTE PTR ds:[esi]
  4029cf:	push   edi
  4029d0:	dec    ebp
  4029d1:	mov    cs,WORD PTR [esi+0x26]
  4029d4:	jbe    0x40295b
  4029d6:	pop    ebx
  4029d7:	push   esp
  4029d8:	mov    bl,0x6b
  4029da:	dec    ebp
  4029db:	dec    esi
  4029dc:	sbb    dh,BYTE PTR [esi+0x16edfa69]
  4029e2:	retf   0x2e2b
  4029e5:	aad    0xd8
  4029e7:	aam    0x42
  4029e9:	push   eax
  4029ea:	lds    ebp,FWORD PTR [esi+0xcd65389]
  4029f0:	mov    bh,BYTE PTR [ecx]
  4029f2:	call   0x8d54:0x5bd50eaa
  4029f9:	jp     0x4029cb
  4029fb:	add    BYTE PTR [esi-0x762ba389],bl
  402a01:	daa    
  402a02:	sub    ebx,esi
  402a04:	iret   
  402a05:	xchg   ebp,eax
  402a06:	pop    ebx
  402a07:	aam    0x89
  402a09:	xlat   BYTE PTR ds:[ebx]
  402a0a:	dec    esi
  402a0b:	fnstenv [ebp+eax*4+0x5b]
  402a0f:	pop    ebp
  402a10:	iret   
  402a11:	xchg   BYTE PTR [esi+ebx*8+0x1c],al
  402a15:	out    0x33,al
  402a17:	xchg   ebp,eax
  402a18:	in     eax,0x16
  402a1a:	xlat   BYTE PTR ds:[ebx]
  402a1b:	inc    ebx
  402a1c:	ds loopne 0x402a57
  402a1f:	movs   BYTE PTR es:[edi],BYTE PTR ds:[esi]
  402a20:	(bad)  [ecx]
  402a22:	cmps   DWORD PTR ds:[esi],DWORD PTR es:[edi]
  402a23:	jge    0x402aa3
  402a25:	or     al,0x5d
  402a27:	mov    esi,0x59e01289
  402a2c:	adc    esp,eax
  402a2e:	xor    ebx,DWORD PTR [esp+ebp*8+0x257fd61b]
  402a35:	jp     0x402a43
  402a37:	fadd   QWORD PTR [eax]
  402a39:	cmp    al,0xa2
  402a3b:	test   al,0xb2
  402a3d:	popf   
  402a3e:	xor    DWORD PTR [ecx+eiz*8+0x762bb67a],edx
  402a45:	in     eax,dx
  402a46:	call   edx
  402a48:	mov    DWORD PTR [edx-0x34],edi
  402a4b:	sub    ecx,DWORD PTR [ecx+0x715f4bd0]
  402a51:	jg     0x402a5a
  402a53:	sub    esi,DWORD PTR [esi-0x7b]
  402a56:	or     ebx,DWORD PTR [ecx+0x3c]
  402a59:	stos   BYTE PTR es:[edi],al
  402a5a:	pop    ebp
  402a5b:	aam    0x89
  402a5d:	cmp    al,0xff
  402a5f:	ror    BYTE PTR [ecx-0x4a70ac86],cl
  402a65:	ins    DWORD PTR es:[edi],dx
  402a66:	rcl    cl,1
  402a68:	mov    DWORD PTR [edx-0x7],edi
  402a6b:	jne    0x402a5e
  402a6d:	mov    cl,0x7f
  402a6f:	and    BYTE PTR [ecx-0x7d],0xa2
  402a73:	sub    esi,DWORD PTR [esi+0x6d]
  402a76:	(bad)  
  402a78:	mov    DWORD PTR [edx+0x2b],edi
  402a7b:	rcr    DWORD PTR [eax*4+0xf76d431],cl
  402a82:	ret    0x897c
  402a85:	shl    BYTE PTR [ebx+0x5f],1
  402a88:	les    edx,FWORD PTR [edx]
  402a8a:	int3   
  402a8b:	sub    esp,DWORD PTR [edx]
  402a8d:	fstp   QWORD PTR [edx-0x1f]
  402a90:	lods   eax,DWORD PTR ds:[esi]
  402a91:	sub    dh,ch
  402a93:	jge    0x402ab6
  402a95:	jp     0x402aa3
  402a97:	clc    
  402a98:	shr    DWORD PTR ds:0x6d6e7da7,1
  402a9e:	jo     0x402a77
  402aa0:	mov    DWORD PTR [edx+0x2b],edi
  402aa3:	ins    DWORD PTR es:[edi],dx
  402aa4:	dec    edx
  402aa5:	or     BYTE PTR [edi-0x2e],bl
  402aa8:	out    dx,eax
  402aa9:	(bad)  
  402aaa:	out    0x3d,al
  402aac:	jbe    0x402a53
  402aae:	sub    al,0xc2
  402ab0:	mov    al,0x22
  402ab2:	xchg   edx,eax
  402ab3:	pop    edi
  402ab4:	addr16 push cs
  402ab6:	add    esp,eax
  402ab8:	jecxz  0x402b38
  402aba:	into   
  402abb:	sub    eax,DWORD PTR [esi-0x7b]
  402abe:	pop    ebx
  402abf:	sub    edi,ecx
  402ac1:	sub    dh,bl
  402ac3:	aam    0x23
  402ac5:	xchg   ebp,eax
  402ac6:	(bad)  
  402ac7:	test   eax,0x41f22ae5
  402acc:	jb     0x402aa0
  402ace:	push   cs
  402acf:	sub    ebx,esp
  402ad1:	jbe    0x402ac5
  402ad3:	inc    ecx
  402ad4:	je     0x402aa8
  402ad6:	push   cs
  402ad7:	add    BYTE PTR [edx],0xb5
  402ada:	sub    edx,eax
  402adc:	test   DWORD PTR [ecx],esp
  402ade:	add    eax,0xfe76dc2b
  402ae3:	mov    al,ds:0xe81086b8
  402ae8:	add    al,0x3
  402aea:	mov    esi,0x4aa521a0
  402aef:	arpl   ax,cx
  402af1:	outs   dx,BYTE PTR ds:[esi]
  402af2:	mov    ds:0x103279d3,eax
  402af7:	shr    cl,cl
  402af9:	icebp  
  402afa:	out    dx,eax
  402afb:	aas    
  402afc:	repz inc ebp
  402afe:	das    
  402aff:	xchg   ebp,eax
  402b00:	add    bh,BYTE PTR ds:0xf1b6aeae
  402b06:	popa   
  402b07:	cmp    al,0x18
  402b09:	jle    0x402ab1
  402b0b:	sub    edi,ebp
  402b0d:	dec    ebp
  402b0e:	(bad)  
  402b0f:	xchg   ebx,eax
  402b10:	lods   eax,DWORD PTR ds:[esi]
  402b11:	xchg   edx,eax
  402b12:	shr    DWORD PTR [ecx],1
  402b14:	jbe    0x402a9b
  402b16:	pop    esi
  402b17:	mov    ds:0x3bdf859d,eax
  402b1c:	std    
  402b1d:	cli    
  402b1e:	push   edi
  402b1f:	xlat   BYTE PTR ds:[ebx]
  402b20:	jb     0x402b43
  402b22:	mul    BYTE PTR [eax-0x7af4285e]
  402b28:	fisubr WORD PTR [ebx]
  402b2a:	hlt    
  402b2b:	inc    ecx
  402b2c:	jb     0x402b02
  402b2e:	add    ch,BYTE PTR [ebx]
  402b30:	fdiv   QWORD PTR [esi-0x3]
  402b33:	sbb    BYTE PTR [esi-0x2981512e],dh
  402b39:	icebp  
  402b3a:	imul   ebx,eax,0xffffffd2
  402b3d:	jp     0x402b4b
  402b3f:	fcom   st(1)
  402b41:	sbb    esp,DWORD PTR [ebx]
  402b43:	in     al,dx
  402b44:	pop    esi
  402b45:	addr16 call 0xa6bbad87
  402b4b:	sub    ebx,DWORD PTR [esi-0x762ba4fc]
  402b51:	and    cl,dh
  402b53:	sub    esi,DWORD PTR [esi]
  402b55:	test   DWORD PTR [ebx+0x2b],ebx
  402b58:	cld    
  402b59:	adc    dh,al
  402b5b:	mov    al,ds:0x3cab0e8d
  402b60:	cmp    DWORD PTR [esi-0x5a],0x2b
  402b64:	adc    bh,BYTE PTR [edx+0x6c]
  402b67:	in     al,0x89
  402b69:	jp     0x402b11
  402b6b:	jae    0x402b6a
  402b6d:	lds    edx,FWORD PTR [edi+0x5f]
  402b70:	leave  
  402b71:	jbe    0x402b10
  402b73:	jae    0x402be3
  402b75:	icebp  
  402b76:	pop    edi
  402b77:	pop    edi
  402b78:	mov    DWORD PTR [ecx-0x5e855fa1],edx
  402b7e:	pop    esi
  402b7f:	popf   
  402b80:	mov    ch,0xf1
  402b82:	aad    0x3
  402b84:	jne    0x402bf8
  402b86:	shr    BYTE PTR [ecx+edx*4+0x1037d6f3],1
  402b8d:	jb     0x402ba7
  402b8f:	ret    0x5a89
  402b92:	shl    DWORD PTR [edi],1
  402b94:	adc    ah,BYTE PTR [ebx+eax*2]
  402b97:	aam    0x89
  402b99:	jp     0x402bc6
  402b9b:	imul   eax,DWORD PTR [esi+0xc],0x23
  402b9f:	fdiv   QWORD PTR [esi+0x2f]
  402ba2:	mov    dl,0xc3
  402ba4:	add    BYTE PTR [edi-0x4c2b2ba5],al
  402baa:	(bad)  
  402bab:	mov    ds:0xb547a102,al
  402bb0:	fst    DWORD PTR [edx-0x7a89d067]
  402bb6:	add    edx,DWORD PTR [ebp-0xf]
  402bb9:	and    ah,BYTE PTR [esi+0x2c857629]
  402bbf:	fild   DWORD PTR [edx]
  402bc1:	jle    0x402b45
  402bc3:	in     al,dx
  402bc4:	jb     0x402b67
  402bc6:	pop    ebx
  402bc7:	aam    0x89
  402bc9:	jp     0x402b72
  402bcb:	pop    esi
  402bcc:	push   edx
  402bcd:	or     DWORD PTR [ebx],0xc6b949e7
  402bd3:	mov    al,ds:0xe82d8685
  402bd8:	add    cl,ah
  402bda:	sub    esi,DWORD PTR es:[esi-0x7b]
  402bde:	fsub   QWORD PTR [edx]
  402be0:	std    
  402be1:	or     DWORD PTR [ebx+0x57fbfdd8],esp
  402be7:	push   ecx
  402be8:	jbe    0x402bf8
  402bea:	int3   
  402beb:	sub    BYTE PTR [ebp-0x727da52e],cl
  402bf1:	jmp    DWORD PTR [esi+0x5e]
  402bf4:	jb     0x402bc8
  402bf6:	pop    edx
  402bf7:	or     BYTE PTR [ecx+0xa0f02a],0x95
  402bfe:	pop    esi
  402bff:	daa    
  402c00:	add    al,BYTE PTR [ecx+ecx*1-0x590f4952]
  402c07:	(bad)  
  402c08:	jle    0x402bfb
  402c0a:	push   0xfd52775
  402c0f:	mov    esi,0xd4ff2b8d
  402c14:	and    ecx,DWORD PTR [ecx-0x70a0f3]
  402c1a:	mov    bx,0xee6
  402c1e:	sbb    eax,0xa34e04c4
  402c23:	jl     0x402c00
  402c25:	add    BYTE PTR [ebx-0x592c6d60],bl
  402c2b:	sub    esi,DWORD PTR [esi+0x5]
  402c2e:	sub    al,0xd0
  402c30:	add    al,0x3e
  402c32:	mov    ds:0x5a7a5329,eax
  402c37:	aam    0x9
  402c39:	sub    ah,BYTE PTR [edi+0x5a91525e]
  402c3f:	add    BYTE PTR [ecx+0x29cb4bd1],0xdb
  402c46:	add    ecx,DWORD PTR [ebp+0x7cf52add]
  402c4c:	mov    eax,edx
  402c4e:	push   edi
  402c4f:	mov    WORD PTR [edx],cs
  402c51:	mov    esp,0xe4f9c0b2
  402c56:	sahf   
  402c57:	mov    ah,0x2
  402c59:	test   eax,0xf375d92b
  402c5e:	addr16 (bad) 
  402c60:	fisttp WORD PTR [esi+0x21]
  402c63:	stc    
  402c64:	jns    0x402c67
  402c66:	int3   
  402c67:	aam    0x89
  402c69:	jp     0x402c96
  402c6b:	movs   DWORD PTR es:[edi],DWORD PTR ds:[esi]
  402c6c:	rol    BYTE PTR [ebp-0x33fd2ba5],cl
  402c72:	push   es
  402c73:	sub    esi,DWORD PTR [esi-0x7b]
  402c76:	fsub   QWORD PTR [edx]
  402c78:	xchg   dh,bh
  402c7a:	and    eax,0x5e85762b
  402c7f:	daa    
  402c80:	and    al,0xf1
  402c82:	pop    esi
  402c83:	sub    BYTE PTR [ebp-0x26ef292b],cl
  402c89:	sub    esi,esp
  402c8b:	jnp    0x402ca9
  402c8d:	xor    DWORD PTR [ebx],0xa67a99d4
  402c93:	jl     0x402c8a
  402c95:	ins    DWORD PTR es:[edi],dx
  402c96:	pop    edi
  402c97:	test   bl,ah
  402c99:	jle    0x402c69
  402c9b:	sub    esp,DWORD PTR [esi-0x7b]
  402c9e:	pop    ebx
  402c9f:	or     DWORD PTR [eax],0x7e
  402ca2:	sub    BYTE PTR [ebx],0x66
  402ca5:	test   DWORD PTR [ebx+0x2b],ebx
  402ca8:	fdiv   QWORD PTR [esi-0x59]
  402cab:	jge    0x402d27
  402cad:	fild   WORD PTR [eax]
  402caf:	jns    0x402c53
  402cb1:	mov    dl,0xf5
  402cb3:	mov    al,ds:0x57b054be
  402cb8:	pusha  
  402cb9:	jle    0x402c4e
  402cbb:	jmp    0x402ccd
  402cbd:	sub    BYTE PTR ds:0xd24a897d,bh
  402cc3:	and    edx,DWORD PTR [ebx+0x7a]
  402cc6:	dec    edx
  402cc7:	aam    0x89
  402cc9:	jnp    0x402c7d
  402ccb:	sub    al,0x94
  402ccd:	imul   eax,DWORD PTR [eax],0x59
  402cd0:	int    0x5e
  402cd2:	mov    ds:0x5ad5247a,al
  402cd7:	in     eax,0xe1
  402cd9:	jp     0x402c91
  402cdb:	sub    esi,DWORD PTR [esi-0x2e]
  402cde:	fidivr WORD PTR [ecx*4+0x1e1aa72a]
  402ce5:	test   DWORD PTR [ebx-0x2c],ecx
  402ce8:	mov    DWORD PTR ds:0x85522f25,ebp
  402cee:	dec    ebx
  402cef:	aam    0x89
  402cf1:	test   ecx,esi
  402cf3:	daa    
  402cf4:	mov    eax,edx
  402cf6:	push   edi
  402cf7:	mov    ss,eax
  402cf9:	and    bh,dh
  402cfb:	scas   al,BYTE PTR es:[edi]
  402cfc:	mov    edi,0x4ab5d8f0
  402d01:	sbb    cl,BYTE PTR [ebx+0x2c]
  402d04:	(bad)  [edi-0x5c]
  402d07:	pop    ecx
  402d08:	mov    ebp,0x9ea06379
  402d0d:	push   cs
  402d0e:	scas   al,BYTE PTR es:[edi]
  402d0f:	ins    DWORD PTR es:[edi],dx
  402d10:	cdq    
  402d11:	jp     0x402cb9
  402d13:	sub    ebx,DWORD PTR [esi-0x762ba592]
  402d19:	rol    BYTE PTR [edi-0x4c7a89d5],0x35
  402d20:	jbe    0x402ca7
  402d22:	cmps   DWORD PTR ds:[esi],DWORD PTR es:[edi]
  402d23:	jl     0x402cf4
  402d25:	sbb    BYTE PTR [ebx-0x2c],0x89
  402d29:	xchg   edx,eax
  402d2a:	jo     0x402d00
  402d2c:	mov    DWORD PTR [edx-0x2a],edi
  402d2f:	add    al,0x2
  402d31:	dec    esi
  402d32:	adc    BYTE PTR [edx-0x2ba47a81],0x61
  402d39:	mov    ebp,0x9762ba7
  402d3e:	movs   DWORD PTR es:[edi],DWORD PTR ds:[esi]
  402d3f:	pop    edi
  402d40:	inc    ebx
  402d41:	xchg   edx,eax
  402d42:	sbb    ah,dl
  402d44:	mov    DWORD PTR [edx+0x6e],edi
  402d47:	adc    al,0xd9
  402d49:	mov    ebx,0x81b72c6e
  402d4e:	jg     0x402d29
  402d50:	mov    BYTE PTR [esi-0x7e],bh
  402d53:	xchg   edx,esi
  402d55:	inc    ebp
  402d56:	sub    al,0x25
  402d58:	shl    ecx,1
  402d5a:	pop    edi
  402d5b:	adc    BYTE PTR [ebx-0x361a10f],dh
  402d61:	cmps   DWORD PTR ds:[esi],DWORD PTR es:[edi]
  402d62:	sub    ebx,DWORD PTR [edi]
  402d64:	push   edx
  402d65:	cmp    al,0x51
  402d67:	aam    0x89
  402d69:	jp     0x402db9
  402d6b:	mov    esi,0xc45a7a89
  402d70:	ds jbe 0x402d63
  402d73:	jne    0x402d9c
  402d75:	cmp    al,0x53
  402d77:	aam    0x89
  402d79:	jp     0x402dc9
  402d7b:	scas   al,BYTE PTR es:[edi]
  402d7c:	mov    DWORD PTR [edx+0x5a],edi
  402d7f:	mov    fs,WORD PTR [ecx+0x5]
  402d82:	cmps   DWORD PTR ds:[esi],DWORD PTR es:[edi]
  402d83:	sub    esi,DWORD PTR [esi+0xf]
  402d86:	das    
  402d87:	lock xchg ebp,eax
  402d89:	sbb    esp,DWORD PTR [ebx+0x7a]
  402d8c:	mov    bh,0x6d
  402d8e:	inc    esp
  402d8f:	ins    DWORD PTR es:[edi],dx
  402d90:	test   eax,0x3e2ba67a
  402d95:	icebp  
  402d96:	imul   ebp,DWORD PTR [ebp-0x75],0x7a
  402d9a:	cmps   BYTE PTR ds:[esi],BYTE PTR es:[edi]
  402d9b:	sub    edi,DWORD PTR [esi]
  402d9d:	icebp  
  402d9e:	jae    0x402e0d
  402da0:	test   eax,0x3e2ba67a
  402da5:	icebp  
  402da6:	jnp    0x402e15
  402da8:	lea    edi,[edx-0x5a]
  402dab:	sub    edi,DWORD PTR [esi]
  402dad:	icebp  
  402dae:	inc    ebx
  402daf:	ins    DWORD PTR es:[edi],dx
  402db0:	leave  
  402db1:	jp     0x402d59
  402db3:	sub    edi,DWORD PTR [esi]
  402db5:	icebp  
  402db6:	dec    ebx
  402db7:	ins    DWORD PTR es:[edi],dx
  402db8:	lea    edi,[edx-0x5a]
  402dbb:	sub    edi,DWORD PTR [esi]
  402dbd:	icebp  
  402dbe:	push   ebx
  402dbf:	ins    DWORD PTR es:[edi],dx
  402dc0:	leave  
  402dc1:	jp     0x402d69
  402dc3:	sub    edi,DWORD PTR [esi]
  402dc5:	icebp  
  402dc6:	pop    ebx
  402dc7:	pop    edi
  402dc8:	dec    eax
  402dc9:	and    esp,DWORD PTR [ebx+0x4b]
  402dcc:	std    
  402dcd:	shr    BYTE PTR [ebx],1
  402dcf:	push   ebp
  402dd0:	jnp    0x402dbd
  402dd2:	dec    esp
  402dd3:	outs   dx,BYTE PTR ds:[esi]
  402dd4:	push   cs
  402dd5:	push   cs
  402dd6:	adc    al,0xbc
  402dd8:	add    al,BYTE PTR [ebx+eiz*1+0x2f852e56]
  402ddf:	xlat   BYTE PTR ds:[ebx]
  402de0:	mov    BYTE PTR [edi],cl
  402de2:	(bad)  
  402de3:	mov    al,ds:0x14dce533
  402de8:	std    
  402de9:	outs   dx,DWORD PTR ds:[esi]
  402dea:	sub    eax,0xe1d74a6d
  402def:	ror    BYTE PTR [ecx-0x2c3c5986],1
  402df5:	test   BYTE PTR [ebx-0x2c],bl
  402df8:	sar    DWORD PTR [ecx+0x56],cl
  402dfb:	sub    BYTE PTR [esi-0x3106c52],cl
  402e01:	and    dl,cl
  402e03:	es jne 0x402df6
  402e06:	pop    es
  402e07:	xlat   BYTE PTR ds:[ebx]
  402e08:	hlt    
  402e09:	mov    esp,DWORD PTR es:[esi+0x2a]
  402e0d:	add    BYTE PTR [eax-0x9287d60],dl
  402e13:	add    BYTE PTR [edi+ebx*8+0x796057f6],dh
  402e1a:	inc    esp
  402e1b:	enter  0x4617,0x3b
  402e1f:	push   edi
  402e20:	hlt    
  402e21:	cmps   BYTE PTR ss:[esi],BYTE PTR es:[edi]
  402e23:	pop    edi
  402e24:	fs ins DWORD PTR es:[edi],dx
  402e26:	dec    edx
  402e27:	aam    0x89
  402e29:	jp     0x402e56
  402e2b:	push   esi
  402e2c:	and    al,BYTE PTR [eax]
  402e2e:	pop    edx
  402e2f:	mov    eax,ds:0x884ed18f
  402e34:	jbe    0x402dbb
  402e36:	pop    ebx
  402e37:	mov    ch,0x4a
  402e39:	sbb    ah,BYTE PTR [edi-0x7cf1b583]
  402e3f:	pop    edi
  402e40:	cld    
  402e41:	sub    ebp,DWORD PTR ss:[esi+0x26]
  402e45:	aad    0xb
  402e47:	mov    esp,0x2baa7a89
  402e4c:	and    eax,0xd0940c7a
  402e51:	sub    ch,BYTE PTR [ebx]
  402e53:	rol    DWORD PTR [ebp-0x76134cdf],cl
  402e59:	jp     0x402e01
  402e5b:	arpl   di,di
  402e5d:	sar    DWORD PTR [edi-0xc],0x2
  402e61:	sub    BYTE PTR [ecx],0x27
  402e64:	retf   
  402e65:	sbb    DWORD PTR [ebx-0x2c],0x33051e89
  402e6c:	jbe    0x402df3
  402e6e:	pop    ebx
  402e6f:	pop    edi
  402e70:	stc    
  402e71:	push   esi
  402e72:	cmc    
  402e73:	inc    ebx
  402e74:	jbe    0x402dfb
  402e76:	push   edi
  402e77:	aam    0xda
  402e79:	test   ecx,esi
  402e7b:	imul   edi,ebx,0xffffff89
  402e7e:	jecxz  0x402edb
  402e80:	mov    BYTE PTR [edx],ch
  402e82:	sub    esp,esp
  402e84:	std    
  402e85:	jge    0x402e35
  402e87:	jno    0x402e76
  402e89:	fstp   TBYTE PTR [esi-0x357a89d5]
  402e8f:	xchg   esp,eax
  402e90:	movs   DWORD PTR es:[edi],DWORD PTR ds:[esi]
  402e91:	sbb    esp,DWORD PTR [ebx+0x4b]
  402e94:	imul   DWORD PTR [ecx+0x7b]
  402e97:	(bad)  
  402e98:	mov    DWORD PTR [edx-0x32],edi
  402e9b:	pcmpeqb mm0,QWORD PTR [ebp+0x107fe75b]
  402ea2:	cmps   BYTE PTR ds:[esi],BYTE PTR es:[edi]
  402ea3:	inc    ecx
  402ea4:	jle    0x402f20
  402ea6:	or     al,0xc8
  402ea8:	add    ah,BYTE PTR [edx-0x2f76870e]
  402eae:	outs   dx,DWORD PTR ds:[esi]
  402eaf:	pop    edi
  402eb0:	int    0x5e
  402eb2:	mov    edx,0xd6b93628
  402eb7:	push   esp
  402eb8:	dec    ecx
  402eb9:	jp     0x402e61
  402ebb:	sub    esi,ebx
  402ebd:	inc    ebp
  402ebe:	das    
  402ebf:	aad    0xcf
  402ec1:	cs repz aam 0x23
  402ec5:	mov    ebp,0x9ffc14dc
  402eca:	repz aam 0x23
  402ecd:	popf   
  402ece:	fcom   DWORD PTR [eax]
  402ed0:	lods   eax,DWORD PTR ds:[esi]
  402ed1:	js     0x402e79
  402ed3:	sub    edi,edi
  402ed5:	icebp  
  402ed6:	jg     0x402ea0
  402ed8:	call   0x1a83f596
  402edd:	jmp    0x922033d
  402ee2:	rol    BYTE PTR ds:0xa734ed12,cl
  402ee8:	call   FWORD PTR [ecx]
  402eea:	repnz aam 0x23
  402eed:	sbb    esp,0xf272fc14
  402ef3:	aam    0x23
  402ef5:	test   esp,ebx
  402ef7:	adc    al,0xfd
  402ef9:	aaa    
  402efa:	int3   
  402efb:	sub    ebx,DWORD PTR [esi]
  402efd:	in     al,dx
  402efe:	xor    eax,0xc012efa0
  402f03:	pop    esp
  402f04:	push   es
  402f05:	test   DWORD PTR [edi],0xae2f7684
  402f0b:	test   al,0xb2
  402f0d:	mov    esi,edx
  402f0f:	and    al,0xd9
  402f11:	cs int3 
  402f13:	imul   ebx,DWORD PTR [edx+eax*4],0xd
  402f17:	sub    ebx,esp
  402f19:	jbe    0x402f19
  402f1b:	jnp    0x402f3f
  402f1d:	aad    0x31
  402f1f:	rcr    edi,cl
  402f21:	xchg   edx,eax
  402f22:	sub    BYTE PTR [ebx],0x76
  402f25:	test   esi,edx
  402f27:	call   0x39b02ad9
  402f2c:	jbe    0x402eb3
  402f2e:	pop    ebx
  402f2f:	mov    esi,0x8f53238e
  402f34:	xor    DWORD PTR [esi],ecx
  402f36:	popf   
  402f37:	jg     0x402f3d
  402f39:	add    al,0x5d
  402f3b:	fwait
  402f3c:	push   ds
  402f3d:	das    
  402f3e:	add    edi,DWORD PTR [edi+0x39]
  402f41:	mov    ecx,0x8923d40c
  402f46:	add    edx,DWORD PTR [edi+0x4d]
  402f49:	jbe    0x402f10
  402f4b:	call   0x81cba97e
  402f50:	popa   
  402f51:	in     al,0xa6
  402f53:	sub    esi,DWORD PTR [esi-0x28]
  402f56:	aam    0x91
  402f58:	stc    
  402f59:	stc    
  402f5a:	data16 das 
  402f5c:	inc    ecx
  402f5e:	jg     0x402f24
  402f60:	aam    0x7a
  402f62:	cmps   BYTE PTR ds:[esi],BYTE PTR es:[edi]
  402f63:	sub    esi,DWORD PTR [esi-0x7b]
  402f66:	pop    ebx
  402f67:	aam    0xe1
  402f69:	jp     0x402f11
  402f6b:	sub    esi,DWORD PTR [esi+0x46]
  402f6e:	cmp    eax,0x1c1c7fe7
  402f73:	data16 sub al,0xe3
  402f76:	hlt    
  402f77:	mov    dl,0xba
  402f79:	stos   BYTE PTR es:[edi],al
  402f7a:	shl    BYTE PTR [ebx],cl
  402f7c:	imul   DWORD PTR [ebx+0x59]
  402f7f:	les    ecx,FWORD PTR [ecx-0x439b486]
  402f85:	(bad)  [ebp+0x550f7650]
  402f8b:	mov    al,ds:0x6e3dbf00
  402f90:	fnstcw WORD PTR [edi]
  402f92:	sub    DWORD PTR [edi],ebx
  402f94:	push   0xbab2f4e3
  402f99:	stos   BYTE PTR es:[edi],al
  402f9a:	ror    ebx,1
  402f9c:	mov    ch,0xd4
  402f9e:	outs   dx,BYTE PTR ds:[esi]
  402f9f:	sbb    eax,0x536451c8
  402fa4:	jb     0x402f97
  402fa6:	pop    ecx
  402fa7:	aas    
  402fa8:	jle    0x402ff3
  402faa:	data16 sub BYTE PTR [edi+eiz*2-0xeb57259],dh
  402fb2:	fld    DWORD PTR [ebx+0x1c]
  402fb5:	xor    DWORD PTR [ebx],0xa67a99d4
  402fbb:	jl     0x402fd9
  402fbd:	test   DWORD PTR [edx-0x7e],ebx
  402fc0:	cdq    
  402fc1:	icebp  
  402fc2:	push   esi
  402fc3:	stos   BYTE PTR es:[edi],al
  402fc4:	call   0x5af1:0x89d45881
  402fcb:	inc    ebx
  402fcc:	jb     0x402f52
  402fce:	pop    ebx
  402fcf:	aam    0xde
  402fd1:	sub    DWORD PTR [edi+0x5bef567d],esp
  402fd7:	mov    esp,0x2ba67a09
  402fdc:	sbb    al,0x86
  402fde:	xor    esp,edx
  402fe0:	jecxz  0x40305d
  402fe2:	into   
  402fe3:	sub    esi,DWORD PTR [esi-0x7b]
  402fe6:	fild   DWORD PTR [ebx-0x557dd08a]
  402fec:	mov    dl,0x81
  402fee:	pop    eax
  402fef:	aam    0x89
  402ff1:	mov    ecx,0x55897336
  402ff6:	cmps   BYTE PTR ds:[esi],BYTE PTR es:[edi]
  402ff7:	add    BYTE PTR [ebx],ch
  402ff9:	sbb    ebp,DWORD PTR [edi+edx*1]
  402ffc:	jb     0x402fc6
  402ffe:	adc    al,0x6c
  403000:	es mov dh,0x79
  403003:	adc    bh,ch
  403005:	add    edi,DWORD PTR [ebx+0x58]
  403008:	rcr    DWORD PTR [eax],0x45
  40300b:	pop    ecx
  40300c:	scas   eax,DWORD PTR es:[edi]
  40300d:	sahf   
  40300e:	mov    ebx,0x3b165768
  403013:	test   edx,ebp
  403015:	push   ecx
  403016:	fwait
  403017:	test   eax,0xdb467ee6
  40301d:	xchg   edx,eax
  40301e:	movs   DWORD PTR es:[edi],DWORD PTR ds:[esi]
  40301f:	sbb    eax,0x47e0ff23
  403024:	in     al,dx
  403025:	lods   al,BYTE PTR ds:[esi]
  403026:	push   ebx
  403027:	push   edi
  403028:	sbb    ch,0x1d
  40302b:	int    0x60
  40302d:	test   BYTE PTR [ebx],bl
  40302f:	enter  0xf188,0x1b
  403033:	arpl   WORD PTR [edx+eax*2+0x5cd56bd4],dx
  40303a:	movs   BYTE PTR es:[edi],BYTE PTR ds:[esi]
  40303b:	mov    eax,0xd45b3249
  403040:	mov    DWORD PTR [edx-0x5a],edi
  403043:	sub    esi,DWORD PTR [esi-0x7b]
  403046:	pop    ebx
  403047:	aam    0x89
  403049:	jp     0x402ff1
  40304b:	sub    esi,DWORD PTR [esi-0x7b]
  40304e:	pop    ebx
  40304f:	aam    0x89
  403051:	jp     0x402ff9
  403053:	sub    esi,DWORD PTR [esi-0x7b]
  403056:	pop    ebx
  403057:	aam    0x89
  403059:	jp     0x403051
  40305b:	lods   al,BYTE PTR ds:[esi]
  40305c:	ja     0x402fe3
  40305e:	pop    ebx
  40305f:	into   
  403060:	mov    WORD PTR [edx-0x5a],?
  403063:	das    
  403064:	jbe    0x402feb
  403066:	xchg   esi,eax
  403067:	jmp    0x13f8:0x1ecc7845
  40306e:	fnstenv [ecx-0x5]
  403071:	sahf   
  403072:	mov    ecx,0x1672309e
  403077:	nop
