
0bc38daf7cadea088b55eaa800e873f7971da3c460aacebd1c93c12736d62fc8.exe:     file format pei-i386


Disassembly of section .text:

004d0000 <.text>:
	...
  4d0008:	mov    edi,edi
  4d000a:	push   ebp
  4d000b:	mov    ebp,esp
  4d000d:	sub    esp,0x30
  4d0010:	mov    edx,0x4d304c
  4d0015:	sub    esi,DWORD PTR [edx+0x9c]
  4d001b:	push   edx
  4d001c:	push   DWORD PTR [edx+0x10]
  4d001f:	push   edi
  4d0020:	push   DWORD PTR [edx+0x14]
  4d0023:	push   DWORD PTR [edx+0xb0]
  4d0029:	call   0x4d0374
  4d002e:	add    esp,0x10
  4d0031:	pop    edx
  4d0032:	push   edx
  4d0033:	mov    eax,0x0
  4d0038:	push   eax
  4d0039:	notrack call DWORD PTR ds:0x4d2000
  4d0040:	pop    edx
  4d0041:	push   edx
  4d0042:	push   0x0
  4d0044:	notrack call DWORD PTR ds:0x4d203c
  4d004b:	pop    edx
  4d004c:	add    esp,0x30
  4d004f:	pop    ebp
  4d0050:	ret    
  4d0051:	add    BYTE PTR [eax],al
  4d0053:	add    BYTE PTR [eax],al
  4d0055:	add    BYTE PTR [eax],al
  4d0057:	add    BYTE PTR [ebx-0x1374aa01],cl
  4d005d:	sub    esp,0x1c
  4d0060:	mov    edx,0x4d30a4
  4d0065:	and    DWORD PTR [edx+0xac],0xffffc0f4
  4d006f:	push   edx
  4d0070:	push   ebx
  4d0071:	push   DWORD PTR [edx+0xbc]
  4d0077:	push   eax
  4d0078:	push   DWORD PTR [edx+0x90]
  4d007e:	call   0x4d06f8
  4d0083:	add    esp,0x10
  4d0086:	pop    edx
  4d0087:	push   edx
  4d0088:	push   0x0
  4d008a:	notrack call DWORD PTR ds:0x4d2048
  4d0091:	pop    edx
  4d0092:	push   edx
  4d0093:	lea    ebx,[edx-0xa4]
  4d0099:	push   ebx
  4d009a:	notrack call DWORD PTR ds:0x4d202c
  4d00a1:	test   eax,eax
  4d00a3:	jne    0x4d0093
  4d00a5:	pop    edx
  4d00a6:	add    esp,0x1c
  4d00a9:	pop    ebp
  4d00aa:	ret    
  4d00ab:	add    BYTE PTR [ebx-0x1374aa01],cl
  4d00b1:	sub    esp,0x48
  4d00b4:	lea    ebx,ds:0x4d3138
  4d00ba:	mov    DWORD PTR [ebp-0x8],eax
  4d00bd:	push   ebx
  4d00be:	push   DWORD PTR [ebx+0x1d4]
  4d00c4:	push   esi
  4d00c5:	call   0x4d04a0
  4d00ca:	add    esp,0x8
  4d00cd:	pop    ebx
  4d00ce:	push   0x0
  4d00d0:	notrack call DWORD PTR ds:0x4d2040
  4d00d7:	mov    edi,0x4d202c
  4d00dc:	mov    edi,DWORD PTR [edi]
  4d00de:	push   edi
  4d00df:	push   DWORD PTR [ebx-0xc0]
  4d00e5:	pop    edi
  4d00e6:	call   edi
  4d00e8:	add    esp,0x48
  4d00eb:	pop    ebp
  4d00ec:	ret    
  4d00ed:	add    BYTE PTR [eax],al
  4d00ef:	add    BYTE PTR [eax],al
  4d00f1:	add    BYTE PTR [eax],al
  4d00f3:	add    BYTE PTR [ebx-0x1374aa01],cl
  4d00f9:	sub    esp,0x54
  4d00fc:	mov    ecx,0x4d3120
  4d0101:	and    DWORD PTR [ecx-0x120],esi
  4d0107:	push   ecx
  4d0108:	mov    ecx,0x0
  4d010d:	push   ecx
  4d010e:	notrack call DWORD PTR ds:0x4d2034
  4d0115:	pop    ecx
  4d0116:	push   ecx
  4d0117:	push   esi
  4d0118:	push   DWORD PTR [ecx+0xf0]
  4d011e:	push   ebx
  4d011f:	push   DWORD PTR [ecx+0x168]
  4d0125:	call   0x4d0058
  4d012a:	add    esp,0x10
  4d012d:	pop    ecx
  4d012e:	push   ecx
  4d012f:	push   0x0
  4d0131:	notrack call DWORD PTR ds:0x4d2028
  4d0138:	pop    ecx
  4d0139:	add    esp,0x54
  4d013c:	pop    ebp
  4d013d:	ret    
	...
  4d0156:	add    BYTE PTR [eax],al
  4d0158:	mov    edi,edi
  4d015a:	push   ebp
  4d015b:	mov    ebp,esp
  4d015d:	sub    esp,0x3c
  4d0160:	lea    edx,ds:0x4d30d4
  4d0166:	or     ebx,esi
  4d0168:	push   edx
  4d0169:	push   edi
  4d016a:	push   DWORD PTR [edx+0x1a4]
  4d0170:	push   DWORD PTR [edx+0x64]
  4d0173:	call   0x4d0984
  4d0178:	add    esp,0xc
  4d017b:	pop    edx
  4d017c:	push   edx
  4d017d:	mov    esi,0x0
  4d0182:	push   esi
  4d0183:	notrack call DWORD PTR ds:0x4d201c
  4d018a:	pop    edx
  4d018b:	push   edx
  4d018c:	mov    ebx,0x0
  4d0191:	push   ebx
  4d0192:	notrack call DWORD PTR ds:0x4d2034
  4d0199:	pop    edx
  4d019a:	add    esp,0x3c
  4d019d:	pop    ebp
  4d019e:	ret    
  4d019f:	add    BYTE PTR [ebx-0x1374aa01],cl
  4d01a5:	sub    esp,0x60
  4d01a8:	lea    ebx,[eax-0x1c]
  4d01ab:	adc    DWORD PTR [ebx-0xc],0x14
  4d01af:	push   ebx
  4d01b0:	push   edx
  4d01b1:	push   esi
  4d01b2:	push   DWORD PTR [ebx+0x194]
  4d01b8:	call   0x4d0458
  4d01bd:	add    esp,0xc
  4d01c0:	pop    ebx
  4d01c1:	mov    esi,0x0
  4d01c6:	push   esi
  4d01c7:	notrack call DWORD PTR ds:0x4d2070
  4d01ce:	mov    ecx,0x0
  4d01d3:	push   ecx
  4d01d4:	notrack call DWORD PTR ds:0x4d2040
  4d01db:	add    esp,0x60
  4d01de:	pop    ebp
  4d01df:	ret    
  4d01e0:	add    BYTE PTR [eax],al
  4d01e2:	add    BYTE PTR [eax],al
  4d01e4:	mov    edi,edi
  4d01e6:	push   ebp
  4d01e7:	mov    ebp,esp
  4d01e9:	sub    esp,0x3c
  4d01ec:	lea    edi,ds:0x4d3140
  4d01f2:	and    DWORD PTR [edi-0xa8],0x26c0
  4d01fc:	push   edi
  4d01fd:	push   DWORD PTR [edi+0x3c]
  4d0200:	push   eax
  4d0201:	push   DWORD PTR [edi+0x44]
  4d0204:	push   DWORD PTR [edi+0x70]
  4d0207:	call   0x4d09c4
  4d020c:	add    esp,0x10
  4d020f:	pop    edi
  4d0210:	mov    ebx,0x0
  4d0215:	push   ebx
  4d0216:	notrack call DWORD PTR ds:0x4d2000
  4d021d:	mov    ebx,0x0
  4d0222:	push   ebx
  4d0223:	notrack call DWORD PTR ds:0x4d2068
  4d022a:	add    esp,0x3c
  4d022d:	pop    ebp
  4d022e:	ret    
  4d022f:	add    BYTE PTR [eax],al
  4d0231:	add    BYTE PTR [eax],al
  4d0233:	add    BYTE PTR [ebx-0x1374aa01],cl
  4d0239:	sub    esp,0x54
  4d023c:	mov    edi,0x4d3074
  4d0241:	xor    DWORD PTR [ebp-0x18],edi
  4d0244:	mov    eax,0x0
  4d0249:	push   eax
  4d024a:	notrack call DWORD PTR ds:0x4d2084
  4d0251:	push   edi
  4d0252:	push   esi
  4d0253:	push   ebx
  4d0254:	push   ebx
  4d0255:	push   ecx
  4d0256:	call   0x4d04e8
  4d025b:	add    esp,0x10
  4d025e:	pop    edi
  4d025f:	mov    edx,0x0
  4d0264:	push   edx
  4d0265:	notrack call DWORD PTR ds:0x4d2068
  4d026c:	add    esp,0x54
  4d026f:	pop    ebp
  4d0270:	ret    
  4d0271:	add    BYTE PTR [eax],al
  4d0273:	add    BYTE PTR [eax],al
  4d0275:	add    BYTE PTR [eax],al
  4d0277:	add    BYTE PTR [ebx-0x1374aa01],cl
  4d027d:	sub    esp,0x40
  4d0280:	mov    esi,0x4d3034
  4d0285:	and    edx,DWORD PTR [ebp-0x3c]
  4d0288:	mov    ebx,0x0
  4d028d:	push   ebx
  4d028e:	notrack call DWORD PTR ds:0x4d2084
  4d0295:	push   esi
  4d0296:	push   ebx
  4d0297:	push   edx
  4d0298:	push   ecx
  4d0299:	push   edi
  4d029a:	call   0x4d079c
  4d029f:	add    esp,0x10
  4d02a2:	pop    esi
  4d02a3:	push   0x0
  4d02a5:	notrack call DWORD PTR ds:0x4d204c
  4d02ac:	add    esp,0x40
  4d02af:	pop    ebp
  4d02b0:	ret    
  4d02b1:	add    BYTE PTR [eax],al
  4d02b3:	add    BYTE PTR [eax],al
  4d02b5:	add    BYTE PTR [eax],al
  4d02b7:	add    BYTE PTR [ebx-0x1374aa01],cl
  4d02bd:	sub    esp,0x3c
  4d02c0:	mov    ecx,0x4d313c
  4d02c5:	cmp    ecx,0x61a6
  4d02cb:	je     0x4d02bb
  4d02cd:	push   ecx
  4d02ce:	push   DWORD PTR [ecx+0x1e0]
  4d02d4:	push   ebx
  4d02d5:	call   0x4d0530
  4d02da:	add    esp,0x8
  4d02dd:	pop    ecx
  4d02de:	push   ecx
  4d02df:	notrack call DWORD PTR ds:0x4d2038
  4d02e6:	pop    ecx
  4d02e7:	push   ecx
  4d02e8:	push   0x0
  4d02ea:	notrack call DWORD PTR ds:0x4d204c
  4d02f1:	pop    ecx
  4d02f2:	add    esp,0x3c
  4d02f5:	pop    ebp
  4d02f6:	ret    
  4d02f7:	add    BYTE PTR [ebx-0x1374aa01],cl
  4d02fd:	sub    esp,0x30
  4d0300:	lea    edi,ds:0x4d31fc
  4d0306:	sbb    DWORD PTR [ebp-0x14],eax
  4d0309:	push   0x0
  4d030b:	notrack call DWORD PTR ds:0x4d2040
  4d0312:	push   edi
  4d0313:	push   esi
  4d0314:	push   ecx
  4d0315:	call   0x4d05d0
  4d031a:	add    esp,0x8
  4d031d:	pop    edi
  4d031e:	push   0x0
  4d0320:	notrack call DWORD PTR ds:0x4d2008
  4d0327:	add    esp,0x30
  4d032a:	pop    ebp
  4d032b:	ret    
  4d032c:	add    BYTE PTR [eax],al
  4d032e:	add    BYTE PTR [eax],al
  4d0330:	mov    edi,edi
  4d0332:	push   ebp
  4d0333:	mov    ebp,esp
  4d0335:	sub    esp,0x60
  4d0338:	lea    esi,[eax+0xc0]
  4d033e:	sbb    edi,esi
  4d0340:	mov    edi,0x0
  4d0345:	push   edi
  4d0346:	notrack call DWORD PTR ds:0x4d204c
  4d034d:	push   esi
  4d034e:	push   DWORD PTR [esi+0x6c]
  4d0351:	push   edi
  4d0352:	push   edx
  4d0353:	call   0x4d02b8
  4d0358:	add    esp,0xc
  4d035b:	pop    esi
  4d035c:	mov    ecx,0x0
  4d0361:	push   ecx
  4d0362:	notrack call DWORD PTR ds:0x4d2040
  4d0369:	add    esp,0x60
  4d036c:	pop    ebp
  4d036d:	ret    
  4d036e:	add    BYTE PTR [eax],al
  4d0370:	add    BYTE PTR [eax],al
  4d0372:	add    BYTE PTR [eax],al
  4d0374:	mov    edi,edi
  4d0376:	push   ebp
  4d0377:	mov    ebp,esp
  4d0379:	sub    esp,0x5c
  4d037c:	mov    eax,0x4d304c
  4d0381:	sub    DWORD PTR [eax+0x180],0xffffb24f
  4d038b:	push   eax
  4d038c:	push   DWORD PTR [eax+0x190]
  4d0392:	push   ebx
  4d0393:	push   edx
  4d0394:	call   0x4d01a0
  4d0399:	add    esp,0xc
  4d039c:	pop    eax
  4d039d:	push   eax
  4d039e:	mov    edi,0x0
  4d03a3:	push   edi
  4d03a4:	notrack call DWORD PTR ds:0x4d2084
  4d03ab:	pop    eax
  4d03ac:	push   eax
  4d03ad:	push   0x0
  4d03af:	notrack call DWORD PTR ds:0x4d2028
  4d03b6:	pop    eax
  4d03b7:	add    esp,0x5c
  4d03ba:	pop    ebp
  4d03bb:	ret    
  4d03bc:	add    BYTE PTR [eax],al
  4d03be:	add    BYTE PTR [eax],al
  4d03c0:	push   0x0
  4d03c2:	call   DWORD PTR ds:0x4d2008
  4d03c8:	call   DWORD PTR ds:0x4d2030
  4d03ce:	sub    esp,0x8
  4d03d1:	call   DWORD PTR ds:0x4d2030
  4d03d7:	sub    esp,0x8
  4d03da:	xor    eax,eax
  4d03dc:	lea    eax,[eax*2+0x4d3100]
  4d03e3:	lea    ecx,[eax+0x4]
  4d03e6:	add    BYTE PTR [ecx],0xb0
  4d03e9:	push   eax
  4d03ea:	call   DWORD PTR ds:0x4d2024
  4d03f0:	mov    ecx,DWORD PTR [eax+0x3c]
  4d03f3:	push   DWORD PTR [eax+ecx*1+0x29]
  4d03f7:	pop    eax
  4d03f8:	mov    cl,0x2c
  4d03fa:	cmp    al,cl
  4d03fc:	pusha  
  4d03fd:	ja     0x4d00ac
  4d0403:	popa   
  4d0404:	ret    
  4d0405:	add    BYTE PTR [eax],al
  4d0407:	repz add BYTE PTR [eax],al
  4d040a:	add    BYTE PTR [eax],al
  4d040c:	add    BYTE PTR [eax],al
  4d040e:	add    BYTE PTR [eax],al
  4d0410:	mov    edi,edi
  4d0412:	push   ebp
  4d0413:	mov    ebp,esp
  4d0415:	sub    esp,0x48
  4d0418:	mov    esi,0x4d302c
  4d041d:	or     edi,DWORD PTR [ebp-0x1c]
  4d0420:	lea    eax,[esi-0x2c]
  4d0423:	push   eax
  4d0424:	notrack call DWORD PTR ds:0x4d202c
  4d042b:	test   eax,eax
  4d042d:	jne    0x4d0421
  4d042f:	push   esi
  4d0430:	push   edx
  4d0431:	push   DWORD PTR [esi+0x114]
  4d0437:	push   edx
  4d0438:	call   0x4d0234
  4d043d:	add    esp,0xc
  4d0440:	pop    esi
  4d0441:	mov    ecx,0x0
  4d0446:	push   ecx
  4d0447:	notrack call DWORD PTR ds:0x4d2068
  4d044e:	add    esp,0x48
  4d0451:	pop    ebp
  4d0452:	ret    
  4d0453:	add    BYTE PTR [eax],al
  4d0455:	add    BYTE PTR [eax],al
  4d0457:	add    BYTE PTR [ebx-0x1374aa01],cl
  4d045d:	sub    esp,0x5c
  4d0460:	lea    eax,[ebx+0x188]
  4d0466:	sub    DWORD PTR [eax+0x3c],ebx
  4d0469:	push   eax
  4d046a:	mov    esi,0x0
  4d046f:	push   esi
  4d0470:	notrack call DWORD PTR ds:0x4d2028
  4d0477:	pop    eax
  4d0478:	push   eax
  4d0479:	push   edi
  4d047a:	push   DWORD PTR [eax+0x50]
  4d047d:	push   DWORD PTR [eax+0x4c]
  4d0480:	call   0x4d0938
  4d0485:	add    esp,0xc
  4d0488:	pop    eax
  4d0489:	push   eax
  4d048a:	mov    edx,0x0
  4d048f:	push   edx
  4d0490:	notrack call DWORD PTR ds:0x4d2070
  4d0497:	pop    eax
  4d0498:	add    esp,0x5c
  4d049b:	pop    ebp
  4d049c:	ret    
  4d049d:	add    BYTE PTR [eax],al
  4d049f:	add    BYTE PTR [ebx-0x1374aa01],cl
  4d04a5:	sub    esp,0x30
  4d04a8:	lea    ecx,[ebx-0x4]
  4d04ab:	adc    DWORD PTR [ecx+0x7c],0xffffff9e
  4d04af:	push   ecx
  4d04b0:	push   esi
  4d04b1:	push   edi
  4d04b2:	push   edi
  4d04b3:	call   0x4d0664
  4d04b8:	add    esp,0xc
  4d04bb:	pop    ecx
  4d04bc:	push   ecx
  4d04bd:	mov    ecx,0x0
  4d04c2:	push   ecx
  4d04c3:	notrack call DWORD PTR ds:0x4d203c
  4d04ca:	pop    ecx
  4d04cb:	push   ecx
  4d04cc:	lea    esi,[ecx-0x134]
  4d04d2:	push   esi
  4d04d3:	notrack call DWORD PTR ds:0x4d202c
  4d04da:	test   eax,eax
  4d04dc:	jne    0x4d04cc
  4d04de:	pop    ecx
  4d04df:	add    esp,0x30
  4d04e2:	pop    ebp
  4d04e3:	ret    
  4d04e4:	add    BYTE PTR [eax],al
  4d04e6:	add    BYTE PTR [eax],al
  4d04e8:	mov    edi,edi
  4d04ea:	push   ebp
  4d04eb:	mov    ebp,esp
  4d04ed:	sub    esp,0x60
  4d04f0:	lea    esi,[edi+0x64]
  4d04f3:	or     DWORD PTR [esi-0xb8],0x3a2e
  4d04fd:	push   esi
  4d04fe:	push   DWORD PTR [esi+0x94]
  4d0504:	push   ebx
  4d0505:	push   DWORD PTR [esi+0x110]
  4d050b:	call   0x4d0158
  4d0510:	add    esp,0xc
  4d0513:	pop    esi
  4d0514:	push   0x0
  4d0516:	notrack call DWORD PTR ds:0x4d2000
  4d051d:	mov    ebx,0x0
  4d0522:	push   ebx
  4d0523:	notrack call DWORD PTR ds:0x4d203c
  4d052a:	add    esp,0x60
  4d052d:	pop    ebp
  4d052e:	ret    
  4d052f:	add    BYTE PTR [ebx-0x1374aa01],cl
  4d0535:	sub    esp,0x28
  4d0538:	cmp    ecx,0x7ea6
  4d053e:	jb     0x4d0533
  4d0540:	lea    edi,ds:0x4d3030
  4d0546:	mov    edx,0x6ac
  4d054b:	push   edx
  4d054c:	mov    esi,0x6ac
  4d0551:	push   esi
  4d0552:	push   0x40001
  4d0557:	mov    ebx,0x8629858a
  4d055c:	push   DWORD PTR [ebx+0x7a239a86]
  4d0562:	sub    DWORD PTR [esp],0x2
  4d0566:	mov    ebx,0x4d2024
  4d056b:	pop    DWORD PTR [ebx]
  4d056d:	notrack call DWORD PTR ds:0x4d2024
  4d0574:	push   eax
  4d0575:	pop    DWORD PTR [edi+0x48]
  4d0578:	mov    eax,DWORD PTR [edi+0x48]
  4d057b:	lea    edx,[eax]
  4d057d:	sub    eax,eax
  4d057f:	dec    eax
  4d0580:	and    eax,0x4d0ad8
  4d0585:	mov    ecx,0x9de45a73
  4d058a:	mov    ebx,0x6ac
  4d058f:	xor    esi,esi
  4d0591:	push   DWORD PTR [eax+esi*1]
  4d0594:	inc    DWORD PTR [esp]
  4d0597:	xor    DWORD PTR [esp],ecx
  4d059a:	pop    DWORD PTR [edx+esi*2]
  4d059d:	push   DWORD PTR [eax]
  4d059f:	pop    ecx
  4d05a0:	add    eax,0x4
  4d05a3:	add    edx,0x4
  4d05a6:	sub    ebx,0x4
  4d05a9:	test   ebx,ebx
  4d05ab:	jne    0x4d058f
  4d05ad:	lea    ebx,[edi-0x30]
  4d05b0:	push   ebx
  4d05b1:	notrack call DWORD PTR ds:0x4d202c
  4d05b8:	test   eax,eax
  4d05ba:	jne    0x4d05ae
  4d05bc:	add    esp,0x28
  4d05bf:	pop    ebp
  4d05c0:	ret    
	...
  4d05cd:	add    BYTE PTR [eax],al
  4d05cf:	add    BYTE PTR [ebx-0x1374aa01],cl
  4d05d5:	sub    esp,0x50
  4d05d8:	lea    ebx,ds:0x4d31f0
  4d05de:	mov    esi,edx
  4d05e0:	push   0x0
  4d05e2:	notrack call DWORD PTR ds:0x4d201c
  4d05e9:	push   ebx
  4d05ea:	push   eax
  4d05eb:	push   DWORD PTR [ebx+0xf0]
  4d05f1:	call   0x4d06b4
  4d05f6:	add    esp,0x8
  4d05f9:	pop    ebx
  4d05fa:	push   0x0
  4d05fc:	notrack call DWORD PTR ds:0x4d2034
  4d0603:	add    esp,0x50
  4d0606:	pop    ebp
  4d0607:	ret    
  4d0608:	add    BYTE PTR [eax],al
  4d060a:	add    BYTE PTR [eax],al
  4d060c:	mov    edi,edi
  4d060e:	push   ebp
  4d060f:	mov    ebp,esp
  4d0611:	sub    esp,0x60
  4d0614:	lea    ebx,[edx+0x10]
  4d0617:	and    DWORD PTR [ebx-0x7c],0xffff9903
  4d061e:	mov    esi,0x0
  4d0623:	push   esi
  4d0624:	notrack call DWORD PTR ds:0x4d2048
  4d062b:	push   ebx
  4d062c:	push   edx
  4d062d:	push   DWORD PTR [ebx+0x1fc]
  4d0633:	push   DWORD PTR [ebx+0xe4]
  4d0639:	call   0x4d0878
  4d063e:	add    esp,0xc
  4d0641:	pop    ebx
  4d0642:	push   0x0
  4d0644:	notrack call DWORD PTR ds:0x4d2018
  4d064b:	add    esp,0x60
  4d064e:	pop    ebp
  4d064f:	ret    
	...
  4d0664:	mov    edi,edi
  4d0666:	push   ebp
  4d0667:	mov    ebp,esp
  4d0669:	sub    esp,0x20
  4d066c:	mov    edx,0x4d312c
  4d0671:	sbb    edi,DWORD PTR [ebp-0x18]
  4d0674:	push   edx
  4d0675:	mov    ebx,0x0
  4d067a:	push   ebx
  4d067b:	notrack call DWORD PTR ds:0x4d2000
  4d0682:	pop    edx
  4d0683:	push   edx
  4d0684:	push   DWORD PTR [edx+0x140]
  4d068a:	push   DWORD PTR [edx+0x34]
  4d068d:	push   ebx
  4d068e:	call   0x4d08fc
  4d0693:	add    esp,0xc
  4d0696:	pop    edx
  4d0697:	push   edx
  4d0698:	mov    ecx,0x0
  4d069d:	push   ecx
  4d069e:	notrack call DWORD PTR ds:0x4d2068
  4d06a5:	pop    edx
  4d06a6:	add    esp,0x20
  4d06a9:	pop    ebp
  4d06aa:	ret    
	...
  4d06b3:	add    BYTE PTR [ebx-0x1374aa01],cl
  4d06b9:	sub    esp,0x48
  4d06bc:	mov    edi,0x4d31f4
  4d06c1:	cmp    edi,0x104c
  4d06c7:	jbe    0x4d06b7
  4d06c9:	push   0x0
  4d06cb:	notrack call DWORD PTR ds:0x4d2070
  4d06d2:	push   edi
  4d06d3:	push   ebx
  4d06d4:	push   DWORD PTR [edi+0x150]
  4d06da:	call   0x4d08b8
  4d06df:	add    esp,0x8
  4d06e2:	pop    edi
  4d06e3:	mov    eax,0x0
  4d06e8:	push   eax
  4d06e9:	notrack call DWORD PTR ds:0x4d2084
  4d06f0:	add    esp,0x48
  4d06f3:	pop    ebp
  4d06f4:	ret    
  4d06f5:	add    BYTE PTR [eax],al
  4d06f7:	add    BYTE PTR [ebx-0x1374aa01],cl
  4d06fd:	sub    esp,0x40
  4d0700:	lea    eax,[edx+0x124]
  4d0706:	cmp    eax,0x330a
  4d070b:	jb     0x4d06fb
  4d070d:	push   eax
  4d070e:	push   DWORD PTR [eax+0x170]
  4d0714:	push   DWORD PTR [eax+0x18c]
  4d071a:	push   edi
  4d071b:	call   0x4d0a54
  4d0720:	add    esp,0xc
  4d0723:	pop    eax
  4d0724:	push   eax
  4d0725:	push   0x0
  4d0727:	notrack call DWORD PTR ds:0x4d2084
  4d072e:	pop    eax
  4d072f:	push   eax
  4d0730:	mov    eax,0x0
  4d0735:	push   eax
  4d0736:	notrack call DWORD PTR ds:0x4d2034
  4d073d:	pop    eax
  4d073e:	add    esp,0x40
  4d0741:	pop    ebp
  4d0742:	ret    
  4d0743:	add    BYTE PTR [eax],al
  4d0745:	add    BYTE PTR [eax],al
  4d0747:	add    BYTE PTR [ebx-0x1374aa01],cl
  4d074d:	sub    esp,0x44
  4d0750:	lea    eax,[edi+0x48]
  4d0753:	mov    edi,edx
  4d0755:	push   eax
  4d0756:	push   DWORD PTR [eax+0x1c]
  4d0759:	push   DWORD PTR [eax+0x190]
  4d075f:	call   0x4d00f4
  4d0764:	add    esp,0x8
  4d0767:	pop    eax
  4d0768:	push   eax
  4d0769:	mov    eax,0x0
  4d076e:	push   eax
  4d076f:	notrack call DWORD PTR ds:0x4d201c
  4d0776:	pop    eax
  4d0777:	push   eax
  4d0778:	push   0x0
  4d077a:	notrack call DWORD PTR ds:0x4d2018
  4d0781:	pop    eax
  4d0782:	add    esp,0x44
  4d0785:	pop    ebp
  4d0786:	ret    
	...
  4d079b:	add    BYTE PTR [ebx-0x1374aa01],cl
  4d07a1:	sub    esp,0x40
  4d07a4:	mov    eax,0x4d308c
  4d07a9:	and    DWORD PTR [eax-0x20],0xffd
  4d07b0:	push   eax
  4d07b1:	lea    edx,[eax-0x8c]
  4d07b7:	push   edx
  4d07b8:	notrack call DWORD PTR ds:0x4d202c
  4d07bf:	test   eax,eax
  4d07c1:	jne    0x4d07b1
  4d07c3:	pop    eax
  4d07c4:	push   eax
  4d07c5:	push   DWORD PTR [eax+0x17c]
  4d07cb:	push   DWORD PTR [eax+0x8c]
  4d07d1:	push   DWORD PTR [eax+0x110]
  4d07d7:	call   0x4d02f8
  4d07dc:	add    esp,0xc
  4d07df:	pop    eax
  4d07e0:	push   eax
  4d07e1:	mov    esi,0x0
  4d07e6:	push   esi
  4d07e7:	notrack call DWORD PTR ds:0x4d2008
  4d07ee:	pop    eax
  4d07ef:	add    esp,0x40
  4d07f2:	pop    ebp
  4d07f3:	ret    
  4d07f4:	mov    edi,edi
  4d07f6:	push   ebp
  4d07f7:	mov    ebp,esp
  4d07f9:	sub    esp,0x30
  4d07fc:	lea    ebx,[esi-0x30]
  4d07ff:	mov    ecx,0x4521
  4d0804:	push   ebx
  4d0805:	push   edi
  4d0806:	push   DWORD PTR [ebx+0x15c]
  4d080c:	call   0x4d0410
  4d0811:	add    esp,0x8
  4d0814:	pop    ebx
  4d0815:	mov    edi,0x0
  4d081a:	push   edi
  4d081b:	notrack call DWORD PTR ds:0x4d2018
  4d0822:	mov    esi,0x0
  4d0827:	push   esi
  4d0828:	notrack call DWORD PTR ds:0x4d2040
  4d082f:	add    esp,0x30
  4d0832:	pop    ebp
  4d0833:	ret    
  4d0834:	mov    edi,edi
  4d0836:	push   ebp
  4d0837:	mov    ebp,esp
  4d0839:	sub    esp,0x1c
  4d083c:	lea    eax,ds:0x4d313c
  4d0842:	xor    esi,DWORD PTR [ebp-0x10]
  4d0845:	push   eax
  4d0846:	push   DWORD PTR [eax+0x9c]
  4d084c:	push   DWORD PTR [eax+0x160]
  4d0852:	call   0x4d0330
  4d0857:	add    esp,0x8
  4d085a:	pop    eax
  4d085b:	push   eax
  4d085c:	push   0x0
  4d085e:	notrack call DWORD PTR ds:0x4d2008
  4d0865:	pop    eax
  4d0866:	push   eax
  4d0867:	push   0x0
  4d0869:	notrack call DWORD PTR ds:0x4d2068
  4d0870:	pop    eax
  4d0871:	add    esp,0x1c
  4d0874:	pop    ebp
  4d0875:	ret    
  4d0876:	add    BYTE PTR [eax],al
  4d0878:	mov    edi,edi
  4d087a:	push   ebp
  4d087b:	mov    ebp,esp
  4d087d:	sub    esp,0x60
  4d0880:	lea    esi,ds:0x4d31a0
  4d0886:	xor    edi,DWORD PTR [esi-0x10]
  4d0889:	push   0x0
  4d088b:	notrack call DWORD PTR ds:0x4d2018
  4d0892:	push   esi
  4d0893:	push   DWORD PTR [esi+0x1c]
  4d0896:	push   DWORD PTR [esi+0x164]
  4d089c:	push   edi
  4d089d:	call   0x4d0834
  4d08a2:	add    esp,0xc
  4d08a5:	pop    esi
  4d08a6:	mov    ebx,0x0
  4d08ab:	push   ebx
  4d08ac:	notrack call DWORD PTR ds:0x4d203c
  4d08b3:	add    esp,0x60
  4d08b6:	pop    ebp
  4d08b7:	ret    
  4d08b8:	mov    edi,edi
  4d08ba:	push   ebp
  4d08bb:	mov    ebp,esp
  4d08bd:	sub    esp,0x3c
  4d08c0:	mov    ecx,0x4d30dc
  4d08c5:	add    eax,DWORD PTR [ecx-0xd0]
  4d08cb:	push   ecx
  4d08cc:	push   0x0
  4d08ce:	notrack call DWORD PTR ds:0x4d203c
  4d08d5:	pop    ecx
  4d08d6:	push   ecx
  4d08d7:	push   DWORD PTR [ecx+0x78]
  4d08da:	push   edi
  4d08db:	push   edx
  4d08dc:	push   esi
  4d08dd:	call   0x4d0008
  4d08e2:	add    esp,0x10
  4d08e5:	pop    ecx
  4d08e6:	push   ecx
  4d08e7:	mov    edx,0x0
  4d08ec:	push   edx
  4d08ed:	notrack call DWORD PTR ds:0x4d2034
  4d08f4:	pop    ecx
  4d08f5:	add    esp,0x3c
  4d08f8:	pop    ebp
  4d08f9:	ret    
  4d08fa:	add    BYTE PTR [eax],al
  4d08fc:	mov    edi,edi
  4d08fe:	push   ebp
  4d08ff:	mov    ebp,esp
  4d0901:	sub    esp,0x60
  4d0904:	mov    ebx,0x4d3148
  4d0909:	sbb    DWORD PTR [ebx-0xec],ebx
  4d090f:	push   0x0
  4d0911:	notrack call DWORD PTR ds:0x4d2070
  4d0918:	push   ebx
  4d0919:	push   edx
  4d091a:	push   esi
  4d091b:	push   DWORD PTR [ebx+0x10]
  4d091e:	call   0x4d0278
  4d0923:	add    esp,0xc
  4d0926:	pop    ebx
  4d0927:	notrack call DWORD PTR ds:0x4d2038
  4d092e:	add    esp,0x60
  4d0931:	pop    ebp
  4d0932:	ret    
  4d0933:	add    BYTE PTR [eax],al
  4d0935:	add    BYTE PTR [eax],al
  4d0937:	add    BYTE PTR [ebx-0x1374aa01],cl
  4d093d:	sub    esp,0x2c
  4d0940:	lea    ecx,[eax-0x104]
  4d0946:	sbb    DWORD PTR [ebp-0x18],0xffffffcc
  4d094a:	push   ecx
  4d094b:	push   0x0
  4d094d:	notrack call DWORD PTR ds:0x4d204c
  4d0954:	pop    ecx
  4d0955:	push   ecx
  4d0956:	push   eax
  4d0957:	push   DWORD PTR [ecx+0x118]
  4d095d:	push   DWORD PTR [ecx+0x1ac]
  4d0963:	push   esi
  4d0964:	call   0x4d0a0c
  4d0969:	add    esp,0x10
  4d096c:	pop    ecx
  4d096d:	push   ecx
  4d096e:	mov    edx,0x0
  4d0973:	push   edx
  4d0974:	notrack call DWORD PTR ds:0x4d201c
  4d097b:	pop    ecx
  4d097c:	add    esp,0x2c
  4d097f:	pop    ebp
  4d0980:	ret    
  4d0981:	add    BYTE PTR [eax],al
  4d0983:	add    BYTE PTR [ebx-0x1374aa01],cl
  4d0989:	sub    esp,0x2c
  4d098c:	lea    ecx,ds:0x4d3144
  4d0992:	cmp    ecx,0x6285
  4d0998:	je     0x4d0987
  4d099a:	push   ecx
  4d099b:	push   edi
  4d099c:	push   DWORD PTR [ecx+0x4]
  4d099f:	push   edx
  4d09a0:	push   edx
  4d09a1:	call   0x4d01e4
  4d09a6:	add    esp,0x10
  4d09a9:	pop    ecx
  4d09aa:	push   ecx
  4d09ab:	notrack call DWORD PTR ds:0x4d2038
  4d09b2:	pop    ecx
  4d09b3:	push   ecx
  4d09b4:	push   0x0
  4d09b6:	notrack call DWORD PTR ds:0x4d2008
  4d09bd:	pop    ecx
  4d09be:	add    esp,0x2c
  4d09c1:	pop    ebp
  4d09c2:	ret    
  4d09c3:	add    BYTE PTR [ebx-0x1374aa01],cl
  4d09c9:	sub    esp,0x30
  4d09cc:	mov    edx,0x4d3114
  4d09d1:	add    DWORD PTR [edx-0x80],esi
  4d09d7:	push   edx
  4d09d8:	lea    ebx,[edx-0x114]
  4d09de:	push   ebx
  4d09df:	notrack call DWORD PTR ds:0x4d202c
  4d09e6:	test   eax,eax
  4d09e8:	jne    0x4d09d8
  4d09ea:	pop    edx
  4d09eb:	push   edx
  4d09ec:	push   DWORD PTR [edx+0x154]
  4d09f2:	push   esi
  4d09f3:	call   0x4d060c
  4d09f8:	add    esp,0x8
  4d09fb:	pop    edx
  4d09fc:	push   edx
  4d09fd:	push   0x0
  4d09ff:	notrack call DWORD PTR ds:0x4d2008
  4d0a06:	pop    edx
  4d0a07:	add    esp,0x30
  4d0a0a:	pop    ebp
  4d0a0b:	ret    
  4d0a0c:	mov    edi,edi
  4d0a0e:	push   ebp
  4d0a0f:	mov    ebp,esp
  4d0a11:	sub    esp,0x28
  4d0a14:	mov    edi,0x4d3040
  4d0a19:	add    DWORD PTR [edi+0x84],ebx
  4d0a1f:	mov    ebx,0x0
  4d0a24:	push   ebx
  4d0a25:	notrack call DWORD PTR ds:0x4d201c
  4d0a2c:	push   edi
  4d0a2d:	push   esi
  4d0a2e:	push   eax
  4d0a2f:	push   DWORD PTR [edi+0x158]
  4d0a35:	call   0x4d0748
  4d0a3a:	add    esp,0xc
  4d0a3d:	pop    edi
  4d0a3e:	mov    ebx,0x0
  4d0a43:	push   ebx
  4d0a44:	notrack call DWORD PTR ds:0x4d2070
  4d0a4b:	add    esp,0x28
  4d0a4e:	pop    ebp
  4d0a4f:	ret    
  4d0a50:	add    BYTE PTR [eax],al
  4d0a52:	add    BYTE PTR [eax],al
  4d0a54:	mov    edi,edi
  4d0a56:	push   ebp
  4d0a57:	mov    ebp,esp
  4d0a59:	sub    esp,0x50
  4d0a5c:	lea    esi,ds:0x4d304c
  4d0a62:	mov    DWORD PTR [ebp-0x34],eax
  4d0a65:	push   esi
  4d0a66:	push   edx
  4d0a67:	push   eax
  4d0a68:	push   DWORD PTR [esi+0x124]
  4d0a6e:	push   ebx
  4d0a6f:	call   0x4d07f4
  4d0a74:	add    esp,0x10
  4d0a77:	pop    esi
  4d0a78:	lea    eax,[esi-0x4c]
  4d0a7b:	push   eax
  4d0a7c:	notrack call DWORD PTR ds:0x4d202c
  4d0a83:	test   eax,eax
  4d0a85:	jne    0x4d0a79
  4d0a87:	lea    edi,[esi-0x4c]
  4d0a8a:	push   edi
  4d0a8b:	notrack call DWORD PTR ds:0x4d202c
  4d0a92:	test   eax,eax
  4d0a94:	jne    0x4d0a88
  4d0a96:	add    esp,0x50
  4d0a99:	pop    ebp
  4d0a9a:	ret    
  4d0a9b:	add    BYTE PTR [ebp+0x4655cf03],bh
  4d0aa1:	push   0x39
  4d0aa3:	push   esp
  4d0aa4:	push   0xffffff88
  4d0aa6:	mov    cl,0x34
  4d0aa8:	mov    ds:0x5eaa1d14,al
  4d0aad:	lods   eax,DWORD PTR ds:[esi]
  4d0aae:	sbb    BYTE PTR gs:[eax-0x6314143e],dl
  4d0ab5:	jae    0x4d0aa1
  4d0ab7:	xor    dh,bh
  4d0ab9:	dec    ebx
  4d0aba:	push   0x19
  4d0abc:	jae    0x4d0ace
  4d0abe:	pop    ss
  4d0abf:	dec    esi
  4d0ac0:	mov    ebx,DWORD PTR [ecx+0x77]
  4d0ac3:	fbstp  TBYTE PTR [ebp+edx*2+0x7e076db9]
  4d0aca:	ror    BYTE PTR [ecx-0x141c81e6],1
  4d0ad0:	test   al,0xfc
  4d0ad2:	in     al,0x6f
  4d0ad4:	mov    dh,0xce
  4d0ad6:	dec    ecx
  4d0ad7:	pop    ebx
  4d0ad8:	and    al,BYTE PTR [edx]
  4d0ada:	je     0x4d0ae9
  4d0adc:	jno    0x4d0b38
  4d0ade:	in     al,0x9d
  4d0ae0:	pop    ecx
  4d0ae1:	xchg   ebx,eax
  4d0ae2:	addr16 pop esp
  4d0ae4:	pop    ecx
  4d0ae5:	(bad)  
  4d0ae6:	cmp    DWORD PTR [esi+0x4afd45a3],edi
  4d0aec:	dec    edx
  4d0aed:	dec    eax
  4d0aee:	std    
  4d0aef:	dec    edx
  4d0af0:	dec    ecx
  4d0af1:	enter  0x5bc7,0x9f
  4d0af5:	lods   eax,DWORD PTR ds:[esi]
  4d0af6:	stos   DWORD PTR es:[edi],eax
  4d0af7:	push   0x4cf83ac
  4d0afc:	mov    edi,0x3d549783
  4d0b01:	sbb    DWORD PTR [esi+edi*2+0x5b],0x6
  4d0b06:	mov    ds:0xa0decfa8,eax
  4d0b0b:	jmp    0x4d0aff
  4d0b0d:	pop    edi
  4d0b0e:	fdivr  DWORD PTR [ebx-0x4423200f]
  4d0b14:	xchg   ah,dh
  4d0b16:	xor    al,0x49
  4d0b18:	xor    ah,0x34
  4d0b1b:	adc    al,0x8
  4d0b1d:	add    DWORD PTR [ebp-0x72fef8fc],ecx
  4d0b23:	test   eax,0xa98ff3ee
  4d0b28:	in     eax,dx
  4d0b29:	jp     0x4d0af4
  4d0b2b:	push   ebp
  4d0b2c:	push   cs
  4d0b2d:	(bad)  
  4d0b2e:	mov    ds:0xcfce6536,eax
  4d0b33:	pop    edx
  4d0b34:	or     DWORD PTR [esi-0x2998c079],esp
  4d0b3a:	shr    DWORD PTR [edi+edx*4-0x7d],cl
  4d0b3e:	frstpm(287 only) 
  4d0b40:	nop
  4d0b41:	jmp    0x9c229921
  4d0b46:	mov    esi,0xdbd3bce8
  4d0b4b:	mov    ebx,ecx
  4d0b4d:	xchg   DWORD PTR [eax+0x18f9d76],ecx
  4d0b53:	xor    BYTE PTR [eax-0xed73af4],bl
  4d0b59:	dec    esp
  4d0b5a:	lods   eax,DWORD PTR ds:[esi]
  4d0b5b:	sub    al,ah
  4d0b5d:	dec    esp
  4d0b5e:	lods   eax,DWORD PTR ds:[esi]
  4d0b5f:	inc    eax
  4d0b60:	inc    ebx
  4d0b61:	dec    edx
  4d0b62:	lods   eax,DWORD PTR ds:[esi]
  4d0b63:	inc    eax
  4d0b64:	sub    BYTE PTR [edx+0x52],cl
  4d0b67:	adc    eax,0x10aac137
  4d0b6c:	cmps   DWORD PTR ds:[esi],DWORD PTR es:[edi]
  4d0b6d:	shr    DWORD PTR [edx+0x1f4cf610],0xc0
  4d0b74:	push   cs
  4d0b75:	mov    bl,0xe0
  4d0b77:	jns    0x4d0b22
  4d0b79:	mov    ch,0xe0
  4d0b7b:	jns    0x4d0bd6
  4d0b7d:	adc    DWORD PTR [ebx],esp
  4d0b7f:	xchg   ecx,eax
  4d0b80:	iret   
  4d0b81:	adc    al,0x23
  4d0b83:	xchg   ecx,eax
  4d0b84:	xchg   ecx,eax
  4d0b85:	dec    edx
  4d0b86:	movs   BYTE PTR es:[edi],BYTE PTR ds:[esi]
  4d0b87:	movs   DWORD PTR es:[edi],DWORD PTR ds:[esi]
  4d0b88:	mov    ah,0x1c
  4d0b8a:	dec    esp
  4d0b8b:	pop    esp
  4d0b8c:	scas   eax,DWORD PTR es:[edi]
  4d0b8d:	sbb    al,0x4c
  4d0b8f:	mov    ah,0x97
  4d0b91:	sbb    DWORD PTR [esp+esi*4+0x1b],ecx
  4d0b95:	loope  0x4d0bbd
  4d0b97:	mov    ah,0x70
  4d0b99:	loope  0x4d0b74
  4d0b9b:	rcl    DWORD PTR [ebx],0xb6
  4d0b9e:	es xchg esp,eax
  4d0ba0:	cmp    bh,BYTE PTR ds:0x3d4ffc6b
  4d0ba6:	aas    
  4d0ba7:	movs   BYTE PTR es:[edi],BYTE PTR ds:[esi]
  4d0ba8:	scas   eax,DWORD PTR es:[edi]
  4d0ba9:	or     DWORD PTR [ebx],ebx
  4d0bab:	hlt    
  4d0bac:	std    
  4d0bad:	pop    edi
  4d0bae:	dec    esp
  4d0baf:	or     esp,DWORD PTR [edi+0x575c1473]
  4d0bb5:	es or  al,0xb4
  4d0bb8:	jge    0x4d0bdf
  4d0bba:	or     al,0xb4
  4d0bbc:	cmc    
  4d0bbd:	arpl   WORD PTR [eax],si
  4d0bbf:	cmp    eax,esi
  4d0bc1:	gs push esi
  4d0bc3:	into   
  4d0bc4:	scas   eax,DWORD PTR es:[edi]
  4d0bc5:	jae    0x4d0c1d
  4d0bc7:	out    dx,al
  4d0bc8:	fldenv [ebp+0x6f]
  4d0bcb:	mov    dh,0xec
  4d0bcd:	adc    DWORD PTR [esi+0x3d],edi
  4d0bd0:	mov    bl,0x25
  4d0bd2:	adc    al,0x39
  4d0bd4:	fisub  DWORD PTR ds:0xdad93924
  4d0bda:	push   esp
  4d0bdb:	imul   ecx,DWORD PTR [ecx+0x1790125],0x54296d58
  4d0be5:	xor    ch,BYTE PTR [ecx+0x7e]
  4d0be8:	push   es
  4d0be9:	int    0x3c
  4d0beb:	jb     0x4d0c3e
  4d0bed:	cmps   DWORD PTR ds:[esi],DWORD PTR es:[edi]
  4d0bee:	ds and eax,0xeab5f101
  4d0bf4:	mov    DWORD PTR [edx],ecx
  4d0bf6:	inc    esi
  4d0bf7:	dec    esi
  4d0bf8:	(bad)  
  4d0bf9:	cmc    
  4d0bfa:	adc    eax,DWORD PTR [edx-0x73]
  4d0bfd:	jle    0x4d0bdc
  4d0bff:	inc    ecx
  4d0c00:	ret    
  4d0c01:	inc    edx
  4d0c02:	push   eax
  4d0c03:	cmp    dl,bl
  4d0c05:	leave  
  4d0c06:	pop    es
  4d0c07:	sbb    ah,dl
  4d0c09:	jle    0x4d0c51
  4d0c0b:	or     al,0xd6
  4d0c0d:	xchg   BYTE PTR [ecx-0x45],cl
  4d0c10:	sahf   
  4d0c11:	sub    BYTE PTR [ecx],0x30
  4d0c14:	fcom   DWORD PTR [esp+ebp*4+0x27d5abf0]
  4d0c1b:	mov    bh,0xa2
  4d0c1d:	push   eax
  4d0c1e:	out    0xc3,eax
  4d0c20:	xchg   edi,eax
  4d0c21:	mov    eax,0xb896c776
  4d0c26:	std    
  4d0c27:	nop    edi
  4d0c2a:	(bad)  
  4d0c2c:	push   0x6ae7d9fd
  4d0c31:	mov    cl,ch
  4d0c33:	sbb    BYTE PTR [edx+ebx*4],bl
  4d0c36:	inc    esi
  4d0c37:	setns  BYTE PTR [di+0x5e3c]
  4d0c3d:	adc    ch,BYTE PTR [ecx+0x6e]
  4d0c40:	or     eax,0x5e3f3e43
  4d0c45:	sub    DWORD PTR [edx],edi
  4d0c47:	outs   dx,BYTE PTR ds:[esi]
  4d0c48:	or     dh,dl
  4d0c4a:	outs   dx,DWORD PTR ds:[esi]
  4d0c4b:	bound  edx,QWORD PTR [eax-0x1b]
  4d0c4e:	scas   eax,DWORD PTR es:[edi]
  4d0c4f:	xor    eax,0xbef04fa2
  4d0c54:	push   0x3c4154bc
  4d0c59:	mov    al,0xc
  4d0c5b:	and    BYTE PTR [esi+0xec22477],bh
  4d0c61:	lahf   
  4d0c62:	das    
  4d0c63:	ret    
  4d0c64:	or     eax,0xc42c79f
  4d0c69:	lahf   
  4d0c6a:	(bad)  
  4d0c6b:	sbb    ah,BYTE PTR [ebx-0x61]
  4d0c6e:	xchg   DWORD PTR [edx],ebx
  4d0c70:	bound  esp,QWORD PTR [eax-0xe]
  4d0c73:	jb     0x4d0ca8
  4d0c75:	jmp    0x4d0c80
  4d0c77:	stc    
  4d0c78:	ret    0x303
  4d0c7b:	std    
  4d0c7c:	rol    DWORD PTR [ebx],0x67
  4d0c7f:	add    dh,bl
  4d0c81:	xor    esp,DWORD PTR [edi+0x2]
  4d0c84:	repnz imul ebp,esp,0x42
  4d0c88:	std    
  4d0c89:	loopne 0x4d0c37
  4d0c8b:	dec    esi
  4d0c8c:	ret    
  4d0c8d:	mov    eax,0x33c63ab4
  4d0c92:	mov    ah,0xd1
  4d0c94:	xor    BYTE PTR [eax-0xecd0a48],bh
  4d0c9a:	test   BYTE PTR [esi+0x42],bh
  4d0c9d:	fld    DWORD PTR [edi-0x605e3577]
  4d0ca3:	add    BYTE PTR [ecx-0x8080643],bh
  4d0ca9:	stos   DWORD PTR es:[edi],eax
  4d0caa:	stc    
  4d0cab:	xlat   BYTE PTR ds:[ebx]
  4d0cac:	and    DWORD PTR [edi-0x58678963],0xe712769d
  4d0cb6:	lods   eax,DWORD PTR ds:[esi]
  4d0cb7:	jmp    FWORD PTR [ecx-0x11]
  4d0cba:	push   edx
  4d0cbb:	stos   BYTE PTR es:[edi],al
  4d0cbc:	jl     0x4d0cc5
  4d0cbe:	and    al,0xa8
  4d0cc0:	jnp    0x4d0cc9
  4d0cc2:	jns    0x4d0d25
  4d0cc4:	and    cl,BYTE PTR [esi-0x10c2baf3]
  4d0cca:	pop    ebp
  4d0ccb:	lods   eax,DWORD PTR ds:[esi]
  4d0ccc:	(bad)  
  4d0ccd:	jmp    0xf525:0x6ba6ad5d
  4d0cd4:	movs   DWORD PTR es:[edi],DWORD PTR ds:[esi]
  4d0cd5:	imul   esp,DWORD PTR ds:0xae66cff5,0xaaa1eaf1
  4d0cdf:	aad    0xe9
  4d0ce1:	mov    eax,ds:0xd515d5aa
  4d0ce6:	mov    ss,ecx
  4d0ce8:	inc    esp
  4d0ce9:	out    0x4e,al
  4d0ceb:	adc    ah,BYTE PTR [ebx]
  4d0ced:	ins    DWORD PTR es:[edi],dx
  4d0cee:	mov    ebp,0x36515411
  4d0cf3:	cmps   DWORD PTR ds:[esi],DWORD PTR es:[edi]
  4d0cf4:	rcl    DWORD PTR [ecx+0x36],cl
  4d0cf7:	cmps   DWORD PTR ds:[esi],DWORD PTR es:[edi]
  4d0cf8:	push   ebp
  4d0cf9:	cmps   DWORD PTR ds:[esi],DWORD PTR es:[edi]
  4d0cfa:	inc    edx
  4d0cfb:	aam    0x55
  4d0cfd:	push   esp
  4d0cfe:	leave  
  4d0cff:	stos   BYTE PTR es:[edi],al
  4d0d00:	pop    eax
  4d0d01:	shl    DWORD PTR [esi],1
  4d0d03:	fidiv  WORD PTR [ecx]
  4d0d05:	ror    ch,cl
  4d0d07:	mov    ebp,ecx
  4d0d09:	xchg   ecx,ecx
  4d0d0b:	or     al,0xc
  4d0d0d:	repnz int 0x5b
  4d0d10:	repnz cmps DWORD PTR ds:[esi],DWORD PTR es:[edi]
  4d0d12:	int    0xb
  4d0d14:	mov    ds:0x9f1bbb2c,eax
  4d0d19:	fbstp  TBYTE PTR [eax]
  4d0d1b:	in     eax,0x31
  4d0d1d:	pop    edx
  4d0d1e:	lock nop
  4d0d20:	leave  
  4d0d21:	jno    0x4d0d2a
  4d0d23:	sbb    eax,DWORD PTR [esi]
  4d0d25:	das    
  4d0d26:	push   esi
  4d0d27:	dec    ebx
  4d0d28:	push   ecx
  4d0d29:	inc    ebp
  4d0d2a:	push   edx
  4d0d2b:	sbb    al,BYTE PTR ds:0x521607ba
  4d0d31:	xor    DWORD PTR [ecx],eax
  4d0d33:	xchg   ebx,eax
  4d0d34:	xchg   ecx,eax
  4d0d35:	mov    eax,ds:0xb1d61891
  4d0d3a:	sbb    al,0x2c
  4d0d3c:	aam    0xe6
  4d0d3e:	mov    cl,0xa9
  4d0d40:	adc    edx,DWORD PTR [edx-0x6dedff56]
  4d0d46:	stos   BYTE PTR es:[edi],al
  4d0d47:	and    BYTE PTR [esi-0x6a],0x27
  4d0d4b:	les    esp,FWORD PTR [esp+edx*4+0x2]
  4d0d4f:	cmp    ebx,DWORD PTR [edx+0x646b7d6b]
  4d0d55:	pop    ds
  4d0d56:	pop    ecx
  4d0d57:	jg     0x4d0cf3
  4d0d59:	dec    edx
  4d0d5a:	push   ecx
  4d0d5b:	aam    0x70
  4d0d5d:	stos   BYTE PTR es:[edi],al
  4d0d5e:	push   cs
  4d0d5f:	mov    ah,BYTE PTR [edi]
  4d0d61:	repz pop edx
  4d0d63:	fidiv  DWORD PTR [ebp-0x5c]
  4d0d66:	movs   DWORD PTR es:[edi],DWORD PTR ds:[esi]
  4d0d67:	(bad)  
  4d0d68:	js     0x4d0d66
  4d0d6a:	es dec ecx
  4d0d6c:	imul   edx,DWORD PTR [edi],0xffffffa9
  4d0d6f:	sub    BYTE PTR [edi+0x2bfb2277],ah
  4d0d75:	test   DWORD PTR [ecx],esp
  4d0d77:	lea    edx,[esi]
  4d0d79:	scas   al,BYTE PTR es:[edi]
  4d0d7a:	ja     0x4d0d35
  4d0d7c:	xchg   edx,eax
  4d0d7d:	jl     0x4d0df7
  4d0d7f:	cmp    eax,0x3d787c06
  4d0d84:	mov    edx,?
  4d0d86:	fdivr  QWORD PTR ds:0x8b57f28b
  4d0d8c:	sub    dh,dl
  4d0d8e:	push   edi
  4d0d8f:	mov    ebp,DWORD PTR [esi+0x2e0f5804]
  4d0d95:	add    al,0x58
  4d0d97:	cvttps2pi mm6,xmm7
  4d0d9a:	cmc    
  4d0d9b:	test   bl,dl
  4d0d9d:	hlt    
  4d0d9e:	push   cs
  4d0d9f:	aam    0x57
  4d0da1:	xor    BYTE PTR [esi-0x7b],bl
  4d0da4:	add    al,0x60
  4d0da6:	xor    al,0x81
  4d0da8:	imul   esp,DWORD PTR [eax+0x24],0xffffff81
  4d0dac:	push   0x37
  4d0dae:	cmps   DWORD PTR ds:[esi],DWORD PTR es:[edi]
  4d0daf:	imul   ebp,DWORD PTR [ebp+0x67],0x67046dcd
  4d0db6:	(bad)  [ebp+0x3]
  4d0db9:	xor    BYTE PTR [ecx+ebp*2+0x26],bl
  4d0dbd:	xor    BYTE PTR [ecx+ebp*2+0x25],cl
  4d0dc1:	iret   
  4d0dc2:	sbb    DWORD PTR [ebp-0x27],esp
  4d0dc5:	call   0xf73e:0x377f3f15
  4d0dcc:	sub    eax,0xc326f6bc
  4d0dd1:	aas    
  4d0dd2:	pop    ds
  4d0dd3:	and    ch,bh
  4d0dd5:	(bad)  
  4d0dd6:	jns    0x4d0d67
  4d0dd8:	mov    BYTE PTR [esi+0x79],dl
  4d0ddb:	mov    edi,0x405c5efb
  4d0de0:	repz pop esi
  4d0de2:	pop    esp
  4d0de3:	inc    ecx
  4d0de4:	out    0x59,al
  4d0de6:	mov    esi,0xfad4beaf
  4d0deb:	mov    edi,DWORD PTR [ecx+0x45dba885]
  4d0df1:	mov    ch,0xc0
  4d0df3:	fist   DWORD PTR [ebp+esi*4-0x40]
  4d0df7:	mov    esi,ss
  4d0df9:	pop    ebp
  4d0dfa:	(bad)  
  4d0dfb:	fsubr  QWORD PTR [eax]
  4d0dfd:	ins    DWORD PTR es:[edi],dx
  4d0dfe:	lods   al,BYTE PTR ds:[esi]
  4d0dff:	fdiv   QWORD PTR [edi]
  4d0e01:	ins    DWORD PTR es:[edi],dx
  4d0e02:	lods   al,BYTE PTR ds:[esi]
  4d0e03:	mov    esi,DWORD PTR [ebp-0x5b747797]
  4d0e09:	imul   ecx,DWORD PTR [eax+0x7765f074],0x2e3ffb21
  4d0e13:	jns    0x4d0db7
  4d0e15:	mov    edx,0xdb220ce7
  4d0e1a:	and    al,0x6c
  4d0e1c:	enter  0x89dc,0x8e
  4d0e20:	xor    al,0x51
  4d0e22:	mov    ebp,0x55daf68d
  4d0e27:	push   es
  4d0e28:	add    al,0x63
  4d0e2a:	inc    ebp
  4d0e2b:	push   es
  4d0e2c:	add    esp,DWORD PTR [ebx-0x53]
  4d0e2f:	in     eax,dx
  4d0e30:	sti    
  4d0e31:	pushf  
  4d0e32:	push   edx
  4d0e33:	push   esp
  4d0e34:	jecxz  0x4d0dd2
  4d0e36:	push   edx
  4d0e37:	push   esp
  4d0e38:	or     bh,BYTE PTR [ebp-0x53]
  4d0e3b:	stos   DWORD PTR es:[edi],eax
  4d0e3c:	hlt    
  4d0e3d:	sub    edx,DWORD PTR [esp+ebp*4]
  4d0e40:	repz sub edx,DWORD PTR [esp+eax*2]
  4d0e44:	and    al,0xd4
  4d0e46:	jmp    0x4d0e03
  4d0e48:	scas   al,BYTE PTR es:[edi]
  4d0e49:	add    al,0x60
  4d0e4b:	(bad)
  4d0e4f:	(bad)
  4d0e53:	dec    eax
  4d0e54:	jbe    0x4d0e98
  4d0e56:	jle    0x4d0e1b
  4d0e58:	xchg   ecx,ecx
  4d0e5a:	mov    ah,0x2b
  4d0e5c:	cmp    BYTE PTR [esi],dh
  4d0e5e:	dec    ebx
  4d0e5f:	aam    0xa
  4d0e61:	neg    BYTE PTR [ebx]
  4d0e63:	adc    eax,0x11daf1c1
  4d0e68:	in     al,0xfc
  4d0e6a:	fist   DWORD PTR ds:0xd55f50bf
  4d0e70:	leave  
  4d0e71:	mov    eax,ds:0x9a3d5e07
  4d0e76:	ret    0x3d2a
  4d0e79:	shl    BYTE PTR [edi-0x6c1b4a09],1
  4d0e7f:	dec    esi
  4d0e80:	mov    esi,0x554e93e4
  4d0e85:	jno    0x4d0ef3
  4d0e87:	mov    cl,0xa9
  4d0e89:	jle    0x4d0e66
  4d0e8b:	mov    ebp,0x48a20fe
  4d0e90:	cmc    
  4d0e91:	and    BYTE PTR [edx+0x75a51c04],cl
  4d0e97:	sti    
  4d0e98:	loop   0x4d0e96
  4d0e9a:	popf   
  4d0e9b:	test   BYTE PTR [ebx+eax*1],bl
  4d0e9e:	bound  ecx,QWORD PTR ds:0x6c7e2767
  4d0ea4:	mov    ds:0xbd84bf76,eax
  4d0ea9:	iret   
  4d0eaa:	lahf   
  4d0eab:	test   BYTE PTR [edi+ecx*8+0x768bf0d7],bh
  4d0eb2:	aad    0xf0
  4d0eb4:	mov    dh,BYTE PTR [esi-0x63]
  4d0eb7:	test   BYTE PTR [ecx-0x5f7b4231],ah
  4d0ebd:	iret   
  4d0ebe:	cmc    
  4d0ebf:	lock jg 0x4d0f38
  4d0ec2:	icebp  
  4d0ec3:	lock jle 0x4d0f3c
  4d0ec6:	mov    ecx,0xf9cf6584
  4d0ecb:	test   BYTE PTR [edi+ecx*8-0x4f],ah
  4d0ecf:	lock jae 0x4d0f48
  4d0ed2:	mov    ch,0xf0
  4d0ed4:	jb     0x4d0f4c
  4d0ed6:	std    
  4d0ed7:	test   BYTE PTR [ecx-0x31],bh
  4d0eda:	mov    ebp,0xf5cf7884
  4d0edf:	lock ja 0x4d0f26
  4d0ee2:	xor    al,0xa9
  4d0ee4:	mov    bl,0x24
  4d0ee6:	mov    edi,0x4da5c2fc
  4d0eeb:	ins    DWORD PTR es:[edi],dx
  4d0eec:	daa    
  4d0eed:	loopne 0x4d0f24
  4d0eef:	out    0x69,al
  4d0ef1:	mov    BYTE PTR [esi-0x190a16e8],bh
  4d0ef7:	sbb    BYTE PTR [esi+esi*8+0x7dc36de7],bl
  4d0efe:	mov    ds:0xd6bd450d,al
  4d0f03:	sbb    bl,cl
  4d0f05:	sti    
  4d0f06:	jmp    0x6f4a:0xeaff704a
  4d0f0d:	pop    ss
  4d0f0e:	dec    edi
  4d0f0f:	dec    ebx
  4d0f10:	outs   dx,BYTE PTR ds:[esi]
  4d0f11:	pop    ss
  4d0f12:	adc    eax,0xed149d48
  4d0f17:	arpl   WORD PTR [edi+ebp*1-0x68],dx
  4d0f1b:	cmp    esp,DWORD PTR [eax]
  4d0f1d:	and    bl,BYTE PTR [ebx-0x19de84b2]
  4d0f23:	adc    cl,BYTE PTR [edi+0x6c]
  4d0f26:	mov    edx,0xb1188597
  4d0f2b:	cmp    dl,ah
  4d0f2d:	sub    esi,DWORD PTR [ebx+0x60]
  4d0f30:	jle    0x4d0eda
  4d0f32:	call   0xfaa0:0xfb4b9b63
  4d0f39:	enter  0xec86,0xf9
  4d0f3d:	mov    esp,0xbcf50494
  4d0f42:	xchg   esp,eax
  4d0f43:	add    al,0x7d
  4d0f45:	rol    eax,0x81
  4d0f48:	xor    DWORD PTR [ebp+0x16682ac6],0x77672ac6
  4d0f52:	add    eax,0x3922974a
  4d0f57:	ror    DWORD PTR [esi-0x57],0x4c
  4d0f5b:	(bad)  
  4d0f5c:	(bad)  
  4d0f5d:	in     al,dx
  4d0f5e:	sbb    al,0xdd
  4d0f60:	xchg   ebx,eax
  4d0f61:	test   BYTE PTR [ebx*8+0x224f849e],bl
  4d0f68:	retf   0x16c4
  4d0f6b:	jb     0x4d0fad
  4d0f6d:	cmp    al,0xe5
  4d0f6f:	(bad)  
  4d0f70:	cmps   DWORD PTR ds:[esi],DWORD PTR es:[edi]
  4d0f71:	add    al,0xe5
  4d0f73:	(bad)  
  4d0f74:	cmps   BYTE PTR ds:[esi],BYTE PTR es:[edi]
  4d0f75:	dec    esp
  4d0f76:	ins    BYTE PTR es:[edi],dx
  4d0f77:	xchg   edx,eax
  4d0f78:	sub    DWORD PTR [edi+eiz*8+0x6a],0x6e5a600b
  4d0f80:	or     ah,BYTE PTR [eax+0x5a]
  4d0f83:	or     ch,BYTE PTR [edx-0x56f5a588]
  4d0f89:	repz sub ah,BYTE PTR [esi]
  4d0f8c:	neg    DWORD PTR [ebx-0x6405d9d6]
  4d0f92:	jns    0x4d0f6d
  4d0f94:	scas   al,BYTE PTR es:[edi]
  4d0f95:	fcomi  st,st(4)
  4d0f97:	aad    0x15
  4d0f99:	push   esp
  4d0f9a:	cmc    
  4d0f9b:	test   DWORD PTR [ebp+0x6d7d7e9b],ebx
  4d0fa1:	ds sbb bl,ah
  4d0fa4:	je     0x4d0fe4
  4d0fa6:	sbb    bl,ah
  4d0fa8:	cli    
  4d0fa9:	jle    0x4d0fe1
  4d0fab:	mov    ebp,0x51b71e38
  4d0fb0:	pop    ss
  4d0fb1:	sbb    al,0xb7
  4d0fb3:	push   ecx
  4d0fb4:	jle    0x4d0fee
  4d0fb6:	mov    ch,0x51
  4d0fb8:	jge    0x4d0fc5
  4d0fba:	inc    ebx
  4d0fbb:	cmp    edi,DWORD PTR [ecx+eiz*2+0x4b]
  4d0fbf:	les    ebp,FWORD PTR [eax]
  4d0fc1:	jge    0x4d0f83
  4d0fc3:	sbb    al,0x7b
  4d0fc5:	cs aas 
  4d0fc7:	dec    ecx
  4d0fc8:	dec    esi
  4d0fc9:	movs   DWORD PTR es:[edi],DWORD PTR ds:[esi]
  4d0fca:	jnp    0x4d1039
  4d0fcc:	push   ecx
  4d0fcd:	cmps   BYTE PTR ds:[esi],BYTE PTR es:[edi]
  4d0fce:	cmp    edx,DWORD PTR [ecx-0x27]
  4d0fd1:	es sti 
  4d0fd3:	push   ecx
  4d0fd4:	fsub   DWORD PTR [esi]
  4d0fd6:	jle    0x4d0f69
  4d0fd8:	stos   DWORD PTR es:[edi],eax
  4d0fd9:	daa    
  4d0fda:	cmp    ch,al
  4d0fdc:	neg    eax
  4d0fde:	ins    DWORD PTR es:[edi],dx
  4d0fdf:	std    
  4d0fe0:	jno    0x4d0ffa
  4d0fe2:	sbb    BYTE PTR [eax],bl
  4d0fe4:	and    edi,esp
  4d0fe6:	dec    ebp
  4d0fe7:	add    BYTE PTR [edi-0x61fd96dd],bl
  4d0fed:	and    esp,eax
  4d0fef:	jbe    0x4d0faa
  4d0ff1:	aas    
  4d0ff2:	xor    DWORD PTR [ebp-0x2612a828],0xab8557d7
  4d0ffc:	mov    ds:0xcec3e179,al
  4d1001:	or     dl,BYTE PTR [edi-0x3d0a6660]
  4d1007:	movs   BYTE PTR es:[edi],BYTE PTR ds:[esi]
  4d1008:	sbb    esi,DWORD PTR ds:0xca4eacb7
  4d100e:	loop   0x4d0fbc
  4d1010:	retf   0x960a
  4d1013:	loope  0x4d0fb4
  4d1015:	or     bh,dh
  4d1017:	mov    al,dh
  4d1019:	jle    0x4d0fb3
  4d101b:	loopne 0x4d0fb2
  4d101d:	or     eax,ebp
  4d101f:	xchg   edx,eax
  4d1020:	rcr    BYTE PTR [ecx+0x17],0xc7
  4d1024:	(bad)  
  4d1025:	fcmovbe st,st(3)
  4d1027:	retf   
  4d1028:	dec    ebx
  4d1029:	sub    al,BYTE PTR [ebx-0x1695df61]
  4d102f:	cwde   
  4d1030:	jne    0x4d0fc7
  4d1032:	mov    esp,0xe8c52c94
  4d1037:	les    eax,FWORD PTR [ebp-0x3e]
  4d103a:	mov    esi,0xbec2622c
  4d103f:	sub    al,0xe8
  4d1041:	(bad)  
  4d1042:	call   0x2dad:0x9aec2ead
  4d1049:	xchg   BYTE PTR [ebp-0x25dd220c],bl
  4d104f:	jg     0x4d106b
  4d1051:	mov    DWORD PTR [edi+0x1],edx
  4d1054:	loop   0x4d108f
  4d1056:	aas    
  4d1057:	stos   DWORD PTR es:[edi],eax
  4d1058:	mov    ecx,0x12688f92
  4d105d:	ins    DWORD PTR es:[edi],dx
  4d105e:	fisub  DWORD PTR [ecx+ecx*2-0x12]
  4d1062:	push   ds
  4d1063:	push   0x97462d27
  4d1068:	idiv   BYTE PTR [eax-0x52]
  4d106b:	or     ebp,esi
  4d106d:	js     0x4d101d
  4d106f:	push   esp
  4d1070:	ja     0x4d10af
  4d1072:	(bad)  
  4d1074:	mov    dh,0x39
  4d1076:	push   edi
  4d1077:	xchg   ebx,eax
  4d1078:	xchg   ecx,eax
  4d1079:	sub    DWORD PTR [edx],ecx
  4d107b:	xchg   ebx,eax
  4d107c:	nop
  4d107d:	sub    DWORD PTR [edx],ecx
  4d107f:	xchg   ebx,eax
  4d1080:	vprotq xmm9,[esi-0x18af9dd7],xmm3
  4d1089:	sbb    dl,BYTE PTR [esi+esi*1+0x50ce575c]
  4d1090:	lock xor ebp,edi
  4d1093:	add    BYTE PTR [ebx-0x7f9183c7],0x29
  4d109a:	jl     0x4d110a
  4d109c:	push   0xffffffc4
  4d109e:	icebp  
  4d109f:	xor    BYTE PTR [ebx+0x61450e40],dl
  4d10a5:	retf   
  4d10a6:	js     0x4d1127
  4d10a8:	push   es
  4d10a9:	jno    0x4d10d3
  4d10ab:	cmp    cl,BYTE PTR [edx+0x265c3645]
  4d10b1:	and    eax,DWORD PTR ds:0xc6c3528c
  4d10b7:	frstor [eax+0xa]
  4d10ba:	xchg   esi,esi
  4d10bc:	mov    eax,ds:0xa2828372
  4d10c1:	cdq    
  4d10c2:	je     0x4d1075
  4d10c4:	popa   
  4d10c5:	call   0xd875:0xc39c53b6
  4d10cc:	loopne 0x4d1079
  4d10ce:	pop    ds
  4d10cf:	fadd   QWORD PTR [edi-0x7923f055]
  4d10d5:	cld    
  4d10d6:	fdivr  QWORD PTR gs:[eax-0x57]
  4d10da:	jne    0x4d1133
  4d10dc:	xchg   DWORD PTR [eax],ebp
  4d10de:	cdq    
  4d10df:	push   ebx
  4d10e0:	test   DWORD PTR [eax],ebp
  4d10e2:	cdq    
  4d10e3:	fdivr  DWORD PTR [eax+0x40]
  4d10e6:	popf   
  4d10e7:	fnstenv [edi+0x40]
  4d10ea:	retf   0x878a
  4d10ed:	adc    eax,0x7d86e0ea
  4d10f2:	push   0xffffffe0
  4d10f4:	test   DWORD PTR [ebp+0x0],edi
  4d10f7:	jecxz  0x4d10e7
  4d10f9:	jge    0x4d1165
  4d10fb:	loop   0x4d1082
  4d10fd:	jge    0x4d1169
  4d10ff:	loop   0x4d1105
  4d1101:	sub    dl,BYTE PTR [ebp+0x51ab1fb7]
  4d1107:	mov    bl,0x1d
  4d1109:	stos   DWORD PTR es:[edi],eax
  4d110a:	push   ecx
  4d110b:	jo     0x4d1099
  4d110d:	repz scas al,BYTE PTR es:[edi]
  4d110f:	mov    al,ds:0xc10c2776
  4d1114:	sti    
  4d1115:	sbb    ecx,DWORD PTR [eax]
  4d1117:	mov    WORD PTR [ebp+0x6740a7a3],?
  4d111d:	cwde   
  4d111e:	mov    BYTE PTR ds:[esi+0x14],0x76
  4d1123:	movs   BYTE PTR es:[edi],BYTE PTR ds:[esi]
  4d1124:	cmps   BYTE PTR ds:[esi],BYTE PTR es:[edi]
  4d1125:	scas   ax,WORD PTR es:[edi]
  4d1127:	mov    edi,0xd371da45
  4d112c:	fnsave [ebp+ebp*8+0x7]
  4d1130:	sbb    al,0x57
  4d1132:	movs   BYTE PTR es:[edi],BYTE PTR ds:[esi]
  4d1133:	fwait
  4d1134:	ret    
  4d1135:	cmp    cl,BYTE PTR [ecx]
  4d1137:	mov    WORD PTR [ebx+esi*8],?
  4d113a:	mov    ds:0x399f7909,eax
  4d113f:	and    BYTE PTR [eax+0x1c],dh
  4d1142:	xor    al,BYTE PTR [edi-0x79db0538]
  4d1148:	xchg   esi,esp
  4d114a:	and    eax,0xc7ae3b0d
  4d114f:	retf   0x11b5
  4d1152:	fwait
  4d1153:	in     al,dx
  4d1154:	mov    dh,0x82
  4d1156:	movs   BYTE PTR es:[edi],BYTE PTR ds:[esi]
  4d1157:	pop    ebx
  4d1158:	mov    ch,0x82
  4d115a:	movs   BYTE PTR es:[edi],BYTE PTR ds:[esi]
  4d115b:	pop    ebx
  4d115c:	mov    ah,0x82
  4d115e:	movs   BYTE PTR es:[edi],BYTE PTR ds:[esi]
  4d115f:	pop    ebx
  4d1160:	mov    bl,0x82
  4d1162:	movs   BYTE PTR es:[edi],BYTE PTR ds:[esi]
  4d1163:	pop    ebx
  4d1164:	mov    dl,0x82
  4d1166:	movs   BYTE PTR es:[edi],BYTE PTR ds:[esi]
  4d1167:	pop    ebx
  4d1168:	mov    cl,0x82
  4d116a:	movs   BYTE PTR es:[edi],BYTE PTR ds:[esi]
  4d116b:	pop    ebx
  4d116c:	mov    al,0x82
  4d116e:	movs   BYTE PTR es:[edi],BYTE PTR ds:[esi]
  4d116f:	pop    ebx
  4d1170:	scas   eax,DWORD PTR es:[edi]
  4d1171:	and    BYTE PTR [ebx+ebx*2+0x5ba4daae],0xad
  4d1179:	and    BYTE PTR [ecx-0x5e7953a5],0x5b
  4d1180:	dec    ebp
  4d1181:	add    BYTE PTR ss:[esi+0x720488ea],bh
