
151db4a68203268c79bcc4874ff511fa4825add817fc2b791dc30bbd27faa2ac.exe:     file format pei-i386


Disassembly of section .text:

00401000 <.text>:
  401000:	mov    edi,edi
  401002:	push   ebp
  401003:	mov    ebp,esp
  401005:	sub    esp,0x60
  401008:	push   edx
  401009:	push   0x0
  40100b:	push   0x403040
  401010:	pop    eax
  401011:	call   DWORD PTR cs:[eax]
  401014:	pop    edx
  401015:	push   edx
  401016:	push   DWORD PTR [edx+0x304]
  40101c:	push   edi
  40101d:	push   DWORD PTR [edx+0x2b8]
  401023:	push   DWORD PTR [edx+0x140]
  401029:	call   0x401ccc
  40102e:	add    esp,0x10
  401031:	pop    edx
  401032:	push   edx
  401033:	push   0x0
  401035:	push   0x403000
  40103a:	pop    eax
  40103b:	call   DWORD PTR cs:[eax]
  40103e:	pop    edx
  40103f:	sub    esp,0xffffffa0
  401042:	mov    ebp,DWORD PTR [esp]
  401045:	add    esp,0x4
  401048:	ret    
  401049:	add    BYTE PTR [eax],al
  40104b:	add    BYTE PTR [ebx-0x1374aa01],cl
  401051:	sub    esp,0x50
  401054:	push   edx
  401055:	mov    esi,0x0
  40105a:	push   esi
  40105b:	push   0x403000
  401060:	pop    eax
  401061:	call   DWORD PTR cs:[eax]
  401064:	pop    edx
  401065:	push   edx
  401066:	push   DWORD PTR [edx+0x250]
  40106c:	push   edi
  40106d:	push   DWORD PTR [edx+0x1ac]
  401073:	call   0x4018d0
  401078:	add    esp,0xc
  40107b:	pop    edx
  40107c:	push   edx
  40107d:	mov    esi,0x0
  401082:	push   esi
  401083:	push   0x403014
  401088:	pop    eax
  401089:	call   DWORD PTR cs:[eax]
  40108c:	pop    edx
  40108d:	sub    esp,0xffffffb0
  401090:	mov    ebp,DWORD PTR [esp]
  401093:	add    esp,0x4
  401096:	ret    
  401097:	add    BYTE PTR [ebx-0x74aa9f01],cl
  40109d:	in     al,dx
  40109e:	sub    esp,0x2c
  4010a1:	push   edx
  4010a2:	push   0x0
  4010a4:	push   0x40301c
  4010a9:	pop    eax
  4010aa:	call   DWORD PTR cs:[eax]
  4010ad:	pop    edx
  4010ae:	test   eax,eax
  4010b0:	je     0x4010b3
  4010b2:	ret    
  4010b3:	push   edx
  4010b4:	push   ecx
  4010b5:	push   DWORD PTR [edx+0x43c]
  4010bb:	push   DWORD PTR [edx+0x148]
  4010c1:	push   DWORD PTR [edx+0x1f0]
  4010c7:	call   0x401b30
  4010cc:	add    esp,0x10
  4010cf:	pop    edx
  4010d0:	push   edx
  4010d1:	mov    esi,0x0
  4010d6:	push   esi
  4010d7:	push   0x403030
  4010dc:	pop    eax
  4010dd:	call   DWORD PTR cs:[eax]
  4010e0:	pop    edx
  4010e1:	mov    esi,0x403024
  4010e6:	mov    esi,DWORD PTR [esi]
  4010e8:	push   esi
  4010e9:	push   DWORD PTR [edx+0x24c]
  4010ef:	pop    ebx
  4010f0:	call   ebx
  4010f2:	sub    esp,0xffffffd4
  4010f5:	mov    ebp,DWORD PTR [esp]
  4010f8:	add    esp,0x4
  4010fb:	ret    
	...
  401108:	ja     0x401098
  40110e:	add    BYTE PTR [eax],al
  401110:	mov    edi,edi
  401112:	push   ebp
  401113:	mov    ebp,esp
  401115:	sub    esp,0x48
  401118:	push   edx
  401119:	mov    ebx,0x0
  40111e:	push   ebx
  40111f:	push   0x403030
  401124:	pop    eax
  401125:	call   DWORD PTR cs:[eax]
  401128:	pop    edx
  401129:	push   edx
  40112a:	push   DWORD PTR [edx+0x1bc]
  401130:	push   ebx
  401131:	push   eax
  401132:	push   DWORD PTR [edx+0x44c]
  401138:	call   0x401e24
  40113d:	add    esp,0x10
  401140:	pop    edx
  401141:	push   edx
  401142:	mov    edi,0x0
  401147:	push   edi
  401148:	push   0x403054
  40114d:	pop    eax
  40114e:	call   DWORD PTR cs:[eax]
  401151:	pop    edx
  401152:	sub    esp,0xffffffb8
  401155:	mov    ebp,DWORD PTR [esp]
  401158:	add    esp,0x4
  40115b:	ret    
	...
  401168:	mov    edi,edi
  40116a:	push   ebp
  40116b:	mov    ebp,esp
  40116d:	sub    esp,0x48
  401170:	push   edx
  401171:	mov    eax,0x0
  401176:	push   eax
  401177:	push   0x403034
  40117c:	pop    eax
  40117d:	call   DWORD PTR cs:[eax]
  401180:	pop    edx
  401181:	push   edx
  401182:	push   DWORD PTR [edx+0x230]
  401188:	push   DWORD PTR [edx+0x47c]
  40118e:	push   DWORD PTR [edx+0x3f0]
  401194:	call   0x401774
  401199:	add    esp,0xc
  40119c:	pop    edx
  40119d:	push   edx
  40119e:	mov    eax,0x0
  4011a3:	push   eax
  4011a4:	push   0x403068
  4011a9:	pop    eax
  4011aa:	call   DWORD PTR cs:[eax]
  4011ad:	pop    edx
  4011ae:	sub    esp,0xffffffb8
  4011b1:	mov    ebp,DWORD PTR [esp]
  4011b4:	add    esp,0x4
  4011b7:	ret    
  4011b8:	mov    edi,edi
  4011ba:	push   ebp
  4011bb:	mov    ebp,esp
  4011bd:	sub    esp,0x60
  4011c0:	push   edx
  4011c1:	push   ebx
  4011c2:	push   DWORD PTR [edx+0x22c]
  4011c8:	call   0x401c00
  4011cd:	add    esp,0x8
  4011d0:	pop    edx
  4011d1:	push   edx
  4011d2:	push   0x0
  4011d4:	push   0x403040
  4011d9:	pop    eax
  4011da:	call   DWORD PTR cs:[eax]
  4011dd:	pop    edx
  4011de:	push   edx
  4011df:	push   0x0
  4011e1:	push   0x403000
  4011e6:	pop    eax
  4011e7:	call   DWORD PTR cs:[eax]
  4011ea:	pop    edx
  4011eb:	sub    esp,0xffffffa0
  4011ee:	mov    ebp,DWORD PTR [esp]
  4011f1:	add    esp,0x4
  4011f4:	ret    
  4011f5:	add    BYTE PTR [eax],al
  4011f7:	add    BYTE PTR [ebx-0x1374aa01],cl
  4011fd:	sub    esp,0x24
  401200:	push   edx
  401201:	push   0x403018
  401206:	pop    eax
  401207:	call   DWORD PTR cs:[eax]
  40120a:	pop    edx
  40120b:	push   edx
  40120c:	push   ecx
  40120d:	push   DWORD PTR [edx+0x330]
  401213:	push   ecx
  401214:	call   0x40134c
  401219:	add    esp,0xc
  40121c:	pop    edx
  40121d:	push   edx
  40121e:	mov    edi,0x0
  401223:	push   edi
  401224:	push   0x40301c
  401229:	pop    eax
  40122a:	call   DWORD PTR cs:[eax]
  40122d:	pop    edx
  40122e:	sub    esp,0xffffffdc
  401231:	mov    ebp,DWORD PTR [esp]
  401234:	add    esp,0x4
  401237:	ret    
  401238:	add    BYTE PTR [eax],al
  40123a:	add    BYTE PTR [eax],al
  40123c:	mov    edi,edi
  40123e:	push   ebp
  40123f:	mov    ebp,esp
  401241:	sub    esp,0x3c
  401244:	push   edx
  401245:	push   esi
  401246:	push   esi
  401247:	call   0x401894
  40124c:	add    esp,0x8
  40124f:	pop    edx
  401250:	push   edx
  401251:	mov    ecx,0x0
  401256:	push   ecx
  401257:	push   0x403054
  40125c:	pop    eax
  40125d:	call   DWORD PTR cs:[eax]
  401260:	pop    edx
  401261:	push   edx
  401262:	push   0x0
  401264:	push   0x403028
  401269:	pop    eax
  40126a:	call   DWORD PTR cs:[eax]
  40126d:	pop    edx
  40126e:	sub    esp,0xffffffc4
  401271:	mov    ebp,DWORD PTR [esp]
  401274:	add    esp,0x4
  401277:	ret    
  401278:	add    BYTE PTR [eax],al
  40127a:	add    BYTE PTR [eax],al
  40127c:	mov    edi,edi
  40127e:	push   ebp
  40127f:	mov    ebp,esp
  401281:	sub    esp,0x4c
  401284:	push   edx
  401285:	push   esi
  401286:	push   ecx
  401287:	push   ebx
  401288:	call   0x401000
  40128d:	add    esp,0xc
  401290:	pop    edx
  401291:	push   edx
  401292:	push   0x0
  401294:	push   0x403028
  401299:	pop    eax
  40129a:	call   DWORD PTR cs:[eax]
  40129d:	pop    edx
  40129e:	push   edx
  40129f:	push   0x0
  4012a1:	push   0x403040
  4012a6:	pop    eax
  4012a7:	call   DWORD PTR cs:[eax]
  4012aa:	pop    edx
  4012ab:	sub    esp,0xffffffb4
  4012ae:	mov    ebp,DWORD PTR [esp]
  4012b1:	add    esp,0x4
  4012b4:	ret    
  4012b5:	add    BYTE PTR [eax],al
  4012b7:	add    BYTE PTR [ebx-0x1374aa01],cl
  4012bd:	sub    esp,0x4c
  4012c0:	push   edx
  4012c1:	push   edi
  4012c2:	push   DWORD PTR [edx+0x1b8]
  4012c8:	push   DWORD PTR [edx+0x5ec]
  4012ce:	call   0x4015c8
  4012d3:	add    esp,0xc
  4012d6:	pop    edx
  4012d7:	push   edx
  4012d8:	mov    ecx,0x0
  4012dd:	push   ecx
  4012de:	push   0x403040
  4012e3:	pop    eax
  4012e4:	call   DWORD PTR cs:[eax]
  4012e7:	pop    edx
  4012e8:	push   edx
  4012e9:	push   0x0
  4012eb:	push   0x40301c
  4012f0:	pop    eax
  4012f1:	call   DWORD PTR cs:[eax]
  4012f4:	pop    edx
  4012f5:	sub    esp,0xffffffb4
  4012f8:	mov    ebp,DWORD PTR [esp]
  4012fb:	add    esp,0x4
  4012fe:	ret    
  4012ff:	add    BYTE PTR [eax],al
  401301:	add    BYTE PTR [eax],al
  401303:	add    BYTE PTR [ebx-0x1374aa01],cl
  401309:	sub    esp,0x38
  40130c:	push   edx
  40130d:	push   DWORD PTR [edx+0x2f0]
  401313:	push   DWORD PTR [edx+0x1dc]
  401319:	push   ebx
  40131a:	call   0x401d98
  40131f:	add    esp,0xc
  401322:	pop    edx
  401323:	push   edx
  401324:	push   0x403018
  401329:	pop    eax
  40132a:	call   DWORD PTR cs:[eax]
  40132d:	pop    edx
  40132e:	push   edx
  40132f:	mov    esi,0x0
  401334:	push   esi
  401335:	push   0x40301c
  40133a:	pop    eax
  40133b:	call   DWORD PTR cs:[eax]
  40133e:	pop    edx
  40133f:	sub    esp,0xffffffc8
  401342:	mov    ebp,DWORD PTR [esp]
  401345:	add    esp,0x4
  401348:	ret    
  401349:	add    BYTE PTR [eax],al
  40134b:	add    BYTE PTR [ebx-0x1374aa01],cl
  401351:	sub    esp,0x28
  401354:	push   edx
  401355:	push   0x0
  401357:	push   0x40305c
  40135c:	pop    eax
  40135d:	call   DWORD PTR cs:[eax]
  401360:	pop    edx
  401361:	push   edx
  401362:	push   ecx
  401363:	push   ecx
  401364:	push   DWORD PTR [edx+0xc4]
  40136a:	push   eax
  40136b:	call   0x401584
  401370:	add    esp,0x10
  401373:	pop    edx
  401374:	push   edx
  401375:	push   0x0
  401377:	push   0x403014
  40137c:	pop    eax
  40137d:	call   DWORD PTR cs:[eax]
  401380:	pop    edx
  401381:	sub    esp,0xffffffd8
  401384:	mov    ebp,DWORD PTR [esp]
  401387:	add    esp,0x4
  40138a:	ret    
  40138b:	add    BYTE PTR [eax],al
  40138d:	add    BYTE PTR [eax],al
  40138f:	add    BYTE PTR [ebx-0x1374aa01],cl
  401395:	sub    esp,0x5c
  401398:	push   edx
  401399:	push   0x0
  40139b:	push   0x403014
  4013a0:	pop    eax
  4013a1:	call   DWORD PTR cs:[eax]
  4013a4:	pop    edx
  4013a5:	push   edx
  4013a6:	push   DWORD PTR [edx+0x10]
  4013a9:	push   DWORD PTR [edx+0x2f8]
  4013af:	push   ecx
  4013b0:	push   ecx
  4013b1:	call   0x401428
  4013b6:	add    esp,0x10
  4013b9:	pop    edx
  4013ba:	push   edx
  4013bb:	mov    edx,0x0
  4013c0:	push   edx
  4013c1:	push   0x403004
  4013c6:	pop    eax
  4013c7:	call   DWORD PTR cs:[eax]
  4013ca:	pop    edx
  4013cb:	sub    esp,0xffffffa4
  4013ce:	mov    ebp,DWORD PTR [esp]
  4013d1:	add    esp,0x4
  4013d4:	ret    
  4013d5:	add    BYTE PTR [eax],al
  4013d7:	add    BYTE PTR [ebx-0x1374aa01],cl
  4013dd:	sub    esp,0x54
  4013e0:	push   edx
  4013e1:	push   DWORD PTR [edx+0xe8]
  4013e7:	push   edi
  4013e8:	push   edi
  4013e9:	call   0x401d14
  4013ee:	add    esp,0xc
  4013f1:	pop    edx
  4013f2:	push   edx
  4013f3:	push   0x40300c
  4013f8:	pop    eax
  4013f9:	call   DWORD PTR cs:[eax]
  4013fc:	pop    edx
  4013fd:	push   edx
  4013fe:	lea    ebx,[edx]
  401400:	push   ebx
  401401:	push   0x403024
  401406:	pop    eax
  401407:	call   DWORD PTR cs:[eax]
  40140a:	test   eax,eax
  40140c:	jne    0x4013fe
  40140e:	pop    edx
  40140f:	sub    esp,0xffffffac
  401412:	mov    ebp,DWORD PTR [esp]
  401415:	add    esp,0x4
  401418:	ret    
	...
  401425:	add    BYTE PTR [eax],al
  401427:	add    BYTE PTR [ebx-0x1374aa01],cl
  40142d:	sub    esp,0x38
  401430:	push   edx
  401431:	push   edi
  401432:	push   ebx
  401433:	push   DWORD PTR [edx+0x50c]
  401439:	call   0x401a50
  40143e:	add    esp,0xc
  401441:	pop    edx
  401442:	push   edx
  401443:	push   0x40300c
  401448:	pop    eax
  401449:	call   DWORD PTR cs:[eax]
  40144c:	pop    edx
  40144d:	push   edx
  40144e:	push   0x40300c
  401453:	pop    eax
  401454:	call   DWORD PTR cs:[eax]
  401457:	pop    edx
  401458:	sub    esp,0xffffffc8
  40145b:	mov    ebp,DWORD PTR [esp]
  40145e:	add    esp,0x4
  401461:	ret    
  401462:	add    BYTE PTR [eax],al
  401464:	add    BYTE PTR [eax],al
  401466:	add    BYTE PTR [eax],al
  401468:	push   0x0
  40146a:	add    DWORD PTR [esp],0x45f000
  401471:	push   DWORD PTR ds:0x40308c
  401477:	pop    eax
  401478:	xor    ax,ax
  40147b:	adc    eax,DWORD PTR [eax+0x3c]
  40147e:	cmp    BYTE PTR [eax+0x1d],0x80
  401482:	jb     0x40148a
  401484:	pop    edx
  401485:	jmp    0x401108
  40148a:	xor    esp,esp
  40148c:	int    0x3
	...
  401496:	add    BYTE PTR [eax],al
  401498:	mov    edi,edi
  40149a:	push   ebp
  40149b:	mov    ebp,esp
  40149d:	sub    esp,0x58
  4014a0:	push   edx
  4014a1:	mov    edx,0x0
  4014a6:	push   edx
  4014a7:	push   0x40302c
  4014ac:	pop    eax
  4014ad:	call   DWORD PTR cs:[eax]
  4014b0:	pop    edx
  4014b1:	push   edx
  4014b2:	push   ebx
  4014b3:	push   ecx
  4014b4:	push   eax
  4014b5:	call   0x401d50
  4014ba:	add    esp,0xc
  4014bd:	pop    edx
  4014be:	push   edx
  4014bf:	mov    eax,0x0
  4014c4:	push   eax
  4014c5:	push   0x403014
  4014ca:	pop    eax
  4014cb:	call   DWORD PTR cs:[eax]
  4014ce:	pop    edx
  4014cf:	sub    esp,0xffffffa8
  4014d2:	mov    ebp,DWORD PTR [esp]
  4014d5:	add    esp,0x4
  4014d8:	ret    
  4014d9:	add    BYTE PTR [eax],al
  4014db:	add    BYTE PTR [ebx-0x1374aa01],cl
  4014e1:	sub    esp,0x44
  4014e4:	push   edx
  4014e5:	mov    edi,0x6b0
  4014ea:	push   edi
  4014eb:	push   0x6b0
  4014f0:	mov    edi,0x40000
  4014f5:	push   edi
  4014f6:	push   0x40304c
  4014fb:	pop    edx
  4014fc:	push   DWORD PTR [edx]
  4014fe:	sub    DWORD PTR [esp],0x2
  401502:	push   0x403044
  401507:	pop    edx
  401508:	pop    DWORD PTR [edx]
  40150a:	push   0x403044
  40150f:	pop    eax
  401510:	call   DWORD PTR cs:[eax]
  401513:	xchg   DWORD PTR [esp],eax
  401516:	mov    edx,eax
  401518:	pop    ecx
  401519:	mov    DWORD PTR [edx+0x24c],ecx
  40151f:	mov    ebx,DWORD PTR [edx+0x24c]
  401525:	mov    ebx,ebx
  401527:	sub    esi,esi
  401529:	dec    esi
  40152a:	and    esi,0x401e85
  401530:	mov    eax,DWORD PTR [esi]
  401532:	mov    DWORD PTR [ebx],eax
  401534:	add    esi,0x3
  401537:	add    ebx,0x3
  40153a:	mov    eax,0x6a719112
  40153f:	xor    edi,edi
  401541:	cmp    edi,0x6b0
  401547:	je     0x401565
  401549:	sub    edi,0xfffffffc
  40154c:	mov    ecx,eax
  40154e:	xor    ecx,DWORD PTR [esi]
  401550:	sub    ecx,0x1
  401553:	mov    DWORD PTR [ebx],ecx
  401555:	push   DWORD PTR [ebx]
  401557:	mov    eax,0xfffffffc
  40155c:	sub    esi,eax
  40155e:	sub    ebx,eax
  401560:	pop    eax
  401561:	bswap  eax
  401563:	jmp    0x401541
  401565:	push   edx
  401566:	push   0x0
  401568:	push   0x403014
  40156d:	pop    eax
  40156e:	call   DWORD PTR cs:[eax]
  401571:	pop    edx
  401572:	sub    esp,0xffffffbc
  401575:	pop    ebp
  401576:	ret    
	...
  401583:	add    BYTE PTR [ebx-0x1374aa01],cl
  401589:	sub    esp,0x30
  40158c:	push   edx
  40158d:	mov    eax,0x0
  401592:	push   eax
  401593:	push   0x40305c
  401598:	pop    eax
  401599:	call   DWORD PTR cs:[eax]
  40159c:	pop    edx
  40159d:	push   edx
  40159e:	push   DWORD PTR [edx+0x4]
  4015a1:	push   esi
  4015a2:	push   esi
  4015a3:	push   edi
  4015a4:	call   0x401304
  4015a9:	add    esp,0x10
  4015ac:	pop    edx
  4015ad:	push   edx
  4015ae:	push   0x40300c
  4015b3:	pop    eax
  4015b4:	call   DWORD PTR cs:[eax]
  4015b7:	pop    edx
  4015b8:	sub    esp,0xffffffd0
  4015bb:	mov    ebp,DWORD PTR [esp]
  4015be:	add    esp,0x4
  4015c1:	ret    
  4015c2:	add    BYTE PTR [eax],al
  4015c4:	add    BYTE PTR [eax],al
  4015c6:	add    BYTE PTR [eax],al
  4015c8:	mov    edi,edi
  4015ca:	push   ebp
  4015cb:	mov    ebp,esp
  4015cd:	sub    esp,0x40
  4015d0:	push   edx
  4015d1:	push   ecx
  4015d2:	push   ecx
  4015d3:	push   ebx
  4015d4:	call   0x40104c
  4015d9:	add    esp,0xc
  4015dc:	pop    edx
  4015dd:	push   edx
  4015de:	lea    ecx,[edx]
  4015e0:	push   ecx
  4015e1:	push   0x403024
  4015e6:	pop    eax
  4015e7:	call   DWORD PTR cs:[eax]
  4015ea:	test   eax,eax
  4015ec:	jne    0x4015de
  4015ee:	pop    edx
  4015ef:	push   edx
  4015f0:	mov    eax,0x0
  4015f5:	push   eax
  4015f6:	push   0x403014
  4015fb:	pop    eax
  4015fc:	call   DWORD PTR cs:[eax]
  4015ff:	pop    edx
  401600:	sub    esp,0xffffffc0
  401603:	mov    ebp,DWORD PTR [esp]
  401606:	add    esp,0x4
  401609:	ret    
  40160a:	add    BYTE PTR [eax],al
  40160c:	add    BYTE PTR [eax],al
  40160e:	add    BYTE PTR [eax],al
  401610:	mov    edi,edi
  401612:	push   ebp
  401613:	mov    ebp,esp
  401615:	sub    esp,0x34
  401618:	push   edx
  401619:	push   0x0
  40161b:	push   0x403030
  401620:	pop    eax
  401621:	call   DWORD PTR cs:[eax]
  401624:	pop    edx
  401625:	push   edx
  401626:	push   DWORD PTR [edx+0x1dc]
  40162c:	push   DWORD PTR [edx+0x78]
  40162f:	push   ecx
  401630:	push   DWORD PTR [edx+0x270]
  401636:	call   0x401808
  40163b:	add    esp,0x10
  40163e:	pop    edx
  40163f:	push   edx
  401640:	lea    ecx,[edx]
  401642:	push   ecx
  401643:	push   0x403024
  401648:	pop    eax
  401649:	call   DWORD PTR cs:[eax]
  40164c:	test   eax,eax
  40164e:	jne    0x401640
  401650:	pop    edx
  401651:	sub    esp,0xffffffcc
  401654:	mov    ebp,DWORD PTR [esp]
  401657:	add    esp,0x4
  40165a:	ret    
  40165b:	add    BYTE PTR [eax],al
  40165d:	add    BYTE PTR [eax],al
  40165f:	add    BYTE PTR [ebx-0x1374aa01],cl
  401665:	sub    esp,0x1c
  401668:	push   edx
  401669:	push   0x0
  40166b:	push   0x403004
  401670:	pop    eax
  401671:	call   DWORD PTR cs:[eax]
  401674:	pop    edx
  401675:	push   edx
  401676:	push   eax
  401677:	push   edi
  401678:	push   DWORD PTR [edx+0x2b4]
  40167e:	call   0x401b74
  401683:	add    esp,0xc
  401686:	pop    edx
  401687:	push   edx
  401688:	mov    esi,0x0
  40168d:	push   esi
  40168e:	push   0x403040
  401693:	pop    eax
  401694:	call   DWORD PTR cs:[eax]
  401697:	pop    edx
  401698:	sub    esp,0xffffffe4
  40169b:	mov    ebp,DWORD PTR [esp]
  40169e:	add    esp,0x4
  4016a1:	ret    
  4016a2:	add    BYTE PTR [eax],al
  4016a4:	mov    edi,edi
  4016a6:	push   ebp
  4016a7:	mov    ebp,esp
  4016a9:	sub    esp,0x34
  4016ac:	push   edx
  4016ad:	push   DWORD PTR [edx+0x3d0]
  4016b3:	push   ebx
  4016b4:	call   0x4013d8
  4016b9:	add    esp,0x8
  4016bc:	pop    edx
  4016bd:	push   edx
  4016be:	mov    ecx,0x0
  4016c3:	push   ecx
  4016c4:	push   0x403040
  4016c9:	pop    eax
  4016ca:	call   DWORD PTR cs:[eax]
  4016cd:	pop    edx
  4016ce:	push   edx
  4016cf:	lea    ecx,[edx]
  4016d1:	push   ecx
  4016d2:	push   0x403024
  4016d7:	pop    eax
  4016d8:	call   DWORD PTR cs:[eax]
  4016db:	test   eax,eax
  4016dd:	jne    0x4016cf
  4016df:	pop    edx
  4016e0:	sub    esp,0xffffffcc
  4016e3:	mov    ebp,DWORD PTR [esp]
  4016e6:	add    esp,0x4
  4016e9:	ret    
  4016ea:	add    BYTE PTR [eax],al
  4016ec:	mov    edi,edi
  4016ee:	push   ebp
  4016ef:	mov    ebp,esp
  4016f1:	sub    esp,0x1c
  4016f4:	push   edx
  4016f5:	push   ebx
  4016f6:	push   DWORD PTR [edx+0x5ec]
  4016fc:	push   DWORD PTR [edx+0x430]
  401702:	call   0x401974
  401707:	add    esp,0xc
  40170a:	pop    edx
  40170b:	push   edx
  40170c:	mov    edi,0x0
  401711:	push   edi
  401712:	push   0x403028
  401717:	pop    eax
  401718:	call   DWORD PTR cs:[eax]
  40171b:	pop    edx
  40171c:	push   edx
  40171d:	push   0x0
  40171f:	push   0x403054
  401724:	pop    eax
  401725:	call   DWORD PTR cs:[eax]
  401728:	pop    edx
  401729:	sub    esp,0xffffffe4
  40172c:	mov    ebp,DWORD PTR [esp]
  40172f:	add    esp,0x4
  401732:	ret    
  401733:	add    BYTE PTR [ebx-0x1374aa01],cl
  401739:	sub    esp,0x5c
  40173c:	push   edx
  40173d:	mov    edi,0x0
  401742:	push   edi
  401743:	push   0x403068
  401748:	pop    eax
  401749:	call   DWORD PTR cs:[eax]
  40174c:	pop    edx
  40174d:	push   edx
  40174e:	push   ecx
  40174f:	push   edi
  401750:	call   0x401c88
  401755:	add    esp,0x8
  401758:	pop    edx
  401759:	push   edx
  40175a:	mov    ecx,0x0
  40175f:	push   ecx
  401760:	push   0x403004
  401765:	pop    eax
  401766:	call   DWORD PTR cs:[eax]
  401769:	pop    edx
  40176a:	sub    esp,0xffffffa4
  40176d:	mov    ebp,DWORD PTR [esp]
  401770:	add    esp,0x4
  401773:	ret    
  401774:	mov    edi,edi
  401776:	push   ebp
  401777:	mov    ebp,esp
  401779:	sub    esp,0x3c
  40177c:	push   edx
  40177d:	push   eax
  40177e:	push   DWORD PTR [edx+0x57c]
  401784:	call   0x4016ec
  401789:	add    esp,0x8
  40178c:	pop    edx
  40178d:	push   edx
  40178e:	push   0x0
  401790:	push   0x40302c
  401795:	pop    eax
  401796:	call   DWORD PTR cs:[eax]
  401799:	pop    edx
  40179a:	push   edx
  40179b:	push   0x0
  40179d:	push   0x403054
  4017a2:	pop    eax
  4017a3:	call   DWORD PTR cs:[eax]
  4017a6:	pop    edx
  4017a7:	sub    esp,0xffffffc4
  4017aa:	mov    ebp,DWORD PTR [esp]
  4017ad:	add    esp,0x4
  4017b0:	ret    
  4017b1:	add    BYTE PTR [eax],al
  4017b3:	add    BYTE PTR [ebx-0x1374aa01],cl
  4017b9:	sub    esp,0x34
  4017bc:	push   edx
  4017bd:	mov    ecx,0x0
  4017c2:	push   ecx
  4017c3:	push   0x40301c
  4017c8:	pop    eax
  4017c9:	call   DWORD PTR cs:[eax]
  4017cc:	pop    edx
  4017cd:	push   edx
  4017ce:	push   DWORD PTR [edx+0x3a8]
  4017d4:	push   ecx
  4017d5:	push   DWORD PTR [edx+0x3f4]
  4017db:	push   edi
  4017dc:	call   0x401390
  4017e1:	add    esp,0x10
  4017e4:	pop    edx
  4017e5:	push   edx
  4017e6:	lea    esi,[edx]
  4017e8:	push   esi
  4017e9:	push   0x403024
  4017ee:	pop    eax
  4017ef:	call   DWORD PTR cs:[eax]
  4017f2:	test   eax,eax
  4017f4:	jne    0x4017e6
  4017f6:	pop    edx
  4017f7:	sub    esp,0xffffffcc
  4017fa:	mov    ebp,DWORD PTR [esp]
  4017fd:	add    esp,0x4
  401800:	ret    
  401801:	add    BYTE PTR [eax],al
  401803:	add    BYTE PTR [eax],al
  401805:	add    BYTE PTR [eax],al
  401807:	add    BYTE PTR [ebx-0x1374aa01],cl
  40180d:	sub    esp,0x4c
  401810:	push   edx
  401811:	mov    ebx,0x0
  401816:	push   ebx
  401817:	push   0x403004
  40181c:	pop    eax
  40181d:	call   DWORD PTR cs:[eax]
  401820:	pop    edx
  401821:	push   edx
  401822:	push   ecx
  401823:	push   eax
  401824:	push   DWORD PTR [edx+0x440]
  40182a:	call   0x40184c
  40182f:	add    esp,0xc
  401832:	pop    edx
  401833:	push   edx
  401834:	push   0x0
  401836:	push   0x40305c
  40183b:	pop    eax
  40183c:	call   DWORD PTR cs:[eax]
  40183f:	pop    edx
  401840:	sub    esp,0xffffffb4
  401843:	mov    ebp,DWORD PTR [esp]
  401846:	add    esp,0x4
  401849:	ret    
  40184a:	add    BYTE PTR [eax],al
  40184c:	mov    edi,edi
  40184e:	push   ebp
  40184f:	mov    ebp,esp
  401851:	sub    esp,0x24
  401854:	push   edx
  401855:	mov    edi,0x0
  40185a:	push   edi
  40185b:	push   0x403034
  401860:	pop    eax
  401861:	call   DWORD PTR cs:[eax]
  401864:	pop    edx
  401865:	push   edx
  401866:	push   eax
  401867:	push   ebx
  401868:	call   0x4011b8
  40186d:	add    esp,0x8
  401870:	pop    edx
  401871:	push   edx
  401872:	push   0x403018
  401877:	pop    eax
  401878:	call   DWORD PTR cs:[eax]
  40187b:	pop    edx
  40187c:	sub    esp,0xffffffdc
  40187f:	mov    ebp,DWORD PTR [esp]
  401882:	add    esp,0x4
  401885:	ret    
	...
  401892:	add    BYTE PTR [eax],al
  401894:	mov    edi,edi
  401896:	push   ebp
  401897:	mov    ebp,esp
  401899:	sub    esp,0x34
  40189c:	push   edx
  40189d:	push   0x0
  40189f:	push   0x403054
  4018a4:	pop    eax
  4018a5:	call   DWORD PTR cs:[eax]
  4018a8:	pop    edx
  4018a9:	push   edx
  4018aa:	push   ecx
  4018ab:	push   ecx
  4018ac:	push   eax
  4018ad:	push   edi
  4018ae:	call   0x4016a4
  4018b3:	add    esp,0x10
  4018b6:	pop    edx
  4018b7:	push   edx
  4018b8:	push   0x0
  4018ba:	push   0x40305c
  4018bf:	pop    eax
  4018c0:	call   DWORD PTR cs:[eax]
  4018c3:	pop    edx
  4018c4:	sub    esp,0xffffffcc
  4018c7:	mov    ebp,DWORD PTR [esp]
  4018ca:	add    esp,0x4
  4018cd:	ret    
  4018ce:	add    BYTE PTR [eax],al
  4018d0:	mov    edi,edi
  4018d2:	push   ebp
  4018d3:	mov    ebp,esp
  4018d5:	sub    esp,0x3c
  4018d8:	push   edx
  4018d9:	mov    esi,0x0
  4018de:	push   esi
  4018df:	push   0x40305c
  4018e4:	pop    eax
  4018e5:	call   DWORD PTR cs:[eax]
  4018e8:	pop    edx
  4018e9:	push   edx
  4018ea:	push   DWORD PTR [edx+0x464]
  4018f0:	push   eax
  4018f1:	call   0x401110
  4018f6:	add    esp,0x8
  4018f9:	pop    edx
  4018fa:	push   edx
  4018fb:	mov    edi,0x0
  401900:	push   edi
  401901:	push   0x403034
  401906:	pop    eax
  401907:	call   DWORD PTR cs:[eax]
  40190a:	pop    edx
  40190b:	sub    esp,0xffffffc4
  40190e:	mov    ebp,DWORD PTR [esp]
  401911:	add    esp,0x4
  401914:	ret    
	...
  40191d:	add    BYTE PTR [eax],al
  40191f:	add    BYTE PTR [ebx-0x1374aa01],cl
  401925:	sub    esp,0x4c
  401928:	push   edx
  401929:	mov    edx,0x0
  40192e:	push   edx
  40192f:	push   0x403040
  401934:	pop    eax
  401935:	call   DWORD PTR cs:[eax]
  401938:	pop    edx
  401939:	push   edx
  40193a:	push   DWORD PTR [edx+0x1f0]
  401940:	push   DWORD PTR [edx+0x44]
  401943:	push   DWORD PTR [edx+0x32c]
  401949:	push   DWORD PTR [edx+0x510]
  40194f:	call   0x401498
  401954:	add    esp,0x10
  401957:	pop    edx
  401958:	push   edx
  401959:	push   0x0
  40195b:	push   0x403014
  401960:	pop    eax
  401961:	call   DWORD PTR cs:[eax]
  401964:	pop    edx
  401965:	sub    esp,0xffffffb4
  401968:	mov    ebp,DWORD PTR [esp]
  40196b:	add    esp,0x4
  40196e:	ret    
  40196f:	add    BYTE PTR [eax],al
  401971:	add    BYTE PTR [eax],al
  401973:	add    BYTE PTR [ebx-0x1374aa01],cl
  401979:	sub    esp,0x58
  40197c:	push   edx
  40197d:	push   edi
  40197e:	push   esi
  40197f:	push   esi
  401980:	push   DWORD PTR [edx+0x104]
  401986:	call   0x401af8
  40198b:	add    esp,0x10
  40198e:	pop    edx
  40198f:	push   edx
  401990:	push   0x0
  401992:	push   0x403004
  401997:	pop    eax
  401998:	call   DWORD PTR cs:[eax]
  40199b:	pop    edx
  40199c:	push   edx
  40199d:	mov    edi,0x0
  4019a2:	push   edi
  4019a3:	push   0x403054
  4019a8:	pop    eax
  4019a9:	call   DWORD PTR cs:[eax]
  4019ac:	pop    edx
  4019ad:	sub    esp,0xffffffa8
  4019b0:	mov    ebp,DWORD PTR [esp]
  4019b3:	add    esp,0x4
  4019b6:	ret    
  4019b7:	add    BYTE PTR [ebx-0x1374aa01],cl
  4019bd:	sub    esp,0x4c
  4019c0:	push   edx
  4019c1:	mov    edi,0x0
  4019c6:	push   edi
  4019c7:	push   0x403040
  4019cc:	pop    eax
  4019cd:	call   DWORD PTR cs:[eax]
  4019d0:	pop    edx
  4019d1:	push   edx
  4019d2:	push   DWORD PTR [edx+0x420]
  4019d8:	push   DWORD PTR [edx+0x5b4]
  4019de:	push   DWORD PTR [edx+0x194]
  4019e4:	call   0x4017b4
  4019e9:	add    esp,0xc
  4019ec:	pop    edx
  4019ed:	push   edx
  4019ee:	mov    edi,0x0
  4019f3:	push   edi
  4019f4:	push   0x403004
  4019f9:	pop    eax
  4019fa:	call   DWORD PTR cs:[eax]
  4019fd:	pop    edx
  4019fe:	sub    esp,0xffffffb4
  401a01:	mov    ebp,DWORD PTR [esp]
  401a04:	add    esp,0x4
  401a07:	ret    
  401a08:	add    BYTE PTR [eax],al
  401a0a:	add    BYTE PTR [eax],al
  401a0c:	mov    edi,edi
  401a0e:	push   ebp
  401a0f:	mov    ebp,esp
  401a11:	sub    esp,0x5c
  401a14:	push   edx
  401a15:	push   0x0
  401a17:	push   0x40305c
  401a1c:	pop    eax
  401a1d:	call   DWORD PTR cs:[eax]
  401a20:	pop    edx
  401a21:	push   edx
  401a22:	push   DWORD PTR [edx+0x2a4]
  401a28:	push   edi
  401a29:	push   edi
  401a2a:	call   0x401734
  401a2f:	add    esp,0xc
  401a32:	pop    edx
  401a33:	push   edx
  401a34:	mov    edx,0x0
  401a39:	push   edx
  401a3a:	push   0x403030
  401a3f:	pop    eax
  401a40:	call   DWORD PTR cs:[eax]
  401a43:	pop    edx
  401a44:	sub    esp,0xffffffa4
  401a47:	mov    ebp,DWORD PTR [esp]
  401a4a:	add    esp,0x4
  401a4d:	ret    
  401a4e:	add    BYTE PTR [eax],al
  401a50:	mov    edi,edi
  401a52:	push   ebp
  401a53:	mov    ebp,esp
  401a55:	sub    esp,0x1c
  401a58:	push   edx
  401a59:	mov    ecx,0x0
  401a5e:	push   ecx
  401a5f:	push   0x403054
  401a64:	pop    eax
  401a65:	call   DWORD PTR cs:[eax]
  401a68:	pop    edx
  401a69:	push   edx
  401a6a:	push   DWORD PTR [edx+0x368]
  401a70:	push   esi
  401a71:	call   0x401920
  401a76:	add    esp,0x8
  401a79:	pop    edx
  401a7a:	push   edx
  401a7b:	push   0x0
  401a7d:	push   0x40301c
  401a82:	pop    eax
  401a83:	call   DWORD PTR cs:[eax]
  401a86:	pop    edx
  401a87:	sub    esp,0xffffffe4
  401a8a:	mov    ebp,DWORD PTR [esp]
  401a8d:	add    esp,0x4
  401a90:	ret    
  401a91:	add    BYTE PTR [eax],al
  401a93:	add    BYTE PTR [eax],al
  401a95:	add    BYTE PTR [eax],al
  401a97:	add    BYTE PTR [ebx-0x1374aa01],cl
  401a9d:	sub    esp,0x34
  401aa0:	push   edx
  401aa1:	mov    edx,0x0
  401aa6:	push   edx
  401aa7:	push   0x403034
  401aac:	pop    eax
  401aad:	call   DWORD PTR cs:[eax]
  401ab0:	pop    edx
  401ab1:	push   edx
  401ab2:	push   DWORD PTR [edx+0xdc]
  401ab8:	push   ecx
  401ab9:	push   ecx
  401aba:	push   esi
  401abb:	call   0x401610
  401ac0:	add    esp,0x10
  401ac3:	pop    edx
  401ac4:	push   edx
  401ac5:	mov    edx,0x0
  401aca:	push   edx
  401acb:	push   0x403068
  401ad0:	pop    eax
  401ad1:	call   DWORD PTR cs:[eax]
  401ad4:	pop    edx
  401ad5:	sub    esp,0xffffffcc
  401ad8:	mov    ebp,DWORD PTR [esp]
  401adb:	add    esp,0x4
  401ade:	ret    
	...
  401af7:	add    BYTE PTR [ebx-0x1374aa01],cl
  401afd:	sub    esp,0x4c
  401b00:	push   edx
  401b01:	push   ecx
  401b02:	push   esi
  401b03:	call   0x401a0c
  401b08:	add    esp,0x8
  401b0b:	pop    edx
  401b0c:	push   edx
  401b0d:	push   0x0
  401b0f:	push   0x40302c
  401b14:	pop    eax
  401b15:	call   DWORD PTR cs:[eax]
  401b18:	pop    edx
  401b19:	push   edx
  401b1a:	push   0x40300c
  401b1f:	pop    eax
  401b20:	call   DWORD PTR cs:[eax]
  401b23:	pop    edx
  401b24:	sub    esp,0xffffffb4
  401b27:	mov    ebp,DWORD PTR [esp]
  401b2a:	add    esp,0x4
  401b2d:	ret    
  401b2e:	add    BYTE PTR [eax],al
  401b30:	mov    edi,edi
  401b32:	push   ebp
  401b33:	mov    ebp,esp
  401b35:	sub    esp,0x20
  401b38:	push   edx
  401b39:	push   0x40300c
  401b3e:	pop    eax
  401b3f:	call   DWORD PTR cs:[eax]
  401b42:	pop    edx
  401b43:	push   edx
  401b44:	push   DWORD PTR [edx+0xa0]
  401b4a:	push   eax
  401b4b:	push   DWORD PTR [edx+0x5dc]
  401b51:	call   0x40123c
  401b56:	add    esp,0xc
  401b59:	pop    edx
  401b5a:	push   edx
  401b5b:	push   0x0
  401b5d:	push   0x403000
  401b62:	pop    eax
  401b63:	call   DWORD PTR cs:[eax]
  401b66:	pop    edx
  401b67:	sub    esp,0xffffffe0
  401b6a:	mov    ebp,DWORD PTR [esp]
  401b6d:	add    esp,0x4
  401b70:	ret    
  401b71:	add    BYTE PTR [eax],al
  401b73:	add    BYTE PTR [ebx-0x1374aa01],cl
  401b79:	sub    esp,0x34
  401b7c:	push   edx
  401b7d:	push   0x0
  401b7f:	push   0x403014
  401b84:	pop    eax
  401b85:	call   DWORD PTR cs:[eax]
  401b88:	pop    edx
  401b89:	push   edx
  401b8a:	push   DWORD PTR [edx+0x3c0]
  401b90:	push   DWORD PTR [edx+0x388]
  401b96:	call   0x40127c
  401b9b:	add    esp,0x8
  401b9e:	pop    edx
  401b9f:	push   edx
  401ba0:	mov    ecx,0x0
  401ba5:	push   ecx
  401ba6:	push   0x40301c
  401bab:	pop    eax
  401bac:	call   DWORD PTR cs:[eax]
  401baf:	pop    edx
  401bb0:	sub    esp,0xffffffcc
  401bb3:	mov    ebp,DWORD PTR [esp]
  401bb6:	add    esp,0x4
  401bb9:	ret    
  401bba:	add    BYTE PTR [eax],al
  401bbc:	mov    edi,edi
  401bbe:	push   ebp
  401bbf:	mov    ebp,esp
  401bc1:	sub    esp,0x58
  401bc4:	push   edx
  401bc5:	push   eax
  401bc6:	push   ebx
  401bc7:	push   DWORD PTR [edx+0x374]
  401bcd:	push   edi
  401bce:	call   0x401c44
  401bd3:	add    esp,0x10
  401bd6:	pop    edx
  401bd7:	push   edx
  401bd8:	push   0x0
  401bda:	push   0x403068
  401bdf:	pop    eax
  401be0:	call   DWORD PTR cs:[eax]
  401be3:	pop    edx
  401be4:	push   edx
  401be5:	push   0x0
  401be7:	push   0x403028
  401bec:	pop    eax
  401bed:	call   DWORD PTR cs:[eax]
  401bf0:	pop    edx
  401bf1:	sub    esp,0xffffffa8
  401bf4:	mov    ebp,DWORD PTR [esp]
  401bf7:	add    esp,0x4
  401bfa:	ret    
  401bfb:	add    BYTE PTR [eax],al
  401bfd:	add    BYTE PTR [eax],al
  401bff:	add    BYTE PTR [ebx-0x1374aa01],cl
  401c05:	sub    esp,0x40
  401c08:	push   edx
  401c09:	push   ecx
  401c0a:	push   DWORD PTR [edx+0x300]
  401c10:	call   0x4019b8
  401c15:	add    esp,0x8
  401c18:	pop    edx
  401c19:	push   edx
  401c1a:	mov    esi,0x0
  401c1f:	push   esi
  401c20:	push   0x403054
  401c25:	pop    eax
  401c26:	call   DWORD PTR cs:[eax]
  401c29:	pop    edx
  401c2a:	push   edx
  401c2b:	push   0x0
  401c2d:	push   0x403054
  401c32:	pop    eax
  401c33:	call   DWORD PTR cs:[eax]
  401c36:	pop    edx
  401c37:	sub    esp,0xffffffc0
  401c3a:	mov    ebp,DWORD PTR [esp]
  401c3d:	add    esp,0x4
  401c40:	ret    
  401c41:	add    BYTE PTR [eax],al
  401c43:	add    BYTE PTR [ebx-0x1374aa01],cl
  401c49:	sub    esp,0x54
  401c4c:	push   edx
  401c4d:	push   0x0
  401c4f:	push   0x403068
  401c54:	pop    eax
  401c55:	call   DWORD PTR cs:[eax]
  401c58:	pop    edx
  401c59:	push   edx
  401c5a:	push   DWORD PTR [edx+0x288]
  401c60:	push   ebx
  401c61:	call   0x401a98
  401c66:	add    esp,0x8
  401c69:	pop    edx
  401c6a:	push   edx
  401c6b:	mov    esi,0x0
  401c70:	push   esi
  401c71:	push   0x403030
  401c76:	pop    eax
  401c77:	call   DWORD PTR cs:[eax]
  401c7a:	pop    edx
  401c7b:	sub    esp,0xffffffac
  401c7e:	mov    ebp,DWORD PTR [esp]
  401c81:	add    esp,0x4
  401c84:	ret    
  401c85:	add    BYTE PTR [eax],al
  401c87:	add    BYTE PTR [ebx-0x1374aa01],cl
  401c8d:	sub    esp,0x48
  401c90:	push   edx
  401c91:	push   0x40300c
  401c96:	pop    eax
  401c97:	call   DWORD PTR cs:[eax]
  401c9a:	pop    edx
  401c9b:	push   edx
  401c9c:	push   eax
  401c9d:	push   DWORD PTR [edx+0x540]
  401ca3:	push   DWORD PTR [edx+0x358]
  401ca9:	call   0x401bbc
  401cae:	add    esp,0xc
  401cb1:	pop    edx
  401cb2:	push   edx
  401cb3:	push   0x0
  401cb5:	push   0x403028
  401cba:	pop    eax
  401cbb:	call   DWORD PTR cs:[eax]
  401cbe:	pop    edx
  401cbf:	sub    esp,0xffffffb8
  401cc2:	mov    ebp,DWORD PTR [esp]
  401cc5:	add    esp,0x4
  401cc8:	ret    
  401cc9:	add    BYTE PTR [eax],al
  401ccb:	add    BYTE PTR [ebx-0x1374aa01],cl
  401cd1:	sub    esp,0x5c
  401cd4:	push   edx
  401cd5:	push   ecx
  401cd6:	push   ecx
  401cd7:	push   DWORD PTR [edx+0x90]
  401cdd:	push   DWORD PTR [edx+0x40c]
  401ce3:	call   0x4014dc
  401ce8:	add    esp,0x10
  401ceb:	pop    edx
  401cec:	push   edx
  401ced:	mov    eax,0x0
  401cf2:	push   eax
  401cf3:	push   0x40302c
  401cf8:	pop    eax
  401cf9:	call   DWORD PTR cs:[eax]
  401cfc:	pop    edx
  401cfd:	push   edx
  401cfe:	push   0x0
  401d00:	push   0x403028
  401d05:	pop    eax
  401d06:	call   DWORD PTR cs:[eax]
  401d09:	pop    edx
  401d0a:	sub    esp,0xffffffa4
  401d0d:	mov    ebp,DWORD PTR [esp]
  401d10:	add    esp,0x4
  401d13:	ret    
  401d14:	mov    edi,edi
  401d16:	push   ebp
  401d17:	mov    ebp,esp
  401d19:	sub    esp,0x1c
  401d1c:	push   edx
  401d1d:	push   esi
  401d1e:	push   DWORD PTR [edx+0x50]
  401d21:	call   0x401de8
  401d26:	add    esp,0x8
  401d29:	pop    edx
  401d2a:	push   edx
  401d2b:	push   0x403018
  401d30:	pop    eax
  401d31:	call   DWORD PTR cs:[eax]
  401d34:	pop    edx
  401d35:	push   edx
  401d36:	push   0x0
  401d38:	push   0x403068
  401d3d:	pop    eax
  401d3e:	call   DWORD PTR cs:[eax]
  401d41:	pop    edx
  401d42:	sub    esp,0xffffffe4
  401d45:	mov    ebp,DWORD PTR [esp]
  401d48:	add    esp,0x4
  401d4b:	ret    
  401d4c:	add    BYTE PTR [eax],al
  401d4e:	add    BYTE PTR [eax],al
  401d50:	mov    edi,edi
  401d52:	push   ebp
  401d53:	mov    ebp,esp
  401d55:	sub    esp,0x50
  401d58:	push   edx
  401d59:	push   DWORD PTR [edx+0x55c]
  401d5f:	push   ebx
  401d60:	push   DWORD PTR [edx+0x2b4]
  401d66:	call   0x401660
  401d6b:	add    esp,0xc
  401d6e:	pop    edx
  401d6f:	push   edx
  401d70:	push   0x0
  401d72:	push   0x40305c
  401d77:	pop    eax
  401d78:	call   DWORD PTR cs:[eax]
  401d7b:	pop    edx
  401d7c:	push   edx
  401d7d:	push   0x0
  401d7f:	push   0x403054
  401d84:	pop    eax
  401d85:	call   DWORD PTR cs:[eax]
  401d88:	pop    edx
  401d89:	sub    esp,0xffffffb0
  401d8c:	mov    ebp,DWORD PTR [esp]
  401d8f:	add    esp,0x4
  401d92:	ret    
  401d93:	add    BYTE PTR [eax],al
  401d95:	add    BYTE PTR [eax],al
  401d97:	add    BYTE PTR [ebx-0x1374aa01],cl
  401d9d:	sub    esp,0x40
  401da0:	push   edx
  401da1:	mov    eax,0x0
  401da6:	push   eax
  401da7:	push   0x403040
  401dac:	pop    eax
  401dad:	call   DWORD PTR cs:[eax]
  401db0:	pop    edx
  401db1:	push   edx
  401db2:	push   DWORD PTR [edx+0x52c]
  401db8:	push   ecx
  401db9:	push   DWORD PTR [edx+0x30c]
  401dbf:	push   ecx
  401dc0:	call   0x4012b8
  401dc5:	add    esp,0x10
  401dc8:	pop    edx
  401dc9:	push   edx
  401dca:	lea    edx,[edx]
  401dcc:	push   edx
  401dcd:	push   0x403024
  401dd2:	pop    eax
  401dd3:	call   DWORD PTR cs:[eax]
  401dd6:	test   eax,eax
  401dd8:	jne    0x401dca
  401dda:	pop    edx
  401ddb:	sub    esp,0xffffffc0
  401dde:	mov    ebp,DWORD PTR [esp]
  401de1:	add    esp,0x4
  401de4:	ret    
  401de5:	add    BYTE PTR [eax],al
  401de7:	add    BYTE PTR [ebx-0x1374aa01],cl
  401ded:	sub    esp,0x44
  401df0:	push   edx
  401df1:	push   0x40300c
  401df6:	pop    eax
  401df7:	call   DWORD PTR cs:[eax]
  401dfa:	pop    edx
  401dfb:	push   edx
  401dfc:	push   ebx
  401dfd:	push   eax
  401dfe:	call   0x4011f8
  401e03:	add    esp,0x8
  401e06:	pop    edx
  401e07:	push   edx
  401e08:	lea    edx,[edx]
  401e0a:	push   edx
  401e0b:	push   0x403024
  401e10:	pop    eax
  401e11:	call   DWORD PTR cs:[eax]
  401e14:	test   eax,eax
  401e16:	jne    0x401e08
  401e18:	pop    edx
  401e19:	sub    esp,0xffffffbc
  401e1c:	mov    ebp,DWORD PTR [esp]
  401e1f:	add    esp,0x4
  401e22:	ret    
  401e23:	add    BYTE PTR [ebx-0x1374aa01],cl
  401e29:	sub    esp,0x34
  401e2c:	push   edx
  401e2d:	push   DWORD PTR [edx+0x164]
  401e33:	push   DWORD PTR [edx+0xbc]
  401e39:	push   esi
  401e3a:	push   DWORD PTR [edx+0x74]
  401e3d:	call   0x401168
  401e42:	add    esp,0x10
  401e45:	pop    edx
  401e46:	push   edx
  401e47:	mov    edx,0x0
  401e4c:	push   edx
  401e4d:	push   0x403034
  401e52:	pop    eax
  401e53:	call   DWORD PTR cs:[eax]
  401e56:	pop    edx
  401e57:	push   edx
  401e58:	push   0x40300c
  401e5d:	pop    eax
  401e5e:	call   DWORD PTR cs:[eax]
  401e61:	pop    edx
  401e62:	sub    esp,0xffffffcc
  401e65:	mov    ebp,DWORD PTR [esp]
  401e68:	add    esp,0x4
  401e6b:	ret    
  401e6c:	pop    ds
  401e6d:	xor    BYTE PTR [edx+ebp*4-0x5126aa77],cl
  401e74:	popa   
  401e75:	and    eax,0x6be9de70
  401e7a:	test   DWORD PTR [eax+0x3e],edx
  401e7d:	dec    ebp
  401e7e:	shl    bh,1
  401e80:	test   eax,0x39e402d0
  401e85:	bswap  eax
  401e87:	std    
  401e88:	out    dx,eax
  401e89:	sahf   
  401e8a:	mov    ecx,0xc7c70097
  401e8f:	add    DWORD PTR [eax],eax
  401e91:	mov    edi,0xc6e30001
  401e97:	jg     0x401eda
  401e99:	retf   0xa27e
  401e9c:	mov    ebp,0x310580a8
  401ea1:	imul   esi,eax,0xffffffe2
  401ea4:	add    DWORD PTR ds:0x251691a3,ecx
  401eaa:	gs ins BYTE PTR es:[edi],dx
  401eac:	pop    eax
  401ead:	push   edi
  401eae:	inc    eax
  401eaf:	push   ss
  401eb0:	or     DWORD PTR [edx+0x32],eax
  401eb3:	imul   ecx,DWORD PTR [ecx],0xffffffff
  401eb6:	mov    edx,0xbcd552e7
  401ebb:	ins    BYTE PTR es:[edi],dx
  401ebc:	mov    esi,0x81d8533b
  401ec1:	push   esp
  401ec2:	js     0x401ebb
  401ec4:	pop    edx
  401ec5:	call   0xf444a4ba
  401eca:	mov    ch,0xa0
  401ecc:	jge    0x401eb2
  401ece:	adc    BYTE PTR [eax],al
  401ed0:	add    DWORD PTR [eax],edx
  401ed2:	adc    al,0x1d
  401ed4:	sbb    ebp,DWORD PTR [edi+0x468a0000]
  401eda:	(bad)  
  401edb:	adc    BYTE PTR [esi+edx*4],dl
  401ede:	and    eax,0x60f2ae1
  401ee3:	call   0x3110:0x20092406
  401eea:	sbb    edx,DWORD PTR [edi+0x76dd5ba9]
  401ef0:	ins    DWORD PTR es:[edi],dx
  401ef1:	mov    DWORD PTR [eax+0x13],esp
  401ef4:	xor    eax,0x2102650d
  401ef9:	add    BYTE PTR [edx+eax*1],al
  401efc:	and    eax,0x5c1d9a32
  401f01:	jbe    0x401f18
  401f03:	push   eax
  401f04:	add    BYTE PTR [edx+0x702b6291],0xc4
  401f0b:	xchg   ebx,eax
  401f0c:	adc    DWORD PTR [eax],eax
  401f0e:	add    al,ah
  401f10:	cmps   DWORD PTR ds:[esi],DWORD PTR es:[edi]
  401f11:	push   0xff6b6a00
  401f16:	push   ebp
  401f17:	push   ss
  401f18:	pushf  
  401f19:	lods   eax,DWORD PTR ds:[esi]
  401f1a:	cli    
  401f1b:	cdq    
  401f1c:	cwde   
  401f1d:	add    eax,0xb5dedbf8
  401f22:	aam    0xf9
  401f24:	stc    
  401f25:	aam    0xf
  401f27:	sub    eax,0xcffb9a7
  401f2c:	push   esi
  401f2d:	ret    
  401f2e:	call   0xc428acc0
  401f33:	stc    
  401f34:	add    al,BYTE PTR [edi-0x238cdecc]
  401f3a:	jl     0x401f96
  401f3c:	add    eax,0x3f6f00fb
  401f41:	call   0x6ab2aa46
  401f46:	add    BYTE PTR [edi+0x6b],ch
  401f49:	call   FWORD PTR [edi]
  401f4b:	pushf  
  401f4c:	cmp    al,0x8a
  401f4e:	stos   BYTE PTR es:[edi],al
  401f4f:	sub    BYTE PTR [eax+ebx*1+0x3c6b3d97],ah
  401f56:	adc    eax,0x47cca74
  401f5b:	push   ecx
  401f5c:	push   es
  401f5d:	pop    es
  401f5e:	(bad)  [ecx+0x78]
  401f61:	cmps   DWORD PTR ds:[esi],DWORD PTR es:[edi]
  401f62:	add    BYTE PTR [ecx-0x364fb057],ch
  401f68:	loope  0x401f52
  401f6a:	sbb    dh,bl
  401f6c:	int3   
  401f6d:	cmp    al,0x8d
  401f6f:	pop    es
  401f70:	add    ebp,ebx
  401f72:	retf   
  401f73:	push   es
  401f74:	push   edi
  401f75:	test   DWORD PTR [esi+0x73],0x22581962
  401f7c:	inc    ecx
  401f7d:	dec    ecx
  401f7e:	mov    dl,0x4e
  401f80:	ins    DWORD PTR es:[edi],dx
  401f81:	loope  0x401f98
  401f83:	sbb    al,0x69
  401f85:	xor    al,0x6a
  401f87:	xor    al,0x0
  401f89:	jno    0x401feb
  401f8b:	push   ebx
  401f8c:	push   ebx
  401f8d:	push   es
  401f8e:	pusha  
  401f8f:	je     0x401f86
  401f91:	jl     0x401f98
  401f93:	stos   DWORD PTR es:[edi],eax
  401f94:	aas    
  401f95:	push   esp
  401f96:	cmp    ebp,DWORD PTR [esi]
  401f98:	push   ebx
  401f99:	add    DWORD PTR [eax],ecx
  401f9b:	ds aas 
  401f9d:	push   cs
  401f9e:	add    ch,BYTE PTR [esp+eax*1+0x77e1cddc]
  401fa5:	cmp    al,0x2f
  401fa7:	or     BYTE PTR [esi-0xe],bl
  401faa:	jmp    DWORD PTR [ebx-0x49a93d2c]
  401fb0:	je     0x401f40
  401fb2:	mov    bh,0x93
  401fb4:	xchg   esp,eax
  401fb5:	lods   eax,DWORD PTR cs:[esi]
  401fb7:	xor    esi,DWORD PTR [edi-0x577bc9f]
  401fbd:	sbb    esi,esi
  401fbf:	dec    BYTE PTR [esi-0x29]
  401fc2:	test   BYTE PTR [edi+0x72a00e52],bh
  401fc8:	ss dec ebx
  401fca:	ret    0x8e1c
  401fcd:	xchg   edi,edi
  401fcf:	jnp    0x401fa4
  401fd1:	out    0xc4,eax
  401fd3:	test   DWORD PTR [ecx],eax
  401fd5:	(bad)  
  401fd6:	pop    ebx
  401fd7:	arpl   bx,ax
  401fd9:	in     al,dx
  401fda:	arpl   WORD PTR [ebp+0x76],si
  401fdd:	call   0x14bb6406
  401fe2:	push   DWORD PTR [ebp+0x66]
  401fe5:	je     0x402052
  401fe7:	jnp    0x401ff1
  401fe9:	test   al,dl
  401feb:	inc    eax
  401fec:	fmul   QWORD PTR [edi+0x50253a9]
  401ff2:	test   ecx,ebx
  401ff4:	cmp    DWORD PTR [ebp+0x6],edx
  401ff7:	push   es
  401ff8:	push   edi
  401ff9:	pop    es
  401ffa:	or     BYTE PTR [ebx],dh
  401ffc:	ins    DWORD PTR es:[edi],dx
  401ffd:	int3   
  401ffe:	add    cl,BYTE PTR [eax+ebx*2]
  402001:	or     BYTE PTR [ebx-0x8],cl
  402004:	aas    
  402005:	das    
  402006:	mov    al,ds:0xc5a758ff
  40200b:	jo     0x402058
  40200d:	dec    ecx
  40200e:	mov    edx,0x29e958bd
  402013:	mov    DWORD PTR [ecx],0x1e88ae9
  402019:	xor    DWORD PTR [eax+0x186968],0x28760000
  402023:	push   esi
  402024:	ficom  DWORD PTR [ebx-0x78e6f002]
  40202a:	dec    DWORD PTR [ebx-0x220c9fff]
  402030:	add    al,0xff
  402032:	add    BYTE PTR fs:[ecx-0x75],bl
  402036:	inc    eax
  402037:	cmp    al,0x80
  402039:	add    BYTE PTR [edi+0x34146061],al
  40203f:	(bad)
  402043:	scas   eax,DWORD PTR es:[edi]
  402044:	jnp    0x40202d
  402046:	and    al,0x88
  402048:	dec    ecx
  402049:	sbb    BYTE PTR [edi-0x3477a706],al
  40204f:	shl    al,0xef
  402052:	mov    bl,BYTE PTR [eax+0x6d]
  402055:	out    dx,eax
  402056:	out    dx,eax
  402057:	cmp    DWORD PTR [esi-0x9],edx
  40205a:	inc    esi
  40205b:	imul   edi,DWORD PTR [eax+0x44],0xa1190ea1
  402062:	fs xchg edx,ecx
  402065:	xor    BYTE PTR [ecx+0x65767178],cl
  40206b:	push   esp
  40206c:	std    
  40206d:	jbe    0x40206c
  40206f:	or     BYTE PTR [ecx],al
  402071:	pop    edi
  402072:	jmp    0x7e1c:0x79bdd2b0
  402079:	je     0x402017
  40207b:	mov    dh,0x3a
  40207d:	call   0x791a59d2
  402082:	pop    eax
  402083:	add    al,0x3
  402085:	pop    eax
  402086:	js     0x40207c
  402088:	mov    eax,DWORD PTR gs:[esi+eiz*1]
  40208c:	in     al,dx
  40208d:	add    BYTE PTR [edi+0x424010f],ch
  402093:	cmp    BYTE PTR [edx+0x64500424],cl
  402099:	(bad)  
  40209a:	out    0x14,eax
  40209c:	in     al,dx
  40209d:	xor    bl,al
  40209f:	inc    ebp
  4020a0:	dec    ebx
  4020a1:	mov    BYTE PTR [ebp+0xb],al
  4020a4:	xor    DWORD PTR [esi+0x7472b98b],0xf8f70373
  4020ae:	or     bh,dl
  4020b0:	mov    al,BYTE PTR [ecx-0x70916601]
  4020b6:	test   al,0x7a
  4020b8:	test   eax,0xb6c37e53
  4020bd:	adc    DWORD PTR [ebx-0x56],0x235457a9
  4020c4:	fisub  DWORD PTR [esi]
  4020c6:	adc    BYTE PTR [esi-0x9],dl
  4020c9:	fwait
  4020ca:	mov    BYTE PTR [esi],ah
  4020cc:	sub    edi,DWORD PTR [esi]
  4020ce:	dec    BYTE PTR [eax]
  4020d0:	xlat   BYTE PTR ds:[ebx]
  4020d1:	or     BYTE PTR [ebx+0x4b],0x91
  4020d5:	fisub  DWORD PTR [edi+0x543f7f]
  4020db:	or     DWORD PTR [edi+0x7],edx
  4020de:	or     BYTE PTR [edx+ebx*8],bh
  4020e1:	or     dl,al
  4020e3:	aas    
  4020e4:	push   ecx
  4020e5:	adc    eax,0x657cd8d
  4020ea:	movs   BYTE PTR es:[edi],BYTE PTR ds:[esi]
  4020eb:	xchg   ebx,eax
  4020ec:	pop    ebx
  4020ed:	cdq    
  4020ee:	or     al,dl
  4020f0:	mov    ch,0x9e
  4020f2:	add    al,0x57
  4020f4:	add    DWORD PTR [ecx+0xd70019b],ebp
  4020fa:	inc    esp
  4020fb:	add    eax,DWORD PTR [eax]
  4020fd:	popa   
  4020fe:	jb     0x4020fb
  402100:	(bad)  
  402101:	jg     0x402178
  402103:	std    
  402104:	mov    dh,BYTE PTR [ebx+ebp*2+0x0]
  402108:	test   eax,0xa9f8f1c
  40210d:	hlt    
  40210e:	push   esi
  40210f:	or     eax,0xb10f0a02
  402114:	or     DWORD PTR [edi-0x29aaaaff],ebp
  40211a:	cmp    DWORD PTR [ebx-0x8],eax
  40211d:	dec    ecx
  40211e:	loop   0x4020bb
  402120:	mov    ds:0x78605cea,al
  402125:	sar    ch,1
  402127:	pop    esp
  402128:	adc    BYTE PTR [eax],ah
  40212a:	aaa    
  40212b:	ja     0x402183
  40212d:	cmp    edx,edx
  40212f:	mov    esi,0x590f8494
  402134:	add    al,0xa4
  402136:	add    BYTE PTR [eax],al
  402138:	add    DWORD PTR [ebx-0x495ed1ee],ecx
  40213e:	mov    eax,DWORD PTR [ebp-0x7e7bf08e]
  402144:	add    BYTE PTR [edi+ecx*1-0x7452080b],0xf8
  40214c:	cld    
  40214d:	jo     0x40214c
  40214f:	js     0x40219f
  402151:	add    BYTE PTR [edx+0x543b0351],ch
  402157:	lods   al,BYTE PTR ds:[esi]
  402158:	imul   edx,DWORD PTR [edx+ebp*2],0xf8835850
  40215f:	add    al,0x55
  402161:	add    BYTE PTR [edi+0x6a14693f],0x50
  402168:	pop    eax
  402169:	adc    DWORD PTR [esp],0x57811425
  402170:	add    BYTE PTR [esi+0x1c],dl
  402173:	jmp    FWORD PTR [ecx-0x859f100]
  402179:	jno    0x40213f
  40217b:	add    al,0xdd
  40217d:	add    dl,bh
  40217f:	inc    esp
  402180:	ins    DWORD PTR es:[edi],dx
  402181:	cmp    ah,cl
  402183:	mov    eax,0xe54462f2
  402188:	int3   
  402189:	lods   eax,DWORD PTR ds:[esi]
  40218a:	push   esi
  40218b:	mov    ah,0x7d
  40218d:	adc    eax,0xff0ea6ff
  402192:	and    al,0x1c
  402194:	sbb    al,0xe3
  402196:	out    dx,al
  402197:	pop    ecx
  402198:	xlat   BYTE PTR ds:[ebx]
  402199:	stos   BYTE PTR es:[edi],al
  40219a:	mov    BYTE PTR [ebx],0x56
  40219d:	jbe    0x4021b3
  40219f:	jb     0x40216f
  4021a1:	cmp    BYTE PTR [edx+0x41],dl
  4021a4:	adc    DWORD PTR [eax],eax
  4021a6:	aas    
  4021a7:	mov    bl,0x6a
  4021a9:	push   ebx
  4021aa:	push   eax
  4021ab:	dec    esi
  4021ad:	cmp    BYTE PTR [eax+edi*8],al
  4021b0:	adc    DWORD PTR [eax],eax
  4021b2:	aas    
  4021b3:	mov    cl,0x84
  4021b5:	jae    0x4021b7
  4021b7:	adc    BYTE PTR [ecx],dl
  4021b9:	add    bl,bl
  4021bb:	push   ecx
  4021bc:	pop    eax
  4021bd:	add    BYTE PTR [ebp+0xc],dl
  4021c0:	push   edi
  4021c1:	or     al,0xa7
  4021c3:	push   esp
  4021c4:	ficom  WORD PTR [ecx-0x491c24d4]
  4021ca:	test   eax,0x21cde36e
  4021cf:	pushf  
  4021d0:	jae    0x4021a8
  4021d2:	scas   al,BYTE PTR es:[edi]
  4021d3:	les    ecx,FWORD PTR [edi-0x15]
  4021d6:	mov    edi,0xe89b497e
  4021db:	mov    eax,DWORD PTR [ecx]
  4021dd:	call   0xec3f68dd
  4021e2:	push   edx
  4021e3:	pop    ds
  4021e4:	push   ds
  4021e5:	mov    ecx,0xff0a17ff
  4021ea:	(bad)  
  4021eb:	jmp    FWORD PTR [eax+0x1e1f846]
  4021f1:	pop    es
  4021f2:	push   ecx
  4021f3:	adc    dh,0xe8
  4021f6:	add    BYTE PTR [edx+ebx*2-0x6124348c],cl
  4021fd:	cmp    eax,0xe801d08b
  402202:	into   
  402203:	inc    esi
  402204:	inc    edi
  402206:	fs (bad) 
  402208:	jb     0x40224b
  40220a:	pop    ss
  40220b:	inc    ecx
  40220c:	mov    esi,0xf2bfcae8
  402211:	scas   eax,DWORD PTR es:[edi]
  402212:	ds aaa 
  402214:	rol    BYTE PTR [eax],0x54
  402217:	in     al,0x2a
  402219:	add    eax,0x808923c5
  40221e:	sar    DWORD PTR [eax-0x79],0x98
  402222:	cvtdq2ps xmm1,xmm3
  402225:	dec    esi
  402226:	sub    al,0xf2
  402228:	dec    eax
  402229:	add    DWORD PTR [eax],ebx
  40222b:	mov    al,0xbe
  40222d:	stc    
  40222e:	int3   
  40222f:	inc    eax
  402230:	or     edi,DWORD PTR [ecx-0x8123dc]
  402236:	(bad)  
  402237:	(bad)  
  402238:	out    dx,eax
  402239:	dec    eax
  40223a:	repz ret 
  40223c:	or     DWORD PTR [ebp+0xe],ebx
  40223f:	pop    es
  402240:	or     DWORD PTR [ecx-0x9149af],edi
  402246:	(bad)  
  402247:	jmp    DWORD PTR [ebp-0x857fe9]
  40224d:	jg     0x4022b1
  40224f:	sub    eax,0x3c9e9551
  402254:	xchg   ecx,eax
  402255:	mov    al,ds:0xc8a739f4
  40225a:	rcl    DWORD PTR [ecx+0x1],0x48
  40225e:	push   esp
  40225f:	mov    DWORD PTR [edx+0x1004876],ecx
  402265:	dec    eax
  402266:	jbe    0x4021f9
  402268:	xchg   edx,eax
  402269:	push   esp
  40226a:	dec    eax
  40226b:	add    BYTE PTR [ecx],al
  40226d:	dec    eax
  40226e:	push   esp
  40226f:	cdq    
  402270:	call   0x7048:0x1004870
  402277:	mov    eax,ds:0x4834a2
  40227c:	add    DWORD PTR [eax+0x34],ecx
  40227f:	test   eax,0x4870aa
  402284:	add    DWORD PTR [eax+0x70],ecx
  402287:	mov    cl,0xb2
  402289:	xor    al,0x48
  40228b:	add    BYTE PTR [ecx],al
  40228d:	dec    eax
  40228e:	xor    al,0xb9
  402290:	mov    WORD PTR [ebp-0x255d3cef],?
  402296:	mov    esp,0x91094dc7
  40229b:	mov    al,bh
  40229d:	adc    dh,BYTE PTR [eax+eax*1-0x74]
  4022a1:	jge    0x4022f7
  4022a3:	mov    al,BYTE PTR [ebp+0x42207b21]
  4022a9:	(bad)  
  4022aa:	je     0x4022ab
  4022ac:	add    DWORD PTR [ecx+0x3b],esp
  4022af:	mov    BYTE PTR [eax-0x6b],ah
  4022b2:	pop    ebp
  4022b3:	mov    edx,DWORD PTR [edx-0x49]
  4022b6:	and    BYTE PTR [ebx-0x7724cf40],dh
  4022bc:	add    DWORD PTR [eax],edi
  4022be:	inc    ebp
  4022bf:	mov    ecx,DWORD PTR ds:0xa9af3b00
  4022c5:	adc    ebx,DWORD PTR [ecx+0x5c]
  4022c8:	fsub   QWORD PTR [ecx-0x34b20e4d]
  4022ce:	clc    
  4022cf:	mov    eax,DWORD PTR [ecx]
  4022d1:	dec    eax
  4022d2:	mov    cl,0xac
  4022d4:	popa   
  4022d5:	test   eax,0x8776f8c3
  4022da:	popf   
  4022db:	and    BYTE PTR ds:0xc6e90cbd,al
  4022e1:	sbb    BYTE PTR [eax],al
  4022e3:	add    BYTE PTR [ecx],al
  4022e5:	mov    ebp,DWORD PTR [eax-0x73]
  4022e8:	jle    0x402302
  4022ea:	mov    eax,DWORD PTR [eax]
  4022ec:	or     eax,0xa9ae3b00
  4022f1:	adc    ecx,DWORD PTR [ebp+0x4102b500]
  4022f7:	add    eax,0x4004cedc
  4022fc:	or     al,0x2e
  4022fe:	stos   DWORD PTR es:[edi],eax
  4022ff:	sub    bh,BYTE PTR [eax-0x6f0c5a9c]
  402305:	inc    eax
  402306:	sub    al,0x79
  402308:	movs   DWORD PTR es:[edi],DWORD PTR ds:[esi]
  402309:	dec    esp
  40230a:	shl    DWORD PTR [ebx-0x33],0x83
  40230e:	pusha  
  40230f:	ret    
  402310:	imul   esp,DWORD PTR [eax+eax*1],0xd2310120
  402317:	add    ch,BYTE PTR [ebx-0x64]
  40231a:	cmp    edi,edi
  40231c:	test   eax,0x8dd8e114
  402321:	fsub   st,st(3)
  402323:	add    BYTE PTR [eax+0x74],ah
  402326:	pop    ss
  402327:	jo     0x402362
  402329:	inc    edi
  40232a:	retf   
  40232b:	or     BYTE PTR [eax+0x11cc3c0],dh
  402331:	rol    BYTE PTR ds:0x4684b54b,0x54
  402338:	add    BYTE PTR [ecx-0x6a41b3ac],bh
  40233e:	mov    dh,BYTE PTR [esi-0x626a754f]
  402344:	call   0x4d24:0x351db91
  40234b:	cmc    
  40234c:	push   ecx
  40234d:	xchg   ebp,eax
  40234e:	popa   
  40234f:	ret    
  402350:	mov    ds:0xf25449ea,al
  402355:	cmps   DWORD PTR ds:[esi],DWORD PTR es:[edi]
  402356:	sbb    cl,BYTE PTR [edx-0x33861654]
  40235c:	and    al,0x0
  40235e:	xchg   dh,al
  402360:	std    
  402361:	cmps   BYTE PTR ds:[esi],BYTE PTR es:[edi]
  402362:	mov    ebx,DWORD PTR [eax+esi*2]
  402365:	add    DWORD PTR ds:0x6130d425,ebp
  40236b:	xchg   BYTE PTR [esp+edx*1+0x50],al
  40236f:	add    cl,dh
  402371:	sub    DWORD PTR [esi],esp
  402373:	jp     0x402334
  402375:	push   edx
  402376:	cmp    al,0x46
  402378:	jmp    0x1442468
  40237d:	pop    edx
  40237e:	call   0x723c179b
  402383:	enter  0x5ef4,0xa0
  402387:	jbe    0x402404
  402389:	pop    ebx
  40238a:	add    BYTE PTR [edi+0x58],ah
  40238d:	or     BYTE PTR [edi+0x26],bl
  402390:	gs add al,bh
  402393:	retf   0x88bc
  402396:	icebp  
  402397:	sbb    eax,0xb63e6540
  40239c:	cdq    
  40239d:	cwde   
  40239e:	dec    ebx
  40239f:	out    0xed,al
  4023a1:	popa   
  4023a2:	dec    edx
  4023a3:	cmp    esp,DWORD PTR [ebp+0x16f8a81]
  4023a9:	push   0x741bab60
  4023ae:	or     BYTE PTR cs:0x12040743,cl
  4023b5:	daa    
  4023b6:	xchg   edx,eax
  4023b7:	cmp    eax,0x16947a50
  4023bc:	jl     0x402352
  4023be:	jp     0x402411
  4023c0:	push   esp
  4023c1:	jp     0x402357
  4023c3:	jl     0x4023ff
  4023c5:	stos   BYTE PTR es:[edi],al
  4023c6:	test   DWORD PTR [eax+0x2],ebp
  4023c9:	outs   dx,BYTE PTR ds:[esi]
  4023ca:	push   ds
  4023cb:	sub    ecx,DWORD PTR [edi]
  4023cd:	adc    bl,BYTE PTR [ecx]
  4023cf:	sbb    DWORD PTR [ebx],eax
  4023d1:	and    esi,DWORD PTR [esi]
  4023d3:	xchg   edi,eax
  4023d4:	test   eax,0xc9b6d758
  4023d9:	or     al,bh
  4023db:	add    eax,0x66cb9a05
  4023e0:	bound  edx,QWORD PTR [esi]
  4023e2:	xchg   ebp,eax
  4023e3:	add    DWORD PTR [eax-0x59],ebx
  4023e6:	push   es
  4023e7:	push   ebx
  4023e8:	add    eax,0xbf5a5f3a
  4023ed:	and    DWORD PTR [edx+0x50],ebp
  4023f0:	add    DWORD PTR [ebx-0x45933e6],ecx
  4023f6:	cdq    
  4023f7:	add    BYTE PTR [ecx],al
  4023f9:	adc    ch,BYTE PTR [ebp-0x5b66a27a]
  4023ff:	inc    edi
  402400:	retf   
  402401:	bound  ebx,QWORD PTR [eax-0x2c]
  402404:	repnz push edx
  402406:	jbe    0x4023eb
  402408:	ret    
  402409:	call   0x1b4f260
  40240e:	cmps   DWORD PTR ds:[esi],DWORD PTR es:[edi]
  40240f:	call   FWORD PTR [eax-0x59]
  402412:	sub    DWORD PTR [edi],eax
  402414:	leave  
  402415:	loop   0x4023b2
  402417:	push   esp
  402418:	pop    eax
  402419:	adc    dh,BYTE PTR [esp+eiz*8]
  40241c:	ja     0x402473
  40241e:	sar    bh,1
  402420:	pop    esi
  402421:	lea    eax,[ebp-0x12]
  402424:	hlt    
  402425:	test   DWORD PTR [ecx-0x2fdf332c],ecx
  40242b:	ficomp WORD PTR [eax+edx*1+0x24]
  40242f:	inc    esp
  402430:	add    DWORD PTR [eax],eax
  402432:	add    BYTE PTR [eax+0x69],ch
  402435:	add    BYTE PTR [eax],al
  402437:	add    ah,al
  402439:	xor    si,si
  40243c:	xchg   ecx,eax
  40243d:	mov    DWORD PTR [ebx],ebp
  40243f:	cdq    
  402440:	cmp    eax,0xe255dce0
  402445:	adc    ah,BYTE PTR [ebp+0x640a6ee7]
  40244b:	rol    BYTE PTR [ecx],1
  40244d:	sti    
  40244e:	out    dx,eax
  40244f:	arpl   dx,dx
  402451:	adc    ebp,DWORD PTR [edi-0x1]
  402454:	mov    DWORD PTR [ebp+0x75],esi
  402457:	sub    BYTE PTR [ebp-0x13],cl
  40245a:	dec    ebx
  40245b:	and    eax,0x24523716
  402460:	jns    0x4023fb
  402462:	jmp    0x4024da
  402464:	loop   0x402479
  402466:	dec    ebp
  402467:	movs   DWORD PTR es:[edi],DWORD PTR ds:[esi]
  402468:	xchg   ecx,eax
  402469:	sar    DWORD PTR [ecx+edx*4+0x554b0b6d],cl
  402470:	jno    0x4024ec
  402472:	sub    esp,ebx
  402474:	ret    
  402475:	sub    eax,DWORD PTR [ecx]
  402477:	mov    dh,0x21
  402479:	call   FWORD PTR [ecx-0x6bdbb010]
  40247f:	mov    BYTE PTR [edi+0x0],ch
  402482:	jge    0x40241f
  402484:	adc    DWORD PTR [eax],eax
  402486:	aas    
  402487:	outs   dx,BYTE PTR ds:[esi]
  402488:	imul   ebp,DWORD PTR [eax-0x5a63efab],0x7e
  40248f:	in     al,dx
  402490:	jmp    0x8ccc1515
  402495:	cld    
  402496:	imul   eax,DWORD PTR [eax],0xdcfc6806
  40249c:	add    edi,edi
  40249e:	push   ebp
  40249f:	and    DWORD PTR [ebx+0x55],ecx
  4024a2:	xchg   edi,eax
  4024a3:	rol    DWORD PTR [ecx+0x6e000068],cl
  4024a9:	push   0x0
  4024ab:	push   0x68
  4024ad:	push   0x8001036a
  4024b2:	aas    
  4024b3:	(bad)  
  4024b4:	test   eax,0xc1c40173
  4024b9:	and    BYTE PTR [edx*2-0x4a66f3c],0x2e
  4024c1:	mov    ds:0x5ec06144,eax
  4024c6:	(bad)  
  4024c7:	aam    0x4a
  4024c9:	jno    0x4024fd
  4024cb:	into   
  4024cc:	bound  esp,QWORD PTR [ebp+0x76]
  4024cf:	aam    0x1e
  4024d1:	sbb    edx,DWORD PTR [ecx-0x7c]
  4024d4:	sub    ebp,DWORD PTR [ebp+0x52]
  4024d7:	pop    edi
  4024d8:	lds    edx,FWORD PTR [edx+0x27b3bc5d]
  4024de:	dec    esi
  4024df:	xchg   DWORD PTR [ecx+0x6e],ecx
  4024e2:	mov    eax,0xadfbd425
  4024e7:	jns    0x40249e
  4024e9:	xchg   ebx,eax
  4024ea:	adc    DWORD PTR [esi],esi
  4024ec:	sub    al,0x8f
  4024ee:	xchg   edx,eax
  4024ef:	lea    esi,[eax-0x5c713a9c]
  4024f5:	cmp    ch,dh
  4024f7:	aas    
  4024f8:	adc    al,0xa6
  4024fa:	movs   DWORD PTR es:[edi],DWORD PTR ds:[esi]
  4024fb:	cmps   BYTE PTR ds:[esi],BYTE PTR es:[edi]
  4024fc:	lea    esp,[edi-0x3ad51cf8]
  402502:	add    al,0xd7
  402504:	jnp    0x4024c3
  402506:	push   ds
  402507:	clc    
  402508:	xchg   DWORD PTR [ebx+0x12602],edx
  40250e:	add    BYTE PTR [edi+0x1],dh
  402514:	add    DWORD PTR [eax],eax
  402516:	add    BYTE PTR [eax],al
  402518:	add    DWORD PTR [eax],eax
  40251a:	add    BYTE PTR [eax],al
  40251c:	add    DWORD PTR [eax],eax
  40251e:	add    BYTE PTR [eax],al
  402520:	add    DWORD PTR [eax],eax
  402522:	add    BYTE PTR [eax],al
  402524:	add    DWORD PTR [edx-0x6ffeff70],esi
  40252a:	xchg   edx,eax
  40252b:	add    eax,0x42004
  402530:	add    DWORD PTR [edi+0x7b27347b],eax
  402536:	add    DWORD PTR [eax],0x5e
  402539:	mov    al,ds:0x4edf12e2
  40253e:	dec    esp
  40253f:	pop    ecx
  402540:	or     BYTE PTR [ebx+0x68],dl
  402543:	(bad)
  402546:	stc    
  402547:	xor    al,0xa4
  402549:	push   esp
  40254a:	lahf   
  40254b:	and    al,0x8d
  40254d:	pop    edi
  40254e:	push   edi
  40254f:	fstp   QWORD PTR [eax+edx*1-0x4f]
  402553:	jne    0x40256c
  402555:	cs and eax,0x66ef0866
  40255b:	inc    esp
