
1703a18ff6463d2c1376f9d4ed855e1262ca0af90171128c87e0de80917f7ba3.exe:     file format pei-i386


Disassembly of section .text:

004cd000 <.text>:
  4cd000:	pop    edi
  4cd001:	xor    eax,eax
  4cd003:	call   DWORD PTR [eax*8+0x4cf788]
  4cd00a:	push   edi
  4cd00b:	pop    edi
  4cd00c:	jmp    DWORD PTR [esp-0x4]
  4cd010:	pop    edi
  4cd011:	xor    eax,eax
  4cd013:	call   DWORD PTR [eax*8+0x4cf72c]
  4cd01a:	push   edi
  4cd01b:	pop    edi
  4cd01c:	jmp    DWORD PTR [esp-0x4]
  4cd020:	pop    edi
  4cd021:	xor    eax,eax
  4cd023:	call   DWORD PTR [eax*8+0x4cf780]
  4cd02a:	push   edi
  4cd02b:	pop    edi
  4cd02c:	jmp    DWORD PTR [esp-0x4]
  4cd030:	mov    edi,edi
  4cd032:	push   ebp
  4cd033:	mov    ebp,esp
  4cd035:	sub    esp,0x34
  4cd038:	mov    edi,0x4d01f4
  4cd03d:	sbb    esi,DWORD PTR [ebp-0x20]
  4cd040:	push   edi
  4cd041:	push   0x0
  4cd043:	call   0x4cd9a8
  4cd048:	pop    edi
  4cd049:	push   edi
  4cd04a:	push   DWORD PTR [edi+0x19c]
  4cd050:	push   ebx
  4cd051:	call   0x4cdccc
  4cd056:	add    esp,0x8
  4cd059:	pop    edi
  4cd05a:	push   edi
  4cd05b:	call   0x4cde28
  4cd060:	pop    edi
  4cd061:	add    esp,0x34
  4cd064:	pop    ebp
  4cd065:	ret    
  4cd066:	add    BYTE PTR [eax],al
  4cd068:	pop    edi
  4cd069:	xor    eax,eax
  4cd06b:	call   DWORD PTR [eax*8+0x4cf764]
  4cd072:	push   edi
  4cd073:	pop    edi
  4cd074:	jmp    DWORD PTR [esp-0x4]
  4cd078:	mov    edi,edi
  4cd07a:	push   ebp
  4cd07b:	mov    ebp,esp
  4cd07d:	sub    esp,0x60
  4cd080:	mov    ebx,0x4d0068
  4cd085:	or     esi,DWORD PTR [ebx-0x4]
  4cd088:	push   ebx
  4cd089:	push   esi
  4cd08a:	push   esi
  4cd08b:	push   edi
  4cd08c:	call   0x4cdff0
  4cd091:	add    esp,0xc
  4cd094:	pop    ebx
  4cd095:	mov    eax,0x0
  4cd09a:	push   eax
  4cd09b:	call   0x4cddc8
  4cd0a0:	mov    ecx,0x4cf6e8
  4cd0a5:	mov    ecx,DWORD PTR [ecx]
  4cd0a7:	push   ecx
  4cd0a8:	push   DWORD PTR [ebx+0x18]
  4cd0ab:	pop    edx
  4cd0ac:	call   edx
  4cd0ae:	add    esp,0x60
  4cd0b1:	pop    ebp
  4cd0b2:	ret    
  4cd0b3:	add    BYTE PTR [ebx-0x1374aa01],cl
  4cd0b9:	sub    esp,0x50
  4cd0bc:	mov    edx,0x4d0154
  4cd0c1:	xor    DWORD PTR [ebp-0x38],0xffffff84
  4cd0c5:	push   edx
  4cd0c6:	push   esi
  4cd0c7:	push   DWORD PTR [edx+0x1c0]
  4cd0cd:	push   ecx
  4cd0ce:	call   0x4cd738
  4cd0d3:	add    esp,0xc
  4cd0d6:	pop    edx
  4cd0d7:	push   edx
  4cd0d8:	call   0x4cde28
  4cd0dd:	pop    edx
  4cd0de:	push   edx
  4cd0df:	mov    ebx,0x0
  4cd0e4:	push   ebx
  4cd0e5:	call   0x4cd9a8
  4cd0ea:	pop    edx
  4cd0eb:	add    esp,0x50
  4cd0ee:	pop    ebp
  4cd0ef:	ret    
  4cd0f0:	pop    edi
  4cd0f1:	xor    eax,eax
  4cd0f3:	call   DWORD PTR [eax*8+0x4cf718]
  4cd0fa:	push   edi
  4cd0fb:	pop    edi
  4cd0fc:	jmp    DWORD PTR [esp-0x4]
  4cd100:	mov    edi,edi
  4cd102:	push   ebp
  4cd103:	mov    ebp,esp
  4cd105:	sub    esp,0x4c
  4cd108:	mov    ecx,0x4d0148
  4cd10d:	xor    DWORD PTR [ecx+0x8],ebx
  4cd110:	push   ecx
  4cd111:	mov    edi,0x0
  4cd116:	push   edi
  4cd117:	call   0x4cd3e0
  4cd11c:	pop    ecx
  4cd11d:	push   ecx
  4cd11e:	push   eax
  4cd11f:	push   DWORD PTR [ecx+0x78]
  4cd122:	call   0x4cd030
  4cd127:	add    esp,0x8
  4cd12a:	pop    ecx
  4cd12b:	push   ecx
  4cd12c:	mov    ecx,0x0
  4cd131:	push   ecx
  4cd132:	call   0x4cd1a4
  4cd137:	pop    ecx
  4cd138:	add    esp,0x4c
  4cd13b:	pop    ebp
  4cd13c:	ret    
  4cd13d:	add    BYTE PTR [eax],al
  4cd13f:	add    BYTE PTR [edi+0x33],bl
  4cd142:	sar    bh,0x14
  4cd145:	(bad)
  4cd148:	dec    esp
  4cd149:	add    BYTE PTR [edi+0x5f],dl
  4cd14c:	jmp    DWORD PTR [esp-0x4]
  4cd150:	mov    edi,edi
  4cd152:	push   ebp
  4cd153:	mov    ebp,esp
  4cd155:	sub    esp,0x38
  4cd158:	mov    eax,0x4d0078
  4cd15d:	add    DWORD PTR [ebp-0xc],edi
  4cd160:	push   eax
  4cd161:	push   DWORD PTR [eax+0x24]
  4cd164:	push   DWORD PTR [eax+0x6c]
  4cd167:	call   0x4cd33c
  4cd16c:	add    esp,0x8
  4cd16f:	pop    eax
  4cd170:	push   eax
  4cd171:	call   0x4cd0f0
  4cd176:	pop    eax
  4cd177:	push   eax
  4cd178:	call   0x4cd140
  4cd17d:	pop    eax
  4cd17e:	add    esp,0x38
  4cd181:	pop    ebp
  4cd182:	ret    
  4cd183:	add    BYTE PTR [edi+0x33],bl
  4cd186:	sar    bh,0x14
  4cd189:	lds    ecx,FWORD PTR [eax]
  4cd18b:	test   DWORD PTR [eax+eax*1+0x57],0x2464ff5f
  4cd193:	cld    
  4cd194:	pop    edi
  4cd195:	xor    eax,eax
  4cd197:	call   DWORD PTR [eax*8+0x4cf6f8]
  4cd19e:	push   edi
  4cd19f:	pop    edi
  4cd1a0:	jmp    DWORD PTR [esp-0x4]
  4cd1a4:	pop    edi
  4cd1a5:	xor    eax,eax
  4cd1a7:	call   DWORD PTR [eax*8+0x4cf748]
  4cd1ae:	push   edi
  4cd1af:	pop    edi
  4cd1b0:	jmp    DWORD PTR [esp-0x4]
  4cd1b4:	pop    edi
  4cd1b5:	xor    eax,eax
  4cd1b7:	call   DWORD PTR [eax*8+0x4cf704]
  4cd1be:	push   edi
  4cd1bf:	pop    edi
  4cd1c0:	jmp    DWORD PTR [esp-0x4]
  4cd1c4:	mov    edi,edi
  4cd1c6:	push   ebp
  4cd1c7:	mov    ebp,esp
  4cd1c9:	sub    esp,0x50
  4cd1cc:	lea    eax,ds:0x4d015c
  4cd1d2:	cmp    eax,0x5211
  4cd1d7:	jbe    0x4cd1c7
  4cd1d9:	push   eax
  4cd1da:	mov    ebx,0x0
  4cd1df:	push   ebx
  4cd1e0:	call   0x4cdfd0
  4cd1e5:	pop    eax
  4cd1e6:	push   eax
  4cd1e7:	push   DWORD PTR [eax+0xc]
  4cd1ea:	push   DWORD PTR [eax+0x60]
  4cd1ed:	push   ecx
  4cd1ee:	call   0x4cd424
  4cd1f3:	add    esp,0xc
  4cd1f6:	pop    eax
  4cd1f7:	push   eax
  4cd1f8:	mov    ebx,0x0
  4cd1fd:	push   ebx
  4cd1fe:	call   0x4cd3e0
  4cd203:	pop    eax
  4cd204:	add    esp,0x50
  4cd207:	pop    ebp
  4cd208:	ret    
  4cd209:	add    BYTE PTR [eax],al
  4cd20b:	add    BYTE PTR [ebx-0x1374aa01],cl
  4cd211:	sub    esp,0x58
  4cd214:	lea    edi,ds:0x4d0090
  4cd21a:	sbb    DWORD PTR [edi+0x14c],0x4eae
  4cd224:	push   edi
  4cd225:	push   DWORD PTR [edi+0x34]
  4cd228:	push   DWORD PTR [edi+0x170]
  4cd22e:	push   DWORD PTR [edi+0x1d8]
  4cd234:	call   0x4ce06c
  4cd239:	add    esp,0xc
  4cd23c:	pop    edi
  4cd23d:	push   edi
  4cd23e:	push   0x0
  4cd240:	call   0x4cdfd0
  4cd245:	pop    edi
  4cd246:	push   edi
  4cd247:	call   0x4cde18
  4cd24c:	pop    edi
  4cd24d:	add    esp,0x58
  4cd250:	pop    ebp
  4cd251:	ret    
  4cd252:	add    BYTE PTR [eax],al
  4cd254:	mov    edi,edi
  4cd256:	push   ebp
  4cd257:	mov    ebp,esp
  4cd259:	sub    esp,0x34
  4cd25c:	lea    eax,[edx+0x58]
  4cd25f:	and    DWORD PTR [ebp-0x24],0x2c
  4cd263:	push   eax
  4cd264:	mov    eax,0x0
  4cd269:	push   eax
  4cd26a:	call   0x4cddc8
  4cd26f:	pop    eax
  4cd270:	push   eax
  4cd271:	push   DWORD PTR [eax+0x178]
  4cd277:	push   DWORD PTR [eax+0xf0]
  4cd27d:	push   DWORD PTR [eax+0x1b4]
  4cd283:	call   0x4cd958
  4cd288:	add    esp,0xc
  4cd28b:	pop    eax
  4cd28c:	push   eax
  4cd28d:	mov    eax,0x0
  4cd292:	push   eax
  4cd293:	call   0x4cddc8
  4cd298:	pop    eax
  4cd299:	add    esp,0x34
  4cd29c:	pop    ebp
  4cd29d:	ret    
  4cd29e:	add    BYTE PTR [eax],al
  4cd2a0:	mov    edi,edi
  4cd2a2:	push   ebp
  4cd2a3:	mov    ebp,esp
  4cd2a5:	sub    esp,0x54
  4cd2a8:	lea    esi,ds:0x4d0058
  4cd2ae:	add    eax,DWORD PTR [ebp-0x1c]
  4cd2b1:	push   esi
  4cd2b2:	push   DWORD PTR [esi]
  4cd2b4:	push   DWORD PTR [esi+0x48]
  4cd2b7:	push   DWORD PTR [esi+0x4c]
  4cd2ba:	push   ecx
  4cd2bb:	call   0x4cd9b8
  4cd2c0:	add    esp,0x10
  4cd2c3:	pop    esi
  4cd2c4:	call   0x4cd140
  4cd2c9:	push   0x0
  4cd2cb:	call   0x4cd1a4
  4cd2d0:	add    esp,0x54
  4cd2d3:	pop    ebp
  4cd2d4:	ret    
  4cd2d5:	add    BYTE PTR [eax],al
  4cd2d7:	add    BYTE PTR [edi+0x33],bl
  4cd2da:	sar    bh,0x14
  4cd2dd:	lds    eax,FWORD PTR [eax]
  4cd2df:	test   DWORD PTR [eax+eax*1+0x57],0x2464ff5f
  4cd2e7:	cld    
  4cd2e8:	pop    edi
  4cd2e9:	xor    eax,eax
  4cd2eb:	call   DWORD PTR [eax*8+0x4cf70c]
  4cd2f2:	push   edi
  4cd2f3:	pop    edi
  4cd2f4:	jmp    DWORD PTR [esp-0x4]
  4cd2f8:	mov    edi,edi
  4cd2fa:	push   ebp
  4cd2fb:	mov    ebp,esp
  4cd2fd:	sub    esp,0x28
  4cd300:	lea    eax,[esi+0x40]
  4cd303:	xor    DWORD PTR [ebp-0x24],edx
  4cd306:	push   eax
  4cd307:	mov    ebx,0x0
  4cd30c:	push   ebx
  4cd30d:	call   0x4cd3e0
  4cd312:	pop    eax
  4cd313:	push   eax
  4cd314:	push   DWORD PTR [eax+0x8c]
  4cd31a:	push   edi
  4cd31b:	call   0x4cd80c
  4cd320:	add    esp,0x8
  4cd323:	pop    eax
  4cd324:	push   eax
  4cd325:	lea    ebx,[eax-0x19c]
  4cd32b:	push   ebx
  4cd32c:	call   0x4cd718
  4cd331:	test   eax,eax
  4cd333:	jne    0x4cd325
  4cd335:	pop    eax
  4cd336:	add    esp,0x28
  4cd339:	pop    ebp
  4cd33a:	ret    
  4cd33b:	add    BYTE PTR [ebx-0x1374aa01],cl
  4cd341:	sub    esp,0x20
  4cd344:	add    DWORD PTR [ebp-0x14],0x13
  4cd348:	mov    edx,0x4d0198
  4cd34d:	push   edx
  4cd34e:	mov    eax,0x6a8
  4cd353:	push   eax
  4cd354:	push   0x6a8
  4cd359:	mov    ebx,0x40001
  4cd35e:	push   ebx
  4cd35f:	mov    edx,0x86295c76
  4cd364:	push   DWORD PTR [edx+0x7a239a86]
  4cd36a:	sub    DWORD PTR [esp],0x2
  4cd36e:	mov    edx,0x4cf720
  4cd373:	pop    DWORD PTR [edx]
  4cd375:	call   0x4cd708
  4cd37a:	xchg   DWORD PTR [esp],eax
  4cd37d:	mov    edx,eax
  4cd37f:	pop    DWORD PTR [edx-0x118]
  4cd385:	mov    ebx,DWORD PTR [edx-0x118]
  4cd38b:	mov    eax,ebx
  4cd38d:	sub    esi,esi
  4cd38f:	dec    esi
  4cd390:	and    esi,0x4cf038
  4cd396:	mov    ebx,0x631a7e54
  4cd39b:	xor    edi,edi
  4cd39d:	xor    ecx,ecx
  4cd39f:	push   DWORD PTR [esi+ecx*1]
  4cd3a2:	sub    DWORD PTR [esp],ebx
  4cd3a5:	pop    DWORD PTR [eax+ecx*2]
  4cd3a8:	dec    DWORD PTR [eax]
  4cd3aa:	xor    ebx,ebx
  4cd3ac:	add    ebx,DWORD PTR [esi]
  4cd3ae:	add    esi,0x4
  4cd3b1:	add    eax,0x4
  4cd3b4:	add    edi,0x4
  4cd3b7:	cmp    edi,0x6a8
  4cd3bd:	jne    0x4cd39d
  4cd3bf:	push   edx
  4cd3c0:	push   0x0
  4cd3c2:	call   0x4cd184
  4cd3c7:	pop    edx
  4cd3c8:	add    esp,0x20
  4cd3cb:	pop    ebp
  4cd3cc:	ret    
  4cd3cd:	add    BYTE PTR [eax],al
  4cd3cf:	add    BYTE PTR [edi+0x33],bl
  4cd3d2:	sar    bh,0x14
  4cd3d5:	lds    edx,FWORD PTR [eax-0x9]
  4cd3d8:	dec    esp
  4cd3d9:	add    BYTE PTR [edi+0x5f],dl
  4cd3dc:	jmp    DWORD PTR [esp-0x4]
  4cd3e0:	pop    edi
  4cd3e1:	xor    eax,eax
  4cd3e3:	call   DWORD PTR [eax*8+0x4cf754]
  4cd3ea:	push   edi
  4cd3eb:	pop    edi
  4cd3ec:	jmp    DWORD PTR [esp-0x4]
  4cd3f0:	mov    edi,edi
  4cd3f2:	push   ebp
  4cd3f3:	mov    ebp,esp
  4cd3f5:	sub    esp,0x1c
  4cd3f8:	lea    ebx,[esi+0x74]
  4cd3fb:	sub    DWORD PTR [ebx-0xa8],ebx
  4cd401:	call   0x4cde28
  4cd406:	push   ebx
  4cd407:	push   DWORD PTR [ebx+0x9c]
  4cd40d:	push   ecx
  4cd40e:	push   eax
  4cd40f:	push   edi
  4cd410:	call   0x4cde48
  4cd415:	add    esp,0x10
  4cd418:	pop    ebx
  4cd419:	call   0x4cd140
  4cd41e:	add    esp,0x1c
  4cd421:	pop    ebp
  4cd422:	ret    
  4cd423:	add    BYTE PTR [ebx-0x1374aa01],cl
  4cd429:	sub    esp,0x58
  4cd42c:	lea    ecx,[eax+0x18]
  4cd42f:	xor    DWORD PTR [ebp-0xc],0xffffa2a8
  4cd436:	push   ecx
  4cd437:	push   DWORD PTR [ecx+0xa0]
  4cd43d:	push   esi
  4cd43e:	push   eax
  4cd43f:	call   0x4cdacc
  4cd444:	add    esp,0xc
  4cd447:	pop    ecx
  4cd448:	push   ecx
  4cd449:	mov    ebx,0x0
  4cd44e:	push   ebx
  4cd44f:	call   0x4cd3e0
  4cd454:	pop    ecx
  4cd455:	push   ecx
  4cd456:	mov    ebx,0x0
  4cd45b:	push   ebx
  4cd45c:	call   0x4cd3e0
  4cd461:	pop    ecx
  4cd462:	add    esp,0x58
  4cd465:	pop    ebp
  4cd466:	ret    
  4cd467:	add    BYTE PTR [ebx-0x1374aa01],cl
  4cd46d:	sub    esp,0x28
  4cd470:	lea    eax,[ecx-0x144]
  4cd476:	or     esi,DWORD PTR [ebp-0xc]
  4cd479:	push   eax
  4cd47a:	push   DWORD PTR [eax+0x168]
  4cd480:	push   DWORD PTR [eax+0x40]
  4cd483:	call   0x4cdbe0
  4cd488:	add    esp,0x8
  4cd48b:	pop    eax
  4cd48c:	push   eax
  4cd48d:	push   0x0
  4cd48f:	call   0x4cd184
  4cd494:	pop    eax
  4cd495:	push   eax
  4cd496:	push   0x0
  4cd498:	call   0x4cd184
  4cd49d:	pop    eax
  4cd49e:	add    esp,0x28
  4cd4a1:	pop    ebp
  4cd4a2:	ret    
  4cd4a3:	add    BYTE PTR [ebx-0x1374aa01],cl
  4cd4a9:	sub    esp,0x58
  4cd4ac:	lea    ebx,[esi+0x17c]
  4cd4b2:	and    ecx,0xffffc494
  4cd4b8:	lea    esi,[ebx-0x190]
  4cd4be:	push   esi
  4cd4bf:	call   0x4cd718
  4cd4c4:	test   eax,eax
  4cd4c6:	jne    0x4cd4b9
  4cd4c8:	push   ebx
  4cd4c9:	push   DWORD PTR [ebx+0xbc]
  4cd4cf:	push   ecx
  4cd4d0:	call   0x4cd150
  4cd4d5:	add    esp,0x8
  4cd4d8:	pop    ebx
  4cd4d9:	push   0x0
  4cd4db:	call   0x4cd1a4
  4cd4e0:	add    esp,0x58
  4cd4e3:	pop    ebp
  4cd4e4:	ret    
  4cd4e5:	add    BYTE PTR [eax],al
  4cd4e7:	add    BYTE PTR [ebx-0x1374aa01],cl
  4cd4ed:	sub    esp,0x28
  4cd4f0:	lea    esi,ds:0x4d0024
  4cd4f6:	or     DWORD PTR [esi+0x70],0xe7b
  4cd4fd:	push   esi
  4cd4fe:	push   edi
  4cd4ff:	push   DWORD PTR [esi+0x68]
  4cd502:	push   ecx
  4cd503:	push   eax
  4cd504:	call   0x4cdd10
  4cd509:	add    esp,0x10
  4cd50c:	pop    esi
  4cd50d:	call   0x4cde28
  4cd512:	mov    ecx,0x0
  4cd517:	push   ecx
  4cd518:	call   0x4cd1a4
  4cd51d:	add    esp,0x28
  4cd520:	pop    ebp
  4cd521:	ret    
  4cd522:	add    BYTE PTR [eax],al
  4cd524:	push   edi
  4cd525:	xor    edi,edi
  4cd527:	push   edi
  4cd528:	push   edi
  4cd529:	push   edi
  4cd52a:	push   edi
  4cd52b:	call   0x4cd010
  4cd530:	sub    esp,0x4
  4cd533:	call   0x4cd728
  4cd538:	push   0x2
  4cd53a:	xor    eax,eax
  4cd53c:	xor    eax,0x4d00a0
  4cd541:	push   0x0
  4cd543:	inc    DWORD PTR ds:0x4d00a6
  4cd549:	push   eax
  4cd54a:	call   0x4cd708
  4cd54f:	pop    edi
  4cd550:	lea    edi,[eax+0x3b]
  4cd553:	mov    edi,DWORD PTR [edi]
  4cd555:	lea    eax,[eax+edi*1]
  4cd558:	add    eax,0x28
  4cd55b:	mov    eax,DWORD PTR [eax]
  4cd55d:	pusha  
  4cd55e:	mov    ah,0x30
  4cd560:	sub    al,ah
  4cd562:	jb     0x4cd56a
  4cd564:	jg     0x4cd078
  4cd56a:	popa   
  4cd56b:	ret    
  4cd56c:	pop    edi
  4cd56d:	xor    eax,eax
  4cd56f:	call   DWORD PTR [eax*8+0x4cf6fc]
  4cd576:	push   edi
  4cd577:	pop    edi
  4cd578:	jmp    DWORD PTR [esp-0x4]
  4cd57c:	mov    edi,edi
  4cd57e:	push   ebp
  4cd57f:	mov    ebp,esp
  4cd581:	sub    esp,0x58
  4cd584:	lea    ecx,[esi]
  4cd586:	cmp    ecx,0x51b0
  4cd58c:	jb     0x4cd57f
  4cd58e:	push   ecx
  4cd58f:	mov    ecx,0x0
  4cd594:	push   ecx
  4cd595:	call   0x4cd194
  4cd59a:	pop    ecx
  4cd59b:	push   ecx
  4cd59c:	push   DWORD PTR [ecx+0x1c4]
  4cd5a2:	push   DWORD PTR [ecx+0x58]
  4cd5a5:	push   ebx
  4cd5a6:	call   0x4cd658
  4cd5ab:	add    esp,0xc
  4cd5ae:	pop    ecx
  4cd5af:	push   ecx
  4cd5b0:	mov    edx,0x0
  4cd5b5:	push   edx
  4cd5b6:	call   0x4cd1a4
  4cd5bb:	pop    ecx
  4cd5bc:	add    esp,0x58
  4cd5bf:	pop    ebp
  4cd5c0:	ret    
  4cd5c1:	add    BYTE PTR [eax],al
  4cd5c3:	add    BYTE PTR [ebx-0x1374aa01],cl
  4cd5c9:	sub    esp,0x24
  4cd5cc:	lea    eax,ds:0x4d01d8
  4cd5d2:	sub    DWORD PTR [eax-0x164],0x2
  4cd5d9:	push   eax
  4cd5da:	push   DWORD PTR [eax+0xb8]
  4cd5e0:	push   DWORD PTR [eax+0xac]
  4cd5e6:	push   DWORD PTR [eax+0xec]
  4cd5ec:	call   0x4cdf10
  4cd5f1:	add    esp,0xc
  4cd5f4:	pop    eax
  4cd5f5:	push   eax
  4cd5f6:	mov    edi,0x0
  4cd5fb:	push   edi
  4cd5fc:	call   0x4cd9a8
  4cd601:	pop    eax
  4cd602:	push   eax
  4cd603:	call   0x4cd0f0
  4cd608:	pop    eax
  4cd609:	add    esp,0x24
  4cd60c:	pop    ebp
  4cd60d:	ret    
  4cd60e:	add    BYTE PTR [eax],al
  4cd610:	pop    edi
  4cd611:	xor    eax,eax
  4cd613:	call   DWORD PTR [eax*8+0x4cf744]
  4cd61a:	push   edi
  4cd61b:	pop    edi
  4cd61c:	jmp    DWORD PTR [esp-0x4]
  4cd620:	mov    edi,edi
  4cd622:	push   ebp
  4cd623:	mov    ebp,esp
  4cd625:	sub    esp,0x54
  4cd628:	lea    ebx,[ecx+0x170]
  4cd62e:	and    ecx,0x46
  4cd631:	push   ebx
  4cd632:	push   edi
  4cd633:	push   edi
  4cd634:	push   esi
  4cd635:	push   edi
  4cd636:	call   0x4cdd88
  4cd63b:	add    esp,0x10
  4cd63e:	pop    ebx
  4cd63f:	push   0x0
  4cd641:	call   0x4cddc8
  4cd646:	mov    esi,0x0
  4cd64b:	push   esi
  4cd64c:	call   0x4cd9a8
  4cd651:	add    esp,0x54
  4cd654:	pop    ebp
  4cd655:	ret    
  4cd656:	add    BYTE PTR [eax],al
  4cd658:	mov    edi,edi
  4cd65a:	push   ebp
  4cd65b:	mov    ebp,esp
  4cd65d:	sub    esp,0x34
  4cd660:	mov    ebx,0x4d01c8
  4cd665:	xor    esi,DWORD PTR [ebp-0x34]
  4cd668:	call   0x4cd0f0
  4cd66d:	push   ebx
  4cd66e:	push   DWORD PTR [ebx+0x170]
  4cd674:	push   DWORD PTR [ebx+0xb8]
  4cd67a:	push   DWORD PTR [ebx+0xdc]
  4cd680:	call   0x4cddd8
  4cd685:	add    esp,0xc
  4cd688:	pop    ebx
  4cd689:	mov    edx,0xfffffff4
  4cd68e:	push   edx
  4cd68f:	call   0x4cd010
  4cd694:	add    esp,0x34
  4cd697:	pop    ebp
  4cd698:	ret    
  4cd699:	add    BYTE PTR [eax],al
  4cd69b:	add    BYTE PTR [ebx-0x1374aa01],cl
  4cd6a1:	sub    esp,0x38
  4cd6a4:	lea    eax,[edx+0x128]
  4cd6aa:	and    ecx,0xffff9ac3
  4cd6b0:	push   eax
  4cd6b1:	push   DWORD PTR [eax+0x184]
  4cd6b7:	push   DWORD PTR [eax+0x14c]
  4cd6bd:	push   ebx
  4cd6be:	call   0x4cd920
  4cd6c3:	add    esp,0xc
  4cd6c6:	pop    eax
  4cd6c7:	push   eax
  4cd6c8:	mov    edx,0x0
  4cd6cd:	push   edx
  4cd6ce:	call   0x4cd9a8
  4cd6d3:	pop    eax
  4cd6d4:	push   eax
  4cd6d5:	mov    edi,0xfffffff4
  4cd6da:	push   edi
  4cd6db:	call   0x4cd010
  4cd6e0:	pop    eax
  4cd6e1:	add    esp,0x38
  4cd6e4:	pop    ebp
  4cd6e5:	ret    
  4cd6e6:	add    BYTE PTR [eax],al
  4cd6e8:	pop    edi
  4cd6e9:	xor    eax,eax
  4cd6eb:	call   DWORD PTR [eax*8+0x4cf770]
  4cd6f2:	push   edi
  4cd6f3:	pop    edi
  4cd6f4:	jmp    DWORD PTR [esp-0x4]
  4cd6f8:	pop    edi
  4cd6f9:	xor    eax,eax
  4cd6fb:	call   DWORD PTR [eax*8+0x4cf760]
  4cd702:	push   edi
  4cd703:	pop    edi
  4cd704:	jmp    DWORD PTR [esp-0x4]
  4cd708:	pop    edi
  4cd709:	xor    eax,eax
  4cd70b:	call   DWORD PTR [eax*8+0x4cf720]
  4cd712:	push   edi
  4cd713:	pop    edi
  4cd714:	jmp    DWORD PTR [esp-0x4]
  4cd718:	pop    edi
  4cd719:	xor    eax,eax
  4cd71b:	call   DWORD PTR [eax*8+0x4cf6e8]
  4cd722:	push   edi
  4cd723:	pop    edi
  4cd724:	jmp    DWORD PTR [esp-0x4]
  4cd728:	pop    edi
  4cd729:	xor    eax,eax
  4cd72b:	call   DWORD PTR [eax*8+0x4cf71c]
  4cd732:	push   edi
  4cd733:	pop    edi
  4cd734:	jmp    DWORD PTR [esp-0x4]
  4cd738:	mov    edi,edi
  4cd73a:	push   ebp
  4cd73b:	mov    ebp,esp
  4cd73d:	sub    esp,0x5c
  4cd740:	lea    ecx,ds:0x4d0030
  4cd746:	adc    DWORD PTR [ecx+0x194],ebx
  4cd74c:	push   ecx
  4cd74d:	mov    edx,0x0
  4cd752:	push   edx
  4cd753:	call   0x4cd6f8
  4cd758:	pop    ecx
  4cd759:	push   ecx
  4cd75a:	push   edi
  4cd75b:	push   esi
  4cd75c:	push   eax
  4cd75d:	push   DWORD PTR [ecx+0x1dc]
  4cd763:	call   0x4cd778
  4cd768:	add    esp,0x10
  4cd76b:	pop    ecx
  4cd76c:	push   ecx
  4cd76d:	call   0x4cd0f0
  4cd772:	pop    ecx
  4cd773:	add    esp,0x5c
  4cd776:	pop    ebp
  4cd777:	ret    
  4cd778:	mov    edi,edi
  4cd77a:	push   ebp
  4cd77b:	mov    ebp,esp
  4cd77d:	sub    esp,0x44
  4cd780:	mov    edi,0x4d005c
  4cd785:	and    ebx,0xffff83df
  4cd78b:	push   edi
  4cd78c:	push   DWORD PTR [edi+0x88]
  4cd792:	push   ebx
  4cd793:	push   DWORD PTR [edi+0x168]
  4cd799:	call   0x4cda08
  4cd79e:	add    esp,0xc
  4cd7a1:	pop    edi
  4cd7a2:	push   edi
  4cd7a3:	push   0x0
  4cd7a5:	call   0x4cd194
  4cd7aa:	pop    edi
  4cd7ab:	push   edi
  4cd7ac:	push   0x0
  4cd7ae:	call   0x4cd6f8
  4cd7b3:	pop    edi
  4cd7b4:	add    esp,0x44
  4cd7b7:	pop    ebp
  4cd7b8:	ret    
  4cd7b9:	add    BYTE PTR [eax],al
  4cd7bb:	add    BYTE PTR [edi+0x33],bl
  4cd7be:	sar    bh,0x14
  4cd7c1:	lds    ebx,FWORD PTR [eax-0x9]
  4cd7c4:	dec    esp
  4cd7c5:	add    BYTE PTR [edi+0x5f],dl
  4cd7c8:	jmp    DWORD PTR [esp-0x4]
  4cd7cc:	mov    edi,edi
  4cd7ce:	push   ebp
  4cd7cf:	mov    ebp,esp
  4cd7d1:	sub    esp,0x4c
  4cd7d4:	lea    ebx,ds:0x4d0114
  4cd7da:	add    edx,DWORD PTR [ebx+0x30]
  4cd7dd:	push   ebx
  4cd7de:	push   DWORD PTR [ebx+0x12c]
  4cd7e4:	push   DWORD PTR [ebx+0x194]
  4cd7ea:	push   DWORD PTR [ebx+0xe0]
  4cd7f0:	call   0x4cdf54
  4cd7f5:	add    esp,0xc
  4cd7f8:	pop    ebx
  4cd7f9:	call   0x4cd140
  4cd7fe:	push   0x0
  4cd800:	call   0x4cd1a4
  4cd805:	add    esp,0x4c
  4cd808:	pop    ebp
  4cd809:	ret    
  4cd80a:	add    BYTE PTR [eax],al
  4cd80c:	mov    edi,edi
  4cd80e:	push   ebp
  4cd80f:	mov    ebp,esp
  4cd811:	sub    esp,0x48
  4cd814:	lea    edx,ds:0x4d0118
  4cd81a:	adc    edi,DWORD PTR [edx-0x94]
  4cd820:	push   edx
  4cd821:	mov    esi,0xfffffff4
  4cd826:	push   esi
  4cd827:	call   0x4cd010
  4cd82c:	pop    edx
  4cd82d:	push   edx
  4cd82e:	push   eax
  4cd82f:	push   edi
  4cd830:	push   edi
  4cd831:	call   0x4cd20c
  4cd836:	add    esp,0xc
  4cd839:	pop    edx
  4cd83a:	push   edx
  4cd83b:	mov    edx,0x0
  4cd840:	push   edx
  4cd841:	call   0x4cddc8
  4cd846:	pop    edx
  4cd847:	add    esp,0x48
  4cd84a:	pop    ebp
  4cd84b:	ret    
  4cd84c:	pop    edi
  4cd84d:	xor    eax,eax
  4cd84f:	call   DWORD PTR [eax*8+0x4cf778]
  4cd856:	push   edi
  4cd857:	pop    edi
  4cd858:	jmp    DWORD PTR [esp-0x4]
  4cd85c:	mov    edi,edi
  4cd85e:	push   ebp
  4cd85f:	mov    ebp,esp
  4cd861:	sub    esp,0x30
  4cd864:	mov    esi,0x4d015c
  4cd869:	adc    ebx,DWORD PTR [esi-0x28]
  4cd86c:	push   0xfffffff4
  4cd86e:	call   0x4cd010
  4cd873:	push   esi
  4cd874:	push   eax
  4cd875:	push   DWORD PTR [esi+0x170]
  4cd87b:	call   0x4cd2f8
  4cd880:	add    esp,0x8
  4cd883:	pop    esi
  4cd884:	mov    ebx,0x0
  4cd889:	push   ebx
  4cd88a:	call   0x4cdfd0
  4cd88f:	add    esp,0x30
  4cd892:	pop    ebp
  4cd893:	ret    
  4cd894:	pop    edi
  4cd895:	xor    eax,eax
  4cd897:	call   DWORD PTR [eax*8+0x4cf6f0]
  4cd89e:	push   edi
  4cd89f:	pop    edi
  4cd8a0:	jmp    DWORD PTR [esp-0x4]
  4cd8a4:	mov    edi,edi
  4cd8a6:	push   ebp
  4cd8a7:	mov    ebp,esp
  4cd8a9:	sub    esp,0x5c
  4cd8ac:	lea    esi,[edx+0x58]
  4cd8af:	adc    eax,DWORD PTR [esi-0x28]
  4cd8b2:	push   esi
  4cd8b3:	push   ecx
  4cd8b4:	push   edi
  4cd8b5:	push   eax
  4cd8b6:	call   0x4cdb10
  4cd8bb:	add    esp,0xc
  4cd8be:	pop    esi
  4cd8bf:	mov    edx,0x0
  4cd8c4:	push   edx
  4cd8c5:	call   0x4cd6f8
  4cd8ca:	mov    ebx,0xfffffff4
  4cd8cf:	push   ebx
  4cd8d0:	call   0x4cd010
  4cd8d5:	add    esp,0x5c
  4cd8d8:	pop    ebp
  4cd8d9:	ret    
  4cd8da:	add    BYTE PTR [eax],al
  4cd8dc:	pop    edi
  4cd8dd:	xor    eax,eax
  4cd8df:	call   DWORD PTR [eax*8+0x4cf75c]
  4cd8e6:	push   edi
  4cd8e7:	pop    edi
  4cd8e8:	jmp    DWORD PTR [esp-0x4]
  4cd8ec:	mov    edi,edi
  4cd8ee:	push   ebp
  4cd8ef:	mov    ebp,esp
  4cd8f1:	sub    esp,0x44
  4cd8f4:	lea    ebx,[ecx+0xdc]
  4cd8fa:	sub    eax,ebx
  4cd8fc:	push   ebx
  4cd8fd:	push   esi
  4cd8fe:	push   ecx
  4cd8ff:	push   DWORD PTR [ebx+0x1dc]
  4cd905:	call   0x4cdc8c
  4cd90a:	add    esp,0xc
  4cd90d:	pop    ebx
  4cd90e:	call   0x4cde18
  4cd913:	push   0x0
  4cd915:	call   0x4cddc8
  4cd91a:	add    esp,0x44
  4cd91d:	pop    ebp
  4cd91e:	ret    
  4cd91f:	add    BYTE PTR [ebx-0x1374aa01],cl
  4cd925:	sub    esp,0x38
  4cd928:	lea    esi,ds:0x4d010c
  4cd92e:	mov    DWORD PTR [ebp-0xc],ebx
  4cd931:	call   0x4cde28
  4cd936:	push   esi
  4cd937:	push   DWORD PTR [esi+0x38]
  4cd93a:	push   ecx
  4cd93b:	push   DWORD PTR [esi+0xf8]
  4cd941:	push   eax
  4cd942:	call   0x4cdb50
  4cd947:	add    esp,0x10
  4cd94a:	pop    esi
  4cd94b:	call   0x4cd140
  4cd950:	add    esp,0x38
  4cd953:	pop    ebp
  4cd954:	ret    
  4cd955:	add    BYTE PTR [eax],al
  4cd957:	add    BYTE PTR [ebx-0x1374aa01],cl
  4cd95d:	sub    esp,0x20
  4cd960:	lea    esi,[eax-0x88]
  4cd966:	or     DWORD PTR [ebp-0x14],ecx
  4cd969:	push   esi
  4cd96a:	push   DWORD PTR [esi+0x140]
  4cd970:	push   ebx
  4cd971:	push   edi
  4cd972:	call   0x4cd57c
  4cd977:	add    esp,0xc
  4cd97a:	pop    esi
  4cd97b:	lea    edi,[esi-0xe4]
  4cd981:	push   edi
  4cd982:	call   0x4cd718
  4cd987:	test   eax,eax
  4cd989:	jne    0x4cd97c
  4cd98b:	push   0x0
  4cd98d:	call   0x4cddc8
  4cd992:	add    esp,0x20
  4cd995:	pop    ebp
  4cd996:	ret    
  4cd997:	add    BYTE PTR [edi+0x33],bl
  4cd99a:	sar    bh,0x14
  4cd99d:	lds    edx,FWORD PTR [edi+esi*8]
  4cd9a0:	dec    esp
  4cd9a1:	add    BYTE PTR [edi+0x5f],dl
  4cd9a4:	jmp    DWORD PTR [esp-0x4]
  4cd9a8:	pop    edi
  4cd9a9:	xor    eax,eax
  4cd9ab:	call   DWORD PTR [eax*8+0x4cf710]
  4cd9b2:	push   edi
  4cd9b3:	pop    edi
  4cd9b4:	jmp    DWORD PTR [esp-0x4]
  4cd9b8:	mov    edi,edi
  4cd9ba:	push   ebp
  4cd9bb:	mov    ebp,esp
  4cd9bd:	sub    esp,0x30
  4cd9c0:	lea    edx,ds:0x4d01a0
  4cd9c6:	and    DWORD PTR [edx-0xe0],0xffff970d
  4cd9d0:	push   edx
  4cd9d1:	push   0x0
  4cd9d3:	call   0x4cd1a4
  4cd9d8:	pop    edx
  4cd9d9:	push   edx
  4cd9da:	push   esi
  4cd9db:	push   edi
  4cd9dc:	push   ecx
  4cd9dd:	push   ecx
  4cd9de:	call   0x4ce030
  4cd9e3:	add    esp,0x10
  4cd9e6:	pop    edx
  4cd9e7:	push   edx
  4cd9e8:	push   0x0
  4cd9ea:	call   0x4cd194
  4cd9ef:	pop    edx
  4cd9f0:	add    esp,0x30
  4cd9f3:	pop    ebp
  4cd9f4:	ret    
  4cd9f5:	add    BYTE PTR [eax],al
  4cd9f7:	add    BYTE PTR [edi+0x33],bl
  4cd9fa:	sar    bh,0x14
  4cd9fd:	lds    eax,FWORD PTR [edi+esi*8+0x5f57004c]
  4cda04:	jmp    DWORD PTR [esp-0x4]
  4cda08:	mov    edi,edi
  4cda0a:	push   ebp
  4cda0b:	mov    ebp,esp
  4cda0d:	sub    esp,0x20
  4cda10:	mov    eax,0x4d0124
  4cda15:	and    DWORD PTR [eax-0x90],ebx
  4cda1b:	push   eax
  4cda1c:	mov    eax,0x0
  4cda21:	push   eax
  4cda22:	call   0x4cdfd0
  4cda27:	pop    eax
  4cda28:	push   eax
  4cda29:	push   edi
  4cda2a:	push   DWORD PTR [eax+0x1ac]
  4cda30:	push   DWORD PTR [eax+0x18c]
  4cda36:	call   0x4cda64
  4cda3b:	add    esp,0xc
  4cda3e:	pop    eax
  4cda3f:	push   eax
  4cda40:	mov    edx,0x0
  4cda45:	push   edx
  4cda46:	call   0x4cd3e0
  4cda4b:	pop    eax
  4cda4c:	add    esp,0x20
  4cda4f:	pop    ebp
  4cda50:	ret    
  4cda51:	add    BYTE PTR [eax],al
  4cda53:	add    BYTE PTR [edi+0x33],bl
  4cda56:	sar    bh,0x14
  4cda59:	lds    ebp,FWORD PTR [eax-0x9]
  4cda5c:	dec    esp
  4cda5d:	add    BYTE PTR [edi+0x5f],dl
  4cda60:	jmp    DWORD PTR [esp-0x4]
  4cda64:	mov    edi,edi
  4cda66:	push   ebp
  4cda67:	mov    ebp,esp
  4cda69:	sub    esp,0x50
  4cda6c:	lea    esi,ds:0x4d00f8
  4cda72:	xor    DWORD PTR [esi+0x8],ebx
  4cda75:	push   0x0
  4cda77:	call   0x4cd9a8
  4cda7c:	push   esi
  4cda7d:	push   edi
  4cda7e:	push   ecx
  4cda7f:	call   0x4cdec4
  4cda84:	add    esp,0x8
  4cda87:	pop    esi
  4cda88:	push   0x0
  4cda8a:	call   0x4cd9a8
  4cda8f:	add    esp,0x50
  4cda92:	pop    ebp
  4cda93:	ret    
  4cda94:	mov    edi,edi
  4cda96:	push   ebp
  4cda97:	mov    ebp,esp
  4cda99:	sub    esp,0x60
  4cda9c:	lea    esi,[eax-0x19c]
  4cdaa2:	mov    edx,ecx
  4cdaa4:	push   0x0
  4cdaa6:	call   0x4cdfd0
  4cdaab:	push   esi
  4cdaac:	push   ebx
  4cdaad:	push   ecx
  4cdaae:	push   ecx
  4cdaaf:	push   ecx
  4cdab0:	call   0x4cdf98
  4cdab5:	add    esp,0x10
  4cdab8:	pop    esi
  4cdab9:	mov    ebx,0x0
  4cdabe:	push   ebx
  4cdabf:	call   0x4cd184
  4cdac4:	add    esp,0x60
  4cdac7:	pop    ebp
  4cdac8:	ret    
  4cdac9:	add    BYTE PTR [eax],al
  4cdacb:	add    BYTE PTR [ebx-0x1374aa01],cl
  4cdad1:	sub    esp,0x2c
  4cdad4:	lea    edx,[ecx-0x64]
  4cdad7:	and    ebx,edi
  4cdad9:	push   edx
  4cdada:	push   0x0
  4cdadc:	call   0x4cd184
  4cdae1:	pop    edx
  4cdae2:	push   edx
  4cdae3:	push   ebx
  4cdae4:	push   ecx
  4cdae5:	call   0x4cd100
  4cdaea:	add    esp,0x8
  4cdaed:	pop    edx
  4cdaee:	push   edx
  4cdaef:	mov    ecx,0x0
  4cdaf4:	push   ecx
  4cdaf5:	call   0x4cd184
  4cdafa:	pop    edx
  4cdafb:	add    esp,0x2c
  4cdafe:	pop    ebp
  4cdaff:	ret    
  4cdb00:	pop    edi
  4cdb01:	xor    eax,eax
  4cdb03:	call   DWORD PTR [eax*8+0x4cf73c]
  4cdb0a:	push   edi
  4cdb0b:	pop    edi
  4cdb0c:	jmp    DWORD PTR [esp-0x4]
  4cdb10:	mov    edi,edi
  4cdb12:	push   ebp
  4cdb13:	mov    ebp,esp
  4cdb15:	sub    esp,0x20
  4cdb18:	mov    ecx,0x4d00f0
  4cdb1d:	sub    DWORD PTR [ebp-0x1c],0x5c27
  4cdb24:	push   ecx
  4cdb25:	push   esi
  4cdb26:	push   DWORD PTR [ecx+0x1b4]
  4cdb2c:	call   0x4cd8ec
  4cdb31:	add    esp,0x8
  4cdb34:	pop    ecx
  4cdb35:	push   ecx
  4cdb36:	push   0x0
  4cdb38:	call   0x4cd9a8
  4cdb3d:	pop    ecx
  4cdb3e:	push   ecx
  4cdb3f:	mov    esi,0x0
  4cdb44:	push   esi
  4cdb45:	call   0x4cd6f8
  4cdb4a:	pop    ecx
  4cdb4b:	add    esp,0x20
  4cdb4e:	pop    ebp
  4cdb4f:	ret    
  4cdb50:	mov    edi,edi
  4cdb52:	push   ebp
  4cdb53:	mov    ebp,esp
  4cdb55:	sub    esp,0x48
  4cdb58:	lea    ecx,ds:0x4d017c
  4cdb5e:	sub    DWORD PTR [ebp-0x3c],0x60
  4cdb62:	push   ecx
  4cdb63:	mov    esi,0x0
  4cdb68:	push   esi
  4cdb69:	call   0x4cd9a8
  4cdb6e:	pop    ecx
  4cdb6f:	push   ecx
  4cdb70:	push   DWORD PTR [ecx+0x1ac]
  4cdb76:	push   esi
  4cdb77:	call   0x4cd468
  4cdb7c:	add    esp,0x8
  4cdb7f:	pop    ecx
  4cdb80:	push   ecx
  4cdb81:	mov    ebx,0x0
  4cdb86:	push   ebx
  4cdb87:	call   0x4cd3e0
  4cdb8c:	pop    ecx
  4cdb8d:	add    esp,0x48
  4cdb90:	pop    ebp
  4cdb91:	ret    
  4cdb92:	add    BYTE PTR [eax],al
  4cdb94:	pop    edi
  4cdb95:	xor    eax,eax
  4cdb97:	call   DWORD PTR [eax*8+0x4cf74c]
  4cdb9e:	push   edi
  4cdb9f:	pop    edi
  4cdba0:	jmp    DWORD PTR [esp-0x4]
  4cdba4:	mov    edi,edi
  4cdba6:	push   ebp
  4cdba7:	mov    ebp,esp
  4cdba9:	sub    esp,0x4c
  4cdbac:	lea    esi,[ecx-0xac]
  4cdbb2:	add    DWORD PTR [ebp-0xc],0xffffff9d
  4cdbb6:	push   esi
  4cdbb7:	push   DWORD PTR [esi+0x1e4]
  4cdbbd:	push   edi
  4cdbbe:	push   edi
  4cdbbf:	push   DWORD PTR [esi+0x68]
  4cdbc2:	call   0x4cd3f0
  4cdbc7:	add    esp,0x10
  4cdbca:	pop    esi
  4cdbcb:	push   0x0
  4cdbcd:	call   0x4cd9a8
  4cdbd2:	push   0x0
  4cdbd4:	call   0x4cd3e0
  4cdbd9:	add    esp,0x4c
  4cdbdc:	pop    ebp
  4cdbdd:	ret    
  4cdbde:	add    BYTE PTR [eax],al
  4cdbe0:	mov    edi,edi
  4cdbe2:	push   ebp
  4cdbe3:	mov    ebp,esp
  4cdbe5:	sub    esp,0x50
  4cdbe8:	lea    ebx,[eax+0xf4]
  4cdbee:	sub    DWORD PTR [ebx-0xa8],ebx
  4cdbf4:	call   0x4cd140
  4cdbf9:	push   ebx
  4cdbfa:	push   edx
  4cdbfb:	push   DWORD PTR [ebx+0xd8]
  4cdc01:	call   0x4cd85c
  4cdc06:	add    esp,0x8
  4cdc09:	pop    ebx
  4cdc0a:	push   0x0
  4cdc0c:	call   0x4cddc8
  4cdc11:	add    esp,0x50
  4cdc14:	pop    ebp
  4cdc15:	ret    
  4cdc16:	add    BYTE PTR [eax],al
  4cdc18:	mov    edi,edi
  4cdc1a:	push   ebp
  4cdc1b:	mov    ebp,esp
  4cdc1d:	sub    esp,0x50
  4cdc20:	lea    eax,[esi+0xf8]
  4cdc26:	and    DWORD PTR [eax-0xc0],eax
  4cdc2c:	push   eax
  4cdc2d:	push   esi
  4cdc2e:	push   DWORD PTR [eax+0x98]
  4cdc34:	call   0x4cd2a0
  4cdc39:	add    esp,0x8
  4cdc3c:	pop    eax
  4cdc3d:	push   eax
  4cdc3e:	mov    edx,0x0
  4cdc43:	push   edx
  4cdc44:	call   0x4cd194
  4cdc49:	pop    eax
  4cdc4a:	push   eax
  4cdc4b:	mov    ecx,0x0
  4cdc50:	push   ecx
  4cdc51:	call   0x4cd184
  4cdc56:	pop    eax
  4cdc57:	add    esp,0x50
  4cdc5a:	pop    ebp
  4cdc5b:	ret    
  4cdc5c:	pop    edi
  4cdc5d:	xor    eax,eax
  4cdc5f:	call   DWORD PTR [eax*8+0x4cf728]
  4cdc66:	push   edi
  4cdc67:	pop    edi
  4cdc68:	jmp    DWORD PTR [esp-0x4]
  4cdc6c:	pop    edi
  4cdc6d:	xor    eax,eax
  4cdc6f:	call   DWORD PTR [eax*8+0x4cf740]
  4cdc76:	push   edi
  4cdc77:	pop    edi
  4cdc78:	jmp    DWORD PTR [esp-0x4]
  4cdc7c:	pop    edi
  4cdc7d:	xor    eax,eax
  4cdc7f:	call   DWORD PTR [eax*8+0x4cf77c]
  4cdc86:	push   edi
  4cdc87:	pop    edi
  4cdc88:	jmp    DWORD PTR [esp-0x4]
  4cdc8c:	mov    edi,edi
  4cdc8e:	push   ebp
  4cdc8f:	mov    ebp,esp
  4cdc91:	sub    esp,0x30
  4cdc94:	mov    edi,0x4d00c0
  4cdc99:	sub    DWORD PTR [edi+0xb8],esi
  4cdc9f:	push   edi
  4cdca0:	push   DWORD PTR [edi+0x64]
  4cdca3:	push   ecx
  4cdca4:	push   DWORD PTR [edi+0x1f8]
  4cdcaa:	push   edx
  4cdcab:	call   0x4cd0b4
  4cdcb0:	add    esp,0x10
  4cdcb3:	pop    edi
  4cdcb4:	push   edi
  4cdcb5:	push   0x0
  4cdcb7:	call   0x4cd9a8
  4cdcbc:	pop    edi
  4cdcbd:	push   edi
  4cdcbe:	push   0x0
  4cdcc0:	call   0x4cd2e8
  4cdcc5:	pop    edi
  4cdcc6:	add    esp,0x30
  4cdcc9:	pop    ebp
  4cdcca:	ret    
  4cdccb:	add    BYTE PTR [ebx-0x1374aa01],cl
  4cdcd1:	sub    esp,0x40
  4cdcd4:	lea    esi,[edi-0x1e0]
  4cdcda:	adc    DWORD PTR [ebp-0xc],0xffffdde1
  4cdce1:	push   0x0
  4cdce3:	call   0x4cdfd0
  4cdce8:	push   esi
  4cdce9:	push   DWORD PTR [esi+0x160]
  4cdcef:	push   DWORD PTR [esi+0x190]
  4cdcf5:	push   ebx
  4cdcf6:	call   0x4cd4a4
  4cdcfb:	add    esp,0xc
  4cdcfe:	pop    esi
  4cdcff:	mov    ecx,0x0
  4cdd04:	push   ecx
  4cdd05:	call   0x4cdfd0
  4cdd0a:	add    esp,0x40
  4cdd0d:	pop    ebp
  4cdd0e:	ret    
  4cdd0f:	add    BYTE PTR [ebx-0x1374aa01],cl
  4cdd15:	sub    esp,0x60
  4cdd18:	lea    ecx,ds:0x4d014c
  4cdd1e:	or     esi,0x1b
  4cdd21:	push   ecx
  4cdd22:	call   0x4cd0f0
  4cdd27:	pop    ecx
  4cdd28:	push   ecx
  4cdd29:	push   DWORD PTR [ecx+0xb0]
  4cdd2f:	push   ebx
  4cdd30:	call   0x4cdba4
  4cdd35:	add    esp,0x8
  4cdd38:	pop    ecx
  4cdd39:	push   ecx
  4cdd3a:	call   0x4cd0f0
  4cdd3f:	pop    ecx
  4cdd40:	add    esp,0x60
  4cdd43:	pop    ebp
  4cdd44:	ret    
  4cdd45:	add    BYTE PTR [eax],al
  4cdd47:	add    BYTE PTR [ebx-0x1374aa01],cl
  4cdd4d:	sub    esp,0x44
  4cdd50:	lea    ecx,[eax-0x188]
  4cdd56:	cmp    ecx,0x70c8
  4cdd5c:	je     0x4cdd4b
  4cdd5e:	push   ecx
  4cdd5f:	mov    edi,0x0
  4cdd64:	push   edi
  4cdd65:	call   0x4cd3e0
  4cdd6a:	pop    ecx
  4cdd6b:	push   ecx
  4cdd6c:	push   eax
  4cdd6d:	push   esi
  4cdd6e:	push   edx
  4cdd6f:	call   0x4cde7c
  4cdd74:	add    esp,0xc
  4cdd77:	pop    ecx
  4cdd78:	push   ecx
  4cdd79:	push   0xfffffff4
  4cdd7b:	call   0x4cd010
  4cdd80:	pop    ecx
  4cdd81:	add    esp,0x44
  4cdd84:	pop    ebp
  4cdd85:	ret    
  4cdd86:	add    BYTE PTR [eax],al
  4cdd88:	mov    edi,edi
  4cdd8a:	push   ebp
  4cdd8b:	mov    ebp,esp
  4cdd8d:	sub    esp,0x34
  4cdd90:	lea    edi,[ebx-0xac]
  4cdd96:	mov    eax,DWORD PTR [ebp-0xc]
  4cdd99:	push   edi
  4cdd9a:	push   DWORD PTR [edi+0x5c]
  4cdd9d:	push   ecx
  4cdd9e:	push   DWORD PTR [edi+0xf4]
  4cdda4:	call   0x4cd4e8
  4cdda9:	add    esp,0xc
  4cddac:	pop    edi
  4cddad:	push   edi
  4cddae:	push   0x0
  4cddb0:	call   0x4cd2e8
  4cddb5:	pop    edi
  4cddb6:	push   edi
  4cddb7:	mov    eax,0x0
  4cddbc:	push   eax
  4cddbd:	call   0x4cd6f8
  4cddc2:	pop    edi
  4cddc3:	add    esp,0x34
  4cddc6:	pop    ebp
  4cddc7:	ret    
  4cddc8:	pop    edi
  4cddc9:	xor    eax,eax
  4cddcb:	call   DWORD PTR [eax*8+0x4cf734]
  4cddd2:	push   edi
  4cddd3:	pop    edi
  4cddd4:	jmp    DWORD PTR [esp-0x4]
  4cddd8:	mov    edi,edi
  4cddda:	push   ebp
  4cdddb:	mov    ebp,esp
  4cdddd:	sub    esp,0x4c
  4cdde0:	lea    eax,[ebx-0x20]
  4cdde3:	cmp    eax,0x7b15
  4cdde8:	je     0x4cdddb
  4cddea:	push   eax
  4cddeb:	mov    edx,0x0
  4cddf0:	push   edx
  4cddf1:	call   0x4cdfd0
  4cddf6:	pop    eax
  4cddf7:	push   eax
  4cddf8:	push   ecx
  4cddf9:	push   ebx
  4cddfa:	push   DWORD PTR [eax+0x8c]
  4cde00:	push   esi
  4cde01:	call   0x4cdd48
  4cde06:	add    esp,0x10
  4cde09:	pop    eax
  4cde0a:	push   eax
  4cde0b:	push   0x0
  4cde0d:	call   0x4cd3e0
  4cde12:	pop    eax
  4cde13:	add    esp,0x4c
  4cde16:	pop    ebp
  4cde17:	ret    
  4cde18:	pop    edi
  4cde19:	xor    eax,eax
  4cde1b:	call   DWORD PTR [eax*8+0x4cf6ec]
  4cde22:	push   edi
  4cde23:	pop    edi
  4cde24:	jmp    DWORD PTR [esp-0x4]
  4cde28:	pop    edi
  4cde29:	xor    eax,eax
  4cde2b:	call   DWORD PTR [eax*8+0x4cf724]
  4cde32:	push   edi
  4cde33:	pop    edi
  4cde34:	jmp    DWORD PTR [esp-0x4]
  4cde38:	pop    edi
  4cde39:	xor    eax,eax
  4cde3b:	call   DWORD PTR [eax*8+0x4cf774]
  4cde42:	push   edi
  4cde43:	pop    edi
  4cde44:	jmp    DWORD PTR [esp-0x4]
  4cde48:	mov    edi,edi
  4cde4a:	push   ebp
  4cde4b:	mov    ebp,esp
  4cde4d:	sub    esp,0x3c
  4cde50:	lea    esi,[ebx-0x28]
  4cde53:	or     DWORD PTR [ebp-0x3c],ebx
  4cde56:	mov    ebx,0x0
  4cde5b:	push   ebx
  4cde5c:	call   0x4cd3e0
  4cde61:	push   esi
  4cde62:	push   eax
  4cde63:	push   edi
  4cde64:	push   ebx
  4cde65:	call   0x4cdc18
  4cde6a:	add    esp,0xc
  4cde6d:	pop    esi
  4cde6e:	push   0xfffffff4
  4cde70:	call   0x4cd010
  4cde75:	add    esp,0x3c
  4cde78:	pop    ebp
  4cde79:	ret    
  4cde7a:	add    BYTE PTR [eax],al
  4cde7c:	mov    edi,edi
  4cde7e:	push   ebp
  4cde7f:	mov    ebp,esp
  4cde81:	sub    esp,0x50
  4cde84:	lea    edx,ds:0x4d0090
  4cde8a:	sbb    DWORD PTR [ebp-0x2c],0xffffffd4
  4cde8e:	push   edx
  4cde8f:	push   DWORD PTR [edx+0x18]
  4cde92:	push   ecx
  4cde93:	push   DWORD PTR [edx+0x44]
  4cde96:	call   0x4cd69c
  4cde9b:	add    esp,0xc
  4cde9e:	pop    edx
  4cde9f:	push   edx
  4cdea0:	lea    ecx,[edx-0x90]
  4cdea6:	push   ecx
  4cdea7:	call   0x4cd718
  4cdeac:	test   eax,eax
  4cdeae:	jne    0x4cdea0
  4cdeb0:	pop    edx
  4cdeb1:	push   edx
  4cdeb2:	mov    esi,0x0
  4cdeb7:	push   esi
  4cdeb8:	call   0x4cd2e8
  4cdebd:	pop    edx
  4cdebe:	add    esp,0x50
  4cdec1:	pop    ebp
  4cdec2:	ret    
  4cdec3:	add    BYTE PTR [ebx-0x1374aa01],cl
  4cdec9:	sub    esp,0x58
  4cdecc:	mov    eax,0x4d01a4
  4cded1:	adc    DWORD PTR [eax-0x168],esi
  4cded7:	push   eax
  4cded8:	push   DWORD PTR [eax+0x1c4]
  4cdede:	push   DWORD PTR [eax+0x118]
  4cdee4:	push   DWORD PTR [eax+0x17c]
  4cdeea:	call   0x4cda94
  4cdeef:	add    esp,0xc
  4cdef2:	pop    eax
  4cdef3:	push   eax
  4cdef4:	mov    ebx,0x0
  4cdef9:	push   ebx
  4cdefa:	call   0x4cd9a8
  4cdeff:	pop    eax
  4cdf00:	push   eax
  4cdf01:	push   0x0
  4cdf03:	call   0x4cddc8
  4cdf08:	pop    eax
  4cdf09:	add    esp,0x58
  4cdf0c:	pop    ebp
  4cdf0d:	ret    
  4cdf0e:	add    BYTE PTR [eax],al
  4cdf10:	mov    edi,edi
  4cdf12:	push   ebp
  4cdf13:	mov    ebp,esp
  4cdf15:	sub    esp,0x40
  4cdf18:	lea    edx,ds:0x4d0114
  4cdf1e:	sub    DWORD PTR [edx-0x110],0xffffca40
  4cdf28:	push   edx
  4cdf29:	push   DWORD PTR [edx+0x128]
  4cdf2f:	push   ebx
  4cdf30:	call   0x4cd254
  4cdf35:	add    esp,0x8
  4cdf38:	pop    edx
  4cdf39:	push   edx
  4cdf3a:	mov    esi,0x0
  4cdf3f:	push   esi
  4cdf40:	call   0x4cd6f8
  4cdf45:	pop    edx
  4cdf46:	push   edx
  4cdf47:	call   0x4cde18
  4cdf4c:	pop    edx
  4cdf4d:	add    esp,0x40
  4cdf50:	pop    ebp
  4cdf51:	ret    
  4cdf52:	add    BYTE PTR [eax],al
  4cdf54:	mov    edi,edi
  4cdf56:	push   ebp
  4cdf57:	mov    ebp,esp
  4cdf59:	sub    esp,0x34
  4cdf5c:	lea    edx,ds:0x4d0170
  4cdf62:	adc    ebx,DWORD PTR [ebp-0x1c]
  4cdf65:	push   edx
  4cdf66:	push   DWORD PTR [edx+0x13c]
  4cdf6c:	push   DWORD PTR [edx+0x180]
  4cdf72:	call   0x4cd8a4
  4cdf77:	add    esp,0x8
  4cdf7a:	pop    edx
  4cdf7b:	push   edx
  4cdf7c:	push   0x0
  4cdf7e:	call   0x4cd1a4
  4cdf83:	pop    edx
  4cdf84:	push   edx
  4cdf85:	mov    ebx,0x0
  4cdf8a:	push   ebx
  4cdf8b:	call   0x4cd6f8
  4cdf90:	pop    edx
  4cdf91:	add    esp,0x34
  4cdf94:	pop    ebp
  4cdf95:	ret    
  4cdf96:	add    BYTE PTR [eax],al
  4cdf98:	mov    edi,edi
  4cdf9a:	push   ebp
  4cdf9b:	mov    ebp,esp
  4cdf9d:	sub    esp,0x50
  4cdfa0:	lea    ecx,[esi+0x3c]
  4cdfa3:	or     eax,DWORD PTR [ecx+0x148]
  4cdfa9:	push   ecx
  4cdfaa:	push   eax
  4cdfab:	push   DWORD PTR [ecx+0x5c]
  4cdfae:	push   edx
  4cdfaf:	push   eax
  4cdfb0:	call   0x4cd5c4
  4cdfb5:	add    esp,0x10
  4cdfb8:	pop    ecx
  4cdfb9:	push   ecx
  4cdfba:	push   0x0
  4cdfbc:	call   0x4cdfd0
  4cdfc1:	pop    ecx
  4cdfc2:	push   ecx
  4cdfc3:	push   0x0
  4cdfc5:	call   0x4cd184
  4cdfca:	pop    ecx
  4cdfcb:	add    esp,0x50
  4cdfce:	pop    ebp
  4cdfcf:	ret    
  4cdfd0:	pop    edi
  4cdfd1:	xor    eax,eax
  4cdfd3:	call   DWORD PTR [eax*8+0x4cf730]
  4cdfda:	push   edi
  4cdfdb:	pop    edi
  4cdfdc:	jmp    DWORD PTR [esp-0x4]
  4cdfe0:	pop    edi
  4cdfe1:	xor    eax,eax
  4cdfe3:	call   DWORD PTR [eax*8+0x4cf76c]
  4cdfea:	push   edi
  4cdfeb:	pop    edi
  4cdfec:	jmp    DWORD PTR [esp-0x4]
  4cdff0:	mov    edi,edi
  4cdff2:	push   ebp
  4cdff3:	mov    ebp,esp
  4cdff5:	sub    esp,0x58
  4cdff8:	lea    ecx,ds:0x4d0080
  4cdffe:	xor    DWORD PTR [ecx+0x11c],0x36
  4ce005:	push   ecx
  4ce006:	push   eax
  4ce007:	push   DWORD PTR [ecx+0x9c]
  4ce00d:	call   0x4cd620
  4ce012:	add    esp,0x8
  4ce015:	pop    ecx
  4ce016:	push   ecx
  4ce017:	mov    edx,0x0
  4ce01c:	push   edx
  4ce01d:	call   0x4cd1a4
  4ce022:	pop    ecx
  4ce023:	push   ecx
  4ce024:	call   0x4cde18
  4ce029:	pop    ecx
  4ce02a:	add    esp,0x58
  4ce02d:	pop    ebp
  4ce02e:	ret    
  4ce02f:	add    BYTE PTR [ebx-0x1374aa01],cl
  4ce035:	sub    esp,0x30
  4ce038:	lea    eax,[edx-0x2c]
  4ce03b:	and    esi,ebx
  4ce03d:	push   eax
  4ce03e:	call   0x4cde18
  4ce043:	pop    eax
  4ce044:	push   eax
  4ce045:	push   edi
  4ce046:	push   DWORD PTR [eax+0x10]
  4ce049:	push   DWORD PTR [eax+0xdc]
  4ce04f:	call   0x4cd7cc
  4ce054:	add    esp,0xc
  4ce057:	pop    eax
  4ce058:	push   eax
  4ce059:	mov    esi,0x0
  4ce05e:	push   esi
  4ce05f:	call   0x4cd184
  4ce064:	pop    eax
  4ce065:	add    esp,0x30
  4ce068:	pop    ebp
  4ce069:	ret    
  4ce06a:	add    BYTE PTR [eax],al
  4ce06c:	mov    edi,edi
  4ce06e:	push   ebp
  4ce06f:	mov    ebp,esp
  4ce071:	sub    esp,0x2c
  4ce074:	lea    ecx,[edi+0x94]
  4ce07a:	sub    eax,0xffffa5d0
  4ce07f:	push   ecx
  4ce080:	push   ebx
  4ce081:	push   DWORD PTR [ecx+0x128]
  4ce087:	call   0x4cd1c4
  4ce08c:	add    esp,0x8
  4ce08f:	pop    ecx
  4ce090:	push   ecx
  4ce091:	mov    eax,0x0
  4ce096:	push   eax
  4ce097:	call   0x4cd184
  4ce09c:	pop    ecx
  4ce09d:	push   ecx
  4ce09e:	mov    ebx,0x0
  4ce0a3:	push   ebx
  4ce0a4:	call   0x4cd194
  4ce0a9:	pop    ecx
  4ce0aa:	add    esp,0x2c
  4ce0ad:	pop    ebp
  4ce0ae:	ret    
	...
