
2441ef0dccc6bb9d57b03fa6b9dbd03a4c00b4230baf2bd14b89d3db2699ed63.exe:     file format pei-i386


Disassembly of section .text:

004d0000 <.text>:
  4d0000:	add    BYTE PTR [eax],al
  4d0002:	add    BYTE PTR [eax],al
  4d0004:	mov    edi,edi
  4d0006:	push   ebp
  4d0007:	mov    ebp,esp
  4d0009:	sub    esp,0x50
  4d000c:	mov    ebx,0x4d30f8
  4d0011:	sbb    DWORD PTR [ebx+0x28],ecx
  4d0014:	push   ebx
  4d0015:	push   eax
  4d0016:	push   DWORD PTR [ebx+0x34]
  4d0019:	call   0x4d057c
  4d001e:	add    esp,0x8
  4d0021:	pop    ebx
  4d0022:	push   0x0
  4d0024:	notrack call DWORD PTR ds:0x4d2034
  4d002b:	mov    eax,0x0
  4d0030:	push   eax
  4d0031:	notrack call DWORD PTR ds:0x4d2018
  4d0038:	add    esp,0x50
  4d003b:	pop    ebp
  4d003c:	ret    
  4d003d:	add    BYTE PTR [eax],al
  4d003f:	add    BYTE PTR [eax],al
  4d0041:	add    BYTE PTR [eax],al
  4d0043:	add    BYTE PTR [ebx-0x1374aa01],cl
  4d0049:	sub    esp,0x20
  4d004c:	lea    edx,ds:0x4d300c
  4d0052:	xor    eax,DWORD PTR [edx+0x28]
  4d0055:	push   edx
  4d0056:	push   DWORD PTR [edx+0x1a0]
  4d005c:	push   DWORD PTR [edx+0x70]
  4d005f:	call   0x4d08a4
  4d0064:	add    esp,0x8
  4d0067:	pop    edx
  4d0068:	push   edx
  4d0069:	push   0x0
  4d006b:	notrack call DWORD PTR ds:0x4d2014
  4d0072:	pop    edx
  4d0073:	push   edx
  4d0074:	push   0x0
  4d0076:	notrack call DWORD PTR ds:0x4d2008
  4d007d:	pop    edx
  4d007e:	add    esp,0x20
  4d0081:	pop    ebp
  4d0082:	ret    
  4d0083:	add    BYTE PTR [ebx-0x1374aa01],cl
  4d0089:	sub    esp,0x5c
  4d008c:	lea    ecx,ds:0x4d3150
  4d0092:	sub    esi,DWORD PTR [ecx+0x84]
  4d0098:	push   ecx
  4d0099:	push   0x0
  4d009b:	notrack call DWORD PTR ds:0x4d204c
  4d00a2:	pop    ecx
  4d00a3:	push   ecx
  4d00a4:	push   DWORD PTR [ecx+0x90]
  4d00aa:	push   eax
  4d00ab:	push   esi
  4d00ac:	push   edx
  4d00ad:	call   0x4d0984
  4d00b2:	add    esp,0x10
  4d00b5:	pop    ecx
  4d00b6:	mov    edx,0x4d2024
  4d00bb:	mov    edx,DWORD PTR [edx]
  4d00bd:	push   edx
  4d00be:	push   DWORD PTR [ecx-0xb0]
  4d00c4:	pop    edi
  4d00c5:	call   edi
  4d00c7:	add    esp,0x5c
  4d00ca:	pop    ebp
  4d00cb:	ret    
	...
  4d00d4:	mov    edi,edi
  4d00d6:	push   ebp
  4d00d7:	mov    ebp,esp
  4d00d9:	sub    esp,0x58
  4d00dc:	lea    eax,ds:0x4d3194
  4d00e2:	or     DWORD PTR [ebp-0x20],ebx
  4d00e5:	push   eax
  4d00e6:	push   DWORD PTR [eax+0x10c]
  4d00ec:	push   DWORD PTR [eax+0x1c]
  4d00ef:	call   0x4d0460
  4d00f4:	add    esp,0x8
  4d00f7:	pop    eax
  4d00f8:	push   eax
  4d00f9:	lea    eax,[eax-0x194]
  4d00ff:	push   eax
  4d0100:	notrack call DWORD PTR ds:0x4d2024
  4d0107:	test   eax,eax
  4d0109:	jne    0x4d00f9
  4d010b:	pop    eax
  4d010c:	push   eax
  4d010d:	push   0x0
  4d010f:	notrack call DWORD PTR ds:0x4d2040
  4d0116:	pop    eax
  4d0117:	add    esp,0x58
  4d011a:	pop    ebp
  4d011b:	ret    
  4d011c:	mov    edi,edi
  4d011e:	push   ebp
  4d011f:	mov    ebp,esp
  4d0121:	sub    esp,0x20
  4d0124:	sbb    DWORD PTR [ebp-0x8],0xffffffa6
  4d0128:	mov    ecx,0x4d3044
  4d012d:	push   ecx
  4d012e:	push   0x6ac
  4d0133:	mov    esi,0x6ac
  4d0138:	push   esi
  4d0139:	mov    ecx,0x40001
  4d013e:	push   ecx
  4d013f:	mov    esi,0x8629859a
  4d0144:	push   DWORD PTR [esi+0x7a239a86]
  4d014a:	sub    DWORD PTR [esp],0x2
  4d014e:	mov    esi,0x4d201c
  4d0153:	pop    DWORD PTR [esi]
  4d0155:	notrack call DWORD PTR ds:0x4d201c
  4d015c:	xchg   DWORD PTR [esp],eax
  4d015f:	mov    ecx,eax
  4d0161:	pop    DWORD PTR [ecx+0x5c]
  4d0164:	mov    edx,DWORD PTR [ecx+0x5c]
  4d0167:	mov    edx,edx
  4d0169:	sub    ebx,ebx
  4d016b:	dec    ebx
  4d016c:	and    ebx,0x4d0af8
  4d0172:	mov    edi,0x9de45a73
  4d0177:	xor    esi,esi
  4d0179:	add    esi,0x6ac
  4d017f:	xor    eax,eax
  4d0181:	push   DWORD PTR [ebx+eax*1]
  4d0184:	inc    DWORD PTR [esp]
  4d0187:	xor    DWORD PTR [esp],edi
  4d018a:	pop    DWORD PTR [edx+eax*2]
  4d018d:	push   DWORD PTR [ebx]
  4d018f:	pop    edi
  4d0190:	add    ebx,0x4
  4d0193:	add    edx,0x4
  4d0196:	sub    esi,0x4
  4d0199:	test   esi,esi
  4d019b:	jne    0x4d017f
  4d019d:	push   ecx
  4d019e:	push   0x0
  4d01a0:	notrack call DWORD PTR ds:0x4d2078
  4d01a7:	pop    ecx
  4d01a8:	add    esp,0x20
  4d01ab:	pop    ebp
  4d01ac:	ret    
  4d01ad:	add    BYTE PTR [eax],al
  4d01af:	add    BYTE PTR [eax],al
  4d01b1:	add    BYTE PTR [eax],al
  4d01b3:	add    BYTE PTR [ebx-0x1374aa01],cl
  4d01b9:	sub    esp,0x1c
  4d01bc:	mov    edi,0x4d3158
  4d01c1:	sbb    DWORD PTR [edi-0xbc],0x6d07
  4d01cb:	push   edi
  4d01cc:	push   DWORD PTR [edi+0x13c]
  4d01d2:	push   DWORD PTR [edi+0x40]
  4d01d5:	push   ecx
  4d01d6:	push   DWORD PTR [edi+0x198]
  4d01dc:	call   0x4d0330
  4d01e1:	add    esp,0x10
  4d01e4:	pop    edi
  4d01e5:	push   0x0
  4d01e7:	notrack call DWORD PTR ds:0x4d207c
  4d01ee:	push   0x0
  4d01f0:	notrack call DWORD PTR ds:0x4d2014
  4d01f7:	add    esp,0x1c
  4d01fa:	pop    ebp
  4d01fb:	ret    
	...
  4d0208:	mov    edi,edi
  4d020a:	push   ebp
  4d020b:	mov    ebp,esp
  4d020d:	sub    esp,0x34
  4d0210:	lea    ecx,[edi-0x94]
  4d0216:	mov    DWORD PTR [ebp-0x1c],0x39
  4d021d:	push   ecx
  4d021e:	push   DWORD PTR [ecx+0x188]
  4d0224:	push   DWORD PTR [ecx+0x20]
  4d0227:	push   edi
  4d0228:	call   0x4d05c0
  4d022d:	add    esp,0xc
  4d0230:	pop    ecx
  4d0231:	push   ecx
  4d0232:	mov    edi,0x0
  4d0237:	push   edi
  4d0238:	notrack call DWORD PTR ds:0x4d205c
  4d023f:	pop    ecx
  4d0240:	push   ecx
  4d0241:	push   0x0
  4d0243:	notrack call DWORD PTR ds:0x4d2040
  4d024a:	pop    ecx
  4d024b:	add    esp,0x34
  4d024e:	pop    ebp
  4d024f:	ret    
  4d0250:	mov    edi,edi
  4d0252:	push   ebp
  4d0253:	mov    ebp,esp
  4d0255:	sub    esp,0x50
  4d0258:	lea    edx,ds:0x4d3198
  4d025e:	sbb    esi,0x4cfe
  4d0264:	push   edx
  4d0265:	mov    eax,0x0
  4d026a:	push   eax
  4d026b:	notrack call DWORD PTR ds:0x4d2008
  4d0272:	pop    edx
  4d0273:	push   edx
  4d0274:	push   DWORD PTR [edx+0x7c]
  4d0277:	push   DWORD PTR [edx+0xec]
  4d027d:	push   ecx
  4d027e:	push   DWORD PTR [edx+0xd4]
  4d0284:	call   0x4d0804
  4d0289:	add    esp,0x10
  4d028c:	pop    edx
  4d028d:	push   edx
  4d028e:	push   0x0
  4d0290:	notrack call DWORD PTR ds:0x4d203c
  4d0297:	pop    edx
  4d0298:	add    esp,0x50
  4d029b:	pop    ebp
  4d029c:	ret    
	...
  4d02a5:	add    BYTE PTR [eax],al
  4d02a7:	add    BYTE PTR [ebx-0x1374aa01],cl
  4d02ad:	sub    esp,0x24
  4d02b0:	mov    ebx,0x4d3118
  4d02b5:	and    DWORD PTR [ebx-0xf8],0x21
  4d02bc:	push   ebx
  4d02bd:	push   edx
  4d02be:	push   eax
  4d02bf:	push   DWORD PTR [ebx+0x1c8]
  4d02c5:	push   edi
  4d02c6:	call   0x4d085c
  4d02cb:	add    esp,0x10
  4d02ce:	pop    ebx
  4d02cf:	mov    edx,0x0
  4d02d4:	push   edx
  4d02d5:	notrack call DWORD PTR ds:0x4d204c
  4d02dc:	mov    edi,0x0
  4d02e1:	push   edi
  4d02e2:	notrack call DWORD PTR ds:0x4d203c
  4d02e9:	add    esp,0x24
  4d02ec:	pop    ebp
  4d02ed:	ret    
  4d02ee:	add    BYTE PTR [eax],al
  4d02f0:	mov    edi,edi
  4d02f2:	push   ebp
  4d02f3:	mov    ebp,esp
  4d02f5:	sub    esp,0x54
  4d02f8:	lea    edi,[edx-0x78]
  4d02fb:	xor    ebx,DWORD PTR [edi+0x78]
  4d02fe:	mov    ecx,0x0
  4d0303:	push   ecx
  4d0304:	notrack call DWORD PTR ds:0x4d2030
  4d030b:	push   edi
  4d030c:	push   ebx
  4d030d:	push   eax
  4d030e:	call   0x4d06a0
  4d0313:	add    esp,0x8
  4d0316:	pop    edi
  4d0317:	push   0x0
  4d0319:	notrack call DWORD PTR ds:0x4d203c
  4d0320:	add    esp,0x54
  4d0323:	pop    ebp
  4d0324:	ret    
	...
  4d032d:	add    BYTE PTR [eax],al
  4d032f:	add    BYTE PTR [ebx-0x1374aa01],cl
  4d0335:	sub    esp,0x24
  4d0338:	mov    eax,0x4d31d4
  4d033d:	add    DWORD PTR [ebp-0x24],edi
  4d0340:	push   eax
  4d0341:	push   0x0
  4d0343:	notrack call DWORD PTR ds:0x4d2034
  4d034a:	pop    eax
  4d034b:	push   eax
  4d034c:	push   DWORD PTR [eax+0x184]
  4d0352:	push   DWORD PTR [eax+0x2c]
  4d0355:	call   0x4d02a8
  4d035a:	add    esp,0x8
  4d035d:	pop    eax
  4d035e:	push   eax
  4d035f:	mov    edx,0x0
  4d0364:	push   edx
  4d0365:	notrack call DWORD PTR ds:0x4d2014
  4d036c:	pop    eax
  4d036d:	add    esp,0x24
  4d0370:	pop    ebp
  4d0371:	ret    
  4d0372:	add    BYTE PTR [eax],al
  4d0374:	mov    edi,edi
  4d0376:	push   ebp
  4d0377:	mov    ebp,esp
  4d0379:	sub    esp,0x60
  4d037c:	lea    ecx,ds:0x4d31d4
  4d0382:	add    DWORD PTR [ecx-0xf0],ecx
  4d0388:	push   ecx
  4d0389:	push   esi
  4d038a:	push   DWORD PTR [ecx+0x170]
  4d0390:	push   DWORD PTR [ecx+0xbc]
  4d0396:	call   0x4d0250
  4d039b:	add    esp,0xc
  4d039e:	pop    ecx
  4d039f:	push   ecx
  4d03a0:	mov    ecx,0x0
  4d03a5:	push   ecx
  4d03a6:	notrack call DWORD PTR ds:0x4d204c
  4d03ad:	pop    ecx
  4d03ae:	push   ecx
  4d03af:	push   0x0
  4d03b1:	notrack call DWORD PTR ds:0x4d2018
  4d03b8:	pop    ecx
  4d03b9:	add    esp,0x60
  4d03bc:	pop    ebp
  4d03bd:	ret    
	...
  4d03ce:	add    BYTE PTR [eax],al
  4d03d0:	mov    edi,edi
  4d03d2:	push   ebp
  4d03d3:	mov    ebp,esp
  4d03d5:	sub    esp,0x48
  4d03d8:	mov    esi,0x4d3100
  4d03dd:	mov    edi,edx
  4d03df:	push   esi
  4d03e0:	push   DWORD PTR [esi+0x120]
  4d03e6:	push   DWORD PTR [esi+0x1f0]
  4d03ec:	push   DWORD PTR [esi+0x24]
  4d03ef:	call   0x4d076c
  4d03f4:	add    esp,0xc
  4d03f7:	pop    esi
  4d03f8:	mov    edi,0x0
  4d03fd:	push   edi
  4d03fe:	notrack call DWORD PTR ds:0x4d2038
  4d0405:	push   0x0
  4d0407:	notrack call DWORD PTR ds:0x4d2008
  4d040e:	add    esp,0x48
  4d0411:	pop    ebp
  4d0412:	ret    
  4d0413:	add    BYTE PTR [eax],al
  4d0415:	add    BYTE PTR [eax],al
  4d0417:	add    BYTE PTR [edx+0x0],ch
  4d041a:	call   DWORD PTR ds:0x4d204c
  4d0420:	call   DWORD PTR ds:0x4d2028
  4d0426:	sub    esp,0x8
  4d0429:	call   DWORD PTR ds:0x4d2028
  4d042f:	sub    esp,0x8
  4d0432:	xor    eax,eax
  4d0434:	lea    eax,[eax*2+0x4d3100]
  4d043b:	lea    ecx,[eax+0x4]
  4d043e:	add    BYTE PTR [ecx],0xb0
  4d0441:	push   eax
  4d0442:	call   DWORD PTR ds:0x4d201c
  4d0448:	mov    ecx,DWORD PTR [eax+0x3c]
  4d044b:	push   DWORD PTR [eax+ecx*1+0x29]
  4d044f:	pop    eax
  4d0450:	mov    cl,0x2c
  4d0452:	cmp    al,cl
  4d0454:	pusha  
  4d0455:	ja     0x4d0084
  4d045b:	popa   
  4d045c:	ret    
  4d045d:	add    BYTE PTR [eax],al
  4d045f:	repz mov edi,edi
  4d0462:	push   ebp
  4d0463:	mov    ebp,esp
  4d0465:	sub    esp,0x3c
  4d0468:	mov    esi,0x4d31c8
  4d046d:	sub    DWORD PTR [esi-0x98],0x625e
  4d0477:	push   esi
  4d0478:	push   eax
  4d0479:	push   ebx
  4d047a:	push   DWORD PTR [esi+0x1c0]
  4d0480:	call   0x4d061c
  4d0485:	add    esp,0xc
  4d0488:	pop    esi
  4d0489:	push   0x0
  4d048b:	notrack call DWORD PTR ds:0x4d2040
  4d0492:	push   0x0
  4d0494:	notrack call DWORD PTR ds:0x4d2014
  4d049b:	add    esp,0x3c
  4d049e:	pop    ebp
  4d049f:	ret    
  4d04a0:	add    BYTE PTR [eax],al
  4d04a2:	add    BYTE PTR [eax],al
  4d04a4:	mov    edi,edi
  4d04a6:	push   ebp
  4d04a7:	mov    ebp,esp
  4d04a9:	sub    esp,0x34
  4d04ac:	lea    esi,[ecx+0x50]
  4d04af:	sbb    edi,0xffffff86
  4d04b2:	push   esi
  4d04b3:	push   DWORD PTR [esi+0xfc]
  4d04b9:	push   DWORD PTR [esi+0x54]
  4d04bc:	push   ecx
  4d04bd:	call   0x4d06e8
  4d04c2:	add    esp,0xc
  4d04c5:	pop    esi
  4d04c6:	lea    eax,[esi-0x1b0]
  4d04cc:	push   eax
  4d04cd:	notrack call DWORD PTR ds:0x4d2024
  4d04d4:	test   eax,eax
  4d04d6:	jne    0x4d04c7
  4d04d8:	mov    ebx,0x0
  4d04dd:	push   ebx
  4d04de:	notrack call DWORD PTR ds:0x4d2008
  4d04e5:	add    esp,0x34
  4d04e8:	pop    ebp
  4d04e9:	ret    
  4d04ea:	add    BYTE PTR [eax],al
  4d04ec:	mov    edi,edi
  4d04ee:	push   ebp
  4d04ef:	mov    ebp,esp
  4d04f1:	sub    esp,0x54
  4d04f4:	mov    esi,0x4d31e8
  4d04f9:	xor    DWORD PTR [ebp-0x40],0x48
  4d04fd:	push   esi
  4d04fe:	push   ebx
  4d04ff:	push   DWORD PTR [esi+0x13c]
  4d0505:	push   DWORD PTR [esi+0xc8]
  4d050b:	call   0x4d0924
  4d0510:	add    esp,0xc
  4d0513:	pop    esi
  4d0514:	mov    ecx,0x0
  4d0519:	push   ecx
  4d051a:	notrack call DWORD PTR ds:0x4d204c
  4d0521:	mov    ebx,0x0
  4d0526:	push   ebx
  4d0527:	notrack call DWORD PTR ds:0x4d2008
  4d052e:	add    esp,0x54
  4d0531:	pop    ebp
  4d0532:	ret    
  4d0533:	add    BYTE PTR [eax],al
  4d0535:	add    BYTE PTR [eax],al
  4d0537:	add    BYTE PTR [ebx-0x1374aa01],cl
  4d053d:	sub    esp,0x28
  4d0540:	lea    eax,[edi-0x60]
  4d0543:	or     esi,ecx
  4d0545:	push   eax
  4d0546:	mov    esi,0x0
  4d054b:	push   esi
  4d054c:	notrack call DWORD PTR ds:0x4d2018
  4d0553:	pop    eax
  4d0554:	push   eax
  4d0555:	push   DWORD PTR [eax+0x178]
  4d055b:	push   edx
  4d055c:	push   DWORD PTR [eax+0xc0]
  4d0562:	call   0x4d0658
  4d0567:	add    esp,0xc
  4d056a:	pop    eax
  4d056b:	push   eax
  4d056c:	push   0x0
  4d056e:	notrack call DWORD PTR ds:0x4d2008
  4d0575:	pop    eax
  4d0576:	add    esp,0x28
  4d0579:	pop    ebp
  4d057a:	ret    
  4d057b:	add    BYTE PTR [ebx-0x1374aa01],cl
  4d0581:	sub    esp,0x2c
  4d0584:	lea    ecx,[ebx+0xbc]
  4d058a:	sbb    eax,edi
  4d058c:	push   ecx
  4d058d:	push   DWORD PTR [ecx+0xf4]
  4d0593:	push   DWORD PTR [ecx+0x118]
  4d0599:	call   0x4d08d8
  4d059e:	add    esp,0x8
  4d05a1:	pop    ecx
  4d05a2:	push   ecx
  4d05a3:	push   0x0
  4d05a5:	notrack call DWORD PTR ds:0x4d2078
  4d05ac:	pop    ecx
  4d05ad:	push   ecx
  4d05ae:	push   0x0
  4d05b0:	notrack call DWORD PTR ds:0x4d207c
  4d05b7:	pop    ecx
  4d05b8:	add    esp,0x2c
  4d05bb:	pop    ebp
  4d05bc:	ret    
  4d05bd:	add    BYTE PTR [eax],al
  4d05bf:	add    BYTE PTR [ebx-0x1374aa01],cl
  4d05c5:	sub    esp,0x48
  4d05c8:	lea    esi,ds:0x4d3038
  4d05ce:	sub    DWORD PTR [esi+0x4c],0x4ae
  4d05d5:	push   0x0
  4d05d7:	notrack call DWORD PTR ds:0x4d207c
  4d05de:	push   esi
  4d05df:	push   eax
  4d05e0:	push   eax
  4d05e1:	call   0x4d0044
  4d05e6:	add    esp,0x8
  4d05e9:	pop    esi
  4d05ea:	mov    ebx,0x0
  4d05ef:	push   ebx
  4d05f0:	notrack call DWORD PTR ds:0x4d205c
  4d05f7:	add    esp,0x48
  4d05fa:	pop    ebp
  4d05fb:	ret    
	...
  4d061c:	mov    edi,edi
  4d061e:	push   ebp
  4d061f:	mov    ebp,esp
  4d0621:	sub    esp,0x5c
  4d0624:	mov    ecx,0x4d3148
  4d0629:	add    eax,esi
  4d062b:	push   ecx
  4d062c:	push   DWORD PTR [ecx+0xb0]
  4d0632:	push   eax
  4d0633:	call   0x4d0a2c
  4d0638:	add    esp,0x8
  4d063b:	pop    ecx
  4d063c:	push   ecx
  4d063d:	notrack call DWORD PTR ds:0x4d2048
  4d0644:	pop    ecx
  4d0645:	push   ecx
  4d0646:	push   0x0
  4d0648:	notrack call DWORD PTR ds:0x4d2034
  4d064f:	pop    ecx
  4d0650:	add    esp,0x5c
  4d0653:	pop    ebp
  4d0654:	ret    
  4d0655:	add    BYTE PTR [eax],al
  4d0657:	add    BYTE PTR [ebx-0x1374aa01],cl
  4d065d:	sub    esp,0x54
  4d0660:	mov    ebx,0x4d3114
  4d0665:	xor    DWORD PTR [ebp-0x38],0x79
  4d0669:	push   ebx
  4d066a:	push   DWORD PTR [ebx+0x6c]
  4d066d:	push   DWORD PTR [ebx+0x1b8]
  4d0673:	push   DWORD PTR [ebx+0x124]
  4d0679:	call   0x4d01b4
  4d067e:	add    esp,0xc
  4d0681:	pop    ebx
  4d0682:	mov    edx,0x0
  4d0687:	push   edx
  4d0688:	notrack call DWORD PTR ds:0x4d204c
  4d068f:	push   0x0
  4d0691:	notrack call DWORD PTR ds:0x4d2030
  4d0698:	add    esp,0x54
  4d069b:	pop    ebp
  4d069c:	ret    
  4d069d:	add    BYTE PTR [eax],al
  4d069f:	add    BYTE PTR [ebx-0x1374aa01],cl
  4d06a5:	sub    esp,0x4c
  4d06a8:	lea    edx,[edi+0xa0]
  4d06ae:	add    DWORD PTR [edx-0xe4],0xffffffaf
  4d06b5:	push   edx
  4d06b6:	mov    ebx,0x0
  4d06bb:	push   ebx
  4d06bc:	notrack call DWORD PTR ds:0x4d2008
  4d06c3:	pop    edx
  4d06c4:	push   edx
  4d06c5:	push   ebx
  4d06c6:	push   esi
  4d06c7:	push   eax
  4d06c8:	call   0x4d07bc
  4d06cd:	add    esp,0xc
  4d06d0:	pop    edx
  4d06d1:	push   edx
  4d06d2:	mov    ebx,0x0
  4d06d7:	push   ebx
  4d06d8:	notrack call DWORD PTR ds:0x4d2018
  4d06df:	pop    edx
  4d06e0:	add    esp,0x4c
  4d06e3:	pop    ebp
  4d06e4:	ret    
  4d06e5:	add    BYTE PTR [eax],al
  4d06e7:	add    BYTE PTR [ebx-0x1374aa01],cl
  4d06ed:	sub    esp,0x20
  4d06f0:	lea    ebx,[esi-0xe8]
  4d06f6:	and    DWORD PTR [ebx+0x108],ebx
  4d06fc:	mov    edx,0x0
  4d0701:	push   edx
  4d0702:	notrack call DWORD PTR ds:0x4d2038
  4d0709:	push   ebx
  4d070a:	push   DWORD PTR [ebx+0x160]
  4d0710:	push   DWORD PTR [ebx+0x10]
  4d0713:	call   0x4d03d0
  4d0718:	add    esp,0x8
  4d071b:	pop    ebx
  4d071c:	mov    edx,0x0
  4d0721:	push   edx
  4d0722:	notrack call DWORD PTR ds:0x4d2014
  4d0729:	add    esp,0x20
  4d072c:	pop    ebp
  4d072d:	ret    
  4d072e:	add    BYTE PTR [eax],al
  4d0730:	mov    edi,edi
  4d0732:	push   ebp
  4d0733:	mov    ebp,esp
  4d0735:	sub    esp,0x48
  4d0738:	mov    edx,0x4d3164
  4d073d:	sbb    ebx,esi
  4d073f:	push   edx
  4d0740:	push   ebx
  4d0741:	push   ebx
  4d0742:	push   ecx
  4d0743:	call   0x4d02f0
  4d0748:	add    esp,0xc
  4d074b:	pop    edx
  4d074c:	push   edx
  4d074d:	push   0x0
  4d074f:	notrack call DWORD PTR ds:0x4d2038
  4d0756:	pop    edx
  4d0757:	push   edx
  4d0758:	push   0x0
  4d075a:	notrack call DWORD PTR ds:0x4d2014
  4d0761:	pop    edx
  4d0762:	add    esp,0x48
  4d0765:	pop    ebp
  4d0766:	ret    
  4d0767:	add    BYTE PTR [eax],al
  4d0769:	add    BYTE PTR [eax],al
  4d076b:	add    BYTE PTR [ebx-0x1374aa01],cl
  4d0771:	sub    esp,0x60
  4d0774:	mov    eax,0x4d3050
  4d0779:	cmp    eax,0x16bd
  4d077e:	je     0x4d076f
  4d0780:	push   eax
  4d0781:	push   DWORD PTR [eax+0x178]
  4d0787:	push   DWORD PTR [eax+0xfc]
  4d078d:	push   esi
  4d078e:	call   0x4d0374
  4d0793:	add    esp,0xc
  4d0796:	pop    eax
  4d0797:	push   eax
  4d0798:	lea    edx,[eax-0x50]
  4d079b:	push   edx
  4d079c:	notrack call DWORD PTR ds:0x4d2024
  4d07a3:	test   eax,eax
  4d07a5:	jne    0x4d0798
  4d07a7:	pop    eax
  4d07a8:	push   eax
  4d07a9:	push   0x0
  4d07ab:	notrack call DWORD PTR ds:0x4d2038
  4d07b2:	pop    eax
  4d07b3:	add    esp,0x60
  4d07b6:	pop    ebp
  4d07b7:	ret    
  4d07b8:	add    BYTE PTR [eax],al
  4d07ba:	add    BYTE PTR [eax],al
  4d07bc:	mov    edi,edi
  4d07be:	push   ebp
  4d07bf:	mov    ebp,esp
  4d07c1:	sub    esp,0x5c
  4d07c4:	lea    edi,[edx-0xd8]
  4d07ca:	sbb    DWORD PTR [ebp-0x3c],0x37
  4d07ce:	push   edi
  4d07cf:	push   DWORD PTR [edi+0x194]
  4d07d5:	push   DWORD PTR [edi+0x4c]
  4d07d8:	push   ecx
  4d07d9:	call   0x4d0a70
  4d07de:	add    esp,0xc
  4d07e1:	pop    edi
  4d07e2:	mov    ecx,0x0
  4d07e7:	push   ecx
  4d07e8:	notrack call DWORD PTR ds:0x4d204c
  4d07ef:	mov    ebx,0x0
  4d07f4:	push   ebx
  4d07f5:	notrack call DWORD PTR ds:0x4d2014
  4d07fc:	add    esp,0x5c
  4d07ff:	pop    ebp
  4d0800:	ret    
  4d0801:	add    BYTE PTR [eax],al
  4d0803:	add    BYTE PTR [ebx-0x1374aa01],cl
  4d0809:	sub    esp,0x1c
  4d080c:	mov    edi,0x4d3188
  4d0811:	and    esi,edi
  4d0813:	push   edi
  4d0814:	push   DWORD PTR [edi+0x38]
  4d0817:	push   DWORD PTR [edi+0x14c]
  4d081d:	push   DWORD PTR [edi+0x1b0]
  4d0823:	push   DWORD PTR [edi+0x13c]
  4d0829:	call   0x4d0208
  4d082e:	add    esp,0x10
  4d0831:	pop    edi
  4d0832:	push   0x0
  4d0834:	notrack call DWORD PTR ds:0x4d204c
  4d083b:	push   0x0
  4d083d:	notrack call DWORD PTR ds:0x4d204c
  4d0844:	add    esp,0x1c
  4d0847:	pop    ebp
  4d0848:	ret    
	...
  4d0859:	add    BYTE PTR [eax],al
  4d085b:	add    BYTE PTR [ebx-0x1374aa01],cl
  4d0861:	sub    esp,0x3c
  4d0864:	lea    esi,[ebx-0xc8]
  4d086a:	add    DWORD PTR [esi+0x13c],ecx
  4d0870:	mov    edi,0x0
  4d0875:	push   edi
  4d0876:	notrack call DWORD PTR ds:0x4d2034
  4d087d:	push   esi
  4d087e:	push   DWORD PTR [esi+0x68]
  4d0881:	push   ecx
  4d0882:	push   DWORD PTR [esi]
  4d0884:	call   0x4d0004
  4d0889:	add    esp,0xc
  4d088c:	pop    esi
  4d088d:	lea    ebx,[esi-0x50]
  4d0890:	push   ebx
  4d0891:	notrack call DWORD PTR ds:0x4d2024
  4d0898:	test   eax,eax
  4d089a:	jne    0x4d088e
  4d089c:	add    esp,0x3c
  4d089f:	pop    ebp
  4d08a0:	ret    
  4d08a1:	add    BYTE PTR [eax],al
  4d08a3:	add    BYTE PTR [ebx-0x1374aa01],cl
  4d08a9:	sub    esp,0x28
  4d08ac:	lea    edi,[edx+0x24]
  4d08af:	mov    ebx,DWORD PTR [edi+0x78]
  4d08b2:	push   edi
  4d08b3:	push   DWORD PTR [edi+0x4]
  4d08b6:	push   eax
  4d08b7:	call   0x4d011c
  4d08bc:	add    esp,0x8
  4d08bf:	pop    edi
  4d08c0:	push   0x0
  4d08c2:	notrack call DWORD PTR ds:0x4d205c
  4d08c9:	push   0x0
  4d08cb:	notrack call DWORD PTR ds:0x4d2030
  4d08d2:	add    esp,0x28
  4d08d5:	pop    ebp
  4d08d6:	ret    
  4d08d7:	add    BYTE PTR [ebx-0x1374aa01],cl
  4d08dd:	sub    esp,0x60
  4d08e0:	lea    eax,ds:0x4d3054
  4d08e6:	mov    ebx,0x3b80
  4d08eb:	push   eax
  4d08ec:	mov    esi,0x0
  4d08f1:	push   esi
  4d08f2:	notrack call DWORD PTR ds:0x4d207c
  4d08f9:	pop    eax
  4d08fa:	push   eax
  4d08fb:	push   DWORD PTR [eax+0x110]
  4d0901:	push   ecx
  4d0902:	push   DWORD PTR [eax+0x14]
  4d0905:	call   0x4d04ec
  4d090a:	add    esp,0xc
  4d090d:	pop    eax
  4d090e:	push   eax
  4d090f:	push   0x0
  4d0911:	notrack call DWORD PTR ds:0x4d2034
  4d0918:	pop    eax
  4d0919:	add    esp,0x60
  4d091c:	pop    ebp
  4d091d:	ret    
  4d091e:	add    BYTE PTR [eax],al
  4d0920:	add    BYTE PTR [eax],al
  4d0922:	add    BYTE PTR [eax],al
  4d0924:	mov    edi,edi
  4d0926:	push   ebp
  4d0927:	mov    ebp,esp
  4d0929:	sub    esp,0x38
  4d092c:	lea    eax,[esi-0x100]
  4d0932:	xor    DWORD PTR [eax+0x88],edx
  4d0938:	push   eax
  4d0939:	push   DWORD PTR [eax+0x84]
  4d093f:	push   DWORD PTR [eax+0x140]
  4d0945:	push   ebx
  4d0946:	call   0x4d0730
  4d094b:	add    esp,0xc
  4d094e:	pop    eax
  4d094f:	push   eax
  4d0950:	lea    edx,[eax-0xe8]
  4d0956:	push   edx
  4d0957:	notrack call DWORD PTR ds:0x4d2024
  4d095e:	test   eax,eax
  4d0960:	jne    0x4d0950
  4d0962:	pop    eax
  4d0963:	push   eax
  4d0964:	mov    edi,0x0
  4d0969:	push   edi
  4d096a:	notrack call DWORD PTR ds:0x4d2078
  4d0971:	pop    eax
  4d0972:	add    esp,0x38
  4d0975:	pop    ebp
  4d0976:	ret    
	...
  4d0983:	add    BYTE PTR [ebx-0x1374aa01],cl
  4d0989:	sub    esp,0x48
  4d098c:	mov    esi,0x4d31bc
  4d0991:	sub    DWORD PTR [ebp-0x28],0x5854
  4d0998:	push   esi
  4d0999:	push   DWORD PTR [esi+0x1e8]
  4d099f:	push   edx
  4d09a0:	push   DWORD PTR [esi+0x16c]
  4d09a6:	push   DWORD PTR [esi+0x1e0]
  4d09ac:	call   0x4d00d4
  4d09b1:	add    esp,0x10
  4d09b4:	pop    esi
  4d09b5:	lea    ecx,[esi-0x1bc]
  4d09bb:	push   ecx
  4d09bc:	notrack call DWORD PTR ds:0x4d2024
  4d09c3:	test   eax,eax
  4d09c5:	jne    0x4d09b6
  4d09c7:	push   0x0
  4d09c9:	notrack call DWORD PTR ds:0x4d2030
  4d09d0:	add    esp,0x48
  4d09d3:	pop    ebp
  4d09d4:	ret    
  4d09d5:	add    BYTE PTR [eax],al
  4d09d7:	add    BYTE PTR [ebx-0x1374aa01],cl
  4d09dd:	sub    esp,0x58
  4d09e0:	lea    edi,ds:0x4d3178
  4d09e6:	sub    DWORD PTR [ebp-0x28],0xfffffff7
  4d09ea:	push   edi
  4d09eb:	push   DWORD PTR [edi+0xe0]
  4d09f1:	push   DWORD PTR [edi+0x104]
  4d09f7:	push   DWORD PTR [edi+0x1a0]
  4d09fd:	call   0x4d0538
  4d0a02:	add    esp,0xc
  4d0a05:	pop    edi
  4d0a06:	mov    eax,0x0
  4d0a0b:	push   eax
  4d0a0c:	notrack call DWORD PTR ds:0x4d2018
  4d0a13:	mov    esi,0x0
  4d0a18:	push   esi
  4d0a19:	notrack call DWORD PTR ds:0x4d205c
  4d0a20:	add    esp,0x58
  4d0a23:	pop    ebp
  4d0a24:	ret    
  4d0a25:	add    BYTE PTR [eax],al
  4d0a27:	add    BYTE PTR [eax],al
  4d0a29:	add    BYTE PTR [eax],al
  4d0a2b:	add    BYTE PTR [ebx-0x1374aa01],cl
  4d0a31:	sub    esp,0x48
  4d0a34:	mov    eax,0x4d306c
  4d0a39:	add    esi,DWORD PTR [ebp-0x18]
  4d0a3c:	push   eax
  4d0a3d:	push   DWORD PTR [eax+0x68]
  4d0a40:	push   ebx
  4d0a41:	push   DWORD PTR [eax+0x1fc]
  4d0a47:	call   0x4d09d8
  4d0a4c:	add    esp,0xc
  4d0a4f:	pop    eax
  4d0a50:	push   eax
  4d0a51:	push   0x0
  4d0a53:	notrack call DWORD PTR ds:0x4d2078
  4d0a5a:	pop    eax
  4d0a5b:	push   eax
  4d0a5c:	push   0x0
  4d0a5e:	notrack call DWORD PTR ds:0x4d2018
  4d0a65:	pop    eax
  4d0a66:	add    esp,0x48
  4d0a69:	pop    ebp
  4d0a6a:	ret    
  4d0a6b:	add    BYTE PTR [eax],al
  4d0a6d:	add    BYTE PTR [eax],al
  4d0a6f:	add    BYTE PTR [ebx-0x1374aa01],cl
  4d0a75:	sub    esp,0x34
  4d0a78:	lea    ecx,[edi+0xac]
  4d0a7e:	adc    DWORD PTR [ecx+0x84],edi
  4d0a84:	push   ecx
  4d0a85:	notrack call DWORD PTR ds:0x4d2048
  4d0a8c:	pop    ecx
  4d0a8d:	push   ecx
  4d0a8e:	push   DWORD PTR [ecx+0x1c]
  4d0a91:	push   eax
  4d0a92:	push   DWORD PTR [ecx+0xc]
  4d0a95:	push   DWORD PTR [ecx+0x100]
  4d0a9b:	call   0x4d04a4
  4d0aa0:	add    esp,0x10
  4d0aa3:	pop    ecx
  4d0aa4:	push   ecx
  4d0aa5:	mov    eax,0x0
  4d0aaa:	push   eax
  4d0aab:	notrack call DWORD PTR ds:0x4d207c
  4d0ab2:	pop    ecx
  4d0ab3:	add    esp,0x34
  4d0ab6:	pop    ebp
  4d0ab7:	ret    
  4d0ab8:	add    BYTE PTR [eax],al
  4d0aba:	add    BYTE PTR [eax],al
  4d0abc:	pop    eax
  4d0abd:	pop    edx
  4d0abe:	cmp    BYTE PTR [eax-0x4262dd05],bh
  4d0ac4:	cmp    edx,eax
  4d0ac6:	dec    esi
  4d0ac7:	push   ecx
  4d0ac8:	loope  0x4d0a9b
  4d0aca:	and    eax,0xa8f2103b
  4d0acf:	push   0xffffffe8
  4d0ad1:	pop    edi
  4d0ad2:	out    dx,al
  4d0ad3:	outs   dx,BYTE PTR ds:[esi]
  4d0ad4:	into   
  4d0ad5:	inc    edx
  4d0ad6:	cmp    ch,al
  4d0ad8:	and    eax,0xb740d05d
  4d0add:	cs push ebx
  4d0adf:	xchg   cl,al
  4d0ae1:	mov    edi,0xf99b1ca2
  4d0ae6:	loopne 0x4d0aa5
  4d0ae8:	sub    BYTE PTR [edi-0x49],dl
  4d0aeb:	call   0x7fc8:0x3318e1de
  4d0af2:	lock pop eax
  4d0af4:	adc    BYTE PTR [eax-0x21],al
  4d0af7:	cmp    ah,BYTE PTR [edx]
  4d0af9:	add    dh,BYTE PTR [ebp+ecx*1+0x71]
  4d0afd:	pop    edx
  4d0afe:	in     al,0x9d
  4d0b00:	pop    ecx
  4d0b01:	xchg   ebx,eax
  4d0b02:	addr16 pop esp
  4d0b04:	pop    ecx
  4d0b05:	(bad)  
  4d0b06:	cmp    DWORD PTR [esi+0x4afd45a3],edi
  4d0b0c:	dec    edx
  4d0b0d:	dec    eax
  4d0b0e:	std    
  4d0b0f:	dec    edx
  4d0b10:	dec    ecx
  4d0b11:	enter  0x5bc7,0x9f
  4d0b15:	lods   eax,DWORD PTR ds:[esi]
  4d0b16:	stos   DWORD PTR es:[edi],eax
  4d0b17:	push   0x4cf83ac
  4d0b1c:	mov    edi,0x3d549783
  4d0b21:	sbb    DWORD PTR [esi+edi*2+0x5b],0x6
  4d0b26:	mov    ds:0xa0decfa8,eax
  4d0b2b:	jmp    0x4d0b1f
  4d0b2d:	pop    edi
  4d0b2e:	fdivr  DWORD PTR [ebx-0x4423200f]
  4d0b34:	xchg   ah,dh
  4d0b36:	xor    al,0x49
  4d0b38:	xor    ah,0x34
  4d0b3b:	adc    al,0x8
  4d0b3d:	add    DWORD PTR [ebp-0x72fef8fc],ecx
  4d0b43:	test   eax,0xa98ff3ee
  4d0b48:	in     eax,dx
  4d0b49:	jp     0x4d0b14
  4d0b4b:	push   ebp
  4d0b4c:	push   cs
  4d0b4d:	(bad)  
  4d0b4e:	mov    ds:0xcfce6536,eax
  4d0b53:	pop    edx
  4d0b54:	or     DWORD PTR [esi-0x2998c079],esp
  4d0b5a:	shr    DWORD PTR [edi+edx*4-0x7d],cl
  4d0b5e:	frstpm(287 only) 
  4d0b60:	nop
  4d0b61:	jmp    0x9c229941
  4d0b66:	mov    esi,0xdbd3bce8
  4d0b6b:	mov    ebx,ecx
  4d0b6d:	xchg   DWORD PTR [eax+0x18f9d76],ecx
  4d0b73:	xor    BYTE PTR [eax-0xed73af4],bl
  4d0b79:	dec    esp
  4d0b7a:	lods   eax,DWORD PTR ds:[esi]
  4d0b7b:	sub    al,ah
  4d0b7d:	dec    esp
  4d0b7e:	lods   eax,DWORD PTR ds:[esi]
  4d0b7f:	inc    eax
  4d0b80:	inc    ebx
  4d0b81:	dec    edx
  4d0b82:	lods   eax,DWORD PTR ds:[esi]
  4d0b83:	inc    eax
  4d0b84:	sub    BYTE PTR [edx+0x52],cl
  4d0b87:	adc    eax,0x10aac137
  4d0b8c:	cmps   DWORD PTR ds:[esi],DWORD PTR es:[edi]
  4d0b8d:	shr    DWORD PTR [edx+0x1f4cf610],0xc0
  4d0b94:	push   cs
  4d0b95:	mov    bl,0xe0
  4d0b97:	jns    0x4d0b42
  4d0b99:	mov    ch,0xe0
  4d0b9b:	jns    0x4d0bf6
  4d0b9d:	adc    DWORD PTR [ebx],esp
  4d0b9f:	xchg   ecx,eax
  4d0ba0:	iret   
  4d0ba1:	adc    al,0x23
  4d0ba3:	xchg   ecx,eax
  4d0ba4:	xchg   ecx,eax
  4d0ba5:	dec    edx
  4d0ba6:	movs   BYTE PTR es:[edi],BYTE PTR ds:[esi]
  4d0ba7:	movs   DWORD PTR es:[edi],DWORD PTR ds:[esi]
  4d0ba8:	mov    ah,0x1c
  4d0baa:	dec    esp
  4d0bab:	pop    esp
  4d0bac:	scas   eax,DWORD PTR es:[edi]
  4d0bad:	sbb    al,0x4c
  4d0baf:	mov    ah,0x97
  4d0bb1:	sbb    DWORD PTR [esp+esi*4+0x1b],ecx
  4d0bb5:	loope  0x4d0bdd
  4d0bb7:	mov    ah,0x70
  4d0bb9:	loope  0x4d0b94
  4d0bbb:	rcl    DWORD PTR [ebx],0xb6
  4d0bbe:	es xchg esp,eax
  4d0bc0:	cmp    bh,BYTE PTR ds:0x3d4ffc6b
  4d0bc6:	aas    
  4d0bc7:	movs   BYTE PTR es:[edi],BYTE PTR ds:[esi]
  4d0bc8:	scas   eax,DWORD PTR es:[edi]
  4d0bc9:	or     DWORD PTR [ebx],ebx
  4d0bcb:	hlt    
  4d0bcc:	std    
  4d0bcd:	pop    edi
  4d0bce:	dec    esp
  4d0bcf:	or     esp,DWORD PTR [edi+0x575c1473]
  4d0bd5:	es or  al,0xb4
  4d0bd8:	jge    0x4d0bff
  4d0bda:	or     al,0xb4
  4d0bdc:	cmc    
  4d0bdd:	arpl   WORD PTR [eax],si
  4d0bdf:	cmp    eax,esi
  4d0be1:	gs push esi
  4d0be3:	into   
  4d0be4:	scas   eax,DWORD PTR es:[edi]
  4d0be5:	jae    0x4d0c3d
  4d0be7:	out    dx,al
  4d0be8:	fldenv [ebp+0x6f]
  4d0beb:	mov    dh,0xec
  4d0bed:	adc    DWORD PTR [esi+0x3d],edi
  4d0bf0:	mov    bl,0x25
  4d0bf2:	adc    al,0x39
  4d0bf4:	fisub  DWORD PTR ds:0xdad93924
  4d0bfa:	push   esp
  4d0bfb:	imul   ecx,DWORD PTR [ecx+0x1790125],0x54296d58
  4d0c05:	xor    ch,BYTE PTR [ecx+0x7e]
  4d0c08:	push   es
  4d0c09:	int    0x3c
  4d0c0b:	jb     0x4d0c5e
  4d0c0d:	cmps   DWORD PTR ds:[esi],DWORD PTR es:[edi]
  4d0c0e:	ds and eax,0xeab5f101
  4d0c14:	mov    DWORD PTR [edx],ecx
  4d0c16:	inc    esi
  4d0c17:	dec    esi
  4d0c18:	(bad)  
  4d0c19:	cmc    
  4d0c1a:	adc    eax,DWORD PTR [edx-0x73]
  4d0c1d:	jle    0x4d0bfc
  4d0c1f:	inc    ecx
  4d0c20:	ret    
  4d0c21:	inc    edx
  4d0c22:	push   eax
  4d0c23:	cmp    dl,bl
  4d0c25:	leave  
  4d0c26:	pop    es
  4d0c27:	sbb    ah,dl
  4d0c29:	jle    0x4d0c71
  4d0c2b:	or     al,0xd6
  4d0c2d:	xchg   BYTE PTR [ecx-0x45],cl
  4d0c30:	sahf   
  4d0c31:	sub    BYTE PTR [ecx],0x30
  4d0c34:	fcom   DWORD PTR [esp+ebp*4+0x27d5abf0]
  4d0c3b:	mov    bh,0xa2
  4d0c3d:	push   eax
  4d0c3e:	out    0xc3,eax
  4d0c40:	xchg   edi,eax
  4d0c41:	mov    eax,0xb896c776
  4d0c46:	std    
  4d0c47:	nop    edi
  4d0c4a:	(bad)  
  4d0c4c:	push   0x6ae7d9fd
  4d0c51:	mov    cl,ch
  4d0c53:	sbb    BYTE PTR [edx+ebx*4],bl
  4d0c56:	inc    esi
  4d0c57:	setns  BYTE PTR [di+0x5e3c]
  4d0c5d:	adc    ch,BYTE PTR [ecx+0x6e]
  4d0c60:	or     eax,0x5e3f3e43
  4d0c65:	sub    DWORD PTR [edx],edi
  4d0c67:	outs   dx,BYTE PTR ds:[esi]
  4d0c68:	or     dh,dl
  4d0c6a:	outs   dx,DWORD PTR ds:[esi]
  4d0c6b:	bound  edx,QWORD PTR [eax-0x1b]
  4d0c6e:	scas   eax,DWORD PTR es:[edi]
  4d0c6f:	xor    eax,0xbef04fa2
  4d0c74:	push   0x3c4154bc
  4d0c79:	mov    al,0xc
  4d0c7b:	and    BYTE PTR [esi+0xec22477],bh
  4d0c81:	lahf   
  4d0c82:	das    
  4d0c83:	ret    
  4d0c84:	or     eax,0xc42c79f
  4d0c89:	lahf   
  4d0c8a:	(bad)  
  4d0c8b:	sbb    ah,BYTE PTR [ebx-0x61]
  4d0c8e:	xchg   DWORD PTR [edx],ebx
  4d0c90:	bound  esp,QWORD PTR [eax-0xe]
  4d0c93:	jb     0x4d0cc8
  4d0c95:	jmp    0x4d0ca0
  4d0c97:	stc    
  4d0c98:	ret    0x303
  4d0c9b:	std    
  4d0c9c:	rol    DWORD PTR [ebx],0x67
  4d0c9f:	add    dh,bl
  4d0ca1:	xor    esp,DWORD PTR [edi+0x2]
  4d0ca4:	repnz imul ebp,esp,0x42
  4d0ca8:	std    
  4d0ca9:	loopne 0x4d0c57
  4d0cab:	dec    esi
  4d0cac:	ret    
  4d0cad:	mov    eax,0x33c63ab4
  4d0cb2:	mov    ah,0xd1
  4d0cb4:	xor    BYTE PTR [eax-0xecd0a48],bh
  4d0cba:	test   BYTE PTR [esi+0x42],bh
  4d0cbd:	fld    DWORD PTR [edi-0x605e3577]
  4d0cc3:	add    BYTE PTR [ecx-0x8080643],bh
  4d0cc9:	stos   DWORD PTR es:[edi],eax
  4d0cca:	stc    
  4d0ccb:	xlat   BYTE PTR ds:[ebx]
  4d0ccc:	and    DWORD PTR [edi-0x58678963],0xe712769d
  4d0cd6:	lods   eax,DWORD PTR ds:[esi]
  4d0cd7:	jmp    FWORD PTR [ecx-0x11]
  4d0cda:	push   edx
  4d0cdb:	stos   BYTE PTR es:[edi],al
  4d0cdc:	jl     0x4d0ce5
  4d0cde:	and    al,0xa8
  4d0ce0:	jnp    0x4d0ce9
  4d0ce2:	jns    0x4d0d45
  4d0ce4:	and    cl,BYTE PTR [esi-0x10c2baf3]
  4d0cea:	pop    ebp
  4d0ceb:	lods   eax,DWORD PTR ds:[esi]
  4d0cec:	(bad)  
  4d0ced:	jmp    0xf525:0x6ba6ad5d
  4d0cf4:	movs   DWORD PTR es:[edi],DWORD PTR ds:[esi]
  4d0cf5:	imul   esp,DWORD PTR ds:0xae66cff5,0xaaa1eaf1
  4d0cff:	aad    0xe9
  4d0d01:	mov    eax,ds:0xd515d5aa
  4d0d06:	mov    ss,ecx
  4d0d08:	inc    esp
  4d0d09:	out    0x4e,al
  4d0d0b:	adc    ah,BYTE PTR [ebx]
  4d0d0d:	ins    DWORD PTR es:[edi],dx
  4d0d0e:	mov    ebp,0x36515411
  4d0d13:	cmps   DWORD PTR ds:[esi],DWORD PTR es:[edi]
  4d0d14:	rcl    DWORD PTR [ecx+0x36],cl
  4d0d17:	cmps   DWORD PTR ds:[esi],DWORD PTR es:[edi]
  4d0d18:	push   ebp
  4d0d19:	cmps   DWORD PTR ds:[esi],DWORD PTR es:[edi]
  4d0d1a:	inc    edx
  4d0d1b:	aam    0x55
  4d0d1d:	push   esp
  4d0d1e:	leave  
  4d0d1f:	stos   BYTE PTR es:[edi],al
  4d0d20:	pop    eax
  4d0d21:	shl    DWORD PTR [esi],1
  4d0d23:	fidiv  WORD PTR [ecx]
  4d0d25:	ror    ch,cl
  4d0d27:	mov    ebp,ecx
  4d0d29:	xchg   ecx,ecx
  4d0d2b:	or     al,0xc
  4d0d2d:	repnz int 0x5b
  4d0d30:	repnz cmps DWORD PTR ds:[esi],DWORD PTR es:[edi]
  4d0d32:	int    0xb
  4d0d34:	mov    ds:0x9f1bbb2c,eax
  4d0d39:	fbstp  TBYTE PTR [eax]
  4d0d3b:	in     eax,0x31
  4d0d3d:	pop    edx
  4d0d3e:	lock nop
  4d0d40:	leave  
  4d0d41:	jno    0x4d0d4a
  4d0d43:	sbb    eax,DWORD PTR [esi]
  4d0d45:	das    
  4d0d46:	push   esi
  4d0d47:	dec    ebx
  4d0d48:	push   ecx
  4d0d49:	inc    ebp
  4d0d4a:	push   edx
  4d0d4b:	sbb    al,BYTE PTR ds:0x521607ba
  4d0d51:	xor    DWORD PTR [ecx],eax
  4d0d53:	xchg   ebx,eax
  4d0d54:	xchg   ecx,eax
  4d0d55:	mov    eax,ds:0xb1d61891
  4d0d5a:	sbb    al,0x2c
  4d0d5c:	aam    0xe6
  4d0d5e:	mov    cl,0xa9
  4d0d60:	adc    edx,DWORD PTR [edx-0x6dedff56]
  4d0d66:	stos   BYTE PTR es:[edi],al
  4d0d67:	and    BYTE PTR [esi-0x6a],0x27
  4d0d6b:	les    esp,FWORD PTR [esp+edx*4+0x2]
  4d0d6f:	cmp    ebx,DWORD PTR [edx+0x646b7d6b]
  4d0d75:	pop    ds
  4d0d76:	pop    ecx
  4d0d77:	jg     0x4d0d13
  4d0d79:	dec    edx
  4d0d7a:	push   ecx
  4d0d7b:	aam    0x70
  4d0d7d:	stos   BYTE PTR es:[edi],al
  4d0d7e:	push   cs
  4d0d7f:	mov    ah,BYTE PTR [edi]
  4d0d81:	repz pop edx
  4d0d83:	fidiv  DWORD PTR [ebp-0x5c]
  4d0d86:	movs   DWORD PTR es:[edi],DWORD PTR ds:[esi]
  4d0d87:	(bad)  
  4d0d88:	js     0x4d0d86
  4d0d8a:	es dec ecx
  4d0d8c:	imul   edx,DWORD PTR [edi],0xffffffa9
  4d0d8f:	sub    BYTE PTR [edi+0x2bfb2277],ah
  4d0d95:	test   DWORD PTR [ecx],esp
  4d0d97:	lea    edx,[esi]
  4d0d99:	scas   al,BYTE PTR es:[edi]
  4d0d9a:	ja     0x4d0d55
  4d0d9c:	xchg   edx,eax
  4d0d9d:	jl     0x4d0e17
  4d0d9f:	cmp    eax,0x3d787c06
  4d0da4:	mov    edx,?
  4d0da6:	fdivr  QWORD PTR ds:0x8b57f28b
  4d0dac:	sub    dh,dl
  4d0dae:	push   edi
  4d0daf:	mov    ebp,DWORD PTR [esi+0x2e0f5804]
  4d0db5:	add    al,0x58
  4d0db7:	cvttps2pi mm6,xmm7
  4d0dba:	cmc    
  4d0dbb:	test   bl,dl
  4d0dbd:	hlt    
  4d0dbe:	push   cs
  4d0dbf:	aam    0x57
  4d0dc1:	xor    BYTE PTR [esi-0x7b],bl
  4d0dc4:	add    al,0x60
  4d0dc6:	xor    al,0x81
  4d0dc8:	imul   esp,DWORD PTR [eax+0x24],0xffffff81
  4d0dcc:	push   0x37
  4d0dce:	cmps   DWORD PTR ds:[esi],DWORD PTR es:[edi]
  4d0dcf:	imul   ebp,DWORD PTR [ebp+0x67],0x67046dcd
  4d0dd6:	(bad)  [ebp+0x3]
  4d0dd9:	xor    BYTE PTR [ecx+ebp*2+0x26],bl
  4d0ddd:	xor    BYTE PTR [ecx+ebp*2+0x25],cl
  4d0de1:	iret   
  4d0de2:	sbb    DWORD PTR [ebp-0x27],esp
  4d0de5:	call   0xf73e:0x377f3f15
  4d0dec:	sub    eax,0xc326f6bc
  4d0df1:	aas    
  4d0df2:	pop    ds
  4d0df3:	and    ch,bh
  4d0df5:	(bad)  
  4d0df6:	jns    0x4d0d87
  4d0df8:	mov    BYTE PTR [esi+0x79],dl
  4d0dfb:	mov    edi,0x405c5efb
  4d0e00:	repz pop esi
  4d0e02:	pop    esp
  4d0e03:	inc    ecx
  4d0e04:	out    0x59,al
  4d0e06:	mov    esi,0xfad4beaf
  4d0e0b:	mov    edi,DWORD PTR [ecx+0x45dba885]
  4d0e11:	mov    ch,0xc0
  4d0e13:	fist   DWORD PTR [ebp+esi*4-0x40]
  4d0e17:	mov    esi,ss
  4d0e19:	pop    ebp
  4d0e1a:	(bad)  
  4d0e1b:	fsubr  QWORD PTR [eax]
  4d0e1d:	ins    DWORD PTR es:[edi],dx
  4d0e1e:	lods   al,BYTE PTR ds:[esi]
  4d0e1f:	fdiv   QWORD PTR [edi]
  4d0e21:	ins    DWORD PTR es:[edi],dx
  4d0e22:	lods   al,BYTE PTR ds:[esi]
  4d0e23:	mov    esi,DWORD PTR [ebp-0x5b747797]
  4d0e29:	imul   ecx,DWORD PTR [eax+0x7765f074],0x2e3ffb21
  4d0e33:	jns    0x4d0dd7
  4d0e35:	mov    edx,0xdb220ce7
  4d0e3a:	and    al,0x6c
  4d0e3c:	enter  0x89dc,0x8e
  4d0e40:	xor    al,0x51
  4d0e42:	mov    ebp,0x55daf68d
  4d0e47:	push   es
  4d0e48:	add    al,0x63
  4d0e4a:	inc    ebp
  4d0e4b:	push   es
  4d0e4c:	add    esp,DWORD PTR [ebx-0x53]
  4d0e4f:	in     eax,dx
  4d0e50:	sti    
  4d0e51:	pushf  
  4d0e52:	push   edx
  4d0e53:	push   esp
  4d0e54:	jecxz  0x4d0df2
  4d0e56:	push   edx
  4d0e57:	push   esp
  4d0e58:	or     bh,BYTE PTR [ebp-0x53]
  4d0e5b:	stos   DWORD PTR es:[edi],eax
  4d0e5c:	hlt    
  4d0e5d:	sub    edx,DWORD PTR [esp+ebp*4]
  4d0e60:	repz sub edx,DWORD PTR [esp+eax*2]
  4d0e64:	and    al,0xd4
  4d0e66:	jmp    0x4d0e23
  4d0e68:	scas   al,BYTE PTR es:[edi]
  4d0e69:	add    al,0x60
  4d0e6b:	(bad)
  4d0e6f:	(bad)
  4d0e73:	dec    eax
  4d0e74:	jbe    0x4d0eb8
  4d0e76:	jle    0x4d0e3b
  4d0e78:	xchg   ecx,ecx
  4d0e7a:	mov    ah,0x2b
  4d0e7c:	cmp    BYTE PTR [esi],dh
  4d0e7e:	dec    ebx
  4d0e7f:	aam    0xa
  4d0e81:	neg    BYTE PTR [ebx]
  4d0e83:	adc    eax,0x11daf1c1
  4d0e88:	in     al,0xfc
  4d0e8a:	fist   DWORD PTR ds:0xd55f50bf
  4d0e90:	leave  
  4d0e91:	mov    eax,ds:0x9a3d5e07
  4d0e96:	ret    0x3d2a
  4d0e99:	shl    BYTE PTR [edi-0x6c1b4a09],1
  4d0e9f:	dec    esi
  4d0ea0:	mov    esi,0x554e93e4
  4d0ea5:	jno    0x4d0f13
  4d0ea7:	mov    cl,0xa9
  4d0ea9:	jle    0x4d0e86
  4d0eab:	mov    ebp,0x48a20fe
  4d0eb0:	cmc    
  4d0eb1:	and    BYTE PTR [edx+0x75a51c04],cl
  4d0eb7:	sti    
  4d0eb8:	loop   0x4d0eb6
  4d0eba:	popf   
  4d0ebb:	test   BYTE PTR [ebx+eax*1],bl
  4d0ebe:	bound  ecx,QWORD PTR ds:0x6c7e2767
  4d0ec4:	mov    ds:0xbd84bf76,eax
  4d0ec9:	iret   
  4d0eca:	lahf   
  4d0ecb:	test   BYTE PTR [edi+ecx*8+0x768bf0d7],bh
  4d0ed2:	aad    0xf0
  4d0ed4:	mov    dh,BYTE PTR [esi-0x63]
  4d0ed7:	test   BYTE PTR [ecx-0x5f7b4231],ah
  4d0edd:	iret   
  4d0ede:	cmc    
  4d0edf:	lock jg 0x4d0f58
  4d0ee2:	icebp  
  4d0ee3:	lock jle 0x4d0f5c
  4d0ee6:	mov    ecx,0xf9cf6584
  4d0eeb:	test   BYTE PTR [edi+ecx*8-0x4f],ah
  4d0eef:	lock jae 0x4d0f68
  4d0ef2:	mov    ch,0xf0
  4d0ef4:	jb     0x4d0f6c
  4d0ef6:	std    
  4d0ef7:	test   BYTE PTR [ecx-0x31],bh
  4d0efa:	mov    ebp,0xf5cf7884
  4d0eff:	lock ja 0x4d0f46
  4d0f02:	xor    al,0xa9
  4d0f04:	mov    bl,0x24
  4d0f06:	mov    edi,0x4da5c2fc
  4d0f0b:	ins    DWORD PTR es:[edi],dx
  4d0f0c:	daa    
  4d0f0d:	loopne 0x4d0f44
  4d0f0f:	out    0x69,al
  4d0f11:	mov    BYTE PTR [esi-0x190a16e8],bh
  4d0f17:	sbb    BYTE PTR [esi+esi*8+0x7dc36de7],bl
  4d0f1e:	mov    ds:0xd6bd450d,al
  4d0f23:	sbb    bl,cl
  4d0f25:	sti    
  4d0f26:	jmp    0x6f4a:0xeaff704a
  4d0f2d:	pop    ss
  4d0f2e:	dec    edi
  4d0f2f:	dec    ebx
  4d0f30:	outs   dx,BYTE PTR ds:[esi]
  4d0f31:	pop    ss
  4d0f32:	adc    eax,0xed149d48
  4d0f37:	arpl   WORD PTR [edi+ebp*1-0x68],dx
  4d0f3b:	cmp    esp,DWORD PTR [eax]
  4d0f3d:	and    bl,BYTE PTR [ebx-0x19de84b2]
  4d0f43:	adc    cl,BYTE PTR [edi+0x6c]
  4d0f46:	mov    edx,0xb1188597
  4d0f4b:	cmp    dl,ah
  4d0f4d:	sub    esi,DWORD PTR [ebx+0x60]
  4d0f50:	jle    0x4d0efa
  4d0f52:	call   0xfaa0:0xfb4b9b63
  4d0f59:	enter  0xec86,0xf9
  4d0f5d:	mov    esp,0xbcf50494
  4d0f62:	xchg   esp,eax
  4d0f63:	add    al,0x7d
  4d0f65:	rol    eax,0x81
  4d0f68:	xor    DWORD PTR [ebp+0x16682ac6],0x77672ac6
  4d0f72:	add    eax,0x3922974a
  4d0f77:	ror    DWORD PTR [esi-0x57],0x4c
  4d0f7b:	(bad)  
  4d0f7c:	(bad)  
  4d0f7d:	in     al,dx
  4d0f7e:	sbb    al,0xdd
  4d0f80:	xchg   ebx,eax
  4d0f81:	test   BYTE PTR [ebx*8+0x224f849e],bl
  4d0f88:	retf   0x16c4
  4d0f8b:	jb     0x4d0fcd
  4d0f8d:	cmp    al,0xe5
  4d0f8f:	(bad)  
  4d0f90:	cmps   DWORD PTR ds:[esi],DWORD PTR es:[edi]
  4d0f91:	add    al,0xe5
  4d0f93:	(bad)  
  4d0f94:	cmps   BYTE PTR ds:[esi],BYTE PTR es:[edi]
  4d0f95:	dec    esp
  4d0f96:	ins    BYTE PTR es:[edi],dx
  4d0f97:	xchg   edx,eax
  4d0f98:	sub    DWORD PTR [edi+eiz*8+0x6a],0x6e5a600b
  4d0fa0:	or     ah,BYTE PTR [eax+0x5a]
  4d0fa3:	or     ch,BYTE PTR [edx-0x56f5a588]
  4d0fa9:	repz sub ah,BYTE PTR [esi]
  4d0fac:	neg    DWORD PTR [ebx-0x6405d9d6]
  4d0fb2:	jns    0x4d0f8d
  4d0fb4:	scas   al,BYTE PTR es:[edi]
  4d0fb5:	fcomi  st,st(4)
  4d0fb7:	aad    0x15
  4d0fb9:	push   esp
  4d0fba:	cmc    
  4d0fbb:	test   DWORD PTR [ebp+0x6d7d7e9b],ebx
  4d0fc1:	ds sbb bl,ah
  4d0fc4:	je     0x4d1004
  4d0fc6:	sbb    bl,ah
  4d0fc8:	cli    
  4d0fc9:	jle    0x4d1001
  4d0fcb:	mov    ebp,0x51b71e38
  4d0fd0:	pop    ss
  4d0fd1:	sbb    al,0xb7
  4d0fd3:	push   ecx
  4d0fd4:	jle    0x4d100e
  4d0fd6:	mov    ch,0x51
  4d0fd8:	jge    0x4d0fe5
  4d0fda:	inc    ebx
  4d0fdb:	cmp    edi,DWORD PTR [ecx+eiz*2+0x4b]
  4d0fdf:	les    ebp,FWORD PTR [eax]
  4d0fe1:	jge    0x4d0fa3
  4d0fe3:	sbb    al,0x7b
  4d0fe5:	cs aas 
  4d0fe7:	dec    ecx
  4d0fe8:	dec    esi
  4d0fe9:	movs   DWORD PTR es:[edi],DWORD PTR ds:[esi]
  4d0fea:	jnp    0x4d1059
  4d0fec:	push   ecx
  4d0fed:	cmps   BYTE PTR ds:[esi],BYTE PTR es:[edi]
  4d0fee:	cmp    edx,DWORD PTR [ecx-0x27]
  4d0ff1:	es sti 
  4d0ff3:	push   ecx
  4d0ff4:	fsub   DWORD PTR [esi]
  4d0ff6:	jle    0x4d0f89
  4d0ff8:	stos   DWORD PTR es:[edi],eax
  4d0ff9:	daa    
  4d0ffa:	cmp    ch,al
  4d0ffc:	neg    eax
  4d0ffe:	ins    DWORD PTR es:[edi],dx
  4d0fff:	std    
  4d1000:	jno    0x4d101a
  4d1002:	sbb    BYTE PTR [eax],bl
  4d1004:	and    edi,esp
  4d1006:	dec    ebp
  4d1007:	add    BYTE PTR [edi-0x61fd96dd],bl
  4d100d:	and    esp,eax
  4d100f:	jbe    0x4d0fca
  4d1011:	aas    
  4d1012:	xor    DWORD PTR [ebp-0x2612a828],0xab8557d7
  4d101c:	mov    ds:0xcec3e179,al
  4d1021:	or     dl,BYTE PTR [edi-0x3d0a6660]
  4d1027:	movs   BYTE PTR es:[edi],BYTE PTR ds:[esi]
  4d1028:	sbb    esi,DWORD PTR ds:0xca4eacb7
  4d102e:	loop   0x4d0fdc
  4d1030:	retf   0x960a
  4d1033:	loope  0x4d0fd4
  4d1035:	or     bh,dh
  4d1037:	mov    al,dh
  4d1039:	jle    0x4d0fd3
  4d103b:	loopne 0x4d0fd2
  4d103d:	or     eax,ebp
  4d103f:	xchg   edx,eax
  4d1040:	rcr    BYTE PTR [ecx+0x17],0xc7
  4d1044:	(bad)  
  4d1045:	fcmovbe st,st(3)
  4d1047:	retf   
  4d1048:	dec    ebx
  4d1049:	sub    al,BYTE PTR [ebx-0x1695df61]
  4d104f:	cwde   
  4d1050:	jne    0x4d0fe7
  4d1052:	mov    esp,0xe8c52c94
  4d1057:	les    eax,FWORD PTR [ebp-0x3e]
  4d105a:	mov    esi,0xbec2622c
  4d105f:	sub    al,0xe8
  4d1061:	(bad)  
  4d1062:	call   0x2dad:0x9aec2ead
  4d1069:	xchg   BYTE PTR [ebp-0x25dd220c],bl
  4d106f:	jg     0x4d108b
  4d1071:	mov    DWORD PTR [edi+0x1],edx
  4d1074:	loop   0x4d10af
  4d1076:	aas    
  4d1077:	stos   DWORD PTR es:[edi],eax
  4d1078:	mov    ecx,0x12688f92
  4d107d:	ins    DWORD PTR es:[edi],dx
  4d107e:	fisub  DWORD PTR [ecx+ecx*2-0x12]
  4d1082:	push   ds
  4d1083:	push   0x97462d27
  4d1088:	idiv   BYTE PTR [eax-0x52]
  4d108b:	or     ebp,esi
  4d108d:	js     0x4d103d
  4d108f:	push   esp
  4d1090:	ja     0x4d10cf
  4d1092:	(bad)  
  4d1094:	mov    dh,0x39
  4d1096:	push   edi
  4d1097:	xchg   ebx,eax
  4d1098:	xchg   ecx,eax
  4d1099:	sub    DWORD PTR [edx],ecx
  4d109b:	xchg   ebx,eax
  4d109c:	nop
  4d109d:	sub    DWORD PTR [edx],ecx
  4d109f:	xchg   ebx,eax
  4d10a0:	vprotq xmm9,[esi-0x18af9dd7],xmm3
  4d10a9:	sbb    dl,BYTE PTR [esi+esi*1+0x50ce575c]
  4d10b0:	lock xor ebp,edi
  4d10b3:	add    BYTE PTR [ebx-0x7f9183c7],0x29
  4d10ba:	jl     0x4d112a
  4d10bc:	push   0xffffffc4
  4d10be:	icebp  
  4d10bf:	xor    BYTE PTR [ebx+0x61450e40],dl
  4d10c5:	retf   
  4d10c6:	js     0x4d1147
  4d10c8:	push   es
  4d10c9:	jno    0x4d10f3
  4d10cb:	cmp    cl,BYTE PTR [edx+0x265c3645]
  4d10d1:	and    eax,DWORD PTR ds:0xc6c3528c
  4d10d7:	frstor [eax+0xa]
  4d10da:	xchg   esi,esi
  4d10dc:	mov    eax,ds:0xa2828372
  4d10e1:	cdq    
  4d10e2:	je     0x4d1095
  4d10e4:	popa   
  4d10e5:	call   0xd875:0xc39c53b6
  4d10ec:	loopne 0x4d1099
  4d10ee:	pop    ds
  4d10ef:	fadd   QWORD PTR [edi-0x7923f055]
  4d10f5:	cld    
  4d10f6:	fdivr  QWORD PTR gs:[eax-0x57]
  4d10fa:	jne    0x4d1153
  4d10fc:	xchg   DWORD PTR [eax],ebp
  4d10fe:	cdq    
  4d10ff:	push   ebx
  4d1100:	test   DWORD PTR [eax],ebp
  4d1102:	cdq    
  4d1103:	fdivr  DWORD PTR [eax+0x40]
  4d1106:	popf   
  4d1107:	fnstenv [edi+0x40]
  4d110a:	retf   0x878a
  4d110d:	adc    eax,0x7d86e0ea
  4d1112:	push   0xffffffe0
  4d1114:	test   DWORD PTR [ebp+0x0],edi
  4d1117:	jecxz  0x4d1107
  4d1119:	jge    0x4d1185
  4d111b:	loop   0x4d10a2
  4d111d:	jge    0x4d1189
  4d111f:	loop   0x4d1125
  4d1121:	sub    dl,BYTE PTR [ebp+0x51ab1fb7]
  4d1127:	mov    bl,0x1d
  4d1129:	stos   DWORD PTR es:[edi],eax
  4d112a:	push   ecx
  4d112b:	jo     0x4d10b9
  4d112d:	repz scas al,BYTE PTR es:[edi]
  4d112f:	mov    al,ds:0xc10c2776
  4d1134:	sti    
  4d1135:	sbb    ecx,DWORD PTR [eax]
  4d1137:	mov    WORD PTR [ebp+0x6740a7a3],?
  4d113d:	cwde   
  4d113e:	mov    BYTE PTR ds:[esi+0x14],0x76
  4d1143:	movs   BYTE PTR es:[edi],BYTE PTR ds:[esi]
  4d1144:	cmps   BYTE PTR ds:[esi],BYTE PTR es:[edi]
  4d1145:	scas   ax,WORD PTR es:[edi]
  4d1147:	mov    edi,0xd371da45
  4d114c:	fnsave [ebp+ebp*8+0x7]
  4d1150:	sbb    al,0x57
  4d1152:	movs   BYTE PTR es:[edi],BYTE PTR ds:[esi]
  4d1153:	fwait
  4d1154:	ret    
  4d1155:	cmp    cl,BYTE PTR [ecx]
  4d1157:	mov    WORD PTR [ebx+esi*8],?
  4d115a:	mov    ds:0x399f7909,eax
  4d115f:	and    BYTE PTR [eax+0x1c],dh
  4d1162:	xor    al,BYTE PTR [edi-0x79db0538]
  4d1168:	xchg   esi,esp
  4d116a:	and    eax,0xc7ae3b0d
  4d116f:	retf   0x11b5
  4d1172:	fwait
  4d1173:	in     al,dx
  4d1174:	mov    dh,0x82
  4d1176:	movs   BYTE PTR es:[edi],BYTE PTR ds:[esi]
  4d1177:	pop    ebx
  4d1178:	mov    ch,0x82
  4d117a:	movs   BYTE PTR es:[edi],BYTE PTR ds:[esi]
  4d117b:	pop    ebx
  4d117c:	mov    ah,0x82
  4d117e:	movs   BYTE PTR es:[edi],BYTE PTR ds:[esi]
  4d117f:	pop    ebx
  4d1180:	mov    bl,0x82
  4d1182:	movs   BYTE PTR es:[edi],BYTE PTR ds:[esi]
  4d1183:	pop    ebx
  4d1184:	mov    dl,0x82
  4d1186:	movs   BYTE PTR es:[edi],BYTE PTR ds:[esi]
  4d1187:	pop    ebx
  4d1188:	mov    cl,0x82
  4d118a:	movs   BYTE PTR es:[edi],BYTE PTR ds:[esi]
  4d118b:	pop    ebx
  4d118c:	mov    al,0x82
  4d118e:	movs   BYTE PTR es:[edi],BYTE PTR ds:[esi]
  4d118f:	pop    ebx
  4d1190:	scas   eax,DWORD PTR es:[edi]
  4d1191:	and    BYTE PTR [ebx+ebx*2+0x5ba4daae],0xad
  4d1199:	and    BYTE PTR [ecx-0x5e7953a5],0x5b
  4d11a0:	dec    ebp
  4d11a1:	add    BYTE PTR ss:[esi-0xbedfafc],bh
