
26eef2cb967b05b65422f57bdbbbf9a0b1046f1d8d07898f400c7b529f23872a.exe:     file format pei-i386


Disassembly of section .text:

00401000 <.text>:
	...
  401008:	jb     0x401064
  40100e:	add    BYTE PTR [eax],al
  401010:	mov    edi,edi
  401012:	push   ebp
  401013:	mov    ebp,esp
  401015:	sub    esp,0x40
  401018:	push   edx
  401019:	lea    ebx,[edx]
  40101b:	push   ebx
  40101c:	push   0x403034
  401021:	pop    eax
  401022:	call   DWORD PTR cs:[eax]
  401025:	test   eax,eax
  401027:	jne    0x401019
  401029:	pop    edx
  40102a:	push   edx
  40102b:	push   DWORD PTR [edx+0x594]
  401031:	push   DWORD PTR [edx+0x594]
  401037:	push   DWORD PTR [edx+0x570]
  40103d:	push   eax
  40103e:	call   0x4014f8
  401043:	add    esp,0x10
  401046:	pop    edx
  401047:	push   edx
  401048:	mov    ecx,0x0
  40104d:	push   ecx
  40104e:	push   0x40304c
  401053:	pop    eax
  401054:	call   DWORD PTR cs:[eax]
  401057:	pop    edx
  401058:	sub    esp,0xffffffc0
  40105b:	mov    ebp,DWORD PTR [esp]
  40105e:	add    esp,0x4
  401061:	ret    
  401062:	add    BYTE PTR [eax],al
  401064:	mov    edi,edi
  401066:	pusha  
  401067:	push   ebp
  401068:	mov    ebp,esp
  40106a:	sub    esp,0x3c
  40106d:	push   edx
  40106e:	push   0x0
  401070:	push   0x40303c
  401075:	pop    eax
  401076:	call   DWORD PTR cs:[eax]
  401079:	pop    edx
  40107a:	test   eax,eax
  40107c:	je     0x40107f
  40107e:	ret    
  40107f:	push   edx
  401080:	push   DWORD PTR [edx+0x58c]
  401086:	push   DWORD PTR [edx+0xd4]
  40108c:	push   edi
  40108d:	call   0x401da0
  401092:	add    esp,0xc
  401095:	pop    edx
  401096:	push   edx
  401097:	push   0x0
  401099:	push   0x403044
  40109e:	pop    eax
  40109f:	call   DWORD PTR cs:[eax]
  4010a2:	pop    edx
  4010a3:	mov    eax,0x403034
  4010a8:	mov    eax,DWORD PTR [eax]
  4010aa:	push   eax
  4010ab:	push   DWORD PTR [edx+0x31c]
  4010b1:	pop    esi
  4010b2:	call   esi
  4010b4:	sub    esp,0xffffffc4
  4010b7:	mov    ebp,DWORD PTR [esp]
  4010ba:	add    esp,0x4
  4010bd:	ret    
  4010be:	add    BYTE PTR [eax],al
  4010c0:	mov    edi,edi
  4010c2:	push   ebp
  4010c3:	mov    ebp,esp
  4010c5:	sub    esp,0x40
  4010c8:	push   edx
  4010c9:	mov    ebx,0x0
  4010ce:	push   ebx
  4010cf:	push   0x403044
  4010d4:	pop    eax
  4010d5:	call   DWORD PTR cs:[eax]
  4010d8:	pop    edx
  4010d9:	push   edx
  4010da:	push   ecx
  4010db:	push   esi
  4010dc:	push   DWORD PTR [edx+0x3b0]
  4010e2:	call   0x4016b8
  4010e7:	add    esp,0xc
  4010ea:	pop    edx
  4010eb:	push   edx
  4010ec:	lea    edx,[edx]
  4010ee:	push   edx
  4010ef:	push   0x403034
  4010f4:	pop    eax
  4010f5:	call   DWORD PTR cs:[eax]
  4010f8:	test   eax,eax
  4010fa:	jne    0x4010ec
  4010fc:	pop    edx
  4010fd:	sub    esp,0xffffffc0
  401100:	mov    ebp,DWORD PTR [esp]
  401103:	add    esp,0x4
  401106:	ret    
  401107:	add    BYTE PTR [eax],al
  401109:	add    BYTE PTR [eax],al
  40110b:	add    BYTE PTR [ebx-0x1374aa01],cl
  401111:	sub    esp,0x34
  401114:	push   edx
  401115:	push   DWORD PTR [edx+0x154]
  40111b:	push   esi
  40111c:	call   0x401788
  401121:	add    esp,0x8
  401124:	pop    edx
  401125:	push   edx
  401126:	push   0x0
  401128:	push   0x403040
  40112d:	pop    eax
  40112e:	call   DWORD PTR cs:[eax]
  401131:	pop    edx
  401132:	push   edx
  401133:	mov    ecx,0x0
  401138:	push   ecx
  401139:	push   0x403068
  40113e:	pop    eax
  40113f:	call   DWORD PTR cs:[eax]
  401142:	pop    edx
  401143:	sub    esp,0xffffffcc
  401146:	mov    ebp,DWORD PTR [esp]
  401149:	add    esp,0x4
  40114c:	ret    
  40114d:	add    BYTE PTR [eax],al
  40114f:	add    BYTE PTR [ebx-0x1374aa01],cl
  401155:	sub    esp,0x60
  401158:	push   edx
  401159:	push   0x0
  40115b:	push   0x403040
  401160:	pop    eax
  401161:	call   DWORD PTR cs:[eax]
  401164:	pop    edx
  401165:	push   edx
  401166:	push   DWORD PTR [edx+0xc0]
  40116c:	push   esi
  40116d:	push   edi
  40116e:	call   0x401b70
  401173:	add    esp,0xc
  401176:	pop    edx
  401177:	push   edx
  401178:	push   0x403048
  40117d:	pop    eax
  40117e:	call   DWORD PTR cs:[eax]
  401181:	pop    edx
  401182:	sub    esp,0xffffffa0
  401185:	mov    ebp,DWORD PTR [esp]
  401188:	add    esp,0x4
  40118b:	ret    
	...
  401198:	mov    edi,edi
  40119a:	push   ebp
  40119b:	mov    ebp,esp
  40119d:	sub    esp,0x60
  4011a0:	push   edx
  4011a1:	mov    ebx,0x0
  4011a6:	push   ebx
  4011a7:	push   0x40303c
  4011ac:	pop    eax
  4011ad:	call   DWORD PTR cs:[eax]
  4011b0:	pop    edx
  4011b1:	push   edx
  4011b2:	push   DWORD PTR [edx+0x330]
  4011b8:	push   eax
  4011b9:	call   0x40185c
  4011be:	add    esp,0x8
  4011c1:	pop    edx
  4011c2:	push   edx
  4011c3:	lea    edi,[edx]
  4011c5:	push   edi
  4011c6:	push   0x403034
  4011cb:	pop    eax
  4011cc:	call   DWORD PTR cs:[eax]
  4011cf:	test   eax,eax
  4011d1:	jne    0x4011c3
  4011d3:	pop    edx
  4011d4:	sub    esp,0xffffffa0
  4011d7:	mov    ebp,DWORD PTR [esp]
  4011da:	add    esp,0x4
  4011dd:	ret    
  4011de:	add    BYTE PTR [eax],al
  4011e0:	add    BYTE PTR [eax],al
  4011e2:	add    BYTE PTR [eax],al
  4011e4:	mov    edi,edi
  4011e6:	push   ebp
  4011e7:	mov    ebp,esp
  4011e9:	sub    esp,0x60
  4011ec:	push   edx
  4011ed:	push   DWORD PTR [edx+0x558]
  4011f3:	push   DWORD PTR [edx+0x190]
  4011f9:	push   DWORD PTR [edx+0x74]
  4011fc:	call   0x401624
  401201:	add    esp,0xc
  401204:	pop    edx
  401205:	push   edx
  401206:	push   0x0
  401208:	push   0x403070
  40120d:	pop    eax
  40120e:	call   DWORD PTR cs:[eax]
  401211:	pop    edx
  401212:	push   edx
  401213:	push   0x403048
  401218:	pop    eax
  401219:	call   DWORD PTR cs:[eax]
  40121c:	pop    edx
  40121d:	sub    esp,0xffffffa0
  401220:	mov    ebp,DWORD PTR [esp]
  401223:	add    esp,0x4
  401226:	ret    
  401227:	add    BYTE PTR [eax],al
  401229:	add    BYTE PTR [eax],al
  40122b:	add    BYTE PTR [ebx-0x1374aa01],cl
  401231:	sub    esp,0x28
  401234:	push   edx
  401235:	push   0x0
  401237:	push   0x403040
  40123c:	pop    eax
  40123d:	call   DWORD PTR cs:[eax]
  401240:	pop    edx
  401241:	push   edx
  401242:	push   ebx
  401243:	push   edi
  401244:	push   edi
  401245:	call   0x4017d8
  40124a:	add    esp,0xc
  40124d:	pop    edx
  40124e:	push   edx
  40124f:	push   0x0
  401251:	push   0x403028
  401256:	pop    eax
  401257:	call   DWORD PTR cs:[eax]
  40125a:	pop    edx
  40125b:	sub    esp,0xffffffd8
  40125e:	mov    ebp,DWORD PTR [esp]
  401261:	add    esp,0x4
  401264:	ret    
  401265:	add    BYTE PTR [eax],al
  401267:	add    BYTE PTR [eax],al
  401269:	add    BYTE PTR [eax],al
  40126b:	add    BYTE PTR [ebx-0x1374aa01],cl
  401271:	sub    esp,0x60
  401274:	push   edx
  401275:	push   DWORD PTR [edx+0x57c]
  40127b:	push   esi
  40127c:	push   ecx
  40127d:	push   DWORD PTR [edx+0x454]
  401283:	call   0x40154c
  401288:	add    esp,0x10
  40128b:	pop    edx
  40128c:	push   edx
  40128d:	mov    ecx,0x0
  401292:	push   ecx
  401293:	push   0x403014
  401298:	pop    eax
  401299:	call   DWORD PTR cs:[eax]
  40129c:	pop    edx
  40129d:	push   edx
  40129e:	push   0x0
  4012a0:	push   0x403030
  4012a5:	pop    eax
  4012a6:	call   DWORD PTR cs:[eax]
  4012a9:	pop    edx
  4012aa:	sub    esp,0xffffffa0
  4012ad:	mov    ebp,DWORD PTR [esp]
  4012b0:	add    esp,0x4
  4012b3:	ret    
  4012b4:	mov    edi,edi
  4012b6:	push   ebp
  4012b7:	mov    ebp,esp
  4012b9:	sub    esp,0x5c
  4012bc:	push   edx
  4012bd:	push   esi
  4012be:	push   DWORD PTR [edx+0x56c]
  4012c4:	push   esi
  4012c5:	call   0x401de8
  4012ca:	add    esp,0xc
  4012cd:	pop    edx
  4012ce:	push   edx
  4012cf:	push   0x403048
  4012d4:	pop    eax
  4012d5:	call   DWORD PTR cs:[eax]
  4012d8:	pop    edx
  4012d9:	push   edx
  4012da:	mov    ecx,0x0
  4012df:	push   ecx
  4012e0:	push   0x403014
  4012e5:	pop    eax
  4012e6:	call   DWORD PTR cs:[eax]
  4012e9:	pop    edx
  4012ea:	sub    esp,0xffffffa4
  4012ed:	mov    ebp,DWORD PTR [esp]
  4012f0:	add    esp,0x4
  4012f3:	ret    
  4012f4:	add    BYTE PTR [eax],al
  4012f6:	add    BYTE PTR [eax],al
  4012f8:	mov    edi,edi
  4012fa:	push   ebp
  4012fb:	mov    ebp,esp
  4012fd:	sub    esp,0x3c
  401300:	push   edx
  401301:	push   0x6b0
  401306:	mov    edi,0x6b0
  40130b:	push   edi
  40130c:	push   0x40000
  401311:	push   0x403018
  401316:	pop    ecx
  401317:	push   DWORD PTR [ecx]
  401319:	sub    DWORD PTR [esp],0x2
  40131d:	push   0x403008
  401322:	pop    ecx
  401323:	pop    DWORD PTR [ecx]
  401325:	push   0x403008
  40132a:	pop    eax
  40132b:	call   DWORD PTR cs:[eax]
  40132e:	xchg   DWORD PTR [esp],eax
  401331:	mov    edx,eax
  401333:	pop    ecx
  401334:	mov    DWORD PTR [edx+0x31c],ecx
  40133a:	mov    eax,DWORD PTR [edx+0x31c]
  401340:	lea    ecx,[eax]
  401342:	sub    esi,esi
  401344:	dec    esi
  401345:	and    esi,0x401e95
  40134b:	mov    eax,DWORD PTR [esi]
  40134d:	mov    DWORD PTR [ecx],eax
  40134f:	add    esi,0x3
  401352:	add    ecx,0x3
  401355:	mov    eax,0x6a719112
  40135a:	xor    edi,edi
  40135c:	add    edi,0x6b0
  401362:	test   edi,edi
  401364:	je     0x401382
  401366:	add    edi,0xfffffffc
  401369:	mov    ebx,eax
  40136b:	xor    ebx,DWORD PTR [esi]
  40136d:	sub    ebx,0x1
  401370:	mov    DWORD PTR [ecx],ebx
  401372:	push   DWORD PTR [ecx]
  401374:	mov    eax,0xfffffffc
  401379:	sub    esi,eax
  40137b:	sub    ecx,eax
  40137d:	pop    eax
  40137e:	bswap  eax
  401380:	jmp    0x401362
  401382:	push   edx
  401383:	push   0x0
  401385:	push   0x40303c
  40138a:	pop    eax
  40138b:	call   DWORD PTR cs:[eax]
  40138e:	pop    edx
  40138f:	sub    esp,0xffffffc4
  401392:	pop    ebp
  401393:	ret    
  401394:	add    BYTE PTR [eax],al
  401396:	add    BYTE PTR [eax],al
  401398:	mov    edi,edi
  40139a:	push   ebp
  40139b:	mov    ebp,esp
  40139d:	sub    esp,0x5c
  4013a0:	push   edx
  4013a1:	mov    ecx,0x0
  4013a6:	push   ecx
  4013a7:	push   0x40304c
  4013ac:	pop    eax
  4013ad:	call   DWORD PTR cs:[eax]
  4013b0:	pop    edx
  4013b1:	push   edx
  4013b2:	push   DWORD PTR [edx+0x140]
  4013b8:	push   DWORD PTR [edx+0x190]
  4013be:	push   ebx
  4013bf:	call   0x401b2c
  4013c4:	add    esp,0xc
  4013c7:	pop    edx
  4013c8:	push   edx
  4013c9:	push   0x403048
  4013ce:	pop    eax
  4013cf:	call   DWORD PTR cs:[eax]
  4013d2:	pop    edx
  4013d3:	sub    esp,0xffffffa4
  4013d6:	mov    ebp,DWORD PTR [esp]
  4013d9:	add    esp,0x4
  4013dc:	ret    
  4013dd:	add    BYTE PTR [eax],al
  4013df:	add    BYTE PTR [ebx-0x1374aa01],cl
  4013e5:	sub    esp,0x50
  4013e8:	push   edx
  4013e9:	push   ecx
  4013ea:	push   eax
  4013eb:	push   DWORD PTR [edx+0x55c]
  4013f1:	call   0x401d0c
  4013f6:	add    esp,0xc
  4013f9:	pop    edx
  4013fa:	push   edx
  4013fb:	push   0x0
  4013fd:	push   0x40303c
  401402:	pop    eax
  401403:	call   DWORD PTR cs:[eax]
  401406:	pop    edx
  401407:	push   edx
  401408:	push   0x0
  40140a:	push   0x403020
  40140f:	pop    eax
  401410:	call   DWORD PTR cs:[eax]
  401413:	pop    edx
  401414:	sub    esp,0xffffffb0
  401417:	mov    ebp,DWORD PTR [esp]
  40141a:	add    esp,0x4
  40141d:	ret    
  40141e:	add    BYTE PTR [eax],al
  401420:	add    BYTE PTR [eax],al
  401422:	add    BYTE PTR [eax],al
  401424:	mov    edi,edi
  401426:	push   ebp
  401427:	mov    ebp,esp
  401429:	sub    esp,0x50
  40142c:	push   edx
  40142d:	push   0x0
  40142f:	push   0x403014
  401434:	pop    eax
  401435:	call   DWORD PTR cs:[eax]
  401438:	pop    edx
  401439:	push   edx
  40143a:	push   ecx
  40143b:	push   DWORD PTR [edx+0x57c]
  401441:	push   ecx
  401442:	push   ebx
  401443:	call   0x40126c
  401448:	add    esp,0x10
  40144b:	pop    edx
  40144c:	push   edx
  40144d:	push   0x0
  40144f:	push   0x403014
  401454:	pop    eax
  401455:	call   DWORD PTR cs:[eax]
  401458:	pop    edx
  401459:	sub    esp,0xffffffb0
  40145c:	mov    ebp,DWORD PTR [esp]
  40145f:	add    esp,0x4
  401462:	ret    
	...
  40146b:	add    BYTE PTR [ebx-0x1374aa01],cl
  401471:	sub    esp,0x40
  401474:	push   edx
  401475:	push   0x0
  401477:	push   0x403010
  40147c:	pop    eax
  40147d:	call   DWORD PTR cs:[eax]
  401480:	pop    edx
  401481:	push   edx
  401482:	push   DWORD PTR [edx+0x288]
  401488:	push   DWORD PTR [edx+0x4b0]
  40148e:	push   edi
  40148f:	call   0x4019bc
  401494:	add    esp,0xc
  401497:	pop    edx
  401498:	push   edx
  401499:	mov    ebx,0x0
  40149e:	push   ebx
  40149f:	push   0x403040
  4014a4:	pop    eax
  4014a5:	call   DWORD PTR cs:[eax]
  4014a8:	pop    edx
  4014a9:	sub    esp,0xffffffc0
  4014ac:	mov    ebp,DWORD PTR [esp]
  4014af:	add    esp,0x4
  4014b2:	ret    
  4014b3:	add    BYTE PTR [ebx],ch
  4014b5:	rol    BYTE PTR [ecx+0x47e000c2],cl
  4014bb:	add    BYTE PTR [edx+0x33],dl
  4014be:	leave  
  4014bf:	or     ecx,0x403094
  4014c5:	and    WORD PTR [ecx],0x0
  4014c9:	push   DWORD PTR [ecx]
  4014cb:	pop    eax
  4014cc:	mov    edx,eax
  4014ce:	push   0x3c
  4014d0:	add    DWORD PTR [esp],eax
  4014d3:	pop    ecx
  4014d4:	push   eax
  4014d5:	mov    edi,esp
  4014d7:	mov    esi,ecx
  4014d9:	movs   DWORD PTR es:[edi],DWORD PTR ds:[esi]
  4014da:	pop    eax
  4014db:	mov    edx,DWORD PTR [eax+edx*1+0x1c]
  4014df:	ror    edx,0x8
  4014e2:	xor    eax,eax
  4014e4:	or     al,0x80
  4014e6:	cmp    al,dl
  4014e8:	pop    edx
  4014e9:	ja     0x4014f4
  4014eb:	nop
  4014ec:	nop
  4014ed:	nop
  4014ee:	nop
  4014ef:	jmp    0x401008
  4014f4:	xor    esp,esp
  4014f6:	int    0x3
  4014f8:	mov    edi,edi
  4014fa:	push   ebp
  4014fb:	mov    ebp,esp
  4014fd:	sub    esp,0x28
  401500:	push   edx
  401501:	mov    edi,0x0
  401506:	push   edi
  401507:	push   0x403054
  40150c:	pop    eax
  40150d:	call   DWORD PTR cs:[eax]
  401510:	pop    edx
  401511:	push   edx
  401512:	push   DWORD PTR [edx+0x150]
  401518:	push   DWORD PTR [edx+0x4f4]
  40151e:	push   DWORD PTR [edx+0x574]
  401524:	call   0x40146c
  401529:	add    esp,0xc
  40152c:	pop    edx
  40152d:	push   edx
  40152e:	mov    ecx,0x0
  401533:	push   ecx
  401534:	push   0x403028
  401539:	pop    eax
  40153a:	call   DWORD PTR cs:[eax]
  40153d:	pop    edx
  40153e:	sub    esp,0xffffffd8
  401541:	mov    ebp,DWORD PTR [esp]
  401544:	add    esp,0x4
  401547:	ret    
  401548:	add    BYTE PTR [eax],al
  40154a:	add    BYTE PTR [eax],al
  40154c:	mov    edi,edi
  40154e:	push   ebp
  40154f:	mov    ebp,esp
  401551:	sub    esp,0x34
  401554:	push   edx
  401555:	push   DWORD PTR [edx+0x5d8]
  40155b:	push   ecx
  40155c:	push   esi
  40155d:	push   edi
  40155e:	call   0x40181c
  401563:	add    esp,0x10
  401566:	pop    edx
  401567:	push   edx
  401568:	mov    ebx,0x0
  40156d:	push   ebx
  40156e:	push   0x403044
  401573:	pop    eax
  401574:	call   DWORD PTR cs:[eax]
  401577:	pop    edx
  401578:	push   edx
  401579:	mov    eax,0x0
  40157e:	push   eax
  40157f:	push   0x40304c
  401584:	pop    eax
  401585:	call   DWORD PTR cs:[eax]
  401588:	pop    edx
  401589:	sub    esp,0xffffffcc
  40158c:	mov    ebp,DWORD PTR [esp]
  40158f:	add    esp,0x4
  401592:	ret    
  401593:	add    BYTE PTR [eax],al
  401595:	add    BYTE PTR [eax],al
  401597:	add    BYTE PTR [ebx-0x1374aa01],cl
  40159d:	sub    esp,0x34
  4015a0:	push   edx
  4015a1:	push   DWORD PTR [edx+0x4e8]
  4015a7:	push   eax
  4015a8:	push   DWORD PTR [edx+0x448]
  4015ae:	call   0x401150
  4015b3:	add    esp,0xc
  4015b6:	pop    edx
  4015b7:	push   edx
  4015b8:	push   0x40300c
  4015bd:	pop    eax
  4015be:	call   DWORD PTR cs:[eax]
  4015c1:	pop    edx
  4015c2:	push   edx
  4015c3:	mov    ecx,0x0
  4015c8:	push   ecx
  4015c9:	push   0x40304c
  4015ce:	pop    eax
  4015cf:	call   DWORD PTR cs:[eax]
  4015d2:	pop    edx
  4015d3:	sub    esp,0xffffffcc
  4015d6:	mov    ebp,DWORD PTR [esp]
  4015d9:	add    esp,0x4
  4015dc:	ret    
	...
  4015e5:	add    BYTE PTR [eax],al
  4015e7:	add    BYTE PTR [ebx-0x1374aa01],cl
  4015ed:	sub    esp,0x54
  4015f0:	push   edx
  4015f1:	push   DWORD PTR [edx+0x14]
  4015f4:	push   esi
  4015f5:	push   ecx
  4015f6:	call   0x40110c
  4015fb:	add    esp,0xc
  4015fe:	pop    edx
  4015ff:	push   edx
  401600:	push   0x0
  401602:	push   0x403068
  401607:	pop    eax
  401608:	call   DWORD PTR cs:[eax]
  40160b:	pop    edx
  40160c:	push   edx
  40160d:	push   0x0
  40160f:	push   0x403020
  401614:	pop    eax
  401615:	call   DWORD PTR cs:[eax]
  401618:	pop    edx
  401619:	sub    esp,0xffffffac
  40161c:	mov    ebp,DWORD PTR [esp]
  40161f:	add    esp,0x4
  401622:	ret    
  401623:	add    BYTE PTR [ebx-0x1374aa01],cl
  401629:	sub    esp,0x5c
  40162c:	push   edx
  40162d:	push   ecx
  40162e:	push   DWORD PTR [edx+0x154]
  401634:	push   DWORD PTR [edx+0xb4]
  40163a:	push   DWORD PTR [edx+0x594]
  401640:	call   0x4013e0
  401645:	add    esp,0x10
  401648:	pop    edx
  401649:	push   edx
  40164a:	push   0x0
  40164c:	push   0x403014
  401651:	pop    eax
  401652:	call   DWORD PTR cs:[eax]
  401655:	pop    edx
  401656:	push   edx
  401657:	mov    esi,0x0
  40165c:	push   esi
  40165d:	push   0x403040
  401662:	pop    eax
  401663:	call   DWORD PTR cs:[eax]
  401666:	pop    edx
  401667:	sub    esp,0xffffffa4
  40166a:	mov    ebp,DWORD PTR [esp]
  40166d:	add    esp,0x4
  401670:	ret    
  401671:	add    BYTE PTR [eax],al
  401673:	add    BYTE PTR [ebx-0x1374aa01],cl
  401679:	sub    esp,0x30
  40167c:	push   edx
  40167d:	push   esi
  40167e:	push   eax
  40167f:	push   DWORD PTR [edx+0x24]
  401682:	push   edi
  401683:	call   0x401a58
  401688:	add    esp,0x10
  40168b:	pop    edx
  40168c:	push   edx
  40168d:	mov    eax,0x0
  401692:	push   eax
  401693:	push   0x403014
  401698:	pop    eax
  401699:	call   DWORD PTR cs:[eax]
  40169c:	pop    edx
  40169d:	push   edx
  40169e:	mov    ebx,0x0
  4016a3:	push   ebx
  4016a4:	push   0x403030
  4016a9:	pop    eax
  4016aa:	call   DWORD PTR cs:[eax]
  4016ad:	pop    edx
  4016ae:	sub    esp,0xffffffd0
  4016b1:	mov    ebp,DWORD PTR [esp]
  4016b4:	add    esp,0x4
  4016b7:	ret    
  4016b8:	mov    edi,edi
  4016ba:	push   ebp
  4016bb:	mov    ebp,esp
  4016bd:	sub    esp,0x60
  4016c0:	push   edx
  4016c1:	push   0x0
  4016c3:	push   0x403030
  4016c8:	pop    eax
  4016c9:	call   DWORD PTR cs:[eax]
  4016cc:	pop    edx
  4016cd:	push   edx
  4016ce:	push   eax
  4016cf:	push   edi
  4016d0:	push   DWORD PTR [edx+0x204]
  4016d6:	call   0x401598
  4016db:	add    esp,0xc
  4016de:	pop    edx
  4016df:	push   edx
  4016e0:	mov    ebx,0x0
  4016e5:	push   ebx
  4016e6:	push   0x403014
  4016eb:	pop    eax
  4016ec:	call   DWORD PTR cs:[eax]
  4016ef:	pop    edx
  4016f0:	sub    esp,0xffffffa0
  4016f3:	mov    ebp,DWORD PTR [esp]
  4016f6:	add    esp,0x4
  4016f9:	ret    
  4016fa:	add    BYTE PTR [eax],al
  4016fc:	mov    edi,edi
  4016fe:	push   ebp
  4016ff:	mov    ebp,esp
  401701:	sub    esp,0x50
  401704:	push   edx
  401705:	mov    esi,0x0
  40170a:	push   esi
  40170b:	push   0x403020
  401710:	pop    eax
  401711:	call   DWORD PTR cs:[eax]
  401714:	pop    edx
  401715:	push   edx
  401716:	push   esi
  401717:	push   DWORD PTR [edx+0x5b4]
  40171d:	call   0x401c38
  401722:	add    esp,0x8
  401725:	pop    edx
  401726:	push   edx
  401727:	push   0x40300c
  40172c:	pop    eax
  40172d:	call   DWORD PTR cs:[eax]
  401730:	pop    edx
  401731:	sub    esp,0xffffffb0
  401734:	mov    ebp,DWORD PTR [esp]
  401737:	add    esp,0x4
  40173a:	ret    
  40173b:	add    BYTE PTR [ebx-0x1374aa01],cl
  401741:	sub    esp,0x60
  401744:	push   edx
  401745:	push   DWORD PTR [edx+0x1fc]
  40174b:	push   eax
  40174c:	call   0x401010
  401751:	add    esp,0x8
  401754:	pop    edx
  401755:	push   edx
  401756:	mov    ebx,0x0
  40175b:	push   ebx
  40175c:	push   0x403020
  401761:	pop    eax
  401762:	call   DWORD PTR cs:[eax]
  401765:	pop    edx
  401766:	push   edx
  401767:	mov    edi,0x0
  40176c:	push   edi
  40176d:	push   0x403030
  401772:	pop    eax
  401773:	call   DWORD PTR cs:[eax]
  401776:	pop    edx
  401777:	sub    esp,0xffffffa0
  40177a:	mov    ebp,DWORD PTR [esp]
  40177d:	add    esp,0x4
  401780:	ret    
  401781:	add    BYTE PTR [eax],al
  401783:	add    BYTE PTR [eax],al
  401785:	add    BYTE PTR [eax],al
  401787:	add    BYTE PTR [ebx-0x1374aa01],cl
  40178d:	sub    esp,0x1c
  401790:	push   edx
  401791:	push   esi
  401792:	push   edi
  401793:	push   esi
  401794:	push   DWORD PTR [edx+0x310]
  40179a:	call   0x401bf0
  40179f:	add    esp,0x10
  4017a2:	pop    edx
  4017a3:	push   edx
  4017a4:	mov    ecx,0x0
  4017a9:	push   ecx
  4017aa:	push   0x403030
  4017af:	pop    eax
  4017b0:	call   DWORD PTR cs:[eax]
  4017b3:	pop    edx
  4017b4:	push   edx
  4017b5:	push   0x0
  4017b7:	push   0x403054
  4017bc:	pop    eax
  4017bd:	call   DWORD PTR cs:[eax]
  4017c0:	pop    edx
  4017c1:	sub    esp,0xffffffe4
  4017c4:	mov    ebp,DWORD PTR [esp]
  4017c7:	add    esp,0x4
  4017ca:	ret    
	...
  4017d7:	add    BYTE PTR [ebx-0x1374aa01],cl
  4017dd:	sub    esp,0x34
  4017e0:	push   edx
  4017e1:	push   0x40300c
  4017e6:	pop    eax
  4017e7:	call   DWORD PTR cs:[eax]
  4017ea:	pop    edx
  4017eb:	push   edx
  4017ec:	push   DWORD PTR [edx+0x190]
  4017f2:	push   esi
  4017f3:	call   0x401894
  4017f8:	add    esp,0x8
  4017fb:	pop    edx
  4017fc:	push   edx
  4017fd:	lea    eax,[edx]
  4017ff:	push   eax
  401800:	push   0x403034
  401805:	pop    eax
  401806:	call   DWORD PTR cs:[eax]
  401809:	test   eax,eax
  40180b:	jne    0x4017fd
  40180d:	pop    edx
  40180e:	sub    esp,0xffffffcc
  401811:	mov    ebp,DWORD PTR [esp]
  401814:	add    esp,0x4
  401817:	ret    
  401818:	add    BYTE PTR [eax],al
  40181a:	add    BYTE PTR [eax],al
  40181c:	mov    edi,edi
  40181e:	push   ebp
  40181f:	mov    ebp,esp
  401821:	sub    esp,0x28
  401824:	push   edx
  401825:	push   0x0
  401827:	push   0x403020
  40182c:	pop    eax
  40182d:	call   DWORD PTR cs:[eax]
  401830:	pop    edx
  401831:	push   edx
  401832:	push   eax
  401833:	push   DWORD PTR [edx+0x2f0]
  401839:	push   edi
  40183a:	call   0x401d5c
  40183f:	add    esp,0xc
  401842:	pop    edx
  401843:	push   edx
  401844:	push   0x40300c
  401849:	pop    eax
  40184a:	call   DWORD PTR cs:[eax]
  40184d:	pop    edx
  40184e:	sub    esp,0xffffffd8
  401851:	mov    ebp,DWORD PTR [esp]
  401854:	add    esp,0x4
  401857:	ret    
  401858:	add    BYTE PTR [eax],al
  40185a:	add    BYTE PTR [eax],al
  40185c:	mov    edi,edi
  40185e:	push   ebp
  40185f:	mov    ebp,esp
  401861:	sub    esp,0x20
  401864:	push   edx
  401865:	push   esi
  401866:	push   ebx
  401867:	push   esi
  401868:	push   eax
  401869:	call   0x40173c
  40186e:	add    esp,0x10
  401871:	pop    edx
  401872:	push   edx
  401873:	push   0x403048
  401878:	pop    eax
  401879:	call   DWORD PTR cs:[eax]
  40187c:	pop    edx
  40187d:	push   edx
  40187e:	push   0x40300c
  401883:	pop    eax
  401884:	call   DWORD PTR cs:[eax]
  401887:	pop    edx
  401888:	sub    esp,0xffffffe0
  40188b:	mov    ebp,DWORD PTR [esp]
  40188e:	add    esp,0x4
  401891:	ret    
  401892:	add    BYTE PTR [eax],al
  401894:	mov    edi,edi
  401896:	push   ebp
  401897:	mov    ebp,esp
  401899:	sub    esp,0x28
  40189c:	push   edx
  40189d:	push   0x0
  40189f:	push   0x40304c
  4018a4:	pop    eax
  4018a5:	call   DWORD PTR cs:[eax]
  4018a8:	pop    edx
  4018a9:	push   edx
  4018aa:	push   ecx
  4018ab:	push   DWORD PTR [edx+0x4ec]
  4018b1:	call   0x401198
  4018b6:	add    esp,0x8
  4018b9:	pop    edx
  4018ba:	push   edx
  4018bb:	lea    esi,[edx]
  4018bd:	push   esi
  4018be:	push   0x403034
  4018c3:	pop    eax
  4018c4:	call   DWORD PTR cs:[eax]
  4018c7:	test   eax,eax
  4018c9:	jne    0x4018bb
  4018cb:	pop    edx
  4018cc:	sub    esp,0xffffffd8
  4018cf:	mov    ebp,DWORD PTR [esp]
  4018d2:	add    esp,0x4
  4018d5:	ret    
  4018d6:	add    BYTE PTR [eax],al
  4018d8:	mov    edi,edi
  4018da:	push   ebp
  4018db:	mov    ebp,esp
  4018dd:	sub    esp,0x3c
  4018e0:	push   edx
  4018e1:	mov    edi,0x0
  4018e6:	push   edi
  4018e7:	push   0x403028
  4018ec:	pop    eax
  4018ed:	call   DWORD PTR cs:[eax]
  4018f0:	pop    edx
  4018f1:	push   edx
  4018f2:	push   DWORD PTR [edx+0x1b4]
  4018f8:	push   edi
  4018f9:	call   0x401bac
  4018fe:	add    esp,0x8
  401901:	pop    edx
  401902:	push   edx
  401903:	mov    edi,0x0
  401908:	push   edi
  401909:	push   0x403030
  40190e:	pop    eax
  40190f:	call   DWORD PTR cs:[eax]
  401912:	pop    edx
  401913:	sub    esp,0xffffffc4
  401916:	mov    ebp,DWORD PTR [esp]
  401919:	add    esp,0x4
  40191c:	ret    
	...
  401931:	add    BYTE PTR [eax],al
  401933:	add    BYTE PTR [ebx-0x1374aa01],cl
  401939:	sub    esp,0x5c
  40193c:	push   edx
  40193d:	push   esi
  40193e:	push   DWORD PTR [edx+0x54]
  401941:	push   DWORD PTR [edx+0x94]
  401947:	call   0x401a0c
  40194c:	add    esp,0xc
  40194f:	pop    edx
  401950:	push   edx
  401951:	push   0x403048
  401956:	pop    eax
  401957:	call   DWORD PTR cs:[eax]
  40195a:	pop    edx
  40195b:	push   edx
  40195c:	mov    edx,0x0
  401961:	push   edx
  401962:	push   0x403070
  401967:	pop    eax
  401968:	call   DWORD PTR cs:[eax]
  40196b:	pop    edx
  40196c:	sub    esp,0xffffffa4
  40196f:	mov    ebp,DWORD PTR [esp]
  401972:	add    esp,0x4
  401975:	ret    
  401976:	add    BYTE PTR [eax],al
  401978:	add    BYTE PTR [eax],al
  40197a:	add    BYTE PTR [eax],al
  40197c:	mov    edi,edi
  40197e:	push   ebp
  40197f:	mov    ebp,esp
  401981:	sub    esp,0x40
  401984:	push   edx
  401985:	push   DWORD PTR [edx+0x484]
  40198b:	push   DWORD PTR [edx+0x3ac]
  401991:	call   0x401c7c
  401996:	add    esp,0x8
  401999:	pop    edx
  40199a:	push   edx
  40199b:	push   0x403048
  4019a0:	pop    eax
  4019a1:	call   DWORD PTR cs:[eax]
  4019a4:	pop    edx
  4019a5:	push   edx
  4019a6:	push   0x0
  4019a8:	push   0x403030
  4019ad:	pop    eax
  4019ae:	call   DWORD PTR cs:[eax]
  4019b1:	pop    edx
  4019b2:	sub    esp,0xffffffc0
  4019b5:	mov    ebp,DWORD PTR [esp]
  4019b8:	add    esp,0x4
  4019bb:	ret    
  4019bc:	mov    edi,edi
  4019be:	push   ebp
  4019bf:	mov    ebp,esp
  4019c1:	sub    esp,0x40
  4019c4:	push   edx
  4019c5:	mov    edx,0x0
  4019ca:	push   edx
  4019cb:	push   0x403040
  4019d0:	pop    eax
  4019d1:	call   DWORD PTR cs:[eax]
  4019d4:	pop    edx
  4019d5:	push   edx
  4019d6:	push   DWORD PTR [edx+0x45c]
  4019dc:	push   ecx
  4019dd:	push   DWORD PTR [edx+0x188]
  4019e3:	call   0x4011e4
  4019e8:	add    esp,0xc
  4019eb:	pop    edx
  4019ec:	push   edx
  4019ed:	mov    edx,0x0
  4019f2:	push   edx
  4019f3:	push   0x403040
  4019f8:	pop    eax
  4019f9:	call   DWORD PTR cs:[eax]
  4019fc:	pop    edx
  4019fd:	sub    esp,0xffffffc0
  401a00:	mov    ebp,DWORD PTR [esp]
  401a03:	add    esp,0x4
  401a06:	ret    
  401a07:	add    BYTE PTR [eax],al
  401a09:	add    BYTE PTR [eax],al
  401a0b:	add    BYTE PTR [ebx-0x1374aa01],cl
  401a11:	sub    esp,0x30
  401a14:	push   edx
  401a15:	push   DWORD PTR [edx+0x51c]
  401a1b:	push   DWORD PTR [edx+0x1fc]
  401a21:	push   ecx
  401a22:	call   0x401ae8
  401a27:	add    esp,0xc
  401a2a:	pop    edx
  401a2b:	push   edx
  401a2c:	lea    ecx,[edx]
  401a2e:	push   ecx
  401a2f:	push   0x403034
  401a34:	pop    eax
  401a35:	call   DWORD PTR cs:[eax]
  401a38:	test   eax,eax
  401a3a:	jne    0x401a2c
  401a3c:	pop    edx
  401a3d:	push   edx
  401a3e:	mov    ecx,0x0
  401a43:	push   ecx
  401a44:	push   0x403040
  401a49:	pop    eax
  401a4a:	call   DWORD PTR cs:[eax]
  401a4d:	pop    edx
  401a4e:	sub    esp,0xffffffd0
  401a51:	mov    ebp,DWORD PTR [esp]
  401a54:	add    esp,0x4
  401a57:	ret    
  401a58:	mov    edi,edi
  401a5a:	push   ebp
  401a5b:	mov    ebp,esp
  401a5d:	sub    esp,0x3c
  401a60:	push   edx
  401a61:	mov    ebx,0x0
  401a66:	push   ebx
  401a67:	push   0x40304c
  401a6c:	pop    eax
  401a6d:	call   DWORD PTR cs:[eax]
  401a70:	pop    edx
  401a71:	push   edx
  401a72:	push   DWORD PTR [edx+0x390]
  401a78:	push   ecx
  401a79:	push   DWORD PTR [edx+0x94]
  401a7f:	call   0x401cc8
  401a84:	add    esp,0xc
  401a87:	pop    edx
  401a88:	push   edx
  401a89:	push   0x40300c
  401a8e:	pop    eax
  401a8f:	call   DWORD PTR cs:[eax]
  401a92:	pop    edx
  401a93:	sub    esp,0xffffffc4
  401a96:	mov    ebp,DWORD PTR [esp]
  401a99:	add    esp,0x4
  401a9c:	ret    
  401a9d:	add    BYTE PTR [eax],al
  401a9f:	add    BYTE PTR [eax],al
  401aa1:	add    BYTE PTR [eax],al
  401aa3:	add    BYTE PTR [ebx-0x1374aa01],cl
  401aa9:	sub    esp,0x3c
  401aac:	push   edx
  401aad:	push   eax
  401aae:	push   ecx
  401aaf:	push   eax
  401ab0:	push   ebx
  401ab1:	call   0x4010c0
  401ab6:	add    esp,0x10
  401ab9:	pop    edx
  401aba:	push   edx
  401abb:	mov    ecx,0x0
  401ac0:	push   ecx
  401ac1:	push   0x403070
  401ac6:	pop    eax
  401ac7:	call   DWORD PTR cs:[eax]
  401aca:	pop    edx
  401acb:	push   edx
  401acc:	mov    ecx,0x0
  401ad1:	push   ecx
  401ad2:	push   0x403068
  401ad7:	pop    eax
  401ad8:	call   DWORD PTR cs:[eax]
  401adb:	pop    edx
  401adc:	sub    esp,0xffffffc4
  401adf:	mov    ebp,DWORD PTR [esp]
  401ae2:	add    esp,0x4
  401ae5:	ret    
  401ae6:	add    BYTE PTR [eax],al
  401ae8:	mov    edi,edi
  401aea:	push   ebp
  401aeb:	mov    ebp,esp
  401aed:	sub    esp,0x5c
  401af0:	push   edx
  401af1:	push   0x0
  401af3:	push   0x403028
  401af8:	pop    eax
  401af9:	call   DWORD PTR cs:[eax]
  401afc:	pop    edx
  401afd:	push   edx
  401afe:	push   eax
  401aff:	push   edi
  401b00:	push   DWORD PTR [edx+0x53c]
  401b06:	push   ecx
  401b07:	call   0x40197c
  401b0c:	add    esp,0x10
  401b0f:	pop    edx
  401b10:	push   edx
  401b11:	mov    ecx,0x0
  401b16:	push   ecx
  401b17:	push   0x40303c
  401b1c:	pop    eax
  401b1d:	call   DWORD PTR cs:[eax]
  401b20:	pop    edx
  401b21:	sub    esp,0xffffffa4
  401b24:	mov    ebp,DWORD PTR [esp]
  401b27:	add    esp,0x4
  401b2a:	ret    
  401b2b:	add    BYTE PTR [ebx-0x1374aa01],cl
  401b31:	sub    esp,0x24
  401b34:	push   edx
  401b35:	push   ecx
  401b36:	push   DWORD PTR [edx+0xec]
  401b3c:	call   0x401aa4
  401b41:	add    esp,0x8
  401b44:	pop    edx
  401b45:	push   edx
  401b46:	push   0x0
  401b48:	push   0x403020
  401b4d:	pop    eax
  401b4e:	call   DWORD PTR cs:[eax]
  401b51:	pop    edx
  401b52:	push   edx
  401b53:	lea    edx,[edx]
  401b55:	push   edx
  401b56:	push   0x403034
  401b5b:	pop    eax
  401b5c:	call   DWORD PTR cs:[eax]
  401b5f:	test   eax,eax
  401b61:	jne    0x401b53
  401b63:	pop    edx
  401b64:	sub    esp,0xffffffdc
  401b67:	mov    ebp,DWORD PTR [esp]
  401b6a:	add    esp,0x4
  401b6d:	ret    
  401b6e:	add    BYTE PTR [eax],al
  401b70:	mov    edi,edi
  401b72:	push   ebp
  401b73:	mov    ebp,esp
  401b75:	sub    esp,0x50
  401b78:	push   edx
  401b79:	push   ebx
  401b7a:	push   esi
  401b7b:	push   DWORD PTR [edx+0x350]
  401b81:	call   0x4012f8
  401b86:	add    esp,0xc
  401b89:	pop    edx
  401b8a:	push   edx
  401b8b:	push   0x0
  401b8d:	push   0x403020
  401b92:	pop    eax
  401b93:	call   DWORD PTR cs:[eax]
  401b96:	pop    edx
  401b97:	push   edx
  401b98:	push   0x40300c
  401b9d:	pop    eax
  401b9e:	call   DWORD PTR cs:[eax]
  401ba1:	pop    edx
  401ba2:	sub    esp,0xffffffb0
  401ba5:	mov    ebp,DWORD PTR [esp]
  401ba8:	add    esp,0x4
  401bab:	ret    
  401bac:	mov    edi,edi
  401bae:	push   ebp
  401baf:	mov    ebp,esp
  401bb1:	sub    esp,0x48
  401bb4:	push   edx
  401bb5:	push   0x40300c
  401bba:	pop    eax
  401bbb:	call   DWORD PTR cs:[eax]
  401bbe:	pop    edx
  401bbf:	push   edx
  401bc0:	push   DWORD PTR [edx+0x21c]
  401bc6:	push   DWORD PTR [edx+0x1ec]
  401bcc:	call   0x401424
  401bd1:	add    esp,0x8
  401bd4:	pop    edx
  401bd5:	push   edx
  401bd6:	push   0x0
  401bd8:	push   0x403054
  401bdd:	pop    eax
  401bde:	call   DWORD PTR cs:[eax]
  401be1:	pop    edx
  401be2:	sub    esp,0xffffffb8
  401be5:	mov    ebp,DWORD PTR [esp]
  401be8:	add    esp,0x4
  401beb:	ret    
  401bec:	add    BYTE PTR [eax],al
  401bee:	add    BYTE PTR [eax],al
  401bf0:	mov    edi,edi
  401bf2:	push   ebp
  401bf3:	mov    ebp,esp
  401bf5:	sub    esp,0x4c
  401bf8:	push   edx
  401bf9:	push   DWORD PTR [edx+0x23c]
  401bff:	push   edi
  401c00:	push   DWORD PTR [edx+0x4a8]
  401c06:	call   0x40122c
  401c0b:	add    esp,0xc
  401c0e:	pop    edx
  401c0f:	push   edx
  401c10:	push   0x0
  401c12:	push   0x403044
  401c17:	pop    eax
  401c18:	call   DWORD PTR cs:[eax]
  401c1b:	pop    edx
  401c1c:	push   edx
  401c1d:	push   0x0
  401c1f:	push   0x403044
  401c24:	pop    eax
  401c25:	call   DWORD PTR cs:[eax]
  401c28:	pop    edx
  401c29:	sub    esp,0xffffffb4
  401c2c:	mov    ebp,DWORD PTR [esp]
  401c2f:	add    esp,0x4
  401c32:	ret    
  401c33:	add    BYTE PTR [eax],al
  401c35:	add    BYTE PTR [eax],al
  401c37:	add    BYTE PTR [ebx-0x1374aa01],cl
  401c3d:	sub    esp,0x44
  401c40:	push   edx
  401c41:	push   0x0
  401c43:	push   0x403014
  401c48:	pop    eax
  401c49:	call   DWORD PTR cs:[eax]
  401c4c:	pop    edx
  401c4d:	push   edx
  401c4e:	push   eax
  401c4f:	push   DWORD PTR [edx+0xb0]
  401c55:	push   DWORD PTR [edx+0x540]
  401c5b:	call   0x401934
  401c60:	add    esp,0xc
  401c63:	pop    edx
  401c64:	push   edx
  401c65:	push   0x403048
  401c6a:	pop    eax
  401c6b:	call   DWORD PTR cs:[eax]
  401c6e:	pop    edx
  401c6f:	sub    esp,0xffffffbc
  401c72:	mov    ebp,DWORD PTR [esp]
  401c75:	add    esp,0x4
  401c78:	ret    
  401c79:	add    BYTE PTR [eax],al
  401c7b:	add    BYTE PTR [ebx-0x1374aa01],cl
  401c81:	sub    esp,0x24
  401c84:	push   edx
  401c85:	mov    edi,0x0
  401c8a:	push   edi
  401c8b:	push   0x403030
  401c90:	pop    eax
  401c91:	call   DWORD PTR cs:[eax]
  401c94:	pop    edx
  401c95:	push   edx
  401c96:	push   DWORD PTR [edx+0x360]
  401c9c:	push   DWORD PTR [edx+0x270]
  401ca2:	call   0x4015e8
  401ca7:	add    esp,0x8
  401caa:	pop    edx
  401cab:	push   edx
  401cac:	push   0x0
  401cae:	push   0x403044
  401cb3:	pop    eax
  401cb4:	call   DWORD PTR cs:[eax]
  401cb7:	pop    edx
  401cb8:	sub    esp,0xffffffdc
  401cbb:	mov    ebp,DWORD PTR [esp]
  401cbe:	add    esp,0x4
  401cc1:	ret    
  401cc2:	add    BYTE PTR [eax],al
  401cc4:	add    BYTE PTR [eax],al
  401cc6:	add    BYTE PTR [eax],al
  401cc8:	mov    edi,edi
  401cca:	push   ebp
  401ccb:	mov    ebp,esp
  401ccd:	sub    esp,0x50
  401cd0:	push   edx
  401cd1:	push   0x0
  401cd3:	push   0x403020
  401cd8:	pop    eax
  401cd9:	call   DWORD PTR cs:[eax]
  401cdc:	pop    edx
  401cdd:	push   edx
  401cde:	push   DWORD PTR [edx+0x510]
  401ce4:	push   edi
  401ce5:	push   DWORD PTR [edx+0x90]
  401ceb:	call   0x4012b4
  401cf0:	add    esp,0xc
  401cf3:	pop    edx
  401cf4:	push   edx
  401cf5:	push   0x0
  401cf7:	push   0x403070
  401cfc:	pop    eax
  401cfd:	call   DWORD PTR cs:[eax]
  401d00:	pop    edx
  401d01:	sub    esp,0xffffffb0
  401d04:	mov    ebp,DWORD PTR [esp]
  401d07:	add    esp,0x4
  401d0a:	ret    
  401d0b:	add    BYTE PTR [ebx-0x1374aa01],cl
  401d11:	sub    esp,0x40
  401d14:	push   edx
  401d15:	push   ebx
  401d16:	push   DWORD PTR [edx+0x258]
  401d1c:	push   DWORD PTR [edx+0xa4]
  401d22:	call   0x401e2c
  401d27:	add    esp,0xc
  401d2a:	pop    edx
  401d2b:	push   edx
  401d2c:	mov    edx,0x0
  401d31:	push   edx
  401d32:	push   0x403044
  401d37:	pop    eax
  401d38:	call   DWORD PTR cs:[eax]
  401d3b:	pop    edx
  401d3c:	push   edx
  401d3d:	mov    ebx,0x0
  401d42:	push   ebx
  401d43:	push   0x403040
  401d48:	pop    eax
  401d49:	call   DWORD PTR cs:[eax]
  401d4c:	pop    edx
  401d4d:	sub    esp,0xffffffc0
  401d50:	mov    ebp,DWORD PTR [esp]
  401d53:	add    esp,0x4
  401d56:	ret    
  401d57:	add    BYTE PTR [eax],al
  401d59:	add    BYTE PTR [eax],al
  401d5b:	add    BYTE PTR [ebx-0x1374aa01],cl
  401d61:	sub    esp,0x4c
  401d64:	push   edx
  401d65:	mov    eax,0x0
  401d6a:	push   eax
  401d6b:	push   0x403030
  401d70:	pop    eax
  401d71:	call   DWORD PTR cs:[eax]
  401d74:	pop    edx
  401d75:	push   edx
  401d76:	push   ecx
  401d77:	push   ebx
  401d78:	call   0x401674
  401d7d:	add    esp,0x8
  401d80:	pop    edx
  401d81:	push   edx
  401d82:	mov    edi,0x0
  401d87:	push   edi
  401d88:	push   0x403014
  401d8d:	pop    eax
  401d8e:	call   DWORD PTR cs:[eax]
  401d91:	pop    edx
  401d92:	sub    esp,0xffffffb4
  401d95:	mov    ebp,DWORD PTR [esp]
  401d98:	add    esp,0x4
  401d9b:	ret    
  401d9c:	add    BYTE PTR [eax],al
  401d9e:	add    BYTE PTR [eax],al
  401da0:	mov    edi,edi
  401da2:	push   ebp
  401da3:	mov    ebp,esp
  401da5:	sub    esp,0x34
  401da8:	push   edx
  401da9:	mov    eax,0x0
  401dae:	push   eax
  401daf:	push   0x403014
  401db4:	pop    eax
  401db5:	call   DWORD PTR cs:[eax]
  401db8:	pop    edx
  401db9:	push   edx
  401dba:	push   DWORD PTR [edx+0x4d8]
  401dc0:	push   edi
  401dc1:	push   eax
  401dc2:	push   DWORD PTR [edx+0x4b4]
  401dc8:	call   0x4018d8
  401dcd:	add    esp,0x10
  401dd0:	pop    edx
  401dd1:	push   edx
  401dd2:	push   0x403048
  401dd7:	pop    eax
  401dd8:	call   DWORD PTR cs:[eax]
  401ddb:	pop    edx
  401ddc:	sub    esp,0xffffffcc
  401ddf:	mov    ebp,DWORD PTR [esp]
  401de2:	add    esp,0x4
  401de5:	ret    
  401de6:	add    BYTE PTR [eax],al
  401de8:	mov    edi,edi
  401dea:	push   ebp
  401deb:	mov    ebp,esp
  401ded:	sub    esp,0x40
  401df0:	push   edx
  401df1:	push   0x0
  401df3:	push   0x403070
  401df8:	pop    eax
  401df9:	call   DWORD PTR cs:[eax]
  401dfc:	pop    edx
  401dfd:	push   edx
  401dfe:	push   esi
  401dff:	push   edi
  401e00:	call   0x4016fc
  401e05:	add    esp,0x8
  401e08:	pop    edx
  401e09:	push   edx
  401e0a:	lea    eax,[edx]
  401e0c:	push   eax
  401e0d:	push   0x403034
  401e12:	pop    eax
  401e13:	call   DWORD PTR cs:[eax]
  401e16:	test   eax,eax
  401e18:	jne    0x401e0a
  401e1a:	pop    edx
  401e1b:	sub    esp,0xffffffc0
  401e1e:	mov    ebp,DWORD PTR [esp]
  401e21:	add    esp,0x4
  401e24:	ret    
  401e25:	add    BYTE PTR [eax],al
  401e27:	add    BYTE PTR [eax],al
  401e29:	add    BYTE PTR [eax],al
  401e2b:	add    BYTE PTR [ebx-0x1374aa01],cl
  401e31:	sub    esp,0x54
  401e34:	push   edx
  401e35:	push   DWORD PTR [edx+0x514]
  401e3b:	push   DWORD PTR [edx+0xa4]
  401e41:	call   0x401398
  401e46:	add    esp,0x8
  401e49:	pop    edx
  401e4a:	push   edx
  401e4b:	push   0x0
  401e4d:	push   0x403030
  401e52:	pop    eax
  401e53:	call   DWORD PTR cs:[eax]
  401e56:	pop    edx
  401e57:	push   edx
  401e58:	mov    esi,0x0
  401e5d:	push   esi
  401e5e:	push   0x403070
  401e63:	pop    eax
  401e64:	call   DWORD PTR cs:[eax]
  401e67:	pop    edx
  401e68:	sub    esp,0xffffffac
  401e6b:	mov    ebp,DWORD PTR [esp]
  401e6e:	add    esp,0x4
  401e71:	ret    
	...
  401e7a:	add    BYTE PTR [eax],al
  401e7c:	leave  
  401e7d:	pop    ebx
  401e7e:	xchg   ebx,eax
  401e7f:	jb     0x401e48
  401e81:	shl    BYTE PTR [esi-0x59],cl
  401e84:	cmp    DWORD PTR [eax],edx
  401e86:	mov    ecx,0xdd329956
  401e8b:	sub    dl,cl
  401e8d:	and    BYTE PTR ds:[esi-0x18186246],dl
  401e94:	ja     0x401ea5
  401e96:	enter  0xeffd,0x9e
  401e9a:	mov    ecx,0xc7c70097
  401e9f:	add    DWORD PTR [eax],eax
  401ea1:	mov    edi,0xc6e30001
  401ea7:	jg     0x401eea
  401ea9:	retf   0xa27e
  401eac:	mov    ebp,0x310580a8
  401eb1:	imul   esi,eax,0xffffffe2
  401eb4:	add    DWORD PTR ds:0x251691a3,ecx
  401eba:	gs ins BYTE PTR es:[edi],dx
  401ebc:	pop    eax
  401ebd:	push   edi
  401ebe:	inc    eax
  401ebf:	push   ss
  401ec0:	or     DWORD PTR [edx+0x32],eax
  401ec3:	imul   ecx,DWORD PTR [ecx],0xffffffff
  401ec6:	mov    edx,0xbcd552e7
  401ecb:	ins    BYTE PTR es:[edi],dx
  401ecc:	mov    esi,0x81d8533b
  401ed1:	push   esp
  401ed2:	js     0x401ecb
  401ed4:	pop    edx
  401ed5:	call   0xf444a4ca
  401eda:	mov    ch,0xa0
  401edc:	jge    0x401ec2
  401ede:	adc    BYTE PTR [eax],al
  401ee0:	add    DWORD PTR [eax],edx
  401ee2:	adc    al,0x1d
  401ee4:	sbb    ebp,DWORD PTR [edi+0x468a0000]
  401eea:	(bad)  
  401eeb:	adc    BYTE PTR [esi+edx*4],dl
  401eee:	and    eax,0x60f2ae1
  401ef3:	call   0x3110:0x20092406
  401efa:	sbb    edx,DWORD PTR [edi+0x76dd5ba9]
  401f00:	ins    DWORD PTR es:[edi],dx
  401f01:	mov    DWORD PTR [eax+0x13],esp
  401f04:	xor    eax,0x2102650d
  401f09:	add    BYTE PTR [edx+eax*1],al
  401f0c:	and    eax,0x5c1d9a32
  401f11:	jbe    0x401f28
  401f13:	push   eax
  401f14:	add    BYTE PTR [edx+0x702b6291],0xc4
  401f1b:	xchg   ebx,eax
  401f1c:	adc    DWORD PTR [eax],eax
  401f1e:	add    al,ah
  401f20:	cmps   DWORD PTR ds:[esi],DWORD PTR es:[edi]
  401f21:	push   0xff6b6a00
  401f26:	push   ebp
  401f27:	push   ss
  401f28:	pushf  
  401f29:	lods   eax,DWORD PTR ds:[esi]
  401f2a:	cli    
  401f2b:	cdq    
  401f2c:	cwde   
  401f2d:	add    eax,0xb5dedbf8
  401f32:	aam    0xf9
  401f34:	stc    
  401f35:	aam    0xf
  401f37:	sub    eax,0xcffb9a7
  401f3c:	push   esi
  401f3d:	ret    
  401f3e:	call   0xc428acd0
  401f43:	stc    
  401f44:	add    al,BYTE PTR [edi-0x238cdecc]
  401f4a:	jl     0x401fa6
  401f4c:	add    eax,0x3f6f00fb
  401f51:	call   0x6ab2aa56
  401f56:	add    BYTE PTR [edi+0x6b],ch
  401f59:	call   FWORD PTR [edi]
  401f5b:	pushf  
  401f5c:	cmp    al,0x8a
  401f5e:	stos   BYTE PTR es:[edi],al
  401f5f:	sub    BYTE PTR [eax+ebx*1+0x3c6b3d97],ah
  401f66:	adc    eax,0x47cca74
  401f6b:	push   ecx
  401f6c:	push   es
  401f6d:	pop    es
  401f6e:	(bad)  [ecx+0x78]
  401f71:	cmps   DWORD PTR ds:[esi],DWORD PTR es:[edi]
  401f72:	add    BYTE PTR [ecx-0x364fb057],ch
  401f78:	loope  0x401f62
  401f7a:	sbb    dh,bl
  401f7c:	int3   
  401f7d:	cmp    al,0x8d
  401f7f:	pop    es
  401f80:	add    ebp,ebx
  401f82:	retf   
  401f83:	push   es
  401f84:	push   edi
  401f85:	test   DWORD PTR [esi+0x73],0x22581962
  401f8c:	inc    ecx
  401f8d:	dec    ecx
  401f8e:	mov    dl,0x4e
  401f90:	ins    DWORD PTR es:[edi],dx
  401f91:	loope  0x401fa8
  401f93:	sbb    al,0x69
  401f95:	xor    al,0x6a
  401f97:	xor    al,0x0
  401f99:	jno    0x401ffb
  401f9b:	push   ebx
  401f9c:	push   ebx
  401f9d:	push   es
  401f9e:	pusha  
  401f9f:	je     0x401f96
  401fa1:	jl     0x401fa8
  401fa3:	stos   DWORD PTR es:[edi],eax
  401fa4:	aas    
  401fa5:	push   esp
  401fa6:	cmp    ebp,DWORD PTR [esi]
  401fa8:	push   ebx
  401fa9:	add    DWORD PTR [eax],ecx
  401fab:	ds aas 
  401fad:	push   cs
  401fae:	add    ch,BYTE PTR [esp+eax*1+0x77e1cddc]
  401fb5:	cmp    al,0x2f
  401fb7:	or     BYTE PTR [esi-0xe],bl
  401fba:	jmp    DWORD PTR [ebx-0x49a93d2c]
  401fc0:	je     0x401f50
  401fc2:	mov    bh,0x93
  401fc4:	xchg   esp,eax
  401fc5:	lods   eax,DWORD PTR cs:[esi]
  401fc7:	xor    esi,DWORD PTR [edi-0x577bc9f]
  401fcd:	sbb    esi,esi
  401fcf:	dec    BYTE PTR [esi-0x29]
  401fd2:	test   BYTE PTR [edi+0x72a00e52],bh
  401fd8:	ss dec ebx
  401fda:	ret    0x8e1c
  401fdd:	xchg   edi,edi
  401fdf:	jnp    0x401fb4
  401fe1:	out    0xc4,eax
  401fe3:	test   DWORD PTR [ecx],eax
  401fe5:	(bad)  
  401fe6:	pop    ebx
  401fe7:	arpl   bx,ax
  401fe9:	in     al,dx
  401fea:	arpl   WORD PTR [ebp+0x76],si
  401fed:	call   0x14bb6416
  401ff2:	push   DWORD PTR [ebp+0x66]
  401ff5:	je     0x402062
  401ff7:	jnp    0x402001
  401ff9:	test   al,dl
  401ffb:	inc    eax
  401ffc:	fmul   QWORD PTR [edi+0x50253a9]
  402002:	test   ecx,ebx
  402004:	cmp    DWORD PTR [ebp+0x6],edx
  402007:	push   es
  402008:	push   edi
  402009:	pop    es
  40200a:	or     BYTE PTR [ebx],dh
  40200c:	ins    DWORD PTR es:[edi],dx
  40200d:	int3   
  40200e:	add    cl,BYTE PTR [eax+ebx*2]
  402011:	or     BYTE PTR [ebx-0x8],cl
  402014:	aas    
  402015:	das    
  402016:	mov    al,ds:0xc5a758ff
  40201b:	jo     0x402068
  40201d:	dec    ecx
  40201e:	mov    edx,0x29e958bd
  402023:	mov    DWORD PTR [ecx],0x1e88ae9
  402029:	xor    DWORD PTR [eax+0x186968],0x28760000
  402033:	push   esi
  402034:	ficom  DWORD PTR [ebx-0x78e6f002]
  40203a:	dec    DWORD PTR [ebx-0x220c9fff]
  402040:	add    al,0xff
  402042:	add    BYTE PTR fs:[ecx-0x75],bl
  402046:	inc    eax
  402047:	cmp    al,0x80
  402049:	add    BYTE PTR [edi+0x34146061],al
  40204f:	(bad)
  402053:	scas   eax,DWORD PTR es:[edi]
  402054:	jnp    0x40203d
  402056:	and    al,0x88
  402058:	dec    ecx
  402059:	sbb    BYTE PTR [edi-0x3477a706],al
  40205f:	shl    al,0xef
  402062:	mov    bl,BYTE PTR [eax+0x6d]
  402065:	out    dx,eax
  402066:	out    dx,eax
  402067:	cmp    DWORD PTR [esi-0x9],edx
  40206a:	inc    esi
  40206b:	imul   edi,DWORD PTR [eax+0x44],0xa1190ea1
  402072:	fs xchg edx,ecx
  402075:	xor    BYTE PTR [ecx+0x65767178],cl
  40207b:	push   esp
  40207c:	std    
  40207d:	jbe    0x40207c
  40207f:	or     BYTE PTR [ecx],al
  402081:	pop    edi
  402082:	jmp    0x7e1c:0x79bdd2b0
  402089:	je     0x402027
  40208b:	mov    dh,0x3a
  40208d:	call   0x791a59e2
  402092:	pop    eax
  402093:	add    al,0x3
  402095:	pop    eax
  402096:	js     0x40208c
  402098:	mov    eax,DWORD PTR gs:[esi+eiz*1]
  40209c:	in     al,dx
  40209d:	add    BYTE PTR [edi+0x424010f],ch
  4020a3:	cmp    BYTE PTR [edx+0x64500424],cl
  4020a9:	(bad)  
  4020aa:	out    0x14,eax
  4020ac:	in     al,dx
  4020ad:	xor    bl,al
  4020af:	inc    ebp
  4020b0:	dec    ebx
  4020b1:	mov    BYTE PTR [ebp+0xb],al
  4020b4:	xor    DWORD PTR [esi+0x7472b98b],0xf8f70373
  4020be:	or     bh,dl
  4020c0:	mov    al,BYTE PTR [ecx-0x70916601]
  4020c6:	test   al,0x7a
  4020c8:	test   eax,0xb6c37e53
  4020cd:	adc    DWORD PTR [ebx-0x56],0x235457a9
  4020d4:	fisub  DWORD PTR [esi]
  4020d6:	adc    BYTE PTR [esi-0x9],dl
  4020d9:	fwait
  4020da:	mov    BYTE PTR [esi],ah
  4020dc:	sub    edi,DWORD PTR [esi]
  4020de:	dec    BYTE PTR [eax]
  4020e0:	xlat   BYTE PTR ds:[ebx]
  4020e1:	or     BYTE PTR [ebx+0x4b],0x91
  4020e5:	fisub  DWORD PTR [edi+0x543f7f]
  4020eb:	or     DWORD PTR [edi+0x7],edx
  4020ee:	or     BYTE PTR [edx+ebx*8],bh
  4020f1:	or     dl,al
  4020f3:	aas    
  4020f4:	push   ecx
  4020f5:	adc    eax,0x657cd8d
  4020fa:	movs   BYTE PTR es:[edi],BYTE PTR ds:[esi]
  4020fb:	xchg   ebx,eax
  4020fc:	pop    ebx
  4020fd:	cdq    
  4020fe:	or     al,dl
  402100:	mov    ch,0x9e
  402102:	add    al,0x57
  402104:	add    DWORD PTR [ecx+0xd70019b],ebp
  40210a:	inc    esp
  40210b:	add    eax,DWORD PTR [eax]
  40210d:	popa   
  40210e:	jb     0x40210b
  402110:	(bad)  
  402111:	jg     0x402188
  402113:	std    
  402114:	mov    dh,BYTE PTR [ebx+ebp*2+0x0]
  402118:	test   eax,0xa9f8f1c
  40211d:	hlt    
  40211e:	push   esi
  40211f:	or     eax,0xb10f0a02
  402124:	or     DWORD PTR [edi-0x29aaaaff],ebp
  40212a:	cmp    DWORD PTR [ebx-0x8],eax
  40212d:	dec    ecx
  40212e:	loop   0x4020cb
  402130:	mov    ds:0x78605cea,al
  402135:	sar    ch,1
  402137:	pop    esp
  402138:	adc    BYTE PTR [eax],ah
  40213a:	aaa    
  40213b:	ja     0x402193
  40213d:	cmp    edx,edx
  40213f:	mov    esi,0x590f8494
  402144:	add    al,0xa4
  402146:	add    BYTE PTR [eax],al
  402148:	add    DWORD PTR [ebx-0x495ed1ee],ecx
  40214e:	mov    eax,DWORD PTR [ebp-0x7e7bf08e]
  402154:	add    BYTE PTR [edi+ecx*1-0x7452080b],0xf8
  40215c:	cld    
  40215d:	jo     0x40215c
  40215f:	js     0x4021af
  402161:	add    BYTE PTR [edx+0x543b0351],ch
  402167:	lods   al,BYTE PTR ds:[esi]
  402168:	imul   edx,DWORD PTR [edx+ebp*2],0xf8835850
  40216f:	add    al,0x55
  402171:	add    BYTE PTR [edi+0x6a14693f],0x50
  402178:	pop    eax
  402179:	adc    DWORD PTR [esp],0x57811425
  402180:	add    BYTE PTR [esi+0x1c],dl
  402183:	jmp    FWORD PTR [ecx-0x859f100]
  402189:	jno    0x40214f
  40218b:	add    al,0xdd
  40218d:	add    dl,bh
  40218f:	inc    esp
  402190:	ins    DWORD PTR es:[edi],dx
  402191:	cmp    ah,cl
  402193:	mov    eax,0xe54462f2
  402198:	int3   
  402199:	lods   eax,DWORD PTR ds:[esi]
  40219a:	push   esi
  40219b:	mov    ah,0x7d
  40219d:	adc    eax,0xff0ea6ff
  4021a2:	and    al,0x1c
  4021a4:	sbb    al,0xe3
  4021a6:	out    dx,al
  4021a7:	pop    ecx
  4021a8:	xlat   BYTE PTR ds:[ebx]
  4021a9:	stos   BYTE PTR es:[edi],al
  4021aa:	mov    BYTE PTR [ebx],0x56
  4021ad:	jbe    0x4021c3
  4021af:	jb     0x40217f
  4021b1:	cmp    BYTE PTR [edx+0x41],dl
  4021b4:	adc    DWORD PTR [eax],eax
  4021b6:	aas    
  4021b7:	mov    bl,0x6a
  4021b9:	push   ebx
  4021ba:	push   eax
  4021bb:	dec    esi
  4021bd:	cmp    BYTE PTR [eax+edi*8],al
  4021c0:	adc    DWORD PTR [eax],eax
  4021c2:	aas    
  4021c3:	mov    cl,0x84
  4021c5:	jae    0x4021c7
  4021c7:	adc    BYTE PTR [ecx],dl
  4021c9:	add    bl,bl
  4021cb:	push   ecx
  4021cc:	pop    eax
  4021cd:	add    BYTE PTR [ebp+0xc],dl
  4021d0:	push   edi
  4021d1:	or     al,0xa7
  4021d3:	push   esp
  4021d4:	ficom  WORD PTR [ecx-0x491c24d4]
  4021da:	test   eax,0x21cde36e
  4021df:	pushf  
  4021e0:	jae    0x4021b8
  4021e2:	scas   al,BYTE PTR es:[edi]
  4021e3:	les    ecx,FWORD PTR [edi-0x15]
  4021e6:	mov    edi,0xe89b497e
  4021eb:	mov    eax,DWORD PTR [ecx]
  4021ed:	call   0xec3f68ed
  4021f2:	push   edx
  4021f3:	pop    ds
  4021f4:	push   ds
  4021f5:	mov    ecx,0xff0a17ff
  4021fa:	(bad)  
  4021fb:	jmp    FWORD PTR [eax+0x1e1f846]
  402201:	pop    es
  402202:	push   ecx
  402203:	adc    dh,0xe8
  402206:	add    BYTE PTR [edx+ebx*2-0x6124348c],cl
  40220d:	cmp    eax,0xe801d08b
  402212:	into   
  402213:	inc    esi
  402214:	inc    edi
  402216:	fs (bad) 
  402218:	jb     0x40225b
  40221a:	pop    ss
  40221b:	inc    ecx
  40221c:	mov    esi,0xf2bfcae8
  402221:	scas   eax,DWORD PTR es:[edi]
  402222:	ds aaa 
  402224:	rol    BYTE PTR [eax],0x54
  402227:	in     al,0x2a
  402229:	add    eax,0x808923c5
  40222e:	sar    DWORD PTR [eax-0x79],0x98
  402232:	cvtdq2ps xmm1,xmm3
  402235:	dec    esi
  402236:	sub    al,0xf2
  402238:	dec    eax
  402239:	add    DWORD PTR [eax],ebx
  40223b:	mov    al,0xbe
  40223d:	stc    
  40223e:	int3   
  40223f:	inc    eax
  402240:	or     edi,DWORD PTR [ecx-0x8123dc]
  402246:	(bad)  
  402247:	(bad)  
  402248:	out    dx,eax
  402249:	dec    eax
  40224a:	repz ret 
  40224c:	or     DWORD PTR [ebp+0xe],ebx
  40224f:	pop    es
  402250:	or     DWORD PTR [ecx-0x9149af],edi
  402256:	(bad)  
  402257:	jmp    DWORD PTR [ebp-0x857fe9]
  40225d:	jg     0x4022c1
  40225f:	sub    eax,0x3c9e9551
  402264:	xchg   ecx,eax
  402265:	mov    al,ds:0xc8a739f4
  40226a:	rcl    DWORD PTR [ecx+0x1],0x48
  40226e:	push   esp
  40226f:	mov    DWORD PTR [edx+0x1004876],ecx
  402275:	dec    eax
  402276:	jbe    0x402209
  402278:	xchg   edx,eax
  402279:	push   esp
  40227a:	dec    eax
  40227b:	add    BYTE PTR [ecx],al
  40227d:	dec    eax
  40227e:	push   esp
  40227f:	cdq    
  402280:	call   0x7048:0x1004870
  402287:	mov    eax,ds:0x4834a2
  40228c:	add    DWORD PTR [eax+0x34],ecx
  40228f:	test   eax,0x4870aa
  402294:	add    DWORD PTR [eax+0x70],ecx
  402297:	mov    cl,0xb2
  402299:	xor    al,0x48
  40229b:	add    BYTE PTR [ecx],al
  40229d:	dec    eax
  40229e:	xor    al,0xb9
  4022a0:	mov    WORD PTR [ebp-0x255d3cef],?
  4022a6:	mov    esp,0x91094dc7
  4022ab:	mov    al,bh
  4022ad:	adc    dh,BYTE PTR [eax+eax*1-0x74]
  4022b1:	jge    0x402307
  4022b3:	mov    al,BYTE PTR [ebp+0x42207b21]
  4022b9:	(bad)  
  4022ba:	je     0x4022bb
  4022bc:	add    DWORD PTR [ecx+0x3b],esp
  4022bf:	mov    BYTE PTR [eax-0x6b],ah
  4022c2:	pop    ebp
  4022c3:	mov    edx,DWORD PTR [edx-0x49]
  4022c6:	and    BYTE PTR [ebx-0x7724cf40],dh
  4022cc:	add    DWORD PTR [eax],edi
  4022ce:	inc    ebp
  4022cf:	mov    ecx,DWORD PTR ds:0xa9af3b00
  4022d5:	adc    ebx,DWORD PTR [ecx+0x5c]
  4022d8:	fsub   QWORD PTR [ecx-0x34b20e4d]
  4022de:	clc    
  4022df:	mov    eax,DWORD PTR [ecx]
  4022e1:	dec    eax
  4022e2:	mov    cl,0xac
  4022e4:	popa   
  4022e5:	test   eax,0x8776f8c3
  4022ea:	popf   
  4022eb:	and    BYTE PTR ds:0xc6e90cbd,al
  4022f1:	sbb    BYTE PTR [eax],al
  4022f3:	add    BYTE PTR [ecx],al
  4022f5:	mov    ebp,DWORD PTR [eax-0x73]
  4022f8:	jle    0x402312
  4022fa:	mov    eax,DWORD PTR [eax]
  4022fc:	or     eax,0xa9ae3b00
  402301:	adc    ecx,DWORD PTR [ebp+0x4102b500]
  402307:	add    eax,0x4004cedc
  40230c:	or     al,0x2e
  40230e:	stos   DWORD PTR es:[edi],eax
  40230f:	sub    bh,BYTE PTR [eax-0x6f0c5a9c]
  402315:	inc    eax
  402316:	sub    al,0x79
  402318:	movs   DWORD PTR es:[edi],DWORD PTR ds:[esi]
  402319:	dec    esp
  40231a:	shl    DWORD PTR [ebx-0x33],0x83
  40231e:	pusha  
  40231f:	ret    
  402320:	imul   esp,DWORD PTR [eax+eax*1],0xd2310120
  402327:	add    ch,BYTE PTR [ebx-0x64]
  40232a:	cmp    edi,edi
  40232c:	test   eax,0x8dd8e114
  402331:	fsub   st,st(3)
  402333:	add    BYTE PTR [eax+0x74],ah
  402336:	pop    ss
  402337:	jo     0x402372
  402339:	inc    edi
  40233a:	retf   
  40233b:	or     BYTE PTR [eax+0x11cc3c0],dh
  402341:	rol    BYTE PTR ds:0x4684b54b,0x54
  402348:	add    BYTE PTR [ecx-0x6a41b3ac],bh
  40234e:	mov    dh,BYTE PTR [esi-0x626a754f]
  402354:	call   0x4d24:0x351db91
  40235b:	cmc    
  40235c:	push   ecx
  40235d:	xchg   ebp,eax
  40235e:	popa   
  40235f:	ret    
  402360:	mov    ds:0xf25449ea,al
  402365:	cmps   DWORD PTR ds:[esi],DWORD PTR es:[edi]
  402366:	sbb    cl,BYTE PTR [edx-0x33861654]
  40236c:	and    al,0x0
  40236e:	xchg   dh,al
  402370:	std    
  402371:	cmps   BYTE PTR ds:[esi],BYTE PTR es:[edi]
  402372:	mov    ebx,DWORD PTR [eax+esi*2]
  402375:	add    DWORD PTR ds:0x6130d425,ebp
  40237b:	xchg   BYTE PTR [esp+edx*1+0x50],al
  40237f:	add    cl,dh
  402381:	sub    DWORD PTR [esi],esp
  402383:	jp     0x402344
  402385:	push   edx
  402386:	cmp    al,0x46
  402388:	jmp    0x1442478
  40238d:	pop    edx
  40238e:	call   0x723c17ab
  402393:	enter  0x5ef4,0xa0
  402397:	jbe    0x402414
  402399:	pop    ebx
  40239a:	add    BYTE PTR [edi+0x58],ah
  40239d:	or     BYTE PTR [edi+0x26],bl
  4023a0:	gs add al,bh
  4023a3:	retf   0x88bc
  4023a6:	icebp  
  4023a7:	sbb    eax,0xb63e6540
  4023ac:	cdq    
  4023ad:	cwde   
  4023ae:	dec    ebx
  4023af:	out    0xed,al
  4023b1:	popa   
  4023b2:	dec    edx
  4023b3:	cmp    esp,DWORD PTR [ebp+0x16f8a81]
  4023b9:	push   0x741bab60
  4023be:	or     BYTE PTR cs:0x12040743,cl
  4023c5:	daa    
  4023c6:	xchg   edx,eax
  4023c7:	cmp    eax,0x16947a50
  4023cc:	jl     0x402362
  4023ce:	jp     0x402421
  4023d0:	push   esp
  4023d1:	jp     0x402367
  4023d3:	jl     0x40240f
  4023d5:	stos   BYTE PTR es:[edi],al
  4023d6:	test   DWORD PTR [eax+0x2],ebp
  4023d9:	outs   dx,BYTE PTR ds:[esi]
  4023da:	push   ds
  4023db:	sub    ecx,DWORD PTR [edi]
  4023dd:	adc    bl,BYTE PTR [ecx]
  4023df:	sbb    DWORD PTR [ebx],eax
  4023e1:	and    esi,DWORD PTR [esi]
  4023e3:	xchg   edi,eax
  4023e4:	test   eax,0xc9b6d758
  4023e9:	or     al,bh
  4023eb:	add    eax,0x66cb9a05
  4023f0:	bound  edx,QWORD PTR [esi]
  4023f2:	xchg   ebp,eax
  4023f3:	add    DWORD PTR [eax-0x59],ebx
  4023f6:	push   es
  4023f7:	push   ebx
  4023f8:	add    eax,0xbf5a5f3a
  4023fd:	and    DWORD PTR [edx+0x50],ebp
  402400:	add    DWORD PTR [ebx-0x45933e6],ecx
  402406:	cdq    
  402407:	add    BYTE PTR [ecx],al
  402409:	adc    ch,BYTE PTR [ebp-0x5b66a27a]
  40240f:	inc    edi
  402410:	retf   
  402411:	bound  ebx,QWORD PTR [eax-0x2c]
  402414:	repnz push edx
  402416:	jbe    0x4023fb
  402418:	ret    
  402419:	call   0x1b4f270
  40241e:	cmps   DWORD PTR ds:[esi],DWORD PTR es:[edi]
  40241f:	call   FWORD PTR [eax-0x59]
  402422:	sub    DWORD PTR [edi],eax
  402424:	leave  
  402425:	loop   0x4023c2
  402427:	push   esp
  402428:	pop    eax
  402429:	adc    dh,BYTE PTR [esp+eiz*8]
  40242c:	ja     0x402483
  40242e:	sar    bh,1
  402430:	pop    esi
  402431:	lea    eax,[ebp-0x12]
  402434:	hlt    
  402435:	test   DWORD PTR [ecx-0x2fdf332c],ecx
  40243b:	ficomp WORD PTR [eax+edx*1+0x24]
  40243f:	inc    esp
  402440:	add    DWORD PTR [eax],eax
  402442:	add    BYTE PTR [eax+0x69],ch
  402445:	add    BYTE PTR [eax],al
  402447:	add    ah,al
  402449:	xor    si,si
  40244c:	xchg   ecx,eax
  40244d:	mov    DWORD PTR [ebx],ebp
  40244f:	cdq    
  402450:	cmp    eax,0xe255dce0
  402455:	adc    ah,BYTE PTR [ebp+0x640a6ee7]
  40245b:	rol    BYTE PTR [ecx],1
  40245d:	sti    
  40245e:	out    dx,eax
  40245f:	arpl   dx,dx
  402461:	adc    ebp,DWORD PTR [edi-0x1]
  402464:	mov    DWORD PTR [ebp+0x75],esi
  402467:	sub    BYTE PTR [ebp-0x13],cl
  40246a:	dec    ebx
  40246b:	and    eax,0x24523716
  402470:	jns    0x40240b
  402472:	jmp    0x4024ea
  402474:	loop   0x402489
  402476:	dec    ebp
  402477:	movs   DWORD PTR es:[edi],DWORD PTR ds:[esi]
  402478:	xchg   ecx,eax
  402479:	sar    DWORD PTR [ecx+edx*4+0x554b0b6d],cl
  402480:	jno    0x4024fc
  402482:	sub    esp,ebx
  402484:	ret    
  402485:	sub    eax,DWORD PTR [ecx]
  402487:	mov    dh,0x21
  402489:	call   FWORD PTR [ecx-0x6bdbb010]
  40248f:	mov    BYTE PTR [edi+0x0],ch
  402492:	jge    0x40242f
  402494:	adc    DWORD PTR [eax],eax
  402496:	aas    
  402497:	outs   dx,BYTE PTR ds:[esi]
  402498:	imul   ebp,DWORD PTR [eax-0x5a63efab],0x7e
  40249f:	in     al,dx
  4024a0:	jmp    0x8ccc1525
  4024a5:	cld    
  4024a6:	imul   eax,DWORD PTR [eax],0xdcfc6806
  4024ac:	add    edi,edi
  4024ae:	push   ebp
  4024af:	and    DWORD PTR [ebx+0x55],ecx
  4024b2:	xchg   edi,eax
  4024b3:	rol    DWORD PTR [ecx+0x6e000068],cl
  4024b9:	push   0x0
  4024bb:	push   0x68
  4024bd:	push   0x8001036a
  4024c2:	aas    
  4024c3:	(bad)  
  4024c4:	test   eax,0xc1c40173
  4024c9:	and    BYTE PTR [edx*2-0x4a66f3c],0x2e
  4024d1:	mov    ds:0x5ec06144,eax
  4024d6:	(bad)  
  4024d7:	aam    0x4a
  4024d9:	jno    0x40250d
  4024db:	into   
  4024dc:	bound  esp,QWORD PTR [ebp+0x76]
  4024df:	aam    0x1e
  4024e1:	sbb    edx,DWORD PTR [ecx-0x7c]
  4024e4:	sub    ebp,DWORD PTR [ebp+0x52]
  4024e7:	pop    edi
  4024e8:	lds    edx,FWORD PTR [edx+0x27b3bc5d]
  4024ee:	dec    esi
  4024ef:	xchg   DWORD PTR [ecx+0x6e],ecx
  4024f2:	mov    eax,0xadfbd425
  4024f7:	jns    0x4024ae
  4024f9:	xchg   ebx,eax
  4024fa:	adc    DWORD PTR [esi],esi
  4024fc:	sub    al,0x8f
  4024fe:	xchg   edx,eax
  4024ff:	lea    esi,[eax-0x5c713a9c]
  402505:	cmp    ch,dh
  402507:	aas    
  402508:	adc    al,0xa6
  40250a:	movs   DWORD PTR es:[edi],DWORD PTR ds:[esi]
  40250b:	cmps   BYTE PTR ds:[esi],BYTE PTR es:[edi]
  40250c:	lea    esp,[edi-0x3ad51cf8]
  402512:	add    al,0xd7
  402514:	jnp    0x4024d3
  402516:	push   ds
  402517:	clc    
  402518:	xchg   DWORD PTR [ebx+0x12602],edx
  40251e:	add    BYTE PTR [edi+0x1],dh
  402524:	add    DWORD PTR [eax],eax
  402526:	add    BYTE PTR [eax],al
  402528:	add    DWORD PTR [eax],eax
  40252a:	add    BYTE PTR [eax],al
  40252c:	add    DWORD PTR [eax],eax
  40252e:	add    BYTE PTR [eax],al
  402530:	add    DWORD PTR [eax],eax
  402532:	add    BYTE PTR [eax],al
  402534:	add    DWORD PTR [eax+0x7a01007a],edi
  40253a:	cwde   
  40253b:	add    eax,0x42004
  402540:	add    DWORD PTR [edi+0x7b27347b],eax
  402546:	add    DWORD PTR [eax],0x58
  402549:	xchg   ebx,eax
  40254a:	jle    0x402583
  40254c:	cmp    al,0x57
  40254e:	mul    DWORD PTR [ebp+ebp*1+0x22]
  402552:	popa   
  402553:	mov    ebx,0xf6fdd99c
  402558:	dec    eax
  402559:	loopne 0x4025a7
  40255b:	jae    0x402593
  40255d:	outs   dx,BYTE PTR ds:[esi]
  40255e:	pop    ecx
  40255f:	xor    BYTE PTR [ebx],bh
  402561:	in     al,dx
  402562:	jp     0x402560
  402564:	push   ds
  402565:	loope  0x402595
  402567:	shr    BYTE PTR [ebx+0x7e],0xf3
  40256b:	aaa    
