
27d5259c80c5dc2eb06967e9abe5a25396b5ed1413def61532bb63d5fefdc0dc.exe:     file format pei-i386


Disassembly of section .text:

004c1000 <.text>:
  4c1000:	mov    edi,edi
  4c1002:	push   ebp
  4c1003:	mov    ebp,esp
  4c1005:	sub    esp,0x40
  4c1008:	mov    edi,0x4c3070
  4c100d:	mov    ebx,0xffffbc7d
  4c1012:	push   edi
  4c1013:	push   ecx
  4c1014:	push   ecx
  4c1015:	push   edx
  4c1016:	call   0x4c1960
  4c101b:	add    esp,0xc
  4c101e:	pop    edi
  4c101f:	push   edi
  4c1020:	mov    ebx,0x0
  4c1025:	push   ebx
  4c1026:	call   0x4c13a8
  4c102b:	pop    edi
  4c102c:	push   edi
  4c102d:	push   0x0
  4c102f:	call   0x4c1cc8
  4c1034:	pop    edi
  4c1035:	add    esp,0x40
  4c1038:	pop    ebp
  4c1039:	ret    
  4c103a:	add    BYTE PTR [eax],al
  4c103c:	mov    edi,edi
  4c103e:	push   ebp
  4c103f:	mov    ebp,esp
  4c1041:	sub    esp,0x34
  4c1044:	lea    edx,[edi+0x7c]
  4c1047:	cmp    edx,0x7983
  4c104d:	jbe    0x4c103f
  4c104f:	push   edx
  4c1050:	push   eax
  4c1051:	push   esi
  4c1052:	push   eax
  4c1053:	call   0x4c1268
  4c1058:	add    esp,0xc
  4c105b:	pop    edx
  4c105c:	push   edx
  4c105d:	mov    eax,0x0
  4c1062:	push   eax
  4c1063:	call   0x4c13a8
  4c1068:	pop    edx
  4c1069:	push   edx
  4c106a:	mov    ecx,0x0
  4c106f:	push   ecx
  4c1070:	call   0x4c1a34
  4c1075:	pop    edx
  4c1076:	add    esp,0x34
  4c1079:	pop    ebp
  4c107a:	ret    
  4c107b:	add    BYTE PTR [edi-0x1],bl
  4c107e:	adc    eax,0x4c277c
  4c1083:	push   edi
  4c1084:	repz ret 0x0
  4c1088:	mov    edi,edi
  4c108a:	push   ebp
  4c108b:	mov    ebp,esp
  4c108d:	sub    esp,0x60
  4c1090:	mov    ecx,0x4c31e8
  4c1095:	cmp    ecx,0x5c5d
  4c109b:	je     0x4c108b
  4c109d:	push   ecx
  4c109e:	push   0x0
  4c10a0:	call   0x4c1bd0
  4c10a5:	pop    ecx
  4c10a6:	push   ecx
  4c10a7:	push   DWORD PTR [ecx+0x17c]
  4c10ad:	push   DWORD PTR [ecx+0x19c]
  4c10b3:	call   0x4c1998
  4c10b8:	add    esp,0x8
  4c10bb:	pop    ecx
  4c10bc:	push   ecx
  4c10bd:	push   0x0
  4c10bf:	call   0x4c1cc8
  4c10c4:	pop    ecx
  4c10c5:	add    esp,0x60
  4c10c8:	pop    ebp
  4c10c9:	ret    
  4c10ca:	add    BYTE PTR [eax],al
  4c10cc:	mov    edi,edi
  4c10ce:	push   ebp
  4c10cf:	mov    ebp,esp
  4c10d1:	sub    esp,0x48
  4c10d4:	lea    edi,ds:0x4c30d4
  4c10da:	sub    ebx,edx
  4c10dc:	push   edi
  4c10dd:	call   0x4c193c
  4c10e2:	pop    edi
  4c10e3:	push   edi
  4c10e4:	push   DWORD PTR [edi+0xdc]
  4c10ea:	push   DWORD PTR [edi]
  4c10ec:	call   0x4c103c
  4c10f1:	add    esp,0x8
  4c10f4:	pop    edi
  4c10f5:	mov    ecx,0x4c2700
  4c10fa:	mov    ecx,DWORD PTR [ecx]
  4c10fc:	push   ecx
  4c10fd:	push   DWORD PTR [edi-0x3c]
  4c1100:	pop    edx
  4c1101:	call   edx
  4c1103:	add    esp,0x48
  4c1106:	pop    ebp
  4c1107:	ret    
  4c1108:	mov    edi,edi
  4c110a:	push   ebp
  4c110b:	mov    ebp,esp
  4c110d:	sub    esp,0x30
  4c1110:	lea    eax,[esi+0x20]
  4c1113:	sub    DWORD PTR [ebp-0x24],0xffffd8f1
  4c111a:	push   eax
  4c111b:	push   ecx
  4c111c:	push   DWORD PTR [eax+0xe8]
  4c1122:	call   0x4c18fc
  4c1127:	add    esp,0x8
  4c112a:	pop    eax
  4c112b:	push   eax
  4c112c:	call   0x4c1d1c
  4c1131:	pop    eax
  4c1132:	push   eax
  4c1133:	push   0x0
  4c1135:	call   0x4c1adc
  4c113a:	pop    eax
  4c113b:	add    esp,0x30
  4c113e:	pop    ebp
  4c113f:	ret    
  4c1140:	mov    edi,edi
  4c1142:	push   ebp
  4c1143:	mov    ebp,esp
  4c1145:	sub    esp,0x3c
  4c1148:	lea    edx,ds:0x4c3058
  4c114e:	and    DWORD PTR [edx-0x38],esi
  4c1151:	push   edx
  4c1152:	mov    eax,0x0
  4c1157:	push   eax
  4c1158:	call   0x4c11c0
  4c115d:	pop    edx
  4c115e:	push   edx
  4c115f:	push   DWORD PTR [edx+0x190]
  4c1165:	push   esi
  4c1166:	call   0x4c1d34
  4c116b:	add    esp,0x8
  4c116e:	pop    edx
  4c116f:	push   edx
  4c1170:	mov    edx,0x0
  4c1175:	push   edx
  4c1176:	call   0x4c1adc
  4c117b:	pop    edx
  4c117c:	add    esp,0x3c
  4c117f:	pop    ebp
  4c1180:	ret    
  4c1181:	add    BYTE PTR [eax],al
  4c1183:	add    BYTE PTR [ebx-0x1374aa01],cl
  4c1189:	sub    esp,0x2c
  4c118c:	lea    ecx,[esi-0xf4]
  4c1192:	adc    edx,DWORD PTR [ebp-0x18]
  4c1195:	push   ecx
  4c1196:	push   0x0
  4c1198:	call   0x4c1bd0
  4c119d:	pop    ecx
  4c119e:	push   ecx
  4c119f:	push   esi
  4c11a0:	push   esi
  4c11a1:	push   edx
  4c11a2:	call   0x4c1e54
  4c11a7:	add    esp,0xc
  4c11aa:	pop    ecx
  4c11ab:	push   ecx
  4c11ac:	mov    ebx,0x0
  4c11b1:	push   ebx
  4c11b2:	call   0x4c1cc8
  4c11b7:	pop    ecx
  4c11b8:	add    esp,0x2c
  4c11bb:	pop    ebp
  4c11bc:	ret    
  4c11bd:	add    BYTE PTR [eax],al
  4c11bf:	add    BYTE PTR [edi-0x1],bl
  4c11c2:	adc    eax,0x4c2748
  4c11c7:	push   edi
  4c11c8:	repz ret 0x0
  4c11cc:	pop    edi
  4c11cd:	call   DWORD PTR ds:0x4c2780
  4c11d3:	push   edi
  4c11d4:	repz ret 0x0
  4c11d8:	mov    edi,edi
  4c11da:	push   ebp
  4c11db:	mov    ebp,esp
  4c11dd:	sub    esp,0x54
  4c11e0:	mov    edi,0x4c30a4
  4c11e5:	mov    eax,0xffffff94
  4c11ea:	push   edi
  4c11eb:	push   DWORD PTR [edi+0x24]
  4c11ee:	push   ecx
  4c11ef:	push   DWORD PTR [edi+0x1f4]
  4c11f5:	call   0x4c13b4
  4c11fa:	add    esp,0xc
  4c11fd:	pop    edi
  4c11fe:	push   edi
  4c11ff:	mov    edi,0x0
  4c1204:	push   edi
  4c1205:	call   0x4c1bd0
  4c120a:	pop    edi
  4c120b:	push   edi
  4c120c:	lea    edi,[edi-0xa4]
  4c1212:	push   edi
  4c1213:	call   0x4c1a28
  4c1218:	test   eax,eax
  4c121a:	jne    0x4c120c
  4c121c:	pop    edi
  4c121d:	add    esp,0x54
  4c1220:	pop    ebp
  4c1221:	ret    
  4c1222:	add    BYTE PTR [eax],al
  4c1224:	mov    edi,edi
  4c1226:	push   ebp
  4c1227:	mov    ebp,esp
  4c1229:	sub    esp,0x20
  4c122c:	lea    esi,ds:0x4c31b0
  4c1232:	xor    DWORD PTR [esi-0x1a0],ebx
  4c1238:	push   esi
  4c1239:	push   DWORD PTR [esi+0x180]
  4c123f:	push   eax
  4c1240:	push   DWORD PTR [esi+0x78]
  4c1243:	call   0x4c1a4c
  4c1248:	add    esp,0xc
  4c124b:	pop    esi
  4c124c:	mov    eax,0x0
  4c1251:	push   eax
  4c1252:	call   0x4c1a34
  4c1257:	mov    edx,0x0
  4c125c:	push   edx
  4c125d:	call   0x4c1bd0
  4c1262:	add    esp,0x20
  4c1265:	pop    ebp
  4c1266:	ret    
  4c1267:	add    BYTE PTR [ebx-0x1374aa01],cl
  4c126d:	sub    esp,0x28
  4c1270:	lea    ecx,[edx+0x58]
  4c1273:	xor    DWORD PTR [ebp-0x18],0xffffd6ee
  4c127a:	push   ecx
  4c127b:	mov    ecx,0x0
  4c1280:	push   ecx
  4c1281:	call   0x4c1450
  4c1286:	pop    ecx
  4c1287:	push   ecx
  4c1288:	push   edx
  4c1289:	push   esi
  4c128a:	call   0x4c1764
  4c128f:	add    esp,0x8
  4c1292:	pop    ecx
  4c1293:	push   ecx
  4c1294:	mov    esi,0x0
  4c1299:	push   esi
  4c129a:	call   0x4c11c0
  4c129f:	pop    ecx
  4c12a0:	add    esp,0x28
  4c12a3:	pop    ebp
  4c12a4:	ret    
  4c12a5:	add    BYTE PTR [eax],al
  4c12a7:	add    BYTE PTR [ebx-0x1374aa01],cl
  4c12ad:	sub    esp,0x24
  4c12b0:	lea    esi,ds:0x4c3030
  4c12b6:	mov    ecx,esi
  4c12b8:	push   0x0
  4c12ba:	call   0x4c1b44
  4c12bf:	push   esi
  4c12c0:	push   DWORD PTR [esi+0x178]
  4c12c6:	push   DWORD PTR [esi+0x118]
  4c12cc:	push   DWORD PTR [esi+0xe8]
  4c12d2:	call   0x4c1568
  4c12d7:	add    esp,0xc
  4c12da:	pop    esi
  4c12db:	push   0x0
  4c12dd:	call   0x4c13a8
  4c12e2:	add    esp,0x24
  4c12e5:	pop    ebp
  4c12e6:	ret    
  4c12e7:	add    BYTE PTR [ebx-0x1374aa01],cl
  4c12ed:	sub    esp,0x3c
  4c12f0:	mov    esi,0x4c31b4
  4c12f5:	cmp    esi,0x2148
  4c12fb:	jbe    0x4c12eb
  4c12fd:	call   0x4c193c
  4c1302:	push   esi
  4c1303:	push   edi
  4c1304:	push   DWORD PTR [esi+0x44]
  4c1307:	push   eax
  4c1308:	push   edi
  4c1309:	call   0x4c1108
  4c130e:	add    esp,0x10
  4c1311:	pop    esi
  4c1312:	mov    ecx,0x0
  4c1317:	push   ecx
  4c1318:	call   0x4c1a34
  4c131d:	add    esp,0x3c
  4c1320:	pop    ebp
  4c1321:	ret    
  4c1322:	add    BYTE PTR [eax],al
  4c1324:	mov    edi,edi
  4c1326:	push   ebp
  4c1327:	mov    ebp,esp
  4c1329:	sub    esp,0x28
  4c132c:	lea    eax,[edx-0x5c]
  4c132f:	or     ecx,edi
  4c1331:	push   eax
  4c1332:	push   ebx
  4c1333:	push   esi
  4c1334:	push   DWORD PTR [eax+0x4c]
  4c1337:	call   0x4c15b0
  4c133c:	add    esp,0xc
  4c133f:	pop    eax
  4c1340:	push   eax
  4c1341:	mov    edx,0x0
  4c1346:	push   edx
  4c1347:	call   0x4c13a8
  4c134c:	pop    eax
  4c134d:	push   eax
  4c134e:	mov    edx,0x0
  4c1353:	push   edx
  4c1354:	call   0x4c1b44
  4c1359:	pop    eax
  4c135a:	add    esp,0x28
  4c135d:	pop    ebp
  4c135e:	ret    
  4c135f:	add    BYTE PTR [ebx-0x1374aa01],cl
  4c1365:	sub    esp,0x58
  4c1368:	lea    eax,ds:0x4c3100
  4c136e:	sub    DWORD PTR [ebp-0x20],0x4a
  4c1372:	push   eax
  4c1373:	call   0x4c1b38
  4c1378:	pop    eax
  4c1379:	push   eax
  4c137a:	push   edi
  4c137b:	push   DWORD PTR [eax+0xa4]
  4c1381:	push   DWORD PTR [eax+0x170]
  4c1387:	push   DWORD PTR [eax+0x16c]
  4c138d:	call   0x4c12a8
  4c1392:	add    esp,0x10
  4c1395:	pop    eax
  4c1396:	push   eax
  4c1397:	mov    edi,0x0
  4c139c:	push   edi
  4c139d:	call   0x4c1a34
  4c13a2:	pop    eax
  4c13a3:	add    esp,0x58
  4c13a6:	pop    ebp
  4c13a7:	ret    
  4c13a8:	pop    edi
  4c13a9:	call   DWORD PTR ds:0x4c26ec
  4c13af:	push   edi
  4c13b0:	repz ret 0x0
  4c13b4:	mov    edi,edi
  4c13b6:	push   ebp
  4c13b7:	mov    ebp,esp
  4c13b9:	sub    esp,0x30
  4c13bc:	lea    ecx,ds:0x4c30cc
  4c13c2:	sub    esi,DWORD PTR [ecx+0xc4]
  4c13c8:	push   ecx
  4c13c9:	mov    edi,0x0
  4c13ce:	push   edi
  4c13cf:	call   0x4c1cc8
  4c13d4:	pop    ecx
  4c13d5:	push   ecx
  4c13d6:	push   DWORD PTR [ecx+0x1d8]
  4c13dc:	push   esi
  4c13dd:	push   DWORD PTR [ecx+0x1c4]
  4c13e3:	push   edx
  4c13e4:	call   0x4c1730
  4c13e9:	add    esp,0x10
  4c13ec:	pop    ecx
  4c13ed:	push   ecx
  4c13ee:	mov    esi,0x0
  4c13f3:	push   esi
  4c13f4:	call   0x4c11c0
  4c13f9:	pop    ecx
  4c13fa:	add    esp,0x30
  4c13fd:	pop    ebp
  4c13fe:	ret    
  4c13ff:	add    BYTE PTR [ebx-0x1374aa01],cl
  4c1405:	sub    esp,0x5c
  4c1408:	mov    eax,0x4c3128
  4c140d:	add    edi,0xffff8fb0
  4c1413:	push   eax
  4c1414:	lea    ecx,[eax-0x128]
  4c141a:	push   ecx
  4c141b:	call   0x4c1a28
  4c1420:	test   eax,eax
  4c1422:	jne    0x4c1414
  4c1424:	pop    eax
  4c1425:	push   eax
  4c1426:	push   DWORD PTR [eax+0x120]
  4c142c:	push   edi
  4c142d:	push   DWORD PTR [eax+0x188]
  4c1433:	push   ebx
  4c1434:	call   0x4c1b50
  4c1439:	add    esp,0x10
  4c143c:	pop    eax
  4c143d:	push   eax
  4c143e:	mov    edx,0x0
  4c1443:	push   edx
  4c1444:	call   0x4c1adc
  4c1449:	pop    eax
  4c144a:	add    esp,0x5c
  4c144d:	pop    ebp
  4c144e:	ret    
  4c144f:	add    BYTE PTR [edi-0x1],bl
  4c1452:	adc    eax,0x4c26fc
  4c1457:	push   edi
  4c1458:	repz ret 0x0
  4c145c:	mov    edi,edi
  4c145e:	push   ebp
  4c145f:	mov    ebp,esp
  4c1461:	sub    esp,0x24
  4c1464:	lea    edx,[ecx-0x150]
  4c146a:	add    DWORD PTR [edx+0xf4],0xffffffdd
  4c1471:	push   edx
  4c1472:	push   eax
  4c1473:	push   ebx
  4c1474:	push   DWORD PTR [edx+0x1b8]
  4c147a:	push   ebx
  4c147b:	call   0x4c12e8
  4c1480:	add    esp,0x10
  4c1483:	pop    edx
  4c1484:	push   edx
  4c1485:	mov    edx,0x0
  4c148a:	push   edx
  4c148b:	call   0x4c1b44
  4c1490:	pop    edx
  4c1491:	push   edx
  4c1492:	push   0x0
  4c1494:	call   0x4c1b44
  4c1499:	pop    edx
  4c149a:	add    esp,0x24
  4c149d:	pop    ebp
  4c149e:	ret    
  4c149f:	add    BYTE PTR [ebx-0x1374aa01],cl
  4c14a5:	sub    esp,0x60
  4c14a8:	lea    ebx,[esi+0x74]
  4c14ab:	xor    DWORD PTR [ebp-0x8],0xffffbc70
  4c14b2:	push   ebx
  4c14b3:	push   esi
  4c14b4:	push   DWORD PTR [ebx+0x168]
  4c14ba:	call   0x4c17a0
  4c14bf:	add    esp,0x8
  4c14c2:	pop    ebx
  4c14c3:	call   0x4c1a40
  4c14c8:	mov    esi,0x0
  4c14cd:	push   esi
  4c14ce:	call   0x4c1b44
  4c14d3:	add    esp,0x60
  4c14d6:	pop    ebp
  4c14d7:	ret    
  4c14d8:	pop    edi
  4c14d9:	call   DWORD PTR ds:0x4c2770
  4c14df:	push   edi
  4c14e0:	repz ret 0x0
  4c14e4:	pop    edi
  4c14e5:	call   DWORD PTR ds:0x4c26f4
  4c14eb:	push   edi
  4c14ec:	repz ret 0x0
  4c14f0:	mov    edi,edi
  4c14f2:	push   ebp
  4c14f3:	mov    ebp,esp
  4c14f5:	sub    esp,0x48
  4c14f8:	lea    ebx,[edx+0x28]
  4c14fb:	or     edx,DWORD PTR [ebp-0x2c]
  4c14fe:	push   ebx
  4c14ff:	push   eax
  4c1500:	push   DWORD PTR [ebx+0x138]
  4c1506:	push   edx
  4c1507:	call   0x4c1c68
  4c150c:	add    esp,0xc
  4c150f:	pop    ebx
  4c1510:	push   0xfffffff4
  4c1512:	call   0x4c14e4
  4c1517:	mov    ecx,0x0
  4c151c:	push   ecx
  4c151d:	call   0x4c1adc
  4c1522:	add    esp,0x48
  4c1525:	pop    ebp
  4c1526:	ret    
  4c1527:	add    BYTE PTR [ebx-0x1374aa01],cl
  4c152d:	sub    esp,0x38
  4c1530:	lea    ebx,[edi+0x4]
  4c1533:	xor    edx,DWORD PTR [ebx-0xe4]
  4c1539:	mov    ecx,0x0
  4c153e:	push   ecx
  4c153f:	call   0x4c1cc8
  4c1544:	push   ebx
  4c1545:	push   DWORD PTR [ebx+0x1b8]
  4c154b:	push   DWORD PTR [ebx+0x54]
  4c154e:	push   edx
  4c154f:	call   0x4c18b4
  4c1554:	add    esp,0xc
  4c1557:	pop    ebx
  4c1558:	mov    ecx,0x0
  4c155d:	push   ecx
  4c155e:	call   0x4c13a8
  4c1563:	add    esp,0x38
  4c1566:	pop    ebp
  4c1567:	ret    
  4c1568:	mov    edi,edi
  4c156a:	push   ebp
  4c156b:	mov    ebp,esp
  4c156d:	sub    esp,0x28
  4c1570:	mov    ecx,0x4c3020
  4c1575:	and    DWORD PTR [ebp-0x24],0x51
  4c1579:	push   ecx
  4c157a:	push   DWORD PTR [ecx+0x168]
  4c1580:	push   DWORD PTR [ecx+0x40]
  4c1583:	push   eax
  4c1584:	push   DWORD PTR [ecx+0xf0]
  4c158a:	call   0x4c16a0
  4c158f:	add    esp,0x10
  4c1592:	pop    ecx
  4c1593:	push   ecx
  4c1594:	push   0x0
  4c1596:	call   0x4c1bd0
  4c159b:	pop    ecx
  4c159c:	push   ecx
  4c159d:	mov    esi,0x0
  4c15a2:	push   esi
  4c15a3:	call   0x4c1d28
  4c15a8:	pop    ecx
  4c15a9:	add    esp,0x28
  4c15ac:	pop    ebp
  4c15ad:	ret    
  4c15ae:	add    BYTE PTR [eax],al
  4c15b0:	mov    edi,edi
  4c15b2:	push   ebp
  4c15b3:	mov    ebp,esp
  4c15b5:	sub    esp,0x28
  4c15b8:	mov    ebx,0x4c3090
  4c15bd:	add    ecx,0xffff9f78
  4c15c3:	push   0x0
  4c15c5:	call   0x4c1a34
  4c15ca:	push   ebx
  4c15cb:	push   DWORD PTR [ebx+0xdc]
  4c15d1:	push   DWORD PTR [ebx+0x1c0]
  4c15d7:	push   eax
  4c15d8:	push   DWORD PTR [ebx+0x1c]
  4c15db:	call   0x4c1e00
  4c15e0:	add    esp,0x10
  4c15e3:	pop    ebx
  4c15e4:	push   0x0
  4c15e6:	call   0x4c13a8
  4c15eb:	add    esp,0x28
  4c15ee:	pop    ebp
  4c15ef:	ret    
  4c15f0:	pop    edi
  4c15f1:	call   DWORD PTR ds:0x4c274c
  4c15f7:	push   edi
  4c15f8:	repz ret 0x0
  4c15fc:	push   edi
  4c15fd:	push   0x0
  4c15ff:	push   0x0
  4c1601:	push   0x0
  4c1603:	push   0x0
  4c1605:	call   0x4c13a8
  4c160a:	sub    esp,0xfffffff8
  4c160d:	call   0x4c13a8
  4c1612:	push   0x4c30a0
  4c1617:	pop    eax
  4c1618:	push   0x2
  4c161a:	push   0x0
  4c161c:	dec    DWORD PTR ds:0x4c30a7
  4c1622:	push   eax
  4c1623:	call   0x4c18f0
  4c1628:	pop    edi
  4c1629:	mov    edi,DWORD PTR [eax+0x3b]
  4c162c:	lea    eax,[eax+edi*1]
  4c162f:	add    eax,0x28
  4c1632:	mov    eax,DWORD PTR [eax]
  4c1634:	pusha  
  4c1635:	mov    ah,0x30
  4c1637:	sub    al,ah
  4c1639:	jb     0x4c1641
  4c163b:	jg     0x4c10cc
  4c1641:	popa   
  4c1642:	ret    
  4c1643:	add    BYTE PTR [edi-0x1],bl
  4c1646:	adc    eax,0x4c273c
  4c164b:	push   edi
  4c164c:	repz ret 0x0
  4c1650:	mov    edi,edi
  4c1652:	push   ebp
  4c1653:	mov    ebp,esp
  4c1655:	sub    esp,0x44
  4c1658:	lea    edx,[ecx+0x110]
  4c165e:	adc    DWORD PTR [edx-0xfc],0x6d4a
  4c1668:	push   edx
  4c1669:	push   DWORD PTR [edx+0x100]
  4c166f:	push   DWORD PTR [edx+0x158]
  4c1675:	call   0x4c14f0
  4c167a:	add    esp,0x8
  4c167d:	pop    edx
  4c167e:	push   edx
  4c167f:	mov    eax,0xfffffff4
  4c1684:	push   eax
  4c1685:	call   0x4c14e4
  4c168a:	pop    edx
  4c168b:	push   edx
  4c168c:	mov    ebx,0x0
  4c1691:	push   ebx
  4c1692:	call   0x4c1adc
  4c1697:	pop    edx
  4c1698:	add    esp,0x44
  4c169b:	pop    ebp
  4c169c:	ret    
  4c169d:	add    BYTE PTR [eax],al
  4c169f:	add    BYTE PTR [ebx-0x1374aa01],cl
  4c16a5:	sub    esp,0x28
  4c16a8:	lea    eax,[ecx+0xd4]
  4c16ae:	adc    DWORD PTR [eax-0x98],0xffff85f8
  4c16b8:	push   eax
  4c16b9:	push   esi
  4c16ba:	push   DWORD PTR [eax+0xf8]
  4c16c0:	push   DWORD PTR [eax+0x1b0]
  4c16c6:	call   0x4c1000
  4c16cb:	add    esp,0xc
  4c16ce:	pop    eax
  4c16cf:	push   eax
  4c16d0:	mov    edx,0x0
  4c16d5:	push   edx
  4c16d6:	call   0x4c1b44
  4c16db:	pop    eax
  4c16dc:	push   eax
  4c16dd:	call   0x4c1d1c
  4c16e2:	pop    eax
  4c16e3:	add    esp,0x28
  4c16e6:	pop    ebp
  4c16e7:	ret    
  4c16e8:	pop    edi
  4c16e9:	call   DWORD PTR ds:0x4c2708
  4c16ef:	push   edi
  4c16f0:	repz ret 0x0
  4c16f4:	mov    edi,edi
  4c16f6:	push   ebp
  4c16f7:	mov    ebp,esp
  4c16f9:	sub    esp,0x34
  4c16fc:	lea    ecx,ds:0x4c3030
  4c1702:	add    ebx,esi
  4c1704:	push   ecx
  4c1705:	push   DWORD PTR [ecx+0x60]
  4c1708:	push   edx
  4c1709:	call   0x4c182c
  4c170e:	add    esp,0x8
  4c1711:	pop    ecx
  4c1712:	push   ecx
  4c1713:	mov    edi,0x0
  4c1718:	push   edi
  4c1719:	call   0x4c1cc8
  4c171e:	pop    ecx
  4c171f:	push   ecx
  4c1720:	push   0x0
  4c1722:	call   0x4c1bd0
  4c1727:	pop    ecx
  4c1728:	add    esp,0x34
  4c172b:	pop    ebp
  4c172c:	ret    
  4c172d:	add    BYTE PTR [eax],al
  4c172f:	add    BYTE PTR [ebx-0x1374aa01],cl
  4c1735:	sub    esp,0x5c
  4c1738:	lea    edx,ds:0x4c3184
  4c173e:	adc    DWORD PTR [ebp-0x8],edx
  4c1741:	push   edx
  4c1742:	call   0x4c193c
  4c1747:	pop    edx
  4c1748:	push   edx
  4c1749:	push   eax
  4c174a:	push   ecx
  4c174b:	call   0x4c17f4
  4c1750:	add    esp,0x8
  4c1753:	pop    edx
  4c1754:	push   edx
  4c1755:	push   0x0
  4c1757:	call   0x4c1cc8
  4c175c:	pop    edx
  4c175d:	add    esp,0x5c
  4c1760:	pop    ebp
  4c1761:	ret    
  4c1762:	add    BYTE PTR [eax],al
  4c1764:	mov    edi,edi
  4c1766:	push   ebp
  4c1767:	mov    ebp,esp
  4c1769:	sub    esp,0x30
  4c176c:	lea    ebx,[ecx+0x38]
  4c176f:	cmp    ebx,0x2145
  4c1775:	jbe    0x4c1767
  4c1777:	push   ebx
  4c1778:	push   DWORD PTR [ebx+0xe4]
  4c177e:	push   esi
  4c177f:	push   ecx
  4c1780:	push   DWORD PTR [ebx+0x1c4]
  4c1786:	call   0x4c1ce0
  4c178b:	add    esp,0x10
  4c178e:	pop    ebx
  4c178f:	push   0x0
  4c1791:	call   0x4c1b44
  4c1796:	call   0x4c1b38
  4c179b:	add    esp,0x30
  4c179e:	pop    ebp
  4c179f:	ret    
  4c17a0:	mov    edi,edi
  4c17a2:	push   ebp
  4c17a3:	mov    ebp,esp
  4c17a5:	sub    esp,0x44
  4c17a8:	lea    edi,[ebx-0x118]
  4c17ae:	or     ecx,DWORD PTR [edi+0xcc]
  4c17b4:	push   edi
  4c17b5:	push   DWORD PTR [edi+0x164]
  4c17bb:	push   DWORD PTR [edi+0x8]
  4c17be:	push   DWORD PTR [edi+0x18]
  4c17c1:	call   0x4c1dc0
  4c17c6:	add    esp,0xc
  4c17c9:	pop    edi
  4c17ca:	push   edi
  4c17cb:	lea    ebx,[edi-0x2c]
  4c17ce:	push   ebx
  4c17cf:	call   0x4c1a28
  4c17d4:	test   eax,eax
  4c17d6:	jne    0x4c17cb
  4c17d8:	pop    edi
  4c17d9:	push   edi
  4c17da:	call   0x4c1a40
  4c17df:	pop    edi
  4c17e0:	add    esp,0x44
  4c17e3:	pop    ebp
  4c17e4:	ret    
  4c17e5:	add    BYTE PTR [eax],al
  4c17e7:	add    BYTE PTR [edi-0x1],bl
  4c17ea:	adc    eax,0x4c2778
  4c17ef:	push   edi
  4c17f0:	repz ret 0x0
  4c17f4:	mov    edi,edi
  4c17f6:	push   ebp
  4c17f7:	mov    ebp,esp
  4c17f9:	sub    esp,0x30
  4c17fc:	lea    ecx,ds:0x4c31e0
  4c1802:	and    eax,DWORD PTR [ebp-0x28]
  4c1805:	push   ecx
  4c1806:	push   0x0
  4c1808:	call   0x4c1bd0
  4c180d:	pop    ecx
  4c180e:	push   ecx
  4c180f:	push   esi
  4c1810:	push   edx
  4c1811:	call   0x4c145c
  4c1816:	add    esp,0x8
  4c1819:	pop    ecx
  4c181a:	push   ecx
  4c181b:	mov    ebx,0x0
  4c1820:	push   ebx
  4c1821:	call   0x4c1450
  4c1826:	pop    ecx
  4c1827:	add    esp,0x30
  4c182a:	pop    ebp
  4c182b:	ret    
  4c182c:	mov    edi,edi
  4c182e:	push   ebp
  4c182f:	mov    ebp,esp
  4c1831:	sub    esp,0x5c
  4c1834:	lea    eax,[ecx+0x54]
  4c1837:	sub    edi,0xffffbfb1
  4c183d:	push   eax
  4c183e:	push   DWORD PTR [eax+0x84]
  4c1844:	push   DWORD PTR [eax+0x18]
  4c1847:	call   0x4c1c20
  4c184c:	add    esp,0x8
  4c184f:	pop    eax
  4c1850:	push   eax
  4c1851:	mov    esi,0x0
  4c1856:	push   esi
  4c1857:	call   0x4c1b44
  4c185c:	pop    eax
  4c185d:	push   eax
  4c185e:	mov    edi,0x0
  4c1863:	push   edi
  4c1864:	call   0x4c1a34
  4c1869:	pop    eax
  4c186a:	add    esp,0x5c
  4c186d:	pop    ebp
  4c186e:	ret    
  4c186f:	add    BYTE PTR [edi-0x1],bl
  4c1872:	adc    eax,0x4c2784
  4c1877:	push   edi
  4c1878:	repz ret 0x0
  4c187c:	mov    edi,edi
  4c187e:	push   ebp
  4c187f:	mov    ebp,esp
  4c1881:	sub    esp,0x34
  4c1884:	mov    ecx,0x4c3014
  4c1889:	adc    ebx,DWORD PTR [ecx-0x8]
  4c188c:	push   ecx
  4c188d:	push   ebx
  4c188e:	push   ebx
  4c188f:	push   DWORD PTR [ecx+0x138]
  4c1895:	call   0x4c1650
  4c189a:	add    esp,0xc
  4c189d:	pop    ecx
  4c189e:	push   ecx
  4c189f:	call   0x4c1d1c
  4c18a4:	pop    ecx
  4c18a5:	push   ecx
  4c18a6:	call   0x4c193c
  4c18ab:	pop    ecx
  4c18ac:	add    esp,0x34
  4c18af:	pop    ebp
  4c18b0:	ret    
  4c18b1:	add    BYTE PTR [eax],al
  4c18b3:	add    BYTE PTR [ebx-0x1374aa01],cl
  4c18b9:	sub    esp,0x20
  4c18bc:	mov    edx,0x4c304c
  4c18c1:	add    ecx,0x14
  4c18c4:	push   edx
  4c18c5:	push   edi
  4c18c6:	push   ecx
  4c18c7:	push   eax
  4c18c8:	push   DWORD PTR [edx+0xac]
  4c18ce:	call   0x4c1a9c
  4c18d3:	add    esp,0x10
  4c18d6:	pop    edx
  4c18d7:	push   edx
  4c18d8:	push   0x0
  4c18da:	call   0x4c1450
  4c18df:	pop    edx
  4c18e0:	push   edx
  4c18e1:	push   0x0
  4c18e3:	call   0x4c1b44
  4c18e8:	pop    edx
  4c18e9:	add    esp,0x20
  4c18ec:	pop    ebp
  4c18ed:	ret    
  4c18ee:	add    BYTE PTR [eax],al
  4c18f0:	pop    edi
  4c18f1:	call   DWORD PTR ds:0x4c26e8
  4c18f7:	push   edi
  4c18f8:	repz ret 0x0
  4c18fc:	mov    edi,edi
  4c18fe:	push   ebp
  4c18ff:	mov    ebp,esp
  4c1901:	sub    esp,0x20
  4c1904:	lea    esi,ds:0x4c30d0
  4c190a:	xor    DWORD PTR [esi+0xd0],0x73
  4c1911:	push   esi
  4c1912:	push   DWORD PTR [esi+0x34]
  4c1915:	push   ebx
  4c1916:	call   0x4c14a0
  4c191b:	add    esp,0x8
  4c191e:	pop    esi
  4c191f:	mov    ebx,0x0
  4c1924:	push   ebx
  4c1925:	call   0x4c1bd0
  4c192a:	mov    ebx,0x0
  4c192f:	push   ebx
  4c1930:	call   0x4c1adc
  4c1935:	add    esp,0x20
  4c1938:	pop    ebp
  4c1939:	ret    
  4c193a:	add    BYTE PTR [eax],al
  4c193c:	pop    edi
  4c193d:	call   DWORD PTR ds:0x4c2730
  4c1943:	push   edi
  4c1944:	repz ret 0x0
  4c1948:	pop    edi
  4c1949:	call   DWORD PTR ds:0x4c275c
  4c194f:	push   edi
  4c1950:	repz ret 0x0
  4c1954:	pop    edi
  4c1955:	call   DWORD PTR ds:0x4c2788
  4c195b:	push   edi
  4c195c:	repz ret 0x0
  4c1960:	mov    edi,edi
  4c1962:	push   ebp
  4c1963:	mov    ebp,esp
  4c1965:	sub    esp,0x3c
  4c1968:	mov    eax,0x4c3128
  4c196d:	adc    ecx,0xffffff8d
  4c1970:	push   eax
  4c1971:	call   0x4c193c
  4c1976:	pop    eax
  4c1977:	push   eax
  4c1978:	push   edx
  4c1979:	push   edx
  4c197a:	push   ecx
  4c197b:	call   0x4c187c
  4c1980:	add    esp,0xc
  4c1983:	pop    eax
  4c1984:	push   eax
  4c1985:	mov    ecx,0x0
  4c198a:	push   ecx
  4c198b:	call   0x4c1a34
  4c1990:	pop    eax
  4c1991:	add    esp,0x3c
  4c1994:	pop    ebp
  4c1995:	ret    
  4c1996:	add    BYTE PTR [eax],al
  4c1998:	mov    edi,edi
  4c199a:	push   ebp
  4c199b:	mov    ebp,esp
  4c199d:	sub    esp,0x3c
  4c19a0:	lea    edi,ds:0x4c31c8
  4c19a6:	sub    DWORD PTR [edi-0x160],edi
  4c19ac:	push   edi
  4c19ad:	push   ebx
  4c19ae:	push   esi
  4c19af:	push   DWORD PTR [edi+0x1c8]
  4c19b5:	push   ecx
  4c19b6:	call   0x4c1528
  4c19bb:	add    esp,0x10
  4c19be:	pop    edi
  4c19bf:	push   edi
  4c19c0:	push   0x0
  4c19c2:	call   0x4c1bd0
  4c19c7:	pop    edi
  4c19c8:	push   edi
  4c19c9:	push   0xfffffff4
  4c19cb:	call   0x4c14e4
  4c19d0:	pop    edi
  4c19d1:	add    esp,0x3c
  4c19d4:	pop    ebp
  4c19d5:	ret    
  4c19d6:	add    BYTE PTR [eax],al
  4c19d8:	mov    edi,edi
  4c19da:	push   ebp
  4c19db:	mov    ebp,esp
  4c19dd:	sub    esp,0x5c
  4c19e0:	mov    eax,0x4c3158
  4c19e5:	or     edi,0xffffffe5
  4c19e8:	push   eax
  4c19e9:	push   ebx
  4c19ea:	push   DWORD PTR [eax+0x144]
  4c19f0:	call   0x4c1224
  4c19f5:	add    esp,0x8
  4c19f8:	pop    eax
  4c19f9:	push   eax
  4c19fa:	push   0x0
  4c19fc:	call   0x4c13a8
  4c1a01:	pop    eax
  4c1a02:	push   eax
  4c1a03:	push   0x0
  4c1a05:	call   0x4c1bd0
  4c1a0a:	pop    eax
  4c1a0b:	add    esp,0x5c
  4c1a0e:	pop    ebp
  4c1a0f:	ret    
  4c1a10:	pop    edi
  4c1a11:	call   DWORD PTR ds:0x4c2720
  4c1a17:	push   edi
  4c1a18:	repz ret 0x0
  4c1a1c:	pop    edi
  4c1a1d:	call   DWORD PTR ds:0x4c270c
  4c1a23:	push   edi
  4c1a24:	repz ret 0x0
  4c1a28:	pop    edi
  4c1a29:	call   DWORD PTR ds:0x4c2700
  4c1a2f:	push   edi
  4c1a30:	repz ret 0x0
  4c1a34:	pop    edi
  4c1a35:	call   DWORD PTR ds:0x4c2728
  4c1a3b:	push   edi
  4c1a3c:	repz ret 0x0
  4c1a40:	pop    edi
  4c1a41:	call   DWORD PTR ds:0x4c2704
  4c1a47:	push   edi
  4c1a48:	repz ret 0x0
  4c1a4c:	mov    edi,edi
  4c1a4e:	push   ebp
  4c1a4f:	mov    ebp,esp
  4c1a51:	sub    esp,0x5c
  4c1a54:	lea    edi,ds:0x4c3104
  4c1a5a:	and    DWORD PTR [ebp-0x5c],eax
  4c1a5d:	push   edi
  4c1a5e:	lea    ebx,[edi-0x104]
  4c1a64:	push   ebx
  4c1a65:	call   0x4c1a28
  4c1a6a:	test   eax,eax
  4c1a6c:	jne    0x4c1a5e
  4c1a6e:	pop    edi
  4c1a6f:	push   edi
  4c1a70:	push   DWORD PTR [edi+0x174]
  4c1a76:	push   DWORD PTR [edi+0x14c]
  4c1a7c:	push   DWORD PTR [edi+0xf0]
  4c1a82:	push   esi
  4c1a83:	call   0x4c1400
  4c1a88:	add    esp,0x10
  4c1a8b:	pop    edi
  4c1a8c:	push   edi
  4c1a8d:	push   0x0
  4c1a8f:	call   0x4c1a34
  4c1a94:	pop    edi
  4c1a95:	add    esp,0x5c
  4c1a98:	pop    ebp
  4c1a99:	ret    
  4c1a9a:	add    BYTE PTR [eax],al
  4c1a9c:	mov    edi,edi
  4c1a9e:	push   ebp
  4c1a9f:	mov    ebp,esp
  4c1aa1:	sub    esp,0x58
  4c1aa4:	mov    edi,0x4c317c
  4c1aa9:	and    ecx,DWORD PTR [edi-0x20]
  4c1aac:	push   edi
  4c1aad:	push   ebx
  4c1aae:	push   DWORD PTR [edi+0x70]
  4c1ab1:	push   DWORD PTR [edi+0xec]
  4c1ab7:	push   DWORD PTR [edi+0x6c]
  4c1aba:	call   0x4c16f4
  4c1abf:	add    esp,0x10
  4c1ac2:	pop    edi
  4c1ac3:	push   edi
  4c1ac4:	call   0x4c1d1c
  4c1ac9:	pop    edi
  4c1aca:	push   edi
  4c1acb:	mov    ecx,0x0
  4c1ad0:	push   ecx
  4c1ad1:	call   0x4c1d28
  4c1ad6:	pop    edi
  4c1ad7:	add    esp,0x58
  4c1ada:	pop    ebp
  4c1adb:	ret    
  4c1adc:	pop    edi
  4c1add:	call   DWORD PTR ds:0x4c272c
  4c1ae3:	push   edi
  4c1ae4:	repz ret 0x0
  4c1ae8:	mov    edi,edi
  4c1aea:	push   ebp
  4c1aeb:	mov    ebp,esp
  4c1aed:	sub    esp,0x54
  4c1af0:	lea    edi,ds:0x4c3064
  4c1af6:	cmp    edi,0x3b42
  4c1afc:	je     0x4c1aeb
  4c1afe:	push   edi
  4c1aff:	mov    edi,0xfffffff4
  4c1b04:	push   edi
  4c1b05:	call   0x4c14e4
  4c1b0a:	pop    edi
  4c1b0b:	push   edi
  4c1b0c:	push   DWORD PTR [edi+0xd0]
  4c1b12:	push   ecx
  4c1b13:	push   DWORD PTR [edi+0x124]
  4c1b19:	push   DWORD PTR [edi+0x1e8]
  4c1b1f:	call   0x4c1360
  4c1b24:	add    esp,0x10
  4c1b27:	pop    edi
  4c1b28:	push   edi
  4c1b29:	push   0x0
  4c1b2b:	call   0x4c1b44
  4c1b30:	pop    edi
  4c1b31:	add    esp,0x54
  4c1b34:	pop    ebp
  4c1b35:	ret    
  4c1b36:	add    BYTE PTR [eax],al
  4c1b38:	pop    edi
  4c1b39:	call   DWORD PTR ds:0x4c2718
  4c1b3f:	push   edi
  4c1b40:	repz ret 0x0
  4c1b44:	pop    edi
  4c1b45:	call   DWORD PTR ds:0x4c2724
  4c1b4b:	push   edi
  4c1b4c:	repz ret 0x0
  4c1b50:	mov    edi,edi
  4c1b52:	push   ebp
  4c1b53:	mov    ebp,esp
  4c1b55:	sub    esp,0x40
  4c1b58:	mov    esi,0x4c3188
  4c1b5d:	or     DWORD PTR [ebp-0x40],edi
  4c1b60:	push   esi
  4c1b61:	push   ebx
  4c1b62:	push   edx
  4c1b63:	push   DWORD PTR [esi+0xb4]
  4c1b69:	call   0x4c1140
  4c1b6e:	add    esp,0xc
  4c1b71:	pop    esi
  4c1b72:	mov    edi,0xfffffff4
  4c1b77:	push   edi
  4c1b78:	call   0x4c14e4
  4c1b7d:	push   0x0
  4c1b7f:	call   0x4c1d28
  4c1b84:	add    esp,0x40
  4c1b87:	pop    ebp
  4c1b88:	ret    
  4c1b89:	add    BYTE PTR [eax],al
  4c1b8b:	add    BYTE PTR [edi-0x1],bl
  4c1b8e:	adc    eax,0x4c26f8
  4c1b93:	push   edi
  4c1b94:	repz ret 0x0
  4c1b98:	mov    edi,edi
  4c1b9a:	push   ebp
  4c1b9b:	mov    ebp,esp
  4c1b9d:	sub    esp,0x5c
  4c1ba0:	lea    edi,[ecx-0xf4]
  4c1ba6:	add    DWORD PTR [ebp-0x20],eax
  4c1ba9:	push   edi
  4c1baa:	mov    esi,0x0
  4c1baf:	push   esi
  4c1bb0:	call   0x4c13a8
  4c1bb5:	pop    edi
  4c1bb6:	push   edi
  4c1bb7:	push   edx
  4c1bb8:	push   ebx
  4c1bb9:	call   0x4c1bdc
  4c1bbe:	add    esp,0x8
  4c1bc1:	pop    edi
  4c1bc2:	push   edi
  4c1bc3:	call   0x4c1b38
  4c1bc8:	pop    edi
  4c1bc9:	add    esp,0x5c
  4c1bcc:	pop    ebp
  4c1bcd:	ret    
  4c1bce:	add    BYTE PTR [eax],al
  4c1bd0:	pop    edi
  4c1bd1:	call   DWORD PTR ds:0x4c2714
  4c1bd7:	push   edi
  4c1bd8:	repz ret 0x0
  4c1bdc:	mov    edi,edi
  4c1bde:	push   ebp
  4c1bdf:	mov    ebp,esp
  4c1be1:	sub    esp,0x28
  4c1be4:	mov    edx,0x4c3110
  4c1be9:	adc    edi,0xffffff83
  4c1bec:	push   edx
  4c1bed:	mov    eax,0x0
  4c1bf2:	push   eax
  4c1bf3:	call   0x4c1cc8
  4c1bf8:	pop    edx
  4c1bf9:	push   edx
  4c1bfa:	push   edi
  4c1bfb:	push   DWORD PTR [edx+0x1f8]
  4c1c01:	push   DWORD PTR [edx+0x1cc]
  4c1c07:	push   eax
  4c1c08:	call   0x4c1ebc
  4c1c0d:	add    esp,0x10
  4c1c10:	pop    edx
  4c1c11:	push   edx
  4c1c12:	push   0x0
  4c1c14:	call   0x4c1450
  4c1c19:	pop    edx
  4c1c1a:	add    esp,0x28
  4c1c1d:	pop    ebp
  4c1c1e:	ret    
  4c1c1f:	add    BYTE PTR [ebx-0x1374aa01],cl
  4c1c25:	sub    esp,0x2c
  4c1c28:	mov    ecx,0x4c310c
  4c1c2d:	sub    eax,0xfffff969
  4c1c32:	push   ecx
  4c1c33:	mov    ecx,0xfffffff4
  4c1c38:	push   ecx
  4c1c39:	call   0x4c14e4
  4c1c3e:	pop    ecx
  4c1c3f:	push   ecx
  4c1c40:	push   ebx
  4c1c41:	push   esi
  4c1c42:	push   DWORD PTR [ecx+0x30]
  4c1c45:	push   edi
  4c1c46:	call   0x4c1b98
  4c1c4b:	add    esp,0x10
  4c1c4e:	pop    ecx
  4c1c4f:	push   ecx
  4c1c50:	call   0x4c1a40
  4c1c55:	pop    ecx
  4c1c56:	add    esp,0x2c
  4c1c59:	pop    ebp
  4c1c5a:	ret    
  4c1c5b:	add    BYTE PTR [edi-0x1],bl
  4c1c5e:	adc    eax,0x4c2758
  4c1c63:	push   edi
  4c1c64:	repz ret 0x0
  4c1c68:	mov    edi,edi
  4c1c6a:	push   ebp
  4c1c6b:	mov    ebp,esp
  4c1c6d:	sub    esp,0x5c
  4c1c70:	lea    edx,[ebx-0xb8]
  4c1c76:	adc    DWORD PTR [ebp-0x30],0x26
  4c1c7a:	push   edx
  4c1c7b:	push   0x0
  4c1c7d:	call   0x4c1d28
  4c1c82:	pop    edx
  4c1c83:	push   edx
  4c1c84:	push   DWORD PTR [edx+0x144]
  4c1c8a:	push   DWORD PTR [edx+0x70]
  4c1c8d:	call   0x4c1324
  4c1c92:	add    esp,0x8
  4c1c95:	pop    edx
  4c1c96:	push   edx
  4c1c97:	push   0xfffffff4
  4c1c99:	call   0x4c14e4
  4c1c9e:	pop    edx
  4c1c9f:	add    esp,0x5c
  4c1ca2:	pop    ebp
  4c1ca3:	ret    
  4c1ca4:	pop    edi
  4c1ca5:	call   DWORD PTR ds:0x4c2760
  4c1cab:	push   edi
  4c1cac:	repz ret 0x0
  4c1cb0:	pop    edi
  4c1cb1:	call   DWORD PTR ds:0x4c26f0
  4c1cb7:	push   edi
  4c1cb8:	repz ret 0x0
  4c1cbc:	pop    edi
  4c1cbd:	call   DWORD PTR ds:0x4c2740
  4c1cc3:	push   edi
  4c1cc4:	repz ret 0x0
  4c1cc8:	pop    edi
  4c1cc9:	call   DWORD PTR ds:0x4c2754
  4c1ccf:	push   edi
  4c1cd0:	repz ret 0x0
  4c1cd4:	pop    edi
  4c1cd5:	call   DWORD PTR ds:0x4c2768
  4c1cdb:	push   edi
  4c1cdc:	repz ret 0x0
  4c1ce0:	mov    edi,edi
  4c1ce2:	push   ebp
  4c1ce3:	mov    ebp,esp
  4c1ce5:	sub    esp,0x38
  4c1ce8:	lea    esi,ds:0x4c3118
  4c1cee:	sub    edi,0x4c
  4c1cf1:	push   esi
  4c1cf2:	push   ebx
  4c1cf3:	push   ecx
  4c1cf4:	call   0x4c1184
  4c1cf9:	add    esp,0x8
  4c1cfc:	pop    esi
  4c1cfd:	call   0x4c1b38
  4c1d02:	push   0x0
  4c1d04:	call   0x4c1bd0
  4c1d09:	add    esp,0x38
  4c1d0c:	pop    ebp
  4c1d0d:	ret    
  4c1d0e:	add    BYTE PTR [eax],al
  4c1d10:	pop    edi
  4c1d11:	call   DWORD PTR ds:0x4c2710
  4c1d17:	push   edi
  4c1d18:	repz ret 0x0
  4c1d1c:	pop    edi
  4c1d1d:	call   DWORD PTR ds:0x4c2734
  4c1d23:	push   edi
  4c1d24:	repz ret 0x0
  4c1d28:	pop    edi
  4c1d29:	call   DWORD PTR ds:0x4c2764
  4c1d2f:	push   edi
  4c1d30:	repz ret 0x0
  4c1d34:	mov    edi,edi
  4c1d36:	push   ebp
  4c1d37:	mov    ebp,esp
  4c1d39:	sub    esp,0x2c
  4c1d3c:	sub    DWORD PTR [edx+0x70],eax
  4c1d3f:	lea    edi,[edx+0xb8]
  4c1d45:	push   edi
  4c1d46:	mov    eax,0x6a8
  4c1d4b:	push   eax
  4c1d4c:	push   0x6a8
  4c1d51:	push   0x40001
  4c1d56:	mov    esi,0x86288c72
  4c1d5b:	push   DWORD PTR [esi+0x7a239a86]
  4c1d61:	sub    DWORD PTR [esp],0x2
  4c1d65:	mov    esi,0x4c26e8
  4c1d6a:	pop    DWORD PTR [esi]
  4c1d6c:	call   0x4c18f0
  4c1d71:	xchg   DWORD PTR [esp],eax
  4c1d74:	mov    edi,eax
  4c1d76:	pop    DWORD PTR [edi-0x78]
  4c1d79:	mov    eax,DWORD PTR [edi-0x78]
  4c1d7c:	mov    esi,eax
  4c1d7e:	sub    ecx,ecx
  4c1d80:	dec    ecx
  4c1d81:	and    ecx,0x4c2038
  4c1d87:	mov    eax,0x45a8d3e7
  4c1d8c:	mov    edx,0x6a8
  4c1d91:	xor    ebx,ebx
  4c1d93:	push   DWORD PTR [ecx+ebx*1]
  4c1d96:	sub    DWORD PTR [esp],eax
  4c1d99:	pop    DWORD PTR [esi+ebx*2]
  4c1d9c:	dec    DWORD PTR [esi]
  4c1d9e:	xor    eax,eax
  4c1da0:	add    eax,DWORD PTR [ecx]
  4c1da2:	add    ecx,0x4
  4c1da5:	add    esi,0x4
  4c1da8:	sub    edx,0x4
  4c1dab:	test   edx,edx
  4c1dad:	jne    0x4c1d91
  4c1daf:	push   edi
  4c1db0:	push   0x0
  4c1db2:	call   0x4c1bd0
  4c1db7:	pop    edi
  4c1db8:	add    esp,0x2c
  4c1dbb:	pop    ebp
  4c1dbc:	ret    
  4c1dbd:	add    BYTE PTR [eax],al
  4c1dbf:	add    BYTE PTR [ebx-0x1374aa01],cl
  4c1dc5:	sub    esp,0x1c
  4c1dc8:	mov    esi,0x4c3118
  4c1dcd:	mov    eax,DWORD PTR [ebp-0x18]
  4c1dd0:	push   0x0
  4c1dd2:	call   0x4c1adc
  4c1dd7:	push   esi
  4c1dd8:	push   DWORD PTR [esi+0x1c8]
  4c1dde:	push   DWORD PTR [esi+0x150]
  4c1de4:	push   DWORD PTR [esi+0x168]
  4c1dea:	push   ecx
  4c1deb:	call   0x4c1088
  4c1df0:	add    esp,0x10
  4c1df3:	pop    esi
  4c1df4:	push   0x0
  4c1df6:	call   0x4c1bd0
  4c1dfb:	add    esp,0x1c
  4c1dfe:	pop    ebp
  4c1dff:	ret    
  4c1e00:	mov    edi,edi
  4c1e02:	push   ebp
  4c1e03:	mov    ebp,esp
  4c1e05:	sub    esp,0x50
  4c1e08:	lea    edx,[ebx+0xc0]
  4c1e0e:	sub    DWORD PTR [ebp-0x30],0xbf4
  4c1e15:	push   edx
  4c1e16:	call   0x4c193c
  4c1e1b:	pop    edx
  4c1e1c:	push   edx
  4c1e1d:	push   DWORD PTR [edx+0xa8]
  4c1e23:	push   eax
  4c1e24:	push   DWORD PTR [edx+0x16c]
  4c1e2a:	push   DWORD PTR [edx+0x160]
  4c1e30:	call   0x4c11d8
  4c1e35:	add    esp,0x10
  4c1e38:	pop    edx
  4c1e39:	push   edx
  4c1e3a:	call   0x4c1b38
  4c1e3f:	pop    edx
  4c1e40:	add    esp,0x50
  4c1e43:	pop    ebp
  4c1e44:	ret    
  4c1e45:	add    BYTE PTR [eax],al
  4c1e47:	add    BYTE PTR [edi-0x1],bl
  4c1e4a:	adc    eax,0x4c2774
  4c1e4f:	push   edi
  4c1e50:	repz ret 0x0
  4c1e54:	mov    edi,edi
  4c1e56:	push   ebp
  4c1e57:	mov    ebp,esp
  4c1e59:	sub    esp,0x58
  4c1e5c:	mov    esi,0x4c3014
  4c1e61:	add    DWORD PTR [esi+0x60],ebx
  4c1e64:	call   0x4c1d1c
  4c1e69:	push   esi
  4c1e6a:	push   DWORD PTR [esi+0x24]
  4c1e6d:	push   eax
  4c1e6e:	push   edi
  4c1e6f:	push   DWORD PTR [esi+0xa8]
  4c1e75:	call   0x4c1ae8
  4c1e7a:	add    esp,0x10
  4c1e7d:	pop    esi
  4c1e7e:	push   0x0
  4c1e80:	call   0x4c1450
  4c1e85:	add    esp,0x58
  4c1e88:	pop    ebp
  4c1e89:	ret    
  4c1e8a:	add    BYTE PTR [eax],al
  4c1e8c:	pop    edi
  4c1e8d:	call   DWORD PTR ds:0x4c2744
  4c1e93:	push   edi
  4c1e94:	repz ret 0x0
  4c1e98:	pop    edi
  4c1e99:	call   DWORD PTR ds:0x4c2750
  4c1e9f:	push   edi
  4c1ea0:	repz ret 0x0
  4c1ea4:	pop    edi
  4c1ea5:	call   DWORD PTR ds:0x4c271c
  4c1eab:	push   edi
  4c1eac:	repz ret 0x0
  4c1eb0:	pop    edi
  4c1eb1:	call   DWORD PTR ds:0x4c276c
  4c1eb7:	push   edi
  4c1eb8:	repz ret 0x0
  4c1ebc:	mov    edi,edi
  4c1ebe:	push   ebp
  4c1ebf:	mov    ebp,esp
  4c1ec1:	sub    esp,0x34
  4c1ec4:	mov    edi,0x4c3168
  4c1ec9:	add    DWORD PTR [edi-0xdc],0x54
  4c1ed0:	push   edi
  4c1ed1:	push   DWORD PTR [edi+0x6c]
  4c1ed4:	push   ecx
  4c1ed5:	call   0x4c19d8
  4c1eda:	add    esp,0x8
  4c1edd:	pop    edi
  4c1ede:	push   edi
  4c1edf:	call   0x4c1a40
  4c1ee4:	pop    edi
  4c1ee5:	push   edi
  4c1ee6:	push   0x0
  4c1ee8:	call   0x4c1a34
  4c1eed:	pop    edi
  4c1eee:	add    esp,0x34
  4c1ef1:	pop    ebp
  4c1ef2:	ret    
	...
