
28206bd6139b3042382882925241a5a457e4ed38c38e5254864318b39db99aac.exe:     file format pei-i386


Disassembly of section .text:

00401000 <.text>:
  401000:	mov    edi,edi
  401002:	push   ebp
  401003:	mov    ebp,esp
  401005:	sub    esp,0x24
  401008:	push   edx
  401009:	push   0x0
  40100b:	push   0x403040
  401010:	pop    eax
  401011:	call   DWORD PTR cs:[eax]
  401014:	pop    edx
  401015:	push   edx
  401016:	push   DWORD PTR [edx+0x4e8]
  40101c:	push   DWORD PTR [edx+0x194]
  401022:	call   0x40199c
  401027:	add    esp,0x8
  40102a:	pop    edx
  40102b:	push   edx
  40102c:	push   0x0
  40102e:	push   0x403000
  401033:	pop    eax
  401034:	call   DWORD PTR cs:[eax]
  401037:	pop    edx
  401038:	sub    esp,0xffffffdc
  40103b:	mov    ebp,DWORD PTR [esp]
  40103e:	add    esp,0x4
  401041:	ret    
  401042:	add    BYTE PTR [eax],al
  401044:	mov    edi,edi
  401046:	push   ebp
  401047:	mov    ebp,esp
  401049:	sub    esp,0x24
  40104c:	push   edx
  40104d:	push   0x403018
  401052:	pop    eax
  401053:	call   DWORD PTR cs:[eax]
  401056:	pop    edx
  401057:	push   edx
  401058:	push   ecx
  401059:	push   ecx
  40105a:	push   DWORD PTR [edx+0x448]
  401060:	call   0x401cd0
  401065:	add    esp,0xc
  401068:	pop    edx
  401069:	push   edx
  40106a:	lea    esi,[edx]
  40106c:	push   esi
  40106d:	push   0x403034
  401072:	pop    eax
  401073:	call   DWORD PTR cs:[eax]
  401076:	test   eax,eax
  401078:	jne    0x40106a
  40107a:	pop    edx
  40107b:	sub    esp,0xffffffdc
  40107e:	mov    ebp,DWORD PTR [esp]
  401081:	add    esp,0x4
  401084:	ret    
  401085:	add    BYTE PTR [eax],al
  401087:	add    BYTE PTR [edi],cl
  401089:	adc    BYTE PTR [edx+0x0],0x0
  40108d:	add    BYTE PTR [eax],al
  40108f:	add    BYTE PTR [eax],al
  401091:	add    BYTE PTR [eax],al
  401093:	add    BYTE PTR [ebx-0x1374aa01],cl
  401099:	sub    esp,0x20
  40109c:	push   edx
  40109d:	push   DWORD PTR [edx+0x64]
  4010a0:	push   DWORD PTR [edx+0x80]
  4010a6:	call   0x401a28
  4010ab:	add    esp,0x8
  4010ae:	pop    edx
  4010af:	push   edx
  4010b0:	mov    ebx,0x0
  4010b5:	push   ebx
  4010b6:	push   0x403060
  4010bb:	pop    eax
  4010bc:	call   DWORD PTR cs:[eax]
  4010bf:	pop    edx
  4010c0:	push   edx
  4010c1:	mov    eax,0x0
  4010c6:	push   eax
  4010c7:	push   0x403074
  4010cc:	pop    eax
  4010cd:	call   DWORD PTR cs:[eax]
  4010d0:	pop    edx
  4010d1:	sub    esp,0xffffffe0
  4010d4:	mov    ebp,DWORD PTR [esp]
  4010d7:	add    esp,0x4
  4010da:	ret    
  4010db:	add    BYTE PTR [eax],al
  4010dd:	add    BYTE PTR [eax],al
  4010df:	add    BYTE PTR [ebx-0x74aa9f01],cl
  4010e5:	in     al,dx
  4010e6:	sub    esp,0x4c
  4010e9:	push   edx
  4010ea:	mov    ecx,0x0
  4010ef:	push   ecx
  4010f0:	push   0x40302c
  4010f5:	pop    eax
  4010f6:	call   DWORD PTR cs:[eax]
  4010f9:	pop    edx
  4010fa:	test   eax,eax
  4010fc:	je     0x4010ff
  4010fe:	ret    
  4010ff:	push   edx
  401100:	push   DWORD PTR [edx+0x390]
  401106:	push   edi
  401107:	push   ebx
  401108:	push   DWORD PTR [edx+0xc]
  40110b:	call   0x401be8
  401110:	add    esp,0x10
  401113:	pop    edx
  401114:	push   edx
  401115:	mov    edi,0x0
  40111a:	push   edi
  40111b:	push   0x403028
  401120:	pop    eax
  401121:	call   DWORD PTR cs:[eax]
  401124:	pop    edx
  401125:	mov    edi,0x403034
  40112a:	mov    edi,DWORD PTR [edi]
  40112c:	push   edi
  40112d:	push   DWORD PTR [edx+0x490]
  401133:	pop    ecx
  401134:	call   ecx
  401136:	sub    esp,0xffffffb4
  401139:	mov    ebp,DWORD PTR [esp]
  40113c:	add    esp,0x4
  40113f:	ret    
  401140:	add    BYTE PTR [eax],al
  401142:	add    BYTE PTR [eax],al
  401144:	mov    edi,edi
  401146:	push   ebp
  401147:	mov    ebp,esp
  401149:	sub    esp,0x3c
  40114c:	push   edx
  40114d:	push   esi
  40114e:	push   ecx
  40114f:	push   edi
  401150:	call   0x401340
  401155:	add    esp,0xc
  401158:	pop    edx
  401159:	push   edx
  40115a:	mov    ebx,0x0
  40115f:	push   ebx
  401160:	push   0x403040
  401165:	pop    eax
  401166:	call   DWORD PTR cs:[eax]
  401169:	pop    edx
  40116a:	push   edx
  40116b:	mov    edi,0x0
  401170:	push   edi
  401171:	push   0x403028
  401176:	pop    eax
  401177:	call   DWORD PTR cs:[eax]
  40117a:	pop    edx
  40117b:	sub    esp,0xffffffc4
  40117e:	mov    ebp,DWORD PTR [esp]
  401181:	add    esp,0x4
  401184:	ret    
  401185:	add    BYTE PTR [eax],al
  401187:	add    BYTE PTR [eax],al
  401189:	add    BYTE PTR [eax],al
  40118b:	add    BYTE PTR [ebx-0x1374aa01],cl
  401191:	sub    esp,0x58
  401194:	push   edx
  401195:	push   DWORD PTR [edx+0x290]
  40119b:	push   ecx
  40119c:	push   DWORD PTR [edx+0x34c]
  4011a2:	call   0x4016a0
  4011a7:	add    esp,0xc
  4011aa:	pop    edx
  4011ab:	push   edx
  4011ac:	mov    edi,0x0
  4011b1:	push   edi
  4011b2:	push   0x403060
  4011b7:	pop    eax
  4011b8:	call   DWORD PTR cs:[eax]
  4011bb:	pop    edx
  4011bc:	push   edx
  4011bd:	push   0x0
  4011bf:	push   0x403074
  4011c4:	pop    eax
  4011c5:	call   DWORD PTR cs:[eax]
  4011c8:	pop    edx
  4011c9:	sub    esp,0xffffffa8
  4011cc:	mov    ebp,DWORD PTR [esp]
  4011cf:	add    esp,0x4
  4011d2:	ret    
  4011d3:	add    BYTE PTR [ebx-0x1374aa01],cl
  4011d9:	sub    esp,0x20
  4011dc:	push   edx
  4011dd:	push   0x403018
  4011e2:	pop    eax
  4011e3:	call   DWORD PTR cs:[eax]
  4011e6:	pop    edx
  4011e7:	push   edx
  4011e8:	push   DWORD PTR [edx+0x1e8]
  4011ee:	push   eax
  4011ef:	call   0x4012f8
  4011f4:	add    esp,0x8
  4011f7:	pop    edx
  4011f8:	push   edx
  4011f9:	push   0x0
  4011fb:	push   0x40300c
  401200:	pop    eax
  401201:	call   DWORD PTR cs:[eax]
  401204:	pop    edx
  401205:	sub    esp,0xffffffe0
  401208:	mov    ebp,DWORD PTR [esp]
  40120b:	add    esp,0x4
  40120e:	ret    
  40120f:	add    BYTE PTR [ebx-0x1374aa01],cl
  401215:	sub    esp,0x24
  401218:	push   edx
  401219:	mov    edi,0x0
  40121e:	push   edi
  40121f:	push   0x40302c
  401224:	pop    eax
  401225:	call   DWORD PTR cs:[eax]
  401228:	pop    edx
  401229:	push   edx
  40122a:	push   DWORD PTR [edx+0x3c8]
  401230:	push   DWORD PTR [edx+0x208]
  401236:	push   DWORD PTR [edx+0x450]
  40123c:	push   esi
  40123d:	call   0x4012b8
  401242:	add    esp,0x10
  401245:	pop    edx
  401246:	push   edx
  401247:	lea    esi,[edx]
  401249:	push   esi
  40124a:	push   0x403034
  40124f:	pop    eax
  401250:	call   DWORD PTR cs:[eax]
  401253:	test   eax,eax
  401255:	jne    0x401247
  401257:	pop    edx
  401258:	sub    esp,0xffffffdc
  40125b:	mov    ebp,DWORD PTR [esp]
  40125e:	add    esp,0x4
  401261:	ret    
  401262:	add    BYTE PTR [eax],al
  401264:	mov    edi,edi
  401266:	push   ebp
  401267:	mov    ebp,esp
  401269:	sub    esp,0x3c
  40126c:	push   edx
  40126d:	push   DWORD PTR [edx+0x464]
  401273:	push   DWORD PTR [edx+0x1b4]
  401279:	push   eax
  40127a:	push   ecx
  40127b:	call   0x4014a4
  401280:	add    esp,0x10
  401283:	pop    edx
  401284:	push   edx
  401285:	mov    ebx,0x0
  40128a:	push   ebx
  40128b:	push   0x403000
  401290:	pop    eax
  401291:	call   DWORD PTR cs:[eax]
  401294:	pop    edx
  401295:	push   edx
  401296:	mov    esi,0x0
  40129b:	push   esi
  40129c:	push   0x403064
  4012a1:	pop    eax
  4012a2:	call   DWORD PTR cs:[eax]
  4012a5:	pop    edx
  4012a6:	sub    esp,0xffffffc4
  4012a9:	mov    ebp,DWORD PTR [esp]
  4012ac:	add    esp,0x4
  4012af:	ret    
	...
  4012b8:	mov    edi,edi
  4012ba:	push   ebp
  4012bb:	mov    ebp,esp
  4012bd:	sub    esp,0x58
  4012c0:	push   edx
  4012c1:	push   0x403018
  4012c6:	pop    eax
  4012c7:	call   DWORD PTR cs:[eax]
  4012ca:	pop    edx
  4012cb:	push   edx
  4012cc:	push   ebx
  4012cd:	push   DWORD PTR [edx+0x2c0]
  4012d3:	push   edi
  4012d4:	call   0x401910
  4012d9:	add    esp,0xc
  4012dc:	pop    edx
  4012dd:	push   edx
  4012de:	push   0x403018
  4012e3:	pop    eax
  4012e4:	call   DWORD PTR cs:[eax]
  4012e7:	pop    edx
  4012e8:	sub    esp,0xffffffa8
  4012eb:	mov    ebp,DWORD PTR [esp]
  4012ee:	add    esp,0x4
  4012f1:	ret    
  4012f2:	add    BYTE PTR [eax],al
  4012f4:	add    BYTE PTR [eax],al
  4012f6:	add    BYTE PTR [eax],al
  4012f8:	mov    edi,edi
  4012fa:	push   ebp
  4012fb:	mov    ebp,esp
  4012fd:	sub    esp,0x2c
  401300:	push   edx
  401301:	mov    edx,0x0
  401306:	push   edx
  401307:	push   0x403074
  40130c:	pop    eax
  40130d:	call   DWORD PTR cs:[eax]
  401310:	pop    edx
  401311:	push   edx
  401312:	push   edi
  401313:	push   esi
  401314:	call   0x4016e4
  401319:	add    esp,0x8
  40131c:	pop    edx
  40131d:	push   edx
  40131e:	mov    esi,0x0
  401323:	push   esi
  401324:	push   0x403010
  401329:	pop    eax
  40132a:	call   DWORD PTR cs:[eax]
  40132d:	pop    edx
  40132e:	sub    esp,0xffffffd4
  401331:	mov    ebp,DWORD PTR [esp]
  401334:	add    esp,0x4
  401337:	ret    
	...
  401340:	mov    edi,edi
  401342:	push   ebp
  401343:	mov    ebp,esp
  401345:	sub    esp,0x5c
  401348:	push   edx
  401349:	mov    ebx,0x0
  40134e:	push   ebx
  40134f:	push   0x403060
  401354:	pop    eax
  401355:	call   DWORD PTR cs:[eax]
  401358:	pop    edx
  401359:	push   edx
  40135a:	push   DWORD PTR [edx+0x174]
  401360:	push   DWORD PTR [edx+0x39c]
  401366:	call   0x401c30
  40136b:	add    esp,0x8
  40136e:	pop    edx
  40136f:	push   edx
  401370:	push   0x403018
  401375:	pop    eax
  401376:	call   DWORD PTR cs:[eax]
  401379:	pop    edx
  40137a:	sub    esp,0xffffffa4
  40137d:	mov    ebp,DWORD PTR [esp]
  401380:	add    esp,0x4
  401383:	ret    
  401384:	mov    edi,edi
  401386:	push   ebp
  401387:	mov    ebp,esp
  401389:	sub    esp,0x28
  40138c:	push   edx
  40138d:	lea    ebx,[edx]
  40138f:	push   ebx
  401390:	push   0x403034
  401395:	pop    eax
  401396:	call   DWORD PTR cs:[eax]
  401399:	test   eax,eax
  40139b:	jne    0x40138d
  40139d:	pop    edx
  40139e:	push   edx
  40139f:	push   ecx
  4013a0:	push   DWORD PTR [edx+0x74]
  4013a3:	push   DWORD PTR [edx+0x4c0]
  4013a9:	call   0x401264
  4013ae:	add    esp,0xc
  4013b1:	pop    edx
  4013b2:	push   edx
  4013b3:	push   0x0
  4013b5:	push   0x403000
  4013ba:	pop    eax
  4013bb:	call   DWORD PTR cs:[eax]
  4013be:	pop    edx
  4013bf:	sub    esp,0xffffffd8
  4013c2:	mov    ebp,DWORD PTR [esp]
  4013c5:	add    esp,0x4
  4013c8:	ret    
	...
  4013d5:	add    BYTE PTR [eax],al
  4013d7:	add    BYTE PTR [ebx-0x1374aa01],cl
  4013dd:	sub    esp,0x4c
  4013e0:	push   edx
  4013e1:	mov    edx,0x0
  4013e6:	push   edx
  4013e7:	push   0x40303c
  4013ec:	pop    eax
  4013ed:	call   DWORD PTR cs:[eax]
  4013f0:	pop    edx
  4013f1:	push   edx
  4013f2:	push   esi
  4013f3:	push   eax
  4013f4:	call   0x401da8
  4013f9:	add    esp,0x8
  4013fc:	pop    edx
  4013fd:	push   edx
  4013fe:	mov    edx,0x0
  401403:	push   edx
  401404:	push   0x40304c
  401409:	pop    eax
  40140a:	call   DWORD PTR cs:[eax]
  40140d:	pop    edx
  40140e:	sub    esp,0xffffffb4
  401411:	mov    ebp,DWORD PTR [esp]
  401414:	add    esp,0x4
  401417:	ret    
  401418:	mov    edi,edi
  40141a:	push   ebp
  40141b:	mov    ebp,esp
  40141d:	sub    esp,0x5c
  401420:	push   edx
  401421:	push   edi
  401422:	push   DWORD PTR [edx+0x404]
  401428:	call   0x401df4
  40142d:	add    esp,0x8
  401430:	pop    edx
  401431:	push   edx
  401432:	push   0x0
  401434:	push   0x40303c
  401439:	pop    eax
  40143a:	call   DWORD PTR cs:[eax]
  40143d:	pop    edx
  40143e:	push   edx
  40143f:	mov    eax,0x0
  401444:	push   eax
  401445:	push   0x403064
  40144a:	pop    eax
  40144b:	call   DWORD PTR cs:[eax]
  40144e:	pop    edx
  40144f:	sub    esp,0xffffffa4
  401452:	mov    ebp,DWORD PTR [esp]
  401455:	add    esp,0x4
  401458:	ret    
  401459:	add    BYTE PTR [eax],al
  40145b:	add    BYTE PTR [ebx-0x1374aa01],cl
  401461:	sub    esp,0x20
  401464:	push   edx
  401465:	push   esi
  401466:	push   DWORD PTR [edx+0x4d4]
  40146c:	push   DWORD PTR [edx+0x3b4]
  401472:	call   0x401144
  401477:	add    esp,0xc
  40147a:	pop    edx
  40147b:	push   edx
  40147c:	push   0x0
  40147e:	push   0x403028
  401483:	pop    eax
  401484:	call   DWORD PTR cs:[eax]
  401487:	pop    edx
  401488:	push   edx
  401489:	mov    ecx,0x0
  40148e:	push   ecx
  40148f:	push   0x403064
  401494:	pop    eax
  401495:	call   DWORD PTR cs:[eax]
  401498:	pop    edx
  401499:	sub    esp,0xffffffe0
  40149c:	mov    ebp,DWORD PTR [esp]
  40149f:	add    esp,0x4
  4014a2:	ret    
  4014a3:	add    BYTE PTR [ebx-0x1374aa01],cl
  4014a9:	sub    esp,0x30
  4014ac:	push   edx
  4014ad:	push   ebx
  4014ae:	push   ecx
  4014af:	push   ecx
  4014b0:	push   DWORD PTR [edx+0x35c]
  4014b6:	call   0x401e3c
  4014bb:	add    esp,0x10
  4014be:	pop    edx
  4014bf:	push   edx
  4014c0:	mov    ebx,0x0
  4014c5:	push   ebx
  4014c6:	push   0x40302c
  4014cb:	pop    eax
  4014cc:	call   DWORD PTR cs:[eax]
  4014cf:	pop    edx
  4014d0:	push   edx
  4014d1:	push   0x0
  4014d3:	push   0x40300c
  4014d8:	pop    eax
  4014d9:	call   DWORD PTR cs:[eax]
  4014dc:	pop    edx
  4014dd:	sub    esp,0xffffffd0
  4014e0:	mov    ebp,DWORD PTR [esp]
  4014e3:	add    esp,0x4
  4014e6:	ret    
  4014e7:	add    BYTE PTR [edx+0x0],ch
  4014ea:	add    DWORD PTR [esp],0x47f000
  4014f1:	xor    ecx,ecx
  4014f3:	or     ecx,0x40309c
  4014f9:	and    WORD PTR [ecx],0x0
  4014fd:	push   DWORD PTR [ecx]
  4014ff:	pop    eax
  401500:	mov    edx,eax
  401502:	push   0x3c
  401504:	add    DWORD PTR [esp],eax
  401507:	pop    ecx
  401508:	push   eax
  401509:	mov    edi,esp
  40150b:	mov    esi,ecx
  40150d:	movs   DWORD PTR es:[edi],DWORD PTR ds:[esi]
  40150e:	pop    eax
  40150f:	mov    edx,DWORD PTR [eax+edx*1+0x1c]
  401513:	ror    edx,0x8
  401516:	xor    eax,eax
  401518:	or     al,0x80
  40151a:	cmp    al,dl
  40151c:	pop    edx
  40151d:	ja     0x401528
  40151f:	nop
  401520:	nop
  401521:	nop
  401522:	nop
  401523:	jmp    0x401088
  401528:	xor    esp,esp
  40152a:	int3   
  40152b:	int3   
	...
  401538:	mov    edi,edi
  40153a:	push   ebp
  40153b:	mov    ebp,esp
  40153d:	sub    esp,0x58
  401540:	push   edx
  401541:	mov    ebx,0x0
  401546:	push   ebx
  401547:	push   0x403010
  40154c:	pop    eax
  40154d:	call   DWORD PTR cs:[eax]
  401550:	pop    edx
  401551:	push   edx
  401552:	push   ecx
  401553:	push   DWORD PTR [edx+0x84]
  401559:	push   ecx
  40155a:	call   0x40183c
  40155f:	add    esp,0xc
  401562:	pop    edx
  401563:	push   edx
  401564:	mov    eax,0x0
  401569:	push   eax
  40156a:	push   0x40300c
  40156f:	pop    eax
  401570:	call   DWORD PTR cs:[eax]
  401573:	pop    edx
  401574:	sub    esp,0xffffffa8
  401577:	mov    ebp,DWORD PTR [esp]
  40157a:	add    esp,0x4
  40157d:	ret    
	...
  401586:	add    BYTE PTR [eax],al
  401588:	mov    edi,edi
  40158a:	push   ebp
  40158b:	mov    ebp,esp
  40158d:	sub    esp,0x60
  401590:	push   edx
  401591:	push   0x0
  401593:	push   0x403010
  401598:	pop    eax
  401599:	call   DWORD PTR cs:[eax]
  40159c:	pop    edx
  40159d:	push   edx
  40159e:	push   ecx
  40159f:	push   ebx
  4015a0:	call   0x401418
  4015a5:	add    esp,0x8
  4015a8:	pop    edx
  4015a9:	push   edx
  4015aa:	push   0x0
  4015ac:	push   0x40302c
  4015b1:	pop    eax
  4015b2:	call   DWORD PTR cs:[eax]
  4015b5:	pop    edx
  4015b6:	sub    esp,0xffffffa0
  4015b9:	mov    ebp,DWORD PTR [esp]
  4015bc:	add    esp,0x4
  4015bf:	ret    
  4015c0:	mov    edi,edi
  4015c2:	push   ebp
  4015c3:	mov    ebp,esp
  4015c5:	sub    esp,0x38
  4015c8:	push   edx
  4015c9:	push   DWORD PTR [edx+0x234]
  4015cf:	push   DWORD PTR [edx+0x5e0]
  4015d5:	push   DWORD PTR [edx+0x510]
  4015db:	call   0x401b14
  4015e0:	add    esp,0xc
  4015e3:	pop    edx
  4015e4:	push   edx
  4015e5:	push   0x0
  4015e7:	push   0x40303c
  4015ec:	pop    eax
  4015ed:	call   DWORD PTR cs:[eax]
  4015f0:	pop    edx
  4015f1:	push   edx
  4015f2:	push   0x0
  4015f4:	push   0x403040
  4015f9:	pop    eax
  4015fa:	call   DWORD PTR cs:[eax]
  4015fd:	pop    edx
  4015fe:	sub    esp,0xffffffc8
  401601:	mov    ebp,DWORD PTR [esp]
  401604:	add    esp,0x4
  401607:	ret    
  401608:	mov    edi,edi
  40160a:	push   ebp
  40160b:	mov    ebp,esp
  40160d:	sub    esp,0x5c
  401610:	push   edx
  401611:	push   0x403018
  401616:	pop    eax
  401617:	call   DWORD PTR cs:[eax]
  40161a:	pop    edx
  40161b:	push   edx
  40161c:	push   ebx
  40161d:	push   ebx
  40161e:	call   0x401950
  401623:	add    esp,0x8
  401626:	pop    edx
  401627:	push   edx
  401628:	mov    esi,0x0
  40162d:	push   esi
  40162e:	push   0x403010
  401633:	pop    eax
  401634:	call   DWORD PTR cs:[eax]
  401637:	pop    edx
  401638:	sub    esp,0xffffffa4
  40163b:	mov    ebp,DWORD PTR [esp]
  40163e:	add    esp,0x4
  401641:	ret    
	...
  401652:	add    BYTE PTR [eax],al
  401654:	mov    edi,edi
  401656:	push   ebp
  401657:	mov    ebp,esp
  401659:	sub    esp,0x48
  40165c:	push   edx
  40165d:	push   0x0
  40165f:	push   0x403000
  401664:	pop    eax
  401665:	call   DWORD PTR cs:[eax]
  401668:	pop    edx
  401669:	push   edx
  40166a:	push   DWORD PTR [edx+0x94]
  401670:	push   edi
  401671:	push   DWORD PTR [edx+0x1b0]
  401677:	call   0x4017f4
  40167c:	add    esp,0xc
  40167f:	pop    edx
  401680:	push   edx
  401681:	mov    edi,0x0
  401686:	push   edi
  401687:	push   0x40300c
  40168c:	pop    eax
  40168d:	call   DWORD PTR cs:[eax]
  401690:	pop    edx
  401691:	sub    esp,0xffffffb8
  401694:	mov    ebp,DWORD PTR [esp]
  401697:	add    esp,0x4
  40169a:	ret    
  40169b:	add    BYTE PTR [eax],al
  40169d:	add    BYTE PTR [eax],al
  40169f:	add    BYTE PTR [ebx-0x1374aa01],cl
  4016a5:	sub    esp,0x60
  4016a8:	push   edx
  4016a9:	push   DWORD PTR [edx+0xb8]
  4016af:	push   DWORD PTR [edx+0x100]
  4016b5:	push   edi
  4016b6:	call   0x401000
  4016bb:	add    esp,0xc
  4016be:	pop    edx
  4016bf:	push   edx
  4016c0:	push   0x0
  4016c2:	push   0x403040
  4016c7:	pop    eax
  4016c8:	call   DWORD PTR cs:[eax]
  4016cb:	pop    edx
  4016cc:	push   edx
  4016cd:	push   0x0
  4016cf:	push   0x403030
  4016d4:	pop    eax
  4016d5:	call   DWORD PTR cs:[eax]
  4016d8:	pop    edx
  4016d9:	sub    esp,0xffffffa0
  4016dc:	mov    ebp,DWORD PTR [esp]
  4016df:	add    esp,0x4
  4016e2:	ret    
  4016e3:	add    BYTE PTR [ebx-0x1374aa01],cl
  4016e9:	sub    esp,0x58
  4016ec:	push   edx
  4016ed:	push   0x0
  4016ef:	push   0x403000
  4016f4:	pop    eax
  4016f5:	call   DWORD PTR cs:[eax]
  4016f8:	pop    edx
  4016f9:	push   edx
  4016fa:	push   DWORD PTR [edx+0x1f4]
  401700:	push   edi
  401701:	call   0x401ba8
  401706:	add    esp,0x8
  401709:	pop    edx
  40170a:	push   edx
  40170b:	mov    ecx,0x0
  401710:	push   ecx
  401711:	push   0x403010
  401716:	pop    eax
  401717:	call   DWORD PTR cs:[eax]
  40171a:	pop    edx
  40171b:	sub    esp,0xffffffa8
  40171e:	mov    ebp,DWORD PTR [esp]
  401721:	add    esp,0x4
  401724:	ret    
  401725:	add    BYTE PTR [eax],al
  401727:	add    BYTE PTR [eax],al
  401729:	add    BYTE PTR [eax],al
  40172b:	add    BYTE PTR [ebx-0x1374aa01],cl
  401731:	sub    esp,0x24
  401734:	push   edx
  401735:	mov    esi,0x0
  40173a:	push   esi
  40173b:	push   0x403060
  401740:	pop    eax
  401741:	call   DWORD PTR cs:[eax]
  401744:	pop    edx
  401745:	push   edx
  401746:	push   ecx
  401747:	push   DWORD PTR [edx+0x4a0]
  40174d:	push   ecx
  40174e:	call   0x4019e0
  401753:	add    esp,0xc
  401756:	pop    edx
  401757:	push   edx
  401758:	push   0x0
  40175a:	push   0x40300c
  40175f:	pop    eax
  401760:	call   DWORD PTR cs:[eax]
  401763:	pop    edx
  401764:	sub    esp,0xffffffdc
  401767:	mov    ebp,DWORD PTR [esp]
  40176a:	add    esp,0x4
  40176d:	ret    
	...
  401776:	add    BYTE PTR [eax],al
  401778:	mov    edi,edi
  40177a:	push   ebp
  40177b:	mov    ebp,esp
  40177d:	sub    esp,0x5c
  401780:	push   edx
  401781:	push   0x0
  401783:	push   0x40302c
  401788:	pop    eax
  401789:	call   DWORD PTR cs:[eax]
  40178c:	pop    edx
  40178d:	push   edx
  40178e:	push   DWORD PTR [edx+0x214]
  401794:	push   eax
  401795:	push   ecx
  401796:	call   0x401888
  40179b:	add    esp,0xc
  40179e:	pop    edx
  40179f:	push   edx
  4017a0:	push   0x403018
  4017a5:	pop    eax
  4017a6:	call   DWORD PTR cs:[eax]
  4017a9:	pop    edx
  4017aa:	sub    esp,0xffffffa4
  4017ad:	mov    ebp,DWORD PTR [esp]
  4017b0:	add    esp,0x4
  4017b3:	ret    
  4017b4:	add    BYTE PTR [eax],al
  4017b6:	add    BYTE PTR [eax],al
  4017b8:	mov    edi,edi
  4017ba:	push   ebp
  4017bb:	mov    ebp,esp
  4017bd:	sub    esp,0x2c
  4017c0:	push   edx
  4017c1:	push   edi
  4017c2:	push   ebx
  4017c3:	call   0x401538
  4017c8:	add    esp,0x8
  4017cb:	pop    edx
  4017cc:	push   edx
  4017cd:	mov    esi,0x0
  4017d2:	push   esi
  4017d3:	push   0x403040
  4017d8:	pop    eax
  4017d9:	call   DWORD PTR cs:[eax]
  4017dc:	pop    edx
  4017dd:	push   edx
  4017de:	push   0x0
  4017e0:	push   0x403010
  4017e5:	pop    eax
  4017e6:	call   DWORD PTR cs:[eax]
  4017e9:	pop    edx
  4017ea:	sub    esp,0xffffffd4
  4017ed:	mov    ebp,DWORD PTR [esp]
  4017f0:	add    esp,0x4
  4017f3:	ret    
  4017f4:	mov    edi,edi
  4017f6:	push   ebp
  4017f7:	mov    ebp,esp
  4017f9:	sub    esp,0x60
  4017fc:	push   edx
  4017fd:	push   0x0
  4017ff:	push   0x403000
  401804:	pop    eax
  401805:	call   DWORD PTR cs:[eax]
  401808:	pop    edx
  401809:	push   edx
  40180a:	push   DWORD PTR [edx+0x410]
  401810:	push   esi
  401811:	call   0x401384
  401816:	add    esp,0x8
  401819:	pop    edx
  40181a:	push   edx
  40181b:	mov    ecx,0x0
  401820:	push   ecx
  401821:	push   0x403030
  401826:	pop    eax
  401827:	call   DWORD PTR cs:[eax]
  40182a:	pop    edx
  40182b:	sub    esp,0xffffffa0
  40182e:	mov    ebp,DWORD PTR [esp]
  401831:	add    esp,0x4
  401834:	ret    
  401835:	add    BYTE PTR [eax],al
  401837:	add    BYTE PTR [eax],al
  401839:	add    BYTE PTR [eax],al
  40183b:	add    BYTE PTR [ebx-0x1374aa01],cl
  401841:	sub    esp,0x30
  401844:	push   edx
  401845:	push   0x0
  401847:	push   0x40304c
  40184c:	pop    eax
  40184d:	call   DWORD PTR cs:[eax]
  401850:	pop    edx
  401851:	push   edx
  401852:	push   DWORD PTR [edx+0xb0]
  401858:	push   DWORD PTR [edx+0x23c]
  40185e:	push   esi
  40185f:	push   DWORD PTR [edx+0x30c]
  401865:	call   0x401094
  40186a:	add    esp,0x10
  40186d:	pop    edx
  40186e:	push   edx
  40186f:	push   0x0
  401871:	push   0x403040
  401876:	pop    eax
  401877:	call   DWORD PTR cs:[eax]
  40187a:	pop    edx
  40187b:	sub    esp,0xffffffd0
  40187e:	mov    ebp,DWORD PTR [esp]
  401881:	add    esp,0x4
  401884:	ret    
  401885:	add    BYTE PTR [eax],al
  401887:	add    BYTE PTR [ebx-0x1374aa01],cl
  40188d:	sub    esp,0x34
  401890:	push   edx
  401891:	push   0x0
  401893:	push   0x403010
  401898:	pop    eax
  401899:	call   DWORD PTR cs:[eax]
  40189c:	pop    edx
  40189d:	push   edx
  40189e:	push   ecx
  40189f:	push   esi
  4018a0:	call   0x4013d8
  4018a5:	add    esp,0x8
  4018a8:	pop    edx
  4018a9:	push   edx
  4018aa:	push   0x0
  4018ac:	push   0x40300c
  4018b1:	pop    eax
  4018b2:	call   DWORD PTR cs:[eax]
  4018b5:	pop    edx
  4018b6:	sub    esp,0xffffffcc
  4018b9:	mov    ebp,DWORD PTR [esp]
  4018bc:	add    esp,0x4
  4018bf:	ret    
  4018c0:	add    BYTE PTR [eax],al
  4018c2:	add    BYTE PTR [eax],al
  4018c4:	mov    edi,edi
  4018c6:	push   ebp
  4018c7:	mov    ebp,esp
  4018c9:	sub    esp,0x38
  4018cc:	push   edx
  4018cd:	mov    edx,0x0
  4018d2:	push   edx
  4018d3:	push   0x403028
  4018d8:	pop    eax
  4018d9:	call   DWORD PTR cs:[eax]
  4018dc:	pop    edx
  4018dd:	push   edx
  4018de:	push   DWORD PTR [edx+0x5e0]
  4018e4:	push   ebx
  4018e5:	push   DWORD PTR [edx+0x5d4]
  4018eb:	call   0x401778
  4018f0:	add    esp,0xc
  4018f3:	pop    edx
  4018f4:	push   edx
  4018f5:	push   0x0
  4018f7:	push   0x403030
  4018fc:	pop    eax
  4018fd:	call   DWORD PTR cs:[eax]
  401900:	pop    edx
  401901:	sub    esp,0xffffffc8
  401904:	mov    ebp,DWORD PTR [esp]
  401907:	add    esp,0x4
  40190a:	ret    
  40190b:	add    BYTE PTR [eax],al
  40190d:	add    BYTE PTR [eax],al
  40190f:	add    BYTE PTR [ebx-0x1374aa01],cl
  401915:	sub    esp,0x3c
  401918:	push   edx
  401919:	push   0x0
  40191b:	push   0x40304c
  401920:	pop    eax
  401921:	call   DWORD PTR cs:[eax]
  401924:	pop    edx
  401925:	push   edx
  401926:	push   edi
  401927:	push   DWORD PTR [edx+0x53c]
  40192d:	call   0x4011d4
  401932:	add    esp,0x8
  401935:	pop    edx
  401936:	push   edx
  401937:	push   0x0
  401939:	push   0x403064
  40193e:	pop    eax
  40193f:	call   DWORD PTR cs:[eax]
  401942:	pop    edx
  401943:	sub    esp,0xffffffc4
  401946:	mov    ebp,DWORD PTR [esp]
  401949:	add    esp,0x4
  40194c:	ret    
  40194d:	add    BYTE PTR [eax],al
  40194f:	add    BYTE PTR [ebx-0x1374aa01],cl
  401955:	sub    esp,0x4c
  401958:	push   edx
  401959:	mov    edi,0x0
  40195e:	push   edi
  40195f:	push   0x403030
  401964:	pop    eax
  401965:	call   DWORD PTR cs:[eax]
  401968:	pop    edx
  401969:	push   edx
  40196a:	push   DWORD PTR [edx+0x22c]
  401970:	push   DWORD PTR [edx+0x2bc]
  401976:	call   0x401654
  40197b:	add    esp,0x8
  40197e:	pop    edx
  40197f:	push   edx
  401980:	mov    ecx,0x0
  401985:	push   ecx
  401986:	push   0x403040
  40198b:	pop    eax
  40198c:	call   DWORD PTR cs:[eax]
  40198f:	pop    edx
  401990:	sub    esp,0xffffffb4
  401993:	mov    ebp,DWORD PTR [esp]
  401996:	add    esp,0x4
  401999:	ret    
  40199a:	add    BYTE PTR [eax],al
  40199c:	mov    edi,edi
  40199e:	push   ebp
  40199f:	mov    ebp,esp
  4019a1:	sub    esp,0x4c
  4019a4:	push   edx
  4019a5:	mov    eax,0x0
  4019aa:	push   eax
  4019ab:	push   0x40302c
  4019b0:	pop    eax
  4019b1:	call   DWORD PTR cs:[eax]
  4019b4:	pop    edx
  4019b5:	push   edx
  4019b6:	push   ebx
  4019b7:	push   ebx
  4019b8:	push   esi
  4019b9:	push   esi
  4019ba:	call   0x4018c4
  4019bf:	add    esp,0x10
  4019c2:	pop    edx
  4019c3:	push   edx
  4019c4:	mov    edi,0x0
  4019c9:	push   edi
  4019ca:	push   0x403064
  4019cf:	pop    eax
  4019d0:	call   DWORD PTR cs:[eax]
  4019d3:	pop    edx
  4019d4:	sub    esp,0xffffffb4
  4019d7:	mov    ebp,DWORD PTR [esp]
  4019da:	add    esp,0x4
  4019dd:	ret    
  4019de:	add    BYTE PTR [eax],al
  4019e0:	mov    edi,edi
  4019e2:	push   ebp
  4019e3:	mov    ebp,esp
  4019e5:	sub    esp,0x34
  4019e8:	push   edx
  4019e9:	mov    ebx,0x0
  4019ee:	push   ebx
  4019ef:	push   0x403030
  4019f4:	pop    eax
  4019f5:	call   DWORD PTR cs:[eax]
  4019f8:	pop    edx
  4019f9:	push   edx
  4019fa:	push   eax
  4019fb:	push   DWORD PTR [edx+0x5f4]
  401a01:	call   0x401d14
  401a06:	add    esp,0x8
  401a09:	pop    edx
  401a0a:	push   edx
  401a0b:	mov    edx,0x0
  401a10:	push   edx
  401a11:	push   0x403000
  401a16:	pop    eax
  401a17:	call   DWORD PTR cs:[eax]
  401a1a:	pop    edx
  401a1b:	sub    esp,0xffffffcc
  401a1e:	mov    ebp,DWORD PTR [esp]
  401a21:	add    esp,0x4
  401a24:	ret    
  401a25:	add    BYTE PTR [eax],al
  401a27:	add    BYTE PTR [ebx-0x1374aa01],cl
  401a2d:	sub    esp,0x20
  401a30:	push   edx
  401a31:	push   DWORD PTR [edx+0x4a4]
  401a37:	push   eax
  401a38:	call   0x401210
  401a3d:	add    esp,0x8
  401a40:	pop    edx
  401a41:	push   edx
  401a42:	mov    ecx,0x0
  401a47:	push   ecx
  401a48:	push   0x40303c
  401a4d:	pop    eax
  401a4e:	call   DWORD PTR cs:[eax]
  401a51:	pop    edx
  401a52:	push   edx
  401a53:	mov    ebx,0x0
  401a58:	push   ebx
  401a59:	push   0x40302c
  401a5e:	pop    eax
  401a5f:	call   DWORD PTR cs:[eax]
  401a62:	pop    edx
  401a63:	sub    esp,0xffffffe0
  401a66:	mov    ebp,DWORD PTR [esp]
  401a69:	add    esp,0x4
  401a6c:	ret    
	...
  401a75:	add    BYTE PTR [eax],al
  401a77:	add    BYTE PTR [ebx-0x1374aa01],cl
  401a7d:	sub    esp,0x54
  401a80:	push   edx
  401a81:	push   ebx
  401a82:	push   DWORD PTR [edx+0x2e4]
  401a88:	call   0x4015c0
  401a8d:	add    esp,0x8
  401a90:	pop    edx
  401a91:	push   edx
  401a92:	mov    edx,0x0
  401a97:	push   edx
  401a98:	push   0x403030
  401a9d:	pop    eax
  401a9e:	call   DWORD PTR cs:[eax]
  401aa1:	pop    edx
  401aa2:	push   edx
  401aa3:	mov    edx,0x0
  401aa8:	push   edx
  401aa9:	push   0x403000
  401aae:	pop    eax
  401aaf:	call   DWORD PTR cs:[eax]
  401ab2:	pop    edx
  401ab3:	sub    esp,0xffffffac
  401ab6:	mov    ebp,DWORD PTR [esp]
  401ab9:	add    esp,0x4
  401abc:	ret    
  401abd:	add    BYTE PTR [eax],al
  401abf:	add    BYTE PTR [eax],al
  401ac1:	add    BYTE PTR [eax],al
  401ac3:	add    BYTE PTR [ebx-0x1374aa01],cl
  401ac9:	sub    esp,0x4c
  401acc:	push   edx
  401acd:	push   DWORD PTR [edx+0x580]
  401ad3:	push   DWORD PTR [edx+0x370]
  401ad9:	push   ebx
  401ada:	call   0x401b54
  401adf:	add    esp,0xc
  401ae2:	pop    edx
  401ae3:	push   edx
  401ae4:	push   0x0
  401ae6:	push   0x403000
  401aeb:	pop    eax
  401aec:	call   DWORD PTR cs:[eax]
  401aef:	pop    edx
  401af0:	push   edx
  401af1:	push   0x0
  401af3:	push   0x403028
  401af8:	pop    eax
  401af9:	call   DWORD PTR cs:[eax]
  401afc:	pop    edx
  401afd:	sub    esp,0xffffffb4
  401b00:	mov    ebp,DWORD PTR [esp]
  401b03:	add    esp,0x4
  401b06:	ret    
	...
  401b13:	add    BYTE PTR [ebx-0x1374aa01],cl
  401b19:	sub    esp,0x30
  401b1c:	push   edx
  401b1d:	push   esi
  401b1e:	push   ecx
  401b1f:	push   esi
  401b20:	push   ebx
  401b21:	call   0x401ac4
  401b26:	add    esp,0x10
  401b29:	pop    edx
  401b2a:	push   edx
  401b2b:	push   0x0
  401b2d:	push   0x403064
  401b32:	pop    eax
  401b33:	call   DWORD PTR cs:[eax]
  401b36:	pop    edx
  401b37:	push   edx
  401b38:	mov    eax,0x0
  401b3d:	push   eax
  401b3e:	push   0x403060
  401b43:	pop    eax
  401b44:	call   DWORD PTR cs:[eax]
  401b47:	pop    edx
  401b48:	sub    esp,0xffffffd0
  401b4b:	mov    ebp,DWORD PTR [esp]
  401b4e:	add    esp,0x4
  401b51:	ret    
  401b52:	add    BYTE PTR [eax],al
  401b54:	mov    edi,edi
  401b56:	push   ebp
  401b57:	mov    ebp,esp
  401b59:	sub    esp,0x5c
  401b5c:	push   edx
  401b5d:	push   DWORD PTR [edx+0x80]
  401b63:	push   edi
  401b64:	push   DWORD PTR [edx+0x444]
  401b6a:	push   ecx
  401b6b:	call   0x4017b8
  401b70:	add    esp,0x10
  401b73:	pop    edx
  401b74:	push   edx
  401b75:	lea    esi,[edx]
  401b77:	push   esi
  401b78:	push   0x403034
  401b7d:	pop    eax
  401b7e:	call   DWORD PTR cs:[eax]
  401b81:	test   eax,eax
  401b83:	jne    0x401b75
  401b85:	pop    edx
  401b86:	push   edx
  401b87:	lea    eax,[edx]
  401b89:	push   eax
  401b8a:	push   0x403034
  401b8f:	pop    eax
  401b90:	call   DWORD PTR cs:[eax]
  401b93:	test   eax,eax
  401b95:	jne    0x401b87
  401b97:	pop    edx
  401b98:	sub    esp,0xffffffa4
  401b9b:	mov    ebp,DWORD PTR [esp]
  401b9e:	add    esp,0x4
  401ba1:	ret    
  401ba2:	add    BYTE PTR [eax],al
  401ba4:	add    BYTE PTR [eax],al
  401ba6:	add    BYTE PTR [eax],al
  401ba8:	mov    edi,edi
  401baa:	push   ebp
  401bab:	mov    ebp,esp
  401bad:	sub    esp,0x28
  401bb0:	push   edx
  401bb1:	push   0x0
  401bb3:	push   0x40302c
  401bb8:	pop    eax
  401bb9:	call   DWORD PTR cs:[eax]
  401bbc:	pop    edx
  401bbd:	push   edx
  401bbe:	push   edi
  401bbf:	push   esi
  401bc0:	push   edi
  401bc1:	push   edi
  401bc2:	call   0x401588
  401bc7:	add    esp,0x10
  401bca:	pop    edx
  401bcb:	push   edx
  401bcc:	mov    esi,0x0
  401bd1:	push   esi
  401bd2:	push   0x403074
  401bd7:	pop    eax
  401bd8:	call   DWORD PTR cs:[eax]
  401bdb:	pop    edx
  401bdc:	sub    esp,0xffffffd8
  401bdf:	mov    ebp,DWORD PTR [esp]
  401be2:	add    esp,0x4
  401be5:	ret    
  401be6:	add    BYTE PTR [eax],al
  401be8:	mov    edi,edi
  401bea:	push   ebp
  401beb:	mov    ebp,esp
  401bed:	sub    esp,0x1c
  401bf0:	push   edx
  401bf1:	mov    ebx,0x0
  401bf6:	push   ebx
  401bf7:	push   0x403040
  401bfc:	pop    eax
  401bfd:	call   DWORD PTR cs:[eax]
  401c00:	pop    edx
  401c01:	push   edx
  401c02:	push   DWORD PTR [edx+0x248]
  401c08:	push   ebx
  401c09:	push   eax
  401c0a:	call   0x401a78
  401c0f:	add    esp,0xc
  401c12:	pop    edx
  401c13:	push   edx
  401c14:	push   0x0
  401c16:	push   0x403028
  401c1b:	pop    eax
  401c1c:	call   DWORD PTR cs:[eax]
  401c1f:	pop    edx
  401c20:	sub    esp,0xffffffe4
  401c23:	mov    ebp,DWORD PTR [esp]
  401c26:	add    esp,0x4
  401c29:	ret    
  401c2a:	add    BYTE PTR [eax],al
  401c2c:	add    BYTE PTR [eax],al
  401c2e:	add    BYTE PTR [eax],al
  401c30:	mov    edi,edi
  401c32:	push   ebp
  401c33:	mov    ebp,esp
  401c35:	sub    esp,0x3c
  401c38:	push   edx
  401c39:	mov    ebx,0x6b0
  401c3e:	push   ebx
  401c3f:	mov    ebx,0x6b0
  401c44:	push   ebx
  401c45:	mov    ebx,0x40000
  401c4a:	push   ebx
  401c4b:	push   0x403008
  401c50:	pop    ebx
  401c51:	push   DWORD PTR [ebx]
  401c53:	sub    DWORD PTR [esp],0x2
  401c57:	push   0x403014
  401c5c:	pop    ebx
  401c5d:	pop    DWORD PTR [ebx]
  401c5f:	push   0x403014
  401c64:	pop    eax
  401c65:	call   DWORD PTR cs:[eax]
  401c68:	xchg   DWORD PTR [esp],eax
  401c6b:	mov    edx,eax
  401c6d:	pop    eax
  401c6e:	mov    DWORD PTR [edx+0x490],eax
  401c74:	mov    esi,DWORD PTR [edx+0x490]
  401c7a:	mov    esi,esi
  401c7c:	sub    edi,edi
  401c7e:	dec    edi
  401c7f:	and    edi,0x401e95
  401c85:	mov    ecx,DWORD PTR [edi]
  401c87:	mov    DWORD PTR [esi],ecx
  401c89:	add    edi,0x3
  401c8c:	add    esi,0x3
  401c8f:	mov    ecx,0x6a719112
  401c94:	mov    ebx,0x6b0
  401c99:	mov    eax,ecx
  401c9b:	xor    eax,DWORD PTR [edi]
  401c9d:	sub    eax,0x1
  401ca0:	mov    DWORD PTR [esi],eax
  401ca2:	push   DWORD PTR [esi]
  401ca4:	mov    ecx,0xfffffffc
  401ca9:	sub    edi,ecx
  401cab:	sub    esi,ecx
  401cad:	pop    ecx
  401cae:	bswap  ecx
  401cb0:	sub    ebx,0x4
  401cb3:	cmp    ebx,0x0
  401cb6:	jne    0x401c99
  401cb8:	push   edx
  401cb9:	mov    edi,0x0
  401cbe:	push   edi
  401cbf:	push   0x40302c
  401cc4:	pop    eax
  401cc5:	call   DWORD PTR cs:[eax]
  401cc8:	pop    edx
  401cc9:	sub    esp,0xffffffc4
  401ccc:	pop    ebp
  401ccd:	ret    
  401cce:	add    BYTE PTR [eax],al
  401cd0:	mov    edi,edi
  401cd2:	push   ebp
  401cd3:	mov    ebp,esp
  401cd5:	sub    esp,0x60
  401cd8:	push   edx
  401cd9:	push   DWORD PTR [edx+0x33c]
  401cdf:	push   DWORD PTR [edx+0x1a0]
  401ce5:	call   0x401608
  401cea:	add    esp,0x8
  401ced:	pop    edx
  401cee:	push   edx
  401cef:	push   0x0
  401cf1:	push   0x40302c
  401cf6:	pop    eax
  401cf7:	call   DWORD PTR cs:[eax]
  401cfa:	pop    edx
  401cfb:	push   edx
  401cfc:	push   0x0
  401cfe:	push   0x403074
  401d03:	pop    eax
  401d04:	call   DWORD PTR cs:[eax]
  401d07:	pop    edx
  401d08:	sub    esp,0xffffffa0
  401d0b:	mov    ebp,DWORD PTR [esp]
  401d0e:	add    esp,0x4
  401d11:	ret    
  401d12:	add    BYTE PTR [eax],al
  401d14:	mov    edi,edi
  401d16:	push   ebp
  401d17:	mov    ebp,esp
  401d19:	sub    esp,0x58
  401d1c:	push   edx
  401d1d:	push   ecx
  401d1e:	push   DWORD PTR [edx+0x2b8]
  401d24:	call   0x40145c
  401d29:	add    esp,0x8
  401d2c:	pop    edx
  401d2d:	push   edx
  401d2e:	lea    edx,[edx]
  401d30:	push   edx
  401d31:	push   0x403034
  401d36:	pop    eax
  401d37:	call   DWORD PTR cs:[eax]
  401d3a:	test   eax,eax
  401d3c:	jne    0x401d2e
  401d3e:	pop    edx
  401d3f:	push   edx
  401d40:	mov    eax,0x0
  401d45:	push   eax
  401d46:	push   0x403074
  401d4b:	pop    eax
  401d4c:	call   DWORD PTR cs:[eax]
  401d4f:	pop    edx
  401d50:	sub    esp,0xffffffa8
  401d53:	mov    ebp,DWORD PTR [esp]
  401d56:	add    esp,0x4
  401d59:	ret    
  401d5a:	add    BYTE PTR [eax],al
  401d5c:	mov    edi,edi
  401d5e:	push   ebp
  401d5f:	mov    ebp,esp
  401d61:	sub    esp,0x44
  401d64:	push   edx
  401d65:	push   ecx
  401d66:	push   eax
  401d67:	push   DWORD PTR [edx]
  401d69:	call   0x40118c
  401d6e:	add    esp,0xc
  401d71:	pop    edx
  401d72:	push   edx
  401d73:	push   0x0
  401d75:	push   0x40302c
  401d7a:	pop    eax
  401d7b:	call   DWORD PTR cs:[eax]
  401d7e:	pop    edx
  401d7f:	push   edx
  401d80:	mov    ebx,0x0
  401d85:	push   ebx
  401d86:	push   0x403000
  401d8b:	pop    eax
  401d8c:	call   DWORD PTR cs:[eax]
  401d8f:	pop    edx
  401d90:	sub    esp,0xffffffbc
  401d93:	mov    ebp,DWORD PTR [esp]
  401d96:	add    esp,0x4
  401d99:	ret    
	...
  401da6:	add    BYTE PTR [eax],al
  401da8:	mov    edi,edi
  401daa:	push   ebp
  401dab:	mov    ebp,esp
  401dad:	sub    esp,0x30
  401db0:	push   edx
  401db1:	push   DWORD PTR [edx+0x148]
  401db7:	push   DWORD PTR [edx+0x140]
  401dbd:	push   DWORD PTR [edx+0x510]
  401dc3:	push   esi
  401dc4:	call   0x40172c
  401dc9:	add    esp,0x10
  401dcc:	pop    edx
  401dcd:	push   edx
  401dce:	push   0x403018
  401dd3:	pop    eax
  401dd4:	call   DWORD PTR cs:[eax]
  401dd7:	pop    edx
  401dd8:	push   edx
  401dd9:	mov    edi,0x0
  401dde:	push   edi
  401ddf:	push   0x40300c
  401de4:	pop    eax
  401de5:	call   DWORD PTR cs:[eax]
  401de8:	pop    edx
  401de9:	sub    esp,0xffffffd0
  401dec:	mov    ebp,DWORD PTR [esp]
  401def:	add    esp,0x4
  401df2:	ret    
  401df3:	add    BYTE PTR [ebx-0x1374aa01],cl
  401df9:	sub    esp,0x30
  401dfc:	push   edx
  401dfd:	push   esi
  401dfe:	push   ecx
  401dff:	push   DWORD PTR [edx+0x240]
  401e05:	push   DWORD PTR [edx+0x24]
  401e08:	call   0x401044
  401e0d:	add    esp,0x10
  401e10:	pop    edx
  401e11:	push   edx
  401e12:	push   0x0
  401e14:	push   0x403010
  401e19:	pop    eax
  401e1a:	call   DWORD PTR cs:[eax]
  401e1d:	pop    edx
  401e1e:	push   edx
  401e1f:	lea    ebx,[edx]
  401e21:	push   ebx
  401e22:	push   0x403034
  401e27:	pop    eax
  401e28:	call   DWORD PTR cs:[eax]
  401e2b:	test   eax,eax
  401e2d:	jne    0x401e1f
  401e2f:	pop    edx
  401e30:	sub    esp,0xffffffd0
  401e33:	mov    ebp,DWORD PTR [esp]
  401e36:	add    esp,0x4
  401e39:	ret    
  401e3a:	add    BYTE PTR [eax],al
  401e3c:	mov    edi,edi
  401e3e:	push   ebp
  401e3f:	mov    ebp,esp
  401e41:	sub    esp,0x48
  401e44:	push   edx
  401e45:	push   esi
  401e46:	push   DWORD PTR [edx+0x4ac]
  401e4c:	call   0x401d5c
  401e51:	add    esp,0x8
  401e54:	pop    edx
  401e55:	push   edx
  401e56:	push   0x403024
  401e5b:	pop    eax
  401e5c:	call   DWORD PTR cs:[eax]
  401e5f:	pop    edx
  401e60:	push   edx
  401e61:	lea    edi,[edx]
  401e63:	push   edi
  401e64:	push   0x403034
  401e69:	pop    eax
  401e6a:	call   DWORD PTR cs:[eax]
  401e6d:	test   eax,eax
  401e6f:	jne    0x401e61
  401e71:	pop    edx
  401e72:	sub    esp,0xffffffb8
  401e75:	mov    ebp,DWORD PTR [esp]
  401e78:	add    esp,0x4
  401e7b:	ret    
  401e7c:	mov    fs,WORD PTR [edi]
  401e7e:	ss jbe 0x401e8e
  401e81:	out    0xfa,eax
  401e83:	mov    edi,0xd0e7a61b
  401e88:	fwait
  401e89:	lea    ebx,[ebp-0xc7c8c37]
  401e8f:	in     al,0x3d
  401e91:	pop    ecx
  401e92:	xor    bl,dl
  401e94:	mov    edi,0xeffdc80f
  401e99:	sahf   
  401e9a:	mov    ecx,0xc7c70097
  401e9f:	add    DWORD PTR [eax],eax
  401ea1:	mov    edi,0xc6e30001
  401ea7:	jg     0x401eea
  401ea9:	retf   0xa27e
  401eac:	mov    ebp,0x310580a8
  401eb1:	imul   esi,eax,0xffffffe2
  401eb4:	add    DWORD PTR ds:0x251691a3,ecx
  401eba:	gs ins BYTE PTR es:[edi],dx
  401ebc:	pop    eax
  401ebd:	push   edi
  401ebe:	inc    eax
  401ebf:	push   ss
  401ec0:	or     DWORD PTR [edx+0x32],eax
  401ec3:	imul   ecx,DWORD PTR [ecx],0xffffffff
  401ec6:	mov    edx,0xbcd552e7
  401ecb:	ins    BYTE PTR es:[edi],dx
  401ecc:	mov    esi,0x81d8533b
  401ed1:	push   esp
  401ed2:	js     0x401ecb
  401ed4:	pop    edx
  401ed5:	call   0xf444a4ca
  401eda:	mov    ch,0xa0
  401edc:	jge    0x401ec2
  401ede:	adc    BYTE PTR [eax],al
  401ee0:	add    DWORD PTR [eax],edx
  401ee2:	adc    al,0x1d
  401ee4:	sbb    ebp,DWORD PTR [edi+0x468a0000]
  401eea:	(bad)  
  401eeb:	adc    BYTE PTR [esi+edx*4],dl
  401eee:	and    eax,0x60f2ae1
  401ef3:	call   0x3110:0x20092406
  401efa:	sbb    edx,DWORD PTR [edi+0x76dd5ba9]
  401f00:	ins    DWORD PTR es:[edi],dx
  401f01:	mov    DWORD PTR [eax+0x13],esp
  401f04:	xor    eax,0x2102650d
  401f09:	add    BYTE PTR [edx+eax*1],al
  401f0c:	and    eax,0x5c1d9a32
  401f11:	jbe    0x401f28
  401f13:	push   eax
  401f14:	add    BYTE PTR [edx+0x702b6291],0xc4
  401f1b:	xchg   ebx,eax
  401f1c:	adc    DWORD PTR [eax],eax
  401f1e:	add    al,ah
  401f20:	cmps   DWORD PTR ds:[esi],DWORD PTR es:[edi]
  401f21:	push   0xff6b6a00
  401f26:	push   ebp
  401f27:	push   ss
  401f28:	pushf  
  401f29:	lods   eax,DWORD PTR ds:[esi]
  401f2a:	cli    
  401f2b:	cdq    
  401f2c:	cwde   
  401f2d:	add    eax,0xb5dedbf8
  401f32:	aam    0xf9
  401f34:	stc    
  401f35:	aam    0xf
  401f37:	sub    eax,0xcffb9a7
  401f3c:	push   esi
  401f3d:	ret    
  401f3e:	call   0xc428acd0
  401f43:	stc    
  401f44:	add    al,BYTE PTR [edi-0x238cdecc]
  401f4a:	jl     0x401fa6
  401f4c:	add    eax,0x3f6f00fb
  401f51:	call   0x6ab2aa56
  401f56:	add    BYTE PTR [edi+0x6b],ch
  401f59:	call   FWORD PTR [edi]
  401f5b:	pushf  
  401f5c:	cmp    al,0x8a
  401f5e:	stos   BYTE PTR es:[edi],al
  401f5f:	sub    BYTE PTR [eax+ebx*1+0x3c6b3d97],ah
  401f66:	adc    eax,0x47cca74
  401f6b:	push   ecx
  401f6c:	push   es
  401f6d:	pop    es
  401f6e:	(bad)  [ecx+0x78]
  401f71:	cmps   DWORD PTR ds:[esi],DWORD PTR es:[edi]
  401f72:	add    BYTE PTR [ecx-0x364fb057],ch
  401f78:	loope  0x401f62
  401f7a:	sbb    dh,bl
  401f7c:	int3   
  401f7d:	cmp    al,0x8d
  401f7f:	pop    es
  401f80:	add    ebp,ebx
  401f82:	retf   
  401f83:	push   es
  401f84:	push   edi
  401f85:	test   DWORD PTR [esi+0x73],0x22581962
  401f8c:	inc    ecx
  401f8d:	dec    ecx
  401f8e:	mov    dl,0x4e
  401f90:	ins    DWORD PTR es:[edi],dx
  401f91:	loope  0x401fa8
  401f93:	sbb    al,0x69
  401f95:	xor    al,0x6a
  401f97:	xor    al,0x0
  401f99:	jno    0x401ffb
  401f9b:	push   ebx
  401f9c:	push   ebx
  401f9d:	push   es
  401f9e:	pusha  
  401f9f:	je     0x401f96
  401fa1:	jl     0x401fa8
  401fa3:	stos   DWORD PTR es:[edi],eax
  401fa4:	aas    
  401fa5:	push   esp
  401fa6:	cmp    ebp,DWORD PTR [esi]
  401fa8:	push   ebx
  401fa9:	add    DWORD PTR [eax],ecx
  401fab:	ds aas 
  401fad:	push   cs
  401fae:	add    ch,BYTE PTR [esp+eax*1+0x77e1cddc]
  401fb5:	cmp    al,0x2f
  401fb7:	or     BYTE PTR [esi-0xe],bl
  401fba:	jmp    DWORD PTR [ebx-0x49a93d2c]
  401fc0:	je     0x401f50
  401fc2:	mov    bh,0x93
  401fc4:	xchg   esp,eax
  401fc5:	lods   eax,DWORD PTR cs:[esi]
  401fc7:	xor    esi,DWORD PTR [edi-0x577bc9f]
  401fcd:	sbb    esi,esi
  401fcf:	dec    BYTE PTR [esi-0x29]
  401fd2:	test   BYTE PTR [edi+0x72a00e52],bh
  401fd8:	ss dec ebx
  401fda:	ret    0x8e1c
  401fdd:	xchg   edi,edi
  401fdf:	jnp    0x401fb4
  401fe1:	out    0xc4,eax
  401fe3:	test   DWORD PTR [ecx],eax
  401fe5:	(bad)  
  401fe6:	pop    ebx
  401fe7:	arpl   bx,ax
  401fe9:	in     al,dx
  401fea:	arpl   WORD PTR [ebp+0x76],si
  401fed:	call   0x14bb6416
  401ff2:	push   DWORD PTR [ebp+0x66]
  401ff5:	je     0x402062
  401ff7:	jnp    0x402001
  401ff9:	test   al,dl
  401ffb:	inc    eax
  401ffc:	fmul   QWORD PTR [edi+0x50253a9]
  402002:	test   ecx,ebx
  402004:	cmp    DWORD PTR [ebp+0x6],edx
  402007:	push   es
  402008:	push   edi
  402009:	pop    es
  40200a:	or     BYTE PTR [ebx],dh
  40200c:	ins    DWORD PTR es:[edi],dx
  40200d:	int3   
  40200e:	add    cl,BYTE PTR [eax+ebx*2]
  402011:	or     BYTE PTR [ebx-0x8],cl
  402014:	aas    
  402015:	das    
  402016:	mov    al,ds:0xc5a758ff
  40201b:	jo     0x402068
  40201d:	dec    ecx
  40201e:	mov    edx,0x29e958bd
  402023:	mov    DWORD PTR [ecx],0x1e88ae9
  402029:	xor    DWORD PTR [eax+0x186968],0x28760000
  402033:	push   esi
  402034:	ficom  DWORD PTR [ebx-0x78e6f002]
  40203a:	dec    DWORD PTR [ebx-0x220c9fff]
  402040:	add    al,0xff
  402042:	add    BYTE PTR fs:[ecx-0x75],bl
  402046:	inc    eax
  402047:	cmp    al,0x80
  402049:	add    BYTE PTR [edi+0x34146061],al
  40204f:	(bad)
  402053:	scas   eax,DWORD PTR es:[edi]
  402054:	jnp    0x40203d
  402056:	and    al,0x88
  402058:	dec    ecx
  402059:	sbb    BYTE PTR [edi-0x3477a706],al
  40205f:	shl    al,0xef
  402062:	mov    bl,BYTE PTR [eax+0x6d]
  402065:	out    dx,eax
  402066:	out    dx,eax
  402067:	cmp    DWORD PTR [esi-0x9],edx
  40206a:	inc    esi
  40206b:	imul   edi,DWORD PTR [eax+0x44],0xa1190ea1
  402072:	fs xchg edx,ecx
  402075:	xor    BYTE PTR [ecx+0x65767178],cl
  40207b:	push   esp
  40207c:	std    
  40207d:	jbe    0x40207c
  40207f:	or     BYTE PTR [ecx],al
  402081:	pop    edi
  402082:	jmp    0x7e1c:0x79bdd2b0
  402089:	je     0x402027
  40208b:	mov    dh,0x3a
  40208d:	call   0x791a59e2
  402092:	pop    eax
  402093:	add    al,0x3
  402095:	pop    eax
  402096:	js     0x40208c
  402098:	mov    eax,DWORD PTR gs:[esi+eiz*1]
  40209c:	in     al,dx
  40209d:	add    BYTE PTR [edi+0x424010f],ch
  4020a3:	cmp    BYTE PTR [edx+0x64500424],cl
  4020a9:	(bad)  
  4020aa:	out    0x14,eax
  4020ac:	in     al,dx
  4020ad:	xor    bl,al
  4020af:	inc    ebp
  4020b0:	dec    ebx
  4020b1:	mov    BYTE PTR [ebp+0xb],al
  4020b4:	xor    DWORD PTR [esi+0x7472b98b],0xf8f70373
  4020be:	or     bh,dl
  4020c0:	mov    al,BYTE PTR [ecx-0x70916601]
  4020c6:	test   al,0x7a
  4020c8:	test   eax,0xb6c37e53
  4020cd:	adc    DWORD PTR [ebx-0x56],0x235457a9
  4020d4:	fisub  DWORD PTR [esi]
  4020d6:	adc    BYTE PTR [esi-0x9],dl
  4020d9:	fwait
  4020da:	mov    BYTE PTR [esi],ah
  4020dc:	sub    edi,DWORD PTR [esi]
  4020de:	dec    BYTE PTR [eax]
  4020e0:	xlat   BYTE PTR ds:[ebx]
  4020e1:	or     BYTE PTR [ebx+0x4b],0x91
  4020e5:	fisub  DWORD PTR [edi+0x543f7f]
  4020eb:	or     DWORD PTR [edi+0x7],edx
  4020ee:	or     BYTE PTR [edx+ebx*8],bh
  4020f1:	or     dl,al
  4020f3:	aas    
  4020f4:	push   ecx
  4020f5:	adc    eax,0x657cd8d
  4020fa:	movs   BYTE PTR es:[edi],BYTE PTR ds:[esi]
  4020fb:	xchg   ebx,eax
  4020fc:	pop    ebx
  4020fd:	cdq    
  4020fe:	or     al,dl
  402100:	mov    ch,0x9e
  402102:	add    al,0x57
  402104:	add    DWORD PTR [ecx+0xd70019b],ebp
  40210a:	inc    esp
  40210b:	add    eax,DWORD PTR [eax]
  40210d:	popa   
  40210e:	jb     0x40210b
  402110:	(bad)  
  402111:	jg     0x402188
  402113:	std    
  402114:	mov    dh,BYTE PTR [ebx+ebp*2+0x0]
  402118:	test   eax,0xa9f8f1c
  40211d:	hlt    
  40211e:	push   esi
  40211f:	or     eax,0xb10f0a02
  402124:	or     DWORD PTR [edi-0x29aaaaff],ebp
  40212a:	cmp    DWORD PTR [ebx-0x8],eax
  40212d:	dec    ecx
  40212e:	loop   0x4020cb
  402130:	mov    ds:0x78605cea,al
  402135:	sar    ch,1
  402137:	pop    esp
  402138:	adc    BYTE PTR [eax],ah
  40213a:	aaa    
  40213b:	ja     0x402193
  40213d:	cmp    edx,edx
  40213f:	mov    esi,0x590f8494
  402144:	add    al,0xa4
  402146:	add    BYTE PTR [eax],al
  402148:	add    DWORD PTR [ebx-0x495ed1ee],ecx
  40214e:	mov    eax,DWORD PTR [ebp-0x7e7bf08e]
  402154:	add    BYTE PTR [edi+ecx*1-0x7452080b],0xf8
  40215c:	cld    
  40215d:	jo     0x40215c
  40215f:	js     0x4021af
  402161:	add    BYTE PTR [edx+0x543b0351],ch
  402167:	lods   al,BYTE PTR ds:[esi]
  402168:	imul   edx,DWORD PTR [edx+ebp*2],0xf8835850
  40216f:	add    al,0x55
  402171:	add    BYTE PTR [edi+0x6a14693f],0x50
  402178:	pop    eax
  402179:	adc    DWORD PTR [esp],0x57811425
  402180:	add    BYTE PTR [esi+0x1c],dl
  402183:	jmp    FWORD PTR [ecx-0x859f100]
  402189:	jno    0x40214f
  40218b:	add    al,0xdd
  40218d:	add    dl,bh
  40218f:	inc    esp
  402190:	ins    DWORD PTR es:[edi],dx
  402191:	cmp    ah,cl
  402193:	mov    eax,0xe54462f2
  402198:	int3   
  402199:	lods   eax,DWORD PTR ds:[esi]
  40219a:	push   esi
  40219b:	mov    ah,0x7d
  40219d:	adc    eax,0xff0ea6ff
  4021a2:	and    al,0x1c
  4021a4:	sbb    al,0xe3
  4021a6:	out    dx,al
  4021a7:	pop    ecx
  4021a8:	xlat   BYTE PTR ds:[ebx]
  4021a9:	stos   BYTE PTR es:[edi],al
  4021aa:	mov    BYTE PTR [ebx],0x56
  4021ad:	jbe    0x4021c3
  4021af:	jb     0x40217f
  4021b1:	cmp    BYTE PTR [edx+0x41],dl
  4021b4:	adc    DWORD PTR [eax],eax
  4021b6:	aas    
  4021b7:	mov    bl,0x6a
  4021b9:	push   ebx
  4021ba:	push   eax
  4021bb:	dec    esi
  4021bd:	cmp    BYTE PTR [eax+edi*8],al
  4021c0:	adc    DWORD PTR [eax],eax
  4021c2:	aas    
  4021c3:	mov    cl,0x84
  4021c5:	jae    0x4021c7
  4021c7:	adc    BYTE PTR [ecx],dl
  4021c9:	add    bl,bl
  4021cb:	push   ecx
  4021cc:	pop    eax
  4021cd:	add    BYTE PTR [ebp+0xc],dl
  4021d0:	push   edi
  4021d1:	or     al,0xa7
  4021d3:	push   esp
  4021d4:	ficom  WORD PTR [ecx-0x491c24d4]
  4021da:	test   eax,0x21cde36e
  4021df:	pushf  
  4021e0:	jae    0x4021b8
  4021e2:	scas   al,BYTE PTR es:[edi]
  4021e3:	les    ecx,FWORD PTR [edi-0x15]
  4021e6:	mov    edi,0xe89b497e
  4021eb:	mov    eax,DWORD PTR [ecx]
  4021ed:	call   0xec3f68ed
  4021f2:	push   edx
  4021f3:	pop    ds
  4021f4:	push   ds
  4021f5:	mov    ecx,0xff0a17ff
  4021fa:	(bad)  
  4021fb:	jmp    FWORD PTR [eax+0x1e1f846]
  402201:	pop    es
  402202:	push   ecx
  402203:	adc    dh,0xe8
  402206:	add    BYTE PTR [edx+ebx*2-0x6124348c],cl
  40220d:	cmp    eax,0xe801d08b
  402212:	into   
  402213:	inc    esi
  402214:	inc    edi
  402216:	fs (bad) 
  402218:	jb     0x40225b
  40221a:	pop    ss
  40221b:	inc    ecx
  40221c:	mov    esi,0xf2bfcae8
  402221:	scas   eax,DWORD PTR es:[edi]
  402222:	ds aaa 
  402224:	rol    BYTE PTR [eax],0x54
  402227:	in     al,0x2a
  402229:	add    eax,0x808923c5
  40222e:	sar    DWORD PTR [eax-0x79],0x98
  402232:	cvtdq2ps xmm1,xmm3
  402235:	dec    esi
  402236:	sub    al,0xf2
  402238:	dec    eax
  402239:	add    DWORD PTR [eax],ebx
  40223b:	mov    al,0xbe
  40223d:	stc    
  40223e:	int3   
  40223f:	inc    eax
  402240:	or     edi,DWORD PTR [ecx-0x8123dc]
  402246:	(bad)  
  402247:	(bad)  
  402248:	out    dx,eax
  402249:	dec    eax
  40224a:	repz ret 
  40224c:	or     DWORD PTR [ebp+0xe],ebx
  40224f:	pop    es
  402250:	or     DWORD PTR [ecx-0x9149af],edi
  402256:	(bad)  
  402257:	jmp    DWORD PTR [ebp-0x857fe9]
  40225d:	jg     0x4022c1
  40225f:	sub    eax,0x3c9e9551
  402264:	xchg   ecx,eax
  402265:	mov    al,ds:0xc8a739f4
  40226a:	rcl    DWORD PTR [ecx+0x1],0x48
  40226e:	push   esp
  40226f:	mov    DWORD PTR [edx+0x1004876],ecx
  402275:	dec    eax
  402276:	jbe    0x402209
  402278:	xchg   edx,eax
  402279:	push   esp
  40227a:	dec    eax
  40227b:	add    BYTE PTR [ecx],al
  40227d:	dec    eax
  40227e:	push   esp
  40227f:	cdq    
  402280:	call   0x7048:0x1004870
  402287:	mov    eax,ds:0x4834a2
  40228c:	add    DWORD PTR [eax+0x34],ecx
  40228f:	test   eax,0x4870aa
  402294:	add    DWORD PTR [eax+0x70],ecx
  402297:	mov    cl,0xb2
  402299:	xor    al,0x48
  40229b:	add    BYTE PTR [ecx],al
  40229d:	dec    eax
  40229e:	xor    al,0xb9
  4022a0:	mov    WORD PTR [ebp-0x255d3cef],?
  4022a6:	mov    esp,0x91094dc7
  4022ab:	mov    al,bh
  4022ad:	adc    dh,BYTE PTR [eax+eax*1-0x74]
  4022b1:	jge    0x402307
  4022b3:	mov    al,BYTE PTR [ebp+0x42207b21]
  4022b9:	(bad)  
  4022ba:	je     0x4022bb
  4022bc:	add    DWORD PTR [ecx+0x3b],esp
  4022bf:	mov    BYTE PTR [eax-0x6b],ah
  4022c2:	pop    ebp
  4022c3:	mov    edx,DWORD PTR [edx-0x49]
  4022c6:	and    BYTE PTR [ebx-0x7724cf40],dh
  4022cc:	add    DWORD PTR [eax],edi
  4022ce:	inc    ebp
  4022cf:	mov    ecx,DWORD PTR ds:0xa9af3b00
  4022d5:	adc    ebx,DWORD PTR [ecx+0x5c]
  4022d8:	fsub   QWORD PTR [ecx-0x34b20e4d]
  4022de:	clc    
  4022df:	mov    eax,DWORD PTR [ecx]
  4022e1:	dec    eax
  4022e2:	mov    cl,0xac
  4022e4:	popa   
  4022e5:	test   eax,0x8776f8c3
  4022ea:	popf   
  4022eb:	and    BYTE PTR ds:0xc6e90cbd,al
  4022f1:	sbb    BYTE PTR [eax],al
  4022f3:	add    BYTE PTR [ecx],al
  4022f5:	mov    ebp,DWORD PTR [eax-0x73]
  4022f8:	jle    0x402312
  4022fa:	mov    eax,DWORD PTR [eax]
  4022fc:	or     eax,0xa9ae3b00
  402301:	adc    ecx,DWORD PTR [ebp+0x4102b500]
  402307:	add    eax,0x4004cedc
  40230c:	or     al,0x2e
  40230e:	stos   DWORD PTR es:[edi],eax
  40230f:	sub    bh,BYTE PTR [eax-0x6f0c5a9c]
  402315:	inc    eax
  402316:	sub    al,0x79
  402318:	movs   DWORD PTR es:[edi],DWORD PTR ds:[esi]
  402319:	dec    esp
  40231a:	shl    DWORD PTR [ebx-0x33],0x83
  40231e:	pusha  
  40231f:	ret    
  402320:	imul   esp,DWORD PTR [eax+eax*1],0xd2310120
  402327:	add    ch,BYTE PTR [ebx-0x64]
  40232a:	cmp    edi,edi
  40232c:	test   eax,0x8dd8e114
  402331:	fsub   st,st(3)
  402333:	add    BYTE PTR [eax+0x74],ah
  402336:	pop    ss
  402337:	jo     0x402372
  402339:	inc    edi
  40233a:	retf   
  40233b:	or     BYTE PTR [eax+0x11cc3c0],dh
  402341:	rol    BYTE PTR ds:0x4684b54b,0x54
  402348:	add    BYTE PTR [ecx-0x6a41b3ac],bh
  40234e:	mov    dh,BYTE PTR [esi-0x626a754f]
  402354:	call   0x4d24:0x351db91
  40235b:	cmc    
  40235c:	push   ecx
  40235d:	xchg   ebp,eax
  40235e:	popa   
  40235f:	ret    
  402360:	mov    ds:0xf25449ea,al
  402365:	cmps   DWORD PTR ds:[esi],DWORD PTR es:[edi]
  402366:	sbb    cl,BYTE PTR [edx-0x33861654]
  40236c:	and    al,0x0
  40236e:	xchg   dh,al
  402370:	std    
  402371:	cmps   BYTE PTR ds:[esi],BYTE PTR es:[edi]
  402372:	mov    ebx,DWORD PTR [eax+esi*2]
  402375:	add    DWORD PTR ds:0x6130d425,ebp
  40237b:	xchg   BYTE PTR [esp+edx*1+0x50],al
  40237f:	add    cl,dh
  402381:	sub    DWORD PTR [esi],esp
  402383:	jp     0x402344
  402385:	push   edx
  402386:	cmp    al,0x46
  402388:	jmp    0x1442478
  40238d:	pop    edx
  40238e:	call   0x723c17ab
  402393:	enter  0x5ef4,0xa0
  402397:	jbe    0x402414
  402399:	pop    ebx
  40239a:	add    BYTE PTR [edi+0x58],ah
  40239d:	or     BYTE PTR [edi+0x26],bl
  4023a0:	gs add al,bh
  4023a3:	retf   0x88bc
  4023a6:	icebp  
  4023a7:	sbb    eax,0xb63e6540
  4023ac:	cdq    
  4023ad:	cwde   
  4023ae:	dec    ebx
  4023af:	out    0xed,al
  4023b1:	popa   
  4023b2:	dec    edx
  4023b3:	cmp    esp,DWORD PTR [ebp+0x16f8a81]
  4023b9:	push   0x741bab60
  4023be:	or     BYTE PTR cs:0x12040743,cl
  4023c5:	daa    
  4023c6:	xchg   edx,eax
  4023c7:	cmp    eax,0x16947a50
  4023cc:	jl     0x402362
  4023ce:	jp     0x402421
  4023d0:	push   esp
  4023d1:	jp     0x402367
  4023d3:	jl     0x40240f
  4023d5:	stos   BYTE PTR es:[edi],al
  4023d6:	test   DWORD PTR [eax+0x2],ebp
  4023d9:	outs   dx,BYTE PTR ds:[esi]
  4023da:	push   ds
  4023db:	sub    ecx,DWORD PTR [edi]
  4023dd:	adc    bl,BYTE PTR [ecx]
  4023df:	sbb    DWORD PTR [ebx],eax
  4023e1:	and    esi,DWORD PTR [esi]
  4023e3:	xchg   edi,eax
  4023e4:	test   eax,0xc9b6d758
  4023e9:	or     al,bh
  4023eb:	add    eax,0x66cb9a05
  4023f0:	bound  edx,QWORD PTR [esi]
  4023f2:	xchg   ebp,eax
  4023f3:	add    DWORD PTR [eax-0x59],ebx
  4023f6:	push   es
  4023f7:	push   ebx
  4023f8:	add    eax,0xbf5a5f3a
  4023fd:	and    DWORD PTR [edx+0x50],ebp
  402400:	add    DWORD PTR [ebx-0x45933e6],ecx
  402406:	cdq    
  402407:	add    BYTE PTR [ecx],al
  402409:	adc    ch,BYTE PTR [ebp-0x5b66a27a]
  40240f:	inc    edi
  402410:	retf   
  402411:	bound  ebx,QWORD PTR [eax-0x2c]
  402414:	repnz push edx
  402416:	jbe    0x4023fb
  402418:	ret    
  402419:	call   0x1b4f270
  40241e:	cmps   DWORD PTR ds:[esi],DWORD PTR es:[edi]
  40241f:	call   FWORD PTR [eax-0x59]
  402422:	sub    DWORD PTR [edi],eax
  402424:	leave  
  402425:	loop   0x4023c2
  402427:	push   esp
  402428:	pop    eax
  402429:	adc    dh,BYTE PTR [esp+eiz*8]
  40242c:	ja     0x402483
  40242e:	sar    bh,1
  402430:	pop    esi
  402431:	lea    eax,[ebp-0x12]
  402434:	hlt    
  402435:	test   DWORD PTR [ecx-0x2fdf332c],ecx
  40243b:	ficomp WORD PTR [eax+edx*1+0x24]
  40243f:	inc    esp
  402440:	add    DWORD PTR [eax],eax
  402442:	add    BYTE PTR [eax+0x69],ch
  402445:	add    BYTE PTR [eax],al
  402447:	add    ah,al
  402449:	xor    si,si
  40244c:	xchg   ecx,eax
  40244d:	mov    DWORD PTR [ebx],ebp
  40244f:	cdq    
  402450:	cmp    eax,0xe255dce0
  402455:	adc    ah,BYTE PTR [ebp+0x640a6ee7]
  40245b:	rol    BYTE PTR [ecx],1
  40245d:	sti    
  40245e:	out    dx,eax
  40245f:	arpl   dx,dx
  402461:	adc    ebp,DWORD PTR [edi-0x1]
  402464:	mov    DWORD PTR [ebp+0x75],esi
  402467:	sub    BYTE PTR [ebp-0x13],cl
  40246a:	dec    ebx
  40246b:	and    eax,0x24523716
  402470:	jns    0x40240b
  402472:	jmp    0x4024ea
  402474:	loop   0x402489
  402476:	dec    ebp
  402477:	movs   DWORD PTR es:[edi],DWORD PTR ds:[esi]
  402478:	xchg   ecx,eax
  402479:	sar    DWORD PTR [ecx+edx*4+0x554b0b6d],cl
  402480:	jno    0x4024fc
  402482:	sub    esp,ebx
  402484:	ret    
  402485:	sub    eax,DWORD PTR [ecx]
  402487:	mov    dh,0x21
  402489:	call   FWORD PTR [ecx-0x6bdbb010]
  40248f:	mov    BYTE PTR [edi+0x0],ch
  402492:	jge    0x40242f
  402494:	adc    DWORD PTR [eax],eax
  402496:	aas    
  402497:	outs   dx,BYTE PTR ds:[esi]
  402498:	imul   ebp,DWORD PTR [eax-0x5a63efab],0x7e
  40249f:	in     al,dx
  4024a0:	jmp    0x8ccc1525
  4024a5:	cld    
  4024a6:	imul   eax,DWORD PTR [eax],0xdcfc6806
  4024ac:	add    edi,edi
  4024ae:	push   ebp
  4024af:	and    DWORD PTR [ebx+0x55],ecx
  4024b2:	xchg   edi,eax
  4024b3:	rol    DWORD PTR [ecx+0x6e000068],cl
  4024b9:	push   0x0
  4024bb:	push   0x68
  4024bd:	push   0x8001036a
  4024c2:	aas    
  4024c3:	(bad)  
  4024c4:	test   eax,0xc1c40173
  4024c9:	and    BYTE PTR [edx*2-0x4a66f3c],0x2e
  4024d1:	mov    ds:0x5ec06144,eax
  4024d6:	(bad)  
  4024d7:	aam    0x4a
  4024d9:	jno    0x40250d
  4024db:	into   
  4024dc:	bound  esp,QWORD PTR [ebp+0x76]
  4024df:	aam    0x1e
  4024e1:	sbb    edx,DWORD PTR [ecx-0x7c]
  4024e4:	sub    ebp,DWORD PTR [ebp+0x52]
  4024e7:	pop    edi
  4024e8:	lds    edx,FWORD PTR [edx+0x27b3bc5d]
  4024ee:	dec    esi
  4024ef:	xchg   DWORD PTR [ecx+0x6e],ecx
  4024f2:	mov    eax,0xadfbd425
  4024f7:	jns    0x4024ae
  4024f9:	xchg   ebx,eax
  4024fa:	adc    DWORD PTR [esi],esi
  4024fc:	sub    al,0x8f
  4024fe:	xchg   edx,eax
  4024ff:	lea    esi,[eax-0x5c713a9c]
  402505:	cmp    ch,dh
  402507:	aas    
  402508:	adc    al,0xa6
  40250a:	movs   DWORD PTR es:[edi],DWORD PTR ds:[esi]
  40250b:	cmps   BYTE PTR ds:[esi],BYTE PTR es:[edi]
  40250c:	lea    esp,[edi-0x3ad51cf8]
  402512:	add    al,0xd7
  402514:	jnp    0x4024d3
  402516:	push   ds
  402517:	clc    
  402518:	xchg   DWORD PTR [ebx+0x12602],edx
  40251e:	add    BYTE PTR [edi+0x1],dh
  402524:	add    DWORD PTR [eax],eax
  402526:	add    BYTE PTR [eax],al
  402528:	add    DWORD PTR [eax],eax
  40252a:	add    BYTE PTR [eax],al
  40252c:	add    DWORD PTR [eax],eax
  40252e:	add    BYTE PTR [eax],al
  402530:	add    DWORD PTR [eax],eax
  402532:	add    BYTE PTR [eax],al
  402534:	add    esp,ecx
  402536:	push   0x0
  402538:	add    DWORD PTR [edx-0x14],ebp
  40253b:	add    eax,0x42004
  402540:	add    DWORD PTR [edi+0x7b27347b],eax
  402546:	add    DWORD PTR [eax],0x58
  402549:	test   BYTE PTR [ecx-0x3ceac83d],dh
  40254f:	movs   BYTE PTR es:[edi],BYTE PTR ds:[esi]
  402550:	dec    eax
  402551:	(bad)  
  402552:	ja     0x402549
  402554:	mul    BYTE PTR [esi]
  402556:	sbb    ah,0x72
  402559:	dec    ecx
  40255a:	adc    DWORD PTR [ebx],edi
  40255c:	jg     0x402576
  40255e:	popf   
  40255f:	pop    ss
  402560:	cli    
  402561:	fwait
  402562:	mov    ds:0xef79c6d7,eax
  402567:	dec    esp
  402568:	push   edi
  402569:	dec    ecx
  40256a:	dec    ebp
  40256b:	int3   
