
3153d61ebd8b0210e57fec5ef017d02d0103db7d6f8d61f012ccaad31645a5e8.exe:     file format pei-i386


Disassembly of section .text:

00401000 <.text>:
	...
  401050:	mov    edi,edi
  401052:	push   ebp
  401053:	mov    ebp,esp
  401055:	sub    esp,0x58
  401058:	push   eax
  401059:	push   DWORD PTR [eax+0x274]
  40105f:	push   DWORD PTR [eax+0x14]
  401062:	call   0x4019c0
  401067:	add    esp,0x8
  40106a:	pop    eax
  40106b:	push   eax
  40106c:	push   0x0
  40106e:	mov    eax,ds:0x404080
  401073:	call   eax
  401075:	pop    eax
  401076:	push   eax
  401077:	push   0x0
  401079:	mov    eax,ds:0x404004
  40107e:	call   eax
  401080:	pop    eax
  401081:	sub    esp,0xffffffa8
  401084:	mov    ebp,DWORD PTR [esp]
  401087:	add    esp,0x4
  40108a:	ret    
  40108b:	add    BYTE PTR [ebx-0x1374aa01],cl
  401091:	sub    esp,0x44
  401094:	push   eax
  401095:	mov    esi,0x0
  40109a:	push   esi
  40109b:	mov    eax,ds:0x404024
  4010a0:	call   eax
  4010a2:	pop    eax
  4010a3:	push   eax
  4010a4:	push   ecx
  4010a5:	push   edi
  4010a6:	call   0x401050
  4010ab:	add    esp,0x8
  4010ae:	pop    eax
  4010af:	push   eax
  4010b0:	mov    eax,ds:0x404028
  4010b5:	call   eax
  4010b7:	pop    eax
  4010b8:	sub    esp,0xffffffbc
  4010bb:	mov    ebp,DWORD PTR [esp]
  4010be:	add    esp,0x4
  4010c1:	ret    
  4010c2:	add    BYTE PTR [eax],al
  4010c4:	mov    edi,edi
  4010c6:	push   ebp
  4010c7:	mov    ebp,esp
  4010c9:	sub    esp,0x24
  4010cc:	push   eax
  4010cd:	push   edx
  4010ce:	push   DWORD PTR [eax+0x130]
  4010d4:	push   DWORD PTR [eax+0x1cc]
  4010da:	push   ecx
  4010db:	call   0x4017bc
  4010e0:	add    esp,0x10
  4010e3:	pop    eax
  4010e4:	push   eax
  4010e5:	mov    edi,0x0
  4010ea:	push   edi
  4010eb:	mov    eax,ds:0x404004
  4010f0:	call   eax
  4010f2:	pop    eax
  4010f3:	mov    edi,0x404000
  4010f8:	mov    edi,DWORD PTR [edi]
  4010fa:	push   edi
  4010fb:	push   DWORD PTR [eax+0x28]
  4010fe:	pop    edi
  4010ff:	call   edi
  401101:	sub    esp,0xffffffdc
  401104:	mov    ebp,DWORD PTR [esp]
  401107:	add    esp,0x4
  40110a:	ret    
  40110b:	add    BYTE PTR [ebx-0x1374aa01],cl
  401111:	sub    esp,0x4c
  401114:	push   eax
  401115:	push   DWORD PTR [eax+0x190]
  40111b:	push   ecx
  40111c:	call   0x40169c
  401121:	add    esp,0x8
  401124:	pop    eax
  401125:	push   eax
  401126:	push   0x0
  401128:	mov    eax,ds:0x404070
  40112d:	call   eax
  40112f:	pop    eax
  401130:	push   eax
  401131:	push   0x0
  401133:	mov    eax,ds:0x404038
  401138:	call   eax
  40113a:	pop    eax
  40113b:	sub    esp,0xffffffb4
  40113e:	mov    ebp,DWORD PTR [esp]
  401141:	add    esp,0x4
  401144:	ret    
  401145:	add    BYTE PTR [eax],al
  401147:	add    BYTE PTR [ebx-0x1374aa01],cl
  40114d:	sub    esp,0x2c
  401150:	push   eax
  401151:	mov    eax,ds:0x40402c
  401156:	call   eax
  401158:	pop    eax
  401159:	push   eax
  40115a:	push   ecx
  40115b:	push   ecx
  40115c:	push   DWORD PTR [eax+0x104]
  401162:	push   edi
  401163:	call   0x401e88
  401168:	add    esp,0x10
  40116b:	pop    eax
  40116c:	push   eax
  40116d:	mov    eax,ds:0x404028
  401172:	call   eax
  401174:	pop    eax
  401175:	sub    esp,0xffffffd4
  401178:	mov    ebp,DWORD PTR [esp]
  40117b:	add    esp,0x4
  40117e:	ret    
  40117f:	add    BYTE PTR [ecx-0x3d],ah
	...
  401272:	add    BYTE PTR [eax],al
  401274:	mov    edi,edi
  401276:	push   ebp
  401277:	mov    ebp,esp
  401279:	sub    esp,0x60
  40127c:	push   eax
  40127d:	push   0x0
  40127f:	mov    eax,ds:0x404004
  401284:	call   eax
  401286:	pop    eax
  401287:	push   eax
  401288:	push   DWORD PTR [eax+0x100]
  40128e:	push   edx
  40128f:	call   0x40108c
  401294:	add    esp,0x8
  401297:	pop    eax
  401298:	push   eax
  401299:	lea    ebx,[eax-0x100]
  40129f:	push   ebx
  4012a0:	mov    eax,ds:0x404000
  4012a5:	call   eax
  4012a7:	test   eax,eax
  4012a9:	jne    0x401299
  4012ab:	pop    eax
  4012ac:	sub    esp,0xffffffa0
  4012af:	mov    ebp,DWORD PTR [esp]
  4012b2:	add    esp,0x4
  4012b5:	ret    
  4012b6:	add    BYTE PTR [eax],al
  4012b8:	mov    edi,edi
  4012ba:	push   ebp
  4012bb:	mov    ebp,esp
  4012bd:	sub    esp,0x44
  4012c0:	push   eax
  4012c1:	push   0x6b4
  4012c6:	push   0x6b4
  4012cb:	mov    eax,0x40001
  4012d0:	push   eax
  4012d1:	push   0x0
  4012d3:	xor    DWORD PTR [esp],0x89e6ba81
  4012da:	pop    edx
  4012db:	sub    edx,0x89a67a45
  4012e1:	push   DWORD PTR [edx]
  4012e3:	sub    DWORD PTR [esp],0x2
  4012e7:	mov    edx,0x404034
  4012ec:	pop    DWORD PTR [edx]
  4012ee:	mov    eax,ds:0x404034
  4012f3:	call   eax
  4012f5:	xchg   DWORD PTR [esp],eax
  4012f8:	pop    DWORD PTR [eax+0x28]
  4012fb:	mov    ebx,DWORD PTR [eax+0x28]
  4012fe:	lea    esi,[ebx]
  401300:	sub    ecx,ecx
  401302:	dec    ecx
  401303:	and    ecx,0x4029ea
  401309:	mov    edx,0x7a89d45a
  40130e:	xor    ebx,ebx
  401310:	add    ebx,0x6b4
  401316:	mov    edi,edx
  401318:	xor    edi,DWORD PTR [ecx]
  40131a:	push   edi
  40131b:	sub    edi,edi
  40131d:	sub    DWORD PTR [esp],0x1
  401321:	pop    DWORD PTR [esi+edi*2]
  401324:	push   0x1
  401326:	sub    DWORD PTR [esp],edx
  401329:	mov    edx,0xfffffffc
  40132e:	sub    ecx,edx
  401330:	sub    esi,edx
  401332:	pop    edx
  401333:	sub    ebx,0x4
  401336:	cmp    ebx,0x0
  401339:	jne    0x401316
  40133b:	push   eax
  40133c:	mov    eax,ds:0x40402c
  401341:	call   eax
  401343:	pop    eax
  401344:	sub    esp,0xffffffbc
  401347:	pop    ebp
  401348:	ret    
	...
  401399:	add    BYTE PTR [eax],al
  40139b:	add    BYTE PTR [ebx-0x1374aa01],cl
  4013a1:	sub    esp,0x1c
  4013a4:	push   eax
  4013a5:	push   DWORD PTR [eax+0x1d0]
  4013ab:	push   DWORD PTR [eax+0x340]
  4013b1:	push   DWORD PTR [eax+0x3c4]
  4013b7:	push   DWORD PTR [eax+0x1fc]
  4013bd:	call   0x402618
  4013c2:	add    esp,0x10
  4013c5:	pop    eax
  4013c6:	push   eax
  4013c7:	push   0x0
  4013c9:	mov    eax,ds:0x404048
  4013ce:	call   eax
  4013d0:	pop    eax
  4013d1:	push   eax
  4013d2:	mov    esi,0x0
  4013d7:	push   esi
  4013d8:	mov    eax,ds:0x404024
  4013dd:	call   eax
  4013df:	pop    eax
  4013e0:	sub    esp,0xffffffe4
  4013e3:	mov    ebp,DWORD PTR [esp]
  4013e6:	add    esp,0x4
  4013e9:	ret    
  4013ea:	add    BYTE PTR [eax],al
  4013ec:	mov    edi,edi
  4013ee:	push   ebp
  4013ef:	mov    ebp,esp
  4013f1:	sub    esp,0x48
  4013f4:	push   eax
  4013f5:	push   0x0
  4013f7:	mov    eax,ds:0x404070
  4013fc:	call   eax
  4013fe:	pop    eax
  4013ff:	push   eax
  401400:	push   edi
  401401:	push   DWORD PTR [eax+0x278]
  401407:	push   ebx
  401408:	call   0x401ce0
  40140d:	add    esp,0xc
  401410:	pop    eax
  401411:	push   eax
  401412:	mov    eax,0x0
  401417:	push   eax
  401418:	mov    eax,ds:0x404080
  40141d:	call   eax
  40141f:	pop    eax
  401420:	sub    esp,0xffffffb8
  401423:	mov    ebp,DWORD PTR [esp]
  401426:	add    esp,0x4
  401429:	ret    
	...
  40147a:	add    BYTE PTR [eax],al
  40147c:	mov    edi,edi
  40147e:	push   ebp
  40147f:	mov    ebp,esp
  401481:	sub    esp,0x30
  401484:	push   eax
  401485:	push   ebx
  401486:	push   edx
  401487:	call   0x401f68
  40148c:	add    esp,0x8
  40148f:	pop    eax
  401490:	push   eax
  401491:	push   0x0
  401493:	mov    eax,ds:0x404024
  401498:	call   eax
  40149a:	pop    eax
  40149b:	push   eax
  40149c:	mov    eax,ds:0x404028
  4014a1:	call   eax
  4014a3:	pop    eax
  4014a4:	sub    esp,0xffffffd0
  4014a7:	mov    ebp,DWORD PTR [esp]
  4014aa:	add    esp,0x4
  4014ad:	ret    
	...
  4014fe:	add    BYTE PTR [eax],al
  401500:	mov    edi,edi
  401502:	push   ebp
  401503:	mov    ebp,esp
  401505:	sub    esp,0x38
  401508:	push   eax
  401509:	mov    eax,0x0
  40150e:	push   eax
  40150f:	mov    eax,ds:0x404060
  401514:	call   eax
  401516:	pop    eax
  401517:	push   eax
  401518:	push   DWORD PTR [eax+0x3b8]
  40151e:	push   DWORD PTR [eax+0x120]
  401524:	call   0x4019fc
  401529:	add    esp,0x8
  40152c:	pop    eax
  40152d:	push   eax
  40152e:	mov    edi,0x0
  401533:	push   edi
  401534:	mov    eax,ds:0x404008
  401539:	call   eax
  40153b:	pop    eax
  40153c:	sub    esp,0xffffffc8
  40153f:	mov    ebp,DWORD PTR [esp]
  401542:	add    esp,0x4
  401545:	ret    
  401546:	add    BYTE PTR [eax],al
  401548:	mov    edi,edi
  40154a:	push   ebp
  40154b:	mov    ebp,esp
  40154d:	sub    esp,0x34
  401550:	push   eax
  401551:	push   ebx
  401552:	push   DWORD PTR [eax+0x390]
  401558:	call   0x4026e4
  40155d:	add    esp,0x8
  401560:	pop    eax
  401561:	push   eax
  401562:	push   0x0
  401564:	mov    eax,ds:0x404070
  401569:	call   eax
  40156b:	pop    eax
  40156c:	push   eax
  40156d:	lea    esi,[eax-0x100]
  401573:	push   esi
  401574:	mov    eax,ds:0x404000
  401579:	call   eax
  40157b:	test   eax,eax
  40157d:	jne    0x40156d
  40157f:	pop    eax
  401580:	sub    esp,0xffffffcc
  401583:	mov    ebp,DWORD PTR [esp]
  401586:	add    esp,0x4
  401589:	ret    
  40158a:	add    BYTE PTR [eax],al
  40158c:	mov    edi,edi
  40158e:	push   ebp
  40158f:	mov    ebp,esp
  401591:	sub    esp,0x2c
  401594:	push   eax
  401595:	push   DWORD PTR [eax+0x3e0]
  40159b:	push   ecx
  40159c:	call   0x402868
  4015a1:	add    esp,0x8
  4015a4:	pop    eax
  4015a5:	push   eax
  4015a6:	push   0x0
  4015a8:	mov    eax,ds:0x404060
  4015ad:	call   eax
  4015af:	pop    eax
  4015b0:	push   eax
  4015b1:	mov    esi,0x0
  4015b6:	push   esi
  4015b7:	mov    eax,ds:0x404060
  4015bc:	call   eax
  4015be:	pop    eax
  4015bf:	sub    esp,0xffffffd4
  4015c2:	mov    ebp,DWORD PTR [esp]
  4015c5:	add    esp,0x4
  4015c8:	ret    
  4015c9:	add    BYTE PTR [eax],al
  4015cb:	add    BYTE PTR [ebx-0x1374aa01],cl
  4015d1:	sub    esp,0x38
  4015d4:	push   eax
  4015d5:	push   esi
  4015d6:	push   DWORD PTR [eax+0x1ac]
  4015dc:	call   0x402128
  4015e1:	add    esp,0x8
  4015e4:	pop    eax
  4015e5:	push   eax
  4015e6:	push   0x0
  4015e8:	mov    eax,ds:0x404040
  4015ed:	call   eax
  4015ef:	pop    eax
  4015f0:	push   eax
  4015f1:	push   0x0
  4015f3:	mov    eax,ds:0x404060
  4015f8:	call   eax
  4015fa:	pop    eax
  4015fb:	sub    esp,0xffffffc8
  4015fe:	mov    ebp,DWORD PTR [esp]
  401601:	add    esp,0x4
  401604:	ret    
	...
  401655:	add    BYTE PTR [eax],al
  401657:	add    BYTE PTR [ebx-0x1374aa01],cl
  40165d:	sub    esp,0x5c
  401660:	push   eax
  401661:	mov    ecx,0x0
  401666:	push   ecx
  401667:	mov    eax,ds:0x404070
  40166c:	call   eax
  40166e:	pop    eax
  40166f:	push   eax
  401670:	push   ecx
  401671:	push   edx
  401672:	call   0x401ae4
  401677:	add    esp,0x8
  40167a:	pop    eax
  40167b:	push   eax
  40167c:	lea    esi,[eax-0x100]
  401682:	push   esi
  401683:	mov    eax,ds:0x404000
  401688:	call   eax
  40168a:	test   eax,eax
  40168c:	jne    0x40167c
  40168e:	pop    eax
  40168f:	sub    esp,0xffffffa4
  401692:	mov    ebp,DWORD PTR [esp]
  401695:	add    esp,0x4
  401698:	ret    
  401699:	add    BYTE PTR [eax],al
  40169b:	add    BYTE PTR [ebx-0x1374aa01],cl
  4016a1:	sub    esp,0x4c
  4016a4:	push   eax
  4016a5:	push   0x0
  4016a7:	mov    eax,ds:0x404024
  4016ac:	call   eax
  4016ae:	pop    eax
  4016af:	push   eax
  4016b0:	push   DWORD PTR [eax+0x70]
  4016b3:	push   DWORD PTR [eax+0x1cc]
  4016b9:	push   DWORD PTR [eax+0x40]
  4016bc:	push   ebx
  4016bd:	call   0x40177c
  4016c2:	add    esp,0x10
  4016c5:	pop    eax
  4016c6:	push   eax
  4016c7:	push   0x0
  4016c9:	mov    eax,ds:0x404070
  4016ce:	call   eax
  4016d0:	pop    eax
  4016d1:	sub    esp,0xffffffb4
  4016d4:	mov    ebp,DWORD PTR [esp]
  4016d7:	add    esp,0x4
  4016da:	ret    
	...
  40177b:	add    BYTE PTR [ebx-0x1374aa01],cl
  401781:	sub    esp,0x3c
  401784:	push   eax
  401785:	mov    eax,0x0
  40178a:	push   eax
  40178b:	mov    eax,ds:0x404004
  401790:	call   eax
  401792:	pop    eax
  401793:	push   eax
  401794:	push   edi
  401795:	push   DWORD PTR [eax+0x304]
  40179b:	push   esi
  40179c:	call   0x4012b8
  4017a1:	add    esp,0xc
  4017a4:	pop    eax
  4017a5:	push   eax
  4017a6:	push   0x0
  4017a8:	mov    eax,ds:0x40404c
  4017ad:	call   eax
  4017af:	pop    eax
  4017b0:	sub    esp,0xffffffc4
  4017b3:	mov    ebp,DWORD PTR [esp]
  4017b6:	add    esp,0x4
  4017b9:	ret    
  4017ba:	add    BYTE PTR [eax],al
  4017bc:	mov    edi,edi
  4017be:	push   ebp
  4017bf:	mov    ebp,esp
  4017c1:	sub    esp,0x3c
  4017c4:	push   eax
  4017c5:	mov    eax,ds:0x404028
  4017ca:	call   eax
  4017cc:	pop    eax
  4017cd:	push   eax
  4017ce:	push   DWORD PTR [eax+0x27c]
  4017d4:	push   edx
  4017d5:	push   DWORD PTR [eax+0x3a0]
  4017db:	push   DWORD PTR [eax+0xb4]
  4017e1:	call   0x4028b0
  4017e6:	add    esp,0x10
  4017e9:	pop    eax
  4017ea:	push   eax
  4017eb:	push   0x0
  4017ed:	mov    eax,ds:0x404004
  4017f2:	call   eax
  4017f4:	pop    eax
  4017f5:	sub    esp,0xffffffc4
  4017f8:	mov    ebp,DWORD PTR [esp]
  4017fb:	add    esp,0x4
  4017fe:	ret    
  4017ff:	add    BYTE PTR [ebx-0x1374aa01],cl
  401805:	sub    esp,0x30
  401808:	push   eax
  401809:	push   esi
  40180a:	push   DWORD PTR [eax+0x29c]
  401810:	push   DWORD PTR [eax+0x178]
  401816:	push   ebx
  401817:	call   0x40139c
  40181c:	add    esp,0x10
  40181f:	pop    eax
  401820:	push   eax
  401821:	mov    eax,0x0
  401826:	push   eax
  401827:	mov    eax,ds:0x40404c
  40182c:	call   eax
  40182e:	pop    eax
  40182f:	push   eax
  401830:	push   0x0
  401832:	mov    eax,ds:0x404040
  401837:	call   eax
  401839:	pop    eax
  40183a:	sub    esp,0xffffffd0
  40183d:	mov    ebp,DWORD PTR [esp]
  401840:	add    esp,0x4
  401843:	ret    
  401844:	pusha  
  401845:	xor    edx,edx
  401847:	push   edx
  401848:	call   DWORD PTR ds:0x404070
  40184e:	mov    eax,0x404094
  401853:	sub    eax,0x1
  401856:	push   0x0
  401858:	call   DWORD PTR [eax+0x1]
  40185b:	xor    edx,edx
  40185d:	add    edx,0x45e200
  401863:	dec    dh
  401865:	push   edx
  401866:	lea    eax,[edx+0x10]
  401869:	add    BYTE PTR [eax],0x4
  40186c:	push   edx
  40186d:	call   DWORD PTR ds:0x404034
  401873:	mov    ecx,eax
  401875:	mov    cl,0x3c
  401877:	mov    ecx,DWORD PTR [ecx]
  401879:	mov    ecx,DWORD PTR [eax+ecx*1+0x1c]
  40187d:	ror    ecx,0xc
  401880:	mov    eax,ecx
  401882:	sub    al,0x10
  401884:	pop    eax
  401885:	jb     0x401180
  40188b:	ja     0x4010c4
  401891:	ret    
  401892:	add    BYTE PTR [eax],al
  401894:	mov    edi,edi
  401896:	push   ebp
  401897:	mov    ebp,esp
  401899:	sub    esp,0x54
  40189c:	push   eax
  40189d:	push   edi
  40189e:	push   DWORD PTR [eax+0x2f4]
  4018a4:	push   edx
  4018a5:	call   0x402540
  4018aa:	add    esp,0xc
  4018ad:	pop    eax
  4018ae:	push   eax
  4018af:	mov    ebx,0x0
  4018b4:	push   ebx
  4018b5:	mov    eax,ds:0x404020
  4018ba:	call   eax
  4018bc:	pop    eax
  4018bd:	push   eax
  4018be:	lea    ecx,[eax-0x100]
  4018c4:	push   ecx
  4018c5:	mov    eax,ds:0x404000
  4018ca:	call   eax
  4018cc:	test   eax,eax
  4018ce:	jne    0x4018be
  4018d0:	pop    eax
  4018d1:	sub    esp,0xffffffac
  4018d4:	mov    ebp,DWORD PTR [esp]
  4018d7:	add    esp,0x4
  4018da:	ret    
  4018db:	add    BYTE PTR [ebx-0x1374aa01],cl
  4018e1:	sub    esp,0x24
  4018e4:	push   eax
  4018e5:	mov    edx,0x0
  4018ea:	push   edx
  4018eb:	mov    eax,ds:0x404048
  4018f0:	call   eax
  4018f2:	pop    eax
  4018f3:	push   eax
  4018f4:	push   DWORD PTR [eax+0x8c]
  4018fa:	push   edx
  4018fb:	call   0x40147c
  401900:	add    esp,0x8
  401903:	pop    eax
  401904:	push   eax
  401905:	mov    ecx,0x0
  40190a:	push   ecx
  40190b:	mov    eax,ds:0x404040
  401910:	call   eax
  401912:	pop    eax
  401913:	sub    esp,0xffffffdc
  401916:	mov    ebp,DWORD PTR [esp]
  401919:	add    esp,0x4
  40191c:	ret    
	...
  4019bd:	add    BYTE PTR [eax],al
  4019bf:	add    BYTE PTR [ebx-0x1374aa01],cl
  4019c5:	sub    esp,0x5c
  4019c8:	push   eax
  4019c9:	push   0x0
  4019cb:	mov    eax,ds:0x404070
  4019d0:	call   eax
  4019d2:	pop    eax
  4019d3:	push   eax
  4019d4:	push   edi
  4019d5:	push   ecx
  4019d6:	push   DWORD PTR [eax]
  4019d8:	call   0x401bfc
  4019dd:	add    esp,0xc
  4019e0:	pop    eax
  4019e1:	push   eax
  4019e2:	mov    ecx,0x0
  4019e7:	push   ecx
  4019e8:	mov    eax,ds:0x404080
  4019ed:	call   eax
  4019ef:	pop    eax
  4019f0:	sub    esp,0xffffffa4
  4019f3:	mov    ebp,DWORD PTR [esp]
  4019f6:	add    esp,0x4
  4019f9:	ret    
  4019fa:	add    BYTE PTR [eax],al
  4019fc:	mov    edi,edi
  4019fe:	push   ebp
  4019ff:	mov    ebp,esp
  401a01:	sub    esp,0x48
  401a04:	push   eax
  401a05:	mov    eax,ds:0x404030
  401a0a:	call   eax
  401a0c:	pop    eax
  401a0d:	push   eax
  401a0e:	push   DWORD PTR [eax+0x268]
  401a14:	push   DWORD PTR [eax+0xe0]
  401a1a:	push   ecx
  401a1b:	push   DWORD PTR [eax+0x2b8]
  401a21:	call   0x4021e4
  401a26:	add    esp,0x10
  401a29:	pop    eax
  401a2a:	push   eax
  401a2b:	mov    eax,0x0
  401a30:	push   eax
  401a31:	mov    eax,ds:0x404024
  401a36:	call   eax
  401a38:	pop    eax
  401a39:	sub    esp,0xffffffb8
  401a3c:	mov    ebp,DWORD PTR [esp]
  401a3f:	add    esp,0x4
  401a42:	ret    
	...
  401ae3:	add    BYTE PTR [ebx-0x1374aa01],cl
  401ae9:	sub    esp,0x5c
  401aec:	push   eax
  401aed:	push   0x0
  401aef:	mov    eax,ds:0x404038
  401af4:	call   eax
  401af6:	pop    eax
  401af7:	push   eax
  401af8:	push   ebx
  401af9:	push   DWORD PTR [eax+0x13c]
  401aff:	call   0x401548
  401b04:	add    esp,0x8
  401b07:	pop    eax
  401b08:	push   eax
  401b09:	mov    esi,0x0
  401b0e:	push   esi
  401b0f:	mov    eax,ds:0x404040
  401b14:	call   eax
  401b16:	pop    eax
  401b17:	sub    esp,0xffffffa4
  401b1a:	mov    ebp,DWORD PTR [esp]
  401b1d:	add    esp,0x4
  401b20:	ret    
	...
  401bc1:	add    BYTE PTR [eax],al
  401bc3:	add    BYTE PTR [ebx-0x1374aa01],cl
  401bc9:	sub    esp,0x2c
  401bcc:	push   eax
  401bcd:	mov    eax,ds:0x404030
  401bd2:	call   eax
  401bd4:	pop    eax
  401bd5:	push   eax
  401bd6:	push   esi
  401bd7:	push   DWORD PTR [eax+0x25c]
  401bdd:	call   0x402984
  401be2:	add    esp,0x8
  401be5:	pop    eax
  401be6:	push   eax
  401be7:	push   0x0
  401be9:	mov    eax,ds:0x404008
  401bee:	call   eax
  401bf0:	pop    eax
  401bf1:	sub    esp,0xffffffd4
  401bf4:	mov    ebp,DWORD PTR [esp]
  401bf7:	add    esp,0x4
  401bfa:	ret    
  401bfb:	add    BYTE PTR [ebx-0x1374aa01],cl
  401c01:	sub    esp,0x38
  401c04:	push   eax
  401c05:	lea    ecx,[eax-0x100]
  401c0b:	push   ecx
  401c0c:	mov    eax,ds:0x404000
  401c11:	call   eax
  401c13:	test   eax,eax
  401c15:	jne    0x401c05
  401c17:	pop    eax
  401c18:	push   eax
  401c19:	push   DWORD PTR [eax+0x284]
  401c1f:	push   edx
  401c20:	push   edx
  401c21:	push   DWORD PTR [eax+0x10c]
  401c27:	call   0x401c98
  401c2c:	add    esp,0x10
  401c2f:	pop    eax
  401c30:	push   eax
  401c31:	push   0x0
  401c33:	mov    eax,ds:0x404038
  401c38:	call   eax
  401c3a:	pop    eax
  401c3b:	sub    esp,0xffffffc8
  401c3e:	mov    ebp,DWORD PTR [esp]
  401c41:	add    esp,0x4
  401c44:	ret    
	...
  401c95:	add    BYTE PTR [eax],al
  401c97:	add    BYTE PTR [ebx-0x1374aa01],cl
  401c9d:	sub    esp,0x28
  401ca0:	push   eax
  401ca1:	mov    edi,0x0
  401ca6:	push   edi
  401ca7:	mov    eax,ds:0x404080
  401cac:	call   eax
  401cae:	pop    eax
  401caf:	push   eax
  401cb0:	push   DWORD PTR [eax+0x308]
  401cb6:	push   edx
  401cb7:	call   0x401148
  401cbc:	add    esp,0x8
  401cbf:	pop    eax
  401cc0:	push   eax
  401cc1:	lea    esi,[eax-0x100]
  401cc7:	push   esi
  401cc8:	mov    eax,ds:0x404000
  401ccd:	call   eax
  401ccf:	test   eax,eax
  401cd1:	jne    0x401cc1
  401cd3:	pop    eax
  401cd4:	sub    esp,0xffffffd8
  401cd7:	mov    ebp,DWORD PTR [esp]
  401cda:	add    esp,0x4
  401cdd:	ret    
  401cde:	add    BYTE PTR [eax],al
  401ce0:	mov    edi,edi
  401ce2:	push   ebp
  401ce3:	mov    ebp,esp
  401ce5:	sub    esp,0x50
  401ce8:	push   eax
  401ce9:	push   DWORD PTR [eax+0x33c]
  401cef:	push   ecx
  401cf0:	push   esi
  401cf1:	call   0x401894
  401cf6:	add    esp,0xc
  401cf9:	pop    eax
  401cfa:	push   eax
  401cfb:	mov    esi,0x0
  401d00:	push   esi
  401d01:	mov    eax,ds:0x40404c
  401d06:	call   eax
  401d08:	pop    eax
  401d09:	push   eax
  401d0a:	push   0x0
  401d0c:	mov    eax,ds:0x404060
  401d11:	call   eax
  401d13:	pop    eax
  401d14:	sub    esp,0xffffffb0
  401d17:	mov    ebp,DWORD PTR [esp]
  401d1a:	add    esp,0x4
  401d1d:	ret    
	...
  401dbe:	add    BYTE PTR [eax],al
  401dc0:	mov    edi,edi
  401dc2:	push   ebp
  401dc3:	mov    ebp,esp
  401dc5:	sub    esp,0x4c
  401dc8:	push   eax
  401dc9:	lea    eax,[eax-0x100]
  401dcf:	push   eax
  401dd0:	mov    eax,ds:0x404000
  401dd5:	call   eax
  401dd7:	test   eax,eax
  401dd9:	jne    0x401dc9
  401ddb:	pop    eax
  401ddc:	push   eax
  401ddd:	push   ebx
  401dde:	push   edi
  401ddf:	push   ebx
  401de0:	push   edi
  401de1:	call   0x402168
  401de6:	add    esp,0x10
  401de9:	pop    eax
  401dea:	push   eax
  401deb:	push   0x0
  401ded:	mov    eax,ds:0x404060
  401df2:	call   eax
  401df4:	pop    eax
  401df5:	sub    esp,0xffffffb4
  401df8:	mov    ebp,DWORD PTR [esp]
  401dfb:	add    esp,0x4
  401dfe:	ret    
  401dff:	add    BYTE PTR [ebx-0x1374aa01],cl
  401e05:	sub    esp,0x20
  401e08:	push   eax
  401e09:	mov    esi,0x0
  401e0e:	push   esi
  401e0f:	mov    eax,ds:0x404048
  401e14:	call   eax
  401e16:	pop    eax
  401e17:	push   eax
  401e18:	push   ebx
  401e19:	push   esi
  401e1a:	push   DWORD PTR [eax+0x234]
  401e20:	push   DWORD PTR [eax+0x360]
  401e26:	call   0x401e44
  401e2b:	add    esp,0x10
  401e2e:	pop    eax
  401e2f:	push   eax
  401e30:	push   0x0
  401e32:	mov    eax,ds:0x404048
  401e37:	call   eax
  401e39:	pop    eax
  401e3a:	sub    esp,0xffffffe0
  401e3d:	mov    ebp,DWORD PTR [esp]
  401e40:	add    esp,0x4
  401e43:	ret    
  401e44:	mov    edi,edi
  401e46:	push   ebp
  401e47:	mov    ebp,esp
  401e49:	sub    esp,0x20
  401e4c:	push   eax
  401e4d:	mov    edi,0x0
  401e52:	push   edi
  401e53:	mov    eax,ds:0x404048
  401e58:	call   eax
  401e5a:	pop    eax
  401e5b:	push   eax
  401e5c:	push   edx
  401e5d:	push   DWORD PTR [eax+0x32c]
  401e63:	push   ecx
  401e64:	call   0x402948
  401e69:	add    esp,0xc
  401e6c:	pop    eax
  401e6d:	push   eax
  401e6e:	mov    edi,0x0
  401e73:	push   edi
  401e74:	mov    eax,ds:0x404038
  401e79:	call   eax
  401e7b:	pop    eax
  401e7c:	sub    esp,0xffffffe0
  401e7f:	mov    ebp,DWORD PTR [esp]
  401e82:	add    esp,0x4
  401e85:	ret    
  401e86:	add    BYTE PTR [eax],al
  401e88:	mov    edi,edi
  401e8a:	push   ebp
  401e8b:	mov    ebp,esp
  401e8d:	sub    esp,0x2c
  401e90:	push   eax
  401e91:	push   DWORD PTR [eax+0x11c]
  401e97:	push   DWORD PTR [eax+0x370]
  401e9d:	call   0x401800
  401ea2:	add    esp,0x8
  401ea5:	pop    eax
  401ea6:	push   eax
  401ea7:	mov    ecx,0x0
  401eac:	push   ecx
  401ead:	mov    eax,ds:0x404038
  401eb2:	call   eax
  401eb4:	pop    eax
  401eb5:	push   eax
  401eb6:	mov    eax,ds:0x404028
  401ebb:	call   eax
  401ebd:	pop    eax
  401ebe:	sub    esp,0xffffffd4
  401ec1:	mov    ebp,DWORD PTR [esp]
  401ec4:	add    esp,0x4
  401ec7:	ret    
	...
  401f68:	mov    edi,edi
  401f6a:	push   ebp
  401f6b:	mov    ebp,esp
  401f6d:	sub    esp,0x1c
  401f70:	push   eax
  401f71:	mov    edi,0x0
  401f76:	push   edi
  401f77:	mov    eax,ds:0x404020
  401f7c:	call   eax
  401f7e:	pop    eax
  401f7f:	push   eax
  401f80:	push   edi
  401f81:	push   esi
  401f82:	call   0x40110c
  401f87:	add    esp,0x8
  401f8a:	pop    eax
  401f8b:	push   eax
  401f8c:	push   0x0
  401f8e:	mov    eax,ds:0x404020
  401f93:	call   eax
  401f95:	pop    eax
  401f96:	sub    esp,0xffffffe4
  401f99:	mov    ebp,DWORD PTR [esp]
  401f9c:	add    esp,0x4
  401f9f:	ret    
  401fa0:	mov    edi,edi
  401fa2:	push   ebp
  401fa3:	mov    ebp,esp
  401fa5:	sub    esp,0x44
  401fa8:	push   eax
  401fa9:	push   DWORD PTR [eax+0x2ec]
  401faf:	push   edx
  401fb0:	push   DWORD PTR [eax+0x128]
  401fb6:	push   DWORD PTR [eax+0x280]
  401fbc:	call   0x4015cc
  401fc1:	add    esp,0x10
  401fc4:	pop    eax
  401fc5:	push   eax
  401fc6:	push   0x0
  401fc8:	mov    eax,ds:0x404020
  401fcd:	call   eax
  401fcf:	pop    eax
  401fd0:	push   eax
  401fd1:	push   0x0
  401fd3:	mov    eax,ds:0x404060
  401fd8:	call   eax
  401fda:	pop    eax
  401fdb:	sub    esp,0xffffffbc
  401fde:	mov    ebp,DWORD PTR [esp]
  401fe1:	add    esp,0x4
  401fe4:	ret    
	...
  402125:	add    BYTE PTR [eax],al
  402127:	add    BYTE PTR [ebx-0x1374aa01],cl
  40212d:	sub    esp,0x28
  402130:	push   eax
  402131:	mov    eax,ds:0x40402c
  402136:	call   eax
  402138:	pop    eax
  402139:	push   eax
  40213a:	push   DWORD PTR [eax+0x34c]
  402140:	push   edi
  402141:	push   DWORD PTR [eax+0x4]
  402144:	call   0x4021a4
  402149:	add    esp,0xc
  40214c:	pop    eax
  40214d:	push   eax
  40214e:	mov    ecx,0x0
  402153:	push   ecx
  402154:	mov    eax,ds:0x404048
  402159:	call   eax
  40215b:	pop    eax
  40215c:	sub    esp,0xffffffd8
  40215f:	mov    ebp,DWORD PTR [esp]
  402162:	add    esp,0x4
  402165:	ret    
  402166:	add    BYTE PTR [eax],al
  402168:	mov    edi,edi
  40216a:	push   ebp
  40216b:	mov    ebp,esp
  40216d:	sub    esp,0x34
  402170:	push   eax
  402171:	push   edx
  402172:	push   DWORD PTR [eax+0x27c]
  402178:	push   esi
  402179:	push   ecx
  40217a:	call   0x4023bc
  40217f:	add    esp,0x10
  402182:	pop    eax
  402183:	push   eax
  402184:	push   0x0
  402186:	mov    eax,ds:0x404004
  40218b:	call   eax
  40218d:	pop    eax
  40218e:	push   eax
  40218f:	mov    eax,ds:0x404030
  402194:	call   eax
  402196:	pop    eax
  402197:	sub    esp,0xffffffcc
  40219a:	mov    ebp,DWORD PTR [esp]
  40219d:	add    esp,0x4
  4021a0:	ret    
  4021a1:	add    BYTE PTR [eax],al
  4021a3:	add    BYTE PTR [ebx-0x1374aa01],cl
  4021a9:	sub    esp,0x3c
  4021ac:	push   eax
  4021ad:	mov    eax,ds:0x404030
  4021b2:	call   eax
  4021b4:	pop    eax
  4021b5:	push   eax
  4021b6:	push   edx
  4021b7:	push   DWORD PTR [eax+0x5c]
  4021ba:	push   edx
  4021bb:	push   DWORD PTR [eax+0x168]
  4021c1:	call   0x401bc4
  4021c6:	add    esp,0x10
  4021c9:	pop    eax
  4021ca:	push   eax
  4021cb:	mov    edx,0x0
  4021d0:	push   edx
  4021d1:	mov    eax,ds:0x404080
  4021d6:	call   eax
  4021d8:	pop    eax
  4021d9:	sub    esp,0xffffffc4
  4021dc:	mov    ebp,DWORD PTR [esp]
  4021df:	add    esp,0x4
  4021e2:	ret    
  4021e3:	add    BYTE PTR [ebx-0x1374aa01],cl
  4021e9:	sub    esp,0x50
  4021ec:	push   eax
  4021ed:	push   0x0
  4021ef:	mov    eax,ds:0x404048
  4021f4:	call   eax
  4021f6:	pop    eax
  4021f7:	push   eax
  4021f8:	push   esi
  4021f9:	push   DWORD PTR [eax+0x1c0]
  4021ff:	push   DWORD PTR [eax+0x1a0]
  402205:	call   0x401274
  40220a:	add    esp,0xc
  40220d:	pop    eax
  40220e:	push   eax
  40220f:	lea    ecx,[eax-0x100]
  402215:	push   ecx
  402216:	mov    eax,ds:0x404000
  40221b:	call   eax
  40221d:	test   eax,eax
  40221f:	jne    0x40220f
  402221:	pop    eax
  402222:	sub    esp,0xffffffb0
  402225:	mov    ebp,DWORD PTR [esp]
  402228:	add    esp,0x4
  40222b:	ret    
	...
  4023bc:	mov    edi,edi
  4023be:	push   ebp
  4023bf:	mov    ebp,esp
  4023c1:	sub    esp,0x54
  4023c4:	push   eax
  4023c5:	push   DWORD PTR [eax+0x1e4]
  4023cb:	push   DWORD PTR [eax+0x8c]
  4023d1:	push   edx
  4023d2:	call   0x40158c
  4023d7:	add    esp,0xc
  4023da:	pop    eax
  4023db:	push   eax
  4023dc:	push   0x0
  4023de:	mov    eax,ds:0x404024
  4023e3:	call   eax
  4023e5:	pop    eax
  4023e6:	push   eax
  4023e7:	mov    eax,0x0
  4023ec:	push   eax
  4023ed:	mov    eax,ds:0x40404c
  4023f2:	call   eax
  4023f4:	pop    eax
  4023f5:	sub    esp,0xffffffac
  4023f8:	mov    ebp,DWORD PTR [esp]
  4023fb:	add    esp,0x4
  4023fe:	ret    
	...
  40253f:	add    BYTE PTR [ebx-0x1374aa01],cl
  402545:	sub    esp,0x30
  402548:	push   eax
  402549:	push   DWORD PTR [eax+0x2c]
  40254c:	push   DWORD PTR [eax+0x1ec]
  402552:	push   DWORD PTR [eax+0x8c]
  402558:	push   DWORD PTR [eax+0xa0]
  40255e:	call   0x401dc0
  402563:	add    esp,0x10
  402566:	pop    eax
  402567:	push   eax
  402568:	mov    eax,ds:0x40402c
  40256d:	call   eax
  40256f:	pop    eax
  402570:	push   eax
  402571:	push   0x0
  402573:	mov    eax,ds:0x404038
  402578:	call   eax
  40257a:	pop    eax
  40257b:	sub    esp,0xffffffd0
  40257e:	mov    ebp,DWORD PTR [esp]
  402581:	add    esp,0x4
  402584:	ret    
	...
  4025d5:	add    BYTE PTR [eax],al
  4025d7:	add    BYTE PTR [ebx-0x1374aa01],cl
  4025dd:	sub    esp,0x30
  4025e0:	push   eax
  4025e1:	push   ecx
  4025e2:	push   edx
  4025e3:	push   DWORD PTR [eax+0x2dc]
  4025e9:	push   DWORD PTR [eax+0x134]
  4025ef:	call   0x401500
  4025f4:	add    esp,0x10
  4025f7:	pop    eax
  4025f8:	push   eax
  4025f9:	push   0x0
  4025fb:	mov    eax,ds:0x404038
  402600:	call   eax
  402602:	pop    eax
  402603:	push   eax
  402604:	push   0x0
  402606:	mov    eax,ds:0x404024
  40260b:	call   eax
  40260d:	pop    eax
  40260e:	sub    esp,0xffffffd0
  402611:	mov    ebp,DWORD PTR [esp]
  402614:	add    esp,0x4
  402617:	ret    
  402618:	mov    edi,edi
  40261a:	push   ebp
  40261b:	mov    ebp,esp
  40261d:	sub    esp,0x58
  402620:	push   eax
  402621:	mov    esi,0x0
  402626:	push   esi
  402627:	mov    eax,ds:0x404048
  40262c:	call   eax
  40262e:	pop    eax
  40262f:	push   eax
  402630:	push   DWORD PTR [eax+0xb8]
  402636:	push   ebx
  402637:	call   0x401fa0
  40263c:	add    esp,0x8
  40263f:	pop    eax
  402640:	push   eax
  402641:	push   0x0
  402643:	mov    eax,ds:0x404024
  402648:	call   eax
  40264a:	pop    eax
  40264b:	sub    esp,0xffffffa8
  40264e:	mov    ebp,DWORD PTR [esp]
  402651:	add    esp,0x4
  402654:	ret    
	...
  4026a5:	add    BYTE PTR [eax],al
  4026a7:	add    BYTE PTR [ebx-0x1374aa01],cl
  4026ad:	sub    esp,0x40
  4026b0:	push   eax
  4026b1:	push   0x0
  4026b3:	mov    eax,ds:0x404060
  4026b8:	call   eax
  4026ba:	pop    eax
  4026bb:	push   eax
  4026bc:	push   ecx
  4026bd:	push   DWORD PTR [eax+0x140]
  4026c3:	call   0x401e00
  4026c8:	add    esp,0x8
  4026cb:	pop    eax
  4026cc:	push   eax
  4026cd:	push   0x0
  4026cf:	mov    eax,ds:0x404048
  4026d4:	call   eax
  4026d6:	pop    eax
  4026d7:	sub    esp,0xffffffc0
  4026da:	mov    ebp,DWORD PTR [esp]
  4026dd:	add    esp,0x4
  4026e0:	ret    
  4026e1:	add    BYTE PTR [eax],al
  4026e3:	add    BYTE PTR [ebx-0x1374aa01],cl
  4026e9:	sub    esp,0x20
  4026ec:	push   eax
  4026ed:	push   DWORD PTR [eax+0x2e8]
  4026f3:	push   DWORD PTR [eax+0x114]
  4026f9:	push   ecx
  4026fa:	push   DWORD PTR [eax+0x248]
  402700:	call   0x4013ec
  402705:	add    esp,0x10
  402708:	pop    eax
  402709:	push   eax
  40270a:	mov    eax,0x0
  40270f:	push   eax
  402710:	mov    eax,ds:0x404004
  402715:	call   eax
  402717:	pop    eax
  402718:	push   eax
  402719:	mov    edx,0x0
  40271e:	push   edx
  40271f:	mov    eax,ds:0x404040
  402724:	call   eax
  402726:	pop    eax
  402727:	sub    esp,0xffffffe0
  40272a:	mov    ebp,DWORD PTR [esp]
  40272d:	add    esp,0x4
  402730:	ret    
	...
  402781:	add    BYTE PTR [eax],al
  402783:	add    BYTE PTR [ebx-0x1374aa01],cl
  402789:	sub    esp,0x2c
  40278c:	push   eax
  40278d:	push   ecx
  40278e:	push   DWORD PTR [eax+0x30c]
  402794:	push   esi
  402795:	call   0x401658
  40279a:	add    esp,0xc
  40279d:	pop    eax
  40279e:	push   eax
  40279f:	mov    esi,0x0
  4027a4:	push   esi
  4027a5:	mov    eax,ds:0x404080
  4027aa:	call   eax
  4027ac:	pop    eax
  4027ad:	push   eax
  4027ae:	mov    ebx,0x0
  4027b3:	push   ebx
  4027b4:	mov    eax,ds:0x404040
  4027b9:	call   eax
  4027bb:	pop    eax
  4027bc:	sub    esp,0xffffffd4
  4027bf:	mov    ebp,DWORD PTR [esp]
  4027c2:	add    esp,0x4
  4027c5:	ret    
	...
  402866:	add    BYTE PTR [eax],al
  402868:	mov    edi,edi
  40286a:	push   ebp
  40286b:	mov    ebp,esp
  40286d:	sub    esp,0x34
  402870:	push   eax
  402871:	lea    ebx,[eax-0x100]
  402877:	push   ebx
  402878:	mov    eax,ds:0x404000
  40287d:	call   eax
  40287f:	test   eax,eax
  402881:	jne    0x402871
  402883:	pop    eax
  402884:	push   eax
  402885:	push   edx
  402886:	push   DWORD PTR [eax+0x1cc]
  40288c:	push   edi
  40288d:	push   DWORD PTR [eax+0x130]
  402893:	call   0x4026a8
  402898:	add    esp,0x10
  40289b:	pop    eax
  40289c:	push   eax
  40289d:	mov    eax,ds:0x404030
  4028a2:	call   eax
  4028a4:	pop    eax
  4028a5:	sub    esp,0xffffffcc
  4028a8:	mov    ebp,DWORD PTR [esp]
  4028ab:	add    esp,0x4
  4028ae:	ret    
  4028af:	add    BYTE PTR [ebx-0x1374aa01],cl
  4028b5:	sub    esp,0x4c
  4028b8:	push   eax
  4028b9:	push   ebx
  4028ba:	push   DWORD PTR [eax+0x19c]
  4028c0:	push   DWORD PTR [eax+0x34c]
  4028c6:	push   ebx
  4028c7:	call   0x402784
  4028cc:	add    esp,0x10
  4028cf:	pop    eax
  4028d0:	push   eax
  4028d1:	lea    edi,[eax-0x100]
  4028d7:	push   edi
  4028d8:	mov    eax,ds:0x404000
  4028dd:	call   eax
  4028df:	test   eax,eax
  4028e1:	jne    0x4028d1
  4028e3:	pop    eax
  4028e4:	push   eax
  4028e5:	mov    eax,ds:0x40402c
  4028ea:	call   eax
  4028ec:	pop    eax
  4028ed:	sub    esp,0xffffffb4
  4028f0:	mov    ebp,DWORD PTR [esp]
  4028f3:	add    esp,0x4
  4028f6:	ret    
	...
  402947:	add    BYTE PTR [ebx-0x1374aa01],cl
  40294d:	sub    esp,0x5c
  402950:	push   eax
  402951:	push   DWORD PTR [eax+0x2e4]
  402957:	push   edx
  402958:	push   edi
  402959:	call   0x4025d8
  40295e:	add    esp,0xc
  402961:	pop    eax
  402962:	push   eax
  402963:	push   0x0
  402965:	mov    eax,ds:0x404040
  40296a:	call   eax
  40296c:	pop    eax
  40296d:	push   eax
  40296e:	push   0x0
  402970:	mov    eax,ds:0x404020
  402975:	call   eax
  402977:	pop    eax
  402978:	sub    esp,0xffffffa4
  40297b:	mov    ebp,DWORD PTR [esp]
  40297e:	add    esp,0x4
  402981:	ret    
  402982:	add    BYTE PTR [eax],al
  402984:	mov    edi,edi
  402986:	push   ebp
  402987:	mov    ebp,esp
  402989:	sub    esp,0x54
  40298c:	push   eax
  40298d:	push   ecx
  40298e:	push   esi
  40298f:	call   0x4018dc
  402994:	add    esp,0x8
  402997:	pop    eax
  402998:	push   eax
  402999:	push   0x0
  40299b:	mov    eax,ds:0x404008
  4029a0:	call   eax
  4029a2:	pop    eax
  4029a3:	push   eax
  4029a4:	mov    eax,ds:0x404028
  4029a9:	call   eax
  4029ab:	pop    eax
  4029ac:	sub    esp,0xffffffac
  4029af:	mov    ebp,DWORD PTR [esp]
  4029b2:	add    esp,0x4
  4029b5:	ret    
  4029b6:	add    BYTE PTR [eax],al
  4029b8:	bound  eax,QWORD PTR [edx+edi*1+0xfe8684a]
  4029bf:	js     0x40296e
  4029c1:	xor    BYTE PTR [ebp+edi*4+0x22],al
  4029c5:	pop    ss
  4029c6:	jae    0x402a03
  4029c8:	sbb    al,0xf7
  4029ca:	sbb    al,0x86
  4029cc:	inc    esi
  4029cd:	push   es
  4029ce:	push   esp
  4029cf:	(bad)  
  4029d0:	jle    0x4029c6
  4029d2:	cmps   DWORD PTR ds:[esi],DWORD PTR es:[edi]
  4029d3:	push   ecx
  4029d4:	fwait
  4029d5:	mov    esp,0x7a12f54
  4029da:	sahf   
  4029db:	dec    BYTE PTR [eax-0xf5f4ae2]
  4029e1:	sar    BYTE PTR [esi+0x61dd05f0],0x2a
  4029e8:	int    0x72
  4029ea:	or     ecx,DWORD PTR [ecx+ebx*8+0x762d4e22]
  4029f1:	test   DWORD PTR [ebx-0x2b],ebx
  4029f4:	(bad)  
  4029f5:	and    esi,eax
  4029f7:	cmps   BYTE PTR ds:[esi],BYTE PTR es:[edi]
  4029f8:	xor    ebx,esp
  4029fa:	jbe    0x402a19
  4029fc:	or     bh,BYTE PTR [ebx+0x67287ea3]
  402a02:	movs   BYTE PTR es:[edi],BYTE PTR ds:[esi]
  402a03:	push   edi
  402a04:	dec    ebp
  402a05:	mov    cs,WORD PTR [esi+0x26]
  402a08:	jbe    0x40298f
  402a0a:	pop    ebx
  402a0b:	push   esp
  402a0c:	mov    bl,0x6b
  402a0e:	dec    ebp
  402a0f:	dec    esi
  402a10:	sbb    dh,BYTE PTR [esi+0x16edfa69]
  402a16:	retf   0x2e2b
  402a19:	aad    0xd8
  402a1b:	aam    0x42
  402a1d:	push   eax
  402a1e:	lds    ebp,FWORD PTR [esi+0xcd65389]
  402a24:	mov    bh,BYTE PTR [ecx]
  402a26:	call   0x8d54:0x5bd50eaa
  402a2d:	jp     0x4029ff
  402a2f:	add    BYTE PTR [esi-0x762ba389],bl
  402a35:	daa    
  402a36:	sub    ebx,esi
  402a38:	iret   
  402a39:	xchg   ebp,eax
  402a3a:	pop    ebx
  402a3b:	aam    0x89
  402a3d:	xlat   BYTE PTR ds:[ebx]
  402a3e:	dec    esi
  402a3f:	fnstenv [ebp+eax*4+0x5b]
  402a43:	pop    ebp
  402a44:	iret   
  402a45:	xchg   BYTE PTR [esi+ebx*8+0x1c],al
  402a49:	out    0x33,al
  402a4b:	xchg   ebp,eax
  402a4c:	in     eax,0x16
  402a4e:	xlat   BYTE PTR ds:[ebx]
  402a4f:	inc    ebx
  402a50:	ds loopne 0x402a8b
  402a53:	movs   BYTE PTR es:[edi],BYTE PTR ds:[esi]
  402a54:	(bad)  [ecx]
  402a56:	cmps   DWORD PTR ds:[esi],DWORD PTR es:[edi]
  402a57:	jge    0x402ad7
  402a59:	or     al,0x5d
  402a5b:	mov    esi,0x59e01289
  402a60:	adc    esp,eax
  402a62:	xor    ebx,DWORD PTR [esp+ebp*8+0x257fd61b]
  402a69:	jp     0x402a77
  402a6b:	fadd   QWORD PTR [eax]
  402a6d:	cmp    al,0xa2
  402a6f:	test   al,0xb2
  402a71:	popf   
  402a72:	xor    DWORD PTR [ecx+eiz*8+0x762bb67a],edx
  402a79:	in     eax,dx
  402a7a:	call   edx
  402a7c:	mov    DWORD PTR [edx-0x34],edi
  402a7f:	sub    ecx,DWORD PTR [ecx+0x715f4bd0]
  402a85:	jg     0x402a8e
  402a87:	sub    esi,DWORD PTR [esi-0x7b]
  402a8a:	or     ebx,DWORD PTR [ecx+0x3c]
  402a8d:	stos   BYTE PTR es:[edi],al
  402a8e:	pop    ebp
  402a8f:	aam    0x89
  402a91:	cmp    al,0xff
  402a93:	ror    BYTE PTR [ecx-0x4a70ac86],cl
  402a99:	ins    DWORD PTR es:[edi],dx
  402a9a:	rcl    cl,1
  402a9c:	mov    DWORD PTR [edx-0x7],edi
  402a9f:	jne    0x402a92
  402aa1:	mov    cl,0x7f
  402aa3:	and    BYTE PTR [ecx-0x7d],0xa2
  402aa7:	sub    esi,DWORD PTR [esi+0x6d]
  402aaa:	(bad)  
  402aac:	mov    DWORD PTR [edx+0x2b],edi
  402aaf:	rcr    DWORD PTR [eax*4+0xf76d431],cl
  402ab6:	ret    0x897c
  402ab9:	shl    BYTE PTR [ebx+0x5f],1
  402abc:	les    edx,FWORD PTR [edx]
  402abe:	int3   
  402abf:	sub    esp,DWORD PTR [edx]
  402ac1:	fstp   QWORD PTR [edx-0x1f]
  402ac4:	lods   eax,DWORD PTR ds:[esi]
  402ac5:	sub    dh,ch
  402ac7:	jge    0x402aea
  402ac9:	jp     0x402ad7
  402acb:	clc    
  402acc:	shr    DWORD PTR ds:0x6d6e7da7,1
  402ad2:	jo     0x402aab
  402ad4:	mov    DWORD PTR [edx+0x2b],edi
  402ad7:	ins    DWORD PTR es:[edi],dx
  402ad8:	dec    edx
  402ad9:	or     BYTE PTR [edi-0x2e],bl
  402adc:	out    dx,eax
  402add:	(bad)  
  402ade:	out    0x3d,al
  402ae0:	jbe    0x402a87
  402ae2:	sub    al,0xc2
  402ae4:	mov    al,0x22
  402ae6:	xchg   edx,eax
  402ae7:	pop    edi
  402ae8:	addr16 push cs
  402aea:	add    esp,eax
  402aec:	jecxz  0x402b6c
  402aee:	into   
  402aef:	sub    eax,DWORD PTR [esi-0x7b]
  402af2:	pop    ebx
  402af3:	sub    edi,ecx
  402af5:	sub    dh,bl
  402af7:	aam    0x23
  402af9:	xchg   ebp,eax
  402afa:	(bad)  
  402afb:	test   eax,0x41f22ae5
  402b00:	jb     0x402ad4
  402b02:	push   cs
  402b03:	sub    ebx,esp
  402b05:	jbe    0x402af9
  402b07:	inc    ecx
  402b08:	je     0x402adc
  402b0a:	push   cs
  402b0b:	add    BYTE PTR [edx],0xb5
  402b0e:	sub    edx,eax
  402b10:	test   DWORD PTR [ecx],esp
  402b12:	add    eax,0xfe76dc2b
  402b17:	mov    al,ds:0xe81086b8
  402b1c:	add    al,0x3
  402b1e:	mov    esi,0x4aa521a0
  402b23:	arpl   ax,cx
  402b25:	outs   dx,BYTE PTR ds:[esi]
  402b26:	mov    ds:0x103279d3,eax
  402b2b:	shr    cl,cl
  402b2d:	icebp  
  402b2e:	out    dx,eax
  402b2f:	aas    
  402b30:	repz inc ebp
  402b32:	das    
  402b33:	xchg   ebp,eax
  402b34:	add    bh,BYTE PTR ds:0xf1b6aeae
  402b3a:	popa   
  402b3b:	cmp    al,0x18
  402b3d:	jle    0x402ae5
  402b3f:	sub    edi,ebp
  402b41:	dec    ebp
  402b42:	(bad)  
  402b43:	xchg   ebx,eax
  402b44:	lods   eax,DWORD PTR ds:[esi]
  402b45:	xchg   edx,eax
  402b46:	shr    DWORD PTR [ecx],1
  402b48:	jbe    0x402acf
  402b4a:	pop    esi
  402b4b:	mov    ds:0x3bdf859d,eax
  402b50:	std    
  402b51:	cli    
  402b52:	push   edi
  402b53:	xlat   BYTE PTR ds:[ebx]
  402b54:	jb     0x402b77
  402b56:	mul    BYTE PTR [eax-0x7af4285e]
  402b5c:	fisubr WORD PTR [ebx]
  402b5e:	hlt    
  402b5f:	inc    ecx
  402b60:	jb     0x402b36
  402b62:	add    ch,BYTE PTR [ebx]
  402b64:	fdiv   QWORD PTR [esi-0x3]
  402b67:	sbb    BYTE PTR [esi-0x2981512e],dh
  402b6d:	icebp  
  402b6e:	imul   ebx,eax,0xffffffd2
  402b71:	jp     0x402b7f
  402b73:	fcom   st(1)
  402b75:	sbb    esp,DWORD PTR [ebx]
  402b77:	in     al,dx
  402b78:	pop    esi
  402b79:	addr16 call 0xa6bbadbb
  402b7f:	sub    ebx,DWORD PTR [esi-0x762ba4fc]
  402b85:	and    cl,dh
  402b87:	sub    esi,DWORD PTR [esi]
  402b89:	test   DWORD PTR [ebx+0x2b],ebx
  402b8c:	cld    
  402b8d:	adc    dh,al
  402b8f:	mov    al,ds:0x3cab0e8d
  402b94:	cmp    DWORD PTR [esi-0x5a],0x2b
  402b98:	adc    bh,BYTE PTR [edx+0x6c]
  402b9b:	in     al,0x89
  402b9d:	jp     0x402b45
  402b9f:	jae    0x402b9e
  402ba1:	lds    edx,FWORD PTR [edi+0x5f]
  402ba4:	leave  
  402ba5:	jbe    0x402b44
  402ba7:	jae    0x402c17
  402ba9:	icebp  
  402baa:	pop    edi
  402bab:	pop    edi
  402bac:	mov    DWORD PTR [ecx-0x5e855fa1],edx
  402bb2:	pop    esi
  402bb3:	popf   
  402bb4:	mov    ch,0xf1
  402bb6:	aad    0x3
  402bb8:	jne    0x402c2c
  402bba:	shr    BYTE PTR [ecx+edx*4+0x1037d6f3],1
  402bc1:	jb     0x402bdb
  402bc3:	ret    0x5a89
  402bc6:	shl    DWORD PTR [edi],1
  402bc8:	adc    ah,BYTE PTR [ebx+eax*2]
  402bcb:	aam    0x89
  402bcd:	jp     0x402bfa
  402bcf:	imul   eax,DWORD PTR [esi+0xc],0x23
  402bd3:	fdiv   QWORD PTR [esi+0x2f]
  402bd6:	mov    dl,0xc3
  402bd8:	add    BYTE PTR [edi-0x4c2b2ba5],al
  402bde:	(bad)  
  402bdf:	mov    ds:0xb547a102,al
  402be4:	fst    DWORD PTR [edx-0x7a89d067]
  402bea:	add    edx,DWORD PTR [ebp-0xf]
  402bed:	and    ah,BYTE PTR [esi+0x2c857629]
  402bf3:	fild   DWORD PTR [edx]
  402bf5:	jle    0x402b79
  402bf7:	in     al,dx
  402bf8:	jb     0x402b9b
  402bfa:	pop    ebx
  402bfb:	aam    0x89
  402bfd:	jp     0x402ba6
  402bff:	pop    esi
  402c00:	push   edx
  402c01:	or     DWORD PTR [ebx],0xc6b949e7
  402c07:	mov    al,ds:0xe82d8685
  402c0c:	add    cl,ah
  402c0e:	sub    esi,DWORD PTR es:[esi-0x7b]
  402c12:	fsub   QWORD PTR [edx]
  402c14:	std    
  402c15:	or     DWORD PTR [ebx+0x57fbfdd8],esp
  402c1b:	push   ecx
  402c1c:	jbe    0x402c2c
  402c1e:	int3   
  402c1f:	sub    BYTE PTR [ebp-0x727da52e],cl
  402c25:	jmp    DWORD PTR [esi+0x5e]
  402c28:	jb     0x402bfc
  402c2a:	pop    edx
  402c2b:	or     BYTE PTR [ecx+0xa0f02a],0x95
  402c32:	pop    esi
  402c33:	daa    
  402c34:	add    al,BYTE PTR [ecx+ecx*1-0x590f4952]
  402c3b:	(bad)  
  402c3c:	jle    0x402c2f
  402c3e:	push   0xfd52775
  402c43:	mov    esi,0xd4ff2b8d
  402c48:	and    ecx,DWORD PTR [ecx-0x70a0f3]
  402c4e:	mov    bx,0xee6
  402c52:	sbb    eax,0xa34e04c4
  402c57:	jl     0x402c34
  402c59:	add    BYTE PTR [ebx-0x592c6d60],bl
  402c5f:	sub    esi,DWORD PTR [esi+0x5]
  402c62:	sub    al,0xd0
  402c64:	add    al,0x3e
  402c66:	mov    ds:0x5a7a5329,eax
  402c6b:	aam    0x9
  402c6d:	sub    ah,BYTE PTR [edi+0x5a91525e]
  402c73:	add    BYTE PTR [ecx+0x29cb4bd1],0xdb
  402c7a:	add    ecx,DWORD PTR [ebp+0x7cf52add]
  402c80:	mov    eax,edx
  402c82:	push   edi
  402c83:	mov    WORD PTR [edx],cs
  402c85:	mov    esp,0xe4f9c0b2
  402c8a:	sahf   
  402c8b:	mov    ah,0x2
  402c8d:	test   eax,0xf375d92b
  402c92:	addr16 (bad) 
  402c94:	fisttp WORD PTR [esi+0x21]
  402c97:	stc    
  402c98:	jns    0x402c9b
  402c9a:	int3   
  402c9b:	aam    0x89
  402c9d:	jp     0x402cca
  402c9f:	movs   DWORD PTR es:[edi],DWORD PTR ds:[esi]
  402ca0:	rol    BYTE PTR [ebp-0x33fd2ba5],cl
  402ca6:	push   es
  402ca7:	sub    esi,DWORD PTR [esi-0x7b]
  402caa:	fsub   QWORD PTR [edx]
  402cac:	xchg   dh,bh
  402cae:	and    eax,0x5e85762b
  402cb3:	daa    
  402cb4:	and    al,0xf1
  402cb6:	pop    esi
  402cb7:	sub    BYTE PTR [ebp-0x26ef292b],cl
  402cbd:	sub    esi,esp
  402cbf:	jnp    0x402cdd
  402cc1:	xor    DWORD PTR [ebx],0xa67a99d4
  402cc7:	jl     0x402cbe
  402cc9:	ins    DWORD PTR es:[edi],dx
  402cca:	pop    edi
  402ccb:	test   bl,ah
  402ccd:	jle    0x402c9d
  402ccf:	sub    esp,DWORD PTR [esi-0x7b]
  402cd2:	pop    ebx
  402cd3:	or     DWORD PTR [eax],0x7e
  402cd6:	sub    BYTE PTR [ebx],0x66
  402cd9:	test   DWORD PTR [ebx+0x2b],ebx
  402cdc:	fdiv   QWORD PTR [esi-0x59]
  402cdf:	jge    0x402d5b
  402ce1:	fild   WORD PTR [eax]
  402ce3:	jns    0x402c87
  402ce5:	mov    dl,0xf5
  402ce7:	mov    al,ds:0x57b054be
  402cec:	pusha  
  402ced:	jle    0x402c82
  402cef:	jmp    0x402d01
  402cf1:	sub    BYTE PTR ds:0xd24a897d,bh
  402cf7:	and    edx,DWORD PTR [ebx+0x7a]
  402cfa:	dec    edx
  402cfb:	aam    0x89
  402cfd:	jnp    0x402cb1
  402cff:	sub    al,0x94
  402d01:	imul   eax,DWORD PTR [eax],0x59
  402d04:	int    0x5e
  402d06:	mov    ds:0x5ad5247a,al
  402d0b:	in     eax,0xe1
  402d0d:	jp     0x402cc5
  402d0f:	sub    esi,DWORD PTR [esi-0x2e]
  402d12:	fidivr WORD PTR [ecx*4+0x1e1aa72a]
  402d19:	test   DWORD PTR [ebx-0x2c],ecx
  402d1c:	mov    DWORD PTR ds:0x85522f25,ebp
  402d22:	dec    ebx
  402d23:	aam    0x89
  402d25:	test   ecx,esi
  402d27:	daa    
  402d28:	mov    eax,edx
  402d2a:	push   edi
  402d2b:	mov    ss,eax
  402d2d:	and    bh,dh
  402d2f:	scas   al,BYTE PTR es:[edi]
  402d30:	mov    edi,0x4ab5d8f0
  402d35:	sbb    cl,BYTE PTR [ebx+0x2c]
  402d38:	(bad)  [edi-0x5c]
  402d3b:	pop    ecx
  402d3c:	mov    ebp,0x9ea06379
  402d41:	push   cs
  402d42:	scas   al,BYTE PTR es:[edi]
  402d43:	ins    DWORD PTR es:[edi],dx
  402d44:	cdq    
  402d45:	jp     0x402ced
  402d47:	sub    ebx,DWORD PTR [esi-0x762ba592]
  402d4d:	rol    BYTE PTR [edi-0x4c7a89d5],0x35
  402d54:	jbe    0x402cdb
  402d56:	cmps   DWORD PTR ds:[esi],DWORD PTR es:[edi]
  402d57:	jl     0x402d28
  402d59:	sbb    BYTE PTR [ebx-0x2c],0x89
  402d5d:	xchg   edx,eax
  402d5e:	jo     0x402d34
  402d60:	mov    DWORD PTR [edx-0x2a],edi
  402d63:	add    al,0x2
  402d65:	dec    esi
  402d66:	adc    BYTE PTR [edx-0x2ba47a81],0x61
  402d6d:	mov    ebp,0x9762ba7
  402d72:	movs   DWORD PTR es:[edi],DWORD PTR ds:[esi]
  402d73:	pop    edi
  402d74:	inc    ebx
  402d75:	xchg   edx,eax
  402d76:	sbb    ah,dl
  402d78:	mov    DWORD PTR [edx+0x6e],edi
  402d7b:	adc    al,0xd9
  402d7d:	mov    ebx,0x81b72c6e
  402d82:	jg     0x402d5d
  402d84:	mov    BYTE PTR [esi-0x7e],bh
  402d87:	xchg   edx,esi
  402d89:	inc    ebp
  402d8a:	sub    al,0x25
  402d8c:	shl    ecx,1
  402d8e:	pop    edi
  402d8f:	adc    BYTE PTR [ebx-0x361a10f],dh
  402d95:	cmps   DWORD PTR ds:[esi],DWORD PTR es:[edi]
  402d96:	sub    ebx,DWORD PTR [edi]
  402d98:	push   edx
  402d99:	cmp    al,0x51
  402d9b:	aam    0x89
  402d9d:	jp     0x402ded
  402d9f:	mov    esi,0xc45a7a89
  402da4:	ds jbe 0x402d97
  402da7:	jne    0x402dd0
  402da9:	cmp    al,0x53
  402dab:	aam    0x89
  402dad:	jp     0x402dfd
  402daf:	scas   al,BYTE PTR es:[edi]
  402db0:	mov    DWORD PTR [edx+0x5a],edi
  402db3:	mov    fs,WORD PTR [ecx+0x5]
  402db6:	cmps   DWORD PTR ds:[esi],DWORD PTR es:[edi]
  402db7:	sub    esi,DWORD PTR [esi+0xf]
  402dba:	das    
  402dbb:	lock xchg ebp,eax
  402dbd:	sbb    esp,DWORD PTR [ebx+0x7a]
  402dc0:	mov    bh,0x6d
  402dc2:	inc    esp
  402dc3:	ins    DWORD PTR es:[edi],dx
  402dc4:	test   eax,0x3e2ba67a
  402dc9:	icebp  
  402dca:	imul   ebp,DWORD PTR [ebp-0x75],0x7a
  402dce:	cmps   BYTE PTR ds:[esi],BYTE PTR es:[edi]
  402dcf:	sub    edi,DWORD PTR [esi]
  402dd1:	icebp  
  402dd2:	jae    0x402e41
  402dd4:	test   eax,0x3e2ba67a
  402dd9:	icebp  
  402dda:	jnp    0x402e49
  402ddc:	lea    edi,[edx-0x5a]
  402ddf:	sub    edi,DWORD PTR [esi]
  402de1:	icebp  
  402de2:	inc    ebx
  402de3:	ins    DWORD PTR es:[edi],dx
  402de4:	leave  
  402de5:	jp     0x402d8d
  402de7:	sub    edi,DWORD PTR [esi]
  402de9:	icebp  
  402dea:	dec    ebx
  402deb:	ins    DWORD PTR es:[edi],dx
  402dec:	lea    edi,[edx-0x5a]
  402def:	sub    edi,DWORD PTR [esi]
  402df1:	icebp  
  402df2:	push   ebx
  402df3:	ins    DWORD PTR es:[edi],dx
  402df4:	leave  
  402df5:	jp     0x402d9d
  402df7:	sub    edi,DWORD PTR [esi]
  402df9:	icebp  
  402dfa:	pop    ebx
  402dfb:	pop    edi
  402dfc:	dec    eax
  402dfd:	and    esp,DWORD PTR [ebx+0x4b]
  402e00:	std    
  402e01:	shr    BYTE PTR [ebx],1
  402e03:	push   ebp
  402e04:	jnp    0x402df1
  402e06:	dec    esp
  402e07:	outs   dx,BYTE PTR ds:[esi]
  402e08:	push   cs
  402e09:	push   cs
  402e0a:	adc    al,0xbc
  402e0c:	add    al,BYTE PTR [ebx+eiz*1+0x2f852e56]
  402e13:	xlat   BYTE PTR ds:[ebx]
  402e14:	mov    BYTE PTR [edi],cl
  402e16:	(bad)  
  402e17:	mov    al,ds:0x14dce533
  402e1c:	std    
  402e1d:	outs   dx,DWORD PTR ds:[esi]
  402e1e:	sub    eax,0xe1d74a6d
  402e23:	ror    BYTE PTR [ecx-0x2c3c5986],1
  402e29:	test   BYTE PTR [ebx-0x2c],bl
  402e2c:	sar    DWORD PTR [ecx+0x56],cl
  402e2f:	sub    BYTE PTR [esi-0x3106c52],cl
  402e35:	and    dl,cl
  402e37:	es jne 0x402e2a
  402e3a:	pop    es
  402e3b:	xlat   BYTE PTR ds:[ebx]
  402e3c:	hlt    
  402e3d:	mov    esp,DWORD PTR es:[esi+0x2a]
  402e41:	add    BYTE PTR [eax-0x9287d60],dl
  402e47:	add    BYTE PTR [edi+ebx*8+0x796057f6],dh
  402e4e:	inc    esp
  402e4f:	enter  0x4617,0x3b
  402e53:	push   edi
  402e54:	hlt    
  402e55:	cmps   BYTE PTR ss:[esi],BYTE PTR es:[edi]
  402e57:	pop    edi
  402e58:	fs ins DWORD PTR es:[edi],dx
  402e5a:	dec    edx
  402e5b:	aam    0x89
  402e5d:	jp     0x402e8a
  402e5f:	push   esi
  402e60:	and    al,BYTE PTR [eax]
  402e62:	pop    edx
  402e63:	mov    eax,ds:0x884ed18f
  402e68:	jbe    0x402def
  402e6a:	pop    ebx
  402e6b:	mov    ch,0x4a
  402e6d:	sbb    ah,BYTE PTR [edi-0x7cf1b583]
  402e73:	pop    edi
  402e74:	cld    
  402e75:	sub    ebp,DWORD PTR ss:[esi+0x26]
  402e79:	aad    0xb
  402e7b:	mov    esp,0x2baa7a89
  402e80:	and    eax,0xd0940c7a
  402e85:	sub    ch,BYTE PTR [ebx]
  402e87:	rol    DWORD PTR [ebp-0x76134cdf],cl
  402e8d:	jp     0x402e35
  402e8f:	arpl   di,di
  402e91:	sar    DWORD PTR [edi-0xc],0x2
  402e95:	sub    BYTE PTR [ecx],0x27
  402e98:	retf   
  402e99:	sbb    DWORD PTR [ebx-0x2c],0x33051e89
  402ea0:	jbe    0x402e27
  402ea2:	pop    ebx
  402ea3:	pop    edi
  402ea4:	stc    
  402ea5:	push   esi
  402ea6:	cmc    
  402ea7:	inc    ebx
  402ea8:	jbe    0x402e2f
  402eaa:	push   edi
  402eab:	aam    0xda
  402ead:	test   ecx,esi
  402eaf:	imul   edi,ebx,0xffffff89
  402eb2:	jecxz  0x402f0f
  402eb4:	mov    BYTE PTR [edx],ch
  402eb6:	sub    esp,esp
  402eb8:	std    
  402eb9:	jge    0x402e69
  402ebb:	jno    0x402eaa
  402ebd:	fstp   TBYTE PTR [esi-0x357a89d5]
  402ec3:	xchg   esp,eax
  402ec4:	movs   DWORD PTR es:[edi],DWORD PTR ds:[esi]
  402ec5:	sbb    esp,DWORD PTR [ebx+0x4b]
  402ec8:	imul   DWORD PTR [ecx+0x7b]
  402ecb:	(bad)  
  402ecc:	mov    DWORD PTR [edx-0x32],edi
  402ecf:	pcmpeqb mm0,QWORD PTR [ebp+0x107fe75b]
  402ed6:	cmps   BYTE PTR ds:[esi],BYTE PTR es:[edi]
  402ed7:	inc    ecx
  402ed8:	jle    0x402f54
  402eda:	or     al,0xc8
  402edc:	add    ah,BYTE PTR [edx-0x2f76870e]
  402ee2:	outs   dx,DWORD PTR ds:[esi]
  402ee3:	pop    edi
  402ee4:	int    0x5e
  402ee6:	mov    edx,0xd6b93628
  402eeb:	push   esp
  402eec:	dec    ecx
  402eed:	jp     0x402e95
  402eef:	sub    esi,ebx
  402ef1:	inc    ebp
  402ef2:	das    
  402ef3:	aad    0xcf
  402ef5:	cs repz aam 0x23
  402ef9:	mov    ebp,0x9ffc14dc
  402efe:	repz aam 0x23
  402f01:	popf   
  402f02:	fcom   DWORD PTR [eax]
  402f04:	lods   eax,DWORD PTR ds:[esi]
  402f05:	js     0x402ead
  402f07:	sub    edi,edi
  402f09:	icebp  
  402f0a:	jg     0x402ed4
  402f0c:	call   0x1a83f5ca
  402f11:	jmp    0x9220371
  402f16:	rol    BYTE PTR ds:0xa734ed12,cl
  402f1c:	call   FWORD PTR [ecx]
  402f1e:	repnz aam 0x23
  402f21:	sbb    esp,0xf272fc14
  402f27:	aam    0x23
  402f29:	test   esp,ebx
  402f2b:	adc    al,0xfd
  402f2d:	aaa    
  402f2e:	int3   
  402f2f:	sub    ebx,DWORD PTR [esi]
  402f31:	in     al,dx
  402f32:	xor    eax,0xc012efa0
  402f37:	pop    esp
  402f38:	push   es
  402f39:	test   DWORD PTR [edi],0xae2f7684
  402f3f:	test   al,0xb2
  402f41:	mov    esi,edx
  402f43:	and    al,0xd9
  402f45:	cs int3 
  402f47:	imul   ebx,DWORD PTR [edx+eax*4],0xd
  402f4b:	sub    ebx,esp
  402f4d:	jbe    0x402f4d
  402f4f:	jnp    0x402f73
  402f51:	aad    0x31
  402f53:	rcr    edi,cl
  402f55:	xchg   edx,eax
  402f56:	sub    BYTE PTR [ebx],0x76
  402f59:	test   esi,edx
  402f5b:	call   0x39b02b0d
  402f60:	jbe    0x402ee7
  402f62:	pop    ebx
  402f63:	mov    esi,0x8f53238e
  402f68:	xor    DWORD PTR [esi],ecx
  402f6a:	popf   
  402f6b:	jg     0x402f71
  402f6d:	add    al,0x5d
  402f6f:	fwait
  402f70:	push   ds
  402f71:	das    
  402f72:	add    edi,DWORD PTR [edi+0x39]
  402f75:	mov    ecx,0x8923d40c
  402f7a:	add    edx,DWORD PTR [edi+0x4d]
  402f7d:	jbe    0x402f44
  402f7f:	call   0x81cba9b2
  402f84:	popa   
  402f85:	in     al,0xa6
  402f87:	sub    esi,DWORD PTR [esi-0x28]
  402f8a:	aam    0x91
  402f8c:	stc    
  402f8d:	stc    
  402f8e:	data16 das 
  402f90:	inc    ecx
  402f92:	jg     0x402f58
  402f94:	aam    0x7a
  402f96:	cmps   BYTE PTR ds:[esi],BYTE PTR es:[edi]
  402f97:	sub    esi,DWORD PTR [esi-0x7b]
  402f9a:	pop    ebx
  402f9b:	aam    0xe1
  402f9d:	jp     0x402f45
  402f9f:	sub    esi,DWORD PTR [esi+0x46]
  402fa2:	cmp    eax,0x1c1c7fe7
  402fa7:	data16 sub al,0xe3
  402faa:	hlt    
  402fab:	mov    dl,0xba
  402fad:	stos   BYTE PTR es:[edi],al
  402fae:	shl    BYTE PTR [ebx],cl
  402fb0:	imul   DWORD PTR [ebx+0x59]
  402fb3:	les    ecx,FWORD PTR [ecx-0x439b486]
  402fb9:	(bad)  [ebp+0x550f7650]
  402fbf:	mov    al,ds:0x6e3dbf00
  402fc4:	fnstcw WORD PTR [edi]
  402fc6:	sub    DWORD PTR [edi],ebx
  402fc8:	push   0xbab2f4e3
  402fcd:	stos   BYTE PTR es:[edi],al
  402fce:	ror    ebx,1
  402fd0:	mov    ch,0xd4
  402fd2:	outs   dx,BYTE PTR ds:[esi]
  402fd3:	sbb    eax,0x536451c8
  402fd8:	jb     0x402fcb
  402fda:	pop    ecx
  402fdb:	aas    
  402fdc:	jle    0x403027
  402fde:	data16 sub BYTE PTR [edi+eiz*2-0xeb57259],dh
  402fe6:	fld    DWORD PTR [ebx+0x1c]
  402fe9:	xor    DWORD PTR [ebx],0xa67a99d4
  402fef:	jl     0x40300d
  402ff1:	test   DWORD PTR [edx-0x7e],ebx
  402ff4:	cdq    
  402ff5:	icebp  
  402ff6:	push   esi
  402ff7:	stos   BYTE PTR es:[edi],al
  402ff8:	call   0x5af1:0x89d45881
  402fff:	inc    ebx
  403000:	jb     0x402f86
  403002:	pop    ebx
  403003:	aam    0xde
  403005:	sub    DWORD PTR [edi+0x5bef567d],esp
  40300b:	mov    esp,0x2ba67a09
  403010:	sbb    al,0x86
  403012:	xor    esp,edx
  403014:	jecxz  0x403091
  403016:	into   
  403017:	sub    esi,DWORD PTR [esi-0x7b]
  40301a:	fild   DWORD PTR [ebx-0x557dd08a]
  403020:	mov    dl,0x81
  403022:	pop    eax
  403023:	aam    0x89
  403025:	mov    ecx,0x55897336
  40302a:	cmps   BYTE PTR ds:[esi],BYTE PTR es:[edi]
  40302b:	add    BYTE PTR [ebx],ch
  40302d:	sbb    ebp,DWORD PTR [edi+edx*1]
  403030:	jb     0x402ffa
  403032:	adc    al,0x6c
  403034:	es mov dh,0x79
  403037:	adc    bh,ch
  403039:	add    edi,DWORD PTR [ebx+0x58]
  40303c:	rcr    DWORD PTR [eax],0x45
  40303f:	pop    ecx
  403040:	scas   eax,DWORD PTR es:[edi]
  403041:	sahf   
  403042:	mov    ebx,0x3b165768
  403047:	test   edx,ebp
  403049:	push   ecx
  40304a:	fwait
  40304b:	test   eax,0xdb467ee6
  403051:	xchg   edx,eax
  403052:	movs   DWORD PTR es:[edi],DWORD PTR ds:[esi]
  403053:	sbb    eax,0x47e0ff23
  403058:	in     al,dx
  403059:	lods   al,BYTE PTR ds:[esi]
  40305a:	push   ebx
  40305b:	push   edi
  40305c:	sbb    ch,0x1d
  40305f:	int    0x60
  403061:	test   BYTE PTR [ebx],bl
  403063:	enter  0xf188,0x1b
  403067:	arpl   WORD PTR [edx+eax*2+0x5cd56bd4],dx
  40306e:	movs   BYTE PTR es:[edi],BYTE PTR ds:[esi]
  40306f:	mov    eax,0xd45b3249
  403074:	mov    DWORD PTR [edx-0x5a],edi
  403077:	sub    esi,DWORD PTR [esi-0x7b]
  40307a:	pop    ebx
  40307b:	aam    0x89
  40307d:	jp     0x403025
  40307f:	sub    esi,DWORD PTR [esi-0x7b]
  403082:	pop    ebx
  403083:	aam    0x89
  403085:	jp     0x40302d
  403087:	sub    esi,DWORD PTR [esi-0x7b]
  40308a:	pop    ebx
  40308b:	aam    0x89
  40308d:	jp     0x403085
  40308f:	lods   al,BYTE PTR ds:[esi]
  403090:	ja     0x403017
  403092:	pop    ebx
  403093:	into   
  403094:	mov    WORD PTR [edx-0x5a],?
  403097:	das    
  403098:	jbe    0x40301f
  40309a:	xchg   esi,eax
  40309b:	jmp    0xfe44:0xf7d87845
  4030a2:	mov    ebx,0x18b043c3
  4030a7:	repnz push eax
  4030a9:	sahf   
  4030aa:	jnp    0x4030bc
