
340d70d3db44fe12566ae39bb24d54ef5ffc003422b73ae44858c0adc0cc142e.exe:     file format pei-i386


Disassembly of section .text:

00401000 <.text>:
  401000:	mov    edi,edi
  401002:	push   ebp
  401003:	mov    ebp,esp
  401005:	sub    esp,0x24
  401008:	push   ecx
  401009:	mov    eax,0x0
  40100e:	push   eax
  40100f:	push   0x403048
  401014:	pop    eax
  401015:	notrack call DWORD PTR [eax]
  401018:	pop    ecx
  401019:	push   ecx
  40101a:	push   DWORD PTR [ecx+0x1d4]
  401020:	push   ebx
  401021:	push   DWORD PTR [ecx+0x15c]
  401027:	push   DWORD PTR [ecx+0x20c]
  40102d:	call   0x4014c8
  401032:	add    esp,0x10
  401035:	pop    ecx
  401036:	push   ecx
  401037:	mov    esi,0x0
  40103c:	push   esi
  40103d:	push   0x403080
  401042:	pop    eax
  401043:	notrack call DWORD PTR [eax]
  401046:	pop    ecx
  401047:	sub    esp,0xffffffdc
  40104a:	mov    ebp,DWORD PTR [esp]
  40104d:	add    esp,0x4
  401050:	ret    
	...
  40105d:	add    BYTE PTR [eax],al
  40105f:	add    BYTE PTR [ebx-0x74aa9f01],cl
  401065:	in     al,dx
  401066:	sub    esp,0x54
  401069:	push   ecx
  40106a:	mov    edi,0x0
  40106f:	push   edi
  401070:	push   0x40304c
  401075:	pop    eax
  401076:	notrack call DWORD PTR [eax]
  401079:	pop    ecx
  40107a:	test   eax,eax
  40107c:	je     0x40107f
  40107e:	ret    
  40107f:	push   ecx
  401080:	push   DWORD PTR [ecx+0x2a4]
  401086:	push   DWORD PTR [ecx+0x144]
  40108c:	push   DWORD PTR [ecx+0x2dc]
  401092:	call   0x401b04
  401097:	add    esp,0xc
  40109a:	pop    ecx
  40109b:	push   ecx
  40109c:	push   0x0
  40109e:	push   0x403064
  4010a3:	pop    eax
  4010a4:	notrack call DWORD PTR [eax]
  4010a7:	pop    ecx
  4010a8:	mov    ebx,0x40301c
  4010ad:	mov    ebx,DWORD PTR [ebx]
  4010af:	push   ebx
  4010b0:	push   DWORD PTR [ecx+0x1fc]
  4010b6:	pop    edx
  4010b7:	call   edx
  4010b9:	sub    esp,0xffffffac
  4010bc:	mov    ebp,DWORD PTR [esp]
  4010bf:	add    esp,0x4
  4010c2:	ret    
  4010c3:	add    BYTE PTR [edi],cl
  4010c5:	xchg   DWORD PTR [esi+0xffffff],edx
  4010cb:	add    BYTE PTR [ebx-0x1374aa01],cl
  4010d1:	sub    esp,0x48
  4010d4:	push   ecx
  4010d5:	push   0x0
  4010d7:	push   0x403014
  4010dc:	pop    eax
  4010dd:	notrack call DWORD PTR [eax]
  4010e0:	pop    ecx
  4010e1:	push   ecx
  4010e2:	push   ebx
  4010e3:	push   DWORD PTR [ecx+0x110]
  4010e9:	push   ebx
  4010ea:	call   0x4011ec
  4010ef:	add    esp,0xc
  4010f2:	pop    ecx
  4010f3:	push   ecx
  4010f4:	push   0x0
  4010f6:	push   0x403048
  4010fb:	pop    eax
  4010fc:	notrack call DWORD PTR [eax]
  4010ff:	pop    ecx
  401100:	sub    esp,0xffffffb8
  401103:	mov    ebp,DWORD PTR [esp]
  401106:	add    esp,0x4
  401109:	ret    
  40110a:	add    BYTE PTR [eax],al
  40110c:	mov    edi,edi
  40110e:	push   ebp
  40110f:	mov    ebp,esp
  401111:	sub    esp,0x38
  401114:	push   ecx
  401115:	mov    edi,0x0
  40111a:	push   edi
  40111b:	push   0x403060
  401120:	pop    eax
  401121:	notrack call DWORD PTR [eax]
  401124:	pop    ecx
  401125:	push   ecx
  401126:	push   DWORD PTR [ecx+0x190]
  40112c:	push   DWORD PTR [ecx+0x98]
  401132:	call   0x401ac0
  401137:	add    esp,0x8
  40113a:	pop    ecx
  40113b:	push   ecx
  40113c:	lea    ecx,[ecx]
  40113e:	push   ecx
  40113f:	push   0x40301c
  401144:	pop    eax
  401145:	notrack call DWORD PTR [eax]
  401148:	test   eax,eax
  40114a:	jne    0x40113c
  40114c:	pop    ecx
  40114d:	sub    esp,0xffffffc8
  401150:	mov    ebp,DWORD PTR [esp]
  401153:	add    esp,0x4
  401156:	ret    
  401157:	add    BYTE PTR [eax],al
  401159:	add    BYTE PTR [eax],al
  40115b:	add    BYTE PTR [ebx-0x1374aa01],cl
  401161:	sub    esp,0x58
  401164:	push   ecx
  401165:	push   DWORD PTR [ecx+0x240]
  40116b:	push   DWORD PTR [ecx+0x3a8]
  401171:	push   edi
  401172:	call   0x4013f8
  401177:	add    esp,0xc
  40117a:	pop    ecx
  40117b:	push   ecx
  40117c:	mov    ebx,0x0
  401181:	push   ebx
  401182:	push   0x40304c
  401187:	pop    eax
  401188:	notrack call DWORD PTR [eax]
  40118b:	pop    ecx
  40118c:	push   ecx
  40118d:	push   0x0
  40118f:	push   0x403080
  401194:	pop    eax
  401195:	notrack call DWORD PTR [eax]
  401198:	pop    ecx
  401199:	sub    esp,0xffffffa8
  40119c:	mov    ebp,DWORD PTR [esp]
  40119f:	add    esp,0x4
  4011a2:	ret    
  4011a3:	add    BYTE PTR [ebx-0x1374aa01],cl
  4011a9:	sub    esp,0x1c
  4011ac:	push   ecx
  4011ad:	push   0x0
  4011af:	push   0x40304c
  4011b4:	pop    eax
  4011b5:	notrack call DWORD PTR [eax]
  4011b8:	pop    ecx
  4011b9:	push   ecx
  4011ba:	push   DWORD PTR [ecx+0x30c]
  4011c0:	push   DWORD PTR [ecx+0xac]
  4011c6:	call   0x401dcc
  4011cb:	add    esp,0x8
  4011ce:	pop    ecx
  4011cf:	push   ecx
  4011d0:	push   0x0
  4011d2:	push   0x403004
  4011d7:	pop    eax
  4011d8:	notrack call DWORD PTR [eax]
  4011db:	pop    ecx
  4011dc:	sub    esp,0xffffffe4
  4011df:	mov    ebp,DWORD PTR [esp]
  4011e2:	add    esp,0x4
  4011e5:	ret    
  4011e6:	add    BYTE PTR [eax],al
  4011e8:	add    BYTE PTR [eax],al
  4011ea:	add    BYTE PTR [eax],al
  4011ec:	mov    edi,edi
  4011ee:	push   ebp
  4011ef:	mov    ebp,esp
  4011f1:	sub    esp,0x34
  4011f4:	push   ecx
  4011f5:	lea    ecx,[ecx]
  4011f7:	push   ecx
  4011f8:	push   0x40301c
  4011fd:	pop    eax
  4011fe:	notrack call DWORD PTR [eax]
  401201:	test   eax,eax
  401203:	jne    0x4011f5
  401205:	pop    ecx
  401206:	push   ecx
  401207:	push   ebx
  401208:	push   DWORD PTR [ecx+0x68]
  40120b:	push   DWORD PTR [ecx+0x378]
  401211:	push   eax
  401212:	call   0x401b48
  401217:	add    esp,0x10
  40121a:	pop    ecx
  40121b:	push   ecx
  40121c:	push   0x0
  40121e:	push   0x403048
  401223:	pop    eax
  401224:	notrack call DWORD PTR [eax]
  401227:	pop    ecx
  401228:	sub    esp,0xffffffcc
  40122b:	mov    ebp,DWORD PTR [esp]
  40122e:	add    esp,0x4
  401231:	ret    
	...
  40123a:	add    BYTE PTR [eax],al
  40123c:	mov    edi,edi
  40123e:	push   ebp
  40123f:	mov    ebp,esp
  401241:	sub    esp,0x40
  401244:	push   ecx
  401245:	push   DWORD PTR [ecx+0x3ac]
  40124b:	push   ebx
  40124c:	push   esi
  40124d:	push   DWORD PTR [ecx+0x240]
  401253:	call   0x40110c
  401258:	add    esp,0x10
  40125b:	pop    ecx
  40125c:	push   ecx
  40125d:	mov    ebx,0x0
  401262:	push   ebx
  401263:	push   0x403064
  401268:	pop    eax
  401269:	notrack call DWORD PTR [eax]
  40126c:	pop    ecx
  40126d:	push   ecx
  40126e:	lea    edi,[ecx]
  401270:	push   edi
  401271:	push   0x40301c
  401276:	pop    eax
  401277:	notrack call DWORD PTR [eax]
  40127a:	test   eax,eax
  40127c:	jne    0x40126e
  40127e:	pop    ecx
  40127f:	sub    esp,0xffffffc0
  401282:	mov    ebp,DWORD PTR [esp]
  401285:	add    esp,0x4
  401288:	ret    
  401289:	add    BYTE PTR [eax],al
  40128b:	add    BYTE PTR [eax],al
  40128d:	add    BYTE PTR [eax],al
  40128f:	add    BYTE PTR [ebx-0x1374aa01],cl
  401295:	sub    esp,0x4c
  401298:	push   ecx
  401299:	mov    ecx,0x0
  40129e:	push   ecx
  40129f:	push   0x403008
  4012a4:	pop    eax
  4012a5:	notrack call DWORD PTR [eax]
  4012a8:	pop    ecx
  4012a9:	push   ecx
  4012aa:	push   DWORD PTR [ecx+0xf0]
  4012b0:	push   esi
  4012b1:	call   0x401d00
  4012b6:	add    esp,0x8
  4012b9:	pop    ecx
  4012ba:	push   ecx
  4012bb:	mov    ecx,0x0
  4012c0:	push   ecx
  4012c1:	push   0x40302c
  4012c6:	pop    eax
  4012c7:	notrack call DWORD PTR [eax]
  4012ca:	pop    ecx
  4012cb:	sub    esp,0xffffffb4
  4012ce:	mov    ebp,DWORD PTR [esp]
  4012d1:	add    esp,0x4
  4012d4:	ret    
  4012d5:	add    BYTE PTR [eax],al
  4012d7:	add    BYTE PTR [ebx-0x1374aa01],cl
  4012dd:	sub    esp,0x28
  4012e0:	push   ecx
  4012e1:	push   0x0
  4012e3:	push   0x40302c
  4012e8:	pop    eax
  4012e9:	notrack call DWORD PTR [eax]
  4012ec:	pop    ecx
  4012ed:	push   ecx
  4012ee:	push   DWORD PTR [ecx+0x3e4]
  4012f4:	push   ebx
  4012f5:	push   DWORD PTR [ecx+0x248]
  4012fb:	call   0x40181c
  401300:	add    esp,0xc
  401303:	pop    ecx
  401304:	push   ecx
  401305:	mov    edx,0x0
  40130a:	push   edx
  40130b:	push   0x40304c
  401310:	pop    eax
  401311:	notrack call DWORD PTR [eax]
  401314:	pop    ecx
  401315:	sub    esp,0xffffffd8
  401318:	mov    ebp,DWORD PTR [esp]
  40131b:	add    esp,0x4
  40131e:	ret    
  40131f:	add    BYTE PTR [ebx-0x1374aa01],cl
  401325:	sub    esp,0x3c
  401328:	push   ecx
  401329:	mov    ebx,0x0
  40132e:	push   ebx
  40132f:	push   0x403008
  401334:	pop    eax
  401335:	notrack call DWORD PTR [eax]
  401338:	pop    ecx
  401339:	push   ecx
  40133a:	push   edx
  40133b:	push   edi
  40133c:	call   0x40190c
  401341:	add    esp,0x8
  401344:	pop    ecx
  401345:	push   ecx
  401346:	mov    edx,0x0
  40134b:	push   edx
  40134c:	push   0x403014
  401351:	pop    eax
  401352:	notrack call DWORD PTR [eax]
  401355:	pop    ecx
  401356:	sub    esp,0xffffffc4
  401359:	mov    ebp,DWORD PTR [esp]
  40135c:	add    esp,0x4
  40135f:	ret    
	...
  401368:	mov    edi,edi
  40136a:	push   ebp
  40136b:	mov    ebp,esp
  40136d:	sub    esp,0x58
  401370:	push   ecx
  401371:	push   0x0
  401373:	push   0x403064
  401378:	pop    eax
  401379:	notrack call DWORD PTR [eax]
  40137c:	pop    ecx
  40137d:	push   ecx
  40137e:	push   eax
  40137f:	push   DWORD PTR [ecx+0x224]
  401385:	call   0x4016b4
  40138a:	add    esp,0x8
  40138d:	pop    ecx
  40138e:	push   ecx
  40138f:	mov    edx,0x0
  401394:	push   edx
  401395:	push   0x403080
  40139a:	pop    eax
  40139b:	notrack call DWORD PTR [eax]
  40139e:	pop    ecx
  40139f:	sub    esp,0xffffffa8
  4013a2:	mov    ebp,DWORD PTR [esp]
  4013a5:	add    esp,0x4
  4013a8:	ret    
  4013a9:	add    BYTE PTR [eax],al
  4013ab:	add    BYTE PTR [ebx-0x1374aa01],cl
  4013b1:	sub    esp,0x3c
  4013b4:	push   ecx
  4013b5:	lea    edi,[ecx]
  4013b7:	push   edi
  4013b8:	push   0x40301c
  4013bd:	pop    eax
  4013be:	notrack call DWORD PTR [eax]
  4013c1:	test   eax,eax
  4013c3:	jne    0x4013b5
  4013c5:	pop    ecx
  4013c6:	push   ecx
  4013c7:	push   DWORD PTR [ecx+0x344]
  4013cd:	push   DWORD PTR [ecx+0x34]
  4013d0:	push   esi
  4013d1:	call   0x4016f0
  4013d6:	add    esp,0xc
  4013d9:	pop    ecx
  4013da:	push   ecx
  4013db:	push   0x403038
  4013e0:	pop    eax
  4013e1:	notrack call DWORD PTR [eax]
  4013e4:	pop    ecx
  4013e5:	sub    esp,0xffffffc4
  4013e8:	mov    ebp,DWORD PTR [esp]
  4013eb:	add    esp,0x4
  4013ee:	ret    
	...
  4013f7:	add    BYTE PTR [ebx-0x1374aa01],cl
  4013fd:	sub    esp,0x20
  401400:	push   ecx
  401401:	mov    esi,0x0
  401406:	push   esi
  401407:	push   0x403044
  40140c:	pop    eax
  40140d:	notrack call DWORD PTR [eax]
  401410:	pop    ecx
  401411:	push   ecx
  401412:	push   esi
  401413:	push   DWORD PTR [ecx+0x2e8]
  401419:	push   eax
  40141a:	push   DWORD PTR [ecx+0x278]
  401420:	call   0x40199c
  401425:	add    esp,0x10
  401428:	pop    ecx
  401429:	push   ecx
  40142a:	mov    edi,0x0
  40142f:	push   edi
  401430:	push   0x40302c
  401435:	pop    eax
  401436:	notrack call DWORD PTR [eax]
  401439:	pop    ecx
  40143a:	sub    esp,0xffffffe0
  40143d:	mov    ebp,DWORD PTR [esp]
  401440:	add    esp,0x4
  401443:	ret    
  401444:	mov    edi,edi
  401446:	push   ebp
  401447:	mov    ebp,esp
  401449:	sub    esp,0x5c
  40144c:	push   ecx
  40144d:	push   edi
  40144e:	push   DWORD PTR [ecx+0x36c]
  401454:	push   edi
  401455:	push   DWORD PTR [ecx+0x170]
  40145b:	call   0x40115c
  401460:	add    esp,0x10
  401463:	pop    ecx
  401464:	push   ecx
  401465:	push   0x0
  401467:	push   0x403008
  40146c:	pop    eax
  40146d:	notrack call DWORD PTR [eax]
  401470:	pop    ecx
  401471:	push   ecx
  401472:	mov    ecx,0x0
  401477:	push   ecx
  401478:	push   0x40304c
  40147d:	pop    eax
  40147e:	notrack call DWORD PTR [eax]
  401481:	pop    ecx
  401482:	sub    esp,0xffffffa4
  401485:	mov    ebp,DWORD PTR [esp]
  401488:	add    esp,0x4
  40148b:	ret    
  40148c:	mov    edi,edi
  40148e:	push   ebp
  40148f:	mov    ebp,esp
  401491:	sub    esp,0x28
  401494:	push   ecx
  401495:	push   DWORD PTR [ecx+0x28]
  401498:	push   ebx
  401499:	call   0x401778
  40149e:	add    esp,0x8
  4014a1:	pop    ecx
  4014a2:	push   ecx
  4014a3:	mov    ecx,0x0
  4014a8:	push   ecx
  4014a9:	push   0x403064
  4014ae:	pop    eax
  4014af:	notrack call DWORD PTR [eax]
  4014b2:	pop    ecx
  4014b3:	push   ecx
  4014b4:	push   0x403038
  4014b9:	pop    eax
  4014ba:	notrack call DWORD PTR [eax]
  4014bd:	pop    ecx
  4014be:	sub    esp,0xffffffd8
  4014c1:	mov    ebp,DWORD PTR [esp]
  4014c4:	add    esp,0x4
  4014c7:	ret    
  4014c8:	mov    edi,edi
  4014ca:	push   ebp
  4014cb:	mov    ebp,esp
  4014cd:	sub    esp,0x40
  4014d0:	push   ecx
  4014d1:	push   DWORD PTR [ecx+0x98]
  4014d7:	push   DWORD PTR [ecx+0x374]
  4014dd:	push   ebx
  4014de:	push   DWORD PTR [ecx+0x360]
  4014e4:	call   0x401678
  4014e9:	add    esp,0x10
  4014ec:	pop    ecx
  4014ed:	push   ecx
  4014ee:	mov    eax,0x0
  4014f3:	push   eax
  4014f4:	push   0x403044
  4014f9:	pop    eax
  4014fa:	notrack call DWORD PTR [eax]
  4014fd:	pop    ecx
  4014fe:	push   ecx
  4014ff:	mov    esi,0x0
  401504:	push   esi
  401505:	push   0x40302c
  40150a:	pop    eax
  40150b:	notrack call DWORD PTR [eax]
  40150e:	pop    ecx
  40150f:	sub    esp,0xffffffc0
  401512:	mov    ebp,DWORD PTR [esp]
  401515:	add    esp,0x4
  401518:	ret    
  401519:	add    BYTE PTR [eax],al
  40151b:	add    BYTE PTR [eax+0x0],ch
  40151e:	loopne 0x401566
  401520:	add    BYTE PTR [eax+0x40309c],bh
  401526:	and    WORD PTR [eax],0x0
  40152a:	push   DWORD PTR [eax]
  40152c:	pop    eax
  40152d:	mov    ecx,eax
  40152f:	stc    
  401530:	adc    al,0x3b
  401532:	add    ecx,DWORD PTR [eax]
  401534:	mov    eax,DWORD PTR [ecx+0x1c]
  401537:	ror    eax,0xc
  40153a:	sub    al,0x0
  40153c:	sub    al,0x50
  40153e:	pop    ecx
  40153f:	jb     0x40154a
  401541:	nop
  401542:	nop
  401543:	nop
  401544:	nop
  401545:	jmp    0x4010c4
  40154a:	int    0x3
  40154c:	add    BYTE PTR [eax],al
  40154e:	sub    DWORD PTR [ebx+0x0],esp
  401551:	add    BYTE PTR [eax],al
  401553:	add    BYTE PTR [ebx-0x1374aa01],cl
  401559:	sub    esp,0x28
  40155c:	push   ecx
  40155d:	push   DWORD PTR [ecx+0xe4]
  401563:	push   DWORD PTR [ecx+0x3b0]
  401569:	push   eax
  40156a:	call   0x4019e0
  40156f:	add    esp,0xc
  401572:	pop    ecx
  401573:	push   ecx
  401574:	push   0x0
  401576:	push   0x403028
  40157b:	pop    eax
  40157c:	notrack call DWORD PTR [eax]
  40157f:	pop    ecx
  401580:	push   ecx
  401581:	push   0x0
  401583:	push   0x403028
  401588:	pop    eax
  401589:	notrack call DWORD PTR [eax]
  40158c:	pop    ecx
  40158d:	sub    esp,0xffffffd8
  401590:	mov    ebp,DWORD PTR [esp]
  401593:	add    esp,0x4
  401596:	ret    
  401597:	add    BYTE PTR [ebx-0x1374aa01],cl
  40159d:	sub    esp,0x28
  4015a0:	push   ecx
  4015a1:	mov    ebx,0x0
  4015a6:	push   ebx
  4015a7:	push   0x403028
  4015ac:	pop    eax
  4015ad:	notrack call DWORD PTR [eax]
  4015b0:	pop    ecx
  4015b1:	push   ecx
  4015b2:	push   DWORD PTR [ecx+0xb4]
  4015b8:	push   DWORD PTR [ecx+0x28c]
  4015be:	push   esi
  4015bf:	call   0x401320
  4015c4:	add    esp,0xc
  4015c7:	pop    ecx
  4015c8:	push   ecx
  4015c9:	mov    esi,0x0
  4015ce:	push   esi
  4015cf:	push   0x403048
  4015d4:	pop    eax
  4015d5:	notrack call DWORD PTR [eax]
  4015d8:	pop    ecx
  4015d9:	sub    esp,0xffffffd8
  4015dc:	mov    ebp,DWORD PTR [esp]
  4015df:	add    esp,0x4
  4015e2:	ret    
  4015e3:	add    BYTE PTR [ebx-0x1374aa01],cl
  4015e9:	sub    esp,0x60
  4015ec:	push   ecx
  4015ed:	push   eax
  4015ee:	push   DWORD PTR [ecx+0x2b8]
  4015f4:	push   DWORD PTR [ecx+0x1c8]
  4015fa:	push   eax
  4015fb:	call   0x401c54
  401600:	add    esp,0x10
  401603:	pop    ecx
  401604:	push   ecx
  401605:	lea    eax,[ecx]
  401607:	push   eax
  401608:	push   0x40301c
  40160d:	pop    eax
  40160e:	notrack call DWORD PTR [eax]
  401611:	test   eax,eax
  401613:	jne    0x401605
  401615:	pop    ecx
  401616:	push   ecx
  401617:	mov    edx,0x0
  40161c:	push   edx
  40161d:	push   0x403014
  401622:	pop    eax
  401623:	notrack call DWORD PTR [eax]
  401626:	pop    ecx
  401627:	sub    esp,0xffffffa0
  40162a:	mov    ebp,DWORD PTR [esp]
  40162d:	add    esp,0x4
  401630:	ret    
  401631:	add    BYTE PTR [eax],al
  401633:	add    BYTE PTR [ebx-0x1374aa01],cl
  401639:	sub    esp,0x2c
  40163c:	push   ecx
  40163d:	push   DWORD PTR [ecx+0xac]
  401643:	push   esi
  401644:	call   0x401554
  401649:	add    esp,0x8
  40164c:	pop    ecx
  40164d:	push   ecx
  40164e:	mov    edi,0x0
  401653:	push   edi
  401654:	push   0x403004
  401659:	pop    eax
  40165a:	notrack call DWORD PTR [eax]
  40165d:	pop    ecx
  40165e:	push   ecx
  40165f:	push   0x403000
  401664:	pop    eax
  401665:	notrack call DWORD PTR [eax]
  401668:	pop    ecx
  401669:	sub    esp,0xffffffd4
  40166c:	mov    ebp,DWORD PTR [esp]
  40166f:	add    esp,0x4
  401672:	ret    
  401673:	add    BYTE PTR [eax],al
  401675:	add    BYTE PTR [eax],al
  401677:	add    BYTE PTR [ebx-0x1374aa01],cl
  40167d:	sub    esp,0x3c
  401680:	push   ecx
  401681:	push   DWORD PTR [ecx+0x30]
  401684:	push   edi
  401685:	push   edx
  401686:	call   0x4010cc
  40168b:	add    esp,0xc
  40168e:	pop    ecx
  40168f:	push   ecx
  401690:	push   0x0
  401692:	push   0x403048
  401697:	pop    eax
  401698:	notrack call DWORD PTR [eax]
  40169b:	pop    ecx
  40169c:	push   ecx
  40169d:	push   0x0
  40169f:	push   0x403048
  4016a4:	pop    eax
  4016a5:	notrack call DWORD PTR [eax]
  4016a8:	pop    ecx
  4016a9:	sub    esp,0xffffffc4
  4016ac:	mov    ebp,DWORD PTR [esp]
  4016af:	add    esp,0x4
  4016b2:	ret    
  4016b3:	add    BYTE PTR [ebx-0x1374aa01],cl
  4016b9:	sub    esp,0x4c
  4016bc:	push   ecx
  4016bd:	push   0x0
  4016bf:	push   0x403028
  4016c4:	pop    eax
  4016c5:	notrack call DWORD PTR [eax]
  4016c8:	pop    ecx
  4016c9:	push   ecx
  4016ca:	push   esi
  4016cb:	push   eax
  4016cc:	call   0x401a24
  4016d1:	add    esp,0x8
  4016d4:	pop    ecx
  4016d5:	push   ecx
  4016d6:	mov    edi,0x0
  4016db:	push   edi
  4016dc:	push   0x403048
  4016e1:	pop    eax
  4016e2:	notrack call DWORD PTR [eax]
  4016e5:	pop    ecx
  4016e6:	sub    esp,0xffffffb4
  4016e9:	mov    ebp,DWORD PTR [esp]
  4016ec:	add    esp,0x4
  4016ef:	ret    
  4016f0:	mov    edi,edi
  4016f2:	push   ebp
  4016f3:	mov    ebp,esp
  4016f5:	sub    esp,0x3c
  4016f8:	push   ecx
  4016f9:	push   edi
  4016fa:	push   edi
  4016fb:	push   esi
  4016fc:	push   ebx
  4016fd:	call   0x401598
  401702:	add    esp,0x10
  401705:	pop    ecx
  401706:	push   ecx
  401707:	push   0x0
  401709:	push   0x403004
  40170e:	pop    eax
  40170f:	notrack call DWORD PTR [eax]
  401712:	pop    ecx
  401713:	push   ecx
  401714:	push   0x403038
  401719:	pop    eax
  40171a:	notrack call DWORD PTR [eax]
  40171d:	pop    ecx
  40171e:	sub    esp,0xffffffc4
  401721:	mov    ebp,DWORD PTR [esp]
  401724:	add    esp,0x4
  401727:	ret    
	...
  401738:	mov    edi,edi
  40173a:	push   ebp
  40173b:	mov    ebp,esp
  40173d:	sub    esp,0x24
  401740:	push   ecx
  401741:	push   0x0
  401743:	push   0x40304c
  401748:	pop    eax
  401749:	notrack call DWORD PTR [eax]
  40174c:	pop    ecx
  40174d:	push   ecx
  40174e:	push   DWORD PTR [ecx+0x208]
  401754:	push   edi
  401755:	push   ebx
  401756:	call   0x4018c4
  40175b:	add    esp,0xc
  40175e:	pop    ecx
  40175f:	push   ecx
  401760:	push   0x403038
  401765:	pop    eax
  401766:	notrack call DWORD PTR [eax]
  401769:	pop    ecx
  40176a:	sub    esp,0xffffffdc
  40176d:	mov    ebp,DWORD PTR [esp]
  401770:	add    esp,0x4
  401773:	ret    
  401774:	add    BYTE PTR [eax],al
  401776:	add    BYTE PTR [eax],al
  401778:	mov    edi,edi
  40177a:	push   ebp
  40177b:	mov    ebp,esp
  40177d:	sub    esp,0x24
  401780:	push   ecx
  401781:	mov    edx,0x40
  401786:	push   edx
  401787:	push   0x1000
  40178c:	mov    eax,0x6bc
  401791:	push   eax
  401792:	push   0x0
  401794:	push   0x0
  401796:	xor    DWORD PTR [esp],0x17e85359
  40179d:	pop    edi
  40179e:	sub    edi,0x17a82341
  4017a4:	push   DWORD PTR [edi]
  4017a6:	sub    DWORD PTR [esp],0x2
  4017aa:	push   0x403024
  4017af:	pop    edi
  4017b0:	pop    DWORD PTR [edi]
  4017b2:	push   0x403024
  4017b7:	pop    eax
  4017b8:	notrack call DWORD PTR [eax]
  4017bb:	xchg   DWORD PTR [esp],eax
  4017be:	mov    ecx,eax
  4017c0:	pop    esi
  4017c1:	mov    DWORD PTR [ecx+0x1fc],esi
  4017c7:	mov    esi,DWORD PTR [ecx+0x1fc]
  4017cd:	mov    eax,esi
  4017cf:	sub    esi,esi
  4017d1:	dec    esi
  4017d2:	and    esi,0x401eba
  4017d8:	mov    ebx,0x45ae3219
  4017dd:	xor    edi,edi
  4017df:	add    edi,0x6bc
  4017e5:	cmp    edi,0x0
  4017e8:	je     0x401805
  4017ea:	add    edi,0xfffffffc
  4017ed:	mov    edx,ebx
  4017ef:	add    edx,DWORD PTR [esi]
  4017f1:	sub    edx,0x1
  4017f4:	mov    DWORD PTR [eax],edx
  4017f6:	push   DWORD PTR [esi]
  4017f8:	mov    ebx,0xfffffffc
  4017fd:	sub    esi,ebx
  4017ff:	sub    eax,ebx
  401801:	pop    ebx
  401802:	dec    ebx
  401803:	jmp    0x4017e5
  401805:	push   ecx
  401806:	mov    ecx,0x0
  40180b:	push   ecx
  40180c:	push   0x40303c
  401811:	pop    eax
  401812:	notrack call DWORD PTR [eax]
  401815:	pop    ecx
  401816:	sub    esp,0xffffffdc
  401819:	pop    ebp
  40181a:	ret    
  40181b:	add    BYTE PTR [ebx-0x1374aa01],cl
  401821:	sub    esp,0x2c
  401824:	push   ecx
  401825:	mov    eax,0x0
  40182a:	push   eax
  40182b:	push   0x40303c
  401830:	pop    eax
  401831:	notrack call DWORD PTR [eax]
  401834:	pop    ecx
  401835:	push   ecx
  401836:	push   DWORD PTR [ecx+0xb8]
  40183c:	push   edx
  40183d:	push   DWORD PTR [ecx+0x2ec]
  401843:	push   DWORD PTR [ecx+0x1a8]
  401849:	call   0x401b8c
  40184e:	add    esp,0x10
  401851:	pop    ecx
  401852:	push   ecx
  401853:	push   0x0
  401855:	push   0x403080
  40185a:	pop    eax
  40185b:	notrack call DWORD PTR [eax]
  40185e:	pop    ecx
  40185f:	sub    esp,0xffffffd4
  401862:	mov    ebp,DWORD PTR [esp]
  401865:	add    esp,0x4
  401868:	ret    
  401869:	add    BYTE PTR [eax],al
  40186b:	add    BYTE PTR [ebx-0x1374aa01],cl
  401871:	sub    esp,0x4c
  401874:	push   ecx
  401875:	push   DWORD PTR [ecx+0x70]
  401878:	push   DWORD PTR [ecx+0x32c]
  40187e:	push   DWORD PTR [ecx+0x294]
  401884:	call   0x401e10
  401889:	add    esp,0xc
  40188c:	pop    ecx
  40188d:	push   ecx
  40188e:	mov    ecx,0x0
  401893:	push   ecx
  401894:	push   0x403044
  401899:	pop    eax
  40189a:	notrack call DWORD PTR [eax]
  40189d:	pop    ecx
  40189e:	push   ecx
  40189f:	lea    edx,[ecx]
  4018a1:	push   edx
  4018a2:	push   0x40301c
  4018a7:	pop    eax
  4018a8:	notrack call DWORD PTR [eax]
  4018ab:	test   eax,eax
  4018ad:	jne    0x40189f
  4018af:	pop    ecx
  4018b0:	sub    esp,0xffffffb4
  4018b3:	mov    ebp,DWORD PTR [esp]
  4018b6:	add    esp,0x4
  4018b9:	ret    
	...
  4018c2:	add    BYTE PTR [eax],al
  4018c4:	mov    edi,edi
  4018c6:	push   ebp
  4018c7:	mov    ebp,esp
  4018c9:	sub    esp,0x24
  4018cc:	push   ecx
  4018cd:	push   DWORD PTR [ecx+0x190]
  4018d3:	push   edx
  4018d4:	call   0x401634
  4018d9:	add    esp,0x8
  4018dc:	pop    ecx
  4018dd:	push   ecx
  4018de:	mov    ebx,0x0
  4018e3:	push   ebx
  4018e4:	push   0x403048
  4018e9:	pop    eax
  4018ea:	notrack call DWORD PTR [eax]
  4018ed:	pop    ecx
  4018ee:	push   ecx
  4018ef:	push   0x0
  4018f1:	push   0x40304c
  4018f6:	pop    eax
  4018f7:	notrack call DWORD PTR [eax]
  4018fa:	pop    ecx
  4018fb:	sub    esp,0xffffffdc
  4018fe:	mov    ebp,DWORD PTR [esp]
  401901:	add    esp,0x4
  401904:	ret    
  401905:	add    BYTE PTR [eax],al
  401907:	add    BYTE PTR [eax],al
  401909:	add    BYTE PTR [eax],al
  40190b:	add    BYTE PTR [ebx-0x1374aa01],cl
  401911:	sub    esp,0x2c
  401914:	push   ecx
  401915:	push   DWORD PTR [ecx+0x3d8]
  40191b:	push   DWORD PTR [ecx+0x2e4]
  401921:	push   edi
  401922:	push   ebx
  401923:	call   0x40186c
  401928:	add    esp,0x10
  40192b:	pop    ecx
  40192c:	push   ecx
  40192d:	mov    edi,0x0
  401932:	push   edi
  401933:	push   0x403008
  401938:	pop    eax
  401939:	notrack call DWORD PTR [eax]
  40193c:	pop    ecx
  40193d:	push   ecx
  40193e:	mov    eax,0x0
  401943:	push   eax
  401944:	push   0x403028
  401949:	pop    eax
  40194a:	notrack call DWORD PTR [eax]
  40194d:	pop    ecx
  40194e:	sub    esp,0xffffffd4
  401951:	mov    ebp,DWORD PTR [esp]
  401954:	add    esp,0x4
  401957:	ret    
  401958:	mov    edi,edi
  40195a:	push   ebp
  40195b:	mov    ebp,esp
  40195d:	sub    esp,0x48
  401960:	push   ecx
  401961:	lea    ebx,[ecx]
  401963:	push   ebx
  401964:	push   0x40301c
  401969:	pop    eax
  40196a:	notrack call DWORD PTR [eax]
  40196d:	test   eax,eax
  40196f:	jne    0x401961
  401971:	pop    ecx
  401972:	push   ecx
  401973:	push   DWORD PTR [ecx+0x14c]
  401979:	push   ebx
  40197a:	call   0x4013ac
  40197f:	add    esp,0x8
  401982:	pop    ecx
  401983:	push   ecx
  401984:	push   0x0
  401986:	push   0x403080
  40198b:	pop    eax
  40198c:	notrack call DWORD PTR [eax]
  40198f:	pop    ecx
  401990:	sub    esp,0xffffffb8
  401993:	mov    ebp,DWORD PTR [esp]
  401996:	add    esp,0x4
  401999:	ret    
  40199a:	add    BYTE PTR [eax],al
  40199c:	mov    edi,edi
  40199e:	push   ebp
  40199f:	mov    ebp,esp
  4019a1:	sub    esp,0x20
  4019a4:	push   ecx
  4019a5:	push   DWORD PTR [ecx+0x18]
  4019a8:	push   DWORD PTR [ecx+0xb0]
  4019ae:	push   esi
  4019af:	call   0x4015e4
  4019b4:	add    esp,0xc
  4019b7:	pop    ecx
  4019b8:	push   ecx
  4019b9:	mov    eax,0x0
  4019be:	push   eax
  4019bf:	push   0x403064
  4019c4:	pop    eax
  4019c5:	notrack call DWORD PTR [eax]
  4019c8:	pop    ecx
  4019c9:	push   ecx
  4019ca:	push   0x403000
  4019cf:	pop    eax
  4019d0:	notrack call DWORD PTR [eax]
  4019d3:	pop    ecx
  4019d4:	sub    esp,0xffffffe0
  4019d7:	mov    ebp,DWORD PTR [esp]
  4019da:	add    esp,0x4
  4019dd:	ret    
  4019de:	add    BYTE PTR [eax],al
  4019e0:	mov    edi,edi
  4019e2:	push   ebp
  4019e3:	mov    ebp,esp
  4019e5:	sub    esp,0x58
  4019e8:	push   ecx
  4019e9:	push   esi
  4019ea:	push   edx
  4019eb:	push   eax
  4019ec:	call   0x4012d8
  4019f1:	add    esp,0xc
  4019f4:	pop    ecx
  4019f5:	push   ecx
  4019f6:	push   0x0
  4019f8:	push   0x403060
  4019fd:	pop    eax
  4019fe:	notrack call DWORD PTR [eax]
  401a01:	pop    ecx
  401a02:	push   ecx
  401a03:	mov    edi,0x0
  401a08:	push   edi
  401a09:	push   0x403008
  401a0e:	pop    eax
  401a0f:	notrack call DWORD PTR [eax]
  401a12:	pop    ecx
  401a13:	sub    esp,0xffffffa8
  401a16:	mov    ebp,DWORD PTR [esp]
  401a19:	add    esp,0x4
  401a1c:	ret    
  401a1d:	add    BYTE PTR [eax],al
  401a1f:	add    BYTE PTR [eax],al
  401a21:	add    BYTE PTR [eax],al
  401a23:	add    BYTE PTR [ebx-0x1374aa01],cl
  401a29:	sub    esp,0x38
  401a2c:	push   ecx
  401a2d:	push   DWORD PTR [ecx+0xb0]
  401a33:	push   esi
  401a34:	push   esi
  401a35:	call   0x40148c
  401a3a:	add    esp,0xc
  401a3d:	pop    ecx
  401a3e:	push   ecx
  401a3f:	mov    edi,0x0
  401a44:	push   edi
  401a45:	push   0x403014
  401a4a:	pop    eax
  401a4b:	notrack call DWORD PTR [eax]
  401a4e:	pop    ecx
  401a4f:	push   ecx
  401a50:	lea    edx,[ecx]
  401a52:	push   edx
  401a53:	push   0x40301c
  401a58:	pop    eax
  401a59:	notrack call DWORD PTR [eax]
  401a5c:	test   eax,eax
  401a5e:	jne    0x401a50
  401a60:	pop    ecx
  401a61:	sub    esp,0xffffffc8
  401a64:	mov    ebp,DWORD PTR [esp]
  401a67:	add    esp,0x4
  401a6a:	ret    
	...
  401a73:	add    BYTE PTR [ebx-0x1374aa01],cl
  401a79:	sub    esp,0x5c
  401a7c:	push   ecx
  401a7d:	lea    edi,[ecx]
  401a7f:	push   edi
  401a80:	push   0x40301c
  401a85:	pop    eax
  401a86:	notrack call DWORD PTR [eax]
  401a89:	test   eax,eax
  401a8b:	jne    0x401a7d
  401a8d:	pop    ecx
  401a8e:	push   ecx
  401a8f:	push   esi
  401a90:	push   DWORD PTR [ecx+0xb4]
  401a96:	push   DWORD PTR [ecx+0x1d0]
  401a9c:	push   edx
  401a9d:	call   0x401290
  401aa2:	add    esp,0x10
  401aa5:	pop    ecx
  401aa6:	push   ecx
  401aa7:	push   0x0
  401aa9:	push   0x40304c
  401aae:	pop    eax
  401aaf:	notrack call DWORD PTR [eax]
  401ab2:	pop    ecx
  401ab3:	sub    esp,0xffffffa4
  401ab6:	mov    ebp,DWORD PTR [esp]
  401ab9:	add    esp,0x4
  401abc:	ret    
  401abd:	add    BYTE PTR [eax],al
  401abf:	add    BYTE PTR [ebx-0x1374aa01],cl
  401ac5:	sub    esp,0x50
  401ac8:	push   ecx
  401ac9:	push   DWORD PTR [ecx+0x1c4]
  401acf:	push   DWORD PTR [ecx+0x180]
  401ad5:	push   DWORD PTR [ecx+0x4c]
  401ad8:	call   0x401958
  401add:	add    esp,0xc
  401ae0:	pop    ecx
  401ae1:	push   ecx
  401ae2:	push   0x0
  401ae4:	push   0x403064
  401ae9:	pop    eax
  401aea:	notrack call DWORD PTR [eax]
  401aed:	pop    ecx
  401aee:	push   ecx
  401aef:	push   0x403038
  401af4:	pop    eax
  401af5:	notrack call DWORD PTR [eax]
  401af8:	pop    ecx
  401af9:	sub    esp,0xffffffb0
  401afc:	mov    ebp,DWORD PTR [esp]
  401aff:	add    esp,0x4
  401b02:	ret    
  401b03:	add    BYTE PTR [ebx-0x1374aa01],cl
  401b09:	sub    esp,0x58
  401b0c:	push   ecx
  401b0d:	push   0x403038
  401b12:	pop    eax
  401b13:	notrack call DWORD PTR [eax]
  401b16:	pop    ecx
  401b17:	push   ecx
  401b18:	push   edi
  401b19:	push   eax
  401b1a:	push   DWORD PTR [ecx+0x1d0]
  401b20:	push   DWORD PTR [ecx+0x2fc]
  401b26:	call   0x401d4c
  401b2b:	add    esp,0x10
  401b2e:	pop    ecx
  401b2f:	push   ecx
  401b30:	push   0x0
  401b32:	push   0x403064
  401b37:	pop    eax
  401b38:	notrack call DWORD PTR [eax]
  401b3b:	pop    ecx
  401b3c:	sub    esp,0xffffffa8
  401b3f:	mov    ebp,DWORD PTR [esp]
  401b42:	add    esp,0x4
  401b45:	ret    
  401b46:	add    BYTE PTR [eax],al
  401b48:	mov    edi,edi
  401b4a:	push   ebp
  401b4b:	mov    ebp,esp
  401b4d:	sub    esp,0x30
  401b50:	push   ecx
  401b51:	push   0x403038
  401b56:	pop    eax
  401b57:	notrack call DWORD PTR [eax]
  401b5a:	pop    ecx
  401b5b:	push   ecx
  401b5c:	push   edi
  401b5d:	push   eax
  401b5e:	push   edx
  401b5f:	call   0x401368
  401b64:	add    esp,0xc
  401b67:	pop    ecx
  401b68:	push   ecx
  401b69:	mov    edx,0x0
  401b6e:	push   edx
  401b6f:	push   0x403048
  401b74:	pop    eax
  401b75:	notrack call DWORD PTR [eax]
  401b78:	pop    ecx
  401b79:	sub    esp,0xffffffd0
  401b7c:	mov    ebp,DWORD PTR [esp]
  401b7f:	add    esp,0x4
  401b82:	ret    
	...
  401b8b:	add    BYTE PTR [ebx-0x1374aa01],cl
  401b91:	sub    esp,0x40
  401b94:	push   ecx
  401b95:	push   DWORD PTR [ecx+0x48]
  401b98:	push   DWORD PTR [ecx+0x390]
  401b9e:	call   0x401e5c
  401ba3:	add    esp,0x8
  401ba6:	pop    ecx
  401ba7:	push   ecx
  401ba8:	push   0x0
  401baa:	push   0x40302c
  401baf:	pop    eax
  401bb0:	notrack call DWORD PTR [eax]
  401bb3:	pop    ecx
  401bb4:	push   ecx
  401bb5:	push   0x0
  401bb7:	push   0x403060
  401bbc:	pop    eax
  401bbd:	notrack call DWORD PTR [eax]
  401bc0:	pop    ecx
  401bc1:	sub    esp,0xffffffc0
  401bc4:	mov    ebp,DWORD PTR [esp]
  401bc7:	add    esp,0x4
  401bca:	ret    
	...
  401bd7:	add    BYTE PTR [ebx-0x1374aa01],cl
  401bdd:	sub    esp,0x2c
  401be0:	push   ecx
  401be1:	push   eax
  401be2:	push   DWORD PTR [ecx+0x21c]
  401be8:	push   ebx
  401be9:	call   0x401000
  401bee:	add    esp,0xc
  401bf1:	pop    ecx
  401bf2:	push   ecx
  401bf3:	push   0x0
  401bf5:	push   0x403080
  401bfa:	pop    eax
  401bfb:	notrack call DWORD PTR [eax]
  401bfe:	pop    ecx
  401bff:	push   ecx
  401c00:	push   0x0
  401c02:	push   0x403080
  401c07:	pop    eax
  401c08:	notrack call DWORD PTR [eax]
  401c0b:	pop    ecx
  401c0c:	sub    esp,0xffffffd4
  401c0f:	mov    ebp,DWORD PTR [esp]
  401c12:	add    esp,0x4
  401c15:	ret    
  401c16:	add    BYTE PTR [eax],al
  401c18:	add    BYTE PTR [eax],al
  401c1a:	add    BYTE PTR [eax],al
  401c1c:	mov    edi,edi
  401c1e:	push   ebp
  401c1f:	mov    ebp,esp
  401c21:	sub    esp,0x30
  401c24:	push   ecx
  401c25:	push   0x0
  401c27:	push   0x403044
  401c2c:	pop    eax
  401c2d:	notrack call DWORD PTR [eax]
  401c30:	pop    ecx
  401c31:	push   ecx
  401c32:	push   edx
  401c33:	push   edx
  401c34:	call   0x4011a4
  401c39:	add    esp,0x8
  401c3c:	pop    ecx
  401c3d:	push   ecx
  401c3e:	push   0x0
  401c40:	push   0x40302c
  401c45:	pop    eax
  401c46:	notrack call DWORD PTR [eax]
  401c49:	pop    ecx
  401c4a:	sub    esp,0xffffffd0
  401c4d:	mov    ebp,DWORD PTR [esp]
  401c50:	add    esp,0x4
  401c53:	ret    
  401c54:	mov    edi,edi
  401c56:	push   ebp
  401c57:	mov    ebp,esp
  401c59:	sub    esp,0x5c
  401c5c:	push   ecx
  401c5d:	push   DWORD PTR [ecx+0x29c]
  401c63:	push   DWORD PTR [ecx+0x108]
  401c69:	push   ebx
  401c6a:	push   DWORD PTR [ecx+0x2fc]
  401c70:	call   0x40123c
  401c75:	add    esp,0x10
  401c78:	pop    ecx
  401c79:	push   ecx
  401c7a:	lea    eax,[ecx]
  401c7c:	push   eax
  401c7d:	push   0x40301c
  401c82:	pop    eax
  401c83:	notrack call DWORD PTR [eax]
  401c86:	test   eax,eax
  401c88:	jne    0x401c7a
  401c8a:	pop    ecx
  401c8b:	push   ecx
  401c8c:	push   0x403038
  401c91:	pop    eax
  401c92:	notrack call DWORD PTR [eax]
  401c95:	pop    ecx
  401c96:	sub    esp,0xffffffa4
  401c99:	mov    ebp,DWORD PTR [esp]
  401c9c:	add    esp,0x4
  401c9f:	ret    
	...
  401ca8:	mov    edi,edi
  401caa:	push   ebp
  401cab:	mov    ebp,esp
  401cad:	sub    esp,0x4c
  401cb0:	push   ecx
  401cb1:	push   DWORD PTR [ecx+0x3d4]
  401cb7:	push   DWORD PTR [ecx+0x25c]
  401cbd:	push   DWORD PTR [ecx+0x330]
  401cc3:	call   0x401444
  401cc8:	add    esp,0xc
  401ccb:	pop    ecx
  401ccc:	push   ecx
  401ccd:	push   0x0
  401ccf:	push   0x403014
  401cd4:	pop    eax
  401cd5:	notrack call DWORD PTR [eax]
  401cd8:	pop    ecx
  401cd9:	push   ecx
  401cda:	push   0x0
  401cdc:	push   0x40304c
  401ce1:	pop    eax
  401ce2:	notrack call DWORD PTR [eax]
  401ce5:	pop    ecx
  401ce6:	sub    esp,0xffffffb4
  401ce9:	mov    ebp,DWORD PTR [esp]
  401cec:	add    esp,0x4
  401cef:	ret    
	...
  401d00:	mov    edi,edi
  401d02:	push   ebp
  401d03:	mov    ebp,esp
  401d05:	sub    esp,0x4c
  401d08:	push   ecx
  401d09:	mov    edi,0x0
  401d0e:	push   edi
  401d0f:	push   0x40304c
  401d14:	pop    eax
  401d15:	notrack call DWORD PTR [eax]
  401d18:	pop    ecx
  401d19:	push   ecx
  401d1a:	push   DWORD PTR [ecx+0x3f8]
  401d20:	push   DWORD PTR [ecx+0xb4]
  401d26:	call   0x401738
  401d2b:	add    esp,0x8
  401d2e:	pop    ecx
  401d2f:	push   ecx
  401d30:	mov    esi,0x0
  401d35:	push   esi
  401d36:	push   0x403060
  401d3b:	pop    eax
  401d3c:	notrack call DWORD PTR [eax]
  401d3f:	pop    ecx
  401d40:	sub    esp,0xffffffb4
  401d43:	mov    ebp,DWORD PTR [esp]
  401d46:	add    esp,0x4
  401d49:	ret    
  401d4a:	add    BYTE PTR [eax],al
  401d4c:	mov    edi,edi
  401d4e:	push   ebp
  401d4f:	mov    ebp,esp
  401d51:	sub    esp,0x2c
  401d54:	push   ecx
  401d55:	push   esi
  401d56:	push   ebx
  401d57:	push   DWORD PTR [ecx+0x344]
  401d5d:	push   ebx
  401d5e:	call   0x401c1c
  401d63:	add    esp,0x10
  401d66:	pop    ecx
  401d67:	push   ecx
  401d68:	push   0x403038
  401d6d:	pop    eax
  401d6e:	notrack call DWORD PTR [eax]
  401d71:	pop    ecx
  401d72:	push   ecx
  401d73:	push   0x0
  401d75:	push   0x403060
  401d7a:	pop    eax
  401d7b:	notrack call DWORD PTR [eax]
  401d7e:	pop    ecx
  401d7f:	sub    esp,0xffffffd4
  401d82:	mov    ebp,DWORD PTR [esp]
  401d85:	add    esp,0x4
  401d88:	ret    
  401d89:	add    BYTE PTR [eax],al
  401d8b:	add    BYTE PTR [ebx-0x1374aa01],cl
  401d91:	sub    esp,0x4c
  401d94:	push   ecx
  401d95:	push   0x0
  401d97:	push   0x403014
  401d9c:	pop    eax
  401d9d:	notrack call DWORD PTR [eax]
  401da0:	pop    ecx
  401da1:	push   ecx
  401da2:	push   eax
  401da3:	push   esi
  401da4:	call   0x401a74
  401da9:	add    esp,0x8
  401dac:	pop    ecx
  401dad:	push   ecx
  401dae:	push   0x0
  401db0:	push   0x40304c
  401db5:	pop    eax
  401db6:	notrack call DWORD PTR [eax]
  401db9:	pop    ecx
  401dba:	sub    esp,0xffffffb4
  401dbd:	mov    ebp,DWORD PTR [esp]
  401dc0:	add    esp,0x4
  401dc3:	ret    
	...
  401dcc:	mov    edi,edi
  401dce:	push   ebp
  401dcf:	mov    ebp,esp
  401dd1:	sub    esp,0x28
  401dd4:	push   ecx
  401dd5:	push   0x403000
  401dda:	pop    eax
  401ddb:	notrack call DWORD PTR [eax]
  401dde:	pop    ecx
  401ddf:	push   ecx
  401de0:	push   DWORD PTR [ecx+0x8c]
  401de6:	push   edx
  401de7:	push   DWORD PTR [ecx+0x214]
  401ded:	call   0x401d8c
  401df2:	add    esp,0xc
  401df5:	pop    ecx
  401df6:	push   ecx
  401df7:	push   0x0
  401df9:	push   0x403008
  401dfe:	pop    eax
  401dff:	notrack call DWORD PTR [eax]
  401e02:	pop    ecx
  401e03:	sub    esp,0xffffffd8
  401e06:	mov    ebp,DWORD PTR [esp]
  401e09:	add    esp,0x4
  401e0c:	ret    
  401e0d:	add    BYTE PTR [eax],al
  401e0f:	add    BYTE PTR [ebx-0x1374aa01],cl
  401e15:	sub    esp,0x48
  401e18:	push   ecx
  401e19:	push   DWORD PTR [ecx+0x2d0]
  401e1f:	push   DWORD PTR [ecx+0x31c]
  401e25:	call   0x401bd8
  401e2a:	add    esp,0x8
  401e2d:	pop    ecx
  401e2e:	push   ecx
  401e2f:	mov    edx,0x0
  401e34:	push   edx
  401e35:	push   0x403064
  401e3a:	pop    eax
  401e3b:	notrack call DWORD PTR [eax]
  401e3e:	pop    ecx
  401e3f:	push   ecx
  401e40:	push   0x0
  401e42:	push   0x403028
  401e47:	pop    eax
  401e48:	notrack call DWORD PTR [eax]
  401e4b:	pop    ecx
  401e4c:	sub    esp,0xffffffb8
  401e4f:	mov    ebp,DWORD PTR [esp]
  401e52:	add    esp,0x4
  401e55:	ret    
  401e56:	add    BYTE PTR [eax],al
  401e58:	add    BYTE PTR [eax],al
  401e5a:	add    BYTE PTR [eax],al
  401e5c:	mov    edi,edi
  401e5e:	push   ebp
  401e5f:	mov    ebp,esp
  401e61:	sub    esp,0x2c
  401e64:	push   ecx
  401e65:	push   esi
  401e66:	push   ebx
  401e67:	call   0x401ca8
  401e6c:	add    esp,0x8
  401e6f:	pop    ecx
  401e70:	push   ecx
  401e71:	mov    ebx,0x0
  401e76:	push   ebx
  401e77:	push   0x40304c
  401e7c:	pop    eax
  401e7d:	notrack call DWORD PTR [eax]
  401e80:	pop    ecx
  401e81:	push   ecx
  401e82:	push   0x403038
  401e87:	pop    eax
  401e88:	notrack call DWORD PTR [eax]
  401e8b:	pop    ecx
  401e8c:	sub    esp,0xffffffd4
  401e8f:	mov    ebp,DWORD PTR [esp]
  401e92:	add    esp,0x4
  401e95:	ret    
  401e96:	add    BYTE PTR [eax],al
  401e98:	mov    al,bl
  401e9a:	inc    ebp
  401e9b:	cmp    esi,DWORD PTR [ecx-0x78]
  401e9e:	jne    0x401eff
  401ea0:	inc    edx
  401ea1:	xor    eax,0xf1c8548e
  401ea6:	loope  0x401ee5
  401ea8:	fmul   DWORD PTR [edx+ecx*8]
  401eab:	fstp   QWORD PTR [esi]
  401ead:	push   cs
  401eae:	pop    edi
  401eaf:	xor    al,BYTE PTR [edi+edi*1-0xfb249d1]
  401eb6:	mov    fs,WORD PTR [ecx-0x6d]
  401eb9:	pushf  
  401eba:	cmp    BYTE PTR [esi],ah
  401ebc:	mov    ds:0x5de0b212,al
  401ec1:	in     eax,dx
  401ec2:	push   eax
  401ec3:	and    BYTE PTR [ecx],bl
  401ec5:	ins    BYTE PTR es:[edi],dx
  401ec6:	or     BYTE PTR [ebp+0x2c],ch
  401ec9:	in     eax,dx
  401eca:	and    eax,0xe0d4575c
  401ecf:	clc    
  401ed0:	push   es
  401ed1:	push   cs
  401ed2:	pop    ds
  401ed3:	mov    edi,DWORD PTR [ebp+0x428fcbe6]
  401ed9:	sbb    DWORD PTR [edi],esi
  401edb:	mov    ebx,0xb6cb4bbd
  401ee0:	inc    edx
  401ee1:	and    dh,BYTE PTR [edi]
  401ee3:	scas   al,BYTE PTR es:[edi]
  401ee4:	mov    ebp,0x4284cb49
  401ee9:	call   0x7bfdc825
  401eee:	retf   
  401eef:	ret    0xf042
  401ef2:	aaa    
  401ef3:	cmp    eax,0xc21b67bd
  401ef8:	sbb    DWORD PTR [edi+edi*4],esp
  401efb:	inc    ecx
  401efc:	sub    DWORD PTR [eax],ebx
  401efe:	les    esi,FWORD PTR [esi]
  401f00:	daa    
  401f01:	call   0x8e18ecc4
  401f06:	outs   dx,DWORD PTR ds:[esi]
  401f07:	sbb    bl,BYTE PTR [ebx]
  401f09:	js     0x401e9e
  401f0b:	in     eax,0x41
  401f0d:	adc    esp,DWORD PTR [esp+edx*8-0x32]
  401f11:	in     al,dx
  401f12:	sahf   
  401f13:	sub    ebx,esi
  401f15:	sti    
  401f16:	push   esi
  401f17:	xlat   BYTE PTR ds:[ebx]
  401f18:	and    DWORD PTR [esi*1-0x3d212591],eax
  401f1f:	sti    
  401f20:	mov    BYTE PTR [ecx-0x1a1c8f7f],cl
  401f26:	jmp    0x89bba102
  401f2b:	jl     0x401efe
  401f2d:	or     esi,0xffffff8b
  401f30:	mov    bh,0x82
  401f32:	sahf   
  401f33:	je     0x401ee5
  401f35:	ret    
  401f36:	(bad)  
  401f37:	lock mov ah,0xa4
  401f3a:	je     0x401fb0
  401f3c:	lods   al,BYTE PTR ds:[esi]
  401f3d:	retf   
  401f3e:	loop   0x401f1e
  401f40:	push   edx
  401f41:	mov    ch,BYTE PTR [eax]
  401f43:	stos   BYTE PTR es:[edi],al
  401f44:	repz jns 0x401fa4
  401f47:	sbb    ah,BYTE PTR ds:0xdb4de5f0
  401f4d:	pop    ds
  401f4e:	sbb    eax,0xeb8c8cb2
  401f53:	dec    ebp
  401f54:	jae    0x401f33
  401f56:	pop    ss
  401f57:	mov    cl,0xe2
  401f59:	xor    dh,BYTE PTR [esi+0x47]
  401f5c:	and    esi,DWORD PTR [ebx-0x74]
  401f5f:	mov    eax,0xfd03dcdc
  401f64:	jmp    0x401f82
  401f66:	inc    BYTE PTR [edx]
  401f68:	into   
  401f69:	(bad)  
  401f6d:	arpl   WORD PTR [esi+eax*8+0x396b27b6],bx
  401f74:	dec    ecx
  401f75:	xor    eax,0xeeeb4df5
  401f7a:	arpl   WORD PTR [edx+0x659f160e],bx
  401f80:	fldenv [ecx]
  401f82:	push   0x9269269a
  401f87:	rcr    cl,1
  401f89:	add    BYTE PTR [eax+0x2e],dh
  401f8c:	pushf  
  401f8d:	arpl   cx,bp
  401f8f:	sar    BYTE PTR [ecx-0x51835b3c],1
  401f95:	movs   DWORD PTR es:[edi],DWORD PTR ds:[esi]
  401f96:	pop    esi
  401f97:	xlat   BYTE PTR ds:[ebx]
  401f98:	test   eax,0xa64cd859
  401f9d:	test   DWORD PTR [eax-0x51a1a6f6],0xa9a0fe4d
  401fa7:	retf   0x88e9
  401faa:	pop    esp
  401fab:	xor    eax,0x6ec0216
  401fb0:	ja     0x401fb4
  401fb2:	sbb    al,0x5f
  401fb4:	cmp    BYTE PTR [esi],0xfc
  401fb7:	mov    al,ds:0x981c369f
  401fbc:	mov    eax,0xd2795afd
  401fc1:	pop    edx
  401fc2:	fdivr  st(0),st
  401fc4:	xor    DWORD PTR ds:0xf2ce3f26,ecx
  401fca:	(bad)  [ecx]
  401fcc:	and    BYTE PTR [eax+0x26],0x24
  401fd0:	mov    gs,WORD PTR [edx]
  401fd2:	pop    ecx
  401fd3:	dec    eax
  401fd4:	ret    0x1329
  401fd7:	mov    esp,0x99ee2994
  401fdc:	ja     0x402008
  401fde:	jle    0x402048
  401fe0:	fild   QWORD PTR [eax]
  401fe2:	fisub  DWORD PTR [edx]
  401fe4:	lock bound esp,QWORD PTR [ebx]
  401fe7:	shl    DWORD PTR [ebx+edi*8+0x5c5784de],1
  401fee:	scas   eax,DWORD PTR es:[edi]
  401fef:	dec    ecx
  401ff0:	lods   al,BYTE PTR ds:[esi]
  401ff1:	in     al,dx
  401ff2:	pop    DWORD PTR [ebx-0x33]
  401ff5:	sub    edi,esi
  401ff7:	adc    edx,DWORD PTR [ebx-0x1d]
  401ffa:	mov    ebx,0x3f1fc12d
  401fff:	loop   0x401ff6
  402001:	sub    ecx,ecx
  402003:	jge    0x401f9a
  402005:	sbb    eax,0x572b074d
  40200a:	test   BYTE PTR [ebx+0x3c91b11c],0x58
  402011:	mov    DWORD PTR [ecx+0x55],ebx
  402014:	lods   al,BYTE PTR ds:[esi]
  402015:	jbe    0x401fc0
  402017:	xor    eax,0xeea0151c
  40201c:	retf   
  40201d:	pusha  
  40201e:	adc    DWORD PTR fs:[edx+eiz*4],esi
  402022:	adc    eax,0xfdd5cb03
  402027:	xchg   DWORD PTR [esi+esi*1+0x19a77308],esi
  40202e:	test   DWORD PTR [ecx-0x55],esp
  402031:	ss into 
  402033:	cmc    
  402034:	movs   DWORD PTR es:[edi],DWORD PTR ds:[esi]
  402035:	sbb    ebx,DWORD PTR [esi+0x633bab0e]
  40203b:	inc    edi
  40203c:	popa   
  40203d:	sbb    eax,0xd5f678d2
  402042:	(bad)  
  402044:	xchg   esp,eax
  402045:	cmc    
  402046:	sbb    edi,DWORD PTR [esi-0x660c9f96]
  40204c:	mul    BYTE PTR [edx]
  40204e:	(bad)  
  40204f:	mov    gs,ebx
  402051:	mov    ss,WORD PTR [edi*2+0x6aee7115]
  402058:	ins    BYTE PTR es:[edi],dx
  402059:	(bad)  
  40205a:	adc    al,0x95
  40205c:	jmp    0x402036
  40205e:	out    dx,al
  40205f:	stos   BYTE PTR es:[edi],al
  402060:	adc    al,0x27
  402062:	adc    ecx,ebx
  402064:	push   ebx
  402065:	das    
  402066:	jp     0x402098
  402068:	cmp    cl,al
  40206a:	jo     0x402046
  40206c:	retf   
  40206d:	ds xchg edx,eax
  40206f:	mov    DWORD PTR [ebx],esi
  402071:	mul    DWORD PTR [eax-0x45f7338a]
  402077:	adc    al,0x74
  402079:	add    edx,ebx
  40207b:	sub    ebx,DWORD PTR [eax-0x241378cb]
  402081:	into   
  402082:	push   es
  402083:	adc    al,0xf
  402085:	sub    DWORD PTR [edi-0x3b25eb08],eax
  40208b:	inc    ebx
  40208c:	jbe    0x402025
  40208e:	mov    di,0xf280
  402092:	adc    al,0x59
  402094:	or     BYTE PTR [esi+0xa],bh
  402097:	or     eax,0xf30ec3ef
  40209c:	xor    BYTE PTR [ecx+0x67707100],dh
  4020a2:	add    cl,BYTE PTR [edi-0x5ebfdc71]
  4020a8:	stc    
  4020a9:	push   esp
  4020aa:	retf   0x5c5d
  4020ad:	mov    edi,0x40a61920
  4020b2:	loop   0x4020f7
  4020b4:	and    ebx,DWORD PTR [eax]
  4020b6:	test   eax,0xba040130
  4020bb:	pop    ds
  4020bc:	out    0x3a,eax
  4020be:	dec    esp
  4020bf:	loopne 0x4020d9
  4020c1:	sbb    eax,0xe33f9837
  4020c6:	int    0x67
  4020c8:	rcl    BYTE PTR [ecx-0x6dbbdcbc],0x85
  4020cf:	loope  0x4020b0
  4020d1:	ins    DWORD PTR es:[edi],dx
  4020d2:	jge    0x4020f2
  4020d4:	and    BYTE PTR [ecx-0x411bfa07],dl
  4020da:	cmp    al,0xba
  4020dc:	fbld   TBYTE PTR [ecx-0x2bdbc6af]
  4020e2:	in     eax,dx
  4020e3:	push   ecx
  4020e4:	xchg   edx,eax
  4020e5:	lods   al,BYTE PTR ds:[esi]
  4020e6:	adc    eax,0xe3d86dae
  4020eb:	mov    BYTE PTR ds:0x78c5122b,0xe1
  4020f2:	jne    0x40212e
  4020f4:	cld    
  4020f5:	mov    BYTE PTR [eax-0x3889a440],dl
  4020fb:	inc    ebx
  4020fc:	sub    DWORD PTR [edx-0x50],ecx
  4020ff:	shr    BYTE PTR ds:0x223fa7b5,0xa1
  402106:	out    0x36,al
  402108:	out    dx,al
  402109:	popa   
  40210a:	andnps xmm2,XMMWORD PTR [eax]
  40210d:	dec    esp
  40210e:	js     0x40217b
  402110:	gs scas eax,DWORD PTR es:[edi]
  402112:	mov    ch,0x8b
  402114:	es pop ds
  402116:	stos   DWORD PTR es:[edi],eax
  402117:	lds    ebp,FWORD PTR [ecx]
  402119:	xor    eax,0x22273ec1
  40211e:	inc    eax
  40211f:	pop    ss
  402120:	in     eax,0x33
  402122:	dec    ebp
  402123:	out    dx,eax
  402124:	lahf   
  402125:	mov    WORD PTR [ebp-0x5f],es
  402128:	jmp    0x4020e3
  40212a:	int    0xeb
  40212c:	dec    eax
  40212d:	dec    ecx
  40212e:	mov    ecx,es
  402130:	cmp    al,0x77
  402132:	jmp    0x13a6:0x18896c59
  402139:	in     al,dx
  40213a:	out    dx,al
  40213b:	out    0x30,al
  40213d:	pop    ss
  40213e:	push   ss
  40213f:	ds into 
  402141:	call   0x16c26331
  402146:	mov    esp,edx
  402148:	xchg   ecx,eax
  402149:	call   0x359471a
  40214e:	push   ss
  40214f:	cmp    al,BYTE PTR [ebp+0x55]
  402152:	inc    ebp
  402153:	sbb    cl,BYTE PTR [ebx]
  402155:	cld    
  402156:	adc    al,0xe5
  402158:	dec    edx
  402159:	adc    BYTE PTR [esi-0x62],al
  40215c:	jnp    0x402162
  40215e:	cmps   DWORD PTR ds:[esi],DWORD PTR es:[edi]
  40215f:	icebp  
  402160:	in     eax,0xbe
  402162:	mov    ebx,0x39cced99
  402167:	push   0xffffff88
  402169:	outs   dx,DWORD PTR ds:[esi]
  40216a:	hlt    
  40216b:	jmp    0x402118
  40216d:	adc    eax,0x7fd823e0
  402172:	and    bl,ah
  402174:	daa    
  402175:	or     ebp,DWORD PTR [esi-0x38]
  402178:	fdiv   st,st(4)
  40217a:	xchg   esp,eax
  40217b:	ret    0xabdd
  40217e:	outs   dx,BYTE PTR ds:[esi]
  40217f:	cmp    eax,0xd28ad922
  402184:	popa   
  402185:	test   al,0x78
  402187:	sub    eax,0x807d5a9e
  40218c:	in     eax,dx
  40218d:	popf   
  40218e:	mov    BYTE PTR [edx+0x63],bh
  402191:	in     eax,dx
  402192:	ds (bad) 
  402194:	in     eax,dx
  402195:	fs adc al,0x94
  402198:	push   ss
  402199:	add    ebp,esi
  40219b:	jnp    0x402186
  40219d:	cld    
  40219e:	imul   eax,DWORD PTR [edi],0xffffffff
  4021a1:	pop    es
  4021a2:	out    0x62,eax
  4021a4:	add    eax,0xfaad1b60
  4021a9:	lahf   
  4021aa:	ds aam 0x9
  4021ad:	test   ah,al
  4021af:	cmp    esi,esi
  4021b1:	jnp    0x4021f0
  4021b3:	sbb    dl,BYTE PTR [esi]
  4021b5:	sbb    DWORD PTR [edx],0xfffffff2
  4021b8:	inc    ebx
  4021b9:	(bad)  
  4021ba:	xchg   ebp,eax
  4021bb:	cmp    DWORD PTR [ebx+edi*2+0x6e4d8ef8],eax
  4021c2:	lea    ebx,[edx-0x49]
  4021c5:	les    esi,FWORD PTR ds:0x76a1f60c
  4021cb:	hlt    
  4021cc:	cmp    edx,edx
  4021ce:	xchg   esp,eax
  4021cf:	xor    ch,al
  4021d1:	cmp    eax,0xd63bcf6e
  4021d6:	fwait
  4021d7:	adc    dh,BYTE PTR [ebx+0x7131f483]
  4021dd:	sbb    BYTE PTR [edi+0x20],0xdf
  4021e1:	jle    0x4021b6
  4021e3:	inc    edi
  4021e4:	and    DWORD PTR [ecx-0xdca47d1],edx
  4021ea:	mov    ebx,0x770d1a4c
  4021ef:	sbb    esp,esi
  4021f1:	add    cl,BYTE PTR [ebx+0x7b7e70e4]
  4021f7:	aas    
  4021f8:	(bad)  
  4021f9:	xchg   ecx,eax
  4021fa:	xchg   eax,eax
  4021fc:	outs   dx,DWORD PTR ds:[esi]
  4021fd:	les    eax,FWORD PTR [edi-0x2ab819c2]
  402203:	sbb    dh,BYTE PTR [edx+0x10]
  402206:	mov    dl,0xae
  402208:	add    esi,DWORD PTR [ecx-0x4f]
  40220b:	adc    al,0x5d
  40220d:	jp     0x402267
  40220f:	cwde   
  402210:	test   DWORD PTR [ebx+0x3f7d9c37],eax
  402216:	push   esi
  402217:	dec    esp
  402218:	push   cs
  402219:	mov    ah,0x65
  40221b:	(bad)  
  40221c:	icebp  
  40221d:	dec    ebx
  40221e:	popf   
  40221f:	and    edi,edx
  402221:	mov    bl,0x64
  402223:	fdivr  QWORD PTR [edi+0x40239e6b]
  402229:	jl     0x402270
  40222b:	fdivr  QWORD PTR [edi+0x47dd1383]
  402231:	jl     0x402222
  402233:	and    ah,BYTE PTR [eax+0x5fdd125a]
  402239:	xor    eax,eax
  40223b:	scas   al,BYTE PTR es:[edi]
  40223c:	aam    0xf2
  40223e:	sti    
  40223f:	pop    edx
  402240:	sub    ecx,DWORD PTR ds:0xf29c8d07
  402246:	cli    
  402247:	jb     0x402238
  402249:	or     edx,DWORD PTR [ebx+0x6eb2f957]
  40224f:	test   al,0x6
  402251:	adc    DWORD PTR [eax+ebp*4-0x46],0x4a18b547
  402259:	fcomp  QWORD PTR [edx-0x18]
  40225c:	mov    ecx,0x69c5447
  402261:	cs lahf 
  402263:	mov    esp,0x89ec984
  402268:	lock cmp DWORD PTR [esi-0x77ae1294],ebp
  40226f:	mov    bh,0xcb
  402271:	mov    eax,0x2f34487a
  402276:	sbb    eax,0xf4d0cbb7
  40227b:	inc    DWORD PTR [eax-0x7b]
  40227e:	ins    BYTE PTR es:[edi],dx
  40227f:	push   ecx
  402280:	js     0x402205
  402282:	xchg   esi,eax
  402283:	scas   al,BYTE PTR es:[edi]
  402284:	xchg   DWORD PTR [ecx+esi*8+0x50],esp
  402288:	js     0x402225
  40228a:	push   0xffffff97
  40228c:	pop    es
  40228d:	fs xchg edi,eax
  40228f:	push   0xb38f1082
  402294:	fidiv  WORD PTR [edx+0x6b0a0dc4]
  40229a:	not    DWORD PTR [edx]
  40229c:	not    BYTE PTR [ebx+ecx*1-0x4f6481cb]
  4022a3:	int    0x81
  4022a5:	fs push edx
  4022a7:	jp     0x40229b
  4022a9:	ret    
  4022aa:	imul   esp,DWORD PTR [esi-0x5e66c3f3],0x6322e466
  4022b4:	cdq    
  4022b5:	sbb    esp,eax
  4022b7:	in     al,0xda
  4022b9:	cld    
  4022ba:	fistp  DWORD PTR [ebx+0x25]
  4022bd:	add    esp,DWORD PTR [edi]
  4022bf:	in     al,dx
  4022c0:	dec    esi
  4022c1:	or     eax,0xf2b11894
  4022c6:	outs   dx,BYTE PTR ds:[esi]
  4022c7:	das    
  4022c8:	ret    
  4022c9:	adc    eax,0xea3d114d
  4022ce:	mov    ch,0x36
  4022d0:	aaa    
  4022d1:	push   ss
  4022d2:	fmul   DWORD PTR [edx+0x8aad22]
  4022d8:	xor    eax,ebx
  4022da:	stc    
  4022db:	icebp  
  4022dc:	pop    esi
  4022dd:	daa    
  4022de:	dec    esi
  4022df:	xchg   BYTE PTR [esi+eiz*1],ch
  4022e2:	sbb    al,0x5
  4022e4:	rcr    BYTE PTR [ebp+0x63],cl
  4022e7:	push   ebx
  4022e8:	cs push ss
  4022ea:	mov    ds:0xeb4246ad,al
  4022ef:	xchg   edi,eax
  4022f0:	sbb    DWORD PTR [ebx-0x29],eax
  4022f3:	fdiv   st(3),st
  4022f5:	inc    ebp
  4022f6:	jno    0x402357
  4022f8:	push   esi
  4022f9:	je     0x402290
  4022fb:	mov    al,ds:0x5558ba9
  402300:	pop    eax
  402301:	je     0x4022b0
  402303:	push   esp
  402304:	stos   DWORD PTR es:[edi],eax
  402305:	jnp    0x40235f
  402307:	mov    ds:0xd1e54c80,eax
  40230c:	xlat   BYTE PTR ds:[ebx]
  40230d:	sub    BYTE PTR [edx],ch
  40230f:	xor    DWORD PTR [ebp-0x40b424cd],ebx
  402315:	div    DWORD PTR [eax+edx*1-0x3a]
  402319:	rol    DWORD PTR [edx],1
  40231b:	sti    
  40231c:	out    0x7e,al
  40231e:	sub    eax,edi
  402320:	jae    0x40234e
  402322:	pop    edx
  402323:	and    dl,BYTE PTR [eax+0x333f8bb5]
  402329:	stos   DWORD PTR es:[edi],eax
  40232a:	cli    
  40232b:	cmp    eax,0xd47c5519
  402330:	into   
  402331:	mov    edx,0xd0312b86
  402336:	stc    
  402337:	sub    BYTE PTR [edi+ebp*1+0x7d],dl
  40233b:	fst    QWORD PTR [esi-0x47]
  40233e:	sub    BYTE PTR [ebx],ah
  402340:	test   eax,0xb7a03b46
  402345:	mov    eax,0x1fd39c1c
  40234a:	jno    0x402325
  40234c:	js     0x4023b9
  40234e:	(bad)  
  40234f:	jbe    0x402328
  402351:	in     al,0x94
  402353:	mov    DWORD PTR [eax],ebp
  402355:	daa    
  402356:	outs   dx,BYTE PTR ds:[esi]
  402357:	leave  
  402358:	(bad)  
  402359:	cs aam 0x8f
  40235c:	jns    0x4023ba
  40235e:	es sub ecx,DWORD PTR fs:[esp+edx*1+0x3673d49c]
  402367:	in     eax,dx
  402368:	outs   dx,DWORD PTR ds:[esi]
  402369:	mov    al,0xec
  40236b:	popf   
  40236c:	mov    ch,bl
  40236e:	and    bl,BYTE PTR [edi]
  402370:	jl     0x402394
  402372:	loopne 0x402354
  402374:	out    0x7e,eax
  402376:	cmp    bl,BYTE PTR [edi]
  402378:	sbb    BYTE PTR [ecx-0x2febaead],al
  40237e:	pop    ss
  40237f:	scas   eax,DWORD PTR es:[edi]
  402380:	jmp    0x4023bd
  402382:	jmp    0x402327
  402384:	adc    ebx,DWORD PTR [edx]
  402386:	push   edi
  402387:	jmp    0x187ac184
  40238c:	push   edi
  40238d:	in     eax,dx
  40238e:	xchg   edi,eax
  40238f:	jae    0x402332
  402391:	push   es
  402392:	adc    cl,dh
  402394:	call   DWORD PTR [ecx]
  402396:	repnz push cs
  402398:	add    BYTE PTR [ebp+0x50],bh
  40239b:	sbb    eax,0x64124661
  4023a0:	mov    ebx,edx
  4023a2:	repnz fwait
  4023a4:	je     0x402333
  4023a6:	xor    al,0x66
  4023a8:	mov    esi,DWORD PTR [edx+0x1]
  4023ab:	nop
  4023ac:	fisttp WORD PTR [ebp-0x37e08795]
  4023b2:	mov    bl,0x12
  4023b4:	mov    ecx,0x9ceca28c
  4023b9:	cmps   DWORD PTR ds:[esi],DWORD PTR es:[edi]
  4023ba:	jmp    0x402413
  4023bc:	xchg   DWORD PTR [edx+ebx*1-0x18],esi
  4023c0:	mov    ah,0x16
  4023c2:	push   0x9ae94bd8
  4023c7:	lods   al,BYTE PTR ds:[esi]
  4023c8:	je     0x402355
  4023ca:	imul   ebx,DWORD PTR [ecx-0x43673821],0xb92abd58
  4023d4:	mov    WORD PTR [esi-0x15746329],ss
  4023da:	out    dx,eax
  4023db:	xchg   DWORD PTR [esi+0x15],esi
  4023de:	adc    eax,DWORD PTR [ecx]
  4023e0:	dec    BYTE PTR [esi]
  4023e2:	or     esp,DWORD PTR [eax-0x3b]
  4023e5:	push   ecx
  4023e6:	pop    edi
  4023e7:	or     al,0xa7
  4023e9:	scas   al,BYTE PTR es:[edi]
  4023ea:	mov    ds:0x8dc5cb5b,eax
  4023ef:	or     BYTE PTR [ebp-0x39921759],bl
  4023f5:	lods   al,BYTE PTR ds:[esi]
  4023f6:	sbb    eax,ebp
  4023f8:	cmp    eax,0xca8da9d8
  4023fd:	jnp    0x402457
  4023ff:	enter  0x935,0x6a
  402403:	lods   al,BYTE PTR ds:[esi]
  402404:	pop    ss
  402405:	popa   
  402406:	cwde   
  402407:	mov    ebx,0xaade0d51
  40240c:	push   ss
  40240d:	pop    ecx
  40240e:	fwait
  40240f:	lds    ebx,FWORD PTR [ebx-0x5]
  402412:	mov    bh,0x39
  402414:	cli    
  402415:	or     al,0xce
  402417:	mov    dl,BYTE PTR [edx]
  402419:	jle    0x40243f
  40241b:	mov    BYTE PTR [ecx-0x14],0x1e
  40241f:	movs   BYTE PTR es:[edi],BYTE PTR ds:[esi]
  402420:	lds    ebp,FWORD PTR [ecx-0x1d]
  402423:	mov    cl,0x46
  402425:	out    dx,al
  402426:	outs   dx,DWORD PTR ds:[esi]
  402427:	mov    ds:0xb39a7c09,al
  40242c:	fisubr WORD PTR [edx-0x1fdeb398]
  402432:	(bad)  
  402433:	xlat   BYTE PTR ds:[ebx]
  402434:	pop    edi
  402435:	out    0x3e,eax
  402437:	sub    BYTE PTR [eax-0x4720d1e8],ah
  40243d:	fidivr DWORD PTR [eax+0x68]
  402440:	shr    bl,cl
  402442:	xor    eax,0x7d0dac25
  402447:	inc    ebx
  402448:	dec    BYTE PTR [edx+0x30]
  40244b:	ins    DWORD PTR es:[edi],dx
  40244c:	lds    ebx,FWORD PTR [edi-0x2f]
  40244f:	call   0xdbf51c9a
  402454:	lds    ebp,FWORD PTR [eax+0x11]
  402457:	jge    0x402492
  402459:	push   0x98666b46
  40245e:	mov    esp,0x8bf4f694
  402463:	fisttp DWORD PTR [ebx+ecx*8+0x58b7ad7b]
  40246a:	xchg   edi,eax
  40246b:	scas   eax,DWORD PTR es:[edi]
  40246c:	dec    eax
  40246d:	cmps   DWORD PTR ds:[esi],DWORD PTR es:[edi]
  40246e:	imul   edx,DWORD PTR [eax-0x49],0x58
  402472:	xchg   edi,eax
  402473:	pop    ss
  402474:	dec    ecx
  402475:	cmps   DWORD PTR ds:[esi],DWORD PTR es:[edi]
  402476:	imul   ebp,eax,0x79
  402479:	mov    edi,0xfaed0dca
  40247e:	test   DWORD PTR [ecx+edi*2-0x4e],ecx
  402482:	jecxz  0x40246a
  402484:	push   esi
  402485:	ret    0x9a27
  402488:	xchg   edi,eax
  402489:	inc    eax
  40248a:	jmp    0x4024f1
  40248c:	push   0xf62804aa
  402491:	push   ebx
  402492:	adc    bh,0x7f
  402495:	popf   
  402496:	or     ebx,DWORD PTR [edi-0x4e4e3746]
  40249c:	mov    al,ah
  40249e:	test   DWORD PTR [ebx+ebx*8-0x18],ebp
  4024a2:	jecxz  0x40246a
  4024a4:	hlt    
  4024a5:	mov    edi,?
  4024a7:	cld    
  4024a8:	pop    esp
  4024a9:	cmps   BYTE PTR ds:[esi],BYTE PTR es:[edi]
  4024aa:	int3   
  4024ab:	inc    esp
  4024ac:	into   
  4024ad:	sbb    ebp,DWORD PTR [esi+0x3fe6a5bf]
  4024b3:	cmp    BYTE PTR [esi+0x5489c6d9],cl
  4024b9:	and    edx,DWORD PTR [ebp-0x2aa5c8c7]
  4024bf:	xor    ch,cl
  4024c1:	or     eax,0xf232df2d
  4024c6:	sub    al,0x8b
  4024c8:	int    0xc
  4024ca:	sub    eax,DWORD PTR [ebp+0x6758e3bd]
  4024d0:	inc    edi
  4024d1:	sbb    eax,0xdf4398aa
  4024d6:	shr    BYTE PTR [ebx-0x43],0x20
  4024da:	inc    edx
  4024db:	jmp    0x402472
  4024dd:	ficom  WORD PTR ds:0x5521d435
  4024e3:	dec    ebx
  4024e4:	sub    al,0xde
  4024e6:	lods   eax,DWORD PTR ds:[esi]
  4024e7:	push   ds
  4024e8:	xlat   BYTE PTR ds:[ebx]
  4024e9:	mov    edx,DWORD PTR [ebp+0x4b]
  4024ec:	sub    bl,ah
  4024ee:	lods   eax,DWORD PTR ds:[esi]
  4024ef:	mov    ah,0xd5
  4024f1:	mov    ds:0x80804aac,eax
  4024f6:	xlat   BYTE PTR ds:[ebx]
  4024f7:	jns    0x40247d
  4024f9:	sub    BYTE PTR [ebx],0x86
  4024fc:	adc    BYTE PTR ds:[edi-0x2e],ah
  402500:	rol    al,0x96
  402503:	add    ah,dl
  402505:	mov    al,ds:0xac2239f6
  40250a:	pop    ecx
  40250b:	jle    0x40249a
  40250d:	and    BYTE PTR [esi-0x6399f443],al
  402513:	into   
  402514:	cmp    al,0xfc
  402516:	inc    edi
  402517:	movs   BYTE PTR es:[edi],BYTE PTR ds:[esi]
  402518:	pushf  
  402519:	pop    ds
  40251a:	fwait
  40251b:	sbb    BYTE PTR [edx+0x4d],al
  40251e:	add    dl,BYTE PTR [esi-0x723f78a6]
  402524:	out    dx,al
  402525:	adc    al,0x1a
  402527:	loopne 0x4024e7
  402529:	add    ah,dh
  40252b:	jmp    0x82a2a81b
  402530:	scas   al,BYTE PTR es:[edi]
  402531:	cmps   BYTE PTR ds:[esi],BYTE PTR es:[edi]
  402532:	test   al,0x0
  402534:	pop    ebp
  402535:	add    BYTE PTR [ebx],dl
  402537:	out    0xb9,al
  402539:	add    BYTE PTR [edi],ch
  40253b:	ss inc edi
  40253d:	mov    cl,BYTE PTR [esi+0x13d9b12]
  402543:	lods   eax,DWORD PTR ds:[esi]
  402544:	shr    eax,0x3
  402547:	out    0x7d,al
  402549:	into   
  40254a:	call   FWORD PTR [ecx]
  40254c:	xor    BYTE PTR [ecx],0x3
  40254f:	out    0x7d,al
  402551:	into   
  402552:	call   FWORD PTR [ecx]
  402554:	xor    BYTE PTR [ecx],0x3
  402557:	out    0x7d,al
  402559:	into   
  40255a:	call   FWORD PTR [ecx]
  40255c:	xor    BYTE PTR [ecx],0x3
  40255f:	out    0x7d,al
  402561:	into   
  402562:	call   FWORD PTR [ecx]
  402564:	xor    BYTE PTR [ecx],0x1f
  402567:	gs jle 0x402538
  40256a:	jecxz  0x402526
  40256c:	xchg   BYTE PTR [ecx],dh
  40256e:	pop    ds
  40256f:	dec    ecx
  402570:	jns    0x402540
  402572:	imul   ecx,DWORD PTR [edi+0x6d346f72],0x5e
  402579:	jl     0x402503
  40257b:	or     BYTE PTR [esi-0x7973a98e],dh
  402581:	and    ecx,0x45cc6c0f
  402587:	push   edx
  402588:	mov    DWORD PTR [edx],esp
  40258a:	add    al,0x92
  40258c:	push   ebp
  40258d:	sub    BYTE PTR [esi-0x2b614d7a],dl
  402593:	.byte 0xd9
