
356d603a08ab668ecdb944d5b2e184b94b1cd90fec3fe37a566123d419232f52.exe:     file format pei-i386


Disassembly of section .text:

00401000 <.text>:
  401000:	mov    edi,edi
  401002:	push   ebp
  401003:	mov    ebp,esp
  401005:	sub    esp,0x50
  401008:	push   edx
  401009:	push   0x403010
  40100e:	pop    eax
  40100f:	call   DWORD PTR cs:[eax]
  401012:	pop    edx
  401013:	push   edx
  401014:	push   DWORD PTR [edx+0x53c]
  40101a:	push   DWORD PTR [edx+0x4bc]
  401020:	push   DWORD PTR [edx+0x4cc]
  401026:	push   ebx
  401027:	call   0x401b44
  40102c:	add    esp,0x10
  40102f:	pop    edx
  401030:	push   edx
  401031:	push   0x0
  401033:	push   0x403014
  401038:	pop    eax
  401039:	call   DWORD PTR cs:[eax]
  40103c:	pop    edx
  40103d:	sub    esp,0xffffffb0
  401040:	mov    ebp,DWORD PTR [esp]
  401043:	add    esp,0x4
  401046:	ret    
  401047:	add    BYTE PTR [ebx-0x1374aa01],cl
  40104d:	sub    esp,0x30
  401050:	push   edx
  401051:	mov    eax,0x0
  401056:	push   eax
  401057:	push   0x403068
  40105c:	pop    eax
  40105d:	call   DWORD PTR cs:[eax]
  401060:	pop    edx
  401061:	push   edx
  401062:	push   ebx
  401063:	push   esi
  401064:	push   eax
  401065:	push   eax
  401066:	call   0x401000
  40106b:	add    esp,0x10
  40106e:	pop    edx
  40106f:	push   edx
  401070:	mov    ecx,0x0
  401075:	push   ecx
  401076:	push   0x403068
  40107b:	pop    eax
  40107c:	call   DWORD PTR cs:[eax]
  40107f:	pop    edx
  401080:	sub    esp,0xffffffd0
  401083:	mov    ebp,DWORD PTR [esp]
  401086:	add    esp,0x4
  401089:	ret    
  40108a:	add    BYTE PTR [eax],al
  40108c:	mov    edi,edi
  40108e:	push   ebp
  40108f:	mov    ebp,esp
  401091:	sub    esp,0x60
  401094:	push   edx
  401095:	push   eax
  401096:	push   ecx
  401097:	call   0x40194c
  40109c:	add    esp,0x8
  40109f:	pop    edx
  4010a0:	push   edx
  4010a1:	push   0x0
  4010a3:	push   0x403004
  4010a8:	pop    eax
  4010a9:	call   DWORD PTR cs:[eax]
  4010ac:	pop    edx
  4010ad:	push   edx
  4010ae:	mov    edx,0x0
  4010b3:	push   edx
  4010b4:	push   0x403014
  4010b9:	pop    eax
  4010ba:	call   DWORD PTR cs:[eax]
  4010bd:	pop    edx
  4010be:	sub    esp,0xffffffa0
  4010c1:	mov    ebp,DWORD PTR [esp]
  4010c4:	add    esp,0x4
  4010c7:	ret    
  4010c8:	mov    edi,edi
  4010ca:	push   ebp
  4010cb:	mov    ebp,esp
  4010cd:	sub    esp,0x3c
  4010d0:	push   edx
  4010d1:	push   ebx
  4010d2:	push   DWORD PTR [edx+0xb8]
  4010d8:	push   DWORD PTR [edx+0x534]
  4010de:	call   0x401cf0
  4010e3:	add    esp,0xc
  4010e6:	pop    edx
  4010e7:	push   edx
  4010e8:	push   0x0
  4010ea:	push   0x403028
  4010ef:	pop    eax
  4010f0:	call   DWORD PTR cs:[eax]
  4010f3:	pop    edx
  4010f4:	push   edx
  4010f5:	push   0x403010
  4010fa:	pop    eax
  4010fb:	call   DWORD PTR cs:[eax]
  4010fe:	pop    edx
  4010ff:	sub    esp,0xffffffc4
  401102:	mov    ebp,DWORD PTR [esp]
  401105:	add    esp,0x4
  401108:	ret    
  401109:	add    BYTE PTR [eax],al
  40110b:	add    BYTE PTR [ebx-0x74aa9f01],cl
  401111:	in     al,dx
  401112:	sub    esp,0x40
  401115:	push   edx
  401116:	push   0x0
  401118:	push   0x403004
  40111d:	pop    eax
  40111e:	call   DWORD PTR cs:[eax]
  401121:	pop    edx
  401122:	test   eax,eax
  401124:	je     0x401127
  401126:	ret    
  401127:	push   edx
  401128:	push   DWORD PTR [edx+0x4a0]
  40112e:	push   DWORD PTR [edx+0x2fc]
  401134:	call   0x401178
  401139:	add    esp,0x8
  40113c:	pop    edx
  40113d:	push   edx
  40113e:	push   0x0
  401140:	push   0x403004
  401145:	pop    eax
  401146:	call   DWORD PTR cs:[eax]
  401149:	pop    edx
  40114a:	mov    ebx,0x40304c
  40114f:	mov    ebx,DWORD PTR [ebx]
  401151:	push   ebx
  401152:	push   DWORD PTR [edx+0x3f8]
  401158:	pop    esi
  401159:	call   esi
  40115b:	sub    esp,0xffffffc0
  40115e:	mov    ebp,DWORD PTR [esp]
  401161:	add    esp,0x4
  401164:	ret    
  401165:	add    BYTE PTR [eax],al
  401167:	add    BYTE PTR [eax],al
  401169:	add    BYTE PTR [eax],al
  40116b:	add    BYTE PTR [edi],cl
  40116d:	sbb    BYTE PTR [edx+0xffffff],0x0
  401174:	add    BYTE PTR [eax],al
  401176:	add    BYTE PTR [eax],al
  401178:	mov    edi,edi
  40117a:	push   ebp
  40117b:	mov    ebp,esp
  40117d:	sub    esp,0x50
  401180:	push   edx
  401181:	push   ebx
  401182:	push   ebx
  401183:	push   DWORD PTR [edx+0x330]
  401189:	push   esi
  40118a:	call   0x40167c
  40118f:	add    esp,0x10
  401192:	pop    edx
  401193:	push   edx
  401194:	push   0x0
  401196:	push   0x403040
  40119b:	pop    eax
  40119c:	call   DWORD PTR cs:[eax]
  40119f:	pop    edx
  4011a0:	push   edx
  4011a1:	mov    ecx,0x0
  4011a6:	push   ecx
  4011a7:	push   0x403068
  4011ac:	pop    eax
  4011ad:	call   DWORD PTR cs:[eax]
  4011b0:	pop    edx
  4011b1:	sub    esp,0xffffffb0
  4011b4:	mov    ebp,DWORD PTR [esp]
  4011b7:	add    esp,0x4
  4011ba:	ret    
  4011bb:	add    BYTE PTR [ebx-0x1374aa01],cl
  4011c1:	sub    esp,0x30
  4011c4:	push   edx
  4011c5:	push   ebx
  4011c6:	push   ecx
  4011c7:	call   0x401c68
  4011cc:	add    esp,0x8
  4011cf:	pop    edx
  4011d0:	push   edx
  4011d1:	mov    ecx,0x0
  4011d6:	push   ecx
  4011d7:	push   0x403064
  4011dc:	pop    eax
  4011dd:	call   DWORD PTR cs:[eax]
  4011e0:	pop    edx
  4011e1:	push   edx
  4011e2:	push   0x403030
  4011e7:	pop    eax
  4011e8:	call   DWORD PTR cs:[eax]
  4011eb:	pop    edx
  4011ec:	sub    esp,0xffffffd0
  4011ef:	mov    ebp,DWORD PTR [esp]
  4011f2:	add    esp,0x4
  4011f5:	ret    
  4011f6:	add    BYTE PTR [eax],al
  4011f8:	add    BYTE PTR [eax],al
  4011fa:	add    BYTE PTR [eax],al
  4011fc:	mov    edi,edi
  4011fe:	push   ebp
  4011ff:	mov    ebp,esp
  401201:	sub    esp,0x34
  401204:	push   edx
  401205:	push   DWORD PTR [edx+0x34]
  401208:	push   DWORD PTR [edx+0x46c]
  40120e:	push   esi
  40120f:	call   0x401488
  401214:	add    esp,0xc
  401217:	pop    edx
  401218:	push   edx
  401219:	mov    eax,0x0
  40121e:	push   eax
  40121f:	push   0x403068
  401224:	pop    eax
  401225:	call   DWORD PTR cs:[eax]
  401228:	pop    edx
  401229:	push   edx
  40122a:	push   0x0
  40122c:	push   0x403034
  401231:	pop    eax
  401232:	call   DWORD PTR cs:[eax]
  401235:	pop    edx
  401236:	sub    esp,0xffffffcc
  401239:	mov    ebp,DWORD PTR [esp]
  40123c:	add    esp,0x4
  40123f:	ret    
	...
  401248:	mov    edi,edi
  40124a:	push   ebp
  40124b:	mov    ebp,esp
  40124d:	sub    esp,0x2c
  401250:	push   edx
  401251:	mov    eax,0x6b0
  401256:	push   eax
  401257:	push   0x6b0
  40125c:	push   0x40000
  401261:	push   0x40302c
  401266:	pop    edi
  401267:	push   DWORD PTR [edi]
  401269:	sub    DWORD PTR [esp],0x2
  40126d:	push   0x403024
  401272:	pop    edi
  401273:	pop    DWORD PTR [edi]
  401275:	push   0x403024
  40127a:	pop    eax
  40127b:	call   DWORD PTR cs:[eax]
  40127e:	xchg   DWORD PTR [esp],eax
  401281:	mov    edx,eax
  401283:	pop    ebx
  401284:	mov    DWORD PTR [edx+0x3f8],ebx
  40128a:	mov    eax,DWORD PTR [edx+0x3f8]
  401290:	lea    ebx,[eax]
  401292:	sub    ecx,ecx
  401294:	dec    ecx
  401295:	and    ecx,0x401e75
  40129b:	mov    edi,DWORD PTR [ecx]
  40129d:	mov    DWORD PTR [ebx],edi
  40129f:	add    ecx,0x3
  4012a2:	add    ebx,0x3
  4012a5:	mov    edi,0x6a719112
  4012aa:	push   0x6b0
  4012af:	pop    eax
  4012b0:	cmp    eax,0x0
  4012b3:	je     0x4012d1
  4012b5:	add    eax,0xfffffffc
  4012b8:	mov    esi,edi
  4012ba:	xor    esi,DWORD PTR [ecx]
  4012bc:	sub    esi,0x1
  4012bf:	mov    DWORD PTR [ebx],esi
  4012c1:	push   DWORD PTR [ebx]
  4012c3:	mov    edi,0xfffffffc
  4012c8:	sub    ecx,edi
  4012ca:	sub    ebx,edi
  4012cc:	pop    edi
  4012cd:	bswap  edi
  4012cf:	jmp    0x4012b0
  4012d1:	push   edx
  4012d2:	push   0x403030
  4012d7:	pop    eax
  4012d8:	call   DWORD PTR cs:[eax]
  4012db:	pop    edx
  4012dc:	sub    esp,0xffffffd4
  4012df:	pop    ebp
  4012e0:	ret    
  4012e1:	add    BYTE PTR [eax],al
  4012e3:	add    BYTE PTR [ebx-0x1374aa01],cl
  4012e9:	sub    esp,0x34
  4012ec:	push   edx
  4012ed:	push   DWORD PTR [edx+0x51c]
  4012f3:	push   DWORD PTR [edx+0x2e0]
  4012f9:	push   edi
  4012fa:	call   0x4016bc
  4012ff:	add    esp,0xc
  401302:	pop    edx
  401303:	push   edx
  401304:	mov    esi,0x0
  401309:	push   esi
  40130a:	push   0x403064
  40130f:	pop    eax
  401310:	call   DWORD PTR cs:[eax]
  401313:	pop    edx
  401314:	push   edx
  401315:	push   0x0
  401317:	push   0x403004
  40131c:	pop    eax
  40131d:	call   DWORD PTR cs:[eax]
  401320:	pop    edx
  401321:	sub    esp,0xffffffcc
  401324:	mov    ebp,DWORD PTR [esp]
  401327:	add    esp,0x4
  40132a:	ret    
  40132b:	add    BYTE PTR [ebx-0x1374aa01],cl
  401331:	sub    esp,0x48
  401334:	push   edx
  401335:	push   DWORD PTR [edx+0xac]
  40133b:	push   esi
  40133c:	call   0x4013b0
  401341:	add    esp,0x8
  401344:	pop    edx
  401345:	push   edx
  401346:	push   0x0
  401348:	push   0x403004
  40134d:	pop    eax
  40134e:	call   DWORD PTR cs:[eax]
  401351:	pop    edx
  401352:	push   edx
  401353:	push   0x403010
  401358:	pop    eax
  401359:	call   DWORD PTR cs:[eax]
  40135c:	pop    edx
  40135d:	sub    esp,0xffffffb8
  401360:	mov    ebp,DWORD PTR [esp]
  401363:	add    esp,0x4
  401366:	ret    
  401367:	add    BYTE PTR [ebx-0x1374aa01],cl
  40136d:	sub    esp,0x28
  401370:	push   edx
  401371:	mov    esi,0x0
  401376:	push   esi
  401377:	push   0x403048
  40137c:	pop    eax
  40137d:	call   DWORD PTR cs:[eax]
  401380:	pop    edx
  401381:	push   edx
  401382:	push   esi
  401383:	push   eax
  401384:	push   ecx
  401385:	call   0x4014d4
  40138a:	add    esp,0xc
  40138d:	pop    edx
  40138e:	push   edx
  40138f:	mov    esi,0x0
  401394:	push   esi
  401395:	push   0x403014
  40139a:	pop    eax
  40139b:	call   DWORD PTR cs:[eax]
  40139e:	pop    edx
  40139f:	sub    esp,0xffffffd8
  4013a2:	mov    ebp,DWORD PTR [esp]
  4013a5:	add    esp,0x4
  4013a8:	ret    
  4013a9:	add    BYTE PTR [eax],al
  4013ab:	add    BYTE PTR [eax],al
  4013ad:	add    BYTE PTR [eax],al
  4013af:	add    BYTE PTR [ebx-0x1374aa01],cl
  4013b5:	sub    esp,0x50
  4013b8:	push   edx
  4013b9:	push   0x0
  4013bb:	push   0x403068
  4013c0:	pop    eax
  4013c1:	call   DWORD PTR cs:[eax]
  4013c4:	pop    edx
  4013c5:	push   edx
  4013c6:	push   DWORD PTR [edx+0x220]
  4013cc:	push   DWORD PTR [edx+0x298]
  4013d2:	push   edi
  4013d3:	push   ecx
  4013d4:	call   0x401790
  4013d9:	add    esp,0x10
  4013dc:	pop    edx
  4013dd:	push   edx
  4013de:	push   0x403030
  4013e3:	pop    eax
  4013e4:	call   DWORD PTR cs:[eax]
  4013e7:	pop    edx
  4013e8:	sub    esp,0xffffffb0
  4013eb:	mov    ebp,DWORD PTR [esp]
  4013ee:	add    esp,0x4
  4013f1:	ret    
  4013f2:	add    BYTE PTR [eax],al
  4013f4:	mov    edi,edi
  4013f6:	push   ebp
  4013f7:	mov    ebp,esp
  4013f9:	sub    esp,0x2c
  4013fc:	push   edx
  4013fd:	push   esi
  4013fe:	push   eax
  4013ff:	push   ecx
  401400:	push   ecx
  401401:	call   0x4017d8
  401406:	add    esp,0x10
  401409:	pop    edx
  40140a:	push   edx
  40140b:	push   0x0
  40140d:	push   0x403058
  401412:	pop    eax
  401413:	call   DWORD PTR cs:[eax]
  401416:	pop    edx
  401417:	push   edx
  401418:	mov    ecx,0x0
  40141d:	push   ecx
  40141e:	push   0x40300c
  401423:	pop    eax
  401424:	call   DWORD PTR cs:[eax]
  401427:	pop    edx
  401428:	sub    esp,0xffffffd4
  40142b:	mov    ebp,DWORD PTR [esp]
  40142e:	add    esp,0x4
  401431:	ret    
  401432:	add    BYTE PTR [eax],al
  401434:	add    BYTE PTR [eax],al
  401436:	add    BYTE PTR [eax],al
  401438:	mov    edi,edi
  40143a:	push   ebp
  40143b:	mov    ebp,esp
  40143d:	sub    esp,0x28
  401440:	push   edx
  401441:	push   DWORD PTR [edx+0x430]
  401447:	push   DWORD PTR [edx+0x250]
  40144d:	push   ebx
  40144e:	push   ecx
  40144f:	call   0x401568
  401454:	add    esp,0x10
  401457:	pop    edx
  401458:	push   edx
  401459:	mov    ecx,0x0
  40145e:	push   ecx
  40145f:	push   0x403034
  401464:	pop    eax
  401465:	call   DWORD PTR cs:[eax]
  401468:	pop    edx
  401469:	push   edx
  40146a:	mov    ebx,0x0
  40146f:	push   ebx
  401470:	push   0x403068
  401475:	pop    eax
  401476:	call   DWORD PTR cs:[eax]
  401479:	pop    edx
  40147a:	sub    esp,0xffffffd8
  40147d:	mov    ebp,DWORD PTR [esp]
  401480:	add    esp,0x4
  401483:	ret    
  401484:	add    BYTE PTR [eax],al
  401486:	add    BYTE PTR [eax],al
  401488:	mov    edi,edi
  40148a:	push   ebp
  40148b:	mov    ebp,esp
  40148d:	sub    esp,0x30
  401490:	push   edx
  401491:	mov    ecx,0x0
  401496:	push   ecx
  401497:	push   0x403034
  40149c:	pop    eax
  40149d:	call   DWORD PTR cs:[eax]
  4014a0:	pop    edx
  4014a1:	push   edx
  4014a2:	push   ebx
  4014a3:	push   ebx
  4014a4:	push   ebx
  4014a5:	push   DWORD PTR [edx+0x344]
  4014ab:	call   0x4015b0
  4014b0:	add    esp,0x10
  4014b3:	pop    edx
  4014b4:	push   edx
  4014b5:	mov    esi,0x0
  4014ba:	push   esi
  4014bb:	push   0x403034
  4014c0:	pop    eax
  4014c1:	call   DWORD PTR cs:[eax]
  4014c4:	pop    edx
  4014c5:	sub    esp,0xffffffd0
  4014c8:	mov    ebp,DWORD PTR [esp]
  4014cb:	add    esp,0x4
  4014ce:	ret    
  4014cf:	add    BYTE PTR [eax],al
  4014d1:	add    BYTE PTR [eax],al
  4014d3:	add    BYTE PTR [ebx-0x1374aa01],cl
  4014d9:	sub    esp,0x28
  4014dc:	push   edx
  4014dd:	push   0x0
  4014df:	push   0x403058
  4014e4:	pop    eax
  4014e5:	call   DWORD PTR cs:[eax]
  4014e8:	pop    edx
  4014e9:	push   edx
  4014ea:	push   DWORD PTR [edx+0x214]
  4014f0:	push   eax
  4014f1:	push   DWORD PTR [edx+0x1d8]
  4014f7:	push   DWORD PTR [edx+0xb8]
  4014fd:	call   0x401bc8
  401502:	add    esp,0x10
  401505:	pop    edx
  401506:	push   edx
  401507:	mov    edx,0x0
  40150c:	push   edx
  40150d:	push   0x403004
  401512:	pop    eax
  401513:	call   DWORD PTR cs:[eax]
  401516:	pop    edx
  401517:	sub    esp,0xffffffd8
  40151a:	mov    ebp,DWORD PTR [esp]
  40151d:	add    esp,0x4
  401520:	ret    
  401521:	add    BYTE PTR [eax],al
  401523:	add    BYTE PTR [ebx-0x1374aa01],cl
  401529:	sub    esp,0x44
  40152c:	push   edx
  40152d:	push   0x0
  40152f:	push   0x403034
  401534:	pop    eax
  401535:	call   DWORD PTR cs:[eax]
  401538:	pop    edx
  401539:	push   edx
  40153a:	push   ebx
  40153b:	push   DWORD PTR [edx+0x2b8]
  401541:	push   DWORD PTR [edx+0x308]
  401547:	push   edi
  401548:	call   0x401820
  40154d:	add    esp,0x10
  401550:	pop    edx
  401551:	push   edx
  401552:	push   0x403030
  401557:	pop    eax
  401558:	call   DWORD PTR cs:[eax]
  40155b:	pop    edx
  40155c:	sub    esp,0xffffffbc
  40155f:	mov    ebp,DWORD PTR [esp]
  401562:	add    esp,0x4
  401565:	ret    
  401566:	add    BYTE PTR [eax],al
  401568:	mov    edi,edi
  40156a:	push   ebp
  40156b:	mov    ebp,esp
  40156d:	sub    esp,0x4c
  401570:	push   edx
  401571:	push   edi
  401572:	push   DWORD PTR [edx+0x368]
  401578:	call   0x40132c
  40157d:	add    esp,0x8
  401580:	pop    edx
  401581:	push   edx
  401582:	mov    eax,0x0
  401587:	push   eax
  401588:	push   0x403038
  40158d:	pop    eax
  40158e:	call   DWORD PTR cs:[eax]
  401591:	pop    edx
  401592:	push   edx
  401593:	lea    edi,[edx]
  401595:	push   edi
  401596:	push   0x40304c
  40159b:	pop    eax
  40159c:	call   DWORD PTR cs:[eax]
  40159f:	test   eax,eax
  4015a1:	jne    0x401593
  4015a3:	pop    edx
  4015a4:	sub    esp,0xffffffb4
  4015a7:	mov    ebp,DWORD PTR [esp]
  4015aa:	add    esp,0x4
  4015ad:	ret    
  4015ae:	add    BYTE PTR [eax],al
  4015b0:	mov    edi,edi
  4015b2:	push   ebp
  4015b3:	mov    ebp,esp
  4015b5:	sub    esp,0x4c
  4015b8:	push   edx
  4015b9:	push   esi
  4015ba:	push   DWORD PTR [edx+0x2f4]
  4015c0:	call   0x4010c8
  4015c5:	add    esp,0x8
  4015c8:	pop    edx
  4015c9:	push   edx
  4015ca:	push   0x0
  4015cc:	push   0x403038
  4015d1:	pop    eax
  4015d2:	call   DWORD PTR cs:[eax]
  4015d5:	pop    edx
  4015d6:	push   edx
  4015d7:	push   0x0
  4015d9:	push   0x403000
  4015de:	pop    eax
  4015df:	call   DWORD PTR cs:[eax]
  4015e2:	pop    edx
  4015e3:	sub    esp,0xffffffb4
  4015e6:	mov    ebp,DWORD PTR [esp]
  4015e9:	add    esp,0x4
  4015ec:	ret    
  4015ed:	add    BYTE PTR [eax],al
  4015ef:	add    BYTE PTR [ebx],ch
  4015f1:	rol    BYTE PTR [ecx+0x47f000c2],cl
  4015f7:	add    BYTE PTR [edx+0x33],dl
  4015fa:	leave  
  4015fb:	or     ecx,0x403090
  401601:	and    WORD PTR [ecx],0x0
  401605:	push   DWORD PTR [ecx]
  401607:	pop    eax
  401608:	mov    edx,eax
  40160a:	push   0x3c
  40160c:	add    DWORD PTR [esp],eax
  40160f:	pop    ecx
  401610:	push   eax
  401611:	mov    edi,esp
  401613:	mov    esi,ecx
  401615:	movs   DWORD PTR es:[edi],DWORD PTR ds:[esi]
  401616:	pop    eax
  401617:	mov    edx,DWORD PTR [eax+edx*1+0x1c]
  40161b:	ror    edx,0x8
  40161e:	xor    eax,eax
  401620:	or     al,0x80
  401622:	cmp    al,dl
  401624:	pop    edx
  401625:	ja     0x401630
  401627:	nop
  401628:	nop
  401629:	nop
  40162a:	nop
  40162b:	jmp    0x40116c
  401630:	xor    esp,esp
  401632:	int    0x3
  401634:	mov    edi,edi
  401636:	push   ebp
  401637:	mov    ebp,esp
  401639:	sub    esp,0x1c
  40163c:	push   edx
  40163d:	push   esi
  40163e:	push   DWORD PTR [edx+0x2c4]
  401644:	push   eax
  401645:	call   0x401a24
  40164a:	add    esp,0xc
  40164d:	pop    edx
  40164e:	push   edx
  40164f:	push   0x0
  401651:	push   0x403034
  401656:	pop    eax
  401657:	call   DWORD PTR cs:[eax]
  40165a:	pop    edx
  40165b:	push   edx
  40165c:	push   0x0
  40165e:	push   0x403034
  401663:	pop    eax
  401664:	call   DWORD PTR cs:[eax]
  401667:	pop    edx
  401668:	sub    esp,0xffffffe4
  40166b:	mov    ebp,DWORD PTR [esp]
  40166e:	add    esp,0x4
  401671:	ret    
	...
  40167a:	add    BYTE PTR [eax],al
  40167c:	mov    edi,edi
  40167e:	push   ebp
  40167f:	mov    ebp,esp
  401681:	sub    esp,0x38
  401684:	push   edx
  401685:	mov    esi,0x0
  40168a:	push   esi
  40168b:	push   0x403000
  401690:	pop    eax
  401691:	call   DWORD PTR cs:[eax]
  401694:	pop    edx
  401695:	push   edx
  401696:	push   ecx
  401697:	push   edi
  401698:	push   edi
  401699:	call   0x401cb4
  40169e:	add    esp,0xc
  4016a1:	pop    edx
  4016a2:	push   edx
  4016a3:	push   0x403010
  4016a8:	pop    eax
  4016a9:	call   DWORD PTR cs:[eax]
  4016ac:	pop    edx
  4016ad:	sub    esp,0xffffffc8
  4016b0:	mov    ebp,DWORD PTR [esp]
  4016b3:	add    esp,0x4
  4016b6:	ret    
  4016b7:	add    BYTE PTR [eax],al
  4016b9:	add    BYTE PTR [eax],al
  4016bb:	add    BYTE PTR [ebx-0x1374aa01],cl
  4016c1:	sub    esp,0x4c
  4016c4:	push   edx
  4016c5:	push   DWORD PTR [edx+0x524]
  4016cb:	push   DWORD PTR [edx+0x5d0]
  4016d1:	push   ebx
  4016d2:	call   0x401dd0
  4016d7:	add    esp,0xc
  4016da:	pop    edx
  4016db:	push   edx
  4016dc:	push   0x403010
  4016e1:	pop    eax
  4016e2:	call   DWORD PTR cs:[eax]
  4016e5:	pop    edx
  4016e6:	push   edx
  4016e7:	push   0x0
  4016e9:	push   0x403034
  4016ee:	pop    eax
  4016ef:	call   DWORD PTR cs:[eax]
  4016f2:	pop    edx
  4016f3:	sub    esp,0xffffffb4
  4016f6:	mov    ebp,DWORD PTR [esp]
  4016f9:	add    esp,0x4
  4016fc:	ret    
  4016fd:	add    BYTE PTR [eax],al
  4016ff:	add    BYTE PTR [ebx-0x1374aa01],cl
  401705:	sub    esp,0x54
  401708:	push   edx
  401709:	push   DWORD PTR [edx+0x2ec]
  40170f:	push   edi
  401710:	push   DWORD PTR [edx+0x35c]
  401716:	push   DWORD PTR [edx+0xb0]
  40171c:	call   0x401b8c
  401721:	add    esp,0x10
  401724:	pop    edx
  401725:	push   edx
  401726:	push   0x403030
  40172b:	pop    eax
  40172c:	call   DWORD PTR cs:[eax]
  40172f:	pop    edx
  401730:	push   edx
  401731:	mov    esi,0x0
  401736:	push   esi
  401737:	push   0x403068
  40173c:	pop    eax
  40173d:	call   DWORD PTR cs:[eax]
  401740:	pop    edx
  401741:	sub    esp,0xffffffac
  401744:	mov    ebp,DWORD PTR [esp]
  401747:	add    esp,0x4
  40174a:	ret    
  40174b:	add    BYTE PTR [ebx-0x1374aa01],cl
  401751:	sub    esp,0x4c
  401754:	push   edx
  401755:	push   ebx
  401756:	push   esi
  401757:	push   esi
  401758:	call   0x401524
  40175d:	add    esp,0xc
  401760:	pop    edx
  401761:	push   edx
  401762:	lea    ecx,[edx]
  401764:	push   ecx
  401765:	push   0x40304c
  40176a:	pop    eax
  40176b:	call   DWORD PTR cs:[eax]
  40176e:	test   eax,eax
  401770:	jne    0x401762
  401772:	pop    edx
  401773:	push   edx
  401774:	push   0x403030
  401779:	pop    eax
  40177a:	call   DWORD PTR cs:[eax]
  40177d:	pop    edx
  40177e:	sub    esp,0xffffffb4
  401781:	mov    ebp,DWORD PTR [esp]
  401784:	add    esp,0x4
  401787:	ret    
	...
  401790:	mov    edi,edi
  401792:	push   ebp
  401793:	mov    ebp,esp
  401795:	sub    esp,0x60
  401798:	push   edx
  401799:	push   DWORD PTR [edx+0x5b4]
  40179f:	push   ebx
  4017a0:	push   DWORD PTR [edx+0x27c]
  4017a6:	call   0x40186c
  4017ab:	add    esp,0xc
  4017ae:	pop    edx
  4017af:	push   edx
  4017b0:	push   0x0
  4017b2:	push   0x403038
  4017b7:	pop    eax
  4017b8:	call   DWORD PTR cs:[eax]
  4017bb:	pop    edx
  4017bc:	push   edx
  4017bd:	lea    eax,[edx]
  4017bf:	push   eax
  4017c0:	push   0x40304c
  4017c5:	pop    eax
  4017c6:	call   DWORD PTR cs:[eax]
  4017c9:	test   eax,eax
  4017cb:	jne    0x4017bd
  4017cd:	pop    edx
  4017ce:	sub    esp,0xffffffa0
  4017d1:	mov    ebp,DWORD PTR [esp]
  4017d4:	add    esp,0x4
  4017d7:	ret    
  4017d8:	mov    edi,edi
  4017da:	push   ebp
  4017db:	mov    ebp,esp
  4017dd:	sub    esp,0x2c
  4017e0:	push   edx
  4017e1:	push   DWORD PTR [edx+0x384]
  4017e7:	push   edi
  4017e8:	push   DWORD PTR [edx+0x530]
  4017ee:	call   0x40108c
  4017f3:	add    esp,0xc
  4017f6:	pop    edx
  4017f7:	push   edx
  4017f8:	mov    esi,0x0
  4017fd:	push   esi
  4017fe:	push   0x403000
  401803:	pop    eax
  401804:	call   DWORD PTR cs:[eax]
  401807:	pop    edx
  401808:	push   edx
  401809:	push   0x0
  40180b:	push   0x403004
  401810:	pop    eax
  401811:	call   DWORD PTR cs:[eax]
  401814:	pop    edx
  401815:	sub    esp,0xffffffd4
  401818:	mov    ebp,DWORD PTR [esp]
  40181b:	add    esp,0x4
  40181e:	ret    
  40181f:	add    BYTE PTR [ebx-0x1374aa01],cl
  401825:	sub    esp,0x34
  401828:	push   edx
  401829:	push   edi
  40182a:	push   DWORD PTR [edx+0x460]
  401830:	push   DWORD PTR [edx+0x290]
  401836:	call   0x401910
  40183b:	add    esp,0xc
  40183e:	pop    edx
  40183f:	push   edx
  401840:	mov    ebx,0x0
  401845:	push   ebx
  401846:	push   0x403068
  40184b:	pop    eax
  40184c:	call   DWORD PTR cs:[eax]
  40184f:	pop    edx
  401850:	push   edx
  401851:	push   0x0
  401853:	push   0x40300c
  401858:	pop    eax
  401859:	call   DWORD PTR cs:[eax]
  40185c:	pop    edx
  40185d:	sub    esp,0xffffffcc
  401860:	mov    ebp,DWORD PTR [esp]
  401863:	add    esp,0x4
  401866:	ret    
  401867:	add    BYTE PTR [eax],al
  401869:	add    BYTE PTR [eax],al
  40186b:	add    BYTE PTR [ebx-0x1374aa01],cl
  401871:	sub    esp,0x4c
  401874:	push   edx
  401875:	push   0x0
  401877:	push   0x403040
  40187c:	pop    eax
  40187d:	call   DWORD PTR cs:[eax]
  401880:	pop    edx
  401881:	push   edx
  401882:	push   ebx
  401883:	push   eax
  401884:	call   0x401d80
  401889:	add    esp,0x8
  40188c:	pop    edx
  40188d:	push   edx
  40188e:	lea    edi,[edx]
  401890:	push   edi
  401891:	push   0x40304c
  401896:	pop    eax
  401897:	call   DWORD PTR cs:[eax]
  40189a:	test   eax,eax
  40189c:	jne    0x40188e
  40189e:	pop    edx
  40189f:	sub    esp,0xffffffb4
  4018a2:	mov    ebp,DWORD PTR [esp]
  4018a5:	add    esp,0x4
  4018a8:	ret    
	...
  4018b9:	add    BYTE PTR [eax],al
  4018bb:	add    BYTE PTR [ebx-0x1374aa01],cl
  4018c1:	sub    esp,0x48
  4018c4:	push   edx
  4018c5:	push   0x403010
  4018ca:	pop    eax
  4018cb:	call   DWORD PTR cs:[eax]
  4018ce:	pop    edx
  4018cf:	push   edx
  4018d0:	push   ebx
  4018d1:	push   DWORD PTR [edx+0x298]
  4018d7:	push   DWORD PTR [edx+0x244]
  4018dd:	push   ecx
  4018de:	call   0x401aac
  4018e3:	add    esp,0x10
  4018e6:	pop    edx
  4018e7:	push   edx
  4018e8:	push   0x0
  4018ea:	push   0x403004
  4018ef:	pop    eax
  4018f0:	call   DWORD PTR cs:[eax]
  4018f3:	pop    edx
  4018f4:	sub    esp,0xffffffb8
  4018f7:	mov    ebp,DWORD PTR [esp]
  4018fa:	add    esp,0x4
  4018fd:	ret    
	...
  40190e:	add    BYTE PTR [eax],al
  401910:	mov    edi,edi
  401912:	push   ebp
  401913:	mov    ebp,esp
  401915:	sub    esp,0x54
  401918:	push   edx
  401919:	push   0x0
  40191b:	push   0x403028
  401920:	pop    eax
  401921:	call   DWORD PTR cs:[eax]
  401924:	pop    edx
  401925:	push   edx
  401926:	push   ecx
  401927:	push   esi
  401928:	push   edi
  401929:	push   DWORD PTR [edx+0x70]
  40192c:	call   0x401a64
  401931:	add    esp,0x10
  401934:	pop    edx
  401935:	push   edx
  401936:	push   0x0
  401938:	push   0x403040
  40193d:	pop    eax
  40193e:	call   DWORD PTR cs:[eax]
  401941:	pop    edx
  401942:	sub    esp,0xffffffac
  401945:	mov    ebp,DWORD PTR [esp]
  401948:	add    esp,0x4
  40194b:	ret    
  40194c:	mov    edi,edi
  40194e:	push   ebp
  40194f:	mov    ebp,esp
  401951:	sub    esp,0x40
  401954:	push   edx
  401955:	mov    ebx,0x0
  40195a:	push   ebx
  40195b:	push   0x403040
  401960:	pop    eax
  401961:	call   DWORD PTR cs:[eax]
  401964:	pop    edx
  401965:	push   edx
  401966:	push   edi
  401967:	push   DWORD PTR [edx+0x50c]
  40196d:	push   DWORD PTR [edx+0x110]
  401973:	push   eax
  401974:	call   0x401438
  401979:	add    esp,0x10
  40197c:	pop    edx
  40197d:	push   edx
  40197e:	mov    edx,0x0
  401983:	push   edx
  401984:	push   0x403040
  401989:	pop    eax
  40198a:	call   DWORD PTR cs:[eax]
  40198d:	pop    edx
  40198e:	sub    esp,0xffffffc0
  401991:	mov    ebp,DWORD PTR [esp]
  401994:	add    esp,0x4
  401997:	ret    
  401998:	add    BYTE PTR [eax],al
  40199a:	add    BYTE PTR [eax],al
  40199c:	mov    edi,edi
  40199e:	push   ebp
  40199f:	mov    ebp,esp
  4019a1:	sub    esp,0x20
  4019a4:	push   edx
  4019a5:	push   0x403030
  4019aa:	pop    eax
  4019ab:	call   DWORD PTR cs:[eax]
  4019ae:	pop    edx
  4019af:	push   edx
  4019b0:	push   DWORD PTR [edx+0x598]
  4019b6:	push   ebx
  4019b7:	call   0x4012e4
  4019bc:	add    esp,0x8
  4019bf:	pop    edx
  4019c0:	push   edx
  4019c1:	mov    ecx,0x0
  4019c6:	push   ecx
  4019c7:	push   0x403000
  4019cc:	pop    eax
  4019cd:	call   DWORD PTR cs:[eax]
  4019d0:	pop    edx
  4019d1:	sub    esp,0xffffffe0
  4019d4:	mov    ebp,DWORD PTR [esp]
  4019d7:	add    esp,0x4
  4019da:	ret    
	...
  4019e3:	add    BYTE PTR [ebx-0x1374aa01],cl
  4019e9:	sub    esp,0x34
  4019ec:	push   edx
  4019ed:	mov    esi,0x0
  4019f2:	push   esi
  4019f3:	push   0x40300c
  4019f8:	pop    eax
  4019f9:	call   DWORD PTR cs:[eax]
  4019fc:	pop    edx
  4019fd:	push   edx
  4019fe:	push   DWORD PTR [edx+0x5ac]
  401a04:	push   ebx
  401a05:	call   0x4013f4
  401a0a:	add    esp,0x8
  401a0d:	pop    edx
  401a0e:	push   edx
  401a0f:	push   0x403030
  401a14:	pop    eax
  401a15:	call   DWORD PTR cs:[eax]
  401a18:	pop    edx
  401a19:	sub    esp,0xffffffcc
  401a1c:	mov    ebp,DWORD PTR [esp]
  401a1f:	add    esp,0x4
  401a22:	ret    
  401a23:	add    BYTE PTR [ebx-0x1374aa01],cl
  401a29:	sub    esp,0x28
  401a2c:	push   edx
  401a2d:	push   0x0
  401a2f:	push   0x403034
  401a34:	pop    eax
  401a35:	call   DWORD PTR cs:[eax]
  401a38:	pop    edx
  401a39:	push   edx
  401a3a:	push   DWORD PTR [edx+0x22c]
  401a40:	push   ebx
  401a41:	push   DWORD PTR [edx+0x18]
  401a44:	call   0x4011bc
  401a49:	add    esp,0xc
  401a4c:	pop    edx
  401a4d:	push   edx
  401a4e:	push   0x0
  401a50:	push   0x403068
  401a55:	pop    eax
  401a56:	call   DWORD PTR cs:[eax]
  401a59:	pop    edx
  401a5a:	sub    esp,0xffffffd8
  401a5d:	mov    ebp,DWORD PTR [esp]
  401a60:	add    esp,0x4
  401a63:	ret    
  401a64:	mov    edi,edi
  401a66:	push   ebp
  401a67:	mov    ebp,esp
  401a69:	sub    esp,0x48
  401a6c:	push   edx
  401a6d:	push   0x0
  401a6f:	push   0x403034
  401a74:	pop    eax
  401a75:	call   DWORD PTR cs:[eax]
  401a78:	pop    edx
  401a79:	push   edx
  401a7a:	push   DWORD PTR [edx+0xf0]
  401a80:	push   esi
  401a81:	call   0x4018bc
  401a86:	add    esp,0x8
  401a89:	pop    edx
  401a8a:	push   edx
  401a8b:	mov    ecx,0x0
  401a90:	push   ecx
  401a91:	push   0x403064
  401a96:	pop    eax
  401a97:	call   DWORD PTR cs:[eax]
  401a9a:	pop    edx
  401a9b:	sub    esp,0xffffffb8
  401a9e:	mov    ebp,DWORD PTR [esp]
  401aa1:	add    esp,0x4
  401aa4:	ret    
  401aa5:	add    BYTE PTR [eax],al
  401aa7:	add    BYTE PTR [eax],al
  401aa9:	add    BYTE PTR [eax],al
  401aab:	add    BYTE PTR [ebx-0x1374aa01],cl
  401ab1:	sub    esp,0x58
  401ab4:	push   edx
  401ab5:	push   0x0
  401ab7:	push   0x403000
  401abc:	pop    eax
  401abd:	call   DWORD PTR cs:[eax]
  401ac0:	pop    edx
  401ac1:	push   edx
  401ac2:	push   DWORD PTR [edx+0x470]
  401ac8:	push   esi
  401ac9:	call   0x401e20
  401ace:	add    esp,0x8
  401ad1:	pop    edx
  401ad2:	push   edx
  401ad3:	mov    edx,0x0
  401ad8:	push   edx
  401ad9:	push   0x403038
  401ade:	pop    eax
  401adf:	call   DWORD PTR cs:[eax]
  401ae2:	pop    edx
  401ae3:	sub    esp,0xffffffa8
  401ae6:	mov    ebp,DWORD PTR [esp]
  401ae9:	add    esp,0x4
  401aec:	ret    
	...
  401afd:	add    BYTE PTR [eax],al
  401aff:	add    BYTE PTR [ebx-0x1374aa01],cl
  401b05:	sub    esp,0x38
  401b08:	push   edx
  401b09:	push   0x403010
  401b0e:	pop    eax
  401b0f:	call   DWORD PTR cs:[eax]
  401b12:	pop    edx
  401b13:	push   edx
  401b14:	push   esi
  401b15:	push   DWORD PTR [edx+0x330]
  401b1b:	push   esi
  401b1c:	push   esi
  401b1d:	call   0x401368
  401b22:	add    esp,0x10
  401b25:	pop    edx
  401b26:	push   edx
  401b27:	mov    edx,0x0
  401b2c:	push   edx
  401b2d:	push   0x403038
  401b32:	pop    eax
  401b33:	call   DWORD PTR cs:[eax]
  401b36:	pop    edx
  401b37:	sub    esp,0xffffffc8
  401b3a:	mov    ebp,DWORD PTR [esp]
  401b3d:	add    esp,0x4
  401b40:	ret    
  401b41:	add    BYTE PTR [eax],al
  401b43:	add    BYTE PTR [ebx-0x1374aa01],cl
  401b49:	sub    esp,0x34
  401b4c:	push   edx
  401b4d:	push   DWORD PTR [edx+0x27c]
  401b53:	push   edi
  401b54:	push   DWORD PTR [edx+0x48c]
  401b5a:	call   0x40174c
  401b5f:	add    esp,0xc
  401b62:	pop    edx
  401b63:	push   edx
  401b64:	push   0x403030
  401b69:	pop    eax
  401b6a:	call   DWORD PTR cs:[eax]
  401b6d:	pop    edx
  401b6e:	push   edx
  401b6f:	mov    ebx,0x0
  401b74:	push   ebx
  401b75:	push   0x403064
  401b7a:	pop    eax
  401b7b:	call   DWORD PTR cs:[eax]
  401b7e:	pop    edx
  401b7f:	sub    esp,0xffffffcc
  401b82:	mov    ebp,DWORD PTR [esp]
  401b85:	add    esp,0x4
  401b88:	ret    
  401b89:	add    BYTE PTR [eax],al
  401b8b:	add    BYTE PTR [ebx-0x1374aa01],cl
  401b91:	sub    esp,0x60
  401b94:	push   edx
  401b95:	mov    ebx,0x0
  401b9a:	push   ebx
  401b9b:	push   0x403038
  401ba0:	pop    eax
  401ba1:	call   DWORD PTR cs:[eax]
  401ba4:	pop    edx
  401ba5:	push   edx
  401ba6:	push   esi
  401ba7:	push   edi
  401ba8:	call   0x4011fc
  401bad:	add    esp,0x8
  401bb0:	pop    edx
  401bb1:	push   edx
  401bb2:	push   0x0
  401bb4:	push   0x403064
  401bb9:	pop    eax
  401bba:	call   DWORD PTR cs:[eax]
  401bbd:	pop    edx
  401bbe:	sub    esp,0xffffffa0
  401bc1:	mov    ebp,DWORD PTR [esp]
  401bc4:	add    esp,0x4
  401bc7:	ret    
  401bc8:	mov    edi,edi
  401bca:	push   ebp
  401bcb:	mov    ebp,esp
  401bcd:	sub    esp,0x50
  401bd0:	push   edx
  401bd1:	mov    esi,0x0
  401bd6:	push   esi
  401bd7:	push   0x403038
  401bdc:	pop    eax
  401bdd:	call   DWORD PTR cs:[eax]
  401be0:	pop    edx
  401be1:	push   edx
  401be2:	push   DWORD PTR [edx+0x5d8]
  401be8:	push   edi
  401be9:	push   DWORD PTR [edx+0x29c]
  401bef:	push   DWORD PTR [edx+0x50c]
  401bf5:	call   0x40199c
  401bfa:	add    esp,0x10
  401bfd:	pop    edx
  401bfe:	push   edx
  401bff:	push   0x403030
  401c04:	pop    eax
  401c05:	call   DWORD PTR cs:[eax]
  401c08:	pop    edx
  401c09:	sub    esp,0xffffffb0
  401c0c:	mov    ebp,DWORD PTR [esp]
  401c0f:	add    esp,0x4
  401c12:	ret    
  401c13:	add    BYTE PTR [eax],al
  401c15:	add    BYTE PTR [eax],al
  401c17:	add    BYTE PTR [ebx-0x1374aa01],cl
  401c1d:	sub    esp,0x20
  401c20:	push   edx
  401c21:	push   DWORD PTR [edx+0x17c]
  401c27:	push   eax
  401c28:	push   DWORD PTR [edx+0x2a4]
  401c2e:	push   DWORD PTR [edx+0x430]
  401c34:	call   0x4019e4
  401c39:	add    esp,0x10
  401c3c:	pop    edx
  401c3d:	push   edx
  401c3e:	mov    edx,0x0
  401c43:	push   edx
  401c44:	push   0x403004
  401c49:	pop    eax
  401c4a:	call   DWORD PTR cs:[eax]
  401c4d:	pop    edx
  401c4e:	push   edx
  401c4f:	push   0x0
  401c51:	push   0x403038
  401c56:	pop    eax
  401c57:	call   DWORD PTR cs:[eax]
  401c5a:	pop    edx
  401c5b:	sub    esp,0xffffffe0
  401c5e:	mov    ebp,DWORD PTR [esp]
  401c61:	add    esp,0x4
  401c64:	ret    
  401c65:	add    BYTE PTR [eax],al
  401c67:	add    BYTE PTR [ebx-0x1374aa01],cl
  401c6d:	sub    esp,0x38
  401c70:	push   edx
  401c71:	push   0x0
  401c73:	push   0x403064
  401c78:	pop    eax
  401c79:	call   DWORD PTR cs:[eax]
  401c7c:	pop    edx
  401c7d:	push   edx
  401c7e:	push   edi
  401c7f:	push   DWORD PTR [edx+0x1c4]
  401c85:	push   DWORD PTR [edx+0x38]
  401c88:	push   esi
  401c89:	call   0x401d38
  401c8e:	add    esp,0x10
  401c91:	pop    edx
  401c92:	push   edx
  401c93:	mov    ecx,0x0
  401c98:	push   ecx
  401c99:	push   0x403034
  401c9e:	pop    eax
  401c9f:	call   DWORD PTR cs:[eax]
  401ca2:	pop    edx
  401ca3:	sub    esp,0xffffffc8
  401ca6:	mov    ebp,DWORD PTR [esp]
  401ca9:	add    esp,0x4
  401cac:	ret    
  401cad:	add    BYTE PTR [eax],al
  401caf:	add    BYTE PTR [eax],al
  401cb1:	add    BYTE PTR [eax],al
  401cb3:	add    BYTE PTR [ebx-0x1374aa01],cl
  401cb9:	sub    esp,0x44
  401cbc:	push   edx
  401cbd:	push   ecx
  401cbe:	push   esi
  401cbf:	push   ebx
  401cc0:	push   eax
  401cc1:	call   0x401c18
  401cc6:	add    esp,0x10
  401cc9:	pop    edx
  401cca:	push   edx
  401ccb:	mov    ecx,0x0
  401cd0:	push   ecx
  401cd1:	push   0x403028
  401cd6:	pop    eax
  401cd7:	call   DWORD PTR cs:[eax]
  401cda:	pop    edx
  401cdb:	push   edx
  401cdc:	push   0x403030
  401ce1:	pop    eax
  401ce2:	call   DWORD PTR cs:[eax]
  401ce5:	pop    edx
  401ce6:	sub    esp,0xffffffbc
  401ce9:	mov    ebp,DWORD PTR [esp]
  401cec:	add    esp,0x4
  401cef:	ret    
  401cf0:	mov    edi,edi
  401cf2:	push   ebp
  401cf3:	mov    ebp,esp
  401cf5:	sub    esp,0x5c
  401cf8:	push   edx
  401cf9:	push   edi
  401cfa:	push   DWORD PTR [edx+0x4c4]
  401d00:	call   0x401b00
  401d05:	add    esp,0x8
  401d08:	pop    edx
  401d09:	push   edx
  401d0a:	push   0x0
  401d0c:	push   0x403028
  401d11:	pop    eax
  401d12:	call   DWORD PTR cs:[eax]
  401d15:	pop    edx
  401d16:	push   edx
  401d17:	push   0x403010
  401d1c:	pop    eax
  401d1d:	call   DWORD PTR cs:[eax]
  401d20:	pop    edx
  401d21:	sub    esp,0xffffffa4
  401d24:	mov    ebp,DWORD PTR [esp]
  401d27:	add    esp,0x4
  401d2a:	ret    
	...
  401d37:	add    BYTE PTR [ebx-0x1374aa01],cl
  401d3d:	sub    esp,0x34
  401d40:	push   edx
  401d41:	mov    ecx,0x0
  401d46:	push   ecx
  401d47:	push   0x403040
  401d4c:	pop    eax
  401d4d:	call   DWORD PTR cs:[eax]
  401d50:	pop    edx
  401d51:	push   edx
  401d52:	push   eax
  401d53:	push   DWORD PTR [edx+0x254]
  401d59:	push   eax
  401d5a:	call   0x401248
  401d5f:	add    esp,0xc
  401d62:	pop    edx
  401d63:	push   edx
  401d64:	push   0x0
  401d66:	push   0x40300c
  401d6b:	pop    eax
  401d6c:	call   DWORD PTR cs:[eax]
  401d6f:	pop    edx
  401d70:	sub    esp,0xffffffcc
  401d73:	mov    ebp,DWORD PTR [esp]
  401d76:	add    esp,0x4
  401d79:	ret    
  401d7a:	add    BYTE PTR [eax],al
  401d7c:	add    BYTE PTR [eax],al
  401d7e:	add    BYTE PTR [eax],al
  401d80:	mov    edi,edi
  401d82:	push   ebp
  401d83:	mov    ebp,esp
  401d85:	sub    esp,0x2c
  401d88:	push   edx
  401d89:	push   DWORD PTR [edx+0x4]
  401d8c:	push   DWORD PTR [edx+0x560]
  401d92:	push   DWORD PTR [edx+0x540]
  401d98:	call   0x401048
  401d9d:	add    esp,0xc
  401da0:	pop    edx
  401da1:	push   edx
  401da2:	push   0x0
  401da4:	push   0x40300c
  401da9:	pop    eax
  401daa:	call   DWORD PTR cs:[eax]
  401dad:	pop    edx
  401dae:	push   edx
  401daf:	mov    edi,0x0
  401db4:	push   edi
  401db5:	push   0x403000
  401dba:	pop    eax
  401dbb:	call   DWORD PTR cs:[eax]
  401dbe:	pop    edx
  401dbf:	sub    esp,0xffffffd4
  401dc2:	mov    ebp,DWORD PTR [esp]
  401dc5:	add    esp,0x4
  401dc8:	ret    
  401dc9:	add    BYTE PTR [eax],al
  401dcb:	add    BYTE PTR [eax],al
  401dcd:	add    BYTE PTR [eax],al
  401dcf:	add    BYTE PTR [ebx-0x1374aa01],cl
  401dd5:	sub    esp,0x24
  401dd8:	push   edx
  401dd9:	push   DWORD PTR [edx+0x274]
  401ddf:	push   DWORD PTR [edx+0x534]
  401de5:	push   DWORD PTR [edx+0xd8]
  401deb:	push   esi
  401dec:	call   0x401634
  401df1:	add    esp,0x10
  401df4:	pop    edx
  401df5:	push   edx
  401df6:	push   0x0
  401df8:	push   0x40300c
  401dfd:	pop    eax
  401dfe:	call   DWORD PTR cs:[eax]
  401e01:	pop    edx
  401e02:	push   edx
  401e03:	push   0x403030
  401e08:	pop    eax
  401e09:	call   DWORD PTR cs:[eax]
  401e0c:	pop    edx
  401e0d:	sub    esp,0xffffffdc
  401e10:	mov    ebp,DWORD PTR [esp]
  401e13:	add    esp,0x4
  401e16:	ret    
	...
  401e1f:	add    BYTE PTR [ebx-0x1374aa01],cl
  401e25:	sub    esp,0x4c
  401e28:	push   edx
  401e29:	push   edi
  401e2a:	push   eax
  401e2b:	call   0x401700
  401e30:	add    esp,0x8
  401e33:	pop    edx
  401e34:	push   edx
  401e35:	push   0x403010
  401e3a:	pop    eax
  401e3b:	call   DWORD PTR cs:[eax]
  401e3e:	pop    edx
  401e3f:	push   edx
  401e40:	mov    ecx,0x0
  401e45:	push   ecx
  401e46:	push   0x403068
  401e4b:	pop    eax
  401e4c:	call   DWORD PTR cs:[eax]
  401e4f:	pop    edx
  401e50:	sub    esp,0xffffffb4
  401e53:	mov    ebp,DWORD PTR [esp]
  401e56:	add    esp,0x4
  401e59:	ret    
  401e5a:	add    BYTE PTR [eax],al
  401e5c:	push   edi
  401e5d:	in     al,0x88
  401e5f:	aas    
  401e60:	xor    ebp,DWORD PTR [eax-0x4d688f05]
  401e66:	fdiv   st,st(5)
  401e68:	jb     0x401ee8
  401e6a:	jae    0x401e81
  401e6c:	mov    eax,0xaf442e71
  401e71:	cmp    ebp,DWORD PTR ds:0xc80fa22a
  401e77:	std    
  401e78:	out    dx,eax
  401e79:	sahf   
  401e7a:	mov    ecx,0xc7c70097
  401e7f:	add    DWORD PTR [eax],eax
  401e81:	mov    edi,0xc6e30001
  401e87:	jg     0x401eca
  401e89:	retf   0xa27e
  401e8c:	mov    ebp,0x310580a8
  401e91:	imul   esi,eax,0xffffffe2
  401e94:	add    DWORD PTR ds:0x251691a3,ecx
  401e9a:	gs ins BYTE PTR es:[edi],dx
  401e9c:	pop    eax
  401e9d:	push   edi
  401e9e:	inc    eax
  401e9f:	push   ss
  401ea0:	or     DWORD PTR [edx+0x32],eax
  401ea3:	imul   ecx,DWORD PTR [ecx],0xffffffff
  401ea6:	mov    edx,0xbcd552e7
  401eab:	ins    BYTE PTR es:[edi],dx
  401eac:	mov    esi,0x81d8533b
  401eb1:	push   esp
  401eb2:	js     0x401eab
  401eb4:	pop    edx
  401eb5:	call   0xf444a4aa
  401eba:	mov    ch,0xa0
  401ebc:	jge    0x401ea2
  401ebe:	adc    BYTE PTR [eax],al
  401ec0:	add    DWORD PTR [eax],edx
  401ec2:	adc    al,0x1d
  401ec4:	sbb    ebp,DWORD PTR [edi+0x468a0000]
  401eca:	(bad)  
  401ecb:	adc    BYTE PTR [esi+edx*4],dl
  401ece:	and    eax,0x60f2ae1
  401ed3:	call   0x3110:0x20092406
  401eda:	sbb    edx,DWORD PTR [edi+0x76dd5ba9]
  401ee0:	ins    DWORD PTR es:[edi],dx
  401ee1:	mov    DWORD PTR [eax+0x13],esp
  401ee4:	xor    eax,0x2102650d
  401ee9:	add    BYTE PTR [edx+eax*1],al
  401eec:	and    eax,0x5c1d9a32
  401ef1:	jbe    0x401f08
  401ef3:	push   eax
  401ef4:	add    BYTE PTR [edx+0x702b6291],0xc4
  401efb:	xchg   ebx,eax
  401efc:	adc    DWORD PTR [eax],eax
  401efe:	add    al,ah
  401f00:	cmps   DWORD PTR ds:[esi],DWORD PTR es:[edi]
  401f01:	push   0xff6b6a00
  401f06:	push   ebp
  401f07:	push   ss
  401f08:	pushf  
  401f09:	lods   eax,DWORD PTR ds:[esi]
  401f0a:	cli    
  401f0b:	cdq    
  401f0c:	cwde   
  401f0d:	add    eax,0xb5dedbf8
  401f12:	aam    0xf9
  401f14:	stc    
  401f15:	aam    0xf
  401f17:	sub    eax,0xcffb9a7
  401f1c:	push   esi
  401f1d:	ret    
  401f1e:	call   0xc428acb0
  401f23:	stc    
  401f24:	add    al,BYTE PTR [edi-0x238cdecc]
  401f2a:	jl     0x401f86
  401f2c:	add    eax,0x3f6f00fb
  401f31:	call   0x6ab2aa36
  401f36:	add    BYTE PTR [edi+0x6b],ch
  401f39:	call   FWORD PTR [edi]
  401f3b:	pushf  
  401f3c:	cmp    al,0x8a
  401f3e:	stos   BYTE PTR es:[edi],al
  401f3f:	sub    BYTE PTR [eax+ebx*1+0x3c6b3d97],ah
  401f46:	adc    eax,0x47cca74
  401f4b:	push   ecx
  401f4c:	push   es
  401f4d:	pop    es
  401f4e:	(bad)  [ecx+0x78]
  401f51:	cmps   DWORD PTR ds:[esi],DWORD PTR es:[edi]
  401f52:	add    BYTE PTR [ecx-0x364fb057],ch
  401f58:	loope  0x401f42
  401f5a:	sbb    dh,bl
  401f5c:	int3   
  401f5d:	cmp    al,0x8d
  401f5f:	pop    es
  401f60:	add    ebp,ebx
  401f62:	retf   
  401f63:	push   es
  401f64:	push   edi
  401f65:	test   DWORD PTR [esi+0x73],0x22581962
  401f6c:	inc    ecx
  401f6d:	dec    ecx
  401f6e:	mov    dl,0x4e
  401f70:	ins    DWORD PTR es:[edi],dx
  401f71:	loope  0x401f88
  401f73:	sbb    al,0x69
  401f75:	xor    al,0x6a
  401f77:	xor    al,0x0
  401f79:	jno    0x401fdb
  401f7b:	push   ebx
  401f7c:	push   ebx
  401f7d:	push   es
  401f7e:	pusha  
  401f7f:	je     0x401f76
  401f81:	jl     0x401f88
  401f83:	stos   DWORD PTR es:[edi],eax
  401f84:	aas    
  401f85:	push   esp
  401f86:	cmp    ebp,DWORD PTR [esi]
  401f88:	push   ebx
  401f89:	add    DWORD PTR [eax],ecx
  401f8b:	ds aas 
  401f8d:	push   cs
  401f8e:	add    ch,BYTE PTR [esp+eax*1+0x77e1cddc]
  401f95:	cmp    al,0x2f
  401f97:	or     BYTE PTR [esi-0xe],bl
  401f9a:	jmp    DWORD PTR [ebx-0x49a93d2c]
  401fa0:	je     0x401f30
  401fa2:	mov    bh,0x93
  401fa4:	xchg   esp,eax
  401fa5:	lods   eax,DWORD PTR cs:[esi]
  401fa7:	xor    esi,DWORD PTR [edi-0x577bc9f]
  401fad:	sbb    esi,esi
  401faf:	dec    BYTE PTR [esi-0x29]
  401fb2:	test   BYTE PTR [edi+0x72a00e52],bh
  401fb8:	ss dec ebx
  401fba:	ret    0x8e1c
  401fbd:	xchg   edi,edi
  401fbf:	jnp    0x401f94
  401fc1:	out    0xc4,eax
  401fc3:	test   DWORD PTR [ecx],eax
  401fc5:	(bad)  
  401fc6:	pop    ebx
  401fc7:	arpl   bx,ax
  401fc9:	in     al,dx
  401fca:	arpl   WORD PTR [ebp+0x76],si
  401fcd:	call   0x14bb63f6
  401fd2:	push   DWORD PTR [ebp+0x66]
  401fd5:	je     0x402042
  401fd7:	jnp    0x401fe1
  401fd9:	test   al,dl
  401fdb:	inc    eax
  401fdc:	fmul   QWORD PTR [edi+0x50253a9]
  401fe2:	test   ecx,ebx
  401fe4:	cmp    DWORD PTR [ebp+0x6],edx
  401fe7:	push   es
  401fe8:	push   edi
  401fe9:	pop    es
  401fea:	or     BYTE PTR [ebx],dh
  401fec:	ins    DWORD PTR es:[edi],dx
  401fed:	int3   
  401fee:	add    cl,BYTE PTR [eax+ebx*2]
  401ff1:	or     BYTE PTR [ebx-0x8],cl
  401ff4:	aas    
  401ff5:	das    
  401ff6:	mov    al,ds:0xc5a758ff
  401ffb:	jo     0x402048
  401ffd:	dec    ecx
  401ffe:	mov    edx,0x29e958bd
  402003:	mov    DWORD PTR [ecx],0x1e88ae9
  402009:	xor    DWORD PTR [eax+0x186968],0x28760000
  402013:	push   esi
  402014:	ficom  DWORD PTR [ebx-0x78e6f002]
  40201a:	dec    DWORD PTR [ebx-0x220c9fff]
  402020:	add    al,0xff
  402022:	add    BYTE PTR fs:[ecx-0x75],bl
  402026:	inc    eax
  402027:	cmp    al,0x80
  402029:	add    BYTE PTR [edi+0x34146061],al
  40202f:	(bad)
  402033:	scas   eax,DWORD PTR es:[edi]
  402034:	jnp    0x40201d
  402036:	and    al,0x88
  402038:	dec    ecx
  402039:	sbb    BYTE PTR [edi-0x3477a706],al
  40203f:	shl    al,0xef
  402042:	mov    bl,BYTE PTR [eax+0x6d]
  402045:	out    dx,eax
  402046:	out    dx,eax
  402047:	cmp    DWORD PTR [esi-0x9],edx
  40204a:	inc    esi
  40204b:	imul   edi,DWORD PTR [eax+0x44],0xa1190ea1
  402052:	fs xchg edx,ecx
  402055:	xor    BYTE PTR [ecx+0x65767178],cl
  40205b:	push   esp
  40205c:	std    
  40205d:	jbe    0x40205c
  40205f:	or     BYTE PTR [ecx],al
  402061:	pop    edi
  402062:	jmp    0x7e1c:0x79bdd2b0
  402069:	je     0x402007
  40206b:	mov    dh,0x3a
  40206d:	call   0x791a59c2
  402072:	pop    eax
  402073:	add    al,0x3
  402075:	pop    eax
  402076:	js     0x40206c
  402078:	mov    eax,DWORD PTR gs:[esi+eiz*1]
  40207c:	in     al,dx
  40207d:	add    BYTE PTR [edi+0x424010f],ch
  402083:	cmp    BYTE PTR [edx+0x64500424],cl
  402089:	(bad)  
  40208a:	out    0x14,eax
  40208c:	in     al,dx
  40208d:	xor    bl,al
  40208f:	inc    ebp
  402090:	dec    ebx
  402091:	mov    BYTE PTR [ebp+0xb],al
  402094:	xor    DWORD PTR [esi+0x7472b98b],0xf8f70373
  40209e:	or     bh,dl
  4020a0:	mov    al,BYTE PTR [ecx-0x70916601]
  4020a6:	test   al,0x7a
  4020a8:	test   eax,0xb6c37e53
  4020ad:	adc    DWORD PTR [ebx-0x56],0x235457a9
  4020b4:	fisub  DWORD PTR [esi]
  4020b6:	adc    BYTE PTR [esi-0x9],dl
  4020b9:	fwait
  4020ba:	mov    BYTE PTR [esi],ah
  4020bc:	sub    edi,DWORD PTR [esi]
  4020be:	dec    BYTE PTR [eax]
  4020c0:	xlat   BYTE PTR ds:[ebx]
  4020c1:	or     BYTE PTR [ebx+0x4b],0x91
  4020c5:	fisub  DWORD PTR [edi+0x543f7f]
  4020cb:	or     DWORD PTR [edi+0x7],edx
  4020ce:	or     BYTE PTR [edx+ebx*8],bh
  4020d1:	or     dl,al
  4020d3:	aas    
  4020d4:	push   ecx
  4020d5:	adc    eax,0x657cd8d
  4020da:	movs   BYTE PTR es:[edi],BYTE PTR ds:[esi]
  4020db:	xchg   ebx,eax
  4020dc:	pop    ebx
  4020dd:	cdq    
  4020de:	or     al,dl
  4020e0:	mov    ch,0x9e
  4020e2:	add    al,0x57
  4020e4:	add    DWORD PTR [ecx+0xd70019b],ebp
  4020ea:	inc    esp
  4020eb:	add    eax,DWORD PTR [eax]
  4020ed:	popa   
  4020ee:	jb     0x4020eb
  4020f0:	(bad)  
  4020f1:	jg     0x402168
  4020f3:	std    
  4020f4:	mov    dh,BYTE PTR [ebx+ebp*2+0x0]
  4020f8:	test   eax,0xa9f8f1c
  4020fd:	hlt    
  4020fe:	push   esi
  4020ff:	or     eax,0xb10f0a02
  402104:	or     DWORD PTR [edi-0x29aaaaff],ebp
  40210a:	cmp    DWORD PTR [ebx-0x8],eax
  40210d:	dec    ecx
  40210e:	loop   0x4020ab
  402110:	mov    ds:0x78605cea,al
  402115:	sar    ch,1
  402117:	pop    esp
  402118:	adc    BYTE PTR [eax],ah
  40211a:	aaa    
  40211b:	ja     0x402173
  40211d:	cmp    edx,edx
  40211f:	mov    esi,0x590f8494
  402124:	add    al,0xa4
  402126:	add    BYTE PTR [eax],al
  402128:	add    DWORD PTR [ebx-0x495ed1ee],ecx
  40212e:	mov    eax,DWORD PTR [ebp-0x7e7bf08e]
  402134:	add    BYTE PTR [edi+ecx*1-0x7452080b],0xf8
  40213c:	cld    
  40213d:	jo     0x40213c
  40213f:	js     0x40218f
  402141:	add    BYTE PTR [edx+0x543b0351],ch
  402147:	lods   al,BYTE PTR ds:[esi]
  402148:	imul   edx,DWORD PTR [edx+ebp*2],0xf8835850
  40214f:	add    al,0x55
  402151:	add    BYTE PTR [edi+0x6a14693f],0x50
  402158:	pop    eax
  402159:	adc    DWORD PTR [esp],0x57811425
  402160:	add    BYTE PTR [esi+0x1c],dl
  402163:	jmp    FWORD PTR [ecx-0x859f100]
  402169:	jno    0x40212f
  40216b:	add    al,0xdd
  40216d:	add    dl,bh
  40216f:	inc    esp
  402170:	ins    DWORD PTR es:[edi],dx
  402171:	cmp    ah,cl
  402173:	mov    eax,0xe54462f2
  402178:	int3   
  402179:	lods   eax,DWORD PTR ds:[esi]
  40217a:	push   esi
  40217b:	mov    ah,0x7d
  40217d:	adc    eax,0xff0ea6ff
  402182:	and    al,0x1c
  402184:	sbb    al,0xe3
  402186:	out    dx,al
  402187:	pop    ecx
  402188:	xlat   BYTE PTR ds:[ebx]
  402189:	stos   BYTE PTR es:[edi],al
  40218a:	mov    BYTE PTR [ebx],0x56
  40218d:	jbe    0x4021a3
  40218f:	jb     0x40215f
  402191:	cmp    BYTE PTR [edx+0x41],dl
  402194:	adc    DWORD PTR [eax],eax
  402196:	aas    
  402197:	mov    bl,0x6a
  402199:	push   ebx
  40219a:	push   eax
  40219b:	dec    esi
  40219d:	cmp    BYTE PTR [eax+edi*8],al
  4021a0:	adc    DWORD PTR [eax],eax
  4021a2:	aas    
  4021a3:	mov    cl,0x84
  4021a5:	jae    0x4021a7
  4021a7:	adc    BYTE PTR [ecx],dl
  4021a9:	add    bl,bl
  4021ab:	push   ecx
  4021ac:	pop    eax
  4021ad:	add    BYTE PTR [ebp+0xc],dl
  4021b0:	push   edi
  4021b1:	or     al,0xa7
  4021b3:	push   esp
  4021b4:	ficom  WORD PTR [ecx-0x491c24d4]
  4021ba:	test   eax,0x21cde36e
  4021bf:	pushf  
  4021c0:	jae    0x402198
  4021c2:	scas   al,BYTE PTR es:[edi]
  4021c3:	les    ecx,FWORD PTR [edi-0x15]
  4021c6:	mov    edi,0xe89b497e
  4021cb:	mov    eax,DWORD PTR [ecx]
  4021cd:	call   0xec3f68cd
  4021d2:	push   edx
  4021d3:	pop    ds
  4021d4:	push   ds
  4021d5:	mov    ecx,0xff0a17ff
  4021da:	(bad)  
  4021db:	jmp    FWORD PTR [eax+0x1e1f846]
  4021e1:	pop    es
  4021e2:	push   ecx
  4021e3:	adc    dh,0xe8
  4021e6:	add    BYTE PTR [edx+ebx*2-0x6124348c],cl
  4021ed:	cmp    eax,0xe801d08b
  4021f2:	into   
  4021f3:	inc    esi
  4021f4:	inc    edi
  4021f6:	fs (bad) 
  4021f8:	jb     0x40223b
  4021fa:	pop    ss
  4021fb:	inc    ecx
  4021fc:	mov    esi,0xf2bfcae8
  402201:	scas   eax,DWORD PTR es:[edi]
  402202:	ds aaa 
  402204:	rol    BYTE PTR [eax],0x54
  402207:	in     al,0x2a
  402209:	add    eax,0x808923c5
  40220e:	sar    DWORD PTR [eax-0x79],0x98
  402212:	cvtdq2ps xmm1,xmm3
  402215:	dec    esi
  402216:	sub    al,0xf2
  402218:	dec    eax
  402219:	add    DWORD PTR [eax],ebx
  40221b:	mov    al,0xbe
  40221d:	stc    
  40221e:	int3   
  40221f:	inc    eax
  402220:	or     edi,DWORD PTR [ecx-0x8123dc]
  402226:	(bad)  
  402227:	(bad)  
  402228:	out    dx,eax
  402229:	dec    eax
  40222a:	repz ret 
  40222c:	or     DWORD PTR [ebp+0xe],ebx
  40222f:	pop    es
  402230:	or     DWORD PTR [ecx-0x9149af],edi
  402236:	(bad)  
  402237:	jmp    DWORD PTR [ebp-0x857fe9]
  40223d:	jg     0x4022a1
  40223f:	sub    eax,0x3c9e9551
  402244:	xchg   ecx,eax
  402245:	mov    al,ds:0xc8a739f4
  40224a:	rcl    DWORD PTR [ecx+0x1],0x48
  40224e:	push   esp
  40224f:	mov    DWORD PTR [edx+0x1004876],ecx
  402255:	dec    eax
  402256:	jbe    0x4021e9
  402258:	xchg   edx,eax
  402259:	push   esp
  40225a:	dec    eax
  40225b:	add    BYTE PTR [ecx],al
  40225d:	dec    eax
  40225e:	push   esp
  40225f:	cdq    
  402260:	call   0x7048:0x1004870
  402267:	mov    eax,ds:0x4834a2
  40226c:	add    DWORD PTR [eax+0x34],ecx
  40226f:	test   eax,0x4870aa
  402274:	add    DWORD PTR [eax+0x70],ecx
  402277:	mov    cl,0xb2
  402279:	xor    al,0x48
  40227b:	add    BYTE PTR [ecx],al
  40227d:	dec    eax
  40227e:	xor    al,0xb9
  402280:	mov    WORD PTR [ebp-0x255d3cef],?
  402286:	mov    esp,0x91094dc7
  40228b:	mov    al,bh
  40228d:	adc    dh,BYTE PTR [eax+eax*1-0x74]
  402291:	jge    0x4022e7
  402293:	mov    al,BYTE PTR [ebp+0x42207b21]
  402299:	(bad)  
  40229a:	je     0x40229b
  40229c:	add    DWORD PTR [ecx+0x3b],esp
  40229f:	mov    BYTE PTR [eax-0x6b],ah
  4022a2:	pop    ebp
  4022a3:	mov    edx,DWORD PTR [edx-0x49]
  4022a6:	and    BYTE PTR [ebx-0x7724cf40],dh
  4022ac:	add    DWORD PTR [eax],edi
  4022ae:	inc    ebp
  4022af:	mov    ecx,DWORD PTR ds:0xa9af3b00
  4022b5:	adc    ebx,DWORD PTR [ecx+0x5c]
  4022b8:	fsub   QWORD PTR [ecx-0x34b20e4d]
  4022be:	clc    
  4022bf:	mov    eax,DWORD PTR [ecx]
  4022c1:	dec    eax
  4022c2:	mov    cl,0xac
  4022c4:	popa   
  4022c5:	test   eax,0x8776f8c3
  4022ca:	popf   
  4022cb:	and    BYTE PTR ds:0xc6e90cbd,al
  4022d1:	sbb    BYTE PTR [eax],al
  4022d3:	add    BYTE PTR [ecx],al
  4022d5:	mov    ebp,DWORD PTR [eax-0x73]
  4022d8:	jle    0x4022f2
  4022da:	mov    eax,DWORD PTR [eax]
  4022dc:	or     eax,0xa9ae3b00
  4022e1:	adc    ecx,DWORD PTR [ebp+0x4102b500]
  4022e7:	add    eax,0x4004cedc
  4022ec:	or     al,0x2e
  4022ee:	stos   DWORD PTR es:[edi],eax
  4022ef:	sub    bh,BYTE PTR [eax-0x6f0c5a9c]
  4022f5:	inc    eax
  4022f6:	sub    al,0x79
  4022f8:	movs   DWORD PTR es:[edi],DWORD PTR ds:[esi]
  4022f9:	dec    esp
  4022fa:	shl    DWORD PTR [ebx-0x33],0x83
  4022fe:	pusha  
  4022ff:	ret    
  402300:	imul   esp,DWORD PTR [eax+eax*1],0xd2310120
  402307:	add    ch,BYTE PTR [ebx-0x64]
  40230a:	cmp    edi,edi
  40230c:	test   eax,0x8dd8e114
  402311:	fsub   st,st(3)
  402313:	add    BYTE PTR [eax+0x74],ah
  402316:	pop    ss
  402317:	jo     0x402352
  402319:	inc    edi
  40231a:	retf   
  40231b:	or     BYTE PTR [eax+0x11cc3c0],dh
  402321:	rol    BYTE PTR ds:0x4684b54b,0x54
  402328:	add    BYTE PTR [ecx-0x6a41b3ac],bh
  40232e:	mov    dh,BYTE PTR [esi-0x626a754f]
  402334:	call   0x4d24:0x351db91
  40233b:	cmc    
  40233c:	push   ecx
  40233d:	xchg   ebp,eax
  40233e:	popa   
  40233f:	ret    
  402340:	mov    ds:0xf25449ea,al
  402345:	cmps   DWORD PTR ds:[esi],DWORD PTR es:[edi]
  402346:	sbb    cl,BYTE PTR [edx-0x33861654]
  40234c:	and    al,0x0
  40234e:	xchg   dh,al
  402350:	std    
  402351:	cmps   BYTE PTR ds:[esi],BYTE PTR es:[edi]
  402352:	mov    ebx,DWORD PTR [eax+esi*2]
  402355:	add    DWORD PTR ds:0x6130d425,ebp
  40235b:	xchg   BYTE PTR [esp+edx*1+0x50],al
  40235f:	add    cl,dh
  402361:	sub    DWORD PTR [esi],esp
  402363:	jp     0x402324
  402365:	push   edx
  402366:	cmp    al,0x46
  402368:	jmp    0x1442458
  40236d:	pop    edx
  40236e:	call   0x723c178b
  402373:	enter  0x5ef4,0xa0
  402377:	jbe    0x4023f4
  402379:	pop    ebx
  40237a:	add    BYTE PTR [edi+0x58],ah
  40237d:	or     BYTE PTR [edi+0x26],bl
  402380:	gs add al,bh
  402383:	retf   0x88bc
  402386:	icebp  
  402387:	sbb    eax,0xb63e6540
  40238c:	cdq    
  40238d:	cwde   
  40238e:	dec    ebx
  40238f:	out    0xed,al
  402391:	popa   
  402392:	dec    edx
  402393:	cmp    esp,DWORD PTR [ebp+0x16f8a81]
  402399:	push   0x741bab60
  40239e:	or     BYTE PTR cs:0x12040743,cl
  4023a5:	daa    
  4023a6:	xchg   edx,eax
  4023a7:	cmp    eax,0x16947a50
  4023ac:	jl     0x402342
  4023ae:	jp     0x402401
  4023b0:	push   esp
  4023b1:	jp     0x402347
  4023b3:	jl     0x4023ef
  4023b5:	stos   BYTE PTR es:[edi],al
  4023b6:	test   DWORD PTR [eax+0x2],ebp
  4023b9:	outs   dx,BYTE PTR ds:[esi]
  4023ba:	push   ds
  4023bb:	sub    ecx,DWORD PTR [edi]
  4023bd:	adc    bl,BYTE PTR [ecx]
  4023bf:	sbb    DWORD PTR [ebx],eax
  4023c1:	and    esi,DWORD PTR [esi]
  4023c3:	xchg   edi,eax
  4023c4:	test   eax,0xc9b6d758
  4023c9:	or     al,bh
  4023cb:	add    eax,0x66cb9a05
  4023d0:	bound  edx,QWORD PTR [esi]
  4023d2:	xchg   ebp,eax
  4023d3:	add    DWORD PTR [eax-0x59],ebx
  4023d6:	push   es
  4023d7:	push   ebx
  4023d8:	add    eax,0xbf5a5f3a
  4023dd:	and    DWORD PTR [edx+0x50],ebp
  4023e0:	add    DWORD PTR [ebx-0x45933e6],ecx
  4023e6:	cdq    
  4023e7:	add    BYTE PTR [ecx],al
  4023e9:	adc    ch,BYTE PTR [ebp-0x5b66a27a]
  4023ef:	inc    edi
  4023f0:	retf   
  4023f1:	bound  ebx,QWORD PTR [eax-0x2c]
  4023f4:	repnz push edx
  4023f6:	jbe    0x4023db
  4023f8:	ret    
  4023f9:	call   0x1b4f250
  4023fe:	cmps   DWORD PTR ds:[esi],DWORD PTR es:[edi]
  4023ff:	call   FWORD PTR [eax-0x59]
  402402:	sub    DWORD PTR [edi],eax
  402404:	leave  
  402405:	loop   0x4023a2
  402407:	push   esp
  402408:	pop    eax
  402409:	adc    dh,BYTE PTR [esp+eiz*8]
  40240c:	ja     0x402463
  40240e:	sar    bh,1
  402410:	pop    esi
  402411:	lea    eax,[ebp-0x12]
  402414:	hlt    
  402415:	test   DWORD PTR [ecx-0x2fdf332c],ecx
  40241b:	ficomp WORD PTR [eax+edx*1+0x24]
  40241f:	inc    esp
  402420:	add    DWORD PTR [eax],eax
  402422:	add    BYTE PTR [eax+0x69],ch
  402425:	add    BYTE PTR [eax],al
  402427:	add    ah,al
  402429:	xor    si,si
  40242c:	xchg   ecx,eax
  40242d:	mov    DWORD PTR [ebx],ebp
  40242f:	cdq    
  402430:	cmp    eax,0xe255dce0
  402435:	adc    ah,BYTE PTR [ebp+0x640a6ee7]
  40243b:	rol    BYTE PTR [ecx],1
  40243d:	sti    
  40243e:	out    dx,eax
  40243f:	arpl   dx,dx
  402441:	adc    ebp,DWORD PTR [edi-0x1]
  402444:	mov    DWORD PTR [ebp+0x75],esi
  402447:	sub    BYTE PTR [ebp-0x13],cl
  40244a:	dec    ebx
  40244b:	and    eax,0x24523716
  402450:	jns    0x4023eb
  402452:	jmp    0x4024ca
  402454:	loop   0x402469
  402456:	dec    ebp
  402457:	movs   DWORD PTR es:[edi],DWORD PTR ds:[esi]
  402458:	xchg   ecx,eax
  402459:	sar    DWORD PTR [ecx+edx*4+0x554b0b6d],cl
  402460:	jno    0x4024dc
  402462:	sub    esp,ebx
  402464:	ret    
  402465:	sub    eax,DWORD PTR [ecx]
  402467:	mov    dh,0x21
  402469:	call   FWORD PTR [ecx-0x6bdbb010]
  40246f:	mov    BYTE PTR [edi+0x0],ch
  402472:	jge    0x40240f
  402474:	adc    DWORD PTR [eax],eax
  402476:	aas    
  402477:	outs   dx,BYTE PTR ds:[esi]
  402478:	imul   ebp,DWORD PTR [eax-0x5a63efab],0x7e
  40247f:	in     al,dx
  402480:	jmp    0x8ccc1505
  402485:	cld    
  402486:	imul   eax,DWORD PTR [eax],0xdcfc6806
  40248c:	add    edi,edi
  40248e:	push   ebp
  40248f:	and    DWORD PTR [ebx+0x55],ecx
  402492:	xchg   edi,eax
  402493:	rol    DWORD PTR [ecx+0x6e000068],cl
  402499:	push   0x0
  40249b:	push   0x68
  40249d:	push   0x8001036a
  4024a2:	aas    
  4024a3:	(bad)  
  4024a4:	test   eax,0xc1c40173
  4024a9:	and    BYTE PTR [edx*2-0x4a66f3c],0x2e
  4024b1:	mov    ds:0x5ec06144,eax
  4024b6:	(bad)  
  4024b7:	aam    0x4a
  4024b9:	jno    0x4024ed
  4024bb:	into   
  4024bc:	bound  esp,QWORD PTR [ebp+0x76]
  4024bf:	aam    0x1e
  4024c1:	sbb    edx,DWORD PTR [ecx-0x7c]
  4024c4:	sub    ebp,DWORD PTR [ebp+0x52]
  4024c7:	pop    edi
  4024c8:	lds    edx,FWORD PTR [edx+0x27b3bc5d]
  4024ce:	dec    esi
  4024cf:	xchg   DWORD PTR [ecx+0x6e],ecx
  4024d2:	mov    eax,0xadfbd425
  4024d7:	jns    0x40248e
  4024d9:	xchg   ebx,eax
  4024da:	adc    DWORD PTR [esi],esi
  4024dc:	sub    al,0x8f
  4024de:	xchg   edx,eax
  4024df:	lea    esi,[eax-0x5c713a9c]
  4024e5:	cmp    ch,dh
  4024e7:	aas    
  4024e8:	adc    al,0xa6
  4024ea:	movs   DWORD PTR es:[edi],DWORD PTR ds:[esi]
  4024eb:	cmps   BYTE PTR ds:[esi],BYTE PTR es:[edi]
  4024ec:	lea    esp,[edi-0x3ad51cf8]
  4024f2:	add    al,0xd7
  4024f4:	jnp    0x4024b3
  4024f6:	push   ds
  4024f7:	clc    
  4024f8:	xchg   DWORD PTR [ebx+0x12602],edx
  4024fe:	add    BYTE PTR [edi+0x1],dh
  402504:	add    DWORD PTR [eax],eax
  402506:	add    BYTE PTR [eax],al
  402508:	add    DWORD PTR [eax],eax
  40250a:	add    BYTE PTR [eax],al
  40250c:	add    DWORD PTR [eax],eax
  40250e:	add    BYTE PTR [eax],al
  402510:	add    DWORD PTR [eax],eax
  402512:	add    BYTE PTR [eax],al
  402514:	add    DWORD PTR [edx+0x72],ebp
  402517:	add    BYTE PTR [ecx],al
  402519:	jb     0x402565
  40251b:	add    eax,0x42004
  402520:	add    DWORD PTR [edi+0x7b27347b],eax
  402526:	add    DWORD PTR [eax],0xffffffab
  402529:	loop   0x40250d
  40252b:	popa   
  40252c:	stos   DWORD PTR es:[edi],eax
  40252d:	inc    edi
  40252e:	cld    
  40252f:	fstp   st(7)
  402531:	push   esp
  402532:	mov    cl,0xa9
  402534:	xchg   ecx,eax
  402535:	(bad)  
  402536:	xor    al,0xaa
  402538:	retf   
  402539:	cmps   BYTE PTR ds:[esi],BYTE PTR es:[edi]
  40253a:	ins    BYTE PTR es:[edi],dx
  40253b:	sub    BYTE PTR [eax-0x2c],0xf3
  40253f:	js     0x4024ca
  402541:	das    
  402542:	sub    bl,BYTE PTR [edx+0x49fb8a40]
  402548:	dec    eax
  402549:	movs   BYTE PTR es:[edi],BYTE PTR ds:[esi]
  40254a:	.byte 0xde
  40254b:	.byte 0xa2
