
3fb50cf3d6cd83bc7b9e7402c856c2412089db7a3c10c852aed038ebb5a6cccf.exe:     file format pei-i386


Disassembly of section .text:

00401000 <.text>:
  401000:	mov    edi,edi
  401002:	push   ebp
  401003:	mov    ebp,esp
  401005:	sub    esp,0x1c
  401008:	push   eax
  401009:	push   0x0
  40100b:	mov    eax,ds:0x404044
  401010:	call   eax
  401012:	pop    eax
  401013:	push   eax
  401014:	push   DWORD PTR [eax+0x2c0]
  40101a:	push   ebx
  40101b:	push   DWORD PTR [eax+0x1d0]
  401021:	call   0x40200c
  401026:	add    esp,0xc
  401029:	pop    eax
  40102a:	push   eax
  40102b:	mov    edx,0x0
  401030:	push   edx
  401031:	mov    eax,ds:0x404040
  401036:	call   eax
  401038:	pop    eax
  401039:	sub    esp,0xffffffe4
  40103c:	mov    ebp,DWORD PTR [esp]
  40103f:	add    esp,0x4
  401042:	ret    
	...
  401093:	add    BYTE PTR [ecx-0x3d],ah
  401096:	add    BYTE PTR [eax],al
  401098:	mov    edi,edi
  40109a:	push   ebp
  40109b:	mov    ebp,esp
  40109d:	sub    esp,0x4c
  4010a0:	push   eax
  4010a1:	push   DWORD PTR [eax+0x18]
  4010a4:	push   ecx
  4010a5:	push   DWORD PTR [eax+0x1b8]
  4010ab:	call   0x401e50
  4010b0:	add    esp,0xc
  4010b3:	pop    eax
  4010b4:	push   eax
  4010b5:	mov    eax,0x0
  4010ba:	push   eax
  4010bb:	mov    eax,ds:0x404040
  4010c0:	call   eax
  4010c2:	pop    eax
  4010c3:	push   eax
  4010c4:	mov    ecx,0x0
  4010c9:	push   ecx
  4010ca:	mov    eax,ds:0x404014
  4010cf:	call   eax
  4010d1:	pop    eax
  4010d2:	sub    esp,0xffffffb4
  4010d5:	mov    ebp,DWORD PTR [esp]
  4010d8:	add    esp,0x4
  4010db:	ret    
	...
  40112c:	mov    edi,edi
  40112e:	push   ebp
  40112f:	mov    ebp,esp
  401131:	sub    esp,0x30
  401134:	push   eax
  401135:	push   DWORD PTR [eax+0x100]
  40113b:	push   DWORD PTR [eax+0x1b4]
  401141:	call   0x4024c4
  401146:	add    esp,0x8
  401149:	pop    eax
  40114a:	push   eax
  40114b:	push   0x0
  40114d:	mov    eax,ds:0x40407c
  401152:	call   eax
  401154:	pop    eax
  401155:	push   eax
  401156:	push   0x0
  401158:	mov    eax,ds:0x404068
  40115d:	call   eax
  40115f:	pop    eax
  401160:	sub    esp,0xffffffd0
  401163:	mov    ebp,DWORD PTR [esp]
  401166:	add    esp,0x4
  401169:	ret    
  40116a:	add    BYTE PTR [eax],al
  40116c:	mov    edi,edi
  40116e:	push   ebp
  40116f:	mov    ebp,esp
  401171:	sub    esp,0x2c
  401174:	push   eax
  401175:	push   DWORD PTR [eax+0x80]
  40117b:	push   edx
  40117c:	push   DWORD PTR [eax+0x34]
  40117f:	call   0x401098
  401184:	add    esp,0xc
  401187:	pop    eax
  401188:	push   eax
  401189:	mov    ebx,0x0
  40118e:	push   ebx
  40118f:	mov    eax,ds:0x40402c
  401194:	call   eax
  401196:	pop    eax
  401197:	mov    ecx,0x40401c
  40119c:	mov    ecx,DWORD PTR [ecx]
  40119e:	push   ecx
  40119f:	push   DWORD PTR [eax+0x20c]
  4011a5:	pop    edi
  4011a6:	call   edi
  4011a8:	sub    esp,0xffffffd4
  4011ab:	mov    ebp,DWORD PTR [esp]
  4011ae:	add    esp,0x4
  4011b1:	ret    
  4011b2:	add    BYTE PTR [eax],al
  4011b4:	mov    edi,edi
  4011b6:	push   ebp
  4011b7:	mov    ebp,esp
  4011b9:	sub    esp,0x48
  4011bc:	push   eax
  4011bd:	push   DWORD PTR [eax+0x164]
  4011c3:	push   edi
  4011c4:	push   DWORD PTR [eax+0x2ac]
  4011ca:	call   0x4019e4
  4011cf:	add    esp,0xc
  4011d2:	pop    eax
  4011d3:	push   eax
  4011d4:	mov    eax,ds:0x40404c
  4011d9:	call   eax
  4011db:	pop    eax
  4011dc:	push   eax
  4011dd:	mov    edx,0x0
  4011e2:	push   edx
  4011e3:	mov    eax,ds:0x40402c
  4011e8:	call   eax
  4011ea:	pop    eax
  4011eb:	sub    esp,0xffffffb8
  4011ee:	mov    ebp,DWORD PTR [esp]
  4011f1:	add    esp,0x4
  4011f4:	ret    
  4011f5:	add    BYTE PTR [eax],al
  4011f7:	add    BYTE PTR [ebx-0x1374aa01],cl
  4011fd:	sub    esp,0x5c
  401200:	push   eax
  401201:	mov    eax,ds:0x40403c
  401206:	call   eax
  401208:	pop    eax
  401209:	push   eax
  40120a:	push   DWORD PTR [eax+0x38c]
  401210:	push   DWORD PTR [eax+0x108]
  401216:	call   0x4015d0
  40121b:	add    esp,0x8
  40121e:	pop    eax
  40121f:	push   eax
  401220:	push   0x0
  401222:	mov    eax,ds:0x404070
  401227:	call   eax
  401229:	pop    eax
  40122a:	sub    esp,0xffffffa4
  40122d:	mov    ebp,DWORD PTR [esp]
  401230:	add    esp,0x4
  401233:	ret    
	...
  401284:	mov    edi,edi
  401286:	push   ebp
  401287:	mov    ebp,esp
  401289:	sub    esp,0x50
  40128c:	push   eax
  40128d:	mov    eax,ds:0x40404c
  401292:	call   eax
  401294:	pop    eax
  401295:	push   eax
  401296:	push   edx
  401297:	push   esi
  401298:	push   edx
  401299:	call   0x401658
  40129e:	add    esp,0xc
  4012a1:	pop    eax
  4012a2:	push   eax
  4012a3:	push   0x0
  4012a5:	mov    eax,ds:0x404044
  4012aa:	call   eax
  4012ac:	pop    eax
  4012ad:	sub    esp,0xffffffb0
  4012b0:	mov    ebp,DWORD PTR [esp]
  4012b3:	add    esp,0x4
  4012b6:	ret    
  4012b7:	add    BYTE PTR [ebx-0x1374aa01],cl
  4012bd:	sub    esp,0x38
  4012c0:	push   eax
  4012c1:	mov    eax,0x0
  4012c6:	push   eax
  4012c7:	mov    eax,ds:0x404068
  4012cc:	call   eax
  4012ce:	pop    eax
  4012cf:	push   eax
  4012d0:	push   ebx
  4012d1:	push   DWORD PTR [eax+0x1c]
  4012d4:	push   esi
  4012d5:	call   0x401964
  4012da:	add    esp,0xc
  4012dd:	pop    eax
  4012de:	push   eax
  4012df:	mov    eax,ds:0x404048
  4012e4:	call   eax
  4012e6:	pop    eax
  4012e7:	sub    esp,0xffffffc8
  4012ea:	mov    ebp,DWORD PTR [esp]
  4012ed:	add    esp,0x4
  4012f0:	ret    
	...
  401391:	add    BYTE PTR [eax],al
  401393:	add    BYTE PTR [ebx-0x1374aa01],cl
  401399:	sub    esp,0x28
  40139c:	push   eax
  40139d:	mov    ebx,0x0
  4013a2:	push   ebx
  4013a3:	mov    eax,ds:0x404014
  4013a8:	call   eax
  4013aa:	pop    eax
  4013ab:	push   eax
  4013ac:	push   esi
  4013ad:	push   DWORD PTR [eax+0x3b8]
  4013b3:	push   ecx
  4013b4:	push   DWORD PTR [eax+0x2e8]
  4013ba:	call   0x4027e8
  4013bf:	add    esp,0x10
  4013c2:	pop    eax
  4013c3:	push   eax
  4013c4:	mov    ecx,0x0
  4013c9:	push   ecx
  4013ca:	mov    eax,ds:0x404004
  4013cf:	call   eax
  4013d1:	pop    eax
  4013d2:	sub    esp,0xffffffd8
  4013d5:	mov    ebp,DWORD PTR [esp]
  4013d8:	add    esp,0x4
  4013db:	ret    
  4013dc:	mov    edi,edi
  4013de:	push   ebp
  4013df:	mov    ebp,esp
  4013e1:	sub    esp,0x30
  4013e4:	push   eax
  4013e5:	push   0x6b4
  4013ea:	push   0x6b4
  4013ef:	push   0x40001
  4013f4:	push   0x0
  4013f6:	xor    DWORD PTR [esp],0x89e6ba79
  4013fd:	pop    ebx
  4013fe:	sub    ebx,0x89a67a45
  401404:	push   DWORD PTR [ebx]
  401406:	sub    DWORD PTR [esp],0x2
  40140a:	mov    ebx,0x404008
  40140f:	pop    DWORD PTR [ebx]
  401411:	mov    eax,ds:0x404008
  401416:	call   eax
  401418:	xchg   DWORD PTR [esp],eax
  40141b:	pop    DWORD PTR [eax+0x20c]
  401421:	mov    edi,DWORD PTR [eax+0x20c]
  401427:	mov    ebx,edi
  401429:	sub    edi,edi
  40142b:	dec    edi
  40142c:	and    edi,0x4029d2
  401432:	mov    ecx,0x7a89d45a
  401437:	mov    esi,0x6b4
  40143c:	mov    edx,ecx
  40143e:	xor    edx,DWORD PTR [edi]
  401440:	push   edx
  401441:	sub    edx,edx
  401443:	sub    DWORD PTR [esp],0x1
  401447:	pop    DWORD PTR [ebx+edx*2]
  40144a:	push   0x1
  40144c:	sub    DWORD PTR [esp],ecx
  40144f:	mov    ecx,0xfffffffc
  401454:	sub    edi,ecx
  401456:	sub    ebx,ecx
  401458:	pop    ecx
  401459:	sub    esi,0x4
  40145c:	test   esi,esi
  40145e:	jne    0x40143c
  401460:	push   eax
  401461:	mov    eax,ds:0x40404c
  401466:	call   eax
  401468:	pop    eax
  401469:	sub    esp,0xffffffd0
  40146c:	pop    ebp
  40146d:	ret    
	...
  4014be:	add    BYTE PTR [eax],al
  4014c0:	mov    edi,edi
  4014c2:	push   ebp
  4014c3:	mov    ebp,esp
  4014c5:	sub    esp,0x28
  4014c8:	push   eax
  4014c9:	push   ebx
  4014ca:	push   DWORD PTR [eax+0x23c]
  4014d0:	push   ecx
  4014d1:	call   0x402288
  4014d6:	add    esp,0xc
  4014d9:	pop    eax
  4014da:	push   eax
  4014db:	mov    edi,0x0
  4014e0:	push   edi
  4014e1:	mov    eax,ds:0x404044
  4014e6:	call   eax
  4014e8:	pop    eax
  4014e9:	push   eax
  4014ea:	push   0x0
  4014ec:	mov    eax,ds:0x404040
  4014f1:	call   eax
  4014f3:	pop    eax
  4014f4:	sub    esp,0xffffffd8
  4014f7:	mov    ebp,DWORD PTR [esp]
  4014fa:	add    esp,0x4
  4014fd:	ret    
	...
  40154e:	add    BYTE PTR [eax],al
  401550:	mov    edi,edi
  401552:	push   ebp
  401553:	mov    ebp,esp
  401555:	sub    esp,0x40
  401558:	push   eax
  401559:	push   DWORD PTR [eax+0x370]
  40155f:	push   ecx
  401560:	push   esi
  401561:	call   0x4012b8
  401566:	add    esp,0xc
  401569:	pop    eax
  40156a:	push   eax
  40156b:	push   0x0
  40156d:	mov    eax,ds:0x40407c
  401572:	call   eax
  401574:	pop    eax
  401575:	push   eax
  401576:	push   0x0
  401578:	mov    eax,ds:0x404044
  40157d:	call   eax
  40157f:	pop    eax
  401580:	sub    esp,0xffffffc0
  401583:	mov    ebp,DWORD PTR [esp]
  401586:	add    esp,0x4
  401589:	ret    
  40158a:	add    BYTE PTR [eax],al
  40158c:	mov    edi,edi
  40158e:	push   ebp
  40158f:	mov    ebp,esp
  401591:	sub    esp,0x40
  401594:	push   eax
  401595:	mov    eax,ds:0x404048
  40159a:	call   eax
  40159c:	pop    eax
  40159d:	push   eax
  40159e:	push   edx
  40159f:	push   DWORD PTR [eax+0x1c4]
  4015a5:	push   DWORD PTR [eax+0x3b0]
  4015ab:	push   DWORD PTR [eax+0x134]
  4015b1:	call   0x401000
  4015b6:	add    esp,0x10
  4015b9:	pop    eax
  4015ba:	push   eax
  4015bb:	push   0x0
  4015bd:	mov    eax,ds:0x404068
  4015c2:	call   eax
  4015c4:	pop    eax
  4015c5:	sub    esp,0xffffffc0
  4015c8:	mov    ebp,DWORD PTR [esp]
  4015cb:	add    esp,0x4
  4015ce:	ret    
  4015cf:	add    BYTE PTR [ebx-0x1374aa01],cl
  4015d5:	sub    esp,0x3c
  4015d8:	push   eax
  4015d9:	mov    eax,ds:0x404048
  4015de:	call   eax
  4015e0:	pop    eax
  4015e1:	push   eax
  4015e2:	push   esi
  4015e3:	push   ecx
  4015e4:	push   DWORD PTR [eax+0x1a8]
  4015ea:	call   0x4018d0
  4015ef:	add    esp,0xc
  4015f2:	pop    eax
  4015f3:	push   eax
  4015f4:	mov    eax,ds:0x40403c
  4015f9:	call   eax
  4015fb:	pop    eax
  4015fc:	sub    esp,0xffffffc4
  4015ff:	mov    ebp,DWORD PTR [esp]
  401602:	add    esp,0x4
  401605:	ret    
	...
  401656:	add    BYTE PTR [eax],al
  401658:	mov    edi,edi
  40165a:	push   ebp
  40165b:	mov    ebp,esp
  40165d:	sub    esp,0x50
  401660:	push   eax
  401661:	push   DWORD PTR [eax+0x1d8]
  401667:	push   esi
  401668:	push   edx
  401669:	call   0x40170c
  40166e:	add    esp,0xc
  401671:	pop    eax
  401672:	push   eax
  401673:	push   0x0
  401675:	mov    eax,ds:0x404068
  40167a:	call   eax
  40167c:	pop    eax
  40167d:	push   eax
  40167e:	push   0x0
  401680:	mov    eax,ds:0x404014
  401685:	call   eax
  401687:	pop    eax
  401688:	sub    esp,0xffffffb0
  40168b:	mov    ebp,DWORD PTR [esp]
  40168e:	add    esp,0x4
  401691:	ret    
  401692:	add    BYTE PTR [eax],al
  401694:	mov    edi,edi
  401696:	push   ebp
  401697:	mov    ebp,esp
  401699:	sub    esp,0x40
  40169c:	push   eax
  40169d:	push   DWORD PTR [eax+0x2d8]
  4016a3:	push   ecx
  4016a4:	push   edi
  4016a5:	push   esi
  4016a6:	call   0x40158c
  4016ab:	add    esp,0x10
  4016ae:	pop    eax
  4016af:	push   eax
  4016b0:	push   0x0
  4016b2:	mov    eax,ds:0x404044
  4016b7:	call   eax
  4016b9:	pop    eax
  4016ba:	push   eax
  4016bb:	mov    edx,0x0
  4016c0:	push   edx
  4016c1:	mov    eax,ds:0x404070
  4016c6:	call   eax
  4016c8:	pop    eax
  4016c9:	sub    esp,0xffffffc0
  4016cc:	mov    ebp,DWORD PTR [esp]
  4016cf:	add    esp,0x4
  4016d2:	ret    
  4016d3:	add    BYTE PTR [ebx-0x1374aa01],cl
  4016d9:	sub    esp,0x34
  4016dc:	push   eax
  4016dd:	push   DWORD PTR [eax+0x38]
  4016e0:	push   edi
  4016e1:	push   DWORD PTR [eax+0x18]
  4016e4:	call   0x401a74
  4016e9:	add    esp,0xc
  4016ec:	pop    eax
  4016ed:	push   eax
  4016ee:	push   0x0
  4016f0:	mov    eax,ds:0x40407c
  4016f5:	call   eax
  4016f7:	pop    eax
  4016f8:	push   eax
  4016f9:	mov    eax,ds:0x404048
  4016fe:	call   eax
  401700:	pop    eax
  401701:	sub    esp,0xffffffcc
  401704:	mov    ebp,DWORD PTR [esp]
  401707:	add    esp,0x4
  40170a:	ret    
  40170b:	add    BYTE PTR [ebx-0x1374aa01],cl
  401711:	sub    esp,0x50
  401714:	push   eax
  401715:	mov    ecx,0x0
  40171a:	push   ecx
  40171b:	mov    eax,ds:0x404018
  401720:	call   eax
  401722:	pop    eax
  401723:	push   eax
  401724:	push   ebx
  401725:	push   ecx
  401726:	push   edx
  401727:	call   0x4017ec
  40172c:	add    esp,0xc
  40172f:	pop    eax
  401730:	push   eax
  401731:	mov    edi,0x0
  401736:	push   edi
  401737:	mov    eax,ds:0x404028
  40173c:	call   eax
  40173e:	pop    eax
  40173f:	sub    esp,0xffffffb0
  401742:	mov    ebp,DWORD PTR [esp]
  401745:	add    esp,0x4
  401748:	ret    
	...
  4017e9:	add    BYTE PTR [eax],al
  4017eb:	add    BYTE PTR [ebx-0x1374aa01],cl
  4017f1:	sub    esp,0x5c
  4017f4:	push   eax
  4017f5:	push   DWORD PTR [eax+0xec]
  4017fb:	push   DWORD PTR [eax+0x344]
  401801:	push   DWORD PTR [eax+0x4]
  401804:	push   esi
  401805:	call   0x4013dc
  40180a:	add    esp,0x10
  40180d:	pop    eax
  40180e:	push   eax
  40180f:	push   0x0
  401811:	mov    eax,ds:0x40402c
  401816:	call   eax
  401818:	pop    eax
  401819:	push   eax
  40181a:	push   0x0
  40181c:	mov    eax,ds:0x40400c
  401821:	call   eax
  401823:	pop    eax
  401824:	sub    esp,0xffffffa4
  401827:	mov    ebp,DWORD PTR [esp]
  40182a:	add    esp,0x4
  40182d:	ret    
  40182e:	add    BYTE PTR [eax],al
  401830:	pusha  
  401831:	xor    edx,edx
  401833:	push   edx
  401834:	call   DWORD PTR ds:0x40407c
  40183a:	mov    eax,0x404094
  40183f:	sub    eax,0x1
  401842:	push   0x0
  401844:	call   DWORD PTR [eax+0x1]
  401847:	xor    edx,edx
  401849:	add    edx,0x45e200
  40184f:	dec    dh
  401851:	push   edx
  401852:	lea    eax,[edx+0x10]
  401855:	add    BYTE PTR [eax],0x4
  401858:	push   edx
  401859:	call   DWORD PTR ds:0x404008
  40185f:	mov    ecx,eax
  401861:	mov    cl,0x3c
  401863:	mov    ecx,DWORD PTR [ecx]
  401865:	mov    ecx,DWORD PTR [eax+ecx*1+0x1c]
  401869:	ror    ecx,0xc
  40186c:	mov    eax,ecx
  40186e:	sub    al,0x10
  401870:	pop    eax
  401871:	jb     0x401094
  401877:	ja     0x40116c
  40187d:	ret    
	...
  4018ce:	add    BYTE PTR [eax],al
  4018d0:	mov    edi,edi
  4018d2:	push   ebp
  4018d3:	mov    ebp,esp
  4018d5:	sub    esp,0x2c
  4018d8:	push   eax
  4018d9:	mov    ecx,0x0
  4018de:	push   ecx
  4018df:	mov    eax,ds:0x404070
  4018e4:	call   eax
  4018e6:	pop    eax
  4018e7:	push   eax
  4018e8:	push   DWORD PTR [eax+0x220]
  4018ee:	push   DWORD PTR [eax+0x11c]
  4018f4:	push   ecx
  4018f5:	call   0x40243c
  4018fa:	add    esp,0xc
  4018fd:	pop    eax
  4018fe:	push   eax
  4018ff:	push   0x0
  401901:	mov    eax,ds:0x404070
  401906:	call   eax
  401908:	pop    eax
  401909:	sub    esp,0xffffffd4
  40190c:	mov    ebp,DWORD PTR [esp]
  40190f:	add    esp,0x4
  401912:	ret    
	...
  401963:	add    BYTE PTR [ebx-0x1374aa01],cl
  401969:	sub    esp,0x20
  40196c:	push   eax
  40196d:	mov    eax,ds:0x404048
  401972:	call   eax
  401974:	pop    eax
  401975:	push   eax
  401976:	push   ebx
  401977:	push   DWORD PTR [eax+0x1c8]
  40197d:	push   edi
  40197e:	push   esi
  40197f:	call   0x402908
  401984:	add    esp,0x10
  401987:	pop    eax
  401988:	push   eax
  401989:	push   0x0
  40198b:	mov    eax,ds:0x404040
  401990:	call   eax
  401992:	pop    eax
  401993:	sub    esp,0xffffffe0
  401996:	mov    ebp,DWORD PTR [esp]
  401999:	add    esp,0x4
  40199c:	ret    
  40199d:	add    BYTE PTR [eax],al
  40199f:	add    BYTE PTR [ebx-0x1374aa01],cl
  4019a5:	sub    esp,0x54
  4019a8:	push   eax
  4019a9:	mov    ebx,0x0
  4019ae:	push   ebx
  4019af:	mov    eax,ds:0x40402c
  4019b4:	call   eax
  4019b6:	pop    eax
  4019b7:	push   eax
  4019b8:	push   ecx
  4019b9:	push   DWORD PTR [eax+0x2dc]
  4019bf:	push   DWORD PTR [eax+0x228]
  4019c5:	call   0x402174
  4019ca:	add    esp,0xc
  4019cd:	pop    eax
  4019ce:	push   eax
  4019cf:	mov    eax,ds:0x404048
  4019d4:	call   eax
  4019d6:	pop    eax
  4019d7:	sub    esp,0xffffffac
  4019da:	mov    ebp,DWORD PTR [esp]
  4019dd:	add    esp,0x4
  4019e0:	ret    
  4019e1:	add    BYTE PTR [eax],al
  4019e3:	add    BYTE PTR [ebx-0x1374aa01],cl
  4019e9:	sub    esp,0x48
  4019ec:	push   eax
  4019ed:	push   0x0
  4019ef:	mov    eax,ds:0x40400c
  4019f4:	call   eax
  4019f6:	pop    eax
  4019f7:	push   eax
  4019f8:	push   DWORD PTR [eax+0x1ec]
  4019fe:	push   edx
  4019ff:	call   0x401bf4
  401a04:	add    esp,0x8
  401a07:	pop    eax
  401a08:	push   eax
  401a09:	mov    ecx,0x0
  401a0e:	push   ecx
  401a0f:	mov    eax,ds:0x404070
  401a14:	call   eax
  401a16:	pop    eax
  401a17:	sub    esp,0xffffffb8
  401a1a:	mov    ebp,DWORD PTR [esp]
  401a1d:	add    esp,0x4
  401a20:	ret    
	...
  401a71:	add    BYTE PTR [eax],al
  401a73:	add    BYTE PTR [ebx-0x1374aa01],cl
  401a79:	sub    esp,0x2c
  401a7c:	push   eax
  401a7d:	push   DWORD PTR [eax+0x378]
  401a83:	push   ebx
  401a84:	push   DWORD PTR [eax+0x2f4]
  401a8a:	push   DWORD PTR [eax+0x30c]
  401a90:	call   0x401394
  401a95:	add    esp,0x10
  401a98:	pop    eax
  401a99:	push   eax
  401a9a:	push   0x0
  401a9c:	mov    eax,ds:0x404068
  401aa1:	call   eax
  401aa3:	pop    eax
  401aa4:	push   eax
  401aa5:	mov    esi,0x0
  401aaa:	push   esi
  401aab:	mov    eax,ds:0x404004
  401ab0:	call   eax
  401ab2:	pop    eax
  401ab3:	sub    esp,0xffffffd4
  401ab6:	mov    ebp,DWORD PTR [esp]
  401ab9:	add    esp,0x4
  401abc:	ret    
	...
  401b5d:	add    BYTE PTR [eax],al
  401b5f:	add    BYTE PTR [ebx-0x1374aa01],cl
  401b65:	sub    esp,0x58
  401b68:	push   eax
  401b69:	push   DWORD PTR [eax+0x350]
  401b6f:	push   ebx
  401b70:	push   DWORD PTR [eax+0x13c]
  401b76:	call   0x4011b4
  401b7b:	add    esp,0xc
  401b7e:	pop    eax
  401b7f:	push   eax
  401b80:	mov    eax,ds:0x40403c
  401b85:	call   eax
  401b87:	pop    eax
  401b88:	push   eax
  401b89:	mov    ecx,0x0
  401b8e:	push   ecx
  401b8f:	mov    eax,ds:0x40407c
  401b94:	call   eax
  401b96:	pop    eax
  401b97:	sub    esp,0xffffffa8
  401b9a:	mov    ebp,DWORD PTR [esp]
  401b9d:	add    esp,0x4
  401ba0:	ret    
	...
  401bf1:	add    BYTE PTR [eax],al
  401bf3:	add    BYTE PTR [ebx-0x1374aa01],cl
  401bf9:	sub    esp,0x5c
  401bfc:	push   eax
  401bfd:	mov    eax,ds:0x404048
  401c02:	call   eax
  401c04:	pop    eax
  401c05:	push   eax
  401c06:	push   DWORD PTR [eax+0x198]
  401c0c:	push   DWORD PTR [eax+0xcc]
  401c12:	push   DWORD PTR [eax+0x298]
  401c18:	push   ebx
  401c19:	call   0x401694
  401c1e:	add    esp,0x10
  401c21:	pop    eax
  401c22:	push   eax
  401c23:	mov    ebx,0x0
  401c28:	push   ebx
  401c29:	mov    eax,ds:0x40402c
  401c2e:	call   eax
  401c30:	pop    eax
  401c31:	sub    esp,0xffffffa4
  401c34:	mov    ebp,DWORD PTR [esp]
  401c37:	add    esp,0x4
  401c3a:	ret    
	...
  401c8b:	add    BYTE PTR [ebx-0x1374aa01],cl
  401c91:	sub    esp,0x40
  401c94:	push   eax
  401c95:	push   DWORD PTR [eax+0x2c]
  401c98:	push   ebx
  401c99:	call   0x401cc8
  401c9e:	add    esp,0x8
  401ca1:	pop    eax
  401ca2:	push   eax
  401ca3:	mov    ebx,0x0
  401ca8:	push   ebx
  401ca9:	mov    eax,ds:0x404004
  401cae:	call   eax
  401cb0:	pop    eax
  401cb1:	push   eax
  401cb2:	push   0x0
  401cb4:	mov    eax,ds:0x404068
  401cb9:	call   eax
  401cbb:	pop    eax
  401cbc:	sub    esp,0xffffffc0
  401cbf:	mov    ebp,DWORD PTR [esp]
  401cc2:	add    esp,0x4
  401cc5:	ret    
  401cc6:	add    BYTE PTR [eax],al
  401cc8:	mov    edi,edi
  401cca:	push   ebp
  401ccb:	mov    ebp,esp
  401ccd:	sub    esp,0x48
  401cd0:	push   eax
  401cd1:	push   edx
  401cd2:	push   DWORD PTR [eax+0x33c]
  401cd8:	call   0x40112c
  401cdd:	add    esp,0x8
  401ce0:	pop    eax
  401ce1:	push   eax
  401ce2:	lea    ebx,[eax-0x100]
  401ce8:	push   ebx
  401ce9:	mov    eax,ds:0x40401c
  401cee:	call   eax
  401cf0:	test   eax,eax
  401cf2:	jne    0x401ce2
  401cf4:	pop    eax
  401cf5:	push   eax
  401cf6:	mov    esi,0x0
  401cfb:	push   esi
  401cfc:	mov    eax,ds:0x40407c
  401d01:	call   eax
  401d03:	pop    eax
  401d04:	sub    esp,0xffffffb8
  401d07:	mov    ebp,DWORD PTR [esp]
  401d0a:	add    esp,0x4
  401d0d:	ret    
	...
  401e4e:	add    BYTE PTR [eax],al
  401e50:	mov    edi,edi
  401e52:	push   ebp
  401e53:	mov    ebp,esp
  401e55:	sub    esp,0x24
  401e58:	push   eax
  401e59:	lea    esi,[eax-0x100]
  401e5f:	push   esi
  401e60:	mov    eax,ds:0x40401c
  401e65:	call   eax
  401e67:	test   eax,eax
  401e69:	jne    0x401e59
  401e6b:	pop    eax
  401e6c:	push   eax
  401e6d:	push   DWORD PTR [eax+0x37c]
  401e73:	push   edx
  401e74:	push   ebx
  401e75:	call   0x401b60
  401e7a:	add    esp,0xc
  401e7d:	pop    eax
  401e7e:	push   eax
  401e7f:	mov    edi,0x0
  401e84:	push   edi
  401e85:	mov    eax,ds:0x404068
  401e8a:	call   eax
  401e8c:	pop    eax
  401e8d:	sub    esp,0xffffffdc
  401e90:	mov    ebp,DWORD PTR [esp]
  401e93:	add    esp,0x4
  401e96:	ret    
	...
  401ee7:	add    BYTE PTR [ebx-0x1374aa01],cl
  401eed:	sub    esp,0x24
  401ef0:	push   eax
  401ef1:	mov    eax,ds:0x40404c
  401ef6:	call   eax
  401ef8:	pop    eax
  401ef9:	push   eax
  401efa:	push   DWORD PTR [eax+0x1ac]
  401f00:	push   DWORD PTR [eax+0x348]
  401f06:	push   esi
  401f07:	call   0x4027a8
  401f0c:	add    esp,0xc
  401f0f:	pop    eax
  401f10:	push   eax
  401f11:	push   0x0
  401f13:	mov    eax,ds:0x404014
  401f18:	call   eax
  401f1a:	pop    eax
  401f1b:	sub    esp,0xffffffdc
  401f1e:	mov    ebp,DWORD PTR [esp]
  401f21:	add    esp,0x4
  401f24:	ret    
	...
  401fc5:	add    BYTE PTR [eax],al
  401fc7:	add    BYTE PTR [ebx-0x1374aa01],cl
  401fcd:	sub    esp,0x5c
  401fd0:	push   eax
  401fd1:	lea    eax,[eax-0x100]
  401fd7:	push   eax
  401fd8:	mov    eax,ds:0x40401c
  401fdd:	call   eax
  401fdf:	test   eax,eax
  401fe1:	jne    0x401fd1
  401fe3:	pop    eax
  401fe4:	push   eax
  401fe5:	push   edx
  401fe6:	push   ebx
  401fe7:	push   esi
  401fe8:	call   0x402678
  401fed:	add    esp,0xc
  401ff0:	pop    eax
  401ff1:	push   eax
  401ff2:	mov    ecx,0x0
  401ff7:	push   ecx
  401ff8:	mov    eax,ds:0x404040
  401ffd:	call   eax
  401fff:	pop    eax
  402000:	sub    esp,0xffffffa4
  402003:	mov    ebp,DWORD PTR [esp]
  402006:	add    esp,0x4
  402009:	ret    
  40200a:	add    BYTE PTR [eax],al
  40200c:	mov    edi,edi
  40200e:	push   ebp
  40200f:	mov    ebp,esp
  402011:	sub    esp,0x5c
  402014:	push   eax
  402015:	mov    eax,ds:0x404048
  40201a:	call   eax
  40201c:	pop    eax
  40201d:	push   eax
  40201e:	push   DWORD PTR [eax+0x3c8]
  402024:	push   edi
  402025:	call   0x401c8c
  40202a:	add    esp,0x8
  40202d:	pop    eax
  40202e:	push   eax
  40202f:	mov    ebx,0x0
  402034:	push   ebx
  402035:	mov    eax,ds:0x404028
  40203a:	call   eax
  40203c:	pop    eax
  40203d:	sub    esp,0xffffffa4
  402040:	mov    ebp,DWORD PTR [esp]
  402043:	add    esp,0x4
  402046:	ret    
	...
  402137:	add    BYTE PTR [ebx-0x1374aa01],cl
  40213d:	sub    esp,0x20
  402140:	push   eax
  402141:	push   DWORD PTR [eax+0x328]
  402147:	push   DWORD PTR [eax+0x270]
  40214d:	call   0x401fc8
  402152:	add    esp,0x8
  402155:	pop    eax
  402156:	push   eax
  402157:	mov    eax,ds:0x40404c
  40215c:	call   eax
  40215e:	pop    eax
  40215f:	push   eax
  402160:	mov    eax,ds:0x40404c
  402165:	call   eax
  402167:	pop    eax
  402168:	sub    esp,0xffffffe0
  40216b:	mov    ebp,DWORD PTR [esp]
  40216e:	add    esp,0x4
  402171:	ret    
  402172:	add    BYTE PTR [eax],al
  402174:	mov    edi,edi
  402176:	push   ebp
  402177:	mov    ebp,esp
  402179:	sub    esp,0x50
  40217c:	push   eax
  40217d:	push   0x0
  40217f:	mov    eax,ds:0x404068
  402184:	call   eax
  402186:	pop    eax
  402187:	push   eax
  402188:	push   DWORD PTR [eax+0x340]
  40218e:	push   DWORD PTR [eax+0x198]
  402194:	call   0x402484
  402199:	add    esp,0x8
  40219c:	pop    eax
  40219d:	push   eax
  40219e:	push   0x0
  4021a0:	mov    eax,ds:0x404014
  4021a5:	call   eax
  4021a7:	pop    eax
  4021a8:	sub    esp,0xffffffb0
  4021ab:	mov    ebp,DWORD PTR [esp]
  4021ae:	add    esp,0x4
  4021b1:	ret    
	...
  402202:	add    BYTE PTR [eax],al
  402204:	mov    edi,edi
  402206:	push   ebp
  402207:	mov    ebp,esp
  402209:	sub    esp,0x60
  40220c:	push   eax
  40220d:	push   DWORD PTR [eax+0x344]
  402213:	push   DWORD PTR [eax+0x18]
  402216:	push   ebx
  402217:	push   DWORD PTR [eax+0x18c]
  40221d:	call   0x402318
  402222:	add    esp,0x10
  402225:	pop    eax
  402226:	push   eax
  402227:	mov    eax,ds:0x40403c
  40222c:	call   eax
  40222e:	pop    eax
  40222f:	push   eax
  402230:	mov    edx,0x0
  402235:	push   edx
  402236:	mov    eax,ds:0x404068
  40223b:	call   eax
  40223d:	pop    eax
  40223e:	sub    esp,0xffffffa0
  402241:	mov    ebp,DWORD PTR [esp]
  402244:	add    esp,0x4
  402247:	ret    
  402248:	mov    edi,edi
  40224a:	push   ebp
  40224b:	mov    ebp,esp
  40224d:	sub    esp,0x40
  402250:	push   eax
  402251:	push   0x0
  402253:	mov    eax,ds:0x40407c
  402258:	call   eax
  40225a:	pop    eax
  40225b:	push   eax
  40225c:	push   DWORD PTR [eax+0x19c]
  402262:	push   DWORD PTR [eax+0x144]
  402268:	push   ecx
  402269:	call   0x4014c0
  40226e:	add    esp,0xc
  402271:	pop    eax
  402272:	push   eax
  402273:	mov    eax,ds:0x40403c
  402278:	call   eax
  40227a:	pop    eax
  40227b:	sub    esp,0xffffffc0
  40227e:	mov    ebp,DWORD PTR [esp]
  402281:	add    esp,0x4
  402284:	ret    
  402285:	add    BYTE PTR [eax],al
  402287:	add    BYTE PTR [ebx-0x1374aa01],cl
  40228d:	sub    esp,0x28
  402290:	push   eax
  402291:	mov    eax,ds:0x40403c
  402296:	call   eax
  402298:	pop    eax
  402299:	push   eax
  40229a:	push   ebx
  40229b:	push   ebx
  40229c:	push   ecx
  40229d:	push   DWORD PTR [eax+0x194]
  4022a3:	call   0x4025a4
  4022a8:	add    esp,0x10
  4022ab:	pop    eax
  4022ac:	push   eax
  4022ad:	mov    esi,0x0
  4022b2:	push   esi
  4022b3:	mov    eax,ds:0x40402c
  4022b8:	call   eax
  4022ba:	pop    eax
  4022bb:	sub    esp,0xffffffd8
  4022be:	mov    ebp,DWORD PTR [esp]
  4022c1:	add    esp,0x4
  4022c4:	ret    
	...
  402315:	add    BYTE PTR [eax],al
  402317:	add    BYTE PTR [ebx-0x1374aa01],cl
  40231d:	sub    esp,0x38
  402320:	push   eax
  402321:	push   esi
  402322:	push   ecx
  402323:	push   DWORD PTR [eax+0x298]
  402329:	push   DWORD PTR [eax+0x90]
  40232f:	call   0x4011f8
  402334:	add    esp,0x10
  402337:	pop    eax
  402338:	push   eax
  402339:	push   0x0
  40233b:	mov    eax,ds:0x404014
  402340:	call   eax
  402342:	pop    eax
  402343:	push   eax
  402344:	mov    eax,ds:0x40404c
  402349:	call   eax
  40234b:	pop    eax
  40234c:	sub    esp,0xffffffc8
  40234f:	mov    ebp,DWORD PTR [esp]
  402352:	add    esp,0x4
  402355:	ret    
	...
  4023a6:	add    BYTE PTR [eax],al
  4023a8:	mov    edi,edi
  4023aa:	push   ebp
  4023ab:	mov    ebp,esp
  4023ad:	sub    esp,0x2c
  4023b0:	push   eax
  4023b1:	push   DWORD PTR [eax+0x138]
  4023b7:	push   DWORD PTR [eax+0x388]
  4023bd:	push   ecx
  4023be:	push   edi
  4023bf:	call   0x402204
  4023c4:	add    esp,0x10
  4023c7:	pop    eax
  4023c8:	push   eax
  4023c9:	mov    eax,ds:0x40403c
  4023ce:	call   eax
  4023d0:	pop    eax
  4023d1:	push   eax
  4023d2:	mov    ebx,0x0
  4023d7:	push   ebx
  4023d8:	mov    eax,ds:0x404028
  4023dd:	call   eax
  4023df:	pop    eax
  4023e0:	sub    esp,0xffffffd4
  4023e3:	mov    ebp,DWORD PTR [esp]
  4023e6:	add    esp,0x4
  4023e9:	ret    
	...
  40243a:	add    BYTE PTR [eax],al
  40243c:	mov    edi,edi
  40243e:	push   ebp
  40243f:	mov    ebp,esp
  402441:	sub    esp,0x28
  402444:	push   eax
  402445:	push   DWORD PTR [eax+0x1d4]
  40244b:	push   DWORD PTR [eax+0x80]
  402451:	call   0x402638
  402456:	add    esp,0x8
  402459:	pop    eax
  40245a:	push   eax
  40245b:	mov    ecx,0x0
  402460:	push   ecx
  402461:	mov    eax,ds:0x40407c
  402466:	call   eax
  402468:	pop    eax
  402469:	push   eax
  40246a:	mov    edx,0x0
  40246f:	push   edx
  402470:	mov    eax,ds:0x404068
  402475:	call   eax
  402477:	pop    eax
  402478:	sub    esp,0xffffffd8
  40247b:	mov    ebp,DWORD PTR [esp]
  40247e:	add    esp,0x4
  402481:	ret    
  402482:	add    BYTE PTR [eax],al
  402484:	mov    edi,edi
  402486:	push   ebp
  402487:	mov    ebp,esp
  402489:	sub    esp,0x5c
  40248c:	push   eax
  40248d:	push   0x0
  40248f:	mov    eax,ds:0x404068
  402494:	call   eax
  402496:	pop    eax
  402497:	push   eax
  402498:	push   DWORD PTR [eax+0x2cc]
  40249e:	push   ebx
  40249f:	call   0x4028d0
  4024a4:	add    esp,0x8
  4024a7:	pop    eax
  4024a8:	push   eax
  4024a9:	mov    ebx,0x0
  4024ae:	push   ebx
  4024af:	mov    eax,ds:0x404044
  4024b4:	call   eax
  4024b6:	pop    eax
  4024b7:	sub    esp,0xffffffa4
  4024ba:	mov    ebp,DWORD PTR [esp]
  4024bd:	add    esp,0x4
  4024c0:	ret    
  4024c1:	add    BYTE PTR [eax],al
  4024c3:	add    BYTE PTR [ebx-0x1374aa01],cl
  4024c9:	sub    esp,0x40
  4024cc:	push   eax
  4024cd:	push   0x0
  4024cf:	mov    eax,ds:0x404070
  4024d4:	call   eax
  4024d6:	pop    eax
  4024d7:	push   eax
  4024d8:	push   DWORD PTR [eax+0x1a8]
  4024de:	push   ecx
  4024df:	push   DWORD PTR [eax+0x304]
  4024e5:	call   0x402138
  4024ea:	add    esp,0xc
  4024ed:	pop    eax
  4024ee:	push   eax
  4024ef:	mov    eax,ds:0x40403c
  4024f4:	call   eax
  4024f6:	pop    eax
  4024f7:	sub    esp,0xffffffc0
  4024fa:	mov    ebp,DWORD PTR [esp]
  4024fd:	add    esp,0x4
  402500:	ret    
	...
  4025a1:	add    BYTE PTR [eax],al
  4025a3:	add    BYTE PTR [ebx-0x1374aa01],cl
  4025a9:	sub    esp,0x40
  4025ac:	push   eax
  4025ad:	push   DWORD PTR [eax+0x3d8]
  4025b3:	push   DWORD PTR [eax+0x214]
  4025b9:	call   0x4023a8
  4025be:	add    esp,0x8
  4025c1:	pop    eax
  4025c2:	push   eax
  4025c3:	push   0x0
  4025c5:	mov    eax,ds:0x40407c
  4025ca:	call   eax
  4025cc:	pop    eax
  4025cd:	push   eax
  4025ce:	mov    edx,0x0
  4025d3:	push   edx
  4025d4:	mov    eax,ds:0x404044
  4025d9:	call   eax
  4025db:	pop    eax
  4025dc:	sub    esp,0xffffffc0
  4025df:	mov    ebp,DWORD PTR [esp]
  4025e2:	add    esp,0x4
  4025e5:	ret    
	...
  402636:	add    BYTE PTR [eax],al
  402638:	mov    edi,edi
  40263a:	push   ebp
  40263b:	mov    ebp,esp
  40263d:	sub    esp,0x50
  402640:	push   eax
  402641:	push   DWORD PTR [eax+0x1d4]
  402647:	push   DWORD PTR [eax+0x280]
  40264d:	call   0x4019a0
  402652:	add    esp,0x8
  402655:	pop    eax
  402656:	push   eax
  402657:	push   0x0
  402659:	mov    eax,ds:0x40407c
  40265e:	call   eax
  402660:	pop    eax
  402661:	push   eax
  402662:	push   0x0
  402664:	mov    eax,ds:0x404044
  402669:	call   eax
  40266b:	pop    eax
  40266c:	sub    esp,0xffffffb0
  40266f:	mov    ebp,DWORD PTR [esp]
  402672:	add    esp,0x4
  402675:	ret    
  402676:	add    BYTE PTR [eax],al
  402678:	mov    edi,edi
  40267a:	push   ebp
  40267b:	mov    ebp,esp
  40267d:	sub    esp,0x58
  402680:	push   eax
  402681:	mov    eax,ds:0x40403c
  402686:	call   eax
  402688:	pop    eax
  402689:	push   eax
  40268a:	push   ecx
  40268b:	push   ebx
  40268c:	push   DWORD PTR [eax+0x1c8]
  402692:	push   edx
  402693:	call   0x402248
  402698:	add    esp,0x10
  40269b:	pop    eax
  40269c:	push   eax
  40269d:	mov    ecx,0x0
  4026a2:	push   ecx
  4026a3:	mov    eax,ds:0x40402c
  4026a8:	call   eax
  4026aa:	pop    eax
  4026ab:	sub    esp,0xffffffa8
  4026ae:	mov    ebp,DWORD PTR [esp]
  4026b1:	add    esp,0x4
  4026b4:	ret    
	...
  4027a5:	add    BYTE PTR [eax],al
  4027a7:	add    BYTE PTR [ebx-0x1374aa01],cl
  4027ad:	sub    esp,0x5c
  4027b0:	push   eax
  4027b1:	mov    ebx,0x0
  4027b6:	push   ebx
  4027b7:	mov    eax,ds:0x404004
  4027bc:	call   eax
  4027be:	pop    eax
  4027bf:	push   eax
  4027c0:	push   esi
  4027c1:	push   DWORD PTR [eax+0x3f8]
  4027c7:	push   edi
  4027c8:	push   ebx
  4027c9:	call   0x4016d4
  4027ce:	add    esp,0x10
  4027d1:	pop    eax
  4027d2:	push   eax
  4027d3:	push   0x0
  4027d5:	mov    eax,ds:0x40400c
  4027da:	call   eax
  4027dc:	pop    eax
  4027dd:	sub    esp,0xffffffa4
  4027e0:	mov    ebp,DWORD PTR [esp]
  4027e3:	add    esp,0x4
  4027e6:	ret    
  4027e7:	add    BYTE PTR [ebx-0x1374aa01],cl
  4027ed:	sub    esp,0x30
  4027f0:	push   eax
  4027f1:	push   DWORD PTR [eax+0x2c]
  4027f4:	push   DWORD PTR [eax+0x218]
  4027fa:	push   DWORD PTR [eax+0x2d0]
  402800:	call   0x401284
  402805:	add    esp,0xc
  402808:	pop    eax
  402809:	push   eax
  40280a:	mov    ecx,0x0
  40280f:	push   ecx
  402810:	mov    eax,ds:0x404004
  402815:	call   eax
  402817:	pop    eax
  402818:	push   eax
  402819:	push   0x0
  40281b:	mov    eax,ds:0x404028
  402820:	call   eax
  402822:	pop    eax
  402823:	sub    esp,0xffffffd0
  402826:	mov    ebp,DWORD PTR [esp]
  402829:	add    esp,0x4
  40282c:	ret    
	...
  4028cd:	add    BYTE PTR [eax],al
  4028cf:	add    BYTE PTR [ebx-0x1374aa01],cl
  4028d5:	sub    esp,0x58
  4028d8:	push   eax
  4028d9:	push   edi
  4028da:	push   edi
  4028db:	call   0x401550
  4028e0:	add    esp,0x8
  4028e3:	pop    eax
  4028e4:	push   eax
  4028e5:	mov    ebx,0x0
  4028ea:	push   ebx
  4028eb:	mov    eax,ds:0x40402c
  4028f0:	call   eax
  4028f2:	pop    eax
  4028f3:	push   eax
  4028f4:	push   0x0
  4028f6:	mov    eax,ds:0x404044
  4028fb:	call   eax
  4028fd:	pop    eax
  4028fe:	sub    esp,0xffffffa8
  402901:	mov    ebp,DWORD PTR [esp]
  402904:	add    esp,0x4
  402907:	ret    
  402908:	mov    edi,edi
  40290a:	push   ebp
  40290b:	mov    ebp,esp
  40290d:	sub    esp,0x20
  402910:	push   eax
  402911:	mov    ecx,0x0
  402916:	push   ecx
  402917:	mov    eax,ds:0x40402c
  40291c:	call   eax
  40291e:	pop    eax
  40291f:	push   eax
  402920:	push   DWORD PTR [eax+0x88]
  402926:	push   DWORD PTR [eax+0x214]
  40292c:	push   DWORD PTR [eax+0x39c]
  402932:	call   0x401ee8
  402937:	add    esp,0xc
  40293a:	pop    eax
  40293b:	push   eax
  40293c:	mov    eax,ds:0x404048
  402941:	call   eax
  402943:	pop    eax
  402944:	sub    esp,0xffffffe0
  402947:	mov    ebp,DWORD PTR [esp]
  40294a:	add    esp,0x4
  40294d:	ret    
	...
  40299e:	add    BYTE PTR [eax],al
  4029a0:	ss in  eax,0xe1
  4029a3:	and    dh,BYTE PTR [edi+eax*8]
  4029a6:	jbe    0x4029f0
  4029a8:	jle    0x402a1c
  4029aa:	outs   dx,DWORD PTR ds:[esi]
  4029ab:	xchg   edi,eax
  4029ac:	dec    ebp
  4029ad:	mov    fs,WORD PTR [edi+0x28]
  4029b0:	xor    bh,BYTE PTR [ebx]
  4029b2:	add    eax,0xefc70e69
  4029b7:	sbb    BYTE PTR [edi-0x4c],al
  4029ba:	or     dh,ah
  4029bc:	mov    edx,0x2b58d890
  4029c1:	sub    eax,0xd2ba1518
  4029c6:	and    ebp,DWORD PTR [edi-0x687e25ae]
  4029cc:	cmp    DWORD PTR [esi+0x10],eax
  4029cf:	sub    al,0xfe
  4029d1:	les    ecx,FWORD PTR [ebx]
  4029d3:	mov    ecx,ds
  4029d5:	and    cl,BYTE PTR [esi+0x2d]
  4029d8:	jbe    0x40295f
  4029da:	pop    ebx
  4029db:	aad    0xfe
  4029dd:	and    esi,eax
  4029df:	cmps   BYTE PTR ds:[esi],BYTE PTR es:[edi]
  4029e0:	xor    ebx,esp
  4029e2:	jbe    0x402a01
  4029e4:	or     bh,BYTE PTR [ebx+0x67287ea3]
  4029ea:	movs   BYTE PTR es:[edi],BYTE PTR ds:[esi]
  4029eb:	push   edi
  4029ec:	dec    ebp
  4029ed:	mov    cs,WORD PTR [esi+0x26]
  4029f0:	jbe    0x402977
  4029f2:	pop    ebx
  4029f3:	push   esp
  4029f4:	mov    bl,0x6b
  4029f6:	dec    ebp
  4029f7:	dec    esi
  4029f8:	sbb    dh,BYTE PTR [esi+0x16edfa69]
  4029fe:	retf   0x2e2b
  402a01:	aad    0xd8
  402a03:	aam    0x42
  402a05:	push   eax
  402a06:	lds    ebp,FWORD PTR [esi+0xcd65389]
  402a0c:	mov    bh,BYTE PTR [ecx]
  402a0e:	call   0x8d54:0x5bd50eaa
  402a15:	jp     0x4029e7
  402a17:	add    BYTE PTR [esi-0x762ba389],bl
  402a1d:	daa    
  402a1e:	sub    ebx,esi
  402a20:	iret   
  402a21:	xchg   ebp,eax
  402a22:	pop    ebx
  402a23:	aam    0x89
  402a25:	xlat   BYTE PTR ds:[ebx]
  402a26:	dec    esi
  402a27:	fnstenv [ebp+eax*4+0x5b]
  402a2b:	pop    ebp
  402a2c:	iret   
  402a2d:	xchg   BYTE PTR [esi+ebx*8+0x1c],al
  402a31:	out    0x33,al
  402a33:	xchg   ebp,eax
  402a34:	in     eax,0x16
  402a36:	xlat   BYTE PTR ds:[ebx]
  402a37:	inc    ebx
  402a38:	ds loopne 0x402a73
  402a3b:	movs   BYTE PTR es:[edi],BYTE PTR ds:[esi]
  402a3c:	(bad)  [ecx]
  402a3e:	cmps   DWORD PTR ds:[esi],DWORD PTR es:[edi]
  402a3f:	jge    0x402abf
  402a41:	or     al,0x5d
  402a43:	mov    esi,0x59e01289
  402a48:	adc    esp,eax
  402a4a:	xor    ebx,DWORD PTR [esp+ebp*8+0x257fd61b]
  402a51:	jp     0x402a5f
  402a53:	fadd   QWORD PTR [eax]
  402a55:	cmp    al,0xa2
  402a57:	test   al,0xb2
  402a59:	popf   
  402a5a:	xor    DWORD PTR [ecx+eiz*8+0x762bb67a],edx
  402a61:	in     eax,dx
  402a62:	call   edx
  402a64:	mov    DWORD PTR [edx-0x34],edi
  402a67:	sub    ecx,DWORD PTR [ecx+0x715f4bd0]
  402a6d:	jg     0x402a76
  402a6f:	sub    esi,DWORD PTR [esi-0x7b]
  402a72:	or     ebx,DWORD PTR [ecx+0x3c]
  402a75:	stos   BYTE PTR es:[edi],al
  402a76:	pop    ebp
  402a77:	aam    0x89
  402a79:	cmp    al,0xff
  402a7b:	ror    BYTE PTR [ecx-0x4a70ac86],cl
  402a81:	ins    DWORD PTR es:[edi],dx
  402a82:	rcl    cl,1
  402a84:	mov    DWORD PTR [edx-0x7],edi
  402a87:	jne    0x402a7a
  402a89:	mov    cl,0x7f
  402a8b:	and    BYTE PTR [ecx-0x7d],0xa2
  402a8f:	sub    esi,DWORD PTR [esi+0x6d]
  402a92:	(bad)  
  402a94:	mov    DWORD PTR [edx+0x2b],edi
  402a97:	rcr    DWORD PTR [eax*4+0xf76d431],cl
  402a9e:	ret    0x897c
  402aa1:	shl    BYTE PTR [ebx+0x5f],1
  402aa4:	les    edx,FWORD PTR [edx]
  402aa6:	int3   
  402aa7:	sub    esp,DWORD PTR [edx]
  402aa9:	fstp   QWORD PTR [edx-0x1f]
  402aac:	lods   eax,DWORD PTR ds:[esi]
  402aad:	sub    dh,ch
  402aaf:	jge    0x402ad2
  402ab1:	jp     0x402abf
  402ab3:	clc    
  402ab4:	shr    DWORD PTR ds:0x6d6e7da7,1
  402aba:	jo     0x402a93
  402abc:	mov    DWORD PTR [edx+0x2b],edi
  402abf:	ins    DWORD PTR es:[edi],dx
  402ac0:	dec    edx
  402ac1:	or     BYTE PTR [edi-0x2e],bl
  402ac4:	out    dx,eax
  402ac5:	(bad)  
  402ac6:	out    0x3d,al
  402ac8:	jbe    0x402a6f
  402aca:	sub    al,0xc2
  402acc:	mov    al,0x22
  402ace:	xchg   edx,eax
  402acf:	pop    edi
  402ad0:	addr16 push cs
  402ad2:	add    esp,eax
  402ad4:	jecxz  0x402b54
  402ad6:	into   
  402ad7:	sub    eax,DWORD PTR [esi-0x7b]
  402ada:	pop    ebx
  402adb:	sub    edi,ecx
  402add:	sub    dh,bl
  402adf:	aam    0x23
  402ae1:	xchg   ebp,eax
  402ae2:	(bad)  
  402ae3:	test   eax,0x41f22ae5
  402ae8:	jb     0x402abc
  402aea:	push   cs
  402aeb:	sub    ebx,esp
  402aed:	jbe    0x402ae1
  402aef:	inc    ecx
  402af0:	je     0x402ac4
  402af2:	push   cs
  402af3:	add    BYTE PTR [edx],0xb5
  402af6:	sub    edx,eax
  402af8:	test   DWORD PTR [ecx],esp
  402afa:	add    eax,0xfe76dc2b
  402aff:	mov    al,ds:0xe81086b8
  402b04:	add    al,0x3
  402b06:	mov    esi,0x4aa521a0
  402b0b:	arpl   ax,cx
  402b0d:	outs   dx,BYTE PTR ds:[esi]
  402b0e:	mov    ds:0x103279d3,eax
  402b13:	shr    cl,cl
  402b15:	icebp  
  402b16:	out    dx,eax
  402b17:	aas    
  402b18:	repz inc ebp
  402b1a:	das    
  402b1b:	xchg   ebp,eax
  402b1c:	add    bh,BYTE PTR ds:0xf1b6aeae
  402b22:	popa   
  402b23:	cmp    al,0x18
  402b25:	jle    0x402acd
  402b27:	sub    edi,ebp
  402b29:	dec    ebp
  402b2a:	(bad)  
  402b2b:	xchg   ebx,eax
  402b2c:	lods   eax,DWORD PTR ds:[esi]
  402b2d:	xchg   edx,eax
  402b2e:	shr    DWORD PTR [ecx],1
  402b30:	jbe    0x402ab7
  402b32:	pop    esi
  402b33:	mov    ds:0x3bdf859d,eax
  402b38:	std    
  402b39:	cli    
  402b3a:	push   edi
  402b3b:	xlat   BYTE PTR ds:[ebx]
  402b3c:	jb     0x402b5f
  402b3e:	mul    BYTE PTR [eax-0x7af4285e]
  402b44:	fisubr WORD PTR [ebx]
  402b46:	hlt    
  402b47:	inc    ecx
  402b48:	jb     0x402b1e
  402b4a:	add    ch,BYTE PTR [ebx]
  402b4c:	fdiv   QWORD PTR [esi-0x3]
  402b4f:	sbb    BYTE PTR [esi-0x2981512e],dh
  402b55:	icebp  
  402b56:	imul   ebx,eax,0xffffffd2
  402b59:	jp     0x402b67
  402b5b:	fcom   st(1)
  402b5d:	sbb    esp,DWORD PTR [ebx]
  402b5f:	in     al,dx
  402b60:	pop    esi
  402b61:	addr16 call 0xa6bbada3
  402b67:	sub    ebx,DWORD PTR [esi-0x762ba4fc]
  402b6d:	and    cl,dh
  402b6f:	sub    esi,DWORD PTR [esi]
  402b71:	test   DWORD PTR [ebx+0x2b],ebx
  402b74:	cld    
  402b75:	adc    dh,al
  402b77:	mov    al,ds:0x3cab0e8d
  402b7c:	cmp    DWORD PTR [esi-0x5a],0x2b
  402b80:	adc    bh,BYTE PTR [edx+0x6c]
  402b83:	in     al,0x89
  402b85:	jp     0x402b2d
  402b87:	jae    0x402b86
  402b89:	lds    edx,FWORD PTR [edi+0x5f]
  402b8c:	leave  
  402b8d:	jbe    0x402b2c
  402b8f:	jae    0x402bff
  402b91:	icebp  
  402b92:	pop    edi
  402b93:	pop    edi
  402b94:	mov    DWORD PTR [ecx-0x5e855fa1],edx
  402b9a:	pop    esi
  402b9b:	popf   
  402b9c:	mov    ch,0xf1
  402b9e:	aad    0x3
  402ba0:	jne    0x402c14
  402ba2:	shr    BYTE PTR [ecx+edx*4+0x1037d6f3],1
  402ba9:	jb     0x402bc3
  402bab:	ret    0x5a89
  402bae:	shl    DWORD PTR [edi],1
  402bb0:	adc    ah,BYTE PTR [ebx+eax*2]
  402bb3:	aam    0x89
  402bb5:	jp     0x402be2
  402bb7:	imul   eax,DWORD PTR [esi+0xc],0x23
  402bbb:	fdiv   QWORD PTR [esi+0x2f]
  402bbe:	mov    dl,0xc3
  402bc0:	add    BYTE PTR [edi-0x4c2b2ba5],al
  402bc6:	(bad)  
  402bc7:	mov    ds:0xb547a102,al
  402bcc:	fst    DWORD PTR [edx-0x7a89d067]
  402bd2:	add    edx,DWORD PTR [ebp-0xf]
  402bd5:	and    ah,BYTE PTR [esi+0x2c857629]
  402bdb:	fild   DWORD PTR [edx]
  402bdd:	jle    0x402b61
  402bdf:	in     al,dx
  402be0:	jb     0x402b83
  402be2:	pop    ebx
  402be3:	aam    0x89
  402be5:	jp     0x402b8e
  402be7:	pop    esi
  402be8:	push   edx
  402be9:	or     DWORD PTR [ebx],0xc6b949e7
  402bef:	mov    al,ds:0xe82d8685
  402bf4:	add    cl,ah
  402bf6:	sub    esi,DWORD PTR es:[esi-0x7b]
  402bfa:	fsub   QWORD PTR [edx]
  402bfc:	std    
  402bfd:	or     DWORD PTR [ebx+0x57fbfdd8],esp
  402c03:	push   ecx
  402c04:	jbe    0x402c14
  402c06:	int3   
  402c07:	sub    BYTE PTR [ebp-0x727da52e],cl
  402c0d:	jmp    DWORD PTR [esi+0x5e]
  402c10:	jb     0x402be4
  402c12:	pop    edx
  402c13:	or     BYTE PTR [ecx+0xa0f02a],0x95
  402c1a:	pop    esi
  402c1b:	daa    
  402c1c:	add    al,BYTE PTR [ecx+ecx*1-0x590f4952]
  402c23:	(bad)  
  402c24:	jle    0x402c17
  402c26:	push   0xfd52775
  402c2b:	mov    esi,0xd4ff2b8d
  402c30:	and    ecx,DWORD PTR [ecx-0x70a0f3]
  402c36:	mov    bx,0xee6
  402c3a:	sbb    eax,0xa34e04c4
  402c3f:	jl     0x402c1c
  402c41:	add    BYTE PTR [ebx-0x592c6d60],bl
  402c47:	sub    esi,DWORD PTR [esi+0x5]
  402c4a:	sub    al,0xd0
  402c4c:	add    al,0x3e
  402c4e:	mov    ds:0x5a7a5329,eax
  402c53:	aam    0x9
  402c55:	sub    ah,BYTE PTR [edi+0x5a91525e]
  402c5b:	add    BYTE PTR [ecx+0x29cb4bd1],0xdb
  402c62:	add    ecx,DWORD PTR [ebp+0x7cf52add]
  402c68:	mov    eax,edx
  402c6a:	push   edi
  402c6b:	mov    WORD PTR [edx],cs
  402c6d:	mov    esp,0xe4f9c0b2
  402c72:	sahf   
  402c73:	mov    ah,0x2
  402c75:	test   eax,0xf375d92b
  402c7a:	addr16 (bad) 
  402c7c:	fisttp WORD PTR [esi+0x21]
  402c7f:	stc    
  402c80:	jns    0x402c83
  402c82:	int3   
  402c83:	aam    0x89
  402c85:	jp     0x402cb2
  402c87:	movs   DWORD PTR es:[edi],DWORD PTR ds:[esi]
  402c88:	rol    BYTE PTR [ebp-0x33fd2ba5],cl
  402c8e:	push   es
  402c8f:	sub    esi,DWORD PTR [esi-0x7b]
  402c92:	fsub   QWORD PTR [edx]
  402c94:	xchg   dh,bh
  402c96:	and    eax,0x5e85762b
  402c9b:	daa    
  402c9c:	and    al,0xf1
  402c9e:	pop    esi
  402c9f:	sub    BYTE PTR [ebp-0x26ef292b],cl
  402ca5:	sub    esi,esp
  402ca7:	jnp    0x402cc5
  402ca9:	xor    DWORD PTR [ebx],0xa67a99d4
  402caf:	jl     0x402ca6
  402cb1:	ins    DWORD PTR es:[edi],dx
  402cb2:	pop    edi
  402cb3:	test   bl,ah
  402cb5:	jle    0x402c85
  402cb7:	sub    esp,DWORD PTR [esi-0x7b]
  402cba:	pop    ebx
  402cbb:	or     DWORD PTR [eax],0x7e
  402cbe:	sub    BYTE PTR [ebx],0x66
  402cc1:	test   DWORD PTR [ebx+0x2b],ebx
  402cc4:	fdiv   QWORD PTR [esi-0x59]
  402cc7:	jge    0x402d43
  402cc9:	fild   WORD PTR [eax]
  402ccb:	jns    0x402c6f
  402ccd:	mov    dl,0xf5
  402ccf:	mov    al,ds:0x57b054be
  402cd4:	pusha  
  402cd5:	jle    0x402c6a
  402cd7:	jmp    0x402ce9
  402cd9:	sub    BYTE PTR ds:0xd24a897d,bh
  402cdf:	and    edx,DWORD PTR [ebx+0x7a]
  402ce2:	dec    edx
  402ce3:	aam    0x89
  402ce5:	jnp    0x402c99
  402ce7:	sub    al,0x94
  402ce9:	imul   eax,DWORD PTR [eax],0x59
  402cec:	int    0x5e
  402cee:	mov    ds:0x5ad5247a,al
  402cf3:	in     eax,0xe1
  402cf5:	jp     0x402cad
  402cf7:	sub    esi,DWORD PTR [esi-0x2e]
  402cfa:	fidivr WORD PTR [ecx*4+0x1e1aa72a]
  402d01:	test   DWORD PTR [ebx-0x2c],ecx
  402d04:	mov    DWORD PTR ds:0x85522f25,ebp
  402d0a:	dec    ebx
  402d0b:	aam    0x89
  402d0d:	test   ecx,esi
  402d0f:	daa    
  402d10:	mov    eax,edx
  402d12:	push   edi
  402d13:	mov    ss,eax
  402d15:	and    bh,dh
  402d17:	scas   al,BYTE PTR es:[edi]
  402d18:	mov    edi,0x4ab5d8f0
  402d1d:	sbb    cl,BYTE PTR [ebx+0x2c]
  402d20:	(bad)  [edi-0x5c]
  402d23:	pop    ecx
  402d24:	mov    ebp,0x9ea06379
  402d29:	push   cs
  402d2a:	scas   al,BYTE PTR es:[edi]
  402d2b:	ins    DWORD PTR es:[edi],dx
  402d2c:	cdq    
  402d2d:	jp     0x402cd5
  402d2f:	sub    ebx,DWORD PTR [esi-0x762ba592]
  402d35:	rol    BYTE PTR [edi-0x4c7a89d5],0x35
  402d3c:	jbe    0x402cc3
  402d3e:	cmps   DWORD PTR ds:[esi],DWORD PTR es:[edi]
  402d3f:	jl     0x402d10
  402d41:	sbb    BYTE PTR [ebx-0x2c],0x89
  402d45:	xchg   edx,eax
  402d46:	jo     0x402d1c
  402d48:	mov    DWORD PTR [edx-0x2a],edi
  402d4b:	add    al,0x2
  402d4d:	dec    esi
  402d4e:	adc    BYTE PTR [edx-0x2ba47a81],0x61
  402d55:	mov    ebp,0x9762ba7
  402d5a:	movs   DWORD PTR es:[edi],DWORD PTR ds:[esi]
  402d5b:	pop    edi
  402d5c:	inc    ebx
  402d5d:	xchg   edx,eax
  402d5e:	sbb    ah,dl
  402d60:	mov    DWORD PTR [edx+0x6e],edi
  402d63:	adc    al,0xd9
  402d65:	mov    ebx,0x81b72c6e
  402d6a:	jg     0x402d45
  402d6c:	mov    BYTE PTR [esi-0x7e],bh
  402d6f:	xchg   edx,esi
  402d71:	inc    ebp
  402d72:	sub    al,0x25
  402d74:	shl    ecx,1
  402d76:	pop    edi
  402d77:	adc    BYTE PTR [ebx-0x361a10f],dh
  402d7d:	cmps   DWORD PTR ds:[esi],DWORD PTR es:[edi]
  402d7e:	sub    ebx,DWORD PTR [edi]
  402d80:	push   edx
  402d81:	cmp    al,0x51
  402d83:	aam    0x89
  402d85:	jp     0x402dd5
  402d87:	mov    esi,0xc45a7a89
  402d8c:	ds jbe 0x402d7f
  402d8f:	jne    0x402db8
  402d91:	cmp    al,0x53
  402d93:	aam    0x89
  402d95:	jp     0x402de5
  402d97:	scas   al,BYTE PTR es:[edi]
  402d98:	mov    DWORD PTR [edx+0x5a],edi
  402d9b:	mov    fs,WORD PTR [ecx+0x5]
  402d9e:	cmps   DWORD PTR ds:[esi],DWORD PTR es:[edi]
  402d9f:	sub    esi,DWORD PTR [esi+0xf]
  402da2:	das    
  402da3:	lock xchg ebp,eax
  402da5:	sbb    esp,DWORD PTR [ebx+0x7a]
  402da8:	mov    bh,0x6d
  402daa:	inc    esp
  402dab:	ins    DWORD PTR es:[edi],dx
  402dac:	test   eax,0x3e2ba67a
  402db1:	icebp  
  402db2:	imul   ebp,DWORD PTR [ebp-0x75],0x7a
  402db6:	cmps   BYTE PTR ds:[esi],BYTE PTR es:[edi]
  402db7:	sub    edi,DWORD PTR [esi]
  402db9:	icebp  
  402dba:	jae    0x402e29
  402dbc:	test   eax,0x3e2ba67a
  402dc1:	icebp  
  402dc2:	jnp    0x402e31
  402dc4:	lea    edi,[edx-0x5a]
  402dc7:	sub    edi,DWORD PTR [esi]
  402dc9:	icebp  
  402dca:	inc    ebx
  402dcb:	ins    DWORD PTR es:[edi],dx
  402dcc:	leave  
  402dcd:	jp     0x402d75
  402dcf:	sub    edi,DWORD PTR [esi]
  402dd1:	icebp  
  402dd2:	dec    ebx
  402dd3:	ins    DWORD PTR es:[edi],dx
  402dd4:	lea    edi,[edx-0x5a]
  402dd7:	sub    edi,DWORD PTR [esi]
  402dd9:	icebp  
  402dda:	push   ebx
  402ddb:	ins    DWORD PTR es:[edi],dx
  402ddc:	leave  
  402ddd:	jp     0x402d85
  402ddf:	sub    edi,DWORD PTR [esi]
  402de1:	icebp  
  402de2:	pop    ebx
  402de3:	pop    edi
  402de4:	dec    eax
  402de5:	and    esp,DWORD PTR [ebx+0x4b]
  402de8:	std    
  402de9:	shr    BYTE PTR [ebx],1
  402deb:	push   ebp
  402dec:	jnp    0x402dd9
  402dee:	dec    esp
  402def:	outs   dx,BYTE PTR ds:[esi]
  402df0:	push   cs
  402df1:	push   cs
  402df2:	adc    al,0xbc
  402df4:	add    al,BYTE PTR [ebx+eiz*1+0x2f852e56]
  402dfb:	xlat   BYTE PTR ds:[ebx]
  402dfc:	mov    BYTE PTR [edi],cl
  402dfe:	(bad)  
  402dff:	mov    al,ds:0x14dce533
  402e04:	std    
  402e05:	outs   dx,DWORD PTR ds:[esi]
  402e06:	sub    eax,0xe1d74a6d
  402e0b:	ror    BYTE PTR [ecx-0x2c3c5986],1
  402e11:	test   BYTE PTR [ebx-0x2c],bl
  402e14:	sar    DWORD PTR [ecx+0x56],cl
  402e17:	sub    BYTE PTR [esi-0x3106c52],cl
  402e1d:	and    dl,cl
  402e1f:	es jne 0x402e12
  402e22:	pop    es
  402e23:	xlat   BYTE PTR ds:[ebx]
  402e24:	hlt    
  402e25:	mov    esp,DWORD PTR es:[esi+0x2a]
  402e29:	add    BYTE PTR [eax-0x9287d60],dl
  402e2f:	add    BYTE PTR [edi+ebx*8+0x796057f6],dh
  402e36:	inc    esp
  402e37:	enter  0x4617,0x3b
  402e3b:	push   edi
  402e3c:	hlt    
  402e3d:	cmps   BYTE PTR ss:[esi],BYTE PTR es:[edi]
  402e3f:	pop    edi
  402e40:	fs ins DWORD PTR es:[edi],dx
  402e42:	dec    edx
  402e43:	aam    0x89
  402e45:	jp     0x402e72
  402e47:	push   esi
  402e48:	and    al,BYTE PTR [eax]
  402e4a:	pop    edx
  402e4b:	mov    eax,ds:0x884ed18f
  402e50:	jbe    0x402dd7
  402e52:	pop    ebx
  402e53:	mov    ch,0x4a
  402e55:	sbb    ah,BYTE PTR [edi-0x7cf1b583]
  402e5b:	pop    edi
  402e5c:	cld    
  402e5d:	sub    ebp,DWORD PTR ss:[esi+0x26]
  402e61:	aad    0xb
  402e63:	mov    esp,0x2baa7a89
  402e68:	and    eax,0xd0940c7a
  402e6d:	sub    ch,BYTE PTR [ebx]
  402e6f:	rol    DWORD PTR [ebp-0x76134cdf],cl
  402e75:	jp     0x402e1d
  402e77:	arpl   di,di
  402e79:	sar    DWORD PTR [edi-0xc],0x2
  402e7d:	sub    BYTE PTR [ecx],0x27
  402e80:	retf   
  402e81:	sbb    DWORD PTR [ebx-0x2c],0x33051e89
  402e88:	jbe    0x402e0f
  402e8a:	pop    ebx
  402e8b:	pop    edi
  402e8c:	stc    
  402e8d:	push   esi
  402e8e:	cmc    
  402e8f:	inc    ebx
  402e90:	jbe    0x402e17
  402e92:	push   edi
  402e93:	aam    0xda
  402e95:	test   ecx,esi
  402e97:	imul   edi,ebx,0xffffff89
  402e9a:	jecxz  0x402ef7
  402e9c:	mov    BYTE PTR [edx],ch
  402e9e:	sub    esp,esp
  402ea0:	std    
  402ea1:	jge    0x402e51
  402ea3:	jno    0x402e92
  402ea5:	fstp   TBYTE PTR [esi-0x357a89d5]
  402eab:	xchg   esp,eax
  402eac:	movs   DWORD PTR es:[edi],DWORD PTR ds:[esi]
  402ead:	sbb    esp,DWORD PTR [ebx+0x4b]
  402eb0:	imul   DWORD PTR [ecx+0x7b]
  402eb3:	(bad)  
  402eb4:	mov    DWORD PTR [edx-0x32],edi
  402eb7:	pcmpeqb mm0,QWORD PTR [ebp+0x107fe75b]
  402ebe:	cmps   BYTE PTR ds:[esi],BYTE PTR es:[edi]
  402ebf:	inc    ecx
  402ec0:	jle    0x402f3c
  402ec2:	or     al,0xc8
  402ec4:	add    ah,BYTE PTR [edx-0x2f76870e]
  402eca:	outs   dx,DWORD PTR ds:[esi]
  402ecb:	pop    edi
  402ecc:	int    0x5e
  402ece:	mov    edx,0xd6b93628
  402ed3:	push   esp
  402ed4:	dec    ecx
  402ed5:	jp     0x402e7d
  402ed7:	sub    esi,ebx
  402ed9:	inc    ebp
  402eda:	das    
  402edb:	aad    0xcf
  402edd:	cs repz aam 0x23
  402ee1:	mov    ebp,0x9ffc14dc
  402ee6:	repz aam 0x23
  402ee9:	popf   
  402eea:	fcom   DWORD PTR [eax]
  402eec:	lods   eax,DWORD PTR ds:[esi]
  402eed:	js     0x402e95
  402eef:	sub    edi,edi
  402ef1:	icebp  
  402ef2:	jg     0x402ebc
  402ef4:	call   0x1a83f5b2
  402ef9:	jmp    0x9220359
  402efe:	rol    BYTE PTR ds:0xa734ed12,cl
  402f04:	call   FWORD PTR [ecx]
  402f06:	repnz aam 0x23
  402f09:	sbb    esp,0xf272fc14
  402f0f:	aam    0x23
  402f11:	test   esp,ebx
  402f13:	adc    al,0xfd
  402f15:	aaa    
  402f16:	int3   
  402f17:	sub    ebx,DWORD PTR [esi]
  402f19:	in     al,dx
  402f1a:	xor    eax,0xc012efa0
  402f1f:	pop    esp
  402f20:	push   es
  402f21:	test   DWORD PTR [edi],0xae2f7684
  402f27:	test   al,0xb2
  402f29:	mov    esi,edx
  402f2b:	and    al,0xd9
  402f2d:	cs int3 
  402f2f:	imul   ebx,DWORD PTR [edx+eax*4],0xd
  402f33:	sub    ebx,esp
  402f35:	jbe    0x402f35
  402f37:	jnp    0x402f5b
  402f39:	aad    0x31
  402f3b:	rcr    edi,cl
  402f3d:	xchg   edx,eax
  402f3e:	sub    BYTE PTR [ebx],0x76
  402f41:	test   esi,edx
  402f43:	call   0x39b02af5
  402f48:	jbe    0x402ecf
  402f4a:	pop    ebx
  402f4b:	mov    esi,0x8f53238e
  402f50:	xor    DWORD PTR [esi],ecx
  402f52:	popf   
  402f53:	jg     0x402f59
  402f55:	add    al,0x5d
  402f57:	fwait
  402f58:	push   ds
  402f59:	das    
  402f5a:	add    edi,DWORD PTR [edi+0x39]
  402f5d:	mov    ecx,0x8923d40c
  402f62:	add    edx,DWORD PTR [edi+0x4d]
  402f65:	jbe    0x402f2c
  402f67:	call   0x81cba99a
  402f6c:	popa   
  402f6d:	in     al,0xa6
  402f6f:	sub    esi,DWORD PTR [esi-0x28]
  402f72:	aam    0x91
  402f74:	stc    
  402f75:	stc    
  402f76:	data16 das 
  402f78:	inc    ecx
  402f7a:	jg     0x402f40
  402f7c:	aam    0x7a
  402f7e:	cmps   BYTE PTR ds:[esi],BYTE PTR es:[edi]
  402f7f:	sub    esi,DWORD PTR [esi-0x7b]
  402f82:	pop    ebx
  402f83:	aam    0xe1
  402f85:	jp     0x402f2d
  402f87:	sub    esi,DWORD PTR [esi+0x46]
  402f8a:	cmp    eax,0x1c1c7fe7
  402f8f:	data16 sub al,0xe3
  402f92:	hlt    
  402f93:	mov    dl,0xba
  402f95:	stos   BYTE PTR es:[edi],al
  402f96:	shl    BYTE PTR [ebx],cl
  402f98:	imul   DWORD PTR [ebx+0x59]
  402f9b:	les    ecx,FWORD PTR [ecx-0x439b486]
  402fa1:	(bad)  [ebp+0x550f7650]
  402fa7:	mov    al,ds:0x6e3dbf00
  402fac:	fnstcw WORD PTR [edi]
  402fae:	sub    DWORD PTR [edi],ebx
  402fb0:	push   0xbab2f4e3
  402fb5:	stos   BYTE PTR es:[edi],al
  402fb6:	ror    ebx,1
  402fb8:	mov    ch,0xd4
  402fba:	outs   dx,BYTE PTR ds:[esi]
  402fbb:	sbb    eax,0x536451c8
  402fc0:	jb     0x402fb3
  402fc2:	pop    ecx
  402fc3:	aas    
  402fc4:	jle    0x40300f
  402fc6:	data16 sub BYTE PTR [edi+eiz*2-0xeb57259],dh
  402fce:	fld    DWORD PTR [ebx+0x1c]
  402fd1:	xor    DWORD PTR [ebx],0xa67a99d4
  402fd7:	jl     0x402ff5
  402fd9:	test   DWORD PTR [edx-0x7e],ebx
  402fdc:	cdq    
  402fdd:	icebp  
  402fde:	push   esi
  402fdf:	stos   BYTE PTR es:[edi],al
  402fe0:	call   0x5af1:0x89d45881
  402fe7:	inc    ebx
  402fe8:	jb     0x402f6e
  402fea:	pop    ebx
  402feb:	aam    0xde
  402fed:	sub    DWORD PTR [edi+0x5bef567d],esp
  402ff3:	mov    esp,0x2ba67a09
  402ff8:	sbb    al,0x86
  402ffa:	xor    esp,edx
  402ffc:	jecxz  0x403079
  402ffe:	into   
  402fff:	sub    esi,DWORD PTR [esi-0x7b]
  403002:	fild   DWORD PTR [ebx-0x557dd08a]
  403008:	mov    dl,0x81
  40300a:	pop    eax
  40300b:	aam    0x89
  40300d:	mov    ecx,0x55897336
  403012:	cmps   BYTE PTR ds:[esi],BYTE PTR es:[edi]
  403013:	add    BYTE PTR [ebx],ch
  403015:	sbb    ebp,DWORD PTR [edi+edx*1]
  403018:	jb     0x402fe2
  40301a:	adc    al,0x6c
  40301c:	es mov dh,0x79
  40301f:	adc    bh,ch
  403021:	add    edi,DWORD PTR [ebx+0x58]
  403024:	rcr    DWORD PTR [eax],0x45
  403027:	pop    ecx
  403028:	scas   eax,DWORD PTR es:[edi]
  403029:	sahf   
  40302a:	mov    ebx,0x3b165768
  40302f:	test   edx,ebp
  403031:	push   ecx
  403032:	fwait
  403033:	test   eax,0xdb467ee6
  403039:	xchg   edx,eax
  40303a:	movs   DWORD PTR es:[edi],DWORD PTR ds:[esi]
  40303b:	sbb    eax,0x47e0ff23
  403040:	in     al,dx
  403041:	lods   al,BYTE PTR ds:[esi]
  403042:	push   ebx
  403043:	push   edi
  403044:	sbb    ch,0x1d
  403047:	int    0x60
  403049:	test   BYTE PTR [ebx],bl
  40304b:	enter  0xf188,0x1b
  40304f:	arpl   WORD PTR [edx+eax*2+0x5cd56bd4],dx
  403056:	movs   BYTE PTR es:[edi],BYTE PTR ds:[esi]
  403057:	mov    eax,0xd45b3249
  40305c:	mov    DWORD PTR [edx-0x5a],edi
  40305f:	sub    esi,DWORD PTR [esi-0x7b]
  403062:	pop    ebx
  403063:	aam    0x89
  403065:	jp     0x40300d
  403067:	sub    esi,DWORD PTR [esi-0x7b]
  40306a:	pop    ebx
  40306b:	aam    0x89
  40306d:	jp     0x403015
  40306f:	sub    esi,DWORD PTR [esi-0x7b]
  403072:	pop    ebx
  403073:	aam    0x89
  403075:	jp     0x40306d
  403077:	lods   al,BYTE PTR ds:[esi]
  403078:	ja     0x402fff
  40307a:	pop    ebx
  40307b:	into   
  40307c:	mov    WORD PTR [edx-0x5a],?
  40307f:	das    
  403080:	jbe    0x403007
  403082:	xchg   esi,eax
  403083:	jmp    0x1603:0x84cc7845
  40308a:	data16 int3 
  40308c:	and    eax,DWORD PTR [ecx-0x21]
  40308f:	xchg   DWORD PTR [edx],edi
  403091:	.byte 0x10
  403092:	stos   DWORD PTR es:[edi],eax
  403093:	aas    
