
4253a692a6aad501ca047891554e09e3bd34a7dfdc9724275853a5e47c864fc9.exe:     file format pei-i386


Disassembly of section .text:

00401000 <.text>:
  401000:	mov    edi,edi
  401002:	push   ebp
  401003:	mov    ebp,esp
  401005:	sub    esp,0x20
  401008:	push   ecx
  401009:	push   0x0
  40100b:	push   0x40301c
  401010:	pop    eax
  401011:	notrack call DWORD PTR [eax]
  401014:	pop    ecx
  401015:	push   ecx
  401016:	push   DWORD PTR [ecx+0x3f4]
  40101c:	push   edx
  40101d:	push   DWORD PTR [ecx+0xf0]
  401023:	call   0x401910
  401028:	add    esp,0xc
  40102b:	pop    ecx
  40102c:	push   ecx
  40102d:	mov    edx,0x0
  401032:	push   edx
  401033:	push   0x40306c
  401038:	pop    eax
  401039:	notrack call DWORD PTR [eax]
  40103c:	pop    ecx
  40103d:	sub    esp,0xffffffe0
  401040:	mov    ebp,DWORD PTR [esp]
  401043:	add    esp,0x4
  401046:	ret    
  401047:	add    BYTE PTR [eax],al
  401049:	add    BYTE PTR [eax],al
  40104b:	add    BYTE PTR [ebx-0x1374aa01],cl
  401051:	sub    esp,0x54
  401054:	push   ecx
  401055:	push   DWORD PTR [ecx+0x160]
  40105b:	push   esi
  40105c:	push   DWORD PTR [ecx+0x184]
  401062:	push   DWORD PTR [ecx+0xc0]
  401068:	call   0x401ac8
  40106d:	add    esp,0x10
  401070:	pop    ecx
  401071:	push   ecx
  401072:	lea    ecx,[ecx]
  401074:	push   ecx
  401075:	push   0x40304c
  40107a:	pop    eax
  40107b:	notrack call DWORD PTR [eax]
  40107e:	test   eax,eax
  401080:	jne    0x401072
  401082:	pop    ecx
  401083:	push   ecx
  401084:	mov    edx,0x0
  401089:	push   edx
  40108a:	push   0x40303c
  40108f:	pop    eax
  401090:	notrack call DWORD PTR [eax]
  401093:	pop    ecx
  401094:	sub    esp,0xffffffac
  401097:	mov    ebp,DWORD PTR [esp]
  40109a:	add    esp,0x4
  40109d:	ret    
  40109e:	add    BYTE PTR [eax],al
  4010a0:	mov    edi,edi
  4010a2:	push   ebp
  4010a3:	mov    ebp,esp
  4010a5:	sub    esp,0x30
  4010a8:	push   ecx
  4010a9:	push   DWORD PTR [ecx+0x14]
  4010ac:	push   DWORD PTR [ecx+0x3b8]
  4010b2:	push   DWORD PTR [ecx+0x28c]
  4010b8:	push   ebx
  4010b9:	call   0x401654
  4010be:	add    esp,0x10
  4010c1:	pop    ecx
  4010c2:	push   ecx
  4010c3:	mov    esi,0x0
  4010c8:	push   esi
  4010c9:	push   0x403040
  4010ce:	pop    eax
  4010cf:	notrack call DWORD PTR [eax]
  4010d2:	pop    ecx
  4010d3:	push   ecx
  4010d4:	push   0x0
  4010d6:	push   0x40301c
  4010db:	pop    eax
  4010dc:	notrack call DWORD PTR [eax]
  4010df:	pop    ecx
  4010e0:	sub    esp,0xffffffd0
  4010e3:	mov    ebp,DWORD PTR [esp]
  4010e6:	add    esp,0x4
  4010e9:	ret    
  4010ea:	add    BYTE PTR [eax],al
  4010ec:	mov    edi,edi
  4010ee:	push   ebp
  4010ef:	mov    ebp,esp
  4010f1:	sub    esp,0x40
  4010f4:	push   ecx
  4010f5:	push   ebx
  4010f6:	push   DWORD PTR [ecx+0x68]
  4010f9:	push   DWORD PTR [ecx+0x148]
  4010ff:	push   edi
  401100:	call   0x401228
  401105:	add    esp,0x10
  401108:	pop    ecx
  401109:	push   ecx
  40110a:	push   0x0
  40110c:	push   0x40305c
  401111:	pop    eax
  401112:	notrack call DWORD PTR [eax]
  401115:	pop    ecx
  401116:	push   ecx
  401117:	push   0x403048
  40111c:	pop    eax
  40111d:	notrack call DWORD PTR [eax]
  401120:	pop    ecx
  401121:	sub    esp,0xffffffc0
  401124:	mov    ebp,DWORD PTR [esp]
  401127:	add    esp,0x4
  40112a:	ret    
  40112b:	add    BYTE PTR [edi],cl
  40112d:	xchg   DWORD PTR [edx],eax
  40112f:	add    BYTE PTR [eax],al
  401131:	add    BYTE PTR [eax],al
  401133:	add    BYTE PTR [ebx-0x74aa9f01],cl
  401139:	in     al,dx
  40113a:	sub    esp,0x34
  40113d:	push   ecx
  40113e:	mov    esi,0x0
  401143:	push   esi
  401144:	push   0x403014
  401149:	pop    eax
  40114a:	notrack call DWORD PTR [eax]
  40114d:	pop    ecx
  40114e:	test   eax,eax
  401150:	je     0x401153
  401152:	ret    
  401153:	push   ecx
  401154:	mov    edi,0x0
  401159:	push   edi
  40115a:	push   0x403018
  40115f:	pop    eax
  401160:	notrack call DWORD PTR [eax]
  401163:	pop    ecx
  401164:	push   ecx
  401165:	push   edi
  401166:	push   DWORD PTR [ecx+0x1c]
  401169:	push   ebx
  40116a:	call   0x4010a0
  40116f:	add    esp,0xc
  401172:	pop    ecx
  401173:	mov    edx,0x40304c
  401178:	mov    edx,DWORD PTR [edx]
  40117a:	push   edx
  40117b:	push   DWORD PTR [ecx+0x180]
  401181:	pop    ebx
  401182:	call   ebx
  401184:	sub    esp,0xffffffcc
  401187:	mov    ebp,DWORD PTR [esp]
  40118a:	add    esp,0x4
  40118d:	ret    
  40118e:	add    BYTE PTR [eax],al
  401190:	mov    edi,edi
  401192:	push   ebp
  401193:	mov    ebp,esp
  401195:	sub    esp,0x20
  401198:	push   ecx
  401199:	push   DWORD PTR [ecx+0x1fc]
  40119f:	push   edx
  4011a0:	push   eax
  4011a1:	call   0x401d00
  4011a6:	add    esp,0xc
  4011a9:	pop    ecx
  4011aa:	push   ecx
  4011ab:	push   0x0
  4011ad:	push   0x40301c
  4011b2:	pop    eax
  4011b3:	notrack call DWORD PTR [eax]
  4011b6:	pop    ecx
  4011b7:	push   ecx
  4011b8:	mov    esi,0x0
  4011bd:	push   esi
  4011be:	push   0x403014
  4011c3:	pop    eax
  4011c4:	notrack call DWORD PTR [eax]
  4011c7:	pop    ecx
  4011c8:	sub    esp,0xffffffe0
  4011cb:	mov    ebp,DWORD PTR [esp]
  4011ce:	add    esp,0x4
  4011d1:	ret    
	...
  4011e2:	add    BYTE PTR [eax],al
  4011e4:	mov    edi,edi
  4011e6:	push   ebp
  4011e7:	mov    ebp,esp
  4011e9:	sub    esp,0x44
  4011ec:	push   ecx
  4011ed:	push   0x0
  4011ef:	push   0x403014
  4011f4:	pop    eax
  4011f5:	notrack call DWORD PTR [eax]
  4011f8:	pop    ecx
  4011f9:	push   ecx
  4011fa:	push   esi
  4011fb:	push   eax
  4011fc:	call   0x401388
  401201:	add    esp,0x8
  401204:	pop    ecx
  401205:	push   ecx
  401206:	mov    esi,0x0
  40120b:	push   esi
  40120c:	push   0x40301c
  401211:	pop    eax
  401212:	notrack call DWORD PTR [eax]
  401215:	pop    ecx
  401216:	sub    esp,0xffffffbc
  401219:	mov    ebp,DWORD PTR [esp]
  40121c:	add    esp,0x4
  40121f:	ret    
	...
  401228:	mov    edi,edi
  40122a:	push   ebp
  40122b:	mov    ebp,esp
  40122d:	sub    esp,0x60
  401230:	push   ecx
  401231:	mov    ebx,0x0
  401236:	push   ebx
  401237:	push   0x40301c
  40123c:	pop    eax
  40123d:	notrack call DWORD PTR [eax]
  401240:	pop    ecx
  401241:	push   ecx
  401242:	push   ebx
  401243:	push   DWORD PTR [ecx+0x30]
  401246:	push   ebx
  401247:	call   0x401d90
  40124c:	add    esp,0xc
  40124f:	pop    ecx
  401250:	push   ecx
  401251:	push   0x0
  401253:	push   0x40303c
  401258:	pop    eax
  401259:	notrack call DWORD PTR [eax]
  40125c:	pop    ecx
  40125d:	sub    esp,0xffffffa0
  401260:	mov    ebp,DWORD PTR [esp]
  401263:	add    esp,0x4
  401266:	ret    
  401267:	add    BYTE PTR [ebx-0x1374aa01],cl
  40126d:	sub    esp,0x54
  401270:	push   ecx
  401271:	push   DWORD PTR [ecx+0x324]
  401277:	push   edi
  401278:	push   edi
  401279:	call   0x4017d4
  40127e:	add    esp,0xc
  401281:	pop    ecx
  401282:	push   ecx
  401283:	push   0x0
  401285:	push   0x40306c
  40128a:	pop    eax
  40128b:	notrack call DWORD PTR [eax]
  40128e:	pop    ecx
  40128f:	push   ecx
  401290:	mov    ebx,0x0
  401295:	push   ebx
  401296:	push   0x40301c
  40129b:	pop    eax
  40129c:	notrack call DWORD PTR [eax]
  40129f:	pop    ecx
  4012a0:	sub    esp,0xffffffac
  4012a3:	mov    ebp,DWORD PTR [esp]
  4012a6:	add    esp,0x4
  4012a9:	ret    
  4012aa:	add    BYTE PTR [eax],al
  4012ac:	mov    edi,edi
  4012ae:	push   ebp
  4012af:	mov    ebp,esp
  4012b1:	sub    esp,0x1c
  4012b4:	push   ecx
  4012b5:	push   DWORD PTR [ecx+0x20c]
  4012bb:	push   DWORD PTR [ecx+0x390]
  4012c1:	push   eax
  4012c2:	call   0x4015fc
  4012c7:	add    esp,0xc
  4012ca:	pop    ecx
  4012cb:	push   ecx
  4012cc:	mov    ecx,0x0
  4012d1:	push   ecx
  4012d2:	push   0x403018
  4012d7:	pop    eax
  4012d8:	notrack call DWORD PTR [eax]
  4012db:	pop    ecx
  4012dc:	push   ecx
  4012dd:	mov    esi,0x0
  4012e2:	push   esi
  4012e3:	push   0x40306c
  4012e8:	pop    eax
  4012e9:	notrack call DWORD PTR [eax]
  4012ec:	pop    ecx
  4012ed:	sub    esp,0xffffffe4
  4012f0:	mov    ebp,DWORD PTR [esp]
  4012f3:	add    esp,0x4
  4012f6:	ret    
	...
  401303:	add    BYTE PTR [ebx-0x1374aa01],cl
  401309:	sub    esp,0x40
  40130c:	push   ecx
  40130d:	push   ebx
  40130e:	push   edi
  40130f:	call   0x401000
  401314:	add    esp,0x8
  401317:	pop    ecx
  401318:	push   ecx
  401319:	mov    ebx,0x0
  40131e:	push   ebx
  40131f:	push   0x40303c
  401324:	pop    eax
  401325:	notrack call DWORD PTR [eax]
  401328:	pop    ecx
  401329:	push   ecx
  40132a:	mov    ebx,0x0
  40132f:	push   ebx
  401330:	push   0x403004
  401335:	pop    eax
  401336:	notrack call DWORD PTR [eax]
  401339:	pop    ecx
  40133a:	sub    esp,0xffffffc0
  40133d:	mov    ebp,DWORD PTR [esp]
  401340:	add    esp,0x4
  401343:	ret    
  401344:	add    BYTE PTR [eax],al
  401346:	add    BYTE PTR [eax],al
  401348:	mov    edi,edi
  40134a:	push   ebp
  40134b:	mov    ebp,esp
  40134d:	sub    esp,0x34
  401350:	push   ecx
  401351:	lea    edx,[ecx]
  401353:	push   edx
  401354:	push   0x40304c
  401359:	pop    eax
  40135a:	notrack call DWORD PTR [eax]
  40135d:	test   eax,eax
  40135f:	jne    0x401351
  401361:	pop    ecx
  401362:	push   ecx
  401363:	push   eax
  401364:	push   edi
  401365:	push   eax
  401366:	call   0x4019f0
  40136b:	add    esp,0xc
  40136e:	pop    ecx
  40136f:	push   ecx
  401370:	push   0x0
  401372:	push   0x403014
  401377:	pop    eax
  401378:	notrack call DWORD PTR [eax]
  40137b:	pop    ecx
  40137c:	sub    esp,0xffffffcc
  40137f:	mov    ebp,DWORD PTR [esp]
  401382:	add    esp,0x4
  401385:	ret    
  401386:	add    BYTE PTR [eax],al
  401388:	mov    edi,edi
  40138a:	push   ebp
  40138b:	mov    ebp,esp
  40138d:	sub    esp,0x34
  401390:	push   ecx
  401391:	push   0x0
  401393:	push   0x403004
  401398:	pop    eax
  401399:	notrack call DWORD PTR [eax]
  40139c:	pop    ecx
  40139d:	push   ecx
  40139e:	push   DWORD PTR [ecx+0x228]
  4013a4:	push   eax
  4013a5:	push   DWORD PTR [ecx+0x8c]
  4013ab:	push   DWORD PTR [ecx+0xbc]
  4013b1:	call   0x40186c
  4013b6:	add    esp,0x10
  4013b9:	pop    ecx
  4013ba:	push   ecx
  4013bb:	push   0x0
  4013bd:	push   0x40303c
  4013c2:	pop    eax
  4013c3:	notrack call DWORD PTR [eax]
  4013c6:	pop    ecx
  4013c7:	sub    esp,0xffffffcc
  4013ca:	mov    ebp,DWORD PTR [esp]
  4013cd:	add    esp,0x4
  4013d0:	ret    
  4013d1:	add    BYTE PTR [eax],al
  4013d3:	add    BYTE PTR [ebx-0x1374aa01],cl
  4013d9:	sub    esp,0x60
  4013dc:	push   ecx
  4013dd:	mov    ebx,0x0
  4013e2:	push   ebx
  4013e3:	push   0x403014
  4013e8:	pop    eax
  4013e9:	notrack call DWORD PTR [eax]
  4013ec:	pop    ecx
  4013ed:	push   ecx
  4013ee:	push   DWORD PTR [ecx+0xec]
  4013f4:	push   edx
  4013f5:	push   edi
  4013f6:	call   0x401a84
  4013fb:	add    esp,0xc
  4013fe:	pop    ecx
  4013ff:	push   ecx
  401400:	mov    esi,0x0
  401405:	push   esi
  401406:	push   0x403000
  40140b:	pop    eax
  40140c:	notrack call DWORD PTR [eax]
  40140f:	pop    ecx
  401410:	sub    esp,0xffffffa0
  401413:	mov    ebp,DWORD PTR [esp]
  401416:	add    esp,0x4
  401419:	ret    
  40141a:	add    BYTE PTR [eax],al
  40141c:	mov    edi,edi
  40141e:	push   ebp
  40141f:	mov    ebp,esp
  401421:	sub    esp,0x34
  401424:	push   ecx
  401425:	push   edi
  401426:	push   edi
  401427:	call   0x401e1c
  40142c:	add    esp,0x8
  40142f:	pop    ecx
  401430:	push   ecx
  401431:	mov    ebx,0x0
  401436:	push   ebx
  401437:	push   0x403024
  40143c:	pop    eax
  40143d:	notrack call DWORD PTR [eax]
  401440:	pop    ecx
  401441:	push   ecx
  401442:	mov    ecx,0x0
  401447:	push   ecx
  401448:	push   0x403024
  40144d:	pop    eax
  40144e:	notrack call DWORD PTR [eax]
  401451:	pop    ecx
  401452:	sub    esp,0xffffffcc
  401455:	mov    ebp,DWORD PTR [esp]
  401458:	add    esp,0x4
  40145b:	ret    
  40145c:	mov    edi,edi
  40145e:	push   ebp
  40145f:	mov    ebp,esp
  401461:	sub    esp,0x20
  401464:	push   ecx
  401465:	mov    eax,0x0
  40146a:	push   eax
  40146b:	push   0x40301c
  401470:	pop    eax
  401471:	notrack call DWORD PTR [eax]
  401474:	pop    ecx
  401475:	push   ecx
  401476:	push   ebx
  401477:	push   DWORD PTR [ecx+0x1b8]
  40147d:	push   DWORD PTR [ecx+0x288]
  401483:	call   0x401b60
  401488:	add    esp,0xc
  40148b:	pop    ecx
  40148c:	push   ecx
  40148d:	mov    ecx,0x0
  401492:	push   ecx
  401493:	push   0x40305c
  401498:	pop    eax
  401499:	notrack call DWORD PTR [eax]
  40149c:	pop    ecx
  40149d:	sub    esp,0xffffffe0
  4014a0:	mov    ebp,DWORD PTR [esp]
  4014a3:	add    esp,0x4
  4014a6:	ret    
  4014a7:	add    BYTE PTR [eax],al
  4014a9:	add    BYTE PTR [eax],al
  4014ab:	add    BYTE PTR [ebx-0x1374aa01],cl
  4014b1:	sub    esp,0x24
  4014b4:	push   ecx
  4014b5:	push   ebx
  4014b6:	push   eax
  4014b7:	push   eax
  4014b8:	call   0x401268
  4014bd:	add    esp,0xc
  4014c0:	pop    ecx
  4014c1:	push   ecx
  4014c2:	push   0x0
  4014c4:	push   0x40300c
  4014c9:	pop    eax
  4014ca:	notrack call DWORD PTR [eax]
  4014cd:	pop    ecx
  4014ce:	push   ecx
  4014cf:	lea    ebx,[ecx]
  4014d1:	push   ebx
  4014d2:	push   0x40304c
  4014d7:	pop    eax
  4014d8:	notrack call DWORD PTR [eax]
  4014db:	test   eax,eax
  4014dd:	jne    0x4014cf
  4014df:	pop    ecx
  4014e0:	sub    esp,0xffffffdc
  4014e3:	mov    ebp,DWORD PTR [esp]
  4014e6:	add    esp,0x4
  4014e9:	ret    
  4014ea:	add    BYTE PTR [eax],al
  4014ec:	push   0x46e000
  4014f1:	mov    eax,0x403094
  4014f6:	and    WORD PTR [eax],0x0
  4014fa:	push   DWORD PTR [eax]
  4014fc:	pop    eax
  4014fd:	mov    ecx,eax
  4014ff:	stc    
  401500:	adc    al,0x3b
  401502:	add    ecx,DWORD PTR [eax]
  401504:	mov    eax,DWORD PTR [ecx+0x1c]
  401507:	ror    eax,0xc
  40150a:	sub    al,0x0
  40150c:	sub    al,0x50
  40150e:	pop    ecx
  40150f:	jb     0x40151a
  401511:	nop
  401512:	nop
  401513:	nop
  401514:	nop
  401515:	jmp    0x40112c
  40151a:	int    0x3
  40151c:	add    BYTE PTR [eax],al
  40151e:	sub    DWORD PTR [ebx-0x75],esp
  401521:	call   DWORD PTR [ebp-0x75]
  401524:	in     al,dx
  401525:	sub    esp,0x20
  401528:	push   ecx
  401529:	mov    edx,0x0
  40152e:	push   edx
  40152f:	push   0x403000
  401534:	pop    eax
  401535:	notrack call DWORD PTR [eax]
  401538:	pop    ecx
  401539:	push   ecx
  40153a:	push   DWORD PTR [ecx+0xc8]
  401540:	push   ebx
  401541:	call   0x401954
  401546:	add    esp,0x8
  401549:	pop    ecx
  40154a:	push   ecx
  40154b:	mov    ebx,0x0
  401550:	push   ebx
  401551:	push   0x40305c
  401556:	pop    eax
  401557:	notrack call DWORD PTR [eax]
  40155a:	pop    ecx
  40155b:	sub    esp,0xffffffe0
  40155e:	mov    ebp,DWORD PTR [esp]
  401561:	add    esp,0x4
  401564:	ret    
  401565:	add    BYTE PTR [eax],al
  401567:	add    BYTE PTR [ebx-0x1374aa01],cl
  40156d:	sub    esp,0x48
  401570:	push   ecx
  401571:	mov    ecx,0x0
  401576:	push   ecx
  401577:	push   0x40303c
  40157c:	pop    eax
  40157d:	notrack call DWORD PTR [eax]
  401580:	pop    ecx
  401581:	push   ecx
  401582:	push   DWORD PTR [ecx+0x16c]
  401588:	push   ebx
  401589:	push   eax
  40158a:	push   DWORD PTR [ecx+0x7c]
  40158d:	call   0x401190
  401592:	add    esp,0x10
  401595:	pop    ecx
  401596:	push   ecx
  401597:	push   0x0
  401599:	push   0x403024
  40159e:	pop    eax
  40159f:	notrack call DWORD PTR [eax]
  4015a2:	pop    ecx
  4015a3:	sub    esp,0xffffffb8
  4015a6:	mov    ebp,DWORD PTR [esp]
  4015a9:	add    esp,0x4
  4015ac:	ret    
	...
  4015b5:	add    BYTE PTR [eax],al
  4015b7:	add    BYTE PTR [ebx-0x1374aa01],cl
  4015bd:	sub    esp,0x5c
  4015c0:	push   ecx
  4015c1:	push   DWORD PTR [ecx+0x80]
  4015c7:	push   edi
  4015c8:	push   eax
  4015c9:	call   0x401568
  4015ce:	add    esp,0xc
  4015d1:	pop    ecx
  4015d2:	push   ecx
  4015d3:	push   0x0
  4015d5:	push   0x40303c
  4015da:	pop    eax
  4015db:	notrack call DWORD PTR [eax]
  4015de:	pop    ecx
  4015df:	push   ecx
  4015e0:	lea    edx,[ecx]
  4015e2:	push   edx
  4015e3:	push   0x40304c
  4015e8:	pop    eax
  4015e9:	notrack call DWORD PTR [eax]
  4015ec:	test   eax,eax
  4015ee:	jne    0x4015e0
  4015f0:	pop    ecx
  4015f1:	sub    esp,0xffffffa4
  4015f4:	mov    ebp,DWORD PTR [esp]
  4015f7:	add    esp,0x4
  4015fa:	ret    
  4015fb:	add    BYTE PTR [ebx-0x1374aa01],cl
  401601:	sub    esp,0x30
  401604:	push   ecx
  401605:	push   ebx
  401606:	push   DWORD PTR [ecx+0x330]
  40160c:	push   DWORD PTR [ecx+0x35c]
  401612:	push   eax
  401613:	call   0x401520
  401618:	add    esp,0x10
  40161b:	pop    ecx
  40161c:	push   ecx
  40161d:	mov    edx,0x0
  401622:	push   edx
  401623:	push   0x403040
  401628:	pop    eax
  401629:	notrack call DWORD PTR [eax]
  40162c:	pop    ecx
  40162d:	push   ecx
  40162e:	mov    eax,0x0
  401633:	push   eax
  401634:	push   0x40303c
  401639:	pop    eax
  40163a:	notrack call DWORD PTR [eax]
  40163d:	pop    ecx
  40163e:	sub    esp,0xffffffd0
  401641:	mov    ebp,DWORD PTR [esp]
  401644:	add    esp,0x4
  401647:	ret    
	...
  401654:	mov    edi,edi
  401656:	push   ebp
  401657:	mov    ebp,esp
  401659:	sub    esp,0x38
  40165c:	push   ecx
  40165d:	mov    eax,0x0
  401662:	push   eax
  401663:	push   0x403004
  401668:	pop    eax
  401669:	notrack call DWORD PTR [eax]
  40166c:	pop    ecx
  40166d:	push   ecx
  40166e:	push   DWORD PTR [ecx+0x29c]
  401674:	push   DWORD PTR [ecx+0x228]
  40167a:	push   DWORD PTR [ecx+0x38c]
  401680:	call   0x4018b8
  401685:	add    esp,0xc
  401688:	pop    ecx
  401689:	push   ecx
  40168a:	push   0x403048
  40168f:	pop    eax
  401690:	notrack call DWORD PTR [eax]
  401693:	pop    ecx
  401694:	sub    esp,0xffffffc8
  401697:	mov    ebp,DWORD PTR [esp]
  40169a:	add    esp,0x4
  40169d:	ret    
  40169e:	add    BYTE PTR [eax],al
  4016a0:	mov    edi,edi
  4016a2:	push   ebp
  4016a3:	mov    ebp,esp
  4016a5:	sub    esp,0x3c
  4016a8:	push   ecx
  4016a9:	push   DWORD PTR [ecx+0x168]
  4016af:	push   DWORD PTR [ecx+0x9c]
  4016b5:	call   0x4015b8
  4016ba:	add    esp,0x8
  4016bd:	pop    ecx
  4016be:	push   ecx
  4016bf:	push   0x0
  4016c1:	push   0x40306c
  4016c6:	pop    eax
  4016c7:	notrack call DWORD PTR [eax]
  4016ca:	pop    ecx
  4016cb:	push   ecx
  4016cc:	mov    eax,0x0
  4016d1:	push   eax
  4016d2:	push   0x403018
  4016d7:	pop    eax
  4016d8:	notrack call DWORD PTR [eax]
  4016db:	pop    ecx
  4016dc:	sub    esp,0xffffffc4
  4016df:	mov    ebp,DWORD PTR [esp]
  4016e2:	add    esp,0x4
  4016e5:	ret    
  4016e6:	add    BYTE PTR [eax],al
  4016e8:	add    BYTE PTR [eax],al
  4016ea:	add    BYTE PTR [eax],al
  4016ec:	mov    edi,edi
  4016ee:	push   ebp
  4016ef:	mov    ebp,esp
  4016f1:	sub    esp,0x48
  4016f4:	push   ecx
  4016f5:	push   0x0
  4016f7:	push   0x40303c
  4016fc:	pop    eax
  4016fd:	notrack call DWORD PTR [eax]
  401700:	pop    ecx
  401701:	push   ecx
  401702:	push   edx
  401703:	push   DWORD PTR [ecx+0xb8]
  401709:	call   0x401304
  40170e:	add    esp,0x8
  401711:	pop    ecx
  401712:	push   ecx
  401713:	push   0x0
  401715:	push   0x40301c
  40171a:	pop    eax
  40171b:	notrack call DWORD PTR [eax]
  40171e:	pop    ecx
  40171f:	sub    esp,0xffffffb8
  401722:	mov    ebp,DWORD PTR [esp]
  401725:	add    esp,0x4
  401728:	ret    
  401729:	add    BYTE PTR [eax],al
  40172b:	add    BYTE PTR [ebx-0x1374aa01],cl
  401731:	sub    esp,0x30
  401734:	push   ecx
  401735:	push   0x40
  401737:	mov    eax,0x1000
  40173c:	push   eax
  40173d:	push   0x6bc
  401742:	mov    ecx,0x0
  401747:	push   ecx
  401748:	push   0x0
  40174a:	xor    DWORD PTR [esp],0x17e85369
  401751:	pop    edx
  401752:	sub    edx,0x17a82341
  401758:	push   DWORD PTR [edx]
  40175a:	sub    DWORD PTR [esp],0x2
  40175e:	push   0x40302c
  401763:	pop    edx
  401764:	pop    DWORD PTR [edx]
  401766:	push   0x40302c
  40176b:	pop    eax
  40176c:	notrack call DWORD PTR [eax]
  40176f:	xchg   DWORD PTR [esp],eax
  401772:	mov    ecx,eax
  401774:	pop    edx
  401775:	mov    DWORD PTR [ecx+0x180],edx
  40177b:	mov    edi,DWORD PTR [ecx+0x180]
  401781:	mov    esi,edi
  401783:	sub    ebx,ebx
  401785:	dec    ebx
  401786:	and    ebx,0x401ebe
  40178c:	mov    edi,0x45ae3219
  401791:	xor    eax,eax
  401793:	cmp    eax,0x6bc
  401798:	je     0x4017b5
  40179a:	sub    eax,0xfffffffc
  40179d:	mov    edx,edi
  40179f:	add    edx,DWORD PTR [ebx]
  4017a1:	sub    edx,0x1
  4017a4:	mov    DWORD PTR [esi],edx
  4017a6:	push   DWORD PTR [ebx]
  4017a8:	mov    edi,0xfffffffc
  4017ad:	sub    ebx,edi
  4017af:	sub    esi,edi
  4017b1:	pop    edi
  4017b2:	dec    edi
  4017b3:	jmp    0x401793
  4017b5:	push   ecx
  4017b6:	lea    eax,[ecx]
  4017b8:	push   eax
  4017b9:	push   0x40304c
  4017be:	pop    eax
  4017bf:	notrack call DWORD PTR [eax]
  4017c2:	test   eax,eax
  4017c4:	jne    0x4017b6
  4017c6:	pop    ecx
  4017c7:	sub    esp,0xffffffd0
  4017ca:	pop    ebp
  4017cb:	ret    
	...
  4017d4:	mov    edi,edi
  4017d6:	push   ebp
  4017d7:	mov    ebp,esp
  4017d9:	sub    esp,0x2c
  4017dc:	push   ecx
  4017dd:	push   0x0
  4017df:	push   0x403004
  4017e4:	pop    eax
  4017e5:	notrack call DWORD PTR [eax]
  4017e8:	pop    ecx
  4017e9:	push   ecx
  4017ea:	push   ebx
  4017eb:	push   ebx
  4017ec:	push   DWORD PTR [ecx+0x1a0]
  4017f2:	call   0x4016ec
  4017f7:	add    esp,0xc
  4017fa:	pop    ecx
  4017fb:	push   ecx
  4017fc:	mov    ebx,0x0
  401801:	push   ebx
  401802:	push   0x403080
  401807:	pop    eax
  401808:	notrack call DWORD PTR [eax]
  40180b:	pop    ecx
  40180c:	sub    esp,0xffffffd4
  40180f:	mov    ebp,DWORD PTR [esp]
  401812:	add    esp,0x4
  401815:	ret    
  401816:	add    BYTE PTR [eax],al
  401818:	mov    edi,edi
  40181a:	push   ebp
  40181b:	mov    ebp,esp
  40181d:	sub    esp,0x2c
  401820:	push   ecx
  401821:	mov    eax,0x0
  401826:	push   eax
  401827:	push   0x40306c
  40182c:	pop    eax
  40182d:	notrack call DWORD PTR [eax]
  401830:	pop    ecx
  401831:	push   ecx
  401832:	push   DWORD PTR [ecx+0x224]
  401838:	push   DWORD PTR [ecx+0xf8]
  40183e:	push   DWORD PTR [ecx+0x130]
  401844:	push   DWORD PTR [ecx+0x28]
  401847:	call   0x40141c
  40184c:	add    esp,0x10
  40184f:	pop    ecx
  401850:	push   ecx
  401851:	mov    edx,0x0
  401856:	push   edx
  401857:	push   0x403080
  40185c:	pop    eax
  40185d:	notrack call DWORD PTR [eax]
  401860:	pop    ecx
  401861:	sub    esp,0xffffffd4
  401864:	mov    ebp,DWORD PTR [esp]
  401867:	add    esp,0x4
  40186a:	ret    
  40186b:	add    BYTE PTR [ebx-0x1374aa01],cl
  401871:	sub    esp,0x30
  401874:	push   ecx
  401875:	push   eax
  401876:	push   edi
  401877:	push   DWORD PTR [ecx+0x3a8]
  40187d:	call   0x401c34
  401882:	add    esp,0xc
  401885:	pop    ecx
  401886:	push   ecx
  401887:	push   0x0
  401889:	push   0x40300c
  40188e:	pop    eax
  40188f:	notrack call DWORD PTR [eax]
  401892:	pop    ecx
  401893:	push   ecx
  401894:	lea    eax,[ecx]
  401896:	push   eax
  401897:	push   0x40304c
  40189c:	pop    eax
  40189d:	notrack call DWORD PTR [eax]
  4018a0:	test   eax,eax
  4018a2:	jne    0x401894
  4018a4:	pop    ecx
  4018a5:	sub    esp,0xffffffd0
  4018a8:	mov    ebp,DWORD PTR [esp]
  4018ab:	add    esp,0x4
  4018ae:	ret    
	...
  4018b7:	add    BYTE PTR [ebx-0x1374aa01],cl
  4018bd:	sub    esp,0x24
  4018c0:	push   ecx
  4018c1:	push   DWORD PTR [ecx+0x19c]
  4018c7:	push   DWORD PTR [ecx+0x23c]
  4018cd:	push   DWORD PTR [ecx+0x264]
  4018d3:	call   0x401818
  4018d8:	add    esp,0xc
  4018db:	pop    ecx
  4018dc:	push   ecx
  4018dd:	push   0x0
  4018df:	push   0x403080
  4018e4:	pop    eax
  4018e5:	notrack call DWORD PTR [eax]
  4018e8:	pop    ecx
  4018e9:	push   ecx
  4018ea:	mov    esi,0x0
  4018ef:	push   esi
  4018f0:	push   0x40306c
  4018f5:	pop    eax
  4018f6:	notrack call DWORD PTR [eax]
  4018f9:	pop    ecx
  4018fa:	sub    esp,0xffffffdc
  4018fd:	mov    ebp,DWORD PTR [esp]
  401900:	add    esp,0x4
  401903:	ret    
	...
  401910:	mov    edi,edi
  401912:	push   ebp
  401913:	mov    ebp,esp
  401915:	sub    esp,0x2c
  401918:	push   ecx
  401919:	push   eax
  40191a:	push   esi
  40191b:	push   esi
  40191c:	push   edi
  40191d:	call   0x401ddc
  401922:	add    esp,0x10
  401925:	pop    ecx
  401926:	push   ecx
  401927:	lea    edx,[ecx]
  401929:	push   edx
  40192a:	push   0x40304c
  40192f:	pop    eax
  401930:	notrack call DWORD PTR [eax]
  401933:	test   eax,eax
  401935:	jne    0x401927
  401937:	pop    ecx
  401938:	push   ecx
  401939:	push   0x0
  40193b:	push   0x403040
  401940:	pop    eax
  401941:	notrack call DWORD PTR [eax]
  401944:	pop    ecx
  401945:	sub    esp,0xffffffd4
  401948:	mov    ebp,DWORD PTR [esp]
  40194b:	add    esp,0x4
  40194e:	ret    
  40194f:	add    BYTE PTR [eax],al
  401951:	add    BYTE PTR [eax],al
  401953:	add    BYTE PTR [ebx-0x1374aa01],cl
  401959:	sub    esp,0x50
  40195c:	push   ecx
  40195d:	mov    edi,0x0
  401962:	push   edi
  401963:	push   0x403004
  401968:	pop    eax
  401969:	notrack call DWORD PTR [eax]
  40196c:	pop    ecx
  40196d:	push   ecx
  40196e:	push   DWORD PTR [ecx+0xb8]
  401974:	push   DWORD PTR [ecx+0x328]
  40197a:	push   eax
  40197b:	push   ebx
  40197c:	call   0x401348
  401981:	add    esp,0x10
  401984:	pop    ecx
  401985:	push   ecx
  401986:	push   0x0
  401988:	push   0x40301c
  40198d:	pop    eax
  40198e:	notrack call DWORD PTR [eax]
  401991:	pop    ecx
  401992:	sub    esp,0xffffffb0
  401995:	mov    ebp,DWORD PTR [esp]
  401998:	add    esp,0x4
  40199b:	ret    
  40199c:	add    BYTE PTR [eax],al
  40199e:	add    BYTE PTR [eax],al
  4019a0:	mov    edi,edi
  4019a2:	push   ebp
  4019a3:	mov    ebp,esp
  4019a5:	sub    esp,0x20
  4019a8:	push   ecx
  4019a9:	push   DWORD PTR [ecx+0x21c]
  4019af:	push   DWORD PTR [ecx+0x3f0]
  4019b5:	push   DWORD PTR [ecx+0x130]
  4019bb:	push   esi
  4019bc:	call   0x40172c
  4019c1:	add    esp,0x10
  4019c4:	pop    ecx
  4019c5:	push   ecx
  4019c6:	push   0x0
  4019c8:	push   0x40303c
  4019cd:	pop    eax
  4019ce:	notrack call DWORD PTR [eax]
  4019d1:	pop    ecx
  4019d2:	push   ecx
  4019d3:	mov    edx,0x0
  4019d8:	push   edx
  4019d9:	push   0x403024
  4019de:	pop    eax
  4019df:	notrack call DWORD PTR [eax]
  4019e2:	pop    ecx
  4019e3:	sub    esp,0xffffffe0
  4019e6:	mov    ebp,DWORD PTR [esp]
  4019e9:	add    esp,0x4
  4019ec:	ret    
  4019ed:	add    BYTE PTR [eax],al
  4019ef:	add    BYTE PTR [ebx-0x1374aa01],cl
  4019f5:	sub    esp,0x24
  4019f8:	push   ecx
  4019f9:	mov    ebx,0x0
  4019fe:	push   ebx
  4019ff:	push   0x403014
  401a04:	pop    eax
  401a05:	notrack call DWORD PTR [eax]
  401a08:	pop    ecx
  401a09:	push   ecx
  401a0a:	push   ebx
  401a0b:	push   DWORD PTR [ecx+0x50]
  401a0e:	call   0x4013d4
  401a13:	add    esp,0x8
  401a16:	pop    ecx
  401a17:	push   ecx
  401a18:	push   0x0
  401a1a:	push   0x40303c
  401a1f:	pop    eax
  401a20:	notrack call DWORD PTR [eax]
  401a23:	pop    ecx
  401a24:	sub    esp,0xffffffdc
  401a27:	mov    ebp,DWORD PTR [esp]
  401a2a:	add    esp,0x4
  401a2d:	ret    
  401a2e:	add    BYTE PTR [eax],al
  401a30:	add    BYTE PTR [eax],al
  401a32:	add    BYTE PTR [eax],al
  401a34:	mov    edi,edi
  401a36:	push   ebp
  401a37:	mov    ebp,esp
  401a39:	sub    esp,0x50
  401a3c:	push   ecx
  401a3d:	push   DWORD PTR [ecx+0xec]
  401a43:	push   eax
  401a44:	push   DWORD PTR [ecx+0x3c0]
  401a4a:	push   DWORD PTR [ecx+0x19c]
  401a50:	call   0x401ba4
  401a55:	add    esp,0x10
  401a58:	pop    ecx
  401a59:	push   ecx
  401a5a:	mov    ebx,0x0
  401a5f:	push   ebx
  401a60:	push   0x40306c
  401a65:	pop    eax
  401a66:	notrack call DWORD PTR [eax]
  401a69:	pop    ecx
  401a6a:	push   ecx
  401a6b:	push   0x0
  401a6d:	push   0x40301c
  401a72:	pop    eax
  401a73:	notrack call DWORD PTR [eax]
  401a76:	pop    ecx
  401a77:	sub    esp,0xffffffb0
  401a7a:	mov    ebp,DWORD PTR [esp]
  401a7d:	add    esp,0x4
  401a80:	ret    
  401a81:	add    BYTE PTR [eax],al
  401a83:	add    BYTE PTR [ebx-0x1374aa01],cl
  401a89:	sub    esp,0x44
  401a8c:	push   ecx
  401a8d:	push   eax
  401a8e:	push   edi
  401a8f:	push   esi
  401a90:	push   DWORD PTR [ecx+0xb0]
  401a96:	call   0x4014ac
  401a9b:	add    esp,0x10
  401a9e:	pop    ecx
  401a9f:	push   ecx
  401aa0:	push   0x403010
  401aa5:	pop    eax
  401aa6:	notrack call DWORD PTR [eax]
  401aa9:	pop    ecx
  401aaa:	push   ecx
  401aab:	mov    edx,0x0
  401ab0:	push   edx
  401ab1:	push   0x40303c
  401ab6:	pop    eax
  401ab7:	notrack call DWORD PTR [eax]
  401aba:	pop    ecx
  401abb:	sub    esp,0xffffffbc
  401abe:	mov    ebp,DWORD PTR [esp]
  401ac1:	add    esp,0x4
  401ac4:	ret    
  401ac5:	add    BYTE PTR [eax],al
  401ac7:	add    BYTE PTR [ebx-0x1374aa01],cl
  401acd:	sub    esp,0x20
  401ad0:	push   ecx
  401ad1:	push   0x403048
  401ad6:	pop    eax
  401ad7:	notrack call DWORD PTR [eax]
  401ada:	pop    ecx
  401adb:	push   ecx
  401adc:	push   DWORD PTR [ecx+0x194]
  401ae2:	push   DWORD PTR [ecx+0x24c]
  401ae8:	call   0x4010ec
  401aed:	add    esp,0x8
  401af0:	pop    ecx
  401af1:	push   ecx
  401af2:	push   0x0
  401af4:	push   0x40300c
  401af9:	pop    eax
  401afa:	notrack call DWORD PTR [eax]
  401afd:	pop    ecx
  401afe:	sub    esp,0xffffffe0
  401b01:	mov    ebp,DWORD PTR [esp]
  401b04:	add    esp,0x4
  401b07:	ret    
	...
  401b20:	mov    edi,edi
  401b22:	push   ebp
  401b23:	mov    ebp,esp
  401b25:	sub    esp,0x1c
  401b28:	push   ecx
  401b29:	push   0x403010
  401b2e:	pop    eax
  401b2f:	notrack call DWORD PTR [eax]
  401b32:	pop    ecx
  401b33:	push   ecx
  401b34:	push   eax
  401b35:	push   DWORD PTR [ecx+0x2e0]
  401b3b:	call   0x40145c
  401b40:	add    esp,0x8
  401b43:	pop    ecx
  401b44:	push   ecx
  401b45:	lea    ebx,[ecx]
  401b47:	push   ebx
  401b48:	push   0x40304c
  401b4d:	pop    eax
  401b4e:	notrack call DWORD PTR [eax]
  401b51:	test   eax,eax
  401b53:	jne    0x401b45
  401b55:	pop    ecx
  401b56:	sub    esp,0xffffffe4
  401b59:	mov    ebp,DWORD PTR [esp]
  401b5c:	add    esp,0x4
  401b5f:	ret    
  401b60:	mov    edi,edi
  401b62:	push   ebp
  401b63:	mov    ebp,esp
  401b65:	sub    esp,0x34
  401b68:	push   ecx
  401b69:	push   0x0
  401b6b:	push   0x40300c
  401b70:	pop    eax
  401b71:	notrack call DWORD PTR [eax]
  401b74:	pop    ecx
  401b75:	push   ecx
  401b76:	push   DWORD PTR [ecx+0x2c0]
  401b7c:	push   ebx
  401b7d:	push   edi
  401b7e:	call   0x4012ac
  401b83:	add    esp,0xc
  401b86:	pop    ecx
  401b87:	push   ecx
  401b88:	mov    edi,0x0
  401b8d:	push   edi
  401b8e:	push   0x403018
  401b93:	pop    eax
  401b94:	notrack call DWORD PTR [eax]
  401b97:	pop    ecx
  401b98:	sub    esp,0xffffffcc
  401b9b:	mov    ebp,DWORD PTR [esp]
  401b9e:	add    esp,0x4
  401ba1:	ret    
  401ba2:	add    BYTE PTR [eax],al
  401ba4:	mov    edi,edi
  401ba6:	push   ebp
  401ba7:	mov    ebp,esp
  401ba9:	sub    esp,0x28
  401bac:	push   ecx
  401bad:	push   ebx
  401bae:	push   eax
  401baf:	push   edx
  401bb0:	push   DWORD PTR [ecx+0x1ec]
  401bb6:	call   0x40104c
  401bbb:	add    esp,0x10
  401bbe:	pop    ecx
  401bbf:	push   ecx
  401bc0:	push   0x0
  401bc2:	push   0x40306c
  401bc7:	pop    eax
  401bc8:	notrack call DWORD PTR [eax]
  401bcb:	pop    ecx
  401bcc:	push   ecx
  401bcd:	mov    esi,0x0
  401bd2:	push   esi
  401bd3:	push   0x40301c
  401bd8:	pop    eax
  401bd9:	notrack call DWORD PTR [eax]
  401bdc:	pop    ecx
  401bdd:	sub    esp,0xffffffd8
  401be0:	mov    ebp,DWORD PTR [esp]
  401be3:	add    esp,0x4
  401be6:	ret    
  401be7:	add    BYTE PTR [eax],al
  401be9:	add    BYTE PTR [eax],al
  401beb:	add    BYTE PTR [ebx-0x1374aa01],cl
  401bf1:	sub    esp,0x44
  401bf4:	push   ecx
  401bf5:	push   DWORD PTR [ecx+0x284]
  401bfb:	push   DWORD PTR [ecx+0x3c]
  401bfe:	push   edx
  401bff:	call   0x401a34
  401c04:	add    esp,0xc
  401c07:	pop    ecx
  401c08:	push   ecx
  401c09:	mov    ecx,0x0
  401c0e:	push   ecx
  401c0f:	push   0x403000
  401c14:	pop    eax
  401c15:	notrack call DWORD PTR [eax]
  401c18:	pop    ecx
  401c19:	push   ecx
  401c1a:	mov    edx,0x0
  401c1f:	push   edx
  401c20:	push   0x40300c
  401c25:	pop    eax
  401c26:	notrack call DWORD PTR [eax]
  401c29:	pop    ecx
  401c2a:	sub    esp,0xffffffbc
  401c2d:	mov    ebp,DWORD PTR [esp]
  401c30:	add    esp,0x4
  401c33:	ret    
  401c34:	mov    edi,edi
  401c36:	push   ebp
  401c37:	mov    ebp,esp
  401c39:	sub    esp,0x44
  401c3c:	push   ecx
  401c3d:	push   ebx
  401c3e:	push   edi
  401c3f:	push   eax
  401c40:	call   0x401e58
  401c45:	add    esp,0xc
  401c48:	pop    ecx
  401c49:	push   ecx
  401c4a:	push   0x0
  401c4c:	push   0x403000
  401c51:	pop    eax
  401c52:	notrack call DWORD PTR [eax]
  401c55:	pop    ecx
  401c56:	push   ecx
  401c57:	mov    ebx,0x0
  401c5c:	push   ebx
  401c5d:	push   0x40303c
  401c62:	pop    eax
  401c63:	notrack call DWORD PTR [eax]
  401c66:	pop    ecx
  401c67:	sub    esp,0xffffffbc
  401c6a:	mov    ebp,DWORD PTR [esp]
  401c6d:	add    esp,0x4
  401c70:	ret    
  401c71:	add    BYTE PTR [eax],al
  401c73:	add    BYTE PTR [eax],al
  401c75:	add    BYTE PTR [eax],al
  401c77:	add    BYTE PTR [ebx-0x1374aa01],cl
  401c7d:	sub    esp,0x54
  401c80:	push   ecx
  401c81:	push   0x0
  401c83:	push   0x40301c
  401c88:	pop    eax
  401c89:	notrack call DWORD PTR [eax]
  401c8c:	pop    ecx
  401c8d:	push   ecx
  401c8e:	push   DWORD PTR [ecx+0x84]
  401c94:	push   DWORD PTR [ecx+0x284]
  401c9a:	push   DWORD PTR [ecx+0x24c]
  401ca0:	call   0x4019a0
  401ca5:	add    esp,0xc
  401ca8:	pop    ecx
  401ca9:	push   ecx
  401caa:	push   0x0
  401cac:	push   0x403004
  401cb1:	pop    eax
  401cb2:	notrack call DWORD PTR [eax]
  401cb5:	pop    ecx
  401cb6:	sub    esp,0xffffffac
  401cb9:	mov    ebp,DWORD PTR [esp]
  401cbc:	add    esp,0x4
  401cbf:	ret    
  401cc0:	mov    edi,edi
  401cc2:	push   ebp
  401cc3:	mov    ebp,esp
  401cc5:	sub    esp,0x5c
  401cc8:	push   ecx
  401cc9:	push   eax
  401cca:	push   eax
  401ccb:	call   0x401bec
  401cd0:	add    esp,0x8
  401cd3:	pop    ecx
  401cd4:	push   ecx
  401cd5:	mov    ecx,0x0
  401cda:	push   ecx
  401cdb:	push   0x403004
  401ce0:	pop    eax
  401ce1:	notrack call DWORD PTR [eax]
  401ce4:	pop    ecx
  401ce5:	push   ecx
  401ce6:	mov    esi,0x0
  401ceb:	push   esi
  401cec:	push   0x403018
  401cf1:	pop    eax
  401cf2:	notrack call DWORD PTR [eax]
  401cf5:	pop    ecx
  401cf6:	sub    esp,0xffffffa4
  401cf9:	mov    ebp,DWORD PTR [esp]
  401cfc:	add    esp,0x4
  401cff:	ret    
  401d00:	mov    edi,edi
  401d02:	push   ebp
  401d03:	mov    ebp,esp
  401d05:	sub    esp,0x5c
  401d08:	push   ecx
  401d09:	mov    edx,0x0
  401d0e:	push   edx
  401d0f:	push   0x403040
  401d14:	pop    eax
  401d15:	notrack call DWORD PTR [eax]
  401d18:	pop    ecx
  401d19:	push   ecx
  401d1a:	push   DWORD PTR [ecx+0x3cc]
  401d20:	push   esi
  401d21:	push   DWORD PTR [ecx+0x1e0]
  401d27:	call   0x401cc0
  401d2c:	add    esp,0xc
  401d2f:	pop    ecx
  401d30:	push   ecx
  401d31:	push   0x0
  401d33:	push   0x403000
  401d38:	pop    eax
  401d39:	notrack call DWORD PTR [eax]
  401d3c:	pop    ecx
  401d3d:	sub    esp,0xffffffa4
  401d40:	mov    ebp,DWORD PTR [esp]
  401d43:	add    esp,0x4
  401d46:	ret    
  401d47:	add    BYTE PTR [ebx-0x1374aa01],cl
  401d4d:	sub    esp,0x3c
  401d50:	push   ecx
  401d51:	push   0x0
  401d53:	push   0x403000
  401d58:	pop    eax
  401d59:	notrack call DWORD PTR [eax]
  401d5c:	pop    ecx
  401d5d:	push   ecx
  401d5e:	push   esi
  401d5f:	push   ebx
  401d60:	push   DWORD PTR [ecx+0x2ac]
  401d66:	push   DWORD PTR [ecx+0x84]
  401d6c:	call   0x4011e4
  401d71:	add    esp,0x10
  401d74:	pop    ecx
  401d75:	push   ecx
  401d76:	mov    ebx,0x0
  401d7b:	push   ebx
  401d7c:	push   0x403014
  401d81:	pop    eax
  401d82:	notrack call DWORD PTR [eax]
  401d85:	pop    ecx
  401d86:	sub    esp,0xffffffc4
  401d89:	mov    ebp,DWORD PTR [esp]
  401d8c:	add    esp,0x4
  401d8f:	ret    
  401d90:	mov    edi,edi
  401d92:	push   ebp
  401d93:	mov    ebp,esp
  401d95:	sub    esp,0x2c
  401d98:	push   ecx
  401d99:	push   DWORD PTR [ecx+0x2e4]
  401d9f:	push   DWORD PTR [ecx+0x234]
  401da5:	call   0x401d48
  401daa:	add    esp,0x8
  401dad:	pop    ecx
  401dae:	push   ecx
  401daf:	push   0x0
  401db1:	push   0x40300c
  401db6:	pop    eax
  401db7:	notrack call DWORD PTR [eax]
  401dba:	pop    ecx
  401dbb:	push   ecx
  401dbc:	mov    edi,0x0
  401dc1:	push   edi
  401dc2:	push   0x40301c
  401dc7:	pop    eax
  401dc8:	notrack call DWORD PTR [eax]
  401dcb:	pop    ecx
  401dcc:	sub    esp,0xffffffd4
  401dcf:	mov    ebp,DWORD PTR [esp]
  401dd2:	add    esp,0x4
  401dd5:	ret    
  401dd6:	add    BYTE PTR [eax],al
  401dd8:	add    BYTE PTR [eax],al
  401dda:	add    BYTE PTR [eax],al
  401ddc:	mov    edi,edi
  401dde:	push   ebp
  401ddf:	mov    ebp,esp
  401de1:	sub    esp,0x1c
  401de4:	push   ecx
  401de5:	push   edi
  401de6:	push   DWORD PTR [ecx+0x250]
  401dec:	call   0x401c78
  401df1:	add    esp,0x8
  401df4:	pop    ecx
  401df5:	push   ecx
  401df6:	push   0x403010
  401dfb:	pop    eax
  401dfc:	notrack call DWORD PTR [eax]
  401dff:	pop    ecx
  401e00:	push   ecx
  401e01:	mov    eax,0x0
  401e06:	push   eax
  401e07:	push   0x40301c
  401e0c:	pop    eax
  401e0d:	notrack call DWORD PTR [eax]
  401e10:	pop    ecx
  401e11:	sub    esp,0xffffffe4
  401e14:	mov    ebp,DWORD PTR [esp]
  401e17:	add    esp,0x4
  401e1a:	ret    
  401e1b:	add    BYTE PTR [ebx-0x1374aa01],cl
  401e21:	sub    esp,0x38
  401e24:	push   ecx
  401e25:	push   edx
  401e26:	push   eax
  401e27:	call   0x4016a0
  401e2c:	add    esp,0x8
  401e2f:	pop    ecx
  401e30:	push   ecx
  401e31:	push   0x0
  401e33:	push   0x403080
  401e38:	pop    eax
  401e39:	notrack call DWORD PTR [eax]
  401e3c:	pop    ecx
  401e3d:	push   ecx
  401e3e:	mov    edx,0x0
  401e43:	push   edx
  401e44:	push   0x403018
  401e49:	pop    eax
  401e4a:	notrack call DWORD PTR [eax]
  401e4d:	pop    ecx
  401e4e:	sub    esp,0xffffffc8
  401e51:	mov    ebp,DWORD PTR [esp]
  401e54:	add    esp,0x4
  401e57:	ret    
  401e58:	mov    edi,edi
  401e5a:	push   ebp
  401e5b:	mov    ebp,esp
  401e5d:	sub    esp,0x40
  401e60:	push   ecx
  401e61:	push   ebx
  401e62:	push   edx
  401e63:	call   0x401b20
  401e68:	add    esp,0x8
  401e6b:	pop    ecx
  401e6c:	push   ecx
  401e6d:	push   0x0
  401e6f:	push   0x403024
  401e74:	pop    eax
  401e75:	notrack call DWORD PTR [eax]
  401e78:	pop    ecx
  401e79:	push   ecx
  401e7a:	push   0x403010
  401e7f:	pop    eax
  401e80:	notrack call DWORD PTR [eax]
  401e83:	pop    ecx
  401e84:	sub    esp,0xffffffc0
  401e87:	mov    ebp,DWORD PTR [esp]
  401e8a:	add    esp,0x4
  401e8d:	ret    
	...
  401e9a:	add    BYTE PTR [eax],al
  401e9c:	mov    cl,0x9f
  401e9e:	lea    ebx,[ebx-0x50550fb4]
  401ea4:	add    bh,BYTE PTR [eax-0x6a]
  401ea7:	in     al,0xdb
  401ea9:	push   ds
  401eaa:	adc    ebx,DWORD PTR [ecx+edi*2]
  401ead:	xlat   BYTE PTR ds:[ebx]
  401eae:	cmp    esi,DWORD PTR [ebx+eax*4-0x10]
  401eb2:	fild   DWORD PTR [ecx]
  401eb4:	fsub   DWORD PTR [ecx]
  401eb6:	dec    ecx
  401eb7:	out    0x24,eax
  401eb9:	test   DWORD PTR [edi+0x3801da7b],eax
  401ebf:	mov    es:0x5de0b212,al
  401ec5:	in     eax,dx
  401ec6:	push   eax
  401ec7:	and    BYTE PTR [ecx],bl
  401ec9:	ins    BYTE PTR es:[edi],dx
  401eca:	or     BYTE PTR [ebp+0x2c],ch
  401ecd:	in     eax,dx
  401ece:	and    eax,0xe0d4575c
  401ed3:	clc    
  401ed4:	push   es
  401ed5:	push   cs
  401ed6:	pop    ds
  401ed7:	mov    edi,DWORD PTR [ebp+0x428fcbe6]
  401edd:	sbb    DWORD PTR [edi],esi
  401edf:	mov    ebx,0xb6cb4bbd
  401ee4:	inc    edx
  401ee5:	and    dh,BYTE PTR [edi]
  401ee7:	scas   al,BYTE PTR es:[edi]
  401ee8:	mov    ebp,0x4284cb49
  401eed:	call   0x7bfdc829
  401ef2:	retf   
  401ef3:	ret    0xf042
  401ef6:	aaa    
  401ef7:	cmp    eax,0xc21b67bd
  401efc:	sbb    DWORD PTR [edi+edi*4],esp
  401eff:	inc    ecx
  401f00:	sub    DWORD PTR [eax],ebx
  401f02:	les    esi,FWORD PTR [esi]
  401f04:	daa    
  401f05:	call   0x8e18ecc8
  401f0a:	outs   dx,DWORD PTR ds:[esi]
  401f0b:	sbb    bl,BYTE PTR [ebx]
  401f0d:	js     0x401ea2
  401f0f:	in     eax,0x41
  401f11:	adc    esp,DWORD PTR [esp+edx*8-0x32]
  401f15:	in     al,dx
  401f16:	sahf   
  401f17:	sub    ebx,esi
  401f19:	sti    
  401f1a:	push   esi
  401f1b:	xlat   BYTE PTR ds:[ebx]
  401f1c:	and    DWORD PTR [esi*1-0x3d212591],eax
  401f23:	sti    
  401f24:	mov    BYTE PTR [ecx-0x1a1c8f7f],cl
  401f2a:	jmp    0x89bba106
  401f2f:	jl     0x401f02
  401f31:	or     esi,0xffffff8b
  401f34:	mov    bh,0x82
  401f36:	sahf   
  401f37:	je     0x401ee9
  401f39:	ret    
  401f3a:	(bad)  
  401f3b:	lock mov ah,0xa4
  401f3e:	je     0x401fb4
  401f40:	lods   al,BYTE PTR ds:[esi]
  401f41:	retf   
  401f42:	loop   0x401f22
  401f44:	push   edx
  401f45:	mov    ch,BYTE PTR [eax]
  401f47:	stos   BYTE PTR es:[edi],al
  401f48:	repz jns 0x401fa8
  401f4b:	sbb    ah,BYTE PTR ds:0xdb4de5f0
  401f51:	pop    ds
  401f52:	sbb    eax,0xeb8c8cb2
  401f57:	dec    ebp
  401f58:	jae    0x401f37
  401f5a:	pop    ss
  401f5b:	mov    cl,0xe2
  401f5d:	xor    dh,BYTE PTR [esi+0x47]
  401f60:	and    esi,DWORD PTR [ebx-0x74]
  401f63:	mov    eax,0xfd03dcdc
  401f68:	jmp    0x401f86
  401f6a:	inc    BYTE PTR [edx]
  401f6c:	into   
  401f6d:	(bad)  
  401f71:	arpl   WORD PTR [esi+eax*8+0x396b27b6],bx
  401f78:	dec    ecx
  401f79:	xor    eax,0xeeeb4df5
  401f7e:	arpl   WORD PTR [edx+0x659f160e],bx
  401f84:	fldenv [ecx]
  401f86:	push   0x9269269a
  401f8b:	rcr    cl,1
  401f8d:	add    BYTE PTR [eax+0x2e],dh
  401f90:	pushf  
  401f91:	arpl   cx,bp
  401f93:	sar    BYTE PTR [ecx-0x51835b3c],1
  401f99:	movs   DWORD PTR es:[edi],DWORD PTR ds:[esi]
  401f9a:	pop    esi
  401f9b:	xlat   BYTE PTR ds:[ebx]
  401f9c:	test   eax,0xa64cd859
  401fa1:	test   DWORD PTR [eax-0x51a1a6f6],0xa9a0fe4d
  401fab:	retf   0x88e9
  401fae:	pop    esp
  401faf:	xor    eax,0x6ec0216
  401fb4:	ja     0x401fb8
  401fb6:	sbb    al,0x5f
  401fb8:	cmp    BYTE PTR [esi],0xfc
  401fbb:	mov    al,ds:0x981c369f
  401fc0:	mov    eax,0xd2795afd
  401fc5:	pop    edx
  401fc6:	fdivr  st(0),st
  401fc8:	xor    DWORD PTR ds:0xf2ce3f26,ecx
  401fce:	(bad)  [ecx]
  401fd0:	and    BYTE PTR [eax+0x26],0x24
  401fd4:	mov    gs,WORD PTR [edx]
  401fd6:	pop    ecx
  401fd7:	dec    eax
  401fd8:	ret    0x1329
  401fdb:	mov    esp,0x99ee2994
  401fe0:	ja     0x40200c
  401fe2:	jle    0x40204c
  401fe4:	fild   QWORD PTR [eax]
  401fe6:	fisub  DWORD PTR [edx]
  401fe8:	lock bound esp,QWORD PTR [ebx]
  401feb:	shl    DWORD PTR [ebx+edi*8+0x5c5784de],1
  401ff2:	scas   eax,DWORD PTR es:[edi]
  401ff3:	dec    ecx
  401ff4:	lods   al,BYTE PTR ds:[esi]
  401ff5:	in     al,dx
  401ff6:	pop    DWORD PTR [ebx-0x33]
  401ff9:	sub    edi,esi
  401ffb:	adc    edx,DWORD PTR [ebx-0x1d]
  401ffe:	mov    ebx,0x3f1fc12d
  402003:	loop   0x401ffa
  402005:	sub    ecx,ecx
  402007:	jge    0x401f9e
  402009:	sbb    eax,0x572b074d
  40200e:	test   BYTE PTR [ebx+0x3c91b11c],0x58
  402015:	mov    DWORD PTR [ecx+0x55],ebx
  402018:	lods   al,BYTE PTR ds:[esi]
  402019:	jbe    0x401fc4
  40201b:	xor    eax,0xeea0151c
  402020:	retf   
  402021:	pusha  
  402022:	adc    DWORD PTR fs:[edx+eiz*4],esi
  402026:	adc    eax,0xfdd5cb03
  40202b:	xchg   DWORD PTR [esi+esi*1+0x19a77308],esi
  402032:	test   DWORD PTR [ecx-0x55],esp
  402035:	ss into 
  402037:	cmc    
  402038:	movs   DWORD PTR es:[edi],DWORD PTR ds:[esi]
  402039:	sbb    ebx,DWORD PTR [esi+0x633bab0e]
  40203f:	inc    edi
  402040:	popa   
  402041:	sbb    eax,0xd5f678d2
  402046:	(bad)  
  402048:	xchg   esp,eax
  402049:	cmc    
  40204a:	sbb    edi,DWORD PTR [esi-0x660c9f96]
  402050:	mul    BYTE PTR [edx]
  402052:	(bad)  
  402053:	mov    gs,ebx
  402055:	mov    ss,WORD PTR [edi*2+0x6aee7115]
  40205c:	ins    BYTE PTR es:[edi],dx
  40205d:	(bad)  
  40205e:	adc    al,0x95
  402060:	jmp    0x40203a
  402062:	out    dx,al
  402063:	stos   BYTE PTR es:[edi],al
  402064:	adc    al,0x27
  402066:	adc    ecx,ebx
  402068:	push   ebx
  402069:	das    
  40206a:	jp     0x40209c
  40206c:	cmp    cl,al
  40206e:	jo     0x40204a
  402070:	retf   
  402071:	ds xchg edx,eax
  402073:	mov    DWORD PTR [ebx],esi
  402075:	mul    DWORD PTR [eax-0x45f7338a]
  40207b:	adc    al,0x74
  40207d:	add    edx,ebx
  40207f:	sub    ebx,DWORD PTR [eax-0x241378cb]
  402085:	into   
  402086:	push   es
  402087:	adc    al,0xf
  402089:	sub    DWORD PTR [edi-0x3b25eb08],eax
  40208f:	inc    ebx
  402090:	jbe    0x402029
  402092:	mov    di,0xf280
  402096:	adc    al,0x59
  402098:	or     BYTE PTR [esi+0xa],bh
  40209b:	or     eax,0xf30ec3ef
  4020a0:	xor    BYTE PTR [ecx+0x67707100],dh
  4020a6:	add    cl,BYTE PTR [edi-0x5ebfdc71]
  4020ac:	stc    
  4020ad:	push   esp
  4020ae:	retf   0x5c5d
  4020b1:	mov    edi,0x40a61920
  4020b6:	loop   0x4020fb
  4020b8:	and    ebx,DWORD PTR [eax]
  4020ba:	test   eax,0xba040130
  4020bf:	pop    ds
  4020c0:	out    0x3a,eax
  4020c2:	dec    esp
  4020c3:	loopne 0x4020dd
  4020c5:	sbb    eax,0xe33f9837
  4020ca:	int    0x67
  4020cc:	rcl    BYTE PTR [ecx-0x6dbbdcbc],0x85
  4020d3:	loope  0x4020b4
  4020d5:	ins    DWORD PTR es:[edi],dx
  4020d6:	jge    0x4020f6
  4020d8:	and    BYTE PTR [ecx-0x411bfa07],dl
  4020de:	cmp    al,0xba
  4020e0:	fbld   TBYTE PTR [ecx-0x2bdbc6af]
  4020e6:	in     eax,dx
  4020e7:	push   ecx
  4020e8:	xchg   edx,eax
  4020e9:	lods   al,BYTE PTR ds:[esi]
  4020ea:	adc    eax,0xe3d86dae
  4020ef:	mov    BYTE PTR ds:0x78c5122b,0xe1
  4020f6:	jne    0x402132
  4020f8:	cld    
  4020f9:	mov    BYTE PTR [eax-0x3889a440],dl
  4020ff:	inc    ebx
  402100:	sub    DWORD PTR [edx-0x50],ecx
  402103:	shr    BYTE PTR ds:0x223fa7b5,0xa1
  40210a:	out    0x36,al
  40210c:	out    dx,al
  40210d:	popa   
  40210e:	andnps xmm2,XMMWORD PTR [eax]
  402111:	dec    esp
  402112:	js     0x40217f
  402114:	gs scas eax,DWORD PTR es:[edi]
  402116:	mov    ch,0x8b
  402118:	es pop ds
  40211a:	stos   DWORD PTR es:[edi],eax
  40211b:	lds    ebp,FWORD PTR [ecx]
  40211d:	xor    eax,0x22273ec1
  402122:	inc    eax
  402123:	pop    ss
  402124:	in     eax,0x33
  402126:	dec    ebp
  402127:	out    dx,eax
  402128:	lahf   
  402129:	mov    WORD PTR [ebp-0x5f],es
  40212c:	jmp    0x4020e7
  40212e:	int    0xeb
  402130:	dec    eax
  402131:	dec    ecx
  402132:	mov    ecx,es
  402134:	cmp    al,0x77
  402136:	jmp    0x13a6:0x18896c59
  40213d:	in     al,dx
  40213e:	out    dx,al
  40213f:	out    0x30,al
  402141:	pop    ss
  402142:	push   ss
  402143:	ds into 
  402145:	call   0x16c26335
  40214a:	mov    esp,edx
  40214c:	xchg   ecx,eax
  40214d:	call   0x359471e
  402152:	push   ss
  402153:	cmp    al,BYTE PTR [ebp+0x55]
  402156:	inc    ebp
  402157:	sbb    cl,BYTE PTR [ebx]
  402159:	cld    
  40215a:	adc    al,0xe5
  40215c:	dec    edx
  40215d:	adc    BYTE PTR [esi-0x62],al
  402160:	jnp    0x402166
  402162:	cmps   DWORD PTR ds:[esi],DWORD PTR es:[edi]
  402163:	icebp  
  402164:	in     eax,0xbe
  402166:	mov    ebx,0x39cced99
  40216b:	push   0xffffff88
  40216d:	outs   dx,DWORD PTR ds:[esi]
  40216e:	hlt    
  40216f:	jmp    0x40211c
  402171:	adc    eax,0x7fd823e0
  402176:	and    bl,ah
  402178:	daa    
  402179:	or     ebp,DWORD PTR [esi-0x38]
  40217c:	fdiv   st,st(4)
  40217e:	xchg   esp,eax
  40217f:	ret    0xabdd
  402182:	outs   dx,BYTE PTR ds:[esi]
  402183:	cmp    eax,0xd28ad922
  402188:	popa   
  402189:	test   al,0x78
  40218b:	sub    eax,0x807d5a9e
  402190:	in     eax,dx
  402191:	popf   
  402192:	mov    BYTE PTR [edx+0x63],bh
  402195:	in     eax,dx
  402196:	ds (bad) 
  402198:	in     eax,dx
  402199:	fs adc al,0x94
  40219c:	push   ss
  40219d:	add    ebp,esi
  40219f:	jnp    0x40218a
  4021a1:	cld    
  4021a2:	imul   eax,DWORD PTR [edi],0xffffffff
  4021a5:	pop    es
  4021a6:	out    0x62,eax
  4021a8:	add    eax,0xfaad1b60
  4021ad:	lahf   
  4021ae:	ds aam 0x9
  4021b1:	test   ah,al
  4021b3:	cmp    esi,esi
  4021b5:	jnp    0x4021f4
  4021b7:	sbb    dl,BYTE PTR [esi]
  4021b9:	sbb    DWORD PTR [edx],0xfffffff2
  4021bc:	inc    ebx
  4021bd:	(bad)  
  4021be:	xchg   ebp,eax
  4021bf:	cmp    DWORD PTR [ebx+edi*2+0x6e4d8ef8],eax
  4021c6:	lea    ebx,[edx-0x49]
  4021c9:	les    esi,FWORD PTR ds:0x76a1f60c
  4021cf:	hlt    
  4021d0:	cmp    edx,edx
  4021d2:	xchg   esp,eax
  4021d3:	xor    ch,al
  4021d5:	cmp    eax,0xd63bcf6e
  4021da:	fwait
  4021db:	adc    dh,BYTE PTR [ebx+0x7131f483]
  4021e1:	sbb    BYTE PTR [edi+0x20],0xdf
  4021e5:	jle    0x4021ba
  4021e7:	inc    edi
  4021e8:	and    DWORD PTR [ecx-0xdca47d1],edx
  4021ee:	mov    ebx,0x770d1a4c
  4021f3:	sbb    esp,esi
  4021f5:	add    cl,BYTE PTR [ebx+0x7b7e70e4]
  4021fb:	aas    
  4021fc:	(bad)  
  4021fd:	xchg   ecx,eax
  4021fe:	xchg   eax,eax
  402200:	outs   dx,DWORD PTR ds:[esi]
  402201:	les    eax,FWORD PTR [edi-0x2ab819c2]
  402207:	sbb    dh,BYTE PTR [edx+0x10]
  40220a:	mov    dl,0xae
  40220c:	add    esi,DWORD PTR [ecx-0x4f]
  40220f:	adc    al,0x5d
  402211:	jp     0x40226b
  402213:	cwde   
  402214:	test   DWORD PTR [ebx+0x3f7d9c37],eax
  40221a:	push   esi
  40221b:	dec    esp
  40221c:	push   cs
  40221d:	mov    ah,0x65
  40221f:	(bad)  
  402220:	icebp  
  402221:	dec    ebx
  402222:	popf   
  402223:	and    edi,edx
  402225:	mov    bl,0x64
  402227:	fdivr  QWORD PTR [edi+0x40239e6b]
  40222d:	jl     0x402274
  40222f:	fdivr  QWORD PTR [edi+0x47dd1383]
  402235:	jl     0x402226
  402237:	and    ah,BYTE PTR [eax+0x5fdd125a]
  40223d:	xor    eax,eax
  40223f:	scas   al,BYTE PTR es:[edi]
  402240:	aam    0xf2
  402242:	sti    
  402243:	pop    edx
  402244:	sub    ecx,DWORD PTR ds:0xf29c8d07
  40224a:	cli    
  40224b:	jb     0x40223c
  40224d:	or     edx,DWORD PTR [ebx+0x6eb2f957]
  402253:	test   al,0x6
  402255:	adc    DWORD PTR [eax+ebp*4-0x46],0x4a18b547
  40225d:	fcomp  QWORD PTR [edx-0x18]
  402260:	mov    ecx,0x69c5447
  402265:	cs lahf 
  402267:	mov    esp,0x89ec984
  40226c:	lock cmp DWORD PTR [esi-0x77ae1294],ebp
  402273:	mov    bh,0xcb
  402275:	mov    eax,0x2f34487a
  40227a:	sbb    eax,0xf4d0cbb7
  40227f:	inc    DWORD PTR [eax-0x7b]
  402282:	ins    BYTE PTR es:[edi],dx
  402283:	push   ecx
  402284:	js     0x402209
  402286:	xchg   esi,eax
  402287:	scas   al,BYTE PTR es:[edi]
  402288:	xchg   DWORD PTR [ecx+esi*8+0x50],esp
  40228c:	js     0x402229
  40228e:	push   0xffffff97
  402290:	pop    es
  402291:	fs xchg edi,eax
  402293:	push   0xb38f1082
  402298:	fidiv  WORD PTR [edx+0x6b0a0dc4]
  40229e:	not    DWORD PTR [edx]
  4022a0:	not    BYTE PTR [ebx+ecx*1-0x4f6481cb]
  4022a7:	int    0x81
  4022a9:	fs push edx
  4022ab:	jp     0x40229f
  4022ad:	ret    
  4022ae:	imul   esp,DWORD PTR [esi-0x5e66c3f3],0x6322e466
  4022b8:	cdq    
  4022b9:	sbb    esp,eax
  4022bb:	in     al,0xda
  4022bd:	cld    
  4022be:	fistp  DWORD PTR [ebx+0x25]
  4022c1:	add    esp,DWORD PTR [edi]
  4022c3:	in     al,dx
  4022c4:	dec    esi
  4022c5:	or     eax,0xf2b11894
  4022ca:	outs   dx,BYTE PTR ds:[esi]
  4022cb:	das    
  4022cc:	ret    
  4022cd:	adc    eax,0xea3d114d
  4022d2:	mov    ch,0x36
  4022d4:	aaa    
  4022d5:	push   ss
  4022d6:	fmul   DWORD PTR [edx+0x8aad22]
  4022dc:	xor    eax,ebx
  4022de:	stc    
  4022df:	icebp  
  4022e0:	pop    esi
  4022e1:	daa    
  4022e2:	dec    esi
  4022e3:	xchg   BYTE PTR [esi+eiz*1],ch
  4022e6:	sbb    al,0x5
  4022e8:	rcr    BYTE PTR [ebp+0x63],cl
  4022eb:	push   ebx
  4022ec:	cs push ss
  4022ee:	mov    ds:0xeb4246ad,al
  4022f3:	xchg   edi,eax
  4022f4:	sbb    DWORD PTR [ebx-0x29],eax
  4022f7:	fdiv   st(3),st
  4022f9:	inc    ebp
  4022fa:	jno    0x40235b
  4022fc:	push   esi
  4022fd:	je     0x402294
  4022ff:	mov    al,ds:0x5558ba9
  402304:	pop    eax
  402305:	je     0x4022b4
  402307:	push   esp
  402308:	stos   DWORD PTR es:[edi],eax
  402309:	jnp    0x402363
  40230b:	mov    ds:0xd1e54c80,eax
  402310:	xlat   BYTE PTR ds:[ebx]
  402311:	sub    BYTE PTR [edx],ch
  402313:	xor    DWORD PTR [ebp-0x40b424cd],ebx
  402319:	div    DWORD PTR [eax+edx*1-0x3a]
  40231d:	rol    DWORD PTR [edx],1
  40231f:	sti    
  402320:	out    0x7e,al
  402322:	sub    eax,edi
  402324:	jae    0x402352
  402326:	pop    edx
  402327:	and    dl,BYTE PTR [eax+0x333f8bb5]
  40232d:	stos   DWORD PTR es:[edi],eax
  40232e:	cli    
  40232f:	cmp    eax,0xd47c5519
  402334:	into   
  402335:	mov    edx,0xd0312b86
  40233a:	stc    
  40233b:	sub    BYTE PTR [edi+ebp*1+0x7d],dl
  40233f:	fst    QWORD PTR [esi-0x47]
  402342:	sub    BYTE PTR [ebx],ah
  402344:	test   eax,0xb7a03b46
  402349:	mov    eax,0x1fd39c1c
  40234e:	jno    0x402329
  402350:	js     0x4023bd
  402352:	(bad)  
  402353:	jbe    0x40232c
  402355:	in     al,0x94
  402357:	mov    DWORD PTR [eax],ebp
  402359:	daa    
  40235a:	outs   dx,BYTE PTR ds:[esi]
  40235b:	leave  
  40235c:	(bad)  
  40235d:	cs aam 0x8f
  402360:	jns    0x4023be
  402362:	es sub ecx,DWORD PTR fs:[esp+edx*1+0x3673d49c]
  40236b:	in     eax,dx
  40236c:	outs   dx,DWORD PTR ds:[esi]
  40236d:	mov    al,0xec
  40236f:	popf   
  402370:	mov    ch,bl
  402372:	and    bl,BYTE PTR [edi]
  402374:	jl     0x402398
  402376:	loopne 0x402358
  402378:	out    0x7e,eax
  40237a:	cmp    bl,BYTE PTR [edi]
  40237c:	sbb    BYTE PTR [ecx-0x2febaead],al
  402382:	pop    ss
  402383:	scas   eax,DWORD PTR es:[edi]
  402384:	jmp    0x4023c1
  402386:	jmp    0x40232b
  402388:	adc    ebx,DWORD PTR [edx]
  40238a:	push   edi
  40238b:	jmp    0x187ac188
  402390:	push   edi
  402391:	in     eax,dx
  402392:	xchg   edi,eax
  402393:	jae    0x402336
  402395:	push   es
  402396:	adc    cl,dh
  402398:	call   DWORD PTR [ecx]
  40239a:	repnz push cs
  40239c:	add    BYTE PTR [ebp+0x50],bh
  40239f:	sbb    eax,0x64124661
  4023a4:	mov    ebx,edx
  4023a6:	repnz fwait
  4023a8:	je     0x402337
  4023aa:	xor    al,0x66
  4023ac:	mov    esi,DWORD PTR [edx+0x1]
  4023af:	nop
  4023b0:	fisttp WORD PTR [ebp-0x37e08795]
  4023b6:	mov    bl,0x12
  4023b8:	mov    ecx,0x9ceca28c
  4023bd:	cmps   DWORD PTR ds:[esi],DWORD PTR es:[edi]
  4023be:	jmp    0x402417
  4023c0:	xchg   DWORD PTR [edx+ebx*1-0x18],esi
  4023c4:	mov    ah,0x16
  4023c6:	push   0x9ae94bd8
  4023cb:	lods   al,BYTE PTR ds:[esi]
  4023cc:	je     0x402359
  4023ce:	imul   ebx,DWORD PTR [ecx-0x43673821],0xb92abd58
  4023d8:	mov    WORD PTR [esi-0x15746329],ss
  4023de:	out    dx,eax
  4023df:	xchg   DWORD PTR [esi+0x15],esi
  4023e2:	adc    eax,DWORD PTR [ecx]
  4023e4:	dec    BYTE PTR [esi]
  4023e6:	or     esp,DWORD PTR [eax-0x3b]
  4023e9:	push   ecx
  4023ea:	pop    edi
  4023eb:	or     al,0xa7
  4023ed:	scas   al,BYTE PTR es:[edi]
  4023ee:	mov    ds:0x8dc5cb5b,eax
  4023f3:	or     BYTE PTR [ebp-0x39921759],bl
  4023f9:	lods   al,BYTE PTR ds:[esi]
  4023fa:	sbb    eax,ebp
  4023fc:	cmp    eax,0xca8da9d8
  402401:	jnp    0x40245b
  402403:	enter  0x935,0x6a
  402407:	lods   al,BYTE PTR ds:[esi]
  402408:	pop    ss
  402409:	popa   
  40240a:	cwde   
  40240b:	mov    ebx,0xaade0d51
  402410:	push   ss
  402411:	pop    ecx
  402412:	fwait
  402413:	lds    ebx,FWORD PTR [ebx-0x5]
  402416:	mov    bh,0x39
  402418:	cli    
  402419:	or     al,0xce
  40241b:	mov    dl,BYTE PTR [edx]
  40241d:	jle    0x402443
  40241f:	mov    BYTE PTR [ecx-0x14],0x1e
  402423:	movs   BYTE PTR es:[edi],BYTE PTR ds:[esi]
  402424:	lds    ebp,FWORD PTR [ecx-0x1d]
  402427:	mov    cl,0x46
  402429:	out    dx,al
  40242a:	outs   dx,DWORD PTR ds:[esi]
  40242b:	mov    ds:0xb39a7c09,al
  402430:	fisubr WORD PTR [edx-0x1fdeb398]
  402436:	(bad)  
  402437:	xlat   BYTE PTR ds:[ebx]
  402438:	pop    edi
  402439:	out    0x3e,eax
  40243b:	sub    BYTE PTR [eax-0x4720d1e8],ah
  402441:	fidivr DWORD PTR [eax+0x68]
  402444:	shr    bl,cl
  402446:	xor    eax,0x7d0dac25
  40244b:	inc    ebx
  40244c:	dec    BYTE PTR [edx+0x30]
  40244f:	ins    DWORD PTR es:[edi],dx
  402450:	lds    ebx,FWORD PTR [edi-0x2f]
  402453:	call   0xdbf51c9e
  402458:	lds    ebp,FWORD PTR [eax+0x11]
  40245b:	jge    0x402496
  40245d:	push   0x98666b46
  402462:	mov    esp,0x8bf4f694
  402467:	fisttp DWORD PTR [ebx+ecx*8+0x58b7ad7b]
  40246e:	xchg   edi,eax
  40246f:	scas   eax,DWORD PTR es:[edi]
  402470:	dec    eax
  402471:	cmps   DWORD PTR ds:[esi],DWORD PTR es:[edi]
  402472:	imul   edx,DWORD PTR [eax-0x49],0x58
  402476:	xchg   edi,eax
  402477:	pop    ss
  402478:	dec    ecx
  402479:	cmps   DWORD PTR ds:[esi],DWORD PTR es:[edi]
  40247a:	imul   ebp,eax,0x79
  40247d:	mov    edi,0xfaed0dca
  402482:	test   DWORD PTR [ecx+edi*2-0x4e],ecx
  402486:	jecxz  0x40246e
  402488:	push   esi
  402489:	ret    0x9a27
  40248c:	xchg   edi,eax
  40248d:	inc    eax
  40248e:	jmp    0x4024f5
  402490:	push   0xf62804aa
  402495:	push   ebx
  402496:	adc    bh,0x7f
  402499:	popf   
  40249a:	or     ebx,DWORD PTR [edi-0x4e4e3746]
  4024a0:	mov    al,ah
  4024a2:	test   DWORD PTR [ebx+ebx*8-0x18],ebp
  4024a6:	jecxz  0x40246e
  4024a8:	hlt    
  4024a9:	mov    edi,?
  4024ab:	cld    
  4024ac:	pop    esp
  4024ad:	cmps   BYTE PTR ds:[esi],BYTE PTR es:[edi]
  4024ae:	int3   
  4024af:	inc    esp
  4024b0:	into   
  4024b1:	sbb    ebp,DWORD PTR [esi+0x3fe6a5bf]
  4024b7:	cmp    BYTE PTR [esi+0x5489c6d9],cl
  4024bd:	and    edx,DWORD PTR [ebp-0x2aa5c8c7]
  4024c3:	xor    ch,cl
  4024c5:	or     eax,0xf232df2d
  4024ca:	sub    al,0x8b
  4024cc:	int    0xc
  4024ce:	sub    eax,DWORD PTR [ebp+0x6758e3bd]
  4024d4:	inc    edi
  4024d5:	sbb    eax,0xdf4398aa
  4024da:	shr    BYTE PTR [ebx-0x43],0x20
  4024de:	inc    edx
  4024df:	jmp    0x402476
  4024e1:	ficom  WORD PTR ds:0x5521d435
  4024e7:	dec    ebx
  4024e8:	sub    al,0xde
  4024ea:	lods   eax,DWORD PTR ds:[esi]
  4024eb:	push   ds
  4024ec:	xlat   BYTE PTR ds:[ebx]
  4024ed:	mov    edx,DWORD PTR [ebp+0x4b]
  4024f0:	sub    bl,ah
  4024f2:	lods   eax,DWORD PTR ds:[esi]
  4024f3:	mov    ah,0xd5
  4024f5:	mov    ds:0x80804aac,eax
  4024fa:	xlat   BYTE PTR ds:[ebx]
  4024fb:	jns    0x402481
  4024fd:	sub    BYTE PTR [ebx],0x86
  402500:	adc    BYTE PTR ds:[edi-0x2e],ah
  402504:	rol    al,0x96
  402507:	add    ah,dl
  402509:	mov    al,ds:0xac2239f6
  40250e:	pop    ecx
  40250f:	jle    0x40249e
  402511:	and    BYTE PTR [esi-0x6399f443],al
  402517:	into   
  402518:	cmp    al,0xfc
  40251a:	inc    edi
  40251b:	movs   BYTE PTR es:[edi],BYTE PTR ds:[esi]
  40251c:	pushf  
  40251d:	pop    ds
  40251e:	fwait
  40251f:	sbb    BYTE PTR [edx+0x4d],al
  402522:	add    dl,BYTE PTR [esi-0x723f78a6]
  402528:	out    dx,al
  402529:	adc    al,0x1a
  40252b:	loopne 0x4024eb
  40252d:	add    ah,dh
  40252f:	jmp    0x82a2a81f
  402534:	scas   al,BYTE PTR es:[edi]
  402535:	cmps   BYTE PTR ds:[esi],BYTE PTR es:[edi]
  402536:	test   al,0x0
  402538:	pop    ebp
  402539:	add    BYTE PTR [ebx],dl
  40253b:	out    0xb9,al
  40253d:	add    BYTE PTR [edi],ch
  40253f:	ss inc edi
  402541:	mov    cl,BYTE PTR [esi+0x13d9b12]
  402547:	lods   eax,DWORD PTR ds:[esi]
  402548:	shr    eax,0x3
  40254b:	out    0x7d,al
  40254d:	into   
  40254e:	call   FWORD PTR [ecx]
  402550:	xor    BYTE PTR [ecx],0x3
  402553:	out    0x7d,al
  402555:	into   
  402556:	call   FWORD PTR [ecx]
  402558:	xor    BYTE PTR [ecx],0x3
  40255b:	out    0x7d,al
  40255d:	into   
  40255e:	call   FWORD PTR [ecx]
  402560:	xor    BYTE PTR [ecx],0x3
  402563:	out    0x7d,al
  402565:	into   
  402566:	call   FWORD PTR [ecx]
  402568:	xor    BYTE PTR [ecx],0x1f
  40256b:	gs jle 0x40253c
  40256e:	jecxz  0x40252a
  402570:	xchg   BYTE PTR [ecx],dh
  402572:	pop    ds
  402573:	dec    ecx
  402574:	jns    0x402544
  402576:	imul   ecx,DWORD PTR [edi-0x539a908e],0x4e
  40257d:	and    ebx,ecx
  40257f:	cmp    al,0x88
  402581:	push   edx
  402582:	ret    
  402583:	or     DWORD PTR [edx],eax
  402585:	call   0x5c56:0x1f2b2208
  40258c:	std    
  40258d:	and    cl,BYTE PTR [esp+ecx*4+0x658e2241]
  402594:	.byte 0x15
  402595:	jns    0x40251a
  402597:	.byte 0x8f
