
4a84290898f282b433858a41bbdad7a6b92f1e27ff557fd2f51978c00612e2bb.exe:     file format pei-i386


Disassembly of section .text:

004d0000 <.text>:
  4d0000:	add    BYTE PTR [eax],al
  4d0002:	add    BYTE PTR [eax],al
  4d0004:	mov    edi,edi
  4d0006:	push   ebp
  4d0007:	mov    ebp,esp
  4d0009:	sub    esp,0x24
  4d000c:	lea    ebx,ds:0x4d30a0
  4d0012:	add    eax,edx
  4d0014:	push   0x0
  4d0016:	notrack call DWORD PTR ds:0x4d2008
  4d001d:	push   ebx
  4d001e:	push   ecx
  4d001f:	push   DWORD PTR [ebx+0xbc]
  4d0025:	call   0x4d04c8
  4d002a:	add    esp,0x8
  4d002d:	pop    ebx
  4d002e:	push   0x0
  4d0030:	notrack call DWORD PTR ds:0x4d2004
  4d0037:	add    esp,0x24
  4d003a:	pop    ebp
  4d003b:	ret    
  4d003c:	mov    edi,edi
  4d003e:	push   ebp
  4d003f:	mov    ebp,esp
  4d0041:	sub    esp,0x58
  4d0044:	lea    edi,ds:0x4d31c0
  4d004a:	and    DWORD PTR [ebp-0x20],edx
  4d004d:	push   edi
  4d004e:	push   ebx
  4d004f:	push   esi
  4d0050:	push   DWORD PTR [edi+0x54]
  4d0053:	push   DWORD PTR [edi+0xfc]
  4d0059:	call   0x4d03dc
  4d005e:	add    esp,0x10
  4d0061:	pop    edi
  4d0062:	notrack call DWORD PTR ds:0x4d2000
  4d0069:	push   0x0
  4d006b:	notrack call DWORD PTR ds:0x4d2028
  4d0072:	add    esp,0x58
  4d0075:	pop    ebp
  4d0076:	ret    
  4d0077:	add    BYTE PTR [eax],al
  4d0079:	add    BYTE PTR [eax],al
  4d007b:	add    BYTE PTR [ebx-0x1374aa01],cl
  4d0081:	sub    esp,0x58
  4d0084:	lea    esi,ds:0x4d308c
  4d008a:	and    eax,edi
  4d008c:	mov    ecx,0x0
  4d0091:	push   ecx
  4d0092:	notrack call DWORD PTR ds:0x4d2044
  4d0099:	push   esi
  4d009a:	push   edi
  4d009b:	push   edx
  4d009c:	push   DWORD PTR [esi+0x160]
  4d00a2:	push   DWORD PTR [esi+0x1a0]
  4d00a8:	call   0x4d0470
  4d00ad:	add    esp,0x10
  4d00b0:	pop    esi
  4d00b1:	mov    edx,0x4d2048
  4d00b6:	mov    edx,DWORD PTR [edx]
  4d00b8:	push   edx
  4d00b9:	push   DWORD PTR [esi-0x30]
  4d00bc:	pop    edx
  4d00bd:	call   edx
  4d00bf:	add    esp,0x58
  4d00c2:	pop    ebp
  4d00c3:	ret    
  4d00c4:	mov    edi,edi
  4d00c6:	push   ebp
  4d00c7:	mov    ebp,esp
  4d00c9:	sub    esp,0x2c
  4d00cc:	lea    esi,ds:0x4d318c
  4d00d2:	sbb    ebx,DWORD PTR [ebp-0x8]
  4d00d5:	notrack call DWORD PTR ds:0x4d2000
  4d00dc:	push   esi
  4d00dd:	push   ebx
  4d00de:	push   DWORD PTR [esi+0x84]
  4d00e4:	call   0x4d09cc
  4d00e9:	add    esp,0x8
  4d00ec:	pop    esi
  4d00ed:	push   0x0
  4d00ef:	notrack call DWORD PTR ds:0x4d2020
  4d00f6:	add    esp,0x2c
  4d00f9:	pop    ebp
  4d00fa:	ret    
	...
  4d0103:	add    BYTE PTR [ebx-0x1374aa01],cl
  4d0109:	sub    esp,0x1c
  4d010c:	lea    edx,[ebx+0xbc]
  4d0112:	cmp    edx,0x549b
  4d0118:	je     0x4d0107
  4d011a:	push   edx
  4d011b:	push   DWORD PTR [edx+0x148]
  4d0121:	push   DWORD PTR [edx+0x1c8]
  4d0127:	call   0x4d0154
  4d012c:	add    esp,0x8
  4d012f:	pop    edx
  4d0130:	push   edx
  4d0131:	mov    esi,0x0
  4d0136:	push   esi
  4d0137:	notrack call DWORD PTR ds:0x4d2060
  4d013e:	pop    edx
  4d013f:	push   edx
  4d0140:	mov    edi,0x0
  4d0145:	push   edi
  4d0146:	notrack call DWORD PTR ds:0x4d2044
  4d014d:	pop    edx
  4d014e:	add    esp,0x1c
  4d0151:	pop    ebp
  4d0152:	ret    
  4d0153:	add    BYTE PTR [ebx-0x1374aa01],cl
  4d0159:	sub    esp,0x1c
  4d015c:	mov    edi,0x4d30e8
  4d0161:	mov    eax,edi
  4d0163:	push   0x0
  4d0165:	notrack call DWORD PTR ds:0x4d2034
  4d016c:	push   edi
  4d016d:	push   DWORD PTR [edi+0x13c]
  4d0173:	push   DWORD PTR [edi+0x1d0]
  4d0179:	push   DWORD PTR [edi+0x174]
  4d017f:	call   0x4d0850
  4d0184:	add    esp,0xc
  4d0187:	pop    edi
  4d0188:	push   0x0
  4d018a:	notrack call DWORD PTR ds:0x4d2028
  4d0191:	add    esp,0x1c
  4d0194:	pop    ebp
  4d0195:	ret    
  4d0196:	add    BYTE PTR [eax],al
  4d0198:	add    BYTE PTR [eax],al
  4d019a:	add    BYTE PTR [eax],al
  4d019c:	mov    edi,edi
  4d019e:	push   ebp
  4d019f:	mov    ebp,esp
  4d01a1:	sub    esp,0x54
  4d01a4:	mov    eax,0x4d318c
  4d01a9:	sbb    edi,DWORD PTR [ebp-0x50]
  4d01ac:	push   eax
  4d01ad:	push   DWORD PTR [eax+0x140]
  4d01b3:	push   DWORD PTR [eax+0x24]
  4d01b6:	push   DWORD PTR [eax+0x174]
  4d01bc:	push   DWORD PTR [eax+0x18c]
  4d01c2:	call   0x4d00c4
  4d01c7:	add    esp,0x10
  4d01ca:	pop    eax
  4d01cb:	push   eax
  4d01cc:	push   0x0
  4d01ce:	notrack call DWORD PTR ds:0x4d204c
  4d01d5:	pop    eax
  4d01d6:	push   eax
  4d01d7:	mov    edi,0x0
  4d01dc:	push   edi
  4d01dd:	notrack call DWORD PTR ds:0x4d2020
  4d01e4:	pop    eax
  4d01e5:	add    esp,0x54
  4d01e8:	pop    ebp
  4d01e9:	ret    
  4d01ea:	add    BYTE PTR [eax],al
  4d01ec:	mov    edi,edi
  4d01ee:	push   ebp
  4d01ef:	mov    ebp,esp
  4d01f1:	sub    esp,0x28
  4d01f4:	lea    eax,ds:0x4d31c0
  4d01fa:	add    DWORD PTR [eax-0x48],edi
  4d01fd:	push   eax
  4d01fe:	push   edx
  4d01ff:	push   DWORD PTR [eax+0x17c]
  4d0205:	call   0x4d0a20
  4d020a:	add    esp,0x8
  4d020d:	pop    eax
  4d020e:	push   eax
  4d020f:	mov    ebx,0x0
  4d0214:	push   ebx
  4d0215:	notrack call DWORD PTR ds:0x4d203c
  4d021c:	pop    eax
  4d021d:	push   eax
  4d021e:	notrack call DWORD PTR ds:0x4d2000
  4d0225:	pop    eax
  4d0226:	add    esp,0x28
  4d0229:	pop    ebp
  4d022a:	ret    
  4d022b:	add    BYTE PTR [eax],al
  4d022d:	add    BYTE PTR [eax],al
  4d022f:	add    BYTE PTR [ebx-0x1374aa01],cl
  4d0235:	sub    esp,0x28
  4d0238:	lea    ebx,[esi-0x9c]
  4d023e:	sub    DWORD PTR [ebx+0x128],ecx
  4d0244:	push   ebx
  4d0245:	push   DWORD PTR [ebx+0xc]
  4d0248:	push   eax
  4d0249:	push   edx
  4d024a:	call   0x4d061c
  4d024f:	add    esp,0xc
  4d0252:	pop    ebx
  4d0253:	mov    edi,0x0
  4d0258:	push   edi
  4d0259:	notrack call DWORD PTR ds:0x4d203c
  4d0260:	push   0x0
  4d0262:	notrack call DWORD PTR ds:0x4d202c
  4d0269:	add    esp,0x28
  4d026c:	pop    ebp
  4d026d:	ret    
	...
  4d0276:	add    BYTE PTR [eax],al
  4d0278:	mov    edi,edi
  4d027a:	push   ebp
  4d027b:	mov    ebp,esp
  4d027d:	sub    esp,0x40
  4d0280:	lea    eax,ds:0x4d3084
  4d0286:	mov    edx,DWORD PTR [ebp-0x40]
  4d0289:	push   eax
  4d028a:	push   DWORD PTR [eax+0x14]
  4d028d:	push   edi
  4d028e:	push   DWORD PTR [eax+0x28]
  4d0291:	push   ecx
  4d0292:	call   0x4d097c
  4d0297:	add    esp,0x10
  4d029a:	pop    eax
  4d029b:	push   eax
  4d029c:	mov    esi,0x0
  4d02a1:	push   esi
  4d02a2:	notrack call DWORD PTR ds:0x4d2044
  4d02a9:	pop    eax
  4d02aa:	push   eax
  4d02ab:	lea    eax,[eax-0x84]
  4d02b1:	push   eax
  4d02b2:	notrack call DWORD PTR ds:0x4d2048
  4d02b9:	test   eax,eax
  4d02bb:	jne    0x4d02ab
  4d02bd:	pop    eax
  4d02be:	add    esp,0x40
  4d02c1:	pop    ebp
  4d02c2:	ret    
  4d02c3:	add    BYTE PTR [ebx-0x1374aa01],cl
  4d02c9:	sub    esp,0x50
  4d02cc:	mov    ecx,0x4d305c
  4d02d1:	mov    eax,DWORD PTR [ecx+0xa4]
  4d02d7:	push   ecx
  4d02d8:	mov    edi,0x0
  4d02dd:	push   edi
  4d02de:	notrack call DWORD PTR ds:0x4d2060
  4d02e5:	pop    ecx
  4d02e6:	push   ecx
  4d02e7:	push   DWORD PTR [ecx+0x17c]
  4d02ed:	push   ebx
  4d02ee:	call   0x4d0754
  4d02f3:	add    esp,0x8
  4d02f6:	pop    ecx
  4d02f7:	push   ecx
  4d02f8:	mov    edi,0x0
  4d02fd:	push   edi
  4d02fe:	notrack call DWORD PTR ds:0x4d201c
  4d0305:	pop    ecx
  4d0306:	add    esp,0x50
  4d0309:	pop    ebp
  4d030a:	ret    
  4d030b:	add    BYTE PTR [eax],al
  4d030d:	add    BYTE PTR [eax],al
  4d030f:	add    BYTE PTR [ebx-0x1374aa01],cl
  4d0315:	sub    esp,0x24
  4d0318:	lea    ebx,ds:0x4d317c
  4d031e:	sub    DWORD PTR [ebp-0xc],0x67c6
  4d0325:	push   ebx
  4d0326:	push   DWORD PTR [ebx+0x1cc]
  4d032c:	push   eax
  4d032d:	push   DWORD PTR [ebx+0xec]
  4d0333:	call   0x4d0394
  4d0338:	add    esp,0xc
  4d033b:	pop    ebx
  4d033c:	mov    ecx,0x0
  4d0341:	push   ecx
  4d0342:	notrack call DWORD PTR ds:0x4d2044
  4d0349:	push   0x0
  4d034b:	notrack call DWORD PTR ds:0x4d2034
  4d0352:	add    esp,0x24
  4d0355:	pop    ebp
  4d0356:	ret    
  4d0357:	add    BYTE PTR [ebx-0x1374aa01],cl
  4d035d:	sub    esp,0x38
  4d0360:	mov    esi,0x4d3194
  4d0365:	mov    DWORD PTR [esi+0x48],ecx
  4d0368:	push   esi
  4d0369:	push   DWORD PTR [esi+0xe4]
  4d036f:	push   DWORD PTR [esi+0x18]
  4d0372:	call   0x4d0004
  4d0377:	add    esp,0x8
  4d037a:	pop    esi
  4d037b:	push   0x0
  4d037d:	notrack call DWORD PTR ds:0x4d201c
  4d0384:	push   0x0
  4d0386:	notrack call DWORD PTR ds:0x4d2034
  4d038d:	add    esp,0x38
  4d0390:	pop    ebp
  4d0391:	ret    
  4d0392:	add    BYTE PTR [eax],al
  4d0394:	mov    edi,edi
  4d0396:	push   ebp
  4d0397:	mov    ebp,esp
  4d0399:	sub    esp,0x3c
  4d039c:	mov    edx,0x4d30e8
  4d03a1:	add    DWORD PTR [edx+0xc8],ecx
  4d03a7:	push   edx
  4d03a8:	push   DWORD PTR [edx+0x1bc]
  4d03ae:	push   esi
  4d03af:	call   0x4d092c
  4d03b4:	add    esp,0x8
  4d03b7:	pop    edx
  4d03b8:	push   edx
  4d03b9:	push   0x0
  4d03bb:	notrack call DWORD PTR ds:0x4d204c
  4d03c2:	pop    edx
  4d03c3:	push   edx
  4d03c4:	push   0x0
  4d03c6:	notrack call DWORD PTR ds:0x4d2008
  4d03cd:	pop    edx
  4d03ce:	add    esp,0x3c
  4d03d1:	pop    ebp
  4d03d2:	ret    
	...
  4d03db:	add    BYTE PTR [ebx-0x1374aa01],cl
  4d03e1:	sub    esp,0x5c
  4d03e4:	sub    DWORD PTR [ebp-0x4],0xffffb713
  4d03eb:	mov    esi,0x4d3190
  4d03f0:	push   0x6ac
  4d03f5:	push   0x6ac
  4d03fa:	push   0x40001
  4d03ff:	mov    eax,0x862985aa
  4d0404:	push   DWORD PTR [eax+0x7a239a86]
  4d040a:	sub    DWORD PTR [esp],0x2
  4d040e:	mov    eax,0x4d200c
  4d0413:	pop    DWORD PTR [eax]
  4d0415:	notrack call DWORD PTR ds:0x4d200c
  4d041c:	push   eax
  4d041d:	pop    DWORD PTR [esi-0x134]
  4d0423:	mov    edx,DWORD PTR [esi-0x134]
  4d0429:	mov    ebx,edx
  4d042b:	sub    edi,edi
  4d042d:	dec    edi
  4d042e:	and    edi,0x4d0ae4
  4d0434:	mov    edx,0x9de45a73
  4d0439:	xor    ecx,ecx
  4d043b:	cmp    ecx,0x6ac
  4d0441:	je     0x4d045f
  4d0443:	sub    ecx,0xfffffffc
  4d0446:	xor    eax,eax
  4d0448:	push   DWORD PTR [edi+eax*1]
  4d044b:	inc    DWORD PTR [esp]
  4d044e:	xor    DWORD PTR [esp],edx
  4d0451:	pop    DWORD PTR [ebx+eax*2]
  4d0454:	push   DWORD PTR [edi]
  4d0456:	pop    edx
  4d0457:	add    edi,0x4
  4d045a:	add    ebx,0x4
  4d045d:	jmp    0x4d043b
  4d045f:	push   0x0
  4d0461:	notrack call DWORD PTR ds:0x4d2028
  4d0468:	add    esp,0x5c
  4d046b:	pop    ebp
  4d046c:	ret    
  4d046d:	add    BYTE PTR [eax],al
  4d046f:	add    BYTE PTR [ebx-0x1374aa01],cl
  4d0475:	sub    esp,0x1c
  4d0478:	lea    edx,[esi-0x64]
  4d047b:	sbb    edi,DWORD PTR [edx+0x13c]
  4d0481:	push   edx
  4d0482:	push   DWORD PTR [edx+0x160]
  4d0488:	push   DWORD PTR [edx+0x2c]
  4d048b:	push   DWORD PTR [edx+0x80]
  4d0491:	push   DWORD PTR [edx+0x1c8]
  4d0497:	call   0x4d01ec
  4d049c:	add    esp,0x10
  4d049f:	pop    edx
  4d04a0:	push   edx
  4d04a1:	lea    ecx,[edx-0x28]
  4d04a4:	push   ecx
  4d04a5:	notrack call DWORD PTR ds:0x4d2048
  4d04ac:	test   eax,eax
  4d04ae:	jne    0x4d04a1
  4d04b0:	pop    edx
  4d04b1:	push   edx
  4d04b2:	mov    eax,0x0
  4d04b7:	push   eax
  4d04b8:	notrack call DWORD PTR ds:0x4d2034
  4d04bf:	pop    edx
  4d04c0:	add    esp,0x1c
  4d04c3:	pop    ebp
  4d04c4:	ret    
  4d04c5:	add    BYTE PTR [eax],al
  4d04c7:	add    BYTE PTR [ebx-0x1374aa01],cl
  4d04cd:	sub    esp,0x24
  4d04d0:	lea    edx,ds:0x4d3184
  4d04d6:	xor    DWORD PTR [ebp-0x14],0xffffd63e
  4d04dd:	push   edx
  4d04de:	push   0x0
  4d04e0:	notrack call DWORD PTR ds:0x4d201c
  4d04e7:	pop    edx
  4d04e8:	push   edx
  4d04e9:	push   DWORD PTR [edx+0x148]
  4d04ef:	push   DWORD PTR [edx+0x1d8]
  4d04f5:	call   0x4d02c4
  4d04fa:	add    esp,0x8
  4d04fd:	pop    edx
  4d04fe:	push   edx
  4d04ff:	mov    edi,0x0
  4d0504:	push   edi
  4d0505:	notrack call DWORD PTR ds:0x4d2064
  4d050c:	pop    edx
  4d050d:	add    esp,0x24
  4d0510:	pop    ebp
  4d0511:	ret    
  4d0512:	add    BYTE PTR [eax],al
  4d0514:	mov    edi,edi
  4d0516:	push   ebp
  4d0517:	mov    ebp,esp
  4d0519:	sub    esp,0x54
  4d051c:	lea    ecx,ds:0x4d31d4
  4d0522:	or     DWORD PTR [ecx-0x11c],esi
  4d0528:	push   ecx
  4d0529:	push   DWORD PTR [ecx+0x64]
  4d052c:	push   esi
  4d052d:	push   esi
  4d052e:	call   0x4d019c
  4d0533:	add    esp,0xc
  4d0536:	pop    ecx
  4d0537:	push   ecx
  4d0538:	mov    esi,0x0
  4d053d:	push   esi
  4d053e:	notrack call DWORD PTR ds:0x4d2044
  4d0545:	pop    ecx
  4d0546:	push   ecx
  4d0547:	notrack call DWORD PTR ds:0x4d2000
  4d054e:	pop    ecx
  4d054f:	add    esp,0x54
  4d0552:	pop    ebp
  4d0553:	ret    
  4d0554:	mov    edi,edi
  4d0556:	push   ebp
  4d0557:	mov    ebp,esp
  4d0559:	sub    esp,0x3c
  4d055c:	lea    esi,[eax-0x70]
  4d055f:	sbb    ebx,esi
  4d0561:	push   0x0
  4d0563:	notrack call DWORD PTR ds:0x4d201c
  4d056a:	push   esi
  4d056b:	push   ecx
  4d056c:	push   DWORD PTR [esi]
  4d056e:	push   ecx
  4d056f:	call   0x4d0230
  4d0574:	add    esp,0xc
  4d0577:	pop    esi
  4d0578:	mov    edi,0x0
  4d057d:	push   edi
  4d057e:	notrack call DWORD PTR ds:0x4d2070
  4d0585:	add    esp,0x3c
  4d0588:	pop    ebp
  4d0589:	ret    
  4d058a:	add    BYTE PTR [eax],al
  4d058c:	push   0x0
  4d058e:	call   DWORD PTR ds:0x4d203c
  4d0594:	call   DWORD PTR ds:0x4d2040
  4d059a:	sub    esp,0x8
  4d059d:	call   DWORD PTR ds:0x4d2040
  4d05a3:	sub    esp,0x8
  4d05a6:	xor    eax,eax
  4d05a8:	lea    eax,[eax*2+0x4d3100]
  4d05af:	lea    ecx,[eax+0x4]
  4d05b2:	add    BYTE PTR [ecx],0xb0
  4d05b5:	push   eax
  4d05b6:	call   DWORD PTR ds:0x4d200c
  4d05bc:	mov    ecx,DWORD PTR [eax+0x3c]
  4d05bf:	push   DWORD PTR [eax+ecx*1+0x29]
  4d05c3:	pop    eax
  4d05c4:	mov    cl,0x2c
  4d05c6:	cmp    al,cl
  4d05c8:	pusha  
  4d05c9:	ja     0x4d007c
  4d05cf:	popa   
  4d05d0:	ret    
  4d05d1:	add    BYTE PTR [eax],al
  4d05d3:	repz mov edi,edi
  4d05d6:	push   ebp
  4d05d7:	mov    ebp,esp
  4d05d9:	sub    esp,0x20
  4d05dc:	lea    edi,ds:0x4d317c
  4d05e2:	mov    DWORD PTR [edi-0x164],esi
  4d05e8:	push   edi
  4d05e9:	push   ecx
  4d05ea:	push   esi
  4d05eb:	push   esi
  4d05ec:	call   0x4d0514
  4d05f1:	add    esp,0xc
  4d05f4:	pop    edi
  4d05f5:	mov    eax,0x0
  4d05fa:	push   eax
  4d05fb:	notrack call DWORD PTR ds:0x4d2044
  4d0602:	mov    ecx,0x0
  4d0607:	push   ecx
  4d0608:	notrack call DWORD PTR ds:0x4d203c
  4d060f:	add    esp,0x20
  4d0612:	pop    ebp
  4d0613:	ret    
	...
  4d061c:	mov    edi,edi
  4d061e:	push   ebp
  4d061f:	mov    ebp,esp
  4d0621:	sub    esp,0x20
  4d0624:	mov    esi,0x4d31f0
  4d0629:	sub    edi,0xfffffec3
  4d062f:	push   esi
  4d0630:	push   DWORD PTR [esi+0x98]
  4d0636:	push   edi
  4d0637:	push   edi
  4d0638:	call   0x4d003c
  4d063d:	add    esp,0xc
  4d0640:	pop    esi
  4d0641:	push   0x0
  4d0643:	notrack call DWORD PTR ds:0x4d2060
  4d064a:	push   0x0
  4d064c:	notrack call DWORD PTR ds:0x4d2020
  4d0653:	add    esp,0x20
  4d0656:	pop    ebp
  4d0657:	ret    
  4d0658:	mov    edi,edi
  4d065a:	push   ebp
  4d065b:	mov    ebp,esp
  4d065d:	sub    esp,0x3c
  4d0660:	mov    esi,0x4d3014
  4d0665:	xor    DWORD PTR [esi+0x130],0xffffe527
  4d066f:	push   0x0
  4d0671:	notrack call DWORD PTR ds:0x4d2008
  4d0678:	push   esi
  4d0679:	push   DWORD PTR [esi+0x1bc]
  4d067f:	push   edi
  4d0680:	push   edx
  4d0681:	push   DWORD PTR [esi+0x10]
  4d0684:	call   0x4d0a64
  4d0689:	add    esp,0x10
  4d068c:	pop    esi
  4d068d:	mov    eax,0x0
  4d0692:	push   eax
  4d0693:	notrack call DWORD PTR ds:0x4d2034
  4d069a:	add    esp,0x3c
  4d069d:	pop    ebp
  4d069e:	ret    
  4d069f:	add    BYTE PTR [eax],al
  4d06a1:	add    BYTE PTR [eax],al
  4d06a3:	add    BYTE PTR [ebx-0x1374aa01],cl
  4d06a9:	sub    esp,0x28
  4d06ac:	mov    edi,0x4d3070
  4d06b1:	xor    edx,ecx
  4d06b3:	push   edi
  4d06b4:	push   DWORD PTR [edi+0x1e8]
  4d06ba:	push   ebx
  4d06bb:	call   0x4d0278
  4d06c0:	add    esp,0x8
  4d06c3:	pop    edi
  4d06c4:	push   0x0
  4d06c6:	notrack call DWORD PTR ds:0x4d2028
  4d06cd:	mov    esi,0x0
  4d06d2:	push   esi
  4d06d3:	notrack call DWORD PTR ds:0x4d2008
  4d06da:	add    esp,0x28
  4d06dd:	pop    ebp
  4d06de:	ret    
	...
  4d06f7:	add    BYTE PTR [ebx-0x1374aa01],cl
  4d06fd:	sub    esp,0x48
  4d0700:	lea    edx,ds:0x4d30bc
  4d0706:	adc    DWORD PTR [edx+0x8],0x1e
  4d070a:	push   edx
  4d070b:	push   DWORD PTR [edx+0x1bc]
  4d0711:	push   eax
  4d0712:	push   DWORD PTR [edx+0x17c]
  4d0718:	push   DWORD PTR [edx+0x8c]
  4d071e:	call   0x4d06a4
  4d0723:	add    esp,0x10
  4d0726:	pop    edx
  4d0727:	push   edx
  4d0728:	lea    ebx,[edx-0xbc]
  4d072e:	push   ebx
  4d072f:	notrack call DWORD PTR ds:0x4d2048
  4d0736:	test   eax,eax
  4d0738:	jne    0x4d0728
  4d073a:	pop    edx
  4d073b:	push   edx
  4d073c:	lea    ecx,[edx-0xbc]
  4d0742:	push   ecx
  4d0743:	notrack call DWORD PTR ds:0x4d2048
  4d074a:	test   eax,eax
  4d074c:	jne    0x4d073c
  4d074e:	pop    edx
  4d074f:	add    esp,0x48
  4d0752:	pop    ebp
  4d0753:	ret    
  4d0754:	mov    edi,edi
  4d0756:	push   ebp
  4d0757:	mov    ebp,esp
  4d0759:	sub    esp,0x58
  4d075c:	lea    esi,[ecx+0x180]
  4d0762:	add    DWORD PTR [esi-0x140],edi
  4d0768:	push   esi
  4d0769:	push   eax
  4d076a:	push   edi
  4d076b:	push   DWORD PTR [esi+0x108]
  4d0771:	call   0x4d05d4
  4d0776:	add    esp,0xc
  4d0779:	pop    esi
  4d077a:	mov    ebx,0x0
  4d077f:	push   ebx
  4d0780:	notrack call DWORD PTR ds:0x4d2020
  4d0787:	mov    eax,0x0
  4d078c:	push   eax
  4d078d:	notrack call DWORD PTR ds:0x4d2020
  4d0794:	add    esp,0x58
  4d0797:	pop    ebp
  4d0798:	ret    
	...
  4d07ad:	add    BYTE PTR [eax],al
  4d07af:	add    BYTE PTR [ebx-0x1374aa01],cl
  4d07b5:	sub    esp,0x4c
  4d07b8:	lea    ebx,ds:0x4d31c0
  4d07be:	adc    ecx,0x5e68
  4d07c4:	notrack call DWORD PTR ds:0x4d2000
  4d07cb:	push   ebx
  4d07cc:	push   DWORD PTR [ebx+0xe0]
  4d07d2:	push   ecx
  4d07d3:	push   DWORD PTR [ebx+0x158]
  4d07d9:	call   0x4d08a4
  4d07de:	add    esp,0xc
  4d07e1:	pop    ebx
  4d07e2:	lea    esi,[ebx-0x1c0]
  4d07e8:	push   esi
  4d07e9:	notrack call DWORD PTR ds:0x4d2048
  4d07f0:	test   eax,eax
  4d07f2:	jne    0x4d07e3
  4d07f4:	add    esp,0x4c
  4d07f7:	pop    ebp
  4d07f8:	ret    
	...
  4d080d:	add    BYTE PTR [eax],al
  4d080f:	add    BYTE PTR [ebx-0x1374aa01],cl
  4d0815:	sub    esp,0x5c
  4d0818:	mov    ebx,0x4d30f0
  4d081d:	sub    edx,DWORD PTR [ebp-0x3c]
  4d0820:	push   ebx
  4d0821:	push   ecx
  4d0822:	push   DWORD PTR [ebx+0x34]
  4d0825:	push   DWORD PTR [ebx+0x140]
  4d082b:	call   0x4d06f8
  4d0830:	add    esp,0xc
  4d0833:	pop    ebx
  4d0834:	push   0x0
  4d0836:	notrack call DWORD PTR ds:0x4d2028
  4d083d:	mov    ecx,0x0
  4d0842:	push   ecx
  4d0843:	notrack call DWORD PTR ds:0x4d202c
  4d084a:	add    esp,0x5c
  4d084d:	pop    ebp
  4d084e:	ret    
  4d084f:	add    BYTE PTR [ebx-0x1374aa01],cl
  4d0855:	sub    esp,0x2c
  4d0858:	lea    edx,ds:0x4d305c
  4d085e:	sbb    DWORD PTR [edx+0x16c],0x366c
  4d0868:	push   edx
  4d0869:	mov    edi,0x0
  4d086e:	push   edi
  4d086f:	notrack call DWORD PTR ds:0x4d204c
  4d0876:	pop    edx
  4d0877:	push   edx
  4d0878:	push   DWORD PTR [edx+0x28]
  4d087b:	push   eax
  4d087c:	push   DWORD PTR [edx+0x130]
  4d0882:	push   ebx
  4d0883:	call   0x4d0358
  4d0888:	add    esp,0x10
  4d088b:	pop    edx
  4d088c:	push   edx
  4d088d:	push   0x0
  4d088f:	notrack call DWORD PTR ds:0x4d202c
  4d0896:	pop    edx
  4d0897:	add    esp,0x2c
  4d089a:	pop    ebp
  4d089b:	ret    
	...
  4d08a4:	mov    edi,edi
  4d08a6:	push   ebp
  4d08a7:	mov    ebp,esp
  4d08a9:	sub    esp,0x5c
  4d08ac:	lea    edi,ds:0x4d311c
  4d08b2:	sbb    ebx,DWORD PTR [ebp-0x5c]
  4d08b5:	push   edi
  4d08b6:	push   DWORD PTR [edi+0x48]
  4d08b9:	push   edx
  4d08ba:	push   edx
  4d08bb:	call   0x4d0810
  4d08c0:	add    esp,0xc
  4d08c3:	pop    edi
  4d08c4:	mov    ebx,0x0
  4d08c9:	push   ebx
  4d08ca:	notrack call DWORD PTR ds:0x4d2034
  4d08d1:	push   0x0
  4d08d3:	notrack call DWORD PTR ds:0x4d201c
  4d08da:	add    esp,0x5c
  4d08dd:	pop    ebp
  4d08de:	ret    
	...
  4d08e7:	add    BYTE PTR [ebx-0x1374aa01],cl
  4d08ed:	sub    esp,0x3c
  4d08f0:	lea    esi,[edi-0x28]
  4d08f3:	and    DWORD PTR [esi-0x54],0xffffffde
  4d08f7:	push   0x0
  4d08f9:	notrack call DWORD PTR ds:0x4d2028
  4d0900:	push   esi
  4d0901:	push   DWORD PTR [esi+0x80]
  4d0907:	push   DWORD PTR [esi+0x58]
  4d090a:	push   edx
  4d090b:	call   0x4d07b0
  4d0910:	add    esp,0xc
  4d0913:	pop    esi
  4d0914:	lea    eax,[esi-0xd8]
  4d091a:	push   eax
  4d091b:	notrack call DWORD PTR ds:0x4d2048
  4d0922:	test   eax,eax
  4d0924:	jne    0x4d0915
  4d0926:	add    esp,0x3c
  4d0929:	pop    ebp
  4d092a:	ret    
  4d092b:	add    BYTE PTR [ebx-0x1374aa01],cl
  4d0931:	sub    esp,0x30
  4d0934:	lea    eax,ds:0x4d3124
  4d093a:	xor    DWORD PTR [ebp-0xc],0x276c
  4d0941:	push   eax
  4d0942:	push   0x0
  4d0944:	notrack call DWORD PTR ds:0x4d203c
  4d094b:	pop    eax
  4d094c:	push   eax
  4d094d:	push   DWORD PTR [eax+0xa4]
  4d0953:	push   DWORD PTR [eax+0x4]
  4d0956:	push   DWORD PTR [eax+0x7c]
  4d0959:	push   DWORD PTR [eax+0x80]
  4d095f:	call   0x4d0554
  4d0964:	add    esp,0x10
  4d0967:	pop    eax
  4d0968:	push   eax
  4d0969:	mov    edi,0x0
  4d096e:	push   edi
  4d096f:	notrack call DWORD PTR ds:0x4d2028
  4d0976:	pop    eax
  4d0977:	add    esp,0x30
  4d097a:	pop    ebp
  4d097b:	ret    
  4d097c:	mov    edi,edi
  4d097e:	push   ebp
  4d097f:	mov    ebp,esp
  4d0981:	sub    esp,0x40
  4d0984:	lea    edx,[eax+0xf0]
  4d098a:	xor    DWORD PTR [ebp-0x34],edx
  4d098d:	push   edx
  4d098e:	push   eax
  4d098f:	push   DWORD PTR [edx+0x20]
  4d0992:	push   ecx
  4d0993:	push   DWORD PTR [edx+0x64]
  4d0996:	call   0x4d0310
  4d099b:	add    esp,0x10
  4d099e:	pop    edx
  4d099f:	push   edx
  4d09a0:	push   0x0
  4d09a2:	notrack call DWORD PTR ds:0x4d203c
  4d09a9:	pop    edx
  4d09aa:	push   edx
  4d09ab:	mov    edi,0x0
  4d09b0:	push   edi
  4d09b1:	notrack call DWORD PTR ds:0x4d202c
  4d09b8:	pop    edx
  4d09b9:	add    esp,0x40
  4d09bc:	pop    ebp
  4d09bd:	ret    
	...
  4d09ca:	add    BYTE PTR [eax],al
  4d09cc:	mov    edi,edi
  4d09ce:	push   ebp
  4d09cf:	mov    ebp,esp
  4d09d1:	sub    esp,0x34
  4d09d4:	mov    edi,0x4d3100
  4d09d9:	or     ecx,DWORD PTR [ebp-0x1c]
  4d09dc:	push   edi
  4d09dd:	push   esi
  4d09de:	push   DWORD PTR [edi+0x1c0]
  4d09e4:	push   DWORD PTR [edi+0x1d0]
  4d09ea:	push   DWORD PTR [edi+0x174]
  4d09f0:	call   0x4d08e8
  4d09f5:	add    esp,0x10
  4d09f8:	pop    edi
  4d09f9:	mov    esi,0x0
  4d09fe:	push   esi
  4d09ff:	notrack call DWORD PTR ds:0x4d2008
  4d0a06:	mov    ecx,0x0
  4d0a0b:	push   ecx
  4d0a0c:	notrack call DWORD PTR ds:0x4d2034
  4d0a13:	add    esp,0x34
  4d0a16:	pop    ebp
  4d0a17:	ret    
	...
  4d0a20:	mov    edi,edi
  4d0a22:	push   ebp
  4d0a23:	mov    ebp,esp
  4d0a25:	sub    esp,0x34
  4d0a28:	lea    ebx,[eax-0x4c]
  4d0a2b:	or     edx,edi
  4d0a2d:	mov    edx,0x0
  4d0a32:	push   edx
  4d0a33:	notrack call DWORD PTR ds:0x4d2028
  4d0a3a:	push   ebx
  4d0a3b:	push   edx
  4d0a3c:	push   DWORD PTR [ebx+0x13c]
  4d0a42:	push   edi
  4d0a43:	push   esi
  4d0a44:	call   0x4d0658
  4d0a49:	add    esp,0x10
  4d0a4c:	pop    ebx
  4d0a4d:	mov    ecx,0x0
  4d0a52:	push   ecx
  4d0a53:	notrack call DWORD PTR ds:0x4d2004
  4d0a5a:	add    esp,0x34
  4d0a5d:	pop    ebp
  4d0a5e:	ret    
  4d0a5f:	add    BYTE PTR [eax],al
  4d0a61:	add    BYTE PTR [eax],al
  4d0a63:	add    BYTE PTR [ebx-0x1374aa01],cl
  4d0a69:	sub    esp,0x30
  4d0a6c:	mov    ebx,0x4d3050
  4d0a71:	cmp    ebx,0x7a8f
  4d0a77:	jb     0x4d0a67
  4d0a79:	mov    eax,0x0
  4d0a7e:	push   eax
  4d0a7f:	notrack call DWORD PTR ds:0x4d2070
  4d0a86:	push   ebx
  4d0a87:	push   DWORD PTR [ebx+0x68]
  4d0a8a:	push   edi
  4d0a8b:	push   DWORD PTR [ebx+0x168]
  4d0a91:	call   0x4d0104
  4d0a96:	add    esp,0xc
  4d0a99:	pop    ebx
  4d0a9a:	push   0x0
  4d0a9c:	notrack call DWORD PTR ds:0x4d201c
  4d0aa3:	add    esp,0x30
  4d0aa6:	pop    ebp
  4d0aa7:	ret    
  4d0aa8:	jp     0x4d0a7d
  4d0aaa:	movs   DWORD PTR es:[edi],DWORD PTR ds:[esi]
  4d0aab:	dec    eax
  4d0aac:	jne    0x4d0ad6
  4d0aae:	test   BYTE PTR [edx],ah
  4d0ab0:	cmps   BYTE PTR ds:[esi],BYTE PTR es:[edi]
  4d0ab1:	sbb    ch,BYTE PTR ss:[edi-0x2c]
  4d0ab5:	mov    dh,0x61
  4d0ab7:	xor    al,0x7d
  4d0ab9:	es mov edi,0x163efa69
  4d0abf:	mov    cl,0xeb
  4d0ac1:	add    DWORD PTR [edi+0x16],eax
  4d0ac4:	mov    bl,0x41
  4d0ac6:	dec    ebp
  4d0ac7:	retf   0x2c4
  4d0aca:	ret    0x95be
  4d0acd:	mov    bl,BYTE PTR ds:0x5ec3f10d
  4d0ad3:	clc    
  4d0ad4:	adc    DWORD PTR [ecx+edx*4-0x3c3eb645],0xffffff91
  4d0adc:	shl    BYTE PTR [ebx+ebx*8],1
  4d0adf:	test   BYTE PTR fs:0x222a506,0x74
  4d0ae7:	or     eax,0x9de45a71
  4d0aec:	pop    ecx
  4d0aed:	xchg   ebx,eax
  4d0aee:	addr16 pop esp
  4d0af0:	pop    ecx
  4d0af1:	(bad)  
  4d0af2:	cmp    DWORD PTR [esi+0x4afd45a3],edi
  4d0af8:	dec    edx
  4d0af9:	dec    eax
  4d0afa:	std    
  4d0afb:	dec    edx
  4d0afc:	dec    ecx
  4d0afd:	enter  0x5bc7,0x9f
  4d0b01:	lods   eax,DWORD PTR ds:[esi]
  4d0b02:	stos   DWORD PTR es:[edi],eax
  4d0b03:	push   0x4cf83ac
  4d0b08:	mov    edi,0x3d549783
  4d0b0d:	sbb    DWORD PTR [esi+edi*2+0x5b],0x6
  4d0b12:	mov    ds:0xa0decfa8,eax
  4d0b17:	jmp    0x4d0b0b
  4d0b19:	pop    edi
  4d0b1a:	fdivr  DWORD PTR [ebx-0x4423200f]
  4d0b20:	xchg   ah,dh
  4d0b22:	xor    al,0x49
  4d0b24:	xor    ah,0x34
  4d0b27:	adc    al,0x8
  4d0b29:	add    DWORD PTR [ebp-0x72fef8fc],ecx
  4d0b2f:	test   eax,0xa98ff3ee
  4d0b34:	in     eax,dx
  4d0b35:	jp     0x4d0b00
  4d0b37:	push   ebp
  4d0b38:	push   cs
  4d0b39:	(bad)  
  4d0b3a:	mov    ds:0xcfce6536,eax
  4d0b3f:	pop    edx
  4d0b40:	or     DWORD PTR [esi-0x2998c079],esp
  4d0b46:	shr    DWORD PTR [edi+edx*4-0x7d],cl
  4d0b4a:	frstpm(287 only) 
  4d0b4c:	nop
  4d0b4d:	jmp    0x9c22992d
  4d0b52:	mov    esi,0xdbd3bce8
  4d0b57:	mov    ebx,ecx
  4d0b59:	xchg   DWORD PTR [eax+0x18f9d76],ecx
  4d0b5f:	xor    BYTE PTR [eax-0xed73af4],bl
  4d0b65:	dec    esp
  4d0b66:	lods   eax,DWORD PTR ds:[esi]
  4d0b67:	sub    al,ah
  4d0b69:	dec    esp
  4d0b6a:	lods   eax,DWORD PTR ds:[esi]
  4d0b6b:	inc    eax
  4d0b6c:	inc    ebx
  4d0b6d:	dec    edx
  4d0b6e:	lods   eax,DWORD PTR ds:[esi]
  4d0b6f:	inc    eax
  4d0b70:	sub    BYTE PTR [edx+0x52],cl
  4d0b73:	adc    eax,0x10aac137
  4d0b78:	cmps   DWORD PTR ds:[esi],DWORD PTR es:[edi]
  4d0b79:	shr    DWORD PTR [edx+0x1f4cf610],0xc0
  4d0b80:	push   cs
  4d0b81:	mov    bl,0xe0
  4d0b83:	jns    0x4d0b2e
  4d0b85:	mov    ch,0xe0
  4d0b87:	jns    0x4d0be2
  4d0b89:	adc    DWORD PTR [ebx],esp
  4d0b8b:	xchg   ecx,eax
  4d0b8c:	iret   
  4d0b8d:	adc    al,0x23
  4d0b8f:	xchg   ecx,eax
  4d0b90:	xchg   ecx,eax
  4d0b91:	dec    edx
  4d0b92:	movs   BYTE PTR es:[edi],BYTE PTR ds:[esi]
  4d0b93:	movs   DWORD PTR es:[edi],DWORD PTR ds:[esi]
  4d0b94:	mov    ah,0x1c
  4d0b96:	dec    esp
  4d0b97:	pop    esp
  4d0b98:	scas   eax,DWORD PTR es:[edi]
  4d0b99:	sbb    al,0x4c
  4d0b9b:	mov    ah,0x97
  4d0b9d:	sbb    DWORD PTR [esp+esi*4+0x1b],ecx
  4d0ba1:	loope  0x4d0bc9
  4d0ba3:	mov    ah,0x70
  4d0ba5:	loope  0x4d0b80
  4d0ba7:	rcl    DWORD PTR [ebx],0xb6
  4d0baa:	es xchg esp,eax
  4d0bac:	cmp    bh,BYTE PTR ds:0x3d4ffc6b
  4d0bb2:	aas    
  4d0bb3:	movs   BYTE PTR es:[edi],BYTE PTR ds:[esi]
  4d0bb4:	scas   eax,DWORD PTR es:[edi]
  4d0bb5:	or     DWORD PTR [ebx],ebx
  4d0bb7:	hlt    
  4d0bb8:	std    
  4d0bb9:	pop    edi
  4d0bba:	dec    esp
  4d0bbb:	or     esp,DWORD PTR [edi+0x575c1473]
  4d0bc1:	es or  al,0xb4
  4d0bc4:	jge    0x4d0beb
  4d0bc6:	or     al,0xb4
  4d0bc8:	cmc    
  4d0bc9:	arpl   WORD PTR [eax],si
  4d0bcb:	cmp    eax,esi
  4d0bcd:	gs push esi
  4d0bcf:	into   
  4d0bd0:	scas   eax,DWORD PTR es:[edi]
  4d0bd1:	jae    0x4d0c29
  4d0bd3:	out    dx,al
  4d0bd4:	fldenv [ebp+0x6f]
  4d0bd7:	mov    dh,0xec
  4d0bd9:	adc    DWORD PTR [esi+0x3d],edi
  4d0bdc:	mov    bl,0x25
  4d0bde:	adc    al,0x39
  4d0be0:	fisub  DWORD PTR ds:0xdad93924
  4d0be6:	push   esp
  4d0be7:	imul   ecx,DWORD PTR [ecx+0x1790125],0x54296d58
  4d0bf1:	xor    ch,BYTE PTR [ecx+0x7e]
  4d0bf4:	push   es
  4d0bf5:	int    0x3c
  4d0bf7:	jb     0x4d0c4a
  4d0bf9:	cmps   DWORD PTR ds:[esi],DWORD PTR es:[edi]
  4d0bfa:	ds and eax,0xeab5f101
  4d0c00:	mov    DWORD PTR [edx],ecx
  4d0c02:	inc    esi
  4d0c03:	dec    esi
  4d0c04:	(bad)  
  4d0c05:	cmc    
  4d0c06:	adc    eax,DWORD PTR [edx-0x73]
  4d0c09:	jle    0x4d0be8
  4d0c0b:	inc    ecx
  4d0c0c:	ret    
  4d0c0d:	inc    edx
  4d0c0e:	push   eax
  4d0c0f:	cmp    dl,bl
  4d0c11:	leave  
  4d0c12:	pop    es
  4d0c13:	sbb    ah,dl
  4d0c15:	jle    0x4d0c5d
  4d0c17:	or     al,0xd6
  4d0c19:	xchg   BYTE PTR [ecx-0x45],cl
  4d0c1c:	sahf   
  4d0c1d:	sub    BYTE PTR [ecx],0x30
  4d0c20:	fcom   DWORD PTR [esp+ebp*4+0x27d5abf0]
  4d0c27:	mov    bh,0xa2
  4d0c29:	push   eax
  4d0c2a:	out    0xc3,eax
  4d0c2c:	xchg   edi,eax
  4d0c2d:	mov    eax,0xb896c776
  4d0c32:	std    
  4d0c33:	nop    edi
  4d0c36:	(bad)  
  4d0c38:	push   0x6ae7d9fd
  4d0c3d:	mov    cl,ch
  4d0c3f:	sbb    BYTE PTR [edx+ebx*4],bl
  4d0c42:	inc    esi
  4d0c43:	setns  BYTE PTR [di+0x5e3c]
  4d0c49:	adc    ch,BYTE PTR [ecx+0x6e]
  4d0c4c:	or     eax,0x5e3f3e43
  4d0c51:	sub    DWORD PTR [edx],edi
  4d0c53:	outs   dx,BYTE PTR ds:[esi]
  4d0c54:	or     dh,dl
  4d0c56:	outs   dx,DWORD PTR ds:[esi]
  4d0c57:	bound  edx,QWORD PTR [eax-0x1b]
  4d0c5a:	scas   eax,DWORD PTR es:[edi]
  4d0c5b:	xor    eax,0xbef04fa2
  4d0c60:	push   0x3c4154bc
  4d0c65:	mov    al,0xc
  4d0c67:	and    BYTE PTR [esi+0xec22477],bh
  4d0c6d:	lahf   
  4d0c6e:	das    
  4d0c6f:	ret    
  4d0c70:	or     eax,0xc42c79f
  4d0c75:	lahf   
  4d0c76:	(bad)  
  4d0c77:	sbb    ah,BYTE PTR [ebx-0x61]
  4d0c7a:	xchg   DWORD PTR [edx],ebx
  4d0c7c:	bound  esp,QWORD PTR [eax-0xe]
  4d0c7f:	jb     0x4d0cb4
  4d0c81:	jmp    0x4d0c8c
  4d0c83:	stc    
  4d0c84:	ret    0x303
  4d0c87:	std    
  4d0c88:	rol    DWORD PTR [ebx],0x67
  4d0c8b:	add    dh,bl
  4d0c8d:	xor    esp,DWORD PTR [edi+0x2]
  4d0c90:	repnz imul ebp,esp,0x42
  4d0c94:	std    
  4d0c95:	loopne 0x4d0c43
  4d0c97:	dec    esi
  4d0c98:	ret    
  4d0c99:	mov    eax,0x33c63ab4
  4d0c9e:	mov    ah,0xd1
  4d0ca0:	xor    BYTE PTR [eax-0xecd0a48],bh
  4d0ca6:	test   BYTE PTR [esi+0x42],bh
  4d0ca9:	fld    DWORD PTR [edi-0x605e3577]
  4d0caf:	add    BYTE PTR [ecx-0x8080643],bh
  4d0cb5:	stos   DWORD PTR es:[edi],eax
  4d0cb6:	stc    
  4d0cb7:	xlat   BYTE PTR ds:[ebx]
  4d0cb8:	and    DWORD PTR [edi-0x58678963],0xe712769d
  4d0cc2:	lods   eax,DWORD PTR ds:[esi]
  4d0cc3:	jmp    FWORD PTR [ecx-0x11]
  4d0cc6:	push   edx
  4d0cc7:	stos   BYTE PTR es:[edi],al
  4d0cc8:	jl     0x4d0cd1
  4d0cca:	and    al,0xa8
  4d0ccc:	jnp    0x4d0cd5
  4d0cce:	jns    0x4d0d31
  4d0cd0:	and    cl,BYTE PTR [esi-0x10c2baf3]
  4d0cd6:	pop    ebp
  4d0cd7:	lods   eax,DWORD PTR ds:[esi]
  4d0cd8:	(bad)  
  4d0cd9:	jmp    0xf525:0x6ba6ad5d
  4d0ce0:	movs   DWORD PTR es:[edi],DWORD PTR ds:[esi]
  4d0ce1:	imul   esp,DWORD PTR ds:0xae66cff5,0xaaa1eaf1
  4d0ceb:	aad    0xe9
  4d0ced:	mov    eax,ds:0xd515d5aa
  4d0cf2:	mov    ss,ecx
  4d0cf4:	inc    esp
  4d0cf5:	out    0x4e,al
  4d0cf7:	adc    ah,BYTE PTR [ebx]
  4d0cf9:	ins    DWORD PTR es:[edi],dx
  4d0cfa:	mov    ebp,0x36515411
  4d0cff:	cmps   DWORD PTR ds:[esi],DWORD PTR es:[edi]
  4d0d00:	rcl    DWORD PTR [ecx+0x36],cl
  4d0d03:	cmps   DWORD PTR ds:[esi],DWORD PTR es:[edi]
  4d0d04:	push   ebp
  4d0d05:	cmps   DWORD PTR ds:[esi],DWORD PTR es:[edi]
  4d0d06:	inc    edx
  4d0d07:	aam    0x55
  4d0d09:	push   esp
  4d0d0a:	leave  
  4d0d0b:	stos   BYTE PTR es:[edi],al
  4d0d0c:	pop    eax
  4d0d0d:	shl    DWORD PTR [esi],1
  4d0d0f:	fidiv  WORD PTR [ecx]
  4d0d11:	ror    ch,cl
  4d0d13:	mov    ebp,ecx
  4d0d15:	xchg   ecx,ecx
  4d0d17:	or     al,0xc
  4d0d19:	repnz int 0x5b
  4d0d1c:	repnz cmps DWORD PTR ds:[esi],DWORD PTR es:[edi]
  4d0d1e:	int    0xb
  4d0d20:	mov    ds:0x9f1bbb2c,eax
  4d0d25:	fbstp  TBYTE PTR [eax]
  4d0d27:	in     eax,0x31
  4d0d29:	pop    edx
  4d0d2a:	lock nop
  4d0d2c:	leave  
  4d0d2d:	jno    0x4d0d36
  4d0d2f:	sbb    eax,DWORD PTR [esi]
  4d0d31:	das    
  4d0d32:	push   esi
  4d0d33:	dec    ebx
  4d0d34:	push   ecx
  4d0d35:	inc    ebp
  4d0d36:	push   edx
  4d0d37:	sbb    al,BYTE PTR ds:0x521607ba
  4d0d3d:	xor    DWORD PTR [ecx],eax
  4d0d3f:	xchg   ebx,eax
  4d0d40:	xchg   ecx,eax
  4d0d41:	mov    eax,ds:0xb1d61891
  4d0d46:	sbb    al,0x2c
  4d0d48:	aam    0xe6
  4d0d4a:	mov    cl,0xa9
  4d0d4c:	adc    edx,DWORD PTR [edx-0x6dedff56]
  4d0d52:	stos   BYTE PTR es:[edi],al
  4d0d53:	and    BYTE PTR [esi-0x6a],0x27
  4d0d57:	les    esp,FWORD PTR [esp+edx*4+0x2]
  4d0d5b:	cmp    ebx,DWORD PTR [edx+0x646b7d6b]
  4d0d61:	pop    ds
  4d0d62:	pop    ecx
  4d0d63:	jg     0x4d0cff
  4d0d65:	dec    edx
  4d0d66:	push   ecx
  4d0d67:	aam    0x70
  4d0d69:	stos   BYTE PTR es:[edi],al
  4d0d6a:	push   cs
  4d0d6b:	mov    ah,BYTE PTR [edi]
  4d0d6d:	repz pop edx
  4d0d6f:	fidiv  DWORD PTR [ebp-0x5c]
  4d0d72:	movs   DWORD PTR es:[edi],DWORD PTR ds:[esi]
  4d0d73:	(bad)  
  4d0d74:	js     0x4d0d72
  4d0d76:	es dec ecx
  4d0d78:	imul   edx,DWORD PTR [edi],0xffffffa9
  4d0d7b:	sub    BYTE PTR [edi+0x2bfb2277],ah
  4d0d81:	test   DWORD PTR [ecx],esp
  4d0d83:	lea    edx,[esi]
  4d0d85:	scas   al,BYTE PTR es:[edi]
  4d0d86:	ja     0x4d0d41
  4d0d88:	xchg   edx,eax
  4d0d89:	jl     0x4d0e03
  4d0d8b:	cmp    eax,0x3d787c06
  4d0d90:	mov    edx,?
  4d0d92:	fdivr  QWORD PTR ds:0x8b57f28b
  4d0d98:	sub    dh,dl
  4d0d9a:	push   edi
  4d0d9b:	mov    ebp,DWORD PTR [esi+0x2e0f5804]
  4d0da1:	add    al,0x58
  4d0da3:	cvttps2pi mm6,xmm7
  4d0da6:	cmc    
  4d0da7:	test   bl,dl
  4d0da9:	hlt    
  4d0daa:	push   cs
  4d0dab:	aam    0x57
  4d0dad:	xor    BYTE PTR [esi-0x7b],bl
  4d0db0:	add    al,0x60
  4d0db2:	xor    al,0x81
  4d0db4:	imul   esp,DWORD PTR [eax+0x24],0xffffff81
  4d0db8:	push   0x37
  4d0dba:	cmps   DWORD PTR ds:[esi],DWORD PTR es:[edi]
  4d0dbb:	imul   ebp,DWORD PTR [ebp+0x67],0x67046dcd
  4d0dc2:	(bad)  [ebp+0x3]
  4d0dc5:	xor    BYTE PTR [ecx+ebp*2+0x26],bl
  4d0dc9:	xor    BYTE PTR [ecx+ebp*2+0x25],cl
  4d0dcd:	iret   
  4d0dce:	sbb    DWORD PTR [ebp-0x27],esp
  4d0dd1:	call   0xf73e:0x377f3f15
  4d0dd8:	sub    eax,0xc326f6bc
  4d0ddd:	aas    
  4d0dde:	pop    ds
  4d0ddf:	and    ch,bh
  4d0de1:	(bad)  
  4d0de2:	jns    0x4d0d73
  4d0de4:	mov    BYTE PTR [esi+0x79],dl
  4d0de7:	mov    edi,0x405c5efb
  4d0dec:	repz pop esi
  4d0dee:	pop    esp
  4d0def:	inc    ecx
  4d0df0:	out    0x59,al
  4d0df2:	mov    esi,0xfad4beaf
  4d0df7:	mov    edi,DWORD PTR [ecx+0x45dba885]
  4d0dfd:	mov    ch,0xc0
  4d0dff:	fist   DWORD PTR [ebp+esi*4-0x40]
  4d0e03:	mov    esi,ss
  4d0e05:	pop    ebp
  4d0e06:	(bad)  
  4d0e07:	fsubr  QWORD PTR [eax]
  4d0e09:	ins    DWORD PTR es:[edi],dx
  4d0e0a:	lods   al,BYTE PTR ds:[esi]
  4d0e0b:	fdiv   QWORD PTR [edi]
  4d0e0d:	ins    DWORD PTR es:[edi],dx
  4d0e0e:	lods   al,BYTE PTR ds:[esi]
  4d0e0f:	mov    esi,DWORD PTR [ebp-0x5b747797]
  4d0e15:	imul   ecx,DWORD PTR [eax+0x7765f074],0x2e3ffb21
  4d0e1f:	jns    0x4d0dc3
  4d0e21:	mov    edx,0xdb220ce7
  4d0e26:	and    al,0x6c
  4d0e28:	enter  0x89dc,0x8e
  4d0e2c:	xor    al,0x51
  4d0e2e:	mov    ebp,0x55daf68d
  4d0e33:	push   es
  4d0e34:	add    al,0x63
  4d0e36:	inc    ebp
  4d0e37:	push   es
  4d0e38:	add    esp,DWORD PTR [ebx-0x53]
  4d0e3b:	in     eax,dx
  4d0e3c:	sti    
  4d0e3d:	pushf  
  4d0e3e:	push   edx
  4d0e3f:	push   esp
  4d0e40:	jecxz  0x4d0dde
  4d0e42:	push   edx
  4d0e43:	push   esp
  4d0e44:	or     bh,BYTE PTR [ebp-0x53]
  4d0e47:	stos   DWORD PTR es:[edi],eax
  4d0e48:	hlt    
  4d0e49:	sub    edx,DWORD PTR [esp+ebp*4]
  4d0e4c:	repz sub edx,DWORD PTR [esp+eax*2]
  4d0e50:	and    al,0xd4
  4d0e52:	jmp    0x4d0e0f
  4d0e54:	scas   al,BYTE PTR es:[edi]
  4d0e55:	add    al,0x60
  4d0e57:	(bad)
  4d0e5b:	(bad)
  4d0e5f:	dec    eax
  4d0e60:	jbe    0x4d0ea4
  4d0e62:	jle    0x4d0e27
  4d0e64:	xchg   ecx,ecx
  4d0e66:	mov    ah,0x2b
  4d0e68:	cmp    BYTE PTR [esi],dh
  4d0e6a:	dec    ebx
  4d0e6b:	aam    0xa
  4d0e6d:	neg    BYTE PTR [ebx]
  4d0e6f:	adc    eax,0x11daf1c1
  4d0e74:	in     al,0xfc
  4d0e76:	fist   DWORD PTR ds:0xd55f50bf
  4d0e7c:	leave  
  4d0e7d:	mov    eax,ds:0x9a3d5e07
  4d0e82:	ret    0x3d2a
  4d0e85:	shl    BYTE PTR [edi-0x6c1b4a09],1
  4d0e8b:	dec    esi
  4d0e8c:	mov    esi,0x554e93e4
  4d0e91:	jno    0x4d0eff
  4d0e93:	mov    cl,0xa9
  4d0e95:	jle    0x4d0e72
  4d0e97:	mov    ebp,0x48a20fe
  4d0e9c:	cmc    
  4d0e9d:	and    BYTE PTR [edx+0x75a51c04],cl
  4d0ea3:	sti    
  4d0ea4:	loop   0x4d0ea2
  4d0ea6:	popf   
  4d0ea7:	test   BYTE PTR [ebx+eax*1],bl
  4d0eaa:	bound  ecx,QWORD PTR ds:0x6c7e2767
  4d0eb0:	mov    ds:0xbd84bf76,eax
  4d0eb5:	iret   
  4d0eb6:	lahf   
  4d0eb7:	test   BYTE PTR [edi+ecx*8+0x768bf0d7],bh
  4d0ebe:	aad    0xf0
  4d0ec0:	mov    dh,BYTE PTR [esi-0x63]
  4d0ec3:	test   BYTE PTR [ecx-0x5f7b4231],ah
  4d0ec9:	iret   
  4d0eca:	cmc    
  4d0ecb:	lock jg 0x4d0f44
  4d0ece:	icebp  
  4d0ecf:	lock jle 0x4d0f48
  4d0ed2:	mov    ecx,0xf9cf6584
  4d0ed7:	test   BYTE PTR [edi+ecx*8-0x4f],ah
  4d0edb:	lock jae 0x4d0f54
  4d0ede:	mov    ch,0xf0
  4d0ee0:	jb     0x4d0f58
  4d0ee2:	std    
  4d0ee3:	test   BYTE PTR [ecx-0x31],bh
  4d0ee6:	mov    ebp,0xf5cf7884
  4d0eeb:	lock ja 0x4d0f32
  4d0eee:	xor    al,0xa9
  4d0ef0:	mov    bl,0x24
  4d0ef2:	mov    edi,0x4da5c2fc
  4d0ef7:	ins    DWORD PTR es:[edi],dx
  4d0ef8:	daa    
  4d0ef9:	loopne 0x4d0f30
  4d0efb:	out    0x69,al
  4d0efd:	mov    BYTE PTR [esi-0x190a16e8],bh
  4d0f03:	sbb    BYTE PTR [esi+esi*8+0x7dc36de7],bl
  4d0f0a:	mov    ds:0xd6bd450d,al
  4d0f0f:	sbb    bl,cl
  4d0f11:	sti    
  4d0f12:	jmp    0x6f4a:0xeaff704a
  4d0f19:	pop    ss
  4d0f1a:	dec    edi
  4d0f1b:	dec    ebx
  4d0f1c:	outs   dx,BYTE PTR ds:[esi]
  4d0f1d:	pop    ss
  4d0f1e:	adc    eax,0xed149d48
  4d0f23:	arpl   WORD PTR [edi+ebp*1-0x68],dx
  4d0f27:	cmp    esp,DWORD PTR [eax]
  4d0f29:	and    bl,BYTE PTR [ebx-0x19de84b2]
  4d0f2f:	adc    cl,BYTE PTR [edi+0x6c]
  4d0f32:	mov    edx,0xb1188597
  4d0f37:	cmp    dl,ah
  4d0f39:	sub    esi,DWORD PTR [ebx+0x60]
  4d0f3c:	jle    0x4d0ee6
  4d0f3e:	call   0xfaa0:0xfb4b9b63
  4d0f45:	enter  0xec86,0xf9
  4d0f49:	mov    esp,0xbcf50494
  4d0f4e:	xchg   esp,eax
  4d0f4f:	add    al,0x7d
  4d0f51:	rol    eax,0x81
  4d0f54:	xor    DWORD PTR [ebp+0x16682ac6],0x77672ac6
  4d0f5e:	add    eax,0x3922974a
  4d0f63:	ror    DWORD PTR [esi-0x57],0x4c
  4d0f67:	(bad)  
  4d0f68:	(bad)  
  4d0f69:	in     al,dx
  4d0f6a:	sbb    al,0xdd
  4d0f6c:	xchg   ebx,eax
  4d0f6d:	test   BYTE PTR [ebx*8+0x224f849e],bl
  4d0f74:	retf   0x16c4
  4d0f77:	jb     0x4d0fb9
  4d0f79:	cmp    al,0xe5
  4d0f7b:	(bad)  
  4d0f7c:	cmps   DWORD PTR ds:[esi],DWORD PTR es:[edi]
  4d0f7d:	add    al,0xe5
  4d0f7f:	(bad)  
  4d0f80:	cmps   BYTE PTR ds:[esi],BYTE PTR es:[edi]
  4d0f81:	dec    esp
  4d0f82:	ins    BYTE PTR es:[edi],dx
  4d0f83:	xchg   edx,eax
  4d0f84:	sub    DWORD PTR [edi+eiz*8+0x6a],0x6e5a600b
  4d0f8c:	or     ah,BYTE PTR [eax+0x5a]
  4d0f8f:	or     ch,BYTE PTR [edx-0x56f5a588]
  4d0f95:	repz sub ah,BYTE PTR [esi]
  4d0f98:	neg    DWORD PTR [ebx-0x6405d9d6]
  4d0f9e:	jns    0x4d0f79
  4d0fa0:	scas   al,BYTE PTR es:[edi]
  4d0fa1:	fcomi  st,st(4)
  4d0fa3:	aad    0x15
  4d0fa5:	push   esp
  4d0fa6:	cmc    
  4d0fa7:	test   DWORD PTR [ebp+0x6d7d7e9b],ebx
  4d0fad:	ds sbb bl,ah
  4d0fb0:	je     0x4d0ff0
  4d0fb2:	sbb    bl,ah
  4d0fb4:	cli    
  4d0fb5:	jle    0x4d0fed
  4d0fb7:	mov    ebp,0x51b71e38
  4d0fbc:	pop    ss
  4d0fbd:	sbb    al,0xb7
  4d0fbf:	push   ecx
  4d0fc0:	jle    0x4d0ffa
  4d0fc2:	mov    ch,0x51
  4d0fc4:	jge    0x4d0fd1
  4d0fc6:	inc    ebx
  4d0fc7:	cmp    edi,DWORD PTR [ecx+eiz*2+0x4b]
  4d0fcb:	les    ebp,FWORD PTR [eax]
  4d0fcd:	jge    0x4d0f8f
  4d0fcf:	sbb    al,0x7b
  4d0fd1:	cs aas 
  4d0fd3:	dec    ecx
  4d0fd4:	dec    esi
  4d0fd5:	movs   DWORD PTR es:[edi],DWORD PTR ds:[esi]
  4d0fd6:	jnp    0x4d1045
  4d0fd8:	push   ecx
  4d0fd9:	cmps   BYTE PTR ds:[esi],BYTE PTR es:[edi]
  4d0fda:	cmp    edx,DWORD PTR [ecx-0x27]
  4d0fdd:	es sti 
  4d0fdf:	push   ecx
  4d0fe0:	fsub   DWORD PTR [esi]
  4d0fe2:	jle    0x4d0f75
  4d0fe4:	stos   DWORD PTR es:[edi],eax
  4d0fe5:	daa    
  4d0fe6:	cmp    ch,al
  4d0fe8:	neg    eax
  4d0fea:	ins    DWORD PTR es:[edi],dx
  4d0feb:	std    
  4d0fec:	jno    0x4d1006
  4d0fee:	sbb    BYTE PTR [eax],bl
  4d0ff0:	and    edi,esp
  4d0ff2:	dec    ebp
  4d0ff3:	add    BYTE PTR [edi-0x61fd96dd],bl
  4d0ff9:	and    esp,eax
  4d0ffb:	jbe    0x4d0fb6
  4d0ffd:	aas    
  4d0ffe:	xor    DWORD PTR [ebp-0x2612a828],0xab8557d7
  4d1008:	mov    ds:0xcec3e179,al
  4d100d:	or     dl,BYTE PTR [edi-0x3d0a6660]
  4d1013:	movs   BYTE PTR es:[edi],BYTE PTR ds:[esi]
  4d1014:	sbb    esi,DWORD PTR ds:0xca4eacb7
  4d101a:	loop   0x4d0fc8
  4d101c:	retf   0x960a
  4d101f:	loope  0x4d0fc0
  4d1021:	or     bh,dh
  4d1023:	mov    al,dh
  4d1025:	jle    0x4d0fbf
  4d1027:	loopne 0x4d0fbe
  4d1029:	or     eax,ebp
  4d102b:	xchg   edx,eax
  4d102c:	rcr    BYTE PTR [ecx+0x17],0xc7
  4d1030:	(bad)  
  4d1031:	fcmovbe st,st(3)
  4d1033:	retf   
  4d1034:	dec    ebx
  4d1035:	sub    al,BYTE PTR [ebx-0x1695df61]
  4d103b:	cwde   
  4d103c:	jne    0x4d0fd3
  4d103e:	mov    esp,0xe8c52c94
  4d1043:	les    eax,FWORD PTR [ebp-0x3e]
  4d1046:	mov    esi,0xbec2622c
  4d104b:	sub    al,0xe8
  4d104d:	(bad)  
  4d104e:	call   0x2dad:0x9aec2ead
  4d1055:	xchg   BYTE PTR [ebp-0x25dd220c],bl
  4d105b:	jg     0x4d1077
  4d105d:	mov    DWORD PTR [edi+0x1],edx
  4d1060:	loop   0x4d109b
  4d1062:	aas    
  4d1063:	stos   DWORD PTR es:[edi],eax
  4d1064:	mov    ecx,0x12688f92
  4d1069:	ins    DWORD PTR es:[edi],dx
  4d106a:	fisub  DWORD PTR [ecx+ecx*2-0x12]
  4d106e:	push   ds
  4d106f:	push   0x97462d27
  4d1074:	idiv   BYTE PTR [eax-0x52]
  4d1077:	or     ebp,esi
  4d1079:	js     0x4d1029
  4d107b:	push   esp
  4d107c:	ja     0x4d10bb
  4d107e:	(bad)  
  4d1080:	mov    dh,0x39
  4d1082:	push   edi
  4d1083:	xchg   ebx,eax
  4d1084:	xchg   ecx,eax
  4d1085:	sub    DWORD PTR [edx],ecx
  4d1087:	xchg   ebx,eax
  4d1088:	nop
  4d1089:	sub    DWORD PTR [edx],ecx
  4d108b:	xchg   ebx,eax
  4d108c:	vprotq xmm9,[esi-0x18af9dd7],xmm3
  4d1095:	sbb    dl,BYTE PTR [esi+esi*1+0x50ce575c]
  4d109c:	lock xor ebp,edi
  4d109f:	add    BYTE PTR [ebx-0x7f9183c7],0x29
  4d10a6:	jl     0x4d1116
  4d10a8:	push   0xffffffc4
  4d10aa:	icebp  
  4d10ab:	xor    BYTE PTR [ebx+0x61450e40],dl
  4d10b1:	retf   
  4d10b2:	js     0x4d1133
  4d10b4:	push   es
  4d10b5:	jno    0x4d10df
  4d10b7:	cmp    cl,BYTE PTR [edx+0x265c3645]
  4d10bd:	and    eax,DWORD PTR ds:0xc6c3528c
  4d10c3:	frstor [eax+0xa]
  4d10c6:	xchg   esi,esi
  4d10c8:	mov    eax,ds:0xa2828372
  4d10cd:	cdq    
  4d10ce:	je     0x4d1081
  4d10d0:	popa   
  4d10d1:	call   0xd875:0xc39c53b6
  4d10d8:	loopne 0x4d1085
  4d10da:	pop    ds
  4d10db:	fadd   QWORD PTR [edi-0x7923f055]
  4d10e1:	cld    
  4d10e2:	fdivr  QWORD PTR gs:[eax-0x57]
  4d10e6:	jne    0x4d113f
  4d10e8:	xchg   DWORD PTR [eax],ebp
  4d10ea:	cdq    
  4d10eb:	push   ebx
  4d10ec:	test   DWORD PTR [eax],ebp
  4d10ee:	cdq    
  4d10ef:	fdivr  DWORD PTR [eax+0x40]
  4d10f2:	popf   
  4d10f3:	fnstenv [edi+0x40]
  4d10f6:	retf   0x878a
  4d10f9:	adc    eax,0x7d86e0ea
  4d10fe:	push   0xffffffe0
  4d1100:	test   DWORD PTR [ebp+0x0],edi
  4d1103:	jecxz  0x4d10f3
  4d1105:	jge    0x4d1171
  4d1107:	loop   0x4d108e
  4d1109:	jge    0x4d1175
  4d110b:	loop   0x4d1111
  4d110d:	sub    dl,BYTE PTR [ebp+0x51ab1fb7]
  4d1113:	mov    bl,0x1d
  4d1115:	stos   DWORD PTR es:[edi],eax
  4d1116:	push   ecx
  4d1117:	jo     0x4d10a5
  4d1119:	repz scas al,BYTE PTR es:[edi]
  4d111b:	mov    al,ds:0xc10c2776
  4d1120:	sti    
  4d1121:	sbb    ecx,DWORD PTR [eax]
  4d1123:	mov    WORD PTR [ebp+0x6740a7a3],?
  4d1129:	cwde   
  4d112a:	mov    BYTE PTR ds:[esi+0x14],0x76
  4d112f:	movs   BYTE PTR es:[edi],BYTE PTR ds:[esi]
  4d1130:	cmps   BYTE PTR ds:[esi],BYTE PTR es:[edi]
  4d1131:	scas   ax,WORD PTR es:[edi]
  4d1133:	mov    edi,0xd371da45
  4d1138:	fnsave [ebp+ebp*8+0x7]
  4d113c:	sbb    al,0x57
  4d113e:	movs   BYTE PTR es:[edi],BYTE PTR ds:[esi]
  4d113f:	fwait
  4d1140:	ret    
  4d1141:	cmp    cl,BYTE PTR [ecx]
  4d1143:	mov    WORD PTR [ebx+esi*8],?
  4d1146:	mov    ds:0x399f7909,eax
  4d114b:	and    BYTE PTR [eax+0x1c],dh
  4d114e:	xor    al,BYTE PTR [edi-0x79db0538]
  4d1154:	xchg   esi,esp
  4d1156:	and    eax,0xc7ae3b0d
  4d115b:	retf   0x11b5
  4d115e:	fwait
  4d115f:	in     al,dx
  4d1160:	mov    dh,0x82
  4d1162:	movs   BYTE PTR es:[edi],BYTE PTR ds:[esi]
  4d1163:	pop    ebx
  4d1164:	mov    ch,0x82
  4d1166:	movs   BYTE PTR es:[edi],BYTE PTR ds:[esi]
  4d1167:	pop    ebx
  4d1168:	mov    ah,0x82
  4d116a:	movs   BYTE PTR es:[edi],BYTE PTR ds:[esi]
  4d116b:	pop    ebx
  4d116c:	mov    bl,0x82
  4d116e:	movs   BYTE PTR es:[edi],BYTE PTR ds:[esi]
  4d116f:	pop    ebx
  4d1170:	mov    dl,0x82
  4d1172:	movs   BYTE PTR es:[edi],BYTE PTR ds:[esi]
  4d1173:	pop    ebx
  4d1174:	mov    cl,0x82
  4d1176:	movs   BYTE PTR es:[edi],BYTE PTR ds:[esi]
  4d1177:	pop    ebx
  4d1178:	mov    al,0x82
  4d117a:	movs   BYTE PTR es:[edi],BYTE PTR ds:[esi]
  4d117b:	pop    ebx
  4d117c:	scas   eax,DWORD PTR es:[edi]
  4d117d:	and    BYTE PTR [ebx+ebx*2+0x5ba4daae],0xad
  4d1185:	and    BYTE PTR [ecx-0x5e7953a5],0x5b
  4d118c:	dec    ebp
  4d118d:	add    BYTE PTR ss:[esi-0x16f52082],bh
