
4a9a7098711140b4b1a0cf9fe46d62c19699826760781761346e735710427951.exe:     file format pei-i386


Disassembly of section .text:

004c1000 <.text>:
  4c1000:	pop    edi
  4c1001:	call   DWORD PTR ds:0x4c2714
  4c1007:	push   edi
  4c1008:	repz ret 0x0
  4c100c:	mov    edi,edi
  4c100e:	push   ebp
  4c100f:	mov    ebp,esp
  4c1011:	sub    esp,0x5c
  4c1014:	lea    ebx,[eax-0x68]
  4c1017:	or     DWORD PTR [ebp-0x28],ebx
  4c101a:	push   ebx
  4c101b:	push   eax
  4c101c:	push   DWORD PTR [ebx+0x9c]
  4c1022:	push   edx
  4c1023:	call   0x4c1bec
  4c1028:	add    esp,0xc
  4c102b:	pop    ebx
  4c102c:	mov    eax,0x0
  4c1031:	push   eax
  4c1032:	call   0x4c10e0
  4c1037:	mov    edx,0x0
  4c103c:	push   edx
  4c103d:	call   0x4c16dc
  4c1042:	add    esp,0x5c
  4c1045:	pop    ebp
  4c1046:	ret    
  4c1047:	add    BYTE PTR [edi-0x1],bl
  4c104a:	adc    eax,0x4c2778
  4c104f:	push   edi
  4c1050:	repz ret 0x0
  4c1054:	mov    edi,edi
  4c1056:	push   ebp
  4c1057:	mov    ebp,esp
  4c1059:	sub    esp,0x4c
  4c105c:	mov    eax,0x4c30c4
  4c1061:	sub    esi,DWORD PTR [ebp-0x10]
  4c1064:	push   eax
  4c1065:	push   0x0
  4c1067:	call   0x4c14a0
  4c106c:	pop    eax
  4c106d:	push   eax
  4c106e:	push   DWORD PTR [eax+0x110]
  4c1074:	push   DWORD PTR [eax+0x80]
  4c107a:	push   DWORD PTR [eax+0xc0]
  4c1080:	call   0x4c1cfc
  4c1085:	add    esp,0xc
  4c1088:	pop    eax
  4c1089:	mov    ebx,0x4c270c
  4c108e:	mov    ebx,DWORD PTR [ebx]
  4c1090:	push   ebx
  4c1091:	push   DWORD PTR [eax-0x30]
  4c1094:	pop    ebx
  4c1095:	call   ebx
  4c1097:	add    esp,0x4c
  4c109a:	pop    ebp
  4c109b:	ret    
  4c109c:	mov    edi,edi
  4c109e:	push   ebp
  4c109f:	mov    ebp,esp
  4c10a1:	sub    esp,0x44
  4c10a4:	lea    eax,[ecx+0x10c]
  4c10aa:	cmp    eax,0x6312
  4c10af:	jb     0x4c109f
  4c10b1:	push   eax
  4c10b2:	mov    ebx,0x0
  4c10b7:	push   ebx
  4c10b8:	call   0x4c131c
  4c10bd:	pop    eax
  4c10be:	push   eax
  4c10bf:	push   ecx
  4c10c0:	push   DWORD PTR [eax+0x194]
  4c10c6:	call   0x4c100c
  4c10cb:	add    esp,0x8
  4c10ce:	pop    eax
  4c10cf:	push   eax
  4c10d0:	push   0x0
  4c10d2:	call   0x4c1a98
  4c10d7:	pop    eax
  4c10d8:	add    esp,0x44
  4c10db:	pop    ebp
  4c10dc:	ret    
  4c10dd:	add    BYTE PTR [eax],al
  4c10df:	add    BYTE PTR [edi-0x1],bl
  4c10e2:	adc    eax,0x4c26f8
  4c10e7:	push   edi
  4c10e8:	repz ret 0x0
  4c10ec:	pop    edi
  4c10ed:	call   DWORD PTR ds:0x4c2764
  4c10f3:	push   edi
  4c10f4:	repz ret 0x0
  4c10f8:	pop    edi
  4c10f9:	call   DWORD PTR ds:0x4c26e8
  4c10ff:	push   edi
  4c1100:	repz ret 0x0
  4c1104:	pop    edi
  4c1105:	call   DWORD PTR ds:0x4c2774
  4c110b:	push   edi
  4c110c:	repz ret 0x0
  4c1110:	mov    edi,edi
  4c1112:	push   ebp
  4c1113:	mov    ebp,esp
  4c1115:	sub    esp,0x28
  4c1118:	lea    edx,[ecx+0x28]
  4c111b:	mov    DWORD PTR [edx-0xac],0xe63
  4c1125:	push   edx
  4c1126:	push   DWORD PTR [edx+0x1a0]
  4c112c:	push   DWORD PTR [edx+0x13c]
  4c1132:	push   DWORD PTR [edx+0xcc]
  4c1138:	call   0x4c140c
  4c113d:	add    esp,0xc
  4c1140:	pop    edx
  4c1141:	push   edx
  4c1142:	mov    ebx,0x0
  4c1147:	push   ebx
  4c1148:	call   0x4c18f4
  4c114d:	pop    edx
  4c114e:	push   edx
  4c114f:	mov    edi,0x0
  4c1154:	push   edi
  4c1155:	call   0x4c1454
  4c115a:	pop    edx
  4c115b:	add    esp,0x28
  4c115e:	pop    ebp
  4c115f:	ret    
  4c1160:	pop    edi
  4c1161:	call   DWORD PTR ds:0x4c272c
  4c1167:	push   edi
  4c1168:	repz ret 0x0
  4c116c:	mov    edi,edi
  4c116e:	push   ebp
  4c116f:	mov    ebp,esp
  4c1171:	sub    esp,0x38
  4c1174:	lea    edi,ds:0x4c30c0
  4c117a:	cmp    edi,0x1ea0
  4c1180:	jb     0x4c116f
  4c1182:	push   edi
  4c1183:	push   DWORD PTR [edi+0x178]
  4c1189:	push   DWORD PTR [edi+0x13c]
  4c118f:	call   0x4c153c
  4c1194:	add    esp,0x8
  4c1197:	pop    edi
  4c1198:	push   edi
  4c1199:	mov    edi,0x0
  4c119e:	push   edi
  4c119f:	call   0x4c131c
  4c11a4:	pop    edi
  4c11a5:	push   edi
  4c11a6:	push   0x0
  4c11a8:	call   0x4c10e0
  4c11ad:	pop    edi
  4c11ae:	add    esp,0x38
  4c11b1:	pop    ebp
  4c11b2:	ret    
  4c11b3:	add    BYTE PTR [ebx-0x1374aa01],cl
  4c11b9:	sub    esp,0x2c
  4c11bc:	lea    edx,ds:0x4c31a8
  4c11c2:	adc    DWORD PTR [ebp-0xc],eax
  4c11c5:	push   edx
  4c11c6:	mov    edi,0x0
  4c11cb:	push   edi
  4c11cc:	call   0x4c1d80
  4c11d1:	pop    edx
  4c11d2:	push   edx
  4c11d3:	push   DWORD PTR [edx+0x100]
  4c11d9:	push   esi
  4c11da:	push   DWORD PTR [edx+0xc0]
  4c11e0:	call   0x4c1370
  4c11e5:	add    esp,0xc
  4c11e8:	pop    edx
  4c11e9:	push   edx
  4c11ea:	call   0x4c1000
  4c11ef:	pop    edx
  4c11f0:	add    esp,0x2c
  4c11f3:	pop    ebp
  4c11f4:	ret    
  4c11f5:	add    BYTE PTR [eax],al
  4c11f7:	add    BYTE PTR [ebx-0x1374aa01],cl
  4c11fd:	sub    esp,0x50
  4c1200:	mov    edx,0x4c31c0
  4c1205:	or     DWORD PTR [edx-0x84],esi
  4c120b:	push   edx
  4c120c:	push   DWORD PTR [edx+0x1a8]
  4c1212:	push   DWORD PTR [edx+0x18]
  4c1215:	push   eax
  4c1216:	call   0x4c1580
  4c121b:	add    esp,0xc
  4c121e:	pop    edx
  4c121f:	push   edx
  4c1220:	push   0x0
  4c1222:	call   0x4c10e0
  4c1227:	pop    edx
  4c1228:	push   edx
  4c1229:	call   0x4c1da4
  4c122e:	pop    edx
  4c122f:	add    esp,0x50
  4c1232:	pop    ebp
  4c1233:	ret    
  4c1234:	pop    edi
  4c1235:	call   DWORD PTR ds:0x4c2758
  4c123b:	push   edi
  4c123c:	repz ret 0x0
  4c1240:	mov    edi,edi
  4c1242:	push   ebp
  4c1243:	mov    ebp,esp
  4c1245:	sub    esp,0x60
  4c1248:	lea    eax,[edx-0xb4]
  4c124e:	and    ebx,DWORD PTR [ebp-0x5c]
  4c1251:	push   eax
  4c1252:	push   edi
  4c1253:	push   edx
  4c1254:	push   edi
  4c1255:	push   DWORD PTR [eax+0x1fc]
  4c125b:	call   0x4c1e20
  4c1260:	add    esp,0x10
  4c1263:	pop    eax
  4c1264:	push   eax
  4c1265:	push   0xfffffff4
  4c1267:	call   0x4c1dc8
  4c126c:	pop    eax
  4c126d:	push   eax
  4c126e:	lea    esi,[eax-0x100]
  4c1274:	push   esi
  4c1275:	call   0x4c1cf0
  4c127a:	test   eax,eax
  4c127c:	jne    0x4c126e
  4c127e:	pop    eax
  4c127f:	add    esp,0x60
  4c1282:	pop    ebp
  4c1283:	ret    
  4c1284:	mov    edi,edi
  4c1286:	push   ebp
  4c1287:	mov    ebp,esp
  4c1289:	sub    esp,0x28
  4c128c:	mov    eax,0x4c3018
  4c1291:	xor    DWORD PTR [eax+0xbc],0x61ec
  4c129b:	push   eax
  4c129c:	mov    edx,0x0
  4c12a1:	push   edx
  4c12a2:	call   0x4c1a98
  4c12a7:	pop    eax
  4c12a8:	push   eax
  4c12a9:	push   esi
  4c12aa:	push   DWORD PTR [eax+0x114]
  4c12b0:	call   0x4c11b4
  4c12b5:	add    esp,0x8
  4c12b8:	pop    eax
  4c12b9:	push   eax
  4c12ba:	mov    ecx,0xfffffff4
  4c12bf:	push   ecx
  4c12c0:	call   0x4c1dc8
  4c12c5:	pop    eax
  4c12c6:	add    esp,0x28
  4c12c9:	pop    ebp
  4c12ca:	ret    
  4c12cb:	add    BYTE PTR [edi-0x1],bl
  4c12ce:	adc    eax,0x4c2784
  4c12d3:	push   edi
  4c12d4:	repz ret 0x0
  4c12d8:	mov    edi,edi
  4c12da:	push   ebp
  4c12db:	mov    ebp,esp
  4c12dd:	sub    esp,0x30
  4c12e0:	lea    esi,ds:0x4c30b4
  4c12e6:	cmp    esi,0x1a68
  4c12ec:	jbe    0x4c12db
  4c12ee:	push   0x0
  4c12f0:	call   0x4c18f4
  4c12f5:	push   esi
  4c12f6:	push   edi
  4c12f7:	push   DWORD PTR [esi+0x124]
  4c12fd:	push   eax
  4c12fe:	push   DWORD PTR [esi+0x1a0]
  4c1304:	call   0x4c1824
  4c1309:	add    esp,0x10
  4c130c:	pop    esi
  4c130d:	push   0x0
  4c130f:	call   0x4c1d80
  4c1314:	add    esp,0x30
  4c1317:	pop    ebp
  4c1318:	ret    
  4c1319:	add    BYTE PTR [eax],al
  4c131b:	add    BYTE PTR [edi-0x1],bl
  4c131e:	adc    eax,0x4c26fc
  4c1323:	push   edi
  4c1324:	repz ret 0x0
  4c1328:	mov    edi,edi
  4c132a:	push   ebp
  4c132b:	mov    ebp,esp
  4c132d:	sub    esp,0x4c
  4c1330:	mov    eax,0x4c3144
  4c1335:	adc    ecx,0x4d
  4c1338:	push   eax
  4c1339:	lea    ecx,[eax-0x144]
  4c133f:	push   ecx
  4c1340:	call   0x4c1cf0
  4c1345:	test   eax,eax
  4c1347:	jne    0x4c1339
  4c1349:	pop    eax
  4c134a:	push   eax
  4c134b:	push   DWORD PTR [eax+0x1b4]
  4c1351:	push   esi
  4c1352:	push   DWORD PTR [eax+0x1d0]
  4c1358:	call   0x4c16e8
  4c135d:	add    esp,0xc
  4c1360:	pop    eax
  4c1361:	push   eax
  4c1362:	push   0x0
  4c1364:	call   0x4c14a0
  4c1369:	pop    eax
  4c136a:	add    esp,0x4c
  4c136d:	pop    ebp
  4c136e:	ret    
  4c136f:	add    BYTE PTR [ebx-0x1374aa01],cl
  4c1375:	sub    esp,0x20
  4c1378:	lea    ecx,[edx-0x1a0]
  4c137e:	adc    DWORD PTR [ecx+0xf0],ebx
  4c1384:	push   ecx
  4c1385:	push   0xfffffff4
  4c1387:	call   0x4c1dc8
  4c138c:	pop    ecx
  4c138d:	push   ecx
  4c138e:	push   edx
  4c138f:	push   ebx
  4c1390:	call   0x4c116c
  4c1395:	add    esp,0x8
  4c1398:	pop    ecx
  4c1399:	push   ecx
  4c139a:	call   0x4c1160
  4c139f:	pop    ecx
  4c13a0:	add    esp,0x20
  4c13a3:	pop    ebp
  4c13a4:	ret    
  4c13a5:	add    BYTE PTR [eax],al
  4c13a7:	add    BYTE PTR [edi-0x1],bl
  4c13aa:	adc    eax,0x4c2710
  4c13af:	push   edi
  4c13b0:	repz ret 0x0
  4c13b4:	mov    edi,edi
  4c13b6:	push   ebp
  4c13b7:	mov    ebp,esp
  4c13b9:	sub    esp,0x20
  4c13bc:	lea    edi,ds:0x4c304c
  4c13c2:	mov    DWORD PTR [edi-0x20],0xffffffa5
  4c13c9:	push   edi
  4c13ca:	push   esi
  4c13cb:	push   esi
  4c13cc:	push   DWORD PTR [edi+0x100]
  4c13d2:	push   DWORD PTR [edi+0x38]
  4c13d5:	call   0x4c190c
  4c13da:	add    esp,0x10
  4c13dd:	pop    edi
  4c13de:	push   edi
  4c13df:	lea    eax,[edi-0x4c]
  4c13e2:	push   eax
  4c13e3:	call   0x4c1cf0
  4c13e8:	test   eax,eax
  4c13ea:	jne    0x4c13df
  4c13ec:	pop    edi
  4c13ed:	push   edi
  4c13ee:	mov    ebx,0x0
  4c13f3:	push   ebx
  4c13f4:	call   0x4c1d80
  4c13f9:	pop    edi
  4c13fa:	add    esp,0x20
  4c13fd:	pop    ebp
  4c13fe:	ret    
  4c13ff:	add    BYTE PTR [edi-0x1],bl
  4c1402:	adc    eax,0x4c2780
  4c1407:	push   edi
  4c1408:	repz ret 0x0
  4c140c:	mov    edi,edi
  4c140e:	push   ebp
  4c140f:	mov    ebp,esp
  4c1411:	sub    esp,0x2c
  4c1414:	lea    esi,ds:0x4c3054
  4c141a:	mov    ebx,0xffffffee
  4c141f:	push   esi
  4c1420:	push   DWORD PTR [esi+0x13c]
  4c1426:	push   ecx
  4c1427:	call   0x4c160c
  4c142c:	add    esp,0x8
  4c142f:	pop    esi
  4c1430:	call   0x4c1160
  4c1435:	mov    ecx,0x0
  4c143a:	push   ecx
  4c143b:	call   0x4c16dc
  4c1440:	add    esp,0x2c
  4c1443:	pop    ebp
  4c1444:	ret    
  4c1445:	add    BYTE PTR [eax],al
  4c1447:	add    BYTE PTR [edi-0x1],bl
  4c144a:	adc    eax,0x4c2760
  4c144f:	push   edi
  4c1450:	repz ret 0x0
  4c1454:	pop    edi
  4c1455:	call   DWORD PTR ds:0x4c2720
  4c145b:	push   edi
  4c145c:	repz ret 0x0
  4c1460:	mov    edi,edi
  4c1462:	push   ebp
  4c1463:	mov    ebp,esp
  4c1465:	sub    esp,0x34
  4c1468:	lea    edi,ds:0x4c30f4
  4c146e:	sub    eax,DWORD PTR [ebp-0x14]
  4c1471:	push   edi
  4c1472:	push   0x0
  4c1474:	call   0x4c1d98
  4c1479:	pop    edi
  4c147a:	push   edi
  4c147b:	push   DWORD PTR [edi+0x5c]
  4c147e:	push   DWORD PTR [edi+0x140]
  4c1484:	push   esi
  4c1485:	push   ebx
  4c1486:	call   0x4c1328
  4c148b:	add    esp,0x10
  4c148e:	pop    edi
  4c148f:	push   edi
  4c1490:	push   0x0
  4c1492:	call   0x4c1a98
  4c1497:	pop    edi
  4c1498:	add    esp,0x34
  4c149b:	pop    ebp
  4c149c:	ret    
  4c149d:	add    BYTE PTR [eax],al
  4c149f:	add    BYTE PTR [edi-0x1],bl
  4c14a2:	adc    eax,0x4c26f4
  4c14a7:	push   edi
  4c14a8:	repz ret 0x0
  4c14ac:	push   edi
  4c14ad:	push   0x0
  4c14af:	push   0x0
  4c14b1:	push   0x0
  4c14b3:	push   0x0
  4c14b5:	call   0x4c14a0
  4c14ba:	sub    esp,0xfffffff8
  4c14bd:	call   0x4c14a0
  4c14c2:	push   0x4c30a0
  4c14c7:	pop    eax
  4c14c8:	push   0x2
  4c14ca:	push   0x0
  4c14cc:	dec    DWORD PTR ds:0x4c30a7
  4c14d2:	push   eax
  4c14d3:	call   0x4c10f8
  4c14d8:	pop    edi
  4c14d9:	mov    edi,DWORD PTR [eax+0x3b]
  4c14dc:	lea    eax,[eax+edi*1]
  4c14df:	add    eax,0x28
  4c14e2:	mov    eax,DWORD PTR [eax]
  4c14e4:	pusha  
  4c14e5:	mov    ah,0x30
  4c14e7:	sub    al,ah
  4c14e9:	jb     0x4c14f1
  4c14eb:	jg     0x4c1054
  4c14f1:	popa   
  4c14f2:	ret    
  4c14f3:	add    BYTE PTR [ebx-0x1374aa01],cl
  4c14f9:	sub    esp,0x44
  4c14fc:	lea    edx,[ecx-0x48]
  4c14ff:	sub    ecx,DWORD PTR [edx-0x44]
  4c1502:	push   edx
  4c1503:	lea    ebx,[edx-0x94]
  4c1509:	push   ebx
  4c150a:	call   0x4c1cf0
  4c150f:	test   eax,eax
  4c1511:	jne    0x4c1503
  4c1513:	pop    edx
  4c1514:	push   edx
  4c1515:	push   DWORD PTR [edx+0x154]
  4c151b:	push   DWORD PTR [edx+0x1f8]
  4c1521:	call   0x4c17e8
  4c1526:	add    esp,0x8
  4c1529:	pop    edx
  4c152a:	push   edx
  4c152b:	mov    edi,0x0
  4c1530:	push   edi
  4c1531:	call   0x4c16dc
  4c1536:	pop    edx
  4c1537:	add    esp,0x44
  4c153a:	pop    ebp
  4c153b:	ret    
  4c153c:	mov    edi,edi
  4c153e:	push   ebp
  4c153f:	mov    ebp,esp
  4c1541:	sub    esp,0x54
  4c1544:	lea    ecx,ds:0x4c31a0
  4c154a:	add    esi,0xffffff90
  4c154d:	push   ecx
  4c154e:	mov    esi,0x0
  4c1553:	push   esi
  4c1554:	call   0x4c131c
  4c1559:	pop    ecx
  4c155a:	push   ecx
  4c155b:	push   DWORD PTR [ecx+0x1ac]
  4c1561:	push   eax
  4c1562:	call   0x4c1d40
  4c1567:	add    esp,0x8
  4c156a:	pop    ecx
  4c156b:	push   ecx
  4c156c:	mov    edi,0xfffffff4
  4c1571:	push   edi
  4c1572:	call   0x4c1dc8
  4c1577:	pop    ecx
  4c1578:	add    esp,0x54
  4c157b:	pop    ebp
  4c157c:	ret    
  4c157d:	add    BYTE PTR [eax],al
  4c157f:	add    BYTE PTR [ebx-0x1374aa01],cl
  4c1585:	sub    esp,0x40
  4c1588:	mov    ecx,0x4c30c8
  4c158d:	and    DWORD PTR [ebp-0xc],0xc96
  4c1594:	push   ecx
  4c1595:	push   0x0
  4c1597:	call   0x4c14a0
  4c159c:	pop    ecx
  4c159d:	push   ecx
  4c159e:	push   DWORD PTR [ecx+0x180]
  4c15a4:	push   DWORD PTR [ecx+0xa4]
  4c15aa:	call   0x4c1cb8
  4c15af:	add    esp,0x8
  4c15b2:	pop    ecx
  4c15b3:	push   ecx
  4c15b4:	mov    ecx,0x0
  4c15b9:	push   ecx
  4c15ba:	call   0x4c1454
  4c15bf:	pop    ecx
  4c15c0:	add    esp,0x40
  4c15c3:	pop    ebp
  4c15c4:	ret    
  4c15c5:	add    BYTE PTR [eax],al
  4c15c7:	add    BYTE PTR [ebx-0x1374aa01],cl
  4c15cd:	sub    esp,0x28
  4c15d0:	lea    edx,ds:0x4c31b4
  4c15d6:	and    DWORD PTR [ebp-0xc],esi
  4c15d9:	push   edx
  4c15da:	push   esi
  4c15db:	push   DWORD PTR [edx+0x34]
  4c15de:	push   edi
  4c15df:	push   DWORD PTR [edx+0x10]
  4c15e2:	call   0x4c1240
  4c15e7:	add    esp,0x10
  4c15ea:	pop    edx
  4c15eb:	push   edx
  4c15ec:	mov    ecx,0x0
  4c15f1:	push   ecx
  4c15f2:	call   0x4c1454
  4c15f7:	pop    edx
  4c15f8:	push   edx
  4c15f9:	mov    edx,0x0
  4c15fe:	push   edx
  4c15ff:	call   0x4c131c
  4c1604:	pop    edx
  4c1605:	add    esp,0x28
  4c1608:	pop    ebp
  4c1609:	ret    
  4c160a:	add    BYTE PTR [eax],al
  4c160c:	mov    edi,edi
  4c160e:	push   ebp
  4c160f:	mov    ebp,esp
  4c1611:	sub    esp,0x3c
  4c1614:	lea    ebx,ds:0x4c3114
  4c161a:	and    edi,DWORD PTR [ebx+0x4]
  4c161d:	push   ebx
  4c161e:	push   DWORD PTR [ebx+0x3c]
  4c1621:	push   DWORD PTR [ebx+0x4]
  4c1624:	push   DWORD PTR [ebx+0xd0]
  4c162a:	push   eax
  4c162b:	call   0x4c12d8
  4c1630:	add    esp,0x10
  4c1633:	pop    ebx
  4c1634:	call   0x4c1000
  4c1639:	push   0x0
  4c163b:	call   0x4c10e0
  4c1640:	add    esp,0x3c
  4c1643:	pop    ebp
  4c1644:	ret    
  4c1645:	add    BYTE PTR [eax],al
  4c1647:	add    BYTE PTR [edi-0x1],bl
  4c164a:	adc    eax,0x4c2700
  4c164f:	push   edi
  4c1650:	repz ret 0x0
  4c1654:	mov    edi,edi
  4c1656:	push   ebp
  4c1657:	mov    ebp,esp
  4c1659:	sub    esp,0x60
  4c165c:	lea    edx,[esi+0x40]
  4c165f:	add    DWORD PTR [ebp-0xc],0xffff9651
  4c1666:	push   edx
  4c1667:	push   ecx
  4c1668:	push   ecx
  4c1669:	call   0x4c198c
  4c166e:	add    esp,0x8
  4c1671:	pop    edx
  4c1672:	push   edx
  4c1673:	call   0x4c1000
  4c1678:	pop    edx
  4c1679:	push   edx
  4c167a:	push   0x0
  4c167c:	call   0x4c1d98
  4c1681:	pop    edx
  4c1682:	add    esp,0x60
  4c1685:	pop    ebp
  4c1686:	ret    
  4c1687:	add    BYTE PTR [ebx-0x1374aa01],cl
  4c168d:	sub    esp,0x3c
  4c1690:	lea    esi,[ebx+0x7c]
  4c1693:	sbb    ebx,DWORD PTR [esi+0x9c]
  4c1699:	push   esi
  4c169a:	push   ecx
  4c169b:	push   DWORD PTR [esi+0x5c]
  4c169e:	push   DWORD PTR [esi+0x180]
  4c16a4:	call   0x4c1654
  4c16a9:	add    esp,0xc
  4c16ac:	pop    esi
  4c16ad:	mov    eax,0x0
  4c16b2:	push   eax
  4c16b3:	call   0x4c1d80
  4c16b8:	call   0x4c1da4
  4c16bd:	add    esp,0x3c
  4c16c0:	pop    ebp
  4c16c1:	ret    
  4c16c2:	add    BYTE PTR [eax],al
  4c16c4:	pop    edi
  4c16c5:	call   DWORD PTR ds:0x4c276c
  4c16cb:	push   edi
  4c16cc:	repz ret 0x0
  4c16d0:	pop    edi
  4c16d1:	call   DWORD PTR ds:0x4c2754
  4c16d7:	push   edi
  4c16d8:	repz ret 0x0
  4c16dc:	pop    edi
  4c16dd:	call   DWORD PTR ds:0x4c26ec
  4c16e3:	push   edi
  4c16e4:	repz ret 0x0
  4c16e8:	mov    edi,edi
  4c16ea:	push   ebp
  4c16eb:	mov    ebp,esp
  4c16ed:	sub    esp,0x54
  4c16f0:	lea    edi,[eax-0x8c]
  4c16f6:	add    esi,DWORD PTR [ebp-0x30]
  4c16f9:	push   edi
  4c16fa:	lea    ecx,[edi-0xb8]
  4c1700:	push   ecx
  4c1701:	call   0x4c1cf0
  4c1706:	test   eax,eax
  4c1708:	jne    0x4c16fa
  4c170a:	pop    edi
  4c170b:	push   edi
  4c170c:	push   ecx
  4c170d:	push   ebx
  4c170e:	call   0x4c1eb4
  4c1713:	add    esp,0x8
  4c1716:	pop    edi
  4c1717:	push   edi
  4c1718:	push   0x0
  4c171a:	call   0x4c1454
  4c171f:	pop    edi
  4c1720:	add    esp,0x54
  4c1723:	pop    ebp
  4c1724:	ret    
  4c1725:	add    BYTE PTR [eax],al
  4c1727:	add    BYTE PTR [ebx-0x1374aa01],cl
  4c172d:	sub    esp,0x5c
  4c1730:	lea    esi,ds:0x4c3050
  4c1736:	sub    edi,DWORD PTR [esi+0xac]
  4c173c:	mov    ecx,0x0
  4c1741:	push   ecx
  4c1742:	call   0x4c10e0
  4c1747:	push   esi
  4c1748:	push   eax
  4c1749:	push   DWORD PTR [esi+0x1ec]
  4c174f:	push   ebx
  4c1750:	call   0x4c11f8
  4c1755:	add    esp,0xc
  4c1758:	pop    esi
  4c1759:	lea    ebx,[esi-0x50]
  4c175c:	push   ebx
  4c175d:	call   0x4c1cf0
  4c1762:	test   eax,eax
  4c1764:	jne    0x4c175a
  4c1766:	add    esp,0x5c
  4c1769:	pop    ebp
  4c176a:	ret    
  4c176b:	add    BYTE PTR [ebx-0x1374aa01],cl
  4c1771:	sub    esp,0x2c
  4c1774:	mov    edi,0x4c303c
  4c1779:	mov    DWORD PTR [edi-0x38],ecx
  4c177c:	push   edi
  4c177d:	push   ecx
  4c177e:	push   eax
  4c177f:	push   DWORD PTR [edi+0x15c]
  4c1785:	call   0x4c15c8
  4c178a:	add    esp,0xc
  4c178d:	pop    edi
  4c178e:	push   edi
  4c178f:	push   0x0
  4c1791:	call   0x4c1454
  4c1796:	pop    edi
  4c1797:	push   edi
  4c1798:	mov    edi,0x0
  4c179d:	push   edi
  4c179e:	call   0x4c16dc
  4c17a3:	pop    edi
  4c17a4:	add    esp,0x2c
  4c17a7:	pop    ebp
  4c17a8:	ret    
  4c17a9:	add    BYTE PTR [eax],al
  4c17ab:	add    BYTE PTR [ebx-0x1374aa01],cl
  4c17b1:	sub    esp,0x2c
  4c17b4:	lea    edx,ds:0x4c3128
  4c17ba:	sub    DWORD PTR [ebp-0x28],0x24b8
  4c17c1:	push   edx
  4c17c2:	push   ebx
  4c17c3:	push   esi
  4c17c4:	call   0x4c1b54
  4c17c9:	add    esp,0x8
  4c17cc:	pop    edx
  4c17cd:	push   edx
  4c17ce:	push   0x0
  4c17d0:	call   0x4c1454
  4c17d5:	pop    edx
  4c17d6:	push   edx
  4c17d7:	mov    esi,0x0
  4c17dc:	push   esi
  4c17dd:	call   0x4c131c
  4c17e2:	pop    edx
  4c17e3:	add    esp,0x2c
  4c17e6:	pop    ebp
  4c17e7:	ret    
  4c17e8:	mov    edi,edi
  4c17ea:	push   ebp
  4c17eb:	mov    ebp,esp
  4c17ed:	sub    esp,0x44
  4c17f0:	lea    ebx,[edx-0x60]
  4c17f3:	and    esi,0xf
  4c17f6:	push   ebx
  4c17f7:	push   DWORD PTR [ebx+0x1d4]
  4c17fd:	push   DWORD PTR [ebx+0x100]
  4c1803:	push   edi
  4c1804:	call   0x4c1688
  4c1809:	add    esp,0xc
  4c180c:	pop    ebx
  4c180d:	mov    esi,0x0
  4c1812:	push   esi
  4c1813:	call   0x4c18f4
  4c1818:	push   0x0
  4c181a:	call   0x4c1d80
  4c181f:	add    esp,0x44
  4c1822:	pop    ebp
  4c1823:	ret    
  4c1824:	mov    edi,edi
  4c1826:	push   ebp
  4c1827:	mov    ebp,esp
  4c1829:	sub    esp,0x38
  4c182c:	lea    edi,ds:0x4c31e4
  4c1832:	adc    DWORD PTR [edi-0xf8],0x3dc
  4c183c:	push   edi
  4c183d:	call   0x4c1db0
  4c1842:	pop    edi
  4c1843:	push   edi
  4c1844:	push   DWORD PTR [edi+0x1ac]
  4c184a:	push   ebx
  4c184b:	call   0x4c1950
  4c1850:	add    esp,0x8
  4c1853:	pop    edi
  4c1854:	push   edi
  4c1855:	push   0xfffffff4
  4c1857:	call   0x4c1dc8
  4c185c:	pop    edi
  4c185d:	add    esp,0x38
  4c1860:	pop    ebp
  4c1861:	ret    
  4c1862:	add    BYTE PTR [eax],al
  4c1864:	pop    edi
  4c1865:	call   DWORD PTR ds:0x4c2724
  4c186b:	push   edi
  4c186c:	repz ret 0x0
  4c1870:	pop    edi
  4c1871:	call   DWORD PTR ds:0x4c277c
  4c1877:	push   edi
  4c1878:	repz ret 0x0
  4c187c:	mov    edi,edi
  4c187e:	push   ebp
  4c187f:	mov    ebp,esp
  4c1881:	sub    esp,0x2c
  4c1884:	lea    ebx,[edi+0x16c]
  4c188a:	adc    DWORD PTR [ebx-0x108],edi
  4c1890:	call   0x4c1160
  4c1895:	push   ebx
  4c1896:	push   DWORD PTR [ebx+0x114]
  4c189c:	push   eax
  4c189d:	push   DWORD PTR [ebx+0x1ec]
  4c18a3:	push   esi
  4c18a4:	call   0x4c1a00
  4c18a9:	add    esp,0x10
  4c18ac:	pop    ebx
  4c18ad:	call   0x4c1db0
  4c18b2:	add    esp,0x2c
  4c18b5:	pop    ebp
  4c18b6:	ret    
  4c18b7:	add    BYTE PTR [ebx-0x1374aa01],cl
  4c18bd:	sub    esp,0x50
  4c18c0:	lea    ecx,ds:0x4c30d4
  4c18c6:	sub    DWORD PTR [ebp-0x30],eax
  4c18c9:	push   ecx
  4c18ca:	call   0x4c1da4
  4c18cf:	pop    ecx
  4c18d0:	push   ecx
  4c18d1:	push   eax
  4c18d2:	push   edx
  4c18d3:	push   eax
  4c18d4:	push   DWORD PTR [ecx+0x150]
  4c18da:	call   0x4c1110
  4c18df:	add    esp,0x10
  4c18e2:	pop    ecx
  4c18e3:	push   ecx
  4c18e4:	push   0x0
  4c18e6:	call   0x4c131c
  4c18eb:	pop    ecx
  4c18ec:	add    esp,0x50
  4c18ef:	pop    ebp
  4c18f0:	ret    
  4c18f1:	add    BYTE PTR [eax],al
  4c18f3:	add    BYTE PTR [edi-0x1],bl
  4c18f6:	adc    eax,0x4c2744
  4c18fb:	push   edi
  4c18fc:	repz ret 0x0
  4c1900:	pop    edi
  4c1901:	call   DWORD PTR ds:0x4c2734
  4c1907:	push   edi
  4c1908:	repz ret 0x0
  4c190c:	mov    edi,edi
  4c190e:	push   ebp
  4c190f:	mov    ebp,esp
  4c1911:	sub    esp,0x30
  4c1914:	lea    ecx,ds:0x4c3060
  4c191a:	and    esi,DWORD PTR [ebp-0x18]
  4c191d:	push   ecx
  4c191e:	push   DWORD PTR [ecx+0x3c]
  4c1921:	push   DWORD PTR [ecx+0x68]
  4c1924:	push   DWORD PTR [ecx+0x134]
  4c192a:	push   esi
  4c192b:	call   0x4c17ac
  4c1930:	add    esp,0x10
  4c1933:	pop    ecx
  4c1934:	push   ecx
  4c1935:	push   0x0
  4c1937:	call   0x4c10e0
  4c193c:	pop    ecx
  4c193d:	push   ecx
  4c193e:	mov    ecx,0x0
  4c1943:	push   ecx
  4c1944:	call   0x4c1d80
  4c1949:	pop    ecx
  4c194a:	add    esp,0x30
  4c194d:	pop    ebp
  4c194e:	ret    
  4c194f:	add    BYTE PTR [ebx-0x1374aa01],cl
  4c1955:	sub    esp,0x38
  4c1958:	mov    eax,0x4c3184
  4c195d:	mov    ebx,DWORD PTR [eax-0xbc]
  4c1963:	push   eax
  4c1964:	push   edi
  4c1965:	push   ecx
  4c1966:	push   DWORD PTR [eax+0xd0]
  4c196c:	call   0x4c1c74
  4c1971:	add    esp,0xc
  4c1974:	pop    eax
  4c1975:	push   eax
  4c1976:	call   0x4c1000
  4c197b:	pop    eax
  4c197c:	push   eax
  4c197d:	push   0x0
  4c197f:	call   0x4c1a98
  4c1984:	pop    eax
  4c1985:	add    esp,0x38
  4c1988:	pop    ebp
  4c1989:	ret    
  4c198a:	add    BYTE PTR [eax],al
  4c198c:	mov    edi,edi
  4c198e:	push   ebp
  4c198f:	mov    ebp,esp
  4c1991:	sub    esp,0x40
  4c1994:	lea    ecx,ds:0x4c3138
  4c199a:	and    edx,DWORD PTR [ecx-0x60]
  4c199d:	push   ecx
  4c199e:	call   0x4c1da4
  4c19a3:	pop    ecx
  4c19a4:	push   ecx
  4c19a5:	push   edx
  4c19a6:	push   eax
  4c19a7:	call   0x4c1dd4
  4c19ac:	add    esp,0x8
  4c19af:	pop    ecx
  4c19b0:	push   ecx
  4c19b1:	call   0x4c1000
  4c19b6:	pop    ecx
  4c19b7:	add    esp,0x40
  4c19ba:	pop    ebp
  4c19bb:	ret    
  4c19bc:	mov    edi,edi
  4c19be:	push   ebp
  4c19bf:	mov    ebp,esp
  4c19c1:	sub    esp,0x2c
  4c19c4:	lea    edx,[edi+0x88]
  4c19ca:	and    edi,0x70
  4c19cd:	push   edx
  4c19ce:	push   edi
  4c19cf:	push   DWORD PTR [edx+0x13c]
  4c19d5:	push   DWORD PTR [edx+0xd8]
  4c19db:	call   0x4c1460
  4c19e0:	add    esp,0xc
  4c19e3:	pop    edx
  4c19e4:	push   edx
  4c19e5:	mov    ecx,0x0
  4c19ea:	push   ecx
  4c19eb:	call   0x4c1454
  4c19f0:	pop    edx
  4c19f1:	push   edx
  4c19f2:	call   0x4c1db0
  4c19f7:	pop    edx
  4c19f8:	add    esp,0x2c
  4c19fb:	pop    ebp
  4c19fc:	ret    
  4c19fd:	add    BYTE PTR [eax],al
  4c19ff:	add    BYTE PTR [ebx-0x1374aa01],cl
  4c1a05:	sub    esp,0x28
  4c1a08:	and    ecx,eax
  4c1a0a:	lea    edi,[ebx-0x140]
  4c1a10:	push   edi
  4c1a11:	push   0x6a8
  4c1a16:	mov    edx,0x6a8
  4c1a1b:	push   edx
  4c1a1c:	push   0x40001
  4c1a21:	mov    ecx,0x86288c92
  4c1a26:	push   DWORD PTR [ecx+0x7a239a86]
  4c1a2c:	sub    DWORD PTR [esp],0x2
  4c1a30:	mov    ecx,0x4c26e8
  4c1a35:	pop    DWORD PTR [ecx]
  4c1a37:	call   0x4c10f8
  4c1a3c:	xchg   DWORD PTR [esp],eax
  4c1a3f:	mov    edi,eax
  4c1a41:	pop    DWORD PTR [edi-0x10]
  4c1a44:	mov    esi,DWORD PTR [edi-0x10]
  4c1a47:	lea    ecx,[esi]
  4c1a49:	sub    ebx,ebx
  4c1a4b:	dec    ebx
  4c1a4c:	and    ebx,0x4c2038
  4c1a52:	mov    esi,0x45a8d3e7
  4c1a57:	push   0x6a8
  4c1a5c:	pop    eax
  4c1a5d:	cmp    eax,0x0
  4c1a60:	je     0x4c1a7e
  4c1a62:	add    eax,0xfffffffc
  4c1a65:	xor    edx,edx
  4c1a67:	push   DWORD PTR [ebx+edx*1]
  4c1a6a:	sub    DWORD PTR [esp],esi
  4c1a6d:	pop    DWORD PTR [ecx+edx*2]
  4c1a70:	dec    DWORD PTR [ecx]
  4c1a72:	xor    esi,esi
  4c1a74:	add    esi,DWORD PTR [ebx]
  4c1a76:	add    ebx,0x4
  4c1a79:	add    ecx,0x4
  4c1a7c:	jmp    0x4c1a5d
  4c1a7e:	push   edi
  4c1a7f:	call   0x4c1000
  4c1a84:	pop    edi
  4c1a85:	add    esp,0x28
  4c1a88:	pop    ebp
  4c1a89:	ret    
  4c1a8a:	add    BYTE PTR [eax],al
  4c1a8c:	pop    edi
  4c1a8d:	call   DWORD PTR ds:0x4c2740
  4c1a93:	push   edi
  4c1a94:	repz ret 0x0
  4c1a98:	pop    edi
  4c1a99:	call   DWORD PTR ds:0x4c2768
  4c1a9f:	push   edi
  4c1aa0:	repz ret 0x0
  4c1aa4:	mov    edi,edi
  4c1aa6:	push   ebp
  4c1aa7:	mov    ebp,esp
  4c1aa9:	sub    esp,0x58
  4c1aac:	lea    edi,ds:0x4c30cc
  4c1ab2:	sub    DWORD PTR [ebp-0x10],esi
  4c1ab5:	push   edi
  4c1ab6:	push   ecx
  4c1ab7:	push   DWORD PTR [edi+0x68]
  4c1aba:	push   DWORD PTR [edi+0x5c]
  4c1abd:	push   ecx
  4c1abe:	call   0x4c19bc
  4c1ac3:	add    esp,0x10
  4c1ac6:	pop    edi
  4c1ac7:	push   edi
  4c1ac8:	push   0x0
  4c1aca:	call   0x4c14a0
  4c1acf:	pop    edi
  4c1ad0:	push   edi
  4c1ad1:	push   0x0
  4c1ad3:	call   0x4c131c
  4c1ad8:	pop    edi
  4c1ad9:	add    esp,0x58
  4c1adc:	pop    ebp
  4c1add:	ret    
  4c1ade:	add    BYTE PTR [eax],al
  4c1ae0:	pop    edi
  4c1ae1:	call   DWORD PTR ds:0x4c2718
  4c1ae7:	push   edi
  4c1ae8:	repz ret 0x0
  4c1aec:	mov    edi,edi
  4c1aee:	push   ebp
  4c1aef:	mov    ebp,esp
  4c1af1:	sub    esp,0x34
  4c1af4:	lea    ebx,[esi+0x4c]
  4c1af7:	xor    DWORD PTR [ebp-0xc],esi
  4c1afa:	push   ebx
  4c1afb:	push   esi
  4c1afc:	push   DWORD PTR [ebx+0x48]
  4c1aff:	call   0x4c1c34
  4c1b04:	add    esp,0x8
  4c1b07:	pop    ebx
  4c1b08:	call   0x4c1da4
  4c1b0d:	call   0x4c1000
  4c1b12:	add    esp,0x34
  4c1b15:	pop    ebp
  4c1b16:	ret    
  4c1b17:	add    BYTE PTR [ebx-0x1374aa01],cl
  4c1b1d:	sub    esp,0x48
  4c1b20:	lea    ecx,ds:0x4c3078
  4c1b26:	mov    DWORD PTR [ebp-0x3c],eax
  4c1b29:	push   ecx
  4c1b2a:	mov    edi,0x0
  4c1b2f:	push   edi
  4c1b30:	call   0x4c18f4
  4c1b35:	pop    ecx
  4c1b36:	push   ecx
  4c1b37:	push   edx
  4c1b38:	push   DWORD PTR [ecx+0xc]
  4c1b3b:	push   edi
  4c1b3c:	call   0x4c109c
  4c1b41:	add    esp,0xc
  4c1b44:	pop    ecx
  4c1b45:	push   ecx
  4c1b46:	push   0x0
  4c1b48:	call   0x4c1d98
  4c1b4d:	pop    ecx
  4c1b4e:	add    esp,0x48
  4c1b51:	pop    ebp
  4c1b52:	ret    
  4c1b53:	add    BYTE PTR [ebx-0x1374aa01],cl
  4c1b59:	sub    esp,0x2c
  4c1b5c:	mov    ebx,0x4c31f8
  4c1b61:	or     eax,ecx
  4c1b63:	push   ebx
  4c1b64:	push   DWORD PTR [ebx+0x70]
  4c1b67:	push   esi
  4c1b68:	push   ecx
  4c1b69:	push   DWORD PTR [ebx+0x194]
  4c1b6f:	call   0x4c1aa4
  4c1b74:	add    esp,0x10
  4c1b77:	pop    ebx
  4c1b78:	push   0x0
  4c1b7a:	call   0x4c1a98
  4c1b7f:	push   0x0
  4c1b81:	call   0x4c16dc
  4c1b86:	add    esp,0x2c
  4c1b89:	pop    ebp
  4c1b8a:	ret    
  4c1b8b:	add    BYTE PTR [ebx-0x1374aa01],cl
  4c1b91:	sub    esp,0x30
  4c1b94:	mov    esi,0x4c31a8
  4c1b99:	sub    DWORD PTR [esi-0x134],0xffffed31
  4c1ba3:	lea    ecx,[esi-0x1a8]
  4c1ba9:	push   ecx
  4c1baa:	call   0x4c1cf0
  4c1baf:	test   eax,eax
  4c1bb1:	jne    0x4c1ba4
  4c1bb3:	push   esi
  4c1bb4:	push   DWORD PTR [esi+0x104]
  4c1bba:	push   eax
  4c1bbb:	push   DWORD PTR [esi+0xc4]
  4c1bc1:	call   0x4c18b8
  4c1bc6:	add    esp,0xc
  4c1bc9:	pop    esi
  4c1bca:	call   0x4c1da4
  4c1bcf:	add    esp,0x30
  4c1bd2:	pop    ebp
  4c1bd3:	ret    
  4c1bd4:	pop    edi
  4c1bd5:	call   DWORD PTR ds:0x4c275c
  4c1bdb:	push   edi
  4c1bdc:	repz ret 0x0
  4c1be0:	pop    edi
  4c1be1:	call   DWORD PTR ds:0x4c2770
  4c1be7:	push   edi
  4c1be8:	repz ret 0x0
  4c1bec:	mov    edi,edi
  4c1bee:	push   ebp
  4c1bef:	mov    ebp,esp
  4c1bf1:	sub    esp,0x54
  4c1bf4:	lea    esi,ds:0x4c3024
  4c1bfa:	or     DWORD PTR [esi+0xa0],0x2a
  4c1c01:	lea    eax,[esi-0x24]
  4c1c04:	push   eax
  4c1c05:	call   0x4c1cf0
  4c1c0a:	test   eax,eax
  4c1c0c:	jne    0x4c1c02
  4c1c0e:	push   esi
  4c1c0f:	push   DWORD PTR [esi+0x38]
  4c1c12:	push   DWORD PTR [esi+0x174]
  4c1c18:	push   DWORD PTR [esi+0x1d0]
  4c1c1e:	call   0x4c1aec
  4c1c23:	add    esp,0xc
  4c1c26:	pop    esi
  4c1c27:	push   0x0
  4c1c29:	call   0x4c10e0
  4c1c2e:	add    esp,0x54
  4c1c31:	pop    ebp
  4c1c32:	ret    
  4c1c33:	add    BYTE PTR [ebx-0x1374aa01],cl
  4c1c39:	sub    esp,0x34
  4c1c3c:	lea    ecx,ds:0x4c3100
  4c1c42:	add    DWORD PTR [ebp-0x18],eax
  4c1c45:	push   ecx
  4c1c46:	push   edx
  4c1c47:	push   DWORD PTR [ecx+0x198]
  4c1c4d:	push   DWORD PTR [ecx+0xe8]
  4c1c53:	call   0x4c1b8c
  4c1c58:	add    esp,0xc
  4c1c5b:	pop    ecx
  4c1c5c:	push   ecx
  4c1c5d:	push   0x0
  4c1c5f:	call   0x4c1454
  4c1c64:	pop    ecx
  4c1c65:	push   ecx
  4c1c66:	push   0x0
  4c1c68:	call   0x4c18f4
  4c1c6d:	pop    ecx
  4c1c6e:	add    esp,0x34
  4c1c71:	pop    ebp
  4c1c72:	ret    
  4c1c73:	add    BYTE PTR [ebx-0x1374aa01],cl
  4c1c79:	sub    esp,0x60
  4c1c7c:	mov    esi,0x4c30a8
  4c1c81:	adc    DWORD PTR [esi+0x18],eax
  4c1c84:	push   0x0
  4c1c86:	call   0x4c10e0
  4c1c8b:	push   esi
  4c1c8c:	push   edx
  4c1c8d:	push   DWORD PTR [esi+0x14c]
  4c1c93:	push   DWORD PTR [esi+0xac]
  4c1c99:	call   0x4c176c
  4c1c9e:	add    esp,0xc
  4c1ca1:	pop    esi
  4c1ca2:	call   0x4c1db0
  4c1ca7:	add    esp,0x60
  4c1caa:	pop    ebp
  4c1cab:	ret    
  4c1cac:	pop    edi
  4c1cad:	call   DWORD PTR ds:0x4c26f0
  4c1cb3:	push   edi
  4c1cb4:	repz ret 0x0
  4c1cb8:	mov    edi,edi
  4c1cba:	push   ebp
  4c1cbb:	mov    ebp,esp
  4c1cbd:	sub    esp,0x54
  4c1cc0:	lea    ebx,ds:0x4c3168
  4c1cc6:	cmp    ebx,0x25f
  4c1ccc:	je     0x4c1cbb
  4c1cce:	push   ebx
  4c1ccf:	push   DWORD PTR [ebx+0x24]
  4c1cd2:	push   edx
  4c1cd3:	push   esi
  4c1cd4:	call   0x4c1e7c
  4c1cd9:	add    esp,0xc
  4c1cdc:	pop    ebx
  4c1cdd:	push   0x0
  4c1cdf:	call   0x4c1454
  4c1ce4:	call   0x4c1db0
  4c1ce9:	add    esp,0x54
  4c1cec:	pop    ebp
  4c1ced:	ret    
  4c1cee:	add    BYTE PTR [eax],al
  4c1cf0:	pop    edi
  4c1cf1:	call   DWORD PTR ds:0x4c270c
  4c1cf7:	push   edi
  4c1cf8:	repz ret 0x0
  4c1cfc:	mov    edi,edi
  4c1cfe:	push   ebp
  4c1cff:	mov    ebp,esp
  4c1d01:	sub    esp,0x38
  4c1d04:	mov    edx,0x4c3120
  4c1d09:	and    DWORD PTR [ebp-0x18],eax
  4c1d0c:	push   edx
  4c1d0d:	push   ebx
  4c1d0e:	push   DWORD PTR [edx+0x174]
  4c1d14:	push   DWORD PTR [edx+0xd0]
  4c1d1a:	push   DWORD PTR [edx+0xf4]
  4c1d20:	call   0x4c13b4
  4c1d25:	add    esp,0x10
  4c1d28:	pop    edx
  4c1d29:	push   edx
  4c1d2a:	push   0x0
  4c1d2c:	call   0x4c1d80
  4c1d31:	pop    edx
  4c1d32:	push   edx
  4c1d33:	call   0x4c1db0
  4c1d38:	pop    edx
  4c1d39:	add    esp,0x38
  4c1d3c:	pop    ebp
  4c1d3d:	ret    
  4c1d3e:	add    BYTE PTR [eax],al
  4c1d40:	mov    edi,edi
  4c1d42:	push   ebp
  4c1d43:	mov    ebp,esp
  4c1d45:	sub    esp,0x28
  4c1d48:	lea    edx,[ecx-0x38]
  4c1d4b:	cmp    edx,0x7974
  4c1d51:	jb     0x4c1d43
  4c1d53:	push   edx
  4c1d54:	push   0x0
  4c1d56:	call   0x4c14a0
  4c1d5b:	pop    edx
  4c1d5c:	push   edx
  4c1d5d:	push   DWORD PTR [edx+0x5c]
  4c1d60:	push   edi
  4c1d61:	push   DWORD PTR [edx+0xf8]
  4c1d67:	push   esi
  4c1d68:	call   0x4c1b18
  4c1d6d:	add    esp,0x10
  4c1d70:	pop    edx
  4c1d71:	push   edx
  4c1d72:	call   0x4c1db0
  4c1d77:	pop    edx
  4c1d78:	add    esp,0x28
  4c1d7b:	pop    ebp
  4c1d7c:	ret    
  4c1d7d:	add    BYTE PTR [eax],al
  4c1d7f:	add    BYTE PTR [edi-0x1],bl
  4c1d82:	adc    eax,0x4c2728
  4c1d87:	push   edi
  4c1d88:	repz ret 0x0
  4c1d8c:	pop    edi
  4c1d8d:	call   DWORD PTR ds:0x4c2748
  4c1d93:	push   edi
  4c1d94:	repz ret 0x0
  4c1d98:	pop    edi
  4c1d99:	call   DWORD PTR ds:0x4c273c
  4c1d9f:	push   edi
  4c1da0:	repz ret 0x0
  4c1da4:	pop    edi
  4c1da5:	call   DWORD PTR ds:0x4c2704
  4c1dab:	push   edi
  4c1dac:	repz ret 0x0
  4c1db0:	pop    edi
  4c1db1:	call   DWORD PTR ds:0x4c2708
  4c1db7:	push   edi
  4c1db8:	repz ret 0x0
  4c1dbc:	pop    edi
  4c1dbd:	call   DWORD PTR ds:0x4c2788
  4c1dc3:	push   edi
  4c1dc4:	repz ret 0x0
  4c1dc8:	pop    edi
  4c1dc9:	call   DWORD PTR ds:0x4c271c
  4c1dcf:	push   edi
  4c1dd0:	repz ret 0x0
  4c1dd4:	mov    edi,edi
  4c1dd6:	push   ebp
  4c1dd7:	mov    ebp,esp
  4c1dd9:	sub    esp,0x24
  4c1ddc:	lea    ebx,ds:0x4c3070
  4c1de2:	adc    ecx,0x76
  4c1de5:	push   0x0
  4c1de7:	call   0x4c131c
  4c1dec:	push   ebx
  4c1ded:	push   edi
  4c1dee:	push   DWORD PTR [ebx+0xd4]
  4c1df4:	push   DWORD PTR [ebx+0x48]
  4c1df7:	push   DWORD PTR [ebx+0x194]
  4c1dfd:	call   0x4c1284
  4c1e02:	add    esp,0x10
  4c1e05:	pop    ebx
  4c1e06:	push   0x0
  4c1e08:	call   0x4c1d98
  4c1e0d:	add    esp,0x24
  4c1e10:	pop    ebp
  4c1e11:	ret    
  4c1e12:	add    BYTE PTR [eax],al
  4c1e14:	pop    edi
  4c1e15:	call   DWORD PTR ds:0x4c274c
  4c1e1b:	push   edi
  4c1e1c:	repz ret 0x0
  4c1e20:	mov    edi,edi
  4c1e22:	push   ebp
  4c1e23:	mov    ebp,esp
  4c1e25:	sub    esp,0x48
  4c1e28:	mov    edi,0x4c3054
  4c1e2d:	cmp    edi,0x10ff
  4c1e33:	je     0x4c1e23
  4c1e35:	push   edi
  4c1e36:	push   DWORD PTR [edi+0x174]
  4c1e3c:	push   DWORD PTR [edi+0x1d8]
  4c1e42:	push   DWORD PTR [edi+0x1ac]
  4c1e48:	call   0x4c1728
  4c1e4d:	add    esp,0xc
  4c1e50:	pop    edi
  4c1e51:	push   edi
  4c1e52:	mov    ecx,0x0
  4c1e57:	push   ecx
  4c1e58:	call   0x4c10e0
  4c1e5d:	pop    edi
  4c1e5e:	push   edi
  4c1e5f:	mov    edx,0x0
  4c1e64:	push   edx
  4c1e65:	call   0x4c18f4
  4c1e6a:	pop    edi
  4c1e6b:	add    esp,0x48
  4c1e6e:	pop    ebp
  4c1e6f:	ret    
  4c1e70:	pop    edi
  4c1e71:	call   DWORD PTR ds:0x4c2730
  4c1e77:	push   edi
  4c1e78:	repz ret 0x0
  4c1e7c:	mov    edi,edi
  4c1e7e:	push   ebp
  4c1e7f:	mov    ebp,esp
  4c1e81:	sub    esp,0x54
  4c1e84:	lea    edi,ds:0x4c3078
  4c1e8a:	sub    ecx,0x1da1
  4c1e90:	push   edi
  4c1e91:	push   ecx
  4c1e92:	push   ecx
  4c1e93:	push   edx
  4c1e94:	call   0x4c187c
  4c1e99:	add    esp,0xc
  4c1e9c:	pop    edi
  4c1e9d:	push   edi
  4c1e9e:	push   0x0
  4c1ea0:	call   0x4c18f4
  4c1ea5:	pop    edi
  4c1ea6:	push   edi
  4c1ea7:	call   0x4c1db0
  4c1eac:	pop    edi
  4c1ead:	add    esp,0x54
  4c1eb0:	pop    ebp
  4c1eb1:	ret    
  4c1eb2:	add    BYTE PTR [eax],al
  4c1eb4:	mov    edi,edi
  4c1eb6:	push   ebp
  4c1eb7:	mov    ebp,esp
  4c1eb9:	sub    esp,0x54
  4c1ebc:	lea    ecx,ds:0x4c30dc
  4c1ec2:	and    DWORD PTR [ecx+0xf4],0x48
  4c1ec9:	push   ecx
  4c1eca:	push   esi
  4c1ecb:	push   DWORD PTR [ecx+0x58]
  4c1ece:	call   0x4c14f4
  4c1ed3:	add    esp,0x8
  4c1ed6:	pop    ecx
  4c1ed7:	push   ecx
  4c1ed8:	call   0x4c1db0
  4c1edd:	pop    ecx
  4c1ede:	push   ecx
  4c1edf:	mov    esi,0x0
  4c1ee4:	push   esi
  4c1ee5:	call   0x4c14a0
  4c1eea:	pop    ecx
  4c1eeb:	add    esp,0x54
  4c1eee:	pop    ebp
  4c1eef:	ret    
  4c1ef0:	pop    edi
  4c1ef1:	call   DWORD PTR ds:0x4c2750
  4c1ef7:	push   edi
  4c1ef8:	repz ret 0x0
