
4c180a8cb144a67c2314e0f3134c3962bfb0d343787c3da24fc30f1d58b43f29.exe:     file format pei-i386


Disassembly of section .text:

00401000 <.text>:
  401000:	mov    edi,edi
  401002:	push   ebp
  401003:	mov    ebp,esp
  401005:	sub    esp,0x58
  401008:	push   ecx
  401009:	push   0x0
  40100b:	push   0x403040
  401010:	pop    eax
  401011:	notrack call DWORD PTR [eax]
  401014:	pop    ecx
  401015:	push   ecx
  401016:	push   edx
  401017:	push   edi
  401018:	push   DWORD PTR [ecx+0x218]
  40101e:	call   0x401298
  401023:	add    esp,0xc
  401026:	pop    ecx
  401027:	push   ecx
  401028:	mov    edx,0x0
  40102d:	push   edx
  40102e:	push   0x40302c
  401033:	pop    eax
  401034:	notrack call DWORD PTR [eax]
  401037:	pop    ecx
  401038:	sub    esp,0xffffffa8
  40103b:	mov    ebp,DWORD PTR [esp]
  40103e:	add    esp,0x4
  401041:	ret    
  401042:	add    BYTE PTR [eax],al
  401044:	mov    edi,edi
  401046:	push   ebp
  401047:	mov    ebp,esp
  401049:	sub    esp,0x5c
  40104c:	push   ecx
  40104d:	push   DWORD PTR [ecx+0x39c]
  401053:	push   eax
  401054:	push   DWORD PTR [ecx+0x258]
  40105a:	push   DWORD PTR [ecx+0x3b4]
  401060:	call   0x401e3c
  401065:	add    esp,0x10
  401068:	pop    ecx
  401069:	push   ecx
  40106a:	mov    ecx,0x0
  40106f:	push   ecx
  401070:	push   0x403044
  401075:	pop    eax
  401076:	notrack call DWORD PTR [eax]
  401079:	pop    ecx
  40107a:	push   ecx
  40107b:	push   0x0
  40107d:	push   0x403058
  401082:	pop    eax
  401083:	notrack call DWORD PTR [eax]
  401086:	pop    ecx
  401087:	sub    esp,0xffffffa4
  40108a:	mov    ebp,DWORD PTR [esp]
  40108d:	add    esp,0x4
  401090:	ret    
  401091:	add    BYTE PTR [eax],al
  401093:	add    BYTE PTR [ebx-0x1374aa01],cl
  401099:	sub    esp,0x40
  40109c:	push   ecx
  40109d:	lea    esi,[ecx]
  40109f:	push   esi
  4010a0:	push   0x403028
  4010a5:	pop    eax
  4010a6:	notrack call DWORD PTR [eax]
  4010a9:	test   eax,eax
  4010ab:	jne    0x40109d
  4010ad:	pop    ecx
  4010ae:	push   ecx
  4010af:	push   DWORD PTR [ecx+0x108]
  4010b5:	push   DWORD PTR [ecx+0x3a8]
  4010bb:	call   0x401784
  4010c0:	add    esp,0x8
  4010c3:	pop    ecx
  4010c4:	push   ecx
  4010c5:	push   0x0
  4010c7:	push   0x40302c
  4010cc:	pop    eax
  4010cd:	notrack call DWORD PTR [eax]
  4010d0:	pop    ecx
  4010d1:	sub    esp,0xffffffc0
  4010d4:	mov    ebp,DWORD PTR [esp]
  4010d7:	add    esp,0x4
  4010da:	ret    
  4010db:	add    BYTE PTR [ebx-0x74aa9f01],cl
  4010e1:	in     al,dx
  4010e2:	sub    esp,0x3c
  4010e5:	push   ecx
  4010e6:	mov    edx,0x0
  4010eb:	push   edx
  4010ec:	push   0x403024
  4010f1:	pop    eax
  4010f2:	notrack call DWORD PTR [eax]
  4010f5:	pop    ecx
  4010f6:	test   eax,eax
  4010f8:	je     0x4010fb
  4010fa:	ret    
  4010fb:	push   ecx
  4010fc:	push   0x403014
  401101:	pop    eax
  401102:	notrack call DWORD PTR [eax]
  401105:	pop    ecx
  401106:	push   ecx
  401107:	push   edx
  401108:	push   eax
  401109:	call   0x401590
  40110e:	add    esp,0x8
  401111:	pop    ecx
  401112:	mov    edx,0x403028
  401117:	mov    edx,DWORD PTR [edx]
  401119:	push   edx
  40111a:	push   DWORD PTR [ecx+0x1e8]
  401120:	pop    esi
  401121:	call   esi
  401123:	sub    esp,0xffffffc4
  401126:	mov    ebp,DWORD PTR [esp]
  401129:	add    esp,0x4
  40112c:	ret    
  40112d:	add    BYTE PTR [eax],al
  40112f:	add    BYTE PTR [ebx-0x1374aa01],cl
  401135:	sub    esp,0x24
  401138:	push   ecx
  401139:	mov    ecx,0x0
  40113e:	push   ecx
  40113f:	push   0x403040
  401144:	pop    eax
  401145:	notrack call DWORD PTR [eax]
  401148:	pop    ecx
  401149:	push   ecx
  40114a:	push   DWORD PTR [ecx+0x10c]
  401150:	push   DWORD PTR [ecx+0x20]
  401153:	call   0x401370
  401158:	add    esp,0x8
  40115b:	pop    ecx
  40115c:	push   ecx
  40115d:	mov    esi,0x0
  401162:	push   esi
  401163:	push   0x403000
  401168:	pop    eax
  401169:	notrack call DWORD PTR [eax]
  40116c:	pop    ecx
  40116d:	sub    esp,0xffffffdc
  401170:	mov    ebp,DWORD PTR [esp]
  401173:	add    esp,0x4
  401176:	ret    
  401177:	add    BYTE PTR [edi],cl
  401179:	xchg   DWORD PTR [esi-0x1],ebx
  40117c:	(bad)  
  40117d:	inc    DWORD PTR [eax]
  40117f:	add    BYTE PTR [ebx-0x1374aa01],cl
  401185:	sub    esp,0x50
  401188:	push   ecx
  401189:	push   DWORD PTR [ecx+0x388]
  40118f:	push   ebx
  401190:	push   esi
  401191:	call   0x401044
  401196:	add    esp,0xc
  401199:	pop    ecx
  40119a:	push   ecx
  40119b:	push   0x0
  40119d:	push   0x403040
  4011a2:	pop    eax
  4011a3:	notrack call DWORD PTR [eax]
  4011a6:	pop    ecx
  4011a7:	push   ecx
  4011a8:	mov    ecx,0x0
  4011ad:	push   ecx
  4011ae:	push   0x403044
  4011b3:	pop    eax
  4011b4:	notrack call DWORD PTR [eax]
  4011b7:	pop    ecx
  4011b8:	sub    esp,0xffffffb0
  4011bb:	mov    ebp,DWORD PTR [esp]
  4011be:	add    esp,0x4
  4011c1:	ret    
  4011c2:	add    BYTE PTR [eax],al
  4011c4:	add    BYTE PTR [eax],al
  4011c6:	add    BYTE PTR [eax],al
  4011c8:	mov    edi,edi
  4011ca:	push   ebp
  4011cb:	mov    ebp,esp
  4011cd:	sub    esp,0x48
  4011d0:	push   ecx
  4011d1:	push   0x0
  4011d3:	push   0x403058
  4011d8:	pop    eax
  4011d9:	notrack call DWORD PTR [eax]
  4011dc:	pop    ecx
  4011dd:	push   ecx
  4011de:	push   edx
  4011df:	push   DWORD PTR [ecx+0x3e4]
  4011e5:	call   0x401a08
  4011ea:	add    esp,0x8
  4011ed:	pop    ecx
  4011ee:	push   ecx
  4011ef:	mov    ebx,0x0
  4011f4:	push   ebx
  4011f5:	push   0x403044
  4011fa:	pop    eax
  4011fb:	notrack call DWORD PTR [eax]
  4011fe:	pop    ecx
  4011ff:	sub    esp,0xffffffb8
  401202:	mov    ebp,DWORD PTR [esp]
  401205:	add    esp,0x4
  401208:	ret    
  401209:	add    BYTE PTR [eax],al
  40120b:	add    BYTE PTR [ebx-0x1374aa01],cl
  401211:	sub    esp,0x28
  401214:	push   ecx
  401215:	push   edi
  401216:	push   edx
  401217:	call   0x401254
  40121c:	add    esp,0x8
  40121f:	pop    ecx
  401220:	push   ecx
  401221:	push   0x403014
  401226:	pop    eax
  401227:	notrack call DWORD PTR [eax]
  40122a:	pop    ecx
  40122b:	push   ecx
  40122c:	mov    eax,0x0
  401231:	push   eax
  401232:	push   0x403030
  401237:	pop    eax
  401238:	notrack call DWORD PTR [eax]
  40123b:	pop    ecx
  40123c:	sub    esp,0xffffffd8
  40123f:	mov    ebp,DWORD PTR [esp]
  401242:	add    esp,0x4
  401245:	ret    
	...
  401252:	add    BYTE PTR [eax],al
  401254:	mov    edi,edi
  401256:	push   ebp
  401257:	mov    ebp,esp
  401259:	sub    esp,0x38
  40125c:	push   ecx
  40125d:	push   0x0
  40125f:	push   0x403074
  401264:	pop    eax
  401265:	notrack call DWORD PTR [eax]
  401268:	pop    ecx
  401269:	push   ecx
  40126a:	push   DWORD PTR [ecx+0x344]
  401270:	push   DWORD PTR [ecx+0x90]
  401276:	push   esi
  401277:	push   edx
  401278:	call   0x40169c
  40127d:	add    esp,0x10
  401280:	pop    ecx
  401281:	push   ecx
  401282:	push   0x0
  401284:	push   0x403000
  401289:	pop    eax
  40128a:	notrack call DWORD PTR [eax]
  40128d:	pop    ecx
  40128e:	sub    esp,0xffffffc8
  401291:	mov    ebp,DWORD PTR [esp]
  401294:	add    esp,0x4
  401297:	ret    
  401298:	mov    edi,edi
  40129a:	push   ebp
  40129b:	mov    ebp,esp
  40129d:	sub    esp,0x48
  4012a0:	push   ecx
  4012a1:	push   DWORD PTR [ecx+0x1e8]
  4012a7:	push   eax
  4012a8:	call   0x401b90
  4012ad:	add    esp,0x8
  4012b0:	pop    ecx
  4012b1:	push   ecx
  4012b2:	mov    ebx,0x0
  4012b7:	push   ebx
  4012b8:	push   0x403040
  4012bd:	pop    eax
  4012be:	notrack call DWORD PTR [eax]
  4012c1:	pop    ecx
  4012c2:	push   ecx
  4012c3:	lea    ecx,[ecx]
  4012c5:	push   ecx
  4012c6:	push   0x403028
  4012cb:	pop    eax
  4012cc:	notrack call DWORD PTR [eax]
  4012cf:	test   eax,eax
  4012d1:	jne    0x4012c3
  4012d3:	pop    ecx
  4012d4:	sub    esp,0xffffffb8
  4012d7:	mov    ebp,DWORD PTR [esp]
  4012da:	add    esp,0x4
  4012dd:	ret    
  4012de:	add    BYTE PTR [eax],al
  4012e0:	mov    edi,edi
  4012e2:	push   ebp
  4012e3:	mov    ebp,esp
  4012e5:	sub    esp,0x48
  4012e8:	push   ecx
  4012e9:	push   ebx
  4012ea:	push   DWORD PTR [ecx+0x278]
  4012f0:	push   edx
  4012f1:	call   0x4013f4
  4012f6:	add    esp,0xc
  4012f9:	pop    ecx
  4012fa:	push   ecx
  4012fb:	mov    edx,0x0
  401300:	push   edx
  401301:	push   0x403030
  401306:	pop    eax
  401307:	notrack call DWORD PTR [eax]
  40130a:	pop    ecx
  40130b:	push   ecx
  40130c:	push   0x0
  40130e:	push   0x40301c
  401313:	pop    eax
  401314:	notrack call DWORD PTR [eax]
  401317:	pop    ecx
  401318:	sub    esp,0xffffffb8
  40131b:	mov    ebp,DWORD PTR [esp]
  40131e:	add    esp,0x4
  401321:	ret    
  401322:	add    BYTE PTR [eax],al
  401324:	mov    edi,edi
  401326:	push   ebp
  401327:	mov    ebp,esp
  401329:	sub    esp,0x20
  40132c:	push   ecx
  40132d:	push   DWORD PTR [ecx+0x11c]
  401333:	push   esi
  401334:	push   DWORD PTR [ecx+0x2ec]
  40133a:	push   eax
  40133b:	call   0x401a94
  401340:	add    esp,0x10
  401343:	pop    ecx
  401344:	push   ecx
  401345:	push   0x0
  401347:	push   0x403030
  40134c:	pop    eax
  40134d:	notrack call DWORD PTR [eax]
  401350:	pop    ecx
  401351:	push   ecx
  401352:	mov    esi,0x0
  401357:	push   esi
  401358:	push   0x403000
  40135d:	pop    eax
  40135e:	notrack call DWORD PTR [eax]
  401361:	pop    ecx
  401362:	sub    esp,0xffffffe0
  401365:	mov    ebp,DWORD PTR [esp]
  401368:	add    esp,0x4
  40136b:	ret    
  40136c:	add    BYTE PTR [eax],al
  40136e:	add    BYTE PTR [eax],al
  401370:	mov    edi,edi
  401372:	push   ebp
  401373:	mov    ebp,esp
  401375:	sub    esp,0x28
  401378:	push   ecx
  401379:	push   ebx
  40137a:	push   edi
  40137b:	call   0x4014d4
  401380:	add    esp,0x8
  401383:	pop    ecx
  401384:	push   ecx
  401385:	lea    esi,[ecx]
  401387:	push   esi
  401388:	push   0x403028
  40138d:	pop    eax
  40138e:	notrack call DWORD PTR [eax]
  401391:	test   eax,eax
  401393:	jne    0x401385
  401395:	pop    ecx
  401396:	push   ecx
  401397:	lea    edx,[ecx]
  401399:	push   edx
  40139a:	push   0x403028
  40139f:	pop    eax
  4013a0:	notrack call DWORD PTR [eax]
  4013a3:	test   eax,eax
  4013a5:	jne    0x401397
  4013a7:	pop    ecx
  4013a8:	sub    esp,0xffffffd8
  4013ab:	mov    ebp,DWORD PTR [esp]
  4013ae:	add    esp,0x4
  4013b1:	ret    
  4013b2:	add    BYTE PTR [eax],al
  4013b4:	mov    edi,edi
  4013b6:	push   ebp
  4013b7:	mov    ebp,esp
  4013b9:	sub    esp,0x58
  4013bc:	push   ecx
  4013bd:	push   esi
  4013be:	push   esi
  4013bf:	push   DWORD PTR [ecx+0x22c]
  4013c5:	push   DWORD PTR [ecx+0x2c]
  4013c8:	call   0x4018b8
  4013cd:	add    esp,0x10
  4013d0:	pop    ecx
  4013d1:	push   ecx
  4013d2:	push   0x403018
  4013d7:	pop    eax
  4013d8:	notrack call DWORD PTR [eax]
  4013db:	pop    ecx
  4013dc:	push   ecx
  4013dd:	push   0x0
  4013df:	push   0x403058
  4013e4:	pop    eax
  4013e5:	notrack call DWORD PTR [eax]
  4013e8:	pop    ecx
  4013e9:	sub    esp,0xffffffa8
  4013ec:	mov    ebp,DWORD PTR [esp]
  4013ef:	add    esp,0x4
  4013f2:	ret    
  4013f3:	add    BYTE PTR [ebx-0x1374aa01],cl
  4013f9:	sub    esp,0x20
  4013fc:	push   ecx
  4013fd:	push   0x0
  4013ff:	push   0x403030
  401404:	pop    eax
  401405:	notrack call DWORD PTR [eax]
  401408:	pop    ecx
  401409:	push   ecx
  40140a:	push   edx
  40140b:	push   DWORD PTR [ecx+0x12c]
  401411:	push   DWORD PTR [ecx+0x80]
  401417:	call   0x401c1c
  40141c:	add    esp,0xc
  40141f:	pop    ecx
  401420:	push   ecx
  401421:	mov    esi,0x0
  401426:	push   esi
  401427:	push   0x403040
  40142c:	pop    eax
  40142d:	notrack call DWORD PTR [eax]
  401430:	pop    ecx
  401431:	sub    esp,0xffffffe0
  401434:	mov    ebp,DWORD PTR [esp]
  401437:	add    esp,0x4
  40143a:	ret    
  40143b:	add    BYTE PTR [eax],al
  40143d:	add    BYTE PTR [eax],al
  40143f:	add    BYTE PTR [ebx-0x1374aa01],cl
  401445:	sub    esp,0x48
  401448:	push   ecx
  401449:	lea    ecx,[ecx]
  40144b:	push   ecx
  40144c:	push   0x403028
  401451:	pop    eax
  401452:	notrack call DWORD PTR [eax]
  401455:	test   eax,eax
  401457:	jne    0x401449
  401459:	pop    ecx
  40145a:	push   ecx
  40145b:	push   edx
  40145c:	push   DWORD PTR [ecx+0x3c4]
  401462:	push   DWORD PTR [ecx+0x3c4]
  401468:	call   0x401000
  40146d:	add    esp,0xc
  401470:	pop    ecx
  401471:	push   ecx
  401472:	push   0x403014
  401477:	pop    eax
  401478:	notrack call DWORD PTR [eax]
  40147b:	pop    ecx
  40147c:	sub    esp,0xffffffb8
  40147f:	mov    ebp,DWORD PTR [esp]
  401482:	add    esp,0x4
  401485:	ret    
  401486:	add    BYTE PTR [eax],al
  401488:	mov    edi,edi
  40148a:	push   ebp
  40148b:	mov    ebp,esp
  40148d:	sub    esp,0x4c
  401490:	push   ecx
  401491:	push   0x0
  401493:	push   0x40301c
  401498:	pop    eax
  401499:	notrack call DWORD PTR [eax]
  40149c:	pop    ecx
  40149d:	push   ecx
  40149e:	push   DWORD PTR [ecx+0x48]
  4014a1:	push   DWORD PTR [ecx+0x2d4]
  4014a7:	push   DWORD PTR [ecx+0x264]
  4014ad:	call   0x401be0
  4014b2:	add    esp,0xc
  4014b5:	pop    ecx
  4014b6:	push   ecx
  4014b7:	push   0x0
  4014b9:	push   0x403044
  4014be:	pop    eax
  4014bf:	notrack call DWORD PTR [eax]
  4014c2:	pop    ecx
  4014c3:	sub    esp,0xffffffb4
  4014c6:	mov    ebp,DWORD PTR [esp]
  4014c9:	add    esp,0x4
  4014cc:	ret    
  4014cd:	add    BYTE PTR [eax],al
  4014cf:	add    BYTE PTR [eax],al
  4014d1:	add    BYTE PTR [eax],al
  4014d3:	add    BYTE PTR [ebx-0x1374aa01],cl
  4014d9:	sub    esp,0x50
  4014dc:	push   ecx
  4014dd:	push   0x0
  4014df:	push   0x403010
  4014e4:	pop    eax
  4014e5:	notrack call DWORD PTR [eax]
  4014e8:	pop    ecx
  4014e9:	push   ecx
  4014ea:	push   edx
  4014eb:	push   esi
  4014ec:	call   0x401ae8
  4014f1:	add    esp,0x8
  4014f4:	pop    ecx
  4014f5:	push   ecx
  4014f6:	push   0x0
  4014f8:	push   0x40302c
  4014fd:	pop    eax
  4014fe:	notrack call DWORD PTR [eax]
  401501:	pop    ecx
  401502:	sub    esp,0xffffffb0
  401505:	mov    ebp,DWORD PTR [esp]
  401508:	add    esp,0x4
  40150b:	ret    
  40150c:	add    BYTE PTR [eax],al
  40150e:	add    BYTE PTR [eax],al
  401510:	mov    edi,edi
  401512:	push   ebp
  401513:	mov    ebp,esp
  401515:	sub    esp,0x28
  401518:	push   ecx
  401519:	push   edx
  40151a:	push   DWORD PTR [ecx+0x78]
  40151d:	call   0x401610
  401522:	add    esp,0x8
  401525:	pop    ecx
  401526:	push   ecx
  401527:	push   0x0
  401529:	push   0x403030
  40152e:	pop    eax
  40152f:	notrack call DWORD PTR [eax]
  401532:	pop    ecx
  401533:	push   ecx
  401534:	push   0x0
  401536:	push   0x403074
  40153b:	pop    eax
  40153c:	notrack call DWORD PTR [eax]
  40153f:	pop    ecx
  401540:	sub    esp,0xffffffd8
  401543:	mov    ebp,DWORD PTR [esp]
  401546:	add    esp,0x4
  401549:	ret    
  40154a:	add    BYTE PTR [eax],al
  40154c:	mov    edi,edi
  40154e:	push   ebp
  40154f:	mov    ebp,esp
  401551:	sub    esp,0x4c
  401554:	push   ecx
  401555:	mov    esi,0x0
  40155a:	push   esi
  40155b:	push   0x403010
  401560:	pop    eax
  401561:	notrack call DWORD PTR [eax]
  401564:	pop    ecx
  401565:	push   ecx
  401566:	push   DWORD PTR [ecx+0x28]
  401569:	push   eax
  40156a:	push   edi
  40156b:	call   0x401510
  401570:	add    esp,0xc
  401573:	pop    ecx
  401574:	push   ecx
  401575:	mov    eax,0x0
  40157a:	push   eax
  40157b:	push   0x403030
  401580:	pop    eax
  401581:	notrack call DWORD PTR [eax]
  401584:	pop    ecx
  401585:	sub    esp,0xffffffb4
  401588:	mov    ebp,DWORD PTR [esp]
  40158b:	add    esp,0x4
  40158e:	ret    
  40158f:	add    BYTE PTR [ebx-0x1374aa01],cl
  401595:	sub    esp,0x50
  401598:	push   ecx
  401599:	push   DWORD PTR [ecx+0x28]
  40159c:	push   edi
  40159d:	push   eax
  40159e:	push   DWORD PTR [ecx+0xe4]
  4015a4:	call   0x401d08
  4015a9:	add    esp,0x10
  4015ac:	pop    ecx
  4015ad:	push   ecx
  4015ae:	lea    esi,[ecx]
  4015b0:	push   esi
  4015b1:	push   0x403028
  4015b6:	pop    eax
  4015b7:	notrack call DWORD PTR [eax]
  4015ba:	test   eax,eax
  4015bc:	jne    0x4015ae
  4015be:	pop    ecx
  4015bf:	push   ecx
  4015c0:	mov    edx,0x0
  4015c5:	push   edx
  4015c6:	push   0x40302c
  4015cb:	pop    eax
  4015cc:	notrack call DWORD PTR [eax]
  4015cf:	pop    ecx
  4015d0:	sub    esp,0xffffffb0
  4015d3:	mov    ebp,DWORD PTR [esp]
  4015d6:	add    esp,0x4
  4015d9:	ret    
  4015da:	add    BYTE PTR [eax],al
  4015dc:	push   0x46d000
  4015e1:	mov    eax,0x40309c
  4015e6:	and    WORD PTR [eax],0x0
  4015ea:	push   DWORD PTR [eax]
  4015ec:	pop    eax
  4015ed:	mov    ecx,eax
  4015ef:	stc    
  4015f0:	adc    al,0x3b
  4015f2:	add    ecx,DWORD PTR [eax]
  4015f4:	mov    eax,DWORD PTR [ecx+0x1c]
  4015f7:	ror    eax,0xc
  4015fa:	sub    al,0x0
  4015fc:	sub    al,0x50
  4015fe:	pop    ecx
  4015ff:	jb     0x40160a
  401601:	nop
  401602:	nop
  401603:	nop
  401604:	nop
  401605:	jmp    0x401178
  40160a:	int    0x3
  40160c:	add    BYTE PTR [eax],al
  40160e:	sub    DWORD PTR [ebx-0x75],esp
  401611:	call   DWORD PTR [ebp-0x75]
  401614:	in     al,dx
  401615:	sub    esp,0x28
  401618:	push   ecx
  401619:	push   0x0
  40161b:	push   0x403058
  401620:	pop    eax
  401621:	notrack call DWORD PTR [eax]
  401624:	pop    ecx
  401625:	push   ecx
  401626:	push   esi
  401627:	push   DWORD PTR [ecx+0x2f0]
  40162d:	push   DWORD PTR [ecx+0xec]
  401633:	call   0x401818
  401638:	add    esp,0xc
  40163b:	pop    ecx
  40163c:	push   ecx
  40163d:	push   0x403018
  401642:	pop    eax
  401643:	notrack call DWORD PTR [eax]
  401646:	pop    ecx
  401647:	sub    esp,0xffffffd8
  40164a:	mov    ebp,DWORD PTR [esp]
  40164d:	add    esp,0x4
  401650:	ret    
	...
  401659:	add    BYTE PTR [eax],al
  40165b:	add    BYTE PTR [ebx-0x1374aa01],cl
  401661:	sub    esp,0x44
  401664:	push   ecx
  401665:	push   ebx
  401666:	push   DWORD PTR [ecx+0x3ec]
  40166c:	push   esi
  40166d:	push   esi
  40166e:	call   0x401094
  401673:	add    esp,0x10
  401676:	pop    ecx
  401677:	push   ecx
  401678:	push   0x0
  40167a:	push   0x403000
  40167f:	pop    eax
  401680:	notrack call DWORD PTR [eax]
  401683:	pop    ecx
  401684:	push   ecx
  401685:	push   0x0
  401687:	push   0x403040
  40168c:	pop    eax
  40168d:	notrack call DWORD PTR [eax]
  401690:	pop    ecx
  401691:	sub    esp,0xffffffbc
  401694:	mov    ebp,DWORD PTR [esp]
  401697:	add    esp,0x4
  40169a:	ret    
  40169b:	add    BYTE PTR [ebx-0x1374aa01],cl
  4016a1:	sub    esp,0x4c
  4016a4:	push   ecx
  4016a5:	push   DWORD PTR [ecx+0x3a8]
  4016ab:	push   DWORD PTR [ecx+0x2e8]
  4016b1:	push   ebx
  4016b2:	call   0x40185c
  4016b7:	add    esp,0xc
  4016ba:	pop    ecx
  4016bb:	push   ecx
  4016bc:	push   0x403014
  4016c1:	pop    eax
  4016c2:	notrack call DWORD PTR [eax]
  4016c5:	pop    ecx
  4016c6:	push   ecx
  4016c7:	mov    eax,0x0
  4016cc:	push   eax
  4016cd:	push   0x403040
  4016d2:	pop    eax
  4016d3:	notrack call DWORD PTR [eax]
  4016d6:	pop    ecx
  4016d7:	sub    esp,0xffffffb4
  4016da:	mov    ebp,DWORD PTR [esp]
  4016dd:	add    esp,0x4
  4016e0:	ret    
  4016e1:	add    BYTE PTR [eax],al
  4016e3:	add    BYTE PTR [ebx-0x1374aa01],cl
  4016e9:	sub    esp,0x60
  4016ec:	push   ecx
  4016ed:	mov    edi,0x40
  4016f2:	push   edi
  4016f3:	push   0x1000
  4016f8:	mov    esi,0x6bc
  4016fd:	push   esi
  4016fe:	push   0x0
  401700:	push   0x0
  401702:	xor    DWORD PTR [esp],0x17e8538d
  401709:	pop    edx
  40170a:	sub    edx,0x17a82341
  401710:	push   DWORD PTR [edx]
  401712:	sub    DWORD PTR [esp],0x2
  401716:	push   0x403034
  40171b:	pop    edx
  40171c:	pop    DWORD PTR [edx]
  40171e:	push   0x403034
  401723:	pop    eax
  401724:	notrack call DWORD PTR [eax]
  401727:	xchg   DWORD PTR [esp],eax
  40172a:	mov    ecx,eax
  40172c:	pop    eax
  40172d:	mov    DWORD PTR [ecx+0x1e8],eax
  401733:	mov    esi,DWORD PTR [ecx+0x1e8]
  401739:	mov    ebx,esi
  40173b:	sub    esi,esi
  40173d:	dec    esi
  40173e:	and    esi,0x401e9e
  401744:	mov    edx,0x45ae3219
  401749:	xor    edi,edi
  40174b:	mov    eax,edx
  40174d:	add    eax,DWORD PTR [esi]
  40174f:	sub    eax,0x1
  401752:	mov    DWORD PTR [ebx],eax
  401754:	push   DWORD PTR [esi]
  401756:	mov    edx,0xfffffffc
  40175b:	sub    esi,edx
  40175d:	sub    ebx,edx
  40175f:	pop    edx
  401760:	dec    edx
  401761:	add    edi,0x4
  401764:	cmp    edi,0x6bc
  40176a:	jne    0x40174b
  40176c:	push   ecx
  40176d:	mov    ecx,0x0
  401772:	push   ecx
  401773:	push   0x403010
  401778:	pop    eax
  401779:	notrack call DWORD PTR [eax]
  40177c:	pop    ecx
  40177d:	sub    esp,0xffffffa0
  401780:	pop    ebp
  401781:	ret    
  401782:	add    BYTE PTR [eax],al
  401784:	mov    edi,edi
  401786:	push   ebp
  401787:	mov    ebp,esp
  401789:	sub    esp,0x60
  40178c:	push   ecx
  40178d:	push   edx
  40178e:	push   ebx
  40178f:	push   esi
  401790:	push   esi
  401791:	call   0x401d4c
  401796:	add    esp,0x10
  401799:	pop    ecx
  40179a:	push   ecx
  40179b:	mov    eax,0x0
  4017a0:	push   eax
  4017a1:	push   0x403020
  4017a6:	pop    eax
  4017a7:	notrack call DWORD PTR [eax]
  4017aa:	pop    ecx
  4017ab:	push   ecx
  4017ac:	mov    edi,0x0
  4017b1:	push   edi
  4017b2:	push   0x403010
  4017b7:	pop    eax
  4017b8:	notrack call DWORD PTR [eax]
  4017bb:	pop    ecx
  4017bc:	sub    esp,0xffffffa0
  4017bf:	mov    ebp,DWORD PTR [esp]
  4017c2:	add    esp,0x4
  4017c5:	ret    
  4017c6:	add    BYTE PTR [eax],al
  4017c8:	add    BYTE PTR [eax],al
  4017ca:	add    BYTE PTR [eax],al
  4017cc:	mov    edi,edi
  4017ce:	push   ebp
  4017cf:	mov    ebp,esp
  4017d1:	sub    esp,0x58
  4017d4:	push   ecx
  4017d5:	push   0x0
  4017d7:	push   0x403044
  4017dc:	pop    eax
  4017dd:	notrack call DWORD PTR [eax]
  4017e0:	pop    ecx
  4017e1:	push   ecx
  4017e2:	push   ebx
  4017e3:	push   DWORD PTR [ecx+0x390]
  4017e9:	push   DWORD PTR [ecx+0x30]
  4017ec:	push   DWORD PTR [ecx+0x270]
  4017f2:	call   0x401b44
  4017f7:	add    esp,0x10
  4017fa:	pop    ecx
  4017fb:	push   ecx
  4017fc:	mov    eax,0x0
  401801:	push   eax
  401802:	push   0x403058
  401807:	pop    eax
  401808:	notrack call DWORD PTR [eax]
  40180b:	pop    ecx
  40180c:	sub    esp,0xffffffa8
  40180f:	mov    ebp,DWORD PTR [esp]
  401812:	add    esp,0x4
  401815:	ret    
  401816:	add    BYTE PTR [eax],al
  401818:	mov    edi,edi
  40181a:	push   ebp
  40181b:	mov    ebp,esp
  40181d:	sub    esp,0x48
  401820:	push   ecx
  401821:	push   0x0
  401823:	push   0x403000
  401828:	pop    eax
  401829:	notrack call DWORD PTR [eax]
  40182c:	pop    ecx
  40182d:	push   ecx
  40182e:	push   DWORD PTR [ecx+0x68]
  401831:	push   esi
  401832:	push   edx
  401833:	push   edi
  401834:	call   0x4016e4
  401839:	add    esp,0x10
  40183c:	pop    ecx
  40183d:	push   ecx
  40183e:	push   0x403014
  401843:	pop    eax
  401844:	notrack call DWORD PTR [eax]
  401847:	pop    ecx
  401848:	sub    esp,0xffffffb8
  40184b:	mov    ebp,DWORD PTR [esp]
  40184e:	add    esp,0x4
  401851:	ret    
	...
  40185a:	add    BYTE PTR [eax],al
  40185c:	mov    edi,edi
  40185e:	push   ebp
  40185f:	mov    ebp,esp
  401861:	sub    esp,0x1c
  401864:	push   ecx
  401865:	mov    edx,0x0
  40186a:	push   edx
  40186b:	push   0x403070
  401870:	pop    eax
  401871:	notrack call DWORD PTR [eax]
  401874:	pop    ecx
  401875:	push   ecx
  401876:	push   esi
  401877:	push   DWORD PTR [ecx+0x60]
  40187a:	push   ebx
  40187b:	push   DWORD PTR [ecx+0x6c]
  40187e:	call   0x401180
  401883:	add    esp,0x10
  401886:	pop    ecx
  401887:	push   ecx
  401888:	mov    eax,0x0
  40188d:	push   eax
  40188e:	push   0x40301c
  401893:	pop    eax
  401894:	notrack call DWORD PTR [eax]
  401897:	pop    ecx
  401898:	sub    esp,0xffffffe4
  40189b:	mov    ebp,DWORD PTR [esp]
  40189e:	add    esp,0x4
  4018a1:	ret    
	...
  4018b6:	add    BYTE PTR [eax],al
  4018b8:	mov    edi,edi
  4018ba:	push   ebp
  4018bb:	mov    ebp,esp
  4018bd:	sub    esp,0x1c
  4018c0:	push   ecx
  4018c1:	push   DWORD PTR [ecx+0x218]
  4018c7:	push   DWORD PTR [ecx+0xd4]
  4018cd:	push   DWORD PTR [ecx+0x2d4]
  4018d3:	call   0x4019c8
  4018d8:	add    esp,0xc
  4018db:	pop    ecx
  4018dc:	push   ecx
  4018dd:	push   0x0
  4018df:	push   0x403020
  4018e4:	pop    eax
  4018e5:	notrack call DWORD PTR [eax]
  4018e8:	pop    ecx
  4018e9:	push   ecx
  4018ea:	push   0x0
  4018ec:	push   0x40302c
  4018f1:	pop    eax
  4018f2:	notrack call DWORD PTR [eax]
  4018f5:	pop    ecx
  4018f6:	sub    esp,0xffffffe4
  4018f9:	mov    ebp,DWORD PTR [esp]
  4018fc:	add    esp,0x4
  4018ff:	ret    
  401900:	mov    edi,edi
  401902:	push   ebp
  401903:	mov    ebp,esp
  401905:	sub    esp,0x30
  401908:	push   ecx
  401909:	mov    eax,0x0
  40190e:	push   eax
  40190f:	push   0x40301c
  401914:	pop    eax
  401915:	notrack call DWORD PTR [eax]
  401918:	pop    ecx
  401919:	push   ecx
  40191a:	push   eax
  40191b:	push   esi
  40191c:	push   DWORD PTR [ecx+0x94]
  401922:	call   0x401cb4
  401927:	add    esp,0xc
  40192a:	pop    ecx
  40192b:	push   ecx
  40192c:	push   0x0
  40192e:	push   0x403058
  401933:	pop    eax
  401934:	notrack call DWORD PTR [eax]
  401937:	pop    ecx
  401938:	sub    esp,0xffffffd0
  40193b:	mov    ebp,DWORD PTR [esp]
  40193e:	add    esp,0x4
  401941:	ret    
  401942:	add    BYTE PTR [eax],al
  401944:	mov    edi,edi
  401946:	push   ebp
  401947:	mov    ebp,esp
  401949:	sub    esp,0x60
  40194c:	push   ecx
  40194d:	push   edx
  40194e:	push   DWORD PTR [ecx+0x68]
  401951:	call   0x4012e0
  401956:	add    esp,0x8
  401959:	pop    ecx
  40195a:	push   ecx
  40195b:	mov    eax,0x0
  401960:	push   eax
  401961:	push   0x40301c
  401966:	pop    eax
  401967:	notrack call DWORD PTR [eax]
  40196a:	pop    ecx
  40196b:	push   ecx
  40196c:	push   0x403014
  401971:	pop    eax
  401972:	notrack call DWORD PTR [eax]
  401975:	pop    ecx
  401976:	sub    esp,0xffffffa0
  401979:	mov    ebp,DWORD PTR [esp]
  40197c:	add    esp,0x4
  40197f:	ret    
  401980:	add    BYTE PTR [eax],al
  401982:	add    BYTE PTR [eax],al
  401984:	mov    edi,edi
  401986:	push   ebp
  401987:	mov    ebp,esp
  401989:	sub    esp,0x24
  40198c:	push   ecx
  40198d:	push   0x0
  40198f:	push   0x403010
  401994:	pop    eax
  401995:	notrack call DWORD PTR [eax]
  401998:	pop    ecx
  401999:	push   ecx
  40199a:	push   esi
  40199b:	push   DWORD PTR [ecx+0x194]
  4019a1:	call   0x401488
  4019a6:	add    esp,0x8
  4019a9:	pop    ecx
  4019aa:	push   ecx
  4019ab:	mov    edi,0x0
  4019b0:	push   edi
  4019b1:	push   0x403044
  4019b6:	pop    eax
  4019b7:	notrack call DWORD PTR [eax]
  4019ba:	pop    ecx
  4019bb:	sub    esp,0xffffffdc
  4019be:	mov    ebp,DWORD PTR [esp]
  4019c1:	add    esp,0x4
  4019c4:	ret    
  4019c5:	add    BYTE PTR [eax],al
  4019c7:	add    BYTE PTR [ebx-0x1374aa01],cl
  4019cd:	sub    esp,0x44
  4019d0:	push   ecx
  4019d1:	push   0x0
  4019d3:	push   0x403044
  4019d8:	pop    eax
  4019d9:	notrack call DWORD PTR [eax]
  4019dc:	pop    ecx
  4019dd:	push   ecx
  4019de:	push   esi
  4019df:	push   DWORD PTR [ecx+0x308]
  4019e5:	call   0x4011c8
  4019ea:	add    esp,0x8
  4019ed:	pop    ecx
  4019ee:	push   ecx
  4019ef:	push   0x0
  4019f1:	push   0x403024
  4019f6:	pop    eax
  4019f7:	notrack call DWORD PTR [eax]
  4019fa:	pop    ecx
  4019fb:	sub    esp,0xffffffbc
  4019fe:	mov    ebp,DWORD PTR [esp]
  401a01:	add    esp,0x4
  401a04:	ret    
  401a05:	add    BYTE PTR [eax],al
  401a07:	add    BYTE PTR [ebx-0x1374aa01],cl
  401a0d:	sub    esp,0x28
  401a10:	push   ecx
  401a11:	push   edx
  401a12:	push   DWORD PTR [ecx+0x1c]
  401a15:	call   0x401324
  401a1a:	add    esp,0x8
  401a1d:	pop    ecx
  401a1e:	push   ecx
  401a1f:	mov    edx,0x0
  401a24:	push   edx
  401a25:	push   0x403058
  401a2a:	pop    eax
  401a2b:	notrack call DWORD PTR [eax]
  401a2e:	pop    ecx
  401a2f:	push   ecx
  401a30:	mov    esi,0x0
  401a35:	push   esi
  401a36:	push   0x403040
  401a3b:	pop    eax
  401a3c:	notrack call DWORD PTR [eax]
  401a3f:	pop    ecx
  401a40:	sub    esp,0xffffffd8
  401a43:	mov    ebp,DWORD PTR [esp]
  401a46:	add    esp,0x4
  401a49:	ret    
  401a4a:	add    BYTE PTR [eax],al
  401a4c:	mov    edi,edi
  401a4e:	push   ebp
  401a4f:	mov    ebp,esp
  401a51:	sub    esp,0x54
  401a54:	push   ecx
  401a55:	mov    edx,0x0
  401a5a:	push   edx
  401a5b:	push   0x40301c
  401a60:	pop    eax
  401a61:	notrack call DWORD PTR [eax]
  401a64:	pop    ecx
  401a65:	push   ecx
  401a66:	push   DWORD PTR [ecx+0x354]
  401a6c:	push   eax
  401a6d:	call   0x401440
  401a72:	add    esp,0x8
  401a75:	pop    ecx
  401a76:	push   ecx
  401a77:	mov    eax,0x0
  401a7c:	push   eax
  401a7d:	push   0x403010
  401a82:	pop    eax
  401a83:	notrack call DWORD PTR [eax]
  401a86:	pop    ecx
  401a87:	sub    esp,0xffffffac
  401a8a:	mov    ebp,DWORD PTR [esp]
  401a8d:	add    esp,0x4
  401a90:	ret    
  401a91:	add    BYTE PTR [eax],al
  401a93:	add    BYTE PTR [ebx-0x1374aa01],cl
  401a99:	sub    esp,0x28
  401a9c:	push   ecx
  401a9d:	push   DWORD PTR [ecx+0x340]
  401aa3:	push   DWORD PTR [ecx+0x238]
  401aa9:	push   DWORD PTR [ecx+0x114]
  401aaf:	push   ebx
  401ab0:	call   0x401a4c
  401ab5:	add    esp,0x10
  401ab8:	pop    ecx
  401ab9:	push   ecx
  401aba:	mov    eax,0x0
  401abf:	push   eax
  401ac0:	push   0x403070
  401ac5:	pop    eax
  401ac6:	notrack call DWORD PTR [eax]
  401ac9:	pop    ecx
  401aca:	push   ecx
  401acb:	mov    eax,0x0
  401ad0:	push   eax
  401ad1:	push   0x403010
  401ad6:	pop    eax
  401ad7:	notrack call DWORD PTR [eax]
  401ada:	pop    ecx
  401adb:	sub    esp,0xffffffd8
  401ade:	mov    ebp,DWORD PTR [esp]
  401ae1:	add    esp,0x4
  401ae4:	ret    
  401ae5:	add    BYTE PTR [eax],al
  401ae7:	add    BYTE PTR [ebx-0x1374aa01],cl
  401aed:	sub    esp,0x4c
  401af0:	push   ecx
  401af1:	push   0x0
  401af3:	push   0x403030
  401af8:	pop    eax
  401af9:	notrack call DWORD PTR [eax]
  401afc:	pop    ecx
  401afd:	push   ecx
  401afe:	push   DWORD PTR [ecx+0x13c]
  401b04:	push   DWORD PTR [ecx+0x3f8]
  401b0a:	push   esi
  401b0b:	call   0x401944
  401b10:	add    esp,0xc
  401b13:	pop    ecx
  401b14:	push   ecx
  401b15:	mov    eax,0x0
  401b1a:	push   eax
  401b1b:	push   0x403074
  401b20:	pop    eax
  401b21:	notrack call DWORD PTR [eax]
  401b24:	pop    ecx
  401b25:	sub    esp,0xffffffb4
  401b28:	mov    ebp,DWORD PTR [esp]
  401b2b:	add    esp,0x4
  401b2e:	ret    
	...
  401b43:	add    BYTE PTR [ebx-0x1374aa01],cl
  401b49:	sub    esp,0x38
  401b4c:	push   ecx
  401b4d:	mov    edx,0x0
  401b52:	push   edx
  401b53:	push   0x40302c
  401b58:	pop    eax
  401b59:	notrack call DWORD PTR [eax]
  401b5c:	pop    ecx
  401b5d:	push   ecx
  401b5e:	push   DWORD PTR [ecx+0x1fc]
  401b64:	push   DWORD PTR [ecx+0xf8]
  401b6a:	push   esi
  401b6b:	push   edi
  401b6c:	call   0x401de0
  401b71:	add    esp,0x10
  401b74:	pop    ecx
  401b75:	push   ecx
  401b76:	mov    eax,0x0
  401b7b:	push   eax
  401b7c:	push   0x403040
  401b81:	pop    eax
  401b82:	notrack call DWORD PTR [eax]
  401b85:	pop    ecx
  401b86:	sub    esp,0xffffffc8
  401b89:	mov    ebp,DWORD PTR [esp]
  401b8c:	add    esp,0x4
  401b8f:	ret    
  401b90:	mov    edi,edi
  401b92:	push   ebp
  401b93:	mov    ebp,esp
  401b95:	sub    esp,0x50
  401b98:	push   ecx
  401b99:	push   DWORD PTR [ecx+0x130]
  401b9f:	push   edx
  401ba0:	push   ebx
  401ba1:	push   eax
  401ba2:	call   0x40154c
  401ba7:	add    esp,0x10
  401baa:	pop    ecx
  401bab:	push   ecx
  401bac:	mov    eax,0x0
  401bb1:	push   eax
  401bb2:	push   0x403010
  401bb7:	pop    eax
  401bb8:	notrack call DWORD PTR [eax]
  401bbb:	pop    ecx
  401bbc:	push   ecx
  401bbd:	mov    ecx,0x0
  401bc2:	push   ecx
  401bc3:	push   0x403030
  401bc8:	pop    eax
  401bc9:	notrack call DWORD PTR [eax]
  401bcc:	pop    ecx
  401bcd:	sub    esp,0xffffffb0
  401bd0:	mov    ebp,DWORD PTR [esp]
  401bd3:	add    esp,0x4
  401bd6:	ret    
	...
  401bdf:	add    BYTE PTR [ebx-0x1374aa01],cl
  401be5:	sub    esp,0x28
  401be8:	push   ecx
  401be9:	push   DWORD PTR [ecx+0x218]
  401bef:	push   ebx
  401bf0:	call   0x40165c
  401bf5:	add    esp,0x8
  401bf8:	pop    ecx
  401bf9:	push   ecx
  401bfa:	push   0x0
  401bfc:	push   0x403030
  401c01:	pop    eax
  401c02:	notrack call DWORD PTR [eax]
  401c05:	pop    ecx
  401c06:	push   ecx
  401c07:	push   0x403014
  401c0c:	pop    eax
  401c0d:	notrack call DWORD PTR [eax]
  401c10:	pop    ecx
  401c11:	sub    esp,0xffffffd8
  401c14:	mov    ebp,DWORD PTR [esp]
  401c17:	add    esp,0x4
  401c1a:	ret    
  401c1b:	add    BYTE PTR [ebx-0x1374aa01],cl
  401c21:	sub    esp,0x60
  401c24:	push   ecx
  401c25:	push   DWORD PTR [ecx+0x178]
  401c2b:	push   ebx
  401c2c:	push   esi
  401c2d:	call   0x4017cc
  401c32:	add    esp,0xc
  401c35:	pop    ecx
  401c36:	push   ecx
  401c37:	lea    edi,[ecx]
  401c39:	push   edi
  401c3a:	push   0x403028
  401c3f:	pop    eax
  401c40:	notrack call DWORD PTR [eax]
  401c43:	test   eax,eax
  401c45:	jne    0x401c37
  401c47:	pop    ecx
  401c48:	push   ecx
  401c49:	mov    edx,0x0
  401c4e:	push   edx
  401c4f:	push   0x403010
  401c54:	pop    eax
  401c55:	notrack call DWORD PTR [eax]
  401c58:	pop    ecx
  401c59:	sub    esp,0xffffffa0
  401c5c:	mov    ebp,DWORD PTR [esp]
  401c5f:	add    esp,0x4
  401c62:	ret    
	...
  401c73:	add    BYTE PTR [ebx-0x1374aa01],cl
  401c79:	sub    esp,0x48
  401c7c:	push   ecx
  401c7d:	push   edi
  401c7e:	push   edi
  401c7f:	call   0x401130
  401c84:	add    esp,0x8
  401c87:	pop    ecx
  401c88:	push   ecx
  401c89:	push   0x0
  401c8b:	push   0x403074
  401c90:	pop    eax
  401c91:	notrack call DWORD PTR [eax]
  401c94:	pop    ecx
  401c95:	push   ecx
  401c96:	push   0x0
  401c98:	push   0x403044
  401c9d:	pop    eax
  401c9e:	notrack call DWORD PTR [eax]
  401ca1:	pop    ecx
  401ca2:	sub    esp,0xffffffb8
  401ca5:	mov    ebp,DWORD PTR [esp]
  401ca8:	add    esp,0x4
  401cab:	ret    
	...
  401cb4:	mov    edi,edi
  401cb6:	push   ebp
  401cb7:	mov    ebp,esp
  401cb9:	sub    esp,0x3c
  401cbc:	push   ecx
  401cbd:	push   DWORD PTR [ecx+0x1c0]
  401cc3:	push   ebx
  401cc4:	call   0x4013b4
  401cc9:	add    esp,0x8
  401ccc:	pop    ecx
  401ccd:	push   ecx
  401cce:	push   0x0
  401cd0:	push   0x403074
  401cd5:	pop    eax
  401cd6:	notrack call DWORD PTR [eax]
  401cd9:	pop    ecx
  401cda:	push   ecx
  401cdb:	mov    ebx,0x0
  401ce0:	push   ebx
  401ce1:	push   0x403024
  401ce6:	pop    eax
  401ce7:	notrack call DWORD PTR [eax]
  401cea:	pop    ecx
  401ceb:	sub    esp,0xffffffc4
  401cee:	mov    ebp,DWORD PTR [esp]
  401cf1:	add    esp,0x4
  401cf4:	ret    
	...
  401d05:	add    BYTE PTR [eax],al
  401d07:	add    BYTE PTR [ebx-0x1374aa01],cl
  401d0d:	sub    esp,0x1c
  401d10:	push   ecx
  401d11:	push   DWORD PTR [ecx+0x354]
  401d17:	push   edx
  401d18:	call   0x401c74
  401d1d:	add    esp,0x8
  401d20:	pop    ecx
  401d21:	push   ecx
  401d22:	push   0x0
  401d24:	push   0x40301c
  401d29:	pop    eax
  401d2a:	notrack call DWORD PTR [eax]
  401d2d:	pop    ecx
  401d2e:	push   ecx
  401d2f:	mov    edx,0x0
  401d34:	push   edx
  401d35:	push   0x403020
  401d3a:	pop    eax
  401d3b:	notrack call DWORD PTR [eax]
  401d3e:	pop    ecx
  401d3f:	sub    esp,0xffffffe4
  401d42:	mov    ebp,DWORD PTR [esp]
  401d45:	add    esp,0x4
  401d48:	ret    
  401d49:	add    BYTE PTR [eax],al
  401d4b:	add    BYTE PTR [ebx-0x1374aa01],cl
  401d51:	sub    esp,0x38
  401d54:	push   ecx
  401d55:	push   DWORD PTR [ecx+0x238]
  401d5b:	push   ebx
  401d5c:	push   DWORD PTR [ecx+0x1c4]
  401d62:	push   DWORD PTR [ecx+0x200]
  401d68:	call   0x401900
  401d6d:	add    esp,0x10
  401d70:	pop    ecx
  401d71:	push   ecx
  401d72:	push   0x0
  401d74:	push   0x40302c
  401d79:	pop    eax
  401d7a:	notrack call DWORD PTR [eax]
  401d7d:	pop    ecx
  401d7e:	push   ecx
  401d7f:	push   0x0
  401d81:	push   0x403020
  401d86:	pop    eax
  401d87:	notrack call DWORD PTR [eax]
  401d8a:	pop    ecx
  401d8b:	sub    esp,0xffffffc8
  401d8e:	mov    ebp,DWORD PTR [esp]
  401d91:	add    esp,0x4
  401d94:	ret    
  401d95:	add    BYTE PTR [eax],al
  401d97:	add    BYTE PTR [ebx-0x1374aa01],cl
  401d9d:	sub    esp,0x30
  401da0:	push   ecx
  401da1:	lea    ecx,[ecx]
  401da3:	push   ecx
  401da4:	push   0x403028
  401da9:	pop    eax
  401daa:	notrack call DWORD PTR [eax]
  401dad:	test   eax,eax
  401daf:	jne    0x401da1
  401db1:	pop    ecx
  401db2:	push   ecx
  401db3:	push   eax
  401db4:	push   DWORD PTR [ecx+0x1d8]
  401dba:	push   eax
  401dbb:	push   DWORD PTR [ecx+0x244]
  401dc1:	call   0x40120c
  401dc6:	add    esp,0x10
  401dc9:	pop    ecx
  401dca:	push   ecx
  401dcb:	push   0x403014
  401dd0:	pop    eax
  401dd1:	notrack call DWORD PTR [eax]
  401dd4:	pop    ecx
  401dd5:	sub    esp,0xffffffd0
  401dd8:	mov    ebp,DWORD PTR [esp]
  401ddb:	add    esp,0x4
  401dde:	ret    
  401ddf:	add    BYTE PTR [ebx-0x1374aa01],cl
  401de5:	sub    esp,0x2c
  401de8:	push   ecx
  401de9:	push   edi
  401dea:	push   edi
  401deb:	push   DWORD PTR [ecx+0x2b0]
  401df1:	push   DWORD PTR [ecx+0x36c]
  401df7:	call   0x401d98
  401dfc:	add    esp,0x10
  401dff:	pop    ecx
  401e00:	push   ecx
  401e01:	mov    edx,0x0
  401e06:	push   edx
  401e07:	push   0x40301c
  401e0c:	pop    eax
  401e0d:	notrack call DWORD PTR [eax]
  401e10:	pop    ecx
  401e11:	push   ecx
  401e12:	mov    ebx,0x0
  401e17:	push   ebx
  401e18:	push   0x403074
  401e1d:	pop    eax
  401e1e:	notrack call DWORD PTR [eax]
  401e21:	pop    ecx
  401e22:	sub    esp,0xffffffd4
  401e25:	mov    ebp,DWORD PTR [esp]
  401e28:	add    esp,0x4
  401e2b:	ret    
	...
  401e3c:	mov    edi,edi
  401e3e:	push   ebp
  401e3f:	mov    ebp,esp
  401e41:	sub    esp,0x4c
  401e44:	push   ecx
  401e45:	push   0x0
  401e47:	push   0x403074
  401e4c:	pop    eax
  401e4d:	notrack call DWORD PTR [eax]
  401e50:	pop    ecx
  401e51:	push   ecx
  401e52:	push   edi
  401e53:	push   esi
  401e54:	push   edx
  401e55:	call   0x401984
  401e5a:	add    esp,0xc
  401e5d:	pop    ecx
  401e5e:	push   ecx
  401e5f:	lea    edi,[ecx]
  401e61:	push   edi
  401e62:	push   0x403028
  401e67:	pop    eax
  401e68:	notrack call DWORD PTR [eax]
  401e6b:	test   eax,eax
  401e6d:	jne    0x401e5f
  401e6f:	pop    ecx
  401e70:	sub    esp,0xffffffb4
  401e73:	mov    ebp,DWORD PTR [esp]
  401e76:	add    esp,0x4
  401e79:	ret    
  401e7a:	add    BYTE PTR [eax],al
  401e7c:	enter  0x5e19,0x43
  401e80:	out    0x4e,al
  401e82:	mov    esp,0xae5dfe15
  401e87:	mov    edi,DWORD PTR [esi-0x53369063]
  401e8d:	popa   
  401e8e:	out    dx,al
  401e8f:	call   0x5626:0x558bfe1f
  401e96:	adc    BYTE PTR [ebx],dl
  401e98:	mov    eax,0x51a6b24a
  401e9d:	dec    ecx
  401e9e:	cmp    BYTE PTR [esi],ah
  401ea0:	mov    ds:0x5de0b212,al
  401ea5:	in     eax,dx
  401ea6:	push   eax
  401ea7:	and    BYTE PTR [ecx],bl
  401ea9:	ins    BYTE PTR es:[edi],dx
  401eaa:	or     BYTE PTR [ebp+0x2c],ch
  401ead:	in     eax,dx
  401eae:	and    eax,0xe0d4575c
  401eb3:	clc    
  401eb4:	push   es
  401eb5:	push   cs
  401eb6:	pop    ds
  401eb7:	mov    edi,DWORD PTR [ebp+0x428fcbe6]
  401ebd:	sbb    DWORD PTR [edi],esi
  401ebf:	mov    ebx,0xb6cb4bbd
  401ec4:	inc    edx
  401ec5:	and    dh,BYTE PTR [edi]
  401ec7:	scas   al,BYTE PTR es:[edi]
  401ec8:	mov    ebp,0x4284cb49
  401ecd:	call   0x7bfdc809
  401ed2:	retf   
  401ed3:	ret    0xf042
  401ed6:	aaa    
  401ed7:	cmp    eax,0xc21b67bd
  401edc:	sbb    DWORD PTR [edi+edi*4],esp
  401edf:	inc    ecx
  401ee0:	sub    DWORD PTR [eax],ebx
  401ee2:	les    esi,FWORD PTR [esi]
  401ee4:	daa    
  401ee5:	call   0x8e18eca8
  401eea:	outs   dx,DWORD PTR ds:[esi]
  401eeb:	sbb    bl,BYTE PTR [ebx]
  401eed:	js     0x401e82
  401eef:	in     eax,0x41
  401ef1:	adc    esp,DWORD PTR [esp+edx*8-0x32]
  401ef5:	in     al,dx
  401ef6:	sahf   
  401ef7:	sub    ebx,esi
  401ef9:	sti    
  401efa:	push   esi
  401efb:	xlat   BYTE PTR ds:[ebx]
  401efc:	and    DWORD PTR [esi*1-0x3d212591],eax
  401f03:	sti    
  401f04:	mov    BYTE PTR [ecx-0x1a1c8f7f],cl
  401f0a:	jmp    0x89bba0e6
  401f0f:	jl     0x401ee2
  401f11:	or     esi,0xffffff8b
  401f14:	mov    bh,0x82
  401f16:	sahf   
  401f17:	je     0x401ec9
  401f19:	ret    
  401f1a:	(bad)  
  401f1b:	lock mov ah,0xa4
  401f1e:	je     0x401f94
  401f20:	lods   al,BYTE PTR ds:[esi]
  401f21:	retf   
  401f22:	loop   0x401f02
  401f24:	push   edx
  401f25:	mov    ch,BYTE PTR [eax]
  401f27:	stos   BYTE PTR es:[edi],al
  401f28:	repz jns 0x401f88
  401f2b:	sbb    ah,BYTE PTR ds:0xdb4de5f0
  401f31:	pop    ds
  401f32:	sbb    eax,0xeb8c8cb2
  401f37:	dec    ebp
  401f38:	jae    0x401f17
  401f3a:	pop    ss
  401f3b:	mov    cl,0xe2
  401f3d:	xor    dh,BYTE PTR [esi+0x47]
  401f40:	and    esi,DWORD PTR [ebx-0x74]
  401f43:	mov    eax,0xfd03dcdc
  401f48:	jmp    0x401f66
  401f4a:	inc    BYTE PTR [edx]
  401f4c:	into   
  401f4d:	(bad)  
  401f51:	arpl   WORD PTR [esi+eax*8+0x396b27b6],bx
  401f58:	dec    ecx
  401f59:	xor    eax,0xeeeb4df5
  401f5e:	arpl   WORD PTR [edx+0x659f160e],bx
  401f64:	fldenv [ecx]
  401f66:	push   0x9269269a
  401f6b:	rcr    cl,1
  401f6d:	add    BYTE PTR [eax+0x2e],dh
  401f70:	pushf  
  401f71:	arpl   cx,bp
  401f73:	sar    BYTE PTR [ecx-0x51835b3c],1
  401f79:	movs   DWORD PTR es:[edi],DWORD PTR ds:[esi]
  401f7a:	pop    esi
  401f7b:	xlat   BYTE PTR ds:[ebx]
  401f7c:	test   eax,0xa64cd859
  401f81:	test   DWORD PTR [eax-0x51a1a6f6],0xa9a0fe4d
  401f8b:	retf   0x88e9
  401f8e:	pop    esp
  401f8f:	xor    eax,0x6ec0216
  401f94:	ja     0x401f98
  401f96:	sbb    al,0x5f
  401f98:	cmp    BYTE PTR [esi],0xfc
  401f9b:	mov    al,ds:0x981c369f
  401fa0:	mov    eax,0xd2795afd
  401fa5:	pop    edx
  401fa6:	fdivr  st(0),st
  401fa8:	xor    DWORD PTR ds:0xf2ce3f26,ecx
  401fae:	(bad)  [ecx]
  401fb0:	and    BYTE PTR [eax+0x26],0x24
  401fb4:	mov    gs,WORD PTR [edx]
  401fb6:	pop    ecx
  401fb7:	dec    eax
  401fb8:	ret    0x1329
  401fbb:	mov    esp,0x99ee2994
  401fc0:	ja     0x401fec
  401fc2:	jle    0x40202c
  401fc4:	fild   QWORD PTR [eax]
  401fc6:	fisub  DWORD PTR [edx]
  401fc8:	lock bound esp,QWORD PTR [ebx]
  401fcb:	shl    DWORD PTR [ebx+edi*8+0x5c5784de],1
  401fd2:	scas   eax,DWORD PTR es:[edi]
  401fd3:	dec    ecx
  401fd4:	lods   al,BYTE PTR ds:[esi]
  401fd5:	in     al,dx
  401fd6:	pop    DWORD PTR [ebx-0x33]
  401fd9:	sub    edi,esi
  401fdb:	adc    edx,DWORD PTR [ebx-0x1d]
  401fde:	mov    ebx,0x3f1fc12d
  401fe3:	loop   0x401fda
  401fe5:	sub    ecx,ecx
  401fe7:	jge    0x401f7e
  401fe9:	sbb    eax,0x572b074d
  401fee:	test   BYTE PTR [ebx+0x3c91b11c],0x58
  401ff5:	mov    DWORD PTR [ecx+0x55],ebx
  401ff8:	lods   al,BYTE PTR ds:[esi]
  401ff9:	jbe    0x401fa4
  401ffb:	xor    eax,0xeea0151c
  402000:	retf   
  402001:	pusha  
  402002:	adc    DWORD PTR fs:[edx+eiz*4],esi
  402006:	adc    eax,0xfdd5cb03
  40200b:	xchg   DWORD PTR [esi+esi*1+0x19a77308],esi
  402012:	test   DWORD PTR [ecx-0x55],esp
  402015:	ss into 
  402017:	cmc    
  402018:	movs   DWORD PTR es:[edi],DWORD PTR ds:[esi]
  402019:	sbb    ebx,DWORD PTR [esi+0x633bab0e]
  40201f:	inc    edi
  402020:	popa   
  402021:	sbb    eax,0xd5f678d2
  402026:	(bad)  
  402028:	xchg   esp,eax
  402029:	cmc    
  40202a:	sbb    edi,DWORD PTR [esi-0x660c9f96]
  402030:	mul    BYTE PTR [edx]
  402032:	(bad)  
  402033:	mov    gs,ebx
  402035:	mov    ss,WORD PTR [edi*2+0x6aee7115]
  40203c:	ins    BYTE PTR es:[edi],dx
  40203d:	(bad)  
  40203e:	adc    al,0x95
  402040:	jmp    0x40201a
  402042:	out    dx,al
  402043:	stos   BYTE PTR es:[edi],al
  402044:	adc    al,0x27
  402046:	adc    ecx,ebx
  402048:	push   ebx
  402049:	das    
  40204a:	jp     0x40207c
  40204c:	cmp    cl,al
  40204e:	jo     0x40202a
  402050:	retf   
  402051:	ds xchg edx,eax
  402053:	mov    DWORD PTR [ebx],esi
  402055:	mul    DWORD PTR [eax-0x45f7338a]
  40205b:	adc    al,0x74
  40205d:	add    edx,ebx
  40205f:	sub    ebx,DWORD PTR [eax-0x241378cb]
  402065:	into   
  402066:	push   es
  402067:	adc    al,0xf
  402069:	sub    DWORD PTR [edi-0x3b25eb08],eax
  40206f:	inc    ebx
  402070:	jbe    0x402009
  402072:	mov    di,0xf280
  402076:	adc    al,0x59
  402078:	or     BYTE PTR [esi+0xa],bh
  40207b:	or     eax,0xf30ec3ef
  402080:	xor    BYTE PTR [ecx+0x67707100],dh
  402086:	add    cl,BYTE PTR [edi-0x5ebfdc71]
  40208c:	stc    
  40208d:	push   esp
  40208e:	retf   0x5c5d
  402091:	mov    edi,0x40a61920
  402096:	loop   0x4020db
  402098:	and    ebx,DWORD PTR [eax]
  40209a:	test   eax,0xba040130
  40209f:	pop    ds
  4020a0:	out    0x3a,eax
  4020a2:	dec    esp
  4020a3:	loopne 0x4020bd
  4020a5:	sbb    eax,0xe33f9837
  4020aa:	int    0x67
  4020ac:	rcl    BYTE PTR [ecx-0x6dbbdcbc],0x85
  4020b3:	loope  0x402094
  4020b5:	ins    DWORD PTR es:[edi],dx
  4020b6:	jge    0x4020d6
  4020b8:	and    BYTE PTR [ecx-0x411bfa07],dl
  4020be:	cmp    al,0xba
  4020c0:	fbld   TBYTE PTR [ecx-0x2bdbc6af]
  4020c6:	in     eax,dx
  4020c7:	push   ecx
  4020c8:	xchg   edx,eax
  4020c9:	lods   al,BYTE PTR ds:[esi]
  4020ca:	adc    eax,0xe3d86dae
  4020cf:	mov    BYTE PTR ds:0x78c5122b,0xe1
  4020d6:	jne    0x402112
  4020d8:	cld    
  4020d9:	mov    BYTE PTR [eax-0x3889a440],dl
  4020df:	inc    ebx
  4020e0:	sub    DWORD PTR [edx-0x50],ecx
  4020e3:	shr    BYTE PTR ds:0x223fa7b5,0xa1
  4020ea:	out    0x36,al
  4020ec:	out    dx,al
  4020ed:	popa   
  4020ee:	andnps xmm2,XMMWORD PTR [eax]
  4020f1:	dec    esp
  4020f2:	js     0x40215f
  4020f4:	gs scas eax,DWORD PTR es:[edi]
  4020f6:	mov    ch,0x8b
  4020f8:	es pop ds
  4020fa:	stos   DWORD PTR es:[edi],eax
  4020fb:	lds    ebp,FWORD PTR [ecx]
  4020fd:	xor    eax,0x22273ec1
  402102:	inc    eax
  402103:	pop    ss
  402104:	in     eax,0x33
  402106:	dec    ebp
  402107:	out    dx,eax
  402108:	lahf   
  402109:	mov    WORD PTR [ebp-0x5f],es
  40210c:	jmp    0x4020c7
  40210e:	int    0xeb
  402110:	dec    eax
  402111:	dec    ecx
  402112:	mov    ecx,es
  402114:	cmp    al,0x77
  402116:	jmp    0x13a6:0x18896c59
  40211d:	in     al,dx
  40211e:	out    dx,al
  40211f:	out    0x30,al
  402121:	pop    ss
  402122:	push   ss
  402123:	ds into 
  402125:	call   0x16c26315
  40212a:	mov    esp,edx
  40212c:	xchg   ecx,eax
  40212d:	call   0x35946fe
  402132:	push   ss
  402133:	cmp    al,BYTE PTR [ebp+0x55]
  402136:	inc    ebp
  402137:	sbb    cl,BYTE PTR [ebx]
  402139:	cld    
  40213a:	adc    al,0xe5
  40213c:	dec    edx
  40213d:	adc    BYTE PTR [esi-0x62],al
  402140:	jnp    0x402146
  402142:	cmps   DWORD PTR ds:[esi],DWORD PTR es:[edi]
  402143:	icebp  
  402144:	in     eax,0xbe
  402146:	mov    ebx,0x39cced99
  40214b:	push   0xffffff88
  40214d:	outs   dx,DWORD PTR ds:[esi]
  40214e:	hlt    
  40214f:	jmp    0x4020fc
  402151:	adc    eax,0x7fd823e0
  402156:	and    bl,ah
  402158:	daa    
  402159:	or     ebp,DWORD PTR [esi-0x38]
  40215c:	fdiv   st,st(4)
  40215e:	xchg   esp,eax
  40215f:	ret    0xabdd
  402162:	outs   dx,BYTE PTR ds:[esi]
  402163:	cmp    eax,0xd28ad922
  402168:	popa   
  402169:	test   al,0x78
  40216b:	sub    eax,0x807d5a9e
  402170:	in     eax,dx
  402171:	popf   
  402172:	mov    BYTE PTR [edx+0x63],bh
  402175:	in     eax,dx
  402176:	ds (bad) 
  402178:	in     eax,dx
  402179:	fs adc al,0x94
  40217c:	push   ss
  40217d:	add    ebp,esi
  40217f:	jnp    0x40216a
  402181:	cld    
  402182:	imul   eax,DWORD PTR [edi],0xffffffff
  402185:	pop    es
  402186:	out    0x62,eax
  402188:	add    eax,0xfaad1b60
  40218d:	lahf   
  40218e:	ds aam 0x9
  402191:	test   ah,al
  402193:	cmp    esi,esi
  402195:	jnp    0x4021d4
  402197:	sbb    dl,BYTE PTR [esi]
  402199:	sbb    DWORD PTR [edx],0xfffffff2
  40219c:	inc    ebx
  40219d:	(bad)  
  40219e:	xchg   ebp,eax
  40219f:	cmp    DWORD PTR [ebx+edi*2+0x6e4d8ef8],eax
  4021a6:	lea    ebx,[edx-0x49]
  4021a9:	les    esi,FWORD PTR ds:0x76a1f60c
  4021af:	hlt    
  4021b0:	cmp    edx,edx
  4021b2:	xchg   esp,eax
  4021b3:	xor    ch,al
  4021b5:	cmp    eax,0xd63bcf6e
  4021ba:	fwait
  4021bb:	adc    dh,BYTE PTR [ebx+0x7131f483]
  4021c1:	sbb    BYTE PTR [edi+0x20],0xdf
  4021c5:	jle    0x40219a
  4021c7:	inc    edi
  4021c8:	and    DWORD PTR [ecx-0xdca47d1],edx
  4021ce:	mov    ebx,0x770d1a4c
  4021d3:	sbb    esp,esi
  4021d5:	add    cl,BYTE PTR [ebx+0x7b7e70e4]
  4021db:	aas    
  4021dc:	(bad)  
  4021dd:	xchg   ecx,eax
  4021de:	xchg   eax,eax
  4021e0:	outs   dx,DWORD PTR ds:[esi]
  4021e1:	les    eax,FWORD PTR [edi-0x2ab819c2]
  4021e7:	sbb    dh,BYTE PTR [edx+0x10]
  4021ea:	mov    dl,0xae
  4021ec:	add    esi,DWORD PTR [ecx-0x4f]
  4021ef:	adc    al,0x5d
  4021f1:	jp     0x40224b
  4021f3:	cwde   
  4021f4:	test   DWORD PTR [ebx+0x3f7d9c37],eax
  4021fa:	push   esi
  4021fb:	dec    esp
  4021fc:	push   cs
  4021fd:	mov    ah,0x65
  4021ff:	(bad)  
  402200:	icebp  
  402201:	dec    ebx
  402202:	popf   
  402203:	and    edi,edx
  402205:	mov    bl,0x64
  402207:	fdivr  QWORD PTR [edi+0x40239e6b]
  40220d:	jl     0x402254
  40220f:	fdivr  QWORD PTR [edi+0x47dd1383]
  402215:	jl     0x402206
  402217:	and    ah,BYTE PTR [eax+0x5fdd125a]
  40221d:	xor    eax,eax
  40221f:	scas   al,BYTE PTR es:[edi]
  402220:	aam    0xf2
  402222:	sti    
  402223:	pop    edx
  402224:	sub    ecx,DWORD PTR ds:0xf29c8d07
  40222a:	cli    
  40222b:	jb     0x40221c
  40222d:	or     edx,DWORD PTR [ebx+0x6eb2f957]
  402233:	test   al,0x6
  402235:	adc    DWORD PTR [eax+ebp*4-0x46],0x4a18b547
  40223d:	fcomp  QWORD PTR [edx-0x18]
  402240:	mov    ecx,0x69c5447
  402245:	cs lahf 
  402247:	mov    esp,0x89ec984
  40224c:	lock cmp DWORD PTR [esi-0x77ae1294],ebp
  402253:	mov    bh,0xcb
  402255:	mov    eax,0x2f34487a
  40225a:	sbb    eax,0xf4d0cbb7
  40225f:	inc    DWORD PTR [eax-0x7b]
  402262:	ins    BYTE PTR es:[edi],dx
  402263:	push   ecx
  402264:	js     0x4021e9
  402266:	xchg   esi,eax
  402267:	scas   al,BYTE PTR es:[edi]
  402268:	xchg   DWORD PTR [ecx+esi*8+0x50],esp
  40226c:	js     0x402209
  40226e:	push   0xffffff97
  402270:	pop    es
  402271:	fs xchg edi,eax
  402273:	push   0xb38f1082
  402278:	fidiv  WORD PTR [edx+0x6b0a0dc4]
  40227e:	not    DWORD PTR [edx]
  402280:	not    BYTE PTR [ebx+ecx*1-0x4f6481cb]
  402287:	int    0x81
  402289:	fs push edx
  40228b:	jp     0x40227f
  40228d:	ret    
  40228e:	imul   esp,DWORD PTR [esi-0x5e66c3f3],0x6322e466
  402298:	cdq    
  402299:	sbb    esp,eax
  40229b:	in     al,0xda
  40229d:	cld    
  40229e:	fistp  DWORD PTR [ebx+0x25]
  4022a1:	add    esp,DWORD PTR [edi]
  4022a3:	in     al,dx
  4022a4:	dec    esi
  4022a5:	or     eax,0xf2b11894
  4022aa:	outs   dx,BYTE PTR ds:[esi]
  4022ab:	das    
  4022ac:	ret    
  4022ad:	adc    eax,0xea3d114d
  4022b2:	mov    ch,0x36
  4022b4:	aaa    
  4022b5:	push   ss
  4022b6:	fmul   DWORD PTR [edx+0x8aad22]
  4022bc:	xor    eax,ebx
  4022be:	stc    
  4022bf:	icebp  
  4022c0:	pop    esi
  4022c1:	daa    
  4022c2:	dec    esi
  4022c3:	xchg   BYTE PTR [esi+eiz*1],ch
  4022c6:	sbb    al,0x5
  4022c8:	rcr    BYTE PTR [ebp+0x63],cl
  4022cb:	push   ebx
  4022cc:	cs push ss
  4022ce:	mov    ds:0xeb4246ad,al
  4022d3:	xchg   edi,eax
  4022d4:	sbb    DWORD PTR [ebx-0x29],eax
  4022d7:	fdiv   st(3),st
  4022d9:	inc    ebp
  4022da:	jno    0x40233b
  4022dc:	push   esi
  4022dd:	je     0x402274
  4022df:	mov    al,ds:0x5558ba9
  4022e4:	pop    eax
  4022e5:	je     0x402294
  4022e7:	push   esp
  4022e8:	stos   DWORD PTR es:[edi],eax
  4022e9:	jnp    0x402343
  4022eb:	mov    ds:0xd1e54c80,eax
  4022f0:	xlat   BYTE PTR ds:[ebx]
  4022f1:	sub    BYTE PTR [edx],ch
  4022f3:	xor    DWORD PTR [ebp-0x40b424cd],ebx
  4022f9:	div    DWORD PTR [eax+edx*1-0x3a]
  4022fd:	rol    DWORD PTR [edx],1
  4022ff:	sti    
  402300:	out    0x7e,al
  402302:	sub    eax,edi
  402304:	jae    0x402332
  402306:	pop    edx
  402307:	and    dl,BYTE PTR [eax+0x333f8bb5]
  40230d:	stos   DWORD PTR es:[edi],eax
  40230e:	cli    
  40230f:	cmp    eax,0xd47c5519
  402314:	into   
  402315:	mov    edx,0xd0312b86
  40231a:	stc    
  40231b:	sub    BYTE PTR [edi+ebp*1+0x7d],dl
  40231f:	fst    QWORD PTR [esi-0x47]
  402322:	sub    BYTE PTR [ebx],ah
  402324:	test   eax,0xb7a03b46
  402329:	mov    eax,0x1fd39c1c
  40232e:	jno    0x402309
  402330:	js     0x40239d
  402332:	(bad)  
  402333:	jbe    0x40230c
  402335:	in     al,0x94
  402337:	mov    DWORD PTR [eax],ebp
  402339:	daa    
  40233a:	outs   dx,BYTE PTR ds:[esi]
  40233b:	leave  
  40233c:	(bad)  
  40233d:	cs aam 0x8f
  402340:	jns    0x40239e
  402342:	es sub ecx,DWORD PTR fs:[esp+edx*1+0x3673d49c]
  40234b:	in     eax,dx
  40234c:	outs   dx,DWORD PTR ds:[esi]
  40234d:	mov    al,0xec
  40234f:	popf   
  402350:	mov    ch,bl
  402352:	and    bl,BYTE PTR [edi]
  402354:	jl     0x402378
  402356:	loopne 0x402338
  402358:	out    0x7e,eax
  40235a:	cmp    bl,BYTE PTR [edi]
  40235c:	sbb    BYTE PTR [ecx-0x2febaead],al
  402362:	pop    ss
  402363:	scas   eax,DWORD PTR es:[edi]
  402364:	jmp    0x4023a1
  402366:	jmp    0x40230b
  402368:	adc    ebx,DWORD PTR [edx]
  40236a:	push   edi
  40236b:	jmp    0x187ac168
  402370:	push   edi
  402371:	in     eax,dx
  402372:	xchg   edi,eax
  402373:	jae    0x402316
  402375:	push   es
  402376:	adc    cl,dh
  402378:	call   DWORD PTR [ecx]
  40237a:	repnz push cs
  40237c:	add    BYTE PTR [ebp+0x50],bh
  40237f:	sbb    eax,0x64124661
  402384:	mov    ebx,edx
  402386:	repnz fwait
  402388:	je     0x402317
  40238a:	xor    al,0x66
  40238c:	mov    esi,DWORD PTR [edx+0x1]
  40238f:	nop
  402390:	fisttp WORD PTR [ebp-0x37e08795]
  402396:	mov    bl,0x12
  402398:	mov    ecx,0x9ceca28c
  40239d:	cmps   DWORD PTR ds:[esi],DWORD PTR es:[edi]
  40239e:	jmp    0x4023f7
  4023a0:	xchg   DWORD PTR [edx+ebx*1-0x18],esi
  4023a4:	mov    ah,0x16
  4023a6:	push   0x9ae94bd8
  4023ab:	lods   al,BYTE PTR ds:[esi]
  4023ac:	je     0x402339
  4023ae:	imul   ebx,DWORD PTR [ecx-0x43673821],0xb92abd58
  4023b8:	mov    WORD PTR [esi-0x15746329],ss
  4023be:	out    dx,eax
  4023bf:	xchg   DWORD PTR [esi+0x15],esi
  4023c2:	adc    eax,DWORD PTR [ecx]
  4023c4:	dec    BYTE PTR [esi]
  4023c6:	or     esp,DWORD PTR [eax-0x3b]
  4023c9:	push   ecx
  4023ca:	pop    edi
  4023cb:	or     al,0xa7
  4023cd:	scas   al,BYTE PTR es:[edi]
  4023ce:	mov    ds:0x8dc5cb5b,eax
  4023d3:	or     BYTE PTR [ebp-0x39921759],bl
  4023d9:	lods   al,BYTE PTR ds:[esi]
  4023da:	sbb    eax,ebp
  4023dc:	cmp    eax,0xca8da9d8
  4023e1:	jnp    0x40243b
  4023e3:	enter  0x935,0x6a
  4023e7:	lods   al,BYTE PTR ds:[esi]
  4023e8:	pop    ss
  4023e9:	popa   
  4023ea:	cwde   
  4023eb:	mov    ebx,0xaade0d51
  4023f0:	push   ss
  4023f1:	pop    ecx
  4023f2:	fwait
  4023f3:	lds    ebx,FWORD PTR [ebx-0x5]
  4023f6:	mov    bh,0x39
  4023f8:	cli    
  4023f9:	or     al,0xce
  4023fb:	mov    dl,BYTE PTR [edx]
  4023fd:	jle    0x402423
  4023ff:	mov    BYTE PTR [ecx-0x14],0x1e
  402403:	movs   BYTE PTR es:[edi],BYTE PTR ds:[esi]
  402404:	lds    ebp,FWORD PTR [ecx-0x1d]
  402407:	mov    cl,0x46
  402409:	out    dx,al
  40240a:	outs   dx,DWORD PTR ds:[esi]
  40240b:	mov    ds:0xb39a7c09,al
  402410:	fisubr WORD PTR [edx-0x1fdeb398]
  402416:	(bad)  
  402417:	xlat   BYTE PTR ds:[ebx]
  402418:	pop    edi
  402419:	out    0x3e,eax
  40241b:	sub    BYTE PTR [eax-0x4720d1e8],ah
  402421:	fidivr DWORD PTR [eax+0x68]
  402424:	shr    bl,cl
  402426:	xor    eax,0x7d0dac25
  40242b:	inc    ebx
  40242c:	dec    BYTE PTR [edx+0x30]
  40242f:	ins    DWORD PTR es:[edi],dx
  402430:	lds    ebx,FWORD PTR [edi-0x2f]
  402433:	call   0xdbf51c7e
  402438:	lds    ebp,FWORD PTR [eax+0x11]
  40243b:	jge    0x402476
  40243d:	push   0x98666b46
  402442:	mov    esp,0x8bf4f694
  402447:	fisttp DWORD PTR [ebx+ecx*8+0x58b7ad7b]
  40244e:	xchg   edi,eax
  40244f:	scas   eax,DWORD PTR es:[edi]
  402450:	dec    eax
  402451:	cmps   DWORD PTR ds:[esi],DWORD PTR es:[edi]
  402452:	imul   edx,DWORD PTR [eax-0x49],0x58
  402456:	xchg   edi,eax
  402457:	pop    ss
  402458:	dec    ecx
  402459:	cmps   DWORD PTR ds:[esi],DWORD PTR es:[edi]
  40245a:	imul   ebp,eax,0x79
  40245d:	mov    edi,0xfaed0dca
  402462:	test   DWORD PTR [ecx+edi*2-0x4e],ecx
  402466:	jecxz  0x40244e
  402468:	push   esi
  402469:	ret    0x9a27
  40246c:	xchg   edi,eax
  40246d:	inc    eax
  40246e:	jmp    0x4024d5
  402470:	push   0xf62804aa
  402475:	push   ebx
  402476:	adc    bh,0x7f
  402479:	popf   
  40247a:	or     ebx,DWORD PTR [edi-0x4e4e3746]
  402480:	mov    al,ah
  402482:	test   DWORD PTR [ebx+ebx*8-0x18],ebp
  402486:	jecxz  0x40244e
  402488:	hlt    
  402489:	mov    edi,?
  40248b:	cld    
  40248c:	pop    esp
  40248d:	cmps   BYTE PTR ds:[esi],BYTE PTR es:[edi]
  40248e:	int3   
  40248f:	inc    esp
  402490:	into   
  402491:	sbb    ebp,DWORD PTR [esi+0x3fe6a5bf]
  402497:	cmp    BYTE PTR [esi+0x5489c6d9],cl
  40249d:	and    edx,DWORD PTR [ebp-0x2aa5c8c7]
  4024a3:	xor    ch,cl
  4024a5:	or     eax,0xf232df2d
  4024aa:	sub    al,0x8b
  4024ac:	int    0xc
  4024ae:	sub    eax,DWORD PTR [ebp+0x6758e3bd]
  4024b4:	inc    edi
  4024b5:	sbb    eax,0xdf4398aa
  4024ba:	shr    BYTE PTR [ebx-0x43],0x20
  4024be:	inc    edx
  4024bf:	jmp    0x402456
  4024c1:	ficom  WORD PTR ds:0x5521d435
  4024c7:	dec    ebx
  4024c8:	sub    al,0xde
  4024ca:	lods   eax,DWORD PTR ds:[esi]
  4024cb:	push   ds
  4024cc:	xlat   BYTE PTR ds:[ebx]
  4024cd:	mov    edx,DWORD PTR [ebp+0x4b]
  4024d0:	sub    bl,ah
  4024d2:	lods   eax,DWORD PTR ds:[esi]
  4024d3:	mov    ah,0xd5
  4024d5:	mov    ds:0x80804aac,eax
  4024da:	xlat   BYTE PTR ds:[ebx]
  4024db:	jns    0x402461
  4024dd:	sub    BYTE PTR [ebx],0x86
  4024e0:	adc    BYTE PTR ds:[edi-0x2e],ah
  4024e4:	rol    al,0x96
  4024e7:	add    ah,dl
  4024e9:	mov    al,ds:0xac2239f6
  4024ee:	pop    ecx
  4024ef:	jle    0x40247e
  4024f1:	and    BYTE PTR [esi-0x6399f443],al
  4024f7:	into   
  4024f8:	cmp    al,0xfc
  4024fa:	inc    edi
  4024fb:	movs   BYTE PTR es:[edi],BYTE PTR ds:[esi]
  4024fc:	pushf  
  4024fd:	pop    ds
  4024fe:	fwait
  4024ff:	sbb    BYTE PTR [edx+0x4d],al
  402502:	add    dl,BYTE PTR [esi-0x723f78a6]
  402508:	out    dx,al
  402509:	adc    al,0x1a
  40250b:	loopne 0x4024cb
  40250d:	add    ah,dh
  40250f:	jmp    0x82a2a7ff
  402514:	scas   al,BYTE PTR es:[edi]
  402515:	cmps   BYTE PTR ds:[esi],BYTE PTR es:[edi]
  402516:	test   al,0x0
  402518:	pop    ebp
  402519:	add    BYTE PTR [ebx],dl
  40251b:	out    0xb9,al
  40251d:	add    BYTE PTR [edi],ch
  40251f:	ss inc edi
  402521:	mov    cl,BYTE PTR [esi+0x13d9b12]
  402527:	lods   eax,DWORD PTR ds:[esi]
  402528:	shr    eax,0x3
  40252b:	out    0x7d,al
  40252d:	into   
  40252e:	call   FWORD PTR [ecx]
  402530:	xor    BYTE PTR [ecx],0x3
  402533:	out    0x7d,al
  402535:	into   
  402536:	call   FWORD PTR [ecx]
  402538:	xor    BYTE PTR [ecx],0x3
  40253b:	out    0x7d,al
  40253d:	into   
  40253e:	call   FWORD PTR [ecx]
  402540:	xor    BYTE PTR [ecx],0x3
  402543:	out    0x7d,al
  402545:	into   
  402546:	call   FWORD PTR [ecx]
  402548:	xor    BYTE PTR [ecx],0x71
  40254b:	jbe    0x4025cb
  40254d:	into   
  40254e:	xchg   ecx,eax
  40254f:	test   eax,0x5a713186
  402554:	jns    0x402524
  402556:	sbb    DWORD PTR [esi+0x72],edi
  402559:	outs   dx,DWORD PTR ds:[esi]
  40255a:	add    DWORD PTR [edi],ebp
  40255c:	ja     0x40259a
  40255e:	inc    ebp
  40255f:	sbb    BYTE PTR [edx-0x23227d62],dl
  402565:	popf   
  402566:	mov    ecx,0xc70222f3
  40256b:	sar    DWORD PTR ds:0x3fdcd2b2,cl
  402571:	cwde   
  402572:	push   0xfffffff6
  402574:	bsf    eax,ecx
  402577:	.byte 0x2b
