
4ec0cb19de1b71b2ff03ba4a118bb32465065bf17b04ca513a078eca778899e2.exe:     file format pei-i386


Disassembly of section .text:

00401000 <.text>:
  401000:	mov    edi,edi
  401002:	push   ebp
  401003:	mov    ebp,esp
  401005:	sub    esp,0x5c
  401008:	push   eax
  401009:	push   edx
  40100a:	push   DWORD PTR [eax+0x50]
  40100d:	push   DWORD PTR [eax+0x138]
  401013:	push   ebx
  401014:	call   0x401604
  401019:	add    esp,0x10
  40101c:	pop    eax
  40101d:	push   eax
  40101e:	mov    eax,0x0
  401023:	push   eax
  401024:	mov    eax,ds:0x404000
  401029:	call   eax
  40102b:	pop    eax
  40102c:	push   eax
  40102d:	mov    edi,0x0
  401032:	push   edi
  401033:	mov    eax,ds:0x40400c
  401038:	call   eax
  40103a:	pop    eax
  40103b:	sub    esp,0xffffffa4
  40103e:	mov    ebp,DWORD PTR [esp]
  401041:	add    esp,0x4
  401044:	ret    
	...
  4010e5:	add    BYTE PTR [eax],al
  4010e7:	add    BYTE PTR [ebx-0x1374aa01],cl
  4010ed:	sub    esp,0x28
  4010f0:	push   eax
  4010f1:	push   DWORD PTR [eax+0x354]
  4010f7:	push   DWORD PTR [eax+0x3e8]
  4010fd:	push   edi
  4010fe:	push   DWORD PTR [eax+0x3c0]
  401104:	call   0x401c78
  401109:	add    esp,0x10
  40110c:	pop    eax
  40110d:	push   eax
  40110e:	push   0x0
  401110:	mov    eax,ds:0x404000
  401115:	call   eax
  401117:	pop    eax
  401118:	push   eax
  401119:	push   0x0
  40111b:	mov    eax,ds:0x404068
  401120:	call   eax
  401122:	pop    eax
  401123:	sub    esp,0xffffffd8
  401126:	mov    ebp,DWORD PTR [esp]
  401129:	add    esp,0x4
  40112c:	ret    
  40112d:	add    BYTE PTR [eax],al
  40112f:	add    BYTE PTR [ebx-0x1374aa01],cl
  401135:	sub    esp,0x28
  401138:	push   eax
  401139:	mov    eax,ds:0x404028
  40113e:	call   eax
  401140:	pop    eax
  401141:	push   eax
  401142:	push   ecx
  401143:	push   ebx
  401144:	call   0x4024d4
  401149:	add    esp,0x8
  40114c:	pop    eax
  40114d:	push   eax
  40114e:	mov    eax,ds:0x404028
  401153:	call   eax
  401155:	pop    eax
  401156:	sub    esp,0xffffffd8
  401159:	mov    ebp,DWORD PTR [esp]
  40115c:	add    esp,0x4
  40115f:	ret    
  401160:	popa   
  401161:	ret    
  401162:	add    BYTE PTR [eax],al
  401164:	mov    edi,edi
  401166:	push   ebp
  401167:	mov    ebp,esp
  401169:	sub    esp,0x40
  40116c:	push   eax
  40116d:	mov    eax,ds:0x404030
  401172:	call   eax
  401174:	pop    eax
  401175:	push   eax
  401176:	push   DWORD PTR [eax+0xec]
  40117c:	push   esi
  40117d:	push   DWORD PTR [eax+0xb0]
  401183:	call   0x401570
  401188:	add    esp,0xc
  40118b:	pop    eax
  40118c:	mov    esi,0x40404c
  401191:	mov    esi,DWORD PTR [esi]
  401193:	push   esi
  401194:	push   DWORD PTR [eax+0xf8]
  40119a:	pop    ebx
  40119b:	call   ebx
  40119d:	sub    esp,0xffffffc0
  4011a0:	mov    ebp,DWORD PTR [esp]
  4011a3:	add    esp,0x4
  4011a6:	ret    
	...
  401247:	add    BYTE PTR [ebx-0x1374aa01],cl
  40124d:	sub    esp,0x58
  401250:	push   eax
  401251:	push   0x0
  401253:	mov    eax,ds:0x40400c
  401258:	call   eax
  40125a:	pop    eax
  40125b:	push   eax
  40125c:	push   edi
  40125d:	push   esi
  40125e:	push   DWORD PTR [eax+0x154]
  401264:	call   0x401a40
  401269:	add    esp,0xc
  40126c:	pop    eax
  40126d:	push   eax
  40126e:	mov    esi,0x0
  401273:	push   esi
  401274:	mov    eax,ds:0x404000
  401279:	call   eax
  40127b:	pop    eax
  40127c:	sub    esp,0xffffffa8
  40127f:	mov    ebp,DWORD PTR [esp]
  401282:	add    esp,0x4
  401285:	ret    
	...
  4012d6:	add    BYTE PTR [eax],al
  4012d8:	mov    edi,edi
  4012da:	push   ebp
  4012db:	mov    ebp,esp
  4012dd:	sub    esp,0x28
  4012e0:	push   eax
  4012e1:	mov    esi,0x0
  4012e6:	push   esi
  4012e7:	mov    eax,ds:0x404058
  4012ec:	call   eax
  4012ee:	pop    eax
  4012ef:	push   eax
  4012f0:	push   esi
  4012f1:	push   DWORD PTR [eax+0x1f8]
  4012f7:	push   DWORD PTR [eax+0x2b4]
  4012fd:	call   0x4017b4
  401302:	add    esp,0xc
  401305:	pop    eax
  401306:	push   eax
  401307:	mov    eax,0x0
  40130c:	push   eax
  40130d:	mov    eax,ds:0x404048
  401312:	call   eax
  401314:	pop    eax
  401315:	sub    esp,0xffffffd8
  401318:	mov    ebp,DWORD PTR [esp]
  40131b:	add    esp,0x4
  40131e:	ret    
	...
  4013bf:	add    BYTE PTR [ebx-0x1374aa01],cl
  4013c5:	sub    esp,0x1c
  4013c8:	push   eax
  4013c9:	push   0x0
  4013cb:	mov    eax,ds:0x404058
  4013d0:	call   eax
  4013d2:	pop    eax
  4013d3:	push   eax
  4013d4:	push   DWORD PTR [eax+0x318]
  4013da:	push   DWORD PTR [eax+0xd8]
  4013e0:	call   0x40282c
  4013e5:	add    esp,0x8
  4013e8:	pop    eax
  4013e9:	push   eax
  4013ea:	push   0x0
  4013ec:	mov    eax,ds:0x404048
  4013f1:	call   eax
  4013f3:	pop    eax
  4013f4:	sub    esp,0xffffffe4
  4013f7:	mov    ebp,DWORD PTR [esp]
  4013fa:	add    esp,0x4
  4013fd:	ret    
  4013fe:	add    BYTE PTR [eax],al
  401400:	mov    edi,edi
  401402:	push   ebp
  401403:	mov    ebp,esp
  401405:	sub    esp,0x3c
  401408:	push   eax
  401409:	push   DWORD PTR [eax+0x2b8]
  40140f:	push   DWORD PTR [eax+0x1c8]
  401415:	push   esi
  401416:	push   ecx
  401417:	call   0x401bb0
  40141c:	add    esp,0x10
  40141f:	pop    eax
  401420:	push   eax
  401421:	mov    edx,0x0
  401426:	push   edx
  401427:	mov    eax,ds:0x404000
  40142c:	call   eax
  40142e:	pop    eax
  40142f:	push   eax
  401430:	mov    eax,ds:0x404010
  401435:	call   eax
  401437:	pop    eax
  401438:	sub    esp,0xffffffc4
  40143b:	mov    ebp,DWORD PTR [esp]
  40143e:	add    esp,0x4
  401441:	ret    
	...
  401492:	add    BYTE PTR [eax],al
  401494:	mov    edi,edi
  401496:	push   ebp
  401497:	mov    ebp,esp
  401499:	sub    esp,0x3c
  40149c:	push   eax
  40149d:	push   ecx
  40149e:	push   DWORD PTR [eax+0x1c8]
  4014a4:	push   ebx
  4014a5:	push   DWORD PTR [eax+0x2d0]
  4014ab:	call   0x401a80
  4014b0:	add    esp,0x10
  4014b3:	pop    eax
  4014b4:	push   eax
  4014b5:	push   0x0
  4014b7:	mov    eax,ds:0x404038
  4014bc:	call   eax
  4014be:	pop    eax
  4014bf:	push   eax
  4014c0:	mov    ecx,0x0
  4014c5:	push   ecx
  4014c6:	mov    eax,ds:0x404014
  4014cb:	call   eax
  4014cd:	pop    eax
  4014ce:	sub    esp,0xffffffc4
  4014d1:	mov    ebp,DWORD PTR [esp]
  4014d4:	add    esp,0x4
  4014d7:	ret    
  4014d8:	mov    edi,edi
  4014da:	push   ebp
  4014db:	mov    ebp,esp
  4014dd:	sub    esp,0x50
  4014e0:	push   eax
  4014e1:	push   DWORD PTR [eax+0x33c]
  4014e7:	push   DWORD PTR [eax+0x38c]
  4014ed:	push   DWORD PTR [eax+0x110]
  4014f3:	call   0x40274c
  4014f8:	add    esp,0xc
  4014fb:	pop    eax
  4014fc:	push   eax
  4014fd:	push   0x0
  4014ff:	mov    eax,ds:0x404068
  401504:	call   eax
  401506:	pop    eax
  401507:	push   eax
  401508:	mov    edi,0x0
  40150d:	push   edi
  40150e:	mov    eax,ds:0x404058
  401513:	call   eax
  401515:	pop    eax
  401516:	sub    esp,0xffffffb0
  401519:	mov    ebp,DWORD PTR [esp]
  40151c:	add    esp,0x4
  40151f:	ret    
	...
  401570:	mov    edi,edi
  401572:	push   ebp
  401573:	mov    ebp,esp
  401575:	sub    esp,0x30
  401578:	push   eax
  401579:	mov    ecx,0x0
  40157e:	push   ecx
  40157f:	mov    eax,ds:0x40400c
  401584:	call   eax
  401586:	pop    eax
  401587:	push   eax
  401588:	push   DWORD PTR [eax+0x2bc]
  40158e:	push   ebx
  40158f:	push   ebx
  401590:	call   0x401400
  401595:	add    esp,0xc
  401598:	pop    eax
  401599:	push   eax
  40159a:	mov    edx,0x0
  40159f:	push   edx
  4015a0:	mov    eax,ds:0x404000
  4015a5:	call   eax
  4015a7:	pop    eax
  4015a8:	sub    esp,0xffffffd0
  4015ab:	mov    ebp,DWORD PTR [esp]
  4015ae:	add    esp,0x4
  4015b1:	ret    
	...
  401602:	add    BYTE PTR [eax],al
  401604:	mov    edi,edi
  401606:	push   ebp
  401607:	mov    ebp,esp
  401609:	sub    esp,0x2c
  40160c:	push   eax
  40160d:	push   ebx
  40160e:	push   DWORD PTR [eax+0x288]
  401614:	push   DWORD PTR [eax+0x2e8]
  40161a:	call   0x402518
  40161f:	add    esp,0xc
  401622:	pop    eax
  401623:	push   eax
  401624:	mov    eax,ds:0x404030
  401629:	call   eax
  40162b:	pop    eax
  40162c:	push   eax
  40162d:	mov    edx,0x0
  401632:	push   edx
  401633:	mov    eax,ds:0x404058
  401638:	call   eax
  40163a:	pop    eax
  40163b:	sub    esp,0xffffffd4
  40163e:	mov    ebp,DWORD PTR [esp]
  401641:	add    esp,0x4
  401644:	ret    
  401645:	add    BYTE PTR [eax],al
  401647:	add    BYTE PTR [ebx-0x1374aa01],cl
  40164d:	sub    esp,0x58
  401650:	push   eax
  401651:	push   DWORD PTR [eax+0x1c0]
  401657:	push   esi
  401658:	push   DWORD PTR [eax+0xf8]
  40165e:	call   0x401000
  401663:	add    esp,0xc
  401666:	pop    eax
  401667:	push   eax
  401668:	mov    ebx,0x0
  40166d:	push   ebx
  40166e:	mov    eax,ds:0x40400c
  401673:	call   eax
  401675:	pop    eax
  401676:	push   eax
  401677:	mov    edi,0x0
  40167c:	push   edi
  40167d:	mov    eax,ds:0x404038
  401682:	call   eax
  401684:	pop    eax
  401685:	sub    esp,0xffffffa8
  401688:	mov    ebp,DWORD PTR [esp]
  40168b:	add    esp,0x4
  40168e:	ret    
  40168f:	add    BYTE PTR [ebx-0x1374aa01],cl
  401695:	sub    esp,0x58
  401698:	push   eax
  401699:	lea    edi,[eax-0x100]
  40169f:	push   edi
  4016a0:	mov    eax,ds:0x40404c
  4016a5:	call   eax
  4016a7:	test   eax,eax
  4016a9:	jne    0x401699
  4016ab:	pop    eax
  4016ac:	push   eax
  4016ad:	push   edi
  4016ae:	push   esi
  4016af:	push   DWORD PTR [eax+0x2e0]
  4016b5:	call   0x401890
  4016ba:	add    esp,0xc
  4016bd:	pop    eax
  4016be:	push   eax
  4016bf:	push   0x0
  4016c1:	mov    eax,ds:0x404048
  4016c6:	call   eax
  4016c8:	pop    eax
  4016c9:	sub    esp,0xffffffa8
  4016cc:	mov    ebp,DWORD PTR [esp]
  4016cf:	add    esp,0x4
  4016d2:	ret    
	...
  401723:	add    BYTE PTR [ebx-0x1374aa01],cl
  401729:	sub    esp,0x3c
  40172c:	push   eax
  40172d:	push   DWORD PTR [eax+0x1b0]
  401733:	push   ebx
  401734:	push   ebx
  401735:	push   edx
  401736:	call   0x4021dc
  40173b:	add    esp,0x10
  40173e:	pop    eax
  40173f:	push   eax
  401740:	mov    eax,ds:0x404028
  401745:	call   eax
  401747:	pop    eax
  401748:	push   eax
  401749:	mov    edx,0x0
  40174e:	push   edx
  40174f:	mov    eax,ds:0x404000
  401754:	call   eax
  401756:	pop    eax
  401757:	sub    esp,0xffffffc4
  40175a:	mov    ebp,DWORD PTR [esp]
  40175d:	add    esp,0x4
  401760:	ret    
	...
  4017b1:	add    BYTE PTR [eax],al
  4017b3:	add    BYTE PTR [ebx-0x1374aa01],cl
  4017b9:	sub    esp,0x4c
  4017bc:	push   eax
  4017bd:	lea    edi,[eax-0x100]
  4017c3:	push   edi
  4017c4:	mov    eax,ds:0x40404c
  4017c9:	call   eax
  4017cb:	test   eax,eax
  4017cd:	jne    0x4017bd
  4017cf:	pop    eax
  4017d0:	push   eax
  4017d1:	push   edx
  4017d2:	push   edi
  4017d3:	push   ecx
  4017d4:	push   DWORD PTR [eax+0x70]
  4017d7:	call   0x402310
  4017dc:	add    esp,0x10
  4017df:	pop    eax
  4017e0:	push   eax
  4017e1:	push   0x0
  4017e3:	mov    eax,ds:0x404058
  4017e8:	call   eax
  4017ea:	pop    eax
  4017eb:	sub    esp,0xffffffb4
  4017ee:	mov    ebp,DWORD PTR [esp]
  4017f1:	add    esp,0x4
  4017f4:	ret    
  4017f5:	add    BYTE PTR [eax],al
  4017f7:	add    BYTE PTR [ebx-0x1374aa01],cl
  4017fd:	sub    esp,0x24
  401800:	push   eax
  401801:	lea    edi,[eax-0x100]
  401807:	push   edi
  401808:	mov    eax,ds:0x40404c
  40180d:	call   eax
  40180f:	test   eax,eax
  401811:	jne    0x401801
  401813:	pop    eax
  401814:	push   eax
  401815:	push   edi
  401816:	push   ecx
  401817:	push   DWORD PTR [eax+0x214]
  40181d:	push   edx
  40181e:	call   0x401248
  401823:	add    esp,0x10
  401826:	pop    eax
  401827:	push   eax
  401828:	mov    eax,0x0
  40182d:	push   eax
  40182e:	mov    eax,ds:0x404058
  401833:	call   eax
  401835:	pop    eax
  401836:	sub    esp,0xffffffdc
  401839:	mov    ebp,DWORD PTR [esp]
  40183c:	add    esp,0x4
  40183f:	ret    
  401840:	pusha  
  401841:	xor    edx,edx
  401843:	push   edx
  401844:	call   DWORD PTR ds:0x404058
  40184a:	mov    eax,0x404090
  40184f:	sub    eax,0x1
  401852:	push   0x0
  401854:	call   DWORD PTR [eax+0x1]
  401857:	xor    edx,edx
  401859:	add    edx,0x45e200
  40185f:	dec    dh
  401861:	push   edx
  401862:	lea    eax,[edx+0x10]
  401865:	add    BYTE PTR [eax],0x4
  401868:	push   edx
  401869:	call   DWORD PTR ds:0x404024
  40186f:	mov    ecx,eax
  401871:	mov    cl,0x3c
  401873:	mov    ecx,DWORD PTR [ecx]
  401875:	mov    ecx,DWORD PTR [eax+ecx*1+0x1c]
  401879:	ror    ecx,0xc
  40187c:	mov    eax,ecx
  40187e:	sub    al,0x10
  401880:	pop    eax
  401881:	jb     0x401160
  401887:	ja     0x401164
  40188d:	ret    
  40188e:	add    BYTE PTR [eax],al
  401890:	mov    edi,edi
  401892:	push   ebp
  401893:	mov    ebp,esp
  401895:	sub    esp,0x24
  401898:	push   eax
  401899:	push   DWORD PTR [eax+0x2d8]
  40189f:	push   ebx
  4018a0:	push   ebx
  4018a1:	call   0x402714
  4018a6:	add    esp,0xc
  4018a9:	pop    eax
  4018aa:	push   eax
  4018ab:	push   0x0
  4018ad:	mov    eax,ds:0x40400c
  4018b2:	call   eax
  4018b4:	pop    eax
  4018b5:	push   eax
  4018b6:	mov    edx,0x0
  4018bb:	push   edx
  4018bc:	mov    eax,ds:0x404038
  4018c1:	call   eax
  4018c3:	pop    eax
  4018c4:	sub    esp,0xffffffdc
  4018c7:	mov    ebp,DWORD PTR [esp]
  4018ca:	add    esp,0x4
  4018cd:	ret    
	...
  40196e:	add    BYTE PTR [eax],al
  401970:	mov    edi,edi
  401972:	push   ebp
  401973:	mov    ebp,esp
  401975:	sub    esp,0x24
  401978:	push   eax
  401979:	push   ecx
  40197a:	push   DWORD PTR [eax+0x2c4]
  401980:	call   0x401d9c
  401985:	add    esp,0x8
  401988:	pop    eax
  401989:	push   eax
  40198a:	mov    ecx,0x0
  40198f:	push   ecx
  401990:	mov    eax,ds:0x404038
  401995:	call   eax
  401997:	pop    eax
  401998:	push   eax
  401999:	mov    edi,0x0
  40199e:	push   edi
  40199f:	mov    eax,ds:0x404040
  4019a4:	call   eax
  4019a6:	pop    eax
  4019a7:	sub    esp,0xffffffdc
  4019aa:	mov    ebp,DWORD PTR [esp]
  4019ad:	add    esp,0x4
  4019b0:	ret    
	...
  401a01:	add    BYTE PTR [eax],al
  401a03:	add    BYTE PTR [ebx-0x1374aa01],cl
  401a09:	sub    esp,0x48
  401a0c:	push   eax
  401a0d:	push   DWORD PTR [eax+0x168]
  401a13:	push   edi
  401a14:	push   esi
  401a15:	push   esi
  401a16:	call   0x4013c0
  401a1b:	add    esp,0x10
  401a1e:	pop    eax
  401a1f:	push   eax
  401a20:	push   0x0
  401a22:	mov    eax,ds:0x404038
  401a27:	call   eax
  401a29:	pop    eax
  401a2a:	push   eax
  401a2b:	push   0x0
  401a2d:	mov    eax,ds:0x404064
  401a32:	call   eax
  401a34:	pop    eax
  401a35:	sub    esp,0xffffffb8
  401a38:	mov    ebp,DWORD PTR [esp]
  401a3b:	add    esp,0x4
  401a3e:	ret    
  401a3f:	add    BYTE PTR [ebx-0x1374aa01],cl
  401a45:	sub    esp,0x58
  401a48:	push   eax
  401a49:	push   DWORD PTR [eax+0x40]
  401a4c:	push   ecx
  401a4d:	push   edx
  401a4e:	push   edi
  401a4f:	call   0x402954
  401a54:	add    esp,0x10
  401a57:	pop    eax
  401a58:	push   eax
  401a59:	mov    esi,0x0
  401a5e:	push   esi
  401a5f:	mov    eax,ds:0x404038
  401a64:	call   eax
  401a66:	pop    eax
  401a67:	push   eax
  401a68:	mov    ebx,0x0
  401a6d:	push   ebx
  401a6e:	mov    eax,ds:0x404034
  401a73:	call   eax
  401a75:	pop    eax
  401a76:	sub    esp,0xffffffa8
  401a79:	mov    ebp,DWORD PTR [esp]
  401a7c:	add    esp,0x4
  401a7f:	ret    
  401a80:	mov    edi,edi
  401a82:	push   ebp
  401a83:	mov    ebp,esp
  401a85:	sub    esp,0x58
  401a88:	push   eax
  401a89:	push   ebx
  401a8a:	push   DWORD PTR [eax+0x314]
  401a90:	push   DWORD PTR [eax+0x27c]
  401a96:	push   DWORD PTR [eax+0x278]
  401a9c:	call   0x401724
  401aa1:	add    esp,0x10
  401aa4:	pop    eax
  401aa5:	push   eax
  401aa6:	mov    eax,ds:0x404030
  401aab:	call   eax
  401aad:	pop    eax
  401aae:	push   eax
  401aaf:	mov    eax,0x0
  401ab4:	push   eax
  401ab5:	mov    eax,ds:0x404068
  401aba:	call   eax
  401abc:	pop    eax
  401abd:	sub    esp,0xffffffa8
  401ac0:	mov    ebp,DWORD PTR [esp]
  401ac3:	add    esp,0x4
  401ac6:	ret    
	...
  401b67:	add    BYTE PTR [ebx-0x1374aa01],cl
  401b6d:	sub    esp,0x48
  401b70:	push   eax
  401b71:	push   0x0
  401b73:	mov    eax,ds:0x404048
  401b78:	call   eax
  401b7a:	pop    eax
  401b7b:	push   eax
  401b7c:	push   DWORD PTR [eax+0x2ec]
  401b82:	push   DWORD PTR [eax+0x1c0]
  401b88:	push   DWORD PTR [eax+0xe4]
  401b8e:	call   0x402910
  401b93:	add    esp,0xc
  401b96:	pop    eax
  401b97:	push   eax
  401b98:	mov    esi,0x0
  401b9d:	push   esi
  401b9e:	mov    eax,ds:0x404068
  401ba3:	call   eax
  401ba5:	pop    eax
  401ba6:	sub    esp,0xffffffb8
  401ba9:	mov    ebp,DWORD PTR [esp]
  401bac:	add    esp,0x4
  401baf:	ret    
  401bb0:	mov    edi,edi
  401bb2:	push   ebp
  401bb3:	mov    ebp,esp
  401bb5:	sub    esp,0x3c
  401bb8:	push   eax
  401bb9:	push   DWORD PTR [eax+0x1fc]
  401bbf:	push   esi
  401bc0:	push   DWORD PTR [eax+0x1f8]
  401bc6:	push   DWORD PTR [eax+0x2ac]
  401bcc:	call   0x401970
  401bd1:	add    esp,0x10
  401bd4:	pop    eax
  401bd5:	push   eax
  401bd6:	mov    ecx,0x0
  401bdb:	push   ecx
  401bdc:	mov    eax,ds:0x40400c
  401be1:	call   eax
  401be3:	pop    eax
  401be4:	push   eax
  401be5:	push   0x0
  401be7:	mov    eax,ds:0x404034
  401bec:	call   eax
  401bee:	pop    eax
  401bef:	sub    esp,0xffffffc4
  401bf2:	mov    ebp,DWORD PTR [esp]
  401bf5:	add    esp,0x4
  401bf8:	ret    
  401bf9:	add    BYTE PTR [eax],al
  401bfb:	add    BYTE PTR [ebx-0x1374aa01],cl
  401c01:	sub    esp,0x34
  401c04:	push   eax
  401c05:	mov    eax,ds:0x404028
  401c0a:	call   eax
  401c0c:	pop    eax
  401c0d:	push   eax
  401c0e:	push   DWORD PTR [eax+0x2b4]
  401c14:	push   edi
  401c15:	call   0x4021a4
  401c1a:	add    esp,0x8
  401c1d:	pop    eax
  401c1e:	push   eax
  401c1f:	push   0x0
  401c21:	mov    eax,ds:0x40400c
  401c26:	call   eax
  401c28:	pop    eax
  401c29:	sub    esp,0xffffffcc
  401c2c:	mov    ebp,DWORD PTR [esp]
  401c2f:	add    esp,0x4
  401c32:	ret    
  401c33:	add    BYTE PTR [ebx-0x1374aa01],cl
  401c39:	sub    esp,0x58
  401c3c:	push   eax
  401c3d:	push   edx
  401c3e:	push   DWORD PTR [eax+0xb8]
  401c44:	push   ebx
  401c45:	call   0x4010e8
  401c4a:	add    esp,0xc
  401c4d:	pop    eax
  401c4e:	push   eax
  401c4f:	mov    ecx,0x0
  401c54:	push   ecx
  401c55:	mov    eax,ds:0x404064
  401c5a:	call   eax
  401c5c:	pop    eax
  401c5d:	push   eax
  401c5e:	mov    eax,0x0
  401c63:	push   eax
  401c64:	mov    eax,ds:0x404004
  401c69:	call   eax
  401c6b:	pop    eax
  401c6c:	sub    esp,0xffffffa8
  401c6f:	mov    ebp,DWORD PTR [esp]
  401c72:	add    esp,0x4
  401c75:	ret    
  401c76:	add    BYTE PTR [eax],al
  401c78:	mov    edi,edi
  401c7a:	push   ebp
  401c7b:	mov    ebp,esp
  401c7d:	sub    esp,0x38
  401c80:	push   eax
  401c81:	mov    eax,ds:0x404010
  401c86:	call   eax
  401c88:	pop    eax
  401c89:	push   eax
  401c8a:	push   DWORD PTR [eax+0x54]
  401c8d:	push   DWORD PTR [eax+0x29c]
  401c93:	call   0x401ebc
  401c98:	add    esp,0x8
  401c9b:	pop    eax
  401c9c:	push   eax
  401c9d:	lea    edx,[eax-0x100]
  401ca3:	push   edx
  401ca4:	mov    eax,ds:0x40404c
  401ca9:	call   eax
  401cab:	test   eax,eax
  401cad:	jne    0x401c9d
  401caf:	pop    eax
  401cb0:	sub    esp,0xffffffc8
  401cb3:	mov    ebp,DWORD PTR [esp]
  401cb6:	add    esp,0x4
  401cb9:	ret    
  401cba:	add    BYTE PTR [eax],al
  401cbc:	mov    edi,edi
  401cbe:	push   ebp
  401cbf:	mov    ebp,esp
  401cc1:	sub    esp,0x30
  401cc4:	push   eax
  401cc5:	push   DWORD PTR [eax+0x3a8]
  401ccb:	push   DWORD PTR [eax+0x354]
  401cd1:	push   edi
  401cd2:	push   DWORD PTR [eax+0x34]
  401cd5:	call   0x4014d8
  401cda:	add    esp,0x10
  401cdd:	pop    eax
  401cde:	push   eax
  401cdf:	mov    eax,ds:0x404010
  401ce4:	call   eax
  401ce6:	pop    eax
  401ce7:	push   eax
  401ce8:	push   0x0
  401cea:	mov    eax,ds:0x40400c
  401cef:	call   eax
  401cf1:	pop    eax
  401cf2:	sub    esp,0xffffffd0
  401cf5:	mov    ebp,DWORD PTR [esp]
  401cf8:	add    esp,0x4
  401cfb:	ret    
	...
  401d9c:	mov    edi,edi
  401d9e:	push   ebp
  401d9f:	mov    ebp,esp
  401da1:	sub    esp,0x1c
  401da4:	push   eax
  401da5:	push   0x0
  401da7:	mov    eax,ds:0x404038
  401dac:	call   eax
  401dae:	pop    eax
  401daf:	push   eax
  401db0:	push   ecx
  401db1:	push   ecx
  401db2:	call   0x402640
  401db7:	add    esp,0x8
  401dba:	pop    eax
  401dbb:	push   eax
  401dbc:	lea    ebx,[eax-0x100]
  401dc2:	push   ebx
  401dc3:	mov    eax,ds:0x40404c
  401dc8:	call   eax
  401dca:	test   eax,eax
  401dcc:	jne    0x401dbc
  401dce:	pop    eax
  401dcf:	sub    esp,0xffffffe4
  401dd2:	mov    ebp,DWORD PTR [esp]
  401dd5:	add    esp,0x4
  401dd8:	ret    
	...
  401e29:	add    BYTE PTR [eax],al
  401e2b:	add    BYTE PTR [ebx-0x1374aa01],cl
  401e31:	sub    esp,0x24
  401e34:	push   eax
  401e35:	push   DWORD PTR [eax+0x30c]
  401e3b:	push   DWORD PTR [eax+0x130]
  401e41:	call   0x401a04
  401e46:	add    esp,0x8
  401e49:	pop    eax
  401e4a:	push   eax
  401e4b:	push   0x0
  401e4d:	mov    eax,ds:0x404000
  401e52:	call   eax
  401e54:	pop    eax
  401e55:	push   eax
  401e56:	push   0x0
  401e58:	mov    eax,ds:0x404058
  401e5d:	call   eax
  401e5f:	pop    eax
  401e60:	sub    esp,0xffffffdc
  401e63:	mov    ebp,DWORD PTR [esp]
  401e66:	add    esp,0x4
  401e69:	ret    
	...
  401eba:	add    BYTE PTR [eax],al
  401ebc:	mov    edi,edi
  401ebe:	push   ebp
  401ebf:	mov    ebp,esp
  401ec1:	sub    esp,0x4c
  401ec4:	push   eax
  401ec5:	push   DWORD PTR [eax+0x3a0]
  401ecb:	push   DWORD PTR [eax+0x2d8]
  401ed1:	push   DWORD PTR [eax+0x23c]
  401ed7:	call   0x401e2c
  401edc:	add    esp,0xc
  401edf:	pop    eax
  401ee0:	push   eax
  401ee1:	push   0x0
  401ee3:	mov    eax,ds:0x404068
  401ee8:	call   eax
  401eea:	pop    eax
  401eeb:	push   eax
  401eec:	lea    eax,[eax-0x100]
  401ef2:	push   eax
  401ef3:	mov    eax,ds:0x40404c
  401ef8:	call   eax
  401efa:	test   eax,eax
  401efc:	jne    0x401eec
  401efe:	pop    eax
  401eff:	sub    esp,0xffffffb4
  401f02:	mov    ebp,DWORD PTR [esp]
  401f05:	add    esp,0x4
  401f08:	ret    
  401f09:	add    BYTE PTR [eax],al
  401f0b:	add    BYTE PTR [ebx-0x1374aa01],cl
  401f11:	sub    esp,0x30
  401f14:	push   eax
  401f15:	push   0x0
  401f17:	mov    eax,ds:0x404000
  401f1c:	call   eax
  401f1e:	pop    eax
  401f1f:	push   eax
  401f20:	push   DWORD PTR [eax+0x164]
  401f26:	push   edi
  401f27:	push   DWORD PTR [eax+0x144]
  401f2d:	call   0x402558
  401f32:	add    esp,0xc
  401f35:	pop    eax
  401f36:	push   eax
  401f37:	mov    esi,0x0
  401f3c:	push   esi
  401f3d:	mov    eax,ds:0x404048
  401f42:	call   eax
  401f44:	pop    eax
  401f45:	sub    esp,0xffffffd0
  401f48:	mov    ebp,DWORD PTR [esp]
  401f4b:	add    esp,0x4
  401f4e:	ret    
  401f4f:	add    BYTE PTR [ebx-0x1374aa01],cl
  401f55:	sub    esp,0x60
  401f58:	push   eax
  401f59:	mov    eax,ds:0x404010
  401f5e:	call   eax
  401f60:	pop    eax
  401f61:	push   eax
  401f62:	push   ebx
  401f63:	push   DWORD PTR [eax+0x2a0]
  401f69:	call   0x4012d8
  401f6e:	add    esp,0x8
  401f71:	pop    eax
  401f72:	push   eax
  401f73:	push   0x0
  401f75:	mov    eax,ds:0x404038
  401f7a:	call   eax
  401f7c:	pop    eax
  401f7d:	sub    esp,0xffffffa0
  401f80:	mov    ebp,DWORD PTR [esp]
  401f83:	add    esp,0x4
  401f86:	ret    
	...
  402167:	add    BYTE PTR [ebx-0x1374aa01],cl
  40216d:	sub    esp,0x40
  402170:	push   eax
  402171:	mov    eax,0x0
  402176:	push   eax
  402177:	mov    eax,ds:0x404034
  40217c:	call   eax
  40217e:	pop    eax
  40217f:	push   eax
  402180:	push   edi
  402181:	push   DWORD PTR [eax+0x3bc]
  402187:	call   0x4025a4
  40218c:	add    esp,0x8
  40218f:	pop    eax
  402190:	push   eax
  402191:	mov    eax,ds:0x404030
  402196:	call   eax
  402198:	pop    eax
  402199:	sub    esp,0xffffffc0
  40219c:	mov    ebp,DWORD PTR [esp]
  40219f:	add    esp,0x4
  4021a2:	ret    
  4021a3:	add    BYTE PTR [ebx-0x1374aa01],cl
  4021a9:	sub    esp,0x48
  4021ac:	push   eax
  4021ad:	push   esi
  4021ae:	push   esi
  4021af:	call   0x401130
  4021b4:	add    esp,0x8
  4021b7:	pop    eax
  4021b8:	push   eax
  4021b9:	mov    edx,0x0
  4021be:	push   edx
  4021bf:	mov    eax,ds:0x404038
  4021c4:	call   eax
  4021c6:	pop    eax
  4021c7:	push   eax
  4021c8:	mov    eax,ds:0x404030
  4021cd:	call   eax
  4021cf:	pop    eax
  4021d0:	sub    esp,0xffffffb8
  4021d3:	mov    ebp,DWORD PTR [esp]
  4021d6:	add    esp,0x4
  4021d9:	ret    
  4021da:	add    BYTE PTR [eax],al
  4021dc:	mov    edi,edi
  4021de:	push   ebp
  4021df:	mov    ebp,esp
  4021e1:	sub    esp,0x5c
  4021e4:	push   eax
  4021e5:	mov    edx,0x0
  4021ea:	push   edx
  4021eb:	mov    eax,ds:0x404058
  4021f0:	call   eax
  4021f2:	pop    eax
  4021f3:	push   eax
  4021f4:	push   ecx
  4021f5:	push   DWORD PTR [eax+0x324]
  4021fb:	call   0x401690
  402200:	add    esp,0x8
  402203:	pop    eax
  402204:	push   eax
  402205:	mov    eax,0x0
  40220a:	push   eax
  40220b:	mov    eax,ds:0x404064
  402210:	call   eax
  402212:	pop    eax
  402213:	sub    esp,0xffffffa4
  402216:	mov    ebp,DWORD PTR [esp]
  402219:	add    esp,0x4
  40221c:	ret    
	...
  40230d:	add    BYTE PTR [eax],al
  40230f:	add    BYTE PTR [ebx-0x1374aa01],cl
  402315:	sub    esp,0x60
  402318:	push   eax
  402319:	mov    eax,ds:0x404028
  40231e:	call   eax
  402320:	pop    eax
  402321:	push   eax
  402322:	push   DWORD PTR [eax+0x3dc]
  402328:	push   ecx
  402329:	push   DWORD PTR [eax+0x1ec]
  40232f:	push   ebx
  402330:	call   0x4017f8
  402335:	add    esp,0x10
  402338:	pop    eax
  402339:	push   eax
  40233a:	mov    eax,ds:0x404028
  40233f:	call   eax
  402341:	pop    eax
  402342:	sub    esp,0xffffffa0
  402345:	mov    ebp,DWORD PTR [esp]
  402348:	add    esp,0x4
  40234b:	ret    
  40234c:	mov    edi,edi
  40234e:	push   ebp
  40234f:	mov    ebp,esp
  402351:	sub    esp,0x44
  402354:	push   eax
  402355:	lea    edi,[eax-0x100]
  40235b:	push   edi
  40235c:	mov    eax,ds:0x40404c
  402361:	call   eax
  402363:	test   eax,eax
  402365:	jne    0x402355
  402367:	pop    eax
  402368:	push   eax
  402369:	push   edi
  40236a:	push   DWORD PTR [eax+0x124]
  402370:	call   0x401648
  402375:	add    esp,0x8
  402378:	pop    eax
  402379:	push   eax
  40237a:	mov    edx,0x0
  40237f:	push   edx
  402380:	mov    eax,ds:0x404000
  402385:	call   eax
  402387:	pop    eax
  402388:	sub    esp,0xffffffbc
  40238b:	mov    ebp,DWORD PTR [esp]
  40238e:	add    esp,0x4
  402391:	ret    
	...
  4024d2:	add    BYTE PTR [eax],al
  4024d4:	mov    edi,edi
  4024d6:	push   ebp
  4024d7:	mov    ebp,esp
  4024d9:	sub    esp,0x34
  4024dc:	push   eax
  4024dd:	mov    ebx,0x0
  4024e2:	push   ebx
  4024e3:	mov    eax,ds:0x404048
  4024e8:	call   eax
  4024ea:	pop    eax
  4024eb:	push   eax
  4024ec:	push   edi
  4024ed:	push   DWORD PTR [eax+0x298]
  4024f3:	push   ebx
  4024f4:	push   DWORD PTR [eax+0x38]
  4024f7:	call   0x401f50
  4024fc:	add    esp,0x10
  4024ff:	pop    eax
  402500:	push   eax
  402501:	push   0x0
  402503:	mov    eax,ds:0x404064
  402508:	call   eax
  40250a:	pop    eax
  40250b:	sub    esp,0xffffffcc
  40250e:	mov    ebp,DWORD PTR [esp]
  402511:	add    esp,0x4
  402514:	ret    
  402515:	add    BYTE PTR [eax],al
  402517:	add    BYTE PTR [ebx-0x1374aa01],cl
  40251d:	sub    esp,0x4c
  402520:	push   eax
  402521:	mov    ebx,0x0
  402526:	push   ebx
  402527:	mov    eax,ds:0x404048
  40252c:	call   eax
  40252e:	pop    eax
  40252f:	push   eax
  402530:	push   DWORD PTR [eax+0x18]
  402533:	push   ebx
  402534:	push   DWORD PTR [eax+0x174]
  40253a:	call   0x401cbc
  40253f:	add    esp,0xc
  402542:	pop    eax
  402543:	push   eax
  402544:	push   0x0
  402546:	mov    eax,ds:0x404068
  40254b:	call   eax
  40254d:	pop    eax
  40254e:	sub    esp,0xffffffb4
  402551:	mov    ebp,DWORD PTR [esp]
  402554:	add    esp,0x4
  402557:	ret    
  402558:	mov    edi,edi
  40255a:	push   ebp
  40255b:	mov    ebp,esp
  40255d:	sub    esp,0x30
  402560:	push   eax
  402561:	push   DWORD PTR [eax+0x70]
  402564:	push   DWORD PTR [eax+0x2fc]
  40256a:	push   DWORD PTR [eax+0x3d0]
  402570:	push   DWORD PTR [eax+0x2a4]
  402576:	call   0x40234c
  40257b:	add    esp,0x10
  40257e:	pop    eax
  40257f:	push   eax
  402580:	mov    edx,0x0
  402585:	push   edx
  402586:	mov    eax,ds:0x404048
  40258b:	call   eax
  40258d:	pop    eax
  40258e:	push   eax
  40258f:	mov    eax,ds:0x404028
  402594:	call   eax
  402596:	pop    eax
  402597:	sub    esp,0xffffffd0
  40259a:	mov    ebp,DWORD PTR [esp]
  40259d:	add    esp,0x4
  4025a0:	ret    
  4025a1:	add    BYTE PTR [eax],al
  4025a3:	add    BYTE PTR [ebx-0x1374aa01],cl
  4025a9:	sub    esp,0x34
  4025ac:	push   eax
  4025ad:	push   0x6b4
  4025b2:	push   0x6b4
  4025b7:	mov    esi,0x40001
  4025bc:	push   esi
  4025bd:	push   0x0
  4025bf:	xor    DWORD PTR [esp],0x89e6ba71
  4025c6:	pop    ebx
  4025c7:	sub    ebx,0x89a67a45
  4025cd:	push   DWORD PTR [ebx]
  4025cf:	sub    DWORD PTR [esp],0x2
  4025d3:	mov    ebx,0x404024
  4025d8:	pop    DWORD PTR [ebx]
  4025da:	mov    eax,ds:0x404024
  4025df:	call   eax
  4025e1:	xchg   DWORD PTR [esp],eax
  4025e4:	pop    DWORD PTR [eax+0xf8]
  4025ea:	mov    ebx,DWORD PTR [eax+0xf8]
  4025f0:	lea    edx,[ebx]
  4025f2:	sub    ebx,ebx
  4025f4:	dec    ebx
  4025f5:	and    ebx,0x402a1a
  4025fb:	mov    edi,0x7a89d45a
  402600:	xor    esi,esi
  402602:	add    esi,0x6b4
  402608:	cmp    esi,0x0
  40260b:	je     0x40262f
  40260d:	add    esi,0xfffffffc
  402610:	mov    ecx,edi
  402612:	xor    ecx,DWORD PTR [ebx]
  402614:	push   ecx
  402615:	sub    ecx,ecx
  402617:	sub    DWORD PTR [esp],0x1
  40261b:	pop    DWORD PTR [edx+ecx*2]
  40261e:	push   0x1
  402620:	sub    DWORD PTR [esp],edi
  402623:	mov    edi,0xfffffffc
  402628:	sub    ebx,edi
  40262a:	sub    edx,edi
  40262c:	pop    edi
  40262d:	jmp    0x402608
  40262f:	push   eax
  402630:	mov    eax,ds:0x404030
  402635:	call   eax
  402637:	pop    eax
  402638:	sub    esp,0xffffffcc
  40263b:	pop    ebp
  40263c:	ret    
  40263d:	add    BYTE PTR [eax],al
  40263f:	add    BYTE PTR [ebx-0x1374aa01],cl
  402645:	sub    esp,0x2c
  402648:	push   eax
  402649:	push   esi
  40264a:	push   ecx
  40264b:	call   0x401b68
  402650:	add    esp,0x8
  402653:	pop    eax
  402654:	push   eax
  402655:	push   0x0
  402657:	mov    eax,ds:0x404038
  40265c:	call   eax
  40265e:	pop    eax
  40265f:	push   eax
  402660:	mov    eax,ds:0x404010
  402665:	call   eax
  402667:	pop    eax
  402668:	sub    esp,0xffffffd4
  40266b:	mov    ebp,DWORD PTR [esp]
  40266e:	add    esp,0x4
  402671:	ret    
	...
  402712:	add    BYTE PTR [eax],al
  402714:	mov    edi,edi
  402716:	push   ebp
  402717:	mov    ebp,esp
  402719:	sub    esp,0x30
  40271c:	push   eax
  40271d:	push   ecx
  40271e:	push   ebx
  40271f:	push   esi
  402720:	push   DWORD PTR [eax+0x68]
  402723:	call   0x402798
  402728:	add    esp,0x10
  40272b:	pop    eax
  40272c:	push   eax
  40272d:	mov    eax,ds:0x404030
  402732:	call   eax
  402734:	pop    eax
  402735:	push   eax
  402736:	push   0x0
  402738:	mov    eax,ds:0x404064
  40273d:	call   eax
  40273f:	pop    eax
  402740:	sub    esp,0xffffffd0
  402743:	mov    ebp,DWORD PTR [esp]
  402746:	add    esp,0x4
  402749:	ret    
  40274a:	add    BYTE PTR [eax],al
  40274c:	mov    edi,edi
  40274e:	push   ebp
  40274f:	mov    ebp,esp
  402751:	sub    esp,0x38
  402754:	push   eax
  402755:	push   DWORD PTR [eax+0x84]
  40275b:	push   ecx
  40275c:	push   DWORD PTR [eax+0x1cc]
  402762:	push   DWORD PTR [eax+0x394]
  402768:	call   0x401bfc
  40276d:	add    esp,0x10
  402770:	pop    eax
  402771:	push   eax
  402772:	lea    ecx,[eax-0x100]
  402778:	push   ecx
  402779:	mov    eax,ds:0x40404c
  40277e:	call   eax
  402780:	test   eax,eax
  402782:	jne    0x402772
  402784:	pop    eax
  402785:	push   eax
  402786:	mov    eax,ds:0x404010
  40278b:	call   eax
  40278d:	pop    eax
  40278e:	sub    esp,0xffffffc8
  402791:	mov    ebp,DWORD PTR [esp]
  402794:	add    esp,0x4
  402797:	ret    
  402798:	mov    edi,edi
  40279a:	push   ebp
  40279b:	mov    ebp,esp
  40279d:	sub    esp,0x1c
  4027a0:	push   eax
  4027a1:	mov    eax,ds:0x404010
  4027a6:	call   eax
  4027a8:	pop    eax
  4027a9:	push   eax
  4027aa:	push   DWORD PTR [eax+0x148]
  4027b0:	push   ebx
  4027b1:	push   ecx
  4027b2:	push   DWORD PTR [eax+0xa0]
  4027b8:	call   0x402168
  4027bd:	add    esp,0x10
  4027c0:	pop    eax
  4027c1:	push   eax
  4027c2:	mov    ecx,0x0
  4027c7:	push   ecx
  4027c8:	mov    eax,ds:0x404014
  4027cd:	call   eax
  4027cf:	pop    eax
  4027d0:	sub    esp,0xffffffe4
  4027d3:	mov    ebp,DWORD PTR [esp]
  4027d6:	add    esp,0x4
  4027d9:	ret    
	...
  40282a:	add    BYTE PTR [eax],al
  40282c:	mov    edi,edi
  40282e:	push   ebp
  40282f:	mov    ebp,esp
  402831:	sub    esp,0x60
  402834:	push   eax
  402835:	push   DWORD PTR [eax+0x74]
  402838:	push   DWORD PTR [eax+0x138]
  40283e:	push   DWORD PTR [eax+0x350]
  402844:	call   0x401f0c
  402849:	add    esp,0xc
  40284c:	pop    eax
  40284d:	push   eax
  40284e:	mov    eax,0x0
  402853:	push   eax
  402854:	mov    eax,ds:0x404000
  402859:	call   eax
  40285b:	pop    eax
  40285c:	push   eax
  40285d:	mov    eax,ds:0x404010
  402862:	call   eax
  402864:	pop    eax
  402865:	sub    esp,0xffffffa0
  402868:	mov    ebp,DWORD PTR [esp]
  40286b:	add    esp,0x4
  40286e:	ret    
	...
  40290f:	add    BYTE PTR [ebx-0x1374aa01],cl
  402915:	sub    esp,0x24
  402918:	push   eax
  402919:	push   DWORD PTR [eax+0xb8]
  40291f:	push   DWORD PTR [eax+0x38]
  402922:	push   esi
  402923:	call   0x401c34
  402928:	add    esp,0xc
  40292b:	pop    eax
  40292c:	push   eax
  40292d:	mov    eax,0x0
  402932:	push   eax
  402933:	mov    eax,ds:0x404040
  402938:	call   eax
  40293a:	pop    eax
  40293b:	push   eax
  40293c:	mov    ecx,0x0
  402941:	push   ecx
  402942:	mov    eax,ds:0x404038
  402947:	call   eax
  402949:	pop    eax
  40294a:	sub    esp,0xffffffdc
  40294d:	mov    ebp,DWORD PTR [esp]
  402950:	add    esp,0x4
  402953:	ret    
  402954:	mov    edi,edi
  402956:	push   ebp
  402957:	mov    ebp,esp
  402959:	sub    esp,0x50
  40295c:	push   eax
  40295d:	mov    edi,0x0
  402962:	push   edi
  402963:	mov    eax,ds:0x404004
  402968:	call   eax
  40296a:	pop    eax
  40296b:	push   eax
  40296c:	push   DWORD PTR [eax+0x28]
  40296f:	push   DWORD PTR [eax+0x308]
  402975:	call   0x401494
  40297a:	add    esp,0x8
  40297d:	pop    eax
  40297e:	push   eax
  40297f:	mov    edx,0x0
  402984:	push   edx
  402985:	mov    eax,ds:0x404034
  40298a:	call   eax
  40298c:	pop    eax
  40298d:	sub    esp,0xffffffb0
  402990:	mov    ebp,DWORD PTR [esp]
  402993:	add    esp,0x4
  402996:	ret    
	...
  4029e7:	add    cl,bh
  4029e9:	ficomp DWORD PTR [eax-0x5d803975]
  4029ef:	xor    dl,BYTE PTR [edx+0x2489e9ed]
  4029f5:	loope  0x402a74
  4029f7:	inc    ebp
  4029f8:	outs   dx,DWORD PTR ds:[esi]
  4029f9:	sub    BYTE PTR [ebp-0x4058483],cl
  4029ff:	inc    edx
  402a00:	pushf  
  402a01:	arpl   dx,si
  402a03:	xlat   BYTE PTR ds:[ebx]
  402a04:	sub    ch,BYTE PTR [edx+edx*8+0x28]
  402a08:	icebp  
  402a09:	lods   eax,DWORD PTR ds:[esi]
  402a0a:	xor    al,0xb8
  402a0c:	mov    esp,0x2fac510b
  402a11:	pop    es
  402a12:	mov    ds:0xd4ab4117,al
  402a17:	adc    esp,DWORD PTR [esi+ecx*2+0x22d98c0b]
  402a1e:	dec    esi
  402a1f:	sub    eax,0xd55b8576
  402a24:	(bad)  
  402a25:	and    esi,eax
  402a27:	cmps   BYTE PTR ds:[esi],BYTE PTR es:[edi]
  402a28:	xor    ebx,esp
  402a2a:	jbe    0x402a49
  402a2c:	or     bh,BYTE PTR [ebx+0x67287ea3]
  402a32:	movs   BYTE PTR es:[edi],BYTE PTR ds:[esi]
  402a33:	push   edi
  402a34:	dec    ebp
  402a35:	mov    cs,WORD PTR [esi+0x26]
  402a38:	jbe    0x4029bf
  402a3a:	pop    ebx
  402a3b:	push   esp
  402a3c:	mov    bl,0x6b
  402a3e:	dec    ebp
  402a3f:	dec    esi
  402a40:	sbb    dh,BYTE PTR [esi+0x16edfa69]
  402a46:	retf   0x2e2b
  402a49:	aad    0xd8
  402a4b:	aam    0x42
  402a4d:	push   eax
  402a4e:	lds    ebp,FWORD PTR [esi+0xcd65389]
  402a54:	mov    bh,BYTE PTR [ecx]
  402a56:	call   0x8d54:0x5bd50eaa
  402a5d:	jp     0x402a2f
  402a5f:	add    BYTE PTR [esi-0x762ba389],bl
  402a65:	daa    
  402a66:	sub    ebx,esi
  402a68:	iret   
  402a69:	xchg   ebp,eax
  402a6a:	pop    ebx
  402a6b:	aam    0x89
  402a6d:	xlat   BYTE PTR ds:[ebx]
  402a6e:	dec    esi
  402a6f:	fnstenv [ebp+eax*4+0x5b]
  402a73:	pop    ebp
  402a74:	iret   
  402a75:	xchg   BYTE PTR [esi+ebx*8+0x1c],al
  402a79:	out    0x33,al
  402a7b:	xchg   ebp,eax
  402a7c:	in     eax,0x16
  402a7e:	xlat   BYTE PTR ds:[ebx]
  402a7f:	inc    ebx
  402a80:	ds loopne 0x402abb
  402a83:	movs   BYTE PTR es:[edi],BYTE PTR ds:[esi]
  402a84:	(bad)  [ecx]
  402a86:	cmps   DWORD PTR ds:[esi],DWORD PTR es:[edi]
  402a87:	jge    0x402b07
  402a89:	or     al,0x5d
  402a8b:	mov    esi,0x59e01289
  402a90:	adc    esp,eax
  402a92:	xor    ebx,DWORD PTR [esp+ebp*8+0x257fd61b]
  402a99:	jp     0x402aa7
  402a9b:	fadd   QWORD PTR [eax]
  402a9d:	cmp    al,0xa2
  402a9f:	test   al,0xb2
  402aa1:	popf   
  402aa2:	xor    DWORD PTR [ecx+eiz*8+0x762bb67a],edx
  402aa9:	in     eax,dx
  402aaa:	call   edx
  402aac:	mov    DWORD PTR [edx-0x34],edi
  402aaf:	sub    ecx,DWORD PTR [ecx+0x715f4bd0]
  402ab5:	jg     0x402abe
  402ab7:	sub    esi,DWORD PTR [esi-0x7b]
  402aba:	or     ebx,DWORD PTR [ecx+0x3c]
  402abd:	stos   BYTE PTR es:[edi],al
  402abe:	pop    ebp
  402abf:	aam    0x89
  402ac1:	cmp    al,0xff
  402ac3:	ror    BYTE PTR [ecx-0x4a70ac86],cl
  402ac9:	ins    DWORD PTR es:[edi],dx
  402aca:	rcl    cl,1
  402acc:	mov    DWORD PTR [edx-0x7],edi
  402acf:	jne    0x402ac2
  402ad1:	mov    cl,0x7f
  402ad3:	and    BYTE PTR [ecx-0x7d],0xa2
  402ad7:	sub    esi,DWORD PTR [esi+0x6d]
  402ada:	(bad)  
  402adc:	mov    DWORD PTR [edx+0x2b],edi
  402adf:	rcr    DWORD PTR [eax*4+0xf76d431],cl
  402ae6:	ret    0x897c
  402ae9:	shl    BYTE PTR [ebx+0x5f],1
  402aec:	les    edx,FWORD PTR [edx]
  402aee:	int3   
  402aef:	sub    esp,DWORD PTR [edx]
  402af1:	fstp   QWORD PTR [edx-0x1f]
  402af4:	lods   eax,DWORD PTR ds:[esi]
  402af5:	sub    dh,ch
  402af7:	jge    0x402b1a
  402af9:	jp     0x402b07
  402afb:	clc    
  402afc:	shr    DWORD PTR ds:0x6d6e7da7,1
  402b02:	jo     0x402adb
  402b04:	mov    DWORD PTR [edx+0x2b],edi
  402b07:	ins    DWORD PTR es:[edi],dx
  402b08:	dec    edx
  402b09:	or     BYTE PTR [edi-0x2e],bl
  402b0c:	out    dx,eax
  402b0d:	(bad)  
  402b0e:	out    0x3d,al
  402b10:	jbe    0x402ab7
  402b12:	sub    al,0xc2
  402b14:	mov    al,0x22
  402b16:	xchg   edx,eax
  402b17:	pop    edi
  402b18:	addr16 push cs
  402b1a:	add    esp,eax
  402b1c:	jecxz  0x402b9c
  402b1e:	into   
  402b1f:	sub    eax,DWORD PTR [esi-0x7b]
  402b22:	pop    ebx
  402b23:	sub    edi,ecx
  402b25:	sub    dh,bl
  402b27:	aam    0x23
  402b29:	xchg   ebp,eax
  402b2a:	(bad)  
  402b2b:	test   eax,0x41f22ae5
  402b30:	jb     0x402b04
  402b32:	push   cs
  402b33:	sub    ebx,esp
  402b35:	jbe    0x402b29
  402b37:	inc    ecx
  402b38:	je     0x402b0c
  402b3a:	push   cs
  402b3b:	add    BYTE PTR [edx],0xb5
  402b3e:	sub    edx,eax
  402b40:	test   DWORD PTR [ecx],esp
  402b42:	add    eax,0xfe76dc2b
  402b47:	mov    al,ds:0xe81086b8
  402b4c:	add    al,0x3
  402b4e:	mov    esi,0x4aa521a0
  402b53:	arpl   ax,cx
  402b55:	outs   dx,BYTE PTR ds:[esi]
  402b56:	mov    ds:0x103279d3,eax
  402b5b:	shr    cl,cl
  402b5d:	icebp  
  402b5e:	out    dx,eax
  402b5f:	aas    
  402b60:	repz inc ebp
  402b62:	das    
  402b63:	xchg   ebp,eax
  402b64:	add    bh,BYTE PTR ds:0xf1b6aeae
  402b6a:	popa   
  402b6b:	cmp    al,0x18
  402b6d:	jle    0x402b15
  402b6f:	sub    edi,ebp
  402b71:	dec    ebp
  402b72:	(bad)  
  402b73:	xchg   ebx,eax
  402b74:	lods   eax,DWORD PTR ds:[esi]
  402b75:	xchg   edx,eax
  402b76:	shr    DWORD PTR [ecx],1
  402b78:	jbe    0x402aff
  402b7a:	pop    esi
  402b7b:	mov    ds:0x3bdf859d,eax
  402b80:	std    
  402b81:	cli    
  402b82:	push   edi
  402b83:	xlat   BYTE PTR ds:[ebx]
  402b84:	jb     0x402ba7
  402b86:	mul    BYTE PTR [eax-0x7af4285e]
  402b8c:	fisubr WORD PTR [ebx]
  402b8e:	hlt    
  402b8f:	inc    ecx
  402b90:	jb     0x402b66
  402b92:	add    ch,BYTE PTR [ebx]
  402b94:	fdiv   QWORD PTR [esi-0x3]
  402b97:	sbb    BYTE PTR [esi-0x2981512e],dh
  402b9d:	icebp  
  402b9e:	imul   ebx,eax,0xffffffd2
  402ba1:	jp     0x402baf
  402ba3:	fcom   st(1)
  402ba5:	sbb    esp,DWORD PTR [ebx]
  402ba7:	in     al,dx
  402ba8:	pop    esi
  402ba9:	addr16 call 0xa6bbadeb
  402baf:	sub    ebx,DWORD PTR [esi-0x762ba4fc]
  402bb5:	and    cl,dh
  402bb7:	sub    esi,DWORD PTR [esi]
  402bb9:	test   DWORD PTR [ebx+0x2b],ebx
  402bbc:	cld    
  402bbd:	adc    dh,al
  402bbf:	mov    al,ds:0x3cab0e8d
  402bc4:	cmp    DWORD PTR [esi-0x5a],0x2b
  402bc8:	adc    bh,BYTE PTR [edx+0x6c]
  402bcb:	in     al,0x89
  402bcd:	jp     0x402b75
  402bcf:	jae    0x402bce
  402bd1:	lds    edx,FWORD PTR [edi+0x5f]
  402bd4:	leave  
  402bd5:	jbe    0x402b74
  402bd7:	jae    0x402c47
  402bd9:	icebp  
  402bda:	pop    edi
  402bdb:	pop    edi
  402bdc:	mov    DWORD PTR [ecx-0x5e855fa1],edx
  402be2:	pop    esi
  402be3:	popf   
  402be4:	mov    ch,0xf1
  402be6:	aad    0x3
  402be8:	jne    0x402c5c
  402bea:	shr    BYTE PTR [ecx+edx*4+0x1037d6f3],1
  402bf1:	jb     0x402c0b
  402bf3:	ret    0x5a89
  402bf6:	shl    DWORD PTR [edi],1
  402bf8:	adc    ah,BYTE PTR [ebx+eax*2]
  402bfb:	aam    0x89
  402bfd:	jp     0x402c2a
  402bff:	imul   eax,DWORD PTR [esi+0xc],0x23
  402c03:	fdiv   QWORD PTR [esi+0x2f]
  402c06:	mov    dl,0xc3
  402c08:	add    BYTE PTR [edi-0x4c2b2ba5],al
  402c0e:	(bad)  
  402c0f:	mov    ds:0xb547a102,al
  402c14:	fst    DWORD PTR [edx-0x7a89d067]
  402c1a:	add    edx,DWORD PTR [ebp-0xf]
  402c1d:	and    ah,BYTE PTR [esi+0x2c857629]
  402c23:	fild   DWORD PTR [edx]
  402c25:	jle    0x402ba9
  402c27:	in     al,dx
  402c28:	jb     0x402bcb
  402c2a:	pop    ebx
  402c2b:	aam    0x89
  402c2d:	jp     0x402bd6
  402c2f:	pop    esi
  402c30:	push   edx
  402c31:	or     DWORD PTR [ebx],0xc6b949e7
  402c37:	mov    al,ds:0xe82d8685
  402c3c:	add    cl,ah
  402c3e:	sub    esi,DWORD PTR es:[esi-0x7b]
  402c42:	fsub   QWORD PTR [edx]
  402c44:	std    
  402c45:	or     DWORD PTR [ebx+0x57fbfdd8],esp
  402c4b:	push   ecx
  402c4c:	jbe    0x402c5c
  402c4e:	int3   
  402c4f:	sub    BYTE PTR [ebp-0x727da52e],cl
  402c55:	jmp    DWORD PTR [esi+0x5e]
  402c58:	jb     0x402c2c
  402c5a:	pop    edx
  402c5b:	or     BYTE PTR [ecx+0xa0f02a],0x95
  402c62:	pop    esi
  402c63:	daa    
  402c64:	add    al,BYTE PTR [ecx+ecx*1-0x590f4952]
  402c6b:	(bad)  
  402c6c:	jle    0x402c5f
  402c6e:	push   0xfd52775
  402c73:	mov    esi,0xd4ff2b8d
  402c78:	and    ecx,DWORD PTR [ecx-0x70a0f3]
  402c7e:	mov    bx,0xee6
  402c82:	sbb    eax,0xa34e04c4
  402c87:	jl     0x402c64
  402c89:	add    BYTE PTR [ebx-0x592c6d60],bl
  402c8f:	sub    esi,DWORD PTR [esi+0x5]
  402c92:	sub    al,0xd0
  402c94:	add    al,0x3e
  402c96:	mov    ds:0x5a7a5329,eax
  402c9b:	aam    0x9
  402c9d:	sub    ah,BYTE PTR [edi+0x5a91525e]
  402ca3:	add    BYTE PTR [ecx+0x29cb4bd1],0xdb
  402caa:	add    ecx,DWORD PTR [ebp+0x7cf52add]
  402cb0:	mov    eax,edx
  402cb2:	push   edi
  402cb3:	mov    WORD PTR [edx],cs
  402cb5:	mov    esp,0xe4f9c0b2
  402cba:	sahf   
  402cbb:	mov    ah,0x2
  402cbd:	test   eax,0xf375d92b
  402cc2:	addr16 (bad) 
  402cc4:	fisttp WORD PTR [esi+0x21]
  402cc7:	stc    
  402cc8:	jns    0x402ccb
  402cca:	int3   
  402ccb:	aam    0x89
  402ccd:	jp     0x402cfa
  402ccf:	movs   DWORD PTR es:[edi],DWORD PTR ds:[esi]
  402cd0:	rol    BYTE PTR [ebp-0x33fd2ba5],cl
  402cd6:	push   es
  402cd7:	sub    esi,DWORD PTR [esi-0x7b]
  402cda:	fsub   QWORD PTR [edx]
  402cdc:	xchg   dh,bh
  402cde:	and    eax,0x5e85762b
  402ce3:	daa    
  402ce4:	and    al,0xf1
  402ce6:	pop    esi
  402ce7:	sub    BYTE PTR [ebp-0x26ef292b],cl
  402ced:	sub    esi,esp
  402cef:	jnp    0x402d0d
  402cf1:	xor    DWORD PTR [ebx],0xa67a99d4
  402cf7:	jl     0x402cee
  402cf9:	ins    DWORD PTR es:[edi],dx
  402cfa:	pop    edi
  402cfb:	test   bl,ah
  402cfd:	jle    0x402ccd
  402cff:	sub    esp,DWORD PTR [esi-0x7b]
  402d02:	pop    ebx
  402d03:	or     DWORD PTR [eax],0x7e
  402d06:	sub    BYTE PTR [ebx],0x66
  402d09:	test   DWORD PTR [ebx+0x2b],ebx
  402d0c:	fdiv   QWORD PTR [esi-0x59]
  402d0f:	jge    0x402d8b
  402d11:	fild   WORD PTR [eax]
  402d13:	jns    0x402cb7
  402d15:	mov    dl,0xf5
  402d17:	mov    al,ds:0x57b054be
  402d1c:	pusha  
  402d1d:	jle    0x402cb2
  402d1f:	jmp    0x402d31
  402d21:	sub    BYTE PTR ds:0xd24a897d,bh
  402d27:	and    edx,DWORD PTR [ebx+0x7a]
  402d2a:	dec    edx
  402d2b:	aam    0x89
  402d2d:	jnp    0x402ce1
  402d2f:	sub    al,0x94
  402d31:	imul   eax,DWORD PTR [eax],0x59
  402d34:	int    0x5e
  402d36:	mov    ds:0x5ad5247a,al
  402d3b:	in     eax,0xe1
  402d3d:	jp     0x402cf5
  402d3f:	sub    esi,DWORD PTR [esi-0x2e]
  402d42:	fidivr WORD PTR [ecx*4+0x1e1aa72a]
  402d49:	test   DWORD PTR [ebx-0x2c],ecx
  402d4c:	mov    DWORD PTR ds:0x85522f25,ebp
  402d52:	dec    ebx
  402d53:	aam    0x89
  402d55:	test   ecx,esi
  402d57:	daa    
  402d58:	mov    eax,edx
  402d5a:	push   edi
  402d5b:	mov    ss,eax
  402d5d:	and    bh,dh
  402d5f:	scas   al,BYTE PTR es:[edi]
  402d60:	mov    edi,0x4ab5d8f0
  402d65:	sbb    cl,BYTE PTR [ebx+0x2c]
  402d68:	(bad)  [edi-0x5c]
  402d6b:	pop    ecx
  402d6c:	mov    ebp,0x9ea06379
  402d71:	push   cs
  402d72:	scas   al,BYTE PTR es:[edi]
  402d73:	ins    DWORD PTR es:[edi],dx
  402d74:	cdq    
  402d75:	jp     0x402d1d
  402d77:	sub    ebx,DWORD PTR [esi-0x762ba592]
  402d7d:	rol    BYTE PTR [edi-0x4c7a89d5],0x35
  402d84:	jbe    0x402d0b
  402d86:	cmps   DWORD PTR ds:[esi],DWORD PTR es:[edi]
  402d87:	jl     0x402d58
  402d89:	sbb    BYTE PTR [ebx-0x2c],0x89
  402d8d:	xchg   edx,eax
  402d8e:	jo     0x402d64
  402d90:	mov    DWORD PTR [edx-0x2a],edi
  402d93:	add    al,0x2
  402d95:	dec    esi
  402d96:	adc    BYTE PTR [edx-0x2ba47a81],0x61
  402d9d:	mov    ebp,0x9762ba7
  402da2:	movs   DWORD PTR es:[edi],DWORD PTR ds:[esi]
  402da3:	pop    edi
  402da4:	inc    ebx
  402da5:	xchg   edx,eax
  402da6:	sbb    ah,dl
  402da8:	mov    DWORD PTR [edx+0x6e],edi
  402dab:	adc    al,0xd9
  402dad:	mov    ebx,0x81b72c6e
  402db2:	jg     0x402d8d
  402db4:	mov    BYTE PTR [esi-0x7e],bh
  402db7:	xchg   edx,esi
  402db9:	inc    ebp
  402dba:	sub    al,0x25
  402dbc:	shl    ecx,1
  402dbe:	pop    edi
  402dbf:	adc    BYTE PTR [ebx-0x361a10f],dh
  402dc5:	cmps   DWORD PTR ds:[esi],DWORD PTR es:[edi]
  402dc6:	sub    ebx,DWORD PTR [edi]
  402dc8:	push   edx
  402dc9:	cmp    al,0x51
  402dcb:	aam    0x89
  402dcd:	jp     0x402e1d
  402dcf:	mov    esi,0xc45a7a89
  402dd4:	ds jbe 0x402dc7
  402dd7:	jne    0x402e00
  402dd9:	cmp    al,0x53
  402ddb:	aam    0x89
  402ddd:	jp     0x402e2d
  402ddf:	scas   al,BYTE PTR es:[edi]
  402de0:	mov    DWORD PTR [edx+0x5a],edi
  402de3:	mov    fs,WORD PTR [ecx+0x5]
  402de6:	cmps   DWORD PTR ds:[esi],DWORD PTR es:[edi]
  402de7:	sub    esi,DWORD PTR [esi+0xf]
  402dea:	das    
  402deb:	lock xchg ebp,eax
  402ded:	sbb    esp,DWORD PTR [ebx+0x7a]
  402df0:	mov    bh,0x6d
  402df2:	inc    esp
  402df3:	ins    DWORD PTR es:[edi],dx
  402df4:	test   eax,0x3e2ba67a
  402df9:	icebp  
  402dfa:	imul   ebp,DWORD PTR [ebp-0x75],0x7a
  402dfe:	cmps   BYTE PTR ds:[esi],BYTE PTR es:[edi]
  402dff:	sub    edi,DWORD PTR [esi]
  402e01:	icebp  
  402e02:	jae    0x402e71
  402e04:	test   eax,0x3e2ba67a
  402e09:	icebp  
  402e0a:	jnp    0x402e79
  402e0c:	lea    edi,[edx-0x5a]
  402e0f:	sub    edi,DWORD PTR [esi]
  402e11:	icebp  
  402e12:	inc    ebx
  402e13:	ins    DWORD PTR es:[edi],dx
  402e14:	leave  
  402e15:	jp     0x402dbd
  402e17:	sub    edi,DWORD PTR [esi]
  402e19:	icebp  
  402e1a:	dec    ebx
  402e1b:	ins    DWORD PTR es:[edi],dx
  402e1c:	lea    edi,[edx-0x5a]
  402e1f:	sub    edi,DWORD PTR [esi]
  402e21:	icebp  
  402e22:	push   ebx
  402e23:	ins    DWORD PTR es:[edi],dx
  402e24:	leave  
  402e25:	jp     0x402dcd
  402e27:	sub    edi,DWORD PTR [esi]
  402e29:	icebp  
  402e2a:	pop    ebx
  402e2b:	pop    edi
  402e2c:	dec    eax
  402e2d:	and    esp,DWORD PTR [ebx+0x4b]
  402e30:	std    
  402e31:	shr    BYTE PTR [ebx],1
  402e33:	push   ebp
  402e34:	jnp    0x402e21
  402e36:	dec    esp
  402e37:	outs   dx,BYTE PTR ds:[esi]
  402e38:	push   cs
  402e39:	push   cs
  402e3a:	adc    al,0xbc
  402e3c:	add    al,BYTE PTR [ebx+eiz*1+0x2f852e56]
  402e43:	xlat   BYTE PTR ds:[ebx]
  402e44:	mov    BYTE PTR [edi],cl
  402e46:	(bad)  
  402e47:	mov    al,ds:0x14dce533
  402e4c:	std    
  402e4d:	outs   dx,DWORD PTR ds:[esi]
  402e4e:	sub    eax,0xe1d74a6d
  402e53:	ror    BYTE PTR [ecx-0x2c3c5986],1
  402e59:	test   BYTE PTR [ebx-0x2c],bl
  402e5c:	sar    DWORD PTR [ecx+0x56],cl
  402e5f:	sub    BYTE PTR [esi-0x3106c52],cl
  402e65:	and    dl,cl
  402e67:	es jne 0x402e5a
  402e6a:	pop    es
  402e6b:	xlat   BYTE PTR ds:[ebx]
  402e6c:	hlt    
  402e6d:	mov    esp,DWORD PTR es:[esi+0x2a]
  402e71:	add    BYTE PTR [eax-0x9287d60],dl
  402e77:	add    BYTE PTR [edi+ebx*8+0x796057f6],dh
  402e7e:	inc    esp
  402e7f:	enter  0x4617,0x3b
  402e83:	push   edi
  402e84:	hlt    
  402e85:	cmps   BYTE PTR ss:[esi],BYTE PTR es:[edi]
  402e87:	pop    edi
  402e88:	fs ins DWORD PTR es:[edi],dx
  402e8a:	dec    edx
  402e8b:	aam    0x89
  402e8d:	jp     0x402eba
  402e8f:	push   esi
  402e90:	and    al,BYTE PTR [eax]
  402e92:	pop    edx
  402e93:	mov    eax,ds:0x884ed18f
  402e98:	jbe    0x402e1f
  402e9a:	pop    ebx
  402e9b:	mov    ch,0x4a
  402e9d:	sbb    ah,BYTE PTR [edi-0x7cf1b583]
  402ea3:	pop    edi
  402ea4:	cld    
  402ea5:	sub    ebp,DWORD PTR ss:[esi+0x26]
  402ea9:	aad    0xb
  402eab:	mov    esp,0x2baa7a89
  402eb0:	and    eax,0xd0940c7a
  402eb5:	sub    ch,BYTE PTR [ebx]
  402eb7:	rol    DWORD PTR [ebp-0x76134cdf],cl
  402ebd:	jp     0x402e65
  402ebf:	arpl   di,di
  402ec1:	sar    DWORD PTR [edi-0xc],0x2
  402ec5:	sub    BYTE PTR [ecx],0x27
  402ec8:	retf   
  402ec9:	sbb    DWORD PTR [ebx-0x2c],0x33051e89
  402ed0:	jbe    0x402e57
  402ed2:	pop    ebx
  402ed3:	pop    edi
  402ed4:	stc    
  402ed5:	push   esi
  402ed6:	cmc    
  402ed7:	inc    ebx
  402ed8:	jbe    0x402e5f
  402eda:	push   edi
  402edb:	aam    0xda
  402edd:	test   ecx,esi
  402edf:	imul   edi,ebx,0xffffff89
  402ee2:	jecxz  0x402f3f
  402ee4:	mov    BYTE PTR [edx],ch
  402ee6:	sub    esp,esp
  402ee8:	std    
  402ee9:	jge    0x402e99
  402eeb:	jno    0x402eda
  402eed:	fstp   TBYTE PTR [esi-0x357a89d5]
  402ef3:	xchg   esp,eax
  402ef4:	movs   DWORD PTR es:[edi],DWORD PTR ds:[esi]
  402ef5:	sbb    esp,DWORD PTR [ebx+0x4b]
  402ef8:	imul   DWORD PTR [ecx+0x7b]
  402efb:	(bad)  
  402efc:	mov    DWORD PTR [edx-0x32],edi
  402eff:	pcmpeqb mm0,QWORD PTR [ebp+0x107fe75b]
  402f06:	cmps   BYTE PTR ds:[esi],BYTE PTR es:[edi]
  402f07:	inc    ecx
  402f08:	jle    0x402f84
  402f0a:	or     al,0xc8
  402f0c:	add    ah,BYTE PTR [edx-0x2f76870e]
  402f12:	outs   dx,DWORD PTR ds:[esi]
  402f13:	pop    edi
  402f14:	int    0x5e
  402f16:	mov    edx,0xd6b93628
  402f1b:	push   esp
  402f1c:	dec    ecx
  402f1d:	jp     0x402ec5
  402f1f:	sub    esi,ebx
  402f21:	inc    ebp
  402f22:	das    
  402f23:	aad    0xcf
  402f25:	cs repz aam 0x23
  402f29:	mov    ebp,0x9ffc14dc
  402f2e:	repz aam 0x23
  402f31:	popf   
  402f32:	fcom   DWORD PTR [eax]
  402f34:	lods   eax,DWORD PTR ds:[esi]
  402f35:	js     0x402edd
  402f37:	sub    edi,edi
  402f39:	icebp  
  402f3a:	jg     0x402f04
  402f3c:	call   0x1a83f5fa
  402f41:	jmp    0x92203a1
  402f46:	rol    BYTE PTR ds:0xa734ed12,cl
  402f4c:	call   FWORD PTR [ecx]
  402f4e:	repnz aam 0x23
  402f51:	sbb    esp,0xf272fc14
  402f57:	aam    0x23
  402f59:	test   esp,ebx
  402f5b:	adc    al,0xfd
  402f5d:	aaa    
  402f5e:	int3   
  402f5f:	sub    ebx,DWORD PTR [esi]
  402f61:	in     al,dx
  402f62:	xor    eax,0xc012efa0
  402f67:	pop    esp
  402f68:	push   es
  402f69:	test   DWORD PTR [edi],0xae2f7684
  402f6f:	test   al,0xb2
  402f71:	mov    esi,edx
  402f73:	and    al,0xd9
  402f75:	cs int3 
  402f77:	imul   ebx,DWORD PTR [edx+eax*4],0xd
  402f7b:	sub    ebx,esp
  402f7d:	jbe    0x402f7d
  402f7f:	jnp    0x402fa3
  402f81:	aad    0x31
  402f83:	rcr    edi,cl
  402f85:	xchg   edx,eax
  402f86:	sub    BYTE PTR [ebx],0x76
  402f89:	test   esi,edx
  402f8b:	call   0x39b02b3d
  402f90:	jbe    0x402f17
  402f92:	pop    ebx
  402f93:	mov    esi,0x8f53238e
  402f98:	xor    DWORD PTR [esi],ecx
  402f9a:	popf   
  402f9b:	jg     0x402fa1
  402f9d:	add    al,0x5d
  402f9f:	fwait
  402fa0:	push   ds
  402fa1:	das    
  402fa2:	add    edi,DWORD PTR [edi+0x39]
  402fa5:	mov    ecx,0x8923d40c
  402faa:	add    edx,DWORD PTR [edi+0x4d]
  402fad:	jbe    0x402f74
  402faf:	call   0x81cba9e2
  402fb4:	popa   
  402fb5:	in     al,0xa6
  402fb7:	sub    esi,DWORD PTR [esi-0x28]
  402fba:	aam    0x91
  402fbc:	stc    
  402fbd:	stc    
  402fbe:	data16 das 
  402fc0:	inc    ecx
  402fc2:	jg     0x402f88
  402fc4:	aam    0x7a
  402fc6:	cmps   BYTE PTR ds:[esi],BYTE PTR es:[edi]
  402fc7:	sub    esi,DWORD PTR [esi-0x7b]
  402fca:	pop    ebx
  402fcb:	aam    0xe1
  402fcd:	jp     0x402f75
  402fcf:	sub    esi,DWORD PTR [esi+0x46]
  402fd2:	cmp    eax,0x1c1c7fe7
  402fd7:	data16 sub al,0xe3
  402fda:	hlt    
  402fdb:	mov    dl,0xba
  402fdd:	stos   BYTE PTR es:[edi],al
  402fde:	shl    BYTE PTR [ebx],cl
  402fe0:	imul   DWORD PTR [ebx+0x59]
  402fe3:	les    ecx,FWORD PTR [ecx-0x439b486]
  402fe9:	(bad)  [ebp+0x550f7650]
  402fef:	mov    al,ds:0x6e3dbf00
  402ff4:	fnstcw WORD PTR [edi]
  402ff6:	sub    DWORD PTR [edi],ebx
  402ff8:	push   0xbab2f4e3
  402ffd:	stos   BYTE PTR es:[edi],al
  402ffe:	ror    ebx,1
  403000:	mov    ch,0xd4
  403002:	outs   dx,BYTE PTR ds:[esi]
  403003:	sbb    eax,0x536451c8
  403008:	jb     0x402ffb
  40300a:	pop    ecx
  40300b:	aas    
  40300c:	jle    0x403057
  40300e:	data16 sub BYTE PTR [edi+eiz*2-0xeb57259],dh
  403016:	fld    DWORD PTR [ebx+0x1c]
  403019:	xor    DWORD PTR [ebx],0xa67a99d4
  40301f:	jl     0x40303d
  403021:	test   DWORD PTR [edx-0x7e],ebx
  403024:	cdq    
  403025:	icebp  
  403026:	push   esi
  403027:	stos   BYTE PTR es:[edi],al
  403028:	call   0x5af1:0x89d45881
  40302f:	inc    ebx
  403030:	jb     0x402fb6
  403032:	pop    ebx
  403033:	aam    0xde
  403035:	sub    DWORD PTR [edi+0x5bef567d],esp
  40303b:	mov    esp,0x2ba67a09
  403040:	sbb    al,0x86
  403042:	xor    esp,edx
  403044:	jecxz  0x4030c1
  403046:	into   
  403047:	sub    esi,DWORD PTR [esi-0x7b]
  40304a:	fild   DWORD PTR [ebx-0x557dd08a]
  403050:	mov    dl,0x81
  403052:	pop    eax
  403053:	aam    0x89
  403055:	mov    ecx,0x55897336
  40305a:	cmps   BYTE PTR ds:[esi],BYTE PTR es:[edi]
  40305b:	add    BYTE PTR [ebx],ch
  40305d:	sbb    ebp,DWORD PTR [edi+edx*1]
  403060:	jb     0x40302a
  403062:	adc    al,0x6c
  403064:	es mov dh,0x79
  403067:	adc    bh,ch
  403069:	add    edi,DWORD PTR [ebx+0x58]
  40306c:	rcr    DWORD PTR [eax],0x45
  40306f:	pop    ecx
  403070:	scas   eax,DWORD PTR es:[edi]
  403071:	sahf   
  403072:	mov    ebx,0x3b165768
  403077:	test   edx,ebp
  403079:	push   ecx
  40307a:	fwait
  40307b:	test   eax,0xdb467ee6
  403081:	xchg   edx,eax
  403082:	movs   DWORD PTR es:[edi],DWORD PTR ds:[esi]
  403083:	sbb    eax,0x47e0ff23
  403088:	in     al,dx
  403089:	lods   al,BYTE PTR ds:[esi]
  40308a:	push   ebx
  40308b:	push   edi
  40308c:	sbb    ch,0x1d
  40308f:	int    0x60
  403091:	test   BYTE PTR [ebx],bl
  403093:	enter  0xf188,0x1b
  403097:	arpl   WORD PTR [edx+eax*2+0x5cd56bd4],dx
  40309e:	movs   BYTE PTR es:[edi],BYTE PTR ds:[esi]
  40309f:	mov    eax,0xd45b3249
  4030a4:	mov    DWORD PTR [edx-0x5a],edi
  4030a7:	sub    esi,DWORD PTR [esi-0x7b]
  4030aa:	pop    ebx
  4030ab:	aam    0x89
  4030ad:	jp     0x403055
  4030af:	sub    esi,DWORD PTR [esi-0x7b]
  4030b2:	pop    ebx
  4030b3:	aam    0x89
  4030b5:	jp     0x40305d
  4030b7:	sub    esi,DWORD PTR [esi-0x7b]
  4030ba:	pop    ebx
  4030bb:	aam    0x89
  4030bd:	jp     0x4030b5
  4030bf:	lods   al,BYTE PTR ds:[esi]
  4030c0:	ja     0x403047
  4030c2:	pop    ebx
  4030c3:	into   
  4030c4:	mov    WORD PTR [edx-0x5a],?
  4030c7:	das    
  4030c8:	jbe    0x40304f
  4030ca:	xchg   esi,eax
  4030cb:	jmp    0x5787:0x19487845
  4030d2:	add    DWORD PTR [esi],ecx
  4030d4:	inc    ecx
  4030d5:	mov    al,0x8e
  4030d7:	or     al,0xde
  4030d9:	push   ebp
  4030da:	xor    al,0x34
