
59735db09d6562bf9251313d7fdde0342db25ff4fb95619ef0b0516905e58c04.exe:     file format pei-i386


Disassembly of section .text:

00401000 <.text>:
	...
  4010f0:	mov    edi,edi
  4010f2:	push   ebp
  4010f3:	mov    ebp,esp
  4010f5:	sub    esp,0x4c
  4010f8:	push   eax
  4010f9:	push   ebx
  4010fa:	push   DWORD PTR [eax+0x19c]
  401100:	push   DWORD PTR [eax+0x34c]
  401106:	push   ebx
  401107:	call   0x4019c4
  40110c:	add    esp,0x10
  40110f:	pop    eax
  401110:	push   eax
  401111:	lea    edi,[eax-0x100]
  401117:	push   edi
  401118:	mov    eax,0x404000
  40111d:	call   DWORD PTR [eax]
  40111f:	test   eax,eax
  401121:	jne    0x401111
  401123:	pop    eax
  401124:	push   eax
  401125:	mov    eax,0x40402c
  40112a:	call   DWORD PTR [eax]
  40112c:	pop    eax
  40112d:	sub    esp,0xffffffb4
  401130:	mov    ebp,DWORD PTR [esp]
  401133:	add    esp,0x4
  401136:	ret    
  401137:	add    BYTE PTR [ebx-0x1374aa01],cl
  40113d:	sub    esp,0x24
  401140:	push   eax
  401141:	push   edx
  401142:	push   DWORD PTR [eax+0x130]
  401148:	push   DWORD PTR [eax+0x1cc]
  40114e:	push   ecx
  40114f:	call   0x401608
  401154:	add    esp,0x10
  401157:	pop    eax
  401158:	push   eax
  401159:	mov    edi,0x0
  40115e:	push   edi
  40115f:	mov    eax,0x404004
  401164:	call   DWORD PTR [eax]
  401166:	pop    eax
  401167:	mov    edi,0x404000
  40116c:	mov    edi,DWORD PTR [edi]
  40116e:	push   edi
  40116f:	push   DWORD PTR [eax+0x28]
  401172:	pop    edi
  401173:	call   edi
  401175:	sub    esp,0xffffffdc
  401178:	mov    ebp,DWORD PTR [esp]
  40117b:	add    esp,0x4
  40117e:	ret    
  40117f:	add    BYTE PTR [ebx-0x1374aa01],cl
  401185:	sub    esp,0x34
  401188:	push   eax
  401189:	push   ebx
  40118a:	push   DWORD PTR [eax+0x390]
  401190:	call   0x401460
  401195:	add    esp,0x8
  401198:	pop    eax
  401199:	push   eax
  40119a:	push   0x0
  40119c:	mov    eax,0x404070
  4011a1:	call   DWORD PTR [eax]
  4011a3:	pop    eax
  4011a4:	push   eax
  4011a5:	lea    esi,[eax-0x100]
  4011ab:	push   esi
  4011ac:	mov    eax,0x404000
  4011b1:	call   DWORD PTR [eax]
  4011b3:	test   eax,eax
  4011b5:	jne    0x4011a5
  4011b7:	pop    eax
  4011b8:	sub    esp,0xffffffcc
  4011bb:	mov    ebp,DWORD PTR [esp]
  4011be:	add    esp,0x4
  4011c1:	ret    
  4011c2:	add    BYTE PTR [eax],al
  4011c4:	popa   
  4011c5:	ret    
  4011c6:	add    BYTE PTR [eax],al
  4011c8:	mov    edi,edi
  4011ca:	push   ebp
  4011cb:	mov    ebp,esp
  4011cd:	sub    esp,0x60
  4011d0:	push   eax
  4011d1:	push   0x0
  4011d3:	mov    eax,0x404004
  4011d8:	call   DWORD PTR [eax]
  4011da:	pop    eax
  4011db:	push   eax
  4011dc:	push   DWORD PTR [eax+0x100]
  4011e2:	push   edx
  4011e3:	call   0x402444
  4011e8:	add    esp,0x8
  4011eb:	pop    eax
  4011ec:	push   eax
  4011ed:	lea    ebx,[eax-0x100]
  4011f3:	push   ebx
  4011f4:	mov    eax,0x404000
  4011f9:	call   DWORD PTR [eax]
  4011fb:	test   eax,eax
  4011fd:	jne    0x4011ed
  4011ff:	pop    eax
  401200:	sub    esp,0xffffffa0
  401203:	mov    ebp,DWORD PTR [esp]
  401206:	add    esp,0x4
  401209:	ret    
	...
  40125a:	add    BYTE PTR [eax],al
  40125c:	mov    edi,edi
  40125e:	push   ebp
  40125f:	mov    ebp,esp
  401261:	sub    esp,0x24
  401264:	push   eax
  401265:	mov    edx,0x0
  40126a:	push   edx
  40126b:	mov    eax,0x404048
  401270:	call   DWORD PTR [eax]
  401272:	pop    eax
  401273:	push   eax
  401274:	push   DWORD PTR [eax+0x8c]
  40127a:	push   edx
  40127b:	call   0x402054
  401280:	add    esp,0x8
  401283:	pop    eax
  401284:	push   eax
  401285:	mov    ecx,0x0
  40128a:	push   ecx
  40128b:	mov    eax,0x404040
  401290:	call   DWORD PTR [eax]
  401292:	pop    eax
  401293:	sub    esp,0xffffffdc
  401296:	mov    ebp,DWORD PTR [esp]
  401299:	add    esp,0x4
  40129c:	ret    
	...
  40133d:	add    BYTE PTR [eax],al
  40133f:	add    BYTE PTR [ebx-0x1374aa01],cl
  401345:	sub    esp,0x48
  401348:	push   eax
  401349:	mov    eax,0x404030
  40134e:	call   DWORD PTR [eax]
  401350:	pop    eax
  401351:	push   eax
  401352:	push   DWORD PTR [eax+0x268]
  401358:	push   DWORD PTR [eax+0xe0]
  40135e:	push   ecx
  40135f:	push   DWORD PTR [eax+0x2b8]
  401365:	call   0x401ba4
  40136a:	add    esp,0x10
  40136d:	pop    eax
  40136e:	push   eax
  40136f:	mov    eax,0x0
  401374:	push   eax
  401375:	mov    eax,0x404024
  40137a:	call   DWORD PTR [eax]
  40137c:	pop    eax
  40137d:	sub    esp,0xffffffb8
  401380:	mov    ebp,DWORD PTR [esp]
  401383:	add    esp,0x4
  401386:	ret    
  401387:	add    BYTE PTR [ebx-0x1374aa01],cl
  40138d:	sub    esp,0x2c
  401390:	push   eax
  401391:	mov    eax,0x40402c
  401396:	call   DWORD PTR [eax]
  401398:	pop    eax
  401399:	push   eax
  40139a:	push   ecx
  40139b:	push   ecx
  40139c:	push   DWORD PTR [eax+0x104]
  4013a2:	push   edi
  4013a3:	call   0x40284c
  4013a8:	add    esp,0x10
  4013ab:	pop    eax
  4013ac:	push   eax
  4013ad:	mov    eax,0x404028
  4013b2:	call   DWORD PTR [eax]
  4013b4:	pop    eax
  4013b5:	sub    esp,0xffffffd4
  4013b8:	mov    ebp,DWORD PTR [esp]
  4013bb:	add    esp,0x4
  4013be:	ret    
	...
  40145f:	add    BYTE PTR [ebx-0x1374aa01],cl
  401465:	sub    esp,0x20
  401468:	push   eax
  401469:	push   DWORD PTR [eax+0x2e8]
  40146f:	push   DWORD PTR [eax+0x114]
  401475:	push   ecx
  401476:	push   DWORD PTR [eax+0x248]
  40147c:	call   0x401a48
  401481:	add    esp,0x10
  401484:	pop    eax
  401485:	push   eax
  401486:	mov    eax,0x0
  40148b:	push   eax
  40148c:	mov    eax,0x404004
  401491:	call   DWORD PTR [eax]
  401493:	pop    eax
  401494:	push   eax
  401495:	mov    edx,0x0
  40149a:	push   edx
  40149b:	mov    eax,0x404040
  4014a0:	call   DWORD PTR [eax]
  4014a2:	pop    eax
  4014a3:	sub    esp,0xffffffe0
  4014a6:	mov    ebp,DWORD PTR [esp]
  4014a9:	add    esp,0x4
  4014ac:	ret    
  4014ad:	add    BYTE PTR [eax],al
  4014af:	add    BYTE PTR [ebx-0x1374aa01],cl
  4014b5:	sub    esp,0x2c
  4014b8:	push   eax
  4014b9:	push   DWORD PTR [eax+0x3e0]
  4014bf:	push   ecx
  4014c0:	call   0x401580
  4014c5:	add    esp,0x8
  4014c8:	pop    eax
  4014c9:	push   eax
  4014ca:	push   0x0
  4014cc:	mov    eax,0x404060
  4014d1:	call   DWORD PTR [eax]
  4014d3:	pop    eax
  4014d4:	push   eax
  4014d5:	mov    esi,0x0
  4014da:	push   esi
  4014db:	mov    eax,0x404060
  4014e0:	call   DWORD PTR [eax]
  4014e2:	pop    eax
  4014e3:	sub    esp,0xffffffd4
  4014e6:	mov    ebp,DWORD PTR [esp]
  4014e9:	add    esp,0x4
  4014ec:	ret    
	...
  40153d:	add    BYTE PTR [eax],al
  40153f:	add    BYTE PTR [ebx-0x1374aa01],cl
  401545:	sub    esp,0x4c
  401548:	push   eax
  401549:	lea    eax,[eax-0x100]
  40154f:	push   eax
  401550:	mov    eax,0x404000
  401555:	call   DWORD PTR [eax]
  401557:	test   eax,eax
  401559:	jne    0x401549
  40155b:	pop    eax
  40155c:	push   eax
  40155d:	push   ebx
  40155e:	push   edi
  40155f:	push   ebx
  401560:	push   edi
  401561:	call   0x402368
  401566:	add    esp,0x10
  401569:	pop    eax
  40156a:	push   eax
  40156b:	push   0x0
  40156d:	mov    eax,0x404060
  401572:	call   DWORD PTR [eax]
  401574:	pop    eax
  401575:	sub    esp,0xffffffb4
  401578:	mov    ebp,DWORD PTR [esp]
  40157b:	add    esp,0x4
  40157e:	ret    
  40157f:	add    BYTE PTR [ebx-0x1374aa01],cl
  401585:	sub    esp,0x34
  401588:	push   eax
  401589:	lea    ebx,[eax-0x100]
  40158f:	push   ebx
  401590:	mov    eax,0x404000
  401595:	call   DWORD PTR [eax]
  401597:	test   eax,eax
  401599:	jne    0x401589
  40159b:	pop    eax
  40159c:	push   eax
  40159d:	push   edx
  40159e:	push   DWORD PTR [eax+0x1cc]
  4015a4:	push   edi
  4015a5:	push   DWORD PTR [eax+0x130]
  4015ab:	call   0x401e44
  4015b0:	add    esp,0x10
  4015b3:	pop    eax
  4015b4:	push   eax
  4015b5:	mov    eax,0x404030
  4015ba:	call   DWORD PTR [eax]
  4015bc:	pop    eax
  4015bd:	sub    esp,0xffffffcc
  4015c0:	mov    ebp,DWORD PTR [esp]
  4015c3:	add    esp,0x4
  4015c6:	ret    
  4015c7:	add    BYTE PTR [ebx-0x1374aa01],cl
  4015cd:	sub    esp,0x5c
  4015d0:	push   eax
  4015d1:	push   0x0
  4015d3:	mov    eax,0x404038
  4015d8:	call   DWORD PTR [eax]
  4015da:	pop    eax
  4015db:	push   eax
  4015dc:	push   ebx
  4015dd:	push   DWORD PTR [eax+0x13c]
  4015e3:	call   0x401180
  4015e8:	add    esp,0x8
  4015eb:	pop    eax
  4015ec:	push   eax
  4015ed:	mov    esi,0x0
  4015f2:	push   esi
  4015f3:	mov    eax,0x404040
  4015f8:	call   DWORD PTR [eax]
  4015fa:	pop    eax
  4015fb:	sub    esp,0xffffffa4
  4015fe:	mov    ebp,DWORD PTR [esp]
  401601:	add    esp,0x4
  401604:	ret    
  401605:	add    BYTE PTR [eax],al
  401607:	add    BYTE PTR [ebx-0x1374aa01],cl
  40160d:	sub    esp,0x3c
  401610:	push   eax
  401611:	mov    eax,0x404028
  401616:	call   DWORD PTR [eax]
  401618:	pop    eax
  401619:	push   eax
  40161a:	push   DWORD PTR [eax+0x27c]
  401620:	push   edx
  401621:	push   DWORD PTR [eax+0x3a0]
  401627:	push   DWORD PTR [eax+0xb4]
  40162d:	call   0x4010f0
  401632:	add    esp,0x10
  401635:	pop    eax
  401636:	push   eax
  401637:	push   0x0
  401639:	mov    eax,0x404004
  40163e:	call   DWORD PTR [eax]
  401640:	pop    eax
  401641:	sub    esp,0xffffffc4
  401644:	mov    ebp,DWORD PTR [esp]
  401647:	add    esp,0x4
  40164a:	ret    
  40164b:	add    BYTE PTR [ebx-0x1374aa01],cl
  401651:	sub    esp,0x20
  401654:	push   eax
  401655:	mov    esi,0x0
  40165a:	push   esi
  40165b:	mov    eax,0x404048
  401660:	call   DWORD PTR [eax]
  401662:	pop    eax
  401663:	push   eax
  401664:	push   ebx
  401665:	push   esi
  401666:	push   DWORD PTR [eax+0x234]
  40166c:	push   DWORD PTR [eax+0x360]
  401672:	call   0x401a88
  401677:	add    esp,0x10
  40167a:	pop    eax
  40167b:	push   eax
  40167c:	push   0x0
  40167e:	mov    eax,0x404048
  401683:	call   DWORD PTR [eax]
  401685:	pop    eax
  401686:	sub    esp,0xffffffe0
  401689:	mov    ebp,DWORD PTR [esp]
  40168c:	add    esp,0x4
  40168f:	ret    
  401690:	mov    edi,edi
  401692:	push   ebp
  401693:	mov    ebp,esp
  401695:	sub    esp,0x1c
  401698:	push   eax
  401699:	mov    edi,0x0
  40169e:	push   edi
  40169f:	mov    eax,0x404020
  4016a4:	call   DWORD PTR [eax]
  4016a6:	pop    eax
  4016a7:	push   eax
  4016a8:	push   edi
  4016a9:	push   esi
  4016aa:	call   0x401898
  4016af:	add    esp,0x8
  4016b2:	pop    eax
  4016b3:	push   eax
  4016b4:	push   0x0
  4016b6:	mov    eax,0x404020
  4016bb:	call   DWORD PTR [eax]
  4016bd:	pop    eax
  4016be:	sub    esp,0xffffffe4
  4016c1:	mov    ebp,DWORD PTR [esp]
  4016c4:	add    esp,0x4
  4016c7:	ret    
	...
  401718:	mov    edi,edi
  40171a:	push   ebp
  40171b:	mov    ebp,esp
  40171d:	sub    esp,0x50
  401720:	push   eax
  401721:	push   DWORD PTR [eax+0x33c]
  401727:	push   ecx
  401728:	push   esi
  401729:	call   0x401ed0
  40172e:	add    esp,0xc
  401731:	pop    eax
  401732:	push   eax
  401733:	mov    esi,0x0
  401738:	push   esi
  401739:	mov    eax,0x40404c
  40173e:	call   DWORD PTR [eax]
  401740:	pop    eax
  401741:	push   eax
  401742:	push   0x0
  401744:	mov    eax,0x404060
  401749:	call   DWORD PTR [eax]
  40174b:	pop    eax
  40174c:	sub    esp,0xffffffb0
  40174f:	mov    ebp,DWORD PTR [esp]
  401752:	add    esp,0x4
  401755:	ret    
	...
  401846:	add    BYTE PTR [eax],al
  401848:	pusha  
  401849:	xor    edx,edx
  40184b:	push   edx
  40184c:	call   DWORD PTR ds:0x404080
  401852:	mov    eax,0x404094
  401857:	sub    eax,0x1
  40185a:	push   0x0
  40185c:	call   DWORD PTR [eax+0x1]
  40185f:	xor    edx,edx
  401861:	add    edx,0x458200
  401867:	dec    dh
  401869:	push   edx
  40186a:	lea    ecx,[edx+0xc]
  40186d:	add    BYTE PTR [ecx],0x4
  401870:	push   edx
  401871:	call   DWORD PTR ds:0x404034
  401877:	mov    ecx,eax
  401879:	mov    cl,0x3c
  40187b:	mov    ecx,DWORD PTR [ecx]
  40187d:	mov    ecx,DWORD PTR [eax+ecx*1+0x1c]
  401881:	ror    ecx,0xc
  401884:	mov    eax,ecx
  401886:	cmp    al,0x10
  401888:	pop    eax
  401889:	jb     0x4011c4
  40188f:	ja     0x401138
  401895:	ret    
  401896:	add    BYTE PTR [eax],al
  401898:	mov    edi,edi
  40189a:	push   ebp
  40189b:	mov    ebp,esp
  40189d:	sub    esp,0x4c
  4018a0:	push   eax
  4018a1:	push   DWORD PTR [eax+0x190]
  4018a7:	push   ecx
  4018a8:	call   0x401cb8
  4018ad:	add    esp,0x8
  4018b0:	pop    eax
  4018b1:	push   eax
  4018b2:	push   0x0
  4018b4:	mov    eax,0x404070
  4018b9:	call   DWORD PTR [eax]
  4018bb:	pop    eax
  4018bc:	push   eax
  4018bd:	push   0x0
  4018bf:	mov    eax,0x404038
  4018c4:	call   DWORD PTR [eax]
  4018c6:	pop    eax
  4018c7:	sub    esp,0xffffffb4
  4018ca:	mov    ebp,DWORD PTR [esp]
  4018cd:	add    esp,0x4
  4018d0:	ret    
	...
  4019c1:	add    BYTE PTR [eax],al
  4019c3:	add    BYTE PTR [ebx-0x1374aa01],cl
  4019c9:	sub    esp,0x2c
  4019cc:	push   eax
  4019cd:	push   ecx
  4019ce:	push   DWORD PTR [eax+0x30c]
  4019d4:	push   esi
  4019d5:	call   0x4028d4
  4019da:	add    esp,0xc
  4019dd:	pop    eax
  4019de:	push   eax
  4019df:	mov    esi,0x0
  4019e4:	push   esi
  4019e5:	mov    eax,0x404080
  4019ea:	call   DWORD PTR [eax]
  4019ec:	pop    eax
  4019ed:	push   eax
  4019ee:	mov    ebx,0x0
  4019f3:	push   ebx
  4019f4:	mov    eax,0x404040
  4019f9:	call   DWORD PTR [eax]
  4019fb:	pop    eax
  4019fc:	sub    esp,0xffffffd4
  4019ff:	mov    ebp,DWORD PTR [esp]
  401a02:	add    esp,0x4
  401a05:	ret    
  401a06:	add    BYTE PTR [eax],al
  401a08:	mov    edi,edi
  401a0a:	push   ebp
  401a0b:	mov    ebp,esp
  401a0d:	sub    esp,0x3c
  401a10:	push   eax
  401a11:	mov    eax,0x404030
  401a16:	call   DWORD PTR [eax]
  401a18:	pop    eax
  401a19:	push   eax
  401a1a:	push   edx
  401a1b:	push   DWORD PTR [eax+0x5c]
  401a1e:	push   edx
  401a1f:	push   DWORD PTR [eax+0x168]
  401a25:	call   0x401c80
  401a2a:	add    esp,0x10
  401a2d:	pop    eax
  401a2e:	push   eax
  401a2f:	mov    edx,0x0
  401a34:	push   edx
  401a35:	mov    eax,0x404080
  401a3a:	call   DWORD PTR [eax]
  401a3c:	pop    eax
  401a3d:	sub    esp,0xffffffc4
  401a40:	mov    ebp,DWORD PTR [esp]
  401a43:	add    esp,0x4
  401a46:	ret    
  401a47:	add    BYTE PTR [ebx-0x1374aa01],cl
  401a4d:	sub    esp,0x48
  401a50:	push   eax
  401a51:	push   0x0
  401a53:	mov    eax,0x404070
  401a58:	call   DWORD PTR [eax]
  401a5a:	pop    eax
  401a5b:	push   eax
  401a5c:	push   edi
  401a5d:	push   DWORD PTR [eax+0x278]
  401a63:	push   ebx
  401a64:	call   0x401718
  401a69:	add    esp,0xc
  401a6c:	pop    eax
  401a6d:	push   eax
  401a6e:	mov    eax,0x0
  401a73:	push   eax
  401a74:	mov    eax,0x404080
  401a79:	call   DWORD PTR [eax]
  401a7b:	pop    eax
  401a7c:	sub    esp,0xffffffb8
  401a7f:	mov    ebp,DWORD PTR [esp]
  401a82:	add    esp,0x4
  401a85:	ret    
  401a86:	add    BYTE PTR [eax],al
  401a88:	mov    edi,edi
  401a8a:	push   ebp
  401a8b:	mov    ebp,esp
  401a8d:	sub    esp,0x20
  401a90:	push   eax
  401a91:	mov    edi,0x0
  401a96:	push   edi
  401a97:	mov    eax,0x404048
  401a9c:	call   DWORD PTR [eax]
  401a9e:	pop    eax
  401a9f:	push   eax
  401aa0:	push   edx
  401aa1:	push   DWORD PTR [eax+0x32c]
  401aa7:	push   ecx
  401aa8:	call   0x402088
  401aad:	add    esp,0xc
  401ab0:	pop    eax
  401ab1:	push   eax
  401ab2:	mov    edi,0x0
  401ab7:	push   edi
  401ab8:	mov    eax,0x404038
  401abd:	call   DWORD PTR [eax]
  401abf:	pop    eax
  401ac0:	sub    esp,0xffffffe0
  401ac3:	mov    ebp,DWORD PTR [esp]
  401ac6:	add    esp,0x4
  401ac9:	ret    
  401aca:	add    BYTE PTR [eax],al
  401acc:	mov    edi,edi
  401ace:	push   ebp
  401acf:	mov    ebp,esp
  401ad1:	sub    esp,0x30
  401ad4:	push   eax
  401ad5:	push   esi
  401ad6:	push   DWORD PTR [eax+0x29c]
  401adc:	push   DWORD PTR [eax+0x178]
  401ae2:	push   ebx
  401ae3:	call   0x402730
  401ae8:	add    esp,0x10
  401aeb:	pop    eax
  401aec:	push   eax
  401aed:	mov    eax,0x0
  401af2:	push   eax
  401af3:	mov    eax,0x40404c
  401af8:	call   DWORD PTR [eax]
  401afa:	pop    eax
  401afb:	push   eax
  401afc:	push   0x0
  401afe:	mov    eax,0x404040
  401b03:	call   DWORD PTR [eax]
  401b05:	pop    eax
  401b06:	sub    esp,0xffffffd0
  401b09:	mov    ebp,DWORD PTR [esp]
  401b0c:	add    esp,0x4
  401b0f:	ret    
	...
  401b60:	mov    edi,edi
  401b62:	push   ebp
  401b63:	mov    ebp,esp
  401b65:	sub    esp,0x54
  401b68:	push   eax
  401b69:	push   DWORD PTR [eax+0x1e4]
  401b6f:	push   DWORD PTR [eax+0x8c]
  401b75:	push   edx
  401b76:	call   0x4014b0
  401b7b:	add    esp,0xc
  401b7e:	pop    eax
  401b7f:	push   eax
  401b80:	push   0x0
  401b82:	mov    eax,0x404024
  401b87:	call   DWORD PTR [eax]
  401b89:	pop    eax
  401b8a:	push   eax
  401b8b:	mov    eax,0x0
  401b90:	push   eax
  401b91:	mov    eax,0x40404c
  401b96:	call   DWORD PTR [eax]
  401b98:	pop    eax
  401b99:	sub    esp,0xffffffac
  401b9c:	mov    ebp,DWORD PTR [esp]
  401b9f:	add    esp,0x4
  401ba2:	ret    
  401ba3:	add    BYTE PTR [ebx-0x1374aa01],cl
  401ba9:	sub    esp,0x50
  401bac:	push   eax
  401bad:	push   0x0
  401baf:	mov    eax,0x404048
  401bb4:	call   DWORD PTR [eax]
  401bb6:	pop    eax
  401bb7:	push   eax
  401bb8:	push   esi
  401bb9:	push   DWORD PTR [eax+0x1c0]
  401bbf:	push   DWORD PTR [eax+0x1a0]
  401bc5:	call   0x4011c8
  401bca:	add    esp,0xc
  401bcd:	pop    eax
  401bce:	push   eax
  401bcf:	lea    ecx,[eax-0x100]
  401bd5:	push   ecx
  401bd6:	mov    eax,0x404000
  401bdb:	call   DWORD PTR [eax]
  401bdd:	test   eax,eax
  401bdf:	jne    0x401bcf
  401be1:	pop    eax
  401be2:	sub    esp,0xffffffb0
  401be5:	mov    ebp,DWORD PTR [esp]
  401be8:	add    esp,0x4
  401beb:	ret    
  401bec:	mov    edi,edi
  401bee:	push   ebp
  401bef:	mov    ebp,esp
  401bf1:	sub    esp,0x44
  401bf4:	push   eax
  401bf5:	push   0x6b4
  401bfa:	push   0x6b4
  401bff:	mov    eax,0x40001
  401c04:	push   eax
  401c05:	push   0x0
  401c07:	xor    DWORD PTR [esp],0x89e6ba81
  401c0e:	pop    edx
  401c0f:	sub    edx,0x89a67a45
  401c15:	push   DWORD PTR [edx]
  401c17:	sub    DWORD PTR [esp],0x2
  401c1b:	mov    edx,0x404034
  401c20:	pop    DWORD PTR [edx]
  401c22:	mov    eax,0x404034
  401c27:	call   DWORD PTR [eax]
  401c29:	xchg   DWORD PTR [esp],eax
  401c2c:	pop    DWORD PTR [eax+0x28]
  401c2f:	mov    ebx,DWORD PTR [eax+0x28]
  401c32:	lea    esi,[ebx]
  401c34:	sub    ecx,ecx
  401c36:	dec    ecx
  401c37:	and    ecx,0x4029ea
  401c3d:	mov    edx,0x7a89d45a
  401c42:	xor    ebx,ebx
  401c44:	add    ebx,0x6b4
  401c4a:	mov    edi,edx
  401c4c:	xor    edi,DWORD PTR [ecx]
  401c4e:	push   edi
  401c4f:	sub    edi,edi
  401c51:	sub    DWORD PTR [esp],0x1
  401c55:	pop    DWORD PTR [esi+edi*2]
  401c58:	push   0x0
  401c5a:	sub    DWORD PTR [esp],edx
  401c5d:	mov    edx,0xfffffffc
  401c62:	sub    ecx,edx
  401c64:	sub    esi,edx
  401c66:	pop    edx
  401c67:	sub    ebx,0x4
  401c6a:	cmp    ebx,0x0
  401c6d:	jne    0x401c4a
  401c6f:	push   eax
  401c70:	mov    eax,0x40402c
  401c75:	call   DWORD PTR [eax]
  401c77:	pop    eax
  401c78:	sub    esp,0xffffffbc
  401c7b:	pop    ebp
  401c7c:	ret    
  401c7d:	add    BYTE PTR [eax],al
  401c7f:	add    BYTE PTR [ebx-0x1374aa01],cl
  401c85:	sub    esp,0x2c
  401c88:	push   eax
  401c89:	mov    eax,0x404030
  401c8e:	call   DWORD PTR [eax]
  401c90:	pop    eax
  401c91:	push   eax
  401c92:	push   esi
  401c93:	push   DWORD PTR [eax+0x25c]
  401c99:	call   0x401dc8
  401c9e:	add    esp,0x8
  401ca1:	pop    eax
  401ca2:	push   eax
  401ca3:	push   0x0
  401ca5:	mov    eax,0x404008
  401caa:	call   DWORD PTR [eax]
  401cac:	pop    eax
  401cad:	sub    esp,0xffffffd4
  401cb0:	mov    ebp,DWORD PTR [esp]
  401cb3:	add    esp,0x4
  401cb6:	ret    
  401cb7:	add    BYTE PTR [ebx-0x1374aa01],cl
  401cbd:	sub    esp,0x4c
  401cc0:	push   eax
  401cc1:	push   0x0
  401cc3:	mov    eax,0x404024
  401cc8:	call   DWORD PTR [eax]
  401cca:	pop    eax
  401ccb:	push   eax
  401ccc:	push   DWORD PTR [eax+0x70]
  401ccf:	push   DWORD PTR [eax+0x1cc]
  401cd5:	push   DWORD PTR [eax+0x40]
  401cd8:	push   ebx
  401cd9:	call   0x402164
  401cde:	add    esp,0x10
  401ce1:	pop    eax
  401ce2:	push   eax
  401ce3:	push   0x0
  401ce5:	mov    eax,0x404070
  401cea:	call   DWORD PTR [eax]
  401cec:	pop    eax
  401ced:	sub    esp,0xffffffb4
  401cf0:	mov    ebp,DWORD PTR [esp]
  401cf3:	add    esp,0x4
  401cf6:	ret    
  401cf7:	add    BYTE PTR [ebx-0x1374aa01],cl
  401cfd:	sub    esp,0x30
  401d00:	push   eax
  401d01:	push   ecx
  401d02:	push   edx
  401d03:	push   DWORD PTR [eax+0x2dc]
  401d09:	push   DWORD PTR [eax+0x134]
  401d0f:	call   0x40288c
  401d14:	add    esp,0x10
  401d17:	pop    eax
  401d18:	push   eax
  401d19:	push   0x0
  401d1b:	mov    eax,0x404038
  401d20:	call   DWORD PTR [eax]
  401d22:	pop    eax
  401d23:	push   eax
  401d24:	push   0x0
  401d26:	mov    eax,0x404024
  401d2b:	call   DWORD PTR [eax]
  401d2d:	pop    eax
  401d2e:	sub    esp,0xffffffd0
  401d31:	mov    ebp,DWORD PTR [esp]
  401d34:	add    esp,0x4
  401d37:	ret    
	...
  401d88:	mov    edi,edi
  401d8a:	push   ebp
  401d8b:	mov    ebp,esp
  401d8d:	sub    esp,0x58
  401d90:	push   eax
  401d91:	mov    esi,0x0
  401d96:	push   esi
  401d97:	mov    eax,0x404048
  401d9c:	call   DWORD PTR [eax]
  401d9e:	pop    eax
  401d9f:	push   eax
  401da0:	push   DWORD PTR [eax+0xb8]
  401da6:	push   ebx
  401da7:	call   0x401dfc
  401dac:	add    esp,0x8
  401daf:	pop    eax
  401db0:	push   eax
  401db1:	push   0x0
  401db3:	mov    eax,0x404024
  401db8:	call   DWORD PTR [eax]
  401dba:	pop    eax
  401dbb:	sub    esp,0xffffffa8
  401dbe:	mov    ebp,DWORD PTR [esp]
  401dc1:	add    esp,0x4
  401dc4:	ret    
  401dc5:	add    BYTE PTR [eax],al
  401dc7:	add    BYTE PTR [ebx-0x1374aa01],cl
  401dcd:	sub    esp,0x54
  401dd0:	push   eax
  401dd1:	push   ecx
  401dd2:	push   esi
  401dd3:	call   0x40125c
  401dd8:	add    esp,0x8
  401ddb:	pop    eax
  401ddc:	push   eax
  401ddd:	push   0x0
  401ddf:	mov    eax,0x404008
  401de4:	call   DWORD PTR [eax]
  401de6:	pop    eax
  401de7:	push   eax
  401de8:	mov    eax,0x404028
  401ded:	call   DWORD PTR [eax]
  401def:	pop    eax
  401df0:	sub    esp,0xffffffac
  401df3:	mov    ebp,DWORD PTR [esp]
  401df6:	add    esp,0x4
  401df9:	ret    
  401dfa:	add    BYTE PTR [eax],al
  401dfc:	mov    edi,edi
  401dfe:	push   ebp
  401dff:	mov    ebp,esp
  401e01:	sub    esp,0x44
  401e04:	push   eax
  401e05:	push   DWORD PTR [eax+0x2ec]
  401e0b:	push   edx
  401e0c:	push   DWORD PTR [eax+0x128]
  401e12:	push   DWORD PTR [eax+0x280]
  401e18:	call   0x4027d0
  401e1d:	add    esp,0x10
  401e20:	pop    eax
  401e21:	push   eax
  401e22:	push   0x0
  401e24:	mov    eax,0x404020
  401e29:	call   DWORD PTR [eax]
  401e2b:	pop    eax
  401e2c:	push   eax
  401e2d:	push   0x0
  401e2f:	mov    eax,0x404060
  401e34:	call   DWORD PTR [eax]
  401e36:	pop    eax
  401e37:	sub    esp,0xffffffbc
  401e3a:	mov    ebp,DWORD PTR [esp]
  401e3d:	add    esp,0x4
  401e40:	ret    
  401e41:	add    BYTE PTR [eax],al
  401e43:	add    BYTE PTR [ebx-0x1374aa01],cl
  401e49:	sub    esp,0x40
  401e4c:	push   eax
  401e4d:	push   0x0
  401e4f:	mov    eax,0x404060
  401e54:	call   DWORD PTR [eax]
  401e56:	pop    eax
  401e57:	push   eax
  401e58:	push   ecx
  401e59:	push   DWORD PTR [eax+0x140]
  401e5f:	call   0x40164c
  401e64:	add    esp,0x8
  401e67:	pop    eax
  401e68:	push   eax
  401e69:	push   0x0
  401e6b:	mov    eax,0x404048
  401e70:	call   DWORD PTR [eax]
  401e72:	pop    eax
  401e73:	sub    esp,0xffffffc0
  401e76:	mov    ebp,DWORD PTR [esp]
  401e79:	add    esp,0x4
  401e7c:	ret    
	...
  401ecd:	add    BYTE PTR [eax],al
  401ecf:	add    BYTE PTR [ebx-0x1374aa01],cl
  401ed5:	sub    esp,0x54
  401ed8:	push   eax
  401ed9:	push   edi
  401eda:	push   DWORD PTR [eax+0x2f4]
  401ee0:	push   edx
  401ee1:	call   0x4026e8
  401ee6:	add    esp,0xc
  401ee9:	pop    eax
  401eea:	push   eax
  401eeb:	mov    ebx,0x0
  401ef0:	push   ebx
  401ef1:	mov    eax,0x404020
  401ef6:	call   DWORD PTR [eax]
  401ef8:	pop    eax
  401ef9:	push   eax
  401efa:	lea    ecx,[eax-0x100]
  401f00:	push   ecx
  401f01:	mov    eax,0x404000
  401f06:	call   DWORD PTR [eax]
  401f08:	test   eax,eax
  401f0a:	jne    0x401efa
  401f0c:	pop    eax
  401f0d:	sub    esp,0xffffffac
  401f10:	mov    ebp,DWORD PTR [esp]
  401f13:	add    esp,0x4
  401f16:	ret    
	...
  401f67:	add    BYTE PTR [ebx-0x1374aa01],cl
  401f6d:	sub    esp,0x38
  401f70:	push   eax
  401f71:	lea    ecx,[eax-0x100]
  401f77:	push   ecx
  401f78:	mov    eax,0x404000
  401f7d:	call   DWORD PTR [eax]
  401f7f:	test   eax,eax
  401f81:	jne    0x401f71
  401f83:	pop    eax
  401f84:	push   eax
  401f85:	push   DWORD PTR [eax+0x284]
  401f8b:	push   edx
  401f8c:	push   edx
  401f8d:	push   DWORD PTR [eax+0x10c]
  401f93:	call   0x4021a4
  401f98:	add    esp,0x10
  401f9b:	pop    eax
  401f9c:	push   eax
  401f9d:	push   0x0
  401f9f:	mov    eax,0x404038
  401fa4:	call   DWORD PTR [eax]
  401fa6:	pop    eax
  401fa7:	sub    esp,0xffffffc8
  401faa:	mov    ebp,DWORD PTR [esp]
  401fad:	add    esp,0x4
  401fb0:	ret    
	...
  402051:	add    BYTE PTR [eax],al
  402053:	add    BYTE PTR [ebx-0x1374aa01],cl
  402059:	sub    esp,0x30
  40205c:	push   eax
  40205d:	push   ebx
  40205e:	push   edx
  40205f:	call   0x401690
  402064:	add    esp,0x8
  402067:	pop    eax
  402068:	push   eax
  402069:	push   0x0
  40206b:	mov    eax,0x404024
  402070:	call   DWORD PTR [eax]
  402072:	pop    eax
  402073:	push   eax
  402074:	mov    eax,0x404028
  402079:	call   DWORD PTR [eax]
  40207b:	pop    eax
  40207c:	sub    esp,0xffffffd0
  40207f:	mov    ebp,DWORD PTR [esp]
  402082:	add    esp,0x4
  402085:	ret    
  402086:	add    BYTE PTR [eax],al
  402088:	mov    edi,edi
  40208a:	push   ebp
  40208b:	mov    ebp,esp
  40208d:	sub    esp,0x5c
  402090:	push   eax
  402091:	push   DWORD PTR [eax+0x2e4]
  402097:	push   edx
  402098:	push   edi
  402099:	call   0x401cf8
  40209e:	add    esp,0xc
  4020a1:	pop    eax
  4020a2:	push   eax
  4020a3:	push   0x0
  4020a5:	mov    eax,0x404040
  4020aa:	call   DWORD PTR [eax]
  4020ac:	pop    eax
  4020ad:	push   eax
  4020ae:	push   0x0
  4020b0:	mov    eax,0x404020
  4020b5:	call   DWORD PTR [eax]
  4020b7:	pop    eax
  4020b8:	sub    esp,0xffffffa4
  4020bb:	mov    ebp,DWORD PTR [esp]
  4020be:	add    esp,0x4
  4020c1:	ret    
	...
  402162:	add    BYTE PTR [eax],al
  402164:	mov    edi,edi
  402166:	push   ebp
  402167:	mov    ebp,esp
  402169:	sub    esp,0x3c
  40216c:	push   eax
  40216d:	mov    eax,0x0
  402172:	push   eax
  402173:	mov    eax,0x404004
  402178:	call   DWORD PTR [eax]
  40217a:	pop    eax
  40217b:	push   eax
  40217c:	push   edi
  40217d:	push   DWORD PTR [eax+0x304]
  402183:	push   esi
  402184:	call   0x401bec
  402189:	add    esp,0xc
  40218c:	pop    eax
  40218d:	push   eax
  40218e:	push   0x0
  402190:	mov    eax,0x40404c
  402195:	call   DWORD PTR [eax]
  402197:	pop    eax
  402198:	sub    esp,0xffffffc4
  40219b:	mov    ebp,DWORD PTR [esp]
  40219e:	add    esp,0x4
  4021a1:	ret    
  4021a2:	add    BYTE PTR [eax],al
  4021a4:	mov    edi,edi
  4021a6:	push   ebp
  4021a7:	mov    ebp,esp
  4021a9:	sub    esp,0x28
  4021ac:	push   eax
  4021ad:	mov    edi,0x0
  4021b2:	push   edi
  4021b3:	mov    eax,0x404080
  4021b8:	call   DWORD PTR [eax]
  4021ba:	pop    eax
  4021bb:	push   eax
  4021bc:	push   DWORD PTR [eax+0x308]
  4021c2:	push   edx
  4021c3:	call   0x401388
  4021c8:	add    esp,0x8
  4021cb:	pop    eax
  4021cc:	push   eax
  4021cd:	lea    esi,[eax-0x100]
  4021d3:	push   esi
  4021d4:	mov    eax,0x404000
  4021d9:	call   DWORD PTR [eax]
  4021db:	test   eax,eax
  4021dd:	jne    0x4021cd
  4021df:	pop    eax
  4021e0:	sub    esp,0xffffffd8
  4021e3:	mov    ebp,DWORD PTR [esp]
  4021e6:	add    esp,0x4
  4021e9:	ret    
  4021ea:	add    BYTE PTR [eax],al
  4021ec:	mov    edi,edi
  4021ee:	push   ebp
  4021ef:	mov    ebp,esp
  4021f1:	sub    esp,0x5c
  4021f4:	push   eax
  4021f5:	push   0x0
  4021f7:	mov    eax,0x404070
  4021fc:	call   DWORD PTR [eax]
  4021fe:	pop    eax
  4021ff:	push   eax
  402200:	push   edi
  402201:	push   ecx
  402202:	push   DWORD PTR [eax]
  402204:	call   0x401f68
  402209:	add    esp,0xc
  40220c:	pop    eax
  40220d:	push   eax
  40220e:	mov    ecx,0x0
  402213:	push   ecx
  402214:	mov    eax,0x404080
  402219:	call   DWORD PTR [eax]
  40221b:	pop    eax
  40221c:	sub    esp,0xffffffa4
  40221f:	mov    ebp,DWORD PTR [esp]
  402222:	add    esp,0x4
  402225:	ret    
	...
  402366:	add    BYTE PTR [eax],al
  402368:	mov    edi,edi
  40236a:	push   ebp
  40236b:	mov    ebp,esp
  40236d:	sub    esp,0x34
  402370:	push   eax
  402371:	push   edx
  402372:	push   DWORD PTR [eax+0x27c]
  402378:	push   esi
  402379:	push   ecx
  40237a:	call   0x401b60
  40237f:	add    esp,0x10
  402382:	pop    eax
  402383:	push   eax
  402384:	push   0x0
  402386:	mov    eax,0x404004
  40238b:	call   DWORD PTR [eax]
  40238d:	pop    eax
  40238e:	push   eax
  40238f:	mov    eax,0x404030
  402394:	call   DWORD PTR [eax]
  402396:	pop    eax
  402397:	sub    esp,0xffffffcc
  40239a:	mov    ebp,DWORD PTR [esp]
  40239d:	add    esp,0x4
  4023a0:	ret    
	...
  402441:	add    BYTE PTR [eax],al
  402443:	add    BYTE PTR [ebx-0x1374aa01],cl
  402449:	sub    esp,0x44
  40244c:	push   eax
  40244d:	mov    esi,0x0
  402452:	push   esi
  402453:	mov    eax,0x404024
  402458:	call   DWORD PTR [eax]
  40245a:	pop    eax
  40245b:	push   eax
  40245c:	push   ecx
  40245d:	push   edi
  40245e:	call   0x40251c
  402463:	add    esp,0x8
  402466:	pop    eax
  402467:	push   eax
  402468:	mov    eax,0x404028
  40246d:	call   DWORD PTR [eax]
  40246f:	pop    eax
  402470:	sub    esp,0xffffffbc
  402473:	mov    ebp,DWORD PTR [esp]
  402476:	add    esp,0x4
  402479:	ret    
	...
  40251a:	add    BYTE PTR [eax],al
  40251c:	mov    edi,edi
  40251e:	push   ebp
  40251f:	mov    ebp,esp
  402521:	sub    esp,0x58
  402524:	push   eax
  402525:	push   DWORD PTR [eax+0x274]
  40252b:	push   DWORD PTR [eax+0x14]
  40252e:	call   0x4021ec
  402533:	add    esp,0x8
  402536:	pop    eax
  402537:	push   eax
  402538:	push   0x0
  40253a:	mov    eax,0x404080
  40253f:	call   DWORD PTR [eax]
  402541:	pop    eax
  402542:	push   eax
  402543:	push   0x0
  402545:	mov    eax,0x404004
  40254a:	call   DWORD PTR [eax]
  40254c:	pop    eax
  40254d:	sub    esp,0xffffffa8
  402550:	mov    ebp,DWORD PTR [esp]
  402553:	add    esp,0x4
  402556:	ret    
	...
  4026e7:	add    BYTE PTR [ebx-0x1374aa01],cl
  4026ed:	sub    esp,0x30
  4026f0:	push   eax
  4026f1:	push   DWORD PTR [eax+0x2c]
  4026f4:	push   DWORD PTR [eax+0x1ec]
  4026fa:	push   DWORD PTR [eax+0x8c]
  402700:	push   DWORD PTR [eax+0xa0]
  402706:	call   0x401540
  40270b:	add    esp,0x10
  40270e:	pop    eax
  40270f:	push   eax
  402710:	mov    eax,0x40402c
  402715:	call   DWORD PTR [eax]
  402717:	pop    eax
  402718:	push   eax
  402719:	push   0x0
  40271b:	mov    eax,0x404038
  402720:	call   DWORD PTR [eax]
  402722:	pop    eax
  402723:	sub    esp,0xffffffd0
  402726:	mov    ebp,DWORD PTR [esp]
  402729:	add    esp,0x4
  40272c:	ret    
  40272d:	add    BYTE PTR [eax],al
  40272f:	add    BYTE PTR [ebx-0x1374aa01],cl
  402735:	sub    esp,0x1c
  402738:	push   eax
  402739:	push   DWORD PTR [eax+0x1d0]
  40273f:	push   DWORD PTR [eax+0x340]
  402745:	push   DWORD PTR [eax+0x3c4]
  40274b:	push   DWORD PTR [eax+0x1fc]
  402751:	call   0x401d88
  402756:	add    esp,0x10
  402759:	pop    eax
  40275a:	push   eax
  40275b:	push   0x0
  40275d:	mov    eax,0x404048
  402762:	call   DWORD PTR [eax]
  402764:	pop    eax
  402765:	push   eax
  402766:	mov    esi,0x0
  40276b:	push   esi
  40276c:	mov    eax,0x404024
  402771:	call   DWORD PTR [eax]
  402773:	pop    eax
  402774:	sub    esp,0xffffffe4
  402777:	mov    ebp,DWORD PTR [esp]
  40277a:	add    esp,0x4
  40277d:	ret    
	...
  4027ce:	add    BYTE PTR [eax],al
  4027d0:	mov    edi,edi
  4027d2:	push   ebp
  4027d3:	mov    ebp,esp
  4027d5:	sub    esp,0x38
  4027d8:	push   eax
  4027d9:	push   esi
  4027da:	push   DWORD PTR [eax+0x1ac]
  4027e0:	call   0x40280c
  4027e5:	add    esp,0x8
  4027e8:	pop    eax
  4027e9:	push   eax
  4027ea:	push   0x0
  4027ec:	mov    eax,0x404040
  4027f1:	call   DWORD PTR [eax]
  4027f3:	pop    eax
  4027f4:	push   eax
  4027f5:	push   0x0
  4027f7:	mov    eax,0x404060
  4027fc:	call   DWORD PTR [eax]
  4027fe:	pop    eax
  4027ff:	sub    esp,0xffffffc8
  402802:	mov    ebp,DWORD PTR [esp]
  402805:	add    esp,0x4
  402808:	ret    
  402809:	add    BYTE PTR [eax],al
  40280b:	add    BYTE PTR [ebx-0x1374aa01],cl
  402811:	sub    esp,0x28
  402814:	push   eax
  402815:	mov    eax,0x40402c
  40281a:	call   DWORD PTR [eax]
  40281c:	pop    eax
  40281d:	push   eax
  40281e:	push   DWORD PTR [eax+0x34c]
  402824:	push   edi
  402825:	push   DWORD PTR [eax+0x4]
  402828:	call   0x401a08
  40282d:	add    esp,0xc
  402830:	pop    eax
  402831:	push   eax
  402832:	mov    ecx,0x0
  402837:	push   ecx
  402838:	mov    eax,0x404048
  40283d:	call   DWORD PTR [eax]
  40283f:	pop    eax
  402840:	sub    esp,0xffffffd8
  402843:	mov    ebp,DWORD PTR [esp]
  402846:	add    esp,0x4
  402849:	ret    
  40284a:	add    BYTE PTR [eax],al
  40284c:	mov    edi,edi
  40284e:	push   ebp
  40284f:	mov    ebp,esp
  402851:	sub    esp,0x2c
  402854:	push   eax
  402855:	push   DWORD PTR [eax+0x11c]
  40285b:	push   DWORD PTR [eax+0x370]
  402861:	call   0x401acc
  402866:	add    esp,0x8
  402869:	pop    eax
  40286a:	push   eax
  40286b:	mov    ecx,0x0
  402870:	push   ecx
  402871:	mov    eax,0x404038
  402876:	call   DWORD PTR [eax]
  402878:	pop    eax
  402879:	push   eax
  40287a:	mov    eax,0x404028
  40287f:	call   DWORD PTR [eax]
  402881:	pop    eax
  402882:	sub    esp,0xffffffd4
  402885:	mov    ebp,DWORD PTR [esp]
  402888:	add    esp,0x4
  40288b:	ret    
  40288c:	mov    edi,edi
  40288e:	push   ebp
  40288f:	mov    ebp,esp
  402891:	sub    esp,0x38
  402894:	push   eax
  402895:	mov    eax,0x0
  40289a:	push   eax
  40289b:	mov    eax,0x404060
  4028a0:	call   DWORD PTR [eax]
  4028a2:	pop    eax
  4028a3:	push   eax
  4028a4:	push   DWORD PTR [eax+0x3b8]
  4028aa:	push   DWORD PTR [eax+0x120]
  4028b0:	call   0x401340
  4028b5:	add    esp,0x8
  4028b8:	pop    eax
  4028b9:	push   eax
  4028ba:	mov    edi,0x0
  4028bf:	push   edi
  4028c0:	mov    eax,0x404008
  4028c5:	call   DWORD PTR [eax]
  4028c7:	pop    eax
  4028c8:	sub    esp,0xffffffc8
  4028cb:	mov    ebp,DWORD PTR [esp]
  4028ce:	add    esp,0x4
  4028d1:	ret    
  4028d2:	add    BYTE PTR [eax],al
  4028d4:	mov    edi,edi
  4028d6:	push   ebp
  4028d7:	mov    ebp,esp
  4028d9:	sub    esp,0x5c
  4028dc:	push   eax
  4028dd:	mov    ecx,0x0
  4028e2:	push   ecx
  4028e3:	mov    eax,0x404070
  4028e8:	call   DWORD PTR [eax]
  4028ea:	pop    eax
  4028eb:	push   eax
  4028ec:	push   ecx
  4028ed:	push   edx
  4028ee:	call   0x4015c8
  4028f3:	add    esp,0x8
  4028f6:	pop    eax
  4028f7:	push   eax
  4028f8:	lea    esi,[eax-0x100]
  4028fe:	push   esi
  4028ff:	mov    eax,0x404000
  402904:	call   DWORD PTR [eax]
  402906:	test   eax,eax
  402908:	jne    0x4028f8
  40290a:	pop    eax
  40290b:	sub    esp,0xffffffa4
  40290e:	mov    ebp,DWORD PTR [esp]
  402911:	add    esp,0x4
  402914:	ret    
	...
  4029b5:	add    BYTE PTR [eax],al
  4029b7:	add    BYTE PTR [ecx],bl
  4029b9:	sub    DWORD PTR [edi-0x54],0xffffffac
  4029bd:	leave  
  4029be:	in     eax,dx
  4029bf:	and    bl,ah
  4029c1:	je     0x4029a1
  4029c3:	aam    0x48
  4029c5:	jp     0x4029ee
  4029c7:	adc    ebp,DWORD PTR [eax-0x4ca83b1f]
  4029cd:	mov    ah,0xe9
  4029cf:	call   0x996c:0x50e4be3e
  4029d6:	sub    edi,ecx
  4029d8:	test   BYTE PTR [ecx],al
  4029da:	js     0x402971
  4029dc:	gs hlt 
  4029de:	jg     0x4029dc
  4029e0:	pop    esp
  4029e1:	rcl    edx,1
  4029e3:	xlat   BYTE PTR ds:[ebx]
  4029e4:	xchg   esp,eax
  4029e5:	lods   al,BYTE PTR ds:[esi]
  4029e6:	iret   
  4029e7:	popf   
  4029e8:	lods   al,BYTE PTR ds:[esi]
  4029e9:	inc    esi
  4029ea:	or     ecx,DWORD PTR [ecx+ebx*8+0x762d4f22]
  4029f1:	test   DWORD PTR [ebx-0x2b],ebx
  4029f4:	(bad)  
  4029f5:	and    esi,ecx
  4029f7:	cmps   BYTE PTR ds:[esi],BYTE PTR es:[edi]
  4029f8:	xor    ebx,esp
  4029fa:	jbe    0x402a19
  4029fc:	or     bh,BYTE PTR [ebx+0x67287ea2]
  402a02:	movs   BYTE PTR es:[edi],BYTE PTR ds:[esi]
  402a03:	push   edi
  402a04:	dec    ebp
  402a05:	mov    cs,WORD PTR [edi+0x26]
  402a08:	jbe    0x40298f
  402a0a:	pop    ebx
  402a0b:	push   esp
  402a0c:	mov    bl,0x6b
  402a0e:	dec    esp
  402a0f:	dec    esi
  402a10:	sbb    dh,BYTE PTR [esi+0x16edfa69]
  402a16:	retf   
  402a17:	sub    ebp,DWORD PTR [esi]
  402a19:	aad    0xd8
  402a1b:	aam    0x42
  402a1d:	push   eax
  402a1e:	les    ebp,FWORD PTR [esi+0xcd65389]
  402a24:	mov    bh,BYTE PTR [ecx]
  402a26:	fwait
  402a27:	stos   BYTE PTR es:[edi],al
  402a28:	push   cs
  402a29:	aad    0x5b
  402a2b:	push   esp
  402a2c:	lea    edi,[edx-0x2f]
  402a2f:	add    BYTE PTR [esi-0x762ba389],bl
  402a35:	daa    
  402a36:	sub    bl,dh
  402a38:	iret   
  402a39:	xchg   ebp,eax
  402a3a:	pop    ebx
  402a3b:	aam    0x89
  402a3d:	xlat   BYTE PTR ds:[ebx]
  402a3e:	dec    edi
  402a3f:	fnstenv [ebp+eax*4+0x5b]
  402a43:	pop    ebp
  402a44:	iret   
  402a45:	xchg   BYTE PTR [ebp-0x22],al
  402a48:	sbb    al,0xe6
  402a4a:	xor    edx,DWORD PTR [ebp+0x43d616e5]
  402a50:	ds loopne 0x402a8b
  402a53:	movs   BYTE PTR es:[edi],BYTE PTR ds:[esi]
  402a54:	(bad)  [ecx]
  402a56:	cmps   BYTE PTR ds:[esi],BYTE PTR es:[edi]
  402a57:	jge    0x402ad7
  402a59:	or     al,0x5d
  402a5b:	mov    esi,0x59e11289
  402a60:	adc    esp,eax
  402a62:	xor    ebx,DWORD PTR [esp+ebp*8+0x257fd71b]
  402a69:	jp     0x402a77
  402a6b:	fadd   QWORD PTR [eax]
  402a6d:	cmp    al,0xa3
  402a6f:	test   al,0xb2
  402a71:	popf   
  402a72:	xor    DWORD PTR [ecx+eiz*8+0x762bb77a],edx
  402a79:	in     eax,dx
  402a7a:	call   edx
  402a7c:	mov    DWORD PTR [edx-0x33],edi
  402a7f:	sub    ecx,DWORD PTR [ecx+0x715f4bd0]
  402a85:	jg     0x402a8d
  402a87:	sub    esi,DWORD PTR [esi-0x7b]
  402a8a:	or     ebx,DWORD PTR [ecx+0x3c]
  402a8d:	stos   BYTE PTR es:[edi],al
  402a8e:	pop    esp
  402a8f:	aam    0x89
  402a91:	cmp    al,0xff
  402a93:	ror    BYTE PTR [ecx-0x4a70ad86],cl
  402a99:	ins    DWORD PTR es:[edi],dx
  402a9a:	rcl    cl,1
  402a9c:	mov    DWORD PTR [edx-0x8],edi
  402a9f:	jne    0x402a92
  402aa1:	mov    cl,0x7f
  402aa3:	and    BYTE PTR [ecx-0x7d],0xa3
  402aa7:	sub    esi,DWORD PTR [esi+0x6d]
  402aaa:	(bad)  
  402aac:	mov    DWORD PTR [edx+0x2a],edi
  402aaf:	rcr    DWORD PTR [eax*4+0xf76d431],cl
  402ab6:	ret    
  402ab7:	jl     0x402a42
  402ab9:	shl    BYTE PTR [ebx+0x5f],1
  402abc:	les    edx,FWORD PTR [edx]
  402abe:	int    0x2b
  402ac0:	and    bl,ch
  402ac2:	pop    edx
  402ac3:	loope  0x402a72
  402ac5:	sub    dh,ah
  402ac7:	jge    0x402aea
  402ac9:	jp     0x402ad7
  402acb:	clc    
  402acc:	shr    DWORD PTR ds:0x6d6e7da6,1
  402ad2:	jo     0x402aab
  402ad4:	mov    DWORD PTR [edx+0x2a],edi
  402ad7:	ins    DWORD PTR es:[edi],dx
  402ad8:	dec    edx
  402ad9:	or     BYTE PTR [edi-0x2e],bl
  402adc:	out    dx,eax
  402add:	(bad)  
  402ade:	out    0x3d,eax
  402ae0:	jbe    0x402a87
  402ae2:	sub    al,0xc2
  402ae4:	mov    al,0x22
  402ae6:	xchg   ebx,eax
  402ae7:	pop    edi
  402ae8:	addr16 push cs
  402aea:	add    esp,eax
  402aec:	jecxz  0x402b6c
  402aee:	iret   
  402aef:	sub    eax,DWORD PTR [esi-0x7b]
  402af2:	pop    ebx
  402af3:	sub    edi,ecx
  402af5:	sub    dh,dl
  402af7:	aam    0x23
  402af9:	xchg   ebp,eax
  402afa:	(bad)  
  402afb:	test   eax,0x41f32ae5
  402b00:	jb     0x402ad4
  402b02:	push   cs
  402b03:	sub    ebx,esp
  402b05:	jbe    0x402afa
  402b07:	inc    ecx
  402b08:	je     0x402adc
  402b0a:	push   cs
  402b0b:	add    BYTE PTR [edx],0xb5
  402b0e:	sub    dl,al
  402b10:	test   DWORD PTR [ecx],esp
  402b12:	add    eax,0xff76dc2b
  402b17:	mov    al,ds:0xe81086b8
  402b1c:	add    al,0x3
  402b1e:	mov    edi,0x4aa521a0
  402b23:	arpl   ax,cx
  402b25:	outs   dx,BYTE PTR ds:[esi]
  402b26:	mov    ds:0x103279d3,al
  402b2b:	shr    cl,cl
  402b2d:	icebp  
  402b2e:	out    dx,al
  402b2f:	aas    
  402b30:	repz inc ebp
  402b32:	das    
  402b33:	xchg   ebp,eax
  402b34:	add    bh,BYTE PTR ds:0xf1b6aeaf
  402b3a:	popa   
  402b3b:	cmp    al,0x18
  402b3d:	jle    0x402ae6
  402b3f:	sub    edi,ebp
  402b41:	dec    ebp
  402b42:	(bad)  
  402b43:	xchg   ebx,eax
  402b44:	lods   eax,DWORD PTR ds:[esi]
  402b45:	xchg   edx,eax
  402b46:	shr    BYTE PTR [ecx],1
  402b48:	jbe    0x402acf
  402b4a:	pop    esi
  402b4b:	mov    ds:0x3bde859d,eax
  402b50:	std    
  402b51:	cli    
  402b52:	push   edi
  402b53:	xlat   BYTE PTR ds:[ebx]
  402b54:	jb     0x402b77
  402b56:	mul    DWORD PTR [eax-0x7af4285e]
  402b5c:	fisubr WORD PTR [ebx]
  402b5e:	cmc    
  402b5f:	inc    ecx
  402b60:	jb     0x402b36
  402b62:	add    ch,BYTE PTR [ebx]
  402b64:	fdiv   QWORD PTR [esi-0x4]
  402b67:	sbb    BYTE PTR [esi-0x2981512e],dh
  402b6d:	icebp  
  402b6e:	push   0xffffffd8
  402b70:	sar    BYTE PTR [edx+0xc],cl
  402b73:	fcom   st(1)
  402b75:	sbb    esp,DWORD PTR [edx]
  402b77:	in     al,dx
  402b78:	pop    esi
  402b79:	addr16 call 0xa7bbadbb
  402b7f:	sub    ebx,DWORD PTR [esi-0x762ba4fc]
  402b85:	and    cl,bh
  402b87:	sub    esi,DWORD PTR [esi]
  402b89:	test   DWORD PTR [ebx+0x2b],ebx
  402b8c:	cld    
  402b8d:	adc    dh,cl
  402b8f:	mov    al,ds:0x3cab0e8d
  402b94:	cmp    DWORD PTR [esi-0x59],0x2b
  402b98:	adc    bh,BYTE PTR [edx+0x6c]
  402b9b:	in     al,0x89
  402b9d:	jp     0x402b46
  402b9f:	jae    0x402b9e
  402ba1:	lds    edx,FWORD PTR [edi+0x5f]
  402ba4:	leave  
  402ba5:	jbe    0x402b43
  402ba7:	jae    0x402c17
  402ba9:	icebp  
  402baa:	pop    edi
  402bab:	pop    edi
  402bac:	mov    DWORD PTR [ecx-0x5e855fa2],edx
  402bb2:	pop    esi
  402bb3:	popf   
  402bb4:	mov    ch,0xf1
  402bb6:	aam    0x3
  402bb8:	jne    0x402c2c
  402bba:	shr    BYTE PTR [ecx+edx*4+0x1037d7f3],1
  402bc1:	jb     0x402bdb
  402bc3:	ret    0x5a89
  402bc6:	shl    BYTE PTR [edi],1
  402bc8:	adc    ah,BYTE PTR [ebx+eax*2]
  402bcb:	aam    0x89
  402bcd:	jp     0x402bf9
  402bcf:	imul   eax,DWORD PTR [esi+0xc],0x23
  402bd3:	fdiv   QWORD PTR [esi+0x2f]
  402bd6:	mov    bl,0xc3
  402bd8:	add    BYTE PTR [edi-0x4c2b2ba5],al
  402bde:	jmp    DWORD PTR [edx-0x4ab85efe]
  402be4:	fst    DWORD PTR [edx-0x7a89d068]
  402bea:	add    edx,DWORD PTR [ebp-0xf]
  402bed:	and    ah,BYTE PTR [edi+0x2c857629]
  402bf3:	fild   DWORD PTR [edx]
  402bf5:	jle    0x402b7a
  402bf7:	in     al,dx
  402bf8:	jb     0x402b9b
  402bfa:	pop    ebx
  402bfb:	aam    0x89
  402bfd:	jp     0x402ba5
  402bff:	pop    esi
  402c00:	push   edx
  402c01:	or     DWORD PTR [ebx],0xc7b949e7
  402c07:	mov    al,ds:0xe82d8685
  402c0c:	add    cl,ah
  402c0e:	daa    
  402c0f:	sub    esi,DWORD PTR [esi-0x7b]
  402c12:	fsub   QWORD PTR [edx]
  402c14:	std    
  402c15:	or     DWORD PTR [edx+0x57fbfdd8],esp
  402c1b:	push   ecx
  402c1c:	jbe    0x402c2c
  402c1e:	int    0x28
  402c20:	(bad)  
  402c21:	rcr    BYTE PTR [edx-0x7e],cl
  402c24:	(bad)  
  402c25:	jmp    DWORD PTR [edi+0x5e]
  402c28:	jb     0x402bfc
  402c2a:	pop    edx
  402c2b:	or     BYTE PTR [ecx+0xa0f12a],0x95
  402c32:	pop    esi
  402c33:	daa    
  402c34:	add    al,BYTE PTR [eax+ecx*1-0x590f4952]
  402c3b:	(bad)  
  402c3c:	jle    0x402c2f
  402c3e:	imul   esi,DWORD PTR [ebp+0x27],0x8dbe0fd5
  402c45:	sub    edi,esi
  402c47:	aam    0x23
  402c49:	mov    DWORD PTR ds:0x67ff8f5f,ecx
  402c4f:	mov    ebx,0xc41d0ee6
  402c54:	add    al,0x4e
  402c56:	mov    ds:0x9b00db7c,al
  402c5b:	mov    al,ds:0x2ba7d392
  402c60:	jbe    0x402c67
  402c62:	sub    al,0xd0
  402c64:	add    al,0x3e
  402c66:	mov    ds:0x5a7a5329,al
  402c6b:	aam    0x9
  402c6d:	sub    ah,BYTE PTR [esi+0x5a91525e]
  402c73:	add    BYTE PTR [ecx+0x29cb4ad1],0xdb
  402c7a:	add    ecx,DWORD PTR [ebp+0x7cf42add]
  402c80:	mov    eax,edx
  402c82:	push   edi
  402c83:	mov    WORD PTR [edx],cs
  402c85:	mov    esp,0xe4f9c0b3
  402c8a:	sahf   
  402c8b:	mov    ah,0x2
  402c8d:	test   eax,0xf375d92a
  402c92:	addr16 (bad) 
  402c94:	fisttp WORD PTR [esi+0x20]
  402c97:	stc    
  402c98:	jns    0x402c9b
  402c9a:	int3   
  402c9b:	aam    0x89
  402c9d:	jp     0x402cc9
  402c9f:	movs   DWORD PTR es:[edi],DWORD PTR ds:[esi]
  402ca0:	rol    BYTE PTR [ebp-0x33fd2ba5],cl
  402ca6:	pop    es
  402ca7:	sub    esi,DWORD PTR [esi-0x7b]
  402caa:	fsub   QWORD PTR [edx]
  402cac:	xchg   dh,bh
  402cae:	and    al,0x2b
  402cb0:	jbe    0x402c37
  402cb2:	pop    esi
  402cb3:	daa    
  402cb4:	and    al,0xf1
  402cb6:	pop    edi
  402cb7:	sub    BYTE PTR [ebp-0x26ef292b],cl
  402cbd:	sub    esi,ebp
  402cbf:	jnp    0x402cdd
  402cc1:	xor    DWORD PTR [ebx],0xa77a99d4
  402cc7:	jl     0x402cbe
  402cc9:	ins    DWORD PTR es:[edi],dx
  402cca:	pop    edi
  402ccb:	test   bl,ah
  402ccd:	jle    0x402c9e
  402ccf:	sub    esp,DWORD PTR [esi-0x7b]
  402cd2:	pop    ebx
  402cd3:	or     DWORD PTR [eax],0x7e
  402cd6:	sub    DWORD PTR [ebx],0x66
  402cd9:	test   DWORD PTR [ebx+0x2b],ebx
  402cdc:	fdiv   QWORD PTR [esi-0x5a]
  402cdf:	jge    0x402d5b
  402ce1:	fild   WORD PTR [eax]
  402ce3:	jns    0x402c87
  402ce5:	mov    dl,0xf4
  402ce7:	mov    al,ds:0x57b054be
  402cec:	pusha  
  402ced:	jle    0x402c81
  402cef:	jmp    0x402d01
  402cf1:	sub    BYTE PTR ds:0xd34a897d,bh
  402cf7:	and    edx,DWORD PTR [ebx+0x7a]
  402cfa:	dec    edx
  402cfb:	aam    0x89
  402cfd:	jnp    0x402cb2
  402cff:	sub    al,0x94
  402d01:	imul   eax,DWORD PTR [eax],0x59
  402d04:	int    0x5e
  402d06:	mov    ds:0x5ad5247a,eax
  402d0b:	in     eax,0xe1
  402d0d:	jp     0x402cc6
  402d0f:	sub    esi,DWORD PTR [esi-0x2e]
  402d12:	fidivr WORD PTR [ecx*4+0x1e1aa62a]
  402d19:	test   DWORD PTR [ebx-0x2c],ecx
  402d1c:	mov    DWORD PTR ds:0x85522f24,ebp
  402d22:	dec    ebx
  402d23:	aam    0x89
  402d25:	test   eax,esi
  402d27:	daa    
  402d28:	mov    eax,edx
  402d2a:	push   edi
  402d2b:	mov    ss,eax
  402d2d:	and    bh,bh
  402d2f:	scas   al,BYTE PTR es:[edi]
  402d30:	mov    edi,0x4ab5d8f0
  402d35:	sbb    cl,BYTE PTR [edx+0x2c]
  402d38:	(bad)  [edi-0x5c]
  402d3b:	pop    ecx
  402d3c:	mov    ebp,0x9ea06279
  402d41:	push   cs
  402d42:	scas   al,BYTE PTR es:[edi]
  402d43:	ins    DWORD PTR es:[edi],dx
  402d44:	cdq    
  402d45:	jp     0x402cee
  402d47:	sub    ebx,DWORD PTR [esi-0x762ba592]
  402d4d:	rol    BYTE PTR [esi-0x4c7a89d5],0x35
  402d54:	jbe    0x402cdb
  402d56:	cmps   BYTE PTR ds:[esi],BYTE PTR es:[edi]
  402d57:	jl     0x402d28
  402d59:	sbb    BYTE PTR [ebx-0x2c],0x89
  402d5d:	xchg   edx,eax
  402d5e:	jno    0x402d34
  402d60:	mov    DWORD PTR [edx-0x2a],edi
  402d63:	add    al,0x2
  402d65:	dec    esi
  402d66:	adc    DWORD PTR [edx-0x2ba47a81],0x61
  402d6d:	mov    ebp,0x9762ba6
  402d72:	movs   DWORD PTR es:[edi],DWORD PTR ds:[esi]
  402d73:	pop    edi
  402d74:	inc    ebx
  402d75:	xchg   edx,eax
  402d76:	sbb    esp,edx
  402d78:	mov    DWORD PTR [edx+0x6e],edi
  402d7b:	adc    al,0xd9
  402d7d:	mov    ebx,0x81b72c6f
  402d82:	jg     0x402d5d
  402d84:	mov    BYTE PTR [esi-0x7d],bh
  402d87:	xchg   edx,esi
  402d89:	inc    ebp
  402d8a:	sub    al,0x25
  402d8c:	shl    ecx,1
  402d8e:	pop    esi
  402d8f:	adc    BYTE PTR [ebx-0x361a10f],dh
  402d95:	cmps   DWORD PTR ds:[esi],DWORD PTR es:[edi]
  402d96:	sub    bl,BYTE PTR [edi]
  402d98:	push   edx
  402d99:	cmp    al,0x51
  402d9b:	aam    0x89
  402d9d:	jp     0x402dee
  402d9f:	mov    esi,0xc45a7a89
  402da4:	ds jbe 0x402d98
  402da7:	jne    0x402dd0
  402da9:	cmp    al,0x53
  402dab:	aam    0x89
  402dad:	jp     0x402dfe
  402daf:	scas   al,BYTE PTR es:[edi]
  402db0:	mov    DWORD PTR [edx+0x5a],edi
  402db3:	mov    fs,WORD PTR [ecx+0x5]
  402db6:	cmps   BYTE PTR ds:[esi],BYTE PTR es:[edi]
  402db7:	sub    esi,DWORD PTR [esi+0xf]
  402dba:	das    
  402dbb:	lock xchg ebp,eax
  402dbd:	sbb    esp,DWORD PTR [edx+0x7a]
  402dc0:	mov    bh,0x6d
  402dc2:	inc    esp
  402dc3:	ins    DWORD PTR es:[edi],dx
  402dc4:	test   eax,0x3e2ba77a
  402dc9:	icebp  
  402dca:	imul   ebp,DWORD PTR [ebp-0x75],0x7a
  402dce:	cmps   DWORD PTR ds:[esi],DWORD PTR es:[edi]
  402dcf:	sub    edi,DWORD PTR [esi]
  402dd1:	icebp  
  402dd2:	jae    0x402e41
  402dd4:	test   eax,0x3e2ba77a
  402dd9:	icebp  
  402dda:	jnp    0x402e49
  402ddc:	lea    edi,[edx-0x59]
  402ddf:	sub    edi,DWORD PTR [esi]
  402de1:	icebp  
  402de2:	inc    ebx
  402de3:	ins    DWORD PTR es:[edi],dx
  402de4:	leave  
  402de5:	jp     0x402d8e
  402de7:	sub    edi,DWORD PTR [esi]
  402de9:	icebp  
  402dea:	dec    ebx
  402deb:	ins    DWORD PTR es:[edi],dx
  402dec:	lea    edi,[edx-0x59]
  402def:	sub    edi,DWORD PTR [esi]
  402df1:	icebp  
  402df2:	push   ebx
  402df3:	ins    DWORD PTR es:[edi],dx
  402df4:	leave  
  402df5:	jp     0x402d9e
  402df7:	sub    edi,DWORD PTR [esi]
  402df9:	icebp  
  402dfa:	pop    ebx
  402dfb:	pop    edi
  402dfc:	dec    eax
  402dfd:	and    esp,DWORD PTR [edx+0x4b]
  402e00:	std    
  402e01:	shr    BYTE PTR [ebx],1
  402e03:	push   ebp
  402e04:	jnp    0x402df1
  402e06:	dec    ebp
  402e07:	outs   dx,BYTE PTR ds:[esi]
  402e08:	push   cs
  402e09:	push   cs
  402e0a:	adc    al,0xbc
  402e0c:	add    al,BYTE PTR [edx+eiz*1+0x2f852e56]
  402e13:	xlat   BYTE PTR ds:[ebx]
  402e14:	mov    BYTE PTR [edi],cl
  402e16:	jmp    DWORD PTR [eax+0x14dce533]
  402e1c:	std    
  402e1d:	outs   dx,DWORD PTR ds:[esi]
  402e1e:	sub    al,0x6d
  402e20:	dec    edx
  402e21:	xlat   BYTE PTR ds:[ebx]
  402e22:	loope  0x402df4
  402e24:	mov    DWORD PTR [edx-0x59],edi
  402e27:	ret    
  402e28:	rol    DWORD PTR [ebx+ebx*2+0x5779d3d4],cl
  402e2f:	sub    BYTE PTR [esi-0x3106c52],cl
  402e35:	and    dl,al
  402e37:	es jne 0x402e2a
  402e3a:	pop    es
  402e3b:	xlat   BYTE PTR ds:[ebx]
  402e3c:	hlt    
  402e3d:	mov    ah,BYTE PTR es:[esi+0x2a]
  402e41:	add    BYTE PTR [eax-0x8287d60],dl
  402e47:	add    BYTE PTR [edi+ebx*8+0x796057f6],dh
  402e4e:	inc    ebp
  402e4f:	enter  0x4617,0x3b
  402e53:	push   edi
  402e54:	hlt    
  402e55:	cmps   DWORD PTR ss:[esi],DWORD PTR es:[edi]
  402e57:	pop    edi
  402e58:	fs ins DWORD PTR es:[edi],dx
  402e5a:	dec    edx
  402e5b:	aam    0x89
  402e5d:	jp     0x402e89
  402e5f:	push   esi
  402e60:	and    al,BYTE PTR [eax]
  402e62:	pop    edx
  402e63:	mov    eax,ds:0x884fd18f
  402e68:	jbe    0x402def
  402e6a:	pop    ebx
  402e6b:	mov    ch,0x4a
  402e6d:	sbb    ah,BYTE PTR [esi-0x7cf1b583]
  402e73:	pop    edi
  402e74:	cld    
  402e75:	sub    ch,BYTE PTR ss:[esi+0x26]
  402e79:	aad    0xb
  402e7b:	mov    esp,0x2bab7a89
  402e80:	and    eax,0xd0940c7a
  402e85:	sub    ch,BYTE PTR [edx]
  402e87:	rol    DWORD PTR [ebp-0x76134cdf],cl
  402e8d:	jp     0x402e36
  402e8f:	arpl   di,di
  402e91:	sar    DWORD PTR [edi-0xc],0x2
  402e95:	sub    BYTE PTR [eax],0x27
  402e98:	retf   
  402e99:	sbb    DWORD PTR [ebx-0x2c],0x33041e89
  402ea0:	jbe    0x402e27
  402ea2:	pop    ebx
  402ea3:	pop    edi
  402ea4:	stc    
  402ea5:	push   esi
  402ea6:	hlt    
  402ea7:	inc    ebx
  402ea8:	jbe    0x402e2f
  402eaa:	push   edi
  402eab:	aam    0xda
  402ead:	test   eax,esi
  402eaf:	imul   edi,ebx,0xffffff89
  402eb2:	jecxz  0x402f0f
  402eb4:	mov    BYTE PTR [edx],ch
  402eb6:	sub    ah,ah
  402eb8:	std    
  402eb9:	jge    0x402e69
  402ebb:	jno    0x402eaa
  402ebd:	fstp   TBYTE PTR [edi-0x357a89d5]
  402ec3:	xchg   esp,eax
  402ec4:	movs   DWORD PTR es:[edi],DWORD PTR ds:[esi]
  402ec5:	sbb    esp,DWORD PTR [edx+0x4b]
  402ec8:	imul   DWORD PTR [ecx+0x7b]
  402ecb:	(bad)  
  402ecc:	mov    DWORD PTR [edx-0x31],edi
  402ecf:	pcmpeqb mm0,QWORD PTR [ebp+0x107fe75b]
  402ed6:	cmps   DWORD PTR ds:[esi],DWORD PTR es:[edi]
  402ed7:	inc    ecx
  402ed8:	jle    0x402f54
  402eda:	or     al,0xc8
  402edc:	add    ah,BYTE PTR [edx-0x2f76870d]
  402ee2:	outs   dx,DWORD PTR ds:[esi]
  402ee3:	pop    edi
  402ee4:	int    0x5e
  402ee6:	mov    ebx,0xd6b93628
  402eeb:	push   esp
  402eec:	dec    ecx
  402eed:	jp     0x402e96
  402eef:	sub    esi,ebx
  402ef1:	inc    ebp
  402ef2:	das    
  402ef3:	aad    0xcf
  402ef5:	cs repnz aam 0x23
  402ef9:	mov    ebp,0x9ffc14dc
  402efe:	repnz aam 0x23
  402f01:	popf   
  402f02:	fcom   DWORD PTR [eax]
  402f04:	lods   eax,DWORD PTR ds:[esi]
  402f05:	js     0x402eae
  402f07:	sub    edi,edi
  402f09:	icebp  
  402f0a:	jg     0x402ed4
  402f0c:	call   0x1a83f6ca
  402f11:	jmp    0x9220371
  402f16:	rol    DWORD PTR ds:0xa734ed12,cl
  402f1c:	call   FWORD PTR [ecx]
  402f1e:	repz aam 0x23
  402f21:	sbb    esp,0xf372fc14
  402f27:	aam    0x23
  402f29:	test   esp,ebx
  402f2b:	adc    al,0xfd
  402f2d:	aaa    
  402f2e:	int    0x2b
  402f30:	push   ds
  402f31:	in     al,dx
  402f32:	xor    eax,0xc112efa0
  402f37:	pop    esp
  402f38:	push   es
  402f39:	test   DWORD PTR [edi],0xaf2f7684
  402f3f:	test   al,0xb2
  402f41:	mov    esi,edx
  402f43:	and    al,0xd9
  402f45:	cs int 0x6b
  402f48:	sbb    al,0x82
  402f4a:	or     eax,0xff76dc2b
  402f4f:	jnp    0x402f73
  402f51:	aad    0x31
  402f53:	rcr    edi,cl
  402f55:	xchg   edx,eax
  402f56:	sub    DWORD PTR [ebx],0xe8d68576
  402f5c:	lods   eax,DWORD PTR ds:[esi]
  402f5d:	sti    
  402f5e:	outs   dx,BYTE PTR ds:[esi]
  402f5f:	cmp    DWORD PTR [esi-0x7b],esi
  402f62:	pop    ebx
  402f63:	mov    esi,0x8f52238e
  402f68:	xor    DWORD PTR [esi],ecx
  402f6a:	popf   
  402f6b:	jg     0x402f71
  402f6d:	add    al,0x5c
  402f6f:	fwait
  402f70:	push   ds
  402f71:	das    
  402f72:	add    edi,DWORD PTR [edi+0x39]
  402f75:	mov    ecx,0x8923d40d
  402f7a:	add    edx,DWORD PTR [edi+0x4d]
  402f7d:	jbe    0x402f43
  402f7f:	call   0x81cba9b2
  402f84:	popa   
  402f85:	in     al,0xa7
  402f87:	sub    esi,DWORD PTR [esi-0x28]
  402f8a:	aam    0x91
  402f8c:	stc    
  402f8d:	stc    
  402f8e:	addr16 das 
  402f90:	inc    ecx
  402f92:	jg     0x402f58
  402f94:	aam    0x7a
  402f96:	cmps   DWORD PTR ds:[esi],DWORD PTR es:[edi]
  402f97:	sub    esi,DWORD PTR [esi-0x7b]
  402f9a:	pop    ebx
  402f9b:	aam    0xe1
  402f9d:	jp     0x402f46
  402f9f:	sub    esi,DWORD PTR [esi+0x46]
  402fa2:	cmp    eax,0x1d1c7fe7
  402fa7:	data16 sub al,0xe3
  402faa:	hlt    
  402fab:	mov    dl,0xba
  402fad:	stos   BYTE PTR es:[edi],al
  402fae:	shl    DWORD PTR [ebx],cl
  402fb0:	imul   DWORD PTR [ebx+0x59]
  402fb3:	les    ecx,FWORD PTR [ecx-0x439b586]
  402fb9:	(bad)  [ebp+0x540f7650]
  402fbf:	mov    al,ds:0x6e3dbf00
  402fc4:	fnstcw WORD PTR [edi]
  402fc6:	sub    BYTE PTR [edi],bl
  402fc8:	push   0xbab2f4e3
  402fcd:	stos   BYTE PTR es:[edi],al
  402fce:	ror    bl,1
  402fd0:	mov    ch,0xd4
  402fd2:	outs   dx,BYTE PTR ds:[esi]
  402fd3:	sbb    eax,0x536551c8
  402fd8:	jb     0x402fcb
  402fda:	pop    ecx
  402fdb:	aas    
  402fdc:	jle    0x403027
  402fde:	sub    BYTE PTR [si-0x5899],dh
  402fe3:	lea    ecx,[edx-0xf]
  402fe6:	fadd   DWORD PTR [ebx+0x1c]
  402fe9:	xor    DWORD PTR [ebx],0xa77a99d4
  402fef:	jl     0x40300d
  402ff1:	test   DWORD PTR [edx-0x7e],ebx
  402ff4:	cdq    
  402ff5:	icebp  
  402ff6:	push   edi
  402ff7:	stos   BYTE PTR es:[edi],al
  402ff8:	call   0x5bf1:0x89d45881
  402fff:	inc    ebx
  403000:	jb     0x402f86
  403002:	pop    ebx
  403003:	aam    0xde
  403005:	sub    DWORD PTR [esi+0x5bef567d],esp
  40300b:	mov    esp,0x2ba77a09
  403010:	sbb    al,0x86
  403012:	xor    esp,edx
  403014:	jecxz  0x403091
  403016:	iret   
  403017:	sub    esi,DWORD PTR [esi-0x7b]
  40301a:	fild   DWORD PTR [ebx-0x557cd08a]
  403020:	mov    dl,0x81
  403022:	pop    eax
  403023:	aam    0x89
  403025:	mov    ecx,0x55897337
  40302a:	cmps   BYTE PTR ds:[esi],BYTE PTR es:[edi]
  40302b:	add    BYTE PTR [ebx],ch
  40302d:	sbb    ebp,DWORD PTR ds:0x14c87217
  403033:	ins    BYTE PTR es:[edi],dx
  403034:	es mov dh,0x78
  403037:	adc    bh,ch
  403039:	add    edi,DWORD PTR [ebx+0x58]
  40303c:	rcr    DWORD PTR [eax],0x44
  40303f:	pop    ecx
  403040:	scas   eax,DWORD PTR es:[edi]
  403041:	sahf   
  403042:	mov    ebx,0x3a165768
  403047:	test   edx,ebp
  403049:	push   ecx
  40304a:	fwait
  40304b:	test   eax,0xdb467fe6
  403051:	xchg   edx,eax
  403052:	movs   DWORD PTR es:[edi],DWORD PTR ds:[esi]
  403053:	sbb    eax,0x47e1ff23
  403058:	in     al,dx
  403059:	lods   al,BYTE PTR ds:[esi]
  40305a:	push   ebx
  40305b:	push   edi
  40305c:	sbb    ch,0x1c
  40305f:	int    0x60
  403061:	test   BYTE PTR [ebx],bl
  403063:	enter  0xf188,0x1a
  403067:	arpl   WORD PTR [edx+eax*2+0x5cd56bd4],dx
  40306e:	movs   DWORD PTR es:[edi],DWORD PTR ds:[esi]
  40306f:	mov    eax,0xd45b3249
  403074:	mov    DWORD PTR [edx-0x59],edi
  403077:	sub    esi,DWORD PTR [esi-0x7b]
  40307a:	pop    ebx
  40307b:	aam    0x89
  40307d:	jp     0x403026
  40307f:	sub    esi,DWORD PTR [esi-0x7b]
  403082:	pop    ebx
  403083:	aam    0x89
  403085:	jp     0x40302e
  403087:	sub    esi,DWORD PTR [esi-0x7b]
  40308a:	pop    ebx
  40308b:	aam    0x89
  40308d:	jp     0x403066
  40308f:	movs   DWORD PTR es:[edi],DWORD PTR ds:[esi]
  403090:	ja     0x403017
  403092:	pop    ebx
  403093:	push   es
  403094:	lea    edi,[edx-0x59]
  403097:	das    
  403098:	jbe    0x40301f
  40309a:	xchg   esi,eax
  40309b:	jmp    0xe0b:0x4cfc7845
  4030a2:	add    eax,0xb0c0c96e
  4030a7:	hlt    
  4030a8:	mov    dl,0x33
  4030aa:	.byte 0xf
  4030ab:	push   ds
