
5e0d8191c78206a360e68fe3aa63fa9a39c1356ba600a9bf9320a0c381a25bcd.exe:     file format pei-i386


Disassembly of section .text:

00401000 <.text>:
  401000:	add    BYTE PTR [eax],al
  401002:	add    BYTE PTR [eax],al
  401004:	mov    edi,edi
  401006:	push   ebp
  401007:	mov    ebp,esp
  401009:	sub    esp,0x5c
  40100c:	push   edx
  40100d:	push   DWORD PTR [edx+0x478]
  401013:	push   ebx
  401014:	push   ebx
  401015:	call   0x4014dc
  40101a:	add    esp,0xc
  40101d:	pop    edx
  40101e:	push   edx
  40101f:	lea    edx,[edx]
  401021:	push   edx
  401022:	push   0x403044
  401027:	pop    eax
  401028:	call   DWORD PTR cs:[eax]
  40102b:	test   eax,eax
  40102d:	jne    0x40101f
  40102f:	pop    edx
  401030:	push   edx
  401031:	push   0x0
  401033:	push   0x403048
  401038:	pop    eax
  401039:	call   DWORD PTR cs:[eax]
  40103c:	pop    edx
  40103d:	sub    esp,0xffffffa4
  401040:	mov    ebp,DWORD PTR [esp]
  401043:	add    esp,0x4
  401046:	ret    
  401047:	add    BYTE PTR [ebx-0x1374aa01],cl
  40104d:	sub    esp,0x5c
  401050:	push   edx
  401051:	push   DWORD PTR [edx+0x46c]
  401057:	push   eax
  401058:	push   DWORD PTR [edx+0x220]
  40105e:	call   0x401944
  401063:	add    esp,0xc
  401066:	pop    edx
  401067:	push   edx
  401068:	push   0x0
  40106a:	push   0x403048
  40106f:	pop    eax
  401070:	call   DWORD PTR cs:[eax]
  401073:	pop    edx
  401074:	push   edx
  401075:	push   0x403008
  40107a:	pop    eax
  40107b:	call   DWORD PTR cs:[eax]
  40107e:	pop    edx
  40107f:	sub    esp,0xffffffa4
  401082:	mov    ebp,DWORD PTR [esp]
  401085:	add    esp,0x4
  401088:	ret    
  401089:	add    BYTE PTR [eax],al
  40108b:	add    BYTE PTR [ebx-0x74aa9f01],cl
  401091:	in     al,dx
  401092:	sub    esp,0x40
  401095:	push   edx
  401096:	mov    ecx,0x0
  40109b:	push   ecx
  40109c:	push   0x403004
  4010a1:	pop    eax
  4010a2:	call   DWORD PTR cs:[eax]
  4010a5:	pop    edx
  4010a6:	test   eax,eax
  4010a8:	je     0x4010ab
  4010aa:	ret    
  4010ab:	push   edx
  4010ac:	push   edi
  4010ad:	push   DWORD PTR [edx+0x330]
  4010b3:	push   ecx
  4010b4:	push   esi
  4010b5:	call   0x401200
  4010ba:	add    esp,0x10
  4010bd:	pop    edx
  4010be:	push   edx
  4010bf:	push   0x0
  4010c1:	push   0x403074
  4010c6:	pop    eax
  4010c7:	call   DWORD PTR cs:[eax]
  4010ca:	pop    edx
  4010cb:	mov    ecx,0x403044
  4010d0:	mov    ecx,DWORD PTR [ecx]
  4010d2:	push   ecx
  4010d3:	push   DWORD PTR [edx+0x19c]
  4010d9:	pop    esi
  4010da:	call   esi
  4010dc:	sub    esp,0xffffffc0
  4010df:	mov    ebp,DWORD PTR [esp]
  4010e2:	add    esp,0x4
  4010e5:	ret    
  4010e6:	add    BYTE PTR [eax],al
  4010e8:	mov    edi,edi
  4010ea:	push   ebp
  4010eb:	mov    ebp,esp
  4010ed:	sub    esp,0x58
  4010f0:	push   edx
  4010f1:	push   0x0
  4010f3:	push   0x403038
  4010f8:	pop    eax
  4010f9:	call   DWORD PTR cs:[eax]
  4010fc:	pop    edx
  4010fd:	push   edx
  4010fe:	push   esi
  4010ff:	push   DWORD PTR [edx+0x314]
  401105:	push   esi
  401106:	push   eax
  401107:	call   0x401418
  40110c:	add    esp,0x10
  40110f:	pop    edx
  401110:	push   edx
  401111:	mov    edx,0x0
  401116:	push   edx
  401117:	push   0x403028
  40111c:	pop    eax
  40111d:	call   DWORD PTR cs:[eax]
  401120:	pop    edx
  401121:	sub    esp,0xffffffa8
  401124:	mov    ebp,DWORD PTR [esp]
  401127:	add    esp,0x4
  40112a:	ret    
  40112b:	add    BYTE PTR [edi],cl
  40112d:	sbb    BYTE PTR [edx-0x1],0xff
  401131:	inc    DWORD PTR [eax]
	...
  40113f:	add    BYTE PTR [ebx-0x1374aa01],cl
  401145:	sub    esp,0x40
  401148:	push   edx
  401149:	push   0x0
  40114b:	push   0x403074
  401150:	pop    eax
  401151:	call   DWORD PTR cs:[eax]
  401154:	pop    edx
  401155:	push   edx
  401156:	push   eax
  401157:	push   ebx
  401158:	push   DWORD PTR [edx+0x5c]
  40115b:	call   0x40149c
  401160:	add    esp,0xc
  401163:	pop    edx
  401164:	push   edx
  401165:	push   0x0
  401167:	push   0x403074
  40116c:	pop    eax
  40116d:	call   DWORD PTR cs:[eax]
  401170:	pop    edx
  401171:	sub    esp,0xffffffc0
  401174:	mov    ebp,DWORD PTR [esp]
  401177:	add    esp,0x4
  40117a:	ret    
  40117b:	add    BYTE PTR [eax],al
  40117d:	add    BYTE PTR [eax],al
  40117f:	add    BYTE PTR [ebx-0x1374aa01],cl
  401185:	sub    esp,0x60
  401188:	push   edx
  401189:	push   edi
  40118a:	push   eax
  40118b:	push   DWORD PTR [edx+0x4ec]
  401191:	push   eax
  401192:	call   0x401c40
  401197:	add    esp,0x10
  40119a:	pop    edx
  40119b:	push   edx
  40119c:	push   0x0
  40119e:	push   0x40302c
  4011a3:	pop    eax
  4011a4:	call   DWORD PTR cs:[eax]
  4011a7:	pop    edx
  4011a8:	push   edx
  4011a9:	push   0x0
  4011ab:	push   0x403068
  4011b0:	pop    eax
  4011b1:	call   DWORD PTR cs:[eax]
  4011b4:	pop    edx
  4011b5:	sub    esp,0xffffffa0
  4011b8:	mov    ebp,DWORD PTR [esp]
  4011bb:	add    esp,0x4
  4011be:	ret    
  4011bf:	add    BYTE PTR [ebx-0x1374aa01],cl
  4011c5:	sub    esp,0x60
  4011c8:	push   edx
  4011c9:	push   DWORD PTR [edx+0x2d0]
  4011cf:	push   ebx
  4011d0:	call   0x401798
  4011d5:	add    esp,0x8
  4011d8:	pop    edx
  4011d9:	push   edx
  4011da:	push   0x403020
  4011df:	pop    eax
  4011e0:	call   DWORD PTR cs:[eax]
  4011e3:	pop    edx
  4011e4:	push   edx
  4011e5:	push   0x0
  4011e7:	push   0x403074
  4011ec:	pop    eax
  4011ed:	call   DWORD PTR cs:[eax]
  4011f0:	pop    edx
  4011f1:	sub    esp,0xffffffa0
  4011f4:	mov    ebp,DWORD PTR [esp]
  4011f7:	add    esp,0x4
  4011fa:	ret    
  4011fb:	add    BYTE PTR [eax],al
  4011fd:	add    BYTE PTR [eax],al
  4011ff:	add    BYTE PTR [ebx-0x1374aa01],cl
  401205:	sub    esp,0x3c
  401208:	push   edx
  401209:	push   0x403008
  40120e:	pop    eax
  40120f:	call   DWORD PTR cs:[eax]
  401212:	pop    edx
  401213:	push   edx
  401214:	push   DWORD PTR [edx+0x4c8]
  40121a:	push   ecx
  40121b:	push   edi
  40121c:	push   edi
  40121d:	call   0x401d60
  401222:	add    esp,0x10
  401225:	pop    edx
  401226:	push   edx
  401227:	push   0x0
  401229:	push   0x40300c
  40122e:	pop    eax
  40122f:	call   DWORD PTR cs:[eax]
  401232:	pop    edx
  401233:	sub    esp,0xffffffc4
  401236:	mov    ebp,DWORD PTR [esp]
  401239:	add    esp,0x4
  40123c:	ret    
  40123d:	add    BYTE PTR [eax],al
  40123f:	add    BYTE PTR [eax],al
  401241:	add    BYTE PTR [eax],al
  401243:	add    BYTE PTR [ebx-0x1374aa01],cl
  401249:	sub    esp,0x38
  40124c:	push   edx
  40124d:	mov    ecx,0x0
  401252:	push   ecx
  401253:	push   0x403038
  401258:	pop    eax
  401259:	call   DWORD PTR cs:[eax]
  40125c:	pop    edx
  40125d:	push   edx
  40125e:	push   edi
  40125f:	push   DWORD PTR [edx+0x34]
  401262:	push   ebx
  401263:	call   0x4018f8
  401268:	add    esp,0xc
  40126b:	pop    edx
  40126c:	push   edx
  40126d:	mov    esi,0x0
  401272:	push   esi
  401273:	push   0x40302c
  401278:	pop    eax
  401279:	call   DWORD PTR cs:[eax]
  40127c:	pop    edx
  40127d:	sub    esp,0xffffffc8
  401280:	mov    ebp,DWORD PTR [esp]
  401283:	add    esp,0x4
  401286:	ret    
	...
  40128f:	add    BYTE PTR [ebx-0x1374aa01],cl
  401295:	sub    esp,0x40
  401298:	push   edx
  401299:	mov    ebx,0x0
  40129e:	push   ebx
  40129f:	push   0x403010
  4012a4:	pop    eax
  4012a5:	call   DWORD PTR cs:[eax]
  4012a8:	pop    edx
  4012a9:	push   edx
  4012aa:	push   eax
  4012ab:	push   ecx
  4012ac:	call   0x4017dc
  4012b1:	add    esp,0x8
  4012b4:	pop    edx
  4012b5:	push   edx
  4012b6:	mov    ebx,0x0
  4012bb:	push   ebx
  4012bc:	push   0x403010
  4012c1:	pop    eax
  4012c2:	call   DWORD PTR cs:[eax]
  4012c5:	pop    edx
  4012c6:	sub    esp,0xffffffc0
  4012c9:	mov    ebp,DWORD PTR [esp]
  4012cc:	add    esp,0x4
  4012cf:	ret    
  4012d0:	mov    edi,edi
  4012d2:	push   ebp
  4012d3:	mov    ebp,esp
  4012d5:	sub    esp,0x44
  4012d8:	push   edx
  4012d9:	push   0x403008
  4012de:	pop    eax
  4012df:	call   DWORD PTR cs:[eax]
  4012e2:	pop    edx
  4012e3:	push   edx
  4012e4:	push   DWORD PTR [edx+0x550]
  4012ea:	push   esi
  4012eb:	push   ecx
  4012ec:	call   0x401bf4
  4012f1:	add    esp,0xc
  4012f4:	pop    edx
  4012f5:	push   edx
  4012f6:	lea    eax,[edx]
  4012f8:	push   eax
  4012f9:	push   0x403044
  4012fe:	pop    eax
  4012ff:	call   DWORD PTR cs:[eax]
  401302:	test   eax,eax
  401304:	jne    0x4012f6
  401306:	pop    edx
  401307:	sub    esp,0xffffffbc
  40130a:	mov    ebp,DWORD PTR [esp]
  40130d:	add    esp,0x4
  401310:	ret    
  401311:	add    BYTE PTR [eax],al
  401313:	add    BYTE PTR [eax],al
  401315:	add    BYTE PTR [eax],al
  401317:	add    BYTE PTR [ebx-0x1374aa01],cl
  40131d:	sub    esp,0x38
  401320:	push   edx
  401321:	push   edi
  401322:	push   edi
  401323:	call   0x401708
  401328:	add    esp,0x8
  40132b:	pop    edx
  40132c:	push   edx
  40132d:	mov    eax,0x0
  401332:	push   eax
  401333:	push   0x40306c
  401338:	pop    eax
  401339:	call   DWORD PTR cs:[eax]
  40133c:	pop    edx
  40133d:	push   edx
  40133e:	push   0x403020
  401343:	pop    eax
  401344:	call   DWORD PTR cs:[eax]
  401347:	pop    edx
  401348:	sub    esp,0xffffffc8
  40134b:	mov    ebp,DWORD PTR [esp]
  40134e:	add    esp,0x4
  401351:	ret    
  401352:	add    BYTE PTR [eax],al
  401354:	mov    edi,edi
  401356:	push   ebp
  401357:	mov    ebp,esp
  401359:	sub    esp,0x40
  40135c:	push   edx
  40135d:	mov    eax,0x0
  401362:	push   eax
  401363:	push   0x403040
  401368:	pop    eax
  401369:	call   DWORD PTR cs:[eax]
  40136c:	pop    edx
  40136d:	push   edx
  40136e:	push   esi
  40136f:	push   eax
  401370:	call   0x401560
  401375:	add    esp,0x8
  401378:	pop    edx
  401379:	push   edx
  40137a:	mov    edi,0x0
  40137f:	push   edi
  401380:	push   0x40300c
  401385:	pop    eax
  401386:	call   DWORD PTR cs:[eax]
  401389:	pop    edx
  40138a:	sub    esp,0xffffffc0
  40138d:	mov    ebp,DWORD PTR [esp]
  401390:	add    esp,0x4
  401393:	ret    
  401394:	add    BYTE PTR [eax],al
  401396:	add    BYTE PTR [eax],al
  401398:	mov    edi,edi
  40139a:	push   ebp
  40139b:	mov    ebp,esp
  40139d:	sub    esp,0x2c
  4013a0:	push   edx
  4013a1:	push   0x0
  4013a3:	push   0x403040
  4013a8:	pop    eax
  4013a9:	call   DWORD PTR cs:[eax]
  4013ac:	pop    edx
  4013ad:	push   edx
  4013ae:	push   DWORD PTR [edx+0x3e0]
  4013b4:	push   ecx
  4013b5:	push   edi
  4013b6:	push   ecx
  4013b7:	call   0x401528
  4013bc:	add    esp,0x10
  4013bf:	pop    edx
  4013c0:	push   edx
  4013c1:	push   0x0
  4013c3:	push   0x403010
  4013c8:	pop    eax
  4013c9:	call   DWORD PTR cs:[eax]
  4013cc:	pop    edx
  4013cd:	sub    esp,0xffffffd4
  4013d0:	mov    ebp,DWORD PTR [esp]
  4013d3:	add    esp,0x4
  4013d6:	ret    
	...
  4013df:	add    BYTE PTR [ebx-0x1374aa01],cl
  4013e5:	sub    esp,0x58
  4013e8:	push   edx
  4013e9:	push   0x403020
  4013ee:	pop    eax
  4013ef:	call   DWORD PTR cs:[eax]
  4013f2:	pop    edx
  4013f3:	push   edx
  4013f4:	push   esi
  4013f5:	push   eax
  4013f6:	call   0x401a4c
  4013fb:	add    esp,0x8
  4013fe:	pop    edx
  4013ff:	push   edx
  401400:	push   0x0
  401402:	push   0x403040
  401407:	pop    eax
  401408:	call   DWORD PTR cs:[eax]
  40140b:	pop    edx
  40140c:	sub    esp,0xffffffa8
  40140f:	mov    ebp,DWORD PTR [esp]
  401412:	add    esp,0x4
  401415:	ret    
  401416:	add    BYTE PTR [eax],al
  401418:	mov    edi,edi
  40141a:	push   ebp
  40141b:	mov    ebp,esp
  40141d:	sub    esp,0x58
  401420:	push   edx
  401421:	push   DWORD PTR [edx+0x3f4]
  401427:	push   esi
  401428:	push   ecx
  401429:	call   0x4011c0
  40142e:	add    esp,0xc
  401431:	pop    edx
  401432:	push   edx
  401433:	push   0x0
  401435:	push   0x40306c
  40143a:	pop    eax
  40143b:	call   DWORD PTR cs:[eax]
  40143e:	pop    edx
  40143f:	push   edx
  401440:	push   0x0
  401442:	push   0x403068
  401447:	pop    eax
  401448:	call   DWORD PTR cs:[eax]
  40144b:	pop    edx
  40144c:	sub    esp,0xffffffa8
  40144f:	mov    ebp,DWORD PTR [esp]
  401452:	add    esp,0x4
  401455:	ret    
  401456:	add    BYTE PTR [eax],al
  401458:	push   0x0
  40145a:	add    DWORD PTR [esp],0x47f000
  401461:	xor    ecx,ecx
  401463:	or     ecx,0x403094
  401469:	and    WORD PTR [ecx],0x0
  40146d:	push   DWORD PTR [ecx]
  40146f:	pop    eax
  401470:	mov    edx,eax
  401472:	push   0x3c
  401474:	add    DWORD PTR [esp],eax
  401477:	pop    ecx
  401478:	push   eax
  401479:	mov    edi,esp
  40147b:	mov    esi,ecx
  40147d:	movs   DWORD PTR es:[edi],DWORD PTR ds:[esi]
  40147e:	pop    eax
  40147f:	mov    edx,DWORD PTR [eax+edx*1+0x1c]
  401483:	ror    edx,0x8
  401486:	xor    eax,eax
  401488:	or     al,0x80
  40148a:	cmp    al,dl
  40148c:	pop    edx
  40148d:	ja     0x401498
  40148f:	nop
  401490:	nop
  401491:	nop
  401492:	nop
  401493:	jmp    0x40112c
  401498:	xor    esp,esp
  40149a:	int3   
  40149b:	int3   
  40149c:	mov    edi,edi
  40149e:	push   ebp
  40149f:	mov    ebp,esp
  4014a1:	sub    esp,0x30
  4014a4:	push   edx
  4014a5:	mov    ecx,0x0
  4014aa:	push   ecx
  4014ab:	push   0x40302c
  4014b0:	pop    eax
  4014b1:	call   DWORD PTR cs:[eax]
  4014b4:	pop    edx
  4014b5:	push   edx
  4014b6:	push   edi
  4014b7:	push   eax
  4014b8:	call   0x401290
  4014bd:	add    esp,0x8
  4014c0:	pop    edx
  4014c1:	push   edx
  4014c2:	mov    esi,0x0
  4014c7:	push   esi
  4014c8:	push   0x40302c
  4014cd:	pop    eax
  4014ce:	call   DWORD PTR cs:[eax]
  4014d1:	pop    edx
  4014d2:	sub    esp,0xffffffd0
  4014d5:	mov    ebp,DWORD PTR [esp]
  4014d8:	add    esp,0x4
  4014db:	ret    
  4014dc:	mov    edi,edi
  4014de:	push   ebp
  4014df:	mov    ebp,esp
  4014e1:	sub    esp,0x54
  4014e4:	push   edx
  4014e5:	push   DWORD PTR [edx+0x238]
  4014eb:	push   DWORD PTR [edx+0x3c]
  4014ee:	call   0x4012d0
  4014f3:	add    esp,0x8
  4014f6:	pop    edx
  4014f7:	push   edx
  4014f8:	mov    ebx,0x0
  4014fd:	push   ebx
  4014fe:	push   0x403028
  401503:	pop    eax
  401504:	call   DWORD PTR cs:[eax]
  401507:	pop    edx
  401508:	push   edx
  401509:	mov    eax,0x0
  40150e:	push   eax
  40150f:	push   0x403004
  401514:	pop    eax
  401515:	call   DWORD PTR cs:[eax]
  401518:	pop    edx
  401519:	sub    esp,0xffffffac
  40151c:	mov    ebp,DWORD PTR [esp]
  40151f:	add    esp,0x4
  401522:	ret    
  401523:	add    BYTE PTR [eax],al
  401525:	add    BYTE PTR [eax],al
  401527:	add    BYTE PTR [ebx-0x1374aa01],cl
  40152d:	sub    esp,0x3c
  401530:	push   edx
  401531:	push   esi
  401532:	push   esi
  401533:	call   0x401004
  401538:	add    esp,0x8
  40153b:	pop    edx
  40153c:	push   edx
  40153d:	push   0x403020
  401542:	pop    eax
  401543:	call   DWORD PTR cs:[eax]
  401546:	pop    edx
  401547:	push   edx
  401548:	push   0x0
  40154a:	push   0x40302c
  40154f:	pop    eax
  401550:	call   DWORD PTR cs:[eax]
  401553:	pop    edx
  401554:	sub    esp,0xffffffc4
  401557:	mov    ebp,DWORD PTR [esp]
  40155a:	add    esp,0x4
  40155d:	ret    
  40155e:	add    BYTE PTR [eax],al
  401560:	mov    edi,edi
  401562:	push   ebp
  401563:	mov    ebp,esp
  401565:	sub    esp,0x58
  401568:	push   edx
  401569:	push   DWORD PTR [edx+0x380]
  40156f:	push   eax
  401570:	call   0x4019c0
  401575:	add    esp,0x8
  401578:	pop    edx
  401579:	push   edx
  40157a:	push   0x0
  40157c:	push   0x403028
  401581:	pop    eax
  401582:	call   DWORD PTR cs:[eax]
  401585:	pop    edx
  401586:	push   edx
  401587:	push   0x0
  401589:	push   0x403000
  40158e:	pop    eax
  40158f:	call   DWORD PTR cs:[eax]
  401592:	pop    edx
  401593:	sub    esp,0xffffffa8
  401596:	mov    ebp,DWORD PTR [esp]
  401599:	add    esp,0x4
  40159c:	ret    
	...
  4015a5:	add    BYTE PTR [eax],al
  4015a7:	add    BYTE PTR [ebx-0x1374aa01],cl
  4015ad:	sub    esp,0x38
  4015b0:	push   edx
  4015b1:	push   edi
  4015b2:	push   DWORD PTR [edx+0x5f0]
  4015b8:	push   DWORD PTR [edx+0x4a4]
  4015be:	push   DWORD PTR [edx+0x528]
  4015c4:	call   0x401648
  4015c9:	add    esp,0x10
  4015cc:	pop    edx
  4015cd:	push   edx
  4015ce:	push   0x0
  4015d0:	push   0x40302c
  4015d5:	pop    eax
  4015d6:	call   DWORD PTR cs:[eax]
  4015d9:	pop    edx
  4015da:	push   edx
  4015db:	mov    ecx,0x0
  4015e0:	push   ecx
  4015e1:	push   0x403074
  4015e6:	pop    eax
  4015e7:	call   DWORD PTR cs:[eax]
  4015ea:	pop    edx
  4015eb:	sub    esp,0xffffffc8
  4015ee:	mov    ebp,DWORD PTR [esp]
  4015f1:	add    esp,0x4
  4015f4:	ret    
  4015f5:	add    BYTE PTR [eax],al
  4015f7:	add    BYTE PTR [ebx-0x1374aa01],cl
  4015fd:	sub    esp,0x5c
  401600:	push   edx
  401601:	push   DWORD PTR [edx+0x4e4]
  401607:	push   DWORD PTR [edx+0x170]
  40160d:	push   DWORD PTR [edx+0x50c]
  401613:	push   eax
  401614:	call   0x401da8
  401619:	add    esp,0x10
  40161c:	pop    edx
  40161d:	push   edx
  40161e:	mov    edx,0x0
  401623:	push   edx
  401624:	push   0x40302c
  401629:	pop    eax
  40162a:	call   DWORD PTR cs:[eax]
  40162d:	pop    edx
  40162e:	push   edx
  40162f:	push   0x0
  401631:	push   0x403010
  401636:	pop    eax
  401637:	call   DWORD PTR cs:[eax]
  40163a:	pop    edx
  40163b:	sub    esp,0xffffffa4
  40163e:	mov    ebp,DWORD PTR [esp]
  401641:	add    esp,0x4
  401644:	ret    
  401645:	add    BYTE PTR [eax],al
  401647:	add    BYTE PTR [ebx-0x1374aa01],cl
  40164d:	sub    esp,0x3c
  401650:	push   edx
  401651:	push   DWORD PTR [edx+0x468]
  401657:	push   eax
  401658:	call   0x40174c
  40165d:	add    esp,0x8
  401660:	pop    edx
  401661:	push   edx
  401662:	push   0x403020
  401667:	pop    eax
  401668:	call   DWORD PTR cs:[eax]
  40166b:	pop    edx
  40166c:	push   edx
  40166d:	push   0x403008
  401672:	pop    eax
  401673:	call   DWORD PTR cs:[eax]
  401676:	pop    edx
  401677:	sub    esp,0xffffffc4
  40167a:	mov    ebp,DWORD PTR [esp]
  40167d:	add    esp,0x4
  401680:	ret    
  401681:	add    BYTE PTR [eax],al
  401683:	add    BYTE PTR [ebx-0x1374aa01],cl
  401689:	sub    esp,0x38
  40168c:	push   edx
  40168d:	push   0x0
  40168f:	push   0x40306c
  401694:	pop    eax
  401695:	call   DWORD PTR cs:[eax]
  401698:	pop    edx
  401699:	push   edx
  40169a:	push   DWORD PTR [edx+0x3a8]
  4016a0:	push   edi
  4016a1:	push   edi
  4016a2:	push   DWORD PTR [edx+0x200]
  4016a8:	call   0x401b14
  4016ad:	add    esp,0x10
  4016b0:	pop    edx
  4016b1:	push   edx
  4016b2:	push   0x0
  4016b4:	push   0x403068
  4016b9:	pop    eax
  4016ba:	call   DWORD PTR cs:[eax]
  4016bd:	pop    edx
  4016be:	sub    esp,0xffffffc8
  4016c1:	mov    ebp,DWORD PTR [esp]
  4016c4:	add    esp,0x4
  4016c7:	ret    
	...
  4016d0:	mov    edi,edi
  4016d2:	push   ebp
  4016d3:	mov    ebp,esp
  4016d5:	sub    esp,0x3c
  4016d8:	push   edx
  4016d9:	push   ecx
  4016da:	push   esi
  4016db:	call   0x401684
  4016e0:	add    esp,0x8
  4016e3:	pop    edx
  4016e4:	push   edx
  4016e5:	push   0x0
  4016e7:	push   0x403074
  4016ec:	pop    eax
  4016ed:	call   DWORD PTR cs:[eax]
  4016f0:	pop    edx
  4016f1:	push   edx
  4016f2:	push   0x403020
  4016f7:	pop    eax
  4016f8:	call   DWORD PTR cs:[eax]
  4016fb:	pop    edx
  4016fc:	sub    esp,0xffffffc4
  4016ff:	mov    ebp,DWORD PTR [esp]
  401702:	add    esp,0x4
  401705:	ret    
  401706:	add    BYTE PTR [eax],al
  401708:	mov    edi,edi
  40170a:	push   ebp
  40170b:	mov    ebp,esp
  40170d:	sub    esp,0x58
  401710:	push   edx
  401711:	mov    eax,0x0
  401716:	push   eax
  401717:	push   0x40300c
  40171c:	pop    eax
  40171d:	call   DWORD PTR cs:[eax]
  401720:	pop    edx
  401721:	push   edx
  401722:	push   DWORD PTR [edx+0x4d8]
  401728:	push   eax
  401729:	call   0x401244
  40172e:	add    esp,0x8
  401731:	pop    edx
  401732:	push   edx
  401733:	push   0x403020
  401738:	pop    eax
  401739:	call   DWORD PTR cs:[eax]
  40173c:	pop    edx
  40173d:	sub    esp,0xffffffa8
  401740:	mov    ebp,DWORD PTR [esp]
  401743:	add    esp,0x4
  401746:	ret    
  401747:	add    BYTE PTR [eax],al
  401749:	add    BYTE PTR [eax],al
  40174b:	add    BYTE PTR [ebx-0x1374aa01],cl
  401751:	sub    esp,0x28
  401754:	push   edx
  401755:	mov    ebx,0x0
  40175a:	push   ebx
  40175b:	push   0x40306c
  401760:	pop    eax
  401761:	call   DWORD PTR cs:[eax]
  401764:	pop    edx
  401765:	push   edx
  401766:	push   edi
  401767:	push   DWORD PTR [edx+0x38c]
  40176d:	push   ebx
  40176e:	push   DWORD PTR [edx+0x24]
  401771:	call   0x401864
  401776:	add    esp,0x10
  401779:	pop    edx
  40177a:	push   edx
  40177b:	push   0x0
  40177d:	push   0x403074
  401782:	pop    eax
  401783:	call   DWORD PTR cs:[eax]
  401786:	pop    edx
  401787:	sub    esp,0xffffffd8
  40178a:	mov    ebp,DWORD PTR [esp]
  40178d:	add    esp,0x4
  401790:	ret    
  401791:	add    BYTE PTR [eax],al
  401793:	add    BYTE PTR [eax],al
  401795:	add    BYTE PTR [eax],al
  401797:	add    BYTE PTR [ebx-0x1374aa01],cl
  40179d:	sub    esp,0x4c
  4017a0:	push   edx
  4017a1:	push   0x403008
  4017a6:	pop    eax
  4017a7:	call   DWORD PTR cs:[eax]
  4017aa:	pop    edx
  4017ab:	push   edx
  4017ac:	push   eax
  4017ad:	push   ebx
  4017ae:	push   esi
  4017af:	call   0x401ac8
  4017b4:	add    esp,0xc
  4017b7:	pop    edx
  4017b8:	push   edx
  4017b9:	push   0x0
  4017bb:	push   0x403004
  4017c0:	pop    eax
  4017c1:	call   DWORD PTR cs:[eax]
  4017c4:	pop    edx
  4017c5:	sub    esp,0xffffffb4
  4017c8:	mov    ebp,DWORD PTR [esp]
  4017cb:	add    esp,0x4
  4017ce:	ret    
	...
  4017db:	add    BYTE PTR [ebx-0x1374aa01],cl
  4017e1:	sub    esp,0x3c
  4017e4:	push   edx
  4017e5:	push   edi
  4017e6:	push   ebx
  4017e7:	call   0x401a00
  4017ec:	add    esp,0x8
  4017ef:	pop    edx
  4017f0:	push   edx
  4017f1:	lea    esi,[edx]
  4017f3:	push   esi
  4017f4:	push   0x403044
  4017f9:	pop    eax
  4017fa:	call   DWORD PTR cs:[eax]
  4017fd:	test   eax,eax
  4017ff:	jne    0x4017f1
  401801:	pop    edx
  401802:	push   edx
  401803:	push   0x0
  401805:	push   0x403028
  40180a:	pop    eax
  40180b:	call   DWORD PTR cs:[eax]
  40180e:	pop    edx
  40180f:	sub    esp,0xffffffc4
  401812:	mov    ebp,DWORD PTR [esp]
  401815:	add    esp,0x4
  401818:	ret    
  401819:	add    BYTE PTR [eax],al
  40181b:	add    BYTE PTR [ebx-0x1374aa01],cl
  401821:	sub    esp,0x38
  401824:	push   edx
  401825:	push   DWORD PTR [edx+0x4a4]
  40182b:	push   ebx
  40182c:	push   eax
  40182d:	push   DWORD PTR [edx+0x114]
  401833:	call   0x4015a8
  401838:	add    esp,0x10
  40183b:	pop    edx
  40183c:	push   edx
  40183d:	push   0x0
  40183f:	push   0x403028
  401844:	pop    eax
  401845:	call   DWORD PTR cs:[eax]
  401848:	pop    edx
  401849:	push   edx
  40184a:	push   0x403008
  40184f:	pop    eax
  401850:	call   DWORD PTR cs:[eax]
  401853:	pop    edx
  401854:	sub    esp,0xffffffc8
  401857:	mov    ebp,DWORD PTR [esp]
  40185a:	add    esp,0x4
  40185d:	ret    
  40185e:	add    BYTE PTR [eax],al
  401860:	add    BYTE PTR [eax],al
  401862:	add    BYTE PTR [eax],al
  401864:	mov    edi,edi
  401866:	push   ebp
  401867:	mov    ebp,esp
  401869:	sub    esp,0x54
  40186c:	push   edx
  40186d:	mov    edi,0x0
  401872:	push   edi
  401873:	push   0x40302c
  401878:	pop    eax
  401879:	call   DWORD PTR cs:[eax]
  40187c:	pop    edx
  40187d:	push   edx
  40187e:	push   edi
  40187f:	push   DWORD PTR [edx+0x3ac]
  401885:	push   DWORD PTR [edx+0x44]
  401888:	push   eax
  401889:	call   0x401048
  40188e:	add    esp,0x10
  401891:	pop    edx
  401892:	push   edx
  401893:	mov    edi,0x0
  401898:	push   edi
  401899:	push   0x403004
  40189e:	pop    eax
  40189f:	call   DWORD PTR cs:[eax]
  4018a2:	pop    edx
  4018a3:	sub    esp,0xffffffac
  4018a6:	mov    ebp,DWORD PTR [esp]
  4018a9:	add    esp,0x4
  4018ac:	ret    
  4018ad:	add    BYTE PTR [eax],al
  4018af:	add    BYTE PTR [ebx-0x1374aa01],cl
  4018b5:	sub    esp,0x34
  4018b8:	push   edx
  4018b9:	push   esi
  4018ba:	push   ecx
  4018bb:	push   DWORD PTR [edx+0x58]
  4018be:	call   0x401988
  4018c3:	add    esp,0xc
  4018c6:	pop    edx
  4018c7:	push   edx
  4018c8:	push   0x0
  4018ca:	push   0x40302c
  4018cf:	pop    eax
  4018d0:	call   DWORD PTR cs:[eax]
  4018d3:	pop    edx
  4018d4:	push   edx
  4018d5:	push   0x0
  4018d7:	push   0x40302c
  4018dc:	pop    eax
  4018dd:	call   DWORD PTR cs:[eax]
  4018e0:	pop    edx
  4018e1:	sub    esp,0xffffffcc
  4018e4:	mov    ebp,DWORD PTR [esp]
  4018e7:	add    esp,0x4
  4018ea:	ret    
	...
  4018f7:	add    BYTE PTR [ebx-0x1374aa01],cl
  4018fd:	sub    esp,0x44
  401900:	push   edx
  401901:	mov    ecx,0x0
  401906:	push   ecx
  401907:	push   0x40306c
  40190c:	pop    eax
  40190d:	call   DWORD PTR cs:[eax]
  401910:	pop    edx
  401911:	push   edx
  401912:	push   ebx
  401913:	push   DWORD PTR [edx+0x430]
  401919:	push   eax
  40191a:	call   0x401398
  40191f:	add    esp,0xc
  401922:	pop    edx
  401923:	push   edx
  401924:	mov    eax,0x0
  401929:	push   eax
  40192a:	push   0x40306c
  40192f:	pop    eax
  401930:	call   DWORD PTR cs:[eax]
  401933:	pop    edx
  401934:	sub    esp,0xffffffbc
  401937:	mov    ebp,DWORD PTR [esp]
  40193a:	add    esp,0x4
  40193d:	ret    
  40193e:	add    BYTE PTR [eax],al
  401940:	add    BYTE PTR [eax],al
  401942:	add    BYTE PTR [eax],al
  401944:	mov    edi,edi
  401946:	push   ebp
  401947:	mov    ebp,esp
  401949:	sub    esp,0x1c
  40194c:	push   edx
  40194d:	push   ecx
  40194e:	push   edi
  40194f:	push   DWORD PTR [edx+0x278]
  401955:	call   0x4018b0
  40195a:	add    esp,0xc
  40195d:	pop    edx
  40195e:	push   edx
  40195f:	push   0x0
  401961:	push   0x403074
  401966:	pop    eax
  401967:	call   DWORD PTR cs:[eax]
  40196a:	pop    edx
  40196b:	push   edx
  40196c:	mov    eax,0x0
  401971:	push   eax
  401972:	push   0x40306c
  401977:	pop    eax
  401978:	call   DWORD PTR cs:[eax]
  40197b:	pop    edx
  40197c:	sub    esp,0xffffffe4
  40197f:	mov    ebp,DWORD PTR [esp]
  401982:	add    esp,0x4
  401985:	ret    
  401986:	add    BYTE PTR [eax],al
  401988:	mov    edi,edi
  40198a:	push   ebp
  40198b:	mov    ebp,esp
  40198d:	sub    esp,0x34
  401990:	push   edx
  401991:	push   esi
  401992:	push   ebx
  401993:	push   edi
  401994:	push   edi
  401995:	call   0x401140
  40199a:	add    esp,0x10
  40199d:	pop    edx
  40199e:	push   edx
  40199f:	push   0x0
  4019a1:	push   0x403048
  4019a6:	pop    eax
  4019a7:	call   DWORD PTR cs:[eax]
  4019aa:	pop    edx
  4019ab:	push   edx
  4019ac:	push   0x403020
  4019b1:	pop    eax
  4019b2:	call   DWORD PTR cs:[eax]
  4019b5:	pop    edx
  4019b6:	sub    esp,0xffffffcc
  4019b9:	mov    ebp,DWORD PTR [esp]
  4019bc:	add    esp,0x4
  4019bf:	ret    
  4019c0:	mov    edi,edi
  4019c2:	push   ebp
  4019c3:	mov    ebp,esp
  4019c5:	sub    esp,0x1c
  4019c8:	push   edx
  4019c9:	push   edi
  4019ca:	push   DWORD PTR [edx+0x428]
  4019d0:	push   esi
  4019d1:	call   0x401318
  4019d6:	add    esp,0xc
  4019d9:	pop    edx
  4019da:	push   edx
  4019db:	mov    eax,0x0
  4019e0:	push   eax
  4019e1:	push   0x403068
  4019e6:	pop    eax
  4019e7:	call   DWORD PTR cs:[eax]
  4019ea:	pop    edx
  4019eb:	push   edx
  4019ec:	push   0x403020
  4019f1:	pop    eax
  4019f2:	call   DWORD PTR cs:[eax]
  4019f5:	pop    edx
  4019f6:	sub    esp,0xffffffe4
  4019f9:	mov    ebp,DWORD PTR [esp]
  4019fc:	add    esp,0x4
  4019ff:	ret    
  401a00:	mov    edi,edi
  401a02:	push   ebp
  401a03:	mov    ebp,esp
  401a05:	sub    esp,0x40
  401a08:	push   edx
  401a09:	mov    eax,0x0
  401a0e:	push   eax
  401a0f:	push   0x403028
  401a14:	pop    eax
  401a15:	call   DWORD PTR cs:[eax]
  401a18:	pop    edx
  401a19:	push   edx
  401a1a:	push   DWORD PTR [edx+0x4c4]
  401a20:	push   DWORD PTR [edx+0x4]
  401a23:	call   0x401180
  401a28:	add    esp,0x8
  401a2b:	pop    edx
  401a2c:	push   edx
  401a2d:	mov    eax,0x0
  401a32:	push   eax
  401a33:	push   0x403040
  401a38:	pop    eax
  401a39:	call   DWORD PTR cs:[eax]
  401a3c:	pop    edx
  401a3d:	sub    esp,0xffffffc0
  401a40:	mov    ebp,DWORD PTR [esp]
  401a43:	add    esp,0x4
  401a46:	ret    
  401a47:	add    BYTE PTR [eax],al
  401a49:	add    BYTE PTR [eax],al
  401a4b:	add    BYTE PTR [ebx-0x1374aa01],cl
  401a51:	sub    esp,0x38
  401a54:	push   edx
  401a55:	push   eax
  401a56:	push   edi
  401a57:	push   ebx
  401a58:	push   eax
  401a59:	call   0x4015f8
  401a5e:	add    esp,0x10
  401a61:	pop    edx
  401a62:	push   edx
  401a63:	push   0x403008
  401a68:	pop    eax
  401a69:	call   DWORD PTR cs:[eax]
  401a6c:	pop    edx
  401a6d:	push   edx
  401a6e:	push   0x0
  401a70:	push   0x403040
  401a75:	pop    eax
  401a76:	call   DWORD PTR cs:[eax]
  401a79:	pop    edx
  401a7a:	sub    esp,0xffffffc8
  401a7d:	mov    ebp,DWORD PTR [esp]
  401a80:	add    esp,0x4
  401a83:	ret    
  401a84:	mov    edi,edi
  401a86:	push   ebp
  401a87:	mov    ebp,esp
  401a89:	sub    esp,0x34
  401a8c:	push   edx
  401a8d:	lea    edx,[edx]
  401a8f:	push   edx
  401a90:	push   0x403044
  401a95:	pop    eax
  401a96:	call   DWORD PTR cs:[eax]
  401a99:	test   eax,eax
  401a9b:	jne    0x401a8d
  401a9d:	pop    edx
  401a9e:	push   edx
  401a9f:	push   DWORD PTR [edx+0x2f4]
  401aa5:	push   esi
  401aa6:	call   0x401b60
  401aab:	add    esp,0x8
  401aae:	pop    edx
  401aaf:	push   edx
  401ab0:	push   0x0
  401ab2:	push   0x403004
  401ab7:	pop    eax
  401ab8:	call   DWORD PTR cs:[eax]
  401abb:	pop    edx
  401abc:	sub    esp,0xffffffcc
  401abf:	mov    ebp,DWORD PTR [esp]
  401ac2:	add    esp,0x4
  401ac5:	ret    
  401ac6:	add    BYTE PTR [eax],al
  401ac8:	mov    edi,edi
  401aca:	push   ebp
  401acb:	mov    ebp,esp
  401acd:	sub    esp,0x54
  401ad0:	push   edx
  401ad1:	lea    eax,[edx]
  401ad3:	push   eax
  401ad4:	push   0x403044
  401ad9:	pop    eax
  401ada:	call   DWORD PTR cs:[eax]
  401add:	test   eax,eax
  401adf:	jne    0x401ad1
  401ae1:	pop    edx
  401ae2:	push   edx
  401ae3:	push   DWORD PTR [edx+0x204]
  401ae9:	push   edi
  401aea:	call   0x401a84
  401aef:	add    esp,0x8
  401af2:	pop    edx
  401af3:	push   edx
  401af4:	push   0x0
  401af6:	push   0x403000
  401afb:	pop    eax
  401afc:	call   DWORD PTR cs:[eax]
  401aff:	pop    edx
  401b00:	sub    esp,0xffffffac
  401b03:	mov    ebp,DWORD PTR [esp]
  401b06:	add    esp,0x4
  401b09:	ret    
	...
  401b12:	add    BYTE PTR [eax],al
  401b14:	mov    edi,edi
  401b16:	push   ebp
  401b17:	mov    ebp,esp
  401b19:	sub    esp,0x50
  401b1c:	push   edx
  401b1d:	mov    edi,0x0
  401b22:	push   edi
  401b23:	push   0x403068
  401b28:	pop    eax
  401b29:	call   DWORD PTR cs:[eax]
  401b2c:	pop    edx
  401b2d:	push   edx
  401b2e:	push   edi
  401b2f:	push   DWORD PTR [edx+0x4ec]
  401b35:	call   0x401cdc
  401b3a:	add    esp,0x8
  401b3d:	pop    edx
  401b3e:	push   edx
  401b3f:	push   0x0
  401b41:	push   0x403010
  401b46:	pop    eax
  401b47:	call   DWORD PTR cs:[eax]
  401b4a:	pop    edx
  401b4b:	sub    esp,0xffffffb0
  401b4e:	mov    ebp,DWORD PTR [esp]
  401b51:	add    esp,0x4
  401b54:	ret    
	...
  401b5d:	add    BYTE PTR [eax],al
  401b5f:	add    BYTE PTR [ebx-0x1374aa01],cl
  401b65:	sub    esp,0x30
  401b68:	push   edx
  401b69:	push   0x0
  401b6b:	push   0x403004
  401b70:	pop    eax
  401b71:	call   DWORD PTR cs:[eax]
  401b74:	pop    edx
  401b75:	push   edx
  401b76:	push   ebx
  401b77:	push   eax
  401b78:	call   0x401ba0
  401b7d:	add    esp,0x8
  401b80:	pop    edx
  401b81:	push   edx
  401b82:	push   0x0
  401b84:	push   0x403048
  401b89:	pop    eax
  401b8a:	call   DWORD PTR cs:[eax]
  401b8d:	pop    edx
  401b8e:	sub    esp,0xffffffd0
  401b91:	mov    ebp,DWORD PTR [esp]
  401b94:	add    esp,0x4
  401b97:	ret    
	...
  401ba0:	mov    edi,edi
  401ba2:	push   ebp
  401ba3:	mov    ebp,esp
  401ba5:	sub    esp,0x3c
  401ba8:	push   edx
  401ba9:	mov    edx,0x0
  401bae:	push   edx
  401baf:	push   0x403068
  401bb4:	pop    eax
  401bb5:	call   DWORD PTR cs:[eax]
  401bb8:	pop    edx
  401bb9:	push   edx
  401bba:	push   DWORD PTR [edx+0x3c4]
  401bc0:	push   DWORD PTR [edx+0x5b4]
  401bc6:	push   DWORD PTR [edx+0x22c]
  401bcc:	push   ebx
  401bcd:	call   0x4013e0
  401bd2:	add    esp,0x10
  401bd5:	pop    edx
  401bd6:	push   edx
  401bd7:	push   0x0
  401bd9:	push   0x403010
  401bde:	pop    eax
  401bdf:	call   DWORD PTR cs:[eax]
  401be2:	pop    edx
  401be3:	sub    esp,0xffffffc4
  401be6:	mov    ebp,DWORD PTR [esp]
  401be9:	add    esp,0x4
  401bec:	ret    
  401bed:	add    BYTE PTR [eax],al
  401bef:	add    BYTE PTR [eax],al
  401bf1:	add    BYTE PTR [eax],al
  401bf3:	add    BYTE PTR [ebx-0x1374aa01],cl
  401bf9:	sub    esp,0x44
  401bfc:	push   edx
  401bfd:	lea    ecx,[edx]
  401bff:	push   ecx
  401c00:	push   0x403044
  401c05:	pop    eax
  401c06:	call   DWORD PTR cs:[eax]
  401c09:	test   eax,eax
  401c0b:	jne    0x401bfd
  401c0d:	pop    edx
  401c0e:	push   edx
  401c0f:	push   edi
  401c10:	push   ecx
  401c11:	push   DWORD PTR [edx+0x3c0]
  401c17:	push   DWORD PTR [edx+0x44c]
  401c1d:	call   0x4010e8
  401c22:	add    esp,0x10
  401c25:	pop    edx
  401c26:	push   edx
  401c27:	push   0x0
  401c29:	push   0x40302c
  401c2e:	pop    eax
  401c2f:	call   DWORD PTR cs:[eax]
  401c32:	pop    edx
  401c33:	sub    esp,0xffffffbc
  401c36:	mov    ebp,DWORD PTR [esp]
  401c39:	add    esp,0x4
  401c3c:	ret    
  401c3d:	add    BYTE PTR [eax],al
  401c3f:	add    BYTE PTR [ebx-0x1374aa01],cl
  401c45:	sub    esp,0x48
  401c48:	push   edx
  401c49:	push   0x6b0
  401c4e:	push   0x6b0
  401c53:	mov    esi,0x40000
  401c58:	push   esi
  401c59:	push   0x403030
  401c5e:	pop    eax
  401c5f:	push   DWORD PTR [eax]
  401c61:	sub    DWORD PTR [esp],0x2
  401c65:	push   0x40303c
  401c6a:	pop    eax
  401c6b:	pop    DWORD PTR [eax]
  401c6d:	push   0x40303c
  401c72:	pop    eax
  401c73:	call   DWORD PTR cs:[eax]
  401c76:	xchg   DWORD PTR [esp],eax
  401c79:	mov    edx,eax
  401c7b:	pop    ecx
  401c7c:	mov    DWORD PTR [edx+0x19c],ecx
  401c82:	mov    ecx,DWORD PTR [edx+0x19c]
  401c88:	lea    edi,[ecx]
  401c8a:	sub    ecx,ecx
  401c8c:	dec    ecx
  401c8d:	and    ecx,0x401e0d
  401c93:	mov    esi,DWORD PTR [ecx]
  401c95:	mov    DWORD PTR [edi],esi
  401c97:	add    ecx,0x3
  401c9a:	add    edi,0x3
  401c9d:	mov    esi,0x6a719112
  401ca2:	xor    eax,eax
  401ca4:	mov    ebx,esi
  401ca6:	xor    ebx,DWORD PTR [ecx]
  401ca8:	sub    ebx,0x1
  401cab:	mov    DWORD PTR [edi],ebx
  401cad:	push   DWORD PTR [edi]
  401caf:	mov    esi,0xfffffffc
  401cb4:	sub    ecx,esi
  401cb6:	sub    edi,esi
  401cb8:	pop    esi
  401cb9:	bswap  esi
  401cbb:	add    eax,0x4
  401cbe:	cmp    eax,0x6b0
  401cc3:	jne    0x401ca4
  401cc5:	push   edx
  401cc6:	mov    ebx,0x0
  401ccb:	push   ebx
  401ccc:	push   0x40302c
  401cd1:	pop    eax
  401cd2:	call   DWORD PTR cs:[eax]
  401cd5:	pop    edx
  401cd6:	sub    esp,0xffffffb8
  401cd9:	pop    ebp
  401cda:	ret    
  401cdb:	add    BYTE PTR [ebx-0x1374aa01],cl
  401ce1:	sub    esp,0x40
  401ce4:	push   edx
  401ce5:	push   0x0
  401ce7:	push   0x403048
  401cec:	pop    eax
  401ced:	call   DWORD PTR cs:[eax]
  401cf0:	pop    edx
  401cf1:	push   edx
  401cf2:	push   esi
  401cf3:	push   DWORD PTR [edx+0x8]
  401cf6:	push   DWORD PTR [edx+0x178]
  401cfc:	call   0x40181c
  401d01:	add    esp,0xc
  401d04:	pop    edx
  401d05:	push   edx
  401d06:	mov    edx,0x0
  401d0b:	push   edx
  401d0c:	push   0x40300c
  401d11:	pop    eax
  401d12:	call   DWORD PTR cs:[eax]
  401d15:	pop    edx
  401d16:	sub    esp,0xffffffc0
  401d19:	mov    ebp,DWORD PTR [esp]
  401d1c:	add    esp,0x4
  401d1f:	ret    
  401d20:	mov    edi,edi
  401d22:	push   ebp
  401d23:	mov    ebp,esp
  401d25:	sub    esp,0x24
  401d28:	push   edx
  401d29:	push   0x403020
  401d2e:	pop    eax
  401d2f:	call   DWORD PTR cs:[eax]
  401d32:	pop    edx
  401d33:	push   edx
  401d34:	push   DWORD PTR [edx+0x434]
  401d3a:	push   DWORD PTR [edx+0x2e8]
  401d40:	call   0x401354
  401d45:	add    esp,0x8
  401d48:	pop    edx
  401d49:	push   edx
  401d4a:	push   0x0
  401d4c:	push   0x403068
  401d51:	pop    eax
  401d52:	call   DWORD PTR cs:[eax]
  401d55:	pop    edx
  401d56:	sub    esp,0xffffffdc
  401d59:	mov    ebp,DWORD PTR [esp]
  401d5c:	add    esp,0x4
  401d5f:	ret    
  401d60:	mov    edi,edi
  401d62:	push   ebp
  401d63:	mov    ebp,esp
  401d65:	sub    esp,0x34
  401d68:	push   edx
  401d69:	push   ebx
  401d6a:	push   ebx
  401d6b:	call   0x401d20
  401d70:	add    esp,0x8
  401d73:	pop    edx
  401d74:	push   edx
  401d75:	mov    edx,0x0
  401d7a:	push   edx
  401d7b:	push   0x403068
  401d80:	pop    eax
  401d81:	call   DWORD PTR cs:[eax]
  401d84:	pop    edx
  401d85:	push   edx
  401d86:	push   0x0
  401d88:	push   0x403040
  401d8d:	pop    eax
  401d8e:	call   DWORD PTR cs:[eax]
  401d91:	pop    edx
  401d92:	sub    esp,0xffffffcc
  401d95:	mov    ebp,DWORD PTR [esp]
  401d98:	add    esp,0x4
  401d9b:	ret    
	...
  401da8:	mov    edi,edi
  401daa:	push   ebp
  401dab:	mov    ebp,esp
  401dad:	sub    esp,0x34
  401db0:	push   edx
  401db1:	push   DWORD PTR [edx+0xe8]
  401db7:	push   edi
  401db8:	push   DWORD PTR [edx+0xd0]
  401dbe:	push   eax
  401dbf:	call   0x4016d0
  401dc4:	add    esp,0x10
  401dc7:	pop    edx
  401dc8:	push   edx
  401dc9:	mov    eax,0x0
  401dce:	push   eax
  401dcf:	push   0x403028
  401dd4:	pop    eax
  401dd5:	call   DWORD PTR cs:[eax]
  401dd8:	pop    edx
  401dd9:	push   edx
  401dda:	push   0x0
  401ddc:	push   0x40302c
  401de1:	pop    eax
  401de2:	call   DWORD PTR cs:[eax]
  401de5:	pop    edx
  401de6:	sub    esp,0xffffffcc
  401de9:	mov    ebp,DWORD PTR [esp]
  401dec:	add    esp,0x4
  401def:	ret    
  401df0:	add    BYTE PTR [eax],al
  401df2:	add    BYTE PTR [eax],al
  401df4:	mov    al,0x13
  401df6:	cmp    DWORD PTR [edi+0x39],ebx
  401df9:	jecxz  0x401e47
  401dfb:	and    edx,DWORD PTR [edx]
  401dfd:	xchg   edi,eax
  401dfe:	test   BYTE PTR [ecx-0x22],cl
  401e01:	test   BYTE PTR [ecx+ebx*8-0x20b335b3],bl
  401e08:	cmp    BYTE PTR [ebp+0x1e],ch
  401e0b:	jns    0x401d8d
  401e0d:	bswap  eax
  401e0f:	std    
  401e10:	out    dx,eax
  401e11:	sahf   
  401e12:	mov    ecx,0xc7c70097
  401e17:	add    DWORD PTR [eax],eax
  401e19:	mov    edi,0xc6e30001
  401e1f:	jg     0x401e62
  401e21:	retf   0xa27e
  401e24:	mov    ebp,0x310580a8
  401e29:	imul   esi,eax,0xffffffe2
  401e2c:	add    DWORD PTR ds:0x251691a3,ecx
  401e32:	gs ins BYTE PTR es:[edi],dx
  401e34:	pop    eax
  401e35:	push   edi
  401e36:	inc    eax
  401e37:	push   ss
  401e38:	or     DWORD PTR [edx+0x32],eax
  401e3b:	imul   ecx,DWORD PTR [ecx],0xffffffff
  401e3e:	mov    edx,0xbcd552e7
  401e43:	ins    BYTE PTR es:[edi],dx
  401e44:	mov    esi,0x81d8533b
  401e49:	push   esp
  401e4a:	js     0x401e43
  401e4c:	pop    edx
  401e4d:	call   0xf444a442
  401e52:	mov    ch,0xa0
  401e54:	jge    0x401e3a
  401e56:	adc    BYTE PTR [eax],al
  401e58:	add    DWORD PTR [eax],edx
  401e5a:	adc    al,0x1d
  401e5c:	sbb    ebp,DWORD PTR [edi+0x468a0000]
  401e62:	(bad)  
  401e63:	adc    BYTE PTR [esi+edx*4],dl
  401e66:	and    eax,0x60f2ae1
  401e6b:	call   0x3110:0x20092406
  401e72:	sbb    edx,DWORD PTR [edi+0x76dd5ba9]
  401e78:	ins    DWORD PTR es:[edi],dx
  401e79:	mov    DWORD PTR [eax+0x13],esp
  401e7c:	xor    eax,0x2102650d
  401e81:	add    BYTE PTR [edx+eax*1],al
  401e84:	and    eax,0x5c1d9a32
  401e89:	jbe    0x401ea0
  401e8b:	push   eax
  401e8c:	add    BYTE PTR [edx+0x702b6291],0xc4
  401e93:	xchg   ebx,eax
  401e94:	adc    DWORD PTR [eax],eax
  401e96:	add    al,ah
  401e98:	cmps   DWORD PTR ds:[esi],DWORD PTR es:[edi]
  401e99:	push   0xff6b6a00
  401e9e:	push   ebp
  401e9f:	push   ss
  401ea0:	pushf  
  401ea1:	lods   eax,DWORD PTR ds:[esi]
  401ea2:	cli    
  401ea3:	cdq    
  401ea4:	cwde   
  401ea5:	add    eax,0xb5dedbf8
  401eaa:	aam    0xf9
  401eac:	stc    
  401ead:	aam    0xf
  401eaf:	sub    eax,0xcffb9a7
  401eb4:	push   esi
  401eb5:	ret    
  401eb6:	call   0xc428ac48
  401ebb:	stc    
  401ebc:	add    al,BYTE PTR [edi-0x238cdecc]
  401ec2:	jl     0x401f1e
  401ec4:	add    eax,0x3f6f00fb
  401ec9:	call   0x6ab2a9ce
  401ece:	add    BYTE PTR [edi+0x6b],ch
  401ed1:	call   FWORD PTR [edi]
  401ed3:	pushf  
  401ed4:	cmp    al,0x8a
  401ed6:	stos   BYTE PTR es:[edi],al
  401ed7:	sub    BYTE PTR [eax+ebx*1+0x3c6b3d97],ah
  401ede:	adc    eax,0x47cca74
  401ee3:	push   ecx
  401ee4:	push   es
  401ee5:	pop    es
  401ee6:	(bad)  [ecx+0x78]
  401ee9:	cmps   DWORD PTR ds:[esi],DWORD PTR es:[edi]
  401eea:	add    BYTE PTR [ecx-0x364fb057],ch
  401ef0:	loope  0x401eda
  401ef2:	sbb    dh,bl
  401ef4:	int3   
  401ef5:	cmp    al,0x8d
  401ef7:	pop    es
  401ef8:	add    ebp,ebx
  401efa:	retf   
  401efb:	push   es
  401efc:	push   edi
  401efd:	test   DWORD PTR [esi+0x73],0x22581962
  401f04:	inc    ecx
  401f05:	dec    ecx
  401f06:	mov    dl,0x4e
  401f08:	ins    DWORD PTR es:[edi],dx
  401f09:	loope  0x401f20
  401f0b:	sbb    al,0x69
  401f0d:	xor    al,0x6a
  401f0f:	xor    al,0x0
  401f11:	jno    0x401f73
  401f13:	push   ebx
  401f14:	push   ebx
  401f15:	push   es
  401f16:	pusha  
  401f17:	je     0x401f0e
  401f19:	jl     0x401f20
  401f1b:	stos   DWORD PTR es:[edi],eax
  401f1c:	aas    
  401f1d:	push   esp
  401f1e:	cmp    ebp,DWORD PTR [esi]
  401f20:	push   ebx
  401f21:	add    DWORD PTR [eax],ecx
  401f23:	ds aas 
  401f25:	push   cs
  401f26:	add    ch,BYTE PTR [esp+eax*1+0x77e1cddc]
  401f2d:	cmp    al,0x2f
  401f2f:	or     BYTE PTR [esi-0xe],bl
  401f32:	jmp    DWORD PTR [ebx-0x49a93d2c]
  401f38:	je     0x401ec8
  401f3a:	mov    bh,0x93
  401f3c:	xchg   esp,eax
  401f3d:	lods   eax,DWORD PTR cs:[esi]
  401f3f:	xor    esi,DWORD PTR [edi-0x577bc9f]
  401f45:	sbb    esi,esi
  401f47:	dec    BYTE PTR [esi-0x29]
  401f4a:	test   BYTE PTR [edi+0x72a00e52],bh
  401f50:	ss dec ebx
  401f52:	ret    0x8e1c
  401f55:	xchg   edi,edi
  401f57:	jnp    0x401f2c
  401f59:	out    0xc4,eax
  401f5b:	test   DWORD PTR [ecx],eax
  401f5d:	(bad)  
  401f5e:	pop    ebx
  401f5f:	arpl   bx,ax
  401f61:	in     al,dx
  401f62:	arpl   WORD PTR [ebp+0x76],si
  401f65:	call   0x14bb638e
  401f6a:	push   DWORD PTR [ebp+0x66]
  401f6d:	je     0x401fda
  401f6f:	jnp    0x401f79
  401f71:	test   al,dl
  401f73:	inc    eax
  401f74:	fmul   QWORD PTR [edi+0x50253a9]
  401f7a:	test   ecx,ebx
  401f7c:	cmp    DWORD PTR [ebp+0x6],edx
  401f7f:	push   es
  401f80:	push   edi
  401f81:	pop    es
  401f82:	or     BYTE PTR [ebx],dh
  401f84:	ins    DWORD PTR es:[edi],dx
  401f85:	int3   
  401f86:	add    cl,BYTE PTR [eax+ebx*2]
  401f89:	or     BYTE PTR [ebx-0x8],cl
  401f8c:	aas    
  401f8d:	das    
  401f8e:	mov    al,ds:0xc5a758ff
  401f93:	jo     0x401fe0
  401f95:	dec    ecx
  401f96:	mov    edx,0x29e958bd
  401f9b:	mov    DWORD PTR [ecx],0x1e88ae9
  401fa1:	xor    DWORD PTR [eax+0x186968],0x28760000
  401fab:	push   esi
  401fac:	ficom  DWORD PTR [ebx-0x78e6f002]
  401fb2:	dec    DWORD PTR [ebx-0x220c9fff]
  401fb8:	add    al,0xff
  401fba:	add    BYTE PTR fs:[ecx-0x75],bl
  401fbe:	inc    eax
  401fbf:	cmp    al,0x80
  401fc1:	add    BYTE PTR [edi+0x34146061],al
  401fc7:	(bad)
  401fcb:	scas   eax,DWORD PTR es:[edi]
  401fcc:	jnp    0x401fb5
  401fce:	and    al,0x88
  401fd0:	dec    ecx
  401fd1:	sbb    BYTE PTR [edi-0x3477a706],al
  401fd7:	shl    al,0xef
  401fda:	mov    bl,BYTE PTR [eax+0x6d]
  401fdd:	out    dx,eax
  401fde:	out    dx,eax
  401fdf:	cmp    DWORD PTR [esi-0x9],edx
  401fe2:	inc    esi
  401fe3:	imul   edi,DWORD PTR [eax+0x44],0xa1190ea1
  401fea:	fs xchg edx,ecx
  401fed:	xor    BYTE PTR [ecx+0x65767178],cl
  401ff3:	push   esp
  401ff4:	std    
  401ff5:	jbe    0x401ff4
  401ff7:	or     BYTE PTR [ecx],al
  401ff9:	pop    edi
  401ffa:	jmp    0x7e1c:0x79bdd2b0
  402001:	je     0x401f9f
  402003:	mov    dh,0x3a
  402005:	call   0x791a595a
  40200a:	pop    eax
  40200b:	add    al,0x3
  40200d:	pop    eax
  40200e:	js     0x402004
  402010:	mov    eax,DWORD PTR gs:[esi+eiz*1]
  402014:	in     al,dx
  402015:	add    BYTE PTR [edi+0x424010f],ch
  40201b:	cmp    BYTE PTR [edx+0x64500424],cl
  402021:	(bad)  
  402022:	out    0x14,eax
  402024:	in     al,dx
  402025:	xor    bl,al
  402027:	inc    ebp
  402028:	dec    ebx
  402029:	mov    BYTE PTR [ebp+0xb],al
  40202c:	xor    DWORD PTR [esi+0x7472b98b],0xf8f70373
  402036:	or     bh,dl
  402038:	mov    al,BYTE PTR [ecx-0x70916601]
  40203e:	test   al,0x7a
  402040:	test   eax,0xb6c37e53
  402045:	adc    DWORD PTR [ebx-0x56],0x235457a9
  40204c:	fisub  DWORD PTR [esi]
  40204e:	adc    BYTE PTR [esi-0x9],dl
  402051:	fwait
  402052:	mov    BYTE PTR [esi],ah
  402054:	sub    edi,DWORD PTR [esi]
  402056:	dec    BYTE PTR [eax]
  402058:	xlat   BYTE PTR ds:[ebx]
  402059:	or     BYTE PTR [ebx+0x4b],0x91
  40205d:	fisub  DWORD PTR [edi+0x543f7f]
  402063:	or     DWORD PTR [edi+0x7],edx
  402066:	or     BYTE PTR [edx+ebx*8],bh
  402069:	or     dl,al
  40206b:	aas    
  40206c:	push   ecx
  40206d:	adc    eax,0x657cd8d
  402072:	movs   BYTE PTR es:[edi],BYTE PTR ds:[esi]
  402073:	xchg   ebx,eax
  402074:	pop    ebx
  402075:	cdq    
  402076:	or     al,dl
  402078:	mov    ch,0x9e
  40207a:	add    al,0x57
  40207c:	add    DWORD PTR [ecx+0xd70019b],ebp
  402082:	inc    esp
  402083:	add    eax,DWORD PTR [eax]
  402085:	popa   
  402086:	jb     0x402083
  402088:	(bad)  
  402089:	jg     0x402100
  40208b:	std    
  40208c:	mov    dh,BYTE PTR [ebx+ebp*2+0x0]
  402090:	test   eax,0xa9f8f1c
  402095:	hlt    
  402096:	push   esi
  402097:	or     eax,0xb10f0a02
  40209c:	or     DWORD PTR [edi-0x29aaaaff],ebp
  4020a2:	cmp    DWORD PTR [ebx-0x8],eax
  4020a5:	dec    ecx
  4020a6:	loop   0x402043
  4020a8:	mov    ds:0x78605cea,al
  4020ad:	sar    ch,1
  4020af:	pop    esp
  4020b0:	adc    BYTE PTR [eax],ah
  4020b2:	aaa    
  4020b3:	ja     0x40210b
  4020b5:	cmp    edx,edx
  4020b7:	mov    esi,0x590f8494
  4020bc:	add    al,0xa4
  4020be:	add    BYTE PTR [eax],al
  4020c0:	add    DWORD PTR [ebx-0x495ed1ee],ecx
  4020c6:	mov    eax,DWORD PTR [ebp-0x7e7bf08e]
  4020cc:	add    BYTE PTR [edi+ecx*1-0x7452080b],0xf8
  4020d4:	cld    
  4020d5:	jo     0x4020d4
  4020d7:	js     0x402127
  4020d9:	add    BYTE PTR [edx+0x543b0351],ch
  4020df:	lods   al,BYTE PTR ds:[esi]
  4020e0:	imul   edx,DWORD PTR [edx+ebp*2],0xf8835850
  4020e7:	add    al,0x55
  4020e9:	add    BYTE PTR [edi+0x6a14693f],0x50
  4020f0:	pop    eax
  4020f1:	adc    DWORD PTR [esp],0x57811425
  4020f8:	add    BYTE PTR [esi+0x1c],dl
  4020fb:	jmp    FWORD PTR [ecx-0x859f100]
  402101:	jno    0x4020c7
  402103:	add    al,0xdd
  402105:	add    dl,bh
  402107:	inc    esp
  402108:	ins    DWORD PTR es:[edi],dx
  402109:	cmp    ah,cl
  40210b:	mov    eax,0xe54462f2
  402110:	int3   
  402111:	lods   eax,DWORD PTR ds:[esi]
  402112:	push   esi
  402113:	mov    ah,0x7d
  402115:	adc    eax,0xff0ea6ff
  40211a:	and    al,0x1c
  40211c:	sbb    al,0xe3
  40211e:	out    dx,al
  40211f:	pop    ecx
  402120:	xlat   BYTE PTR ds:[ebx]
  402121:	stos   BYTE PTR es:[edi],al
  402122:	mov    BYTE PTR [ebx],0x56
  402125:	jbe    0x40213b
  402127:	jb     0x4020f7
  402129:	cmp    BYTE PTR [edx+0x41],dl
  40212c:	adc    DWORD PTR [eax],eax
  40212e:	aas    
  40212f:	mov    bl,0x6a
  402131:	push   ebx
  402132:	push   eax
  402133:	dec    esi
  402135:	cmp    BYTE PTR [eax+edi*8],al
  402138:	adc    DWORD PTR [eax],eax
  40213a:	aas    
  40213b:	mov    cl,0x84
  40213d:	jae    0x40213f
  40213f:	adc    BYTE PTR [ecx],dl
  402141:	add    bl,bl
  402143:	push   ecx
  402144:	pop    eax
  402145:	add    BYTE PTR [ebp+0xc],dl
  402148:	push   edi
  402149:	or     al,0xa7
  40214b:	push   esp
  40214c:	ficom  WORD PTR [ecx-0x491c24d4]
  402152:	test   eax,0x21cde36e
  402157:	pushf  
  402158:	jae    0x402130
  40215a:	scas   al,BYTE PTR es:[edi]
  40215b:	les    ecx,FWORD PTR [edi-0x15]
  40215e:	mov    edi,0xe89b497e
  402163:	mov    eax,DWORD PTR [ecx]
  402165:	call   0xec3f6865
  40216a:	push   edx
  40216b:	pop    ds
  40216c:	push   ds
  40216d:	mov    ecx,0xff0a17ff
  402172:	(bad)  
  402173:	jmp    FWORD PTR [eax+0x1e1f846]
  402179:	pop    es
  40217a:	push   ecx
  40217b:	adc    dh,0xe8
  40217e:	add    BYTE PTR [edx+ebx*2-0x6124348c],cl
  402185:	cmp    eax,0xe801d08b
  40218a:	into   
  40218b:	inc    esi
  40218c:	inc    edi
  40218e:	fs (bad) 
  402190:	jb     0x4021d3
  402192:	pop    ss
  402193:	inc    ecx
  402194:	mov    esi,0xf2bfcae8
  402199:	scas   eax,DWORD PTR es:[edi]
  40219a:	ds aaa 
  40219c:	rol    BYTE PTR [eax],0x54
  40219f:	in     al,0x2a
  4021a1:	add    eax,0x808923c5
  4021a6:	sar    DWORD PTR [eax-0x79],0x98
  4021aa:	cvtdq2ps xmm1,xmm3
  4021ad:	dec    esi
  4021ae:	sub    al,0xf2
  4021b0:	dec    eax
  4021b1:	add    DWORD PTR [eax],ebx
  4021b3:	mov    al,0xbe
  4021b5:	stc    
  4021b6:	int3   
  4021b7:	inc    eax
  4021b8:	or     edi,DWORD PTR [ecx-0x8123dc]
  4021be:	(bad)  
  4021bf:	(bad)  
  4021c0:	out    dx,eax
  4021c1:	dec    eax
  4021c2:	repz ret 
  4021c4:	or     DWORD PTR [ebp+0xe],ebx
  4021c7:	pop    es
  4021c8:	or     DWORD PTR [ecx-0x9149af],edi
  4021ce:	(bad)  
  4021cf:	jmp    DWORD PTR [ebp-0x857fe9]
  4021d5:	jg     0x402239
  4021d7:	sub    eax,0x3c9e9551
  4021dc:	xchg   ecx,eax
  4021dd:	mov    al,ds:0xc8a739f4
  4021e2:	rcl    DWORD PTR [ecx+0x1],0x48
  4021e6:	push   esp
  4021e7:	mov    DWORD PTR [edx+0x1004876],ecx
  4021ed:	dec    eax
  4021ee:	jbe    0x402181
  4021f0:	xchg   edx,eax
  4021f1:	push   esp
  4021f2:	dec    eax
  4021f3:	add    BYTE PTR [ecx],al
  4021f5:	dec    eax
  4021f6:	push   esp
  4021f7:	cdq    
  4021f8:	call   0x7048:0x1004870
  4021ff:	mov    eax,ds:0x4834a2
  402204:	add    DWORD PTR [eax+0x34],ecx
  402207:	test   eax,0x4870aa
  40220c:	add    DWORD PTR [eax+0x70],ecx
  40220f:	mov    cl,0xb2
  402211:	xor    al,0x48
  402213:	add    BYTE PTR [ecx],al
  402215:	dec    eax
  402216:	xor    al,0xb9
  402218:	mov    WORD PTR [ebp-0x255d3cef],?
  40221e:	mov    esp,0x91094dc7
  402223:	mov    al,bh
  402225:	adc    dh,BYTE PTR [eax+eax*1-0x74]
  402229:	jge    0x40227f
  40222b:	mov    al,BYTE PTR [ebp+0x42207b21]
  402231:	(bad)  
  402232:	je     0x402233
  402234:	add    DWORD PTR [ecx+0x3b],esp
  402237:	mov    BYTE PTR [eax-0x6b],ah
  40223a:	pop    ebp
  40223b:	mov    edx,DWORD PTR [edx-0x49]
  40223e:	and    BYTE PTR [ebx-0x7724cf40],dh
  402244:	add    DWORD PTR [eax],edi
  402246:	inc    ebp
  402247:	mov    ecx,DWORD PTR ds:0xa9af3b00
  40224d:	adc    ebx,DWORD PTR [ecx+0x5c]
  402250:	fsub   QWORD PTR [ecx-0x34b20e4d]
  402256:	clc    
  402257:	mov    eax,DWORD PTR [ecx]
  402259:	dec    eax
  40225a:	mov    cl,0xac
  40225c:	popa   
  40225d:	test   eax,0x8776f8c3
  402262:	popf   
  402263:	and    BYTE PTR ds:0xc6e90cbd,al
  402269:	sbb    BYTE PTR [eax],al
  40226b:	add    BYTE PTR [ecx],al
  40226d:	mov    ebp,DWORD PTR [eax-0x73]
  402270:	jle    0x40228a
  402272:	mov    eax,DWORD PTR [eax]
  402274:	or     eax,0xa9ae3b00
  402279:	adc    ecx,DWORD PTR [ebp+0x4102b500]
  40227f:	add    eax,0x4004cedc
  402284:	or     al,0x2e
  402286:	stos   DWORD PTR es:[edi],eax
  402287:	sub    bh,BYTE PTR [eax-0x6f0c5a9c]
  40228d:	inc    eax
  40228e:	sub    al,0x79
  402290:	movs   DWORD PTR es:[edi],DWORD PTR ds:[esi]
  402291:	dec    esp
  402292:	shl    DWORD PTR [ebx-0x33],0x83
  402296:	pusha  
  402297:	ret    
  402298:	imul   esp,DWORD PTR [eax+eax*1],0xd2310120
  40229f:	add    ch,BYTE PTR [ebx-0x64]
  4022a2:	cmp    edi,edi
  4022a4:	test   eax,0x8dd8e114
  4022a9:	fsub   st,st(3)
  4022ab:	add    BYTE PTR [eax+0x74],ah
  4022ae:	pop    ss
  4022af:	jo     0x4022ea
  4022b1:	inc    edi
  4022b2:	retf   
  4022b3:	or     BYTE PTR [eax+0x11cc3c0],dh
  4022b9:	rol    BYTE PTR ds:0x4684b54b,0x54
  4022c0:	add    BYTE PTR [ecx-0x6a41b3ac],bh
  4022c6:	mov    dh,BYTE PTR [esi-0x626a754f]
  4022cc:	call   0x4d24:0x351db91
  4022d3:	cmc    
  4022d4:	push   ecx
  4022d5:	xchg   ebp,eax
  4022d6:	popa   
  4022d7:	ret    
  4022d8:	mov    ds:0xf25449ea,al
  4022dd:	cmps   DWORD PTR ds:[esi],DWORD PTR es:[edi]
  4022de:	sbb    cl,BYTE PTR [edx-0x33861654]
  4022e4:	and    al,0x0
  4022e6:	xchg   dh,al
  4022e8:	std    
  4022e9:	cmps   BYTE PTR ds:[esi],BYTE PTR es:[edi]
  4022ea:	mov    ebx,DWORD PTR [eax+esi*2]
  4022ed:	add    DWORD PTR ds:0x6130d425,ebp
  4022f3:	xchg   BYTE PTR [esp+edx*1+0x50],al
  4022f7:	add    cl,dh
  4022f9:	sub    DWORD PTR [esi],esp
  4022fb:	jp     0x4022bc
  4022fd:	push   edx
  4022fe:	cmp    al,0x46
  402300:	jmp    0x14423f0
  402305:	pop    edx
  402306:	call   0x723c1723
  40230b:	enter  0x5ef4,0xa0
  40230f:	jbe    0x40238c
  402311:	pop    ebx
  402312:	add    BYTE PTR [edi+0x58],ah
  402315:	or     BYTE PTR [edi+0x26],bl
  402318:	gs add al,bh
  40231b:	retf   0x88bc
  40231e:	icebp  
  40231f:	sbb    eax,0xb63e6540
  402324:	cdq    
  402325:	cwde   
  402326:	dec    ebx
  402327:	out    0xed,al
  402329:	popa   
  40232a:	dec    edx
  40232b:	cmp    esp,DWORD PTR [ebp+0x16f8a81]
  402331:	push   0x741bab60
  402336:	or     BYTE PTR cs:0x12040743,cl
  40233d:	daa    
  40233e:	xchg   edx,eax
  40233f:	cmp    eax,0x16947a50
  402344:	jl     0x4022da
  402346:	jp     0x402399
  402348:	push   esp
  402349:	jp     0x4022df
  40234b:	jl     0x402387
  40234d:	stos   BYTE PTR es:[edi],al
  40234e:	test   DWORD PTR [eax+0x2],ebp
  402351:	outs   dx,BYTE PTR ds:[esi]
  402352:	push   ds
  402353:	sub    ecx,DWORD PTR [edi]
  402355:	adc    bl,BYTE PTR [ecx]
  402357:	sbb    DWORD PTR [ebx],eax
  402359:	and    esi,DWORD PTR [esi]
  40235b:	xchg   edi,eax
  40235c:	test   eax,0xc9b6d758
  402361:	or     al,bh
  402363:	add    eax,0x66cb9a05
  402368:	bound  edx,QWORD PTR [esi]
  40236a:	xchg   ebp,eax
  40236b:	add    DWORD PTR [eax-0x59],ebx
  40236e:	push   es
  40236f:	push   ebx
  402370:	add    eax,0xbf5a5f3a
  402375:	and    DWORD PTR [edx+0x50],ebp
  402378:	add    DWORD PTR [ebx-0x45933e6],ecx
  40237e:	cdq    
  40237f:	add    BYTE PTR [ecx],al
  402381:	adc    ch,BYTE PTR [ebp-0x5b66a27a]
  402387:	inc    edi
  402388:	retf   
  402389:	bound  ebx,QWORD PTR [eax-0x2c]
  40238c:	repnz push edx
  40238e:	jbe    0x402373
  402390:	ret    
  402391:	call   0x1b4f1e8
  402396:	cmps   DWORD PTR ds:[esi],DWORD PTR es:[edi]
  402397:	call   FWORD PTR [eax-0x59]
  40239a:	sub    DWORD PTR [edi],eax
  40239c:	leave  
  40239d:	loop   0x40233a
  40239f:	push   esp
  4023a0:	pop    eax
  4023a1:	adc    dh,BYTE PTR [esp+eiz*8]
  4023a4:	ja     0x4023fb
  4023a6:	sar    bh,1
  4023a8:	pop    esi
  4023a9:	lea    eax,[ebp-0x12]
  4023ac:	hlt    
  4023ad:	test   DWORD PTR [ecx-0x2fdf332c],ecx
  4023b3:	ficomp WORD PTR [eax+edx*1+0x24]
  4023b7:	inc    esp
  4023b8:	add    DWORD PTR [eax],eax
  4023ba:	add    BYTE PTR [eax+0x69],ch
  4023bd:	add    BYTE PTR [eax],al
  4023bf:	add    ah,al
  4023c1:	xor    si,si
  4023c4:	xchg   ecx,eax
  4023c5:	mov    DWORD PTR [ebx],ebp
  4023c7:	cdq    
  4023c8:	cmp    eax,0xe255dce0
  4023cd:	adc    ah,BYTE PTR [ebp+0x640a6ee7]
  4023d3:	rol    BYTE PTR [ecx],1
  4023d5:	sti    
  4023d6:	out    dx,eax
  4023d7:	arpl   dx,dx
  4023d9:	adc    ebp,DWORD PTR [edi-0x1]
  4023dc:	mov    DWORD PTR [ebp+0x75],esi
  4023df:	sub    BYTE PTR [ebp-0x13],cl
  4023e2:	dec    ebx
  4023e3:	and    eax,0x24523716
  4023e8:	jns    0x402383
  4023ea:	jmp    0x402462
  4023ec:	loop   0x402401
  4023ee:	dec    ebp
  4023ef:	movs   DWORD PTR es:[edi],DWORD PTR ds:[esi]
  4023f0:	xchg   ecx,eax
  4023f1:	sar    DWORD PTR [ecx+edx*4+0x554b0b6d],cl
  4023f8:	jno    0x402474
  4023fa:	sub    esp,ebx
  4023fc:	ret    
  4023fd:	sub    eax,DWORD PTR [ecx]
  4023ff:	mov    dh,0x21
  402401:	call   FWORD PTR [ecx-0x6bdbb010]
  402407:	mov    BYTE PTR [edi+0x0],ch
  40240a:	jge    0x4023a7
  40240c:	adc    DWORD PTR [eax],eax
  40240e:	aas    
  40240f:	outs   dx,BYTE PTR ds:[esi]
  402410:	imul   ebp,DWORD PTR [eax-0x5a63efab],0x7e
  402417:	in     al,dx
  402418:	jmp    0x8ccc149d
  40241d:	cld    
  40241e:	imul   eax,DWORD PTR [eax],0xdcfc6806
  402424:	add    edi,edi
  402426:	push   ebp
  402427:	and    DWORD PTR [ebx+0x55],ecx
  40242a:	xchg   edi,eax
  40242b:	rol    DWORD PTR [ecx+0x6e000068],cl
  402431:	push   0x0
  402433:	push   0x68
  402435:	push   0x8001036a
  40243a:	aas    
  40243b:	(bad)  
  40243c:	test   eax,0xc1c40173
  402441:	and    BYTE PTR [edx*2-0x4a66f3c],0x2e
  402449:	mov    ds:0x5ec06144,eax
  40244e:	(bad)  
  40244f:	aam    0x4a
  402451:	jno    0x402485
  402453:	into   
  402454:	bound  esp,QWORD PTR [ebp+0x76]
  402457:	aam    0x1e
  402459:	sbb    edx,DWORD PTR [ecx-0x7c]
  40245c:	sub    ebp,DWORD PTR [ebp+0x52]
  40245f:	pop    edi
  402460:	lds    edx,FWORD PTR [edx+0x27b3bc5d]
  402466:	dec    esi
  402467:	xchg   DWORD PTR [ecx+0x6e],ecx
  40246a:	mov    eax,0xadfbd425
  40246f:	jns    0x402426
  402471:	xchg   ebx,eax
  402472:	adc    DWORD PTR [esi],esi
  402474:	sub    al,0x8f
  402476:	xchg   edx,eax
  402477:	lea    esi,[eax-0x5c713a9c]
  40247d:	cmp    ch,dh
  40247f:	aas    
  402480:	adc    al,0xa6
  402482:	movs   DWORD PTR es:[edi],DWORD PTR ds:[esi]
  402483:	cmps   BYTE PTR ds:[esi],BYTE PTR es:[edi]
  402484:	lea    esp,[edi-0x3ad51cf8]
  40248a:	add    al,0xd7
  40248c:	jnp    0x40244b
  40248e:	push   ds
  40248f:	clc    
  402490:	xchg   DWORD PTR [ebx+0x12602],edx
  402496:	add    BYTE PTR [edi+0x1],dh
  40249c:	add    DWORD PTR [eax],eax
  40249e:	add    BYTE PTR [eax],al
  4024a0:	add    DWORD PTR [eax],eax
  4024a2:	add    BYTE PTR [eax],al
  4024a4:	add    DWORD PTR [eax],eax
  4024a6:	add    BYTE PTR [eax],al
  4024a8:	add    DWORD PTR [eax],eax
  4024aa:	add    BYTE PTR [eax],al
  4024ac:	add    esp,ecx
  4024ae:	push   0x0
  4024b0:	add    DWORD PTR [edx-0x14],ebp
  4024b3:	add    eax,0x42004
  4024b8:	add    DWORD PTR [edi+0x7b27347b],eax
  4024be:	add    DWORD PTR [eax],0xfffffff0
  4024c1:	fwait
  4024c2:	test   DWORD PTR [eax+0x1b88138],0xab7caa4b
  4024cc:	and    eax,0x7e79b84d
  4024d1:	es clc 
  4024d3:	in     al,dx
  4024d4:	fucomp st(1)
  4024d6:	rol    DWORD PTR [edi],0x2
  4024d9:	stos   BYTE PTR es:[edi],al
  4024da:	jge    0x40251a
  4024dc:	add    al,0x11
  4024de:	call   0x73dd3e8b
  4024e3:	.byte 0xb1
