
632839ee6efef55940b53c8d24e1844e9a2c915427fb641a23389045f99d426e.exe:     file format pei-i386


Disassembly of section .text:

00401000 <.text>:
  401000:	mov    edi,edi
  401002:	push   ebp
  401003:	mov    ebp,esp
  401005:	sub    esp,0x4c
  401008:	push   ecx
  401009:	push   edx
  40100a:	push   edi
  40100b:	call   0x401168
  401010:	add    esp,0x8
  401013:	pop    ecx
  401014:	push   ecx
  401015:	push   0x0
  401017:	push   0x40304c
  40101c:	pop    eax
  40101d:	notrack call DWORD PTR [eax]
  401020:	pop    ecx
  401021:	push   ecx
  401022:	push   0x0
  401024:	push   0x40300c
  401029:	pop    eax
  40102a:	notrack call DWORD PTR [eax]
  40102d:	pop    ecx
  40102e:	sub    esp,0xffffffb4
  401031:	mov    ebp,DWORD PTR [esp]
  401034:	add    esp,0x4
  401037:	ret    
  401038:	mov    edi,edi
  40103a:	push   ebp
  40103b:	mov    ebp,esp
  40103d:	sub    esp,0x3c
  401040:	push   ecx
  401041:	mov    ecx,0x0
  401046:	push   ecx
  401047:	push   0x403030
  40104c:	pop    eax
  40104d:	notrack call DWORD PTR [eax]
  401050:	pop    ecx
  401051:	push   ecx
  401052:	push   DWORD PTR [ecx+0x18]
  401055:	push   DWORD PTR [ecx+0x194]
  40105b:	call   0x401974
  401060:	add    esp,0x8
  401063:	pop    ecx
  401064:	push   ecx
  401065:	push   0x0
  401067:	push   0x40304c
  40106c:	pop    eax
  40106d:	notrack call DWORD PTR [eax]
  401070:	pop    ecx
  401071:	sub    esp,0xffffffc4
  401074:	mov    ebp,DWORD PTR [esp]
  401077:	add    esp,0x4
  40107a:	ret    
  40107b:	add    BYTE PTR [eax],al
  40107d:	add    BYTE PTR [eax],al
  40107f:	add    BYTE PTR [ebx-0x74aa9f01],cl
  401085:	in     al,dx
  401086:	sub    esp,0x2c
  401089:	push   ecx
  40108a:	mov    eax,0x0
  40108f:	push   eax
  401090:	push   0x403018
  401095:	pop    eax
  401096:	notrack call DWORD PTR [eax]
  401099:	pop    ecx
  40109a:	test   eax,eax
  40109c:	je     0x40109f
  40109e:	ret    
  40109f:	push   ecx
  4010a0:	push   esi
  4010a1:	push   DWORD PTR [ecx+0x330]
  4010a7:	call   0x401bf0
  4010ac:	add    esp,0x8
  4010af:	pop    ecx
  4010b0:	push   ecx
  4010b1:	push   0x0
  4010b3:	push   0x403044
  4010b8:	pop    eax
  4010b9:	notrack call DWORD PTR [eax]
  4010bc:	pop    ecx
  4010bd:	mov    edi,0x403034
  4010c2:	mov    edi,DWORD PTR [edi]
  4010c4:	push   edi
  4010c5:	push   DWORD PTR [ecx+0x2c]
  4010c8:	pop    esi
  4010c9:	call   esi
  4010cb:	sub    esp,0xffffffd4
  4010ce:	mov    ebp,DWORD PTR [esp]
  4010d1:	add    esp,0x4
  4010d4:	ret    
  4010d5:	add    BYTE PTR [eax],al
  4010d7:	add    BYTE PTR [eax],al
  4010d9:	add    BYTE PTR [eax],al
  4010db:	add    BYTE PTR [edi],cl
  4010dd:	xchg   DWORD PTR [esi+0xffffff],ebx
  4010e3:	add    BYTE PTR [eax],al
  4010e5:	add    BYTE PTR [eax],al
  4010e7:	add    BYTE PTR [ebx-0x1374aa01],cl
  4010ed:	sub    esp,0x34
  4010f0:	push   ecx
  4010f1:	push   0x0
  4010f3:	push   0x40302c
  4010f8:	pop    eax
  4010f9:	notrack call DWORD PTR [eax]
  4010fc:	pop    ecx
  4010fd:	push   ecx
  4010fe:	push   DWORD PTR [ecx+0x388]
  401104:	push   ebx
  401105:	call   0x401b20
  40110a:	add    esp,0x8
  40110d:	pop    ecx
  40110e:	push   ecx
  40110f:	push   0x403008
  401114:	pop    eax
  401115:	notrack call DWORD PTR [eax]
  401118:	pop    ecx
  401119:	sub    esp,0xffffffcc
  40111c:	mov    ebp,DWORD PTR [esp]
  40111f:	add    esp,0x4
  401122:	ret    
  401123:	add    BYTE PTR [ebx-0x1374aa01],cl
  401129:	sub    esp,0x40
  40112c:	push   ecx
  40112d:	push   0x0
  40112f:	push   0x403018
  401134:	pop    eax
  401135:	notrack call DWORD PTR [eax]
  401138:	pop    ecx
  401139:	push   ecx
  40113a:	push   esi
  40113b:	push   DWORD PTR [ecx+0x248]
  401141:	push   DWORD PTR [ecx+0x2e8]
  401147:	call   0x401c28
  40114c:	add    esp,0xc
  40114f:	pop    ecx
  401150:	push   ecx
  401151:	push   0x0
  401153:	push   0x403018
  401158:	pop    eax
  401159:	notrack call DWORD PTR [eax]
  40115c:	pop    ecx
  40115d:	sub    esp,0xffffffc0
  401160:	mov    ebp,DWORD PTR [esp]
  401163:	add    esp,0x4
  401166:	ret    
  401167:	add    BYTE PTR [ebx-0x1374aa01],cl
  40116d:	sub    esp,0x24
  401170:	push   ecx
  401171:	push   DWORD PTR [ecx+0x17c]
  401177:	push   ebx
  401178:	call   0x401bac
  40117d:	add    esp,0x8
  401180:	pop    ecx
  401181:	push   ecx
  401182:	push   0x0
  401184:	push   0x403040
  401189:	pop    eax
  40118a:	notrack call DWORD PTR [eax]
  40118d:	pop    ecx
  40118e:	push   ecx
  40118f:	push   0x0
  401191:	push   0x403064
  401196:	pop    eax
  401197:	notrack call DWORD PTR [eax]
  40119a:	pop    ecx
  40119b:	sub    esp,0xffffffdc
  40119e:	mov    ebp,DWORD PTR [esp]
  4011a1:	add    esp,0x4
  4011a4:	ret    
  4011a5:	add    BYTE PTR [eax],al
  4011a7:	add    BYTE PTR [ebx-0x1374aa01],cl
  4011ad:	sub    esp,0x20
  4011b0:	push   ecx
  4011b1:	push   DWORD PTR [ecx+0x20c]
  4011b7:	push   DWORD PTR [ecx+0x170]
  4011bd:	push   edi
  4011be:	call   0x4015a4
  4011c3:	add    esp,0xc
  4011c6:	pop    ecx
  4011c7:	push   ecx
  4011c8:	mov    eax,0x0
  4011cd:	push   eax
  4011ce:	push   0x403064
  4011d3:	pop    eax
  4011d4:	notrack call DWORD PTR [eax]
  4011d7:	pop    ecx
  4011d8:	push   ecx
  4011d9:	mov    eax,0x0
  4011de:	push   eax
  4011df:	push   0x403064
  4011e4:	pop    eax
  4011e5:	notrack call DWORD PTR [eax]
  4011e8:	pop    ecx
  4011e9:	sub    esp,0xffffffe0
  4011ec:	mov    ebp,DWORD PTR [esp]
  4011ef:	add    esp,0x4
  4011f2:	ret    
  4011f3:	add    BYTE PTR [ebx-0x1374aa01],cl
  4011f9:	sub    esp,0x44
  4011fc:	push   ecx
  4011fd:	push   DWORD PTR [ecx+0x230]
  401203:	push   DWORD PTR [ecx+0x8]
  401206:	push   DWORD PTR [ecx+0x208]
  40120c:	call   0x401244
  401211:	add    esp,0xc
  401214:	pop    ecx
  401215:	push   ecx
  401216:	mov    eax,0x0
  40121b:	push   eax
  40121c:	push   0x403040
  401221:	pop    eax
  401222:	notrack call DWORD PTR [eax]
  401225:	pop    ecx
  401226:	push   ecx
  401227:	mov    eax,0x0
  40122c:	push   eax
  40122d:	push   0x40304c
  401232:	pop    eax
  401233:	notrack call DWORD PTR [eax]
  401236:	pop    ecx
  401237:	sub    esp,0xffffffbc
  40123a:	mov    ebp,DWORD PTR [esp]
  40123d:	add    esp,0x4
  401240:	ret    
  401241:	add    BYTE PTR [eax],al
  401243:	add    BYTE PTR [ebx-0x1374aa01],cl
  401249:	sub    esp,0x60
  40124c:	push   ecx
  40124d:	mov    eax,0x0
  401252:	push   eax
  401253:	push   0x403064
  401258:	pop    eax
  401259:	notrack call DWORD PTR [eax]
  40125c:	pop    ecx
  40125d:	push   ecx
  40125e:	push   edx
  40125f:	push   edx
  401260:	push   DWORD PTR [ecx+0x168]
  401266:	push   ebx
  401267:	call   0x401ddc
  40126c:	add    esp,0x10
  40126f:	pop    ecx
  401270:	push   ecx
  401271:	mov    edi,0x0
  401276:	push   edi
  401277:	push   0x403040
  40127c:	pop    eax
  40127d:	notrack call DWORD PTR [eax]
  401280:	pop    ecx
  401281:	sub    esp,0xffffffa0
  401284:	mov    ebp,DWORD PTR [esp]
  401287:	add    esp,0x4
  40128a:	ret    
  40128b:	add    BYTE PTR [ebx-0x1374aa01],cl
  401291:	sub    esp,0x34
  401294:	push   ecx
  401295:	mov    ebx,0x0
  40129a:	push   ebx
  40129b:	push   0x403024
  4012a0:	pop    eax
  4012a1:	notrack call DWORD PTR [eax]
  4012a4:	pop    ecx
  4012a5:	push   ecx
  4012a6:	push   eax
  4012a7:	push   edi
  4012a8:	push   DWORD PTR [ecx+0xa8]
  4012ae:	call   0x4012cc
  4012b3:	add    esp,0xc
  4012b6:	pop    ecx
  4012b7:	push   ecx
  4012b8:	push   0x403008
  4012bd:	pop    eax
  4012be:	notrack call DWORD PTR [eax]
  4012c1:	pop    ecx
  4012c2:	sub    esp,0xffffffcc
  4012c5:	mov    ebp,DWORD PTR [esp]
  4012c8:	add    esp,0x4
  4012cb:	ret    
  4012cc:	mov    edi,edi
  4012ce:	push   ebp
  4012cf:	mov    ebp,esp
  4012d1:	sub    esp,0x58
  4012d4:	push   ecx
  4012d5:	push   ebx
  4012d6:	push   esi
  4012d7:	call   0x401308
  4012dc:	add    esp,0x8
  4012df:	pop    ecx
  4012e0:	push   ecx
  4012e1:	push   0x0
  4012e3:	push   0x40304c
  4012e8:	pop    eax
  4012e9:	notrack call DWORD PTR [eax]
  4012ec:	pop    ecx
  4012ed:	push   ecx
  4012ee:	mov    eax,0x0
  4012f3:	push   eax
  4012f4:	push   0x403018
  4012f9:	pop    eax
  4012fa:	notrack call DWORD PTR [eax]
  4012fd:	pop    ecx
  4012fe:	sub    esp,0xffffffa8
  401301:	mov    ebp,DWORD PTR [esp]
  401304:	add    esp,0x4
  401307:	ret    
  401308:	mov    edi,edi
  40130a:	push   ebp
  40130b:	mov    ebp,esp
  40130d:	sub    esp,0x58
  401310:	push   ecx
  401311:	push   0x0
  401313:	push   0x403024
  401318:	pop    eax
  401319:	notrack call DWORD PTR [eax]
  40131c:	pop    ecx
  40131d:	push   ecx
  40131e:	push   ebx
  40131f:	push   DWORD PTR [ecx+0x340]
  401325:	call   0x4018e0
  40132a:	add    esp,0x8
  40132d:	pop    ecx
  40132e:	push   ecx
  40132f:	lea    esi,[ecx]
  401331:	push   esi
  401332:	push   0x403034
  401337:	pop    eax
  401338:	notrack call DWORD PTR [eax]
  40133b:	test   eax,eax
  40133d:	jne    0x40132f
  40133f:	pop    ecx
  401340:	sub    esp,0xffffffa8
  401343:	mov    ebp,DWORD PTR [esp]
  401346:	add    esp,0x4
  401349:	ret    
	...
  401352:	add    BYTE PTR [eax],al
  401354:	mov    edi,edi
  401356:	push   ebp
  401357:	mov    ebp,esp
  401359:	sub    esp,0x5c
  40135c:	push   ecx
  40135d:	push   ebx
  40135e:	push   edi
  40135f:	push   ebx
  401360:	push   edx
  401361:	call   0x401450
  401366:	add    esp,0x10
  401369:	pop    ecx
  40136a:	push   ecx
  40136b:	mov    ebx,0x0
  401370:	push   ebx
  401371:	push   0x403040
  401376:	pop    eax
  401377:	notrack call DWORD PTR [eax]
  40137a:	pop    ecx
  40137b:	push   ecx
  40137c:	mov    edx,0x0
  401381:	push   edx
  401382:	push   0x40306c
  401387:	pop    eax
  401388:	notrack call DWORD PTR [eax]
  40138b:	pop    ecx
  40138c:	sub    esp,0xffffffa4
  40138f:	mov    ebp,DWORD PTR [esp]
  401392:	add    esp,0x4
  401395:	ret    
	...
  40139e:	add    BYTE PTR [eax],al
  4013a0:	mov    edi,edi
  4013a2:	push   ebp
  4013a3:	mov    ebp,esp
  4013a5:	sub    esp,0x48
  4013a8:	push   ecx
  4013a9:	push   0x0
  4013ab:	push   0x40302c
  4013b0:	pop    eax
  4013b1:	notrack call DWORD PTR [eax]
  4013b4:	pop    ecx
  4013b5:	push   ecx
  4013b6:	push   DWORD PTR [ecx+0x2c0]
  4013bc:	push   eax
  4013bd:	push   DWORD PTR [ecx+0x190]
  4013c3:	push   DWORD PTR [ecx+0x1e0]
  4013c9:	call   0x401cfc
  4013ce:	add    esp,0x10
  4013d1:	pop    ecx
  4013d2:	push   ecx
  4013d3:	push   0x0
  4013d5:	push   0x40304c
  4013da:	pop    eax
  4013db:	notrack call DWORD PTR [eax]
  4013de:	pop    ecx
  4013df:	sub    esp,0xffffffb8
  4013e2:	mov    ebp,DWORD PTR [esp]
  4013e5:	add    esp,0x4
  4013e8:	ret    
	...
  4013f5:	add    BYTE PTR [eax],al
  4013f7:	add    BYTE PTR [ebx-0x1374aa01],cl
  4013fd:	sub    esp,0x54
  401400:	push   ecx
  401401:	push   DWORD PTR [ecx+0x324]
  401407:	push   edx
  401408:	push   DWORD PTR [ecx+0x40]
  40140b:	push   DWORD PTR [ecx+0xac]
  401411:	call   0x401774
  401416:	add    esp,0x10
  401419:	pop    ecx
  40141a:	push   ecx
  40141b:	push   0x0
  40141d:	push   0x40300c
  401422:	pop    eax
  401423:	notrack call DWORD PTR [eax]
  401426:	pop    ecx
  401427:	push   ecx
  401428:	mov    edi,0x0
  40142d:	push   edi
  40142e:	push   0x40304c
  401433:	pop    eax
  401434:	notrack call DWORD PTR [eax]
  401437:	pop    ecx
  401438:	sub    esp,0xffffffac
  40143b:	mov    ebp,DWORD PTR [esp]
  40143e:	add    esp,0x4
  401441:	ret    
	...
  40144e:	add    BYTE PTR [eax],al
  401450:	mov    edi,edi
  401452:	push   ebp
  401453:	mov    ebp,esp
  401455:	sub    esp,0x58
  401458:	push   ecx
  401459:	mov    ecx,0x0
  40145e:	push   ecx
  40145f:	push   0x403024
  401464:	pop    eax
  401465:	notrack call DWORD PTR [eax]
  401468:	pop    ecx
  401469:	push   ecx
  40146a:	push   eax
  40146b:	push   DWORD PTR [ecx+0x4c]
  40146e:	call   0x4011a8
  401473:	add    esp,0x8
  401476:	pop    ecx
  401477:	push   ecx
  401478:	push   0x0
  40147a:	push   0x40302c
  40147f:	pop    eax
  401480:	notrack call DWORD PTR [eax]
  401483:	pop    ecx
  401484:	sub    esp,0xffffffa8
  401487:	mov    ebp,DWORD PTR [esp]
  40148a:	add    esp,0x4
  40148d:	ret    
  40148e:	add    BYTE PTR [eax],al
  401490:	push   0x46e000
  401495:	mov    eax,0x403090
  40149a:	and    WORD PTR [eax],0x0
  40149e:	push   DWORD PTR [eax]
  4014a0:	pop    eax
  4014a1:	mov    ecx,eax
  4014a3:	stc    
  4014a4:	adc    al,0x3b
  4014a6:	add    ecx,DWORD PTR [eax]
  4014a8:	mov    eax,DWORD PTR [ecx+0x1c]
  4014ab:	ror    eax,0xc
  4014ae:	sub    al,0x0
  4014b0:	sub    al,0x50
  4014b2:	pop    ecx
  4014b3:	jb     0x4014be
  4014b5:	nop
  4014b6:	nop
  4014b7:	nop
  4014b8:	nop
  4014b9:	jmp    0x4010dc
  4014be:	int    0x3
  4014c0:	add    BYTE PTR [eax],al
  4014c2:	sub    DWORD PTR [ebx-0x75],esp
  4014c5:	call   DWORD PTR [ebp-0x75]
  4014c8:	in     al,dx
  4014c9:	sub    esp,0x28
  4014cc:	push   ecx
  4014cd:	push   0x0
  4014cf:	push   0x403064
  4014d4:	pop    eax
  4014d5:	notrack call DWORD PTR [eax]
  4014d8:	pop    ecx
  4014d9:	push   ecx
  4014da:	push   DWORD PTR [ecx+0x38]
  4014dd:	push   DWORD PTR [ecx+0xa4]
  4014e3:	push   DWORD PTR [ecx+0x108]
  4014e9:	push   DWORD PTR [ecx+0x304]
  4014ef:	call   0x401694
  4014f4:	add    esp,0x10
  4014f7:	pop    ecx
  4014f8:	push   ecx
  4014f9:	push   0x0
  4014fb:	push   0x40304c
  401500:	pop    eax
  401501:	notrack call DWORD PTR [eax]
  401504:	pop    ecx
  401505:	sub    esp,0xffffffd8
  401508:	mov    ebp,DWORD PTR [esp]
  40150b:	add    esp,0x4
  40150e:	ret    
  40150f:	add    BYTE PTR [eax],al
  401511:	add    BYTE PTR [eax],al
  401513:	add    BYTE PTR [ebx-0x1374aa01],cl
  401519:	sub    esp,0x5c
  40151c:	push   ecx
  40151d:	push   DWORD PTR [ecx+0x290]
  401523:	push   DWORD PTR [ecx+0x1fc]
  401529:	push   DWORD PTR [ecx+0xd4]
  40152f:	call   0x401a98
  401534:	add    esp,0xc
  401537:	pop    ecx
  401538:	push   ecx
  401539:	push   0x0
  40153b:	push   0x40300c
  401540:	pop    eax
  401541:	notrack call DWORD PTR [eax]
  401544:	pop    ecx
  401545:	push   ecx
  401546:	push   0x0
  401548:	push   0x403064
  40154d:	pop    eax
  40154e:	notrack call DWORD PTR [eax]
  401551:	pop    ecx
  401552:	sub    esp,0xffffffa4
  401555:	mov    ebp,DWORD PTR [esp]
  401558:	add    esp,0x4
  40155b:	ret    
  40155c:	mov    edi,edi
  40155e:	push   ebp
  40155f:	mov    ebp,esp
  401561:	sub    esp,0x28
  401564:	push   ecx
  401565:	push   0x0
  401567:	push   0x403040
  40156c:	pop    eax
  40156d:	notrack call DWORD PTR [eax]
  401570:	pop    ecx
  401571:	push   ecx
  401572:	push   DWORD PTR [ecx+0x110]
  401578:	push   edi
  401579:	push   edx
  40157a:	push   DWORD PTR [ecx+0x3ec]
  401580:	call   0x4011f4
  401585:	add    esp,0x10
  401588:	pop    ecx
  401589:	push   ecx
  40158a:	push   0x0
  40158c:	push   0x40300c
  401591:	pop    eax
  401592:	notrack call DWORD PTR [eax]
  401595:	pop    ecx
  401596:	sub    esp,0xffffffd8
  401599:	mov    ebp,DWORD PTR [esp]
  40159c:	add    esp,0x4
  40159f:	ret    
  4015a0:	add    BYTE PTR [eax],al
  4015a2:	add    BYTE PTR [eax],al
  4015a4:	mov    edi,edi
  4015a6:	push   ebp
  4015a7:	mov    ebp,esp
  4015a9:	sub    esp,0x34
  4015ac:	push   ecx
  4015ad:	mov    edx,0x0
  4015b2:	push   edx
  4015b3:	push   0x403018
  4015b8:	pop    eax
  4015b9:	notrack call DWORD PTR [eax]
  4015bc:	pop    ecx
  4015bd:	push   ecx
  4015be:	push   esi
  4015bf:	push   eax
  4015c0:	push   DWORD PTR [ecx+0x18c]
  4015c6:	push   DWORD PTR [ecx+0x2b4]
  4015cc:	call   0x401000
  4015d1:	add    esp,0x10
  4015d4:	pop    ecx
  4015d5:	push   ecx
  4015d6:	push   0x0
  4015d8:	push   0x403068
  4015dd:	pop    eax
  4015de:	notrack call DWORD PTR [eax]
  4015e1:	pop    ecx
  4015e2:	sub    esp,0xffffffcc
  4015e5:	mov    ebp,DWORD PTR [esp]
  4015e8:	add    esp,0x4
  4015eb:	ret    
  4015ec:	add    BYTE PTR [eax],al
  4015ee:	add    BYTE PTR [eax],al
  4015f0:	mov    edi,edi
  4015f2:	push   ebp
  4015f3:	mov    ebp,esp
  4015f5:	sub    esp,0x30
  4015f8:	push   ecx
  4015f9:	push   esi
  4015fa:	push   DWORD PTR [ecx+0x378]
  401600:	push   DWORD PTR [ecx+0x2d8]
  401606:	push   DWORD PTR [ecx+0xe0]
  40160c:	call   0x401038
  401611:	add    esp,0x10
  401614:	pop    ecx
  401615:	push   ecx
  401616:	push   0x0
  401618:	push   0x40306c
  40161d:	pop    eax
  40161e:	notrack call DWORD PTR [eax]
  401621:	pop    ecx
  401622:	push   ecx
  401623:	mov    eax,0x0
  401628:	push   eax
  401629:	push   0x403018
  40162e:	pop    eax
  40162f:	notrack call DWORD PTR [eax]
  401632:	pop    ecx
  401633:	sub    esp,0xffffffd0
  401636:	mov    ebp,DWORD PTR [esp]
  401639:	add    esp,0x4
  40163c:	ret    
	...
  401645:	add    BYTE PTR [eax],al
  401647:	add    BYTE PTR [ebx-0x1374aa01],cl
  40164d:	sub    esp,0x28
  401650:	push   ecx
  401651:	push   0x403008
  401656:	pop    eax
  401657:	notrack call DWORD PTR [eax]
  40165a:	pop    ecx
  40165b:	push   ecx
  40165c:	push   DWORD PTR [ecx+0x2ac]
  401662:	push   esi
  401663:	push   DWORD PTR [ecx+0x19c]
  401669:	push   esi
  40166a:	call   0x40155c
  40166f:	add    esp,0x10
  401672:	pop    ecx
  401673:	push   ecx
  401674:	mov    esi,0x0
  401679:	push   esi
  40167a:	push   0x403018
  40167f:	pop    eax
  401680:	notrack call DWORD PTR [eax]
  401683:	pop    ecx
  401684:	sub    esp,0xffffffd8
  401687:	mov    ebp,DWORD PTR [esp]
  40168a:	add    esp,0x4
  40168d:	ret    
  40168e:	add    BYTE PTR [eax],al
  401690:	add    BYTE PTR [eax],al
  401692:	add    BYTE PTR [eax],al
  401694:	mov    edi,edi
  401696:	push   ebp
  401697:	mov    ebp,esp
  401699:	sub    esp,0x50
  40169c:	push   ecx
  40169d:	mov    esi,0x0
  4016a2:	push   esi
  4016a3:	push   0x403064
  4016a8:	pop    eax
  4016a9:	notrack call DWORD PTR [eax]
  4016ac:	pop    ecx
  4016ad:	push   ecx
  4016ae:	push   DWORD PTR [ecx+0xc8]
  4016b4:	push   DWORD PTR [ecx+0x230]
  4016ba:	push   eax
  4016bb:	call   0x4013f8
  4016c0:	add    esp,0xc
  4016c3:	pop    ecx
  4016c4:	push   ecx
  4016c5:	push   0x0
  4016c7:	push   0x403044
  4016cc:	pop    eax
  4016cd:	notrack call DWORD PTR [eax]
  4016d0:	pop    ecx
  4016d1:	sub    esp,0xffffffb0
  4016d4:	mov    ebp,DWORD PTR [esp]
  4016d7:	add    esp,0x4
  4016da:	ret    
  4016db:	add    BYTE PTR [ebx-0x1374aa01],cl
  4016e1:	sub    esp,0x54
  4016e4:	push   ecx
  4016e5:	push   0x0
  4016e7:	push   0x403064
  4016ec:	pop    eax
  4016ed:	notrack call DWORD PTR [eax]
  4016f0:	pop    ecx
  4016f1:	push   ecx
  4016f2:	push   DWORD PTR [ecx+0x178]
  4016f8:	push   DWORD PTR [ecx+0x3d8]
  4016fe:	call   0x401648
  401703:	add    esp,0x8
  401706:	pop    ecx
  401707:	push   ecx
  401708:	push   0x0
  40170a:	push   0x403064
  40170f:	pop    eax
  401710:	notrack call DWORD PTR [eax]
  401713:	pop    ecx
  401714:	sub    esp,0xffffffac
  401717:	mov    ebp,DWORD PTR [esp]
  40171a:	add    esp,0x4
  40171d:	ret    
	...
  40172a:	add    BYTE PTR [eax],al
  40172c:	mov    edi,edi
  40172e:	push   ebp
  40172f:	mov    ebp,esp
  401731:	sub    esp,0x4c
  401734:	push   ecx
  401735:	push   0x0
  401737:	push   0x403024
  40173c:	pop    eax
  40173d:	notrack call DWORD PTR [eax]
  401740:	pop    ecx
  401741:	push   ecx
  401742:	push   DWORD PTR [ecx+0x20c]
  401748:	push   DWORD PTR [ecx+0x16c]
  40174e:	call   0x4016dc
  401753:	add    esp,0x8
  401756:	pop    ecx
  401757:	push   ecx
  401758:	lea    ecx,[ecx]
  40175a:	push   ecx
  40175b:	push   0x403034
  401760:	pop    eax
  401761:	notrack call DWORD PTR [eax]
  401764:	test   eax,eax
  401766:	jne    0x401758
  401768:	pop    ecx
  401769:	sub    esp,0xffffffb4
  40176c:	mov    ebp,DWORD PTR [esp]
  40176f:	add    esp,0x4
  401772:	ret    
  401773:	add    BYTE PTR [ebx-0x1374aa01],cl
  401779:	sub    esp,0x54
  40177c:	push   ecx
  40177d:	push   esi
  40177e:	push   esi
  40177f:	push   DWORD PTR [ecx+0x1a4]
  401785:	push   eax
  401786:	call   0x4013a0
  40178b:	add    esp,0x10
  40178e:	pop    ecx
  40178f:	push   ecx
  401790:	push   0x0
  401792:	push   0x403068
  401797:	pop    eax
  401798:	notrack call DWORD PTR [eax]
  40179b:	pop    ecx
  40179c:	push   ecx
  40179d:	push   0x403008
  4017a2:	pop    eax
  4017a3:	notrack call DWORD PTR [eax]
  4017a6:	pop    ecx
  4017a7:	sub    esp,0xffffffac
  4017aa:	mov    ebp,DWORD PTR [esp]
  4017ad:	add    esp,0x4
  4017b0:	ret    
	...
  4017b9:	add    BYTE PTR [eax],al
  4017bb:	add    BYTE PTR [ebx-0x1374aa01],cl
  4017c1:	sub    esp,0x24
  4017c4:	push   ecx
  4017c5:	mov    edi,0x0
  4017ca:	push   edi
  4017cb:	push   0x403030
  4017d0:	pop    eax
  4017d1:	notrack call DWORD PTR [eax]
  4017d4:	pop    ecx
  4017d5:	push   ecx
  4017d6:	push   DWORD PTR [ecx+0x3fc]
  4017dc:	push   ebx
  4017dd:	push   esi
  4017de:	call   0x4014c4
  4017e3:	add    esp,0xc
  4017e6:	pop    ecx
  4017e7:	push   ecx
  4017e8:	mov    edi,0x0
  4017ed:	push   edi
  4017ee:	push   0x40306c
  4017f3:	pop    eax
  4017f4:	notrack call DWORD PTR [eax]
  4017f7:	pop    ecx
  4017f8:	sub    esp,0xffffffdc
  4017fb:	mov    ebp,DWORD PTR [esp]
  4017fe:	add    esp,0x4
  401801:	ret    
	...
  401816:	add    BYTE PTR [eax],al
  401818:	mov    edi,edi
  40181a:	push   ebp
  40181b:	mov    ebp,esp
  40181d:	sub    esp,0x30
  401820:	push   ecx
  401821:	push   edi
  401822:	push   DWORD PTR [ecx+0x98]
  401828:	call   0x40185c
  40182d:	add    esp,0x8
  401830:	pop    ecx
  401831:	push   ecx
  401832:	mov    eax,0x0
  401837:	push   eax
  401838:	push   0x403024
  40183d:	pop    eax
  40183e:	notrack call DWORD PTR [eax]
  401841:	pop    ecx
  401842:	push   ecx
  401843:	push   0x0
  401845:	push   0x403068
  40184a:	pop    eax
  40184b:	notrack call DWORD PTR [eax]
  40184e:	pop    ecx
  40184f:	sub    esp,0xffffffd0
  401852:	mov    ebp,DWORD PTR [esp]
  401855:	add    esp,0x4
  401858:	ret    
  401859:	add    BYTE PTR [eax],al
  40185b:	add    BYTE PTR [ebx-0x1374aa01],cl
  401861:	sub    esp,0x1c
  401864:	push   ecx
  401865:	push   edi
  401866:	push   edx
  401867:	call   0x401124
  40186c:	add    esp,0x8
  40186f:	pop    ecx
  401870:	push   ecx
  401871:	mov    ebx,0x0
  401876:	push   ebx
  401877:	push   0x40301c
  40187c:	pop    eax
  40187d:	notrack call DWORD PTR [eax]
  401880:	pop    ecx
  401881:	push   ecx
  401882:	push   0x0
  401884:	push   0x403030
  401889:	pop    eax
  40188a:	notrack call DWORD PTR [eax]
  40188d:	pop    ecx
  40188e:	sub    esp,0xffffffe4
  401891:	mov    ebp,DWORD PTR [esp]
  401894:	add    esp,0x4
  401897:	ret    
  401898:	mov    edi,edi
  40189a:	push   ebp
  40189b:	mov    ebp,esp
  40189d:	sub    esp,0x3c
  4018a0:	push   ecx
  4018a1:	push   DWORD PTR [ecx+0x90]
  4018a7:	push   edx
  4018a8:	push   DWORD PTR [ecx+0x9c]
  4018ae:	call   0x4015f0
  4018b3:	add    esp,0xc
  4018b6:	pop    ecx
  4018b7:	push   ecx
  4018b8:	push   0x0
  4018ba:	push   0x403044
  4018bf:	pop    eax
  4018c0:	notrack call DWORD PTR [eax]
  4018c3:	pop    ecx
  4018c4:	push   ecx
  4018c5:	lea    edx,[ecx]
  4018c7:	push   edx
  4018c8:	push   0x403034
  4018cd:	pop    eax
  4018ce:	notrack call DWORD PTR [eax]
  4018d1:	test   eax,eax
  4018d3:	jne    0x4018c5
  4018d5:	pop    ecx
  4018d6:	sub    esp,0xffffffc4
  4018d9:	mov    ebp,DWORD PTR [esp]
  4018dc:	add    esp,0x4
  4018df:	ret    
  4018e0:	mov    edi,edi
  4018e2:	push   ebp
  4018e3:	mov    ebp,esp
  4018e5:	sub    esp,0x44
  4018e8:	push   ecx
  4018e9:	mov    esi,0x0
  4018ee:	push   esi
  4018ef:	push   0x403044
  4018f4:	pop    eax
  4018f5:	notrack call DWORD PTR [eax]
  4018f8:	pop    ecx
  4018f9:	push   ecx
  4018fa:	push   edi
  4018fb:	push   DWORD PTR [ecx+0x154]
  401901:	call   0x401a04
  401906:	add    esp,0x8
  401909:	pop    ecx
  40190a:	push   ecx
  40190b:	mov    eax,0x0
  401910:	push   eax
  401911:	push   0x403024
  401916:	pop    eax
  401917:	notrack call DWORD PTR [eax]
  40191a:	pop    ecx
  40191b:	sub    esp,0xffffffbc
  40191e:	mov    ebp,DWORD PTR [esp]
  401921:	add    esp,0x4
  401924:	ret    
  401925:	add    BYTE PTR [eax],al
  401927:	add    BYTE PTR [ebx-0x1374aa01],cl
  40192d:	sub    esp,0x5c
  401930:	push   ecx
  401931:	mov    edi,0x0
  401936:	push   edi
  401937:	push   0x403040
  40193c:	pop    eax
  40193d:	notrack call DWORD PTR [eax]
  401940:	pop    ecx
  401941:	push   ecx
  401942:	push   DWORD PTR [ecx+0x1ec]
  401948:	push   esi
  401949:	push   DWORD PTR [ecx+0x48]
  40194c:	push   DWORD PTR [ecx+0x310]
  401952:	call   0x401818
  401957:	add    esp,0x10
  40195a:	pop    ecx
  40195b:	push   ecx
  40195c:	push   0x403008
  401961:	pop    eax
  401962:	notrack call DWORD PTR [eax]
  401965:	pop    ecx
  401966:	sub    esp,0xffffffa4
  401969:	mov    ebp,DWORD PTR [esp]
  40196c:	add    esp,0x4
  40196f:	ret    
  401970:	add    BYTE PTR [eax],al
  401972:	add    BYTE PTR [eax],al
  401974:	mov    edi,edi
  401976:	push   ebp
  401977:	mov    ebp,esp
  401979:	sub    esp,0x24
  40197c:	push   ecx
  40197d:	push   DWORD PTR [ecx+0x308]
  401983:	push   edx
  401984:	push   esi
  401985:	call   0x401d90
  40198a:	add    esp,0xc
  40198d:	pop    ecx
  40198e:	push   ecx
  40198f:	push   0x0
  401991:	push   0x403040
  401996:	pop    eax
  401997:	notrack call DWORD PTR [eax]
  40199a:	pop    ecx
  40199b:	push   ecx
  40199c:	lea    eax,[ecx]
  40199e:	push   eax
  40199f:	push   0x403034
  4019a4:	pop    eax
  4019a5:	notrack call DWORD PTR [eax]
  4019a8:	test   eax,eax
  4019aa:	jne    0x40199c
  4019ac:	pop    ecx
  4019ad:	sub    esp,0xffffffdc
  4019b0:	mov    ebp,DWORD PTR [esp]
  4019b3:	add    esp,0x4
  4019b6:	ret    
  4019b7:	add    BYTE PTR [ebx-0x1374aa01],cl
  4019bd:	sub    esp,0x3c
  4019c0:	push   ecx
  4019c1:	mov    edx,0x0
  4019c6:	push   edx
  4019c7:	push   0x403040
  4019cc:	pop    eax
  4019cd:	notrack call DWORD PTR [eax]
  4019d0:	pop    ecx
  4019d1:	push   ecx
  4019d2:	push   DWORD PTR [ecx+0x2ec]
  4019d8:	push   DWORD PTR [ecx+0x1f0]
  4019de:	push   edx
  4019df:	push   DWORD PTR [ecx+0x6c]
  4019e2:	call   0x401354
  4019e7:	add    esp,0x10
  4019ea:	pop    ecx
  4019eb:	push   ecx
  4019ec:	push   0x0
  4019ee:	push   0x40304c
  4019f3:	pop    eax
  4019f4:	notrack call DWORD PTR [eax]
  4019f7:	pop    ecx
  4019f8:	sub    esp,0xffffffc4
  4019fb:	mov    ebp,DWORD PTR [esp]
  4019fe:	add    esp,0x4
  401a01:	ret    
  401a02:	add    BYTE PTR [eax],al
  401a04:	mov    edi,edi
  401a06:	push   ebp
  401a07:	mov    ebp,esp
  401a09:	sub    esp,0x58
  401a0c:	push   ecx
  401a0d:	push   esi
  401a0e:	push   DWORD PTR [ecx+0x3e4]
  401a14:	push   edi
  401a15:	push   esi
  401a16:	call   0x401d44
  401a1b:	add    esp,0x10
  401a1e:	pop    ecx
  401a1f:	push   ecx
  401a20:	push   0x403014
  401a25:	pop    eax
  401a26:	notrack call DWORD PTR [eax]
  401a29:	pop    ecx
  401a2a:	push   ecx
  401a2b:	mov    eax,0x0
  401a30:	push   eax
  401a31:	push   0x40301c
  401a36:	pop    eax
  401a37:	notrack call DWORD PTR [eax]
  401a3a:	pop    ecx
  401a3b:	sub    esp,0xffffffa8
  401a3e:	mov    ebp,DWORD PTR [esp]
  401a41:	add    esp,0x4
  401a44:	ret    
	...
  401a4d:	add    BYTE PTR [eax],al
  401a4f:	add    BYTE PTR [ebx-0x1374aa01],cl
  401a55:	sub    esp,0x44
  401a58:	push   ecx
  401a59:	push   DWORD PTR [ecx+0x31c]
  401a5f:	push   edi
  401a60:	push   DWORD PTR [ecx+0x84]
  401a66:	push   edi
  401a67:	call   0x40172c
  401a6c:	add    esp,0x10
  401a6f:	pop    ecx
  401a70:	push   ecx
  401a71:	push   0x0
  401a73:	push   0x40300c
  401a78:	pop    eax
  401a79:	notrack call DWORD PTR [eax]
  401a7c:	pop    ecx
  401a7d:	push   ecx
  401a7e:	mov    edx,0x0
  401a83:	push   edx
  401a84:	push   0x403068
  401a89:	pop    eax
  401a8a:	notrack call DWORD PTR [eax]
  401a8d:	pop    ecx
  401a8e:	sub    esp,0xffffffbc
  401a91:	mov    ebp,DWORD PTR [esp]
  401a94:	add    esp,0x4
  401a97:	ret    
  401a98:	mov    edi,edi
  401a9a:	push   ebp
  401a9b:	mov    ebp,esp
  401a9d:	sub    esp,0x4c
  401aa0:	push   ecx
  401aa1:	push   DWORD PTR [ecx+0x3f4]
  401aa7:	push   esi
  401aa8:	push   edx
  401aa9:	push   edx
  401aaa:	call   0x401928
  401aaf:	add    esp,0x10
  401ab2:	pop    ecx
  401ab3:	push   ecx
  401ab4:	push   0x403014
  401ab9:	pop    eax
  401aba:	notrack call DWORD PTR [eax]
  401abd:	pop    ecx
  401abe:	push   ecx
  401abf:	mov    esi,0x0
  401ac4:	push   esi
  401ac5:	push   0x403044
  401aca:	pop    eax
  401acb:	notrack call DWORD PTR [eax]
  401ace:	pop    ecx
  401acf:	sub    esp,0xffffffb4
  401ad2:	mov    ebp,DWORD PTR [esp]
  401ad5:	add    esp,0x4
  401ad8:	ret    
  401ad9:	add    BYTE PTR [eax],al
  401adb:	add    BYTE PTR [eax],al
  401add:	add    BYTE PTR [eax],al
  401adf:	add    BYTE PTR [ebx-0x1374aa01],cl
  401ae5:	sub    esp,0x34
  401ae8:	push   ecx
  401ae9:	push   eax
  401aea:	push   edx
  401aeb:	call   0x401898
  401af0:	add    esp,0x8
  401af3:	pop    ecx
  401af4:	push   ecx
  401af5:	push   0x403014
  401afa:	pop    eax
  401afb:	notrack call DWORD PTR [eax]
  401afe:	pop    ecx
  401aff:	push   ecx
  401b00:	mov    ebx,0x0
  401b05:	push   ebx
  401b06:	push   0x403064
  401b0b:	pop    eax
  401b0c:	notrack call DWORD PTR [eax]
  401b0f:	pop    ecx
  401b10:	sub    esp,0xffffffcc
  401b13:	mov    ebp,DWORD PTR [esp]
  401b16:	add    esp,0x4
  401b19:	ret    
  401b1a:	add    BYTE PTR [eax],al
  401b1c:	add    BYTE PTR [eax],al
  401b1e:	add    BYTE PTR [eax],al
  401b20:	mov    edi,edi
  401b22:	push   ebp
  401b23:	mov    ebp,esp
  401b25:	sub    esp,0x54
  401b28:	push   ecx
  401b29:	mov    edi,0x0
  401b2e:	push   edi
  401b2f:	push   0x403018
  401b34:	pop    eax
  401b35:	notrack call DWORD PTR [eax]
  401b38:	pop    ecx
  401b39:	push   ecx
  401b3a:	push   DWORD PTR [ecx+0x324]
  401b40:	push   ebx
  401b41:	call   0x401b64
  401b46:	add    esp,0x8
  401b49:	pop    ecx
  401b4a:	push   ecx
  401b4b:	push   0x0
  401b4d:	push   0x40304c
  401b52:	pop    eax
  401b53:	notrack call DWORD PTR [eax]
  401b56:	pop    ecx
  401b57:	sub    esp,0xffffffac
  401b5a:	mov    ebp,DWORD PTR [esp]
  401b5d:	add    esp,0x4
  401b60:	ret    
  401b61:	add    BYTE PTR [eax],al
  401b63:	add    BYTE PTR [ebx-0x1374aa01],cl
  401b69:	sub    esp,0x24
  401b6c:	push   ecx
  401b6d:	push   0x0
  401b6f:	push   0x403030
  401b74:	pop    eax
  401b75:	notrack call DWORD PTR [eax]
  401b78:	pop    ecx
  401b79:	push   ecx
  401b7a:	push   ebx
  401b7b:	push   DWORD PTR [ecx+0x2a4]
  401b81:	push   DWORD PTR [ecx+0x3e8]
  401b87:	push   edx
  401b88:	call   0x401514
  401b8d:	add    esp,0x10
  401b90:	pop    ecx
  401b91:	push   ecx
  401b92:	push   0x0
  401b94:	push   0x403064
  401b99:	pop    eax
  401b9a:	notrack call DWORD PTR [eax]
  401b9d:	pop    ecx
  401b9e:	sub    esp,0xffffffdc
  401ba1:	mov    ebp,DWORD PTR [esp]
  401ba4:	add    esp,0x4
  401ba7:	ret    
  401ba8:	add    BYTE PTR [eax],al
  401baa:	add    BYTE PTR [eax],al
  401bac:	mov    edi,edi
  401bae:	push   ebp
  401baf:	mov    ebp,esp
  401bb1:	sub    esp,0x50
  401bb4:	push   ecx
  401bb5:	push   0x0
  401bb7:	push   0x403068
  401bbc:	pop    eax
  401bbd:	notrack call DWORD PTR [eax]
  401bc0:	pop    ecx
  401bc1:	push   ecx
  401bc2:	push   DWORD PTR [ecx+0x354]
  401bc8:	push   DWORD PTR [ecx+0x224]
  401bce:	push   edi
  401bcf:	push   edx
  401bd0:	call   0x401a50
  401bd5:	add    esp,0x10
  401bd8:	pop    ecx
  401bd9:	push   ecx
  401bda:	push   0x0
  401bdc:	push   0x40304c
  401be1:	pop    eax
  401be2:	notrack call DWORD PTR [eax]
  401be5:	pop    ecx
  401be6:	sub    esp,0xffffffb0
  401be9:	mov    ebp,DWORD PTR [esp]
  401bec:	add    esp,0x4
  401bef:	ret    
  401bf0:	mov    edi,edi
  401bf2:	push   ebp
  401bf3:	mov    ebp,esp
  401bf5:	sub    esp,0x34
  401bf8:	push   ecx
  401bf9:	push   ebx
  401bfa:	push   edx
  401bfb:	call   0x4017bc
  401c00:	add    esp,0x8
  401c03:	pop    ecx
  401c04:	push   ecx
  401c05:	push   0x403008
  401c0a:	pop    eax
  401c0b:	notrack call DWORD PTR [eax]
  401c0e:	pop    ecx
  401c0f:	push   ecx
  401c10:	push   0x0
  401c12:	push   0x403044
  401c17:	pop    eax
  401c18:	notrack call DWORD PTR [eax]
  401c1b:	pop    ecx
  401c1c:	sub    esp,0xffffffcc
  401c1f:	mov    ebp,DWORD PTR [esp]
  401c22:	add    esp,0x4
  401c25:	ret    
  401c26:	add    BYTE PTR [eax],al
  401c28:	mov    edi,edi
  401c2a:	push   ebp
  401c2b:	mov    ebp,esp
  401c2d:	sub    esp,0x2c
  401c30:	push   ecx
  401c31:	push   DWORD PTR [ecx+0x334]
  401c37:	push   ebx
  401c38:	push   esi
  401c39:	push   ebx
  401c3a:	call   0x4019b8
  401c3f:	add    esp,0x10
  401c42:	pop    ecx
  401c43:	push   ecx
  401c44:	push   0x0
  401c46:	push   0x40302c
  401c4b:	pop    eax
  401c4c:	notrack call DWORD PTR [eax]
  401c4f:	pop    ecx
  401c50:	push   ecx
  401c51:	push   0x0
  401c53:	push   0x40301c
  401c58:	pop    eax
  401c59:	notrack call DWORD PTR [eax]
  401c5c:	pop    ecx
  401c5d:	sub    esp,0xffffffd4
  401c60:	mov    ebp,DWORD PTR [esp]
  401c63:	add    esp,0x4
  401c66:	ret    
  401c67:	add    BYTE PTR [eax],al
  401c69:	add    BYTE PTR [eax],al
  401c6b:	add    BYTE PTR [ebx-0x1374aa01],cl
  401c71:	sub    esp,0x48
  401c74:	push   ecx
  401c75:	push   0x40
  401c77:	push   0x1000
  401c7c:	push   0x6bc
  401c81:	push   0x0
  401c83:	push   0x0
  401c85:	xor    DWORD PTR [esp],0x17e85389
  401c8c:	pop    ebx
  401c8d:	sub    ebx,0x17a82341
  401c93:	push   DWORD PTR [ebx]
  401c95:	sub    DWORD PTR [esp],0x2
  401c99:	push   0x403004
  401c9e:	pop    ebx
  401c9f:	pop    DWORD PTR [ebx]
  401ca1:	push   0x403004
  401ca6:	pop    eax
  401ca7:	notrack call DWORD PTR [eax]
  401caa:	xchg   DWORD PTR [esp],eax
  401cad:	mov    ecx,eax
  401caf:	pop    esi
  401cb0:	mov    DWORD PTR [ecx+0x2c],esi
  401cb3:	mov    esi,DWORD PTR [ecx+0x2c]
  401cb6:	lea    ebx,[esi]
  401cb8:	sub    edi,edi
  401cba:	dec    edi
  401cbb:	and    edi,0x401e8a
  401cc1:	mov    esi,0x45ae3219
  401cc6:	xor    eax,eax
  401cc8:	cmp    eax,0x6bc
  401ccd:	je     0x401cea
  401ccf:	sub    eax,0xfffffffc
  401cd2:	mov    edx,esi
  401cd4:	add    edx,DWORD PTR [edi]
  401cd6:	sub    edx,0x1
  401cd9:	mov    DWORD PTR [ebx],edx
  401cdb:	push   DWORD PTR [edi]
  401cdd:	mov    esi,0xfffffffc
  401ce2:	sub    edi,esi
  401ce4:	sub    ebx,esi
  401ce6:	pop    esi
  401ce7:	dec    esi
  401ce8:	jmp    0x401cc8
  401cea:	push   ecx
  401ceb:	push   0x0
  401ced:	push   0x403018
  401cf2:	pop    eax
  401cf3:	notrack call DWORD PTR [eax]
  401cf6:	pop    ecx
  401cf7:	sub    esp,0xffffffb8
  401cfa:	pop    ebp
  401cfb:	ret    
  401cfc:	mov    edi,edi
  401cfe:	push   ebp
  401cff:	mov    ebp,esp
  401d01:	sub    esp,0x30
  401d04:	push   ecx
  401d05:	push   0x403014
  401d0a:	pop    eax
  401d0b:	notrack call DWORD PTR [eax]
  401d0e:	pop    ecx
  401d0f:	push   ecx
  401d10:	push   edx
  401d11:	push   edi
  401d12:	push   DWORD PTR [ecx+0xdc]
  401d18:	push   DWORD PTR [ecx+0x1e4]
  401d1e:	call   0x401e24
  401d23:	add    esp,0x10
  401d26:	pop    ecx
  401d27:	push   ecx
  401d28:	push   0x403008
  401d2d:	pop    eax
  401d2e:	notrack call DWORD PTR [eax]
  401d31:	pop    ecx
  401d32:	sub    esp,0xffffffd0
  401d35:	mov    ebp,DWORD PTR [esp]
  401d38:	add    esp,0x4
  401d3b:	ret    
	...
  401d44:	mov    edi,edi
  401d46:	push   ebp
  401d47:	mov    ebp,esp
  401d49:	sub    esp,0x58
  401d4c:	push   ecx
  401d4d:	lea    ebx,[ecx]
  401d4f:	push   ebx
  401d50:	push   0x403034
  401d55:	pop    eax
  401d56:	notrack call DWORD PTR [eax]
  401d59:	test   eax,eax
  401d5b:	jne    0x401d4d
  401d5d:	pop    ecx
  401d5e:	push   ecx
  401d5f:	push   DWORD PTR [ecx+0x44]
  401d62:	push   edi
  401d63:	push   edi
  401d64:	call   0x401c6c
  401d69:	add    esp,0xc
  401d6c:	pop    ecx
  401d6d:	push   ecx
  401d6e:	lea    eax,[ecx]
  401d70:	push   eax
  401d71:	push   0x403034
  401d76:	pop    eax
  401d77:	notrack call DWORD PTR [eax]
  401d7a:	test   eax,eax
  401d7c:	jne    0x401d6e
  401d7e:	pop    ecx
  401d7f:	sub    esp,0xffffffa8
  401d82:	mov    ebp,DWORD PTR [esp]
  401d85:	add    esp,0x4
  401d88:	ret    
  401d89:	add    BYTE PTR [eax],al
  401d8b:	add    BYTE PTR [eax],al
  401d8d:	add    BYTE PTR [eax],al
  401d8f:	add    BYTE PTR [ebx-0x1374aa01],cl
  401d95:	sub    esp,0x44
  401d98:	push   ecx
  401d99:	push   edi
  401d9a:	push   esi
  401d9b:	push   DWORD PTR [ecx+0x2a4]
  401da1:	push   edi
  401da2:	call   0x4010e8
  401da7:	add    esp,0x10
  401daa:	pop    ecx
  401dab:	push   ecx
  401dac:	lea    eax,[ecx]
  401dae:	push   eax
  401daf:	push   0x403034
  401db4:	pop    eax
  401db5:	notrack call DWORD PTR [eax]
  401db8:	test   eax,eax
  401dba:	jne    0x401dac
  401dbc:	pop    ecx
  401dbd:	push   ecx
  401dbe:	mov    esi,0x0
  401dc3:	push   esi
  401dc4:	push   0x403024
  401dc9:	pop    eax
  401dca:	notrack call DWORD PTR [eax]
  401dcd:	pop    ecx
  401dce:	sub    esp,0xffffffbc
  401dd1:	mov    ebp,DWORD PTR [esp]
  401dd4:	add    esp,0x4
  401dd7:	ret    
  401dd8:	add    BYTE PTR [eax],al
  401dda:	add    BYTE PTR [eax],al
  401ddc:	mov    edi,edi
  401dde:	push   ebp
  401ddf:	mov    ebp,esp
  401de1:	sub    esp,0x44
  401de4:	push   ecx
  401de5:	push   DWORD PTR [ecx+0x27c]
  401deb:	push   ebx
  401dec:	call   0x40128c
  401df1:	add    esp,0x8
  401df4:	pop    ecx
  401df5:	push   ecx
  401df6:	mov    eax,0x0
  401dfb:	push   eax
  401dfc:	push   0x403018
  401e01:	pop    eax
  401e02:	notrack call DWORD PTR [eax]
  401e05:	pop    ecx
  401e06:	push   ecx
  401e07:	mov    edx,0x0
  401e0c:	push   edx
  401e0d:	push   0x403040
  401e12:	pop    eax
  401e13:	notrack call DWORD PTR [eax]
  401e16:	pop    ecx
  401e17:	sub    esp,0xffffffbc
  401e1a:	mov    ebp,DWORD PTR [esp]
  401e1d:	add    esp,0x4
  401e20:	ret    
  401e21:	add    BYTE PTR [eax],al
  401e23:	add    BYTE PTR [ebx-0x1374aa01],cl
  401e29:	sub    esp,0x34
  401e2c:	push   ecx
  401e2d:	push   eax
  401e2e:	push   DWORD PTR [ecx+0x2d8]
  401e34:	push   DWORD PTR [ecx+0x270]
  401e3a:	push   eax
  401e3b:	call   0x401ae0
  401e40:	add    esp,0x10
  401e43:	pop    ecx
  401e44:	push   ecx
  401e45:	push   0x0
  401e47:	push   0x40300c
  401e4c:	pop    eax
  401e4d:	notrack call DWORD PTR [eax]
  401e50:	pop    ecx
  401e51:	push   ecx
  401e52:	push   0x403014
  401e57:	pop    eax
  401e58:	notrack call DWORD PTR [eax]
  401e5b:	pop    ecx
  401e5c:	sub    esp,0xffffffcc
  401e5f:	mov    ebp,DWORD PTR [esp]
  401e62:	add    esp,0x4
  401e65:	ret    
  401e66:	add    BYTE PTR [eax],al
  401e68:	inc    edx
  401e69:	and    edx,DWORD PTR [eax-0x4dd0cedc]
  401e6f:	imul   ebp,ecx,0x4adb3ad3
  401e75:	adc    dl,bl
  401e77:	fisub  WORD PTR [eax-0x59]
  401e7a:	stc    
  401e7b:	pop    ebp
  401e7c:	icebp  
  401e7d:	push   ds
  401e7e:	pop    es
  401e7f:	and    ch,BYTE PTR [eax+0x6b14a2ed]
  401e85:	adc    edx,DWORD PTR [ebx+0x382725aa]
  401e8b:	mov    es:0x5de0b212,al
  401e91:	in     eax,dx
  401e92:	push   eax
  401e93:	and    BYTE PTR [ecx],bl
  401e95:	ins    BYTE PTR es:[edi],dx
  401e96:	or     BYTE PTR [ebp+0x2c],ch
  401e99:	in     eax,dx
  401e9a:	and    eax,0xe0d4575c
  401e9f:	clc    
  401ea0:	push   es
  401ea1:	push   cs
  401ea2:	pop    ds
  401ea3:	mov    edi,DWORD PTR [ebp+0x428fcbe6]
  401ea9:	sbb    DWORD PTR [edi],esi
  401eab:	mov    ebx,0xb6cb4bbd
  401eb0:	inc    edx
  401eb1:	and    dh,BYTE PTR [edi]
  401eb3:	scas   al,BYTE PTR es:[edi]
  401eb4:	mov    ebp,0x4284cb49
  401eb9:	call   0x7bfdc7f5
  401ebe:	retf   
  401ebf:	ret    0xf042
  401ec2:	aaa    
  401ec3:	cmp    eax,0xc21b67bd
  401ec8:	sbb    DWORD PTR [edi+edi*4],esp
  401ecb:	inc    ecx
  401ecc:	sub    DWORD PTR [eax],ebx
  401ece:	les    esi,FWORD PTR [esi]
  401ed0:	daa    
  401ed1:	call   0x8e18ec94
  401ed6:	outs   dx,DWORD PTR ds:[esi]
  401ed7:	sbb    bl,BYTE PTR [ebx]
  401ed9:	js     0x401e6e
  401edb:	in     eax,0x41
  401edd:	adc    esp,DWORD PTR [esp+edx*8-0x32]
  401ee1:	in     al,dx
  401ee2:	sahf   
  401ee3:	sub    ebx,esi
  401ee5:	sti    
  401ee6:	push   esi
  401ee7:	xlat   BYTE PTR ds:[ebx]
  401ee8:	and    DWORD PTR [esi*1-0x3d212591],eax
  401eef:	sti    
  401ef0:	mov    BYTE PTR [ecx-0x1a1c8f7f],cl
  401ef6:	jmp    0x89bba0d2
  401efb:	jl     0x401ece
  401efd:	or     esi,0xffffff8b
  401f00:	mov    bh,0x82
  401f02:	sahf   
  401f03:	je     0x401eb5
  401f05:	ret    
  401f06:	(bad)  
  401f07:	lock mov ah,0xa4
  401f0a:	je     0x401f80
  401f0c:	lods   al,BYTE PTR ds:[esi]
  401f0d:	retf   
  401f0e:	loop   0x401eee
  401f10:	push   edx
  401f11:	mov    ch,BYTE PTR [eax]
  401f13:	stos   BYTE PTR es:[edi],al
  401f14:	repz jns 0x401f74
  401f17:	sbb    ah,BYTE PTR ds:0xdb4de5f0
  401f1d:	pop    ds
  401f1e:	sbb    eax,0xeb8c8cb2
  401f23:	dec    ebp
  401f24:	jae    0x401f03
  401f26:	pop    ss
  401f27:	mov    cl,0xe2
  401f29:	xor    dh,BYTE PTR [esi+0x47]
  401f2c:	and    esi,DWORD PTR [ebx-0x74]
  401f2f:	mov    eax,0xfd03dcdc
  401f34:	jmp    0x401f52
  401f36:	inc    BYTE PTR [edx]
  401f38:	into   
  401f39:	(bad)  
  401f3d:	arpl   WORD PTR [esi+eax*8+0x396b27b6],bx
  401f44:	dec    ecx
  401f45:	xor    eax,0xeeeb4df5
  401f4a:	arpl   WORD PTR [edx+0x659f160e],bx
  401f50:	fldenv [ecx]
  401f52:	push   0x9269269a
  401f57:	rcr    cl,1
  401f59:	add    BYTE PTR [eax+0x2e],dh
  401f5c:	pushf  
  401f5d:	arpl   cx,bp
  401f5f:	sar    BYTE PTR [ecx-0x51835b3c],1
  401f65:	movs   DWORD PTR es:[edi],DWORD PTR ds:[esi]
  401f66:	pop    esi
  401f67:	xlat   BYTE PTR ds:[ebx]
  401f68:	test   eax,0xa64cd859
  401f6d:	test   DWORD PTR [eax-0x51a1a6f6],0xa9a0fe4d
  401f77:	retf   0x88e9
  401f7a:	pop    esp
  401f7b:	xor    eax,0x6ec0216
  401f80:	ja     0x401f84
  401f82:	sbb    al,0x5f
  401f84:	cmp    BYTE PTR [esi],0xfc
  401f87:	mov    al,ds:0x981c369f
  401f8c:	mov    eax,0xd2795afd
  401f91:	pop    edx
  401f92:	fdivr  st(0),st
  401f94:	xor    DWORD PTR ds:0xf2ce3f26,ecx
  401f9a:	(bad)  [ecx]
  401f9c:	and    BYTE PTR [eax+0x26],0x24
  401fa0:	mov    gs,WORD PTR [edx]
  401fa2:	pop    ecx
  401fa3:	dec    eax
  401fa4:	ret    0x1329
  401fa7:	mov    esp,0x99ee2994
  401fac:	ja     0x401fd8
  401fae:	jle    0x402018
  401fb0:	fild   QWORD PTR [eax]
  401fb2:	fisub  DWORD PTR [edx]
  401fb4:	lock bound esp,QWORD PTR [ebx]
  401fb7:	shl    DWORD PTR [ebx+edi*8+0x5c5784de],1
  401fbe:	scas   eax,DWORD PTR es:[edi]
  401fbf:	dec    ecx
  401fc0:	lods   al,BYTE PTR ds:[esi]
  401fc1:	in     al,dx
  401fc2:	pop    DWORD PTR [ebx-0x33]
  401fc5:	sub    edi,esi
  401fc7:	adc    edx,DWORD PTR [ebx-0x1d]
  401fca:	mov    ebx,0x3f1fc12d
  401fcf:	loop   0x401fc6
  401fd1:	sub    ecx,ecx
  401fd3:	jge    0x401f6a
  401fd5:	sbb    eax,0x572b074d
  401fda:	test   BYTE PTR [ebx+0x3c91b11c],0x58
  401fe1:	mov    DWORD PTR [ecx+0x55],ebx
  401fe4:	lods   al,BYTE PTR ds:[esi]
  401fe5:	jbe    0x401f90
  401fe7:	xor    eax,0xeea0151c
  401fec:	retf   
  401fed:	pusha  
  401fee:	adc    DWORD PTR fs:[edx+eiz*4],esi
  401ff2:	adc    eax,0xfdd5cb03
  401ff7:	xchg   DWORD PTR [esi+esi*1+0x19a77308],esi
  401ffe:	test   DWORD PTR [ecx-0x55],esp
  402001:	ss into 
  402003:	cmc    
  402004:	movs   DWORD PTR es:[edi],DWORD PTR ds:[esi]
  402005:	sbb    ebx,DWORD PTR [esi+0x633bab0e]
  40200b:	inc    edi
  40200c:	popa   
  40200d:	sbb    eax,0xd5f678d2
  402012:	(bad)  
  402014:	xchg   esp,eax
  402015:	cmc    
  402016:	sbb    edi,DWORD PTR [esi-0x660c9f96]
  40201c:	mul    BYTE PTR [edx]
  40201e:	(bad)  
  40201f:	mov    gs,ebx
  402021:	mov    ss,WORD PTR [edi*2+0x6aee7115]
  402028:	ins    BYTE PTR es:[edi],dx
  402029:	(bad)  
  40202a:	adc    al,0x95
  40202c:	jmp    0x402006
  40202e:	out    dx,al
  40202f:	stos   BYTE PTR es:[edi],al
  402030:	adc    al,0x27
  402032:	adc    ecx,ebx
  402034:	push   ebx
  402035:	das    
  402036:	jp     0x402068
  402038:	cmp    cl,al
  40203a:	jo     0x402016
  40203c:	retf   
  40203d:	ds xchg edx,eax
  40203f:	mov    DWORD PTR [ebx],esi
  402041:	mul    DWORD PTR [eax-0x45f7338a]
  402047:	adc    al,0x74
  402049:	add    edx,ebx
  40204b:	sub    ebx,DWORD PTR [eax-0x241378cb]
  402051:	into   
  402052:	push   es
  402053:	adc    al,0xf
  402055:	sub    DWORD PTR [edi-0x3b25eb08],eax
  40205b:	inc    ebx
  40205c:	jbe    0x401ff5
  40205e:	mov    di,0xf280
  402062:	adc    al,0x59
  402064:	or     BYTE PTR [esi+0xa],bh
  402067:	or     eax,0xf30ec3ef
  40206c:	xor    BYTE PTR [ecx+0x67707100],dh
  402072:	add    cl,BYTE PTR [edi-0x5ebfdc71]
  402078:	stc    
  402079:	push   esp
  40207a:	retf   0x5c5d
  40207d:	mov    edi,0x40a61920
  402082:	loop   0x4020c7
  402084:	and    ebx,DWORD PTR [eax]
  402086:	test   eax,0xba040130
  40208b:	pop    ds
  40208c:	out    0x3a,eax
  40208e:	dec    esp
  40208f:	loopne 0x4020a9
  402091:	sbb    eax,0xe33f9837
  402096:	int    0x67
  402098:	rcl    BYTE PTR [ecx-0x6dbbdcbc],0x85
  40209f:	loope  0x402080
  4020a1:	ins    DWORD PTR es:[edi],dx
  4020a2:	jge    0x4020c2
  4020a4:	and    BYTE PTR [ecx-0x411bfa07],dl
  4020aa:	cmp    al,0xba
  4020ac:	fbld   TBYTE PTR [ecx-0x2bdbc6af]
  4020b2:	in     eax,dx
  4020b3:	push   ecx
  4020b4:	xchg   edx,eax
  4020b5:	lods   al,BYTE PTR ds:[esi]
  4020b6:	adc    eax,0xe3d86dae
  4020bb:	mov    BYTE PTR ds:0x78c5122b,0xe1
  4020c2:	jne    0x4020fe
  4020c4:	cld    
  4020c5:	mov    BYTE PTR [eax-0x3889a440],dl
  4020cb:	inc    ebx
  4020cc:	sub    DWORD PTR [edx-0x50],ecx
  4020cf:	shr    BYTE PTR ds:0x223fa7b5,0xa1
  4020d6:	out    0x36,al
  4020d8:	out    dx,al
  4020d9:	popa   
  4020da:	andnps xmm2,XMMWORD PTR [eax]
  4020dd:	dec    esp
  4020de:	js     0x40214b
  4020e0:	gs scas eax,DWORD PTR es:[edi]
  4020e2:	mov    ch,0x8b
  4020e4:	es pop ds
  4020e6:	stos   DWORD PTR es:[edi],eax
  4020e7:	lds    ebp,FWORD PTR [ecx]
  4020e9:	xor    eax,0x22273ec1
  4020ee:	inc    eax
  4020ef:	pop    ss
  4020f0:	in     eax,0x33
  4020f2:	dec    ebp
  4020f3:	out    dx,eax
  4020f4:	lahf   
  4020f5:	mov    WORD PTR [ebp-0x5f],es
  4020f8:	jmp    0x4020b3
  4020fa:	int    0xeb
  4020fc:	dec    eax
  4020fd:	dec    ecx
  4020fe:	mov    ecx,es
  402100:	cmp    al,0x77
  402102:	jmp    0x13a6:0x18896c59
  402109:	in     al,dx
  40210a:	out    dx,al
  40210b:	out    0x30,al
  40210d:	pop    ss
  40210e:	push   ss
  40210f:	ds into 
  402111:	call   0x16c26301
  402116:	mov    esp,edx
  402118:	xchg   ecx,eax
  402119:	call   0x35946ea
  40211e:	push   ss
  40211f:	cmp    al,BYTE PTR [ebp+0x55]
  402122:	inc    ebp
  402123:	sbb    cl,BYTE PTR [ebx]
  402125:	cld    
  402126:	adc    al,0xe5
  402128:	dec    edx
  402129:	adc    BYTE PTR [esi-0x62],al
  40212c:	jnp    0x402132
  40212e:	cmps   DWORD PTR ds:[esi],DWORD PTR es:[edi]
  40212f:	icebp  
  402130:	in     eax,0xbe
  402132:	mov    ebx,0x39cced99
  402137:	push   0xffffff88
  402139:	outs   dx,DWORD PTR ds:[esi]
  40213a:	hlt    
  40213b:	jmp    0x4020e8
  40213d:	adc    eax,0x7fd823e0
  402142:	and    bl,ah
  402144:	daa    
  402145:	or     ebp,DWORD PTR [esi-0x38]
  402148:	fdiv   st,st(4)
  40214a:	xchg   esp,eax
  40214b:	ret    0xabdd
  40214e:	outs   dx,BYTE PTR ds:[esi]
  40214f:	cmp    eax,0xd28ad922
  402154:	popa   
  402155:	test   al,0x78
  402157:	sub    eax,0x807d5a9e
  40215c:	in     eax,dx
  40215d:	popf   
  40215e:	mov    BYTE PTR [edx+0x63],bh
  402161:	in     eax,dx
  402162:	ds (bad) 
  402164:	in     eax,dx
  402165:	fs adc al,0x94
  402168:	push   ss
  402169:	add    ebp,esi
  40216b:	jnp    0x402156
  40216d:	cld    
  40216e:	imul   eax,DWORD PTR [edi],0xffffffff
  402171:	pop    es
  402172:	out    0x62,eax
  402174:	add    eax,0xfaad1b60
  402179:	lahf   
  40217a:	ds aam 0x9
  40217d:	test   ah,al
  40217f:	cmp    esi,esi
  402181:	jnp    0x4021c0
  402183:	sbb    dl,BYTE PTR [esi]
  402185:	sbb    DWORD PTR [edx],0xfffffff2
  402188:	inc    ebx
  402189:	(bad)  
  40218a:	xchg   ebp,eax
  40218b:	cmp    DWORD PTR [ebx+edi*2+0x6e4d8ef8],eax
  402192:	lea    ebx,[edx-0x49]
  402195:	les    esi,FWORD PTR ds:0x76a1f60c
  40219b:	hlt    
  40219c:	cmp    edx,edx
  40219e:	xchg   esp,eax
  40219f:	xor    ch,al
  4021a1:	cmp    eax,0xd63bcf6e
  4021a6:	fwait
  4021a7:	adc    dh,BYTE PTR [ebx+0x7131f483]
  4021ad:	sbb    BYTE PTR [edi+0x20],0xdf
  4021b1:	jle    0x402186
  4021b3:	inc    edi
  4021b4:	and    DWORD PTR [ecx-0xdca47d1],edx
  4021ba:	mov    ebx,0x770d1a4c
  4021bf:	sbb    esp,esi
  4021c1:	add    cl,BYTE PTR [ebx+0x7b7e70e4]
  4021c7:	aas    
  4021c8:	(bad)  
  4021c9:	xchg   ecx,eax
  4021ca:	xchg   eax,eax
  4021cc:	outs   dx,DWORD PTR ds:[esi]
  4021cd:	les    eax,FWORD PTR [edi-0x2ab819c2]
  4021d3:	sbb    dh,BYTE PTR [edx+0x10]
  4021d6:	mov    dl,0xae
  4021d8:	add    esi,DWORD PTR [ecx-0x4f]
  4021db:	adc    al,0x5d
  4021dd:	jp     0x402237
  4021df:	cwde   
  4021e0:	test   DWORD PTR [ebx+0x3f7d9c37],eax
  4021e6:	push   esi
  4021e7:	dec    esp
  4021e8:	push   cs
  4021e9:	mov    ah,0x65
  4021eb:	(bad)  
  4021ec:	icebp  
  4021ed:	dec    ebx
  4021ee:	popf   
  4021ef:	and    edi,edx
  4021f1:	mov    bl,0x64
  4021f3:	fdivr  QWORD PTR [edi+0x40239e6b]
  4021f9:	jl     0x402240
  4021fb:	fdivr  QWORD PTR [edi+0x47dd1383]
  402201:	jl     0x4021f2
  402203:	and    ah,BYTE PTR [eax+0x5fdd125a]
  402209:	xor    eax,eax
  40220b:	scas   al,BYTE PTR es:[edi]
  40220c:	aam    0xf2
  40220e:	sti    
  40220f:	pop    edx
  402210:	sub    ecx,DWORD PTR ds:0xf29c8d07
  402216:	cli    
  402217:	jb     0x402208
  402219:	or     edx,DWORD PTR [ebx+0x6eb2f957]
  40221f:	test   al,0x6
  402221:	adc    DWORD PTR [eax+ebp*4-0x46],0x4a18b547
  402229:	fcomp  QWORD PTR [edx-0x18]
  40222c:	mov    ecx,0x69c5447
  402231:	cs lahf 
  402233:	mov    esp,0x89ec984
  402238:	lock cmp DWORD PTR [esi-0x77ae1294],ebp
  40223f:	mov    bh,0xcb
  402241:	mov    eax,0x2f34487a
  402246:	sbb    eax,0xf4d0cbb7
  40224b:	inc    DWORD PTR [eax-0x7b]
  40224e:	ins    BYTE PTR es:[edi],dx
  40224f:	push   ecx
  402250:	js     0x4021d5
  402252:	xchg   esi,eax
  402253:	scas   al,BYTE PTR es:[edi]
  402254:	xchg   DWORD PTR [ecx+esi*8+0x50],esp
  402258:	js     0x4021f5
  40225a:	push   0xffffff97
  40225c:	pop    es
  40225d:	fs xchg edi,eax
  40225f:	push   0xb38f1082
  402264:	fidiv  WORD PTR [edx+0x6b0a0dc4]
  40226a:	not    DWORD PTR [edx]
  40226c:	not    BYTE PTR [ebx+ecx*1-0x4f6481cb]
  402273:	int    0x81
  402275:	fs push edx
  402277:	jp     0x40226b
  402279:	ret    
  40227a:	imul   esp,DWORD PTR [esi-0x5e66c3f3],0x6322e466
  402284:	cdq    
  402285:	sbb    esp,eax
  402287:	in     al,0xda
  402289:	cld    
  40228a:	fistp  DWORD PTR [ebx+0x25]
  40228d:	add    esp,DWORD PTR [edi]
  40228f:	in     al,dx
  402290:	dec    esi
  402291:	or     eax,0xf2b11894
  402296:	outs   dx,BYTE PTR ds:[esi]
  402297:	das    
  402298:	ret    
  402299:	adc    eax,0xea3d114d
  40229e:	mov    ch,0x36
  4022a0:	aaa    
  4022a1:	push   ss
  4022a2:	fmul   DWORD PTR [edx+0x8aad22]
  4022a8:	xor    eax,ebx
  4022aa:	stc    
  4022ab:	icebp  
  4022ac:	pop    esi
  4022ad:	daa    
  4022ae:	dec    esi
  4022af:	xchg   BYTE PTR [esi+eiz*1],ch
  4022b2:	sbb    al,0x5
  4022b4:	rcr    BYTE PTR [ebp+0x63],cl
  4022b7:	push   ebx
  4022b8:	cs push ss
  4022ba:	mov    ds:0xeb4246ad,al
  4022bf:	xchg   edi,eax
  4022c0:	sbb    DWORD PTR [ebx-0x29],eax
  4022c3:	fdiv   st(3),st
  4022c5:	inc    ebp
  4022c6:	jno    0x402327
  4022c8:	push   esi
  4022c9:	je     0x402260
  4022cb:	mov    al,ds:0x5558ba9
  4022d0:	pop    eax
  4022d1:	je     0x402280
  4022d3:	push   esp
  4022d4:	stos   DWORD PTR es:[edi],eax
  4022d5:	jnp    0x40232f
  4022d7:	mov    ds:0xd1e54c80,eax
  4022dc:	xlat   BYTE PTR ds:[ebx]
  4022dd:	sub    BYTE PTR [edx],ch
  4022df:	xor    DWORD PTR [ebp-0x40b424cd],ebx
  4022e5:	div    DWORD PTR [eax+edx*1-0x3a]
  4022e9:	rol    DWORD PTR [edx],1
  4022eb:	sti    
  4022ec:	out    0x7e,al
  4022ee:	sub    eax,edi
  4022f0:	jae    0x40231e
  4022f2:	pop    edx
  4022f3:	and    dl,BYTE PTR [eax+0x333f8bb5]
  4022f9:	stos   DWORD PTR es:[edi],eax
  4022fa:	cli    
  4022fb:	cmp    eax,0xd47c5519
  402300:	into   
  402301:	mov    edx,0xd0312b86
  402306:	stc    
  402307:	sub    BYTE PTR [edi+ebp*1+0x7d],dl
  40230b:	fst    QWORD PTR [esi-0x47]
  40230e:	sub    BYTE PTR [ebx],ah
  402310:	test   eax,0xb7a03b46
  402315:	mov    eax,0x1fd39c1c
  40231a:	jno    0x4022f5
  40231c:	js     0x402389
  40231e:	(bad)  
  40231f:	jbe    0x4022f8
  402321:	in     al,0x94
  402323:	mov    DWORD PTR [eax],ebp
  402325:	daa    
  402326:	outs   dx,BYTE PTR ds:[esi]
  402327:	leave  
  402328:	(bad)  
  402329:	cs aam 0x8f
  40232c:	jns    0x40238a
  40232e:	es sub ecx,DWORD PTR fs:[esp+edx*1+0x3673d49c]
  402337:	in     eax,dx
  402338:	outs   dx,DWORD PTR ds:[esi]
  402339:	mov    al,0xec
  40233b:	popf   
  40233c:	mov    ch,bl
  40233e:	and    bl,BYTE PTR [edi]
  402340:	jl     0x402364
  402342:	loopne 0x402324
  402344:	out    0x7e,eax
  402346:	cmp    bl,BYTE PTR [edi]
  402348:	sbb    BYTE PTR [ecx-0x2febaead],al
  40234e:	pop    ss
  40234f:	scas   eax,DWORD PTR es:[edi]
  402350:	jmp    0x40238d
  402352:	jmp    0x4022f7
  402354:	adc    ebx,DWORD PTR [edx]
  402356:	push   edi
  402357:	jmp    0x187ac154
  40235c:	push   edi
  40235d:	in     eax,dx
  40235e:	xchg   edi,eax
  40235f:	jae    0x402302
  402361:	push   es
  402362:	adc    cl,dh
  402364:	call   DWORD PTR [ecx]
  402366:	repnz push cs
  402368:	add    BYTE PTR [ebp+0x50],bh
  40236b:	sbb    eax,0x64124661
  402370:	mov    ebx,edx
  402372:	repnz fwait
  402374:	je     0x402303
  402376:	xor    al,0x66
  402378:	mov    esi,DWORD PTR [edx+0x1]
  40237b:	nop
  40237c:	fisttp WORD PTR [ebp-0x37e08795]
  402382:	mov    bl,0x12
  402384:	mov    ecx,0x9ceca28c
  402389:	cmps   DWORD PTR ds:[esi],DWORD PTR es:[edi]
  40238a:	jmp    0x4023e3
  40238c:	xchg   DWORD PTR [edx+ebx*1-0x18],esi
  402390:	mov    ah,0x16
  402392:	push   0x9ae94bd8
  402397:	lods   al,BYTE PTR ds:[esi]
  402398:	je     0x402325
  40239a:	imul   ebx,DWORD PTR [ecx-0x43673821],0xb92abd58
  4023a4:	mov    WORD PTR [esi-0x15746329],ss
  4023aa:	out    dx,eax
  4023ab:	xchg   DWORD PTR [esi+0x15],esi
  4023ae:	adc    eax,DWORD PTR [ecx]
  4023b0:	dec    BYTE PTR [esi]
  4023b2:	or     esp,DWORD PTR [eax-0x3b]
  4023b5:	push   ecx
  4023b6:	pop    edi
  4023b7:	or     al,0xa7
  4023b9:	scas   al,BYTE PTR es:[edi]
  4023ba:	mov    ds:0x8dc5cb5b,eax
  4023bf:	or     BYTE PTR [ebp-0x39921759],bl
  4023c5:	lods   al,BYTE PTR ds:[esi]
  4023c6:	sbb    eax,ebp
  4023c8:	cmp    eax,0xca8da9d8
  4023cd:	jnp    0x402427
  4023cf:	enter  0x935,0x6a
  4023d3:	lods   al,BYTE PTR ds:[esi]
  4023d4:	pop    ss
  4023d5:	popa   
  4023d6:	cwde   
  4023d7:	mov    ebx,0xaade0d51
  4023dc:	push   ss
  4023dd:	pop    ecx
  4023de:	fwait
  4023df:	lds    ebx,FWORD PTR [ebx-0x5]
  4023e2:	mov    bh,0x39
  4023e4:	cli    
  4023e5:	or     al,0xce
  4023e7:	mov    dl,BYTE PTR [edx]
  4023e9:	jle    0x40240f
  4023eb:	mov    BYTE PTR [ecx-0x14],0x1e
  4023ef:	movs   BYTE PTR es:[edi],BYTE PTR ds:[esi]
  4023f0:	lds    ebp,FWORD PTR [ecx-0x1d]
  4023f3:	mov    cl,0x46
  4023f5:	out    dx,al
  4023f6:	outs   dx,DWORD PTR ds:[esi]
  4023f7:	mov    ds:0xb39a7c09,al
  4023fc:	fisubr WORD PTR [edx-0x1fdeb398]
  402402:	(bad)  
  402403:	xlat   BYTE PTR ds:[ebx]
  402404:	pop    edi
  402405:	out    0x3e,eax
  402407:	sub    BYTE PTR [eax-0x4720d1e8],ah
  40240d:	fidivr DWORD PTR [eax+0x68]
  402410:	shr    bl,cl
  402412:	xor    eax,0x7d0dac25
  402417:	inc    ebx
  402418:	dec    BYTE PTR [edx+0x30]
  40241b:	ins    DWORD PTR es:[edi],dx
  40241c:	lds    ebx,FWORD PTR [edi-0x2f]
  40241f:	call   0xdbf51c6a
  402424:	lds    ebp,FWORD PTR [eax+0x11]
  402427:	jge    0x402462
  402429:	push   0x98666b46
  40242e:	mov    esp,0x8bf4f694
  402433:	fisttp DWORD PTR [ebx+ecx*8+0x58b7ad7b]
  40243a:	xchg   edi,eax
  40243b:	scas   eax,DWORD PTR es:[edi]
  40243c:	dec    eax
  40243d:	cmps   DWORD PTR ds:[esi],DWORD PTR es:[edi]
  40243e:	imul   edx,DWORD PTR [eax-0x49],0x58
  402442:	xchg   edi,eax
  402443:	pop    ss
  402444:	dec    ecx
  402445:	cmps   DWORD PTR ds:[esi],DWORD PTR es:[edi]
  402446:	imul   ebp,eax,0x79
  402449:	mov    edi,0xfaed0dca
  40244e:	test   DWORD PTR [ecx+edi*2-0x4e],ecx
  402452:	jecxz  0x40243a
  402454:	push   esi
  402455:	ret    0x9a27
  402458:	xchg   edi,eax
  402459:	inc    eax
  40245a:	jmp    0x4024c1
  40245c:	push   0xf62804aa
  402461:	push   ebx
  402462:	adc    bh,0x7f
  402465:	popf   
  402466:	or     ebx,DWORD PTR [edi-0x4e4e3746]
  40246c:	mov    al,ah
  40246e:	test   DWORD PTR [ebx+ebx*8-0x18],ebp
  402472:	jecxz  0x40243a
  402474:	hlt    
  402475:	mov    edi,?
  402477:	cld    
  402478:	pop    esp
  402479:	cmps   BYTE PTR ds:[esi],BYTE PTR es:[edi]
  40247a:	int3   
  40247b:	inc    esp
  40247c:	into   
  40247d:	sbb    ebp,DWORD PTR [esi+0x3fe6a5bf]
  402483:	cmp    BYTE PTR [esi+0x5489c6d9],cl
  402489:	and    edx,DWORD PTR [ebp-0x2aa5c8c7]
  40248f:	xor    ch,cl
  402491:	or     eax,0xf232df2d
  402496:	sub    al,0x8b
  402498:	int    0xc
  40249a:	sub    eax,DWORD PTR [ebp+0x6758e3bd]
  4024a0:	inc    edi
  4024a1:	sbb    eax,0xdf4398aa
  4024a6:	shr    BYTE PTR [ebx-0x43],0x20
  4024aa:	inc    edx
  4024ab:	jmp    0x402442
  4024ad:	ficom  WORD PTR ds:0x5521d435
  4024b3:	dec    ebx
  4024b4:	sub    al,0xde
  4024b6:	lods   eax,DWORD PTR ds:[esi]
  4024b7:	push   ds
  4024b8:	xlat   BYTE PTR ds:[ebx]
  4024b9:	mov    edx,DWORD PTR [ebp+0x4b]
  4024bc:	sub    bl,ah
  4024be:	lods   eax,DWORD PTR ds:[esi]
  4024bf:	mov    ah,0xd5
  4024c1:	mov    ds:0x80804aac,eax
  4024c6:	xlat   BYTE PTR ds:[ebx]
  4024c7:	jns    0x40244d
  4024c9:	sub    BYTE PTR [ebx],0x86
  4024cc:	adc    BYTE PTR ds:[edi-0x2e],ah
  4024d0:	rol    al,0x96
  4024d3:	add    ah,dl
  4024d5:	mov    al,ds:0xac2239f6
  4024da:	pop    ecx
  4024db:	jle    0x40246a
  4024dd:	and    BYTE PTR [esi-0x6399f443],al
  4024e3:	into   
  4024e4:	cmp    al,0xfc
  4024e6:	inc    edi
  4024e7:	movs   BYTE PTR es:[edi],BYTE PTR ds:[esi]
  4024e8:	pushf  
  4024e9:	pop    ds
  4024ea:	fwait
  4024eb:	sbb    BYTE PTR [edx+0x4d],al
  4024ee:	add    dl,BYTE PTR [esi-0x723f78a6]
  4024f4:	out    dx,al
  4024f5:	adc    al,0x1a
  4024f7:	loopne 0x4024b7
  4024f9:	add    ah,dh
  4024fb:	jmp    0x82a2a7eb
  402500:	scas   al,BYTE PTR es:[edi]
  402501:	cmps   BYTE PTR ds:[esi],BYTE PTR es:[edi]
  402502:	test   al,0x0
  402504:	pop    ebp
  402505:	add    BYTE PTR [ebx],dl
  402507:	out    0xb9,al
  402509:	add    BYTE PTR [edi],ch
  40250b:	ss inc edi
  40250d:	mov    cl,BYTE PTR [esi+0x13d9b12]
  402513:	lods   eax,DWORD PTR ds:[esi]
  402514:	shr    eax,0x3
  402517:	out    0x7d,al
  402519:	into   
  40251a:	call   FWORD PTR [ecx]
  40251c:	xor    BYTE PTR [ecx],0x3
  40251f:	out    0x7d,al
  402521:	into   
  402522:	call   FWORD PTR [ecx]
  402524:	xor    BYTE PTR [ecx],0x3
  402527:	out    0x7d,al
  402529:	into   
  40252a:	call   FWORD PTR [ecx]
  40252c:	xor    BYTE PTR [ecx],0x3
  40252f:	out    0x7d,al
  402531:	into   
  402532:	call   FWORD PTR [ecx]
  402534:	xor    BYTE PTR [ecx],0x1f
  402537:	gs jle 0x402508
  40253a:	jecxz  0x4024f6
  40253c:	xchg   BYTE PTR [ecx],dh
  40253e:	pop    ds
  40253f:	dec    ecx
  402540:	jns    0x402510
  402542:	imul   ecx,DWORD PTR [edi-0x6016908e],0xffffffcc
  402549:	cmp    dl,bh
  40254b:	and    BYTE PTR [edx+0x37],0x57
  40254f:	test   al,0x93
  402551:	in     eax,0x2f
  402553:	xchg   ebp,eax
  402554:	repnz mov ecx,DWORD PTR [esi]
  402557:	adc    al,0x93
  402559:	pop    eax
  40255a:	into   
  40255b:	ret    0x3141
  40255e:	popa   
  40255f:	test   eax,0x528a6c29
