
6498c69c5b3d80ff236f551e9dfd973d109044b881e403a61ff3699910eddbdf.exe:     file format pei-i386


Disassembly of section .text:

00401000 <.text>:
	...
  401008:	mov    edi,edi
  40100a:	push   ebp
  40100b:	mov    ebp,esp
  40100d:	sub    esp,0x20
  401010:	push   edx
  401011:	push   edi
  401012:	push   ebx
  401013:	push   DWORD PTR [edx+0x5d8]
  401019:	call   0x401c2c
  40101e:	add    esp,0xc
  401021:	pop    edx
  401022:	push   edx
  401023:	push   0x403008
  401028:	pop    eax
  401029:	call   DWORD PTR cs:[eax]
  40102c:	pop    edx
  40102d:	push   edx
  40102e:	push   0x0
  401030:	push   0x403084
  401035:	pop    eax
  401036:	call   DWORD PTR cs:[eax]
  401039:	pop    edx
  40103a:	sub    esp,0xffffffe0
  40103d:	mov    ebp,DWORD PTR [esp]
  401040:	add    esp,0x4
  401043:	ret    
  401044:	jb     0x401054
	...
  401052:	add    BYTE PTR [eax],al
  401054:	mov    edi,edi
  401056:	pusha  
  401057:	push   ebp
  401058:	mov    ebp,esp
  40105a:	sub    esp,0x2c
  40105d:	push   edx
  40105e:	push   0x0
  401060:	push   0x40300c
  401065:	pop    eax
  401066:	call   DWORD PTR cs:[eax]
  401069:	pop    edx
  40106a:	test   eax,eax
  40106c:	je     0x40106f
  40106e:	ret    
  40106f:	push   edx
  401070:	lea    ecx,[edx]
  401072:	push   ecx
  401073:	push   0x403028
  401078:	pop    eax
  401079:	call   DWORD PTR cs:[eax]
  40107c:	test   eax,eax
  40107e:	jne    0x401070
  401080:	pop    edx
  401081:	push   edx
  401082:	push   DWORD PTR [edx+0x3d8]
  401088:	push   DWORD PTR [edx+0x13c]
  40108e:	push   DWORD PTR [edx+0x1b0]
  401094:	push   DWORD PTR [edx+0x468]
  40109a:	call   0x401a84
  40109f:	add    esp,0x10
  4010a2:	pop    edx
  4010a3:	mov    eax,0x403028
  4010a8:	mov    eax,DWORD PTR [eax]
  4010aa:	push   eax
  4010ab:	push   DWORD PTR [edx+0x5c8]
  4010b1:	pop    ebx
  4010b2:	call   ebx
  4010b4:	sub    esp,0xffffffd4
  4010b7:	mov    ebp,DWORD PTR [esp]
  4010ba:	add    esp,0x4
  4010bd:	ret    
  4010be:	add    BYTE PTR [eax],al
  4010c0:	mov    edi,edi
  4010c2:	push   ebp
  4010c3:	mov    ebp,esp
  4010c5:	sub    esp,0x30
  4010c8:	push   edx
  4010c9:	push   eax
  4010ca:	push   ecx
  4010cb:	push   eax
  4010cc:	call   0x401cc8
  4010d1:	add    esp,0xc
  4010d4:	pop    edx
  4010d5:	push   edx
  4010d6:	mov    esi,0x0
  4010db:	push   esi
  4010dc:	push   0x40301c
  4010e1:	pop    eax
  4010e2:	call   DWORD PTR cs:[eax]
  4010e5:	pop    edx
  4010e6:	push   edx
  4010e7:	mov    edi,0x0
  4010ec:	push   edi
  4010ed:	push   0x403034
  4010f2:	pop    eax
  4010f3:	call   DWORD PTR cs:[eax]
  4010f6:	pop    edx
  4010f7:	sub    esp,0xffffffd0
  4010fa:	mov    ebp,DWORD PTR [esp]
  4010fd:	add    esp,0x4
  401100:	ret    
  401101:	add    BYTE PTR [eax],al
  401103:	add    BYTE PTR [eax],al
  401105:	add    BYTE PTR [eax],al
  401107:	add    BYTE PTR [ebx-0x1374aa01],cl
  40110d:	sub    esp,0x20
  401110:	push   edx
  401111:	push   DWORD PTR [edx+0x5ac]
  401117:	push   DWORD PTR [edx+0x350]
  40111d:	push   ebx
  40111e:	push   esi
  40111f:	call   0x401734
  401124:	add    esp,0x10
  401127:	pop    edx
  401128:	push   edx
  401129:	mov    ecx,0x0
  40112e:	push   ecx
  40112f:	push   0x403084
  401134:	pop    eax
  401135:	call   DWORD PTR cs:[eax]
  401138:	pop    edx
  401139:	push   edx
  40113a:	mov    esi,0x0
  40113f:	push   esi
  401140:	push   0x403064
  401145:	pop    eax
  401146:	call   DWORD PTR cs:[eax]
  401149:	pop    edx
  40114a:	sub    esp,0xffffffe0
  40114d:	mov    ebp,DWORD PTR [esp]
  401150:	add    esp,0x4
  401153:	ret    
	...
  40115c:	mov    edi,edi
  40115e:	push   ebp
  40115f:	mov    ebp,esp
  401161:	sub    esp,0x2c
  401164:	push   edx
  401165:	mov    eax,0x0
  40116a:	push   eax
  40116b:	push   0x40300c
  401170:	pop    eax
  401171:	call   DWORD PTR cs:[eax]
  401174:	pop    edx
  401175:	push   edx
  401176:	push   DWORD PTR [edx+0x2dc]
  40117c:	push   DWORD PTR [edx+0x288]
  401182:	push   DWORD PTR [edx+0x564]
  401188:	push   DWORD PTR [edx+0x4b4]
  40118e:	call   0x40123c
  401193:	add    esp,0x10
  401196:	pop    edx
  401197:	push   edx
  401198:	push   0x40303c
  40119d:	pop    eax
  40119e:	call   DWORD PTR cs:[eax]
  4011a1:	pop    edx
  4011a2:	sub    esp,0xffffffd4
  4011a5:	mov    ebp,DWORD PTR [esp]
  4011a8:	add    esp,0x4
  4011ab:	ret    
	...
  4011b4:	mov    edi,edi
  4011b6:	push   ebp
  4011b7:	mov    ebp,esp
  4011b9:	sub    esp,0x2c
  4011bc:	push   edx
  4011bd:	push   0x403008
  4011c2:	pop    eax
  4011c3:	call   DWORD PTR cs:[eax]
  4011c6:	pop    edx
  4011c7:	push   edx
  4011c8:	push   DWORD PTR [edx+0x4dc]
  4011ce:	push   ecx
  4011cf:	push   DWORD PTR [edx+0x5dc]
  4011d5:	call   0x4016a0
  4011da:	add    esp,0xc
  4011dd:	pop    edx
  4011de:	push   edx
  4011df:	push   0x0
  4011e1:	push   0x403084
  4011e6:	pop    eax
  4011e7:	call   DWORD PTR cs:[eax]
  4011ea:	pop    edx
  4011eb:	sub    esp,0xffffffd4
  4011ee:	mov    ebp,DWORD PTR [esp]
  4011f1:	add    esp,0x4
  4011f4:	ret    
  4011f5:	add    BYTE PTR [eax],al
  4011f7:	add    BYTE PTR [ebx-0x1374aa01],cl
  4011fd:	sub    esp,0x3c
  401200:	push   edx
  401201:	push   0x403008
  401206:	pop    eax
  401207:	call   DWORD PTR cs:[eax]
  40120a:	pop    edx
  40120b:	push   edx
  40120c:	push   DWORD PTR [edx+0x29c]
  401212:	push   esi
  401213:	push   eax
  401214:	push   ebx
  401215:	call   0x401d10
  40121a:	add    esp,0x10
  40121d:	pop    edx
  40121e:	push   edx
  40121f:	mov    edx,0x0
  401224:	push   edx
  401225:	push   0x403034
  40122a:	pop    eax
  40122b:	call   DWORD PTR cs:[eax]
  40122e:	pop    edx
  40122f:	sub    esp,0xffffffc4
  401232:	mov    ebp,DWORD PTR [esp]
  401235:	add    esp,0x4
  401238:	ret    
  401239:	add    BYTE PTR [eax],al
  40123b:	add    BYTE PTR [ebx-0x1374aa01],cl
  401241:	sub    esp,0x30
  401244:	push   edx
  401245:	push   ecx
  401246:	push   DWORD PTR [edx+0x470]
  40124c:	push   DWORD PTR [edx+0x378]
  401252:	push   ebx
  401253:	call   0x401888
  401258:	add    esp,0x10
  40125b:	pop    edx
  40125c:	push   edx
  40125d:	push   0x0
  40125f:	push   0x40306c
  401264:	pop    eax
  401265:	call   DWORD PTR cs:[eax]
  401268:	pop    edx
  401269:	push   edx
  40126a:	push   0x0
  40126c:	push   0x403084
  401271:	pop    eax
  401272:	call   DWORD PTR cs:[eax]
  401275:	pop    edx
  401276:	sub    esp,0xffffffd0
  401279:	mov    ebp,DWORD PTR [esp]
  40127c:	add    esp,0x4
  40127f:	ret    
	...
  401290:	mov    edi,edi
  401292:	push   ebp
  401293:	mov    ebp,esp
  401295:	sub    esp,0x38
  401298:	push   edx
  401299:	mov    ebx,0x0
  40129e:	push   ebx
  40129f:	push   0x403084
  4012a4:	pop    eax
  4012a5:	call   DWORD PTR cs:[eax]
  4012a8:	pop    edx
  4012a9:	push   edx
  4012aa:	push   ebx
  4012ab:	push   edi
  4012ac:	call   0x401474
  4012b1:	add    esp,0x8
  4012b4:	pop    edx
  4012b5:	push   edx
  4012b6:	mov    ebx,0x0
  4012bb:	push   ebx
  4012bc:	push   0x403038
  4012c1:	pop    eax
  4012c2:	call   DWORD PTR cs:[eax]
  4012c5:	pop    edx
  4012c6:	sub    esp,0xffffffc8
  4012c9:	mov    ebp,DWORD PTR [esp]
  4012cc:	add    esp,0x4
  4012cf:	ret    
  4012d0:	mov    edi,edi
  4012d2:	push   ebp
  4012d3:	mov    ebp,esp
  4012d5:	sub    esp,0x3c
  4012d8:	push   edx
  4012d9:	push   eax
  4012da:	push   DWORD PTR [edx+0x348]
  4012e0:	call   0x401108
  4012e5:	add    esp,0x8
  4012e8:	pop    edx
  4012e9:	push   edx
  4012ea:	push   0x40303c
  4012ef:	pop    eax
  4012f0:	call   DWORD PTR cs:[eax]
  4012f3:	pop    edx
  4012f4:	push   edx
  4012f5:	mov    edi,0x0
  4012fa:	push   edi
  4012fb:	push   0x403000
  401300:	pop    eax
  401301:	call   DWORD PTR cs:[eax]
  401304:	pop    edx
  401305:	sub    esp,0xffffffc4
  401308:	mov    ebp,DWORD PTR [esp]
  40130b:	add    esp,0x4
  40130e:	ret    
  40130f:	add    BYTE PTR [ebx-0x1374aa01],cl
  401315:	sub    esp,0x60
  401318:	push   edx
  401319:	push   ebx
  40131a:	push   DWORD PTR [edx+0xd0]
  401320:	push   DWORD PTR [edx+0x8c]
  401326:	push   DWORD PTR [edx+0x4a8]
  40132c:	call   0x4018d0
  401331:	add    esp,0x10
  401334:	pop    edx
  401335:	push   edx
  401336:	mov    eax,0x0
  40133b:	push   eax
  40133c:	push   0x403024
  401341:	pop    eax
  401342:	call   DWORD PTR cs:[eax]
  401345:	pop    edx
  401346:	push   edx
  401347:	push   0x40303c
  40134c:	pop    eax
  40134d:	call   DWORD PTR cs:[eax]
  401350:	pop    edx
  401351:	sub    esp,0xffffffa0
  401354:	mov    ebp,DWORD PTR [esp]
  401357:	add    esp,0x4
  40135a:	ret    
  40135b:	add    BYTE PTR [ebx-0x1374aa01],cl
  401361:	sub    esp,0x24
  401364:	push   edx
  401365:	push   eax
  401366:	push   DWORD PTR [edx+0x4f0]
  40136c:	call   0x401e40
  401371:	add    esp,0x8
  401374:	pop    edx
  401375:	push   edx
  401376:	push   0x0
  401378:	push   0x40302c
  40137d:	pop    eax
  40137e:	call   DWORD PTR cs:[eax]
  401381:	pop    edx
  401382:	push   edx
  401383:	push   0x0
  401385:	push   0x403064
  40138a:	pop    eax
  40138b:	call   DWORD PTR cs:[eax]
  40138e:	pop    edx
  40138f:	sub    esp,0xffffffdc
  401392:	mov    ebp,DWORD PTR [esp]
  401395:	add    esp,0x4
  401398:	ret    
  401399:	add    BYTE PTR [eax],al
  40139b:	add    BYTE PTR [eax],al
  40139d:	add    BYTE PTR [eax],al
  40139f:	add    BYTE PTR [ebx-0x1374aa01],cl
  4013a5:	sub    esp,0x30
  4013a8:	push   edx
  4013a9:	push   0x403008
  4013ae:	pop    eax
  4013af:	call   DWORD PTR cs:[eax]
  4013b2:	pop    edx
  4013b3:	push   edx
  4013b4:	push   ebx
  4013b5:	push   DWORD PTR [edx+0x2e0]
  4013bb:	push   DWORD PTR [edx+0x460]
  4013c1:	call   0x401bac
  4013c6:	add    esp,0xc
  4013c9:	pop    edx
  4013ca:	push   edx
  4013cb:	push   0x0
  4013cd:	push   0x40304c
  4013d2:	pop    eax
  4013d3:	call   DWORD PTR cs:[eax]
  4013d6:	pop    edx
  4013d7:	sub    esp,0xffffffd0
  4013da:	mov    ebp,DWORD PTR [esp]
  4013dd:	add    esp,0x4
  4013e0:	ret    
  4013e1:	add    BYTE PTR [eax],al
  4013e3:	add    BYTE PTR [eax],al
  4013e5:	add    BYTE PTR [eax],al
  4013e7:	add    BYTE PTR [ebx-0x1374aa01],cl
  4013ed:	sub    esp,0x24
  4013f0:	push   edx
  4013f1:	mov    eax,0x0
  4013f6:	push   eax
  4013f7:	push   0x40301c
  4013fc:	pop    eax
  4013fd:	call   DWORD PTR cs:[eax]
  401400:	pop    edx
  401401:	push   edx
  401402:	push   ebx
  401403:	push   DWORD PTR [edx+0x484]
  401409:	push   ebx
  40140a:	push   DWORD PTR [edx+0x46c]
  401410:	call   0x40115c
  401415:	add    esp,0x10
  401418:	pop    edx
  401419:	push   edx
  40141a:	push   0x0
  40141c:	push   0x40306c
  401421:	pop    eax
  401422:	call   DWORD PTR cs:[eax]
  401425:	pop    edx
  401426:	sub    esp,0xffffffdc
  401429:	mov    ebp,DWORD PTR [esp]
  40142c:	add    esp,0x4
  40142f:	ret    
  401430:	sub    edx,edx
  401432:	add    edx,0x47e000
  401438:	push   edx
  401439:	xor    ecx,ecx
  40143b:	or     ecx,0x403094
  401441:	and    WORD PTR [ecx],0x0
  401445:	push   DWORD PTR [ecx]
  401447:	pop    eax
  401448:	mov    edx,eax
  40144a:	push   0x3c
  40144c:	add    DWORD PTR [esp],eax
  40144f:	pop    ecx
  401450:	push   eax
  401451:	mov    edi,esp
  401453:	mov    esi,ecx
  401455:	movs   DWORD PTR es:[edi],DWORD PTR ds:[esi]
  401456:	pop    eax
  401457:	mov    edx,DWORD PTR [eax+edx*1+0x1c]
  40145b:	ror    edx,0x8
  40145e:	xor    eax,eax
  401460:	or     al,0x80
  401462:	cmp    al,dl
  401464:	pop    edx
  401465:	ja     0x401470
  401467:	nop
  401468:	nop
  401469:	nop
  40146a:	nop
  40146b:	jmp    0x401044
  401470:	xor    esp,esp
  401472:	int    0x3
  401474:	mov    edi,edi
  401476:	push   ebp
  401477:	mov    ebp,esp
  401479:	sub    esp,0x44
  40147c:	push   edx
  40147d:	push   edi
  40147e:	push   DWORD PTR [edx+0x1d4]
  401484:	push   DWORD PTR [edx+0x31c]
  40148a:	call   0x4017fc
  40148f:	add    esp,0xc
  401492:	pop    edx
  401493:	push   edx
  401494:	mov    ebx,0x0
  401499:	push   ebx
  40149a:	push   0x403034
  40149f:	pop    eax
  4014a0:	call   DWORD PTR cs:[eax]
  4014a3:	pop    edx
  4014a4:	push   edx
  4014a5:	push   0x0
  4014a7:	push   0x403024
  4014ac:	pop    eax
  4014ad:	call   DWORD PTR cs:[eax]
  4014b0:	pop    edx
  4014b1:	sub    esp,0xffffffbc
  4014b4:	mov    ebp,DWORD PTR [esp]
  4014b7:	add    esp,0x4
  4014ba:	ret    
	...
  4014c7:	add    BYTE PTR [ebx-0x1374aa01],cl
  4014cd:	sub    esp,0x24
  4014d0:	push   edx
  4014d1:	push   eax
  4014d2:	push   ecx
  4014d3:	call   0x4010c0
  4014d8:	add    esp,0x8
  4014db:	pop    edx
  4014dc:	push   edx
  4014dd:	push   0x0
  4014df:	push   0x403084
  4014e4:	pop    eax
  4014e5:	call   DWORD PTR cs:[eax]
  4014e8:	pop    edx
  4014e9:	push   edx
  4014ea:	push   0x0
  4014ec:	push   0x403024
  4014f1:	pop    eax
  4014f2:	call   DWORD PTR cs:[eax]
  4014f5:	pop    edx
  4014f6:	sub    esp,0xffffffdc
  4014f9:	mov    ebp,DWORD PTR [esp]
  4014fc:	add    esp,0x4
  4014ff:	ret    
  401500:	mov    edi,edi
  401502:	push   ebp
  401503:	mov    ebp,esp
  401505:	sub    esp,0x38
  401508:	push   edx
  401509:	push   DWORD PTR [edx+0x344]
  40150f:	push   esi
  401510:	push   DWORD PTR [edx+0x534]
  401516:	push   edi
  401517:	call   0x4012d0
  40151c:	add    esp,0x10
  40151f:	pop    edx
  401520:	push   edx
  401521:	push   0x0
  401523:	push   0x403038
  401528:	pop    eax
  401529:	call   DWORD PTR cs:[eax]
  40152c:	pop    edx
  40152d:	push   edx
  40152e:	push   0x0
  401530:	push   0x40306c
  401535:	pop    eax
  401536:	call   DWORD PTR cs:[eax]
  401539:	pop    edx
  40153a:	sub    esp,0xffffffc8
  40153d:	mov    ebp,DWORD PTR [esp]
  401540:	add    esp,0x4
  401543:	ret    
  401544:	mov    edi,edi
  401546:	push   ebp
  401547:	mov    ebp,esp
  401549:	sub    esp,0x60
  40154c:	push   edx
  40154d:	push   ebx
  40154e:	push   ebx
  40154f:	call   0x401290
  401554:	add    esp,0x8
  401557:	pop    edx
  401558:	push   edx
  401559:	push   0x0
  40155b:	push   0x403084
  401560:	pop    eax
  401561:	call   DWORD PTR cs:[eax]
  401564:	pop    edx
  401565:	push   edx
  401566:	push   0x0
  401568:	push   0x403064
  40156d:	pop    eax
  40156e:	call   DWORD PTR cs:[eax]
  401571:	pop    edx
  401572:	sub    esp,0xffffffa0
  401575:	mov    ebp,DWORD PTR [esp]
  401578:	add    esp,0x4
  40157b:	ret    
  40157c:	add    BYTE PTR [eax],al
  40157e:	add    BYTE PTR [eax],al
  401580:	mov    edi,edi
  401582:	push   ebp
  401583:	mov    ebp,esp
  401585:	sub    esp,0x34
  401588:	push   edx
  401589:	push   DWORD PTR [edx+0x178]
  40158f:	push   eax
  401590:	push   eax
  401591:	call   0x40135c
  401596:	add    esp,0xc
  401599:	pop    edx
  40159a:	push   edx
  40159b:	push   0x0
  40159d:	push   0x403038
  4015a2:	pop    eax
  4015a3:	call   DWORD PTR cs:[eax]
  4015a6:	pop    edx
  4015a7:	push   edx
  4015a8:	mov    ebx,0x0
  4015ad:	push   ebx
  4015ae:	push   0x40306c
  4015b3:	pop    eax
  4015b4:	call   DWORD PTR cs:[eax]
  4015b7:	pop    edx
  4015b8:	sub    esp,0xffffffcc
  4015bb:	mov    ebp,DWORD PTR [esp]
  4015be:	add    esp,0x4
  4015c1:	ret    
  4015c2:	add    BYTE PTR [eax],al
  4015c4:	mov    edi,edi
  4015c6:	push   ebp
  4015c7:	mov    ebp,esp
  4015c9:	sub    esp,0x34
  4015cc:	push   edx
  4015cd:	push   DWORD PTR [edx+0x400]
  4015d3:	push   DWORD PTR [edx+0x420]
  4015d9:	call   0x401a40
  4015de:	add    esp,0x8
  4015e1:	pop    edx
  4015e2:	push   edx
  4015e3:	mov    eax,0x0
  4015e8:	push   eax
  4015e9:	push   0x403034
  4015ee:	pop    eax
  4015ef:	call   DWORD PTR cs:[eax]
  4015f2:	pop    edx
  4015f3:	push   edx
  4015f4:	push   0x0
  4015f6:	push   0x403064
  4015fb:	pop    eax
  4015fc:	call   DWORD PTR cs:[eax]
  4015ff:	pop    edx
  401600:	sub    esp,0xffffffcc
  401603:	mov    ebp,DWORD PTR [esp]
  401606:	add    esp,0x4
  401609:	ret    
	...
  401612:	add    BYTE PTR [eax],al
  401614:	mov    edi,edi
  401616:	push   ebp
  401617:	mov    ebp,esp
  401619:	sub    esp,0x28
  40161c:	push   edx
  40161d:	push   0x0
  40161f:	push   0x40306c
  401624:	pop    eax
  401625:	call   DWORD PTR cs:[eax]
  401628:	pop    edx
  401629:	push   edx
  40162a:	push   ebx
  40162b:	push   ecx
  40162c:	push   DWORD PTR [edx+0x53c]
  401632:	call   0x401b14
  401637:	add    esp,0xc
  40163a:	pop    edx
  40163b:	push   edx
  40163c:	mov    edx,0x0
  401641:	push   edx
  401642:	push   0x403064
  401647:	pop    eax
  401648:	call   DWORD PTR cs:[eax]
  40164b:	pop    edx
  40164c:	sub    esp,0xffffffd8
  40164f:	mov    ebp,DWORD PTR [esp]
  401652:	add    esp,0x4
  401655:	ret    
  401656:	add    BYTE PTR [eax],al
  401658:	add    BYTE PTR [eax],al
  40165a:	add    BYTE PTR [eax],al
  40165c:	mov    edi,edi
  40165e:	push   ebp
  40165f:	mov    ebp,esp
  401661:	sub    esp,0x50
  401664:	push   edx
  401665:	push   DWORD PTR [edx+0x70]
  401668:	push   esi
  401669:	push   ebx
  40166a:	call   0x401b64
  40166f:	add    esp,0xc
  401672:	pop    edx
  401673:	push   edx
  401674:	mov    ebx,0x0
  401679:	push   ebx
  40167a:	push   0x403084
  40167f:	pop    eax
  401680:	call   DWORD PTR cs:[eax]
  401683:	pop    edx
  401684:	push   edx
  401685:	mov    ebx,0x0
  40168a:	push   ebx
  40168b:	push   0x403038
  401690:	pop    eax
  401691:	call   DWORD PTR cs:[eax]
  401694:	pop    edx
  401695:	sub    esp,0xffffffb0
  401698:	mov    ebp,DWORD PTR [esp]
  40169b:	add    esp,0x4
  40169e:	ret    
  40169f:	add    BYTE PTR [ebx-0x1374aa01],cl
  4016a5:	sub    esp,0x30
  4016a8:	push   edx
  4016a9:	mov    edi,0x0
  4016ae:	push   edi
  4016af:	push   0x403020
  4016b4:	pop    eax
  4016b5:	call   DWORD PTR cs:[eax]
  4016b8:	pop    edx
  4016b9:	push   edx
  4016ba:	push   DWORD PTR [edx+0x184]
  4016c0:	push   ecx
  4016c1:	call   0x4019a0
  4016c6:	add    esp,0x8
  4016c9:	pop    edx
  4016ca:	push   edx
  4016cb:	mov    esi,0x0
  4016d0:	push   esi
  4016d1:	push   0x40304c
  4016d6:	pop    eax
  4016d7:	call   DWORD PTR cs:[eax]
  4016da:	pop    edx
  4016db:	sub    esp,0xffffffd0
  4016de:	mov    ebp,DWORD PTR [esp]
  4016e1:	add    esp,0x4
  4016e4:	ret    
  4016e5:	add    BYTE PTR [eax],al
  4016e7:	add    BYTE PTR [ebx-0x1374aa01],cl
  4016ed:	sub    esp,0x44
  4016f0:	push   edx
  4016f1:	push   ecx
  4016f2:	push   eax
  4016f3:	push   esi
  4016f4:	push   DWORD PTR [edx+0x4fc]
  4016fa:	call   0x401500
  4016ff:	add    esp,0x10
  401702:	pop    edx
  401703:	push   edx
  401704:	lea    edi,[edx]
  401706:	push   edi
  401707:	push   0x403028
  40170c:	pop    eax
  40170d:	call   DWORD PTR cs:[eax]
  401710:	test   eax,eax
  401712:	jne    0x401704
  401714:	pop    edx
  401715:	push   edx
  401716:	lea    edi,[edx]
  401718:	push   edi
  401719:	push   0x403028
  40171e:	pop    eax
  40171f:	call   DWORD PTR cs:[eax]
  401722:	test   eax,eax
  401724:	jne    0x401716
  401726:	pop    edx
  401727:	sub    esp,0xffffffbc
  40172a:	mov    ebp,DWORD PTR [esp]
  40172d:	add    esp,0x4
  401730:	ret    
  401731:	add    BYTE PTR [eax],al
  401733:	add    BYTE PTR [ebx-0x1374aa01],cl
  401739:	sub    esp,0x4c
  40173c:	push   edx
  40173d:	push   eax
  40173e:	push   DWORD PTR [edx+0x4ac]
  401744:	push   eax
  401745:	call   0x401d5c
  40174a:	add    esp,0xc
  40174d:	pop    edx
  40174e:	push   edx
  40174f:	mov    esi,0x0
  401754:	push   esi
  401755:	push   0x40306c
  40175a:	pop    eax
  40175b:	call   DWORD PTR cs:[eax]
  40175e:	pop    edx
  40175f:	push   edx
  401760:	push   0x40303c
  401765:	pop    eax
  401766:	call   DWORD PTR cs:[eax]
  401769:	pop    edx
  40176a:	sub    esp,0xffffffb4
  40176d:	mov    ebp,DWORD PTR [esp]
  401770:	add    esp,0x4
  401773:	ret    
  401774:	mov    edi,edi
  401776:	push   ebp
  401777:	mov    ebp,esp
  401779:	sub    esp,0x4c
  40177c:	push   edx
  40177d:	push   edi
  40177e:	push   eax
  40177f:	push   DWORD PTR [edx+0x204]
  401785:	call   0x401838
  40178a:	add    esp,0xc
  40178d:	pop    edx
  40178e:	push   edx
  40178f:	push   0x0
  401791:	push   0x40301c
  401796:	pop    eax
  401797:	call   DWORD PTR cs:[eax]
  40179a:	pop    edx
  40179b:	push   edx
  40179c:	mov    edi,0x0
  4017a1:	push   edi
  4017a2:	push   0x403084
  4017a7:	pop    eax
  4017a8:	call   DWORD PTR cs:[eax]
  4017ab:	pop    edx
  4017ac:	sub    esp,0xffffffb4
  4017af:	mov    ebp,DWORD PTR [esp]
  4017b2:	add    esp,0x4
  4017b5:	ret    
  4017b6:	add    BYTE PTR [eax],al
  4017b8:	add    BYTE PTR [eax],al
  4017ba:	add    BYTE PTR [eax],al
  4017bc:	mov    edi,edi
  4017be:	push   ebp
  4017bf:	mov    ebp,esp
  4017c1:	sub    esp,0x58
  4017c4:	push   edx
  4017c5:	push   0x0
  4017c7:	push   0x40302c
  4017cc:	pop    eax
  4017cd:	call   DWORD PTR cs:[eax]
  4017d0:	pop    edx
  4017d1:	push   edx
  4017d2:	push   ecx
  4017d3:	push   DWORD PTR [edx+0x3d0]
  4017d9:	call   0x401958
  4017de:	add    esp,0x8
  4017e1:	pop    edx
  4017e2:	push   edx
  4017e3:	push   0x0
  4017e5:	push   0x403064
  4017ea:	pop    eax
  4017eb:	call   DWORD PTR cs:[eax]
  4017ee:	pop    edx
  4017ef:	sub    esp,0xffffffa8
  4017f2:	mov    ebp,DWORD PTR [esp]
  4017f5:	add    esp,0x4
  4017f8:	ret    
  4017f9:	add    BYTE PTR [eax],al
  4017fb:	add    BYTE PTR [ebx-0x1374aa01],cl
  401801:	sub    esp,0x44
  401804:	push   edx
  401805:	push   ebx
  401806:	push   ebx
  401807:	call   0x401c74
  40180c:	add    esp,0x8
  40180f:	pop    edx
  401810:	push   edx
  401811:	mov    edx,0x0
  401816:	push   edx
  401817:	push   0x403020
  40181c:	pop    eax
  40181d:	call   DWORD PTR cs:[eax]
  401820:	pop    edx
  401821:	push   edx
  401822:	push   0x0
  401824:	push   0x40301c
  401829:	pop    eax
  40182a:	call   DWORD PTR cs:[eax]
  40182d:	pop    edx
  40182e:	sub    esp,0xffffffbc
  401831:	mov    ebp,DWORD PTR [esp]
  401834:	add    esp,0x4
  401837:	ret    
  401838:	mov    edi,edi
  40183a:	push   ebp
  40183b:	mov    ebp,esp
  40183d:	sub    esp,0x54
  401840:	push   edx
  401841:	push   DWORD PTR [edx+0x40]
  401844:	push   DWORD PTR [edx+0x380]
  40184a:	push   DWORD PTR [edx+0x584]
  401850:	call   0x4015c4
  401855:	add    esp,0xc
  401858:	pop    edx
  401859:	push   edx
  40185a:	mov    ebx,0x0
  40185f:	push   ebx
  401860:	push   0x403034
  401865:	pop    eax
  401866:	call   DWORD PTR cs:[eax]
  401869:	pop    edx
  40186a:	push   edx
  40186b:	mov    edx,0x0
  401870:	push   edx
  401871:	push   0x403064
  401876:	pop    eax
  401877:	call   DWORD PTR cs:[eax]
  40187a:	pop    edx
  40187b:	sub    esp,0xffffffac
  40187e:	mov    ebp,DWORD PTR [esp]
  401881:	add    esp,0x4
  401884:	ret    
  401885:	add    BYTE PTR [eax],al
  401887:	add    BYTE PTR [ebx-0x1374aa01],cl
  40188d:	sub    esp,0x30
  401890:	push   edx
  401891:	push   edi
  401892:	push   DWORD PTR [edx+0x5ac]
  401898:	call   0x4014c8
  40189d:	add    esp,0x8
  4018a0:	pop    edx
  4018a1:	push   edx
  4018a2:	push   0x0
  4018a4:	push   0x403064
  4018a9:	pop    eax
  4018aa:	call   DWORD PTR cs:[eax]
  4018ad:	pop    edx
  4018ae:	push   edx
  4018af:	mov    ebx,0x0
  4018b4:	push   ebx
  4018b5:	push   0x40300c
  4018ba:	pop    eax
  4018bb:	call   DWORD PTR cs:[eax]
  4018be:	pop    edx
  4018bf:	sub    esp,0xffffffd0
  4018c2:	mov    ebp,DWORD PTR [esp]
  4018c5:	add    esp,0x4
  4018c8:	ret    
  4018c9:	add    BYTE PTR [eax],al
  4018cb:	add    BYTE PTR [eax],al
  4018cd:	add    BYTE PTR [eax],al
  4018cf:	add    BYTE PTR [ebx-0x1374aa01],cl
  4018d5:	sub    esp,0x2c
  4018d8:	push   edx
  4018d9:	push   DWORD PTR [edx+0x114]
  4018df:	push   DWORD PTR [edx+0x428]
  4018e5:	call   0x4011f8
  4018ea:	add    esp,0x8
  4018ed:	pop    edx
  4018ee:	push   edx
  4018ef:	push   0x0
  4018f1:	push   0x403084
  4018f6:	pop    eax
  4018f7:	call   DWORD PTR cs:[eax]
  4018fa:	pop    edx
  4018fb:	push   edx
  4018fc:	mov    ecx,0x0
  401901:	push   ecx
  401902:	push   0x40302c
  401907:	pop    eax
  401908:	call   DWORD PTR cs:[eax]
  40190b:	pop    edx
  40190c:	sub    esp,0xffffffd4
  40190f:	mov    ebp,DWORD PTR [esp]
  401912:	add    esp,0x4
  401915:	ret    
  401916:	add    BYTE PTR [eax],al
  401918:	mov    edi,edi
  40191a:	push   ebp
  40191b:	mov    ebp,esp
  40191d:	sub    esp,0x38
  401920:	push   edx
  401921:	push   DWORD PTR [edx+0x3d4]
  401927:	push   DWORD PTR [edx+0x428]
  40192d:	call   0x401ad8
  401932:	add    esp,0x8
  401935:	pop    edx
  401936:	push   edx
  401937:	push   0x403008
  40193c:	pop    eax
  40193d:	call   DWORD PTR cs:[eax]
  401940:	pop    edx
  401941:	push   edx
  401942:	push   0x0
  401944:	push   0x40304c
  401949:	pop    eax
  40194a:	call   DWORD PTR cs:[eax]
  40194d:	pop    edx
  40194e:	sub    esp,0xffffffc8
  401951:	mov    ebp,DWORD PTR [esp]
  401954:	add    esp,0x4
  401957:	ret    
  401958:	mov    edi,edi
  40195a:	push   ebp
  40195b:	mov    ebp,esp
  40195d:	sub    esp,0x3c
  401960:	push   edx
  401961:	push   ebx
  401962:	push   DWORD PTR [edx+0x34]
  401965:	push   edi
  401966:	call   0x4016e8
  40196b:	add    esp,0xc
  40196e:	pop    edx
  40196f:	push   edx
  401970:	mov    ecx,0x0
  401975:	push   ecx
  401976:	push   0x40301c
  40197b:	pop    eax
  40197c:	call   DWORD PTR cs:[eax]
  40197f:	pop    edx
  401980:	push   edx
  401981:	mov    eax,0x0
  401986:	push   eax
  401987:	push   0x40300c
  40198c:	pop    eax
  40198d:	call   DWORD PTR cs:[eax]
  401990:	pop    edx
  401991:	sub    esp,0xffffffc4
  401994:	mov    ebp,DWORD PTR [esp]
  401997:	add    esp,0x4
  40199a:	ret    
  40199b:	add    BYTE PTR [eax],al
  40199d:	add    BYTE PTR [eax],al
  40199f:	add    BYTE PTR [ebx-0x1374aa01],cl
  4019a5:	sub    esp,0x3c
  4019a8:	push   edx
  4019a9:	push   0x0
  4019ab:	push   0x403034
  4019b0:	pop    eax
  4019b1:	call   DWORD PTR cs:[eax]
  4019b4:	pop    edx
  4019b5:	push   edx
  4019b6:	push   DWORD PTR [edx+0x158]
  4019bc:	push   DWORD PTR [edx+0x2c]
  4019bf:	push   esi
  4019c0:	push   DWORD PTR [edx+0x408]
  4019c6:	call   0x401544
  4019cb:	add    esp,0x10
  4019ce:	pop    edx
  4019cf:	push   edx
  4019d0:	push   0x0
  4019d2:	push   0x40306c
  4019d7:	pop    eax
  4019d8:	call   DWORD PTR cs:[eax]
  4019db:	pop    edx
  4019dc:	sub    esp,0xffffffc4
  4019df:	mov    ebp,DWORD PTR [esp]
  4019e2:	add    esp,0x4
  4019e5:	ret    
  4019e6:	add    BYTE PTR [eax],al
  4019e8:	add    BYTE PTR [eax],al
  4019ea:	add    BYTE PTR [eax],al
  4019ec:	mov    edi,edi
  4019ee:	push   ebp
  4019ef:	mov    ebp,esp
  4019f1:	sub    esp,0x2c
  4019f4:	push   edx
  4019f5:	mov    ebx,0x0
  4019fa:	push   ebx
  4019fb:	push   0x40304c
  401a00:	pop    eax
  401a01:	call   DWORD PTR cs:[eax]
  401a04:	pop    edx
  401a05:	push   edx
  401a06:	push   DWORD PTR [edx+0x358]
  401a0c:	push   DWORD PTR [edx+0x4a8]
  401a12:	push   DWORD PTR [edx+0x300]
  401a18:	push   ebx
  401a19:	call   0x401918
  401a1e:	add    esp,0x10
  401a21:	pop    edx
  401a22:	push   edx
  401a23:	mov    edx,0x0
  401a28:	push   edx
  401a29:	push   0x40300c
  401a2e:	pop    eax
  401a2f:	call   DWORD PTR cs:[eax]
  401a32:	pop    edx
  401a33:	sub    esp,0xffffffd4
  401a36:	mov    ebp,DWORD PTR [esp]
  401a39:	add    esp,0x4
  401a3c:	ret    
  401a3d:	add    BYTE PTR [eax],al
  401a3f:	add    BYTE PTR [ebx-0x1374aa01],cl
  401a45:	sub    esp,0x1c
  401a48:	push   edx
  401a49:	mov    esi,0x0
  401a4e:	push   esi
  401a4f:	push   0x40302c
  401a54:	pop    eax
  401a55:	call   DWORD PTR cs:[eax]
  401a58:	pop    edx
  401a59:	push   edx
  401a5a:	push   DWORD PTR [edx+0x4f8]
  401a60:	push   esi
  401a61:	push   edi
  401a62:	call   0x401310
  401a67:	add    esp,0xc
  401a6a:	pop    edx
  401a6b:	push   edx
  401a6c:	push   0x0
  401a6e:	push   0x403064
  401a73:	pop    eax
  401a74:	call   DWORD PTR cs:[eax]
  401a77:	pop    edx
  401a78:	sub    esp,0xffffffe4
  401a7b:	mov    ebp,DWORD PTR [esp]
  401a7e:	add    esp,0x4
  401a81:	ret    
  401a82:	add    BYTE PTR [eax],al
  401a84:	mov    edi,edi
  401a86:	push   ebp
  401a87:	mov    ebp,esp
  401a89:	sub    esp,0x50
  401a8c:	push   edx
  401a8d:	push   eax
  401a8e:	push   DWORD PTR [edx+0x5a0]
  401a94:	push   eax
  401a95:	call   0x4013e8
  401a9a:	add    esp,0xc
  401a9d:	pop    edx
  401a9e:	push   edx
  401a9f:	mov    edi,0x0
  401aa4:	push   edi
  401aa5:	push   0x40302c
  401aaa:	pop    eax
  401aab:	call   DWORD PTR cs:[eax]
  401aae:	pop    edx
  401aaf:	push   edx
  401ab0:	mov    eax,0x0
  401ab5:	push   eax
  401ab6:	push   0x403034
  401abb:	pop    eax
  401abc:	call   DWORD PTR cs:[eax]
  401abf:	pop    edx
  401ac0:	sub    esp,0xffffffb0
  401ac3:	mov    ebp,DWORD PTR [esp]
  401ac6:	add    esp,0x4
  401ac9:	ret    
	...
  401ad6:	add    BYTE PTR [eax],al
  401ad8:	mov    edi,edi
  401ada:	push   ebp
  401adb:	mov    ebp,esp
  401add:	sub    esp,0x28
  401ae0:	push   edx
  401ae1:	push   0x0
  401ae3:	push   0x403064
  401ae8:	pop    eax
  401ae9:	call   DWORD PTR cs:[eax]
  401aec:	pop    edx
  401aed:	push   edx
  401aee:	push   ecx
  401aef:	push   edi
  401af0:	call   0x40165c
  401af5:	add    esp,0x8
  401af8:	pop    edx
  401af9:	push   edx
  401afa:	mov    ebx,0x0
  401aff:	push   ebx
  401b00:	push   0x403064
  401b05:	pop    eax
  401b06:	call   DWORD PTR cs:[eax]
  401b09:	pop    edx
  401b0a:	sub    esp,0xffffffd8
  401b0d:	mov    ebp,DWORD PTR [esp]
  401b10:	add    esp,0x4
  401b13:	ret    
  401b14:	mov    edi,edi
  401b16:	push   ebp
  401b17:	mov    ebp,esp
  401b19:	sub    esp,0x3c
  401b1c:	push   edx
  401b1d:	mov    esi,0x0
  401b22:	push   esi
  401b23:	push   0x40300c
  401b28:	pop    eax
  401b29:	call   DWORD PTR cs:[eax]
  401b2c:	pop    edx
  401b2d:	push   edx
  401b2e:	push   esi
  401b2f:	push   DWORD PTR [edx+0x56c]
  401b35:	push   DWORD PTR [edx+0xe0]
  401b3b:	call   0x4013a0
  401b40:	add    esp,0xc
  401b43:	pop    edx
  401b44:	push   edx
  401b45:	lea    edi,[edx]
  401b47:	push   edi
  401b48:	push   0x403028
  401b4d:	pop    eax
  401b4e:	call   DWORD PTR cs:[eax]
  401b51:	test   eax,eax
  401b53:	jne    0x401b45
  401b55:	pop    edx
  401b56:	sub    esp,0xffffffc4
  401b59:	mov    ebp,DWORD PTR [esp]
  401b5c:	add    esp,0x4
  401b5f:	ret    
  401b60:	add    BYTE PTR [eax],al
  401b62:	add    BYTE PTR [eax],al
  401b64:	mov    edi,edi
  401b66:	push   ebp
  401b67:	mov    ebp,esp
  401b69:	sub    esp,0x24
  401b6c:	push   edx
  401b6d:	push   eax
  401b6e:	push   DWORD PTR [edx+0x1f4]
  401b74:	push   DWORD PTR [edx+0x1dc]
  401b7a:	call   0x4017bc
  401b7f:	add    esp,0xc
  401b82:	pop    edx
  401b83:	push   edx
  401b84:	push   0x403008
  401b89:	pop    eax
  401b8a:	call   DWORD PTR cs:[eax]
  401b8d:	pop    edx
  401b8e:	push   edx
  401b8f:	mov    edx,0x0
  401b94:	push   edx
  401b95:	push   0x403020
  401b9a:	pop    eax
  401b9b:	call   DWORD PTR cs:[eax]
  401b9e:	pop    edx
  401b9f:	sub    esp,0xffffffdc
  401ba2:	mov    ebp,DWORD PTR [esp]
  401ba5:	add    esp,0x4
  401ba8:	ret    
  401ba9:	add    BYTE PTR [eax],al
  401bab:	add    BYTE PTR [ebx-0x1374aa01],cl
  401bb1:	sub    esp,0x34
  401bb4:	push   edx
  401bb5:	push   0x0
  401bb7:	push   0x40301c
  401bbc:	pop    eax
  401bbd:	call   DWORD PTR cs:[eax]
  401bc0:	pop    edx
  401bc1:	push   edx
  401bc2:	push   esi
  401bc3:	push   edi
  401bc4:	call   0x4011b4
  401bc9:	add    esp,0x8
  401bcc:	pop    edx
  401bcd:	push   edx
  401bce:	mov    edx,0x0
  401bd3:	push   edx
  401bd4:	push   0x40300c
  401bd9:	pop    eax
  401bda:	call   DWORD PTR cs:[eax]
  401bdd:	pop    edx
  401bde:	sub    esp,0xffffffcc
  401be1:	mov    ebp,DWORD PTR [esp]
  401be4:	add    esp,0x4
  401be7:	ret    
  401be8:	mov    edi,edi
  401bea:	push   ebp
  401beb:	mov    ebp,esp
  401bed:	sub    esp,0x54
  401bf0:	push   edx
  401bf1:	push   eax
  401bf2:	push   DWORD PTR [edx+0x68]
  401bf5:	push   ecx
  401bf6:	call   0x401774
  401bfb:	add    esp,0xc
  401bfe:	pop    edx
  401bff:	push   edx
  401c00:	mov    ebx,0x0
  401c05:	push   ebx
  401c06:	push   0x40304c
  401c0b:	pop    eax
  401c0c:	call   DWORD PTR cs:[eax]
  401c0f:	pop    edx
  401c10:	push   edx
  401c11:	mov    edx,0x0
  401c16:	push   edx
  401c17:	push   0x40306c
  401c1c:	pop    eax
  401c1d:	call   DWORD PTR cs:[eax]
  401c20:	pop    edx
  401c21:	sub    esp,0xffffffac
  401c24:	mov    ebp,DWORD PTR [esp]
  401c27:	add    esp,0x4
  401c2a:	ret    
  401c2b:	add    BYTE PTR [ebx-0x1374aa01],cl
  401c31:	sub    esp,0x2c
  401c34:	push   edx
  401c35:	push   0x0
  401c37:	push   0x403084
  401c3c:	pop    eax
  401c3d:	call   DWORD PTR cs:[eax]
  401c40:	pop    edx
  401c41:	push   edx
  401c42:	push   ebx
  401c43:	push   ecx
  401c44:	push   DWORD PTR [edx+0xa0]
  401c4a:	push   DWORD PTR [edx+0x510]
  401c50:	call   0x4019ec
  401c55:	add    esp,0x10
  401c58:	pop    edx
  401c59:	push   edx
  401c5a:	mov    ebx,0x0
  401c5f:	push   ebx
  401c60:	push   0x40302c
  401c65:	pop    eax
  401c66:	call   DWORD PTR cs:[eax]
  401c69:	pop    edx
  401c6a:	sub    esp,0xffffffd4
  401c6d:	mov    ebp,DWORD PTR [esp]
  401c70:	add    esp,0x4
  401c73:	ret    
  401c74:	mov    edi,edi
  401c76:	push   ebp
  401c77:	mov    ebp,esp
  401c79:	sub    esp,0x48
  401c7c:	push   edx
  401c7d:	push   DWORD PTR [edx+0x250]
  401c83:	push   DWORD PTR [edx+0x300]
  401c89:	call   0x401008
  401c8e:	add    esp,0x8
  401c91:	pop    edx
  401c92:	push   edx
  401c93:	push   0x0
  401c95:	push   0x40301c
  401c9a:	pop    eax
  401c9b:	call   DWORD PTR cs:[eax]
  401c9e:	pop    edx
  401c9f:	push   edx
  401ca0:	push   0x0
  401ca2:	push   0x403024
  401ca7:	pop    eax
  401ca8:	call   DWORD PTR cs:[eax]
  401cab:	pop    edx
  401cac:	sub    esp,0xffffffb8
  401caf:	mov    ebp,DWORD PTR [esp]
  401cb2:	add    esp,0x4
  401cb5:	ret    
	...
  401cc6:	add    BYTE PTR [eax],al
  401cc8:	mov    edi,edi
  401cca:	push   ebp
  401ccb:	mov    ebp,esp
  401ccd:	sub    esp,0x54
  401cd0:	push   edx
  401cd1:	mov    edi,0x0
  401cd6:	push   edi
  401cd7:	push   0x403024
  401cdc:	pop    eax
  401cdd:	call   DWORD PTR cs:[eax]
  401ce0:	pop    edx
  401ce1:	push   edx
  401ce2:	push   DWORD PTR [edx+0x414]
  401ce8:	push   ebx
  401ce9:	call   0x401580
  401cee:	add    esp,0x8
  401cf1:	pop    edx
  401cf2:	push   edx
  401cf3:	push   0x0
  401cf5:	push   0x403084
  401cfa:	pop    eax
  401cfb:	call   DWORD PTR cs:[eax]
  401cfe:	pop    edx
  401cff:	sub    esp,0xffffffac
  401d02:	mov    ebp,DWORD PTR [esp]
  401d05:	add    esp,0x4
  401d08:	ret    
  401d09:	add    BYTE PTR [eax],al
  401d0b:	add    BYTE PTR [eax],al
  401d0d:	add    BYTE PTR [eax],al
  401d0f:	add    BYTE PTR [ebx-0x1374aa01],cl
  401d15:	sub    esp,0x20
  401d18:	push   edx
  401d19:	push   DWORD PTR [edx+0xf4]
  401d1f:	push   DWORD PTR [edx+0x1e8]
  401d25:	call   0x401614
  401d2a:	add    esp,0x8
  401d2d:	pop    edx
  401d2e:	push   edx
  401d2f:	push   0x0
  401d31:	push   0x40301c
  401d36:	pop    eax
  401d37:	call   DWORD PTR cs:[eax]
  401d3a:	pop    edx
  401d3b:	push   edx
  401d3c:	push   0x0
  401d3e:	push   0x40302c
  401d43:	pop    eax
  401d44:	call   DWORD PTR cs:[eax]
  401d47:	pop    edx
  401d48:	sub    esp,0xffffffe0
  401d4b:	mov    ebp,DWORD PTR [esp]
  401d4e:	add    esp,0x4
  401d51:	ret    
	...
  401d5a:	add    BYTE PTR [eax],al
  401d5c:	mov    edi,edi
  401d5e:	push   ebp
  401d5f:	mov    ebp,esp
  401d61:	sub    esp,0x28
  401d64:	push   edx
  401d65:	mov    ecx,0x6b0
  401d6a:	push   ecx
  401d6b:	mov    edx,0x6b0
  401d70:	push   edx
  401d71:	push   0x40000
  401d76:	push   0x403048
  401d7b:	pop    ecx
  401d7c:	push   DWORD PTR [ecx]
  401d7e:	sub    DWORD PTR [esp],0x2
  401d82:	push   0x403004
  401d87:	pop    ecx
  401d88:	pop    DWORD PTR [ecx]
  401d8a:	push   0x403004
  401d8f:	pop    eax
  401d90:	call   DWORD PTR cs:[eax]
  401d93:	xchg   DWORD PTR [esp],eax
  401d96:	mov    edx,eax
  401d98:	pop    ebx
  401d99:	mov    DWORD PTR [edx+0x5c8],ebx
  401d9f:	mov    ecx,DWORD PTR [edx+0x5c8]
  401da5:	mov    edi,ecx
  401da7:	sub    eax,eax
  401da9:	dec    eax
  401daa:	and    eax,0x401e9d
  401daf:	mov    ebx,DWORD PTR [eax]
  401db1:	mov    DWORD PTR [edi],ebx
  401db3:	add    eax,0x3
  401db6:	add    edi,0x3
  401db9:	mov    ebx,0x6a719112
  401dbe:	push   0x6b0
  401dc3:	pop    ecx
  401dc4:	mov    esi,ebx
  401dc6:	xor    esi,DWORD PTR [eax]
  401dc8:	sub    esi,0x1
  401dcb:	mov    DWORD PTR [edi],esi
  401dcd:	push   DWORD PTR [edi]
  401dcf:	mov    ebx,0xfffffffc
  401dd4:	sub    eax,ebx
  401dd6:	sub    edi,ebx
  401dd8:	pop    ebx
  401dd9:	bswap  ebx
  401ddb:	sub    ecx,0x4
  401dde:	cmp    ecx,0x0
  401de1:	jne    0x401dc4
  401de3:	push   edx
  401de4:	push   0x0
  401de6:	push   0x403020
  401deb:	pop    eax
  401dec:	call   DWORD PTR cs:[eax]
  401def:	pop    edx
  401df0:	sub    esp,0xffffffd8
  401df3:	pop    ebp
  401df4:	ret    
	...
  401dfd:	add    BYTE PTR [eax],al
  401dff:	add    BYTE PTR [ebx-0x1374aa01],cl
  401e05:	sub    esp,0x34
  401e08:	push   edx
  401e09:	push   0x0
  401e0b:	push   0x403038
  401e10:	pop    eax
  401e11:	call   DWORD PTR cs:[eax]
  401e14:	pop    edx
  401e15:	push   edx
  401e16:	push   DWORD PTR [edx+0x44c]
  401e1c:	push   esi
  401e1d:	call   0x401be8
  401e22:	add    esp,0x8
  401e25:	pop    edx
  401e26:	push   edx
  401e27:	push   0x0
  401e29:	push   0x403000
  401e2e:	pop    eax
  401e2f:	call   DWORD PTR cs:[eax]
  401e32:	pop    edx
  401e33:	sub    esp,0xffffffcc
  401e36:	mov    ebp,DWORD PTR [esp]
  401e39:	add    esp,0x4
  401e3c:	ret    
  401e3d:	add    BYTE PTR [eax],al
  401e3f:	add    BYTE PTR [ebx-0x1374aa01],cl
  401e45:	sub    esp,0x1c
  401e48:	push   edx
  401e49:	push   0x40303c
  401e4e:	pop    eax
  401e4f:	call   DWORD PTR cs:[eax]
  401e52:	pop    edx
  401e53:	push   edx
  401e54:	push   DWORD PTR [edx+0x3c8]
  401e5a:	push   DWORD PTR [edx+0x510]
  401e60:	call   0x401e00
  401e65:	add    esp,0x8
  401e68:	pop    edx
  401e69:	push   edx
  401e6a:	push   0x0
  401e6c:	push   0x40300c
  401e71:	pop    eax
  401e72:	call   DWORD PTR cs:[eax]
  401e75:	pop    edx
  401e76:	sub    esp,0xffffffe4
  401e79:	mov    ebp,DWORD PTR [esp]
  401e7c:	add    esp,0x4
  401e7f:	ret    
  401e80:	add    BYTE PTR [eax],al
  401e82:	add    BYTE PTR [eax],al
  401e84:	mov    eax,0x491857c8
  401e89:	xlat   BYTE PTR ds:[ebx]
  401e8a:	retf   
  401e8b:	pop    ebx
  401e8c:	repnz cmp eax,0x40a46910
  401e92:	xchg   esp,eax
  401e93:	mov    fs,WORD PTR [eax]
  401e95:	cmp    eax,0xcd12db0c
  401e9a:	add    al,0x16
  401e9c:	xchg   ebx,eax
  401e9d:	bswap  eax
  401e9f:	std    
  401ea0:	out    dx,eax
  401ea1:	sahf   
  401ea2:	mov    ecx,0xc7c70097
  401ea7:	add    DWORD PTR [eax],eax
  401ea9:	mov    edi,0xc6e30001
  401eaf:	jg     0x401ef2
  401eb1:	retf   0xa27e
  401eb4:	mov    ebp,0x310580a8
  401eb9:	imul   esi,eax,0xffffffe2
  401ebc:	add    DWORD PTR ds:0x251691a3,ecx
  401ec2:	gs ins BYTE PTR es:[edi],dx
  401ec4:	pop    eax
  401ec5:	push   edi
  401ec6:	inc    eax
  401ec7:	push   ss
  401ec8:	or     DWORD PTR [edx+0x32],eax
  401ecb:	imul   ecx,DWORD PTR [ecx],0xffffffff
  401ece:	mov    edx,0xbcd552e7
  401ed3:	ins    BYTE PTR es:[edi],dx
  401ed4:	mov    esi,0x81d8533b
  401ed9:	push   esp
  401eda:	js     0x401ed3
  401edc:	pop    edx
  401edd:	call   0xf444a4d2
  401ee2:	mov    ch,0xa0
  401ee4:	jge    0x401eca
  401ee6:	adc    BYTE PTR [eax],al
  401ee8:	add    DWORD PTR [eax],edx
  401eea:	adc    al,0x1d
  401eec:	sbb    ebp,DWORD PTR [edi+0x468a0000]
  401ef2:	(bad)  
  401ef3:	adc    BYTE PTR [esi+edx*4],dl
  401ef6:	and    eax,0x60f2ae1
  401efb:	call   0x3110:0x20092406
  401f02:	sbb    edx,DWORD PTR [edi+0x76dd5ba9]
  401f08:	ins    DWORD PTR es:[edi],dx
  401f09:	mov    DWORD PTR [eax+0x13],esp
  401f0c:	xor    eax,0x2102650d
  401f11:	add    BYTE PTR [edx+eax*1],al
  401f14:	and    eax,0x5c1d9a32
  401f19:	jbe    0x401f30
  401f1b:	push   eax
  401f1c:	add    BYTE PTR [edx+0x702b6291],0xc4
  401f23:	xchg   ebx,eax
  401f24:	adc    DWORD PTR [eax],eax
  401f26:	add    al,ah
  401f28:	cmps   DWORD PTR ds:[esi],DWORD PTR es:[edi]
  401f29:	push   0xff6b6a00
  401f2e:	push   ebp
  401f2f:	push   ss
  401f30:	pushf  
  401f31:	lods   eax,DWORD PTR ds:[esi]
  401f32:	cli    
  401f33:	cdq    
  401f34:	cwde   
  401f35:	add    eax,0xb5dedbf8
  401f3a:	aam    0xf9
  401f3c:	stc    
  401f3d:	aam    0xf
  401f3f:	sub    eax,0xcffb9a7
  401f44:	push   esi
  401f45:	ret    
  401f46:	call   0xc428acd8
  401f4b:	stc    
  401f4c:	add    al,BYTE PTR [edi-0x238cdecc]
  401f52:	jl     0x401fae
  401f54:	add    eax,0x3f6f00fb
  401f59:	call   0x6ab2aa5e
  401f5e:	add    BYTE PTR [edi+0x6b],ch
  401f61:	call   FWORD PTR [edi]
  401f63:	pushf  
  401f64:	cmp    al,0x8a
  401f66:	stos   BYTE PTR es:[edi],al
  401f67:	sub    BYTE PTR [eax+ebx*1+0x3c6b3d97],ah
  401f6e:	adc    eax,0x47cca74
  401f73:	push   ecx
  401f74:	push   es
  401f75:	pop    es
  401f76:	(bad)  [ecx+0x78]
  401f79:	cmps   DWORD PTR ds:[esi],DWORD PTR es:[edi]
  401f7a:	add    BYTE PTR [ecx-0x364fb057],ch
  401f80:	loope  0x401f6a
  401f82:	sbb    dh,bl
  401f84:	int3   
  401f85:	cmp    al,0x8d
  401f87:	pop    es
  401f88:	add    ebp,ebx
  401f8a:	retf   
  401f8b:	push   es
  401f8c:	push   edi
  401f8d:	test   DWORD PTR [esi+0x73],0x22581962
  401f94:	inc    ecx
  401f95:	dec    ecx
  401f96:	mov    dl,0x4e
  401f98:	ins    DWORD PTR es:[edi],dx
  401f99:	loope  0x401fb0
  401f9b:	sbb    al,0x69
  401f9d:	xor    al,0x6a
  401f9f:	xor    al,0x0
  401fa1:	jno    0x402003
  401fa3:	push   ebx
  401fa4:	push   ebx
  401fa5:	push   es
  401fa6:	pusha  
  401fa7:	je     0x401f9e
  401fa9:	jl     0x401fb0
  401fab:	stos   DWORD PTR es:[edi],eax
  401fac:	aas    
  401fad:	push   esp
  401fae:	cmp    ebp,DWORD PTR [esi]
  401fb0:	push   ebx
  401fb1:	add    DWORD PTR [eax],ecx
  401fb3:	ds aas 
  401fb5:	push   cs
  401fb6:	add    ch,BYTE PTR [esp+eax*1+0x77e1cddc]
  401fbd:	cmp    al,0x2f
  401fbf:	or     BYTE PTR [esi-0xe],bl
  401fc2:	jmp    DWORD PTR [ebx-0x49a93d2c]
  401fc8:	je     0x401f58
  401fca:	mov    bh,0x93
  401fcc:	xchg   esp,eax
  401fcd:	lods   eax,DWORD PTR cs:[esi]
  401fcf:	xor    esi,DWORD PTR [edi-0x577bc9f]
  401fd5:	sbb    esi,esi
  401fd7:	dec    BYTE PTR [esi-0x29]
  401fda:	test   BYTE PTR [edi+0x72a00e52],bh
  401fe0:	ss dec ebx
  401fe2:	ret    0x8e1c
  401fe5:	xchg   edi,edi
  401fe7:	jnp    0x401fbc
  401fe9:	out    0xc4,eax
  401feb:	test   DWORD PTR [ecx],eax
  401fed:	(bad)  
  401fee:	pop    ebx
  401fef:	arpl   bx,ax
  401ff1:	in     al,dx
  401ff2:	arpl   WORD PTR [ebp+0x76],si
  401ff5:	call   0x14bb641e
  401ffa:	push   DWORD PTR [ebp+0x66]
  401ffd:	je     0x40206a
  401fff:	jnp    0x402009
  402001:	test   al,dl
  402003:	inc    eax
  402004:	fmul   QWORD PTR [edi+0x50253a9]
  40200a:	test   ecx,ebx
  40200c:	cmp    DWORD PTR [ebp+0x6],edx
  40200f:	push   es
  402010:	push   edi
  402011:	pop    es
  402012:	or     BYTE PTR [ebx],dh
  402014:	ins    DWORD PTR es:[edi],dx
  402015:	int3   
  402016:	add    cl,BYTE PTR [eax+ebx*2]
  402019:	or     BYTE PTR [ebx-0x8],cl
  40201c:	aas    
  40201d:	das    
  40201e:	mov    al,ds:0xc5a758ff
  402023:	jo     0x402070
  402025:	dec    ecx
  402026:	mov    edx,0x29e958bd
  40202b:	mov    DWORD PTR [ecx],0x1e88ae9
  402031:	xor    DWORD PTR [eax+0x186968],0x28760000
  40203b:	push   esi
  40203c:	ficom  DWORD PTR [ebx-0x78e6f002]
  402042:	dec    DWORD PTR [ebx-0x220c9fff]
  402048:	add    al,0xff
  40204a:	add    BYTE PTR fs:[ecx-0x75],bl
  40204e:	inc    eax
  40204f:	cmp    al,0x80
  402051:	add    BYTE PTR [edi+0x34146061],al
  402057:	(bad)
  40205b:	scas   eax,DWORD PTR es:[edi]
  40205c:	jnp    0x402045
  40205e:	and    al,0x88
  402060:	dec    ecx
  402061:	sbb    BYTE PTR [edi-0x3477a706],al
  402067:	shl    al,0xef
  40206a:	mov    bl,BYTE PTR [eax+0x6d]
  40206d:	out    dx,eax
  40206e:	out    dx,eax
  40206f:	cmp    DWORD PTR [esi-0x9],edx
  402072:	inc    esi
  402073:	imul   edi,DWORD PTR [eax+0x44],0xa1190ea1
  40207a:	fs xchg edx,ecx
  40207d:	xor    BYTE PTR [ecx+0x65767178],cl
  402083:	push   esp
  402084:	std    
  402085:	jbe    0x402084
  402087:	or     BYTE PTR [ecx],al
  402089:	pop    edi
  40208a:	jmp    0x7e1c:0x79bdd2b0
  402091:	je     0x40202f
  402093:	mov    dh,0x3a
  402095:	call   0x791a59ea
  40209a:	pop    eax
  40209b:	add    al,0x3
  40209d:	pop    eax
  40209e:	js     0x402094
  4020a0:	mov    eax,DWORD PTR gs:[esi+eiz*1]
  4020a4:	in     al,dx
  4020a5:	add    BYTE PTR [edi+0x424010f],ch
  4020ab:	cmp    BYTE PTR [edx+0x64500424],cl
  4020b1:	(bad)  
  4020b2:	out    0x14,eax
  4020b4:	in     al,dx
  4020b5:	xor    bl,al
  4020b7:	inc    ebp
  4020b8:	dec    ebx
  4020b9:	mov    BYTE PTR [ebp+0xb],al
  4020bc:	xor    DWORD PTR [esi+0x7472b98b],0xf8f70373
  4020c6:	or     bh,dl
  4020c8:	mov    al,BYTE PTR [ecx-0x70916601]
  4020ce:	test   al,0x7a
  4020d0:	test   eax,0xb6c37e53
  4020d5:	adc    DWORD PTR [ebx-0x56],0x235457a9
  4020dc:	fisub  DWORD PTR [esi]
  4020de:	adc    BYTE PTR [esi-0x9],dl
  4020e1:	fwait
  4020e2:	mov    BYTE PTR [esi],ah
  4020e4:	sub    edi,DWORD PTR [esi]
  4020e6:	dec    BYTE PTR [eax]
  4020e8:	xlat   BYTE PTR ds:[ebx]
  4020e9:	or     BYTE PTR [ebx+0x4b],0x91
  4020ed:	fisub  DWORD PTR [edi+0x543f7f]
  4020f3:	or     DWORD PTR [edi+0x7],edx
  4020f6:	or     BYTE PTR [edx+ebx*8],bh
  4020f9:	or     dl,al
  4020fb:	aas    
  4020fc:	push   ecx
  4020fd:	adc    eax,0x657cd8d
  402102:	movs   BYTE PTR es:[edi],BYTE PTR ds:[esi]
  402103:	xchg   ebx,eax
  402104:	pop    ebx
  402105:	cdq    
  402106:	or     al,dl
  402108:	mov    ch,0x9e
  40210a:	add    al,0x57
  40210c:	add    DWORD PTR [ecx+0xd70019b],ebp
  402112:	inc    esp
  402113:	add    eax,DWORD PTR [eax]
  402115:	popa   
  402116:	jb     0x402113
  402118:	(bad)  
  402119:	jg     0x402190
  40211b:	std    
  40211c:	mov    dh,BYTE PTR [ebx+ebp*2+0x0]
  402120:	test   eax,0xa9f8f1c
  402125:	hlt    
  402126:	push   esi
  402127:	or     eax,0xb10f0a02
  40212c:	or     DWORD PTR [edi-0x29aaaaff],ebp
  402132:	cmp    DWORD PTR [ebx-0x8],eax
  402135:	dec    ecx
  402136:	loop   0x4020d3
  402138:	mov    ds:0x78605cea,al
  40213d:	sar    ch,1
  40213f:	pop    esp
  402140:	adc    BYTE PTR [eax],ah
  402142:	aaa    
  402143:	ja     0x40219b
  402145:	cmp    edx,edx
  402147:	mov    esi,0x590f8494
  40214c:	add    al,0xa4
  40214e:	add    BYTE PTR [eax],al
  402150:	add    DWORD PTR [ebx-0x495ed1ee],ecx
  402156:	mov    eax,DWORD PTR [ebp-0x7e7bf08e]
  40215c:	add    BYTE PTR [edi+ecx*1-0x7452080b],0xf8
  402164:	cld    
  402165:	jo     0x402164
  402167:	js     0x4021b7
  402169:	add    BYTE PTR [edx+0x543b0351],ch
  40216f:	lods   al,BYTE PTR ds:[esi]
  402170:	imul   edx,DWORD PTR [edx+ebp*2],0xf8835850
  402177:	add    al,0x55
  402179:	add    BYTE PTR [edi+0x6a14693f],0x50
  402180:	pop    eax
  402181:	adc    DWORD PTR [esp],0x57811425
  402188:	add    BYTE PTR [esi+0x1c],dl
  40218b:	jmp    FWORD PTR [ecx-0x859f100]
  402191:	jno    0x402157
  402193:	add    al,0xdd
  402195:	add    dl,bh
  402197:	inc    esp
  402198:	ins    DWORD PTR es:[edi],dx
  402199:	cmp    ah,cl
  40219b:	mov    eax,0xe54462f2
  4021a0:	int3   
  4021a1:	lods   eax,DWORD PTR ds:[esi]
  4021a2:	push   esi
  4021a3:	mov    ah,0x7d
  4021a5:	adc    eax,0xff0ea6ff
  4021aa:	and    al,0x1c
  4021ac:	sbb    al,0xe3
  4021ae:	out    dx,al
  4021af:	pop    ecx
  4021b0:	xlat   BYTE PTR ds:[ebx]
  4021b1:	stos   BYTE PTR es:[edi],al
  4021b2:	mov    BYTE PTR [ebx],0x56
  4021b5:	jbe    0x4021cb
  4021b7:	jb     0x402187
  4021b9:	cmp    BYTE PTR [edx+0x41],dl
  4021bc:	adc    DWORD PTR [eax],eax
  4021be:	aas    
  4021bf:	mov    bl,0x6a
  4021c1:	push   ebx
  4021c2:	push   eax
  4021c3:	dec    esi
  4021c5:	cmp    BYTE PTR [eax+edi*8],al
  4021c8:	adc    DWORD PTR [eax],eax
  4021ca:	aas    
  4021cb:	mov    cl,0x84
  4021cd:	jae    0x4021cf
  4021cf:	adc    BYTE PTR [ecx],dl
  4021d1:	add    bl,bl
  4021d3:	push   ecx
  4021d4:	pop    eax
  4021d5:	add    BYTE PTR [ebp+0xc],dl
  4021d8:	push   edi
  4021d9:	or     al,0xa7
  4021db:	push   esp
  4021dc:	ficom  WORD PTR [ecx-0x491c24d4]
  4021e2:	test   eax,0x21cde36e
  4021e7:	pushf  
  4021e8:	jae    0x4021c0
  4021ea:	scas   al,BYTE PTR es:[edi]
  4021eb:	les    ecx,FWORD PTR [edi-0x15]
  4021ee:	mov    edi,0xe89b497e
  4021f3:	mov    eax,DWORD PTR [ecx]
  4021f5:	call   0xec3f68f5
  4021fa:	push   edx
  4021fb:	pop    ds
  4021fc:	push   ds
  4021fd:	mov    ecx,0xff0a17ff
  402202:	(bad)  
  402203:	jmp    FWORD PTR [eax+0x1e1f846]
  402209:	pop    es
  40220a:	push   ecx
  40220b:	adc    dh,0xe8
  40220e:	add    BYTE PTR [edx+ebx*2-0x6124348c],cl
  402215:	cmp    eax,0xe801d08b
  40221a:	into   
  40221b:	inc    esi
  40221c:	inc    edi
  40221e:	fs (bad) 
  402220:	jb     0x402263
  402222:	pop    ss
  402223:	inc    ecx
  402224:	mov    esi,0xf2bfcae8
  402229:	scas   eax,DWORD PTR es:[edi]
  40222a:	ds aaa 
  40222c:	rol    BYTE PTR [eax],0x54
  40222f:	in     al,0x2a
  402231:	add    eax,0x808923c5
  402236:	sar    DWORD PTR [eax-0x79],0x98
  40223a:	cvtdq2ps xmm1,xmm3
  40223d:	dec    esi
  40223e:	sub    al,0xf2
  402240:	dec    eax
  402241:	add    DWORD PTR [eax],ebx
  402243:	mov    al,0xbe
  402245:	stc    
  402246:	int3   
  402247:	inc    eax
  402248:	or     edi,DWORD PTR [ecx-0x8123dc]
  40224e:	(bad)  
  40224f:	(bad)  
  402250:	out    dx,eax
  402251:	dec    eax
  402252:	repz ret 
  402254:	or     DWORD PTR [ebp+0xe],ebx
  402257:	pop    es
  402258:	or     DWORD PTR [ecx-0x9149af],edi
  40225e:	(bad)  
  40225f:	jmp    DWORD PTR [ebp-0x857fe9]
  402265:	jg     0x4022c9
  402267:	sub    eax,0x3c9e9551
  40226c:	xchg   ecx,eax
  40226d:	mov    al,ds:0xc8a739f4
  402272:	rcl    DWORD PTR [ecx+0x1],0x48
  402276:	push   esp
  402277:	mov    DWORD PTR [edx+0x1004876],ecx
  40227d:	dec    eax
  40227e:	jbe    0x402211
  402280:	xchg   edx,eax
  402281:	push   esp
  402282:	dec    eax
  402283:	add    BYTE PTR [ecx],al
  402285:	dec    eax
  402286:	push   esp
  402287:	cdq    
  402288:	call   0x7048:0x1004870
  40228f:	mov    eax,ds:0x4834a2
  402294:	add    DWORD PTR [eax+0x34],ecx
  402297:	test   eax,0x4870aa
  40229c:	add    DWORD PTR [eax+0x70],ecx
  40229f:	mov    cl,0xb2
  4022a1:	xor    al,0x48
  4022a3:	add    BYTE PTR [ecx],al
  4022a5:	dec    eax
  4022a6:	xor    al,0xb9
  4022a8:	mov    WORD PTR [ebp-0x255d3cef],?
  4022ae:	mov    esp,0x91094dc7
  4022b3:	mov    al,bh
  4022b5:	adc    dh,BYTE PTR [eax+eax*1-0x74]
  4022b9:	jge    0x40230f
  4022bb:	mov    al,BYTE PTR [ebp+0x42207b21]
  4022c1:	(bad)  
  4022c2:	je     0x4022c3
  4022c4:	add    DWORD PTR [ecx+0x3b],esp
  4022c7:	mov    BYTE PTR [eax-0x6b],ah
  4022ca:	pop    ebp
  4022cb:	mov    edx,DWORD PTR [edx-0x49]
  4022ce:	and    BYTE PTR [ebx-0x7724cf40],dh
  4022d4:	add    DWORD PTR [eax],edi
  4022d6:	inc    ebp
  4022d7:	mov    ecx,DWORD PTR ds:0xa9af3b00
  4022dd:	adc    ebx,DWORD PTR [ecx+0x5c]
  4022e0:	fsub   QWORD PTR [ecx-0x34b20e4d]
  4022e6:	clc    
  4022e7:	mov    eax,DWORD PTR [ecx]
  4022e9:	dec    eax
  4022ea:	mov    cl,0xac
  4022ec:	popa   
  4022ed:	test   eax,0x8776f8c3
  4022f2:	popf   
  4022f3:	and    BYTE PTR ds:0xc6e90cbd,al
  4022f9:	sbb    BYTE PTR [eax],al
  4022fb:	add    BYTE PTR [ecx],al
  4022fd:	mov    ebp,DWORD PTR [eax-0x73]
  402300:	jle    0x40231a
  402302:	mov    eax,DWORD PTR [eax]
  402304:	or     eax,0xa9ae3b00
  402309:	adc    ecx,DWORD PTR [ebp+0x4102b500]
  40230f:	add    eax,0x4004cedc
  402314:	or     al,0x2e
  402316:	stos   DWORD PTR es:[edi],eax
  402317:	sub    bh,BYTE PTR [eax-0x6f0c5a9c]
  40231d:	inc    eax
  40231e:	sub    al,0x79
  402320:	movs   DWORD PTR es:[edi],DWORD PTR ds:[esi]
  402321:	dec    esp
  402322:	shl    DWORD PTR [ebx-0x33],0x83
  402326:	pusha  
  402327:	ret    
  402328:	imul   esp,DWORD PTR [eax+eax*1],0xd2310120
  40232f:	add    ch,BYTE PTR [ebx-0x64]
  402332:	cmp    edi,edi
  402334:	test   eax,0x8dd8e114
  402339:	fsub   st,st(3)
  40233b:	add    BYTE PTR [eax+0x74],ah
  40233e:	pop    ss
  40233f:	jo     0x40237a
  402341:	inc    edi
  402342:	retf   
  402343:	or     BYTE PTR [eax+0x11cc3c0],dh
  402349:	rol    BYTE PTR ds:0x4684b54b,0x54
  402350:	add    BYTE PTR [ecx-0x6a41b3ac],bh
  402356:	mov    dh,BYTE PTR [esi-0x626a754f]
  40235c:	call   0x4d24:0x351db91
  402363:	cmc    
  402364:	push   ecx
  402365:	xchg   ebp,eax
  402366:	popa   
  402367:	ret    
  402368:	mov    ds:0xf25449ea,al
  40236d:	cmps   DWORD PTR ds:[esi],DWORD PTR es:[edi]
  40236e:	sbb    cl,BYTE PTR [edx-0x33861654]
  402374:	and    al,0x0
  402376:	xchg   dh,al
  402378:	std    
  402379:	cmps   BYTE PTR ds:[esi],BYTE PTR es:[edi]
  40237a:	mov    ebx,DWORD PTR [eax+esi*2]
  40237d:	add    DWORD PTR ds:0x6130d425,ebp
  402383:	xchg   BYTE PTR [esp+edx*1+0x50],al
  402387:	add    cl,dh
  402389:	sub    DWORD PTR [esi],esp
  40238b:	jp     0x40234c
  40238d:	push   edx
  40238e:	cmp    al,0x46
  402390:	jmp    0x1442480
  402395:	pop    edx
  402396:	call   0x723c17b3
  40239b:	enter  0x5ef4,0xa0
  40239f:	jbe    0x40241c
  4023a1:	pop    ebx
  4023a2:	add    BYTE PTR [edi+0x58],ah
  4023a5:	or     BYTE PTR [edi+0x26],bl
  4023a8:	gs add al,bh
  4023ab:	retf   0x88bc
  4023ae:	icebp  
  4023af:	sbb    eax,0xb63e6540
  4023b4:	cdq    
  4023b5:	cwde   
  4023b6:	dec    ebx
  4023b7:	out    0xed,al
  4023b9:	popa   
  4023ba:	dec    edx
  4023bb:	cmp    esp,DWORD PTR [ebp+0x16f8a81]
  4023c1:	push   0x741bab60
  4023c6:	or     BYTE PTR cs:0x12040743,cl
  4023cd:	daa    
  4023ce:	xchg   edx,eax
  4023cf:	cmp    eax,0x16947a50
  4023d4:	jl     0x40236a
  4023d6:	jp     0x402429
  4023d8:	push   esp
  4023d9:	jp     0x40236f
  4023db:	jl     0x402417
  4023dd:	stos   BYTE PTR es:[edi],al
  4023de:	test   DWORD PTR [eax+0x2],ebp
  4023e1:	outs   dx,BYTE PTR ds:[esi]
  4023e2:	push   ds
  4023e3:	sub    ecx,DWORD PTR [edi]
  4023e5:	adc    bl,BYTE PTR [ecx]
  4023e7:	sbb    DWORD PTR [ebx],eax
  4023e9:	and    esi,DWORD PTR [esi]
  4023eb:	xchg   edi,eax
  4023ec:	test   eax,0xc9b6d758
  4023f1:	or     al,bh
  4023f3:	add    eax,0x66cb9a05
  4023f8:	bound  edx,QWORD PTR [esi]
  4023fa:	xchg   ebp,eax
  4023fb:	add    DWORD PTR [eax-0x59],ebx
  4023fe:	push   es
  4023ff:	push   ebx
  402400:	add    eax,0xbf5a5f3a
  402405:	and    DWORD PTR [edx+0x50],ebp
  402408:	add    DWORD PTR [ebx-0x45933e6],ecx
  40240e:	cdq    
  40240f:	add    BYTE PTR [ecx],al
  402411:	adc    ch,BYTE PTR [ebp-0x5b66a27a]
  402417:	inc    edi
  402418:	retf   
  402419:	bound  ebx,QWORD PTR [eax-0x2c]
  40241c:	repnz push edx
  40241e:	jbe    0x402403
  402420:	ret    
  402421:	call   0x1b4f278
  402426:	cmps   DWORD PTR ds:[esi],DWORD PTR es:[edi]
  402427:	call   FWORD PTR [eax-0x59]
  40242a:	sub    DWORD PTR [edi],eax
  40242c:	leave  
  40242d:	loop   0x4023ca
  40242f:	push   esp
  402430:	pop    eax
  402431:	adc    dh,BYTE PTR [esp+eiz*8]
  402434:	ja     0x40248b
  402436:	sar    bh,1
  402438:	pop    esi
  402439:	lea    eax,[ebp-0x12]
  40243c:	hlt    
  40243d:	test   DWORD PTR [ecx-0x2fdf332c],ecx
  402443:	ficomp WORD PTR [eax+edx*1+0x24]
  402447:	inc    esp
  402448:	add    DWORD PTR [eax],eax
  40244a:	add    BYTE PTR [eax+0x69],ch
  40244d:	add    BYTE PTR [eax],al
  40244f:	add    ah,al
  402451:	xor    si,si
  402454:	xchg   ecx,eax
  402455:	mov    DWORD PTR [ebx],ebp
  402457:	cdq    
  402458:	cmp    eax,0xe255dce0
  40245d:	adc    ah,BYTE PTR [ebp+0x640a6ee7]
  402463:	rol    BYTE PTR [ecx],1
  402465:	sti    
  402466:	out    dx,eax
  402467:	arpl   dx,dx
  402469:	adc    ebp,DWORD PTR [edi-0x1]
  40246c:	mov    DWORD PTR [ebp+0x75],esi
  40246f:	sub    BYTE PTR [ebp-0x13],cl
  402472:	dec    ebx
  402473:	and    eax,0x24523716
  402478:	jns    0x402413
  40247a:	jmp    0x4024f2
  40247c:	loop   0x402491
  40247e:	dec    ebp
  40247f:	movs   DWORD PTR es:[edi],DWORD PTR ds:[esi]
  402480:	xchg   ecx,eax
  402481:	sar    DWORD PTR [ecx+edx*4+0x554b0b6d],cl
  402488:	jno    0x402504
  40248a:	sub    esp,ebx
  40248c:	ret    
  40248d:	sub    eax,DWORD PTR [ecx]
  40248f:	mov    dh,0x21
  402491:	call   FWORD PTR [ecx-0x6bdbb010]
  402497:	mov    BYTE PTR [edi+0x0],ch
  40249a:	jge    0x402437
  40249c:	adc    DWORD PTR [eax],eax
  40249e:	aas    
  40249f:	outs   dx,BYTE PTR ds:[esi]
  4024a0:	imul   ebp,DWORD PTR [eax-0x5a63efab],0x7e
  4024a7:	in     al,dx
  4024a8:	jmp    0x8ccc152d
  4024ad:	cld    
  4024ae:	imul   eax,DWORD PTR [eax],0xdcfc6806
  4024b4:	add    edi,edi
  4024b6:	push   ebp
  4024b7:	and    DWORD PTR [ebx+0x55],ecx
  4024ba:	xchg   edi,eax
  4024bb:	rol    DWORD PTR [ecx+0x6e000068],cl
  4024c1:	push   0x0
  4024c3:	push   0x68
  4024c5:	push   0x8001036a
  4024ca:	aas    
  4024cb:	(bad)  
  4024cc:	test   eax,0xc1c40173
  4024d1:	and    BYTE PTR [edx*2-0x4a66f3c],0x2e
  4024d9:	mov    ds:0x5ec06144,eax
  4024de:	(bad)  
  4024df:	aam    0x4a
  4024e1:	jno    0x402515
  4024e3:	into   
  4024e4:	bound  esp,QWORD PTR [ebp+0x76]
  4024e7:	aam    0x1e
  4024e9:	sbb    edx,DWORD PTR [ecx-0x7c]
  4024ec:	sub    ebp,DWORD PTR [ebp+0x52]
  4024ef:	pop    edi
  4024f0:	lds    edx,FWORD PTR [edx+0x27b3bc5d]
  4024f6:	dec    esi
  4024f7:	xchg   DWORD PTR [ecx+0x6e],ecx
  4024fa:	mov    eax,0xadfbd425
  4024ff:	jns    0x4024b6
  402501:	xchg   ebx,eax
  402502:	adc    DWORD PTR [esi],esi
  402504:	sub    al,0x8f
  402506:	xchg   edx,eax
  402507:	lea    esi,[eax-0x5c713a9c]
  40250d:	cmp    ch,dh
  40250f:	aas    
  402510:	adc    al,0xa6
  402512:	movs   DWORD PTR es:[edi],DWORD PTR ds:[esi]
  402513:	cmps   BYTE PTR ds:[esi],BYTE PTR es:[edi]
  402514:	lea    esp,[edi-0x3ad51cf8]
  40251a:	add    al,0xd7
  40251c:	jnp    0x4024db
  40251e:	push   ds
  40251f:	clc    
  402520:	xchg   DWORD PTR [ebx+0x12602],edx
  402526:	add    BYTE PTR [edi+0x1],dh
  40252c:	add    DWORD PTR [eax],eax
  40252e:	add    BYTE PTR [eax],al
  402530:	add    DWORD PTR [eax],eax
  402532:	add    BYTE PTR [eax],al
  402534:	add    DWORD PTR [eax],eax
  402536:	add    BYTE PTR [eax],al
  402538:	add    DWORD PTR [eax],eax
  40253a:	add    BYTE PTR [eax],al
  40253c:	add    DWORD PTR [eax+0x7a01007a],edi
  402542:	cwde   
  402543:	add    eax,0x42004
  402548:	add    DWORD PTR [edi+0x7b27347b],eax
  40254e:	add    DWORD PTR [eax],0x7a
  402551:	scas   eax,DWORD PTR es:[edi]
  402552:	jb     0x4025d1
  402554:	outs   dx,DWORD PTR ds:[esi]
  402555:	leave  
  402556:	outs   dx,DWORD PTR ds:[esi]
  402557:	xor    al,0xbe
  402559:	add    edi,DWORD PTR [esi+edi*8+0x27c88c4c]
  402560:	hlt    
  402561:	sti    
  402562:	movs   DWORD PTR es:[edi],DWORD PTR ds:[esi]
  402563:	test   BYTE PTR [ecx-0x50f6a317],ah
  402569:	pop    es
  40256a:	mov    dh,0x27
  40256c:	jmp    0x2de5a48f
  402571:	cwde   
  402572:	in     eax,dx
  402573:	.byte 0xd4
