
65310e5465599fc1909113a1bff7c69feedc5bac761c4c984e7722a3f2d12619.exe:     file format pei-i386


Disassembly of section .text:

00401000 <.text>:
	...
  4010a0:	mov    edi,edi
  4010a2:	push   ebp
  4010a3:	mov    ebp,esp
  4010a5:	sub    esp,0x28
  4010a8:	push   eax
  4010a9:	push   DWORD PTR [eax+0xe0]
  4010af:	push   esi
  4010b0:	call   0x401c9c
  4010b5:	add    esp,0x8
  4010b8:	pop    eax
  4010b9:	push   eax
  4010ba:	push   0x0
  4010bc:	mov    eax,0x404040
  4010c1:	call   DWORD PTR [eax]
  4010c3:	pop    eax
  4010c4:	mov    esi,0x404028
  4010c9:	mov    esi,DWORD PTR [esi]
  4010cb:	push   esi
  4010cc:	push   DWORD PTR [eax+0x25c]
  4010d2:	pop    edx
  4010d3:	call   edx
  4010d5:	sub    esp,0xffffffd8
  4010d8:	mov    ebp,DWORD PTR [esp]
  4010db:	add    esp,0x4
  4010de:	ret    
	...
  40112f:	add    BYTE PTR [ebx-0x1374aa01],cl
  401135:	sub    esp,0x24
  401138:	push   eax
  401139:	push   ecx
  40113a:	push   DWORD PTR [eax+0x398]
  401140:	push   edx
  401141:	call   0x40296c
  401146:	add    esp,0xc
  401149:	pop    eax
  40114a:	push   eax
  40114b:	push   0x0
  40114d:	mov    eax,0x404038
  401152:	call   DWORD PTR [eax]
  401154:	pop    eax
  401155:	push   eax
  401156:	mov    eax,0x40402c
  40115b:	call   DWORD PTR [eax]
  40115d:	pop    eax
  40115e:	sub    esp,0xffffffdc
  401161:	mov    ebp,DWORD PTR [esp]
  401164:	add    esp,0x4
  401167:	ret    
  401168:	mov    edi,edi
  40116a:	push   ebp
  40116b:	mov    ebp,esp
  40116d:	sub    esp,0x50
  401170:	push   eax
  401171:	push   esi
  401172:	push   DWORD PTR [eax+0x208]
  401178:	push   ecx
  401179:	push   DWORD PTR [eax+0x218]
  40117f:	call   0x4016c0
  401184:	add    esp,0x10
  401187:	pop    eax
  401188:	push   eax
  401189:	lea    edi,[eax-0x100]
  40118f:	push   edi
  401190:	mov    eax,0x404028
  401195:	call   DWORD PTR [eax]
  401197:	test   eax,eax
  401199:	jne    0x401189
  40119b:	pop    eax
  40119c:	push   eax
  40119d:	mov    ebx,0x0
  4011a2:	push   ebx
  4011a3:	mov    eax,0x404054
  4011a8:	call   DWORD PTR [eax]
  4011aa:	pop    eax
  4011ab:	sub    esp,0xffffffb0
  4011ae:	mov    ebp,DWORD PTR [esp]
  4011b1:	add    esp,0x4
  4011b4:	ret    
  4011b5:	add    BYTE PTR [eax],al
  4011b7:	add    BYTE PTR [ecx-0x3d],ah
  4011ba:	add    BYTE PTR [eax],al
  4011bc:	mov    edi,edi
  4011be:	push   ebp
  4011bf:	mov    ebp,esp
  4011c1:	sub    esp,0x30
  4011c4:	push   eax
  4011c5:	push   0x0
  4011c7:	mov    eax,0x404018
  4011cc:	call   DWORD PTR [eax]
  4011ce:	pop    eax
  4011cf:	push   eax
  4011d0:	push   ecx
  4011d1:	push   DWORD PTR [eax+0x124]
  4011d7:	call   0x401e6c
  4011dc:	add    esp,0x8
  4011df:	pop    eax
  4011e0:	push   eax
  4011e1:	push   0x0
  4011e3:	mov    eax,0x404054
  4011e8:	call   DWORD PTR [eax]
  4011ea:	pop    eax
  4011eb:	sub    esp,0xffffffd0
  4011ee:	mov    ebp,DWORD PTR [esp]
  4011f1:	add    esp,0x4
  4011f4:	ret    
	...
  4012e5:	add    BYTE PTR [eax],al
  4012e7:	add    BYTE PTR [ebx-0x1374aa01],cl
  4012ed:	sub    esp,0x3c
  4012f0:	push   eax
  4012f1:	push   ecx
  4012f2:	push   DWORD PTR [eax+0x5c]
  4012f5:	push   DWORD PTR [eax+0xe4]
  4012fb:	call   0x40212c
  401300:	add    esp,0xc
  401303:	pop    eax
  401304:	push   eax
  401305:	mov    eax,0x404010
  40130a:	call   DWORD PTR [eax]
  40130c:	pop    eax
  40130d:	push   eax
  40130e:	lea    edi,[eax-0x100]
  401314:	push   edi
  401315:	mov    eax,0x404028
  40131a:	call   DWORD PTR [eax]
  40131c:	test   eax,eax
  40131e:	jne    0x40130e
  401320:	pop    eax
  401321:	sub    esp,0xffffffc4
  401324:	mov    ebp,DWORD PTR [esp]
  401327:	add    esp,0x4
  40132a:	ret    
  40132b:	add    BYTE PTR [ebx-0x1374aa01],cl
  401331:	sub    esp,0x54
  401334:	push   eax
  401335:	push   0x0
  401337:	mov    eax,0x404030
  40133c:	call   DWORD PTR [eax]
  40133e:	pop    eax
  40133f:	push   eax
  401340:	push   DWORD PTR [eax+0x204]
  401346:	push   DWORD PTR [eax+0x24c]
  40134c:	call   0x40227c
  401351:	add    esp,0x8
  401354:	pop    eax
  401355:	push   eax
  401356:	mov    ebx,0x0
  40135b:	push   ebx
  40135c:	mov    eax,0x40407c
  401361:	call   DWORD PTR [eax]
  401363:	pop    eax
  401364:	sub    esp,0xffffffac
  401367:	mov    ebp,DWORD PTR [esp]
  40136a:	add    esp,0x4
  40136d:	ret    
	...
  40140e:	add    BYTE PTR [eax],al
  401410:	mov    edi,edi
  401412:	push   ebp
  401413:	mov    ebp,esp
  401415:	sub    esp,0x4c
  401418:	push   eax
  401419:	push   DWORD PTR [eax+0x3d8]
  40141f:	push   DWORD PTR [eax+0x3b4]
  401425:	push   esi
  401426:	call   0x4026d8
  40142b:	add    esp,0xc
  40142e:	pop    eax
  40142f:	push   eax
  401430:	mov    esi,0x0
  401435:	push   esi
  401436:	mov    eax,0x404018
  40143b:	call   DWORD PTR [eax]
  40143d:	pop    eax
  40143e:	push   eax
  40143f:	push   0x0
  401441:	mov    eax,0x404040
  401446:	call   DWORD PTR [eax]
  401448:	pop    eax
  401449:	sub    esp,0xffffffb4
  40144c:	mov    ebp,DWORD PTR [esp]
  40144f:	add    esp,0x4
  401452:	ret    
  401453:	add    BYTE PTR [ebx-0x1374aa01],cl
  401459:	sub    esp,0x3c
  40145c:	push   eax
  40145d:	mov    eax,0x40402c
  401462:	call   DWORD PTR [eax]
  401464:	pop    eax
  401465:	push   eax
  401466:	push   ebx
  401467:	push   DWORD PTR [eax+0xe0]
  40146d:	call   0x40288c
  401472:	add    esp,0x8
  401475:	pop    eax
  401476:	push   eax
  401477:	mov    eax,0x40402c
  40147c:	call   DWORD PTR [eax]
  40147e:	pop    eax
  40147f:	sub    esp,0xffffffc4
  401482:	mov    ebp,DWORD PTR [esp]
  401485:	add    esp,0x4
  401488:	ret    
	...
  401579:	add    BYTE PTR [eax],al
  40157b:	add    BYTE PTR [ebx-0x1374aa01],cl
  401581:	sub    esp,0x24
  401584:	push   eax
  401585:	mov    edx,0x0
  40158a:	push   edx
  40158b:	mov    eax,0x404038
  401590:	call   DWORD PTR [eax]
  401592:	pop    eax
  401593:	push   eax
  401594:	push   ebx
  401595:	push   edi
  401596:	push   DWORD PTR [eax+0x1b8]
  40159c:	call   0x401c20
  4015a1:	add    esp,0xc
  4015a4:	pop    eax
  4015a5:	push   eax
  4015a6:	push   0x0
  4015a8:	mov    eax,0x40400c
  4015ad:	call   DWORD PTR [eax]
  4015af:	pop    eax
  4015b0:	sub    esp,0xffffffdc
  4015b3:	mov    ebp,DWORD PTR [esp]
  4015b6:	add    esp,0x4
  4015b9:	ret    
  4015ba:	add    BYTE PTR [eax],al
  4015bc:	mov    edi,edi
  4015be:	push   ebp
  4015bf:	mov    ebp,esp
  4015c1:	sub    esp,0x3c
  4015c4:	push   eax
  4015c5:	push   DWORD PTR [eax+0x1a0]
  4015cb:	push   DWORD PTR [eax+0x30c]
  4015d1:	push   DWORD PTR [eax+0x2e0]
  4015d7:	call   0x401410
  4015dc:	add    esp,0xc
  4015df:	pop    eax
  4015e0:	push   eax
  4015e1:	mov    eax,0x404010
  4015e6:	call   DWORD PTR [eax]
  4015e8:	pop    eax
  4015e9:	push   eax
  4015ea:	mov    eax,0x40402c
  4015ef:	call   DWORD PTR [eax]
  4015f1:	pop    eax
  4015f2:	sub    esp,0xffffffc4
  4015f5:	mov    ebp,DWORD PTR [esp]
  4015f8:	add    esp,0x4
  4015fb:	ret    
  4015fc:	mov    edi,edi
  4015fe:	push   ebp
  4015ff:	mov    ebp,esp
  401601:	sub    esp,0x40
  401604:	push   eax
  401605:	mov    eax,0x0
  40160a:	push   eax
  40160b:	mov    eax,0x404004
  401610:	call   DWORD PTR [eax]
  401612:	pop    eax
  401613:	push   eax
  401614:	push   ecx
  401615:	push   DWORD PTR [eax+0x14]
  401618:	call   0x40271c
  40161d:	add    esp,0x8
  401620:	pop    eax
  401621:	push   eax
  401622:	mov    edi,0x0
  401627:	push   edi
  401628:	mov    eax,0x40404c
  40162d:	call   DWORD PTR [eax]
  40162f:	pop    eax
  401630:	sub    esp,0xffffffc0
  401633:	mov    ebp,DWORD PTR [esp]
  401636:	add    esp,0x4
  401639:	ret    
  40163a:	add    BYTE PTR [eax],al
  40163c:	mov    edi,edi
  40163e:	push   ebp
  40163f:	mov    ebp,esp
  401641:	sub    esp,0x40
  401644:	push   eax
  401645:	push   0x0
  401647:	mov    eax,0x40404c
  40164c:	call   DWORD PTR [eax]
  40164e:	pop    eax
  40164f:	push   eax
  401650:	push   edx
  401651:	push   DWORD PTR [eax+0x2fc]
  401657:	push   edx
  401658:	push   DWORD PTR [eax+0x2a4]
  40165e:	call   0x40157c
  401663:	add    esp,0x10
  401666:	pop    eax
  401667:	push   eax
  401668:	mov    eax,0x404010
  40166d:	call   DWORD PTR [eax]
  40166f:	pop    eax
  401670:	sub    esp,0xffffffc0
  401673:	mov    ebp,DWORD PTR [esp]
  401676:	add    esp,0x4
  401679:	ret    
  40167a:	add    BYTE PTR [eax],al
  40167c:	mov    edi,edi
  40167e:	push   ebp
  40167f:	mov    ebp,esp
  401681:	sub    esp,0x3c
  401684:	push   eax
  401685:	push   0x0
  401687:	mov    eax,0x404038
  40168c:	call   DWORD PTR [eax]
  40168e:	pop    eax
  40168f:	push   eax
  401690:	push   DWORD PTR [eax+0x274]
  401696:	push   DWORD PTR [eax+0x22c]
  40169c:	push   ebx
  40169d:	push   edx
  40169e:	call   0x40163c
  4016a3:	add    esp,0x10
  4016a6:	pop    eax
  4016a7:	push   eax
  4016a8:	mov    ebx,0x0
  4016ad:	push   ebx
  4016ae:	mov    eax,0x404038
  4016b3:	call   DWORD PTR [eax]
  4016b5:	pop    eax
  4016b6:	sub    esp,0xffffffc4
  4016b9:	mov    ebp,DWORD PTR [esp]
  4016bc:	add    esp,0x4
  4016bf:	ret    
  4016c0:	mov    edi,edi
  4016c2:	push   ebp
  4016c3:	mov    ebp,esp
  4016c5:	sub    esp,0x50
  4016c8:	push   eax
  4016c9:	mov    eax,0x404010
  4016ce:	call   DWORD PTR [eax]
  4016d0:	pop    eax
  4016d1:	push   eax
  4016d2:	push   ecx
  4016d3:	push   DWORD PTR [eax+0x28]
  4016d6:	push   esi
  4016d7:	call   0x402604
  4016dc:	add    esp,0xc
  4016df:	pop    eax
  4016e0:	push   eax
  4016e1:	lea    eax,[eax-0x100]
  4016e7:	push   eax
  4016e8:	mov    eax,0x404028
  4016ed:	call   DWORD PTR [eax]
  4016ef:	test   eax,eax
  4016f1:	jne    0x4016e1
  4016f3:	pop    eax
  4016f4:	sub    esp,0xffffffb0
  4016f7:	mov    ebp,DWORD PTR [esp]
  4016fa:	add    esp,0x4
  4016fd:	ret    
	...
  40174e:	add    BYTE PTR [eax],al
  401750:	mov    edi,edi
  401752:	push   ebp
  401753:	mov    ebp,esp
  401755:	sub    esp,0x28
  401758:	push   eax
  401759:	push   0x0
  40175b:	mov    eax,0x40407c
  401760:	call   DWORD PTR [eax]
  401762:	pop    eax
  401763:	push   eax
  401764:	push   edx
  401765:	push   DWORD PTR [eax+0x28c]
  40176b:	push   DWORD PTR [eax+0x3bc]
  401771:	push   edx
  401772:	call   0x401454
  401777:	add    esp,0x10
  40177a:	pop    eax
  40177b:	push   eax
  40177c:	mov    ebx,0x0
  401781:	push   ebx
  401782:	mov    eax,0x404004
  401787:	call   DWORD PTR [eax]
  401789:	pop    eax
  40178a:	sub    esp,0xffffffd8
  40178d:	mov    ebp,DWORD PTR [esp]
  401790:	add    esp,0x4
  401793:	ret    
	...
  401834:	pusha  
  401835:	xor    edx,edx
  401837:	push   edx
  401838:	call   DWORD PTR ds:0x40407c
  40183e:	mov    eax,0x40409c
  401843:	sub    eax,0x1
  401846:	push   0x0
  401848:	call   DWORD PTR [eax+0x1]
  40184b:	xor    edx,edx
  40184d:	add    edx,0x458200
  401853:	dec    dh
  401855:	push   edx
  401856:	lea    ecx,[edx+0xc]
  401859:	add    BYTE PTR [ecx],0x4
  40185c:	push   edx
  40185d:	call   DWORD PTR ds:0x404044
  401863:	mov    ecx,eax
  401865:	mov    cl,0x3c
  401867:	mov    ecx,DWORD PTR [ecx]
  401869:	mov    ecx,DWORD PTR [eax+ecx*1+0x1c]
  40186d:	ror    ecx,0xc
  401870:	mov    eax,ecx
  401872:	cmp    al,0x10
  401874:	pop    eax
  401875:	jb     0x4011b8
  40187b:	ja     0x4010a0
  401881:	ret    
  401882:	add    BYTE PTR [eax],al
  401884:	mov    edi,edi
  401886:	push   ebp
  401887:	mov    ebp,esp
  401889:	sub    esp,0x60
  40188c:	push   eax
  40188d:	mov    eax,0x0
  401892:	push   eax
  401893:	mov    eax,0x404030
  401898:	call   DWORD PTR [eax]
  40189a:	pop    eax
  40189b:	push   eax
  40189c:	push   ecx
  40189d:	push   ecx
  40189e:	call   0x401b44
  4018a3:	add    esp,0x8
  4018a6:	pop    eax
  4018a7:	push   eax
  4018a8:	push   0x0
  4018aa:	mov    eax,0x404048
  4018af:	call   DWORD PTR [eax]
  4018b1:	pop    eax
  4018b2:	sub    esp,0xffffffa0
  4018b5:	mov    ebp,DWORD PTR [esp]
  4018b8:	add    esp,0x4
  4018bb:	ret    
  4018bc:	mov    edi,edi
  4018be:	push   ebp
  4018bf:	mov    ebp,esp
  4018c1:	sub    esp,0x34
  4018c4:	push   eax
  4018c5:	push   ebx
  4018c6:	push   ecx
  4018c7:	push   esi
  4018c8:	push   edi
  4018c9:	call   0x402528
  4018ce:	add    esp,0x10
  4018d1:	pop    eax
  4018d2:	push   eax
  4018d3:	mov    esi,0x0
  4018d8:	push   esi
  4018d9:	mov    eax,0x40406c
  4018de:	call   DWORD PTR [eax]
  4018e0:	pop    eax
  4018e1:	push   eax
  4018e2:	lea    ebx,[eax-0x100]
  4018e8:	push   ebx
  4018e9:	mov    eax,0x404028
  4018ee:	call   DWORD PTR [eax]
  4018f0:	test   eax,eax
  4018f2:	jne    0x4018e2
  4018f4:	pop    eax
  4018f5:	sub    esp,0xffffffcc
  4018f8:	mov    ebp,DWORD PTR [esp]
  4018fb:	add    esp,0x4
  4018fe:	ret    
  4018ff:	add    BYTE PTR [ebx-0x1374aa01],cl
  401905:	sub    esp,0x4c
  401908:	push   eax
  401909:	push   DWORD PTR [eax+0x2d0]
  40190f:	push   esi
  401910:	push   DWORD PTR [eax+0x1e4]
  401916:	call   0x401dc8
  40191b:	add    esp,0xc
  40191e:	pop    eax
  40191f:	push   eax
  401920:	mov    eax,0x40402c
  401925:	call   DWORD PTR [eax]
  401927:	pop    eax
  401928:	push   eax
  401929:	mov    eax,0x0
  40192e:	push   eax
  40192f:	mov    eax,0x404054
  401934:	call   DWORD PTR [eax]
  401936:	pop    eax
  401937:	sub    esp,0xffffffb4
  40193a:	mov    ebp,DWORD PTR [esp]
  40193d:	add    esp,0x4
  401940:	ret    
	...
  4019e1:	add    BYTE PTR [eax],al
  4019e3:	add    BYTE PTR [ebx-0x1374aa01],cl
  4019e9:	sub    esp,0x48
  4019ec:	push   eax
  4019ed:	mov    esi,0x0
  4019f2:	push   esi
  4019f3:	mov    eax,0x40404c
  4019f8:	call   DWORD PTR [eax]
  4019fa:	pop    eax
  4019fb:	push   eax
  4019fc:	push   edx
  4019fd:	push   ecx
  4019fe:	call   0x401a6c
  401a03:	add    esp,0x8
  401a06:	pop    eax
  401a07:	push   eax
  401a08:	push   0x0
  401a0a:	mov    eax,0x404038
  401a0f:	call   DWORD PTR [eax]
  401a11:	pop    eax
  401a12:	sub    esp,0xffffffb8
  401a15:	mov    ebp,DWORD PTR [esp]
  401a18:	add    esp,0x4
  401a1b:	ret    
	...
  401a6c:	mov    edi,edi
  401a6e:	push   ebp
  401a6f:	mov    ebp,esp
  401a71:	sub    esp,0x48
  401a74:	push   eax
  401a75:	mov    eax,0x0
  401a7a:	push   eax
  401a7b:	mov    eax,0x40406c
  401a80:	call   DWORD PTR [eax]
  401a82:	pop    eax
  401a83:	push   eax
  401a84:	push   ecx
  401a85:	push   edx
  401a86:	call   0x4024f0
  401a8b:	add    esp,0x8
  401a8e:	pop    eax
  401a8f:	push   eax
  401a90:	push   0x0
  401a92:	mov    eax,0x404038
  401a97:	call   DWORD PTR [eax]
  401a99:	pop    eax
  401a9a:	sub    esp,0xffffffb8
  401a9d:	mov    ebp,DWORD PTR [esp]
  401aa0:	add    esp,0x4
  401aa3:	ret    
	...
  401b44:	mov    edi,edi
  401b46:	push   ebp
  401b47:	mov    ebp,esp
  401b49:	sub    esp,0x54
  401b4c:	push   eax
  401b4d:	push   ecx
  401b4e:	push   ecx
  401b4f:	push   ebx
  401b50:	call   0x4021f8
  401b55:	add    esp,0xc
  401b58:	pop    eax
  401b59:	push   eax
  401b5a:	mov    esi,0x0
  401b5f:	push   esi
  401b60:	mov    eax,0x404054
  401b65:	call   DWORD PTR [eax]
  401b67:	pop    eax
  401b68:	push   eax
  401b69:	push   0x0
  401b6b:	mov    eax,0x404048
  401b70:	call   DWORD PTR [eax]
  401b72:	pop    eax
  401b73:	sub    esp,0xffffffac
  401b76:	mov    ebp,DWORD PTR [esp]
  401b79:	add    esp,0x4
  401b7c:	ret    
	...
  401c1d:	add    BYTE PTR [eax],al
  401c1f:	add    BYTE PTR [ebx-0x1374aa01],cl
  401c25:	sub    esp,0x48
  401c28:	push   eax
  401c29:	mov    edx,0x0
  401c2e:	push   edx
  401c2f:	mov    eax,0x404030
  401c34:	call   DWORD PTR [eax]
  401c36:	pop    eax
  401c37:	push   eax
  401c38:	push   edx
  401c39:	push   DWORD PTR [eax+0x60]
  401c3c:	push   esi
  401c3d:	call   0x401884
  401c42:	add    esp,0xc
  401c45:	pop    eax
  401c46:	push   eax
  401c47:	mov    eax,0x0
  401c4c:	push   eax
  401c4d:	mov    eax,0x40407c
  401c52:	call   DWORD PTR [eax]
  401c54:	pop    eax
  401c55:	sub    esp,0xffffffb8
  401c58:	mov    ebp,DWORD PTR [esp]
  401c5b:	add    esp,0x4
  401c5e:	ret    
  401c5f:	add    BYTE PTR [ebx-0x1374aa01],cl
  401c65:	sub    esp,0x58
  401c68:	push   eax
  401c69:	push   edx
  401c6a:	push   DWORD PTR [eax+0x2a8]
  401c70:	call   0x401ce4
  401c75:	add    esp,0x8
  401c78:	pop    eax
  401c79:	push   eax
  401c7a:	mov    eax,0x0
  401c7f:	push   eax
  401c80:	mov    eax,0x40400c
  401c85:	call   DWORD PTR [eax]
  401c87:	pop    eax
  401c88:	push   eax
  401c89:	mov    eax,0x40402c
  401c8e:	call   DWORD PTR [eax]
  401c90:	pop    eax
  401c91:	sub    esp,0xffffffa8
  401c94:	mov    ebp,DWORD PTR [esp]
  401c97:	add    esp,0x4
  401c9a:	ret    
  401c9b:	add    BYTE PTR [ebx-0x1374aa01],cl
  401ca1:	sub    esp,0x24
  401ca4:	push   eax
  401ca5:	mov    eax,0x40402c
  401caa:	call   DWORD PTR [eax]
  401cac:	pop    eax
  401cad:	push   eax
  401cae:	push   DWORD PTR [eax+0x114]
  401cb4:	push   DWORD PTR [eax+0x380]
  401cba:	push   edi
  401cbb:	push   DWORD PTR [eax+0x1e4]
  401cc1:	call   0x4018bc
  401cc6:	add    esp,0x10
  401cc9:	pop    eax
  401cca:	push   eax
  401ccb:	mov    ebx,0x0
  401cd0:	push   ebx
  401cd1:	mov    eax,0x404054
  401cd6:	call   DWORD PTR [eax]
  401cd8:	pop    eax
  401cd9:	sub    esp,0xffffffdc
  401cdc:	mov    ebp,DWORD PTR [esp]
  401cdf:	add    esp,0x4
  401ce2:	ret    
  401ce3:	add    BYTE PTR [ebx-0x1374aa01],cl
  401ce9:	sub    esp,0x60
  401cec:	push   eax
  401ced:	push   DWORD PTR [eax+0x190]
  401cf3:	push   DWORD PTR [eax+0x3b0]
  401cf9:	push   DWORD PTR [eax+0x180]
  401cff:	call   0x401f34
  401d04:	add    esp,0xc
  401d07:	pop    eax
  401d08:	push   eax
  401d09:	lea    esi,[eax-0x100]
  401d0f:	push   esi
  401d10:	mov    eax,0x404028
  401d15:	call   DWORD PTR [eax]
  401d17:	test   eax,eax
  401d19:	jne    0x401d09
  401d1b:	pop    eax
  401d1c:	push   eax
  401d1d:	push   0x0
  401d1f:	mov    eax,0x404004
  401d24:	call   DWORD PTR [eax]
  401d26:	pop    eax
  401d27:	sub    esp,0xffffffa0
  401d2a:	mov    ebp,DWORD PTR [esp]
  401d2d:	add    esp,0x4
  401d30:	ret    
	...
  401d81:	add    BYTE PTR [eax],al
  401d83:	add    BYTE PTR [ebx-0x1374aa01],cl
  401d89:	sub    esp,0x2c
  401d8c:	push   eax
  401d8d:	push   edx
  401d8e:	push   edx
  401d8f:	push   edi
  401d90:	push   DWORD PTR [eax+0x8c]
  401d96:	call   0x40167c
  401d9b:	add    esp,0x10
  401d9e:	pop    eax
  401d9f:	push   eax
  401da0:	lea    ebx,[eax-0x100]
  401da6:	push   ebx
  401da7:	mov    eax,0x404028
  401dac:	call   DWORD PTR [eax]
  401dae:	test   eax,eax
  401db0:	jne    0x401da0
  401db2:	pop    eax
  401db3:	push   eax
  401db4:	mov    eax,0x40402c
  401db9:	call   DWORD PTR [eax]
  401dbb:	pop    eax
  401dbc:	sub    esp,0xffffffd4
  401dbf:	mov    ebp,DWORD PTR [esp]
  401dc2:	add    esp,0x4
  401dc5:	ret    
  401dc6:	add    BYTE PTR [eax],al
  401dc8:	mov    edi,edi
  401dca:	push   ebp
  401dcb:	mov    ebp,esp
  401dcd:	sub    esp,0x58
  401dd0:	push   eax
  401dd1:	mov    ebx,0x6b4
  401dd6:	push   ebx
  401dd7:	mov    esi,0x6b4
  401ddc:	push   esi
  401ddd:	mov    eax,0x40001
  401de2:	push   eax
  401de3:	push   0x0
  401de5:	xor    DWORD PTR [esp],0x89e6ba69
  401dec:	pop    ecx
  401ded:	sub    ecx,0x89a67a45
  401df3:	push   DWORD PTR [ecx]
  401df5:	sub    DWORD PTR [esp],0x2
  401df9:	mov    ecx,0x404044
  401dfe:	pop    DWORD PTR [ecx]
  401e00:	mov    eax,0x404044
  401e05:	call   DWORD PTR [eax]
  401e07:	xchg   DWORD PTR [esp],eax
  401e0a:	pop    DWORD PTR [eax+0x25c]
  401e10:	mov    ebx,DWORD PTR [eax+0x25c]
  401e16:	lea    ebx,[ebx]
  401e18:	sub    ecx,ecx
  401e1a:	dec    ecx
  401e1b:	and    ecx,0x4029da
  401e21:	mov    esi,0x7a89d45a
  401e26:	xor    edx,edx
  401e28:	mov    edi,esi
  401e2a:	xor    edi,DWORD PTR [ecx]
  401e2c:	push   edi
  401e2d:	sub    edi,edi
  401e2f:	sub    DWORD PTR [esp],0x1
  401e33:	pop    DWORD PTR [ebx+edi*2]
  401e36:	push   0x0
  401e38:	sub    DWORD PTR [esp],esi
  401e3b:	mov    esi,0xfffffffc
  401e40:	sub    ecx,esi
  401e42:	sub    ebx,esi
  401e44:	pop    esi
  401e45:	add    edx,0x4
  401e48:	cmp    edx,0x6b4
  401e4e:	jne    0x401e28
  401e50:	push   eax
  401e51:	lea    edx,[eax-0x100]
  401e57:	push   edx
  401e58:	mov    eax,0x404028
  401e5d:	call   DWORD PTR [eax]
  401e5f:	test   eax,eax
  401e61:	jne    0x401e51
  401e63:	pop    eax
  401e64:	sub    esp,0xffffffa8
  401e67:	pop    ebp
  401e68:	ret    
  401e69:	add    BYTE PTR [eax],al
  401e6b:	add    BYTE PTR [ebx-0x1374aa01],cl
  401e71:	sub    esp,0x30
  401e74:	push   eax
  401e75:	mov    edx,0x0
  401e7a:	push   edx
  401e7b:	mov    eax,0x404030
  401e80:	call   DWORD PTR [eax]
  401e82:	pop    eax
  401e83:	push   eax
  401e84:	push   DWORD PTR [eax+0x3f0]
  401e8a:	push   DWORD PTR [eax+0x2f4]
  401e90:	call   0x401130
  401e95:	add    esp,0x8
  401e98:	pop    eax
  401e99:	push   eax
  401e9a:	mov    eax,0x0
  401e9f:	push   eax
  401ea0:	mov    eax,0x40404c
  401ea5:	call   DWORD PTR [eax]
  401ea7:	pop    eax
  401ea8:	sub    esp,0xffffffd0
  401eab:	mov    ebp,DWORD PTR [esp]
  401eae:	add    esp,0x4
  401eb1:	ret    
  401eb2:	add    BYTE PTR [eax],al
  401eb4:	mov    edi,edi
  401eb6:	push   ebp
  401eb7:	mov    ebp,esp
  401eb9:	sub    esp,0x24
  401ebc:	push   eax
  401ebd:	push   0x0
  401ebf:	mov    eax,0x404048
  401ec4:	call   DWORD PTR [eax]
  401ec6:	pop    eax
  401ec7:	push   eax
  401ec8:	push   ecx
  401ec9:	push   DWORD PTR [eax+0x208]
  401ecf:	push   DWORD PTR [eax+0x4]
  401ed2:	push   DWORD PTR [eax+0x1a8]
  401ed8:	call   0x402690
  401edd:	add    esp,0x10
  401ee0:	pop    eax
  401ee1:	push   eax
  401ee2:	mov    eax,0x40402c
  401ee7:	call   DWORD PTR [eax]
  401ee9:	pop    eax
  401eea:	sub    esp,0xffffffdc
  401eed:	mov    ebp,DWORD PTR [esp]
  401ef0:	add    esp,0x4
  401ef3:	ret    
  401ef4:	mov    edi,edi
  401ef6:	push   ebp
  401ef7:	mov    ebp,esp
  401ef9:	sub    esp,0x50
  401efc:	push   eax
  401efd:	mov    eax,0x404000
  401f02:	call   DWORD PTR [eax]
  401f04:	pop    eax
  401f05:	push   eax
  401f06:	push   DWORD PTR [eax+0x1d8]
  401f0c:	push   ebx
  401f0d:	push   DWORD PTR [eax+0x7c]
  401f10:	call   0x401eb4
  401f15:	add    esp,0xc
  401f18:	pop    eax
  401f19:	push   eax
  401f1a:	mov    esi,0x0
  401f1f:	push   esi
  401f20:	mov    eax,0x404038
  401f25:	call   DWORD PTR [eax]
  401f27:	pop    eax
  401f28:	sub    esp,0xffffffb0
  401f2b:	mov    ebp,DWORD PTR [esp]
  401f2e:	add    esp,0x4
  401f31:	ret    
  401f32:	add    BYTE PTR [eax],al
  401f34:	mov    edi,edi
  401f36:	push   ebp
  401f37:	mov    ebp,esp
  401f39:	sub    esp,0x44
  401f3c:	push   eax
  401f3d:	mov    eax,0x40402c
  401f42:	call   DWORD PTR [eax]
  401f44:	pop    eax
  401f45:	push   eax
  401f46:	push   esi
  401f47:	push   DWORD PTR [eax+0x6c]
  401f4a:	push   DWORD PTR [eax+0x398]
  401f50:	call   0x401168
  401f55:	add    esp,0xc
  401f58:	pop    eax
  401f59:	push   eax
  401f5a:	mov    edx,0x0
  401f5f:	push   edx
  401f60:	mov    eax,0x40400c
  401f65:	call   DWORD PTR [eax]
  401f67:	pop    eax
  401f68:	sub    esp,0xffffffbc
  401f6b:	mov    ebp,DWORD PTR [esp]
  401f6e:	add    esp,0x4
  401f71:	ret    
	...
  402012:	add    BYTE PTR [eax],al
  402014:	mov    edi,edi
  402016:	push   ebp
  402017:	mov    ebp,esp
  402019:	sub    esp,0x50
  40201c:	push   eax
  40201d:	mov    eax,0x40402c
  402022:	call   DWORD PTR [eax]
  402024:	pop    eax
  402025:	push   eax
  402026:	push   edx
  402027:	push   DWORD PTR [eax+0x21c]
  40202d:	push   edx
  40202e:	push   edx
  40202f:	call   0x401900
  402034:	add    esp,0x10
  402037:	pop    eax
  402038:	push   eax
  402039:	mov    ecx,0x0
  40203e:	push   ecx
  40203f:	mov    eax,0x404040
  402044:	call   DWORD PTR [eax]
  402046:	pop    eax
  402047:	sub    esp,0xffffffb0
  40204a:	mov    ebp,DWORD PTR [esp]
  40204d:	add    esp,0x4
  402050:	ret    
  402051:	add    BYTE PTR [eax],al
  402053:	add    BYTE PTR [ebx-0x1374aa01],cl
  402059:	sub    esp,0x1c
  40205c:	push   eax
  40205d:	push   edx
  40205e:	push   DWORD PTR [eax+0x354]
  402064:	call   0x4015bc
  402069:	add    esp,0x8
  40206c:	pop    eax
  40206d:	push   eax
  40206e:	mov    eax,0x40402c
  402073:	call   DWORD PTR [eax]
  402075:	pop    eax
  402076:	push   eax
  402077:	push   0x0
  402079:	mov    eax,0x404038
  40207e:	call   DWORD PTR [eax]
  402080:	pop    eax
  402081:	sub    esp,0xffffffe4
  402084:	mov    ebp,DWORD PTR [esp]
  402087:	add    esp,0x4
  40208a:	ret    
	...
  40212b:	add    BYTE PTR [ebx-0x1374aa01],cl
  402131:	sub    esp,0x50
  402134:	push   eax
  402135:	mov    ebx,0x0
  40213a:	push   ebx
  40213b:	mov    eax,0x40400c
  402140:	call   DWORD PTR [eax]
  402142:	pop    eax
  402143:	push   eax
  402144:	push   DWORD PTR [eax+0x20]
  402147:	push   ebx
  402148:	push   DWORD PTR [eax+0x17c]
  40214e:	push   ecx
  40214f:	call   0x40132c
  402154:	add    esp,0x10
  402157:	pop    eax
  402158:	push   eax
  402159:	push   0x0
  40215b:	mov    eax,0x404038
  402160:	call   DWORD PTR [eax]
  402162:	pop    eax
  402163:	sub    esp,0xffffffb0
  402166:	mov    ebp,DWORD PTR [esp]
  402169:	add    esp,0x4
  40216c:	ret    
	...
  4021bd:	add    BYTE PTR [eax],al
  4021bf:	add    BYTE PTR [ebx-0x1374aa01],cl
  4021c5:	sub    esp,0x58
  4021c8:	push   eax
  4021c9:	push   0x0
  4021cb:	mov    eax,0x40404c
  4021d0:	call   DWORD PTR [eax]
  4021d2:	pop    eax
  4021d3:	push   eax
  4021d4:	push   DWORD PTR [eax+0x384]
  4021da:	push   ebx
  4021db:	push   edx
  4021dc:	call   0x4027fc
  4021e1:	add    esp,0xc
  4021e4:	pop    eax
  4021e5:	push   eax
  4021e6:	mov    eax,0x404010
  4021eb:	call   DWORD PTR [eax]
  4021ed:	pop    eax
  4021ee:	sub    esp,0xffffffa8
  4021f1:	mov    ebp,DWORD PTR [esp]
  4021f4:	add    esp,0x4
  4021f7:	ret    
  4021f8:	mov    edi,edi
  4021fa:	push   ebp
  4021fb:	mov    ebp,esp
  4021fd:	sub    esp,0x34
  402200:	push   eax
  402201:	push   DWORD PTR [eax+0x294]
  402207:	push   ebx
  402208:	push   DWORD PTR [eax+0x1a0]
  40220e:	push   ebx
  40220f:	call   0x401c60
  402214:	add    esp,0x10
  402217:	pop    eax
  402218:	push   eax
  402219:	mov    ebx,0x0
  40221e:	push   ebx
  40221f:	mov    eax,0x404018
  402224:	call   DWORD PTR [eax]
  402226:	pop    eax
  402227:	push   eax
  402228:	mov    eax,0x404010
  40222d:	call   DWORD PTR [eax]
  40222f:	pop    eax
  402230:	sub    esp,0xffffffcc
  402233:	mov    ebp,DWORD PTR [esp]
  402236:	add    esp,0x4
  402239:	ret    
  40223a:	add    BYTE PTR [eax],al
  40223c:	mov    edi,edi
  40223e:	push   ebp
  40223f:	mov    ebp,esp
  402241:	sub    esp,0x34
  402244:	push   eax
  402245:	push   edi
  402246:	push   DWORD PTR [eax+0x280]
  40224c:	call   0x401ef4
  402251:	add    esp,0x8
  402254:	pop    eax
  402255:	push   eax
  402256:	push   0x0
  402258:	mov    eax,0x40404c
  40225d:	call   DWORD PTR [eax]
  40225f:	pop    eax
  402260:	push   eax
  402261:	mov    ecx,0x0
  402266:	push   ecx
  402267:	mov    eax,0x404030
  40226c:	call   DWORD PTR [eax]
  40226e:	pop    eax
  40226f:	sub    esp,0xffffffcc
  402272:	mov    ebp,DWORD PTR [esp]
  402275:	add    esp,0x4
  402278:	ret    
  402279:	add    BYTE PTR [eax],al
  40227b:	add    BYTE PTR [ebx-0x1374aa01],cl
  402281:	sub    esp,0x34
  402284:	push   eax
  402285:	push   edi
  402286:	push   DWORD PTR [eax+0x350]
  40228c:	push   DWORD PTR [eax+0x48]
  40228f:	call   0x4021c0
  402294:	add    esp,0xc
  402297:	pop    eax
  402298:	push   eax
  402299:	push   0x0
  40229b:	mov    eax,0x404018
  4022a0:	call   DWORD PTR [eax]
  4022a2:	pop    eax
  4022a3:	push   eax
  4022a4:	lea    edx,[eax-0x100]
  4022aa:	push   edx
  4022ab:	mov    eax,0x404028
  4022b0:	call   DWORD PTR [eax]
  4022b2:	test   eax,eax
  4022b4:	jne    0x4022a4
  4022b6:	pop    eax
  4022b7:	sub    esp,0xffffffcc
  4022ba:	mov    ebp,DWORD PTR [esp]
  4022bd:	add    esp,0x4
  4022c0:	ret    
	...
  402311:	add    BYTE PTR [eax],al
  402313:	add    BYTE PTR [ebx-0x1374aa01],cl
  402319:	sub    esp,0x4c
  40231c:	push   eax
  40231d:	mov    ebx,0x0
  402322:	push   ebx
  402323:	mov    eax,0x404048
  402328:	call   DWORD PTR [eax]
  40232a:	pop    eax
  40232b:	push   eax
  40232c:	push   DWORD PTR [eax+0x1f0]
  402332:	push   DWORD PTR [eax+0x2d8]
  402338:	push   edi
  402339:	push   DWORD PTR [eax+0x2d0]
  40233f:	call   0x4011bc
  402344:	add    esp,0x10
  402347:	pop    eax
  402348:	push   eax
  402349:	push   0x0
  40234b:	mov    eax,0x404018
  402350:	call   DWORD PTR [eax]
  402352:	pop    eax
  402353:	sub    esp,0xffffffb4
  402356:	mov    ebp,DWORD PTR [esp]
  402359:	add    esp,0x4
  40235c:	ret    
	...
  4024ed:	add    BYTE PTR [eax],al
  4024ef:	add    BYTE PTR [ebx-0x1374aa01],cl
  4024f5:	sub    esp,0x44
  4024f8:	push   eax
  4024f9:	mov    eax,0x404010
  4024fe:	call   DWORD PTR [eax]
  402500:	pop    eax
  402501:	push   eax
  402502:	push   edi
  402503:	push   esi
  402504:	push   DWORD PTR [eax+0xe0]
  40250a:	call   0x401d84
  40250f:	add    esp,0xc
  402512:	pop    eax
  402513:	push   eax
  402514:	push   0x0
  402516:	mov    eax,0x404040
  40251b:	call   DWORD PTR [eax]
  40251d:	pop    eax
  40251e:	sub    esp,0xffffffbc
  402521:	mov    ebp,DWORD PTR [esp]
  402524:	add    esp,0x4
  402527:	ret    
  402528:	mov    edi,edi
  40252a:	push   ebp
  40252b:	mov    ebp,esp
  40252d:	sub    esp,0x3c
  402530:	push   eax
  402531:	mov    eax,0x40402c
  402536:	call   DWORD PTR [eax]
  402538:	pop    eax
  402539:	push   eax
  40253a:	push   ebx
  40253b:	push   esi
  40253c:	push   DWORD PTR [eax+0x40]
  40253f:	call   0x4015fc
  402544:	add    esp,0xc
  402547:	pop    eax
  402548:	push   eax
  402549:	mov    edx,0x0
  40254e:	push   edx
  40254f:	mov    eax,0x404040
  402554:	call   DWORD PTR [eax]
  402556:	pop    eax
  402557:	sub    esp,0xffffffc4
  40255a:	mov    ebp,DWORD PTR [esp]
  40255d:	add    esp,0x4
  402560:	ret    
	...
  402601:	add    BYTE PTR [eax],al
  402603:	add    BYTE PTR [ebx-0x1374aa01],cl
  402609:	sub    esp,0x5c
  40260c:	push   eax
  40260d:	mov    edi,0x0
  402612:	push   edi
  402613:	mov    eax,0x40407c
  402618:	call   DWORD PTR [eax]
  40261a:	pop    eax
  40261b:	push   eax
  40261c:	push   edx
  40261d:	push   esi
  40261e:	call   0x4012e8
  402623:	add    esp,0x8
  402626:	pop    eax
  402627:	push   eax
  402628:	mov    ebx,0x0
  40262d:	push   ebx
  40262e:	mov    eax,0x40404c
  402633:	call   DWORD PTR [eax]
  402635:	pop    eax
  402636:	sub    esp,0xffffffa4
  402639:	mov    ebp,DWORD PTR [esp]
  40263c:	add    esp,0x4
  40263f:	ret    
	...
  402690:	mov    edi,edi
  402692:	push   ebp
  402693:	mov    ebp,esp
  402695:	sub    esp,0x3c
  402698:	push   eax
  402699:	push   0x0
  40269b:	mov    eax,0x404030
  4026a0:	call   DWORD PTR [eax]
  4026a2:	pop    eax
  4026a3:	push   eax
  4026a4:	push   DWORD PTR [eax+0x204]
  4026aa:	push   DWORD PTR [eax+0x3c8]
  4026b0:	push   DWORD PTR [eax+0x228]
  4026b6:	call   0x402014
  4026bb:	add    esp,0xc
  4026be:	pop    eax
  4026bf:	push   eax
  4026c0:	mov    edi,0x0
  4026c5:	push   edi
  4026c6:	mov    eax,0x40406c
  4026cb:	call   DWORD PTR [eax]
  4026cd:	pop    eax
  4026ce:	sub    esp,0xffffffc4
  4026d1:	mov    ebp,DWORD PTR [esp]
  4026d4:	add    esp,0x4
  4026d7:	ret    
  4026d8:	mov    edi,edi
  4026da:	push   ebp
  4026db:	mov    ebp,esp
  4026dd:	sub    esp,0x44
  4026e0:	push   eax
  4026e1:	mov    edx,0x0
  4026e6:	push   edx
  4026e7:	mov    eax,0x40407c
  4026ec:	call   DWORD PTR [eax]
  4026ee:	pop    eax
  4026ef:	push   eax
  4026f0:	push   DWORD PTR [eax+0x1a8]
  4026f6:	push   ecx
  4026f7:	push   ebx
  4026f8:	call   0x401750
  4026fd:	add    esp,0xc
  402700:	pop    eax
  402701:	push   eax
  402702:	mov    edx,0x0
  402707:	push   edx
  402708:	mov    eax,0x404054
  40270d:	call   DWORD PTR [eax]
  40270f:	pop    eax
  402710:	sub    esp,0xffffffbc
  402713:	mov    ebp,DWORD PTR [esp]
  402716:	add    esp,0x4
  402719:	ret    
  40271a:	add    BYTE PTR [eax],al
  40271c:	mov    edi,edi
  40271e:	push   ebp
  40271f:	mov    ebp,esp
  402721:	sub    esp,0x24
  402724:	push   eax
  402725:	push   0x0
  402727:	mov    eax,0x40404c
  40272c:	call   DWORD PTR [eax]
  40272e:	pop    eax
  40272f:	push   eax
  402730:	push   edi
  402731:	push   DWORD PTR [eax+0x150]
  402737:	call   0x402928
  40273c:	add    esp,0x8
  40273f:	pop    eax
  402740:	push   eax
  402741:	mov    esi,0x0
  402746:	push   esi
  402747:	mov    eax,0x404038
  40274c:	call   DWORD PTR [eax]
  40274e:	pop    eax
  40274f:	sub    esp,0xffffffdc
  402752:	mov    ebp,DWORD PTR [esp]
  402755:	add    esp,0x4
  402758:	ret    
	...
  4027f9:	add    BYTE PTR [eax],al
  4027fb:	add    BYTE PTR [ebx-0x1374aa01],cl
  402801:	sub    esp,0x58
  402804:	push   eax
  402805:	mov    esi,0x0
  40280a:	push   esi
  40280b:	mov    eax,0x40406c
  402810:	call   DWORD PTR [eax]
  402812:	pop    eax
  402813:	push   eax
  402814:	push   edi
  402815:	push   DWORD PTR [eax+0xc4]
  40281b:	call   0x402314
  402820:	add    esp,0x8
  402823:	pop    eax
  402824:	push   eax
  402825:	push   0x0
  402827:	mov    eax,0x40404c
  40282c:	call   DWORD PTR [eax]
  40282e:	pop    eax
  40282f:	sub    esp,0xffffffa8
  402832:	mov    ebp,DWORD PTR [esp]
  402835:	add    esp,0x4
  402838:	ret    
	...
  402889:	add    BYTE PTR [eax],al
  40288b:	add    BYTE PTR [ebx-0x1374aa01],cl
  402891:	sub    esp,0x38
  402894:	push   eax
  402895:	push   DWORD PTR [eax+0x23c]
  40289b:	push   edi
  40289c:	push   DWORD PTR [eax+0x2d4]
  4028a2:	push   DWORD PTR [eax+0xcc]
  4028a8:	call   0x40223c
  4028ad:	add    esp,0x10
  4028b0:	pop    eax
  4028b1:	push   eax
  4028b2:	push   0x0
  4028b4:	mov    eax,0x40400c
  4028b9:	call   DWORD PTR [eax]
  4028bb:	pop    eax
  4028bc:	push   eax
  4028bd:	mov    esi,0x0
  4028c2:	push   esi
  4028c3:	mov    eax,0x404048
  4028c8:	call   DWORD PTR [eax]
  4028ca:	pop    eax
  4028cb:	sub    esp,0xffffffc8
  4028ce:	mov    ebp,DWORD PTR [esp]
  4028d1:	add    esp,0x4
  4028d4:	ret    
	...
  402925:	add    BYTE PTR [eax],al
  402927:	add    BYTE PTR [ebx-0x1374aa01],cl
  40292d:	sub    esp,0x48
  402930:	push   eax
  402931:	mov    eax,0x0
  402936:	push   eax
  402937:	mov    eax,0x404004
  40293c:	call   DWORD PTR [eax]
  40293e:	pop    eax
  40293f:	push   eax
  402940:	push   DWORD PTR [eax+0x1f0]
  402946:	push   DWORD PTR [eax+0x178]
  40294c:	push   esi
  40294d:	push   ecx
  40294e:	call   0x4019e4
  402953:	add    esp,0x10
  402956:	pop    eax
  402957:	push   eax
  402958:	mov    eax,0x40402c
  40295d:	call   DWORD PTR [eax]
  40295f:	pop    eax
  402960:	sub    esp,0xffffffb8
  402963:	mov    ebp,DWORD PTR [esp]
  402966:	add    esp,0x4
  402969:	ret    
  40296a:	add    BYTE PTR [eax],al
  40296c:	mov    edi,edi
  40296e:	push   ebp
  40296f:	mov    ebp,esp
  402971:	sub    esp,0x58
  402974:	push   eax
  402975:	push   DWORD PTR [eax+0x198]
  40297b:	push   DWORD PTR [eax+0x44]
  40297e:	call   0x402054
  402983:	add    esp,0x8
  402986:	pop    eax
  402987:	push   eax
  402988:	push   0x0
  40298a:	mov    eax,0x404054
  40298f:	call   DWORD PTR [eax]
  402991:	pop    eax
  402992:	push   eax
  402993:	push   0x0
  402995:	mov    eax,0x404030
  40299a:	call   DWORD PTR [eax]
  40299c:	pop    eax
  40299d:	sub    esp,0xffffffa8
  4029a0:	mov    ebp,DWORD PTR [esp]
  4029a3:	add    esp,0x4
  4029a6:	ret    
  4029a7:	add    BYTE PTR [eax+0x5b27529a],dh
  4029ad:	adc    DWORD PTR [ecx],esp
  4029af:	jae    0x4029d2
  4029b1:	xor    edi,DWORD PTR [edx]
  4029b3:	cmp    BYTE PTR [ecx],cl
  4029b5:	cwde   
  4029b6:	inc    eax
  4029b7:	mov    ah,0x57
  4029b9:	adc    al,0x8a
  4029bb:	add    ch,cl
  4029bd:	adc    BYTE PTR [edi],dl
  4029bf:	rcl    DWORD PTR [eax],1
  4029c1:	in     eax,0xbe
  4029c3:	xchg   DWORD PTR [ebp+0x5b],edi
  4029c6:	enter  0x1ef2,0x1e
  4029ca:	mov    eax,ds:0xb98045fd
  4029cf:	xchg   esi,eax
  4029d0:	push   es
  4029d1:	dec    ecx
  4029d2:	inc    esi
  4029d3:	stc    
  4029d4:	pop    esp
  4029d5:	retf   
  4029d6:	sbb    esp,edi
  4029d8:	mov    al,ds:0xd98c0b16
  4029dd:	and    cl,BYTE PTR [edi+0x2d]
  4029e0:	jbe    0x402967
  4029e2:	pop    ebx
  4029e3:	aad    0xfe
  4029e5:	and    esi,ecx
  4029e7:	cmps   BYTE PTR ds:[esi],BYTE PTR es:[edi]
  4029e8:	xor    ebx,esp
  4029ea:	jbe    0x402a09
  4029ec:	or     bh,BYTE PTR [ebx+0x67287ea2]
  4029f2:	movs   BYTE PTR es:[edi],BYTE PTR ds:[esi]
  4029f3:	push   edi
  4029f4:	dec    ebp
  4029f5:	mov    cs,WORD PTR [edi+0x26]
  4029f8:	jbe    0x40297f
  4029fa:	pop    ebx
  4029fb:	push   esp
  4029fc:	mov    bl,0x6b
  4029fe:	dec    esp
  4029ff:	dec    esi
  402a00:	sbb    dh,BYTE PTR [esi+0x16edfa69]
  402a06:	retf   
  402a07:	sub    ebp,DWORD PTR [esi]
  402a09:	aad    0xd8
  402a0b:	aam    0x42
  402a0d:	push   eax
  402a0e:	les    ebp,FWORD PTR [esi+0xcd65389]
  402a14:	mov    bh,BYTE PTR [ecx]
  402a16:	fwait
  402a17:	stos   BYTE PTR es:[edi],al
  402a18:	push   cs
  402a19:	aad    0x5b
  402a1b:	push   esp
  402a1c:	lea    edi,[edx-0x2f]
  402a1f:	add    BYTE PTR [esi-0x762ba389],bl
  402a25:	daa    
  402a26:	sub    bl,dh
  402a28:	iret   
  402a29:	xchg   ebp,eax
  402a2a:	pop    ebx
  402a2b:	aam    0x89
  402a2d:	xlat   BYTE PTR ds:[ebx]
  402a2e:	dec    edi
  402a2f:	fnstenv [ebp+eax*4+0x5b]
  402a33:	pop    ebp
  402a34:	iret   
  402a35:	xchg   BYTE PTR [ebp-0x22],al
  402a38:	sbb    al,0xe6
  402a3a:	xor    edx,DWORD PTR [ebp+0x43d616e5]
  402a40:	ds loopne 0x402a7b
  402a43:	movs   BYTE PTR es:[edi],BYTE PTR ds:[esi]
  402a44:	(bad)  [ecx]
  402a46:	cmps   BYTE PTR ds:[esi],BYTE PTR es:[edi]
  402a47:	jge    0x402ac7
  402a49:	or     al,0x5d
  402a4b:	mov    esi,0x59e11289
  402a50:	adc    esp,eax
  402a52:	xor    ebx,DWORD PTR [esp+ebp*8+0x257fd71b]
  402a59:	jp     0x402a67
  402a5b:	fadd   QWORD PTR [eax]
  402a5d:	cmp    al,0xa3
  402a5f:	test   al,0xb2
  402a61:	popf   
  402a62:	xor    DWORD PTR [ecx+eiz*8+0x762bb77a],edx
  402a69:	in     eax,dx
  402a6a:	call   edx
  402a6c:	mov    DWORD PTR [edx-0x33],edi
  402a6f:	sub    ecx,DWORD PTR [ecx+0x715f4bd0]
  402a75:	jg     0x402a7d
  402a77:	sub    esi,DWORD PTR [esi-0x7b]
  402a7a:	or     ebx,DWORD PTR [ecx+0x3c]
  402a7d:	stos   BYTE PTR es:[edi],al
  402a7e:	pop    esp
  402a7f:	aam    0x89
  402a81:	cmp    al,0xff
  402a83:	ror    BYTE PTR [ecx-0x4a70ad86],cl
  402a89:	ins    DWORD PTR es:[edi],dx
  402a8a:	rcl    cl,1
  402a8c:	mov    DWORD PTR [edx-0x8],edi
  402a8f:	jne    0x402a82
  402a91:	mov    cl,0x7f
  402a93:	and    BYTE PTR [ecx-0x7d],0xa3
  402a97:	sub    esi,DWORD PTR [esi+0x6d]
  402a9a:	(bad)  
  402a9c:	mov    DWORD PTR [edx+0x2a],edi
  402a9f:	rcr    DWORD PTR [eax*4+0xf76d431],cl
  402aa6:	ret    
  402aa7:	jl     0x402a32
  402aa9:	shl    BYTE PTR [ebx+0x5f],1
  402aac:	les    edx,FWORD PTR [edx]
  402aae:	int    0x2b
  402ab0:	and    bl,ch
  402ab2:	pop    edx
  402ab3:	loope  0x402a62
  402ab5:	sub    dh,ah
  402ab7:	jge    0x402ada
  402ab9:	jp     0x402ac7
  402abb:	clc    
  402abc:	shr    DWORD PTR ds:0x6d6e7da6,1
  402ac2:	jo     0x402a9b
  402ac4:	mov    DWORD PTR [edx+0x2a],edi
  402ac7:	ins    DWORD PTR es:[edi],dx
  402ac8:	dec    edx
  402ac9:	or     BYTE PTR [edi-0x2e],bl
  402acc:	out    dx,eax
  402acd:	(bad)  
  402ace:	out    0x3d,eax
  402ad0:	jbe    0x402a77
  402ad2:	sub    al,0xc2
  402ad4:	mov    al,0x22
  402ad6:	xchg   ebx,eax
  402ad7:	pop    edi
  402ad8:	addr16 push cs
  402ada:	add    esp,eax
  402adc:	jecxz  0x402b5c
  402ade:	iret   
  402adf:	sub    eax,DWORD PTR [esi-0x7b]
  402ae2:	pop    ebx
  402ae3:	sub    edi,ecx
  402ae5:	sub    dh,dl
  402ae7:	aam    0x23
  402ae9:	xchg   ebp,eax
  402aea:	(bad)  
  402aeb:	test   eax,0x41f32ae5
  402af0:	jb     0x402ac4
  402af2:	push   cs
  402af3:	sub    ebx,esp
  402af5:	jbe    0x402aea
  402af7:	inc    ecx
  402af8:	je     0x402acc
  402afa:	push   cs
  402afb:	add    BYTE PTR [edx],0xb5
  402afe:	sub    dl,al
  402b00:	test   DWORD PTR [ecx],esp
  402b02:	add    eax,0xff76dc2b
  402b07:	mov    al,ds:0xe81086b8
  402b0c:	add    al,0x3
  402b0e:	mov    edi,0x4aa521a0
  402b13:	arpl   ax,cx
  402b15:	outs   dx,BYTE PTR ds:[esi]
  402b16:	mov    ds:0x103279d3,al
  402b1b:	shr    cl,cl
  402b1d:	icebp  
  402b1e:	out    dx,al
  402b1f:	aas    
  402b20:	repz inc ebp
  402b22:	das    
  402b23:	xchg   ebp,eax
  402b24:	add    bh,BYTE PTR ds:0xf1b6aeaf
  402b2a:	popa   
  402b2b:	cmp    al,0x18
  402b2d:	jle    0x402ad6
  402b2f:	sub    edi,ebp
  402b31:	dec    ebp
  402b32:	(bad)  
  402b33:	xchg   ebx,eax
  402b34:	lods   eax,DWORD PTR ds:[esi]
  402b35:	xchg   edx,eax
  402b36:	shr    BYTE PTR [ecx],1
  402b38:	jbe    0x402abf
  402b3a:	pop    esi
  402b3b:	mov    ds:0x3bde859d,eax
  402b40:	std    
  402b41:	cli    
  402b42:	push   edi
  402b43:	xlat   BYTE PTR ds:[ebx]
  402b44:	jb     0x402b67
  402b46:	mul    DWORD PTR [eax-0x7af4285e]
  402b4c:	fisubr WORD PTR [ebx]
  402b4e:	cmc    
  402b4f:	inc    ecx
  402b50:	jb     0x402b26
  402b52:	add    ch,BYTE PTR [ebx]
  402b54:	fdiv   QWORD PTR [esi-0x4]
  402b57:	sbb    BYTE PTR [esi-0x2981512e],dh
  402b5d:	icebp  
  402b5e:	push   0xffffffd8
  402b60:	sar    BYTE PTR [edx+0xc],cl
  402b63:	fcom   st(1)
  402b65:	sbb    esp,DWORD PTR [edx]
  402b67:	in     al,dx
  402b68:	pop    esi
  402b69:	addr16 call 0xa7bbadab
  402b6f:	sub    ebx,DWORD PTR [esi-0x762ba4fc]
  402b75:	and    cl,bh
  402b77:	sub    esi,DWORD PTR [esi]
  402b79:	test   DWORD PTR [ebx+0x2b],ebx
  402b7c:	cld    
  402b7d:	adc    dh,cl
  402b7f:	mov    al,ds:0x3cab0e8d
  402b84:	cmp    DWORD PTR [esi-0x59],0x2b
  402b88:	adc    bh,BYTE PTR [edx+0x6c]
  402b8b:	in     al,0x89
  402b8d:	jp     0x402b36
  402b8f:	jae    0x402b8e
  402b91:	lds    edx,FWORD PTR [edi+0x5f]
  402b94:	leave  
  402b95:	jbe    0x402b33
  402b97:	jae    0x402c07
  402b99:	icebp  
  402b9a:	pop    edi
  402b9b:	pop    edi
  402b9c:	mov    DWORD PTR [ecx-0x5e855fa2],edx
  402ba2:	pop    esi
  402ba3:	popf   
  402ba4:	mov    ch,0xf1
  402ba6:	aam    0x3
  402ba8:	jne    0x402c1c
  402baa:	shr    BYTE PTR [ecx+edx*4+0x1037d7f3],1
  402bb1:	jb     0x402bcb
  402bb3:	ret    0x5a89
  402bb6:	shl    BYTE PTR [edi],1
  402bb8:	adc    ah,BYTE PTR [ebx+eax*2]
  402bbb:	aam    0x89
  402bbd:	jp     0x402be9
  402bbf:	imul   eax,DWORD PTR [esi+0xc],0x23
  402bc3:	fdiv   QWORD PTR [esi+0x2f]
  402bc6:	mov    bl,0xc3
  402bc8:	add    BYTE PTR [edi-0x4c2b2ba5],al
  402bce:	jmp    DWORD PTR [edx-0x4ab85efe]
  402bd4:	fst    DWORD PTR [edx-0x7a89d068]
  402bda:	add    edx,DWORD PTR [ebp-0xf]
  402bdd:	and    ah,BYTE PTR [edi+0x2c857629]
  402be3:	fild   DWORD PTR [edx]
  402be5:	jle    0x402b6a
  402be7:	in     al,dx
  402be8:	jb     0x402b8b
  402bea:	pop    ebx
  402beb:	aam    0x89
  402bed:	jp     0x402b95
  402bef:	pop    esi
  402bf0:	push   edx
  402bf1:	or     DWORD PTR [ebx],0xc7b949e7
  402bf7:	mov    al,ds:0xe82d8685
  402bfc:	add    cl,ah
  402bfe:	daa    
  402bff:	sub    esi,DWORD PTR [esi-0x7b]
  402c02:	fsub   QWORD PTR [edx]
  402c04:	std    
  402c05:	or     DWORD PTR [edx+0x57fbfdd8],esp
  402c0b:	push   ecx
  402c0c:	jbe    0x402c1c
  402c0e:	int    0x28
  402c10:	(bad)  
  402c11:	rcr    BYTE PTR [edx-0x7e],cl
  402c14:	(bad)  
  402c15:	jmp    DWORD PTR [edi+0x5e]
  402c18:	jb     0x402bec
  402c1a:	pop    edx
  402c1b:	or     BYTE PTR [ecx+0xa0f12a],0x95
  402c22:	pop    esi
  402c23:	daa    
  402c24:	add    al,BYTE PTR [eax+ecx*1-0x590f4952]
  402c2b:	(bad)  
  402c2c:	jle    0x402c1f
  402c2e:	imul   esi,DWORD PTR [ebp+0x27],0x8dbe0fd5
  402c35:	sub    edi,esi
  402c37:	aam    0x23
  402c39:	mov    DWORD PTR ds:0x67ff8f5f,ecx
  402c3f:	mov    ebx,0xc41d0ee6
  402c44:	add    al,0x4e
  402c46:	mov    ds:0x9b00db7c,al
  402c4b:	mov    al,ds:0x2ba7d392
  402c50:	jbe    0x402c57
  402c52:	sub    al,0xd0
  402c54:	add    al,0x3e
  402c56:	mov    ds:0x5a7a5329,al
  402c5b:	aam    0x9
  402c5d:	sub    ah,BYTE PTR [esi+0x5a91525e]
  402c63:	add    BYTE PTR [ecx+0x29cb4ad1],0xdb
  402c6a:	add    ecx,DWORD PTR [ebp+0x7cf42add]
  402c70:	mov    eax,edx
  402c72:	push   edi
  402c73:	mov    WORD PTR [edx],cs
  402c75:	mov    esp,0xe4f9c0b3
  402c7a:	sahf   
  402c7b:	mov    ah,0x2
  402c7d:	test   eax,0xf375d92a
  402c82:	addr16 (bad) 
  402c84:	fisttp WORD PTR [esi+0x20]
  402c87:	stc    
  402c88:	jns    0x402c8b
  402c8a:	int3   
  402c8b:	aam    0x89
  402c8d:	jp     0x402cb9
  402c8f:	movs   DWORD PTR es:[edi],DWORD PTR ds:[esi]
  402c90:	rol    BYTE PTR [ebp-0x33fd2ba5],cl
  402c96:	pop    es
  402c97:	sub    esi,DWORD PTR [esi-0x7b]
  402c9a:	fsub   QWORD PTR [edx]
  402c9c:	xchg   dh,bh
  402c9e:	and    al,0x2b
  402ca0:	jbe    0x402c27
  402ca2:	pop    esi
  402ca3:	daa    
  402ca4:	and    al,0xf1
  402ca6:	pop    edi
  402ca7:	sub    BYTE PTR [ebp-0x26ef292b],cl
  402cad:	sub    esi,ebp
  402caf:	jnp    0x402ccd
  402cb1:	xor    DWORD PTR [ebx],0xa77a99d4
  402cb7:	jl     0x402cae
  402cb9:	ins    DWORD PTR es:[edi],dx
  402cba:	pop    edi
  402cbb:	test   bl,ah
  402cbd:	jle    0x402c8e
  402cbf:	sub    esp,DWORD PTR [esi-0x7b]
  402cc2:	pop    ebx
  402cc3:	or     DWORD PTR [eax],0x7e
  402cc6:	sub    DWORD PTR [ebx],0x66
  402cc9:	test   DWORD PTR [ebx+0x2b],ebx
  402ccc:	fdiv   QWORD PTR [esi-0x5a]
  402ccf:	jge    0x402d4b
  402cd1:	fild   WORD PTR [eax]
  402cd3:	jns    0x402c77
  402cd5:	mov    dl,0xf4
  402cd7:	mov    al,ds:0x57b054be
  402cdc:	pusha  
  402cdd:	jle    0x402c71
  402cdf:	jmp    0x402cf1
  402ce1:	sub    BYTE PTR ds:0xd34a897d,bh
  402ce7:	and    edx,DWORD PTR [ebx+0x7a]
  402cea:	dec    edx
  402ceb:	aam    0x89
  402ced:	jnp    0x402ca2
  402cef:	sub    al,0x94
  402cf1:	imul   eax,DWORD PTR [eax],0x59
  402cf4:	int    0x5e
  402cf6:	mov    ds:0x5ad5247a,eax
  402cfb:	in     eax,0xe1
  402cfd:	jp     0x402cb6
  402cff:	sub    esi,DWORD PTR [esi-0x2e]
  402d02:	fidivr WORD PTR [ecx*4+0x1e1aa62a]
  402d09:	test   DWORD PTR [ebx-0x2c],ecx
  402d0c:	mov    DWORD PTR ds:0x85522f24,ebp
  402d12:	dec    ebx
  402d13:	aam    0x89
  402d15:	test   eax,esi
  402d17:	daa    
  402d18:	mov    eax,edx
  402d1a:	push   edi
  402d1b:	mov    ss,eax
  402d1d:	and    bh,bh
  402d1f:	scas   al,BYTE PTR es:[edi]
  402d20:	mov    edi,0x4ab5d8f0
  402d25:	sbb    cl,BYTE PTR [edx+0x2c]
  402d28:	(bad)  [edi-0x5c]
  402d2b:	pop    ecx
  402d2c:	mov    ebp,0x9ea06279
  402d31:	push   cs
  402d32:	scas   al,BYTE PTR es:[edi]
  402d33:	ins    DWORD PTR es:[edi],dx
  402d34:	cdq    
  402d35:	jp     0x402cde
  402d37:	sub    ebx,DWORD PTR [esi-0x762ba592]
  402d3d:	rol    BYTE PTR [esi-0x4c7a89d5],0x35
  402d44:	jbe    0x402ccb
  402d46:	cmps   BYTE PTR ds:[esi],BYTE PTR es:[edi]
  402d47:	jl     0x402d18
  402d49:	sbb    BYTE PTR [ebx-0x2c],0x89
  402d4d:	xchg   edx,eax
  402d4e:	jno    0x402d24
  402d50:	mov    DWORD PTR [edx-0x2a],edi
  402d53:	add    al,0x2
  402d55:	dec    esi
  402d56:	adc    DWORD PTR [edx-0x2ba47a81],0x61
  402d5d:	mov    ebp,0x9762ba6
  402d62:	movs   DWORD PTR es:[edi],DWORD PTR ds:[esi]
  402d63:	pop    edi
  402d64:	inc    ebx
  402d65:	xchg   edx,eax
  402d66:	sbb    esp,edx
  402d68:	mov    DWORD PTR [edx+0x6e],edi
  402d6b:	adc    al,0xd9
  402d6d:	mov    ebx,0x81b72c6f
  402d72:	jg     0x402d4d
  402d74:	mov    BYTE PTR [esi-0x7d],bh
  402d77:	xchg   edx,esi
  402d79:	inc    ebp
  402d7a:	sub    al,0x25
  402d7c:	shl    ecx,1
  402d7e:	pop    esi
  402d7f:	adc    BYTE PTR [ebx-0x361a10f],dh
  402d85:	cmps   DWORD PTR ds:[esi],DWORD PTR es:[edi]
  402d86:	sub    bl,BYTE PTR [edi]
  402d88:	push   edx
  402d89:	cmp    al,0x51
  402d8b:	aam    0x89
  402d8d:	jp     0x402dde
  402d8f:	mov    esi,0xc45a7a89
  402d94:	ds jbe 0x402d88
  402d97:	jne    0x402dc0
  402d99:	cmp    al,0x53
  402d9b:	aam    0x89
  402d9d:	jp     0x402dee
  402d9f:	scas   al,BYTE PTR es:[edi]
  402da0:	mov    DWORD PTR [edx+0x5a],edi
  402da3:	mov    fs,WORD PTR [ecx+0x5]
  402da6:	cmps   BYTE PTR ds:[esi],BYTE PTR es:[edi]
  402da7:	sub    esi,DWORD PTR [esi+0xf]
  402daa:	das    
  402dab:	lock xchg ebp,eax
  402dad:	sbb    esp,DWORD PTR [edx+0x7a]
  402db0:	mov    bh,0x6d
  402db2:	inc    esp
  402db3:	ins    DWORD PTR es:[edi],dx
  402db4:	test   eax,0x3e2ba77a
  402db9:	icebp  
  402dba:	imul   ebp,DWORD PTR [ebp-0x75],0x7a
  402dbe:	cmps   DWORD PTR ds:[esi],DWORD PTR es:[edi]
  402dbf:	sub    edi,DWORD PTR [esi]
  402dc1:	icebp  
  402dc2:	jae    0x402e31
  402dc4:	test   eax,0x3e2ba77a
  402dc9:	icebp  
  402dca:	jnp    0x402e39
  402dcc:	lea    edi,[edx-0x59]
  402dcf:	sub    edi,DWORD PTR [esi]
  402dd1:	icebp  
  402dd2:	inc    ebx
  402dd3:	ins    DWORD PTR es:[edi],dx
  402dd4:	leave  
  402dd5:	jp     0x402d7e
  402dd7:	sub    edi,DWORD PTR [esi]
  402dd9:	icebp  
  402dda:	dec    ebx
  402ddb:	ins    DWORD PTR es:[edi],dx
  402ddc:	lea    edi,[edx-0x59]
  402ddf:	sub    edi,DWORD PTR [esi]
  402de1:	icebp  
  402de2:	push   ebx
  402de3:	ins    DWORD PTR es:[edi],dx
  402de4:	leave  
  402de5:	jp     0x402d8e
  402de7:	sub    edi,DWORD PTR [esi]
  402de9:	icebp  
  402dea:	pop    ebx
  402deb:	pop    edi
  402dec:	dec    eax
  402ded:	and    esp,DWORD PTR [edx+0x4b]
  402df0:	std    
  402df1:	shr    BYTE PTR [ebx],1
  402df3:	push   ebp
  402df4:	jnp    0x402de1
  402df6:	dec    ebp
  402df7:	outs   dx,BYTE PTR ds:[esi]
  402df8:	push   cs
  402df9:	push   cs
  402dfa:	adc    al,0xbc
  402dfc:	add    al,BYTE PTR [edx+eiz*1+0x2f852e56]
  402e03:	xlat   BYTE PTR ds:[ebx]
  402e04:	mov    BYTE PTR [edi],cl
  402e06:	jmp    DWORD PTR [eax+0x14dce533]
  402e0c:	std    
  402e0d:	outs   dx,DWORD PTR ds:[esi]
  402e0e:	sub    al,0x6d
  402e10:	dec    edx
  402e11:	xlat   BYTE PTR ds:[ebx]
  402e12:	loope  0x402de4
  402e14:	mov    DWORD PTR [edx-0x59],edi
  402e17:	ret    
  402e18:	rol    DWORD PTR [ebx+ebx*2+0x5779d3d4],cl
  402e1f:	sub    BYTE PTR [esi-0x3106c52],cl
  402e25:	and    dl,al
  402e27:	es jne 0x402e1a
  402e2a:	pop    es
  402e2b:	xlat   BYTE PTR ds:[ebx]
  402e2c:	hlt    
  402e2d:	mov    ah,BYTE PTR es:[esi+0x2a]
  402e31:	add    BYTE PTR [eax-0x8287d60],dl
  402e37:	add    BYTE PTR [edi+ebx*8+0x796057f6],dh
  402e3e:	inc    ebp
  402e3f:	enter  0x4617,0x3b
  402e43:	push   edi
  402e44:	hlt    
  402e45:	cmps   DWORD PTR ss:[esi],DWORD PTR es:[edi]
  402e47:	pop    edi
  402e48:	fs ins DWORD PTR es:[edi],dx
  402e4a:	dec    edx
  402e4b:	aam    0x89
  402e4d:	jp     0x402e79
  402e4f:	push   esi
  402e50:	and    al,BYTE PTR [eax]
  402e52:	pop    edx
  402e53:	mov    eax,ds:0x884fd18f
  402e58:	jbe    0x402ddf
  402e5a:	pop    ebx
  402e5b:	mov    ch,0x4a
  402e5d:	sbb    ah,BYTE PTR [esi-0x7cf1b583]
  402e63:	pop    edi
  402e64:	cld    
  402e65:	sub    ch,BYTE PTR ss:[esi+0x26]
  402e69:	aad    0xb
  402e6b:	mov    esp,0x2bab7a89
  402e70:	and    eax,0xd0940c7a
  402e75:	sub    ch,BYTE PTR [edx]
  402e77:	rol    DWORD PTR [ebp-0x76134cdf],cl
  402e7d:	jp     0x402e26
  402e7f:	arpl   di,di
  402e81:	sar    DWORD PTR [edi-0xc],0x2
  402e85:	sub    BYTE PTR [eax],0x27
  402e88:	retf   
  402e89:	sbb    DWORD PTR [ebx-0x2c],0x33041e89
  402e90:	jbe    0x402e17
  402e92:	pop    ebx
  402e93:	pop    edi
  402e94:	stc    
  402e95:	push   esi
  402e96:	hlt    
  402e97:	inc    ebx
  402e98:	jbe    0x402e1f
  402e9a:	push   edi
  402e9b:	aam    0xda
  402e9d:	test   eax,esi
  402e9f:	imul   edi,ebx,0xffffff89
  402ea2:	jecxz  0x402eff
  402ea4:	mov    BYTE PTR [edx],ch
  402ea6:	sub    ah,ah
  402ea8:	std    
  402ea9:	jge    0x402e59
  402eab:	jno    0x402e9a
  402ead:	fstp   TBYTE PTR [edi-0x357a89d5]
  402eb3:	xchg   esp,eax
  402eb4:	movs   DWORD PTR es:[edi],DWORD PTR ds:[esi]
  402eb5:	sbb    esp,DWORD PTR [edx+0x4b]
  402eb8:	imul   DWORD PTR [ecx+0x7b]
  402ebb:	(bad)  
  402ebc:	mov    DWORD PTR [edx-0x31],edi
  402ebf:	pcmpeqb mm0,QWORD PTR [ebp+0x107fe75b]
  402ec6:	cmps   DWORD PTR ds:[esi],DWORD PTR es:[edi]
  402ec7:	inc    ecx
  402ec8:	jle    0x402f44
  402eca:	or     al,0xc8
  402ecc:	add    ah,BYTE PTR [edx-0x2f76870d]
  402ed2:	outs   dx,DWORD PTR ds:[esi]
  402ed3:	pop    edi
  402ed4:	int    0x5e
  402ed6:	mov    ebx,0xd6b93628
  402edb:	push   esp
  402edc:	dec    ecx
  402edd:	jp     0x402e86
  402edf:	sub    esi,ebx
  402ee1:	inc    ebp
  402ee2:	das    
  402ee3:	aad    0xcf
  402ee5:	cs repnz aam 0x23
  402ee9:	mov    ebp,0x9ffc14dc
  402eee:	repnz aam 0x23
  402ef1:	popf   
  402ef2:	fcom   DWORD PTR [eax]
  402ef4:	lods   eax,DWORD PTR ds:[esi]
  402ef5:	js     0x402e9e
  402ef7:	sub    edi,edi
  402ef9:	icebp  
  402efa:	jg     0x402ec4
  402efc:	call   0x1a83f6ba
  402f01:	jmp    0x9220361
  402f06:	rol    DWORD PTR ds:0xa734ed12,cl
  402f0c:	call   FWORD PTR [ecx]
  402f0e:	repz aam 0x23
  402f11:	sbb    esp,0xf372fc14
  402f17:	aam    0x23
  402f19:	test   esp,ebx
  402f1b:	adc    al,0xfd
  402f1d:	aaa    
  402f1e:	int    0x2b
  402f20:	push   ds
  402f21:	in     al,dx
  402f22:	xor    eax,0xc112efa0
  402f27:	pop    esp
  402f28:	push   es
  402f29:	test   DWORD PTR [edi],0xaf2f7684
  402f2f:	test   al,0xb2
  402f31:	mov    esi,edx
  402f33:	and    al,0xd9
  402f35:	cs int 0x6b
  402f38:	sbb    al,0x82
  402f3a:	or     eax,0xff76dc2b
  402f3f:	jnp    0x402f63
  402f41:	aad    0x31
  402f43:	rcr    edi,cl
  402f45:	xchg   edx,eax
  402f46:	sub    DWORD PTR [ebx],0xe8d68576
  402f4c:	lods   eax,DWORD PTR ds:[esi]
  402f4d:	sti    
  402f4e:	outs   dx,BYTE PTR ds:[esi]
  402f4f:	cmp    DWORD PTR [esi-0x7b],esi
  402f52:	pop    ebx
  402f53:	mov    esi,0x8f52238e
  402f58:	xor    DWORD PTR [esi],ecx
  402f5a:	popf   
  402f5b:	jg     0x402f61
  402f5d:	add    al,0x5c
  402f5f:	fwait
  402f60:	push   ds
  402f61:	das    
  402f62:	add    edi,DWORD PTR [edi+0x39]
  402f65:	mov    ecx,0x8923d40d
  402f6a:	add    edx,DWORD PTR [edi+0x4d]
  402f6d:	jbe    0x402f33
  402f6f:	call   0x81cba9a2
  402f74:	popa   
  402f75:	in     al,0xa7
  402f77:	sub    esi,DWORD PTR [esi-0x28]
  402f7a:	aam    0x91
  402f7c:	stc    
  402f7d:	stc    
  402f7e:	addr16 das 
  402f80:	inc    ecx
  402f82:	jg     0x402f48
  402f84:	aam    0x7a
  402f86:	cmps   DWORD PTR ds:[esi],DWORD PTR es:[edi]
  402f87:	sub    esi,DWORD PTR [esi-0x7b]
  402f8a:	pop    ebx
  402f8b:	aam    0xe1
  402f8d:	jp     0x402f36
  402f8f:	sub    esi,DWORD PTR [esi+0x46]
  402f92:	cmp    eax,0x1d1c7fe7
  402f97:	data16 sub al,0xe3
  402f9a:	hlt    
  402f9b:	mov    dl,0xba
  402f9d:	stos   BYTE PTR es:[edi],al
  402f9e:	shl    DWORD PTR [ebx],cl
  402fa0:	imul   DWORD PTR [ebx+0x59]
  402fa3:	les    ecx,FWORD PTR [ecx-0x439b586]
  402fa9:	(bad)  [ebp+0x540f7650]
  402faf:	mov    al,ds:0x6e3dbf00
  402fb4:	fnstcw WORD PTR [edi]
  402fb6:	sub    BYTE PTR [edi],bl
  402fb8:	push   0xbab2f4e3
  402fbd:	stos   BYTE PTR es:[edi],al
  402fbe:	ror    bl,1
  402fc0:	mov    ch,0xd4
  402fc2:	outs   dx,BYTE PTR ds:[esi]
  402fc3:	sbb    eax,0x536551c8
  402fc8:	jb     0x402fbb
  402fca:	pop    ecx
  402fcb:	aas    
  402fcc:	jle    0x403017
  402fce:	sub    BYTE PTR [si-0x5899],dh
  402fd3:	lea    ecx,[edx-0xf]
  402fd6:	fadd   DWORD PTR [ebx+0x1c]
  402fd9:	xor    DWORD PTR [ebx],0xa77a99d4
  402fdf:	jl     0x402ffd
  402fe1:	test   DWORD PTR [edx-0x7e],ebx
  402fe4:	cdq    
  402fe5:	icebp  
  402fe6:	push   edi
  402fe7:	stos   BYTE PTR es:[edi],al
  402fe8:	call   0x5bf1:0x89d45881
  402fef:	inc    ebx
  402ff0:	jb     0x402f76
  402ff2:	pop    ebx
  402ff3:	aam    0xde
  402ff5:	sub    DWORD PTR [esi+0x5bef567d],esp
  402ffb:	mov    esp,0x2ba77a09
  403000:	sbb    al,0x86
  403002:	xor    esp,edx
  403004:	jecxz  0x403081
  403006:	iret   
  403007:	sub    esi,DWORD PTR [esi-0x7b]
  40300a:	fild   DWORD PTR [ebx-0x557cd08a]
  403010:	mov    dl,0x81
  403012:	pop    eax
  403013:	aam    0x89
  403015:	mov    ecx,0x55897337
  40301a:	cmps   BYTE PTR ds:[esi],BYTE PTR es:[edi]
  40301b:	add    BYTE PTR [ebx],ch
  40301d:	sbb    ebp,DWORD PTR ds:0x14c87217
  403023:	ins    BYTE PTR es:[edi],dx
  403024:	es mov dh,0x78
  403027:	adc    bh,ch
  403029:	add    edi,DWORD PTR [ebx+0x58]
  40302c:	rcr    DWORD PTR [eax],0x44
  40302f:	pop    ecx
  403030:	scas   eax,DWORD PTR es:[edi]
  403031:	sahf   
  403032:	mov    ebx,0x3a165768
  403037:	test   edx,ebp
  403039:	push   ecx
  40303a:	fwait
  40303b:	test   eax,0xdb467fe6
  403041:	xchg   edx,eax
  403042:	movs   DWORD PTR es:[edi],DWORD PTR ds:[esi]
  403043:	sbb    eax,0x47e1ff23
  403048:	in     al,dx
  403049:	lods   al,BYTE PTR ds:[esi]
  40304a:	push   ebx
  40304b:	push   edi
  40304c:	sbb    ch,0x1c
  40304f:	int    0x60
  403051:	test   BYTE PTR [ebx],bl
  403053:	enter  0xf188,0x1a
  403057:	arpl   WORD PTR [edx+eax*2+0x5cd56bd4],dx
  40305e:	movs   DWORD PTR es:[edi],DWORD PTR ds:[esi]
  40305f:	mov    eax,0xd45b3249
  403064:	mov    DWORD PTR [edx-0x59],edi
  403067:	sub    esi,DWORD PTR [esi-0x7b]
  40306a:	pop    ebx
  40306b:	aam    0x89
  40306d:	jp     0x403016
  40306f:	sub    esi,DWORD PTR [esi-0x7b]
  403072:	pop    ebx
  403073:	aam    0x89
  403075:	jp     0x40301e
  403077:	sub    esi,DWORD PTR [esi-0x7b]
  40307a:	pop    ebx
  40307b:	aam    0x89
  40307d:	jp     0x403056
  40307f:	movs   DWORD PTR es:[edi],DWORD PTR ds:[esi]
  403080:	ja     0x403007
  403082:	pop    ebx
  403083:	push   es
  403084:	lea    edi,[edx-0x59]
  403087:	das    
  403088:	jbe    0x40300f
  40308a:	xchg   esi,eax
  40308b:	jmp    0x1c23:0x4567845
  403092:	push   ebp
  403093:	arpl   WORD PTR [ecx],sp
  403095:	data16 (bad) 
  403097:	movs   DWORD PTR es:[edi],DWORD PTR ds:[esi]
  403098:	.byte 0xbc
  403099:	fisubr DWORD PTR [ebp+0x1b]
