
6ad28077c7f6e16648de5e9e924208f84fd9dc4b57f0caf84a6c6344953b9a2c.exe:     file format pei-i386


Disassembly of section .text:

00401000 <.text>:
  401000:	mov    edi,edi
  401002:	push   ebp
  401003:	mov    ebp,esp
  401005:	sub    esp,0x40
  401008:	push   eax
  401009:	lea    edx,[eax-0x100]
  40100f:	push   edx
  401010:	mov    eax,ds:0x404010
  401015:	call   eax
  401017:	test   eax,eax
  401019:	jne    0x401009
  40101b:	pop    eax
  40101c:	push   eax
  40101d:	push   ecx
  40101e:	push   esi
  40101f:	call   0x4023cc
  401024:	add    esp,0x8
  401027:	pop    eax
  401028:	push   eax
  401029:	push   0x0
  40102b:	mov    eax,ds:0x40403c
  401030:	call   eax
  401032:	pop    eax
  401033:	sub    esp,0xffffffc0
  401036:	mov    ebp,DWORD PTR [esp]
  401039:	add    esp,0x4
  40103c:	ret    
	...
  40108d:	add    BYTE PTR [eax],al
  40108f:	add    BYTE PTR [ebx-0x1374aa01],cl
  401095:	sub    esp,0x24
  401098:	push   eax
  401099:	push   DWORD PTR [eax+0x150]
  40109f:	push   edx
  4010a0:	push   edi
  4010a1:	call   0x4015ac
  4010a6:	add    esp,0xc
  4010a9:	pop    eax
  4010aa:	push   eax
  4010ab:	push   0x0
  4010ad:	mov    eax,ds:0x404024
  4010b2:	call   eax
  4010b4:	pop    eax
  4010b5:	push   eax
  4010b6:	push   0x0
  4010b8:	mov    eax,ds:0x404044
  4010bd:	call   eax
  4010bf:	pop    eax
  4010c0:	sub    esp,0xffffffdc
  4010c3:	mov    ebp,DWORD PTR [esp]
  4010c6:	add    esp,0x4
  4010c9:	ret    
  4010ca:	add    BYTE PTR [eax],al
  4010cc:	mov    edi,edi
  4010ce:	push   ebp
  4010cf:	mov    ebp,esp
  4010d1:	sub    esp,0x4c
  4010d4:	push   eax
  4010d5:	push   DWORD PTR [eax+0x320]
  4010db:	push   ecx
  4010dc:	call   0x4019e8
  4010e1:	add    esp,0x8
  4010e4:	pop    eax
  4010e5:	push   eax
  4010e6:	push   0x0
  4010e8:	mov    eax,ds:0x404040
  4010ed:	call   eax
  4010ef:	pop    eax
  4010f0:	push   eax
  4010f1:	push   0x0
  4010f3:	mov    eax,ds:0x404030
  4010f8:	call   eax
  4010fa:	pop    eax
  4010fb:	sub    esp,0xffffffb4
  4010fe:	mov    ebp,DWORD PTR [esp]
  401101:	add    esp,0x4
  401104:	ret    
  401105:	add    BYTE PTR [eax],al
  401107:	add    BYTE PTR [ecx-0x3d],ah
  40110a:	add    BYTE PTR [eax],al
  40110c:	mov    edi,edi
  40110e:	push   ebp
  40110f:	mov    ebp,esp
  401111:	sub    esp,0x54
  401114:	push   eax
  401115:	mov    eax,ds:0x404038
  40111a:	call   eax
  40111c:	pop    eax
  40111d:	push   eax
  40111e:	push   edx
  40111f:	push   edx
  401120:	push   DWORD PTR [eax+0xdc]
  401126:	push   DWORD PTR [eax+0x3f8]
  40112c:	call   0x4010cc
  401131:	add    esp,0x10
  401134:	pop    eax
  401135:	mov    esi,0x404010
  40113a:	mov    esi,DWORD PTR [esi]
  40113c:	push   esi
  40113d:	push   DWORD PTR [eax-0x7c]
  401140:	pop    edi
  401141:	call   edi
  401143:	sub    esp,0xffffffac
  401146:	mov    ebp,DWORD PTR [esp]
  401149:	add    esp,0x4
  40114c:	ret    
	...
  40119d:	add    BYTE PTR [eax],al
  40119f:	add    BYTE PTR [ebx-0x1374aa01],cl
  4011a5:	sub    esp,0x4c
  4011a8:	push   eax
  4011a9:	push   edx
  4011aa:	push   ebx
  4011ab:	push   DWORD PTR [eax+0x1bc]
  4011b1:	push   DWORD PTR [eax+0x3fc]
  4011b7:	call   0x4022fc
  4011bc:	add    esp,0x10
  4011bf:	pop    eax
  4011c0:	push   eax
  4011c1:	mov    edi,0x0
  4011c6:	push   edi
  4011c7:	mov    eax,ds:0x404078
  4011cc:	call   eax
  4011ce:	pop    eax
  4011cf:	push   eax
  4011d0:	mov    ecx,0x0
  4011d5:	push   ecx
  4011d6:	mov    eax,ds:0x40404c
  4011db:	call   eax
  4011dd:	pop    eax
  4011de:	sub    esp,0xffffffb4
  4011e1:	mov    ebp,DWORD PTR [esp]
  4011e4:	add    esp,0x4
  4011e7:	ret    
  4011e8:	mov    edi,edi
  4011ea:	push   ebp
  4011eb:	mov    ebp,esp
  4011ed:	sub    esp,0x24
  4011f0:	push   eax
  4011f1:	push   0x0
  4011f3:	mov    eax,ds:0x404044
  4011f8:	call   eax
  4011fa:	pop    eax
  4011fb:	push   eax
  4011fc:	push   edi
  4011fd:	push   DWORD PTR [eax+0x324]
  401203:	push   DWORD PTR [eax+0x200]
  401209:	push   edx
  40120a:	call   0x4011a0
  40120f:	add    esp,0x10
  401212:	pop    eax
  401213:	push   eax
  401214:	mov    ebx,0x0
  401219:	push   ebx
  40121a:	mov    eax,ds:0x404044
  40121f:	call   eax
  401221:	pop    eax
  401222:	sub    esp,0xffffffdc
  401225:	mov    ebp,DWORD PTR [esp]
  401228:	add    esp,0x4
  40122b:	ret    
  40122c:	mov    edi,edi
  40122e:	push   ebp
  40122f:	mov    ebp,esp
  401231:	sub    esp,0x40
  401234:	push   eax
  401235:	mov    esi,0x0
  40123a:	push   esi
  40123b:	mov    eax,ds:0x404068
  401240:	call   eax
  401242:	pop    eax
  401243:	push   eax
  401244:	push   esi
  401245:	push   DWORD PTR [eax+0x150]
  40124b:	push   DWORD PTR [eax+0x118]
  401251:	call   0x401958
  401256:	add    esp,0xc
  401259:	pop    eax
  40125a:	push   eax
  40125b:	mov    eax,ds:0x404000
  401260:	call   eax
  401262:	pop    eax
  401263:	sub    esp,0xffffffc0
  401266:	mov    ebp,DWORD PTR [esp]
  401269:	add    esp,0x4
  40126c:	ret    
  40126d:	add    BYTE PTR [eax],al
  40126f:	add    BYTE PTR [ebx-0x1374aa01],cl
  401275:	sub    esp,0x5c
  401278:	push   eax
  401279:	mov    edx,0x0
  40127e:	push   edx
  40127f:	mov    eax,ds:0x404034
  401284:	call   eax
  401286:	pop    eax
  401287:	push   eax
  401288:	push   DWORD PTR [eax+0x194]
  40128e:	push   DWORD PTR [eax+0x370]
  401294:	call   0x40240c
  401299:	add    esp,0x8
  40129c:	pop    eax
  40129d:	push   eax
  40129e:	push   0x0
  4012a0:	mov    eax,ds:0x404048
  4012a5:	call   eax
  4012a7:	pop    eax
  4012a8:	sub    esp,0xffffffa4
  4012ab:	mov    ebp,DWORD PTR [esp]
  4012ae:	add    esp,0x4
  4012b1:	ret    
	...
  401302:	add    BYTE PTR [eax],al
  401304:	mov    edi,edi
  401306:	push   ebp
  401307:	mov    ebp,esp
  401309:	sub    esp,0x28
  40130c:	push   eax
  40130d:	push   DWORD PTR [eax+0x8c]
  401313:	push   DWORD PTR [eax+0x3c]
  401316:	push   DWORD PTR [eax+0x1c0]
  40131c:	push   edx
  40131d:	call   0x401b5c
  401322:	add    esp,0x10
  401325:	pop    eax
  401326:	push   eax
  401327:	push   0x0
  401329:	mov    eax,ds:0x404030
  40132e:	call   eax
  401330:	pop    eax
  401331:	push   eax
  401332:	push   0x0
  401334:	mov    eax,ds:0x404040
  401339:	call   eax
  40133b:	pop    eax
  40133c:	sub    esp,0xffffffd8
  40133f:	mov    ebp,DWORD PTR [esp]
  401342:	add    esp,0x4
  401345:	ret    
	...
  4013e6:	add    BYTE PTR [eax],al
  4013e8:	mov    edi,edi
  4013ea:	push   ebp
  4013eb:	mov    ebp,esp
  4013ed:	sub    esp,0x40
  4013f0:	push   eax
  4013f1:	push   DWORD PTR [eax+0x10]
  4013f4:	push   ecx
  4013f5:	push   DWORD PTR [eax+0xf0]
  4013fb:	call   0x4011e8
  401400:	add    esp,0xc
  401403:	pop    eax
  401404:	push   eax
  401405:	mov    edx,0x0
  40140a:	push   edx
  40140b:	mov    eax,ds:0x404034
  401410:	call   eax
  401412:	pop    eax
  401413:	push   eax
  401414:	mov    ebx,0x0
  401419:	push   ebx
  40141a:	mov    eax,ds:0x404040
  40141f:	call   eax
  401421:	pop    eax
  401422:	sub    esp,0xffffffc0
  401425:	mov    ebp,DWORD PTR [esp]
  401428:	add    esp,0x4
  40142b:	ret    
	...
  4014cc:	mov    edi,edi
  4014ce:	push   ebp
  4014cf:	mov    ebp,esp
  4014d1:	sub    esp,0x4c
  4014d4:	push   eax
  4014d5:	push   ecx
  4014d6:	push   edx
  4014d7:	push   edi
  4014d8:	push   DWORD PTR [eax+0x39c]
  4014de:	call   0x4017cc
  4014e3:	add    esp,0x10
  4014e6:	pop    eax
  4014e7:	push   eax
  4014e8:	push   0x0
  4014ea:	mov    eax,ds:0x404034
  4014ef:	call   eax
  4014f1:	pop    eax
  4014f2:	push   eax
  4014f3:	mov    ebx,0x0
  4014f8:	push   ebx
  4014f9:	mov    eax,ds:0x404034
  4014fe:	call   eax
  401500:	pop    eax
  401501:	sub    esp,0xffffffb4
  401504:	mov    ebp,DWORD PTR [esp]
  401507:	add    esp,0x4
  40150a:	ret    
	...
  4015ab:	add    BYTE PTR [ebx-0x1374aa01],cl
  4015b1:	sub    esp,0x30
  4015b4:	push   eax
  4015b5:	push   edx
  4015b6:	push   DWORD PTR [eax+0x3a4]
  4015bc:	push   DWORD PTR [eax+0x90]
  4015c2:	push   ebx
  4015c3:	call   0x4013e8
  4015c8:	add    esp,0x10
  4015cb:	pop    eax
  4015cc:	push   eax
  4015cd:	lea    edi,[eax-0x100]
  4015d3:	push   edi
  4015d4:	mov    eax,ds:0x404010
  4015d9:	call   eax
  4015db:	test   eax,eax
  4015dd:	jne    0x4015cd
  4015df:	pop    eax
  4015e0:	push   eax
  4015e1:	mov    eax,ds:0x404038
  4015e6:	call   eax
  4015e8:	pop    eax
  4015e9:	sub    esp,0xffffffd0
  4015ec:	mov    ebp,DWORD PTR [esp]
  4015ef:	add    esp,0x4
  4015f2:	ret    
	...
  401693:	add    BYTE PTR [ebx-0x1374aa01],cl
  401699:	sub    esp,0x44
  40169c:	push   eax
  40169d:	mov    eax,ds:0x404020
  4016a2:	call   eax
  4016a4:	pop    eax
  4016a5:	push   eax
  4016a6:	push   ecx
  4016a7:	push   edi
  4016a8:	push   esi
  4016a9:	push   DWORD PTR [eax+0x2a0]
  4016af:	call   0x4028f0
  4016b4:	add    esp,0x10
  4016b7:	pop    eax
  4016b8:	push   eax
  4016b9:	mov    ecx,0x0
  4016be:	push   ecx
  4016bf:	mov    eax,ds:0x404068
  4016c4:	call   eax
  4016c6:	pop    eax
  4016c7:	sub    esp,0xffffffbc
  4016ca:	mov    ebp,DWORD PTR [esp]
  4016cd:	add    esp,0x4
  4016d0:	ret    
  4016d1:	add    BYTE PTR [eax],al
  4016d3:	add    BYTE PTR [ebx-0x1374aa01],cl
  4016d9:	sub    esp,0x60
  4016dc:	push   eax
  4016dd:	push   0x0
  4016df:	mov    eax,ds:0x404060
  4016e4:	call   eax
  4016e6:	pop    eax
  4016e7:	push   eax
  4016e8:	push   edi
  4016e9:	push   edx
  4016ea:	call   0x402608
  4016ef:	add    esp,0x8
  4016f2:	pop    eax
  4016f3:	push   eax
  4016f4:	push   0x0
  4016f6:	mov    eax,ds:0x404048
  4016fb:	call   eax
  4016fd:	pop    eax
  4016fe:	sub    esp,0xffffffa0
  401701:	mov    ebp,DWORD PTR [esp]
  401704:	add    esp,0x4
  401707:	ret    
	...
  401758:	mov    edi,edi
  40175a:	push   ebp
  40175b:	mov    ebp,esp
  40175d:	sub    esp,0x48
  401760:	push   eax
  401761:	push   DWORD PTR [eax+0x104]
  401767:	push   esi
  401768:	push   esi
  401769:	push   edi
  40176a:	call   0x4021ec
  40176f:	add    esp,0x10
  401772:	pop    eax
  401773:	push   eax
  401774:	mov    eax,ds:0x404000
  401779:	call   eax
  40177b:	pop    eax
  40177c:	push   eax
  40177d:	push   0x0
  40177f:	mov    eax,ds:0x404078
  401784:	call   eax
  401786:	pop    eax
  401787:	sub    esp,0xffffffb8
  40178a:	mov    ebp,DWORD PTR [esp]
  40178d:	add    esp,0x4
  401790:	ret    
  401791:	add    BYTE PTR [eax],al
  401793:	add    BYTE PTR [ebx-0x1374aa01],cl
  401799:	sub    esp,0x40
  40179c:	push   eax
  40179d:	push   ecx
  40179e:	push   DWORD PTR [eax+0x224]
  4017a4:	call   0x402860
  4017a9:	add    esp,0x8
  4017ac:	pop    eax
  4017ad:	push   eax
  4017ae:	mov    eax,ds:0x404038
  4017b3:	call   eax
  4017b5:	pop    eax
  4017b6:	push   eax
  4017b7:	push   0x0
  4017b9:	mov    eax,ds:0x404030
  4017be:	call   eax
  4017c0:	pop    eax
  4017c1:	sub    esp,0xffffffc0
  4017c4:	mov    ebp,DWORD PTR [esp]
  4017c7:	add    esp,0x4
  4017ca:	ret    
  4017cb:	add    BYTE PTR [ebx-0x1374aa01],cl
  4017d1:	sub    esp,0x4c
  4017d4:	push   eax
  4017d5:	mov    ecx,0x0
  4017da:	push   ecx
  4017db:	mov    eax,ds:0x404034
  4017e0:	call   eax
  4017e2:	pop    eax
  4017e3:	push   eax
  4017e4:	push   DWORD PTR [eax+0x280]
  4017ea:	push   DWORD PTR [eax+0x36c]
  4017f0:	call   0x401d88
  4017f5:	add    esp,0x8
  4017f8:	pop    eax
  4017f9:	push   eax
  4017fa:	mov    eax,ds:0x404020
  4017ff:	call   eax
  401801:	pop    eax
  401802:	sub    esp,0xffffffb4
  401805:	mov    ebp,DWORD PTR [esp]
  401808:	add    esp,0x4
  40180b:	ret    
  40180c:	pusha  
  40180d:	xor    edx,edx
  40180f:	push   edx
  401810:	call   DWORD PTR ds:0x404078
  401816:	mov    eax,0x40409c
  40181b:	sub    eax,0x1
  40181e:	push   0x0
  401820:	call   DWORD PTR [eax+0x1]
  401823:	xor    edx,edx
  401825:	add    edx,0x45e200
  40182b:	dec    dh
  40182d:	push   edx
  40182e:	lea    eax,[edx+0x10]
  401831:	add    BYTE PTR [eax],0x4
  401834:	push   edx
  401835:	call   DWORD PTR ds:0x40400c
  40183b:	mov    ecx,eax
  40183d:	mov    cl,0x3c
  40183f:	mov    ecx,DWORD PTR [ecx]
  401841:	mov    ecx,DWORD PTR [eax+ecx*1+0x1c]
  401845:	ror    ecx,0xc
  401848:	mov    eax,ecx
  40184a:	sub    al,0x10
  40184c:	pop    eax
  40184d:	jb     0x401108
  401853:	ja     0x40110c
  401859:	ret    
  40185a:	add    BYTE PTR [eax],al
  40185c:	mov    edi,edi
  40185e:	push   ebp
  40185f:	mov    ebp,esp
  401861:	sub    esp,0x50
  401864:	push   eax
  401865:	push   edx
  401866:	push   edx
  401867:	push   DWORD PTR [eax+0x1f0]
  40186d:	push   DWORD PTR [eax+0x368]
  401873:	call   0x401000
  401878:	add    esp,0x10
  40187b:	pop    eax
  40187c:	push   eax
  40187d:	push   0x0
  40187f:	mov    eax,ds:0x40403c
  401884:	call   eax
  401886:	pop    eax
  401887:	push   eax
  401888:	mov    eax,ds:0x404020
  40188d:	call   eax
  40188f:	pop    eax
  401890:	sub    esp,0xffffffb0
  401893:	mov    ebp,DWORD PTR [esp]
  401896:	add    esp,0x4
  401899:	ret    
  40189a:	add    BYTE PTR [eax],al
  40189c:	mov    edi,edi
  40189e:	push   ebp
  40189f:	mov    ebp,esp
  4018a1:	sub    esp,0x58
  4018a4:	push   eax
  4018a5:	mov    eax,ds:0x404020
  4018aa:	call   eax
  4018ac:	pop    eax
  4018ad:	push   eax
  4018ae:	push   ebx
  4018af:	push   ebx
  4018b0:	push   edx
  4018b1:	call   0x4018d0
  4018b6:	add    esp,0xc
  4018b9:	pop    eax
  4018ba:	push   eax
  4018bb:	push   0x0
  4018bd:	mov    eax,ds:0x40403c
  4018c2:	call   eax
  4018c4:	pop    eax
  4018c5:	sub    esp,0xffffffa8
  4018c8:	mov    ebp,DWORD PTR [esp]
  4018cb:	add    esp,0x4
  4018ce:	ret    
  4018cf:	add    BYTE PTR [ebx-0x1374aa01],cl
  4018d5:	sub    esp,0x60
  4018d8:	push   eax
  4018d9:	mov    eax,ds:0x404000
  4018de:	call   eax
  4018e0:	pop    eax
  4018e1:	push   eax
  4018e2:	push   ecx
  4018e3:	push   esi
  4018e4:	push   DWORD PTR [eax+0xbc]
  4018ea:	call   0x402494
  4018ef:	add    esp,0xc
  4018f2:	pop    eax
  4018f3:	push   eax
  4018f4:	mov    eax,ds:0x404038
  4018f9:	call   eax
  4018fb:	pop    eax
  4018fc:	sub    esp,0xffffffa0
  4018ff:	mov    ebp,DWORD PTR [esp]
  401902:	add    esp,0x4
  401905:	ret    
	...
  401956:	add    BYTE PTR [eax],al
  401958:	mov    edi,edi
  40195a:	push   ebp
  40195b:	mov    ebp,esp
  40195d:	sub    esp,0x34
  401960:	push   eax
  401961:	push   DWORD PTR [eax+0x1e4]
  401967:	push   DWORD PTR [eax+0x2e8]
  40196d:	push   edi
  40196e:	call   0x401d54
  401973:	add    esp,0xc
  401976:	pop    eax
  401977:	push   eax
  401978:	mov    edx,0x0
  40197d:	push   edx
  40197e:	mov    eax,ds:0x404030
  401983:	call   eax
  401985:	pop    eax
  401986:	push   eax
  401987:	lea    esi,[eax-0x100]
  40198d:	push   esi
  40198e:	mov    eax,ds:0x404010
  401993:	call   eax
  401995:	test   eax,eax
  401997:	jne    0x401987
  401999:	pop    eax
  40199a:	sub    esp,0xffffffcc
  40199d:	mov    ebp,DWORD PTR [esp]
  4019a0:	add    esp,0x4
  4019a3:	ret    
  4019a4:	mov    edi,edi
  4019a6:	push   ebp
  4019a7:	mov    ebp,esp
  4019a9:	sub    esp,0x20
  4019ac:	push   eax
  4019ad:	push   ecx
  4019ae:	push   DWORD PTR [eax+0xc8]
  4019b4:	push   DWORD PTR [eax+0x228]
  4019ba:	call   0x401090
  4019bf:	add    esp,0xc
  4019c2:	pop    eax
  4019c3:	push   eax
  4019c4:	mov    ecx,0x0
  4019c9:	push   ecx
  4019ca:	mov    eax,ds:0x404024
  4019cf:	call   eax
  4019d1:	pop    eax
  4019d2:	push   eax
  4019d3:	push   0x0
  4019d5:	mov    eax,ds:0x404034
  4019da:	call   eax
  4019dc:	pop    eax
  4019dd:	sub    esp,0xffffffe0
  4019e0:	mov    ebp,DWORD PTR [esp]
  4019e3:	add    esp,0x4
  4019e6:	ret    
  4019e7:	add    BYTE PTR [ebx-0x1374aa01],cl
  4019ed:	sub    esp,0x4c
  4019f0:	push   eax
  4019f1:	push   DWORD PTR [eax+0x158]
  4019f7:	push   edx
  4019f8:	push   ebx
  4019f9:	call   0x40189c
  4019fe:	add    esp,0xc
  401a01:	pop    eax
  401a02:	push   eax
  401a03:	push   0x0
  401a05:	mov    eax,ds:0x404068
  401a0a:	call   eax
  401a0c:	pop    eax
  401a0d:	push   eax
  401a0e:	push   0x0
  401a10:	mov    eax,ds:0x404030
  401a15:	call   eax
  401a17:	pop    eax
  401a18:	sub    esp,0xffffffb4
  401a1b:	mov    ebp,DWORD PTR [esp]
  401a1e:	add    esp,0x4
  401a21:	ret    
  401a22:	add    BYTE PTR [eax],al
  401a24:	mov    edi,edi
  401a26:	push   ebp
  401a27:	mov    ebp,esp
  401a29:	sub    esp,0x48
  401a2c:	push   eax
  401a2d:	lea    edx,[eax-0x100]
  401a33:	push   edx
  401a34:	mov    eax,ds:0x404010
  401a39:	call   eax
  401a3b:	test   eax,eax
  401a3d:	jne    0x401a2d
  401a3f:	pop    eax
  401a40:	push   eax
  401a41:	push   DWORD PTR [eax+0x130]
  401a47:	push   esi
  401a48:	push   DWORD PTR [eax+0x1c4]
  401a4e:	push   DWORD PTR [eax+0x5c]
  401a51:	call   0x401ac0
  401a56:	add    esp,0x10
  401a59:	pop    eax
  401a5a:	push   eax
  401a5b:	mov    eax,ds:0x404000
  401a60:	call   eax
  401a62:	pop    eax
  401a63:	sub    esp,0xffffffb8
  401a66:	mov    ebp,DWORD PTR [esp]
  401a69:	add    esp,0x4
  401a6c:	ret    
	...
  401abd:	add    BYTE PTR [eax],al
  401abf:	add    BYTE PTR [ebx-0x1374aa01],cl
  401ac5:	sub    esp,0x30
  401ac8:	push   eax
  401ac9:	push   DWORD PTR [eax+0x368]
  401acf:	push   ecx
  401ad0:	push   ecx
  401ad1:	push   DWORD PTR [eax+0x19c]
  401ad7:	call   0x402020
  401adc:	add    esp,0x10
  401adf:	pop    eax
  401ae0:	push   eax
  401ae1:	push   0x0
  401ae3:	mov    eax,ds:0x404024
  401ae8:	call   eax
  401aea:	pop    eax
  401aeb:	push   eax
  401aec:	lea    esi,[eax-0x100]
  401af2:	push   esi
  401af3:	mov    eax,ds:0x404010
  401af8:	call   eax
  401afa:	test   eax,eax
  401afc:	jne    0x401aec
  401afe:	pop    eax
  401aff:	sub    esp,0xffffffd0
  401b02:	mov    ebp,DWORD PTR [esp]
  401b05:	add    esp,0x4
  401b08:	ret    
	...
  401b59:	add    BYTE PTR [eax],al
  401b5b:	add    BYTE PTR [ebx-0x1374aa01],cl
  401b61:	sub    esp,0x40
  401b64:	push   eax
  401b65:	push   DWORD PTR [eax+0x84]
  401b6b:	push   DWORD PTR [eax+0x90]
  401b71:	call   0x4025c4
  401b76:	add    esp,0x8
  401b79:	pop    eax
  401b7a:	push   eax
  401b7b:	mov    ebx,0x0
  401b80:	push   ebx
  401b81:	mov    eax,ds:0x404078
  401b86:	call   eax
  401b88:	pop    eax
  401b89:	push   eax
  401b8a:	push   0x0
  401b8c:	mov    eax,ds:0x404034
  401b91:	call   eax
  401b93:	pop    eax
  401b94:	sub    esp,0xffffffc0
  401b97:	mov    ebp,DWORD PTR [esp]
  401b9a:	add    esp,0x4
  401b9d:	ret    
  401b9e:	add    BYTE PTR [eax],al
  401ba0:	mov    edi,edi
  401ba2:	push   ebp
  401ba3:	mov    ebp,esp
  401ba5:	sub    esp,0x38
  401ba8:	push   eax
  401ba9:	push   DWORD PTR [eax+0x268]
  401baf:	push   edx
  401bb0:	call   0x4019a4
  401bb5:	add    esp,0x8
  401bb8:	pop    eax
  401bb9:	push   eax
  401bba:	push   0x0
  401bbc:	mov    eax,ds:0x40404c
  401bc1:	call   eax
  401bc3:	pop    eax
  401bc4:	push   eax
  401bc5:	push   0x0
  401bc7:	mov    eax,ds:0x40404c
  401bcc:	call   eax
  401bce:	pop    eax
  401bcf:	sub    esp,0xffffffc8
  401bd2:	mov    ebp,DWORD PTR [esp]
  401bd5:	add    esp,0x4
  401bd8:	ret    
	...
  401d19:	add    BYTE PTR [eax],al
  401d1b:	add    BYTE PTR [ebx-0x1374aa01],cl
  401d21:	sub    esp,0x44
  401d24:	push   eax
  401d25:	push   0x0
  401d27:	mov    eax,ds:0x40403c
  401d2c:	call   eax
  401d2e:	pop    eax
  401d2f:	push   eax
  401d30:	push   ecx
  401d31:	push   ecx
  401d32:	push   DWORD PTR [eax+0x60]
  401d35:	call   0x4026dc
  401d3a:	add    esp,0xc
  401d3d:	pop    eax
  401d3e:	push   eax
  401d3f:	push   0x0
  401d41:	mov    eax,ds:0x404068
  401d46:	call   eax
  401d48:	pop    eax
  401d49:	sub    esp,0xffffffbc
  401d4c:	mov    ebp,DWORD PTR [esp]
  401d4f:	add    esp,0x4
  401d52:	ret    
  401d53:	add    BYTE PTR [ebx-0x1374aa01],cl
  401d59:	sub    esp,0x34
  401d5c:	push   eax
  401d5d:	push   esi
  401d5e:	push   edx
  401d5f:	push   edx
  401d60:	call   0x401f04
  401d65:	add    esp,0xc
  401d68:	pop    eax
  401d69:	push   eax
  401d6a:	push   0x0
  401d6c:	mov    eax,ds:0x40403c
  401d71:	call   eax
  401d73:	pop    eax
  401d74:	push   eax
  401d75:	mov    eax,ds:0x404020
  401d7a:	call   eax
  401d7c:	pop    eax
  401d7d:	sub    esp,0xffffffcc
  401d80:	mov    ebp,DWORD PTR [esp]
  401d83:	add    esp,0x4
  401d86:	ret    
  401d87:	add    BYTE PTR [ebx-0x1374aa01],cl
  401d8d:	sub    esp,0x50
  401d90:	push   eax
  401d91:	push   0x6b4
  401d96:	push   0x6b4
  401d9b:	push   0x40001
  401da0:	push   0x0
  401da2:	xor    DWORD PTR [esp],0x89e6ba4d
  401da9:	pop    ecx
  401daa:	sub    ecx,0x89a67a45
  401db0:	push   DWORD PTR [ecx]
  401db2:	sub    DWORD PTR [esp],0x2
  401db6:	mov    ecx,0x40400c
  401dbb:	pop    DWORD PTR [ecx]
  401dbd:	mov    eax,ds:0x40400c
  401dc2:	call   eax
  401dc4:	xchg   DWORD PTR [esp],eax
  401dc7:	pop    DWORD PTR [eax-0x7c]
  401dca:	mov    ecx,DWORD PTR [eax-0x7c]
  401dcd:	lea    edx,[ecx]
  401dcf:	sub    ecx,ecx
  401dd1:	dec    ecx
  401dd2:	and    ecx,0x4029aa
  401dd8:	mov    edi,0x7a89d45a
  401ddd:	push   0x6b4
  401de2:	pop    esi
  401de3:	cmp    esi,0x0
  401de6:	je     0x401e0a
  401de8:	add    esi,0xfffffffc
  401deb:	mov    ebx,edi
  401ded:	xor    ebx,DWORD PTR [ecx]
  401def:	push   ebx
  401df0:	sub    ebx,ebx
  401df2:	sub    DWORD PTR [esp],0x1
  401df6:	pop    DWORD PTR [edx+ebx*2]
  401df9:	push   0x1
  401dfb:	sub    DWORD PTR [esp],edi
  401dfe:	mov    edi,0xfffffffc
  401e03:	sub    ecx,edi
  401e05:	sub    edx,edi
  401e07:	pop    edi
  401e08:	jmp    0x401de3
  401e0a:	push   eax
  401e0b:	mov    ecx,0x0
  401e10:	push   ecx
  401e11:	mov    eax,ds:0x404044
  401e16:	call   eax
  401e18:	pop    eax
  401e19:	sub    esp,0xffffffb0
  401e1c:	pop    ebp
  401e1d:	ret    
	...
  401ebe:	add    BYTE PTR [eax],al
  401ec0:	mov    edi,edi
  401ec2:	push   ebp
  401ec3:	mov    ebp,esp
  401ec5:	sub    esp,0x28
  401ec8:	push   eax
  401ec9:	mov    esi,0x0
  401ece:	push   esi
  401ecf:	mov    eax,ds:0x40403c
  401ed4:	call   eax
  401ed6:	pop    eax
  401ed7:	push   eax
  401ed8:	push   DWORD PTR [eax+0x18c]
  401ede:	push   DWORD PTR [eax+0x2b0]
  401ee4:	call   0x401758
  401ee9:	add    esp,0x8
  401eec:	pop    eax
  401eed:	push   eax
  401eee:	push   0x0
  401ef0:	mov    eax,ds:0x404030
  401ef5:	call   eax
  401ef7:	pop    eax
  401ef8:	sub    esp,0xffffffd8
  401efb:	mov    ebp,DWORD PTR [esp]
  401efe:	add    esp,0x4
  401f01:	ret    
  401f02:	add    BYTE PTR [eax],al
  401f04:	mov    edi,edi
  401f06:	push   ebp
  401f07:	mov    ebp,esp
  401f09:	sub    esp,0x3c
  401f0c:	push   eax
  401f0d:	push   0x0
  401f0f:	mov    eax,ds:0x40403c
  401f14:	call   eax
  401f16:	pop    eax
  401f17:	push   eax
  401f18:	push   DWORD PTR [eax+0x108]
  401f1e:	push   DWORD PTR [eax+0xc0]
  401f24:	call   0x401a24
  401f29:	add    esp,0x8
  401f2c:	pop    eax
  401f2d:	push   eax
  401f2e:	mov    ecx,0x0
  401f33:	push   ecx
  401f34:	mov    eax,ds:0x404040
  401f39:	call   eax
  401f3b:	pop    eax
  401f3c:	sub    esp,0xffffffc4
  401f3f:	mov    ebp,DWORD PTR [esp]
  401f42:	add    esp,0x4
  401f45:	ret    
	...
  401f96:	add    BYTE PTR [eax],al
  401f98:	mov    edi,edi
  401f9a:	push   ebp
  401f9b:	mov    ebp,esp
  401f9d:	sub    esp,0x2c
  401fa0:	push   eax
  401fa1:	push   DWORD PTR [eax+0x160]
  401fa7:	push   DWORD PTR [eax+0x24]
  401faa:	call   0x401270
  401faf:	add    esp,0x8
  401fb2:	pop    eax
  401fb3:	push   eax
  401fb4:	mov    ecx,0x0
  401fb9:	push   ecx
  401fba:	mov    eax,ds:0x404030
  401fbf:	call   eax
  401fc1:	pop    eax
  401fc2:	push   eax
  401fc3:	mov    esi,0x0
  401fc8:	push   esi
  401fc9:	mov    eax,ds:0x404068
  401fce:	call   eax
  401fd0:	pop    eax
  401fd1:	sub    esp,0xffffffd4
  401fd4:	mov    ebp,DWORD PTR [esp]
  401fd7:	add    esp,0x4
  401fda:	ret    
  401fdb:	add    BYTE PTR [ebx-0x1374aa01],cl
  401fe1:	sub    esp,0x24
  401fe4:	push   eax
  401fe5:	mov    esi,0x0
  401fea:	push   esi
  401feb:	mov    eax,ds:0x40403c
  401ff0:	call   eax
  401ff2:	pop    eax
  401ff3:	push   eax
  401ff4:	push   DWORD PTR [eax+0xf4]
  401ffa:	push   edi
  401ffb:	push   DWORD PTR [eax+0x174]
  402001:	call   0x4014cc
  402006:	add    esp,0xc
  402009:	pop    eax
  40200a:	push   eax
  40200b:	push   0x0
  40200d:	mov    eax,ds:0x404034
  402012:	call   eax
  402014:	pop    eax
  402015:	sub    esp,0xffffffdc
  402018:	mov    ebp,DWORD PTR [esp]
  40201b:	add    esp,0x4
  40201e:	ret    
  40201f:	add    BYTE PTR [ebx-0x1374aa01],cl
  402025:	sub    esp,0x40
  402028:	push   eax
  402029:	push   edx
  40202a:	push   DWORD PTR [eax+0x158]
  402030:	push   ebx
  402031:	call   0x401d1c
  402036:	add    esp,0xc
  402039:	pop    eax
  40203a:	push   eax
  40203b:	push   0x0
  40203d:	mov    eax,ds:0x404030
  402042:	call   eax
  402044:	pop    eax
  402045:	push   eax
  402046:	push   0x0
  402048:	mov    eax,ds:0x404078
  40204d:	call   eax
  40204f:	pop    eax
  402050:	sub    esp,0xffffffc0
  402053:	mov    ebp,DWORD PTR [esp]
  402056:	add    esp,0x4
  402059:	ret    
	...
  4021ea:	add    BYTE PTR [eax],al
  4021ec:	mov    edi,edi
  4021ee:	push   ebp
  4021ef:	mov    ebp,esp
  4021f1:	sub    esp,0x24
  4021f4:	push   eax
  4021f5:	mov    ecx,0x0
  4021fa:	push   ecx
  4021fb:	mov    eax,ds:0x404078
  402200:	call   eax
  402202:	pop    eax
  402203:	push   eax
  402204:	push   esi
  402205:	push   esi
  402206:	call   0x401ba0
  40220b:	add    esp,0x8
  40220e:	pop    eax
  40220f:	push   eax
  402210:	push   0x0
  402212:	mov    eax,ds:0x404078
  402217:	call   eax
  402219:	pop    eax
  40221a:	sub    esp,0xffffffdc
  40221d:	mov    ebp,DWORD PTR [esp]
  402220:	add    esp,0x4
  402223:	ret    
  402224:	mov    edi,edi
  402226:	push   ebp
  402227:	mov    ebp,esp
  402229:	sub    esp,0x54
  40222c:	push   eax
  40222d:	push   edi
  40222e:	push   ecx
  40222f:	push   edi
  402230:	call   0x402454
  402235:	add    esp,0xc
  402238:	pop    eax
  402239:	push   eax
  40223a:	push   0x0
  40223c:	mov    eax,ds:0x404068
  402241:	call   eax
  402243:	pop    eax
  402244:	push   eax
  402245:	push   0x0
  402247:	mov    eax,ds:0x404068
  40224c:	call   eax
  40224e:	pop    eax
  40224f:	sub    esp,0xffffffac
  402252:	mov    ebp,DWORD PTR [esp]
  402255:	add    esp,0x4
  402258:	ret    
	...
  4022f9:	add    BYTE PTR [eax],al
  4022fb:	add    BYTE PTR [ebx-0x1374aa01],cl
  402301:	sub    esp,0x20
  402304:	push   eax
  402305:	push   0x0
  402307:	mov    eax,ds:0x40403c
  40230c:	call   eax
  40230e:	pop    eax
  40230f:	push   eax
  402310:	push   DWORD PTR [eax+0x234]
  402316:	push   DWORD PTR [eax+0x24c]
  40231c:	call   0x402390
  402321:	add    esp,0x8
  402324:	pop    eax
  402325:	push   eax
  402326:	mov    esi,0x0
  40232b:	push   esi
  40232c:	mov    eax,ds:0x404030
  402331:	call   eax
  402333:	pop    eax
  402334:	sub    esp,0xffffffe0
  402337:	mov    ebp,DWORD PTR [esp]
  40233a:	add    esp,0x4
  40233d:	ret    
	...
  40238e:	add    BYTE PTR [eax],al
  402390:	mov    edi,edi
  402392:	push   ebp
  402393:	mov    ebp,esp
  402395:	sub    esp,0x44
  402398:	push   eax
  402399:	push   DWORD PTR [eax+0x274]
  40239f:	push   DWORD PTR [eax+0x2d8]
  4023a5:	push   esi
  4023a6:	call   0x401694
  4023ab:	add    esp,0xc
  4023ae:	pop    eax
  4023af:	push   eax
  4023b0:	mov    eax,ds:0x404020
  4023b5:	call   eax
  4023b7:	pop    eax
  4023b8:	push   eax
  4023b9:	mov    eax,ds:0x404020
  4023be:	call   eax
  4023c0:	pop    eax
  4023c1:	sub    esp,0xffffffbc
  4023c4:	mov    ebp,DWORD PTR [esp]
  4023c7:	add    esp,0x4
  4023ca:	ret    
  4023cb:	add    BYTE PTR [ebx-0x1374aa01],cl
  4023d1:	sub    esp,0x38
  4023d4:	push   eax
  4023d5:	push   0x0
  4023d7:	mov    eax,ds:0x404024
  4023dc:	call   eax
  4023de:	pop    eax
  4023df:	push   eax
  4023e0:	push   DWORD PTR [eax+0x138]
  4023e6:	push   DWORD PTR [eax+0x2f8]
  4023ec:	push   edx
  4023ed:	push   edi
  4023ee:	call   0x4016d4
  4023f3:	add    esp,0x10
  4023f6:	pop    eax
  4023f7:	push   eax
  4023f8:	push   0x0
  4023fa:	mov    eax,ds:0x404034
  4023ff:	call   eax
  402401:	pop    eax
  402402:	sub    esp,0xffffffc8
  402405:	mov    ebp,DWORD PTR [esp]
  402408:	add    esp,0x4
  40240b:	ret    
  40240c:	mov    edi,edi
  40240e:	push   ebp
  40240f:	mov    ebp,esp
  402411:	sub    esp,0x50
  402414:	push   eax
  402415:	mov    ecx,0x0
  40241a:	push   ecx
  40241b:	mov    eax,ds:0x404068
  402420:	call   eax
  402422:	pop    eax
  402423:	push   eax
  402424:	push   DWORD PTR [eax+0x2dc]
  40242a:	push   edi
  40242b:	push   DWORD PTR [eax+0x3c0]
  402431:	push   DWORD PTR [eax+0x14c]
  402437:	call   0x40122c
  40243c:	add    esp,0x10
  40243f:	pop    eax
  402440:	push   eax
  402441:	mov    eax,ds:0x404000
  402446:	call   eax
  402448:	pop    eax
  402449:	sub    esp,0xffffffb0
  40244c:	mov    ebp,DWORD PTR [esp]
  40244f:	add    esp,0x4
  402452:	ret    
  402453:	add    BYTE PTR [ebx-0x1374aa01],cl
  402459:	sub    esp,0x50
  40245c:	push   eax
  40245d:	mov    esi,0x0
  402462:	push   esi
  402463:	mov    eax,ds:0x404078
  402468:	call   eax
  40246a:	pop    eax
  40246b:	push   eax
  40246c:	push   DWORD PTR [eax+0x1ac]
  402472:	push   DWORD PTR [eax+0xc8]
  402478:	call   0x401794
  40247d:	add    esp,0x8
  402480:	pop    eax
  402481:	push   eax
  402482:	mov    eax,ds:0x404020
  402487:	call   eax
  402489:	pop    eax
  40248a:	sub    esp,0xffffffb0
  40248d:	mov    ebp,DWORD PTR [esp]
  402490:	add    esp,0x4
  402493:	ret    
  402494:	mov    edi,edi
  402496:	push   ebp
  402497:	mov    ebp,esp
  402499:	sub    esp,0x50
  40249c:	push   eax
  40249d:	mov    ebx,0x0
  4024a2:	push   ebx
  4024a3:	mov    eax,ds:0x40403c
  4024a8:	call   eax
  4024aa:	pop    eax
  4024ab:	push   eax
  4024ac:	push   edx
  4024ad:	push   edi
  4024ae:	push   DWORD PTR [eax+0x1f4]
  4024b4:	call   0x401ec0
  4024b9:	add    esp,0xc
  4024bc:	pop    eax
  4024bd:	push   eax
  4024be:	push   0x0
  4024c0:	mov    eax,ds:0x404060
  4024c5:	call   eax
  4024c7:	pop    eax
  4024c8:	sub    esp,0xffffffb0
  4024cb:	mov    ebp,DWORD PTR [esp]
  4024ce:	add    esp,0x4
  4024d1:	ret    
	...
  4025c2:	add    BYTE PTR [eax],al
  4025c4:	mov    edi,edi
  4025c6:	push   ebp
  4025c7:	mov    ebp,esp
  4025c9:	sub    esp,0x58
  4025cc:	push   eax
  4025cd:	push   esi
  4025ce:	push   ecx
  4025cf:	push   DWORD PTR [eax+0x24c]
  4025d5:	push   DWORD PTR [eax+0x16c]
  4025db:	call   0x40185c
  4025e0:	add    esp,0x10
  4025e3:	pop    eax
  4025e4:	push   eax
  4025e5:	mov    esi,0x0
  4025ea:	push   esi
  4025eb:	mov    eax,ds:0x404040
  4025f0:	call   eax
  4025f2:	pop    eax
  4025f3:	push   eax
  4025f4:	push   0x0
  4025f6:	mov    eax,ds:0x404060
  4025fb:	call   eax
  4025fd:	pop    eax
  4025fe:	sub    esp,0xffffffa8
  402601:	mov    ebp,DWORD PTR [esp]
  402604:	add    esp,0x4
  402607:	ret    
  402608:	mov    edi,edi
  40260a:	push   ebp
  40260b:	mov    ebp,esp
  40260d:	sub    esp,0x4c
  402610:	push   eax
  402611:	push   edi
  402612:	push   ebx
  402613:	call   0x401f98
  402618:	add    esp,0x8
  40261b:	pop    eax
  40261c:	push   eax
  40261d:	mov    esi,0x0
  402622:	push   esi
  402623:	mov    eax,ds:0x404024
  402628:	call   eax
  40262a:	pop    eax
  40262b:	push   eax
  40262c:	mov    ebx,0x0
  402631:	push   ebx
  402632:	mov    eax,ds:0x404068
  402637:	call   eax
  402639:	pop    eax
  40263a:	sub    esp,0xffffffb4
  40263d:	mov    ebp,DWORD PTR [esp]
  402640:	add    esp,0x4
  402643:	ret    
	...
  402694:	mov    edi,edi
  402696:	push   ebp
  402697:	mov    ebp,esp
  402699:	sub    esp,0x4c
  40269c:	push   eax
  40269d:	mov    edx,0x0
  4026a2:	push   edx
  4026a3:	mov    eax,ds:0x404060
  4026a8:	call   eax
  4026aa:	pop    eax
  4026ab:	push   eax
  4026ac:	push   ebx
  4026ad:	push   ecx
  4026ae:	push   DWORD PTR [eax+0x1c0]
  4026b4:	push   esi
  4026b5:	call   0x401304
  4026ba:	add    esp,0x10
  4026bd:	pop    eax
  4026be:	push   eax
  4026bf:	lea    edx,[eax-0x100]
  4026c5:	push   edx
  4026c6:	mov    eax,ds:0x404010
  4026cb:	call   eax
  4026cd:	test   eax,eax
  4026cf:	jne    0x4026bf
  4026d1:	pop    eax
  4026d2:	sub    esp,0xffffffb4
  4026d5:	mov    ebp,DWORD PTR [esp]
  4026d8:	add    esp,0x4
  4026db:	ret    
  4026dc:	mov    edi,edi
  4026de:	push   ebp
  4026df:	mov    ebp,esp
  4026e1:	sub    esp,0x34
  4026e4:	push   eax
  4026e5:	mov    edx,0x0
  4026ea:	push   edx
  4026eb:	mov    eax,ds:0x40404c
  4026f0:	call   eax
  4026f2:	pop    eax
  4026f3:	push   eax
  4026f4:	push   DWORD PTR [eax+0x1e8]
  4026fa:	push   esi
  4026fb:	push   DWORD PTR [eax+0x224]
  402701:	call   0x402224
  402706:	add    esp,0xc
  402709:	pop    eax
  40270a:	push   eax
  40270b:	mov    eax,ds:0x404038
  402710:	call   eax
  402712:	pop    eax
  402713:	sub    esp,0xffffffcc
  402716:	mov    ebp,DWORD PTR [esp]
  402719:	add    esp,0x4
  40271c:	ret    
	...
  40285d:	add    BYTE PTR [eax],al
  40285f:	add    BYTE PTR [ebx-0x1374aa01],cl
  402865:	sub    esp,0x60
  402868:	push   eax
  402869:	mov    edi,0x0
  40286e:	push   edi
  40286f:	mov    eax,ds:0x404044
  402874:	call   eax
  402876:	pop    eax
  402877:	push   eax
  402878:	push   edi
  402879:	push   esi
  40287a:	push   ebx
  40287b:	call   0x401fdc
  402880:	add    esp,0xc
  402883:	pop    eax
  402884:	push   eax
  402885:	mov    ebx,0x0
  40288a:	push   ebx
  40288b:	mov    eax,ds:0x404034
  402890:	call   eax
  402892:	pop    eax
  402893:	sub    esp,0xffffffa0
  402896:	mov    ebp,DWORD PTR [esp]
  402899:	add    esp,0x4
  40289c:	ret    
	...
  4028ed:	add    BYTE PTR [eax],al
  4028ef:	add    BYTE PTR [ebx-0x1374aa01],cl
  4028f5:	sub    esp,0x2c
  4028f8:	push   eax
  4028f9:	mov    eax,ds:0x404020
  4028fe:	call   eax
  402900:	pop    eax
  402901:	push   eax
  402902:	push   edx
  402903:	push   ebx
  402904:	push   DWORD PTR [eax+0x1a4]
  40290a:	call   0x402694
  40290f:	add    esp,0xc
  402912:	pop    eax
  402913:	push   eax
  402914:	push   0x0
  402916:	mov    eax,ds:0x404044
  40291b:	call   eax
  40291d:	pop    eax
  40291e:	sub    esp,0xffffffd4
  402921:	mov    ebp,DWORD PTR [esp]
  402924:	add    esp,0x4
  402927:	ret    
	...
  402978:	in     al,0x99
  40297a:	push   ss
  40297b:	dec    esi
  40297c:	(bad)  
  40297d:	cld    
  40297e:	(bad)  
  402980:	call   0x2fa18bed
  402985:	xor    bl,BYTE PTR [ebx]
  402987:	dec    ebp
  402988:	pop    es
  402989:	and    edx,esi
  40298b:	mov    bl,0x50
  40298d:	jmp    0x97d336f5
  402992:	mov    cl,0x78
  402994:	loop   0x4029c1
  402996:	push   es
  402997:	fst    QWORD PTR [esi]
  402999:	into   
  40299a:	adc    ebx,edx
  40299c:	int3   
  40299d:	sbb    ebp,DWORD PTR [ecx+eiz*4]
  4029a0:	loop   0x40296f
  4029a2:	xchg   esp,eax
  4029a3:	outs   dx,BYTE PTR ds:[esi]
  4029a4:	cmps   DWORD PTR ds:[esi],DWORD PTR es:[edi]
  4029a5:	push   ebp
  4029a6:	test   al,0xd7
  4029a8:	xchg   ebp,eax
  4029a9:	call   0x2d4e:0x22d98c0b
  4029b0:	jbe    0x402937
  4029b2:	pop    ebx
  4029b3:	aad    0xfe
  4029b5:	and    esi,eax
  4029b7:	cmps   BYTE PTR ds:[esi],BYTE PTR es:[edi]
  4029b8:	xor    ebx,esp
  4029ba:	jbe    0x4029d9
  4029bc:	or     bh,BYTE PTR [ebx+0x67287ea3]
  4029c2:	movs   BYTE PTR es:[edi],BYTE PTR ds:[esi]
  4029c3:	push   edi
  4029c4:	dec    ebp
  4029c5:	mov    cs,WORD PTR [esi+0x26]
  4029c8:	jbe    0x40294f
  4029ca:	pop    ebx
  4029cb:	push   esp
  4029cc:	mov    bl,0x6b
  4029ce:	dec    ebp
  4029cf:	dec    esi
  4029d0:	sbb    dh,BYTE PTR [esi+0x16edfa69]
  4029d6:	retf   0x2e2b
  4029d9:	aad    0xd8
  4029db:	aam    0x42
  4029dd:	push   eax
  4029de:	lds    ebp,FWORD PTR [esi+0xcd65389]
  4029e4:	mov    bh,BYTE PTR [ecx]
  4029e6:	call   0x8d54:0x5bd50eaa
  4029ed:	jp     0x4029bf
  4029ef:	add    BYTE PTR [esi-0x762ba389],bl
  4029f5:	daa    
  4029f6:	sub    ebx,esi
  4029f8:	iret   
  4029f9:	xchg   ebp,eax
  4029fa:	pop    ebx
  4029fb:	aam    0x89
  4029fd:	xlat   BYTE PTR ds:[ebx]
  4029fe:	dec    esi
  4029ff:	fnstenv [ebp+eax*4+0x5b]
  402a03:	pop    ebp
  402a04:	iret   
  402a05:	xchg   BYTE PTR [esi+ebx*8+0x1c],al
  402a09:	out    0x33,al
  402a0b:	xchg   ebp,eax
  402a0c:	in     eax,0x16
  402a0e:	xlat   BYTE PTR ds:[ebx]
  402a0f:	inc    ebx
  402a10:	ds loopne 0x402a4b
  402a13:	movs   BYTE PTR es:[edi],BYTE PTR ds:[esi]
  402a14:	(bad)  [ecx]
  402a16:	cmps   DWORD PTR ds:[esi],DWORD PTR es:[edi]
  402a17:	jge    0x402a97
  402a19:	or     al,0x5d
  402a1b:	mov    esi,0x59e01289
  402a20:	adc    esp,eax
  402a22:	xor    ebx,DWORD PTR [esp+ebp*8+0x257fd61b]
  402a29:	jp     0x402a37
  402a2b:	fadd   QWORD PTR [eax]
  402a2d:	cmp    al,0xa2
  402a2f:	test   al,0xb2
  402a31:	popf   
  402a32:	xor    DWORD PTR [ecx+eiz*8+0x762bb67a],edx
  402a39:	in     eax,dx
  402a3a:	call   edx
  402a3c:	mov    DWORD PTR [edx-0x34],edi
  402a3f:	sub    ecx,DWORD PTR [ecx+0x715f4bd0]
  402a45:	jg     0x402a4e
  402a47:	sub    esi,DWORD PTR [esi-0x7b]
  402a4a:	or     ebx,DWORD PTR [ecx+0x3c]
  402a4d:	stos   BYTE PTR es:[edi],al
  402a4e:	pop    ebp
  402a4f:	aam    0x89
  402a51:	cmp    al,0xff
  402a53:	ror    BYTE PTR [ecx-0x4a70ac86],cl
  402a59:	ins    DWORD PTR es:[edi],dx
  402a5a:	rcl    cl,1
  402a5c:	mov    DWORD PTR [edx-0x7],edi
  402a5f:	jne    0x402a52
  402a61:	mov    cl,0x7f
  402a63:	and    BYTE PTR [ecx-0x7d],0xa2
  402a67:	sub    esi,DWORD PTR [esi+0x6d]
  402a6a:	(bad)  
  402a6c:	mov    DWORD PTR [edx+0x2b],edi
  402a6f:	rcr    DWORD PTR [eax*4+0xf76d431],cl
  402a76:	ret    0x897c
  402a79:	shl    BYTE PTR [ebx+0x5f],1
  402a7c:	les    edx,FWORD PTR [edx]
  402a7e:	int3   
  402a7f:	sub    esp,DWORD PTR [edx]
  402a81:	fstp   QWORD PTR [edx-0x1f]
  402a84:	lods   eax,DWORD PTR ds:[esi]
  402a85:	sub    dh,ch
  402a87:	jge    0x402aaa
  402a89:	jp     0x402a97
  402a8b:	clc    
  402a8c:	shr    DWORD PTR ds:0x6d6e7da7,1
  402a92:	jo     0x402a6b
  402a94:	mov    DWORD PTR [edx+0x2b],edi
  402a97:	ins    DWORD PTR es:[edi],dx
  402a98:	dec    edx
  402a99:	or     BYTE PTR [edi-0x2e],bl
  402a9c:	out    dx,eax
  402a9d:	(bad)  
  402a9e:	out    0x3d,al
  402aa0:	jbe    0x402a47
  402aa2:	sub    al,0xc2
  402aa4:	mov    al,0x22
  402aa6:	xchg   edx,eax
  402aa7:	pop    edi
  402aa8:	addr16 push cs
  402aaa:	add    esp,eax
  402aac:	jecxz  0x402b2c
  402aae:	into   
  402aaf:	sub    eax,DWORD PTR [esi-0x7b]
  402ab2:	pop    ebx
  402ab3:	sub    edi,ecx
  402ab5:	sub    dh,bl
  402ab7:	aam    0x23
  402ab9:	xchg   ebp,eax
  402aba:	(bad)  
  402abb:	test   eax,0x41f22ae5
  402ac0:	jb     0x402a94
  402ac2:	push   cs
  402ac3:	sub    ebx,esp
  402ac5:	jbe    0x402ab9
  402ac7:	inc    ecx
  402ac8:	je     0x402a9c
  402aca:	push   cs
  402acb:	add    BYTE PTR [edx],0xb5
  402ace:	sub    edx,eax
  402ad0:	test   DWORD PTR [ecx],esp
  402ad2:	add    eax,0xfe76dc2b
  402ad7:	mov    al,ds:0xe81086b8
  402adc:	add    al,0x3
  402ade:	mov    esi,0x4aa521a0
  402ae3:	arpl   ax,cx
  402ae5:	outs   dx,BYTE PTR ds:[esi]
  402ae6:	mov    ds:0x103279d3,eax
  402aeb:	shr    cl,cl
  402aed:	icebp  
  402aee:	out    dx,eax
  402aef:	aas    
  402af0:	repz inc ebp
  402af2:	das    
  402af3:	xchg   ebp,eax
  402af4:	add    bh,BYTE PTR ds:0xf1b6aeae
  402afa:	popa   
  402afb:	cmp    al,0x18
  402afd:	jle    0x402aa5
  402aff:	sub    edi,ebp
  402b01:	dec    ebp
  402b02:	(bad)  
  402b03:	xchg   ebx,eax
  402b04:	lods   eax,DWORD PTR ds:[esi]
  402b05:	xchg   edx,eax
  402b06:	shr    DWORD PTR [ecx],1
  402b08:	jbe    0x402a8f
  402b0a:	pop    esi
  402b0b:	mov    ds:0x3bdf859d,eax
  402b10:	std    
  402b11:	cli    
  402b12:	push   edi
  402b13:	xlat   BYTE PTR ds:[ebx]
  402b14:	jb     0x402b37
  402b16:	mul    BYTE PTR [eax-0x7af4285e]
  402b1c:	fisubr WORD PTR [ebx]
  402b1e:	hlt    
  402b1f:	inc    ecx
  402b20:	jb     0x402af6
  402b22:	add    ch,BYTE PTR [ebx]
  402b24:	fdiv   QWORD PTR [esi-0x3]
  402b27:	sbb    BYTE PTR [esi-0x2981512e],dh
  402b2d:	icebp  
  402b2e:	imul   ebx,eax,0xffffffd2
  402b31:	jp     0x402b3f
  402b33:	fcom   st(1)
  402b35:	sbb    esp,DWORD PTR [ebx]
  402b37:	in     al,dx
  402b38:	pop    esi
  402b39:	addr16 call 0xa6bbad7b
  402b3f:	sub    ebx,DWORD PTR [esi-0x762ba4fc]
  402b45:	and    cl,dh
  402b47:	sub    esi,DWORD PTR [esi]
  402b49:	test   DWORD PTR [ebx+0x2b],ebx
  402b4c:	cld    
  402b4d:	adc    dh,al
  402b4f:	mov    al,ds:0x3cab0e8d
  402b54:	cmp    DWORD PTR [esi-0x5a],0x2b
  402b58:	adc    bh,BYTE PTR [edx+0x6c]
  402b5b:	in     al,0x89
  402b5d:	jp     0x402b05
  402b5f:	jae    0x402b5e
  402b61:	lds    edx,FWORD PTR [edi+0x5f]
  402b64:	leave  
  402b65:	jbe    0x402b04
  402b67:	jae    0x402bd7
  402b69:	icebp  
  402b6a:	pop    edi
  402b6b:	pop    edi
  402b6c:	mov    DWORD PTR [ecx-0x5e855fa1],edx
  402b72:	pop    esi
  402b73:	popf   
  402b74:	mov    ch,0xf1
  402b76:	aad    0x3
  402b78:	jne    0x402bec
  402b7a:	shr    BYTE PTR [ecx+edx*4+0x1037d6f3],1
  402b81:	jb     0x402b9b
  402b83:	ret    0x5a89
  402b86:	shl    DWORD PTR [edi],1
  402b88:	adc    ah,BYTE PTR [ebx+eax*2]
  402b8b:	aam    0x89
  402b8d:	jp     0x402bba
  402b8f:	imul   eax,DWORD PTR [esi+0xc],0x23
  402b93:	fdiv   QWORD PTR [esi+0x2f]
  402b96:	mov    dl,0xc3
  402b98:	add    BYTE PTR [edi-0x4c2b2ba5],al
  402b9e:	(bad)  
  402b9f:	mov    ds:0xb547a102,al
  402ba4:	fst    DWORD PTR [edx-0x7a89d067]
  402baa:	add    edx,DWORD PTR [ebp-0xf]
  402bad:	and    ah,BYTE PTR [esi+0x2c857629]
  402bb3:	fild   DWORD PTR [edx]
  402bb5:	jle    0x402b39
  402bb7:	in     al,dx
  402bb8:	jb     0x402b5b
  402bba:	pop    ebx
  402bbb:	aam    0x89
  402bbd:	jp     0x402b66
  402bbf:	pop    esi
  402bc0:	push   edx
  402bc1:	or     DWORD PTR [ebx],0xc6b949e7
  402bc7:	mov    al,ds:0xe82d8685
  402bcc:	add    cl,ah
  402bce:	sub    esi,DWORD PTR es:[esi-0x7b]
  402bd2:	fsub   QWORD PTR [edx]
  402bd4:	std    
  402bd5:	or     DWORD PTR [ebx+0x57fbfdd8],esp
  402bdb:	push   ecx
  402bdc:	jbe    0x402bec
  402bde:	int3   
  402bdf:	sub    BYTE PTR [ebp-0x727da52e],cl
  402be5:	jmp    DWORD PTR [esi+0x5e]
  402be8:	jb     0x402bbc
  402bea:	pop    edx
  402beb:	or     BYTE PTR [ecx+0xa0f02a],0x95
  402bf2:	pop    esi
  402bf3:	daa    
  402bf4:	add    al,BYTE PTR [ecx+ecx*1-0x590f4952]
  402bfb:	(bad)  
  402bfc:	jle    0x402bef
  402bfe:	push   0xfd52775
  402c03:	mov    esi,0xd4ff2b8d
  402c08:	and    ecx,DWORD PTR [ecx-0x70a0f3]
  402c0e:	mov    bx,0xee6
  402c12:	sbb    eax,0xa34e04c4
  402c17:	jl     0x402bf4
  402c19:	add    BYTE PTR [ebx-0x592c6d60],bl
  402c1f:	sub    esi,DWORD PTR [esi+0x5]
  402c22:	sub    al,0xd0
  402c24:	add    al,0x3e
  402c26:	mov    ds:0x5a7a5329,eax
  402c2b:	aam    0x9
  402c2d:	sub    ah,BYTE PTR [edi+0x5a91525e]
  402c33:	add    BYTE PTR [ecx+0x29cb4bd1],0xdb
  402c3a:	add    ecx,DWORD PTR [ebp+0x7cf52add]
  402c40:	mov    eax,edx
  402c42:	push   edi
  402c43:	mov    WORD PTR [edx],cs
  402c45:	mov    esp,0xe4f9c0b2
  402c4a:	sahf   
  402c4b:	mov    ah,0x2
  402c4d:	test   eax,0xf375d92b
  402c52:	addr16 (bad) 
  402c54:	fisttp WORD PTR [esi+0x21]
  402c57:	stc    
  402c58:	jns    0x402c5b
  402c5a:	int3   
  402c5b:	aam    0x89
  402c5d:	jp     0x402c8a
  402c5f:	movs   DWORD PTR es:[edi],DWORD PTR ds:[esi]
  402c60:	rol    BYTE PTR [ebp-0x33fd2ba5],cl
  402c66:	push   es
  402c67:	sub    esi,DWORD PTR [esi-0x7b]
  402c6a:	fsub   QWORD PTR [edx]
  402c6c:	xchg   dh,bh
  402c6e:	and    eax,0x5e85762b
  402c73:	daa    
  402c74:	and    al,0xf1
  402c76:	pop    esi
  402c77:	sub    BYTE PTR [ebp-0x26ef292b],cl
  402c7d:	sub    esi,esp
  402c7f:	jnp    0x402c9d
  402c81:	xor    DWORD PTR [ebx],0xa67a99d4
  402c87:	jl     0x402c7e
  402c89:	ins    DWORD PTR es:[edi],dx
  402c8a:	pop    edi
  402c8b:	test   bl,ah
  402c8d:	jle    0x402c5d
  402c8f:	sub    esp,DWORD PTR [esi-0x7b]
  402c92:	pop    ebx
  402c93:	or     DWORD PTR [eax],0x7e
  402c96:	sub    BYTE PTR [ebx],0x66
  402c99:	test   DWORD PTR [ebx+0x2b],ebx
  402c9c:	fdiv   QWORD PTR [esi-0x59]
  402c9f:	jge    0x402d1b
  402ca1:	fild   WORD PTR [eax]
  402ca3:	jns    0x402c47
  402ca5:	mov    dl,0xf5
  402ca7:	mov    al,ds:0x57b054be
  402cac:	pusha  
  402cad:	jle    0x402c42
  402caf:	jmp    0x402cc1
  402cb1:	sub    BYTE PTR ds:0xd24a897d,bh
  402cb7:	and    edx,DWORD PTR [ebx+0x7a]
  402cba:	dec    edx
  402cbb:	aam    0x89
  402cbd:	jnp    0x402c71
  402cbf:	sub    al,0x94
  402cc1:	imul   eax,DWORD PTR [eax],0x59
  402cc4:	int    0x5e
  402cc6:	mov    ds:0x5ad5247a,al
  402ccb:	in     eax,0xe1
  402ccd:	jp     0x402c85
  402ccf:	sub    esi,DWORD PTR [esi-0x2e]
  402cd2:	fidivr WORD PTR [ecx*4+0x1e1aa72a]
  402cd9:	test   DWORD PTR [ebx-0x2c],ecx
  402cdc:	mov    DWORD PTR ds:0x85522f25,ebp
  402ce2:	dec    ebx
  402ce3:	aam    0x89
  402ce5:	test   ecx,esi
  402ce7:	daa    
  402ce8:	mov    eax,edx
  402cea:	push   edi
  402ceb:	mov    ss,eax
  402ced:	and    bh,dh
  402cef:	scas   al,BYTE PTR es:[edi]
  402cf0:	mov    edi,0x4ab5d8f0
  402cf5:	sbb    cl,BYTE PTR [ebx+0x2c]
  402cf8:	(bad)  [edi-0x5c]
  402cfb:	pop    ecx
  402cfc:	mov    ebp,0x9ea06379
  402d01:	push   cs
  402d02:	scas   al,BYTE PTR es:[edi]
  402d03:	ins    DWORD PTR es:[edi],dx
  402d04:	cdq    
  402d05:	jp     0x402cad
  402d07:	sub    ebx,DWORD PTR [esi-0x762ba592]
  402d0d:	rol    BYTE PTR [edi-0x4c7a89d5],0x35
  402d14:	jbe    0x402c9b
  402d16:	cmps   DWORD PTR ds:[esi],DWORD PTR es:[edi]
  402d17:	jl     0x402ce8
  402d19:	sbb    BYTE PTR [ebx-0x2c],0x89
  402d1d:	xchg   edx,eax
  402d1e:	jo     0x402cf4
  402d20:	mov    DWORD PTR [edx-0x2a],edi
  402d23:	add    al,0x2
  402d25:	dec    esi
  402d26:	adc    BYTE PTR [edx-0x2ba47a81],0x61
  402d2d:	mov    ebp,0x9762ba7
  402d32:	movs   DWORD PTR es:[edi],DWORD PTR ds:[esi]
  402d33:	pop    edi
  402d34:	inc    ebx
  402d35:	xchg   edx,eax
  402d36:	sbb    ah,dl
  402d38:	mov    DWORD PTR [edx+0x6e],edi
  402d3b:	adc    al,0xd9
  402d3d:	mov    ebx,0x81b72c6e
  402d42:	jg     0x402d1d
  402d44:	mov    BYTE PTR [esi-0x7e],bh
  402d47:	xchg   edx,esi
  402d49:	inc    ebp
  402d4a:	sub    al,0x25
  402d4c:	shl    ecx,1
  402d4e:	pop    edi
  402d4f:	adc    BYTE PTR [ebx-0x361a10f],dh
  402d55:	cmps   DWORD PTR ds:[esi],DWORD PTR es:[edi]
  402d56:	sub    ebx,DWORD PTR [edi]
  402d58:	push   edx
  402d59:	cmp    al,0x51
  402d5b:	aam    0x89
  402d5d:	jp     0x402dad
  402d5f:	mov    esi,0xc45a7a89
  402d64:	ds jbe 0x402d57
  402d67:	jne    0x402d90
  402d69:	cmp    al,0x53
  402d6b:	aam    0x89
  402d6d:	jp     0x402dbd
  402d6f:	scas   al,BYTE PTR es:[edi]
  402d70:	mov    DWORD PTR [edx+0x5a],edi
  402d73:	mov    fs,WORD PTR [ecx+0x5]
  402d76:	cmps   DWORD PTR ds:[esi],DWORD PTR es:[edi]
  402d77:	sub    esi,DWORD PTR [esi+0xf]
  402d7a:	das    
  402d7b:	lock xchg ebp,eax
  402d7d:	sbb    esp,DWORD PTR [ebx+0x7a]
  402d80:	mov    bh,0x6d
  402d82:	inc    esp
  402d83:	ins    DWORD PTR es:[edi],dx
  402d84:	test   eax,0x3e2ba67a
  402d89:	icebp  
  402d8a:	imul   ebp,DWORD PTR [ebp-0x75],0x7a
  402d8e:	cmps   BYTE PTR ds:[esi],BYTE PTR es:[edi]
  402d8f:	sub    edi,DWORD PTR [esi]
  402d91:	icebp  
  402d92:	jae    0x402e01
  402d94:	test   eax,0x3e2ba67a
  402d99:	icebp  
  402d9a:	jnp    0x402e09
  402d9c:	lea    edi,[edx-0x5a]
  402d9f:	sub    edi,DWORD PTR [esi]
  402da1:	icebp  
  402da2:	inc    ebx
  402da3:	ins    DWORD PTR es:[edi],dx
  402da4:	leave  
  402da5:	jp     0x402d4d
  402da7:	sub    edi,DWORD PTR [esi]
  402da9:	icebp  
  402daa:	dec    ebx
  402dab:	ins    DWORD PTR es:[edi],dx
  402dac:	lea    edi,[edx-0x5a]
  402daf:	sub    edi,DWORD PTR [esi]
  402db1:	icebp  
  402db2:	push   ebx
  402db3:	ins    DWORD PTR es:[edi],dx
  402db4:	leave  
  402db5:	jp     0x402d5d
  402db7:	sub    edi,DWORD PTR [esi]
  402db9:	icebp  
  402dba:	pop    ebx
  402dbb:	pop    edi
  402dbc:	dec    eax
  402dbd:	and    esp,DWORD PTR [ebx+0x4b]
  402dc0:	std    
  402dc1:	shr    BYTE PTR [ebx],1
  402dc3:	push   ebp
  402dc4:	jnp    0x402db1
  402dc6:	dec    esp
  402dc7:	outs   dx,BYTE PTR ds:[esi]
  402dc8:	push   cs
  402dc9:	push   cs
  402dca:	adc    al,0xbc
  402dcc:	add    al,BYTE PTR [ebx+eiz*1+0x2f852e56]
  402dd3:	xlat   BYTE PTR ds:[ebx]
  402dd4:	mov    BYTE PTR [edi],cl
  402dd6:	(bad)  
  402dd7:	mov    al,ds:0x14dce533
  402ddc:	std    
  402ddd:	outs   dx,DWORD PTR ds:[esi]
  402dde:	sub    eax,0xe1d74a6d
  402de3:	ror    BYTE PTR [ecx-0x2c3c5986],1
  402de9:	test   BYTE PTR [ebx-0x2c],bl
  402dec:	sar    DWORD PTR [ecx+0x56],cl
  402def:	sub    BYTE PTR [esi-0x3106c52],cl
  402df5:	and    dl,cl
  402df7:	es jne 0x402dea
  402dfa:	pop    es
  402dfb:	xlat   BYTE PTR ds:[ebx]
  402dfc:	hlt    
  402dfd:	mov    esp,DWORD PTR es:[esi+0x2a]
  402e01:	add    BYTE PTR [eax-0x9287d60],dl
  402e07:	add    BYTE PTR [edi+ebx*8+0x796057f6],dh
  402e0e:	inc    esp
  402e0f:	enter  0x4617,0x3b
  402e13:	push   edi
  402e14:	hlt    
  402e15:	cmps   BYTE PTR ss:[esi],BYTE PTR es:[edi]
  402e17:	pop    edi
  402e18:	fs ins DWORD PTR es:[edi],dx
  402e1a:	dec    edx
  402e1b:	aam    0x89
  402e1d:	jp     0x402e4a
  402e1f:	push   esi
  402e20:	and    al,BYTE PTR [eax]
  402e22:	pop    edx
  402e23:	mov    eax,ds:0x884ed18f
  402e28:	jbe    0x402daf
  402e2a:	pop    ebx
  402e2b:	mov    ch,0x4a
  402e2d:	sbb    ah,BYTE PTR [edi-0x7cf1b583]
  402e33:	pop    edi
  402e34:	cld    
  402e35:	sub    ebp,DWORD PTR ss:[esi+0x26]
  402e39:	aad    0xb
  402e3b:	mov    esp,0x2baa7a89
  402e40:	and    eax,0xd0940c7a
  402e45:	sub    ch,BYTE PTR [ebx]
  402e47:	rol    DWORD PTR [ebp-0x76134cdf],cl
  402e4d:	jp     0x402df5
  402e4f:	arpl   di,di
  402e51:	sar    DWORD PTR [edi-0xc],0x2
  402e55:	sub    BYTE PTR [ecx],0x27
  402e58:	retf   
  402e59:	sbb    DWORD PTR [ebx-0x2c],0x33051e89
  402e60:	jbe    0x402de7
  402e62:	pop    ebx
  402e63:	pop    edi
  402e64:	stc    
  402e65:	push   esi
  402e66:	cmc    
  402e67:	inc    ebx
  402e68:	jbe    0x402def
  402e6a:	push   edi
  402e6b:	aam    0xda
  402e6d:	test   ecx,esi
  402e6f:	imul   edi,ebx,0xffffff89
  402e72:	jecxz  0x402ecf
  402e74:	mov    BYTE PTR [edx],ch
  402e76:	sub    esp,esp
  402e78:	std    
  402e79:	jge    0x402e29
  402e7b:	jno    0x402e6a
  402e7d:	fstp   TBYTE PTR [esi-0x357a89d5]
  402e83:	xchg   esp,eax
  402e84:	movs   DWORD PTR es:[edi],DWORD PTR ds:[esi]
  402e85:	sbb    esp,DWORD PTR [ebx+0x4b]
  402e88:	imul   DWORD PTR [ecx+0x7b]
  402e8b:	(bad)  
  402e8c:	mov    DWORD PTR [edx-0x32],edi
  402e8f:	pcmpeqb mm0,QWORD PTR [ebp+0x107fe75b]
  402e96:	cmps   BYTE PTR ds:[esi],BYTE PTR es:[edi]
  402e97:	inc    ecx
  402e98:	jle    0x402f14
  402e9a:	or     al,0xc8
  402e9c:	add    ah,BYTE PTR [edx-0x2f76870e]
  402ea2:	outs   dx,DWORD PTR ds:[esi]
  402ea3:	pop    edi
  402ea4:	int    0x5e
  402ea6:	mov    edx,0xd6b93628
  402eab:	push   esp
  402eac:	dec    ecx
  402ead:	jp     0x402e55
  402eaf:	sub    esi,ebx
  402eb1:	inc    ebp
  402eb2:	das    
  402eb3:	aad    0xcf
  402eb5:	cs repz aam 0x23
  402eb9:	mov    ebp,0x9ffc14dc
  402ebe:	repz aam 0x23
  402ec1:	popf   
  402ec2:	fcom   DWORD PTR [eax]
  402ec4:	lods   eax,DWORD PTR ds:[esi]
  402ec5:	js     0x402e6d
  402ec7:	sub    edi,edi
  402ec9:	icebp  
  402eca:	jg     0x402e94
  402ecc:	call   0x1a83f58a
  402ed1:	jmp    0x9220331
  402ed6:	rol    BYTE PTR ds:0xa734ed12,cl
  402edc:	call   FWORD PTR [ecx]
  402ede:	repnz aam 0x23
  402ee1:	sbb    esp,0xf272fc14
  402ee7:	aam    0x23
  402ee9:	test   esp,ebx
  402eeb:	adc    al,0xfd
  402eed:	aaa    
  402eee:	int3   
  402eef:	sub    ebx,DWORD PTR [esi]
  402ef1:	in     al,dx
  402ef2:	xor    eax,0xc012efa0
  402ef7:	pop    esp
  402ef8:	push   es
  402ef9:	test   DWORD PTR [edi],0xae2f7684
  402eff:	test   al,0xb2
  402f01:	mov    esi,edx
  402f03:	and    al,0xd9
  402f05:	cs int3 
  402f07:	imul   ebx,DWORD PTR [edx+eax*4],0xd
  402f0b:	sub    ebx,esp
  402f0d:	jbe    0x402f0d
  402f0f:	jnp    0x402f33
  402f11:	aad    0x31
  402f13:	rcr    edi,cl
  402f15:	xchg   edx,eax
  402f16:	sub    BYTE PTR [ebx],0x76
  402f19:	test   esi,edx
  402f1b:	call   0x39b02acd
  402f20:	jbe    0x402ea7
  402f22:	pop    ebx
  402f23:	mov    esi,0x8f53238e
  402f28:	xor    DWORD PTR [esi],ecx
  402f2a:	popf   
  402f2b:	jg     0x402f31
  402f2d:	add    al,0x5d
  402f2f:	fwait
  402f30:	push   ds
  402f31:	das    
  402f32:	add    edi,DWORD PTR [edi+0x39]
  402f35:	mov    ecx,0x8923d40c
  402f3a:	add    edx,DWORD PTR [edi+0x4d]
  402f3d:	jbe    0x402f04
  402f3f:	call   0x81cba972
  402f44:	popa   
  402f45:	in     al,0xa6
  402f47:	sub    esi,DWORD PTR [esi-0x28]
  402f4a:	aam    0x91
  402f4c:	stc    
  402f4d:	stc    
  402f4e:	data16 das 
  402f50:	inc    ecx
  402f52:	jg     0x402f18
  402f54:	aam    0x7a
  402f56:	cmps   BYTE PTR ds:[esi],BYTE PTR es:[edi]
  402f57:	sub    esi,DWORD PTR [esi-0x7b]
  402f5a:	pop    ebx
  402f5b:	aam    0xe1
  402f5d:	jp     0x402f05
  402f5f:	sub    esi,DWORD PTR [esi+0x46]
  402f62:	cmp    eax,0x1c1c7fe7
  402f67:	data16 sub al,0xe3
  402f6a:	hlt    
  402f6b:	mov    dl,0xba
  402f6d:	stos   BYTE PTR es:[edi],al
  402f6e:	shl    BYTE PTR [ebx],cl
  402f70:	imul   DWORD PTR [ebx+0x59]
  402f73:	les    ecx,FWORD PTR [ecx-0x439b486]
  402f79:	(bad)  [ebp+0x550f7650]
  402f7f:	mov    al,ds:0x6e3dbf00
  402f84:	fnstcw WORD PTR [edi]
  402f86:	sub    DWORD PTR [edi],ebx
  402f88:	push   0xbab2f4e3
  402f8d:	stos   BYTE PTR es:[edi],al
  402f8e:	ror    ebx,1
  402f90:	mov    ch,0xd4
  402f92:	outs   dx,BYTE PTR ds:[esi]
  402f93:	sbb    eax,0x536451c8
  402f98:	jb     0x402f8b
  402f9a:	pop    ecx
  402f9b:	aas    
  402f9c:	jle    0x402fe7
  402f9e:	data16 sub BYTE PTR [edi+eiz*2-0xeb57259],dh
  402fa6:	fld    DWORD PTR [ebx+0x1c]
  402fa9:	xor    DWORD PTR [ebx],0xa67a99d4
  402faf:	jl     0x402fcd
  402fb1:	test   DWORD PTR [edx-0x7e],ebx
  402fb4:	cdq    
  402fb5:	icebp  
  402fb6:	push   esi
  402fb7:	stos   BYTE PTR es:[edi],al
  402fb8:	call   0x5af1:0x89d45881
  402fbf:	inc    ebx
  402fc0:	jb     0x402f46
  402fc2:	pop    ebx
  402fc3:	aam    0xde
  402fc5:	sub    DWORD PTR [edi+0x5bef567d],esp
  402fcb:	mov    esp,0x2ba67a09
  402fd0:	sbb    al,0x86
  402fd2:	xor    esp,edx
  402fd4:	jecxz  0x403051
  402fd6:	into   
  402fd7:	sub    esi,DWORD PTR [esi-0x7b]
  402fda:	fild   DWORD PTR [ebx-0x557dd08a]
  402fe0:	mov    dl,0x81
  402fe2:	pop    eax
  402fe3:	aam    0x89
  402fe5:	mov    ecx,0x55897336
  402fea:	cmps   BYTE PTR ds:[esi],BYTE PTR es:[edi]
  402feb:	add    BYTE PTR [ebx],ch
  402fed:	sbb    ebp,DWORD PTR [edi+edx*1]
  402ff0:	jb     0x402fba
  402ff2:	adc    al,0x6c
  402ff4:	es mov dh,0x79
  402ff7:	adc    bh,ch
  402ff9:	add    edi,DWORD PTR [ebx+0x58]
  402ffc:	rcr    DWORD PTR [eax],0x45
  402fff:	pop    ecx
  403000:	scas   eax,DWORD PTR es:[edi]
  403001:	sahf   
  403002:	mov    ebx,0x3b165768
  403007:	test   edx,ebp
  403009:	push   ecx
  40300a:	fwait
  40300b:	test   eax,0xdb467ee6
  403011:	xchg   edx,eax
  403012:	movs   DWORD PTR es:[edi],DWORD PTR ds:[esi]
  403013:	sbb    eax,0x47e0ff23
  403018:	in     al,dx
  403019:	lods   al,BYTE PTR ds:[esi]
  40301a:	push   ebx
  40301b:	push   edi
  40301c:	sbb    ch,0x1d
  40301f:	int    0x60
  403021:	test   BYTE PTR [ebx],bl
  403023:	enter  0xf188,0x1b
  403027:	arpl   WORD PTR [edx+eax*2+0x5cd56bd4],dx
  40302e:	movs   BYTE PTR es:[edi],BYTE PTR ds:[esi]
  40302f:	mov    eax,0xd45b3249
  403034:	mov    DWORD PTR [edx-0x5a],edi
  403037:	sub    esi,DWORD PTR [esi-0x7b]
  40303a:	pop    ebx
  40303b:	aam    0x89
  40303d:	jp     0x402fe5
  40303f:	sub    esi,DWORD PTR [esi-0x7b]
  403042:	pop    ebx
  403043:	aam    0x89
  403045:	jp     0x402fed
  403047:	sub    esi,DWORD PTR [esi-0x7b]
  40304a:	pop    ebx
  40304b:	aam    0x89
  40304d:	jp     0x403045
  40304f:	lods   al,BYTE PTR ds:[esi]
  403050:	ja     0x402fd7
  403052:	pop    ebx
  403053:	into   
  403054:	mov    WORD PTR [edx-0x5a],?
  403057:	das    
  403058:	jbe    0x402fdf
  40305a:	xchg   esi,eax
  40305b:	jmp    0xb856:0xaaae7845
  403062:	sbb    al,0xb6
  403064:	add    ebx,DWORD PTR [eax]
  403066:	ja     0x4030c0
  403068:	popf   
  403069:	fisub  WORD PTR [esp+esi*8]
