
7010ab07aed738b030a975174d684a6da968fc8e18587fb78e3ca5594bcd20a6.exe:     file format pei-i386


Disassembly of section .text:

00401000 <.text>:
	...
  401008:	jb     0x401010
  40100e:	add    BYTE PTR [eax],al
  401010:	mov    edi,edi
  401012:	pusha  
  401013:	push   ebp
  401014:	mov    ebp,esp
  401016:	sub    esp,0x44
  401019:	push   edx
  40101a:	mov    ecx,0x0
  40101f:	push   ecx
  401020:	push   0x403048
  401025:	pop    eax
  401026:	call   DWORD PTR cs:[eax]
  401029:	pop    edx
  40102a:	test   eax,eax
  40102c:	je     0x40102f
  40102e:	ret    
  40102f:	push   edx
  401030:	push   DWORD PTR [edx+0x104]
  401036:	push   edi
  401037:	push   ecx
  401038:	call   0x401928
  40103d:	add    esp,0xc
  401040:	pop    edx
  401041:	push   edx
  401042:	push   0x403008
  401047:	pop    eax
  401048:	call   DWORD PTR cs:[eax]
  40104b:	pop    edx
  40104c:	mov    edi,0x403028
  401051:	mov    edi,DWORD PTR [edi]
  401053:	push   edi
  401054:	push   DWORD PTR [edx+0x538]
  40105a:	pop    edi
  40105b:	call   edi
  40105d:	sub    esp,0xffffffbc
  401060:	mov    ebp,DWORD PTR [esp]
  401063:	add    esp,0x4
  401066:	ret    
  401067:	add    BYTE PTR [ebx-0x1374aa01],cl
  40106d:	sub    esp,0x28
  401070:	push   edx
  401071:	push   eax
  401072:	push   esi
  401073:	push   DWORD PTR [edx+0x150]
  401079:	call   0x4019f8
  40107e:	add    esp,0xc
  401081:	pop    edx
  401082:	push   edx
  401083:	push   0x0
  401085:	push   0x403044
  40108a:	pop    eax
  40108b:	call   DWORD PTR cs:[eax]
  40108e:	pop    edx
  40108f:	push   edx
  401090:	push   0x40302c
  401095:	pop    eax
  401096:	call   DWORD PTR cs:[eax]
  401099:	pop    edx
  40109a:	sub    esp,0xffffffd8
  40109d:	mov    ebp,DWORD PTR [esp]
  4010a0:	add    esp,0x4
  4010a3:	ret    
  4010a4:	mov    edi,edi
  4010a6:	push   ebp
  4010a7:	mov    ebp,esp
  4010a9:	sub    esp,0x2c
  4010ac:	push   edx
  4010ad:	mov    esi,0x0
  4010b2:	push   esi
  4010b3:	push   0x40300c
  4010b8:	pop    eax
  4010b9:	call   DWORD PTR cs:[eax]
  4010bc:	pop    edx
  4010bd:	push   edx
  4010be:	push   DWORD PTR [edx+0x4f8]
  4010c4:	push   DWORD PTR [edx+0x3f4]
  4010ca:	push   esi
  4010cb:	call   0x40117c
  4010d0:	add    esp,0xc
  4010d3:	pop    edx
  4010d4:	push   edx
  4010d5:	push   0x0
  4010d7:	push   0x40300c
  4010dc:	pop    eax
  4010dd:	call   DWORD PTR cs:[eax]
  4010e0:	pop    edx
  4010e1:	sub    esp,0xffffffd4
  4010e4:	mov    ebp,DWORD PTR [esp]
  4010e7:	add    esp,0x4
  4010ea:	ret    
  4010eb:	add    BYTE PTR [eax],al
  4010ed:	add    BYTE PTR [eax],al
  4010ef:	add    BYTE PTR [ebx-0x1374aa01],cl
  4010f5:	sub    esp,0x24
  4010f8:	push   edx
  4010f9:	mov    ecx,0x0
  4010fe:	push   ecx
  4010ff:	push   0x40303c
  401104:	pop    eax
  401105:	call   DWORD PTR cs:[eax]
  401108:	pop    edx
  401109:	push   edx
  40110a:	push   DWORD PTR [edx+0x238]
  401110:	push   ecx
  401111:	call   0x4016d4
  401116:	add    esp,0x8
  401119:	pop    edx
  40111a:	push   edx
  40111b:	push   0x0
  40111d:	push   0x40306c
  401122:	pop    eax
  401123:	call   DWORD PTR cs:[eax]
  401126:	pop    edx
  401127:	sub    esp,0xffffffdc
  40112a:	mov    ebp,DWORD PTR [esp]
  40112d:	add    esp,0x4
  401130:	ret    
  401131:	add    BYTE PTR [eax],al
  401133:	add    BYTE PTR [eax],al
  401135:	add    BYTE PTR [eax],al
  401137:	add    BYTE PTR [ebx-0x1374aa01],cl
  40113d:	sub    esp,0x20
  401140:	push   edx
  401141:	mov    eax,0x0
  401146:	push   eax
  401147:	push   0x403034
  40114c:	pop    eax
  40114d:	call   DWORD PTR cs:[eax]
  401150:	pop    edx
  401151:	push   edx
  401152:	push   esi
  401153:	push   DWORD PTR [edx+0x5b8]
  401159:	push   edi
  40115a:	call   0x401608
  40115f:	add    esp,0xc
  401162:	pop    edx
  401163:	push   edx
  401164:	push   0x0
  401166:	push   0x403068
  40116b:	pop    eax
  40116c:	call   DWORD PTR cs:[eax]
  40116f:	pop    edx
  401170:	sub    esp,0xffffffe0
  401173:	mov    ebp,DWORD PTR [esp]
  401176:	add    esp,0x4
  401179:	ret    
  40117a:	add    BYTE PTR [eax],al
  40117c:	mov    edi,edi
  40117e:	push   ebp
  40117f:	mov    ebp,esp
  401181:	sub    esp,0x30
  401184:	push   edx
  401185:	mov    ebx,0x0
  40118a:	push   ebx
  40118b:	push   0x403068
  401190:	pop    eax
  401191:	call   DWORD PTR cs:[eax]
  401194:	pop    edx
  401195:	push   edx
  401196:	push   ecx
  401197:	push   DWORD PTR [edx+0x4dc]
  40119d:	push   DWORD PTR [edx+0x494]
  4011a3:	call   0x4018dc
  4011a8:	add    esp,0xc
  4011ab:	pop    edx
  4011ac:	push   edx
  4011ad:	push   0x40302c
  4011b2:	pop    eax
  4011b3:	call   DWORD PTR cs:[eax]
  4011b6:	pop    edx
  4011b7:	sub    esp,0xffffffd0
  4011ba:	mov    ebp,DWORD PTR [esp]
  4011bd:	add    esp,0x4
  4011c0:	ret    
	...
  4011c9:	add    BYTE PTR [eax],al
  4011cb:	add    BYTE PTR [ebx-0x1374aa01],cl
  4011d1:	sub    esp,0x44
  4011d4:	push   edx
  4011d5:	push   ecx
  4011d6:	push   DWORD PTR [edx+0x304]
  4011dc:	call   0x401c6c
  4011e1:	add    esp,0x8
  4011e4:	pop    edx
  4011e5:	push   edx
  4011e6:	push   0x0
  4011e8:	push   0x403014
  4011ed:	pop    eax
  4011ee:	call   DWORD PTR cs:[eax]
  4011f1:	pop    edx
  4011f2:	push   edx
  4011f3:	push   0x40302c
  4011f8:	pop    eax
  4011f9:	call   DWORD PTR cs:[eax]
  4011fc:	pop    edx
  4011fd:	sub    esp,0xffffffbc
  401200:	mov    ebp,DWORD PTR [esp]
  401203:	add    esp,0x4
  401206:	ret    
  401207:	add    BYTE PTR [ebx-0x1374aa01],cl
  40120d:	sub    esp,0x34
  401210:	push   edx
  401211:	mov    ebx,0x0
  401216:	push   ebx
  401217:	push   0x403048
  40121c:	pop    eax
  40121d:	call   DWORD PTR cs:[eax]
  401220:	pop    edx
  401221:	push   edx
  401222:	push   ebx
  401223:	push   DWORD PTR [edx+0x164]
  401229:	push   DWORD PTR [edx+0x3d0]
  40122f:	push   DWORD PTR [edx+0x168]
  401235:	call   0x401c24
  40123a:	add    esp,0x10
  40123d:	pop    edx
  40123e:	push   edx
  40123f:	push   0x403008
  401244:	pop    eax
  401245:	call   DWORD PTR cs:[eax]
  401248:	pop    edx
  401249:	sub    esp,0xffffffcc
  40124c:	mov    ebp,DWORD PTR [esp]
  40124f:	add    esp,0x4
  401252:	ret    
  401253:	add    BYTE PTR [eax],al
  401255:	add    BYTE PTR [eax],al
  401257:	add    BYTE PTR [ebx-0x1374aa01],cl
  40125d:	sub    esp,0x2c
  401260:	push   edx
  401261:	push   0x40302c
  401266:	pop    eax
  401267:	call   DWORD PTR cs:[eax]
  40126a:	pop    edx
  40126b:	push   edx
  40126c:	push   eax
  40126d:	push   eax
  40126e:	push   esi
  40126f:	call   0x401e10
  401274:	add    esp,0xc
  401277:	pop    edx
  401278:	push   edx
  401279:	mov    eax,0x0
  40127e:	push   eax
  40127f:	push   0x403078
  401284:	pop    eax
  401285:	call   DWORD PTR cs:[eax]
  401288:	pop    edx
  401289:	sub    esp,0xffffffd4
  40128c:	mov    ebp,DWORD PTR [esp]
  40128f:	add    esp,0x4
  401292:	ret    
  401293:	add    BYTE PTR [eax],al
  401295:	add    BYTE PTR [eax],al
  401297:	add    BYTE PTR [ebx-0x1374aa01],cl
  40129d:	sub    esp,0x48
  4012a0:	push   edx
  4012a1:	push   0x403008
  4012a6:	pop    eax
  4012a7:	call   DWORD PTR cs:[eax]
  4012aa:	pop    edx
  4012ab:	push   edx
  4012ac:	push   esi
  4012ad:	push   DWORD PTR [edx+0x340]
  4012b3:	push   eax
  4012b4:	call   0x401d90
  4012b9:	add    esp,0xc
  4012bc:	pop    edx
  4012bd:	push   edx
  4012be:	push   0x0
  4012c0:	push   0x403048
  4012c5:	pop    eax
  4012c6:	call   DWORD PTR cs:[eax]
  4012c9:	pop    edx
  4012ca:	sub    esp,0xffffffb8
  4012cd:	mov    ebp,DWORD PTR [esp]
  4012d0:	add    esp,0x4
  4012d3:	ret    
  4012d4:	add    BYTE PTR [eax],al
  4012d6:	add    BYTE PTR [eax],al
  4012d8:	mov    edi,edi
  4012da:	push   ebp
  4012db:	mov    ebp,esp
  4012dd:	sub    esp,0x30
  4012e0:	push   edx
  4012e1:	mov    edx,0x0
  4012e6:	push   edx
  4012e7:	push   0x403024
  4012ec:	pop    eax
  4012ed:	call   DWORD PTR cs:[eax]
  4012f0:	pop    edx
  4012f1:	push   edx
  4012f2:	push   DWORD PTR [edx+0x300]
  4012f8:	push   ebx
  4012f9:	call   0x401b30
  4012fe:	add    esp,0x8
  401301:	pop    edx
  401302:	push   edx
  401303:	push   0x0
  401305:	push   0x403078
  40130a:	pop    eax
  40130b:	call   DWORD PTR cs:[eax]
  40130e:	pop    edx
  40130f:	sub    esp,0xffffffd0
  401312:	mov    ebp,DWORD PTR [esp]
  401315:	add    esp,0x4
  401318:	ret    
  401319:	add    BYTE PTR [eax],al
  40131b:	add    BYTE PTR [eax],al
  40131d:	add    BYTE PTR [eax],al
  40131f:	add    BYTE PTR [ebx-0x1374aa01],cl
  401325:	sub    esp,0x34
  401328:	push   edx
  401329:	mov    esi,0x0
  40132e:	push   esi
  40132f:	push   0x403048
  401334:	pop    eax
  401335:	call   DWORD PTR cs:[eax]
  401338:	pop    edx
  401339:	push   edx
  40133a:	push   DWORD PTR [edx+0x350]
  401340:	push   ebx
  401341:	push   DWORD PTR [edx+0x2b8]
  401347:	call   0x401d44
  40134c:	add    esp,0xc
  40134f:	pop    edx
  401350:	push   edx
  401351:	push   0x40302c
  401356:	pop    eax
  401357:	call   DWORD PTR cs:[eax]
  40135a:	pop    edx
  40135b:	sub    esp,0xffffffcc
  40135e:	mov    ebp,DWORD PTR [esp]
  401361:	add    esp,0x4
  401364:	ret    
  401365:	add    BYTE PTR [eax],al
  401367:	add    BYTE PTR [eax],al
  401369:	add    BYTE PTR [eax],al
  40136b:	add    BYTE PTR [ebx-0x1374aa01],cl
  401371:	sub    esp,0x4c
  401374:	push   edx
  401375:	mov    esi,0x0
  40137a:	push   esi
  40137b:	push   0x403018
  401380:	pop    eax
  401381:	call   DWORD PTR cs:[eax]
  401384:	pop    edx
  401385:	push   edx
  401386:	push   eax
  401387:	push   DWORD PTR [edx+0x5ac]
  40138d:	push   eax
  40138e:	call   0x401b74
  401393:	add    esp,0xc
  401396:	pop    edx
  401397:	push   edx
  401398:	push   0x0
  40139a:	push   0x403034
  40139f:	pop    eax
  4013a0:	call   DWORD PTR cs:[eax]
  4013a3:	pop    edx
  4013a4:	sub    esp,0xffffffb4
  4013a7:	mov    ebp,DWORD PTR [esp]
  4013aa:	add    esp,0x4
  4013ad:	ret    
  4013ae:	add    BYTE PTR [eax],al
  4013b0:	mov    edi,edi
  4013b2:	push   ebp
  4013b3:	mov    ebp,esp
  4013b5:	sub    esp,0x28
  4013b8:	push   edx
  4013b9:	push   0x0
  4013bb:	push   0x403040
  4013c0:	pop    eax
  4013c1:	call   DWORD PTR cs:[eax]
  4013c4:	pop    edx
  4013c5:	push   edx
  4013c6:	push   ebx
  4013c7:	push   DWORD PTR [edx+0x2c]
  4013ca:	call   0x40136c
  4013cf:	add    esp,0x8
  4013d2:	pop    edx
  4013d3:	push   edx
  4013d4:	mov    edi,0x0
  4013d9:	push   edi
  4013da:	push   0x403024
  4013df:	pop    eax
  4013e0:	call   DWORD PTR cs:[eax]
  4013e3:	pop    edx
  4013e4:	sub    esp,0xffffffd8
  4013e7:	mov    ebp,DWORD PTR [esp]
  4013ea:	add    esp,0x4
  4013ed:	ret    
  4013ee:	add    BYTE PTR [eax],al
  4013f0:	mov    edi,edi
  4013f2:	push   ebp
  4013f3:	mov    ebp,esp
  4013f5:	sub    esp,0x50
  4013f8:	push   edx
  4013f9:	mov    esi,0x0
  4013fe:	push   esi
  4013ff:	push   0x403048
  401404:	pop    eax
  401405:	call   DWORD PTR cs:[eax]
  401408:	pop    edx
  401409:	push   edx
  40140a:	push   ecx
  40140b:	push   DWORD PTR [edx+0x280]
  401411:	call   0x401580
  401416:	add    esp,0x8
  401419:	pop    edx
  40141a:	push   edx
  40141b:	push   0x0
  40141d:	push   0x403068
  401422:	pop    eax
  401423:	call   DWORD PTR cs:[eax]
  401426:	pop    edx
  401427:	sub    esp,0xffffffb0
  40142a:	mov    ebp,DWORD PTR [esp]
  40142d:	add    esp,0x4
  401430:	ret    
  401431:	add    BYTE PTR [eax],al
  401433:	add    BYTE PTR [ebx-0x1374aa01],cl
  401439:	sub    esp,0x20
  40143c:	push   edx
  40143d:	push   0x40302c
  401442:	pop    eax
  401443:	call   DWORD PTR cs:[eax]
  401446:	pop    edx
  401447:	push   edx
  401448:	push   eax
  401449:	push   ebx
  40144a:	push   ecx
  40144b:	call   0x401640
  401450:	add    esp,0xc
  401453:	pop    edx
  401454:	push   edx
  401455:	push   0x0
  401457:	push   0x403048
  40145c:	pop    eax
  40145d:	call   DWORD PTR cs:[eax]
  401460:	pop    edx
  401461:	sub    esp,0xffffffe0
  401464:	mov    ebp,DWORD PTR [esp]
  401467:	add    esp,0x4
  40146a:	ret    
  40146b:	add    BYTE PTR [eax],al
  40146d:	add    BYTE PTR [eax],al
  40146f:	add    BYTE PTR [ebx-0x1374aa01],cl
  401475:	sub    esp,0x50
  401478:	push   edx
  401479:	push   ecx
  40147a:	push   esi
  40147b:	call   0x401770
  401480:	add    esp,0x8
  401483:	pop    edx
  401484:	push   edx
  401485:	mov    esi,0x0
  40148a:	push   esi
  40148b:	push   0x403044
  401490:	pop    eax
  401491:	call   DWORD PTR cs:[eax]
  401494:	pop    edx
  401495:	push   edx
  401496:	lea    eax,[edx]
  401498:	push   eax
  401499:	push   0x403028
  40149e:	pop    eax
  40149f:	call   DWORD PTR cs:[eax]
  4014a2:	test   eax,eax
  4014a4:	jne    0x401496
  4014a6:	pop    edx
  4014a7:	sub    esp,0xffffffb0
  4014aa:	mov    ebp,DWORD PTR [esp]
  4014ad:	add    esp,0x4
  4014b0:	ret    
  4014b1:	add    BYTE PTR [eax],al
  4014b3:	add    BYTE PTR [ebx],ch
  4014b5:	rol    BYTE PTR [ecx+0x47f000c2],cl
  4014bb:	add    BYTE PTR [edx+0x33],dl
  4014be:	leave  
  4014bf:	or     ecx,0x403094
  4014c5:	and    WORD PTR [ecx],0x0
  4014c9:	push   DWORD PTR [ecx]
  4014cb:	pop    eax
  4014cc:	mov    edx,eax
  4014ce:	push   0x3c
  4014d0:	add    DWORD PTR [esp],eax
  4014d3:	pop    ecx
  4014d4:	push   eax
  4014d5:	mov    edi,esp
  4014d7:	mov    esi,ecx
  4014d9:	movs   DWORD PTR es:[edi],DWORD PTR ds:[esi]
  4014da:	pop    eax
  4014db:	mov    edx,DWORD PTR [eax+edx*1+0x1c]
  4014df:	ror    edx,0x8
  4014e2:	xor    eax,eax
  4014e4:	or     al,0x80
  4014e6:	cmp    al,dl
  4014e8:	pop    edx
  4014e9:	ja     0x4014f4
  4014eb:	nop
  4014ec:	nop
  4014ed:	nop
  4014ee:	nop
  4014ef:	jmp    0x401008
  4014f4:	xor    esp,esp
  4014f6:	int    0x3
  4014f8:	add    BYTE PTR [eax],al
  4014fa:	add    BYTE PTR [eax],al
  4014fc:	mov    edi,edi
  4014fe:	push   ebp
  4014ff:	mov    ebp,esp
  401501:	sub    esp,0x30
  401504:	push   edx
  401505:	push   edi
  401506:	push   edi
  401507:	call   0x401068
  40150c:	add    esp,0x8
  40150f:	pop    edx
  401510:	push   edx
  401511:	mov    eax,0x0
  401516:	push   eax
  401517:	push   0x403018
  40151c:	pop    eax
  40151d:	call   DWORD PTR cs:[eax]
  401520:	pop    edx
  401521:	push   edx
  401522:	push   0x0
  401524:	push   0x403024
  401529:	pop    eax
  40152a:	call   DWORD PTR cs:[eax]
  40152d:	pop    edx
  40152e:	sub    esp,0xffffffd0
  401531:	mov    ebp,DWORD PTR [esp]
  401534:	add    esp,0x4
  401537:	ret    
  401538:	add    BYTE PTR [eax],al
  40153a:	add    BYTE PTR [eax],al
  40153c:	mov    edi,edi
  40153e:	push   ebp
  40153f:	mov    ebp,esp
  401541:	sub    esp,0x28
  401544:	push   edx
  401545:	push   DWORD PTR [edx+0x60]
  401548:	push   ecx
  401549:	call   0x401848
  40154e:	add    esp,0x8
  401551:	pop    edx
  401552:	push   edx
  401553:	push   0x0
  401555:	push   0x403018
  40155a:	pop    eax
  40155b:	call   DWORD PTR cs:[eax]
  40155e:	pop    edx
  40155f:	push   edx
  401560:	mov    edi,0x0
  401565:	push   edi
  401566:	push   0x40300c
  40156b:	pop    eax
  40156c:	call   DWORD PTR cs:[eax]
  40156f:	pop    edx
  401570:	sub    esp,0xffffffd8
  401573:	mov    ebp,DWORD PTR [esp]
  401576:	add    esp,0x4
  401579:	ret    
  40157a:	add    BYTE PTR [eax],al
  40157c:	add    BYTE PTR [eax],al
  40157e:	add    BYTE PTR [eax],al
  401580:	mov    edi,edi
  401582:	push   ebp
  401583:	mov    ebp,esp
  401585:	sub    esp,0x28
  401588:	push   edx
  401589:	mov    eax,0x0
  40158e:	push   eax
  40158f:	push   0x403024
  401594:	pop    eax
  401595:	call   DWORD PTR cs:[eax]
  401598:	pop    edx
  401599:	push   edx
  40159a:	push   esi
  40159b:	push   edi
  40159c:	push   ecx
  40159d:	call   0x401470
  4015a2:	add    esp,0xc
  4015a5:	pop    edx
  4015a6:	push   edx
  4015a7:	mov    eax,0x0
  4015ac:	push   eax
  4015ad:	push   0x403040
  4015b2:	pop    eax
  4015b3:	call   DWORD PTR cs:[eax]
  4015b6:	pop    edx
  4015b7:	sub    esp,0xffffffd8
  4015ba:	mov    ebp,DWORD PTR [esp]
  4015bd:	add    esp,0x4
  4015c0:	ret    
  4015c1:	add    BYTE PTR [eax],al
  4015c3:	add    BYTE PTR [ebx-0x1374aa01],cl
  4015c9:	sub    esp,0x5c
  4015cc:	push   edx
  4015cd:	mov    esi,0x0
  4015d2:	push   esi
  4015d3:	push   0x40300c
  4015d8:	pop    eax
  4015d9:	call   DWORD PTR cs:[eax]
  4015dc:	pop    edx
  4015dd:	push   edx
  4015de:	push   DWORD PTR [edx+0x340]
  4015e4:	push   esi
  4015e5:	call   0x40180c
  4015ea:	add    esp,0x8
  4015ed:	pop    edx
  4015ee:	push   edx
  4015ef:	push   0x0
  4015f1:	push   0x40306c
  4015f6:	pop    eax
  4015f7:	call   DWORD PTR cs:[eax]
  4015fa:	pop    edx
  4015fb:	sub    esp,0xffffffa4
  4015fe:	mov    ebp,DWORD PTR [esp]
  401601:	add    esp,0x4
  401604:	ret    
  401605:	add    BYTE PTR [eax],al
  401607:	add    BYTE PTR [ebx-0x1374aa01],cl
  40160d:	sub    esp,0x60
  401610:	push   edx
  401611:	push   0x0
  401613:	push   0x403024
  401618:	pop    eax
  401619:	call   DWORD PTR cs:[eax]
  40161c:	pop    edx
  40161d:	push   edx
  40161e:	push   eax
  40161f:	push   ebx
  401620:	call   0x401720
  401625:	add    esp,0x8
  401628:	pop    edx
  401629:	push   edx
  40162a:	push   0x0
  40162c:	push   0x403048
  401631:	pop    eax
  401632:	call   DWORD PTR cs:[eax]
  401635:	pop    edx
  401636:	sub    esp,0xffffffa0
  401639:	mov    ebp,DWORD PTR [esp]
  40163c:	add    esp,0x4
  40163f:	ret    
  401640:	mov    edi,edi
  401642:	push   ebp
  401643:	mov    ebp,esp
  401645:	sub    esp,0x5c
  401648:	push   edx
  401649:	mov    edi,0x0
  40164e:	push   edi
  40164f:	push   0x40303c
  401654:	pop    eax
  401655:	call   DWORD PTR cs:[eax]
  401658:	pop    edx
  401659:	push   edx
  40165a:	push   DWORD PTR [edx+0x2c]
  40165d:	push   DWORD PTR [edx+0x128]
  401663:	push   DWORD PTR [edx+0x52c]
  401669:	call   0x401dd0
  40166e:	add    esp,0xc
  401671:	pop    edx
  401672:	push   edx
  401673:	push   0x0
  401675:	push   0x403024
  40167a:	pop    eax
  40167b:	call   DWORD PTR cs:[eax]
  40167e:	pop    edx
  40167f:	sub    esp,0xffffffa4
  401682:	mov    ebp,DWORD PTR [esp]
  401685:	add    esp,0x4
  401688:	ret    
  401689:	add    BYTE PTR [eax],al
  40168b:	add    BYTE PTR [eax],al
  40168d:	add    BYTE PTR [eax],al
  40168f:	add    BYTE PTR [ebx-0x1374aa01],cl
  401695:	sub    esp,0x54
  401698:	push   edx
  401699:	mov    edi,0x0
  40169e:	push   edi
  40169f:	push   0x40303c
  4016a4:	pop    eax
  4016a5:	call   DWORD PTR cs:[eax]
  4016a8:	pop    edx
  4016a9:	push   edx
  4016aa:	push   edi
  4016ab:	push   DWORD PTR [edx+0x348]
  4016b1:	push   ebx
  4016b2:	call   0x401138
  4016b7:	add    esp,0xc
  4016ba:	pop    edx
  4016bb:	push   edx
  4016bc:	push   0x0
  4016be:	push   0x403048
  4016c3:	pop    eax
  4016c4:	call   DWORD PTR cs:[eax]
  4016c7:	pop    edx
  4016c8:	sub    esp,0xffffffac
  4016cb:	mov    ebp,DWORD PTR [esp]
  4016ce:	add    esp,0x4
  4016d1:	ret    
  4016d2:	add    BYTE PTR [eax],al
  4016d4:	mov    edi,edi
  4016d6:	push   ebp
  4016d7:	mov    ebp,esp
  4016d9:	sub    esp,0x50
  4016dc:	push   edx
  4016dd:	lea    eax,[edx]
  4016df:	push   eax
  4016e0:	push   0x403028
  4016e5:	pop    eax
  4016e6:	call   DWORD PTR cs:[eax]
  4016e9:	test   eax,eax
  4016eb:	jne    0x4016dd
  4016ed:	pop    edx
  4016ee:	push   edx
  4016ef:	push   DWORD PTR [edx+0x3f4]
  4016f5:	push   esi
  4016f6:	push   ecx
  4016f7:	push   DWORD PTR [edx+0x5dc]
  4016fd:	call   0x40153c
  401702:	add    esp,0x10
  401705:	pop    edx
  401706:	push   edx
  401707:	push   0x0
  401709:	push   0x403034
  40170e:	pop    eax
  40170f:	call   DWORD PTR cs:[eax]
  401712:	pop    edx
  401713:	sub    esp,0xffffffb0
  401716:	mov    ebp,DWORD PTR [esp]
  401719:	add    esp,0x4
  40171c:	ret    
  40171d:	add    BYTE PTR [eax],al
  40171f:	add    BYTE PTR [ebx-0x1374aa01],cl
  401725:	sub    esp,0x58
  401728:	push   edx
  401729:	push   esi
  40172a:	push   DWORD PTR [edx+0x36c]
  401730:	push   ecx
  401731:	push   DWORD PTR [edx+0x3f8]
  401737:	call   0x4013b0
  40173c:	add    esp,0x10
  40173f:	pop    edx
  401740:	push   edx
  401741:	mov    esi,0x0
  401746:	push   esi
  401747:	push   0x403068
  40174c:	pop    eax
  40174d:	call   DWORD PTR cs:[eax]
  401750:	pop    edx
  401751:	push   edx
  401752:	lea    eax,[edx]
  401754:	push   eax
  401755:	push   0x403028
  40175a:	pop    eax
  40175b:	call   DWORD PTR cs:[eax]
  40175e:	test   eax,eax
  401760:	jne    0x401752
  401762:	pop    edx
  401763:	sub    esp,0xffffffa8
  401766:	mov    ebp,DWORD PTR [esp]
  401769:	add    esp,0x4
  40176c:	ret    
  40176d:	add    BYTE PTR [eax],al
  40176f:	add    BYTE PTR [ebx-0x1374aa01],cl
  401775:	sub    esp,0x40
  401778:	push   edx
  401779:	mov    esi,0x6b0
  40177e:	push   esi
  40177f:	push   0x6b0
  401784:	mov    edx,0x40000
  401789:	push   edx
  40178a:	push   0x403000
  40178f:	pop    esi
  401790:	push   DWORD PTR [esi]
  401792:	sub    DWORD PTR [esp],0x2
  401796:	push   0x403010
  40179b:	pop    esi
  40179c:	pop    DWORD PTR [esi]
  40179e:	push   0x403010
  4017a3:	pop    eax
  4017a4:	call   DWORD PTR cs:[eax]
  4017a7:	xchg   DWORD PTR [esp],eax
  4017aa:	mov    edx,eax
  4017ac:	pop    edi
  4017ad:	mov    DWORD PTR [edx+0x538],edi
  4017b3:	mov    esi,DWORD PTR [edx+0x538]
  4017b9:	mov    esi,esi
  4017bb:	sub    ecx,ecx
  4017bd:	dec    ecx
  4017be:	and    ecx,0x401e71
  4017c4:	mov    ebx,DWORD PTR [ecx]
  4017c6:	mov    DWORD PTR [esi],ebx
  4017c8:	add    ecx,0x3
  4017cb:	add    esi,0x3
  4017ce:	mov    ebx,0x6a719112
  4017d3:	mov    edi,0x6b0
  4017d8:	cmp    edi,0x0
  4017db:	je     0x4017f9
  4017dd:	add    edi,0xfffffffc
  4017e0:	mov    eax,ebx
  4017e2:	xor    eax,DWORD PTR [ecx]
  4017e4:	sub    eax,0x1
  4017e7:	mov    DWORD PTR [esi],eax
  4017e9:	push   DWORD PTR [esi]
  4017eb:	mov    ebx,0xfffffffc
  4017f0:	sub    ecx,ebx
  4017f2:	sub    esi,ebx
  4017f4:	pop    ebx
  4017f5:	bswap  ebx
  4017f7:	jmp    0x4017d8
  4017f9:	push   edx
  4017fa:	push   0x0
  4017fc:	push   0x40300c
  401801:	pop    eax
  401802:	call   DWORD PTR cs:[eax]
  401805:	pop    edx
  401806:	sub    esp,0xffffffc0
  401809:	pop    ebp
  40180a:	ret    
  40180b:	add    BYTE PTR [ebx-0x1374aa01],cl
  401811:	sub    esp,0x3c
  401814:	push   edx
  401815:	push   0x0
  401817:	push   0x403044
  40181c:	pop    eax
  40181d:	call   DWORD PTR cs:[eax]
  401820:	pop    edx
  401821:	push   edx
  401822:	push   ecx
  401823:	push   esi
  401824:	call   0x4013f0
  401829:	add    esp,0x8
  40182c:	pop    edx
  40182d:	push   edx
  40182e:	mov    ebx,0x0
  401833:	push   ebx
  401834:	push   0x403014
  401839:	pop    eax
  40183a:	call   DWORD PTR cs:[eax]
  40183d:	pop    edx
  40183e:	sub    esp,0xffffffc4
  401841:	mov    ebp,DWORD PTR [esp]
  401844:	add    esp,0x4
  401847:	ret    
  401848:	mov    edi,edi
  40184a:	push   ebp
  40184b:	mov    ebp,esp
  40184d:	sub    esp,0x1c
  401850:	push   edx
  401851:	push   DWORD PTR [edx+0x2ac]
  401857:	push   DWORD PTR [edx+0x288]
  40185d:	call   0x4010a4
  401862:	add    esp,0x8
  401865:	pop    edx
  401866:	push   edx
  401867:	lea    esi,[edx]
  401869:	push   esi
  40186a:	push   0x403028
  40186f:	pop    eax
  401870:	call   DWORD PTR cs:[eax]
  401873:	test   eax,eax
  401875:	jne    0x401867
  401877:	pop    edx
  401878:	push   edx
  401879:	push   0x0
  40187b:	push   0x403018
  401880:	pop    eax
  401881:	call   DWORD PTR cs:[eax]
  401884:	pop    edx
  401885:	sub    esp,0xffffffe4
  401888:	mov    ebp,DWORD PTR [esp]
  40188b:	add    esp,0x4
  40188e:	ret    
	...
  40189b:	add    BYTE PTR [ebx-0x1374aa01],cl
  4018a1:	sub    esp,0x34
  4018a4:	push   edx
  4018a5:	push   DWORD PTR [edx+0x50]
  4018a8:	push   DWORD PTR [edx+0x30c]
  4018ae:	call   0x401208
  4018b3:	add    esp,0x8
  4018b6:	pop    edx
  4018b7:	push   edx
  4018b8:	push   0x0
  4018ba:	push   0x403018
  4018bf:	pop    eax
  4018c0:	call   DWORD PTR cs:[eax]
  4018c3:	pop    edx
  4018c4:	push   edx
  4018c5:	push   0x0
  4018c7:	push   0x403024
  4018cc:	pop    eax
  4018cd:	call   DWORD PTR cs:[eax]
  4018d0:	pop    edx
  4018d1:	sub    esp,0xffffffcc
  4018d4:	mov    ebp,DWORD PTR [esp]
  4018d7:	add    esp,0x4
  4018da:	ret    
  4018db:	add    BYTE PTR [ebx-0x1374aa01],cl
  4018e1:	sub    esp,0x34
  4018e4:	push   edx
  4018e5:	push   0x0
  4018e7:	push   0x403040
  4018ec:	pop    eax
  4018ed:	call   DWORD PTR cs:[eax]
  4018f0:	pop    edx
  4018f1:	push   edx
  4018f2:	push   DWORD PTR [edx+0x1c0]
  4018f8:	push   DWORD PTR [edx+0x558]
  4018fe:	call   0x401434
  401903:	add    esp,0x8
  401906:	pop    edx
  401907:	push   edx
  401908:	push   0x40302c
  40190d:	pop    eax
  40190e:	call   DWORD PTR cs:[eax]
  401911:	pop    edx
  401912:	sub    esp,0xffffffcc
  401915:	mov    ebp,DWORD PTR [esp]
  401918:	add    esp,0x4
  40191b:	ret    
	...
  401928:	mov    edi,edi
  40192a:	push   ebp
  40192b:	mov    ebp,esp
  40192d:	sub    esp,0x48
  401930:	push   edx
  401931:	push   ebx
  401932:	push   DWORD PTR [edx+0x15c]
  401938:	call   0x4010f0
  40193d:	add    esp,0x8
  401940:	pop    edx
  401941:	push   edx
  401942:	mov    ebx,0x0
  401947:	push   ebx
  401948:	push   0x403014
  40194d:	pop    eax
  40194e:	call   DWORD PTR cs:[eax]
  401951:	pop    edx
  401952:	push   edx
  401953:	push   0x0
  401955:	push   0x40300c
  40195a:	pop    eax
  40195b:	call   DWORD PTR cs:[eax]
  40195e:	pop    edx
  40195f:	sub    esp,0xffffffb8
  401962:	mov    ebp,DWORD PTR [esp]
  401965:	add    esp,0x4
  401968:	ret    
  401969:	add    BYTE PTR [eax],al
  40196b:	add    BYTE PTR [ebx-0x1374aa01],cl
  401971:	sub    esp,0x30
  401974:	push   edx
  401975:	mov    eax,0x0
  40197a:	push   eax
  40197b:	push   0x403048
  401980:	pop    eax
  401981:	call   DWORD PTR cs:[eax]
  401984:	pop    edx
  401985:	push   edx
  401986:	push   edi
  401987:	push   esi
  401988:	push   DWORD PTR [edx+0x254]
  40198e:	call   0x4014fc
  401993:	add    esp,0xc
  401996:	pop    edx
  401997:	push   edx
  401998:	mov    eax,0x0
  40199d:	push   eax
  40199e:	push   0x40306c
  4019a3:	pop    eax
  4019a4:	call   DWORD PTR cs:[eax]
  4019a7:	pop    edx
  4019a8:	sub    esp,0xffffffd0
  4019ab:	mov    ebp,DWORD PTR [esp]
  4019ae:	add    esp,0x4
  4019b1:	ret    
  4019b2:	add    BYTE PTR [eax],al
  4019b4:	mov    edi,edi
  4019b6:	push   ebp
  4019b7:	mov    ebp,esp
  4019b9:	sub    esp,0x40
  4019bc:	push   edx
  4019bd:	push   0x0
  4019bf:	push   0x403034
  4019c4:	pop    eax
  4019c5:	call   DWORD PTR cs:[eax]
  4019c8:	pop    edx
  4019c9:	push   edx
  4019ca:	push   DWORD PTR [edx+0x2c8]
  4019d0:	push   esi
  4019d1:	call   0x401cb4
  4019d6:	add    esp,0x8
  4019d9:	pop    edx
  4019da:	push   edx
  4019db:	push   0x403008
  4019e0:	pop    eax
  4019e1:	call   DWORD PTR cs:[eax]
  4019e4:	pop    edx
  4019e5:	sub    esp,0xffffffc0
  4019e8:	mov    ebp,DWORD PTR [esp]
  4019eb:	add    esp,0x4
  4019ee:	ret    
	...
  4019f7:	add    BYTE PTR [ebx-0x1374aa01],cl
  4019fd:	sub    esp,0x4c
  401a00:	push   edx
  401a01:	push   DWORD PTR [edx+0x74]
  401a04:	push   DWORD PTR [edx+0x244]
  401a0a:	call   0x401ad4
  401a0f:	add    esp,0x8
  401a12:	pop    edx
  401a13:	push   edx
  401a14:	lea    edx,[edx]
  401a16:	push   edx
  401a17:	push   0x403028
  401a1c:	pop    eax
  401a1d:	call   DWORD PTR cs:[eax]
  401a20:	test   eax,eax
  401a22:	jne    0x401a14
  401a24:	pop    edx
  401a25:	push   edx
  401a26:	mov    ebx,0x0
  401a2b:	push   ebx
  401a2c:	push   0x403044
  401a31:	pop    eax
  401a32:	call   DWORD PTR cs:[eax]
  401a35:	pop    edx
  401a36:	sub    esp,0xffffffb4
  401a39:	mov    ebp,DWORD PTR [esp]
  401a3c:	add    esp,0x4
  401a3f:	ret    
  401a40:	mov    edi,edi
  401a42:	push   ebp
  401a43:	mov    ebp,esp
  401a45:	sub    esp,0x20
  401a48:	push   edx
  401a49:	push   DWORD PTR [edx+0x230]
  401a4f:	push   DWORD PTR [edx+0x20]
  401a52:	push   edi
  401a53:	push   DWORD PTR [edx+0x3c0]
  401a59:	call   0x401d00
  401a5e:	add    esp,0x10
  401a61:	pop    edx
  401a62:	push   edx
  401a63:	lea    esi,[edx]
  401a65:	push   esi
  401a66:	push   0x403028
  401a6b:	pop    eax
  401a6c:	call   DWORD PTR cs:[eax]
  401a6f:	test   eax,eax
  401a71:	jne    0x401a63
  401a73:	pop    edx
  401a74:	push   edx
  401a75:	push   0x0
  401a77:	push   0x403018
  401a7c:	pop    eax
  401a7d:	call   DWORD PTR cs:[eax]
  401a80:	pop    edx
  401a81:	sub    esp,0xffffffe0
  401a84:	mov    ebp,DWORD PTR [esp]
  401a87:	add    esp,0x4
  401a8a:	ret    
  401a8b:	add    BYTE PTR [ebx-0x1374aa01],cl
  401a91:	sub    esp,0x44
  401a94:	push   edx
  401a95:	push   0x403008
  401a9a:	pop    eax
  401a9b:	call   DWORD PTR cs:[eax]
  401a9e:	pop    edx
  401a9f:	push   edx
  401aa0:	push   ecx
  401aa1:	push   esi
  401aa2:	push   edi
  401aa3:	push   DWORD PTR [edx+0x444]
  401aa9:	call   0x40189c
  401aae:	add    esp,0x10
  401ab1:	pop    edx
  401ab2:	push   edx
  401ab3:	push   0x0
  401ab5:	push   0x403048
  401aba:	pop    eax
  401abb:	call   DWORD PTR cs:[eax]
  401abe:	pop    edx
  401abf:	sub    esp,0xffffffbc
  401ac2:	mov    ebp,DWORD PTR [esp]
  401ac5:	add    esp,0x4
  401ac8:	ret    
	...
  401ad1:	add    BYTE PTR [eax],al
  401ad3:	add    BYTE PTR [ebx-0x1374aa01],cl
  401ad9:	sub    esp,0x34
  401adc:	push   edx
  401add:	mov    eax,0x0
  401ae2:	push   eax
  401ae3:	push   0x403048
  401ae8:	pop    eax
  401ae9:	call   DWORD PTR cs:[eax]
  401aec:	pop    edx
  401aed:	push   edx
  401aee:	push   DWORD PTR [edx+0x508]
  401af4:	push   DWORD PTR [edx+0x250]
  401afa:	push   ecx
  401afb:	call   0x401320
  401b00:	add    esp,0xc
  401b03:	pop    edx
  401b04:	push   edx
  401b05:	push   0x0
  401b07:	push   0x403040
  401b0c:	pop    eax
  401b0d:	call   DWORD PTR cs:[eax]
  401b10:	pop    edx
  401b11:	sub    esp,0xffffffcc
  401b14:	mov    ebp,DWORD PTR [esp]
  401b17:	add    esp,0x4
  401b1a:	ret    
	...
  401b2f:	add    BYTE PTR [ebx-0x1374aa01],cl
  401b35:	sub    esp,0x30
  401b38:	push   edx
  401b39:	push   0x0
  401b3b:	push   0x40306c
  401b40:	pop    eax
  401b41:	call   DWORD PTR cs:[eax]
  401b44:	pop    edx
  401b45:	push   edx
  401b46:	push   DWORD PTR [edx+0x3b4]
  401b4c:	push   edi
  401b4d:	push   ecx
  401b4e:	push   esi
  401b4f:	call   0x401298
  401b54:	add    esp,0x10
  401b57:	pop    edx
  401b58:	push   edx
  401b59:	mov    eax,0x0
  401b5e:	push   eax
  401b5f:	push   0x40306c
  401b64:	pop    eax
  401b65:	call   DWORD PTR cs:[eax]
  401b68:	pop    edx
  401b69:	sub    esp,0xffffffd0
  401b6c:	mov    ebp,DWORD PTR [esp]
  401b6f:	add    esp,0x4
  401b72:	ret    
  401b73:	add    BYTE PTR [ebx-0x1374aa01],cl
  401b79:	sub    esp,0x60
  401b7c:	push   edx
  401b7d:	mov    esi,0x0
  401b82:	push   esi
  401b83:	push   0x403034
  401b88:	pop    eax
  401b89:	call   DWORD PTR cs:[eax]
  401b8c:	pop    edx
  401b8d:	push   edx
  401b8e:	push   DWORD PTR [edx+0x504]
  401b94:	push   eax
  401b95:	push   DWORD PTR [edx+0x1d0]
  401b9b:	call   0x4012d8
  401ba0:	add    esp,0xc
  401ba3:	pop    edx
  401ba4:	push   edx
  401ba5:	mov    ebx,0x0
  401baa:	push   ebx
  401bab:	push   0x40300c
  401bb0:	pop    eax
  401bb1:	call   DWORD PTR cs:[eax]
  401bb4:	pop    edx
  401bb5:	sub    esp,0xffffffa0
  401bb8:	mov    ebp,DWORD PTR [esp]
  401bbb:	add    esp,0x4
  401bbe:	ret    
  401bbf:	add    BYTE PTR [ebx-0x1374aa01],cl
  401bc5:	sub    esp,0x28
  401bc8:	push   edx
  401bc9:	push   ecx
  401bca:	push   esi
  401bcb:	push   DWORD PTR [edx+0x2a4]
  401bd1:	push   DWORD PTR [edx+0x3d8]
  401bd7:	call   0x4011cc
  401bdc:	add    esp,0x10
  401bdf:	pop    edx
  401be0:	push   edx
  401be1:	mov    ecx,0x0
  401be6:	push   ecx
  401be7:	push   0x403024
  401bec:	pop    eax
  401bed:	call   DWORD PTR cs:[eax]
  401bf0:	pop    edx
  401bf1:	push   edx
  401bf2:	mov    edx,0x0
  401bf7:	push   edx
  401bf8:	push   0x403048
  401bfd:	pop    eax
  401bfe:	call   DWORD PTR cs:[eax]
  401c01:	pop    edx
  401c02:	sub    esp,0xffffffd8
  401c05:	mov    ebp,DWORD PTR [esp]
  401c08:	add    esp,0x4
  401c0b:	ret    
	...
  401c24:	mov    edi,edi
  401c26:	push   ebp
  401c27:	mov    ebp,esp
  401c29:	sub    esp,0x24
  401c2c:	push   edx
  401c2d:	push   0x0
  401c2f:	push   0x40306c
  401c34:	pop    eax
  401c35:	call   DWORD PTR cs:[eax]
  401c38:	pop    edx
  401c39:	push   edx
  401c3a:	push   ebx
  401c3b:	push   DWORD PTR [edx+0x5f8]
  401c41:	push   DWORD PTR [edx+0x4]
  401c44:	push   ecx
  401c45:	call   0x401258
  401c4a:	add    esp,0x10
  401c4d:	pop    edx
  401c4e:	push   edx
  401c4f:	mov    edx,0x0
  401c54:	push   edx
  401c55:	push   0x403068
  401c5a:	pop    eax
  401c5b:	call   DWORD PTR cs:[eax]
  401c5e:	pop    edx
  401c5f:	sub    esp,0xffffffdc
  401c62:	mov    ebp,DWORD PTR [esp]
  401c65:	add    esp,0x4
  401c68:	ret    
  401c69:	add    BYTE PTR [eax],al
  401c6b:	add    BYTE PTR [ebx-0x1374aa01],cl
  401c71:	sub    esp,0x1c
  401c74:	push   edx
  401c75:	push   esi
  401c76:	push   DWORD PTR [edx+0x4d4]
  401c7c:	call   0x4015c4
  401c81:	add    esp,0x8
  401c84:	pop    edx
  401c85:	push   edx
  401c86:	push   0x0
  401c88:	push   0x403078
  401c8d:	pop    eax
  401c8e:	call   DWORD PTR cs:[eax]
  401c91:	pop    edx
  401c92:	push   edx
  401c93:	push   0x0
  401c95:	push   0x403034
  401c9a:	pop    eax
  401c9b:	call   DWORD PTR cs:[eax]
  401c9e:	pop    edx
  401c9f:	sub    esp,0xffffffe4
  401ca2:	mov    ebp,DWORD PTR [esp]
  401ca5:	add    esp,0x4
  401ca8:	ret    
	...
  401cb1:	add    BYTE PTR [eax],al
  401cb3:	add    BYTE PTR [ebx-0x1374aa01],cl
  401cb9:	sub    esp,0x30
  401cbc:	push   edx
  401cbd:	mov    edi,0x0
  401cc2:	push   edi
  401cc3:	push   0x403044
  401cc8:	pop    eax
  401cc9:	call   DWORD PTR cs:[eax]
  401ccc:	pop    edx
  401ccd:	push   edx
  401cce:	push   DWORD PTR [edx+0x398]
  401cd4:	push   DWORD PTR [edx+0x53c]
  401cda:	push   ecx
  401cdb:	call   0x401690
  401ce0:	add    esp,0xc
  401ce3:	pop    edx
  401ce4:	push   edx
  401ce5:	lea    ecx,[edx]
  401ce7:	push   ecx
  401ce8:	push   0x403028
  401ced:	pop    eax
  401cee:	call   DWORD PTR cs:[eax]
  401cf1:	test   eax,eax
  401cf3:	jne    0x401ce5
  401cf5:	pop    edx
  401cf6:	sub    esp,0xffffffd0
  401cf9:	mov    ebp,DWORD PTR [esp]
  401cfc:	add    esp,0x4
  401cff:	ret    
  401d00:	mov    edi,edi
  401d02:	push   ebp
  401d03:	mov    ebp,esp
  401d05:	sub    esp,0x20
  401d08:	push   edx
  401d09:	push   0x403008
  401d0e:	pop    eax
  401d0f:	call   DWORD PTR cs:[eax]
  401d12:	pop    edx
  401d13:	push   edx
  401d14:	push   DWORD PTR [edx+0x5cc]
  401d1a:	push   DWORD PTR [edx+0x2f0]
  401d20:	call   0x401bc0
  401d25:	add    esp,0x8
  401d28:	pop    edx
  401d29:	push   edx
  401d2a:	push   0x40302c
  401d2f:	pop    eax
  401d30:	call   DWORD PTR cs:[eax]
  401d33:	pop    edx
  401d34:	sub    esp,0xffffffe0
  401d37:	mov    ebp,DWORD PTR [esp]
  401d3a:	add    esp,0x4
  401d3d:	ret    
  401d3e:	add    BYTE PTR [eax],al
  401d40:	add    BYTE PTR [eax],al
  401d42:	add    BYTE PTR [eax],al
  401d44:	mov    edi,edi
  401d46:	push   ebp
  401d47:	mov    ebp,esp
  401d49:	sub    esp,0x5c
  401d4c:	push   edx
  401d4d:	push   0x40302c
  401d52:	pop    eax
  401d53:	call   DWORD PTR cs:[eax]
  401d56:	pop    edx
  401d57:	push   edx
  401d58:	push   ecx
  401d59:	push   DWORD PTR [edx+0x2c0]
  401d5f:	push   DWORD PTR [edx+0x2d8]
  401d65:	push   DWORD PTR [edx+0x88]
  401d6b:	call   0x401a8c
  401d70:	add    esp,0x10
  401d73:	pop    edx
  401d74:	push   edx
  401d75:	mov    edx,0x0
  401d7a:	push   edx
  401d7b:	push   0x403018
  401d80:	pop    eax
  401d81:	call   DWORD PTR cs:[eax]
  401d84:	pop    edx
  401d85:	sub    esp,0xffffffa4
  401d88:	mov    ebp,DWORD PTR [esp]
  401d8b:	add    esp,0x4
  401d8e:	ret    
  401d8f:	add    BYTE PTR [ebx-0x1374aa01],cl
  401d95:	sub    esp,0x38
  401d98:	push   edx
  401d99:	push   eax
  401d9a:	push   DWORD PTR [edx+0x2bc]
  401da0:	call   0x401a40
  401da5:	add    esp,0x8
  401da8:	pop    edx
  401da9:	push   edx
  401daa:	push   0x0
  401dac:	push   0x403048
  401db1:	pop    eax
  401db2:	call   DWORD PTR cs:[eax]
  401db5:	pop    edx
  401db6:	push   edx
  401db7:	push   0x0
  401db9:	push   0x403024
  401dbe:	pop    eax
  401dbf:	call   DWORD PTR cs:[eax]
  401dc2:	pop    edx
  401dc3:	sub    esp,0xffffffc8
  401dc6:	mov    ebp,DWORD PTR [esp]
  401dc9:	add    esp,0x4
  401dcc:	ret    
  401dcd:	add    BYTE PTR [eax],al
  401dcf:	add    BYTE PTR [ebx-0x1374aa01],cl
  401dd5:	sub    esp,0x50
  401dd8:	push   edx
  401dd9:	push   ecx
  401dda:	push   DWORD PTR [edx+0x260]
  401de0:	call   0x40196c
  401de5:	add    esp,0x8
  401de8:	pop    edx
  401de9:	push   edx
  401dea:	push   0x0
  401dec:	push   0x403078
  401df1:	pop    eax
  401df2:	call   DWORD PTR cs:[eax]
  401df5:	pop    edx
  401df6:	push   edx
  401df7:	push   0x0
  401df9:	push   0x403018
  401dfe:	pop    eax
  401dff:	call   DWORD PTR cs:[eax]
  401e02:	pop    edx
  401e03:	sub    esp,0xffffffb0
  401e06:	mov    ebp,DWORD PTR [esp]
  401e09:	add    esp,0x4
  401e0c:	ret    
  401e0d:	add    BYTE PTR [eax],al
  401e0f:	add    BYTE PTR [ebx-0x1374aa01],cl
  401e15:	sub    esp,0x40
  401e18:	push   edx
  401e19:	push   0x40302c
  401e1e:	pop    eax
  401e1f:	call   DWORD PTR cs:[eax]
  401e22:	pop    edx
  401e23:	push   edx
  401e24:	push   DWORD PTR [edx+0x58c]
  401e2a:	push   DWORD PTR [edx+0x490]
  401e30:	push   DWORD PTR [edx+0x564]
  401e36:	push   ecx
  401e37:	call   0x4019b4
  401e3c:	add    esp,0x10
  401e3f:	pop    edx
  401e40:	push   edx
  401e41:	push   0x0
  401e43:	push   0x403078
  401e48:	pop    eax
  401e49:	call   DWORD PTR cs:[eax]
  401e4c:	pop    edx
  401e4d:	sub    esp,0xffffffc0
  401e50:	mov    ebp,DWORD PTR [esp]
  401e53:	add    esp,0x4
  401e56:	ret    
  401e57:	add    BYTE PTR [eax],ah
  401e59:	jno    0x401e2b
  401e5b:	lahf   
  401e5c:	ss xchg edi,eax
  401e5e:	pop    es
  401e5f:	and    DWORD PTR [ecx+esi*1+0x4b516e0f],0xfffffffd
  401e67:	out    0x8,eax
  401e69:	add    ebx,DWORD PTR [ebp-0x33c81438]
  401e6f:	imul   esi,DWORD PTR [esi-0x100237f1],0xffffff9e
  401e76:	mov    ecx,0xc7c70097
  401e7b:	add    DWORD PTR [eax],eax
  401e7d:	mov    edi,0xc6e30001
  401e83:	jg     0x401ec6
  401e85:	retf   0xa27e
  401e88:	mov    ebp,0x310580a8
  401e8d:	imul   esi,eax,0xffffffe2
  401e90:	add    DWORD PTR ds:0x251691a3,ecx
  401e96:	gs ins BYTE PTR es:[edi],dx
  401e98:	pop    eax
  401e99:	push   edi
  401e9a:	inc    eax
  401e9b:	push   ss
  401e9c:	or     DWORD PTR [edx+0x32],eax
  401e9f:	imul   ecx,DWORD PTR [ecx],0xffffffff
  401ea2:	mov    edx,0xbcd552e7
  401ea7:	ins    BYTE PTR es:[edi],dx
  401ea8:	mov    esi,0x81d8533b
  401ead:	push   esp
  401eae:	js     0x401ea7
  401eb0:	pop    edx
  401eb1:	call   0xf444a4a6
  401eb6:	mov    ch,0xa0
  401eb8:	jge    0x401e9e
  401eba:	adc    BYTE PTR [eax],al
  401ebc:	add    DWORD PTR [eax],edx
  401ebe:	adc    al,0x1d
  401ec0:	sbb    ebp,DWORD PTR [edi+0x468a0000]
  401ec6:	(bad)  
  401ec7:	adc    BYTE PTR [esi+edx*4],dl
  401eca:	and    eax,0x60f2ae1
  401ecf:	call   0x3110:0x20092406
  401ed6:	sbb    edx,DWORD PTR [edi+0x76dd5ba9]
  401edc:	ins    DWORD PTR es:[edi],dx
  401edd:	mov    DWORD PTR [eax+0x13],esp
  401ee0:	xor    eax,0x2102650d
  401ee5:	add    BYTE PTR [edx+eax*1],al
  401ee8:	and    eax,0x5c1d9a32
  401eed:	jbe    0x401f04
  401eef:	push   eax
  401ef0:	add    BYTE PTR [edx+0x702b6291],0xc4
  401ef7:	xchg   ebx,eax
  401ef8:	adc    DWORD PTR [eax],eax
  401efa:	add    al,ah
  401efc:	cmps   DWORD PTR ds:[esi],DWORD PTR es:[edi]
  401efd:	push   0xff6b6a00
  401f02:	push   ebp
  401f03:	push   ss
  401f04:	pushf  
  401f05:	lods   eax,DWORD PTR ds:[esi]
  401f06:	cli    
  401f07:	cdq    
  401f08:	cwde   
  401f09:	add    eax,0xb5dedbf8
  401f0e:	aam    0xf9
  401f10:	stc    
  401f11:	aam    0xf
  401f13:	sub    eax,0xcffb9a7
  401f18:	push   esi
  401f19:	ret    
  401f1a:	call   0xc428acac
  401f1f:	stc    
  401f20:	add    al,BYTE PTR [edi-0x238cdecc]
  401f26:	jl     0x401f82
  401f28:	add    eax,0x3f6f00fb
  401f2d:	call   0x6ab2aa32
  401f32:	add    BYTE PTR [edi+0x6b],ch
  401f35:	call   FWORD PTR [edi]
  401f37:	pushf  
  401f38:	cmp    al,0x8a
  401f3a:	stos   BYTE PTR es:[edi],al
  401f3b:	sub    BYTE PTR [eax+ebx*1+0x3c6b3d97],ah
  401f42:	adc    eax,0x47cca74
  401f47:	push   ecx
  401f48:	push   es
  401f49:	pop    es
  401f4a:	(bad)  [ecx+0x78]
  401f4d:	cmps   DWORD PTR ds:[esi],DWORD PTR es:[edi]
  401f4e:	add    BYTE PTR [ecx-0x364fb057],ch
  401f54:	loope  0x401f3e
  401f56:	sbb    dh,bl
  401f58:	int3   
  401f59:	cmp    al,0x8d
  401f5b:	pop    es
  401f5c:	add    ebp,ebx
  401f5e:	retf   
  401f5f:	push   es
  401f60:	push   edi
  401f61:	test   DWORD PTR [esi+0x73],0x22581962
  401f68:	inc    ecx
  401f69:	dec    ecx
  401f6a:	mov    dl,0x4e
  401f6c:	ins    DWORD PTR es:[edi],dx
  401f6d:	loope  0x401f84
  401f6f:	sbb    al,0x69
  401f71:	xor    al,0x6a
  401f73:	xor    al,0x0
  401f75:	jno    0x401fd7
  401f77:	push   ebx
  401f78:	push   ebx
  401f79:	push   es
  401f7a:	pusha  
  401f7b:	je     0x401f72
  401f7d:	jl     0x401f84
  401f7f:	stos   DWORD PTR es:[edi],eax
  401f80:	aas    
  401f81:	push   esp
  401f82:	cmp    ebp,DWORD PTR [esi]
  401f84:	push   ebx
  401f85:	add    DWORD PTR [eax],ecx
  401f87:	ds aas 
  401f89:	push   cs
  401f8a:	add    ch,BYTE PTR [esp+eax*1+0x77e1cddc]
  401f91:	cmp    al,0x2f
  401f93:	or     BYTE PTR [esi-0xe],bl
  401f96:	jmp    DWORD PTR [ebx-0x49a93d2c]
  401f9c:	je     0x401f2c
  401f9e:	mov    bh,0x93
  401fa0:	xchg   esp,eax
  401fa1:	lods   eax,DWORD PTR cs:[esi]
  401fa3:	xor    esi,DWORD PTR [edi-0x577bc9f]
  401fa9:	sbb    esi,esi
  401fab:	dec    BYTE PTR [esi-0x29]
  401fae:	test   BYTE PTR [edi+0x72a00e52],bh
  401fb4:	ss dec ebx
  401fb6:	ret    0x8e1c
  401fb9:	xchg   edi,edi
  401fbb:	jnp    0x401f90
  401fbd:	out    0xc4,eax
  401fbf:	test   DWORD PTR [ecx],eax
  401fc1:	(bad)  
  401fc2:	pop    ebx
  401fc3:	arpl   bx,ax
  401fc5:	in     al,dx
  401fc6:	arpl   WORD PTR [ebp+0x76],si
  401fc9:	call   0x14bb63f2
  401fce:	push   DWORD PTR [ebp+0x66]
  401fd1:	je     0x40203e
  401fd3:	jnp    0x401fdd
  401fd5:	test   al,dl
  401fd7:	inc    eax
  401fd8:	fmul   QWORD PTR [edi+0x50253a9]
  401fde:	test   ecx,ebx
  401fe0:	cmp    DWORD PTR [ebp+0x6],edx
  401fe3:	push   es
  401fe4:	push   edi
  401fe5:	pop    es
  401fe6:	or     BYTE PTR [ebx],dh
  401fe8:	ins    DWORD PTR es:[edi],dx
  401fe9:	int3   
  401fea:	add    cl,BYTE PTR [eax+ebx*2]
  401fed:	or     BYTE PTR [ebx-0x8],cl
  401ff0:	aas    
  401ff1:	das    
  401ff2:	mov    al,ds:0xc5a758ff
  401ff7:	jo     0x402044
  401ff9:	dec    ecx
  401ffa:	mov    edx,0x29e958bd
  401fff:	mov    DWORD PTR [ecx],0x1e88ae9
  402005:	xor    DWORD PTR [eax+0x186968],0x28760000
  40200f:	push   esi
  402010:	ficom  DWORD PTR [ebx-0x78e6f002]
  402016:	dec    DWORD PTR [ebx-0x220c9fff]
  40201c:	add    al,0xff
  40201e:	add    BYTE PTR fs:[ecx-0x75],bl
  402022:	inc    eax
  402023:	cmp    al,0x80
  402025:	add    BYTE PTR [edi+0x34146061],al
  40202b:	(bad)
  40202f:	scas   eax,DWORD PTR es:[edi]
  402030:	jnp    0x402019
  402032:	and    al,0x88
  402034:	dec    ecx
  402035:	sbb    BYTE PTR [edi-0x3477a706],al
  40203b:	shl    al,0xef
  40203e:	mov    bl,BYTE PTR [eax+0x6d]
  402041:	out    dx,eax
  402042:	out    dx,eax
  402043:	cmp    DWORD PTR [esi-0x9],edx
  402046:	inc    esi
  402047:	imul   edi,DWORD PTR [eax+0x44],0xa1190ea1
  40204e:	fs xchg edx,ecx
  402051:	xor    BYTE PTR [ecx+0x65767178],cl
  402057:	push   esp
  402058:	std    
  402059:	jbe    0x402058
  40205b:	or     BYTE PTR [ecx],al
  40205d:	pop    edi
  40205e:	jmp    0x7e1c:0x79bdd2b0
  402065:	je     0x402003
  402067:	mov    dh,0x3a
  402069:	call   0x791a59be
  40206e:	pop    eax
  40206f:	add    al,0x3
  402071:	pop    eax
  402072:	js     0x402068
  402074:	mov    eax,DWORD PTR gs:[esi+eiz*1]
  402078:	in     al,dx
  402079:	add    BYTE PTR [edi+0x424010f],ch
  40207f:	cmp    BYTE PTR [edx+0x64500424],cl
  402085:	(bad)  
  402086:	out    0x14,eax
  402088:	in     al,dx
  402089:	xor    bl,al
  40208b:	inc    ebp
  40208c:	dec    ebx
  40208d:	mov    BYTE PTR [ebp+0xb],al
  402090:	xor    DWORD PTR [esi+0x7472b98b],0xf8f70373
  40209a:	or     bh,dl
  40209c:	mov    al,BYTE PTR [ecx-0x70916601]
  4020a2:	test   al,0x7a
  4020a4:	test   eax,0xb6c37e53
  4020a9:	adc    DWORD PTR [ebx-0x56],0x235457a9
  4020b0:	fisub  DWORD PTR [esi]
  4020b2:	adc    BYTE PTR [esi-0x9],dl
  4020b5:	fwait
  4020b6:	mov    BYTE PTR [esi],ah
  4020b8:	sub    edi,DWORD PTR [esi]
  4020ba:	dec    BYTE PTR [eax]
  4020bc:	xlat   BYTE PTR ds:[ebx]
  4020bd:	or     BYTE PTR [ebx+0x4b],0x91
  4020c1:	fisub  DWORD PTR [edi+0x543f7f]
  4020c7:	or     DWORD PTR [edi+0x7],edx
  4020ca:	or     BYTE PTR [edx+ebx*8],bh
  4020cd:	or     dl,al
  4020cf:	aas    
  4020d0:	push   ecx
  4020d1:	adc    eax,0x657cd8d
  4020d6:	movs   BYTE PTR es:[edi],BYTE PTR ds:[esi]
  4020d7:	xchg   ebx,eax
  4020d8:	pop    ebx
  4020d9:	cdq    
  4020da:	or     al,dl
  4020dc:	mov    ch,0x9e
  4020de:	add    al,0x57
  4020e0:	add    DWORD PTR [ecx+0xd70019b],ebp
  4020e6:	inc    esp
  4020e7:	add    eax,DWORD PTR [eax]
  4020e9:	popa   
  4020ea:	jb     0x4020e7
  4020ec:	(bad)  
  4020ed:	jg     0x402164
  4020ef:	std    
  4020f0:	mov    dh,BYTE PTR [ebx+ebp*2+0x0]
  4020f4:	test   eax,0xa9f8f1c
  4020f9:	hlt    
  4020fa:	push   esi
  4020fb:	or     eax,0xb10f0a02
  402100:	or     DWORD PTR [edi-0x29aaaaff],ebp
  402106:	cmp    DWORD PTR [ebx-0x8],eax
  402109:	dec    ecx
  40210a:	loop   0x4020a7
  40210c:	mov    ds:0x78605cea,al
  402111:	sar    ch,1
  402113:	pop    esp
  402114:	adc    BYTE PTR [eax],ah
  402116:	aaa    
  402117:	ja     0x40216f
  402119:	cmp    edx,edx
  40211b:	mov    esi,0x590f8494
  402120:	add    al,0xa4
  402122:	add    BYTE PTR [eax],al
  402124:	add    DWORD PTR [ebx-0x495ed1ee],ecx
  40212a:	mov    eax,DWORD PTR [ebp-0x7e7bf08e]
  402130:	add    BYTE PTR [edi+ecx*1-0x7452080b],0xf8
  402138:	cld    
  402139:	jo     0x402138
  40213b:	js     0x40218b
  40213d:	add    BYTE PTR [edx+0x543b0351],ch
  402143:	lods   al,BYTE PTR ds:[esi]
  402144:	imul   edx,DWORD PTR [edx+ebp*2],0xf8835850
  40214b:	add    al,0x55
  40214d:	add    BYTE PTR [edi+0x6a14693f],0x50
  402154:	pop    eax
  402155:	adc    DWORD PTR [esp],0x57811425
  40215c:	add    BYTE PTR [esi+0x1c],dl
  40215f:	jmp    FWORD PTR [ecx-0x859f100]
  402165:	jno    0x40212b
  402167:	add    al,0xdd
  402169:	add    dl,bh
  40216b:	inc    esp
  40216c:	ins    DWORD PTR es:[edi],dx
  40216d:	cmp    ah,cl
  40216f:	mov    eax,0xe54462f2
  402174:	int3   
  402175:	lods   eax,DWORD PTR ds:[esi]
  402176:	push   esi
  402177:	mov    ah,0x7d
  402179:	adc    eax,0xff0ea6ff
  40217e:	and    al,0x1c
  402180:	sbb    al,0xe3
  402182:	out    dx,al
  402183:	pop    ecx
  402184:	xlat   BYTE PTR ds:[ebx]
  402185:	stos   BYTE PTR es:[edi],al
  402186:	mov    BYTE PTR [ebx],0x56
  402189:	jbe    0x40219f
  40218b:	jb     0x40215b
  40218d:	cmp    BYTE PTR [edx+0x41],dl
  402190:	adc    DWORD PTR [eax],eax
  402192:	aas    
  402193:	mov    bl,0x6a
  402195:	push   ebx
  402196:	push   eax
  402197:	dec    esi
  402199:	cmp    BYTE PTR [eax+edi*8],al
  40219c:	adc    DWORD PTR [eax],eax
  40219e:	aas    
  40219f:	mov    cl,0x84
  4021a1:	jae    0x4021a3
  4021a3:	adc    BYTE PTR [ecx],dl
  4021a5:	add    bl,bl
  4021a7:	push   ecx
  4021a8:	pop    eax
  4021a9:	add    BYTE PTR [ebp+0xc],dl
  4021ac:	push   edi
  4021ad:	or     al,0xa7
  4021af:	push   esp
  4021b0:	ficom  WORD PTR [ecx-0x491c24d4]
  4021b6:	test   eax,0x21cde36e
  4021bb:	pushf  
  4021bc:	jae    0x402194
  4021be:	scas   al,BYTE PTR es:[edi]
  4021bf:	les    ecx,FWORD PTR [edi-0x15]
  4021c2:	mov    edi,0xe89b497e
  4021c7:	mov    eax,DWORD PTR [ecx]
  4021c9:	call   0xec3f68c9
  4021ce:	push   edx
  4021cf:	pop    ds
  4021d0:	push   ds
  4021d1:	mov    ecx,0xff0a17ff
  4021d6:	(bad)  
  4021d7:	jmp    FWORD PTR [eax+0x1e1f846]
  4021dd:	pop    es
  4021de:	push   ecx
  4021df:	adc    dh,0xe8
  4021e2:	add    BYTE PTR [edx+ebx*2-0x6124348c],cl
  4021e9:	cmp    eax,0xe801d08b
  4021ee:	into   
  4021ef:	inc    esi
  4021f0:	inc    edi
  4021f2:	fs (bad) 
  4021f4:	jb     0x402237
  4021f6:	pop    ss
  4021f7:	inc    ecx
  4021f8:	mov    esi,0xf2bfcae8
  4021fd:	scas   eax,DWORD PTR es:[edi]
  4021fe:	ds aaa 
  402200:	rol    BYTE PTR [eax],0x54
  402203:	in     al,0x2a
  402205:	add    eax,0x808923c5
  40220a:	sar    DWORD PTR [eax-0x79],0x98
  40220e:	cvtdq2ps xmm1,xmm3
  402211:	dec    esi
  402212:	sub    al,0xf2
  402214:	dec    eax
  402215:	add    DWORD PTR [eax],ebx
  402217:	mov    al,0xbe
  402219:	stc    
  40221a:	int3   
  40221b:	inc    eax
  40221c:	or     edi,DWORD PTR [ecx-0x8123dc]
  402222:	(bad)  
  402223:	(bad)  
  402224:	out    dx,eax
  402225:	dec    eax
  402226:	repz ret 
  402228:	or     DWORD PTR [ebp+0xe],ebx
  40222b:	pop    es
  40222c:	or     DWORD PTR [ecx-0x9149af],edi
  402232:	(bad)  
  402233:	jmp    DWORD PTR [ebp-0x857fe9]
  402239:	jg     0x40229d
  40223b:	sub    eax,0x3c9e9551
  402240:	xchg   ecx,eax
  402241:	mov    al,ds:0xc8a739f4
  402246:	rcl    DWORD PTR [ecx+0x1],0x48
  40224a:	push   esp
  40224b:	mov    DWORD PTR [edx+0x1004876],ecx
  402251:	dec    eax
  402252:	jbe    0x4021e5
  402254:	xchg   edx,eax
  402255:	push   esp
  402256:	dec    eax
  402257:	add    BYTE PTR [ecx],al
  402259:	dec    eax
  40225a:	push   esp
  40225b:	cdq    
  40225c:	call   0x7048:0x1004870
  402263:	mov    eax,ds:0x4834a2
  402268:	add    DWORD PTR [eax+0x34],ecx
  40226b:	test   eax,0x4870aa
  402270:	add    DWORD PTR [eax+0x70],ecx
  402273:	mov    cl,0xb2
  402275:	xor    al,0x48
  402277:	add    BYTE PTR [ecx],al
  402279:	dec    eax
  40227a:	xor    al,0xb9
  40227c:	mov    WORD PTR [ebp-0x255d3cef],?
  402282:	mov    esp,0x91094dc7
  402287:	mov    al,bh
  402289:	adc    dh,BYTE PTR [eax+eax*1-0x74]
  40228d:	jge    0x4022e3
  40228f:	mov    al,BYTE PTR [ebp+0x42207b21]
  402295:	(bad)  
  402296:	je     0x402297
  402298:	add    DWORD PTR [ecx+0x3b],esp
  40229b:	mov    BYTE PTR [eax-0x6b],ah
  40229e:	pop    ebp
  40229f:	mov    edx,DWORD PTR [edx-0x49]
  4022a2:	and    BYTE PTR [ebx-0x7724cf40],dh
  4022a8:	add    DWORD PTR [eax],edi
  4022aa:	inc    ebp
  4022ab:	mov    ecx,DWORD PTR ds:0xa9af3b00
  4022b1:	adc    ebx,DWORD PTR [ecx+0x5c]
  4022b4:	fsub   QWORD PTR [ecx-0x34b20e4d]
  4022ba:	clc    
  4022bb:	mov    eax,DWORD PTR [ecx]
  4022bd:	dec    eax
  4022be:	mov    cl,0xac
  4022c0:	popa   
  4022c1:	test   eax,0x8776f8c3
  4022c6:	popf   
  4022c7:	and    BYTE PTR ds:0xc6e90cbd,al
  4022cd:	sbb    BYTE PTR [eax],al
  4022cf:	add    BYTE PTR [ecx],al
  4022d1:	mov    ebp,DWORD PTR [eax-0x73]
  4022d4:	jle    0x4022ee
  4022d6:	mov    eax,DWORD PTR [eax]
  4022d8:	or     eax,0xa9ae3b00
  4022dd:	adc    ecx,DWORD PTR [ebp+0x4102b500]
  4022e3:	add    eax,0x4004cedc
  4022e8:	or     al,0x2e
  4022ea:	stos   DWORD PTR es:[edi],eax
  4022eb:	sub    bh,BYTE PTR [eax-0x6f0c5a9c]
  4022f1:	inc    eax
  4022f2:	sub    al,0x79
  4022f4:	movs   DWORD PTR es:[edi],DWORD PTR ds:[esi]
  4022f5:	dec    esp
  4022f6:	shl    DWORD PTR [ebx-0x33],0x83
  4022fa:	pusha  
  4022fb:	ret    
  4022fc:	imul   esp,DWORD PTR [eax+eax*1],0xd2310120
  402303:	add    ch,BYTE PTR [ebx-0x64]
  402306:	cmp    edi,edi
  402308:	test   eax,0x8dd8e114
  40230d:	fsub   st,st(3)
  40230f:	add    BYTE PTR [eax+0x74],ah
  402312:	pop    ss
  402313:	jo     0x40234e
  402315:	inc    edi
  402316:	retf   
  402317:	or     BYTE PTR [eax+0x11cc3c0],dh
  40231d:	rol    BYTE PTR ds:0x4684b54b,0x54
  402324:	add    BYTE PTR [ecx-0x6a41b3ac],bh
  40232a:	mov    dh,BYTE PTR [esi-0x626a754f]
  402330:	call   0x4d24:0x351db91
  402337:	cmc    
  402338:	push   ecx
  402339:	xchg   ebp,eax
  40233a:	popa   
  40233b:	ret    
  40233c:	mov    ds:0xf25449ea,al
  402341:	cmps   DWORD PTR ds:[esi],DWORD PTR es:[edi]
  402342:	sbb    cl,BYTE PTR [edx-0x33861654]
  402348:	and    al,0x0
  40234a:	xchg   dh,al
  40234c:	std    
  40234d:	cmps   BYTE PTR ds:[esi],BYTE PTR es:[edi]
  40234e:	mov    ebx,DWORD PTR [eax+esi*2]
  402351:	add    DWORD PTR ds:0x6130d425,ebp
  402357:	xchg   BYTE PTR [esp+edx*1+0x50],al
  40235b:	add    cl,dh
  40235d:	sub    DWORD PTR [esi],esp
  40235f:	jp     0x402320
  402361:	push   edx
  402362:	cmp    al,0x46
  402364:	jmp    0x1442454
  402369:	pop    edx
  40236a:	call   0x723c1787
  40236f:	enter  0x5ef4,0xa0
  402373:	jbe    0x4023f0
  402375:	pop    ebx
  402376:	add    BYTE PTR [edi+0x58],ah
  402379:	or     BYTE PTR [edi+0x26],bl
  40237c:	gs add al,bh
  40237f:	retf   0x88bc
  402382:	icebp  
  402383:	sbb    eax,0xb63e6540
  402388:	cdq    
  402389:	cwde   
  40238a:	dec    ebx
  40238b:	out    0xed,al
  40238d:	popa   
  40238e:	dec    edx
  40238f:	cmp    esp,DWORD PTR [ebp+0x16f8a81]
  402395:	push   0x741bab60
  40239a:	or     BYTE PTR cs:0x12040743,cl
  4023a1:	daa    
  4023a2:	xchg   edx,eax
  4023a3:	cmp    eax,0x16947a50
  4023a8:	jl     0x40233e
  4023aa:	jp     0x4023fd
  4023ac:	push   esp
  4023ad:	jp     0x402343
  4023af:	jl     0x4023eb
  4023b1:	stos   BYTE PTR es:[edi],al
  4023b2:	test   DWORD PTR [eax+0x2],ebp
  4023b5:	outs   dx,BYTE PTR ds:[esi]
  4023b6:	push   ds
  4023b7:	sub    ecx,DWORD PTR [edi]
  4023b9:	adc    bl,BYTE PTR [ecx]
  4023bb:	sbb    DWORD PTR [ebx],eax
  4023bd:	and    esi,DWORD PTR [esi]
  4023bf:	xchg   edi,eax
  4023c0:	test   eax,0xc9b6d758
  4023c5:	or     al,bh
  4023c7:	add    eax,0x66cb9a05
  4023cc:	bound  edx,QWORD PTR [esi]
  4023ce:	xchg   ebp,eax
  4023cf:	add    DWORD PTR [eax-0x59],ebx
  4023d2:	push   es
  4023d3:	push   ebx
  4023d4:	add    eax,0xbf5a5f3a
  4023d9:	and    DWORD PTR [edx+0x50],ebp
  4023dc:	add    DWORD PTR [ebx-0x45933e6],ecx
  4023e2:	cdq    
  4023e3:	add    BYTE PTR [ecx],al
  4023e5:	adc    ch,BYTE PTR [ebp-0x5b66a27a]
  4023eb:	inc    edi
  4023ec:	retf   
  4023ed:	bound  ebx,QWORD PTR [eax-0x2c]
  4023f0:	repnz push edx
  4023f2:	jbe    0x4023d7
  4023f4:	ret    
  4023f5:	call   0x1b4f24c
  4023fa:	cmps   DWORD PTR ds:[esi],DWORD PTR es:[edi]
  4023fb:	call   FWORD PTR [eax-0x59]
  4023fe:	sub    DWORD PTR [edi],eax
  402400:	leave  
  402401:	loop   0x40239e
  402403:	push   esp
  402404:	pop    eax
  402405:	adc    dh,BYTE PTR [esp+eiz*8]
  402408:	ja     0x40245f
  40240a:	sar    bh,1
  40240c:	pop    esi
  40240d:	lea    eax,[ebp-0x12]
  402410:	hlt    
  402411:	test   DWORD PTR [ecx-0x2fdf332c],ecx
  402417:	ficomp WORD PTR [eax+edx*1+0x24]
  40241b:	inc    esp
  40241c:	add    DWORD PTR [eax],eax
  40241e:	add    BYTE PTR [eax+0x69],ch
  402421:	add    BYTE PTR [eax],al
  402423:	add    ah,al
  402425:	xor    si,si
  402428:	xchg   ecx,eax
  402429:	mov    DWORD PTR [ebx],ebp
  40242b:	cdq    
  40242c:	cmp    eax,0xe255dce0
  402431:	adc    ah,BYTE PTR [ebp+0x640a6ee7]
  402437:	rol    BYTE PTR [ecx],1
  402439:	sti    
  40243a:	out    dx,eax
  40243b:	arpl   dx,dx
  40243d:	adc    ebp,DWORD PTR [edi-0x1]
  402440:	mov    DWORD PTR [ebp+0x75],esi
  402443:	sub    BYTE PTR [ebp-0x13],cl
  402446:	dec    ebx
  402447:	and    eax,0x24523716
  40244c:	jns    0x4023e7
  40244e:	jmp    0x4024c6
  402450:	loop   0x402465
  402452:	dec    ebp
  402453:	movs   DWORD PTR es:[edi],DWORD PTR ds:[esi]
  402454:	xchg   ecx,eax
  402455:	sar    DWORD PTR [ecx+edx*4+0x554b0b6d],cl
  40245c:	jno    0x4024d8
  40245e:	sub    esp,ebx
  402460:	ret    
  402461:	sub    eax,DWORD PTR [ecx]
  402463:	mov    dh,0x21
  402465:	call   FWORD PTR [ecx-0x6bdbb010]
  40246b:	mov    BYTE PTR [edi+0x0],ch
  40246e:	jge    0x40240b
  402470:	adc    DWORD PTR [eax],eax
  402472:	aas    
  402473:	outs   dx,BYTE PTR ds:[esi]
  402474:	imul   ebp,DWORD PTR [eax-0x5a63efab],0x7e
  40247b:	in     al,dx
  40247c:	jmp    0x8ccc1501
  402481:	cld    
  402482:	imul   eax,DWORD PTR [eax],0xdcfc6806
  402488:	add    edi,edi
  40248a:	push   ebp
  40248b:	and    DWORD PTR [ebx+0x55],ecx
  40248e:	xchg   edi,eax
  40248f:	rol    DWORD PTR [ecx+0x6e000068],cl
  402495:	push   0x0
  402497:	push   0x68
  402499:	push   0x8001036a
  40249e:	aas    
  40249f:	(bad)  
  4024a0:	test   eax,0xc1c40173
  4024a5:	and    BYTE PTR [edx*2-0x4a66f3c],0x2e
  4024ad:	mov    ds:0x5ec06144,eax
  4024b2:	(bad)  
  4024b3:	aam    0x4a
  4024b5:	jno    0x4024e9
  4024b7:	into   
  4024b8:	bound  esp,QWORD PTR [ebp+0x76]
  4024bb:	aam    0x1e
  4024bd:	sbb    edx,DWORD PTR [ecx-0x7c]
  4024c0:	sub    ebp,DWORD PTR [ebp+0x52]
  4024c3:	pop    edi
  4024c4:	lds    edx,FWORD PTR [edx+0x27b3bc5d]
  4024ca:	dec    esi
  4024cb:	xchg   DWORD PTR [ecx+0x6e],ecx
  4024ce:	mov    eax,0xadfbd425
  4024d3:	jns    0x40248a
  4024d5:	xchg   ebx,eax
  4024d6:	adc    DWORD PTR [esi],esi
  4024d8:	sub    al,0x8f
  4024da:	xchg   edx,eax
  4024db:	lea    esi,[eax-0x5c713a9c]
  4024e1:	cmp    ch,dh
  4024e3:	aas    
  4024e4:	adc    al,0xa6
  4024e6:	movs   DWORD PTR es:[edi],DWORD PTR ds:[esi]
  4024e7:	cmps   BYTE PTR ds:[esi],BYTE PTR es:[edi]
  4024e8:	lea    esp,[edi-0x3ad51cf8]
  4024ee:	add    al,0xd7
  4024f0:	jnp    0x4024af
  4024f2:	push   ds
  4024f3:	clc    
  4024f4:	xchg   DWORD PTR [ebx+0x12602],edx
  4024fa:	add    BYTE PTR [edi+0x1],dh
  402500:	add    DWORD PTR [eax],eax
  402502:	add    BYTE PTR [eax],al
  402504:	add    DWORD PTR [eax],eax
  402506:	add    BYTE PTR [eax],al
  402508:	add    DWORD PTR [eax],eax
  40250a:	add    BYTE PTR [eax],al
  40250c:	add    DWORD PTR [eax],eax
  40250e:	add    BYTE PTR [eax],al
  402510:	add    DWORD PTR [edx+0x72],ebp
  402513:	add    BYTE PTR [ecx],al
  402515:	jb     0x402561
  402517:	add    eax,0x42004
  40251c:	add    DWORD PTR [edi+0x7b27347b],eax
  402522:	add    DWORD PTR [eax],0xffffffb6
  402525:	daa    
  402526:	ins    DWORD PTR es:[edi],dx
  402527:	dec    edi
  402528:	mov    WORD PTR [edi+0x7e186b1b],?
  40252e:	ret    0xeeea
  402531:	shl    BYTE PTR ds:0xa80b56f3,0x62
  402538:	enter  0xe665,0x5c
  40253c:	lahf   
  40253d:	test   eax,0x74154b63
  402542:	mov    ebp,0xdcb87f3c
  402547:	.byte 0xe9
