
775f3e62adf3c815b71b97c6238341dd27ec3fb9be91ac6cf4f28d7c89bc766f.exe:     file format pei-i386


Disassembly of section CODE:

00401000 <CODE>:
  401000:	add    al,0x10
  401002:	inc    eax
  401003:	add    BYTE PTR [edx],cl
  401005:	push   es
  401006:	push   ebx
  401007:	je     0x40107b
  401009:	imul   ebp,DWORD PTR [esi+0x67],0x401058
	...
  40102c:	pop    eax
  40102d:	adc    BYTE PTR [eax+0x0],al
  401030:	add    al,0x0
  401032:	add    BYTE PTR [eax],al
  401034:	add    BYTE PTR [eax],al
  401036:	add    BYTE PTR [eax],al
  401038:	and    al,0x31
  40103a:	inc    eax
  40103b:	add    BYTE PTR [eax],dh
  40103d:	xor    DWORD PTR [eax+0x0],eax
  401040:	xor    al,0x31
  401042:	inc    eax
  401043:	add    BYTE PTR [eax],bh
  401045:	xor    DWORD PTR [eax+0x0],eax
  401048:	sub    al,0x31
  40104a:	inc    eax
  40104b:	add    al,dh
  40104d:	das    
  40104e:	inc    eax
  40104f:	add    BYTE PTR [eax+esi*1],cl
  401052:	inc    eax
  401053:	add    BYTE PTR [eax],ch
  401055:	xor    BYTE PTR [eax+0x0],al
  401058:	pop    es
  401059:	push   esp
  40105a:	dec    edi
  40105b:	bound  ebp,QWORD PTR [edx+0x65]
  40105e:	arpl   WORD PTR [edi+edi*8+0x25],si
  401062:	cmp    al,0xc1
  401064:	inc    eax
  401065:	add    BYTE PTR [ebx+0x3825ffc0],cl
  40106b:	rol    DWORD PTR [eax+0x0],0x8b
  40106f:	sar    bh,0x25
  401072:	xor    al,0xc1
  401074:	inc    eax
  401075:	add    BYTE PTR [ebx+0x3025ffc0],cl
  40107b:	rol    DWORD PTR [eax+0x0],0x8b
  40107f:	sar    bh,0x25
  401082:	sub    al,0xc1
  401084:	inc    eax
  401085:	add    BYTE PTR [ebx+0x5025ffc0],cl
  40108b:	rol    DWORD PTR [eax+0x0],0x8b
  40108f:	sar    bh,0x25
  401092:	sub    cl,al
  401094:	inc    eax
  401095:	add    BYTE PTR [ebx+0x4c25ffc0],cl
  40109b:	rol    DWORD PTR [eax+0x0],0x8b
  40109f:	sar    bh,0x25
  4010a2:	and    al,0xc1
  4010a4:	inc    eax
  4010a5:	add    BYTE PTR [ebx+0x2025ffc0],cl
  4010ab:	rol    DWORD PTR [eax+0x0],0x8b
  4010af:	sar    bh,0x25
  4010b2:	sbb    al,0xc1
  4010b4:	inc    eax
  4010b5:	add    BYTE PTR [ebx+0x1825ffc0],cl
  4010bb:	rol    DWORD PTR [eax+0x0],0x8b
  4010bf:	sar    bh,0x25
  4010c2:	adc    al,0xc1
  4010c4:	inc    eax
  4010c5:	add    BYTE PTR [ebx+0x1025ffc0],cl
  4010cb:	rol    DWORD PTR [eax+0x0],0x8b
  4010cf:	sar    bh,0x25
  4010d2:	or     al,0xc1
  4010d4:	inc    eax
  4010d5:	add    BYTE PTR [ebx+0x825ffc0],cl
  4010db:	rol    DWORD PTR [eax+0x0],0x8b
  4010df:	sar    bh,0x25
  4010e2:	add    al,0xc1
  4010e4:	inc    eax
  4010e5:	add    BYTE PTR [ebx+0x25ffc0],cl
  4010eb:	rol    DWORD PTR [eax+0x0],0x8b
  4010ef:	sar    bh,0x25
  4010f2:	cld    
  4010f3:	rol    BYTE PTR [eax+0x0],0x8b
  4010f7:	sar    bh,0x25
  4010fa:	dec    eax
  4010fb:	rol    DWORD PTR [eax+0x0],0x8b
  4010ff:	sar    bh,0x25
  401102:	clc    
  401103:	rol    BYTE PTR [eax+0x0],0x8b
  401107:	sar    bh,0x25
  40110a:	hlt    
  40110b:	rol    BYTE PTR [eax+0x0],0x8b
  40110f:	sar    bh,0x25
  401112:	pusha  
  401113:	rol    DWORD PTR [eax+0x0],0x8b
  401117:	sar    bh,0x25
  40111a:	pop    esp
  40111b:	rol    DWORD PTR [eax+0x0],0x8b
  40111f:	sar    bh,0x25
  401122:	pop    eax
  401123:	rol    DWORD PTR [eax+0x0],0x8b
  401127:	sar    bh,0x25
  40112a:	lock rol BYTE PTR [eax+0x0],0x8b
  40112f:	sar    bh,0x25
  401132:	push   0x8b0040c1
  401137:	sar    bh,0x25
  40113a:	in     al,dx
  40113b:	rol    BYTE PTR [eax+0x0],0x8b
  40113f:	sar    bh,0x25
  401142:	call   0x8b405207
  401147:	rcl    BYTE PTR [ebx-0x7d],0xc4
  40114b:	mov    esp,0xabb
  401150:	add    BYTE PTR [eax+ebp*8-0x77],dl
  401154:	(bad)  
  401155:	(bad)  
  401156:	push   esi
  401158:	inc    esp
  401159:	and    al,0x2c
  40115b:	add    DWORD PTR [ebp+eax*1+0xf],esi
  40115f:	mov    bh,0x5c
  401161:	and    al,0x30
  401163:	mov    eax,ebx
  401165:	add    esp,0x44
  401168:	pop    ebx
  401169:	ret    
  40116a:	mov    eax,eax
  40116c:	jmp    DWORD PTR ds:0x40c0e4
  401172:	mov    eax,eax
  401174:	jmp    DWORD PTR ds:0x40c0e0
  40117a:	mov    eax,eax
  40117c:	jmp    DWORD PTR ds:0x40c0dc
  401182:	mov    eax,eax
  401184:	jmp    DWORD PTR ds:0x40c0d8
  40118a:	mov    eax,eax
  40118c:	jmp    DWORD PTR ds:0x40c0d4
  401192:	mov    eax,eax
  401194:	jmp    DWORD PTR ds:0x40c0d0
  40119a:	mov    eax,eax
  40119c:	jmp    DWORD PTR ds:0x40c0cc
  4011a2:	mov    eax,eax
  4011a4:	jmp    DWORD PTR ds:0x40c0c8
  4011aa:	mov    eax,eax
  4011ac:	push   ebx
  4011ad:	add    esp,0xfffffff4
  4011b0:	mov    ebx,0x40b5e0
  4011b5:	cmp    DWORD PTR [ebx],0x0
  4011b8:	jne    0x401213
  4011ba:	push   0x644
  4011bf:	push   0x0
  4011c1:	call   0x40116c
  4011c6:	mov    DWORD PTR [esp+0x8],eax
  4011ca:	cmp    DWORD PTR [esp+0x8],0x0
  4011cf:	jne    0x4011d8
  4011d1:	xor    eax,eax
  4011d3:	mov    DWORD PTR [esp],eax
  4011d6:	jmp    0x401228
  4011d8:	mov    eax,DWORD PTR [esp+0x8]
  4011dc:	mov    edx,DWORD PTR ds:0x40b5dc
  4011e2:	mov    DWORD PTR [eax],edx
  4011e4:	mov    eax,DWORD PTR [esp+0x8]
  4011e8:	mov    ds:0x40b5dc,eax
  4011ed:	xor    eax,eax
  4011ef:	mov    edx,eax
  4011f1:	add    edx,edx
  4011f3:	mov    ecx,DWORD PTR [esp+0x8]
  4011f7:	lea    edx,[ecx+edx*8+0x4]
  4011fb:	mov    DWORD PTR [esp+0x4],edx
  4011ff:	mov    edx,DWORD PTR [esp+0x4]
  401203:	mov    ecx,DWORD PTR [ebx]
  401205:	mov    DWORD PTR [edx],ecx
  401207:	mov    edx,DWORD PTR [esp+0x4]
  40120b:	mov    DWORD PTR [ebx],edx
  40120d:	inc    eax
  40120e:	cmp    eax,0x64
  401211:	jne    0x4011ef
  401213:	mov    eax,DWORD PTR [ebx]
  401215:	mov    DWORD PTR [esp+0x4],eax
  401219:	mov    eax,DWORD PTR [esp+0x4]
  40121d:	mov    eax,DWORD PTR [eax]
  40121f:	mov    DWORD PTR [ebx],eax
  401221:	mov    eax,DWORD PTR [esp+0x4]
  401225:	mov    DWORD PTR [esp],eax
  401228:	mov    eax,DWORD PTR [esp]
  40122b:	add    esp,0xc
  40122e:	pop    ebx
  40122f:	ret    
  401230:	mov    DWORD PTR [eax],eax
  401232:	mov    DWORD PTR [eax+0x4],eax
  401235:	ret    
  401236:	mov    eax,eax
  401238:	push   ebx
  401239:	push   esi
  40123a:	add    esp,0xfffffff8
  40123d:	mov    esi,edx
  40123f:	mov    ebx,eax
  401241:	call   0x4011ac
  401246:	mov    DWORD PTR [esp+0x4],eax
  40124a:	cmp    DWORD PTR [esp+0x4],0x0
  40124f:	jne    0x401255
  401251:	xor    eax,eax
  401253:	jmp    0x40128f
  401255:	mov    eax,DWORD PTR [esi]
  401257:	mov    edx,DWORD PTR [esp+0x4]
  40125b:	mov    DWORD PTR [edx+0x8],eax
  40125e:	mov    eax,DWORD PTR [esi+0x4]
  401261:	mov    edx,DWORD PTR [esp+0x4]
  401265:	mov    DWORD PTR [edx+0xc],eax
  401268:	mov    eax,DWORD PTR [ebx]
  40126a:	mov    DWORD PTR [esp],eax
  40126d:	mov    eax,DWORD PTR [esp+0x4]
  401271:	mov    edx,DWORD PTR [esp]
  401274:	mov    DWORD PTR [eax],edx
  401276:	mov    eax,DWORD PTR [esp+0x4]
  40127a:	mov    DWORD PTR [eax+0x4],ebx
  40127d:	mov    eax,DWORD PTR [esp]
  401280:	mov    edx,DWORD PTR [esp+0x4]
  401284:	mov    DWORD PTR [eax+0x4],edx
  401287:	mov    eax,DWORD PTR [esp+0x4]
  40128b:	mov    DWORD PTR [ebx],eax
  40128d:	mov    al,0x1
  40128f:	pop    ecx
  401290:	pop    edx
  401291:	pop    esi
  401292:	pop    ebx
  401293:	ret    
  401294:	add    esp,0xfffffff8
  401297:	mov    edx,DWORD PTR [eax+0x4]
  40129a:	mov    DWORD PTR [esp],edx
  40129d:	mov    edx,DWORD PTR [eax]
  40129f:	mov    DWORD PTR [esp+0x4],edx
  4012a3:	mov    edx,DWORD PTR [esp]
  4012a6:	mov    ecx,DWORD PTR [esp+0x4]
  4012aa:	mov    DWORD PTR [edx],ecx
  4012ac:	mov    edx,DWORD PTR [esp+0x4]
  4012b0:	mov    ecx,DWORD PTR [esp]
  4012b3:	mov    DWORD PTR [edx+0x4],ecx
  4012b6:	mov    edx,DWORD PTR ds:0x40b5e0
  4012bc:	mov    DWORD PTR [eax],edx
  4012be:	mov    ds:0x40b5e0,eax
  4012c3:	pop    ecx
  4012c4:	pop    edx
  4012c5:	ret    
  4012c6:	mov    eax,eax
  4012c8:	push   ebx
  4012c9:	push   esi
  4012ca:	push   edi
  4012cb:	push   ebp
  4012cc:	add    esp,0xfffffff8
  4012cf:	mov    ebx,ecx
  4012d1:	mov    esi,eax
  4012d3:	mov    edi,esp
  4012d5:	mov    eax,DWORD PTR [esi]
  4012d7:	mov    DWORD PTR [edi],eax
  4012d9:	mov    eax,DWORD PTR [edx]
  4012db:	mov    DWORD PTR [ebx],eax
  4012dd:	mov    eax,DWORD PTR [edx+0x4]
  4012e0:	mov    DWORD PTR [ebx+0x4],eax
  4012e3:	mov    eax,DWORD PTR [edi]
  4012e5:	mov    eax,DWORD PTR [eax]
  4012e7:	mov    DWORD PTR [esp+0x4],eax
  4012eb:	mov    edx,DWORD PTR [edi]
  4012ed:	mov    edx,DWORD PTR [edx+0x8]
  4012f0:	mov    ecx,edx
  4012f2:	mov    ebp,DWORD PTR [edi]
  4012f4:	add    ecx,DWORD PTR [ebp+0xc]
  4012f7:	mov    eax,DWORD PTR [ebx]
  4012f9:	cmp    ecx,eax
  4012fb:	jne    0x401315
  4012fd:	mov    eax,DWORD PTR [edi]
  4012ff:	call   0x401294
  401304:	mov    eax,DWORD PTR [edi]
  401306:	mov    eax,DWORD PTR [eax+0x8]
  401309:	mov    DWORD PTR [ebx],eax
  40130b:	mov    eax,DWORD PTR [edi]
  40130d:	mov    eax,DWORD PTR [eax+0xc]
  401310:	add    DWORD PTR [ebx+0x4],eax
  401313:	jmp    0x40132b
  401315:	add    eax,DWORD PTR [ebx+0x4]
  401318:	cmp    edx,eax
  40131a:	jne    0x40132b
  40131c:	mov    eax,DWORD PTR [edi]
  40131e:	call   0x401294
  401323:	mov    eax,DWORD PTR [edi]
  401325:	mov    eax,DWORD PTR [eax+0xc]
  401328:	add    DWORD PTR [ebx+0x4],eax
  40132b:	mov    eax,DWORD PTR [esp+0x4]
  40132f:	mov    DWORD PTR [edi],eax
  401331:	cmp    esi,DWORD PTR [edi]
  401333:	jne    0x4012e3
  401335:	mov    edx,ebx
  401337:	mov    eax,esi
  401339:	call   0x401238
  40133e:	test   al,al
  401340:	jne    0x401346
  401342:	xor    eax,eax
  401344:	mov    DWORD PTR [ebx],eax
  401346:	pop    ecx
  401347:	pop    edx
  401348:	pop    ebp
  401349:	pop    edi
  40134a:	pop    esi
  40134b:	pop    ebx
  40134c:	ret    
  40134d:	lea    eax,[eax+0x0]
  401350:	push   ebx
  401351:	push   esi
  401352:	push   edi
  401353:	push   ebp
  401354:	add    esp,0xfffffff0
  401357:	mov    DWORD PTR [esp],eax
  40135a:	mov    esi,esp
  40135c:	mov    eax,DWORD PTR [esi]
  40135e:	mov    DWORD PTR [esp+0xc],eax
  401362:	mov    ecx,DWORD PTR [edx]
  401364:	mov    eax,DWORD PTR [esi]
  401366:	mov    eax,DWORD PTR [eax+0x8]
  401369:	cmp    ecx,eax
  40136b:	jb     0x4013f7
  401371:	mov    ebx,eax
  401373:	mov    edi,DWORD PTR [esi]
  401375:	add    ebx,DWORD PTR [edi+0xc]
  401378:	mov    edi,ecx
  40137a:	add    edi,DWORD PTR [edx+0x4]
  40137d:	cmp    ebx,edi
  40137f:	jb     0x4013f7
  401381:	cmp    ecx,eax
  401383:	jne    0x4013a6
  401385:	mov    eax,DWORD PTR [edx+0x4]
  401388:	mov    ecx,DWORD PTR [esi]
  40138a:	add    DWORD PTR [ecx+0x8],eax
  40138d:	mov    eax,DWORD PTR [edx+0x4]
  401390:	mov    edx,DWORD PTR [esi]
  401392:	sub    DWORD PTR [edx+0xc],eax
  401395:	mov    eax,DWORD PTR [esi]
  401397:	cmp    DWORD PTR [eax+0xc],0x0
  40139b:	jne    0x4013f3
  40139d:	mov    eax,DWORD PTR [esi]
  40139f:	call   0x401294
  4013a4:	jmp    0x4013f3
  4013a6:	mov    ebx,eax
  4013a8:	mov    edi,DWORD PTR [esi]
  4013aa:	add    ebx,DWORD PTR [edi+0xc]
  4013ad:	mov    edi,ecx
  4013af:	add    edi,DWORD PTR [edx+0x4]
  4013b2:	cmp    ebx,edi
  4013b4:	jne    0x4013c0
  4013b6:	mov    eax,DWORD PTR [edx+0x4]
  4013b9:	mov    edx,DWORD PTR [esi]
  4013bb:	sub    DWORD PTR [edx+0xc],eax
  4013be:	jmp    0x4013f3
  4013c0:	mov    ebx,DWORD PTR [edx]
  4013c2:	add    ebx,DWORD PTR [edx+0x4]
  4013c5:	mov    DWORD PTR [esp+0x4],ebx
  4013c9:	mov    edi,DWORD PTR [esi]
  4013cb:	mov    edi,DWORD PTR [edi+0x8]
  4013ce:	mov    ebp,DWORD PTR [esi]
  4013d0:	add    edi,DWORD PTR [ebp+0xc]
  4013d3:	sub    edi,ebx
  4013d5:	mov    DWORD PTR [esp+0x8],edi
  4013d9:	sub    ecx,eax
  4013db:	mov    eax,DWORD PTR [esi]
  4013dd:	mov    DWORD PTR [eax+0xc],ecx
  4013e0:	lea    edx,[esp+0x4]
  4013e4:	mov    eax,DWORD PTR [esi]
  4013e6:	call   0x401238
  4013eb:	test   al,al
  4013ed:	jne    0x4013f3
  4013ef:	xor    eax,eax
  4013f1:	jmp    0x40140b
  4013f3:	mov    al,0x1
  4013f5:	jmp    0x40140b
  4013f7:	mov    eax,DWORD PTR [esi]
  4013f9:	mov    eax,DWORD PTR [eax]
  4013fb:	mov    DWORD PTR [esi],eax
  4013fd:	mov    eax,DWORD PTR [esi]
  4013ff:	cmp    eax,DWORD PTR [esp+0xc]
  401403:	jne    0x401362
  401409:	xor    eax,eax
  40140b:	add    esp,0x10
  40140e:	pop    ebp
  40140f:	pop    edi
  401410:	pop    esi
  401411:	pop    ebx
  401412:	ret    
  401413:	nop
  401414:	push   ebx
  401415:	push   esi
  401416:	push   edi
  401417:	mov    ebx,edx
  401419:	mov    esi,eax
  40141b:	cmp    esi,0x100000
  401421:	jge    0x40142a
  401423:	mov    esi,0x100000
  401428:	jmp    0x401436
  40142a:	add    esi,0xffff
  401430:	and    esi,0xffff0000
  401436:	mov    DWORD PTR [ebx+0x4],esi
  401439:	push   0x1
  40143b:	push   0x2000
  401440:	push   esi
  401441:	push   0x0
  401443:	call   0x40117c
  401448:	mov    edi,eax
  40144a:	mov    DWORD PTR [ebx],edi
  40144c:	test   edi,edi
  40144e:	je     0x401473
  401450:	mov    edx,ebx
  401452:	mov    eax,0x40b5e4
  401457:	call   0x401238
  40145c:	test   al,al
  40145e:	jne    0x401473
  401460:	push   0x8000
  401465:	push   0x0
  401467:	mov    eax,DWORD PTR [ebx]
  401469:	push   eax
  40146a:	call   0x401184
  40146f:	xor    eax,eax
  401471:	mov    DWORD PTR [ebx],eax
  401473:	pop    edi
  401474:	pop    esi
  401475:	pop    ebx
  401476:	ret    
  401477:	nop
  401478:	push   ebx
  401479:	push   esi
  40147a:	push   edi
  40147b:	push   ebp
  40147c:	mov    ebx,ecx
  40147e:	mov    esi,edx
  401480:	mov    ebp,eax
  401482:	mov    DWORD PTR [ebx+0x4],0x100000
  401489:	push   0x4
  40148b:	push   0x2000
  401490:	push   0x100000
  401495:	push   ebp
  401496:	call   0x40117c
  40149b:	mov    edi,eax
  40149d:	mov    DWORD PTR [ebx],edi
  40149f:	test   edi,edi
  4014a1:	jne    0x4014c2
  4014a3:	add    esi,0xffff
  4014a9:	and    esi,0xffff0000
  4014af:	mov    DWORD PTR [ebx+0x4],esi
  4014b2:	push   0x4
  4014b4:	push   0x2000
  4014b9:	push   esi
  4014ba:	push   ebp
  4014bb:	call   0x40117c
  4014c0:	mov    DWORD PTR [ebx],eax
  4014c2:	cmp    DWORD PTR [ebx],0x0
  4014c5:	je     0x4014ea
  4014c7:	mov    edx,ebx
  4014c9:	mov    eax,0x40b5e4
  4014ce:	call   0x401238
  4014d3:	test   al,al
  4014d5:	jne    0x4014ea
  4014d7:	push   0x8000
  4014dc:	push   0x0
  4014de:	mov    eax,DWORD PTR [ebx]
  4014e0:	push   eax
  4014e1:	call   0x401184
  4014e6:	xor    eax,eax
  4014e8:	mov    DWORD PTR [ebx],eax
  4014ea:	pop    ebp
  4014eb:	pop    edi
  4014ec:	pop    esi
  4014ed:	pop    ebx
  4014ee:	ret    
  4014ef:	nop
  4014f0:	push   ebx
  4014f1:	push   esi
  4014f2:	push   edi
  4014f3:	push   ebp
  4014f4:	add    esp,0xffffffe8
  4014f7:	mov    edi,ecx
  4014f9:	mov    esi,esp
  4014fb:	mov    DWORD PTR [esp+0x8],0xffffffff
  401503:	xor    ecx,ecx
  401505:	mov    DWORD PTR [esp+0xc],ecx
  401509:	mov    DWORD PTR [esp+0x10],eax
  40150d:	add    edx,DWORD PTR [esp+0x10]
  401511:	mov    DWORD PTR [esp+0x14],edx
  401515:	mov    eax,ds:0x40b5e4
  40151a:	mov    DWORD PTR [esi],eax
  40151c:	jmp    0x401589
  40151e:	mov    eax,DWORD PTR [esi]
  401520:	mov    eax,DWORD PTR [eax]
  401522:	mov    DWORD PTR [esp+0x4],eax
  401526:	mov    eax,DWORD PTR [esi]
  401528:	mov    ebx,DWORD PTR [eax+0x8]
  40152b:	cmp    ebx,DWORD PTR [esp+0x10]
  40152f:	jb     0x401583
  401531:	mov    eax,ebx
  401533:	mov    edx,DWORD PTR [esi]
  401535:	add    eax,DWORD PTR [edx+0xc]
  401538:	cmp    eax,DWORD PTR [esp+0x14]
  40153c:	ja     0x401583
  40153e:	cmp    ebx,DWORD PTR [esp+0x8]
  401542:	jae    0x401548
  401544:	mov    DWORD PTR [esp+0x8],ebx
  401548:	mov    eax,DWORD PTR [esi]
  40154a:	mov    ebp,DWORD PTR [eax+0x8]
  40154d:	mov    eax,DWORD PTR [esi]
  40154f:	add    ebp,DWORD PTR [eax+0xc]
  401552:	cmp    ebp,DWORD PTR [esp+0xc]
  401556:	jbe    0x40155c
  401558:	mov    DWORD PTR [esp+0xc],ebp
  40155c:	push   0x8000
  401561:	push   0x0
  401563:	mov    eax,DWORD PTR [esi]
  401565:	mov    eax,DWORD PTR [eax+0x8]
  401568:	push   eax
  401569:	call   0x401184
  40156e:	test   eax,eax
  401570:	jne    0x40157c
  401572:	mov    DWORD PTR ds:0x40b5c0,0x1
  40157c:	mov    eax,DWORD PTR [esi]
  40157e:	call   0x401294
  401583:	mov    eax,DWORD PTR [esp+0x4]
  401587:	mov    DWORD PTR [esi],eax
  401589:	mov    eax,0x40b5e4
  40158e:	cmp    eax,DWORD PTR [esi]
  401590:	jne    0x40151e
  401592:	xor    eax,eax
  401594:	mov    DWORD PTR [edi],eax
  401596:	cmp    DWORD PTR [esp+0xc],0x0
  40159b:	je     0x4015ae
  40159d:	mov    eax,DWORD PTR [esp+0x8]
  4015a1:	mov    DWORD PTR [edi],eax
  4015a3:	mov    eax,DWORD PTR [esp+0xc]
  4015a7:	sub    eax,DWORD PTR [esp+0x8]
  4015ab:	mov    DWORD PTR [edi+0x4],eax
  4015ae:	add    esp,0x18
  4015b1:	pop    ebp
  4015b2:	pop    edi
  4015b3:	pop    esi
  4015b4:	pop    ebx
  4015b5:	ret    
  4015b6:	mov    eax,eax
  4015b8:	push   ebx
  4015b9:	push   esi
  4015ba:	push   edi
  4015bb:	push   ebp
  4015bc:	add    esp,0xffffffe8
  4015bf:	mov    ebx,ecx
  4015c1:	mov    DWORD PTR [esp],edx
  4015c4:	lea    esi,[esp+0x8]
  4015c8:	lea    edi,[esp+0x4]
  4015cc:	lea    ebp,[esp+0xc]
  4015d0:	mov    edx,eax
  4015d2:	mov    ecx,edx
  4015d4:	and    ecx,0xfffff000
  4015da:	mov    DWORD PTR [esp+0x10],ecx
  4015de:	add    edx,DWORD PTR [esp]
  4015e1:	add    edx,0xfff
  4015e7:	and    edx,0xfffff000
  4015ed:	mov    DWORD PTR [esp+0x14],edx
  4015f1:	mov    eax,DWORD PTR [esp+0x10]
  4015f5:	mov    DWORD PTR [ebx],eax
  4015f7:	mov    eax,DWORD PTR [esp+0x14]
  4015fb:	sub    eax,DWORD PTR [esp+0x10]
  4015ff:	mov    DWORD PTR [ebx+0x4],eax
  401602:	mov    eax,ds:0x40b5e4
  401607:	mov    DWORD PTR [edi],eax
  401609:	jmp    0x401666
  40160b:	mov    eax,DWORD PTR [edi]
  40160d:	mov    eax,DWORD PTR [eax+0x8]
  401610:	mov    DWORD PTR [esi],eax
  401612:	mov    eax,DWORD PTR [edi]
  401614:	mov    eax,DWORD PTR [eax+0xc]
  401617:	add    eax,DWORD PTR [esi]
  401619:	mov    DWORD PTR [ebp+0x0],eax
  40161c:	mov    eax,DWORD PTR [esi]
  40161e:	cmp    eax,DWORD PTR [esp+0x10]
  401622:	jae    0x40162a
  401624:	mov    eax,DWORD PTR [esp+0x10]
  401628:	mov    DWORD PTR [esi],eax
  40162a:	mov    eax,DWORD PTR [ebp+0x0]
  40162d:	cmp    eax,DWORD PTR [esp+0x14]
  401631:	jbe    0x40163a
  401633:	mov    eax,DWORD PTR [esp+0x14]
  401637:	mov    DWORD PTR [ebp+0x0],eax
  40163a:	mov    eax,DWORD PTR [esi]
  40163c:	cmp    eax,DWORD PTR [ebp+0x0]
  40163f:	jae    0x401660
  401641:	push   0x4
  401643:	push   0x1000
  401648:	mov    eax,DWORD PTR [ebp+0x0]
  40164b:	sub    eax,DWORD PTR [esi]
  40164d:	push   eax
  40164e:	mov    eax,DWORD PTR [esi]
  401650:	push   eax
  401651:	call   0x40117c
  401656:	test   eax,eax
  401658:	jne    0x401660
  40165a:	xor    eax,eax
  40165c:	mov    DWORD PTR [ebx],eax
  40165e:	jmp    0x40166f
  401660:	mov    eax,DWORD PTR [edi]
  401662:	mov    eax,DWORD PTR [eax]
  401664:	mov    DWORD PTR [edi],eax
  401666:	mov    eax,0x40b5e4
  40166b:	cmp    eax,DWORD PTR [edi]
  40166d:	jne    0x40160b
  40166f:	add    esp,0x18
  401672:	pop    ebp
  401673:	pop    edi
  401674:	pop    esi
  401675:	pop    ebx
  401676:	ret    
  401677:	nop
  401678:	push   ebx
  401679:	push   esi
  40167a:	push   edi
  40167b:	push   ebp
  40167c:	add    esp,0xffffffe8
  40167f:	mov    DWORD PTR [esp],edx
  401682:	lea    esi,[esp+0x8]
  401686:	lea    edi,[esp+0x4]
  40168a:	lea    ebx,[esp+0xc]
  40168e:	mov    edx,eax
  401690:	mov    ebp,edx
  401692:	add    ebp,0xfff
  401698:	and    ebp,0xfffff000
  40169e:	mov    DWORD PTR [esp+0x10],ebp
  4016a2:	add    edx,DWORD PTR [esp]
  4016a5:	and    edx,0xfffff000
  4016ab:	mov    DWORD PTR [esp+0x14],edx
  4016af:	mov    eax,DWORD PTR [esp+0x10]
  4016b3:	mov    DWORD PTR [ecx],eax
  4016b5:	mov    eax,DWORD PTR [esp+0x14]
  4016b9:	sub    eax,DWORD PTR [esp+0x10]
  4016bd:	mov    DWORD PTR [ecx+0x4],eax
  4016c0:	mov    eax,ds:0x40b5e4
  4016c5:	mov    DWORD PTR [edi],eax
  4016c7:	jmp    0x401721
  4016c9:	mov    eax,DWORD PTR [edi]
  4016cb:	mov    eax,DWORD PTR [eax+0x8]
  4016ce:	mov    DWORD PTR [esi],eax
  4016d0:	mov    eax,DWORD PTR [edi]
  4016d2:	mov    eax,DWORD PTR [eax+0xc]
  4016d5:	add    eax,DWORD PTR [esi]
  4016d7:	mov    DWORD PTR [ebx],eax
  4016d9:	mov    eax,DWORD PTR [esi]
  4016db:	cmp    eax,DWORD PTR [esp+0x10]
  4016df:	jae    0x4016e7
  4016e1:	mov    eax,DWORD PTR [esp+0x10]
  4016e5:	mov    DWORD PTR [esi],eax
  4016e7:	mov    eax,DWORD PTR [ebx]
  4016e9:	cmp    eax,DWORD PTR [esp+0x14]
  4016ed:	jbe    0x4016f5
  4016ef:	mov    eax,DWORD PTR [esp+0x14]
  4016f3:	mov    DWORD PTR [ebx],eax
  4016f5:	mov    eax,DWORD PTR [esi]
  4016f7:	cmp    eax,DWORD PTR [ebx]
  4016f9:	jae    0x40171b
  4016fb:	push   0x4000
  401700:	mov    eax,DWORD PTR [ebx]
  401702:	sub    eax,DWORD PTR [esi]
  401704:	push   eax
  401705:	mov    eax,DWORD PTR [esi]
  401707:	push   eax
  401708:	call   0x401184
  40170d:	test   eax,eax
  40170f:	jne    0x40171b
  401711:	mov    DWORD PTR ds:0x40b5c0,0x2
  40171b:	mov    eax,DWORD PTR [edi]
  40171d:	mov    eax,DWORD PTR [eax]
  40171f:	mov    DWORD PTR [edi],eax
  401721:	mov    eax,0x40b5e4
  401726:	cmp    eax,DWORD PTR [edi]
  401728:	jne    0x4016c9
  40172a:	add    esp,0x18
  40172d:	pop    ebp
  40172e:	pop    edi
  40172f:	pop    esi
  401730:	pop    ebx
  401731:	ret    
  401732:	mov    eax,eax
  401734:	push   ebx
  401735:	push   esi
  401736:	push   edi
  401737:	push   ebp
  401738:	add    esp,0xfffffff4
  40173b:	mov    ebx,edx
  40173d:	mov    esi,eax
  40173f:	mov    edi,esp
  401741:	mov    ebp,0x40b5f4
  401746:	add    esi,0x3fff
  40174c:	and    esi,0xffffc000
  401752:	mov    eax,DWORD PTR [ebp+0x0]
  401755:	mov    DWORD PTR [edi],eax
  401757:	jmp    0x40179a
  401759:	mov    eax,DWORD PTR [edi]
  40175b:	cmp    esi,DWORD PTR [eax+0xc]
  40175e:	jg     0x401794
  401760:	mov    ecx,ebx
  401762:	mov    eax,DWORD PTR [edi]
  401764:	mov    eax,DWORD PTR [eax+0x8]
  401767:	mov    edx,esi
  401769:	call   0x4015b8
  40176e:	cmp    DWORD PTR [ebx],0x0
  401771:	je     0x4017d2
  401773:	mov    eax,DWORD PTR [ebx+0x4]
  401776:	mov    edx,DWORD PTR [edi]
  401778:	add    DWORD PTR [edx+0x8],eax
  40177b:	mov    eax,DWORD PTR [ebx+0x4]
  40177e:	mov    edx,DWORD PTR [edi]
  401780:	sub    DWORD PTR [edx+0xc],eax
  401783:	mov    eax,DWORD PTR [edi]
  401785:	cmp    DWORD PTR [eax+0xc],0x0
  401789:	jne    0x4017d2
  40178b:	mov    eax,DWORD PTR [edi]
  40178d:	call   0x401294
  401792:	jmp    0x4017d2
  401794:	mov    eax,DWORD PTR [edi]
  401796:	mov    eax,DWORD PTR [eax]
  401798:	mov    DWORD PTR [edi],eax
  40179a:	cmp    ebp,DWORD PTR [edi]
  40179c:	jne    0x401759
  40179e:	mov    edx,ebx
  4017a0:	mov    eax,esi
  4017a2:	call   0x401414
  4017a7:	cmp    DWORD PTR [ebx],0x0
  4017aa:	je     0x4017d2
  4017ac:	lea    ecx,[esp+0x4]
  4017b0:	mov    edx,ebx
  4017b2:	mov    eax,ebp
  4017b4:	call   0x4012c8
  4017b9:	cmp    DWORD PTR [esp+0x4],0x0
  4017be:	jne    0x401752
  4017c0:	lea    ecx,[esp+0x4]
  4017c4:	mov    edx,DWORD PTR [ebx+0x4]
  4017c7:	mov    eax,DWORD PTR [ebx]
  4017c9:	call   0x4014f0
  4017ce:	xor    eax,eax
  4017d0:	mov    DWORD PTR [ebx],eax
  4017d2:	add    esp,0xc
  4017d5:	pop    ebp
  4017d6:	pop    edi
  4017d7:	pop    esi
  4017d8:	pop    ebx
  4017d9:	ret    
  4017da:	mov    eax,eax
  4017dc:	push   ebx
  4017dd:	push   esi
  4017de:	push   edi
  4017df:	push   ebp
  4017e0:	add    esp,0xffffffe8
  4017e3:	mov    DWORD PTR [esp],ecx
  4017e6:	mov    edi,edx
  4017e8:	mov    ebx,eax
  4017ea:	lea    esi,[esp+0x4]
  4017ee:	mov    ebp,0x40b5f4
  4017f3:	add    edi,0x3fff
  4017f9:	and    edi,0xffffc000
  4017ff:	mov    eax,DWORD PTR [ebp+0x0]
  401802:	mov    DWORD PTR [esi],eax
  401804:	jmp    0x40180c
  401806:	mov    eax,DWORD PTR [esi]
  401808:	mov    eax,DWORD PTR [eax]
  40180a:	mov    DWORD PTR [esi],eax
  40180c:	cmp    ebp,DWORD PTR [esi]
  40180e:	je     0x401817
  401810:	mov    eax,DWORD PTR [esi]
  401812:	cmp    ebx,DWORD PTR [eax+0x8]
  401815:	jne    0x401806
  401817:	mov    eax,DWORD PTR [esi]
  401819:	cmp    ebx,DWORD PTR [eax+0x8]
  40181c:	jne    0x40187d
  40181e:	mov    eax,DWORD PTR [esi]
  401820:	cmp    edi,DWORD PTR [eax+0xc]
  401823:	jle    0x4018c5
  401829:	mov    eax,DWORD PTR [esi]
  40182b:	mov    edx,edi
  40182d:	sub    edx,DWORD PTR [eax+0xc]
  401830:	mov    eax,DWORD PTR [esi]
  401832:	mov    eax,DWORD PTR [eax+0x8]
  401835:	mov    ecx,DWORD PTR [esi]
  401837:	add    eax,DWORD PTR [ecx+0xc]
  40183a:	lea    ecx,[esp+0x8]
  40183e:	call   0x401478
  401843:	cmp    DWORD PTR [esp+0x8],0x0
  401848:	je     0x40187d
  40184a:	lea    ecx,[esp+0x10]
  40184e:	lea    edx,[esp+0x8]
  401852:	mov    eax,ebp
  401854:	call   0x4012c8
  401859:	cmp    DWORD PTR [esp+0x10],0x0
  40185e:	jne    0x4017ff
  401860:	lea    ecx,[esp+0x10]
  401864:	mov    edx,DWORD PTR [esp+0xc]
  401868:	mov    eax,DWORD PTR [esp+0x8]
  40186c:	call   0x4014f0
  401871:	mov    eax,DWORD PTR [esp]
  401874:	xor    edx,edx
  401876:	mov    DWORD PTR [eax],edx
  401878:	jmp    0x401917
  40187d:	lea    ecx,[esp+0x8]
  401881:	mov    edx,edi
  401883:	mov    eax,ebx
  401885:	call   0x401478
  40188a:	cmp    DWORD PTR [esp+0x8],0x0
  40188f:	je     0x4018c5
  401891:	lea    ecx,[esp+0x10]
  401895:	lea    edx,[esp+0x8]
  401899:	mov    eax,ebp
  40189b:	call   0x4012c8
  4018a0:	cmp    DWORD PTR [esp+0x10],0x0
  4018a5:	jne    0x4017ff
  4018ab:	lea    ecx,[esp+0x10]
  4018af:	mov    edx,DWORD PTR [esp+0xc]
  4018b3:	mov    eax,DWORD PTR [esp+0x8]
  4018b7:	call   0x4014f0
  4018bc:	mov    eax,DWORD PTR [esp]
  4018bf:	xor    edx,edx
  4018c1:	mov    DWORD PTR [eax],edx
  4018c3:	jmp    0x401917
  4018c5:	mov    eax,DWORD PTR [esi]
  4018c7:	mov    ebp,DWORD PTR [eax+0x8]
  4018ca:	cmp    ebx,ebp
  4018cc:	jne    0x401910
  4018ce:	mov    eax,DWORD PTR [esi]
  4018d0:	cmp    edi,DWORD PTR [eax+0xc]
  4018d3:	jg     0x401910
  4018d5:	mov    ecx,DWORD PTR [esp]
  4018d8:	mov    eax,ebp
  4018da:	mov    edx,edi
  4018dc:	call   0x4015b8
  4018e1:	mov    eax,DWORD PTR [esp]
  4018e4:	cmp    DWORD PTR [eax],0x0
  4018e7:	je     0x401917
  4018e9:	mov    eax,DWORD PTR [esp]
  4018ec:	mov    eax,DWORD PTR [eax+0x4]
  4018ef:	mov    edx,DWORD PTR [esi]
  4018f1:	add    DWORD PTR [edx+0x8],eax
  4018f4:	mov    eax,DWORD PTR [esp]
  4018f7:	mov    eax,DWORD PTR [eax+0x4]
  4018fa:	mov    edx,DWORD PTR [esi]
  4018fc:	sub    DWORD PTR [edx+0xc],eax
  4018ff:	mov    eax,DWORD PTR [esi]
  401901:	cmp    DWORD PTR [eax+0xc],0x0
  401905:	jne    0x401917
  401907:	mov    eax,DWORD PTR [esi]
  401909:	call   0x401294
  40190e:	jmp    0x401917
  401910:	mov    eax,DWORD PTR [esp]
  401913:	xor    edx,edx
  401915:	mov    DWORD PTR [eax],edx
  401917:	add    esp,0x18
  40191a:	pop    ebp
  40191b:	pop    edi
  40191c:	pop    esi
  40191d:	pop    ebx
  40191e:	ret    
  40191f:	nop
  401920:	push   ebx
  401921:	add    esp,0xffffffe8
  401924:	mov    ebx,ecx
  401926:	lea    ecx,[eax+0x3fff]
  40192c:	and    ecx,0xffffc000
  401932:	mov    DWORD PTR [esp],ecx
  401935:	add    edx,eax
  401937:	and    edx,0xffffc000
  40193d:	mov    DWORD PTR [esp+0x4],edx
  401941:	mov    eax,DWORD PTR [esp+0x4]
  401945:	cmp    eax,DWORD PTR [esp]
  401948:	jbe    0x4019a9
  40194a:	mov    ecx,ebx
  40194c:	mov    edx,DWORD PTR [esp+0x4]
  401950:	sub    edx,DWORD PTR [esp]
  401953:	mov    eax,DWORD PTR [esp]
  401956:	call   0x401678
  40195b:	lea    ecx,[esp+0x8]
  40195f:	mov    edx,ebx
  401961:	mov    eax,0x40b5f4
  401966:	call   0x4012c8
  40196b:	mov    ebx,DWORD PTR [esp+0x8]
  40196f:	test   ebx,ebx
  401971:	je     0x401992
  401973:	lea    ecx,[esp+0x10]
  401977:	mov    edx,DWORD PTR [esp+0xc]
  40197b:	mov    eax,ebx
  40197d:	call   0x4014f0
  401982:	mov    eax,DWORD PTR [esp+0x10]
  401986:	mov    DWORD PTR [esp+0x8],eax
  40198a:	mov    eax,DWORD PTR [esp+0x14]
  40198e:	mov    DWORD PTR [esp+0xc],eax
  401992:	cmp    DWORD PTR [esp+0x8],0x0
  401997:	je     0x4019ad
  401999:	lea    edx,[esp+0x8]
  40199d:	mov    eax,0x40b5f4
  4019a2:	call   0x401350
  4019a7:	jmp    0x4019ad
  4019a9:	xor    eax,eax
  4019ab:	mov    DWORD PTR [ebx],eax
  4019ad:	add    esp,0x18
  4019b0:	pop    ebx
  4019b1:	ret    
  4019b2:	mov    eax,eax
  4019b4:	push   ebp
  4019b5:	mov    ebp,esp
  4019b7:	push   ecx
  4019b8:	xor    edx,edx
  4019ba:	push   ebp
  4019bb:	push   0x401a7c
  4019c0:	push   DWORD PTR fs:[edx]
  4019c3:	mov    DWORD PTR fs:[edx],esp
  4019c6:	push   0x40b5c4
  4019cb:	call   0x40118c
  4019d0:	cmp    BYTE PTR ds:0x40b045,0x0
  4019d7:	je     0x4019e3
  4019d9:	push   0x40b5c4
  4019de:	call   0x401194
  4019e3:	mov    eax,0x40b5e4
  4019e8:	call   0x401230
  4019ed:	mov    eax,0x40b5f4
  4019f2:	call   0x401230
  4019f7:	mov    eax,0x40b620
  4019fc:	call   0x401230
  401a01:	push   0xff8
  401a06:	push   0x0
  401a08:	call   0x40116c
  401a0d:	mov    ds:0x40b61c,eax
  401a12:	cmp    DWORD PTR ds:0x40b61c,0x0
  401a19:	je     0x401a5b
  401a1b:	mov    eax,0x3
  401a20:	mov    edx,DWORD PTR ds:0x40b61c
  401a26:	xor    ecx,ecx
  401a28:	mov    DWORD PTR [edx+eax*4-0xc],ecx
  401a2c:	inc    eax
  401a2d:	cmp    eax,0x401
  401a32:	jne    0x401a20
  401a34:	mov    DWORD PTR [ebp-0x4],0x40b604
  401a3b:	mov    eax,DWORD PTR [ebp-0x4]
  401a3e:	mov    edx,DWORD PTR [ebp-0x4]
  401a41:	mov    DWORD PTR [eax+0x4],edx
  401a44:	mov    eax,DWORD PTR [ebp-0x4]
  401a47:	mov    edx,DWORD PTR [ebp-0x4]
  401a4a:	mov    DWORD PTR [eax],edx
  401a4c:	mov    eax,DWORD PTR [ebp-0x4]
  401a4f:	mov    ds:0x40b610,eax
  401a54:	mov    BYTE PTR ds:0x40b5bc,0x1
  401a5b:	xor    eax,eax
  401a5d:	pop    edx
  401a5e:	pop    ecx
  401a5f:	pop    ecx
  401a60:	mov    DWORD PTR fs:[eax],edx
  401a63:	push   0x401a83
  401a68:	cmp    BYTE PTR ds:0x40b045,0x0
  401a6f:	je     0x401a7b
  401a71:	push   0x40b5c4
  401a76:	call   0x40119c
  401a7b:	ret    
  401a7c:	jmp    0x4033f4
  401a81:	jmp    0x401a68
  401a83:	mov    al,ds:0x40b5bc
  401a88:	pop    ecx
  401a89:	pop    ebp
  401a8a:	ret    
  401a8b:	nop
  401a8c:	push   ebp
  401a8d:	mov    ebp,esp
  401a8f:	add    esp,0xfffffff8
  401a92:	cmp    BYTE PTR ds:0x40b5bc,0x0
  401a99:	je     0x401b87
  401a9f:	xor    eax,eax
  401aa1:	push   ebp
  401aa2:	push   0x401b80
  401aa7:	push   DWORD PTR fs:[eax]
  401aaa:	mov    DWORD PTR fs:[eax],esp
  401aad:	cmp    BYTE PTR ds:0x40b045,0x0
  401ab4:	je     0x401ac0
  401ab6:	push   0x40b5c4
  401abb:	call   0x401194
  401ac0:	mov    BYTE PTR ds:0x40b5bc,0x0
  401ac7:	mov    eax,ds:0x40b61c
  401acc:	push   eax
  401acd:	call   0x401174
  401ad2:	xor    eax,eax
  401ad4:	mov    ds:0x40b61c,eax
  401ad9:	mov    eax,ds:0x40b5e4
  401ade:	mov    DWORD PTR [ebp-0x8],eax
  401ae1:	jmp    0x401afe
  401ae3:	push   0x8000
  401ae8:	push   0x0
  401aea:	mov    eax,DWORD PTR [ebp-0x8]
  401aed:	mov    eax,DWORD PTR [eax+0x8]
  401af0:	push   eax
  401af1:	call   0x401184
  401af6:	mov    eax,DWORD PTR [ebp-0x8]
  401af9:	mov    eax,DWORD PTR [eax]
  401afb:	mov    DWORD PTR [ebp-0x8],eax
  401afe:	mov    eax,0x40b5e4
  401b03:	cmp    eax,DWORD PTR [ebp-0x8]
  401b06:	jne    0x401ae3
  401b08:	mov    eax,0x40b5e4
  401b0d:	call   0x401230
  401b12:	mov    eax,0x40b5f4
  401b17:	call   0x401230
  401b1c:	mov    eax,0x40b620
  401b21:	call   0x401230
  401b26:	mov    eax,ds:0x40b5dc
  401b2b:	mov    DWORD PTR [ebp-0x4],eax
  401b2e:	cmp    DWORD PTR [ebp-0x4],0x0
  401b32:	je     0x401b55
  401b34:	mov    eax,DWORD PTR [ebp-0x4]
  401b37:	mov    eax,DWORD PTR [eax]
  401b39:	mov    ds:0x40b5dc,eax
  401b3e:	mov    eax,DWORD PTR [ebp-0x4]
  401b41:	push   eax
  401b42:	call   0x401174
  401b47:	mov    eax,ds:0x40b5dc
  401b4c:	mov    DWORD PTR [ebp-0x4],eax
  401b4f:	cmp    DWORD PTR [ebp-0x4],0x0
  401b53:	jne    0x401b34
  401b55:	xor    eax,eax
  401b57:	pop    edx
  401b58:	pop    ecx
  401b59:	pop    ecx
  401b5a:	mov    DWORD PTR fs:[eax],edx
  401b5d:	push   0x401b87
  401b62:	cmp    BYTE PTR ds:0x40b045,0x0
  401b69:	je     0x401b75
  401b6b:	push   0x40b5c4
  401b70:	call   0x40119c
  401b75:	push   0x40b5c4
  401b7a:	call   0x4011a4
  401b7f:	ret    
  401b80:	jmp    0x4033f4
  401b85:	jmp    0x401b62
  401b87:	pop    ecx
  401b88:	pop    ecx
  401b89:	pop    ebp
  401b8a:	ret    
  401b8b:	nop
  401b8c:	push   ebx
  401b8d:	add    esp,0xfffffff8
  401b90:	cmp    eax,DWORD PTR ds:0x40b610
  401b96:	jne    0x401ba1
  401b98:	mov    edx,DWORD PTR [eax+0x4]
  401b9b:	mov    DWORD PTR ds:0x40b610,edx
  401ba1:	mov    edx,DWORD PTR [eax+0x4]
  401ba4:	mov    DWORD PTR [esp],edx
  401ba7:	mov    edx,DWORD PTR [eax+0x8]
  401baa:	cmp    edx,0x1000
  401bb0:	jg     0x401c00
  401bb2:	cmp    eax,DWORD PTR [esp]
  401bb5:	jne    0x401bce
  401bb7:	test   edx,edx
  401bb9:	jns    0x401bbe
  401bbb:	add    edx,0x3
  401bbe:	sar    edx,0x2
  401bc1:	mov    eax,ds:0x40b61c
  401bc6:	xor    ecx,ecx
  401bc8:	mov    DWORD PTR [eax+edx*4-0xc],ecx
  401bcc:	jmp    0x401c19
  401bce:	test   edx,edx
  401bd0:	jns    0x401bd5
  401bd2:	add    edx,0x3
  401bd5:	sar    edx,0x2
  401bd8:	mov    ecx,DWORD PTR ds:0x40b61c
  401bde:	mov    ebx,DWORD PTR [esp]
  401be1:	mov    DWORD PTR [ecx+edx*4-0xc],ebx
  401be5:	mov    eax,DWORD PTR [eax]
  401be7:	mov    DWORD PTR [esp+0x4],eax
  401beb:	mov    eax,DWORD PTR [esp]
  401bee:	mov    edx,DWORD PTR [esp+0x4]
  401bf2:	mov    DWORD PTR [eax],edx
  401bf4:	mov    eax,DWORD PTR [esp+0x4]
  401bf8:	mov    edx,DWORD PTR [esp]
  401bfb:	mov    DWORD PTR [eax+0x4],edx
  401bfe:	jmp    0x401c19
  401c00:	mov    eax,DWORD PTR [eax]
  401c02:	mov    DWORD PTR [esp+0x4],eax
  401c06:	mov    eax,DWORD PTR [esp]
  401c09:	mov    edx,DWORD PTR [esp+0x4]
  401c0d:	mov    DWORD PTR [eax],edx
  401c0f:	mov    eax,DWORD PTR [esp+0x4]
  401c13:	mov    edx,DWORD PTR [esp]
  401c16:	mov    DWORD PTR [eax+0x4],edx
  401c19:	pop    ecx
  401c1a:	pop    edx
  401c1b:	pop    ebx
  401c1c:	ret    
  401c1d:	lea    eax,[eax+0x0]
  401c20:	push   ebx
  401c21:	push   ecx
  401c22:	mov    ecx,esp
  401c24:	mov    edx,DWORD PTR ds:0x40b620
  401c2a:	mov    DWORD PTR [ecx],edx
  401c2c:	jmp    0x401c46
  401c2e:	mov    edx,DWORD PTR [ecx]
  401c30:	mov    edx,DWORD PTR [edx+0x8]
  401c33:	cmp    eax,edx
  401c35:	jb     0x401c40
  401c37:	mov    ebx,DWORD PTR [ecx]
  401c39:	add    edx,DWORD PTR [ebx+0xc]
  401c3c:	cmp    eax,edx
  401c3e:	jb     0x401c5d
  401c40:	mov    edx,DWORD PTR [ecx]
  401c42:	mov    edx,DWORD PTR [edx]
  401c44:	mov    DWORD PTR [ecx],edx
  401c46:	mov    edx,0x40b620
  401c4b:	cmp    edx,DWORD PTR [ecx]
  401c4d:	jne    0x401c2e
  401c4f:	mov    DWORD PTR ds:0x40b5c0,0x3
  401c59:	xor    eax,eax
  401c5b:	mov    DWORD PTR [ecx],eax
  401c5d:	mov    eax,DWORD PTR [ecx]
  401c5f:	pop    edx
  401c60:	pop    ebx
  401c61:	ret    
  401c62:	mov    eax,eax
  401c64:	push   ebx
  401c65:	push   ecx
  401c66:	mov    ecx,edx
  401c68:	sub    ecx,0x4
  401c6b:	lea    ebx,[ecx+eax*1]
  401c6e:	mov    DWORD PTR [esp],ebx
  401c71:	cmp    edx,0x10
  401c74:	jl     0x401c89
  401c76:	mov    edx,DWORD PTR [esp]
  401c79:	mov    DWORD PTR [edx],0x80000007
  401c7f:	mov    edx,ecx
  401c81:	call   0x401e60
  401c86:	pop    edx
  401c87:	pop    ebx
  401c88:	ret    
  401c89:	cmp    edx,0x4
  401c8c:	jl     0x401c9d
  401c8e:	mov    ecx,edx
  401c90:	or     ecx,0x80000002
  401c96:	mov    DWORD PTR [eax],ecx
  401c98:	mov    eax,DWORD PTR [esp]
  401c9b:	mov    DWORD PTR [eax],ecx
  401c9d:	pop    edx
  401c9e:	pop    ebx
  401c9f:	ret    
  401ca0:	inc    DWORD PTR ds:0x40b5ac
  401ca6:	mov    edx,eax
  401ca8:	sub    edx,0x4
  401cab:	mov    edx,DWORD PTR [edx]
  401cad:	and    edx,0x7ffffffc
  401cb3:	sub    edx,0x4
  401cb6:	add    DWORD PTR ds:0x40b5b0,edx
  401cbc:	call   0x4023bc
  401cc1:	ret    
  401cc2:	mov    eax,eax
  401cc4:	cmp    edx,0xc
  401cc7:	jl     0x401cd7
  401cc9:	or     edx,0x2
  401ccc:	mov    DWORD PTR [eax],edx
  401cce:	add    eax,0x4
  401cd1:	call   0x401ca0
  401cd6:	ret    
  401cd7:	cmp    edx,0x4
  401cda:	jl     0x401ce6
  401cdc:	mov    ecx,edx
  401cde:	or     ecx,0x80000002
  401ce4:	mov    DWORD PTR [eax],ecx
  401ce6:	add    eax,edx
  401ce8:	and    DWORD PTR [eax],0xfffffffe
  401ceb:	ret    
  401cec:	push   ebx
  401ced:	push   esi
  401cee:	push   ecx
  401cef:	mov    edx,eax
  401cf1:	sub    edx,0x4
  401cf4:	mov    edx,DWORD PTR [edx]
  401cf6:	mov    ecx,edx
  401cf8:	and    ecx,0x80000002
  401cfe:	cmp    ecx,0x80000002
  401d04:	je     0x401d10
  401d06:	mov    DWORD PTR ds:0x40b5c0,0x4
  401d10:	mov    ebx,edx
  401d12:	and    ebx,0x7ffffffc
  401d18:	sub    eax,ebx
  401d1a:	mov    ecx,eax
  401d1c:	xor    edx,DWORD PTR [ecx]
  401d1e:	test   edx,0xfffffffe
  401d24:	je     0x401d30
  401d26:	mov    DWORD PTR ds:0x40b5c0,0x5
  401d30:	test   BYTE PTR [ecx],0x1
  401d33:	je     0x401d5e
  401d35:	mov    edx,eax
  401d37:	sub    edx,0xc
  401d3a:	mov    esi,DWORD PTR [edx+0x8]
  401d3d:	sub    eax,esi
  401d3f:	mov    DWORD PTR [esp],eax
  401d42:	mov    eax,DWORD PTR [esp]
  401d45:	cmp    esi,DWORD PTR [eax+0x8]
  401d48:	je     0x401d54
  401d4a:	mov    DWORD PTR ds:0x40b5c0,0x6
  401d54:	mov    eax,DWORD PTR [esp]
  401d57:	call   0x401b8c
  401d5c:	add    ebx,esi
  401d5e:	mov    eax,ebx
  401d60:	pop    edx
  401d61:	pop    esi
  401d62:	pop    ebx
  401d63:	ret    
  401d64:	push   ebx
  401d65:	push   esi
  401d66:	push   ecx
  401d67:	mov    ebx,eax
  401d69:	xor    esi,esi
  401d6b:	mov    eax,DWORD PTR [ebx]
  401d6d:	test   eax,0x80000000
  401d72:	je     0x401d7f
  401d74:	and    eax,0x7ffffffc
  401d79:	add    esi,eax
  401d7b:	add    ebx,eax
  401d7d:	mov    eax,DWORD PTR [ebx]
  401d7f:	test   al,0x2
  401d81:	jne    0x401d9b
  401d83:	mov    DWORD PTR [esp],ebx
  401d86:	mov    eax,DWORD PTR [esp]
  401d89:	call   0x401b8c
  401d8e:	mov    eax,DWORD PTR [esp]
  401d91:	mov    eax,DWORD PTR [eax+0x8]
  401d94:	add    esi,eax
  401d96:	add    ebx,eax
  401d98:	and    DWORD PTR [ebx],0xfffffffe
  401d9b:	mov    eax,esi
  401d9d:	pop    edx
  401d9e:	pop    esi
  401d9f:	pop    ebx
  401da0:	ret    
  401da1:	lea    eax,[eax+0x0]
  401da4:	push   ebx
  401da5:	push   esi
  401da6:	push   edi
  401da7:	push   ebp
  401da8:	add    esp,0xfffffff4
  401dab:	mov    esi,edx
  401dad:	mov    ebp,eax
  401daf:	xor    ebx,ebx
  401db1:	mov    eax,ebp
  401db3:	call   0x401c20
  401db8:	mov    DWORD PTR [esp+0x8],eax
  401dbc:	cmp    DWORD PTR [esp+0x8],0x0
  401dc1:	je     0x401e56
  401dc7:	mov    eax,DWORD PTR [esp+0x8]
  401dcb:	mov    edi,DWORD PTR [eax+0x8]
  401dce:	mov    eax,edi
  401dd0:	mov    edx,DWORD PTR [esp+0x8]
  401dd4:	add    eax,DWORD PTR [edx+0xc]
  401dd7:	mov    edx,eax
  401dd9:	lea    ecx,[esi+ebp*1]
  401ddc:	sub    edx,ecx
  401dde:	cmp    edx,0xc
  401de1:	jg     0x401de7
  401de3:	mov    esi,eax
  401de5:	sub    esi,ebp
  401de7:	mov    eax,ebp
  401de9:	sub    eax,edi
  401deb:	cmp    eax,0xc
  401dee:	jge    0x401e06
  401df0:	mov    eax,DWORD PTR [esp+0x8]
  401df4:	mov    edx,ebp
  401df6:	sub    edx,DWORD PTR [eax+0x8]
  401df9:	add    edx,esi
  401dfb:	mov    ecx,esp
  401dfd:	mov    eax,edi
  401dff:	call   0x401920
  401e04:	jmp    0x401e15
  401e06:	mov    ecx,esp
  401e08:	mov    edx,esi
  401e0a:	sub    edx,0x4
  401e0d:	lea    eax,[ebp+0x4]
  401e10:	call   0x401920
  401e15:	mov    edi,DWORD PTR [esp]
  401e18:	test   edi,edi
  401e1a:	je     0x401e56
  401e1c:	mov    edx,edi
  401e1e:	sub    edx,ebp
  401e20:	mov    eax,ebp
  401e22:	call   0x401c64
  401e27:	mov    edx,DWORD PTR [esp+0x8]
  401e2b:	mov    edx,DWORD PTR [edx+0x8]
  401e2e:	mov    ecx,DWORD PTR [esp+0x8]
  401e32:	add    edx,DWORD PTR [ecx+0xc]
  401e35:	mov    eax,edi
  401e37:	add    eax,DWORD PTR [esp+0x4]
  401e3b:	cmp    edx,eax
  401e3d:	jbe    0x401e49
  401e3f:	lea    edx,[esi+ebp*1]
  401e42:	sub    edx,eax
  401e44:	call   0x401cc4
  401e49:	mov    edx,esp
  401e4b:	mov    eax,DWORD PTR [esp+0x8]
  401e4f:	call   0x401350
  401e54:	mov    bl,0x1
  401e56:	mov    eax,ebx
  401e58:	add    esp,0xc
  401e5b:	pop    ebp
  401e5c:	pop    edi
  401e5d:	pop    esi
  401e5e:	pop    ebx
  401e5f:	ret    
  401e60:	push   ebx
  401e61:	push   esi
  401e62:	add    esp,0xfffffff4
  401e65:	mov    ebx,edx
  401e67:	mov    esi,eax
  401e69:	mov    DWORD PTR [esp],esi
  401e6c:	mov    eax,DWORD PTR [esp]
  401e6f:	mov    DWORD PTR [eax+0x8],ebx
  401e72:	mov    eax,DWORD PTR [esp]
  401e75:	add    eax,ebx
  401e77:	sub    eax,0xc
  401e7a:	mov    DWORD PTR [eax+0x8],ebx
  401e7d:	cmp    ebx,0x1000
  401e83:	jg     0x401efb
  401e85:	mov    eax,ebx
  401e87:	test   eax,eax
  401e89:	jns    0x401e8e
  401e8b:	add    eax,0x3
  401e8e:	sar    eax,0x2
  401e91:	mov    edx,DWORD PTR ds:0x40b61c
  401e97:	mov    edx,DWORD PTR [edx+eax*4-0xc]
  401e9b:	mov    DWORD PTR [esp+0x4],edx
  401e9f:	cmp    DWORD PTR [esp+0x4],0x0
  401ea4:	jne    0x401ec9
  401ea6:	mov    edx,DWORD PTR ds:0x40b61c
  401eac:	mov    ecx,DWORD PTR [esp]
  401eaf:	mov    DWORD PTR [edx+eax*4-0xc],ecx
  401eb3:	mov    eax,DWORD PTR [esp]
  401eb6:	mov    edx,DWORD PTR [esp]
  401eb9:	mov    DWORD PTR [eax+0x4],edx
  401ebc:	mov    eax,DWORD PTR [esp]
  401ebf:	mov    edx,DWORD PTR [esp]
  401ec2:	mov    DWORD PTR [eax],edx
  401ec4:	jmp    0x401f51
  401ec9:	mov    eax,DWORD PTR [esp+0x4]
  401ecd:	mov    eax,DWORD PTR [eax]
  401ecf:	mov    DWORD PTR [esp+0x8],eax
  401ed3:	mov    eax,DWORD PTR [esp]
  401ed6:	mov    edx,DWORD PTR [esp+0x4]
  401eda:	mov    DWORD PTR [eax+0x4],edx
  401edd:	mov    eax,DWORD PTR [esp]
  401ee0:	mov    edx,DWORD PTR [esp+0x8]
  401ee4:	mov    DWORD PTR [eax],edx
  401ee6:	mov    eax,DWORD PTR [esp+0x4]
  401eea:	mov    edx,DWORD PTR [esp]
  401eed:	mov    DWORD PTR [eax],edx
  401eef:	mov    eax,DWORD PTR [esp+0x8]
  401ef3:	mov    edx,DWORD PTR [esp]
  401ef6:	mov    DWORD PTR [eax+0x4],edx
  401ef9:	jmp    0x401f51
  401efb:	cmp    ebx,0x3c00
  401f01:	jl     0x401f10
  401f03:	mov    edx,ebx
  401f05:	mov    eax,esi
  401f07:	call   0x401da4
  401f0c:	test   al,al
  401f0e:	jne    0x401f51
  401f10:	mov    eax,ds:0x40b610
  401f15:	mov    DWORD PTR [esp+0x4],eax
  401f19:	mov    eax,DWORD PTR [esp]
  401f1c:	mov    ds:0x40b610,eax
  401f21:	mov    eax,DWORD PTR [esp+0x4]
  401f25:	mov    eax,DWORD PTR [eax]
  401f27:	mov    DWORD PTR [esp+0x8],eax
  401f2b:	mov    eax,DWORD PTR [esp]
  401f2e:	mov    edx,DWORD PTR [esp+0x4]
  401f32:	mov    DWORD PTR [eax+0x4],edx
  401f35:	mov    eax,DWORD PTR [esp]
  401f38:	mov    edx,DWORD PTR [esp+0x8]
  401f3c:	mov    DWORD PTR [eax],edx
  401f3e:	mov    eax,DWORD PTR [esp+0x4]
  401f42:	mov    edx,DWORD PTR [esp]
  401f45:	mov    DWORD PTR [eax],edx
  401f47:	mov    eax,DWORD PTR [esp+0x8]
  401f4b:	mov    edx,DWORD PTR [esp]
  401f4e:	mov    DWORD PTR [eax+0x4],edx
  401f51:	add    esp,0xc
  401f54:	pop    esi
  401f55:	pop    ebx
  401f56:	ret    
  401f57:	nop
  401f58:	cmp    DWORD PTR ds:0x40b614,0x0
  401f5f:	jle    0x401fa1
  401f61:	cmp    DWORD PTR ds:0x40b614,0xc
  401f68:	jge    0x401f76
  401f6a:	mov    DWORD PTR ds:0x40b5c0,0x7
  401f74:	jmp    0x401fa1
  401f76:	mov    eax,ds:0x40b614
  401f7b:	or     eax,0x2
  401f7e:	mov    edx,DWORD PTR ds:0x40b618
  401f84:	mov    DWORD PTR [edx],eax
  401f86:	mov    eax,ds:0x40b618
  401f8b:	add    eax,0x4
  401f8e:	call   0x401ca0
  401f93:	xor    eax,eax
  401f95:	mov    ds:0x40b618,eax
  401f9a:	xor    eax,eax
  401f9c:	mov    ds:0x40b614,eax
  401fa1:	ret    
  401fa2:	mov    eax,eax
  401fa4:	push   ebx
  401fa5:	push   esi
  401fa6:	push   edi
  401fa7:	add    esp,0xfffffff0
  401faa:	mov    esi,eax
  401fac:	lea    edi,[esp]
  401faf:	movs   DWORD PTR es:[edi],DWORD PTR ds:[esi]
  401fb0:	movs   DWORD PTR es:[edi],DWORD PTR ds:[esi]
  401fb1:	mov    edi,esp
  401fb3:	call   0x401f58
  401fb8:	lea    ecx,[esp+0x8]
  401fbc:	mov    edx,edi
  401fbe:	mov    eax,0x40b620
  401fc3:	call   0x4012c8
  401fc8:	mov    ebx,DWORD PTR [esp+0x8]
  401fcc:	test   ebx,ebx
  401fce:	jne    0x401fd4
  401fd0:	xor    eax,eax
  401fd2:	jmp    0x402026
  401fd4:	mov    eax,DWORD PTR [edi]
  401fd6:	cmp    ebx,eax
  401fd8:	jae    0x401fe4
  401fda:	call   0x401cec
  401fdf:	sub    DWORD PTR [edi],eax
  401fe1:	add    DWORD PTR [edi+0x4],eax
  401fe4:	mov    eax,DWORD PTR [edi]
  401fe6:	add    eax,DWORD PTR [edi+0x4]
  401fe9:	mov    esi,ebx
  401feb:	add    esi,DWORD PTR [esp+0xc]
  401fef:	cmp    eax,esi
  401ff1:	jae    0x401ffb
  401ff3:	call   0x401d64
  401ff8:	add    DWORD PTR [edi+0x4],eax
  401ffb:	mov    eax,DWORD PTR [edi]
  401ffd:	add    eax,DWORD PTR [edi+0x4]
  402000:	cmp    esi,eax
  402002:	jne    0x402015
  402004:	sub    eax,0x4
  402007:	mov    edx,0x4
  40200c:	call   0x401c64
  402011:	sub    DWORD PTR [edi+0x4],0x4
  402015:	mov    eax,DWORD PTR [edi]
  402017:	mov    ds:0x40b618,eax
  40201c:	mov    eax,DWORD PTR [edi+0x4]
  40201f:	mov    ds:0x40b614,eax
  402024:	mov    al,0x1
  402026:	add    esp,0x10
  402029:	pop    edi
  40202a:	pop    esi
  40202b:	pop    ebx
  40202c:	ret    
  40202d:	lea    eax,[eax+0x0]
  402030:	push   ebx
  402031:	add    esp,0xfffffff8
  402034:	mov    ebx,eax
  402036:	mov    edx,esp
  402038:	lea    eax,[ebx+0x4]
  40203b:	call   0x401734
  402040:	cmp    DWORD PTR [esp],0x0
  402044:	je     0x402051
  402046:	mov    eax,esp
  402048:	call   0x401fa4
  40204d:	test   al,al
  40204f:	jne    0x402055
  402051:	xor    eax,eax
  402053:	jmp    0x402057
  402055:	mov    al,0x1
  402057:	pop    ecx
  402058:	pop    edx
  402059:	pop    ebx
  40205a:	ret    
  40205b:	nop
  40205c:	push   ebx
  40205d:	push   esi
  40205e:	add    esp,0xfffffff8
  402061:	mov    esi,edx
  402063:	mov    ebx,eax
  402065:	mov    ecx,esp
  402067:	lea    edx,[esi+0x4]
  40206a:	mov    eax,ebx
  40206c:	call   0x4017dc
  402071:	cmp    DWORD PTR [esp],0x0
  402075:	je     0x402082
  402077:	mov    eax,esp
  402079:	call   0x401fa4
  40207e:	test   al,al
  402080:	jne    0x402086
  402082:	xor    eax,eax
  402084:	jmp    0x402088
  402086:	mov    al,0x1
  402088:	pop    ecx
  402089:	pop    edx
  40208a:	pop    esi
  40208b:	pop    ebx
  40208c:	ret    
  40208d:	lea    eax,[eax+0x0]
  402090:	push   ecx
  402091:	mov    edx,esp
  402093:	xor    ecx,ecx
  402095:	mov    DWORD PTR [edx],ecx
  402097:	test   eax,eax
  402099:	jns    0x40209e
  40209b:	add    eax,0x3
  40209e:	sar    eax,0x2
  4020a1:	cmp    eax,0x400
  4020a6:	jg     0x4020c1
  4020a8:	mov    ecx,DWORD PTR ds:0x40b61c
  4020ae:	mov    ecx,DWORD PTR [ecx+eax*4-0xc]
  4020b2:	mov    DWORD PTR [edx],ecx
  4020b4:	cmp    DWORD PTR [edx],0x0
  4020b7:	jne    0x4020c1
  4020b9:	inc    eax
  4020ba:	cmp    eax,0x401
  4020bf:	jne    0x4020a8
  4020c1:	mov    eax,DWORD PTR [edx]
  4020c3:	pop    edx
  4020c4:	ret    
  4020c5:	lea    eax,[eax+0x0]
  4020c8:	push   ebx
  4020c9:	push   esi
  4020ca:	push   edi
  4020cb:	push   ebp
  4020cc:	add    esp,0xfffffff4
  4020cf:	mov    ebx,eax
  4020d1:	lea    esi,[esp+0x8]
  4020d5:	mov    edi,0x40b610
  4020da:	mov    ebp,0x40b614
  4020df:	mov    eax,ds:0x40b608
  4020e4:	mov    DWORD PTR [esi],eax
  4020e6:	mov    eax,DWORD PTR [esi]
  4020e8:	cmp    ebx,DWORD PTR [eax+0x8]
  4020eb:	jle    0x40219c
  4020f1:	mov    eax,DWORD PTR [edi]
  4020f3:	mov    DWORD PTR [esi],eax
  4020f5:	mov    eax,DWORD PTR [esi]
  4020f7:	mov    eax,DWORD PTR [eax+0x8]
  4020fa:	cmp    ebx,eax
  4020fc:	jle    0x40219c
  402102:	mov    edx,DWORD PTR [esi]
  402104:	mov    DWORD PTR [edx+0x8],ebx
  402107:	mov    edx,DWORD PTR [esi]
  402109:	mov    edx,DWORD PTR [edx+0x4]
  40210c:	mov    DWORD PTR [esi],edx
  40210e:	mov    edx,DWORD PTR [esi]
  402110:	cmp    ebx,DWORD PTR [edx+0x8]
  402113:	jg     0x402107
  402115:	mov    edx,DWORD PTR [edi]
  402117:	mov    DWORD PTR [edx+0x8],eax
  40211a:	mov    eax,DWORD PTR [esi]
  40211c:	cmp    eax,DWORD PTR [edi]
  40211e:	je     0x402126
  402120:	mov    eax,DWORD PTR [esi]
  402122:	mov    DWORD PTR [edi],eax
  402124:	jmp    0x40219c
  402126:	cmp    ebx,0x1000
  40212c:	jg     0x40213c
  40212e:	mov    eax,ebx
  402130:	call   0x402090
  402135:	mov    DWORD PTR [esi],eax
  402137:	cmp    DWORD PTR [esi],0x0
  40213a:	jne    0x40219c
  40213c:	mov    eax,ebx
  40213e:	call   0x402030
  402143:	test   al,al
  402145:	jne    0x402151
  402147:	xor    eax,eax
  402149:	mov    DWORD PTR [esp],eax
  40214c:	jmp    0x402205
  402151:	cmp    ebx,DWORD PTR [ebp+0x0]
  402154:	jg     0x4020df
  402156:	sub    DWORD PTR [ebp+0x0],ebx
  402159:	cmp    DWORD PTR [ebp+0x0],0xc
  40215d:	jge    0x402167
  40215f:	add    ebx,DWORD PTR [ebp+0x0]
  402162:	xor    eax,eax
  402164:	mov    DWORD PTR [ebp+0x0],eax
  402167:	mov    eax,ds:0x40b618
  40216c:	mov    DWORD PTR [esp+0x4],eax
  402170:	add    DWORD PTR ds:0x40b618,ebx
  402176:	mov    eax,ebx
  402178:	or     eax,0x2
  40217b:	mov    edx,DWORD PTR [esp+0x4]
  40217f:	mov    DWORD PTR [edx],eax
  402181:	mov    eax,DWORD PTR [esp+0x4]
  402185:	add    eax,0x4
  402188:	mov    DWORD PTR [esp],eax
  40218b:	inc    DWORD PTR ds:0x40b5ac
  402191:	sub    ebx,0x4
  402194:	add    DWORD PTR ds:0x40b5b0,ebx
  40219a:	jmp    0x402205
  40219c:	mov    eax,DWORD PTR [esi]
  40219e:	call   0x401b8c
  4021a3:	mov    eax,DWORD PTR [esi]
  4021a5:	mov    edx,DWORD PTR [eax+0x8]
  4021a8:	mov    eax,edx
  4021aa:	sub    eax,ebx
  4021ac:	cmp    eax,0xc
  4021af:	jl     0x4021bd
  4021b1:	mov    edx,DWORD PTR [esi]
  4021b3:	add    edx,ebx
  4021b5:	xchg   edx,eax
  4021b6:	call   0x401e60
  4021bb:	jmp    0x4021db
  4021bd:	mov    ebx,edx
  4021bf:	mov    eax,DWORD PTR [esi]
  4021c1:	cmp    eax,DWORD PTR [edi]
  4021c3:	jne    0x4021cc
  4021c5:	mov    eax,DWORD PTR [esi]
  4021c7:	mov    eax,DWORD PTR [eax+0x4]
  4021ca:	mov    DWORD PTR [edi],eax
  4021cc:	mov    eax,DWORD PTR [esi]
  4021ce:	add    eax,ebx
  4021d0:	mov    DWORD PTR [esp+0x4],eax
  4021d4:	mov    eax,DWORD PTR [esp+0x4]
  4021d8:	and    DWORD PTR [eax],0xfffffffe
  4021db:	mov    eax,DWORD PTR [esi]
  4021dd:	mov    DWORD PTR [esp+0x4],eax
  4021e1:	mov    eax,ebx
  4021e3:	or     eax,0x2
  4021e6:	mov    edx,DWORD PTR [esp+0x4]
  4021ea:	mov    DWORD PTR [edx],eax
  4021ec:	mov    eax,DWORD PTR [esp+0x4]
  4021f0:	add    eax,0x4
  4021f3:	mov    DWORD PTR [esp],eax
  4021f6:	inc    DWORD PTR ds:0x40b5ac
  4021fc:	sub    ebx,0x4
  4021ff:	add    DWORD PTR ds:0x40b5b0,ebx
  402205:	mov    eax,DWORD PTR [esp]
  402208:	add    esp,0xc
  40220b:	pop    ebp
  40220c:	pop    edi
  40220d:	pop    esi
  40220e:	pop    ebx
  40220f:	ret    
  402210:	push   ebp
  402211:	mov    ebp,esp
  402213:	add    esp,0xffffffec
  402216:	push   ebx
  402217:	mov    ebx,eax
  402219:	cmp    BYTE PTR ds:0x40b5bc,0x0
  402220:	jne    0x40222b
  402222:	call   0x4019b4
  402227:	test   al,al
  402229:	je     0x402233
  40222b:	cmp    ebx,0x7ffffff8
  402231:	jle    0x40223d
  402233:	xor    eax,eax
  402235:	mov    DWORD PTR [ebp-0x4],eax
  402238:	jmp    0x4023b3
  40223d:	xor    edx,edx
  40223f:	push   ebp
  402240:	push   0x4023ac
  402245:	push   DWORD PTR fs:[edx]
  402248:	mov    DWORD PTR fs:[edx],esp
  40224b:	cmp    BYTE PTR ds:0x40b045,0x0
  402252:	je     0x40225e
  402254:	push   0x40b5c4
  402259:	call   0x401194
  40225e:	add    ebx,0x7
  402261:	and    ebx,0xfffffffc
  402264:	cmp    ebx,0xc
  402267:	jge    0x40226e
  402269:	mov    ebx,0xc
  40226e:	cmp    ebx,0x1000
  402274:	jg     0x402326
  40227a:	mov    eax,ebx
  40227c:	test   eax,eax
  40227e:	jns    0x402283
  402280:	add    eax,0x3
  402283:	sar    eax,0x2
  402286:	mov    edx,DWORD PTR ds:0x40b61c
  40228c:	mov    edx,DWORD PTR [edx+eax*4-0xc]
  402290:	mov    DWORD PTR [ebp-0x8],edx
  402293:	cmp    DWORD PTR [ebp-0x8],0x0
  402297:	je     0x402326
  40229d:	mov    edx,DWORD PTR [ebp-0x8]
  4022a0:	add    edx,ebx
  4022a2:	mov    DWORD PTR [ebp-0x14],edx
  4022a5:	mov    edx,DWORD PTR [ebp-0x14]
  4022a8:	and    DWORD PTR [edx],0xfffffffe
  4022ab:	mov    edx,DWORD PTR [ebp-0x8]
  4022ae:	mov    edx,DWORD PTR [edx+0x4]
  4022b1:	mov    DWORD PTR [ebp-0x10],edx
  4022b4:	mov    edx,DWORD PTR [ebp-0x10]
  4022b7:	cmp    edx,DWORD PTR [ebp-0x8]
  4022ba:	jne    0x4022ca
  4022bc:	mov    edx,DWORD PTR ds:0x40b61c
  4022c2:	xor    ecx,ecx
  4022c4:	mov    DWORD PTR [edx+eax*4-0xc],ecx
  4022c8:	jmp    0x4022f0
  4022ca:	mov    edx,DWORD PTR ds:0x40b61c
  4022d0:	mov    ecx,DWORD PTR [ebp-0x10]
  4022d3:	mov    DWORD PTR [edx+eax*4-0xc],ecx
  4022d7:	mov    eax,DWORD PTR [ebp-0x8]
  4022da:	mov    eax,DWORD PTR [eax]
  4022dc:	mov    DWORD PTR [ebp-0xc],eax
  4022df:	mov    eax,DWORD PTR [ebp-0xc]
  4022e2:	mov    edx,DWORD PTR [ebp-0x10]
  4022e5:	mov    DWORD PTR [eax+0x4],edx
  4022e8:	mov    eax,DWORD PTR [ebp-0x10]
  4022eb:	mov    edx,DWORD PTR [ebp-0xc]
  4022ee:	mov    DWORD PTR [eax],edx
  4022f0:	mov    eax,DWORD PTR [ebp-0x8]
  4022f3:	mov    DWORD PTR [ebp-0x14],eax
  4022f6:	mov    eax,DWORD PTR [ebp-0x8]
  4022f9:	mov    eax,DWORD PTR [eax+0x8]
  4022fc:	or     eax,0x2
  4022ff:	mov    edx,DWORD PTR [ebp-0x14]
  402302:	mov    DWORD PTR [edx],eax
  402304:	mov    eax,DWORD PTR [ebp-0x14]
  402307:	add    eax,0x4
  40230a:	mov    DWORD PTR [ebp-0x4],eax
  40230d:	inc    DWORD PTR ds:0x40b5ac
  402313:	sub    ebx,0x4
  402316:	add    DWORD PTR ds:0x40b5b0,ebx
  40231c:	call   0x4034d8
  402321:	jmp    0x4023b3
  402326:	cmp    ebx,DWORD PTR ds:0x40b614
  40232c:	jg     0x402381
  40232e:	sub    DWORD PTR ds:0x40b614,ebx
  402334:	cmp    DWORD PTR ds:0x40b614,0xc
  40233b:	jge    0x40234a
  40233d:	add    ebx,DWORD PTR ds:0x40b614
  402343:	xor    eax,eax
  402345:	mov    ds:0x40b614,eax
  40234a:	mov    eax,ds:0x40b618
  40234f:	mov    DWORD PTR [ebp-0x14],eax
  402352:	add    DWORD PTR ds:0x40b618,ebx
  402358:	mov    eax,ebx
  40235a:	or     eax,0x2
  40235d:	mov    edx,DWORD PTR [ebp-0x14]
  402360:	mov    DWORD PTR [edx],eax
  402362:	mov    eax,DWORD PTR [ebp-0x14]
  402365:	add    eax,0x4
  402368:	mov    DWORD PTR [ebp-0x4],eax
  40236b:	inc    DWORD PTR ds:0x40b5ac
  402371:	sub    ebx,0x4
  402374:	add    DWORD PTR ds:0x40b5b0,ebx
  40237a:	call   0x4034d8
  40237f:	jmp    0x4023b3
  402381:	mov    eax,ebx
  402383:	call   0x4020c8
  402388:	mov    DWORD PTR [ebp-0x4],eax
  40238b:	xor    eax,eax
  40238d:	pop    edx
  40238e:	pop    ecx
  40238f:	pop    ecx
  402390:	mov    DWORD PTR fs:[eax],edx
  402393:	push   0x4023b3
  402398:	cmp    BYTE PTR ds:0x40b045,0x0
  40239f:	je     0x4023ab
  4023a1:	push   0x40b5c4
  4023a6:	call   0x40119c
  4023ab:	ret    
  4023ac:	jmp    0x4033f4
  4023b1:	jmp    0x402398
  4023b3:	mov    eax,DWORD PTR [ebp-0x4]
  4023b6:	pop    ebx
  4023b7:	mov    esp,ebp
  4023b9:	pop    ebp
  4023ba:	ret    
  4023bb:	nop
  4023bc:	push   ebp
  4023bd:	mov    ebp,esp
  4023bf:	add    esp,0xfffffff0
  4023c2:	push   ebx
  4023c3:	mov    ebx,eax
  4023c5:	xor    eax,eax
  4023c7:	mov    ds:0x40b5c0,eax
  4023cc:	cmp    BYTE PTR ds:0x40b5bc,0x0
  4023d3:	jne    0x4023f4
  4023d5:	call   0x4019b4
  4023da:	test   al,al
  4023dc:	jne    0x4023f4
  4023de:	mov    DWORD PTR ds:0x40b5c0,0x8
  4023e8:	mov    DWORD PTR [ebp-0x4],0x8
  4023ef:	jmp    0x40258a
  4023f4:	xor    edx,edx
  4023f6:	push   ebp
  4023f7:	push   0x402583
  4023fc:	push   DWORD PTR fs:[edx]
  4023ff:	mov    DWORD PTR fs:[edx],esp
  402402:	cmp    BYTE PTR ds:0x40b045,0x0
  402409:	je     0x402415
  40240b:	push   0x40b5c4
  402410:	call   0x401194
  402415:	mov    DWORD PTR [ebp-0x8],ebx
  402418:	mov    eax,DWORD PTR [ebp-0x8]
  40241b:	sub    eax,0x4
  40241e:	mov    DWORD PTR [ebp-0x8],eax
  402421:	mov    eax,DWORD PTR [ebp-0x8]
  402424:	mov    ebx,DWORD PTR [eax]
  402426:	test   bl,0x2
  402429:	jne    0x40243a
  40242b:	mov    DWORD PTR ds:0x40b5c0,0x9
  402435:	jmp    0x40255a
  40243a:	dec    DWORD PTR ds:0x40b5ac
  402440:	mov    eax,ebx
  402442:	and    eax,0x7ffffffc
  402447:	sub    eax,0x4
  40244a:	sub    DWORD PTR ds:0x40b5b0,eax
  402450:	test   bl,0x1
  402453:	je     0x4024a8
  402455:	mov    eax,DWORD PTR [ebp-0x8]
  402458:	sub    eax,0xc
  40245b:	mov    eax,DWORD PTR [eax+0x8]
  40245e:	cmp    eax,0xc
  402461:	jl     0x40246a
  402463:	test   eax,0x80000003
  402468:	je     0x402479
  40246a:	mov    DWORD PTR ds:0x40b5c0,0xa
  402474:	jmp    0x40255a
  402479:	mov    edx,DWORD PTR [ebp-0x8]
  40247c:	sub    edx,eax
  40247e:	mov    DWORD PTR [ebp-0x10],edx
  402481:	mov    edx,DWORD PTR [ebp-0x10]
  402484:	cmp    eax,DWORD PTR [edx+0x8]
  402487:	je     0x402498
  402489:	mov    DWORD PTR ds:0x40b5c0,0xa
  402493:	jmp    0x40255a
  402498:	add    ebx,eax
  40249a:	mov    eax,DWORD PTR [ebp-0x10]
  40249d:	mov    DWORD PTR [ebp-0x8],eax
  4024a0:	mov    eax,DWORD PTR [ebp-0x10]
  4024a3:	call   0x401b8c
  4024a8:	and    ebx,0x7ffffffc
  4024ae:	mov    eax,DWORD PTR [ebp-0x8]
  4024b1:	add    eax,ebx
  4024b3:	mov    DWORD PTR [ebp-0xc],eax
  4024b6:	mov    eax,DWORD PTR [ebp-0xc]
  4024b9:	cmp    eax,DWORD PTR ds:0x40b618
  4024bf:	jne    0x4024ed
  4024c1:	sub    DWORD PTR ds:0x40b618,ebx
  4024c7:	add    DWORD PTR ds:0x40b614,ebx
  4024cd:	cmp    DWORD PTR ds:0x40b614,0x3c00
  4024d7:	jle    0x4024de
  4024d9:	call   0x401f58
  4024de:	xor    eax,eax
  4024e0:	mov    DWORD PTR [ebp-0x4],eax
  4024e3:	call   0x4034d8
  4024e8:	jmp    0x40258a
  4024ed:	mov    eax,DWORD PTR [ebp-0xc]
  4024f0:	mov    eax,DWORD PTR [eax]
  4024f2:	test   al,0x2
  4024f4:	je     0x402514
  4024f6:	and    eax,0x7ffffffc
  4024fb:	cmp    eax,0x4
  4024fe:	jge    0x40250c
  402500:	mov    DWORD PTR ds:0x40b5c0,0xb
  40250a:	jmp    0x40255a
  40250c:	mov    eax,DWORD PTR [ebp-0xc]
  40250f:	or     DWORD PTR [eax],0x1
  402512:	jmp    0x402550
  402514:	mov    eax,DWORD PTR [ebp-0xc]
  402517:	mov    DWORD PTR [ebp-0x10],eax
  40251a:	mov    eax,DWORD PTR [ebp-0x10]
  40251d:	cmp    DWORD PTR [eax+0x4],0x0
  402521:	je     0x402534
  402523:	mov    eax,DWORD PTR [ebp-0x10]
  402526:	cmp    DWORD PTR [eax],0x0
  402529:	je     0x402534
  40252b:	mov    eax,DWORD PTR [ebp-0x10]
  40252e:	cmp    DWORD PTR [eax+0x8],0xc
  402532:	jge    0x402540
  402534:	mov    DWORD PTR ds:0x40b5c0,0xb
  40253e:	jmp    0x40255a
  402540:	mov    eax,DWORD PTR [ebp-0x10]
  402543:	mov    eax,DWORD PTR [eax+0x8]
  402546:	add    ebx,eax
  402548:	mov    eax,DWORD PTR [ebp-0x10]
  40254b:	call   0x401b8c
  402550:	mov    edx,ebx
  402552:	mov    eax,DWORD PTR [ebp-0x8]
  402555:	call   0x401e60
  40255a:	mov    eax,ds:0x40b5c0
  40255f:	mov    DWORD PTR [ebp-0x4],eax
  402562:	xor    eax,eax
  402564:	pop    edx
  402565:	pop    ecx
  402566:	pop    ecx
  402567:	mov    DWORD PTR fs:[eax],edx
  40256a:	push   0x40258a
  40256f:	cmp    BYTE PTR ds:0x40b045,0x0
  402576:	je     0x402582
  402578:	push   0x40b5c4
  40257d:	call   0x40119c
  402582:	ret    
  402583:	jmp    0x4033f4
  402588:	jmp    0x40256f
  40258a:	mov    eax,DWORD PTR [ebp-0x4]
  40258d:	pop    ebx
  40258e:	mov    esp,ebp
  402590:	pop    ebp
  402591:	ret    
  402592:	mov    eax,eax
  402594:	push   ebx
  402595:	push   esi
  402596:	push   edi
  402597:	push   ebp
  402598:	add    esp,0xfffffff4
  40259b:	mov    ebx,edx
  40259d:	add    ebx,0x7
  4025a0:	and    ebx,0xfffffffc
  4025a3:	cmp    ebx,0xc
  4025a6:	jge    0x4025ad
  4025a8:	mov    ebx,0xc
  4025ad:	sub    eax,0x4
  4025b0:	mov    DWORD PTR [esp],eax
  4025b3:	mov    eax,DWORD PTR [esp]
  4025b6:	mov    esi,DWORD PTR [eax]
  4025b8:	and    esi,0x7ffffffc
  4025be:	mov    eax,DWORD PTR [esp]
  4025c1:	add    eax,esi
  4025c3:	mov    DWORD PTR [esp+0x4],eax
  4025c7:	cmp    esi,ebx
  4025c9:	jne    0x4025d2
  4025cb:	mov    al,0x1
  4025cd:	jmp    0x40278f
  4025d2:	cmp    esi,ebx
  4025d4:	jle    0x40266a
  4025da:	mov    ebp,esi
  4025dc:	sub    ebp,ebx
  4025de:	mov    edx,DWORD PTR [esp+0x4]
  4025e2:	cmp    edx,DWORD PTR ds:0x40b618
  4025e8:	jne    0x402616
  4025ea:	sub    DWORD PTR ds:0x40b618,ebp
  4025f0:	add    DWORD PTR ds:0x40b614,ebp
  4025f6:	cmp    DWORD PTR ds:0x40b614,0xc
  4025fd:	jge    0x402772
  402603:	add    DWORD PTR ds:0x40b618,ebp
  402609:	sub    DWORD PTR ds:0x40b614,ebp
  40260f:	mov    ebx,esi
  402611:	jmp    0x402772
  402616:	mov    DWORD PTR [esp+0x4],eax
  40261a:	mov    eax,DWORD PTR [esp+0x4]
  40261e:	test   BYTE PTR [eax],0x2
  402621:	jne    0x40263b
  402623:	mov    eax,DWORD PTR [esp+0x4]
  402627:	mov    DWORD PTR [esp+0x8],eax
  40262b:	mov    eax,DWORD PTR [esp+0x8]
  40262f:	add    ebp,DWORD PTR [eax+0x8]
  402632:	mov    eax,DWORD PTR [esp+0x8]
  402636:	call   0x401b8c
  40263b:	cmp    ebp,0xc
  40263e:	jl     0x402663
  402640:	mov    eax,DWORD PTR [esp]
  402643:	add    eax,ebx
  402645:	mov    DWORD PTR [esp+0x4],eax
  402649:	or     ebp,0x2
  40264c:	mov    eax,DWORD PTR [esp+0x4]
  402650:	mov    DWORD PTR [eax],ebp
  402652:	mov    eax,DWORD PTR [esp+0x4]
  402656:	add    eax,0x4
  402659:	call   0x401ca0
  40265e:	jmp    0x402772
  402663:	mov    ebx,esi
  402665:	jmp    0x402772
  40266a:	mov    edi,ebx
  40266c:	sub    edi,esi
  40266e:	mov    eax,DWORD PTR [esp+0x4]
  402672:	cmp    eax,DWORD PTR ds:0x40b618
  402678:	jne    0x4026df
  40267a:	cmp    edi,DWORD PTR ds:0x40b614
  402680:	jg     0x4026d1
  402682:	sub    DWORD PTR ds:0x40b614,edi
  402688:	add    DWORD PTR ds:0x40b618,edi
  40268e:	cmp    DWORD PTR ds:0x40b614,0xc
  402695:	jge    0x4026af
  402697:	mov    eax,ds:0x40b614
  40269c:	add    DWORD PTR ds:0x40b618,eax
  4026a2:	add    ebx,DWORD PTR ds:0x40b614
  4026a8:	xor    eax,eax
  4026aa:	mov    ds:0x40b614,eax
  4026af:	mov    eax,ebx
  4026b1:	sub    eax,esi
  4026b3:	add    DWORD PTR ds:0x40b5b0,eax
  4026b9:	mov    eax,DWORD PTR [esp]
  4026bc:	mov    eax,DWORD PTR [eax]
  4026be:	and    eax,0x80000003
  4026c3:	or     ebx,eax
  4026c5:	mov    eax,DWORD PTR [esp]
  4026c8:	mov    DWORD PTR [eax],ebx
  4026ca:	mov    al,0x1
  4026cc:	jmp    0x40278f
  4026d1:	call   0x401f58
  4026d6:	mov    eax,DWORD PTR [esp]
  4026d9:	add    eax,esi
  4026db:	mov    DWORD PTR [esp+0x4],eax
  4026df:	mov    eax,DWORD PTR [esp+0x4]
  4026e3:	test   BYTE PTR [eax],0x2
  4026e6:	jne    0x402737
  4026e8:	mov    eax,DWORD PTR [esp+0x4]
  4026ec:	mov    DWORD PTR [esp+0x8],eax
  4026f0:	mov    edx,DWORD PTR [esp+0x8]
  4026f4:	mov    ebp,DWORD PTR [edx+0x8]
  4026f7:	cmp    edi,ebp
  4026f9:	jle    0x402705
  4026fb:	add    eax,ebp
  4026fd:	mov    DWORD PTR [esp+0x4],eax
  402701:	sub    edi,ebp
  402703:	jmp    0x402737
  402705:	mov    eax,DWORD PTR [esp+0x8]
  402709:	call   0x401b8c
  40270e:	sub    ebp,edi
  402710:	cmp    ebp,0xc
  402713:	jl     0x402723
  402715:	mov    eax,DWORD PTR [esp]
  402718:	add    eax,ebx
  40271a:	mov    edx,ebp
  40271c:	call   0x401e60
  402721:	jmp    0x402772
  402723:	add    ebx,ebp
  402725:	mov    eax,DWORD PTR [esp]
  402728:	add    eax,ebx
  40272a:	mov    DWORD PTR [esp+0x4],eax
  40272e:	mov    eax,DWORD PTR [esp+0x4]
  402732:	and    DWORD PTR [eax],0xfffffffe
  402735:	jmp    0x402772
  402737:	mov    eax,DWORD PTR [esp+0x4]
  40273b:	mov    eax,DWORD PTR [eax]
  40273d:	test   eax,0x80000000
  402742:	je     0x40276e
  402744:	and    eax,0x7ffffffc
  402749:	add    eax,DWORD PTR [esp+0x4]
  40274d:	mov    DWORD PTR [esp+0x4],eax
  402751:	mov    edx,edi
  402753:	mov    eax,DWORD PTR [esp+0x4]
  402757:	call   0x40205c
  40275c:	test   al,al
  40275e:	je     0x40276e
  402760:	mov    eax,DWORD PTR [esp]
  402763:	add    eax,esi
  402765:	mov    DWORD PTR [esp+0x4],eax
  402769:	jmp    0x40266a
  40276e:	xor    eax,eax
  402770:	jmp    0x40278f
  402772:	mov    eax,ebx
  402774:	sub    eax,esi
  402776:	add    DWORD PTR ds:0x40b5b0,eax
  40277c:	mov    eax,DWORD PTR [esp]
  40277f:	mov    eax,DWORD PTR [eax]
  402781:	and    eax,0x80000003
  402786:	or     ebx,eax
  402788:	mov    eax,DWORD PTR [esp]
  40278b:	mov    DWORD PTR [eax],ebx
  40278d:	mov    al,0x1
  40278f:	add    esp,0xc
  402792:	pop    ebp
  402793:	pop    edi
  402794:	pop    esi
  402795:	pop    ebx
  402796:	ret    
  402797:	nop
  402798:	push   ebp
  402799:	mov    ebp,esp
  40279b:	add    esp,0xfffffff8
  40279e:	push   ebx
  40279f:	push   esi
  4027a0:	mov    esi,edx
  4027a2:	mov    ebx,eax
  4027a4:	cmp    BYTE PTR ds:0x40b5bc,0x0
  4027ab:	jne    0x4027c0
  4027ad:	call   0x4019b4
  4027b2:	test   al,al
  4027b4:	jne    0x4027c0
  4027b6:	xor    eax,eax
  4027b8:	mov    DWORD PTR [ebp-0x4],eax
  4027bb:	jmp    0x402858
  4027c0:	xor    edx,edx
  4027c2:	push   ebp
  4027c3:	push   0x402851
  4027c8:	push   DWORD PTR fs:[edx]
  4027cb:	mov    DWORD PTR fs:[edx],esp
  4027ce:	cmp    BYTE PTR ds:0x40b045,0x0
  4027d5:	je     0x4027e1
  4027d7:	push   0x40b5c4
  4027dc:	call   0x401194
  4027e1:	mov    edx,esi
  4027e3:	mov    eax,ebx
  4027e5:	call   0x402594
  4027ea:	test   al,al
  4027ec:	je     0x4027f3
  4027ee:	mov    DWORD PTR [ebp-0x4],ebx
  4027f1:	jmp    0x402830
  4027f3:	mov    eax,esi
  4027f5:	call   0x402210
  4027fa:	mov    DWORD PTR [ebp-0x8],eax
  4027fd:	mov    eax,ebx
  4027ff:	sub    eax,0x4
  402802:	mov    eax,DWORD PTR [eax]
  402804:	and    eax,0x7ffffffc
  402809:	sub    eax,0x4
  40280c:	cmp    esi,eax
  40280e:	jge    0x402812
  402810:	mov    eax,esi
  402812:	cmp    DWORD PTR [ebp-0x8],0x0
  402816:	je     0x40282a
  402818:	mov    edx,DWORD PTR [ebp-0x8]
  40281b:	mov    ecx,ebx
  40281d:	xchg   ecx,eax
  40281e:	call   0x4029b8
  402823:	mov    eax,ebx
  402825:	call   0x4023bc
  40282a:	mov    eax,DWORD PTR [ebp-0x8]
  40282d:	mov    DWORD PTR [ebp-0x4],eax
  402830:	xor    eax,eax
  402832:	pop    edx
  402833:	pop    ecx
  402834:	pop    ecx
  402835:	mov    DWORD PTR fs:[eax],edx
  402838:	push   0x402858
  40283d:	cmp    BYTE PTR ds:0x40b045,0x0
  402844:	je     0x402850
  402846:	push   0x40b5c4
  40284b:	call   0x40119c
  402850:	ret    
  402851:	jmp    0x4033f4
  402856:	jmp    0x40283d
  402858:	mov    eax,DWORD PTR [ebp-0x4]
  40285b:	pop    esi
  40285c:	pop    ebx
  40285d:	pop    ecx
  40285e:	pop    ecx
  40285f:	pop    ebp
  402860:	ret    
  402861:	lea    eax,[eax+0x0]
  402864:	push   ebx
  402865:	push   ecx
  402866:	mov    ebx,eax
  402868:	test   ebx,ebx
  40286a:	jle    0x402886
  40286c:	mov    eax,ebx
  40286e:	call   DWORD PTR ds:0x40a02c
  402874:	mov    DWORD PTR [esp],eax
  402877:	cmp    DWORD PTR [esp],0x0
  40287b:	jne    0x40288b
  40287d:	mov    al,0x1
  40287f:	call   0x40295c
  402884:	jmp    0x40288b
  402886:	xor    eax,eax
  402888:	mov    DWORD PTR [esp],eax
  40288b:	mov    eax,DWORD PTR [esp]
  40288e:	pop    edx
  40288f:	pop    ebx
  402890:	ret    
  402891:	lea    eax,[eax+0x0]
  402894:	push   ebx
  402895:	test   eax,eax
  402897:	je     0x4028ae
  402899:	call   DWORD PTR ds:0x40a030
  40289f:	mov    ebx,eax
  4028a1:	test   ebx,ebx
  4028a3:	je     0x4028b0
  4028a5:	mov    al,0x2
  4028a7:	call   0x40295c
  4028ac:	jmp    0x4028b0
  4028ae:	xor    ebx,ebx
  4028b0:	mov    eax,ebx
  4028b2:	pop    ebx
  4028b3:	ret    
  4028b4:	mov    ecx,DWORD PTR [eax]
  4028b6:	test   ecx,ecx
  4028b8:	je     0x4028ec
  4028ba:	test   edx,edx
  4028bc:	je     0x4028d6
  4028be:	push   eax
  4028bf:	mov    eax,ecx
  4028c1:	call   DWORD PTR ds:0x40a034
  4028c7:	pop    ecx
  4028c8:	or     eax,eax
  4028ca:	je     0x4028e5
  4028cc:	mov    DWORD PTR [ecx],eax
  4028ce:	ret    
  4028cf:	mov    al,0x2
  4028d1:	jmp    0x40295c
  4028d6:	mov    DWORD PTR [eax],edx
  4028d8:	mov    eax,ecx
  4028da:	call   DWORD PTR ds:0x40a030
  4028e0:	or     eax,eax
  4028e2:	jne    0x4028cf
  4028e4:	ret    
  4028e5:	mov    al,0x1
  4028e7:	jmp    0x40295c
  4028ec:	test   edx,edx
  4028ee:	je     0x402900
  4028f0:	push   eax
  4028f1:	mov    eax,edx
  4028f3:	call   DWORD PTR ds:0x40a02c
  4028f9:	pop    ecx
  4028fa:	or     eax,eax
  4028fc:	je     0x4028e5
  4028fe:	mov    DWORD PTR [ecx],eax
  402900:	ret    
  402901:	lea    eax,[eax+0x0]
  402904:	mov    DWORD PTR ds:0x40a004,edx
  40290a:	call   0x4039dc
  40290f:	ret    
  402910:	push   ebx
  402911:	push   esi
  402912:	mov    esi,edx
  402914:	mov    ebx,eax
  402916:	and    bl,0x7f
  402919:	cmp    DWORD PTR ds:0x40b008,0x0
  402920:	je     0x40292c
  402922:	mov    edx,esi
  402924:	mov    eax,ebx
  402926:	call   DWORD PTR ds:0x40b008
  40292c:	test   bl,bl
  40292e:	jne    0x40293d
  402930:	call   0x4048cc
  402935:	mov    ebx,DWORD PTR [eax+0x4]
  40293b:	jmp    0x40294c
  40293d:	cmp    bl,0x18
  402940:	ja     0x40294c
  402942:	xor    eax,eax
  402944:	mov    al,bl
  402946:	mov    bl,BYTE PTR [eax+0x40a038]
  40294c:	xor    eax,eax
  40294e:	mov    al,bl
  402950:	mov    edx,esi
  402952:	call   0x402904
  402957:	pop    esi
  402958:	pop    ebx
  402959:	ret    
  40295a:	mov    eax,eax
  40295c:	and    eax,0x7f
  40295f:	mov    edx,DWORD PTR [esp]
  402962:	jmp    0x402910
  402967:	ret    
  402968:	push   eax
  402969:	push   edx
  40296a:	push   ecx
  40296b:	call   0x4048cc
  402970:	cmp    DWORD PTR [eax+0x4],0x0
  402977:	pop    ecx
  402978:	pop    edx
  402979:	pop    eax
  40297a:	jne    0x40297d
  40297c:	ret    
  40297d:	xor    eax,eax
  40297f:	jmp    0x40295c
  402984:	ret    
  402985:	lea    eax,[eax+0x0]
  402988:	push   ebx
  402989:	mov    ebx,eax
  40298b:	call   0x4048cc
  402990:	mov    DWORD PTR [eax+0x4],ebx
  402996:	pop    ebx
  402997:	ret    
  402998:	push   ebx
  402999:	call   0x4048cc
  40299e:	mov    ebx,DWORD PTR [eax+0x4]
  4029a4:	call   0x4048cc
  4029a9:	xor    edx,edx
  4029ab:	mov    DWORD PTR [eax+0x4],edx
  4029b1:	mov    eax,ebx
  4029b3:	pop    ebx
  4029b4:	ret    
  4029b5:	lea    eax,[eax+0x0]
  4029b8:	push   esi
  4029b9:	push   edi
  4029ba:	mov    esi,eax
  4029bc:	mov    edi,edx
  4029be:	mov    eax,ecx
  4029c0:	cmp    edi,esi
  4029c2:	ja     0x4029d7
  4029c4:	je     0x4029f5
  4029c6:	sar    ecx,0x2
  4029c9:	js     0x4029f5
  4029cb:	rep movs DWORD PTR es:[edi],DWORD PTR ds:[esi]
  4029cd:	mov    ecx,eax
  4029cf:	and    ecx,0x3
  4029d2:	rep movs BYTE PTR es:[edi],BYTE PTR ds:[esi]
  4029d4:	pop    edi
  4029d5:	pop    esi
  4029d6:	ret    
  4029d7:	lea    esi,[ecx+esi*1-0x4]
  4029db:	lea    edi,[ecx+edi*1-0x4]
  4029df:	sar    ecx,0x2
  4029e2:	js     0x4029f5
  4029e4:	std    
  4029e5:	rep movs DWORD PTR es:[edi],DWORD PTR ds:[esi]
  4029e7:	mov    ecx,eax
  4029e9:	and    ecx,0x3
  4029ec:	add    esi,0x3
  4029ef:	add    edi,0x3
  4029f2:	rep movs BYTE PTR es:[edi],BYTE PTR ds:[esi]
  4029f4:	cld    
  4029f5:	pop    edi
  4029f6:	pop    esi
  4029f7:	ret    
  4029f8:	mov    ds:0x40a014,ax
  4029fe:	fnclex 
  402a00:	fldcw  WORD PTR ds:0x40a014
  402a06:	ret    
  402a07:	nop
  402a08:	push   0x0
  402a0a:	fnstcw WORD PTR [esp]
  402a0d:	pop    eax
  402a0e:	ret    
  402a0f:	nop
  402a10:	sub    esp,0xc
  402a13:	fnstcw WORD PTR [esp]
  402a16:	fnstcw WORD PTR [esp+0x2]
  402a1a:	fwait
  402a1b:	or     WORD PTR [esp+0x2],0xf00
  402a22:	fldcw  WORD PTR [esp+0x2]
  402a26:	fistp  QWORD PTR [esp+0x4]
  402a2a:	fldcw  WORD PTR [esp]
  402a2e:	pop    ecx
  402a2f:	pop    eax
  402a30:	pop    edx
  402a31:	ret    
  402a32:	mov    eax,eax
  402a34:	push   ebx
  402a35:	mov    cx,WORD PTR [eax+0x4]
  402a39:	sub    cx,0xd7b1
  402a3e:	je     0x402a4f
  402a40:	dec    ecx
  402a41:	sub    cx,0x2
  402a45:	jae    0x402a53
  402a47:	mov    ebx,edx
  402a49:	call   ebx
  402a4b:	mov    ebx,eax
  402a4d:	jmp    0x402a6a
  402a4f:	xor    ebx,ebx
  402a51:	jmp    0x402a6a
  402a53:	cmp    eax,0x40b214
  402a58:	je     0x402a61
  402a5a:	cmp    eax,0x40b3e0
  402a5f:	jne    0x402a65
  402a61:	xor    ebx,ebx
  402a63:	jmp    0x402a6a
  402a65:	mov    ebx,0x67
  402a6a:	test   ebx,ebx
  402a6c:	je     0x402a75
  402a6e:	mov    eax,ebx
  402a70:	call   0x402988
  402a75:	mov    eax,ebx
  402a77:	pop    ebx
  402a78:	ret    
  402a79:	lea    eax,[eax+0x0]
  402a7c:	mov    edx,DWORD PTR [eax+0x1c]
  402a7f:	call   0x402a34
  402a84:	ret    
  402a85:	lea    eax,[eax+0x0]
  402a88:	push   ebx
  402a89:	push   esi
  402a8a:	mov    ebx,eax
  402a8c:	xor    esi,esi
  402a8e:	mov    ax,WORD PTR [ebx+0x4]
  402a92:	cmp    ax,0xd7b1
  402a96:	jb     0x402ac7
  402a98:	cmp    ax,0xd7b3
  402a9c:	ja     0x402ac7
  402a9e:	and    ax,0xd7b2
  402aa2:	cmp    ax,0xd7b2
  402aa6:	jne    0x402aaf
  402aa8:	mov    eax,ebx
  402aaa:	call   DWORD PTR [ebx+0x1c]
  402aad:	mov    esi,eax
  402aaf:	test   esi,esi
  402ab1:	jne    0x402aba
  402ab3:	mov    eax,ebx
  402ab5:	call   DWORD PTR [ebx+0x24]
  402ab8:	mov    esi,eax
  402aba:	test   esi,esi
  402abc:	je     0x402ad9
  402abe:	mov    eax,esi
  402ac0:	call   0x402988
  402ac5:	jmp    0x402ad9
  402ac7:	cmp    ebx,0x40b048
  402acd:	je     0x402ad9
  402acf:	mov    eax,0x67
  402ad4:	call   0x402988
  402ad9:	mov    eax,esi
  402adb:	pop    esi
  402adc:	pop    ebx
  402add:	ret    
  402ade:	mov    eax,eax
  402ae0:	push   edi
  402ae1:	mov    edi,eax
  402ae3:	mov    ch,cl
  402ae5:	mov    eax,ecx
  402ae7:	shl    eax,0x10
  402aea:	mov    ax,cx
  402aed:	mov    ecx,edx
  402aef:	sar    ecx,0x2
  402af2:	js     0x402afd
  402af4:	rep stos DWORD PTR es:[edi],eax
  402af6:	mov    ecx,edx
  402af8:	and    ecx,0x3
  402afb:	rep stos BYTE PTR es:[edi],al
  402afd:	pop    edi
  402afe:	ret    
  402aff:	nop
  402b00:	push   ebx
  402b01:	push   esi
  402b02:	push   edi
  402b03:	mov    esi,eax
  402b05:	push   eax
  402b06:	test   eax,eax
  402b08:	je     0x402b76
  402b0a:	xor    eax,eax
  402b0c:	xor    ebx,ebx
  402b0e:	mov    edi,0xccccccc
  402b13:	mov    bl,BYTE PTR [esi]
  402b15:	inc    esi
  402b16:	cmp    bl,0x20
  402b19:	je     0x402b13
  402b1b:	mov    ch,0x0
  402b1d:	cmp    bl,0x2d
  402b20:	je     0x402b84
  402b22:	cmp    bl,0x2b
  402b25:	je     0x402b86
  402b27:	cmp    bl,0x24
  402b2a:	je     0x402b8b
  402b2c:	cmp    bl,0x78
  402b2f:	je     0x402b8b
  402b31:	cmp    bl,0x58
  402b34:	je     0x402b8b
  402b36:	cmp    bl,0x30
  402b39:	jne    0x402b4e
  402b3b:	mov    bl,BYTE PTR [esi]
  402b3d:	inc    esi
  402b3e:	cmp    bl,0x78
  402b41:	je     0x402b8b
  402b43:	cmp    bl,0x58
  402b46:	je     0x402b8b
  402b48:	test   bl,bl
  402b4a:	je     0x402b6c
  402b4c:	jmp    0x402b52
  402b4e:	test   bl,bl
  402b50:	je     0x402b7f
  402b52:	sub    bl,0x30
  402b55:	cmp    bl,0x9
  402b58:	ja     0x402b7f
  402b5a:	cmp    eax,edi
  402b5c:	ja     0x402b7f
  402b5e:	lea    eax,[eax+eax*4]
  402b61:	add    eax,eax
  402b63:	add    eax,ebx
  402b65:	mov    bl,BYTE PTR [esi]
  402b67:	inc    esi
  402b68:	test   bl,bl
  402b6a:	jne    0x402b52
  402b6c:	dec    ch
  402b6e:	je     0x402b79
  402b70:	test   eax,eax
  402b72:	jge    0x402bc8
  402b74:	jmp    0x402b7f
  402b76:	inc    esi
  402b77:	jmp    0x402b7f
  402b79:	neg    eax
  402b7b:	jle    0x402bc8
  402b7d:	js     0x402bc8
  402b7f:	pop    ebx
  402b80:	sub    esi,ebx
  402b82:	jmp    0x402bcb
  402b84:	inc    ch
  402b86:	mov    bl,BYTE PTR [esi]
  402b88:	inc    esi
  402b89:	jmp    0x402b27
  402b8b:	mov    edi,0xfffffff
  402b90:	mov    bl,BYTE PTR [esi]
  402b92:	inc    esi
  402b93:	test   bl,bl
  402b95:	je     0x402b76
  402b97:	cmp    bl,0x61
  402b9a:	jb     0x402b9f
  402b9c:	sub    bl,0x20
  402b9f:	sub    bl,0x30
  402ba2:	cmp    bl,0x9
  402ba5:	jbe    0x402bb2
  402ba7:	sub    bl,0x11
  402baa:	cmp    bl,0x5
  402bad:	ja     0x402b7f
  402baf:	add    bl,0xa
  402bb2:	cmp    eax,edi
  402bb4:	ja     0x402b7f
  402bb6:	shl    eax,0x4
  402bb9:	add    eax,ebx
  402bbb:	mov    bl,BYTE PTR [esi]
  402bbd:	inc    esi
  402bbe:	test   bl,bl
  402bc0:	jne    0x402b97
  402bc2:	dec    ch
  402bc4:	jne    0x402bc8
  402bc6:	neg    eax
  402bc8:	pop    ecx
  402bc9:	xor    esi,esi
  402bcb:	mov    DWORD PTR [edx],esi
  402bcd:	pop    edi
  402bce:	pop    esi
  402bcf:	pop    ebx
  402bd0:	ret    
  402bd1:	lea    eax,[eax+0x0]
  402bd4:	push   esi
  402bd5:	push   edi
  402bd6:	mov    esi,eax
  402bd8:	mov    edi,edx
  402bda:	and    ecx,0xff
  402be0:	repz cmps BYTE PTR ds:[esi],BYTE PTR es:[edi]
  402be2:	pop    edi
  402be3:	pop    esi
  402be4:	ret    
  402be5:	lea    eax,[eax+0x0]
  402be8:	jmp    0x402bf0
  402bed:	ret    
  402bee:	mov    eax,eax
  402bf0:	push   ebx
  402bf1:	xor    ebx,ebx
  402bf3:	test   eax,eax
  402bf5:	jl     0x402c44
  402bf7:	je     0x402c97
  402bfd:	cmp    eax,0x1400
  402c02:	jge    0x402c89
  402c08:	mov    edx,eax
  402c0a:	and    edx,0x1f
  402c0d:	lea    edx,[edx+edx*4]
  402c10:	fld    TBYTE PTR [ebx+edx*2+0x402ca3]
  402c17:	fmulp  st(1),st
  402c19:	shr    eax,0x5
  402c1c:	je     0x402c97
  402c1e:	mov    edx,eax
  402c20:	and    edx,0xf
  402c23:	je     0x402c31
  402c25:	lea    edx,[edx+edx*4]
  402c28:	fld    TBYTE PTR [ebx+edx*2+0x402dd9]
  402c2f:	fmulp  st(1),st
  402c31:	shr    eax,0x4
  402c34:	je     0x402c97
  402c36:	lea    eax,[eax+eax*4]
  402c39:	fld    TBYTE PTR [ebx+eax*2+0x402e6f]
  402c40:	fmulp  st(1),st
  402c42:	jmp    0x402c97
  402c44:	neg    eax
  402c46:	cmp    eax,0x1400
  402c4b:	jge    0x402c93
  402c4d:	mov    edx,eax
  402c4f:	and    edx,0x1f
  402c52:	lea    edx,[edx+edx*4]
  402c55:	fld    TBYTE PTR [ebx+edx*2+0x402ca3]
  402c5c:	fdivp  st(1),st
  402c5e:	shr    eax,0x5
  402c61:	je     0x402c97
  402c63:	mov    edx,eax
  402c65:	and    edx,0xf
  402c68:	je     0x402c76
  402c6a:	lea    edx,[edx+edx*4]
  402c6d:	fld    TBYTE PTR [ebx+edx*2+0x402dd9]
  402c74:	fdivp  st(1),st
  402c76:	shr    eax,0x4
  402c79:	je     0x402c97
  402c7b:	lea    eax,[eax+eax*4]
  402c7e:	fld    TBYTE PTR [ebx+eax*2+0x402e6f]
  402c85:	fdivp  st(1),st
  402c87:	jmp    0x402c97
  402c89:	fstp   st(0)
  402c8b:	fld    TBYTE PTR [ebx+0x402c99]
  402c91:	jmp    0x402c97
  402c93:	fstp   st(0)
  402c95:	fldz   
  402c97:	pop    ebx
  402c98:	ret    
  402c99:	add    BYTE PTR [eax],al
  402c9b:	add    BYTE PTR [eax],al
  402c9d:	add    BYTE PTR [eax],al
  402c9f:	add    BYTE PTR [eax+0x7fff],al
  402ca5:	add    BYTE PTR [eax],al
  402ca7:	add    BYTE PTR [eax],al
  402ca9:	add    BYTE PTR [eax+0x3fff],al
  402caf:	add    BYTE PTR [eax],al
  402cb1:	add    BYTE PTR [eax],al
  402cb3:	add    BYTE PTR [eax+0x4002],ah
  402cb9:	add    BYTE PTR [eax],al
  402cbb:	add    BYTE PTR [eax],al
  402cbd:	add    al,cl
  402cbf:	add    eax,0x40
  402cc4:	add    BYTE PTR [eax],al
  402cc6:	add    BYTE PTR [eax],al
  402cc8:	cli    
  402cc9:	or     BYTE PTR [eax+0x0],al
  402ccc:	add    BYTE PTR [eax],al
  402cce:	add    BYTE PTR [eax],al
  402cd0:	add    BYTE PTR [eax-0x64],al
  402cd3:	or     al,0x40
  402cd5:	add    BYTE PTR [eax],al
  402cd7:	add    BYTE PTR [eax],al
  402cd9:	add    BYTE PTR [eax],al
  402cdb:	push   eax
  402cdc:	ret    
  402cdd:	cmovo  eax,DWORD PTR [eax]
  402ce0:	add    BYTE PTR [eax],al
  402ce2:	add    BYTE PTR [eax],al
  402ce4:	add    BYTE PTR [esp+esi*8],ah
  402ce7:	adc    al,BYTE PTR [eax+0x0]
  402cea:	add    BYTE PTR [eax],al
  402cec:	add    BYTE PTR [eax],al
  402cee:	adc    BYTE PTR [esi+0x401698],0x0
  402cf5:	add    BYTE PTR [eax],al
  402cf7:	add    BYTE PTR [eax],ah
  402cf9:	mov    esp,0x4019be
  402cfe:	add    BYTE PTR [eax],al
  402d00:	add    BYTE PTR [eax],al
  402d02:	sub    BYTE PTR [ebx-0x12],ch
  402d05:	sbb    al,0x40
  402d07:	add    BYTE PTR [eax],al
  402d09:	add    BYTE PTR [eax],al
  402d0b:	add    cl,bh
  402d0d:	add    dl,BYTE PTR [ebp+0x4020]
  402d13:	add    BYTE PTR [eax],al
  402d15:	inc    eax
  402d16:	mov    bh,0x43
  402d18:	mov    edx,0x4023
  402d1d:	add    BYTE PTR [eax],al
  402d1f:	adc    BYTE PTR [ebp+0x4026e8d4],ah
  402d25:	add    BYTE PTR [eax],al
  402d27:	add    BYTE PTR [eax],al
  402d29:	sub    ah,bh
  402d2b:	test   BYTE PTR [ecx+0x402a],dl
  402d31:	add    BYTE PTR [eax-0x4a19df0c],al
  402d37:	sub    eax,0x40
  402d3c:	mov    al,ds:0xe35fa931
  402d41:	xor    BYTE PTR [eax+0x0],al
  402d44:	add    BYTE PTR [eax],al
  402d46:	add    al,0xbf
  402d48:	leave  
  402d49:	sbb    ecx,DWORD PTR [esi+0x4034]
  402d4f:	add    ch,al
  402d51:	cs mov esp,0x4037b1a2
  402d57:	add    BYTE PTR [eax],al
  402d59:	inc    eax
  402d5a:	jbe    0x402d96
  402d5c:	imul   ecx,DWORD PTR [ebx],0xffffffde
  402d5f:	cmp    al,BYTE PTR [eax+0x0]
  402d62:	add    al,ch
  402d64:	mov    DWORD PTR [ebx+eiz*1],eax
  402d67:	(bad)  
  402d68:	mov    bh,BYTE PTR [esi]
  402d6a:	inc    eax
  402d6b:	add    BYTE PTR [eax],al
  402d6d:	bound  ebp,QWORD PTR [ebp+eax*8+0x41ad78eb]
  402d74:	inc    eax
  402d75:	add    BYTE PTR [eax+0x26b7177a],al
  402d7b:	xlat   BYTE PTR ds:[ebx]
  402d7c:	fadd   DWORD PTR [eax+eax*2+0x0]
  402d80:	nop
  402d81:	lods   al,BYTE PTR ds:[esi]
  402d82:	outs   dx,BYTE PTR ds:[esi]
  402d83:	xor    bh,BYTE PTR [eax-0x7a]
  402d86:	xchg   DWORD PTR [eax+0x40],ecx
  402d89:	add    BYTE PTR [edi+edx*2+0x68163f0a],dh
  402d90:	test   eax,0xa100404b
  402d95:	in     eax,dx
  402d96:	int3   
  402d97:	into   
  402d98:	sbb    eax,edx
  402d9a:	ror    DWORD PTR [esi+0x40],cl
  402d9d:	mov    al,ds:0x61401484
  402da2:	push   ecx
  402da3:	pop    ecx
  402da4:	test   BYTE PTR [edx+0x40],dl
  402da7:	enter  0x19a5,0x90
  402dab:	mov    ecx,0x55a56fa5
  402db0:	inc    eax
  402db1:	cmp    cl,BYTE PTR [edi]
  402db3:	and    ah,dh
  402db5:	daa    
  402db6:	(bad)  
  402db7:	retf   
  402db8:	into   
  402db9:	pop    eax
  402dba:	inc    eax
  402dbb:	test   BYTE PTR [ecx],cl
  402dbd:	xchg   esp,eax
  402dbe:	clc    
  402dbf:	js     0x402dfa
  402dc1:	aas    
  402dc2:	sbb    DWORD PTR [eax+eax*2-0x1b],0xd736b90b
  402dca:	pop    es
  402dcb:	(bad)  
  402dcc:	mov    eax,ds:0x4edf405f
  402dd1:	addr16 add al,0xcd
  402dd4:	leave  
  402dd5:	repnz leave 
  402dd7:	bound  eax,QWORD PTR [eax-0x6a]
  402dda:	and    al,BYTE PTR [ecx+0x6f7c4045]
  402de0:	cld    
  402de1:	gs inc eax
  402de3:	sahf   
  402de4:	mov    ch,0x70
  402de6:	sub    ebp,DWORD PTR [eax+0x699dc5ad]
  402dec:	inc    eax
  402ded:	aad    0xa6
  402def:	iret   
  402df0:	dec    DWORD PTR [ecx+0x1f]
  402df3:	js     0x402db7
  402df5:	rol    DWORD PTR [eax-0x5d],cl
  402df8:	adc    al,0x9b
  402dfa:	lds    edx,FWORD PTR [esi]
  402dfc:	stos   DWORD PTR es:[edi],eax
  402dfd:	mov    bl,0xef
  402dff:	cmp    eax,0xe98ce041
  402e04:	or     cl,0x47
  402e07:	mov    edx,0xaa41a893
  402e0c:	pop    ss
  402e0d:	out    0x7f,al
  402e0f:	sub    esp,DWORD PTR [ecx+0x4212b616]
  402e15:	imul   edx,DWORD PTR [ebp+0x27],0x39
  402e19:	(bad)  
  402e1a:	div    DWORD PTR [eax-0x20]
  402e1d:	jl     0x402e61
  402e1f:	xor    cl,cl
  402e21:	cmp    al,0xe3
  402e23:	call   DWORD PTR [esi+0x42e78a52]
  402e29:	mov    ds,esi
  402e2b:	stc    
  402e2c:	popf   
  402e2d:	sti    
  402e2e:	jmp    0x402eae
  402e30:	stos   BYTE PTR es:[edi],al
  402e31:	push   ecx
  402e32:	inc    ebx
  402e33:	mov    WORD PTR [edi],gs
  402e35:	push   0x5c
  402e37:	sbb    esp,edi
  402e39:	sar    BYTE PTR es:[ebx-0x331c89bd],cl
  402e40:	repnz sub DWORD PTR [edi],ebp
  402e43:	test   BYTE PTR [ecx+0xad24426],al
  402e49:	nop
  402e4a:	fild   DWORD PTR [eax]
  402e4c:	daa    
  402e4d:	movs   BYTE PTR es:[edi],BYTE PTR ds:[esi]
  402e4e:	lahf   
  402e4f:	nop
  402e50:	inc    esp
  402e51:	pop    ss
  402e52:	stos   BYTE PTR es:[edi],al
  402e53:	clc    
  402e54:	scas   al,BYTE PTR es:[edi]
  402e55:	adc    bl,ah
  402e57:	(bad)
  402e5a:	inc    esp
  402e5b:	pop    ecx
  402e5c:	pushf  
  402e5d:	mov    al,0xe9
  402e5f:	pop    es
  402e60:	pushf  
  402e61:	mov    dh,dl
  402e63:	fs inc ebp
  402e65:	aam    0xf3
  402e67:	imul   ebx
  402e69:	loope  0x402eb5
  402e6b:	jp     0x402e02
  402e6d:	iret   
  402e6e:	inc    ebp
  402e6f:	bound  esp,QWORD PTR [edx-0x2723f86b]
  402e75:	ds mov eax,0x91c74639
  402e7b:	push   cs
  402e7c:	cmps   BYTE PTR ds:[esi],BYTE PTR es:[edi]
  402e7d:	scas   al,BYTE PTR es:[edi]
  402e7e:	mov    al,ds:0x46a3e319
  402e83:	pop    ss
  402e84:	or     al,0x75
  402e86:	add    DWORD PTR [esi+0x48c97675],0x93a7e44d
  402e90:	cmp    DWORD PTR [ebx],edi
  402e92:	xor    eax,0x53edb2b8
  402e97:	in     eax,0x5d
  402e99:	cmp    eax,0x8b3b5dc5
  402e9e:	sahf   
  402e9f:	xchg   edx,eax
  402ea0:	pop    edx
  402ea1:	cmps   BYTE PTR ds:[esi],BYTE PTR es:[edi]
  402ea2:	lock mov eax,ds:0xa554c020
  402ea8:	mov    WORD PTR [edi],?
  402eaa:	popa   
  402eab:	mov    ebx,DWORD PTR [edx-0x75]
  402eae:	fsub   DWORD PTR ds:0xdbf9895d
  402eb4:	addr16 clc 
  402eb6:	repz daa 
  402eb8:	mov    edi,0xdd5dc8a2
  402ebd:	sub    BYTE PTR [esi-0x65],0x97
  402ec1:	and    BYTE PTR [edx-0x3b9fadfe],cl
  402ec7:	and    eax,0xd559f075
  402ecc:	outs   dx,BYTE PTR ds:[esi]
  402ecd:	bound  edx,QWORD PTR [ecx]
  402ecf:	xor    eax,0xc37bcaae
  402ed4:	jmp    DWORD PTR ds:0x40c144
  402eda:	mov    eax,eax
  402edc:	push   ebx
  402edd:	xor    ebx,ebx
  402edf:	push   0x0
  402ee1:	call   0x402ed4
  402ee6:	cmp    eax,0x7
  402ee9:	jne    0x402f07
  402eeb:	push   0x1
  402eed:	call   0x402ed4
  402ef2:	and    eax,0xff00
  402ef7:	cmp    eax,0xd00
  402efc:	je     0x402f05
  402efe:	cmp    eax,0x400
  402f03:	jne    0x402f07
  402f05:	mov    bl,0x1
  402f07:	mov    eax,ebx
  402f09:	pop    ebx
  402f0a:	ret    
  402f0b:	nop
  402f0c:	push   ebp
  402f0d:	mov    ebp,esp
  402f0f:	add    esp,0xfffffff4
  402f12:	movzx  eax,WORD PTR ds:0x40a014
  402f19:	mov    DWORD PTR [ebp-0x8],eax
  402f1c:	lea    eax,[ebp-0x4]
  402f1f:	push   eax
  402f20:	push   0x1
  402f22:	push   0x0
  402f24:	push   0x402fa4
  402f29:	push   0x80000002
  402f2e:	call   0x401118
  402f33:	test   eax,eax
  402f35:	jne    0x402f84
  402f37:	xor    eax,eax
  402f39:	push   ebp
  402f3a:	push   0x402f7d
  402f3f:	push   DWORD PTR fs:[eax]
  402f42:	mov    DWORD PTR fs:[eax],esp
  402f45:	mov    DWORD PTR [ebp-0xc],0x4
  402f4c:	lea    eax,[ebp-0xc]
  402f4f:	push   eax
  402f50:	lea    eax,[ebp-0x8]
  402f53:	push   eax
  402f54:	push   0x0
  402f56:	push   0x0
  402f58:	push   0x402fc0
  402f5d:	mov    eax,DWORD PTR [ebp-0x4]
  402f60:	push   eax
  402f61:	call   0x401120
  402f66:	xor    eax,eax
  402f68:	pop    edx
  402f69:	pop    ecx
  402f6a:	pop    ecx
  402f6b:	mov    DWORD PTR fs:[eax],edx
  402f6e:	push   0x402f84
  402f73:	mov    eax,DWORD PTR [ebp-0x4]
  402f76:	push   eax
  402f77:	call   0x401110
  402f7c:	ret    
  402f7d:	jmp    0x4033f4
  402f82:	jmp    0x402f73
  402f84:	mov    ax,ds:0x40a014
  402f8a:	and    ax,0xffc0
  402f8e:	mov    dx,WORD PTR [ebp-0x8]
  402f92:	and    dx,0x3f
  402f96:	or     ax,dx
  402f99:	mov    ds:0x40a014,ax
  402f9f:	mov    esp,ebp
  402fa1:	pop    ebp
  402fa2:	ret    
  402fa3:	add    BYTE PTR [ebx+0x4f],dl
  402fa6:	inc    esi
  402fa7:	push   esp
  402fa8:	push   edi
  402fa9:	inc    ecx
  402faa:	push   edx
  402fab:	inc    ebp
  402fac:	pop    esp
  402fad:	inc    edx
  402fae:	outs   dx,DWORD PTR ds:[esi]
  402faf:	jb     0x40301d
  402fb1:	popa   
  402fb2:	outs   dx,BYTE PTR ds:[esi]
  402fb3:	fs pop esp
  402fb5:	inc    esp
  402fb6:	gs ins BYTE PTR es:[edi],dx
  402fb8:	jo     0x403022
  402fba:	imul   ebx,DWORD PTR [edx+edx*2+0x54],0x5046004c
  402fc2:	push   ebp
  402fc3:	dec    ebp
  402fc4:	popa   
  402fc5:	jae    0x403032
  402fc7:	push   esi
  402fc8:	popa   
  402fc9:	ins    BYTE PTR es:[edi],dx
  402fca:	jne    0x403031
  402fcc:	add    BYTE PTR [eax],al
  402fce:	add    BYTE PTR [eax],al
  402fd0:	fninit 
  402fd2:	fldcw  WORD PTR ds:0x40a014
  402fd9:	ret    
  402fda:	mov    eax,eax
  402fdc:	push   esi
  402fdd:	push   edi
  402fde:	mov    edi,edx
  402fe0:	mov    esi,DWORD PTR [eax-0x2c]
  402fe3:	xor    ecx,ecx
  402fe5:	mov    cl,BYTE PTR [esi]
  402fe7:	inc    ecx
  402fe8:	rep movs BYTE PTR es:[edi],BYTE PTR ds:[esi]
  402fea:	pop    edi
  402feb:	pop    esi
  402fec:	ret    
  402fed:	lea    eax,[eax+0x0]
  402ff0:	push   ebx
  402ff1:	mov    ebx,eax
  402ff3:	mov    eax,ebx
  402ff5:	call   0x403020
  402ffa:	call   0x402864
  402fff:	mov    edx,eax
  403001:	mov    eax,ebx
  403003:	call   0x403044
  403008:	pop    ebx
  403009:	ret    
  40300a:	mov    eax,eax
  40300c:	push   ebx
  40300d:	mov    ebx,eax
  40300f:	mov    eax,ebx
  403011:	call   0x40309c
  403016:	mov    eax,ebx
  403018:	call   0x402894
  40301d:	pop    ebx
  40301e:	ret    
  40301f:	nop
  403020:	add    eax,0xffffffd8
  403023:	mov    eax,DWORD PTR [eax]
  403025:	ret    
  403026:	mov    eax,eax
  403028:	call   0x4031c8
  40302d:	test   dl,dl
  40302f:	jle    0x403036
  403031:	call   0x4031b0
  403036:	ret    
  403037:	nop
  403038:	test   eax,eax
  40303a:	je     0x403043
  40303c:	mov    dl,0x1
  40303e:	mov    ecx,DWORD PTR [eax]
  403040:	call   DWORD PTR [ecx-0x4]
  403043:	ret    
  403044:	push   ebx
  403045:	push   esi
  403046:	push   edi
  403047:	mov    ebx,eax
  403049:	mov    edi,edx
  40304b:	stos   DWORD PTR es:[edi],eax
  40304c:	mov    ecx,DWORD PTR [ebx-0x28]
  40304f:	xor    eax,eax
  403051:	push   ecx
  403052:	shr    ecx,0x2
  403055:	dec    ecx
  403056:	rep stos DWORD PTR es:[edi],eax
  403058:	pop    ecx
  403059:	and    ecx,0x3
  40305c:	rep stos BYTE PTR es:[edi],al
  40305e:	mov    eax,edx
  403060:	mov    edx,esp
  403062:	mov    ecx,DWORD PTR [ebx-0x48]
  403065:	test   ecx,ecx
  403067:	je     0x40306a
  403069:	push   ecx
  40306a:	mov    ebx,DWORD PTR [ebx-0x24]
  40306d:	test   ebx,ebx
  40306f:	je     0x403075
  403071:	mov    ebx,DWORD PTR [ebx]
  403073:	jmp    0x403062
  403075:	cmp    esp,edx
  403077:	je     0x403096
  403079:	pop    ebx
  40307a:	mov    ecx,DWORD PTR [ebx]
  40307c:	add    ebx,0x4
  40307f:	mov    esi,DWORD PTR [ebx+0x10]
  403082:	test   esi,esi
  403084:	je     0x40308c
  403086:	mov    edi,DWORD PTR [ebx+0x14]
  403089:	mov    DWORD PTR [edi+eax*1],esi
  40308c:	add    ebx,0x1c
  40308f:	dec    ecx
  403090:	jne    0x40307f
  403092:	cmp    esp,edx
  403094:	jne    0x403079
  403096:	pop    edi
  403097:	pop    esi
  403098:	pop    ebx
  403099:	ret    
  40309a:	mov    eax,eax
  40309c:	push   ebx
  40309d:	push   esi
  40309e:	mov    ebx,eax
  4030a0:	mov    esi,eax
  4030a2:	mov    esi,DWORD PTR [esi]
  4030a4:	mov    edx,DWORD PTR [esi-0x40]
  4030a7:	mov    esi,DWORD PTR [esi-0x24]
  4030aa:	test   edx,edx
  4030ac:	je     0x4030b5
  4030ae:	call   0x403e88
  4030b3:	mov    eax,ebx
  4030b5:	test   esi,esi
  4030b7:	jne    0x4030a2
  4030b9:	pop    esi
  4030ba:	pop    ebx
  4030bb:	ret    
  4030bc:	push   ebx
  4030bd:	push   esi
  4030be:	mov    esi,edx
  4030c0:	mov    ebx,eax
  4030c2:	test   ebx,ebx
  4030c4:	je     0x4030d3
  4030c6:	mov    edx,esi
  4030c8:	mov    eax,DWORD PTR [ebx]
  4030ca:	call   0x403110
  4030cf:	test   al,al
  4030d1:	jne    0x4030d8
  4030d3:	xor    eax,eax
  4030d5:	pop    esi
  4030d6:	pop    ebx
  4030d7:	ret    
  4030d8:	mov    al,0x1
  4030da:	pop    esi
  4030db:	pop    ebx
  4030dc:	ret    
  4030dd:	lea    eax,[eax+0x0]
  4030e0:	push   edi
  4030e1:	xchg   esi,eax
  4030e2:	jmp    0x4030e6
  4030e4:	mov    esi,DWORD PTR [esi]
  4030e6:	mov    edi,DWORD PTR [esi-0x30]
  4030e9:	test   edi,edi
  4030eb:	je     0x4030fa
  4030ed:	movzx  ecx,WORD PTR [edi]
  4030f0:	push   ecx
  4030f1:	add    edi,0x2
  4030f4:	repnz scas ax,WORD PTR es:[edi]
  4030f7:	je     0x403103
  4030f9:	pop    ecx
  4030fa:	mov    esi,DWORD PTR [esi-0x24]
  4030fd:	test   esi,esi
  4030ff:	jne    0x4030e4
  403101:	pop    edi
  403102:	ret    
  403103:	pop    eax
  403104:	add    eax,eax
  403106:	sub    eax,ecx
  403108:	mov    esi,DWORD PTR [edi+eax*2-0x4]
  40310c:	pop    edi
  40310d:	ret    
  40310e:	mov    eax,eax
  403110:	jmp    0x403114
  403112:	mov    eax,DWORD PTR [eax]
  403114:	cmp    eax,edx
  403116:	je     0x403120
  403118:	mov    eax,DWORD PTR [eax-0x24]
  40311b:	test   eax,eax
  40311d:	jne    0x403112
  40311f:	ret    
  403120:	mov    al,0x1
  403122:	ret    
  403123:	nop
  403124:	mov    eax,0x8000ffff
  403129:	ret    
  40312a:	mov    eax,eax
  40312c:	ret    
  40312d:	lea    eax,[eax+0x0]
  403130:	ret    
  403131:	lea    eax,[eax+0x0]
  403134:	ret    
  403135:	lea    eax,[eax+0x0]
  403138:	push   esi
  403139:	mov    si,WORD PTR [edx]
  40313c:	or     si,si
  40313f:	je     0x403158
  403141:	cmp    si,0xc000
  403146:	jae    0x403158
  403148:	push   eax
  403149:	mov    eax,DWORD PTR [eax]
  40314b:	call   0x4030e0
  403150:	pop    eax
  403151:	je     0x403158
  403153:	mov    ecx,esi
  403155:	pop    esi
  403156:	jmp    ecx
  403158:	pop    esi
  403159:	mov    ecx,DWORD PTR [eax]
  40315b:	jmp    DWORD PTR [ecx-0x10]
  40315e:	ret    
  40315f:	nop
  403160:	push   edx
  403161:	push   ecx
  403162:	push   ebx
  403163:	test   dl,dl
  403165:	jl     0x40316a
  403167:	call   DWORD PTR [eax-0xc]
  40316a:	xor    edx,edx
  40316c:	lea    ecx,[esp+0x10]
  403170:	mov    ebx,DWORD PTR fs:[edx]
  403173:	mov    DWORD PTR [ecx],ebx
  403175:	mov    DWORD PTR [ecx+0x8],ebp
  403178:	mov    DWORD PTR [ecx+0x4],0x403189
  40317f:	mov    DWORD PTR [ecx+0xc],eax
  403182:	mov    DWORD PTR fs:[edx],ecx
  403185:	pop    ebx
  403186:	pop    ecx
  403187:	pop    edx
  403188:	ret    
  403189:	jmp    0x4032c8
  40318e:	mov    eax,DWORD PTR [esp+0x2c]
  403192:	mov    eax,DWORD PTR [eax+0xc]
  403195:	test   eax,eax
  403197:	je     0x4031a7
  403199:	mov    ecx,DWORD PTR [eax]
  40319b:	mov    dl,0x81
  40319d:	push   eax
  40319e:	call   DWORD PTR [ecx-0x4]
  4031a1:	pop    eax
  4031a2:	call   0x4031b0
  4031a7:	call   0x403454
  4031ac:	ret    
  4031ad:	lea    eax,[eax+0x0]
  4031b0:	mov    edx,DWORD PTR [eax]
  4031b2:	call   DWORD PTR [edx-0x8]
  4031b5:	ret    
  4031b6:	mov    eax,eax
  4031b8:	push   ebx
  4031b9:	mov    ebx,eax
  4031bb:	mov    eax,ebx
  4031bd:	mov    edx,DWORD PTR [eax]
  4031bf:	call   DWORD PTR [edx-0x1c]
  4031c2:	mov    eax,ebx
  4031c4:	pop    ebx
  4031c5:	ret    
  4031c6:	mov    eax,eax
  4031c8:	test   dl,dl
  4031ca:	jg     0x4031cd
  4031cc:	ret    
  4031cd:	push   eax
  4031ce:	push   edx
  4031cf:	mov    edx,DWORD PTR [eax]
  4031d1:	call   DWORD PTR [edx-0x18]
  4031d4:	pop    edx
  4031d5:	pop    eax
  4031d6:	ret    
  4031d7:	nop
  4031d8:	cmp    BYTE PTR ds:0x40a018,0x1
  4031df:	jbe    0x4031f2
  4031e1:	push   0x0
  4031e3:	push   0x0
  4031e5:	push   0x0
  4031e7:	push   0xeedfadf
  4031ec:	call   DWORD PTR ds:0x40b014
  4031f2:	ret    
  4031f3:	nop
  4031f4:	cmp    BYTE PTR ds:0x40a018,0x0
  4031fb:	je     0x403214
  4031fd:	push   eax
  4031fe:	push   eax
  4031ff:	push   edx
  403200:	push   esp
  403201:	push   0x2
  403203:	push   0x0
  403205:	push   0xeedfae4
  40320a:	call   DWORD PTR ds:0x40b014
  403210:	add    esp,0x8
  403213:	pop    eax
  403214:	ret    
  403215:	lea    eax,[eax+0x0]
  403218:	push   esp
  403219:	push   0x1
  40321b:	push   0x0
  40321d:	push   0xeedfae0
  403222:	call   DWORD PTR ds:0x40b014
  403228:	add    esp,0x4
  40322b:	pop    eax
  40322c:	ret    
  40322d:	lea    eax,[eax+0x0]
  403230:	cmp    BYTE PTR ds:0x40a018,0x1
  403237:	jbe    0x403240
  403239:	push   eax
  40323a:	push   ebx
  40323b:	jmp    0x403218
  403240:	ret    
  403241:	lea    eax,[eax+0x0]
  403244:	test   ecx,ecx
  403246:	je     0x403261
  403248:	mov    eax,DWORD PTR [ecx+0x1]
  40324b:	cmp    BYTE PTR [ecx],0xe9
  40324e:	je     0x40325c
  403250:	cmp    BYTE PTR [ecx],0xeb
  403253:	jne    0x403261
  403255:	movsx  eax,al
  403258:	inc    ecx
  403259:	inc    ecx
  40325a:	jmp    0x40325f
  40325c:	add    ecx,0x5
  40325f:	add    ecx,eax
  403261:	ret    
  403262:	mov    eax,eax
  403264:	cmp    BYTE PTR ds:0x40a018,0x1
  40326b:	jbe    0x40328a
  40326d:	push   eax
  40326e:	push   edx
  40326f:	push   ecx
  403270:	call   0x403244
  403275:	push   ecx
  403276:	push   esp
  403277:	push   0x1
  403279:	push   0x0
  40327b:	push   0xeedfae1
  403280:	call   DWORD PTR ds:0x40b014
  403286:	pop    ecx
  403287:	pop    ecx
  403288:	pop    edx
  403289:	pop    eax
  40328a:	ret    
  40328b:	nop
  40328c:	cmp    BYTE PTR ds:0x40a018,0x1
  403293:	jbe    0x4032a7
  403295:	push   edx
  403296:	push   esp
  403297:	push   0x1
  403299:	push   0x0
  40329b:	push   0xeedfae2
  4032a0:	call   DWORD PTR ds:0x40b014
  4032a6:	pop    edx
  4032a7:	ret    
  4032a8:	push   eax
  4032a9:	push   edx
  4032aa:	cmp    BYTE PTR ds:0x40a018,0x1
  4032b1:	jbe    0x4032c3
  4032b3:	push   esp
  4032b4:	push   0x2
  4032b6:	push   0x0
  4032b8:	push   0xeedfae3
  4032bd:	call   DWORD PTR ds:0x40b014
  4032c3:	pop    edx
  4032c4:	pop    eax
  4032c5:	ret    
  4032c6:	mov    eax,eax
  4032c8:	mov    eax,DWORD PTR [esp+0x4]
  4032cc:	test   DWORD PTR [eax+0x4],0x6
  4032d3:	jne    0x4033ec
  4032d9:	cmp    DWORD PTR [eax],0xeedfade
  4032df:	mov    edx,DWORD PTR [eax+0x18]
  4032e2:	mov    ecx,DWORD PTR [eax+0x14]
  4032e5:	je     0x403355
  4032e7:	cld    
  4032e8:	call   0x402fd0
  4032ed:	mov    edx,DWORD PTR ds:0x40b010
  4032f3:	test   edx,edx
  4032f5:	je     0x4033ec
  4032fb:	call   edx
  4032fd:	test   eax,eax
  4032ff:	je     0x4033ec
  403305:	mov    edx,DWORD PTR [esp+0xc]
  403309:	mov    ecx,DWORD PTR [esp+0x4]
  40330d:	cmp    DWORD PTR [ecx],0xeefface
  403313:	je     0x40334c
  403315:	call   0x4031f4
  40331a:	cmp    BYTE PTR ds:0x40a01c,0x0
  403321:	jbe    0x40334c
  403323:	cmp    BYTE PTR ds:0x40a018,0x0
  40332a:	ja     0x40334c
  40332c:	lea    ecx,[esp+0x4]
  403330:	push   eax
  403331:	push   ecx
  403332:	call   0x401078
  403337:	cmp    eax,0x0
  40333a:	pop    eax
  40333b:	je     0x4033ec
  403341:	mov    edx,eax
  403343:	mov    eax,DWORD PTR [esp+0x4]
  403347:	mov    ecx,DWORD PTR [eax+0xc]
  40334a:	jmp    0x40337c
  40334c:	mov    edx,eax
  40334e:	mov    eax,DWORD PTR [esp+0x4]
  403352:	mov    ecx,DWORD PTR [eax+0xc]
  403355:	cmp    BYTE PTR ds:0x40a01c,0x1
  40335c:	jbe    0x40337c
  40335e:	cmp    BYTE PTR ds:0x40a018,0x0
  403365:	ja     0x40337c
  403367:	push   eax
  403368:	lea    eax,[esp+0x8]
  40336c:	push   edx
  40336d:	push   ecx
  40336e:	push   eax
  40336f:	call   0x401078
  403374:	cmp    eax,0x0
  403377:	pop    ecx
  403378:	pop    edx
  403379:	pop    eax
  40337a:	je     0x4033ec
  40337c:	or     DWORD PTR [eax+0x4],0x2
  403380:	push   ebx
  403381:	xor    ebx,ebx
  403383:	push   esi
  403384:	push   edi
  403385:	push   ebp
  403386:	mov    ebx,DWORD PTR fs:[ebx]
  403389:	push   ebx
  40338a:	push   eax
  40338b:	push   edx
  40338c:	push   ecx
  40338d:	mov    edx,DWORD PTR [esp+0x28]
  403391:	push   0x0
  403393:	push   eax
  403394:	push   0x4033a0
  403399:	push   edx
  40339a:	call   DWORD PTR ds:0x40b018
  4033a0:	mov    edi,DWORD PTR [esp+0x28]
  4033a4:	call   0x4048cc
  4033a9:	push   DWORD PTR [eax+0x0]
  4033af:	mov    DWORD PTR [eax+0x0],esp
  4033b5:	mov    ebp,DWORD PTR [edi+0x8]
  4033b8:	mov    ebx,DWORD PTR [edi+0x4]
  4033bb:	mov    DWORD PTR [edi+0x4],0x4033cc
  4033c2:	add    ebx,0x5
  4033c5:	call   0x403230
  4033ca:	jmp    ebx
  4033cc:	jmp    0x4033f4
  4033d1:	call   0x4048cc
  4033d6:	mov    ecx,DWORD PTR [eax+0x0]
  4033dc:	mov    edx,DWORD PTR [ecx]
  4033de:	mov    DWORD PTR [eax+0x0],edx
  4033e4:	mov    eax,DWORD PTR [ecx+0x8]
  4033e7:	jmp    0x403038
  4033ec:	mov    eax,0x1
  4033f1:	ret    
  4033f2:	mov    eax,eax
  4033f4:	mov    eax,DWORD PTR [esp+0x4]
  4033f8:	mov    edx,DWORD PTR [esp+0x8]
  4033fc:	test   DWORD PTR [eax+0x4],0x6
  403403:	je     0x403424
  403405:	mov    ecx,DWORD PTR [edx+0x4]
  403408:	mov    DWORD PTR [edx+0x4],0x403424
  40340f:	push   ebx
  403410:	push   esi
  403411:	push   edi
  403412:	push   ebp
  403413:	mov    ebp,DWORD PTR [edx+0x8]
  403416:	add    ecx,0x5
  403419:	call   0x403264
  40341e:	call   ecx
  403420:	pop    ebp
  403421:	pop    edi
  403422:	pop    esi
  403423:	pop    ebx
  403424:	mov    eax,0x1
  403429:	ret    
  40342a:	mov    eax,eax
  40342c:	or     eax,eax
  40342e:	jne    0x40343a
  403430:	mov    eax,0xd8
  403435:	call   0x4039e8
  40343a:	pop    edx
  40343b:	push   esp
  40343c:	push   ebp
  40343d:	push   edi
  40343e:	push   esi
  40343f:	push   ebx
  403440:	push   eax
  403441:	push   edx
  403442:	push   esp
  403443:	push   0x7
  403445:	push   0x1
  403447:	push   0xeedfade
  40344c:	push   edx
  40344d:	jmp    DWORD PTR ds:0x40b014
  403453:	ret    
  403454:	mov    eax,DWORD PTR [esp+0x30]
  403458:	mov    DWORD PTR [eax+0x4],0x40349f
  40345f:	call   0x4048cc
  403464:	mov    edx,DWORD PTR [eax+0x0]
  40346a:	mov    ecx,DWORD PTR [edx]
  40346c:	mov    DWORD PTR [eax+0x0],ecx
  403472:	mov    eax,DWORD PTR [edx+0xc]
  403475:	and    DWORD PTR [eax+0x4],0xfffffffd
  403479:	cmp    DWORD PTR [eax],0xeedfade
  40347f:	je     0x40348e
  403481:	mov    eax,DWORD PTR [edx+0x8]
  403484:	call   0x403038
  403489:	call   0x4031d8
  40348e:	xor    eax,eax
  403490:	add    esp,0x14
  403493:	mov    edx,DWORD PTR fs:[eax]
  403496:	pop    ecx
  403497:	mov    edx,DWORD PTR [edx]
  403499:	mov    DWORD PTR [ecx],edx
  40349b:	pop    ebp
  40349c:	pop    edi
  40349d:	pop    esi
  40349e:	pop    ebx
  40349f:	mov    eax,0x1
  4034a4:	ret    
  4034a5:	lea    eax,[eax+0x0]
  4034a8:	call   0x4048cc
  4034ad:	mov    edx,DWORD PTR [eax+0x0]
  4034b3:	mov    ecx,DWORD PTR [edx]
  4034b5:	mov    DWORD PTR [eax+0x0],ecx
  4034bb:	mov    eax,DWORD PTR [edx+0x8]
  4034be:	call   0x403038
  4034c3:	pop    edx
  4034c4:	mov    esp,DWORD PTR [esp+0x2c]
  4034c8:	xor    eax,eax
  4034ca:	pop    ecx
  4034cb:	mov    DWORD PTR fs:[eax],ecx
  4034ce:	pop    eax
  4034cf:	pop    ebp
  4034d0:	call   0x40328c
  4034d5:	jmp    edx
  4034d7:	ret    
  4034d8:	xor    edx,edx
  4034da:	mov    ecx,DWORD PTR [esp+0x8]
  4034de:	mov    eax,DWORD PTR [esp+0x4]
  4034e2:	add    ecx,0x5
  4034e5:	mov    DWORD PTR fs:[edx],eax
  4034e8:	call   ecx
  4034ea:	ret    0xc
  4034ed:	ret    
  4034ee:	mov    eax,eax
  4034f0:	push   ebp
  4034f1:	mov    ebp,esp
  4034f3:	mov    edx,DWORD PTR [ebp+0x8]
  4034f6:	mov    eax,DWORD PTR [edx]
  4034f8:	cmp    eax,0xc0000092
  4034fd:	jg     0x40352b
  4034ff:	je     0x40355d
  403501:	cmp    eax,0xc000008e
  403506:	jg     0x40351d
  403508:	je     0x403561
  40350a:	sub    eax,0xc0000005
  40350f:	je     0x40356d
  403511:	sub    eax,0x87
  403516:	je     0x403555
  403518:	dec    eax
  403519:	je     0x403569
  40351b:	jmp    0x40357d
  40351d:	add    eax,0x3fffff71
  403522:	sub    eax,0x2
  403525:	jb     0x40355d
  403527:	je     0x403559
  403529:	jmp    0x40357d
  40352b:	cmp    eax,0xc0000096
  403530:	jg     0x403543
  403532:	je     0x403571
  403534:	sub    eax,0xc0000093
  403539:	je     0x403569
  40353b:	dec    eax
  40353c:	je     0x403551
  40353e:	dec    eax
  40353f:	je     0x403565
  403541:	jmp    0x40357d
  403543:	sub    eax,0xc00000fd
  403548:	je     0x403579
  40354a:	sub    eax,0x3d
  40354d:	je     0x403575
  40354f:	jmp    0x40357d
  403551:	mov    al,0xc8
  403553:	jmp    0x40357f
  403555:	mov    al,0xc9
  403557:	jmp    0x40357f
  403559:	mov    al,0xcd
  40355b:	jmp    0x40357f
  40355d:	mov    al,0xcf
  40355f:	jmp    0x40357f
  403561:	mov    al,0xc8
  403563:	jmp    0x40357f
  403565:	mov    al,0xd7
  403567:	jmp    0x40357f
  403569:	mov    al,0xce
  40356b:	jmp    0x40357f
  40356d:	mov    al,0xd8
  40356f:	jmp    0x40357f
  403571:	mov    al,0xda
  403573:	jmp    0x40357f
  403575:	mov    al,0xd9
  403577:	jmp    0x40357f
  403579:	mov    al,0xca
  40357b:	jmp    0x40357f
  40357d:	mov    al,0xff
  40357f:	and    eax,0xff
  403584:	mov    edx,DWORD PTR [edx+0xc]
  403587:	call   0x402904
  40358c:	pop    ebp
  40358d:	ret    0x4
  403590:	mov    eax,DWORD PTR [esp+0x4]
  403594:	test   DWORD PTR [eax+0x4],0x6
  40359b:	jne    0x40362a
  4035a1:	cmp    BYTE PTR ds:0x40a018,0x0
  4035a8:	ja     0x4035b9
  4035aa:	lea    eax,[esp+0x4]
  4035ae:	push   eax
  4035af:	call   0x401078
  4035b4:	cmp    eax,0x0
  4035b7:	je     0x40362a
  4035b9:	mov    eax,DWORD PTR [esp+0x4]
  4035bd:	cld    
  4035be:	call   0x402fd0
  4035c3:	mov    edx,DWORD PTR [esp+0x8]
  4035c7:	push   0x0
  4035c9:	push   eax
  4035ca:	push   0x4035d6
  4035cf:	push   edx
  4035d0:	call   DWORD PTR ds:0x40b018
  4035d6:	mov    ebx,DWORD PTR [esp+0x4]
  4035da:	cmp    DWORD PTR [ebx],0xeedfade
  4035e0:	mov    edx,DWORD PTR [ebx+0x14]
  4035e3:	mov    eax,DWORD PTR [ebx+0x18]
  4035e6:	je     0x403605
  4035e8:	mov    edx,DWORD PTR ds:0x40b010
  4035ee:	test   edx,edx
  4035f0:	je     0x4034f0
  4035f6:	mov    eax,ebx
  4035f8:	call   edx
  4035fa:	test   eax,eax
  4035fc:	je     0x4034f0
  403602:	mov    edx,DWORD PTR [ebx+0xc]
  403605:	call   0x4032a8
  40360a:	mov    ecx,DWORD PTR ds:0x40b004
  403610:	test   ecx,ecx
  403612:	je     0x403616
  403614:	call   ecx
  403616:	mov    ecx,DWORD PTR [esp+0x4]
  40361a:	mov    eax,0xd9
  40361f:	mov    edx,DWORD PTR [ecx+0x14]
  403622:	mov    DWORD PTR [esp],edx
  403625:	jmp    0x4039e8
  40362a:	xor    eax,eax
  40362c:	ret    
  40362d:	lea    eax,[eax+0x0]
  403630:	xor    edx,edx
  403632:	lea    eax,[ebp-0xc]
  403635:	mov    ecx,DWORD PTR fs:[edx]
  403638:	mov    DWORD PTR fs:[edx],eax
  40363b:	mov    DWORD PTR [eax],ecx
  40363d:	mov    DWORD PTR [eax+0x4],0x403590
  403644:	mov    DWORD PTR [eax+0x8],ebp
  403647:	mov    ds:0x40b634,eax
  40364c:	ret    
  40364d:	lea    eax,[eax+0x0]
  403650:	xor    edx,edx
  403652:	mov    eax,ds:0x40b634
  403657:	test   eax,eax
  403659:	je     0x403677
  40365b:	mov    ecx,DWORD PTR fs:[edx]
  40365e:	cmp    eax,ecx
  403660:	jne    0x40366a
  403662:	mov    eax,DWORD PTR [eax]
  403664:	mov    DWORD PTR fs:[edx],eax
  403667:	ret    
  403668:	mov    ecx,DWORD PTR [ecx]
  40366a:	cmp    ecx,0xffffffff
  40366d:	je     0x403677
  40366f:	cmp    DWORD PTR [ecx],eax
  403671:	jne    0x403668
  403673:	mov    eax,DWORD PTR [eax]
  403675:	mov    DWORD PTR [ecx],eax
  403677:	ret    
  403678:	push   ebp
  403679:	mov    ebp,esp
  40367b:	add    esp,0xfffffff8
  40367e:	push   ebx
  40367f:	push   esi
  403680:	push   edi
  403681:	mov    esi,0x40b630
  403686:	mov    eax,DWORD PTR [esi+0x8]
  403689:	test   eax,eax
  40368b:	je     0x4036e1
  40368d:	mov    ebx,DWORD PTR [esi+0xc]
  403690:	mov    eax,DWORD PTR [eax+0x4]
  403693:	mov    DWORD PTR [ebp-0x4],eax
  403696:	xor    eax,eax
  403698:	push   ebp
  403699:	push   0x4036cd
  40369e:	push   DWORD PTR fs:[eax]
  4036a1:	mov    DWORD PTR fs:[eax],esp
  4036a4:	test   ebx,ebx
  4036a6:	jle    0x4036c3
  4036a8:	dec    ebx
  4036a9:	mov    DWORD PTR [esi+0xc],ebx
  4036ac:	mov    eax,DWORD PTR [ebp-0x4]
  4036af:	mov    eax,DWORD PTR [eax+ebx*8+0x4]
  4036b3:	mov    DWORD PTR [ebp-0x8],eax
  4036b6:	cmp    DWORD PTR [ebp-0x8],0x0
  4036ba:	je     0x4036bf
  4036bc:	call   DWORD PTR [ebp-0x8]
  4036bf:	test   ebx,ebx
  4036c1:	jg     0x4036a8
  4036c3:	xor    eax,eax
  4036c5:	pop    edx
  4036c6:	pop    ecx
  4036c7:	pop    ecx
  4036c8:	mov    DWORD PTR fs:[eax],edx
  4036cb:	jmp    0x4036e1
  4036cd:	jmp    0x4032c8
  4036d2:	call   0x403678
  4036d7:	call   0x403454
  4036dc:	call   0x4034a8
  4036e1:	pop    edi
  4036e2:	pop    esi
  4036e3:	pop    ebx
  4036e4:	pop    ecx
  4036e5:	pop    ecx
  4036e6:	pop    ebp
  4036e7:	ret    
  4036e8:	push   ebp
  4036e9:	mov    ebp,esp
  4036eb:	add    esp,0xfffffff8
  4036ee:	push   ebx
  4036ef:	push   esi
  4036f0:	push   edi
  4036f1:	mov    edi,0x40b630
  4036f6:	mov    eax,DWORD PTR [edi+0x8]
  4036f9:	test   eax,eax
  4036fb:	je     0x403751
  4036fd:	mov    esi,DWORD PTR [eax]
  4036ff:	xor    ebx,ebx
  403701:	mov    eax,DWORD PTR [eax+0x4]
  403704:	mov    DWORD PTR [ebp-0x4],eax
  403707:	xor    eax,eax
  403709:	push   ebp
  40370a:	push   0x40373d
  40370f:	push   DWORD PTR fs:[eax]
  403712:	mov    DWORD PTR fs:[eax],esp
  403715:	cmp    esi,ebx
  403717:	jle    0x403733
  403719:	mov    eax,DWORD PTR [ebp-0x4]
  40371c:	mov    eax,DWORD PTR [eax+ebx*8]
  40371f:	mov    DWORD PTR [ebp-0x8],eax
  403722:	inc    ebx
  403723:	mov    DWORD PTR [edi+0xc],ebx
  403726:	cmp    DWORD PTR [ebp-0x8],0x0
  40372a:	je     0x40372f
  40372c:	call   DWORD PTR [ebp-0x8]
  40372f:	cmp    esi,ebx
  403731:	jg     0x403719
  403733:	xor    eax,eax
  403735:	pop    edx
  403736:	pop    ecx
  403737:	pop    ecx
  403738:	mov    DWORD PTR fs:[eax],edx
  40373b:	jmp    0x403751
  40373d:	jmp    0x4032c8
  403742:	call   0x403678
  403747:	call   0x403454
  40374c:	call   0x4034a8
  403751:	pop    edi
  403752:	pop    esi
  403753:	pop    ebx
  403754:	pop    ecx
  403755:	pop    ecx
  403756:	pop    ebp
  403757:	ret    
  403758:	mov    DWORD PTR ds:0x40b014,0x401068
  403762:	mov    DWORD PTR ds:0x40b018,0x401070
  40376c:	mov    ds:0x40b638,eax
  403771:	xor    eax,eax
  403773:	mov    ds:0x40b63c,eax
  403778:	mov    DWORD PTR ds:0x40b640,edx
  40377e:	mov    eax,DWORD PTR [edx+0x4]
  403781:	mov    ds:0x40b02c,eax
  403786:	call   0x403630
  40378b:	mov    BYTE PTR ds:0x40b034,0x0
  403792:	call   0x4036e8
  403797:	ret    
  403798:	push   ebx
  403799:	xor    ebx,ebx
  40379b:	push   edi
  40379c:	push   esi
  40379d:	mov    edi,DWORD PTR [eax+ebx*1]
  4037a0:	lea    esi,[eax+ebx*1+0x4]
  4037a4:	mov    eax,DWORD PTR [esi+0x4]
  4037a7:	mov    edx,DWORD PTR [esi]
  4037a9:	mov    eax,DWORD PTR [eax+ebx*1]
  4037ac:	add    edx,ebx
  4037ae:	call   0x404648
  4037b3:	add    esi,0x8
  4037b6:	dec    edi
  4037b7:	jne    0x4037a4
  4037b9:	pop    esi
  4037ba:	pop    edi
  4037bb:	pop    ebx
  4037bc:	ret    
  4037bd:	lea    eax,[eax+0x0]
  4037c0:	push   ebx
  4037c1:	xor    ebx,ebx
  4037c3:	push   edi
  4037c4:	push   esi
  4037c5:	mov    edi,DWORD PTR [eax+ebx*1]
  4037c8:	lea    esi,[eax+ebx*1+0x4]
  4037cc:	mov    eax,DWORD PTR [esi+0x4]
  4037cf:	mov    edx,DWORD PTR [esi]
  4037d1:	mov    eax,DWORD PTR [eax+ebx*1]
  4037d4:	add    eax,DWORD PTR [esi+0x8]
  4037d7:	mov    DWORD PTR [edx+ebx*1],eax
  4037da:	add    esi,0xc
  4037dd:	dec    edi
  4037de:	jne    0x4037cc
  4037e0:	pop    esi
  4037e1:	pop    edi
  4037e2:	pop    ebx
  4037e3:	ret    
  4037e4:	push   ebx
  4037e5:	push   esi
  4037e6:	push   edi
  4037e7:	mov    esi,0x40a05c
  4037ec:	mov    cl,0x10
  4037ee:	mov    ebx,DWORD PTR ds:0x40a000
  4037f4:	mov    eax,ebx
  4037f6:	mov    edi,0xa
  4037fb:	cdq    
  4037fc:	idiv   edi
  4037fe:	add    dl,0x30
  403801:	xor    eax,eax
  403803:	mov    al,cl
  403805:	mov    BYTE PTR [esi+eax*1],dl
  403808:	mov    eax,ebx
  40380a:	mov    ebx,0xa
  40380f:	cdq    
  403810:	idiv   ebx
  403812:	mov    ebx,eax
  403814:	dec    ecx
  403815:	test   ebx,ebx
  403817:	jne    0x4037f4
  403819:	mov    cl,0x1c
  40381b:	mov    eax,ds:0x40a004
  403820:	mov    edx,eax
  403822:	and    edx,0xf
  403825:	mov    dl,BYTE PTR [edx+0x40a07c]
  40382b:	xor    ebx,ebx
  40382d:	mov    bl,cl
  40382f:	mov    BYTE PTR [esi+ebx*1],dl
  403832:	shr    eax,0x4
  403835:	dec    ecx
  403836:	test   eax,eax
  403838:	jne    0x403820
  40383a:	pop    edi
  40383b:	pop    esi
  40383c:	pop    ebx
  40383d:	ret    
  40383e:	mov    eax,eax
  403840:	xor    eax,eax
  403842:	xchg   DWORD PTR ds:0x40a000,eax
  403848:	neg    eax
  40384a:	sbb    eax,eax
  40384c:	inc    eax
  40384d:	mov    edi,0x40b630
  403852:	mov    ebx,DWORD PTR [edi+0x18]
  403855:	mov    ebp,DWORD PTR [edi+0x14]
  403858:	push   DWORD PTR [edi+0x1c]
  40385b:	push   DWORD PTR [edi+0x20]
  40385e:	mov    esi,DWORD PTR [edi]
  403860:	mov    ecx,0xb
  403865:	rep movs DWORD PTR es:[edi],DWORD PTR ds:[esi]
  403867:	pop    edi
  403868:	pop    esi
  403869:	leave  
  40386a:	ret    0xc
  40386d:	ret    
  40386e:	mov    eax,eax
  403870:	push   ecx
  403871:	cmp    BYTE PTR ds:0x40b044,0x0
  403878:	je     0x4038d1
  40387a:	cmp    WORD PTR ds:0x40b218,0xd7b2
  403883:	jne    0x403899
  403885:	cmp    DWORD PTR ds:0x40b220,0x0
  40388c:	jbe    0x403899
  40388e:	mov    eax,0x40b214
  403893:	call   DWORD PTR ds:0x40b230
  403899:	push   0x0
  40389b:	lea    eax,[esp+0x4]
  40389f:	push   eax
  4038a0:	push   0x1e
  4038a2:	push   0x40a05c
  4038a7:	push   0xfffffff5
  4038a9:	call   0x401060
  4038ae:	push   eax
  4038af:	call   0x401080
  4038b4:	push   0x0
  4038b6:	lea    eax,[esp+0x4]
  4038ba:	push   eax
  4038bb:	push   0x2
  4038bd:	push   0x4038f8
  4038c2:	push   0xfffffff5
  4038c4:	call   0x401060
  4038c9:	push   eax
  4038ca:	call   0x401080
  4038cf:	pop    edx
  4038d0:	ret    
  4038d1:	cmp    BYTE PTR ds:0x40a020,0x0
  4038d8:	jne    0x4038ed
  4038da:	push   0x0
  4038dc:	push   0x40a054
  4038e1:	push   0x40a05c
  4038e6:	push   0x0
  4038e8:	call   0x401098
  4038ed:	pop    edx
  4038ee:	ret    
  4038ef:	add    bh,bh
  4038f1:	(bad)  
  4038f2:	(bad)  
  4038f3:	inc    DWORD PTR [edx]
  4038f5:	add    BYTE PTR [eax],al
  4038f7:	add    BYTE PTR ds:0x5300000a,cl
  4038fd:	push   esi
  4038fe:	push   edi
  4038ff:	push   ebp
  403900:	push   ecx
  403901:	mov    ebx,0x40b630
  403906:	mov    esi,0x40b040
  40390b:	cmp    BYTE PTR [ebx+0x28],0x0
  40390f:	jne    0x403927
  403911:	cmp    DWORD PTR [esi],0x0
  403914:	je     0x403927
  403916:	mov    eax,DWORD PTR [esi]
  403918:	mov    DWORD PTR [esp],eax
  40391b:	xor    eax,eax
  40391d:	mov    DWORD PTR [esi],eax
  40391f:	call   DWORD PTR [esp]
  403922:	cmp    DWORD PTR [esi],0x0
  403925:	jne    0x403916
  403927:	cmp    DWORD PTR ds:0x40a004,0x0
  40392e:	je     0x403941
  403930:	call   0x4037e4
  403935:	call   0x403870
  40393a:	xor    eax,eax
  40393c:	mov    ds:0x40a004,eax
  403941:	cmp    BYTE PTR [ebx+0x28],0x2
  403945:	jne    0x403955
  403947:	cmp    DWORD PTR ds:0x40a000,0x0
  40394e:	jne    0x403955
  403950:	xor    eax,eax
  403952:	mov    DWORD PTR [ebx+0xc],eax
  403955:	call   0x403678
  40395a:	cmp    BYTE PTR [ebx+0x28],0x1
  40395e:	jbe    0x403969
  403960:	cmp    DWORD PTR ds:0x40a000,0x0
  403967:	je     0x40398c
  403969:	mov    edi,DWORD PTR [ebx+0x10]
  40396c:	test   edi,edi
  40396e:	je     0x40398c
  403970:	mov    eax,edi
  403972:	call   0x4045ac
  403977:	mov    ebp,DWORD PTR [ebx+0x10]
  40397a:	mov    esi,DWORD PTR [ebp+0x10]
  40397d:	cmp    esi,DWORD PTR [ebp+0x4]
  403980:	je     0x40398c
  403982:	test   esi,esi
  403984:	je     0x40398c
  403986:	push   esi
  403987:	call   0x4010b0
  40398c:	call   0x403650
  403991:	cmp    BYTE PTR [ebx+0x28],0x1
  403995:	jne    0x40399a
  403997:	call   DWORD PTR [ebx+0x24]
  40399a:	cmp    BYTE PTR [ebx+0x28],0x0
  40399e:	je     0x4039a5
  4039a0:	call   0x403840
  4039a5:	cmp    DWORD PTR [ebx],0x0
  4039a8:	jne    0x4039c4
  4039aa:	cmp    DWORD PTR ds:0x40b024,0x0
  4039b1:	je     0x4039b9
  4039b3:	call   DWORD PTR ds:0x40b024
  4039b9:	mov    eax,ds:0x40a000
  4039be:	push   eax
  4039bf:	call   0x401090
  4039c4:	mov    eax,DWORD PTR [ebx]
  4039c6:	mov    esi,eax
  4039c8:	mov    edi,ebx
  4039ca:	mov    ecx,0xb
  4039cf:	rep movs DWORD PTR es:[edi],DWORD PTR ds:[esi]
  4039d1:	jmp    0x403941
  4039d6:	pop    edx
  4039d7:	pop    ebp
  4039d8:	pop    edi
  4039d9:	pop    esi
  4039da:	pop    ebx
  4039db:	ret    
  4039dc:	mov    ds:0x40a000,eax
  4039e1:	call   0x4038fc
  4039e6:	ret    
  4039e7:	nop
  4039e8:	pop    DWORD PTR ds:0x40a004
  4039ee:	jmp    0x4039dc
  4039f3:	ret    
  4039f4:	mov    edx,DWORD PTR [eax]
  4039f6:	test   edx,edx
  4039f8:	je     0x403a16
  4039fa:	mov    DWORD PTR [eax],0x0
  403a00:	mov    ecx,DWORD PTR [edx-0x8]
  403a03:	dec    ecx
  403a04:	jl     0x403a16
  403a06:	lock dec DWORD PTR [edx-0x8]
  403a0a:	jne    0x403a16
  403a0c:	push   eax
  403a0d:	lea    eax,[edx-0x8]
  403a10:	call   0x402894
  403a15:	pop    eax
  403a16:	ret    
  403a17:	nop
  403a18:	push   ebx
  403a19:	push   esi
  403a1a:	mov    ebx,eax
  403a1c:	mov    esi,edx
  403a1e:	mov    edx,DWORD PTR [ebx]
  403a20:	test   edx,edx
  403a22:	je     0x403a3e
  403a24:	mov    DWORD PTR [ebx],0x0
  403a2a:	mov    ecx,DWORD PTR [edx-0x8]
  403a2d:	dec    ecx
  403a2e:	jl     0x403a3e
  403a30:	lock dec DWORD PTR [edx-0x8]
  403a34:	jne    0x403a3e
  403a36:	lea    eax,[edx-0x8]
  403a39:	call   0x402894
  403a3e:	add    ebx,0x4
  403a41:	dec    esi
  403a42:	jne    0x403a1e
  403a44:	pop    esi
  403a45:	pop    ebx
  403a46:	ret    
  403a47:	nop
  403a48:	test   edx,edx
  403a4a:	je     0x403a70
  403a4c:	mov    ecx,DWORD PTR [edx-0x8]
  403a4f:	inc    ecx
  403a50:	jg     0x403a6c
  403a52:	push   eax
  403a53:	push   edx
  403a54:	mov    eax,DWORD PTR [edx-0x4]
  403a57:	call   0x403ab8
  403a5c:	mov    edx,eax
  403a5e:	pop    eax
  403a5f:	push   edx
  403a60:	mov    ecx,DWORD PTR [eax-0x4]
  403a63:	call   0x4029b8
  403a68:	pop    edx
  403a69:	pop    eax
  403a6a:	jmp    0x403a70
  403a6c:	lock inc DWORD PTR [edx-0x8]
  403a70:	xchg   DWORD PTR [eax],edx
  403a72:	test   edx,edx
  403a74:	je     0x403a8a
  403a76:	mov    ecx,DWORD PTR [edx-0x8]
  403a79:	dec    ecx
  403a7a:	jl     0x403a8a
  403a7c:	lock dec DWORD PTR [edx-0x8]
  403a80:	jne    0x403a8a
  403a82:	lea    eax,[edx-0x8]
  403a85:	call   0x402894
  403a8a:	ret    
  403a8b:	nop
  403a8c:	test   edx,edx
  403a8e:	je     0x403a9a
  403a90:	mov    ecx,DWORD PTR [edx-0x8]
  403a93:	inc    ecx
  403a94:	jle    0x403a9a
  403a96:	lock inc DWORD PTR [edx-0x8]
  403a9a:	xchg   DWORD PTR [eax],edx
  403a9c:	test   edx,edx
  403a9e:	je     0x403ab4
  403aa0:	mov    ecx,DWORD PTR [edx-0x8]
  403aa3:	dec    ecx
  403aa4:	jl     0x403ab4
  403aa6:	lock dec DWORD PTR [edx-0x8]
  403aaa:	jne    0x403ab4
  403aac:	lea    eax,[edx-0x8]
  403aaf:	call   0x402894
  403ab4:	ret    
  403ab5:	lea    eax,[eax+0x0]
  403ab8:	test   eax,eax
  403aba:	jle    0x403ae0
  403abc:	push   eax
  403abd:	add    eax,0xa
  403ac0:	and    eax,0xfffffffe
  403ac3:	push   eax
  403ac4:	call   0x402864
  403ac9:	pop    edx
  403aca:	mov    WORD PTR [edx+eax*1-0x2],0x0
  403ad1:	add    eax,0x8
  403ad4:	pop    edx
  403ad5:	mov    DWORD PTR [eax-0x4],edx
  403ad8:	mov    DWORD PTR [eax-0x8],0x1
  403adf:	ret    
  403ae0:	xor    eax,eax
  403ae2:	ret    
  403ae3:	nop
  403ae4:	push   ebx
  403ae5:	push   esi
  403ae6:	push   edi
  403ae7:	mov    ebx,eax
  403ae9:	mov    esi,edx
  403aeb:	mov    edi,ecx
  403aed:	mov    eax,edi
  403aef:	call   0x403ab8
  403af4:	mov    ecx,edi
  403af6:	mov    edi,eax
  403af8:	test   esi,esi
  403afa:	je     0x403b05
  403afc:	mov    edx,eax
  403afe:	mov    eax,esi
  403b00:	call   0x4029b8
  403b05:	mov    eax,ebx
  403b07:	call   0x4039f4
  403b0c:	mov    DWORD PTR [ebx],edi
  403b0e:	pop    edi
  403b0f:	pop    esi
  403b10:	pop    ebx
  403b11:	ret    
  403b12:	mov    eax,eax
  403b14:	push   ebp
  403b15:	mov    ebp,esp
  403b17:	push   0x0
  403b19:	push   0x0
  403b1b:	push   edx
  403b1c:	push   eax
  403b1d:	mov    eax,DWORD PTR [ebp+0x8]
  403b20:	push   eax
  403b21:	push   ecx
  403b22:	push   0x0
  403b24:	mov    eax,ds:0x40b5b8
  403b29:	push   eax
  403b2a:	call   0x401128
  403b2f:	pop    ebp
  403b30:	ret    0x4
  403b33:	nop
  403b34:	push   ebx
  403b35:	push   esi
  403b36:	push   edi
  403b37:	push   ebp
  403b38:	add    esp,0xfffff004
  403b3e:	push   eax
  403b3f:	add    esp,0xfffffffc
  403b42:	mov    esi,ecx
  403b44:	mov    DWORD PTR [esp],edx
  403b47:	mov    edi,eax
  403b49:	test   esi,esi
  403b4b:	jg     0x403b56
  403b4d:	mov    eax,edi
  403b4f:	call   0x4039f4
  403b54:	jmp    0x403bb5
  403b56:	lea    ebp,[esi+0x1]
  403b59:	cmp    ebp,0x7ff
  403b5f:	jge    0x403b89
  403b61:	push   esi
  403b62:	lea    eax,[esp+0x8]
  403b66:	mov    ecx,DWORD PTR [esp+0x4]
  403b6a:	mov    edx,0xfff
  403b6f:	call   0x403b14
  403b74:	mov    ebx,eax
  403b76:	test   ebx,ebx
  403b78:	jl     0x403b89
  403b7a:	lea    edx,[esp+0x4]
  403b7e:	mov    eax,edi
  403b80:	mov    ecx,ebx
  403b82:	call   0x403ae4
  403b87:	jmp    0x403bb5
  403b89:	mov    ebx,ebp
  403b8b:	add    ebx,ebx
  403b8d:	mov    eax,edi
  403b8f:	mov    edx,ebx
  403b91:	call   0x403de8
  403b96:	push   esi
  403b97:	mov    eax,DWORD PTR [edi]
  403b99:	mov    ecx,DWORD PTR [esp+0x4]
  403b9d:	mov    edx,ebx
  403b9f:	call   0x403b14
  403ba4:	mov    ebx,eax
  403ba6:	test   ebx,ebx
  403ba8:	jge    0x403bac
  403baa:	xor    ebx,ebx
  403bac:	mov    eax,edi
  403bae:	mov    edx,ebx
  403bb0:	call   0x403de8
  403bb5:	add    esp,0x1004
  403bbb:	pop    ebp
  403bbc:	pop    edi
  403bbd:	pop    esi
  403bbe:	pop    ebx
  403bbf:	ret    
  403bc0:	push   edx
  403bc1:	mov    edx,esp
  403bc3:	mov    ecx,0x1
  403bc8:	call   0x403ae4
  403bcd:	pop    edx
  403bce:	ret    
  403bcf:	nop
  403bd0:	xor    ecx,ecx
  403bd2:	test   edx,edx
  403bd4:	je     0x403bf7
  403bd6:	push   edx
  403bd7:	cmp    cl,BYTE PTR [edx]
  403bd9:	je     0x403bf2
  403bdb:	cmp    cl,BYTE PTR [edx+0x1]
  403bde:	je     0x403bf1
  403be0:	cmp    cl,BYTE PTR [edx+0x2]
  403be3:	je     0x403bf0
  403be5:	cmp    cl,BYTE PTR [edx+0x3]
  403be8:	je     0x403bef
  403bea:	add    edx,0x4
  403bed:	jmp    0x403bd7
  403bef:	inc    edx
  403bf0:	inc    edx
  403bf1:	inc    edx
  403bf2:	mov    ecx,edx
  403bf4:	pop    edx
  403bf5:	sub    ecx,edx
  403bf7:	jmp    0x403ae4
  403bfc:	ret    
  403bfd:	lea    eax,[eax+0x0]
  403c00:	xor    ecx,ecx
  403c02:	test   edx,edx
  403c04:	je     0x403c33
  403c06:	push   edx
  403c07:	cmp    cx,WORD PTR [edx]
  403c0a:	je     0x403c2c
  403c0c:	cmp    cx,WORD PTR [edx+0x2]
  403c10:	je     0x403c29
  403c12:	cmp    cx,WORD PTR [edx+0x4]
  403c16:	je     0x403c26
  403c18:	cmp    cx,WORD PTR [edx+0x6]
  403c1c:	je     0x403c23
  403c1e:	add    edx,0x8
  403c21:	jmp    0x403c07
  403c23:	add    edx,0x2
  403c26:	add    edx,0x2
  403c29:	add    edx,0x2
  403c2c:	mov    ecx,edx
  403c2e:	pop    edx
  403c2f:	sub    ecx,edx
  403c31:	shr    ecx,1
  403c33:	jmp    0x403b34
  403c38:	ret    
  403c39:	lea    eax,[eax+0x0]
  403c3c:	push   edi
  403c3d:	push   eax
  403c3e:	push   ecx
  403c3f:	mov    edi,edx
  403c41:	xor    eax,eax
  403c43:	repnz scas al,BYTE PTR es:[edi]
  403c45:	jne    0x403c49
  403c47:	not    ecx
  403c49:	pop    eax
  403c4a:	add    ecx,eax
  403c4c:	pop    eax
  403c4d:	pop    edi
  403c4e:	jmp    0x403ae4
  403c53:	ret    
  403c54:	xor    ecx,ecx
  403c56:	test   edx,edx
  403c58:	je     0x403c5f
  403c5a:	mov    ecx,DWORD PTR [edx-0x4]
  403c5d:	shr    ecx,1
  403c5f:	jmp    0x403b34
  403c64:	ret    
  403c65:	lea    eax,[eax+0x0]
  403c68:	test   eax,eax
  403c6a:	je     0x403c6f
  403c6c:	mov    eax,DWORD PTR [eax-0x4]
  403c6f:	ret    
  403c70:	test   edx,edx
  403c72:	je     0x403cb3
  403c74:	mov    ecx,DWORD PTR [eax]
  403c76:	test   ecx,ecx
  403c78:	je     0x403a48
  403c7e:	push   ebx
  403c7f:	push   esi
  403c80:	push   edi
  403c81:	mov    ebx,eax
  403c83:	mov    esi,edx
  403c85:	mov    edi,DWORD PTR [ecx-0x4]
  403c88:	mov    edx,DWORD PTR [esi-0x4]
  403c8b:	add    edx,edi
  403c8d:	cmp    esi,ecx
  403c8f:	je     0x403ca8
  403c91:	call   0x403de8
  403c96:	mov    eax,esi
  403c98:	mov    ecx,DWORD PTR [esi-0x4]
  403c9b:	mov    edx,DWORD PTR [ebx]
  403c9d:	add    edx,edi
  403c9f:	call   0x4029b8
  403ca4:	pop    edi
  403ca5:	pop    esi
  403ca6:	pop    ebx
  403ca7:	ret    
  403ca8:	call   0x403de8
  403cad:	mov    eax,DWORD PTR [ebx]
  403caf:	mov    ecx,edi
  403cb1:	jmp    0x403c9b
  403cb3:	ret    
  403cb4:	push   ebx
  403cb5:	push   esi
  403cb6:	push   edi
  403cb7:	push   edx
  403cb8:	push   eax
  403cb9:	mov    ebx,edx
  403cbb:	xor    edi,edi
  403cbd:	mov    ecx,DWORD PTR [esp+edx*4+0x14]
  403cc1:	test   ecx,ecx
  403cc3:	je     0x403cd1
  403cc5:	cmp    DWORD PTR [eax],ecx
  403cc7:	jne    0x403cd1
  403cc9:	mov    edi,ecx
  403ccb:	mov    eax,DWORD PTR [ecx-0x4]
  403cce:	dec    edx
  403ccf:	jmp    0x403cd3
  403cd1:	xor    eax,eax
  403cd3:	mov    ecx,DWORD PTR [esp+edx*4+0x14]
  403cd7:	test   ecx,ecx
  403cd9:	je     0x403ce4
  403cdb:	add    eax,DWORD PTR [ecx-0x4]
  403cde:	cmp    edi,ecx
  403ce0:	jne    0x403ce4
  403ce2:	xor    edi,edi
  403ce4:	dec    edx
  403ce5:	jne    0x403cd3
  403ce7:	test   edi,edi
  403ce9:	je     0x403d02
  403ceb:	mov    edx,eax
  403ced:	mov    eax,DWORD PTR [esp]
  403cf0:	mov    esi,DWORD PTR [edi-0x4]
  403cf3:	call   0x403de8
  403cf8:	mov    edi,DWORD PTR [esp]
  403cfb:	push   DWORD PTR [edi]
  403cfd:	add    esi,DWORD PTR [edi]
  403cff:	dec    ebx
  403d00:	jmp    0x403d0a
  403d02:	call   0x403ab8
  403d07:	push   eax
  403d08:	mov    esi,eax
  403d0a:	mov    eax,DWORD PTR [esp+ebx*4+0x18]
  403d0e:	mov    edx,esi
  403d10:	test   eax,eax
  403d12:	je     0x403d1e
  403d14:	mov    ecx,DWORD PTR [eax-0x4]
  403d17:	add    esi,ecx
  403d19:	call   0x4029b8
  403d1e:	dec    ebx
  403d1f:	jne    0x403d0a
  403d21:	pop    edx
  403d22:	pop    eax
  403d23:	test   edi,edi
  403d25:	jne    0x403d33
  403d27:	test   edx,edx
  403d29:	je     0x403d2e
  403d2b:	dec    DWORD PTR [edx-0x8]
  403d2e:	call   0x403a48
  403d33:	pop    edx
  403d34:	pop    edi
  403d35:	pop    esi
  403d36:	pop    ebx
  403d37:	pop    eax
  403d38:	lea    esp,[esp+edx*4]
  403d3b:	jmp    eax
  403d3d:	ret    
  403d3e:	mov    eax,eax
  403d40:	test   eax,eax
  403d42:	je     0x403d4e
  403d44:	mov    edx,DWORD PTR [eax-0x8]
  403d47:	inc    edx
  403d48:	jle    0x403d4e
  403d4a:	lock inc DWORD PTR [eax-0x8]
  403d4e:	ret    
  403d4f:	nop
  403d50:	test   eax,eax
  403d52:	je     0x403d56
  403d54:	ret    
  403d55:	add    BYTE PTR [eax+0x403d55],bh
  403d5b:	ret    
  403d5c:	mov    edx,DWORD PTR [eax]
  403d5e:	test   edx,edx
  403d60:	je     0x403d9a
  403d62:	mov    ecx,DWORD PTR [edx-0x8]
  403d65:	dec    ecx
  403d66:	je     0x403d9a
  403d68:	push   ebx
  403d69:	mov    ebx,eax
  403d6b:	mov    eax,DWORD PTR [edx-0x4]
  403d6e:	call   0x403ab8
  403d73:	mov    edx,eax
  403d75:	mov    eax,DWORD PTR [ebx]
  403d77:	mov    DWORD PTR [ebx],edx
  403d79:	push   eax
  403d7a:	mov    ecx,DWORD PTR [eax-0x4]
  403d7d:	call   0x4029b8
  403d82:	pop    eax
  403d83:	mov    ecx,DWORD PTR [eax-0x8]
  403d86:	dec    ecx
  403d87:	jl     0x403d97
  403d89:	lock dec DWORD PTR [eax-0x8]
  403d8d:	jne    0x403d97
  403d8f:	lea    eax,[eax-0x8]
  403d92:	call   0x402894
  403d97:	mov    edx,DWORD PTR [ebx]
  403d99:	pop    ebx
  403d9a:	mov    eax,edx
  403d9c:	ret    
  403d9d:	lea    eax,[eax+0x0]
  403da0:	jmp    0x403d5c
  403da5:	ret    
  403da6:	mov    eax,eax
  403da8:	push   ebx
  403da9:	test   eax,eax
  403dab:	je     0x403dda
  403dad:	mov    ebx,DWORD PTR [eax-0x4]
  403db0:	test   ebx,ebx
  403db2:	je     0x403dda
  403db4:	dec    edx
  403db5:	jl     0x403dd2
  403db7:	cmp    edx,ebx
  403db9:	jge    0x403dda
  403dbb:	sub    ebx,edx
  403dbd:	test   ecx,ecx
  403dbf:	jl     0x403dda
  403dc1:	cmp    ecx,ebx
  403dc3:	jg     0x403dd6
  403dc5:	add    edx,eax
  403dc7:	mov    eax,DWORD PTR [esp+0x8]
  403dcb:	call   0x403ae4
  403dd0:	jmp    0x403de3
  403dd2:	xor    edx,edx
  403dd4:	jmp    0x403dbb
  403dd6:	mov    ecx,ebx
  403dd8:	jmp    0x403dc5
  403dda:	mov    eax,DWORD PTR [esp+0x8]
  403dde:	call   0x4039f4
  403de3:	pop    ebx
  403de4:	ret    0x4
  403de7:	ret    
  403de8:	push   ebx
  403de9:	push   esi
  403dea:	push   edi
  403deb:	mov    ebx,eax
  403ded:	mov    esi,edx
  403def:	xor    edi,edi
  403df1:	test   edx,edx
  403df3:	jle    0x403e3d
  403df5:	mov    eax,DWORD PTR [ebx]
  403df7:	test   eax,eax
  403df9:	je     0x403e1e
  403dfb:	cmp    DWORD PTR [eax-0x8],0x1
  403dff:	jne    0x403e1e
  403e01:	sub    eax,0x8
  403e04:	add    edx,0x9
  403e07:	push   eax
  403e08:	mov    eax,esp
  403e0a:	call   0x4028b4
  403e0f:	pop    eax
  403e10:	add    eax,0x8
  403e13:	mov    DWORD PTR [ebx],eax
  403e15:	mov    DWORD PTR [eax-0x4],esi
  403e18:	mov    BYTE PTR [esi+eax*1],0x0
  403e1c:	jmp    0x403e46
  403e1e:	mov    eax,edx
  403e20:	call   0x403ab8
  403e25:	mov    edi,eax
  403e27:	mov    eax,DWORD PTR [ebx]
  403e29:	test   eax,eax
  403e2b:	je     0x403e3d
  403e2d:	mov    edx,edi
  403e2f:	mov    ecx,DWORD PTR [eax-0x4]
  403e32:	cmp    ecx,esi
  403e34:	jl     0x403e38
  403e36:	mov    ecx,esi
  403e38:	call   0x4029b8
  403e3d:	mov    eax,ebx
  403e3f:	call   0x4039f4
  403e44:	mov    DWORD PTR [ebx],edi
  403e46:	pop    edi
  403e47:	pop    esi
  403e48:	pop    ebx
  403e49:	ret    
  403e4a:	mov    eax,eax
  403e4c:	mov    edx,DWORD PTR [eax]
  403e4e:	test   edx,edx
  403e50:	je     0x403e60
  403e52:	mov    DWORD PTR [eax],0x0
  403e58:	push   eax
  403e59:	push   edx
  403e5a:	call   0x401130
  403e5f:	pop    eax
  403e60:	ret    
  403e61:	lea    eax,[eax+0x0]
  403e64:	push   ebx
  403e65:	push   esi
  403e66:	mov    ebx,eax
  403e68:	mov    esi,edx
  403e6a:	mov    eax,DWORD PTR [ebx]
  403e6c:	test   eax,eax
  403e6e:	je     0x403e7c
  403e70:	mov    DWORD PTR [ebx],0x0
  403e76:	push   eax
  403e77:	call   0x401130
  403e7c:	add    ebx,0x4
  403e7f:	dec    esi
  403e80:	jne    0x403e6a
  403e82:	pop    esi
  403e83:	pop    ebx
  403e84:	ret    
  403e85:	lea    eax,[eax+0x0]
  403e88:	xor    ecx,ecx
  403e8a:	push   ebx
  403e8b:	mov    cl,BYTE PTR [edx+0x1]
  403e8e:	push   esi
  403e8f:	push   edi
  403e90:	mov    ebx,eax
  403e92:	lea    esi,[ecx+edx*1+0xa]
  403e96:	mov    edi,DWORD PTR [ecx+edx*1+0x6]
  403e9a:	mov    edx,DWORD PTR [esi]
  403e9c:	mov    eax,DWORD PTR [esi+0x4]
  403e9f:	add    eax,ebx
  403ea1:	mov    edx,DWORD PTR [edx]
  403ea3:	mov    ecx,0x1
  403ea8:	call   0x403ed4
  403ead:	add    esi,0x8
  403eb0:	dec    edi
  403eb1:	jg     0x403e9a
  403eb3:	mov    eax,ebx
  403eb5:	pop    edi
  403eb6:	pop    esi
  403eb7:	pop    ebx
  403eb8:	ret    
  403eb9:	lea    eax,[eax+0x0]
  403ebc:	cmp    DWORD PTR ds:0x40a00c,0x0
  403ec3:	je     0x403ecc
  403ec5:	call   DWORD PTR ds:0x40a00c
  403ecb:	ret    
  403ecc:	mov    al,0x10
  403ece:	call   0x40295c
  403ed3:	ret    
  403ed4:	cmp    ecx,0x0
  403ed7:	je     0x403fbd
  403edd:	push   eax
  403ede:	push   ebx
  403edf:	push   esi
  403ee0:	push   edi
  403ee1:	mov    ebx,eax
  403ee3:	mov    esi,edx
  403ee5:	mov    edi,ecx
  403ee7:	xor    edx,edx
  403ee9:	mov    al,BYTE PTR [esi]
  403eeb:	mov    dl,BYTE PTR [esi+0x1]
  403eee:	cmp    al,0xa
  403ef0:	je     0x403f17
  403ef2:	cmp    al,0xb
  403ef4:	je     0x403f34
  403ef6:	cmp    al,0xc
  403ef8:	je     0x403f4b
  403efa:	cmp    al,0xd
  403efc:	je     0x403f5a
  403efe:	cmp    al,0xe
  403f00:	je     0x403f78
  403f02:	cmp    al,0xf
  403f04:	je     0x403f8e
  403f0a:	cmp    al,0x11
  403f0c:	je     0x403f9d
  403f12:	jmp    0x403fae
  403f17:	cmp    ecx,0x1
  403f1a:	mov    eax,ebx
  403f1c:	jg     0x403f28
  403f1e:	call   0x4039f4
  403f23:	jmp    0x403fb9
  403f28:	mov    edx,ecx
  403f2a:	call   0x403a18
  403f2f:	jmp    0x403fb9
  403f34:	cmp    ecx,0x1
  403f37:	mov    eax,ebx
  403f39:	jg     0x403f42
  403f3b:	call   0x403e4c
  403f40:	jmp    0x403fb9
  403f42:	mov    edx,ecx
  403f44:	call   0x403e64
  403f49:	jmp    0x403fb9
  403f4b:	mov    eax,ebx
  403f4d:	add    ebx,0x10
  403f50:	call   0x403ebc
  403f55:	dec    edi
  403f56:	jg     0x403f4b
  403f58:	jmp    0x403fb9
  403f5a:	push   ebp
  403f5b:	mov    ebp,edx
  403f5d:	mov    edx,DWORD PTR [esi+ebp*1+0xa]
  403f61:	mov    eax,ebx
  403f63:	add    ebx,DWORD PTR [esi+ebp*1+0x2]
  403f67:	mov    ecx,DWORD PTR [esi+ebp*1+0x6]
  403f6b:	mov    edx,DWORD PTR [edx]
  403f6d:	call   0x403ed4
  403f72:	dec    edi
  403f73:	jg     0x403f5d
  403f75:	pop    ebp
  403f76:	jmp    0x403fb9
  403f78:	push   ebp
  403f79:	mov    ebp,edx
  403f7b:	mov    eax,ebx
  403f7d:	add    ebx,DWORD PTR [esi+ebp*1+0x2]
  403f81:	mov    edx,esi
  403f83:	call   0x403e88
  403f88:	dec    edi
  403f89:	jg     0x403f7b
  403f8b:	pop    ebp
  403f8c:	jmp    0x403fb9
  403f8e:	mov    eax,ebx
  403f90:	add    ebx,0x4
  403f93:	call   0x404630
  403f98:	dec    edi
  403f99:	jg     0x403f8e
  403f9b:	jmp    0x403fb9
  403f9d:	mov    eax,ebx
  403f9f:	mov    edx,esi
  403fa1:	add    ebx,0x4
  403fa4:	call   0x403fec
  403fa9:	dec    edi
  403faa:	jg     0x403f9d
  403fac:	jmp    0x403fb9
  403fae:	pop    edi
  403faf:	pop    esi
  403fb0:	pop    ebx
  403fb1:	pop    eax
  403fb2:	mov    al,0x2
  403fb4:	jmp    0x40295c
  403fb9:	pop    edi
  403fba:	pop    esi
  403fbb:	pop    ebx
  403fbc:	pop    eax
  403fbd:	ret    
  403fbe:	mov    eax,eax
  403fc0:	mov    al,0x11
  403fc2:	jmp    0x40295c
  403fc7:	ret    
  403fc8:	push   edx
  403fc9:	push   eax
  403fca:	mov    eax,DWORD PTR [esp+0x10]
  403fce:	mul    DWORD PTR [esp]
  403fd1:	mov    ecx,eax
  403fd3:	mov    eax,DWORD PTR [esp+0x4]
  403fd7:	mul    DWORD PTR [esp+0xc]
  403fdb:	add    ecx,eax
  403fdd:	mov    eax,DWORD PTR [esp]
  403fe0:	mul    DWORD PTR [esp+0xc]
  403fe4:	add    edx,ecx
  403fe6:	pop    ecx
  403fe7:	pop    ecx
  403fe8:	ret    0x8
  403feb:	ret    
  403fec:	mov    ecx,DWORD PTR [eax]
  403fee:	test   ecx,ecx
  403ff0:	je     0x404025
  403ff2:	mov    DWORD PTR [eax],0x0
  403ff8:	lock dec DWORD PTR [ecx-0x8]
  403ffc:	jne    0x404025
  403ffe:	push   eax
  403fff:	mov    eax,ecx
  404001:	xor    ecx,ecx
  404003:	mov    cl,BYTE PTR [edx+0x1]
  404006:	mov    edx,DWORD PTR [ecx+edx*1+0x6]
  40400a:	test   edx,edx
  40400c:	je     0x40401c
  40400e:	mov    ecx,DWORD PTR [eax-0x4]
  404011:	test   ecx,ecx
  404013:	je     0x40401c
  404015:	mov    edx,DWORD PTR [edx]
  404017:	call   0x403ed4
  40401c:	sub    eax,0x8
  40401f:	call   0x402894
  404024:	pop    eax
  404025:	ret    
  404026:	mov    eax,eax
  404028:	push   ebx
  404029:	push   esi
  40402a:	add    esp,0xfffffef8
  404030:	mov    ebx,eax
  404032:	cmp    DWORD PTR [ebx+0x10],0x0
  404036:	jne    0x404063
  404038:	push   0x105
  40403d:	lea    eax,[esp+0x4]
  404041:	push   eax
  404042:	mov    eax,DWORD PTR [ebx+0x4]
  404045:	push   eax
  404046:	call   0x4010c8
  40404b:	mov    eax,esp
  40404d:	mov    dl,0x1
  40404f:	call   0x4042bc
  404054:	mov    esi,eax
  404056:	mov    DWORD PTR [ebx+0x10],esi
  404059:	test   esi,esi
  40405b:	jne    0x404063
  40405d:	mov    eax,DWORD PTR [ebx+0x4]
  404060:	mov    DWORD PTR [ebx+0x10],eax
  404063:	mov    eax,DWORD PTR [ebx+0x10]
  404066:	add    esp,0x108
  40406c:	pop    esi
  40406d:	pop    ebx
  40406e:	ret    
  40406f:	nop
  404070:	push   ebx
  404071:	push   esi
  404072:	push   edi
  404073:	push   ecx
  404074:	mov    ebx,eax
  404076:	mov    esi,esp
  404078:	mov    eax,ds:0x40a024
  40407d:	mov    DWORD PTR [esi],eax
  40407f:	cmp    DWORD PTR [esi],0x0
  404082:	je     0x4040af
  404084:	mov    eax,DWORD PTR [esi]
  404086:	cmp    ebx,DWORD PTR [eax+0x4]
  404089:	je     0x404099
  40408b:	mov    eax,DWORD PTR [esi]
  40408d:	cmp    ebx,DWORD PTR [eax+0x8]
  404090:	je     0x404099
  404092:	mov    eax,DWORD PTR [esi]
  404094:	cmp    ebx,DWORD PTR [eax+0xc]
  404097:	jne    0x4040a4
  404099:	mov    eax,DWORD PTR [esi]
  40409b:	call   0x404028
  4040a0:	mov    edi,eax
  4040a2:	jmp    0x4040b1
  4040a4:	mov    eax,DWORD PTR [esi]
  4040a6:	mov    eax,DWORD PTR [eax]
  4040a8:	mov    DWORD PTR [esi],eax
  4040aa:	cmp    DWORD PTR [esi],0x0
  4040ad:	jne    0x404084
  4040af:	mov    edi,ebx
  4040b1:	mov    eax,edi
  4040b3:	pop    edx
  4040b4:	pop    edi
  4040b5:	pop    esi
  4040b6:	pop    ebx
  4040b7:	ret    
  4040b8:	push   ebp
  4040b9:	mov    ebp,esp
  4040bb:	push   ecx
  4040bc:	push   ebx
  4040bd:	push   esi
  4040be:	lea    esi,[ebp-0x4]
  4040c1:	mov    DWORD PTR [esi],eax
  4040c3:	jmp    0x4040cf
  4040c5:	mov    eax,DWORD PTR [esi]
  4040c7:	push   eax
  4040c8:	call   0x401088
  4040cd:	mov    DWORD PTR [esi],eax
  4040cf:	mov    eax,DWORD PTR [esi]
  4040d1:	mov    bl,BYTE PTR [eax]
  4040d3:	test   bl,bl
  4040d5:	je     0x4040dc
  4040d7:	cmp    bl,0x5c
  4040da:	jne    0x4040c5
  4040dc:	mov    eax,DWORD PTR [esi]
  4040de:	pop    esi
  4040df:	pop    ebx
  4040e0:	pop    ecx
  4040e1:	pop    ebp
  4040e2:	ret    
  4040e3:	nop
  4040e4:	push   ebp
  4040e5:	mov    ebp,esp
  4040e7:	add    esp,0xfffffda4
  4040ed:	push   ebx
  4040ee:	push   esi
  4040ef:	push   edi
  4040f0:	mov    DWORD PTR [ebp-0x8],edx
  4040f3:	mov    DWORD PTR [ebp-0x4],eax
  4040f6:	mov    eax,DWORD PTR [ebp-0x4]
  4040f9:	mov    DWORD PTR [ebp-0xc],eax
  4040fc:	push   0x404298
  404101:	call   0x4010d0
  404106:	mov    esi,eax
  404108:	test   esi,esi
  40410a:	je     0x404150
  40410c:	push   0x4042a8
  404111:	push   esi
  404112:	call   0x4010d8
  404117:	mov    DWORD PTR [ebp-0x18],eax
  40411a:	cmp    DWORD PTR [ebp-0x18],0x0
  40411e:	je     0x404150
  404120:	push   0x105
  404125:	lea    eax,[ebp-0x25b]
  40412b:	push   eax
  40412c:	mov    eax,DWORD PTR [ebp-0x4]
  40412f:	push   eax
  404130:	call   DWORD PTR [ebp-0x18]
  404133:	test   eax,eax
  404135:	je     0x404150
  404137:	mov    eax,DWORD PTR [ebp-0x8]
  40413a:	push   eax
  40413b:	lea    eax,[ebp-0x25b]
  404141:	push   eax
  404142:	mov    eax,DWORD PTR [ebp-0x4]
  404145:	push   eax
  404146:	call   0x401100
  40414b:	jmp    0x40428c
  404150:	mov    eax,DWORD PTR [ebp-0x4]
  404153:	cmp    BYTE PTR [eax],0x5c
  404156:	jne    0x404199
  404158:	mov    eax,DWORD PTR [ebp-0x4]
  40415b:	cmp    BYTE PTR [eax+0x1],0x5c
  40415f:	jne    0x40428c
  404165:	mov    eax,DWORD PTR [ebp-0x4]
  404168:	add    eax,0x2
  40416b:	call   0x4040b8
  404170:	mov    DWORD PTR [ebp-0x10],eax
  404173:	mov    eax,DWORD PTR [ebp-0x10]
  404176:	cmp    BYTE PTR [eax],0x0
  404179:	je     0x40428c
  40417f:	mov    eax,DWORD PTR [ebp-0x10]
  404182:	inc    eax
  404183:	call   0x4040b8
  404188:	mov    DWORD PTR [ebp-0x10],eax
  40418b:	mov    eax,DWORD PTR [ebp-0x10]
  40418e:	cmp    BYTE PTR [eax],0x0
  404191:	je     0x40428c
  404197:	jmp    0x4041a2
  404199:	mov    eax,DWORD PTR [ebp-0x4]
  40419c:	add    eax,0x2
  40419f:	mov    DWORD PTR [ebp-0x10],eax
  4041a2:	mov    ebx,DWORD PTR [ebp-0x10]
  4041a5:	sub    ebx,DWORD PTR [ebp-0x4]
  4041a8:	lea    eax,[ebx+0x1]
  4041ab:	push   eax
  4041ac:	mov    eax,DWORD PTR [ebp-0x4]
  4041af:	push   eax
  4041b0:	lea    eax,[ebp-0x25b]
  4041b6:	push   eax
  4041b7:	call   0x401100
  4041bc:	jmp    0x40426c
  4041c1:	mov    eax,DWORD PTR [ebp-0x10]
  4041c4:	inc    eax
  4041c5:	call   0x4040b8
  4041ca:	mov    DWORD PTR [ebp-0x14],eax
  4041cd:	mov    edi,DWORD PTR [ebp-0x14]
  4041d0:	sub    edi,DWORD PTR [ebp-0x10]
  4041d3:	mov    eax,edi
  4041d5:	add    eax,ebx
  4041d7:	inc    eax
  4041d8:	cmp    eax,0x105
  4041dd:	jg     0x40428c
  4041e3:	inc    edi
  4041e4:	push   edi
  4041e5:	mov    eax,DWORD PTR [ebp-0x10]
  4041e8:	push   eax
  4041e9:	lea    eax,[ebp-0x25b]
  4041ef:	add    eax,ebx
  4041f1:	push   eax
  4041f2:	call   0x401100
  4041f7:	lea    eax,[ebp-0x156]
  4041fd:	push   eax
  4041fe:	lea    eax,[ebp-0x25b]
  404204:	push   eax
  404205:	call   0x4010a8
  40420a:	mov    esi,eax
  40420c:	cmp    esi,0xffffffff
  40420f:	je     0x40428c
  404211:	push   esi
  404212:	call   0x4010a0
  404217:	lea    eax,[ebp-0x12a]
  40421d:	push   eax
  40421e:	call   0x401108
  404223:	lea    edx,[ebx+0x1]
  404226:	add    eax,edx
  404228:	inc    eax
  404229:	cmp    eax,0x105
  40422e:	jg     0x40428c
  404230:	mov    BYTE PTR [ebp+ebx*1-0x25b],0x5c
  404238:	mov    eax,0x105
  40423d:	sub    eax,ebx
  40423f:	dec    eax
  404240:	push   eax
  404241:	lea    eax,[ebp-0x12a]
  404247:	push   eax
  404248:	lea    eax,[ebp-0x25b]
  40424e:	add    eax,ebx
  404250:	inc    eax
  404251:	push   eax
  404252:	call   0x401100
  404257:	lea    eax,[ebp-0x12a]
  40425d:	push   eax
  40425e:	call   0x401108
  404263:	inc    eax
  404264:	add    ebx,eax
  404266:	mov    eax,DWORD PTR [ebp-0x14]
  404269:	mov    DWORD PTR [ebp-0x10],eax
  40426c:	mov    eax,DWORD PTR [ebp-0x10]
  40426f:	cmp    BYTE PTR [eax],0x0
  404272:	jne    0x4041c1
  404278:	mov    eax,DWORD PTR [ebp-0x8]
  40427b:	push   eax
  40427c:	lea    eax,[ebp-0x25b]
  404282:	push   eax
  404283:	mov    eax,DWORD PTR [ebp-0x4]
  404286:	push   eax
  404287:	call   0x401100
  40428c:	mov    eax,DWORD PTR [ebp-0xc]
  40428f:	pop    edi
  404290:	pop    esi
  404291:	pop    ebx
  404292:	mov    esp,ebp
  404294:	pop    ebp
  404295:	ret    
  404296:	add    BYTE PTR [eax],al
  404298:	imul   esp,DWORD PTR [ebp+0x72],0x6e
  40429c:	gs ins BYTE PTR es:[edi],dx
  40429e:	xor    esi,DWORD PTR [edx]
  4042a0:	cs fs ins BYTE PTR es:[edi],dx
  4042a3:	ins    BYTE PTR es:[edi],dx
  4042a4:	add    BYTE PTR [eax],al
  4042a6:	add    BYTE PTR [eax],al
  4042a8:	inc    edi
  4042a9:	gs je  0x4042f8
  4042ac:	outs   dx,DWORD PTR ds:[esi]
  4042ad:	outs   dx,BYTE PTR ds:[esi]
  4042ae:	addr16 push eax
  4042b0:	popa   
  4042b1:	je     0x40431b
  4042b3:	dec    esi
  4042b4:	popa   
  4042b5:	ins    DWORD PTR es:[edi],dx
  4042b6:	gs inc ecx
  4042b8:	add    BYTE PTR [eax],al
  4042ba:	add    BYTE PTR [eax],al
  4042bc:	push   ebp
  4042bd:	mov    ebp,esp
  4042bf:	add    esp,0xfffffedc
  4042c5:	push   ebx
  4042c6:	mov    DWORD PTR [ebp-0x4],eax
  4042c9:	push   0x105
  4042ce:	lea    eax,[ebp-0x121]
  4042d4:	push   eax
  4042d5:	push   0x0
  4042d7:	call   0x4010c8
  4042dc:	mov    BYTE PTR [ebp-0x12],0x0
  4042e0:	lea    eax,[ebp-0x8]
  4042e3:	push   eax
  4042e4:	push   0xf0019
  4042e9:	push   0x0
  4042eb:	push   0x404500
  4042f0:	push   0x80000001
  4042f5:	call   0x401118
  4042fa:	test   eax,eax
  4042fc:	je     0x40433e
  4042fe:	lea    eax,[ebp-0x8]
  404301:	push   eax
  404302:	push   0xf0019
  404307:	push   0x0
  404309:	push   0x404500
  40430e:	push   0x80000002
  404313:	call   0x401118
  404318:	test   eax,eax
  40431a:	je     0x40433e
  40431c:	lea    eax,[ebp-0x8]
  40431f:	push   eax
  404320:	push   0xf0019
  404325:	push   0x0
  404327:	push   0x40451c
  40432c:	push   0x80000001
  404331:	call   0x401118
  404336:	test   eax,eax
  404338:	jne    0x4043c7
  40433e:	xor    eax,eax
  404340:	push   ebp
  404341:	push   0x4043c0
  404346:	push   DWORD PTR fs:[eax]
  404349:	mov    DWORD PTR fs:[eax],esp
  40434c:	mov    DWORD PTR [ebp-0x18],0x5
  404353:	lea    eax,[ebp-0x121]
  404359:	mov    edx,0x105
  40435e:	call   0x4040e4
  404363:	lea    eax,[ebp-0x18]
  404366:	push   eax
  404367:	lea    eax,[ebp-0x12]
  40436a:	push   eax
  40436b:	push   0x0
  40436d:	push   0x0
  40436f:	lea    eax,[ebp-0x121]
  404375:	push   eax
  404376:	mov    eax,DWORD PTR [ebp-0x8]
  404379:	push   eax
  40437a:	call   0x401120
  40437f:	test   eax,eax
  404381:	je     0x4043a5
  404383:	lea    eax,[ebp-0x18]
  404386:	push   eax
  404387:	lea    eax,[ebp-0x12]
  40438a:	push   eax
  40438b:	push   0x0
  40438d:	push   0x0
  40438f:	push   0x40453c
  404394:	mov    eax,DWORD PTR [ebp-0x8]
  404397:	push   eax
  404398:	call   0x401120
  40439d:	test   eax,eax
  40439f:	je     0x4043a5
  4043a1:	mov    BYTE PTR [ebp-0x12],0x0
  4043a5:	mov    BYTE PTR [ebp-0xe],0x0
  4043a9:	xor    eax,eax
  4043ab:	pop    edx
  4043ac:	pop    ecx
  4043ad:	pop    ecx
  4043ae:	mov    DWORD PTR fs:[eax],edx
  4043b1:	push   0x4043c7
  4043b6:	mov    eax,DWORD PTR [ebp-0x8]
  4043b9:	push   eax
  4043ba:	call   0x401110
  4043bf:	ret    
  4043c0:	jmp    0x4033f4
  4043c5:	jmp    0x4043b6
  4043c7:	push   0x105
  4043cc:	mov    eax,DWORD PTR [ebp-0x4]
  4043cf:	push   eax
  4043d0:	lea    eax,[ebp-0x121]
  4043d6:	push   eax
  4043d7:	call   0x401100
  4043dc:	push   0x5
  4043de:	lea    eax,[ebp-0xd]
  4043e1:	push   eax
  4043e2:	push   0x3
  4043e4:	call   0x4010e8
  4043e9:	push   eax
  4043ea:	call   0x4010c0
  4043ef:	xor    ebx,ebx
  4043f1:	cmp    BYTE PTR [ebp-0x121],0x0
  4043f8:	je     0x4044f7
  4043fe:	cmp    BYTE PTR [ebp-0xd],0x0
  404402:	jne    0x40440e
  404404:	cmp    BYTE PTR [ebp-0x12],0x0
  404408:	je     0x4044f7
  40440e:	lea    eax,[ebp-0x121]
  404414:	push   eax
  404415:	call   0x401108
  40441a:	lea    edx,[ebp-0x121]
  404420:	add    eax,edx
  404422:	mov    DWORD PTR [ebp-0x1c],eax
  404425:	jmp    0x40442a
  404427:	dec    DWORD PTR [ebp-0x1c]
  40442a:	mov    eax,DWORD PTR [ebp-0x1c]
  40442d:	cmp    BYTE PTR [eax],0x2e
  404430:	je     0x40443d
  404432:	lea    eax,[ebp-0x121]
  404438:	cmp    eax,DWORD PTR [ebp-0x1c]
  40443b:	jne    0x404427
  40443d:	lea    eax,[ebp-0x121]
  404443:	cmp    eax,DWORD PTR [ebp-0x1c]
  404446:	je     0x4044f7
  40444c:	inc    DWORD PTR [ebp-0x1c]
  40444f:	cmp    BYTE PTR [ebp-0x12],0x0
  404453:	je     0x404481
  404455:	mov    edx,DWORD PTR [ebp-0x1c]
  404458:	sub    edx,eax
  40445a:	mov    eax,0x105
  40445f:	sub    eax,edx
  404461:	push   eax
  404462:	lea    eax,[ebp-0x12]
  404465:	push   eax
  404466:	mov    eax,DWORD PTR [ebp-0x1c]
  404469:	push   eax
  40446a:	call   0x401100
  40446f:	push   0x2
  404471:	push   0x0
  404473:	lea    eax,[ebp-0x121]
  404479:	push   eax
  40447a:	call   0x4010f0
  40447f:	mov    ebx,eax
  404481:	test   ebx,ebx
  404483:	jne    0x4044f7
  404485:	cmp    BYTE PTR [ebp-0xd],0x0
  404489:	je     0x4044f7
  40448b:	lea    eax,[ebp-0x121]
  404491:	mov    edx,DWORD PTR [ebp-0x1c]
  404494:	sub    edx,eax
  404496:	mov    eax,0x105
  40449b:	sub    eax,edx
  40449d:	push   eax
  40449e:	lea    eax,[ebp-0xd]
  4044a1:	push   eax
  4044a2:	mov    eax,DWORD PTR [ebp-0x1c]
  4044a5:	push   eax
  4044a6:	call   0x401100
  4044ab:	push   0x2
  4044ad:	push   0x0
  4044af:	lea    eax,[ebp-0x121]
  4044b5:	push   eax
  4044b6:	call   0x4010f0
  4044bb:	mov    ebx,eax
  4044bd:	test   ebx,ebx
  4044bf:	jne    0x4044f7
  4044c1:	mov    BYTE PTR [ebp-0xb],0x0
  4044c5:	lea    eax,[ebp-0x121]
  4044cb:	mov    edx,DWORD PTR [ebp-0x1c]
  4044ce:	sub    edx,eax
  4044d0:	mov    eax,0x105
  4044d5:	sub    eax,edx
  4044d7:	push   eax
  4044d8:	lea    eax,[ebp-0xd]
  4044db:	push   eax
  4044dc:	mov    eax,DWORD PTR [ebp-0x1c]
  4044df:	push   eax
  4044e0:	call   0x401100
  4044e5:	push   0x2
  4044e7:	push   0x0
  4044e9:	lea    eax,[ebp-0x121]
  4044ef:	push   eax
  4044f0:	call   0x4010f0
  4044f5:	mov    ebx,eax
  4044f7:	mov    eax,ebx
  4044f9:	pop    ebx
  4044fa:	mov    esp,ebp
  4044fc:	pop    ebp
  4044fd:	ret    
  4044fe:	add    BYTE PTR [eax],al
  404500:	push   ebx
  404501:	outs   dx,DWORD PTR ds:[esi]
  404502:	data16 je 0x40457c
  404505:	popa   
  404506:	jb     0x40456d
  404508:	pop    esp
  404509:	inc    edx
  40450a:	outs   dx,DWORD PTR ds:[esi]
  40450b:	jb     0x404579
  40450d:	popa   
  40450e:	outs   dx,BYTE PTR ds:[esi]
  40450f:	fs pop esp
  404511:	dec    esp
  404512:	outs   dx,DWORD PTR ds:[esi]
  404513:	arpl   WORD PTR [ecx+0x6c],sp
  404516:	gs jae 0x404519
  404519:	add    BYTE PTR [eax],al
  40451b:	add    BYTE PTR [ebx+0x6f],dl
  40451e:	data16 je 0x404598
  404521:	popa   
  404522:	jb     0x404589
  404524:	pop    esp
  404525:	inc    edx
  404526:	outs   dx,DWORD PTR ds:[esi]
  404527:	jb     0x404595
  404529:	popa   
  40452a:	outs   dx,BYTE PTR ds:[esi]
  40452b:	fs pop esp
  40452d:	inc    esp
  40452e:	gs ins BYTE PTR es:[edi],dx
  404530:	jo     0x40459a
  404532:	imul   ebx,DWORD PTR [esp+ecx*2+0x6f],0x656c6163
  40453a:	jae    0x40453c
  40453c:	add    BYTE PTR [eax],al
  40453e:	add    BYTE PTR [eax],al
  404540:	push   ebp
  404541:	mov    ebp,esp
  404543:	add    esp,0xfffffff8
  404546:	push   ebx
  404547:	push   esi
  404548:	push   edi
  404549:	mov    DWORD PTR [ebp-0x4],eax
  40454c:	mov    eax,ds:0x40a028
  404551:	mov    DWORD PTR [ebp-0x8],eax
  404554:	cmp    DWORD PTR [ebp-0x8],0x0
  404558:	je     0x404593
  40455a:	xor    eax,eax
  40455c:	push   ebp
  40455d:	push   0x40457b
  404562:	push   DWORD PTR fs:[eax]
  404565:	mov    DWORD PTR fs:[eax],esp
  404568:	mov    ebx,DWORD PTR [ebp-0x8]
  40456b:	mov    eax,DWORD PTR [ebp-0x4]
  40456e:	call   DWORD PTR [ebx+0x4]
  404571:	xor    eax,eax
  404573:	pop    edx
  404574:	pop    ecx
  404575:	pop    ecx
  404576:	mov    DWORD PTR fs:[eax],edx
  404579:	jmp    0x404585
  40457b:	jmp    0x4032c8
  404580:	call   0x4034a8
  404585:	mov    eax,DWORD PTR [ebp-0x8]
  404588:	mov    eax,DWORD PTR [eax]
  40458a:	mov    DWORD PTR [ebp-0x8],eax
  40458d:	cmp    DWORD PTR [ebp-0x8],0x0
  404591:	jne    0x40455a
  404593:	pop    edi
  404594:	pop    esi
  404595:	pop    ebx
  404596:	pop    ecx
  404597:	pop    ecx
  404598:	pop    ebp
  404599:	ret    
  40459a:	mov    eax,eax
  40459c:	mov    edx,DWORD PTR ds:0x40a024
  4045a2:	mov    DWORD PTR [eax],edx
  4045a4:	mov    ds:0x40a024,eax
  4045a9:	ret    
  4045aa:	mov    eax,eax
  4045ac:	push   ebp
  4045ad:	mov    ebp,esp
  4045af:	add    esp,0xfffffff8
  4045b2:	mov    DWORD PTR [ebp-0x4],eax
  4045b5:	xor    eax,eax
  4045b7:	push   ebp
  4045b8:	push   0x404625
  4045bd:	push   DWORD PTR fs:[eax]
  4045c0:	mov    DWORD PTR fs:[eax],esp
  4045c3:	mov    eax,DWORD PTR [ebp-0x4]
  4045c6:	mov    eax,DWORD PTR [eax+0x4]
  4045c9:	call   0x404540
  4045ce:	xor    eax,eax
  4045d0:	pop    edx
  4045d1:	pop    ecx
  4045d2:	pop    ecx
  4045d3:	mov    DWORD PTR fs:[eax],edx
  4045d6:	push   0x40462c
  4045db:	mov    eax,DWORD PTR [ebp-0x4]
  4045de:	cmp    eax,DWORD PTR ds:0x40a024
  4045e4:	jne    0x4045f2
  4045e6:	mov    eax,DWORD PTR [ebp-0x4]
  4045e9:	mov    eax,DWORD PTR [eax]
  4045eb:	mov    ds:0x40a024,eax
  4045f0:	jmp    0x404624
  4045f2:	mov    eax,ds:0x40a024
  4045f7:	mov    DWORD PTR [ebp-0x8],eax
  4045fa:	cmp    DWORD PTR [ebp-0x8],0x0
  4045fe:	je     0x404624
  404600:	mov    eax,DWORD PTR [ebp-0x8]
  404603:	mov    eax,DWORD PTR [eax]
  404605:	cmp    eax,DWORD PTR [ebp-0x4]
  404608:	jne    0x404616
  40460a:	mov    eax,DWORD PTR [ebp-0x4]
  40460d:	mov    eax,DWORD PTR [eax]
  40460f:	mov    edx,DWORD PTR [ebp-0x8]
  404612:	mov    DWORD PTR [edx],eax
  404614:	jmp    0x404624
  404616:	mov    eax,DWORD PTR [ebp-0x8]
  404619:	mov    eax,DWORD PTR [eax]
  40461b:	mov    DWORD PTR [ebp-0x8],eax
  40461e:	cmp    DWORD PTR [ebp-0x8],0x0
  404622:	jne    0x404600
  404624:	ret    
  404625:	jmp    0x4033f4
  40462a:	jmp    0x4045db
  40462c:	pop    ecx
  40462d:	pop    ecx
  40462e:	pop    ebp
  40462f:	ret    
  404630:	mov    edx,DWORD PTR [eax]
  404632:	test   edx,edx
  404634:	je     0x404644
  404636:	mov    DWORD PTR [eax],0x0
  40463c:	push   eax
  40463d:	push   edx
  40463e:	mov    eax,DWORD PTR [edx]
  404640:	call   DWORD PTR [eax+0x8]
  404643:	pop    eax
  404644:	ret    
  404645:	lea    eax,[eax+0x0]
  404648:	push   ebx
  404649:	push   esi
  40464a:	add    esp,0xfffff004
  404650:	push   eax
  404651:	mov    esi,edx
  404653:	mov    ebx,eax
  404655:	test   ebx,ebx
  404657:	je     0x404696
  404659:	cmp    DWORD PTR [ebx+0x4],0x10000
  404660:	jge    0x40468c
  404662:	push   0x1000
  404667:	lea    eax,[esp+0x4]
  40466b:	push   eax
  40466c:	mov    eax,DWORD PTR [ebx+0x4]
  40466f:	push   eax
  404670:	mov    eax,DWORD PTR [ebx]
  404672:	mov    eax,DWORD PTR [eax]
  404674:	call   0x404070
  404679:	push   eax
  40467a:	call   0x4010f8
  40467f:	mov    ecx,eax
  404681:	mov    edx,esp
  404683:	mov    eax,esi
  404685:	call   0x403ae4
  40468a:	jmp    0x404696
  40468c:	mov    eax,esi
  40468e:	mov    edx,DWORD PTR [ebx+0x4]
  404691:	call   0x403bd0
  404696:	add    esp,0x1000
  40469c:	pop    esi
  40469d:	pop    ebx
  40469e:	ret    
  40469f:	nop
  4046a0:	push   ebp
  4046a1:	mov    ebp,esp
  4046a3:	add    esp,0xfffffff0
  4046a6:	push   ebx
  4046a7:	xor    edx,edx
  4046a9:	mov    DWORD PTR [ebp-0x10],edx
  4046ac:	xor    edx,edx
  4046ae:	push   ebp
  4046af:	push   0x404706
  4046b4:	push   DWORD PTR fs:[edx]
  4046b7:	mov    DWORD PTR fs:[edx],esp
  4046ba:	push   0x7
  4046bc:	lea    edx,[ebp-0xb]
  4046bf:	push   edx
  4046c0:	push   0x1004
  4046c5:	push   eax
  4046c6:	call   0x4010c0
  4046cb:	lea    eax,[ebp-0x10]
  4046ce:	lea    edx,[ebp-0xb]
  4046d1:	mov    ecx,0x7
  4046d6:	call   0x403c3c
  4046db:	mov    eax,DWORD PTR [ebp-0x10]
  4046de:	lea    edx,[ebp-0x4]
  4046e1:	call   0x402b00
  4046e6:	mov    ebx,eax
  4046e8:	cmp    DWORD PTR [ebp-0x4],0x0
  4046ec:	je     0x4046f0
  4046ee:	xor    ebx,ebx
  4046f0:	xor    eax,eax
  4046f2:	pop    edx
  4046f3:	pop    ecx
  4046f4:	pop    ecx
  4046f5:	mov    DWORD PTR fs:[eax],edx
  4046f8:	push   0x40470d
  4046fd:	lea    eax,[ebp-0x10]
  404700:	call   0x4039f4
  404705:	ret    
  404706:	jmp    0x4033f4
  40470b:	jmp    0x4046fd
  40470d:	mov    eax,ebx
  40470f:	pop    ebx
  404710:	mov    esp,ebp
  404712:	pop    ebp
  404713:	ret    
  404714:	push   ebp
  404715:	mov    ebp,esp
  404717:	xor    eax,eax
  404719:	push   ebp
  40471a:	push   0x40475e
  40471f:	push   DWORD PTR fs:[eax]
  404722:	mov    DWORD PTR fs:[eax],esp
  404725:	inc    DWORD PTR ds:0x40b5b4
  40472b:	jne    0x404750
  40472d:	mov    eax,0x40b048
  404732:	call   0x402a88
  404737:	mov    eax,0x40b214
  40473c:	call   0x402a88
  404741:	mov    eax,0x40b3e0
  404746:	call   0x402a88
  40474b:	call   0x401a8c
  404750:	xor    eax,eax
  404752:	pop    edx
  404753:	pop    ecx
  404754:	pop    ecx
  404755:	mov    DWORD PTR fs:[eax],edx
  404758:	push   0x404765
  40475d:	ret    
  40475e:	jmp    0x4033f4
  404763:	jmp    0x40475d
  404765:	pop    ebp
  404766:	ret    
  404767:	nop
  404768:	sub    DWORD PTR ds:0x40b5b4,0x1
  40476f:	jae    0x40483a
  404775:	mov    BYTE PTR ds:0x40a008,0x2
  40477c:	mov    DWORD PTR ds:0x40b014,0x401068
  404786:	mov    DWORD PTR ds:0x40b018,0x401070
  404790:	mov    BYTE PTR ds:0x40b046,0x2
  404797:	mov    DWORD PTR ds:0x40b000,0x403fc0
  4047a1:	call   0x402edc
  4047a6:	test   al,al
  4047a8:	je     0x4047af
  4047aa:	call   0x402f0c
  4047af:	call   0x402fd0
  4047b4:	mov    WORD PTR ds:0x40b04c,0xd7b0
  4047bd:	mov    WORD PTR ds:0x40b218,0xd7b0
  4047c6:	mov    WORD PTR ds:0x40b3e4,0xd7b0
  4047cf:	call   0x4010b8
  4047d4:	mov    ds:0x40b03c,eax
  4047d9:	call   0x401148
  4047de:	mov    ds:0x40b038,eax
  4047e3:	call   0x401140
  4047e8:	and    eax,0x80000000
  4047ed:	cmp    eax,0x80000000
  4047f2:	je     0x404821
  4047f4:	call   0x401140
  4047f9:	and    eax,0xff
  4047fe:	cmp    ax,0x4
  404802:	jbe    0x404810
  404804:	mov    DWORD PTR ds:0x40b5b8,0x3
  40480e:	jmp    0x404830
  404810:	call   0x4010e8
  404815:	call   0x4046a0
  40481a:	mov    ds:0x40b5b8,eax
  40481f:	jmp    0x404830
  404821:	call   0x4010e8
  404826:	call   0x4046a0
  40482b:	mov    ds:0x40b5b8,eax
  404830:	call   0x401138
  404835:	mov    ds:0x40b030,eax
  40483a:	ret    
  40483b:	nop
  40483c:	jmp    DWORD PTR ds:0x40c17c
  404842:	mov    eax,eax
  404844:	jmp    DWORD PTR ds:0x40c178
  40484a:	mov    eax,eax
  40484c:	jmp    DWORD PTR ds:0x40c174
  404852:	mov    eax,eax
  404854:	jmp    DWORD PTR ds:0x40c170
  40485a:	mov    eax,eax
  40485c:	push   ebx
  40485d:	push   ecx
  40485e:	mov    ebx,eax
  404860:	push   ebx
  404861:	push   0x40
  404863:	call   0x404844
  404868:	mov    DWORD PTR [esp],eax
  40486b:	mov    eax,DWORD PTR [esp]
  40486e:	pop    edx
  40486f:	pop    ebx
  404870:	ret    
  404871:	lea    eax,[eax+0x0]
  404874:	mov    eax,0x8
  404879:	ret    
  40487a:	mov    eax,eax
  40487c:	push   ebx
  40487d:	push   ecx
  40487e:	call   0x404874
  404883:	mov    ebx,eax
  404885:	test   ebx,ebx
  404887:	je     0x4048c7
  404889:	cmp    DWORD PTR ds:0x40a08c,0xffffffff
  404890:	jne    0x40489c
  404892:	mov    eax,0xe2
  404897:	call   0x4039e8
  40489c:	mov    eax,ebx
  40489e:	call   0x40485c
  4048a3:	mov    DWORD PTR [esp],eax
  4048a6:	cmp    DWORD PTR [esp],0x0
  4048aa:	jne    0x4048b8
  4048ac:	mov    eax,0xe2
  4048b1:	call   0x4039e8
  4048b6:	jmp    0x4048c7
  4048b8:	mov    eax,DWORD PTR [esp]
  4048bb:	push   eax
  4048bc:	mov    eax,ds:0x40a08c
  4048c1:	push   eax
  4048c2:	call   0x404854
  4048c7:	pop    edx
  4048c8:	pop    ebx
  4048c9:	ret    
  4048ca:	mov    eax,eax
  4048cc:	mov    cl,BYTE PTR ds:0x40b65c
  4048d2:	mov    eax,ds:0x40a08c
  4048d7:	test   cl,cl
  4048d9:	jne    0x404901
  4048db:	mov    edx,DWORD PTR fs:0x2c
  4048e2:	mov    eax,DWORD PTR [edx+eax*4]
  4048e5:	ret    
  4048e6:	call   0x40487c
  4048eb:	mov    eax,ds:0x40a08c
  4048f0:	push   eax
  4048f1:	call   0x40484c
  4048f6:	test   eax,eax
  4048f8:	je     0x4048fb
  4048fa:	ret    
  4048fb:	mov    eax,ds:0x40b668
  404900:	ret    
  404901:	push   eax
  404902:	call   0x40484c
  404907:	test   eax,eax
  404909:	je     0x4048e6
  40490b:	ret    
  40490c:	mov    eax,0x40a090
  404911:	call   0x40459c
  404916:	ret    
  404917:	nop
  404918:	push   ebx
  404919:	mov    ebx,eax
  40491b:	xor    eax,eax
  40491d:	mov    ds:0x40a08c,eax
  404922:	push   0x0
  404924:	call   0x40483c
  404929:	mov    ds:0x40b660,eax
  40492e:	mov    eax,ds:0x40b660
  404933:	mov    ds:0x40a094,eax
  404938:	xor    eax,eax
  40493a:	mov    ds:0x40a098,eax
  40493f:	xor    eax,eax
  404941:	mov    ds:0x40a09c,eax
  404946:	call   0x40490c
  40494b:	mov    edx,0x40a090
  404950:	mov    eax,ebx
  404952:	call   0x403758
  404957:	pop    ebx
  404958:	ret    
  404959:	lea    eax,[eax+0x0]
  40495c:	push   ebp
  40495d:	mov    ebp,esp
  40495f:	xor    eax,eax
  404961:	push   ebp
  404962:	push   0x404981
  404967:	push   DWORD PTR fs:[eax]
  40496a:	mov    DWORD PTR fs:[eax],esp
  40496d:	inc    DWORD PTR ds:0x40b664
  404973:	xor    eax,eax
  404975:	pop    edx
  404976:	pop    ecx
  404977:	pop    ecx
  404978:	mov    DWORD PTR fs:[eax],edx
  40497b:	push   0x404988
  404980:	ret    
  404981:	jmp    0x4033f4
  404986:	jmp    0x404980
  404988:	pop    ebp
  404989:	ret    
  40498a:	mov    eax,eax
  40498c:	sub    DWORD PTR ds:0x40b664,0x1
  404993:	ret    
  404994:	push   ebp
  404995:	mov    ebp,esp
  404997:	xor    eax,eax
  404999:	push   ebp
  40499a:	push   0x4049b9
  40499f:	push   DWORD PTR fs:[eax]
  4049a2:	mov    DWORD PTR fs:[eax],esp
  4049a5:	inc    DWORD PTR ds:0x40b66c
  4049ab:	xor    eax,eax
  4049ad:	pop    edx
  4049ae:	pop    ecx
  4049af:	pop    ecx
  4049b0:	mov    DWORD PTR fs:[eax],edx
  4049b3:	push   0x4049c0
  4049b8:	ret    
  4049b9:	jmp    0x4033f4
  4049be:	jmp    0x4049b8
  4049c0:	pop    ebp
  4049c1:	ret    
  4049c2:	mov    eax,eax
  4049c4:	sub    DWORD PTR ds:0x40b66c,0x1
  4049cb:	ret    
  4049cc:	jmp    DWORD PTR ds:0x40c1c8
  4049d2:	mov    eax,eax
  4049d4:	jmp    DWORD PTR ds:0x40c1c4
  4049da:	mov    eax,eax
  4049dc:	jmp    DWORD PTR ds:0x40c1c0
  4049e2:	mov    eax,eax
  4049e4:	jmp    DWORD PTR ds:0x40c1bc
  4049ea:	mov    eax,eax
  4049ec:	jmp    DWORD PTR ds:0x40c1b8
  4049f2:	mov    eax,eax
  4049f4:	jmp    DWORD PTR ds:0x40c1b4
  4049fa:	mov    eax,eax
  4049fc:	jmp    DWORD PTR ds:0x40c1b0
  404a02:	mov    eax,eax
  404a04:	jmp    DWORD PTR ds:0x40c1ac
  404a0a:	mov    eax,eax
  404a0c:	jmp    DWORD PTR ds:0x40c1a8
  404a12:	mov    eax,eax
  404a14:	jmp    DWORD PTR ds:0x40c1a4
  404a1a:	mov    eax,eax
  404a1c:	jmp    DWORD PTR ds:0x40c1a0
  404a22:	mov    eax,eax
  404a24:	jmp    DWORD PTR ds:0x40c19c
  404a2a:	mov    eax,eax
  404a2c:	jmp    DWORD PTR ds:0x40c198
  404a32:	mov    eax,eax
  404a34:	jmp    DWORD PTR ds:0x40c194
  404a3a:	mov    eax,eax
  404a3c:	jmp    DWORD PTR ds:0x40c190
  404a42:	mov    eax,eax
  404a44:	jmp    DWORD PTR ds:0x40c18c
  404a4a:	mov    eax,eax
  404a4c:	jmp    DWORD PTR ds:0x40c188
  404a52:	mov    eax,eax
  404a54:	jmp    DWORD PTR ds:0x40c184
  404a5a:	mov    eax,eax
  404a5c:	jmp    DWORD PTR ds:0x40c1f8
  404a62:	mov    eax,eax
  404a64:	jmp    DWORD PTR ds:0x40c1fc
  404a6a:	mov    eax,eax
  404a6c:	jmp    DWORD PTR ds:0x40c1f4
  404a72:	mov    eax,eax
  404a74:	jmp    DWORD PTR ds:0x40c1f0
  404a7a:	mov    eax,eax
  404a7c:	jmp    DWORD PTR ds:0x40c1ec
  404a82:	mov    eax,eax
  404a84:	jmp    DWORD PTR ds:0x40c1e8
  404a8a:	mov    eax,eax
  404a8c:	jmp    DWORD PTR ds:0x40c1e4
  404a92:	mov    eax,eax
  404a94:	jmp    DWORD PTR ds:0x40c1e0
  404a9a:	mov    eax,eax
  404a9c:	jmp    DWORD PTR ds:0x40c1dc
  404aa2:	mov    eax,eax
  404aa4:	jmp    DWORD PTR ds:0x40c1d8
  404aaa:	mov    eax,eax
  404aac:	jmp    DWORD PTR ds:0x40c1d4
  404ab2:	mov    eax,eax
  404ab4:	xchg   edx,eax
  404ab5:	call   0x4029b8
  404aba:	ret    
  404abb:	nop
  404abc:	xor    ecx,ecx
  404abe:	call   0x402ae0
  404ac3:	ret    
  404ac4:	jmp    DWORD PTR ds:0x40c1d0
  404aca:	mov    eax,eax
  404acc:	push   ebp
  404acd:	mov    ebp,esp
  404acf:	push   ecx
  404ad0:	push   ebx
  404ad1:	push   esi
  404ad2:	push   edi
  404ad3:	mov    DWORD PTR [ebp-0x4],ecx
  404ad6:	mov    edi,edx
  404ad8:	mov    esi,eax
  404ada:	call   0x402a08
  404adf:	mov    ebx,eax
  404ae1:	mov    eax,DWORD PTR [ebp+0x8]
  404ae4:	push   eax
  404ae5:	mov    eax,DWORD PTR [ebp+0xc]
  404ae8:	push   eax
  404ae9:	mov    eax,DWORD PTR [ebp+0x10]
  404aec:	push   eax
  404aed:	mov    eax,DWORD PTR [ebp+0x14]
  404af0:	push   eax
  404af1:	mov    eax,DWORD PTR [ebp+0x18]
  404af4:	push   eax
  404af5:	mov    eax,DWORD PTR [ebp+0x1c]
  404af8:	push   eax
  404af9:	mov    eax,DWORD PTR [ebp+0x20]
  404afc:	push   eax
  404afd:	mov    eax,DWORD PTR [ebp+0x24]
  404b00:	push   eax
  404b01:	mov    eax,DWORD PTR [ebp+0x28]
  404b04:	push   eax
  404b05:	mov    eax,DWORD PTR [ebp-0x4]
  404b08:	push   eax
  404b09:	push   edi
  404b0a:	push   esi
  404b0b:	call   0x404ac4
  404b10:	mov    esi,eax
  404b12:	mov    eax,ebx
  404b14:	call   0x4029f8
  404b19:	mov    eax,esi
  404b1b:	pop    edi
  404b1c:	pop    esi
  404b1d:	pop    ebx
  404b1e:	pop    ecx
  404b1f:	pop    ebp
  404b20:	ret    0x24
  404b23:	nop
  404b24:	push   ebp
  404b25:	mov    ebp,esp
  404b27:	xor    eax,eax
  404b29:	push   ebp
  404b2a:	push   0x404b49
  404b2f:	push   DWORD PTR fs:[eax]
  404b32:	mov    DWORD PTR fs:[eax],esp
  404b35:	inc    DWORD PTR ds:0x40b670
  404b3b:	xor    eax,eax
  404b3d:	pop    edx
  404b3e:	pop    ecx
  404b3f:	pop    ecx
  404b40:	mov    DWORD PTR fs:[eax],edx
  404b43:	push   0x404b50
  404b48:	ret    
  404b49:	jmp    0x4033f4
  404b4e:	jmp    0x404b48
  404b50:	pop    ebp
  404b51:	ret    
  404b52:	mov    eax,eax
  404b54:	sub    DWORD PTR ds:0x40b670,0x1
  404b5b:	ret    
  404b5c:	push   0x0
  404b5e:	push   0x0
  404b60:	call   0x404a14
  404b65:	call   0x4049f4
  404b6a:	ret    
  404b6b:	nop
  404b6c:	push   ebx
  404b6d:	call   0x404b5c
  404b72:	mov    ebx,eax
  404b74:	push   0x0
  404b76:	call   0x404a44
  404b7b:	cmp    ebx,0xb6
  404b81:	jne    0x404b8a
  404b83:	mov    eax,0x57
  404b88:	pop    ebx
  404b89:	ret    
  404b8a:	mov    eax,ebx
  404b8c:	pop    ebx
  404b8d:	ret    
  404b8e:	mov    eax,eax
  404b90:	push   ebp
  404b91:	mov    ebp,esp
  404b93:	add    esp,0xffffffec
  404b96:	push   ebx
  404b97:	push   esi
  404b98:	push   edi
  404b99:	xor    ebx,ebx
  404b9b:	mov    DWORD PTR [ebp-0x14],ebx
  404b9e:	mov    DWORD PTR [ebp-0x10],ebx
  404ba1:	mov    DWORD PTR [ebp-0xc],ecx
  404ba4:	mov    DWORD PTR [ebp-0x8],edx
  404ba7:	mov    DWORD PTR [ebp-0x4],eax
  404baa:	mov    eax,DWORD PTR [ebp-0x4]
  404bad:	call   0x403d40
  404bb2:	mov    eax,DWORD PTR [ebp-0x8]
  404bb5:	call   0x403d40
  404bba:	xor    eax,eax
  404bbc:	push   ebp
  404bbd:	push   0x404c66
  404bc2:	push   DWORD PTR fs:[eax]
  404bc5:	mov    DWORD PTR fs:[eax],esp
  404bc8:	mov    eax,DWORD PTR [ebp-0x4]
  404bcb:	call   0x403c68
  404bd0:	push   eax
  404bd1:	mov    eax,DWORD PTR [ebp-0x8]
  404bd4:	call   0x403c68
  404bd9:	pop    edx
  404bda:	xchg   edx,eax
  404bdb:	mov    ecx,edx
  404bdd:	cdq    
  404bde:	idiv   ecx
  404be0:	mov    edi,eax
  404be2:	test   edi,edi
  404be4:	jl     0x404bf5
  404be6:	inc    edi
  404be7:	lea    eax,[ebp-0x10]
  404bea:	mov    edx,DWORD PTR [ebp-0x8]
  404bed:	call   0x403c70
  404bf2:	dec    edi
  404bf3:	jne    0x404be7
  404bf5:	mov    eax,DWORD PTR [ebp-0x4]
  404bf8:	call   0x403c68
  404bfd:	mov    edi,eax
  404bff:	test   edi,edi
  404c01:	jle    0x404c3e
  404c03:	mov    esi,0x1
  404c08:	mov    eax,DWORD PTR [ebp-0x4]
  404c0b:	mov    bl,BYTE PTR [eax+esi*1-0x1]
  404c0f:	mov    eax,DWORD PTR [ebp-0x10]
  404c12:	mov    al,BYTE PTR [eax+esi*1-0x1]
  404c16:	xor    bl,al
  404c18:	call   0x404b6c
  404c1d:	cmp    eax,0x57
  404c20:	jne    0x404c3a
  404c22:	lea    eax,[ebp-0x14]
  404c25:	mov    edx,ebx
  404c27:	call   0x403bc0
  404c2c:	mov    edx,DWORD PTR [ebp-0x14]
  404c2f:	mov    eax,DWORD PTR [ebp-0xc]
  404c32:	call   0x403c70
  404c37:	mov    eax,DWORD PTR [ebp-0xc]
  404c3a:	inc    esi
  404c3b:	dec    edi
  404c3c:	jne    0x404c08
  404c3e:	xor    eax,eax
  404c40:	pop    edx
  404c41:	pop    ecx
  404c42:	pop    ecx
  404c43:	mov    DWORD PTR fs:[eax],edx
  404c46:	push   0x404c6d
  404c4b:	lea    eax,[ebp-0x14]
  404c4e:	mov    edx,0x2
  404c53:	call   0x403a18
  404c58:	lea    eax,[ebp-0x8]
  404c5b:	mov    edx,0x2
  404c60:	call   0x403a18
  404c65:	ret    
  404c66:	jmp    0x4033f4
  404c6b:	jmp    0x404c4b
  404c6d:	pop    edi
  404c6e:	pop    esi
  404c6f:	pop    ebx
  404c70:	mov    esp,ebp
  404c72:	pop    ebp
  404c73:	ret    
  404c74:	push   ebp
  404c75:	mov    ebp,esp
  404c77:	xor    eax,eax
  404c79:	push   ebp
  404c7a:	push   0x404c99
  404c7f:	push   DWORD PTR fs:[eax]
  404c82:	mov    DWORD PTR fs:[eax],esp
  404c85:	inc    DWORD PTR ds:0x40b674
  404c8b:	xor    eax,eax
  404c8d:	pop    edx
  404c8e:	pop    ecx
  404c8f:	pop    ecx
  404c90:	mov    DWORD PTR fs:[eax],edx
  404c93:	push   0x404ca0
  404c98:	ret    
  404c99:	jmp    0x4033f4
  404c9e:	jmp    0x404c98
  404ca0:	pop    ebp
  404ca1:	ret    
  404ca2:	mov    eax,eax
  404ca4:	sub    DWORD PTR ds:0x40b674,0x1
  404cab:	ret    
  404cac:	pusha  
  404cad:	mov    dh,0x40
  404caf:	add    al,dh
  404cb1:	inc    DWORD PTR [eax]
  404cb3:	add    BYTE PTR [eax-0x4a],ah
  404cb6:	inc    eax
  404cb7:	add    cl,dh
  404cb9:	inc    DWORD PTR [eax]
  404cbb:	add    BYTE PTR [eax-0x4a],ah
  404cbe:	inc    eax
  404cbf:	add    dl,dh
  404cc1:	inc    DWORD PTR [eax]
  404cc3:	add    BYTE PTR [eax-0x4a],ah
  404cc6:	inc    eax
  404cc7:	add    bl,dh
  404cc9:	inc    DWORD PTR [eax]
  404ccb:	add    BYTE PTR [eax-0x4a],ah
  404cce:	inc    eax
  404ccf:	add    ah,dh
  404cd1:	inc    DWORD PTR [eax]
  404cd3:	add    BYTE PTR [eax-0x4a],ah
  404cd6:	inc    eax
  404cd7:	add    ch,dh
  404cd9:	inc    DWORD PTR [eax]
  404cdb:	add    BYTE PTR [eax-0x4a],ah
  404cde:	inc    eax
  404cdf:	add    dh,dh
  404ce1:	inc    DWORD PTR [eax]
  404ce3:	add    BYTE PTR [eax-0x4a],ah
  404ce6:	inc    eax
  404ce7:	add    bh,dh
  404ce9:	inc    DWORD PTR [eax]
  404ceb:	add    BYTE PTR [eax-0x4a],ah
  404cee:	inc    eax
  404cef:	add    al,bh
  404cf1:	inc    DWORD PTR [eax]
  404cf3:	add    BYTE PTR [eax-0x4a],ah
  404cf6:	inc    eax
  404cf7:	add    cl,bh
  404cf9:	inc    DWORD PTR [eax]
  404cfb:	add    BYTE PTR [eax-0x4a],ah
  404cfe:	inc    eax
  404cff:	add    dl,bh
  404d01:	inc    DWORD PTR [eax]
  404d03:	add    BYTE PTR [eax-0x4a],ah
  404d06:	inc    eax
  404d07:	add    bl,bh
  404d09:	inc    DWORD PTR [eax]
  404d0b:	add    BYTE PTR [eax-0x4a],ah
  404d0e:	inc    eax
  404d0f:	add    ah,bh
  404d11:	inc    DWORD PTR [eax]
  404d13:	add    BYTE PTR [eax-0x4a],ah
  404d16:	inc    eax
  404d17:	add    ch,bh
  404d19:	inc    DWORD PTR [eax]
  404d1b:	add    BYTE PTR [eax-0x4a],ah
  404d1e:	inc    eax
  404d1f:	add    dh,bh
  404d21:	inc    DWORD PTR [eax]
  404d23:	add    BYTE PTR [eax-0x4a],ah
  404d26:	inc    eax
  404d27:	add    bh,bh
  404d29:	inc    DWORD PTR [eax]
  404d2b:	add    BYTE PTR [eax-0x4a],ah
  404d2e:	inc    eax
  404d2f:	add    al,ah
  404d31:	inc    DWORD PTR [eax]
  404d33:	add    BYTE PTR [eax-0x4a],ah
  404d36:	inc    eax
  404d37:	add    cl,ah
  404d39:	inc    DWORD PTR [eax]
  404d3b:	add    BYTE PTR [eax-0x4a],ah
  404d3e:	inc    eax
  404d3f:	add    dl,ah
  404d41:	inc    DWORD PTR [eax]
  404d43:	add    BYTE PTR [eax-0x4a],ah
  404d46:	inc    eax
  404d47:	add    bl,ah
  404d49:	inc    DWORD PTR [eax]
  404d4b:	add    BYTE PTR [eax-0x4a],ah
  404d4e:	inc    eax
  404d4f:	add    ah,ah
  404d51:	inc    DWORD PTR [eax]
  404d53:	add    BYTE PTR [eax-0x4a],ah
  404d56:	inc    eax
  404d57:	add    ch,ah
  404d59:	inc    DWORD PTR [eax]
  404d5b:	add    BYTE PTR [eax-0x4a],ah
  404d5e:	inc    eax
  404d5f:	add    dh,ah
  404d61:	inc    DWORD PTR [eax]
  404d63:	add    BYTE PTR [eax-0x4a],ah
  404d66:	inc    eax
  404d67:	add    bh,ah
  404d69:	inc    DWORD PTR [eax]
  404d6b:	add    BYTE PTR [eax-0x4a],ah
  404d6e:	inc    eax
  404d6f:	add    al,ch
  404d71:	inc    DWORD PTR [eax]
  404d73:	add    BYTE PTR [eax-0x4a],ah
  404d76:	inc    eax
  404d77:	add    cl,ch
  404d79:	inc    DWORD PTR [eax]
  404d7b:	add    BYTE PTR [eax-0x4a],ah
  404d7e:	inc    eax
  404d7f:	add    dl,ch
  404d81:	inc    DWORD PTR [eax]
  404d83:	add    BYTE PTR [eax-0x4a],ah
  404d86:	inc    eax
  404d87:	add    bl,ch
  404d89:	inc    DWORD PTR [eax]
  404d8b:	add    BYTE PTR [eax-0x4a],ah
  404d8e:	inc    eax
  404d8f:	add    ah,ch
  404d91:	inc    DWORD PTR [eax]
  404d93:	add    BYTE PTR [eax-0x4a],ah
  404d96:	inc    eax
  404d97:	add    ch,ch
  404d99:	inc    DWORD PTR [eax]
  404d9b:	add    BYTE PTR [eax-0x4a],ah
  404d9e:	inc    eax
  404d9f:	add    dh,ch
  404da1:	inc    DWORD PTR [eax]
  404da3:	add    BYTE PTR [eax-0x4a],ah
  404da6:	inc    eax
  404da7:	add    bh,ch
  404da9:	inc    DWORD PTR [eax]
  404dab:	add    BYTE PTR [eax-0x4a],ah
  404dae:	inc    eax
  404daf:	add    al,dl
  404db1:	inc    DWORD PTR [eax]
  404db3:	add    BYTE PTR [eax-0x4a],ah
  404db6:	inc    eax
  404db7:	add    cl,dl
  404db9:	inc    DWORD PTR [eax]
  404dbb:	add    BYTE PTR [eax-0x4a],ah
  404dbe:	inc    eax
  404dbf:	add    dl,dl
  404dc1:	inc    DWORD PTR [eax]
  404dc3:	add    BYTE PTR [eax-0x4a],ah
  404dc6:	inc    eax
  404dc7:	add    bl,dl
  404dc9:	inc    DWORD PTR [eax]
  404dcb:	add    BYTE PTR [eax-0x4a],ah
  404dce:	inc    eax
  404dcf:	add    ah,dl
  404dd1:	inc    DWORD PTR [eax]
  404dd3:	add    BYTE PTR [eax-0x4a],ah
  404dd6:	inc    eax
  404dd7:	add    ch,dl
  404dd9:	inc    DWORD PTR [eax]
  404ddb:	add    BYTE PTR [eax-0x4a],ah
  404dde:	inc    eax
  404ddf:	add    dh,dl
  404de1:	inc    DWORD PTR [eax]
  404de3:	add    BYTE PTR [eax-0x4a],ah
  404de6:	inc    eax
  404de7:	add    bh,dl
  404de9:	inc    DWORD PTR [eax]
  404deb:	add    BYTE PTR [eax-0x4a],ah
  404dee:	inc    eax
  404def:	add    al,bl
  404df1:	inc    DWORD PTR [eax]
  404df3:	add    BYTE PTR [eax-0x4a],ah
  404df6:	inc    eax
  404df7:	add    cl,bl
  404df9:	inc    DWORD PTR [eax]
  404dfb:	add    BYTE PTR [eax-0x4a],ah
  404dfe:	inc    eax
  404dff:	add    dl,bl
  404e01:	inc    DWORD PTR [eax]
  404e03:	add    BYTE PTR [eax-0x4a],ah
  404e06:	inc    eax
  404e07:	add    bl,bl
  404e09:	inc    DWORD PTR [eax]
  404e0b:	add    BYTE PTR [eax-0x4a],ah
  404e0e:	inc    eax
  404e0f:	add    ah,bl
  404e11:	inc    DWORD PTR [eax]
  404e13:	add    BYTE PTR [eax-0x4a],ah
  404e16:	inc    eax
  404e17:	add    ch,bl
  404e19:	inc    DWORD PTR [eax]
  404e1b:	add    BYTE PTR [eax-0x4a],ah
  404e1e:	inc    eax
  404e1f:	add    dh,bl
  404e21:	inc    DWORD PTR [eax]
  404e23:	add    BYTE PTR [eax-0x4a],ah
  404e26:	inc    eax
  404e27:	add    bh,bl
  404e29:	inc    DWORD PTR [eax]
  404e2b:	add    BYTE PTR [eax-0x4a],ah
  404e2e:	inc    eax
  404e2f:	add    al,al
  404e31:	inc    DWORD PTR [eax]
  404e33:	add    BYTE PTR [eax-0x4a],ah
  404e36:	inc    eax
  404e37:	add    cl,al
  404e39:	inc    DWORD PTR [eax]
  404e3b:	add    BYTE PTR [eax-0x4a],ah
  404e3e:	inc    eax
  404e3f:	add    dl,al
  404e41:	inc    DWORD PTR [eax]
  404e43:	add    BYTE PTR [eax-0x4a],ah
  404e46:	inc    eax
  404e47:	add    bl,al
  404e49:	inc    DWORD PTR [eax]
  404e4b:	add    BYTE PTR [eax-0x4a],ah
  404e4e:	inc    eax
  404e4f:	add    ah,al
  404e51:	inc    DWORD PTR [eax]
  404e53:	add    BYTE PTR [eax-0x4a],ah
  404e56:	inc    eax
  404e57:	add    ch,al
  404e59:	inc    DWORD PTR [eax]
  404e5b:	add    BYTE PTR [eax-0x4a],ah
  404e5e:	inc    eax
  404e5f:	add    dh,al
  404e61:	inc    DWORD PTR [eax]
  404e63:	add    BYTE PTR [eax-0x4a],ah
  404e66:	inc    eax
  404e67:	add    bh,al
  404e69:	inc    DWORD PTR [eax]
  404e6b:	add    BYTE PTR [eax-0x4a],ah
  404e6e:	inc    eax
  404e6f:	add    al,cl
  404e71:	inc    DWORD PTR [eax]
  404e73:	add    BYTE PTR [eax-0x4a],ah
  404e76:	inc    eax
  404e77:	add    cl,cl
  404e79:	inc    DWORD PTR [eax]
  404e7b:	add    BYTE PTR [eax-0x4a],ah
  404e7e:	inc    eax
  404e7f:	add    dl,cl
  404e81:	inc    DWORD PTR [eax]
  404e83:	add    BYTE PTR [eax-0x4a],ah
  404e86:	inc    eax
  404e87:	add    bl,cl
  404e89:	inc    DWORD PTR [eax]
  404e8b:	add    BYTE PTR [eax-0x4a],ah
  404e8e:	inc    eax
  404e8f:	add    ah,cl
  404e91:	inc    DWORD PTR [eax]
  404e93:	add    BYTE PTR [eax-0x4a],ah
  404e96:	inc    eax
  404e97:	add    ch,cl
  404e99:	inc    DWORD PTR [eax]
  404e9b:	add    BYTE PTR [eax-0x4a],ah
  404e9e:	inc    eax
  404e9f:	add    dh,cl
  404ea1:	inc    DWORD PTR [eax]
  404ea3:	add    BYTE PTR [eax-0x4a],ah
  404ea6:	inc    eax
  404ea7:	add    bh,cl
  404ea9:	inc    DWORD PTR [eax]
  404eab:	add    BYTE PTR [eax-0x4a],ah
  404eae:	inc    eax
  404eaf:	add    BYTE PTR [eax+0x600000ff],dh
  404eb5:	mov    dh,0x40
  404eb7:	add    BYTE PTR [ecx+0x600000ff],dh
  404ebd:	mov    dh,0x40
  404ebf:	add    BYTE PTR [edx+0x600000ff],dh
  404ec5:	mov    dh,0x40
  404ec7:	add    BYTE PTR [ebx+0x600000ff],dh
  404ecd:	mov    dh,0x40
  404ecf:	add    BYTE PTR [edi+edi*8-0x49a00000],dh
  404ed6:	inc    eax
  404ed7:	add    BYTE PTR [ebp+0x600000ff],dh
  404edd:	mov    dh,0x40
  404edf:	add    BYTE PTR [esi+0x600000ff],dh
  404ee5:	mov    dh,0x40
  404ee7:	add    BYTE PTR [edi+0x600000ff],dh
  404eed:	mov    dh,0x40
  404eef:	add    BYTE PTR [eax+0x600000ff],bh
  404ef5:	mov    dh,0x40
  404ef7:	add    BYTE PTR [ecx+0x600000ff],bh
  404efd:	mov    dh,0x40
  404eff:	add    BYTE PTR [edx+0x600000ff],bh
  404f05:	mov    dh,0x40
  404f07:	add    BYTE PTR [ebx+0x600000ff],bh
  404f0d:	mov    dh,0x40
  404f0f:	add    BYTE PTR [edi+edi*8-0x49a00000],bh
  404f16:	inc    eax
  404f17:	add    BYTE PTR [ebp+0x600000ff],bh
  404f1d:	mov    dh,0x40
  404f1f:	add    BYTE PTR [esi+0x600000ff],bh
  404f25:	mov    dh,0x40
  404f27:	add    BYTE PTR [edi+0x550000ff],bh
  404f2d:	mov    ebp,esp
  404f2f:	xor    eax,eax
  404f31:	push   ebp
  404f32:	push   0x404f51
  404f37:	push   DWORD PTR fs:[eax]
  404f3a:	mov    DWORD PTR fs:[eax],esp
  404f3d:	inc    DWORD PTR ds:0x40b678
  404f43:	xor    eax,eax
  404f45:	pop    edx
  404f46:	pop    ecx
  404f47:	pop    ecx
  404f48:	mov    DWORD PTR fs:[eax],edx
  404f4b:	push   0x404f58
  404f50:	ret    
  404f51:	jmp    0x4033f4
  404f56:	jmp    0x404f50
  404f58:	pop    ebp
  404f59:	ret    
  404f5a:	mov    eax,eax
  404f5c:	sub    DWORD PTR ds:0x40b678,0x1
  404f63:	ret    
  404f64:	mov    al,0x4f
  404f66:	inc    eax
	...
  404f6f:	add    BYTE PTR [eax+0x404f],dh
	...
  404f81:	add    BYTE PTR [eax],al
  404f83:	add    dl,al
  404f85:	dec    edi
  404f86:	inc    eax
  404f87:	add    BYTE PTR [eax+eax*1],cl
  404f8a:	add    BYTE PTR [eax],al
  404f8c:	or     al,0x10
  404f8e:	inc    eax
  404f8f:	add    BYTE PTR [ecx+esi*1],ah
  404f92:	inc    eax
  404f93:	add    BYTE PTR [eax],dh
  404f95:	xor    DWORD PTR [eax+0x0],eax
  404f98:	xor    al,0x31
  404f9a:	inc    eax
  404f9b:	add    BYTE PTR [eax],bh
  404f9d:	xor    DWORD PTR [eax+0x0],eax
  404fa0:	sub    al,0x31
  404fa2:	inc    eax
  404fa3:	add    al,dh
  404fa5:	das    
  404fa6:	inc    eax
  404fa7:	add    BYTE PTR [eax+esi*1],cl
  404faa:	inc    eax
  404fab:	add    BYTE PTR [eax],ch
  404fad:	xor    BYTE PTR [eax+0x0],al
  404fb0:	push   cs
  404fb1:	add    BYTE PTR [eax],al
  404fb3:	add    BYTE PTR [eax],al
  404fb5:	add    BYTE PTR [ecx],al
  404fb7:	add    BYTE PTR [eax],al
  404fb9:	add    BYTE PTR [eax],al
  404fbb:	adc    BYTE PTR [eax+0x0],al
  404fbe:	add    al,0x0
  404fc0:	add    BYTE PTR [eax],al
  404fc2:	or     DWORD PTR [ebp+0x78],eax
  404fc5:	arpl   WORD PTR [ebp+0x70],sp
  404fc8:	je     0x405033
  404fca:	outs   dx,DWORD PTR ds:[esi]
  404fcb:	outs   dx,BYTE PTR ds:[esi]
  404fcc:	sbb    BYTE PTR [eax+0x40],dl
	...
  404feb:	add    BYTE PTR [eax],bl
  404fed:	push   eax
  404fee:	inc    eax
  404fef:	add    BYTE PTR [eax],dl
  404ff1:	add    BYTE PTR [eax],al
  404ff3:	add    BYTE PTR [edi+ecx*2+0x40],ah
  404ff7:	add    BYTE PTR [ecx+esi*1],ah
  404ffa:	inc    eax
  404ffb:	add    BYTE PTR [eax],dh
  404ffd:	xor    DWORD PTR [eax+0x0],eax
  405000:	xor    al,0x31
  405002:	inc    eax
  405003:	add    BYTE PTR [eax],bh
  405005:	xor    DWORD PTR [eax+0x0],eax
  405008:	sub    al,0x31
  40500a:	inc    eax
  40500b:	add    al,dh
  40500d:	das    
  40500e:	inc    eax
  40500f:	add    BYTE PTR [eax+0x70],dl
  405012:	inc    eax
  405013:	add    BYTE PTR [eax],ch
  405015:	xor    BYTE PTR [eax+0x0],al
  405018:	push   cs
  405019:	inc    ebp
  40501a:	dec    eax
  40501b:	gs popa 
  40501d:	jo     0x405064
  40501f:	js     0x405084
  405021:	gs jo  0x405098
  405024:	imul   ebp,DWORD PTR [edi+0x6e],0x40507490
	...
  405047:	add    BYTE PTR [eax+edx*2+0x40],dh
  40504b:	add    BYTE PTR [eax],dl
  40504d:	add    BYTE PTR [eax],al
  40504f:	add    ah,cl
  405051:	dec    edi
  405052:	inc    eax
  405053:	add    BYTE PTR [ecx+esi*1],ah
  405056:	inc    eax
  405057:	add    BYTE PTR [eax],dh
  405059:	xor    DWORD PTR [eax+0x0],eax
  40505c:	xor    al,0x31
  40505e:	inc    eax
  40505f:	add    BYTE PTR [eax],bh
  405061:	xor    DWORD PTR [eax+0x0],eax
  405064:	sub    al,0x31
  405066:	inc    eax
  405067:	add    al,dh
  405069:	das    
  40506a:	inc    eax
  40506b:	add    BYTE PTR [eax+0x70],dl
  40506e:	inc    eax
  40506f:	add    BYTE PTR [eax],ch
  405071:	xor    BYTE PTR [eax+0x0],al
  405074:	or     al,0x45
  405076:	dec    edi
  405077:	jne    0x4050ed
  405079:	dec    edi
  40507a:	dec    bp
  40507c:	gs ins DWORD PTR es:[edi],dx
  40507e:	outs   dx,DWORD PTR ds:[esi]
  40507f:	jb     0x4050fa
  405081:	lea    eax,[eax+0x0]
  405084:	rcl    BYTE PTR [eax+0x40],1
	...
  4050a3:	add    al,dl
  4050a5:	push   eax
  4050a6:	inc    eax
  4050a7:	add    BYTE PTR [eax],dl
  4050a9:	add    BYTE PTR [eax],al
  4050ab:	add    BYTE PTR [edi+ecx*2+0x40],ah
  4050af:	add    BYTE PTR [ecx+esi*1],ah
  4050b2:	inc    eax
  4050b3:	add    BYTE PTR [eax],dh
  4050b5:	xor    DWORD PTR [eax+0x0],eax
  4050b8:	xor    al,0x31
  4050ba:	inc    eax
  4050bb:	add    BYTE PTR [eax],bh
  4050bd:	xor    DWORD PTR [eax+0x0],eax
  4050c0:	sub    al,0x31
  4050c2:	inc    eax
  4050c3:	add    al,dh
  4050c5:	das    
  4050c6:	inc    eax
  4050c7:	add    BYTE PTR [eax+esi*1],cl
  4050ca:	inc    eax
  4050cb:	add    BYTE PTR [eax],ch
  4050cd:	xor    BYTE PTR [eax+0x0],al
  4050d0:	or     eax,DWORD PTR [ebp+0x49]
  4050d3:	outs   dx,BYTE PTR ds:[esi]
  4050d4:	dec    edi
  4050d5:	jne    0x40514b
  4050d7:	inc    ebp
  4050d8:	jb     0x40514c
  4050da:	outs   dx,DWORD PTR ds:[esi]
  4050db:	jb     0x405105
  4050dd:	push   ecx
  4050de:	inc    eax
	...
  4050fb:	add    BYTE PTR [eax],ch
  4050fd:	push   ecx
  4050fe:	inc    eax
  4050ff:	add    BYTE PTR [eax],dl
  405101:	add    BYTE PTR [eax],al
  405103:	add    BYTE PTR [edi+ecx*2+0x40],ah
  405107:	add    BYTE PTR [ecx+esi*1],ah
  40510a:	inc    eax
  40510b:	add    BYTE PTR [eax],dh
  40510d:	xor    DWORD PTR [eax+0x0],eax
  405110:	xor    al,0x31
  405112:	inc    eax
  405113:	add    BYTE PTR [eax],bh
  405115:	xor    DWORD PTR [eax+0x0],eax
  405118:	sub    al,0x31
  40511a:	inc    eax
  40511b:	add    al,dh
  40511d:	das    
  40511e:	inc    eax
  40511f:	add    BYTE PTR [eax+esi*1],cl
  405122:	inc    eax
  405123:	add    BYTE PTR [eax],ch
  405125:	xor    BYTE PTR [eax+0x0],al
  405128:	or     DWORD PTR [ebp+0x45],eax
  40512b:	js     0x4051a1
  40512d:	gs jb  0x40519e
  405130:	popa   
  405131:	ins    BYTE PTR es:[edi],dx
  405132:	mov    eax,eax
  405134:	adc    BYTE PTR [ecx+0x40],0x0
	...
  405154:	adc    BYTE PTR [ecx+0x40],0x0
  405158:	adc    BYTE PTR [eax],al
  40515a:	add    BYTE PTR [eax],al
  40515c:	fcom   QWORD PTR [eax+0x40]
  40515f:	add    BYTE PTR [ecx+esi*1],ah
  405162:	inc    eax
  405163:	add    BYTE PTR [eax],dh
  405165:	xor    DWORD PTR [eax+0x0],eax
  405168:	xor    al,0x31
  40516a:	inc    eax
  40516b:	add    BYTE PTR [eax],bh
  40516d:	xor    DWORD PTR [eax+0x0],eax
  405170:	sub    al,0x31
  405172:	inc    eax
  405173:	add    al,dh
  405175:	das    
  405176:	inc    eax
  405177:	add    BYTE PTR [eax+esi*1],cl
  40517a:	inc    eax
  40517b:	add    BYTE PTR [eax],ch
  40517d:	xor    BYTE PTR [eax+0x0],al
  405180:	adc    al,BYTE PTR [ebp+0x45]
  405183:	js     0x4051f9
  405185:	gs jb  0x4051f6
  405188:	popa   
  405189:	ins    BYTE PTR es:[edi],dx
  40518a:	inc    ebp
  40518b:	js     0x4051f0
  40518d:	gs jo  0x405204
  405190:	imul   ebp,DWORD PTR [edi+0x6e],0x4051e090
	...
  4051b3:	add    al,ah
  4051b5:	push   ecx
  4051b6:	inc    eax
  4051b7:	add    BYTE PTR [eax],dl
  4051b9:	add    BYTE PTR [eax],al
  4051bb:	add    ah,bl
  4051bd:	push   eax
  4051be:	inc    eax
  4051bf:	add    BYTE PTR [ecx+esi*1],ah
  4051c2:	inc    eax
  4051c3:	add    BYTE PTR [eax],dh
  4051c5:	xor    DWORD PTR [eax+0x0],eax
  4051c8:	xor    al,0x31
  4051ca:	inc    eax
  4051cb:	add    BYTE PTR [eax],bh
  4051cd:	xor    DWORD PTR [eax+0x0],eax
  4051d0:	sub    al,0x31
  4051d2:	inc    eax
  4051d3:	add    al,dh
  4051d5:	das    
  4051d6:	inc    eax
  4051d7:	add    BYTE PTR [eax+esi*1],cl
  4051da:	inc    eax
  4051db:	add    BYTE PTR [eax],ch
  4051dd:	xor    BYTE PTR [eax+0x0],al
  4051e0:	or     DWORD PTR [ebp+0x49],eax
  4051e3:	outs   dx,BYTE PTR ds:[esi]
  4051e4:	je     0x40522b
  4051e6:	jb     0x40525a
  4051e8:	outs   dx,DWORD PTR ds:[esi]
  4051e9:	jb     0x405176
  4051eb:	sar    BYTE PTR [eax],0x52
  4051ee:	inc    eax
	...
  40520b:	add    BYTE PTR [eax],bh
  40520d:	push   edx
  40520e:	inc    eax
  40520f:	add    BYTE PTR [eax],dl
  405211:	add    BYTE PTR [eax],al
  405213:	add    BYTE PTR [ecx+edx*2+0x31240040],dl
  40521a:	inc    eax
  40521b:	add    BYTE PTR [eax],dh
  40521d:	xor    DWORD PTR [eax+0x0],eax
  405220:	xor    al,0x31
  405222:	inc    eax
  405223:	add    BYTE PTR [eax],bh
  405225:	xor    DWORD PTR [eax+0x0],eax
  405228:	sub    al,0x31
  40522a:	inc    eax
  40522b:	add    al,dh
  40522d:	das    
  40522e:	inc    eax
  40522f:	add    BYTE PTR [eax+esi*1],cl
  405232:	inc    eax
  405233:	add    BYTE PTR [eax],ch
  405235:	xor    BYTE PTR [eax+0x0],al
  405238:	or     al,BYTE PTR [ebp+0x44]
  40523b:	imul   esi,DWORD PTR [esi+0x42],0x72655a79
  405242:	outs   dx,DWORD PTR ds:[esi]
  405243:	nop
  405244:	nop
  405245:	push   edx
  405246:	inc    eax
	...
  405263:	add    BYTE PTR [eax+0x10004052],dl
  405269:	add    BYTE PTR [eax],al
  40526b:	add    BYTE PTR [ecx+edx*2+0x31240040],dl
  405272:	inc    eax
  405273:	add    BYTE PTR [eax],dh
  405275:	xor    DWORD PTR [eax+0x0],eax
  405278:	xor    al,0x31
  40527a:	inc    eax
  40527b:	add    BYTE PTR [eax],bh
  40527d:	xor    DWORD PTR [eax+0x0],eax
  405280:	sub    al,0x31
  405282:	inc    eax
  405283:	add    al,dh
  405285:	das    
  405286:	inc    eax
  405287:	add    BYTE PTR [eax+esi*1],cl
  40528a:	inc    eax
  40528b:	add    BYTE PTR [eax],ch
  40528d:	xor    BYTE PTR [eax+0x0],al
  405290:	or     eax,DWORD PTR [ebp+0x52]
  405293:	popa   
  405294:	outs   dx,BYTE PTR ds:[esi]
  405295:	addr16 gs inc ebp
  405298:	jb     0x40530c
  40529a:	outs   dx,DWORD PTR ds:[esi]
  40529b:	jb     0x405285
  40529d:	push   edx
  40529e:	inc    eax
	...
  4052bb:	add    al,ch
  4052bd:	push   edx
  4052be:	inc    eax
  4052bf:	add    BYTE PTR [eax],dl
  4052c1:	add    BYTE PTR [eax],al
  4052c3:	add    BYTE PTR [ecx+edx*2+0x31240040],dl
  4052ca:	inc    eax
  4052cb:	add    BYTE PTR [eax],dh
  4052cd:	xor    DWORD PTR [eax+0x0],eax
  4052d0:	xor    al,0x31
  4052d2:	inc    eax
  4052d3:	add    BYTE PTR [eax],bh
  4052d5:	xor    DWORD PTR [eax+0x0],eax
  4052d8:	sub    al,0x31
  4052da:	inc    eax
  4052db:	add    al,dh
  4052dd:	das    
  4052de:	inc    eax
  4052df:	add    BYTE PTR [eax+esi*1],cl
  4052e2:	inc    eax
  4052e3:	add    BYTE PTR [eax],ch
  4052e5:	xor    BYTE PTR [eax+0x0],al
  4052e8:	or     al,0x45
  4052ea:	dec    ecx
  4052eb:	outs   dx,BYTE PTR ds:[esi]
  4052ec:	je     0x40533d
  4052ee:	jbe    0x405355
  4052f0:	jb     0x405358
  4052f2:	ins    BYTE PTR es:[edi],dx
  4052f3:	outs   dx,DWORD PTR ds:[esi]
  4052f4:	ja     0x405283
  4052f6:	inc    eax
  4052f7:	add    BYTE PTR [ebx+edx*2+0x40],al
	...
  405317:	add    BYTE PTR [ebx+edx*2+0x40],al
  40531b:	add    BYTE PTR [eax],dl
  40531d:	add    BYTE PTR [eax],al
  40531f:	add    ah,bl
  405321:	push   eax
  405322:	inc    eax
  405323:	add    BYTE PTR [ecx+esi*1],ah
  405326:	inc    eax
  405327:	add    BYTE PTR [eax],dh
  405329:	xor    DWORD PTR [eax+0x0],eax
  40532c:	xor    al,0x31
  40532e:	inc    eax
  40532f:	add    BYTE PTR [eax],bh
  405331:	xor    DWORD PTR [eax+0x0],eax
  405334:	sub    al,0x31
  405336:	inc    eax
  405337:	add    al,dh
  405339:	das    
  40533a:	inc    eax
  40533b:	add    BYTE PTR [eax+esi*1],cl
  40533e:	inc    eax
  40533f:	add    BYTE PTR [eax],ch
  405341:	xor    BYTE PTR [eax+0x0],al
  405344:	or     al,BYTE PTR [ebp+0x4d]
  405347:	popa   
  405348:	je     0x4053b2
  40534a:	inc    ebp
  40534b:	jb     0x4053bf
  40534d:	outs   dx,DWORD PTR ds:[esi]
  40534e:	jb     0x4052e0
  405350:	pushf  
  405351:	push   ebx
  405352:	inc    eax
	...
  40536f:	add    BYTE PTR [ebx+edx*2+0x100040],bl
  405376:	add    BYTE PTR [eax],al
  405378:	clc    
  405379:	push   edx
  40537a:	inc    eax
  40537b:	add    BYTE PTR [ecx+esi*1],ah
  40537e:	inc    eax
  40537f:	add    BYTE PTR [eax],dh
  405381:	xor    DWORD PTR [eax+0x0],eax
  405384:	xor    al,0x31
  405386:	inc    eax
  405387:	add    BYTE PTR [eax],bh
  405389:	xor    DWORD PTR [eax+0x0],eax
  40538c:	sub    al,0x31
  40538e:	inc    eax
  40538f:	add    al,dh
  405391:	das    
  405392:	inc    eax
  405393:	add    BYTE PTR [eax+esi*1],cl
  405396:	inc    eax
  405397:	add    BYTE PTR [eax],ch
  405399:	xor    BYTE PTR [eax+0x0],al
  40539c:	or     al,BYTE PTR [ebp+0x49]
  40539f:	outs   dx,BYTE PTR ds:[esi]
  4053a0:	jbe    0x405403
  4053a2:	ins    BYTE PTR es:[edi],dx
  4053a3:	imul   esp,DWORD PTR [edi+ecx*2+0x70],0x4053f490
	...
  4053c7:	add    ah,dh
  4053c9:	push   ebx
  4053ca:	inc    eax
  4053cb:	add    BYTE PTR [eax],dl
  4053cd:	add    BYTE PTR [eax],al
  4053cf:	add    al,bh
  4053d1:	push   edx
  4053d2:	inc    eax
  4053d3:	add    BYTE PTR [ecx+esi*1],ah
  4053d6:	inc    eax
  4053d7:	add    BYTE PTR [eax],dh
  4053d9:	xor    DWORD PTR [eax+0x0],eax
  4053dc:	xor    al,0x31
  4053de:	inc    eax
  4053df:	add    BYTE PTR [eax],bh
  4053e1:	xor    DWORD PTR [eax+0x0],eax
  4053e4:	sub    al,0x31
  4053e6:	inc    eax
  4053e7:	add    al,dh
  4053e9:	das    
  4053ea:	inc    eax
  4053eb:	add    BYTE PTR [eax+esi*1],cl
  4053ee:	inc    eax
  4053ef:	add    BYTE PTR [eax],ch
  4053f1:	xor    BYTE PTR [eax+0x0],al
  4053f4:	or     eax,DWORD PTR [ebp+0x5a]
  4053f7:	gs jb  0x405469
  4053fa:	inc    esp
  4053fb:	imul   esi,DWORD PTR [esi+0x69],0x544c6564
  405402:	inc    eax
	...
  40541f:	add    BYTE PTR [esp+edx*2+0x40],cl
  405423:	add    BYTE PTR [eax],dl
  405425:	add    BYTE PTR [eax],al
  405427:	add    al,bh
  405429:	push   edx
  40542a:	inc    eax
  40542b:	add    BYTE PTR [ecx+esi*1],ah
  40542e:	inc    eax
  40542f:	add    BYTE PTR [eax],dh
  405431:	xor    DWORD PTR [eax+0x0],eax
  405434:	xor    al,0x31
  405436:	inc    eax
  405437:	add    BYTE PTR [eax],bh
  405439:	xor    DWORD PTR [eax+0x0],eax
  40543c:	sub    al,0x31
  40543e:	inc    eax
  40543f:	add    al,dh
  405441:	das    
  405442:	inc    eax
  405443:	add    BYTE PTR [eax+esi*1],cl
  405446:	inc    eax
  405447:	add    BYTE PTR [eax],ch
  405449:	xor    BYTE PTR [eax+0x0],al
  40544c:	or     DWORD PTR [ebp+0x4f],eax
  40544f:	jbe    0x4054b6
  405451:	jb     0x4054b9
  405453:	ins    BYTE PTR es:[edi],dx
  405454:	outs   dx,DWORD PTR ds:[esi]
  405455:	ja     0x4053e2
  405457:	shl    BYTE PTR [esp+edx*2+0x40],0x0
	...
  405477:	add    BYTE PTR [esp+edx*2+0x100040],ah
  40547e:	add    BYTE PTR [eax],al
  405480:	clc    
  405481:	push   edx
  405482:	inc    eax
  405483:	add    BYTE PTR [ecx+esi*1],ah
  405486:	inc    eax
  405487:	add    BYTE PTR [eax],dh
  405489:	xor    DWORD PTR [eax+0x0],eax
  40548c:	xor    al,0x31
  40548e:	inc    eax
  40548f:	add    BYTE PTR [eax],bh
  405491:	xor    DWORD PTR [eax+0x0],eax
  405494:	sub    al,0x31
  405496:	inc    eax
  405497:	add    al,dh
  405499:	das    
  40549a:	inc    eax
  40549b:	add    BYTE PTR [eax+esi*1],cl
  40549e:	inc    eax
  40549f:	add    BYTE PTR [eax],ch
  4054a1:	xor    BYTE PTR [eax+0x0],al
  4054a4:	or     al,BYTE PTR [ebp+0x55]
  4054a7:	outs   dx,BYTE PTR ds:[esi]
  4054a8:	fs gs jb 0x405512
  4054ac:	ins    BYTE PTR es:[edi],dx
  4054ad:	outs   dx,DWORD PTR ds:[esi]
  4054ae:	ja     0x405440
  4054b0:	cld    
  4054b1:	push   esp
  4054b2:	inc    eax
	...
  4054cf:	add    ah,bh
  4054d1:	push   esp
  4054d2:	inc    eax
  4054d3:	add    BYTE PTR [eax],dl
  4054d5:	add    BYTE PTR [eax],al
  4054d7:	add    ah,cl
  4054d9:	dec    edi
  4054da:	inc    eax
  4054db:	add    BYTE PTR [ecx+esi*1],ah
  4054de:	inc    eax
  4054df:	add    BYTE PTR [eax],dh
  4054e1:	xor    DWORD PTR [eax+0x0],eax
  4054e4:	xor    al,0x31
  4054e6:	inc    eax
  4054e7:	add    BYTE PTR [eax],bh
  4054e9:	xor    DWORD PTR [eax+0x0],eax
  4054ec:	sub    al,0x31
  4054ee:	inc    eax
  4054ef:	add    al,dh
  4054f1:	das    
  4054f2:	inc    eax
  4054f3:	add    BYTE PTR [eax+0x70],dl
  4054f6:	inc    eax
  4054f7:	add    BYTE PTR [eax],ch
  4054f9:	xor    BYTE PTR [eax+0x0],al
  4054fc:	cmovne ecx,DWORD PTR [ecx+0x6e]
  405500:	jbe    0x405563
  405502:	ins    BYTE PTR es:[edi],dx
  405503:	imul   esp,DWORD PTR [eax+edx*2+0x6f],0x65746e69
  40550b:	jb     0x405565
  40550d:	push   ebp
  40550e:	inc    eax
	...
  40552b:	add    BYTE PTR [eax+0x55],bl
  40552e:	inc    eax
  40552f:	add    BYTE PTR [eax+eax*1],cl
  405532:	add    BYTE PTR [eax],al
  405534:	fs dec edi
  405536:	inc    eax
  405537:	add    BYTE PTR [ecx+esi*1],ah
  40553a:	inc    eax
  40553b:	add    BYTE PTR [eax],dh
  40553d:	xor    DWORD PTR [eax+0x0],eax
  405540:	xor    al,0x31
  405542:	inc    eax
  405543:	add    BYTE PTR [eax],bh
  405545:	xor    DWORD PTR [eax+0x0],eax
  405548:	sub    al,0x31
  40554a:	inc    eax
  40554b:	add    al,dh
  40554d:	das    
  40554e:	inc    eax
  40554f:	add    BYTE PTR [eax+esi*1],cl
  405552:	inc    eax
  405553:	add    BYTE PTR [eax],ch
  405555:	xor    BYTE PTR [eax+0x0],al
  405558:	or     al,0x45
  40555a:	dec    ecx
  40555b:	outs   dx,BYTE PTR ds:[esi]
  40555c:	jbe    0x4055bf
  40555e:	ins    BYTE PTR es:[edi],dx
  40555f:	imul   esp,DWORD PTR [ebx+eax*2+0x61],0x408d7473
  405567:	add    BYTE PTR [ebp+edx*2+0x40],dh
	...
  405586:	add    BYTE PTR [eax],al
  405588:	mov    ah,0x55
  40558a:	inc    eax
  40558b:	add    BYTE PTR [eax+eax*1],cl
  40558e:	add    BYTE PTR [eax],al
  405590:	fs dec edi
  405592:	inc    eax
  405593:	add    BYTE PTR [ecx+esi*1],ah
  405596:	inc    eax
  405597:	add    BYTE PTR [eax],dh
  405599:	xor    DWORD PTR [eax+0x0],eax
  40559c:	xor    al,0x31
  40559e:	inc    eax
  40559f:	add    BYTE PTR [eax],bh
  4055a1:	xor    DWORD PTR [eax+0x0],eax
  4055a4:	sub    al,0x31
  4055a6:	inc    eax
  4055a7:	add    al,dh
  4055a9:	das    
  4055aa:	inc    eax
  4055ab:	add    BYTE PTR [eax+esi*1],cl
  4055ae:	inc    eax
  4055af:	add    BYTE PTR [eax],ch
  4055b1:	xor    BYTE PTR [eax+0x0],al
  4055b4:	or     eax,0x6e6f4345
  4055b9:	jbe    0x405620
  4055bb:	jb     0x405631
  4055bd:	inc    ebp
  4055be:	jb     0x405632
  4055c0:	outs   dx,DWORD PTR ds:[esi]
  4055c1:	jb     0x40554e
  4055c3:	rcl    BYTE PTR [eax],0x56
  4055c6:	inc    eax
	...
  4055e3:	add    BYTE PTR [eax],dl
  4055e5:	push   esi
  4055e6:	inc    eax
  4055e7:	add    BYTE PTR [eax],dl
  4055e9:	add    BYTE PTR [eax],al
  4055eb:	add    ah,bl
  4055ed:	push   eax
  4055ee:	inc    eax
  4055ef:	add    BYTE PTR [ecx+esi*1],ah
  4055f2:	inc    eax
  4055f3:	add    BYTE PTR [eax],dh
  4055f5:	xor    DWORD PTR [eax+0x0],eax
  4055f8:	xor    al,0x31
  4055fa:	inc    eax
  4055fb:	add    BYTE PTR [eax],bh
  4055fd:	xor    DWORD PTR [eax+0x0],eax
  405600:	sub    al,0x31
  405602:	inc    eax
  405603:	add    al,dh
  405605:	das    
  405606:	inc    eax
  405607:	add    BYTE PTR [eax+esi*1],cl
  40560a:	inc    eax
  40560b:	add    BYTE PTR [eax],ch
  40560d:	xor    BYTE PTR [eax+0x0],al
  405610:	adc    BYTE PTR [ebp+0x41],al
  405613:	arpl   WORD PTR [ebx+0x65],sp
  405616:	jae    0x40568b
  405618:	push   esi
  405619:	imul   ebp,DWORD PTR [edi+0x6c],0x6f697461
  405620:	outs   dx,BYTE PTR ds:[esi]
  405621:	lea    eax,[eax+0x0]
  405624:	jo     0x40567c
  405626:	inc    eax
	...
  405643:	add    BYTE PTR [eax+0x56],dh
  405646:	inc    eax
  405647:	add    BYTE PTR [eax],dl
  405649:	add    BYTE PTR [eax],al
  40564b:	add    ah,bl
  40564d:	push   eax
  40564e:	inc    eax
  40564f:	add    BYTE PTR [ecx+esi*1],ah
  405652:	inc    eax
  405653:	add    BYTE PTR [eax],dh
  405655:	xor    DWORD PTR [eax+0x0],eax
  405658:	xor    al,0x31
  40565a:	inc    eax
  40565b:	add    BYTE PTR [eax],bh
  40565d:	xor    DWORD PTR [eax+0x0],eax
  405660:	sub    al,0x31
  405662:	inc    eax
  405663:	add    al,dh
  405665:	das    
  405666:	inc    eax
  405667:	add    BYTE PTR [eax+esi*1],cl
  40566a:	inc    eax
  40566b:	add    BYTE PTR [eax],ch
  40566d:	xor    BYTE PTR [eax+0x0],al
  405670:	or     al,BYTE PTR [ebp+0x50]
  405673:	jb     0x4056de
  405675:	jbe    0x4056e0
  405677:	ins    BYTE PTR es:[edi],dx
  405678:	gs addr16 gs nop
  40567c:	enter  0x4056,0x0
	...
  40569c:	enter  0x4056,0x0
  4056a0:	adc    BYTE PTR [eax],al
  4056a2:	add    BYTE PTR [eax],al
  4056a4:	fcom   QWORD PTR [eax+0x40]
  4056a7:	add    BYTE PTR [ecx+esi*1],ah
  4056aa:	inc    eax
  4056ab:	add    BYTE PTR [eax],dh
  4056ad:	xor    DWORD PTR [eax+0x0],eax
  4056b0:	xor    al,0x31
  4056b2:	inc    eax
  4056b3:	add    BYTE PTR [eax],bh
  4056b5:	xor    DWORD PTR [eax+0x0],eax
  4056b8:	sub    al,0x31
  4056ba:	inc    eax
  4056bb:	add    al,dh
  4056bd:	das    
  4056be:	inc    eax
  4056bf:	add    BYTE PTR [eax+esi*1],cl
  4056c2:	inc    eax
  4056c3:	add    BYTE PTR [eax],ch
  4056c5:	xor    BYTE PTR [eax+0x0],al
  4056c8:	push   cs
  4056c9:	inc    ebp
  4056ca:	push   ebx
  4056cb:	je     0x40572e
  4056cd:	arpl   WORD PTR [ebx+0x4f],bp
  4056d0:	jbe    0x405737
  4056d2:	jb     0x40573a
  4056d4:	ins    BYTE PTR es:[edi],dx
  4056d5:	outs   dx,DWORD PTR ds:[esi]
  4056d6:	ja     0x405668
  4056d8:	and    al,0x57
  4056da:	inc    eax
	...
  4056f7:	add    BYTE PTR [edi+edx*2],ah
  4056fa:	inc    eax
  4056fb:	add    BYTE PTR [eax],dl
  4056fd:	add    BYTE PTR [eax],al
  4056ff:	add    ah,bl
  405701:	push   eax
  405702:	inc    eax
  405703:	add    BYTE PTR [ecx+esi*1],ah
  405706:	inc    eax
  405707:	add    BYTE PTR [eax],dh
  405709:	xor    DWORD PTR [eax+0x0],eax
  40570c:	xor    al,0x31
  40570e:	inc    eax
  40570f:	add    BYTE PTR [eax],bh
  405711:	xor    DWORD PTR [eax+0x0],eax
  405714:	sub    al,0x31
  405716:	inc    eax
  405717:	add    al,dh
  405719:	das    
  40571a:	inc    eax
  40571b:	add    BYTE PTR [eax+esi*1],cl
  40571e:	inc    eax
  40571f:	add    BYTE PTR [eax],ch
  405721:	xor    BYTE PTR [eax+0x0],al
  405724:	or     DWORD PTR [ebp+0x43],eax
  405727:	outs   dx,DWORD PTR ds:[esi]
  405728:	outs   dx,BYTE PTR ds:[esi]
  405729:	je     0x40579d
  40572b:	outs   dx,DWORD PTR ds:[esi]
  40572c:	ins    BYTE PTR es:[edi],dx
  40572d:	inc    ebx
  40572e:	mov    eax,eax
  405730:	jl     0x405789
  405732:	inc    eax
	...
  40574f:	add    BYTE PTR [edi+edx*2+0x40],bh
  405753:	add    BYTE PTR [eax+eax*1],cl
  405756:	add    BYTE PTR [eax],al
  405758:	fs dec edi
  40575a:	inc    eax
  40575b:	add    BYTE PTR [ecx+esi*1],ah
  40575e:	inc    eax
  40575f:	add    BYTE PTR [eax],dh
  405761:	xor    DWORD PTR [eax+0x0],eax
  405764:	xor    al,0x31
  405766:	inc    eax
  405767:	add    BYTE PTR [eax],bh
  405769:	xor    DWORD PTR [eax+0x0],eax
  40576c:	sub    al,0x31
  40576e:	inc    eax
  40576f:	add    al,dh
  405771:	das    
  405772:	inc    eax
  405773:	add    BYTE PTR [eax+esi*1],cl
  405776:	inc    eax
  405777:	add    BYTE PTR [eax],ch
  405779:	xor    BYTE PTR [eax+0x0],al
  40577c:	or     eax,0x72615645
  405781:	imul   esp,DWORD PTR [ecx+0x6e],0x72724574
  405788:	outs   dx,DWORD PTR ds:[esi]
  405789:	jb     0x405716
  40578b:	rcr    al,0x57
  40578e:	inc    eax
	...
  4057ab:	add    al,bl
  4057ad:	push   edi
  4057ae:	inc    eax
  4057af:	add    BYTE PTR [eax+eax*1],cl
  4057b2:	add    BYTE PTR [eax],al
  4057b4:	fs dec edi
  4057b6:	inc    eax
  4057b7:	add    BYTE PTR [ecx+esi*1],ah
  4057ba:	inc    eax
  4057bb:	add    BYTE PTR [eax],dh
  4057bd:	xor    DWORD PTR [eax+0x0],eax
  4057c0:	xor    al,0x31
  4057c2:	inc    eax
  4057c3:	add    BYTE PTR [eax],bh
  4057c5:	xor    DWORD PTR [eax+0x0],eax
  4057c8:	sub    al,0x31
  4057ca:	inc    eax
  4057cb:	add    al,dh
  4057cd:	das    
  4057ce:	inc    eax
  4057cf:	add    BYTE PTR [eax+esi*1],cl
  4057d2:	inc    eax
  4057d3:	add    BYTE PTR [eax],ch
  4057d5:	xor    BYTE PTR [eax+0x0],al
  4057d8:	adc    BYTE PTR [ebp+0x41],al
  4057db:	jae    0x405850
  4057dd:	gs jb  0x405854
  4057e0:	imul   ebp,DWORD PTR [edi+0x6e],0x6c696146
  4057e7:	gs lea eax,fs:[eax+0x0]
  4057ec:	cmp    BYTE PTR [eax+0x40],bl
	...
  40580b:	add    BYTE PTR [eax],bh
  40580d:	pop    eax
  40580e:	inc    eax
  40580f:	add    BYTE PTR [eax+eax*1],cl
  405812:	add    BYTE PTR [eax],al
  405814:	fs dec edi
  405816:	inc    eax
  405817:	add    BYTE PTR [ecx+esi*1],ah
  40581a:	inc    eax
  40581b:	add    BYTE PTR [eax],dh
  40581d:	xor    DWORD PTR [eax+0x0],eax
  405820:	xor    al,0x31
  405822:	inc    eax
  405823:	add    BYTE PTR [eax],bh
  405825:	xor    DWORD PTR [eax+0x0],eax
  405828:	sub    al,0x31
  40582a:	inc    eax
  40582b:	add    al,dh
  40582d:	das    
  40582e:	inc    eax
  40582f:	add    BYTE PTR [eax+esi*1],cl
  405832:	inc    eax
  405833:	add    BYTE PTR [eax],ch
  405835:	xor    BYTE PTR [eax+0x0],al
  405838:	push   cs
  405839:	inc    ebp
  40583a:	inc    ecx
  40583b:	bound  esi,QWORD PTR [ebx+0x74]
  40583e:	jb     0x4058a1
  405840:	arpl   WORD PTR [ebp+eax*2+0x72],si
  405844:	jb     0x4058b5
  405846:	jb     0x4057d8
  405848:	xchg   esp,eax
  405849:	pop    eax
  40584a:	inc    eax
	...
  405867:	add    BYTE PTR [eax+ebx*2+0xc0040],dl
  40586e:	add    BYTE PTR [eax],al
  405870:	fs dec edi
  405872:	inc    eax
  405873:	add    BYTE PTR [ecx+esi*1],ah
  405876:	inc    eax
  405877:	add    BYTE PTR [eax],dh
  405879:	xor    DWORD PTR [eax+0x0],eax
  40587c:	xor    al,0x31
  40587e:	inc    eax
  40587f:	add    BYTE PTR [eax],bh
  405881:	xor    DWORD PTR [eax+0x0],eax
  405884:	sub    al,0x31
  405886:	inc    eax
  405887:	add    al,dh
  405889:	das    
  40588a:	inc    eax
  40588b:	add    BYTE PTR [eax+esi*1],cl
  40588e:	inc    eax
  40588f:	add    BYTE PTR [eax],ch
  405891:	xor    BYTE PTR [eax+0x0],al
  405894:	push   cs
  405895:	inc    ebp
  405896:	dec    ecx
  405897:	outs   dx,BYTE PTR ds:[esi]
  405898:	je     0x405900
  40589a:	inc    ebx
  40589b:	popa   
  40589c:	jae    0x405912
  40589e:	inc    ebp
  40589f:	jb     0x405913
  4058a1:	outs   dx,DWORD PTR ds:[esi]
  4058a2:	jb     0x405834
  4058a4:	lock pop eax
  4058a6:	inc    eax
	...
  4058c3:	add    al,dh
  4058c5:	pop    eax
  4058c6:	inc    eax
  4058c7:	add    BYTE PTR [eax+eax*1],cl
  4058ca:	add    BYTE PTR [eax],al
  4058cc:	fs dec edi
  4058ce:	inc    eax
  4058cf:	add    BYTE PTR [ecx+esi*1],ah
  4058d2:	inc    eax
  4058d3:	add    BYTE PTR [eax],dh
  4058d5:	xor    DWORD PTR [eax+0x0],eax
  4058d8:	xor    al,0x31
  4058da:	inc    eax
  4058db:	add    BYTE PTR [eax],bh
  4058dd:	xor    DWORD PTR [eax+0x0],eax
  4058e0:	sub    al,0x31
  4058e2:	inc    eax
  4058e3:	add    al,dh
  4058e5:	das    
  4058e6:	inc    eax
  4058e7:	add    BYTE PTR [eax+esi*1],cl
  4058ea:	inc    eax
  4058eb:	add    BYTE PTR [eax],ch
  4058ed:	xor    BYTE PTR [eax+0x0],al
  4058f0:	adc    al,BYTE PTR [ebp+0x53]
  4058f3:	popa   
  4058f4:	data16 arpl WORD PTR gs:[ecx+0x6c],sp
  4058f9:	ins    BYTE PTR es:[edi],dx
  4058fa:	inc    ebp
  4058fb:	js     0x405960
  4058fd:	gs jo  0x405974
  405900:	imul   ebp,DWORD PTR [edi+0x6e],0x40590890
  405907:	add    BYTE PTR [ecx],dl
  405909:	add    ebp,DWORD PTR [esi]
  40590b:	aaa    
  40590c:	xor    al,0x4
  40590e:	add    BYTE PTR [eax],al
  405910:	add    BYTE PTR [eax],al
  405912:	adc    BYTE PTR [eax+0x0],al
  405915:	dec    eax
  405916:	add    BYTE PTR [eax],al
  405918:	add    BYTE PTR [eax],al
  40591a:	adc    BYTE PTR [eax+0x0],al
  40591d:	or     BYTE PTR [ebx+0x79],dl
  405920:	jae    0x405977
  405922:	je     0x40598d
  405924:	ins    BYTE PTR es:[edi],dx
  405925:	jae    0x4058b2
  405927:	shr    BYTE PTR [ecx+ebx*2],0x40
  40592b:	add    BYTE PTR [ecx],dl
  40592d:	add    ebp,DWORD PTR [esi]
  40592f:	cmp    BYTE PTR [esp+eax*1],dh
  405932:	add    BYTE PTR [eax],al
  405934:	add    BYTE PTR [eax],al
  405936:	adc    BYTE PTR [eax+0x0],al
  405939:	dec    eax
  40593a:	add    BYTE PTR [eax],al
  40593c:	add    BYTE PTR [eax],al
  40593e:	adc    BYTE PTR [eax+0x0],al
  405941:	or     BYTE PTR [ebx+0x79],dl
  405944:	jae    0x40599b
  405946:	je     0x4059b1
  405948:	ins    BYTE PTR es:[edi],dx
  405949:	jae    0x4058d6
  40594b:	sar    bh,0xff
  40594e:	(bad)  
  40594f:	inc    DWORD PTR [ecx]
  405951:	add    BYTE PTR [eax],al
  405953:	add    BYTE PTR [eax+eax*1],ah
  405956:	add    BYTE PTR [eax],al
  405958:	push   ebx
  405959:	push   esi
  40595a:	push   edi
  40595b:	mov    edi,ecx
  40595d:	mov    esi,edx
  40595f:	mov    ebx,eax
  405961:	push   esi
  405962:	push   edi
  405963:	mov    ecx,ebx
  405965:	mov    dl,0x1
  405967:	mov    eax,ds:0x405568
  40596c:	call   0x406fbc
  405971:	call   0x40342c
  405976:	pop    edi
  405977:	pop    esi
  405978:	pop    ebx
  405979:	ret    
  40597a:	mov    eax,eax
  40597c:	or     cl,cl
  40597e:	jne    0x405997
  405980:	or     eax,eax
  405982:	jns    0x405992
  405984:	neg    eax
  405986:	call   0x405992
  40598b:	mov    al,0x2d
  40598d:	inc    ecx
  40598e:	dec    esi
  40598f:	mov    BYTE PTR [esi],al
  405991:	ret    
  405992:	mov    ecx,0xa
  405997:	push   edx
  405998:	push   esi
  405999:	xor    edx,edx
  40599b:	div    ecx
  40599d:	dec    esi
  40599e:	add    dl,0x30
  4059a1:	cmp    dl,0x3a
  4059a4:	jb     0x4059a9
  4059a6:	add    dl,0x7
  4059a9:	mov    BYTE PTR [esi],dl
  4059ab:	or     eax,eax
  4059ad:	jne    0x405999
  4059af:	pop    ecx
  4059b0:	pop    edx
  4059b1:	sub    ecx,esi
  4059b3:	sub    edx,ecx
  4059b5:	jbe    0x4059c7
  4059b7:	add    ecx,edx
  4059b9:	mov    al,0x30
  4059bb:	sub    esi,edx
  4059bd:	jmp    0x4059c2
  4059bf:	mov    BYTE PTR [edx+esi*1],al
  4059c2:	dec    edx
  4059c3:	jne    0x4059bf
  4059c5:	mov    BYTE PTR [esi],al
  4059c7:	ret    
  4059c8:	or     cl,cl
  4059ca:	jne    0x4059fc
  4059cc:	mov    ecx,0xa
  4059d1:	test   DWORD PTR [eax+0x4],0x80000000
  4059d8:	je     0x4059fc
  4059da:	push   DWORD PTR [eax+0x4]
  4059dd:	push   DWORD PTR [eax]
  4059df:	mov    eax,esp
  4059e1:	neg    DWORD PTR [esp]
  4059e4:	adc    DWORD PTR [esp+0x4],0x0
  4059e9:	neg    DWORD PTR [esp+0x4]
  4059ed:	call   0x4059fc
  4059f2:	mov    BYTE PTR [esi-0x1],0x2d
  4059f6:	dec    esi
  4059f7:	inc    ecx
  4059f8:	add    esp,0x8
  4059fb:	ret    
  4059fc:	push   esi
  4059fd:	sub    esp,0x4
  405a00:	fnstcw WORD PTR [esp+0x2]
  405a04:	fnstcw WORD PTR [esp]
  405a07:	or     WORD PTR [esp],0xf00
  405a0d:	fldcw  WORD PTR [esp]
  405a10:	mov    WORD PTR [esp],cx
  405a14:	fld1   
  405a16:	test   DWORD PTR [eax+0x4],0x80000000
  405a1d:	je     0x405a46
  405a1f:	push   DWORD PTR [eax+0x4]
  405a22:	push   DWORD PTR [eax]
  405a24:	and    DWORD PTR [esp+0x4],0x7fffffff
  405a2c:	push   0x7fffffff
  405a31:	push   0xffffffff
  405a36:	fild   QWORD PTR [esp+0x8]
  405a3a:	fild   QWORD PTR [esp]
  405a3d:	fadd   st,st(2)
  405a3f:	faddp  st(1),st
  405a41:	add    esp,0x10
  405a44:	jmp    0x405a48
  405a46:	fild   QWORD PTR [eax]
  405a48:	fild   WORD PTR [esp]
  405a4b:	fld    st(1)
  405a4d:	dec    esi
  405a4e:	fprem  
  405a50:	fistp  WORD PTR [esp]
  405a53:	fdiv   st(1),st
  405a55:	mov    al,BYTE PTR [esp]
  405a58:	add    al,0x30
  405a5a:	cmp    al,0x3a
  405a5c:	jb     0x405a60
  405a5e:	add    al,0x7
  405a60:	mov    BYTE PTR [esi],al
  405a62:	fld    st(1)
  405a64:	fcom   st(3)
  405a66:	fstsw  ax
  405a69:	sahf   
  405a6a:	jae    0x405a4d
  405a6c:	fldcw  WORD PTR [esp+0x2]
  405a70:	add    esp,0x4
  405a73:	ffree  st(3)
  405a75:	ffree  st(2)
  405a77:	ffree  st(1)
  405a79:	ffree  st(0)
  405a7b:	pop    ecx
  405a7c:	sub    ecx,esi
  405a7e:	sub    edx,ecx
  405a80:	jbe    0x405a92
  405a82:	sub    esi,edx
  405a84:	mov    al,0x30
  405a86:	add    ecx,edx
  405a88:	jmp    0x405a8d
  405a8a:	mov    BYTE PTR [edx+esi*1],al
  405a8d:	dec    edx
  405a8e:	jne    0x405a8a
  405a90:	mov    BYTE PTR [esi],al
  405a92:	ret    
  405a93:	nop
  405a94:	push   ebx
  405a95:	push   ecx
  405a96:	mov    ebx,edx
  405a98:	mov    edx,esp
  405a9a:	call   0x402b00
  405a9f:	cmp    DWORD PTR [esp],0x0
  405aa3:	je     0x405aa7
  405aa5:	mov    eax,ebx
  405aa7:	pop    edx
  405aa8:	pop    ebx
  405aa9:	ret    
  405aaa:	mov    eax,eax
  405aac:	(bad)  
  405aad:	(bad)  
  405aae:	(bad)  
  405aaf:	inc    DWORD PTR [ecx]
  405ab1:	add    BYTE PTR [eax],al
  405ab3:	add    BYTE PTR [eax],dh
  405ab5:	add    BYTE PTR [eax],al
  405ab7:	add    bh,bh
  405ab9:	(bad)  
  405aba:	(bad)  
  405abb:	inc    DWORD PTR [edx]
  405abd:	add    BYTE PTR [eax],al
  405abf:	add    BYTE PTR ds:0x53000031,ch
  405ac5:	push   esi
  405ac6:	push   edi
  405ac7:	push   ecx
  405ac8:	mov    esi,edx
  405aca:	mov    ebx,eax
  405acc:	mov    eax,esi
  405ace:	call   0x403c68
  405ad3:	mov    edi,eax
  405ad5:	mov    eax,ebx
  405ad7:	call   0x403d50
  405adc:	mov    DWORD PTR [esp],eax
  405adf:	test   edi,edi
  405ae1:	jle    0x405b0c
  405ae3:	mov    bl,BYTE PTR [esi+edi*1-0x1]
  405ae7:	test   bl,bl
  405ae9:	je     0x405b07
  405aeb:	mov    edx,ebx
  405aed:	mov    eax,DWORD PTR [esp]
  405af0:	call   0x405c6c
  405af5:	test   eax,eax
  405af7:	je     0x405b07
  405af9:	mov    edx,edi
  405afb:	mov    eax,esi
  405afd:	call   0x407774
  405b02:	cmp    al,0x2
  405b04:	jne    0x405b0c
  405b06:	dec    edi
  405b07:	dec    edi
  405b08:	test   edi,edi
  405b0a:	jg     0x405ae3
  405b0c:	mov    eax,edi
  405b0e:	pop    edx
  405b0f:	pop    edi
  405b10:	pop    esi
  405b11:	pop    ebx
  405b12:	ret    
  405b13:	nop
  405b14:	push   ebx
  405b15:	push   esi
  405b16:	push   edi
  405b17:	mov    edi,edx
  405b19:	mov    ebx,eax
  405b1b:	mov    edx,ebx
  405b1d:	mov    eax,0x405b48
  405b22:	call   0x405ac4
  405b27:	mov    esi,eax
  405b29:	push   edi
  405b2a:	lea    edx,[esi+0x1]
  405b2d:	mov    ecx,0x7fffffff
  405b32:	mov    eax,ebx
  405b34:	call   0x403da8
  405b39:	pop    edi
  405b3a:	pop    esi
  405b3b:	pop    ebx
  405b3c:	ret    
  405b3d:	add    BYTE PTR [eax],al
  405b3f:	add    bh,bh
  405b41:	(bad)  
  405b42:	(bad)  
  405b43:	inc    DWORD PTR [edx]
  405b45:	add    BYTE PTR [eax],al
  405b47:	add    BYTE PTR [edx+edi*1+0x0],bl
  405b4b:	add    BYTE PTR [ebp-0x75],dl
  405b4e:	in     al,dx
  405b4f:	add    esp,0xffffffe4
  405b52:	push   ebx
  405b53:	mov    eax,DWORD PTR [ebp+0x8]
  405b56:	test   eax,eax
  405b58:	je     0x405b5f
  405b5a:	mov    DWORD PTR [ebp-0x1c],eax
  405b5d:	jmp    0x405b64
  405b5f:	xor    eax,eax
  405b61:	mov    DWORD PTR [ebp-0x1c],eax
  405b64:	lea    eax,[ebp-0x10]
  405b67:	push   eax
  405b68:	lea    eax,[ebp-0xc]
  405b6b:	push   eax
  405b6c:	lea    eax,[ebp-0x8]
  405b6f:	push   eax
  405b70:	lea    eax,[ebp-0x4]
  405b73:	push   eax
  405b74:	mov    eax,DWORD PTR [ebp-0x1c]
  405b77:	push   eax
  405b78:	call   0x4049ec
  405b7d:	mov    ebx,eax
  405b7f:	mov    eax,DWORD PTR [ebp-0x4]
  405b82:	imul   DWORD PTR [ebp-0x8]
  405b85:	xor    edx,edx
  405b87:	mov    DWORD PTR [ebp-0x18],eax
  405b8a:	mov    DWORD PTR [ebp-0x14],edx
  405b8d:	mov    eax,DWORD PTR [ebp-0xc]
  405b90:	xor    edx,edx
  405b92:	push   edx
  405b93:	push   eax
  405b94:	mov    eax,DWORD PTR [ebp-0x18]
  405b97:	mov    edx,DWORD PTR [ebp-0x14]
  405b9a:	call   0x403fc8
  405b9f:	mov    ecx,DWORD PTR [ebp+0xc]
  405ba2:	mov    DWORD PTR [ecx],eax
  405ba4:	mov    DWORD PTR [ecx+0x4],edx
  405ba7:	mov    eax,DWORD PTR [ebp-0x10]
  405baa:	xor    edx,edx
  405bac:	push   edx
  405bad:	push   eax
  405bae:	mov    eax,DWORD PTR [ebp-0x18]
  405bb1:	mov    edx,DWORD PTR [ebp-0x14]
  405bb4:	call   0x403fc8
  405bb9:	mov    ecx,DWORD PTR [ebp+0x10]
  405bbc:	mov    DWORD PTR [ecx],eax
  405bbe:	mov    DWORD PTR [ecx+0x4],edx
  405bc1:	mov    eax,ebx
  405bc3:	pop    ebx
  405bc4:	mov    esp,ebp
  405bc6:	pop    ebp
  405bc7:	ret    0x10
  405bca:	mov    eax,eax
  405bcc:	mov    edx,edi
  405bce:	mov    edi,eax
  405bd0:	mov    ecx,0xffffffff
  405bd5:	xor    al,al
  405bd7:	repnz scas al,BYTE PTR es:[edi]
  405bd9:	mov    eax,0xfffffffe
  405bde:	sub    eax,ecx
  405be0:	mov    edi,edx
  405be2:	ret    
  405be3:	nop
  405be4:	push   ecx
  405be5:	mov    DWORD PTR [esp],eax
  405be8:	xchg   edx,eax
  405be9:	call   0x4029b8
  405bee:	mov    eax,DWORD PTR [esp]
  405bf1:	pop    edx
  405bf2:	ret    
  405bf3:	nop
  405bf4:	push   edi
  405bf5:	push   esi
  405bf6:	push   ebx
  405bf7:	mov    esi,eax
  405bf9:	mov    edi,edx
  405bfb:	mov    ebx,ecx
  405bfd:	xor    al,al
  405bff:	test   ecx,ecx
  405c01:	je     0x405c08
  405c03:	repnz scas al,BYTE PTR es:[edi]
  405c05:	jne    0x405c08
  405c07:	inc    ecx
  405c08:	sub    ebx,ecx
  405c0a:	mov    edi,esi
  405c0c:	mov    esi,edx
  405c0e:	mov    edx,edi
  405c10:	mov    ecx,ebx
  405c12:	shr    ecx,0x2
  405c15:	rep movs DWORD PTR es:[edi],DWORD PTR ds:[esi]
  405c17:	mov    ecx,ebx
  405c19:	and    ecx,0x3
  405c1c:	rep movs BYTE PTR es:[edi],BYTE PTR ds:[esi]
  405c1e:	stos   BYTE PTR es:[edi],al
  405c1f:	mov    eax,edx
  405c21:	pop    ebx
  405c22:	pop    esi
  405c23:	pop    edi
  405c24:	ret    
  405c25:	lea    eax,[eax+0x0]
  405c28:	push   edi
  405c29:	push   esi
  405c2a:	push   ebx
  405c2b:	mov    edi,edx
  405c2d:	mov    esi,eax
  405c2f:	mov    ebx,ecx
  405c31:	xor    eax,eax
  405c33:	or     ecx,ecx
  405c35:	je     0x405c66
  405c37:	repnz scas al,BYTE PTR es:[edi]
  405c39:	sub    ebx,ecx
  405c3b:	mov    ecx,ebx
  405c3d:	mov    edi,edx
  405c3f:	xor    edx,edx
  405c41:	repz cmps BYTE PTR ds:[esi],BYTE PTR es:[edi]
  405c43:	je     0x405c66
  405c45:	mov    al,BYTE PTR [esi-0x1]
  405c48:	cmp    al,0x61
  405c4a:	jb     0x405c52
  405c4c:	cmp    al,0x7a
  405c4e:	ja     0x405c52
  405c50:	sub    al,0x20
  405c52:	mov    dl,BYTE PTR [edi-0x1]
  405c55:	cmp    dl,0x61
  405c58:	jb     0x405c62
  405c5a:	cmp    dl,0x7a
  405c5d:	ja     0x405c62
  405c5f:	sub    dl,0x20
  405c62:	sub    eax,edx
  405c64:	je     0x405c41
  405c66:	pop    ebx
  405c67:	pop    esi
  405c68:	pop    edi
  405c69:	ret    
  405c6a:	mov    eax,eax
  405c6c:	push   ecx
  405c6d:	mov    ecx,esp
  405c6f:	mov    DWORD PTR [ecx],eax
  405c71:	jmp    0x405c7f
  405c73:	test   al,al
  405c75:	jne    0x405c7d
  405c77:	xor    eax,eax
  405c79:	mov    DWORD PTR [ecx],eax
  405c7b:	jmp    0x405c87
  405c7d:	inc    DWORD PTR [ecx]
  405c7f:	mov    eax,DWORD PTR [ecx]
  405c81:	mov    al,BYTE PTR [eax]
  405c83:	cmp    dl,al
  405c85:	jne    0x405c73
  405c87:	mov    eax,DWORD PTR [ecx]
  405c89:	pop    edx
  405c8a:	ret    
  405c8b:	nop
  405c8c:	push   ebx
  405c8d:	push   esi
  405c8e:	push   edi
  405c8f:	add    esp,0xffffffd8
  405c92:	mov    ebx,ecx
  405c94:	mov    esi,edx
  405c96:	mov    edi,eax
  405c98:	cmp    ebx,0x1f
  405c9b:	jbe    0x405ca2
  405c9d:	mov    ebx,0x1f
  405ca2:	mov    edx,ebx
  405ca4:	dec    edx
  405ca5:	mov    eax,esi
  405ca7:	call   0x407798
  405cac:	cmp    al,0x1
  405cae:	jne    0x405cb1
  405cb0:	dec    ebx
  405cb1:	mov    eax,esp
  405cb3:	mov    ecx,ebx
  405cb5:	mov    edx,esi
  405cb7:	call   0x405be4
  405cbc:	mov    BYTE PTR [esp+ebx*1],0x0
  405cc0:	mov    eax,esp
  405cc2:	mov    DWORD PTR [esp+0x20],eax
  405cc6:	mov    BYTE PTR [esp+0x24],0x6
  405ccb:	lea    edx,[esp+0x20]
  405ccf:	mov    eax,DWORD PTR [edi*4+0x40a0f4]
  405cd6:	xor    ecx,ecx
  405cd8:	call   0x405958
  405cdd:	add    esp,0x28
  405ce0:	pop    edi
  405ce1:	pop    esi
  405ce2:	pop    ebx
  405ce3:	ret    
  405ce4:	push   ebx
  405ce5:	mov    ecx,DWORD PTR ds:0x40a41c
  405ceb:	cmp    DWORD PTR [ecx],0x0
  405cee:	je     0x405cfc
  405cf0:	mov    ebx,DWORD PTR ds:0x40a41c
  405cf6:	mov    ebx,DWORD PTR [ebx]
  405cf8:	call   ebx
  405cfa:	pop    ebx
  405cfb:	ret    
  405cfc:	mov    al,0x10
  405cfe:	call   0x40295c
  405d03:	pop    ebx
  405d04:	ret    
  405d05:	lea    eax,[eax+0x0]
  405d08:	push   ebx
  405d09:	mov    ebx,eax
  405d0b:	mov    eax,ebx
  405d0d:	call   0x4039f4
  405d12:	pop    ebx
  405d13:	ret    
  405d14:	push   ebp
  405d15:	mov    ebp,esp
  405d17:	add    esp,0xffffff94
  405d1a:	push   ebx
  405d1b:	xor    ebx,ebx
  405d1d:	mov    DWORD PTR [ebp-0x14],ebx
  405d20:	push   ebx
  405d21:	push   esi
  405d22:	push   edi
  405d23:	mov    edi,eax
  405d25:	mov    esi,ecx
  405d27:	xor    eax,eax
  405d29:	mov    DWORD PTR [ebp-0x4],eax
  405d2c:	add    ecx,DWORD PTR [ebp+0x10]
  405d2f:	mov    DWORD PTR [ebp-0x8],edi
  405d32:	xor    eax,eax
  405d34:	mov    DWORD PTR [ebp-0xc],eax
  405d37:	mov    DWORD PTR [ebp-0x10],eax
  405d3a:	mov    DWORD PTR [ebp-0x14],eax
  405d3d:	or     edx,edx
  405d3f:	je     0x405d4e
  405d41:	cmp    esi,ecx
  405d43:	je     0x405d4e
  405d45:	lods   al,BYTE PTR ds:[esi]
  405d46:	cmp    al,0x25
  405d48:	je     0x405d58
  405d4a:	stos   BYTE PTR es:[edi],al
  405d4b:	dec    edx
  405d4c:	jne    0x405d41
  405d4e:	mov    eax,edi
  405d50:	sub    eax,DWORD PTR [ebp-0x8]
  405d53:	jmp    0x40607b
  405d58:	cmp    esi,ecx
  405d5a:	je     0x405d4e
  405d5c:	lods   al,BYTE PTR ds:[esi]
  405d5d:	cmp    al,0x25
  405d5f:	je     0x405d4a
  405d61:	lea    ebx,[esi-0x2]
  405d64:	mov    DWORD PTR [ebp-0x18],ebx
  405d67:	mov    BYTE PTR [ebp-0x19],al
  405d6a:	cmp    al,0x2d
  405d6c:	jne    0x405d73
  405d6e:	cmp    esi,ecx
  405d70:	je     0x405d4e
  405d72:	lods   al,BYTE PTR ds:[esi]
  405d73:	call   0x405df6
  405d78:	cmp    al,0x3a
  405d7a:	jne    0x405d86
  405d7c:	mov    DWORD PTR [ebp-0xc],ebx
  405d7f:	cmp    esi,ecx
  405d81:	je     0x405d4e
  405d83:	lods   al,BYTE PTR ds:[esi]
  405d84:	jmp    0x405d67
  405d86:	mov    DWORD PTR [ebp-0x20],ebx
  405d89:	mov    ebx,0xffffffff
  405d8e:	cmp    al,0x2e
  405d90:	jne    0x405d9c
  405d92:	cmp    esi,ecx
  405d94:	je     0x405d4e
  405d96:	lods   al,BYTE PTR ds:[esi]
  405d97:	call   0x405df6
  405d9c:	mov    DWORD PTR [ebp-0x24],ebx
  405d9f:	mov    DWORD PTR [ebp-0x28],esi
  405da2:	push   ecx
  405da3:	push   edx
  405da4:	call   0x405e3e
  405da9:	pop    edx
  405daa:	mov    ebx,DWORD PTR [ebp-0x20]
  405dad:	sub    ebx,ecx
  405daf:	jae    0x405db3
  405db1:	xor    ebx,ebx
  405db3:	cmp    BYTE PTR [ebp-0x19],0x2d
  405db7:	jne    0x405dc3
  405db9:	sub    edx,ecx
  405dbb:	jae    0x405dc1
  405dbd:	add    ecx,edx
  405dbf:	xor    edx,edx
  405dc1:	rep movs BYTE PTR es:[edi],BYTE PTR ds:[esi]
  405dc3:	xchg   ecx,ebx
  405dc5:	sub    edx,ecx
  405dc7:	jae    0x405dcd
  405dc9:	add    ecx,edx
  405dcb:	xor    edx,edx
  405dcd:	mov    al,0x20
  405dcf:	rep stos BYTE PTR es:[edi],al
  405dd1:	xchg   ecx,ebx
  405dd3:	sub    edx,ecx
  405dd5:	jae    0x405ddb
  405dd7:	add    ecx,edx
  405dd9:	xor    edx,edx
  405ddb:	rep movs BYTE PTR es:[edi],BYTE PTR ds:[esi]
  405ddd:	cmp    DWORD PTR [ebp-0x10],0x0
  405de1:	je     0x405ded
  405de3:	push   edx
  405de4:	lea    eax,[ebp-0x10]
  405de7:	call   0x405d08
  405dec:	pop    edx
  405ded:	pop    ecx
  405dee:	mov    esi,DWORD PTR [ebp-0x28]
  405df1:	jmp    0x405d3d
  405df6:	xor    ebx,ebx
  405df8:	cmp    al,0x2a
  405dfa:	je     0x405e1e
  405dfc:	cmp    al,0x30
  405dfe:	jb     0x405e3d
  405e00:	cmp    al,0x39
  405e02:	ja     0x405e3d
  405e04:	imul   ebx,ebx,0xa
  405e0a:	sub    al,0x30
  405e0c:	movzx  eax,al
  405e0f:	add    ebx,eax
  405e11:	cmp    esi,ecx
  405e13:	je     0x405e18
  405e15:	lods   al,BYTE PTR ds:[esi]
  405e16:	jmp    0x405dfc
  405e18:	pop    eax
  405e19:	jmp    0x405d4e
  405e1e:	mov    eax,DWORD PTR [ebp-0xc]
  405e21:	cmp    eax,DWORD PTR [ebp+0x8]
  405e24:	jg     0x405e38
  405e26:	inc    DWORD PTR [ebp-0xc]
  405e29:	mov    ebx,DWORD PTR [ebp+0xc]
  405e2c:	cmp    BYTE PTR [ebx+eax*8+0x4],0x0
  405e31:	mov    ebx,DWORD PTR [ebx+eax*8]
  405e34:	je     0x405e38
  405e36:	xor    ebx,ebx
  405e38:	cmp    esi,ecx
  405e3a:	je     0x405e18
  405e3c:	lods   al,BYTE PTR ds:[esi]
  405e3d:	ret    
  405e3e:	and    al,0xdf
  405e40:	mov    cl,al
  405e42:	mov    eax,0x1
  405e47:	mov    ebx,DWORD PTR [ebp-0xc]
  405e4a:	cmp    ebx,DWORD PTR [ebp+0x8]
  405e4d:	jg     0x405eab
  405e4f:	inc    DWORD PTR [ebp-0xc]
  405e52:	mov    esi,DWORD PTR [ebp+0xc]
  405e55:	lea    esi,[esi+ebx*8]
  405e58:	mov    eax,DWORD PTR [esi]
  405e5a:	movzx  edx,BYTE PTR [esi+0x4]
  405e5e:	jmp    DWORD PTR [edx*4+0x405e65]
  405e65:	neg    BYTE PTR [esi+0x40]
  405e68:	add    BYTE PTR [ecx+0x2f00405e],ch
  405e6e:	pop    edi
  405e6f:	inc    eax
  405e70:	add    dh,dh
  405e72:	pop    edi
  405e73:	inc    eax
  405e74:	add    BYTE PTR [edi+0x5f],bl
  405e77:	inc    eax
  405e78:	add    bh,dl
  405e7a:	pop    edi
  405e7b:	inc    eax
  405e7c:	add    BYTE PTR [edi-0x56ffbfa1],dh
  405e82:	pop    esi
  405e83:	inc    eax
  405e84:	add    BYTE PTR [ecx-0x56ffbfa2],ch
  405e8a:	pop    esi
  405e8b:	inc    eax
  405e8c:	add    BYTE PTR [eax+0x5f],dh
  405e8f:	inc    eax
  405e90:	add    BYTE PTR [ebx-0xdffbfa1],bl
  405e96:	pop    edi
  405e97:	inc    eax
  405e98:	add    BYTE PTR [esi],bh
  405e9a:	pop    edi
  405e9b:	inc    eax
  405e9c:	add    BYTE PTR [ecx+0x7700405e],ch
  405ea2:	pop    edi
  405ea3:	inc    eax
  405ea4:	add    al,al
  405ea6:	pop    esi
  405ea7:	inc    eax
  405ea8:	add    BYTE PTR [ecx],dh
  405eaa:	shr    al,0xbb
  405ead:	add    DWORD PTR [eax],eax
  405eaf:	add    BYTE PTR [ebx+0x4d8be855],cl
  405eb5:	fsubr  DWORD PTR [ecx]
  405eb7:	ror    DWORD PTR [ebx-0x331703a3],1
  405ebd:	std    
  405ebe:	(bad)  
  405ebf:	dec    DWORD PTR [ebp+0x558bb775]
  405ec5:	fadd   QWORD PTR [ebx+0x27620fa]
  405ecb:	xor    edx,edx
  405ecd:	mov    ebx,ecx
  405ecf:	sub    cl,0x44
  405ed2:	je     0x4059c8
  405ed8:	mov    ecx,0x10
  405edd:	cmp    bl,0x58
  405ee0:	je     0x4059c8
  405ee6:	mov    ecx,0xa
  405eeb:	cmp    bl,0x55
  405eee:	je     0x4059c8
  405ef4:	jmp    0x405ea9
  405ef6:	lea    esi,[ebp-0x59]
  405ef9:	mov    edx,DWORD PTR [ebp-0x24]
  405efc:	mov    ebx,ecx
  405efe:	cmp    edx,0x10
  405f01:	jbe    0x405f05
  405f03:	xor    edx,edx
  405f05:	sub    cl,0x44
  405f08:	je     0x40597c
  405f0e:	mov    ecx,0x10
  405f13:	cmp    bl,0x58
  405f16:	je     0x40597c
  405f1c:	mov    ecx,0xa
  405f21:	cmp    bl,0x55
  405f24:	je     0x40597c
  405f2a:	jmp    0x405ea9
  405f2f:	cmp    cl,0x53
  405f32:	jne    0x405ea9
  405f38:	mov    ecx,0x1
  405f3d:	ret    
  405f3e:	cmp    cl,0x53
  405f41:	jne    0x405ea9
  405f47:	cmp    WORD PTR [eax],0x1
  405f4b:	jbe    0x405f5c
  405f4d:	mov    edx,eax
  405f4f:	lea    eax,[ebp-0x10]
  405f52:	call   0x405ce4
  405f57:	mov    esi,DWORD PTR [ebp-0x10]
  405f5a:	jmp    0x405fa6
  405f5c:	xor    ecx,ecx
  405f5e:	ret    
  405f5f:	cmp    cl,0x53
  405f62:	jne    0x405ea9
  405f68:	mov    esi,eax
  405f6a:	lods   al,BYTE PTR ds:[esi]
  405f6b:	movzx  ecx,al
  405f6e:	jmp    0x405fad
  405f70:	mov    esi,0x403c00
  405f75:	jmp    0x405f7c
  405f77:	mov    esi,0x403c54
  405f7c:	add    esi,DWORD PTR [ebp-0x4]
  405f7f:	cmp    cl,0x53
  405f82:	jne    0x405ea9
  405f88:	mov    edx,eax
  405f8a:	lea    eax,[ebp-0x14]
  405f8d:	push   ebx
  405f8e:	mov    ebx,DWORD PTR [ebp-0x4]
  405f91:	call   esi
  405f93:	pop    ebx
  405f94:	mov    esi,DWORD PTR [ebp-0x14]
  405f97:	mov    eax,esi
  405f99:	jmp    0x405fa6
  405f9b:	cmp    cl,0x53
  405f9e:	jne    0x405ea9
  405fa4:	mov    esi,eax
  405fa6:	or     esi,esi
  405fa8:	je     0x405f5c
  405faa:	mov    ecx,DWORD PTR [esi-0x4]
  405fad:	cmp    ecx,DWORD PTR [ebp-0x24]
  405fb0:	ja     0x405fb3
  405fb2:	ret    
  405fb3:	mov    ecx,DWORD PTR [ebp-0x24]
  405fb6:	ret    
  405fb7:	cmp    cl,0x53
  405fba:	jne    0x405ea9
  405fc0:	mov    esi,eax
  405fc2:	push   edi
  405fc3:	mov    edi,eax
  405fc5:	xor    al,al
  405fc7:	mov    ecx,DWORD PTR [ebp-0x24]
  405fca:	jecxz  0x405fd1
  405fcc:	repnz scas al,BYTE PTR es:[edi]
  405fce:	jne    0x405fd1
  405fd0:	dec    edi
  405fd1:	mov    ecx,edi
  405fd3:	sub    ecx,esi
  405fd5:	pop    edi
  405fd6:	ret    
  405fd7:	cmp    cl,0x50
  405fda:	jne    0x405ea9
  405fe0:	mov    edx,0x8
  405fe5:	mov    ecx,0x10
  405fea:	lea    esi,[ebp-0x59]
  405fed:	jmp    0x40597c
  405ff2:	mov    bh,0x1
  405ff4:	jmp    0x405ff8
  405ff6:	mov    bh,0x0
  405ff8:	mov    esi,eax
  405ffa:	mov    bl,0x0
  405ffc:	cmp    cl,0x47
  405fff:	je     0x406040
  406001:	mov    bl,0x1
  406003:	cmp    cl,0x45
  406006:	je     0x406040
  406008:	mov    bl,0x2
  40600a:	cmp    cl,0x46
  40600d:	je     0x406021
  40600f:	mov    bl,0x3
  406011:	cmp    cl,0x4e
  406014:	je     0x406021
  406016:	cmp    cl,0x4d
  406019:	jne    0x405ea9
  40601f:	mov    bl,0x4
  406021:	mov    eax,0x12
  406026:	mov    edx,DWORD PTR [ebp-0x24]
  406029:	cmp    edx,eax
  40602b:	jbe    0x406052
  40602d:	mov    edx,0x2
  406032:	cmp    cl,0x4d
  406035:	jne    0x406052
  406037:	movzx  edx,BYTE PTR ds:0x40b684
  40603e:	jmp    0x406052
  406040:	mov    eax,DWORD PTR [ebp-0x24]
  406043:	mov    edx,0x3
  406048:	cmp    eax,0x12
  40604b:	jbe    0x406052
  40604d:	mov    eax,0xf
  406052:	push   ebx
  406053:	push   eax
  406054:	push   edx
  406055:	lea    eax,[ebp-0x69]
  406058:	mov    edx,esi
  40605a:	movzx  ecx,bh
  40605d:	mov    ebx,DWORD PTR [ebp-0x4]
  406060:	call   0x4061f8
  406065:	mov    ecx,eax
  406067:	lea    esi,[ebp-0x69]
  40606a:	ret    
  40606b:	push   ebx
  40606c:	push   eax
  40606d:	lea    eax,[ebp-0x14]
  406070:	mov    ebx,DWORD PTR [ebp-0x4]
  406073:	call   0x4039f4
  406078:	pop    eax
  406079:	pop    ebx
  40607a:	ret    
  40607b:	call   0x40606b
  406080:	pop    edi
  406081:	pop    esi
  406082:	pop    ebx
  406083:	pop    ebx
  406084:	mov    esp,ebp
  406086:	pop    ebp
  406087:	ret    0xc
  40608a:	mov    eax,eax
  40608c:	push   ebp
  40608d:	mov    ebp,esp
  40608f:	push   ecx
  406090:	push   ebx
  406091:	push   esi
  406092:	push   edi
  406093:	mov    esi,ecx
  406095:	mov    edi,edx
  406097:	mov    ebx,eax
  406099:	test   ebx,ebx
  40609b:	je     0x4060c5
  40609d:	test   esi,esi
  40609f:	je     0x4060c5
  4060a1:	mov    eax,esi
  4060a3:	call   0x405bcc
  4060a8:	push   eax
  4060a9:	mov    eax,DWORD PTR [ebp+0xc]
  4060ac:	push   eax
  4060ad:	mov    eax,DWORD PTR [ebp+0x8]
  4060b0:	push   eax
  4060b1:	mov    ecx,esi
  4060b3:	mov    eax,ebx
  4060b5:	mov    edx,edi
  4060b7:	call   0x405d14
  4060bc:	mov    BYTE PTR [ebx+eax*1],0x0
  4060c0:	mov    DWORD PTR [ebp-0x4],ebx
  4060c3:	jmp    0x4060ca
  4060c5:	xor    eax,eax
  4060c7:	mov    DWORD PTR [ebp-0x4],eax
  4060ca:	mov    eax,DWORD PTR [ebp-0x4]
  4060cd:	pop    edi
  4060ce:	pop    esi
  4060cf:	pop    ebx
  4060d0:	pop    ecx
  4060d1:	pop    ebp
  4060d2:	ret    0x8
  4060d5:	lea    eax,[eax+0x0]
  4060d8:	push   ebp
  4060d9:	mov    ebp,esp
  4060db:	push   ecx
  4060dc:	mov    ecx,DWORD PTR [ebp+0x8]
  4060df:	xchg   ecx,eax
  4060e0:	xchg   ecx,edx
  4060e2:	call   0x4060ec
  4060e7:	pop    ebp
  4060e8:	ret    0x4
  4060eb:	nop
  4060ec:	push   ebp
  4060ed:	mov    ebp,esp
  4060ef:	add    esp,0xfffff004
  4060f5:	push   eax
  4060f6:	add    esp,0xfffffff8
  4060f9:	push   ebx
  4060fa:	push   esi
  4060fb:	push   edi
  4060fc:	mov    DWORD PTR [ebp-0x8],ecx
  4060ff:	mov    DWORD PTR [ebp-0x4],edx
  406102:	mov    esi,eax
  406104:	mov    ebx,0x1000
  406109:	mov    eax,DWORD PTR [ebp-0x4]
  40610c:	call   0x403c68
  406111:	cmp    eax,0xc00
  406116:	jge    0x406140
  406118:	mov    eax,DWORD PTR [ebp-0x4]
  40611b:	call   0x403c68
  406120:	push   eax
  406121:	mov    eax,DWORD PTR [ebp-0x8]
  406124:	push   eax
  406125:	mov    eax,DWORD PTR [ebp+0x8]
  406128:	push   eax
  406129:	mov    ecx,DWORD PTR [ebp-0x4]
  40612c:	lea    eax,[ebp-0x1008]
  406132:	mov    edx,0xfff
  406137:	call   0x405d14
  40613c:	mov    edi,eax
  40613e:	jmp    0x40614c
  406140:	mov    eax,DWORD PTR [ebp-0x4]
  406143:	call   0x403c68
  406148:	mov    ebx,eax
  40614a:	mov    edi,ebx
  40614c:	mov    eax,ebx
  40614e:	dec    eax
  40614f:	cmp    edi,eax
  406151:	jl     0x406199
  406153:	jmp    0x406187
  406155:	add    ebx,ebx
  406157:	mov    eax,esi
  406159:	call   0x4039f4
  40615e:	mov    eax,esi
  406160:	mov    edx,ebx
  406162:	call   0x403de8
  406167:	mov    eax,DWORD PTR [ebp-0x4]
  40616a:	call   0x403c68
  40616f:	push   eax
  406170:	mov    eax,DWORD PTR [ebp-0x8]
  406173:	push   eax
  406174:	mov    eax,DWORD PTR [ebp+0x8]
  406177:	push   eax
  406178:	mov    ecx,DWORD PTR [ebp-0x4]
  40617b:	mov    edx,ebx
  40617d:	dec    edx
  40617e:	mov    eax,DWORD PTR [esi]
  406180:	call   0x405d14
  406185:	mov    edi,eax
  406187:	mov    eax,ebx
  406189:	dec    eax
  40618a:	cmp    edi,eax
  40618c:	jge    0x406155
  40618e:	mov    eax,esi
  406190:	mov    edx,edi
  406192:	call   0x403de8
  406197:	jmp    0x4061a8
  406199:	lea    edx,[ebp-0x1008]
  40619f:	mov    eax,esi
  4061a1:	mov    ecx,edi
  4061a3:	call   0x403ae4
  4061a8:	pop    edi
  4061a9:	pop    esi
  4061aa:	pop    ebx
  4061ab:	mov    esp,ebp
  4061ad:	pop    ebp
  4061ae:	ret    0x4
  4061b1:	lea    eax,[eax+0x0]
  4061b4:	push   esi
  4061b5:	xor    esi,esi
  4061b7:	stos   BYTE PTR es:[edi],al
  4061b8:	or     bl,bl
  4061ba:	jne    0x4061c0
  4061bc:	xor    edx,edx
  4061be:	jmp    0x4061ca
  4061c0:	or     edx,edx
  4061c2:	jge    0x4061ca
  4061c4:	mov    al,0x2d
  4061c6:	neg    edx
  4061c8:	jmp    0x4061d0
  4061ca:	or     ah,ah
  4061cc:	je     0x4061d1
  4061ce:	mov    al,ah
  4061d0:	stos   BYTE PTR es:[edi],al
  4061d1:	xchg   edx,eax
  4061d2:	push   eax
  4061d3:	mov    ebx,esp
  4061d5:	xor    edx,edx
  4061d7:	div    DWORD PTR [esi+0x40a108]
  4061dd:	add    dl,0x30
  4061e0:	mov    BYTE PTR [ebx],dl
  4061e2:	inc    ebx
  4061e3:	dec    ecx
  4061e4:	or     eax,eax
  4061e6:	jne    0x4061d5
  4061e8:	or     ecx,ecx
  4061ea:	jg     0x4061d5
  4061ec:	dec    ebx
  4061ed:	mov    al,BYTE PTR [ebx]
  4061ef:	stos   BYTE PTR es:[edi],al
  4061f0:	cmp    ebx,esp
  4061f2:	jne    0x4061ec
  4061f4:	pop    eax
  4061f5:	pop    esi
  4061f6:	ret    
  4061f7:	nop
  4061f8:	push   ebp
  4061f9:	mov    ebp,esp
  4061fb:	add    esp,0xffffffd4
  4061fe:	push   edi
  4061ff:	push   esi
  406200:	push   ebx
  406201:	mov    DWORD PTR [ebp-0x4],eax
  406204:	mov    al,ds:0x40b683
  406209:	mov    BYTE PTR [ebp-0x5],al
  40620c:	mov    al,ds:0x40b682
  406211:	mov    BYTE PTR [ebp-0x6],al
  406214:	mov    eax,ds:0x40b67c
  406219:	mov    DWORD PTR [ebp-0xc],eax
  40621c:	mov    al,ds:0x40b680
  406221:	mov    BYTE PTR [ebp-0xd],al
  406224:	mov    al,ds:0x40b681
  406229:	mov    BYTE PTR [ebp-0xe],al
  40622c:	mov    DWORD PTR [ebp-0x14],0x0
  406233:	mov    eax,0x13
  406238:	cmp    cl,0x0
  40623b:	jne    0x406254
  40623d:	mov    eax,DWORD PTR [ebp+0xc]
  406240:	cmp    eax,0x2
  406243:	jge    0x40624a
  406245:	mov    eax,0x2
  40624a:	cmp    eax,0x12
  40624d:	jle    0x406254
  40624f:	mov    eax,0x12
  406254:	mov    DWORD PTR [ebp+0xc],eax
  406257:	push   eax
  406258:	mov    eax,0x270f
  40625d:	cmp    BYTE PTR [ebp+0x10],0x2
  406261:	jb     0x406266
  406263:	mov    eax,DWORD PTR [ebp+0x8]
  406266:	push   eax
  406267:	lea    eax,[ebp-0x2c]
  40626a:	call   0x4064cc
  40626f:	mov    edi,DWORD PTR [ebp-0x4]
  406272:	movzx  eax,WORD PTR [ebp-0x2c]
  406276:	sub    eax,0x7fff
  40627b:	cmp    eax,0x2
  40627e:	jae    0x40629a
  406280:	mov    ecx,eax
  406282:	call   0x4062f7
  406287:	lea    esi,[ecx+ecx*2+0x4062e8]
  40628e:	add    esi,DWORD PTR [ebp-0x14]
  406291:	mov    ecx,0x3
  406296:	rep movs BYTE PTR es:[edi],BYTE PTR ds:[esi]
  406298:	jmp    0x4062c7
  40629a:	lea    esi,[ebp-0x29]
  40629d:	movzx  ebx,BYTE PTR [ebp+0x10]
  4062a1:	cmp    bl,0x1
  4062a4:	je     0x4062b6
  4062a6:	cmp    bl,0x4
  4062a9:	ja     0x4062b4
  4062ab:	movsx  eax,WORD PTR [ebp-0x2c]
  4062af:	cmp    eax,DWORD PTR [ebp+0xc]
  4062b2:	jle    0x4062b6
  4062b4:	mov    bl,0x0
  4062b6:	lea    ebx,[ebx*4+0x4062d4]
  4062bd:	add    ebx,DWORD PTR [ebp-0x14]
  4062c0:	mov    ebx,DWORD PTR [ebx]
  4062c2:	add    ebx,DWORD PTR [ebp-0x14]
  4062c5:	call   ebx
  4062c7:	mov    eax,edi
  4062c9:	sub    eax,DWORD PTR [ebp-0x4]
  4062cc:	pop    ebx
  4062cd:	pop    esi
  4062ce:	pop    edi
  4062cf:	jmp    0x4064c5
  4062d4:	add    DWORD PTR [ebx+0x40],esp
  4062d7:	add    BYTE PTR [ebp+0x63],bl
  4062da:	inc    eax
  4062db:	add    BYTE PTR [ebx+eiz*2+0x63940040],dl
  4062e2:	inc    eax
  4062e3:	add    dh,bh
  4062e5:	arpl   WORD PTR [eax+0x0],ax
  4062e8:	dec    ecx
  4062e9:	dec    esi
  4062ea:	inc    esi
  4062eb:	dec    esi
  4062ec:	inc    ecx
  4062ed:	dec    esi
  4062ee:	lods   al,BYTE PTR ds:[esi]
  4062ef:	or     al,al
  4062f1:	jne    0x4062f6
  4062f3:	mov    al,0x30
  4062f5:	dec    esi
  4062f6:	ret    
  4062f7:	cmp    BYTE PTR [ebp-0x2a],0x0
  4062fb:	je     0x406300
  4062fd:	mov    al,0x2d
  4062ff:	stos   BYTE PTR es:[edi],al
  406300:	ret    
  406301:	call   0x4062f7
  406306:	movsx  ecx,WORD PTR [ebp-0x2c]
  40630a:	xor    edx,edx
  40630c:	cmp    ecx,DWORD PTR [ebp+0xc]
  40630f:	jg     0x40632e
  406311:	cmp    ecx,0xfffffffd
  406314:	jl     0x40632e
  406316:	or     ecx,ecx
  406318:	jg     0x406334
  40631a:	mov    al,0x30
  40631c:	stos   BYTE PTR es:[edi],al
  40631d:	cmp    BYTE PTR [esi],0x0
  406320:	je     0x40635c
  406322:	mov    al,BYTE PTR [ebp-0x5]
  406325:	stos   BYTE PTR es:[edi],al
  406326:	neg    ecx
  406328:	mov    al,0x30
  40632a:	rep stos BYTE PTR es:[edi],al
  40632c:	jmp    0x406348
  40632e:	mov    ecx,0x1
  406333:	inc    edx
  406334:	lods   al,BYTE PTR ds:[esi]
  406335:	or     al,al
  406337:	je     0x406350
  406339:	stos   BYTE PTR es:[edi],al
  40633a:	loop   0x406334
  40633c:	lods   al,BYTE PTR ds:[esi]
  40633d:	or     al,al
  40633f:	je     0x406354
  406341:	mov    ah,al
  406343:	mov    al,BYTE PTR [ebp-0x5]
  406346:	stos   WORD PTR es:[edi],ax
  406348:	lods   al,BYTE PTR ds:[esi]
  406349:	or     al,al
  40634b:	je     0x406354
  40634d:	stos   BYTE PTR es:[edi],al
  40634e:	jmp    0x406348
  406350:	mov    al,0x30
  406352:	rep stos BYTE PTR es:[edi],al
  406354:	or     edx,edx
  406356:	je     0x40635c
  406358:	xor    eax,eax
  40635a:	jmp    0x40637a
  40635c:	ret    
  40635d:	call   0x4062f7
  406362:	call   0x4062ee
  406367:	mov    ah,BYTE PTR [ebp-0x5]
  40636a:	stos   WORD PTR es:[edi],ax
  40636c:	mov    ecx,DWORD PTR [ebp+0xc]
  40636f:	dec    ecx
  406370:	call   0x4062ee
  406375:	stos   BYTE PTR es:[edi],al
  406376:	loop   0x406370
  406378:	mov    ah,0x2b
  40637a:	mov    ecx,DWORD PTR [ebp+0x8]
  40637d:	cmp    ecx,0x4
  406380:	jbe    0x406384
  406382:	xor    ecx,ecx
  406384:	mov    al,0x45
  406386:	mov    bl,BYTE PTR [ebp-0x29]
  406389:	movsx  edx,WORD PTR [ebp-0x2c]
  40638d:	dec    edx
  40638e:	call   0x4061b4
  406393:	ret    
  406394:	call   0x4062f7
  406399:	mov    edx,DWORD PTR [ebp+0x8]
  40639c:	cmp    edx,0x12
  40639f:	jb     0x4063a6
  4063a1:	mov    edx,0x12
  4063a6:	movsx  ecx,WORD PTR [ebp-0x2c]
  4063aa:	or     ecx,ecx
  4063ac:	jg     0x4063b3
  4063ae:	mov    al,0x30
  4063b0:	stos   BYTE PTR es:[edi],al
  4063b1:	jmp    0x4063dd
  4063b3:	xor    ebx,ebx
  4063b5:	cmp    BYTE PTR [ebp+0x10],0x2
  4063b9:	je     0x4063c5
  4063bb:	mov    eax,ecx
  4063bd:	dec    eax
  4063be:	mov    bl,0x3
  4063c0:	div    bl
  4063c2:	mov    bl,ah
  4063c4:	inc    ebx
  4063c5:	call   0x4062ee
  4063ca:	stos   BYTE PTR es:[edi],al
  4063cb:	dec    ecx
  4063cc:	je     0x4063dd
  4063ce:	dec    ebx
  4063cf:	jne    0x4063c5
  4063d1:	mov    al,BYTE PTR [ebp-0x6]
  4063d4:	test   al,al
  4063d6:	je     0x4063c5
  4063d8:	stos   BYTE PTR es:[edi],al
  4063d9:	mov    bl,0x3
  4063db:	jmp    0x4063c5
  4063dd:	or     edx,edx
  4063df:	je     0x4063fd
  4063e1:	mov    al,BYTE PTR [ebp-0x5]
  4063e4:	test   al,al
  4063e6:	je     0x4063e9
  4063e8:	stos   BYTE PTR es:[edi],al
  4063e9:	jecxz  0x4063f4
  4063eb:	mov    al,0x30
  4063ed:	stos   BYTE PTR es:[edi],al
  4063ee:	dec    edx
  4063ef:	je     0x4063fd
  4063f1:	inc    ecx
  4063f2:	jne    0x4063ed
  4063f4:	call   0x4062ee
  4063f9:	stos   BYTE PTR es:[edi],al
  4063fa:	dec    edx
  4063fb:	jne    0x4063f4
  4063fd:	ret    
  4063fe:	xor    ebx,ebx
  406400:	mov    bl,BYTE PTR [ebp-0xd]
  406403:	mov    ecx,0x3
  406408:	cmp    BYTE PTR [ebp-0x2a],0x0
  40640c:	je     0x406416
  40640e:	mov    bl,BYTE PTR [ebp-0xe]
  406411:	mov    ecx,0x40f
  406416:	cmp    bl,cl
  406418:	jbe    0x40641c
  40641a:	mov    bl,cl
  40641c:	add    bl,ch
  40641e:	lea    ebx,[ebx+ebx*4+0x406461]
  406425:	add    ebx,DWORD PTR [ebp-0x14]
  406428:	mov    ecx,0x5
  40642d:	mov    al,BYTE PTR [ebx]
  40642f:	cmp    al,0x40
  406431:	je     0x406451
  406433:	push   ecx
  406434:	push   ebx
  406435:	cmp    al,0x24
  406437:	je     0x406440
  406439:	cmp    al,0x2a
  40643b:	je     0x406447
  40643d:	stos   BYTE PTR es:[edi],al
  40643e:	jmp    0x40644c
  406440:	call   0x406452
  406445:	jmp    0x40644c
  406447:	call   0x406399
  40644c:	pop    ebx
  40644d:	pop    ecx
  40644e:	inc    ebx
  40644f:	loop   0x40642d
  406451:	ret    
  406452:	push   esi
  406453:	mov    esi,DWORD PTR [ebp-0xc]
  406456:	test   esi,esi
  406458:	je     0x40645f
  40645a:	mov    ecx,DWORD PTR [esi-0x4]
  40645d:	rep movs BYTE PTR es:[edi],BYTE PTR ds:[esi]
  40645f:	pop    esi
  406460:	ret    
  406461:	and    al,0x2a
  406463:	inc    eax
  406464:	inc    eax
  406465:	inc    eax
  406466:	sub    ah,BYTE PTR [eax+eax*2]
  406469:	inc    eax
  40646a:	inc    eax
  40646b:	and    al,0x20
  40646d:	sub    al,BYTE PTR [eax+0x40]
  406470:	sub    ah,BYTE PTR [eax]
  406472:	and    al,0x40
  406474:	inc    eax
  406475:	sub    BYTE PTR [edx+ebp*1],ah
  406478:	sub    DWORD PTR [eax+0x2d],eax
  40647b:	and    al,0x2a
  40647d:	inc    eax
  40647e:	inc    eax
  40647f:	and    al,0x2d
  406481:	sub    al,BYTE PTR [eax+0x40]
  406484:	and    al,0x2a
  406486:	sub    eax,0x2a284040
  40648b:	and    al,0x29
  40648d:	inc    eax
  40648e:	sub    eax,0x4040242a
  406493:	sub    ch,BYTE PTR ds:0x2a404024
  406499:	and    al,0x2d
  40649b:	inc    eax
  40649c:	inc    eax
  40649d:	sub    eax,0x4024202a
  4064a2:	sub    eax,0x402a2024
  4064a7:	sub    ah,BYTE PTR [eax]
  4064a9:	and    al,0x2d
  4064ab:	inc    eax
  4064ac:	and    al,0x20
  4064ae:	sub    ch,BYTE PTR ds:0x2d202440
  4064b4:	sub    al,BYTE PTR [eax+0x2a]
  4064b7:	sub    eax,0x28402420
  4064bc:	and    al,0x20
  4064be:	sub    ch,BYTE PTR [ecx]
  4064c0:	sub    BYTE PTR [edx],ch
  4064c2:	and    BYTE PTR [ecx+ebp*1],ah
  4064c5:	mov    esp,ebp
  4064c7:	pop    ebp
  4064c8:	ret    0xc
  4064cb:	nop
  4064cc:	push   ebp
  4064cd:	mov    ebp,esp
  4064cf:	add    esp,0xffffffe0
  4064d2:	push   edi
  4064d3:	push   esi
  4064d4:	push   ebx
  4064d5:	mov    ebx,eax
  4064d7:	mov    esi,edx
  4064d9:	mov    DWORD PTR [ebp-0x4],0x0
  4064e0:	cmp    cl,0x0
  4064e3:	je     0x4064ef
  4064e5:	call   0x40661b
  4064ea:	jmp    0x4066ef
  4064ef:	call   0x4064f9
  4064f4:	jmp    0x4066ef
  4064f9:	mov    ax,WORD PTR [esi+0x8]
  4064fd:	mov    edx,eax
  4064ff:	and    eax,0x7fff
  406504:	je     0x406524
  406506:	cmp    eax,0x7fff
  40650b:	jne    0x40652f
  40650d:	test   WORD PTR [esi+0x6],0x8000
  406513:	je     0x406526
  406515:	cmp    DWORD PTR [esi],0x0
  406518:	jne    0x406523
  40651a:	cmp    DWORD PTR [esi+0x4],0x80000000
  406521:	je     0x406526
  406523:	inc    eax
  406524:	xor    edx,edx
  406526:	mov    BYTE PTR [ebx+0x3],0x0
  40652a:	jmp    0x4065fc
  40652f:	fld    TBYTE PTR [esi]
  406531:	sub    eax,0x3fff
  406536:	imul   eax,eax,0x4d10
  40653c:	sar    eax,0x10
  40653f:	inc    eax
  406540:	mov    DWORD PTR [ebp-0x8],eax
  406543:	mov    eax,0x12
  406548:	sub    eax,DWORD PTR [ebp-0x8]
  40654b:	fabs   
  40654d:	push   ebx
  40654e:	mov    ebx,DWORD PTR [ebp-0x4]
  406551:	call   0x402be8
  406556:	pop    ebx
  406557:	frndint 
  406559:	mov    edi,DWORD PTR [ebp-0x4]
  40655c:	fld    TBYTE PTR [edi+0x40a0fc]
  406562:	fcomp  st(1)
  406564:	fstsw  WORD PTR [ebp-0xa]
  406568:	fwait
  406569:	test   WORD PTR [ebp-0xa],0x4100
  40656f:	je     0x40657a
  406571:	fidiv  DWORD PTR [edi+0x40a108]
  406577:	inc    DWORD PTR [ebp-0x8]
  40657a:	fbstp  TBYTE PTR [ebp-0x18]
  40657d:	lea    edi,[ebx+0x3]
  406580:	mov    edx,0x9
  406585:	fwait
  406586:	mov    al,BYTE PTR [edx+ebp*1-0x19]
  40658a:	mov    ah,al
  40658c:	shr    al,0x4
  40658f:	and    ah,0xf
  406592:	add    ax,0x3030
  406596:	stos   WORD PTR es:[edi],ax
  406598:	dec    edx
  406599:	jne    0x406586
  40659b:	xor    al,al
  40659d:	stos   BYTE PTR es:[edi],al
  40659e:	mov    edi,DWORD PTR [ebp-0x8]
  4065a1:	add    edi,DWORD PTR [ebp+0x8]
  4065a4:	jns    0x4065ad
  4065a6:	xor    eax,eax
  4065a8:	jmp    0x406524
  4065ad:	cmp    edi,DWORD PTR [ebp+0xc]
  4065b0:	jb     0x4065b5
  4065b2:	mov    edi,DWORD PTR [ebp+0xc]
  4065b5:	cmp    edi,0x12
  4065b8:	jae    0x4065e1
  4065ba:	cmp    BYTE PTR [ebx+edi*1+0x3],0x35
  4065bf:	jb     0x4065e6
  4065c1:	mov    BYTE PTR [ebx+edi*1+0x3],0x0
  4065c6:	dec    edi
  4065c7:	js     0x4065d6
  4065c9:	inc    BYTE PTR [ebx+edi*1+0x3]
  4065cd:	cmp    BYTE PTR [ebx+edi*1+0x3],0x39
  4065d2:	ja     0x4065c1
  4065d4:	jmp    0x4065f5
  4065d6:	mov    WORD PTR [ebx+0x3],0x31
  4065dc:	inc    DWORD PTR [ebp-0x8]
  4065df:	jmp    0x4065f5
  4065e1:	mov    edi,0x12
  4065e6:	mov    BYTE PTR [ebx+edi*1+0x3],0x0
  4065eb:	dec    edi
  4065ec:	js     0x406607
  4065ee:	cmp    BYTE PTR [ebx+edi*1+0x3],0x30
  4065f3:	je     0x4065e6
  4065f5:	mov    dx,WORD PTR [esi+0x8]
  4065f9:	mov    eax,DWORD PTR [ebp-0x8]
  4065fc:	shr    dx,0xf
  406600:	mov    WORD PTR [ebx],ax
  406603:	mov    BYTE PTR [ebx+0x2],dl
  406606:	ret    
  406607:	xor    edx,edx
  406609:	jmp    0x4065f9
  40660b:	or     al,BYTE PTR [eax]
  40660d:	add    BYTE PTR [eax],al
  40660f:	add    BYTE PTR fs:[eax],al
  406612:	add    al,ch
  406614:	add    eax,DWORD PTR [eax]
  406616:	add    BYTE PTR [eax],dl
  406618:	daa    
  406619:	add    BYTE PTR [eax],al
  40661b:	mov    eax,DWORD PTR [esi]
  40661d:	mov    edx,DWORD PTR [esi+0x4]
  406620:	mov    ecx,eax
  406622:	or     ecx,edx
  406624:	je     0x4066e1
  40662a:	or     edx,edx
  40662c:	jns    0x406635
  40662e:	neg    edx
  406630:	neg    eax
  406632:	sbb    edx,0x0
  406635:	xor    ecx,ecx
  406637:	mov    edi,DWORD PTR [ebp+0x8]
  40663a:	or     edi,edi
  40663c:	jge    0x406640
  40663e:	xor    edi,edi
  406640:	cmp    edi,0x4
  406643:	jl     0x406664
  406645:	mov    edi,0x4
  40664a:	inc    ecx
  40664b:	sub    eax,0xa7640000
  406650:	sbb    edx,0xde0b6b3
  406656:	jae    0x40664a
  406658:	dec    ecx
  406659:	add    eax,0xa7640000
  40665e:	adc    edx,0xde0b6b3
  406664:	mov    DWORD PTR [ebp-0x20],eax
  406667:	mov    DWORD PTR [ebp-0x1c],edx
  40666a:	fild   QWORD PTR [ebp-0x20]
  40666d:	mov    edx,edi
  40666f:	mov    eax,0x4
  406674:	sub    eax,edx
  406676:	je     0x406682
  406678:	mov    edi,DWORD PTR [ebp-0x4]
  40667b:	fidiv  DWORD PTR [edi+eax*4+0x406607]
  406682:	fbstp  TBYTE PTR [ebp-0x18]
  406685:	lea    edi,[ebx+0x3]
  406688:	fwait
  406689:	or     ecx,ecx
  40668b:	jne    0x4066a8
  40668d:	mov    ecx,0x9
  406692:	mov    al,BYTE PTR [ecx+ebp*1-0x19]
  406696:	mov    ah,al
  406698:	shr    al,0x4
  40669b:	jne    0x4066bb
  40669d:	mov    al,ah
  40669f:	and    al,0xf
  4066a1:	jne    0x4066c2
  4066a3:	dec    ecx
  4066a4:	jne    0x406692
  4066a6:	jmp    0x4066e1
  4066a8:	mov    al,cl
  4066aa:	add    al,0x30
  4066ac:	stos   BYTE PTR es:[edi],al
  4066ad:	mov    ecx,0x9
  4066b2:	mov    al,BYTE PTR [ecx+ebp*1-0x19]
  4066b6:	mov    ah,al
  4066b8:	shr    al,0x4
  4066bb:	add    al,0x30
  4066bd:	stos   BYTE PTR es:[edi],al
  4066be:	mov    al,ah
  4066c0:	and    al,0xf
  4066c2:	add    al,0x30
  4066c4:	stos   BYTE PTR es:[edi],al
  4066c5:	dec    ecx
  4066c6:	jne    0x4066b2
  4066c8:	mov    eax,edi
  4066ca:	lea    ecx,[ebx+edx*1+0x3]
  4066ce:	sub    eax,ecx
  4066d0:	mov    BYTE PTR [edi],0x0
  4066d3:	dec    edi
  4066d4:	cmp    BYTE PTR [edi],0x30
  4066d7:	je     0x4066d0
  4066d9:	mov    edx,DWORD PTR [esi+0x4]
  4066dc:	shr    edx,0x1f
  4066df:	jmp    0x4066e8
  4066e1:	xor    eax,eax
  4066e3:	xor    edx,edx
  4066e5:	mov    BYTE PTR [ebx+0x3],al
  4066e8:	mov    WORD PTR [ebx],ax
  4066eb:	mov    BYTE PTR [ebx+0x2],dl
  4066ee:	ret    
  4066ef:	pop    ebx
  4066f0:	pop    esi
  4066f1:	pop    edi
  4066f2:	mov    esp,ebp
  4066f4:	pop    ebp
  4066f5:	ret    0x8
  4066f8:	push   ebp
  4066f9:	mov    ebp,esp
  4066fb:	add    esp,0xffffff00
  406701:	push   ebx
  406702:	push   esi
  406703:	mov    esi,ecx
  406705:	mov    ebx,DWORD PTR [ebp+0x8]
  406708:	push   0x100
  40670d:	lea    ecx,[ebp-0x100]
  406713:	push   ecx
  406714:	push   edx
  406715:	push   eax
  406716:	call   0x4049fc
  40671b:	test   eax,eax
  40671d:	jle    0x406731
  40671f:	mov    ecx,eax
  406721:	dec    ecx
  406722:	lea    edx,[ebp-0x100]
  406728:	mov    eax,ebx
  40672a:	call   0x403ae4
  40672f:	jmp    0x40673a
  406731:	mov    eax,ebx
  406733:	mov    edx,esi
  406735:	call   0x403a48
  40673a:	pop    esi
  40673b:	pop    ebx
  40673c:	mov    esp,ebp
  40673e:	pop    ebp
  40673f:	ret    0x4
  406742:	mov    eax,eax
  406744:	push   ebx
  406745:	push   esi
  406746:	push   edi
  406747:	push   ecx
  406748:	mov    ebx,ecx
  40674a:	mov    esi,edx
  40674c:	mov    edi,eax
  40674e:	push   0x2
  406750:	lea    eax,[esp+0x4]
  406754:	push   eax
  406755:	push   esi
  406756:	push   edi
  406757:	call   0x4049fc
  40675c:	test   eax,eax
  40675e:	jle    0x406765
  406760:	mov    al,BYTE PTR [esp]
  406763:	jmp    0x406767
  406765:	mov    eax,ebx
  406767:	pop    edx
  406768:	pop    edi
  406769:	pop    esi
  40676a:	pop    ebx
  40676b:	ret    
  40676c:	push   ebp
  40676d:	mov    ebp,esp
  40676f:	push   ecx
  406770:	push   ebx
  406771:	push   esi
  406772:	push   edi
  406773:	mov    DWORD PTR [ebp-0x4],ecx
  406776:	mov    edi,edx
  406778:	mov    esi,eax
  40677a:	mov    ebx,DWORD PTR [ebp+0x8]
  40677d:	push   ebx
  40677e:	mov    eax,DWORD PTR [ebp+0x10]
  406781:	mov    eax,DWORD PTR [eax-0x4]
  406784:	xor    ecx,ecx
  406786:	mov    edx,esi
  406788:	call   0x4066f8
  40678d:	cmp    DWORD PTR [ebx],0x0
  406790:	jne    0x40679f
  406792:	mov    eax,DWORD PTR [ebp-0x4]
  406795:	mov    eax,DWORD PTR [eax+edi*4]
  406798:	mov    edx,ebx
  40679a:	call   0x404648
  40679f:	pop    edi
  4067a0:	pop    esi
  4067a1:	pop    ebx
  4067a2:	pop    ecx
  4067a3:	pop    ebp
  4067a4:	ret    0x8
  4067a7:	nop
  4067a8:	push   ebp
  4067a9:	mov    ebp,esp
  4067ab:	xor    ecx,ecx
  4067ad:	push   ecx
  4067ae:	push   ecx
  4067af:	push   ecx
  4067b0:	push   ecx
  4067b1:	push   ecx
  4067b2:	push   ecx
  4067b3:	push   ebx
  4067b4:	push   esi
  4067b5:	push   edi
  4067b6:	xor    eax,eax
  4067b8:	push   ebp
  4067b9:	push   0x4068bb
  4067be:	push   DWORD PTR fs:[eax]
  4067c1:	mov    DWORD PTR fs:[eax],esp
  4067c4:	call   0x404a2c
  4067c9:	mov    DWORD PTR [ebp-0x4],eax
  4067cc:	mov    ebx,0x1
  4067d1:	mov    esi,0x40b6a4
  4067d6:	mov    edi,0x40b6d4
  4067db:	push   ebp
  4067dc:	push   0xb
  4067de:	lea    eax,[ebp-0xc]
  4067e1:	push   eax
  4067e2:	mov    ecx,0x40a10c
  4067e7:	mov    edx,ebx
  4067e9:	dec    edx
  4067ea:	lea    eax,[ebx+0x44]
  4067ed:	dec    eax
  4067ee:	call   0x40676c
  4067f3:	pop    ecx
  4067f4:	mov    edx,DWORD PTR [ebp-0xc]
  4067f7:	mov    eax,esi
  4067f9:	call   0x403a48
  4067fe:	push   ebp
  4067ff:	push   0xb
  406801:	lea    eax,[ebp-0x10]
  406804:	push   eax
  406805:	mov    ecx,0x40a13c
  40680a:	mov    edx,ebx
  40680c:	dec    edx
  40680d:	lea    eax,[ebx+0x38]
  406810:	dec    eax
  406811:	call   0x40676c
  406816:	pop    ecx
  406817:	mov    edx,DWORD PTR [ebp-0x10]
  40681a:	mov    eax,edi
  40681c:	call   0x403a48
  406821:	inc    ebx
  406822:	add    edi,0x4
  406825:	add    esi,0x4
  406828:	cmp    ebx,0xd
  40682b:	jne    0x4067db
  40682d:	mov    ebx,0x1
  406832:	mov    esi,0x40b704
  406837:	mov    edi,0x40b720
  40683c:	lea    eax,[ebx+0x5]
  40683f:	mov    ecx,0x7
  406844:	cdq    
  406845:	idiv   ecx
  406847:	mov    DWORD PTR [ebp-0x8],edx
  40684a:	push   ebp
  40684b:	push   0x6
  40684d:	lea    eax,[ebp-0x14]
  406850:	push   eax
  406851:	mov    ecx,0x40a16c
  406856:	mov    edx,ebx
  406858:	dec    edx
  406859:	mov    eax,DWORD PTR [ebp-0x8]
  40685c:	add    eax,0x31
  40685f:	call   0x40676c
  406864:	pop    ecx
  406865:	mov    edx,DWORD PTR [ebp-0x14]
  406868:	mov    eax,esi
  40686a:	call   0x403a48
  40686f:	push   ebp
  406870:	push   0x6
  406872:	lea    eax,[ebp-0x18]
  406875:	push   eax
  406876:	mov    ecx,0x40a188
  40687b:	mov    edx,ebx
  40687d:	dec    edx
  40687e:	mov    eax,DWORD PTR [ebp-0x8]
  406881:	add    eax,0x2a
  406884:	call   0x40676c
  406889:	pop    ecx
  40688a:	mov    edx,DWORD PTR [ebp-0x18]
  40688d:	mov    eax,edi
  40688f:	call   0x403a48
  406894:	inc    ebx
  406895:	add    edi,0x4
  406898:	add    esi,0x4
  40689b:	cmp    ebx,0x8
  40689e:	jne    0x40683c
  4068a0:	xor    eax,eax
  4068a2:	pop    edx
  4068a3:	pop    ecx
  4068a4:	pop    ecx
  4068a5:	mov    DWORD PTR fs:[eax],edx
  4068a8:	push   0x4068c2
  4068ad:	lea    eax,[ebp-0x18]
  4068b0:	mov    edx,0x4
  4068b5:	call   0x403a18
  4068ba:	ret    
  4068bb:	jmp    0x4033f4
  4068c0:	jmp    0x4068ad
  4068c2:	pop    edi
  4068c3:	pop    esi
  4068c4:	pop    ebx
  4068c5:	mov    esp,ebp
  4068c7:	pop    ebp
  4068c8:	ret    
  4068c9:	lea    eax,[eax+0x0]
  4068cc:	push   ebp
  4068cd:	mov    ebp,esp
  4068cf:	push   ebx
  4068d0:	push   esi
  4068d1:	xor    esi,esi
  4068d3:	mov    ebx,0x1
  4068d8:	jmp    0x4068e0
  4068da:	cmp    ebx,0x7
  4068dd:	je     0x4068fe
  4068df:	inc    ebx
  4068e0:	cmp    DWORD PTR [ebx*4+0x40b748],0x0
  4068e8:	jne    0x4068da
  4068ea:	lea    eax,[ebx*4+0x40b748]
  4068f1:	mov    edx,DWORD PTR [ebp+0x8]
  4068f4:	call   0x403bd0
  4068f9:	mov    esi,0x1
  4068fe:	mov    eax,esi
  406900:	pop    esi
  406901:	pop    ebx
  406902:	pop    ebp
  406903:	ret    0x4
  406906:	mov    eax,eax
  406908:	push   ebp
  406909:	mov    ebp,esp
  40690b:	push   0x0
  40690d:	push   ebx
  40690e:	push   esi
  40690f:	xor    eax,eax
  406911:	push   ebp
  406912:	push   0x40696d
  406917:	push   DWORD PTR fs:[eax]
  40691a:	mov    DWORD PTR fs:[eax],esp
  40691d:	xor    esi,esi
  40691f:	mov    ebx,0x1
  406924:	jmp    0x40692c
  406926:	cmp    ebx,0x7
  406929:	je     0x406957
  40692b:	inc    ebx
  40692c:	cmp    DWORD PTR [ebx*4+0x40b764],0xffffffff
  406934:	jne    0x406926
  406936:	lea    eax,[ebp-0x4]
  406939:	mov    edx,DWORD PTR [ebp+0x8]
  40693c:	call   0x403bd0
  406941:	mov    eax,DWORD PTR [ebp-0x4]
  406944:	xor    edx,edx
  406946:	call   0x405a94
  40694b:	mov    DWORD PTR [ebx*4+0x40b764],eax
  406952:	mov    esi,0x1
  406957:	xor    eax,eax
  406959:	pop    edx
  40695a:	pop    ecx
  40695b:	pop    ecx
  40695c:	mov    DWORD PTR fs:[eax],edx
  40695f:	push   0x406974
  406964:	lea    eax,[ebp-0x4]
  406967:	call   0x4039f4
  40696c:	ret    
  40696d:	jmp    0x4033f4
  406972:	jmp    0x406964
  406974:	mov    eax,esi
  406976:	pop    esi
  406977:	pop    ebx
  406978:	pop    ecx
  406979:	pop    ebp
  40697a:	ret    0x4
  40697d:	lea    eax,[eax+0x0]
  406980:	push   ebp
  406981:	mov    ebp,esp
  406983:	push   0x0
  406985:	push   esi
  406986:	xor    eax,eax
  406988:	push   ebp
  406989:	push   0x406a17
  40698e:	push   DWORD PTR fs:[eax]
  406991:	mov    DWORD PTR fs:[eax],esp
  406994:	lea    eax,[ebp-0x4]
  406997:	push   eax
  406998:	call   0x404a2c
  40699d:	mov    ecx,0x406a2c
  4069a2:	mov    edx,0x100b
  4069a7:	call   0x4066f8
  4069ac:	mov    eax,DWORD PTR [ebp-0x4]
  4069af:	mov    edx,0x1
  4069b4:	call   0x405a94
  4069b9:	mov    esi,eax
  4069bb:	mov    eax,esi
  4069bd:	add    eax,0xfffffffd
  4069c0:	sub    eax,0x3
  4069c3:	jae    0x406a01
  4069c5:	push   0x4
  4069c7:	push   esi
  4069c8:	call   0x404a2c
  4069cd:	push   eax
  4069ce:	push   0x4068cc
  4069d3:	call   0x4049cc
  4069d8:	mov    edx,0x7
  4069dd:	mov    eax,0x40b768
  4069e2:	mov    DWORD PTR [eax],0xffffffff
  4069e8:	add    eax,0x4
  4069eb:	dec    edx
  4069ec:	jne    0x4069e2
  4069ee:	push   0x3
  4069f0:	push   esi
  4069f1:	call   0x404a2c
  4069f6:	push   eax
  4069f7:	push   0x406908
  4069fc:	call   0x4049cc
  406a01:	xor    eax,eax
  406a03:	pop    edx
  406a04:	pop    ecx
  406a05:	pop    ecx
  406a06:	mov    DWORD PTR fs:[eax],edx
  406a09:	push   0x406a1e
  406a0e:	lea    eax,[ebp-0x4]
  406a11:	call   0x4039f4
  406a16:	ret    
  406a17:	jmp    0x4033f4
  406a1c:	jmp    0x406a0e
  406a1e:	pop    esi
  406a1f:	pop    ecx
  406a20:	pop    ebp
  406a21:	ret    
  406a22:	add    BYTE PTR [eax],al
  406a24:	(bad)  
  406a25:	(bad)  
  406a26:	(bad)  
  406a27:	inc    DWORD PTR [ecx]
  406a29:	add    BYTE PTR [eax],al
  406a2b:	add    BYTE PTR [ecx],dh
  406a2d:	add    BYTE PTR [eax],al
  406a2f:	add    BYTE PTR [ebp-0x75],dl
  406a32:	in     al,dx
  406a33:	xor    ecx,ecx
  406a35:	push   ecx
  406a36:	push   ecx
  406a37:	push   ecx
  406a38:	push   ecx
  406a39:	push   ecx
  406a3a:	push   ebx
  406a3b:	push   esi
  406a3c:	push   edi
  406a3d:	mov    edi,edx
  406a3f:	mov    esi,eax
  406a41:	xor    eax,eax
  406a43:	push   ebp
  406a44:	push   0x406bfa
  406a49:	push   DWORD PTR fs:[eax]
  406a4c:	mov    DWORD PTR fs:[eax],esp
  406a4f:	mov    ebx,0x1
  406a54:	mov    eax,edi
  406a56:	call   0x4039f4
  406a5b:	lea    eax,[ebp-0x8]
  406a5e:	push   eax
  406a5f:	call   0x404a2c
  406a64:	mov    ecx,0x406c10
  406a69:	mov    edx,0x1009
  406a6e:	call   0x4066f8
  406a73:	mov    eax,DWORD PTR [ebp-0x8]
  406a76:	mov    edx,0x1
  406a7b:	call   0x405a94
  406a80:	add    eax,0xfffffffd
  406a83:	sub    eax,0x3
  406a86:	jb     0x406bd0
  406a8c:	mov    eax,ds:0x40b740
  406a91:	sub    eax,0x4
  406a94:	je     0x406aa2
  406a96:	add    eax,0xfffffff3
  406a99:	sub    eax,0x2
  406a9c:	jb     0x406aa2
  406a9e:	xor    eax,eax
  406aa0:	jmp    0x406aa4
  406aa2:	mov    al,0x1
  406aa4:	test   al,al
  406aa6:	je     0x406add
  406aa8:	jmp    0x406acd
  406aaa:	mov    al,BYTE PTR [esi+ebx*1-0x1]
  406aae:	sub    al,0x47
  406ab0:	je     0x406acc
  406ab2:	sub    al,0x20
  406ab4:	je     0x406acc
  406ab6:	lea    eax,[ebp-0xc]
  406ab9:	mov    dl,BYTE PTR [esi+ebx*1-0x1]
  406abd:	call   0x403bc0
  406ac2:	mov    edx,DWORD PTR [ebp-0xc]
  406ac5:	mov    eax,edi
  406ac7:	call   0x403c70
  406acc:	inc    ebx
  406acd:	mov    eax,esi
  406acf:	call   0x403c68
  406ad4:	cmp    ebx,eax
  406ad6:	jle    0x406aaa
  406ad8:	jmp    0x406bdf
  406add:	mov    eax,edi
  406adf:	mov    edx,esi
  406ae1:	call   0x403a48
  406ae6:	jmp    0x406bdf
  406aeb:	mov    al,BYTE PTR [esi+ebx*1-0x1]
  406aef:	and    eax,0xff
  406af4:	bt     DWORD PTR ds:0x40a0c4,eax
  406afb:	jae    0x406b2b
  406afd:	mov    edx,ebx
  406aff:	mov    eax,esi
  406b01:	call   0x4077d0
  406b06:	mov    DWORD PTR [ebp-0x4],eax
  406b09:	lea    eax,[ebp-0x10]
  406b0c:	push   eax
  406b0d:	mov    ecx,DWORD PTR [ebp-0x4]
  406b10:	mov    edx,ebx
  406b12:	mov    eax,esi
  406b14:	call   0x403da8
  406b19:	mov    edx,DWORD PTR [ebp-0x10]
  406b1c:	mov    eax,edi
  406b1e:	call   0x403c70
  406b23:	add    ebx,DWORD PTR [ebp-0x4]
  406b26:	jmp    0x406bd0
  406b2b:	mov    edx,0x406c14
  406b30:	lea    eax,[esi+ebx*1-0x1]
  406b34:	mov    ecx,0x2
  406b39:	call   0x405c28
  406b3e:	test   eax,eax
  406b40:	jne    0x406b51
  406b42:	mov    eax,edi
  406b44:	mov    edx,0x406c20
  406b49:	call   0x403c70
  406b4e:	inc    ebx
  406b4f:	jmp    0x406bcf
  406b51:	mov    edx,0x406c24
  406b56:	lea    eax,[esi+ebx*1-0x1]
  406b5a:	mov    ecx,0x4
  406b5f:	call   0x405c28
  406b64:	test   eax,eax
  406b66:	jne    0x406b79
  406b68:	mov    eax,edi
  406b6a:	mov    edx,0x406c34
  406b6f:	call   0x403c70
  406b74:	add    ebx,0x3
  406b77:	jmp    0x406bcf
  406b79:	mov    edx,0x406c3c
  406b7e:	lea    eax,[esi+ebx*1-0x1]
  406b82:	mov    ecx,0x2
  406b87:	call   0x405c28
  406b8c:	test   eax,eax
  406b8e:	jne    0x406b9f
  406b90:	mov    eax,edi
  406b92:	mov    edx,0x406c48
  406b97:	call   0x403c70
  406b9c:	inc    ebx
  406b9d:	jmp    0x406bcf
  406b9f:	mov    al,BYTE PTR [esi+ebx*1-0x1]
  406ba3:	sub    al,0x59
  406ba5:	je     0x406bab
  406ba7:	sub    al,0x20
  406ba9:	jne    0x406bb9
  406bab:	mov    eax,edi
  406bad:	mov    edx,0x406c54
  406bb2:	call   0x403c70
  406bb7:	jmp    0x406bcf
  406bb9:	lea    eax,[ebp-0x14]
  406bbc:	mov    dl,BYTE PTR [esi+ebx*1-0x1]
  406bc0:	call   0x403bc0
  406bc5:	mov    edx,DWORD PTR [ebp-0x14]
  406bc8:	mov    eax,edi
  406bca:	call   0x403c70
  406bcf:	inc    ebx
  406bd0:	mov    eax,esi
  406bd2:	call   0x403c68
  406bd7:	cmp    ebx,eax
  406bd9:	jle    0x406aeb
  406bdf:	xor    eax,eax
  406be1:	pop    edx
  406be2:	pop    ecx
  406be3:	pop    ecx
  406be4:	mov    DWORD PTR fs:[eax],edx
  406be7:	push   0x406c01
  406bec:	lea    eax,[ebp-0x14]
  406bef:	mov    edx,0x4
  406bf4:	call   0x403a18
  406bf9:	ret    
  406bfa:	jmp    0x4033f4
  406bff:	jmp    0x406bec
  406c01:	pop    edi
  406c02:	pop    esi
  406c03:	pop    ebx
  406c04:	mov    esp,ebp
  406c06:	pop    ebp
  406c07:	ret    
  406c08:	(bad)  
  406c09:	(bad)  
  406c0a:	(bad)  
  406c0b:	inc    DWORD PTR [ecx]
  406c0d:	add    BYTE PTR [eax],al
  406c0f:	add    BYTE PTR [ecx],dh
  406c11:	add    BYTE PTR [eax],al
  406c13:	add    BYTE PTR [edi+0x67],ah
  406c16:	add    BYTE PTR [eax],al
  406c18:	(bad)  
  406c19:	(bad)  
  406c1a:	(bad)  
  406c1b:	inc    DWORD PTR [ebx]
  406c1d:	add    BYTE PTR [eax],al
  406c1f:	add    BYTE PTR [edi+0x67],ah
  406c22:	add    BYTE PTR [bx+di+0x79],bh
  406c26:	jns    0x406ca1
  406c28:	add    BYTE PTR [eax],al
  406c2a:	add    BYTE PTR [eax],al
  406c2c:	(bad)  
  406c2d:	(bad)  
  406c2e:	(bad)  
  406c2f:	inc    DWORD PTR [eax+eax*1]
  406c32:	add    BYTE PTR [eax],al
  406c34:	gs gs gs add BYTE PTR gs:[eax],al
  406c3a:	add    BYTE PTR [eax],al
  406c3c:	jns    0x406cb7
  406c3e:	add    BYTE PTR [eax],al
  406c40:	(bad)  
  406c41:	(bad)  
  406c42:	(bad)  
  406c43:	inc    DWORD PTR [edx]
  406c45:	add    BYTE PTR [eax],al
  406c47:	add    BYTE PTR [ebp+0x65],ah
  406c4a:	add    BYTE PTR [eax],al
  406c4c:	(bad)  
  406c4d:	(bad)  
  406c4e:	(bad)  
  406c4f:	inc    DWORD PTR [ecx]
  406c51:	add    BYTE PTR [eax],al
  406c53:	add    BYTE PTR [ebp+0x0],ah
  406c56:	add    BYTE PTR [eax],al
  406c58:	test   eax,eax
  406c5a:	je     0x406c61
  406c5c:	sub    eax,0x1000
  406c61:	ret    
  406c62:	mov    eax,eax
  406c64:	push   ebp
  406c65:	mov    ebp,esp
  406c67:	add    esp,0xfffffba4
  406c6d:	push   ebx
  406c6e:	push   esi
  406c6f:	push   edi
  406c70:	mov    edi,ecx
  406c72:	mov    esi,edx
  406c74:	mov    ebx,eax
  406c76:	push   0x1c
  406c78:	lea    eax,[ebp-0x334]
  406c7e:	push   eax
  406c7f:	push   esi
  406c80:	call   0x404a4c
  406c85:	cmp    DWORD PTR [ebp-0x324],0x1000
  406c8f:	jne    0x406cad
  406c91:	push   0x105
  406c96:	lea    eax,[ebp-0x216]
  406c9c:	push   eax
  406c9d:	mov    eax,DWORD PTR [ebp-0x330]
  406ca3:	push   eax
  406ca4:	call   0x404a04
  406ca9:	test   eax,eax
  406cab:	jne    0x406cd0
  406cad:	push   0x105
  406cb2:	lea    eax,[ebp-0x216]
  406cb8:	push   eax
  406cb9:	mov    eax,ds:0x40b660
  406cbe:	push   eax
  406cbf:	call   0x404a04
  406cc4:	mov    eax,esi
  406cc6:	call   0x406c58
  406ccb:	mov    DWORD PTR [ebp-0xc],eax
  406cce:	jmp    0x406cd9
  406cd0:	sub    esi,DWORD PTR [ebp-0x330]
  406cd6:	mov    DWORD PTR [ebp-0xc],esi
  406cd9:	lea    eax,[ebp-0x216]
  406cdf:	mov    dl,0x5c
  406ce1:	call   0x40780c
  406ce6:	mov    edx,eax
  406ce8:	inc    edx
  406ce9:	lea    eax,[ebp-0x111]
  406cef:	mov    ecx,0x104
  406cf4:	call   0x405bf4
  406cf9:	mov    eax,0x406df4
  406cfe:	mov    DWORD PTR [ebp-0x4],eax
  406d01:	mov    eax,0x406df4
  406d06:	mov    DWORD PTR [ebp-0x8],eax
  406d09:	mov    eax,ebx
  406d0b:	mov    edx,DWORD PTR ds:0x404f64
  406d11:	call   0x4030bc
  406d16:	test   al,al
  406d18:	je     0x406d43
  406d1a:	mov    eax,DWORD PTR [ebx+0x4]
  406d1d:	call   0x403d50
  406d22:	mov    DWORD PTR [ebp-0x4],eax
  406d25:	mov    eax,DWORD PTR [ebp-0x4]
  406d28:	call   0x405bcc
  406d2d:	test   eax,eax
  406d2f:	je     0x406d43
  406d31:	mov    edx,DWORD PTR [ebp-0x4]
  406d34:	cmp    BYTE PTR [edx+eax*1-0x1],0x2e
  406d39:	je     0x406d43
  406d3b:	mov    eax,0x406df8
  406d40:	mov    DWORD PTR [ebp-0x8],eax
  406d43:	push   0x100
  406d48:	lea    eax,[ebp-0x316]
  406d4e:	push   eax
  406d4f:	mov    eax,ds:0x40a420
  406d54:	mov    eax,DWORD PTR [eax+0x4]
  406d57:	push   eax
  406d58:	mov    eax,ds:0x40b660
  406d5d:	call   0x404070
  406d62:	push   eax
  406d63:	call   0x404a8c
  406d68:	lea    edx,[ebp-0x45c]
  406d6e:	mov    eax,DWORD PTR [ebx]
  406d70:	call   0x402fdc
  406d75:	lea    eax,[ebp-0x45c]
  406d7b:	mov    DWORD PTR [ebp-0x35c],eax
  406d81:	mov    BYTE PTR [ebp-0x358],0x4
  406d88:	lea    eax,[ebp-0x111]
  406d8e:	mov    DWORD PTR [ebp-0x354],eax
  406d94:	mov    BYTE PTR [ebp-0x350],0x6
  406d9b:	mov    eax,DWORD PTR [ebp-0xc]
  406d9e:	mov    DWORD PTR [ebp-0x34c],eax
  406da4:	mov    BYTE PTR [ebp-0x348],0x5
  406dab:	mov    eax,DWORD PTR [ebp-0x4]
  406dae:	mov    DWORD PTR [ebp-0x344],eax
  406db4:	mov    BYTE PTR [ebp-0x340],0x6
  406dbb:	mov    eax,DWORD PTR [ebp-0x8]
  406dbe:	mov    DWORD PTR [ebp-0x33c],eax
  406dc4:	mov    BYTE PTR [ebp-0x338],0x6
  406dcb:	lea    eax,[ebp-0x35c]
  406dd1:	push   eax
  406dd2:	push   0x4
  406dd4:	lea    ecx,[ebp-0x316]
  406dda:	mov    edx,DWORD PTR [ebp+0x8]
  406ddd:	mov    eax,edi
  406ddf:	call   0x40608c
  406de4:	mov    eax,edi
  406de6:	call   0x405bcc
  406deb:	pop    edi
  406dec:	pop    esi
  406ded:	pop    ebx
  406dee:	mov    esp,ebp
  406df0:	pop    ebp
  406df1:	ret    0x4
  406df4:	add    BYTE PTR [eax],al
  406df6:	add    BYTE PTR [eax],al
  406df8:	add    BYTE PTR cs:[eax],al
  406dfb:	add    BYTE PTR [ecx-0x4433c],al
  406e01:	jmp    FWORD PTR [eax+0x0]
  406e04:	add    al,0x0
  406e06:	add    BYTE PTR [ebp-0x17b7dbb4],cl
  406e0c:	push   esp
  406e0d:	(bad)  
  406e0e:	(bad)  
  406e0f:	jmp    DWORD PTR [ecx+0x40a3cc]
  406e15:	cmp    BYTE PTR [eax],0x0
  406e18:	je     0x406e78
  406e1a:	mov    eax,ds:0x40a308
  406e1f:	call   0x402a7c
  406e24:	call   0x402968
  406e29:	lea    eax,[esp+0x44]
  406e2d:	push   eax
  406e2e:	lea    eax,[esp+0x48]
  406e32:	push   eax
  406e33:	call   0x404a64
  406e38:	push   0x0
  406e3a:	lea    eax,[esp+0x4]
  406e3e:	push   eax
  406e3f:	lea    eax,[esp+0x4c]
  406e43:	call   0x405bcc
  406e48:	push   eax
  406e49:	lea    eax,[esp+0x50]
  406e4d:	push   eax
  406e4e:	push   0xfffffff4
  406e50:	call   0x404a1c
  406e55:	push   eax
  406e56:	call   0x404a54
  406e5b:	push   0x0
  406e5d:	lea    eax,[esp+0x4]
  406e61:	push   eax
  406e62:	push   0x2
  406e64:	push   0x406ec0
  406e69:	push   0xfffffff4
  406e6b:	call   0x404a1c
  406e70:	push   eax
  406e71:	call   0x404a54
  406e76:	jmp    0x406eae
  406e78:	push   0x40
  406e7a:	lea    eax,[esp+0x8]
  406e7e:	push   eax
  406e7f:	mov    eax,ds:0x40a2e8
  406e84:	mov    eax,DWORD PTR [eax+0x4]
  406e87:	push   eax
  406e88:	mov    eax,ds:0x40b660
  406e8d:	call   0x404070
  406e92:	push   eax
  406e93:	call   0x404a8c
  406e98:	push   0x2010
  406e9d:	lea    eax,[esp+0x8]
  406ea1:	push   eax
  406ea2:	lea    eax,[esp+0x4c]
  406ea6:	push   eax
  406ea7:	push   0x0
  406ea9:	call   0x404a94
  406eae:	add    esp,0x444
  406eb4:	ret    
  406eb5:	add    BYTE PTR [eax],al
  406eb7:	add    bh,bh
  406eb9:	(bad)  
  406eba:	(bad)  
  406ebb:	inc    DWORD PTR [edx]
  406ebd:	add    BYTE PTR [eax],al
  406ebf:	add    BYTE PTR ds:0x5300000a,cl
  406ec5:	push   esi
  406ec6:	push   edi
  406ec7:	test   dl,dl
  406ec9:	je     0x406ed3
  406ecb:	add    esp,0xfffffff0
  406ece:	call   0x403160
  406ed3:	mov    esi,ecx
  406ed5:	mov    ebx,edx
  406ed7:	mov    edi,eax
  406ed9:	lea    eax,[edi+0x4]
  406edc:	mov    edx,esi
  406ede:	call   0x403a48
  406ee3:	mov    eax,edi
  406ee5:	test   bl,bl
  406ee7:	je     0x406ef8
  406ee9:	call   0x4031b8
  406eee:	pop    DWORD PTR fs:0x0
  406ef5:	add    esp,0xc
  406ef8:	mov    eax,edi
  406efa:	pop    edi
  406efb:	pop    esi
  406efc:	pop    ebx
  406efd:	ret    
  406efe:	mov    eax,eax
  406f00:	push   ebp
  406f01:	mov    ebp,esp
  406f03:	push   0x0
  406f05:	push   ebx
  406f06:	push   esi
  406f07:	push   edi
  406f08:	test   dl,dl
  406f0a:	je     0x406f14
  406f0c:	add    esp,0xfffffff0
  406f0f:	call   0x403160
  406f14:	mov    esi,ecx
  406f16:	mov    ebx,edx
  406f18:	mov    edi,eax
  406f1a:	xor    eax,eax
  406f1c:	push   ebp
  406f1d:	push   0x406f5a
  406f22:	push   DWORD PTR fs:[eax]
  406f25:	mov    DWORD PTR fs:[eax],esp
  406f28:	lea    eax,[ebp-0x4]
  406f2b:	push   eax
  406f2c:	mov    edx,DWORD PTR [ebp+0xc]
  406f2f:	mov    ecx,DWORD PTR [ebp+0x8]
  406f32:	mov    eax,esi
  406f34:	call   0x4060d8
  406f39:	mov    edx,DWORD PTR [ebp-0x4]
  406f3c:	lea    eax,[edi+0x4]
  406f3f:	call   0x403a48
  406f44:	xor    eax,eax
  406f46:	pop    edx
  406f47:	pop    ecx
  406f48:	pop    ecx
  406f49:	mov    DWORD PTR fs:[eax],edx
  406f4c:	push   0x406f61
  406f51:	lea    eax,[ebp-0x4]
  406f54:	call   0x4039f4
  406f59:	ret    
  406f5a:	jmp    0x4033f4
  406f5f:	jmp    0x406f51
  406f61:	mov    eax,edi
  406f63:	test   bl,bl
  406f65:	je     0x406f76
  406f67:	call   0x4031b8
  406f6c:	pop    DWORD PTR fs:0x0
  406f73:	add    esp,0xc
  406f76:	mov    eax,edi
  406f78:	pop    edi
  406f79:	pop    esi
  406f7a:	pop    ebx
  406f7b:	pop    ecx
  406f7c:	pop    ebp
  406f7d:	ret    0x8
  406f80:	push   ebx
  406f81:	push   esi
  406f82:	push   edi
  406f83:	test   dl,dl
  406f85:	je     0x406f8f
  406f87:	add    esp,0xfffffff0
  406f8a:	call   0x403160
  406f8f:	mov    esi,ecx
  406f91:	mov    ebx,edx
  406f93:	mov    edi,eax
  406f95:	lea    edx,[edi+0x4]
  406f98:	mov    eax,esi
  406f9a:	call   0x404648
  406f9f:	mov    eax,edi
  406fa1:	test   bl,bl
  406fa3:	je     0x406fb4
  406fa5:	call   0x4031b8
  406faa:	pop    DWORD PTR fs:0x0
  406fb1:	add    esp,0xc
  406fb4:	mov    eax,edi
  406fb6:	pop    edi
  406fb7:	pop    esi
  406fb8:	pop    ebx
  406fb9:	ret    
  406fba:	mov    eax,eax
  406fbc:	push   ebp
  406fbd:	mov    ebp,esp
  406fbf:	push   0x0
  406fc1:	push   0x0
  406fc3:	push   ebx
  406fc4:	push   esi
  406fc5:	push   edi
  406fc6:	test   dl,dl
  406fc8:	je     0x406fd2
  406fca:	add    esp,0xfffffff0
  406fcd:	call   0x403160
  406fd2:	mov    esi,ecx
  406fd4:	mov    ebx,edx
  406fd6:	mov    edi,eax
  406fd8:	xor    eax,eax
  406fda:	push   ebp
  406fdb:	push   0x407028
  406fe0:	push   DWORD PTR fs:[eax]
  406fe3:	mov    DWORD PTR fs:[eax],esp
  406fe6:	lea    eax,[ebp-0x4]
  406fe9:	push   eax
  406fea:	lea    edx,[ebp-0x8]
  406fed:	mov    eax,esi
  406fef:	call   0x404648
  406ff4:	mov    eax,DWORD PTR [ebp-0x8]
  406ff7:	mov    edx,DWORD PTR [ebp+0xc]
  406ffa:	mov    ecx,DWORD PTR [ebp+0x8]
  406ffd:	call   0x4060d8
  407002:	mov    edx,DWORD PTR [ebp-0x4]
  407005:	lea    eax,[edi+0x4]
  407008:	call   0x403a48
  40700d:	xor    eax,eax
  40700f:	pop    edx
  407010:	pop    ecx
  407011:	pop    ecx
  407012:	mov    DWORD PTR fs:[eax],edx
  407015:	push   0x40702f
  40701a:	lea    eax,[ebp-0x8]
  40701d:	mov    edx,0x2
  407022:	call   0x403a18
  407027:	ret    
  407028:	jmp    0x4033f4
  40702d:	jmp    0x40701a
  40702f:	mov    eax,edi
  407031:	test   bl,bl
  407033:	je     0x407044
  407035:	call   0x4031b8
  40703a:	pop    DWORD PTR fs:0x0
  407041:	add    esp,0xc
  407044:	mov    eax,edi
  407046:	pop    edi
  407047:	pop    esi
  407048:	pop    ebx
  407049:	pop    ecx
  40704a:	pop    ecx
  40704b:	pop    ebp
  40704c:	ret    0x8
  40704f:	nop
  407050:	cmp    BYTE PTR [eax+0xc],0x0
  407054:	je     0x40705b
  407056:	call   0x40300c
  40705b:	ret    
  40705c:	pusha  
  40705d:	jo     0x40709f
  40705f:	add    BYTE PTR [esi],cl
  407061:	or     DWORD PTR [ebp+eax*2+0x72],edx
  407065:	jb     0x4070d6
  407067:	jb     0x4070bb
  407069:	arpl   WORD PTR gs:[eax],cx
  40706c:	add    BYTE PTR [eax],al
  40706e:	add    BYTE PTR [ecx],al
  407070:	add    BYTE PTR [eax],al
  407072:	add    BYTE PTR [eax],al
  407074:	adc    BYTE PTR [eax+0x0],al
  407077:	add    al,0x0
  407079:	add    BYTE PTR [eax],al
  40707b:	nop
  40707c:	push   ebx
  40707d:	push   esi
  40707e:	add    esp,0xfffffff8
  407081:	xor    ebx,ebx
  407083:	call   0x402998
  407088:	mov    esi,eax
  40708a:	jmp    0x40708d
  40708c:	inc    ebx
  40708d:	cmp    ebx,0x6
  407090:	jg     0x40709b
  407092:	cmp    esi,DWORD PTR [ebx*8+0x40a1a4]
  407099:	jne    0x40708c
  40709b:	cmp    ebx,0x6
  40709e:	jg     0x4070b5
  4070a0:	mov    ecx,DWORD PTR [ebx*8+0x40a1a8]
  4070a7:	mov    dl,0x1
  4070a9:	mov    eax,ds:0x405084
  4070ae:	call   0x406ec4
  4070b3:	jmp    0x4070d2
  4070b5:	mov    DWORD PTR [esp],esi
  4070b8:	mov    BYTE PTR [esp+0x4],0x0
  4070bd:	push   esp
  4070be:	push   0x0
  4070c0:	mov    ecx,DWORD PTR ds:0x40a2e4
  4070c6:	mov    dl,0x1
  4070c8:	mov    eax,ds:0x405084
  4070cd:	call   0x406fbc
  4070d2:	mov    DWORD PTR [eax+0xc],esi
  4070d5:	pop    ecx
  4070d6:	pop    edx
  4070d7:	pop    esi
  4070d8:	pop    ebx
  4070d9:	ret    
  4070da:	mov    eax,eax
  4070dc:	loopne 0x40714e
  4070de:	inc    eax
  4070df:	add    BYTE PTR [esi],cl
  4070e1:	or     dl,BYTE PTR [ebp+eax*2+0x78]
  4070e5:	arpl   WORD PTR [ebp+0x70],sp
  4070e8:	je     0x40713c
  4070ea:	arpl   WORD PTR gs:[eax],cx
  4070ed:	add    BYTE PTR [eax],al
  4070ef:	add    BYTE PTR [ecx],al
  4070f1:	add    BYTE PTR [eax],al
  4070f3:	add    BYTE PTR [eax],al
  4070f5:	adc    BYTE PTR [eax+0x0],al
  4070f8:	add    al,0x0
  4070fa:	add    BYTE PTR [eax],al
  4070fc:	push   ebx
  4070fd:	mov    ebx,edx
  4070ff:	mov    edx,eax
  407101:	dec    dl
  407103:	je     0x407111
  407105:	dec    dl
  407107:	je     0x407119
  407109:	dec    edx
  40710a:	sub    dl,0x16
  40710d:	jb     0x407121
  40710f:	jmp    0x40713d
  407111:	mov    edx,DWORD PTR ds:0x40b790
  407117:	jmp    0x407144
  407119:	mov    edx,DWORD PTR ds:0x40b794
  40711f:	jmp    0x407144
  407121:	and    eax,0xff
  407126:	lea    eax,[eax*8+0x40a1c4]
  40712d:	mov    ecx,DWORD PTR [eax+0x4]
  407130:	mov    eax,DWORD PTR [eax]
  407132:	mov    dl,0x1
  407134:	call   0x406ec4
  407139:	mov    edx,eax
  40713b:	jmp    0x407144
  40713d:	call   0x40707c
  407142:	mov    edx,eax
  407144:	push   ebx
  407145:	mov    eax,edx
  407147:	jmp    0x40342c
  40714c:	pop    ebx
  40714d:	ret    
  40714e:	mov    eax,eax
  407150:	push   ebp
  407151:	mov    ebp,esp
  407153:	add    esp,0xffffffe0
  407156:	push   ebx
  407157:	push   esi
  407158:	push   edi
  407159:	xor    ebx,ebx
  40715b:	mov    DWORD PTR [ebp-0x20],ebx
  40715e:	mov    DWORD PTR [ebp-0x4],ebx
  407161:	mov    edi,ecx
  407163:	mov    esi,edx
  407165:	mov    ebx,eax
  407167:	xor    eax,eax
  407169:	push   ebp
  40716a:	push   0x4071ec
  40716f:	push   DWORD PTR fs:[eax]
  407172:	mov    DWORD PTR fs:[eax],esp
  407175:	test   ebx,ebx
  407177:	je     0x407185
  407179:	lea    eax,[ebp-0x4]
  40717c:	mov    edx,ebx
  40717e:	call   0x403a8c
  407183:	jmp    0x407192
  407185:	lea    edx,[ebp-0x4]
  407188:	mov    eax,ds:0x40a3b8
  40718d:	call   0x404648
  407192:	mov    eax,DWORD PTR [ebp-0x4]
  407195:	mov    DWORD PTR [ebp-0x1c],eax
  407198:	mov    BYTE PTR [ebp-0x18],0xb
  40719c:	mov    DWORD PTR [ebp-0x14],esi
  40719f:	mov    BYTE PTR [ebp-0x10],0xb
  4071a3:	mov    DWORD PTR [ebp-0xc],edi
  4071a6:	mov    BYTE PTR [ebp-0x8],0x0
  4071aa:	lea    eax,[ebp-0x1c]
  4071ad:	push   eax
  4071ae:	push   0x2
  4071b0:	lea    edx,[ebp-0x20]
  4071b3:	mov    eax,ds:0x40a3e8
  4071b8:	call   0x404648
  4071bd:	mov    ecx,DWORD PTR [ebp-0x20]
  4071c0:	mov    dl,0x1
  4071c2:	mov    eax,ds:0x40578c
  4071c7:	call   0x406f00
  4071cc:	mov    ebx,eax
  4071ce:	xor    eax,eax
  4071d0:	pop    edx
  4071d1:	pop    ecx
  4071d2:	pop    ecx
  4071d3:	mov    DWORD PTR fs:[eax],edx
  4071d6:	push   0x4071f3
  4071db:	lea    eax,[ebp-0x20]
  4071de:	call   0x4039f4
  4071e3:	lea    eax,[ebp-0x4]
  4071e6:	call   0x4039f4
  4071eb:	ret    
  4071ec:	jmp    0x4033f4
  4071f1:	jmp    0x4071db
  4071f3:	mov    eax,ebx
  4071f5:	pop    edi
  4071f6:	pop    esi
  4071f7:	pop    ebx
  4071f8:	mov    esp,ebp
  4071fa:	pop    ebp
  4071fb:	ret    
  4071fc:	mov    esp,ecx
  4071fe:	mov    DWORD PTR [esp],edx
  407201:	mov    ebp,DWORD PTR [ebp+0x0]
  407204:	jmp    0x40342c
  407209:	ret    
  40720a:	mov    eax,eax
  40720c:	push   ebp
  40720d:	mov    ebp,esp
  40720f:	call   0x407150
  407214:	lea    ecx,[ebp+0x8]
  407217:	add    ecx,0x4
  40721a:	mov    edx,DWORD PTR [ebp+0x8]
  40721d:	call   0x4071fc
  407222:	pop    ebp
  407223:	ret    0x4
  407226:	mov    eax,eax
  407228:	mov    ecx,DWORD PTR ds:0x40a2fc
  40722e:	mov    dl,0x1
  407230:	mov    eax,ds:0x4057ec
  407235:	call   0x406f80
  40723a:	call   0x40342c
  40723f:	ret    
  407240:	mov    eax,DWORD PTR [eax]
  407242:	cmp    eax,0xc0000092
  407247:	jg     0x407275
  407249:	je     0x4072a4
  40724b:	cmp    eax,0xc000008e
  407250:	jg     0x407267
  407252:	je     0x4072a7
  407254:	sub    eax,0xc0000005
  407259:	je     0x4072b0
  40725b:	sub    eax,0x87
  407260:	je     0x40729e
  407262:	dec    eax
  407263:	je     0x4072ad
  407265:	jmp    0x4072bc
  407267:	add    eax,0x3fffff71
  40726c:	sub    eax,0x2
  40726f:	jb     0x4072a4
  407271:	je     0x4072aa
  407273:	jmp    0x4072bc
  407275:	cmp    eax,0xc0000096
  40727a:	jg     0x40728d
  40727c:	je     0x4072b3
  40727e:	sub    eax,0xc0000093
  407283:	je     0x4072ad
  407285:	dec    eax
  407286:	je     0x40729b
  407288:	dec    eax
  407289:	je     0x4072a1
  40728b:	jmp    0x4072bc
  40728d:	sub    eax,0xc00000fd
  407292:	je     0x4072b9
  407294:	sub    eax,0x3d
  407297:	je     0x4072b6
  407299:	jmp    0x4072bc
  40729b:	mov    al,0x3
  40729d:	ret    
  40729e:	mov    al,0x4
  4072a0:	ret    
  4072a1:	mov    al,0x5
  4072a3:	ret    
  4072a4:	mov    al,0x6
  4072a6:	ret    
  4072a7:	mov    al,0x7
  4072a9:	ret    
  4072aa:	mov    al,0x8
  4072ac:	ret    
  4072ad:	mov    al,0x9
  4072af:	ret    
  4072b0:	mov    al,0xb
  4072b2:	ret    
  4072b3:	mov    al,0xc
  4072b5:	ret    
  4072b6:	mov    al,0xd
  4072b8:	ret    
  4072b9:	mov    al,0xe
  4072bb:	ret    
  4072bc:	mov    al,0x16
  4072be:	ret    
  4072bf:	nop
  4072c0:	push   ebx
  4072c1:	mov    ebx,eax
  4072c3:	mov    eax,ebx
  4072c5:	call   0x407240
  4072ca:	and    eax,0xff
  4072cf:	mov    eax,DWORD PTR [eax*8+0x40a1c4]
  4072d6:	pop    ebx
  4072d7:	ret    
  4072d8:	push   ebp
  4072d9:	mov    ebp,esp
  4072db:	add    esp,0xfffffe8c
  4072e1:	push   ebx
  4072e2:	xor    eax,eax
  4072e4:	mov    DWORD PTR [ebp-0x174],eax
  4072ea:	mov    DWORD PTR [ebp-0x150],eax
  4072f0:	mov    DWORD PTR [ebp-0x158],eax
  4072f6:	mov    DWORD PTR [ebp-0x154],eax
  4072fc:	mov    DWORD PTR [ebp-0x4],eax
  4072ff:	xor    eax,eax
  407301:	push   ebp
  407302:	push   0x40749b
  407307:	push   DWORD PTR fs:[eax]
  40730a:	mov    DWORD PTR fs:[eax],esp
  40730d:	mov    eax,DWORD PTR [ebp+0x8]
  407310:	mov    ebx,DWORD PTR [eax-0x4]
  407313:	cmp    DWORD PTR [ebx+0x14],0x0
  407317:	jne    0x407328
  407319:	lea    edx,[ebp-0x4]
  40731c:	mov    eax,ds:0x40a42c
  407321:	call   0x404648
  407326:	jmp    0x407335
  407328:	lea    edx,[ebp-0x4]
  40732b:	mov    eax,ds:0x40a3a8
  407330:	call   0x404648
  407335:	mov    eax,DWORD PTR [ebx+0x18]
  407338:	mov    DWORD PTR [ebp-0x8],eax
  40733b:	push   0x1c
  40733d:	lea    eax,[ebp-0x24]
  407340:	push   eax
  407341:	mov    eax,DWORD PTR [ebx+0xc]
  407344:	push   eax
  407345:	call   0x404a4c
  40734a:	cmp    DWORD PTR [ebp-0x14],0x1000
  407351:	jne    0x40740d
  407357:	push   0x105
  40735c:	lea    eax,[ebp-0x129]
  407362:	push   eax
  407363:	mov    eax,DWORD PTR [ebp-0x20]
  407366:	push   eax
  407367:	call   0x404a04
  40736c:	test   eax,eax
  40736e:	je     0x40740d
  407374:	mov    eax,DWORD PTR [ebx+0xc]
  407377:	mov    DWORD PTR [ebp-0x14c],eax
  40737d:	mov    BYTE PTR [ebp-0x148],0x5
  407384:	lea    eax,[ebp-0x154]
  40738a:	lea    edx,[ebp-0x129]
  407390:	mov    ecx,0x105
  407395:	call   0x403c3c
  40739a:	mov    eax,DWORD PTR [ebp-0x154]
  4073a0:	lea    edx,[ebp-0x150]
  4073a6:	call   0x405b14
  4073ab:	mov    eax,DWORD PTR [ebp-0x150]
  4073b1:	mov    DWORD PTR [ebp-0x144],eax
  4073b7:	mov    BYTE PTR [ebp-0x140],0xb
  4073be:	mov    eax,DWORD PTR [ebp-0x4]
  4073c1:	mov    DWORD PTR [ebp-0x13c],eax
  4073c7:	mov    BYTE PTR [ebp-0x138],0xb
  4073ce:	mov    eax,DWORD PTR [ebp-0x8]
  4073d1:	mov    DWORD PTR [ebp-0x134],eax
  4073d7:	mov    BYTE PTR [ebp-0x130],0x5
  4073de:	lea    eax,[ebp-0x14c]
  4073e4:	push   eax
  4073e5:	push   0x3
  4073e7:	lea    edx,[ebp-0x158]
  4073ed:	mov    eax,ds:0x40a3e0
  4073f2:	call   0x404648
  4073f7:	mov    ecx,DWORD PTR [ebp-0x158]
  4073fd:	mov    dl,0x1
  4073ff:	mov    eax,ds:0x4055c4
  407404:	call   0x406f00
  407409:	mov    ebx,eax
  40740b:	jmp    0x40746a
  40740d:	mov    eax,DWORD PTR [ebx+0xc]
  407410:	mov    DWORD PTR [ebp-0x170],eax
  407416:	mov    BYTE PTR [ebp-0x16c],0x5
  40741d:	mov    eax,DWORD PTR [ebp-0x4]
  407420:	mov    DWORD PTR [ebp-0x168],eax
  407426:	mov    BYTE PTR [ebp-0x164],0xb
  40742d:	mov    eax,DWORD PTR [ebp-0x8]
  407430:	mov    DWORD PTR [ebp-0x160],eax
  407436:	mov    BYTE PTR [ebp-0x15c],0x5
  40743d:	lea    eax,[ebp-0x170]
  407443:	push   eax
  407444:	push   0x2
  407446:	lea    edx,[ebp-0x174]
  40744c:	mov    eax,ds:0x40a3ac
  407451:	call   0x404648
  407456:	mov    ecx,DWORD PTR [ebp-0x174]
  40745c:	mov    dl,0x1
  40745e:	mov    eax,ds:0x4055c4
  407463:	call   0x406f00
  407468:	mov    ebx,eax
  40746a:	xor    eax,eax
  40746c:	pop    edx
  40746d:	pop    ecx
  40746e:	pop    ecx
  40746f:	mov    DWORD PTR fs:[eax],edx
  407472:	push   0x4074a2
  407477:	lea    eax,[ebp-0x174]
  40747d:	call   0x4039f4
  407482:	lea    eax,[ebp-0x158]
  407488:	mov    edx,0x3
  40748d:	call   0x403a18
  407492:	lea    eax,[ebp-0x4]
  407495:	call   0x4039f4
  40749a:	ret    
  40749b:	jmp    0x4033f4
  4074a0:	jmp    0x407477
  4074a2:	mov    eax,ebx
  4074a4:	pop    ebx
  4074a5:	mov    esp,ebp
  4074a7:	pop    ebp
  4074a8:	ret    
  4074a9:	lea    eax,[eax+0x0]
  4074ac:	push   ebp
  4074ad:	mov    ebp,esp
  4074af:	add    esp,0xfffffff0
  4074b2:	push   ebx
  4074b3:	xor    edx,edx
  4074b5:	mov    DWORD PTR [ebp-0x10],edx
  4074b8:	mov    DWORD PTR [ebp-0x4],eax
  4074bb:	xor    eax,eax
  4074bd:	push   ebp
  4074be:	push   0x407567
  4074c3:	push   DWORD PTR fs:[eax]
  4074c6:	mov    DWORD PTR fs:[eax],esp
  4074c9:	mov    eax,DWORD PTR [ebp-0x4]
  4074cc:	call   0x407240
  4074d1:	and    eax,0xff
  4074d6:	mov    edx,eax
  4074d8:	add    edx,0xfffffffd
  4074db:	sub    edx,0x8
  4074de:	jb     0x4074e8
  4074e0:	je     0x4074ff
  4074e2:	dec    edx
  4074e3:	sub    edx,0xa
  4074e6:	jae    0x40750a
  4074e8:	lea    eax,[eax*8+0x40a1c4]
  4074ef:	mov    ecx,DWORD PTR [eax+0x4]
  4074f2:	mov    eax,DWORD PTR [eax]
  4074f4:	mov    dl,0x1
  4074f6:	call   0x406ec4
  4074fb:	mov    ebx,eax
  4074fd:	jmp    0x40753a
  4074ff:	push   ebp
  407500:	call   0x4072d8
  407505:	pop    ecx
  407506:	mov    ebx,eax
  407508:	jmp    0x40753a
  40750a:	mov    eax,DWORD PTR [ebp-0x4]
  40750d:	mov    eax,DWORD PTR [eax]
  40750f:	mov    DWORD PTR [ebp-0xc],eax
  407512:	mov    BYTE PTR [ebp-0x8],0x0
  407516:	lea    eax,[ebp-0xc]
  407519:	push   eax
  40751a:	push   0x0
  40751c:	lea    edx,[ebp-0x10]
  40751f:	mov    eax,ds:0x40a2b4
  407524:	call   0x404648
  407529:	mov    ecx,DWORD PTR [ebp-0x10]
  40752c:	mov    dl,0x1
  40752e:	mov    eax,ds:0x405134
  407533:	call   0x406f00
  407538:	mov    ebx,eax
  40753a:	mov    eax,ebx
  40753c:	mov    edx,DWORD PTR ds:0x4050dc
  407542:	call   0x4030bc
  407547:	test   al,al
  407549:	je     0x407551
  40754b:	mov    eax,DWORD PTR [ebp-0x4]
  40754e:	mov    DWORD PTR [ebx+0xc],eax
  407551:	xor    eax,eax
  407553:	pop    edx
  407554:	pop    ecx
  407555:	pop    ecx
  407556:	mov    DWORD PTR fs:[eax],edx
  407559:	push   0x40756e
  40755e:	lea    eax,[ebp-0x10]
  407561:	call   0x4039f4
  407566:	ret    
  407567:	jmp    0x4033f4
  40756c:	jmp    0x40755e
  40756e:	mov    eax,ebx
  407570:	pop    ebx
  407571:	mov    esp,ebp
  407573:	pop    ebp
  407574:	ret    
  407575:	lea    eax,[eax+0x0]
  407578:	call   0x406dfc
  40757d:	mov    eax,0x1
  407582:	call   0x4039dc
  407587:	ret    
  407588:	mov    ecx,DWORD PTR ds:0x40a2ec
  40758e:	mov    dl,0x1
  407590:	mov    eax,ds:0x405028
  407595:	call   0x406f80
  40759a:	mov    ds:0x40b790,eax
  40759f:	mov    ecx,DWORD PTR ds:0x40a38c
  4075a5:	mov    dl,0x1
  4075a7:	mov    eax,ds:0x4054b0
  4075ac:	call   0x406f80
  4075b1:	mov    ds:0x40b794,eax
  4075b6:	mov    eax,ds:0x40a2bc
  4075bb:	mov    DWORD PTR [eax],0x4070fc
  4075c1:	mov    eax,ds:0x40a318
  4075c6:	mov    DWORD PTR [eax],0x407578
  4075cc:	mov    eax,ds:0x40a2e0
  4075d1:	mov    edx,DWORD PTR ds:0x404f64
  4075d7:	mov    DWORD PTR [eax],edx
  4075d9:	mov    eax,ds:0x40a310
  4075de:	mov    DWORD PTR [eax],0x4072c0
  4075e4:	mov    eax,ds:0x40a31c
  4075e9:	mov    DWORD PTR [eax],0x4074ac
  4075ef:	mov    eax,0x40720c
  4075f4:	mov    edx,DWORD PTR ds:0x40a3a0
  4075fa:	mov    DWORD PTR [edx],eax
  4075fc:	mov    eax,0x407228
  407601:	mov    edx,DWORD PTR ds:0x40a2b0
  407607:	mov    DWORD PTR [edx],eax
  407609:	ret    
  40760a:	mov    eax,eax
  40760c:	cmp    DWORD PTR ds:0x40b790,0x0
  407613:	je     0x40762f
  407615:	mov    eax,ds:0x40b790
  40761a:	mov    BYTE PTR [eax+0xc],0x1
  40761e:	mov    eax,ds:0x40b790
  407623:	mov    edx,DWORD PTR [eax]
  407625:	call   DWORD PTR [edx-0x8]
  407628:	xor    eax,eax
  40762a:	mov    ds:0x40b790,eax
  40762f:	cmp    DWORD PTR ds:0x40b794,0x0
  407636:	je     0x407652
  407638:	mov    eax,ds:0x40b794
  40763d:	mov    BYTE PTR [eax+0xc],0x1
  407641:	mov    eax,ds:0x40b794
  407646:	call   0x403038
  40764b:	xor    eax,eax
  40764d:	mov    ds:0x40b794,eax
  407652:	mov    eax,ds:0x40a2bc
  407657:	xor    edx,edx
  407659:	mov    DWORD PTR [eax],edx
  40765b:	mov    eax,ds:0x40a318
  407660:	xor    edx,edx
  407662:	mov    DWORD PTR [eax],edx
  407664:	mov    eax,ds:0x40a2e0
  407669:	xor    edx,edx
  40766b:	mov    DWORD PTR [eax],edx
  40766d:	mov    eax,ds:0x40a310
  407672:	xor    edx,edx
  407674:	mov    DWORD PTR [eax],edx
  407676:	mov    eax,ds:0x40a31c
  40767b:	xor    edx,edx
  40767d:	mov    DWORD PTR [eax],edx
  40767f:	mov    eax,ds:0x40a3a0
  407684:	xor    edx,edx
  407686:	mov    DWORD PTR [eax],edx
  407688:	ret    
  407689:	lea    eax,[eax+0x0]
  40768c:	add    esp,0xffffff6c
  407692:	mov    DWORD PTR [esp],0x94
  407699:	push   esp
  40769a:	call   0x404a34
  40769f:	test   eax,eax
  4076a1:	je     0x4076f3
  4076a3:	mov    eax,DWORD PTR [esp+0x10]
  4076a7:	mov    ds:0x40a0b0,eax
  4076ac:	mov    eax,DWORD PTR [esp+0x4]
  4076b0:	mov    ds:0x40a0b4,eax
  4076b5:	mov    eax,DWORD PTR [esp+0x8]
  4076b9:	mov    ds:0x40a0b8,eax
  4076be:	cmp    DWORD PTR ds:0x40a0b0,0x1
  4076c5:	jne    0x4076d7
  4076c7:	mov    eax,DWORD PTR [esp+0xc]
  4076cb:	and    eax,0xffff
  4076d0:	mov    ds:0x40a0bc,eax
  4076d5:	jmp    0x4076e0
  4076d7:	mov    eax,DWORD PTR [esp+0xc]
  4076db:	mov    ds:0x40a0bc,eax
  4076e0:	mov    eax,0x40a0c0
  4076e5:	lea    edx,[esp+0x14]
  4076e9:	mov    ecx,0x80
  4076ee:	call   0x403c3c
  4076f3:	add    esp,0x94
  4076f9:	ret    
  4076fa:	mov    eax,eax
  4076fc:	push   esi
  4076fd:	push   edi
  4076fe:	mov    edi,edx
  407700:	xor    edx,edx
  407702:	test   eax,eax
  407704:	je     0x40776c
  407706:	cmp    BYTE PTR [eax+edi*1],0x0
  40770a:	je     0x40776c
  40770c:	test   edi,edi
  40770e:	jne    0x407724
  407710:	mov    al,BYTE PTR [eax]
  407712:	and    eax,0xff
  407717:	bt     DWORD PTR ds:0x40a0c4,eax
  40771e:	jae    0x40776c
  407720:	mov    dl,0x1
  407722:	jmp    0x40776c
  407724:	mov    esi,edi
  407726:	dec    esi
  407727:	jmp    0x40772a
  407729:	dec    esi
  40772a:	test   esi,esi
  40772c:	jl     0x407740
  40772e:	mov    cl,BYTE PTR [eax+esi*1]
  407731:	and    ecx,0xff
  407737:	bt     DWORD PTR ds:0x40a0c4,ecx
  40773e:	jb     0x407729
  407740:	mov    ecx,edi
  407742:	sub    ecx,esi
  407744:	and    ecx,0x80000001
  40774a:	jns    0x407751
  40774c:	dec    ecx
  40774d:	or     ecx,0xfffffffe
  407750:	inc    ecx
  407751:	test   ecx,ecx
  407753:	jne    0x407759
  407755:	mov    dl,0x2
  407757:	jmp    0x40776c
  407759:	mov    al,BYTE PTR [eax+edi*1]
  40775c:	and    eax,0xff
  407761:	bt     DWORD PTR ds:0x40a0c4,eax
  407768:	jae    0x40776c
  40776a:	mov    dl,0x1
  40776c:	mov    eax,edx
  40776e:	pop    edi
  40776f:	pop    esi
  407770:	ret    
  407771:	lea    eax,[eax+0x0]
  407774:	push   ebx
  407775:	push   esi
  407776:	mov    esi,edx
  407778:	mov    ebx,eax
  40777a:	xor    eax,eax
  40777c:	cmp    BYTE PTR ds:0x40b748,0x0
  407783:	je     0x407794
  407785:	mov    eax,ebx
  407787:	call   0x403d50
  40778c:	mov    edx,esi
  40778e:	dec    edx
  40778f:	call   0x4076fc
  407794:	pop    esi
  407795:	pop    ebx
  407796:	ret    
  407797:	nop
  407798:	xor    ecx,ecx
  40779a:	cmp    BYTE PTR ds:0x40b748,0x0
  4077a1:	je     0x4077aa
  4077a3:	call   0x4076fc
  4077a8:	mov    ecx,eax
  4077aa:	mov    eax,ecx
  4077ac:	ret    
  4077ad:	lea    eax,[eax+0x0]
  4077b0:	push   ebx
  4077b1:	mov    ebx,eax
  4077b3:	cmp    BYTE PTR ds:0x40b748,0x0
  4077ba:	je     0x4077c6
  4077bc:	push   ebx
  4077bd:	call   0x404a5c
  4077c2:	sub    eax,ebx
  4077c4:	pop    ebx
  4077c5:	ret    
  4077c6:	mov    eax,0x1
  4077cb:	pop    ebx
  4077cc:	ret    
  4077cd:	lea    eax,[eax+0x0]
  4077d0:	push   ebx
  4077d1:	push   esi
  4077d2:	mov    esi,edx
  4077d4:	mov    ebx,eax
  4077d6:	mov    eax,0x1
  4077db:	cmp    BYTE PTR ds:0x40b748,0x0
  4077e2:	je     0x407806
  4077e4:	mov    dl,BYTE PTR [ebx+esi*1-0x1]
  4077e8:	and    edx,0xff
  4077ee:	bt     DWORD PTR ds:0x40a0c4,edx
  4077f5:	jae    0x407806
  4077f7:	mov    eax,ebx
  4077f9:	call   0x403d50
  4077fe:	add    eax,esi
  407800:	dec    eax
  407801:	call   0x4077b0
  407806:	pop    esi
  407807:	pop    ebx
  407808:	ret    
  407809:	lea    eax,[eax+0x0]
  40780c:	push   ebx
  40780d:	push   esi
  40780e:	add    esp,0xfffffff8
  407811:	mov    ebx,edx
  407813:	mov    DWORD PTR [esp],eax
  407816:	mov    esi,esp
  407818:	mov    edx,ebx
  40781a:	mov    eax,DWORD PTR [esi]
  40781c:	call   0x407854
  407821:	mov    DWORD PTR [esi],eax
  407823:	mov    eax,DWORD PTR [esi]
  407825:	mov    DWORD PTR [esp+0x4],eax
  407829:	test   bl,bl
  40782b:	je     0x40784a
  40782d:	cmp    DWORD PTR [esi],0x0
  407830:	je     0x40784a
  407832:	mov    eax,DWORD PTR [esi]
  407834:	mov    DWORD PTR [esp+0x4],eax
  407838:	inc    DWORD PTR [esi]
  40783a:	mov    edx,ebx
  40783c:	mov    eax,DWORD PTR [esi]
  40783e:	call   0x407854
  407843:	mov    DWORD PTR [esi],eax
  407845:	cmp    DWORD PTR [esi],0x0
  407848:	jne    0x407832
  40784a:	mov    eax,DWORD PTR [esp+0x4]
  40784e:	pop    ecx
  40784f:	pop    edx
  407850:	pop    esi
  407851:	pop    ebx
  407852:	ret    
  407853:	nop
  407854:	push   ebx
  407855:	push   esi
  407856:	push   edi
  407857:	push   ecx
  407858:	mov    ebx,edx
  40785a:	mov    esi,eax
  40785c:	mov    edi,esp
  40785e:	mov    edx,ebx
  407860:	mov    eax,esi
  407862:	call   0x405c6c
  407867:	mov    DWORD PTR [edi],eax
  407869:	cmp    DWORD PTR [edi],0x0
  40786c:	je     0x407895
  40786e:	mov    edx,DWORD PTR [edi]
  407870:	sub    edx,esi
  407872:	mov    eax,esi
  407874:	call   0x407798
  407879:	sub    al,0x1
  40787b:	jb     0x407895
  40787d:	je     0x407881
  40787f:	jmp    0x407883
  407881:	inc    DWORD PTR [edi]
  407883:	inc    DWORD PTR [edi]
  407885:	mov    edx,ebx
  407887:	mov    eax,DWORD PTR [edi]
  407889:	call   0x405c6c
  40788e:	mov    DWORD PTR [edi],eax
  407890:	cmp    DWORD PTR [edi],0x0
  407893:	jne    0x40786e
  407895:	mov    eax,DWORD PTR [edi]
  407897:	pop    edx
  407898:	pop    edi
  407899:	pop    esi
  40789a:	pop    ebx
  40789b:	ret    
  40789c:	push   ebp
  40789d:	mov    ebp,esp
  40789f:	add    esp,0xfffffff4
  4078a2:	push   ebx
  4078a3:	xor    edx,edx
  4078a5:	mov    DWORD PTR [ebp-0xc],edx
  4078a8:	xor    edx,edx
  4078aa:	push   ebp
  4078ab:	push   0x407900
  4078b0:	push   DWORD PTR fs:[edx]
  4078b3:	mov    DWORD PTR fs:[edx],esp
  4078b6:	push   0x7
  4078b8:	lea    edx,[ebp-0x7]
  4078bb:	push   edx
  4078bc:	push   0x1004
  4078c1:	push   eax
  4078c2:	call   0x4049fc
  4078c7:	lea    eax,[ebp-0xc]
  4078ca:	lea    edx,[ebp-0x7]
  4078cd:	mov    ecx,0x7
  4078d2:	call   0x403c3c
  4078d7:	mov    eax,DWORD PTR [ebp-0xc]
  4078da:	push   eax
  4078db:	call   0x4049dc
  4078e0:	mov    edx,eax
  4078e2:	pop    eax
  4078e3:	call   0x405a94
  4078e8:	mov    ebx,eax
  4078ea:	xor    eax,eax
  4078ec:	pop    edx
  4078ed:	pop    ecx
  4078ee:	pop    ecx
  4078ef:	mov    DWORD PTR fs:[eax],edx
  4078f2:	push   0x407907
  4078f7:	lea    eax,[ebp-0xc]
  4078fa:	call   0x4039f4
  4078ff:	ret    
  407900:	jmp    0x4033f4
  407905:	jmp    0x4078f7
  407907:	mov    eax,ebx
  407909:	pop    ebx
  40790a:	mov    esp,ebp
  40790c:	pop    ebp
  40790d:	ret    
  40790e:	mov    eax,eax
  407910:	push   ebp
  407911:	mov    ebp,esp
  407913:	push   ecx
  407914:	push   ebx
  407915:	push   esi
  407916:	push   edi
  407917:	mov    edi,DWORD PTR [ebp+0x8]
  40791a:	add    edi,0xffffffec
  40791d:	push   edi
  40791e:	mov    eax,ds:0x40b73c
  407923:	call   0x40789c
  407928:	push   eax
  407929:	call   0x4049e4
  40792e:	xor    esi,esi
  407930:	jmp    0x40795b
  407932:	mov    al,BYTE PTR [edi+esi*1+0x6]
  407936:	mov    bl,BYTE PTR [edi+esi*1+0x7]
  40793a:	sub    bl,al
  40793c:	jb     0x407958
  40793e:	inc    ebx
  40793f:	mov    BYTE PTR [ebp-0x1],al
  407942:	mov    al,BYTE PTR [ebp-0x1]
  407945:	and    eax,0xff
  40794a:	bts    DWORD PTR ds:0x40a0c4,eax
  407951:	inc    BYTE PTR [ebp-0x1]
  407954:	dec    bl
  407956:	jne    0x407942
  407958:	add    esi,0x2
  40795b:	cmp    esi,0xc
  40795e:	jge    0x40796a
  407960:	mov    al,BYTE PTR [edi+esi*1+0x6]
  407964:	or     al,BYTE PTR [edi+esi*1+0x7]
  407968:	jne    0x407932
  40796a:	pop    edi
  40796b:	pop    esi
  40796c:	pop    ebx
  40796d:	pop    ecx
  40796e:	pop    ebp
  40796f:	ret    
  407970:	mov    eax,ds:0x40b740
  407975:	cmp    eax,0x1f
  407978:	ja     0x407981
  40797a:	bt     DWORD PTR ds:0x40a28c,eax
  407981:	setb   al
  407984:	ret    
  407985:	lea    eax,[eax+0x0]
  407988:	push   ebp
  407989:	mov    ebp,esp
  40798b:	add    esp,0xfffffe64
  407991:	push   ebx
  407992:	push   esi
  407993:	push   edi
  407994:	mov    DWORD PTR ds:0x40b73c,0x409
  40799e:	mov    DWORD PTR ds:0x40b740,0x9
  4079a8:	mov    DWORD PTR ds:0x40b744,0x1
  4079b2:	call   0x404a2c
  4079b7:	test   eax,eax
  4079b9:	je     0x4079c0
  4079bb:	mov    ds:0x40b73c,eax
  4079c0:	test   ax,ax
  4079c3:	je     0x4079e0
  4079c5:	mov    edx,eax
  4079c7:	and    dx,0x3ff
  4079cc:	movzx  edx,dx
  4079cf:	mov    DWORD PTR ds:0x40b740,edx
  4079d5:	movzx  eax,ax
  4079d8:	shr    eax,0xa
  4079db:	mov    ds:0x40b744,eax
  4079e0:	mov    esi,0x407ae0
  4079e5:	mov    edi,0x40a0c4
  4079ea:	mov    ecx,0x8
  4079ef:	rep movs DWORD PTR es:[edi],DWORD PTR ds:[esi]
  4079f1:	cmp    DWORD PTR ds:0x40a0b0,0x2
  4079f8:	jne    0x407aab
  4079fe:	call   0x407970
  407a03:	test   al,al
  407a05:	je     0x407a1a
  407a07:	mov    BYTE PTR ds:0x40b749,0x0
  407a0e:	mov    BYTE PTR ds:0x40b748,0x0
  407a15:	jmp    0x407ad9
  407a1a:	push   ebp
  407a1b:	call   0x407910
  407a20:	pop    ecx
  407a21:	mov    eax,0x40a0c4
  407a26:	mov    edx,0x407ae0
  407a2b:	mov    cl,0x20
  407a2d:	call   0x402bd4
  407a32:	setne  bl
  407a35:	mov    BYTE PTR ds:0x40b748,bl
  407a3b:	test   bl,bl
  407a3d:	je     0x407a4b
  407a3f:	mov    BYTE PTR ds:0x40b749,0x0
  407a46:	jmp    0x407ad9
  407a4b:	mov    eax,0x80
  407a50:	lea    edx,[ebp-0x98]
  407a56:	mov    BYTE PTR [edx],al
  407a58:	inc    eax
  407a59:	inc    edx
  407a5a:	cmp    eax,0x100
  407a5f:	jne    0x407a56
  407a61:	lea    eax,[ebp-0x98]
  407a67:	mov    DWORD PTR [ebp-0x18],eax
  407a6a:	lea    eax,[ebp-0x19a]
  407a70:	push   eax
  407a71:	push   0x80
  407a76:	mov    eax,DWORD PTR [ebp-0x18]
  407a79:	push   eax
  407a7a:	push   0x2
  407a7c:	mov    eax,ds:0x40b73c
  407a81:	push   eax
  407a82:	call   0x404a24
  407a87:	mov    eax,0x80
  407a8c:	lea    edx,[ebp-0x19a]
  407a92:	cmp    WORD PTR [edx],0x2
  407a96:	sete   cl
  407a99:	mov    BYTE PTR ds:0x40b749,cl
  407a9f:	test   cl,cl
  407aa1:	jne    0x407ad9
  407aa3:	add    edx,0x2
  407aa6:	dec    eax
  407aa7:	jne    0x407a92
  407aa9:	jmp    0x407ad9
  407aab:	push   0x4a
  407aad:	call   0x404a84
  407ab2:	test   eax,eax
  407ab4:	setne  al
  407ab7:	mov    ds:0x40b749,al
  407abc:	push   0x2a
  407abe:	call   0x404a84
  407ac3:	test   eax,eax
  407ac5:	setne  bl
  407ac8:	mov    BYTE PTR ds:0x40b748,bl
  407ace:	test   bl,bl
  407ad0:	je     0x407ad9
  407ad2:	push   ebp
  407ad3:	call   0x407910
  407ad8:	pop    ecx
  407ad9:	pop    edi
  407ada:	pop    esi
  407adb:	pop    ebx
  407adc:	mov    esp,ebp
  407ade:	pop    ebp
  407adf:	ret    
	...
  407b00:	push   ebp
  407b01:	mov    ebp,esp
  407b03:	mov    ecx,0x8
  407b08:	push   0x0
  407b0a:	push   0x0
  407b0c:	dec    ecx
  407b0d:	jne    0x407b08
  407b0f:	push   ebx
  407b10:	xor    eax,eax
  407b12:	push   ebp
  407b13:	push   0x407dcb
  407b18:	push   DWORD PTR fs:[eax]
  407b1b:	mov    DWORD PTR fs:[eax],esp
  407b1e:	call   0x407988
  407b23:	call   0x4067a8
  407b28:	cmp    BYTE PTR ds:0x40b748,0x0
  407b2f:	je     0x407b36
  407b31:	call   0x406980
  407b36:	call   0x404a2c
  407b3b:	mov    ebx,eax
  407b3d:	lea    eax,[ebp-0x10]
  407b40:	push   eax
  407b41:	xor    ecx,ecx
  407b43:	mov    edx,0x14
  407b48:	mov    eax,ebx
  407b4a:	call   0x4066f8
  407b4f:	mov    edx,DWORD PTR [ebp-0x10]
  407b52:	mov    eax,0x40b67c
  407b57:	call   0x403a48
  407b5c:	lea    eax,[ebp-0x14]
  407b5f:	push   eax
  407b60:	mov    ecx,0x407de0
  407b65:	mov    edx,0x1b
  407b6a:	mov    eax,ebx
  407b6c:	call   0x4066f8
  407b71:	mov    eax,DWORD PTR [ebp-0x14]
  407b74:	xor    edx,edx
  407b76:	call   0x405a94
  407b7b:	mov    ds:0x40b680,al
  407b80:	lea    eax,[ebp-0x18]
  407b83:	push   eax
  407b84:	mov    ecx,0x407de0
  407b89:	mov    edx,0x1c
  407b8e:	mov    eax,ebx
  407b90:	call   0x4066f8
  407b95:	mov    eax,DWORD PTR [ebp-0x18]
  407b98:	xor    edx,edx
  407b9a:	call   0x405a94
  407b9f:	mov    ds:0x40b681,al
  407ba4:	mov    cl,0x2c
  407ba6:	mov    edx,0xf
  407bab:	mov    eax,ebx
  407bad:	call   0x406744
  407bb2:	mov    ds:0x40b682,al
  407bb7:	mov    cl,0x2e
  407bb9:	mov    edx,0xe
  407bbe:	mov    eax,ebx
  407bc0:	call   0x406744
  407bc5:	mov    ds:0x40b683,al
  407bca:	lea    eax,[ebp-0x1c]
  407bcd:	push   eax
  407bce:	mov    ecx,0x407de0
  407bd3:	mov    edx,0x19
  407bd8:	mov    eax,ebx
  407bda:	call   0x4066f8
  407bdf:	mov    eax,DWORD PTR [ebp-0x1c]
  407be2:	xor    edx,edx
  407be4:	call   0x405a94
  407be9:	mov    ds:0x40b684,al
  407bee:	mov    cl,0x2f
  407bf0:	mov    edx,0x1d
  407bf5:	mov    eax,ebx
  407bf7:	call   0x406744
  407bfc:	mov    ds:0x40b685,al
  407c01:	lea    eax,[ebp-0x24]
  407c04:	push   eax
  407c05:	mov    ecx,0x407dec
  407c0a:	mov    edx,0x1f
  407c0f:	mov    eax,ebx
  407c11:	call   0x4066f8
  407c16:	mov    eax,DWORD PTR [ebp-0x24]
  407c19:	lea    edx,[ebp-0x20]
  407c1c:	call   0x406a30
  407c21:	mov    edx,DWORD PTR [ebp-0x20]
  407c24:	mov    eax,0x40b688
  407c29:	call   0x403a48
  407c2e:	lea    eax,[ebp-0x2c]
  407c31:	push   eax
  407c32:	mov    ecx,0x407dfc
  407c37:	mov    edx,0x20
  407c3c:	mov    eax,ebx
  407c3e:	call   0x4066f8
  407c43:	mov    eax,DWORD PTR [ebp-0x2c]
  407c46:	lea    edx,[ebp-0x28]
  407c49:	call   0x406a30
  407c4e:	mov    edx,DWORD PTR [ebp-0x28]
  407c51:	mov    eax,0x40b68c
  407c56:	call   0x403a48
  407c5b:	mov    cl,0x3a
  407c5d:	mov    edx,0x1e
  407c62:	mov    eax,ebx
  407c64:	call   0x406744
  407c69:	mov    ds:0x40b690,al
  407c6e:	lea    eax,[ebp-0x30]
  407c71:	push   eax
  407c72:	mov    ecx,0x407e14
  407c77:	mov    edx,0x28
  407c7c:	mov    eax,ebx
  407c7e:	call   0x4066f8
  407c83:	mov    edx,DWORD PTR [ebp-0x30]
  407c86:	mov    eax,0x40b694
  407c8b:	call   0x403a48
  407c90:	lea    eax,[ebp-0x34]
  407c93:	push   eax
  407c94:	mov    ecx,0x407e20
  407c99:	mov    edx,0x29
  407c9e:	mov    eax,ebx
  407ca0:	call   0x4066f8
  407ca5:	mov    edx,DWORD PTR [ebp-0x34]
  407ca8:	mov    eax,0x40b698
  407cad:	call   0x403a48
  407cb2:	lea    eax,[ebp-0x8]
  407cb5:	call   0x4039f4
  407cba:	lea    eax,[ebp-0xc]
  407cbd:	call   0x4039f4
  407cc2:	lea    eax,[ebp-0x38]
  407cc5:	push   eax
  407cc6:	mov    ecx,0x407de0
  407ccb:	mov    edx,0x25
  407cd0:	mov    eax,ebx
  407cd2:	call   0x4066f8
  407cd7:	mov    eax,DWORD PTR [ebp-0x38]
  407cda:	xor    edx,edx
  407cdc:	call   0x405a94
  407ce1:	test   eax,eax
  407ce3:	jne    0x407cf4
  407ce5:	lea    eax,[ebp-0x4]
  407ce8:	mov    edx,0x407e2c
  407ced:	call   0x403a8c
  407cf2:	jmp    0x407d01
  407cf4:	lea    eax,[ebp-0x4]
  407cf7:	mov    edx,0x407e38
  407cfc:	call   0x403a8c
  407d01:	lea    eax,[ebp-0x3c]
  407d04:	push   eax
  407d05:	mov    ecx,0x407de0
  407d0a:	mov    edx,0x23
  407d0f:	mov    eax,ebx
  407d11:	call   0x4066f8
  407d16:	mov    eax,DWORD PTR [ebp-0x3c]
  407d19:	xor    edx,edx
  407d1b:	call   0x405a94
  407d20:	test   eax,eax
  407d22:	jne    0x407d63
  407d24:	lea    eax,[ebp-0x40]
  407d27:	push   eax
  407d28:	mov    ecx,0x407de0
  407d2d:	mov    edx,0x1005
  407d32:	mov    eax,ebx
  407d34:	call   0x4066f8
  407d39:	mov    eax,DWORD PTR [ebp-0x40]
  407d3c:	xor    edx,edx
  407d3e:	call   0x405a94
  407d43:	test   eax,eax
  407d45:	jne    0x407d56
  407d47:	lea    eax,[ebp-0xc]
  407d4a:	mov    edx,0x407e44
  407d4f:	call   0x403a8c
  407d54:	jmp    0x407d63
  407d56:	lea    eax,[ebp-0x8]
  407d59:	mov    edx,0x407e54
  407d5e:	call   0x403a8c
  407d63:	push   DWORD PTR [ebp-0x8]
  407d66:	push   DWORD PTR [ebp-0x4]
  407d69:	push   0x407e64
  407d6e:	push   DWORD PTR [ebp-0xc]
  407d71:	mov    eax,0x40b69c
  407d76:	mov    edx,0x4
  407d7b:	call   0x403cb4
  407d80:	push   DWORD PTR [ebp-0x8]
  407d83:	push   DWORD PTR [ebp-0x4]
  407d86:	push   0x407e70
  407d8b:	push   DWORD PTR [ebp-0xc]
  407d8e:	mov    eax,0x40b6a0
  407d93:	mov    edx,0x4
  407d98:	call   0x403cb4
  407d9d:	mov    cl,0x2c
  407d9f:	mov    edx,0xc
  407da4:	mov    eax,ebx
  407da6:	call   0x406744
  407dab:	mov    ds:0x40b74a,al
  407db0:	xor    eax,eax
  407db2:	pop    edx
  407db3:	pop    ecx
  407db4:	pop    ecx
  407db5:	mov    DWORD PTR fs:[eax],edx
  407db8:	push   0x407dd2
  407dbd:	lea    eax,[ebp-0x40]
  407dc0:	mov    edx,0x10
  407dc5:	call   0x403a18
  407dca:	ret    
  407dcb:	jmp    0x4033f4
  407dd0:	jmp    0x407dbd
  407dd2:	pop    ebx
  407dd3:	mov    esp,ebp
  407dd5:	pop    ebp
  407dd6:	ret    
  407dd7:	add    bh,bh
  407dd9:	(bad)  
  407dda:	(bad)  
  407ddb:	inc    DWORD PTR [ecx]
  407ddd:	add    BYTE PTR [eax],al
  407ddf:	add    BYTE PTR [eax],dh
  407de1:	add    BYTE PTR [eax],al
  407de3:	add    bh,bh
  407de5:	(bad)  
  407de6:	(bad)  
  407de7:	inc    DWORD PTR [esi]
  407de9:	add    BYTE PTR [eax],al
  407deb:	add    BYTE PTR [ebp+0x2f],ch
  407dee:	fs das 
  407df0:	jns    0x407e6b
  407df2:	add    BYTE PTR [eax],al
  407df4:	(bad)  
  407df5:	(bad)  
  407df6:	(bad)  
  407df7:	dec    DWORD PTR [eax+eax*1]
  407dfa:	add    BYTE PTR [eax],al
  407dfc:	ins    DWORD PTR es:[edi],dx
  407dfd:	ins    DWORD PTR es:[edi],dx
  407dfe:	ins    DWORD PTR es:[edi],dx
  407dff:	ins    DWORD PTR es:[edi],dx
  407e00:	and    BYTE PTR [esp+ebp*1+0x20],ah
  407e04:	jns    0x407e7f
  407e06:	jns    0x407e81
  407e08:	add    BYTE PTR [eax],al
  407e0a:	add    BYTE PTR [eax],al
  407e0c:	(bad)  
  407e0d:	(bad)  
  407e0e:	(bad)  
  407e0f:	inc    DWORD PTR [edx]
  407e11:	add    BYTE PTR [eax],al
  407e13:	add    BYTE PTR [ecx+0x6d],ah
  407e16:	add    BYTE PTR [eax],al
  407e18:	(bad)  
  407e19:	(bad)  
  407e1a:	(bad)  
  407e1b:	inc    DWORD PTR [edx]
  407e1d:	add    BYTE PTR [eax],al
  407e1f:	add    BYTE PTR [eax+0x6d],dh
  407e22:	add    BYTE PTR [eax],al
  407e24:	(bad)  
  407e25:	(bad)  
  407e26:	(bad)  
  407e27:	inc    DWORD PTR [ecx]
  407e29:	add    BYTE PTR [eax],al
  407e2b:	add    BYTE PTR [eax+0x0],ch
  407e2e:	add    BYTE PTR [eax],al
  407e30:	(bad)  
  407e31:	(bad)  
  407e32:	(bad)  
  407e33:	inc    DWORD PTR [edx]
  407e35:	add    BYTE PTR [eax],al
  407e37:	add    BYTE PTR [eax+0x68],ch
  407e3a:	add    BYTE PTR [eax],al
  407e3c:	(bad)  
  407e3d:	(bad)  
  407e3e:	(bad)  
  407e3f:	inc    DWORD PTR ds:0x20000000
  407e45:	inc    ecx
  407e46:	dec    ebp
  407e47:	push   eax
  407e48:	dec    ebp
  407e49:	add    BYTE PTR [eax],al
  407e4b:	add    bh,bh
  407e4d:	(bad)  
  407e4e:	(bad)  
  407e4f:	inc    DWORD PTR ds:0x41000000
  407e55:	dec    ebp
  407e56:	push   eax
  407e57:	dec    ebp
  407e58:	and    BYTE PTR [eax],al
  407e5a:	add    BYTE PTR [eax],al
  407e5c:	(bad)  
  407e5d:	(bad)  
  407e5e:	(bad)  
  407e5f:	inc    DWORD PTR [ebx]
  407e61:	add    BYTE PTR [eax],al
  407e63:	add    BYTE PTR [edx],bh
  407e65:	ins    DWORD PTR es:[edi],dx
  407e66:	ins    DWORD PTR es:[edi],dx
  407e67:	add    bh,bh
  407e69:	(bad)  
  407e6a:	(bad)  
  407e6b:	inc    DWORD PTR [esi]
  407e6d:	add    BYTE PTR [eax],al
  407e6f:	add    BYTE PTR [edx],bh
  407e71:	ins    DWORD PTR es:[edi],dx
  407e72:	ins    DWORD PTR es:[edi],dx
  407e73:	cmp    dh,BYTE PTR [ebx+0x73]
  407e76:	add    BYTE PTR [eax],al
  407e78:	push   ebx
  407e79:	push   esi
  407e7a:	push   ecx
  407e7b:	mov    ebx,0x40a290
  407e80:	mov    esi,esp
  407e82:	jmp    0x407e9a
  407e84:	mov    eax,DWORD PTR [ebx]
  407e86:	mov    DWORD PTR [esi],eax
  407e88:	mov    eax,DWORD PTR [esi]
  407e8a:	mov    eax,DWORD PTR [eax]
  407e8c:	mov    DWORD PTR [ebx],eax
  407e8e:	mov    edx,0x8
  407e93:	mov    eax,DWORD PTR [esi]
  407e95:	call   0x402894
  407e9a:	cmp    DWORD PTR [ebx],0x0
  407e9d:	jne    0x407e84
  407e9f:	pop    edx
  407ea0:	pop    esi
  407ea1:	pop    ebx
  407ea2:	ret    
  407ea3:	nop
  407ea4:	push   ebx
  407ea5:	push   0x407edc
  407eaa:	call   0x404a0c
  407eaf:	mov    ebx,eax
  407eb1:	test   ebx,ebx
  407eb3:	je     0x407ec5
  407eb5:	push   0x407eec
  407eba:	push   ebx
  407ebb:	call   0x404a14
  407ec0:	mov    ds:0x40a0e8,eax
  407ec5:	cmp    DWORD PTR ds:0x40a0e8,0x0
  407ecc:	jne    0x407ed8
  407ece:	mov    eax,0x405b4c
  407ed3:	mov    ds:0x40a0e8,eax
  407ed8:	pop    ebx
  407ed9:	ret    
  407eda:	add    BYTE PTR [eax],al
  407edc:	imul   esp,DWORD PTR [ebp+0x72],0x6e
  407ee0:	gs ins BYTE PTR es:[edi],dx
  407ee2:	xor    esi,DWORD PTR [edx]
  407ee4:	cs fs ins BYTE PTR es:[edi],dx
  407ee7:	ins    BYTE PTR es:[edi],dx
  407ee8:	add    BYTE PTR [eax],al
  407eea:	add    BYTE PTR [eax],al
  407eec:	inc    edi
  407eed:	gs je  0x407f34
  407ef0:	imul   esi,DWORD PTR [ebx+0x6b],0x65657246
  407ef7:	push   ebx
  407ef8:	jo     0x407f5b
  407efa:	arpl   WORD PTR [ebp+0x45],sp
  407efd:	js     0x407f40
  407eff:	add    BYTE PTR [ebx-0x7636ccf0],cl
  407f05:	or     BYTE PTR [ebx-0x4ed4173e],cl
  407f0b:	(bad)  
  407f0c:	inc    ebx
  407f0e:	mov    eax,eax
  407f10:	sbb    eax,0x88000000
  407f15:	mov    ds:0xa3a40040,al
  407f1a:	inc    eax
  407f1b:	add    BYTE PTR [eax+0x480040a2],al
  407f21:	mov    ds:0xa2780040,eax
  407f26:	inc    eax
  407f27:	add    BYTE PTR [edx+eiz*4-0x5d8fffc0],dh
  407f2e:	inc    eax
  407f2f:	add    BYTE PTR [eax+0x680040a3],bh
  407f35:	mov    ds:0xa3d80040,al
  407f3a:	inc    eax
  407f3b:	add    BYTE PTR [eax-0x5e],ah
  407f3e:	inc    eax
  407f3f:	add    BYTE PTR [eax],al
  407f41:	mov    ds:0xa2580040,eax
  407f46:	inc    eax
  407f47:	add    BYTE PTR [eax-0x5d],al
  407f4a:	inc    eax
  407f4b:	add    BYTE PTR [eax-0x5e],dl
  407f4e:	inc    eax
  407f4f:	add    BYTE PTR [eax+0x480040a2],bl
  407f55:	mov    ds:0xa3580040,al
  407f5a:	inc    eax
  407f5b:	add    BYTE PTR [eax-0x5e],al
  407f5e:	inc    eax
  407f5f:	add    BYTE PTR [ebx+eiz*4+0x40],ch
  407f63:	add    BYTE PTR [eax],bh
  407f65:	mov    ds:0xa3240040,al
  407f6a:	inc    eax
  407f6b:	add    BYTE PTR [eax],dh
  407f6d:	mov    ds:0xa32c0040,al
  407f72:	inc    eax
  407f73:	add    BYTE PTR [eax],ch
  407f75:	mov    ds:0xa4040040,al
  407f7a:	inc    eax
  407f7b:	add    BYTE PTR [eax],ah
  407f7d:	mov    ds:0xa3280040,al
  407f82:	inc    eax
  407f83:	add    BYTE PTR [eax],bl
  407f85:	mov    ds:0xa4240040,al
  407f8a:	inc    eax
  407f8b:	add    BYTE PTR [eax],dl
  407f8d:	mov    ds:0xa3940040,al
  407f92:	inc    eax
  407f93:	add    BYTE PTR [eax],cl
  407f95:	mov    ds:0xa3840040,al
  407f9a:	inc    eax
  407f9b:	add    BYTE PTR [eax],al
  407f9d:	mov    ds:0xa4280040,al
  407fa2:	inc    eax
  407fa3:	add    al,bh
  407fa5:	mov    eax,ds:0xa4140040
  407faa:	inc    eax
  407fab:	add    al,dh
  407fad:	mov    eax,ds:0xa3380040
  407fb2:	inc    eax
  407fb3:	add    al,ch
  407fb5:	mov    eax,ds:0xa4080040
  407fba:	inc    eax
  407fbb:	add    al,ah
  407fbd:	mov    eax,ds:0xa40c0040
  407fc2:	inc    eax
  407fc3:	add    al,bl
  407fc5:	mov    eax,ds:0xa2f40040
  407fca:	inc    eax
  407fcb:	add    al,dl
  407fcd:	mov    eax,ds:0xa2d00040
  407fd2:	inc    eax
  407fd3:	add    al,cl
  407fd5:	mov    eax,ds:0xa37c0040
  407fda:	inc    eax
  407fdb:	add    al,al
  407fdd:	mov    eax,ds:0xa3b40040
  407fe2:	inc    eax
  407fe3:	add    BYTE PTR [eax-0x63ffbf5f],bh
  407fe9:	mov    ds:0xa1b00040,al
  407fee:	inc    eax
  407fef:	add    BYTE PTR [eax],al
  407ff1:	movs   BYTE PTR es:[edi],BYTE PTR ds:[esi]
  407ff2:	inc    eax
  407ff3:	add    BYTE PTR [eax+0x340040a1],ch
  407ff9:	mov    ds:0x280040,eax
  407ffe:	add    BYTE PTR [eax],al
  408000:	mov    al,ds:0xf00040a1
  408005:	mov    ds:0x40,eax
  40800a:	add    BYTE PTR [eax],al
  40800c:	pushf  
  40800d:	mov    eax,ds:0xa2b80040
  408012:	inc    eax
  408013:	add    BYTE PTR [eax],al
  408015:	add    BYTE PTR [eax],al
  408017:	add    BYTE PTR [eax-0x4fffbf5f],bl
  40801d:	mov    ds:0x40,eax
  408022:	add    BYTE PTR [eax],al
  408024:	xchg   esp,eax
  408025:	mov    eax,ds:0xa2a80040
  40802a:	inc    eax
  40802b:	add    BYTE PTR [eax],al
  40802d:	add    BYTE PTR [eax],al
  40802f:	add    BYTE PTR [eax-0x23ffbf5f],dl
  408035:	mov    ds:0x40,al
  40803a:	add    BYTE PTR [eax],al
  40803c:	mov    WORD PTR [ecx-0x5d2bffc0],fs
  408042:	inc    eax
  408043:	add    BYTE PTR [eax],al
  408045:	add    BYTE PTR [eax],al
  408047:	add    BYTE PTR [eax-0x3fffbf5f],cl
  40804d:	mov    ds:0x40,al
  408052:	add    BYTE PTR [eax],al
  408054:	test   BYTE PTR [ecx-0x5ccfffc0],ah
  40805a:	inc    eax
  40805b:	add    BYTE PTR [eax],al
  40805d:	add    BYTE PTR [eax],al
  40805f:	add    BYTE PTR [eax-0x6fffbf5f],al
  408065:	mov    ds:0x40,eax
  40806a:	add    BYTE PTR [eax],al
  40806c:	jl     0x40800f
  40806e:	inc    eax
  40806f:	add    al,bl
  408071:	mov    ds:0x40,al
  408076:	add    BYTE PTR [eax],al
  408078:	js     0x40801b
  40807a:	inc    eax
  40807b:	add    BYTE PTR [eax-0x5d],bh
  40807e:	inc    eax
  40807f:	add    BYTE PTR [eax],al
  408081:	add    BYTE PTR [eax],al
  408083:	add    BYTE PTR [ecx+eiz*4+0x40],dh
  408087:	add    al,dl
  408089:	mov    ds:0x40,eax
  40808e:	add    BYTE PTR [eax],al
  408090:	jo     0x408033
  408092:	inc    eax
  408093:	add    al,cl
  408095:	mov    ds:0x40,eax
  40809a:	add    BYTE PTR [eax],al
  40809c:	ins    BYTE PTR es:[edi],dx
  40809d:	mov    eax,ds:0xa39c0040
  4080a2:	inc    eax
  4080a3:	add    BYTE PTR [eax],al
  4080a5:	add    BYTE PTR [eax],al
  4080a7:	add    BYTE PTR [eax-0x5f],ch
  4080aa:	inc    eax
  4080ab:	add    BYTE PTR [eax],ah
  4080ad:	mov    ds:0x40,eax
  4080b2:	add    BYTE PTR [eax],al
  4080b4:	mov    eax,fs:0xa30c0040
  4080ba:	inc    eax
  4080bb:	add    BYTE PTR [eax],al
  4080bd:	add    BYTE PTR [eax],al
  4080bf:	add    BYTE PTR [eax-0x5f],ah
  4080c2:	inc    eax
  4080c3:	add    BYTE PTR [edx+eiz*4+0x40],ah
  4080ca:	add    BYTE PTR [eax],al
  4080cc:	pop    esp
  4080cd:	mov    eax,ds:0xa3c00040
  4080d2:	inc    eax
  4080d3:	add    BYTE PTR [eax],al
  4080d5:	add    BYTE PTR [eax],al
  4080d7:	add    BYTE PTR [eax-0x5f],bl
  4080da:	inc    eax
  4080db:	add    BYTE PTR [ebx+eiz*4+0x40],ah
  4080df:	add    BYTE PTR [eax],al
  4080e1:	add    BYTE PTR [eax],al
  4080e3:	add    BYTE PTR [ecx+eiz*4+0x40],dl
  4080e7:	add    BYTE PTR [ebx+eiz*4],al
  4080ea:	inc    eax
  4080eb:	add    BYTE PTR [eax],al
  4080ed:	add    BYTE PTR [eax],al
  4080ef:	add    BYTE PTR [eax-0x5f],dl
  4080f2:	inc    eax
  4080f3:	add    BYTE PTR [ebx+eiz*4+0x40],dl
  4080f7:	add    BYTE PTR [eax],al
  4080f9:	add    BYTE PTR [eax],al
  4080fb:	add    BYTE PTR [ecx+eiz*4+0x40],cl
  4080ff:	add    BYTE PTR [eax+0x40a3],cl
  408105:	add    BYTE PTR [eax],al
  408107:	add    BYTE PTR [eax-0x5f],cl
  40810a:	inc    eax
  40810b:	add    BYTE PTR [ebx+eiz*4+0x40],bl
  40810f:	add    BYTE PTR [eax],al
  408111:	add    BYTE PTR [eax],al
  408113:	add    BYTE PTR [ecx+eiz*4+0x40],al
  408117:	add    BYTE PTR [ebx+eiz*4],dl
  40811a:	inc    eax
  40811b:	add    BYTE PTR [eax],al
  40811d:	add    BYTE PTR [eax],al
  40811f:	add    BYTE PTR [eax-0x5f],al
  408122:	inc    eax
  408123:	add    BYTE PTR [eax+0x40a2],ah
  408129:	add    BYTE PTR [eax],al
  40812b:	add    BYTE PTR [ecx+eiz*4],bh
  40812e:	inc    eax
  40812f:	add    BYTE PTR [ebx+eiz*4+0x40],al
  408133:	add    BYTE PTR [eax],al
  408135:	add    BYTE PTR [eax],al
  408137:	add    BYTE PTR [eax],bh
  408139:	mov    eax,ds:0xa4100040
  40813e:	inc    eax
  40813f:	add    BYTE PTR [eax],al
  408141:	add    BYTE PTR [eax],al
  408143:	add    BYTE PTR [ecx+eiz*4],dh
  408146:	inc    eax
  408147:	add    ah,ch
  408149:	mov    ds:0x40,eax
  40814e:	add    BYTE PTR [eax],al
  408150:	xor    BYTE PTR [ecx-0x5c8bffc0],ah
  408156:	inc    eax
  408157:	add    BYTE PTR [eax],al
  408159:	add    BYTE PTR [eax],al
  40815b:	add    BYTE PTR [ecx+eiz*4],ch
  40815e:	inc    eax
  40815f:	add    al,dh
  408161:	mov    ds:0x40,al
  408166:	add    BYTE PTR [eax],al
  408168:	sub    BYTE PTR [ecx-0x5d53ffc0],ah
  40816e:	inc    eax
  40816f:	add    BYTE PTR [eax],al
  408171:	add    BYTE PTR [eax],al
  408173:	add    BYTE PTR [ecx+eiz*4],ah
  408176:	inc    eax
  408177:	add    ah,ah
  408179:	mov    ds:0x40,eax
  40817e:	add    BYTE PTR [eax],al
  408180:	and    BYTE PTR [ecx-0x5bcfffc0],ah
  408186:	inc    eax
  408187:	add    BYTE PTR [eax],al
  408189:	add    BYTE PTR [eax],al
  40818b:	add    BYTE PTR [ecx+eiz*4],bl
  40818e:	inc    eax
  40818f:	add    al,cl
  408191:	mov    ds:0x40,al
  408196:	add    BYTE PTR [eax],al
  408198:	sbb    BYTE PTR [ecx-0x5d6bffc0],ah
  40819e:	inc    eax
  40819f:	add    BYTE PTR [eax],al
  4081a1:	add    BYTE PTR [eax],al
  4081a3:	add    BYTE PTR [ecx+eiz*4],dl
  4081a6:	inc    eax
  4081a7:	add    ah,bh
  4081a9:	mov    ds:0x40,eax
  4081ae:	add    BYTE PTR [eax],al
  4081b0:	adc    BYTE PTR [ecx-0x5c8fffc0],ah
  4081b6:	inc    eax
  4081b7:	add    BYTE PTR [eax],al
  4081b9:	add    BYTE PTR [eax],al
  4081bb:	add    BYTE PTR [ecx+eiz*4],cl
  4081be:	inc    eax
  4081bf:	add    BYTE PTR [eax],bl
  4081c1:	movs   BYTE PTR es:[edi],BYTE PTR ds:[esi]
  4081c2:	inc    eax
  4081c3:	add    BYTE PTR [eax],al
  4081c5:	add    BYTE PTR [eax],al
  4081c7:	add    al,bh
  4081c9:	mov    al,ds:0xa33c0040
  4081ce:	inc    eax
  4081cf:	add    BYTE PTR [eax],al
  4081d1:	add    BYTE PTR [eax],al
  4081d3:	add    ah,dh
  4081d5:	mov    al,ds:0xa2f80040
  4081da:	inc    eax
  4081db:	add    BYTE PTR [eax],al
  4081dd:	add    BYTE PTR [eax],al
  4081df:	add    BYTE PTR [ebp-0x75],dl
  4081e2:	in     al,dx
  4081e3:	xor    eax,eax
  4081e5:	push   ebp
  4081e6:	push   0x408355
  4081eb:	push   DWORD PTR fs:[eax]
  4081ee:	mov    DWORD PTR fs:[eax],esp
  4081f1:	inc    DWORD PTR ds:0x40b78c
  4081f7:	jne    0x408347
  4081fd:	mov    eax,0x40b798
  408202:	call   0x407f00
  408207:	call   0x407e78
  40820c:	call   0x40760c
  408211:	mov    eax,0x40a1dc
  408216:	mov    ecx,0x16
  40821b:	mov    edx,DWORD PTR ds:0x4070dc
  408221:	call   0x403ed4
  408226:	mov    eax,0x40a1a4
  40822b:	mov    ecx,0x7
  408230:	mov    edx,DWORD PTR ds:0x40705c
  408236:	call   0x403ed4
  40823b:	mov    eax,0x40a0ec
  408240:	mov    ecx,0x2
  408245:	mov    edx,DWORD PTR ds:0x401000
  40824b:	call   0x403ed4
  408250:	mov    eax,0x40a0e4
  408255:	call   0x4039f4
  40825a:	mov    eax,0x40b788
  40825f:	mov    edx,DWORD PTR ds:0x405928
  408265:	call   0x403fec
  40826a:	mov    eax,0x40b784
  40826f:	mov    edx,DWORD PTR ds:0x405904
  408275:	call   0x403fec
  40827a:	mov    eax,0x40b74c
  40827f:	mov    ecx,0x7
  408284:	mov    edx,DWORD PTR ds:0x401000
  40828a:	call   0x403ed4
  40828f:	mov    eax,0x40b720
  408294:	mov    ecx,0x7
  408299:	mov    edx,DWORD PTR ds:0x401000
  40829f:	call   0x403ed4
  4082a4:	mov    eax,0x40b704
  4082a9:	mov    ecx,0x7
  4082ae:	mov    edx,DWORD PTR ds:0x401000
  4082b4:	call   0x403ed4
  4082b9:	mov    eax,0x40b6d4
  4082be:	mov    ecx,0xc
  4082c3:	mov    edx,DWORD PTR ds:0x401000
  4082c9:	call   0x403ed4
  4082ce:	mov    eax,0x40b6a4
  4082d3:	mov    ecx,0xc
  4082d8:	mov    edx,DWORD PTR ds:0x401000
  4082de:	call   0x403ed4
  4082e3:	mov    eax,0x40b6a0
  4082e8:	call   0x4039f4
  4082ed:	mov    eax,0x40b69c
  4082f2:	call   0x4039f4
  4082f7:	mov    eax,0x40b698
  4082fc:	call   0x4039f4
  408301:	mov    eax,0x40b694
  408306:	call   0x4039f4
  40830b:	mov    eax,0x40b68c
  408310:	call   0x4039f4
  408315:	mov    eax,0x40b688
  40831a:	call   0x4039f4
  40831f:	mov    eax,0x40b67c
  408324:	call   0x4039f4
  408329:	mov    eax,0x40a0c0
  40832e:	call   0x4039f4
  408333:	mov    eax,0x40a0ac
  408338:	call   0x403e4c
  40833d:	mov    eax,0x40a0a8
  408342:	call   0x4039f4
  408347:	xor    eax,eax
  408349:	pop    edx
  40834a:	pop    ecx
  40834b:	pop    ecx
  40834c:	mov    DWORD PTR fs:[eax],edx
  40834f:	push   0x40835c
  408354:	ret    
  408355:	jmp    0x4033f4
  40835a:	jmp    0x408354
  40835c:	pop    ebp
  40835d:	ret    
  40835e:	mov    eax,eax
  408360:	push   ebp
  408361:	mov    ebp,esp
  408363:	xor    eax,eax
  408365:	push   ebp
  408366:	push   0x4083c8
  40836b:	push   DWORD PTR fs:[eax]
  40836e:	mov    DWORD PTR fs:[eax],esp
  408371:	sub    DWORD PTR ds:0x40b78c,0x1
  408378:	jae    0x4083ba
  40837a:	mov    eax,0x407f10
  40837f:	call   0x403798
  408384:	mov    eax,0x407ffc
  408389:	call   0x4037c0
  40838e:	cmp    BYTE PTR ds:0x40b65d,0x0
  408395:	je     0x4083a6
  408397:	mov    eax,0x40a0e4
  40839c:	mov    edx,0x4083dc
  4083a1:	call   0x403a48
  4083a6:	call   0x407588
  4083ab:	call   0x40768c
  4083b0:	call   0x407ea4
  4083b5:	call   0x407b00
  4083ba:	xor    eax,eax
  4083bc:	pop    edx
  4083bd:	pop    ecx
  4083be:	pop    ecx
  4083bf:	mov    DWORD PTR fs:[eax],edx
  4083c2:	push   0x4083cf
  4083c7:	ret    
  4083c8:	jmp    0x4033f4
  4083cd:	jmp    0x4083c7
  4083cf:	pop    ebp
  4083d0:	ret    
  4083d1:	add    BYTE PTR [eax],al
  4083d3:	add    bh,bh
  4083d5:	(bad)  
  4083d6:	(bad)  
  4083d7:	inc    DWORD PTR [edx]
  4083d9:	add    BYTE PTR [eax],al
  4083db:	add    BYTE PTR [eax],dh
  4083dd:	js     0x4083df
  4083df:	add    BYTE PTR [ebp-0x75],dl
  4083e2:	in     al,dx
  4083e3:	xor    eax,eax
  4083e5:	push   ebp
  4083e6:	push   0x408405
  4083eb:	push   DWORD PTR fs:[eax]
  4083ee:	mov    DWORD PTR fs:[eax],esp
  4083f1:	inc    DWORD PTR ds:0x40b79c
  4083f7:	xor    eax,eax
  4083f9:	pop    edx
  4083fa:	pop    ecx
  4083fb:	pop    ecx
  4083fc:	mov    DWORD PTR fs:[eax],edx
  4083ff:	push   0x40840c
  408404:	ret    
  408405:	jmp    0x4033f4
  40840a:	jmp    0x408404
  40840c:	pop    ebp
  40840d:	ret    
  40840e:	mov    eax,eax
  408410:	sub    DWORD PTR ds:0x40b79c,0x1
  408417:	ret    
  408418:	push   ebp
  408419:	mov    ebp,esp
  40841b:	xor    eax,eax
  40841d:	push   ebp
  40841e:	push   0x40843d
  408423:	push   DWORD PTR fs:[eax]
  408426:	mov    DWORD PTR fs:[eax],esp
  408429:	inc    DWORD PTR ds:0x40b7a0
  40842f:	xor    eax,eax
  408431:	pop    edx
  408432:	pop    ecx
  408433:	pop    ecx
  408434:	mov    DWORD PTR fs:[eax],edx
  408437:	push   0x408444
  40843c:	ret    
  40843d:	jmp    0x4033f4
  408442:	jmp    0x40843c
  408444:	pop    ebp
  408445:	ret    
  408446:	mov    eax,eax
  408448:	sub    DWORD PTR ds:0x40b7a0,0x1
  40844f:	ret    
  408450:	jmp    DWORD PTR ds:0x40c208
  408456:	mov    eax,eax
  408458:	jmp    DWORD PTR ds:0x40c204
  40845e:	mov    eax,eax
  408460:	push   ebp
  408461:	mov    ebp,esp
  408463:	mov    ecx,0xd
  408468:	push   0x0
  40846a:	push   0x0
  40846c:	dec    ecx
  40846d:	jne    0x408468
  40846f:	push   ebx
  408470:	push   esi
  408471:	mov    esi,0x40b7a4
  408476:	xor    eax,eax
  408478:	push   ebp
  408479:	push   0x40882c
  40847e:	push   DWORD PTR fs:[eax]
  408481:	mov    DWORD PTR fs:[eax],esp
  408484:	lea    ecx,[ebp-0x4]
  408487:	mov    edx,0x408844
  40848c:	mov    eax,0x408854
  408491:	call   0x404b90
  408496:	mov    eax,DWORD PTR [ebp-0x4]
  408499:	call   0x403d50
  40849e:	push   eax
  40849f:	call   0x408450
  4084a4:	mov    ebx,eax
  4084a6:	lea    ecx,[ebp-0x8]
  4084a9:	mov    edx,0x408844
  4084ae:	mov    eax,0x408868
  4084b3:	call   0x404b90
  4084b8:	mov    eax,DWORD PTR [ebp-0x8]
  4084bb:	call   0x403d50
  4084c0:	push   eax
  4084c1:	push   ebx
  4084c2:	call   0x408458
  4084c7:	mov    DWORD PTR [esi],eax
  4084c9:	lea    ecx,[ebp-0xc]
  4084cc:	mov    edx,0x408844
  4084d1:	mov    eax,0x408880
  4084d6:	call   0x404b90
  4084db:	mov    eax,DWORD PTR [ebp-0xc]
  4084de:	call   0x403d50
  4084e3:	push   eax
  4084e4:	push   ebx
  4084e5:	call   DWORD PTR [esi]
  4084e7:	mov    ds:0x40b7a8,eax
  4084ec:	lea    ecx,[ebp-0x10]
  4084ef:	mov    edx,0x408844
  4084f4:	mov    eax,0x40889c
  4084f9:	call   0x404b90
  4084fe:	mov    eax,DWORD PTR [ebp-0x10]
  408501:	call   0x403d50
  408506:	push   eax
  408507:	push   ebx
  408508:	call   DWORD PTR [esi]
  40850a:	mov    ds:0x40b7ac,eax
  40850f:	lea    ecx,[ebp-0x14]
  408512:	mov    edx,0x408844
  408517:	mov    eax,0x4088b4
  40851c:	call   0x404b90
  408521:	mov    eax,DWORD PTR [ebp-0x14]
  408524:	call   0x403d50
  408529:	push   eax
  40852a:	push   ebx
  40852b:	call   DWORD PTR [esi]
  40852d:	mov    ds:0x40b7b0,eax
  408532:	lea    ecx,[ebp-0x18]
  408535:	mov    edx,0x408844
  40853a:	mov    eax,0x4088c8
  40853f:	call   0x404b90
  408544:	mov    eax,DWORD PTR [ebp-0x18]
  408547:	call   0x403d50
  40854c:	push   eax
  40854d:	push   ebx
  40854e:	call   DWORD PTR [esi]
  408550:	mov    ds:0x40b7b4,eax
  408555:	lea    ecx,[ebp-0x1c]
  408558:	mov    edx,0x408844
  40855d:	mov    eax,0x4088e4
  408562:	call   0x404b90
  408567:	mov    eax,DWORD PTR [ebp-0x1c]
  40856a:	call   0x403d50
  40856f:	push   eax
  408570:	push   ebx
  408571:	call   DWORD PTR [esi]
  408573:	mov    ds:0x40b7b8,eax
  408578:	lea    ecx,[ebp-0x20]
  40857b:	mov    edx,0x408844
  408580:	mov    eax,0x4088fc
  408585:	call   0x404b90
  40858a:	mov    eax,DWORD PTR [ebp-0x20]
  40858d:	call   0x403d50
  408592:	push   eax
  408593:	push   ebx
  408594:	call   DWORD PTR [esi]
  408596:	mov    ds:0x40b7bc,eax
  40859b:	lea    ecx,[ebp-0x24]
  40859e:	mov    edx,0x408844
  4085a3:	mov    eax,0x408914
  4085a8:	call   0x404b90
  4085ad:	mov    eax,DWORD PTR [ebp-0x24]
  4085b0:	call   0x403d50
  4085b5:	push   eax
  4085b6:	push   ebx
  4085b7:	call   DWORD PTR [esi]
  4085b9:	mov    ds:0x40b7c0,eax
  4085be:	lea    ecx,[ebp-0x28]
  4085c1:	mov    edx,0x408844
  4085c6:	mov    eax,0x40892c
  4085cb:	call   0x404b90
  4085d0:	mov    eax,DWORD PTR [ebp-0x28]
  4085d3:	call   0x403d50
  4085d8:	push   eax
  4085d9:	push   ebx
  4085da:	call   DWORD PTR [esi]
  4085dc:	mov    ds:0x40b7c4,eax
  4085e1:	lea    ecx,[ebp-0x2c]
  4085e4:	mov    edx,0x408844
  4085e9:	mov    eax,0x408944
  4085ee:	call   0x404b90
  4085f3:	mov    eax,DWORD PTR [ebp-0x2c]
  4085f6:	call   0x403d50
  4085fb:	push   eax
  4085fc:	push   ebx
  4085fd:	call   DWORD PTR [esi]
  4085ff:	mov    ds:0x40b7dc,eax
  408604:	lea    ecx,[ebp-0x30]
  408607:	mov    edx,0x408844
  40860c:	mov    eax,0x40895c
  408611:	call   0x404b90
  408616:	mov    eax,DWORD PTR [ebp-0x30]
  408619:	call   0x403d50
  40861e:	push   eax
  40861f:	push   ebx
  408620:	call   DWORD PTR [esi]
  408622:	mov    ds:0x40b7e0,eax
  408627:	lea    ecx,[ebp-0x34]
  40862a:	mov    edx,0x408844
  40862f:	mov    eax,0x408974
  408634:	call   0x404b90
  408639:	mov    eax,DWORD PTR [ebp-0x34]
  40863c:	call   0x403d50
  408641:	push   eax
  408642:	push   ebx
  408643:	call   DWORD PTR [esi]
  408645:	mov    ds:0x40b7e4,eax
  40864a:	lea    ecx,[ebp-0x38]
  40864d:	mov    edx,0x408844
  408652:	mov    eax,0x40898c
  408657:	call   0x404b90
  40865c:	mov    eax,DWORD PTR [ebp-0x38]
  40865f:	call   0x403d50
  408664:	push   eax
  408665:	push   ebx
  408666:	call   DWORD PTR [esi]
  408668:	mov    ds:0x40b7e8,eax
  40866d:	lea    ecx,[ebp-0x3c]
  408670:	mov    edx,0x408844
  408675:	mov    eax,0x4089a4
  40867a:	call   0x404b90
  40867f:	mov    eax,DWORD PTR [ebp-0x3c]
  408682:	call   0x403d50
  408687:	push   eax
  408688:	push   ebx
  408689:	call   DWORD PTR [esi]
  40868b:	mov    ds:0x40b7d4,eax
  408690:	lea    ecx,[ebp-0x40]
  408693:	mov    edx,0x408844
  408698:	mov    eax,0x4089b8
  40869d:	call   0x404b90
  4086a2:	mov    eax,DWORD PTR [ebp-0x40]
  4086a5:	call   0x403d50
  4086aa:	push   eax
  4086ab:	push   ebx
  4086ac:	call   DWORD PTR [esi]
  4086ae:	mov    ds:0x40b7ec,eax
  4086b3:	lea    ecx,[ebp-0x44]
  4086b6:	mov    edx,0x408844
  4086bb:	mov    eax,0x4089d4
  4086c0:	call   0x404b90
  4086c5:	mov    eax,DWORD PTR [ebp-0x44]
  4086c8:	call   0x403d50
  4086cd:	push   eax
  4086ce:	push   ebx
  4086cf:	call   DWORD PTR [esi]
  4086d1:	mov    ds:0x40b7f0,eax
  4086d6:	lea    ecx,[ebp-0x48]
  4086d9:	mov    edx,0x408844
  4086de:	mov    eax,0x4089f0
  4086e3:	call   0x404b90
  4086e8:	mov    eax,DWORD PTR [ebp-0x48]
  4086eb:	call   0x403d50
  4086f0:	push   eax
  4086f1:	push   ebx
  4086f2:	call   DWORD PTR [esi]
  4086f4:	mov    ds:0x40b7f4,eax
  4086f9:	lea    ecx,[ebp-0x4c]
  4086fc:	mov    edx,0x408844
  408701:	mov    eax,0x408a0c
  408706:	call   0x404b90
  40870b:	mov    eax,DWORD PTR [ebp-0x4c]
  40870e:	call   0x403d50
  408713:	push   eax
  408714:	push   ebx
  408715:	call   DWORD PTR [esi]
  408717:	mov    ds:0x40b7f8,eax
  40871c:	lea    ecx,[ebp-0x50]
  40871f:	mov    edx,0x408844
  408724:	mov    eax,0x408a28
  408729:	call   0x404b90
  40872e:	mov    eax,DWORD PTR [ebp-0x50]
  408731:	call   0x403d50
  408736:	push   eax
  408737:	push   ebx
  408738:	call   DWORD PTR [esi]
  40873a:	mov    ds:0x40b7fc,eax
  40873f:	lea    ecx,[ebp-0x54]
  408742:	mov    edx,0x408844
  408747:	mov    eax,0x408a44
  40874c:	call   0x404b90
  408751:	mov    eax,DWORD PTR [ebp-0x54]
  408754:	call   0x403d50
  408759:	push   eax
  40875a:	push   ebx
  40875b:	call   DWORD PTR [esi]
  40875d:	mov    ds:0x40b800,eax
  408762:	lea    ecx,[ebp-0x58]
  408765:	mov    edx,0x408844
  40876a:	mov    eax,0x408a5c
  40876f:	call   0x404b90
  408774:	mov    eax,DWORD PTR [ebp-0x58]
  408777:	call   0x403d50
  40877c:	push   eax
  40877d:	call   DWORD PTR ds:0x40b7a8
  408783:	mov    ebx,eax
  408785:	lea    ecx,[ebp-0x5c]
  408788:	mov    edx,0x408844
  40878d:	mov    eax,0x408a6c
  408792:	call   0x404b90
  408797:	mov    eax,DWORD PTR [ebp-0x5c]
  40879a:	call   0x403d50
  40879f:	push   eax
  4087a0:	push   ebx
  4087a1:	call   DWORD PTR [esi]
  4087a3:	mov    ds:0x40b7c8,eax
  4087a8:	lea    ecx,[ebp-0x60]
  4087ab:	mov    edx,0x408844
  4087b0:	mov    eax,0x408a94
  4087b5:	call   0x404b90
  4087ba:	mov    eax,DWORD PTR [ebp-0x60]
  4087bd:	call   0x403d50
  4087c2:	push   eax
  4087c3:	push   ebx
  4087c4:	call   DWORD PTR [esi]
  4087c6:	mov    ds:0x40b7cc,eax
  4087cb:	lea    ecx,[ebp-0x64]
  4087ce:	mov    edx,0x408844
  4087d3:	mov    eax,0x408ab0
  4087d8:	call   0x404b90
  4087dd:	mov    eax,DWORD PTR [ebp-0x64]
  4087e0:	call   0x403d50
  4087e5:	push   eax
  4087e6:	push   ebx
  4087e7:	call   DWORD PTR [esi]
  4087e9:	mov    ds:0x40b7d0,eax
  4087ee:	lea    ecx,[ebp-0x68]
  4087f1:	mov    edx,0x408844
  4087f6:	mov    eax,0x408ad0
  4087fb:	call   0x404b90
  408800:	mov    eax,DWORD PTR [ebp-0x68]
  408803:	call   0x403d50
  408808:	push   eax
  408809:	push   ebx
  40880a:	call   DWORD PTR [esi]
  40880c:	mov    ds:0x40b7d8,eax
  408811:	xor    eax,eax
  408813:	pop    edx
  408814:	pop    ecx
  408815:	pop    ecx
  408816:	mov    DWORD PTR fs:[eax],edx
  408819:	push   0x408833
  40881e:	lea    eax,[ebp-0x68]
  408821:	mov    edx,0x1a
  408826:	call   0x403a18
  40882b:	ret    
  40882c:	jmp    0x4033f4
  408831:	jmp    0x40881e
  408833:	pop    esi
  408834:	pop    ebx
  408835:	mov    esp,ebp
  408837:	pop    ebp
  408838:	ret    
  408839:	add    BYTE PTR [eax],al
  40883b:	add    bh,bh
  40883d:	(bad)  
  40883e:	(bad)  
  40883f:	inc    DWORD PTR [esi]
  408841:	add    BYTE PTR [eax],al
  408843:	add    BYTE PTR [ebx+esi*1],dh
  408846:	cmp    BYTE PTR [esi],dh
  408848:	aaa    
  408849:	xor    al,0x0
  40884b:	add    bh,bh
  40884d:	(bad)  
  40884e:	(bad)  
  40884f:	dec    DWORD PTR [eax]
  408851:	add    BYTE PTR [eax],al
  408853:	add    BYTE PTR [edi+0x56],bh
  408856:	dec    edx
  408857:	pop    eax
  408858:	push   edx
  408859:	pop    eax
  40885a:	pop    es
  40885b:	add    DWORD PTR [eax],eax
  40885d:	add    BYTE PTR [eax],al
  40885f:	add    bh,bh
  408861:	(bad)  
  408862:	(bad)  
  408863:	dec    DWORD PTR [esi]
  408865:	add    BYTE PTR [eax],al
  408867:	add    BYTE PTR [ebx+0x56],dh
  40886a:	dec    esp
  40886b:	inc    bp
  40886d:	pop    ebx
  40886e:	push   edi
  40886f:	jb     0x4088cd
  408871:	push   edx
  408872:	inc    ebp
  408873:	push   ecx
  408874:	inc    edi
  408875:	inc    eax
  408876:	add    BYTE PTR [eax],al
  408878:	(bad)  
  408879:	(bad)  
  40887a:	(bad)  
  40887b:	call   DWORD PTR [eax]
  40887d:	add    BYTE PTR [eax],al
  40887f:	add    BYTE PTR [ebx+0x56],dh
  408882:	dec    esp
  408883:	jnp    0x4088dd
  408885:	push   eax
  408886:	inc    ecx
  408887:	pop    edi
  408888:	pop    ebp
  408889:	jle    0x4088e1
  40888b:	pop    edx
  40888c:	push   eax
  40888d:	pop    edi
  40888e:	pop    ebp
  40888f:	ja     0x408891
  408891:	add    BYTE PTR [eax],al
  408893:	add    bh,bh
  408895:	(bad)  
  408896:	(bad)  
  408897:	dec    DWORD PTR [eax+eax*1]
  40889a:	add    BYTE PTR [eax],al
  40889c:	js     0x4088fa
  40889e:	pop    ecx
  40889f:	push   edx
  4088a0:	jnp    0x4088ff
  4088a2:	push   esi
  4088a3:	inc    ecx
  4088a4:	pop    ecx
  4088a5:	inc    esp
  4088a6:	dec    esi
  4088a7:	jne    0x4088a9
  4088a9:	add    BYTE PTR [eax],al
  4088ab:	add    bh,bh
  4088ad:	(bad)  
  4088ae:	(bad)  
  4088af:	dec    DWORD PTR [ebx]
  4088b1:	add    BYTE PTR [eax],al
  4088b3:	add    BYTE PTR [ecx+0x4b],dh
  4088b6:	push   ecx
  4088b7:	inc    edx
  4088b8:	addr16 inc esi
  4088ba:	pop    ebx
  4088bb:	push   eax
  4088bc:	pop    ebp
  4088bd:	inc    ebp
  4088be:	inc    esp
  4088bf:	add    bh,bh
  4088c1:	(bad)  
  4088c2:	(bad)  
  4088c3:	call   DWORD PTR [edx]
  4088c5:	add    BYTE PTR [eax],al
  4088c7:	add    BYTE PTR [ebx+0x56],dh
  4088ca:	dec    esp
  4088cb:	jnp    0x408925
  4088cd:	push   eax
  4088ce:	inc    ecx
  4088cf:	pop    edi
  4088d0:	pop    ebp
  4088d1:	jo     0x408931
  4088d3:	pop    eax
  4088d4:	push   ecx
  4088d5:	jge    0x408930
  4088d7:	pop    ebx
  4088d8:	push   edx
  4088d9:	jne    0x4088db
  4088db:	add    bh,bh
  4088dd:	(bad)  
  4088de:	(bad)  
  4088df:	dec    DWORD PTR ds:0x72000000
  4088e5:	pop    edx
  4088e6:	push   esi
  4088e7:	push   edx
  4088e8:	gs push ecx
  4088ea:	inc    edi
  4088eb:	pop    esp
  4088ec:	dec    ebp
  4088ed:	inc    esp
  4088ee:	push   esp
  4088ef:	push   ecx
  4088f0:	jne    0x4088f2
  4088f2:	add    BYTE PTR [eax],al
  4088f4:	(bad)  
  4088f5:	(bad)  
  4088f6:	(bad)  
  4088f7:	dec    DWORD PTR [esi]
  4088f9:	add    BYTE PTR [eax],al
  4088fb:	add    BYTE PTR [edi+0x5a],ah
  4088fe:	inc    edx
  4088ff:	push   ebx
  408900:	pop    eax
  408901:	push   edx
  408902:	push   si
  408904:	dec    ebx
  408905:	pop    ecx
  408906:	inc    edx
  408907:	inc    esi
  408908:	push   edi
  408909:	push   esi
  40890a:	add    BYTE PTR [eax],al
  40890c:	(bad)  
  40890d:	(bad)  
  40890e:	(bad)  
  40890f:	dec    DWORD PTR [eax+eax*1]
  408912:	add    BYTE PTR [eax],al
  408914:	js     0x408972
  408916:	pop    ecx
  408917:	push   edx
  408918:	gs push ecx
  40891a:	inc    edi
  40891b:	pop    esp
  40891c:	dec    ebp
  40891d:	inc    esp
  40891e:	push   esp
  40891f:	push   ecx
  408920:	add    BYTE PTR [eax],al
  408922:	add    BYTE PTR [eax],al
  408924:	(bad)  
  408925:	(bad)  
  408926:	(bad)  
  408927:	dec    DWORD PTR [eax+eax*1]
  40892a:	add    BYTE PTR [eax],al
  40892c:	js     0x40898a
  40892e:	pop    ebx
  40892f:	pop    ebp
  408930:	gs push ecx
  408932:	inc    edi
  408933:	pop    esp
  408934:	dec    ebp
  408935:	inc    esp
  408936:	push   esp
  408937:	push   ecx
  408938:	add    BYTE PTR [eax],al
  40893a:	add    BYTE PTR [eax],al
  40893c:	(bad)  
  40893d:	(bad)  
  40893e:	(bad)  
  40893f:	dec    DWORD PTR ds:0x66000000
  408945:	inc    edi
  408946:	push   esp
  408947:	jnp    0x4089a1
  408949:	inc    edx
  40894a:	push   ecx
  40894b:	jle    0x4089aa
  40894d:	pop    ebx
  40894e:	pop    eax
  40894f:	inc    esi
  408950:	dec    ebp
  408951:	add    BYTE PTR [eax],al
  408953:	add    bh,bh
  408955:	(bad)  
  408956:	(bad)  
  408957:	dec    DWORD PTR [esi]
  408959:	add    BYTE PTR [eax],al
  40895b:	add    BYTE PTR [edi+0x41],dh
  40895e:	pop    ebp
  40895f:	push   edi
  408960:	inc    ebx
  408961:	push   ecx
  408962:	fs inc ecx
  408964:	push   edi
  408965:	push   ebp
  408966:	push   edx
  408967:	inc    edi
  408968:	inc    edi
  408969:	jb     0x40896b
  40896b:	add    bh,bh
  40896d:	(bad)  
  40896e:	(bad)  
  40896f:	dec    DWORD PTR [esi]
  408971:	add    BYTE PTR [eax],al
  408973:	add    BYTE PTR [edx+0x5a],ah
  408976:	dec    edx
  408977:	inc    edx
  408978:	inc    edx
  408979:	push   ebp
  40897a:	pop    eax
  40897b:	jb     0x4089d1
  40897d:	pop    edx
  40897e:	pop    eax
  40897f:	push   edi
  408980:	jno    0x4089cd
  408982:	add    BYTE PTR [eax],al
  408984:	(bad)  
  408985:	(bad)  
  408986:	(bad)  
  408987:	dec    DWORD PTR [eax+eax*1]
  40898a:	add    BYTE PTR [eax],al
  40898c:	bound  ebx,QWORD PTR [edx+0x4a]
  40898f:	inc    edx
  408990:	inc    edx
  408991:	push   ebp
  408992:	pop    eax
  408993:	jb     0x4089e9
  408995:	pop    edx
  408996:	pop    eax
  408997:	push   edi
  408998:	add    BYTE PTR [eax],al
  40899a:	add    BYTE PTR [eax],al
  40899c:	(bad)  
  40899d:	(bad)  
  40899e:	(bad)  
  40899f:	dec    DWORD PTR [ebx]
  4089a1:	add    BYTE PTR [eax],al
  4089a3:	add    BYTE PTR [edx+0x5a],ah
  4089a6:	dec    edx
  4089a7:	inc    edx
  4089a8:	inc    edx
  4089a9:	push   ebp
  4089aa:	pop    eax
  4089ab:	jne    0x4089f7
  4089ad:	push   ebx
  4089ae:	push   edx
  4089af:	add    bh,bh
  4089b1:	(bad)  
  4089b2:	(bad)  
  4089b3:	call   DWORD PTR [eax]
  4089b5:	add    BYTE PTR [eax],al
  4089b7:	add    BYTE PTR [ebx+0x56],dh
  4089ba:	dec    esp
  4089bb:	bound  ebx,QWORD PTR [edi+0x46]
  4089be:	push   ecx
  4089bf:	push   edx
  4089c0:	pop    esp
  4089c1:	jne    0x408a1b
  4089c3:	pop    edx
  4089c4:	inc    eax
  4089c5:	push   esi
  4089c6:	inc    eax
  4089c7:	inc    edx
  4089c8:	add    BYTE PTR [eax],al
  4089ca:	add    BYTE PTR [eax],al
  4089cc:	(bad)  
  4089cd:	(bad)  
  4089ce:	(bad)  
  4089cf:	call   DWORD PTR [ecx]
  4089d1:	add    BYTE PTR [eax],al
  4089d3:	add    BYTE PTR [esi+0x56],ah
  4089d6:	pop    ecx
  4089d7:	push   edx
  4089d8:	addr16 inc esi
  4089da:	pop    ebx
  4089db:	push   eax
  4089dc:	pop    ebp
  4089dd:	inc    ebp
  4089de:	inc    esp
  4089df:	jns    0x408a32
  4089e1:	pop    esi
  4089e2:	push   edi
  4089e3:	inc    esp
  4089e4:	dec    esi
  4089e5:	add    BYTE PTR [eax],al
  4089e7:	add    bh,bh
  4089e9:	(bad)  
  4089ea:	(bad)  
  4089eb:	call   DWORD PTR [edx]
  4089ed:	add    BYTE PTR [eax],al
  4089ef:	add    BYTE PTR [ebx+0x41],ah
  4089f2:	push   ecx
  4089f3:	inc    edx
  4089f4:	push   edx
  4089f5:	fs inc esi
  4089f7:	pop    esp
  4089f8:	pop    ebx
  4089f9:	push   ebx
  4089fa:	inc    esp
  4089fb:	inc    edi
  4089fc:	jns    0x408a54
  4089fe:	push   ebp
  4089ff:	pop    ecx
  408a00:	inc    ebp
  408a01:	dec    ebp
  408a02:	add    BYTE PTR [eax],al
  408a04:	(bad)  
  408a05:	(bad)  
  408a06:	(bad)  
  408a07:	call   DWORD PTR [eax]
  408a09:	add    BYTE PTR [eax],al
  408a0b:	add    BYTE PTR [edx+0x5a],ah
  408a0e:	dec    edx
  408a0f:	inc    edx
  408a10:	inc    edx
  408a11:	push   ebp
  408a12:	pop    eax
  408a13:	arpl   WORD PTR [edx+0x59],cx
  408a16:	inc    ebx
  408a17:	push   ecx
  408a18:	push   edi
  408a19:	inc    edi
  408a1a:	jge    0x408a6a
  408a1c:	add    BYTE PTR [eax],al
  408a1e:	add    BYTE PTR [eax],al
  408a20:	(bad)  
  408a21:	(bad)  
  408a22:	(bad)  
  408a23:	call   DWORD PTR [eax]
  408a25:	add    BYTE PTR [eax],al
  408a27:	add    BYTE PTR [edi+0x56],ah
  408a2a:	dec    esp
  408a2b:	bound  ebx,QWORD PTR [edi+0x46]
  408a2e:	push   ecx
  408a2f:	push   edx
  408a30:	pop    esp
  408a31:	jne    0x408a8b
  408a33:	pop    edx
  408a34:	inc    eax
  408a35:	push   esi
  408a36:	inc    eax
  408a37:	inc    edx
  408a38:	add    BYTE PTR [eax],al
  408a3a:	add    BYTE PTR [eax],al
  408a3c:	(bad)  
  408a3d:	(bad)  
  408a3e:	(bad)  
  408a3f:	dec    DWORD PTR [eax+eax*1]
  408a42:	add    BYTE PTR [eax],al
  408a44:	push   si
  408a46:	dec    ebx
  408a47:	inc    ebx
  408a48:	pop    edx
  408a49:	push   ecx
  408a4a:	pusha  
  408a4b:	pop    ebx
  408a4c:	dec    edx
  408a4d:	push   ebx
  408a4e:	push   esi
  408a4f:	push   eax
  408a50:	add    BYTE PTR [eax],al
  408a52:	add    BYTE PTR [eax],al
  408a54:	(bad)  
  408a55:	(bad)  
  408a56:	(bad)  
  408a57:	inc    DWORD PTR ds:0x7a000000
  408a5d:	inc    edi
  408a5e:	pop    esp
  408a5f:	pop    edx
  408a60:	pop    ebx
  408a61:	add    BYTE PTR [eax],al
  408a63:	add    bh,bh
  408a65:	(bad)  
  408a66:	(bad)  
  408a67:	call   FWORD PTR [esi]
  408a69:	add    BYTE PTR [eax],al
  408a6b:	add    BYTE PTR [esi+0x47],ah
  408a6e:	push   esp
  408a6f:	jno    0x408ac3
  408a71:	inc    eax
  408a72:	ja     0x408ad0
  408a74:	push   ebp
  408a75:	inc    esi
  408a76:	inc    ebp
  408a77:	push   ecx
  408a78:	inc    edi
  408a79:	inc    eax
  408a7a:	push   ecx
  408a7b:	pop    ecx
  408a7c:	pop    ecx
  408a7d:	arpl   WORD PTR [ebx+0x41],bx
  408a80:	push   ebx
  408a81:	gs inc edi
  408a83:	push   ebp
  408a84:	push   edi
  408a85:	push   esi
  408a86:	imul   ebx,DWORD PTR [edi+0x4d],0x51
  408a8a:	add    BYTE PTR [eax],al
  408a8c:	(bad)  
  408a8d:	(bad)  
  408a8e:	(bad)  
  408a8f:	call   DWORD PTR [ecx]
  408a91:	add    BYTE PTR [eax],al
  408a93:	add    BYTE PTR [esi+0x47],ah
  408a96:	push   esp
  408a97:	jne    0x408af1
  408a99:	pop    ecx
  408a9a:	inc    esp
  408a9b:	inc    ecx
  408a9c:	pop    ebp
  408a9d:	inc    ebp
  408a9e:	inc    esp
  408a9f:	jbe    0x408ae2
  408aa1:	push   ebp
  408aa2:	pop    esi
  408aa3:	push   ebx
  408aa4:	inc    ebp
  408aa5:	add    BYTE PTR [eax],al
  408aa7:	add    bh,bh
  408aa9:	(bad)  
  408aaa:	(bad)  
  408aab:	call   DWORD PTR ds:0x66000000
  408ab1:	inc    edi
  408ab2:	push   esp
  408ab3:	jb     0x408b07
  408ab5:	push   edi
  408ab6:	pop    ebx
  408ab7:	pop    esi
  408ab8:	dec    eax
  408ab9:	inc    esp
  408aba:	push   edx
  408abb:	inc    edi
  408abc:	inc    edi
  408abd:	jne    0x408b09
  408abf:	push   edi
  408ac0:	push   eax
  408ac1:	pop    ecx
  408ac2:	push   ecx
  408ac3:	pop    ebp
  408ac4:	dec    esp
  408ac5:	add    BYTE PTR [eax],al
  408ac7:	add    bh,bh
  408ac9:	(bad)  
  408aca:	(bad)  
  408acb:	call   DWORD PTR [eax+eax*1]
  408ace:	add    BYTE PTR [eax],al
  408ad0:	jp     0x408b19
  408ad2:	ins    DWORD PTR es:[edi],dx
  408ad3:	pop    eax
  408ad4:	pop    edx
  408ad5:	push   ebp
  408ad6:	inc    esp
  408ad7:	gs push ecx
  408ad9:	push   ebx
  408ada:	inc    eax
  408adb:	jnp    0x408b2f
  408add:	pusha  
  408ade:	pop    ebp
  408adf:	push   ebp
  408ae0:	inc    ebx
  408ae1:	pop    ebp
  408ae2:	pop    ebx
  408ae3:	pop    ebp
  408ae4:	add    BYTE PTR [eax],al
  408ae6:	add    BYTE PTR [eax],al
  408ae8:	push   ebp
  408ae9:	mov    ebp,esp
  408aeb:	xor    eax,eax
  408aed:	push   ebp
  408aee:	push   0x408b0d
  408af3:	push   DWORD PTR fs:[eax]
  408af6:	mov    DWORD PTR fs:[eax],esp
  408af9:	inc    DWORD PTR ds:0x40b804
  408aff:	xor    eax,eax
  408b01:	pop    edx
  408b02:	pop    ecx
  408b03:	pop    ecx
  408b04:	mov    DWORD PTR fs:[eax],edx
  408b07:	push   0x408b14
  408b0c:	ret    
  408b0d:	jmp    0x4033f4
  408b12:	jmp    0x408b0c
  408b14:	pop    ebp
  408b15:	ret    
  408b16:	mov    eax,eax
  408b18:	sub    DWORD PTR ds:0x40b804,0x1
  408b1f:	ret    
  408b20:	push   ebp
  408b21:	mov    ebp,esp
  408b23:	add    esp,0xffffffd4
  408b26:	push   ebx
  408b27:	push   esi
  408b28:	push   edi
  408b29:	mov    eax,DWORD PTR [ebp+0xc]
  408b2c:	mov    edx,DWORD PTR [ebp+0x8]
  408b2f:	mov    DWORD PTR [ebp-0x8],edx
  408b32:	mov    BYTE PTR [ebp-0x21],0x0
  408b36:	cmp    DWORD PTR [eax+0xa4],0x0
  408b3d:	jbe    0x408c10
  408b43:	mov    eax,DWORD PTR [eax+0xa0]
  408b49:	add    eax,DWORD PTR [ebp-0x8]
  408b4c:	mov    DWORD PTR [ebp-0xc],eax
  408b4f:	jmp    0x408c04
  408b54:	mov    eax,DWORD PTR [ebp-0xc]
  408b57:	mov    eax,DWORD PTR [eax]
  408b59:	add    eax,DWORD PTR [ebp-0x8]
  408b5c:	mov    DWORD PTR [ebp-0x10],eax
  408b5f:	mov    eax,DWORD PTR [ebp-0xc]
  408b62:	add    eax,0x8
  408b65:	mov    DWORD PTR [ebp-0x14],eax
  408b68:	mov    ebx,0x14d
  408b6d:	cmp    ebx,0x1bc
  408b73:	jle    0x408b7b
  408b75:	jmp    0x408b84
  408b77:	mov    BYTE PTR [ebp-0x21],0x1
  408b7b:	inc    ebx
  408b7c:	cmp    ebx,0x22c
  408b82:	jne    0x408b6d
  408b84:	mov    eax,DWORD PTR [ebp-0xc]
  408b87:	mov    eax,DWORD PTR [eax+0x4]
  408b8a:	sub    eax,0x8
  408b8d:	mov    DWORD PTR [ebp-0x2c],eax
  408b90:	xor    eax,eax
  408b92:	mov    DWORD PTR [ebp-0x28],eax
  408b95:	fild   QWORD PTR [ebp-0x2c]
  408b98:	fdiv   DWORD PTR ds:0x408c1c
  408b9e:	call   0x402a10
  408ba3:	mov    esi,eax
  408ba5:	dec    esi
  408ba6:	test   esi,esi
  408ba8:	jb     0x408bf8
  408baa:	inc    esi
  408bab:	cmp    BYTE PTR [ebp-0x21],0x0
  408baf:	jne    0x408bb8
  408bb1:	mov    edi,0xc
  408bb6:	jmp    0x408bbd
  408bb8:	mov    edi,0xc
  408bbd:	mov    ecx,edi
  408bbf:	mov    eax,DWORD PTR [ebp-0x14]
  408bc2:	movzx  eax,WORD PTR [eax]
  408bc5:	shr    eax,cl
  408bc7:	mov    DWORD PTR [ebp-0x1c],eax
  408bca:	mov    eax,DWORD PTR [ebp-0x14]
  408bcd:	mov    ax,WORD PTR [eax]
  408bd0:	and    ax,0xfff
  408bd4:	movzx  eax,ax
  408bd7:	mov    DWORD PTR [ebp-0x20],eax
  408bda:	cmp    DWORD PTR [ebp-0x1c],0x3
  408bde:	jne    0x408bf1
  408be0:	mov    eax,DWORD PTR [ebp-0x10]
  408be3:	add    eax,DWORD PTR [ebp-0x20]
  408be6:	mov    DWORD PTR [ebp-0x18],eax
  408be9:	mov    eax,DWORD PTR [ebp-0x18]
  408bec:	mov    edx,DWORD PTR [ebp+0x10]
  408bef:	add    DWORD PTR [eax],edx
  408bf1:	add    DWORD PTR [ebp-0x14],0x2
  408bf5:	dec    esi
  408bf6:	jne    0x408bab
  408bf8:	mov    eax,DWORD PTR [ebp-0xc]
  408bfb:	mov    eax,DWORD PTR [eax+0x4]
  408bfe:	add    eax,DWORD PTR [ebp-0xc]
  408c01:	mov    DWORD PTR [ebp-0xc],eax
  408c04:	mov    eax,DWORD PTR [ebp-0xc]
  408c07:	cmp    DWORD PTR [eax],0x0
  408c0a:	ja     0x408b54
  408c10:	pop    edi
  408c11:	pop    esi
  408c12:	pop    ebx
  408c13:	mov    esp,ebp
  408c15:	pop    ebp
  408c16:	ret    0xc
  408c19:	add    BYTE PTR [eax],al
  408c1b:	add    BYTE PTR [eax],al
  408c1d:	add    BYTE PTR [eax],al
  408c1f:	inc    eax
  408c20:	push   ebx
  408c21:	push   esi
  408c22:	push   edi
  408c23:	add    esp,0xfffffff0
  408c26:	mov    ebx,eax
  408c28:	mov    DWORD PTR [esp+0x4],ebx
  408c2c:	mov    eax,DWORD PTR [esp+0x4]
  408c30:	mov    eax,DWORD PTR [eax+0x3c]
  408c33:	add    eax,ebx
  408c35:	mov    DWORD PTR [esp+0x8],eax
  408c39:	mov    eax,DWORD PTR [esp+0x8]
  408c3d:	mov    eax,DWORD PTR [eax+0x50]
  408c40:	call   0x402864
  408c45:	mov    DWORD PTR [esp],eax
  408c48:	mov    eax,DWORD PTR [esp+0x8]
  408c4c:	mov    edx,DWORD PTR [eax+0x50]
  408c4f:	mov    eax,DWORD PTR [esp]
  408c52:	call   0x404abc
  408c57:	mov    eax,DWORD PTR [esp+0x8]
  408c5b:	mov    ecx,DWORD PTR [eax+0x54]
  408c5e:	mov    edx,ebx
  408c60:	mov    eax,DWORD PTR [esp]
  408c63:	call   0x404ab4
  408c68:	mov    eax,DWORD PTR [esp+0x8]
  408c6c:	mov    di,WORD PTR [eax+0x6]
  408c70:	dec    edi
  408c71:	test   di,di
  408c74:	jb     0x408cd0
  408c76:	inc    edi
  408c77:	xor    esi,esi
  408c79:	mov    eax,0x12c
  408c7e:	cmp    eax,0x258
  408c83:	jle    0x408ca3
  408c85:	mov    edx,DWORD PTR [esp+0x4]
  408c89:	mov    edx,DWORD PTR [edx+0x3c]
  408c8c:	add    edx,ebx
  408c8e:	add    edx,0xf8
  408c94:	movzx  ecx,si
  408c97:	shl    ecx,0x3
  408c9a:	lea    ecx,[ecx+ecx*4]
  408c9d:	add    edx,ecx
  408c9f:	mov    DWORD PTR [esp+0xc],edx
  408ca3:	inc    eax
  408ca4:	cmp    eax,0x321
  408ca9:	jne    0x408c7e
  408cab:	mov    eax,DWORD PTR [esp+0xc]
  408caf:	mov    ecx,DWORD PTR [eax+0x10]
  408cb2:	mov    eax,DWORD PTR [esp+0xc]
  408cb6:	mov    edx,DWORD PTR [eax+0x14]
  408cb9:	add    edx,ebx
  408cbb:	mov    eax,DWORD PTR [esp+0xc]
  408cbf:	mov    eax,DWORD PTR [eax+0xc]
  408cc2:	add    eax,DWORD PTR [esp]
  408cc5:	call   0x404ab4
  408cca:	inc    esi
  408ccb:	dec    di
  408cce:	jne    0x408c79
  408cd0:	mov    eax,DWORD PTR [esp]
  408cd3:	add    esp,0x10
  408cd6:	pop    edi
  408cd7:	pop    esi
  408cd8:	pop    ebx
  408cd9:	ret    
  408cda:	mov    eax,eax
  408cdc:	push   ebx
  408cdd:	push   ecx
  408cde:	mov    ebx,eax
  408ce0:	push   0x4
  408ce2:	push   0x1000
  408ce7:	push   0xd0
  408cec:	push   0x0
  408cee:	mov    eax,ds:0x40a368
  408cf3:	mov    eax,DWORD PTR [eax]
  408cf5:	call   eax
  408cf7:	mov    DWORD PTR [ebx],eax
  408cf9:	mov    eax,DWORD PTR [ebx]
  408cfb:	mov    DWORD PTR [esp],eax
  408cfe:	cmp    DWORD PTR [ebx],0x0
  408d01:	je     0x408d15
  408d03:	jmp    0x408d09
  408d05:	inc    eax
  408d06:	mov    DWORD PTR [esp],eax
  408d09:	mov    eax,DWORD PTR [esp]
  408d0c:	mov    edx,eax
  408d0e:	and    edx,0x3
  408d11:	test   edx,edx
  408d13:	jne    0x408d05
  408d15:	mov    eax,DWORD PTR [esp]
  408d18:	pop    edx
  408d19:	pop    ebx
  408d1a:	ret    
  408d1b:	nop
  408d1c:	push   0x40b878
  408d21:	push   0x4
  408d23:	push   0x40b870
  408d28:	mov    eax,ds:0x40b860
  408d2d:	mov    eax,DWORD PTR [eax+0xa4]
  408d33:	add    eax,0x8
  408d36:	push   eax
  408d37:	mov    eax,ds:0x40b80c
  408d3c:	push   eax
  408d3d:	mov    eax,ds:0x40a3f4
  408d42:	mov    eax,DWORD PTR [eax]
  408d44:	call   eax
  408d46:	mov    eax,ds:0x40b86c
  408d4b:	mov    eax,DWORD PTR [eax+0x34]
  408d4e:	cmp    eax,DWORD PTR ds:0x40b870
  408d54:	jne    0x408dc8
  408d56:	mov    eax,ds:0x40b86c
  408d5b:	mov    eax,DWORD PTR [eax+0x34]
  408d5e:	push   eax
  408d5f:	mov    eax,ds:0x40b80c
  408d64:	push   eax
  408d65:	mov    eax,ds:0x40a2c4
  408d6a:	mov    eax,DWORD PTR [eax]
  408d6c:	call   eax
  408d6e:	test   eax,eax
  408d70:	jne    0x408da1
  408d72:	push   0x40
  408d74:	push   0x3000
  408d79:	mov    eax,ds:0x40b86c
  408d7e:	mov    eax,DWORD PTR [eax+0x50]
  408d81:	push   eax
  408d82:	mov    eax,ds:0x40b86c
  408d87:	mov    eax,DWORD PTR [eax+0x34]
  408d8a:	push   eax
  408d8b:	mov    eax,ds:0x40b80c
  408d90:	push   eax
  408d91:	mov    eax,ds:0x40a3c4
  408d96:	mov    eax,DWORD PTR [eax]
  408d98:	call   eax
  408d9a:	mov    ds:0x40b874,eax
  408d9f:	jmp    0x408df5
  408da1:	push   0x40
  408da3:	push   0x3000
  408da8:	mov    eax,ds:0x40b86c
  408dad:	mov    eax,DWORD PTR [eax+0x50]
  408db0:	push   eax
  408db1:	push   0x0
  408db3:	mov    eax,ds:0x40b80c
  408db8:	push   eax
  408db9:	mov    eax,ds:0x40a3c4
  408dbe:	mov    eax,DWORD PTR [eax]
  408dc0:	call   eax
  408dc2:	mov    ds:0x40b874,eax
  408dc7:	ret    
  408dc8:	push   0x40
  408dca:	push   0x3000
  408dcf:	mov    eax,ds:0x40b86c
  408dd4:	mov    eax,DWORD PTR [eax+0x50]
  408dd7:	push   eax
  408dd8:	mov    eax,ds:0x40b86c
  408ddd:	mov    eax,DWORD PTR [eax+0x34]
  408de0:	push   eax
  408de1:	mov    eax,ds:0x40b80c
  408de6:	push   eax
  408de7:	mov    eax,ds:0x40a3c4
  408dec:	mov    eax,DWORD PTR [eax]
  408dee:	call   eax
  408df0:	mov    ds:0x40b874,eax
  408df5:	ret    
  408df6:	mov    eax,eax
  408df8:	push   ebp
  408df9:	mov    ebp,esp
  408dfb:	add    esp,0xfffffff4
  408dfe:	push   ebx
  408dff:	mov    DWORD PTR [ebp-0xc],ecx
  408e02:	mov    DWORD PTR [ebp-0x8],edx
  408e05:	mov    DWORD PTR [ebp-0x4],eax
  408e08:	mov    eax,DWORD PTR [ebp-0x4]
  408e0b:	call   0x403d40
  408e10:	mov    eax,DWORD PTR [ebp-0x8]
  408e13:	call   0x403d40
  408e18:	xor    eax,eax
  408e1a:	push   ebp
  408e1b:	push   0x40906c
  408e20:	push   DWORD PTR fs:[eax]
  408e23:	mov    DWORD PTR fs:[eax],esp
  408e26:	cmp    DWORD PTR [ebp-0x8],0x0
  408e2a:	je     0x408e49
  408e2c:	push   0x409084
  408e31:	push   DWORD PTR [ebp-0x4]
  408e34:	push   0x409090
  408e39:	push   DWORD PTR [ebp-0x8]
  408e3c:	lea    eax,[ebp-0x8]
  408e3f:	mov    edx,0x4
  408e44:	call   0x403cb4
  408e49:	xor    ebx,ebx
  408e4b:	mov    eax,DWORD PTR [ebp-0xc]
  408e4e:	mov    ds:0x40b868,eax
  408e53:	mov    eax,ds:0x40b868
  408e58:	cmp    WORD PTR [eax],0x5a4d
  408e5d:	jne    0x409051
  408e63:	mov    eax,ds:0x40b868
  408e68:	mov    eax,DWORD PTR [eax+0x3c]
  408e6b:	add    eax,DWORD PTR [ebp-0xc]
  408e6e:	mov    ds:0x40b86c,eax
  408e73:	mov    eax,ds:0x40b86c
  408e78:	cmp    DWORD PTR [eax],0x4550
  408e7e:	jne    0x409051
  408e84:	mov    eax,0x40b81c
  408e89:	xor    ecx,ecx
  408e8b:	mov    edx,0x44
  408e90:	call   0x402ae0
  408e95:	mov    eax,0x40b80c
  408e9a:	xor    ecx,ecx
  408e9c:	mov    edx,0x10
  408ea1:	call   0x402ae0
  408ea6:	mov    DWORD PTR ds:0x40b81c,0x44
  408eb0:	push   0x40b80c
  408eb5:	push   0x40b81c
  408eba:	push   0x0
  408ebc:	push   0x0
  408ebe:	push   0x4
  408ec0:	push   0x0
  408ec2:	push   0x0
  408ec4:	push   0x0
  408ec6:	mov    eax,DWORD PTR [ebp-0x8]
  408ec9:	call   0x403d50
  408ece:	push   eax
  408ecf:	mov    eax,DWORD PTR [ebp-0x4]
  408ed2:	call   0x403d50
  408ed7:	push   eax
  408ed8:	mov    eax,ds:0x40a380
  408edd:	mov    eax,DWORD PTR [eax]
  408edf:	call   eax
  408ee1:	test   al,al
  408ee3:	je     0x409051
  408ee9:	mov    eax,0x40b864
  408eee:	call   0x408cdc
  408ef3:	mov    ds:0x40b860,eax
  408ef8:	cmp    DWORD PTR ds:0x40b860,0x0
  408eff:	je     0x409042
  408f05:	mov    eax,ds:0x40b860
  408f0a:	mov    DWORD PTR [eax],0x10007
  408f10:	mov    eax,ds:0x40b860
  408f15:	push   eax
  408f16:	mov    eax,ds:0x40b810
  408f1b:	push   eax
  408f1c:	mov    eax,ds:0x40a398
  408f21:	mov    eax,DWORD PTR [eax]
  408f23:	call   eax
  408f25:	test   al,al
  408f27:	je     0x40902c
  408f2d:	call   0x408d1c
  408f32:	cmp    DWORD PTR ds:0x40b874,0x0
  408f39:	je     0x40902c
  408f3f:	mov    eax,DWORD PTR [ebp-0xc]
  408f42:	call   0x408c20
  408f47:	mov    DWORD PTR [ebp-0xc],eax
  408f4a:	mov    edx,DWORD PTR ds:0x40b86c
  408f50:	mov    edx,DWORD PTR [edx+0x34]
  408f53:	mov    eax,ds:0x40b874
  408f58:	cmp    edx,eax
  408f5a:	je     0x408f97
  408f5c:	sub    eax,edx
  408f5e:	push   eax
  408f5f:	mov    eax,ds:0x40b86c
  408f64:	push   eax
  408f65:	mov    eax,DWORD PTR [ebp-0xc]
  408f68:	push   eax
  408f69:	call   0x408b20
  408f6e:	mov    eax,ds:0x40b86c
  408f73:	mov    edx,DWORD PTR ds:0x40b874
  408f79:	mov    DWORD PTR [eax+0x34],edx
  408f7c:	mov    eax,ds:0x40b868
  408f81:	mov    eax,DWORD PTR [eax+0x3c]
  408f84:	add    eax,DWORD PTR [ebp-0xc]
  408f87:	mov    ecx,0xf8
  408f8c:	mov    edx,DWORD PTR ds:0x40b86c
  408f92:	call   0x404ab4
  408f97:	push   0x40b878
  408f9c:	mov    eax,ds:0x40b86c
  408fa1:	mov    eax,DWORD PTR [eax+0x50]
  408fa4:	push   eax
  408fa5:	mov    eax,DWORD PTR [ebp-0xc]
  408fa8:	push   eax
  408fa9:	mov    eax,ds:0x40b874
  408fae:	push   eax
  408faf:	mov    eax,ds:0x40b80c
  408fb4:	push   eax
  408fb5:	mov    eax,ds:0x40a360
  408fba:	mov    eax,DWORD PTR [eax]
  408fbc:	call   eax
  408fbe:	push   0x40b878
  408fc3:	push   0x4
  408fc5:	push   0x40b874
  408fca:	mov    eax,ds:0x40b860
  408fcf:	mov    eax,DWORD PTR [eax+0xa4]
  408fd5:	add    eax,0x8
  408fd8:	push   eax
  408fd9:	mov    eax,ds:0x40b80c
  408fde:	push   eax
  408fdf:	mov    eax,ds:0x40a360
  408fe4:	mov    eax,DWORD PTR [eax]
  408fe6:	call   eax
  408fe8:	mov    eax,ds:0x40b86c
  408fed:	mov    eax,DWORD PTR [eax+0x28]
  408ff0:	add    eax,DWORD PTR ds:0x40b874
  408ff6:	mov    edx,DWORD PTR ds:0x40b860
  408ffc:	mov    DWORD PTR [edx+0xb0],eax
  409002:	mov    eax,ds:0x40b860
  409007:	push   eax
  409008:	mov    eax,ds:0x40b810
  40900d:	push   eax
  40900e:	mov    eax,ds:0x40a2cc
  409013:	mov    eax,DWORD PTR [eax]
  409015:	call   eax
  409017:	mov    eax,ds:0x40b810
  40901c:	push   eax
  40901d:	mov    eax,ds:0x40a350
  409022:	mov    eax,DWORD PTR [eax]
  409024:	call   eax
  409026:	mov    ebx,DWORD PTR ds:0x40b810
  40902c:	push   0x8000
  409031:	push   0x0
  409033:	mov    eax,ds:0x40b864
  409038:	push   eax
  409039:	mov    eax,ds:0x40a3bc
  40903e:	mov    eax,DWORD PTR [eax]
  409040:	call   eax
  409042:	test   ebx,ebx
  409044:	jne    0x409051
  409046:	mov    eax,ds:0x40b80c
  40904b:	push   eax
  40904c:	call   0x4049d4
  409051:	xor    eax,eax
  409053:	pop    edx
  409054:	pop    ecx
  409055:	pop    ecx
  409056:	mov    DWORD PTR fs:[eax],edx
  409059:	push   0x409073
  40905e:	lea    eax,[ebp-0x8]
  409061:	mov    edx,0x2
  409066:	call   0x403a18
  40906b:	ret    
  40906c:	jmp    0x4033f4
  409071:	jmp    0x40905e
  409073:	mov    eax,ebx
  409075:	pop    ebx
  409076:	mov    esp,ebp
  409078:	pop    ebp
  409079:	ret    
  40907a:	add    BYTE PTR [eax],al
  40907c:	(bad)  
  40907d:	(bad)  
  40907e:	(bad)  
  40907f:	inc    DWORD PTR [ecx]
  409081:	add    BYTE PTR [eax],al
  409083:	add    BYTE PTR [edx],ah
  409085:	add    BYTE PTR [eax],al
  409087:	add    bh,bh
  409089:	(bad)  
  40908a:	(bad)  
  40908b:	inc    DWORD PTR [edx]
  40908d:	add    BYTE PTR [eax],al
  40908f:	add    BYTE PTR [edx],ah
  409091:	and    BYTE PTR [eax],al
  409093:	add    BYTE PTR [ebp-0x75],dl
  409096:	in     al,dx
  409097:	xor    eax,eax
  409099:	push   ebp
  40909a:	push   0x4090b9
  40909f:	push   DWORD PTR fs:[eax]
  4090a2:	mov    DWORD PTR fs:[eax],esp
  4090a5:	inc    DWORD PTR ds:0x40b808
  4090ab:	xor    eax,eax
  4090ad:	pop    edx
  4090ae:	pop    ecx
  4090af:	pop    ecx
  4090b0:	mov    DWORD PTR fs:[eax],edx
  4090b3:	push   0x4090c0
  4090b8:	ret    
  4090b9:	jmp    0x4033f4
  4090be:	jmp    0x4090b8
  4090c0:	pop    ebp
  4090c1:	ret    
  4090c2:	mov    eax,eax
  4090c4:	sub    DWORD PTR ds:0x40b808,0x1
  4090cb:	ret    
  4090cc:	push   ebx
  4090cd:	push   esi
  4090ce:	push   ecx
  4090cf:	mov    esi,edx
  4090d1:	push   0xa
  4090d3:	push   eax
  4090d4:	mov    eax,ds:0x40b660
  4090d9:	push   eax
  4090da:	mov    eax,ds:0x40a34c
  4090df:	mov    eax,DWORD PTR [eax]
  4090e1:	call   eax
  4090e3:	mov    ebx,eax
  4090e5:	push   ebx
  4090e6:	mov    eax,ds:0x40b660
  4090eb:	push   eax
  4090ec:	call   0x404a3c
  4090f1:	mov    DWORD PTR [esi],eax
  4090f3:	push   ebx
  4090f4:	mov    eax,ds:0x40b660
  4090f9:	push   eax
  4090fa:	mov    eax,ds:0x40a3d4
  4090ff:	mov    eax,DWORD PTR [eax]
  409101:	call   eax
  409103:	mov    ebx,eax
  409105:	push   ebx
  409106:	mov    eax,ds:0x40a3dc
  40910b:	mov    eax,DWORD PTR [eax]
  40910d:	call   eax
  40910f:	mov    DWORD PTR [esp],eax
  409112:	mov    eax,DWORD PTR [esp]
  409115:	pop    edx
  409116:	pop    esi
  409117:	pop    ebx
  409118:	ret    
  409119:	lea    eax,[eax+0x0]
  40911c:	push   ebx
  40911d:	push   esi
  40911e:	add    esp,0xfffffff8
  409121:	mov    esi,edx
  409123:	mov    ebx,eax
  409125:	lea    edx,[esp+0x4]
  409129:	mov    eax,ebx
  40912b:	call   0x4090cc
  409130:	mov    DWORD PTR [esp],eax
  409133:	mov    eax,esi
  409135:	mov    ecx,DWORD PTR [esp+0x4]
  409139:	mov    edx,DWORD PTR [esp]
  40913c:	call   0x403ae4
  409141:	pop    ecx
  409142:	pop    edx
  409143:	pop    esi
  409144:	pop    ebx
  409145:	ret    
  409146:	mov    eax,eax
  409148:	push   ebp
  409149:	mov    ebp,esp
  40914b:	xor    eax,eax
  40914d:	push   ebp
  40914e:	push   0x40916d
  409153:	push   DWORD PTR fs:[eax]
  409156:	mov    DWORD PTR fs:[eax],esp
  409159:	inc    DWORD PTR ds:0x40b87c
  40915f:	xor    eax,eax
  409161:	pop    edx
  409162:	pop    ecx
  409163:	pop    ecx
  409164:	mov    DWORD PTR fs:[eax],edx
  409167:	push   0x409174
  40916c:	ret    
  40916d:	jmp    0x4033f4
  409172:	jmp    0x40916c
  409174:	pop    ebp
  409175:	ret    
  409176:	mov    eax,eax
  409178:	sub    DWORD PTR ds:0x40b87c,0x1
  40917f:	ret    
  409180:	push   ebp
  409181:	mov    ebp,esp
  409183:	xor    eax,eax
  409185:	push   ebp
  409186:	push   0x4091a5
  40918b:	push   DWORD PTR fs:[eax]
  40918e:	mov    DWORD PTR fs:[eax],esp
  409191:	inc    DWORD PTR ds:0x40b880
  409197:	xor    eax,eax
  409199:	pop    edx
  40919a:	pop    ecx
  40919b:	pop    ecx
  40919c:	mov    DWORD PTR fs:[eax],edx
  40919f:	push   0x4091ac
  4091a4:	ret    
  4091a5:	jmp    0x4033f4
  4091aa:	jmp    0x4091a4
  4091ac:	pop    ebp
  4091ad:	ret    
  4091ae:	mov    eax,eax
  4091b0:	sub    DWORD PTR ds:0x40b880,0x1
  4091b7:	ret    
  4091b8:	jmp    DWORD PTR ds:0x40c210
  4091be:	mov    eax,eax
  4091c0:	push   ebp
  4091c1:	mov    ebp,esp
  4091c3:	add    esp,0xfffffff0
  4091c6:	push   ebx
  4091c7:	push   esi
  4091c8:	mov    ebx,ecx
  4091ca:	mov    DWORD PTR [ebp-0x8],edx
  4091cd:	mov    DWORD PTR [ebp-0x4],eax
  4091d0:	mov    eax,DWORD PTR [ebp-0x4]
  4091d3:	call   0x403d40
  4091d8:	xor    eax,eax
  4091da:	push   ebp
  4091db:	push   0x40924c
  4091e0:	push   DWORD PTR fs:[eax]
  4091e3:	mov    DWORD PTR fs:[eax],esp
  4091e6:	lea    eax,[ebp-0x8]
  4091e9:	push   eax
  4091ea:	lea    eax,[ebp-0x10]
  4091ed:	push   eax
  4091ee:	lea    eax,[ebp-0xc]
  4091f1:	push   eax
  4091f2:	push   0x0
  4091f4:	mov    eax,DWORD PTR [ebp-0x8]
  4091f7:	push   eax
  4091f8:	mov    eax,DWORD PTR [ebp-0x4]
  4091fb:	call   0x403c68
  409200:	push   eax
  409201:	mov    esi,DWORD PTR [ebp-0x4]
  409204:	push   esi
  409205:	call   0x4091b8
  40920a:	mov    eax,ebx
  40920c:	mov    edx,DWORD PTR [ebp-0xc]
  40920f:	call   0x403de8
  409214:	lea    eax,[ebp-0x8]
  409217:	push   eax
  409218:	lea    eax,[ebp-0x10]
  40921b:	push   eax
  40921c:	lea    eax,[ebp-0xc]
  40921f:	push   eax
  409220:	mov    eax,DWORD PTR [ebx]
  409222:	push   eax
  409223:	mov    eax,DWORD PTR [ebp-0x8]
  409226:	push   eax
  409227:	mov    eax,DWORD PTR [ebp-0x4]
  40922a:	call   0x403c68
  40922f:	push   eax
  409230:	push   esi
  409231:	call   0x4091b8
  409236:	xor    eax,eax
  409238:	pop    edx
  409239:	pop    ecx
  40923a:	pop    ecx
  40923b:	mov    DWORD PTR fs:[eax],edx
  40923e:	push   0x409253
  409243:	lea    eax,[ebp-0x4]
  409246:	call   0x4039f4
  40924b:	ret    
  40924c:	jmp    0x4033f4
  409251:	jmp    0x409243
  409253:	pop    esi
  409254:	pop    ebx
  409255:	mov    esp,ebp
  409257:	pop    ebp
  409258:	ret    
  409259:	lea    eax,[eax+0x0]
  40925c:	push   ebp
  40925d:	mov    ebp,esp
  40925f:	xor    eax,eax
  409261:	push   ebp
  409262:	push   0x409281
  409267:	push   DWORD PTR fs:[eax]
  40926a:	mov    DWORD PTR fs:[eax],esp
  40926d:	inc    DWORD PTR ds:0x40b884
  409273:	xor    eax,eax
  409275:	pop    edx
  409276:	pop    ecx
  409277:	pop    ecx
  409278:	mov    DWORD PTR fs:[eax],edx
  40927b:	push   0x409288
  409280:	ret    
  409281:	jmp    0x4033f4
  409286:	jmp    0x409280
  409288:	pop    ebp
  409289:	ret    
  40928a:	mov    eax,eax
  40928c:	sub    DWORD PTR ds:0x40b884,0x1
  409293:	ret    
  409294:	push   ebp
  409295:	mov    ebp,esp
  409297:	xor    eax,eax
  409299:	push   ebp
  40929a:	push   0x4092b9
  40929f:	push   DWORD PTR fs:[eax]
  4092a2:	mov    DWORD PTR fs:[eax],esp
  4092a5:	inc    DWORD PTR ds:0x40b888
  4092ab:	xor    eax,eax
  4092ad:	pop    edx
  4092ae:	pop    ecx
  4092af:	pop    ecx
  4092b0:	mov    DWORD PTR fs:[eax],edx
  4092b3:	push   0x4092c0
  4092b8:	ret    
  4092b9:	jmp    0x4033f4
  4092be:	jmp    0x4092b8
  4092c0:	pop    ebp
  4092c1:	ret    
  4092c2:	mov    eax,eax
  4092c4:	sub    DWORD PTR ds:0x40b888,0x1
  4092cb:	ret    
  4092cc:	push   ebp
  4092cd:	mov    ebp,esp
  4092cf:	xor    ecx,ecx
  4092d1:	push   ecx
  4092d2:	push   ecx
  4092d3:	push   ecx
  4092d4:	push   ecx
  4092d5:	push   ebx
  4092d6:	mov    ebx,0x40b88c
  4092db:	xor    eax,eax
  4092dd:	push   ebp
  4092de:	push   0x409387
  4092e3:	push   DWORD PTR fs:[eax]
  4092e6:	mov    DWORD PTR fs:[eax],esp
  4092e9:	lea    edx,[ebp-0x4]
  4092ec:	mov    eax,0x409394
  4092f1:	call   0x40911c
  4092f6:	mov    edx,DWORD PTR [ebp-0x4]
  4092f9:	mov    eax,ebx
  4092fb:	call   0x403a48
  409300:	lea    ecx,[ebp-0x8]
  409303:	mov    edx,0x3
  409308:	mov    eax,DWORD PTR [ebx]
  40930a:	call   0x4091c0
  40930f:	mov    edx,DWORD PTR [ebp-0x8]
  409312:	mov    eax,ebx
  409314:	call   0x403a48
  409319:	lea    ecx,[ebp-0xc]
  40931c:	mov    edx,0x4093a4
  409321:	mov    eax,DWORD PTR [ebx]
  409323:	call   0x404b90
  409328:	mov    edx,DWORD PTR [ebp-0xc]
  40932b:	mov    eax,ebx
  40932d:	call   0x403a48
  409332:	push   0x104
  409337:	push   0x40b890
  40933c:	push   0x0
  40933e:	mov    eax,ds:0x40a3f8
  409343:	mov    eax,DWORD PTR [eax]
  409345:	call   eax
  409347:	mov    eax,ebx
  409349:	call   0x403da0
  40934e:	push   eax
  40934f:	lea    eax,[ebp-0x10]
  409352:	mov    edx,0x40b890
  409357:	mov    ecx,0x105
  40935c:	call   0x403c3c
  409361:	mov    eax,DWORD PTR [ebp-0x10]
  409364:	xor    edx,edx
  409366:	pop    ecx
  409367:	call   0x408df8
  40936c:	xor    eax,eax
  40936e:	pop    edx
  40936f:	pop    ecx
  409370:	pop    ecx
  409371:	mov    DWORD PTR fs:[eax],edx
  409374:	push   0x40938e
  409379:	lea    eax,[ebp-0x10]
  40937c:	mov    edx,0x4
  409381:	call   0x403a18
  409386:	ret    
  409387:	jmp    0x4033f4
  40938c:	jmp    0x409379
  40938e:	pop    ebx
  40938f:	mov    esp,ebp
  409391:	pop    ebp
  409392:	ret    
  409393:	add    BYTE PTR [ecx+ecx*2+0x4e],al
  409397:	dec    edi
  409398:	add    BYTE PTR [eax],al
  40939a:	add    BYTE PTR [eax],al
  40939c:	(bad)  
  40939d:	(bad)  
  40939e:	(bad)  
  40939f:	call   FWORD PTR ds:0x4c000000
  4093a5:	dec    esp
  4093a6:	dec    ebx
  4093a7:	dec    esp
  4093a8:	dec    ebx
  4093a9:	inc    edi
  4093aa:	dec    eax
  4093ab:	inc    edi
  4093ac:	inc    esp
  4093ad:	push   edx
  4093ae:	inc    edi
  4093af:	addr16 addr16 push edx
  4093b2:	push   edx
  4093b3:	push   edx
  4093b4:	push   edx
  4093b5:	push   edx
  4093b6:	push   edx
  4093b7:	jb     0x40942b
  4093b9:	push   edx
  4093ba:	push   edx
  4093bb:	push   edx
  4093bc:	push   edx
  4093bd:	push   edx
  4093be:	xor    dh,BYTE PTR [edx]
  4093c0:	xor    al,BYTE PTR [eax]
  4093c2:	add    BYTE PTR [eax],al
  4093c4:	push   ebp
  4093c5:	mov    ebp,esp
  4093c7:	push   ebx
  4093c8:	push   esi
  4093c9:	mov    ebx,DWORD PTR [ebp+0xc]
  4093cc:	mov    eax,ebx
  4093ce:	sub    eax,0x2
  4093d1:	jne    0x4093dc
  4093d3:	push   0x0
  4093d5:	call   0x404a9c
  4093da:	jmp    0x4093f5
  4093dc:	call   0x408460
  4093e1:	mov    eax,DWORD PTR [ebp+0x14]
  4093e4:	push   eax
  4093e5:	mov    eax,DWORD PTR [ebp+0x10]
  4093e8:	push   eax
  4093e9:	push   ebx
  4093ea:	mov    eax,DWORD PTR [ebp+0x8]
  4093ed:	push   eax
  4093ee:	call   0x404a6c
  4093f3:	mov    esi,eax
  4093f5:	mov    eax,esi
  4093f7:	pop    esi
  4093f8:	pop    ebx
  4093f9:	pop    ebp
  4093fa:	ret    0x10
  4093fd:	lea    eax,[eax+0x0]
  409400:	add    esp,0xffffffd8
  409403:	mov    DWORD PTR [esp],0x3
  40940a:	mov    DWORD PTR [esp+0x4],0x4093c4
  409412:	xor    eax,eax
  409414:	mov    DWORD PTR [esp+0x8],eax
  409418:	xor    eax,eax
  40941a:	mov    DWORD PTR [esp+0xc],eax
  40941e:	mov    eax,ds:0x40b660
  409423:	mov    DWORD PTR [esp+0x10],eax
  409427:	xor    eax,eax
  409429:	mov    DWORD PTR [esp+0x14],eax
  40942d:	xor    eax,eax
  40942f:	mov    DWORD PTR [esp+0x18],eax
  409433:	mov    DWORD PTR [esp+0x1c],0x5
  40943b:	xor    eax,eax
  40943d:	mov    DWORD PTR [esp+0x20],eax
  409441:	mov    eax,0x40945c
  409446:	mov    DWORD PTR [esp+0x24],eax
  40944a:	push   esp
  40944b:	call   0x404aa4
  409450:	test   ax,ax
  409453:	setne  al
  409456:	add    esp,0x28
  409459:	ret    
  40945a:	add    BYTE PTR [eax],al
  40945c:	js     0x4094d6
  40945e:	js     0x4094d8
  409460:	js     0x4094da
  409462:	js     0x4094dc
  409464:	js     0x4094de
  409466:	js     0x4094e0
  409468:	js     0x4094cd
  40946a:	arpl   WORD PTR [ebx+0x63],sp
  40946d:	arpl   WORD PTR [ebx+0x63],sp
  409470:	arpl   WORD PTR [ebx+0x63],sp
  409473:	arpl   WORD PTR [ebx+0x63],sp
  409476:	arpl   WORD PTR [ebx+0x63],sp
  409479:	arpl   WORD PTR [ebx+0x0],sp
  40947c:	push   ebp
  40947d:	mov    ebp,esp
  40947f:	xor    eax,eax
  409481:	push   ebp
  409482:	push   0x4094a5
  409487:	push   DWORD PTR fs:[eax]
  40948a:	mov    DWORD PTR fs:[eax],esp
  40948d:	mov    eax,0x40b88c
  409492:	call   0x4039f4
  409497:	xor    eax,eax
  409499:	pop    edx
  40949a:	pop    ecx
  40949b:	pop    ecx
  40949c:	mov    DWORD PTR fs:[eax],edx
  40949f:	push   0x4094ac
  4094a4:	ret    
  4094a5:	jmp    0x4033f4
  4094aa:	jmp    0x4094a4
  4094ac:	pop    ebp
  4094ad:	ret    
  4094ae:	mov    eax,eax
  4094b0:	adc    BYTE PTR [eax],al
  4094b2:	add    BYTE PTR [eax],al
  4094b4:	mov    eax,0x8c004094
  4094b9:	dec    ecx
  4094ba:	inc    eax
  4094bb:	add    BYTE PTR [ecx+ecx*2+0x40],bl
  4094bf:	add    BYTE PTR [eax+0x47],ch
  4094c2:	inc    eax
  4094c3:	add    BYTE PTR [edi+eax*2],dl
  4094c6:	inc    eax
  4094c7:	add    ah,al
  4094c9:	dec    ecx
  4094ca:	inc    eax
  4094cb:	add    BYTE PTR [ecx+ecx*2+0x4b540040],dl
  4094d2:	inc    eax
  4094d3:	add    BYTE PTR [ebx+ecx*2],ah
  4094d6:	inc    eax
  4094d7:	add    BYTE PTR [esp+ecx*2+0x4c740040],ah
  4094de:	inc    eax
  4094df:	add    BYTE PTR [edi+ecx*2+0x40],bl
  4094e3:	add    BYTE PTR [edi+ecx*2],ch
  4094e6:	inc    eax
  4094e7:	add    BYTE PTR [eax-0x7d],ah
  4094ea:	inc    eax
  4094eb:	add    al,ah
  4094ed:	add    DWORD PTR [eax+0x0],0x408410
  4094f4:	loopne 0x409479
  4094f6:	inc    eax
  4094f7:	add    BYTE PTR [eax-0x7c],cl
  4094fa:	inc    eax
  4094fb:	add    BYTE PTR [eax],bl
  4094fd:	test   BYTE PTR [eax+0x0],al
  409500:	sbb    BYTE PTR [ebx-0x7517ffc0],cl
  409506:	inc    eax
  409507:	add    ah,al
  409509:	nop
  40950a:	inc    eax
  40950b:	add    BYTE PTR [eax+edx*4-0x6e87ffc0],dl
  409512:	inc    eax
  409513:	add    BYTE PTR [eax-0x6f],cl
  409516:	inc    eax
  409517:	add    BYTE PTR [eax-0x7fffbf6f],dh
  40951d:	xchg   ecx,eax
  40951e:	inc    eax
  40951f:	add    BYTE PTR [edx+edx*4-0x6da3ffc0],cl
  409526:	inc    eax
  409527:	add    ah,al
  409529:	xchg   edx,eax
  40952a:	inc    eax
  40952b:	add    BYTE PTR [edx+edx*4+0x40],dl
  409532:	add    BYTE PTR [eax],al
  409534:	jl     0x4094ca
  409536:	inc    eax
  409537:	add    BYTE PTR [ebp-0x75],dl
  40953a:	in     al,dx
  40953b:	add    esp,0xfffffff0
  40953e:	push   ebx
  40953f:	mov    eax,0x4094b0
  409544:	call   0x404918
  409549:	mov    ebx,0x40b998
  40954e:	xor    eax,eax
  409550:	push   ebp
  409551:	push   0x4095f4
  409556:	push   DWORD PTR fs:[eax]
  409559:	mov    DWORD PTR fs:[eax],esp
  40955c:	call   0x409400
  409561:	test   al,al
  409563:	jne    0x409577
  409565:	push   0x0
  409567:	push   0x0
  409569:	push   0x409604
  40956e:	push   0x0
  409570:	call   0x404a94
  409575:	jmp    0x4095e6
  409577:	push   0x20cf0000
  40957c:	push   0x80000000
  409581:	push   0x80000000
  409586:	push   0x80000000
  40958b:	push   0x80000000
  409590:	push   0x0
  409592:	push   0x0
  409594:	mov    eax,ds:0x40b660
  409599:	push   eax
  40959a:	push   0x0
  40959c:	mov    ecx,0x409628
  4095a1:	mov    edx,0x409648
  4095a6:	xor    eax,eax
  4095a8:	call   0x404acc
  4095ad:	mov    ebx,eax
  4095af:	call   0x4092cc
  4095b4:	test   ebx,ebx
  4095b6:	jne    0x4095e6
  4095b8:	push   0x0
  4095ba:	push   0x0
  4095bc:	push   0x409668
  4095c1:	push   0x0
  4095c3:	call   0x404a94
  4095c8:	jmp    0x4095e6
  4095ca:	push   ebx
  4095cb:	call   0x404aac
  4095d0:	push   ebx
  4095d1:	call   0x404a74
  4095d6:	push   0x0
  4095d8:	push   0x0
  4095da:	push   0x0
  4095dc:	push   ebx
  4095dd:	call   0x404a7c
  4095e2:	test   eax,eax
  4095e4:	jne    0x4095ca
  4095e6:	xor    eax,eax
  4095e8:	pop    edx
  4095e9:	pop    ecx
  4095ea:	pop    ecx
  4095eb:	mov    DWORD PTR fs:[eax],edx
  4095ee:	push   0x4095fb
  4095f3:	ret    
  4095f4:	jmp    0x4033f4
  4095f9:	jmp    0x4095f3
  4095fb:	pop    ebx
  4095fc:	call   0x4038fc
  409601:	add    BYTE PTR [eax],al
  409603:	add    BYTE PTR [edx+0x7a],bh
  409606:	jp     0x409682
  409608:	jp     0x409684
  40960a:	jp     0x409686
  40960c:	jp     0x409688
  40960e:	jp     0x40968a
  409610:	jp     0x40968c
  409612:	popa   
  409613:	popa   
  409614:	popa   
  409615:	popa   
  409616:	popa   
  409617:	popa   
  409618:	popa   
  409619:	popa   
  40961a:	popa   
  40961b:	popa   
  40961c:	popa   
  40961d:	popa   
  40961e:	popa   
  40961f:	popa   
  409620:	popa   
  409621:	popa   
  409622:	popa   
  409623:	popa   
  409624:	add    BYTE PTR [eax],al
  409626:	add    BYTE PTR [eax],al
  409628:	arpl   WORD PTR [ebx+0x63],sp
  40962b:	arpl   WORD PTR [ebx+0x63],sp
  40962e:	arpl   WORD PTR [ebx+0x63],sp
  409631:	arpl   WORD PTR [ebx+0x63],sp
  409634:	arpl   WORD PTR [ebx+0x63],sp
  409637:	arpl   WORD PTR [eax+0x78],di
  40963a:	js     0x4096b4
  40963c:	js     0x4096b6
  40963e:	js     0x4096b8
  409640:	js     0x4096ba
  409642:	js     0x4096bc
  409644:	js     0x4096be
  409646:	js     0x409648
  409648:	js     0x4096c2
  40964a:	js     0x4096c4
  40964c:	js     0x4096c6
  40964e:	js     0x4096c8
  409650:	js     0x4096ca
  409652:	js     0x4096cc
  409654:	js     0x4096b9
  409656:	arpl   WORD PTR [ebx+0x63],sp
  409659:	arpl   WORD PTR [ebx+0x63],sp
  40965c:	arpl   WORD PTR [ebx+0x63],sp
  40965f:	arpl   WORD PTR [ebx+0x63],sp
  409662:	arpl   WORD PTR [ebx+0x63],sp
  409665:	arpl   WORD PTR [ebx+0x0],sp
  409668:	jae    0x4096dd
  40966a:	jae    0x4096df
  40966c:	jae    0x4096e1
  40966e:	jae    0x4096e3
  409670:	jae    0x4096e5
  409672:	jae    0x4096e7
  409674:	jae    0x4096e9
  409676:	jae    0x4096eb
  409678:	jae    0x4096ed
  40967a:	jae    0x4096ef
  40967c:	jae    0x4096f1
  40967e:	popa   
  40967f:	popa   
  409680:	popa   
  409681:	popa   
  409682:	popa   
  409683:	popa   
  409684:	popa   
  409685:	popa   
  409686:	popa   
  409687:	popa   
  409688:	popa   
  409689:	popa   
  40968a:	popa   
  40968b:	popa   
  40968c:	popa   
  40968d:	add    BYTE PTR [eax],al
	...
