
791b375046aded6d324a0d3ed0db95dad7862f1dd31ac31f4b75c288bae4da1e.exe:     file format pei-i386


Disassembly of section .text:

00401000 <.text>:
	...
  401050:	mov    edi,edi
  401052:	push   ebp
  401053:	mov    ebp,esp
  401055:	sub    esp,0x30
  401058:	push   eax
  401059:	push   edx
  40105a:	push   DWORD PTR [eax+0x304]
  401060:	push   DWORD PTR [eax+0x118]
  401066:	push   DWORD PTR [eax+0x224]
  40106c:	call   0x401e60
  401071:	add    esp,0x10
  401074:	pop    eax
  401075:	push   eax
  401076:	push   0x0
  401078:	mov    eax,0x404008
  40107d:	call   DWORD PTR [eax]
  40107f:	pop    eax
  401080:	push   eax
  401081:	push   0x0
  401083:	mov    eax,0x404024
  401088:	call   DWORD PTR [eax]
  40108a:	pop    eax
  40108b:	sub    esp,0xffffffd0
  40108e:	mov    ebp,DWORD PTR [esp]
  401091:	add    esp,0x4
  401094:	ret    
  401095:	add    BYTE PTR [eax],al
  401097:	add    BYTE PTR [ebx-0x1374aa01],cl
  40109d:	sub    esp,0x44
  4010a0:	push   eax
  4010a1:	push   0x0
  4010a3:	mov    eax,0x404008
  4010a8:	call   DWORD PTR [eax]
  4010aa:	pop    eax
  4010ab:	push   eax
  4010ac:	push   esi
  4010ad:	push   DWORD PTR [eax+0x104]
  4010b3:	push   edi
  4010b4:	push   esi
  4010b5:	call   0x401ee0
  4010ba:	add    esp,0x10
  4010bd:	pop    eax
  4010be:	push   eax
  4010bf:	push   0x0
  4010c1:	mov    eax,0x40401c
  4010c6:	call   DWORD PTR [eax]
  4010c8:	pop    eax
  4010c9:	sub    esp,0xffffffbc
  4010cc:	mov    ebp,DWORD PTR [esp]
  4010cf:	add    esp,0x4
  4010d2:	ret    
  4010d3:	add    BYTE PTR [ebx-0x1374aa01],cl
  4010d9:	sub    esp,0x28
  4010dc:	push   eax
  4010dd:	push   edi
  4010de:	push   edi
  4010df:	push   DWORD PTR [eax+0xf4]
  4010e5:	push   DWORD PTR [eax+0xdc]
  4010eb:	call   0x4014f4
  4010f0:	add    esp,0x10
  4010f3:	pop    eax
  4010f4:	push   eax
  4010f5:	lea    ebx,[eax-0x100]
  4010fb:	push   ebx
  4010fc:	mov    eax,0x404020
  401101:	call   DWORD PTR [eax]
  401103:	test   eax,eax
  401105:	jne    0x4010f5
  401107:	pop    eax
  401108:	push   eax
  401109:	push   0x0
  40110b:	mov    eax,0x404004
  401110:	call   DWORD PTR [eax]
  401112:	pop    eax
  401113:	sub    esp,0xffffffd8
  401116:	mov    ebp,DWORD PTR [esp]
  401119:	add    esp,0x4
  40111c:	ret    
  40111d:	add    BYTE PTR [eax],al
  40111f:	add    BYTE PTR [ecx-0x3d],ah
  401122:	add    BYTE PTR [eax],al
  401124:	mov    edi,edi
  401126:	push   ebp
  401127:	mov    ebp,esp
  401129:	sub    esp,0x3c
  40112c:	push   eax
  40112d:	mov    eax,0x404038
  401132:	call   DWORD PTR [eax]
  401134:	pop    eax
  401135:	push   eax
  401136:	push   DWORD PTR [eax+0xc]
  401139:	push   DWORD PTR [eax+0x118]
  40113f:	push   edi
  401140:	call   0x401280
  401145:	add    esp,0xc
  401148:	pop    eax
  401149:	mov    edi,0x404020
  40114e:	mov    edi,DWORD PTR [edi]
  401150:	push   edi
  401151:	push   DWORD PTR [eax+0x94]
  401157:	pop    edx
  401158:	call   edx
  40115a:	sub    esp,0xffffffc4
  40115d:	mov    ebp,DWORD PTR [esp]
  401160:	add    esp,0x4
  401163:	ret    
  401164:	mov    edi,edi
  401166:	push   ebp
  401167:	mov    ebp,esp
  401169:	sub    esp,0x40
  40116c:	push   eax
  40116d:	mov    eax,0x40402c
  401172:	call   DWORD PTR [eax]
  401174:	pop    eax
  401175:	push   eax
  401176:	push   DWORD PTR [eax+0x348]
  40117c:	push   DWORD PTR [eax+0x1c4]
  401182:	push   ebx
  401183:	call   0x401590
  401188:	add    esp,0xc
  40118b:	pop    eax
  40118c:	push   eax
  40118d:	mov    edx,0x0
  401192:	push   edx
  401193:	mov    eax,0x404004
  401198:	call   DWORD PTR [eax]
  40119a:	pop    eax
  40119b:	sub    esp,0xffffffc0
  40119e:	mov    ebp,DWORD PTR [esp]
  4011a1:	add    esp,0x4
  4011a4:	ret    
  4011a5:	add    BYTE PTR [eax],al
  4011a7:	add    BYTE PTR [ebx-0x1374aa01],cl
  4011ad:	sub    esp,0x50
  4011b0:	push   eax
  4011b1:	push   edx
  4011b2:	push   ecx
  4011b3:	push   ebx
  4011b4:	push   ebx
  4011b5:	call   0x402728
  4011ba:	add    esp,0x10
  4011bd:	pop    eax
  4011be:	push   eax
  4011bf:	mov    eax,0x0
  4011c4:	push   eax
  4011c5:	mov    eax,0x40406c
  4011ca:	call   DWORD PTR [eax]
  4011cc:	pop    eax
  4011cd:	push   eax
  4011ce:	mov    esi,0x0
  4011d3:	push   esi
  4011d4:	mov    eax,0x40401c
  4011d9:	call   DWORD PTR [eax]
  4011db:	pop    eax
  4011dc:	sub    esp,0xffffffb0
  4011df:	mov    ebp,DWORD PTR [esp]
  4011e2:	add    esp,0x4
  4011e5:	ret    
  4011e6:	add    BYTE PTR [eax],al
  4011e8:	mov    edi,edi
  4011ea:	push   ebp
  4011eb:	mov    ebp,esp
  4011ed:	sub    esp,0x48
  4011f0:	push   eax
  4011f1:	lea    ecx,[eax-0x100]
  4011f7:	push   ecx
  4011f8:	mov    eax,0x404020
  4011fd:	call   DWORD PTR [eax]
  4011ff:	test   eax,eax
  401201:	jne    0x4011f1
  401203:	pop    eax
  401204:	push   eax
  401205:	push   edx
  401206:	push   esi
  401207:	push   ecx
  401208:	push   DWORD PTR [eax+0x384]
  40120e:	call   0x401164
  401213:	add    esp,0x10
  401216:	pop    eax
  401217:	push   eax
  401218:	mov    eax,0x0
  40121d:	push   eax
  40121e:	mov    eax,0x40406c
  401223:	call   DWORD PTR [eax]
  401225:	pop    eax
  401226:	sub    esp,0xffffffb8
  401229:	mov    ebp,DWORD PTR [esp]
  40122c:	add    esp,0x4
  40122f:	ret    
	...
  401280:	mov    edi,edi
  401282:	push   ebp
  401283:	mov    ebp,esp
  401285:	sub    esp,0x34
  401288:	push   eax
  401289:	push   0x0
  40128b:	mov    eax,0x404034
  401290:	call   DWORD PTR [eax]
  401292:	pop    eax
  401293:	push   eax
  401294:	push   edi
  401295:	push   ecx
  401296:	push   DWORD PTR [eax+0x358]
  40129c:	call   0x4019e8
  4012a1:	add    esp,0xc
  4012a4:	pop    eax
  4012a5:	push   eax
  4012a6:	push   0x0
  4012a8:	mov    eax,0x404024
  4012ad:	call   DWORD PTR [eax]
  4012af:	pop    eax
  4012b0:	sub    esp,0xffffffcc
  4012b3:	mov    ebp,DWORD PTR [esp]
  4012b6:	add    esp,0x4
  4012b9:	ret    
  4012ba:	add    BYTE PTR [eax],al
  4012bc:	mov    edi,edi
  4012be:	push   ebp
  4012bf:	mov    ebp,esp
  4012c1:	sub    esp,0x60
  4012c4:	push   eax
  4012c5:	push   DWORD PTR [eax+0x4]
  4012c8:	push   esi
  4012c9:	call   0x4026a4
  4012ce:	add    esp,0x8
  4012d1:	pop    eax
  4012d2:	push   eax
  4012d3:	mov    edi,0x0
  4012d8:	push   edi
  4012d9:	mov    eax,0x404008
  4012de:	call   DWORD PTR [eax]
  4012e0:	pop    eax
  4012e1:	push   eax
  4012e2:	push   0x0
  4012e4:	mov    eax,0x40401c
  4012e9:	call   DWORD PTR [eax]
  4012eb:	pop    eax
  4012ec:	sub    esp,0xffffffa0
  4012ef:	mov    ebp,DWORD PTR [esp]
  4012f2:	add    esp,0x4
  4012f5:	ret    
  4012f6:	add    BYTE PTR [eax],al
  4012f8:	mov    edi,edi
  4012fa:	push   ebp
  4012fb:	mov    ebp,esp
  4012fd:	sub    esp,0x60
  401300:	push   eax
  401301:	push   DWORD PTR [eax+0x2f0]
  401307:	push   ebx
  401308:	push   ebx
  401309:	call   0x401b10
  40130e:	add    esp,0xc
  401311:	pop    eax
  401312:	push   eax
  401313:	push   0x0
  401315:	mov    eax,0x404024
  40131a:	call   DWORD PTR [eax]
  40131c:	pop    eax
  40131d:	push   eax
  40131e:	lea    ecx,[eax-0x100]
  401324:	push   ecx
  401325:	mov    eax,0x404020
  40132a:	call   DWORD PTR [eax]
  40132c:	test   eax,eax
  40132e:	jne    0x40131e
  401330:	pop    eax
  401331:	sub    esp,0xffffffa0
  401334:	mov    ebp,DWORD PTR [esp]
  401337:	add    esp,0x4
  40133a:	ret    
  40133b:	add    BYTE PTR [ebx-0x1374aa01],cl
  401341:	sub    esp,0x3c
  401344:	push   eax
  401345:	push   0x0
  401347:	mov    eax,0x404070
  40134c:	call   DWORD PTR [eax]
  40134e:	pop    eax
  40134f:	push   eax
  401350:	push   esi
  401351:	push   DWORD PTR [eax+0xc0]
  401357:	push   ebx
  401358:	push   ecx
  401359:	call   0x402000
  40135e:	add    esp,0x10
  401361:	pop    eax
  401362:	push   eax
  401363:	lea    ecx,[eax-0x100]
  401369:	push   ecx
  40136a:	mov    eax,0x404020
  40136f:	call   DWORD PTR [eax]
  401371:	test   eax,eax
  401373:	jne    0x401363
  401375:	pop    eax
  401376:	sub    esp,0xffffffc4
  401379:	mov    ebp,DWORD PTR [esp]
  40137c:	add    esp,0x4
  40137f:	ret    
  401380:	mov    edi,edi
  401382:	push   ebp
  401383:	mov    ebp,esp
  401385:	sub    esp,0x44
  401388:	push   eax
  401389:	push   DWORD PTR [eax+0xac]
  40138f:	push   edi
  401390:	push   esi
  401391:	call   0x4011a8
  401396:	add    esp,0xc
  401399:	pop    eax
  40139a:	push   eax
  40139b:	push   0x0
  40139d:	mov    eax,0x40401c
  4013a2:	call   DWORD PTR [eax]
  4013a4:	pop    eax
  4013a5:	push   eax
  4013a6:	mov    eax,0x0
  4013ab:	push   eax
  4013ac:	mov    eax,0x404070
  4013b1:	call   DWORD PTR [eax]
  4013b3:	pop    eax
  4013b4:	sub    esp,0xffffffbc
  4013b7:	mov    ebp,DWORD PTR [esp]
  4013ba:	add    esp,0x4
  4013bd:	ret    
	...
  40140e:	add    BYTE PTR [eax],al
  401410:	mov    edi,edi
  401412:	push   ebp
  401413:	mov    ebp,esp
  401415:	sub    esp,0x48
  401418:	push   eax
  401419:	push   ecx
  40141a:	push   DWORD PTR [eax+0x178]
  401420:	push   DWORD PTR [eax+0x368]
  401426:	push   edi
  401427:	call   0x401c24
  40142c:	add    esp,0x10
  40142f:	pop    eax
  401430:	push   eax
  401431:	mov    edx,0x0
  401436:	push   edx
  401437:	mov    eax,0x404010
  40143c:	call   DWORD PTR [eax]
  40143e:	pop    eax
  40143f:	push   eax
  401440:	push   0x0
  401442:	mov    eax,0x40401c
  401447:	call   DWORD PTR [eax]
  401449:	pop    eax
  40144a:	sub    esp,0xffffffb8
  40144d:	mov    ebp,DWORD PTR [esp]
  401450:	add    esp,0x4
  401453:	ret    
	...
  4014f4:	mov    edi,edi
  4014f6:	push   ebp
  4014f7:	mov    ebp,esp
  4014f9:	sub    esp,0x30
  4014fc:	push   eax
  4014fd:	push   DWORD PTR [eax+0x11c]
  401503:	push   DWORD PTR [eax+0x334]
  401509:	call   0x401d00
  40150e:	add    esp,0x8
  401511:	pop    eax
  401512:	push   eax
  401513:	mov    esi,0x0
  401518:	push   esi
  401519:	mov    eax,0x404010
  40151e:	call   DWORD PTR [eax]
  401520:	pop    eax
  401521:	push   eax
  401522:	lea    eax,[eax-0x100]
  401528:	push   eax
  401529:	mov    eax,0x404020
  40152e:	call   DWORD PTR [eax]
  401530:	test   eax,eax
  401532:	jne    0x401522
  401534:	pop    eax
  401535:	sub    esp,0xffffffd0
  401538:	mov    ebp,DWORD PTR [esp]
  40153b:	add    esp,0x4
  40153e:	ret    
	...
  40158f:	add    BYTE PTR [ebx-0x1374aa01],cl
  401595:	sub    esp,0x50
  401598:	push   eax
  401599:	mov    esi,0x6b4
  40159e:	push   esi
  40159f:	mov    edi,0x6b4
  4015a4:	push   edi
  4015a5:	push   0x40001
  4015aa:	push   0x0
  4015ac:	xor    DWORD PTR [esp],0x89e6ba6d
  4015b3:	pop    ecx
  4015b4:	sub    ecx,0x89a67a45
  4015ba:	push   DWORD PTR [ecx]
  4015bc:	sub    DWORD PTR [esp],0x2
  4015c0:	mov    ecx,0x40400c
  4015c5:	pop    DWORD PTR [ecx]
  4015c7:	mov    eax,0x40400c
  4015cc:	call   DWORD PTR [eax]
  4015ce:	xchg   DWORD PTR [esp],eax
  4015d1:	pop    DWORD PTR [eax+0x94]
  4015d7:	mov    esi,DWORD PTR [eax+0x94]
  4015dd:	mov    esi,esi
  4015df:	sub    ebx,ebx
  4015e1:	dec    ebx
  4015e2:	and    ebx,0x4029da
  4015e8:	mov    ecx,0x7a89d45a
  4015ed:	xor    edi,edi
  4015ef:	cmp    edi,0x6b4
  4015f5:	je     0x401619
  4015f7:	sub    edi,0xfffffffc
  4015fa:	mov    edx,ecx
  4015fc:	xor    edx,DWORD PTR [ebx]
  4015fe:	push   edx
  4015ff:	sub    edx,edx
  401601:	sub    DWORD PTR [esp],0x1
  401605:	pop    DWORD PTR [esi+edx*2]
  401608:	push   0x0
  40160a:	sub    DWORD PTR [esp],ecx
  40160d:	mov    ecx,0xfffffffc
  401612:	sub    ebx,ecx
  401614:	sub    esi,ecx
  401616:	pop    ecx
  401617:	jmp    0x4015ef
  401619:	push   eax
  40161a:	mov    eax,0x0
  40161f:	push   eax
  401620:	mov    eax,0x404024
  401625:	call   DWORD PTR [eax]
  401627:	pop    eax
  401628:	sub    esp,0xffffffb0
  40162b:	pop    ebp
  40162c:	ret    
	...
  40167d:	add    BYTE PTR [eax],al
  40167f:	add    BYTE PTR [ebx-0x1374aa01],cl
  401685:	sub    esp,0x2c
  401688:	push   eax
  401689:	push   0x0
  40168b:	mov    eax,0x404074
  401690:	call   DWORD PTR [eax]
  401692:	pop    eax
  401693:	push   eax
  401694:	push   DWORD PTR [eax+0x2dc]
  40169a:	push   ebx
  40169b:	push   ebx
  40169c:	call   0x4016c0
  4016a1:	add    esp,0xc
  4016a4:	pop    eax
  4016a5:	push   eax
  4016a6:	mov    ecx,0x0
  4016ab:	push   ecx
  4016ac:	mov    eax,0x404004
  4016b1:	call   DWORD PTR [eax]
  4016b3:	pop    eax
  4016b4:	sub    esp,0xffffffd4
  4016b7:	mov    ebp,DWORD PTR [esp]
  4016ba:	add    esp,0x4
  4016bd:	ret    
  4016be:	add    BYTE PTR [eax],al
  4016c0:	mov    edi,edi
  4016c2:	push   ebp
  4016c3:	mov    ebp,esp
  4016c5:	sub    esp,0x20
  4016c8:	push   eax
  4016c9:	push   DWORD PTR [eax+0x288]
  4016cf:	push   esi
  4016d0:	push   DWORD PTR [eax+0x268]
  4016d6:	push   DWORD PTR [eax+0x114]
  4016dc:	call   0x401ea0
  4016e1:	add    esp,0x10
  4016e4:	pop    eax
  4016e5:	push   eax
  4016e6:	push   0x0
  4016e8:	mov    eax,0x404004
  4016ed:	call   DWORD PTR [eax]
  4016ef:	pop    eax
  4016f0:	push   eax
  4016f1:	mov    ecx,0x0
  4016f6:	push   ecx
  4016f7:	mov    eax,0x404004
  4016fc:	call   DWORD PTR [eax]
  4016fe:	pop    eax
  4016ff:	sub    esp,0xffffffe0
  401702:	mov    ebp,DWORD PTR [esp]
  401705:	add    esp,0x4
  401708:	ret    
	...
  401759:	add    BYTE PTR [eax],al
  40175b:	add    BYTE PTR [ebx-0x1374aa01],cl
  401761:	sub    esp,0x4c
  401764:	push   eax
  401765:	push   ecx
  401766:	push   DWORD PTR [eax+0x28c]
  40176c:	push   ebx
  40176d:	call   0x401cc0
  401772:	add    esp,0xc
  401775:	pop    eax
  401776:	push   eax
  401777:	mov    eax,0x0
  40177c:	push   eax
  40177d:	mov    eax,0x404070
  401782:	call   DWORD PTR [eax]
  401784:	pop    eax
  401785:	push   eax
  401786:	mov    eax,0x404038
  40178b:	call   DWORD PTR [eax]
  40178d:	pop    eax
  40178e:	sub    esp,0xffffffb4
  401791:	mov    ebp,DWORD PTR [esp]
  401794:	add    esp,0x4
  401797:	ret    
  401798:	mov    edi,edi
  40179a:	push   ebp
  40179b:	mov    ebp,esp
  40179d:	sub    esp,0x4c
  4017a0:	push   eax
  4017a1:	push   0x0
  4017a3:	mov    eax,0x404034
  4017a8:	call   DWORD PTR [eax]
  4017aa:	pop    eax
  4017ab:	push   eax
  4017ac:	push   DWORD PTR [eax+0x14]
  4017af:	push   edi
  4017b0:	push   esi
  4017b1:	call   0x401910
  4017b6:	add    esp,0xc
  4017b9:	pop    eax
  4017ba:	push   eax
  4017bb:	mov    eax,0x404038
  4017c0:	call   DWORD PTR [eax]
  4017c2:	pop    eax
  4017c3:	sub    esp,0xffffffb4
  4017c6:	mov    ebp,DWORD PTR [esp]
  4017c9:	add    esp,0x4
  4017cc:	ret    
	...
  40186d:	add    BYTE PTR [eax],al
  40186f:	add    BYTE PTR [eax+0x33],ah
  401872:	rcl    BYTE PTR [edx-0x1],cl
  401875:	adc    eax,0x404070
  40187a:	mov    eax,0x404098
  40187f:	sub    eax,0x1
  401882:	push   0x0
  401884:	call   DWORD PTR [eax+0x1]
  401887:	xor    edx,edx
  401889:	add    edx,0x458200
  40188f:	dec    dh
  401891:	push   edx
  401892:	lea    ecx,[edx+0xc]
  401895:	add    BYTE PTR [ecx],0x4
  401898:	push   edx
  401899:	call   DWORD PTR ds:0x40400c
  40189f:	mov    ecx,eax
  4018a1:	mov    cl,0x3c
  4018a3:	mov    ecx,DWORD PTR [ecx]
  4018a5:	mov    ecx,DWORD PTR [eax+ecx*1+0x1c]
  4018a9:	ror    ecx,0xc
  4018ac:	mov    eax,ecx
  4018ae:	cmp    al,0x10
  4018b0:	pop    eax
  4018b1:	jb     0x401120
  4018b7:	ja     0x401124
  4018bd:	ret    
	...
  40190e:	add    BYTE PTR [eax],al
  401910:	mov    edi,edi
  401912:	push   ebp
  401913:	mov    ebp,esp
  401915:	sub    esp,0x40
  401918:	push   eax
  401919:	push   ecx
  40191a:	push   DWORD PTR [eax+0x240]
  401920:	push   DWORD PTR [eax+0x11c]
  401926:	call   0x402320
  40192b:	add    esp,0xc
  40192e:	pop    eax
  40192f:	push   eax
  401930:	mov    eax,0x0
  401935:	push   eax
  401936:	mov    eax,0x404040
  40193b:	call   DWORD PTR [eax]
  40193d:	pop    eax
  40193e:	push   eax
  40193f:	mov    edx,0x0
  401944:	push   edx
  401945:	mov    eax,0x404040
  40194a:	call   DWORD PTR [eax]
  40194c:	pop    eax
  40194d:	sub    esp,0xffffffc0
  401950:	mov    ebp,DWORD PTR [esp]
  401953:	add    esp,0x4
  401956:	ret    
	...
  4019a7:	add    BYTE PTR [ebx-0x1374aa01],cl
  4019ad:	sub    esp,0x24
  4019b0:	push   eax
  4019b1:	push   DWORD PTR [eax+0x284]
  4019b7:	push   edx
  4019b8:	push   ecx
  4019b9:	push   esi
  4019ba:	call   0x40275c
  4019bf:	add    esp,0x10
  4019c2:	pop    eax
  4019c3:	push   eax
  4019c4:	mov    eax,0x404038
  4019c9:	call   DWORD PTR [eax]
  4019cb:	pop    eax
  4019cc:	push   eax
  4019cd:	mov    edx,0x0
  4019d2:	push   edx
  4019d3:	mov    eax,0x404008
  4019d8:	call   DWORD PTR [eax]
  4019da:	pop    eax
  4019db:	sub    esp,0xffffffdc
  4019de:	mov    ebp,DWORD PTR [esp]
  4019e1:	add    esp,0x4
  4019e4:	ret    
  4019e5:	add    BYTE PTR [eax],al
  4019e7:	add    BYTE PTR [ebx-0x1374aa01],cl
  4019ed:	sub    esp,0x58
  4019f0:	push   eax
  4019f1:	mov    eax,0x0
  4019f6:	push   eax
  4019f7:	mov    eax,0x404034
  4019fc:	call   DWORD PTR [eax]
  4019fe:	pop    eax
  4019ff:	push   eax
  401a00:	push   ecx
  401a01:	push   DWORD PTR [eax+0x2f8]
  401a07:	push   esi
  401a08:	call   0x40262c
  401a0d:	add    esp,0xc
  401a10:	pop    eax
  401a11:	push   eax
  401a12:	mov    eax,0x404038
  401a17:	call   DWORD PTR [eax]
  401a19:	pop    eax
  401a1a:	sub    esp,0xffffffa8
  401a1d:	mov    ebp,DWORD PTR [esp]
  401a20:	add    esp,0x4
  401a23:	ret    
	...
  401ac4:	mov    edi,edi
  401ac6:	push   ebp
  401ac7:	mov    ebp,esp
  401ac9:	sub    esp,0x40
  401acc:	push   eax
  401acd:	push   DWORD PTR [eax+0x1dc]
  401ad3:	push   DWORD PTR [eax+0x2d0]
  401ad9:	push   DWORD PTR [eax+0xd8]
  401adf:	call   0x401380
  401ae4:	add    esp,0xc
  401ae7:	pop    eax
  401ae8:	push   eax
  401ae9:	mov    eax,0x0
  401aee:	push   eax
  401aef:	mov    eax,0x404008
  401af4:	call   DWORD PTR [eax]
  401af6:	pop    eax
  401af7:	push   eax
  401af8:	mov    eax,0x0
  401afd:	push   eax
  401afe:	mov    eax,0x404034
  401b03:	call   DWORD PTR [eax]
  401b05:	pop    eax
  401b06:	sub    esp,0xffffffc0
  401b09:	mov    ebp,DWORD PTR [esp]
  401b0c:	add    esp,0x4
  401b0f:	ret    
  401b10:	mov    edi,edi
  401b12:	push   ebp
  401b13:	mov    ebp,esp
  401b15:	sub    esp,0x20
  401b18:	push   eax
  401b19:	push   DWORD PTR [eax+0x1dc]
  401b1f:	push   DWORD PTR [eax+0x1b8]
  401b25:	call   0x4011e8
  401b2a:	add    esp,0x8
  401b2d:	pop    eax
  401b2e:	push   eax
  401b2f:	push   0x0
  401b31:	mov    eax,0x404008
  401b36:	call   DWORD PTR [eax]
  401b38:	pop    eax
  401b39:	push   eax
  401b3a:	mov    ecx,0x0
  401b3f:	push   ecx
  401b40:	mov    eax,0x404070
  401b45:	call   DWORD PTR [eax]
  401b47:	pop    eax
  401b48:	sub    esp,0xffffffe0
  401b4b:	mov    ebp,DWORD PTR [esp]
  401b4e:	add    esp,0x4
  401b51:	ret    
  401b52:	add    BYTE PTR [eax],al
  401b54:	mov    edi,edi
  401b56:	push   ebp
  401b57:	mov    ebp,esp
  401b59:	sub    esp,0x34
  401b5c:	push   eax
  401b5d:	lea    ebx,[eax-0x100]
  401b63:	push   ebx
  401b64:	mov    eax,0x404020
  401b69:	call   DWORD PTR [eax]
  401b6b:	test   eax,eax
  401b6d:	jne    0x401b5d
  401b6f:	pop    eax
  401b70:	push   eax
  401b71:	push   ebx
  401b72:	push   edx
  401b73:	push   DWORD PTR [eax+0x2b8]
  401b79:	call   0x40133c
  401b7e:	add    esp,0xc
  401b81:	pop    eax
  401b82:	push   eax
  401b83:	lea    esi,[eax-0x100]
  401b89:	push   esi
  401b8a:	mov    eax,0x404020
  401b8f:	call   DWORD PTR [eax]
  401b91:	test   eax,eax
  401b93:	jne    0x401b83
  401b95:	pop    eax
  401b96:	sub    esp,0xffffffcc
  401b99:	mov    ebp,DWORD PTR [esp]
  401b9c:	add    esp,0x4
  401b9f:	ret    
	...
  401bf0:	mov    edi,edi
  401bf2:	push   ebp
  401bf3:	mov    ebp,esp
  401bf5:	sub    esp,0x2c
  401bf8:	push   eax
  401bf9:	push   edi
  401bfa:	push   ebx
  401bfb:	call   0x4010d4
  401c00:	add    esp,0x8
  401c03:	pop    eax
  401c04:	push   eax
  401c05:	mov    eax,0x404018
  401c0a:	call   DWORD PTR [eax]
  401c0c:	pop    eax
  401c0d:	push   eax
  401c0e:	push   0x0
  401c10:	mov    eax,0x40401c
  401c15:	call   DWORD PTR [eax]
  401c17:	pop    eax
  401c18:	sub    esp,0xffffffd4
  401c1b:	mov    ebp,DWORD PTR [esp]
  401c1e:	add    esp,0x4
  401c21:	ret    
  401c22:	add    BYTE PTR [eax],al
  401c24:	mov    edi,edi
  401c26:	push   ebp
  401c27:	mov    ebp,esp
  401c29:	sub    esp,0x38
  401c2c:	push   eax
  401c2d:	mov    edx,0x0
  401c32:	push   edx
  401c33:	mov    eax,0x404004
  401c38:	call   DWORD PTR [eax]
  401c3a:	pop    eax
  401c3b:	push   eax
  401c3c:	push   DWORD PTR [eax+0x360]
  401c42:	push   DWORD PTR [eax+0xd8]
  401c48:	call   0x402880
  401c4d:	add    esp,0x8
  401c50:	pop    eax
  401c51:	push   eax
  401c52:	lea    ecx,[eax-0x100]
  401c58:	push   ecx
  401c59:	mov    eax,0x404020
  401c5e:	call   DWORD PTR [eax]
  401c60:	test   eax,eax
  401c62:	jne    0x401c52
  401c64:	pop    eax
  401c65:	sub    esp,0xffffffc8
  401c68:	mov    ebp,DWORD PTR [esp]
  401c6b:	add    esp,0x4
  401c6e:	ret    
	...
  401cbf:	add    BYTE PTR [ebx-0x1374aa01],cl
  401cc5:	sub    esp,0x40
  401cc8:	push   eax
  401cc9:	mov    eax,0x0
  401cce:	push   eax
  401ccf:	mov    eax,0x404044
  401cd4:	call   DWORD PTR [eax]
  401cd6:	pop    eax
  401cd7:	push   eax
  401cd8:	push   ecx
  401cd9:	push   DWORD PTR [eax+0x3e8]
  401cdf:	push   edx
  401ce0:	push   ebx
  401ce1:	call   0x402598
  401ce6:	add    esp,0x10
  401ce9:	pop    eax
  401cea:	push   eax
  401ceb:	mov    eax,0x404038
  401cf0:	call   DWORD PTR [eax]
  401cf2:	pop    eax
  401cf3:	sub    esp,0xffffffc0
  401cf6:	mov    ebp,DWORD PTR [esp]
  401cf9:	add    esp,0x4
  401cfc:	ret    
  401cfd:	add    BYTE PTR [eax],al
  401cff:	add    BYTE PTR [ebx-0x1374aa01],cl
  401d05:	sub    esp,0x24
  401d08:	push   eax
  401d09:	push   edx
  401d0a:	push   DWORD PTR [eax+0x21c]
  401d10:	push   ecx
  401d11:	call   0x401410
  401d16:	add    esp,0xc
  401d19:	pop    eax
  401d1a:	push   eax
  401d1b:	mov    edi,0x0
  401d20:	push   edi
  401d21:	mov    eax,0x404034
  401d26:	call   DWORD PTR [eax]
  401d28:	pop    eax
  401d29:	push   eax
  401d2a:	mov    eax,0x0
  401d2f:	push   eax
  401d30:	mov    eax,0x404024
  401d35:	call   DWORD PTR [eax]
  401d37:	pop    eax
  401d38:	sub    esp,0xffffffdc
  401d3b:	mov    ebp,DWORD PTR [esp]
  401d3e:	add    esp,0x4
  401d41:	ret    
	...
  401de2:	add    BYTE PTR [eax],al
  401de4:	mov    edi,edi
  401de6:	push   ebp
  401de7:	mov    ebp,esp
  401de9:	sub    esp,0x28
  401dec:	push   eax
  401ded:	mov    eax,0x0
  401df2:	push   eax
  401df3:	mov    eax,0x404070
  401df8:	call   DWORD PTR [eax]
  401dfa:	pop    eax
  401dfb:	push   eax
  401dfc:	push   ebx
  401dfd:	push   DWORD PTR [eax+0x1b8]
  401e03:	call   0x4012bc
  401e08:	add    esp,0x8
  401e0b:	pop    eax
  401e0c:	push   eax
  401e0d:	mov    ecx,0x0
  401e12:	push   ecx
  401e13:	mov    eax,0x404070
  401e18:	call   DWORD PTR [eax]
  401e1a:	pop    eax
  401e1b:	sub    esp,0xffffffd8
  401e1e:	mov    ebp,DWORD PTR [esp]
  401e21:	add    esp,0x4
  401e24:	ret    
  401e25:	add    BYTE PTR [eax],al
  401e27:	add    BYTE PTR [ebx-0x1374aa01],cl
  401e2d:	sub    esp,0x38
  401e30:	push   eax
  401e31:	mov    eax,0x40402c
  401e36:	call   DWORD PTR [eax]
  401e38:	pop    eax
  401e39:	push   eax
  401e3a:	push   edx
  401e3b:	push   ecx
  401e3c:	push   DWORD PTR [eax+0x15c]
  401e42:	push   ecx
  401e43:	call   0x4020e8
  401e48:	add    esp,0x10
  401e4b:	pop    eax
  401e4c:	push   eax
  401e4d:	mov    eax,0x404018
  401e52:	call   DWORD PTR [eax]
  401e54:	pop    eax
  401e55:	sub    esp,0xffffffc8
  401e58:	mov    ebp,DWORD PTR [esp]
  401e5b:	add    esp,0x4
  401e5e:	ret    
  401e5f:	add    BYTE PTR [ebx-0x1374aa01],cl
  401e65:	sub    esp,0x58
  401e68:	push   eax
  401e69:	push   edx
  401e6a:	push   ecx
  401e6b:	push   DWORD PTR [eax+0x3f4]
  401e71:	call   0x4019a8
  401e76:	add    esp,0xc
  401e79:	pop    eax
  401e7a:	push   eax
  401e7b:	mov    eax,0x0
  401e80:	push   eax
  401e81:	mov    eax,0x404040
  401e86:	call   DWORD PTR [eax]
  401e88:	pop    eax
  401e89:	push   eax
  401e8a:	push   0x0
  401e8c:	mov    eax,0x404008
  401e91:	call   DWORD PTR [eax]
  401e93:	pop    eax
  401e94:	sub    esp,0xffffffa8
  401e97:	mov    ebp,DWORD PTR [esp]
  401e9a:	add    esp,0x4
  401e9d:	ret    
  401e9e:	add    BYTE PTR [eax],al
  401ea0:	mov    edi,edi
  401ea2:	push   ebp
  401ea3:	mov    ebp,esp
  401ea5:	sub    esp,0x2c
  401ea8:	push   eax
  401ea9:	push   DWORD PTR [eax+0x12c]
  401eaf:	push   DWORD PTR [eax+0x14c]
  401eb5:	push   ecx
  401eb6:	call   0x402120
  401ebb:	add    esp,0xc
  401ebe:	pop    eax
  401ebf:	push   eax
  401ec0:	mov    eax,0x404018
  401ec5:	call   DWORD PTR [eax]
  401ec7:	pop    eax
  401ec8:	push   eax
  401ec9:	push   0x0
  401ecb:	mov    eax,0x404034
  401ed0:	call   DWORD PTR [eax]
  401ed2:	pop    eax
  401ed3:	sub    esp,0xffffffd4
  401ed6:	mov    ebp,DWORD PTR [esp]
  401ed9:	add    esp,0x4
  401edc:	ret    
  401edd:	add    BYTE PTR [eax],al
  401edf:	add    BYTE PTR [ebx-0x1374aa01],cl
  401ee5:	sub    esp,0x40
  401ee8:	push   eax
  401ee9:	push   ecx
  401eea:	push   edx
  401eeb:	push   DWORD PTR [eax+0x35c]
  401ef1:	call   0x4012f8
  401ef6:	add    esp,0xc
  401ef9:	pop    eax
  401efa:	push   eax
  401efb:	push   0x0
  401efd:	mov    eax,0x404024
  401f02:	call   DWORD PTR [eax]
  401f04:	pop    eax
  401f05:	push   eax
  401f06:	mov    ebx,0x0
  401f0b:	push   ebx
  401f0c:	mov    eax,0x404024
  401f11:	call   DWORD PTR [eax]
  401f13:	pop    eax
  401f14:	sub    esp,0xffffffc0
  401f17:	mov    ebp,DWORD PTR [esp]
  401f1a:	add    esp,0x4
  401f1d:	ret    
	...
  401fbe:	add    BYTE PTR [eax],al
  401fc0:	mov    edi,edi
  401fc2:	push   ebp
  401fc3:	mov    ebp,esp
  401fc5:	sub    esp,0x60
  401fc8:	push   eax
  401fc9:	push   esi
  401fca:	push   ecx
  401fcb:	push   ecx
  401fcc:	call   0x401680
  401fd1:	add    esp,0xc
  401fd4:	pop    eax
  401fd5:	push   eax
  401fd6:	mov    edx,0x0
  401fdb:	push   edx
  401fdc:	mov    eax,0x404074
  401fe1:	call   DWORD PTR [eax]
  401fe3:	pop    eax
  401fe4:	push   eax
  401fe5:	mov    edx,0x0
  401fea:	push   edx
  401feb:	mov    eax,0x404024
  401ff0:	call   DWORD PTR [eax]
  401ff2:	pop    eax
  401ff3:	sub    esp,0xffffffa0
  401ff6:	mov    ebp,DWORD PTR [esp]
  401ff9:	add    esp,0x4
  401ffc:	ret    
  401ffd:	add    BYTE PTR [eax],al
  401fff:	add    BYTE PTR [ebx-0x1374aa01],cl
  402005:	sub    esp,0x44
  402008:	push   eax
  402009:	push   0x0
  40200b:	mov    eax,0x404034
  402010:	call   DWORD PTR [eax]
  402012:	pop    eax
  402013:	push   eax
  402014:	push   DWORD PTR [eax+0x1c]
  402017:	push   DWORD PTR [eax+0x384]
  40201d:	push   DWORD PTR [eax+0x1c0]
  402023:	call   0x401e28
  402028:	add    esp,0xc
  40202b:	pop    eax
  40202c:	push   eax
  40202d:	mov    esi,0x0
  402032:	push   esi
  402033:	mov    eax,0x404044
  402038:	call   DWORD PTR [eax]
  40203a:	pop    eax
  40203b:	sub    esp,0xffffffbc
  40203e:	mov    ebp,DWORD PTR [esp]
  402041:	add    esp,0x4
  402044:	ret    
	...
  4020e5:	add    BYTE PTR [eax],al
  4020e7:	add    BYTE PTR [ebx-0x1374aa01],cl
  4020ed:	sub    esp,0x3c
  4020f0:	push   eax
  4020f1:	push   DWORD PTR [eax+0x3c]
  4020f4:	push   esi
  4020f5:	call   0x4021b0
  4020fa:	add    esp,0x8
  4020fd:	pop    eax
  4020fe:	push   eax
  4020ff:	mov    eax,0x404038
  402104:	call   DWORD PTR [eax]
  402106:	pop    eax
  402107:	push   eax
  402108:	mov    eax,0x0
  40210d:	push   eax
  40210e:	mov    eax,0x404040
  402113:	call   DWORD PTR [eax]
  402115:	pop    eax
  402116:	sub    esp,0xffffffc4
  402119:	mov    ebp,DWORD PTR [esp]
  40211c:	add    esp,0x4
  40211f:	ret    
  402120:	mov    edi,edi
  402122:	push   ebp
  402123:	mov    ebp,esp
  402125:	sub    esp,0x2c
  402128:	push   eax
  402129:	mov    eax,0x0
  40212e:	push   eax
  40212f:	mov    eax,0x404044
  402134:	call   DWORD PTR [eax]
  402136:	pop    eax
  402137:	push   eax
  402138:	push   edx
  402139:	push   ebx
  40213a:	push   DWORD PTR [eax+0xc0]
  402140:	push   edx
  402141:	call   0x402664
  402146:	add    esp,0x10
  402149:	pop    eax
  40214a:	push   eax
  40214b:	mov    eax,0x404018
  402150:	call   DWORD PTR [eax]
  402152:	pop    eax
  402153:	sub    esp,0xffffffd4
  402156:	mov    ebp,DWORD PTR [esp]
  402159:	add    esp,0x4
  40215c:	ret    
	...
  4021ad:	add    BYTE PTR [eax],al
  4021af:	add    BYTE PTR [ebx-0x1374aa01],cl
  4021b5:	sub    esp,0x4c
  4021b8:	push   eax
  4021b9:	push   esi
  4021ba:	push   ecx
  4021bb:	call   0x401050
  4021c0:	add    esp,0x8
  4021c3:	pop    eax
  4021c4:	push   eax
  4021c5:	mov    ebx,0x0
  4021ca:	push   ebx
  4021cb:	mov    eax,0x404004
  4021d0:	call   DWORD PTR [eax]
  4021d2:	pop    eax
  4021d3:	push   eax
  4021d4:	mov    ebx,0x0
  4021d9:	push   ebx
  4021da:	mov    eax,0x404010
  4021df:	call   DWORD PTR [eax]
  4021e1:	pop    eax
  4021e2:	sub    esp,0xffffffb4
  4021e5:	mov    ebp,DWORD PTR [esp]
  4021e8:	add    esp,0x4
  4021eb:	ret    
  4021ec:	mov    edi,edi
  4021ee:	push   ebp
  4021ef:	mov    ebp,esp
  4021f1:	sub    esp,0x4c
  4021f4:	push   eax
  4021f5:	mov    eax,0x40402c
  4021fa:	call   DWORD PTR [eax]
  4021fc:	pop    eax
  4021fd:	push   eax
  4021fe:	push   DWORD PTR [eax+0x334]
  402204:	push   ecx
  402205:	push   DWORD PTR [eax+0x1f4]
  40220b:	push   DWORD PTR [eax+0x108]
  402211:	call   0x401098
  402216:	add    esp,0x10
  402219:	pop    eax
  40221a:	push   eax
  40221b:	push   0x0
  40221d:	mov    eax,0x404008
  402222:	call   DWORD PTR [eax]
  402224:	pop    eax
  402225:	sub    esp,0xffffffb4
  402228:	mov    ebp,DWORD PTR [esp]
  40222b:	add    esp,0x4
  40222e:	ret    
	...
  40231f:	add    BYTE PTR [ebx-0x1374aa01],cl
  402325:	sub    esp,0x5c
  402328:	push   eax
  402329:	mov    ecx,0x0
  40232e:	push   ecx
  40232f:	mov    eax,0x404010
  402334:	call   DWORD PTR [eax]
  402336:	pop    eax
  402337:	push   eax
  402338:	push   ebx
  402339:	push   edi
  40233a:	push   DWORD PTR [eax+0xc8]
  402340:	push   DWORD PTR [eax+0x394]
  402346:	call   0x401bf0
  40234b:	add    esp,0x10
  40234e:	pop    eax
  40234f:	push   eax
  402350:	mov    ebx,0x0
  402355:	push   ebx
  402356:	mov    eax,0x404044
  40235b:	call   DWORD PTR [eax]
  40235d:	pop    eax
  40235e:	sub    esp,0xffffffa4
  402361:	mov    ebp,DWORD PTR [esp]
  402364:	add    esp,0x4
  402367:	ret    
	...
  402598:	mov    edi,edi
  40259a:	push   ebp
  40259b:	mov    ebp,esp
  40259d:	sub    esp,0x30
  4025a0:	push   eax
  4025a1:	push   edx
  4025a2:	push   DWORD PTR [eax+0x25c]
  4025a8:	push   DWORD PTR [eax+0x1d8]
  4025ae:	push   DWORD PTR [eax+0x4]
  4025b1:	call   0x40283c
  4025b6:	add    esp,0x10
  4025b9:	pop    eax
  4025ba:	push   eax
  4025bb:	mov    eax,0x40402c
  4025c0:	call   DWORD PTR [eax]
  4025c2:	pop    eax
  4025c3:	push   eax
  4025c4:	mov    edi,0x0
  4025c9:	push   edi
  4025ca:	mov    eax,0x40401c
  4025cf:	call   DWORD PTR [eax]
  4025d1:	pop    eax
  4025d2:	sub    esp,0xffffffd0
  4025d5:	mov    ebp,DWORD PTR [esp]
  4025d8:	add    esp,0x4
  4025db:	ret    
	...
  40262c:	mov    edi,edi
  40262e:	push   ebp
  40262f:	mov    ebp,esp
  402631:	sub    esp,0x40
  402634:	push   eax
  402635:	push   0x0
  402637:	mov    eax,0x404004
  40263c:	call   DWORD PTR [eax]
  40263e:	pop    eax
  40263f:	push   eax
  402640:	push   edi
  402641:	push   edx
  402642:	push   DWORD PTR [eax+0x300]
  402648:	call   0x401798
  40264d:	add    esp,0xc
  402650:	pop    eax
  402651:	push   eax
  402652:	mov    eax,0x404018
  402657:	call   DWORD PTR [eax]
  402659:	pop    eax
  40265a:	sub    esp,0xffffffc0
  40265d:	mov    ebp,DWORD PTR [esp]
  402660:	add    esp,0x4
  402663:	ret    
  402664:	mov    edi,edi
  402666:	push   ebp
  402667:	mov    ebp,esp
  402669:	sub    esp,0x60
  40266c:	push   eax
  40266d:	push   0x0
  40266f:	mov    eax,0x404074
  402674:	call   DWORD PTR [eax]
  402676:	pop    eax
  402677:	push   eax
  402678:	push   ebx
  402679:	push   DWORD PTR [eax+0x38c]
  40267f:	call   0x4021ec
  402684:	add    esp,0x8
  402687:	pop    eax
  402688:	push   eax
  402689:	mov    edi,0x0
  40268e:	push   edi
  40268f:	mov    eax,0x404034
  402694:	call   DWORD PTR [eax]
  402696:	pop    eax
  402697:	sub    esp,0xffffffa0
  40269a:	mov    ebp,DWORD PTR [esp]
  40269d:	add    esp,0x4
  4026a0:	ret    
  4026a1:	add    BYTE PTR [eax],al
  4026a3:	add    BYTE PTR [ebx-0x1374aa01],cl
  4026a9:	sub    esp,0x44
  4026ac:	push   eax
  4026ad:	push   0x0
  4026af:	mov    eax,0x40406c
  4026b4:	call   DWORD PTR [eax]
  4026b6:	pop    eax
  4026b7:	push   eax
  4026b8:	push   DWORD PTR [eax+0x5c]
  4026bb:	push   ecx
  4026bc:	call   0x401b54
  4026c1:	add    esp,0x8
  4026c4:	pop    eax
  4026c5:	push   eax
  4026c6:	mov    eax,0x404018
  4026cb:	call   DWORD PTR [eax]
  4026cd:	pop    eax
  4026ce:	sub    esp,0xffffffbc
  4026d1:	mov    ebp,DWORD PTR [esp]
  4026d4:	add    esp,0x4
  4026d7:	ret    
	...
  402728:	mov    edi,edi
  40272a:	push   ebp
  40272b:	mov    ebp,esp
  40272d:	sub    esp,0x24
  402730:	push   eax
  402731:	mov    eax,0x40402c
  402736:	call   DWORD PTR [eax]
  402738:	pop    eax
  402739:	push   eax
  40273a:	push   edx
  40273b:	push   edi
  40273c:	call   0x401fc0
  402741:	add    esp,0x8
  402744:	pop    eax
  402745:	push   eax
  402746:	push   0x0
  402748:	mov    eax,0x404040
  40274d:	call   DWORD PTR [eax]
  40274f:	pop    eax
  402750:	sub    esp,0xffffffdc
  402753:	mov    ebp,DWORD PTR [esp]
  402756:	add    esp,0x4
  402759:	ret    
  40275a:	add    BYTE PTR [eax],al
  40275c:	mov    edi,edi
  40275e:	push   ebp
  40275f:	mov    ebp,esp
  402761:	sub    esp,0x40
  402764:	push   eax
  402765:	push   0x0
  402767:	mov    eax,0x404008
  40276c:	call   DWORD PTR [eax]
  40276e:	pop    eax
  40276f:	push   eax
  402770:	push   DWORD PTR [eax+0x2e4]
  402776:	push   ebx
  402777:	push   esi
  402778:	call   0x401ac4
  40277d:	add    esp,0xc
  402780:	pop    eax
  402781:	push   eax
  402782:	mov    eax,0x0
  402787:	push   eax
  402788:	mov    eax,0x40401c
  40278d:	call   DWORD PTR [eax]
  40278f:	pop    eax
  402790:	sub    esp,0xffffffc0
  402793:	mov    ebp,DWORD PTR [esp]
  402796:	add    esp,0x4
  402799:	ret    
	...
  40283a:	add    BYTE PTR [eax],al
  40283c:	mov    edi,edi
  40283e:	push   ebp
  40283f:	mov    ebp,esp
  402841:	sub    esp,0x50
  402844:	push   eax
  402845:	lea    ebx,[eax-0x100]
  40284b:	push   ebx
  40284c:	mov    eax,0x404020
  402851:	call   DWORD PTR [eax]
  402853:	test   eax,eax
  402855:	jne    0x402845
  402857:	pop    eax
  402858:	push   eax
  402859:	push   edi
  40285a:	push   ecx
  40285b:	push   DWORD PTR [eax+0x3b4]
  402861:	call   0x401de4
  402866:	add    esp,0xc
  402869:	pop    eax
  40286a:	push   eax
  40286b:	push   0x0
  40286d:	mov    eax,0x404010
  402872:	call   DWORD PTR [eax]
  402874:	pop    eax
  402875:	sub    esp,0xffffffb0
  402878:	mov    ebp,DWORD PTR [esp]
  40287b:	add    esp,0x4
  40287e:	ret    
  40287f:	add    BYTE PTR [ebx-0x1374aa01],cl
  402885:	sub    esp,0x30
  402888:	push   eax
  402889:	push   edx
  40288a:	push   ebx
  40288b:	call   0x40175c
  402890:	add    esp,0x8
  402893:	pop    eax
  402894:	push   eax
  402895:	mov    ebx,0x0
  40289a:	push   ebx
  40289b:	mov    eax,0x40401c
  4028a0:	call   DWORD PTR [eax]
  4028a2:	pop    eax
  4028a3:	push   eax
  4028a4:	push   0x0
  4028a6:	mov    eax,0x404034
  4028ab:	call   DWORD PTR [eax]
  4028ad:	pop    eax
  4028ae:	sub    esp,0xffffffd0
  4028b1:	mov    ebp,DWORD PTR [esp]
  4028b4:	add    esp,0x4
  4028b7:	ret    
	...
  4029a8:	sub    eax,0xffffff80
  4029ab:	push   0x3ff5eafc
  4029b0:	minps  xmm3,XMMWORD PTR [ebp-0x5e]
  4029b4:	arpl   si,bx
  4029b6:	jnp    0x4029d6
  4029b8:	test   ah,al
  4029ba:	sti    
  4029bb:	clc    
  4029bc:	stc    
  4029bd:	(bad)  
  4029be:	sub    esi,DWORD PTR [eax+eax*2+0x5f]
  4029c2:	adc    BYTE PTR [ecx],0x79
  4029c5:	movs   DWORD PTR es:[edi],DWORD PTR ds:[esi]
  4029c6:	xchg   ecx,eax
  4029c7:	adc    DWORD PTR [ebp-0x6d1621c0],ecx
  4029cd:	xor    DWORD PTR ds:0xaeea22a5,esp
  4029d3:	add    eax,0x73099fa9
  4029d8:	pop    ds
  4029d9:	sub    ecx,DWORD PTR [ebx]
  4029db:	mov    ecx,ds
  4029dd:	and    cl,BYTE PTR [edi+0x2d]
  4029e0:	jbe    0x402967
  4029e2:	pop    ebx
  4029e3:	aad    0xfe
  4029e5:	and    esi,ecx
  4029e7:	cmps   BYTE PTR ds:[esi],BYTE PTR es:[edi]
  4029e8:	xor    ebx,esp
  4029ea:	jbe    0x402a09
  4029ec:	or     bh,BYTE PTR [ebx+0x67287ea2]
  4029f2:	movs   BYTE PTR es:[edi],BYTE PTR ds:[esi]
  4029f3:	push   edi
  4029f4:	dec    ebp
  4029f5:	mov    cs,WORD PTR [edi+0x26]
  4029f8:	jbe    0x40297f
  4029fa:	pop    ebx
  4029fb:	push   esp
  4029fc:	mov    bl,0x6b
  4029fe:	dec    esp
  4029ff:	dec    esi
  402a00:	sbb    dh,BYTE PTR [esi+0x16edfa69]
  402a06:	retf   
  402a07:	sub    ebp,DWORD PTR [esi]
  402a09:	aad    0xd8
  402a0b:	aam    0x42
  402a0d:	push   eax
  402a0e:	les    ebp,FWORD PTR [esi+0xcd65389]
  402a14:	mov    bh,BYTE PTR [ecx]
  402a16:	fwait
  402a17:	stos   BYTE PTR es:[edi],al
  402a18:	push   cs
  402a19:	aad    0x5b
  402a1b:	push   esp
  402a1c:	lea    edi,[edx-0x2f]
  402a1f:	add    BYTE PTR [esi-0x762ba389],bl
  402a25:	daa    
  402a26:	sub    bl,dh
  402a28:	iret   
  402a29:	xchg   ebp,eax
  402a2a:	pop    ebx
  402a2b:	aam    0x89
  402a2d:	xlat   BYTE PTR ds:[ebx]
  402a2e:	dec    edi
  402a2f:	fnstenv [ebp+eax*4+0x5b]
  402a33:	pop    ebp
  402a34:	iret   
  402a35:	xchg   BYTE PTR [ebp-0x22],al
  402a38:	sbb    al,0xe6
  402a3a:	xor    edx,DWORD PTR [ebp+0x43d616e5]
  402a40:	ds loopne 0x402a7b
  402a43:	movs   BYTE PTR es:[edi],BYTE PTR ds:[esi]
  402a44:	(bad)  [ecx]
  402a46:	cmps   BYTE PTR ds:[esi],BYTE PTR es:[edi]
  402a47:	jge    0x402ac7
  402a49:	or     al,0x5d
  402a4b:	mov    esi,0x59e11289
  402a50:	adc    esp,eax
  402a52:	xor    ebx,DWORD PTR [esp+ebp*8+0x257fd71b]
  402a59:	jp     0x402a67
  402a5b:	fadd   QWORD PTR [eax]
  402a5d:	cmp    al,0xa3
  402a5f:	test   al,0xb2
  402a61:	popf   
  402a62:	xor    DWORD PTR [ecx+eiz*8+0x762bb77a],edx
  402a69:	in     eax,dx
  402a6a:	call   edx
  402a6c:	mov    DWORD PTR [edx-0x33],edi
  402a6f:	sub    ecx,DWORD PTR [ecx+0x715f4bd0]
  402a75:	jg     0x402a7d
  402a77:	sub    esi,DWORD PTR [esi-0x7b]
  402a7a:	or     ebx,DWORD PTR [ecx+0x3c]
  402a7d:	stos   BYTE PTR es:[edi],al
  402a7e:	pop    esp
  402a7f:	aam    0x89
  402a81:	cmp    al,0xff
  402a83:	ror    BYTE PTR [ecx-0x4a70ad86],cl
  402a89:	ins    DWORD PTR es:[edi],dx
  402a8a:	rcl    cl,1
  402a8c:	mov    DWORD PTR [edx-0x8],edi
  402a8f:	jne    0x402a82
  402a91:	mov    cl,0x7f
  402a93:	and    BYTE PTR [ecx-0x7d],0xa3
  402a97:	sub    esi,DWORD PTR [esi+0x6d]
  402a9a:	(bad)  
  402a9c:	mov    DWORD PTR [edx+0x2a],edi
  402a9f:	rcr    DWORD PTR [eax*4+0xf76d431],cl
  402aa6:	ret    
  402aa7:	jl     0x402a32
  402aa9:	shl    BYTE PTR [ebx+0x5f],1
  402aac:	les    edx,FWORD PTR [edx]
  402aae:	int    0x2b
  402ab0:	and    bl,ch
  402ab2:	pop    edx
  402ab3:	loope  0x402a62
  402ab5:	sub    dh,ah
  402ab7:	jge    0x402ada
  402ab9:	jp     0x402ac7
  402abb:	clc    
  402abc:	shr    DWORD PTR ds:0x6d6e7da6,1
  402ac2:	jo     0x402a9b
  402ac4:	mov    DWORD PTR [edx+0x2a],edi
  402ac7:	ins    DWORD PTR es:[edi],dx
  402ac8:	dec    edx
  402ac9:	or     BYTE PTR [edi-0x2e],bl
  402acc:	out    dx,eax
  402acd:	(bad)  
  402ace:	out    0x3d,eax
  402ad0:	jbe    0x402a77
  402ad2:	sub    al,0xc2
  402ad4:	mov    al,0x22
  402ad6:	xchg   ebx,eax
  402ad7:	pop    edi
  402ad8:	addr16 push cs
  402ada:	add    esp,eax
  402adc:	jecxz  0x402b5c
  402ade:	iret   
  402adf:	sub    eax,DWORD PTR [esi-0x7b]
  402ae2:	pop    ebx
  402ae3:	sub    edi,ecx
  402ae5:	sub    dh,dl
  402ae7:	aam    0x23
  402ae9:	xchg   ebp,eax
  402aea:	(bad)  
  402aeb:	test   eax,0x41f32ae5
  402af0:	jb     0x402ac4
  402af2:	push   cs
  402af3:	sub    ebx,esp
  402af5:	jbe    0x402aea
  402af7:	inc    ecx
  402af8:	je     0x402acc
  402afa:	push   cs
  402afb:	add    BYTE PTR [edx],0xb5
  402afe:	sub    dl,al
  402b00:	test   DWORD PTR [ecx],esp
  402b02:	add    eax,0xff76dc2b
  402b07:	mov    al,ds:0xe81086b8
  402b0c:	add    al,0x3
  402b0e:	mov    edi,0x4aa521a0
  402b13:	arpl   ax,cx
  402b15:	outs   dx,BYTE PTR ds:[esi]
  402b16:	mov    ds:0x103279d3,al
  402b1b:	shr    cl,cl
  402b1d:	icebp  
  402b1e:	out    dx,al
  402b1f:	aas    
  402b20:	repz inc ebp
  402b22:	das    
  402b23:	xchg   ebp,eax
  402b24:	add    bh,BYTE PTR ds:0xf1b6aeaf
  402b2a:	popa   
  402b2b:	cmp    al,0x18
  402b2d:	jle    0x402ad6
  402b2f:	sub    edi,ebp
  402b31:	dec    ebp
  402b32:	(bad)  
  402b33:	xchg   ebx,eax
  402b34:	lods   eax,DWORD PTR ds:[esi]
  402b35:	xchg   edx,eax
  402b36:	shr    BYTE PTR [ecx],1
  402b38:	jbe    0x402abf
  402b3a:	pop    esi
  402b3b:	mov    ds:0x3bde859d,eax
  402b40:	std    
  402b41:	cli    
  402b42:	push   edi
  402b43:	xlat   BYTE PTR ds:[ebx]
  402b44:	jb     0x402b67
  402b46:	mul    DWORD PTR [eax-0x7af4285e]
  402b4c:	fisubr WORD PTR [ebx]
  402b4e:	cmc    
  402b4f:	inc    ecx
  402b50:	jb     0x402b26
  402b52:	add    ch,BYTE PTR [ebx]
  402b54:	fdiv   QWORD PTR [esi-0x4]
  402b57:	sbb    BYTE PTR [esi-0x2981512e],dh
  402b5d:	icebp  
  402b5e:	push   0xffffffd8
  402b60:	sar    BYTE PTR [edx+0xc],cl
  402b63:	fcom   st(1)
  402b65:	sbb    esp,DWORD PTR [edx]
  402b67:	in     al,dx
  402b68:	pop    esi
  402b69:	addr16 call 0xa7bbadab
  402b6f:	sub    ebx,DWORD PTR [esi-0x762ba4fc]
  402b75:	and    cl,bh
  402b77:	sub    esi,DWORD PTR [esi]
  402b79:	test   DWORD PTR [ebx+0x2b],ebx
  402b7c:	cld    
  402b7d:	adc    dh,cl
  402b7f:	mov    al,ds:0x3cab0e8d
  402b84:	cmp    DWORD PTR [esi-0x59],0x2b
  402b88:	adc    bh,BYTE PTR [edx+0x6c]
  402b8b:	in     al,0x89
  402b8d:	jp     0x402b36
  402b8f:	jae    0x402b8e
  402b91:	lds    edx,FWORD PTR [edi+0x5f]
  402b94:	leave  
  402b95:	jbe    0x402b33
  402b97:	jae    0x402c07
  402b99:	icebp  
  402b9a:	pop    edi
  402b9b:	pop    edi
  402b9c:	mov    DWORD PTR [ecx-0x5e855fa2],edx
  402ba2:	pop    esi
  402ba3:	popf   
  402ba4:	mov    ch,0xf1
  402ba6:	aam    0x3
  402ba8:	jne    0x402c1c
  402baa:	shr    BYTE PTR [ecx+edx*4+0x1037d7f3],1
  402bb1:	jb     0x402bcb
  402bb3:	ret    0x5a89
  402bb6:	shl    BYTE PTR [edi],1
  402bb8:	adc    ah,BYTE PTR [ebx+eax*2]
  402bbb:	aam    0x89
  402bbd:	jp     0x402be9
  402bbf:	imul   eax,DWORD PTR [esi+0xc],0x23
  402bc3:	fdiv   QWORD PTR [esi+0x2f]
  402bc6:	mov    bl,0xc3
  402bc8:	add    BYTE PTR [edi-0x4c2b2ba5],al
  402bce:	jmp    DWORD PTR [edx-0x4ab85efe]
  402bd4:	fst    DWORD PTR [edx-0x7a89d068]
  402bda:	add    edx,DWORD PTR [ebp-0xf]
  402bdd:	and    ah,BYTE PTR [edi+0x2c857629]
  402be3:	fild   DWORD PTR [edx]
  402be5:	jle    0x402b6a
  402be7:	in     al,dx
  402be8:	jb     0x402b8b
  402bea:	pop    ebx
  402beb:	aam    0x89
  402bed:	jp     0x402b95
  402bef:	pop    esi
  402bf0:	push   edx
  402bf1:	or     DWORD PTR [ebx],0xc7b949e7
  402bf7:	mov    al,ds:0xe82d8685
  402bfc:	add    cl,ah
  402bfe:	daa    
  402bff:	sub    esi,DWORD PTR [esi-0x7b]
  402c02:	fsub   QWORD PTR [edx]
  402c04:	std    
  402c05:	or     DWORD PTR [edx+0x57fbfdd8],esp
  402c0b:	push   ecx
  402c0c:	jbe    0x402c1c
  402c0e:	int    0x28
  402c10:	(bad)  
  402c11:	rcr    BYTE PTR [edx-0x7e],cl
  402c14:	(bad)  
  402c15:	jmp    DWORD PTR [edi+0x5e]
  402c18:	jb     0x402bec
  402c1a:	pop    edx
  402c1b:	or     BYTE PTR [ecx+0xa0f12a],0x95
  402c22:	pop    esi
  402c23:	daa    
  402c24:	add    al,BYTE PTR [eax+ecx*1-0x590f4952]
  402c2b:	(bad)  
  402c2c:	jle    0x402c1f
  402c2e:	imul   esi,DWORD PTR [ebp+0x27],0x8dbe0fd5
  402c35:	sub    edi,esi
  402c37:	aam    0x23
  402c39:	mov    DWORD PTR ds:0x67ff8f5f,ecx
  402c3f:	mov    ebx,0xc41d0ee6
  402c44:	add    al,0x4e
  402c46:	mov    ds:0x9b00db7c,al
  402c4b:	mov    al,ds:0x2ba7d392
  402c50:	jbe    0x402c57
  402c52:	sub    al,0xd0
  402c54:	add    al,0x3e
  402c56:	mov    ds:0x5a7a5329,al
  402c5b:	aam    0x9
  402c5d:	sub    ah,BYTE PTR [esi+0x5a91525e]
  402c63:	add    BYTE PTR [ecx+0x29cb4ad1],0xdb
  402c6a:	add    ecx,DWORD PTR [ebp+0x7cf42add]
  402c70:	mov    eax,edx
  402c72:	push   edi
  402c73:	mov    WORD PTR [edx],cs
  402c75:	mov    esp,0xe4f9c0b3
  402c7a:	sahf   
  402c7b:	mov    ah,0x2
  402c7d:	test   eax,0xf375d92a
  402c82:	addr16 (bad) 
  402c84:	fisttp WORD PTR [esi+0x20]
  402c87:	stc    
  402c88:	jns    0x402c8b
  402c8a:	int3   
  402c8b:	aam    0x89
  402c8d:	jp     0x402cb9
  402c8f:	movs   DWORD PTR es:[edi],DWORD PTR ds:[esi]
  402c90:	rol    BYTE PTR [ebp-0x33fd2ba5],cl
  402c96:	pop    es
  402c97:	sub    esi,DWORD PTR [esi-0x7b]
  402c9a:	fsub   QWORD PTR [edx]
  402c9c:	xchg   dh,bh
  402c9e:	and    al,0x2b
  402ca0:	jbe    0x402c27
  402ca2:	pop    esi
  402ca3:	daa    
  402ca4:	and    al,0xf1
  402ca6:	pop    edi
  402ca7:	sub    BYTE PTR [ebp-0x26ef292b],cl
  402cad:	sub    esi,ebp
  402caf:	jnp    0x402ccd
  402cb1:	xor    DWORD PTR [ebx],0xa77a99d4
  402cb7:	jl     0x402cae
  402cb9:	ins    DWORD PTR es:[edi],dx
  402cba:	pop    edi
  402cbb:	test   bl,ah
  402cbd:	jle    0x402c8e
  402cbf:	sub    esp,DWORD PTR [esi-0x7b]
  402cc2:	pop    ebx
  402cc3:	or     DWORD PTR [eax],0x7e
  402cc6:	sub    DWORD PTR [ebx],0x66
  402cc9:	test   DWORD PTR [ebx+0x2b],ebx
  402ccc:	fdiv   QWORD PTR [esi-0x5a]
  402ccf:	jge    0x402d4b
  402cd1:	fild   WORD PTR [eax]
  402cd3:	jns    0x402c77
  402cd5:	mov    dl,0xf4
  402cd7:	mov    al,ds:0x57b054be
  402cdc:	pusha  
  402cdd:	jle    0x402c71
  402cdf:	jmp    0x402cf1
  402ce1:	sub    BYTE PTR ds:0xd34a897d,bh
  402ce7:	and    edx,DWORD PTR [ebx+0x7a]
  402cea:	dec    edx
  402ceb:	aam    0x89
  402ced:	jnp    0x402ca2
  402cef:	sub    al,0x94
  402cf1:	imul   eax,DWORD PTR [eax],0x59
  402cf4:	int    0x5e
  402cf6:	mov    ds:0x5ad5247a,eax
  402cfb:	in     eax,0xe1
  402cfd:	jp     0x402cb6
  402cff:	sub    esi,DWORD PTR [esi-0x2e]
  402d02:	fidivr WORD PTR [ecx*4+0x1e1aa62a]
  402d09:	test   DWORD PTR [ebx-0x2c],ecx
  402d0c:	mov    DWORD PTR ds:0x85522f24,ebp
  402d12:	dec    ebx
  402d13:	aam    0x89
  402d15:	test   eax,esi
  402d17:	daa    
  402d18:	mov    eax,edx
  402d1a:	push   edi
  402d1b:	mov    ss,eax
  402d1d:	and    bh,bh
  402d1f:	scas   al,BYTE PTR es:[edi]
  402d20:	mov    edi,0x4ab5d8f0
  402d25:	sbb    cl,BYTE PTR [edx+0x2c]
  402d28:	(bad)  [edi-0x5c]
  402d2b:	pop    ecx
  402d2c:	mov    ebp,0x9ea06279
  402d31:	push   cs
  402d32:	scas   al,BYTE PTR es:[edi]
  402d33:	ins    DWORD PTR es:[edi],dx
  402d34:	cdq    
  402d35:	jp     0x402cde
  402d37:	sub    ebx,DWORD PTR [esi-0x762ba592]
  402d3d:	rol    BYTE PTR [esi-0x4c7a89d5],0x35
  402d44:	jbe    0x402ccb
  402d46:	cmps   BYTE PTR ds:[esi],BYTE PTR es:[edi]
  402d47:	jl     0x402d18
  402d49:	sbb    BYTE PTR [ebx-0x2c],0x89
  402d4d:	xchg   edx,eax
  402d4e:	jno    0x402d24
  402d50:	mov    DWORD PTR [edx-0x2a],edi
  402d53:	add    al,0x2
  402d55:	dec    esi
  402d56:	adc    DWORD PTR [edx-0x2ba47a81],0x61
  402d5d:	mov    ebp,0x9762ba6
  402d62:	movs   DWORD PTR es:[edi],DWORD PTR ds:[esi]
  402d63:	pop    edi
  402d64:	inc    ebx
  402d65:	xchg   edx,eax
  402d66:	sbb    esp,edx
  402d68:	mov    DWORD PTR [edx+0x6e],edi
  402d6b:	adc    al,0xd9
  402d6d:	mov    ebx,0x81b72c6f
  402d72:	jg     0x402d4d
  402d74:	mov    BYTE PTR [esi-0x7d],bh
  402d77:	xchg   edx,esi
  402d79:	inc    ebp
  402d7a:	sub    al,0x25
  402d7c:	shl    ecx,1
  402d7e:	pop    esi
  402d7f:	adc    BYTE PTR [ebx-0x361a10f],dh
  402d85:	cmps   DWORD PTR ds:[esi],DWORD PTR es:[edi]
  402d86:	sub    bl,BYTE PTR [edi]
  402d88:	push   edx
  402d89:	cmp    al,0x51
  402d8b:	aam    0x89
  402d8d:	jp     0x402dde
  402d8f:	mov    esi,0xc45a7a89
  402d94:	ds jbe 0x402d88
  402d97:	jne    0x402dc0
  402d99:	cmp    al,0x53
  402d9b:	aam    0x89
  402d9d:	jp     0x402dee
  402d9f:	scas   al,BYTE PTR es:[edi]
  402da0:	mov    DWORD PTR [edx+0x5a],edi
  402da3:	mov    fs,WORD PTR [ecx+0x5]
  402da6:	cmps   BYTE PTR ds:[esi],BYTE PTR es:[edi]
  402da7:	sub    esi,DWORD PTR [esi+0xf]
  402daa:	das    
  402dab:	lock xchg ebp,eax
  402dad:	sbb    esp,DWORD PTR [edx+0x7a]
  402db0:	mov    bh,0x6d
  402db2:	inc    esp
  402db3:	ins    DWORD PTR es:[edi],dx
  402db4:	test   eax,0x3e2ba77a
  402db9:	icebp  
  402dba:	imul   ebp,DWORD PTR [ebp-0x75],0x7a
  402dbe:	cmps   DWORD PTR ds:[esi],DWORD PTR es:[edi]
  402dbf:	sub    edi,DWORD PTR [esi]
  402dc1:	icebp  
  402dc2:	jae    0x402e31
  402dc4:	test   eax,0x3e2ba77a
  402dc9:	icebp  
  402dca:	jnp    0x402e39
  402dcc:	lea    edi,[edx-0x59]
  402dcf:	sub    edi,DWORD PTR [esi]
  402dd1:	icebp  
  402dd2:	inc    ebx
  402dd3:	ins    DWORD PTR es:[edi],dx
  402dd4:	leave  
  402dd5:	jp     0x402d7e
  402dd7:	sub    edi,DWORD PTR [esi]
  402dd9:	icebp  
  402dda:	dec    ebx
  402ddb:	ins    DWORD PTR es:[edi],dx
  402ddc:	lea    edi,[edx-0x59]
  402ddf:	sub    edi,DWORD PTR [esi]
  402de1:	icebp  
  402de2:	push   ebx
  402de3:	ins    DWORD PTR es:[edi],dx
  402de4:	leave  
  402de5:	jp     0x402d8e
  402de7:	sub    edi,DWORD PTR [esi]
  402de9:	icebp  
  402dea:	pop    ebx
  402deb:	pop    edi
  402dec:	dec    eax
  402ded:	and    esp,DWORD PTR [edx+0x4b]
  402df0:	std    
  402df1:	shr    BYTE PTR [ebx],1
  402df3:	push   ebp
  402df4:	jnp    0x402de1
  402df6:	dec    ebp
  402df7:	outs   dx,BYTE PTR ds:[esi]
  402df8:	push   cs
  402df9:	push   cs
  402dfa:	adc    al,0xbc
  402dfc:	add    al,BYTE PTR [edx+eiz*1+0x2f852e56]
  402e03:	xlat   BYTE PTR ds:[ebx]
  402e04:	mov    BYTE PTR [edi],cl
  402e06:	jmp    DWORD PTR [eax+0x14dce533]
  402e0c:	std    
  402e0d:	outs   dx,DWORD PTR ds:[esi]
  402e0e:	sub    al,0x6d
  402e10:	dec    edx
  402e11:	xlat   BYTE PTR ds:[ebx]
  402e12:	loope  0x402de4
  402e14:	mov    DWORD PTR [edx-0x59],edi
  402e17:	ret    
  402e18:	rol    DWORD PTR [ebx+ebx*2+0x5779d3d4],cl
  402e1f:	sub    BYTE PTR [esi-0x3106c52],cl
  402e25:	and    dl,al
  402e27:	es jne 0x402e1a
  402e2a:	pop    es
  402e2b:	xlat   BYTE PTR ds:[ebx]
  402e2c:	hlt    
  402e2d:	mov    ah,BYTE PTR es:[esi+0x2a]
  402e31:	add    BYTE PTR [eax-0x8287d60],dl
  402e37:	add    BYTE PTR [edi+ebx*8+0x796057f6],dh
  402e3e:	inc    ebp
  402e3f:	enter  0x4617,0x3b
  402e43:	push   edi
  402e44:	hlt    
  402e45:	cmps   DWORD PTR ss:[esi],DWORD PTR es:[edi]
  402e47:	pop    edi
  402e48:	fs ins DWORD PTR es:[edi],dx
  402e4a:	dec    edx
  402e4b:	aam    0x89
  402e4d:	jp     0x402e79
  402e4f:	push   esi
  402e50:	and    al,BYTE PTR [eax]
  402e52:	pop    edx
  402e53:	mov    eax,ds:0x884fd18f
  402e58:	jbe    0x402ddf
  402e5a:	pop    ebx
  402e5b:	mov    ch,0x4a
  402e5d:	sbb    ah,BYTE PTR [esi-0x7cf1b583]
  402e63:	pop    edi
  402e64:	cld    
  402e65:	sub    ch,BYTE PTR ss:[esi+0x26]
  402e69:	aad    0xb
  402e6b:	mov    esp,0x2bab7a89
  402e70:	and    eax,0xd0940c7a
  402e75:	sub    ch,BYTE PTR [edx]
  402e77:	rol    DWORD PTR [ebp-0x76134cdf],cl
  402e7d:	jp     0x402e26
  402e7f:	arpl   di,di
  402e81:	sar    DWORD PTR [edi-0xc],0x2
  402e85:	sub    BYTE PTR [eax],0x27
  402e88:	retf   
  402e89:	sbb    DWORD PTR [ebx-0x2c],0x33041e89
  402e90:	jbe    0x402e17
  402e92:	pop    ebx
  402e93:	pop    edi
  402e94:	stc    
  402e95:	push   esi
  402e96:	hlt    
  402e97:	inc    ebx
  402e98:	jbe    0x402e1f
  402e9a:	push   edi
  402e9b:	aam    0xda
  402e9d:	test   eax,esi
  402e9f:	imul   edi,ebx,0xffffff89
  402ea2:	jecxz  0x402eff
  402ea4:	mov    BYTE PTR [edx],ch
  402ea6:	sub    ah,ah
  402ea8:	std    
  402ea9:	jge    0x402e59
  402eab:	jno    0x402e9a
  402ead:	fstp   TBYTE PTR [edi-0x357a89d5]
  402eb3:	xchg   esp,eax
  402eb4:	movs   DWORD PTR es:[edi],DWORD PTR ds:[esi]
  402eb5:	sbb    esp,DWORD PTR [edx+0x4b]
  402eb8:	imul   DWORD PTR [ecx+0x7b]
  402ebb:	(bad)  
  402ebc:	mov    DWORD PTR [edx-0x31],edi
  402ebf:	pcmpeqb mm0,QWORD PTR [ebp+0x107fe75b]
  402ec6:	cmps   DWORD PTR ds:[esi],DWORD PTR es:[edi]
  402ec7:	inc    ecx
  402ec8:	jle    0x402f44
  402eca:	or     al,0xc8
  402ecc:	add    ah,BYTE PTR [edx-0x2f76870d]
  402ed2:	outs   dx,DWORD PTR ds:[esi]
  402ed3:	pop    edi
  402ed4:	int    0x5e
  402ed6:	mov    ebx,0xd6b93628
  402edb:	push   esp
  402edc:	dec    ecx
  402edd:	jp     0x402e86
  402edf:	sub    esi,ebx
  402ee1:	inc    ebp
  402ee2:	das    
  402ee3:	aad    0xcf
  402ee5:	cs repnz aam 0x23
  402ee9:	mov    ebp,0x9ffc14dc
  402eee:	repnz aam 0x23
  402ef1:	popf   
  402ef2:	fcom   DWORD PTR [eax]
  402ef4:	lods   eax,DWORD PTR ds:[esi]
  402ef5:	js     0x402e9e
  402ef7:	sub    edi,edi
  402ef9:	icebp  
  402efa:	jg     0x402ec4
  402efc:	call   0x1a83f6ba
  402f01:	jmp    0x9220361
  402f06:	rol    DWORD PTR ds:0xa734ed12,cl
  402f0c:	call   FWORD PTR [ecx]
  402f0e:	repz aam 0x23
  402f11:	sbb    esp,0xf372fc14
  402f17:	aam    0x23
  402f19:	test   esp,ebx
  402f1b:	adc    al,0xfd
  402f1d:	aaa    
  402f1e:	int    0x2b
  402f20:	push   ds
  402f21:	in     al,dx
  402f22:	xor    eax,0xc112efa0
  402f27:	pop    esp
  402f28:	push   es
  402f29:	test   DWORD PTR [edi],0xaf2f7684
  402f2f:	test   al,0xb2
  402f31:	mov    esi,edx
  402f33:	and    al,0xd9
  402f35:	cs int 0x6b
  402f38:	sbb    al,0x82
  402f3a:	or     eax,0xff76dc2b
  402f3f:	jnp    0x402f63
  402f41:	aad    0x31
  402f43:	rcr    edi,cl
  402f45:	xchg   edx,eax
  402f46:	sub    DWORD PTR [ebx],0xe8d68576
  402f4c:	lods   eax,DWORD PTR ds:[esi]
  402f4d:	sti    
  402f4e:	outs   dx,BYTE PTR ds:[esi]
  402f4f:	cmp    DWORD PTR [esi-0x7b],esi
  402f52:	pop    ebx
  402f53:	mov    esi,0x8f52238e
  402f58:	xor    DWORD PTR [esi],ecx
  402f5a:	popf   
  402f5b:	jg     0x402f61
  402f5d:	add    al,0x5c
  402f5f:	fwait
  402f60:	push   ds
  402f61:	das    
  402f62:	add    edi,DWORD PTR [edi+0x39]
  402f65:	mov    ecx,0x8923d40d
  402f6a:	add    edx,DWORD PTR [edi+0x4d]
  402f6d:	jbe    0x402f33
  402f6f:	call   0x81cba9a2
  402f74:	popa   
  402f75:	in     al,0xa7
  402f77:	sub    esi,DWORD PTR [esi-0x28]
  402f7a:	aam    0x91
  402f7c:	stc    
  402f7d:	stc    
  402f7e:	addr16 das 
  402f80:	inc    ecx
  402f82:	jg     0x402f48
  402f84:	aam    0x7a
  402f86:	cmps   DWORD PTR ds:[esi],DWORD PTR es:[edi]
  402f87:	sub    esi,DWORD PTR [esi-0x7b]
  402f8a:	pop    ebx
  402f8b:	aam    0xe1
  402f8d:	jp     0x402f36
  402f8f:	sub    esi,DWORD PTR [esi+0x46]
  402f92:	cmp    eax,0x1d1c7fe7
  402f97:	data16 sub al,0xe3
  402f9a:	hlt    
  402f9b:	mov    dl,0xba
  402f9d:	stos   BYTE PTR es:[edi],al
  402f9e:	shl    DWORD PTR [ebx],cl
  402fa0:	imul   DWORD PTR [ebx+0x59]
  402fa3:	les    ecx,FWORD PTR [ecx-0x439b586]
  402fa9:	(bad)  [ebp+0x540f7650]
  402faf:	mov    al,ds:0x6e3dbf00
  402fb4:	fnstcw WORD PTR [edi]
  402fb6:	sub    BYTE PTR [edi],bl
  402fb8:	push   0xbab2f4e3
  402fbd:	stos   BYTE PTR es:[edi],al
  402fbe:	ror    bl,1
  402fc0:	mov    ch,0xd4
  402fc2:	outs   dx,BYTE PTR ds:[esi]
  402fc3:	sbb    eax,0x536551c8
  402fc8:	jb     0x402fbb
  402fca:	pop    ecx
  402fcb:	aas    
  402fcc:	jle    0x403017
  402fce:	sub    BYTE PTR [si-0x5899],dh
  402fd3:	lea    ecx,[edx-0xf]
  402fd6:	fadd   DWORD PTR [ebx+0x1c]
  402fd9:	xor    DWORD PTR [ebx],0xa77a99d4
  402fdf:	jl     0x402ffd
  402fe1:	test   DWORD PTR [edx-0x7e],ebx
  402fe4:	cdq    
  402fe5:	icebp  
  402fe6:	push   edi
  402fe7:	stos   BYTE PTR es:[edi],al
  402fe8:	call   0x5bf1:0x89d45881
  402fef:	inc    ebx
  402ff0:	jb     0x402f76
  402ff2:	pop    ebx
  402ff3:	aam    0xde
  402ff5:	sub    DWORD PTR [esi+0x5bef567d],esp
  402ffb:	mov    esp,0x2ba77a09
  403000:	sbb    al,0x86
  403002:	xor    esp,edx
  403004:	jecxz  0x403081
  403006:	iret   
  403007:	sub    esi,DWORD PTR [esi-0x7b]
  40300a:	fild   DWORD PTR [ebx-0x557cd08a]
  403010:	mov    dl,0x81
  403012:	pop    eax
  403013:	aam    0x89
  403015:	mov    ecx,0x55897337
  40301a:	cmps   BYTE PTR ds:[esi],BYTE PTR es:[edi]
  40301b:	add    BYTE PTR [ebx],ch
  40301d:	sbb    ebp,DWORD PTR ds:0x14c87217
  403023:	ins    BYTE PTR es:[edi],dx
  403024:	es mov dh,0x78
  403027:	adc    bh,ch
  403029:	add    edi,DWORD PTR [ebx+0x58]
  40302c:	rcr    DWORD PTR [eax],0x44
  40302f:	pop    ecx
  403030:	scas   eax,DWORD PTR es:[edi]
  403031:	sahf   
  403032:	mov    ebx,0x3a165768
  403037:	test   edx,ebp
  403039:	push   ecx
  40303a:	fwait
  40303b:	test   eax,0xdb467fe6
  403041:	xchg   edx,eax
  403042:	movs   DWORD PTR es:[edi],DWORD PTR ds:[esi]
  403043:	sbb    eax,0x47e1ff23
  403048:	in     al,dx
  403049:	lods   al,BYTE PTR ds:[esi]
  40304a:	push   ebx
  40304b:	push   edi
  40304c:	sbb    ch,0x1c
  40304f:	int    0x60
  403051:	test   BYTE PTR [ebx],bl
  403053:	enter  0xf188,0x1a
  403057:	arpl   WORD PTR [edx+eax*2+0x5cd56bd4],dx
  40305e:	movs   DWORD PTR es:[edi],DWORD PTR ds:[esi]
  40305f:	mov    eax,0xd45b3249
  403064:	mov    DWORD PTR [edx-0x59],edi
  403067:	sub    esi,DWORD PTR [esi-0x7b]
  40306a:	pop    ebx
  40306b:	aam    0x89
  40306d:	jp     0x403016
  40306f:	sub    esi,DWORD PTR [esi-0x7b]
  403072:	pop    ebx
  403073:	aam    0x89
  403075:	jp     0x40301e
  403077:	sub    esi,DWORD PTR [esi-0x7b]
  40307a:	pop    ebx
  40307b:	aam    0x89
  40307d:	jp     0x403056
  40307f:	movs   DWORD PTR es:[edi],DWORD PTR ds:[esi]
  403080:	ja     0x403007
  403082:	pop    ebx
  403083:	push   es
  403084:	lea    edi,[edx-0x59]
  403087:	das    
  403088:	jbe    0x40300f
  40308a:	xchg   esi,eax
  40308b:	jmp    0x2648:0x8b0a7845
  403092:	dec    esp
  403093:	xor    BYTE PTR [eax],ch
  403095:	aad    0x35
  403097:	cld    
  403098:	lock
  403099:	.byte 0xa9
  40309a:	loop   0x4030c0
