
7b4ec6c8acf6a60218e598408cd263a6bb9166a689371b26f788e6094b6ac54f.exe:     file format pei-i386


Disassembly of section .text:

004d0000 <.text>:
  4d0000:	add    BYTE PTR [eax],al
  4d0002:	add    BYTE PTR [eax],al
  4d0004:	mov    edi,edi
  4d0006:	push   ebp
  4d0007:	mov    ebp,esp
  4d0009:	sub    esp,0x54
  4d000c:	lea    ecx,[ebx-0x80]
  4d0012:	and    esi,DWORD PTR [ecx+0x24]
  4d0015:	push   ecx
  4d0016:	push   ebx
  4d0017:	push   DWORD PTR [ecx+0x4c]
  4d001a:	push   DWORD PTR [ecx+0x100]
  4d0020:	call   0x4d0798
  4d0025:	add    esp,0xc
  4d0028:	pop    ecx
  4d0029:	push   ecx
  4d002a:	mov    ecx,0x0
  4d002f:	push   ecx
  4d0030:	notrack call DWORD PTR ds:0x4d2064
  4d0037:	pop    ecx
  4d0038:	push   ecx
  4d0039:	push   0x0
  4d003b:	notrack call DWORD PTR ds:0x4d2038
  4d0042:	pop    ecx
  4d0043:	add    esp,0x54
  4d0046:	pop    ebp
  4d0047:	ret    
  4d0048:	mov    edi,edi
  4d004a:	push   ebp
  4d004b:	mov    ebp,esp
  4d004d:	sub    esp,0x44
  4d0050:	mov    ecx,0x4d30a8
  4d0055:	adc    eax,edx
  4d0057:	push   ecx
  4d0058:	push   0x0
  4d005a:	notrack call DWORD PTR ds:0x4d207c
  4d0061:	pop    ecx
  4d0062:	push   ecx
  4d0063:	push   edi
  4d0064:	push   ebx
  4d0065:	push   eax
  4d0066:	call   0x4d0a1c
  4d006b:	add    esp,0xc
  4d006e:	pop    ecx
  4d006f:	mov    edi,0x4d2020
  4d0074:	mov    edi,DWORD PTR [edi]
  4d0076:	push   edi
  4d0077:	push   DWORD PTR [ecx+0x88]
  4d007d:	pop    ebx
  4d007e:	call   ebx
  4d0080:	add    esp,0x44
  4d0083:	pop    ebp
  4d0084:	ret    
  4d0085:	add    BYTE PTR [eax],al
  4d0087:	add    BYTE PTR [ebx-0x1374aa01],cl
  4d008d:	sub    esp,0x4c
  4d0090:	lea    ecx,ds:0x4d3178
  4d0096:	sub    ebx,DWORD PTR [ebp-0x14]
  4d0099:	push   ecx
  4d009a:	push   0x0
  4d009c:	notrack call DWORD PTR ds:0x4d2000
  4d00a3:	pop    ecx
  4d00a4:	push   ecx
  4d00a5:	push   ebx
  4d00a6:	push   DWORD PTR [ecx+0x1c0]
  4d00ac:	push   ebx
  4d00ad:	call   0x4d0748
  4d00b2:	add    esp,0xc
  4d00b5:	pop    ecx
  4d00b6:	push   ecx
  4d00b7:	mov    ebx,0x0
  4d00bc:	push   ebx
  4d00bd:	notrack call DWORD PTR ds:0x4d2004
  4d00c4:	pop    ecx
  4d00c5:	add    esp,0x4c
  4d00c8:	pop    ebp
  4d00c9:	ret    
  4d00ca:	add    BYTE PTR [eax],al
  4d00cc:	add    BYTE PTR [eax],al
  4d00ce:	add    BYTE PTR [eax],al
  4d00d0:	mov    edi,edi
  4d00d2:	push   ebp
  4d00d3:	mov    ebp,esp
  4d00d5:	sub    esp,0x50
  4d00d8:	lea    edx,[ebx+0x40]
  4d00db:	and    ebx,DWORD PTR [ebp-0x4c]
  4d00de:	push   edx
  4d00df:	push   DWORD PTR [edx+0xa8]
  4d00e5:	push   edi
  4d00e6:	push   edi
  4d00e7:	push   esi
  4d00e8:	call   0x4d06f8
  4d00ed:	add    esp,0x10
  4d00f0:	pop    edx
  4d00f1:	push   edx
  4d00f2:	push   0x0
  4d00f4:	notrack call DWORD PTR ds:0x4d2010
  4d00fb:	pop    edx
  4d00fc:	push   edx
  4d00fd:	push   0x0
  4d00ff:	notrack call DWORD PTR ds:0x4d2010
  4d0106:	pop    edx
  4d0107:	add    esp,0x50
  4d010a:	pop    ebp
  4d010b:	ret    
	...
  4d011c:	mov    edi,edi
  4d011e:	push   ebp
  4d011f:	mov    ebp,esp
  4d0121:	sub    esp,0x60
  4d0124:	mov    eax,0x4d3070
  4d0129:	add    DWORD PTR [ebp-0x14],0x7e
  4d012d:	push   eax
  4d012e:	mov    eax,0x0
  4d0133:	push   eax
  4d0134:	notrack call DWORD PTR ds:0x4d2010
  4d013b:	pop    eax
  4d013c:	push   eax
  4d013d:	push   DWORD PTR [eax+0xb0]
  4d0143:	push   DWORD PTR [eax+0x180]
  4d0149:	push   esi
  4d014a:	call   0x4d06ac
  4d014f:	add    esp,0xc
  4d0152:	pop    eax
  4d0153:	push   eax
  4d0154:	mov    ebx,0x0
  4d0159:	push   ebx
  4d015a:	notrack call DWORD PTR ds:0x4d2018
  4d0161:	pop    eax
  4d0162:	add    esp,0x60
  4d0165:	pop    ebp
  4d0166:	ret    
	...
  4d0177:	add    BYTE PTR [ebx-0x1374aa01],cl
  4d017d:	sub    esp,0x28
  4d0180:	lea    edx,ds:0x4d3134
  4d0186:	mov    DWORD PTR [edx-0x100],edx
  4d018c:	push   edx
  4d018d:	push   ebx
  4d018e:	push   DWORD PTR [edx+0x1d0]
  4d0194:	call   0x4d02e8
  4d0199:	add    esp,0x8
  4d019c:	pop    edx
  4d019d:	push   edx
  4d019e:	mov    esi,0x0
  4d01a3:	push   esi
  4d01a4:	notrack call DWORD PTR ds:0x4d2028
  4d01ab:	pop    edx
  4d01ac:	push   edx
  4d01ad:	push   0x0
  4d01af:	notrack call DWORD PTR ds:0x4d2004
  4d01b6:	pop    edx
  4d01b7:	add    esp,0x28
  4d01ba:	pop    ebp
  4d01bb:	ret    
	...
  4d01c8:	mov    edi,edi
  4d01ca:	push   ebp
  4d01cb:	mov    ebp,esp
  4d01cd:	sub    esp,0x30
  4d01d0:	mov    edx,0x4d3148
  4d01d5:	sub    edi,0xffffff92
  4d01d8:	push   edx
  4d01d9:	push   DWORD PTR [edx+0x198]
  4d01df:	push   ebx
  4d01e0:	push   edi
  4d01e1:	push   ecx
  4d01e2:	call   0x4d011c
  4d01e7:	add    esp,0x10
  4d01ea:	pop    edx
  4d01eb:	push   edx
  4d01ec:	mov    ebx,0x0
  4d01f1:	push   ebx
  4d01f2:	notrack call DWORD PTR ds:0x4d2064
  4d01f9:	pop    edx
  4d01fa:	push   edx
  4d01fb:	push   0x0
  4d01fd:	notrack call DWORD PTR ds:0x4d2078
  4d0204:	pop    edx
  4d0205:	add    esp,0x30
  4d0208:	pop    ebp
  4d0209:	ret    
	...
  4d0212:	add    BYTE PTR [eax],al
  4d0214:	mov    edi,edi
  4d0216:	push   ebp
  4d0217:	mov    ebp,esp
  4d0219:	sub    esp,0x30
  4d021c:	mov    ecx,0x4d3138
  4d0221:	mov    DWORD PTR [ecx-0x90],ebx
  4d0227:	push   ecx
  4d0228:	push   eax
  4d0229:	push   eax
  4d022a:	push   DWORD PTR [ecx+0x134]
  4d0230:	call   0x4d0828
  4d0235:	add    esp,0xc
  4d0238:	pop    ecx
  4d0239:	push   ecx
  4d023a:	lea    ecx,[ecx-0x138]
  4d0240:	push   ecx
  4d0241:	notrack call DWORD PTR ds:0x4d2020
  4d0248:	test   eax,eax
  4d024a:	jne    0x4d023a
  4d024c:	pop    ecx
  4d024d:	push   ecx
  4d024e:	lea    ebx,[ecx-0x138]
  4d0254:	push   ebx
  4d0255:	notrack call DWORD PTR ds:0x4d2020
  4d025c:	test   eax,eax
  4d025e:	jne    0x4d024e
  4d0260:	pop    ecx
  4d0261:	add    esp,0x30
  4d0264:	pop    ebp
  4d0265:	ret    
  4d0266:	add    BYTE PTR [eax],al
  4d0268:	mov    edi,edi
  4d026a:	push   ebp
  4d026b:	mov    ebp,esp
  4d026d:	sub    esp,0x20
  4d0270:	mov    ecx,0x4d3148
  4d0275:	mov    edi,eax
  4d0277:	push   ecx
  4d0278:	push   0x0
  4d027a:	notrack call DWORD PTR ds:0x4d2078
  4d0281:	pop    ecx
  4d0282:	push   ecx
  4d0283:	push   edi
  4d0284:	push   DWORD PTR [ecx+0x12c]
  4d028a:	call   0x4d0344
  4d028f:	add    esp,0x8
  4d0292:	pop    ecx
  4d0293:	push   ecx
  4d0294:	push   0x0
  4d0296:	notrack call DWORD PTR ds:0x4d2004
  4d029d:	pop    ecx
  4d029e:	add    esp,0x20
  4d02a1:	pop    ebp
  4d02a2:	ret    
  4d02a3:	add    BYTE PTR [ebx-0x1374aa01],cl
  4d02a9:	sub    esp,0x38
  4d02ac:	lea    esi,ds:0x4d3054
  4d02b2:	xor    ecx,DWORD PTR [ebp-0xc]
  4d02b5:	push   esi
  4d02b6:	push   DWORD PTR [esi+0x1d0]
  4d02bc:	push   DWORD PTR [esi+0x11c]
  4d02c2:	push   eax
  4d02c3:	call   0x4d0088
  4d02c8:	add    esp,0xc
  4d02cb:	pop    esi
  4d02cc:	push   0x0
  4d02ce:	notrack call DWORD PTR ds:0x4d2010
  4d02d5:	push   0x0
  4d02d7:	notrack call DWORD PTR ds:0x4d2028
  4d02de:	add    esp,0x38
  4d02e1:	pop    ebp
  4d02e2:	ret    
  4d02e3:	add    BYTE PTR [eax],al
  4d02e5:	add    BYTE PTR [eax],al
  4d02e7:	add    BYTE PTR [ebx-0x1374aa01],cl
  4d02ed:	sub    esp,0x58
  4d02f0:	mov    eax,0x4d31b8
  4d02f5:	add    DWORD PTR [ebp-0x30],0xfffff970
  4d02fc:	push   eax
  4d02fd:	push   edi
  4d02fe:	push   DWORD PTR [eax+0x1d4]
  4d0304:	push   DWORD PTR [eax+0xc]
  4d0307:	push   DWORD PTR [eax+0x1e4]
  4d030d:	call   0x4d02a4
  4d0312:	add    esp,0x10
  4d0315:	pop    eax
  4d0316:	push   eax
  4d0317:	lea    eax,[eax-0x1b8]
  4d031d:	push   eax
  4d031e:	notrack call DWORD PTR ds:0x4d2020
  4d0325:	test   eax,eax
  4d0327:	jne    0x4d0317
  4d0329:	pop    eax
  4d032a:	push   eax
  4d032b:	mov    ebx,0x0
  4d0330:	push   ebx
  4d0331:	notrack call DWORD PTR ds:0x4d2064
  4d0338:	pop    eax
  4d0339:	add    esp,0x58
  4d033c:	pop    ebp
  4d033d:	ret    
  4d033e:	add    BYTE PTR [eax],al
  4d0340:	add    BYTE PTR [eax],al
  4d0342:	add    BYTE PTR [eax],al
  4d0344:	mov    edi,edi
  4d0346:	push   ebp
  4d0347:	mov    ebp,esp
  4d0349:	sub    esp,0x58
  4d034c:	mov    edx,0x4d3004
  4d0351:	or     DWORD PTR [ebp-0x28],edx
  4d0354:	push   edx
  4d0355:	push   0x0
  4d0357:	notrack call DWORD PTR ds:0x4d2000
  4d035e:	pop    edx
  4d035f:	push   edx
  4d0360:	push   DWORD PTR [edx+0x190]
  4d0366:	push   DWORD PTR [edx+0x1a0]
  4d036c:	push   esi
  4d036d:	call   0x4d0614
  4d0372:	add    esp,0xc
  4d0375:	pop    edx
  4d0376:	push   edx
  4d0377:	lea    ecx,[edx-0x4]
  4d037a:	push   ecx
  4d037b:	notrack call DWORD PTR ds:0x4d2020
  4d0382:	test   eax,eax
  4d0384:	jne    0x4d0377
  4d0386:	pop    edx
  4d0387:	add    esp,0x58
  4d038a:	pop    ebp
  4d038b:	ret    
  4d038c:	mov    edi,edi
  4d038e:	push   ebp
  4d038f:	mov    ebp,esp
  4d0391:	sub    esp,0x28
  4d0394:	mov    eax,0x4d3158
  4d0399:	cmp    eax,0x661
  4d039e:	jb     0x4d038f
  4d03a0:	push   eax
  4d03a1:	push   0x0
  4d03a3:	notrack call DWORD PTR ds:0x4d2028
  4d03aa:	pop    eax
  4d03ab:	push   eax
  4d03ac:	push   DWORD PTR [eax+0x24]
  4d03af:	push   esi
  4d03b0:	push   DWORD PTR [eax+0x1c8]
  4d03b6:	call   0x4d0268
  4d03bb:	add    esp,0xc
  4d03be:	pop    eax
  4d03bf:	push   eax
  4d03c0:	notrack call DWORD PTR ds:0x4d2014
  4d03c7:	pop    eax
  4d03c8:	add    esp,0x28
  4d03cb:	pop    ebp
  4d03cc:	ret    
  4d03cd:	add    BYTE PTR [eax],al
  4d03cf:	add    BYTE PTR [edx+0x0],ch
  4d03d2:	call   DWORD PTR ds:0x4d202c
  4d03d8:	call   DWORD PTR ds:0x4d2034
  4d03de:	sub    esp,0x8
  4d03e1:	call   DWORD PTR ds:0x4d2034
  4d03e7:	sub    esp,0x8
  4d03ea:	xor    eax,eax
  4d03ec:	lea    eax,[eax*2+0x4d3100]
  4d03f3:	lea    ecx,[eax+0x4]
  4d03f6:	add    BYTE PTR [ecx],0xb0
  4d03f9:	push   eax
  4d03fa:	call   DWORD PTR ds:0x4d2024
  4d0400:	mov    ecx,DWORD PTR [eax+0x3c]
  4d0403:	push   DWORD PTR [eax+ecx*1+0x29]
  4d0407:	pop    eax
  4d0408:	mov    cl,0x2c
  4d040a:	cmp    al,cl
  4d040c:	pusha  
  4d040d:	ja     0x4d0048
  4d0413:	popa   
  4d0414:	ret    
  4d0415:	add    BYTE PTR [eax],al
  4d0417:	repz mov edi,edi
  4d041a:	push   ebp
  4d041b:	mov    ebp,esp
  4d041d:	sub    esp,0x4c
  4d0420:	mov    ebx,0x4d3108
  4d0425:	sub    ecx,0x42
  4d0428:	push   ebx
  4d0429:	push   DWORD PTR [ebx+0x1dc]
  4d042f:	push   ecx
  4d0430:	push   edi
  4d0431:	push   DWORD PTR [ebx+0xe0]
  4d0437:	call   0x4d0948
  4d043c:	add    esp,0x10
  4d043f:	pop    ebx
  4d0440:	push   0x0
  4d0442:	notrack call DWORD PTR ds:0x4d2078
  4d0449:	mov    ecx,0x0
  4d044e:	push   ecx
  4d044f:	notrack call DWORD PTR ds:0x4d2004
  4d0456:	add    esp,0x4c
  4d0459:	pop    ebp
  4d045a:	ret    
  4d045b:	add    BYTE PTR [eax],al
  4d045d:	add    BYTE PTR [eax],al
  4d045f:	add    BYTE PTR [ebx-0x1374aa01],cl
  4d0465:	sub    esp,0x34
  4d0468:	mov    edi,0x4d3048
  4d046d:	mov    DWORD PTR [edi+0xa0],0xffffffb8
  4d0477:	push   edi
  4d0478:	push   edx
  4d0479:	push   DWORD PTR [edi+0x1c4]
  4d047f:	push   ebx
  4d0480:	call   0x4d05d4
  4d0485:	add    esp,0xc
  4d0488:	pop    edi
  4d0489:	notrack call DWORD PTR ds:0x4d2014
  4d0490:	push   0x0
  4d0492:	notrack call DWORD PTR ds:0x4d2078
  4d0499:	add    esp,0x34
  4d049c:	pop    ebp
  4d049d:	ret    
  4d049e:	add    BYTE PTR [eax],al
  4d04a0:	mov    edi,edi
  4d04a2:	push   ebp
  4d04a3:	mov    ebp,esp
  4d04a5:	sub    esp,0x30
  4d04a8:	mov    edi,0x4d302c
  4d04ad:	mov    esi,0xffffff9f
  4d04b2:	mov    esi,0x0
  4d04b7:	push   esi
  4d04b8:	notrack call DWORD PTR ds:0x4d201c
  4d04bf:	push   edi
  4d04c0:	push   DWORD PTR [edi+0x14]
  4d04c3:	push   ebx
  4d04c4:	push   ecx
  4d04c5:	push   DWORD PTR [edi+0x1d0]
  4d04cb:	call   0x4d08f8
  4d04d0:	add    esp,0x10
  4d04d3:	pop    edi
  4d04d4:	push   0x0
  4d04d6:	notrack call DWORD PTR ds:0x4d2038
  4d04dd:	add    esp,0x30
  4d04e0:	pop    ebp
  4d04e1:	ret    
  4d04e2:	add    BYTE PTR [eax],al
  4d04e4:	mov    edi,edi
  4d04e6:	push   ebp
  4d04e7:	mov    ebp,esp
  4d04e9:	sub    esp,0x5c
  4d04ec:	lea    edx,ds:0x4d31ac
  4d04f2:	adc    eax,DWORD PTR [ebp-0x14]
  4d04f5:	push   edx
  4d04f6:	lea    edi,[edx-0x1ac]
  4d04fc:	push   edi
  4d04fd:	notrack call DWORD PTR ds:0x4d2020
  4d0504:	test   eax,eax
  4d0506:	jne    0x4d04f6
  4d0508:	pop    edx
  4d0509:	push   edx
  4d050a:	push   esi
  4d050b:	push   eax
  4d050c:	call   0x4d0460
  4d0511:	add    esp,0x8
  4d0514:	pop    edx
  4d0515:	push   edx
  4d0516:	lea    eax,[edx-0x1ac]
  4d051c:	push   eax
  4d051d:	notrack call DWORD PTR ds:0x4d2020
  4d0524:	test   eax,eax
  4d0526:	jne    0x4d0516
  4d0528:	pop    edx
  4d0529:	add    esp,0x5c
  4d052c:	pop    ebp
  4d052d:	ret    
  4d052e:	add    BYTE PTR [eax],al
  4d0530:	mov    edi,edi
  4d0532:	push   ebp
  4d0533:	mov    ebp,esp
  4d0535:	sub    esp,0x28
  4d0538:	lea    ebx,[edx+0xd0]
  4d053e:	adc    DWORD PTR [ebx+0x4],esi
  4d0541:	push   ebx
  4d0542:	push   edx
  4d0543:	push   ecx
  4d0544:	push   eax
  4d0545:	push   esi
  4d0546:	call   0x4d00d0
  4d054b:	add    esp,0x10
  4d054e:	pop    ebx
  4d054f:	push   0x0
  4d0551:	notrack call DWORD PTR ds:0x4d2010
  4d0558:	push   0x0
  4d055a:	notrack call DWORD PTR ds:0x4d202c
  4d0561:	add    esp,0x28
  4d0564:	pop    ebp
  4d0565:	ret    
	...
  4d057a:	add    BYTE PTR [eax],al
  4d057c:	mov    edi,edi
  4d057e:	push   ebp
  4d057f:	mov    ebp,esp
  4d0581:	sub    esp,0x4c
  4d0584:	mov    edi,0x4d3148
  4d0589:	xor    DWORD PTR [edi+0xac],eax
  4d058f:	mov    ecx,0x0
  4d0594:	push   ecx
  4d0595:	notrack call DWORD PTR ds:0x4d2078
  4d059c:	push   edi
  4d059d:	push   DWORD PTR [edi+0x14]
  4d05a0:	push   DWORD PTR [edi+0xc0]
  4d05a6:	push   DWORD PTR [edi+0x1f4]
  4d05ac:	push   ecx
  4d05ad:	call   0x4d065c
  4d05b2:	add    esp,0x10
  4d05b5:	pop    edi
  4d05b6:	mov    ebx,0x0
  4d05bb:	push   ebx
  4d05bc:	notrack call DWORD PTR ds:0x4d2028
  4d05c3:	add    esp,0x4c
  4d05c6:	pop    ebp
  4d05c7:	ret    
	...
  4d05d4:	mov    edi,edi
  4d05d6:	push   ebp
  4d05d7:	mov    ebp,esp
  4d05d9:	sub    esp,0x30
  4d05dc:	lea    edx,[edi-0x8]
  4d05df:	adc    esi,ebx
  4d05e1:	push   edx
  4d05e2:	mov    esi,0x0
  4d05e7:	push   esi
  4d05e8:	notrack call DWORD PTR ds:0x4d2028
  4d05ef:	pop    edx
  4d05f0:	push   edx
  4d05f1:	push   esi
  4d05f2:	push   DWORD PTR [edx+0x24]
  4d05f5:	push   esi
  4d05f6:	call   0x4d0418
  4d05fb:	add    esp,0xc
  4d05fe:	pop    edx
  4d05ff:	push   edx
  4d0600:	mov    eax,0x0
  4d0605:	push   eax
  4d0606:	notrack call DWORD PTR ds:0x4d2010
  4d060d:	pop    edx
  4d060e:	add    esp,0x30
  4d0611:	pop    ebp
  4d0612:	ret    
  4d0613:	add    BYTE PTR [ebx-0x1374aa01],cl
  4d0619:	sub    esp,0x28
  4d061c:	mov    edi,0x4d3054
  4d0621:	sbb    DWORD PTR [edi-0x10],edx
  4d0624:	push   edi
  4d0625:	push   DWORD PTR [edi+0x180]
  4d062b:	push   eax
  4d062c:	push   DWORD PTR [edi+0x64]
  4d062f:	push   esi
  4d0630:	call   0x4d0984
  4d0635:	add    esp,0x10
  4d0638:	pop    edi
  4d0639:	mov    esi,0x0
  4d063e:	push   esi
  4d063f:	notrack call DWORD PTR ds:0x4d201c
  4d0646:	mov    ecx,0x0
  4d064b:	push   ecx
  4d064c:	notrack call DWORD PTR ds:0x4d2000
  4d0653:	add    esp,0x28
  4d0656:	pop    ebp
  4d0657:	ret    
  4d0658:	add    BYTE PTR [eax],al
  4d065a:	add    BYTE PTR [eax],al
  4d065c:	mov    edi,edi
  4d065e:	push   ebp
  4d065f:	mov    ebp,esp
  4d0661:	sub    esp,0x40
  4d0664:	lea    ebx,[edi-0xa4]
  4d066a:	or     edx,DWORD PTR [ebp-0x20]
  4d066d:	push   ebx
  4d066e:	push   DWORD PTR [ebx+0x88]
  4d0674:	push   DWORD PTR [ebx+0x94]
  4d067a:	push   edx
  4d067b:	call   0x4d038c
  4d0680:	add    esp,0xc
  4d0683:	pop    ebx
  4d0684:	push   0x0
  4d0686:	notrack call DWORD PTR ds:0x4d202c
  4d068d:	mov    edx,0x0
  4d0692:	push   edx
  4d0693:	notrack call DWORD PTR ds:0x4d2044
  4d069a:	add    esp,0x40
  4d069d:	pop    ebp
  4d069e:	ret    
	...
  4d06ab:	add    BYTE PTR [ebx-0x1374aa01],cl
  4d06b1:	sub    esp,0x38
  4d06b4:	mov    edx,0x4d30a8
  4d06b9:	mov    DWORD PTR [ebp-0xc],eax
  4d06bc:	push   edx
  4d06bd:	push   DWORD PTR [edx+0xdc]
  4d06c3:	push   DWORD PTR [edx+0x188]
  4d06c9:	push   DWORD PTR [edx+0x10c]
  4d06cf:	call   0x4d09d0
  4d06d4:	add    esp,0xc
  4d06d7:	pop    edx
  4d06d8:	push   edx
  4d06d9:	push   0x0
  4d06db:	notrack call DWORD PTR ds:0x4d202c
  4d06e2:	pop    edx
  4d06e3:	push   edx
  4d06e4:	mov    edx,0x0
  4d06e9:	push   edx
  4d06ea:	notrack call DWORD PTR ds:0x4d204c
  4d06f1:	pop    edx
  4d06f2:	add    esp,0x38
  4d06f5:	pop    ebp
  4d06f6:	ret    
  4d06f7:	add    BYTE PTR [ebx-0x1374aa01],cl
  4d06fd:	sub    esp,0x1c
  4d0700:	lea    edi,[edx-0xb4]
  4d0706:	add    DWORD PTR [edi-0x138],ebx
  4d070c:	notrack call DWORD PTR ds:0x4d2014
  4d0713:	push   edi
  4d0714:	push   eax
  4d0715:	push   ecx
  4d0716:	push   DWORD PTR [edi+0xa0]
  4d071c:	push   eax
  4d071d:	call   0x4d0178
  4d0722:	add    esp,0x10
  4d0725:	pop    edi
  4d0726:	mov    eax,0x0
  4d072b:	push   eax
  4d072c:	notrack call DWORD PTR ds:0x4d202c
  4d0733:	add    esp,0x1c
  4d0736:	pop    ebp
  4d0737:	ret    
	...
  4d0748:	mov    edi,edi
  4d074a:	push   ebp
  4d074b:	mov    ebp,esp
  4d074d:	sub    esp,0x38
  4d0750:	lea    ebx,ds:0x4d30d0
  4d0756:	sbb    edi,DWORD PTR [ebx+0x84]
  4d075c:	push   ebx
  4d075d:	push   DWORD PTR [ebx+0xcc]
  4d0763:	push   DWORD PTR [ebx+0x28]
  4d0766:	push   esi
  4d0767:	push   edi
  4d0768:	call   0x4d057c
  4d076d:	add    esp,0x10
  4d0770:	pop    ebx
  4d0771:	push   0x0
  4d0773:	notrack call DWORD PTR ds:0x4d2064
  4d077a:	mov    ecx,0x0
  4d077f:	push   ecx
  4d0780:	notrack call DWORD PTR ds:0x4d204c
  4d0787:	add    esp,0x38
  4d078a:	pop    ebp
  4d078b:	ret    
	...
  4d0798:	mov    edi,edi
  4d079a:	push   ebp
  4d079b:	mov    ebp,esp
  4d079d:	sub    esp,0x20
  4d07a0:	mov    eax,0x4d3014
  4d07a5:	and    edi,DWORD PTR [ebp-0x10]
  4d07a8:	push   eax
  4d07a9:	push   DWORD PTR [eax+0x15c]
  4d07af:	push   DWORD PTR [eax+0x48]
  4d07b2:	push   DWORD PTR [eax+0x1e4]
  4d07b8:	push   DWORD PTR [eax+0x1e8]
  4d07be:	call   0x4d04e4
  4d07c3:	add    esp,0x10
  4d07c6:	pop    eax
  4d07c7:	push   eax
  4d07c8:	mov    eax,0x0
  4d07cd:	push   eax
  4d07ce:	notrack call DWORD PTR ds:0x4d2018
  4d07d5:	pop    eax
  4d07d6:	push   eax
  4d07d7:	push   0x0
  4d07d9:	notrack call DWORD PTR ds:0x4d2004
  4d07e0:	pop    eax
  4d07e1:	add    esp,0x20
  4d07e4:	pop    ebp
  4d07e5:	ret    
  4d07e6:	add    BYTE PTR [eax],al
  4d07e8:	add    BYTE PTR [eax],al
  4d07ea:	add    BYTE PTR [eax],al
  4d07ec:	mov    edi,edi
  4d07ee:	push   ebp
  4d07ef:	mov    ebp,esp
  4d07f1:	sub    esp,0x3c
  4d07f4:	lea    esi,ds:0x4d3198
  4d07fa:	sbb    DWORD PTR [ebp-0xc],0x3061
  4d0801:	push   esi
  4d0802:	push   eax
  4d0803:	push   eax
  4d0804:	push   edx
  4d0805:	call   0x4d086c
  4d080a:	add    esp,0xc
  4d080d:	pop    esi
  4d080e:	push   0x0
  4d0810:	notrack call DWORD PTR ds:0x4d2010
  4d0817:	push   0x0
  4d0819:	notrack call DWORD PTR ds:0x4d2064
  4d0820:	add    esp,0x3c
  4d0823:	pop    ebp
  4d0824:	ret    
  4d0825:	add    BYTE PTR [eax],al
  4d0827:	add    BYTE PTR [ebx-0x1374aa01],cl
  4d082d:	sub    esp,0x4c
  4d0830:	lea    edx,ds:0x4d30dc
  4d0836:	or     edi,ebx
  4d0838:	push   edx
  4d0839:	push   DWORD PTR [edx+0x1e0]
  4d083f:	push   ecx
  4d0840:	push   DWORD PTR [edx+0x4c]
  4d0843:	push   esi
  4d0844:	call   0x4d0530
  4d0849:	add    esp,0x10
  4d084c:	pop    edx
  4d084d:	push   edx
  4d084e:	push   0x0
  4d0850:	notrack call DWORD PTR ds:0x4d2078
  4d0857:	pop    edx
  4d0858:	push   edx
  4d0859:	mov    esi,0x0
  4d085e:	push   esi
  4d085f:	notrack call DWORD PTR ds:0x4d204c
  4d0866:	pop    edx
  4d0867:	add    esp,0x4c
  4d086a:	pop    ebp
  4d086b:	ret    
  4d086c:	mov    edi,edi
  4d086e:	push   ebp
  4d086f:	mov    ebp,esp
  4d0871:	sub    esp,0x60
  4d0874:	sub    ebx,DWORD PTR [esi-0x194]
  4d087a:	lea    ebx,[esi-0x60]
  4d087d:	mov    ecx,0x6ac
  4d0882:	push   ecx
  4d0883:	push   0x6ac
  4d0888:	push   0x40001
  4d088d:	mov    esi,0x862985ba
  4d0892:	push   DWORD PTR [esi+0x7a239a86]
  4d0898:	sub    DWORD PTR [esp],0x2
  4d089c:	mov    esi,0x4d2024
  4d08a1:	pop    DWORD PTR [esi]
  4d08a3:	notrack call DWORD PTR ds:0x4d2024
  4d08aa:	push   eax
  4d08ab:	pop    DWORD PTR [ebx-0x8]
  4d08ae:	mov    esi,DWORD PTR [ebx-0x8]
  4d08b1:	lea    eax,[esi]
  4d08b3:	sub    edx,edx
  4d08b5:	dec    edx
  4d08b6:	and    edx,0x4d0ae8
  4d08bc:	mov    edi,0x9de45a73
  4d08c1:	xor    esi,esi
  4d08c3:	cmp    esi,0x6ac
  4d08c9:	je     0x4d08e7
  4d08cb:	sub    esi,0xfffffffc
  4d08ce:	xor    ecx,ecx
  4d08d0:	push   DWORD PTR [edx+ecx*1]
  4d08d3:	inc    DWORD PTR [esp]
  4d08d6:	xor    DWORD PTR [esp],edi
  4d08d9:	pop    DWORD PTR [eax+ecx*2]
  4d08dc:	push   DWORD PTR [edx]
  4d08de:	pop    edi
  4d08df:	add    edx,0x4
  4d08e2:	add    eax,0x4
  4d08e5:	jmp    0x4d08c3
  4d08e7:	push   0x0
  4d08e9:	notrack call DWORD PTR ds:0x4d2018
  4d08f0:	add    esp,0x60
  4d08f3:	pop    ebp
  4d08f4:	ret    
  4d08f5:	add    BYTE PTR [eax],al
  4d08f7:	add    BYTE PTR [ebx-0x1374aa01],cl
  4d08fd:	sub    esp,0x20
  4d0900:	mov    eax,0x4d3160
  4d0905:	or     ecx,0x341f
  4d090b:	push   eax
  4d090c:	push   DWORD PTR [eax+0x140]
  4d0912:	push   DWORD PTR [eax+0xa8]
  4d0918:	push   DWORD PTR [eax+0x84]
  4d091e:	push   edi
  4d091f:	call   0x4d0214
  4d0924:	add    esp,0x10
  4d0927:	pop    eax
  4d0928:	push   eax
  4d0929:	push   0x0
  4d092b:	notrack call DWORD PTR ds:0x4d2038
  4d0932:	pop    eax
  4d0933:	push   eax
  4d0934:	mov    esi,0x0
  4d0939:	push   esi
  4d093a:	notrack call DWORD PTR ds:0x4d207c
  4d0941:	pop    eax
  4d0942:	add    esp,0x20
  4d0945:	pop    ebp
  4d0946:	ret    
  4d0947:	add    BYTE PTR [ebx-0x1374aa01],cl
  4d094d:	sub    esp,0x58
  4d0950:	mov    eax,0x4d308c
  4d0955:	sub    DWORD PTR [eax+0xc],0x42f0
  4d095c:	push   eax
  4d095d:	push   ecx
  4d095e:	push   ecx
  4d095f:	push   edi
  4d0960:	push   edi
  4d0961:	call   0x4d0a68
  4d0966:	add    esp,0x10
  4d0969:	pop    eax
  4d096a:	push   eax
  4d096b:	push   0x0
  4d096d:	notrack call DWORD PTR ds:0x4d2028
  4d0974:	pop    eax
  4d0975:	push   eax
  4d0976:	notrack call DWORD PTR ds:0x4d2014
  4d097d:	pop    eax
  4d097e:	add    esp,0x58
  4d0981:	pop    ebp
  4d0982:	ret    
  4d0983:	add    BYTE PTR [ebx-0x1374aa01],cl
  4d0989:	sub    esp,0x5c
  4d098c:	lea    esi,ds:0x4d30d4
  4d0992:	adc    eax,DWORD PTR [esi-0xcc]
  4d0998:	push   0x0
  4d099a:	notrack call DWORD PTR ds:0x4d2038
  4d09a1:	push   esi
  4d09a2:	push   DWORD PTR [esi+0x60]
  4d09a5:	push   DWORD PTR [esi+0xe0]
  4d09ab:	push   DWORD PTR [esi+0x1a0]
  4d09b1:	call   0x4d01c8
  4d09b6:	add    esp,0xc
  4d09b9:	pop    esi
  4d09ba:	mov    ebx,0x0
  4d09bf:	push   ebx
  4d09c0:	notrack call DWORD PTR ds:0x4d207c
  4d09c7:	add    esp,0x5c
  4d09ca:	pop    ebp
  4d09cb:	ret    
  4d09cc:	add    BYTE PTR [eax],al
  4d09ce:	add    BYTE PTR [eax],al
  4d09d0:	mov    edi,edi
  4d09d2:	push   ebp
  4d09d3:	mov    ebp,esp
  4d09d5:	sub    esp,0x44
  4d09d8:	lea    ebx,[edx+0x8c]
  4d09de:	or     DWORD PTR [ebx-0xec],0xffffffb3
  4d09e5:	push   ebx
  4d09e6:	push   edx
  4d09e7:	push   esi
  4d09e8:	push   edi
  4d09e9:	push   esi
  4d09ea:	call   0x4d0004
  4d09ef:	add    esp,0x10
  4d09f2:	pop    ebx
  4d09f3:	mov    edi,0x0
  4d09f8:	push   edi
  4d09f9:	notrack call DWORD PTR ds:0x4d2010
  4d0a00:	lea    ecx,[ebx-0x134]
  4d0a06:	push   ecx
  4d0a07:	notrack call DWORD PTR ds:0x4d2020
  4d0a0e:	test   eax,eax
  4d0a10:	jne    0x4d0a01
  4d0a12:	add    esp,0x44
  4d0a15:	pop    ebp
  4d0a16:	ret    
  4d0a17:	add    BYTE PTR [eax],al
  4d0a19:	add    BYTE PTR [eax],al
  4d0a1b:	add    BYTE PTR [ebx-0x1374aa01],cl
  4d0a21:	sub    esp,0x30
  4d0a24:	mov    eax,0x4d301c
  4d0a29:	mov    DWORD PTR [ebp-0x14],ecx
  4d0a2c:	push   eax
  4d0a2d:	push   DWORD PTR [eax+0x6c]
  4d0a30:	push   DWORD PTR [eax+0x194]
  4d0a36:	push   DWORD PTR [eax+0xa4]
  4d0a3c:	call   0x4d04a0
  4d0a41:	add    esp,0xc
  4d0a44:	pop    eax
  4d0a45:	push   eax
  4d0a46:	mov    edi,0x0
  4d0a4b:	push   edi
  4d0a4c:	notrack call DWORD PTR ds:0x4d204c
  4d0a53:	pop    eax
  4d0a54:	push   eax
  4d0a55:	mov    eax,0x0
  4d0a5a:	push   eax
  4d0a5b:	notrack call DWORD PTR ds:0x4d2038
  4d0a62:	pop    eax
  4d0a63:	add    esp,0x30
  4d0a66:	pop    ebp
  4d0a67:	ret    
  4d0a68:	mov    edi,edi
  4d0a6a:	push   ebp
  4d0a6b:	mov    ebp,esp
  4d0a6d:	sub    esp,0x1c
  4d0a70:	mov    ecx,0x4d31ac
  4d0a75:	adc    edi,DWORD PTR [ecx-0x17c]
  4d0a7b:	push   ecx
  4d0a7c:	notrack call DWORD PTR ds:0x4d2014
  4d0a83:	pop    ecx
  4d0a84:	push   ecx
  4d0a85:	push   eax
  4d0a86:	push   DWORD PTR [ecx+0xac]
  4d0a8c:	call   0x4d07ec
  4d0a91:	add    esp,0x8
  4d0a94:	pop    ecx
  4d0a95:	push   ecx
  4d0a96:	mov    edx,0x0
  4d0a9b:	push   edx
  4d0a9c:	notrack call DWORD PTR ds:0x4d201c
  4d0aa3:	pop    ecx
  4d0aa4:	add    esp,0x1c
  4d0aa7:	pop    ebp
  4d0aa8:	ret    
  4d0aa9:	add    BYTE PTR [eax],al
  4d0aab:	add    BYTE PTR [ecx+0x46],bh
  4d0aae:	test   DWORD PTR [edx],edx
  4d0ab0:	pop    ecx
  4d0ab1:	out    0x21,eax
  4d0ab3:	or     DWORD PTR [ecx-0x9],ecx
  4d0ab6:	adc    edi,DWORD PTR [ecx+0x25]
  4d0ab9:	jmp    0xf9a44b30
  4d0abe:	scas   al,BYTE PTR es:[edi]
  4d0abf:	inc    ebx
  4d0ac0:	cs mov esi,0x6458f6e6
  4d0ac6:	arpl   WORD PTR [ecx+0x53ab07a9],cx
  4d0acc:	ret    0x93a
  4d0acf:	icebp  
  4d0ad0:	out    0x4d,al
  4d0ad2:	fcmovu st,st(3)
  4d0ad4:	jnp    0x4d0b1e
  4d0ad6:	ror    DWORD PTR [edx+0x38e63486],0xab
  4d0add:	lods   al,BYTE PTR ds:[esi]
  4d0ade:	bound  edx,QWORD PTR [edi-0x18]
  4d0ae1:	dec    edx
  4d0ae2:	push   ds
  4d0ae3:	mov    DWORD PTR [eax+0x227e13ee],edi
  4d0ae9:	add    dh,BYTE PTR [ebp+ecx*1+0x71]
  4d0aed:	pop    edx
  4d0aee:	in     al,0x9d
  4d0af0:	pop    ecx
  4d0af1:	xchg   ebx,eax
  4d0af2:	addr16 pop esp
  4d0af4:	pop    ecx
  4d0af5:	(bad)  
  4d0af6:	cmp    DWORD PTR [esi+0x4afd45a3],edi
  4d0afc:	dec    edx
  4d0afd:	dec    eax
  4d0afe:	std    
  4d0aff:	dec    edx
  4d0b00:	dec    ecx
  4d0b01:	enter  0x5bc7,0x9f
  4d0b05:	lods   eax,DWORD PTR ds:[esi]
  4d0b06:	stos   DWORD PTR es:[edi],eax
  4d0b07:	push   0x4cf83ac
  4d0b0c:	mov    edi,0x3d549783
  4d0b11:	sbb    DWORD PTR [esi+edi*2+0x5b],0x6
  4d0b16:	mov    ds:0xa0decfa8,eax
  4d0b1b:	jmp    0x4d0b0f
  4d0b1d:	pop    edi
  4d0b1e:	fdivr  DWORD PTR [ebx-0x4423200f]
  4d0b24:	xchg   ah,dh
  4d0b26:	xor    al,0x49
  4d0b28:	xor    ah,0x34
  4d0b2b:	adc    al,0x8
  4d0b2d:	add    DWORD PTR [ebp-0x72fef8fc],ecx
  4d0b33:	test   eax,0xa98ff3ee
  4d0b38:	in     eax,dx
  4d0b39:	jp     0x4d0b04
  4d0b3b:	push   ebp
  4d0b3c:	push   cs
  4d0b3d:	(bad)  
  4d0b3e:	mov    ds:0xcfce6536,eax
  4d0b43:	pop    edx
  4d0b44:	or     DWORD PTR [esi-0x2998c079],esp
  4d0b4a:	shr    DWORD PTR [edi+edx*4-0x7d],cl
  4d0b4e:	frstpm(287 only) 
  4d0b50:	nop
  4d0b51:	jmp    0x9c229931
  4d0b56:	mov    esi,0xdbd3bce8
  4d0b5b:	mov    ebx,ecx
  4d0b5d:	xchg   DWORD PTR [eax+0x18f9d76],ecx
  4d0b63:	xor    BYTE PTR [eax-0xed73af4],bl
  4d0b69:	dec    esp
  4d0b6a:	lods   eax,DWORD PTR ds:[esi]
  4d0b6b:	sub    al,ah
  4d0b6d:	dec    esp
  4d0b6e:	lods   eax,DWORD PTR ds:[esi]
  4d0b6f:	inc    eax
  4d0b70:	inc    ebx
  4d0b71:	dec    edx
  4d0b72:	lods   eax,DWORD PTR ds:[esi]
  4d0b73:	inc    eax
  4d0b74:	sub    BYTE PTR [edx+0x52],cl
  4d0b77:	adc    eax,0x10aac137
  4d0b7c:	cmps   DWORD PTR ds:[esi],DWORD PTR es:[edi]
  4d0b7d:	shr    DWORD PTR [edx+0x1f4cf610],0xc0
  4d0b84:	push   cs
  4d0b85:	mov    bl,0xe0
  4d0b87:	jns    0x4d0b32
  4d0b89:	mov    ch,0xe0
  4d0b8b:	jns    0x4d0be6
  4d0b8d:	adc    DWORD PTR [ebx],esp
  4d0b8f:	xchg   ecx,eax
  4d0b90:	iret   
  4d0b91:	adc    al,0x23
  4d0b93:	xchg   ecx,eax
  4d0b94:	xchg   ecx,eax
  4d0b95:	dec    edx
  4d0b96:	movs   BYTE PTR es:[edi],BYTE PTR ds:[esi]
  4d0b97:	movs   DWORD PTR es:[edi],DWORD PTR ds:[esi]
  4d0b98:	mov    ah,0x1c
  4d0b9a:	dec    esp
  4d0b9b:	pop    esp
  4d0b9c:	scas   eax,DWORD PTR es:[edi]
  4d0b9d:	sbb    al,0x4c
  4d0b9f:	mov    ah,0x97
  4d0ba1:	sbb    DWORD PTR [esp+esi*4+0x1b],ecx
  4d0ba5:	loope  0x4d0bcd
  4d0ba7:	mov    ah,0x70
  4d0ba9:	loope  0x4d0b84
  4d0bab:	rcl    DWORD PTR [ebx],0xb6
  4d0bae:	es xchg esp,eax
  4d0bb0:	cmp    bh,BYTE PTR ds:0x3d4ffc6b
  4d0bb6:	aas    
  4d0bb7:	movs   BYTE PTR es:[edi],BYTE PTR ds:[esi]
  4d0bb8:	scas   eax,DWORD PTR es:[edi]
  4d0bb9:	or     DWORD PTR [ebx],ebx
  4d0bbb:	hlt    
  4d0bbc:	std    
  4d0bbd:	pop    edi
  4d0bbe:	dec    esp
  4d0bbf:	or     esp,DWORD PTR [edi+0x575c1473]
  4d0bc5:	es or  al,0xb4
  4d0bc8:	jge    0x4d0bef
  4d0bca:	or     al,0xb4
  4d0bcc:	cmc    
  4d0bcd:	arpl   WORD PTR [eax],si
  4d0bcf:	cmp    eax,esi
  4d0bd1:	gs push esi
  4d0bd3:	into   
  4d0bd4:	scas   eax,DWORD PTR es:[edi]
  4d0bd5:	jae    0x4d0c2d
  4d0bd7:	out    dx,al
  4d0bd8:	fldenv [ebp+0x6f]
  4d0bdb:	mov    dh,0xec
  4d0bdd:	adc    DWORD PTR [esi+0x3d],edi
  4d0be0:	mov    bl,0x25
  4d0be2:	adc    al,0x39
  4d0be4:	fisub  DWORD PTR ds:0xdad93924
  4d0bea:	push   esp
  4d0beb:	imul   ecx,DWORD PTR [ecx+0x1790125],0x54296d58
  4d0bf5:	xor    ch,BYTE PTR [ecx+0x7e]
  4d0bf8:	push   es
  4d0bf9:	int    0x3c
  4d0bfb:	jb     0x4d0c4e
  4d0bfd:	cmps   DWORD PTR ds:[esi],DWORD PTR es:[edi]
  4d0bfe:	ds and eax,0xeab5f101
  4d0c04:	mov    DWORD PTR [edx],ecx
  4d0c06:	inc    esi
  4d0c07:	dec    esi
  4d0c08:	(bad)  
  4d0c09:	cmc    
  4d0c0a:	adc    eax,DWORD PTR [edx-0x73]
  4d0c0d:	jle    0x4d0bec
  4d0c0f:	inc    ecx
  4d0c10:	ret    
  4d0c11:	inc    edx
  4d0c12:	push   eax
  4d0c13:	cmp    dl,bl
  4d0c15:	leave  
  4d0c16:	pop    es
  4d0c17:	sbb    ah,dl
  4d0c19:	jle    0x4d0c61
  4d0c1b:	or     al,0xd6
  4d0c1d:	xchg   BYTE PTR [ecx-0x45],cl
  4d0c20:	sahf   
  4d0c21:	sub    BYTE PTR [ecx],0x30
  4d0c24:	fcom   DWORD PTR [esp+ebp*4+0x27d5abf0]
  4d0c2b:	mov    bh,0xa2
  4d0c2d:	push   eax
  4d0c2e:	out    0xc3,eax
  4d0c30:	xchg   edi,eax
  4d0c31:	mov    eax,0xb896c776
  4d0c36:	std    
  4d0c37:	nop    edi
  4d0c3a:	(bad)  
  4d0c3c:	push   0x6ae7d9fd
  4d0c41:	mov    cl,ch
  4d0c43:	sbb    BYTE PTR [edx+ebx*4],bl
  4d0c46:	inc    esi
  4d0c47:	setns  BYTE PTR [di+0x5e3c]
  4d0c4d:	adc    ch,BYTE PTR [ecx+0x6e]
  4d0c50:	or     eax,0x5e3f3e43
  4d0c55:	sub    DWORD PTR [edx],edi
  4d0c57:	outs   dx,BYTE PTR ds:[esi]
  4d0c58:	or     dh,dl
  4d0c5a:	outs   dx,DWORD PTR ds:[esi]
  4d0c5b:	bound  edx,QWORD PTR [eax-0x1b]
  4d0c5e:	scas   eax,DWORD PTR es:[edi]
  4d0c5f:	xor    eax,0xbef04fa2
  4d0c64:	push   0x3c4154bc
  4d0c69:	mov    al,0xc
  4d0c6b:	and    BYTE PTR [esi+0xec22477],bh
  4d0c71:	lahf   
  4d0c72:	das    
  4d0c73:	ret    
  4d0c74:	or     eax,0xc42c79f
  4d0c79:	lahf   
  4d0c7a:	(bad)  
  4d0c7b:	sbb    ah,BYTE PTR [ebx-0x61]
  4d0c7e:	xchg   DWORD PTR [edx],ebx
  4d0c80:	bound  esp,QWORD PTR [eax-0xe]
  4d0c83:	jb     0x4d0cb8
  4d0c85:	jmp    0x4d0c90
  4d0c87:	stc    
  4d0c88:	ret    0x303
  4d0c8b:	std    
  4d0c8c:	rol    DWORD PTR [ebx],0x67
  4d0c8f:	add    dh,bl
  4d0c91:	xor    esp,DWORD PTR [edi+0x2]
  4d0c94:	repnz imul ebp,esp,0x42
  4d0c98:	std    
  4d0c99:	loopne 0x4d0c47
  4d0c9b:	dec    esi
  4d0c9c:	ret    
  4d0c9d:	mov    eax,0x33c63ab4
  4d0ca2:	mov    ah,0xd1
  4d0ca4:	xor    BYTE PTR [eax-0xecd0a48],bh
  4d0caa:	test   BYTE PTR [esi+0x42],bh
  4d0cad:	fld    DWORD PTR [edi-0x605e3577]
  4d0cb3:	add    BYTE PTR [ecx-0x8080643],bh
  4d0cb9:	stos   DWORD PTR es:[edi],eax
  4d0cba:	stc    
  4d0cbb:	xlat   BYTE PTR ds:[ebx]
  4d0cbc:	and    DWORD PTR [edi-0x58678963],0xe712769d
  4d0cc6:	lods   eax,DWORD PTR ds:[esi]
  4d0cc7:	jmp    FWORD PTR [ecx-0x11]
  4d0cca:	push   edx
  4d0ccb:	stos   BYTE PTR es:[edi],al
  4d0ccc:	jl     0x4d0cd5
  4d0cce:	and    al,0xa8
  4d0cd0:	jnp    0x4d0cd9
  4d0cd2:	jns    0x4d0d35
  4d0cd4:	and    cl,BYTE PTR [esi-0x10c2baf3]
  4d0cda:	pop    ebp
  4d0cdb:	lods   eax,DWORD PTR ds:[esi]
  4d0cdc:	(bad)  
  4d0cdd:	jmp    0xf525:0x6ba6ad5d
  4d0ce4:	movs   DWORD PTR es:[edi],DWORD PTR ds:[esi]
  4d0ce5:	imul   esp,DWORD PTR ds:0xae66cff5,0xaaa1eaf1
  4d0cef:	aad    0xe9
  4d0cf1:	mov    eax,ds:0xd515d5aa
  4d0cf6:	mov    ss,ecx
  4d0cf8:	inc    esp
  4d0cf9:	out    0x4e,al
  4d0cfb:	adc    ah,BYTE PTR [ebx]
  4d0cfd:	ins    DWORD PTR es:[edi],dx
  4d0cfe:	mov    ebp,0x36515411
  4d0d03:	cmps   DWORD PTR ds:[esi],DWORD PTR es:[edi]
  4d0d04:	rcl    DWORD PTR [ecx+0x36],cl
  4d0d07:	cmps   DWORD PTR ds:[esi],DWORD PTR es:[edi]
  4d0d08:	push   ebp
  4d0d09:	cmps   DWORD PTR ds:[esi],DWORD PTR es:[edi]
  4d0d0a:	inc    edx
  4d0d0b:	aam    0x55
  4d0d0d:	push   esp
  4d0d0e:	leave  
  4d0d0f:	stos   BYTE PTR es:[edi],al
  4d0d10:	pop    eax
  4d0d11:	shl    DWORD PTR [esi],1
  4d0d13:	fidiv  WORD PTR [ecx]
  4d0d15:	ror    ch,cl
  4d0d17:	mov    ebp,ecx
  4d0d19:	xchg   ecx,ecx
  4d0d1b:	or     al,0xc
  4d0d1d:	repnz int 0x5b
  4d0d20:	repnz cmps DWORD PTR ds:[esi],DWORD PTR es:[edi]
  4d0d22:	int    0xb
  4d0d24:	mov    ds:0x9f1bbb2c,eax
  4d0d29:	fbstp  TBYTE PTR [eax]
  4d0d2b:	in     eax,0x31
  4d0d2d:	pop    edx
  4d0d2e:	lock nop
  4d0d30:	leave  
  4d0d31:	jno    0x4d0d3a
  4d0d33:	sbb    eax,DWORD PTR [esi]
  4d0d35:	das    
  4d0d36:	push   esi
  4d0d37:	dec    ebx
  4d0d38:	push   ecx
  4d0d39:	inc    ebp
  4d0d3a:	push   edx
  4d0d3b:	sbb    al,BYTE PTR ds:0x521607ba
  4d0d41:	xor    DWORD PTR [ecx],eax
  4d0d43:	xchg   ebx,eax
  4d0d44:	xchg   ecx,eax
  4d0d45:	mov    eax,ds:0xb1d61891
  4d0d4a:	sbb    al,0x2c
  4d0d4c:	aam    0xe6
  4d0d4e:	mov    cl,0xa9
  4d0d50:	adc    edx,DWORD PTR [edx-0x6dedff56]
  4d0d56:	stos   BYTE PTR es:[edi],al
  4d0d57:	and    BYTE PTR [esi-0x6a],0x27
  4d0d5b:	les    esp,FWORD PTR [esp+edx*4+0x2]
  4d0d5f:	cmp    ebx,DWORD PTR [edx+0x646b7d6b]
  4d0d65:	pop    ds
  4d0d66:	pop    ecx
  4d0d67:	jg     0x4d0d03
  4d0d69:	dec    edx
  4d0d6a:	push   ecx
  4d0d6b:	aam    0x70
  4d0d6d:	stos   BYTE PTR es:[edi],al
  4d0d6e:	push   cs
  4d0d6f:	mov    ah,BYTE PTR [edi]
  4d0d71:	repz pop edx
  4d0d73:	fidiv  DWORD PTR [ebp-0x5c]
  4d0d76:	movs   DWORD PTR es:[edi],DWORD PTR ds:[esi]
  4d0d77:	(bad)  
  4d0d78:	js     0x4d0d76
  4d0d7a:	es dec ecx
  4d0d7c:	imul   edx,DWORD PTR [edi],0xffffffa9
  4d0d7f:	sub    BYTE PTR [edi+0x2bfb2277],ah
  4d0d85:	test   DWORD PTR [ecx],esp
  4d0d87:	lea    edx,[esi]
  4d0d89:	scas   al,BYTE PTR es:[edi]
  4d0d8a:	ja     0x4d0d45
  4d0d8c:	xchg   edx,eax
  4d0d8d:	jl     0x4d0e07
  4d0d8f:	cmp    eax,0x3d787c06
  4d0d94:	mov    edx,?
  4d0d96:	fdivr  QWORD PTR ds:0x8b57f28b
  4d0d9c:	sub    dh,dl
  4d0d9e:	push   edi
  4d0d9f:	mov    ebp,DWORD PTR [esi+0x2e0f5804]
  4d0da5:	add    al,0x58
  4d0da7:	cvttps2pi mm6,xmm7
  4d0daa:	cmc    
  4d0dab:	test   bl,dl
  4d0dad:	hlt    
  4d0dae:	push   cs
  4d0daf:	aam    0x57
  4d0db1:	xor    BYTE PTR [esi-0x7b],bl
  4d0db4:	add    al,0x60
  4d0db6:	xor    al,0x81
  4d0db8:	imul   esp,DWORD PTR [eax+0x24],0xffffff81
  4d0dbc:	push   0x37
  4d0dbe:	cmps   DWORD PTR ds:[esi],DWORD PTR es:[edi]
  4d0dbf:	imul   ebp,DWORD PTR [ebp+0x67],0x67046dcd
  4d0dc6:	(bad)  [ebp+0x3]
  4d0dc9:	xor    BYTE PTR [ecx+ebp*2+0x26],bl
  4d0dcd:	xor    BYTE PTR [ecx+ebp*2+0x25],cl
  4d0dd1:	iret   
  4d0dd2:	sbb    DWORD PTR [ebp-0x27],esp
  4d0dd5:	call   0xf73e:0x377f3f15
  4d0ddc:	sub    eax,0xc326f6bc
  4d0de1:	aas    
  4d0de2:	pop    ds
  4d0de3:	and    ch,bh
  4d0de5:	(bad)  
  4d0de6:	jns    0x4d0d77
  4d0de8:	mov    BYTE PTR [esi+0x79],dl
  4d0deb:	mov    edi,0x405c5efb
  4d0df0:	repz pop esi
  4d0df2:	pop    esp
  4d0df3:	inc    ecx
  4d0df4:	out    0x59,al
  4d0df6:	mov    esi,0xfad4beaf
  4d0dfb:	mov    edi,DWORD PTR [ecx+0x45dba885]
  4d0e01:	mov    ch,0xc0
  4d0e03:	fist   DWORD PTR [ebp+esi*4-0x40]
  4d0e07:	mov    esi,ss
  4d0e09:	pop    ebp
  4d0e0a:	(bad)  
  4d0e0b:	fsubr  QWORD PTR [eax]
  4d0e0d:	ins    DWORD PTR es:[edi],dx
  4d0e0e:	lods   al,BYTE PTR ds:[esi]
  4d0e0f:	fdiv   QWORD PTR [edi]
  4d0e11:	ins    DWORD PTR es:[edi],dx
  4d0e12:	lods   al,BYTE PTR ds:[esi]
  4d0e13:	mov    esi,DWORD PTR [ebp-0x5b747797]
  4d0e19:	imul   ecx,DWORD PTR [eax+0x7765f074],0x2e3ffb21
  4d0e23:	jns    0x4d0dc7
  4d0e25:	mov    edx,0xdb220ce7
  4d0e2a:	and    al,0x6c
  4d0e2c:	enter  0x89dc,0x8e
  4d0e30:	xor    al,0x51
  4d0e32:	mov    ebp,0x55daf68d
  4d0e37:	push   es
  4d0e38:	add    al,0x63
  4d0e3a:	inc    ebp
  4d0e3b:	push   es
  4d0e3c:	add    esp,DWORD PTR [ebx-0x53]
  4d0e3f:	in     eax,dx
  4d0e40:	sti    
  4d0e41:	pushf  
  4d0e42:	push   edx
  4d0e43:	push   esp
  4d0e44:	jecxz  0x4d0de2
  4d0e46:	push   edx
  4d0e47:	push   esp
  4d0e48:	or     bh,BYTE PTR [ebp-0x53]
  4d0e4b:	stos   DWORD PTR es:[edi],eax
  4d0e4c:	hlt    
  4d0e4d:	sub    edx,DWORD PTR [esp+ebp*4]
  4d0e50:	repz sub edx,DWORD PTR [esp+eax*2]
  4d0e54:	and    al,0xd4
  4d0e56:	jmp    0x4d0e13
  4d0e58:	scas   al,BYTE PTR es:[edi]
  4d0e59:	add    al,0x60
  4d0e5b:	(bad)
  4d0e5f:	(bad)
  4d0e63:	dec    eax
  4d0e64:	jbe    0x4d0ea8
  4d0e66:	jle    0x4d0e2b
  4d0e68:	xchg   ecx,ecx
  4d0e6a:	mov    ah,0x2b
  4d0e6c:	cmp    BYTE PTR [esi],dh
  4d0e6e:	dec    ebx
  4d0e6f:	aam    0xa
  4d0e71:	neg    BYTE PTR [ebx]
  4d0e73:	adc    eax,0x11daf1c1
  4d0e78:	in     al,0xfc
  4d0e7a:	fist   DWORD PTR ds:0xd55f50bf
  4d0e80:	leave  
  4d0e81:	mov    eax,ds:0x9a3d5e07
  4d0e86:	ret    0x3d2a
  4d0e89:	shl    BYTE PTR [edi-0x6c1b4a09],1
  4d0e8f:	dec    esi
  4d0e90:	mov    esi,0x554e93e4
  4d0e95:	jno    0x4d0f03
  4d0e97:	mov    cl,0xa9
  4d0e99:	jle    0x4d0e76
  4d0e9b:	mov    ebp,0x48a20fe
  4d0ea0:	cmc    
  4d0ea1:	and    BYTE PTR [edx+0x75a51c04],cl
  4d0ea7:	sti    
  4d0ea8:	loop   0x4d0ea6
  4d0eaa:	popf   
  4d0eab:	test   BYTE PTR [ebx+eax*1],bl
  4d0eae:	bound  ecx,QWORD PTR ds:0x6c7e2767
  4d0eb4:	mov    ds:0xbd84bf76,eax
  4d0eb9:	iret   
  4d0eba:	lahf   
  4d0ebb:	test   BYTE PTR [edi+ecx*8+0x768bf0d7],bh
  4d0ec2:	aad    0xf0
  4d0ec4:	mov    dh,BYTE PTR [esi-0x63]
  4d0ec7:	test   BYTE PTR [ecx-0x5f7b4231],ah
  4d0ecd:	iret   
  4d0ece:	cmc    
  4d0ecf:	lock jg 0x4d0f48
  4d0ed2:	icebp  
  4d0ed3:	lock jle 0x4d0f4c
  4d0ed6:	mov    ecx,0xf9cf6584
  4d0edb:	test   BYTE PTR [edi+ecx*8-0x4f],ah
  4d0edf:	lock jae 0x4d0f58
  4d0ee2:	mov    ch,0xf0
  4d0ee4:	jb     0x4d0f5c
  4d0ee6:	std    
  4d0ee7:	test   BYTE PTR [ecx-0x31],bh
  4d0eea:	mov    ebp,0xf5cf7884
  4d0eef:	lock ja 0x4d0f36
  4d0ef2:	xor    al,0xa9
  4d0ef4:	mov    bl,0x24
  4d0ef6:	mov    edi,0x4da5c2fc
  4d0efb:	ins    DWORD PTR es:[edi],dx
  4d0efc:	daa    
  4d0efd:	loopne 0x4d0f34
  4d0eff:	out    0x69,al
  4d0f01:	mov    BYTE PTR [esi-0x190a16e8],bh
  4d0f07:	sbb    BYTE PTR [esi+esi*8+0x7dc36de7],bl
  4d0f0e:	mov    ds:0xd6bd450d,al
  4d0f13:	sbb    bl,cl
  4d0f15:	sti    
  4d0f16:	jmp    0x6f4a:0xeaff704a
  4d0f1d:	pop    ss
  4d0f1e:	dec    edi
  4d0f1f:	dec    ebx
  4d0f20:	outs   dx,BYTE PTR ds:[esi]
  4d0f21:	pop    ss
  4d0f22:	adc    eax,0xed149d48
  4d0f27:	arpl   WORD PTR [edi+ebp*1-0x68],dx
  4d0f2b:	cmp    esp,DWORD PTR [eax]
  4d0f2d:	and    bl,BYTE PTR [ebx-0x19de84b2]
  4d0f33:	adc    cl,BYTE PTR [edi+0x6c]
  4d0f36:	mov    edx,0xb1188597
  4d0f3b:	cmp    dl,ah
  4d0f3d:	sub    esi,DWORD PTR [ebx+0x60]
  4d0f40:	jle    0x4d0eea
  4d0f42:	call   0xfaa0:0xfb4b9b63
  4d0f49:	enter  0xec86,0xf9
  4d0f4d:	mov    esp,0xbcf50494
  4d0f52:	xchg   esp,eax
  4d0f53:	add    al,0x7d
  4d0f55:	rol    eax,0x81
  4d0f58:	xor    DWORD PTR [ebp+0x16682ac6],0x77672ac6
  4d0f62:	add    eax,0x3922974a
  4d0f67:	ror    DWORD PTR [esi-0x57],0x4c
  4d0f6b:	(bad)  
  4d0f6c:	(bad)  
  4d0f6d:	in     al,dx
  4d0f6e:	sbb    al,0xdd
  4d0f70:	xchg   ebx,eax
  4d0f71:	test   BYTE PTR [ebx*8+0x224f849e],bl
  4d0f78:	retf   0x16c4
  4d0f7b:	jb     0x4d0fbd
  4d0f7d:	cmp    al,0xe5
  4d0f7f:	(bad)  
  4d0f80:	cmps   DWORD PTR ds:[esi],DWORD PTR es:[edi]
  4d0f81:	add    al,0xe5
  4d0f83:	(bad)  
  4d0f84:	cmps   BYTE PTR ds:[esi],BYTE PTR es:[edi]
  4d0f85:	dec    esp
  4d0f86:	ins    BYTE PTR es:[edi],dx
  4d0f87:	xchg   edx,eax
  4d0f88:	sub    DWORD PTR [edi+eiz*8+0x6a],0x6e5a600b
  4d0f90:	or     ah,BYTE PTR [eax+0x5a]
  4d0f93:	or     ch,BYTE PTR [edx-0x56f5a588]
  4d0f99:	repz sub ah,BYTE PTR [esi]
  4d0f9c:	neg    DWORD PTR [ebx-0x6405d9d6]
  4d0fa2:	jns    0x4d0f7d
  4d0fa4:	scas   al,BYTE PTR es:[edi]
  4d0fa5:	fcomi  st,st(4)
  4d0fa7:	aad    0x15
  4d0fa9:	push   esp
  4d0faa:	cmc    
  4d0fab:	test   DWORD PTR [ebp+0x6d7d7e9b],ebx
  4d0fb1:	ds sbb bl,ah
  4d0fb4:	je     0x4d0ff4
  4d0fb6:	sbb    bl,ah
  4d0fb8:	cli    
  4d0fb9:	jle    0x4d0ff1
  4d0fbb:	mov    ebp,0x51b71e38
  4d0fc0:	pop    ss
  4d0fc1:	sbb    al,0xb7
  4d0fc3:	push   ecx
  4d0fc4:	jle    0x4d0ffe
  4d0fc6:	mov    ch,0x51
  4d0fc8:	jge    0x4d0fd5
  4d0fca:	inc    ebx
  4d0fcb:	cmp    edi,DWORD PTR [ecx+eiz*2+0x4b]
  4d0fcf:	les    ebp,FWORD PTR [eax]
  4d0fd1:	jge    0x4d0f93
  4d0fd3:	sbb    al,0x7b
  4d0fd5:	cs aas 
  4d0fd7:	dec    ecx
  4d0fd8:	dec    esi
  4d0fd9:	movs   DWORD PTR es:[edi],DWORD PTR ds:[esi]
  4d0fda:	jnp    0x4d1049
  4d0fdc:	push   ecx
  4d0fdd:	cmps   BYTE PTR ds:[esi],BYTE PTR es:[edi]
  4d0fde:	cmp    edx,DWORD PTR [ecx-0x27]
  4d0fe1:	es sti 
  4d0fe3:	push   ecx
  4d0fe4:	fsub   DWORD PTR [esi]
  4d0fe6:	jle    0x4d0f79
  4d0fe8:	stos   DWORD PTR es:[edi],eax
  4d0fe9:	daa    
  4d0fea:	cmp    ch,al
  4d0fec:	neg    eax
  4d0fee:	ins    DWORD PTR es:[edi],dx
  4d0fef:	std    
  4d0ff0:	jno    0x4d100a
  4d0ff2:	sbb    BYTE PTR [eax],bl
  4d0ff4:	and    edi,esp
  4d0ff6:	dec    ebp
  4d0ff7:	add    BYTE PTR [edi-0x61fd96dd],bl
  4d0ffd:	and    esp,eax
  4d0fff:	jbe    0x4d0fba
  4d1001:	aas    
  4d1002:	xor    DWORD PTR [ebp-0x2612a828],0xab8557d7
  4d100c:	mov    ds:0xcec3e179,al
  4d1011:	or     dl,BYTE PTR [edi-0x3d0a6660]
  4d1017:	movs   BYTE PTR es:[edi],BYTE PTR ds:[esi]
  4d1018:	sbb    esi,DWORD PTR ds:0xca4eacb7
  4d101e:	loop   0x4d0fcc
  4d1020:	retf   0x960a
  4d1023:	loope  0x4d0fc4
  4d1025:	or     bh,dh
  4d1027:	mov    al,dh
  4d1029:	jle    0x4d0fc3
  4d102b:	loopne 0x4d0fc2
  4d102d:	or     eax,ebp
  4d102f:	xchg   edx,eax
  4d1030:	rcr    BYTE PTR [ecx+0x17],0xc7
  4d1034:	(bad)  
  4d1035:	fcmovbe st,st(3)
  4d1037:	retf   
  4d1038:	dec    ebx
  4d1039:	sub    al,BYTE PTR [ebx-0x1695df61]
  4d103f:	cwde   
  4d1040:	jne    0x4d0fd7
  4d1042:	mov    esp,0xe8c52c94
  4d1047:	les    eax,FWORD PTR [ebp-0x3e]
  4d104a:	mov    esi,0xbec2622c
  4d104f:	sub    al,0xe8
  4d1051:	(bad)  
  4d1052:	call   0x2dad:0x9aec2ead
  4d1059:	xchg   BYTE PTR [ebp-0x25dd220c],bl
  4d105f:	jg     0x4d107b
  4d1061:	mov    DWORD PTR [edi+0x1],edx
  4d1064:	loop   0x4d109f
  4d1066:	aas    
  4d1067:	stos   DWORD PTR es:[edi],eax
  4d1068:	mov    ecx,0x12688f92
  4d106d:	ins    DWORD PTR es:[edi],dx
  4d106e:	fisub  DWORD PTR [ecx+ecx*2-0x12]
  4d1072:	push   ds
  4d1073:	push   0x97462d27
  4d1078:	idiv   BYTE PTR [eax-0x52]
  4d107b:	or     ebp,esi
  4d107d:	js     0x4d102d
  4d107f:	push   esp
  4d1080:	ja     0x4d10bf
  4d1082:	(bad)  
  4d1084:	mov    dh,0x39
  4d1086:	push   edi
  4d1087:	xchg   ebx,eax
  4d1088:	xchg   ecx,eax
  4d1089:	sub    DWORD PTR [edx],ecx
  4d108b:	xchg   ebx,eax
  4d108c:	nop
  4d108d:	sub    DWORD PTR [edx],ecx
  4d108f:	xchg   ebx,eax
  4d1090:	vprotq xmm9,[esi-0x18af9dd7],xmm3
  4d1099:	sbb    dl,BYTE PTR [esi+esi*1+0x50ce575c]
  4d10a0:	lock xor ebp,edi
  4d10a3:	add    BYTE PTR [ebx-0x7f9183c7],0x29
  4d10aa:	jl     0x4d111a
  4d10ac:	push   0xffffffc4
  4d10ae:	icebp  
  4d10af:	xor    BYTE PTR [ebx+0x61450e40],dl
  4d10b5:	retf   
  4d10b6:	js     0x4d1137
  4d10b8:	push   es
  4d10b9:	jno    0x4d10e3
  4d10bb:	cmp    cl,BYTE PTR [edx+0x265c3645]
  4d10c1:	and    eax,DWORD PTR ds:0xc6c3528c
  4d10c7:	frstor [eax+0xa]
  4d10ca:	xchg   esi,esi
  4d10cc:	mov    eax,ds:0xa2828372
  4d10d1:	cdq    
  4d10d2:	je     0x4d1085
  4d10d4:	popa   
  4d10d5:	call   0xd875:0xc39c53b6
  4d10dc:	loopne 0x4d1089
  4d10de:	pop    ds
  4d10df:	fadd   QWORD PTR [edi-0x7923f055]
  4d10e5:	cld    
  4d10e6:	fdivr  QWORD PTR gs:[eax-0x57]
  4d10ea:	jne    0x4d1143
  4d10ec:	xchg   DWORD PTR [eax],ebp
  4d10ee:	cdq    
  4d10ef:	push   ebx
  4d10f0:	test   DWORD PTR [eax],ebp
  4d10f2:	cdq    
  4d10f3:	fdivr  DWORD PTR [eax+0x40]
  4d10f6:	popf   
  4d10f7:	fnstenv [edi+0x40]
  4d10fa:	retf   0x878a
  4d10fd:	adc    eax,0x7d86e0ea
  4d1102:	push   0xffffffe0
  4d1104:	test   DWORD PTR [ebp+0x0],edi
  4d1107:	jecxz  0x4d10f7
  4d1109:	jge    0x4d1175
  4d110b:	loop   0x4d1092
  4d110d:	jge    0x4d1179
  4d110f:	loop   0x4d1115
  4d1111:	sub    dl,BYTE PTR [ebp+0x51ab1fb7]
  4d1117:	mov    bl,0x1d
  4d1119:	stos   DWORD PTR es:[edi],eax
  4d111a:	push   ecx
  4d111b:	jo     0x4d10a9
  4d111d:	repz scas al,BYTE PTR es:[edi]
  4d111f:	mov    al,ds:0xc10c2776
  4d1124:	sti    
  4d1125:	sbb    ecx,DWORD PTR [eax]
  4d1127:	mov    WORD PTR [ebp+0x6740a7a3],?
  4d112d:	cwde   
  4d112e:	mov    BYTE PTR ds:[esi+0x14],0x76
  4d1133:	movs   BYTE PTR es:[edi],BYTE PTR ds:[esi]
  4d1134:	cmps   BYTE PTR ds:[esi],BYTE PTR es:[edi]
  4d1135:	scas   ax,WORD PTR es:[edi]
  4d1137:	mov    edi,0xd371da45
  4d113c:	fnsave [ebp+ebp*8+0x7]
  4d1140:	sbb    al,0x57
  4d1142:	movs   BYTE PTR es:[edi],BYTE PTR ds:[esi]
  4d1143:	fwait
  4d1144:	ret    
  4d1145:	cmp    cl,BYTE PTR [ecx]
  4d1147:	mov    WORD PTR [ebx+esi*8],?
  4d114a:	mov    ds:0x399f7909,eax
  4d114f:	and    BYTE PTR [eax+0x1c],dh
  4d1152:	xor    al,BYTE PTR [edi-0x79db0538]
  4d1158:	xchg   esi,esp
  4d115a:	and    eax,0xc7ae3b0d
  4d115f:	retf   0x11b5
  4d1162:	fwait
  4d1163:	in     al,dx
  4d1164:	mov    dh,0x82
  4d1166:	movs   BYTE PTR es:[edi],BYTE PTR ds:[esi]
  4d1167:	pop    ebx
  4d1168:	mov    ch,0x82
  4d116a:	movs   BYTE PTR es:[edi],BYTE PTR ds:[esi]
  4d116b:	pop    ebx
  4d116c:	mov    ah,0x82
  4d116e:	movs   BYTE PTR es:[edi],BYTE PTR ds:[esi]
  4d116f:	pop    ebx
  4d1170:	mov    bl,0x82
  4d1172:	movs   BYTE PTR es:[edi],BYTE PTR ds:[esi]
  4d1173:	pop    ebx
  4d1174:	mov    dl,0x82
  4d1176:	movs   BYTE PTR es:[edi],BYTE PTR ds:[esi]
  4d1177:	pop    ebx
  4d1178:	mov    cl,0x82
  4d117a:	movs   BYTE PTR es:[edi],BYTE PTR ds:[esi]
  4d117b:	pop    ebx
  4d117c:	mov    al,0x82
  4d117e:	movs   BYTE PTR es:[edi],BYTE PTR ds:[esi]
  4d117f:	pop    ebx
  4d1180:	scas   eax,DWORD PTR es:[edi]
  4d1181:	and    BYTE PTR [ebx+ebx*2+0x5ba4daae],0xad
  4d1189:	and    BYTE PTR [ecx-0x5e7953a5],0x5b
  4d1190:	dec    ebp
  4d1191:	add    BYTE PTR ss:[esi-0x7944d341],bh
