
7c615bd5f8603068bee4a05ef5a5e09e3d2030dce7c04b4f601484016ca42a0d.exe:     file format pei-i386


Disassembly of section .text:

00401000 <.text>:
	...
  401008:	mov    edi,edi
  40100a:	push   ebp
  40100b:	mov    ebp,esp
  40100d:	sub    esp,0x44
  401010:	push   edx
  401011:	push   DWORD PTR [edx+0x2c4]
  401017:	push   edi
  401018:	push   eax
  401019:	push   DWORD PTR [edx+0x3d0]
  40101f:	call   0x401ae8
  401024:	add    esp,0x10
  401027:	pop    edx
  401028:	push   edx
  401029:	push   0x0
  40102b:	push   0x403044
  401030:	pop    eax
  401031:	call   DWORD PTR cs:[eax]
  401034:	pop    edx
  401035:	push   edx
  401036:	push   0x403030
  40103b:	pop    eax
  40103c:	call   DWORD PTR cs:[eax]
  40103f:	pop    edx
  401040:	sub    esp,0xffffffbc
  401043:	mov    ebp,DWORD PTR [esp]
  401046:	add    esp,0x4
  401049:	ret    
  40104a:	add    BYTE PTR [eax],al
  40104c:	jb     0x401054
  401052:	add    BYTE PTR [eax],al
  401054:	mov    edi,edi
  401056:	pusha  
  401057:	push   ebp
  401058:	mov    ebp,esp
  40105a:	sub    esp,0x28
  40105d:	push   edx
  40105e:	push   0x0
  401060:	push   0x40302c
  401065:	pop    eax
  401066:	call   DWORD PTR cs:[eax]
  401069:	pop    edx
  40106a:	test   eax,eax
  40106c:	je     0x40106f
  40106e:	ret    
  40106f:	push   edx
  401070:	push   ebx
  401071:	push   DWORD PTR [edx+0x3b4]
  401077:	call   0x401338
  40107c:	add    esp,0x8
  40107f:	pop    edx
  401080:	push   edx
  401081:	push   0x40301c
  401086:	pop    eax
  401087:	call   DWORD PTR cs:[eax]
  40108a:	pop    edx
  40108b:	mov    ebx,0x403018
  401090:	mov    ebx,DWORD PTR [ebx]
  401092:	push   ebx
  401093:	push   DWORD PTR [edx+0x218]
  401099:	pop    esi
  40109a:	call   esi
  40109c:	sub    esp,0xffffffd8
  40109f:	mov    ebp,DWORD PTR [esp]
  4010a2:	add    esp,0x4
  4010a5:	ret    
  4010a6:	add    BYTE PTR [eax],al
  4010a8:	mov    edi,edi
  4010aa:	push   ebp
  4010ab:	mov    ebp,esp
  4010ad:	sub    esp,0x48
  4010b0:	push   edx
  4010b1:	push   DWORD PTR [edx+0x1a0]
  4010b7:	push   DWORD PTR [edx+0x2d0]
  4010bd:	call   0x4017ac
  4010c2:	add    esp,0x8
  4010c5:	pop    edx
  4010c6:	push   edx
  4010c7:	mov    eax,0x0
  4010cc:	push   eax
  4010cd:	push   0x403040
  4010d2:	pop    eax
  4010d3:	call   DWORD PTR cs:[eax]
  4010d6:	pop    edx
  4010d7:	push   edx
  4010d8:	push   0x0
  4010da:	push   0x403044
  4010df:	pop    eax
  4010e0:	call   DWORD PTR cs:[eax]
  4010e3:	pop    edx
  4010e4:	sub    esp,0xffffffb8
  4010e7:	mov    ebp,DWORD PTR [esp]
  4010ea:	add    esp,0x4
  4010ed:	ret    
  4010ee:	add    BYTE PTR [eax],al
  4010f0:	mov    edi,edi
  4010f2:	push   ebp
  4010f3:	mov    ebp,esp
  4010f5:	sub    esp,0x44
  4010f8:	push   edx
  4010f9:	push   0x40301c
  4010fe:	pop    eax
  4010ff:	call   DWORD PTR cs:[eax]
  401102:	pop    edx
  401103:	push   edx
  401104:	push   ecx
  401105:	push   ebx
  401106:	push   esi
  401107:	push   DWORD PTR [edx+0x27c]
  40110d:	call   0x401be4
  401112:	add    esp,0x10
  401115:	pop    edx
  401116:	push   edx
  401117:	push   0x403030
  40111c:	pop    eax
  40111d:	call   DWORD PTR cs:[eax]
  401120:	pop    edx
  401121:	sub    esp,0xffffffbc
  401124:	mov    ebp,DWORD PTR [esp]
  401127:	add    esp,0x4
  40112a:	ret    
  40112b:	add    BYTE PTR [eax],al
  40112d:	add    BYTE PTR [eax],al
  40112f:	add    BYTE PTR [ebx-0x1374aa01],cl
  401135:	sub    esp,0x38
  401138:	push   edx
  401139:	push   eax
  40113a:	push   ebx
  40113b:	call   0x4019e0
  401140:	add    esp,0x8
  401143:	pop    edx
  401144:	push   edx
  401145:	push   0x40301c
  40114a:	pop    eax
  40114b:	call   DWORD PTR cs:[eax]
  40114e:	pop    edx
  40114f:	push   edx
  401150:	mov    ebx,0x0
  401155:	push   ebx
  401156:	push   0x403074
  40115b:	pop    eax
  40115c:	call   DWORD PTR cs:[eax]
  40115f:	pop    edx
  401160:	sub    esp,0xffffffc8
  401163:	mov    ebp,DWORD PTR [esp]
  401166:	add    esp,0x4
  401169:	ret    
  40116a:	add    BYTE PTR [eax],al
  40116c:	mov    edi,edi
  40116e:	push   ebp
  40116f:	mov    ebp,esp
  401171:	sub    esp,0x34
  401174:	push   edx
  401175:	push   DWORD PTR [edx+0x498]
  40117b:	push   DWORD PTR [edx+0x3d4]
  401181:	push   DWORD PTR [edx+0x50c]
  401187:	call   0x4010f0
  40118c:	add    esp,0xc
  40118f:	pop    edx
  401190:	push   edx
  401191:	push   0x0
  401193:	push   0x403068
  401198:	pop    eax
  401199:	call   DWORD PTR cs:[eax]
  40119c:	pop    edx
  40119d:	push   edx
  40119e:	mov    edx,0x0
  4011a3:	push   edx
  4011a4:	push   0x403008
  4011a9:	pop    eax
  4011aa:	call   DWORD PTR cs:[eax]
  4011ad:	pop    edx
  4011ae:	sub    esp,0xffffffcc
  4011b1:	mov    ebp,DWORD PTR [esp]
  4011b4:	add    esp,0x4
  4011b7:	ret    
  4011b8:	mov    edi,edi
  4011ba:	push   ebp
  4011bb:	mov    ebp,esp
  4011bd:	sub    esp,0x54
  4011c0:	push   edx
  4011c1:	push   DWORD PTR [edx+0x52c]
  4011c7:	push   esi
  4011c8:	push   DWORD PTR [edx+0x50]
  4011cb:	push   DWORD PTR [edx+0x4e0]
  4011d1:	call   0x401954
  4011d6:	add    esp,0x10
  4011d9:	pop    edx
  4011da:	push   edx
  4011db:	push   0x0
  4011dd:	push   0x403024
  4011e2:	pop    eax
  4011e3:	call   DWORD PTR cs:[eax]
  4011e6:	pop    edx
  4011e7:	push   edx
  4011e8:	push   0x0
  4011ea:	push   0x40300c
  4011ef:	pop    eax
  4011f0:	call   DWORD PTR cs:[eax]
  4011f3:	pop    edx
  4011f4:	sub    esp,0xffffffac
  4011f7:	mov    ebp,DWORD PTR [esp]
  4011fa:	add    esp,0x4
  4011fd:	ret    
	...
  401212:	add    BYTE PTR [eax],al
  401214:	mov    edi,edi
  401216:	push   ebp
  401217:	mov    ebp,esp
  401219:	sub    esp,0x40
  40121c:	push   edx
  40121d:	push   edi
  40121e:	push   ecx
  40121f:	call   0x401008
  401224:	add    esp,0x8
  401227:	pop    edx
  401228:	push   edx
  401229:	mov    ebx,0x0
  40122e:	push   ebx
  40122f:	push   0x403070
  401234:	pop    eax
  401235:	call   DWORD PTR cs:[eax]
  401238:	pop    edx
  401239:	push   edx
  40123a:	push   0x0
  40123c:	push   0x403074
  401241:	pop    eax
  401242:	call   DWORD PTR cs:[eax]
  401245:	pop    edx
  401246:	sub    esp,0xffffffc0
  401249:	mov    ebp,DWORD PTR [esp]
  40124c:	add    esp,0x4
  40124f:	ret    
	...
  401258:	mov    edi,edi
  40125a:	push   ebp
  40125b:	mov    ebp,esp
  40125d:	sub    esp,0x1c
  401260:	push   edx
  401261:	mov    ecx,0x0
  401266:	push   ecx
  401267:	push   0x403074
  40126c:	pop    eax
  40126d:	call   DWORD PTR cs:[eax]
  401270:	pop    edx
  401271:	push   edx
  401272:	push   eax
  401273:	push   esi
  401274:	push   DWORD PTR [edx+0x420]
  40127a:	push   DWORD PTR [edx+0x250]
  401280:	call   0x401b40
  401285:	add    esp,0x10
  401288:	pop    edx
  401289:	push   edx
  40128a:	mov    ebx,0x0
  40128f:	push   ebx
  401290:	push   0x40302c
  401295:	pop    eax
  401296:	call   DWORD PTR cs:[eax]
  401299:	pop    edx
  40129a:	sub    esp,0xffffffe4
  40129d:	mov    ebp,DWORD PTR [esp]
  4012a0:	add    esp,0x4
  4012a3:	ret    
  4012a4:	add    BYTE PTR [eax],al
  4012a6:	add    BYTE PTR [eax],al
  4012a8:	mov    edi,edi
  4012aa:	push   ebp
  4012ab:	mov    ebp,esp
  4012ad:	sub    esp,0x50
  4012b0:	push   edx
  4012b1:	push   DWORD PTR [edx+0x240]
  4012b7:	push   DWORD PTR [edx+0x29c]
  4012bd:	call   0x401130
  4012c2:	add    esp,0x8
  4012c5:	pop    edx
  4012c6:	push   edx
  4012c7:	mov    ebx,0x0
  4012cc:	push   ebx
  4012cd:	push   0x40303c
  4012d2:	pop    eax
  4012d3:	call   DWORD PTR cs:[eax]
  4012d6:	pop    edx
  4012d7:	push   edx
  4012d8:	mov    esi,0x0
  4012dd:	push   esi
  4012de:	push   0x403004
  4012e3:	pop    eax
  4012e4:	call   DWORD PTR cs:[eax]
  4012e7:	pop    edx
  4012e8:	sub    esp,0xffffffb0
  4012eb:	mov    ebp,DWORD PTR [esp]
  4012ee:	add    esp,0x4
  4012f1:	ret    
  4012f2:	add    BYTE PTR [eax],al
  4012f4:	add    BYTE PTR [eax],al
  4012f6:	add    BYTE PTR [eax],al
  4012f8:	mov    edi,edi
  4012fa:	push   ebp
  4012fb:	mov    ebp,esp
  4012fd:	sub    esp,0x2c
  401300:	push   edx
  401301:	push   ecx
  401302:	push   DWORD PTR [edx+0x5c4]
  401308:	push   ecx
  401309:	call   0x401524
  40130e:	add    esp,0xc
  401311:	pop    edx
  401312:	push   edx
  401313:	push   0x403030
  401318:	pop    eax
  401319:	call   DWORD PTR cs:[eax]
  40131c:	pop    edx
  40131d:	push   edx
  40131e:	mov    ecx,0x0
  401323:	push   ecx
  401324:	push   0x403070
  401329:	pop    eax
  40132a:	call   DWORD PTR cs:[eax]
  40132d:	pop    edx
  40132e:	sub    esp,0xffffffd4
  401331:	mov    ebp,DWORD PTR [esp]
  401334:	add    esp,0x4
  401337:	ret    
  401338:	mov    edi,edi
  40133a:	push   ebp
  40133b:	mov    ebp,esp
  40133d:	sub    esp,0x54
  401340:	push   edx
  401341:	mov    eax,0x0
  401346:	push   eax
  401347:	push   0x40300c
  40134c:	pop    eax
  40134d:	call   DWORD PTR cs:[eax]
  401350:	pop    edx
  401351:	push   edx
  401352:	push   ebx
  401353:	push   DWORD PTR [edx+0x1a4]
  401359:	call   0x401214
  40135e:	add    esp,0x8
  401361:	pop    edx
  401362:	push   edx
  401363:	push   0x0
  401365:	push   0x403074
  40136a:	pop    eax
  40136b:	call   DWORD PTR cs:[eax]
  40136e:	pop    edx
  40136f:	sub    esp,0xffffffac
  401372:	mov    ebp,DWORD PTR [esp]
  401375:	add    esp,0x4
  401378:	ret    
  401379:	add    BYTE PTR [eax],al
  40137b:	add    BYTE PTR [ebx-0x1374aa01],cl
  401381:	sub    esp,0x54
  401384:	push   edx
  401385:	push   ecx
  401386:	push   DWORD PTR [edx+0x198]
  40138c:	call   0x401a64
  401391:	add    esp,0x8
  401394:	pop    edx
  401395:	push   edx
  401396:	push   0x0
  401398:	push   0x403008
  40139d:	pop    eax
  40139e:	call   DWORD PTR cs:[eax]
  4013a1:	pop    edx
  4013a2:	push   edx
  4013a3:	push   0x0
  4013a5:	push   0x403040
  4013aa:	pop    eax
  4013ab:	call   DWORD PTR cs:[eax]
  4013ae:	pop    edx
  4013af:	sub    esp,0xffffffac
  4013b2:	mov    ebp,DWORD PTR [esp]
  4013b5:	add    esp,0x4
  4013b8:	ret    
  4013b9:	add    BYTE PTR [eax],al
  4013bb:	add    BYTE PTR [ebx-0x1374aa01],cl
  4013c1:	sub    esp,0x28
  4013c4:	push   edx
  4013c5:	push   esi
  4013c6:	push   ebx
  4013c7:	push   eax
  4013c8:	push   DWORD PTR [edx+0x510]
  4013ce:	call   0x4011b8
  4013d3:	add    esp,0x10
  4013d6:	pop    edx
  4013d7:	push   edx
  4013d8:	mov    ecx,0x0
  4013dd:	push   ecx
  4013de:	push   0x403044
  4013e3:	pop    eax
  4013e4:	call   DWORD PTR cs:[eax]
  4013e7:	pop    edx
  4013e8:	push   edx
  4013e9:	push   0x0
  4013eb:	push   0x40300c
  4013f0:	pop    eax
  4013f1:	call   DWORD PTR cs:[eax]
  4013f4:	pop    edx
  4013f5:	sub    esp,0xffffffd8
  4013f8:	mov    ebp,DWORD PTR [esp]
  4013fb:	add    esp,0x4
  4013fe:	ret    
  4013ff:	add    BYTE PTR [ebx-0x1374aa01],cl
  401405:	sub    esp,0x24
  401408:	push   edx
  401409:	push   edi
  40140a:	push   DWORD PTR [edx+0x53c]
  401410:	push   DWORD PTR [edx+0x410]
  401416:	call   0x401448
  40141b:	add    esp,0xc
  40141e:	pop    edx
  40141f:	push   edx
  401420:	lea    esi,[edx]
  401422:	push   esi
  401423:	push   0x403018
  401428:	pop    eax
  401429:	call   DWORD PTR cs:[eax]
  40142c:	test   eax,eax
  40142e:	jne    0x401420
  401430:	pop    edx
  401431:	push   edx
  401432:	push   0x0
  401434:	push   0x40300c
  401439:	pop    eax
  40143a:	call   DWORD PTR cs:[eax]
  40143d:	pop    edx
  40143e:	sub    esp,0xffffffdc
  401441:	mov    ebp,DWORD PTR [esp]
  401444:	add    esp,0x4
  401447:	ret    
  401448:	mov    edi,edi
  40144a:	push   ebp
  40144b:	mov    ebp,esp
  40144d:	sub    esp,0x54
  401450:	push   edx
  401451:	mov    edx,0x0
  401456:	push   edx
  401457:	push   0x403020
  40145c:	pop    eax
  40145d:	call   DWORD PTR cs:[eax]
  401460:	pop    edx
  401461:	push   edx
  401462:	push   eax
  401463:	push   ebx
  401464:	push   DWORD PTR [edx+0xe0]
  40146a:	push   ecx
  40146b:	call   0x4015b4
  401470:	add    esp,0x10
  401473:	pop    edx
  401474:	push   edx
  401475:	mov    esi,0x0
  40147a:	push   esi
  40147b:	push   0x403020
  401480:	pop    eax
  401481:	call   DWORD PTR cs:[eax]
  401484:	pop    edx
  401485:	sub    esp,0xffffffac
  401488:	mov    ebp,DWORD PTR [esp]
  40148b:	add    esp,0x4
  40148e:	ret    
  40148f:	add    BYTE PTR [ebx-0x1374aa01],cl
  401495:	sub    esp,0x50
  401498:	push   edx
  401499:	push   DWORD PTR [edx+0x1d4]
  40149f:	push   DWORD PTR [edx+0x1f0]
  4014a5:	push   ecx
  4014a6:	push   eax
  4014a7:	call   0x401e40
  4014ac:	add    esp,0x10
  4014af:	pop    edx
  4014b0:	push   edx
  4014b1:	lea    esi,[edx]
  4014b3:	push   esi
  4014b4:	push   0x403018
  4014b9:	pop    eax
  4014ba:	call   DWORD PTR cs:[eax]
  4014bd:	test   eax,eax
  4014bf:	jne    0x4014b1
  4014c1:	pop    edx
  4014c2:	push   edx
  4014c3:	mov    ebx,0x0
  4014c8:	push   ebx
  4014c9:	push   0x40302c
  4014ce:	pop    eax
  4014cf:	call   DWORD PTR cs:[eax]
  4014d2:	pop    edx
  4014d3:	sub    esp,0xffffffb0
  4014d6:	mov    ebp,DWORD PTR [esp]
  4014d9:	add    esp,0x4
  4014dc:	ret    
  4014dd:	add    BYTE PTR [eax],al
  4014df:	add    BYTE PTR [edx+0x0],ch
  4014e2:	add    DWORD PTR [esp],0x47f000
  4014e9:	xor    ecx,ecx
  4014eb:	or     ecx,0x40308c
  4014f1:	and    WORD PTR [ecx],0x0
  4014f5:	push   DWORD PTR [ecx]
  4014f7:	pop    eax
  4014f8:	mov    edx,eax
  4014fa:	push   0x3c
  4014fc:	add    DWORD PTR [esp],eax
  4014ff:	pop    ecx
  401500:	push   eax
  401501:	mov    edi,esp
  401503:	mov    esi,ecx
  401505:	movs   DWORD PTR es:[edi],DWORD PTR ds:[esi]
  401506:	pop    eax
  401507:	mov    edx,DWORD PTR [eax+edx*1+0x1c]
  40150b:	ror    edx,0x8
  40150e:	xor    eax,eax
  401510:	or     al,0x80
  401512:	cmp    al,dl
  401514:	pop    edx
  401515:	ja     0x401520
  401517:	nop
  401518:	nop
  401519:	nop
  40151a:	nop
  40151b:	jmp    0x40104c
  401520:	xor    esp,esp
  401522:	int3   
  401523:	int3   
  401524:	mov    edi,edi
  401526:	push   ebp
  401527:	mov    ebp,esp
  401529:	sub    esp,0x38
  40152c:	push   edx
  40152d:	push   0x0
  40152f:	push   0x403008
  401534:	pop    eax
  401535:	call   DWORD PTR cs:[eax]
  401538:	pop    edx
  401539:	push   edx
  40153a:	push   DWORD PTR [edx+0x598]
  401540:	push   ebx
  401541:	push   eax
  401542:	call   0x4013bc
  401547:	add    esp,0xc
  40154a:	pop    edx
  40154b:	push   edx
  40154c:	lea    ecx,[edx]
  40154e:	push   ecx
  40154f:	push   0x403018
  401554:	pop    eax
  401555:	call   DWORD PTR cs:[eax]
  401558:	test   eax,eax
  40155a:	jne    0x40154c
  40155c:	pop    edx
  40155d:	sub    esp,0xffffffc8
  401560:	mov    ebp,DWORD PTR [esp]
  401563:	add    esp,0x4
  401566:	ret    
	...
  401573:	add    BYTE PTR [ebx-0x1374aa01],cl
  401579:	sub    esp,0x24
  40157c:	push   edx
  40157d:	push   0x40301c
  401582:	pop    eax
  401583:	call   DWORD PTR cs:[eax]
  401586:	pop    edx
  401587:	push   edx
  401588:	push   ecx
  401589:	push   esi
  40158a:	push   DWORD PTR [edx+0x8c]
  401590:	call   0x4016d8
  401595:	add    esp,0xc
  401598:	pop    edx
  401599:	push   edx
  40159a:	mov    esi,0x0
  40159f:	push   esi
  4015a0:	push   0x40303c
  4015a5:	pop    eax
  4015a6:	call   DWORD PTR cs:[eax]
  4015a9:	pop    edx
  4015aa:	sub    esp,0xffffffdc
  4015ad:	mov    ebp,DWORD PTR [esp]
  4015b0:	add    esp,0x4
  4015b3:	ret    
  4015b4:	mov    edi,edi
  4015b6:	push   ebp
  4015b7:	mov    ebp,esp
  4015b9:	sub    esp,0x58
  4015bc:	push   edx
  4015bd:	mov    esi,0x0
  4015c2:	push   esi
  4015c3:	push   0x40303c
  4015c8:	pop    eax
  4015c9:	call   DWORD PTR cs:[eax]
  4015cc:	pop    edx
  4015cd:	push   edx
  4015ce:	push   eax
  4015cf:	push   esi
  4015d0:	push   ebx
  4015d1:	push   DWORD PTR [edx+0x100]
  4015d7:	call   0x401888
  4015dc:	add    esp,0x10
  4015df:	pop    edx
  4015e0:	push   edx
  4015e1:	push   0x40301c
  4015e6:	pop    eax
  4015e7:	call   DWORD PTR cs:[eax]
  4015ea:	pop    edx
  4015eb:	sub    esp,0xffffffa8
  4015ee:	mov    ebp,DWORD PTR [esp]
  4015f1:	add    esp,0x4
  4015f4:	ret    
  4015f5:	add    BYTE PTR [eax],al
  4015f7:	add    BYTE PTR [ebx-0x1374aa01],cl
  4015fd:	sub    esp,0x5c
  401600:	push   edx
  401601:	push   0x0
  401603:	push   0x403040
  401608:	pop    eax
  401609:	call   DWORD PTR cs:[eax]
  40160c:	pop    edx
  40160d:	push   edx
  40160e:	push   ebx
  40160f:	push   DWORD PTR [edx+0x5a8]
  401615:	push   DWORD PTR [edx+0x5c4]
  40161b:	call   0x4012f8
  401620:	add    esp,0xc
  401623:	pop    edx
  401624:	push   edx
  401625:	mov    eax,0x0
  40162a:	push   eax
  40162b:	push   0x403074
  401630:	pop    eax
  401631:	call   DWORD PTR cs:[eax]
  401634:	pop    edx
  401635:	sub    esp,0xffffffa4
  401638:	mov    ebp,DWORD PTR [esp]
  40163b:	add    esp,0x4
  40163e:	ret    
  40163f:	add    BYTE PTR [ebx-0x1374aa01],cl
  401645:	sub    esp,0x3c
  401648:	push   edx
  401649:	push   DWORD PTR [edx+0x2c0]
  40164f:	push   DWORD PTR [edx+0x36c]
  401655:	push   esi
  401656:	call   0x401490
  40165b:	add    esp,0xc
  40165e:	pop    edx
  40165f:	push   edx
  401660:	mov    edx,0x0
  401665:	push   edx
  401666:	push   0x40302c
  40166b:	pop    eax
  40166c:	call   DWORD PTR cs:[eax]
  40166f:	pop    edx
  401670:	push   edx
  401671:	push   0x0
  401673:	push   0x403074
  401678:	pop    eax
  401679:	call   DWORD PTR cs:[eax]
  40167c:	pop    edx
  40167d:	sub    esp,0xffffffc4
  401680:	mov    ebp,DWORD PTR [esp]
  401683:	add    esp,0x4
  401686:	ret    
  401687:	add    BYTE PTR [eax],al
  401689:	add    BYTE PTR [eax],al
  40168b:	add    BYTE PTR [ebx-0x1374aa01],cl
  401691:	sub    esp,0x60
  401694:	push   edx
  401695:	push   0x0
  401697:	push   0x403070
  40169c:	pop    eax
  40169d:	call   DWORD PTR cs:[eax]
  4016a0:	pop    edx
  4016a1:	push   edx
  4016a2:	push   DWORD PTR [edx+0x448]
  4016a8:	push   DWORD PTR [edx+0x584]
  4016ae:	push   DWORD PTR [edx+0x5f0]
  4016b4:	call   0x4017f4
  4016b9:	add    esp,0xc
  4016bc:	pop    edx
  4016bd:	push   edx
  4016be:	push   0x0
  4016c0:	push   0x403008
  4016c5:	pop    eax
  4016c6:	call   DWORD PTR cs:[eax]
  4016c9:	pop    edx
  4016ca:	sub    esp,0xffffffa0
  4016cd:	mov    ebp,DWORD PTR [esp]
  4016d0:	add    esp,0x4
  4016d3:	ret    
  4016d4:	add    BYTE PTR [eax],al
  4016d6:	add    BYTE PTR [eax],al
  4016d8:	mov    edi,edi
  4016da:	push   ebp
  4016db:	mov    ebp,esp
  4016dd:	sub    esp,0x3c
  4016e0:	push   edx
  4016e1:	push   edi
  4016e2:	push   ebx
  4016e3:	push   DWORD PTR [edx+0x59c]
  4016e9:	push   edi
  4016ea:	call   0x40191c
  4016ef:	add    esp,0x10
  4016f2:	pop    edx
  4016f3:	push   edx
  4016f4:	push   0x0
  4016f6:	push   0x403068
  4016fb:	pop    eax
  4016fc:	call   DWORD PTR cs:[eax]
  4016ff:	pop    edx
  401700:	push   edx
  401701:	push   0x403030
  401706:	pop    eax
  401707:	call   DWORD PTR cs:[eax]
  40170a:	pop    edx
  40170b:	sub    esp,0xffffffc4
  40170e:	mov    ebp,DWORD PTR [esp]
  401711:	add    esp,0x4
  401714:	ret    
  401715:	add    BYTE PTR [eax],al
  401717:	add    BYTE PTR [eax],al
  401719:	add    BYTE PTR [eax],al
  40171b:	add    BYTE PTR [ebx-0x1374aa01],cl
  401721:	sub    esp,0x3c
  401724:	push   edx
  401725:	mov    esi,0x0
  40172a:	push   esi
  40172b:	push   0x403044
  401730:	pop    eax
  401731:	call   DWORD PTR cs:[eax]
  401734:	pop    edx
  401735:	push   edx
  401736:	push   DWORD PTR [edx+0xb4]
  40173c:	push   esi
  40173d:	call   0x40116c
  401742:	add    esp,0x8
  401745:	pop    edx
  401746:	push   edx
  401747:	push   0x0
  401749:	push   0x403068
  40174e:	pop    eax
  40174f:	call   DWORD PTR cs:[eax]
  401752:	pop    edx
  401753:	sub    esp,0xffffffc4
  401756:	mov    ebp,DWORD PTR [esp]
  401759:	add    esp,0x4
  40175c:	ret    
	...
  401765:	add    BYTE PTR [eax],al
  401767:	add    BYTE PTR [ebx-0x1374aa01],cl
  40176d:	sub    esp,0x2c
  401770:	push   edx
  401771:	push   esi
  401772:	push   edi
  401773:	push   ebx
  401774:	push   DWORD PTR [edx+0x490]
  40177a:	call   0x401258
  40177f:	add    esp,0x10
  401782:	pop    edx
  401783:	push   edx
  401784:	mov    edi,0x0
  401789:	push   edi
  40178a:	push   0x403070
  40178f:	pop    eax
  401790:	call   DWORD PTR cs:[eax]
  401793:	pop    edx
  401794:	push   edx
  401795:	push   0x0
  401797:	push   0x40303c
  40179c:	pop    eax
  40179d:	call   DWORD PTR cs:[eax]
  4017a0:	pop    edx
  4017a1:	sub    esp,0xffffffd4
  4017a4:	mov    ebp,DWORD PTR [esp]
  4017a7:	add    esp,0x4
  4017aa:	ret    
  4017ab:	add    BYTE PTR [ebx-0x1374aa01],cl
  4017b1:	sub    esp,0x28
  4017b4:	push   edx
  4017b5:	mov    ecx,0x0
  4017ba:	push   ecx
  4017bb:	push   0x403044
  4017c0:	pop    eax
  4017c1:	call   DWORD PTR cs:[eax]
  4017c4:	pop    edx
  4017c5:	push   edx
  4017c6:	push   ecx
  4017c7:	push   DWORD PTR [edx+0x3b0]
  4017cd:	call   0x401c68
  4017d2:	add    esp,0x8
  4017d5:	pop    edx
  4017d6:	push   edx
  4017d7:	push   0x0
  4017d9:	push   0x40302c
  4017de:	pop    eax
  4017df:	call   DWORD PTR cs:[eax]
  4017e2:	pop    edx
  4017e3:	sub    esp,0xffffffd8
  4017e6:	mov    ebp,DWORD PTR [esp]
  4017e9:	add    esp,0x4
  4017ec:	ret    
  4017ed:	add    BYTE PTR [eax],al
  4017ef:	add    BYTE PTR [eax],al
  4017f1:	add    BYTE PTR [eax],al
  4017f3:	add    BYTE PTR [ebx-0x1374aa01],cl
  4017f9:	sub    esp,0x24
  4017fc:	push   edx
  4017fd:	push   0x0
  4017ff:	push   0x403074
  401804:	pop    eax
  401805:	call   DWORD PTR cs:[eax]
  401808:	pop    edx
  401809:	push   edx
  40180a:	push   DWORD PTR [edx+0x408]
  401810:	push   DWORD PTR [edx+0x258]
  401816:	call   0x4010a8
  40181b:	add    esp,0x8
  40181e:	pop    edx
  40181f:	push   edx
  401820:	lea    eax,[edx]
  401822:	push   eax
  401823:	push   0x403018
  401828:	pop    eax
  401829:	call   DWORD PTR cs:[eax]
  40182c:	test   eax,eax
  40182e:	jne    0x401820
  401830:	pop    edx
  401831:	sub    esp,0xffffffdc
  401834:	mov    ebp,DWORD PTR [esp]
  401837:	add    esp,0x4
  40183a:	ret    
  40183b:	add    BYTE PTR [ebx-0x1374aa01],cl
  401841:	sub    esp,0x30
  401844:	push   edx
  401845:	push   esi
  401846:	push   DWORD PTR [edx+0x78]
  401849:	push   esi
  40184a:	push   DWORD PTR [edx+0x29c]
  401850:	call   0x401d30
  401855:	add    esp,0x10
  401858:	pop    edx
  401859:	push   edx
  40185a:	push   0x40301c
  40185f:	pop    eax
  401860:	call   DWORD PTR cs:[eax]
  401863:	pop    edx
  401864:	push   edx
  401865:	mov    edx,0x0
  40186a:	push   edx
  40186b:	push   0x40302c
  401870:	pop    eax
  401871:	call   DWORD PTR cs:[eax]
  401874:	pop    edx
  401875:	sub    esp,0xffffffd0
  401878:	mov    ebp,DWORD PTR [esp]
  40187b:	add    esp,0x4
  40187e:	ret    
	...
  401887:	add    BYTE PTR [ebx-0x1374aa01],cl
  40188d:	sub    esp,0x50
  401890:	push   edx
  401891:	push   ecx
  401892:	push   DWORD PTR [edx+0x4bc]
  401898:	push   ebx
  401899:	call   0x40171c
  40189e:	add    esp,0xc
  4018a1:	pop    edx
  4018a2:	push   edx
  4018a3:	mov    esi,0x0
  4018a8:	push   esi
  4018a9:	push   0x403070
  4018ae:	pop    eax
  4018af:	call   DWORD PTR cs:[eax]
  4018b2:	pop    edx
  4018b3:	push   edx
  4018b4:	lea    ecx,[edx]
  4018b6:	push   ecx
  4018b7:	push   0x403018
  4018bc:	pop    eax
  4018bd:	call   DWORD PTR cs:[eax]
  4018c0:	test   eax,eax
  4018c2:	jne    0x4018b4
  4018c4:	pop    edx
  4018c5:	sub    esp,0xffffffb0
  4018c8:	mov    ebp,DWORD PTR [esp]
  4018cb:	add    esp,0x4
  4018ce:	ret    
  4018cf:	add    BYTE PTR [ebx-0x1374aa01],cl
  4018d5:	sub    esp,0x48
  4018d8:	push   edx
  4018d9:	mov    ebx,0x0
  4018de:	push   ebx
  4018df:	push   0x40303c
  4018e4:	pop    eax
  4018e5:	call   DWORD PTR cs:[eax]
  4018e8:	pop    edx
  4018e9:	push   edx
  4018ea:	push   DWORD PTR [edx+0x53c]
  4018f0:	push   DWORD PTR [edx+0x228]
  4018f6:	push   esi
  4018f7:	push   ecx
  4018f8:	call   0x4012a8
  4018fd:	add    esp,0x10
  401900:	pop    edx
  401901:	push   edx
  401902:	push   0x40301c
  401907:	pop    eax
  401908:	call   DWORD PTR cs:[eax]
  40190b:	pop    edx
  40190c:	sub    esp,0xffffffb8
  40190f:	mov    ebp,DWORD PTR [esp]
  401912:	add    esp,0x4
  401915:	ret    
  401916:	add    BYTE PTR [eax],al
  401918:	add    BYTE PTR [eax],al
  40191a:	add    BYTE PTR [eax],al
  40191c:	mov    edi,edi
  40191e:	push   ebp
  40191f:	mov    ebp,esp
  401921:	sub    esp,0x38
  401924:	push   edx
  401925:	push   edi
  401926:	push   eax
  401927:	push   esi
  401928:	call   0x40183c
  40192d:	add    esp,0xc
  401930:	pop    edx
  401931:	push   edx
  401932:	push   0x40301c
  401937:	pop    eax
  401938:	call   DWORD PTR cs:[eax]
  40193b:	pop    edx
  40193c:	push   edx
  40193d:	push   0x0
  40193f:	push   0x40303c
  401944:	pop    eax
  401945:	call   DWORD PTR cs:[eax]
  401948:	pop    edx
  401949:	sub    esp,0xffffffc8
  40194c:	mov    ebp,DWORD PTR [esp]
  40194f:	add    esp,0x4
  401952:	ret    
  401953:	add    BYTE PTR [ebx-0x1374aa01],cl
  401959:	sub    esp,0x1c
  40195c:	push   edx
  40195d:	push   esi
  40195e:	push   DWORD PTR [edx+0x164]
  401964:	call   0x40168c
  401969:	add    esp,0x8
  40196c:	pop    edx
  40196d:	push   edx
  40196e:	mov    ecx,0x0
  401973:	push   ecx
  401974:	push   0x403074
  401979:	pop    eax
  40197a:	call   DWORD PTR cs:[eax]
  40197d:	pop    edx
  40197e:	push   edx
  40197f:	push   0x0
  401981:	push   0x403020
  401986:	pop    eax
  401987:	call   DWORD PTR cs:[eax]
  40198a:	pop    edx
  40198b:	sub    esp,0xffffffe4
  40198e:	mov    ebp,DWORD PTR [esp]
  401991:	add    esp,0x4
  401994:	ret    
  401995:	add    BYTE PTR [eax],al
  401997:	add    BYTE PTR [ebx-0x1374aa01],cl
  40199d:	sub    esp,0x48
  4019a0:	push   edx
  4019a1:	push   ebx
  4019a2:	push   DWORD PTR [edx+0x1d0]
  4019a8:	push   ebx
  4019a9:	call   0x401c28
  4019ae:	add    esp,0xc
  4019b1:	pop    edx
  4019b2:	push   edx
  4019b3:	mov    ecx,0x0
  4019b8:	push   ecx
  4019b9:	push   0x403074
  4019be:	pop    eax
  4019bf:	call   DWORD PTR cs:[eax]
  4019c2:	pop    edx
  4019c3:	push   edx
  4019c4:	mov    eax,0x0
  4019c9:	push   eax
  4019ca:	push   0x403008
  4019cf:	pop    eax
  4019d0:	call   DWORD PTR cs:[eax]
  4019d3:	pop    edx
  4019d4:	sub    esp,0xffffffb8
  4019d7:	mov    ebp,DWORD PTR [esp]
  4019da:	add    esp,0x4
  4019dd:	ret    
  4019de:	add    BYTE PTR [eax],al
  4019e0:	mov    edi,edi
  4019e2:	push   ebp
  4019e3:	mov    ebp,esp
  4019e5:	sub    esp,0x4c
  4019e8:	push   edx
  4019e9:	push   0x0
  4019eb:	push   0x403004
  4019f0:	pop    eax
  4019f1:	call   DWORD PTR cs:[eax]
  4019f4:	pop    edx
  4019f5:	push   edx
  4019f6:	push   ecx
  4019f7:	push   DWORD PTR [edx+0xd0]
  4019fd:	push   eax
  4019fe:	call   0x401aa0
  401a03:	add    esp,0xc
  401a06:	pop    edx
  401a07:	push   edx
  401a08:	push   0x0
  401a0a:	push   0x40302c
  401a0f:	pop    eax
  401a10:	call   DWORD PTR cs:[eax]
  401a13:	pop    edx
  401a14:	sub    esp,0xffffffb4
  401a17:	mov    ebp,DWORD PTR [esp]
  401a1a:	add    esp,0x4
  401a1d:	ret    
  401a1e:	add    BYTE PTR [eax],al
  401a20:	mov    edi,edi
  401a22:	push   ebp
  401a23:	mov    ebp,esp
  401a25:	sub    esp,0x38
  401a28:	push   edx
  401a29:	push   DWORD PTR [edx+0x84]
  401a2f:	push   edi
  401a30:	push   DWORD PTR [edx+0x80]
  401a36:	push   ecx
  401a37:	call   0x401400
  401a3c:	add    esp,0x10
  401a3f:	pop    edx
  401a40:	push   edx
  401a41:	push   0x0
  401a43:	push   0x403044
  401a48:	pop    eax
  401a49:	call   DWORD PTR cs:[eax]
  401a4c:	pop    edx
  401a4d:	push   edx
  401a4e:	push   0x0
  401a50:	push   0x403004
  401a55:	pop    eax
  401a56:	call   DWORD PTR cs:[eax]
  401a59:	pop    edx
  401a5a:	sub    esp,0xffffffc8
  401a5d:	mov    ebp,DWORD PTR [esp]
  401a60:	add    esp,0x4
  401a63:	ret    
  401a64:	mov    edi,edi
  401a66:	push   ebp
  401a67:	mov    ebp,esp
  401a69:	sub    esp,0x60
  401a6c:	push   edx
  401a6d:	push   edi
  401a6e:	push   eax
  401a6f:	call   0x401b90
  401a74:	add    esp,0x8
  401a77:	pop    edx
  401a78:	push   edx
  401a79:	mov    ecx,0x0
  401a7e:	push   ecx
  401a7f:	push   0x403020
  401a84:	pop    eax
  401a85:	call   DWORD PTR cs:[eax]
  401a88:	pop    edx
  401a89:	push   edx
  401a8a:	push   0x0
  401a8c:	push   0x40302c
  401a91:	pop    eax
  401a92:	call   DWORD PTR cs:[eax]
  401a95:	pop    edx
  401a96:	sub    esp,0xffffffa0
  401a99:	mov    ebp,DWORD PTR [esp]
  401a9c:	add    esp,0x4
  401a9f:	ret    
  401aa0:	mov    edi,edi
  401aa2:	push   ebp
  401aa3:	mov    ebp,esp
  401aa5:	sub    esp,0x50
  401aa8:	push   edx
  401aa9:	push   0x40301c
  401aae:	pop    eax
  401aaf:	call   DWORD PTR cs:[eax]
  401ab2:	pop    edx
  401ab3:	push   edx
  401ab4:	push   edi
  401ab5:	push   DWORD PTR [edx+0x538]
  401abb:	push   DWORD PTR [edx+0x308]
  401ac1:	push   ebx
  401ac2:	call   0x40137c
  401ac7:	add    esp,0x10
  401aca:	pop    edx
  401acb:	push   edx
  401acc:	mov    ebx,0x0
  401ad1:	push   ebx
  401ad2:	push   0x403068
  401ad7:	pop    eax
  401ad8:	call   DWORD PTR cs:[eax]
  401adb:	pop    edx
  401adc:	sub    esp,0xffffffb0
  401adf:	mov    ebp,DWORD PTR [esp]
  401ae2:	add    esp,0x4
  401ae5:	ret    
  401ae6:	add    BYTE PTR [eax],al
  401ae8:	mov    edi,edi
  401aea:	push   ebp
  401aeb:	mov    ebp,esp
  401aed:	sub    esp,0x3c
  401af0:	push   edx
  401af1:	mov    ecx,0x0
  401af6:	push   ecx
  401af7:	push   0x40300c
  401afc:	pop    eax
  401afd:	call   DWORD PTR cs:[eax]
  401b00:	pop    edx
  401b01:	push   edx
  401b02:	push   DWORD PTR [edx+0x2c8]
  401b08:	push   DWORD PTR [edx+0x504]
  401b0e:	push   DWORD PTR [edx+0x4d0]
  401b14:	push   DWORD PTR [edx+0x124]
  401b1a:	call   0x401640
  401b1f:	add    esp,0x10
  401b22:	pop    edx
  401b23:	push   edx
  401b24:	mov    eax,0x0
  401b29:	push   eax
  401b2a:	push   0x403044
  401b2f:	pop    eax
  401b30:	call   DWORD PTR cs:[eax]
  401b33:	pop    edx
  401b34:	sub    esp,0xffffffc4
  401b37:	mov    ebp,DWORD PTR [esp]
  401b3a:	add    esp,0x4
  401b3d:	ret    
  401b3e:	add    BYTE PTR [eax],al
  401b40:	mov    edi,edi
  401b42:	push   ebp
  401b43:	mov    ebp,esp
  401b45:	sub    esp,0x50
  401b48:	push   edx
  401b49:	push   DWORD PTR [edx+0x1c0]
  401b4f:	push   DWORD PTR [edx+0x38c]
  401b55:	push   eax
  401b56:	push   DWORD PTR [edx+0x118]
  401b5c:	call   0x4015f8
  401b61:	add    esp,0x10
  401b64:	pop    edx
  401b65:	push   edx
  401b66:	push   0x0
  401b68:	push   0x403070
  401b6d:	pop    eax
  401b6e:	call   DWORD PTR cs:[eax]
  401b71:	pop    edx
  401b72:	push   edx
  401b73:	mov    esi,0x0
  401b78:	push   esi
  401b79:	push   0x403020
  401b7e:	pop    eax
  401b7f:	call   DWORD PTR cs:[eax]
  401b82:	pop    edx
  401b83:	sub    esp,0xffffffb0
  401b86:	mov    ebp,DWORD PTR [esp]
  401b89:	add    esp,0x4
  401b8c:	ret    
  401b8d:	add    BYTE PTR [eax],al
  401b8f:	add    BYTE PTR [ebx-0x1374aa01],cl
  401b95:	sub    esp,0x3c
  401b98:	push   edx
  401b99:	push   esi
  401b9a:	push   ecx
  401b9b:	call   0x401ca8
  401ba0:	add    esp,0x8
  401ba3:	pop    edx
  401ba4:	push   edx
  401ba5:	mov    eax,0x0
  401baa:	push   eax
  401bab:	push   0x403040
  401bb0:	pop    eax
  401bb1:	call   DWORD PTR cs:[eax]
  401bb4:	pop    edx
  401bb5:	push   edx
  401bb6:	mov    ebx,0x0
  401bbb:	push   ebx
  401bbc:	push   0x40300c
  401bc1:	pop    eax
  401bc2:	call   DWORD PTR cs:[eax]
  401bc5:	pop    edx
  401bc6:	sub    esp,0xffffffc4
  401bc9:	mov    ebp,DWORD PTR [esp]
  401bcc:	add    esp,0x4
  401bcf:	ret    
	...
  401be4:	mov    edi,edi
  401be6:	push   ebp
  401be7:	mov    ebp,esp
  401be9:	sub    esp,0x54
  401bec:	push   edx
  401bed:	push   DWORD PTR [edx+0x59c]
  401bf3:	push   ecx
  401bf4:	call   0x401574
  401bf9:	add    esp,0x8
  401bfc:	pop    edx
  401bfd:	push   edx
  401bfe:	push   0x0
  401c00:	push   0x403024
  401c05:	pop    eax
  401c06:	call   DWORD PTR cs:[eax]
  401c09:	pop    edx
  401c0a:	push   edx
  401c0b:	mov    edi,0x0
  401c10:	push   edi
  401c11:	push   0x403004
  401c16:	pop    eax
  401c17:	call   DWORD PTR cs:[eax]
  401c1a:	pop    edx
  401c1b:	sub    esp,0xffffffac
  401c1e:	mov    ebp,DWORD PTR [esp]
  401c21:	add    esp,0x4
  401c24:	ret    
  401c25:	add    BYTE PTR [eax],al
  401c27:	add    BYTE PTR [ebx-0x1374aa01],cl
  401c2d:	sub    esp,0x54
  401c30:	push   edx
  401c31:	push   0x0
  401c33:	push   0x403008
  401c38:	pop    eax
  401c39:	call   DWORD PTR cs:[eax]
  401c3c:	pop    edx
  401c3d:	push   edx
  401c3e:	push   ecx
  401c3f:	push   esi
  401c40:	call   0x401cec
  401c45:	add    esp,0x8
  401c48:	pop    edx
  401c49:	push   edx
  401c4a:	push   0x403030
  401c4f:	pop    eax
  401c50:	call   DWORD PTR cs:[eax]
  401c53:	pop    edx
  401c54:	sub    esp,0xffffffac
  401c57:	mov    ebp,DWORD PTR [esp]
  401c5a:	add    esp,0x4
  401c5d:	ret    
	...
  401c66:	add    BYTE PTR [eax],al
  401c68:	mov    edi,edi
  401c6a:	push   ebp
  401c6b:	mov    ebp,esp
  401c6d:	sub    esp,0x54
  401c70:	push   edx
  401c71:	push   ecx
  401c72:	push   edi
  401c73:	push   ebx
  401c74:	push   eax
  401c75:	call   0x401a20
  401c7a:	add    esp,0x10
  401c7d:	pop    edx
  401c7e:	push   edx
  401c7f:	lea    eax,[edx]
  401c81:	push   eax
  401c82:	push   0x403018
  401c87:	pop    eax
  401c88:	call   DWORD PTR cs:[eax]
  401c8b:	test   eax,eax
  401c8d:	jne    0x401c7f
  401c8f:	pop    edx
  401c90:	push   edx
  401c91:	push   0x0
  401c93:	push   0x40303c
  401c98:	pop    eax
  401c99:	call   DWORD PTR cs:[eax]
  401c9c:	pop    edx
  401c9d:	sub    esp,0xffffffac
  401ca0:	mov    ebp,DWORD PTR [esp]
  401ca3:	add    esp,0x4
  401ca6:	ret    
  401ca7:	add    BYTE PTR [ebx-0x1374aa01],cl
  401cad:	sub    esp,0x34
  401cb0:	push   edx
  401cb1:	push   0x0
  401cb3:	push   0x403008
  401cb8:	pop    eax
  401cb9:	call   DWORD PTR cs:[eax]
  401cbc:	pop    edx
  401cbd:	push   edx
  401cbe:	push   DWORD PTR [edx+0x1d8]
  401cc4:	push   ecx
  401cc5:	call   0x401998
  401cca:	add    esp,0x8
  401ccd:	pop    edx
  401cce:	push   edx
  401ccf:	push   0x0
  401cd1:	push   0x403068
  401cd6:	pop    eax
  401cd7:	call   DWORD PTR cs:[eax]
  401cda:	pop    edx
  401cdb:	sub    esp,0xffffffcc
  401cde:	mov    ebp,DWORD PTR [esp]
  401ce1:	add    esp,0x4
  401ce4:	ret    
  401ce5:	add    BYTE PTR [eax],al
  401ce7:	add    BYTE PTR [eax],al
  401ce9:	add    BYTE PTR [eax],al
  401ceb:	add    BYTE PTR [ebx-0x1374aa01],cl
  401cf1:	sub    esp,0x34
  401cf4:	push   edx
  401cf5:	push   esi
  401cf6:	push   eax
  401cf7:	push   DWORD PTR [edx+0x318]
  401cfd:	call   0x401768
  401d02:	add    esp,0xc
  401d05:	pop    edx
  401d06:	push   edx
  401d07:	push   0x0
  401d09:	push   0x403024
  401d0e:	pop    eax
  401d0f:	call   DWORD PTR cs:[eax]
  401d12:	pop    edx
  401d13:	push   edx
  401d14:	mov    esi,0x0
  401d19:	push   esi
  401d1a:	push   0x403020
  401d1f:	pop    eax
  401d20:	call   DWORD PTR cs:[eax]
  401d23:	pop    edx
  401d24:	sub    esp,0xffffffcc
  401d27:	mov    ebp,DWORD PTR [esp]
  401d2a:	add    esp,0x4
  401d2d:	ret    
  401d2e:	add    BYTE PTR [eax],al
  401d30:	mov    edi,edi
  401d32:	push   ebp
  401d33:	mov    ebp,esp
  401d35:	sub    esp,0x48
  401d38:	push   edx
  401d39:	push   DWORD PTR [edx+0x53c]
  401d3f:	push   DWORD PTR [edx+0x2ac]
  401d45:	push   ecx
  401d46:	push   eax
  401d47:	call   0x401d9c
  401d4c:	add    esp,0x10
  401d4f:	pop    edx
  401d50:	push   edx
  401d51:	mov    eax,0x0
  401d56:	push   eax
  401d57:	push   0x40302c
  401d5c:	pop    eax
  401d5d:	call   DWORD PTR cs:[eax]
  401d60:	pop    edx
  401d61:	push   edx
  401d62:	lea    ecx,[edx]
  401d64:	push   ecx
  401d65:	push   0x403018
  401d6a:	pop    eax
  401d6b:	call   DWORD PTR cs:[eax]
  401d6e:	test   eax,eax
  401d70:	jne    0x401d62
  401d72:	pop    edx
  401d73:	sub    esp,0xffffffb8
  401d76:	mov    ebp,DWORD PTR [esp]
  401d79:	add    esp,0x4
  401d7c:	ret    
	...
  401d99:	add    BYTE PTR [eax],al
  401d9b:	add    BYTE PTR [ebx-0x1374aa01],cl
  401da1:	sub    esp,0x2c
  401da4:	push   edx
  401da5:	push   0x6b0
  401daa:	mov    edi,0x6b0
  401daf:	push   edi
  401db0:	push   0x40000
  401db5:	push   0x403034
  401dba:	pop    ebx
  401dbb:	push   DWORD PTR [ebx]
  401dbd:	sub    DWORD PTR [esp],0x2
  401dc1:	push   0x403000
  401dc6:	pop    ebx
  401dc7:	pop    DWORD PTR [ebx]
  401dc9:	push   0x403000
  401dce:	pop    eax
  401dcf:	call   DWORD PTR cs:[eax]
  401dd2:	xchg   DWORD PTR [esp],eax
  401dd5:	mov    edx,eax
  401dd7:	pop    ecx
  401dd8:	mov    DWORD PTR [edx+0x218],ecx
  401dde:	mov    ebx,DWORD PTR [edx+0x218]
  401de4:	lea    eax,[ebx]
  401de6:	sub    edi,edi
  401de8:	dec    edi
  401de9:	and    edi,0x401e9d
  401def:	mov    esi,DWORD PTR [edi]
  401df1:	mov    DWORD PTR [eax],esi
  401df3:	add    edi,0x3
  401df6:	add    eax,0x3
  401df9:	mov    esi,0x6a719112
  401dfe:	xor    ebx,ebx
  401e00:	cmp    ebx,0x6b0
  401e06:	je     0x401e24
  401e08:	sub    ebx,0xfffffffc
  401e0b:	mov    ecx,esi
  401e0d:	xor    ecx,DWORD PTR [edi]
  401e0f:	sub    ecx,0x1
  401e12:	mov    DWORD PTR [eax],ecx
  401e14:	push   DWORD PTR [eax]
  401e16:	mov    esi,0xfffffffc
  401e1b:	sub    edi,esi
  401e1d:	sub    eax,esi
  401e1f:	pop    esi
  401e20:	bswap  esi
  401e22:	jmp    0x401e00
  401e24:	push   edx
  401e25:	lea    edi,[edx]
  401e27:	push   edi
  401e28:	push   0x403018
  401e2d:	pop    eax
  401e2e:	call   DWORD PTR cs:[eax]
  401e31:	test   eax,eax
  401e33:	jne    0x401e25
  401e35:	pop    edx
  401e36:	sub    esp,0xffffffd4
  401e39:	pop    ebp
  401e3a:	ret    
  401e3b:	add    BYTE PTR [eax],al
  401e3d:	add    BYTE PTR [eax],al
  401e3f:	add    BYTE PTR [ebx-0x1374aa01],cl
  401e45:	sub    esp,0x30
  401e48:	push   edx
  401e49:	push   0x403030
  401e4e:	pop    eax
  401e4f:	call   DWORD PTR cs:[eax]
  401e52:	pop    edx
  401e53:	push   edx
  401e54:	push   ebx
  401e55:	push   esi
  401e56:	push   DWORD PTR [edx+0x308]
  401e5c:	push   DWORD PTR [edx+0x584]
  401e62:	call   0x4018d0
  401e67:	add    esp,0x10
  401e6a:	pop    edx
  401e6b:	push   edx
  401e6c:	push   0x0
  401e6e:	push   0x40300c
  401e73:	pop    eax
  401e74:	call   DWORD PTR cs:[eax]
  401e77:	pop    edx
  401e78:	sub    esp,0xffffffd0
  401e7b:	mov    ebp,DWORD PTR [esp]
  401e7e:	add    esp,0x4
  401e81:	ret    
  401e82:	add    BYTE PTR [eax],al
  401e84:	mov    ebx,0x641f7e78
  401e89:	call   0x2025800f
  401e8e:	add    al,0x5e
  401e90:	mov    WORD PTR [esi+0x6fc83a29],?
  401e96:	xor    DWORD PTR [edx-0x79],ebx
  401e99:	popf   
  401e9a:	and    ecx,edi
  401e9c:	popf   
  401e9d:	bswap  eax
  401e9f:	std    
  401ea0:	out    dx,eax
  401ea1:	sahf   
  401ea2:	mov    ecx,0xc7c70097
  401ea7:	add    DWORD PTR [eax],eax
  401ea9:	mov    edi,0xc6e30001
  401eaf:	jg     0x401ef2
  401eb1:	retf   0xa27e
  401eb4:	mov    ebp,0x310580a8
  401eb9:	imul   esi,eax,0xffffffe2
  401ebc:	add    DWORD PTR ds:0x251691a3,ecx
  401ec2:	gs ins BYTE PTR es:[edi],dx
  401ec4:	pop    eax
  401ec5:	push   edi
  401ec6:	inc    eax
  401ec7:	push   ss
  401ec8:	or     DWORD PTR [edx+0x32],eax
  401ecb:	imul   ecx,DWORD PTR [ecx],0xffffffff
  401ece:	mov    edx,0xbcd552e7
  401ed3:	ins    BYTE PTR es:[edi],dx
  401ed4:	mov    esi,0x81d8533b
  401ed9:	push   esp
  401eda:	js     0x401ed3
  401edc:	pop    edx
  401edd:	call   0xf444a4d2
  401ee2:	mov    ch,0xa0
  401ee4:	jge    0x401eca
  401ee6:	adc    BYTE PTR [eax],al
  401ee8:	add    DWORD PTR [eax],edx
  401eea:	adc    al,0x1d
  401eec:	sbb    ebp,DWORD PTR [edi+0x468a0000]
  401ef2:	(bad)  
  401ef3:	adc    BYTE PTR [esi+edx*4],dl
  401ef6:	and    eax,0x60f2ae1
  401efb:	call   0x3110:0x20092406
  401f02:	sbb    edx,DWORD PTR [edi+0x76dd5ba9]
  401f08:	ins    DWORD PTR es:[edi],dx
  401f09:	mov    DWORD PTR [eax+0x13],esp
  401f0c:	xor    eax,0x2102650d
  401f11:	add    BYTE PTR [edx+eax*1],al
  401f14:	and    eax,0x5c1d9a32
  401f19:	jbe    0x401f30
  401f1b:	push   eax
  401f1c:	add    BYTE PTR [edx+0x702b6291],0xc4
  401f23:	xchg   ebx,eax
  401f24:	adc    DWORD PTR [eax],eax
  401f26:	add    al,ah
  401f28:	cmps   DWORD PTR ds:[esi],DWORD PTR es:[edi]
  401f29:	push   0xff6b6a00
  401f2e:	push   ebp
  401f2f:	push   ss
  401f30:	pushf  
  401f31:	lods   eax,DWORD PTR ds:[esi]
  401f32:	cli    
  401f33:	cdq    
  401f34:	cwde   
  401f35:	add    eax,0xb5dedbf8
  401f3a:	aam    0xf9
  401f3c:	stc    
  401f3d:	aam    0xf
  401f3f:	sub    eax,0xcffb9a7
  401f44:	push   esi
  401f45:	ret    
  401f46:	call   0xc428acd8
  401f4b:	stc    
  401f4c:	add    al,BYTE PTR [edi-0x238cdecc]
  401f52:	jl     0x401fae
  401f54:	add    eax,0x3f6f00fb
  401f59:	call   0x6ab2aa5e
  401f5e:	add    BYTE PTR [edi+0x6b],ch
  401f61:	call   FWORD PTR [edi]
  401f63:	pushf  
  401f64:	cmp    al,0x8a
  401f66:	stos   BYTE PTR es:[edi],al
  401f67:	sub    BYTE PTR [eax+ebx*1+0x3c6b3d97],ah
  401f6e:	adc    eax,0x47cca74
  401f73:	push   ecx
  401f74:	push   es
  401f75:	pop    es
  401f76:	(bad)  [ecx+0x78]
  401f79:	cmps   DWORD PTR ds:[esi],DWORD PTR es:[edi]
  401f7a:	add    BYTE PTR [ecx-0x364fb057],ch
  401f80:	loope  0x401f6a
  401f82:	sbb    dh,bl
  401f84:	int3   
  401f85:	cmp    al,0x8d
  401f87:	pop    es
  401f88:	add    ebp,ebx
  401f8a:	retf   
  401f8b:	push   es
  401f8c:	push   edi
  401f8d:	test   DWORD PTR [esi+0x73],0x22581962
  401f94:	inc    ecx
  401f95:	dec    ecx
  401f96:	mov    dl,0x4e
  401f98:	ins    DWORD PTR es:[edi],dx
  401f99:	loope  0x401fb0
  401f9b:	sbb    al,0x69
  401f9d:	xor    al,0x6a
  401f9f:	xor    al,0x0
  401fa1:	jno    0x402003
  401fa3:	push   ebx
  401fa4:	push   ebx
  401fa5:	push   es
  401fa6:	pusha  
  401fa7:	je     0x401f9e
  401fa9:	jl     0x401fb0
  401fab:	stos   DWORD PTR es:[edi],eax
  401fac:	aas    
  401fad:	push   esp
  401fae:	cmp    ebp,DWORD PTR [esi]
  401fb0:	push   ebx
  401fb1:	add    DWORD PTR [eax],ecx
  401fb3:	ds aas 
  401fb5:	push   cs
  401fb6:	add    ch,BYTE PTR [esp+eax*1+0x77e1cddc]
  401fbd:	cmp    al,0x2f
  401fbf:	or     BYTE PTR [esi-0xe],bl
  401fc2:	jmp    DWORD PTR [ebx-0x49a93d2c]
  401fc8:	je     0x401f58
  401fca:	mov    bh,0x93
  401fcc:	xchg   esp,eax
  401fcd:	lods   eax,DWORD PTR cs:[esi]
  401fcf:	xor    esi,DWORD PTR [edi-0x577bc9f]
  401fd5:	sbb    esi,esi
  401fd7:	dec    BYTE PTR [esi-0x29]
  401fda:	test   BYTE PTR [edi+0x72a00e52],bh
  401fe0:	ss dec ebx
  401fe2:	ret    0x8e1c
  401fe5:	xchg   edi,edi
  401fe7:	jnp    0x401fbc
  401fe9:	out    0xc4,eax
  401feb:	test   DWORD PTR [ecx],eax
  401fed:	(bad)  
  401fee:	pop    ebx
  401fef:	arpl   bx,ax
  401ff1:	in     al,dx
  401ff2:	arpl   WORD PTR [ebp+0x76],si
  401ff5:	call   0x14bb641e
  401ffa:	push   DWORD PTR [ebp+0x66]
  401ffd:	je     0x40206a
  401fff:	jnp    0x402009
  402001:	test   al,dl
  402003:	inc    eax
  402004:	fmul   QWORD PTR [edi+0x50253a9]
  40200a:	test   ecx,ebx
  40200c:	cmp    DWORD PTR [ebp+0x6],edx
  40200f:	push   es
  402010:	push   edi
  402011:	pop    es
  402012:	or     BYTE PTR [ebx],dh
  402014:	ins    DWORD PTR es:[edi],dx
  402015:	int3   
  402016:	add    cl,BYTE PTR [eax+ebx*2]
  402019:	or     BYTE PTR [ebx-0x8],cl
  40201c:	aas    
  40201d:	das    
  40201e:	mov    al,ds:0xc5a758ff
  402023:	jo     0x402070
  402025:	dec    ecx
  402026:	mov    edx,0x29e958bd
  40202b:	mov    DWORD PTR [ecx],0x1e88ae9
  402031:	xor    DWORD PTR [eax+0x186968],0x28760000
  40203b:	push   esi
  40203c:	ficom  DWORD PTR [ebx-0x78e6f002]
  402042:	dec    DWORD PTR [ebx-0x220c9fff]
  402048:	add    al,0xff
  40204a:	add    BYTE PTR fs:[ecx-0x75],bl
  40204e:	inc    eax
  40204f:	cmp    al,0x80
  402051:	add    BYTE PTR [edi+0x34146061],al
  402057:	(bad)
  40205b:	scas   eax,DWORD PTR es:[edi]
  40205c:	jnp    0x402045
  40205e:	and    al,0x88
  402060:	dec    ecx
  402061:	sbb    BYTE PTR [edi-0x3477a706],al
  402067:	shl    al,0xef
  40206a:	mov    bl,BYTE PTR [eax+0x6d]
  40206d:	out    dx,eax
  40206e:	out    dx,eax
  40206f:	cmp    DWORD PTR [esi-0x9],edx
  402072:	inc    esi
  402073:	imul   edi,DWORD PTR [eax+0x44],0xa1190ea1
  40207a:	fs xchg edx,ecx
  40207d:	xor    BYTE PTR [ecx+0x65767178],cl
  402083:	push   esp
  402084:	std    
  402085:	jbe    0x402084
  402087:	or     BYTE PTR [ecx],al
  402089:	pop    edi
  40208a:	jmp    0x7e1c:0x79bdd2b0
  402091:	je     0x40202f
  402093:	mov    dh,0x3a
  402095:	call   0x791a59ea
  40209a:	pop    eax
  40209b:	add    al,0x3
  40209d:	pop    eax
  40209e:	js     0x402094
  4020a0:	mov    eax,DWORD PTR gs:[esi+eiz*1]
  4020a4:	in     al,dx
  4020a5:	add    BYTE PTR [edi+0x424010f],ch
  4020ab:	cmp    BYTE PTR [edx+0x64500424],cl
  4020b1:	(bad)  
  4020b2:	out    0x14,eax
  4020b4:	in     al,dx
  4020b5:	xor    bl,al
  4020b7:	inc    ebp
  4020b8:	dec    ebx
  4020b9:	mov    BYTE PTR [ebp+0xb],al
  4020bc:	xor    DWORD PTR [esi+0x7472b98b],0xf8f70373
  4020c6:	or     bh,dl
  4020c8:	mov    al,BYTE PTR [ecx-0x70916601]
  4020ce:	test   al,0x7a
  4020d0:	test   eax,0xb6c37e53
  4020d5:	adc    DWORD PTR [ebx-0x56],0x235457a9
  4020dc:	fisub  DWORD PTR [esi]
  4020de:	adc    BYTE PTR [esi-0x9],dl
  4020e1:	fwait
  4020e2:	mov    BYTE PTR [esi],ah
  4020e4:	sub    edi,DWORD PTR [esi]
  4020e6:	dec    BYTE PTR [eax]
  4020e8:	xlat   BYTE PTR ds:[ebx]
  4020e9:	or     BYTE PTR [ebx+0x4b],0x91
  4020ed:	fisub  DWORD PTR [edi+0x543f7f]
  4020f3:	or     DWORD PTR [edi+0x7],edx
  4020f6:	or     BYTE PTR [edx+ebx*8],bh
  4020f9:	or     dl,al
  4020fb:	aas    
  4020fc:	push   ecx
  4020fd:	adc    eax,0x657cd8d
  402102:	movs   BYTE PTR es:[edi],BYTE PTR ds:[esi]
  402103:	xchg   ebx,eax
  402104:	pop    ebx
  402105:	cdq    
  402106:	or     al,dl
  402108:	mov    ch,0x9e
  40210a:	add    al,0x57
  40210c:	add    DWORD PTR [ecx+0xd70019b],ebp
  402112:	inc    esp
  402113:	add    eax,DWORD PTR [eax]
  402115:	popa   
  402116:	jb     0x402113
  402118:	(bad)  
  402119:	jg     0x402190
  40211b:	std    
  40211c:	mov    dh,BYTE PTR [ebx+ebp*2+0x0]
  402120:	test   eax,0xa9f8f1c
  402125:	hlt    
  402126:	push   esi
  402127:	or     eax,0xb10f0a02
  40212c:	or     DWORD PTR [edi-0x29aaaaff],ebp
  402132:	cmp    DWORD PTR [ebx-0x8],eax
  402135:	dec    ecx
  402136:	loop   0x4020d3
  402138:	mov    ds:0x78605cea,al
  40213d:	sar    ch,1
  40213f:	pop    esp
  402140:	adc    BYTE PTR [eax],ah
  402142:	aaa    
  402143:	ja     0x40219b
  402145:	cmp    edx,edx
  402147:	mov    esi,0x590f8494
  40214c:	add    al,0xa4
  40214e:	add    BYTE PTR [eax],al
  402150:	add    DWORD PTR [ebx-0x495ed1ee],ecx
  402156:	mov    eax,DWORD PTR [ebp-0x7e7bf08e]
  40215c:	add    BYTE PTR [edi+ecx*1-0x7452080b],0xf8
  402164:	cld    
  402165:	jo     0x402164
  402167:	js     0x4021b7
  402169:	add    BYTE PTR [edx+0x543b0351],ch
  40216f:	lods   al,BYTE PTR ds:[esi]
  402170:	imul   edx,DWORD PTR [edx+ebp*2],0xf8835850
  402177:	add    al,0x55
  402179:	add    BYTE PTR [edi+0x6a14693f],0x50
  402180:	pop    eax
  402181:	adc    DWORD PTR [esp],0x57811425
  402188:	add    BYTE PTR [esi+0x1c],dl
  40218b:	jmp    FWORD PTR [ecx-0x859f100]
  402191:	jno    0x402157
  402193:	add    al,0xdd
  402195:	add    dl,bh
  402197:	inc    esp
  402198:	ins    DWORD PTR es:[edi],dx
  402199:	cmp    ah,cl
  40219b:	mov    eax,0xe54462f2
  4021a0:	int3   
  4021a1:	lods   eax,DWORD PTR ds:[esi]
  4021a2:	push   esi
  4021a3:	mov    ah,0x7d
  4021a5:	adc    eax,0xff0ea6ff
  4021aa:	and    al,0x1c
  4021ac:	sbb    al,0xe3
  4021ae:	out    dx,al
  4021af:	pop    ecx
  4021b0:	xlat   BYTE PTR ds:[ebx]
  4021b1:	stos   BYTE PTR es:[edi],al
  4021b2:	mov    BYTE PTR [ebx],0x56
  4021b5:	jbe    0x4021cb
  4021b7:	jb     0x402187
  4021b9:	cmp    BYTE PTR [edx+0x41],dl
  4021bc:	adc    DWORD PTR [eax],eax
  4021be:	aas    
  4021bf:	mov    bl,0x6a
  4021c1:	push   ebx
  4021c2:	push   eax
  4021c3:	dec    esi
  4021c5:	cmp    BYTE PTR [eax+edi*8],al
  4021c8:	adc    DWORD PTR [eax],eax
  4021ca:	aas    
  4021cb:	mov    cl,0x84
  4021cd:	jae    0x4021cf
  4021cf:	adc    BYTE PTR [ecx],dl
  4021d1:	add    bl,bl
  4021d3:	push   ecx
  4021d4:	pop    eax
  4021d5:	add    BYTE PTR [ebp+0xc],dl
  4021d8:	push   edi
  4021d9:	or     al,0xa7
  4021db:	push   esp
  4021dc:	ficom  WORD PTR [ecx-0x491c24d4]
  4021e2:	test   eax,0x21cde36e
  4021e7:	pushf  
  4021e8:	jae    0x4021c0
  4021ea:	scas   al,BYTE PTR es:[edi]
  4021eb:	les    ecx,FWORD PTR [edi-0x15]
  4021ee:	mov    edi,0xe89b497e
  4021f3:	mov    eax,DWORD PTR [ecx]
  4021f5:	call   0xec3f68f5
  4021fa:	push   edx
  4021fb:	pop    ds
  4021fc:	push   ds
  4021fd:	mov    ecx,0xff0a17ff
  402202:	(bad)  
  402203:	jmp    FWORD PTR [eax+0x1e1f846]
  402209:	pop    es
  40220a:	push   ecx
  40220b:	adc    dh,0xe8
  40220e:	add    BYTE PTR [edx+ebx*2-0x6124348c],cl
  402215:	cmp    eax,0xe801d08b
  40221a:	into   
  40221b:	inc    esi
  40221c:	inc    edi
  40221e:	fs (bad) 
  402220:	jb     0x402263
  402222:	pop    ss
  402223:	inc    ecx
  402224:	mov    esi,0xf2bfcae8
  402229:	scas   eax,DWORD PTR es:[edi]
  40222a:	ds aaa 
  40222c:	rol    BYTE PTR [eax],0x54
  40222f:	in     al,0x2a
  402231:	add    eax,0x808923c5
  402236:	sar    DWORD PTR [eax-0x79],0x98
  40223a:	cvtdq2ps xmm1,xmm3
  40223d:	dec    esi
  40223e:	sub    al,0xf2
  402240:	dec    eax
  402241:	add    DWORD PTR [eax],ebx
  402243:	mov    al,0xbe
  402245:	stc    
  402246:	int3   
  402247:	inc    eax
  402248:	or     edi,DWORD PTR [ecx-0x8123dc]
  40224e:	(bad)  
  40224f:	(bad)  
  402250:	out    dx,eax
  402251:	dec    eax
  402252:	repz ret 
  402254:	or     DWORD PTR [ebp+0xe],ebx
  402257:	pop    es
  402258:	or     DWORD PTR [ecx-0x9149af],edi
  40225e:	(bad)  
  40225f:	jmp    DWORD PTR [ebp-0x857fe9]
  402265:	jg     0x4022c9
  402267:	sub    eax,0x3c9e9551
  40226c:	xchg   ecx,eax
  40226d:	mov    al,ds:0xc8a739f4
  402272:	rcl    DWORD PTR [ecx+0x1],0x48
  402276:	push   esp
  402277:	mov    DWORD PTR [edx+0x1004876],ecx
  40227d:	dec    eax
  40227e:	jbe    0x402211
  402280:	xchg   edx,eax
  402281:	push   esp
  402282:	dec    eax
  402283:	add    BYTE PTR [ecx],al
  402285:	dec    eax
  402286:	push   esp
  402287:	cdq    
  402288:	call   0x7048:0x1004870
  40228f:	mov    eax,ds:0x4834a2
  402294:	add    DWORD PTR [eax+0x34],ecx
  402297:	test   eax,0x4870aa
  40229c:	add    DWORD PTR [eax+0x70],ecx
  40229f:	mov    cl,0xb2
  4022a1:	xor    al,0x48
  4022a3:	add    BYTE PTR [ecx],al
  4022a5:	dec    eax
  4022a6:	xor    al,0xb9
  4022a8:	mov    WORD PTR [ebp-0x255d3cef],?
  4022ae:	mov    esp,0x91094dc7
  4022b3:	mov    al,bh
  4022b5:	adc    dh,BYTE PTR [eax+eax*1-0x74]
  4022b9:	jge    0x40230f
  4022bb:	mov    al,BYTE PTR [ebp+0x42207b21]
  4022c1:	(bad)  
  4022c2:	je     0x4022c3
  4022c4:	add    DWORD PTR [ecx+0x3b],esp
  4022c7:	mov    BYTE PTR [eax-0x6b],ah
  4022ca:	pop    ebp
  4022cb:	mov    edx,DWORD PTR [edx-0x49]
  4022ce:	and    BYTE PTR [ebx-0x7724cf40],dh
  4022d4:	add    DWORD PTR [eax],edi
  4022d6:	inc    ebp
  4022d7:	mov    ecx,DWORD PTR ds:0xa9af3b00
  4022dd:	adc    ebx,DWORD PTR [ecx+0x5c]
  4022e0:	fsub   QWORD PTR [ecx-0x34b20e4d]
  4022e6:	clc    
  4022e7:	mov    eax,DWORD PTR [ecx]
  4022e9:	dec    eax
  4022ea:	mov    cl,0xac
  4022ec:	popa   
  4022ed:	test   eax,0x8776f8c3
  4022f2:	popf   
  4022f3:	and    BYTE PTR ds:0xc6e90cbd,al
  4022f9:	sbb    BYTE PTR [eax],al
  4022fb:	add    BYTE PTR [ecx],al
  4022fd:	mov    ebp,DWORD PTR [eax-0x73]
  402300:	jle    0x40231a
  402302:	mov    eax,DWORD PTR [eax]
  402304:	or     eax,0xa9ae3b00
  402309:	adc    ecx,DWORD PTR [ebp+0x4102b500]
  40230f:	add    eax,0x4004cedc
  402314:	or     al,0x2e
  402316:	stos   DWORD PTR es:[edi],eax
  402317:	sub    bh,BYTE PTR [eax-0x6f0c5a9c]
  40231d:	inc    eax
  40231e:	sub    al,0x79
  402320:	movs   DWORD PTR es:[edi],DWORD PTR ds:[esi]
  402321:	dec    esp
  402322:	shl    DWORD PTR [ebx-0x33],0x83
  402326:	pusha  
  402327:	ret    
  402328:	imul   esp,DWORD PTR [eax+eax*1],0xd2310120
  40232f:	add    ch,BYTE PTR [ebx-0x64]
  402332:	cmp    edi,edi
  402334:	test   eax,0x8dd8e114
  402339:	fsub   st,st(3)
  40233b:	add    BYTE PTR [eax+0x74],ah
  40233e:	pop    ss
  40233f:	jo     0x40237a
  402341:	inc    edi
  402342:	retf   
  402343:	or     BYTE PTR [eax+0x11cc3c0],dh
  402349:	rol    BYTE PTR ds:0x4684b54b,0x54
  402350:	add    BYTE PTR [ecx-0x6a41b3ac],bh
  402356:	mov    dh,BYTE PTR [esi-0x626a754f]
  40235c:	call   0x4d24:0x351db91
  402363:	cmc    
  402364:	push   ecx
  402365:	xchg   ebp,eax
  402366:	popa   
  402367:	ret    
  402368:	mov    ds:0xf25449ea,al
  40236d:	cmps   DWORD PTR ds:[esi],DWORD PTR es:[edi]
  40236e:	sbb    cl,BYTE PTR [edx-0x33861654]
  402374:	and    al,0x0
  402376:	xchg   dh,al
  402378:	std    
  402379:	cmps   BYTE PTR ds:[esi],BYTE PTR es:[edi]
  40237a:	mov    ebx,DWORD PTR [eax+esi*2]
  40237d:	add    DWORD PTR ds:0x6130d425,ebp
  402383:	xchg   BYTE PTR [esp+edx*1+0x50],al
  402387:	add    cl,dh
  402389:	sub    DWORD PTR [esi],esp
  40238b:	jp     0x40234c
  40238d:	push   edx
  40238e:	cmp    al,0x46
  402390:	jmp    0x1442480
  402395:	pop    edx
  402396:	call   0x723c17b3
  40239b:	enter  0x5ef4,0xa0
  40239f:	jbe    0x40241c
  4023a1:	pop    ebx
  4023a2:	add    BYTE PTR [edi+0x58],ah
  4023a5:	or     BYTE PTR [edi+0x26],bl
  4023a8:	gs add al,bh
  4023ab:	retf   0x88bc
  4023ae:	icebp  
  4023af:	sbb    eax,0xb63e6540
  4023b4:	cdq    
  4023b5:	cwde   
  4023b6:	dec    ebx
  4023b7:	out    0xed,al
  4023b9:	popa   
  4023ba:	dec    edx
  4023bb:	cmp    esp,DWORD PTR [ebp+0x16f8a81]
  4023c1:	push   0x741bab60
  4023c6:	or     BYTE PTR cs:0x12040743,cl
  4023cd:	daa    
  4023ce:	xchg   edx,eax
  4023cf:	cmp    eax,0x16947a50
  4023d4:	jl     0x40236a
  4023d6:	jp     0x402429
  4023d8:	push   esp
  4023d9:	jp     0x40236f
  4023db:	jl     0x402417
  4023dd:	stos   BYTE PTR es:[edi],al
  4023de:	test   DWORD PTR [eax+0x2],ebp
  4023e1:	outs   dx,BYTE PTR ds:[esi]
  4023e2:	push   ds
  4023e3:	sub    ecx,DWORD PTR [edi]
  4023e5:	adc    bl,BYTE PTR [ecx]
  4023e7:	sbb    DWORD PTR [ebx],eax
  4023e9:	and    esi,DWORD PTR [esi]
  4023eb:	xchg   edi,eax
  4023ec:	test   eax,0xc9b6d758
  4023f1:	or     al,bh
  4023f3:	add    eax,0x66cb9a05
  4023f8:	bound  edx,QWORD PTR [esi]
  4023fa:	xchg   ebp,eax
  4023fb:	add    DWORD PTR [eax-0x59],ebx
  4023fe:	push   es
  4023ff:	push   ebx
  402400:	add    eax,0xbf5a5f3a
  402405:	and    DWORD PTR [edx+0x50],ebp
  402408:	add    DWORD PTR [ebx-0x45933e6],ecx
  40240e:	cdq    
  40240f:	add    BYTE PTR [ecx],al
  402411:	adc    ch,BYTE PTR [ebp-0x5b66a27a]
  402417:	inc    edi
  402418:	retf   
  402419:	bound  ebx,QWORD PTR [eax-0x2c]
  40241c:	repnz push edx
  40241e:	jbe    0x402403
  402420:	ret    
  402421:	call   0x1b4f278
  402426:	cmps   DWORD PTR ds:[esi],DWORD PTR es:[edi]
  402427:	call   FWORD PTR [eax-0x59]
  40242a:	sub    DWORD PTR [edi],eax
  40242c:	leave  
  40242d:	loop   0x4023ca
  40242f:	push   esp
  402430:	pop    eax
  402431:	adc    dh,BYTE PTR [esp+eiz*8]
  402434:	ja     0x40248b
  402436:	sar    bh,1
  402438:	pop    esi
  402439:	lea    eax,[ebp-0x12]
  40243c:	hlt    
  40243d:	test   DWORD PTR [ecx-0x2fdf332c],ecx
  402443:	ficomp WORD PTR [eax+edx*1+0x24]
  402447:	inc    esp
  402448:	add    DWORD PTR [eax],eax
  40244a:	add    BYTE PTR [eax+0x69],ch
  40244d:	add    BYTE PTR [eax],al
  40244f:	add    ah,al
  402451:	xor    si,si
  402454:	xchg   ecx,eax
  402455:	mov    DWORD PTR [ebx],ebp
  402457:	cdq    
  402458:	cmp    eax,0xe255dce0
  40245d:	adc    ah,BYTE PTR [ebp+0x640a6ee7]
  402463:	rol    BYTE PTR [ecx],1
  402465:	sti    
  402466:	out    dx,eax
  402467:	arpl   dx,dx
  402469:	adc    ebp,DWORD PTR [edi-0x1]
  40246c:	mov    DWORD PTR [ebp+0x75],esi
  40246f:	sub    BYTE PTR [ebp-0x13],cl
  402472:	dec    ebx
  402473:	and    eax,0x24523716
  402478:	jns    0x402413
  40247a:	jmp    0x4024f2
  40247c:	loop   0x402491
  40247e:	dec    ebp
  40247f:	movs   DWORD PTR es:[edi],DWORD PTR ds:[esi]
  402480:	xchg   ecx,eax
  402481:	sar    DWORD PTR [ecx+edx*4+0x554b0b6d],cl
  402488:	jno    0x402504
  40248a:	sub    esp,ebx
  40248c:	ret    
  40248d:	sub    eax,DWORD PTR [ecx]
  40248f:	mov    dh,0x21
  402491:	call   FWORD PTR [ecx-0x6bdbb010]
  402497:	mov    BYTE PTR [edi+0x0],ch
  40249a:	jge    0x402437
  40249c:	adc    DWORD PTR [eax],eax
  40249e:	aas    
  40249f:	outs   dx,BYTE PTR ds:[esi]
  4024a0:	imul   ebp,DWORD PTR [eax-0x5a63efab],0x7e
  4024a7:	in     al,dx
  4024a8:	jmp    0x8ccc152d
  4024ad:	cld    
  4024ae:	imul   eax,DWORD PTR [eax],0xdcfc6806
  4024b4:	add    edi,edi
  4024b6:	push   ebp
  4024b7:	and    DWORD PTR [ebx+0x55],ecx
  4024ba:	xchg   edi,eax
  4024bb:	rol    DWORD PTR [ecx+0x6e000068],cl
  4024c1:	push   0x0
  4024c3:	push   0x68
  4024c5:	push   0x8001036a
  4024ca:	aas    
  4024cb:	(bad)  
  4024cc:	test   eax,0xc1c40173
  4024d1:	and    BYTE PTR [edx*2-0x4a66f3c],0x2e
  4024d9:	mov    ds:0x5ec06144,eax
  4024de:	(bad)  
  4024df:	aam    0x4a
  4024e1:	jno    0x402515
  4024e3:	into   
  4024e4:	bound  esp,QWORD PTR [ebp+0x76]
  4024e7:	aam    0x1e
  4024e9:	sbb    edx,DWORD PTR [ecx-0x7c]
  4024ec:	sub    ebp,DWORD PTR [ebp+0x52]
  4024ef:	pop    edi
  4024f0:	lds    edx,FWORD PTR [edx+0x27b3bc5d]
  4024f6:	dec    esi
  4024f7:	xchg   DWORD PTR [ecx+0x6e],ecx
  4024fa:	mov    eax,0xadfbd425
  4024ff:	jns    0x4024b6
  402501:	xchg   ebx,eax
  402502:	adc    DWORD PTR [esi],esi
  402504:	sub    al,0x8f
  402506:	xchg   edx,eax
  402507:	lea    esi,[eax-0x5c713a9c]
  40250d:	cmp    ch,dh
  40250f:	aas    
  402510:	adc    al,0xa6
  402512:	movs   DWORD PTR es:[edi],DWORD PTR ds:[esi]
  402513:	cmps   BYTE PTR ds:[esi],BYTE PTR es:[edi]
  402514:	lea    esp,[edi-0x3ad51cf8]
  40251a:	add    al,0xd7
  40251c:	jnp    0x4024db
  40251e:	push   ds
  40251f:	clc    
  402520:	xchg   DWORD PTR [ebx+0x12602],edx
  402526:	add    BYTE PTR [edi+0x1],dh
  40252c:	add    DWORD PTR [eax],eax
  40252e:	add    BYTE PTR [eax],al
  402530:	add    DWORD PTR [eax],eax
  402532:	add    BYTE PTR [eax],al
  402534:	add    DWORD PTR [eax],eax
  402536:	add    BYTE PTR [eax],al
  402538:	add    DWORD PTR [eax],eax
  40253a:	add    BYTE PTR [eax],al
  40253c:	add    esp,ecx
  40253e:	push   0x0
  402540:	add    DWORD PTR [edx-0x14],ebp
  402543:	add    eax,0x42004
  402548:	add    DWORD PTR [edi+0x7b27347b],eax
  40254e:	add    DWORD PTR [eax],0xffffffce
  402551:	jl     0x402585
  402553:	sub    eax,0xb6426982
  402558:	jmp    0x6892:0x1355ea64
  40255f:	ror    DWORD PTR [ecx-0x2175bb0f],1
  402565:	jge    0x402573
  402567:	(bad)  
  402568:	popa   
  402569:	xchg   edi,eax
  40256a:	sub    eax,0x120dfc34
  40256f:	data16 cmps BYTE PTR ds:[esi],BYTE PTR es:[edi]
  402571:	outs   dx,BYTE PTR ds:[esi]
  402572:	ss
  402573:	.byte 0x1
