
7dd5395184a5a34e5ed63318ac2391b77d21ce56e331efd12b94898fb9c57221.exe:     file format pei-i386


Disassembly of section .text:

004cd000 <.text>:
  4cd000:	pop    edi
  4cd001:	xor    eax,eax
  4cd003:	call   DWORD PTR [eax*2+0x4cf714]
  4cd00a:	push   edi
  4cd00b:	ds ret 0x0
  4cd00f:	push   es
  4cd010:	mov    edi,edi
  4cd012:	push   ebp
  4cd013:	mov    ebp,esp
  4cd015:	sub    esp,0x44
  4cd018:	mov    ebx,0x4d0100
  4cd01d:	or     eax,DWORD PTR [ebp-0x2c]
  4cd020:	push   ebx
  4cd021:	push   DWORD PTR [ebx+0x38]
  4cd024:	push   DWORD PTR [ebx+0x134]
  4cd02a:	push   ecx
  4cd02b:	call   0x4ce0c8
  4cd030:	add    esp,0xc
  4cd033:	pop    ebx
  4cd034:	mov    ecx,0x0
  4cd039:	push   ecx
  4cd03a:	call   0x4cd368
  4cd03f:	mov    edi,0x0
  4cd044:	push   edi
  4cd045:	call   0x4cd368
  4cd04a:	add    esp,0x44
  4cd04d:	pop    ebp
  4cd04e:	ret    
  4cd04f:	add    BYTE PTR [ebx-0x1374aa01],cl
  4cd055:	sub    esp,0x54
  4cd058:	mov    eax,0x4d01dc
  4cd05d:	adc    DWORD PTR [eax-0x18c],esi
  4cd063:	push   eax
  4cd064:	push   DWORD PTR [eax+0xb4]
  4cd06a:	push   DWORD PTR [eax+0x1c8]
  4cd070:	push   edi
  4cd071:	push   DWORD PTR [eax+0x1bc]
  4cd077:	call   0x4cdd50
  4cd07c:	add    esp,0x10
  4cd07f:	pop    eax
  4cd080:	push   eax
  4cd081:	mov    ebx,0x0
  4cd086:	push   ebx
  4cd087:	call   0x4ce1cc
  4cd08c:	pop    eax
  4cd08d:	push   eax
  4cd08e:	call   0x4cd2ec
  4cd093:	pop    eax
  4cd094:	add    esp,0x54
  4cd097:	pop    ebp
  4cd098:	ret    
  4cd099:	add    BYTE PTR [eax],al
  4cd09b:	add    BYTE PTR [edi+0x33],bl
  4cd09e:	sar    bh,0x14
  4cd0a1:	inc    ebp
  4cd0a2:	sbb    bh,dh
  4cd0a4:	dec    esp
  4cd0a5:	add    BYTE PTR [edi+0x3e],dl
  4cd0a8:	ret    0x0
  4cd0ab:	push   es
  4cd0ac:	mov    edi,edi
  4cd0ae:	push   ebp
  4cd0af:	mov    ebp,esp
  4cd0b1:	sub    esp,0x34
  4cd0b4:	mov    eax,0x4d0160
  4cd0b9:	mov    ebx,DWORD PTR [eax+0x40]
  4cd0bc:	push   eax
  4cd0bd:	lea    ebx,[eax-0x160]
  4cd0c3:	push   ebx
  4cd0c4:	call   0x4cd410
  4cd0c9:	test   eax,eax
  4cd0cb:	jne    0x4cd0bd
  4cd0cd:	pop    eax
  4cd0ce:	push   eax
  4cd0cf:	push   ebx
  4cd0d0:	push   edi
  4cd0d1:	push   ebx
  4cd0d2:	push   DWORD PTR [eax+0x1b8]
  4cd0d8:	call   0x4cdd8c
  4cd0dd:	add    esp,0x10
  4cd0e0:	pop    eax
  4cd0e1:	push   eax
  4cd0e2:	mov    eax,0x0
  4cd0e7:	push   eax
  4cd0e8:	call   0x4cd460
  4cd0ed:	pop    eax
  4cd0ee:	add    esp,0x34
  4cd0f1:	pop    ebp
  4cd0f2:	ret    
  4cd0f3:	add    BYTE PTR [ebx-0x1374aa01],cl
  4cd0f9:	sub    esp,0x58
  4cd0fc:	lea    edx,ds:0x4d016c
  4cd102:	sub    DWORD PTR [edx-0x34],esi
  4cd105:	push   edx
  4cd106:	push   ecx
  4cd107:	push   DWORD PTR [edx+0xdc]
  4cd10d:	push   ecx
  4cd10e:	call   0x4cd1ec
  4cd113:	add    esp,0xc
  4cd116:	pop    edx
  4cd117:	push   edx
  4cd118:	mov    edx,0xfffffff4
  4cd11d:	push   edx
  4cd11e:	call   0x4cdac0
  4cd123:	pop    edx
  4cd124:	mov    edi,0x4cf734
  4cd129:	mov    edi,DWORD PTR [edi]
  4cd12b:	push   edi
  4cd12c:	push   DWORD PTR [edx-0x134]
  4cd132:	pop    edi
  4cd133:	call   edi
  4cd135:	add    esp,0x58
  4cd138:	pop    ebp
  4cd139:	ret    
  4cd13a:	add    BYTE PTR [eax],al
  4cd13c:	mov    edi,edi
  4cd13e:	push   ebp
  4cd13f:	mov    ebp,esp
  4cd141:	sub    esp,0x2c
  4cd144:	mov    esi,0x4d00ec
  4cd149:	cmp    esi,0xd3b
  4cd14f:	jbe    0x4cd13f
  4cd151:	mov    edi,0x0
  4cd156:	push   edi
  4cd157:	call   0x4cddcc
  4cd15c:	push   esi
  4cd15d:	push   edx
  4cd15e:	push   DWORD PTR [esi+0x180]
  4cd164:	push   eax
  4cd165:	push   ebx
  4cd166:	call   0x4cda50
  4cd16b:	add    esp,0x10
  4cd16e:	pop    esi
  4cd16f:	push   0x0
  4cd171:	call   0x4cddcc
  4cd176:	add    esp,0x2c
  4cd179:	pop    ebp
  4cd17a:	ret    
  4cd17b:	add    BYTE PTR [ebx-0x1374aa01],cl
  4cd181:	sub    esp,0x60
  4cd184:	lea    eax,[esi-0xf4]
  4cd18a:	sbb    esi,DWORD PTR [eax-0x7c]
  4cd18d:	push   eax
  4cd18e:	mov    eax,0x0
  4cd193:	push   eax
  4cd194:	call   0x4cd368
  4cd199:	pop    eax
  4cd19a:	push   eax
  4cd19b:	push   edx
  4cd19c:	push   edi
  4cd19d:	push   edx
  4cd19e:	call   0x4cd5b0
  4cd1a3:	add    esp,0xc
  4cd1a6:	pop    eax
  4cd1a7:	push   eax
  4cd1a8:	mov    edx,0x0
  4cd1ad:	push   edx
  4cd1ae:	call   0x4cd000
  4cd1b3:	pop    eax
  4cd1b4:	add    esp,0x60
  4cd1b7:	pop    ebp
  4cd1b8:	ret    
  4cd1b9:	add    BYTE PTR [eax],al
  4cd1bb:	add    BYTE PTR [ebx-0x1374aa01],cl
  4cd1c1:	sub    esp,0x28
  4cd1c4:	lea    edx,ds:0x4d00f0
  4cd1ca:	or     DWORD PTR [edx+0x20],edx
  4cd1cd:	push   edx
  4cd1ce:	call   0x4ce180
  4cd1d3:	pop    edx
  4cd1d4:	push   edx
  4cd1d5:	push   esi
  4cd1d6:	push   ebx
  4cd1d7:	call   0x4cd5f0
  4cd1dc:	add    esp,0x8
  4cd1df:	pop    edx
  4cd1e0:	push   edx
  4cd1e1:	call   0x4cdcc8
  4cd1e6:	pop    edx
  4cd1e7:	add    esp,0x28
  4cd1ea:	pop    ebp
  4cd1eb:	ret    
  4cd1ec:	mov    edi,edi
  4cd1ee:	push   ebp
  4cd1ef:	mov    ebp,esp
  4cd1f1:	sub    esp,0x34
  4cd1f4:	lea    edi,ds:0x4d005c
  4cd1fa:	xor    ebx,DWORD PTR [ebp-0x10]
  4cd1fd:	push   edi
  4cd1fe:	push   esi
  4cd1ff:	push   eax
  4cd200:	push   esi
  4cd201:	call   0x4cd840
  4cd206:	add    esp,0xc
  4cd209:	pop    edi
  4cd20a:	push   edi
  4cd20b:	push   0x0
  4cd20d:	call   0x4cdf14
  4cd212:	pop    edi
  4cd213:	push   edi
  4cd214:	push   0x0
  4cd216:	call   0x4cdf14
  4cd21b:	pop    edi
  4cd21c:	add    esp,0x34
  4cd21f:	pop    ebp
  4cd220:	ret    
  4cd221:	add    BYTE PTR [eax],al
  4cd223:	add    BYTE PTR [ebx-0x1374aa01],cl
  4cd229:	sub    esp,0x54
  4cd22c:	lea    eax,[edx+0x14]
  4cd22f:	adc    DWORD PTR [ebp-0x1c],0x772c
  4cd236:	push   eax
  4cd237:	push   0x0
  4cd239:	call   0x4cd964
  4cd23e:	pop    eax
  4cd23f:	push   eax
  4cd240:	push   ebx
  4cd241:	push   esi
  4cd242:	call   0x4ce054
  4cd247:	add    esp,0x8
  4cd24a:	pop    eax
  4cd24b:	push   eax
  4cd24c:	call   0x4ce180
  4cd251:	pop    eax
  4cd252:	add    esp,0x54
  4cd255:	pop    ebp
  4cd256:	ret    
  4cd257:	add    BYTE PTR [ebx-0x1374aa01],cl
  4cd25d:	sub    esp,0x60
  4cd260:	lea    ecx,[ebx-0x144]
  4cd266:	sub    DWORD PTR [ecx+0xc0],0xffffffb0
  4cd26d:	push   ecx
  4cd26e:	push   0x0
  4cd270:	call   0x4cd460
  4cd275:	pop    ecx
  4cd276:	push   ecx
  4cd277:	push   ebx
  4cd278:	push   esi
  4cd279:	push   DWORD PTR [ecx+0x1fc]
  4cd27f:	push   ebx
  4cd280:	call   0x4cdbfc
  4cd285:	add    esp,0x10
  4cd288:	pop    ecx
  4cd289:	push   ecx
  4cd28a:	mov    esi,0xfffffff4
  4cd28f:	push   esi
  4cd290:	call   0x4cdac0
  4cd295:	pop    ecx
  4cd296:	add    esp,0x60
  4cd299:	pop    ebp
  4cd29a:	ret    
  4cd29b:	add    BYTE PTR [ebx-0x1374aa01],cl
  4cd2a1:	sub    esp,0x50
  4cd2a4:	lea    ebx,ds:0x4d0180
  4cd2aa:	sub    eax,DWORD PTR [ebx+0x78]
  4cd2ad:	push   ebx
  4cd2ae:	push   DWORD PTR [ebx+0xf0]
  4cd2b4:	push   DWORD PTR [ebx+0x8c]
  4cd2ba:	push   DWORD PTR [ebx+0x1d4]
  4cd2c0:	push   DWORD PTR [ebx+0x1b0]
  4cd2c6:	call   0x4cdec4
  4cd2cb:	add    esp,0x10
  4cd2ce:	pop    ebx
  4cd2cf:	lea    edx,[ebx-0x180]
  4cd2d5:	push   edx
  4cd2d6:	call   0x4cd410
  4cd2db:	test   eax,eax
  4cd2dd:	jne    0x4cd2d0
  4cd2df:	push   0x0
  4cd2e1:	call   0x4cd368
  4cd2e6:	add    esp,0x50
  4cd2e9:	pop    ebp
  4cd2ea:	ret    
  4cd2eb:	add    BYTE PTR [edi+0x33],bl
  4cd2ee:	sar    bh,0x14
  4cd2f1:	inc    ebp
  4cd2f2:	lock test BYTE PTR [eax+eax*1+0x57],0x3e
  4cd2f8:	ret    0x0
  4cd2fb:	push   es
  4cd2fc:	pop    edi
  4cd2fd:	xor    eax,eax
  4cd2ff:	call   DWORD PTR [eax*2+0x4cf72c]
  4cd306:	push   edi
  4cd307:	ds ret 0x0
  4cd30b:	push   es
  4cd30c:	mov    edi,edi
  4cd30e:	push   ebp
  4cd30f:	mov    ebp,esp
  4cd311:	sub    esp,0x60
  4cd314:	lea    esi,[edx-0x130]
  4cd31a:	cmp    esi,0x3bc4
  4cd320:	jbe    0x4cd30f
  4cd322:	push   0xfffffff4
  4cd324:	call   0x4cdac0
  4cd329:	push   esi
  4cd32a:	push   DWORD PTR [esi+0xfc]
  4cd330:	push   DWORD PTR [esi+0x78]
  4cd333:	push   ebx
  4cd334:	push   ebx
  4cd335:	call   0x4cdcd8
  4cd33a:	add    esp,0x10
  4cd33d:	pop    esi
  4cd33e:	call   0x4cd2ec
  4cd343:	add    esp,0x60
  4cd346:	pop    ebp
  4cd347:	ret    
  4cd348:	pop    edi
  4cd349:	xor    eax,eax
  4cd34b:	call   DWORD PTR [eax*2+0x4cf764]
  4cd352:	push   edi
  4cd353:	ds ret 0x0
  4cd357:	push   es
  4cd358:	pop    edi
  4cd359:	xor    eax,eax
  4cd35b:	call   DWORD PTR [eax*2+0x4cf780]
  4cd362:	push   edi
  4cd363:	ds ret 0x0
  4cd367:	push   es
  4cd368:	pop    edi
  4cd369:	xor    eax,eax
  4cd36b:	call   DWORD PTR [eax*2+0x4cf708]
  4cd372:	push   edi
  4cd373:	ds ret 0x0
  4cd377:	push   es
  4cd378:	mov    edi,edi
  4cd37a:	push   ebp
  4cd37b:	mov    ebp,esp
  4cd37d:	sub    esp,0x34
  4cd380:	mov    edx,0x4d01a8
  4cd385:	add    DWORD PTR [edx+0x20],0x76
  4cd389:	push   edx
  4cd38a:	mov    edx,0x0
  4cd38f:	push   edx
  4cd390:	call   0x4cd964
  4cd395:	pop    edx
  4cd396:	push   edx
  4cd397:	push   DWORD PTR [edx+0x168]
  4cd39d:	push   DWORD PTR [edx+0x180]
  4cd3a3:	call   0x4cd480
  4cd3a8:	add    esp,0x8
  4cd3ab:	pop    edx
  4cd3ac:	push   edx
  4cd3ad:	call   0x4ce180
  4cd3b2:	pop    edx
  4cd3b3:	add    esp,0x34
  4cd3b6:	pop    ebp
  4cd3b7:	ret    
  4cd3b8:	pop    edi
  4cd3b9:	xor    eax,eax
  4cd3bb:	call   DWORD PTR [eax*2+0x4cf774]
  4cd3c2:	push   edi
  4cd3c3:	ds ret 0x0
  4cd3c7:	push   es
  4cd3c8:	mov    edi,edi
  4cd3ca:	push   ebp
  4cd3cb:	mov    ebp,esp
  4cd3cd:	sub    esp,0x28
  4cd3d0:	lea    edx,ds:0x4d012c
  4cd3d6:	sbb    ebx,0xffffb9f2
  4cd3dc:	push   edx
  4cd3dd:	push   DWORD PTR [edx+0x13c]
  4cd3e3:	push   DWORD PTR [edx+0x54]
  4cd3e6:	call   0x4cd62c
  4cd3eb:	add    esp,0x8
  4cd3ee:	pop    edx
  4cd3ef:	push   edx
  4cd3f0:	mov    eax,0x0
  4cd3f5:	push   eax
  4cd3f6:	call   0x4cd000
  4cd3fb:	pop    edx
  4cd3fc:	push   edx
  4cd3fd:	mov    eax,0xfffffff4
  4cd402:	push   eax
  4cd403:	call   0x4cdac0
  4cd408:	pop    edx
  4cd409:	add    esp,0x28
  4cd40c:	pop    ebp
  4cd40d:	ret    
  4cd40e:	add    BYTE PTR [eax],al
  4cd410:	pop    edi
  4cd411:	xor    eax,eax
  4cd413:	call   DWORD PTR [eax*2+0x4cf734]
  4cd41a:	push   edi
  4cd41b:	ds ret 0x0
  4cd41f:	push   es
  4cd420:	pop    edi
  4cd421:	xor    eax,eax
  4cd423:	call   DWORD PTR [eax*2+0x4cf76c]
  4cd42a:	push   edi
  4cd42b:	ds ret 0x0
  4cd42f:	push   es
  4cd430:	pop    edi
  4cd431:	xor    eax,eax
  4cd433:	call   DWORD PTR [eax*2+0x4cf6f8]
  4cd43a:	push   edi
  4cd43b:	ds ret 0x0
  4cd43f:	push   es
  4cd440:	pop    edi
  4cd441:	xor    eax,eax
  4cd443:	call   DWORD PTR [eax*2+0x4cf740]
  4cd44a:	push   edi
  4cd44b:	ds ret 0x0
  4cd44f:	push   es
  4cd450:	pop    edi
  4cd451:	xor    eax,eax
  4cd453:	call   DWORD PTR [eax*2+0x4cf6e8]
  4cd45a:	push   edi
  4cd45b:	ds ret 0x0
  4cd45f:	push   es
  4cd460:	pop    edi
  4cd461:	xor    eax,eax
  4cd463:	call   DWORD PTR [eax*2+0x4cf70c]
  4cd46a:	push   edi
  4cd46b:	ds ret 0x0
  4cd46f:	push   es
  4cd470:	pop    edi
  4cd471:	xor    eax,eax
  4cd473:	call   DWORD PTR [eax*2+0x4cf724]
  4cd47a:	push   edi
  4cd47b:	ds ret 0x0
  4cd47f:	push   es
  4cd480:	mov    edi,edi
  4cd482:	push   ebp
  4cd483:	mov    ebp,esp
  4cd485:	sub    esp,0x50
  4cd488:	lea    esi,ds:0x4d011c
  4cd48e:	adc    DWORD PTR [esi-0x74],ebx
  4cd491:	push   esi
  4cd492:	push   DWORD PTR [esi+0x148]
  4cd498:	push   edx
  4cd499:	push   DWORD PTR [esi+0x160]
  4cd49f:	call   0x4cd784
  4cd4a4:	add    esp,0xc
  4cd4a7:	pop    esi
  4cd4a8:	push   0x0
  4cd4aa:	call   0x4cd964
  4cd4af:	mov    edx,0x0
  4cd4b4:	push   edx
  4cd4b5:	call   0x4cd368
  4cd4ba:	add    esp,0x50
  4cd4bd:	pop    ebp
  4cd4be:	ret    
  4cd4bf:	add    BYTE PTR [edi+0x33],dl
  4cd4c2:	call   DWORD PTR [edi+0x57]
  4cd4c5:	push   edi
  4cd4c6:	push   edi
  4cd4c7:	call   0x4cdac0
  4cd4cc:	sub    esp,0x4
  4cd4cf:	call   0x4cd09c
  4cd4d4:	push   0x2
  4cd4d6:	xor    eax,eax
  4cd4d8:	xor    eax,0x4d00a0
  4cd4dd:	push   0x0
  4cd4df:	inc    DWORD PTR ds:0x4d00a6
  4cd4e5:	push   eax
  4cd4e6:	call   0x4cd430
  4cd4eb:	pop    edi
  4cd4ec:	lea    edi,[eax+0x3b]
  4cd4ef:	mov    edi,DWORD PTR [edi]
  4cd4f1:	lea    eax,[eax+edi*1]
  4cd4f4:	add    eax,0x28
  4cd4f7:	mov    eax,DWORD PTR [eax]
  4cd4f9:	pusha  
  4cd4fa:	mov    ah,0x30
  4cd4fc:	sub    al,ah
  4cd4fe:	jb     0x4cd506
  4cd500:	jg     0x4cd0f4
  4cd506:	popa   
  4cd507:	ret    
  4cd508:	mov    edi,edi
  4cd50a:	push   ebp
  4cd50b:	mov    ebp,esp
  4cd50d:	sub    esp,0x3c
  4cd510:	mov    ebx,0x4d00c4
  4cd515:	sub    DWORD PTR [ebx-0x78],ebx
  4cd518:	push   ebx
  4cd519:	push   DWORD PTR [ebx+0x184]
  4cd51f:	push   eax
  4cd520:	call   0x4cda14
  4cd525:	add    esp,0x8
  4cd528:	pop    ebx
  4cd529:	mov    eax,0x0
  4cd52e:	push   eax
  4cd52f:	call   0x4cd000
  4cd534:	push   0xfffffff4
  4cd536:	call   0x4cdac0
  4cd53b:	add    esp,0x3c
  4cd53e:	pop    ebp
  4cd53f:	ret    
  4cd540:	pop    edi
  4cd541:	xor    eax,eax
  4cd543:	call   DWORD PTR [eax*2+0x4cf6fc]
  4cd54a:	push   edi
  4cd54b:	ds ret 0x0
  4cd54f:	push   es
  4cd550:	mov    edi,edi
  4cd552:	push   ebp
  4cd553:	mov    ebp,esp
  4cd555:	sub    esp,0x58
  4cd558:	lea    eax,ds:0x4d01b8
  4cd55e:	adc    ecx,DWORD PTR [ebp-0x20]
  4cd561:	push   eax
  4cd562:	call   0x4cdb2c
  4cd567:	pop    eax
  4cd568:	push   eax
  4cd569:	push   DWORD PTR [eax+0x14]
  4cd56c:	push   edi
  4cd56d:	push   ecx
  4cd56e:	call   0x4ce140
  4cd573:	add    esp,0xc
  4cd576:	pop    eax
  4cd577:	push   eax
  4cd578:	lea    edx,[eax-0x1b8]
  4cd57e:	push   edx
  4cd57f:	call   0x4cd410
  4cd584:	test   eax,eax
  4cd586:	jne    0x4cd578
  4cd588:	pop    eax
  4cd589:	add    esp,0x58
  4cd58c:	pop    ebp
  4cd58d:	ret    
  4cd58e:	add    BYTE PTR [eax],al
  4cd590:	pop    edi
  4cd591:	xor    eax,eax
  4cd593:	call   DWORD PTR [eax*2+0x4cf768]
  4cd59a:	push   edi
  4cd59b:	ds ret 0x0
  4cd59f:	push   es
  4cd5a0:	pop    edi
  4cd5a1:	xor    eax,eax
  4cd5a3:	call   DWORD PTR [eax*2+0x4cf770]
  4cd5aa:	push   edi
  4cd5ab:	ds ret 0x0
  4cd5af:	push   es
  4cd5b0:	mov    edi,edi
  4cd5b2:	push   ebp
  4cd5b3:	mov    ebp,esp
  4cd5b5:	sub    esp,0x2c
  4cd5b8:	lea    edx,ds:0x4d0144
  4cd5be:	sub    edi,0x21ec
  4cd5c4:	push   edx
  4cd5c5:	push   DWORD PTR [edx+0x110]
  4cd5cb:	push   DWORD PTR [edx+0x4]
  4cd5ce:	push   ecx
  4cd5cf:	push   ebx
  4cd5d0:	call   0x4cd30c
  4cd5d5:	add    esp,0x10
  4cd5d8:	pop    edx
  4cd5d9:	push   edx
  4cd5da:	push   0x0
  4cd5dc:	call   0x4cd470
  4cd5e1:	pop    edx
  4cd5e2:	push   edx
  4cd5e3:	call   0x4ce180
  4cd5e8:	pop    edx
  4cd5e9:	add    esp,0x2c
  4cd5ec:	pop    ebp
  4cd5ed:	ret    
  4cd5ee:	add    BYTE PTR [eax],al
  4cd5f0:	mov    edi,edi
  4cd5f2:	push   ebp
  4cd5f3:	mov    ebp,esp
  4cd5f5:	sub    esp,0x3c
  4cd5f8:	mov    ecx,0x4d0030
  4cd5fd:	and    edi,DWORD PTR [ebp-0x14]
  4cd600:	push   ecx
  4cd601:	push   eax
  4cd602:	push   DWORD PTR [ecx+0x198]
  4cd608:	call   0x4cd010
  4cd60d:	add    esp,0x8
  4cd610:	pop    ecx
  4cd611:	push   ecx
  4cd612:	push   0x0
  4cd614:	call   0x4ce1cc
  4cd619:	pop    ecx
  4cd61a:	push   ecx
  4cd61b:	mov    ebx,0x0
  4cd620:	push   ebx
  4cd621:	call   0x4cdf04
  4cd626:	pop    ecx
  4cd627:	add    esp,0x3c
  4cd62a:	pop    ebp
  4cd62b:	ret    
  4cd62c:	mov    edi,edi
  4cd62e:	push   ebp
  4cd62f:	mov    ebp,esp
  4cd631:	sub    esp,0x48
  4cd634:	mov    esi,0x4d00d4
  4cd639:	and    eax,DWORD PTR [esi-0x24]
  4cd63c:	push   esi
  4cd63d:	push   DWORD PTR [esi+0x128]
  4cd643:	push   ecx
  4cd644:	call   0x4cd66c
  4cd649:	add    esp,0x8
  4cd64c:	pop    esi
  4cd64d:	push   0x0
  4cd64f:	call   0x4cdf14
  4cd654:	lea    edi,[esi-0xd4]
  4cd65a:	push   edi
  4cd65b:	call   0x4cd410
  4cd660:	test   eax,eax
  4cd662:	jne    0x4cd655
  4cd664:	add    esp,0x48
  4cd667:	pop    ebp
  4cd668:	ret    
  4cd669:	add    BYTE PTR [eax],al
  4cd66b:	add    BYTE PTR [ebx-0x1374aa01],cl
  4cd671:	sub    esp,0x24
  4cd674:	lea    edx,ds:0x4d002c
  4cd67a:	xor    esi,DWORD PTR [ebp-0x18]
  4cd67d:	push   edx
  4cd67e:	push   0x0
  4cd680:	call   0x4cd368
  4cd685:	pop    edx
  4cd686:	push   edx
  4cd687:	push   DWORD PTR [edx+0x4]
  4cd68a:	push   eax
  4cd68b:	push   DWORD PTR [edx+0x17c]
  4cd691:	push   DWORD PTR [edx+0x5c]
  4cd694:	call   0x4cdfa0
  4cd699:	add    esp,0x10
  4cd69c:	pop    edx
  4cd69d:	push   edx
  4cd69e:	mov    edx,0x0
  4cd6a3:	push   edx
  4cd6a4:	call   0x4cdf04
  4cd6a9:	pop    edx
  4cd6aa:	add    esp,0x24
  4cd6ad:	pop    ebp
  4cd6ae:	ret    
  4cd6af:	add    BYTE PTR [ebx-0x1374aa01],cl
  4cd6b5:	sub    esp,0x54
  4cd6b8:	lea    ebx,[esi+0x4]
  4cd6bb:	sub    DWORD PTR [ebp-0x10],0x3ab9
  4cd6c2:	call   0x4cdb2c
  4cd6c7:	push   ebx
  4cd6c8:	push   DWORD PTR [ebx+0x1d4]
  4cd6ce:	push   edi
  4cd6cf:	call   0x4cde28
  4cd6d4:	add    esp,0x8
  4cd6d7:	pop    ebx
  4cd6d8:	push   0xfffffff4
  4cd6da:	call   0x4cdac0
  4cd6df:	add    esp,0x54
  4cd6e2:	pop    ebp
  4cd6e3:	ret    
  4cd6e4:	pop    edi
  4cd6e5:	xor    eax,eax
  4cd6e7:	call   DWORD PTR [eax*2+0x4cf788]
  4cd6ee:	push   edi
  4cd6ef:	ds ret 0x0
  4cd6f3:	push   es
  4cd6f4:	mov    edi,edi
  4cd6f6:	push   ebp
  4cd6f7:	mov    ebp,esp
  4cd6f9:	sub    esp,0x20
  4cd6fc:	lea    eax,[edi+0x170]
  4cd702:	and    DWORD PTR [eax-0xf8],0xffffffc4
  4cd709:	push   eax
  4cd70a:	push   0x0
  4cd70c:	call   0x4cddcc
  4cd711:	pop    eax
  4cd712:	push   eax
  4cd713:	push   ebx
  4cd714:	push   edi
  4cd715:	push   ebx
  4cd716:	push   DWORD PTR [eax+0xcc]
  4cd71c:	call   0x4cddec
  4cd721:	add    esp,0x10
  4cd724:	pop    eax
  4cd725:	push   eax
  4cd726:	mov    ebx,0x0
  4cd72b:	push   ebx
  4cd72c:	call   0x4cd000
  4cd731:	pop    eax
  4cd732:	add    esp,0x20
  4cd735:	pop    ebp
  4cd736:	ret    
  4cd737:	add    BYTE PTR [ebx-0x1374aa01],cl
  4cd73d:	sub    esp,0x20
  4cd740:	mov    edi,0x4d01d8
  4cd745:	add    DWORD PTR [edi-0x44],edx
  4cd748:	push   edi
  4cd749:	push   DWORD PTR [edi+0x120]
  4cd74f:	push   DWORD PTR [edi+0x1f0]
  4cd755:	push   DWORD PTR [edi+0x11c]
  4cd75b:	call   0x4ce1ec
  4cd760:	add    esp,0xc
  4cd763:	pop    edi
  4cd764:	push   edi
  4cd765:	mov    ebx,0x0
  4cd76a:	push   ebx
  4cd76b:	call   0x4ce1cc
  4cd770:	pop    edi
  4cd771:	push   edi
  4cd772:	mov    eax,0x0
  4cd777:	push   eax
  4cd778:	call   0x4cd964
  4cd77d:	pop    edi
  4cd77e:	add    esp,0x20
  4cd781:	pop    ebp
  4cd782:	ret    
  4cd783:	add    BYTE PTR [ebx-0x1374aa01],cl
  4cd789:	sub    esp,0x48
  4cd78c:	lea    edi,ds:0x4d015c
  4cd792:	xor    DWORD PTR [ebp-0x20],0xc
  4cd796:	push   edi
  4cd797:	mov    edx,0x0
  4cd79c:	push   edx
  4cd79d:	call   0x4cd368
  4cd7a2:	pop    edi
  4cd7a3:	push   edi
  4cd7a4:	push   esi
  4cd7a5:	push   DWORD PTR [edi+0x1b0]
  4cd7ab:	push   DWORD PTR [edi+0x18c]
  4cd7b1:	call   0x4cdc7c
  4cd7b6:	add    esp,0xc
  4cd7b9:	pop    edi
  4cd7ba:	push   edi
  4cd7bb:	mov    eax,0x0
  4cd7c0:	push   eax
  4cd7c1:	call   0x4cdf04
  4cd7c6:	pop    edi
  4cd7c7:	add    esp,0x48
  4cd7ca:	pop    ebp
  4cd7cb:	ret    
  4cd7cc:	mov    edi,edi
  4cd7ce:	push   ebp
  4cd7cf:	mov    ebp,esp
  4cd7d1:	sub    esp,0x28
  4cd7d4:	lea    ebx,[esi-0x98]
  4cd7da:	sbb    DWORD PTR [ebx-0x68],0x1f
  4cd7de:	push   ebx
  4cd7df:	push   DWORD PTR [ebx+0xc4]
  4cd7e5:	push   DWORD PTR [ebx+0x84]
  4cd7eb:	push   DWORD PTR [ebx+0x94]
  4cd7f1:	call   0x4cd3c8
  4cd7f6:	add    esp,0xc
  4cd7f9:	pop    ebx
  4cd7fa:	mov    eax,0x0
  4cd7ff:	push   eax
  4cd800:	call   0x4cd000
  4cd805:	call   0x4cdb2c
  4cd80a:	add    esp,0x28
  4cd80d:	pop    ebp
  4cd80e:	ret    
  4cd80f:	add    BYTE PTR [edi+0x33],bl
  4cd812:	sar    bh,0x14
  4cd815:	inc    ebp
  4cd816:	sub    bh,dh
  4cd818:	dec    esp
  4cd819:	add    BYTE PTR [edi+0x3e],dl
  4cd81c:	ret    0x0
  4cd81f:	push   es
  4cd820:	pop    edi
  4cd821:	xor    eax,eax
  4cd823:	call   DWORD PTR [eax*2+0x4cf75c]
  4cd82a:	push   edi
  4cd82b:	ds ret 0x0
  4cd82f:	push   es
  4cd830:	pop    edi
  4cd831:	xor    eax,eax
  4cd833:	call   DWORD PTR [eax*2+0x4cf744]
  4cd83a:	push   edi
  4cd83b:	ds ret 0x0
  4cd83f:	push   es
  4cd840:	mov    edi,edi
  4cd842:	push   ebp
  4cd843:	mov    ebp,esp
  4cd845:	sub    esp,0x5c
  4cd848:	lea    esi,ds:0x4d0184
  4cd84e:	or     DWORD PTR [esi-0xf4],0xffffffa2
  4cd855:	push   esi
  4cd856:	push   DWORD PTR [esi+0xc0]
  4cd85c:	push   DWORD PTR [esi+0x7c]
  4cd85f:	push   DWORD PTR [esi+0x110]
  4cd865:	push   ecx
  4cd866:	call   0x4cd17c
  4cd86b:	add    esp,0x10
  4cd86e:	pop    esi
  4cd86f:	call   0x4cd2ec
  4cd874:	push   0x0
  4cd876:	call   0x4cd460
  4cd87b:	add    esp,0x5c
  4cd87e:	pop    ebp
  4cd87f:	ret    
  4cd880:	mov    edi,edi
  4cd882:	push   ebp
  4cd883:	mov    ebp,esp
  4cd885:	sub    esp,0x40
  4cd888:	mov    edx,0x4d0054
  4cd88d:	sbb    esi,DWORD PTR [ebp-0x28]
  4cd890:	push   edx
  4cd891:	push   0xfffffff4
  4cd893:	call   0x4cdac0
  4cd898:	pop    edx
  4cd899:	push   edx
  4cd89a:	push   DWORD PTR [edx+0x174]
  4cd8a0:	push   DWORD PTR [edx+0x148]
  4cd8a6:	push   edi
  4cd8a7:	push   ecx
  4cd8a8:	call   0x4cdf68
  4cd8ad:	add    esp,0x10
  4cd8b0:	pop    edx
  4cd8b1:	push   edx
  4cd8b2:	push   0x0
  4cd8b4:	call   0x4cd964
  4cd8b9:	pop    edx
  4cd8ba:	add    esp,0x40
  4cd8bd:	pop    ebp
  4cd8be:	ret    
  4cd8bf:	add    BYTE PTR [ebx-0x1374aa01],cl
  4cd8c5:	sub    esp,0x4c
  4cd8c8:	mov    edi,0x4d01a8
  4cd8cd:	xor    edx,0xffffeb6c
  4cd8d3:	push   edi
  4cd8d4:	mov    edi,0x0
  4cd8d9:	push   edi
  4cd8da:	call   0x4cd470
  4cd8df:	pop    edi
  4cd8e0:	push   edi
  4cd8e1:	push   DWORD PTR [edi+0x19c]
  4cd8e7:	push   edx
  4cd8e8:	push   ebx
  4cd8e9:	call   0x4cdb3c
  4cd8ee:	add    esp,0xc
  4cd8f1:	pop    edi
  4cd8f2:	push   edi
  4cd8f3:	push   0x0
  4cd8f5:	call   0x4cd964
  4cd8fa:	pop    edi
  4cd8fb:	add    esp,0x4c
  4cd8fe:	pop    ebp
  4cd8ff:	ret    
  4cd900:	pop    edi
  4cd901:	xor    eax,eax
  4cd903:	call   DWORD PTR [eax*2+0x4cf74c]
  4cd90a:	push   edi
  4cd90b:	ds ret 0x0
  4cd90f:	push   es
  4cd910:	pop    edi
  4cd911:	xor    eax,eax
  4cd913:	call   DWORD PTR [eax*2+0x4cf71c]
  4cd91a:	push   edi
  4cd91b:	ds ret 0x0
  4cd91f:	push   es
  4cd920:	mov    edi,edi
  4cd922:	push   ebp
  4cd923:	mov    ebp,esp
  4cd925:	sub    esp,0x30
  4cd928:	lea    esi,ds:0x4d018c
  4cd92e:	xor    DWORD PTR [esi+0x24],0x1725
  4cd935:	call   0x4ce180
  4cd93a:	push   esi
  4cd93b:	push   DWORD PTR [esi+0x1fc]
  4cd941:	push   DWORD PTR [esi+0x16c]
  4cd947:	push   DWORD PTR [esi+0xd4]
  4cd94d:	push   edx
  4cd94e:	call   0x4cd508
  4cd953:	add    esp,0x10
  4cd956:	pop    esi
  4cd957:	call   0x4cdcc8
  4cd95c:	add    esp,0x30
  4cd95f:	pop    ebp
  4cd960:	ret    
  4cd961:	add    BYTE PTR [eax],al
  4cd963:	add    BYTE PTR [edi+0x33],bl
  4cd966:	sar    bh,0x14
  4cd969:	inc    ebp
  4cd96a:	cmp    al,0xf7
  4cd96c:	dec    esp
  4cd96d:	add    BYTE PTR [edi+0x3e],dl
  4cd970:	ret    0x0
  4cd973:	push   es
  4cd974:	pop    edi
  4cd975:	xor    eax,eax
  4cd977:	call   DWORD PTR [eax*2+0x4cf750]
  4cd97e:	push   edi
  4cd97f:	ds ret 0x0
  4cd983:	push   es
  4cd984:	mov    edi,edi
  4cd986:	push   ebp
  4cd987:	mov    ebp,esp
  4cd989:	sub    esp,0x60
  4cd98c:	mov    ecx,0x4d00c8
  4cd991:	mov    DWORD PTR [ecx+0x80],0x20
  4cd99b:	push   ecx
  4cd99c:	push   0x0
  4cd99e:	call   0x4cd460
  4cd9a3:	pop    ecx
  4cd9a4:	push   ecx
  4cd9a5:	push   ebx
  4cd9a6:	push   DWORD PTR [ecx+0x88]
  4cd9ac:	push   DWORD PTR [ecx+0xa8]
  4cd9b2:	call   0x4cd738
  4cd9b7:	add    esp,0xc
  4cd9ba:	pop    ecx
  4cd9bb:	push   ecx
  4cd9bc:	call   0x4cdb2c
  4cd9c1:	pop    ecx
  4cd9c2:	add    esp,0x60
  4cd9c5:	pop    ebp
  4cd9c6:	ret    
  4cd9c7:	add    BYTE PTR [ebx-0x1374aa01],cl
  4cd9cd:	sub    esp,0x40
  4cd9d0:	mov    ecx,0x4d01e4
  4cd9d5:	mov    eax,DWORD PTR [ebp-0x28]
  4cd9d8:	push   ecx
  4cd9d9:	lea    edi,[ecx-0x1e4]
  4cd9df:	push   edi
  4cd9e0:	call   0x4cd410
  4cd9e5:	test   eax,eax
  4cd9e7:	jne    0x4cd9d9
  4cd9e9:	pop    ecx
  4cd9ea:	push   ecx
  4cd9eb:	push   DWORD PTR [ecx+0x1d8]
  4cd9f1:	push   DWORD PTR [ecx+0x18c]
  4cd9f7:	call   0x4ce104
  4cd9fc:	add    esp,0x8
  4cd9ff:	pop    ecx
  4cda00:	push   ecx
  4cda01:	mov    ebx,0x0
  4cda06:	push   ebx
  4cda07:	call   0x4cd470
  4cda0c:	pop    ecx
  4cda0d:	add    esp,0x40
  4cda10:	pop    ebp
  4cda11:	ret    
  4cda12:	add    BYTE PTR [eax],al
  4cda14:	mov    edi,edi
  4cda16:	push   ebp
  4cda17:	mov    ebp,esp
  4cda19:	sub    esp,0x20
  4cda1c:	lea    eax,ds:0x4d0014
  4cda22:	sub    DWORD PTR [eax+0x1c],0x2f0e
  4cda29:	push   eax
  4cda2a:	push   0x0
  4cda2c:	call   0x4cd000
  4cda31:	pop    eax
  4cda32:	push   eax
  4cda33:	push   esi
  4cda34:	push   DWORD PTR [eax+0x1b8]
  4cda3a:	call   0x4cd8c0
  4cda3f:	add    esp,0x8
  4cda42:	pop    eax
  4cda43:	push   eax
  4cda44:	call   0x4ce180
  4cda49:	pop    eax
  4cda4a:	add    esp,0x20
  4cda4d:	pop    ebp
  4cda4e:	ret    
  4cda4f:	add    BYTE PTR [ebx-0x1374aa01],cl
  4cda55:	sub    esp,0x58
  4cda58:	mov    ecx,0x4d0100
  4cda5d:	cmp    ecx,0x26c1
  4cda63:	jb     0x4cda53
  4cda65:	push   ecx
  4cda66:	call   0x4cdcc8
  4cda6b:	pop    ecx
  4cda6c:	push   ecx
  4cda6d:	push   DWORD PTR [ecx+0x68]
  4cda70:	push   DWORD PTR [ecx+0x148]
  4cda76:	push   DWORD PTR [ecx+0xf8]
  4cda7c:	push   esi
  4cda7d:	call   0x4cd29c
  4cda82:	add    esp,0x10
  4cda85:	pop    ecx
  4cda86:	push   ecx
  4cda87:	lea    esi,[ecx-0x100]
  4cda8d:	push   esi
  4cda8e:	call   0x4cd410
  4cda93:	test   eax,eax
  4cda95:	jne    0x4cda87
  4cda97:	pop    ecx
  4cda98:	add    esp,0x58
  4cda9b:	pop    ebp
  4cda9c:	ret    
  4cda9d:	add    BYTE PTR [eax],al
  4cda9f:	add    BYTE PTR [edi+0x33],bl
  4cdaa2:	sar    bh,0x14
  4cdaa5:	inc    ebp
  4cdaa6:	push   esp
  4cdaa7:	test   DWORD PTR [eax+eax*1+0x57],0xc23e
  4cdaaf:	push   es
  4cdab0:	pop    edi
  4cdab1:	xor    eax,eax
  4cdab3:	call   DWORD PTR [eax*2+0x4cf710]
  4cdaba:	push   edi
  4cdabb:	ds ret 0x0
  4cdabf:	push   es
  4cdac0:	pop    edi
  4cdac1:	xor    eax,eax
  4cdac3:	call   DWORD PTR [eax*2+0x4cf6f4]
  4cdaca:	push   edi
  4cdacb:	ds ret 0x0
  4cdacf:	push   es
  4cdad0:	pop    edi
  4cdad1:	xor    eax,eax
  4cdad3:	call   DWORD PTR [eax*2+0x4cf778]
  4cdada:	push   edi
  4cdadb:	ds ret 0x0
  4cdadf:	push   es
  4cdae0:	mov    edi,edi
  4cdae2:	push   ebp
  4cdae3:	mov    ebp,esp
  4cdae5:	sub    esp,0x40
  4cdae8:	lea    eax,[esi+0x90]
  4cdaee:	cmp    eax,0x5a21
  4cdaf3:	jbe    0x4cdae3
  4cdaf5:	push   eax
  4cdaf6:	push   DWORD PTR [eax+0x8]
  4cdaf9:	push   edx
  4cdafa:	push   edx
  4cdafb:	push   DWORD PTR [eax+0x180]
  4cdb01:	call   0x4cd920
  4cdb06:	add    esp,0x10
  4cdb09:	pop    eax
  4cdb0a:	push   eax
  4cdb0b:	push   0x0
  4cdb0d:	call   0x4cdf14
  4cdb12:	pop    eax
  4cdb13:	push   eax
  4cdb14:	lea    ecx,[eax-0xdc]
  4cdb1a:	push   ecx
  4cdb1b:	call   0x4cd410
  4cdb20:	test   eax,eax
  4cdb22:	jne    0x4cdb14
  4cdb24:	pop    eax
  4cdb25:	add    esp,0x40
  4cdb28:	pop    ebp
  4cdb29:	ret    
  4cdb2a:	add    BYTE PTR [eax],al
  4cdb2c:	pop    edi
  4cdb2d:	xor    eax,eax
  4cdb2f:	call   DWORD PTR [eax*2+0x4cf6ec]
  4cdb36:	push   edi
  4cdb37:	ds ret 0x0
  4cdb3b:	push   es
  4cdb3c:	mov    edi,edi
  4cdb3e:	push   ebp
  4cdb3f:	mov    ebp,esp
  4cdb41:	sub    esp,0x58
  4cdb44:	mov    edx,0x4d0144
  4cdb49:	and    DWORD PTR [ebp-0x8],0x72cd
  4cdb50:	push   edx
  4cdb51:	push   eax
  4cdb52:	push   esi
  4cdb53:	call   0x4cd9c8
  4cdb58:	add    esp,0x8
  4cdb5b:	pop    edx
  4cdb5c:	push   edx
  4cdb5d:	push   0x0
  4cdb5f:	call   0x4cd470
  4cdb64:	pop    edx
  4cdb65:	push   edx
  4cdb66:	call   0x4cdcc8
  4cdb6b:	pop    edx
  4cdb6c:	add    esp,0x58
  4cdb6f:	pop    ebp
  4cdb70:	ret    
  4cdb71:	add    BYTE PTR [eax],al
  4cdb73:	add    BYTE PTR [ebx-0x1374aa01],cl
  4cdb79:	sub    esp,0x40
  4cdb7c:	lea    ecx,ds:0x4d00cc
  4cdb82:	or     DWORD PTR [ecx+0x20],0xffffffe1
  4cdb86:	push   ecx
  4cdb87:	push   0x0
  4cdb89:	call   0x4cd964
  4cdb8e:	pop    ecx
  4cdb8f:	push   ecx
  4cdb90:	push   DWORD PTR [ecx+0xa0]
  4cdb96:	push   DWORD PTR [ecx+0xd4]
  4cdb9c:	push   edx
  4cdb9d:	push   DWORD PTR [ecx+0x40]
  4cdba0:	call   0x4cd880
  4cdba5:	add    esp,0x10
  4cdba8:	pop    ecx
  4cdba9:	push   ecx
  4cdbaa:	call   0x4cdcc8
  4cdbaf:	pop    ecx
  4cdbb0:	add    esp,0x40
  4cdbb3:	pop    ebp
  4cdbb4:	ret    
  4cdbb5:	add    BYTE PTR [eax],al
  4cdbb7:	add    BYTE PTR [ebx-0x1374aa01],cl
  4cdbbd:	sub    esp,0x20
  4cdbc0:	lea    ecx,[esi-0x84]
  4cdbc6:	add    DWORD PTR [ebp-0x1c],esi
  4cdbc9:	push   ecx
  4cdbca:	push   DWORD PTR [ecx+0x178]
  4cdbd0:	push   ebx
  4cdbd1:	push   edi
  4cdbd2:	push   eax
  4cdbd3:	call   0x4cd13c
  4cdbd8:	add    esp,0x10
  4cdbdb:	pop    ecx
  4cdbdc:	push   ecx
  4cdbdd:	mov    edi,0x0
  4cdbe2:	push   edi
  4cdbe3:	call   0x4cd460
  4cdbe8:	pop    ecx
  4cdbe9:	push   ecx
  4cdbea:	mov    ecx,0x0
  4cdbef:	push   ecx
  4cdbf0:	call   0x4cd964
  4cdbf5:	pop    ecx
  4cdbf6:	add    esp,0x20
  4cdbf9:	pop    ebp
  4cdbfa:	ret    
  4cdbfb:	add    BYTE PTR [ebx-0x1374aa01],cl
  4cdc01:	sub    esp,0x44
  4cdc04:	lea    edi,ds:0x4d016c
  4cdc0a:	mov    DWORD PTR [ebp-0x8],edi
  4cdc0d:	push   edi
  4cdc0e:	call   0x4cdb2c
  4cdc13:	pop    edi
  4cdc14:	push   edi
  4cdc15:	push   DWORD PTR [edi+0x1a0]
  4cdc1b:	push   ecx
  4cdc1c:	push   DWORD PTR [edi+0x138]
  4cdc22:	push   ebx
  4cdc23:	call   0x4cdb74
  4cdc28:	add    esp,0x10
  4cdc2b:	pop    edi
  4cdc2c:	push   edi
  4cdc2d:	mov    edi,0x0
  4cdc32:	push   edi
  4cdc33:	call   0x4cd460
  4cdc38:	pop    edi
  4cdc39:	add    esp,0x44
  4cdc3c:	pop    ebp
  4cdc3d:	ret    
  4cdc3e:	add    BYTE PTR [eax],al
  4cdc40:	mov    edi,edi
  4cdc42:	push   ebp
  4cdc43:	mov    ebp,esp
  4cdc45:	sub    esp,0x38
  4cdc48:	mov    ecx,0x4d0098
  4cdc4d:	or     esi,DWORD PTR [ebp-0x2c]
  4cdc50:	push   ecx
  4cdc51:	push   DWORD PTR [ecx+0x8]
  4cdc54:	push   ebx
  4cdc55:	call   0x4cdfe0
  4cdc5a:	add    esp,0x8
  4cdc5d:	pop    ecx
  4cdc5e:	push   ecx
  4cdc5f:	mov    esi,0x0
  4cdc64:	push   esi
  4cdc65:	call   0x4cd470
  4cdc6a:	pop    ecx
  4cdc6b:	push   ecx
  4cdc6c:	push   0x0
  4cdc6e:	call   0x4cd964
  4cdc73:	pop    ecx
  4cdc74:	add    esp,0x38
  4cdc77:	pop    ebp
  4cdc78:	ret    
  4cdc79:	add    BYTE PTR [eax],al
  4cdc7b:	add    BYTE PTR [ebx-0x1374aa01],cl
  4cdc81:	sub    esp,0x20
  4cdc84:	lea    edx,ds:0x4d01cc
  4cdc8a:	cmp    edx,0x4e48
  4cdc90:	jbe    0x4cdc7f
  4cdc92:	push   edx
  4cdc93:	push   edi
  4cdc94:	push   DWORD PTR [edx+0x120]
  4cdc9a:	push   DWORD PTR [edx+0x1e8]
  4cdca0:	call   0x4cd224
  4cdca5:	add    esp,0xc
  4cdca8:	pop    edx
  4cdca9:	push   edx
  4cdcaa:	mov    ecx,0x0
  4cdcaf:	push   ecx
  4cdcb0:	call   0x4cdf04
  4cdcb5:	pop    edx
  4cdcb6:	push   edx
  4cdcb7:	mov    edx,0x0
  4cdcbc:	push   edx
  4cdcbd:	call   0x4cdf14
  4cdcc2:	pop    edx
  4cdcc3:	add    esp,0x20
  4cdcc6:	pop    ebp
  4cdcc7:	ret    
  4cdcc8:	pop    edi
  4cdcc9:	xor    eax,eax
  4cdccb:	call   DWORD PTR [eax*2+0x4cf730]
  4cdcd2:	push   edi
  4cdcd3:	ds ret 0x0
  4cdcd7:	push   es
  4cdcd8:	mov    edi,edi
  4cdcda:	push   ebp
  4cdcdb:	mov    ebp,esp
  4cdcdd:	sub    esp,0x38
  4cdce0:	lea    ecx,[esi+0xf4]
  4cdce6:	sub    ebx,edi
  4cdce8:	push   ecx
  4cdce9:	mov    esi,0x0
  4cdcee:	push   esi
  4cdcef:	call   0x4cd964
  4cdcf4:	pop    ecx
  4cdcf5:	push   ecx
  4cdcf6:	push   ebx
  4cdcf7:	push   DWORD PTR [ecx+0xc]
  4cdcfa:	push   edi
  4cdcfb:	push   edi
  4cdcfc:	call   0x4cdd18
  4cdd01:	add    esp,0x10
  4cdd04:	pop    ecx
  4cdd05:	push   ecx
  4cdd06:	mov    edx,0xfffffff4
  4cdd0b:	push   edx
  4cdd0c:	call   0x4cdac0
  4cdd11:	pop    ecx
  4cdd12:	add    esp,0x38
  4cdd15:	pop    ebp
  4cdd16:	ret    
  4cdd17:	add    BYTE PTR [ebx-0x1374aa01],cl
  4cdd1d:	sub    esp,0x40
  4cdd20:	lea    ebx,[ecx+0x18]
  4cdd23:	cmp    ebx,0x494
  4cdd29:	jbe    0x4cdd1b
  4cdd2b:	push   0x0
  4cdd2d:	call   0x4cdf04
  4cdd32:	push   ebx
  4cdd33:	push   ecx
  4cdd34:	push   eax
  4cdd35:	call   0x4cdf24
  4cdd3a:	add    esp,0x8
  4cdd3d:	pop    ebx
  4cdd3e:	mov    eax,0x0
  4cdd43:	push   eax
  4cdd44:	call   0x4ce1cc
  4cdd49:	add    esp,0x40
  4cdd4c:	pop    ebp
  4cdd4d:	ret    
  4cdd4e:	add    BYTE PTR [eax],al
  4cdd50:	mov    edi,edi
  4cdd52:	push   ebp
  4cdd53:	mov    ebp,esp
  4cdd55:	sub    esp,0x44
  4cdd58:	mov    edi,0x4d008c
  4cdd5d:	adc    ecx,DWORD PTR [edi+0xc8]
  4cdd63:	push   edi
  4cdd64:	push   DWORD PTR [edi+0x8]
  4cdd67:	push   DWORD PTR [edi+0x1c]
  4cdd6a:	call   0x4cd1bc
  4cdd6f:	add    esp,0x8
  4cdd72:	pop    edi
  4cdd73:	push   edi
  4cdd74:	push   0x0
  4cdd76:	call   0x4cdf04
  4cdd7b:	pop    edi
  4cdd7c:	push   edi
  4cdd7d:	push   0x0
  4cdd7f:	call   0x4cd460
  4cdd84:	pop    edi
  4cdd85:	add    esp,0x44
  4cdd88:	pop    ebp
  4cdd89:	ret    
  4cdd8a:	add    BYTE PTR [eax],al
  4cdd8c:	mov    edi,edi
  4cdd8e:	push   ebp
  4cdd8f:	mov    ebp,esp
  4cdd91:	sub    esp,0x5c
  4cdd94:	lea    esi,[eax-0x98]
  4cdd9a:	add    ebx,eax
  4cdd9c:	push   0xfffffff4
  4cdd9e:	call   0x4cdac0
  4cdda3:	push   esi
  4cdda4:	push   DWORD PTR [esi+0xac]
  4cddaa:	push   DWORD PTR [esi+0x70]
  4cddad:	push   DWORD PTR [esi+0x1a8]
  4cddb3:	push   DWORD PTR [esi+0x6c]
  4cddb6:	call   0x4cd378
  4cddbb:	add    esp,0x10
  4cddbe:	pop    esi
  4cddbf:	push   0x0
  4cddc1:	call   0x4cd470
  4cddc6:	add    esp,0x5c
  4cddc9:	pop    ebp
  4cddca:	ret    
  4cddcb:	add    BYTE PTR [edi+0x33],bl
  4cddce:	sar    bh,0x14
  4cddd1:	inc    ebp
  4cddd2:	and    bh,dh
  4cddd4:	dec    esp
  4cddd5:	add    BYTE PTR [edi+0x3e],dl
  4cddd8:	ret    0x0
  4cdddb:	push   es
  4cdddc:	pop    edi
  4cdddd:	xor    eax,eax
  4cdddf:	call   DWORD PTR [eax*2+0x4cf784]
  4cdde6:	push   edi
  4cdde7:	ds ret 0x0
  4cddeb:	push   es
  4cddec:	mov    edi,edi
  4cddee:	push   ebp
  4cddef:	mov    ebp,esp
  4cddf1:	sub    esp,0x60
  4cddf4:	lea    ebx,[eax-0x38]
  4cddf7:	or     edx,0x33c7
  4cddfd:	push   ebx
  4cddfe:	push   esi
  4cddff:	push   esi
  4cde00:	push   ecx
  4cde01:	call   0x4cd258
  4cde06:	add    esp,0xc
  4cde09:	pop    ebx
  4cde0a:	mov    edx,0x0
  4cde0f:	push   edx
  4cde10:	call   0x4cd368
  4cde15:	mov    ecx,0x0
  4cde1a:	push   ecx
  4cde1b:	call   0x4cdf04
  4cde20:	add    esp,0x60
  4cde23:	pop    ebp
  4cde24:	ret    
  4cde25:	add    BYTE PTR [eax],al
  4cde27:	add    BYTE PTR [ebx-0x1374aa01],cl
  4cde2d:	sub    esp,0x54
  4cde30:	adc    edi,DWORD PTR [ebx-0xd8]
  4cde36:	mov    esi,0x4d00c4
  4cde3b:	mov    eax,0x6a8
  4cde40:	push   eax
  4cde41:	mov    eax,0x6a8
  4cde46:	push   eax
  4cde47:	push   0x40001
  4cde4c:	mov    edi,0x86295ca6
  4cde51:	push   DWORD PTR [edi+0x7a239a86]
  4cde57:	sub    DWORD PTR [esp],0x2
  4cde5b:	mov    edi,0x4cf6f8
  4cde60:	pop    DWORD PTR [edi]
  4cde62:	call   0x4cd430
  4cde67:	push   eax
  4cde68:	pop    DWORD PTR [esi-0x8c]
  4cde6e:	mov    edx,DWORD PTR [esi-0x8c]
  4cde74:	mov    ecx,edx
  4cde76:	sub    edx,edx
  4cde78:	dec    edx
  4cde79:	and    edx,0x4cf038
  4cde7f:	mov    ebx,0x631a7e54
  4cde84:	push   0x6a8
  4cde89:	pop    edi
  4cde8a:	xor    eax,eax
  4cde8c:	push   DWORD PTR [edx+eax*1]
  4cde8f:	sub    DWORD PTR [esp],ebx
  4cde92:	pop    DWORD PTR [ecx+eax*2]
  4cde95:	dec    DWORD PTR [ecx]
  4cde97:	xor    ebx,ebx
  4cde99:	add    ebx,DWORD PTR [edx]
  4cde9b:	add    edx,0x4
  4cde9e:	add    ecx,0x4
  4cdea1:	sub    edi,0x4
  4cdea4:	test   edi,edi
  4cdea6:	jne    0x4cde8a
  4cdea8:	push   0x0
  4cdeaa:	call   0x4ce1cc
  4cdeaf:	add    esp,0x54
  4cdeb2:	pop    ebp
  4cdeb3:	ret    
  4cdeb4:	pop    edi
  4cdeb5:	xor    eax,eax
  4cdeb7:	call   DWORD PTR [eax*2+0x4cf77c]
  4cdebe:	push   edi
  4cdebf:	ds ret 0x0
  4cdec3:	push   es
  4cdec4:	mov    edi,edi
  4cdec6:	push   ebp
  4cdec7:	mov    ebp,esp
  4cdec9:	sub    esp,0x48
  4cdecc:	mov    edi,0x4d01d4
  4cded1:	cmp    edi,0x1ba0
  4cded7:	je     0x4cdec7
  4cded9:	push   edi
  4cdeda:	push   DWORD PTR [edi+0x9c]
  4cdee0:	push   ebx
  4cdee1:	push   ecx
  4cdee2:	call   0x4ce020
  4cdee7:	add    esp,0xc
  4cdeea:	pop    edi
  4cdeeb:	push   edi
  4cdeec:	call   0x4cdb2c
  4cdef1:	pop    edi
  4cdef2:	push   edi
  4cdef3:	mov    ecx,0x0
  4cdef8:	push   ecx
  4cdef9:	call   0x4cdf04
  4cdefe:	pop    edi
  4cdeff:	add    esp,0x48
  4cdf02:	pop    ebp
  4cdf03:	ret    
  4cdf04:	pop    edi
  4cdf05:	xor    eax,eax
  4cdf07:	call   DWORD PTR [eax*2+0x4cf700]
  4cdf0e:	push   edi
  4cdf0f:	ds ret 0x0
  4cdf13:	push   es
  4cdf14:	pop    edi
  4cdf15:	xor    eax,eax
  4cdf17:	call   DWORD PTR [eax*2+0x4cf758]
  4cdf1e:	push   edi
  4cdf1f:	ds ret 0x0
  4cdf23:	push   es
  4cdf24:	mov    edi,edi
  4cdf26:	push   ebp
  4cdf27:	mov    ebp,esp
  4cdf29:	sub    esp,0x44
  4cdf2c:	lea    esi,[ebx-0xc8]
  4cdf32:	sbb    DWORD PTR [ebp-0x38],0xfffffff0
  4cdf36:	push   0x0
  4cdf38:	call   0x4cddcc
  4cdf3d:	push   esi
  4cdf3e:	push   DWORD PTR [esi+0x78]
  4cdf41:	push   DWORD PTR [esi+0xe4]
  4cdf47:	push   edx
  4cdf48:	push   DWORD PTR [esi+0x1ac]
  4cdf4e:	call   0x4ce098
  4cdf53:	add    esp,0x10
  4cdf56:	pop    esi
  4cdf57:	mov    eax,0x0
  4cdf5c:	push   eax
  4cdf5d:	call   0x4cd964
  4cdf62:	add    esp,0x44
  4cdf65:	pop    ebp
  4cdf66:	ret    
  4cdf67:	add    BYTE PTR [ebx-0x1374aa01],cl
  4cdf6d:	sub    esp,0x34
  4cdf70:	lea    eax,ds:0x4d01cc
  4cdf76:	adc    esi,0xffffffff
  4cdf79:	push   eax
  4cdf7a:	push   0xfffffff4
  4cdf7c:	call   0x4cdac0
  4cdf81:	pop    eax
  4cdf82:	push   eax
  4cdf83:	push   DWORD PTR [eax+0x5c]
  4cdf86:	push   esi
  4cdf87:	call   0x4ce190
  4cdf8c:	add    esp,0x8
  4cdf8f:	pop    eax
  4cdf90:	push   eax
  4cdf91:	push   0x0
  4cdf93:	call   0x4cd470
  4cdf98:	pop    eax
  4cdf99:	add    esp,0x34
  4cdf9c:	pop    ebp
  4cdf9d:	ret    
  4cdf9e:	add    BYTE PTR [eax],al
  4cdfa0:	mov    edi,edi
  4cdfa2:	push   ebp
  4cdfa3:	mov    ebp,esp
  4cdfa5:	sub    esp,0x58
  4cdfa8:	lea    esi,[edx+0x78]
  4cdfab:	mov    edx,DWORD PTR [esi+0x118]
  4cdfb1:	call   0x4cd2ec
  4cdfb6:	push   esi
  4cdfb7:	push   ebx
  4cdfb8:	push   DWORD PTR [esi+0xcc]
  4cdfbe:	push   DWORD PTR [esi+0x18]
  4cdfc1:	push   DWORD PTR [esi+0xd8]
  4cdfc7:	call   0x4cd984
  4cdfcc:	add    esp,0x10
  4cdfcf:	pop    esi
  4cdfd0:	mov    edx,0x0
  4cdfd5:	push   edx
  4cdfd6:	call   0x4cddcc
  4cdfdb:	add    esp,0x58
  4cdfde:	pop    ebp
  4cdfdf:	ret    
  4cdfe0:	mov    edi,edi
  4cdfe2:	push   ebp
  4cdfe3:	mov    ebp,esp
  4cdfe5:	sub    esp,0x28
  4cdfe8:	mov    ebx,0x4d018c
  4cdfed:	sub    DWORD PTR [ebx-0x184],0xffff8d00
  4cdff7:	mov    ecx,0x0
  4cdffc:	push   ecx
  4cdffd:	call   0x4cd000
  4ce002:	push   ebx
  4ce003:	push   edi
  4ce004:	push   DWORD PTR [ebx+0x11c]
  4ce00a:	call   0x4cd0ac
  4ce00f:	add    esp,0x8
  4ce012:	pop    ebx
  4ce013:	call   0x4cd2ec
  4ce018:	add    esp,0x28
  4ce01b:	pop    ebp
  4ce01c:	ret    
  4ce01d:	add    BYTE PTR [eax],al
  4ce01f:	add    BYTE PTR [ebx-0x1374aa01],cl
  4ce025:	sub    esp,0x44
  4ce028:	lea    esi,[edi-0x188]
  4ce02e:	or     DWORD PTR [ebp-0x34],0xfffff932
  4ce035:	push   esi
  4ce036:	push   ecx
  4ce037:	push   eax
  4ce038:	call   0x4cdae0
  4ce03d:	add    esp,0x8
  4ce040:	pop    esi
  4ce041:	push   0x0
  4ce043:	call   0x4cd460
  4ce048:	call   0x4ce180
  4ce04d:	add    esp,0x44
  4ce050:	pop    ebp
  4ce051:	ret    
  4ce052:	add    BYTE PTR [eax],al
  4ce054:	mov    edi,edi
  4ce056:	push   ebp
  4ce057:	mov    ebp,esp
  4ce059:	sub    esp,0x38
  4ce05c:	mov    ecx,0x4d0038
  4ce061:	sbb    DWORD PTR [ebp-0x24],ebx
  4ce064:	push   ecx
  4ce065:	push   DWORD PTR [ecx+0x10]
  4ce068:	push   edx
  4ce069:	push   DWORD PTR [ecx+0x1f4]
  4ce06f:	push   DWORD PTR [ecx+0xac]
  4ce075:	call   0x4cd050
  4ce07a:	add    esp,0x10
  4ce07d:	pop    ecx
  4ce07e:	push   ecx
  4ce07f:	call   0x4ce180
  4ce084:	pop    ecx
  4ce085:	push   ecx
  4ce086:	mov    edi,0x0
  4ce08b:	push   edi
  4ce08c:	call   0x4cd964
  4ce091:	pop    ecx
  4ce092:	add    esp,0x38
  4ce095:	pop    ebp
  4ce096:	ret    
  4ce097:	add    BYTE PTR [ebx-0x1374aa01],cl
  4ce09d:	sub    esp,0x24
  4ce0a0:	lea    edx,ds:0x4d0110
  4ce0a6:	mov    DWORD PTR [edx+0x30],ecx
  4ce0a9:	push   edx
  4ce0aa:	push   edi
  4ce0ab:	push   eax
  4ce0ac:	call   0x4cd550
  4ce0b1:	add    esp,0x8
  4ce0b4:	pop    edx
  4ce0b5:	push   edx
  4ce0b6:	call   0x4cdcc8
  4ce0bb:	pop    edx
  4ce0bc:	push   edx
  4ce0bd:	call   0x4cd2ec
  4ce0c2:	pop    edx
  4ce0c3:	add    esp,0x24
  4ce0c6:	pop    ebp
  4ce0c7:	ret    
  4ce0c8:	mov    edi,edi
  4ce0ca:	push   ebp
  4ce0cb:	mov    ebp,esp
  4ce0cd:	sub    esp,0x44
  4ce0d0:	mov    esi,0x4d01f0
  4ce0d5:	cmp    esi,0x2355
  4ce0db:	jb     0x4ce0cb
  4ce0dd:	mov    edx,0x0
  4ce0e2:	push   edx
  4ce0e3:	call   0x4ce1cc
  4ce0e8:	push   esi
  4ce0e9:	push   DWORD PTR [esi+0x190]
  4ce0ef:	push   ecx
  4ce0f0:	push   eax
  4ce0f1:	call   0x4cd7cc
  4ce0f6:	add    esp,0xc
  4ce0f9:	pop    esi
  4ce0fa:	call   0x4cdb2c
  4ce0ff:	add    esp,0x44
  4ce102:	pop    ebp
  4ce103:	ret    
  4ce104:	mov    edi,edi
  4ce106:	push   ebp
  4ce107:	mov    ebp,esp
  4ce109:	sub    esp,0x20
  4ce10c:	lea    esi,ds:0x4d0164
  4ce112:	xor    ebx,ecx
  4ce114:	mov    edx,0x0
  4ce119:	push   edx
  4ce11a:	call   0x4cd460
  4ce11f:	push   esi
  4ce120:	push   DWORD PTR [esi+0x1d4]
  4ce126:	push   DWORD PTR [esi+0x19c]
  4ce12c:	call   0x4cd6b0
  4ce131:	add    esp,0x8
  4ce134:	pop    esi
  4ce135:	call   0x4cd2ec
  4ce13a:	add    esp,0x20
  4ce13d:	pop    ebp
  4ce13e:	ret    
  4ce13f:	add    BYTE PTR [ebx-0x1374aa01],cl
  4ce145:	sub    esp,0x40
  4ce148:	lea    edi,ds:0x4d0084
  4ce14e:	or     DWORD PTR [edi-0x44],0x32a2
  4ce155:	push   edi
  4ce156:	push   0x0
  4ce158:	call   0x4cd368
  4ce15d:	pop    edi
  4ce15e:	push   edi
  4ce15f:	push   DWORD PTR [edi+0x74]
  4ce162:	push   DWORD PTR [edi+0x10]
  4ce165:	call   0x4cd6f4
  4ce16a:	add    esp,0x8
  4ce16d:	pop    edi
  4ce16e:	push   edi
  4ce16f:	mov    edi,0x0
  4ce174:	push   edi
  4ce175:	call   0x4cd964
  4ce17a:	pop    edi
  4ce17b:	add    esp,0x40
  4ce17e:	pop    ebp
  4ce17f:	ret    
  4ce180:	pop    edi
  4ce181:	xor    eax,eax
  4ce183:	call   DWORD PTR [eax*2+0x4cf704]
  4ce18a:	push   edi
  4ce18b:	ds ret 0x0
  4ce18f:	push   es
  4ce190:	mov    edi,edi
  4ce192:	push   ebp
  4ce193:	mov    ebp,esp
  4ce195:	sub    esp,0x5c
  4ce198:	mov    edx,0x4d0140
  4ce19d:	sbb    esi,DWORD PTR [ebp-0x34]
  4ce1a0:	push   edx
  4ce1a1:	push   0x0
  4ce1a3:	call   0x4cdf14
  4ce1a8:	pop    edx
  4ce1a9:	push   edx
  4ce1aa:	push   DWORD PTR [edx+0xd4]
  4ce1b0:	push   ecx
  4ce1b1:	push   DWORD PTR [edx+0x68]
  4ce1b4:	call   0x4cdc40
  4ce1b9:	add    esp,0xc
  4ce1bc:	pop    edx
  4ce1bd:	push   edx
  4ce1be:	call   0x4cd2ec
  4ce1c3:	pop    edx
  4ce1c4:	add    esp,0x5c
  4ce1c7:	pop    ebp
  4ce1c8:	ret    
  4ce1c9:	add    BYTE PTR [eax],al
  4ce1cb:	add    BYTE PTR [edi+0x33],bl
  4ce1ce:	sar    bh,0x14
  4ce1d1:	inc    ebp
  4ce1d2:	pusha  
  4ce1d3:	test   DWORD PTR [eax+eax*1+0x57],0xc23e
  4ce1db:	push   es
  4ce1dc:	pop    edi
  4ce1dd:	xor    eax,eax
  4ce1df:	call   DWORD PTR [eax*2+0x4cf748]
  4ce1e6:	push   edi
  4ce1e7:	ds ret 0x0
  4ce1eb:	push   es
  4ce1ec:	mov    edi,edi
  4ce1ee:	push   ebp
  4ce1ef:	mov    ebp,esp
  4ce1f1:	sub    esp,0x40
  4ce1f4:	lea    esi,ds:0x4d0108
  4ce1fa:	mov    edx,0xffffffc9
  4ce1ff:	push   esi
  4ce200:	push   ecx
  4ce201:	push   DWORD PTR [esi+0x5c]
  4ce204:	push   DWORD PTR [esi+0x17c]
  4ce20a:	call   0x4cdbb8
  4ce20f:	add    esp,0xc
  4ce212:	pop    esi
  4ce213:	call   0x4cd2ec
  4ce218:	push   0x0
  4ce21a:	call   0x4cd964
  4ce21f:	add    esp,0x40
  4ce222:	pop    ebp
  4ce223:	ret    
