
812a50052902c464f85833f85dbba726560a850ea4dea163131b94253d44c3f8.exe:     file format pei-i386


Disassembly of section .text:

00401000 <.text>:
  401000:	mov    edi,edi
  401002:	push   ebp
  401003:	mov    ebp,esp
  401005:	sub    esp,0x4c
  401008:	push   eax
  401009:	push   ecx
  40100a:	push   DWORD PTR [eax+0x29c]
  401010:	call   0x401970
  401015:	add    esp,0x8
  401018:	pop    eax
  401019:	push   eax
  40101a:	mov    eax,0x0
  40101f:	push   eax
  401020:	mov    eax,ds:0x40402c
  401025:	call   eax
  401027:	pop    eax
  401028:	push   eax
  401029:	push   0x0
  40102b:	mov    eax,ds:0x404030
  401030:	call   eax
  401032:	pop    eax
  401033:	sub    esp,0xffffffb4
  401036:	mov    ebp,DWORD PTR [esp]
  401039:	add    esp,0x4
  40103c:	ret    
	...
  40108d:	add    BYTE PTR [eax],al
  40108f:	add    BYTE PTR [ebx-0x1374aa01],cl
  401095:	sub    esp,0x60
  401098:	push   eax
  401099:	push   ecx
  40109a:	push   ebx
  40109b:	call   0x4016f0
  4010a0:	add    esp,0x8
  4010a3:	pop    eax
  4010a4:	push   eax
  4010a5:	lea    edx,[eax-0x100]
  4010ab:	push   edx
  4010ac:	mov    eax,ds:0x404028
  4010b1:	call   eax
  4010b3:	test   eax,eax
  4010b5:	jne    0x4010a5
  4010b7:	pop    eax
  4010b8:	push   eax
  4010b9:	push   0x0
  4010bb:	mov    eax,ds:0x40401c
  4010c0:	call   eax
  4010c2:	pop    eax
  4010c3:	sub    esp,0xffffffa0
  4010c6:	mov    ebp,DWORD PTR [esp]
  4010c9:	add    esp,0x4
  4010cc:	ret    
  4010cd:	add    BYTE PTR [eax],al
  4010cf:	add    BYTE PTR [ebx-0x1374aa01],cl
  4010d5:	sub    esp,0x3c
  4010d8:	push   eax
  4010d9:	push   DWORD PTR [eax+0x3cc]
  4010df:	push   esi
  4010e0:	push   DWORD PTR [eax+0x98]
  4010e6:	call   0x402974
  4010eb:	add    esp,0xc
  4010ee:	pop    eax
  4010ef:	push   eax
  4010f0:	lea    eax,[eax-0x100]
  4010f6:	push   eax
  4010f7:	mov    eax,ds:0x404028
  4010fc:	call   eax
  4010fe:	test   eax,eax
  401100:	jne    0x4010f0
  401102:	pop    eax
  401103:	mov    ecx,0x404028
  401108:	mov    ecx,DWORD PTR [ecx]
  40110a:	push   ecx
  40110b:	push   DWORD PTR [eax+0xe8]
  401111:	pop    ebx
  401112:	call   ebx
  401114:	sub    esp,0xffffffc4
  401117:	mov    ebp,DWORD PTR [esp]
  40111a:	add    esp,0x4
  40111d:	ret    
  40111e:	add    BYTE PTR [eax],al
  401120:	mov    edi,edi
  401122:	push   ebp
  401123:	mov    ebp,esp
  401125:	sub    esp,0x38
  401128:	push   eax
  401129:	push   0x0
  40112b:	mov    eax,ds:0x404000
  401130:	call   eax
  401132:	pop    eax
  401133:	push   eax
  401134:	push   DWORD PTR [eax+0xf0]
  40113a:	push   esi
  40113b:	call   0x401318
  401140:	add    esp,0x8
  401143:	pop    eax
  401144:	push   eax
  401145:	push   0x0
  401147:	mov    eax,ds:0x404044
  40114c:	call   eax
  40114e:	pop    eax
  40114f:	sub    esp,0xffffffc8
  401152:	mov    ebp,DWORD PTR [esp]
  401155:	add    esp,0x4
  401158:	ret    
	...
  4011a9:	add    BYTE PTR [eax],al
  4011ab:	add    BYTE PTR [ecx-0x3d],ah
	...
  40124e:	add    BYTE PTR [eax],al
  401250:	mov    edi,edi
  401252:	push   ebp
  401253:	mov    ebp,esp
  401255:	sub    esp,0x44
  401258:	push   eax
  401259:	mov    esi,0x0
  40125e:	push   esi
  40125f:	mov    eax,ds:0x40402c
  401264:	call   eax
  401266:	pop    eax
  401267:	push   eax
  401268:	push   DWORD PTR [eax+0xcc]
  40126e:	push   DWORD PTR [eax+0x2c]
  401271:	push   esi
  401272:	call   0x401e20
  401277:	add    esp,0xc
  40127a:	pop    eax
  40127b:	push   eax
  40127c:	mov    eax,ds:0x404010
  401281:	call   eax
  401283:	pop    eax
  401284:	sub    esp,0xffffffbc
  401287:	mov    ebp,DWORD PTR [esp]
  40128a:	add    esp,0x4
  40128d:	ret    
  40128e:	add    BYTE PTR [eax],al
  401290:	mov    edi,edi
  401292:	push   ebp
  401293:	mov    ebp,esp
  401295:	sub    esp,0x50
  401298:	push   eax
  401299:	push   esi
  40129a:	push   edi
  40129b:	push   edx
  40129c:	push   DWORD PTR [eax+0x54]
  40129f:	call   0x401d3c
  4012a4:	add    esp,0x10
  4012a7:	pop    eax
  4012a8:	push   eax
  4012a9:	mov    eax,0x0
  4012ae:	push   eax
  4012af:	mov    eax,ds:0x404020
  4012b4:	call   eax
  4012b6:	pop    eax
  4012b7:	push   eax
  4012b8:	mov    edi,0x0
  4012bd:	push   edi
  4012be:	mov    eax,ds:0x40401c
  4012c3:	call   eax
  4012c5:	pop    eax
  4012c6:	sub    esp,0xffffffb0
  4012c9:	mov    ebp,DWORD PTR [esp]
  4012cc:	add    esp,0x4
  4012cf:	ret    
  4012d0:	mov    edi,edi
  4012d2:	push   ebp
  4012d3:	mov    ebp,esp
  4012d5:	sub    esp,0x30
  4012d8:	push   eax
  4012d9:	mov    eax,0x0
  4012de:	push   eax
  4012df:	mov    eax,ds:0x404044
  4012e4:	call   eax
  4012e6:	pop    eax
  4012e7:	push   eax
  4012e8:	push   edi
  4012e9:	push   DWORD PTR [eax+0x214]
  4012ef:	push   DWORD PTR [eax+0x3f0]
  4012f5:	call   0x401a50
  4012fa:	add    esp,0xc
  4012fd:	pop    eax
  4012fe:	push   eax
  4012ff:	mov    ebx,0x0
  401304:	push   ebx
  401305:	mov    eax,ds:0x40402c
  40130a:	call   eax
  40130c:	pop    eax
  40130d:	sub    esp,0xffffffd0
  401310:	mov    ebp,DWORD PTR [esp]
  401313:	add    esp,0x4
  401316:	ret    
  401317:	add    BYTE PTR [ebx-0x1374aa01],cl
  40131d:	sub    esp,0x48
  401320:	push   eax
  401321:	push   DWORD PTR [eax+0x1e8]
  401327:	push   ebx
  401328:	push   ecx
  401329:	push   ecx
  40132a:	call   0x401bf8
  40132f:	add    esp,0x10
  401332:	pop    eax
  401333:	push   eax
  401334:	mov    eax,ds:0x404010
  401339:	call   eax
  40133b:	pop    eax
  40133c:	push   eax
  40133d:	mov    ecx,0x0
  401342:	push   ecx
  401343:	mov    eax,ds:0x404074
  401348:	call   eax
  40134a:	pop    eax
  40134b:	sub    esp,0xffffffb8
  40134e:	mov    ebp,DWORD PTR [esp]
  401351:	add    esp,0x4
  401354:	ret    
	...
  4013a5:	add    BYTE PTR [eax],al
  4013a7:	add    BYTE PTR [ebx-0x1374aa01],cl
  4013ad:	sub    esp,0x44
  4013b0:	push   eax
  4013b1:	push   DWORD PTR [eax+0x36c]
  4013b7:	push   edx
  4013b8:	push   DWORD PTR [eax+0x308]
  4013be:	push   ebx
  4013bf:	call   0x40156c
  4013c4:	add    esp,0x10
  4013c7:	pop    eax
  4013c8:	push   eax
  4013c9:	push   0x0
  4013cb:	mov    eax,ds:0x404024
  4013d0:	call   eax
  4013d2:	pop    eax
  4013d3:	push   eax
  4013d4:	mov    eax,0x0
  4013d9:	push   eax
  4013da:	mov    eax,ds:0x404030
  4013df:	call   eax
  4013e1:	pop    eax
  4013e2:	sub    esp,0xffffffbc
  4013e5:	mov    ebp,DWORD PTR [esp]
  4013e8:	add    esp,0x4
  4013eb:	ret    
	...
  40143c:	mov    edi,edi
  40143e:	push   ebp
  40143f:	mov    ebp,esp
  401441:	sub    esp,0x2c
  401444:	push   eax
  401445:	mov    esi,0x6b4
  40144a:	push   esi
  40144b:	mov    edi,0x6b4
  401450:	push   edi
  401451:	push   0x40001
  401456:	push   0x0
  401458:	xor    DWORD PTR [esp],0x89e6ba91
  40145f:	pop    ecx
  401460:	sub    ecx,0x89a67a45
  401466:	push   DWORD PTR [ecx]
  401468:	sub    DWORD PTR [esp],0x2
  40146c:	mov    ecx,0x404034
  401471:	pop    DWORD PTR [ecx]
  401473:	mov    eax,ds:0x404034
  401478:	call   eax
  40147a:	xchg   DWORD PTR [esp],eax
  40147d:	pop    DWORD PTR [eax+0xe8]
  401483:	mov    ebx,DWORD PTR [eax+0xe8]
  401489:	lea    edx,[ebx]
  40148b:	sub    ecx,ecx
  40148d:	dec    ecx
  40148e:	and    ecx,0x4029f6
  401494:	mov    edi,0x7a89d45a
  401499:	xor    ebx,ebx
  40149b:	add    ebx,0x6b4
  4014a1:	mov    esi,edi
  4014a3:	xor    esi,DWORD PTR [ecx]
  4014a5:	push   esi
  4014a6:	sub    esi,esi
  4014a8:	sub    DWORD PTR [esp],0x1
  4014ac:	pop    DWORD PTR [edx+esi*2]
  4014af:	push   0x1
  4014b1:	sub    DWORD PTR [esp],edi
  4014b4:	mov    edi,0xfffffffc
  4014b9:	sub    ecx,edi
  4014bb:	sub    edx,edi
  4014bd:	pop    edi
  4014be:	sub    ebx,0x4
  4014c1:	test   ebx,ebx
  4014c3:	jne    0x4014a1
  4014c5:	push   eax
  4014c6:	push   0x0
  4014c8:	mov    eax,ds:0x404058
  4014cd:	call   eax
  4014cf:	pop    eax
  4014d0:	sub    esp,0xffffffd4
  4014d3:	pop    ebp
  4014d4:	ret    
	...
  401525:	add    BYTE PTR [eax],al
  401527:	add    BYTE PTR [ebx-0x1374aa01],cl
  40152d:	sub    esp,0x3c
  401530:	push   eax
  401531:	mov    edi,0x0
  401536:	push   edi
  401537:	mov    eax,ds:0x404024
  40153c:	call   eax
  40153e:	pop    eax
  40153f:	push   eax
  401540:	push   edi
  401541:	push   DWORD PTR [eax+0x2bc]
  401547:	push   DWORD PTR [eax+0x270]
  40154d:	call   0x402124
  401552:	add    esp,0xc
  401555:	pop    eax
  401556:	push   eax
  401557:	push   0x0
  401559:	mov    eax,ds:0x40401c
  40155e:	call   eax
  401560:	pop    eax
  401561:	sub    esp,0xffffffc4
  401564:	mov    ebp,DWORD PTR [esp]
  401567:	add    esp,0x4
  40156a:	ret    
  40156b:	add    BYTE PTR [ebx-0x1374aa01],cl
  401571:	sub    esp,0x60
  401574:	push   eax
  401575:	mov    ebx,0x0
  40157a:	push   ebx
  40157b:	mov    eax,ds:0x40401c
  401580:	call   eax
  401582:	pop    eax
  401583:	push   eax
  401584:	push   DWORD PTR [eax+0x13c]
  40158a:	push   DWORD PTR [eax+0x370]
  401590:	call   0x401290
  401595:	add    esp,0x8
  401598:	pop    eax
  401599:	push   eax
  40159a:	push   0x0
  40159c:	mov    eax,ds:0x404020
  4015a1:	call   eax
  4015a3:	pop    eax
  4015a4:	sub    esp,0xffffffa0
  4015a7:	mov    ebp,DWORD PTR [esp]
  4015aa:	add    esp,0x4
  4015ad:	ret    
	...
  4016ee:	add    BYTE PTR [eax],al
  4016f0:	mov    edi,edi
  4016f2:	push   ebp
  4016f3:	mov    ebp,esp
  4016f5:	sub    esp,0x24
  4016f8:	push   eax
  4016f9:	mov    eax,ds:0x404010
  4016fe:	call   eax
  401700:	pop    eax
  401701:	push   eax
  401702:	push   DWORD PTR [eax]
  401704:	push   ebx
  401705:	push   ecx
  401706:	push   DWORD PTR [eax+0xb8]
  40170c:	call   0x4012d0
  401711:	add    esp,0x10
  401714:	pop    eax
  401715:	push   eax
  401716:	mov    ecx,0x0
  40171b:	push   ecx
  40171c:	mov    eax,ds:0x404000
  401721:	call   eax
  401723:	pop    eax
  401724:	sub    esp,0xffffffdc
  401727:	mov    ebp,DWORD PTR [esp]
  40172a:	add    esp,0x4
  40172d:	ret    
  40172e:	add    BYTE PTR [eax],al
  401730:	mov    edi,edi
  401732:	push   ebp
  401733:	mov    ebp,esp
  401735:	sub    esp,0x30
  401738:	push   eax
  401739:	mov    eax,0x0
  40173e:	push   eax
  40173f:	mov    eax,ds:0x404058
  401744:	call   eax
  401746:	pop    eax
  401747:	push   eax
  401748:	push   DWORD PTR [eax+0x28c]
  40174e:	push   edi
  40174f:	push   esi
  401750:	call   0x401c74
  401755:	add    esp,0xc
  401758:	pop    eax
  401759:	push   eax
  40175a:	push   0x0
  40175c:	mov    eax,ds:0x404074
  401761:	call   eax
  401763:	pop    eax
  401764:	sub    esp,0xffffffd0
  401767:	mov    ebp,DWORD PTR [esp]
  40176a:	add    esp,0x4
  40176d:	ret    
  40176e:	add    BYTE PTR [eax],al
  401770:	mov    edi,edi
  401772:	push   ebp
  401773:	mov    ebp,esp
  401775:	sub    esp,0x48
  401778:	push   eax
  401779:	push   0x0
  40177b:	mov    eax,ds:0x40402c
  401780:	call   eax
  401782:	pop    eax
  401783:	push   eax
  401784:	push   ecx
  401785:	push   edx
  401786:	push   ecx
  401787:	push   edx
  401788:	call   0x4028a8
  40178d:	add    esp,0x10
  401790:	pop    eax
  401791:	push   eax
  401792:	push   0x0
  401794:	mov    eax,ds:0x404030
  401799:	call   eax
  40179b:	pop    eax
  40179c:	sub    esp,0xffffffb8
  40179f:	mov    ebp,DWORD PTR [esp]
  4017a2:	add    esp,0x4
  4017a5:	ret    
	...
  4017f6:	add    BYTE PTR [eax],al
  4017f8:	mov    edi,edi
  4017fa:	push   ebp
  4017fb:	mov    ebp,esp
  4017fd:	sub    esp,0x5c
  401800:	push   eax
  401801:	push   DWORD PTR [eax+0x198]
  401807:	push   DWORD PTR [eax+0x2a8]
  40180d:	call   0x4025c4
  401812:	add    esp,0x8
  401815:	pop    eax
  401816:	push   eax
  401817:	mov    eax,0x0
  40181c:	push   eax
  40181d:	mov    eax,ds:0x404040
  401822:	call   eax
  401824:	pop    eax
  401825:	push   eax
  401826:	push   0x0
  401828:	mov    eax,ds:0x404044
  40182d:	call   eax
  40182f:	pop    eax
  401830:	sub    esp,0xffffffa4
  401833:	mov    ebp,DWORD PTR [esp]
  401836:	add    esp,0x4
  401839:	ret    
	...
  40188a:	add    BYTE PTR [eax],al
  40188c:	pusha  
  40188d:	xor    edx,edx
  40188f:	push   edx
  401890:	call   DWORD PTR ds:0x404058
  401896:	mov    eax,0x40409c
  40189b:	sub    eax,0x1
  40189e:	push   0x0
  4018a0:	call   DWORD PTR [eax+0x1]
  4018a3:	xor    edx,edx
  4018a5:	add    edx,0x45e200
  4018ab:	dec    dh
  4018ad:	push   edx
  4018ae:	lea    eax,[edx+0x10]
  4018b1:	add    BYTE PTR [eax],0x4
  4018b4:	push   edx
  4018b5:	call   DWORD PTR ds:0x404034
  4018bb:	mov    ecx,eax
  4018bd:	mov    cl,0x3c
  4018bf:	mov    ecx,DWORD PTR [ecx]
  4018c1:	mov    ecx,DWORD PTR [eax+ecx*1+0x1c]
  4018c5:	ror    ecx,0xc
  4018c8:	mov    eax,ecx
  4018ca:	sub    al,0x10
  4018cc:	pop    eax
  4018cd:	jb     0x4011ac
  4018d3:	ja     0x4010d0
  4018d9:	ret    
  4018da:	add    BYTE PTR [eax],al
  4018dc:	mov    edi,edi
  4018de:	push   ebp
  4018df:	mov    ebp,esp
  4018e1:	sub    esp,0x24
  4018e4:	push   eax
  4018e5:	push   0x0
  4018e7:	mov    eax,ds:0x404058
  4018ec:	call   eax
  4018ee:	pop    eax
  4018ef:	push   eax
  4018f0:	push   edi
  4018f1:	push   DWORD PTR [eax+0x12c]
  4018f7:	call   0x401528
  4018fc:	add    esp,0x8
  4018ff:	pop    eax
  401900:	push   eax
  401901:	lea    eax,[eax-0x100]
  401907:	push   eax
  401908:	mov    eax,ds:0x404028
  40190d:	call   eax
  40190f:	test   eax,eax
  401911:	jne    0x401901
  401913:	pop    eax
  401914:	sub    esp,0xffffffdc
  401917:	mov    ebp,DWORD PTR [esp]
  40191a:	add    esp,0x4
  40191d:	ret    
	...
  40196e:	add    BYTE PTR [eax],al
  401970:	mov    edi,edi
  401972:	push   ebp
  401973:	mov    ebp,esp
  401975:	sub    esp,0x4c
  401978:	push   eax
  401979:	push   0x0
  40197b:	mov    eax,ds:0x40401c
  401980:	call   eax
  401982:	pop    eax
  401983:	push   eax
  401984:	push   esi
  401985:	push   ebx
  401986:	push   DWORD PTR [eax+0xd4]
  40198c:	call   0x401cb4
  401991:	add    esp,0xc
  401994:	pop    eax
  401995:	push   eax
  401996:	mov    ecx,0x0
  40199b:	push   ecx
  40199c:	mov    eax,ds:0x404000
  4019a1:	call   eax
  4019a3:	pop    eax
  4019a4:	sub    esp,0xffffffb4
  4019a7:	mov    ebp,DWORD PTR [esp]
  4019aa:	add    esp,0x4
  4019ad:	ret    
	...
  401a4e:	add    BYTE PTR [eax],al
  401a50:	mov    edi,edi
  401a52:	push   ebp
  401a53:	mov    ebp,esp
  401a55:	sub    esp,0x50
  401a58:	push   eax
  401a59:	push   DWORD PTR [eax+0x3b8]
  401a5f:	push   DWORD PTR [eax+0x1b0]
  401a65:	push   ebx
  401a66:	call   0x401120
  401a6b:	add    esp,0xc
  401a6e:	pop    eax
  401a6f:	push   eax
  401a70:	mov    edx,0x0
  401a75:	push   edx
  401a76:	mov    eax,ds:0x40401c
  401a7b:	call   eax
  401a7d:	pop    eax
  401a7e:	push   eax
  401a7f:	mov    eax,ds:0x404010
  401a84:	call   eax
  401a86:	pop    eax
  401a87:	sub    esp,0xffffffb0
  401a8a:	mov    ebp,DWORD PTR [esp]
  401a8d:	add    esp,0x4
  401a90:	ret    
	...
  401ae1:	add    BYTE PTR [eax],al
  401ae3:	add    BYTE PTR [ebx-0x1374aa01],cl
  401ae9:	sub    esp,0x3c
  401aec:	push   eax
  401aed:	push   ecx
  401aee:	push   ecx
  401aef:	call   0x4017f8
  401af4:	add    esp,0x8
  401af7:	pop    eax
  401af8:	push   eax
  401af9:	mov    eax,ds:0x404018
  401afe:	call   eax
  401b00:	pop    eax
  401b01:	push   eax
  401b02:	mov    esi,0x0
  401b07:	push   esi
  401b08:	mov    eax,ds:0x404074
  401b0d:	call   eax
  401b0f:	pop    eax
  401b10:	sub    esp,0xffffffc4
  401b13:	mov    ebp,DWORD PTR [esp]
  401b16:	add    esp,0x4
  401b19:	ret    
  401b1a:	add    BYTE PTR [eax],al
  401b1c:	mov    edi,edi
  401b1e:	push   ebp
  401b1f:	mov    ebp,esp
  401b21:	sub    esp,0x34
  401b24:	push   eax
  401b25:	push   0x0
  401b27:	mov    eax,ds:0x404000
  401b2c:	call   eax
  401b2e:	pop    eax
  401b2f:	push   eax
  401b30:	push   ecx
  401b31:	push   esi
  401b32:	push   esi
  401b33:	push   esi
  401b34:	call   0x402160
  401b39:	add    esp,0x10
  401b3c:	pop    eax
  401b3d:	push   eax
  401b3e:	mov    ebx,0x0
  401b43:	push   ebx
  401b44:	mov    eax,ds:0x40402c
  401b49:	call   eax
  401b4b:	pop    eax
  401b4c:	sub    esp,0xffffffcc
  401b4f:	mov    ebp,DWORD PTR [esp]
  401b52:	add    esp,0x4
  401b55:	ret    
	...
  401bf6:	add    BYTE PTR [eax],al
  401bf8:	mov    edi,edi
  401bfa:	push   ebp
  401bfb:	mov    ebp,esp
  401bfd:	sub    esp,0x20
  401c00:	push   eax
  401c01:	mov    esi,0x0
  401c06:	push   esi
  401c07:	mov    eax,ds:0x404000
  401c0c:	call   eax
  401c0e:	pop    eax
  401c0f:	push   eax
  401c10:	push   ecx
  401c11:	push   DWORD PTR [eax+0xc8]
  401c17:	call   0x402828
  401c1c:	add    esp,0x8
  401c1f:	pop    eax
  401c20:	push   eax
  401c21:	push   0x0
  401c23:	mov    eax,ds:0x404020
  401c28:	call   eax
  401c2a:	pop    eax
  401c2b:	sub    esp,0xffffffe0
  401c2e:	mov    ebp,DWORD PTR [esp]
  401c31:	add    esp,0x4
  401c34:	ret    
  401c35:	add    BYTE PTR [eax],al
  401c37:	add    BYTE PTR [ebx-0x1374aa01],cl
  401c3d:	sub    esp,0x3c
  401c40:	push   eax
  401c41:	push   0x0
  401c43:	mov    eax,ds:0x404024
  401c48:	call   eax
  401c4a:	pop    eax
  401c4b:	push   eax
  401c4c:	push   edx
  401c4d:	push   edx
  401c4e:	push   ebx
  401c4f:	push   edx
  401c50:	call   0x40201c
  401c55:	add    esp,0x10
  401c58:	pop    eax
  401c59:	push   eax
  401c5a:	mov    ecx,0x0
  401c5f:	push   ecx
  401c60:	mov    eax,ds:0x40402c
  401c65:	call   eax
  401c67:	pop    eax
  401c68:	sub    esp,0xffffffc4
  401c6b:	mov    ebp,DWORD PTR [esp]
  401c6e:	add    esp,0x4
  401c71:	ret    
  401c72:	add    BYTE PTR [eax],al
  401c74:	mov    edi,edi
  401c76:	push   ebp
  401c77:	mov    ebp,esp
  401c79:	sub    esp,0x38
  401c7c:	push   eax
  401c7d:	mov    esi,0x0
  401c82:	push   esi
  401c83:	mov    eax,ds:0x404020
  401c88:	call   eax
  401c8a:	pop    eax
  401c8b:	push   eax
  401c8c:	push   DWORD PTR [eax+0x38]
  401c8f:	push   ecx
  401c90:	push   edx
  401c91:	push   edi
  401c92:	call   0x4020a0
  401c97:	add    esp,0x10
  401c9a:	pop    eax
  401c9b:	push   eax
  401c9c:	mov    esi,0x0
  401ca1:	push   esi
  401ca2:	mov    eax,ds:0x40401c
  401ca7:	call   eax
  401ca9:	pop    eax
  401caa:	sub    esp,0xffffffc8
  401cad:	mov    ebp,DWORD PTR [esp]
  401cb0:	add    esp,0x4
  401cb3:	ret    
  401cb4:	mov    edi,edi
  401cb6:	push   ebp
  401cb7:	mov    ebp,esp
  401cb9:	sub    esp,0x3c
  401cbc:	push   eax
  401cbd:	push   ebx
  401cbe:	push   edx
  401cbf:	call   0x401090
  401cc4:	add    esp,0x8
  401cc7:	pop    eax
  401cc8:	push   eax
  401cc9:	push   0x0
  401ccb:	mov    eax,ds:0x404074
  401cd0:	call   eax
  401cd2:	pop    eax
  401cd3:	push   eax
  401cd4:	mov    edx,0x0
  401cd9:	push   edx
  401cda:	mov    eax,ds:0x404044
  401cdf:	call   eax
  401ce1:	pop    eax
  401ce2:	sub    esp,0xffffffc4
  401ce5:	mov    ebp,DWORD PTR [esp]
  401ce8:	add    esp,0x4
  401ceb:	ret    
	...
  401d3c:	mov    edi,edi
  401d3e:	push   ebp
  401d3f:	mov    ebp,esp
  401d41:	sub    esp,0x58
  401d44:	push   eax
  401d45:	push   DWORD PTR [eax+0x314]
  401d4b:	push   edi
  401d4c:	push   ebx
  401d4d:	call   0x4018dc
  401d52:	add    esp,0xc
  401d55:	pop    eax
  401d56:	push   eax
  401d57:	push   0x0
  401d59:	mov    eax,ds:0x404020
  401d5e:	call   eax
  401d60:	pop    eax
  401d61:	push   eax
  401d62:	lea    ecx,[eax-0x100]
  401d68:	push   ecx
  401d69:	mov    eax,ds:0x404028
  401d6e:	call   eax
  401d70:	test   eax,eax
  401d72:	jne    0x401d62
  401d74:	pop    eax
  401d75:	sub    esp,0xffffffa8
  401d78:	mov    ebp,DWORD PTR [esp]
  401d7b:	add    esp,0x4
  401d7e:	ret    
	...
  401e1f:	add    BYTE PTR [ebx-0x1374aa01],cl
  401e25:	sub    esp,0x5c
  401e28:	push   eax
  401e29:	mov    ecx,0x0
  401e2e:	push   ecx
  401e2f:	mov    eax,ds:0x404044
  401e34:	call   eax
  401e36:	pop    eax
  401e37:	push   eax
  401e38:	push   DWORD PTR [eax+0x25c]
  401e3e:	push   edx
  401e3f:	call   0x401b1c
  401e44:	add    esp,0x8
  401e47:	pop    eax
  401e48:	push   eax
  401e49:	mov    eax,ds:0x404018
  401e4e:	call   eax
  401e50:	pop    eax
  401e51:	sub    esp,0xffffffa4
  401e54:	mov    ebp,DWORD PTR [esp]
  401e57:	add    esp,0x4
  401e5a:	ret    
	...
  401eab:	add    BYTE PTR [ebx-0x1374aa01],cl
  401eb1:	sub    esp,0x44
  401eb4:	push   eax
  401eb5:	push   DWORD PTR [eax+0x174]
  401ebb:	push   DWORD PTR [eax+0x134]
  401ec1:	push   DWORD PTR [eax+0x2d8]
  401ec7:	push   esi
  401ec8:	call   0x401c38
  401ecd:	add    esp,0x10
  401ed0:	pop    eax
  401ed1:	push   eax
  401ed2:	mov    ebx,0x0
  401ed7:	push   ebx
  401ed8:	mov    eax,ds:0x40402c
  401edd:	call   eax
  401edf:	pop    eax
  401ee0:	push   eax
  401ee1:	mov    eax,0x0
  401ee6:	push   eax
  401ee7:	mov    eax,ds:0x404070
  401eec:	call   eax
  401eee:	pop    eax
  401eef:	sub    esp,0xffffffbc
  401ef2:	mov    ebp,DWORD PTR [esp]
  401ef5:	add    esp,0x4
  401ef8:	ret    
  401ef9:	add    BYTE PTR [eax],al
  401efb:	add    BYTE PTR [ebx-0x1374aa01],cl
  401f01:	sub    esp,0x24
  401f04:	push   eax
  401f05:	mov    eax,0x0
  401f0a:	push   eax
  401f0b:	mov    eax,ds:0x404000
  401f10:	call   eax
  401f12:	pop    eax
  401f13:	push   eax
  401f14:	push   DWORD PTR [eax+0x218]
  401f1a:	push   DWORD PTR [eax+0x2c8]
  401f20:	push   DWORD PTR [eax+0x258]
  401f26:	call   0x4027ec
  401f2b:	add    esp,0xc
  401f2e:	pop    eax
  401f2f:	push   eax
  401f30:	mov    eax,0x0
  401f35:	push   eax
  401f36:	mov    eax,ds:0x404030
  401f3b:	call   eax
  401f3d:	pop    eax
  401f3e:	sub    esp,0xffffffdc
  401f41:	mov    ebp,DWORD PTR [esp]
  401f44:	add    esp,0x4
  401f47:	ret    
  401f48:	mov    edi,edi
  401f4a:	push   ebp
  401f4b:	mov    ebp,esp
  401f4d:	sub    esp,0x2c
  401f50:	push   eax
  401f51:	push   0x0
  401f53:	mov    eax,ds:0x404044
  401f58:	call   eax
  401f5a:	pop    eax
  401f5b:	push   eax
  401f5c:	push   DWORD PTR [eax+0x17c]
  401f62:	push   ebx
  401f63:	call   0x401efc
  401f68:	add    esp,0x8
  401f6b:	pop    eax
  401f6c:	push   eax
  401f6d:	push   0x0
  401f6f:	mov    eax,ds:0x40401c
  401f74:	call   eax
  401f76:	pop    eax
  401f77:	sub    esp,0xffffffd4
  401f7a:	mov    ebp,DWORD PTR [esp]
  401f7d:	add    esp,0x4
  401f80:	ret    
  401f81:	add    BYTE PTR [eax],al
  401f83:	add    BYTE PTR [ebx-0x1374aa01],cl
  401f89:	sub    esp,0x24
  401f8c:	push   eax
  401f8d:	push   esi
  401f8e:	push   DWORD PTR [eax+0x4c]
  401f91:	push   DWORD PTR [eax+0xc0]
  401f97:	push   edi
  401f98:	call   0x401f48
  401f9d:	add    esp,0x10
  401fa0:	pop    eax
  401fa1:	push   eax
  401fa2:	push   0x0
  401fa4:	mov    eax,ds:0x404030
  401fa9:	call   eax
  401fab:	pop    eax
  401fac:	push   eax
  401fad:	lea    edi,[eax-0x100]
  401fb3:	push   edi
  401fb4:	mov    eax,ds:0x404028
  401fb9:	call   eax
  401fbb:	test   eax,eax
  401fbd:	jne    0x401fad
  401fbf:	pop    eax
  401fc0:	sub    esp,0xffffffdc
  401fc3:	mov    ebp,DWORD PTR [esp]
  401fc6:	add    esp,0x4
  401fc9:	ret    
	...
  40201a:	add    BYTE PTR [eax],al
  40201c:	mov    edi,edi
  40201e:	push   ebp
  40201f:	mov    ebp,esp
  402021:	sub    esp,0x50
  402024:	push   eax
  402025:	push   DWORD PTR [eax+0x104]
  40202b:	push   edi
  40202c:	push   DWORD PTR [eax+0xd0]
  402032:	call   0x401ae4
  402037:	add    esp,0xc
  40203a:	pop    eax
  40203b:	push   eax
  40203c:	mov    ecx,0x0
  402041:	push   ecx
  402042:	mov    eax,ds:0x404070
  402047:	call   eax
  402049:	pop    eax
  40204a:	push   eax
  40204b:	mov    ebx,0x0
  402050:	push   ebx
  402051:	mov    eax,ds:0x404058
  402056:	call   eax
  402058:	pop    eax
  402059:	sub    esp,0xffffffb0
  40205c:	mov    ebp,DWORD PTR [esp]
  40205f:	add    esp,0x4
  402062:	ret    
  402063:	add    BYTE PTR [ebx-0x1374aa01],cl
  402069:	sub    esp,0x60
  40206c:	push   eax
  40206d:	mov    eax,ds:0x404014
  402072:	call   eax
  402074:	pop    eax
  402075:	push   eax
  402076:	push   ebx
  402077:	push   DWORD PTR [eax+0x270]
  40207d:	call   0x40143c
  402082:	add    esp,0x8
  402085:	pop    eax
  402086:	push   eax
  402087:	mov    ecx,0x0
  40208c:	push   ecx
  40208d:	mov    eax,ds:0x404070
  402092:	call   eax
  402094:	pop    eax
  402095:	sub    esp,0xffffffa0
  402098:	mov    ebp,DWORD PTR [esp]
  40209b:	add    esp,0x4
  40209e:	ret    
  40209f:	add    BYTE PTR [ebx-0x1374aa01],cl
  4020a5:	sub    esp,0x20
  4020a8:	push   eax
  4020a9:	mov    ebx,0x0
  4020ae:	push   ebx
  4020af:	mov    eax,ds:0x404030
  4020b4:	call   eax
  4020b6:	pop    eax
  4020b7:	push   eax
  4020b8:	push   edx
  4020b9:	push   DWORD PTR [eax+0x144]
  4020bf:	push   DWORD PTR [eax+0x2a0]
  4020c5:	call   0x402450
  4020ca:	add    esp,0xc
  4020cd:	pop    eax
  4020ce:	push   eax
  4020cf:	push   0x0
  4020d1:	mov    eax,ds:0x404000
  4020d6:	call   eax
  4020d8:	pop    eax
  4020d9:	sub    esp,0xffffffe0
  4020dc:	mov    ebp,DWORD PTR [esp]
  4020df:	add    esp,0x4
  4020e2:	ret    
  4020e3:	add    BYTE PTR [ebx-0x1374aa01],cl
  4020e9:	sub    esp,0x34
  4020ec:	push   eax
  4020ed:	push   edi
  4020ee:	push   edi
  4020ef:	push   ebx
  4020f0:	call   0x4013a8
  4020f5:	add    esp,0xc
  4020f8:	pop    eax
  4020f9:	push   eax
  4020fa:	mov    ebx,0x0
  4020ff:	push   ebx
  402100:	mov    eax,ds:0x404020
  402105:	call   eax
  402107:	pop    eax
  402108:	push   eax
  402109:	mov    ecx,0x0
  40210e:	push   ecx
  40210f:	mov    eax,ds:0x404074
  402114:	call   eax
  402116:	pop    eax
  402117:	sub    esp,0xffffffcc
  40211a:	mov    ebp,DWORD PTR [esp]
  40211d:	add    esp,0x4
  402120:	ret    
  402121:	add    BYTE PTR [eax],al
  402123:	add    BYTE PTR [ebx-0x1374aa01],cl
  402129:	sub    esp,0x50
  40212c:	push   eax
  40212d:	mov    ebx,0x0
  402132:	push   ebx
  402133:	mov    eax,ds:0x404030
  402138:	call   eax
  40213a:	pop    eax
  40213b:	push   eax
  40213c:	push   ecx
  40213d:	push   DWORD PTR [eax+0x74]
  402140:	push   ebx
  402141:	call   0x402588
  402146:	add    esp,0xc
  402149:	pop    eax
  40214a:	push   eax
  40214b:	mov    eax,ds:0x404014
  402150:	call   eax
  402152:	pop    eax
  402153:	sub    esp,0xffffffb0
  402156:	mov    ebp,DWORD PTR [esp]
  402159:	add    esp,0x4
  40215c:	ret    
  40215d:	add    BYTE PTR [eax],al
  40215f:	add    BYTE PTR [ebx-0x1374aa01],cl
  402165:	sub    esp,0x60
  402168:	push   eax
  402169:	push   0x0
  40216b:	mov    eax,ds:0x404000
  402170:	call   eax
  402172:	pop    eax
  402173:	push   eax
  402174:	push   edx
  402175:	push   DWORD PTR [eax+0x12c]
  40217b:	push   DWORD PTR [eax+0x130]
  402181:	push   edi
  402182:	call   0x401eac
  402187:	add    esp,0x10
  40218a:	pop    eax
  40218b:	push   eax
  40218c:	mov    ebx,0x0
  402191:	push   ebx
  402192:	mov    eax,ds:0x404058
  402197:	call   eax
  402199:	pop    eax
  40219a:	sub    esp,0xffffffa0
  40219d:	mov    ebp,DWORD PTR [esp]
  4021a0:	add    esp,0x4
  4021a3:	ret    
  4021a4:	mov    edi,edi
  4021a6:	push   ebp
  4021a7:	mov    ebp,esp
  4021a9:	sub    esp,0x38
  4021ac:	push   eax
  4021ad:	push   DWORD PTR [eax+0x194]
  4021b3:	push   DWORD PTR [eax+0xac]
  4021b9:	push   edx
  4021ba:	push   edi
  4021bb:	call   0x401250
  4021c0:	add    esp,0x10
  4021c3:	pop    eax
  4021c4:	push   eax
  4021c5:	mov    eax,ds:0x404018
  4021ca:	call   eax
  4021cc:	pop    eax
  4021cd:	push   eax
  4021ce:	push   0x0
  4021d0:	mov    eax,ds:0x404074
  4021d5:	call   eax
  4021d7:	pop    eax
  4021d8:	sub    esp,0xffffffc8
  4021db:	mov    ebp,DWORD PTR [esp]
  4021de:	add    esp,0x4
  4021e1:	ret    
	...
  402322:	add    BYTE PTR [eax],al
  402324:	mov    edi,edi
  402326:	push   ebp
  402327:	mov    ebp,esp
  402329:	sub    esp,0x1c
  40232c:	push   eax
  40232d:	mov    ebx,0x0
  402332:	push   ebx
  402333:	mov    eax,ds:0x404058
  402338:	call   eax
  40233a:	pop    eax
  40233b:	push   eax
  40233c:	push   DWORD PTR [eax+0x144]
  402342:	push   DWORD PTR [eax+0x39c]
  402348:	push   edi
  402349:	push   edx
  40234a:	call   0x402064
  40234f:	add    esp,0x10
  402352:	pop    eax
  402353:	push   eax
  402354:	mov    edi,0x0
  402359:	push   edi
  40235a:	mov    eax,ds:0x404024
  40235f:	call   eax
  402361:	pop    eax
  402362:	sub    esp,0xffffffe4
  402365:	mov    ebp,DWORD PTR [esp]
  402368:	add    esp,0x4
  40236b:	ret    
	...
  4023bc:	mov    edi,edi
  4023be:	push   ebp
  4023bf:	mov    ebp,esp
  4023c1:	sub    esp,0x44
  4023c4:	push   eax
  4023c5:	push   ebx
  4023c6:	push   edx
  4023c7:	push   ecx
  4023c8:	push   DWORD PTR [eax+0x130]
  4023ce:	call   0x401000
  4023d3:	add    esp,0x10
  4023d6:	pop    eax
  4023d7:	push   eax
  4023d8:	mov    edx,0x0
  4023dd:	push   edx
  4023de:	mov    eax,ds:0x404030
  4023e3:	call   eax
  4023e5:	pop    eax
  4023e6:	push   eax
  4023e7:	mov    edx,0x0
  4023ec:	push   edx
  4023ed:	mov    eax,ds:0x404024
  4023f2:	call   eax
  4023f4:	pop    eax
  4023f5:	sub    esp,0xffffffbc
  4023f8:	mov    ebp,DWORD PTR [esp]
  4023fb:	add    esp,0x4
  4023fe:	ret    
	...
  40244f:	add    BYTE PTR [ebx-0x1374aa01],cl
  402455:	sub    esp,0x44
  402458:	push   eax
  402459:	push   0x0
  40245b:	mov    eax,ds:0x404040
  402460:	call   eax
  402462:	pop    eax
  402463:	push   eax
  402464:	push   DWORD PTR [eax+0x318]
  40246a:	push   DWORD PTR [eax+0x204]
  402470:	push   esi
  402471:	call   0x401770
  402476:	add    esp,0xc
  402479:	pop    eax
  40247a:	push   eax
  40247b:	lea    eax,[eax-0x100]
  402481:	push   eax
  402482:	mov    eax,ds:0x404028
  402487:	call   eax
  402489:	test   eax,eax
  40248b:	jne    0x40247b
  40248d:	pop    eax
  40248e:	sub    esp,0xffffffbc
  402491:	mov    ebp,DWORD PTR [esp]
  402494:	add    esp,0x4
  402497:	ret    
	...
  402588:	mov    edi,edi
  40258a:	push   ebp
  40258b:	mov    ebp,esp
  40258d:	sub    esp,0x60
  402590:	push   eax
  402591:	push   0x0
  402593:	mov    eax,ds:0x404020
  402598:	call   eax
  40259a:	pop    eax
  40259b:	push   eax
  40259c:	push   DWORD PTR [eax+0x68]
  40259f:	push   esi
  4025a0:	push   DWORD PTR [eax+0x238]
  4025a6:	call   0x4028e8
  4025ab:	add    esp,0xc
  4025ae:	pop    eax
  4025af:	push   eax
  4025b0:	push   0x0
  4025b2:	mov    eax,ds:0x404058
  4025b7:	call   eax
  4025b9:	pop    eax
  4025ba:	sub    esp,0xffffffa0
  4025bd:	mov    ebp,DWORD PTR [esp]
  4025c0:	add    esp,0x4
  4025c3:	ret    
  4025c4:	mov    edi,edi
  4025c6:	push   ebp
  4025c7:	mov    ebp,esp
  4025c9:	sub    esp,0x1c
  4025cc:	push   eax
  4025cd:	mov    ecx,0x0
  4025d2:	push   ecx
  4025d3:	mov    eax,ds:0x40401c
  4025d8:	call   eax
  4025da:	pop    eax
  4025db:	push   eax
  4025dc:	push   DWORD PTR [eax+0x258]
  4025e2:	push   DWORD PTR [eax+0x280]
  4025e8:	call   0x4020e4
  4025ed:	add    esp,0x8
  4025f0:	pop    eax
  4025f1:	push   eax
  4025f2:	mov    eax,0x0
  4025f7:	push   eax
  4025f8:	mov    eax,ds:0x404074
  4025fd:	call   eax
  4025ff:	pop    eax
  402600:	sub    esp,0xffffffe4
  402603:	mov    ebp,DWORD PTR [esp]
  402606:	add    esp,0x4
  402609:	ret    
	...
  4027ea:	add    BYTE PTR [eax],al
  4027ec:	mov    edi,edi
  4027ee:	push   ebp
  4027ef:	mov    ebp,esp
  4027f1:	sub    esp,0x24
  4027f4:	push   eax
  4027f5:	push   ecx
  4027f6:	push   DWORD PTR [eax+0x28c]
  4027fc:	call   0x4021a4
  402801:	add    esp,0x8
  402804:	pop    eax
  402805:	push   eax
  402806:	mov    ebx,0x0
  40280b:	push   ebx
  40280c:	mov    eax,ds:0x404058
  402811:	call   eax
  402813:	pop    eax
  402814:	push   eax
  402815:	mov    eax,ds:0x404018
  40281a:	call   eax
  40281c:	pop    eax
  40281d:	sub    esp,0xffffffdc
  402820:	mov    ebp,DWORD PTR [esp]
  402823:	add    esp,0x4
  402826:	ret    
  402827:	add    BYTE PTR [ebx-0x1374aa01],cl
  40282d:	sub    esp,0x28
  402830:	push   eax
  402831:	push   DWORD PTR [eax+0xd8]
  402837:	push   DWORD PTR [eax+0xb0]
  40283d:	push   edx
  40283e:	push   ecx
  40283f:	call   0x401f84
  402844:	add    esp,0x10
  402847:	pop    eax
  402848:	push   eax
  402849:	mov    eax,0x0
  40284e:	push   eax
  40284f:	mov    eax,ds:0x404058
  402854:	call   eax
  402856:	pop    eax
  402857:	push   eax
  402858:	mov    edi,0x0
  40285d:	push   edi
  40285e:	mov    eax,ds:0x404044
  402863:	call   eax
  402865:	pop    eax
  402866:	sub    esp,0xffffffd8
  402869:	mov    ebp,DWORD PTR [esp]
  40286c:	add    esp,0x4
  40286f:	ret    
  402870:	mov    edi,edi
  402872:	push   ebp
  402873:	mov    ebp,esp
  402875:	sub    esp,0x20
  402878:	push   eax
  402879:	mov    eax,ds:0x404018
  40287e:	call   eax
  402880:	pop    eax
  402881:	push   eax
  402882:	push   ebx
  402883:	push   edi
  402884:	call   0x402324
  402889:	add    esp,0x8
  40288c:	pop    eax
  40288d:	push   eax
  40288e:	mov    edx,0x0
  402893:	push   edx
  402894:	mov    eax,ds:0x404040
  402899:	call   eax
  40289b:	pop    eax
  40289c:	sub    esp,0xffffffe0
  40289f:	mov    ebp,DWORD PTR [esp]
  4028a2:	add    esp,0x4
  4028a5:	ret    
  4028a6:	add    BYTE PTR [eax],al
  4028a8:	mov    edi,edi
  4028aa:	push   ebp
  4028ab:	mov    ebp,esp
  4028ad:	sub    esp,0x38
  4028b0:	push   eax
  4028b1:	push   0x0
  4028b3:	mov    eax,ds:0x404070
  4028b8:	call   eax
  4028ba:	pop    eax
  4028bb:	push   eax
  4028bc:	push   DWORD PTR [eax+0x338]
  4028c2:	push   edi
  4028c3:	push   esi
  4028c4:	push   esi
  4028c5:	call   0x4023bc
  4028ca:	add    esp,0x10
  4028cd:	pop    eax
  4028ce:	push   eax
  4028cf:	mov    eax,0x0
  4028d4:	push   eax
  4028d5:	mov    eax,ds:0x404074
  4028da:	call   eax
  4028dc:	pop    eax
  4028dd:	sub    esp,0xffffffc8
  4028e0:	mov    ebp,DWORD PTR [esp]
  4028e3:	add    esp,0x4
  4028e6:	ret    
  4028e7:	add    BYTE PTR [ebx-0x1374aa01],cl
  4028ed:	sub    esp,0x38
  4028f0:	push   eax
  4028f1:	push   edi
  4028f2:	push   DWORD PTR [eax+0x288]
  4028f8:	call   0x402870
  4028fd:	add    esp,0x8
  402900:	pop    eax
  402901:	push   eax
  402902:	mov    ecx,0x0
  402907:	push   ecx
  402908:	mov    eax,ds:0x40401c
  40290d:	call   eax
  40290f:	pop    eax
  402910:	push   eax
  402911:	mov    eax,ds:0x404014
  402916:	call   eax
  402918:	pop    eax
  402919:	sub    esp,0xffffffc8
  40291c:	mov    ebp,DWORD PTR [esp]
  40291f:	add    esp,0x4
  402922:	ret    
	...
  402973:	add    BYTE PTR [ebx-0x1374aa01],cl
  402979:	sub    esp,0x48
  40297c:	push   eax
  40297d:	lea    edx,[eax-0x100]
  402983:	push   edx
  402984:	mov    eax,ds:0x404028
  402989:	call   eax
  40298b:	test   eax,eax
  40298d:	jne    0x40297d
  40298f:	pop    eax
  402990:	push   eax
  402991:	push   DWORD PTR [eax+0x174]
  402997:	push   edi
  402998:	push   esi
  402999:	push   ecx
  40299a:	call   0x401730
  40299f:	add    esp,0x10
  4029a2:	pop    eax
  4029a3:	push   eax
  4029a4:	lea    edi,[eax-0x100]
  4029aa:	push   edi
  4029ab:	mov    eax,ds:0x404028
  4029b0:	call   eax
  4029b2:	test   eax,eax
  4029b4:	jne    0x4029a4
  4029b6:	pop    eax
  4029b7:	sub    esp,0xffffffb8
  4029ba:	mov    ebp,DWORD PTR [esp]
  4029bd:	add    esp,0x4
  4029c0:	ret    
  4029c1:	add    BYTE PTR [eax],al
  4029c3:	add    BYTE PTR [edi],ah
  4029c5:	mov    al,ds:0x8a261ade
  4029ca:	adc    DWORD PTR [ebp-0x50aca5d2],edi
  4029d0:	(bad)  
  4029d1:	mov    ah,0x7d
  4029d3:	imul   ebp,DWORD PTR [eax-0x20],0x4a
  4029d7:	lods   al,BYTE PTR ds:[esi]
  4029d8:	add    DWORD PTR [edx+eiz*2],ebx
  4029db:	retf   0xf145
  4029de:	js     0x4029fc
  4029e0:	outs   dx,BYTE PTR ds:[esi]
  4029e1:	imul   ebp,ebp,0xffffff93
  4029e4:	call   0xce1d8226
  4029e9:	fsub   QWORD PTR [edx+0x5e]
  4029ec:	outs   dx,DWORD PTR ds:[esi]
  4029ed:	mov    ch,0x51
  4029ef:	xor    BYTE PTR [eax],ah
  4029f1:	inc    esp
  4029f2:	leave  
  4029f3:	mov    DWORD PTR [ebx+ebp*2+0xb],ecx
  4029f7:	mov    ecx,ds
  4029f9:	and    cl,BYTE PTR [esi+0x2d]
  4029fc:	jbe    0x402983
  4029fe:	pop    ebx
  4029ff:	aad    0xfe
  402a01:	and    esi,eax
  402a03:	cmps   BYTE PTR ds:[esi],BYTE PTR es:[edi]
  402a04:	xor    ebx,esp
  402a06:	jbe    0x402a25
  402a08:	or     bh,BYTE PTR [ebx+0x67287ea3]
  402a0e:	movs   BYTE PTR es:[edi],BYTE PTR ds:[esi]
  402a0f:	push   edi
  402a10:	dec    ebp
  402a11:	mov    cs,WORD PTR [esi+0x26]
  402a14:	jbe    0x40299b
  402a16:	pop    ebx
  402a17:	push   esp
  402a18:	mov    bl,0x6b
  402a1a:	dec    ebp
  402a1b:	dec    esi
  402a1c:	sbb    dh,BYTE PTR [esi+0x16edfa69]
  402a22:	retf   0x2e2b
  402a25:	aad    0xd8
  402a27:	aam    0x42
  402a29:	push   eax
  402a2a:	lds    ebp,FWORD PTR [esi+0xcd65389]
  402a30:	mov    bh,BYTE PTR [ecx]
  402a32:	call   0x8d54:0x5bd50eaa
  402a39:	jp     0x402a0b
  402a3b:	add    BYTE PTR [esi-0x762ba389],bl
  402a41:	daa    
  402a42:	sub    ebx,esi
  402a44:	iret   
  402a45:	xchg   ebp,eax
  402a46:	pop    ebx
  402a47:	aam    0x89
  402a49:	xlat   BYTE PTR ds:[ebx]
  402a4a:	dec    esi
  402a4b:	fnstenv [ebp+eax*4+0x5b]
  402a4f:	pop    ebp
  402a50:	iret   
  402a51:	xchg   BYTE PTR [esi+ebx*8+0x1c],al
  402a55:	out    0x33,al
  402a57:	xchg   ebp,eax
  402a58:	in     eax,0x16
  402a5a:	xlat   BYTE PTR ds:[ebx]
  402a5b:	inc    ebx
  402a5c:	ds loopne 0x402a97
  402a5f:	movs   BYTE PTR es:[edi],BYTE PTR ds:[esi]
  402a60:	(bad)  [ecx]
  402a62:	cmps   DWORD PTR ds:[esi],DWORD PTR es:[edi]
  402a63:	jge    0x402ae3
  402a65:	or     al,0x5d
  402a67:	mov    esi,0x59e01289
  402a6c:	adc    esp,eax
  402a6e:	xor    ebx,DWORD PTR [esp+ebp*8+0x257fd61b]
  402a75:	jp     0x402a83
  402a77:	fadd   QWORD PTR [eax]
  402a79:	cmp    al,0xa2
  402a7b:	test   al,0xb2
  402a7d:	popf   
  402a7e:	xor    DWORD PTR [ecx+eiz*8+0x762bb67a],edx
  402a85:	in     eax,dx
  402a86:	call   edx
  402a88:	mov    DWORD PTR [edx-0x34],edi
  402a8b:	sub    ecx,DWORD PTR [ecx+0x715f4bd0]
  402a91:	jg     0x402a9a
  402a93:	sub    esi,DWORD PTR [esi-0x7b]
  402a96:	or     ebx,DWORD PTR [ecx+0x3c]
  402a99:	stos   BYTE PTR es:[edi],al
  402a9a:	pop    ebp
  402a9b:	aam    0x89
  402a9d:	cmp    al,0xff
  402a9f:	ror    BYTE PTR [ecx-0x4a70ac86],cl
  402aa5:	ins    DWORD PTR es:[edi],dx
  402aa6:	rcl    cl,1
  402aa8:	mov    DWORD PTR [edx-0x7],edi
  402aab:	jne    0x402a9e
  402aad:	mov    cl,0x7f
  402aaf:	and    BYTE PTR [ecx-0x7d],0xa2
  402ab3:	sub    esi,DWORD PTR [esi+0x6d]
  402ab6:	(bad)  
  402ab8:	mov    DWORD PTR [edx+0x2b],edi
  402abb:	rcr    DWORD PTR [eax*4+0xf76d431],cl
  402ac2:	ret    0x897c
  402ac5:	shl    BYTE PTR [ebx+0x5f],1
  402ac8:	les    edx,FWORD PTR [edx]
  402aca:	int3   
  402acb:	sub    esp,DWORD PTR [edx]
  402acd:	fstp   QWORD PTR [edx-0x1f]
  402ad0:	lods   eax,DWORD PTR ds:[esi]
  402ad1:	sub    dh,ch
  402ad3:	jge    0x402af6
  402ad5:	jp     0x402ae3
  402ad7:	clc    
  402ad8:	shr    DWORD PTR ds:0x6d6e7da7,1
  402ade:	jo     0x402ab7
  402ae0:	mov    DWORD PTR [edx+0x2b],edi
  402ae3:	ins    DWORD PTR es:[edi],dx
  402ae4:	dec    edx
  402ae5:	or     BYTE PTR [edi-0x2e],bl
  402ae8:	out    dx,eax
  402ae9:	(bad)  
  402aea:	out    0x3d,al
  402aec:	jbe    0x402a93
  402aee:	sub    al,0xc2
  402af0:	mov    al,0x22
  402af2:	xchg   edx,eax
  402af3:	pop    edi
  402af4:	addr16 push cs
  402af6:	add    esp,eax
  402af8:	jecxz  0x402b78
  402afa:	into   
  402afb:	sub    eax,DWORD PTR [esi-0x7b]
  402afe:	pop    ebx
  402aff:	sub    edi,ecx
  402b01:	sub    dh,bl
  402b03:	aam    0x23
  402b05:	xchg   ebp,eax
  402b06:	(bad)  
  402b07:	test   eax,0x41f22ae5
  402b0c:	jb     0x402ae0
  402b0e:	push   cs
  402b0f:	sub    ebx,esp
  402b11:	jbe    0x402b05
  402b13:	inc    ecx
  402b14:	je     0x402ae8
  402b16:	push   cs
  402b17:	add    BYTE PTR [edx],0xb5
  402b1a:	sub    edx,eax
  402b1c:	test   DWORD PTR [ecx],esp
  402b1e:	add    eax,0xfe76dc2b
  402b23:	mov    al,ds:0xe81086b8
  402b28:	add    al,0x3
  402b2a:	mov    esi,0x4aa521a0
  402b2f:	arpl   ax,cx
  402b31:	outs   dx,BYTE PTR ds:[esi]
  402b32:	mov    ds:0x103279d3,eax
  402b37:	shr    cl,cl
  402b39:	icebp  
  402b3a:	out    dx,eax
  402b3b:	aas    
  402b3c:	repz inc ebp
  402b3e:	das    
  402b3f:	xchg   ebp,eax
  402b40:	add    bh,BYTE PTR ds:0xf1b6aeae
  402b46:	popa   
  402b47:	cmp    al,0x18
  402b49:	jle    0x402af1
  402b4b:	sub    edi,ebp
  402b4d:	dec    ebp
  402b4e:	(bad)  
  402b4f:	xchg   ebx,eax
  402b50:	lods   eax,DWORD PTR ds:[esi]
  402b51:	xchg   edx,eax
  402b52:	shr    DWORD PTR [ecx],1
  402b54:	jbe    0x402adb
  402b56:	pop    esi
  402b57:	mov    ds:0x3bdf859d,eax
  402b5c:	std    
  402b5d:	cli    
  402b5e:	push   edi
  402b5f:	xlat   BYTE PTR ds:[ebx]
  402b60:	jb     0x402b83
  402b62:	mul    BYTE PTR [eax-0x7af4285e]
  402b68:	fisubr WORD PTR [ebx]
  402b6a:	hlt    
  402b6b:	inc    ecx
  402b6c:	jb     0x402b42
  402b6e:	add    ch,BYTE PTR [ebx]
  402b70:	fdiv   QWORD PTR [esi-0x3]
  402b73:	sbb    BYTE PTR [esi-0x2981512e],dh
  402b79:	icebp  
  402b7a:	imul   ebx,eax,0xffffffd2
  402b7d:	jp     0x402b8b
  402b7f:	fcom   st(1)
  402b81:	sbb    esp,DWORD PTR [ebx]
  402b83:	in     al,dx
  402b84:	pop    esi
  402b85:	addr16 call 0xa6bbadc7
  402b8b:	sub    ebx,DWORD PTR [esi-0x762ba4fc]
  402b91:	and    cl,dh
  402b93:	sub    esi,DWORD PTR [esi]
  402b95:	test   DWORD PTR [ebx+0x2b],ebx
  402b98:	cld    
  402b99:	adc    dh,al
  402b9b:	mov    al,ds:0x3cab0e8d
  402ba0:	cmp    DWORD PTR [esi-0x5a],0x2b
  402ba4:	adc    bh,BYTE PTR [edx+0x6c]
  402ba7:	in     al,0x89
  402ba9:	jp     0x402b51
  402bab:	jae    0x402baa
  402bad:	lds    edx,FWORD PTR [edi+0x5f]
  402bb0:	leave  
  402bb1:	jbe    0x402b50
  402bb3:	jae    0x402c23
  402bb5:	icebp  
  402bb6:	pop    edi
  402bb7:	pop    edi
  402bb8:	mov    DWORD PTR [ecx-0x5e855fa1],edx
  402bbe:	pop    esi
  402bbf:	popf   
  402bc0:	mov    ch,0xf1
  402bc2:	aad    0x3
  402bc4:	jne    0x402c38
  402bc6:	shr    BYTE PTR [ecx+edx*4+0x1037d6f3],1
  402bcd:	jb     0x402be7
  402bcf:	ret    0x5a89
  402bd2:	shl    DWORD PTR [edi],1
  402bd4:	adc    ah,BYTE PTR [ebx+eax*2]
  402bd7:	aam    0x89
  402bd9:	jp     0x402c06
  402bdb:	imul   eax,DWORD PTR [esi+0xc],0x23
  402bdf:	fdiv   QWORD PTR [esi+0x2f]
  402be2:	mov    dl,0xc3
  402be4:	add    BYTE PTR [edi-0x4c2b2ba5],al
  402bea:	(bad)  
  402beb:	mov    ds:0xb547a102,al
  402bf0:	fst    DWORD PTR [edx-0x7a89d067]
  402bf6:	add    edx,DWORD PTR [ebp-0xf]
  402bf9:	and    ah,BYTE PTR [esi+0x2c857629]
  402bff:	fild   DWORD PTR [edx]
  402c01:	jle    0x402b85
  402c03:	in     al,dx
  402c04:	jb     0x402ba7
  402c06:	pop    ebx
  402c07:	aam    0x89
  402c09:	jp     0x402bb2
  402c0b:	pop    esi
  402c0c:	push   edx
  402c0d:	or     DWORD PTR [ebx],0xc6b949e7
  402c13:	mov    al,ds:0xe82d8685
  402c18:	add    cl,ah
  402c1a:	sub    esi,DWORD PTR es:[esi-0x7b]
  402c1e:	fsub   QWORD PTR [edx]
  402c20:	std    
  402c21:	or     DWORD PTR [ebx+0x57fbfdd8],esp
  402c27:	push   ecx
  402c28:	jbe    0x402c38
  402c2a:	int3   
  402c2b:	sub    BYTE PTR [ebp-0x727da52e],cl
  402c31:	jmp    DWORD PTR [esi+0x5e]
  402c34:	jb     0x402c08
  402c36:	pop    edx
  402c37:	or     BYTE PTR [ecx+0xa0f02a],0x95
  402c3e:	pop    esi
  402c3f:	daa    
  402c40:	add    al,BYTE PTR [ecx+ecx*1-0x590f4952]
  402c47:	(bad)  
  402c48:	jle    0x402c3b
  402c4a:	push   0xfd52775
  402c4f:	mov    esi,0xd4ff2b8d
  402c54:	and    ecx,DWORD PTR [ecx-0x70a0f3]
  402c5a:	mov    bx,0xee6
  402c5e:	sbb    eax,0xa34e04c4
  402c63:	jl     0x402c40
  402c65:	add    BYTE PTR [ebx-0x592c6d60],bl
  402c6b:	sub    esi,DWORD PTR [esi+0x5]
  402c6e:	sub    al,0xd0
  402c70:	add    al,0x3e
  402c72:	mov    ds:0x5a7a5329,eax
  402c77:	aam    0x9
  402c79:	sub    ah,BYTE PTR [edi+0x5a91525e]
  402c7f:	add    BYTE PTR [ecx+0x29cb4bd1],0xdb
  402c86:	add    ecx,DWORD PTR [ebp+0x7cf52add]
  402c8c:	mov    eax,edx
  402c8e:	push   edi
  402c8f:	mov    WORD PTR [edx],cs
  402c91:	mov    esp,0xe4f9c0b2
  402c96:	sahf   
  402c97:	mov    ah,0x2
  402c99:	test   eax,0xf375d92b
  402c9e:	addr16 (bad) 
  402ca0:	fisttp WORD PTR [esi+0x21]
  402ca3:	stc    
  402ca4:	jns    0x402ca7
  402ca6:	int3   
  402ca7:	aam    0x89
  402ca9:	jp     0x402cd6
  402cab:	movs   DWORD PTR es:[edi],DWORD PTR ds:[esi]
  402cac:	rol    BYTE PTR [ebp-0x33fd2ba5],cl
  402cb2:	push   es
  402cb3:	sub    esi,DWORD PTR [esi-0x7b]
  402cb6:	fsub   QWORD PTR [edx]
  402cb8:	xchg   dh,bh
  402cba:	and    eax,0x5e85762b
  402cbf:	daa    
  402cc0:	and    al,0xf1
  402cc2:	pop    esi
  402cc3:	sub    BYTE PTR [ebp-0x26ef292b],cl
  402cc9:	sub    esi,esp
  402ccb:	jnp    0x402ce9
  402ccd:	xor    DWORD PTR [ebx],0xa67a99d4
  402cd3:	jl     0x402cca
  402cd5:	ins    DWORD PTR es:[edi],dx
  402cd6:	pop    edi
  402cd7:	test   bl,ah
  402cd9:	jle    0x402ca9
  402cdb:	sub    esp,DWORD PTR [esi-0x7b]
  402cde:	pop    ebx
  402cdf:	or     DWORD PTR [eax],0x7e
  402ce2:	sub    BYTE PTR [ebx],0x66
  402ce5:	test   DWORD PTR [ebx+0x2b],ebx
  402ce8:	fdiv   QWORD PTR [esi-0x59]
  402ceb:	jge    0x402d67
  402ced:	fild   WORD PTR [eax]
  402cef:	jns    0x402c93
  402cf1:	mov    dl,0xf5
  402cf3:	mov    al,ds:0x57b054be
  402cf8:	pusha  
  402cf9:	jle    0x402c8e
  402cfb:	jmp    0x402d0d
  402cfd:	sub    BYTE PTR ds:0xd24a897d,bh
  402d03:	and    edx,DWORD PTR [ebx+0x7a]
  402d06:	dec    edx
  402d07:	aam    0x89
  402d09:	jnp    0x402cbd
  402d0b:	sub    al,0x94
  402d0d:	imul   eax,DWORD PTR [eax],0x59
  402d10:	int    0x5e
  402d12:	mov    ds:0x5ad5247a,al
  402d17:	in     eax,0xe1
  402d19:	jp     0x402cd1
  402d1b:	sub    esi,DWORD PTR [esi-0x2e]
  402d1e:	fidivr WORD PTR [ecx*4+0x1e1aa72a]
  402d25:	test   DWORD PTR [ebx-0x2c],ecx
  402d28:	mov    DWORD PTR ds:0x85522f25,ebp
  402d2e:	dec    ebx
  402d2f:	aam    0x89
  402d31:	test   ecx,esi
  402d33:	daa    
  402d34:	mov    eax,edx
  402d36:	push   edi
  402d37:	mov    ss,eax
  402d39:	and    bh,dh
  402d3b:	scas   al,BYTE PTR es:[edi]
  402d3c:	mov    edi,0x4ab5d8f0
  402d41:	sbb    cl,BYTE PTR [ebx+0x2c]
  402d44:	(bad)  [edi-0x5c]
  402d47:	pop    ecx
  402d48:	mov    ebp,0x9ea06379
  402d4d:	push   cs
  402d4e:	scas   al,BYTE PTR es:[edi]
  402d4f:	ins    DWORD PTR es:[edi],dx
  402d50:	cdq    
  402d51:	jp     0x402cf9
  402d53:	sub    ebx,DWORD PTR [esi-0x762ba592]
  402d59:	rol    BYTE PTR [edi-0x4c7a89d5],0x35
  402d60:	jbe    0x402ce7
  402d62:	cmps   DWORD PTR ds:[esi],DWORD PTR es:[edi]
  402d63:	jl     0x402d34
  402d65:	sbb    BYTE PTR [ebx-0x2c],0x89
  402d69:	xchg   edx,eax
  402d6a:	jo     0x402d40
  402d6c:	mov    DWORD PTR [edx-0x2a],edi
  402d6f:	add    al,0x2
  402d71:	dec    esi
  402d72:	adc    BYTE PTR [edx-0x2ba47a81],0x61
  402d79:	mov    ebp,0x9762ba7
  402d7e:	movs   DWORD PTR es:[edi],DWORD PTR ds:[esi]
  402d7f:	pop    edi
  402d80:	inc    ebx
  402d81:	xchg   edx,eax
  402d82:	sbb    ah,dl
  402d84:	mov    DWORD PTR [edx+0x6e],edi
  402d87:	adc    al,0xd9
  402d89:	mov    ebx,0x81b72c6e
  402d8e:	jg     0x402d69
  402d90:	mov    BYTE PTR [esi-0x7e],bh
  402d93:	xchg   edx,esi
  402d95:	inc    ebp
  402d96:	sub    al,0x25
  402d98:	shl    ecx,1
  402d9a:	pop    edi
  402d9b:	adc    BYTE PTR [ebx-0x361a10f],dh
  402da1:	cmps   DWORD PTR ds:[esi],DWORD PTR es:[edi]
  402da2:	sub    ebx,DWORD PTR [edi]
  402da4:	push   edx
  402da5:	cmp    al,0x51
  402da7:	aam    0x89
  402da9:	jp     0x402df9
  402dab:	mov    esi,0xc45a7a89
  402db0:	ds jbe 0x402da3
  402db3:	jne    0x402ddc
  402db5:	cmp    al,0x53
  402db7:	aam    0x89
  402db9:	jp     0x402e09
  402dbb:	scas   al,BYTE PTR es:[edi]
  402dbc:	mov    DWORD PTR [edx+0x5a],edi
  402dbf:	mov    fs,WORD PTR [ecx+0x5]
  402dc2:	cmps   DWORD PTR ds:[esi],DWORD PTR es:[edi]
  402dc3:	sub    esi,DWORD PTR [esi+0xf]
  402dc6:	das    
  402dc7:	lock xchg ebp,eax
  402dc9:	sbb    esp,DWORD PTR [ebx+0x7a]
  402dcc:	mov    bh,0x6d
  402dce:	inc    esp
  402dcf:	ins    DWORD PTR es:[edi],dx
  402dd0:	test   eax,0x3e2ba67a
  402dd5:	icebp  
  402dd6:	imul   ebp,DWORD PTR [ebp-0x75],0x7a
  402dda:	cmps   BYTE PTR ds:[esi],BYTE PTR es:[edi]
  402ddb:	sub    edi,DWORD PTR [esi]
  402ddd:	icebp  
  402dde:	jae    0x402e4d
  402de0:	test   eax,0x3e2ba67a
  402de5:	icebp  
  402de6:	jnp    0x402e55
  402de8:	lea    edi,[edx-0x5a]
  402deb:	sub    edi,DWORD PTR [esi]
  402ded:	icebp  
  402dee:	inc    ebx
  402def:	ins    DWORD PTR es:[edi],dx
  402df0:	leave  
  402df1:	jp     0x402d99
  402df3:	sub    edi,DWORD PTR [esi]
  402df5:	icebp  
  402df6:	dec    ebx
  402df7:	ins    DWORD PTR es:[edi],dx
  402df8:	lea    edi,[edx-0x5a]
  402dfb:	sub    edi,DWORD PTR [esi]
  402dfd:	icebp  
  402dfe:	push   ebx
  402dff:	ins    DWORD PTR es:[edi],dx
  402e00:	leave  
  402e01:	jp     0x402da9
  402e03:	sub    edi,DWORD PTR [esi]
  402e05:	icebp  
  402e06:	pop    ebx
  402e07:	pop    edi
  402e08:	dec    eax
  402e09:	and    esp,DWORD PTR [ebx+0x4b]
  402e0c:	std    
  402e0d:	shr    BYTE PTR [ebx],1
  402e0f:	push   ebp
  402e10:	jnp    0x402dfd
  402e12:	dec    esp
  402e13:	outs   dx,BYTE PTR ds:[esi]
  402e14:	push   cs
  402e15:	push   cs
  402e16:	adc    al,0xbc
  402e18:	add    al,BYTE PTR [ebx+eiz*1+0x2f852e56]
  402e1f:	xlat   BYTE PTR ds:[ebx]
  402e20:	mov    BYTE PTR [edi],cl
  402e22:	(bad)  
  402e23:	mov    al,ds:0x14dce533
  402e28:	std    
  402e29:	outs   dx,DWORD PTR ds:[esi]
  402e2a:	sub    eax,0xe1d74a6d
  402e2f:	ror    BYTE PTR [ecx-0x2c3c5986],1
  402e35:	test   BYTE PTR [ebx-0x2c],bl
  402e38:	sar    DWORD PTR [ecx+0x56],cl
  402e3b:	sub    BYTE PTR [esi-0x3106c52],cl
  402e41:	and    dl,cl
  402e43:	es jne 0x402e36
  402e46:	pop    es
  402e47:	xlat   BYTE PTR ds:[ebx]
  402e48:	hlt    
  402e49:	mov    esp,DWORD PTR es:[esi+0x2a]
  402e4d:	add    BYTE PTR [eax-0x9287d60],dl
  402e53:	add    BYTE PTR [edi+ebx*8+0x796057f6],dh
  402e5a:	inc    esp
  402e5b:	enter  0x4617,0x3b
  402e5f:	push   edi
  402e60:	hlt    
  402e61:	cmps   BYTE PTR ss:[esi],BYTE PTR es:[edi]
  402e63:	pop    edi
  402e64:	fs ins DWORD PTR es:[edi],dx
  402e66:	dec    edx
  402e67:	aam    0x89
  402e69:	jp     0x402e96
  402e6b:	push   esi
  402e6c:	and    al,BYTE PTR [eax]
  402e6e:	pop    edx
  402e6f:	mov    eax,ds:0x884ed18f
  402e74:	jbe    0x402dfb
  402e76:	pop    ebx
  402e77:	mov    ch,0x4a
  402e79:	sbb    ah,BYTE PTR [edi-0x7cf1b583]
  402e7f:	pop    edi
  402e80:	cld    
  402e81:	sub    ebp,DWORD PTR ss:[esi+0x26]
  402e85:	aad    0xb
  402e87:	mov    esp,0x2baa7a89
  402e8c:	and    eax,0xd0940c7a
  402e91:	sub    ch,BYTE PTR [ebx]
  402e93:	rol    DWORD PTR [ebp-0x76134cdf],cl
  402e99:	jp     0x402e41
  402e9b:	arpl   di,di
  402e9d:	sar    DWORD PTR [edi-0xc],0x2
  402ea1:	sub    BYTE PTR [ecx],0x27
  402ea4:	retf   
  402ea5:	sbb    DWORD PTR [ebx-0x2c],0x33051e89
  402eac:	jbe    0x402e33
  402eae:	pop    ebx
  402eaf:	pop    edi
  402eb0:	stc    
  402eb1:	push   esi
  402eb2:	cmc    
  402eb3:	inc    ebx
  402eb4:	jbe    0x402e3b
  402eb6:	push   edi
  402eb7:	aam    0xda
  402eb9:	test   ecx,esi
  402ebb:	imul   edi,ebx,0xffffff89
  402ebe:	jecxz  0x402f1b
  402ec0:	mov    BYTE PTR [edx],ch
  402ec2:	sub    esp,esp
  402ec4:	std    
  402ec5:	jge    0x402e75
  402ec7:	jno    0x402eb6
  402ec9:	fstp   TBYTE PTR [esi-0x357a89d5]
  402ecf:	xchg   esp,eax
  402ed0:	movs   DWORD PTR es:[edi],DWORD PTR ds:[esi]
  402ed1:	sbb    esp,DWORD PTR [ebx+0x4b]
  402ed4:	imul   DWORD PTR [ecx+0x7b]
  402ed7:	(bad)  
  402ed8:	mov    DWORD PTR [edx-0x32],edi
  402edb:	pcmpeqb mm0,QWORD PTR [ebp+0x107fe75b]
  402ee2:	cmps   BYTE PTR ds:[esi],BYTE PTR es:[edi]
  402ee3:	inc    ecx
  402ee4:	jle    0x402f60
  402ee6:	or     al,0xc8
  402ee8:	add    ah,BYTE PTR [edx-0x2f76870e]
  402eee:	outs   dx,DWORD PTR ds:[esi]
  402eef:	pop    edi
  402ef0:	int    0x5e
  402ef2:	mov    edx,0xd6b93628
  402ef7:	push   esp
  402ef8:	dec    ecx
  402ef9:	jp     0x402ea1
  402efb:	sub    esi,ebx
  402efd:	inc    ebp
  402efe:	das    
  402eff:	aad    0xcf
  402f01:	cs repz aam 0x23
  402f05:	mov    ebp,0x9ffc14dc
  402f0a:	repz aam 0x23
  402f0d:	popf   
  402f0e:	fcom   DWORD PTR [eax]
  402f10:	lods   eax,DWORD PTR ds:[esi]
  402f11:	js     0x402eb9
  402f13:	sub    edi,edi
  402f15:	icebp  
  402f16:	jg     0x402ee0
  402f18:	call   0x1a83f5d6
  402f1d:	jmp    0x922037d
  402f22:	rol    BYTE PTR ds:0xa734ed12,cl
  402f28:	call   FWORD PTR [ecx]
  402f2a:	repnz aam 0x23
  402f2d:	sbb    esp,0xf272fc14
  402f33:	aam    0x23
  402f35:	test   esp,ebx
  402f37:	adc    al,0xfd
  402f39:	aaa    
  402f3a:	int3   
  402f3b:	sub    ebx,DWORD PTR [esi]
  402f3d:	in     al,dx
  402f3e:	xor    eax,0xc012efa0
  402f43:	pop    esp
  402f44:	push   es
  402f45:	test   DWORD PTR [edi],0xae2f7684
  402f4b:	test   al,0xb2
  402f4d:	mov    esi,edx
  402f4f:	and    al,0xd9
  402f51:	cs int3 
  402f53:	imul   ebx,DWORD PTR [edx+eax*4],0xd
  402f57:	sub    ebx,esp
  402f59:	jbe    0x402f59
  402f5b:	jnp    0x402f7f
  402f5d:	aad    0x31
  402f5f:	rcr    edi,cl
  402f61:	xchg   edx,eax
  402f62:	sub    BYTE PTR [ebx],0x76
  402f65:	test   esi,edx
  402f67:	call   0x39b02b19
  402f6c:	jbe    0x402ef3
  402f6e:	pop    ebx
  402f6f:	mov    esi,0x8f53238e
  402f74:	xor    DWORD PTR [esi],ecx
  402f76:	popf   
  402f77:	jg     0x402f7d
  402f79:	add    al,0x5d
  402f7b:	fwait
  402f7c:	push   ds
  402f7d:	das    
  402f7e:	add    edi,DWORD PTR [edi+0x39]
  402f81:	mov    ecx,0x8923d40c
  402f86:	add    edx,DWORD PTR [edi+0x4d]
  402f89:	jbe    0x402f50
  402f8b:	call   0x81cba9be
  402f90:	popa   
  402f91:	in     al,0xa6
  402f93:	sub    esi,DWORD PTR [esi-0x28]
  402f96:	aam    0x91
  402f98:	stc    
  402f99:	stc    
  402f9a:	data16 das 
  402f9c:	inc    ecx
  402f9e:	jg     0x402f64
  402fa0:	aam    0x7a
  402fa2:	cmps   BYTE PTR ds:[esi],BYTE PTR es:[edi]
  402fa3:	sub    esi,DWORD PTR [esi-0x7b]
  402fa6:	pop    ebx
  402fa7:	aam    0xe1
  402fa9:	jp     0x402f51
  402fab:	sub    esi,DWORD PTR [esi+0x46]
  402fae:	cmp    eax,0x1c1c7fe7
  402fb3:	data16 sub al,0xe3
  402fb6:	hlt    
  402fb7:	mov    dl,0xba
  402fb9:	stos   BYTE PTR es:[edi],al
  402fba:	shl    BYTE PTR [ebx],cl
  402fbc:	imul   DWORD PTR [ebx+0x59]
  402fbf:	les    ecx,FWORD PTR [ecx-0x439b486]
  402fc5:	(bad)  [ebp+0x550f7650]
  402fcb:	mov    al,ds:0x6e3dbf00
  402fd0:	fnstcw WORD PTR [edi]
  402fd2:	sub    DWORD PTR [edi],ebx
  402fd4:	push   0xbab2f4e3
  402fd9:	stos   BYTE PTR es:[edi],al
  402fda:	ror    ebx,1
  402fdc:	mov    ch,0xd4
  402fde:	outs   dx,BYTE PTR ds:[esi]
  402fdf:	sbb    eax,0x536451c8
  402fe4:	jb     0x402fd7
  402fe6:	pop    ecx
  402fe7:	aas    
  402fe8:	jle    0x403033
  402fea:	data16 sub BYTE PTR [edi+eiz*2-0xeb57259],dh
  402ff2:	fld    DWORD PTR [ebx+0x1c]
  402ff5:	xor    DWORD PTR [ebx],0xa67a99d4
  402ffb:	jl     0x403019
  402ffd:	test   DWORD PTR [edx-0x7e],ebx
  403000:	cdq    
  403001:	icebp  
  403002:	push   esi
  403003:	stos   BYTE PTR es:[edi],al
  403004:	call   0x5af1:0x89d45881
  40300b:	inc    ebx
  40300c:	jb     0x402f92
  40300e:	pop    ebx
  40300f:	aam    0xde
  403011:	sub    DWORD PTR [edi+0x5bef567d],esp
  403017:	mov    esp,0x2ba67a09
  40301c:	sbb    al,0x86
  40301e:	xor    esp,edx
  403020:	jecxz  0x40309d
  403022:	into   
  403023:	sub    esi,DWORD PTR [esi-0x7b]
  403026:	fild   DWORD PTR [ebx-0x557dd08a]
  40302c:	mov    dl,0x81
  40302e:	pop    eax
  40302f:	aam    0x89
  403031:	mov    ecx,0x55897336
  403036:	cmps   BYTE PTR ds:[esi],BYTE PTR es:[edi]
  403037:	add    BYTE PTR [ebx],ch
  403039:	sbb    ebp,DWORD PTR [edi+edx*1]
  40303c:	jb     0x403006
  40303e:	adc    al,0x6c
  403040:	es mov dh,0x79
  403043:	adc    bh,ch
  403045:	add    edi,DWORD PTR [ebx+0x58]
  403048:	rcr    DWORD PTR [eax],0x45
  40304b:	pop    ecx
  40304c:	scas   eax,DWORD PTR es:[edi]
  40304d:	sahf   
  40304e:	mov    ebx,0x3b165768
  403053:	test   edx,ebp
  403055:	push   ecx
  403056:	fwait
  403057:	test   eax,0xdb467ee6
  40305d:	xchg   edx,eax
  40305e:	movs   DWORD PTR es:[edi],DWORD PTR ds:[esi]
  40305f:	sbb    eax,0x47e0ff23
  403064:	in     al,dx
  403065:	lods   al,BYTE PTR ds:[esi]
  403066:	push   ebx
  403067:	push   edi
  403068:	sbb    ch,0x1d
  40306b:	int    0x60
  40306d:	test   BYTE PTR [ebx],bl
  40306f:	enter  0xf188,0x1b
  403073:	arpl   WORD PTR [edx+eax*2+0x5cd56bd4],dx
  40307a:	movs   BYTE PTR es:[edi],BYTE PTR ds:[esi]
  40307b:	mov    eax,0xd45b3249
  403080:	mov    DWORD PTR [edx-0x5a],edi
  403083:	sub    esi,DWORD PTR [esi-0x7b]
  403086:	pop    ebx
  403087:	aam    0x89
  403089:	jp     0x403031
  40308b:	sub    esi,DWORD PTR [esi-0x7b]
  40308e:	pop    ebx
  40308f:	aam    0x89
  403091:	jp     0x403039
  403093:	sub    esi,DWORD PTR [esi-0x7b]
  403096:	pop    ebx
  403097:	aam    0x89
  403099:	jp     0x403091
  40309b:	lods   al,BYTE PTR ds:[esi]
  40309c:	ja     0x403023
  40309e:	pop    ebx
  40309f:	into   
  4030a0:	mov    WORD PTR [edx-0x5a],?
  4030a3:	das    
  4030a4:	jbe    0x40302b
  4030a6:	xchg   esi,eax
  4030a7:	jmp    0x6873:0xed167845
  4030ae:	jae    0x40305a
  4030b0:	cmp    BYTE PTR [esi+edi*1+0x24bc2e4],dh
  4030b7:	dec    ecx
