
8949f4a1ec5e487e51da6846911115b82f7c1902ed124f31c4acd89ad5ad7caf.exe:     file format pei-i386


Disassembly of section .text:

00401000 <.text>:
  401000:	mov    edi,edi
  401002:	push   ebp
  401003:	mov    ebp,esp
  401005:	sub    esp,0x58
  401008:	push   edx
  401009:	mov    edx,0x0
  40100e:	push   edx
  40100f:	push   0x40303c
  401014:	pop    eax
  401015:	call   DWORD PTR cs:[eax]
  401018:	pop    edx
  401019:	push   edx
  40101a:	push   esi
  40101b:	push   ebx
  40101c:	call   0x401e3c
  401021:	add    esp,0x8
  401024:	pop    edx
  401025:	push   edx
  401026:	push   0x0
  401028:	push   0x403038
  40102d:	pop    eax
  40102e:	call   DWORD PTR cs:[eax]
  401031:	pop    edx
  401032:	sub    esp,0xffffffa8
  401035:	mov    ebp,DWORD PTR [esp]
  401038:	add    esp,0x4
  40103b:	ret    
  40103c:	add    BYTE PTR [eax],al
  40103e:	add    BYTE PTR [eax],al
  401040:	mov    edi,edi
  401042:	push   ebp
  401043:	mov    ebp,esp
  401045:	sub    esp,0x4c
  401048:	push   edx
  401049:	push   0x0
  40104b:	push   0x403044
  401050:	pop    eax
  401051:	call   DWORD PTR cs:[eax]
  401054:	pop    edx
  401055:	push   edx
  401056:	push   ebx
  401057:	push   DWORD PTR [edx+0x474]
  40105d:	call   0x401d08
  401062:	add    esp,0x8
  401065:	pop    edx
  401066:	push   edx
  401067:	mov    ebx,0x0
  40106c:	push   ebx
  40106d:	push   0x40301c
  401072:	pop    eax
  401073:	call   DWORD PTR cs:[eax]
  401076:	pop    edx
  401077:	sub    esp,0xffffffb4
  40107a:	mov    ebp,DWORD PTR [esp]
  40107d:	add    esp,0x4
  401080:	ret    
  401081:	add    BYTE PTR [eax],al
  401083:	add    BYTE PTR [edi],cl
  401085:	add    BYTE PTR [edx],0x0
  401088:	add    BYTE PTR [eax],al
  40108a:	add    BYTE PTR [eax],al
  40108c:	mov    edi,edi
  40108e:	pusha  
  40108f:	push   ebp
  401090:	mov    ebp,esp
  401092:	sub    esp,0x5c
  401095:	push   edx
  401096:	push   0x0
  401098:	push   0x403044
  40109d:	pop    eax
  40109e:	call   DWORD PTR cs:[eax]
  4010a1:	pop    edx
  4010a2:	test   eax,eax
  4010a4:	je     0x4010a7
  4010a6:	ret    
  4010a7:	push   edx
  4010a8:	push   0x0
  4010aa:	push   0x403018
  4010af:	pop    eax
  4010b0:	call   DWORD PTR cs:[eax]
  4010b3:	pop    edx
  4010b4:	push   edx
  4010b5:	push   edi
  4010b6:	push   ebx
  4010b7:	push   DWORD PTR [edx+0x50c]
  4010bd:	call   0x401ab0
  4010c2:	add    esp,0xc
  4010c5:	pop    edx
  4010c6:	mov    ebx,0x403020
  4010cb:	mov    ebx,DWORD PTR [ebx]
  4010cd:	push   ebx
  4010ce:	push   DWORD PTR [edx+0x250]
  4010d4:	pop    ecx
  4010d5:	call   ecx
  4010d7:	sub    esp,0xffffffa4
  4010da:	mov    ebp,DWORD PTR [esp]
  4010dd:	add    esp,0x4
  4010e0:	ret    
  4010e1:	add    BYTE PTR [eax],al
  4010e3:	add    BYTE PTR [ebx-0x1374aa01],cl
  4010e9:	sub    esp,0x2c
  4010ec:	push   edx
  4010ed:	push   ecx
  4010ee:	push   esi
  4010ef:	push   DWORD PTR [edx+0xa0]
  4010f5:	push   DWORD PTR [edx+0x584]
  4010fb:	call   0x4019d4
  401100:	add    esp,0x10
  401103:	pop    edx
  401104:	push   edx
  401105:	mov    ebx,0x0
  40110a:	push   ebx
  40110b:	push   0x403044
  401110:	pop    eax
  401111:	call   DWORD PTR cs:[eax]
  401114:	pop    edx
  401115:	push   edx
  401116:	push   0x0
  401118:	push   0x403028
  40111d:	pop    eax
  40111e:	call   DWORD PTR cs:[eax]
  401121:	pop    edx
  401122:	sub    esp,0xffffffd4
  401125:	mov    ebp,DWORD PTR [esp]
  401128:	add    esp,0x4
  40112b:	ret    
  40112c:	mov    edi,edi
  40112e:	push   ebp
  40112f:	mov    ebp,esp
  401131:	sub    esp,0x30
  401134:	push   edx
  401135:	push   DWORD PTR [edx+0x2c8]
  40113b:	push   DWORD PTR [edx+0x4c8]
  401141:	call   0x401bd4
  401146:	add    esp,0x8
  401149:	pop    edx
  40114a:	push   edx
  40114b:	push   0x0
  40114d:	push   0x403058
  401152:	pop    eax
  401153:	call   DWORD PTR cs:[eax]
  401156:	pop    edx
  401157:	push   edx
  401158:	push   0x0
  40115a:	push   0x403058
  40115f:	pop    eax
  401160:	call   DWORD PTR cs:[eax]
  401163:	pop    edx
  401164:	sub    esp,0xffffffd0
  401167:	mov    ebp,DWORD PTR [esp]
  40116a:	add    esp,0x4
  40116d:	ret    
  40116e:	add    BYTE PTR [eax],al
  401170:	mov    edi,edi
  401172:	push   ebp
  401173:	mov    ebp,esp
  401175:	sub    esp,0x44
  401178:	push   edx
  401179:	mov    esi,0x0
  40117e:	push   esi
  40117f:	push   0x403080
  401184:	pop    eax
  401185:	call   DWORD PTR cs:[eax]
  401188:	pop    edx
  401189:	push   edx
  40118a:	push   DWORD PTR [edx+0x118]
  401190:	push   eax
  401191:	push   DWORD PTR [edx+0x5f0]
  401197:	call   0x4010e4
  40119c:	add    esp,0xc
  40119f:	pop    edx
  4011a0:	push   edx
  4011a1:	push   0x0
  4011a3:	push   0x403044
  4011a8:	pop    eax
  4011a9:	call   DWORD PTR cs:[eax]
  4011ac:	pop    edx
  4011ad:	sub    esp,0xffffffbc
  4011b0:	mov    ebp,DWORD PTR [esp]
  4011b3:	add    esp,0x4
  4011b6:	ret    
  4011b7:	add    BYTE PTR [ebx-0x1374aa01],cl
  4011bd:	sub    esp,0x24
  4011c0:	push   edx
  4011c1:	push   DWORD PTR [edx+0x430]
  4011c7:	push   DWORD PTR [edx+0x5a0]
  4011cd:	push   edi
  4011ce:	push   ecx
  4011cf:	call   0x40140c
  4011d4:	add    esp,0x10
  4011d7:	pop    edx
  4011d8:	push   edx
  4011d9:	push   0x0
  4011db:	push   0x403008
  4011e0:	pop    eax
  4011e1:	call   DWORD PTR cs:[eax]
  4011e4:	pop    edx
  4011e5:	push   edx
  4011e6:	push   0x0
  4011e8:	push   0x403028
  4011ed:	pop    eax
  4011ee:	call   DWORD PTR cs:[eax]
  4011f1:	pop    edx
  4011f2:	sub    esp,0xffffffdc
  4011f5:	mov    ebp,DWORD PTR [esp]
  4011f8:	add    esp,0x4
  4011fb:	ret    
	...
  401204:	mov    edi,edi
  401206:	push   ebp
  401207:	mov    ebp,esp
  401209:	sub    esp,0x28
  40120c:	push   edx
  40120d:	push   DWORD PTR [edx+0x234]
  401213:	push   DWORD PTR [edx+0xf4]
  401219:	push   DWORD PTR [edx+0x290]
  40121f:	push   DWORD PTR [edx+0x38c]
  401225:	call   0x401600
  40122a:	add    esp,0x10
  40122d:	pop    edx
  40122e:	push   edx
  40122f:	lea    edx,[edx]
  401231:	push   edx
  401232:	push   0x403020
  401237:	pop    eax
  401238:	call   DWORD PTR cs:[eax]
  40123b:	test   eax,eax
  40123d:	jne    0x40122f
  40123f:	pop    edx
  401240:	push   edx
  401241:	mov    ebx,0x0
  401246:	push   ebx
  401247:	push   0x403048
  40124c:	pop    eax
  40124d:	call   DWORD PTR cs:[eax]
  401250:	pop    edx
  401251:	sub    esp,0xffffffd8
  401254:	mov    ebp,DWORD PTR [esp]
  401257:	add    esp,0x4
  40125a:	ret    
  40125b:	add    BYTE PTR [ebx-0x1374aa01],cl
  401261:	sub    esp,0x58
  401264:	push   edx
  401265:	push   0x0
  401267:	push   0x403078
  40126c:	pop    eax
  40126d:	call   DWORD PTR cs:[eax]
  401270:	pop    edx
  401271:	push   edx
  401272:	push   DWORD PTR [edx+0x50]
  401275:	push   DWORD PTR [edx+0x41c]
  40127b:	push   ecx
  40127c:	call   0x40168c
  401281:	add    esp,0xc
  401284:	pop    edx
  401285:	push   edx
  401286:	mov    eax,0x0
  40128b:	push   eax
  40128c:	push   0x40301c
  401291:	pop    eax
  401292:	call   DWORD PTR cs:[eax]
  401295:	pop    edx
  401296:	sub    esp,0xffffffa8
  401299:	mov    ebp,DWORD PTR [esp]
  40129c:	add    esp,0x4
  40129f:	ret    
  4012a0:	add    BYTE PTR [eax],al
  4012a2:	add    BYTE PTR [eax],al
  4012a4:	mov    edi,edi
  4012a6:	push   ebp
  4012a7:	mov    ebp,esp
  4012a9:	sub    esp,0x34
  4012ac:	push   edx
  4012ad:	lea    edi,[edx]
  4012af:	push   edi
  4012b0:	push   0x403020
  4012b5:	pop    eax
  4012b6:	call   DWORD PTR cs:[eax]
  4012b9:	test   eax,eax
  4012bb:	jne    0x4012ad
  4012bd:	pop    edx
  4012be:	push   edx
  4012bf:	push   ecx
  4012c0:	push   DWORD PTR [edx+0x88]
  4012c6:	push   DWORD PTR [edx+0x458]
  4012cc:	call   0x401a68
  4012d1:	add    esp,0xc
  4012d4:	pop    edx
  4012d5:	push   edx
  4012d6:	push   0x403010
  4012db:	pop    eax
  4012dc:	call   DWORD PTR cs:[eax]
  4012df:	pop    edx
  4012e0:	sub    esp,0xffffffcc
  4012e3:	mov    ebp,DWORD PTR [esp]
  4012e6:	add    esp,0x4
  4012e9:	ret    
  4012ea:	add    BYTE PTR [eax],al
  4012ec:	mov    edi,edi
  4012ee:	push   ebp
  4012ef:	mov    ebp,esp
  4012f1:	sub    esp,0x28
  4012f4:	push   edx
  4012f5:	push   esi
  4012f6:	push   esi
  4012f7:	push   DWORD PTR [edx+0x220]
  4012fd:	call   0x40175c
  401302:	add    esp,0xc
  401305:	pop    edx
  401306:	push   edx
  401307:	push   0x40304c
  40130c:	pop    eax
  40130d:	call   DWORD PTR cs:[eax]
  401310:	pop    edx
  401311:	push   edx
  401312:	push   0x0
  401314:	push   0x403080
  401319:	pop    eax
  40131a:	call   DWORD PTR cs:[eax]
  40131d:	pop    edx
  40131e:	sub    esp,0xffffffd8
  401321:	mov    ebp,DWORD PTR [esp]
  401324:	add    esp,0x4
  401327:	ret    
  401328:	mov    edi,edi
  40132a:	push   ebp
  40132b:	mov    ebp,esp
  40132d:	sub    esp,0x28
  401330:	push   edx
  401331:	push   DWORD PTR [edx+0x1a8]
  401337:	push   ebx
  401338:	call   0x40164c
  40133d:	add    esp,0x8
  401340:	pop    edx
  401341:	push   edx
  401342:	mov    eax,0x0
  401347:	push   eax
  401348:	push   0x40301c
  40134d:	pop    eax
  40134e:	call   DWORD PTR cs:[eax]
  401351:	pop    edx
  401352:	push   edx
  401353:	lea    esi,[edx]
  401355:	push   esi
  401356:	push   0x403020
  40135b:	pop    eax
  40135c:	call   DWORD PTR cs:[eax]
  40135f:	test   eax,eax
  401361:	jne    0x401353
  401363:	pop    edx
  401364:	sub    esp,0xffffffd8
  401367:	mov    ebp,DWORD PTR [esp]
  40136a:	add    esp,0x4
  40136d:	ret    
	...
  40137e:	add    BYTE PTR [eax],al
  401380:	mov    edi,edi
  401382:	push   ebp
  401383:	mov    ebp,esp
  401385:	sub    esp,0x28
  401388:	push   edx
  401389:	push   ecx
  40138a:	push   edi
  40138b:	call   0x4012a4
  401390:	add    esp,0x8
  401393:	pop    edx
  401394:	push   edx
  401395:	push   0x0
  401397:	push   0x40303c
  40139c:	pop    eax
  40139d:	call   DWORD PTR cs:[eax]
  4013a0:	pop    edx
  4013a1:	push   edx
  4013a2:	mov    ebx,0x0
  4013a7:	push   ebx
  4013a8:	push   0x403080
  4013ad:	pop    eax
  4013ae:	call   DWORD PTR cs:[eax]
  4013b1:	pop    edx
  4013b2:	sub    esp,0xffffffd8
  4013b5:	mov    ebp,DWORD PTR [esp]
  4013b8:	add    esp,0x4
  4013bb:	ret    
	...
  4013c8:	mov    edi,edi
  4013ca:	push   ebp
  4013cb:	mov    ebp,esp
  4013cd:	sub    esp,0x40
  4013d0:	push   edx
  4013d1:	push   DWORD PTR [edx+0x314]
  4013d7:	push   ecx
  4013d8:	call   0x401328
  4013dd:	add    esp,0x8
  4013e0:	pop    edx
  4013e1:	push   edx
  4013e2:	push   0x0
  4013e4:	push   0x403048
  4013e9:	pop    eax
  4013ea:	call   DWORD PTR cs:[eax]
  4013ed:	pop    edx
  4013ee:	push   edx
  4013ef:	push   0x0
  4013f1:	push   0x403078
  4013f6:	pop    eax
  4013f7:	call   DWORD PTR cs:[eax]
  4013fa:	pop    edx
  4013fb:	sub    esp,0xffffffc0
  4013fe:	mov    ebp,DWORD PTR [esp]
  401401:	add    esp,0x4
  401404:	ret    
  401405:	add    BYTE PTR [eax],al
  401407:	add    BYTE PTR [eax],al
  401409:	add    BYTE PTR [eax],al
  40140b:	add    BYTE PTR [ebx-0x1374aa01],cl
  401411:	sub    esp,0x24
  401414:	push   edx
  401415:	push   ebx
  401416:	push   DWORD PTR [edx+0x8c]
  40141c:	push   DWORD PTR [edx+0xd0]
  401422:	call   0x4017dc
  401427:	add    esp,0xc
  40142a:	pop    edx
  40142b:	push   edx
  40142c:	push   0x40304c
  401431:	pop    eax
  401432:	call   DWORD PTR cs:[eax]
  401435:	pop    edx
  401436:	push   edx
  401437:	push   0x0
  401439:	push   0x403078
  40143e:	pop    eax
  40143f:	call   DWORD PTR cs:[eax]
  401442:	pop    edx
  401443:	sub    esp,0xffffffdc
  401446:	mov    ebp,DWORD PTR [esp]
  401449:	add    esp,0x4
  40144c:	ret    
  40144d:	add    BYTE PTR [eax],al
  40144f:	add    BYTE PTR [eax],al
  401451:	add    BYTE PTR [eax],al
  401453:	add    BYTE PTR [ebx-0x1374aa01],cl
  401459:	sub    esp,0x3c
  40145c:	push   edx
  40145d:	push   ebx
  40145e:	push   edi
  40145f:	push   DWORD PTR [edx+0x4c8]
  401465:	push   ebx
  401466:	call   0x4016c4
  40146b:	add    esp,0x10
  40146e:	pop    edx
  40146f:	push   edx
  401470:	mov    ecx,0x0
  401475:	push   ecx
  401476:	push   0x403078
  40147b:	pop    eax
  40147c:	call   DWORD PTR cs:[eax]
  40147f:	pop    edx
  401480:	push   edx
  401481:	push   0x403010
  401486:	pop    eax
  401487:	call   DWORD PTR cs:[eax]
  40148a:	pop    edx
  40148b:	sub    esp,0xffffffc4
  40148e:	mov    ebp,DWORD PTR [esp]
  401491:	add    esp,0x4
  401494:	ret    
  401495:	add    BYTE PTR [eax],al
  401497:	add    BYTE PTR [ebx],ch
  401499:	rol    BYTE PTR [ecx+0x47e000c2],cl
  40149f:	add    BYTE PTR [edx+0x33],dl
  4014a2:	leave  
  4014a3:	or     ecx,0x40309c
  4014a9:	and    WORD PTR [ecx],0x0
  4014ad:	push   DWORD PTR [ecx]
  4014af:	pop    eax
  4014b0:	mov    edx,eax
  4014b2:	push   0x3c
  4014b4:	add    DWORD PTR [esp],eax
  4014b7:	pop    ecx
  4014b8:	push   eax
  4014b9:	mov    edi,esp
  4014bb:	mov    esi,ecx
  4014bd:	movs   DWORD PTR es:[edi],DWORD PTR ds:[esi]
  4014be:	pop    eax
  4014bf:	mov    edx,DWORD PTR [eax+edx*1+0x1c]
  4014c3:	ror    edx,0x8
  4014c6:	xor    eax,eax
  4014c8:	or     al,0x80
  4014ca:	cmp    al,dl
  4014cc:	pop    edx
  4014cd:	ja     0x4014d8
  4014cf:	nop
  4014d0:	nop
  4014d1:	nop
  4014d2:	nop
  4014d3:	jmp    0x401084
  4014d8:	xor    esp,esp
  4014da:	int    0x3
	...
  4014e8:	mov    edi,edi
  4014ea:	push   ebp
  4014eb:	mov    ebp,esp
  4014ed:	sub    esp,0x5c
  4014f0:	push   edx
  4014f1:	push   eax
  4014f2:	push   edi
  4014f3:	push   edi
  4014f4:	push   eax
  4014f5:	call   0x401b3c
  4014fa:	add    esp,0x10
  4014fd:	pop    edx
  4014fe:	push   edx
  4014ff:	push   0x0
  401501:	push   0x403028
  401506:	pop    eax
  401507:	call   DWORD PTR cs:[eax]
  40150a:	pop    edx
  40150b:	push   edx
  40150c:	push   0x0
  40150e:	push   0x403038
  401513:	pop    eax
  401514:	call   DWORD PTR cs:[eax]
  401517:	pop    edx
  401518:	sub    esp,0xffffffa4
  40151b:	mov    ebp,DWORD PTR [esp]
  40151e:	add    esp,0x4
  401521:	ret    
	...
  40152a:	add    BYTE PTR [eax],al
  40152c:	mov    edi,edi
  40152e:	push   ebp
  40152f:	mov    ebp,esp
  401531:	sub    esp,0x40
  401534:	push   edx
  401535:	mov    eax,0x0
  40153a:	push   eax
  40153b:	push   0x403028
  401540:	pop    eax
  401541:	call   DWORD PTR cs:[eax]
  401544:	pop    edx
  401545:	push   edx
  401546:	push   DWORD PTR [edx+0x2c]
  401549:	push   edi
  40154a:	push   edi
  40154b:	call   0x401938
  401550:	add    esp,0xc
  401553:	pop    edx
  401554:	push   edx
  401555:	mov    eax,0x0
  40155a:	push   eax
  40155b:	push   0x403008
  401560:	pop    eax
  401561:	call   DWORD PTR cs:[eax]
  401564:	pop    edx
  401565:	sub    esp,0xffffffc0
  401568:	mov    ebp,DWORD PTR [esp]
  40156b:	add    esp,0x4
  40156e:	ret    
  40156f:	add    BYTE PTR [ebx-0x1374aa01],cl
  401575:	sub    esp,0x48
  401578:	push   edx
  401579:	push   eax
  40157a:	push   ebx
  40157b:	call   0x401afc
  401580:	add    esp,0x8
  401583:	pop    edx
  401584:	push   edx
  401585:	lea    ebx,[edx]
  401587:	push   ebx
  401588:	push   0x403020
  40158d:	pop    eax
  40158e:	call   DWORD PTR cs:[eax]
  401591:	test   eax,eax
  401593:	jne    0x401585
  401595:	pop    edx
  401596:	push   edx
  401597:	mov    ecx,0x0
  40159c:	push   ecx
  40159d:	push   0x403078
  4015a2:	pop    eax
  4015a3:	call   DWORD PTR cs:[eax]
  4015a6:	pop    edx
  4015a7:	sub    esp,0xffffffb8
  4015aa:	mov    ebp,DWORD PTR [esp]
  4015ad:	add    esp,0x4
  4015b0:	ret    
  4015b1:	add    BYTE PTR [eax],al
  4015b3:	add    BYTE PTR [eax],al
  4015b5:	add    BYTE PTR [eax],al
  4015b7:	add    BYTE PTR [ebx-0x1374aa01],cl
  4015bd:	sub    esp,0x24
  4015c0:	push   edx
  4015c1:	mov    esi,0x0
  4015c6:	push   esi
  4015c7:	push   0x403038
  4015cc:	pop    eax
  4015cd:	call   DWORD PTR cs:[eax]
  4015d0:	pop    edx
  4015d1:	push   edx
  4015d2:	push   DWORD PTR [edx+0x570]
  4015d8:	push   eax
  4015d9:	push   ecx
  4015da:	push   ecx
  4015db:	call   0x401170
  4015e0:	add    esp,0x10
  4015e3:	pop    edx
  4015e4:	push   edx
  4015e5:	mov    eax,0x0
  4015ea:	push   eax
  4015eb:	push   0x403038
  4015f0:	pop    eax
  4015f1:	call   DWORD PTR cs:[eax]
  4015f4:	pop    edx
  4015f5:	sub    esp,0xffffffdc
  4015f8:	mov    ebp,DWORD PTR [esp]
  4015fb:	add    esp,0x4
  4015fe:	ret    
  4015ff:	add    BYTE PTR [ebx-0x1374aa01],cl
  401605:	sub    esp,0x28
  401608:	push   edx
  401609:	push   0x0
  40160b:	push   0x403028
  401610:	pop    eax
  401611:	call   DWORD PTR cs:[eax]
  401614:	pop    edx
  401615:	push   edx
  401616:	push   DWORD PTR [edx+0x1c]
  401619:	push   eax
  40161a:	push   esi
  40161b:	push   DWORD PTR [edx+0x400]
  401621:	call   0x40181c
  401626:	add    esp,0x10
  401629:	pop    edx
  40162a:	push   edx
  40162b:	push   0x0
  40162d:	push   0x403048
  401632:	pop    eax
  401633:	call   DWORD PTR cs:[eax]
  401636:	pop    edx
  401637:	sub    esp,0xffffffd8
  40163a:	mov    ebp,DWORD PTR [esp]
  40163d:	add    esp,0x4
  401640:	ret    
	...
  401649:	add    BYTE PTR [eax],al
  40164b:	add    BYTE PTR [ebx-0x1374aa01],cl
  401651:	sub    esp,0x50
  401654:	push   edx
  401655:	push   DWORD PTR [edx+0x48]
  401658:	push   DWORD PTR [edx+0x2a4]
  40165e:	call   0x40125c
  401663:	add    esp,0x8
  401666:	pop    edx
  401667:	push   edx
  401668:	push   0x403010
  40166d:	pop    eax
  40166e:	call   DWORD PTR cs:[eax]
  401671:	pop    edx
  401672:	push   edx
  401673:	push   0x0
  401675:	push   0x403008
  40167a:	pop    eax
  40167b:	call   DWORD PTR cs:[eax]
  40167e:	pop    edx
  40167f:	sub    esp,0xffffffb0
  401682:	mov    ebp,DWORD PTR [esp]
  401685:	add    esp,0x4
  401688:	ret    
  401689:	add    BYTE PTR [eax],al
  40168b:	add    BYTE PTR [ebx-0x1374aa01],cl
  401691:	sub    esp,0x2c
  401694:	push   edx
  401695:	push   0x403010
  40169a:	pop    eax
  40169b:	call   DWORD PTR cs:[eax]
  40169e:	pop    edx
  40169f:	push   edx
  4016a0:	push   eax
  4016a1:	push   ebx
  4016a2:	call   0x401cbc
  4016a7:	add    esp,0x8
  4016aa:	pop    edx
  4016ab:	push   edx
  4016ac:	push   0x0
  4016ae:	push   0x403038
  4016b3:	pop    eax
  4016b4:	call   DWORD PTR cs:[eax]
  4016b7:	pop    edx
  4016b8:	sub    esp,0xffffffd4
  4016bb:	mov    ebp,DWORD PTR [esp]
  4016be:	add    esp,0x4
  4016c1:	ret    
  4016c2:	add    BYTE PTR [eax],al
  4016c4:	mov    edi,edi
  4016c6:	push   ebp
  4016c7:	mov    ebp,esp
  4016c9:	sub    esp,0x48
  4016cc:	push   edx
  4016cd:	push   eax
  4016ce:	push   DWORD PTR [edx+0x2d0]
  4016d4:	push   DWORD PTR [edx+0xa8]
  4016da:	call   0x40112c
  4016df:	add    esp,0xc
  4016e2:	pop    edx
  4016e3:	push   edx
  4016e4:	push   0x0
  4016e6:	push   0x40301c
  4016eb:	pop    eax
  4016ec:	call   DWORD PTR cs:[eax]
  4016ef:	pop    edx
  4016f0:	push   edx
  4016f1:	mov    edx,0x0
  4016f6:	push   edx
  4016f7:	push   0x403004
  4016fc:	pop    eax
  4016fd:	call   DWORD PTR cs:[eax]
  401700:	pop    edx
  401701:	sub    esp,0xffffffb8
  401704:	mov    ebp,DWORD PTR [esp]
  401707:	add    esp,0x4
  40170a:	ret    
  40170b:	add    BYTE PTR [ebx-0x1374aa01],cl
  401711:	sub    esp,0x40
  401714:	push   edx
  401715:	push   DWORD PTR [edx+0x184]
  40171b:	push   edi
  40171c:	push   DWORD PTR [edx+0x164]
  401722:	push   DWORD PTR [edx+0x304]
  401728:	call   0x401d4c
  40172d:	add    esp,0x10
  401730:	pop    edx
  401731:	push   edx
  401732:	push   0x0
  401734:	push   0x403080
  401739:	pop    eax
  40173a:	call   DWORD PTR cs:[eax]
  40173d:	pop    edx
  40173e:	push   edx
  40173f:	lea    esi,[edx]
  401741:	push   esi
  401742:	push   0x403020
  401747:	pop    eax
  401748:	call   DWORD PTR cs:[eax]
  40174b:	test   eax,eax
  40174d:	jne    0x40173f
  40174f:	pop    edx
  401750:	sub    esp,0xffffffc0
  401753:	mov    ebp,DWORD PTR [esp]
  401756:	add    esp,0x4
  401759:	ret    
  40175a:	add    BYTE PTR [eax],al
  40175c:	mov    edi,edi
  40175e:	push   ebp
  40175f:	mov    ebp,esp
  401761:	sub    esp,0x3c
  401764:	push   edx
  401765:	push   0x40304c
  40176a:	pop    eax
  40176b:	call   DWORD PTR cs:[eax]
  40176e:	pop    edx
  40176f:	push   edx
  401770:	push   esi
  401771:	push   ecx
  401772:	push   DWORD PTR [edx+0x54]
  401775:	push   ebx
  401776:	call   0x4018e8
  40177b:	add    esp,0x10
  40177e:	pop    edx
  40177f:	push   edx
  401780:	push   0x403010
  401785:	pop    eax
  401786:	call   DWORD PTR cs:[eax]
  401789:	pop    edx
  40178a:	sub    esp,0xffffffc4
  40178d:	mov    ebp,DWORD PTR [esp]
  401790:	add    esp,0x4
  401793:	ret    
  401794:	mov    edi,edi
  401796:	push   ebp
  401797:	mov    ebp,esp
  401799:	sub    esp,0x54
  40179c:	push   edx
  40179d:	push   0x0
  40179f:	push   0x403004
  4017a4:	pop    eax
  4017a5:	call   DWORD PTR cs:[eax]
  4017a8:	pop    edx
  4017a9:	push   edx
  4017aa:	push   DWORD PTR [edx+0x52c]
  4017b0:	push   DWORD PTR [edx+0x3bc]
  4017b6:	push   esi
  4017b7:	call   0x4011b8
  4017bc:	add    esp,0xc
  4017bf:	pop    edx
  4017c0:	push   edx
  4017c1:	push   0x0
  4017c3:	push   0x403044
  4017c8:	pop    eax
  4017c9:	call   DWORD PTR cs:[eax]
  4017cc:	pop    edx
  4017cd:	sub    esp,0xffffffac
  4017d0:	mov    ebp,DWORD PTR [esp]
  4017d3:	add    esp,0x4
  4017d6:	ret    
  4017d7:	add    BYTE PTR [eax],al
  4017d9:	add    BYTE PTR [eax],al
  4017db:	add    BYTE PTR [ebx-0x1374aa01],cl
  4017e1:	sub    esp,0x50
  4017e4:	push   edx
  4017e5:	push   0x403010
  4017ea:	pop    eax
  4017eb:	call   DWORD PTR cs:[eax]
  4017ee:	pop    edx
  4017ef:	push   edx
  4017f0:	push   ecx
  4017f1:	push   DWORD PTR [edx+0x48c]
  4017f7:	call   0x40152c
  4017fc:	add    esp,0x8
  4017ff:	pop    edx
  401800:	push   edx
  401801:	mov    ecx,0x0
  401806:	push   ecx
  401807:	push   0x403058
  40180c:	pop    eax
  40180d:	call   DWORD PTR cs:[eax]
  401810:	pop    edx
  401811:	sub    esp,0xffffffb0
  401814:	mov    ebp,DWORD PTR [esp]
  401817:	add    esp,0x4
  40181a:	ret    
  40181b:	add    BYTE PTR [ebx-0x1374aa01],cl
  401821:	sub    esp,0x44
  401824:	push   edx
  401825:	push   eax
  401826:	push   DWORD PTR [edx+0x144]
  40182c:	call   0x401040
  401831:	add    esp,0x8
  401834:	pop    edx
  401835:	push   edx
  401836:	push   0x0
  401838:	push   0x40301c
  40183d:	pop    eax
  40183e:	call   DWORD PTR cs:[eax]
  401841:	pop    edx
  401842:	push   edx
  401843:	push   0x40304c
  401848:	pop    eax
  401849:	call   DWORD PTR cs:[eax]
  40184c:	pop    edx
  40184d:	sub    esp,0xffffffbc
  401850:	mov    ebp,DWORD PTR [esp]
  401853:	add    esp,0x4
  401856:	ret    
  401857:	add    BYTE PTR [ebx-0x1374aa01],cl
  40185d:	sub    esp,0x54
  401860:	push   edx
  401861:	push   DWORD PTR [edx+0x1e0]
  401867:	push   DWORD PTR [edx+0x1e0]
  40186d:	push   ebx
  40186e:	push   DWORD PTR [edx+0x32c]
  401874:	call   0x401b84
  401879:	add    esp,0x10
  40187c:	pop    edx
  40187d:	push   edx
  40187e:	push   0x0
  401880:	push   0x40303c
  401885:	pop    eax
  401886:	call   DWORD PTR cs:[eax]
  401889:	pop    edx
  40188a:	push   edx
  40188b:	mov    eax,0x0
  401890:	push   eax
  401891:	push   0x403048
  401896:	pop    eax
  401897:	call   DWORD PTR cs:[eax]
  40189a:	pop    edx
  40189b:	sub    esp,0xffffffac
  40189e:	mov    ebp,DWORD PTR [esp]
  4018a1:	add    esp,0x4
  4018a4:	ret    
  4018a5:	add    BYTE PTR [eax],al
  4018a7:	add    BYTE PTR [ebx-0x1374aa01],cl
  4018ad:	sub    esp,0x2c
  4018b0:	push   edx
  4018b1:	push   0x0
  4018b3:	push   0x403018
  4018b8:	pop    eax
  4018b9:	call   DWORD PTR cs:[eax]
  4018bc:	pop    edx
  4018bd:	push   edx
  4018be:	push   eax
  4018bf:	push   DWORD PTR [edx+0x2e0]
  4018c5:	call   0x401a28
  4018ca:	add    esp,0x8
  4018cd:	pop    edx
  4018ce:	push   edx
  4018cf:	push   0x0
  4018d1:	push   0x403044
  4018d6:	pop    eax
  4018d7:	call   DWORD PTR cs:[eax]
  4018da:	pop    edx
  4018db:	sub    esp,0xffffffd4
  4018de:	mov    ebp,DWORD PTR [esp]
  4018e1:	add    esp,0x4
  4018e4:	ret    
  4018e5:	add    BYTE PTR [eax],al
  4018e7:	add    BYTE PTR [ebx-0x1374aa01],cl
  4018ed:	sub    esp,0x48
  4018f0:	push   edx
  4018f1:	push   0x403010
  4018f6:	pop    eax
  4018f7:	call   DWORD PTR cs:[eax]
  4018fa:	pop    edx
  4018fb:	push   edx
  4018fc:	push   DWORD PTR [edx+0x2a0]
  401902:	push   DWORD PTR [edx+0x1f0]
  401908:	call   0x401204
  40190d:	add    esp,0x8
  401910:	pop    edx
  401911:	push   edx
  401912:	lea    eax,[edx]
  401914:	push   eax
  401915:	push   0x403020
  40191a:	pop    eax
  40191b:	call   DWORD PTR cs:[eax]
  40191e:	test   eax,eax
  401920:	jne    0x401912
  401922:	pop    edx
  401923:	sub    esp,0xffffffb8
  401926:	mov    ebp,DWORD PTR [esp]
  401929:	add    esp,0x4
  40192c:	ret    
	...
  401935:	add    BYTE PTR [eax],al
  401937:	add    BYTE PTR [ebx-0x1374aa01],cl
  40193d:	sub    esp,0x34
  401940:	push   edx
  401941:	push   0x0
  401943:	push   0x403008
  401948:	pop    eax
  401949:	call   DWORD PTR cs:[eax]
  40194c:	pop    edx
  40194d:	push   edx
  40194e:	push   DWORD PTR [edx+0x580]
  401954:	push   eax
  401955:	push   DWORD PTR [edx+0x334]
  40195b:	push   DWORD PTR [edx+0x170]
  401961:	call   0x4014e8
  401966:	add    esp,0x10
  401969:	pop    edx
  40196a:	push   edx
  40196b:	mov    ecx,0x0
  401970:	push   ecx
  401971:	push   0x403028
  401976:	pop    eax
  401977:	call   DWORD PTR cs:[eax]
  40197a:	pop    edx
  40197b:	sub    esp,0xffffffcc
  40197e:	mov    ebp,DWORD PTR [esp]
  401981:	add    esp,0x4
  401984:	ret    
	...
  401995:	add    BYTE PTR [eax],al
  401997:	add    BYTE PTR [ebx-0x1374aa01],cl
  40199d:	sub    esp,0x50
  4019a0:	push   edx
  4019a1:	push   0x0
  4019a3:	push   0x403018
  4019a8:	pop    eax
  4019a9:	call   DWORD PTR cs:[eax]
  4019ac:	pop    edx
  4019ad:	push   edx
  4019ae:	push   ebx
  4019af:	push   ecx
  4019b0:	call   0x4012ec
  4019b5:	add    esp,0x8
  4019b8:	pop    edx
  4019b9:	push   edx
  4019ba:	push   0x0
  4019bc:	push   0x40303c
  4019c1:	pop    eax
  4019c2:	call   DWORD PTR cs:[eax]
  4019c5:	pop    edx
  4019c6:	sub    esp,0xffffffb0
  4019c9:	mov    ebp,DWORD PTR [esp]
  4019cc:	add    esp,0x4
  4019cf:	ret    
  4019d0:	add    BYTE PTR [eax],al
  4019d2:	add    BYTE PTR [eax],al
  4019d4:	mov    edi,edi
  4019d6:	push   ebp
  4019d7:	mov    ebp,esp
  4019d9:	sub    esp,0x44
  4019dc:	push   edx
  4019dd:	push   DWORD PTR [edx+0x30]
  4019e0:	push   DWORD PTR [edx+0x244]
  4019e6:	push   DWORD PTR [edx+0x9c]
  4019ec:	push   DWORD PTR [edx+0x504]
  4019f2:	call   0x401df8
  4019f7:	add    esp,0x10
  4019fa:	pop    edx
  4019fb:	push   edx
  4019fc:	mov    edx,0x0
  401a01:	push   edx
  401a02:	push   0x403048
  401a07:	pop    eax
  401a08:	call   DWORD PTR cs:[eax]
  401a0b:	pop    edx
  401a0c:	push   edx
  401a0d:	mov    edi,0x0
  401a12:	push   edi
  401a13:	push   0x403028
  401a18:	pop    eax
  401a19:	call   DWORD PTR cs:[eax]
  401a1c:	pop    edx
  401a1d:	sub    esp,0xffffffbc
  401a20:	mov    ebp,DWORD PTR [esp]
  401a23:	add    esp,0x4
  401a26:	ret    
  401a27:	add    BYTE PTR [ebx-0x1374aa01],cl
  401a2d:	sub    esp,0x50
  401a30:	push   edx
  401a31:	push   0x403010
  401a36:	pop    eax
  401a37:	call   DWORD PTR cs:[eax]
  401a3a:	pop    edx
  401a3b:	push   edx
  401a3c:	push   DWORD PTR [edx+0x190]
  401a42:	push   ecx
  401a43:	push   eax
  401a44:	push   DWORD PTR [edx+0x38]
  401a47:	call   0x40170c
  401a4c:	add    esp,0x10
  401a4f:	pop    edx
  401a50:	push   edx
  401a51:	push   0x0
  401a53:	push   0x40301c
  401a58:	pop    eax
  401a59:	call   DWORD PTR cs:[eax]
  401a5c:	pop    edx
  401a5d:	sub    esp,0xffffffb0
  401a60:	mov    ebp,DWORD PTR [esp]
  401a63:	add    esp,0x4
  401a66:	ret    
  401a67:	add    BYTE PTR [ebx-0x1374aa01],cl
  401a6d:	sub    esp,0x4c
  401a70:	push   edx
  401a71:	push   DWORD PTR [edx+0x288]
  401a77:	push   eax
  401a78:	push   ecx
  401a79:	push   esi
  401a7a:	call   0x401794
  401a7f:	add    esp,0x10
  401a82:	pop    edx
  401a83:	push   edx
  401a84:	push   0x0
  401a86:	push   0x403038
  401a8b:	pop    eax
  401a8c:	call   DWORD PTR cs:[eax]
  401a8f:	pop    edx
  401a90:	push   edx
  401a91:	mov    ecx,0x0
  401a96:	push   ecx
  401a97:	push   0x403048
  401a9c:	pop    eax
  401a9d:	call   DWORD PTR cs:[eax]
  401aa0:	pop    edx
  401aa1:	sub    esp,0xffffffb4
  401aa4:	mov    ebp,DWORD PTR [esp]
  401aa7:	add    esp,0x4
  401aaa:	ret    
  401aab:	add    BYTE PTR [eax],al
  401aad:	add    BYTE PTR [eax],al
  401aaf:	add    BYTE PTR [ebx-0x1374aa01],cl
  401ab5:	sub    esp,0x50
  401ab8:	push   edx
  401ab9:	mov    edi,0x0
  401abe:	push   edi
  401abf:	push   0x403018
  401ac4:	pop    eax
  401ac5:	call   DWORD PTR cs:[eax]
  401ac8:	pop    edx
  401ac9:	push   edx
  401aca:	push   DWORD PTR [edx+0x110]
  401ad0:	push   DWORD PTR [edx+0xe0]
  401ad6:	push   DWORD PTR [edx+0x240]
  401adc:	call   0x4018a8
  401ae1:	add    esp,0xc
  401ae4:	pop    edx
  401ae5:	push   edx
  401ae6:	push   0x403010
  401aeb:	pop    eax
  401aec:	call   DWORD PTR cs:[eax]
  401aef:	pop    edx
  401af0:	sub    esp,0xffffffb0
  401af3:	mov    ebp,DWORD PTR [esp]
  401af6:	add    esp,0x4
  401af9:	ret    
  401afa:	add    BYTE PTR [eax],al
  401afc:	mov    edi,edi
  401afe:	push   ebp
  401aff:	mov    ebp,esp
  401b01:	sub    esp,0x20
  401b04:	push   edx
  401b05:	push   0x0
  401b07:	push   0x40301c
  401b0c:	pop    eax
  401b0d:	call   DWORD PTR cs:[eax]
  401b10:	pop    edx
  401b11:	push   edx
  401b12:	push   esi
  401b13:	push   ecx
  401b14:	call   0x401998
  401b19:	add    esp,0x8
  401b1c:	pop    edx
  401b1d:	push   edx
  401b1e:	push   0x0
  401b20:	push   0x403038
  401b25:	pop    eax
  401b26:	call   DWORD PTR cs:[eax]
  401b29:	pop    edx
  401b2a:	sub    esp,0xffffffe0
  401b2d:	mov    ebp,DWORD PTR [esp]
  401b30:	add    esp,0x4
  401b33:	ret    
	...
  401b3c:	mov    edi,edi
  401b3e:	push   ebp
  401b3f:	mov    ebp,esp
  401b41:	sub    esp,0x60
  401b44:	push   edx
  401b45:	push   0x0
  401b47:	push   0x40303c
  401b4c:	pop    eax
  401b4d:	call   DWORD PTR cs:[eax]
  401b50:	pop    edx
  401b51:	push   edx
  401b52:	push   edi
  401b53:	push   DWORD PTR [edx+0x434]
  401b59:	call   0x401c24
  401b5e:	add    esp,0x8
  401b61:	pop    edx
  401b62:	push   edx
  401b63:	push   0x0
  401b65:	push   0x403018
  401b6a:	pop    eax
  401b6b:	call   DWORD PTR cs:[eax]
  401b6e:	pop    edx
  401b6f:	sub    esp,0xffffffa0
  401b72:	mov    ebp,DWORD PTR [esp]
  401b75:	add    esp,0x4
  401b78:	ret    
	...
  401b81:	add    BYTE PTR [eax],al
  401b83:	add    BYTE PTR [ebx-0x1374aa01],cl
  401b89:	sub    esp,0x50
  401b8c:	push   edx
  401b8d:	mov    ecx,0x0
  401b92:	push   ecx
  401b93:	push   0x403028
  401b98:	pop    eax
  401b99:	call   DWORD PTR cs:[eax]
  401b9c:	pop    edx
  401b9d:	push   edx
  401b9e:	push   DWORD PTR [edx+0x4dc]
  401ba4:	push   DWORD PTR [edx+0x36c]
  401baa:	call   0x401570
  401baf:	add    esp,0x8
  401bb2:	pop    edx
  401bb3:	push   edx
  401bb4:	push   0x0
  401bb6:	push   0x403004
  401bbb:	pop    eax
  401bbc:	call   DWORD PTR cs:[eax]
  401bbf:	pop    edx
  401bc0:	sub    esp,0xffffffb0
  401bc3:	mov    ebp,DWORD PTR [esp]
  401bc6:	add    esp,0x4
  401bc9:	ret    
	...
  401bd2:	add    BYTE PTR [eax],al
  401bd4:	mov    edi,edi
  401bd6:	push   ebp
  401bd7:	mov    ebp,esp
  401bd9:	sub    esp,0x54
  401bdc:	push   edx
  401bdd:	mov    edi,0x0
  401be2:	push   edi
  401be3:	push   0x40303c
  401be8:	pop    eax
  401be9:	call   DWORD PTR cs:[eax]
  401bec:	pop    edx
  401bed:	push   edx
  401bee:	push   DWORD PTR [edx+0x470]
  401bf4:	push   DWORD PTR [edx+0x494]
  401bfa:	push   DWORD PTR [edx+0x44]
  401bfd:	call   0x4013c8
  401c02:	add    esp,0xc
  401c05:	pop    edx
  401c06:	push   edx
  401c07:	push   0x0
  401c09:	push   0x403080
  401c0e:	pop    eax
  401c0f:	call   DWORD PTR cs:[eax]
  401c12:	pop    edx
  401c13:	sub    esp,0xffffffac
  401c16:	mov    ebp,DWORD PTR [esp]
  401c19:	add    esp,0x4
  401c1c:	ret    
  401c1d:	add    BYTE PTR [eax],al
  401c1f:	add    BYTE PTR [eax],al
  401c21:	add    BYTE PTR [eax],al
  401c23:	add    BYTE PTR [ebx-0x1374aa01],cl
  401c29:	sub    esp,0x30
  401c2c:	push   edx
  401c2d:	mov    edx,0x6b0
  401c32:	push   edx
  401c33:	mov    esi,0x6b0
  401c38:	push   esi
  401c39:	push   0x40000
  401c3e:	push   0x403030
  401c43:	pop    eax
  401c44:	push   DWORD PTR [eax]
  401c46:	sub    DWORD PTR [esp],0x2
  401c4a:	push   0x403024
  401c4f:	pop    eax
  401c50:	pop    DWORD PTR [eax]
  401c52:	push   0x403024
  401c57:	pop    eax
  401c58:	call   DWORD PTR cs:[eax]
  401c5b:	xchg   DWORD PTR [esp],eax
  401c5e:	mov    edx,eax
  401c60:	pop    edi
  401c61:	mov    DWORD PTR [edx+0x250],edi
  401c67:	mov    esi,DWORD PTR [edx+0x250]
  401c6d:	mov    esi,esi
  401c6f:	sub    ebx,ebx
  401c71:	dec    ebx
  401c72:	and    ebx,0x401e9d
  401c78:	mov    ecx,DWORD PTR [ebx]
  401c7a:	mov    DWORD PTR [esi],ecx
  401c7c:	add    ebx,0x3
  401c7f:	add    esi,0x3
  401c82:	mov    ecx,0x6a719112
  401c87:	mov    eax,0x6b0
  401c8c:	test   eax,eax
  401c8e:	je     0x401cac
  401c90:	add    eax,0xfffffffc
  401c93:	mov    edi,ecx
  401c95:	xor    edi,DWORD PTR [ebx]
  401c97:	sub    edi,0x1
  401c9a:	mov    DWORD PTR [esi],edi
  401c9c:	push   DWORD PTR [esi]
  401c9e:	mov    ecx,0xfffffffc
  401ca3:	sub    ebx,ecx
  401ca5:	sub    esi,ecx
  401ca7:	pop    ecx
  401ca8:	bswap  ecx
  401caa:	jmp    0x401c8c
  401cac:	push   edx
  401cad:	push   0x40304c
  401cb2:	pop    eax
  401cb3:	call   DWORD PTR cs:[eax]
  401cb6:	pop    edx
  401cb7:	sub    esp,0xffffffd0
  401cba:	pop    ebp
  401cbb:	ret    
  401cbc:	mov    edi,edi
  401cbe:	push   ebp
  401cbf:	mov    ebp,esp
  401cc1:	sub    esp,0x2c
  401cc4:	push   edx
  401cc5:	push   edi
  401cc6:	push   DWORD PTR [edx+0x5f0]
  401ccc:	push   DWORD PTR [edx+0x4b8]
  401cd2:	push   edi
  401cd3:	call   0x401858
  401cd8:	add    esp,0x10
  401cdb:	pop    edx
  401cdc:	push   edx
  401cdd:	mov    edx,0x0
  401ce2:	push   edx
  401ce3:	push   0x403058
  401ce8:	pop    eax
  401ce9:	call   DWORD PTR cs:[eax]
  401cec:	pop    edx
  401ced:	push   edx
  401cee:	mov    ebx,0x0
  401cf3:	push   ebx
  401cf4:	push   0x403018
  401cf9:	pop    eax
  401cfa:	call   DWORD PTR cs:[eax]
  401cfd:	pop    edx
  401cfe:	sub    esp,0xffffffd4
  401d01:	mov    ebp,DWORD PTR [esp]
  401d04:	add    esp,0x4
  401d07:	ret    
  401d08:	mov    edi,edi
  401d0a:	push   ebp
  401d0b:	mov    ebp,esp
  401d0d:	sub    esp,0x4c
  401d10:	push   edx
  401d11:	mov    ebx,0x0
  401d16:	push   ebx
  401d17:	push   0x40301c
  401d1c:	pop    eax
  401d1d:	call   DWORD PTR cs:[eax]
  401d20:	pop    edx
  401d21:	push   edx
  401d22:	push   DWORD PTR [edx+0xd8]
  401d28:	push   ebx
  401d29:	push   eax
  401d2a:	push   eax
  401d2b:	call   0x401380
  401d30:	add    esp,0x10
  401d33:	pop    edx
  401d34:	push   edx
  401d35:	push   0x0
  401d37:	push   0x403028
  401d3c:	pop    eax
  401d3d:	call   DWORD PTR cs:[eax]
  401d40:	pop    edx
  401d41:	sub    esp,0xffffffb4
  401d44:	mov    ebp,DWORD PTR [esp]
  401d47:	add    esp,0x4
  401d4a:	ret    
  401d4b:	add    BYTE PTR [ebx-0x1374aa01],cl
  401d51:	sub    esp,0x30
  401d54:	push   edx
  401d55:	lea    ebx,[edx]
  401d57:	push   ebx
  401d58:	push   0x403020
  401d5d:	pop    eax
  401d5e:	call   DWORD PTR cs:[eax]
  401d61:	test   eax,eax
  401d63:	jne    0x401d55
  401d65:	pop    edx
  401d66:	push   edx
  401d67:	push   DWORD PTR [edx+0x220]
  401d6d:	push   DWORD PTR [edx+0x37c]
  401d73:	push   DWORD PTR [edx+0x418]
  401d79:	push   DWORD PTR [edx+0x2a4]
  401d7f:	call   0x401da8
  401d84:	add    esp,0x10
  401d87:	pop    edx
  401d88:	push   edx
  401d89:	mov    ecx,0x0
  401d8e:	push   ecx
  401d8f:	push   0x403078
  401d94:	pop    eax
  401d95:	call   DWORD PTR cs:[eax]
  401d98:	pop    edx
  401d99:	sub    esp,0xffffffd0
  401d9c:	mov    ebp,DWORD PTR [esp]
  401d9f:	add    esp,0x4
  401da2:	ret    
  401da3:	add    BYTE PTR [eax],al
  401da5:	add    BYTE PTR [eax],al
  401da7:	add    BYTE PTR [ebx-0x1374aa01],cl
  401dad:	sub    esp,0x28
  401db0:	push   edx
  401db1:	push   DWORD PTR [edx+0x3f0]
  401db7:	push   DWORD PTR [edx+0x24c]
  401dbd:	push   DWORD PTR [edx+0x1ec]
  401dc3:	call   0x401000
  401dc8:	add    esp,0xc
  401dcb:	pop    edx
  401dcc:	push   edx
  401dcd:	push   0x0
  401dcf:	push   0x40303c
  401dd4:	pop    eax
  401dd5:	call   DWORD PTR cs:[eax]
  401dd8:	pop    edx
  401dd9:	push   edx
  401dda:	mov    esi,0x0
  401ddf:	push   esi
  401de0:	push   0x403018
  401de5:	pop    eax
  401de6:	call   DWORD PTR cs:[eax]
  401de9:	pop    edx
  401dea:	sub    esp,0xffffffd8
  401ded:	mov    ebp,DWORD PTR [esp]
  401df0:	add    esp,0x4
  401df3:	ret    
  401df4:	add    BYTE PTR [eax],al
  401df6:	add    BYTE PTR [eax],al
  401df8:	mov    edi,edi
  401dfa:	push   ebp
  401dfb:	mov    ebp,esp
  401dfd:	sub    esp,0x58
  401e00:	push   edx
  401e01:	push   0x40304c
  401e06:	pop    eax
  401e07:	call   DWORD PTR cs:[eax]
  401e0a:	pop    edx
  401e0b:	push   edx
  401e0c:	push   DWORD PTR [edx+0x15c]
  401e12:	push   DWORD PTR [edx+0x7c]
  401e15:	push   esi
  401e16:	call   0x401454
  401e1b:	add    esp,0xc
  401e1e:	pop    edx
  401e1f:	push   edx
  401e20:	push   0x0
  401e22:	push   0x403044
  401e27:	pop    eax
  401e28:	call   DWORD PTR cs:[eax]
  401e2b:	pop    edx
  401e2c:	sub    esp,0xffffffa8
  401e2f:	mov    ebp,DWORD PTR [esp]
  401e32:	add    esp,0x4
  401e35:	ret    
  401e36:	add    BYTE PTR [eax],al
  401e38:	add    BYTE PTR [eax],al
  401e3a:	add    BYTE PTR [eax],al
  401e3c:	mov    edi,edi
  401e3e:	push   ebp
  401e3f:	mov    ebp,esp
  401e41:	sub    esp,0x4c
  401e44:	push   edx
  401e45:	push   0x403010
  401e4a:	pop    eax
  401e4b:	call   DWORD PTR cs:[eax]
  401e4e:	pop    edx
  401e4f:	push   edx
  401e50:	push   ebx
  401e51:	push   DWORD PTR [edx+0x19c]
  401e57:	push   DWORD PTR [edx+0x4]
  401e5a:	push   DWORD PTR [edx+0x260]
  401e60:	call   0x4015b8
  401e65:	add    esp,0x10
  401e68:	pop    edx
  401e69:	push   edx
  401e6a:	mov    esi,0x0
  401e6f:	push   esi
  401e70:	push   0x403018
  401e75:	pop    eax
  401e76:	call   DWORD PTR cs:[eax]
  401e79:	pop    edx
  401e7a:	sub    esp,0xffffffb4
  401e7d:	mov    ebp,DWORD PTR [esp]
  401e80:	add    esp,0x4
  401e83:	ret    
  401e84:	call   0xf6866585
  401e89:	xchg   BYTE PTR [ebx+0x41],al
  401e8c:	mov    ebx,0x772eaf7a
  401e91:	ins    DWORD PTR es:[edi],dx
  401e92:	cs push esi
  401e94:	xor    eax,0xae0c9b40
  401e99:	add    al,0x9a
  401e9b:	mov    bl,0x8e
  401e9d:	bswap  eax
  401e9f:	std    
  401ea0:	out    dx,eax
  401ea1:	sahf   
  401ea2:	mov    ecx,0xc7c70097
  401ea7:	add    DWORD PTR [eax],eax
  401ea9:	mov    edi,0xc6e30001
  401eaf:	jg     0x401ef2
  401eb1:	retf   0xa27e
  401eb4:	mov    ebp,0x310580a8
  401eb9:	imul   esi,eax,0xffffffe2
  401ebc:	add    DWORD PTR ds:0x251691a3,ecx
  401ec2:	gs ins BYTE PTR es:[edi],dx
  401ec4:	pop    eax
  401ec5:	push   edi
  401ec6:	inc    eax
  401ec7:	push   ss
  401ec8:	or     DWORD PTR [edx+0x32],eax
  401ecb:	imul   ecx,DWORD PTR [ecx],0xffffffff
  401ece:	mov    edx,0xbcd552e7
  401ed3:	ins    BYTE PTR es:[edi],dx
  401ed4:	mov    esi,0x81d8533b
  401ed9:	push   esp
  401eda:	js     0x401ed3
  401edc:	pop    edx
  401edd:	call   0xf444a4d2
  401ee2:	mov    ch,0xa0
  401ee4:	jge    0x401eca
  401ee6:	adc    BYTE PTR [eax],al
  401ee8:	add    DWORD PTR [eax],edx
  401eea:	adc    al,0x1d
  401eec:	sbb    ebp,DWORD PTR [edi+0x468a0000]
  401ef2:	(bad)  
  401ef3:	adc    BYTE PTR [esi+edx*4],dl
  401ef6:	and    eax,0x60f2ae1
  401efb:	call   0x3110:0x20092406
  401f02:	sbb    edx,DWORD PTR [edi+0x76dd5ba9]
  401f08:	ins    DWORD PTR es:[edi],dx
  401f09:	mov    DWORD PTR [eax+0x13],esp
  401f0c:	xor    eax,0x2102650d
  401f11:	add    BYTE PTR [edx+eax*1],al
  401f14:	and    eax,0x5c1d9a32
  401f19:	jbe    0x401f30
  401f1b:	push   eax
  401f1c:	add    BYTE PTR [edx+0x702b6291],0xc4
  401f23:	xchg   ebx,eax
  401f24:	adc    DWORD PTR [eax],eax
  401f26:	add    al,ah
  401f28:	cmps   DWORD PTR ds:[esi],DWORD PTR es:[edi]
  401f29:	push   0xff6b6a00
  401f2e:	push   ebp
  401f2f:	push   ss
  401f30:	pushf  
  401f31:	lods   eax,DWORD PTR ds:[esi]
  401f32:	cli    
  401f33:	cdq    
  401f34:	cwde   
  401f35:	add    eax,0xb5dedbf8
  401f3a:	aam    0xf9
  401f3c:	stc    
  401f3d:	aam    0xf
  401f3f:	sub    eax,0xcffb9a7
  401f44:	push   esi
  401f45:	ret    
  401f46:	call   0xc428acd8
  401f4b:	stc    
  401f4c:	add    al,BYTE PTR [edi-0x238cdecc]
  401f52:	jl     0x401fae
  401f54:	add    eax,0x3f6f00fb
  401f59:	call   0x6ab2aa5e
  401f5e:	add    BYTE PTR [edi+0x6b],ch
  401f61:	call   FWORD PTR [edi]
  401f63:	pushf  
  401f64:	cmp    al,0x8a
  401f66:	stos   BYTE PTR es:[edi],al
  401f67:	sub    BYTE PTR [eax+ebx*1+0x3c6b3d97],ah
  401f6e:	adc    eax,0x47cca74
  401f73:	push   ecx
  401f74:	push   es
  401f75:	pop    es
  401f76:	(bad)  [ecx+0x78]
  401f79:	cmps   DWORD PTR ds:[esi],DWORD PTR es:[edi]
  401f7a:	add    BYTE PTR [ecx-0x364fb057],ch
  401f80:	loope  0x401f6a
  401f82:	sbb    dh,bl
  401f84:	int3   
  401f85:	cmp    al,0x8d
  401f87:	pop    es
  401f88:	add    ebp,ebx
  401f8a:	retf   
  401f8b:	push   es
  401f8c:	push   edi
  401f8d:	test   DWORD PTR [esi+0x73],0x22581962
  401f94:	inc    ecx
  401f95:	dec    ecx
  401f96:	mov    dl,0x4e
  401f98:	ins    DWORD PTR es:[edi],dx
  401f99:	loope  0x401fb0
  401f9b:	sbb    al,0x69
  401f9d:	xor    al,0x6a
  401f9f:	xor    al,0x0
  401fa1:	jno    0x402003
  401fa3:	push   ebx
  401fa4:	push   ebx
  401fa5:	push   es
  401fa6:	pusha  
  401fa7:	je     0x401f9e
  401fa9:	jl     0x401fb0
  401fab:	stos   DWORD PTR es:[edi],eax
  401fac:	aas    
  401fad:	push   esp
  401fae:	cmp    ebp,DWORD PTR [esi]
  401fb0:	push   ebx
  401fb1:	add    DWORD PTR [eax],ecx
  401fb3:	ds aas 
  401fb5:	push   cs
  401fb6:	add    ch,BYTE PTR [esp+eax*1+0x77e1cddc]
  401fbd:	cmp    al,0x2f
  401fbf:	or     BYTE PTR [esi-0xe],bl
  401fc2:	jmp    DWORD PTR [ebx-0x49a93d2c]
  401fc8:	je     0x401f58
  401fca:	mov    bh,0x93
  401fcc:	xchg   esp,eax
  401fcd:	lods   eax,DWORD PTR cs:[esi]
  401fcf:	xor    esi,DWORD PTR [edi-0x577bc9f]
  401fd5:	sbb    esi,esi
  401fd7:	dec    BYTE PTR [esi-0x29]
  401fda:	test   BYTE PTR [edi+0x72a00e52],bh
  401fe0:	ss dec ebx
  401fe2:	ret    0x8e1c
  401fe5:	xchg   edi,edi
  401fe7:	jnp    0x401fbc
  401fe9:	out    0xc4,eax
  401feb:	test   DWORD PTR [ecx],eax
  401fed:	(bad)  
  401fee:	pop    ebx
  401fef:	arpl   bx,ax
  401ff1:	in     al,dx
  401ff2:	arpl   WORD PTR [ebp+0x76],si
  401ff5:	call   0x14bb641e
  401ffa:	push   DWORD PTR [ebp+0x66]
  401ffd:	je     0x40206a
  401fff:	jnp    0x402009
  402001:	test   al,dl
  402003:	inc    eax
  402004:	fmul   QWORD PTR [edi+0x50253a9]
  40200a:	test   ecx,ebx
  40200c:	cmp    DWORD PTR [ebp+0x6],edx
  40200f:	push   es
  402010:	push   edi
  402011:	pop    es
  402012:	or     BYTE PTR [ebx],dh
  402014:	ins    DWORD PTR es:[edi],dx
  402015:	int3   
  402016:	add    cl,BYTE PTR [eax+ebx*2]
  402019:	or     BYTE PTR [ebx-0x8],cl
  40201c:	aas    
  40201d:	das    
  40201e:	mov    al,ds:0xc5a758ff
  402023:	jo     0x402070
  402025:	dec    ecx
  402026:	mov    edx,0x29e958bd
  40202b:	mov    DWORD PTR [ecx],0x1e88ae9
  402031:	xor    DWORD PTR [eax+0x186968],0x28760000
  40203b:	push   esi
  40203c:	ficom  DWORD PTR [ebx-0x78e6f002]
  402042:	dec    DWORD PTR [ebx-0x220c9fff]
  402048:	add    al,0xff
  40204a:	add    BYTE PTR fs:[ecx-0x75],bl
  40204e:	inc    eax
  40204f:	cmp    al,0x80
  402051:	add    BYTE PTR [edi+0x34146061],al
  402057:	(bad)
  40205b:	scas   eax,DWORD PTR es:[edi]
  40205c:	jnp    0x402045
  40205e:	and    al,0x88
  402060:	dec    ecx
  402061:	sbb    BYTE PTR [edi-0x3477a706],al
  402067:	shl    al,0xef
  40206a:	mov    bl,BYTE PTR [eax+0x6d]
  40206d:	out    dx,eax
  40206e:	out    dx,eax
  40206f:	cmp    DWORD PTR [esi-0x9],edx
  402072:	inc    esi
  402073:	imul   edi,DWORD PTR [eax+0x44],0xa1190ea1
  40207a:	fs xchg edx,ecx
  40207d:	xor    BYTE PTR [ecx+0x65767178],cl
  402083:	push   esp
  402084:	std    
  402085:	jbe    0x402084
  402087:	or     BYTE PTR [ecx],al
  402089:	pop    edi
  40208a:	jmp    0x7e1c:0x79bdd2b0
  402091:	je     0x40202f
  402093:	mov    dh,0x3a
  402095:	call   0x791a59ea
  40209a:	pop    eax
  40209b:	add    al,0x3
  40209d:	pop    eax
  40209e:	js     0x402094
  4020a0:	mov    eax,DWORD PTR gs:[esi+eiz*1]
  4020a4:	in     al,dx
  4020a5:	add    BYTE PTR [edi+0x424010f],ch
  4020ab:	cmp    BYTE PTR [edx+0x64500424],cl
  4020b1:	(bad)  
  4020b2:	out    0x14,eax
  4020b4:	in     al,dx
  4020b5:	xor    bl,al
  4020b7:	inc    ebp
  4020b8:	dec    ebx
  4020b9:	mov    BYTE PTR [ebp+0xb],al
  4020bc:	xor    DWORD PTR [esi+0x7472b98b],0xf8f70373
  4020c6:	or     bh,dl
  4020c8:	mov    al,BYTE PTR [ecx-0x70916601]
  4020ce:	test   al,0x7a
  4020d0:	test   eax,0xb6c37e53
  4020d5:	adc    DWORD PTR [ebx-0x56],0x235457a9
  4020dc:	fisub  DWORD PTR [esi]
  4020de:	adc    BYTE PTR [esi-0x9],dl
  4020e1:	fwait
  4020e2:	mov    BYTE PTR [esi],ah
  4020e4:	sub    edi,DWORD PTR [esi]
  4020e6:	dec    BYTE PTR [eax]
  4020e8:	xlat   BYTE PTR ds:[ebx]
  4020e9:	or     BYTE PTR [ebx+0x4b],0x91
  4020ed:	fisub  DWORD PTR [edi+0x543f7f]
  4020f3:	or     DWORD PTR [edi+0x7],edx
  4020f6:	or     BYTE PTR [edx+ebx*8],bh
  4020f9:	or     dl,al
  4020fb:	aas    
  4020fc:	push   ecx
  4020fd:	adc    eax,0x657cd8d
  402102:	movs   BYTE PTR es:[edi],BYTE PTR ds:[esi]
  402103:	xchg   ebx,eax
  402104:	pop    ebx
  402105:	cdq    
  402106:	or     al,dl
  402108:	mov    ch,0x9e
  40210a:	add    al,0x57
  40210c:	add    DWORD PTR [ecx+0xd70019b],ebp
  402112:	inc    esp
  402113:	add    eax,DWORD PTR [eax]
  402115:	popa   
  402116:	jb     0x402113
  402118:	(bad)  
  402119:	jg     0x402190
  40211b:	std    
  40211c:	mov    dh,BYTE PTR [ebx+ebp*2+0x0]
  402120:	test   eax,0xa9f8f1c
  402125:	hlt    
  402126:	push   esi
  402127:	or     eax,0xb10f0a02
  40212c:	or     DWORD PTR [edi-0x29aaaaff],ebp
  402132:	cmp    DWORD PTR [ebx-0x8],eax
  402135:	dec    ecx
  402136:	loop   0x4020d3
  402138:	mov    ds:0x78605cea,al
  40213d:	sar    ch,1
  40213f:	pop    esp
  402140:	adc    BYTE PTR [eax],ah
  402142:	aaa    
  402143:	ja     0x40219b
  402145:	cmp    edx,edx
  402147:	mov    esi,0x590f8494
  40214c:	add    al,0xa4
  40214e:	add    BYTE PTR [eax],al
  402150:	add    DWORD PTR [ebx-0x495ed1ee],ecx
  402156:	mov    eax,DWORD PTR [ebp-0x7e7bf08e]
  40215c:	add    BYTE PTR [edi+ecx*1-0x7452080b],0xf8
  402164:	cld    
  402165:	jo     0x402164
  402167:	js     0x4021b7
  402169:	add    BYTE PTR [edx+0x543b0351],ch
  40216f:	lods   al,BYTE PTR ds:[esi]
  402170:	imul   edx,DWORD PTR [edx+ebp*2],0xf8835850
  402177:	add    al,0x55
  402179:	add    BYTE PTR [edi+0x6a14693f],0x50
  402180:	pop    eax
  402181:	adc    DWORD PTR [esp],0x57811425
  402188:	add    BYTE PTR [esi+0x1c],dl
  40218b:	jmp    FWORD PTR [ecx-0x859f100]
  402191:	jno    0x402157
  402193:	add    al,0xdd
  402195:	add    dl,bh
  402197:	inc    esp
  402198:	ins    DWORD PTR es:[edi],dx
  402199:	cmp    ah,cl
  40219b:	mov    eax,0xe54462f2
  4021a0:	int3   
  4021a1:	lods   eax,DWORD PTR ds:[esi]
  4021a2:	push   esi
  4021a3:	mov    ah,0x7d
  4021a5:	adc    eax,0xff0ea6ff
  4021aa:	and    al,0x1c
  4021ac:	sbb    al,0xe3
  4021ae:	out    dx,al
  4021af:	pop    ecx
  4021b0:	xlat   BYTE PTR ds:[ebx]
  4021b1:	stos   BYTE PTR es:[edi],al
  4021b2:	mov    BYTE PTR [ebx],0x56
  4021b5:	jbe    0x4021cb
  4021b7:	jb     0x402187
  4021b9:	cmp    BYTE PTR [edx+0x41],dl
  4021bc:	adc    DWORD PTR [eax],eax
  4021be:	aas    
  4021bf:	mov    bl,0x6a
  4021c1:	push   ebx
  4021c2:	push   eax
  4021c3:	dec    esi
  4021c5:	cmp    BYTE PTR [eax+edi*8],al
  4021c8:	adc    DWORD PTR [eax],eax
  4021ca:	aas    
  4021cb:	mov    cl,0x84
  4021cd:	jae    0x4021cf
  4021cf:	adc    BYTE PTR [ecx],dl
  4021d1:	add    bl,bl
  4021d3:	push   ecx
  4021d4:	pop    eax
  4021d5:	add    BYTE PTR [ebp+0xc],dl
  4021d8:	push   edi
  4021d9:	or     al,0xa7
  4021db:	push   esp
  4021dc:	ficom  WORD PTR [ecx-0x491c24d4]
  4021e2:	test   eax,0x21cde36e
  4021e7:	pushf  
  4021e8:	jae    0x4021c0
  4021ea:	scas   al,BYTE PTR es:[edi]
  4021eb:	les    ecx,FWORD PTR [edi-0x15]
  4021ee:	mov    edi,0xe89b497e
  4021f3:	mov    eax,DWORD PTR [ecx]
  4021f5:	call   0xec3f68f5
  4021fa:	push   edx
  4021fb:	pop    ds
  4021fc:	push   ds
  4021fd:	mov    ecx,0xff0a17ff
  402202:	(bad)  
  402203:	jmp    FWORD PTR [eax+0x1e1f846]
  402209:	pop    es
  40220a:	push   ecx
  40220b:	adc    dh,0xe8
  40220e:	add    BYTE PTR [edx+ebx*2-0x6124348c],cl
  402215:	cmp    eax,0xe801d08b
  40221a:	into   
  40221b:	inc    esi
  40221c:	inc    edi
  40221e:	fs (bad) 
  402220:	jb     0x402263
  402222:	pop    ss
  402223:	inc    ecx
  402224:	mov    esi,0xf2bfcae8
  402229:	scas   eax,DWORD PTR es:[edi]
  40222a:	ds aaa 
  40222c:	rol    BYTE PTR [eax],0x54
  40222f:	in     al,0x2a
  402231:	add    eax,0x808923c5
  402236:	sar    DWORD PTR [eax-0x79],0x98
  40223a:	cvtdq2ps xmm1,xmm3
  40223d:	dec    esi
  40223e:	sub    al,0xf2
  402240:	dec    eax
  402241:	add    DWORD PTR [eax],ebx
  402243:	mov    al,0xbe
  402245:	stc    
  402246:	int3   
  402247:	inc    eax
  402248:	or     edi,DWORD PTR [ecx-0x8123dc]
  40224e:	(bad)  
  40224f:	(bad)  
  402250:	out    dx,eax
  402251:	dec    eax
  402252:	repz ret 
  402254:	or     DWORD PTR [ebp+0xe],ebx
  402257:	pop    es
  402258:	or     DWORD PTR [ecx-0x9149af],edi
  40225e:	(bad)  
  40225f:	jmp    DWORD PTR [ebp-0x857fe9]
  402265:	jg     0x4022c9
  402267:	sub    eax,0x3c9e9551
  40226c:	xchg   ecx,eax
  40226d:	mov    al,ds:0xc8a739f4
  402272:	rcl    DWORD PTR [ecx+0x1],0x48
  402276:	push   esp
  402277:	mov    DWORD PTR [edx+0x1004876],ecx
  40227d:	dec    eax
  40227e:	jbe    0x402211
  402280:	xchg   edx,eax
  402281:	push   esp
  402282:	dec    eax
  402283:	add    BYTE PTR [ecx],al
  402285:	dec    eax
  402286:	push   esp
  402287:	cdq    
  402288:	call   0x7048:0x1004870
  40228f:	mov    eax,ds:0x4834a2
  402294:	add    DWORD PTR [eax+0x34],ecx
  402297:	test   eax,0x4870aa
  40229c:	add    DWORD PTR [eax+0x70],ecx
  40229f:	mov    cl,0xb2
  4022a1:	xor    al,0x48
  4022a3:	add    BYTE PTR [ecx],al
  4022a5:	dec    eax
  4022a6:	xor    al,0xb9
  4022a8:	mov    WORD PTR [ebp-0x255d3cef],?
  4022ae:	mov    esp,0x91094dc7
  4022b3:	mov    al,bh
  4022b5:	adc    dh,BYTE PTR [eax+eax*1-0x74]
  4022b9:	jge    0x40230f
  4022bb:	mov    al,BYTE PTR [ebp+0x42207b21]
  4022c1:	(bad)  
  4022c2:	je     0x4022c3
  4022c4:	add    DWORD PTR [ecx+0x3b],esp
  4022c7:	mov    BYTE PTR [eax-0x6b],ah
  4022ca:	pop    ebp
  4022cb:	mov    edx,DWORD PTR [edx-0x49]
  4022ce:	and    BYTE PTR [ebx-0x7724cf40],dh
  4022d4:	add    DWORD PTR [eax],edi
  4022d6:	inc    ebp
  4022d7:	mov    ecx,DWORD PTR ds:0xa9af3b00
  4022dd:	adc    ebx,DWORD PTR [ecx+0x5c]
  4022e0:	fsub   QWORD PTR [ecx-0x34b20e4d]
  4022e6:	clc    
  4022e7:	mov    eax,DWORD PTR [ecx]
  4022e9:	dec    eax
  4022ea:	mov    cl,0xac
  4022ec:	popa   
  4022ed:	test   eax,0x8776f8c3
  4022f2:	popf   
  4022f3:	and    BYTE PTR ds:0xc6e90cbd,al
  4022f9:	sbb    BYTE PTR [eax],al
  4022fb:	add    BYTE PTR [ecx],al
  4022fd:	mov    ebp,DWORD PTR [eax-0x73]
  402300:	jle    0x40231a
  402302:	mov    eax,DWORD PTR [eax]
  402304:	or     eax,0xa9ae3b00
  402309:	adc    ecx,DWORD PTR [ebp+0x4102b500]
  40230f:	add    eax,0x4004cedc
  402314:	or     al,0x2e
  402316:	stos   DWORD PTR es:[edi],eax
  402317:	sub    bh,BYTE PTR [eax-0x6f0c5a9c]
  40231d:	inc    eax
  40231e:	sub    al,0x79
  402320:	movs   DWORD PTR es:[edi],DWORD PTR ds:[esi]
  402321:	dec    esp
  402322:	shl    DWORD PTR [ebx-0x33],0x83
  402326:	pusha  
  402327:	ret    
  402328:	imul   esp,DWORD PTR [eax+eax*1],0xd2310120
  40232f:	add    ch,BYTE PTR [ebx-0x64]
  402332:	cmp    edi,edi
  402334:	test   eax,0x8dd8e114
  402339:	fsub   st,st(3)
  40233b:	add    BYTE PTR [eax+0x74],ah
  40233e:	pop    ss
  40233f:	jo     0x40237a
  402341:	inc    edi
  402342:	retf   
  402343:	or     BYTE PTR [eax+0x11cc3c0],dh
  402349:	rol    BYTE PTR ds:0x4684b54b,0x54
  402350:	add    BYTE PTR [ecx-0x6a41b3ac],bh
  402356:	mov    dh,BYTE PTR [esi-0x626a754f]
  40235c:	call   0x4d24:0x351db91
  402363:	cmc    
  402364:	push   ecx
  402365:	xchg   ebp,eax
  402366:	popa   
  402367:	ret    
  402368:	mov    ds:0xf25449ea,al
  40236d:	cmps   DWORD PTR ds:[esi],DWORD PTR es:[edi]
  40236e:	sbb    cl,BYTE PTR [edx-0x33861654]
  402374:	and    al,0x0
  402376:	xchg   dh,al
  402378:	std    
  402379:	cmps   BYTE PTR ds:[esi],BYTE PTR es:[edi]
  40237a:	mov    ebx,DWORD PTR [eax+esi*2]
  40237d:	add    DWORD PTR ds:0x6130d425,ebp
  402383:	xchg   BYTE PTR [esp+edx*1+0x50],al
  402387:	add    cl,dh
  402389:	sub    DWORD PTR [esi],esp
  40238b:	jp     0x40234c
  40238d:	push   edx
  40238e:	cmp    al,0x46
  402390:	jmp    0x1442480
  402395:	pop    edx
  402396:	call   0x723c17b3
  40239b:	enter  0x5ef4,0xa0
  40239f:	jbe    0x40241c
  4023a1:	pop    ebx
  4023a2:	add    BYTE PTR [edi+0x58],ah
  4023a5:	or     BYTE PTR [edi+0x26],bl
  4023a8:	gs add al,bh
  4023ab:	retf   0x88bc
  4023ae:	icebp  
  4023af:	sbb    eax,0xb63e6540
  4023b4:	cdq    
  4023b5:	cwde   
  4023b6:	dec    ebx
  4023b7:	out    0xed,al
  4023b9:	popa   
  4023ba:	dec    edx
  4023bb:	cmp    esp,DWORD PTR [ebp+0x16f8a81]
  4023c1:	push   0x741bab60
  4023c6:	or     BYTE PTR cs:0x12040743,cl
  4023cd:	daa    
  4023ce:	xchg   edx,eax
  4023cf:	cmp    eax,0x16947a50
  4023d4:	jl     0x40236a
  4023d6:	jp     0x402429
  4023d8:	push   esp
  4023d9:	jp     0x40236f
  4023db:	jl     0x402417
  4023dd:	stos   BYTE PTR es:[edi],al
  4023de:	test   DWORD PTR [eax+0x2],ebp
  4023e1:	outs   dx,BYTE PTR ds:[esi]
  4023e2:	push   ds
  4023e3:	sub    ecx,DWORD PTR [edi]
  4023e5:	adc    bl,BYTE PTR [ecx]
  4023e7:	sbb    DWORD PTR [ebx],eax
  4023e9:	and    esi,DWORD PTR [esi]
  4023eb:	xchg   edi,eax
  4023ec:	test   eax,0xc9b6d758
  4023f1:	or     al,bh
  4023f3:	add    eax,0x66cb9a05
  4023f8:	bound  edx,QWORD PTR [esi]
  4023fa:	xchg   ebp,eax
  4023fb:	add    DWORD PTR [eax-0x59],ebx
  4023fe:	push   es
  4023ff:	push   ebx
  402400:	add    eax,0xbf5a5f3a
  402405:	and    DWORD PTR [edx+0x50],ebp
  402408:	add    DWORD PTR [ebx-0x45933e6],ecx
  40240e:	cdq    
  40240f:	add    BYTE PTR [ecx],al
  402411:	adc    ch,BYTE PTR [ebp-0x5b66a27a]
  402417:	inc    edi
  402418:	retf   
  402419:	bound  ebx,QWORD PTR [eax-0x2c]
  40241c:	repnz push edx
  40241e:	jbe    0x402403
  402420:	ret    
  402421:	call   0x1b4f278
  402426:	cmps   DWORD PTR ds:[esi],DWORD PTR es:[edi]
  402427:	call   FWORD PTR [eax-0x59]
  40242a:	sub    DWORD PTR [edi],eax
  40242c:	leave  
  40242d:	loop   0x4023ca
  40242f:	push   esp
  402430:	pop    eax
  402431:	adc    dh,BYTE PTR [esp+eiz*8]
  402434:	ja     0x40248b
  402436:	sar    bh,1
  402438:	pop    esi
  402439:	lea    eax,[ebp-0x12]
  40243c:	hlt    
  40243d:	test   DWORD PTR [ecx-0x2fdf332c],ecx
  402443:	ficomp WORD PTR [eax+edx*1+0x24]
  402447:	inc    esp
  402448:	add    DWORD PTR [eax],eax
  40244a:	add    BYTE PTR [eax+0x69],ch
  40244d:	add    BYTE PTR [eax],al
  40244f:	add    ah,al
  402451:	xor    si,si
  402454:	xchg   ecx,eax
  402455:	mov    DWORD PTR [ebx],ebp
  402457:	cdq    
  402458:	cmp    eax,0xe255dce0
  40245d:	adc    ah,BYTE PTR [ebp+0x640a6ee7]
  402463:	rol    BYTE PTR [ecx],1
  402465:	sti    
  402466:	out    dx,eax
  402467:	arpl   dx,dx
  402469:	adc    ebp,DWORD PTR [edi-0x1]
  40246c:	mov    DWORD PTR [ebp+0x75],esi
  40246f:	sub    BYTE PTR [ebp-0x13],cl
  402472:	dec    ebx
  402473:	and    eax,0x24523716
  402478:	jns    0x402413
  40247a:	jmp    0x4024f2
  40247c:	loop   0x402491
  40247e:	dec    ebp
  40247f:	movs   DWORD PTR es:[edi],DWORD PTR ds:[esi]
  402480:	xchg   ecx,eax
  402481:	sar    DWORD PTR [ecx+edx*4+0x554b0b6d],cl
  402488:	jno    0x402504
  40248a:	sub    esp,ebx
  40248c:	ret    
  40248d:	sub    eax,DWORD PTR [ecx]
  40248f:	mov    dh,0x21
  402491:	call   FWORD PTR [ecx-0x6bdbb010]
  402497:	mov    BYTE PTR [edi+0x0],ch
  40249a:	jge    0x402437
  40249c:	adc    DWORD PTR [eax],eax
  40249e:	aas    
  40249f:	outs   dx,BYTE PTR ds:[esi]
  4024a0:	imul   ebp,DWORD PTR [eax-0x5a63efab],0x7e
  4024a7:	in     al,dx
  4024a8:	jmp    0x8ccc152d
  4024ad:	cld    
  4024ae:	imul   eax,DWORD PTR [eax],0xdcfc6806
  4024b4:	add    edi,edi
  4024b6:	push   ebp
  4024b7:	and    DWORD PTR [ebx+0x55],ecx
  4024ba:	xchg   edi,eax
  4024bb:	rol    DWORD PTR [ecx+0x6e000068],cl
  4024c1:	push   0x0
  4024c3:	push   0x68
  4024c5:	push   0x8001036a
  4024ca:	aas    
  4024cb:	(bad)  
  4024cc:	test   eax,0xc1c40173
  4024d1:	and    BYTE PTR [edx*2-0x4a66f3c],0x2e
  4024d9:	mov    ds:0x5ec06144,eax
  4024de:	(bad)  
  4024df:	aam    0x4a
  4024e1:	jno    0x402515
  4024e3:	into   
  4024e4:	bound  esp,QWORD PTR [ebp+0x76]
  4024e7:	aam    0x1e
  4024e9:	sbb    edx,DWORD PTR [ecx-0x7c]
  4024ec:	sub    ebp,DWORD PTR [ebp+0x52]
  4024ef:	pop    edi
  4024f0:	lds    edx,FWORD PTR [edx+0x27b3bc5d]
  4024f6:	dec    esi
  4024f7:	xchg   DWORD PTR [ecx+0x6e],ecx
  4024fa:	mov    eax,0xadfbd425
  4024ff:	jns    0x4024b6
  402501:	xchg   ebx,eax
  402502:	adc    DWORD PTR [esi],esi
  402504:	sub    al,0x8f
  402506:	xchg   edx,eax
  402507:	lea    esi,[eax-0x5c713a9c]
  40250d:	cmp    ch,dh
  40250f:	aas    
  402510:	adc    al,0xa6
  402512:	movs   DWORD PTR es:[edi],DWORD PTR ds:[esi]
  402513:	cmps   BYTE PTR ds:[esi],BYTE PTR es:[edi]
  402514:	lea    esp,[edi-0x3ad51cf8]
  40251a:	add    al,0xd7
  40251c:	jnp    0x4024db
  40251e:	push   ds
  40251f:	clc    
  402520:	xchg   DWORD PTR [ebx+0x12602],edx
  402526:	add    BYTE PTR [edi+0x1],dh
  40252c:	add    DWORD PTR [eax],eax
  40252e:	add    BYTE PTR [eax],al
  402530:	add    DWORD PTR [eax],eax
  402532:	add    BYTE PTR [eax],al
  402534:	add    DWORD PTR [eax],eax
  402536:	add    BYTE PTR [eax],al
  402538:	add    DWORD PTR [eax],eax
  40253a:	add    BYTE PTR [eax],al
  40253c:	add    DWORD PTR [eax+0x7a01007a],edi
  402542:	cwde   
  402543:	add    eax,0x42004
  402548:	add    DWORD PTR [edi+0x7b27347b],eax
  40254e:	add    DWORD PTR [eax],0xffffff90
  402551:	addr16 in eax,0xc4
  402554:	pop    edx
  402555:	(bad)  
  402556:	sbb    BYTE PTR [esi+0x60],bh
  402559:	test   eax,0x6ce55f3
  40255e:	mov    WORD PTR [edi+0x55428d6c],ds
  402564:	jns    0x402509
  402566:	std    
  402567:	pop    ss
  402568:	xchg   esi,eax
  402569:	dec    ecx
  40256a:	jle    0x40253a
  40256c:	sbb    eax,0xb4d580cd
  402571:	ins    DWORD PTR es:[edi],dx
  402572:	in     al,0x37
