
8d3e5cd10f49e3df7c301d49a746d3f9d32efed921ed5e1bab8a5ffee0d2de15.exe:     file format pei-i386


Disassembly of section .text:

004c1000 <.text>:
  4c1000:	mov    edi,edi
  4c1002:	push   ebp
  4c1003:	mov    ebp,esp
  4c1005:	sub    esp,0x2c
  4c1008:	lea    ecx,ds:0x4c3000
  4c100e:	sbb    DWORD PTR [ebp-0x20],0x7c
  4c1012:	push   ecx
  4c1013:	mov    edx,0x0
  4c1018:	push   edx
  4c1019:	call   0x4c176c
  4c101e:	pop    ecx
  4c101f:	push   ecx
  4c1020:	push   DWORD PTR [ecx+0x50]
  4c1023:	push   DWORD PTR [ecx+0x50]
  4c1026:	push   eax
  4c1027:	push   DWORD PTR [ecx+0xd8]
  4c102d:	call   0x4c1988
  4c1032:	add    esp,0x10
  4c1035:	pop    ecx
  4c1036:	push   ecx
  4c1037:	mov    edx,0x0
  4c103c:	push   edx
  4c103d:	call   0x4c1348
  4c1042:	pop    ecx
  4c1043:	add    esp,0x2c
  4c1046:	pop    ebp
  4c1047:	ret    
  4c1048:	pop    edi
  4c1049:	call   DWORD PTR ds:0x4c2700
  4c104f:	push   edi
  4c1050:	repz ret 0x0
  4c1054:	pop    edi
  4c1055:	call   DWORD PTR ds:0x4c2718
  4c105b:	push   edi
  4c105c:	repz ret 0x0
  4c1060:	mov    edi,edi
  4c1062:	push   ebp
  4c1063:	mov    ebp,esp
  4c1065:	sub    esp,0x40
  4c1068:	mov    edi,0x4c30ac
  4c106d:	mov    ebx,edi
  4c106f:	push   edi
  4c1070:	push   DWORD PTR [edi+0x13c]
  4c1076:	push   ecx
  4c1077:	push   ebx
  4c1078:	push   DWORD PTR [edi+0xdc]
  4c107e:	call   0x4c1944
  4c1083:	add    esp,0x10
  4c1086:	pop    edi
  4c1087:	push   edi
  4c1088:	push   0x0
  4c108a:	call   0x4c1e70
  4c108f:	pop    edi
  4c1090:	mov    edx,0x4c2734
  4c1095:	mov    edx,DWORD PTR [edx]
  4c1097:	push   edx
  4c1098:	push   DWORD PTR [edi+0x14c]
  4c109e:	pop    ebx
  4c109f:	call   ebx
  4c10a1:	add    esp,0x40
  4c10a4:	pop    ebp
  4c10a5:	ret    
  4c10a6:	add    BYTE PTR [eax],al
  4c10a8:	mov    edi,edi
  4c10aa:	push   ebp
  4c10ab:	mov    ebp,esp
  4c10ad:	sub    esp,0x24
  4c10b0:	lea    ebx,[esi+0x14c]
  4c10b6:	and    DWORD PTR [ebx-0x160],0xffffffec
  4c10bd:	push   ebx
  4c10be:	push   edx
  4c10bf:	push   DWORD PTR [ebx+0x80]
  4c10c5:	call   0x4c15d0
  4c10ca:	add    esp,0x8
  4c10cd:	pop    ebx
  4c10ce:	call   0x4c1054
  4c10d3:	mov    edi,0x0
  4c10d8:	push   edi
  4c10d9:	call   0x4c1e70
  4c10de:	add    esp,0x24
  4c10e1:	pop    ebp
  4c10e2:	ret    
  4c10e3:	add    BYTE PTR [edi-0x1],bl
  4c10e6:	adc    eax,0x4c2744
  4c10eb:	push   edi
  4c10ec:	repz ret 0x0
  4c10f0:	mov    edi,edi
  4c10f2:	push   ebp
  4c10f3:	mov    ebp,esp
  4c10f5:	sub    esp,0x24
  4c10f8:	lea    edi,[edx-0xf4]
  4c10fe:	sub    ecx,edi
  4c1100:	push   edi
  4c1101:	mov    eax,0x0
  4c1106:	push   eax
  4c1107:	call   0x4c1e70
  4c110c:	pop    edi
  4c110d:	push   edi
  4c110e:	push   ebx
  4c110f:	push   edx
  4c1110:	push   edx
  4c1111:	call   0x4c12b8
  4c1116:	add    esp,0xc
  4c1119:	pop    edi
  4c111a:	push   edi
  4c111b:	mov    edi,0x0
  4c1120:	push   edi
  4c1121:	call   0x4c16f8
  4c1126:	pop    edi
  4c1127:	add    esp,0x24
  4c112a:	pop    ebp
  4c112b:	ret    
  4c112c:	pop    edi
  4c112d:	call   DWORD PTR ds:0x4c271c
  4c1133:	push   edi
  4c1134:	repz ret 0x0
  4c1138:	mov    edi,edi
  4c113a:	push   ebp
  4c113b:	mov    ebp,esp
  4c113d:	sub    esp,0x60
  4c1140:	lea    ebx,[esi+0xb4]
  4c1146:	sbb    DWORD PTR [ebx-0x20],0x6a
  4c114a:	push   0x0
  4c114c:	call   0x4c133c
  4c1151:	push   ebx
  4c1152:	push   edi
  4c1153:	push   edx
  4c1154:	call   0x4c1178
  4c1159:	add    esp,0x8
  4c115c:	pop    ebx
  4c115d:	push   0x0
  4c115f:	call   0x4c133c
  4c1164:	add    esp,0x60
  4c1167:	pop    ebp
  4c1168:	ret    
  4c1169:	add    BYTE PTR [eax],al
  4c116b:	add    BYTE PTR [edi-0x1],bl
  4c116e:	adc    eax,0x4c275c
  4c1173:	push   edi
  4c1174:	repz ret 0x0
  4c1178:	mov    edi,edi
  4c117a:	push   ebp
  4c117b:	mov    ebp,esp
  4c117d:	sub    esp,0x48
  4c1180:	mov    edi,0x4c31a4
  4c1185:	adc    DWORD PTR [edi-0x120],edi
  4c118b:	push   edi
  4c118c:	push   esi
  4c118d:	push   DWORD PTR [edi+0x1d0]
  4c1193:	call   0x4c18b8
  4c1198:	add    esp,0x8
  4c119b:	pop    edi
  4c119c:	push   edi
  4c119d:	lea    eax,[edi-0x1a4]
  4c11a3:	push   eax
  4c11a4:	call   0x4c12ac
  4c11a9:	test   eax,eax
  4c11ab:	jne    0x4c119d
  4c11ad:	pop    edi
  4c11ae:	push   edi
  4c11af:	lea    ecx,[edi-0x1a4]
  4c11b5:	push   ecx
  4c11b6:	call   0x4c12ac
  4c11bb:	test   eax,eax
  4c11bd:	jne    0x4c11af
  4c11bf:	pop    edi
  4c11c0:	add    esp,0x48
  4c11c3:	pop    ebp
  4c11c4:	ret    
  4c11c5:	add    BYTE PTR [eax],al
  4c11c7:	add    BYTE PTR [edi-0x1],bl
  4c11ca:	adc    eax,0x4c2758
  4c11cf:	push   edi
  4c11d0:	repz ret 0x0
  4c11d4:	pop    edi
  4c11d5:	call   DWORD PTR ds:0x4c26ec
  4c11db:	push   edi
  4c11dc:	repz ret 0x0
  4c11e0:	mov    edi,edi
  4c11e2:	push   ebp
  4c11e3:	mov    ebp,esp
  4c11e5:	sub    esp,0x44
  4c11e8:	mov    esi,0x4c31e4
  4c11ed:	adc    DWORD PTR [esi-0x1b8],ecx
  4c11f3:	mov    ebx,0x0
  4c11f8:	push   ebx
  4c11f9:	call   0x4c1348
  4c11fe:	push   esi
  4c11ff:	push   ebx
  4c1200:	push   edi
  4c1201:	call   0x4c1ed4
  4c1206:	add    esp,0x8
  4c1209:	pop    esi
  4c120a:	lea    ebx,[esi-0x1e4]
  4c1210:	push   ebx
  4c1211:	call   0x4c12ac
  4c1216:	test   eax,eax
  4c1218:	jne    0x4c120b
  4c121a:	add    esp,0x44
  4c121d:	pop    ebp
  4c121e:	ret    
  4c121f:	add    BYTE PTR [edi-0x1],bl
  4c1222:	adc    eax,0x4c2778
  4c1227:	push   edi
  4c1228:	repz ret 0x0
  4c122c:	mov    edi,edi
  4c122e:	push   ebp
  4c122f:	mov    ebp,esp
  4c1231:	sub    esp,0x4c
  4c1234:	lea    esi,[edi-0x48]
  4c1237:	or     DWORD PTR [esi+0x1c],esi
  4c123a:	push   esi
  4c123b:	push   edi
  4c123c:	push   DWORD PTR [esi+0x70]
  4c123f:	call   0x4c1138
  4c1244:	add    esp,0x8
  4c1247:	pop    esi
  4c1248:	call   0x4c1054
  4c124d:	lea    ecx,[esi-0x70]
  4c1250:	push   ecx
  4c1251:	call   0x4c12ac
  4c1256:	test   eax,eax
  4c1258:	jne    0x4c124e
  4c125a:	add    esp,0x4c
  4c125d:	pop    ebp
  4c125e:	ret    
  4c125f:	add    BYTE PTR [ebx-0x1374aa01],cl
  4c1265:	sub    esp,0x34
  4c1268:	lea    edx,ds:0x4c3148
  4c126e:	mov    ecx,DWORD PTR [edx+0x6c]
  4c1271:	push   edx
  4c1272:	push   DWORD PTR [edx+0x40]
  4c1275:	push   edi
  4c1276:	push   ebx
  4c1277:	push   DWORD PTR [edx+0x60]
  4c127a:	call   0x4c10f0
  4c127f:	add    esp,0x10
  4c1282:	pop    edx
  4c1283:	push   edx
  4c1284:	push   0x0
  4c1286:	call   0x4c1b14
  4c128b:	pop    edx
  4c128c:	push   edx
  4c128d:	mov    ecx,0x0
  4c1292:	push   ecx
  4c1293:	call   0x4c16f8
  4c1298:	pop    edx
  4c1299:	add    esp,0x34
  4c129c:	pop    ebp
  4c129d:	ret    
  4c129e:	add    BYTE PTR [eax],al
  4c12a0:	pop    edi
  4c12a1:	call   DWORD PTR ds:0x4c2714
  4c12a7:	push   edi
  4c12a8:	repz ret 0x0
  4c12ac:	pop    edi
  4c12ad:	call   DWORD PTR ds:0x4c2734
  4c12b3:	push   edi
  4c12b4:	repz ret 0x0
  4c12b8:	mov    edi,edi
  4c12ba:	push   ebp
  4c12bb:	mov    ebp,esp
  4c12bd:	sub    esp,0x50
  4c12c0:	mov    ebx,0x4c3154
  4c12c5:	adc    DWORD PTR [ebp-0x48],0x73
  4c12c9:	push   ebx
  4c12ca:	push   edi
  4c12cb:	push   DWORD PTR [ebx+0x174]
  4c12d1:	push   edi
  4c12d2:	call   0x4c17c0
  4c12d7:	add    esp,0xc
  4c12da:	pop    ebx
  4c12db:	push   0x0
  4c12dd:	call   0x4c1e70
  4c12e2:	mov    ecx,0x0
  4c12e7:	push   ecx
  4c12e8:	call   0x4c11d4
  4c12ed:	add    esp,0x50
  4c12f0:	pop    ebp
  4c12f1:	ret    
  4c12f2:	add    BYTE PTR [eax],al
  4c12f4:	mov    edi,edi
  4c12f6:	push   ebp
  4c12f7:	mov    ebp,esp
  4c12f9:	sub    esp,0x38
  4c12fc:	mov    eax,0x4c3190
  4c1301:	cmp    eax,0x6bc1
  4c1306:	jbe    0x4c12f7
  4c1308:	push   eax
  4c1309:	push   edi
  4c130a:	push   DWORD PTR [eax+0xb4]
  4c1310:	push   DWORD PTR [eax+0x1c]
  4c1313:	push   DWORD PTR [eax+0x1e8]
  4c1319:	call   0x4c13e8
  4c131e:	add    esp,0x10
  4c1321:	pop    eax
  4c1322:	push   eax
  4c1323:	push   0x0
  4c1325:	call   0x4c176c
  4c132a:	pop    eax
  4c132b:	push   eax
  4c132c:	push   0x0
  4c132e:	call   0x4c13dc
  4c1333:	pop    eax
  4c1334:	add    esp,0x38
  4c1337:	pop    ebp
  4c1338:	ret    
  4c1339:	add    BYTE PTR [eax],al
  4c133b:	add    BYTE PTR [edi-0x1],bl
  4c133e:	adc    eax,0x4c26f8
  4c1343:	push   edi
  4c1344:	repz ret 0x0
  4c1348:	pop    edi
  4c1349:	call   DWORD PTR ds:0x4c26e8
  4c134f:	push   edi
  4c1350:	repz ret 0x0
  4c1354:	mov    edi,edi
  4c1356:	push   ebp
  4c1357:	mov    ebp,esp
  4c1359:	sub    esp,0x28
  4c135c:	lea    esi,ds:0x4c30d4
  4c1362:	mov    eax,DWORD PTR [esi+0xac]
  4c1368:	push   esi
  4c1369:	push   DWORD PTR [esi+0x104]
  4c136f:	push   DWORD PTR [esi+0x1d8]
  4c1375:	push   eax
  4c1376:	call   0x4c1d10
  4c137b:	add    esp,0xc
  4c137e:	pop    esi
  4c137f:	call   0x4c1600
  4c1384:	call   0x4c1600
  4c1389:	add    esp,0x28
  4c138c:	pop    ebp
  4c138d:	ret    
  4c138e:	add    BYTE PTR [eax],al
  4c1390:	mov    edi,edi
  4c1392:	push   ebp
  4c1393:	mov    ebp,esp
  4c1395:	sub    esp,0x30
  4c1398:	lea    edx,[ebx-0x24]
  4c139b:	and    eax,ebx
  4c139d:	push   edx
  4c139e:	call   0x4c1054
  4c13a3:	pop    edx
  4c13a4:	push   edx
  4c13a5:	push   ebx
  4c13a6:	push   DWORD PTR [edx+0x10c]
  4c13ac:	push   DWORD PTR [edx+0x34]
  4c13af:	push   DWORD PTR [edx+0x18c]
  4c13b5:	call   0x4c1ad8
  4c13ba:	add    esp,0x10
  4c13bd:	pop    edx
  4c13be:	push   edx
  4c13bf:	mov    ebx,0x0
  4c13c4:	push   ebx
  4c13c5:	call   0x4c11d4
  4c13ca:	pop    edx
  4c13cb:	add    esp,0x30
  4c13ce:	pop    ebp
  4c13cf:	ret    
  4c13d0:	pop    edi
  4c13d1:	call   DWORD PTR ds:0x4c276c
  4c13d7:	push   edi
  4c13d8:	repz ret 0x0
  4c13dc:	pop    edi
  4c13dd:	call   DWORD PTR ds:0x4c2728
  4c13e3:	push   edi
  4c13e4:	repz ret 0x0
  4c13e8:	mov    edi,edi
  4c13ea:	push   ebp
  4c13eb:	mov    ebp,esp
  4c13ed:	sub    esp,0x54
  4c13f0:	mov    edi,0x4c3150
  4c13f5:	sbb    DWORD PTR [edi+0x5c],edx
  4c13f8:	push   edi
  4c13f9:	push   DWORD PTR [edi+0x94]
  4c13ff:	push   DWORD PTR [edi+0x134]
  4c1405:	push   DWORD PTR [edi+0x74]
  4c1408:	call   0x4c1354
  4c140d:	add    esp,0xc
  4c1410:	pop    edi
  4c1411:	push   edi
  4c1412:	call   0x4c1054
  4c1417:	pop    edi
  4c1418:	push   edi
  4c1419:	lea    edx,[edi-0x150]
  4c141f:	push   edx
  4c1420:	call   0x4c12ac
  4c1425:	test   eax,eax
  4c1427:	jne    0x4c1419
  4c1429:	pop    edi
  4c142a:	add    esp,0x54
  4c142d:	pop    ebp
  4c142e:	ret    
  4c142f:	add    BYTE PTR [ebx-0x1374aa01],cl
  4c1435:	sub    esp,0x30
  4c1438:	lea    edi,ds:0x4c3048
  4c143e:	add    ecx,DWORD PTR [edi-0x1c]
  4c1441:	push   edi
  4c1442:	push   0x0
  4c1444:	call   0x4c1778
  4c1449:	pop    edi
  4c144a:	push   edi
  4c144b:	push   eax
  4c144c:	push   ebx
  4c144d:	call   0x4c1de8
  4c1452:	add    esp,0x8
  4c1455:	pop    edi
  4c1456:	push   edi
  4c1457:	mov    edx,0x0
  4c145c:	push   edx
  4c145d:	call   0x4c16f8
  4c1462:	pop    edi
  4c1463:	add    esp,0x30
  4c1466:	pop    ebp
  4c1467:	ret    
  4c1468:	pop    edi
  4c1469:	call   DWORD PTR ds:0x4c2754
  4c146f:	push   edi
  4c1470:	repz ret 0x0
  4c1474:	push   edi
  4c1475:	push   0x0
  4c1477:	push   0x0
  4c1479:	push   0x0
  4c147b:	push   0x0
  4c147d:	call   0x4c1e70
  4c1482:	sub    esp,0xfffffff8
  4c1485:	call   0x4c1e70
  4c148a:	push   0x4c30a0
  4c148f:	pop    eax
  4c1490:	push   0x2
  4c1492:	push   0x0
  4c1494:	dec    DWORD PTR ds:0x4c30a7
  4c149a:	push   eax
  4c149b:	call   0x4c1a18
  4c14a0:	pop    edi
  4c14a1:	mov    edi,DWORD PTR [eax+0x3b]
  4c14a4:	lea    eax,[eax+edi*1]
  4c14a7:	add    eax,0x28
  4c14aa:	mov    eax,DWORD PTR [eax]
  4c14ac:	pusha  
  4c14ad:	mov    ah,0x30
  4c14af:	sub    al,ah
  4c14b1:	jb     0x4c14b9
  4c14b3:	jg     0x4c1060
  4c14b9:	popa   
  4c14ba:	ret    
  4c14bb:	add    BYTE PTR [ebx-0x1374aa01],cl
  4c14c1:	sub    esp,0x50
  4c14c4:	mov    edx,0x4c3150
  4c14c9:	cmp    edx,0xa06
  4c14cf:	jb     0x4c14bf
  4c14d1:	push   edx
  4c14d2:	call   0x4c112c
  4c14d7:	pop    edx
  4c14d8:	push   edx
  4c14d9:	push   eax
  4c14da:	push   ebx
  4c14db:	push   ebx
  4c14dc:	call   0x4c154c
  4c14e1:	add    esp,0xc
  4c14e4:	pop    edx
  4c14e5:	push   edx
  4c14e6:	call   0x4c1054
  4c14eb:	pop    edx
  4c14ec:	add    esp,0x50
  4c14ef:	pop    ebp
  4c14f0:	ret    
  4c14f1:	add    BYTE PTR [eax],al
  4c14f3:	add    BYTE PTR [edi-0x1],bl
  4c14f6:	adc    eax,0x4c2710
  4c14fb:	push   edi
  4c14fc:	repz ret 0x0
  4c1500:	mov    edi,edi
  4c1502:	push   ebp
  4c1503:	mov    ebp,esp
  4c1505:	sub    esp,0x40
  4c1508:	lea    edi,ds:0x4c31fc
  4c150e:	sbb    DWORD PTR [edi-0x1f0],0xffffa170
  4c1518:	push   edi
  4c1519:	push   eax
  4c151a:	push   DWORD PTR [edi+0x17c]
  4c1520:	push   DWORD PTR [edi+0x84]
  4c1526:	call   0x4c18f0
  4c152b:	add    esp,0xc
  4c152e:	pop    edi
  4c152f:	push   edi
  4c1530:	push   0x0
  4c1532:	call   0x4c16f8
  4c1537:	pop    edi
  4c1538:	push   edi
  4c1539:	mov    edx,0x0
  4c153e:	push   edx
  4c153f:	call   0x4c13dc
  4c1544:	pop    edi
  4c1545:	add    esp,0x40
  4c1548:	pop    ebp
  4c1549:	ret    
  4c154a:	add    BYTE PTR [eax],al
  4c154c:	mov    edi,edi
  4c154e:	push   ebp
  4c154f:	mov    ebp,esp
  4c1551:	sub    esp,0x40
  4c1554:	lea    esi,ds:0x4c3190
  4c155a:	mov    eax,ebx
  4c155c:	push   esi
  4c155d:	push   edi
  4c155e:	push   ebx
  4c155f:	push   edx
  4c1560:	push   DWORD PTR [esi+0xb8]
  4c1566:	call   0x4c1e34
  4c156b:	add    esp,0x10
  4c156e:	pop    esi
  4c156f:	push   0x0
  4c1571:	call   0x4c11d4
  4c1576:	mov    edx,0x0
  4c157b:	push   edx
  4c157c:	call   0x4c1778
  4c1581:	add    esp,0x40
  4c1584:	pop    ebp
  4c1585:	ret    
  4c1586:	add    BYTE PTR [eax],al
  4c1588:	mov    edi,edi
  4c158a:	push   ebp
  4c158b:	mov    ebp,esp
  4c158d:	sub    esp,0x38
  4c1590:	lea    edx,[eax-0x84]
  4c1596:	and    ebx,ecx
  4c1598:	push   edx
  4c1599:	push   ebx
  4c159a:	push   DWORD PTR [edx+0xb8]
  4c15a0:	push   DWORD PTR [edx+0x108]
  4c15a6:	push   edi
  4c15a7:	call   0x4c1c48
  4c15ac:	add    esp,0x10
  4c15af:	pop    edx
  4c15b0:	push   edx
  4c15b1:	call   0x4c14f4
  4c15b6:	pop    edx
  4c15b7:	push   edx
  4c15b8:	call   0x4c14f4
  4c15bd:	pop    edx
  4c15be:	add    esp,0x38
  4c15c1:	pop    ebp
  4c15c2:	ret    
  4c15c3:	add    BYTE PTR [edi-0x1],bl
  4c15c6:	adc    eax,0x4c273c
  4c15cb:	push   edi
  4c15cc:	repz ret 0x0
  4c15d0:	mov    edi,edi
  4c15d2:	push   ebp
  4c15d3:	mov    ebp,esp
  4c15d5:	sub    esp,0x3c
  4c15d8:	lea    esi,[ebx-0x4]
  4c15db:	or     DWORD PTR [ebp-0x38],0xffffe417
  4c15e2:	call   0x4c112c
  4c15e7:	push   esi
  4c15e8:	push   DWORD PTR [esi+0x7c]
  4c15eb:	push   ecx
  4c15ec:	call   0x4c1874
  4c15f1:	add    esp,0x8
  4c15f4:	pop    esi
  4c15f5:	call   0x4c1054
  4c15fa:	add    esp,0x3c
  4c15fd:	pop    ebp
  4c15fe:	ret    
  4c15ff:	add    BYTE PTR [edi-0x1],bl
  4c1602:	adc    eax,0x4c2730
  4c1607:	push   edi
  4c1608:	repz ret 0x0
  4c160c:	pop    edi
  4c160d:	call   DWORD PTR ds:0x4c2774
  4c1613:	push   edi
  4c1614:	repz ret 0x0
  4c1618:	mov    edi,edi
  4c161a:	push   ebp
  4c161b:	mov    ebp,esp
  4c161d:	sub    esp,0x60
  4c1620:	lea    eax,[ecx+0xd0]
  4c1626:	mov    DWORD PTR [eax-0x15c],0x55a9
  4c1630:	push   eax
  4c1631:	call   0x4c112c
  4c1636:	pop    eax
  4c1637:	push   eax
  4c1638:	push   esi
  4c1639:	push   DWORD PTR [eax+0x1e4]
  4c163f:	push   edi
  4c1640:	call   0x4c1814
  4c1645:	add    esp,0xc
  4c1648:	pop    eax
  4c1649:	push   eax
  4c164a:	mov    eax,0x0
  4c164f:	push   eax
  4c1650:	call   0x4c176c
  4c1655:	pop    eax
  4c1656:	add    esp,0x60
  4c1659:	pop    ebp
  4c165a:	ret    
  4c165b:	add    BYTE PTR [edi-0x1],bl
  4c165e:	adc    eax,0x4c2708
  4c1663:	push   edi
  4c1664:	repz ret 0x0
  4c1668:	mov    edi,edi
  4c166a:	push   ebp
  4c166b:	mov    ebp,esp
  4c166d:	sub    esp,0x28
  4c1670:	mov    eax,0x4c3134
  4c1675:	sub    DWORD PTR [eax+0x58],eax
  4c1678:	push   eax
  4c1679:	push   edi
  4c167a:	push   DWORD PTR [eax+0x124]
  4c1680:	call   0x4c1500
  4c1685:	add    esp,0x8
  4c1688:	pop    eax
  4c1689:	push   eax
  4c168a:	mov    edx,0x0
  4c168f:	push   edx
  4c1690:	call   0x4c1348
  4c1695:	pop    eax
  4c1696:	push   eax
  4c1697:	mov    edi,0x0
  4c169c:	push   edi
  4c169d:	call   0x4c16f8
  4c16a2:	pop    eax
  4c16a3:	add    esp,0x28
  4c16a6:	pop    ebp
  4c16a7:	ret    
  4c16a8:	pop    edi
  4c16a9:	call   DWORD PTR ds:0x4c272c
  4c16af:	push   edi
  4c16b0:	repz ret 0x0
  4c16b4:	mov    edi,edi
  4c16b6:	push   ebp
  4c16b7:	mov    ebp,esp
  4c16b9:	sub    esp,0x30
  4c16bc:	mov    eax,0x4c31d4
  4c16c1:	sbb    ecx,DWORD PTR [eax-0xc4]
  4c16c7:	push   eax
  4c16c8:	push   esi
  4c16c9:	push   DWORD PTR [eax+0x134]
  4c16cf:	call   0x4c1784
  4c16d4:	add    esp,0x8
  4c16d7:	pop    eax
  4c16d8:	push   eax
  4c16d9:	lea    edx,[eax-0x1d4]
  4c16df:	push   edx
  4c16e0:	call   0x4c12ac
  4c16e5:	test   eax,eax
  4c16e7:	jne    0x4c16d9
  4c16e9:	pop    eax
  4c16ea:	push   eax
  4c16eb:	call   0x4c1054
  4c16f0:	pop    eax
  4c16f1:	add    esp,0x30
  4c16f4:	pop    ebp
  4c16f5:	ret    
  4c16f6:	add    BYTE PTR [eax],al
  4c16f8:	pop    edi
  4c16f9:	call   DWORD PTR ds:0x4c274c
  4c16ff:	push   edi
  4c1700:	repz ret 0x0
  4c1704:	pop    edi
  4c1705:	call   DWORD PTR ds:0x4c2764
  4c170b:	push   edi
  4c170c:	repz ret 0x0
  4c1710:	mov    edi,edi
  4c1712:	push   ebp
  4c1713:	mov    ebp,esp
  4c1715:	sub    esp,0x24
  4c1718:	lea    edx,[edi+0x3c]
  4c171b:	mov    DWORD PTR [ebp-0x1c],0x7ebf
  4c1722:	push   edx
  4c1723:	call   0x4c14f4
  4c1728:	pop    edx
  4c1729:	push   edx
  4c172a:	push   ebx
  4c172b:	push   ebx
  4c172c:	push   DWORD PTR [edx+0xa4]
  4c1732:	push   DWORD PTR [edx+0x198]
  4c1738:	call   0x4c11e0
  4c173d:	add    esp,0x10
  4c1740:	pop    edx
  4c1741:	push   edx
  4c1742:	mov    edi,0x0
  4c1747:	push   edi
  4c1748:	call   0x4c11d4
  4c174d:	pop    edx
  4c174e:	add    esp,0x24
  4c1751:	pop    ebp
  4c1752:	ret    
  4c1753:	add    BYTE PTR [edi-0x1],bl
  4c1756:	adc    eax,0x4c2784
  4c175b:	push   edi
  4c175c:	repz ret 0x0
  4c1760:	pop    edi
  4c1761:	call   DWORD PTR ds:0x4c277c
  4c1767:	push   edi
  4c1768:	repz ret 0x0
  4c176c:	pop    edi
  4c176d:	call   DWORD PTR ds:0x4c2720
  4c1773:	push   edi
  4c1774:	repz ret 0x0
  4c1778:	pop    edi
  4c1779:	call   DWORD PTR ds:0x4c2740
  4c177f:	push   edi
  4c1780:	repz ret 0x0
  4c1784:	mov    edi,edi
  4c1786:	push   ebp
  4c1787:	mov    ebp,esp
  4c1789:	sub    esp,0x28
  4c178c:	lea    edx,[eax-0x5c]
  4c178f:	mov    DWORD PTR [ebp-0x14],0x4ad9
  4c1796:	push   edx
  4c1797:	push   esi
  4c1798:	push   DWORD PTR [edx+0xc8]
  4c179e:	push   DWORD PTR [edx+0x40]
  4c17a1:	call   0x4c1da8
  4c17a6:	add    esp,0xc
  4c17a9:	pop    edx
  4c17aa:	push   edx
  4c17ab:	call   0x4c112c
  4c17b0:	pop    edx
  4c17b1:	push   edx
  4c17b2:	push   0x0
  4c17b4:	call   0x4c1348
  4c17b9:	pop    edx
  4c17ba:	add    esp,0x28
  4c17bd:	pop    ebp
  4c17be:	ret    
  4c17bf:	add    BYTE PTR [ebx-0x1374aa01],cl
  4c17c5:	sub    esp,0x54
  4c17c8:	lea    ecx,ds:0x4c3074
  4c17ce:	cmp    ecx,0x4504
  4c17d4:	je     0x4c17c3
  4c17d6:	push   ecx
  4c17d7:	push   0x0
  4c17d9:	call   0x4c1e70
  4c17de:	pop    ecx
  4c17df:	push   ecx
  4c17e0:	push   DWORD PTR [ecx+0x64]
  4c17e3:	push   eax
  4c17e4:	push   DWORD PTR [ecx+0xa0]
  4c17ea:	call   0x4c1d64
  4c17ef:	add    esp,0xc
  4c17f2:	pop    ecx
  4c17f3:	push   ecx
  4c17f4:	mov    edx,0x0
  4c17f9:	push   edx
  4c17fa:	call   0x4c176c
  4c17ff:	pop    ecx
  4c1800:	add    esp,0x54
  4c1803:	pop    ebp
  4c1804:	ret    
  4c1805:	add    BYTE PTR [eax],al
  4c1807:	add    BYTE PTR [edi-0x1],bl
  4c180a:	adc    eax,0x4c2704
  4c180f:	push   edi
  4c1810:	repz ret 0x0
  4c1814:	mov    edi,edi
  4c1816:	push   ebp
  4c1817:	mov    ebp,esp
  4c1819:	sub    esp,0x54
  4c181c:	lea    ecx,[eax-0xc0]
  4c1822:	mov    edx,DWORD PTR [ebp-0x4c]
  4c1825:	push   ecx
  4c1826:	mov    eax,0x0
  4c182b:	push   eax
  4c182c:	call   0x4c176c
  4c1831:	pop    ecx
  4c1832:	push   ecx
  4c1833:	push   edi
  4c1834:	push   DWORD PTR [ecx+0x1d8]
  4c183a:	push   DWORD PTR [ecx+0x154]
  4c1840:	push   DWORD PTR [ecx+0x13c]
  4c1846:	call   0x4c14bc
  4c184b:	add    esp,0x10
  4c184e:	pop    ecx
  4c184f:	push   ecx
  4c1850:	lea    esi,[ecx-0xf0]
  4c1856:	push   esi
  4c1857:	call   0x4c12ac
  4c185c:	test   eax,eax
  4c185e:	jne    0x4c1850
  4c1860:	pop    ecx
  4c1861:	add    esp,0x54
  4c1864:	pop    ebp
  4c1865:	ret    
  4c1866:	add    BYTE PTR [eax],al
  4c1868:	pop    edi
  4c1869:	call   DWORD PTR ds:0x4c2724
  4c186f:	push   edi
  4c1870:	repz ret 0x0
  4c1874:	mov    edi,edi
  4c1876:	push   ebp
  4c1877:	mov    ebp,esp
  4c1879:	sub    esp,0x34
  4c187c:	lea    ebx,ds:0x4c301c
  4c1882:	cmp    ebx,0x7c5f
  4c1888:	jbe    0x4c1877
  4c188a:	call   0x4c14f4
  4c188f:	push   ebx
  4c1890:	push   edx
  4c1891:	push   DWORD PTR [ebx+0x6c]
  4c1894:	push   DWORD PTR [ebx+0x15c]
  4c189a:	call   0x4c1b70
  4c189f:	add    esp,0xc
  4c18a2:	pop    ebx
  4c18a3:	lea    edx,[ebx-0x1c]
  4c18a6:	push   edx
  4c18a7:	call   0x4c12ac
  4c18ac:	test   eax,eax
  4c18ae:	jne    0x4c18a4
  4c18b0:	add    esp,0x34
  4c18b3:	pop    ebp
  4c18b4:	ret    
  4c18b5:	add    BYTE PTR [eax],al
  4c18b7:	add    BYTE PTR [ebx-0x1374aa01],cl
  4c18bd:	sub    esp,0x54
  4c18c0:	lea    esi,[edi-0x124]
  4c18c6:	mov    DWORD PTR [ebp-0x18],0x6e45
  4c18cd:	push   esi
  4c18ce:	push   ecx
  4c18cf:	push   edx
  4c18d0:	push   edx
  4c18d1:	call   0x4c10a8
  4c18d6:	add    esp,0xc
  4c18d9:	pop    esi
  4c18da:	push   0xfffffff4
  4c18dc:	call   0x4c1b20
  4c18e1:	push   0x0
  4c18e3:	call   0x4c1348
  4c18e8:	add    esp,0x54
  4c18eb:	pop    ebp
  4c18ec:	ret    
  4c18ed:	add    BYTE PTR [eax],al
  4c18ef:	add    BYTE PTR [ebx-0x1374aa01],cl
  4c18f5:	sub    esp,0x60
  4c18f8:	lea    eax,[edi-0x20]
  4c18fb:	cmp    eax,0x103e
  4c1900:	jb     0x4c18f3
  4c1902:	push   eax
  4c1903:	mov    eax,0x0
  4c1908:	push   eax
  4c1909:	call   0x4c16f8
  4c190e:	pop    eax
  4c190f:	push   eax
  4c1910:	push   edi
  4c1911:	push   DWORD PTR [eax+0xe4]
  4c1917:	call   0x4c1588
  4c191c:	add    esp,0x8
  4c191f:	pop    eax
  4c1920:	push   eax
  4c1921:	lea    ebx,[eax-0x1dc]
  4c1927:	push   ebx
  4c1928:	call   0x4c12ac
  4c192d:	test   eax,eax
  4c192f:	jne    0x4c1921
  4c1931:	pop    eax
  4c1932:	add    esp,0x60
  4c1935:	pop    ebp
  4c1936:	ret    
  4c1937:	add    BYTE PTR [edi-0x1],bl
  4c193a:	adc    eax,0x4c2770
  4c193f:	push   edi
  4c1940:	repz ret 0x0
  4c1944:	mov    edi,edi
  4c1946:	push   ebp
  4c1947:	mov    ebp,esp
  4c1949:	sub    esp,0x58
  4c194c:	lea    esi,[edi+0xfc]
  4c1952:	sub    edi,DWORD PTR [esi+0x54]
  4c1955:	mov    ecx,0x0
  4c195a:	push   ecx
  4c195b:	call   0x4c176c
  4c1960:	push   esi
  4c1961:	push   eax
  4c1962:	push   DWORD PTR [esi+0x94]
  4c1968:	push   edi
  4c1969:	push   DWORD PTR [esi+0x74]
  4c196c:	call   0x4c1c80
  4c1971:	add    esp,0x10
  4c1974:	pop    esi
  4c1975:	mov    edi,0x0
  4c197a:	push   edi
  4c197b:	call   0x4c1b14
  4c1980:	add    esp,0x58
  4c1983:	pop    ebp
  4c1984:	ret    
  4c1985:	add    BYTE PTR [eax],al
  4c1987:	add    BYTE PTR [ebx-0x1374aa01],cl
  4c198d:	sub    esp,0x50
  4c1990:	lea    eax,[ecx+0x1d8]
  4c1996:	cmp    eax,0x63ec
  4c199b:	jb     0x4c198b
  4c199d:	push   eax
  4c199e:	push   edi
  4c199f:	push   DWORD PTR [eax+0xe0]
  4c19a5:	call   0x4c19d0
  4c19aa:	add    esp,0x8
  4c19ad:	pop    eax
  4c19ae:	push   eax
  4c19af:	call   0x4c112c
  4c19b4:	pop    eax
  4c19b5:	push   eax
  4c19b6:	push   0x0
  4c19b8:	call   0x4c1348
  4c19bd:	pop    eax
  4c19be:	add    esp,0x50
  4c19c1:	pop    ebp
  4c19c2:	ret    
  4c19c3:	add    BYTE PTR [edi-0x1],bl
  4c19c6:	adc    eax,0x4c2780
  4c19cb:	push   edi
  4c19cc:	repz ret 0x0
  4c19d0:	mov    edi,edi
  4c19d2:	push   ebp
  4c19d3:	mov    ebp,esp
  4c19d5:	sub    esp,0x1c
  4c19d8:	mov    esi,0x4c3118
  4c19dd:	add    DWORD PTR [esi-0xe8],0xffffffe8
  4c19e4:	push   esi
  4c19e5:	push   DWORD PTR [esi+0x30]
  4c19e8:	push   DWORD PTR [esi+0x4]
  4c19eb:	push   ecx
  4c19ec:	push   DWORD PTR [esi+0x13c]
  4c19f2:	call   0x4c1b38
  4c19f7:	add    esp,0x10
  4c19fa:	pop    esi
  4c19fb:	lea    eax,[esi-0x118]
  4c1a01:	push   eax
  4c1a02:	call   0x4c12ac
  4c1a07:	test   eax,eax
  4c1a09:	jne    0x4c19fc
  4c1a0b:	push   0xfffffff4
  4c1a0d:	call   0x4c1b20
  4c1a12:	add    esp,0x1c
  4c1a15:	pop    ebp
  4c1a16:	ret    
  4c1a17:	add    BYTE PTR [edi-0x1],bl
  4c1a1a:	adc    eax,0x4c270c
  4c1a1f:	push   edi
  4c1a20:	repz ret 0x0
  4c1a24:	mov    edi,edi
  4c1a26:	push   ebp
  4c1a27:	mov    ebp,esp
  4c1a29:	sub    esp,0x38
  4c1a2c:	mov    ebx,0x4c30e8
  4c1a31:	add    DWORD PTR [ebp-0x34],0x2d
  4c1a35:	push   ebx
  4c1a36:	push   DWORD PTR [ebx+0x90]
  4c1a3c:	push   eax
  4c1a3d:	call   0x4c1390
  4c1a42:	add    esp,0x8
  4c1a45:	pop    ebx
  4c1a46:	push   0x0
  4c1a48:	call   0x4c13dc
  4c1a4d:	push   0x0
  4c1a4f:	call   0x4c11d4
  4c1a54:	add    esp,0x38
  4c1a57:	pop    ebp
  4c1a58:	ret    
  4c1a59:	add    BYTE PTR [eax],al
  4c1a5b:	add    BYTE PTR [ebx-0x1374aa01],cl
  4c1a61:	sub    esp,0x24
  4c1a64:	lea    ecx,[eax-0x68]
  4c1a67:	adc    eax,ebx
  4c1a69:	push   ecx
  4c1a6a:	push   0x0
  4c1a6c:	call   0x4c11d4
  4c1a71:	pop    ecx
  4c1a72:	push   ecx
  4c1a73:	push   DWORD PTR [ecx+0x150]
  4c1a79:	push   esi
  4c1a7a:	call   0x4c1e94
  4c1a7f:	add    esp,0x8
  4c1a82:	pop    ecx
  4c1a83:	push   ecx
  4c1a84:	call   0x4c112c
  4c1a89:	pop    ecx
  4c1a8a:	add    esp,0x24
  4c1a8d:	pop    ebp
  4c1a8e:	ret    
  4c1a8f:	add    BYTE PTR [ebx-0x1374aa01],cl
  4c1a95:	sub    esp,0x40
  4c1a98:	lea    edi,[ecx+0xbc]
  4c1a9e:	or     ebx,DWORD PTR [edi-0xc4]
  4c1aa4:	push   edi
  4c1aa5:	call   0x4c1600
  4c1aaa:	pop    edi
  4c1aab:	push   edi
  4c1aac:	push   esi
  4c1aad:	push   DWORD PTR [edi+0x150]
  4c1ab3:	push   edx
  4c1ab4:	call   0x4c1260
  4c1ab9:	add    esp,0xc
  4c1abc:	pop    edi
  4c1abd:	push   edi
  4c1abe:	call   0x4c14f4
  4c1ac3:	pop    edi
  4c1ac4:	add    esp,0x40
  4c1ac7:	pop    ebp
  4c1ac8:	ret    
  4c1ac9:	add    BYTE PTR [eax],al
  4c1acb:	add    BYTE PTR [edi-0x1],bl
  4c1ace:	adc    eax,0x4c26f0
  4c1ad3:	push   edi
  4c1ad4:	repz ret 0x0
  4c1ad8:	mov    edi,edi
  4c1ada:	push   ebp
  4c1adb:	mov    ebp,esp
  4c1add:	sub    esp,0x48
  4c1ae0:	lea    ecx,[edx+0x1c]
  4c1ae3:	mov    esi,ebx
  4c1ae5:	push   ecx
  4c1ae6:	push   edx
  4c1ae7:	push   DWORD PTR [ecx+0x40]
  4c1aea:	push   edx
  4c1aeb:	push   edi
  4c1aec:	call   0x4c1618
  4c1af1:	add    esp,0x10
  4c1af4:	pop    ecx
  4c1af5:	push   ecx
  4c1af6:	lea    edi,[ecx-0xe0]
  4c1afc:	push   edi
  4c1afd:	call   0x4c12ac
  4c1b02:	test   eax,eax
  4c1b04:	jne    0x4c1af6
  4c1b06:	pop    ecx
  4c1b07:	push   ecx
  4c1b08:	call   0x4c112c
  4c1b0d:	pop    ecx
  4c1b0e:	add    esp,0x48
  4c1b11:	pop    ebp
  4c1b12:	ret    
  4c1b13:	add    BYTE PTR [edi-0x1],bl
  4c1b16:	adc    eax,0x4c2750
  4c1b1b:	push   edi
  4c1b1c:	repz ret 0x0
  4c1b20:	pop    edi
  4c1b21:	call   DWORD PTR ds:0x4c26fc
  4c1b27:	push   edi
  4c1b28:	repz ret 0x0
  4c1b2c:	pop    edi
  4c1b2d:	call   DWORD PTR ds:0x4c2748
  4c1b33:	push   edi
  4c1b34:	repz ret 0x0
  4c1b38:	mov    edi,edi
  4c1b3a:	push   ebp
  4c1b3b:	mov    ebp,esp
  4c1b3d:	sub    esp,0x34
  4c1b40:	mov    edi,0x4c3090
  4c1b45:	adc    ecx,DWORD PTR [edi+0x114]
  4c1b4b:	push   edi
  4c1b4c:	call   0x4c1600
  4c1b51:	pop    edi
  4c1b52:	push   edi
  4c1b53:	push   esi
  4c1b54:	push   ebx
  4c1b55:	call   0x4c1668
  4c1b5a:	add    esp,0x8
  4c1b5d:	pop    edi
  4c1b5e:	push   edi
  4c1b5f:	mov    esi,0x0
  4c1b64:	push   esi
  4c1b65:	call   0x4c13dc
  4c1b6a:	pop    edi
  4c1b6b:	add    esp,0x34
  4c1b6e:	pop    ebp
  4c1b6f:	ret    
  4c1b70:	mov    edi,edi
  4c1b72:	push   ebp
  4c1b73:	mov    ebp,esp
  4c1b75:	sub    esp,0x30
  4c1b78:	lea    ecx,[ebx+0x100]
  4c1b7e:	add    eax,DWORD PTR [ebp-0x30]
  4c1b81:	push   ecx
  4c1b82:	push   edi
  4c1b83:	push   DWORD PTR [ecx+0x44]
  4c1b86:	push   DWORD PTR [ecx+0x70]
  4c1b89:	push   DWORD PTR [ecx+0xc4]
  4c1b8f:	call   0x4c1a24
  4c1b94:	add    esp,0x10
  4c1b97:	pop    ecx
  4c1b98:	push   ecx
  4c1b99:	mov    edx,0x0
  4c1b9e:	push   edx
  4c1b9f:	call   0x4c16f8
  4c1ba4:	pop    ecx
  4c1ba5:	push   ecx
  4c1ba6:	call   0x4c112c
  4c1bab:	pop    ecx
  4c1bac:	add    esp,0x30
  4c1baf:	pop    ebp
  4c1bb0:	ret    
  4c1bb1:	add    BYTE PTR [eax],al
  4c1bb3:	add    BYTE PTR [edi-0x1],bl
  4c1bb6:	adc    eax,0x4c2788
  4c1bbb:	push   edi
  4c1bbc:	repz ret 0x0
  4c1bc0:	mov    edi,edi
  4c1bc2:	push   ebp
  4c1bc3:	mov    ebp,esp
  4c1bc5:	sub    esp,0x58
  4c1bc8:	adc    edi,0x2d79
  4c1bce:	lea    esi,[ecx+0x34]
  4c1bd1:	mov    ebx,0x6a8
  4c1bd6:	push   ebx
  4c1bd7:	mov    ebx,0x6a8
  4c1bdc:	push   ebx
  4c1bdd:	mov    edx,0x40001
  4c1be2:	push   edx
  4c1be3:	mov    edx,0x86288c8e
  4c1be8:	push   DWORD PTR [edx+0x7a239a86]
  4c1bee:	sub    DWORD PTR [esp],0x2
  4c1bf2:	mov    edx,0x4c270c
  4c1bf7:	pop    DWORD PTR [edx]
  4c1bf9:	call   0x4c1a18
  4c1bfe:	push   eax
  4c1bff:	pop    DWORD PTR [esi]
  4c1c01:	mov    edi,DWORD PTR [esi]
  4c1c03:	lea    ecx,[edi]
  4c1c05:	sub    edx,edx
  4c1c07:	dec    edx
  4c1c08:	and    edx,0x4c2038
  4c1c0e:	mov    ebx,0x45a8d3e7
  4c1c13:	xor    edi,edi
  4c1c15:	add    edi,0x6a8
  4c1c1b:	cmp    edi,0x0
  4c1c1e:	je     0x4c1c3c
  4c1c20:	add    edi,0xfffffffc
  4c1c23:	xor    eax,eax
  4c1c25:	push   DWORD PTR [edx+eax*1]
  4c1c28:	sub    DWORD PTR [esp],ebx
  4c1c2b:	pop    DWORD PTR [ecx+eax*2]
  4c1c2e:	dec    DWORD PTR [ecx]
  4c1c30:	xor    ebx,ebx
  4c1c32:	add    ebx,DWORD PTR [edx]
  4c1c34:	add    edx,0x4
  4c1c37:	add    ecx,0x4
  4c1c3a:	jmp    0x4c1c1b
  4c1c3c:	call   0x4c14f4
  4c1c41:	add    esp,0x58
  4c1c44:	pop    ebp
  4c1c45:	ret    
  4c1c46:	add    BYTE PTR [eax],al
  4c1c48:	mov    edi,edi
  4c1c4a:	push   ebp
  4c1c4b:	mov    ebp,esp
  4c1c4d:	sub    esp,0x20
  4c1c50:	lea    edi,ds:0x4c30b8
  4c1c56:	and    edx,DWORD PTR [edi+0xc]
  4c1c59:	push   edi
  4c1c5a:	push   0x0
  4c1c5c:	call   0x4c1348
  4c1c61:	pop    edi
  4c1c62:	push   edi
  4c1c63:	push   esi
  4c1c64:	push   DWORD PTR [edi+0x190]
  4c1c6a:	push   edx
  4c1c6b:	call   0x4c122c
  4c1c70:	add    esp,0xc
  4c1c73:	pop    edi
  4c1c74:	push   edi
  4c1c75:	call   0x4c14f4
  4c1c7a:	pop    edi
  4c1c7b:	add    esp,0x20
  4c1c7e:	pop    ebp
  4c1c7f:	ret    
  4c1c80:	mov    edi,edi
  4c1c82:	push   ebp
  4c1c83:	mov    ebp,esp
  4c1c85:	sub    esp,0x48
  4c1c88:	lea    eax,[esi-0xe0]
  4c1c8e:	cmp    eax,0xe60
  4c1c93:	je     0x4c1c83
  4c1c95:	push   eax
  4c1c96:	call   0x4c1600
  4c1c9b:	pop    eax
  4c1c9c:	push   eax
  4c1c9d:	push   DWORD PTR [eax+0xec]
  4c1ca3:	push   DWORD PTR [eax+0x1c0]
  4c1ca9:	push   DWORD PTR [eax+0xe4]
  4c1caf:	call   0x4c1a5c
  4c1cb4:	add    esp,0xc
  4c1cb7:	pop    eax
  4c1cb8:	push   eax
  4c1cb9:	mov    esi,0x0
  4c1cbe:	push   esi
  4c1cbf:	call   0x4c1b14
  4c1cc4:	pop    eax
  4c1cc5:	add    esp,0x48
  4c1cc8:	pop    ebp
  4c1cc9:	ret    
  4c1cca:	add    BYTE PTR [eax],al
  4c1ccc:	mov    edi,edi
  4c1cce:	push   ebp
  4c1ccf:	mov    ebp,esp
  4c1cd1:	sub    esp,0x4c
  4c1cd4:	lea    eax,[ebx-0x8c]
  4c1cda:	cmp    eax,0x38a4
  4c1cdf:	jb     0x4c1ccf
  4c1ce1:	push   eax
  4c1ce2:	mov    edx,0x0
  4c1ce7:	push   edx
  4c1ce8:	call   0x4c176c
  4c1ced:	pop    eax
  4c1cee:	push   eax
  4c1cef:	push   ecx
  4c1cf0:	push   ebx
  4c1cf1:	push   esi
  4c1cf2:	push   DWORD PTR [eax+0x68]
  4c1cf5:	call   0x4c1430
  4c1cfa:	add    esp,0x10
  4c1cfd:	pop    eax
  4c1cfe:	push   eax
  4c1cff:	mov    esi,0x0
  4c1d04:	push   esi
  4c1d05:	call   0x4c16f8
  4c1d0a:	pop    eax
  4c1d0b:	add    esp,0x4c
  4c1d0e:	pop    ebp
  4c1d0f:	ret    
  4c1d10:	mov    edi,edi
  4c1d12:	push   ebp
  4c1d13:	mov    ebp,esp
  4c1d15:	sub    esp,0x34
  4c1d18:	mov    edi,0x4c3178
  4c1d1d:	mov    ecx,DWORD PTR [edi-0x48]
  4c1d20:	push   edi
  4c1d21:	push   DWORD PTR [edi+0x188]
  4c1d27:	push   esi
  4c1d28:	push   ebx
  4c1d29:	push   DWORD PTR [edi+0x180]
  4c1d2f:	call   0x4c1000
  4c1d34:	add    esp,0x10
  4c1d37:	pop    edi
  4c1d38:	push   edi
  4c1d39:	lea    eax,[edi-0x178]
  4c1d3f:	push   eax
  4c1d40:	call   0x4c12ac
  4c1d45:	test   eax,eax
  4c1d47:	jne    0x4c1d39
  4c1d49:	pop    edi
  4c1d4a:	push   edi
  4c1d4b:	lea    edx,[edi-0x178]
  4c1d51:	push   edx
  4c1d52:	call   0x4c12ac
  4c1d57:	test   eax,eax
  4c1d59:	jne    0x4c1d4b
  4c1d5b:	pop    edi
  4c1d5c:	add    esp,0x34
  4c1d5f:	pop    ebp
  4c1d60:	ret    
  4c1d61:	add    BYTE PTR [eax],al
  4c1d63:	add    BYTE PTR [ebx-0x1374aa01],cl
  4c1d69:	sub    esp,0x2c
  4c1d6c:	lea    edx,ds:0x4c31b4
  4c1d72:	sub    esi,DWORD PTR [ebp-0xc]
  4c1d75:	push   edx
  4c1d76:	call   0x4c1054
  4c1d7b:	pop    edx
  4c1d7c:	push   edx
  4c1d7d:	push   DWORD PTR [edx+0x184]
  4c1d83:	push   DWORD PTR [edx+0x164]
  4c1d89:	push   DWORD PTR [edx+0xc4]
  4c1d8f:	call   0x4c16b4
  4c1d94:	add    esp,0xc
  4c1d97:	pop    edx
  4c1d98:	push   edx
  4c1d99:	push   0x0
  4c1d9b:	call   0x4c1778
  4c1da0:	pop    edx
  4c1da1:	add    esp,0x2c
  4c1da4:	pop    ebp
  4c1da5:	ret    
  4c1da6:	add    BYTE PTR [eax],al
  4c1da8:	mov    edi,edi
  4c1daa:	push   ebp
  4c1dab:	mov    ebp,esp
  4c1dad:	sub    esp,0x2c
  4c1db0:	lea    edi,ds:0x4c30e4
  4c1db6:	sbb    DWORD PTR [ebp-0x14],0xffffffb7
  4c1dba:	push   edi
  4c1dbb:	mov    edi,0xfffffff4
  4c1dc0:	push   edi
  4c1dc1:	call   0x4c1b20
  4c1dc6:	pop    edi
  4c1dc7:	push   edi
  4c1dc8:	push   ecx
  4c1dc9:	push   DWORD PTR [edi+0x140]
  4c1dcf:	push   edx
  4c1dd0:	push   esi
  4c1dd1:	call   0x4c1710
  4c1dd6:	add    esp,0x10
  4c1dd9:	pop    edi
  4c1dda:	push   edi
  4c1ddb:	push   0x0
  4c1ddd:	call   0x4c16f8
  4c1de2:	pop    edi
  4c1de3:	add    esp,0x2c
  4c1de6:	pop    ebp
  4c1de7:	ret    
  4c1de8:	mov    edi,edi
  4c1dea:	push   ebp
  4c1deb:	mov    ebp,esp
  4c1ded:	sub    esp,0x38
  4c1df0:	lea    ecx,[edi+0x9c]
  4c1df6:	xor    ebx,0x25a6
  4c1dfc:	push   ecx
  4c1dfd:	push   eax
  4c1dfe:	push   DWORD PTR [ecx+0xcc]
  4c1e04:	push   esi
  4c1e05:	push   DWORD PTR [ecx+0x114]
  4c1e0b:	call   0x4c1a90
  4c1e10:	add    esp,0x10
  4c1e13:	pop    ecx
  4c1e14:	push   ecx
  4c1e15:	mov    ecx,0xfffffff4
  4c1e1a:	push   ecx
  4c1e1b:	call   0x4c1b20
  4c1e20:	pop    ecx
  4c1e21:	push   ecx
  4c1e22:	mov    edx,0x0
  4c1e27:	push   edx
  4c1e28:	call   0x4c1778
  4c1e2d:	pop    ecx
  4c1e2e:	add    esp,0x38
  4c1e31:	pop    ebp
  4c1e32:	ret    
  4c1e33:	add    BYTE PTR [ebx-0x1374aa01],cl
  4c1e39:	sub    esp,0x30
  4c1e3c:	mov    ebx,0x4c3140
  4c1e41:	or     eax,DWORD PTR [ebp-0x10]
  4c1e44:	push   0xfffffff4
  4c1e46:	call   0x4c1b20
  4c1e4b:	push   ebx
  4c1e4c:	push   DWORD PTR [ebx+0x3c]
  4c1e4f:	push   DWORD PTR [ebx+0x8c]
  4c1e55:	push   DWORD PTR [ebx+0xbc]
  4c1e5b:	push   ecx
  4c1e5c:	call   0x4c1ccc
  4c1e61:	add    esp,0x10
  4c1e64:	pop    ebx
  4c1e65:	call   0x4c14f4
  4c1e6a:	add    esp,0x30
  4c1e6d:	pop    ebp
  4c1e6e:	ret    
  4c1e6f:	add    BYTE PTR [edi-0x1],bl
  4c1e72:	adc    eax,0x4c26f4
  4c1e77:	push   edi
  4c1e78:	repz ret 0x0
  4c1e7c:	pop    edi
  4c1e7d:	call   DWORD PTR ds:0x4c2768
  4c1e83:	push   edi
  4c1e84:	repz ret 0x0
  4c1e88:	pop    edi
  4c1e89:	call   DWORD PTR ds:0x4c2760
  4c1e8f:	push   edi
  4c1e90:	repz ret 0x0
  4c1e94:	mov    edi,edi
  4c1e96:	push   ebp
  4c1e97:	mov    ebp,esp
  4c1e99:	sub    esp,0x3c
  4c1e9c:	lea    edx,ds:0x4c3050
  4c1ea2:	cmp    edx,0x5d46
  4c1ea8:	je     0x4c1e97
  4c1eaa:	push   edx
  4c1eab:	push   eax
  4c1eac:	push   ecx
  4c1ead:	push   esi
  4c1eae:	push   DWORD PTR [edx+0x148]
  4c1eb4:	call   0x4c12f4
  4c1eb9:	add    esp,0x10
  4c1ebc:	pop    edx
  4c1ebd:	push   edx
  4c1ebe:	push   0x0
  4c1ec0:	call   0x4c11d4
  4c1ec5:	pop    edx
  4c1ec6:	push   edx
  4c1ec7:	push   0x0
  4c1ec9:	call   0x4c133c
  4c1ece:	pop    edx
  4c1ecf:	add    esp,0x3c
  4c1ed2:	pop    ebp
  4c1ed3:	ret    
  4c1ed4:	mov    edi,edi
  4c1ed6:	push   ebp
  4c1ed7:	mov    ebp,esp
  4c1ed9:	sub    esp,0x20
  4c1edc:	lea    ecx,[esi-0x20]
  4c1edf:	mov    DWORD PTR [ecx-0x90],0xffffffd7
  4c1ee9:	push   ecx
  4c1eea:	push   DWORD PTR [ecx+0x4c]
  4c1eed:	push   edi
  4c1eee:	push   edx
  4c1eef:	push   edx
  4c1ef0:	call   0x4c1bc0
  4c1ef5:	add    esp,0x10
  4c1ef8:	pop    ecx
  4c1ef9:	push   ecx
  4c1efa:	call   0x4c14f4
  4c1eff:	pop    ecx
  4c1f00:	push   ecx
  4c1f01:	call   0x4c112c
  4c1f06:	pop    ecx
  4c1f07:	add    esp,0x20
  4c1f0a:	pop    ebp
  4c1f0b:	ret    
