
9a4b0d7b0770a779f84c091aeae0b3bee2a86d7e97098b1b87d2d06465b4a6e3.exe:     file format pei-i386


Disassembly of section .text:

004d0000 <.text>:
	...
  4d0008:	mov    edi,edi
  4d000a:	push   ebp
  4d000b:	mov    ebp,esp
  4d000d:	sub    esp,0x44
  4d0010:	lea    eax,[edx-0xc]
  4d0013:	or     ecx,DWORD PTR [ebp-0x8]
  4d0016:	push   eax
  4d0017:	push   ecx
  4d0018:	push   ebx
  4d0019:	push   ebx
  4d001a:	push   ecx
  4d001b:	call   0x4d0444
  4d0020:	add    esp,0x10
  4d0023:	pop    eax
  4d0024:	push   eax
  4d0025:	mov    ecx,0x0
  4d002a:	push   ecx
  4d002b:	notrack call DWORD PTR ds:0x4d201c
  4d0032:	pop    eax
  4d0033:	push   eax
  4d0034:	push   0x0
  4d0036:	notrack call DWORD PTR ds:0x4d202c
  4d003d:	pop    eax
  4d003e:	add    esp,0x44
  4d0041:	pop    ebp
  4d0042:	ret    
  4d0043:	add    BYTE PTR [eax],al
  4d0045:	add    BYTE PTR [eax],al
  4d0047:	add    BYTE PTR [ebx-0x1374aa01],cl
  4d004d:	sub    esp,0x40
  4d0050:	lea    esi,ds:0x4d3000
  4d0056:	sub    edx,DWORD PTR [esi+0x1e0]
  4d005c:	push   esi
  4d005d:	push   edi
  4d005e:	push   DWORD PTR [esi+0x34]
  4d0061:	push   edi
  4d0062:	push   ebx
  4d0063:	call   0x4d04cc
  4d0068:	add    esp,0x10
  4d006b:	pop    esi
  4d006c:	mov    edx,0x0
  4d0071:	push   edx
  4d0072:	notrack call DWORD PTR ds:0x4d203c
  4d0079:	mov    edi,0x4d204c
  4d007e:	mov    edi,DWORD PTR [edi]
  4d0080:	push   edi
  4d0081:	push   DWORD PTR [esi+0x9c]
  4d0087:	pop    ecx
  4d0088:	call   ecx
  4d008a:	add    esp,0x40
  4d008d:	pop    ebp
  4d008e:	ret    
  4d008f:	add    BYTE PTR [ebx-0x1374aa01],cl
  4d0095:	sub    esp,0x20
  4d0098:	lea    edx,ds:0x4d3140
  4d009e:	xor    DWORD PTR [ebp-0x1c],0x1993
  4d00a5:	push   edx
  4d00a6:	mov    eax,0x0
  4d00ab:	push   eax
  4d00ac:	notrack call DWORD PTR ds:0x4d201c
  4d00b3:	pop    edx
  4d00b4:	push   edx
  4d00b5:	push   eax
  4d00b6:	push   DWORD PTR [edx+0x110]
  4d00bc:	push   ebx
  4d00bd:	call   0x4d0008
  4d00c2:	add    esp,0xc
  4d00c5:	pop    edx
  4d00c6:	push   edx
  4d00c7:	mov    ebx,0x0
  4d00cc:	push   ebx
  4d00cd:	notrack call DWORD PTR ds:0x4d2044
  4d00d4:	pop    edx
  4d00d5:	add    esp,0x20
  4d00d8:	pop    ebp
  4d00d9:	ret    
  4d00da:	add    BYTE PTR [eax],al
  4d00dc:	mov    edi,edi
  4d00de:	push   ebp
  4d00df:	mov    ebp,esp
  4d00e1:	sub    esp,0x20
  4d00e4:	lea    edi,ds:0x4d31c0
  4d00ea:	xor    DWORD PTR [ebp-0x20],0xffffffd2
  4d00ee:	push   edi
  4d00ef:	push   DWORD PTR [edi+0x1dc]
  4d00f5:	push   ecx
  4d00f6:	push   DWORD PTR [edi+0x9c]
  4d00fc:	call   0x4d0488
  4d0101:	add    esp,0xc
  4d0104:	pop    edi
  4d0105:	mov    edx,0x0
  4d010a:	push   edx
  4d010b:	notrack call DWORD PTR ds:0x4d203c
  4d0112:	push   0x0
  4d0114:	notrack call DWORD PTR ds:0x4d202c
  4d011b:	add    esp,0x20
  4d011e:	pop    ebp
  4d011f:	ret    
  4d0120:	mov    edi,edi
  4d0122:	push   ebp
  4d0123:	mov    ebp,esp
  4d0125:	sub    esp,0x30
  4d0128:	mov    eax,0x4d3104
  4d012d:	and    edi,DWORD PTR [ebp-0x18]
  4d0130:	push   eax
  4d0131:	push   edi
  4d0132:	push   DWORD PTR [eax+0x130]
  4d0138:	call   0x4d0818
  4d013d:	add    esp,0x8
  4d0140:	pop    eax
  4d0141:	push   eax
  4d0142:	push   0x0
  4d0144:	notrack call DWORD PTR ds:0x4d205c
  4d014b:	pop    eax
  4d014c:	push   eax
  4d014d:	push   0x0
  4d014f:	notrack call DWORD PTR ds:0x4d203c
  4d0156:	pop    eax
  4d0157:	add    esp,0x30
  4d015a:	pop    ebp
  4d015b:	ret    
	...
  4d016c:	mov    edi,edi
  4d016e:	push   ebp
  4d016f:	mov    ebp,esp
  4d0171:	sub    esp,0x48
  4d0174:	lea    edi,[ebx+0x13c]
  4d017a:	xor    edx,0x4b
  4d017d:	mov    edx,0x0
  4d0182:	push   edx
  4d0183:	notrack call DWORD PTR ds:0x4d201c
  4d018a:	push   edi
  4d018b:	push   eax
  4d018c:	push   DWORD PTR [edi+0xe0]
  4d0192:	push   esi
  4d0193:	call   0x4d0244
  4d0198:	add    esp,0xc
  4d019b:	pop    edi
  4d019c:	push   0x0
  4d019e:	notrack call DWORD PTR ds:0x4d2038
  4d01a5:	add    esp,0x48
  4d01a8:	pop    ebp
  4d01a9:	ret    
  4d01aa:	add    BYTE PTR [eax],al
  4d01ac:	mov    edi,edi
  4d01ae:	push   ebp
  4d01af:	mov    ebp,esp
  4d01b1:	sub    esp,0x38
  4d01b4:	mov    edi,0x4d3068
  4d01b9:	adc    esi,0x3475
  4d01bf:	push   0x0
  4d01c1:	notrack call DWORD PTR ds:0x4d201c
  4d01c8:	push   edi
  4d01c9:	push   esi
  4d01ca:	push   ecx
  4d01cb:	push   DWORD PTR [edi+0xc0]
  4d01d1:	push   ecx
  4d01d2:	call   0x4d09fc
  4d01d7:	add    esp,0x10
  4d01da:	pop    edi
  4d01db:	mov    edx,0x0
  4d01e0:	push   edx
  4d01e1:	notrack call DWORD PTR ds:0x4d2014
  4d01e8:	add    esp,0x38
  4d01eb:	pop    ebp
  4d01ec:	ret    
	...
  4d01fd:	add    BYTE PTR [eax],al
  4d01ff:	add    BYTE PTR [ebx-0x1374aa01],cl
  4d0205:	sub    esp,0x58
  4d0208:	mov    esi,0x4d3014
  4d020d:	or     ebx,DWORD PTR [ebp-0x50]
  4d0210:	push   esi
  4d0211:	push   DWORD PTR [esi+0x94]
  4d0217:	push   DWORD PTR [esi+0x94]
  4d021d:	call   0x4d0688
  4d0222:	add    esp,0x8
  4d0225:	pop    esi
  4d0226:	push   0x0
  4d0228:	notrack call DWORD PTR ds:0x4d2038
  4d022f:	push   0x0
  4d0231:	notrack call DWORD PTR ds:0x4d2034
  4d0238:	add    esp,0x58
  4d023b:	pop    ebp
  4d023c:	ret    
  4d023d:	add    BYTE PTR [eax],al
  4d023f:	add    BYTE PTR [eax],al
  4d0241:	add    BYTE PTR [eax],al
  4d0243:	add    BYTE PTR [ebx-0x1374aa01],cl
  4d0249:	sub    esp,0x34
  4d024c:	lea    ebx,[edi-0x40]
  4d024f:	sub    eax,0x25
  4d0252:	push   ebx
  4d0253:	push   edi
  4d0254:	push   esi
  4d0255:	call   0x4d0854
  4d025a:	add    esp,0x8
  4d025d:	pop    ebx
  4d025e:	push   0x0
  4d0260:	notrack call DWORD PTR ds:0x4d202c
  4d0267:	notrack call DWORD PTR ds:0x4d2000
  4d026e:	add    esp,0x34
  4d0271:	pop    ebp
  4d0272:	ret    
  4d0273:	add    BYTE PTR [ebx-0x1374aa01],cl
  4d0279:	sub    esp,0x50
  4d027c:	lea    eax,ds:0x4d30e8
  4d0282:	mov    ebx,DWORD PTR [ebp-0x48]
  4d0285:	push   eax
  4d0286:	mov    edx,0x0
  4d028b:	push   edx
  4d028c:	notrack call DWORD PTR ds:0x4d2014
  4d0293:	pop    eax
  4d0294:	push   eax
  4d0295:	push   DWORD PTR [eax+0x194]
  4d029b:	push   ebx
  4d029c:	push   DWORD PTR [eax+0x24]
  4d029f:	call   0x4d09b0
  4d02a4:	add    esp,0xc
  4d02a7:	pop    eax
  4d02a8:	push   eax
  4d02a9:	mov    ecx,0x0
  4d02ae:	push   ecx
  4d02af:	notrack call DWORD PTR ds:0x4d2030
  4d02b6:	pop    eax
  4d02b7:	add    esp,0x50
  4d02ba:	pop    ebp
  4d02bb:	ret    
	...
  4d02cc:	mov    edi,edi
  4d02ce:	push   ebp
  4d02cf:	mov    ebp,esp
  4d02d1:	sub    esp,0x30
  4d02d4:	lea    edi,[eax-0x1c4]
  4d02da:	cmp    edi,0x170e
  4d02e0:	jb     0x4d02cf
  4d02e2:	push   0x0
  4d02e4:	notrack call DWORD PTR ds:0x4d205c
  4d02eb:	push   edi
  4d02ec:	push   DWORD PTR [edi+0x12c]
  4d02f2:	push   ebx
  4d02f3:	call   0x4d07c4
  4d02f8:	add    esp,0x8
  4d02fb:	pop    edi
  4d02fc:	mov    ebx,0x0
  4d0301:	push   ebx
  4d0302:	notrack call DWORD PTR ds:0x4d201c
  4d0309:	add    esp,0x30
  4d030c:	pop    ebp
  4d030d:	ret    
	...
  4d0316:	add    BYTE PTR [eax],al
  4d0318:	mov    edi,edi
  4d031a:	push   ebp
  4d031b:	mov    ebp,esp
  4d031d:	sub    esp,0x34
  4d0320:	lea    eax,[edx+0x8]
  4d0323:	adc    ecx,edi
  4d0325:	push   eax
  4d0326:	lea    ecx,[eax-0x124]
  4d032c:	push   ecx
  4d032d:	notrack call DWORD PTR ds:0x4d204c
  4d0334:	test   eax,eax
  4d0336:	jne    0x4d0326
  4d0338:	pop    eax
  4d0339:	push   eax
  4d033a:	push   DWORD PTR [eax+0xdc]
  4d0340:	push   DWORD PTR [eax+0x110]
  4d0346:	call   0x4d0090
  4d034b:	add    esp,0x8
  4d034e:	pop    eax
  4d034f:	push   eax
  4d0350:	mov    eax,0x0
  4d0355:	push   eax
  4d0356:	notrack call DWORD PTR ds:0x4d203c
  4d035d:	pop    eax
  4d035e:	add    esp,0x34
  4d0361:	pop    ebp
  4d0362:	ret    
  4d0363:	add    BYTE PTR [edx+0x0],ch
  4d0366:	call   DWORD PTR ds:0x4d2044
  4d036c:	call   DWORD PTR ds:0x4d2048
  4d0372:	sub    esp,0x8
  4d0375:	call   DWORD PTR ds:0x4d2048
  4d037b:	sub    esp,0x8
  4d037e:	xor    eax,eax
  4d0380:	lea    eax,[eax*2+0x4d3100]
  4d0387:	lea    ecx,[eax+0x4]
  4d038a:	add    BYTE PTR [ecx],0xb0
  4d038d:	push   eax
  4d038e:	call   DWORD PTR ds:0x4d2008
  4d0394:	mov    ecx,DWORD PTR [eax+0x3c]
  4d0397:	push   DWORD PTR [eax+ecx*1+0x29]
  4d039b:	pop    eax
  4d039c:	mov    cl,0x2c
  4d039e:	cmp    al,cl
  4d03a0:	pusha  
  4d03a1:	ja     0x4d0048
  4d03a7:	popa   
  4d03a8:	ret    
  4d03a9:	add    BYTE PTR [eax],al
  4d03ab:	repz add BYTE PTR [eax],al
  4d03ae:	add    BYTE PTR [eax],al
  4d03b0:	mov    edi,edi
  4d03b2:	push   ebp
  4d03b3:	mov    ebp,esp
  4d03b5:	sub    esp,0x44
  4d03b8:	lea    esi,[edi+0x124]
  4d03be:	sub    ecx,0x5
  4d03c1:	push   esi
  4d03c2:	push   DWORD PTR [esi+0x40]
  4d03c5:	push   DWORD PTR [esi+0xfc]
  4d03cb:	call   0x4d03fc
  4d03d0:	add    esp,0x8
  4d03d3:	pop    esi
  4d03d4:	mov    ebx,0x0
  4d03d9:	push   ebx
  4d03da:	notrack call DWORD PTR ds:0x4d2030
  4d03e1:	lea    ecx,[esi-0x1ac]
  4d03e7:	push   ecx
  4d03e8:	notrack call DWORD PTR ds:0x4d204c
  4d03ef:	test   eax,eax
  4d03f1:	jne    0x4d03e2
  4d03f3:	add    esp,0x44
  4d03f6:	pop    ebp
  4d03f7:	ret    
  4d03f8:	add    BYTE PTR [eax],al
  4d03fa:	add    BYTE PTR [eax],al
  4d03fc:	mov    edi,edi
  4d03fe:	push   ebp
  4d03ff:	mov    ebp,esp
  4d0401:	sub    esp,0x58
  4d0404:	lea    eax,[esi+0x24]
  4d0407:	adc    DWORD PTR [eax-0xc4],0xffffff83
  4d040e:	push   eax
  4d040f:	push   0x0
  4d0411:	notrack call DWORD PTR ds:0x4d2014
  4d0418:	pop    eax
  4d0419:	push   eax
  4d041a:	push   edx
  4d041b:	push   ebx
  4d041c:	push   DWORD PTR [eax+0x104]
  4d0422:	push   ecx
  4d0423:	call   0x4d02cc
  4d0428:	add    esp,0x10
  4d042b:	pop    eax
  4d042c:	push   eax
  4d042d:	mov    eax,0x0
  4d0432:	push   eax
  4d0433:	notrack call DWORD PTR ds:0x4d2024
  4d043a:	pop    eax
  4d043b:	add    esp,0x58
  4d043e:	pop    ebp
  4d043f:	ret    
  4d0440:	add    BYTE PTR [eax],al
  4d0442:	add    BYTE PTR [eax],al
  4d0444:	mov    edi,edi
  4d0446:	push   ebp
  4d0447:	mov    ebp,esp
  4d0449:	sub    esp,0x50
  4d044c:	mov    edi,0x4d3088
  4d0451:	sub    ebx,0x6487
  4d0457:	push   edi
  4d0458:	push   eax
  4d0459:	push   DWORD PTR [edi+0x6c]
  4d045c:	push   ecx
  4d045d:	push   ebx
  4d045e:	call   0x4d03b0
  4d0463:	add    esp,0x10
  4d0466:	pop    edi
  4d0467:	lea    ebx,[edi-0x88]
  4d046d:	push   ebx
  4d046e:	notrack call DWORD PTR ds:0x4d204c
  4d0475:	test   eax,eax
  4d0477:	jne    0x4d0468
  4d0479:	push   0x0
  4d047b:	notrack call DWORD PTR ds:0x4d2024
  4d0482:	add    esp,0x50
  4d0485:	pop    ebp
  4d0486:	ret    
  4d0487:	add    BYTE PTR [ebx-0x1374aa01],cl
  4d048d:	sub    esp,0x40
  4d0490:	mov    esi,0x4d307c
  4d0495:	sub    DWORD PTR [ebp-0x1c],edx
  4d0498:	push   0x0
  4d049a:	notrack call DWORD PTR ds:0x4d205c
  4d04a1:	push   esi
  4d04a2:	push   DWORD PTR [esi+0x170]
  4d04a8:	push   DWORD PTR [esi+0x1f8]
  4d04ae:	push   DWORD PTR [esi+0x1f8]
  4d04b4:	call   0x4d055c
  4d04b9:	add    esp,0xc
  4d04bc:	pop    esi
  4d04bd:	push   0x0
  4d04bf:	notrack call DWORD PTR ds:0x4d2034
  4d04c6:	add    esp,0x40
  4d04c9:	pop    ebp
  4d04ca:	ret    
  4d04cb:	add    BYTE PTR [ebx-0x1374aa01],cl
  4d04d1:	sub    esp,0x50
  4d04d4:	lea    ecx,[esi+0x4c]
  4d04d7:	adc    DWORD PTR [ebp-0x48],0x21e0
  4d04de:	push   ecx
  4d04df:	push   DWORD PTR [ecx+0xc8]
  4d04e5:	push   edi
  4d04e6:	push   eax
  4d04e7:	call   0x4d0898
  4d04ec:	add    esp,0xc
  4d04ef:	pop    ecx
  4d04f0:	push   ecx
  4d04f1:	push   0x0
  4d04f3:	notrack call DWORD PTR ds:0x4d202c
  4d04fa:	pop    ecx
  4d04fb:	push   ecx
  4d04fc:	push   0x0
  4d04fe:	notrack call DWORD PTR ds:0x4d203c
  4d0505:	pop    ecx
  4d0506:	add    esp,0x50
  4d0509:	pop    ebp
  4d050a:	ret    
  4d050b:	add    BYTE PTR [ebx-0x1374aa01],cl
  4d0511:	sub    esp,0x30
  4d0514:	mov    ecx,0x4d3148
  4d0519:	or     DWORD PTR [ebp-0x14],0x20
  4d051d:	push   ecx
  4d051e:	push   edi
  4d051f:	push   edi
  4d0520:	push   DWORD PTR [ecx+0x180]
  4d0526:	push   DWORD PTR [ecx+0x1bc]
  4d052c:	call   0x4d01ac
  4d0531:	add    esp,0x10
  4d0534:	pop    ecx
  4d0535:	push   ecx
  4d0536:	push   0x0
  4d0538:	notrack call DWORD PTR ds:0x4d205c
  4d053f:	pop    ecx
  4d0540:	push   ecx
  4d0541:	push   0x0
  4d0543:	notrack call DWORD PTR ds:0x4d2030
  4d054a:	pop    ecx
  4d054b:	add    esp,0x30
  4d054e:	pop    ebp
  4d054f:	ret    
	...
  4d055c:	mov    edi,edi
  4d055e:	push   ebp
  4d055f:	mov    ebp,esp
  4d0561:	sub    esp,0x20
  4d0564:	lea    ecx,ds:0x4d3150
  4d056a:	sub    edx,DWORD PTR [ecx-0x14c]
  4d0570:	push   ecx
  4d0571:	lea    edi,[ecx-0x150]
  4d0577:	push   edi
  4d0578:	notrack call DWORD PTR ds:0x4d204c
  4d057f:	test   eax,eax
  4d0581:	jne    0x4d0571
  4d0583:	pop    ecx
  4d0584:	push   ecx
  4d0585:	push   esi
  4d0586:	push   DWORD PTR [ecx+0x34]
  4d0589:	push   eax
  4d058a:	push   DWORD PTR [ecx+0x1a0]
  4d0590:	call   0x4d095c
  4d0595:	add    esp,0x10
  4d0598:	pop    ecx
  4d0599:	push   ecx
  4d059a:	push   0x0
  4d059c:	notrack call DWORD PTR ds:0x4d2024
  4d05a3:	pop    ecx
  4d05a4:	add    esp,0x20
  4d05a7:	pop    ebp
  4d05a8:	ret    
  4d05a9:	add    BYTE PTR [eax],al
  4d05ab:	add    BYTE PTR [ebx-0x1374aa01],cl
  4d05b1:	sub    esp,0x48
  4d05b4:	lea    ebx,[edx-0x84]
  4d05ba:	adc    ecx,0x27
  4d05bd:	push   ebx
  4d05be:	push   eax
  4d05bf:	push   DWORD PTR [ebx+0x64]
  4d05c2:	push   DWORD PTR [ebx+0x108]
  4d05c8:	push   ecx
  4d05c9:	call   0x4d0120
  4d05ce:	add    esp,0x10
  4d05d1:	pop    ebx
  4d05d2:	mov    esi,0x0
  4d05d7:	push   esi
  4d05d8:	notrack call DWORD PTR ds:0x4d2044
  4d05df:	notrack call DWORD PTR ds:0x4d2000
  4d05e6:	add    esp,0x48
  4d05e9:	pop    ebp
  4d05ea:	ret    
  4d05eb:	add    BYTE PTR [eax],al
  4d05ed:	add    BYTE PTR [eax],al
  4d05ef:	add    BYTE PTR [ebx-0x1374aa01],cl
  4d05f5:	sub    esp,0x38
  4d05f8:	lea    eax,[edi+0x40]
  4d05fb:	mov    DWORD PTR [ebp-0x4],ebx
  4d05fe:	push   eax
  4d05ff:	mov    esi,0x0
  4d0604:	push   esi
  4d0605:	notrack call DWORD PTR ds:0x4d2014
  4d060c:	pop    eax
  4d060d:	push   eax
  4d060e:	push   edi
  4d060f:	push   DWORD PTR [eax+0x16c]
  4d0615:	push   DWORD PTR [eax+0x12c]
  4d061b:	push   ecx
  4d061c:	call   0x4d0728
  4d0621:	add    esp,0x10
  4d0624:	pop    eax
  4d0625:	push   eax
  4d0626:	mov    edi,0x0
  4d062b:	push   edi
  4d062c:	notrack call DWORD PTR ds:0x4d207c
  4d0633:	pop    eax
  4d0634:	add    esp,0x38
  4d0637:	pop    ebp
  4d0638:	ret    
  4d0639:	add    BYTE PTR [eax],al
  4d063b:	add    BYTE PTR [eax],al
  4d063d:	add    BYTE PTR [eax],al
  4d063f:	add    BYTE PTR [ebx-0x1374aa01],cl
  4d0645:	sub    esp,0x4c
  4d0648:	mov    edx,0x4d30b0
  4d064d:	xor    DWORD PTR [ebp-0x44],ebx
  4d0650:	push   edx
  4d0651:	push   edi
  4d0652:	push   DWORD PTR [edx+0x98]
  4d0658:	push   DWORD PTR [edx+0x9c]
  4d065e:	call   0x4d00dc
  4d0663:	add    esp,0xc
  4d0666:	pop    edx
  4d0667:	push   edx
  4d0668:	push   0x0
  4d066a:	notrack call DWORD PTR ds:0x4d202c
  4d0671:	pop    edx
  4d0672:	push   edx
  4d0673:	mov    eax,0x0
  4d0678:	push   eax
  4d0679:	notrack call DWORD PTR ds:0x4d2044
  4d0680:	pop    edx
  4d0681:	add    esp,0x4c
  4d0684:	pop    ebp
  4d0685:	ret    
  4d0686:	add    BYTE PTR [eax],al
  4d0688:	mov    edi,edi
  4d068a:	push   ebp
  4d068b:	mov    ebp,esp
  4d068d:	sub    esp,0x4c
  4d0690:	lea    eax,[esi+0xd0]
  4d0696:	adc    edi,ebx
  4d0698:	push   eax
  4d0699:	mov    esi,0x0
  4d069e:	push   esi
  4d069f:	notrack call DWORD PTR ds:0x4d2024
  4d06a6:	pop    eax
  4d06a7:	push   eax
  4d06a8:	push   ecx
  4d06a9:	push   ecx
  4d06aa:	push   DWORD PTR [eax+0x18c]
  4d06b0:	push   DWORD PTR [eax+0x16c]
  4d06b6:	call   0x4d0a3c
  4d06bb:	add    esp,0x10
  4d06be:	pop    eax
  4d06bf:	push   eax
  4d06c0:	mov    ecx,0x0
  4d06c5:	push   ecx
  4d06c6:	notrack call DWORD PTR ds:0x4d202c
  4d06cd:	pop    eax
  4d06ce:	add    esp,0x4c
  4d06d1:	pop    ebp
  4d06d2:	ret    
  4d06d3:	add    BYTE PTR [ebx-0x1374aa01],cl
  4d06d9:	sub    esp,0x4c
  4d06dc:	mov    eax,0x4d312c
  4d06e1:	adc    edx,0x19
  4d06e4:	push   eax
  4d06e5:	push   edx
  4d06e6:	push   DWORD PTR [eax+0x60]
  4d06e9:	push   edx
  4d06ea:	push   edx
  4d06eb:	call   0x4d050c
  4d06f0:	add    esp,0x10
  4d06f3:	pop    eax
  4d06f4:	push   eax
  4d06f5:	mov    ecx,0x0
  4d06fa:	push   ecx
  4d06fb:	notrack call DWORD PTR ds:0x4d206c
  4d0702:	pop    eax
  4d0703:	push   eax
  4d0704:	mov    edx,0x0
  4d0709:	push   edx
  4d070a:	notrack call DWORD PTR ds:0x4d2038
  4d0711:	pop    eax
  4d0712:	add    esp,0x4c
  4d0715:	pop    ebp
  4d0716:	ret    
	...
  4d0727:	add    BYTE PTR [ebx-0x1374aa01],cl
  4d072d:	sub    esp,0x3c
  4d0730:	add    ecx,0xffff982a
  4d0736:	lea    ebx,[eax-0x148]
  4d073c:	mov    edx,0x6ac
  4d0741:	push   edx
  4d0742:	mov    esi,0x6ac
  4d0747:	push   esi
  4d0748:	push   0x40001
  4d074d:	mov    edx,0x86298586
  4d0752:	push   DWORD PTR [edx+0x7a239a86]
  4d0758:	sub    DWORD PTR [esp],0x2
  4d075c:	mov    edx,0x4d2008
  4d0761:	pop    DWORD PTR [edx]
  4d0763:	notrack call DWORD PTR ds:0x4d2008
  4d076a:	push   eax
  4d076b:	pop    DWORD PTR [ebx+0x8]
  4d076e:	mov    esi,DWORD PTR [ebx+0x8]
  4d0771:	lea    esi,[esi]
  4d0773:	sub    edx,edx
  4d0775:	dec    edx
  4d0776:	and    edx,0x4d0ac0
  4d077c:	mov    edi,0x9de45a73
  4d0781:	xor    eax,eax
  4d0783:	add    eax,0x6ac
  4d0788:	cmp    eax,0x0
  4d078b:	je     0x4d07a9
  4d078d:	add    eax,0xfffffffc
  4d0790:	xor    ecx,ecx
  4d0792:	push   DWORD PTR [edx+ecx*1]
  4d0795:	inc    DWORD PTR [esp]
  4d0798:	xor    DWORD PTR [esp],edi
  4d079b:	pop    DWORD PTR [esi+ecx*2]
  4d079e:	push   DWORD PTR [edx]
  4d07a0:	pop    edi
  4d07a1:	add    edx,0x4
  4d07a4:	add    esi,0x4
  4d07a7:	jmp    0x4d0788
  4d07a9:	lea    edx,[ebx-0x94]
  4d07af:	push   edx
  4d07b0:	notrack call DWORD PTR ds:0x4d204c
  4d07b7:	test   eax,eax
  4d07b9:	jne    0x4d07aa
  4d07bb:	add    esp,0x3c
  4d07be:	pop    ebp
  4d07bf:	ret    
  4d07c0:	add    BYTE PTR [eax],al
  4d07c2:	add    BYTE PTR [eax],al
  4d07c4:	mov    edi,edi
  4d07c6:	push   ebp
  4d07c7:	mov    ebp,esp
  4d07c9:	sub    esp,0x54
  4d07cc:	lea    ecx,ds:0x4d30a4
  4d07d2:	and    eax,ecx
  4d07d4:	push   ecx
  4d07d5:	push   eax
  4d07d6:	push   DWORD PTR [ecx+0xb0]
  4d07dc:	push   ebx
  4d07dd:	push   esi
  4d07de:	call   0x4d0640
  4d07e3:	add    esp,0x10
  4d07e6:	pop    ecx
  4d07e7:	push   ecx
  4d07e8:	push   0x0
  4d07ea:	notrack call DWORD PTR ds:0x4d202c
  4d07f1:	pop    ecx
  4d07f2:	push   ecx
  4d07f3:	mov    ebx,0x0
  4d07f8:	push   ebx
  4d07f9:	notrack call DWORD PTR ds:0x4d2034
  4d0800:	pop    ecx
  4d0801:	add    esp,0x54
  4d0804:	pop    ebp
  4d0805:	ret    
	...
  4d0816:	add    BYTE PTR [eax],al
  4d0818:	mov    edi,edi
  4d081a:	push   ebp
  4d081b:	mov    ebp,esp
  4d081d:	sub    esp,0x3c
  4d0820:	lea    esi,[eax-0xd4]
  4d0826:	and    DWORD PTR [ebp-0x38],esi
  4d0829:	push   esi
  4d082a:	push   DWORD PTR [esi+0x1f8]
  4d0830:	push   ecx
  4d0831:	push   ecx
  4d0832:	call   0x4d0274
  4d0837:	add    esp,0xc
  4d083a:	pop    esi
  4d083b:	push   0x0
  4d083d:	notrack call DWORD PTR ds:0x4d206c
  4d0844:	push   0x0
  4d0846:	notrack call DWORD PTR ds:0x4d207c
  4d084d:	add    esp,0x3c
  4d0850:	pop    ebp
  4d0851:	ret    
  4d0852:	add    BYTE PTR [eax],al
  4d0854:	mov    edi,edi
  4d0856:	push   ebp
  4d0857:	mov    ebp,esp
  4d0859:	sub    esp,0x28
  4d085c:	lea    edx,ds:0x4d311c
  4d0862:	add    DWORD PTR [ebp-0x10],0xe
  4d0866:	push   edx
  4d0867:	push   eax
  4d0868:	push   DWORD PTR [edx+0x1c8]
  4d086e:	push   edi
  4d086f:	push   eax
  4d0870:	call   0x4d0318
  4d0875:	add    esp,0x10
  4d0878:	pop    edx
  4d0879:	push   edx
  4d087a:	push   0x0
  4d087c:	notrack call DWORD PTR ds:0x4d205c
  4d0883:	pop    edx
  4d0884:	push   edx
  4d0885:	mov    edi,0x0
  4d088a:	push   edi
  4d088b:	notrack call DWORD PTR ds:0x4d2028
  4d0892:	pop    edx
  4d0893:	add    esp,0x28
  4d0896:	pop    ebp
  4d0897:	ret    
  4d0898:	mov    edi,edi
  4d089a:	push   ebp
  4d089b:	mov    ebp,esp
  4d089d:	sub    esp,0x5c
  4d08a0:	mov    ebx,0x4d3054
  4d08a5:	mov    ecx,DWORD PTR [ebp-0x5c]
  4d08a8:	mov    ecx,0x0
  4d08ad:	push   ecx
  4d08ae:	notrack call DWORD PTR ds:0x4d2030
  4d08b5:	push   ebx
  4d08b6:	push   edx
  4d08b7:	push   DWORD PTR [ebx+0x17c]
  4d08bd:	push   edi
  4d08be:	call   0x4d016c
  4d08c3:	add    esp,0xc
  4d08c6:	pop    ebx
  4d08c7:	push   0x0
  4d08c9:	notrack call DWORD PTR ds:0x4d2028
  4d08d0:	add    esp,0x5c
  4d08d3:	pop    ebp
  4d08d4:	ret    
  4d08d5:	add    BYTE PTR [eax],al
  4d08d7:	add    BYTE PTR [ebx-0x1374aa01],cl
  4d08dd:	sub    esp,0x58
  4d08e0:	lea    edi,ds:0x4d3154
  4d08e6:	xor    DWORD PTR [edi+0x34],0xffffffda
  4d08ea:	push   edi
  4d08eb:	push   DWORD PTR [edi+0x174]
  4d08f1:	push   DWORD PTR [edi+0x128]
  4d08f7:	call   0x4d0200
  4d08fc:	add    esp,0x8
  4d08ff:	pop    edi
  4d0900:	push   0x0
  4d0902:	notrack call DWORD PTR ds:0x4d2030
  4d0909:	mov    eax,0x0
  4d090e:	push   eax
  4d090f:	notrack call DWORD PTR ds:0x4d2024
  4d0916:	add    esp,0x58
  4d0919:	pop    ebp
  4d091a:	ret    
  4d091b:	add    BYTE PTR [ebx-0x1374aa01],cl
  4d0921:	sub    esp,0x5c
  4d0924:	lea    ecx,ds:0x4d31c8
  4d092a:	xor    edx,ecx
  4d092c:	push   ecx
  4d092d:	push   0x0
  4d092f:	notrack call DWORD PTR ds:0x4d201c
  4d0936:	pop    ecx
  4d0937:	push   ecx
  4d0938:	push   DWORD PTR [ecx+0x30]
  4d093b:	push   ebx
  4d093c:	push   DWORD PTR [ecx+0xc]
  4d093f:	call   0x4d08d8
  4d0944:	add    esp,0xc
  4d0947:	pop    ecx
  4d0948:	push   ecx
  4d0949:	push   0x0
  4d094b:	notrack call DWORD PTR ds:0x4d206c
  4d0952:	pop    ecx
  4d0953:	add    esp,0x5c
  4d0956:	pop    ebp
  4d0957:	ret    
  4d0958:	add    BYTE PTR [eax],al
  4d095a:	add    BYTE PTR [eax],al
  4d095c:	mov    edi,edi
  4d095e:	push   ebp
  4d095f:	mov    ebp,esp
  4d0961:	sub    esp,0x40
  4d0964:	lea    esi,[ecx+0x28]
  4d0967:	cmp    esi,0x1f5d
  4d096d:	jb     0x4d095f
  4d096f:	push   esi
  4d0970:	push   DWORD PTR [esi+0x1dc]
  4d0976:	push   ebx
  4d0977:	push   DWORD PTR [esi+0x15c]
  4d097d:	push   DWORD PTR [esi+0xfc]
  4d0983:	call   0x4d06d4
  4d0988:	add    esp,0x10
  4d098b:	pop    esi
  4d098c:	notrack call DWORD PTR ds:0x4d2000
  4d0993:	mov    eax,0x0
  4d0998:	push   eax
  4d0999:	notrack call DWORD PTR ds:0x4d205c
  4d09a0:	add    esp,0x40
  4d09a3:	pop    ebp
  4d09a4:	ret    
	...
  4d09ad:	add    BYTE PTR [eax],al
  4d09af:	add    BYTE PTR [ebx-0x1374aa01],cl
  4d09b5:	sub    esp,0x5c
  4d09b8:	mov    edi,0x4d319c
  4d09bd:	sbb    DWORD PTR [edi-0x134],0xffffb7df
  4d09c7:	push   edi
  4d09c8:	push   DWORD PTR [edi+0xcc]
  4d09ce:	push   edx
  4d09cf:	push   ebx
  4d09d0:	call   0x4d05f0
  4d09d5:	add    esp,0xc
  4d09d8:	pop    edi
  4d09d9:	mov    eax,0x0
  4d09de:	push   eax
  4d09df:	notrack call DWORD PTR ds:0x4d2024
  4d09e6:	notrack call DWORD PTR ds:0x4d2000
  4d09ed:	add    esp,0x5c
  4d09f0:	pop    ebp
  4d09f1:	ret    
	...
  4d09fa:	add    BYTE PTR [eax],al
  4d09fc:	mov    edi,edi
  4d09fe:	push   ebp
  4d09ff:	mov    ebp,esp
  4d0a01:	sub    esp,0x38
  4d0a04:	lea    esi,[edi-0x60]
  4d0a07:	add    DWORD PTR [ebp-0x38],edi
  4d0a0a:	push   0x0
  4d0a0c:	notrack call DWORD PTR ds:0x4d2014
  4d0a13:	push   esi
  4d0a14:	push   edx
  4d0a15:	push   eax
  4d0a16:	push   DWORD PTR [esi+0x1a8]
  4d0a1c:	call   0x4d091c
  4d0a21:	add    esp,0xc
  4d0a24:	pop    esi
  4d0a25:	lea    eax,[esi-0x8]
  4d0a28:	push   eax
  4d0a29:	notrack call DWORD PTR ds:0x4d204c
  4d0a30:	test   eax,eax
  4d0a32:	jne    0x4d0a26
  4d0a34:	add    esp,0x38
  4d0a37:	pop    ebp
  4d0a38:	ret    
  4d0a39:	add    BYTE PTR [eax],al
  4d0a3b:	add    BYTE PTR [ebx-0x1374aa01],cl
  4d0a41:	sub    esp,0x54
  4d0a44:	lea    edx,ds:0x4d31ec
  4d0a4a:	sbb    DWORD PTR [ebp-0x1c],eax
  4d0a4d:	push   edx
  4d0a4e:	push   0x0
  4d0a50:	notrack call DWORD PTR ds:0x4d207c
  4d0a57:	pop    edx
  4d0a58:	push   edx
  4d0a59:	push   edi
  4d0a5a:	push   ecx
  4d0a5b:	push   DWORD PTR [edx+0x120]
  4d0a61:	push   DWORD PTR [edx+0xbc]
  4d0a67:	call   0x4d05ac
  4d0a6c:	add    esp,0x10
  4d0a6f:	pop    edx
  4d0a70:	push   edx
  4d0a71:	mov    ebx,0x0
  4d0a76:	push   ebx
  4d0a77:	notrack call DWORD PTR ds:0x4d2024
  4d0a7e:	pop    edx
  4d0a7f:	add    esp,0x54
  4d0a82:	pop    ebp
  4d0a83:	ret    
  4d0a84:	xchg   ebx,eax
  4d0a85:	enter  0xc45c,0x83
  4d0a89:	out    0xba,eax
  4d0a8b:	push   cs
  4d0a8c:	mov    edi,0xb520e4fa
  4d0a91:	andnps xmm5,XMMWORD PTR [ebx]
  4d0a94:	bound  ebx,QWORD PTR [ecx]
  4d0a96:	loope  0x4d0a9f
  4d0a98:	call   0x7c0d:0x668b80c3
  4d0a9f:	imul   eax,DWORD PTR [esi+0xf],0x4c
  4d0aa3:	outs   dx,DWORD PTR ds:[esi]
  4d0aa4:	into   
  4d0aa5:	lods   al,BYTE PTR ds:[esi]
  4d0aa6:	stos   DWORD PTR es:[edi],eax
  4d0aa7:	shr    DWORD PTR [ecx+0x19780a72],cl
  4d0aad:	jbe    0x4d0ace
  4d0aaf:	fldenv ds:0xcb71aa6e
  4d0ab5:	in     al,0x22
  4d0ab7:	push   edx
  4d0ab8:	push   es
  4d0ab9:	cmps   DWORD PTR ds:[esi],DWORD PTR es:[edi]
  4d0aba:	dec    edi
  4d0abb:	iret   
  4d0abc:	daa    
  4d0abd:	push   0xffffffba
  4d0abf:	add    DWORD PTR [edx],esp
  4d0ac1:	add    dh,BYTE PTR [ebp+ecx*1+0x71]
  4d0ac5:	pop    edx
  4d0ac6:	in     al,0x9d
  4d0ac8:	pop    ecx
  4d0ac9:	xchg   ebx,eax
  4d0aca:	addr16 pop esp
  4d0acc:	pop    ecx
  4d0acd:	(bad)  
  4d0ace:	cmp    DWORD PTR [esi+0x4afd45a3],edi
  4d0ad4:	dec    edx
  4d0ad5:	dec    eax
  4d0ad6:	std    
  4d0ad7:	dec    edx
  4d0ad8:	dec    ecx
  4d0ad9:	enter  0x5bc7,0x9f
  4d0add:	lods   eax,DWORD PTR ds:[esi]
  4d0ade:	stos   DWORD PTR es:[edi],eax
  4d0adf:	push   0x4cf83ac
  4d0ae4:	mov    edi,0x3d549783
  4d0ae9:	sbb    DWORD PTR [esi+edi*2+0x5b],0x6
  4d0aee:	mov    ds:0xa0decfa8,eax
  4d0af3:	jmp    0x4d0ae7
  4d0af5:	pop    edi
  4d0af6:	fdivr  DWORD PTR [ebx-0x4423200f]
  4d0afc:	xchg   ah,dh
  4d0afe:	xor    al,0x49
  4d0b00:	xor    ah,0x34
  4d0b03:	adc    al,0x8
  4d0b05:	add    DWORD PTR [ebp-0x72fef8fc],ecx
  4d0b0b:	test   eax,0xa98ff3ee
  4d0b10:	in     eax,dx
  4d0b11:	jp     0x4d0adc
  4d0b13:	push   ebp
  4d0b14:	push   cs
  4d0b15:	(bad)  
  4d0b16:	mov    ds:0xcfce6536,eax
  4d0b1b:	pop    edx
  4d0b1c:	or     DWORD PTR [esi-0x2998c079],esp
  4d0b22:	shr    DWORD PTR [edi+edx*4-0x7d],cl
  4d0b26:	frstpm(287 only) 
  4d0b28:	nop
  4d0b29:	jmp    0x9c229909
  4d0b2e:	mov    esi,0xdbd3bce8
  4d0b33:	mov    ebx,ecx
  4d0b35:	xchg   DWORD PTR [eax+0x18f9d76],ecx
  4d0b3b:	xor    BYTE PTR [eax-0xed73af4],bl
  4d0b41:	dec    esp
  4d0b42:	lods   eax,DWORD PTR ds:[esi]
  4d0b43:	sub    al,ah
  4d0b45:	dec    esp
  4d0b46:	lods   eax,DWORD PTR ds:[esi]
  4d0b47:	inc    eax
  4d0b48:	inc    ebx
  4d0b49:	dec    edx
  4d0b4a:	lods   eax,DWORD PTR ds:[esi]
  4d0b4b:	inc    eax
  4d0b4c:	sub    BYTE PTR [edx+0x52],cl
  4d0b4f:	adc    eax,0x10aac137
  4d0b54:	cmps   DWORD PTR ds:[esi],DWORD PTR es:[edi]
  4d0b55:	shr    DWORD PTR [edx+0x1f4cf610],0xc0
  4d0b5c:	push   cs
  4d0b5d:	mov    bl,0xe0
  4d0b5f:	jns    0x4d0b0a
  4d0b61:	mov    ch,0xe0
  4d0b63:	jns    0x4d0bbe
  4d0b65:	adc    DWORD PTR [ebx],esp
  4d0b67:	xchg   ecx,eax
  4d0b68:	iret   
  4d0b69:	adc    al,0x23
  4d0b6b:	xchg   ecx,eax
  4d0b6c:	xchg   ecx,eax
  4d0b6d:	dec    edx
  4d0b6e:	movs   BYTE PTR es:[edi],BYTE PTR ds:[esi]
  4d0b6f:	movs   DWORD PTR es:[edi],DWORD PTR ds:[esi]
  4d0b70:	mov    ah,0x1c
  4d0b72:	dec    esp
  4d0b73:	pop    esp
  4d0b74:	scas   eax,DWORD PTR es:[edi]
  4d0b75:	sbb    al,0x4c
  4d0b77:	mov    ah,0x97
  4d0b79:	sbb    DWORD PTR [esp+esi*4+0x1b],ecx
  4d0b7d:	loope  0x4d0ba5
  4d0b7f:	mov    ah,0x70
  4d0b81:	loope  0x4d0b5c
  4d0b83:	rcl    DWORD PTR [ebx],0xb6
  4d0b86:	es xchg esp,eax
  4d0b88:	cmp    bh,BYTE PTR ds:0x3d4ffc6b
  4d0b8e:	aas    
  4d0b8f:	movs   BYTE PTR es:[edi],BYTE PTR ds:[esi]
  4d0b90:	scas   eax,DWORD PTR es:[edi]
  4d0b91:	or     DWORD PTR [ebx],ebx
  4d0b93:	hlt    
  4d0b94:	std    
  4d0b95:	pop    edi
  4d0b96:	dec    esp
  4d0b97:	or     esp,DWORD PTR [edi+0x575c1473]
  4d0b9d:	es or  al,0xb4
  4d0ba0:	jge    0x4d0bc7
  4d0ba2:	or     al,0xb4
  4d0ba4:	cmc    
  4d0ba5:	arpl   WORD PTR [eax],si
  4d0ba7:	cmp    eax,esi
  4d0ba9:	gs push esi
  4d0bab:	into   
  4d0bac:	scas   eax,DWORD PTR es:[edi]
  4d0bad:	jae    0x4d0c05
  4d0baf:	out    dx,al
  4d0bb0:	fldenv [ebp+0x6f]
  4d0bb3:	mov    dh,0xec
  4d0bb5:	adc    DWORD PTR [esi+0x3d],edi
  4d0bb8:	mov    bl,0x25
  4d0bba:	adc    al,0x39
  4d0bbc:	fisub  DWORD PTR ds:0xdad93924
  4d0bc2:	push   esp
  4d0bc3:	imul   ecx,DWORD PTR [ecx+0x1790125],0x54296d58
  4d0bcd:	xor    ch,BYTE PTR [ecx+0x7e]
  4d0bd0:	push   es
  4d0bd1:	int    0x3c
  4d0bd3:	jb     0x4d0c26
  4d0bd5:	cmps   DWORD PTR ds:[esi],DWORD PTR es:[edi]
  4d0bd6:	ds and eax,0xeab5f101
  4d0bdc:	mov    DWORD PTR [edx],ecx
  4d0bde:	inc    esi
  4d0bdf:	dec    esi
  4d0be0:	(bad)  
  4d0be1:	cmc    
  4d0be2:	adc    eax,DWORD PTR [edx-0x73]
  4d0be5:	jle    0x4d0bc4
  4d0be7:	inc    ecx
  4d0be8:	ret    
  4d0be9:	inc    edx
  4d0bea:	push   eax
  4d0beb:	cmp    dl,bl
  4d0bed:	leave  
  4d0bee:	pop    es
  4d0bef:	sbb    ah,dl
  4d0bf1:	jle    0x4d0c39
  4d0bf3:	or     al,0xd6
  4d0bf5:	xchg   BYTE PTR [ecx-0x45],cl
  4d0bf8:	sahf   
  4d0bf9:	sub    BYTE PTR [ecx],0x30
  4d0bfc:	fcom   DWORD PTR [esp+ebp*4+0x27d5abf0]
  4d0c03:	mov    bh,0xa2
  4d0c05:	push   eax
  4d0c06:	out    0xc3,eax
  4d0c08:	xchg   edi,eax
  4d0c09:	mov    eax,0xb896c776
  4d0c0e:	std    
  4d0c0f:	nop    edi
  4d0c12:	(bad)  
  4d0c14:	push   0x6ae7d9fd
  4d0c19:	mov    cl,ch
  4d0c1b:	sbb    BYTE PTR [edx+ebx*4],bl
  4d0c1e:	inc    esi
  4d0c1f:	setns  BYTE PTR [di+0x5e3c]
  4d0c25:	adc    ch,BYTE PTR [ecx+0x6e]
  4d0c28:	or     eax,0x5e3f3e43
  4d0c2d:	sub    DWORD PTR [edx],edi
  4d0c2f:	outs   dx,BYTE PTR ds:[esi]
  4d0c30:	or     dh,dl
  4d0c32:	outs   dx,DWORD PTR ds:[esi]
  4d0c33:	bound  edx,QWORD PTR [eax-0x1b]
  4d0c36:	scas   eax,DWORD PTR es:[edi]
  4d0c37:	xor    eax,0xbef04fa2
  4d0c3c:	push   0x3c4154bc
  4d0c41:	mov    al,0xc
  4d0c43:	and    BYTE PTR [esi+0xec22477],bh
  4d0c49:	lahf   
  4d0c4a:	das    
  4d0c4b:	ret    
  4d0c4c:	or     eax,0xc42c79f
  4d0c51:	lahf   
  4d0c52:	(bad)  
  4d0c53:	sbb    ah,BYTE PTR [ebx-0x61]
  4d0c56:	xchg   DWORD PTR [edx],ebx
  4d0c58:	bound  esp,QWORD PTR [eax-0xe]
  4d0c5b:	jb     0x4d0c90
  4d0c5d:	jmp    0x4d0c68
  4d0c5f:	stc    
  4d0c60:	ret    0x303
  4d0c63:	std    
  4d0c64:	rol    DWORD PTR [ebx],0x67
  4d0c67:	add    dh,bl
  4d0c69:	xor    esp,DWORD PTR [edi+0x2]
  4d0c6c:	repnz imul ebp,esp,0x42
  4d0c70:	std    
  4d0c71:	loopne 0x4d0c1f
  4d0c73:	dec    esi
  4d0c74:	ret    
  4d0c75:	mov    eax,0x33c63ab4
  4d0c7a:	mov    ah,0xd1
  4d0c7c:	xor    BYTE PTR [eax-0xecd0a48],bh
  4d0c82:	test   BYTE PTR [esi+0x42],bh
  4d0c85:	fld    DWORD PTR [edi-0x605e3577]
  4d0c8b:	add    BYTE PTR [ecx-0x8080643],bh
  4d0c91:	stos   DWORD PTR es:[edi],eax
  4d0c92:	stc    
  4d0c93:	xlat   BYTE PTR ds:[ebx]
  4d0c94:	and    DWORD PTR [edi-0x58678963],0xe712769d
  4d0c9e:	lods   eax,DWORD PTR ds:[esi]
  4d0c9f:	jmp    FWORD PTR [ecx-0x11]
  4d0ca2:	push   edx
  4d0ca3:	stos   BYTE PTR es:[edi],al
  4d0ca4:	jl     0x4d0cad
  4d0ca6:	and    al,0xa8
  4d0ca8:	jnp    0x4d0cb1
  4d0caa:	jns    0x4d0d0d
  4d0cac:	and    cl,BYTE PTR [esi-0x10c2baf3]
  4d0cb2:	pop    ebp
  4d0cb3:	lods   eax,DWORD PTR ds:[esi]
  4d0cb4:	(bad)  
  4d0cb5:	jmp    0xf525:0x6ba6ad5d
  4d0cbc:	movs   DWORD PTR es:[edi],DWORD PTR ds:[esi]
  4d0cbd:	imul   esp,DWORD PTR ds:0xae66cff5,0xaaa1eaf1
  4d0cc7:	aad    0xe9
  4d0cc9:	mov    eax,ds:0xd515d5aa
  4d0cce:	mov    ss,ecx
  4d0cd0:	inc    esp
  4d0cd1:	out    0x4e,al
  4d0cd3:	adc    ah,BYTE PTR [ebx]
  4d0cd5:	ins    DWORD PTR es:[edi],dx
  4d0cd6:	mov    ebp,0x36515411
  4d0cdb:	cmps   DWORD PTR ds:[esi],DWORD PTR es:[edi]
  4d0cdc:	rcl    DWORD PTR [ecx+0x36],cl
  4d0cdf:	cmps   DWORD PTR ds:[esi],DWORD PTR es:[edi]
  4d0ce0:	push   ebp
  4d0ce1:	cmps   DWORD PTR ds:[esi],DWORD PTR es:[edi]
  4d0ce2:	inc    edx
  4d0ce3:	aam    0x55
  4d0ce5:	push   esp
  4d0ce6:	leave  
  4d0ce7:	stos   BYTE PTR es:[edi],al
  4d0ce8:	pop    eax
  4d0ce9:	shl    DWORD PTR [esi],1
  4d0ceb:	fidiv  WORD PTR [ecx]
  4d0ced:	ror    ch,cl
  4d0cef:	mov    ebp,ecx
  4d0cf1:	xchg   ecx,ecx
  4d0cf3:	or     al,0xc
  4d0cf5:	repnz int 0x5b
  4d0cf8:	repnz cmps DWORD PTR ds:[esi],DWORD PTR es:[edi]
  4d0cfa:	int    0xb
  4d0cfc:	mov    ds:0x9f1bbb2c,eax
  4d0d01:	fbstp  TBYTE PTR [eax]
  4d0d03:	in     eax,0x31
  4d0d05:	pop    edx
  4d0d06:	lock nop
  4d0d08:	leave  
  4d0d09:	jno    0x4d0d12
  4d0d0b:	sbb    eax,DWORD PTR [esi]
  4d0d0d:	das    
  4d0d0e:	push   esi
  4d0d0f:	dec    ebx
  4d0d10:	push   ecx
  4d0d11:	inc    ebp
  4d0d12:	push   edx
  4d0d13:	sbb    al,BYTE PTR ds:0x521607ba
  4d0d19:	xor    DWORD PTR [ecx],eax
  4d0d1b:	xchg   ebx,eax
  4d0d1c:	xchg   ecx,eax
  4d0d1d:	mov    eax,ds:0xb1d61891
  4d0d22:	sbb    al,0x2c
  4d0d24:	aam    0xe6
  4d0d26:	mov    cl,0xa9
  4d0d28:	adc    edx,DWORD PTR [edx-0x6dedff56]
  4d0d2e:	stos   BYTE PTR es:[edi],al
  4d0d2f:	and    BYTE PTR [esi-0x6a],0x27
  4d0d33:	les    esp,FWORD PTR [esp+edx*4+0x2]
  4d0d37:	cmp    ebx,DWORD PTR [edx+0x646b7d6b]
  4d0d3d:	pop    ds
  4d0d3e:	pop    ecx
  4d0d3f:	jg     0x4d0cdb
  4d0d41:	dec    edx
  4d0d42:	push   ecx
  4d0d43:	aam    0x70
  4d0d45:	stos   BYTE PTR es:[edi],al
  4d0d46:	push   cs
  4d0d47:	mov    ah,BYTE PTR [edi]
  4d0d49:	repz pop edx
  4d0d4b:	fidiv  DWORD PTR [ebp-0x5c]
  4d0d4e:	movs   DWORD PTR es:[edi],DWORD PTR ds:[esi]
  4d0d4f:	(bad)  
  4d0d50:	js     0x4d0d4e
  4d0d52:	es dec ecx
  4d0d54:	imul   edx,DWORD PTR [edi],0xffffffa9
  4d0d57:	sub    BYTE PTR [edi+0x2bfb2277],ah
  4d0d5d:	test   DWORD PTR [ecx],esp
  4d0d5f:	lea    edx,[esi]
  4d0d61:	scas   al,BYTE PTR es:[edi]
  4d0d62:	ja     0x4d0d1d
  4d0d64:	xchg   edx,eax
  4d0d65:	jl     0x4d0ddf
  4d0d67:	cmp    eax,0x3d787c06
  4d0d6c:	mov    edx,?
  4d0d6e:	fdivr  QWORD PTR ds:0x8b57f28b
  4d0d74:	sub    dh,dl
  4d0d76:	push   edi
  4d0d77:	mov    ebp,DWORD PTR [esi+0x2e0f5804]
  4d0d7d:	add    al,0x58
  4d0d7f:	cvttps2pi mm6,xmm7
  4d0d82:	cmc    
  4d0d83:	test   bl,dl
  4d0d85:	hlt    
  4d0d86:	push   cs
  4d0d87:	aam    0x57
  4d0d89:	xor    BYTE PTR [esi-0x7b],bl
  4d0d8c:	add    al,0x60
  4d0d8e:	xor    al,0x81
  4d0d90:	imul   esp,DWORD PTR [eax+0x24],0xffffff81
  4d0d94:	push   0x37
  4d0d96:	cmps   DWORD PTR ds:[esi],DWORD PTR es:[edi]
  4d0d97:	imul   ebp,DWORD PTR [ebp+0x67],0x67046dcd
  4d0d9e:	(bad)  [ebp+0x3]
  4d0da1:	xor    BYTE PTR [ecx+ebp*2+0x26],bl
  4d0da5:	xor    BYTE PTR [ecx+ebp*2+0x25],cl
  4d0da9:	iret   
  4d0daa:	sbb    DWORD PTR [ebp-0x27],esp
  4d0dad:	call   0xf73e:0x377f3f15
  4d0db4:	sub    eax,0xc326f6bc
  4d0db9:	aas    
  4d0dba:	pop    ds
  4d0dbb:	and    ch,bh
  4d0dbd:	(bad)  
  4d0dbe:	jns    0x4d0d4f
  4d0dc0:	mov    BYTE PTR [esi+0x79],dl
  4d0dc3:	mov    edi,0x405c5efb
  4d0dc8:	repz pop esi
  4d0dca:	pop    esp
  4d0dcb:	inc    ecx
  4d0dcc:	out    0x59,al
  4d0dce:	mov    esi,0xfad4beaf
  4d0dd3:	mov    edi,DWORD PTR [ecx+0x45dba885]
  4d0dd9:	mov    ch,0xc0
  4d0ddb:	fist   DWORD PTR [ebp+esi*4-0x40]
  4d0ddf:	mov    esi,ss
  4d0de1:	pop    ebp
  4d0de2:	(bad)  
  4d0de3:	fsubr  QWORD PTR [eax]
  4d0de5:	ins    DWORD PTR es:[edi],dx
  4d0de6:	lods   al,BYTE PTR ds:[esi]
  4d0de7:	fdiv   QWORD PTR [edi]
  4d0de9:	ins    DWORD PTR es:[edi],dx
  4d0dea:	lods   al,BYTE PTR ds:[esi]
  4d0deb:	mov    esi,DWORD PTR [ebp-0x5b747797]
  4d0df1:	imul   ecx,DWORD PTR [eax+0x7765f074],0x2e3ffb21
  4d0dfb:	jns    0x4d0d9f
  4d0dfd:	mov    edx,0xdb220ce7
  4d0e02:	and    al,0x6c
  4d0e04:	enter  0x89dc,0x8e
  4d0e08:	xor    al,0x51
  4d0e0a:	mov    ebp,0x55daf68d
  4d0e0f:	push   es
  4d0e10:	add    al,0x63
  4d0e12:	inc    ebp
  4d0e13:	push   es
  4d0e14:	add    esp,DWORD PTR [ebx-0x53]
  4d0e17:	in     eax,dx
  4d0e18:	sti    
  4d0e19:	pushf  
  4d0e1a:	push   edx
  4d0e1b:	push   esp
  4d0e1c:	jecxz  0x4d0dba
  4d0e1e:	push   edx
  4d0e1f:	push   esp
  4d0e20:	or     bh,BYTE PTR [ebp-0x53]
  4d0e23:	stos   DWORD PTR es:[edi],eax
  4d0e24:	hlt    
  4d0e25:	sub    edx,DWORD PTR [esp+ebp*4]
  4d0e28:	repz sub edx,DWORD PTR [esp+eax*2]
  4d0e2c:	and    al,0xd4
  4d0e2e:	jmp    0x4d0deb
  4d0e30:	scas   al,BYTE PTR es:[edi]
  4d0e31:	add    al,0x60
  4d0e33:	(bad)
  4d0e37:	(bad)
  4d0e3b:	dec    eax
  4d0e3c:	jbe    0x4d0e80
  4d0e3e:	jle    0x4d0e03
  4d0e40:	xchg   ecx,ecx
  4d0e42:	mov    ah,0x2b
  4d0e44:	cmp    BYTE PTR [esi],dh
  4d0e46:	dec    ebx
  4d0e47:	aam    0xa
  4d0e49:	neg    BYTE PTR [ebx]
  4d0e4b:	adc    eax,0x11daf1c1
  4d0e50:	in     al,0xfc
  4d0e52:	fist   DWORD PTR ds:0xd55f50bf
  4d0e58:	leave  
  4d0e59:	mov    eax,ds:0x9a3d5e07
  4d0e5e:	ret    0x3d2a
  4d0e61:	shl    BYTE PTR [edi-0x6c1b4a09],1
  4d0e67:	dec    esi
  4d0e68:	mov    esi,0x554e93e4
  4d0e6d:	jno    0x4d0edb
  4d0e6f:	mov    cl,0xa9
  4d0e71:	jle    0x4d0e4e
  4d0e73:	mov    ebp,0x48a20fe
  4d0e78:	cmc    
  4d0e79:	and    BYTE PTR [edx+0x75a51c04],cl
  4d0e7f:	sti    
  4d0e80:	loop   0x4d0e7e
  4d0e82:	popf   
  4d0e83:	test   BYTE PTR [ebx+eax*1],bl
  4d0e86:	bound  ecx,QWORD PTR ds:0x6c7e2767
  4d0e8c:	mov    ds:0xbd84bf76,eax
  4d0e91:	iret   
  4d0e92:	lahf   
  4d0e93:	test   BYTE PTR [edi+ecx*8+0x768bf0d7],bh
  4d0e9a:	aad    0xf0
  4d0e9c:	mov    dh,BYTE PTR [esi-0x63]
  4d0e9f:	test   BYTE PTR [ecx-0x5f7b4231],ah
  4d0ea5:	iret   
  4d0ea6:	cmc    
  4d0ea7:	lock jg 0x4d0f20
  4d0eaa:	icebp  
  4d0eab:	lock jle 0x4d0f24
  4d0eae:	mov    ecx,0xf9cf6584
  4d0eb3:	test   BYTE PTR [edi+ecx*8-0x4f],ah
  4d0eb7:	lock jae 0x4d0f30
  4d0eba:	mov    ch,0xf0
  4d0ebc:	jb     0x4d0f34
  4d0ebe:	std    
  4d0ebf:	test   BYTE PTR [ecx-0x31],bh
  4d0ec2:	mov    ebp,0xf5cf7884
  4d0ec7:	lock ja 0x4d0f0e
  4d0eca:	xor    al,0xa9
  4d0ecc:	mov    bl,0x24
  4d0ece:	mov    edi,0x4da5c2fc
  4d0ed3:	ins    DWORD PTR es:[edi],dx
  4d0ed4:	daa    
  4d0ed5:	loopne 0x4d0f0c
  4d0ed7:	out    0x69,al
  4d0ed9:	mov    BYTE PTR [esi-0x190a16e8],bh
  4d0edf:	sbb    BYTE PTR [esi+esi*8+0x7dc36de7],bl
  4d0ee6:	mov    ds:0xd6bd450d,al
  4d0eeb:	sbb    bl,cl
  4d0eed:	sti    
  4d0eee:	jmp    0x6f4a:0xeaff704a
  4d0ef5:	pop    ss
  4d0ef6:	dec    edi
  4d0ef7:	dec    ebx
  4d0ef8:	outs   dx,BYTE PTR ds:[esi]
  4d0ef9:	pop    ss
  4d0efa:	adc    eax,0xed149d48
  4d0eff:	arpl   WORD PTR [edi+ebp*1-0x68],dx
  4d0f03:	cmp    esp,DWORD PTR [eax]
  4d0f05:	and    bl,BYTE PTR [ebx-0x19de84b2]
  4d0f0b:	adc    cl,BYTE PTR [edi+0x6c]
  4d0f0e:	mov    edx,0xb1188597
  4d0f13:	cmp    dl,ah
  4d0f15:	sub    esi,DWORD PTR [ebx+0x60]
  4d0f18:	jle    0x4d0ec2
  4d0f1a:	call   0xfaa0:0xfb4b9b63
  4d0f21:	enter  0xec86,0xf9
  4d0f25:	mov    esp,0xbcf50494
  4d0f2a:	xchg   esp,eax
  4d0f2b:	add    al,0x7d
  4d0f2d:	rol    eax,0x81
  4d0f30:	xor    DWORD PTR [ebp+0x16682ac6],0x77672ac6
  4d0f3a:	add    eax,0x3922974a
  4d0f3f:	ror    DWORD PTR [esi-0x57],0x4c
  4d0f43:	(bad)  
  4d0f44:	(bad)  
  4d0f45:	in     al,dx
  4d0f46:	sbb    al,0xdd
  4d0f48:	xchg   ebx,eax
  4d0f49:	test   BYTE PTR [ebx*8+0x224f849e],bl
  4d0f50:	retf   0x16c4
  4d0f53:	jb     0x4d0f95
  4d0f55:	cmp    al,0xe5
  4d0f57:	(bad)  
  4d0f58:	cmps   DWORD PTR ds:[esi],DWORD PTR es:[edi]
  4d0f59:	add    al,0xe5
  4d0f5b:	(bad)  
  4d0f5c:	cmps   BYTE PTR ds:[esi],BYTE PTR es:[edi]
  4d0f5d:	dec    esp
  4d0f5e:	ins    BYTE PTR es:[edi],dx
  4d0f5f:	xchg   edx,eax
  4d0f60:	sub    DWORD PTR [edi+eiz*8+0x6a],0x6e5a600b
  4d0f68:	or     ah,BYTE PTR [eax+0x5a]
  4d0f6b:	or     ch,BYTE PTR [edx-0x56f5a588]
  4d0f71:	repz sub ah,BYTE PTR [esi]
  4d0f74:	neg    DWORD PTR [ebx-0x6405d9d6]
  4d0f7a:	jns    0x4d0f55
  4d0f7c:	scas   al,BYTE PTR es:[edi]
  4d0f7d:	fcomi  st,st(4)
  4d0f7f:	aad    0x15
  4d0f81:	push   esp
  4d0f82:	cmc    
  4d0f83:	test   DWORD PTR [ebp+0x6d7d7e9b],ebx
  4d0f89:	ds sbb bl,ah
  4d0f8c:	je     0x4d0fcc
  4d0f8e:	sbb    bl,ah
  4d0f90:	cli    
  4d0f91:	jle    0x4d0fc9
  4d0f93:	mov    ebp,0x51b71e38
  4d0f98:	pop    ss
  4d0f99:	sbb    al,0xb7
  4d0f9b:	push   ecx
  4d0f9c:	jle    0x4d0fd6
  4d0f9e:	mov    ch,0x51
  4d0fa0:	jge    0x4d0fad
  4d0fa2:	inc    ebx
  4d0fa3:	cmp    edi,DWORD PTR [ecx+eiz*2+0x4b]
  4d0fa7:	les    ebp,FWORD PTR [eax]
  4d0fa9:	jge    0x4d0f6b
  4d0fab:	sbb    al,0x7b
  4d0fad:	cs aas 
  4d0faf:	dec    ecx
  4d0fb0:	dec    esi
  4d0fb1:	movs   DWORD PTR es:[edi],DWORD PTR ds:[esi]
  4d0fb2:	jnp    0x4d1021
  4d0fb4:	push   ecx
  4d0fb5:	cmps   BYTE PTR ds:[esi],BYTE PTR es:[edi]
  4d0fb6:	cmp    edx,DWORD PTR [ecx-0x27]
  4d0fb9:	es sti 
  4d0fbb:	push   ecx
  4d0fbc:	fsub   DWORD PTR [esi]
  4d0fbe:	jle    0x4d0f51
  4d0fc0:	stos   DWORD PTR es:[edi],eax
  4d0fc1:	daa    
  4d0fc2:	cmp    ch,al
  4d0fc4:	neg    eax
  4d0fc6:	ins    DWORD PTR es:[edi],dx
  4d0fc7:	std    
  4d0fc8:	jno    0x4d0fe2
  4d0fca:	sbb    BYTE PTR [eax],bl
  4d0fcc:	and    edi,esp
  4d0fce:	dec    ebp
  4d0fcf:	add    BYTE PTR [edi-0x61fd96dd],bl
  4d0fd5:	and    esp,eax
  4d0fd7:	jbe    0x4d0f92
  4d0fd9:	aas    
  4d0fda:	xor    DWORD PTR [ebp-0x2612a828],0xab8557d7
  4d0fe4:	mov    ds:0xcec3e179,al
  4d0fe9:	or     dl,BYTE PTR [edi-0x3d0a6660]
  4d0fef:	movs   BYTE PTR es:[edi],BYTE PTR ds:[esi]
  4d0ff0:	sbb    esi,DWORD PTR ds:0xca4eacb7
  4d0ff6:	loop   0x4d0fa4
  4d0ff8:	retf   0x960a
  4d0ffb:	loope  0x4d0f9c
  4d0ffd:	or     bh,dh
  4d0fff:	mov    al,dh
  4d1001:	jle    0x4d0f9b
  4d1003:	loopne 0x4d0f9a
  4d1005:	or     eax,ebp
  4d1007:	xchg   edx,eax
  4d1008:	rcr    BYTE PTR [ecx+0x17],0xc7
  4d100c:	(bad)  
  4d100d:	fcmovbe st,st(3)
  4d100f:	retf   
  4d1010:	dec    ebx
  4d1011:	sub    al,BYTE PTR [ebx-0x1695df61]
  4d1017:	cwde   
  4d1018:	jne    0x4d0faf
  4d101a:	mov    esp,0xe8c52c94
  4d101f:	les    eax,FWORD PTR [ebp-0x3e]
  4d1022:	mov    esi,0xbec2622c
  4d1027:	sub    al,0xe8
  4d1029:	(bad)  
  4d102a:	call   0x2dad:0x9aec2ead
  4d1031:	xchg   BYTE PTR [ebp-0x25dd220c],bl
  4d1037:	jg     0x4d1053
  4d1039:	mov    DWORD PTR [edi+0x1],edx
  4d103c:	loop   0x4d1077
  4d103e:	aas    
  4d103f:	stos   DWORD PTR es:[edi],eax
  4d1040:	mov    ecx,0x12688f92
  4d1045:	ins    DWORD PTR es:[edi],dx
  4d1046:	fisub  DWORD PTR [ecx+ecx*2-0x12]
  4d104a:	push   ds
  4d104b:	push   0x97462d27
  4d1050:	idiv   BYTE PTR [eax-0x52]
  4d1053:	or     ebp,esi
  4d1055:	js     0x4d1005
  4d1057:	push   esp
  4d1058:	ja     0x4d1097
  4d105a:	(bad)  
  4d105c:	mov    dh,0x39
  4d105e:	push   edi
  4d105f:	xchg   ebx,eax
  4d1060:	xchg   ecx,eax
  4d1061:	sub    DWORD PTR [edx],ecx
  4d1063:	xchg   ebx,eax
  4d1064:	nop
  4d1065:	sub    DWORD PTR [edx],ecx
  4d1067:	xchg   ebx,eax
  4d1068:	vprotq xmm9,[esi-0x18af9dd7],xmm3
  4d1071:	sbb    dl,BYTE PTR [esi+esi*1+0x50ce575c]
  4d1078:	lock xor ebp,edi
  4d107b:	add    BYTE PTR [ebx-0x7f9183c7],0x29
  4d1082:	jl     0x4d10f2
  4d1084:	push   0xffffffc4
  4d1086:	icebp  
  4d1087:	xor    BYTE PTR [ebx+0x61450e40],dl
  4d108d:	retf   
  4d108e:	js     0x4d110f
  4d1090:	push   es
  4d1091:	jno    0x4d10bb
  4d1093:	cmp    cl,BYTE PTR [edx+0x265c3645]
  4d1099:	and    eax,DWORD PTR ds:0xc6c3528c
  4d109f:	frstor [eax+0xa]
  4d10a2:	xchg   esi,esi
  4d10a4:	mov    eax,ds:0xa2828372
  4d10a9:	cdq    
  4d10aa:	je     0x4d105d
  4d10ac:	popa   
  4d10ad:	call   0xd875:0xc39c53b6
  4d10b4:	loopne 0x4d1061
  4d10b6:	pop    ds
  4d10b7:	fadd   QWORD PTR [edi-0x7923f055]
  4d10bd:	cld    
  4d10be:	fdivr  QWORD PTR gs:[eax-0x57]
  4d10c2:	jne    0x4d111b
  4d10c4:	xchg   DWORD PTR [eax],ebp
  4d10c6:	cdq    
  4d10c7:	push   ebx
  4d10c8:	test   DWORD PTR [eax],ebp
  4d10ca:	cdq    
  4d10cb:	fdivr  DWORD PTR [eax+0x40]
  4d10ce:	popf   
  4d10cf:	fnstenv [edi+0x40]
  4d10d2:	retf   0x878a
  4d10d5:	adc    eax,0x7d86e0ea
  4d10da:	push   0xffffffe0
  4d10dc:	test   DWORD PTR [ebp+0x0],edi
  4d10df:	jecxz  0x4d10cf
  4d10e1:	jge    0x4d114d
  4d10e3:	loop   0x4d106a
  4d10e5:	jge    0x4d1151
  4d10e7:	loop   0x4d10ed
  4d10e9:	sub    dl,BYTE PTR [ebp+0x51ab1fb7]
  4d10ef:	mov    bl,0x1d
  4d10f1:	stos   DWORD PTR es:[edi],eax
  4d10f2:	push   ecx
  4d10f3:	jo     0x4d1081
  4d10f5:	repz scas al,BYTE PTR es:[edi]
  4d10f7:	mov    al,ds:0xc10c2776
  4d10fc:	sti    
  4d10fd:	sbb    ecx,DWORD PTR [eax]
  4d10ff:	mov    WORD PTR [ebp+0x6740a7a3],?
  4d1105:	cwde   
  4d1106:	mov    BYTE PTR ds:[esi+0x14],0x76
  4d110b:	movs   BYTE PTR es:[edi],BYTE PTR ds:[esi]
  4d110c:	cmps   BYTE PTR ds:[esi],BYTE PTR es:[edi]
  4d110d:	scas   ax,WORD PTR es:[edi]
  4d110f:	mov    edi,0xd371da45
  4d1114:	fnsave [ebp+ebp*8+0x7]
  4d1118:	sbb    al,0x57
  4d111a:	movs   BYTE PTR es:[edi],BYTE PTR ds:[esi]
  4d111b:	fwait
  4d111c:	ret    
  4d111d:	cmp    cl,BYTE PTR [ecx]
  4d111f:	mov    WORD PTR [ebx+esi*8],?
  4d1122:	mov    ds:0x399f7909,eax
  4d1127:	and    BYTE PTR [eax+0x1c],dh
  4d112a:	xor    al,BYTE PTR [edi-0x79db0538]
  4d1130:	xchg   esi,esp
  4d1132:	and    eax,0xc7ae3b0d
  4d1137:	retf   0x11b5
  4d113a:	fwait
  4d113b:	in     al,dx
  4d113c:	mov    dh,0x82
  4d113e:	movs   BYTE PTR es:[edi],BYTE PTR ds:[esi]
  4d113f:	pop    ebx
  4d1140:	mov    ch,0x82
  4d1142:	movs   BYTE PTR es:[edi],BYTE PTR ds:[esi]
  4d1143:	pop    ebx
  4d1144:	mov    ah,0x82
  4d1146:	movs   BYTE PTR es:[edi],BYTE PTR ds:[esi]
  4d1147:	pop    ebx
  4d1148:	mov    bl,0x82
  4d114a:	movs   BYTE PTR es:[edi],BYTE PTR ds:[esi]
  4d114b:	pop    ebx
  4d114c:	mov    dl,0x82
  4d114e:	movs   BYTE PTR es:[edi],BYTE PTR ds:[esi]
  4d114f:	pop    ebx
  4d1150:	mov    cl,0x82
  4d1152:	movs   BYTE PTR es:[edi],BYTE PTR ds:[esi]
  4d1153:	pop    ebx
  4d1154:	mov    al,0x82
  4d1156:	movs   BYTE PTR es:[edi],BYTE PTR ds:[esi]
  4d1157:	pop    ebx
  4d1158:	scas   eax,DWORD PTR es:[edi]
  4d1159:	and    BYTE PTR [ebx+ebx*2+0x5ba4daae],0xad
  4d1161:	and    BYTE PTR [ecx-0x5e7953a5],0x5b
  4d1168:	dec    ebp
  4d1169:	add    BYTE PTR ss:[esi+0x1bb7c1d],bh
