
9bbc38f23fa1c6949d36008b954ec9e137263a22a4ffd62c7c346f862e04ff7e.exe:     file format pei-i386


Disassembly of section .text:

00401000 <.text>:
  401000:	add    BYTE PTR [eax],al
  401002:	add    BYTE PTR [eax],al
  401004:	mov    edi,edi
  401006:	push   ebp
  401007:	mov    ebp,esp
  401009:	sub    esp,0x5c
  40100c:	push   ecx
  40100d:	push   esi
  40100e:	push   DWORD PTR [ecx+0x35c]
  401014:	push   DWORD PTR [ecx+0x1cc]
  40101a:	call   0x40133c
  40101f:	add    esp,0xc
  401022:	pop    ecx
  401023:	push   ecx
  401024:	push   0x0
  401026:	push   0x40302c
  40102b:	pop    eax
  40102c:	notrack call DWORD PTR [eax]
  40102f:	pop    ecx
  401030:	push   ecx
  401031:	push   0x403044
  401036:	pop    eax
  401037:	notrack call DWORD PTR [eax]
  40103a:	pop    ecx
  40103b:	sub    esp,0xffffffa4
  40103e:	mov    ebp,DWORD PTR [esp]
  401041:	add    esp,0x4
  401044:	ret    
  401045:	add    BYTE PTR [eax],al
  401047:	add    BYTE PTR [eax],al
  401049:	add    BYTE PTR [eax],al
  40104b:	add    BYTE PTR [edi],cl
  40104d:	xchg   DWORD PTR [esi+0x0],edx
  401050:	add    BYTE PTR [eax],al
  401052:	add    BYTE PTR [eax],al
  401054:	mov    edi,edi
  401056:	push   ebp
  401057:	mov    ebp,esp
  401059:	sub    esp,0x48
  40105c:	push   ecx
  40105d:	push   DWORD PTR [ecx+0x164]
  401063:	push   DWORD PTR [ecx+0x338]
  401069:	push   edx
  40106a:	push   DWORD PTR [ecx+0xf0]
  401070:	call   0x4015bc
  401075:	add    esp,0x10
  401078:	pop    ecx
  401079:	push   ecx
  40107a:	lea    ecx,[ecx]
  40107c:	push   ecx
  40107d:	push   0x403040
  401082:	pop    eax
  401083:	notrack call DWORD PTR [eax]
  401086:	test   eax,eax
  401088:	jne    0x40107a
  40108a:	pop    ecx
  40108b:	push   ecx
  40108c:	mov    edx,0x0
  401091:	push   edx
  401092:	push   0x40302c
  401097:	pop    eax
  401098:	notrack call DWORD PTR [eax]
  40109b:	pop    ecx
  40109c:	sub    esp,0xffffffb8
  40109f:	mov    ebp,DWORD PTR [esp]
  4010a2:	add    esp,0x4
  4010a5:	ret    
  4010a6:	add    BYTE PTR [eax],al
  4010a8:	mov    edi,edi
  4010aa:	pusha  
  4010ab:	push   ebp
  4010ac:	mov    ebp,esp
  4010ae:	sub    esp,0x58
  4010b1:	push   ecx
  4010b2:	push   0x0
  4010b4:	push   0x403008
  4010b9:	pop    eax
  4010ba:	notrack call DWORD PTR [eax]
  4010bd:	pop    ecx
  4010be:	test   eax,eax
  4010c0:	je     0x4010c3
  4010c2:	ret    
  4010c3:	push   ecx
  4010c4:	push   DWORD PTR [ecx+0x3d4]
  4010ca:	push   DWORD PTR [ecx+0x2a8]
  4010d0:	call   0x401a5c
  4010d5:	add    esp,0x8
  4010d8:	pop    ecx
  4010d9:	push   ecx
  4010da:	push   0x0
  4010dc:	push   0x403000
  4010e1:	pop    eax
  4010e2:	notrack call DWORD PTR [eax]
  4010e5:	pop    ecx
  4010e6:	mov    esi,0x403040
  4010eb:	mov    esi,DWORD PTR [esi]
  4010ed:	push   esi
  4010ee:	push   DWORD PTR [ecx+0x33c]
  4010f4:	pop    edi
  4010f5:	call   edi
  4010f7:	sub    esp,0xffffffa8
  4010fa:	mov    ebp,DWORD PTR [esp]
  4010fd:	add    esp,0x4
  401100:	ret    
  401101:	add    BYTE PTR [eax],al
  401103:	add    BYTE PTR [eax],al
  401105:	add    BYTE PTR [eax],al
  401107:	add    BYTE PTR [ebx-0x1374aa01],cl
  40110d:	sub    esp,0x3c
  401110:	push   ecx
  401111:	push   ebx
  401112:	push   eax
  401113:	push   DWORD PTR [ecx+0x3cc]
  401119:	push   edi
  40111a:	call   0x4016e8
  40111f:	add    esp,0x10
  401122:	pop    ecx
  401123:	push   ecx
  401124:	mov    edi,0x0
  401129:	push   edi
  40112a:	push   0x403004
  40112f:	pop    eax
  401130:	notrack call DWORD PTR [eax]
  401133:	pop    ecx
  401134:	push   ecx
  401135:	mov    ebx,0x0
  40113a:	push   ebx
  40113b:	push   0x403034
  401140:	pop    eax
  401141:	notrack call DWORD PTR [eax]
  401144:	pop    ecx
  401145:	sub    esp,0xffffffc4
  401148:	mov    ebp,DWORD PTR [esp]
  40114b:	add    esp,0x4
  40114e:	ret    
  40114f:	add    BYTE PTR [ebx-0x1374aa01],cl
  401155:	sub    esp,0x48
  401158:	push   ecx
  401159:	push   edi
  40115a:	push   DWORD PTR [ecx+0x310]
  401160:	push   edx
  401161:	call   0x401d34
  401166:	add    esp,0xc
  401169:	pop    ecx
  40116a:	push   ecx
  40116b:	push   0x403044
  401170:	pop    eax
  401171:	notrack call DWORD PTR [eax]
  401174:	pop    ecx
  401175:	push   ecx
  401176:	push   0x0
  401178:	push   0x40304c
  40117d:	pop    eax
  40117e:	notrack call DWORD PTR [eax]
  401181:	pop    ecx
  401182:	sub    esp,0xffffffb8
  401185:	mov    ebp,DWORD PTR [esp]
  401188:	add    esp,0x4
  40118b:	ret    
  40118c:	mov    edi,edi
  40118e:	push   ebp
  40118f:	mov    ebp,esp
  401191:	sub    esp,0x3c
  401194:	push   ecx
  401195:	push   DWORD PTR [ecx+0x3b0]
  40119b:	push   ebx
  40119c:	call   0x401738
  4011a1:	add    esp,0x8
  4011a4:	pop    ecx
  4011a5:	push   ecx
  4011a6:	mov    edi,0x0
  4011ab:	push   edi
  4011ac:	push   0x403084
  4011b1:	pop    eax
  4011b2:	notrack call DWORD PTR [eax]
  4011b5:	pop    ecx
  4011b6:	push   ecx
  4011b7:	lea    edx,[ecx]
  4011b9:	push   edx
  4011ba:	push   0x403040
  4011bf:	pop    eax
  4011c0:	notrack call DWORD PTR [eax]
  4011c3:	test   eax,eax
  4011c5:	jne    0x4011b7
  4011c7:	pop    ecx
  4011c8:	sub    esp,0xffffffc4
  4011cb:	mov    ebp,DWORD PTR [esp]
  4011ce:	add    esp,0x4
  4011d1:	ret    
  4011d2:	add    BYTE PTR [eax],al
  4011d4:	mov    edi,edi
  4011d6:	push   ebp
  4011d7:	mov    ebp,esp
  4011d9:	sub    esp,0x28
  4011dc:	push   ecx
  4011dd:	push   edx
  4011de:	push   DWORD PTR [ecx+0xac]
  4011e4:	call   0x401004
  4011e9:	add    esp,0x8
  4011ec:	pop    ecx
  4011ed:	push   ecx
  4011ee:	mov    edi,0x0
  4011f3:	push   edi
  4011f4:	push   0x40304c
  4011f9:	pop    eax
  4011fa:	notrack call DWORD PTR [eax]
  4011fd:	pop    ecx
  4011fe:	push   ecx
  4011ff:	mov    edx,0x0
  401204:	push   edx
  401205:	push   0x403078
  40120a:	pop    eax
  40120b:	notrack call DWORD PTR [eax]
  40120e:	pop    ecx
  40120f:	sub    esp,0xffffffd8
  401212:	mov    ebp,DWORD PTR [esp]
  401215:	add    esp,0x4
  401218:	ret    
  401219:	add    BYTE PTR [eax],al
  40121b:	add    BYTE PTR [ebx-0x1374aa01],cl
  401221:	sub    esp,0x54
  401224:	push   ecx
  401225:	push   0x0
  401227:	push   0x40304c
  40122c:	pop    eax
  40122d:	notrack call DWORD PTR [eax]
  401230:	pop    ecx
  401231:	push   ecx
  401232:	push   eax
  401233:	push   edx
  401234:	push   DWORD PTR [ecx+0x2a8]
  40123a:	push   DWORD PTR [ecx+0x128]
  401240:	call   0x4011d4
  401245:	add    esp,0x10
  401248:	pop    ecx
  401249:	push   ecx
  40124a:	push   0x403044
  40124f:	pop    eax
  401250:	notrack call DWORD PTR [eax]
  401253:	pop    ecx
  401254:	sub    esp,0xffffffac
  401257:	mov    ebp,DWORD PTR [esp]
  40125a:	add    esp,0x4
  40125d:	ret    
  40125e:	add    BYTE PTR [eax],al
  401260:	add    BYTE PTR [eax],al
  401262:	add    BYTE PTR [eax],al
  401264:	mov    edi,edi
  401266:	push   ebp
  401267:	mov    ebp,esp
  401269:	sub    esp,0x50
  40126c:	push   ecx
  40126d:	push   0x40
  40126f:	push   0x1000
  401274:	push   0x6bc
  401279:	push   0x0
  40127b:	push   0x0
  40127d:	xor    DWORD PTR [esp],0x17e8534d
  401284:	pop    edx
  401285:	sub    edx,0x17a82341
  40128b:	push   DWORD PTR [edx]
  40128d:	sub    DWORD PTR [esp],0x2
  401291:	push   0x403018
  401296:	pop    edx
  401297:	pop    DWORD PTR [edx]
  401299:	push   0x403018
  40129e:	pop    eax
  40129f:	notrack call DWORD PTR [eax]
  4012a2:	xchg   DWORD PTR [esp],eax
  4012a5:	mov    ecx,eax
  4012a7:	pop    edi
  4012a8:	mov    DWORD PTR [ecx+0x33c],edi
  4012ae:	mov    edi,DWORD PTR [ecx+0x33c]
  4012b4:	mov    edx,edi
  4012b6:	sub    edi,edi
  4012b8:	dec    edi
  4012b9:	and    edi,0x401ebe
  4012bf:	mov    esi,0x45ae3219
  4012c4:	mov    eax,0x6bc
  4012c9:	mov    ebx,esi
  4012cb:	add    ebx,DWORD PTR [edi]
  4012cd:	sub    ebx,0x1
  4012d0:	mov    DWORD PTR [edx],ebx
  4012d2:	push   DWORD PTR [edi]
  4012d4:	mov    esi,0xfffffffc
  4012d9:	sub    edi,esi
  4012db:	sub    edx,esi
  4012dd:	pop    esi
  4012de:	dec    esi
  4012df:	sub    eax,0x4
  4012e2:	cmp    eax,0x0
  4012e5:	jne    0x4012c9
  4012e7:	push   ecx
  4012e8:	push   0x40301c
  4012ed:	pop    eax
  4012ee:	notrack call DWORD PTR [eax]
  4012f1:	pop    ecx
  4012f2:	sub    esp,0xffffffb0
  4012f5:	pop    ebp
  4012f6:	ret    
  4012f7:	add    BYTE PTR [ebx-0x1374aa01],cl
  4012fd:	sub    esp,0x5c
  401300:	push   ecx
  401301:	push   ebx
  401302:	push   esi
  401303:	push   DWORD PTR [ecx+0x35c]
  401309:	call   0x401410
  40130e:	add    esp,0xc
  401311:	pop    ecx
  401312:	push   ecx
  401313:	push   0x0
  401315:	push   0x403014
  40131a:	pop    eax
  40131b:	notrack call DWORD PTR [eax]
  40131e:	pop    ecx
  40131f:	push   ecx
  401320:	mov    edx,0x0
  401325:	push   edx
  401326:	push   0x403070
  40132b:	pop    eax
  40132c:	notrack call DWORD PTR [eax]
  40132f:	pop    ecx
  401330:	sub    esp,0xffffffa4
  401333:	mov    ebp,DWORD PTR [esp]
  401336:	add    esp,0x4
  401339:	ret    
  40133a:	add    BYTE PTR [eax],al
  40133c:	mov    edi,edi
  40133e:	push   ebp
  40133f:	mov    ebp,esp
  401341:	sub    esp,0x54
  401344:	push   ecx
  401345:	push   DWORD PTR [ecx+0x54]
  401348:	push   eax
  401349:	call   0x4012f8
  40134e:	add    esp,0x8
  401351:	pop    ecx
  401352:	push   ecx
  401353:	mov    edx,0x0
  401358:	push   edx
  401359:	push   0x40304c
  40135e:	pop    eax
  40135f:	notrack call DWORD PTR [eax]
  401362:	pop    ecx
  401363:	push   ecx
  401364:	push   0x0
  401366:	push   0x40304c
  40136b:	pop    eax
  40136c:	notrack call DWORD PTR [eax]
  40136f:	pop    ecx
  401370:	sub    esp,0xffffffac
  401373:	mov    ebp,DWORD PTR [esp]
  401376:	add    esp,0x4
  401379:	ret    
  40137a:	add    BYTE PTR [eax],al
  40137c:	mov    edi,edi
  40137e:	push   ebp
  40137f:	mov    ebp,esp
  401381:	sub    esp,0x2c
  401384:	push   ecx
  401385:	push   esi
  401386:	push   edi
  401387:	push   edx
  401388:	push   esi
  401389:	call   0x401054
  40138e:	add    esp,0x10
  401391:	pop    ecx
  401392:	push   ecx
  401393:	mov    esi,0x0
  401398:	push   esi
  401399:	push   0x403084
  40139e:	pop    eax
  40139f:	notrack call DWORD PTR [eax]
  4013a2:	pop    ecx
  4013a3:	push   ecx
  4013a4:	push   0x0
  4013a6:	push   0x403084
  4013ab:	pop    eax
  4013ac:	notrack call DWORD PTR [eax]
  4013af:	pop    ecx
  4013b0:	sub    esp,0xffffffd4
  4013b3:	mov    ebp,DWORD PTR [esp]
  4013b6:	add    esp,0x4
  4013b9:	ret    
  4013ba:	add    BYTE PTR [eax],al
  4013bc:	mov    edi,edi
  4013be:	push   ebp
  4013bf:	mov    ebp,esp
  4013c1:	sub    esp,0x28
  4013c4:	push   ecx
  4013c5:	push   DWORD PTR [ecx+0x154]
  4013cb:	push   DWORD PTR [ecx+0x164]
  4013d1:	push   DWORD PTR [ecx+0x1c]
  4013d4:	push   ebx
  4013d5:	call   0x401264
  4013da:	add    esp,0x10
  4013dd:	pop    ecx
  4013de:	push   ecx
  4013df:	push   0x0
  4013e1:	push   0x403078
  4013e6:	pop    eax
  4013e7:	notrack call DWORD PTR [eax]
  4013ea:	pop    ecx
  4013eb:	push   ecx
  4013ec:	lea    edi,[ecx]
  4013ee:	push   edi
  4013ef:	push   0x403040
  4013f4:	pop    eax
  4013f5:	notrack call DWORD PTR [eax]
  4013f8:	test   eax,eax
  4013fa:	jne    0x4013ec
  4013fc:	pop    ecx
  4013fd:	sub    esp,0xffffffd8
  401400:	mov    ebp,DWORD PTR [esp]
  401403:	add    esp,0x4
  401406:	ret    
	...
  40140f:	add    BYTE PTR [ebx-0x1374aa01],cl
  401415:	sub    esp,0x4c
  401418:	push   ecx
  401419:	push   0x0
  40141b:	push   0x403084
  401420:	pop    eax
  401421:	notrack call DWORD PTR [eax]
  401424:	pop    ecx
  401425:	push   ecx
  401426:	push   edx
  401427:	push   DWORD PTR [ecx+0x1d4]
  40142d:	push   ebx
  40142e:	push   eax
  40142f:	call   0x4018c4
  401434:	add    esp,0x10
  401437:	pop    ecx
  401438:	push   ecx
  401439:	push   0x0
  40143b:	push   0x403014
  401440:	pop    eax
  401441:	notrack call DWORD PTR [eax]
  401444:	pop    ecx
  401445:	sub    esp,0xffffffb4
  401448:	mov    ebp,DWORD PTR [esp]
  40144b:	add    esp,0x4
  40144e:	ret    
  40144f:	add    BYTE PTR [ebx-0x1374aa01],cl
  401455:	sub    esp,0x34
  401458:	push   ecx
  401459:	mov    eax,0x0
  40145e:	push   eax
  40145f:	push   0x403004
  401464:	pop    eax
  401465:	notrack call DWORD PTR [eax]
  401468:	pop    ecx
  401469:	push   ecx
  40146a:	push   edi
  40146b:	push   ebx
  40146c:	push   ebx
  40146d:	push   DWORD PTR [ecx+0x228]
  401473:	call   0x401870
  401478:	add    esp,0x10
  40147b:	pop    ecx
  40147c:	push   ecx
  40147d:	lea    ebx,[ecx]
  40147f:	push   ebx
  401480:	push   0x403040
  401485:	pop    eax
  401486:	notrack call DWORD PTR [eax]
  401489:	test   eax,eax
  40148b:	jne    0x40147d
  40148d:	pop    ecx
  40148e:	sub    esp,0xffffffcc
  401491:	mov    ebp,DWORD PTR [esp]
  401494:	add    esp,0x4
  401497:	ret    
	...
  4014a0:	mov    edi,edi
  4014a2:	push   ebp
  4014a3:	mov    ebp,esp
  4014a5:	sub    esp,0x24
  4014a8:	push   ecx
  4014a9:	push   0x0
  4014ab:	push   0x40304c
  4014b0:	pop    eax
  4014b1:	notrack call DWORD PTR [eax]
  4014b4:	pop    ecx
  4014b5:	push   ecx
  4014b6:	push   edi
  4014b7:	push   DWORD PTR [ecx+0x14]
  4014ba:	push   eax
  4014bb:	push   DWORD PTR [ecx+0x16c]
  4014c1:	call   0x401450
  4014c6:	add    esp,0x10
  4014c9:	pop    ecx
  4014ca:	push   ecx
  4014cb:	lea    ecx,[ecx]
  4014cd:	push   ecx
  4014ce:	push   0x403040
  4014d3:	pop    eax
  4014d4:	notrack call DWORD PTR [eax]
  4014d7:	test   eax,eax
  4014d9:	jne    0x4014cb
  4014db:	pop    ecx
  4014dc:	sub    esp,0xffffffdc
  4014df:	mov    ebp,DWORD PTR [esp]
  4014e2:	add    esp,0x4
  4014e5:	ret    
  4014e6:	add    BYTE PTR [eax],al
  4014e8:	add    BYTE PTR [eax],al
  4014ea:	add    BYTE PTR [eax],al
  4014ec:	mov    edi,edi
  4014ee:	push   ebp
  4014ef:	mov    ebp,esp
  4014f1:	sub    esp,0x44
  4014f4:	push   ecx
  4014f5:	push   edx
  4014f6:	push   DWORD PTR [ecx+0xe4]
  4014fc:	push   eax
  4014fd:	call   0x40137c
  401502:	add    esp,0xc
  401505:	pop    ecx
  401506:	push   ecx
  401507:	mov    esi,0x0
  40150c:	push   esi
  40150d:	push   0x403008
  401512:	pop    eax
  401513:	notrack call DWORD PTR [eax]
  401516:	pop    ecx
  401517:	push   ecx
  401518:	mov    esi,0x0
  40151d:	push   esi
  40151e:	push   0x403000
  401523:	pop    eax
  401524:	notrack call DWORD PTR [eax]
  401527:	pop    ecx
  401528:	sub    esp,0xffffffbc
  40152b:	mov    ebp,DWORD PTR [esp]
  40152e:	add    esp,0x4
  401531:	ret    
  401532:	add    BYTE PTR [eax],al
  401534:	mov    edi,edi
  401536:	push   ebp
  401537:	mov    ebp,esp
  401539:	sub    esp,0x3c
  40153c:	push   ecx
  40153d:	push   DWORD PTR [ecx+0x300]
  401543:	push   ebx
  401544:	push   esi
  401545:	call   0x401e54
  40154a:	add    esp,0xc
  40154d:	pop    ecx
  40154e:	push   ecx
  40154f:	mov    ecx,0x0
  401554:	push   ecx
  401555:	push   0x403084
  40155a:	pop    eax
  40155b:	notrack call DWORD PTR [eax]
  40155e:	pop    ecx
  40155f:	push   ecx
  401560:	lea    ebx,[ecx]
  401562:	push   ebx
  401563:	push   0x403040
  401568:	pop    eax
  401569:	notrack call DWORD PTR [eax]
  40156c:	test   eax,eax
  40156e:	jne    0x401560
  401570:	pop    ecx
  401571:	sub    esp,0xffffffc4
  401574:	mov    ebp,DWORD PTR [esp]
  401577:	add    esp,0x4
  40157a:	ret    
  40157b:	add    BYTE PTR [ebx-0x1374aa01],cl
  401581:	sub    esp,0x48
  401584:	push   ecx
  401585:	push   0x0
  401587:	push   0x403008
  40158c:	pop    eax
  40158d:	notrack call DWORD PTR [eax]
  401590:	pop    ecx
  401591:	push   ecx
  401592:	push   esi
  401593:	push   DWORD PTR [ecx+0x1c4]
  401599:	call   0x401998
  40159e:	add    esp,0x8
  4015a1:	pop    ecx
  4015a2:	push   ecx
  4015a3:	push   0x0
  4015a5:	push   0x403034
  4015aa:	pop    eax
  4015ab:	notrack call DWORD PTR [eax]
  4015ae:	pop    ecx
  4015af:	sub    esp,0xffffffb8
  4015b2:	mov    ebp,DWORD PTR [esp]
  4015b5:	add    esp,0x4
  4015b8:	ret    
  4015b9:	add    BYTE PTR [eax],al
  4015bb:	add    BYTE PTR [ebx-0x1374aa01],cl
  4015c1:	sub    esp,0x50
  4015c4:	push   ecx
  4015c5:	push   DWORD PTR [ecx+0x104]
  4015cb:	push   DWORD PTR [ecx+0x378]
  4015d1:	push   DWORD PTR [ecx+0x378]
  4015d7:	call   0x401784
  4015dc:	add    esp,0xc
  4015df:	pop    ecx
  4015e0:	push   ecx
  4015e1:	mov    eax,0x0
  4015e6:	push   eax
  4015e7:	push   0x403010
  4015ec:	pop    eax
  4015ed:	notrack call DWORD PTR [eax]
  4015f0:	pop    ecx
  4015f1:	push   ecx
  4015f2:	mov    edx,0x0
  4015f7:	push   edx
  4015f8:	push   0x40302c
  4015fd:	pop    eax
  4015fe:	notrack call DWORD PTR [eax]
  401601:	pop    ecx
  401602:	sub    esp,0xffffffb0
  401605:	mov    ebp,DWORD PTR [esp]
  401608:	add    esp,0x4
  40160b:	ret    
  40160c:	push   0x46d000
  401611:	mov    eax,0x403094
  401616:	and    WORD PTR [eax],0x0
  40161a:	push   DWORD PTR [eax]
  40161c:	pop    eax
  40161d:	mov    ecx,eax
  40161f:	stc    
  401620:	adc    al,0x3b
  401622:	add    ecx,DWORD PTR [eax]
  401624:	mov    eax,DWORD PTR [ecx+0x1c]
  401627:	ror    eax,0xc
  40162a:	sub    al,0x0
  40162c:	sub    al,0x50
  40162e:	pop    ecx
  40162f:	jb     0x40163a
  401631:	nop
  401632:	nop
  401633:	nop
  401634:	nop
  401635:	jmp    0x40104c
  40163a:	int    0x3
  40163c:	add    BYTE PTR [eax],al
  40163e:	sub    DWORD PTR [ebx+0x0],esp
  401641:	add    BYTE PTR [eax],al
  401643:	add    BYTE PTR [eax],al
  401645:	add    BYTE PTR [eax],al
  401647:	add    BYTE PTR [ebx-0x1374aa01],cl
  40164d:	sub    esp,0x60
  401650:	push   ecx
  401651:	push   0x0
  401653:	push   0x403078
  401658:	pop    eax
  401659:	notrack call DWORD PTR [eax]
  40165c:	pop    ecx
  40165d:	push   ecx
  40165e:	push   DWORD PTR [ecx+0x188]
  401664:	push   ebx
  401665:	push   ebx
  401666:	call   0x401a94
  40166b:	add    esp,0xc
  40166e:	pop    ecx
  40166f:	push   ecx
  401670:	lea    edx,[ecx]
  401672:	push   edx
  401673:	push   0x403040
  401678:	pop    eax
  401679:	notrack call DWORD PTR [eax]
  40167c:	test   eax,eax
  40167e:	jne    0x401670
  401680:	pop    ecx
  401681:	sub    esp,0xffffffa0
  401684:	mov    ebp,DWORD PTR [esp]
  401687:	add    esp,0x4
  40168a:	ret    
	...
  4016a3:	add    BYTE PTR [ebx-0x1374aa01],cl
  4016a9:	sub    esp,0x34
  4016ac:	push   ecx
  4016ad:	push   0x0
  4016af:	push   0x40304c
  4016b4:	pop    eax
  4016b5:	notrack call DWORD PTR [eax]
  4016b8:	pop    ecx
  4016b9:	push   ecx
  4016ba:	push   esi
  4016bb:	push   DWORD PTR [ecx+0x1a0]
  4016c1:	call   0x401950
  4016c6:	add    esp,0x8
  4016c9:	pop    ecx
  4016ca:	push   ecx
  4016cb:	mov    ecx,0x0
  4016d0:	push   ecx
  4016d1:	push   0x403070
  4016d6:	pop    eax
  4016d7:	notrack call DWORD PTR [eax]
  4016da:	pop    ecx
  4016db:	sub    esp,0xffffffcc
  4016de:	mov    ebp,DWORD PTR [esp]
  4016e1:	add    esp,0x4
  4016e4:	ret    
  4016e5:	add    BYTE PTR [eax],al
  4016e7:	add    BYTE PTR [ebx-0x1374aa01],cl
  4016ed:	sub    esp,0x34
  4016f0:	push   ecx
  4016f1:	push   ebx
  4016f2:	push   DWORD PTR [ecx+0x258]
  4016f8:	push   ebx
  4016f9:	push   DWORD PTR [ecx+0x118]
  4016ff:	call   0x401c98
  401704:	add    esp,0x10
  401707:	pop    ecx
  401708:	push   ecx
  401709:	mov    ecx,0x0
  40170e:	push   ecx
  40170f:	push   0x40302c
  401714:	pop    eax
  401715:	notrack call DWORD PTR [eax]
  401718:	pop    ecx
  401719:	push   ecx
  40171a:	lea    ebx,[ecx]
  40171c:	push   ebx
  40171d:	push   0x403040
  401722:	pop    eax
  401723:	notrack call DWORD PTR [eax]
  401726:	test   eax,eax
  401728:	jne    0x40171a
  40172a:	pop    ecx
  40172b:	sub    esp,0xffffffcc
  40172e:	mov    ebp,DWORD PTR [esp]
  401731:	add    esp,0x4
  401734:	ret    
  401735:	add    BYTE PTR [eax],al
  401737:	add    BYTE PTR [ebx-0x1374aa01],cl
  40173d:	sub    esp,0x30
  401740:	push   ecx
  401741:	push   0x403044
  401746:	pop    eax
  401747:	notrack call DWORD PTR [eax]
  40174a:	pop    ecx
  40174b:	push   ecx
  40174c:	push   DWORD PTR [ecx+0xdc]
  401752:	push   DWORD PTR [ecx+0x2b8]
  401758:	push   DWORD PTR [ecx+0x27c]
  40175e:	push   esi
  40175f:	call   0x401a20
  401764:	add    esp,0x10
  401767:	pop    ecx
  401768:	push   ecx
  401769:	mov    esi,0x0
  40176e:	push   esi
  40176f:	push   0x403070
  401774:	pop    eax
  401775:	notrack call DWORD PTR [eax]
  401778:	pop    ecx
  401779:	sub    esp,0xffffffd0
  40177c:	mov    ebp,DWORD PTR [esp]
  40177f:	add    esp,0x4
  401782:	ret    
  401783:	add    BYTE PTR [ebx-0x1374aa01],cl
  401789:	sub    esp,0x30
  40178c:	push   ecx
  40178d:	push   edi
  40178e:	push   DWORD PTR [ecx+0x3bc]
  401794:	push   eax
  401795:	call   0x401db4
  40179a:	add    esp,0xc
  40179d:	pop    ecx
  40179e:	push   ecx
  40179f:	push   0x0
  4017a1:	push   0x40302c
  4017a6:	pop    eax
  4017a7:	notrack call DWORD PTR [eax]
  4017aa:	pop    ecx
  4017ab:	push   ecx
  4017ac:	mov    edx,0x0
  4017b1:	push   edx
  4017b2:	push   0x403010
  4017b7:	pop    eax
  4017b8:	notrack call DWORD PTR [eax]
  4017bb:	pop    ecx
  4017bc:	sub    esp,0xffffffd0
  4017bf:	mov    ebp,DWORD PTR [esp]
  4017c2:	add    esp,0x4
  4017c5:	ret    
  4017c6:	add    BYTE PTR [eax],al
  4017c8:	mov    edi,edi
  4017ca:	push   ebp
  4017cb:	mov    ebp,esp
  4017cd:	sub    esp,0x2c
  4017d0:	push   ecx
  4017d1:	mov    edi,0x0
  4017d6:	push   edi
  4017d7:	push   0x403004
  4017dc:	pop    eax
  4017dd:	notrack call DWORD PTR [eax]
  4017e0:	pop    ecx
  4017e1:	push   ecx
  4017e2:	push   DWORD PTR [ecx+0x324]
  4017e8:	push   DWORD PTR [ecx+0x1c0]
  4017ee:	push   edi
  4017ef:	push   ebx
  4017f0:	call   0x4019d4
  4017f5:	add    esp,0x10
  4017f8:	pop    ecx
  4017f9:	push   ecx
  4017fa:	mov    ebx,0x0
  4017ff:	push   ebx
  401800:	push   0x403028
  401805:	pop    eax
  401806:	notrack call DWORD PTR [eax]
  401809:	pop    ecx
  40180a:	sub    esp,0xffffffd4
  40180d:	mov    ebp,DWORD PTR [esp]
  401810:	add    esp,0x4
  401813:	ret    
	...
  401820:	mov    edi,edi
  401822:	push   ebp
  401823:	mov    ebp,esp
  401825:	sub    esp,0x34
  401828:	push   ecx
  401829:	push   0x0
  40182b:	push   0x403078
  401830:	pop    eax
  401831:	notrack call DWORD PTR [eax]
  401834:	pop    ecx
  401835:	push   ecx
  401836:	push   DWORD PTR [ecx]
  401838:	push   DWORD PTR [ecx+0x1a8]
  40183e:	push   DWORD PTR [ecx+0x21c]
  401844:	call   0x401ad8
  401849:	add    esp,0xc
  40184c:	pop    ecx
  40184d:	push   ecx
  40184e:	push   0x0
  401850:	push   0x403070
  401855:	pop    eax
  401856:	notrack call DWORD PTR [eax]
  401859:	pop    ecx
  40185a:	sub    esp,0xffffffcc
  40185d:	mov    ebp,DWORD PTR [esp]
  401860:	add    esp,0x4
  401863:	ret    
	...
  401870:	mov    edi,edi
  401872:	push   ebp
  401873:	mov    ebp,esp
  401875:	sub    esp,0x5c
  401878:	push   ecx
  401879:	mov    ecx,0x0
  40187e:	push   ecx
  40187f:	push   0x403078
  401884:	pop    eax
  401885:	notrack call DWORD PTR [eax]
  401888:	pop    ecx
  401889:	push   ecx
  40188a:	push   DWORD PTR [ecx+0x308]
  401890:	push   DWORD PTR [ecx+0x170]
  401896:	push   DWORD PTR [ecx+0x150]
  40189c:	push   DWORD PTR [ecx+0xa0]
  4018a2:	call   0x401c0c
  4018a7:	add    esp,0x10
  4018aa:	pop    ecx
  4018ab:	push   ecx
  4018ac:	push   0x0
  4018ae:	push   0x403070
  4018b3:	pop    eax
  4018b4:	notrack call DWORD PTR [eax]
  4018b7:	pop    ecx
  4018b8:	sub    esp,0xffffffa4
  4018bb:	mov    ebp,DWORD PTR [esp]
  4018be:	add    esp,0x4
  4018c1:	ret    
  4018c2:	add    BYTE PTR [eax],al
  4018c4:	mov    edi,edi
  4018c6:	push   ebp
  4018c7:	mov    ebp,esp
  4018c9:	sub    esp,0x60
  4018cc:	push   ecx
  4018cd:	mov    ebx,0x0
  4018d2:	push   ebx
  4018d3:	push   0x403014
  4018d8:	pop    eax
  4018d9:	notrack call DWORD PTR [eax]
  4018dc:	pop    ecx
  4018dd:	push   ecx
  4018de:	push   DWORD PTR [ecx+0x39c]
  4018e4:	push   DWORD PTR [ecx+0x3bc]
  4018ea:	push   ebx
  4018eb:	call   0x4017c8
  4018f0:	add    esp,0xc
  4018f3:	pop    ecx
  4018f4:	push   ecx
  4018f5:	mov    eax,0x0
  4018fa:	push   eax
  4018fb:	push   0x40302c
  401900:	pop    eax
  401901:	notrack call DWORD PTR [eax]
  401904:	pop    ecx
  401905:	sub    esp,0xffffffa0
  401908:	mov    ebp,DWORD PTR [esp]
  40190b:	add    esp,0x4
  40190e:	ret    
  40190f:	add    BYTE PTR [ebx-0x1374aa01],cl
  401915:	sub    esp,0x28
  401918:	push   ecx
  401919:	push   0x0
  40191b:	push   0x40304c
  401920:	pop    eax
  401921:	notrack call DWORD PTR [eax]
  401924:	pop    ecx
  401925:	push   ecx
  401926:	push   DWORD PTR [ecx+0x2c4]
  40192c:	push   ebx
  40192d:	call   0x401e00
  401932:	add    esp,0x8
  401935:	pop    ecx
  401936:	push   ecx
  401937:	push   0x0
  401939:	push   0x40302c
  40193e:	pop    eax
  40193f:	notrack call DWORD PTR [eax]
  401942:	pop    ecx
  401943:	sub    esp,0xffffffd8
  401946:	mov    ebp,DWORD PTR [esp]
  401949:	add    esp,0x4
  40194c:	ret    
  40194d:	add    BYTE PTR [eax],al
  40194f:	add    BYTE PTR [ebx-0x1374aa01],cl
  401955:	sub    esp,0x58
  401958:	push   ecx
  401959:	push   0x0
  40195b:	push   0x403010
  401960:	pop    eax
  401961:	notrack call DWORD PTR [eax]
  401964:	pop    ecx
  401965:	push   ecx
  401966:	push   DWORD PTR [ecx+0x240]
  40196c:	push   edx
  40196d:	push   esi
  40196e:	push   DWORD PTR [ecx+0x54]
  401971:	call   0x401534
  401976:	add    esp,0x10
  401979:	pop    ecx
  40197a:	push   ecx
  40197b:	push   0x0
  40197d:	push   0x403010
  401982:	pop    eax
  401983:	notrack call DWORD PTR [eax]
  401986:	pop    ecx
  401987:	sub    esp,0xffffffa8
  40198a:	mov    ebp,DWORD PTR [esp]
  40198d:	add    esp,0x4
  401990:	ret    
  401991:	add    BYTE PTR [eax],al
  401993:	add    BYTE PTR [eax],al
  401995:	add    BYTE PTR [eax],al
  401997:	add    BYTE PTR [ebx-0x1374aa01],cl
  40199d:	sub    esp,0x24
  4019a0:	push   ecx
  4019a1:	push   edx
  4019a2:	push   ebx
  4019a3:	call   0x401d70
  4019a8:	add    esp,0x8
  4019ab:	pop    ecx
  4019ac:	push   ecx
  4019ad:	mov    ecx,0x0
  4019b2:	push   ecx
  4019b3:	push   0x403010
  4019b8:	pop    eax
  4019b9:	notrack call DWORD PTR [eax]
  4019bc:	pop    ecx
  4019bd:	push   ecx
  4019be:	push   0x0
  4019c0:	push   0x403008
  4019c5:	pop    eax
  4019c6:	notrack call DWORD PTR [eax]
  4019c9:	pop    ecx
  4019ca:	sub    esp,0xffffffdc
  4019cd:	mov    ebp,DWORD PTR [esp]
  4019d0:	add    esp,0x4
  4019d3:	ret    
  4019d4:	mov    edi,edi
  4019d6:	push   ebp
  4019d7:	mov    ebp,esp
  4019d9:	sub    esp,0x30
  4019dc:	push   ecx
  4019dd:	mov    edx,0x0
  4019e2:	push   edx
  4019e3:	push   0x403028
  4019e8:	pop    eax
  4019e9:	notrack call DWORD PTR [eax]
  4019ec:	pop    ecx
  4019ed:	push   ecx
  4019ee:	push   esi
  4019ef:	push   edx
  4019f0:	push   edx
  4019f1:	push   edi
  4019f2:	call   0x40118c
  4019f7:	add    esp,0x10
  4019fa:	pop    ecx
  4019fb:	push   ecx
  4019fc:	mov    eax,0x0
  401a01:	push   eax
  401a02:	push   0x403014
  401a07:	pop    eax
  401a08:	notrack call DWORD PTR [eax]
  401a0b:	pop    ecx
  401a0c:	sub    esp,0xffffffd0
  401a0f:	mov    ebp,DWORD PTR [esp]
  401a12:	add    esp,0x4
  401a15:	ret    
	...
  401a1e:	add    BYTE PTR [eax],al
  401a20:	mov    edi,edi
  401a22:	push   ebp
  401a23:	mov    ebp,esp
  401a25:	sub    esp,0x40
  401a28:	push   ecx
  401a29:	push   0x0
  401a2b:	push   0x403014
  401a30:	pop    eax
  401a31:	notrack call DWORD PTR [eax]
  401a34:	pop    ecx
  401a35:	push   ecx
  401a36:	push   ebx
  401a37:	push   esi
  401a38:	call   0x4013bc
  401a3d:	add    esp,0x8
  401a40:	pop    ecx
  401a41:	push   ecx
  401a42:	mov    edi,0x0
  401a47:	push   edi
  401a48:	push   0x40304c
  401a4d:	pop    eax
  401a4e:	notrack call DWORD PTR [eax]
  401a51:	pop    ecx
  401a52:	sub    esp,0xffffffc0
  401a55:	mov    ebp,DWORD PTR [esp]
  401a58:	add    esp,0x4
  401a5b:	ret    
  401a5c:	mov    edi,edi
  401a5e:	push   ebp
  401a5f:	mov    ebp,esp
  401a61:	sub    esp,0x40
  401a64:	push   ecx
  401a65:	push   0x40301c
  401a6a:	pop    eax
  401a6b:	notrack call DWORD PTR [eax]
  401a6e:	pop    ecx
  401a6f:	push   ecx
  401a70:	push   eax
  401a71:	push   ebx
  401a72:	push   esi
  401a73:	call   0x4014ec
  401a78:	add    esp,0xc
  401a7b:	pop    ecx
  401a7c:	push   ecx
  401a7d:	push   0x0
  401a7f:	push   0x403000
  401a84:	pop    eax
  401a85:	notrack call DWORD PTR [eax]
  401a88:	pop    ecx
  401a89:	sub    esp,0xffffffc0
  401a8c:	mov    ebp,DWORD PTR [esp]
  401a8f:	add    esp,0x4
  401a92:	ret    
  401a93:	add    BYTE PTR [ebx-0x1374aa01],cl
  401a99:	sub    esp,0x60
  401a9c:	push   ecx
  401a9d:	push   edi
  401a9e:	push   DWORD PTR [ecx+0x368]
  401aa4:	push   edx
  401aa5:	call   0x4016a4
  401aaa:	add    esp,0xc
  401aad:	pop    ecx
  401aae:	push   ecx
  401aaf:	push   0x0
  401ab1:	push   0x403010
  401ab6:	pop    eax
  401ab7:	notrack call DWORD PTR [eax]
  401aba:	pop    ecx
  401abb:	push   ecx
  401abc:	push   0x0
  401abe:	push   0x403008
  401ac3:	pop    eax
  401ac4:	notrack call DWORD PTR [eax]
  401ac7:	pop    ecx
  401ac8:	sub    esp,0xffffffa0
  401acb:	mov    ebp,DWORD PTR [esp]
  401ace:	add    esp,0x4
  401ad1:	ret    
  401ad2:	add    BYTE PTR [eax],al
  401ad4:	add    BYTE PTR [eax],al
  401ad6:	add    BYTE PTR [eax],al
  401ad8:	mov    edi,edi
  401ada:	push   ebp
  401adb:	mov    ebp,esp
  401add:	sub    esp,0x34
  401ae0:	push   ecx
  401ae1:	push   edi
  401ae2:	push   DWORD PTR [ecx+0x36c]
  401ae8:	push   DWORD PTR [ecx+0x3c0]
  401aee:	call   0x401910
  401af3:	add    esp,0xc
  401af6:	pop    ecx
  401af7:	push   ecx
  401af8:	mov    ebx,0x0
  401afd:	push   ebx
  401afe:	push   0x40302c
  401b03:	pop    eax
  401b04:	notrack call DWORD PTR [eax]
  401b07:	pop    ecx
  401b08:	push   ecx
  401b09:	push   0x0
  401b0b:	push   0x403034
  401b10:	pop    eax
  401b11:	notrack call DWORD PTR [eax]
  401b14:	pop    ecx
  401b15:	sub    esp,0xffffffcc
  401b18:	mov    ebp,DWORD PTR [esp]
  401b1b:	add    esp,0x4
  401b1e:	ret    
	...
  401b27:	add    BYTE PTR [ebx-0x1374aa01],cl
  401b2d:	sub    esp,0x3c
  401b30:	push   ecx
  401b31:	push   DWORD PTR [ecx+0x164]
  401b37:	push   DWORD PTR [ecx+0x1b4]
  401b3d:	push   DWORD PTR [ecx+0x384]
  401b43:	push   DWORD PTR [ecx+0x78]
  401b46:	call   0x401820
  401b4b:	add    esp,0x10
  401b4e:	pop    ecx
  401b4f:	push   ecx
  401b50:	mov    ecx,0x0
  401b55:	push   ecx
  401b56:	push   0x403008
  401b5b:	pop    eax
  401b5c:	notrack call DWORD PTR [eax]
  401b5f:	pop    ecx
  401b60:	push   ecx
  401b61:	push   0x403044
  401b66:	pop    eax
  401b67:	notrack call DWORD PTR [eax]
  401b6a:	pop    ecx
  401b6b:	sub    esp,0xffffffc4
  401b6e:	mov    ebp,DWORD PTR [esp]
  401b71:	add    esp,0x4
  401b74:	ret    
  401b75:	add    BYTE PTR [eax],al
  401b77:	add    BYTE PTR [eax],al
  401b79:	add    BYTE PTR [eax],al
  401b7b:	add    BYTE PTR [ebx-0x1374aa01],cl
  401b81:	sub    esp,0x54
  401b84:	push   ecx
  401b85:	mov    ebx,0x0
  401b8a:	push   ebx
  401b8b:	push   0x403014
  401b90:	pop    eax
  401b91:	notrack call DWORD PTR [eax]
  401b94:	pop    ecx
  401b95:	push   ecx
  401b96:	push   DWORD PTR [ecx+0x3ec]
  401b9c:	push   ebx
  401b9d:	push   DWORD PTR [ecx+0x2f4]
  401ba3:	call   0x401648
  401ba8:	add    esp,0xc
  401bab:	pop    ecx
  401bac:	push   ecx
  401bad:	push   0x0
  401baf:	push   0x403070
  401bb4:	pop    eax
  401bb5:	notrack call DWORD PTR [eax]
  401bb8:	pop    ecx
  401bb9:	sub    esp,0xffffffac
  401bbc:	mov    ebp,DWORD PTR [esp]
  401bbf:	add    esp,0x4
  401bc2:	ret    
  401bc3:	add    BYTE PTR [ebx-0x1374aa01],cl
  401bc9:	sub    esp,0x20
  401bcc:	push   ecx
  401bcd:	push   ebx
  401bce:	push   DWORD PTR [ecx+0x34]
  401bd1:	push   ebx
  401bd2:	call   0x401c54
  401bd7:	add    esp,0xc
  401bda:	pop    ecx
  401bdb:	push   ecx
  401bdc:	lea    ebx,[ecx]
  401bde:	push   ebx
  401bdf:	push   0x403040
  401be4:	pop    eax
  401be5:	notrack call DWORD PTR [eax]
  401be8:	test   eax,eax
  401bea:	jne    0x401bdc
  401bec:	pop    ecx
  401bed:	push   ecx
  401bee:	lea    edx,[ecx]
  401bf0:	push   edx
  401bf1:	push   0x403040
  401bf6:	pop    eax
  401bf7:	notrack call DWORD PTR [eax]
  401bfa:	test   eax,eax
  401bfc:	jne    0x401bee
  401bfe:	pop    ecx
  401bff:	sub    esp,0xffffffe0
  401c02:	mov    ebp,DWORD PTR [esp]
  401c05:	add    esp,0x4
  401c08:	ret    
  401c09:	add    BYTE PTR [eax],al
  401c0b:	add    BYTE PTR [ebx-0x1374aa01],cl
  401c11:	sub    esp,0x40
  401c14:	push   ecx
  401c15:	push   ebx
  401c16:	push   edi
  401c17:	push   edi
  401c18:	push   edx
  401c19:	call   0x401108
  401c1e:	add    esp,0x10
  401c21:	pop    ecx
  401c22:	push   ecx
  401c23:	mov    eax,0x0
  401c28:	push   eax
  401c29:	push   0x403084
  401c2e:	pop    eax
  401c2f:	notrack call DWORD PTR [eax]
  401c32:	pop    ecx
  401c33:	push   ecx
  401c34:	mov    eax,0x0
  401c39:	push   eax
  401c3a:	push   0x403014
  401c3f:	pop    eax
  401c40:	notrack call DWORD PTR [eax]
  401c43:	pop    ecx
  401c44:	sub    esp,0xffffffc0
  401c47:	mov    ebp,DWORD PTR [esp]
  401c4a:	add    esp,0x4
  401c4d:	ret    
  401c4e:	add    BYTE PTR [eax],al
  401c50:	add    BYTE PTR [eax],al
  401c52:	add    BYTE PTR [eax],al
  401c54:	mov    edi,edi
  401c56:	push   ebp
  401c57:	mov    ebp,esp
  401c59:	sub    esp,0x5c
  401c5c:	push   ecx
  401c5d:	push   0x0
  401c5f:	push   0x403084
  401c64:	pop    eax
  401c65:	notrack call DWORD PTR [eax]
  401c68:	pop    ecx
  401c69:	push   ecx
  401c6a:	push   ebx
  401c6b:	push   eax
  401c6c:	push   DWORD PTR [ecx+0x2fc]
  401c72:	push   eax
  401c73:	call   0x401b7c
  401c78:	add    esp,0x10
  401c7b:	pop    ecx
  401c7c:	push   ecx
  401c7d:	mov    edx,0x0
  401c82:	push   edx
  401c83:	push   0x403010
  401c88:	pop    eax
  401c89:	notrack call DWORD PTR [eax]
  401c8c:	pop    ecx
  401c8d:	sub    esp,0xffffffa4
  401c90:	mov    ebp,DWORD PTR [esp]
  401c93:	add    esp,0x4
  401c96:	ret    
  401c97:	add    BYTE PTR [ebx-0x1374aa01],cl
  401c9d:	sub    esp,0x34
  401ca0:	push   ecx
  401ca1:	push   eax
  401ca2:	push   esi
  401ca3:	push   DWORD PTR [ecx+0x11c]
  401ca9:	call   0x401b28
  401cae:	add    esp,0xc
  401cb1:	pop    ecx
  401cb2:	push   ecx
  401cb3:	mov    edi,0x0
  401cb8:	push   edi
  401cb9:	push   0x403034
  401cbe:	pop    eax
  401cbf:	notrack call DWORD PTR [eax]
  401cc2:	pop    ecx
  401cc3:	push   ecx
  401cc4:	mov    edx,0x0
  401cc9:	push   edx
  401cca:	push   0x40302c
  401ccf:	pop    eax
  401cd0:	notrack call DWORD PTR [eax]
  401cd3:	pop    ecx
  401cd4:	sub    esp,0xffffffcc
  401cd7:	mov    ebp,DWORD PTR [esp]
  401cda:	add    esp,0x4
  401cdd:	ret    
  401cde:	add    BYTE PTR [eax],al
  401ce0:	add    BYTE PTR [eax],al
  401ce2:	add    BYTE PTR [eax],al
  401ce4:	mov    edi,edi
  401ce6:	push   ebp
  401ce7:	mov    ebp,esp
  401ce9:	sub    esp,0x24
  401cec:	push   ecx
  401ced:	mov    ecx,0x0
  401cf2:	push   ecx
  401cf3:	push   0x403084
  401cf8:	pop    eax
  401cf9:	notrack call DWORD PTR [eax]
  401cfc:	pop    ecx
  401cfd:	push   ecx
  401cfe:	push   esi
  401cff:	push   DWORD PTR [ecx+0x8c]
  401d05:	push   edx
  401d06:	push   DWORD PTR [ecx+0x258]
  401d0c:	call   0x40157c
  401d11:	add    esp,0x10
  401d14:	pop    ecx
  401d15:	push   ecx
  401d16:	mov    ecx,0x0
  401d1b:	push   ecx
  401d1c:	push   0x403008
  401d21:	pop    eax
  401d22:	notrack call DWORD PTR [eax]
  401d25:	pop    ecx
  401d26:	sub    esp,0xffffffdc
  401d29:	mov    ebp,DWORD PTR [esp]
  401d2c:	add    esp,0x4
  401d2f:	ret    
  401d30:	add    BYTE PTR [eax],al
  401d32:	add    BYTE PTR [eax],al
  401d34:	mov    edi,edi
  401d36:	push   ebp
  401d37:	mov    ebp,esp
  401d39:	sub    esp,0x34
  401d3c:	push   ecx
  401d3d:	push   DWORD PTR [ecx+0x1b8]
  401d43:	push   eax
  401d44:	call   0x4014a0
  401d49:	add    esp,0x8
  401d4c:	pop    ecx
  401d4d:	push   ecx
  401d4e:	push   0x0
  401d50:	push   0x403010
  401d55:	pop    eax
  401d56:	notrack call DWORD PTR [eax]
  401d59:	pop    ecx
  401d5a:	push   ecx
  401d5b:	push   0x403044
  401d60:	pop    eax
  401d61:	notrack call DWORD PTR [eax]
  401d64:	pop    ecx
  401d65:	sub    esp,0xffffffcc
  401d68:	mov    ebp,DWORD PTR [esp]
  401d6b:	add    esp,0x4
  401d6e:	ret    
  401d6f:	add    BYTE PTR [ebx-0x1374aa01],cl
  401d75:	sub    esp,0x44
  401d78:	push   ecx
  401d79:	push   0x40301c
  401d7e:	pop    eax
  401d7f:	notrack call DWORD PTR [eax]
  401d82:	pop    ecx
  401d83:	push   ecx
  401d84:	push   edx
  401d85:	push   ebx
  401d86:	call   0x401150
  401d8b:	add    esp,0x8
  401d8e:	pop    ecx
  401d8f:	push   ecx
  401d90:	lea    eax,[ecx]
  401d92:	push   eax
  401d93:	push   0x403040
  401d98:	pop    eax
  401d99:	notrack call DWORD PTR [eax]
  401d9c:	test   eax,eax
  401d9e:	jne    0x401d90
  401da0:	pop    ecx
  401da1:	sub    esp,0xffffffbc
  401da4:	mov    ebp,DWORD PTR [esp]
  401da7:	add    esp,0x4
  401daa:	ret    
	...
  401db3:	add    BYTE PTR [ebx-0x1374aa01],cl
  401db9:	sub    esp,0x58
  401dbc:	push   ecx
  401dbd:	push   edi
  401dbe:	push   esi
  401dbf:	push   DWORD PTR [ecx+0x3c]
  401dc2:	push   DWORD PTR [ecx+0x1dc]
  401dc8:	call   0x401bc4
  401dcd:	add    esp,0x10
  401dd0:	pop    ecx
  401dd1:	push   ecx
  401dd2:	push   0x40301c
  401dd7:	pop    eax
  401dd8:	notrack call DWORD PTR [eax]
  401ddb:	pop    ecx
  401ddc:	push   ecx
  401ddd:	mov    edx,0x0
  401de2:	push   edx
  401de3:	push   0x40304c
  401de8:	pop    eax
  401de9:	notrack call DWORD PTR [eax]
  401dec:	pop    ecx
  401ded:	sub    esp,0xffffffa8
  401df0:	mov    ebp,DWORD PTR [esp]
  401df3:	add    esp,0x4
  401df6:	ret    
	...
  401dff:	add    BYTE PTR [ebx-0x1374aa01],cl
  401e05:	sub    esp,0x30
  401e08:	push   ecx
  401e09:	push   DWORD PTR [ecx+0x208]
  401e0f:	push   DWORD PTR [ecx+0x340]
  401e15:	push   DWORD PTR [ecx+0x19c]
  401e1b:	push   DWORD PTR [ecx+0x58]
  401e1e:	call   0x40121c
  401e23:	add    esp,0x10
  401e26:	pop    ecx
  401e27:	push   ecx
  401e28:	push   0x0
  401e2a:	push   0x403014
  401e2f:	pop    eax
  401e30:	notrack call DWORD PTR [eax]
  401e33:	pop    ecx
  401e34:	push   ecx
  401e35:	push   0x40301c
  401e3a:	pop    eax
  401e3b:	notrack call DWORD PTR [eax]
  401e3e:	pop    ecx
  401e3f:	sub    esp,0xffffffd0
  401e42:	mov    ebp,DWORD PTR [esp]
  401e45:	add    esp,0x4
  401e48:	ret    
	...
  401e51:	add    BYTE PTR [eax],al
  401e53:	add    BYTE PTR [ebx-0x1374aa01],cl
  401e59:	sub    esp,0x30
  401e5c:	push   ecx
  401e5d:	push   0x0
  401e5f:	push   0x403084
  401e64:	pop    eax
  401e65:	notrack call DWORD PTR [eax]
  401e68:	pop    ecx
  401e69:	push   ecx
  401e6a:	push   ebx
  401e6b:	push   edx
  401e6c:	push   DWORD PTR [ecx+0x104]
  401e72:	call   0x401ce4
  401e77:	add    esp,0xc
  401e7a:	pop    ecx
  401e7b:	push   ecx
  401e7c:	mov    eax,0x0
  401e81:	push   eax
  401e82:	push   0x403084
  401e87:	pop    eax
  401e88:	notrack call DWORD PTR [eax]
  401e8b:	pop    ecx
  401e8c:	sub    esp,0xffffffd0
  401e8f:	mov    ebp,DWORD PTR [esp]
  401e92:	add    esp,0x4
  401e95:	ret    
  401e96:	add    BYTE PTR [eax],al
  401e98:	add    BYTE PTR [eax],al
  401e9a:	add    BYTE PTR [eax],al
  401e9c:	jge    0x401e2a
  401e9e:	(bad)  
  401e9f:	data16 sub BYTE PTR [edx],0x4d
  401ea3:	cmc    
  401ea4:	fbld   TBYTE PTR [eax-0x2a6ffb41]
  401eaa:	jmp    0x60ba:0xbd428578
  401eb1:	sub    eax,0xf2af6d78
  401eb6:	dec    esi
  401eb7:	test   BYTE PTR [eax-0x14],ah
  401eba:	jno    0x401f07
  401ebc:	push   ebp
  401ebd:	mov    dl,0x38
  401ebf:	mov    es:0x5de0b212,al
  401ec5:	in     eax,dx
  401ec6:	push   eax
  401ec7:	and    BYTE PTR [ecx],bl
  401ec9:	ins    BYTE PTR es:[edi],dx
  401eca:	or     BYTE PTR [ebp+0x2c],ch
  401ecd:	in     eax,dx
  401ece:	and    eax,0xe0d4575c
  401ed3:	clc    
  401ed4:	push   es
  401ed5:	push   cs
  401ed6:	pop    ds
  401ed7:	mov    edi,DWORD PTR [ebp+0x428fcbe6]
  401edd:	sbb    DWORD PTR [edi],esi
  401edf:	mov    ebx,0xb6cb4bbd
  401ee4:	inc    edx
  401ee5:	and    dh,BYTE PTR [edi]
  401ee7:	scas   al,BYTE PTR es:[edi]
  401ee8:	mov    ebp,0x4284cb49
  401eed:	call   0x7bfdc829
  401ef2:	retf   
  401ef3:	ret    0xf042
  401ef6:	aaa    
  401ef7:	cmp    eax,0xc21b67bd
  401efc:	sbb    DWORD PTR [edi+edi*4],esp
  401eff:	inc    ecx
  401f00:	sub    DWORD PTR [eax],ebx
  401f02:	les    esi,FWORD PTR [esi]
  401f04:	daa    
  401f05:	call   0x8e18ecc8
  401f0a:	outs   dx,DWORD PTR ds:[esi]
  401f0b:	sbb    bl,BYTE PTR [ebx]
  401f0d:	js     0x401ea2
  401f0f:	in     eax,0x41
  401f11:	adc    esp,DWORD PTR [esp+edx*8-0x32]
  401f15:	in     al,dx
  401f16:	sahf   
  401f17:	sub    ebx,esi
  401f19:	sti    
  401f1a:	push   esi
  401f1b:	xlat   BYTE PTR ds:[ebx]
  401f1c:	and    DWORD PTR [esi*1-0x3d212591],eax
  401f23:	sti    
  401f24:	mov    BYTE PTR [ecx-0x1a1c8f7f],cl
  401f2a:	jmp    0x89bba106
  401f2f:	jl     0x401f02
  401f31:	or     esi,0xffffff8b
  401f34:	mov    bh,0x82
  401f36:	sahf   
  401f37:	je     0x401ee9
  401f39:	ret    
  401f3a:	(bad)  
  401f3b:	lock mov ah,0xa4
  401f3e:	je     0x401fb4
  401f40:	lods   al,BYTE PTR ds:[esi]
  401f41:	retf   
  401f42:	loop   0x401f22
  401f44:	push   edx
  401f45:	mov    ch,BYTE PTR [eax]
  401f47:	stos   BYTE PTR es:[edi],al
  401f48:	repz jns 0x401fa8
  401f4b:	sbb    ah,BYTE PTR ds:0xdb4de5f0
  401f51:	pop    ds
  401f52:	sbb    eax,0xeb8c8cb2
  401f57:	dec    ebp
  401f58:	jae    0x401f37
  401f5a:	pop    ss
  401f5b:	mov    cl,0xe2
  401f5d:	xor    dh,BYTE PTR [esi+0x47]
  401f60:	and    esi,DWORD PTR [ebx-0x74]
  401f63:	mov    eax,0xfd03dcdc
  401f68:	jmp    0x401f86
  401f6a:	inc    BYTE PTR [edx]
  401f6c:	into   
  401f6d:	(bad)  
  401f71:	arpl   WORD PTR [esi+eax*8+0x396b27b6],bx
  401f78:	dec    ecx
  401f79:	xor    eax,0xeeeb4df5
  401f7e:	arpl   WORD PTR [edx+0x659f160e],bx
  401f84:	fldenv [ecx]
  401f86:	push   0x9269269a
  401f8b:	rcr    cl,1
  401f8d:	add    BYTE PTR [eax+0x2e],dh
  401f90:	pushf  
  401f91:	arpl   cx,bp
  401f93:	sar    BYTE PTR [ecx-0x51835b3c],1
  401f99:	movs   DWORD PTR es:[edi],DWORD PTR ds:[esi]
  401f9a:	pop    esi
  401f9b:	xlat   BYTE PTR ds:[ebx]
  401f9c:	test   eax,0xa64cd859
  401fa1:	test   DWORD PTR [eax-0x51a1a6f6],0xa9a0fe4d
  401fab:	retf   0x88e9
  401fae:	pop    esp
  401faf:	xor    eax,0x6ec0216
  401fb4:	ja     0x401fb8
  401fb6:	sbb    al,0x5f
  401fb8:	cmp    BYTE PTR [esi],0xfc
  401fbb:	mov    al,ds:0x981c369f
  401fc0:	mov    eax,0xd2795afd
  401fc5:	pop    edx
  401fc6:	fdivr  st(0),st
  401fc8:	xor    DWORD PTR ds:0xf2ce3f26,ecx
  401fce:	(bad)  [ecx]
  401fd0:	and    BYTE PTR [eax+0x26],0x24
  401fd4:	mov    gs,WORD PTR [edx]
  401fd6:	pop    ecx
  401fd7:	dec    eax
  401fd8:	ret    0x1329
  401fdb:	mov    esp,0x99ee2994
  401fe0:	ja     0x40200c
  401fe2:	jle    0x40204c
  401fe4:	fild   QWORD PTR [eax]
  401fe6:	fisub  DWORD PTR [edx]
  401fe8:	lock bound esp,QWORD PTR [ebx]
  401feb:	shl    DWORD PTR [ebx+edi*8+0x5c5784de],1
  401ff2:	scas   eax,DWORD PTR es:[edi]
  401ff3:	dec    ecx
  401ff4:	lods   al,BYTE PTR ds:[esi]
  401ff5:	in     al,dx
  401ff6:	pop    DWORD PTR [ebx-0x33]
  401ff9:	sub    edi,esi
  401ffb:	adc    edx,DWORD PTR [ebx-0x1d]
  401ffe:	mov    ebx,0x3f1fc12d
  402003:	loop   0x401ffa
  402005:	sub    ecx,ecx
  402007:	jge    0x401f9e
  402009:	sbb    eax,0x572b074d
  40200e:	test   BYTE PTR [ebx+0x3c91b11c],0x58
  402015:	mov    DWORD PTR [ecx+0x55],ebx
  402018:	lods   al,BYTE PTR ds:[esi]
  402019:	jbe    0x401fc4
  40201b:	xor    eax,0xeea0151c
  402020:	retf   
  402021:	pusha  
  402022:	adc    DWORD PTR fs:[edx+eiz*4],esi
  402026:	adc    eax,0xfdd5cb03
  40202b:	xchg   DWORD PTR [esi+esi*1+0x19a77308],esi
  402032:	test   DWORD PTR [ecx-0x55],esp
  402035:	ss into 
  402037:	cmc    
  402038:	movs   DWORD PTR es:[edi],DWORD PTR ds:[esi]
  402039:	sbb    ebx,DWORD PTR [esi+0x633bab0e]
  40203f:	inc    edi
  402040:	popa   
  402041:	sbb    eax,0xd5f678d2
  402046:	(bad)  
  402048:	xchg   esp,eax
  402049:	cmc    
  40204a:	sbb    edi,DWORD PTR [esi-0x660c9f96]
  402050:	mul    BYTE PTR [edx]
  402052:	(bad)  
  402053:	mov    gs,ebx
  402055:	mov    ss,WORD PTR [edi*2+0x6aee7115]
  40205c:	ins    BYTE PTR es:[edi],dx
  40205d:	(bad)  
  40205e:	adc    al,0x95
  402060:	jmp    0x40203a
  402062:	out    dx,al
  402063:	stos   BYTE PTR es:[edi],al
  402064:	adc    al,0x27
  402066:	adc    ecx,ebx
  402068:	push   ebx
  402069:	das    
  40206a:	jp     0x40209c
  40206c:	cmp    cl,al
  40206e:	jo     0x40204a
  402070:	retf   
  402071:	ds xchg edx,eax
  402073:	mov    DWORD PTR [ebx],esi
  402075:	mul    DWORD PTR [eax-0x45f7338a]
  40207b:	adc    al,0x74
  40207d:	add    edx,ebx
  40207f:	sub    ebx,DWORD PTR [eax-0x241378cb]
  402085:	into   
  402086:	push   es
  402087:	adc    al,0xf
  402089:	sub    DWORD PTR [edi-0x3b25eb08],eax
  40208f:	inc    ebx
  402090:	jbe    0x402029
  402092:	mov    di,0xf280
  402096:	adc    al,0x59
  402098:	or     BYTE PTR [esi+0xa],bh
  40209b:	or     eax,0xf30ec3ef
  4020a0:	xor    BYTE PTR [ecx+0x67707100],dh
  4020a6:	add    cl,BYTE PTR [edi-0x5ebfdc71]
  4020ac:	stc    
  4020ad:	push   esp
  4020ae:	retf   0x5c5d
  4020b1:	mov    edi,0x40a61920
  4020b6:	loop   0x4020fb
  4020b8:	and    ebx,DWORD PTR [eax]
  4020ba:	test   eax,0xba040130
  4020bf:	pop    ds
  4020c0:	out    0x3a,eax
  4020c2:	dec    esp
  4020c3:	loopne 0x4020dd
  4020c5:	sbb    eax,0xe33f9837
  4020ca:	int    0x67
  4020cc:	rcl    BYTE PTR [ecx-0x6dbbdcbc],0x85
  4020d3:	loope  0x4020b4
  4020d5:	ins    DWORD PTR es:[edi],dx
  4020d6:	jge    0x4020f6
  4020d8:	and    BYTE PTR [ecx-0x411bfa07],dl
  4020de:	cmp    al,0xba
  4020e0:	fbld   TBYTE PTR [ecx-0x2bdbc6af]
  4020e6:	in     eax,dx
  4020e7:	push   ecx
  4020e8:	xchg   edx,eax
  4020e9:	lods   al,BYTE PTR ds:[esi]
  4020ea:	adc    eax,0xe3d86dae
  4020ef:	mov    BYTE PTR ds:0x78c5122b,0xe1
  4020f6:	jne    0x402132
  4020f8:	cld    
  4020f9:	mov    BYTE PTR [eax-0x3889a440],dl
  4020ff:	inc    ebx
  402100:	sub    DWORD PTR [edx-0x50],ecx
  402103:	shr    BYTE PTR ds:0x223fa7b5,0xa1
  40210a:	out    0x36,al
  40210c:	out    dx,al
  40210d:	popa   
  40210e:	andnps xmm2,XMMWORD PTR [eax]
  402111:	dec    esp
  402112:	js     0x40217f
  402114:	gs scas eax,DWORD PTR es:[edi]
  402116:	mov    ch,0x8b
  402118:	es pop ds
  40211a:	stos   DWORD PTR es:[edi],eax
  40211b:	lds    ebp,FWORD PTR [ecx]
  40211d:	xor    eax,0x22273ec1
  402122:	inc    eax
  402123:	pop    ss
  402124:	in     eax,0x33
  402126:	dec    ebp
  402127:	out    dx,eax
  402128:	lahf   
  402129:	mov    WORD PTR [ebp-0x5f],es
  40212c:	jmp    0x4020e7
  40212e:	int    0xeb
  402130:	dec    eax
  402131:	dec    ecx
  402132:	mov    ecx,es
  402134:	cmp    al,0x77
  402136:	jmp    0x13a6:0x18896c59
  40213d:	in     al,dx
  40213e:	out    dx,al
  40213f:	out    0x30,al
  402141:	pop    ss
  402142:	push   ss
  402143:	ds into 
  402145:	call   0x16c26335
  40214a:	mov    esp,edx
  40214c:	xchg   ecx,eax
  40214d:	call   0x359471e
  402152:	push   ss
  402153:	cmp    al,BYTE PTR [ebp+0x55]
  402156:	inc    ebp
  402157:	sbb    cl,BYTE PTR [ebx]
  402159:	cld    
  40215a:	adc    al,0xe5
  40215c:	dec    edx
  40215d:	adc    BYTE PTR [esi-0x62],al
  402160:	jnp    0x402166
  402162:	cmps   DWORD PTR ds:[esi],DWORD PTR es:[edi]
  402163:	icebp  
  402164:	in     eax,0xbe
  402166:	mov    ebx,0x39cced99
  40216b:	push   0xffffff88
  40216d:	outs   dx,DWORD PTR ds:[esi]
  40216e:	hlt    
  40216f:	jmp    0x40211c
  402171:	adc    eax,0x7fd823e0
  402176:	and    bl,ah
  402178:	daa    
  402179:	or     ebp,DWORD PTR [esi-0x38]
  40217c:	fdiv   st,st(4)
  40217e:	xchg   esp,eax
  40217f:	ret    0xabdd
  402182:	outs   dx,BYTE PTR ds:[esi]
  402183:	cmp    eax,0xd28ad922
  402188:	popa   
  402189:	test   al,0x78
  40218b:	sub    eax,0x807d5a9e
  402190:	in     eax,dx
  402191:	popf   
  402192:	mov    BYTE PTR [edx+0x63],bh
  402195:	in     eax,dx
  402196:	ds (bad) 
  402198:	in     eax,dx
  402199:	fs adc al,0x94
  40219c:	push   ss
  40219d:	add    ebp,esi
  40219f:	jnp    0x40218a
  4021a1:	cld    
  4021a2:	imul   eax,DWORD PTR [edi],0xffffffff
  4021a5:	pop    es
  4021a6:	out    0x62,eax
  4021a8:	add    eax,0xfaad1b60
  4021ad:	lahf   
  4021ae:	ds aam 0x9
  4021b1:	test   ah,al
  4021b3:	cmp    esi,esi
  4021b5:	jnp    0x4021f4
  4021b7:	sbb    dl,BYTE PTR [esi]
  4021b9:	sbb    DWORD PTR [edx],0xfffffff2
  4021bc:	inc    ebx
  4021bd:	(bad)  
  4021be:	xchg   ebp,eax
  4021bf:	cmp    DWORD PTR [ebx+edi*2+0x6e4d8ef8],eax
  4021c6:	lea    ebx,[edx-0x49]
  4021c9:	les    esi,FWORD PTR ds:0x76a1f60c
  4021cf:	hlt    
  4021d0:	cmp    edx,edx
  4021d2:	xchg   esp,eax
  4021d3:	xor    ch,al
  4021d5:	cmp    eax,0xd63bcf6e
  4021da:	fwait
  4021db:	adc    dh,BYTE PTR [ebx+0x7131f483]
  4021e1:	sbb    BYTE PTR [edi+0x20],0xdf
  4021e5:	jle    0x4021ba
  4021e7:	inc    edi
  4021e8:	and    DWORD PTR [ecx-0xdca47d1],edx
  4021ee:	mov    ebx,0x770d1a4c
  4021f3:	sbb    esp,esi
  4021f5:	add    cl,BYTE PTR [ebx+0x7b7e70e4]
  4021fb:	aas    
  4021fc:	(bad)  
  4021fd:	xchg   ecx,eax
  4021fe:	xchg   eax,eax
  402200:	outs   dx,DWORD PTR ds:[esi]
  402201:	les    eax,FWORD PTR [edi-0x2ab819c2]
  402207:	sbb    dh,BYTE PTR [edx+0x10]
  40220a:	mov    dl,0xae
  40220c:	add    esi,DWORD PTR [ecx-0x4f]
  40220f:	adc    al,0x5d
  402211:	jp     0x40226b
  402213:	cwde   
  402214:	test   DWORD PTR [ebx+0x3f7d9c37],eax
  40221a:	push   esi
  40221b:	dec    esp
  40221c:	push   cs
  40221d:	mov    ah,0x65
  40221f:	(bad)  
  402220:	icebp  
  402221:	dec    ebx
  402222:	popf   
  402223:	and    edi,edx
  402225:	mov    bl,0x64
  402227:	fdivr  QWORD PTR [edi+0x40239e6b]
  40222d:	jl     0x402274
  40222f:	fdivr  QWORD PTR [edi+0x47dd1383]
  402235:	jl     0x402226
  402237:	and    ah,BYTE PTR [eax+0x5fdd125a]
  40223d:	xor    eax,eax
  40223f:	scas   al,BYTE PTR es:[edi]
  402240:	aam    0xf2
  402242:	sti    
  402243:	pop    edx
  402244:	sub    ecx,DWORD PTR ds:0xf29c8d07
  40224a:	cli    
  40224b:	jb     0x40223c
  40224d:	or     edx,DWORD PTR [ebx+0x6eb2f957]
  402253:	test   al,0x6
  402255:	adc    DWORD PTR [eax+ebp*4-0x46],0x4a18b547
  40225d:	fcomp  QWORD PTR [edx-0x18]
  402260:	mov    ecx,0x69c5447
  402265:	cs lahf 
  402267:	mov    esp,0x89ec984
  40226c:	lock cmp DWORD PTR [esi-0x77ae1294],ebp
  402273:	mov    bh,0xcb
  402275:	mov    eax,0x2f34487a
  40227a:	sbb    eax,0xf4d0cbb7
  40227f:	inc    DWORD PTR [eax-0x7b]
  402282:	ins    BYTE PTR es:[edi],dx
  402283:	push   ecx
  402284:	js     0x402209
  402286:	xchg   esi,eax
  402287:	scas   al,BYTE PTR es:[edi]
  402288:	xchg   DWORD PTR [ecx+esi*8+0x50],esp
  40228c:	js     0x402229
  40228e:	push   0xffffff97
  402290:	pop    es
  402291:	fs xchg edi,eax
  402293:	push   0xb38f1082
  402298:	fidiv  WORD PTR [edx+0x6b0a0dc4]
  40229e:	not    DWORD PTR [edx]
  4022a0:	not    BYTE PTR [ebx+ecx*1-0x4f6481cb]
  4022a7:	int    0x81
  4022a9:	fs push edx
  4022ab:	jp     0x40229f
  4022ad:	ret    
  4022ae:	imul   esp,DWORD PTR [esi-0x5e66c3f3],0x6322e466
  4022b8:	cdq    
  4022b9:	sbb    esp,eax
  4022bb:	in     al,0xda
  4022bd:	cld    
  4022be:	fistp  DWORD PTR [ebx+0x25]
  4022c1:	add    esp,DWORD PTR [edi]
  4022c3:	in     al,dx
  4022c4:	dec    esi
  4022c5:	or     eax,0xf2b11894
  4022ca:	outs   dx,BYTE PTR ds:[esi]
  4022cb:	das    
  4022cc:	ret    
  4022cd:	adc    eax,0xea3d114d
  4022d2:	mov    ch,0x36
  4022d4:	aaa    
  4022d5:	push   ss
  4022d6:	fmul   DWORD PTR [edx+0x8aad22]
  4022dc:	xor    eax,ebx
  4022de:	stc    
  4022df:	icebp  
  4022e0:	pop    esi
  4022e1:	daa    
  4022e2:	dec    esi
  4022e3:	xchg   BYTE PTR [esi+eiz*1],ch
  4022e6:	sbb    al,0x5
  4022e8:	rcr    BYTE PTR [ebp+0x63],cl
  4022eb:	push   ebx
  4022ec:	cs push ss
  4022ee:	mov    ds:0xeb4246ad,al
  4022f3:	xchg   edi,eax
  4022f4:	sbb    DWORD PTR [ebx-0x29],eax
  4022f7:	fdiv   st(3),st
  4022f9:	inc    ebp
  4022fa:	jno    0x40235b
  4022fc:	push   esi
  4022fd:	je     0x402294
  4022ff:	mov    al,ds:0x5558ba9
  402304:	pop    eax
  402305:	je     0x4022b4
  402307:	push   esp
  402308:	stos   DWORD PTR es:[edi],eax
  402309:	jnp    0x402363
  40230b:	mov    ds:0xd1e54c80,eax
  402310:	xlat   BYTE PTR ds:[ebx]
  402311:	sub    BYTE PTR [edx],ch
  402313:	xor    DWORD PTR [ebp-0x40b424cd],ebx
  402319:	div    DWORD PTR [eax+edx*1-0x3a]
  40231d:	rol    DWORD PTR [edx],1
  40231f:	sti    
  402320:	out    0x7e,al
  402322:	sub    eax,edi
  402324:	jae    0x402352
  402326:	pop    edx
  402327:	and    dl,BYTE PTR [eax+0x333f8bb5]
  40232d:	stos   DWORD PTR es:[edi],eax
  40232e:	cli    
  40232f:	cmp    eax,0xd47c5519
  402334:	into   
  402335:	mov    edx,0xd0312b86
  40233a:	stc    
  40233b:	sub    BYTE PTR [edi+ebp*1+0x7d],dl
  40233f:	fst    QWORD PTR [esi-0x47]
  402342:	sub    BYTE PTR [ebx],ah
  402344:	test   eax,0xb7a03b46
  402349:	mov    eax,0x1fd39c1c
  40234e:	jno    0x402329
  402350:	js     0x4023bd
  402352:	(bad)  
  402353:	jbe    0x40232c
  402355:	in     al,0x94
  402357:	mov    DWORD PTR [eax],ebp
  402359:	daa    
  40235a:	outs   dx,BYTE PTR ds:[esi]
  40235b:	leave  
  40235c:	(bad)  
  40235d:	cs aam 0x8f
  402360:	jns    0x4023be
  402362:	es sub ecx,DWORD PTR fs:[esp+edx*1+0x3673d49c]
  40236b:	in     eax,dx
  40236c:	outs   dx,DWORD PTR ds:[esi]
  40236d:	mov    al,0xec
  40236f:	popf   
  402370:	mov    ch,bl
  402372:	and    bl,BYTE PTR [edi]
  402374:	jl     0x402398
  402376:	loopne 0x402358
  402378:	out    0x7e,eax
  40237a:	cmp    bl,BYTE PTR [edi]
  40237c:	sbb    BYTE PTR [ecx-0x2febaead],al
  402382:	pop    ss
  402383:	scas   eax,DWORD PTR es:[edi]
  402384:	jmp    0x4023c1
  402386:	jmp    0x40232b
  402388:	adc    ebx,DWORD PTR [edx]
  40238a:	push   edi
  40238b:	jmp    0x187ac188
  402390:	push   edi
  402391:	in     eax,dx
  402392:	xchg   edi,eax
  402393:	jae    0x402336
  402395:	push   es
  402396:	adc    cl,dh
  402398:	call   DWORD PTR [ecx]
  40239a:	repnz push cs
  40239c:	add    BYTE PTR [ebp+0x50],bh
  40239f:	sbb    eax,0x64124661
  4023a4:	mov    ebx,edx
  4023a6:	repnz fwait
  4023a8:	je     0x402337
  4023aa:	xor    al,0x66
  4023ac:	mov    esi,DWORD PTR [edx+0x1]
  4023af:	nop
  4023b0:	fisttp WORD PTR [ebp-0x37e08795]
  4023b6:	mov    bl,0x12
  4023b8:	mov    ecx,0x9ceca28c
  4023bd:	cmps   DWORD PTR ds:[esi],DWORD PTR es:[edi]
  4023be:	jmp    0x402417
  4023c0:	xchg   DWORD PTR [edx+ebx*1-0x18],esi
  4023c4:	mov    ah,0x16
  4023c6:	push   0x9ae94bd8
  4023cb:	lods   al,BYTE PTR ds:[esi]
  4023cc:	je     0x402359
  4023ce:	imul   ebx,DWORD PTR [ecx-0x43673821],0xb92abd58
  4023d8:	mov    WORD PTR [esi-0x15746329],ss
  4023de:	out    dx,eax
  4023df:	xchg   DWORD PTR [esi+0x15],esi
  4023e2:	adc    eax,DWORD PTR [ecx]
  4023e4:	dec    BYTE PTR [esi]
  4023e6:	or     esp,DWORD PTR [eax-0x3b]
  4023e9:	push   ecx
  4023ea:	pop    edi
  4023eb:	or     al,0xa7
  4023ed:	scas   al,BYTE PTR es:[edi]
  4023ee:	mov    ds:0x8dc5cb5b,eax
  4023f3:	or     BYTE PTR [ebp-0x39921759],bl
  4023f9:	lods   al,BYTE PTR ds:[esi]
  4023fa:	sbb    eax,ebp
  4023fc:	cmp    eax,0xca8da9d8
  402401:	jnp    0x40245b
  402403:	enter  0x935,0x6a
  402407:	lods   al,BYTE PTR ds:[esi]
  402408:	pop    ss
  402409:	popa   
  40240a:	cwde   
  40240b:	mov    ebx,0xaade0d51
  402410:	push   ss
  402411:	pop    ecx
  402412:	fwait
  402413:	lds    ebx,FWORD PTR [ebx-0x5]
  402416:	mov    bh,0x39
  402418:	cli    
  402419:	or     al,0xce
  40241b:	mov    dl,BYTE PTR [edx]
  40241d:	jle    0x402443
  40241f:	mov    BYTE PTR [ecx-0x14],0x1e
  402423:	movs   BYTE PTR es:[edi],BYTE PTR ds:[esi]
  402424:	lds    ebp,FWORD PTR [ecx-0x1d]
  402427:	mov    cl,0x46
  402429:	out    dx,al
  40242a:	outs   dx,DWORD PTR ds:[esi]
  40242b:	mov    ds:0xb39a7c09,al
  402430:	fisubr WORD PTR [edx-0x1fdeb398]
  402436:	(bad)  
  402437:	xlat   BYTE PTR ds:[ebx]
  402438:	pop    edi
  402439:	out    0x3e,eax
  40243b:	sub    BYTE PTR [eax-0x4720d1e8],ah
  402441:	fidivr DWORD PTR [eax+0x68]
  402444:	shr    bl,cl
  402446:	xor    eax,0x7d0dac25
  40244b:	inc    ebx
  40244c:	dec    BYTE PTR [edx+0x30]
  40244f:	ins    DWORD PTR es:[edi],dx
  402450:	lds    ebx,FWORD PTR [edi-0x2f]
  402453:	call   0xdbf51c9e
  402458:	lds    ebp,FWORD PTR [eax+0x11]
  40245b:	jge    0x402496
  40245d:	push   0x98666b46
  402462:	mov    esp,0x8bf4f694
  402467:	fisttp DWORD PTR [ebx+ecx*8+0x58b7ad7b]
  40246e:	xchg   edi,eax
  40246f:	scas   eax,DWORD PTR es:[edi]
  402470:	dec    eax
  402471:	cmps   DWORD PTR ds:[esi],DWORD PTR es:[edi]
  402472:	imul   edx,DWORD PTR [eax-0x49],0x58
  402476:	xchg   edi,eax
  402477:	pop    ss
  402478:	dec    ecx
  402479:	cmps   DWORD PTR ds:[esi],DWORD PTR es:[edi]
  40247a:	imul   ebp,eax,0x79
  40247d:	mov    edi,0xfaed0dca
  402482:	test   DWORD PTR [ecx+edi*2-0x4e],ecx
  402486:	jecxz  0x40246e
  402488:	push   esi
  402489:	ret    0x9a27
  40248c:	xchg   edi,eax
  40248d:	inc    eax
  40248e:	jmp    0x4024f5
  402490:	push   0xf62804aa
  402495:	push   ebx
  402496:	adc    bh,0x7f
  402499:	popf   
  40249a:	or     ebx,DWORD PTR [edi-0x4e4e3746]
  4024a0:	mov    al,ah
  4024a2:	test   DWORD PTR [ebx+ebx*8-0x18],ebp
  4024a6:	jecxz  0x40246e
  4024a8:	hlt    
  4024a9:	mov    edi,?
  4024ab:	cld    
  4024ac:	pop    esp
  4024ad:	cmps   BYTE PTR ds:[esi],BYTE PTR es:[edi]
  4024ae:	int3   
  4024af:	inc    esp
  4024b0:	into   
  4024b1:	sbb    ebp,DWORD PTR [esi+0x3fe6a5bf]
  4024b7:	cmp    BYTE PTR [esi+0x5489c6d9],cl
  4024bd:	and    edx,DWORD PTR [ebp-0x2aa5c8c7]
  4024c3:	xor    ch,cl
  4024c5:	or     eax,0xf232df2d
  4024ca:	sub    al,0x8b
  4024cc:	int    0xc
  4024ce:	sub    eax,DWORD PTR [ebp+0x6758e3bd]
  4024d4:	inc    edi
  4024d5:	sbb    eax,0xdf4398aa
  4024da:	shr    BYTE PTR [ebx-0x43],0x20
  4024de:	inc    edx
  4024df:	jmp    0x402476
  4024e1:	ficom  WORD PTR ds:0x5521d435
  4024e7:	dec    ebx
  4024e8:	sub    al,0xde
  4024ea:	lods   eax,DWORD PTR ds:[esi]
  4024eb:	push   ds
  4024ec:	xlat   BYTE PTR ds:[ebx]
  4024ed:	mov    edx,DWORD PTR [ebp+0x4b]
  4024f0:	sub    bl,ah
  4024f2:	lods   eax,DWORD PTR ds:[esi]
  4024f3:	mov    ah,0xd5
  4024f5:	mov    ds:0x80804aac,eax
  4024fa:	xlat   BYTE PTR ds:[ebx]
  4024fb:	jns    0x402481
  4024fd:	sub    BYTE PTR [ebx],0x86
  402500:	adc    BYTE PTR ds:[edi-0x2e],ah
  402504:	rol    al,0x96
  402507:	add    ah,dl
  402509:	mov    al,ds:0xac2239f6
  40250e:	pop    ecx
  40250f:	jle    0x40249e
  402511:	and    BYTE PTR [esi-0x6399f443],al
  402517:	into   
  402518:	cmp    al,0xfc
  40251a:	inc    edi
  40251b:	movs   BYTE PTR es:[edi],BYTE PTR ds:[esi]
  40251c:	pushf  
  40251d:	pop    ds
  40251e:	fwait
  40251f:	sbb    BYTE PTR [edx+0x4d],al
  402522:	add    dl,BYTE PTR [esi-0x723f78a6]
  402528:	out    dx,al
  402529:	adc    al,0x1a
  40252b:	loopne 0x4024eb
  40252d:	add    ah,dh
  40252f:	jmp    0x82a2a81f
  402534:	scas   al,BYTE PTR es:[edi]
  402535:	cmps   BYTE PTR ds:[esi],BYTE PTR es:[edi]
  402536:	test   al,0x0
  402538:	pop    ebp
  402539:	add    BYTE PTR [ebx],dl
  40253b:	out    0xb9,al
  40253d:	add    BYTE PTR [edi],ch
  40253f:	ss inc edi
  402541:	mov    cl,BYTE PTR [esi+0x13d9b12]
  402547:	lods   eax,DWORD PTR ds:[esi]
  402548:	shr    eax,0x3
  40254b:	out    0x7d,al
  40254d:	into   
  40254e:	call   FWORD PTR [ecx]
  402550:	xor    BYTE PTR [ecx],0x3
  402553:	out    0x7d,al
  402555:	into   
  402556:	call   FWORD PTR [ecx]
  402558:	xor    BYTE PTR [ecx],0x3
  40255b:	out    0x7d,al
  40255d:	into   
  40255e:	call   FWORD PTR [ecx]
  402560:	xor    BYTE PTR [ecx],0x3
  402563:	out    0x7d,al
  402565:	into   
  402566:	call   FWORD PTR [ecx]
  402568:	xor    BYTE PTR [ecx],0x71
  40256b:	jbe    0x4025eb
  40256d:	into   
  40256e:	xchg   ecx,eax
  40256f:	test   eax,0x5a713186
  402574:	jns    0x402544
  402576:	sbb    DWORD PTR [esi+0x72],edi
  402579:	outs   dx,DWORD PTR ds:[esi]
  40257a:	adc    al,0x64
  40257c:	sub    dl,BYTE PTR [ecx+eiz*8-0x721508a2]
  402583:	inc    ecx
  402584:	retf   
  402585:	jg     0x40259b
  402587:	mov    ds:0xbe32da97,al
  40258c:	into   
  40258d:	pushf  
  40258e:	fs xchg esi,eax
  402590:	test   eax,0xa2f9e205
  402595:	popa   
  402596:	.byte 0x10
  402597:	xchg   edx,eax
