
9f951633f2cab8d3c9f1228e81359cb4437a46a744d877c3af56aab31513ad21.exe:     file format pei-i386


Disassembly of section .text:

004cd000 <.text>:
  4cd000:	mov    edi,edi
  4cd002:	push   ebp
  4cd003:	mov    ebp,esp
  4cd005:	sub    esp,0x38
  4cd008:	mov    esi,0x4d0000
  4cd00d:	or     edi,0x75
  4cd010:	push   esi
  4cd011:	push   DWORD PTR [esi+0x98]
  4cd017:	push   edi
  4cd018:	push   ebx
  4cd019:	call   0x4cde88
  4cd01e:	add    esp,0xc
  4cd021:	pop    esi
  4cd022:	push   0x0
  4cd024:	call   0x4cd1ec
  4cd029:	mov    edi,0x0
  4cd02e:	push   edi
  4cd02f:	call   0x4cd1ec
  4cd034:	add    esp,0x38
  4cd037:	pop    ebp
  4cd038:	ret    
  4cd039:	add    BYTE PTR [eax],al
  4cd03b:	add    BYTE PTR [ebx-0x1374aa01],cl
  4cd041:	sub    esp,0x34
  4cd044:	mov    ebx,0x4d014c
  4cd049:	and    DWORD PTR [ebp-0x1c],0x170b
  4cd050:	push   ebx
  4cd051:	push   eax
  4cd052:	push   edi
  4cd053:	call   0x4cd1fc
  4cd058:	add    esp,0x8
  4cd05b:	pop    ebx
  4cd05c:	mov    edi,0x0
  4cd061:	push   edi
  4cd062:	call   0x4cdbb8
  4cd067:	mov    edi,0x0
  4cd06c:	push   edi
  4cd06d:	call   0x4cdbc8
  4cd072:	add    esp,0x34
  4cd075:	pop    ebp
  4cd076:	ret    
  4cd077:	add    BYTE PTR [ebx-0x1374aa01],cl
  4cd07d:	sub    esp,0x60
  4cd080:	mov    edi,0x4d014c
  4cd085:	sbb    DWORD PTR [edi-0x144],0xa03
  4cd08f:	push   edi
  4cd090:	push   0x0
  4cd092:	call   0x4cdb64
  4cd097:	pop    edi
  4cd098:	push   edi
  4cd099:	push   ebx
  4cd09a:	push   DWORD PTR [edi+0x1b8]
  4cd0a0:	push   ebx
  4cd0a1:	call   0x4cd49c
  4cd0a6:	add    esp,0xc
  4cd0a9:	pop    edi
  4cd0aa:	push   edi
  4cd0ab:	push   0x0
  4cd0ad:	call   0x4ce068
  4cd0b2:	pop    edi
  4cd0b3:	add    esp,0x60
  4cd0b6:	pop    ebp
  4cd0b7:	ret    
  4cd0b8:	mov    edi,edi
  4cd0ba:	push   ebp
  4cd0bb:	mov    ebp,esp
  4cd0bd:	sub    esp,0x24
  4cd0c0:	lea    esi,ds:0x4d0114
  4cd0c6:	add    DWORD PTR [esi+0x9c],0x5195
  4cd0d0:	push   0x0
  4cd0d2:	call   0x4ce068
  4cd0d7:	push   esi
  4cd0d8:	push   edx
  4cd0d9:	push   DWORD PTR [esi+0xac]
  4cd0df:	call   0x4cdad4
  4cd0e4:	add    esp,0x8
  4cd0e7:	pop    esi
  4cd0e8:	mov    ebx,0x4cf6e8
  4cd0ed:	mov    ebx,DWORD PTR [ebx]
  4cd0ef:	push   ebx
  4cd0f0:	push   DWORD PTR [esi+0x14]
  4cd0f3:	pop    ecx
  4cd0f4:	call   ecx
  4cd0f6:	add    esp,0x24
  4cd0f9:	pop    ebp
  4cd0fa:	ret    
  4cd0fb:	add    BYTE PTR [edi+0x33],bl
  4cd0fe:	sar    bh,0x14
  4cd101:	lds    ebx,FWORD PTR [edi+esi*8+0x4c]
  4cd105:	add    BYTE PTR [edi+0x5f],dl
  4cd108:	jmp    DWORD PTR [esp-0x4]
  4cd10c:	pop    edi
  4cd10d:	xor    eax,eax
  4cd10f:	call   DWORD PTR [eax*8+0x4cf764]
  4cd116:	push   edi
  4cd117:	pop    edi
  4cd118:	jmp    DWORD PTR [esp-0x4]
  4cd11c:	pop    edi
  4cd11d:	xor    eax,eax
  4cd11f:	call   DWORD PTR [eax*8+0x4cf744]
  4cd126:	push   edi
  4cd127:	pop    edi
  4cd128:	jmp    DWORD PTR [esp-0x4]
  4cd12c:	pop    edi
  4cd12d:	xor    eax,eax
  4cd12f:	call   DWORD PTR [eax*8+0x4cf754]
  4cd136:	push   edi
  4cd137:	pop    edi
  4cd138:	jmp    DWORD PTR [esp-0x4]
  4cd13c:	mov    edi,edi
  4cd13e:	push   ebp
  4cd13f:	mov    ebp,esp
  4cd141:	sub    esp,0x28
  4cd144:	mov    edx,0x4d0010
  4cd149:	add    ecx,edi
  4cd14b:	push   edx
  4cd14c:	push   ecx
  4cd14d:	push   ebx
  4cd14e:	call   0x4cd92c
  4cd153:	add    esp,0x8
  4cd156:	pop    edx
  4cd157:	push   edx
  4cd158:	push   0x0
  4cd15a:	call   0x4cdb54
  4cd15f:	pop    edx
  4cd160:	push   edx
  4cd161:	lea    ecx,[edx-0x10]
  4cd164:	push   ecx
  4cd165:	call   0x4cd2e0
  4cd16a:	test   eax,eax
  4cd16c:	jne    0x4cd161
  4cd16e:	pop    edx
  4cd16f:	add    esp,0x28
  4cd172:	pop    ebp
  4cd173:	ret    
  4cd174:	mov    edi,edi
  4cd176:	push   ebp
  4cd177:	mov    ebp,esp
  4cd179:	sub    esp,0x3c
  4cd17c:	lea    eax,[ecx+0x58]
  4cd17f:	adc    esi,DWORD PTR [ebp-0x1c]
  4cd182:	push   eax
  4cd183:	push   0x0
  4cd185:	call   0x4cd1ec
  4cd18a:	pop    eax
  4cd18b:	push   eax
  4cd18c:	push   DWORD PTR [eax+0x104]
  4cd192:	push   edi
  4cd193:	call   0x4cdf90
  4cd198:	add    esp,0x8
  4cd19b:	pop    eax
  4cd19c:	push   eax
  4cd19d:	push   0x0
  4cd19f:	call   0x4cdb74
  4cd1a4:	pop    eax
  4cd1a5:	add    esp,0x3c
  4cd1a8:	pop    ebp
  4cd1a9:	ret    
  4cd1aa:	add    BYTE PTR [eax],al
  4cd1ac:	mov    edi,edi
  4cd1ae:	push   ebp
  4cd1af:	mov    ebp,esp
  4cd1b1:	sub    esp,0x58
  4cd1b4:	mov    esi,0x4d00b0
  4cd1b9:	and    DWORD PTR [esi+0xa0],eax
  4cd1bf:	push   0x0
  4cd1c1:	call   0x4cde78
  4cd1c6:	push   esi
  4cd1c7:	push   DWORD PTR [esi+0x140]
  4cd1cd:	push   DWORD PTR [esi+0x1bc]
  4cd1d3:	call   0x4cd13c
  4cd1d8:	add    esp,0x8
  4cd1db:	pop    esi
  4cd1dc:	mov    edi,0x0
  4cd1e1:	push   edi
  4cd1e2:	call   0x4cdbc8
  4cd1e7:	add    esp,0x58
  4cd1ea:	pop    ebp
  4cd1eb:	ret    
  4cd1ec:	pop    edi
  4cd1ed:	xor    eax,eax
  4cd1ef:	call   DWORD PTR [eax*8+0x4cf714]
  4cd1f6:	push   edi
  4cd1f7:	pop    edi
  4cd1f8:	jmp    DWORD PTR [esp-0x4]
  4cd1fc:	mov    edi,edi
  4cd1fe:	push   ebp
  4cd1ff:	mov    ebp,esp
  4cd201:	sub    esp,0x34
  4cd204:	mov    esi,0x4d00c0
  4cd209:	sub    ecx,esi
  4cd20b:	call   0x4cd5fc
  4cd210:	push   esi
  4cd211:	push   edx
  4cd212:	push   DWORD PTR [esi+0x10]
  4cd215:	push   ebx
  4cd216:	push   DWORD PTR [esi+0x144]
  4cd21c:	call   0x4cd688
  4cd221:	add    esp,0x10
  4cd224:	pop    esi
  4cd225:	push   0x0
  4cd227:	call   0x4cdb64
  4cd22c:	add    esp,0x34
  4cd22f:	pop    ebp
  4cd230:	ret    
  4cd231:	add    BYTE PTR [eax],al
  4cd233:	add    BYTE PTR [ebx-0x1374aa01],cl
  4cd239:	sub    esp,0x44
  4cd23c:	lea    ebx,[eax+0x98]
  4cd242:	xor    DWORD PTR [ebp-0x40],0x51
  4cd246:	push   ebx
  4cd247:	push   ecx
  4cd248:	push   esi
  4cd249:	call   0x4cd000
  4cd24e:	add    esp,0x8
  4cd251:	pop    ebx
  4cd252:	mov    ecx,0x0
  4cd257:	push   ecx
  4cd258:	call   0x4cdb64
  4cd25d:	push   0x0
  4cd25f:	call   0x4cd1ec
  4cd264:	add    esp,0x44
  4cd267:	pop    ebp
  4cd268:	ret    
  4cd269:	add    BYTE PTR [eax],al
  4cd26b:	add    BYTE PTR [edi+0x33],bl
  4cd26e:	sar    bh,0x14
  4cd271:	(bad)
  4cd274:	dec    esp
  4cd275:	add    BYTE PTR [edi+0x5f],dl
  4cd278:	jmp    DWORD PTR [esp-0x4]
  4cd27c:	pop    edi
  4cd27d:	xor    eax,eax
  4cd27f:	call   DWORD PTR [eax*8+0x4cf770]
  4cd286:	push   edi
  4cd287:	pop    edi
  4cd288:	jmp    DWORD PTR [esp-0x4]
  4cd28c:	pop    edi
  4cd28d:	xor    eax,eax
  4cd28f:	call   DWORD PTR [eax*8+0x4cf718]
  4cd296:	push   edi
  4cd297:	pop    edi
  4cd298:	jmp    DWORD PTR [esp-0x4]
  4cd29c:	mov    edi,edi
  4cd29e:	push   ebp
  4cd29f:	mov    ebp,esp
  4cd2a1:	sub    esp,0x34
  4cd2a4:	lea    eax,[ebx+0x98]
  4cd2aa:	xor    ecx,0x10
  4cd2ad:	push   eax
  4cd2ae:	push   DWORD PTR [eax+0x124]
  4cd2b4:	push   esi
  4cd2b5:	push   DWORD PTR [eax+0x1c]
  4cd2b8:	push   DWORD PTR [eax+0x178]
  4cd2be:	call   0x4cd420
  4cd2c3:	add    esp,0x10
  4cd2c6:	pop    eax
  4cd2c7:	push   eax
  4cd2c8:	push   0x0
  4cd2ca:	call   0x4cdb74
  4cd2cf:	pop    eax
  4cd2d0:	push   eax
  4cd2d1:	push   0x0
  4cd2d3:	call   0x4cdb54
  4cd2d8:	pop    eax
  4cd2d9:	add    esp,0x34
  4cd2dc:	pop    ebp
  4cd2dd:	ret    
  4cd2de:	add    BYTE PTR [eax],al
  4cd2e0:	pop    edi
  4cd2e1:	xor    eax,eax
  4cd2e3:	call   DWORD PTR [eax*8+0x4cf6e8]
  4cd2ea:	push   edi
  4cd2eb:	pop    edi
  4cd2ec:	jmp    DWORD PTR [esp-0x4]
  4cd2f0:	pop    edi
  4cd2f1:	xor    eax,eax
  4cd2f3:	call   DWORD PTR [eax*8+0x4cf73c]
  4cd2fa:	push   edi
  4cd2fb:	pop    edi
  4cd2fc:	jmp    DWORD PTR [esp-0x4]
  4cd300:	mov    edi,edi
  4cd302:	push   ebp
  4cd303:	mov    ebp,esp
  4cd305:	sub    esp,0x24
  4cd308:	mov    edi,0x4d0044
  4cd30d:	adc    esi,DWORD PTR [ebp-0x1c]
  4cd310:	push   edi
  4cd311:	push   0x0
  4cd313:	call   0x4cdb74
  4cd318:	pop    edi
  4cd319:	push   edi
  4cd31a:	push   eax
  4cd31b:	push   DWORD PTR [edi+0x1b8]
  4cd321:	push   DWORD PTR [edi+0x1cc]
  4cd327:	call   0x4cd564
  4cd32c:	add    esp,0xc
  4cd32f:	pop    edi
  4cd330:	push   edi
  4cd331:	mov    ebx,0x0
  4cd336:	push   ebx
  4cd337:	call   0x4cdb74
  4cd33c:	pop    edi
  4cd33d:	add    esp,0x24
  4cd340:	pop    ebp
  4cd341:	ret    
  4cd342:	add    BYTE PTR [eax],al
  4cd344:	mov    edi,edi
  4cd346:	push   ebp
  4cd347:	mov    ebp,esp
  4cd349:	sub    esp,0x44
  4cd34c:	lea    ebx,ds:0x4d0158
  4cd352:	sub    DWORD PTR [ebp-0x34],0x7a
  4cd356:	push   ebx
  4cd357:	push   edi
  4cd358:	push   DWORD PTR [ebx+0x194]
  4cd35e:	call   0x4cda9c
  4cd363:	add    esp,0x8
  4cd366:	pop    ebx
  4cd367:	mov    edx,0x0
  4cd36c:	push   edx
  4cd36d:	call   0x4cd8d8
  4cd372:	call   0x4cd970
  4cd377:	add    esp,0x44
  4cd37a:	pop    ebp
  4cd37b:	ret    
  4cd37c:	pop    edi
  4cd37d:	xor    eax,eax
  4cd37f:	call   DWORD PTR [eax*8+0x4cf784]
  4cd386:	push   edi
  4cd387:	pop    edi
  4cd388:	jmp    DWORD PTR [esp-0x4]
  4cd38c:	mov    edi,edi
  4cd38e:	push   ebp
  4cd38f:	mov    ebp,esp
  4cd391:	sub    esp,0x2c
  4cd394:	sbb    DWORD PTR [ebp-0x18],edx
  4cd397:	mov    esi,0x4d01d4
  4cd39c:	mov    ecx,0x6a8
  4cd3a1:	push   ecx
  4cd3a2:	push   0x6a8
  4cd3a7:	push   0x40001
  4cd3ac:	mov    eax,0x86295c9e
  4cd3b1:	push   DWORD PTR [eax+0x7a239a86]
  4cd3b7:	sub    DWORD PTR [esp],0x2
  4cd3bb:	mov    eax,0x4cf71c
  4cd3c0:	pop    DWORD PTR [eax]
  4cd3c2:	call   0x4ce058
  4cd3c7:	push   eax
  4cd3c8:	pop    DWORD PTR [esi-0xac]
  4cd3ce:	mov    ebx,DWORD PTR [esi-0xac]
  4cd3d4:	mov    ecx,ebx
  4cd3d6:	sub    edx,edx
  4cd3d8:	dec    edx
  4cd3d9:	and    edx,0x4cf038
  4cd3df:	mov    ebx,0x631a7e54
  4cd3e4:	xor    edi,edi
  4cd3e6:	xor    eax,eax
  4cd3e8:	push   DWORD PTR [edx+eax*1]
  4cd3eb:	sub    DWORD PTR [esp],ebx
  4cd3ee:	pop    DWORD PTR [ecx+eax*2]
  4cd3f1:	dec    DWORD PTR [ecx]
  4cd3f3:	xor    ebx,ebx
  4cd3f5:	add    ebx,DWORD PTR [edx]
  4cd3f7:	add    edx,0x4
  4cd3fa:	add    ecx,0x4
  4cd3fd:	add    edi,0x4
  4cd400:	cmp    edi,0x6a8
  4cd406:	jne    0x4cd3e6
  4cd408:	lea    ecx,[esi-0x1d4]
  4cd40e:	push   ecx
  4cd40f:	call   0x4cd2e0
  4cd414:	test   eax,eax
  4cd416:	jne    0x4cd409
  4cd418:	add    esp,0x2c
  4cd41b:	pop    ebp
  4cd41c:	ret    
  4cd41d:	add    BYTE PTR [eax],al
  4cd41f:	add    BYTE PTR [ebx-0x1374aa01],cl
  4cd425:	sub    esp,0x54
  4cd428:	lea    edx,ds:0x4d01ac
  4cd42e:	and    DWORD PTR [edx-0x30],0xffffffb3
  4cd432:	push   edx
  4cd433:	push   0x0
  4cd435:	call   0x4cdbb8
  4cd43a:	pop    edx
  4cd43b:	push   edx
  4cd43c:	push   esi
  4cd43d:	push   esi
  4cd43e:	push   DWORD PTR [edx+0x170]
  4cd444:	push   DWORD PTR [edx+0x14]
  4cd447:	call   0x4cddf4
  4cd44c:	add    esp,0x10
  4cd44f:	pop    edx
  4cd450:	push   edx
  4cd451:	call   0x4cd5fc
  4cd456:	pop    edx
  4cd457:	add    esp,0x54
  4cd45a:	pop    ebp
  4cd45b:	ret    
  4cd45c:	pop    edi
  4cd45d:	xor    eax,eax
  4cd45f:	call   DWORD PTR [eax*8+0x4cf74c]
  4cd466:	push   edi
  4cd467:	pop    edi
  4cd468:	jmp    DWORD PTR [esp-0x4]
  4cd46c:	mov    edi,edi
  4cd46e:	push   ebp
  4cd46f:	mov    ebp,esp
  4cd471:	sub    esp,0x28
  4cd474:	lea    ebx,[eax-0x74]
  4cd477:	add    edx,ebx
  4cd479:	push   ebx
  4cd47a:	push   eax
  4cd47b:	push   eax
  4cd47c:	call   0x4cd300
  4cd481:	add    esp,0x8
  4cd484:	pop    ebx
  4cd485:	call   0x4cd79c
  4cd48a:	mov    ecx,0x0
  4cd48f:	push   ecx
  4cd490:	call   0x4ce068
  4cd495:	add    esp,0x28
  4cd498:	pop    ebp
  4cd499:	ret    
  4cd49a:	add    BYTE PTR [eax],al
  4cd49c:	mov    edi,edi
  4cd49e:	push   ebp
  4cd49f:	mov    ebp,esp
  4cd4a1:	sub    esp,0x30
  4cd4a4:	mov    ebx,0x4d0158
  4cd4a9:	mov    DWORD PTR [ebp-0x1c],ebx
  4cd4ac:	mov    edx,0x0
  4cd4b1:	push   edx
  4cd4b2:	call   0x4cde78
  4cd4b7:	push   ebx
  4cd4b8:	push   edi
  4cd4b9:	push   esi
  4cd4ba:	call   0x4cd1ac
  4cd4bf:	add    esp,0x8
  4cd4c2:	pop    ebx
  4cd4c3:	push   0x0
  4cd4c5:	call   0x4cd8d8
  4cd4ca:	add    esp,0x30
  4cd4cd:	pop    ebp
  4cd4ce:	ret    
  4cd4cf:	add    BYTE PTR [edi+0x33],bl
  4cd4d2:	sar    bh,0x14
  4cd4d5:	lds    edx,FWORD PTR [eax-0x9]
  4cd4d8:	dec    esp
  4cd4d9:	add    BYTE PTR [edi+0x5f],dl
  4cd4dc:	jmp    DWORD PTR [esp-0x4]
  4cd4e0:	mov    edi,edi
  4cd4e2:	push   ebp
  4cd4e3:	mov    ebp,esp
  4cd4e5:	sub    esp,0x30
  4cd4e8:	mov    ebx,0x4d018c
  4cd4ed:	sbb    edi,DWORD PTR [ebx-0x1c]
  4cd4f0:	mov    eax,0x0
  4cd4f5:	push   eax
  4cd4f6:	call   0x4cdbb8
  4cd4fb:	push   ebx
  4cd4fc:	push   DWORD PTR [ebx+0x144]
  4cd502:	push   DWORD PTR [ebx+0x18]
  4cd505:	push   ecx
  4cd506:	call   0x4cd078
  4cd50b:	add    esp,0xc
  4cd50e:	pop    ebx
  4cd50f:	push   0x0
  4cd511:	call   0x4cd8d8
  4cd516:	add    esp,0x30
  4cd519:	pop    ebp
  4cd51a:	ret    
  4cd51b:	add    BYTE PTR [edi+0x33],dl
  4cd51e:	call   DWORD PTR [edi+0x57]
  4cd521:	push   edi
  4cd522:	push   edi
  4cd523:	call   0x4cdf0c
  4cd528:	sub    esp,0x4
  4cd52b:	call   0x4cdc9c
  4cd530:	push   0x2
  4cd532:	xor    eax,eax
  4cd534:	xor    eax,0x4d00a0
  4cd539:	push   0x0
  4cd53b:	inc    DWORD PTR ds:0x4d00a6
  4cd541:	push   eax
  4cd542:	call   0x4ce058
  4cd547:	pop    edi
  4cd548:	lea    edi,[eax+0x3b]
  4cd54b:	mov    edi,DWORD PTR [edi]
  4cd54d:	lea    eax,[eax+edi*1]
  4cd550:	add    eax,0x28
  4cd553:	mov    eax,DWORD PTR [eax]
  4cd555:	pusha  
  4cd556:	mov    ah,0x30
  4cd558:	sub    al,ah
  4cd55a:	jb     0x4cd562
  4cd55c:	jg     0x4cd0b8
  4cd562:	popa   
  4cd563:	ret    
  4cd564:	mov    edi,edi
  4cd566:	push   ebp
  4cd567:	mov    ebp,esp
  4cd569:	sub    esp,0x3c
  4cd56c:	lea    edx,ds:0x4d00d4
  4cd572:	and    ecx,ebx
  4cd574:	push   edx
  4cd575:	push   0x0
  4cd577:	call   0x4cdb54
  4cd57c:	pop    edx
  4cd57d:	push   edx
  4cd57e:	push   DWORD PTR [edx+0xa8]
  4cd584:	push   DWORD PTR [edx+0x88]
  4cd58a:	push   DWORD PTR [edx+0x198]
  4cd590:	call   0x4cd9e0
  4cd595:	add    esp,0xc
  4cd598:	pop    edx
  4cd599:	push   edx
  4cd59a:	lea    edx,[edx-0xd4]
  4cd5a0:	push   edx
  4cd5a1:	call   0x4cd2e0
  4cd5a6:	test   eax,eax
  4cd5a8:	jne    0x4cd59a
  4cd5aa:	pop    edx
  4cd5ab:	add    esp,0x3c
  4cd5ae:	pop    ebp
  4cd5af:	ret    
  4cd5b0:	pop    edi
  4cd5b1:	xor    eax,eax
  4cd5b3:	call   DWORD PTR [eax*8+0x4cf72c]
  4cd5ba:	push   edi
  4cd5bb:	pop    edi
  4cd5bc:	jmp    DWORD PTR [esp-0x4]
  4cd5c0:	mov    edi,edi
  4cd5c2:	push   ebp
  4cd5c3:	mov    ebp,esp
  4cd5c5:	sub    esp,0x44
  4cd5c8:	mov    ecx,0x4d0000
  4cd5cd:	add    eax,DWORD PTR [ebp-0x28]
  4cd5d0:	push   ecx
  4cd5d1:	push   edx
  4cd5d2:	push   eax
  4cd5d3:	push   DWORD PTR [ecx+0x7c]
  4cd5d6:	push   esi
  4cd5d7:	call   0x4cdf1c
  4cd5dc:	add    esp,0x10
  4cd5df:	pop    ecx
  4cd5e0:	push   ecx
  4cd5e1:	mov    edx,0x0
  4cd5e6:	push   edx
  4cd5e7:	call   0x4cd8d8
  4cd5ec:	pop    ecx
  4cd5ed:	push   ecx
  4cd5ee:	push   0x0
  4cd5f0:	call   0x4cdb64
  4cd5f5:	pop    ecx
  4cd5f6:	add    esp,0x44
  4cd5f9:	pop    ebp
  4cd5fa:	ret    
  4cd5fb:	add    BYTE PTR [edi+0x33],bl
  4cd5fe:	sar    bh,0x14
  4cd601:	lds    esp,FWORD PTR [eax]
  4cd603:	test   DWORD PTR [eax+eax*1+0x57],0x2464ff5f
  4cd60b:	cld    
  4cd60c:	mov    edi,edi
  4cd60e:	push   ebp
  4cd60f:	mov    ebp,esp
  4cd611:	sub    esp,0x20
  4cd614:	mov    edi,0x4d01f8
  4cd619:	mov    DWORD PTR [ebp-0x18],0x5e3e
  4cd620:	push   edi
  4cd621:	push   DWORD PTR [edi+0x20]
  4cd624:	push   DWORD PTR [edi+0x104]
  4cd62a:	call   0x4cd344
  4cd62f:	add    esp,0x8
  4cd632:	pop    edi
  4cd633:	push   edi
  4cd634:	mov    edi,0x0
  4cd639:	push   edi
  4cd63a:	call   0x4cdb64
  4cd63f:	pop    edi
  4cd640:	push   edi
  4cd641:	call   0x4cd970
  4cd646:	pop    edi
  4cd647:	add    esp,0x20
  4cd64a:	pop    ebp
  4cd64b:	ret    
  4cd64c:	mov    edi,edi
  4cd64e:	push   ebp
  4cd64f:	mov    ebp,esp
  4cd651:	sub    esp,0x5c
  4cd654:	lea    ecx,[edi-0x13c]
  4cd65a:	cmp    ecx,0x4b1f
  4cd660:	je     0x4cd64f
  4cd662:	push   ecx
  4cd663:	push   0x0
  4cd665:	call   0x4cd8d8
  4cd66a:	pop    ecx
  4cd66b:	push   ecx
  4cd66c:	push   eax
  4cd66d:	push   DWORD PTR [ecx+0x70]
  4cd670:	call   0x4cdce8
  4cd675:	add    esp,0x8
  4cd678:	pop    ecx
  4cd679:	push   ecx
  4cd67a:	call   0x4cd5fc
  4cd67f:	pop    ecx
  4cd680:	add    esp,0x5c
  4cd683:	pop    ebp
  4cd684:	ret    
  4cd685:	add    BYTE PTR [eax],al
  4cd687:	add    BYTE PTR [ebx-0x1374aa01],cl
  4cd68d:	sub    esp,0x34
  4cd690:	lea    ecx,[esi+0xec]
  4cd696:	cmp    ecx,0x4d0d
  4cd69c:	jb     0x4cd68b
  4cd69e:	push   ecx
  4cd69f:	push   esi
  4cd6a0:	push   esi
  4cd6a1:	call   0x4cdb84
  4cd6a6:	add    esp,0x8
  4cd6a9:	pop    ecx
  4cd6aa:	push   ecx
  4cd6ab:	mov    edi,0x0
  4cd6b0:	push   edi
  4cd6b1:	call   0x4cdbc8
  4cd6b6:	pop    ecx
  4cd6b7:	push   ecx
  4cd6b8:	mov    edx,0x0
  4cd6bd:	push   edx
  4cd6be:	call   0x4ce068
  4cd6c3:	pop    ecx
  4cd6c4:	add    esp,0x34
  4cd6c7:	pop    ebp
  4cd6c8:	ret    
  4cd6c9:	add    BYTE PTR [eax],al
  4cd6cb:	add    BYTE PTR [ebx-0x1374aa01],cl
  4cd6d1:	sub    esp,0x48
  4cd6d4:	mov    edx,0x4d01a8
  4cd6d9:	sub    eax,ecx
  4cd6db:	push   edx
  4cd6dc:	push   DWORD PTR [edx+0x1dc]
  4cd6e2:	push   DWORD PTR [edx+0x94]
  4cd6e8:	push   esi
  4cd6e9:	push   ebx
  4cd6ea:	call   0x4cd70c
  4cd6ef:	add    esp,0x10
  4cd6f2:	pop    edx
  4cd6f3:	push   edx
  4cd6f4:	mov    edi,0x0
  4cd6f9:	push   edi
  4cd6fa:	call   0x4cdbb8
  4cd6ff:	pop    edx
  4cd700:	push   edx
  4cd701:	call   0x4cd5fc
  4cd706:	pop    edx
  4cd707:	add    esp,0x48
  4cd70a:	pop    ebp
  4cd70b:	ret    
  4cd70c:	mov    edi,edi
  4cd70e:	push   ebp
  4cd70f:	mov    ebp,esp
  4cd711:	sub    esp,0x44
  4cd714:	mov    esi,0x4d00b0
  4cd719:	add    DWORD PTR [ebp-0xc],edi
  4cd71c:	push   esi
  4cd71d:	push   DWORD PTR [esi+0xe8]
  4cd723:	push   edx
  4cd724:	push   eax
  4cd725:	call   0x4cd4e0
  4cd72a:	add    esp,0xc
  4cd72d:	pop    esi
  4cd72e:	mov    ebx,0x0
  4cd733:	push   ebx
  4cd734:	call   0x4cd1ec
  4cd739:	mov    edi,0x0
  4cd73e:	push   edi
  4cd73f:	call   0x4cdbb8
  4cd744:	add    esp,0x44
  4cd747:	pop    ebp
  4cd748:	ret    
  4cd749:	add    BYTE PTR [eax],al
  4cd74b:	add    BYTE PTR [ebx-0x1374aa01],cl
  4cd751:	sub    esp,0x2c
  4cd754:	mov    ebx,0x4d00dc
  4cd759:	cmp    ebx,0x653e
  4cd75f:	jb     0x4cd74f
  4cd761:	push   0x0
  4cd763:	call   0x4ce068
  4cd768:	push   ebx
  4cd769:	push   DWORD PTR [ebx+0x1f0]
  4cd76f:	push   DWORD PTR [ebx+0xc0]
  4cd775:	push   DWORD PTR [ebx+0xd0]
  4cd77b:	push   DWORD PTR [ebx+0x94]
  4cd781:	call   0x4cd82c
  4cd786:	add    esp,0x10
  4cd789:	pop    ebx
  4cd78a:	mov    edi,0x0
  4cd78f:	push   edi
  4cd790:	call   0x4cdbc8
  4cd795:	add    esp,0x2c
  4cd798:	pop    ebp
  4cd799:	ret    
  4cd79a:	add    BYTE PTR [eax],al
  4cd79c:	pop    edi
  4cd79d:	xor    eax,eax
  4cd79f:	call   DWORD PTR [eax*8+0x4cf734]
  4cd7a6:	push   edi
  4cd7a7:	pop    edi
  4cd7a8:	jmp    DWORD PTR [esp-0x4]
  4cd7ac:	pop    edi
  4cd7ad:	xor    eax,eax
  4cd7af:	call   DWORD PTR [eax*8+0x4cf760]
  4cd7b6:	push   edi
  4cd7b7:	pop    edi
  4cd7b8:	jmp    DWORD PTR [esp-0x4]
  4cd7bc:	mov    edi,edi
  4cd7be:	push   ebp
  4cd7bf:	mov    ebp,esp
  4cd7c1:	sub    esp,0x5c
  4cd7c4:	lea    esi,ds:0x4d00d4
  4cd7ca:	add    edi,DWORD PTR [ebp-0x1c]
  4cd7cd:	push   0x0
  4cd7cf:	call   0x4cdb54
  4cd7d4:	push   esi
  4cd7d5:	push   DWORD PTR [esi+0x84]
  4cd7db:	push   DWORD PTR [esi+0x12c]
  4cd7e1:	push   DWORD PTR [esi+0x38]
  4cd7e4:	call   0x4cd74c
  4cd7e9:	add    esp,0xc
  4cd7ec:	pop    esi
  4cd7ed:	push   0x0
  4cd7ef:	call   0x4ce068
  4cd7f4:	add    esp,0x5c
  4cd7f7:	pop    ebp
  4cd7f8:	ret    
  4cd7f9:	add    BYTE PTR [eax],al
  4cd7fb:	add    BYTE PTR [ebx-0x1374aa01],cl
  4cd801:	sub    esp,0x2c
  4cd804:	lea    ebx,[eax+0x9c]
  4cd80a:	add    esi,DWORD PTR [ebp-0xc]
  4cd80d:	call   0x4cd5fc
  4cd812:	push   ebx
  4cd813:	push   edx
  4cd814:	push   DWORD PTR [ebx+0x38]
  4cd817:	call   0x4cd29c
  4cd81c:	add    esp,0x8
  4cd81f:	pop    ebx
  4cd820:	call   0x4cd5fc
  4cd825:	add    esp,0x2c
  4cd828:	pop    ebp
  4cd829:	ret    
  4cd82a:	add    BYTE PTR [eax],al
  4cd82c:	mov    edi,edi
  4cd82e:	push   ebp
  4cd82f:	mov    ebp,esp
  4cd831:	sub    esp,0x4c
  4cd834:	mov    edi,0x4d0100
  4cd839:	and    eax,DWORD PTR [ebp-0x1c]
  4cd83c:	push   edi
  4cd83d:	push   DWORD PTR [edi+0x174]
  4cd843:	push   DWORD PTR [edi+0x180]
  4cd849:	push   eax
  4cd84a:	push   DWORD PTR [edi+0x90]
  4cd850:	call   0x4cd03c
  4cd855:	add    esp,0x10
  4cd858:	pop    edi
  4cd859:	push   edi
  4cd85a:	mov    esi,0x0
  4cd85f:	push   esi
  4cd860:	call   0x4cdb64
  4cd865:	pop    edi
  4cd866:	push   edi
  4cd867:	lea    edi,[edi-0x100]
  4cd86d:	push   edi
  4cd86e:	call   0x4cd2e0
  4cd873:	test   eax,eax
  4cd875:	jne    0x4cd867
  4cd877:	pop    edi
  4cd878:	add    esp,0x4c
  4cd87b:	pop    ebp
  4cd87c:	ret    
  4cd87d:	add    BYTE PTR [eax],al
  4cd87f:	add    BYTE PTR [edi+0x33],bl
  4cd882:	sar    bh,0x14
  4cd885:	lds    edi,FWORD PTR [eax-0x9]
  4cd888:	dec    esp
  4cd889:	add    BYTE PTR [edi+0x5f],dl
  4cd88c:	jmp    DWORD PTR [esp-0x4]
  4cd890:	mov    edi,edi
  4cd892:	push   ebp
  4cd893:	mov    ebp,esp
  4cd895:	sub    esp,0x60
  4cd898:	lea    edx,ds:0x4d008c
  4cd89e:	adc    DWORD PTR [ebp-0x24],0xffffffc6
  4cd8a2:	push   edx
  4cd8a3:	push   esi
  4cd8a4:	push   ebx
  4cd8a5:	call   0x4cdd24
  4cd8aa:	add    esp,0x8
  4cd8ad:	pop    edx
  4cd8ae:	push   edx
  4cd8af:	call   0x4cd28c
  4cd8b4:	pop    edx
  4cd8b5:	push   edx
  4cd8b6:	mov    ebx,0x0
  4cd8bb:	push   ebx
  4cd8bc:	call   0x4ce068
  4cd8c1:	pop    edx
  4cd8c2:	add    esp,0x60
  4cd8c5:	pop    ebp
  4cd8c6:	ret    
  4cd8c7:	add    BYTE PTR [edi+0x33],bl
  4cd8ca:	sar    bh,0x14
  4cd8cd:	lds    eax,FWORD PTR [eax]
  4cd8cf:	test   DWORD PTR [eax+eax*1+0x57],0x2464ff5f
  4cd8d7:	cld    
  4cd8d8:	pop    edi
  4cd8d9:	xor    eax,eax
  4cd8db:	call   DWORD PTR [eax*8+0x4cf6ec]
  4cd8e2:	push   edi
  4cd8e3:	pop    edi
  4cd8e4:	jmp    DWORD PTR [esp-0x4]
  4cd8e8:	mov    edi,edi
  4cd8ea:	push   ebp
  4cd8eb:	mov    ebp,esp
  4cd8ed:	sub    esp,0x3c
  4cd8f0:	lea    esi,[ebx-0x40]
  4cd8f3:	or     edi,0xffffff9a
  4cd8f6:	push   esi
  4cd8f7:	push   eax
  4cd8f8:	push   ebx
  4cd8f9:	push   DWORD PTR [esi+0x118]
  4cd8ff:	push   DWORD PTR [esi+0xac]
  4cd905:	call   0x4cdda4
  4cd90a:	add    esp,0x10
  4cd90d:	pop    esi
  4cd90e:	mov    edx,0x0
  4cd913:	push   edx
  4cd914:	call   0x4cd1ec
  4cd919:	mov    eax,0x0
  4cd91e:	push   eax
  4cd91f:	call   0x4cdbc8
  4cd924:	add    esp,0x3c
  4cd927:	pop    ebp
  4cd928:	ret    
  4cd929:	add    BYTE PTR [eax],al
  4cd92b:	add    BYTE PTR [ebx-0x1374aa01],cl
  4cd931:	sub    esp,0x54
  4cd934:	lea    ebx,[edx+0x94]
  4cd93a:	mov    DWORD PTR [ebp-0x48],edx
  4cd93d:	mov    esi,0x0
  4cd942:	push   esi
  4cd943:	call   0x4cd8d8
  4cd948:	push   ebx
  4cd949:	push   DWORD PTR [ebx+0x1a4]
  4cd94f:	push   DWORD PTR [ebx+0x50]
  4cd952:	push   DWORD PTR [ebx+0xc0]
  4cd958:	push   DWORD PTR [ebx+0x30]
  4cd95b:	call   0x4cd60c
  4cd960:	add    esp,0x10
  4cd963:	pop    ebx
  4cd964:	push   0x0
  4cd966:	call   0x4cdb74
  4cd96b:	add    esp,0x54
  4cd96e:	pop    ebp
  4cd96f:	ret    
  4cd970:	pop    edi
  4cd971:	xor    eax,eax
  4cd973:	call   DWORD PTR [eax*8+0x4cf710]
  4cd97a:	push   edi
  4cd97b:	pop    edi
  4cd97c:	jmp    DWORD PTR [esp-0x4]
  4cd980:	pop    edi
  4cd981:	xor    eax,eax
  4cd983:	call   DWORD PTR [eax*8+0x4cf76c]
  4cd98a:	push   edi
  4cd98b:	pop    edi
  4cd98c:	jmp    DWORD PTR [esp-0x4]
  4cd990:	mov    edi,edi
  4cd992:	push   ebp
  4cd993:	mov    ebp,esp
  4cd995:	sub    esp,0x58
  4cd998:	mov    eax,0x4d00f8
  4cd99d:	add    ebx,0xffffffd7
  4cd9a0:	push   eax
  4cd9a1:	push   0x0
  4cd9a3:	call   0x4cd8d8
  4cd9a8:	pop    eax
  4cd9a9:	push   eax
  4cd9aa:	push   edi
  4cd9ab:	push   DWORD PTR [eax+0xf4]
  4cd9b1:	push   edx
  4cd9b2:	call   0x4cd234
  4cd9b7:	add    esp,0xc
  4cd9ba:	pop    eax
  4cd9bb:	push   eax
  4cd9bc:	mov    ebx,0x0
  4cd9c1:	push   ebx
  4cd9c2:	call   0x4cdb74
  4cd9c7:	pop    eax
  4cd9c8:	add    esp,0x58
  4cd9cb:	pop    ebp
  4cd9cc:	ret    
  4cd9cd:	add    BYTE PTR [eax],al
  4cd9cf:	add    BYTE PTR [edi+0x33],bl
  4cd9d2:	sar    bh,0x14
  4cd9d5:	lds    eax,FWORD PTR [eax+0x57004cf7]
  4cd9db:	pop    edi
  4cd9dc:	jmp    DWORD PTR [esp-0x4]
  4cd9e0:	mov    edi,edi
  4cd9e2:	push   ebp
  4cd9e3:	mov    ebp,esp
  4cd9e5:	sub    esp,0x58
  4cd9e8:	lea    ecx,ds:0x4d0000
  4cd9ee:	add    DWORD PTR [ecx+0xbc],esi
  4cd9f4:	push   ecx
  4cd9f5:	push   DWORD PTR [ecx+0xe4]
  4cd9fb:	push   edi
  4cd9fc:	push   DWORD PTR [ecx+0x8c]
  4cda02:	call   0x4cd990
  4cda07:	add    esp,0xc
  4cda0a:	pop    ecx
  4cda0b:	push   ecx
  4cda0c:	mov    ebx,0x0
  4cda11:	push   ebx
  4cda12:	call   0x4ce068
  4cda17:	pop    ecx
  4cda18:	push   ecx
  4cda19:	call   0x4cd28c
  4cda1e:	pop    ecx
  4cda1f:	add    esp,0x58
  4cda22:	pop    ebp
  4cda23:	ret    
  4cda24:	mov    edi,edi
  4cda26:	push   ebp
  4cda27:	mov    ebp,esp
  4cda29:	sub    esp,0x54
  4cda2c:	mov    eax,0x4d0074
  4cda31:	adc    esi,DWORD PTR [ebp-0x34]
  4cda34:	push   eax
  4cda35:	push   edi
  4cda36:	push   edx
  4cda37:	push   edi
  4cda38:	push   DWORD PTR [eax]
  4cda3a:	call   0x4cd7fc
  4cda3f:	add    esp,0x10
  4cda42:	pop    eax
  4cda43:	push   eax
  4cda44:	mov    eax,0x0
  4cda49:	push   eax
  4cda4a:	call   0x4cdb74
  4cda4f:	pop    eax
  4cda50:	push   eax
  4cda51:	mov    ecx,0x0
  4cda56:	push   ecx
  4cda57:	call   0x4cdb64
  4cda5c:	pop    eax
  4cda5d:	add    esp,0x54
  4cda60:	pop    ebp
  4cda61:	ret    
  4cda62:	add    BYTE PTR [eax],al
  4cda64:	mov    edi,edi
  4cda66:	push   ebp
  4cda67:	mov    ebp,esp
  4cda69:	sub    esp,0x48
  4cda6c:	lea    ebx,[esi+0xe4]
  4cda72:	sub    edx,DWORD PTR [ebp-0x2c]
  4cda75:	push   0x0
  4cda77:	call   0x4cd8d8
  4cda7c:	push   ebx
  4cda7d:	push   DWORD PTR [ebx+0x1f0]
  4cda83:	push   DWORD PTR [ebx+0x1dc]
  4cda89:	call   0x4cd8e8
  4cda8e:	add    esp,0x8
  4cda91:	pop    ebx
  4cda92:	call   0x4cd970
  4cda97:	add    esp,0x48
  4cda9a:	pop    ebp
  4cda9b:	ret    
  4cda9c:	mov    edi,edi
  4cda9e:	push   ebp
  4cda9f:	mov    ebp,esp
  4cdaa1:	sub    esp,0x30
  4cdaa4:	lea    edi,ds:0x4d019c
  4cdaaa:	and    ecx,DWORD PTR [edi-0x120]
  4cdab0:	push   edi
  4cdab1:	call   0x4cd970
  4cdab6:	pop    edi
  4cdab7:	push   edi
  4cdab8:	push   eax
  4cdab9:	push   eax
  4cdaba:	push   esi
  4cdabb:	push   eax
  4cdabc:	call   0x4cd5c0
  4cdac1:	add    esp,0x10
  4cdac4:	pop    edi
  4cdac5:	push   edi
  4cdac6:	push   0x0
  4cdac8:	call   0x4cdb74
  4cdacd:	pop    edi
  4cdace:	add    esp,0x30
  4cdad1:	pop    ebp
  4cdad2:	ret    
  4cdad3:	add    BYTE PTR [ebx-0x1374aa01],cl
  4cdad9:	sub    esp,0x5c
  4cdadc:	lea    eax,ds:0x4d01b0
  4cdae2:	cmp    eax,0x6943
  4cdae7:	jbe    0x4cdad7
  4cdae9:	push   eax
  4cdaea:	push   0x0
  4cdaec:	call   0x4cde78
  4cdaf1:	pop    eax
  4cdaf2:	push   eax
  4cdaf3:	push   edi
  4cdaf4:	push   ebx
  4cdaf5:	call   0x4cd46c
  4cdafa:	add    esp,0x8
  4cdafd:	pop    eax
  4cdafe:	push   eax
  4cdaff:	call   0x4cd5fc
  4cdb04:	pop    eax
  4cdb05:	add    esp,0x5c
  4cdb08:	pop    ebp
  4cdb09:	ret    
  4cdb0a:	add    BYTE PTR [eax],al
  4cdb0c:	mov    edi,edi
  4cdb0e:	push   ebp
  4cdb0f:	mov    ebp,esp
  4cdb11:	sub    esp,0x20
  4cdb14:	lea    edi,[ebx+0x150]
  4cdb1a:	sub    esi,DWORD PTR [ebp-0x14]
  4cdb1d:	push   edi
  4cdb1e:	push   DWORD PTR [edi+0x19c]
  4cdb24:	push   ebx
  4cdb25:	push   DWORD PTR [edi+0x124]
  4cdb2b:	push   DWORD PTR [edi+0x74]
  4cdb2e:	call   0x4cda24
  4cdb33:	add    esp,0x10
  4cdb36:	pop    edi
  4cdb37:	push   edi
  4cdb38:	push   0x0
  4cdb3a:	call   0x4cdbc8
  4cdb3f:	pop    edi
  4cdb40:	push   edi
  4cdb41:	mov    ebx,0x0
  4cdb46:	push   ebx
  4cdb47:	call   0x4cdb64
  4cdb4c:	pop    edi
  4cdb4d:	add    esp,0x20
  4cdb50:	pop    ebp
  4cdb51:	ret    
  4cdb52:	add    BYTE PTR [eax],al
  4cdb54:	pop    edi
  4cdb55:	xor    eax,eax
  4cdb57:	call   DWORD PTR [eax*8+0x4cf748]
  4cdb5e:	push   edi
  4cdb5f:	pop    edi
  4cdb60:	jmp    DWORD PTR [esp-0x4]
  4cdb64:	pop    edi
  4cdb65:	xor    eax,eax
  4cdb67:	call   DWORD PTR [eax*8+0x4cf6f0]
  4cdb6e:	push   edi
  4cdb6f:	pop    edi
  4cdb70:	jmp    DWORD PTR [esp-0x4]
  4cdb74:	pop    edi
  4cdb75:	xor    eax,eax
  4cdb77:	call   DWORD PTR [eax*8+0x4cf708]
  4cdb7e:	push   edi
  4cdb7f:	pop    edi
  4cdb80:	jmp    DWORD PTR [esp-0x4]
  4cdb84:	mov    edi,edi
  4cdb86:	push   ebp
  4cdb87:	mov    ebp,esp
  4cdb89:	sub    esp,0x5c
  4cdb8c:	lea    esi,[ecx+0x2c]
  4cdb8f:	xor    edi,DWORD PTR [ebp-0x3c]
  4cdb92:	push   esi
  4cdb93:	push   DWORD PTR [esi+0xc]
  4cdb96:	push   DWORD PTR [esi+0x1a4]
  4cdb9c:	call   0x4cded4
  4cdba1:	add    esp,0x8
  4cdba4:	pop    esi
  4cdba5:	push   0x0
  4cdba7:	call   0x4cdb64
  4cdbac:	push   0x0
  4cdbae:	call   0x4cdb74
  4cdbb3:	add    esp,0x5c
  4cdbb6:	pop    ebp
  4cdbb7:	ret    
  4cdbb8:	pop    edi
  4cdbb9:	xor    eax,eax
  4cdbbb:	call   DWORD PTR [eax*8+0x4cf768]
  4cdbc2:	push   edi
  4cdbc3:	pop    edi
  4cdbc4:	jmp    DWORD PTR [esp-0x4]
  4cdbc8:	pop    edi
  4cdbc9:	xor    eax,eax
  4cdbcb:	call   DWORD PTR [eax*8+0x4cf758]
  4cdbd2:	push   edi
  4cdbd3:	pop    edi
  4cdbd4:	jmp    DWORD PTR [esp-0x4]
  4cdbd8:	mov    edi,edi
  4cdbda:	push   ebp
  4cdbdb:	mov    ebp,esp
  4cdbdd:	sub    esp,0x30
  4cdbe0:	lea    eax,ds:0x4d0060
  4cdbe6:	sub    DWORD PTR [eax+0x88],esi
  4cdbec:	push   eax
  4cdbed:	mov    ecx,0x0
  4cdbf2:	push   ecx
  4cdbf3:	call   0x4cdb64
  4cdbf8:	pop    eax
  4cdbf9:	push   eax
  4cdbfa:	push   edx
  4cdbfb:	push   DWORD PTR [eax+0x1d4]
  4cdc01:	push   esi
  4cdc02:	push   edi
  4cdc03:	call   0x4cd38c
  4cdc08:	add    esp,0x10
  4cdc0b:	pop    eax
  4cdc0c:	push   eax
  4cdc0d:	call   0x4cd79c
  4cdc12:	pop    eax
  4cdc13:	add    esp,0x30
  4cdc16:	pop    ebp
  4cdc17:	ret    
  4cdc18:	pop    edi
  4cdc19:	xor    eax,eax
  4cdc1b:	call   DWORD PTR [eax*8+0x4cf6fc]
  4cdc22:	push   edi
  4cdc23:	pop    edi
  4cdc24:	jmp    DWORD PTR [esp-0x4]
  4cdc28:	mov    edi,edi
  4cdc2a:	push   ebp
  4cdc2b:	mov    ebp,esp
  4cdc2d:	sub    esp,0x40
  4cdc30:	mov    ecx,0x4d00a4
  4cdc35:	xor    eax,edx
  4cdc37:	push   ecx
  4cdc38:	push   DWORD PTR [ecx+0x184]
  4cdc3e:	push   DWORD PTR [ecx+0xa8]
  4cdc44:	call   0x4ce014
  4cdc49:	add    esp,0x8
  4cdc4c:	pop    ecx
  4cdc4d:	push   ecx
  4cdc4e:	push   0x0
  4cdc50:	call   0x4cdbb8
  4cdc55:	pop    ecx
  4cdc56:	push   ecx
  4cdc57:	call   0x4cd79c
  4cdc5c:	pop    ecx
  4cdc5d:	add    esp,0x40
  4cdc60:	pop    ebp
  4cdc61:	ret    
  4cdc62:	add    BYTE PTR [eax],al
  4cdc64:	mov    edi,edi
  4cdc66:	push   ebp
  4cdc67:	mov    ebp,esp
  4cdc69:	sub    esp,0x30
  4cdc6c:	lea    ebx,ds:0x4d0058
  4cdc72:	xor    DWORD PTR [ebx+0xa8],edi
  4cdc78:	mov    edi,0x0
  4cdc7d:	push   edi
  4cdc7e:	call   0x4ce068
  4cdc83:	push   ebx
  4cdc84:	push   ecx
  4cdc85:	push   ecx
  4cdc86:	push   esi
  4cdc87:	call   0x4cdb0c
  4cdc8c:	add    esp,0xc
  4cdc8f:	pop    ebx
  4cdc90:	call   0x4cd5fc
  4cdc95:	add    esp,0x30
  4cdc98:	pop    ebp
  4cdc99:	ret    
  4cdc9a:	add    BYTE PTR [eax],al
  4cdc9c:	pop    edi
  4cdc9d:	xor    eax,eax
  4cdc9f:	call   DWORD PTR [eax*8+0x4cf704]
  4cdca6:	push   edi
  4cdca7:	pop    edi
  4cdca8:	jmp    DWORD PTR [esp-0x4]
  4cdcac:	mov    edi,edi
  4cdcae:	push   ebp
  4cdcaf:	mov    ebp,esp
  4cdcb1:	sub    esp,0x30
  4cdcb4:	lea    edi,[ebx-0x1bc]
  4cdcba:	and    ebx,DWORD PTR [ebp-0x20]
  4cdcbd:	push   edi
  4cdcbe:	push   ecx
  4cdcbf:	push   ecx
  4cdcc0:	push   esi
  4cdcc1:	call   0x4cd6cc
  4cdcc6:	add    esp,0xc
  4cdcc9:	pop    edi
  4cdcca:	push   edi
  4cdccb:	mov    esi,0x0
  4cdcd0:	push   esi
  4cdcd1:	call   0x4cdb74
  4cdcd6:	pop    edi
  4cdcd7:	push   edi
  4cdcd8:	push   0x0
  4cdcda:	call   0x4cdb64
  4cdcdf:	pop    edi
  4cdce0:	add    esp,0x30
  4cdce3:	pop    ebp
  4cdce4:	ret    
  4cdce5:	add    BYTE PTR [eax],al
  4cdce7:	add    BYTE PTR [ebx-0x1374aa01],cl
  4cdced:	sub    esp,0x2c
  4cdcf0:	mov    edx,0x4d00e4
  4cdcf5:	add    ebx,0xffffffbd
  4cdcf8:	push   edx
  4cdcf9:	mov    ebx,0x0
  4cdcfe:	push   ebx
  4cdcff:	call   0x4cd8d8
  4cdd04:	pop    edx
  4cdd05:	push   edx
  4cdd06:	push   ecx
  4cdd07:	push   ebx
  4cdd08:	push   DWORD PTR [edx+0x16c]
  4cdd0e:	call   0x4cdd68
  4cdd13:	add    esp,0xc
  4cdd16:	pop    edx
  4cdd17:	push   edx
  4cdd18:	call   0x4cd28c
  4cdd1d:	pop    edx
  4cdd1e:	add    esp,0x2c
  4cdd21:	pop    ebp
  4cdd22:	ret    
  4cdd23:	add    BYTE PTR [ebx-0x1374aa01],cl
  4cdd29:	sub    esp,0x4c
  4cdd2c:	lea    eax,[edx+0x1c]
  4cdd2f:	xor    DWORD PTR [ebp-0x40],0x16c8
  4cdd36:	push   eax
  4cdd37:	call   0x4cd28c
  4cdd3c:	pop    eax
  4cdd3d:	push   eax
  4cdd3e:	push   DWORD PTR [eax+0x1b4]
  4cdd44:	push   ebx
  4cdd45:	push   DWORD PTR [eax+0xbc]
  4cdd4b:	push   DWORD PTR [eax+0x134]
  4cdd51:	call   0x4cde38
  4cdd56:	add    esp,0x10
  4cdd59:	pop    eax
  4cdd5a:	push   eax
  4cdd5b:	push   0x0
  4cdd5d:	call   0x4cd8d8
  4cdd62:	pop    eax
  4cdd63:	add    esp,0x4c
  4cdd66:	pop    ebp
  4cdd67:	ret    
  4cdd68:	mov    edi,edi
  4cdd6a:	push   ebp
  4cdd6b:	mov    ebp,esp
  4cdd6d:	sub    esp,0x48
  4cdd70:	lea    esi,ds:0x4d0010
  4cdd76:	xor    DWORD PTR [ebp-0x2c],0xfffff331
  4cdd7d:	push   esi
  4cdd7e:	push   DWORD PTR [esi+0x14c]
  4cdd84:	push   DWORD PTR [esi+0xb0]
  4cdd8a:	push   eax
  4cdd8b:	push   edi
  4cdd8c:	call   0x4cdfd4
  4cdd91:	add    esp,0x10
  4cdd94:	pop    esi
  4cdd95:	call   0x4cd970
  4cdd9a:	call   0x4cd970
  4cdd9f:	add    esp,0x48
  4cdda2:	pop    ebp
  4cdda3:	ret    
  4cdda4:	mov    edi,edi
  4cdda6:	push   ebp
  4cdda7:	mov    ebp,esp
  4cdda9:	sub    esp,0x3c
  4cddac:	lea    ecx,ds:0x4d01e0
  4cddb2:	cmp    ecx,0x4d5
  4cddb8:	jb     0x4cdda7
  4cddba:	push   ecx
  4cddbb:	call   0x4cd79c
  4cddc0:	pop    ecx
  4cddc1:	push   ecx
  4cddc2:	push   DWORD PTR [ecx+0x124]
  4cddc8:	push   edi
  4cddc9:	push   DWORD PTR [ecx+0x5c]
  4cddcc:	call   0x4cdbd8
  4cddd1:	add    esp,0xc
  4cddd4:	pop    ecx
  4cddd5:	push   ecx
  4cddd6:	push   0x0
  4cddd8:	call   0x4cdb64
  4cdddd:	pop    ecx
  4cddde:	add    esp,0x3c
  4cdde1:	pop    ebp
  4cdde2:	ret    
  4cdde3:	add    BYTE PTR [edi+0x33],bl
  4cdde6:	sar    bh,0x14
  4cdde9:	(bad)  
  4cddec:	dec    esp
  4cdded:	add    BYTE PTR [edi+0x5f],dl
  4cddf0:	jmp    DWORD PTR [esp-0x4]
  4cddf4:	mov    edi,edi
  4cddf6:	push   ebp
  4cddf7:	mov    ebp,esp
  4cddf9:	sub    esp,0x24
  4cddfc:	lea    ecx,ds:0x4d00c4
  4cde02:	sbb    ebx,edi
  4cde04:	push   ecx
  4cde05:	mov    edx,0x0
  4cde0a:	push   edx
  4cde0b:	call   0x4cdbb8
  4cde10:	pop    ecx
  4cde11:	push   ecx
  4cde12:	push   DWORD PTR [ecx+0x6c]
  4cde15:	push   eax
  4cde16:	push   eax
  4cde17:	call   0x4cd174
  4cde1c:	add    esp,0xc
  4cde1f:	pop    ecx
  4cde20:	push   ecx
  4cde21:	lea    ecx,[ecx-0xc4]
  4cde27:	push   ecx
  4cde28:	call   0x4cd2e0
  4cde2d:	test   eax,eax
  4cde2f:	jne    0x4cde21
  4cde31:	pop    ecx
  4cde32:	add    esp,0x24
  4cde35:	pop    ebp
  4cde36:	ret    
  4cde37:	add    BYTE PTR [ebx-0x1374aa01],cl
  4cde3d:	sub    esp,0x34
  4cde40:	lea    edx,[eax+0x10]
  4cde43:	and    ebx,0xffffe011
  4cde49:	push   edx
  4cde4a:	push   0x0
  4cde4c:	call   0x4cde78
  4cde51:	pop    edx
  4cde52:	push   edx
  4cde53:	push   DWORD PTR [edx+0x1f4]
  4cde59:	push   DWORD PTR [edx+0x1a0]
  4cde5f:	push   eax
  4cde60:	push   edi
  4cde61:	call   0x4cdc64
  4cde66:	add    esp,0x10
  4cde69:	pop    edx
  4cde6a:	push   edx
  4cde6b:	push   0x0
  4cde6d:	call   0x4cdb64
  4cde72:	pop    edx
  4cde73:	add    esp,0x34
  4cde76:	pop    ebp
  4cde77:	ret    
  4cde78:	pop    edi
  4cde79:	xor    eax,eax
  4cde7b:	call   DWORD PTR [eax*8+0x4cf70c]
  4cde82:	push   edi
  4cde83:	pop    edi
  4cde84:	jmp    DWORD PTR [esp-0x4]
  4cde88:	mov    edi,edi
  4cde8a:	push   ebp
  4cde8b:	mov    ebp,esp
  4cde8d:	sub    esp,0x24
  4cde90:	lea    ebx,[esi+0x1e4]
  4cde96:	and    DWORD PTR [ebx-0x74],0xfffffff4
  4cde9a:	mov    edi,0x0
  4cde9f:	push   edi
  4cdea0:	call   0x4cdb54
  4cdea5:	push   ebx
  4cdea6:	push   DWORD PTR [ebx+0x1c8]
  4cdeac:	push   ecx
  4cdead:	push   DWORD PTR [ebx+0x34]
  4cdeb0:	call   0x4cd890
  4cdeb5:	add    esp,0xc
  4cdeb8:	pop    ebx
  4cdeb9:	call   0x4cd28c
  4cdebe:	add    esp,0x24
  4cdec1:	pop    ebp
  4cdec2:	ret    
  4cdec3:	add    BYTE PTR [edi+0x33],bl
  4cdec6:	sar    bh,0x14
  4cdec9:	lds    ecx,FWORD PTR [eax+0x57004cf7]
  4cdecf:	pop    edi
  4cded0:	jmp    DWORD PTR [esp-0x4]
  4cded4:	mov    edi,edi
  4cded6:	push   ebp
  4cded7:	mov    ebp,esp
  4cded9:	sub    esp,0x40
  4cdedc:	lea    edi,[esi-0x68]
  4cdedf:	add    eax,0x4a12
  4cdee4:	push   edi
  4cdee5:	push   eax
  4cdee6:	push   edx
  4cdee7:	push   ecx
  4cdee8:	push   DWORD PTR [edi+0x98]
  4cdeee:	call   0x4cd64c
  4cdef3:	add    esp,0x10
  4cdef6:	pop    edi
  4cdef7:	push   edi
  4cdef8:	push   0x0
  4cdefa:	call   0x4cdb54
  4cdeff:	pop    edi
  4cdf00:	push   edi
  4cdf01:	call   0x4cd5fc
  4cdf06:	pop    edi
  4cdf07:	add    esp,0x40
  4cdf0a:	pop    ebp
  4cdf0b:	ret    
  4cdf0c:	pop    edi
  4cdf0d:	xor    eax,eax
  4cdf0f:	call   DWORD PTR [eax*8+0x4cf730]
  4cdf16:	push   edi
  4cdf17:	pop    edi
  4cdf18:	jmp    DWORD PTR [esp-0x4]
  4cdf1c:	mov    edi,edi
  4cdf1e:	push   ebp
  4cdf1f:	mov    ebp,esp
  4cdf21:	sub    esp,0x24
  4cdf24:	mov    edi,0x4d012c
  4cdf29:	mov    edx,DWORD PTR [ebp-0x24]
  4cdf2c:	push   edi
  4cdf2d:	push   esi
  4cdf2e:	push   DWORD PTR [edi+0x14c]
  4cdf34:	push   ebx
  4cdf35:	push   DWORD PTR [edi+0x14]
  4cdf38:	call   0x4cd7bc
  4cdf3d:	add    esp,0x10
  4cdf40:	pop    edi
  4cdf41:	push   edi
  4cdf42:	lea    eax,[edi-0x12c]
  4cdf48:	push   eax
  4cdf49:	call   0x4cd2e0
  4cdf4e:	test   eax,eax
  4cdf50:	jne    0x4cdf42
  4cdf52:	pop    edi
  4cdf53:	push   edi
  4cdf54:	call   0x4cd5fc
  4cdf59:	pop    edi
  4cdf5a:	add    esp,0x24
  4cdf5d:	pop    ebp
  4cdf5e:	ret    
  4cdf5f:	add    BYTE PTR [edi+0x33],bl
  4cdf62:	sar    bh,0x14
  4cdf65:	lds    eax,FWORD PTR [eax-0x9]
  4cdf68:	dec    esp
  4cdf69:	add    BYTE PTR [edi+0x5f],dl
  4cdf6c:	jmp    DWORD PTR [esp-0x4]
  4cdf70:	pop    edi
  4cdf71:	xor    eax,eax
  4cdf73:	call   DWORD PTR [eax*8+0x4cf77c]
  4cdf7a:	push   edi
  4cdf7b:	pop    edi
  4cdf7c:	jmp    DWORD PTR [esp-0x4]
  4cdf80:	pop    edi
  4cdf81:	xor    eax,eax
  4cdf83:	call   DWORD PTR [eax*8+0x4cf724]
  4cdf8a:	push   edi
  4cdf8b:	pop    edi
  4cdf8c:	jmp    DWORD PTR [esp-0x4]
  4cdf90:	mov    edi,edi
  4cdf92:	push   ebp
  4cdf93:	mov    ebp,esp
  4cdf95:	sub    esp,0x34
  4cdf98:	lea    ebx,ds:0x4d01f4
  4cdf9e:	adc    eax,DWORD PTR [ebx-0x54]
  4cdfa1:	push   ebx
  4cdfa2:	push   DWORD PTR [ebx+0x1a0]
  4cdfa8:	push   DWORD PTR [ebx+0xa8]
  4cdfae:	push   DWORD PTR [ebx+0x158]
  4cdfb4:	push   DWORD PTR [ebx+0x4]
  4cdfb7:	call   0x4cdcac
  4cdfbc:	add    esp,0x10
  4cdfbf:	pop    ebx
  4cdfc0:	push   0x0
  4cdfc2:	call   0x4cd8d8
  4cdfc7:	call   0x4cd5fc
  4cdfcc:	add    esp,0x34
  4cdfcf:	pop    ebp
  4cdfd0:	ret    
  4cdfd1:	add    BYTE PTR [eax],al
  4cdfd3:	add    BYTE PTR [ebx-0x1374aa01],cl
  4cdfd9:	sub    esp,0x58
  4cdfdc:	lea    eax,ds:0x4d00b4
  4cdfe2:	and    DWORD PTR [eax+0x7c],0x7b
  4cdfe6:	push   eax
  4cdfe7:	push   DWORD PTR [eax+0x14]
  4cdfea:	push   ebx
  4cdfeb:	call   0x4cdc28
  4cdff0:	add    esp,0x8
  4cdff3:	pop    eax
  4cdff4:	push   eax
  4cdff5:	mov    edi,0x0
  4cdffa:	push   edi
  4cdffb:	call   0x4cdb64
  4ce000:	pop    eax
  4ce001:	push   eax
  4ce002:	mov    ecx,0x0
  4ce007:	push   ecx
  4ce008:	call   0x4cdbc8
  4ce00d:	pop    eax
  4ce00e:	add    esp,0x58
  4ce011:	pop    ebp
  4ce012:	ret    
  4ce013:	add    BYTE PTR [ebx-0x1374aa01],cl
  4ce019:	sub    esp,0x40
  4ce01c:	mov    esi,0x4d0090
  4ce021:	and    eax,esi
  4ce023:	push   esi
  4ce024:	push   ebx
  4ce025:	push   DWORD PTR [esi+0x20]
  4ce028:	call   0x4cda64
  4ce02d:	add    esp,0x8
  4ce030:	pop    esi
  4ce031:	push   0x0
  4ce033:	call   0x4cdb64
  4ce038:	mov    ecx,0xfffffff4
  4ce03d:	push   ecx
  4ce03e:	call   0x4cdf0c
  4ce043:	add    esp,0x40
  4ce046:	pop    ebp
  4ce047:	ret    
  4ce048:	pop    edi
  4ce049:	xor    eax,eax
  4ce04b:	call   DWORD PTR [eax*8+0x4cf774]
  4ce052:	push   edi
  4ce053:	pop    edi
  4ce054:	jmp    DWORD PTR [esp-0x4]
  4ce058:	pop    edi
  4ce059:	xor    eax,eax
  4ce05b:	call   DWORD PTR [eax*8+0x4cf71c]
  4ce062:	push   edi
  4ce063:	pop    edi
  4ce064:	jmp    DWORD PTR [esp-0x4]
  4ce068:	pop    edi
  4ce069:	xor    eax,eax
  4ce06b:	call   DWORD PTR [eax*8+0x4cf728]
  4ce072:	push   edi
  4ce073:	pop    edi
  4ce074:	jmp    DWORD PTR [esp-0x4]
