
a1457a89eda8d58793d034aca83e4f85e16126ad0468c0122d7523b58c73e376.exe:     file format pei-i386


Disassembly of section .text:

00401000 <.text>:
  401000:	mov    edi,edi
  401002:	push   ebp
  401003:	mov    ebp,esp
  401005:	sub    esp,0x34
  401008:	push   eax
  401009:	push   edi
  40100a:	push   DWORD PTR [eax+0x3bc]
  401010:	push   DWORD PTR [eax+0x114]
  401016:	push   edx
  401017:	call   0x4020ac
  40101c:	add    esp,0x10
  40101f:	pop    eax
  401020:	push   eax
  401021:	mov    eax,ds:0x404004
  401026:	call   eax
  401028:	pop    eax
  401029:	push   eax
  40102a:	push   0x0
  40102c:	mov    eax,ds:0x404018
  401031:	call   eax
  401033:	pop    eax
  401034:	sub    esp,0xffffffcc
  401037:	mov    ebp,DWORD PTR [esp]
  40103a:	add    esp,0x4
  40103d:	ret    
  40103e:	add    BYTE PTR [eax],al
  401040:	mov    edi,edi
  401042:	push   ebp
  401043:	mov    ebp,esp
  401045:	sub    esp,0x40
  401048:	push   eax
  401049:	mov    ecx,0x6b4
  40104e:	push   ecx
  40104f:	mov    edi,0x6b4
  401054:	push   edi
  401055:	mov    edi,0x40001
  40105a:	push   edi
  40105b:	push   0x0
  40105d:	xor    DWORD PTR [esp],0x89e6ba79
  401064:	pop    eax
  401065:	sub    eax,0x89a67a45
  40106a:	push   DWORD PTR [eax]
  40106c:	sub    DWORD PTR [esp],0x2
  401070:	mov    eax,0x40402c
  401075:	pop    DWORD PTR [eax]
  401077:	mov    eax,ds:0x40402c
  40107c:	call   eax
  40107e:	xchg   DWORD PTR [esp],eax
  401081:	pop    DWORD PTR [eax-0x2c]
  401084:	mov    ecx,DWORD PTR [eax-0x2c]
  401087:	mov    edx,ecx
  401089:	sub    esi,esi
  40108b:	dec    esi
  40108c:	and    esi,0x402a16
  401092:	mov    ecx,0x7a89d45a
  401097:	xor    edi,edi
  401099:	mov    ebx,ecx
  40109b:	xor    ebx,DWORD PTR [esi]
  40109d:	push   ebx
  40109e:	sub    ebx,ebx
  4010a0:	sub    DWORD PTR [esp],0x1
  4010a4:	pop    DWORD PTR [edx+ebx*2]
  4010a7:	push   0x1
  4010a9:	sub    DWORD PTR [esp],ecx
  4010ac:	mov    ecx,0xfffffffc
  4010b1:	sub    esi,ecx
  4010b3:	sub    edx,ecx
  4010b5:	pop    ecx
  4010b6:	add    edi,0x4
  4010b9:	cmp    edi,0x6b4
  4010bf:	jne    0x401099
  4010c1:	push   eax
  4010c2:	mov    ebx,0x0
  4010c7:	push   ebx
  4010c8:	mov    eax,ds:0x40400c
  4010cd:	call   eax
  4010cf:	pop    eax
  4010d0:	sub    esp,0xffffffc0
  4010d3:	pop    ebp
  4010d4:	ret    
	...
  401125:	add    BYTE PTR [eax],al
  401127:	add    BYTE PTR [ebx-0x1374aa01],cl
  40112d:	sub    esp,0x5c
  401130:	push   eax
  401131:	mov    eax,ds:0x404010
  401136:	call   eax
  401138:	pop    eax
  401139:	push   eax
  40113a:	push   esi
  40113b:	push   DWORD PTR [eax+0x1e4]
  401141:	push   DWORD PTR [eax+0x70]
  401144:	push   ecx
  401145:	call   0x4028c4
  40114a:	add    esp,0x10
  40114d:	pop    eax
  40114e:	mov    ecx,0x404008
  401153:	mov    ecx,DWORD PTR [ecx]
  401155:	push   ecx
  401156:	push   DWORD PTR [eax-0x2c]
  401159:	pop    edi
  40115a:	call   edi
  40115c:	sub    esp,0xffffffa4
  40115f:	mov    ebp,DWORD PTR [esp]
  401162:	add    esp,0x4
  401165:	ret    
  401166:	add    BYTE PTR [eax],al
  401168:	mov    edi,edi
  40116a:	push   ebp
  40116b:	mov    ebp,esp
  40116d:	sub    esp,0x34
  401170:	push   eax
  401171:	mov    ebx,0x0
  401176:	push   ebx
  401177:	mov    eax,ds:0x404040
  40117c:	call   eax
  40117e:	pop    eax
  40117f:	push   eax
  401180:	push   DWORD PTR [eax+0x88]
  401186:	push   DWORD PTR [eax+0x27c]
  40118c:	push   ebx
  40118d:	push   edi
  40118e:	call   0x4024ac
  401193:	add    esp,0x10
  401196:	pop    eax
  401197:	push   eax
  401198:	mov    edx,0x0
  40119d:	push   edx
  40119e:	mov    eax,ds:0x404040
  4011a3:	call   eax
  4011a5:	pop    eax
  4011a6:	sub    esp,0xffffffcc
  4011a9:	mov    ebp,DWORD PTR [esp]
  4011ac:	add    esp,0x4
  4011af:	ret    
	...
  401200:	popa   
  401201:	ret    
	...
  401252:	add    BYTE PTR [eax],al
  401254:	mov    edi,edi
  401256:	push   ebp
  401257:	mov    ebp,esp
  401259:	sub    esp,0x1c
  40125c:	push   eax
  40125d:	push   DWORD PTR [eax+0x1b8]
  401263:	push   ecx
  401264:	push   edx
  401265:	push   esi
  401266:	call   0x401830
  40126b:	add    esp,0x10
  40126e:	pop    eax
  40126f:	push   eax
  401270:	mov    eax,ds:0x40404c
  401275:	call   eax
  401277:	pop    eax
  401278:	push   eax
  401279:	mov    esi,0x0
  40127e:	push   esi
  40127f:	mov    eax,ds:0x404040
  401284:	call   eax
  401286:	pop    eax
  401287:	sub    esp,0xffffffe4
  40128a:	mov    ebp,DWORD PTR [esp]
  40128d:	add    esp,0x4
  401290:	ret    
  401291:	add    BYTE PTR [eax],al
  401293:	add    BYTE PTR [ebx-0x1374aa01],cl
  401299:	sub    esp,0x1c
  40129c:	push   eax
  40129d:	mov    ebx,0x0
  4012a2:	push   ebx
  4012a3:	mov    eax,ds:0x40400c
  4012a8:	call   eax
  4012aa:	pop    eax
  4012ab:	push   eax
  4012ac:	push   ecx
  4012ad:	push   esi
  4012ae:	push   edi
  4012af:	call   0x401904
  4012b4:	add    esp,0xc
  4012b7:	pop    eax
  4012b8:	push   eax
  4012b9:	push   0x0
  4012bb:	mov    eax,ds:0x404040
  4012c0:	call   eax
  4012c2:	pop    eax
  4012c3:	sub    esp,0xffffffe4
  4012c6:	mov    ebp,DWORD PTR [esp]
  4012c9:	add    esp,0x4
  4012cc:	ret    
	...
  40131d:	add    BYTE PTR [eax],al
  40131f:	add    BYTE PTR [ebx-0x1374aa01],cl
  401325:	sub    esp,0x24
  401328:	push   eax
  401329:	mov    eax,ds:0x40404c
  40132e:	call   eax
  401330:	pop    eax
  401331:	push   eax
  401332:	push   edx
  401333:	push   DWORD PTR [eax+0x84]
  401339:	call   0x4025c8
  40133e:	add    esp,0x8
  401341:	pop    eax
  401342:	push   eax
  401343:	mov    edi,0x0
  401348:	push   edi
  401349:	mov    eax,ds:0x40401c
  40134e:	call   eax
  401350:	pop    eax
  401351:	sub    esp,0xffffffdc
  401354:	mov    ebp,DWORD PTR [esp]
  401357:	add    esp,0x4
  40135a:	ret    
  40135b:	add    BYTE PTR [ebx-0x1374aa01],cl
  401361:	sub    esp,0x24
  401364:	push   eax
  401365:	lea    eax,[eax-0x100]
  40136b:	push   eax
  40136c:	mov    eax,ds:0x404008
  401371:	call   eax
  401373:	test   eax,eax
  401375:	jne    0x401365
  401377:	pop    eax
  401378:	push   eax
  401379:	push   ecx
  40137a:	push   edi
  40137b:	call   0x402954
  401380:	add    esp,0x8
  401383:	pop    eax
  401384:	push   eax
  401385:	mov    eax,0x0
  40138a:	push   eax
  40138b:	mov    eax,ds:0x40400c
  401390:	call   eax
  401392:	pop    eax
  401393:	sub    esp,0xffffffdc
  401396:	mov    ebp,DWORD PTR [esp]
  401399:	add    esp,0x4
  40139c:	ret    
	...
  40143d:	add    BYTE PTR [eax],al
  40143f:	add    BYTE PTR [ebx-0x1374aa01],cl
  401445:	sub    esp,0x5c
  401448:	push   eax
  401449:	push   edx
  40144a:	push   DWORD PTR [eax+0x150]
  401450:	push   edx
  401451:	call   0x401040
  401456:	add    esp,0xc
  401459:	pop    eax
  40145a:	push   eax
  40145b:	mov    ebx,0x0
  401460:	push   ebx
  401461:	mov    eax,ds:0x404018
  401466:	call   eax
  401468:	pop    eax
  401469:	push   eax
  40146a:	mov    ebx,0x0
  40146f:	push   ebx
  401470:	mov    eax,ds:0x404014
  401475:	call   eax
  401477:	pop    eax
  401478:	sub    esp,0xffffffa4
  40147b:	mov    ebp,DWORD PTR [esp]
  40147e:	add    esp,0x4
  401481:	ret    
	...
  4014d2:	add    BYTE PTR [eax],al
  4014d4:	mov    edi,edi
  4014d6:	push   ebp
  4014d7:	mov    ebp,esp
  4014d9:	sub    esp,0x30
  4014dc:	push   eax
  4014dd:	push   DWORD PTR [eax+0x314]
  4014e3:	push   DWORD PTR [eax+0x1b4]
  4014e9:	push   DWORD PTR [eax+0x114]
  4014ef:	call   0x40232c
  4014f4:	add    esp,0xc
  4014f7:	pop    eax
  4014f8:	push   eax
  4014f9:	push   0x0
  4014fb:	mov    eax,ds:0x404014
  401500:	call   eax
  401502:	pop    eax
  401503:	push   eax
  401504:	mov    eax,0x0
  401509:	push   eax
  40150a:	mov    eax,ds:0x404018
  40150f:	call   eax
  401511:	pop    eax
  401512:	sub    esp,0xffffffd0
  401515:	mov    ebp,DWORD PTR [esp]
  401518:	add    esp,0x4
  40151b:	ret    
  40151c:	mov    edi,edi
  40151e:	push   ebp
  40151f:	mov    ebp,esp
  401521:	sub    esp,0x3c
  401524:	push   eax
  401525:	push   0x0
  401527:	mov    eax,ds:0x40403c
  40152c:	call   eax
  40152e:	pop    eax
  40152f:	push   eax
  401530:	push   DWORD PTR [eax+0x3bc]
  401536:	push   DWORD PTR [eax+0x3fc]
  40153c:	push   DWORD PTR [eax+0x26c]
  401542:	call   0x401294
  401547:	add    esp,0xc
  40154a:	pop    eax
  40154b:	push   eax
  40154c:	push   0x0
  40154e:	mov    eax,ds:0x404014
  401553:	call   eax
  401555:	pop    eax
  401556:	sub    esp,0xffffffc4
  401559:	mov    ebp,DWORD PTR [esp]
  40155c:	add    esp,0x4
  40155f:	ret    
	...
  401600:	mov    edi,edi
  401602:	push   ebp
  401603:	mov    ebp,esp
  401605:	sub    esp,0x38
  401608:	push   eax
  401609:	mov    ebx,0x0
  40160e:	push   ebx
  40160f:	mov    eax,ds:0x404040
  401614:	call   eax
  401616:	pop    eax
  401617:	push   eax
  401618:	push   DWORD PTR [eax+0x184]
  40161e:	push   DWORD PTR [eax+0x18]
  401621:	call   0x401000
  401626:	add    esp,0x8
  401629:	pop    eax
  40162a:	push   eax
  40162b:	mov    ebx,0x0
  401630:	push   ebx
  401631:	mov    eax,ds:0x404014
  401636:	call   eax
  401638:	pop    eax
  401639:	sub    esp,0xffffffc8
  40163c:	mov    ebp,DWORD PTR [esp]
  40163f:	add    esp,0x4
  401642:	ret    
	...
  401693:	add    BYTE PTR [ebx-0x1374aa01],cl
  401699:	sub    esp,0x30
  40169c:	push   eax
  40169d:	push   0x0
  40169f:	mov    eax,ds:0x404018
  4016a4:	call   eax
  4016a6:	pop    eax
  4016a7:	push   eax
  4016a8:	push   esi
  4016a9:	push   DWORD PTR [eax+0x388]
  4016af:	push   DWORD PTR [eax+0x364]
  4016b5:	push   ecx
  4016b6:	call   0x402580
  4016bb:	add    esp,0x10
  4016be:	pop    eax
  4016bf:	push   eax
  4016c0:	push   0x0
  4016c2:	mov    eax,ds:0x404078
  4016c7:	call   eax
  4016c9:	pop    eax
  4016ca:	sub    esp,0xffffffd0
  4016cd:	mov    ebp,DWORD PTR [esp]
  4016d0:	add    esp,0x4
  4016d3:	ret    
	...
  401724:	mov    edi,edi
  401726:	push   ebp
  401727:	mov    ebp,esp
  401729:	sub    esp,0x30
  40172c:	push   eax
  40172d:	push   0x0
  40172f:	mov    eax,ds:0x404018
  401734:	call   eax
  401736:	pop    eax
  401737:	push   eax
  401738:	push   esi
  401739:	push   ebx
  40173a:	call   0x4019dc
  40173f:	add    esp,0x8
  401742:	pop    eax
  401743:	push   eax
  401744:	push   0x0
  401746:	mov    eax,ds:0x40403c
  40174b:	call   eax
  40174d:	pop    eax
  40174e:	sub    esp,0xffffffd0
  401751:	mov    ebp,DWORD PTR [esp]
  401754:	add    esp,0x4
  401757:	ret    
  401758:	mov    edi,edi
  40175a:	push   ebp
  40175b:	mov    ebp,esp
  40175d:	sub    esp,0x50
  401760:	push   eax
  401761:	push   ebx
  401762:	push   DWORD PTR [eax+0x1e0]
  401768:	push   ebx
  401769:	push   esi
  40176a:	call   0x4023c4
  40176f:	add    esp,0x10
  401772:	pop    eax
  401773:	push   eax
  401774:	mov    eax,0x0
  401779:	push   eax
  40177a:	mov    eax,ds:0x40405c
  40177f:	call   eax
  401781:	pop    eax
  401782:	push   eax
  401783:	mov    eax,ds:0x404004
  401788:	call   eax
  40178a:	pop    eax
  40178b:	sub    esp,0xffffffb0
  40178e:	mov    ebp,DWORD PTR [esp]
  401791:	add    esp,0x4
  401794:	ret    
  401795:	add    BYTE PTR [eax],al
  401797:	add    BYTE PTR [ebx-0x1374aa01],cl
  40179d:	sub    esp,0x54
  4017a0:	push   eax
  4017a1:	push   DWORD PTR [eax+0x160]
  4017a7:	push   ecx
  4017a8:	push   DWORD PTR [eax+0x68]
  4017ab:	push   DWORD PTR [eax+0x180]
  4017b1:	call   0x4020ec
  4017b6:	add    esp,0x10
  4017b9:	pop    eax
  4017ba:	push   eax
  4017bb:	push   0x0
  4017bd:	mov    eax,ds:0x40401c
  4017c2:	call   eax
  4017c4:	pop    eax
  4017c5:	push   eax
  4017c6:	lea    eax,[eax-0x100]
  4017cc:	push   eax
  4017cd:	mov    eax,ds:0x404008
  4017d2:	call   eax
  4017d4:	test   eax,eax
  4017d6:	jne    0x4017c6
  4017d8:	pop    eax
  4017d9:	sub    esp,0xffffffac
  4017dc:	mov    ebp,DWORD PTR [esp]
  4017df:	add    esp,0x4
  4017e2:	ret    
  4017e3:	add    BYTE PTR [ebx-0x1374aa01],cl
  4017e9:	sub    esp,0x60
  4017ec:	push   eax
  4017ed:	push   DWORD PTR [eax+0x2d4]
  4017f3:	push   DWORD PTR [eax+0x3c4]
  4017f9:	push   DWORD PTR [eax+0x390]
  4017ff:	push   ecx
  401800:	call   0x40151c
  401805:	add    esp,0x10
  401808:	pop    eax
  401809:	push   eax
  40180a:	mov    eax,0x0
  40180f:	push   eax
  401810:	mov    eax,ds:0x404020
  401815:	call   eax
  401817:	pop    eax
  401818:	push   eax
  401819:	push   0x0
  40181b:	mov    eax,ds:0x40403c
  401820:	call   eax
  401822:	pop    eax
  401823:	sub    esp,0xffffffa0
  401826:	mov    ebp,DWORD PTR [esp]
  401829:	add    esp,0x4
  40182c:	ret    
  40182d:	add    BYTE PTR [eax],al
  40182f:	add    BYTE PTR [ebx-0x1374aa01],cl
  401835:	sub    esp,0x20
  401838:	push   eax
  401839:	push   DWORD PTR [eax+0x1e0]
  40183f:	push   esi
  401840:	push   ecx
  401841:	call   0x40223c
  401846:	add    esp,0xc
  401849:	pop    eax
  40184a:	push   eax
  40184b:	push   0x0
  40184d:	mov    eax,ds:0x404020
  401852:	call   eax
  401854:	pop    eax
  401855:	push   eax
  401856:	mov    eax,ds:0x40404c
  40185b:	call   eax
  40185d:	pop    eax
  40185e:	sub    esp,0xffffffe0
  401861:	mov    ebp,DWORD PTR [esp]
  401864:	add    esp,0x4
  401867:	ret    
  401868:	pusha  
  401869:	xor    edx,edx
  40186b:	push   edx
  40186c:	call   DWORD PTR ds:0x404078
  401872:	mov    eax,0x404090
  401877:	sub    eax,0x1
  40187a:	push   0x0
  40187c:	call   DWORD PTR [eax+0x1]
  40187f:	xor    edx,edx
  401881:	add    edx,0x45e200
  401887:	dec    dh
  401889:	push   edx
  40188a:	lea    eax,[edx+0x10]
  40188d:	add    BYTE PTR [eax],0x4
  401890:	push   edx
  401891:	call   DWORD PTR ds:0x40402c
  401897:	mov    ecx,eax
  401899:	mov    cl,0x3c
  40189b:	mov    ecx,DWORD PTR [ecx]
  40189d:	mov    ecx,DWORD PTR [eax+ecx*1+0x1c]
  4018a1:	ror    ecx,0xc
  4018a4:	mov    eax,ecx
  4018a6:	sub    al,0x10
  4018a8:	pop    eax
  4018a9:	jb     0x401200
  4018af:	ja     0x401128
  4018b5:	ret    
  4018b6:	add    BYTE PTR [eax],al
  4018b8:	mov    edi,edi
  4018ba:	push   ebp
  4018bb:	mov    ebp,esp
  4018bd:	sub    esp,0x50
  4018c0:	push   eax
  4018c1:	mov    edi,0x0
  4018c6:	push   edi
  4018c7:	mov    eax,ds:0x404018
  4018cc:	call   eax
  4018ce:	pop    eax
  4018cf:	push   eax
  4018d0:	push   DWORD PTR [eax+0x1b8]
  4018d6:	push   DWORD PTR [eax+0x15c]
  4018dc:	push   DWORD PTR [eax+0xc4]
  4018e2:	call   0x40135c
  4018e7:	add    esp,0xc
  4018ea:	pop    eax
  4018eb:	push   eax
  4018ec:	mov    ebx,0x0
  4018f1:	push   ebx
  4018f2:	mov    eax,ds:0x404040
  4018f7:	call   eax
  4018f9:	pop    eax
  4018fa:	sub    esp,0xffffffb0
  4018fd:	mov    ebp,DWORD PTR [esp]
  401900:	add    esp,0x4
  401903:	ret    
  401904:	mov    edi,edi
  401906:	push   ebp
  401907:	mov    ebp,esp
  401909:	sub    esp,0x24
  40190c:	push   eax
  40190d:	push   0x0
  40190f:	mov    eax,ds:0x404040
  401914:	call   eax
  401916:	pop    eax
  401917:	push   eax
  401918:	push   ebx
  401919:	push   edx
  40191a:	call   0x401fc4
  40191f:	add    esp,0x8
  401922:	pop    eax
  401923:	push   eax
  401924:	mov    ebx,0x0
  401929:	push   ebx
  40192a:	mov    eax,ds:0x404018
  40192f:	call   eax
  401931:	pop    eax
  401932:	sub    esp,0xffffffdc
  401935:	mov    ebp,DWORD PTR [esp]
  401938:	add    esp,0x4
  40193b:	ret    
	...
  4019dc:	mov    edi,edi
  4019de:	push   ebp
  4019df:	mov    ebp,esp
  4019e1:	sub    esp,0x44
  4019e4:	push   eax
  4019e5:	push   DWORD PTR [eax+0x250]
  4019eb:	push   edx
  4019ec:	call   0x401e14
  4019f1:	add    esp,0x8
  4019f4:	pop    eax
  4019f5:	push   eax
  4019f6:	push   0x0
  4019f8:	mov    eax,ds:0x404014
  4019fd:	call   eax
  4019ff:	pop    eax
  401a00:	push   eax
  401a01:	push   0x0
  401a03:	mov    eax,ds:0x404078
  401a08:	call   eax
  401a0a:	pop    eax
  401a0b:	sub    esp,0xffffffbc
  401a0e:	mov    ebp,DWORD PTR [esp]
  401a11:	add    esp,0x4
  401a14:	ret    
	...
  401a65:	add    BYTE PTR [eax],al
  401a67:	add    BYTE PTR [ebx-0x1374aa01],cl
  401a6d:	sub    esp,0x30
  401a70:	push   eax
  401a71:	push   DWORD PTR [eax+0x1f4]
  401a77:	push   DWORD PTR [eax+0x148]
  401a7d:	push   ebx
  401a7e:	call   0x401600
  401a83:	add    esp,0xc
  401a86:	pop    eax
  401a87:	push   eax
  401a88:	push   0x0
  401a8a:	mov    eax,ds:0x404018
  401a8f:	call   eax
  401a91:	pop    eax
  401a92:	push   eax
  401a93:	mov    ecx,0x0
  401a98:	push   ecx
  401a99:	mov    eax,ds:0x404078
  401a9e:	call   eax
  401aa0:	pop    eax
  401aa1:	sub    esp,0xffffffd0
  401aa4:	mov    ebp,DWORD PTR [esp]
  401aa7:	add    esp,0x4
  401aaa:	ret    
  401aab:	add    BYTE PTR [ebx-0x1374aa01],cl
  401ab1:	sub    esp,0x24
  401ab4:	push   eax
  401ab5:	push   DWORD PTR [eax+0x350]
  401abb:	push   DWORD PTR [eax+0xbc]
  401ac1:	call   0x402748
  401ac6:	add    esp,0x8
  401ac9:	pop    eax
  401aca:	push   eax
  401acb:	push   0x0
  401acd:	mov    eax,ds:0x404078
  401ad2:	call   eax
  401ad4:	pop    eax
  401ad5:	push   eax
  401ad6:	push   0x0
  401ad8:	mov    eax,ds:0x404014
  401add:	call   eax
  401adf:	pop    eax
  401ae0:	sub    esp,0xffffffdc
  401ae3:	mov    ebp,DWORD PTR [esp]
  401ae6:	add    esp,0x4
  401ae9:	ret    
  401aea:	add    BYTE PTR [eax],al
  401aec:	mov    edi,edi
  401aee:	push   ebp
  401aef:	mov    ebp,esp
  401af1:	sub    esp,0x44
  401af4:	push   eax
  401af5:	lea    edx,[eax-0x100]
  401afb:	push   edx
  401afc:	mov    eax,ds:0x404008
  401b01:	call   eax
  401b03:	test   eax,eax
  401b05:	jne    0x401af5
  401b07:	pop    eax
  401b08:	push   eax
  401b09:	push   ebx
  401b0a:	push   DWORD PTR [eax+0x2cc]
  401b10:	call   0x4022e0
  401b15:	add    esp,0x8
  401b18:	pop    eax
  401b19:	push   eax
  401b1a:	mov    edi,0x0
  401b1f:	push   edi
  401b20:	mov    eax,ds:0x40400c
  401b25:	call   eax
  401b27:	pop    eax
  401b28:	sub    esp,0xffffffbc
  401b2b:	mov    ebp,DWORD PTR [esp]
  401b2e:	add    esp,0x4
  401b31:	ret    
	...
  401c22:	add    BYTE PTR [eax],al
  401c24:	mov    edi,edi
  401c26:	push   ebp
  401c27:	mov    ebp,esp
  401c29:	sub    esp,0x38
  401c2c:	push   eax
  401c2d:	push   DWORD PTR [eax+0x2b4]
  401c33:	push   edi
  401c34:	call   0x401254
  401c39:	add    esp,0x8
  401c3c:	pop    eax
  401c3d:	push   eax
  401c3e:	mov    eax,ds:0x40404c
  401c43:	call   eax
  401c45:	pop    eax
  401c46:	push   eax
  401c47:	mov    eax,ds:0x404004
  401c4c:	call   eax
  401c4e:	pop    eax
  401c4f:	sub    esp,0xffffffc8
  401c52:	mov    ebp,DWORD PTR [esp]
  401c55:	add    esp,0x4
  401c58:	ret    
  401c59:	add    BYTE PTR [eax],al
  401c5b:	add    BYTE PTR [ebx-0x1374aa01],cl
  401c61:	sub    esp,0x34
  401c64:	push   eax
  401c65:	lea    esi,[eax-0x100]
  401c6b:	push   esi
  401c6c:	mov    eax,ds:0x404008
  401c71:	call   eax
  401c73:	test   eax,eax
  401c75:	jne    0x401c65
  401c77:	pop    eax
  401c78:	push   eax
  401c79:	push   ecx
  401c7a:	push   DWORD PTR [eax+0x210]
  401c80:	push   DWORD PTR [eax+0x174]
  401c86:	call   0x4017e4
  401c8b:	add    esp,0xc
  401c8e:	pop    eax
  401c8f:	push   eax
  401c90:	mov    eax,ds:0x404010
  401c95:	call   eax
  401c97:	pop    eax
  401c98:	sub    esp,0xffffffcc
  401c9b:	mov    ebp,DWORD PTR [esp]
  401c9e:	add    esp,0x4
  401ca1:	ret    
  401ca2:	add    BYTE PTR [eax],al
  401ca4:	mov    edi,edi
  401ca6:	push   ebp
  401ca7:	mov    ebp,esp
  401ca9:	sub    esp,0x4c
  401cac:	push   eax
  401cad:	push   DWORD PTR [eax+0x98]
  401cb3:	push   ecx
  401cb4:	push   ebx
  401cb5:	call   0x4018b8
  401cba:	add    esp,0xc
  401cbd:	pop    eax
  401cbe:	push   eax
  401cbf:	mov    ecx,0x0
  401cc4:	push   ecx
  401cc5:	mov    eax,ds:0x404020
  401cca:	call   eax
  401ccc:	pop    eax
  401ccd:	push   eax
  401cce:	mov    eax,ds:0x404010
  401cd3:	call   eax
  401cd5:	pop    eax
  401cd6:	sub    esp,0xffffffb4
  401cd9:	mov    ebp,DWORD PTR [esp]
  401cdc:	add    esp,0x4
  401cdf:	ret    
	...
  401dd0:	mov    edi,edi
  401dd2:	push   ebp
  401dd3:	mov    ebp,esp
  401dd5:	sub    esp,0x58
  401dd8:	push   eax
  401dd9:	push   DWORD PTR [eax+0x218]
  401ddf:	push   DWORD PTR [eax+0x1b0]
  401de5:	push   DWORD PTR [eax+0x10c]
  401deb:	call   0x401758
  401df0:	add    esp,0xc
  401df3:	pop    eax
  401df4:	push   eax
  401df5:	push   0x0
  401df7:	mov    eax,ds:0x404078
  401dfc:	call   eax
  401dfe:	pop    eax
  401dff:	push   eax
  401e00:	mov    eax,ds:0x404010
  401e05:	call   eax
  401e07:	pop    eax
  401e08:	sub    esp,0xffffffa8
  401e0b:	mov    ebp,DWORD PTR [esp]
  401e0e:	add    esp,0x4
  401e11:	ret    
  401e12:	add    BYTE PTR [eax],al
  401e14:	mov    edi,edi
  401e16:	push   ebp
  401e17:	mov    ebp,esp
  401e19:	sub    esp,0x34
  401e1c:	push   eax
  401e1d:	push   DWORD PTR [eax+0x6c]
  401e20:	push   DWORD PTR [eax+0x370]
  401e26:	call   0x402130
  401e2b:	add    esp,0x8
  401e2e:	pop    eax
  401e2f:	push   eax
  401e30:	push   0x0
  401e32:	mov    eax,ds:0x404020
  401e37:	call   eax
  401e39:	pop    eax
  401e3a:	push   eax
  401e3b:	mov    edx,0x0
  401e40:	push   edx
  401e41:	mov    eax,ds:0x404020
  401e46:	call   eax
  401e48:	pop    eax
  401e49:	sub    esp,0xffffffcc
  401e4c:	mov    ebp,DWORD PTR [esp]
  401e4f:	add    esp,0x4
  401e52:	ret    
	...
  401ea3:	add    BYTE PTR [ebx-0x1374aa01],cl
  401ea9:	sub    esp,0x4c
  401eac:	push   eax
  401ead:	push   0x0
  401eaf:	mov    eax,ds:0x40405c
  401eb4:	call   eax
  401eb6:	pop    eax
  401eb7:	push   eax
  401eb8:	push   ebx
  401eb9:	push   DWORD PTR [eax+0x274]
  401ebf:	push   edx
  401ec0:	push   edi
  401ec1:	call   0x401168
  401ec6:	add    esp,0x10
  401ec9:	pop    eax
  401eca:	push   eax
  401ecb:	push   0x0
  401ecd:	mov    eax,ds:0x40401c
  401ed2:	call   eax
  401ed4:	pop    eax
  401ed5:	sub    esp,0xffffffb4
  401ed8:	mov    ebp,DWORD PTR [esp]
  401edb:	add    esp,0x4
  401ede:	ret    
  401edf:	add    BYTE PTR [ebx-0x1374aa01],cl
  401ee5:	sub    esp,0x5c
  401ee8:	push   eax
  401ee9:	push   DWORD PTR [eax+0x298]
  401eef:	push   esi
  401ef0:	push   DWORD PTR [eax+0x1b4]
  401ef6:	push   ecx
  401ef7:	call   0x401724
  401efc:	add    esp,0x10
  401eff:	pop    eax
  401f00:	push   eax
  401f01:	mov    edx,0x0
  401f06:	push   edx
  401f07:	mov    eax,ds:0x404040
  401f0c:	call   eax
  401f0e:	pop    eax
  401f0f:	push   eax
  401f10:	mov    eax,ds:0x404010
  401f15:	call   eax
  401f17:	pop    eax
  401f18:	sub    esp,0xffffffa4
  401f1b:	mov    ebp,DWORD PTR [esp]
  401f1e:	add    esp,0x4
  401f21:	ret    
	...
  401fc2:	add    BYTE PTR [eax],al
  401fc4:	mov    edi,edi
  401fc6:	push   ebp
  401fc7:	mov    ebp,esp
  401fc9:	sub    esp,0x30
  401fcc:	push   eax
  401fcd:	mov    esi,0x0
  401fd2:	push   esi
  401fd3:	mov    eax,ds:0x404020
  401fd8:	call   eax
  401fda:	pop    eax
  401fdb:	push   eax
  401fdc:	push   DWORD PTR [eax+0x48]
  401fdf:	push   ebx
  401fe0:	push   DWORD PTR [eax+0x2b0]
  401fe6:	push   ebx
  401fe7:	call   0x401798
  401fec:	add    esp,0x10
  401fef:	pop    eax
  401ff0:	push   eax
  401ff1:	mov    edi,0x0
  401ff6:	push   edi
  401ff7:	mov    eax,ds:0x404020
  401ffc:	call   eax
  401ffe:	pop    eax
  401fff:	sub    esp,0xffffffd0
  402002:	mov    ebp,DWORD PTR [esp]
  402005:	add    esp,0x4
  402008:	ret    
	...
  4020a9:	add    BYTE PTR [eax],al
  4020ab:	add    BYTE PTR [ebx-0x1374aa01],cl
  4020b1:	sub    esp,0x30
  4020b4:	push   eax
  4020b5:	push   DWORD PTR [eax+0x268]
  4020bb:	push   esi
  4020bc:	call   0x401ca4
  4020c1:	add    esp,0x8
  4020c4:	pop    eax
  4020c5:	push   eax
  4020c6:	push   0x0
  4020c8:	mov    eax,ds:0x404014
  4020cd:	call   eax
  4020cf:	pop    eax
  4020d0:	push   eax
  4020d1:	mov    eax,0x0
  4020d6:	push   eax
  4020d7:	mov    eax,ds:0x404040
  4020dc:	call   eax
  4020de:	pop    eax
  4020df:	sub    esp,0xffffffd0
  4020e2:	mov    ebp,DWORD PTR [esp]
  4020e5:	add    esp,0x4
  4020e8:	ret    
  4020e9:	add    BYTE PTR [eax],al
  4020eb:	add    BYTE PTR [ebx-0x1374aa01],cl
  4020f1:	sub    esp,0x24
  4020f4:	push   eax
  4020f5:	push   DWORD PTR [eax+0x374]
  4020fb:	push   edx
  4020fc:	push   ecx
  4020fd:	push   edi
  4020fe:	call   0x401c24
  402103:	add    esp,0x10
  402106:	pop    eax
  402107:	push   eax
  402108:	lea    ebx,[eax-0x100]
  40210e:	push   ebx
  40210f:	mov    eax,ds:0x404008
  402114:	call   eax
  402116:	test   eax,eax
  402118:	jne    0x402108
  40211a:	pop    eax
  40211b:	push   eax
  40211c:	push   0x0
  40211e:	mov    eax,ds:0x404028
  402123:	call   eax
  402125:	pop    eax
  402126:	sub    esp,0xffffffdc
  402129:	mov    ebp,DWORD PTR [esp]
  40212c:	add    esp,0x4
  40212f:	ret    
  402130:	mov    edi,edi
  402132:	push   ebp
  402133:	mov    ebp,esp
  402135:	sub    esp,0x34
  402138:	push   eax
  402139:	push   ecx
  40213a:	push   DWORD PTR [eax+0x1b0]
  402140:	push   esi
  402141:	push   edx
  402142:	call   0x401aec
  402147:	add    esp,0x10
  40214a:	pop    eax
  40214b:	push   eax
  40214c:	mov    esi,0x0
  402151:	push   esi
  402152:	mov    eax,ds:0x404028
  402157:	call   eax
  402159:	pop    eax
  40215a:	push   eax
  40215b:	push   0x0
  40215d:	mov    eax,ds:0x404040
  402162:	call   eax
  402164:	pop    eax
  402165:	sub    esp,0xffffffcc
  402168:	mov    ebp,DWORD PTR [esp]
  40216b:	add    esp,0x4
  40216e:	ret    
	...
  4021bf:	add    BYTE PTR [ebx-0x1374aa01],cl
  4021c5:	sub    esp,0x24
  4021c8:	push   eax
  4021c9:	push   DWORD PTR [eax+0x338]
  4021cf:	push   edx
  4021d0:	push   DWORD PTR [eax+0x2a0]
  4021d6:	call   0x401694
  4021db:	add    esp,0xc
  4021de:	pop    eax
  4021df:	push   eax
  4021e0:	mov    eax,ds:0x404004
  4021e5:	call   eax
  4021e7:	pop    eax
  4021e8:	push   eax
  4021e9:	mov    esi,0x0
  4021ee:	push   esi
  4021ef:	mov    eax,ds:0x40401c
  4021f4:	call   eax
  4021f6:	pop    eax
  4021f7:	sub    esp,0xffffffdc
  4021fa:	mov    ebp,DWORD PTR [esp]
  4021fd:	add    esp,0x4
  402200:	ret    
  402201:	add    BYTE PTR [eax],al
  402203:	add    BYTE PTR [ebx-0x1374aa01],cl
  402209:	sub    esp,0x24
  40220c:	push   eax
  40220d:	mov    eax,ds:0x404004
  402212:	call   eax
  402214:	pop    eax
  402215:	push   eax
  402216:	push   esi
  402217:	push   esi
  402218:	call   0x401dd0
  40221d:	add    esp,0x8
  402220:	pop    eax
  402221:	push   eax
  402222:	mov    edi,0x0
  402227:	push   edi
  402228:	mov    eax,ds:0x404020
  40222d:	call   eax
  40222f:	pop    eax
  402230:	sub    esp,0xffffffdc
  402233:	mov    ebp,DWORD PTR [esp]
  402236:	add    esp,0x4
  402239:	ret    
  40223a:	add    BYTE PTR [eax],al
  40223c:	mov    edi,edi
  40223e:	push   ebp
  40223f:	mov    ebp,esp
  402241:	sub    esp,0x24
  402244:	push   eax
  402245:	mov    esi,0x0
  40224a:	push   esi
  40224b:	mov    eax,ds:0x404014
  402250:	call   eax
  402252:	pop    eax
  402253:	push   eax
  402254:	push   edi
  402255:	push   DWORD PTR [eax+0x3a8]
  40225b:	push   DWORD PTR [eax+0x370]
  402261:	push   DWORD PTR [eax+0x218]
  402267:	call   0x401320
  40226c:	add    esp,0x10
  40226f:	pop    eax
  402270:	push   eax
  402271:	lea    edx,[eax-0x100]
  402277:	push   edx
  402278:	mov    eax,ds:0x404008
  40227d:	call   eax
  40227f:	test   eax,eax
  402281:	jne    0x402271
  402283:	pop    eax
  402284:	sub    esp,0xffffffdc
  402287:	mov    ebp,DWORD PTR [esp]
  40228a:	add    esp,0x4
  40228d:	ret    
	...
  4022de:	add    BYTE PTR [eax],al
  4022e0:	mov    edi,edi
  4022e2:	push   ebp
  4022e3:	mov    ebp,esp
  4022e5:	sub    esp,0x38
  4022e8:	push   eax
  4022e9:	lea    ebx,[eax-0x100]
  4022ef:	push   ebx
  4022f0:	mov    eax,ds:0x404008
  4022f5:	call   eax
  4022f7:	test   eax,eax
  4022f9:	jne    0x4022e9
  4022fb:	pop    eax
  4022fc:	push   eax
  4022fd:	push   edi
  4022fe:	push   DWORD PTR [eax+0x364]
  402304:	push   DWORD PTR [eax+0x274]
  40230a:	call   0x401c5c
  40230f:	add    esp,0xc
  402312:	pop    eax
  402313:	push   eax
  402314:	mov    esi,0x0
  402319:	push   esi
  40231a:	mov    eax,ds:0x404018
  40231f:	call   eax
  402321:	pop    eax
  402322:	sub    esp,0xffffffc8
  402325:	mov    ebp,DWORD PTR [esp]
  402328:	add    esp,0x4
  40232b:	ret    
  40232c:	mov    edi,edi
  40232e:	push   ebp
  40232f:	mov    ebp,esp
  402331:	sub    esp,0x34
  402334:	push   eax
  402335:	push   DWORD PTR [eax+0x40]
  402338:	push   DWORD PTR [eax+0x2d8]
  40233e:	call   0x401ea4
  402343:	add    esp,0x8
  402346:	pop    eax
  402347:	push   eax
  402348:	lea    ecx,[eax-0x100]
  40234e:	push   ecx
  40234f:	mov    eax,ds:0x404008
  402354:	call   eax
  402356:	test   eax,eax
  402358:	jne    0x402348
  40235a:	pop    eax
  40235b:	push   eax
  40235c:	mov    esi,0x0
  402361:	push   esi
  402362:	mov    eax,ds:0x40400c
  402367:	call   eax
  402369:	pop    eax
  40236a:	sub    esp,0xffffffcc
  40236d:	mov    ebp,DWORD PTR [esp]
  402370:	add    esp,0x4
  402373:	ret    
	...
  4023c4:	mov    edi,edi
  4023c6:	push   ebp
  4023c7:	mov    ebp,esp
  4023c9:	sub    esp,0x60
  4023cc:	push   eax
  4023cd:	push   DWORD PTR [eax+0x1b8]
  4023d3:	push   DWORD PTR [eax+0x1dc]
  4023d9:	call   0x401440
  4023de:	add    esp,0x8
  4023e1:	pop    eax
  4023e2:	push   eax
  4023e3:	mov    eax,ds:0x404004
  4023e8:	call   eax
  4023ea:	pop    eax
  4023eb:	push   eax
  4023ec:	lea    esi,[eax-0x100]
  4023f2:	push   esi
  4023f3:	mov    eax,ds:0x404008
  4023f8:	call   eax
  4023fa:	test   eax,eax
  4023fc:	jne    0x4023ec
  4023fe:	pop    eax
  4023ff:	sub    esp,0xffffffa0
  402402:	mov    ebp,DWORD PTR [esp]
  402405:	add    esp,0x4
  402408:	ret    
	...
  4024a9:	add    BYTE PTR [eax],al
  4024ab:	add    BYTE PTR [ebx-0x1374aa01],cl
  4024b1:	sub    esp,0x20
  4024b4:	push   eax
  4024b5:	push   ebx
  4024b6:	push   edx
  4024b7:	push   DWORD PTR [eax+0x5c]
  4024ba:	call   0x401a68
  4024bf:	add    esp,0xc
  4024c2:	pop    eax
  4024c3:	push   eax
  4024c4:	mov    edx,0x0
  4024c9:	push   edx
  4024ca:	mov    eax,ds:0x404018
  4024cf:	call   eax
  4024d1:	pop    eax
  4024d2:	push   eax
  4024d3:	push   0x0
  4024d5:	mov    eax,ds:0x404040
  4024da:	call   eax
  4024dc:	pop    eax
  4024dd:	sub    esp,0xffffffe0
  4024e0:	mov    ebp,DWORD PTR [esp]
  4024e3:	add    esp,0x4
  4024e6:	ret    
  4024e7:	add    BYTE PTR [ebx-0x1374aa01],cl
  4024ed:	sub    esp,0x2c
  4024f0:	push   eax
  4024f1:	push   0x0
  4024f3:	mov    eax,ds:0x40400c
  4024f8:	call   eax
  4024fa:	pop    eax
  4024fb:	push   eax
  4024fc:	push   DWORD PTR [eax+0xc0]
  402502:	push   ebx
  402503:	push   DWORD PTR [eax+0x278]
  402509:	push   DWORD PTR [eax+0x1d4]
  40250f:	call   0x401aac
  402514:	add    esp,0x10
  402517:	pop    eax
  402518:	push   eax
  402519:	push   0x0
  40251b:	mov    eax,ds:0x40401c
  402520:	call   eax
  402522:	pop    eax
  402523:	sub    esp,0xffffffd4
  402526:	mov    ebp,DWORD PTR [esp]
  402529:	add    esp,0x4
  40252c:	ret    
	...
  40257d:	add    BYTE PTR [eax],al
  40257f:	add    BYTE PTR [ebx-0x1374aa01],cl
  402585:	sub    esp,0x24
  402588:	push   eax
  402589:	push   edx
  40258a:	push   edi
  40258b:	push   DWORD PTR [eax+0x168]
  402591:	call   0x401ee0
  402596:	add    esp,0xc
  402599:	pop    eax
  40259a:	push   eax
  40259b:	lea    edx,[eax-0x100]
  4025a1:	push   edx
  4025a2:	mov    eax,ds:0x404008
  4025a7:	call   eax
  4025a9:	test   eax,eax
  4025ab:	jne    0x40259b
  4025ad:	pop    eax
  4025ae:	push   eax
  4025af:	mov    edx,0x0
  4025b4:	push   edx
  4025b5:	mov    eax,ds:0x404074
  4025ba:	call   eax
  4025bc:	pop    eax
  4025bd:	sub    esp,0xffffffdc
  4025c0:	mov    ebp,DWORD PTR [esp]
  4025c3:	add    esp,0x4
  4025c6:	ret    
  4025c7:	add    BYTE PTR [ebx-0x1374aa01],cl
  4025cd:	sub    esp,0x3c
  4025d0:	push   eax
  4025d1:	mov    eax,ds:0x404004
  4025d6:	call   eax
  4025d8:	pop    eax
  4025d9:	push   eax
  4025da:	push   DWORD PTR [eax+0xfc]
  4025e0:	push   ebx
  4025e1:	push   edx
  4025e2:	push   esi
  4025e3:	call   0x4026a8
  4025e8:	add    esp,0x10
  4025eb:	pop    eax
  4025ec:	push   eax
  4025ed:	mov    eax,0x0
  4025f2:	push   eax
  4025f3:	mov    eax,ds:0x404028
  4025f8:	call   eax
  4025fa:	pop    eax
  4025fb:	sub    esp,0xffffffc4
  4025fe:	mov    ebp,DWORD PTR [esp]
  402601:	add    esp,0x4
  402604:	ret    
	...
  4026a5:	add    BYTE PTR [eax],al
  4026a7:	add    BYTE PTR [ebx-0x1374aa01],cl
  4026ad:	sub    esp,0x28
  4026b0:	push   eax
  4026b1:	push   edi
  4026b2:	push   DWORD PTR [eax+0x118]
  4026b8:	push   DWORD PTR [eax+0x230]
  4026be:	push   DWORD PTR [eax+0x2e8]
  4026c4:	call   0x402204
  4026c9:	add    esp,0x10
  4026cc:	pop    eax
  4026cd:	push   eax
  4026ce:	mov    eax,0x0
  4026d3:	push   eax
  4026d4:	mov    eax,ds:0x404074
  4026d9:	call   eax
  4026db:	pop    eax
  4026dc:	push   eax
  4026dd:	mov    ebx,0x0
  4026e2:	push   ebx
  4026e3:	mov    eax,ds:0x404014
  4026e8:	call   eax
  4026ea:	pop    eax
  4026eb:	sub    esp,0xffffffd8
  4026ee:	mov    ebp,DWORD PTR [esp]
  4026f1:	add    esp,0x4
  4026f4:	ret    
	...
  402745:	add    BYTE PTR [eax],al
  402747:	add    BYTE PTR [ebx-0x1374aa01],cl
  40274d:	sub    esp,0x44
  402750:	push   eax
  402751:	push   esi
  402752:	push   DWORD PTR [eax+0xe0]
  402758:	call   0x4021c0
  40275d:	add    esp,0x8
  402760:	pop    eax
  402761:	push   eax
  402762:	mov    eax,ds:0x404010
  402767:	call   eax
  402769:	pop    eax
  40276a:	push   eax
  40276b:	mov    ecx,0x0
  402770:	push   ecx
  402771:	mov    eax,ds:0x404074
  402776:	call   eax
  402778:	pop    eax
  402779:	sub    esp,0xffffffbc
  40277c:	mov    ebp,DWORD PTR [esp]
  40277f:	add    esp,0x4
  402782:	ret    
	...
  4028c3:	add    BYTE PTR [ebx-0x1374aa01],cl
  4028c9:	sub    esp,0x38
  4028cc:	push   eax
  4028cd:	push   DWORD PTR [eax+0x300]
  4028d3:	push   esi
  4028d4:	call   0x4014d4
  4028d9:	add    esp,0x8
  4028dc:	pop    eax
  4028dd:	push   eax
  4028de:	lea    ebx,[eax-0x100]
  4028e4:	push   ebx
  4028e5:	mov    eax,ds:0x404008
  4028ea:	call   eax
  4028ec:	test   eax,eax
  4028ee:	jne    0x4028de
  4028f0:	pop    eax
  4028f1:	push   eax
  4028f2:	mov    eax,ds:0x404010
  4028f7:	call   eax
  4028f9:	pop    eax
  4028fa:	sub    esp,0xffffffc8
  4028fd:	mov    ebp,DWORD PTR [esp]
  402900:	add    esp,0x4
  402903:	ret    
	...
  402954:	mov    edi,edi
  402956:	push   ebp
  402957:	mov    ebp,esp
  402959:	sub    esp,0x48
  40295c:	push   eax
  40295d:	mov    eax,ds:0x40404c
  402962:	call   eax
  402964:	pop    eax
  402965:	push   eax
  402966:	push   DWORD PTR [eax+0x284]
  40296c:	push   DWORD PTR [eax+0xac]
  402972:	push   ecx
  402973:	call   0x4024e8
  402978:	add    esp,0xc
  40297b:	pop    eax
  40297c:	push   eax
  40297d:	push   0x0
  40297f:	mov    eax,ds:0x40400c
  402984:	call   eax
  402986:	pop    eax
  402987:	sub    esp,0xffffffb8
  40298a:	mov    ebp,DWORD PTR [esp]
  40298d:	add    esp,0x4
  402990:	ret    
	...
  4029e1:	add    BYTE PTR [eax],al
  4029e3:	add    BYTE PTR [ebp+0x67da8b31],ah
  4029e9:	and    eax,0xfc92b3c8
  4029ee:	mov    ss,WORD PTR [ecx+0x5c]
  4029f1:	xchg   ebp,eax
  4029f2:	push   0xbd9c1b39
  4029f7:	imul   ebx,DWORD PTR [edx-0x71e00c48],0x51
  4029fe:	(bad)  
  4029ff:	shl    ebp,1
  402a01:	mov    ds,edi
  402a03:	movs   BYTE PTR es:[edi],BYTE PTR ds:[esi]
  402a04:	movs   DWORD PTR es:[edi],DWORD PTR ds:[esi]
  402a05:	lds    ebp,FWORD PTR [esi]
  402a07:	pop    edi
  402a08:	fyl2xp1 
  402a0a:	sbb    eax,0x10830413
  402a0f:	cmps   DWORD PTR ds:[esi],DWORD PTR es:[edi]
  402a10:	lahf   
  402a11:	mov    dl,0x45
  402a13:	pusha  
  402a14:	arpl   WORD PTR [ebp+0xb],sp
  402a17:	mov    ecx,ds
  402a19:	and    cl,BYTE PTR [esi+0x2d]
  402a1c:	jbe    0x4029a3
  402a1e:	pop    ebx
  402a1f:	aad    0xfe
  402a21:	and    esi,eax
  402a23:	cmps   BYTE PTR ds:[esi],BYTE PTR es:[edi]
  402a24:	xor    ebx,esp
  402a26:	jbe    0x402a45
  402a28:	or     bh,BYTE PTR [ebx+0x67287ea3]
  402a2e:	movs   BYTE PTR es:[edi],BYTE PTR ds:[esi]
  402a2f:	push   edi
  402a30:	dec    ebp
  402a31:	mov    cs,WORD PTR [esi+0x26]
  402a34:	jbe    0x4029bb
  402a36:	pop    ebx
  402a37:	push   esp
  402a38:	mov    bl,0x6b
  402a3a:	dec    ebp
  402a3b:	dec    esi
  402a3c:	sbb    dh,BYTE PTR [esi+0x16edfa69]
  402a42:	retf   0x2e2b
  402a45:	aad    0xd8
  402a47:	aam    0x42
  402a49:	push   eax
  402a4a:	lds    ebp,FWORD PTR [esi+0xcd65389]
  402a50:	mov    bh,BYTE PTR [ecx]
  402a52:	call   0x8d54:0x5bd50eaa
  402a59:	jp     0x402a2b
  402a5b:	add    BYTE PTR [esi-0x762ba389],bl
  402a61:	daa    
  402a62:	sub    ebx,esi
  402a64:	iret   
  402a65:	xchg   ebp,eax
  402a66:	pop    ebx
  402a67:	aam    0x89
  402a69:	xlat   BYTE PTR ds:[ebx]
  402a6a:	dec    esi
  402a6b:	fnstenv [ebp+eax*4+0x5b]
  402a6f:	pop    ebp
  402a70:	iret   
  402a71:	xchg   BYTE PTR [esi+ebx*8+0x1c],al
  402a75:	out    0x33,al
  402a77:	xchg   ebp,eax
  402a78:	in     eax,0x16
  402a7a:	xlat   BYTE PTR ds:[ebx]
  402a7b:	inc    ebx
  402a7c:	ds loopne 0x402ab7
  402a7f:	movs   BYTE PTR es:[edi],BYTE PTR ds:[esi]
  402a80:	(bad)  [ecx]
  402a82:	cmps   DWORD PTR ds:[esi],DWORD PTR es:[edi]
  402a83:	jge    0x402b03
  402a85:	or     al,0x5d
  402a87:	mov    esi,0x59e01289
  402a8c:	adc    esp,eax
  402a8e:	xor    ebx,DWORD PTR [esp+ebp*8+0x257fd61b]
  402a95:	jp     0x402aa3
  402a97:	fadd   QWORD PTR [eax]
  402a99:	cmp    al,0xa2
  402a9b:	test   al,0xb2
  402a9d:	popf   
  402a9e:	xor    DWORD PTR [ecx+eiz*8+0x762bb67a],edx
  402aa5:	in     eax,dx
  402aa6:	call   edx
  402aa8:	mov    DWORD PTR [edx-0x34],edi
  402aab:	sub    ecx,DWORD PTR [ecx+0x715f4bd0]
  402ab1:	jg     0x402aba
  402ab3:	sub    esi,DWORD PTR [esi-0x7b]
  402ab6:	or     ebx,DWORD PTR [ecx+0x3c]
  402ab9:	stos   BYTE PTR es:[edi],al
  402aba:	pop    ebp
  402abb:	aam    0x89
  402abd:	cmp    al,0xff
  402abf:	ror    BYTE PTR [ecx-0x4a70ac86],cl
  402ac5:	ins    DWORD PTR es:[edi],dx
  402ac6:	rcl    cl,1
  402ac8:	mov    DWORD PTR [edx-0x7],edi
  402acb:	jne    0x402abe
  402acd:	mov    cl,0x7f
  402acf:	and    BYTE PTR [ecx-0x7d],0xa2
  402ad3:	sub    esi,DWORD PTR [esi+0x6d]
  402ad6:	(bad)  
  402ad8:	mov    DWORD PTR [edx+0x2b],edi
  402adb:	rcr    DWORD PTR [eax*4+0xf76d431],cl
  402ae2:	ret    0x897c
  402ae5:	shl    BYTE PTR [ebx+0x5f],1
  402ae8:	les    edx,FWORD PTR [edx]
  402aea:	int3   
  402aeb:	sub    esp,DWORD PTR [edx]
  402aed:	fstp   QWORD PTR [edx-0x1f]
  402af0:	lods   eax,DWORD PTR ds:[esi]
  402af1:	sub    dh,ch
  402af3:	jge    0x402b16
  402af5:	jp     0x402b03
  402af7:	clc    
  402af8:	shr    DWORD PTR ds:0x6d6e7da7,1
  402afe:	jo     0x402ad7
  402b00:	mov    DWORD PTR [edx+0x2b],edi
  402b03:	ins    DWORD PTR es:[edi],dx
  402b04:	dec    edx
  402b05:	or     BYTE PTR [edi-0x2e],bl
  402b08:	out    dx,eax
  402b09:	(bad)  
  402b0a:	out    0x3d,al
  402b0c:	jbe    0x402ab3
  402b0e:	sub    al,0xc2
  402b10:	mov    al,0x22
  402b12:	xchg   edx,eax
  402b13:	pop    edi
  402b14:	addr16 push cs
  402b16:	add    esp,eax
  402b18:	jecxz  0x402b98
  402b1a:	into   
  402b1b:	sub    eax,DWORD PTR [esi-0x7b]
  402b1e:	pop    ebx
  402b1f:	sub    edi,ecx
  402b21:	sub    dh,bl
  402b23:	aam    0x23
  402b25:	xchg   ebp,eax
  402b26:	(bad)  
  402b27:	test   eax,0x41f22ae5
  402b2c:	jb     0x402b00
  402b2e:	push   cs
  402b2f:	sub    ebx,esp
  402b31:	jbe    0x402b25
  402b33:	inc    ecx
  402b34:	je     0x402b08
  402b36:	push   cs
  402b37:	add    BYTE PTR [edx],0xb5
  402b3a:	sub    edx,eax
  402b3c:	test   DWORD PTR [ecx],esp
  402b3e:	add    eax,0xfe76dc2b
  402b43:	mov    al,ds:0xe81086b8
  402b48:	add    al,0x3
  402b4a:	mov    esi,0x4aa521a0
  402b4f:	arpl   ax,cx
  402b51:	outs   dx,BYTE PTR ds:[esi]
  402b52:	mov    ds:0x103279d3,eax
  402b57:	shr    cl,cl
  402b59:	icebp  
  402b5a:	out    dx,eax
  402b5b:	aas    
  402b5c:	repz inc ebp
  402b5e:	das    
  402b5f:	xchg   ebp,eax
  402b60:	add    bh,BYTE PTR ds:0xf1b6aeae
  402b66:	popa   
  402b67:	cmp    al,0x18
  402b69:	jle    0x402b11
  402b6b:	sub    edi,ebp
  402b6d:	dec    ebp
  402b6e:	(bad)  
  402b6f:	xchg   ebx,eax
  402b70:	lods   eax,DWORD PTR ds:[esi]
  402b71:	xchg   edx,eax
  402b72:	shr    DWORD PTR [ecx],1
  402b74:	jbe    0x402afb
  402b76:	pop    esi
  402b77:	mov    ds:0x3bdf859d,eax
  402b7c:	std    
  402b7d:	cli    
  402b7e:	push   edi
  402b7f:	xlat   BYTE PTR ds:[ebx]
  402b80:	jb     0x402ba3
  402b82:	mul    BYTE PTR [eax-0x7af4285e]
  402b88:	fisubr WORD PTR [ebx]
  402b8a:	hlt    
  402b8b:	inc    ecx
  402b8c:	jb     0x402b62
  402b8e:	add    ch,BYTE PTR [ebx]
  402b90:	fdiv   QWORD PTR [esi-0x3]
  402b93:	sbb    BYTE PTR [esi-0x2981512e],dh
  402b99:	icebp  
  402b9a:	imul   ebx,eax,0xffffffd2
  402b9d:	jp     0x402bab
  402b9f:	fcom   st(1)
  402ba1:	sbb    esp,DWORD PTR [ebx]
  402ba3:	in     al,dx
  402ba4:	pop    esi
  402ba5:	addr16 call 0xa6bbade7
  402bab:	sub    ebx,DWORD PTR [esi-0x762ba4fc]
  402bb1:	and    cl,dh
  402bb3:	sub    esi,DWORD PTR [esi]
  402bb5:	test   DWORD PTR [ebx+0x2b],ebx
  402bb8:	cld    
  402bb9:	adc    dh,al
  402bbb:	mov    al,ds:0x3cab0e8d
  402bc0:	cmp    DWORD PTR [esi-0x5a],0x2b
  402bc4:	adc    bh,BYTE PTR [edx+0x6c]
  402bc7:	in     al,0x89
  402bc9:	jp     0x402b71
  402bcb:	jae    0x402bca
  402bcd:	lds    edx,FWORD PTR [edi+0x5f]
  402bd0:	leave  
  402bd1:	jbe    0x402b70
  402bd3:	jae    0x402c43
  402bd5:	icebp  
  402bd6:	pop    edi
  402bd7:	pop    edi
  402bd8:	mov    DWORD PTR [ecx-0x5e855fa1],edx
  402bde:	pop    esi
  402bdf:	popf   
  402be0:	mov    ch,0xf1
  402be2:	aad    0x3
  402be4:	jne    0x402c58
  402be6:	shr    BYTE PTR [ecx+edx*4+0x1037d6f3],1
  402bed:	jb     0x402c07
  402bef:	ret    0x5a89
  402bf2:	shl    DWORD PTR [edi],1
  402bf4:	adc    ah,BYTE PTR [ebx+eax*2]
  402bf7:	aam    0x89
  402bf9:	jp     0x402c26
  402bfb:	imul   eax,DWORD PTR [esi+0xc],0x23
  402bff:	fdiv   QWORD PTR [esi+0x2f]
  402c02:	mov    dl,0xc3
  402c04:	add    BYTE PTR [edi-0x4c2b2ba5],al
  402c0a:	(bad)  
  402c0b:	mov    ds:0xb547a102,al
  402c10:	fst    DWORD PTR [edx-0x7a89d067]
  402c16:	add    edx,DWORD PTR [ebp-0xf]
  402c19:	and    ah,BYTE PTR [esi+0x2c857629]
  402c1f:	fild   DWORD PTR [edx]
  402c21:	jle    0x402ba5
  402c23:	in     al,dx
  402c24:	jb     0x402bc7
  402c26:	pop    ebx
  402c27:	aam    0x89
  402c29:	jp     0x402bd2
  402c2b:	pop    esi
  402c2c:	push   edx
  402c2d:	or     DWORD PTR [ebx],0xc6b949e7
  402c33:	mov    al,ds:0xe82d8685
  402c38:	add    cl,ah
  402c3a:	sub    esi,DWORD PTR es:[esi-0x7b]
  402c3e:	fsub   QWORD PTR [edx]
  402c40:	std    
  402c41:	or     DWORD PTR [ebx+0x57fbfdd8],esp
  402c47:	push   ecx
  402c48:	jbe    0x402c58
  402c4a:	int3   
  402c4b:	sub    BYTE PTR [ebp-0x727da52e],cl
  402c51:	jmp    DWORD PTR [esi+0x5e]
  402c54:	jb     0x402c28
  402c56:	pop    edx
  402c57:	or     BYTE PTR [ecx+0xa0f02a],0x95
  402c5e:	pop    esi
  402c5f:	daa    
  402c60:	add    al,BYTE PTR [ecx+ecx*1-0x590f4952]
  402c67:	(bad)  
  402c68:	jle    0x402c5b
  402c6a:	push   0xfd52775
  402c6f:	mov    esi,0xd4ff2b8d
  402c74:	and    ecx,DWORD PTR [ecx-0x70a0f3]
  402c7a:	mov    bx,0xee6
  402c7e:	sbb    eax,0xa34e04c4
  402c83:	jl     0x402c60
  402c85:	add    BYTE PTR [ebx-0x592c6d60],bl
  402c8b:	sub    esi,DWORD PTR [esi+0x5]
  402c8e:	sub    al,0xd0
  402c90:	add    al,0x3e
  402c92:	mov    ds:0x5a7a5329,eax
  402c97:	aam    0x9
  402c99:	sub    ah,BYTE PTR [edi+0x5a91525e]
  402c9f:	add    BYTE PTR [ecx+0x29cb4bd1],0xdb
  402ca6:	add    ecx,DWORD PTR [ebp+0x7cf52add]
  402cac:	mov    eax,edx
  402cae:	push   edi
  402caf:	mov    WORD PTR [edx],cs
  402cb1:	mov    esp,0xe4f9c0b2
  402cb6:	sahf   
  402cb7:	mov    ah,0x2
  402cb9:	test   eax,0xf375d92b
  402cbe:	addr16 (bad) 
  402cc0:	fisttp WORD PTR [esi+0x21]
  402cc3:	stc    
  402cc4:	jns    0x402cc7
  402cc6:	int3   
  402cc7:	aam    0x89
  402cc9:	jp     0x402cf6
  402ccb:	movs   DWORD PTR es:[edi],DWORD PTR ds:[esi]
  402ccc:	rol    BYTE PTR [ebp-0x33fd2ba5],cl
  402cd2:	push   es
  402cd3:	sub    esi,DWORD PTR [esi-0x7b]
  402cd6:	fsub   QWORD PTR [edx]
  402cd8:	xchg   dh,bh
  402cda:	and    eax,0x5e85762b
  402cdf:	daa    
  402ce0:	and    al,0xf1
  402ce2:	pop    esi
  402ce3:	sub    BYTE PTR [ebp-0x26ef292b],cl
  402ce9:	sub    esi,esp
  402ceb:	jnp    0x402d09
  402ced:	xor    DWORD PTR [ebx],0xa67a99d4
  402cf3:	jl     0x402cea
  402cf5:	ins    DWORD PTR es:[edi],dx
  402cf6:	pop    edi
  402cf7:	test   bl,ah
  402cf9:	jle    0x402cc9
  402cfb:	sub    esp,DWORD PTR [esi-0x7b]
  402cfe:	pop    ebx
  402cff:	or     DWORD PTR [eax],0x7e
  402d02:	sub    BYTE PTR [ebx],0x66
  402d05:	test   DWORD PTR [ebx+0x2b],ebx
  402d08:	fdiv   QWORD PTR [esi-0x59]
  402d0b:	jge    0x402d87
  402d0d:	fild   WORD PTR [eax]
  402d0f:	jns    0x402cb3
  402d11:	mov    dl,0xf5
  402d13:	mov    al,ds:0x57b054be
  402d18:	pusha  
  402d19:	jle    0x402cae
  402d1b:	jmp    0x402d2d
  402d1d:	sub    BYTE PTR ds:0xd24a897d,bh
  402d23:	and    edx,DWORD PTR [ebx+0x7a]
  402d26:	dec    edx
  402d27:	aam    0x89
  402d29:	jnp    0x402cdd
  402d2b:	sub    al,0x94
  402d2d:	imul   eax,DWORD PTR [eax],0x59
  402d30:	int    0x5e
  402d32:	mov    ds:0x5ad5247a,al
  402d37:	in     eax,0xe1
  402d39:	jp     0x402cf1
  402d3b:	sub    esi,DWORD PTR [esi-0x2e]
  402d3e:	fidivr WORD PTR [ecx*4+0x1e1aa72a]
  402d45:	test   DWORD PTR [ebx-0x2c],ecx
  402d48:	mov    DWORD PTR ds:0x85522f25,ebp
  402d4e:	dec    ebx
  402d4f:	aam    0x89
  402d51:	test   ecx,esi
  402d53:	daa    
  402d54:	mov    eax,edx
  402d56:	push   edi
  402d57:	mov    ss,eax
  402d59:	and    bh,dh
  402d5b:	scas   al,BYTE PTR es:[edi]
  402d5c:	mov    edi,0x4ab5d8f0
  402d61:	sbb    cl,BYTE PTR [ebx+0x2c]
  402d64:	(bad)  [edi-0x5c]
  402d67:	pop    ecx
  402d68:	mov    ebp,0x9ea06379
  402d6d:	push   cs
  402d6e:	scas   al,BYTE PTR es:[edi]
  402d6f:	ins    DWORD PTR es:[edi],dx
  402d70:	cdq    
  402d71:	jp     0x402d19
  402d73:	sub    ebx,DWORD PTR [esi-0x762ba592]
  402d79:	rol    BYTE PTR [edi-0x4c7a89d5],0x35
  402d80:	jbe    0x402d07
  402d82:	cmps   DWORD PTR ds:[esi],DWORD PTR es:[edi]
  402d83:	jl     0x402d54
  402d85:	sbb    BYTE PTR [ebx-0x2c],0x89
  402d89:	xchg   edx,eax
  402d8a:	jo     0x402d60
  402d8c:	mov    DWORD PTR [edx-0x2a],edi
  402d8f:	add    al,0x2
  402d91:	dec    esi
  402d92:	adc    BYTE PTR [edx-0x2ba47a81],0x61
  402d99:	mov    ebp,0x9762ba7
  402d9e:	movs   DWORD PTR es:[edi],DWORD PTR ds:[esi]
  402d9f:	pop    edi
  402da0:	inc    ebx
  402da1:	xchg   edx,eax
  402da2:	sbb    ah,dl
  402da4:	mov    DWORD PTR [edx+0x6e],edi
  402da7:	adc    al,0xd9
  402da9:	mov    ebx,0x81b72c6e
  402dae:	jg     0x402d89
  402db0:	mov    BYTE PTR [esi-0x7e],bh
  402db3:	xchg   edx,esi
  402db5:	inc    ebp
  402db6:	sub    al,0x25
  402db8:	shl    ecx,1
  402dba:	pop    edi
  402dbb:	adc    BYTE PTR [ebx-0x361a10f],dh
  402dc1:	cmps   DWORD PTR ds:[esi],DWORD PTR es:[edi]
  402dc2:	sub    ebx,DWORD PTR [edi]
  402dc4:	push   edx
  402dc5:	cmp    al,0x51
  402dc7:	aam    0x89
  402dc9:	jp     0x402e19
  402dcb:	mov    esi,0xc45a7a89
  402dd0:	ds jbe 0x402dc3
  402dd3:	jne    0x402dfc
  402dd5:	cmp    al,0x53
  402dd7:	aam    0x89
  402dd9:	jp     0x402e29
  402ddb:	scas   al,BYTE PTR es:[edi]
  402ddc:	mov    DWORD PTR [edx+0x5a],edi
  402ddf:	mov    fs,WORD PTR [ecx+0x5]
  402de2:	cmps   DWORD PTR ds:[esi],DWORD PTR es:[edi]
  402de3:	sub    esi,DWORD PTR [esi+0xf]
  402de6:	das    
  402de7:	lock xchg ebp,eax
  402de9:	sbb    esp,DWORD PTR [ebx+0x7a]
  402dec:	mov    bh,0x6d
  402dee:	inc    esp
  402def:	ins    DWORD PTR es:[edi],dx
  402df0:	test   eax,0x3e2ba67a
  402df5:	icebp  
  402df6:	imul   ebp,DWORD PTR [ebp-0x75],0x7a
  402dfa:	cmps   BYTE PTR ds:[esi],BYTE PTR es:[edi]
  402dfb:	sub    edi,DWORD PTR [esi]
  402dfd:	icebp  
  402dfe:	jae    0x402e6d
  402e00:	test   eax,0x3e2ba67a
  402e05:	icebp  
  402e06:	jnp    0x402e75
  402e08:	lea    edi,[edx-0x5a]
  402e0b:	sub    edi,DWORD PTR [esi]
  402e0d:	icebp  
  402e0e:	inc    ebx
  402e0f:	ins    DWORD PTR es:[edi],dx
  402e10:	leave  
  402e11:	jp     0x402db9
  402e13:	sub    edi,DWORD PTR [esi]
  402e15:	icebp  
  402e16:	dec    ebx
  402e17:	ins    DWORD PTR es:[edi],dx
  402e18:	lea    edi,[edx-0x5a]
  402e1b:	sub    edi,DWORD PTR [esi]
  402e1d:	icebp  
  402e1e:	push   ebx
  402e1f:	ins    DWORD PTR es:[edi],dx
  402e20:	leave  
  402e21:	jp     0x402dc9
  402e23:	sub    edi,DWORD PTR [esi]
  402e25:	icebp  
  402e26:	pop    ebx
  402e27:	pop    edi
  402e28:	dec    eax
  402e29:	and    esp,DWORD PTR [ebx+0x4b]
  402e2c:	std    
  402e2d:	shr    BYTE PTR [ebx],1
  402e2f:	push   ebp
  402e30:	jnp    0x402e1d
  402e32:	dec    esp
  402e33:	outs   dx,BYTE PTR ds:[esi]
  402e34:	push   cs
  402e35:	push   cs
  402e36:	adc    al,0xbc
  402e38:	add    al,BYTE PTR [ebx+eiz*1+0x2f852e56]
  402e3f:	xlat   BYTE PTR ds:[ebx]
  402e40:	mov    BYTE PTR [edi],cl
  402e42:	(bad)  
  402e43:	mov    al,ds:0x14dce533
  402e48:	std    
  402e49:	outs   dx,DWORD PTR ds:[esi]
  402e4a:	sub    eax,0xe1d74a6d
  402e4f:	ror    BYTE PTR [ecx-0x2c3c5986],1
  402e55:	test   BYTE PTR [ebx-0x2c],bl
  402e58:	sar    DWORD PTR [ecx+0x56],cl
  402e5b:	sub    BYTE PTR [esi-0x3106c52],cl
  402e61:	and    dl,cl
  402e63:	es jne 0x402e56
  402e66:	pop    es
  402e67:	xlat   BYTE PTR ds:[ebx]
  402e68:	hlt    
  402e69:	mov    esp,DWORD PTR es:[esi+0x2a]
  402e6d:	add    BYTE PTR [eax-0x9287d60],dl
  402e73:	add    BYTE PTR [edi+ebx*8+0x796057f6],dh
  402e7a:	inc    esp
  402e7b:	enter  0x4617,0x3b
  402e7f:	push   edi
  402e80:	hlt    
  402e81:	cmps   BYTE PTR ss:[esi],BYTE PTR es:[edi]
  402e83:	pop    edi
  402e84:	fs ins DWORD PTR es:[edi],dx
  402e86:	dec    edx
  402e87:	aam    0x89
  402e89:	jp     0x402eb6
  402e8b:	push   esi
  402e8c:	and    al,BYTE PTR [eax]
  402e8e:	pop    edx
  402e8f:	mov    eax,ds:0x884ed18f
  402e94:	jbe    0x402e1b
  402e96:	pop    ebx
  402e97:	mov    ch,0x4a
  402e99:	sbb    ah,BYTE PTR [edi-0x7cf1b583]
  402e9f:	pop    edi
  402ea0:	cld    
  402ea1:	sub    ebp,DWORD PTR ss:[esi+0x26]
  402ea5:	aad    0xb
  402ea7:	mov    esp,0x2baa7a89
  402eac:	and    eax,0xd0940c7a
  402eb1:	sub    ch,BYTE PTR [ebx]
  402eb3:	rol    DWORD PTR [ebp-0x76134cdf],cl
  402eb9:	jp     0x402e61
  402ebb:	arpl   di,di
  402ebd:	sar    DWORD PTR [edi-0xc],0x2
  402ec1:	sub    BYTE PTR [ecx],0x27
  402ec4:	retf   
  402ec5:	sbb    DWORD PTR [ebx-0x2c],0x33051e89
  402ecc:	jbe    0x402e53
  402ece:	pop    ebx
  402ecf:	pop    edi
  402ed0:	stc    
  402ed1:	push   esi
  402ed2:	cmc    
  402ed3:	inc    ebx
  402ed4:	jbe    0x402e5b
  402ed6:	push   edi
  402ed7:	aam    0xda
  402ed9:	test   ecx,esi
  402edb:	imul   edi,ebx,0xffffff89
  402ede:	jecxz  0x402f3b
  402ee0:	mov    BYTE PTR [edx],ch
  402ee2:	sub    esp,esp
  402ee4:	std    
  402ee5:	jge    0x402e95
  402ee7:	jno    0x402ed6
  402ee9:	fstp   TBYTE PTR [esi-0x357a89d5]
  402eef:	xchg   esp,eax
  402ef0:	movs   DWORD PTR es:[edi],DWORD PTR ds:[esi]
  402ef1:	sbb    esp,DWORD PTR [ebx+0x4b]
  402ef4:	imul   DWORD PTR [ecx+0x7b]
  402ef7:	(bad)  
  402ef8:	mov    DWORD PTR [edx-0x32],edi
  402efb:	pcmpeqb mm0,QWORD PTR [ebp+0x107fe75b]
  402f02:	cmps   BYTE PTR ds:[esi],BYTE PTR es:[edi]
  402f03:	inc    ecx
  402f04:	jle    0x402f80
  402f06:	or     al,0xc8
  402f08:	add    ah,BYTE PTR [edx-0x2f76870e]
  402f0e:	outs   dx,DWORD PTR ds:[esi]
  402f0f:	pop    edi
  402f10:	int    0x5e
  402f12:	mov    edx,0xd6b93628
  402f17:	push   esp
  402f18:	dec    ecx
  402f19:	jp     0x402ec1
  402f1b:	sub    esi,ebx
  402f1d:	inc    ebp
  402f1e:	das    
  402f1f:	aad    0xcf
  402f21:	cs repz aam 0x23
  402f25:	mov    ebp,0x9ffc14dc
  402f2a:	repz aam 0x23
  402f2d:	popf   
  402f2e:	fcom   DWORD PTR [eax]
  402f30:	lods   eax,DWORD PTR ds:[esi]
  402f31:	js     0x402ed9
  402f33:	sub    edi,edi
  402f35:	icebp  
  402f36:	jg     0x402f00
  402f38:	call   0x1a83f5f6
  402f3d:	jmp    0x922039d
  402f42:	rol    BYTE PTR ds:0xa734ed12,cl
  402f48:	call   FWORD PTR [ecx]
  402f4a:	repnz aam 0x23
  402f4d:	sbb    esp,0xf272fc14
  402f53:	aam    0x23
  402f55:	test   esp,ebx
  402f57:	adc    al,0xfd
  402f59:	aaa    
  402f5a:	int3   
  402f5b:	sub    ebx,DWORD PTR [esi]
  402f5d:	in     al,dx
  402f5e:	xor    eax,0xc012efa0
  402f63:	pop    esp
  402f64:	push   es
  402f65:	test   DWORD PTR [edi],0xae2f7684
  402f6b:	test   al,0xb2
  402f6d:	mov    esi,edx
  402f6f:	and    al,0xd9
  402f71:	cs int3 
  402f73:	imul   ebx,DWORD PTR [edx+eax*4],0xd
  402f77:	sub    ebx,esp
  402f79:	jbe    0x402f79
  402f7b:	jnp    0x402f9f
  402f7d:	aad    0x31
  402f7f:	rcr    edi,cl
  402f81:	xchg   edx,eax
  402f82:	sub    BYTE PTR [ebx],0x76
  402f85:	test   esi,edx
  402f87:	call   0x39b02b39
  402f8c:	jbe    0x402f13
  402f8e:	pop    ebx
  402f8f:	mov    esi,0x8f53238e
  402f94:	xor    DWORD PTR [esi],ecx
  402f96:	popf   
  402f97:	jg     0x402f9d
  402f99:	add    al,0x5d
  402f9b:	fwait
  402f9c:	push   ds
  402f9d:	das    
  402f9e:	add    edi,DWORD PTR [edi+0x39]
  402fa1:	mov    ecx,0x8923d40c
  402fa6:	add    edx,DWORD PTR [edi+0x4d]
  402fa9:	jbe    0x402f70
  402fab:	call   0x81cba9de
  402fb0:	popa   
  402fb1:	in     al,0xa6
  402fb3:	sub    esi,DWORD PTR [esi-0x28]
  402fb6:	aam    0x91
  402fb8:	stc    
  402fb9:	stc    
  402fba:	data16 das 
  402fbc:	inc    ecx
  402fbe:	jg     0x402f84
  402fc0:	aam    0x7a
  402fc2:	cmps   BYTE PTR ds:[esi],BYTE PTR es:[edi]
  402fc3:	sub    esi,DWORD PTR [esi-0x7b]
  402fc6:	pop    ebx
  402fc7:	aam    0xe1
  402fc9:	jp     0x402f71
  402fcb:	sub    esi,DWORD PTR [esi+0x46]
  402fce:	cmp    eax,0x1c1c7fe7
  402fd3:	data16 sub al,0xe3
  402fd6:	hlt    
  402fd7:	mov    dl,0xba
  402fd9:	stos   BYTE PTR es:[edi],al
  402fda:	shl    BYTE PTR [ebx],cl
  402fdc:	imul   DWORD PTR [ebx+0x59]
  402fdf:	les    ecx,FWORD PTR [ecx-0x439b486]
  402fe5:	(bad)  [ebp+0x550f7650]
  402feb:	mov    al,ds:0x6e3dbf00
  402ff0:	fnstcw WORD PTR [edi]
  402ff2:	sub    DWORD PTR [edi],ebx
  402ff4:	push   0xbab2f4e3
  402ff9:	stos   BYTE PTR es:[edi],al
  402ffa:	ror    ebx,1
  402ffc:	mov    ch,0xd4
  402ffe:	outs   dx,BYTE PTR ds:[esi]
  402fff:	sbb    eax,0x536451c8
  403004:	jb     0x402ff7
  403006:	pop    ecx
  403007:	aas    
  403008:	jle    0x403053
  40300a:	data16 sub BYTE PTR [edi+eiz*2-0xeb57259],dh
  403012:	fld    DWORD PTR [ebx+0x1c]
  403015:	xor    DWORD PTR [ebx],0xa67a99d4
  40301b:	jl     0x403039
  40301d:	test   DWORD PTR [edx-0x7e],ebx
  403020:	cdq    
  403021:	icebp  
  403022:	push   esi
  403023:	stos   BYTE PTR es:[edi],al
  403024:	call   0x5af1:0x89d45881
  40302b:	inc    ebx
  40302c:	jb     0x402fb2
  40302e:	pop    ebx
  40302f:	aam    0xde
  403031:	sub    DWORD PTR [edi+0x5bef567d],esp
  403037:	mov    esp,0x2ba67a09
  40303c:	sbb    al,0x86
  40303e:	xor    esp,edx
  403040:	jecxz  0x4030bd
  403042:	into   
  403043:	sub    esi,DWORD PTR [esi-0x7b]
  403046:	fild   DWORD PTR [ebx-0x557dd08a]
  40304c:	mov    dl,0x81
  40304e:	pop    eax
  40304f:	aam    0x89
  403051:	mov    ecx,0x55897336
  403056:	cmps   BYTE PTR ds:[esi],BYTE PTR es:[edi]
  403057:	add    BYTE PTR [ebx],ch
  403059:	sbb    ebp,DWORD PTR [edi+edx*1]
  40305c:	jb     0x403026
  40305e:	adc    al,0x6c
  403060:	es mov dh,0x79
  403063:	adc    bh,ch
  403065:	add    edi,DWORD PTR [ebx+0x58]
  403068:	rcr    DWORD PTR [eax],0x45
  40306b:	pop    ecx
  40306c:	scas   eax,DWORD PTR es:[edi]
  40306d:	sahf   
  40306e:	mov    ebx,0x3b165768
  403073:	test   edx,ebp
  403075:	push   ecx
  403076:	fwait
  403077:	test   eax,0xdb467ee6
  40307d:	xchg   edx,eax
  40307e:	movs   DWORD PTR es:[edi],DWORD PTR ds:[esi]
  40307f:	sbb    eax,0x47e0ff23
  403084:	in     al,dx
  403085:	lods   al,BYTE PTR ds:[esi]
  403086:	push   ebx
  403087:	push   edi
  403088:	sbb    ch,0x1d
  40308b:	int    0x60
  40308d:	test   BYTE PTR [ebx],bl
  40308f:	enter  0xf188,0x1b
  403093:	arpl   WORD PTR [edx+eax*2+0x5cd56bd4],dx
  40309a:	movs   BYTE PTR es:[edi],BYTE PTR ds:[esi]
  40309b:	mov    eax,0xd45b3249
  4030a0:	mov    DWORD PTR [edx-0x5a],edi
  4030a3:	sub    esi,DWORD PTR [esi-0x7b]
  4030a6:	pop    ebx
  4030a7:	aam    0x89
  4030a9:	jp     0x403051
  4030ab:	sub    esi,DWORD PTR [esi-0x7b]
  4030ae:	pop    ebx
  4030af:	aam    0x89
  4030b1:	jp     0x403059
  4030b3:	sub    esi,DWORD PTR [esi-0x7b]
  4030b6:	pop    ebx
  4030b7:	aam    0x89
  4030b9:	jp     0x4030b1
  4030bb:	lods   al,BYTE PTR ds:[esi]
  4030bc:	ja     0x403043
  4030be:	pop    ebx
  4030bf:	into   
  4030c0:	mov    WORD PTR [edx-0x5a],?
  4030c3:	das    
  4030c4:	jbe    0x40304b
  4030c6:	xchg   esi,eax
  4030c7:	jmp    0xe646:0xca3f7845
  4030ce:	or     eax,DWORD PTR [edi-0x7810ca1f]
  4030d4:	push   esp
  4030d5:	fcomi  st,st(4)
  4030d7:	stos   BYTE PTR es:[edi],al
